; Listing generated by Microsoft (R) Optimizing Compiler Version 16.00.30319.01 

	TITLE	D:\Lost Saga For Developer\Youtube\Tutorial\Source\src\LSClient\GUI\PetToolTip.cpp
	.686P
	.XMM
	include listing.inc
	.model	flat

INCLUDELIB MSVCRT
INCLUDELIB OLDNAMES

PUBLIC	??_7PetToolTip@@6B@				; PetToolTip::`vftable'
PUBLIC	??1PetToolTip@@UAE@XZ				; PetToolTip::~PetToolTip
PUBLIC	??_R4PetToolTip@@6B@				; PetToolTip::`RTTI Complete Object Locator'
PUBLIC	??_R0?AVPetToolTip@@@8				; PetToolTip `RTTI Type Descriptor'
PUBLIC	??_R3PetToolTip@@8				; PetToolTip::`RTTI Class Hierarchy Descriptor'
PUBLIC	??_R2PetToolTip@@8				; PetToolTip::`RTTI Base Class Array'
PUBLIC	??_R1A@?0A@EA@PetToolTip@@8			; PetToolTip::`RTTI Base Class Descriptor at (0,-1,0,64)'
PUBLIC	??_R1A@?0A@EA@ioWnd@@8				; ioWnd::`RTTI Base Class Descriptor at (0,-1,0,64)'
PUBLIC	??_R0?AVioWnd@@@8				; ioWnd `RTTI Type Descriptor'
PUBLIC	??_R3ioWnd@@8					; ioWnd::`RTTI Class Hierarchy Descriptor'
PUBLIC	??_R2ioWnd@@8					; ioWnd::`RTTI Base Class Array'
PUBLIC	?AddRenderImage@PetToolTip@@UAEXABVioHashString@@PAVioUIRenderImage@@@Z ; PetToolTip::AddRenderImage
PUBLIC	?OnRender@PetToolTip@@MAEXXZ			; PetToolTip::OnRender
PUBLIC	?OnProcess@PetToolTip@@MAEXM@Z			; PetToolTip::OnProcess
PUBLIC	?iwm_show@PetToolTip@@UAEXXZ			; PetToolTip::iwm_show
PUBLIC	?iwm_hide@PetToolTip@@UAEXXZ			; PetToolTip::iwm_hide
EXTRN	__imp_??1ioWnd@@UAE@XZ:PROC
EXTRN	__imp_??1ioHashString@@QAE@XZ:PROC
EXTRN	??1ioComplexStringPrinter@@QAE@XZ:PROC		; ioComplexStringPrinter::~ioComplexStringPrinter
EXTRN	___CxxFrameHandler3:PROC
EXTRN	@__security_check_cookie@4:PROC
EXTRN	__EH_epilog3:PROC
EXTRN	__EH_prolog3:PROC
EXTRN	??_7type_info@@6B@:QWORD			; type_info::`vftable'
EXTRN	?AddRenderFrame@ioWnd@@UAEXABVioHashString@@PAVioUIRenderFrame@@@Z:PROC ; ioWnd::AddRenderFrame
EXTRN	?AddTooltipHelp@ioWnd@@UAEXABVioHashString@@00@Z:PROC ; ioWnd::AddTooltipHelp
EXTRN	?ParseExtraInfo@ioWnd@@UAEXAAVioXMLElement@@@Z:PROC ; ioWnd::ParseExtraInfo
EXTRN	?AddNamedRenderImage@ioWnd@@UAEXABVioHashString@@PAVioUIRenderImage@@@Z:PROC ; ioWnd::AddNamedRenderImage
EXTRN	?RemoveNamedRenderImage@ioWnd@@UAEXABVioHashString@@@Z:PROC ; ioWnd::RemoveNamedRenderImage
EXTRN	?GetNamedRenderImage@ioWnd@@UBEPAVioUIRenderImage@@ABVioHashString@@@Z:PROC ; ioWnd::GetNamedRenderImage
EXTRN	?SetWindowAlpha@ioWnd@@UAEXH@Z:PROC		; ioWnd::SetWindowAlpha
EXTRN	?SetActive@ioWnd@@UAEXXZ:PROC			; ioWnd::SetActive
EXTRN	?SetInActive@ioWnd@@UAEXXZ:PROC			; ioWnd::SetInActive
EXTRN	?ClearElementImageList@ioWnd@@UAEXXZ:PROC	; ioWnd::ClearElementImageList
EXTRN	?SetSize@ioWnd@@UAEXHH@Z:PROC			; ioWnd::SetSize
EXTRN	?SetPositionToDefault@ioWnd@@UAEXHH_N0@Z:PROC	; ioWnd::SetPositionToDefault
EXTRN	?IsNeedProcess@ioWnd@@UBE_NXZ:PROC		; ioWnd::IsNeedProcess
EXTRN	?IsCanMouseReaction@ioWnd@@UBE_NXZ:PROC		; ioWnd::IsCanMouseReaction
EXTRN	?AddChild@ioWnd@@UAEXPAV1@@Z:PROC		; ioWnd::AddChild
EXTRN	?DeleteChild@ioWnd@@UAEXK@Z:PROC		; ioWnd::DeleteChild
EXTRN	?DeleteAllChild@ioWnd@@UAEXXZ:PROC		; ioWnd::DeleteAllChild
EXTRN	?OnRenderShowAndHide@ioWnd@@MAE_NXZ:PROC	; ioWnd::OnRenderShowAndHide
EXTRN	?OnRenderShowAndHideByDefault@ioWnd@@MAE_NK@Z:PROC ; ioWnd::OnRenderShowAndHideByDefault
EXTRN	?OnRenderShowAndHideByTop@ioWnd@@MAE_NK@Z:PROC	; ioWnd::OnRenderShowAndHideByTop
EXTRN	?OnRenderShowAndHideByDown@ioWnd@@MAE_NK@Z:PROC	; ioWnd::OnRenderShowAndHideByDown
EXTRN	?OnRenderAfterChild@ioWnd@@MAEXXZ:PROC		; ioWnd::OnRenderAfterChild
EXTRN	?OnMouseProcess@ioWnd@@MAEXABVioMouse@@@Z:PROC	; ioWnd::OnMouseProcess
EXTRN	?CheckFrameReSize@ioWnd@@MAEXHHHH@Z:PROC	; ioWnd::CheckFrameReSize
EXTRN	?RenderImageList@ioWnd@@MAEXHHW4UIRenderType@@@Z:PROC ; ioWnd::RenderImageList
EXTRN	?iwm_create@ioWnd@@UAEXXZ:PROC			; ioWnd::iwm_create
EXTRN	?iwm_destroy@ioWnd@@UAEXXZ:PROC			; ioWnd::iwm_destroy
EXTRN	?iwm_lbuttondown@ioWnd@@UAEXABVioMouse@@@Z:PROC	; ioWnd::iwm_lbuttondown
EXTRN	?iwm_lbuttonup@ioWnd@@UAEXABVioMouse@@@Z:PROC	; ioWnd::iwm_lbuttonup
EXTRN	?iwm_lbuttonDBLCLK@ioWnd@@UAEXABVioMouse@@@Z:PROC ; ioWnd::iwm_lbuttonDBLCLK
EXTRN	?iwm_rbuttondown@ioWnd@@UAEXABVioMouse@@@Z:PROC	; ioWnd::iwm_rbuttondown
EXTRN	?iwm_rbuttonup@ioWnd@@UAEXABVioMouse@@@Z:PROC	; ioWnd::iwm_rbuttonup
EXTRN	?iwm_command@ioWnd@@UAEXPAV1@HK@Z:PROC		; ioWnd::iwm_command
EXTRN	?iwm_mouseover@ioWnd@@UAEXABVioMouse@@@Z:PROC	; ioWnd::iwm_mouseover
EXTRN	?iwm_mousemove@ioWnd@@UAEXABVioMouse@@@Z:PROC	; ioWnd::iwm_mousemove
EXTRN	?iwm_mouseleave@ioWnd@@UAEXABVioMouse@@@Z:PROC	; ioWnd::iwm_mouseleave
EXTRN	?iwm_vscroll@ioWnd@@UAEXKH@Z:PROC		; ioWnd::iwm_vscroll
EXTRN	?iwm_wheel@ioWnd@@UAEXH@Z:PROC			; ioWnd::iwm_wheel
EXTRN	?iwm_esc@ioWnd@@UAE_NXZ:PROC			; ioWnd::iwm_esc
EXTRN	?iwm_spacebar@ioWnd@@UAE_NXZ:PROC		; ioWnd::iwm_spacebar
EXTRN	?iwm_gototop@ioWnd@@UAEXXZ:PROC			; ioWnd::iwm_gototop
EXTRN	?iwm_dragenter@ioWnd@@UAE?AW4IWDropEffect@@PAVioDragItem@@ABVioMouse@@@Z:PROC ; ioWnd::iwm_dragenter
EXTRN	?iwm_dragover@ioWnd@@UAE?AW4IWDropEffect@@PAVioDragItem@@ABVioMouse@@@Z:PROC ; ioWnd::iwm_dragover
EXTRN	?iwm_dragleave@ioWnd@@UAEXXZ:PROC		; ioWnd::iwm_dragleave
EXTRN	?iwm_dropitem@ioWnd@@UAE_NPAVioDragItem@@ABVioMouse@@PAV1@@Z:PROC ; ioWnd::iwm_dropitem
EXTRN	?iwm_dropdone@ioWnd@@UAEXPAVioDragItem@@PAV1@_N@Z:PROC ; ioWnd::iwm_dropdone
EXTRN	?IsEXType@ioWnd@@UBE_NXZ:PROC			; ioWnd::IsEXType
EXTRN	?GetWndType@ioWnd@@UBEKXZ:PROC			; ioWnd::GetWndType
EXTRN	?RenderWnd@ioWnd@@UAEXXZ:PROC			; ioWnd::RenderWnd
EXTRN	?SetIDEX@ioWnd@@UAEXAAK_N@Z:PROC		; ioWnd::SetIDEX
EXTRN	?ParseXML@ioWnd@@UAEXAAVioXMLElement@@@Z:PROC	; ioWnd::ParseXML
EXTRN	?GetHeaderFileName@ioWnd@@UAEPBDXZ:PROC		; ioWnd::GetHeaderFileName
EXTRN	?GetTemplateName@ioWnd@@UAEPBDXZ:PROC		; ioWnd::GetTemplateName
EXTRN	?GetDefClassName@ioWnd@@UBEPBDXZ:PROC		; ioWnd::GetDefClassName
EXTRN	?_Clone@ioWnd@@UAEPAV1@XZ:PROC			; ioWnd::_Clone
EXTRN	?Copy@ioWnd@@UAEXPAV1@@Z:PROC			; ioWnd::Copy
EXTRN	?Save@ioWnd@@UAE_NAAVioXMLElement@@@Z:PROC	; ioWnd::Save
EXTRN	?SetSaveData@ioWnd@@UAEXAAVioXMLElement@@@Z:PROC ; ioWnd::SetSaveData
EXTRN	?SetPosX@ioWnd@@UAEXH@Z:PROC			; ioWnd::SetPosX
EXTRN	?SetPosY@ioWnd@@UAEXH@Z:PROC			; ioWnd::SetPosY
EXTRN	?SetWidth@ioWnd@@UAEXH@Z:PROC			; ioWnd::SetWidth
EXTRN	?SetHeight@ioWnd@@UAEXH@Z:PROC			; ioWnd::SetHeight
EXTRN	?GetNumFixedRenderFrame@ioWnd@@UBEHXZ:PROC	; ioWnd::GetNumFixedRenderFrame
EXTRN	?GetFixedRenderFrameType@ioWnd@@UAEPBDH@Z:PROC	; ioWnd::GetFixedRenderFrameType
EXTRN	?GetRenderFrame@ioWnd@@UAEPAPAVioUIRenderElement@@PBD@Z:PROC ; ioWnd::GetRenderFrame
EXTRN	?GetNumFixedRenderImage@ioWnd@@UBEHXZ:PROC	; ioWnd::GetNumFixedRenderImage
EXTRN	?GetFixedRenderImageType@ioWnd@@UAEPBDH@Z:PROC	; ioWnd::GetFixedRenderImageType
EXTRN	?GetRenderImage@ioWnd@@UAEPAPAVioUIRenderElement@@PBD@Z:PROC ; ioWnd::GetRenderImage
EXTRN	?AddEffect@ioWnd@@UAEXABVioHashString@@PAVioUI3DEffectRender@@@Z:PROC ; ioWnd::AddEffect
EXTRN	?GetEffect@ioWnd@@UAEPAVioUI3DEffectRender@@VioHashString@@@Z:PROC ; ioWnd::GetEffect
EXTRN	??_EPetToolTip@@UAEPAXI@Z:PROC			; PetToolTip::`vector deleting destructor'
;	COMDAT ??_R2ioWnd@@8
; File d:\lost saga for developer\youtube\tutorial\source\src\lsclient\gui\pettooltip.cpp
rdata$r	SEGMENT
??_R2ioWnd@@8 DD FLAT:??_R1A@?0A@EA@ioWnd@@8		; ioWnd::`RTTI Base Class Array'
rdata$r	ENDS
;	COMDAT ??_R3ioWnd@@8
rdata$r	SEGMENT
??_R3ioWnd@@8 DD 00H					; ioWnd::`RTTI Class Hierarchy Descriptor'
	DD	00H
	DD	01H
	DD	FLAT:??_R2ioWnd@@8
rdata$r	ENDS
;	COMDAT ??_R0?AVioWnd@@@8
_DATA	SEGMENT
??_R0?AVioWnd@@@8 DD FLAT:??_7type_info@@6B@		; ioWnd `RTTI Type Descriptor'
	DD	00H
	DB	'.?AVioWnd@@', 00H
_DATA	ENDS
;	COMDAT ??_R1A@?0A@EA@ioWnd@@8
rdata$r	SEGMENT
??_R1A@?0A@EA@ioWnd@@8 DD FLAT:??_R0?AVioWnd@@@8	; ioWnd::`RTTI Base Class Descriptor at (0,-1,0,64)'
	DD	00H
	DD	00H
	DD	0ffffffffH
	DD	00H
	DD	040H
	DD	FLAT:??_R3ioWnd@@8
rdata$r	ENDS
;	COMDAT ??_R1A@?0A@EA@PetToolTip@@8
rdata$r	SEGMENT
??_R1A@?0A@EA@PetToolTip@@8 DD FLAT:??_R0?AVPetToolTip@@@8 ; PetToolTip::`RTTI Base Class Descriptor at (0,-1,0,64)'
	DD	01H
	DD	00H
	DD	0ffffffffH
	DD	00H
	DD	040H
	DD	FLAT:??_R3PetToolTip@@8
rdata$r	ENDS
;	COMDAT ??_R2PetToolTip@@8
rdata$r	SEGMENT
??_R2PetToolTip@@8 DD FLAT:??_R1A@?0A@EA@PetToolTip@@8	; PetToolTip::`RTTI Base Class Array'
	DD	FLAT:??_R1A@?0A@EA@ioWnd@@8
rdata$r	ENDS
;	COMDAT ??_R3PetToolTip@@8
rdata$r	SEGMENT
??_R3PetToolTip@@8 DD 00H				; PetToolTip::`RTTI Class Hierarchy Descriptor'
	DD	00H
	DD	02H
	DD	FLAT:??_R2PetToolTip@@8
rdata$r	ENDS
;	COMDAT ??_R0?AVPetToolTip@@@8
_DATA	SEGMENT
??_R0?AVPetToolTip@@@8 DD FLAT:??_7type_info@@6B@	; PetToolTip `RTTI Type Descriptor'
	DD	00H
	DB	'.?AVPetToolTip@@', 00H
_DATA	ENDS
;	COMDAT ??_R4PetToolTip@@6B@
rdata$r	SEGMENT
??_R4PetToolTip@@6B@ DD 00H				; PetToolTip::`RTTI Complete Object Locator'
	DD	00H
	DD	00H
	DD	FLAT:??_R0?AVPetToolTip@@@8
	DD	FLAT:??_R3PetToolTip@@8
rdata$r	ENDS
;	COMDAT ??_7PetToolTip@@6B@
CONST	SEGMENT
??_7PetToolTip@@6B@ DD FLAT:??_R4PetToolTip@@6B@	; PetToolTip::`vftable'
	DD	FLAT:?AddRenderFrame@ioWnd@@UAEXABVioHashString@@PAVioUIRenderFrame@@@Z
	DD	FLAT:?AddRenderImage@PetToolTip@@UAEXABVioHashString@@PAVioUIRenderImage@@@Z
	DD	FLAT:?AddTooltipHelp@ioWnd@@UAEXABVioHashString@@00@Z
	DD	FLAT:?ParseExtraInfo@ioWnd@@UAEXAAVioXMLElement@@@Z
	DD	FLAT:?AddNamedRenderImage@ioWnd@@UAEXABVioHashString@@PAVioUIRenderImage@@@Z
	DD	FLAT:?RemoveNamedRenderImage@ioWnd@@UAEXABVioHashString@@@Z
	DD	FLAT:?GetNamedRenderImage@ioWnd@@UBEPAVioUIRenderImage@@ABVioHashString@@@Z
	DD	FLAT:?SetWindowAlpha@ioWnd@@UAEXH@Z
	DD	FLAT:?SetActive@ioWnd@@UAEXXZ
	DD	FLAT:?SetInActive@ioWnd@@UAEXXZ
	DD	FLAT:?ClearElementImageList@ioWnd@@UAEXXZ
	DD	FLAT:?SetSize@ioWnd@@UAEXHH@Z
	DD	FLAT:?SetPositionToDefault@ioWnd@@UAEXHH_N0@Z
	DD	FLAT:?IsNeedProcess@ioWnd@@UBE_NXZ
	DD	FLAT:?IsCanMouseReaction@ioWnd@@UBE_NXZ
	DD	FLAT:?AddChild@ioWnd@@UAEXPAV1@@Z
	DD	FLAT:?DeleteChild@ioWnd@@UAEXK@Z
	DD	FLAT:?DeleteAllChild@ioWnd@@UAEXXZ
	DD	FLAT:?OnRenderShowAndHide@ioWnd@@MAE_NXZ
	DD	FLAT:?OnRenderShowAndHideByDefault@ioWnd@@MAE_NK@Z
	DD	FLAT:?OnRenderShowAndHideByTop@ioWnd@@MAE_NK@Z
	DD	FLAT:?OnRenderShowAndHideByDown@ioWnd@@MAE_NK@Z
	DD	FLAT:?OnRender@PetToolTip@@MAEXXZ
	DD	FLAT:?OnRenderAfterChild@ioWnd@@MAEXXZ
	DD	FLAT:?OnProcess@PetToolTip@@MAEXM@Z
	DD	FLAT:?OnMouseProcess@ioWnd@@MAEXABVioMouse@@@Z
	DD	FLAT:?CheckFrameReSize@ioWnd@@MAEXHHHH@Z
	DD	FLAT:?RenderImageList@ioWnd@@MAEXHHW4UIRenderType@@@Z
	DD	FLAT:?iwm_create@ioWnd@@UAEXXZ
	DD	FLAT:?iwm_destroy@ioWnd@@UAEXXZ
	DD	FLAT:?iwm_lbuttondown@ioWnd@@UAEXABVioMouse@@@Z
	DD	FLAT:?iwm_lbuttonup@ioWnd@@UAEXABVioMouse@@@Z
	DD	FLAT:?iwm_lbuttonDBLCLK@ioWnd@@UAEXABVioMouse@@@Z
	DD	FLAT:?iwm_rbuttondown@ioWnd@@UAEXABVioMouse@@@Z
	DD	FLAT:?iwm_rbuttonup@ioWnd@@UAEXABVioMouse@@@Z
	DD	FLAT:?iwm_command@ioWnd@@UAEXPAV1@HK@Z
	DD	FLAT:?iwm_mouseover@ioWnd@@UAEXABVioMouse@@@Z
	DD	FLAT:?iwm_mousemove@ioWnd@@UAEXABVioMouse@@@Z
	DD	FLAT:?iwm_mouseleave@ioWnd@@UAEXABVioMouse@@@Z
	DD	FLAT:?iwm_vscroll@ioWnd@@UAEXKH@Z
	DD	FLAT:?iwm_wheel@ioWnd@@UAEXH@Z
	DD	FLAT:?iwm_show@PetToolTip@@UAEXXZ
	DD	FLAT:?iwm_hide@PetToolTip@@UAEXXZ
	DD	FLAT:?iwm_esc@ioWnd@@UAE_NXZ
	DD	FLAT:?iwm_spacebar@ioWnd@@UAE_NXZ
	DD	FLAT:?iwm_gototop@ioWnd@@UAEXXZ
	DD	FLAT:?iwm_dragenter@ioWnd@@UAE?AW4IWDropEffect@@PAVioDragItem@@ABVioMouse@@@Z
	DD	FLAT:?iwm_dragover@ioWnd@@UAE?AW4IWDropEffect@@PAVioDragItem@@ABVioMouse@@@Z
	DD	FLAT:?iwm_dragleave@ioWnd@@UAEXXZ
	DD	FLAT:?iwm_dropitem@ioWnd@@UAE_NPAVioDragItem@@ABVioMouse@@PAV1@@Z
	DD	FLAT:?iwm_dropdone@ioWnd@@UAEXPAVioDragItem@@PAV1@_N@Z
	DD	FLAT:?IsEXType@ioWnd@@UBE_NXZ
	DD	FLAT:?GetWndType@ioWnd@@UBEKXZ
	DD	FLAT:?RenderWnd@ioWnd@@UAEXXZ
	DD	FLAT:?SetIDEX@ioWnd@@UAEXAAK_N@Z
	DD	FLAT:?ParseXML@ioWnd@@UAEXAAVioXMLElement@@@Z
	DD	FLAT:?GetHeaderFileName@ioWnd@@UAEPBDXZ
	DD	FLAT:?GetTemplateName@ioWnd@@UAEPBDXZ
	DD	FLAT:?GetDefClassName@ioWnd@@UBEPBDXZ
	DD	FLAT:?_Clone@ioWnd@@UAEPAV1@XZ
	DD	FLAT:?Copy@ioWnd@@UAEXPAV1@@Z
	DD	FLAT:?Save@ioWnd@@UAE_NAAVioXMLElement@@@Z
	DD	FLAT:?SetSaveData@ioWnd@@UAEXAAVioXMLElement@@@Z
	DD	FLAT:?SetPosX@ioWnd@@UAEXH@Z
	DD	FLAT:?SetPosY@ioWnd@@UAEXH@Z
	DD	FLAT:?SetWidth@ioWnd@@UAEXH@Z
	DD	FLAT:?SetHeight@ioWnd@@UAEXH@Z
	DD	FLAT:?GetNumFixedRenderFrame@ioWnd@@UBEHXZ
	DD	FLAT:?GetFixedRenderFrameType@ioWnd@@UAEPBDH@Z
	DD	FLAT:?GetRenderFrame@ioWnd@@UAEPAPAVioUIRenderElement@@PBD@Z
	DD	FLAT:?GetNumFixedRenderImage@ioWnd@@UBEHXZ
	DD	FLAT:?GetFixedRenderImageType@ioWnd@@UAEPBDH@Z
	DD	FLAT:?GetRenderImage@ioWnd@@UAEPAPAVioUIRenderElement@@PBD@Z
	DD	FLAT:?AddEffect@ioWnd@@UAEXABVioHashString@@PAVioUI3DEffectRender@@@Z
	DD	FLAT:?GetEffect@ioWnd@@UAEPAVioUI3DEffectRender@@VioHashString@@@Z
	DD	FLAT:??_EPetToolTip@@UAEPAXI@Z
CONST	ENDS
;	COMDAT xdata$x
xdata$x	SEGMENT
__unwindtable$??1PetToolTip@@UAE@XZ DD 0ffffffffH
	DD	FLAT:__unwindfunclet$??1PetToolTip@@UAE@XZ$0
	DD	00H
	DD	FLAT:__unwindfunclet$??1PetToolTip@@UAE@XZ$1
	DD	01H
	DD	FLAT:__unwindfunclet$??1PetToolTip@@UAE@XZ$2
	DD	02H
	DD	FLAT:__unwindfunclet$??1PetToolTip@@UAE@XZ$3
__ehfuncinfo$??1PetToolTip@@UAE@XZ DD 019930522H
	DD	04H
	DD	FLAT:__unwindtable$??1PetToolTip@@UAE@XZ
	DD	2 DUP(00H)
	DD	2 DUP(00H)
	DD	00H
	DD	01H
; Function compile flags: /Ogsp
xdata$x	ENDS
;	COMDAT ??1PetToolTip@@UAE@XZ
_TEXT	SEGMENT
_this$ = -16						; size = 4
__$EHRec$ = -12						; size = 12
??1PetToolTip@@UAE@XZ PROC				; PetToolTip::~PetToolTip, COMDAT
; _this$ = ecx

; 20   : {

  00000	6a 04		 push	 4
  00002	b8 00 00 00 00	 mov	 eax, __ehhandler$??1PetToolTip@@UAE@XZ
  00007	e8 00 00 00 00	 call	 __EH_prolog3
  0000c	8b f1		 mov	 esi, ecx
  0000e	89 75 f0	 mov	 DWORD PTR _this$[ebp], esi
  00011	c7 06 00 00 00
	00		 mov	 DWORD PTR [esi], OFFSET ??_7PetToolTip@@6B@

; 21   : 	SAFEDELETE( m_pPetIcon );

  00017	8b 8e 60 01 00
	00		 mov	 ecx, DWORD PTR [esi+352]
  0001d	c7 45 fc 03 00
	00 00		 mov	 DWORD PTR __$EHRec$[ebp+8], 3
  00024	85 c9		 test	 ecx, ecx
  00026	74 0e		 je	 SHORT $LN3@PetToolTip
  00028	8b 01		 mov	 eax, DWORD PTR [ecx]
  0002a	6a 01		 push	 1
  0002c	ff 50 40	 call	 DWORD PTR [eax+64]
  0002f	83 a6 60 01 00
	00 00		 and	 DWORD PTR [esi+352], 0
$LN3@PetToolTip:

; 22   : 	SAFEDELETE( m_pIconBack );

  00036	8b 8e 64 01 00
	00		 mov	 ecx, DWORD PTR [esi+356]
  0003c	85 c9		 test	 ecx, ecx
  0003e	74 0e		 je	 SHORT $LN2@PetToolTip
  00040	8b 01		 mov	 eax, DWORD PTR [ecx]
  00042	6a 01		 push	 1
  00044	ff 50 40	 call	 DWORD PTR [eax+64]
  00047	83 a6 64 01 00
	00 00		 and	 DWORD PTR [esi+356], 0
$LN2@PetToolTip:

; 23   : 	SAFEDELETE(m_pBottomImg);

  0004e	8b 8e 68 01 00
	00		 mov	 ecx, DWORD PTR [esi+360]
  00054	85 c9		 test	 ecx, ecx
  00056	74 0e		 je	 SHORT $LN1@PetToolTip
  00058	8b 01		 mov	 eax, DWORD PTR [ecx]
  0005a	6a 01		 push	 1
  0005c	ff 50 40	 call	 DWORD PTR [eax+64]
  0005f	83 a6 68 01 00
	00 00		 and	 DWORD PTR [esi+360], 0
$LN1@PetToolTip:

; 24   : }

  00066	8d 8e c4 01 00
	00		 lea	 ecx, DWORD PTR [esi+452]
  0006c	c6 45 fc 02	 mov	 BYTE PTR __$EHRec$[ebp+8], 2
  00070	e8 00 00 00 00	 call	 ??1ioComplexStringPrinter@@QAE@XZ ; ioComplexStringPrinter::~ioComplexStringPrinter
  00075	8b 3d 00 00 00
	00		 mov	 edi, DWORD PTR __imp_??1ioHashString@@QAE@XZ
  0007b	8d 8e b4 01 00
	00		 lea	 ecx, DWORD PTR [esi+436]
  00081	c6 45 fc 01	 mov	 BYTE PTR __$EHRec$[ebp+8], 1
  00085	ff d7		 call	 edi
  00087	8d 8e a4 01 00
	00		 lea	 ecx, DWORD PTR [esi+420]
  0008d	c6 45 fc 00	 mov	 BYTE PTR __$EHRec$[ebp+8], 0
  00091	ff d7		 call	 edi
  00093	83 4d fc ff	 or	 DWORD PTR __$EHRec$[ebp+8], -1
  00097	8b ce		 mov	 ecx, esi
  00099	ff 15 00 00 00
	00		 call	 DWORD PTR __imp_??1ioWnd@@UAE@XZ
  0009f	e8 00 00 00 00	 call	 __EH_epilog3
  000a4	c3		 ret	 0
_TEXT	ENDS
;	COMDAT text$x
text$x	SEGMENT
__unwindfunclet$??1PetToolTip@@UAE@XZ$0:
  00000	8b 4d f0	 mov	 ecx, DWORD PTR _this$[ebp]
  00003	ff 25 00 00 00
	00		 jmp	 DWORD PTR __imp_??1ioWnd@@UAE@XZ
__unwindfunclet$??1PetToolTip@@UAE@XZ$1:
  00009	8b 4d f0	 mov	 ecx, DWORD PTR _this$[ebp]
  0000c	81 c1 a4 01 00
	00		 add	 ecx, 420		; 000001a4H
  00012	ff 25 00 00 00
	00		 jmp	 DWORD PTR __imp_??1ioHashString@@QAE@XZ
__unwindfunclet$??1PetToolTip@@UAE@XZ$2:
  00018	8b 4d f0	 mov	 ecx, DWORD PTR _this$[ebp]
  0001b	81 c1 b4 01 00
	00		 add	 ecx, 436		; 000001b4H
  00021	ff 25 00 00 00
	00		 jmp	 DWORD PTR __imp_??1ioHashString@@QAE@XZ
__unwindfunclet$??1PetToolTip@@UAE@XZ$3:
  00027	8b 4d f0	 mov	 ecx, DWORD PTR _this$[ebp]
  0002a	81 c1 c4 01 00
	00		 add	 ecx, 452		; 000001c4H
  00030	e9 00 00 00 00	 jmp	 ??1ioComplexStringPrinter@@QAE@XZ ; ioComplexStringPrinter::~ioComplexStringPrinter
__ehhandler$??1PetToolTip@@UAE@XZ:
  00035	8b 54 24 08	 mov	 edx, DWORD PTR [esp+8]
  00039	8d 42 0c	 lea	 eax, DWORD PTR [edx+12]
  0003c	8b 4a ec	 mov	 ecx, DWORD PTR [edx-20]
  0003f	33 c8		 xor	 ecx, eax
  00041	e8 00 00 00 00	 call	 @__security_check_cookie@4
  00046	b8 00 00 00 00	 mov	 eax, OFFSET __ehfuncinfo$??1PetToolTip@@UAE@XZ
  0004b	e9 00 00 00 00	 jmp	 ___CxxFrameHandler3
text$x	ENDS
??1PetToolTip@@UAE@XZ ENDP				; PetToolTip::~PetToolTip
; Function compile flags: /Ogsp
;	COMDAT ?iwm_show@PetToolTip@@UAEXXZ
_TEXT	SEGMENT
?iwm_show@PetToolTip@@UAEXXZ PROC			; PetToolTip::iwm_show, COMDAT
; _this$ = ecx

; 28   : }

  00000	c3		 ret	 0
?iwm_show@PetToolTip@@UAEXXZ ENDP			; PetToolTip::iwm_show
_TEXT	ENDS
PUBLIC	?return8@@YAIXZ					; return8
; Function compile flags: /Ogsp
; File d:\lost saga for developer\youtube\tutorial\source\src\lsclient\stdafx.h
;	COMDAT ?return8@@YAIXZ
_TEXT	SEGMENT
?return8@@YAIXZ PROC					; return8, COMDAT

; 19   : 	__forceinline unsigned int return8() { __asm mov eax, 8 };

  00000	b8 08 00 00 00	 mov	 eax, 8
  00005	c3		 ret	 0
?return8@@YAIXZ ENDP					; return8
_TEXT	ENDS
PUBLIC	?return10@@YAIXZ				; return10
; Function compile flags: /Ogsp
;	COMDAT ?return10@@YAIXZ
_TEXT	SEGMENT
?return10@@YAIXZ PROC					; return10, COMDAT

; 21   : 	__forceinline unsigned int return10() { __asm mov eax, 10 };

  00000	b8 0a 00 00 00	 mov	 eax, 10			; 0000000aH
  00005	c3		 ret	 0
?return10@@YAIXZ ENDP					; return10
_TEXT	ENDS
PUBLIC	?return100@@YAIXZ				; return100
; Function compile flags: /Ogsp
;	COMDAT ?return100@@YAIXZ
_TEXT	SEGMENT
?return100@@YAIXZ PROC					; return100, COMDAT

; 25   : 	__forceinline unsigned int return100() { __asm mov eax, 100 };

  00000	b8 64 00 00 00	 mov	 eax, 100		; 00000064H
  00005	c3		 ret	 0
?return100@@YAIXZ ENDP					; return100
_TEXT	ENDS
PUBLIC	__real@4f800000
PUBLIC	__real@3f19999a
PUBLIC	??_C@_0BH@OOFHEDP@PetToolTip?3?3RenderDesc?$AA@	; `string'
PUBLIC	??_C@_00CNPNBAHC@?$AA@				; `string'
PUBLIC	__real@43020000
PUBLIC	__real@3f666666
PUBLIC	?RenderDesc@PetToolTip@@IAEXHH@Z		; PetToolTip::RenderDesc
EXTRN	?AddTextPiece@ioComplexStringPrinter@@QAEXMPBD0@Z:PROC ; ioComplexStringPrinter::AddTextPiece
EXTRN	?AddTextPiece@ioComplexStringPrinter@@QAEXMPBDH@Z:PROC ; ioComplexStringPrinter::AddTextPiece
EXTRN	?AddTextPiece@ioComplexStringPrinter@@QAEXMPBDHHH@Z:PROC ; ioComplexStringPrinter::AddTextPiece
EXTRN	__imp_?GetString@ioStringManager@@QAEPADPBD0HW4FileNamePrefix@1@@Z:PROC
EXTRN	__imp_?GetSingleton@ioStringManager@@SAAAV1@XZ:PROC
EXTRN	?ClearList@ioComplexStringPrinter@@QAEXXZ:PROC	; ioComplexStringPrinter::ClearList
EXTRN	?PrintFullTextWidthCut@ioComplexStringPrinter@@QAEXMMW4TextAlignType@@ME@Z:PROC ; ioComplexStringPrinter::PrintFullTextWidthCut
EXTRN	?AddTextPiece@ioComplexStringPrinter@@QAAXMPBDZZ:PROC ; ioComplexStringPrinter::AddTextPiece
EXTRN	__imp_?c_str@ioHashString@@QBEPBDXZ:PROC
EXTRN	?SetTextColor@ioComplexStringPrinter@@QAEXK@Z:PROC ; ioComplexStringPrinter::SetTextColor
EXTRN	?SetBkColor@ioComplexStringPrinter@@QAEXHHH@Z:PROC ; ioComplexStringPrinter::SetBkColor
EXTRN	?SetTextStyle@ioComplexStringPrinter@@QAEXW4TextStyle@@@Z:PROC ; ioComplexStringPrinter::SetTextStyle
EXTRN	__imp_?IsEmpty@ioHashString@@QBE_NXZ:PROC
EXTRN	?GetRankName@ioPetInfoManager@@QAE?AVioHashString@@H@Z:PROC ; ioPetInfoManager::GetRankName
EXTRN	?GetSingleton@ioPetInfoManager@@SAAAV1@XZ:PROC	; ioPetInfoManager::GetSingleton
EXTRN	__fltused:DWORD
;	COMDAT __real@4f800000
CONST	SEGMENT
__real@4f800000 DD 04f800000r			; 4.29497e+009
CONST	ENDS
;	COMDAT __real@3f19999a
CONST	SEGMENT
__real@3f19999a DD 03f19999ar			; 0.6
CONST	ENDS
;	COMDAT ??_C@_0BH@OOFHEDP@PetToolTip?3?3RenderDesc?$AA@
CONST	SEGMENT
??_C@_0BH@OOFHEDP@PetToolTip?3?3RenderDesc?$AA@ DB 'PetToolTip::RenderDes'
	DB	'c', 00H					; `string'
CONST	ENDS
;	COMDAT ??_C@_00CNPNBAHC@?$AA@
CONST	SEGMENT
??_C@_00CNPNBAHC@?$AA@ DB 00H				; `string'
CONST	ENDS
;	COMDAT __real@43020000
CONST	SEGMENT
__real@43020000 DD 043020000r			; 130
CONST	ENDS
;	COMDAT __real@3f666666
CONST	SEGMENT
__real@3f666666 DD 03f666666r			; 0.9
CONST	ENDS
;	COMDAT xdata$x
xdata$x	SEGMENT
__unwindtable$?RenderDesc@PetToolTip@@IAEXHH@Z DD 0ffffffffH
	DD	FLAT:__unwindfunclet$?RenderDesc@PetToolTip@@IAEXHH@Z$0
__ehfuncinfo$?RenderDesc@PetToolTip@@IAEXHH@Z DD 019930522H
	DD	01H
	DD	FLAT:__unwindtable$?RenderDesc@PetToolTip@@IAEXHH@Z
	DD	2 DUP(00H)
	DD	2 DUP(00H)
	DD	00H
	DD	01H
; Function compile flags: /Ogsp
; File d:\lost saga for developer\youtube\tutorial\source\src\lsclient\gui\pettooltip.cpp
xdata$x	ENDS
;	COMDAT ?RenderDesc@PetToolTip@@IAEXHH@Z
_TEXT	SEGMENT
_szRank$ = -32						; size = 16
tv394 = -16						; size = 4
tv392 = -16						; size = 4
tv257 = -16						; size = 4
__$EHRec$ = -12						; size = 12
_nXPos$ = 8						; size = 4
tv386 = 12						; size = 4
tv327 = 12						; size = 4
tv239 = 12						; size = 4
tv232 = 12						; size = 4
$T505929 = 12						; size = 4
$T505921 = 12						; size = 4
_nYPos$ = 12						; size = 4
?RenderDesc@PetToolTip@@IAEXHH@Z PROC			; PetToolTip::RenderDesc, COMDAT
; _this$ = ecx

; 114  : {

  00000	6a 14		 push	 20			; 00000014H
  00002	b8 00 00 00 00	 mov	 eax, __ehhandler$?RenderDesc@PetToolTip@@IAEXHH@Z
  00007	e8 00 00 00 00	 call	 __EH_prolog3
  0000c	8b f1		 mov	 esi, ecx

; 115  : 	enum 
; 116  : 	{
; 117  : 		X_OFFSET    = 71,
; 118  : 		Y_OFFSET	= 17,
; 119  : 
; 120  : 		Y2_OFFSET	= 37,
; 121  : 		Y3_OFFSET	= 53,
; 122  : 
; 123  : 		ICON_X_OFFSET = 39,
; 124  : 		ICON_Y_OFFSET = 41,
; 125  : 	};
; 126  : 
; 127  : 	ioHashString szRank = g_PetInfoMgr.GetRankName( m_nSelectPetRank );

  0000e	ff b6 94 01 00
	00		 push	 DWORD PTR [esi+404]
  00014	8d 45 e0	 lea	 eax, DWORD PTR _szRank$[ebp]
  00017	50		 push	 eax
  00018	e8 00 00 00 00	 call	 ?GetSingleton@ioPetInfoManager@@SAAAV1@XZ ; ioPetInfoManager::GetSingleton
  0001d	8b c8		 mov	 ecx, eax
  0001f	e8 00 00 00 00	 call	 ?GetRankName@ioPetInfoManager@@QAE?AVioHashString@@H@Z ; ioPetInfoManager::GetRankName
  00024	33 db		 xor	 ebx, ebx

; 128  : 	if ( m_szPetName.IsEmpty() || szRank.IsEmpty() )

  00026	8d 8e a4 01 00
	00		 lea	 ecx, DWORD PTR [esi+420]
  0002c	89 5d fc	 mov	 DWORD PTR __$EHRec$[ebp+8], ebx
  0002f	ff 15 00 00 00
	00		 call	 DWORD PTR __imp_?IsEmpty@ioHashString@@QBE_NXZ
  00035	84 c0		 test	 al, al
  00037	0f 85 14 03 00
	00		 jne	 $LN5@RenderDesc
  0003d	8d 4d e0	 lea	 ecx, DWORD PTR _szRank$[ebp]
  00040	ff 15 00 00 00
	00		 call	 DWORD PTR __imp_?IsEmpty@ioHashString@@QBE_NXZ
  00046	84 c0		 test	 al, al
  00048	0f 85 03 03 00
	00		 jne	 $LN5@RenderDesc

; 130  : 
; 131  : 	m_szDesc.SetTextStyle( TS_NORMAL );

  0004e	8d be c4 01 00
	00		 lea	 edi, DWORD PTR [esi+452]
  00054	53		 push	 ebx
  00055	8b cf		 mov	 ecx, edi
  00057	e8 00 00 00 00	 call	 ?SetTextStyle@ioComplexStringPrinter@@QAEXW4TextStyle@@@Z ; ioComplexStringPrinter::SetTextStyle

; 132  : 	m_szDesc.SetBkColor( 0, 0, 0 );	

  0005c	53		 push	 ebx
  0005d	53		 push	 ebx
  0005e	53		 push	 ebx
  0005f	8b cf		 mov	 ecx, edi
  00061	e8 00 00 00 00	 call	 ?SetBkColor@ioComplexStringPrinter@@QAEXHHH@Z ; ioComplexStringPrinter::SetBkColor

; 133  : 	m_szDesc.SetTextColor( TCT_DEFAULT_DARKGRAY );

  00066	68 3a 3a 3a ff	 push	 -12961222		; ff3a3a3aH
  0006b	8b cf		 mov	 ecx, edi
  0006d	e8 00 00 00 00	 call	 ?SetTextColor@ioComplexStringPrinter@@QAEXK@Z ; ioComplexStringPrinter::SetTextColor

; 134  : 	m_szDesc.AddTextPiece( FONT_SIZE_18, m_szPetName.c_str() );

  00072	8d 8e a4 01 00
	00		 lea	 ecx, DWORD PTR [esi+420]
  00078	ff 15 00 00 00
	00		 call	 DWORD PTR __imp_?c_str@ioHashString@@QBEPBDXZ
  0007e	f3 0f 10 05 00
	00 00 00	 movss	 xmm0, DWORD PTR __real@3f666666
  00086	50		 push	 eax
  00087	51		 push	 ecx
  00088	f3 0f 11 04 24	 movss	 DWORD PTR [esp], xmm0
  0008d	57		 push	 edi
  0008e	e8 00 00 00 00	 call	 ?AddTextPiece@ioComplexStringPrinter@@QAAXMPBDZZ ; ioComplexStringPrinter::AddTextPiece

; 135  : 	m_szDesc.PrintFullTextWidthCut( nXPos+X_OFFSET, nYPos + Y_OFFSET, TAT_LEFT, INVEN_TOOLTIP_WIDTHCUT_SIZE );

  00093	f3 0f 10 0d 00
	00 00 00	 movss	 xmm1, DWORD PTR __real@43020000
  0009b	8b 45 08	 mov	 eax, DWORD PTR _nXPos$[ebp]
  0009e	83 c4 0c	 add	 esp, 12			; 0000000cH
  000a1	68 ff 00 00 00	 push	 255			; 000000ffH
  000a6	51		 push	 ecx
  000a7	f3 0f 11 0c 24	 movss	 DWORD PTR [esp], xmm1
  000ac	53		 push	 ebx
  000ad	8b 5d 0c	 mov	 ebx, DWORD PTR _nYPos$[ebp]
  000b0	83 c0 47	 add	 eax, 71			; 00000047H
  000b3	0f 57 c0	 xorps	 xmm0, xmm0
  000b6	f3 0f 2a c0	 cvtsi2ss xmm0, eax
  000ba	51		 push	 ecx
  000bb	51		 push	 ecx
  000bc	8d 43 11	 lea	 eax, DWORD PTR [ebx+17]
  000bf	0f 57 c9	 xorps	 xmm1, xmm1
  000c2	f3 0f 2a c8	 cvtsi2ss xmm1, eax
  000c6	f3 0f 11 4c 24
	04		 movss	 DWORD PTR [esp+4], xmm1
  000cc	8b cf		 mov	 ecx, edi
  000ce	f3 0f 11 45 f0	 movss	 DWORD PTR tv394[ebp], xmm0
  000d3	f3 0f 11 04 24	 movss	 DWORD PTR [esp], xmm0
  000d8	e8 00 00 00 00	 call	 ?PrintFullTextWidthCut@ioComplexStringPrinter@@QAEXMMW4TextAlignType@@ME@Z ; ioComplexStringPrinter::PrintFullTextWidthCut

; 136  : 	m_szDesc.ClearList();

  000dd	8b cf		 mov	 ecx, edi
  000df	e8 00 00 00 00	 call	 ?ClearList@ioComplexStringPrinter@@QAEXXZ ; ioComplexStringPrinter::ClearList

; 137  : 
; 138  : 	if ( m_nSelectPetLevel < m_nMaxLevel )

  000e4	8b 86 90 01 00
	00		 mov	 eax, DWORD PTR [esi+400]

; 139  : 	{
; 140  : 		m_szDesc.SetTextColor( TCT_DEFAULT_GRAY ); 

  000ea	68 6e 6e 6e ff	 push	 -9539986		; ff6e6e6eH
  000ef	8b cf		 mov	 ecx, edi
  000f1	3b 86 9c 01 00
	00		 cmp	 eax, DWORD PTR [esi+412]
  000f7	7d 4e		 jge	 SHORT $LN4@RenderDesc
  000f9	e8 00 00 00 00	 call	 ?SetTextColor@ioComplexStringPrinter@@QAEXK@Z ; ioComplexStringPrinter::SetTextColor

; 141  : 		m_szDesc.AddTextPiece( FONT_SIZE_12, STR(1), m_nSelectPetLevel, m_nMaxLevel, (int)m_fExpRate );

  000fe	f3 0f 2c 86 a0
	01 00 00	 cvttss2si eax, DWORD PTR [esi+416]
  00106	50		 push	 eax
  00107	ff b6 9c 01 00
	00		 push	 DWORD PTR [esi+412]
  0010d	ff b6 90 01 00
	00		 push	 DWORD PTR [esi+400]
  00113	6a 00		 push	 0
  00115	6a 01		 push	 1
  00117	68 00 00 00 00	 push	 OFFSET ??_C@_00CNPNBAHC@?$AA@
  0011c	68 00 00 00 00	 push	 OFFSET ??_C@_0BH@OOFHEDP@PetToolTip?3?3RenderDesc?$AA@
  00121	ff 15 00 00 00
	00		 call	 DWORD PTR __imp_?GetSingleton@ioStringManager@@SAAAV1@XZ
  00127	8b c8		 mov	 ecx, eax
  00129	ff 15 00 00 00
	00		 call	 DWORD PTR __imp_?GetString@ioStringManager@@QAEPADPBD0HW4FileNamePrefix@1@@Z
  0012f	f3 0f 10 05 00
	00 00 00	 movss	 xmm0, DWORD PTR __real@3f19999a
  00137	50		 push	 eax
  00138	51		 push	 ecx
  00139	8b cf		 mov	 ecx, edi
  0013b	f3 0f 11 04 24	 movss	 DWORD PTR [esp], xmm0
  00140	e8 00 00 00 00	 call	 ?AddTextPiece@ioComplexStringPrinter@@QAEXMPBDHHH@Z ; ioComplexStringPrinter::AddTextPiece

; 142  : 		m_szDesc.PrintFullTextWidthCut( nXPos+X_OFFSET, nYPos + Y2_OFFSET, TAT_LEFT, INVEN_TOOLTIP_WIDTHCUT_SIZE );
; 143  : 		m_szDesc.ClearList();
; 144  : 	}
; 145  : 	else

  00145	eb 3d		 jmp	 SHORT $LN24@RenderDesc
$LN4@RenderDesc:

; 146  : 	{
; 147  : 		m_szDesc.SetTextColor( TCT_DEFAULT_GRAY ); 

  00147	e8 00 00 00 00	 call	 ?SetTextColor@ioComplexStringPrinter@@QAEXK@Z ; ioComplexStringPrinter::SetTextColor

; 148  : 		m_szDesc.AddTextPiece( FONT_SIZE_12, STR(2), m_nSelectPetLevel );

  0014c	ff b6 90 01 00
	00		 push	 DWORD PTR [esi+400]
  00152	6a 00		 push	 0
  00154	6a 02		 push	 2
  00156	68 00 00 00 00	 push	 OFFSET ??_C@_00CNPNBAHC@?$AA@
  0015b	68 00 00 00 00	 push	 OFFSET ??_C@_0BH@OOFHEDP@PetToolTip?3?3RenderDesc?$AA@
  00160	ff 15 00 00 00
	00		 call	 DWORD PTR __imp_?GetSingleton@ioStringManager@@SAAAV1@XZ
  00166	8b c8		 mov	 ecx, eax
  00168	ff 15 00 00 00
	00		 call	 DWORD PTR __imp_?GetString@ioStringManager@@QAEPADPBD0HW4FileNamePrefix@1@@Z
  0016e	f3 0f 10 05 00
	00 00 00	 movss	 xmm0, DWORD PTR __real@3f19999a
  00176	50		 push	 eax
  00177	51		 push	 ecx
  00178	8b cf		 mov	 ecx, edi
  0017a	f3 0f 11 04 24	 movss	 DWORD PTR [esp], xmm0
  0017f	e8 00 00 00 00	 call	 ?AddTextPiece@ioComplexStringPrinter@@QAEXMPBDH@Z ; ioComplexStringPrinter::AddTextPiece
$LN24@RenderDesc:

; 149  : 		m_szDesc.PrintFullTextWidthCut( nXPos+X_OFFSET, nYPos + Y2_OFFSET, TAT_LEFT, INVEN_TOOLTIP_WIDTHCUT_SIZE );

  00184	f3 0f 10 05 00
	00 00 00	 movss	 xmm0, DWORD PTR __real@43020000
  0018c	68 ff 00 00 00	 push	 255			; 000000ffH
  00191	51		 push	 ecx
  00192	f3 0f 11 04 24	 movss	 DWORD PTR [esp], xmm0
  00197	6a 00		 push	 0
  00199	51		 push	 ecx
  0019a	51		 push	 ecx
  0019b	0f 57 c0	 xorps	 xmm0, xmm0
  0019e	8d 43 25	 lea	 eax, DWORD PTR [ebx+37]
  001a1	f3 0f 2a c0	 cvtsi2ss xmm0, eax
  001a5	f3 0f 11 44 24
	04		 movss	 DWORD PTR [esp+4], xmm0
  001ab	f3 0f 10 45 f0	 movss	 xmm0, DWORD PTR tv394[ebp]
  001b0	8b cf		 mov	 ecx, edi
  001b2	f3 0f 11 04 24	 movss	 DWORD PTR [esp], xmm0
  001b7	e8 00 00 00 00	 call	 ?PrintFullTextWidthCut@ioComplexStringPrinter@@QAEXMMW4TextAlignType@@ME@Z ; ioComplexStringPrinter::PrintFullTextWidthCut

; 150  : 		m_szDesc.ClearList();

  001bc	8b cf		 mov	 ecx, edi
  001be	e8 00 00 00 00	 call	 ?ClearList@ioComplexStringPrinter@@QAEXXZ ; ioComplexStringPrinter::ClearList

; 151  : 	}
; 152  : 
; 153  : 	m_szDesc.SetTextColor( TCT_DEFAULT_GRAY ); 

  001c3	68 6e 6e 6e ff	 push	 -9539986		; ff6e6e6eH
  001c8	8b cf		 mov	 ecx, edi
  001ca	e8 00 00 00 00	 call	 ?SetTextColor@ioComplexStringPrinter@@QAEXK@Z ; ioComplexStringPrinter::SetTextColor

; 154  : 	m_szDesc.AddTextPiece( FONT_SIZE_12, STR(3), szRank.c_str() );

  001cf	8d 4d e0	 lea	 ecx, DWORD PTR _szRank$[ebp]
  001d2	ff 15 00 00 00
	00		 call	 DWORD PTR __imp_?c_str@ioHashString@@QBEPBDXZ
  001d8	50		 push	 eax
  001d9	6a 00		 push	 0
  001db	6a 03		 push	 3
  001dd	68 00 00 00 00	 push	 OFFSET ??_C@_00CNPNBAHC@?$AA@
  001e2	68 00 00 00 00	 push	 OFFSET ??_C@_0BH@OOFHEDP@PetToolTip?3?3RenderDesc?$AA@
  001e7	ff 15 00 00 00
	00		 call	 DWORD PTR __imp_?GetSingleton@ioStringManager@@SAAAV1@XZ
  001ed	8b c8		 mov	 ecx, eax
  001ef	ff 15 00 00 00
	00		 call	 DWORD PTR __imp_?GetString@ioStringManager@@QAEPADPBD0HW4FileNamePrefix@1@@Z
  001f5	f3 0f 10 05 00
	00 00 00	 movss	 xmm0, DWORD PTR __real@3f19999a
  001fd	50		 push	 eax
  001fe	51		 push	 ecx
  001ff	8b cf		 mov	 ecx, edi
  00201	f3 0f 11 04 24	 movss	 DWORD PTR [esp], xmm0
  00206	e8 00 00 00 00	 call	 ?AddTextPiece@ioComplexStringPrinter@@QAEXMPBD0@Z ; ioComplexStringPrinter::AddTextPiece

; 155  : 	m_szDesc.PrintFullTextWidthCut( nXPos+X_OFFSET, nYPos + Y3_OFFSET, TAT_LEFT, INVEN_TOOLTIP_WIDTHCUT_SIZE );

  0020b	f3 0f 10 05 00
	00 00 00	 movss	 xmm0, DWORD PTR __real@43020000
  00213	68 ff 00 00 00	 push	 255			; 000000ffH
  00218	51		 push	 ecx
  00219	f3 0f 11 04 24	 movss	 DWORD PTR [esp], xmm0
  0021e	6a 00		 push	 0
  00220	51		 push	 ecx
  00221	51		 push	 ecx
  00222	8d 43 35	 lea	 eax, DWORD PTR [ebx+53]
  00225	0f 57 c0	 xorps	 xmm0, xmm0
  00228	f3 0f 2a c0	 cvtsi2ss xmm0, eax
  0022c	f3 0f 11 44 24
	04		 movss	 DWORD PTR [esp+4], xmm0
  00232	f3 0f 10 45 f0	 movss	 xmm0, DWORD PTR tv394[ebp]
  00237	8b cf		 mov	 ecx, edi
  00239	f3 0f 11 04 24	 movss	 DWORD PTR [esp], xmm0
  0023e	e8 00 00 00 00	 call	 ?PrintFullTextWidthCut@ioComplexStringPrinter@@QAEXMMW4TextAlignType@@ME@Z ; ioComplexStringPrinter::PrintFullTextWidthCut

; 156  : 	m_szDesc.ClearList();

  00243	8b cf		 mov	 ecx, edi
  00245	e8 00 00 00 00	 call	 ?ClearList@ioComplexStringPrinter@@QAEXXZ ; ioComplexStringPrinter::ClearList

; 157  : 
; 158  : 	if( m_pIconBack )

  0024a	33 ff		 xor	 edi, edi
  0024c	39 be 64 01 00
	00		 cmp	 DWORD PTR [esi+356], edi
  00252	74 7a		 je	 SHORT $LN2@RenderDesc

; 159  : 	{
; 160  : 		m_pIconBack->SetScale( FLOAT08 );

  00254	b8 08 00 00 00	 mov	 eax, 8
  00259	8b d0		 mov	 edx, eax
  0025b	b8 0a 00 00 00	 mov	 eax, 10			; 0000000aH
  00260	8b 8e 64 01 00
	00		 mov	 ecx, DWORD PTR [esi+356]
  00266	89 55 f0	 mov	 DWORD PTR tv392[ebp], edx
  00269	db 45 f0	 fild	 DWORD PTR tv392[ebp]
  0026c	89 45 0c	 mov	 DWORD PTR $T505921[ebp], eax
  0026f	8b 01		 mov	 eax, DWORD PTR [ecx]
  00271	85 d2		 test	 edx, edx
  00273	79 06		 jns	 SHORT $LN20@RenderDesc
  00275	d8 05 00 00 00
	00		 fadd	 DWORD PTR __real@4f800000
$LN20@RenderDesc:
  0027b	8b 55 0c	 mov	 edx, DWORD PTR $T505921[ebp]
  0027e	db 45 0c	 fild	 DWORD PTR $T505921[ebp]
  00281	85 d2		 test	 edx, edx
  00283	79 06		 jns	 SHORT $LN21@RenderDesc
  00285	d8 05 00 00 00
	00		 fadd	 DWORD PTR __real@4f800000
$LN21@RenderDesc:
  0028b	de f9		 fdivp	 ST(1), ST(0)
  0028d	51		 push	 ecx
  0028e	d9 5d 0c	 fstp	 DWORD PTR tv327[ebp]
  00291	d9 45 0c	 fld	 DWORD PTR tv327[ebp]
  00294	d9 1c 24	 fstp	 DWORD PTR [esp]
  00297	ff 50 1c	 call	 DWORD PTR [eax+28]

; 161  : 		m_pIconBack->Render( nXPos+ICON_X_OFFSET, nYPos+ICON_Y_OFFSET, UI_RENDER_MULTIPLY, TFO_BILINEAR );

  0029a	8b 8e 64 01 00
	00		 mov	 ecx, DWORD PTR [esi+356]
  002a0	8b 01		 mov	 eax, DWORD PTR [ecx]
  002a2	57		 push	 edi
  002a3	57		 push	 edi
  002a4	6a 01		 push	 1
  002a6	6a 08		 push	 8
  002a8	0f 57 c0	 xorps	 xmm0, xmm0
  002ab	8d 53 29	 lea	 edx, DWORD PTR [ebx+41]
  002ae	f3 0f 2a c2	 cvtsi2ss xmm0, edx
  002b2	8b 55 08	 mov	 edx, DWORD PTR _nXPos$[ebp]
  002b5	51		 push	 ecx
  002b6	51		 push	 ecx
  002b7	f3 0f 11 44 24
	04		 movss	 DWORD PTR [esp+4], xmm0
  002bd	83 c2 27	 add	 edx, 39			; 00000027H
  002c0	0f 57 c0	 xorps	 xmm0, xmm0
  002c3	f3 0f 2a c2	 cvtsi2ss xmm0, edx
  002c7	f3 0f 11 04 24	 movss	 DWORD PTR [esp], xmm0
  002cc	ff 10		 call	 DWORD PTR [eax]
$LN2@RenderDesc:

; 162  : 	}
; 163  : 	if ( m_pPetIcon )

  002ce	39 be 60 01 00
	00		 cmp	 DWORD PTR [esi+352], edi
  002d4	74 7b		 je	 SHORT $LN5@RenderDesc

; 164  : 	{
; 165  : 		m_pPetIcon->SetScale( FLOAT08 );

  002d6	b8 08 00 00 00	 mov	 eax, 8
  002db	8b d0		 mov	 edx, eax
  002dd	b8 0a 00 00 00	 mov	 eax, 10			; 0000000aH
  002e2	8b 8e 60 01 00
	00		 mov	 ecx, DWORD PTR [esi+352]
  002e8	89 55 f0	 mov	 DWORD PTR tv257[ebp], edx
  002eb	db 45 f0	 fild	 DWORD PTR tv257[ebp]
  002ee	89 45 0c	 mov	 DWORD PTR $T505929[ebp], eax
  002f1	8b 01		 mov	 eax, DWORD PTR [ecx]
  002f3	85 d2		 test	 edx, edx
  002f5	79 06		 jns	 SHORT $LN22@RenderDesc
  002f7	d8 05 00 00 00
	00		 fadd	 DWORD PTR __real@4f800000
$LN22@RenderDesc:
  002fd	8b 55 0c	 mov	 edx, DWORD PTR $T505929[ebp]
  00300	db 45 0c	 fild	 DWORD PTR $T505929[ebp]
  00303	85 d2		 test	 edx, edx
  00305	79 06		 jns	 SHORT $LN23@RenderDesc
  00307	d8 05 00 00 00
	00		 fadd	 DWORD PTR __real@4f800000
$LN23@RenderDesc:
  0030d	de f9		 fdivp	 ST(1), ST(0)
  0030f	51		 push	 ecx
  00310	d9 5d 0c	 fstp	 DWORD PTR tv232[ebp]
  00313	d9 45 0c	 fld	 DWORD PTR tv232[ebp]
  00316	d9 1c 24	 fstp	 DWORD PTR [esp]
  00319	ff 50 1c	 call	 DWORD PTR [eax+28]

; 166  : 		m_pPetIcon->Render( nXPos+ICON_X_OFFSET, nYPos+ICON_Y_OFFSET, UI_RENDER_NORMAL, TFO_BILINEAR );

  0031c	8b b6 60 01 00
	00		 mov	 esi, DWORD PTR [esi+352]
  00322	8b 06		 mov	 eax, DWORD PTR [esi]
  00324	57		 push	 edi
  00325	57		 push	 edi
  00326	6a 01		 push	 1
  00328	57		 push	 edi
  00329	51		 push	 ecx
  0032a	51		 push	 ecx
  0032b	8b 4d 08	 mov	 ecx, DWORD PTR _nXPos$[ebp]
  0032e	0f 57 c0	 xorps	 xmm0, xmm0
  00331	83 c3 29	 add	 ebx, 41			; 00000029H
  00334	f3 0f 2a c3	 cvtsi2ss xmm0, ebx
  00338	f3 0f 11 44 24
	04		 movss	 DWORD PTR [esp+4], xmm0
  0033e	83 c1 27	 add	 ecx, 39			; 00000027H
  00341	0f 57 c0	 xorps	 xmm0, xmm0
  00344	f3 0f 2a c1	 cvtsi2ss xmm0, ecx
  00348	8b ce		 mov	 ecx, esi
  0034a	f3 0f 11 04 24	 movss	 DWORD PTR [esp], xmm0
  0034f	ff 10		 call	 DWORD PTR [eax]
$LN5@RenderDesc:

; 129  : 		return;

  00351	83 4d fc ff	 or	 DWORD PTR __$EHRec$[ebp+8], -1
  00355	8d 4d e0	 lea	 ecx, DWORD PTR _szRank$[ebp]
  00358	ff 15 00 00 00
	00		 call	 DWORD PTR __imp_??1ioHashString@@QAE@XZ

; 167  : 	}
; 168  : }

  0035e	e8 00 00 00 00	 call	 __EH_epilog3
  00363	c2 08 00	 ret	 8
_TEXT	ENDS
;	COMDAT text$x
text$x	SEGMENT
__unwindfunclet$?RenderDesc@PetToolTip@@IAEXHH@Z$0:
  00000	8d 4d e0	 lea	 ecx, DWORD PTR _szRank$[ebp]
  00003	ff 25 00 00 00
	00		 jmp	 DWORD PTR __imp_??1ioHashString@@QAE@XZ
__ehhandler$?RenderDesc@PetToolTip@@IAEXHH@Z:
  00009	8b 54 24 08	 mov	 edx, DWORD PTR [esp+8]
  0000d	8d 42 0c	 lea	 eax, DWORD PTR [edx+12]
  00010	8b 4a dc	 mov	 ecx, DWORD PTR [edx-36]
  00013	33 c8		 xor	 ecx, eax
  00015	e8 00 00 00 00	 call	 @__security_check_cookie@4
  0001a	b8 00 00 00 00	 mov	 eax, OFFSET __ehfuncinfo$?RenderDesc@PetToolTip@@IAEXHH@Z
  0001f	e9 00 00 00 00	 jmp	 ___CxxFrameHandler3
text$x	ENDS
?RenderDesc@PetToolTip@@IAEXHH@Z ENDP			; PetToolTip::RenderDesc
PUBLIC	__real@3ee66666
PUBLIC	??_C@_0BJ@KEDKCCCK@PetToolTip?3?3RenderGrowth?$AA@ ; `string'
PUBLIC	?RenderGrowth@PetToolTip@@IAEXHH@Z		; PetToolTip::RenderGrowth
EXTRN	?PrintFullText@ioComplexStringPrinter@@QAEXMMW4TextAlignType@@E@Z:PROC ; ioComplexStringPrinter::PrintFullText
EXTRN	??0ioComplexStringPrinter@@QAE@XZ:PROC		; ioComplexStringPrinter::ioComplexStringPrinter
;	COMDAT __real@3ee66666
; File d:\lost saga for developer\youtube\tutorial\source\src\lsclient\stdafx.h
CONST	SEGMENT
__real@3ee66666 DD 03ee66666r			; 0.45
CONST	ENDS
;	COMDAT ??_C@_0BJ@KEDKCCCK@PetToolTip?3?3RenderGrowth?$AA@
CONST	SEGMENT
??_C@_0BJ@KEDKCCCK@PetToolTip?3?3RenderGrowth?$AA@ DB 'PetToolTip::Render'
	DB	'Growth', 00H				; `string'
CONST	ENDS
;	COMDAT xdata$x
xdata$x	SEGMENT
__unwindtable$?RenderGrowth@PetToolTip@@IAEXHH@Z DD 0ffffffffH
	DD	FLAT:__unwindfunclet$?RenderGrowth@PetToolTip@@IAEXHH@Z$0
__ehfuncinfo$?RenderGrowth@PetToolTip@@IAEXHH@Z DD 019930522H
	DD	01H
	DD	FLAT:__unwindtable$?RenderGrowth@PetToolTip@@IAEXHH@Z
	DD	2 DUP(00H)
	DD	2 DUP(00H)
	DD	00H
	DD	01H
; Function compile flags: /Ogsp
; File d:\lost saga for developer\youtube\tutorial\source\src\lsclient\gui\pettooltip.cpp
xdata$x	ENDS
;	COMDAT ?RenderGrowth@PetToolTip@@IAEXHH@Z
_TEXT	SEGMENT
_kPrinter$505258 = -60					; size = 32
tv468 = -28						; size = 4
tv461 = -28						; size = 4
tv339 = -24						; size = 4
tv458 = -20						; size = 4
_i$505254 = -16						; size = 4
__$EHRec$ = -12						; size = 12
_nXPos$ = 8						; size = 4
tv454 = 12						; size = 4
_nYPos$ = 12						; size = 4
?RenderGrowth@PetToolTip@@IAEXHH@Z PROC			; PetToolTip::RenderGrowth, COMDAT
; _this$ = ecx

; 171  : {	

  00000	6a 30		 push	 48			; 00000030H
  00002	b8 00 00 00 00	 mov	 eax, __ehhandler$?RenderGrowth@PetToolTip@@IAEXHH@Z
  00007	e8 00 00 00 00	 call	 __EH_prolog3
  0000c	8b f1		 mov	 esi, ecx

; 172  : 	enum 
; 173  : 	{		
; 174  : 		YGAP                 = 16,
; 175  : 		
; 176  : 		LEFT_TEXT_XOFFSET    = 21,
; 177  : 		RIGHT_TEXT_XOFFSET   = 144,
; 178  : 		TEXT_YOFFSET         = 10,
; 179  : 
; 180  : 		GROWTH_XOFFSET = 92,
; 181  : 
; 182  : 		DIA_XOFFSET = 10,
; 183  : 		RIGHT_XOFFSET = 123,
; 184  : 		DIA_YOFFSET = 11,
; 185  : 	};	
; 186  : 
; 187  : 	if( m_pBottomImg )

  0000e	8b 7d 0c	 mov	 edi, DWORD PTR _nYPos$[ebp]
  00011	33 db		 xor	 ebx, ebx
  00013	39 9e 68 01 00
	00		 cmp	 DWORD PTR [esi+360], ebx
  00019	74 2d		 je	 SHORT $LN10@RenderGrow

; 188  : 		m_pBottomImg->Render( nXPos, nYPos, UI_RENDER_MULTIPLY );

  0001b	8b 86 68 01 00
	00		 mov	 eax, DWORD PTR [esi+360]
  00021	8b 10		 mov	 edx, DWORD PTR [eax]
  00023	53		 push	 ebx
  00024	53		 push	 ebx
  00025	53		 push	 ebx
  00026	6a 08		 push	 8
  00028	51		 push	 ecx
  00029	0f 57 c0	 xorps	 xmm0, xmm0
  0002c	51		 push	 ecx
  0002d	f3 0f 2a c7	 cvtsi2ss xmm0, edi
  00031	f3 0f 11 44 24
	04		 movss	 DWORD PTR [esp+4], xmm0
  00037	66 0f 6e 45 08	 movd	 xmm0, DWORD PTR _nXPos$[ebp]
  0003c	0f 5b c0	 cvtdq2ps xmm0, xmm0
  0003f	8b c8		 mov	 ecx, eax
  00041	f3 0f 11 04 24	 movss	 DWORD PTR [esp], xmm0
  00046	ff 12		 call	 DWORD PTR [edx]
$LN10@RenderGrow:

; 189  : 
; 190  : 	for ( int i=0; i<MAX_CHAR_GROWTH+MAX_ITEM_GROWTH; i++ )

  00048	83 c7 0b	 add	 edi, 11			; 0000000bH
  0004b	81 c6 6c 01 00
	00		 add	 esi, 364		; 0000016cH
  00051	89 5d f0	 mov	 DWORD PTR _i$505254[ebp], ebx
  00054	89 7d 0c	 mov	 DWORD PTR tv454[ebp], edi
  00057	8b 3d 00 00 00
	00		 mov	 edi, DWORD PTR __imp_?GetSingleton@ioStringManager@@SAAAV1@XZ
  0005d	89 75 ec	 mov	 DWORD PTR tv458[ebp], esi
  00060	8b 35 00 00 00
	00		 mov	 esi, DWORD PTR __imp_?GetString@ioStringManager@@QAEPADPBD0HW4FileNamePrefix@1@@Z
  00066	bb 00 00 00 00	 mov	 ebx, OFFSET ??_C@_0BJ@KEDKCCCK@PetToolTip?3?3RenderGrowth?$AA@
$LL9@RenderGrow:

; 191  : 	{
; 192  : 		ioComplexStringPrinter kPrinter;

  0006b	8d 4d c4	 lea	 ecx, DWORD PTR _kPrinter$505258[ebp]
  0006e	e8 00 00 00 00	 call	 ??0ioComplexStringPrinter@@QAE@XZ ; ioComplexStringPrinter::ioComplexStringPrinter
  00073	83 65 fc 00	 and	 DWORD PTR __$EHRec$[ebp+8], 0

; 193  : 		kPrinter.SetTextStyle( TS_NORMAL);

  00077	6a 00		 push	 0
  00079	8d 4d c4	 lea	 ecx, DWORD PTR _kPrinter$505258[ebp]
  0007c	e8 00 00 00 00	 call	 ?SetTextStyle@ioComplexStringPrinter@@QAEXW4TextStyle@@@Z ; ioComplexStringPrinter::SetTextStyle

; 194  : 		kPrinter.SetBkColor( 0, 0, 0 );	

  00081	33 c0		 xor	 eax, eax
  00083	50		 push	 eax
  00084	50		 push	 eax
  00085	50		 push	 eax
  00086	8d 4d c4	 lea	 ecx, DWORD PTR _kPrinter$505258[ebp]
  00089	e8 00 00 00 00	 call	 ?SetBkColor@ioComplexStringPrinter@@QAEXHHH@Z ; ioComplexStringPrinter::SetBkColor

; 195  : 		if( m_nGrowthStat[i] == 0 )

  0008e	8b 45 ec	 mov	 eax, DWORD PTR tv458[ebp]
  00091	83 38 00	 cmp	 DWORD PTR [eax], 0

; 196  : 		{
; 197  : 			kPrinter.SetTextColor( TCT_DEFAULT_LIGHTGRAY );

  00094	8d 4d c4	 lea	 ecx, DWORD PTR _kPrinter$505258[ebp]
  00097	75 40		 jne	 SHORT $LN6@RenderGrow
  00099	68 a7 a7 a7 ff	 push	 -5789785		; ffa7a7a7H
  0009e	e8 00 00 00 00	 call	 ?SetTextColor@ioComplexStringPrinter@@QAEXK@Z ; ioComplexStringPrinter::SetTextColor

; 198  : 			kPrinter.AddTextPiece( FONT_SIZE_12, STR(i+1) );

  000a3	8b 45 f0	 mov	 eax, DWORD PTR _i$505254[ebp]
  000a6	40		 inc	 eax
  000a7	6a 00		 push	 0
  000a9	50		 push	 eax
  000aa	68 00 00 00 00	 push	 OFFSET ??_C@_00CNPNBAHC@?$AA@
  000af	53		 push	 ebx
  000b0	89 45 e8	 mov	 DWORD PTR tv339[ebp], eax
  000b3	ff d7		 call	 edi
  000b5	8b c8		 mov	 ecx, eax
  000b7	ff d6		 call	 esi
  000b9	f3 0f 10 05 00
	00 00 00	 movss	 xmm0, DWORD PTR __real@3f19999a
  000c1	50		 push	 eax
  000c2	51		 push	 ecx
  000c3	8d 45 c4	 lea	 eax, DWORD PTR _kPrinter$505258[ebp]
  000c6	f3 0f 11 04 24	 movss	 DWORD PTR [esp], xmm0
  000cb	50		 push	 eax
  000cc	e8 00 00 00 00	 call	 ?AddTextPiece@ioComplexStringPrinter@@QAAXMPBDZZ ; ioComplexStringPrinter::AddTextPiece
  000d1	83 c4 0c	 add	 esp, 12			; 0000000cH

; 199  : 		}
; 200  : 		else

  000d4	e9 a7 00 00 00	 jmp	 $LN5@RenderGrow
$LN6@RenderGrow:

; 201  : 		{
; 202  : 			kPrinter.SetTextColor( TCT_DEFAULT_DARKGRAY );

  000d9	68 3a 3a 3a ff	 push	 -12961222		; ff3a3a3aH
  000de	e8 00 00 00 00	 call	 ?SetTextColor@ioComplexStringPrinter@@QAEXK@Z ; ioComplexStringPrinter::SetTextColor

; 203  : 			kPrinter.AddTextPiece( FONT_SIZE_12, STR(i+1) );

  000e3	8b 45 f0	 mov	 eax, DWORD PTR _i$505254[ebp]
  000e6	40		 inc	 eax
  000e7	6a 00		 push	 0
  000e9	50		 push	 eax
  000ea	68 00 00 00 00	 push	 OFFSET ??_C@_00CNPNBAHC@?$AA@
  000ef	53		 push	 ebx
  000f0	89 45 e8	 mov	 DWORD PTR tv339[ebp], eax
  000f3	ff d7		 call	 edi
  000f5	8b c8		 mov	 ecx, eax
  000f7	ff d6		 call	 esi
  000f9	f3 0f 10 05 00
	00 00 00	 movss	 xmm0, DWORD PTR __real@3f19999a
  00101	50		 push	 eax
  00102	51		 push	 ecx
  00103	8d 45 c4	 lea	 eax, DWORD PTR _kPrinter$505258[ebp]
  00106	f3 0f 11 04 24	 movss	 DWORD PTR [esp], xmm0
  0010b	50		 push	 eax
  0010c	e8 00 00 00 00	 call	 ?AddTextPiece@ioComplexStringPrinter@@QAAXMPBDZZ ; ioComplexStringPrinter::AddTextPiece
  00111	83 c4 0c	 add	 esp, 12			; 0000000cH

; 204  : 
; 205  : 			kPrinter.SetTextColor( TCT_DEFAULT_GREEN );

  00114	68 22 72 11 ff	 push	 -15633886		; ff117222H
  00119	8d 4d c4	 lea	 ecx, DWORD PTR _kPrinter$505258[ebp]
  0011c	e8 00 00 00 00	 call	 ?SetTextColor@ioComplexStringPrinter@@QAEXK@Z ; ioComplexStringPrinter::SetTextColor

; 206  : 			if( m_nGrowthStat[i] < FLOAT100 )

  00121	b8 64 00 00 00	 mov	 eax, 100		; 00000064H
  00126	8b 4d ec	 mov	 ecx, DWORD PTR tv458[ebp]
  00129	8b 09		 mov	 ecx, DWORD PTR [ecx]
  0012b	89 4d e4	 mov	 DWORD PTR tv461[ebp], ecx
  0012e	db 45 e4	 fild	 DWORD PTR tv461[ebp]
  00131	89 45 e4	 mov	 DWORD PTR tv468[ebp], eax
  00134	db 45 e4	 fild	 DWORD PTR tv468[ebp]
  00137	85 c0		 test	 eax, eax
  00139	79 06		 jns	 SHORT $LN19@RenderGrow
  0013b	d8 05 00 00 00
	00		 fadd	 DWORD PTR __real@4f800000
$LN19@RenderGrow:

; 207  : 				kPrinter.AddTextPiece( FONT_SIZE_12, STR(9), m_nGrowthStat[i] );

  00141	51		 push	 ecx
  00142	df f1		 fcomip	 ST(1)
  00144	dd d8		 fstp	 ST(0)
  00146	6a 00		 push	 0
  00148	76 04		 jbe	 SHORT $LN4@RenderGrow
  0014a	6a 09		 push	 9

; 208  : 			else

  0014c	eb 02		 jmp	 SHORT $LN20@RenderGrow
$LN4@RenderGrow:

; 209  : 				kPrinter.AddTextPiece( FONT_SIZE_12, STR(10), m_nGrowthStat[i] );

  0014e	6a 0a		 push	 10			; 0000000aH
$LN20@RenderGrow:
  00150	68 00 00 00 00	 push	 OFFSET ??_C@_00CNPNBAHC@?$AA@
  00155	53		 push	 ebx
  00156	ff d7		 call	 edi
  00158	8b c8		 mov	 ecx, eax
  0015a	ff d6		 call	 esi
  0015c	f3 0f 10 05 00
	00 00 00	 movss	 xmm0, DWORD PTR __real@3f19999a
  00164	50		 push	 eax
  00165	51		 push	 ecx
  00166	8d 4d c4	 lea	 ecx, DWORD PTR _kPrinter$505258[ebp]
  00169	f3 0f 11 04 24	 movss	 DWORD PTR [esp], xmm0
  0016e	e8 00 00 00 00	 call	 ?AddTextPiece@ioComplexStringPrinter@@QAEXMPBDH@Z ; ioComplexStringPrinter::AddTextPiece

; 210  : 			kPrinter.SetTextColor( TCT_DEFAULT_DARKGRAY );

  00173	68 3a 3a 3a ff	 push	 -12961222		; ff3a3a3aH
  00178	8d 4d c4	 lea	 ecx, DWORD PTR _kPrinter$505258[ebp]
  0017b	e8 00 00 00 00	 call	 ?SetTextColor@ioComplexStringPrinter@@QAEXK@Z ; ioComplexStringPrinter::SetTextColor
$LN5@RenderGrow:

; 211  : 		}		
; 212  : 
; 213  : 		if ( i < MAX_ITEM_GROWTH )

  00180	83 7d f0 04	 cmp	 DWORD PTR _i$505254[ebp], 4

; 214  : 		{
; 215  : 			kPrinter.PrintFullText( nXPos+RIGHT_TEXT_XOFFSET, nYPos+TEXT_YOFFSET+(YGAP*i), TAT_LEFT );

  00184	8b 45 0c	 mov	 eax, DWORD PTR tv454[ebp]
  00187	68 ff 00 00 00	 push	 255			; 000000ffH
  0018c	6a 00		 push	 0
  0018e	51		 push	 ecx
  0018f	51		 push	 ecx
  00190	0f 57 c0	 xorps	 xmm0, xmm0
  00193	8d 4d c4	 lea	 ecx, DWORD PTR _kPrinter$505258[ebp]
  00196	7d 66		 jge	 SHORT $LN2@RenderGrow
  00198	48		 dec	 eax
  00199	f3 0f 2a c0	 cvtsi2ss xmm0, eax
  0019d	8b 45 08	 mov	 eax, DWORD PTR _nXPos$[ebp]
  001a0	f3 0f 11 44 24
	04		 movss	 DWORD PTR [esp+4], xmm0
  001a6	05 90 00 00 00	 add	 eax, 144		; 00000090H
  001ab	0f 57 c0	 xorps	 xmm0, xmm0
  001ae	f3 0f 2a c0	 cvtsi2ss xmm0, eax
  001b2	f3 0f 11 04 24	 movss	 DWORD PTR [esp], xmm0
  001b7	e8 00 00 00 00	 call	 ?PrintFullText@ioComplexStringPrinter@@QAEXMMW4TextAlignType@@E@Z ; ioComplexStringPrinter::PrintFullText

; 216  : 			kPrinter.ClearList();

  001bc	8d 4d c4	 lea	 ecx, DWORD PTR _kPrinter$505258[ebp]
  001bf	e8 00 00 00 00	 call	 ?ClearList@ioComplexStringPrinter@@QAEXXZ ; ioComplexStringPrinter::ClearList

; 217  : 			kPrinter.AddTextPiece( FONT_SIZE_9, STR(11) );

  001c4	6a 00		 push	 0
  001c6	6a 0b		 push	 11			; 0000000bH
  001c8	68 00 00 00 00	 push	 OFFSET ??_C@_00CNPNBAHC@?$AA@
  001cd	53		 push	 ebx
  001ce	ff d7		 call	 edi
  001d0	8b c8		 mov	 ecx, eax
  001d2	ff d6		 call	 esi
  001d4	f3 0f 10 05 00
	00 00 00	 movss	 xmm0, DWORD PTR __real@3ee66666
  001dc	50		 push	 eax
  001dd	51		 push	 ecx
  001de	8d 45 c4	 lea	 eax, DWORD PTR _kPrinter$505258[ebp]
  001e1	f3 0f 11 04 24	 movss	 DWORD PTR [esp], xmm0
  001e6	50		 push	 eax
  001e7	e8 00 00 00 00	 call	 ?AddTextPiece@ioComplexStringPrinter@@QAAXMPBDZZ ; ioComplexStringPrinter::AddTextPiece

; 218  : 			kPrinter.PrintFullText( nXPos+DIA_XOFFSET+RIGHT_XOFFSET, nYPos+DIA_YOFFSET+(YGAP*i), TAT_LEFT );

  001ec	8b 45 08	 mov	 eax, DWORD PTR _nXPos$[ebp]
  001ef	66 0f 6e 45 0c	 movd	 xmm0, DWORD PTR tv454[ebp]
  001f4	0f 5b c0	 cvtdq2ps xmm0, xmm0
  001f7	05 85 00 00 00	 add	 eax, 133		; 00000085H

; 219  : 		}
; 220  : 		else

  001fc	eb 67		 jmp	 SHORT $LN21@RenderGrow
$LN2@RenderGrow:

; 221  : 		{
; 222  : 			kPrinter.PrintFullText( nXPos+LEFT_TEXT_XOFFSET, nYPos+TEXT_YOFFSET+(YGAP*(i-MAX_ITEM_GROWTH)), TAT_LEFT );

  001fe	83 c0 bf	 add	 eax, -65		; ffffffbfH
  00201	f3 0f 2a c0	 cvtsi2ss xmm0, eax
  00205	8b 45 08	 mov	 eax, DWORD PTR _nXPos$[ebp]
  00208	f3 0f 11 44 24
	04		 movss	 DWORD PTR [esp+4], xmm0
  0020e	83 c0 15	 add	 eax, 21			; 00000015H
  00211	0f 57 c0	 xorps	 xmm0, xmm0
  00214	f3 0f 2a c0	 cvtsi2ss xmm0, eax
  00218	f3 0f 11 04 24	 movss	 DWORD PTR [esp], xmm0
  0021d	e8 00 00 00 00	 call	 ?PrintFullText@ioComplexStringPrinter@@QAEXMMW4TextAlignType@@E@Z ; ioComplexStringPrinter::PrintFullText

; 223  : 			kPrinter.ClearList();

  00222	8d 4d c4	 lea	 ecx, DWORD PTR _kPrinter$505258[ebp]
  00225	e8 00 00 00 00	 call	 ?ClearList@ioComplexStringPrinter@@QAEXXZ ; ioComplexStringPrinter::ClearList

; 224  : 			kPrinter.AddTextPiece( FONT_SIZE_9, STR(12) );

  0022a	6a 00		 push	 0
  0022c	6a 0c		 push	 12			; 0000000cH
  0022e	68 00 00 00 00	 push	 OFFSET ??_C@_00CNPNBAHC@?$AA@
  00233	53		 push	 ebx
  00234	ff d7		 call	 edi
  00236	8b c8		 mov	 ecx, eax
  00238	ff d6		 call	 esi
  0023a	f3 0f 10 05 00
	00 00 00	 movss	 xmm0, DWORD PTR __real@3ee66666
  00242	50		 push	 eax
  00243	51		 push	 ecx
  00244	8d 45 c4	 lea	 eax, DWORD PTR _kPrinter$505258[ebp]
  00247	f3 0f 11 04 24	 movss	 DWORD PTR [esp], xmm0
  0024c	50		 push	 eax
  0024d	e8 00 00 00 00	 call	 ?AddTextPiece@ioComplexStringPrinter@@QAAXMPBDZZ ; ioComplexStringPrinter::AddTextPiece

; 225  : 			kPrinter.PrintFullText( nXPos+DIA_XOFFSET, nYPos+DIA_YOFFSET+(YGAP*(i-MAX_ITEM_GROWTH)), TAT_LEFT );

  00252	8b 45 0c	 mov	 eax, DWORD PTR tv454[ebp]
  00255	83 c0 c0	 add	 eax, -64		; ffffffc0H
  00258	0f 57 c0	 xorps	 xmm0, xmm0
  0025b	f3 0f 2a c0	 cvtsi2ss xmm0, eax
  0025f	8b 45 08	 mov	 eax, DWORD PTR _nXPos$[ebp]
  00262	83 c0 0a	 add	 eax, 10			; 0000000aH
$LN21@RenderGrow:
  00265	83 c4 0c	 add	 esp, 12			; 0000000cH
  00268	68 ff 00 00 00	 push	 255			; 000000ffH
  0026d	6a 00		 push	 0
  0026f	51		 push	 ecx
  00270	51		 push	 ecx
  00271	f3 0f 11 44 24
	04		 movss	 DWORD PTR [esp+4], xmm0
  00277	0f 57 c0	 xorps	 xmm0, xmm0
  0027a	f3 0f 2a c0	 cvtsi2ss xmm0, eax
  0027e	8d 4d c4	 lea	 ecx, DWORD PTR _kPrinter$505258[ebp]
  00281	f3 0f 11 04 24	 movss	 DWORD PTR [esp], xmm0
  00286	e8 00 00 00 00	 call	 ?PrintFullText@ioComplexStringPrinter@@QAEXMMW4TextAlignType@@E@Z ; ioComplexStringPrinter::PrintFullText

; 226  : 		}
; 227  : 		kPrinter.ClearList();

  0028b	8d 4d c4	 lea	 ecx, DWORD PTR _kPrinter$505258[ebp]
  0028e	e8 00 00 00 00	 call	 ?ClearList@ioComplexStringPrinter@@QAEXXZ ; ioComplexStringPrinter::ClearList

; 228  : 	}

  00293	83 4d fc ff	 or	 DWORD PTR __$EHRec$[ebp+8], -1
  00297	8d 4d c4	 lea	 ecx, DWORD PTR _kPrinter$505258[ebp]
  0029a	e8 00 00 00 00	 call	 ??1ioComplexStringPrinter@@QAE@XZ ; ioComplexStringPrinter::~ioComplexStringPrinter
  0029f	8b 45 e8	 mov	 eax, DWORD PTR tv339[ebp]
  002a2	83 45 ec 04	 add	 DWORD PTR tv458[ebp], 4
  002a6	83 45 0c 10	 add	 DWORD PTR tv454[ebp], 16 ; 00000010H
  002aa	89 45 f0	 mov	 DWORD PTR _i$505254[ebp], eax
  002ad	83 f8 08	 cmp	 eax, 8
  002b0	0f 8c b5 fd ff
	ff		 jl	 $LL9@RenderGrow

; 229  : }

  002b6	e8 00 00 00 00	 call	 __EH_epilog3
  002bb	c2 08 00	 ret	 8
_TEXT	ENDS
;	COMDAT text$x
text$x	SEGMENT
__unwindfunclet$?RenderGrowth@PetToolTip@@IAEXHH@Z$0:
  00000	8d 4d c4	 lea	 ecx, DWORD PTR _kPrinter$505258[ebp]
  00003	e9 00 00 00 00	 jmp	 ??1ioComplexStringPrinter@@QAE@XZ ; ioComplexStringPrinter::~ioComplexStringPrinter
__ehhandler$?RenderGrowth@PetToolTip@@IAEXHH@Z:
  00008	8b 54 24 08	 mov	 edx, DWORD PTR [esp+8]
  0000c	8d 42 0c	 lea	 eax, DWORD PTR [edx+12]
  0000f	8b 4a c0	 mov	 ecx, DWORD PTR [edx-64]
  00012	33 c8		 xor	 ecx, eax
  00014	e8 00 00 00 00	 call	 @__security_check_cookie@4
  00019	b8 00 00 00 00	 mov	 eax, OFFSET __ehfuncinfo$?RenderGrowth@PetToolTip@@IAEXHH@Z
  0001e	e9 00 00 00 00	 jmp	 ___CxxFrameHandler3
text$x	ENDS
?RenderGrowth@PetToolTip@@IAEXHH@Z ENDP			; PetToolTip::RenderGrowth
PUBLIC	?GetPetInfo@PetToolTip@@IAEXXZ			; PetToolTip::GetPetInfo
EXTRN	?GetTotalStat@ioPetInfoManager@@QAEHHHH@Z:PROC	; ioPetInfoManager::GetTotalStat
EXTRN	?GetPetManual@ioPetInfoManager@@QAEHH@Z:PROC	; ioPetInfoManager::GetPetManual
EXTRN	?GetPetIcon@ioPetInfoManager@@QAE?AVioHashString@@HW4PetRankType@@@Z:PROC ; ioPetInfoManager::GetPetIcon
EXTRN	__imp_??4ioHashString@@QAEAAV0@ABV0@@Z:PROC
EXTRN	?GetPetName@ioPetInfoManager@@QAE?AVioHashString@@HW4PetRankType@@@Z:PROC ; ioPetInfoManager::GetPetName
;	COMDAT xdata$x
xdata$x	SEGMENT
__unwindtable$?GetPetInfo@PetToolTip@@IAEXXZ DD 0ffffffffH
	DD	FLAT:__unwindfunclet$?GetPetInfo@PetToolTip@@IAEXXZ$0
	DD	0ffffffffH
	DD	FLAT:__unwindfunclet$?GetPetInfo@PetToolTip@@IAEXXZ$1
__ehfuncinfo$?GetPetInfo@PetToolTip@@IAEXXZ DD 019930522H
	DD	02H
	DD	FLAT:__unwindtable$?GetPetInfo@PetToolTip@@IAEXXZ
	DD	2 DUP(00H)
	DD	2 DUP(00H)
	DD	00H
	DD	01H
; Function compile flags: /Ogsp
xdata$x	ENDS
;	COMDAT ?GetPetInfo@PetToolTip@@IAEXXZ
_TEXT	SEGMENT
$T505974 = -44						; size = 16
$T505973 = -28						; size = 16
__$EHRec$ = -12						; size = 12
?GetPetInfo@PetToolTip@@IAEXXZ PROC			; PetToolTip::GetPetInfo, COMDAT
; _this$ = ecx

; 296  : {	

  00000	6a 20		 push	 32			; 00000020H
  00002	b8 00 00 00 00	 mov	 eax, __ehhandler$?GetPetInfo@PetToolTip@@IAEXXZ
  00007	e8 00 00 00 00	 call	 __EH_prolog3
  0000c	8b f1		 mov	 esi, ecx

; 297  : 	if( m_nSelectPetCode <= 0 || m_nSelectPetRank == PRT_NONE )

  0000e	8b 8e 8c 01 00
	00		 mov	 ecx, DWORD PTR [esi+396]
  00014	85 c9		 test	 ecx, ecx
  00016	0f 8e bc 00 00
	00		 jle	 $LN4@GetPetInfo
  0001c	8b 86 94 01 00
	00		 mov	 eax, DWORD PTR [esi+404]
  00022	85 c0		 test	 eax, eax
  00024	0f 84 ae 00 00
	00		 je	 $LN4@GetPetInfo

; 298  : 		return;
; 299  : 
; 300  : 	m_szPetName = g_PetInfoMgr.GetPetName( m_nSelectPetCode, (PetRankType)m_nSelectPetRank );

  0002a	50		 push	 eax
  0002b	51		 push	 ecx
  0002c	8d 45 e4	 lea	 eax, DWORD PTR $T505973[ebp]
  0002f	50		 push	 eax
  00030	e8 00 00 00 00	 call	 ?GetSingleton@ioPetInfoManager@@SAAAV1@XZ ; ioPetInfoManager::GetSingleton
  00035	8b c8		 mov	 ecx, eax
  00037	e8 00 00 00 00	 call	 ?GetPetName@ioPetInfoManager@@QAE?AVioHashString@@HW4PetRankType@@@Z ; ioPetInfoManager::GetPetName
  0003c	8b 3d 00 00 00
	00		 mov	 edi, DWORD PTR __imp_??4ioHashString@@QAEAAV0@ABV0@@Z
  00042	83 65 fc 00	 and	 DWORD PTR __$EHRec$[ebp+8], 0
  00046	50		 push	 eax
  00047	8d 8e a4 01 00
	00		 lea	 ecx, DWORD PTR [esi+420]
  0004d	ff d7		 call	 edi
  0004f	8b 1d 00 00 00
	00		 mov	 ebx, DWORD PTR __imp_??1ioHashString@@QAE@XZ
  00055	83 4d fc ff	 or	 DWORD PTR __$EHRec$[ebp+8], -1
  00059	8d 4d e4	 lea	 ecx, DWORD PTR $T505973[ebp]
  0005c	ff d3		 call	 ebx

; 301  : 	m_szPetIcon = g_PetInfoMgr.GetPetIcon( m_nSelectPetCode, (PetRankType)m_nSelectPetRank );

  0005e	ff b6 94 01 00
	00		 push	 DWORD PTR [esi+404]
  00064	8d 45 d4	 lea	 eax, DWORD PTR $T505974[ebp]
  00067	ff b6 8c 01 00
	00		 push	 DWORD PTR [esi+396]
  0006d	50		 push	 eax
  0006e	e8 00 00 00 00	 call	 ?GetSingleton@ioPetInfoManager@@SAAAV1@XZ ; ioPetInfoManager::GetSingleton
  00073	8b c8		 mov	 ecx, eax
  00075	e8 00 00 00 00	 call	 ?GetPetIcon@ioPetInfoManager@@QAE?AVioHashString@@HW4PetRankType@@@Z ; ioPetInfoManager::GetPetIcon
  0007a	50		 push	 eax
  0007b	8d 8e b4 01 00
	00		 lea	 ecx, DWORD PTR [esi+436]
  00081	c7 45 fc 01 00
	00 00		 mov	 DWORD PTR __$EHRec$[ebp+8], 1
  00088	ff d7		 call	 edi
  0008a	83 4d fc ff	 or	 DWORD PTR __$EHRec$[ebp+8], -1
  0008e	8d 4d d4	 lea	 ecx, DWORD PTR $T505974[ebp]
  00091	ff d3		 call	 ebx

; 302  : 	m_nManualIndex = g_PetInfoMgr.GetPetManual( m_nSelectPetCode )-1;

  00093	ff b6 8c 01 00
	00		 push	 DWORD PTR [esi+396]
  00099	e8 00 00 00 00	 call	 ?GetSingleton@ioPetInfoManager@@SAAAV1@XZ ; ioPetInfoManager::GetSingleton
  0009e	8b c8		 mov	 ecx, eax
  000a0	e8 00 00 00 00	 call	 ?GetPetManual@ioPetInfoManager@@QAEHH@Z ; ioPetInfoManager::GetPetManual
  000a5	48		 dec	 eax
  000a6	89 86 98 01 00
	00		 mov	 DWORD PTR [esi+408], eax

; 303  : 
; 304  : 	for ( int i=0; i<MAX_CHAR_GROWTH+MAX_ITEM_GROWTH; i++ )

  000ac	33 db		 xor	 ebx, ebx
  000ae	8d be 6c 01 00
	00		 lea	 edi, DWORD PTR [esi+364]
$LL3@GetPetInfo:

; 305  : 		m_nGrowthStat[i] = g_PetInfoMgr.GetTotalStat( m_nSelectPetCode, i, m_nSelectPetLevel );

  000b4	ff b6 90 01 00
	00		 push	 DWORD PTR [esi+400]
  000ba	53		 push	 ebx
  000bb	ff b6 8c 01 00
	00		 push	 DWORD PTR [esi+396]
  000c1	e8 00 00 00 00	 call	 ?GetSingleton@ioPetInfoManager@@SAAAV1@XZ ; ioPetInfoManager::GetSingleton
  000c6	8b c8		 mov	 ecx, eax
  000c8	e8 00 00 00 00	 call	 ?GetTotalStat@ioPetInfoManager@@QAEHHHH@Z ; ioPetInfoManager::GetTotalStat
  000cd	89 07		 mov	 DWORD PTR [edi], eax
  000cf	43		 inc	 ebx
  000d0	83 c7 04	 add	 edi, 4
  000d3	83 fb 08	 cmp	 ebx, 8
  000d6	7c dc		 jl	 SHORT $LL3@GetPetInfo
$LN4@GetPetInfo:

; 306  : }

  000d8	e8 00 00 00 00	 call	 __EH_epilog3
  000dd	c3		 ret	 0
_TEXT	ENDS
;	COMDAT text$x
text$x	SEGMENT
__unwindfunclet$?GetPetInfo@PetToolTip@@IAEXXZ$0:
  00000	8d 4d e4	 lea	 ecx, DWORD PTR $T505973[ebp]
  00003	ff 25 00 00 00
	00		 jmp	 DWORD PTR __imp_??1ioHashString@@QAE@XZ
__unwindfunclet$?GetPetInfo@PetToolTip@@IAEXXZ$1:
  00009	8d 4d d4	 lea	 ecx, DWORD PTR $T505974[ebp]
  0000c	ff 25 00 00 00
	00		 jmp	 DWORD PTR __imp_??1ioHashString@@QAE@XZ
__ehhandler$?GetPetInfo@PetToolTip@@IAEXXZ:
  00012	8b 54 24 08	 mov	 edx, DWORD PTR [esp+8]
  00016	8d 42 0c	 lea	 eax, DWORD PTR [edx+12]
  00019	8b 4a d0	 mov	 ecx, DWORD PTR [edx-48]
  0001c	33 c8		 xor	 ecx, eax
  0001e	e8 00 00 00 00	 call	 @__security_check_cookie@4
  00023	b8 00 00 00 00	 mov	 eax, OFFSET __ehfuncinfo$?GetPetInfo@PetToolTip@@IAEXXZ
  00028	e9 00 00 00 00	 jmp	 ___CxxFrameHandler3
text$x	ENDS
?GetPetInfo@PetToolTip@@IAEXXZ ENDP			; PetToolTip::GetPetInfo
PUBLIC	?SetData@PetToolTip@@QAEXHHHH@Z			; PetToolTip::SetData
EXTRN	?GetMaxExp@ioPetInfoManager@@QAEHHW4PetRankType@@@Z:PROC ; ioPetInfoManager::GetMaxExp
EXTRN	?GetMaxLevel@ioPetInfoManager@@QAEHW4PetRankType@@@Z:PROC ; ioPetInfoManager::GetMaxLevel
; Function compile flags: /Ogsp
;	COMDAT ?SetData@PetToolTip@@QAEXHHHH@Z
_TEXT	SEGMENT
tv178 = 8						; size = 4
_nMaxExp$ = 8						; size = 4
_nPetCode$ = 8						; size = 4
_nPetLevel$ = 12					; size = 4
_nPetRank$ = 16						; size = 4
_nCurExp$ = 20						; size = 4
?SetData@PetToolTip@@QAEXHHHH@Z PROC			; PetToolTip::SetData, COMDAT
; _this$ = ecx

; 325  : {

  00000	55		 push	 ebp
  00001	8b ec		 mov	 ebp, esp

; 326  : 	m_nSelectPetCode = nPetCode;

  00003	8b 45 08	 mov	 eax, DWORD PTR _nPetCode$[ebp]
  00006	56		 push	 esi
  00007	8b f1		 mov	 esi, ecx
  00009	89 86 8c 01 00
	00		 mov	 DWORD PTR [esi+396], eax

; 327  : 	m_nSelectPetLevel = nPetLevel;

  0000f	8b 45 0c	 mov	 eax, DWORD PTR _nPetLevel$[ebp]
  00012	89 86 90 01 00
	00		 mov	 DWORD PTR [esi+400], eax

; 328  : 	m_nSelectPetRank = nPetRank;

  00018	8b 45 10	 mov	 eax, DWORD PTR _nPetRank$[ebp]
  0001b	57		 push	 edi

; 329  : 
; 330  : 	m_nMaxLevel = g_PetInfoMgr.GetMaxLevel( (PetRankType)m_nSelectPetRank );

  0001c	50		 push	 eax
  0001d	89 86 94 01 00
	00		 mov	 DWORD PTR [esi+404], eax
  00023	e8 00 00 00 00	 call	 ?GetSingleton@ioPetInfoManager@@SAAAV1@XZ ; ioPetInfoManager::GetSingleton
  00028	8b c8		 mov	 ecx, eax
  0002a	e8 00 00 00 00	 call	 ?GetMaxLevel@ioPetInfoManager@@QAEHW4PetRankType@@@Z ; ioPetInfoManager::GetMaxLevel

; 331  : 
; 332  : 	//  
; 333  : 	int nMaxExp = g_PetInfoMgr.GetMaxExp( m_nSelectPetLevel, (PetRankType)m_nSelectPetRank );

  0002f	ff b6 94 01 00
	00		 push	 DWORD PTR [esi+404]
  00035	89 86 9c 01 00
	00		 mov	 DWORD PTR [esi+412], eax
  0003b	ff b6 90 01 00
	00		 push	 DWORD PTR [esi+400]
  00041	e8 00 00 00 00	 call	 ?GetSingleton@ioPetInfoManager@@SAAAV1@XZ ; ioPetInfoManager::GetSingleton
  00046	8b c8		 mov	 ecx, eax
  00048	e8 00 00 00 00	 call	 ?GetMaxExp@ioPetInfoManager@@QAEHHW4PetRankType@@@Z ; ioPetInfoManager::GetMaxExp
  0004d	89 45 08	 mov	 DWORD PTR _nMaxExp$[ebp], eax

; 334  : 	if ( nMaxExp > 0 )

  00050	85 c0		 test	 eax, eax
  00052	7e 25		 jle	 SHORT $LN2@SetData

; 335  : 		m_fExpRate = ((float)nCurExp/nMaxExp * FLOAT100);

  00054	b8 64 00 00 00	 mov	 eax, 100		; 00000064H
  00059	db 45 14	 fild	 DWORD PTR _nCurExp$[ebp]
  0005c	da 75 08	 fidiv	 DWORD PTR _nMaxExp$[ebp]
  0005f	89 45 08	 mov	 DWORD PTR tv178[ebp], eax
  00062	db 45 08	 fild	 DWORD PTR tv178[ebp]
  00065	85 c0		 test	 eax, eax
  00067	79 06		 jns	 SHORT $LN7@SetData
  00069	d8 05 00 00 00
	00		 fadd	 DWORD PTR __real@4f800000
$LN7@SetData:
  0006f	de c9		 fmulp	 ST(1), ST(0)
  00071	d9 9e a0 01 00
	00		 fstp	 DWORD PTR [esi+416]

; 336  : 	else

  00077	eb 0b		 jmp	 SHORT $LN1@SetData
$LN2@SetData:

; 337  : 		m_fExpRate = 0.0f;

  00079	0f 57 c0	 xorps	 xmm0, xmm0
  0007c	f3 0f 11 86 a0
	01 00 00	 movss	 DWORD PTR [esi+416], xmm0
$LN1@SetData:
  00084	5f		 pop	 edi
  00085	5e		 pop	 esi

; 338  : }

  00086	5d		 pop	 ebp
  00087	c2 10 00	 ret	 16			; 00000010H
?SetData@PetToolTip@@QAEXHHHH@Z ENDP			; PetToolTip::SetData
_TEXT	ENDS
PUBLIC	?Clear@PetToolTip@@QAEXXZ			; PetToolTip::Clear
EXTRN	__imp_?Clear@ioHashString@@QAEXXZ:PROC
; Function compile flags: /Ogsp
;	COMDAT ?Clear@PetToolTip@@QAEXXZ
_TEXT	SEGMENT
?Clear@PetToolTip@@QAEXXZ PROC				; PetToolTip::Clear, COMDAT
; _this$ = ecx

; 344  : 	m_nSelectPetCode  = 0;
; 345  : 	m_nSelectPetLevel = 0;
; 346  : 	m_nSelectPetRank  = 0;
; 347  : 	m_nMaxLevel = 0;
; 348  : 	m_fExpRate = 0.0f;

  00000	0f 57 c0	 xorps	 xmm0, xmm0
  00003	56		 push	 esi
  00004	8b f1		 mov	 esi, ecx
  00006	33 c0		 xor	 eax, eax
  00008	57		 push	 edi

; 349  : 
; 350  : 	m_szPetName.Clear();

  00009	8b 3d 00 00 00
	00		 mov	 edi, DWORD PTR __imp_?Clear@ioHashString@@QAEXXZ
  0000f	8d 8e a4 01 00
	00		 lea	 ecx, DWORD PTR [esi+420]
  00015	89 86 8c 01 00
	00		 mov	 DWORD PTR [esi+396], eax
  0001b	89 86 90 01 00
	00		 mov	 DWORD PTR [esi+400], eax
  00021	89 86 94 01 00
	00		 mov	 DWORD PTR [esi+404], eax
  00027	89 86 9c 01 00
	00		 mov	 DWORD PTR [esi+412], eax
  0002d	f3 0f 11 86 a0
	01 00 00	 movss	 DWORD PTR [esi+416], xmm0
  00035	ff d7		 call	 edi

; 351  : 	m_szPetIcon.Clear();

  00037	8d 8e b4 01 00
	00		 lea	 ecx, DWORD PTR [esi+436]
  0003d	ff d7		 call	 edi

; 352  : 
; 353  : 	for ( int i=0; i<MAX_CHAR_GROWTH+MAX_ITEM_GROWTH; i++ )
; 354  : 		m_nGrowthStat[i] = 0;

  0003f	6a 08		 push	 8
  00041	59		 pop	 ecx
  00042	8d be 6c 01 00
	00		 lea	 edi, DWORD PTR [esi+364]
  00048	33 c0		 xor	 eax, eax
  0004a	f3 ab		 rep stosd
  0004c	5f		 pop	 edi
  0004d	5e		 pop	 esi

; 355  : }

  0004e	c3		 ret	 0
?Clear@PetToolTip@@QAEXXZ ENDP				; PetToolTip::Clear
_TEXT	ENDS
PUBLIC	?_DECSTR@@YAXPADH@Z				; _DECSTR
; Function compile flags: /Ogsp
; File d:\lost saga for developer\youtube\tutorial\source\src\lsclient\stringprotect.h
;	COMDAT ?_DECSTR@@YAXPADH@Z
_TEXT	SEGMENT
_s$ = 8							; size = 4
_l$ = 12						; size = 4
?_DECSTR@@YAXPADH@Z PROC				; _DECSTR, COMDAT

; 40   : __forceinline void _DECSTR(char* s, int l){int i=0,l4=(l-1)/4,*p=(int*)s;s[l-1]=0;for(;i<l4;++i)*(p++)^=0xEAEBECED;for(i=l4*4;i<l-1;++i)s[i]^=0xED-i%4;}

  00000	55		 push	 ebp
  00001	8b ec		 mov	 ebp, esp
  00003	8b 4d 0c	 mov	 ecx, DWORD PTR _l$[ebp]
  00006	56		 push	 esi
  00007	8b 75 08	 mov	 esi, DWORD PTR _s$[ebp]
  0000a	57		 push	 edi
  0000b	8d 79 ff	 lea	 edi, DWORD PTR [ecx-1]
  0000e	8b c7		 mov	 eax, edi
  00010	99		 cdq
  00011	83 e2 03	 and	 edx, 3
  00014	03 c2		 add	 eax, edx
  00016	c1 f8 02	 sar	 eax, 2
  00019	8b d6		 mov	 edx, esi
  0001b	c6 44 0e ff 00	 mov	 BYTE PTR [esi+ecx-1], 0
  00020	85 c0		 test	 eax, eax
  00022	7e 0e		 jle	 SHORT $LN4@DECSTR
  00024	8b c8		 mov	 ecx, eax
$LL6@DECSTR:
  00026	81 32 ed ec eb
	ea		 xor	 DWORD PTR [edx], -353637139 ; eaebecedH
  0002c	83 c2 04	 add	 edx, 4
  0002f	49		 dec	 ecx
  00030	75 f4		 jne	 SHORT $LL6@DECSTR
$LN4@DECSTR:
  00032	c1 e0 02	 shl	 eax, 2
  00035	eb 17		 jmp	 SHORT $LN14@DECSTR
$LL3@DECSTR:
  00037	8b c8		 mov	 ecx, eax
  00039	81 e1 03 00 00
	80		 and	 ecx, -2147483645	; 80000003H
  0003f	79 05		 jns	 SHORT $LN13@DECSTR
  00041	49		 dec	 ecx
  00042	83 c9 fc	 or	 ecx, -4			; fffffffcH
  00045	41		 inc	 ecx
$LN13@DECSTR:
  00046	b2 ed		 mov	 dl, -19			; ffffffedH
  00048	2a d1		 sub	 dl, cl
  0004a	30 14 30	 xor	 BYTE PTR [eax+esi], dl
  0004d	40		 inc	 eax
$LN14@DECSTR:
  0004e	3b c7		 cmp	 eax, edi
  00050	7c e5		 jl	 SHORT $LL3@DECSTR
  00052	5f		 pop	 edi
  00053	5e		 pop	 esi
  00054	5d		 pop	 ebp
  00055	c3		 ret	 0
?_DECSTR@@YAXPADH@Z ENDP				; _DECSTR
_TEXT	ENDS
PUBLIC	?GetFullWidth@ioComplexStringPrinter@@QBEMXZ	; ioComplexStringPrinter::GetFullWidth
; Function compile flags: /Ogsp
; File d:\lost saga for developer\youtube\tutorial\source\src\lsclient\iocomplexstringprinter.h
;	COMDAT ?GetFullWidth@ioComplexStringPrinter@@QBEMXZ
_TEXT	SEGMENT
?GetFullWidth@ioComplexStringPrinter@@QBEMXZ PROC	; ioComplexStringPrinter::GetFullWidth, COMDAT
; _this$ = ecx

; 125  : 	inline float GetFullWidth() const { return m_fFullWidth; }

  00000	d9 41 1c	 fld	 DWORD PTR [ecx+28]
  00003	c3		 ret	 0
?GetFullWidth@ioComplexStringPrinter@@QBEMXZ ENDP	; ioComplexStringPrinter::GetFullWidth
_TEXT	ENDS
PUBLIC	?SetToolTipWndID@ioLSMouse@@QAEXK@Z		; ioLSMouse::SetToolTipWndID
; Function compile flags: /Ogsp
; File d:\lost saga for developer\youtube\tutorial\source\src\lsclient\iolsmouse.h
;	COMDAT ?SetToolTipWndID@ioLSMouse@@QAEXK@Z
_TEXT	SEGMENT
_dwToolTipWndID$ = 8					; size = 4
?SetToolTipWndID@ioLSMouse@@QAEXK@Z PROC		; ioLSMouse::SetToolTipWndID, COMDAT
; _this$ = ecx

; 56   : 	void SetToolTipWndID(DWORD dwToolTipWndID) { m_dwToolTipWndID = dwToolTipWndID; }

  00000	55		 push	 ebp
  00001	8b ec		 mov	 ebp, esp
  00003	8b 45 08	 mov	 eax, DWORD PTR _dwToolTipWndID$[ebp]
  00006	89 41 74	 mov	 DWORD PTR [ecx+116], eax
  00009	5d		 pop	 ebp
  0000a	c2 04 00	 ret	 4
?SetToolTipWndID@ioLSMouse@@QAEXK@Z ENDP		; ioLSMouse::SetToolTipWndID
_TEXT	ENDS
PUBLIC	?GetMouse@ioApplication@@QAEPAVioLSMouse@@XZ	; ioApplication::GetMouse
; Function compile flags: /Ogsp
; File d:\lost saga for developer\youtube\tutorial\source\src\lsclient\ioapplication.h
;	COMDAT ?GetMouse@ioApplication@@QAEPAVioLSMouse@@XZ
_TEXT	SEGMENT
?GetMouse@ioApplication@@QAEPAVioLSMouse@@XZ PROC	; ioApplication::GetMouse, COMDAT
; _this$ = ecx

; 796  : 	inline ioLSMouse* GetMouse(){ return &m_Mouse;	}

  00000	8d 81 90 00 00
	00		 lea	 eax, DWORD PTR [ecx+144]
  00006	c3		 ret	 0
?GetMouse@ioApplication@@QAEPAVioLSMouse@@XZ ENDP	; ioApplication::GetMouse
_TEXT	ENDS
PUBLIC	??0PetToolTip@@QAE@XZ				; PetToolTip::PetToolTip
EXTRN	__imp_??0ioHashString@@QAE@XZ:PROC
EXTRN	__imp_??0ioWnd@@QAE@XZ:PROC
;	COMDAT xdata$x
; File d:\lost saga for developer\youtube\tutorial\source\src\lsclient\gui\pettooltip.cpp
xdata$x	SEGMENT
__unwindtable$??0PetToolTip@@QAE@XZ DD 0ffffffffH
	DD	FLAT:__unwindfunclet$??0PetToolTip@@QAE@XZ$0
	DD	00H
	DD	FLAT:__unwindfunclet$??0PetToolTip@@QAE@XZ$1
	DD	01H
	DD	FLAT:__unwindfunclet$??0PetToolTip@@QAE@XZ$2
	DD	02H
	DD	FLAT:__unwindfunclet$??0PetToolTip@@QAE@XZ$3
__ehfuncinfo$??0PetToolTip@@QAE@XZ DD 019930522H
	DD	04H
	DD	FLAT:__unwindtable$??0PetToolTip@@QAE@XZ
	DD	2 DUP(00H)
	DD	2 DUP(00H)
	DD	00H
	DD	01H
; Function compile flags: /Ogsp
xdata$x	ENDS
;	COMDAT ??0PetToolTip@@QAE@XZ
_TEXT	SEGMENT
_this$ = -16						; size = 4
__$EHRec$ = -12						; size = 12
??0PetToolTip@@QAE@XZ PROC				; PetToolTip::PetToolTip, COMDAT
; _this$ = ecx

; 11   : {

  00000	6a 04		 push	 4
  00002	b8 00 00 00 00	 mov	 eax, __ehhandler$??0PetToolTip@@QAE@XZ
  00007	e8 00 00 00 00	 call	 __EH_prolog3
  0000c	8b f1		 mov	 esi, ecx
  0000e	89 75 f0	 mov	 DWORD PTR _this$[ebp], esi
  00011	ff 15 00 00 00
	00		 call	 DWORD PTR __imp_??0ioWnd@@QAE@XZ
  00017	8b 3d 00 00 00
	00		 mov	 edi, DWORD PTR __imp_??0ioHashString@@QAE@XZ
  0001d	83 65 fc 00	 and	 DWORD PTR __$EHRec$[ebp+8], 0
  00021	8d 8e a4 01 00
	00		 lea	 ecx, DWORD PTR [esi+420]
  00027	c7 06 00 00 00
	00		 mov	 DWORD PTR [esi], OFFSET ??_7PetToolTip@@6B@
  0002d	ff d7		 call	 edi
  0002f	8d 8e b4 01 00
	00		 lea	 ecx, DWORD PTR [esi+436]
  00035	c6 45 fc 01	 mov	 BYTE PTR __$EHRec$[ebp+8], 1
  00039	ff d7		 call	 edi
  0003b	8d 8e c4 01 00
	00		 lea	 ecx, DWORD PTR [esi+452]
  00041	c6 45 fc 02	 mov	 BYTE PTR __$EHRec$[ebp+8], 2
  00045	e8 00 00 00 00	 call	 ??0ioComplexStringPrinter@@QAE@XZ ; ioComplexStringPrinter::ioComplexStringPrinter

; 12   : 	m_pPetIcon = NULL;

  0004a	83 a6 60 01 00
	00 00		 and	 DWORD PTR [esi+352], 0

; 13   : 	m_pIconBack   = NULL;

  00051	83 a6 64 01 00
	00 00		 and	 DWORD PTR [esi+356], 0

; 14   : 	m_pBottomImg = NULL;

  00058	83 a6 68 01 00
	00 00		 and	 DWORD PTR [esi+360], 0

; 15   : 
; 16   : 	Clear();

  0005f	8b ce		 mov	 ecx, esi
  00061	c6 45 fc 03	 mov	 BYTE PTR __$EHRec$[ebp+8], 3
  00065	e8 00 00 00 00	 call	 ?Clear@PetToolTip@@QAEXXZ ; PetToolTip::Clear

; 17   : }

  0006a	8b c6		 mov	 eax, esi
  0006c	e8 00 00 00 00	 call	 __EH_epilog3
  00071	c3		 ret	 0
_TEXT	ENDS
;	COMDAT text$x
text$x	SEGMENT
__unwindfunclet$??0PetToolTip@@QAE@XZ$0:
  00000	8b 4d f0	 mov	 ecx, DWORD PTR _this$[ebp]
  00003	ff 25 00 00 00
	00		 jmp	 DWORD PTR __imp_??1ioWnd@@UAE@XZ
__unwindfunclet$??0PetToolTip@@QAE@XZ$1:
  00009	8b 4d f0	 mov	 ecx, DWORD PTR _this$[ebp]
  0000c	81 c1 a4 01 00
	00		 add	 ecx, 420		; 000001a4H
  00012	ff 25 00 00 00
	00		 jmp	 DWORD PTR __imp_??1ioHashString@@QAE@XZ
__unwindfunclet$??0PetToolTip@@QAE@XZ$2:
  00018	8b 4d f0	 mov	 ecx, DWORD PTR _this$[ebp]
  0001b	81 c1 b4 01 00
	00		 add	 ecx, 436		; 000001b4H
  00021	ff 25 00 00 00
	00		 jmp	 DWORD PTR __imp_??1ioHashString@@QAE@XZ
__unwindfunclet$??0PetToolTip@@QAE@XZ$3:
  00027	8b 4d f0	 mov	 ecx, DWORD PTR _this$[ebp]
  0002a	81 c1 c4 01 00
	00		 add	 ecx, 452		; 000001c4H
  00030	e9 00 00 00 00	 jmp	 ??1ioComplexStringPrinter@@QAE@XZ ; ioComplexStringPrinter::~ioComplexStringPrinter
__ehhandler$??0PetToolTip@@QAE@XZ:
  00035	8b 54 24 08	 mov	 edx, DWORD PTR [esp+8]
  00039	8d 42 0c	 lea	 eax, DWORD PTR [edx+12]
  0003c	8b 4a ec	 mov	 ecx, DWORD PTR [edx-20]
  0003f	33 c8		 xor	 ecx, eax
  00041	e8 00 00 00 00	 call	 @__security_check_cookie@4
  00046	b8 00 00 00 00	 mov	 eax, OFFSET __ehfuncinfo$??0PetToolTip@@QAE@XZ
  0004b	e9 00 00 00 00	 jmp	 ___CxxFrameHandler3
text$x	ENDS
??0PetToolTip@@QAE@XZ ENDP				; PetToolTip::PetToolTip
EXTRN	??3@YAXPAX@Z:PROC				; operator delete
; Function compile flags: /Ogsp
;	COMDAT ??_GPetToolTip@@UAEPAXI@Z
_TEXT	SEGMENT
___flags$ = 8						; size = 4
??_GPetToolTip@@UAEPAXI@Z PROC				; PetToolTip::`scalar deleting destructor', COMDAT
; _this$ = ecx
  00000	55		 push	 ebp
  00001	8b ec		 mov	 ebp, esp
  00003	56		 push	 esi
  00004	8b f1		 mov	 esi, ecx
  00006	e8 00 00 00 00	 call	 ??1PetToolTip@@UAE@XZ	; PetToolTip::~PetToolTip
  0000b	f6 45 08 01	 test	 BYTE PTR ___flags$[ebp], 1
  0000f	74 07		 je	 SHORT $LN1@scalar
  00011	56		 push	 esi
  00012	e8 00 00 00 00	 call	 ??3@YAXPAX@Z		; operator delete
  00017	59		 pop	 ecx
$LN1@scalar:
  00018	8b c6		 mov	 eax, esi
  0001a	5e		 pop	 esi
  0001b	5d		 pop	 ebp
  0001c	c2 04 00	 ret	 4
??_GPetToolTip@@UAEPAXI@Z ENDP				; PetToolTip::`scalar deleting destructor'
; Function compile flags: /Ogsp
_TEXT	ENDS
;	COMDAT ?iwm_hide@PetToolTip@@UAEXXZ
_TEXT	SEGMENT
?iwm_hide@PetToolTip@@UAEXXZ PROC			; PetToolTip::iwm_hide, COMDAT
; _this$ = ecx

; 32   : 	Clear();

  00000	e9 00 00 00 00	 jmp	 ?Clear@PetToolTip@@QAEXXZ ; PetToolTip::Clear
?iwm_hide@PetToolTip@@UAEXXZ ENDP			; PetToolTip::iwm_hide
_TEXT	ENDS
PUBLIC	__real@4069800000000000
PUBLIC	__real@434c0000
PUBLIC	?PrintManual@PetToolTip@@IAEXHHM@Z		; PetToolTip::PrintManual
EXTRN	?CopyFullText@ioComplexStringPrinter@@QBEXAAV1@@Z:PROC ; ioComplexStringPrinter::CopyFullText
EXTRN	?SplitFullText@ioComplexStringPrinter@@QAEXAAV1@0M@Z:PROC ; ioComplexStringPrinter::SplitFullText
EXTRN	?GetLocal@ioLocalManager@@QAEPAVioLocalParent@@W4LocalType@ioLocalManagerParent@@@Z:PROC ; ioLocalManager::GetLocal
EXTRN	?GetSingleton@ioLocalManager@@SAAAV1@XZ:PROC	; ioLocalManager::GetSingleton
EXTRN	__imp_?GetLocalType@ioLocalManagerParent@@SA?AW4LocalType@1@XZ:PROC
EXTRN	?GetSingletonPtr@ioPetInvenManualMgr@@SAPAV1@XZ:PROC ; ioPetInvenManualMgr::GetSingletonPtr
;	COMDAT __real@4069800000000000
; File d:\lost saga for developer\youtube\tutorial\source\src\lsclient\iocomplexstringprinter.h
CONST	SEGMENT
__real@4069800000000000 DQ 04069800000000000r	; 204
CONST	ENDS
;	COMDAT __real@434c0000
CONST	SEGMENT
__real@434c0000 DD 0434c0000r			; 204
CONST	ENDS
;	COMDAT xdata$x
xdata$x	SEGMENT
__unwindtable$?PrintManual@PetToolTip@@IAEXHHM@Z DD 0ffffffffH
	DD	FLAT:__unwindfunclet$?PrintManual@PetToolTip@@IAEXHHM@Z$0
	DD	00H
	DD	FLAT:__unwindfunclet$?PrintManual@PetToolTip@@IAEXHHM@Z$1
	DD	01H
	DD	FLAT:__unwindfunclet$?PrintManual@PetToolTip@@IAEXHHM@Z$2
__ehfuncinfo$?PrintManual@PetToolTip@@IAEXHHM@Z DD 019930522H
	DD	03H
	DD	FLAT:__unwindtable$?PrintManual@PetToolTip@@IAEXHHM@Z
	DD	2 DUP(00H)
	DD	2 DUP(00H)
	DD	00H
	DD	01H
; Function compile flags: /Ogsp
; File d:\lost saga for developer\youtube\tutorial\source\src\lsclient\gui\pettooltip.cpp
xdata$x	ENDS
;	COMDAT ?PrintManual@PetToolTip@@IAEXHHM@Z
_TEXT	SEGMENT
_kPrinterA$505301 = -128				; size = 32
_kPrinterB$505302 = -96					; size = 32
_kPrinter$ = -64					; size = 32
_iMaxLine$ = -32					; size = 4
tv282 = -28						; size = 4
_i$505294 = -24						; size = 4
_iLine$505284 = -20					; size = 4
_bAutoLine$ = -13					; size = 1
__$EHRec$ = -12						; size = 12
_nXPos$ = 8						; size = 4
_bFirstGap$505293 = 11					; size = 1
_nYPos$ = 12						; size = 4
_fScale$ = 16						; size = 4
?PrintManual@PetToolTip@@IAEXHHM@Z PROC			; PetToolTip::PrintManual, COMDAT
; _this$ = ecx

; 232  : {

  00000	6a 74		 push	 116			; 00000074H
  00002	b8 00 00 00 00	 mov	 eax, __ehhandler$?PrintManual@PetToolTip@@IAEXHHM@Z
  00007	e8 00 00 00 00	 call	 __EH_prolog3
  0000c	8b f9		 mov	 edi, ecx

; 233  : 	ManualMgr *pManual = ioPetInvenManualMgr::GetSingletonPtr();

  0000e	e8 00 00 00 00	 call	 ?GetSingletonPtr@ioPetInvenManualMgr@@SAPAV1@XZ ; ioPetInvenManualMgr::GetSingletonPtr
  00013	8b f0		 mov	 esi, eax

; 234  : 
; 235  : 	if( !pManual )

  00015	85 f6		 test	 esi, esi
  00017	0f 84 23 02 00
	00		 je	 $LN16@PrintManua

; 236  : 		return;
; 237  : 
; 238  : 	bool bAutoLine = false;

  0001d	c6 45 f3 00	 mov	 BYTE PTR _bAutoLine$[ebp], 0

; 239  : 	ioLocalParent *pLocal = g_LocalMgr.GetLocal( ioLocalManager::GetLocalType() );

  00021	ff 15 00 00 00
	00		 call	 DWORD PTR __imp_?GetLocalType@ioLocalManagerParent@@SA?AW4LocalType@1@XZ
  00027	50		 push	 eax
  00028	e8 00 00 00 00	 call	 ?GetSingleton@ioLocalManager@@SAAAV1@XZ ; ioLocalManager::GetSingleton
  0002d	8b c8		 mov	 ecx, eax
  0002f	e8 00 00 00 00	 call	 ?GetLocal@ioLocalManager@@QAEPAVioLocalParent@@W4LocalType@ioLocalManagerParent@@@Z ; ioLocalManager::GetLocal

; 240  : 	if( pLocal && pLocal->IsTooltipAutoLine() )

  00034	85 c0		 test	 eax, eax
  00036	74 12		 je	 SHORT $LN14@PrintManua
  00038	8b 10		 mov	 edx, DWORD PTR [eax]
  0003a	8b c8		 mov	 ecx, eax
  0003c	ff 92 b0 00 00
	00		 call	 DWORD PTR [edx+176]
  00042	84 c0		 test	 al, al
  00044	74 04		 je	 SHORT $LN14@PrintManua

; 241  : 		bAutoLine = true;

  00046	c6 45 f3 01	 mov	 BYTE PTR _bAutoLine$[ebp], 1
$LN14@PrintManua:

; 242  : 
; 243  : 	ioComplexStringPrinter kPrinter;

  0004a	8d 4d c0	 lea	 ecx, DWORD PTR _kPrinter$[ebp]
  0004d	e8 00 00 00 00	 call	 ??0ioComplexStringPrinter@@QAE@XZ ; ioComplexStringPrinter::ioComplexStringPrinter

; 244  : 	int iMaxLine = pManual->GetMaxLine( m_nManualIndex );

  00052	ff b7 98 01 00
	00		 push	 DWORD PTR [edi+408]
  00058	8b 06		 mov	 eax, DWORD PTR [esi]
  0005a	83 65 fc 00	 and	 DWORD PTR __$EHRec$[ebp+8], 0
  0005e	8b ce		 mov	 ecx, esi
  00060	ff 50 08	 call	 DWORD PTR [eax+8]

; 245  : 	for(int iLine = 1; iLine < iMaxLine; iLine++)

  00063	33 c9		 xor	 ecx, ecx
  00065	41		 inc	 ecx
  00066	89 45 e0	 mov	 DWORD PTR _iMaxLine$[ebp], eax
  00069	89 4d ec	 mov	 DWORD PTR _iLine$505284[ebp], ecx
  0006c	3b c1		 cmp	 eax, ecx
  0006e	0f 8e c0 01 00
	00		 jle	 $LN11@PrintManua
  00074	66 0f 6e 45 08	 movd	 xmm0, DWORD PTR _nXPos$[ebp]
  00079	0f 5b c0	 cvtdq2ps xmm0, xmm0
  0007c	f3 0f 11 45 e4	 movss	 DWORD PTR tv282[ebp], xmm0
  00081	bb ff 00 00 00	 mov	 ebx, 255		; 000000ffH
$LN13@PrintManua:

; 246  : 	{
; 247  : 		if( !bAutoLine )
; 248  : 		{
; 249  : 			pManual->SetPrinter( m_nManualIndex, iLine, fScale, kPrinter);

  00086	f3 0f 10 45 10	 movss	 xmm0, DWORD PTR _fScale$[ebp]
  0008b	8b 06		 mov	 eax, DWORD PTR [esi]
  0008d	8d 4d c0	 lea	 ecx, DWORD PTR _kPrinter$[ebp]
  00090	51		 push	 ecx
  00091	51		 push	 ecx
  00092	f3 0f 11 04 24	 movss	 DWORD PTR [esp], xmm0
  00097	ff 75 ec	 push	 DWORD PTR _iLine$505284[ebp]
  0009a	8b ce		 mov	 ecx, esi
  0009c	ff b7 98 01 00
	00		 push	 DWORD PTR [edi+408]
  000a2	ff 50 10	 call	 DWORD PTR [eax+16]
  000a5	80 7d f3 00	 cmp	 BYTE PTR _bAutoLine$[ebp], 0
  000a9	75 4b		 jne	 SHORT $LN10@PrintManua

; 250  : 			nYPos += pManual->GetSpaceLine( m_nManualIndex, iLine);

  000ab	ff 75 ec	 push	 DWORD PTR _iLine$505284[ebp]
  000ae	8b 06		 mov	 eax, DWORD PTR [esi]
  000b0	ff b7 98 01 00
	00		 push	 DWORD PTR [edi+408]
  000b6	8b ce		 mov	 ecx, esi
  000b8	ff 50 0c	 call	 DWORD PTR [eax+12]

; 251  : 			kPrinter.PrintFullTextWidthCut( nXPos, nYPos, TAT_LEFT, DESC_WIDTH );

  000bb	f3 0f 10 05 00
	00 00 00	 movss	 xmm0, DWORD PTR __real@434c0000
  000c3	01 45 0c	 add	 DWORD PTR _nYPos$[ebp], eax
  000c6	53		 push	 ebx
  000c7	51		 push	 ecx
  000c8	f3 0f 11 04 24	 movss	 DWORD PTR [esp], xmm0
  000cd	66 0f 6e 45 0c	 movd	 xmm0, DWORD PTR _nYPos$[ebp]
  000d2	6a 00		 push	 0
  000d4	51		 push	 ecx
  000d5	51		 push	 ecx
  000d6	0f 5b c0	 cvtdq2ps xmm0, xmm0
  000d9	f3 0f 11 44 24
	04		 movss	 DWORD PTR [esp+4], xmm0
  000df	f3 0f 10 45 e4	 movss	 xmm0, DWORD PTR tv282[ebp]
  000e4	8d 4d c0	 lea	 ecx, DWORD PTR _kPrinter$[ebp]
  000e7	f3 0f 11 04 24	 movss	 DWORD PTR [esp], xmm0
  000ec	e8 00 00 00 00	 call	 ?PrintFullTextWidthCut@ioComplexStringPrinter@@QAEXMMW4TextAlignType@@ME@Z ; ioComplexStringPrinter::PrintFullTextWidthCut

; 252  : 			kPrinter.ClearList();
; 253  : 		}
; 254  : 		else

  000f1	e9 27 01 00 00	 jmp	 $LN31@PrintManua
$LN10@PrintManua:

; 255  : 		{
; 256  : 			pManual->SetPrinter( m_nManualIndex, iLine, fScale, kPrinter);
; 257  : 			enum { MAX_LOOP = 20, Y_GAP = 18, };
; 258  : 			bool bFirstGap = true;
; 259  : 			for (int i = 0; i < MAX_LOOP ; i++)

  000f6	83 65 e8 00	 and	 DWORD PTR _i$505294[ebp], 0
  000fa	c6 45 0b 01	 mov	 BYTE PTR _bFirstGap$505293[ebp], 1
$LN8@PrintManua:

; 260  : 			{
; 261  : 				if( kPrinter.GetFullWidth() < DESC_WIDTH )

  000fe	f3 0f 10 45 dc	 movss	 xmm0, DWORD PTR _kPrinter$[ebp+28]
  00103	f2 0f 10 0d 00
	00 00 00	 movsd	 xmm1, QWORD PTR __real@4069800000000000
  0010b	0f 5a c0	 cvtps2pd xmm0, xmm0
  0010e	66 0f 2f c8	 comisd	 xmm1, xmm0
  00112	0f 87 c1 00 00
	00		 ja	 $LN25@PrintManua

; 272  : 					break;
; 273  : 				}
; 274  : 
; 275  : 				ioComplexStringPrinter kPrinterA, kPrinterB;

  00118	8d 4d 80	 lea	 ecx, DWORD PTR _kPrinterA$505301[ebp]
  0011b	e8 00 00 00 00	 call	 ??0ioComplexStringPrinter@@QAE@XZ ; ioComplexStringPrinter::ioComplexStringPrinter
  00120	8d 4d a0	 lea	 ecx, DWORD PTR _kPrinterB$505302[ebp]
  00123	c6 45 fc 01	 mov	 BYTE PTR __$EHRec$[ebp+8], 1
  00127	e8 00 00 00 00	 call	 ??0ioComplexStringPrinter@@QAE@XZ ; ioComplexStringPrinter::ioComplexStringPrinter

; 276  : 				kPrinter.SplitFullText( kPrinterA, kPrinterB, DESC_WIDTH );

  0012c	f3 0f 10 05 00
	00 00 00	 movss	 xmm0, DWORD PTR __real@434c0000
  00134	51		 push	 ecx
  00135	f3 0f 11 04 24	 movss	 DWORD PTR [esp], xmm0
  0013a	8d 45 a0	 lea	 eax, DWORD PTR _kPrinterB$505302[ebp]
  0013d	50		 push	 eax
  0013e	8d 45 80	 lea	 eax, DWORD PTR _kPrinterA$505301[ebp]
  00141	50		 push	 eax
  00142	8d 4d c0	 lea	 ecx, DWORD PTR _kPrinter$[ebp]
  00145	c6 45 fc 02	 mov	 BYTE PTR __$EHRec$[ebp+8], 2
  00149	e8 00 00 00 00	 call	 ?SplitFullText@ioComplexStringPrinter@@QAEXAAV1@0M@Z ; ioComplexStringPrinter::SplitFullText

; 277  : 				if( bFirstGap )

  0014e	80 7d 0b 00	 cmp	 BYTE PTR _bFirstGap$505293[ebp], 0
  00152	74 19		 je	 SHORT $LN2@PrintManua

; 278  : 				{
; 279  : 					nYPos += pManual->GetSpaceLine( m_nManualIndex, iLine);

  00154	ff 75 ec	 push	 DWORD PTR _iLine$505284[ebp]
  00157	8b 06		 mov	 eax, DWORD PTR [esi]
  00159	ff b7 98 01 00
	00		 push	 DWORD PTR [edi+408]
  0015f	8b ce		 mov	 ecx, esi
  00161	ff 50 0c	 call	 DWORD PTR [eax+12]
  00164	01 45 0c	 add	 DWORD PTR _nYPos$[ebp], eax

; 280  : 					bFirstGap = false;

  00167	c6 45 0b 00	 mov	 BYTE PTR _bFirstGap$505293[ebp], 0

; 281  : 				}
; 282  : 				else

  0016b	eb 04		 jmp	 SHORT $LN1@PrintManua
$LN2@PrintManua:

; 283  : 					nYPos += Y_GAP;

  0016d	83 45 0c 12	 add	 DWORD PTR _nYPos$[ebp], 18 ; 00000012H
$LN1@PrintManua:

; 284  : 				kPrinterA.PrintFullText( nXPos, nYPos, TAT_LEFT );

  00171	66 0f 6e 45 0c	 movd	 xmm0, DWORD PTR _nYPos$[ebp]
  00176	53		 push	 ebx
  00177	6a 00		 push	 0
  00179	51		 push	 ecx
  0017a	51		 push	 ecx
  0017b	0f 5b c0	 cvtdq2ps xmm0, xmm0
  0017e	f3 0f 11 44 24
	04		 movss	 DWORD PTR [esp+4], xmm0
  00184	f3 0f 10 45 e4	 movss	 xmm0, DWORD PTR tv282[ebp]
  00189	8d 4d 80	 lea	 ecx, DWORD PTR _kPrinterA$505301[ebp]
  0018c	f3 0f 11 04 24	 movss	 DWORD PTR [esp], xmm0
  00191	e8 00 00 00 00	 call	 ?PrintFullText@ioComplexStringPrinter@@QAEXMMW4TextAlignType@@E@Z ; ioComplexStringPrinter::PrintFullText

; 285  : 				kPrinterB.CopyFullText( kPrinter );

  00196	8d 45 c0	 lea	 eax, DWORD PTR _kPrinter$[ebp]
  00199	50		 push	 eax
  0019a	8d 4d a0	 lea	 ecx, DWORD PTR _kPrinterB$505302[ebp]
  0019d	e8 00 00 00 00	 call	 ?CopyFullText@ioComplexStringPrinter@@QBEXAAV1@@Z ; ioComplexStringPrinter::CopyFullText

; 286  : 				kPrinterA.ClearList();

  001a2	8d 4d 80	 lea	 ecx, DWORD PTR _kPrinterA$505301[ebp]
  001a5	e8 00 00 00 00	 call	 ?ClearList@ioComplexStringPrinter@@QAEXXZ ; ioComplexStringPrinter::ClearList

; 287  : 				kPrinterB.ClearList();

  001aa	8d 4d a0	 lea	 ecx, DWORD PTR _kPrinterB$505302[ebp]
  001ad	e8 00 00 00 00	 call	 ?ClearList@ioComplexStringPrinter@@QAEXXZ ; ioComplexStringPrinter::ClearList

; 288  : 			}

  001b2	8d 4d a0	 lea	 ecx, DWORD PTR _kPrinterB$505302[ebp]
  001b5	c6 45 fc 01	 mov	 BYTE PTR __$EHRec$[ebp+8], 1
  001b9	e8 00 00 00 00	 call	 ??1ioComplexStringPrinter@@QAE@XZ ; ioComplexStringPrinter::~ioComplexStringPrinter
  001be	8d 4d 80	 lea	 ecx, DWORD PTR _kPrinterA$505301[ebp]
  001c1	c6 45 fc 00	 mov	 BYTE PTR __$EHRec$[ebp+8], 0
  001c5	e8 00 00 00 00	 call	 ??1ioComplexStringPrinter@@QAE@XZ ; ioComplexStringPrinter::~ioComplexStringPrinter
  001ca	ff 45 e8	 inc	 DWORD PTR _i$505294[ebp]
  001cd	83 7d e8 14	 cmp	 DWORD PTR _i$505294[ebp], 20 ; 00000014H
  001d1	0f 8c 27 ff ff
	ff		 jl	 $LN8@PrintManua

; 260  : 			{
; 261  : 				if( kPrinter.GetFullWidth() < DESC_WIDTH )

  001d7	eb 4c		 jmp	 SHORT $LN12@PrintManua
$LN25@PrintManua:

; 262  : 				{
; 263  : 					if( bFirstGap )

  001d9	80 7d 0b 00	 cmp	 BYTE PTR _bFirstGap$505293[ebp], 0
  001dd	74 15		 je	 SHORT $LN4@PrintManua

; 264  : 					{
; 265  : 						nYPos += pManual->GetSpaceLine( m_nManualIndex, iLine);

  001df	ff 75 ec	 push	 DWORD PTR _iLine$505284[ebp]
  001e2	8b 06		 mov	 eax, DWORD PTR [esi]
  001e4	ff b7 98 01 00
	00		 push	 DWORD PTR [edi+408]
  001ea	8b ce		 mov	 ecx, esi
  001ec	ff 50 0c	 call	 DWORD PTR [eax+12]
  001ef	01 45 0c	 add	 DWORD PTR _nYPos$[ebp], eax

; 266  : 						bFirstGap = false;
; 267  : 					}
; 268  : 					else

  001f2	eb 04		 jmp	 SHORT $LN3@PrintManua
$LN4@PrintManua:

; 269  : 						nYPos += Y_GAP;

  001f4	83 45 0c 12	 add	 DWORD PTR _nYPos$[ebp], 18 ; 00000012H
$LN3@PrintManua:

; 270  : 					kPrinter.PrintFullText( nXPos, nYPos, TAT_LEFT );

  001f8	66 0f 6e 45 0c	 movd	 xmm0, DWORD PTR _nYPos$[ebp]
  001fd	53		 push	 ebx
  001fe	6a 00		 push	 0
  00200	51		 push	 ecx
  00201	51		 push	 ecx
  00202	0f 5b c0	 cvtdq2ps xmm0, xmm0
  00205	f3 0f 11 44 24
	04		 movss	 DWORD PTR [esp+4], xmm0
  0020b	f3 0f 10 45 e4	 movss	 xmm0, DWORD PTR tv282[ebp]
  00210	8d 4d c0	 lea	 ecx, DWORD PTR _kPrinter$[ebp]
  00213	f3 0f 11 04 24	 movss	 DWORD PTR [esp], xmm0
  00218	e8 00 00 00 00	 call	 ?PrintFullText@ioComplexStringPrinter@@QAEXMMW4TextAlignType@@E@Z ; ioComplexStringPrinter::PrintFullText
$LN31@PrintManua:

; 271  : 					kPrinter.ClearList();

  0021d	8d 4d c0	 lea	 ecx, DWORD PTR _kPrinter$[ebp]
  00220	e8 00 00 00 00	 call	 ?ClearList@ioComplexStringPrinter@@QAEXXZ ; ioComplexStringPrinter::ClearList
$LN12@PrintManua:

; 245  : 	for(int iLine = 1; iLine < iMaxLine; iLine++)

  00225	ff 45 ec	 inc	 DWORD PTR _iLine$505284[ebp]
  00228	8b 45 ec	 mov	 eax, DWORD PTR _iLine$505284[ebp]
  0022b	3b 45 e0	 cmp	 eax, DWORD PTR _iMaxLine$[ebp]
  0022e	0f 8c 52 fe ff
	ff		 jl	 $LN13@PrintManua
$LN11@PrintManua:

; 289  : 		}
; 290  : 	}	
; 291  : }

  00234	83 4d fc ff	 or	 DWORD PTR __$EHRec$[ebp+8], -1
  00238	8d 4d c0	 lea	 ecx, DWORD PTR _kPrinter$[ebp]
  0023b	e8 00 00 00 00	 call	 ??1ioComplexStringPrinter@@QAE@XZ ; ioComplexStringPrinter::~ioComplexStringPrinter
$LN16@PrintManua:
  00240	e8 00 00 00 00	 call	 __EH_epilog3
  00245	c2 0c 00	 ret	 12			; 0000000cH
_TEXT	ENDS
;	COMDAT text$x
text$x	SEGMENT
__unwindfunclet$?PrintManual@PetToolTip@@IAEXHHM@Z$0:
  00000	8d 4d c0	 lea	 ecx, DWORD PTR _kPrinter$[ebp]
  00003	e9 00 00 00 00	 jmp	 ??1ioComplexStringPrinter@@QAE@XZ ; ioComplexStringPrinter::~ioComplexStringPrinter
__unwindfunclet$?PrintManual@PetToolTip@@IAEXHHM@Z$1:
  00008	8d 4d 80	 lea	 ecx, DWORD PTR _kPrinterA$505301[ebp]
  0000b	e9 00 00 00 00	 jmp	 ??1ioComplexStringPrinter@@QAE@XZ ; ioComplexStringPrinter::~ioComplexStringPrinter
__unwindfunclet$?PrintManual@PetToolTip@@IAEXHHM@Z$2:
  00010	8d 4d a0	 lea	 ecx, DWORD PTR _kPrinterB$505302[ebp]
  00013	e9 00 00 00 00	 jmp	 ??1ioComplexStringPrinter@@QAE@XZ ; ioComplexStringPrinter::~ioComplexStringPrinter
__ehhandler$?PrintManual@PetToolTip@@IAEXHHM@Z:
  00018	8b 54 24 08	 mov	 edx, DWORD PTR [esp+8]
  0001c	8d 42 0c	 lea	 eax, DWORD PTR [edx+12]
  0001f	8b 8a 7c ff ff
	ff		 mov	 ecx, DWORD PTR [edx-132]
  00025	33 c8		 xor	 ecx, eax
  00027	e8 00 00 00 00	 call	 @__security_check_cookie@4
  0002c	b8 00 00 00 00	 mov	 eax, OFFSET __ehfuncinfo$?PrintManual@PetToolTip@@IAEXHHM@Z
  00031	e9 00 00 00 00	 jmp	 ___CxxFrameHandler3
text$x	ENDS
?PrintManual@PetToolTip@@IAEXHHM@Z ENDP			; PetToolTip::PrintManual
PUBLIC	?SetInfo@PetToolTip@@QAE_NXZ			; PetToolTip::SetInfo
EXTRN	__imp_?CreateImageByFullName@ioUIImageSetManager@@QAEPAVioUIRenderImage@@ABVioHashString@@_N@Z:PROC
EXTRN	__imp_?GetSingleton@ioUIImageSetManager@@SAAAV1@XZ:PROC
; Function compile flags: /Ogsp
;	COMDAT ?SetInfo@PetToolTip@@QAE_NXZ
_TEXT	SEGMENT
?SetInfo@PetToolTip@@QAE_NXZ PROC			; PetToolTip::SetInfo, COMDAT
; _this$ = ecx

; 309  : {

  00000	53		 push	 ebx
  00001	56		 push	 esi
  00002	8b f1		 mov	 esi, ecx

; 310  : 	GetPetInfo();

  00004	e8 00 00 00 00	 call	 ?GetPetInfo@PetToolTip@@IAEXXZ ; PetToolTip::GetPetInfo

; 311  : 
; 312  : 	if( m_nSelectPetCode <= 0 || m_nSelectPetRank == PRT_NONE || m_szPetName.IsEmpty() || m_szPetIcon.IsEmpty() )

  00009	83 be 8c 01 00
	00 00		 cmp	 DWORD PTR [esi+396], 0
  00010	7e 5e		 jle	 SHORT $LN2@SetInfo
  00012	83 be 94 01 00
	00 00		 cmp	 DWORD PTR [esi+404], 0
  00019	74 55		 je	 SHORT $LN2@SetInfo
  0001b	8d 8e a4 01 00
	00		 lea	 ecx, DWORD PTR [esi+420]
  00021	ff 15 00 00 00
	00		 call	 DWORD PTR __imp_?IsEmpty@ioHashString@@QBE_NXZ
  00027	84 c0		 test	 al, al
  00029	75 45		 jne	 SHORT $LN2@SetInfo
  0002b	8d 9e b4 01 00
	00		 lea	 ebx, DWORD PTR [esi+436]
  00031	8b cb		 mov	 ecx, ebx
  00033	ff 15 00 00 00
	00		 call	 DWORD PTR __imp_?IsEmpty@ioHashString@@QBE_NXZ
  00039	84 c0		 test	 al, al
  0003b	75 33		 jne	 SHORT $LN2@SetInfo

; 316  : 	}
; 317  : 
; 318  : 	SAFEDELETE( m_pPetIcon );

  0003d	8b 8e 60 01 00
	00		 mov	 ecx, DWORD PTR [esi+352]
  00043	85 c9		 test	 ecx, ecx
  00045	74 0e		 je	 SHORT $LN1@SetInfo
  00047	8b 01		 mov	 eax, DWORD PTR [ecx]
  00049	6a 01		 push	 1
  0004b	ff 50 40	 call	 DWORD PTR [eax+64]
  0004e	83 a6 60 01 00
	00 00		 and	 DWORD PTR [esi+352], 0
$LN1@SetInfo:

; 319  : 	m_pPetIcon = g_UIImageSetMgr.CreateImageByFullName( m_szPetIcon );

  00055	6a 00		 push	 0
  00057	53		 push	 ebx
  00058	ff 15 00 00 00
	00		 call	 DWORD PTR __imp_?GetSingleton@ioUIImageSetManager@@SAAAV1@XZ
  0005e	8b c8		 mov	 ecx, eax
  00060	ff 15 00 00 00
	00		 call	 DWORD PTR __imp_?CreateImageByFullName@ioUIImageSetManager@@QAEPAVioUIRenderImage@@ABVioHashString@@_N@Z
  00066	89 86 60 01 00
	00		 mov	 DWORD PTR [esi+352], eax

; 320  : 
; 321  : 	return true;

  0006c	b0 01		 mov	 al, 1
  0006e	eb 09		 jmp	 SHORT $LN4@SetInfo
$LN2@SetInfo:

; 313  : 	{
; 314  : 		Clear();

  00070	8b ce		 mov	 ecx, esi
  00072	e8 00 00 00 00	 call	 ?Clear@PetToolTip@@QAEXXZ ; PetToolTip::Clear

; 315  : 		return false;

  00077	32 c0		 xor	 al, al
$LN4@SetInfo:

; 322  : }

  00079	5e		 pop	 esi
  0007a	5b		 pop	 ebx
  0007b	c3		 ret	 0
?SetInfo@PetToolTip@@QAE_NXZ ENDP			; PetToolTip::SetInfo
_TEXT	ENDS
PUBLIC	?UpdateWndSize@PetToolTip@@IAEXXZ		; PetToolTip::UpdateWndSize
EXTRN	__imp_?GetWidth@ioWnd@@QBEHXZ:PROC
;	COMDAT xdata$x
; File d:\lost saga for developer\youtube\tutorial\source\src\lsclient\iocomplexstringprinter.h
xdata$x	SEGMENT
__unwindtable$?UpdateWndSize@PetToolTip@@IAEXXZ DD 0ffffffffH
	DD	FLAT:__unwindfunclet$?UpdateWndSize@PetToolTip@@IAEXXZ$0
	DD	00H
	DD	FLAT:__unwindfunclet$?UpdateWndSize@PetToolTip@@IAEXXZ$1
	DD	01H
	DD	FLAT:__unwindfunclet$?UpdateWndSize@PetToolTip@@IAEXXZ$2
__ehfuncinfo$?UpdateWndSize@PetToolTip@@IAEXXZ DD 019930522H
	DD	03H
	DD	FLAT:__unwindtable$?UpdateWndSize@PetToolTip@@IAEXXZ
	DD	2 DUP(00H)
	DD	2 DUP(00H)
	DD	00H
	DD	01H
; Function compile flags: /Ogsp
; File d:\lost saga for developer\youtube\tutorial\source\src\lsclient\gui\pettooltip.cpp
xdata$x	ENDS
;	COMDAT ?UpdateWndSize@PetToolTip@@IAEXXZ
_TEXT	SEGMENT
_kPrinterA$505383 = -124				; size = 32
_kPrinterB$505384 = -92					; size = 32
_kPrinter$505365 = -60					; size = 32
_iMaxLine$505362 = -28					; size = 4
_i$505376 = -24						; size = 4
_iLine$505368 = -20					; size = 4
_iTotalLineGap$505366 = -16				; size = 4
__$EHRec$ = -12						; size = 12
?UpdateWndSize@PetToolTip@@IAEXXZ PROC			; PetToolTip::UpdateWndSize, COMDAT
; _this$ = ecx

; 358  : {

  00000	6a 70		 push	 112			; 00000070H
  00002	b8 00 00 00 00	 mov	 eax, __ehhandler$?UpdateWndSize@PetToolTip@@IAEXXZ
  00007	e8 00 00 00 00	 call	 __EH_prolog3
  0000c	8b f1		 mov	 esi, ecx

; 359  : 	enum { DEFAULT_HEIGHT = 187, LINE_GAP = 18, };
; 360  : 
; 361  : 	ManualMgr *pManual = ioPetInvenManualMgr::GetSingletonPtr();

  0000e	e8 00 00 00 00	 call	 ?GetSingletonPtr@ioPetInvenManualMgr@@SAPAV1@XZ ; ioPetInvenManualMgr::GetSingletonPtr
  00013	8b f8		 mov	 edi, eax

; 362  : 	if( !pManual )

  00015	85 ff		 test	 edi, edi
  00017	0f 84 ab 01 00
	00		 je	 $LN14@UpdateWndS

; 363  : 		return;
; 364  : 
; 365  : 	bool bAutoLine = false;
; 366  : 	ioLocalParent *pLocal = g_LocalMgr.GetLocal( ioLocalManager::GetLocalType() );

  0001d	ff 15 00 00 00
	00		 call	 DWORD PTR __imp_?GetLocalType@ioLocalManagerParent@@SA?AW4LocalType@1@XZ
  00023	50		 push	 eax
  00024	e8 00 00 00 00	 call	 ?GetSingleton@ioLocalManager@@SAAAV1@XZ ; ioLocalManager::GetSingleton
  00029	8b c8		 mov	 ecx, eax
  0002b	e8 00 00 00 00	 call	 ?GetLocal@ioLocalManager@@QAEPAVioLocalParent@@W4LocalType@ioLocalManagerParent@@@Z ; ioLocalManager::GetLocal

; 367  : 	if( pLocal && pLocal->IsTooltipAutoLine() )

  00030	85 c0		 test	 eax, eax
  00032	74 0e		 je	 SHORT $LN31@UpdateWndS
  00034	8b 10		 mov	 edx, DWORD PTR [eax]
  00036	8b c8		 mov	 ecx, eax
  00038	ff 92 b0 00 00
	00		 call	 DWORD PTR [edx+176]
  0003e	84 c0		 test	 al, al
  00040	75 32		 jne	 SHORT $LN16@UpdateWndS
$LN31@UpdateWndS:

; 368  : 		bAutoLine = true;
; 369  : 
; 370  : 	if( !bAutoLine )
; 371  : 	{
; 372  : 		int iMaxLine = pManual->GetMaxLine( m_nManualIndex );

  00042	ff b6 98 01 00
	00		 push	 DWORD PTR [esi+408]
  00048	8b 07		 mov	 eax, DWORD PTR [edi]
  0004a	8b cf		 mov	 ecx, edi
  0004c	ff 50 08	 call	 DWORD PTR [eax+8]

; 373  : 		iMaxLine--; // 1  

  0004f	48		 dec	 eax

; 374  : 		if( iMaxLine <= 0 )

  00050	85 c0		 test	 eax, eax
  00052	7f 02		 jg	 SHORT $LN15@UpdateWndS

; 375  : 			iMaxLine = 0;

  00054	33 c0		 xor	 eax, eax
$LN15@UpdateWndS:

; 376  : 
; 377  : 		SetSize( GetWidth(), DEFAULT_HEIGHT+(LINE_GAP * iMaxLine) );

  00056	8b 3e		 mov	 edi, DWORD PTR [esi]
  00058	6b c0 12	 imul	 eax, 18			; 00000012H
  0005b	05 bb 00 00 00	 add	 eax, 187		; 000000bbH
  00060	50		 push	 eax
  00061	8b ce		 mov	 ecx, esi
  00063	ff 15 00 00 00
	00		 call	 DWORD PTR __imp_?GetWidth@ioWnd@@QBEHXZ
  00069	50		 push	 eax
  0006a	8b ce		 mov	 ecx, esi
  0006c	ff 57 2c	 call	 DWORD PTR [edi+44]

; 378  : 	}
; 379  : 	else

  0006f	e9 54 01 00 00	 jmp	 $LN14@UpdateWndS
$LN16@UpdateWndS:

; 380  : 	{
; 381  : 		int iMaxLine = pManual->GetMaxLine( m_nManualIndex );

  00074	ff b6 98 01 00
	00		 push	 DWORD PTR [esi+408]
  0007a	8b 07		 mov	 eax, DWORD PTR [edi]
  0007c	8b cf		 mov	 ecx, edi
  0007e	ff 50 08	 call	 DWORD PTR [eax+8]

; 382  : 		int iNewLine = iMaxLine - 1; // 1  

  00081	8d 58 ff	 lea	 ebx, DWORD PTR [eax-1]
  00084	89 45 e4	 mov	 DWORD PTR _iMaxLine$505362[ebp], eax

; 383  : 		if( iNewLine <= 0 )

  00087	85 db		 test	 ebx, ebx
  00089	7f 02		 jg	 SHORT $LN13@UpdateWndS

; 384  : 			iNewLine = 0;

  0008b	33 db		 xor	 ebx, ebx
$LN13@UpdateWndS:

; 385  : 
; 386  : 		ioComplexStringPrinter kPrinter;

  0008d	8d 4d c4	 lea	 ecx, DWORD PTR _kPrinter$505365[ebp]
  00090	e8 00 00 00 00	 call	 ??0ioComplexStringPrinter@@QAE@XZ ; ioComplexStringPrinter::ioComplexStringPrinter
  00095	83 65 fc 00	 and	 DWORD PTR __$EHRec$[ebp+8], 0

; 387  : 		int iTotalLineGap = 18;

  00099	c7 45 f0 12 00
	00 00		 mov	 DWORD PTR _iTotalLineGap$505366[ebp], 18 ; 00000012H

; 388  : 		if( iNewLine > 0 )

  000a0	85 db		 test	 ebx, ebx
  000a2	0f 8e fb 00 00
	00		 jle	 $LN9@UpdateWndS

; 389  : 		{
; 390  : 			for(int iLine = 1; iLine < iMaxLine; iLine++)

  000a8	33 c0		 xor	 eax, eax
  000aa	40		 inc	 eax
  000ab	89 45 ec	 mov	 DWORD PTR _iLine$505368[ebp], eax
  000ae	39 45 e4	 cmp	 DWORD PTR _iMaxLine$505362[ebp], eax
  000b1	0f 8e ec 00 00
	00		 jle	 $LN9@UpdateWndS
$LN11@UpdateWndS:

; 391  : 			{
; 392  : 				enum { MAX_LOOP = 20, Y_GAP = 18, };
; 393  : 				bool bFirstGap = true;
; 394  : 				for (int i = 0; i < MAX_LOOP ; i++)

  000b7	83 65 e8 00	 and	 DWORD PTR _i$505376[ebp], 0
  000bb	b3 01		 mov	 bl, 1
$LN8@UpdateWndS:

; 395  : 				{
; 396  : 					if( kPrinter.GetFullWidth() < DESC_WIDTH )

  000bd	f3 0f 10 45 e0	 movss	 xmm0, DWORD PTR _kPrinter$505365[ebp+28]
  000c2	f2 0f 10 0d 00
	00 00 00	 movsd	 xmm1, QWORD PTR __real@4069800000000000
  000ca	0f 5a c0	 cvtps2pd xmm0, xmm0
  000cd	66 0f 2f c8	 comisd	 xmm1, xmm0
  000d1	0f 87 98 00 00
	00		 ja	 $LN28@UpdateWndS

; 406  : 						break;
; 407  : 					}
; 408  : 
; 409  : 					ioComplexStringPrinter kPrinterA, kPrinterB;

  000d7	8d 4d 84	 lea	 ecx, DWORD PTR _kPrinterA$505383[ebp]
  000da	e8 00 00 00 00	 call	 ??0ioComplexStringPrinter@@QAE@XZ ; ioComplexStringPrinter::ioComplexStringPrinter
  000df	8d 4d a4	 lea	 ecx, DWORD PTR _kPrinterB$505384[ebp]
  000e2	c6 45 fc 01	 mov	 BYTE PTR __$EHRec$[ebp+8], 1
  000e6	e8 00 00 00 00	 call	 ??0ioComplexStringPrinter@@QAE@XZ ; ioComplexStringPrinter::ioComplexStringPrinter

; 410  : 					kPrinter.SplitFullText( kPrinterA, kPrinterB, DESC_WIDTH );

  000eb	f3 0f 10 05 00
	00 00 00	 movss	 xmm0, DWORD PTR __real@434c0000
  000f3	51		 push	 ecx
  000f4	f3 0f 11 04 24	 movss	 DWORD PTR [esp], xmm0
  000f9	8d 45 a4	 lea	 eax, DWORD PTR _kPrinterB$505384[ebp]
  000fc	50		 push	 eax
  000fd	8d 45 84	 lea	 eax, DWORD PTR _kPrinterA$505383[ebp]
  00100	50		 push	 eax
  00101	8d 4d c4	 lea	 ecx, DWORD PTR _kPrinter$505365[ebp]
  00104	c6 45 fc 02	 mov	 BYTE PTR __$EHRec$[ebp+8], 2
  00108	e8 00 00 00 00	 call	 ?SplitFullText@ioComplexStringPrinter@@QAEXAAV1@0M@Z ; ioComplexStringPrinter::SplitFullText

; 411  : 					if( bFirstGap )

  0010d	84 db		 test	 bl, bl
  0010f	74 17		 je	 SHORT $LN2@UpdateWndS

; 412  : 					{
; 413  : 						iTotalLineGap += pManual->GetSpaceLine( m_nManualIndex, iLine);

  00111	ff 75 ec	 push	 DWORD PTR _iLine$505368[ebp]
  00114	8b 07		 mov	 eax, DWORD PTR [edi]
  00116	ff b6 98 01 00
	00		 push	 DWORD PTR [esi+408]
  0011c	8b cf		 mov	 ecx, edi
  0011e	ff 50 0c	 call	 DWORD PTR [eax+12]
  00121	01 45 f0	 add	 DWORD PTR _iTotalLineGap$505366[ebp], eax

; 414  : 						bFirstGap = false;

  00124	32 db		 xor	 bl, bl

; 415  : 					}
; 416  : 					else

  00126	eb 04		 jmp	 SHORT $LN1@UpdateWndS
$LN2@UpdateWndS:

; 417  : 						iTotalLineGap += Y_GAP;

  00128	83 45 f0 12	 add	 DWORD PTR _iTotalLineGap$505366[ebp], 18 ; 00000012H
$LN1@UpdateWndS:

; 418  : 					kPrinterB.CopyFullText( kPrinter );

  0012c	8d 45 c4	 lea	 eax, DWORD PTR _kPrinter$505365[ebp]
  0012f	50		 push	 eax
  00130	8d 4d a4	 lea	 ecx, DWORD PTR _kPrinterB$505384[ebp]
  00133	e8 00 00 00 00	 call	 ?CopyFullText@ioComplexStringPrinter@@QBEXAAV1@@Z ; ioComplexStringPrinter::CopyFullText

; 419  : 					kPrinterA.ClearList();

  00138	8d 4d 84	 lea	 ecx, DWORD PTR _kPrinterA$505383[ebp]
  0013b	e8 00 00 00 00	 call	 ?ClearList@ioComplexStringPrinter@@QAEXXZ ; ioComplexStringPrinter::ClearList

; 420  : 					kPrinterB.ClearList();

  00140	8d 4d a4	 lea	 ecx, DWORD PTR _kPrinterB$505384[ebp]
  00143	e8 00 00 00 00	 call	 ?ClearList@ioComplexStringPrinter@@QAEXXZ ; ioComplexStringPrinter::ClearList

; 421  : 				}

  00148	8d 4d a4	 lea	 ecx, DWORD PTR _kPrinterB$505384[ebp]
  0014b	c6 45 fc 01	 mov	 BYTE PTR __$EHRec$[ebp+8], 1
  0014f	e8 00 00 00 00	 call	 ??1ioComplexStringPrinter@@QAE@XZ ; ioComplexStringPrinter::~ioComplexStringPrinter
  00154	8d 4d 84	 lea	 ecx, DWORD PTR _kPrinterA$505383[ebp]
  00157	c6 45 fc 00	 mov	 BYTE PTR __$EHRec$[ebp+8], 0
  0015b	e8 00 00 00 00	 call	 ??1ioComplexStringPrinter@@QAE@XZ ; ioComplexStringPrinter::~ioComplexStringPrinter
  00160	ff 45 e8	 inc	 DWORD PTR _i$505376[ebp]
  00163	83 7d e8 14	 cmp	 DWORD PTR _i$505376[ebp], 20 ; 00000014H
  00167	0f 8c 50 ff ff
	ff		 jl	 $LN8@UpdateWndS

; 395  : 				{
; 396  : 					if( kPrinter.GetFullWidth() < DESC_WIDTH )

  0016d	eb 25		 jmp	 SHORT $LN10@UpdateWndS
$LN28@UpdateWndS:

; 397  : 					{
; 398  : 						if( bFirstGap )

  0016f	84 db		 test	 bl, bl
  00171	74 15		 je	 SHORT $LN4@UpdateWndS

; 399  : 						{
; 400  : 							iTotalLineGap += pManual->GetSpaceLine( m_nManualIndex, iLine);

  00173	ff 75 ec	 push	 DWORD PTR _iLine$505368[ebp]
  00176	8b 07		 mov	 eax, DWORD PTR [edi]
  00178	ff b6 98 01 00
	00		 push	 DWORD PTR [esi+408]
  0017e	8b cf		 mov	 ecx, edi
  00180	ff 50 0c	 call	 DWORD PTR [eax+12]
  00183	01 45 f0	 add	 DWORD PTR _iTotalLineGap$505366[ebp], eax

; 401  : 							bFirstGap = false;
; 402  : 						}
; 403  : 						else

  00186	eb 04		 jmp	 SHORT $LN3@UpdateWndS
$LN4@UpdateWndS:

; 404  : 							iTotalLineGap += Y_GAP;

  00188	83 45 f0 12	 add	 DWORD PTR _iTotalLineGap$505366[ebp], 18 ; 00000012H
$LN3@UpdateWndS:

; 405  : 						kPrinter.ClearList();

  0018c	8d 4d c4	 lea	 ecx, DWORD PTR _kPrinter$505365[ebp]
  0018f	e8 00 00 00 00	 call	 ?ClearList@ioComplexStringPrinter@@QAEXXZ ; ioComplexStringPrinter::ClearList
$LN10@UpdateWndS:

; 389  : 		{
; 390  : 			for(int iLine = 1; iLine < iMaxLine; iLine++)

  00194	ff 45 ec	 inc	 DWORD PTR _iLine$505368[ebp]
  00197	8b 45 ec	 mov	 eax, DWORD PTR _iLine$505368[ebp]
  0019a	3b 45 e4	 cmp	 eax, DWORD PTR _iMaxLine$505362[ebp]
  0019d	0f 8c 14 ff ff
	ff		 jl	 $LN11@UpdateWndS
$LN9@UpdateWndS:

; 422  : 			}
; 423  : 		}
; 424  : 		SetSize( GetWidth(), DEFAULT_HEIGHT+iTotalLineGap );

  001a3	8b 45 f0	 mov	 eax, DWORD PTR _iTotalLineGap$505366[ebp]
  001a6	8b 3e		 mov	 edi, DWORD PTR [esi]
  001a8	05 bb 00 00 00	 add	 eax, 187		; 000000bbH
  001ad	50		 push	 eax
  001ae	8b ce		 mov	 ecx, esi
  001b0	ff 15 00 00 00
	00		 call	 DWORD PTR __imp_?GetWidth@ioWnd@@QBEHXZ
  001b6	50		 push	 eax
  001b7	8b ce		 mov	 ecx, esi
  001b9	ff 57 2c	 call	 DWORD PTR [edi+44]

; 425  : 	}

  001bc	83 4d fc ff	 or	 DWORD PTR __$EHRec$[ebp+8], -1
  001c0	8d 4d c4	 lea	 ecx, DWORD PTR _kPrinter$505365[ebp]
  001c3	e8 00 00 00 00	 call	 ??1ioComplexStringPrinter@@QAE@XZ ; ioComplexStringPrinter::~ioComplexStringPrinter
$LN14@UpdateWndS:

; 426  : }

  001c8	e8 00 00 00 00	 call	 __EH_epilog3
  001cd	c3		 ret	 0
_TEXT	ENDS
;	COMDAT text$x
text$x	SEGMENT
__unwindfunclet$?UpdateWndSize@PetToolTip@@IAEXXZ$0:
  00000	8d 4d c4	 lea	 ecx, DWORD PTR _kPrinter$505365[ebp]
  00003	e9 00 00 00 00	 jmp	 ??1ioComplexStringPrinter@@QAE@XZ ; ioComplexStringPrinter::~ioComplexStringPrinter
__unwindfunclet$?UpdateWndSize@PetToolTip@@IAEXXZ$1:
  00008	8d 4d 84	 lea	 ecx, DWORD PTR _kPrinterA$505383[ebp]
  0000b	e9 00 00 00 00	 jmp	 ??1ioComplexStringPrinter@@QAE@XZ ; ioComplexStringPrinter::~ioComplexStringPrinter
__unwindfunclet$?UpdateWndSize@PetToolTip@@IAEXXZ$2:
  00010	8d 4d a4	 lea	 ecx, DWORD PTR _kPrinterB$505384[ebp]
  00013	e9 00 00 00 00	 jmp	 ??1ioComplexStringPrinter@@QAE@XZ ; ioComplexStringPrinter::~ioComplexStringPrinter
__ehhandler$?UpdateWndSize@PetToolTip@@IAEXXZ:
  00018	8b 54 24 08	 mov	 edx, DWORD PTR [esp+8]
  0001c	8d 42 0c	 lea	 eax, DWORD PTR [edx+12]
  0001f	8b 4a 80	 mov	 ecx, DWORD PTR [edx-128]
  00022	33 c8		 xor	 ecx, eax
  00024	e8 00 00 00 00	 call	 @__security_check_cookie@4
  00029	b8 00 00 00 00	 mov	 eax, OFFSET __ehfuncinfo$?UpdateWndSize@PetToolTip@@IAEXXZ
  0002e	e9 00 00 00 00	 jmp	 ___CxxFrameHandler3
text$x	ENDS
?UpdateWndSize@PetToolTip@@IAEXXZ ENDP			; PetToolTip::UpdateWndSize
PUBLIC	__$ArrayPad$
PUBLIC	??$?8$09@@YA_NABVioHashString@@AAY09$$CBD@Z	; operator==<10>
EXTRN	___security_cookie:DWORD
; Function compile flags: /Ogsp
; File d:\lost saga for developer\youtube\tutorial\source\src\io3dengine\iohashstring.h
;	COMDAT ??$?8$09@@YA_NABVioHashString@@AAY09$$CBD@Z
_TEXT	SEGMENT
__t$ = -20						; size = 10
__$ArrayPad$ = -4					; size = 4
_lhs$ = 8						; size = 4
_t$ = 12						; size = 4
??$?8$09@@YA_NABVioHashString@@AAY09$$CBD@Z PROC	; operator==<10>, COMDAT

; 146  : {

  00000	55		 push	 ebp
  00001	8b ec		 mov	 ebp, esp
  00003	83 ec 14	 sub	 esp, 20			; 00000014H
  00006	a1 00 00 00 00	 mov	 eax, DWORD PTR ___security_cookie
  0000b	33 c5		 xor	 eax, ebp
  0000d	89 45 fc	 mov	 DWORD PTR __$ArrayPad$[ebp], eax
  00010	8b 45 0c	 mov	 eax, DWORD PTR _t$[ebp]

; 147  : 	_ENCSTR(t, _t); return ( strcmp( lhs.c_str(), _t ) == 0 );

  00013	8a 10		 mov	 dl, BYTE PTR [eax]
  00015	8b 4d 08	 mov	 ecx, DWORD PTR _lhs$[ebp]
  00018	84 d2		 test	 dl, dl
  0001a	0f 84 0d 01 00
	00		 je	 $LN96@operator
  00020	80 f2 ed	 xor	 dl, -19			; ffffffedH
  00023	88 55 ec	 mov	 BYTE PTR __t$[ebp], dl
  00026	8a 50 01	 mov	 dl, BYTE PTR [eax+1]
  00029	84 d2		 test	 dl, dl
  0002b	0f 84 f6 00 00
	00		 je	 $LN95@operator
  00031	80 f2 ec	 xor	 dl, -20			; ffffffecH
  00034	88 55 ed	 mov	 BYTE PTR __t$[ebp+1], dl
  00037	8a 50 02	 mov	 dl, BYTE PTR [eax+2]
  0003a	84 d2		 test	 dl, dl
  0003c	0f 84 df 00 00
	00		 je	 $LN94@operator
  00042	80 f2 eb	 xor	 dl, -21			; ffffffebH
  00045	88 55 ee	 mov	 BYTE PTR __t$[ebp+2], dl
  00048	8a 50 03	 mov	 dl, BYTE PTR [eax+3]
  0004b	84 d2		 test	 dl, dl
  0004d	0f 84 c8 00 00
	00		 je	 $LN93@operator
  00053	80 f2 ea	 xor	 dl, -22			; ffffffeaH
  00056	88 55 ef	 mov	 BYTE PTR __t$[ebp+3], dl
  00059	8a 50 04	 mov	 dl, BYTE PTR [eax+4]
  0005c	84 d2		 test	 dl, dl
  0005e	0f 84 b1 00 00
	00		 je	 $LN92@operator
  00064	80 f2 ed	 xor	 dl, -19			; ffffffedH
  00067	88 55 f0	 mov	 BYTE PTR __t$[ebp+4], dl
  0006a	8a 50 05	 mov	 dl, BYTE PTR [eax+5]
  0006d	84 d2		 test	 dl, dl
  0006f	0f 84 9a 00 00
	00		 je	 $LN91@operator
  00075	80 f2 ec	 xor	 dl, -20			; ffffffecH
  00078	88 55 f1	 mov	 BYTE PTR __t$[ebp+5], dl
  0007b	8a 50 06	 mov	 dl, BYTE PTR [eax+6]
  0007e	84 d2		 test	 dl, dl
  00080	0f 84 83 00 00
	00		 je	 $LN90@operator
  00086	80 f2 eb	 xor	 dl, -21			; ffffffebH
  00089	88 55 f2	 mov	 BYTE PTR __t$[ebp+6], dl
  0008c	8a 50 07	 mov	 dl, BYTE PTR [eax+7]
  0008f	84 d2		 test	 dl, dl
  00091	74 70		 je	 SHORT $LN89@operator
  00093	80 f2 ea	 xor	 dl, -22			; ffffffeaH
  00096	88 55 f3	 mov	 BYTE PTR __t$[ebp+7], dl
  00099	8a 50 08	 mov	 dl, BYTE PTR [eax+8]
  0009c	84 d2		 test	 dl, dl
  0009e	74 5d		 je	 SHORT $LN88@operator
  000a0	80 f2 ed	 xor	 dl, -19			; ffffffedH
  000a3	80 78 09 00	 cmp	 BYTE PTR [eax+9], 0
  000a7	88 55 f4	 mov	 BYTE PTR __t$[ebp+8], dl
  000aa	0f 84 81 00 00
	00		 je	 $LN1@operator
  000b0	8a 50 0a	 mov	 dl, BYTE PTR [eax+10]
  000b3	84 d2		 test	 dl, dl
  000b5	74 40		 je	 SHORT $LN86@operator
  000b7	80 f2 eb	 xor	 dl, -21			; ffffffebH
  000ba	88 55 f6	 mov	 BYTE PTR __t$[ebp+10], dl
  000bd	8a 50 0b	 mov	 dl, BYTE PTR [eax+11]
  000c0	84 d2		 test	 dl, dl
  000c2	74 2d		 je	 SHORT $LN85@operator
  000c4	80 f2 ea	 xor	 dl, -22			; ffffffeaH
  000c7	88 55 f7	 mov	 BYTE PTR __t$[ebp+11], dl
  000ca	8a 50 0c	 mov	 dl, BYTE PTR [eax+12]
  000cd	84 d2		 test	 dl, dl
  000cf	74 1a		 je	 SHORT $LN84@operator
  000d1	8a 40 0d	 mov	 al, BYTE PTR [eax+13]
  000d4	80 f2 ed	 xor	 dl, -19			; ffffffedH
  000d7	88 55 f8	 mov	 BYTE PTR __t$[ebp+12], dl
  000da	84 c0		 test	 al, al
  000dc	74 07		 je	 SHORT $LN83@operator
  000de	34 ec		 xor	 al, -20			; ffffffecH
  000e0	88 45 f9	 mov	 BYTE PTR __t$[ebp+13], al
  000e3	eb 4c		 jmp	 SHORT $LN1@operator
$LN83@operator:
  000e5	c6 45 f9 ec	 mov	 BYTE PTR __t$[ebp+13], -20 ; ffffffecH
  000e9	eb 46		 jmp	 SHORT $LN1@operator
$LN84@operator:
  000eb	c6 45 f8 ed	 mov	 BYTE PTR __t$[ebp+12], -19 ; ffffffedH
  000ef	eb 40		 jmp	 SHORT $LN1@operator
$LN85@operator:
  000f1	c6 45 f7 ea	 mov	 BYTE PTR __t$[ebp+11], -22 ; ffffffeaH
  000f5	eb 3a		 jmp	 SHORT $LN1@operator
$LN86@operator:
  000f7	c6 45 f6 eb	 mov	 BYTE PTR __t$[ebp+10], -21 ; ffffffebH
  000fb	eb 34		 jmp	 SHORT $LN1@operator
$LN88@operator:
  000fd	c6 45 f4 ed	 mov	 BYTE PTR __t$[ebp+8], -19 ; ffffffedH
  00101	eb 2e		 jmp	 SHORT $LN1@operator
$LN89@operator:
  00103	c6 45 f3 ea	 mov	 BYTE PTR __t$[ebp+7], -22 ; ffffffeaH
  00107	eb 28		 jmp	 SHORT $LN1@operator
$LN90@operator:
  00109	c6 45 f2 eb	 mov	 BYTE PTR __t$[ebp+6], -21 ; ffffffebH
  0010d	eb 22		 jmp	 SHORT $LN1@operator
$LN91@operator:
  0010f	c6 45 f1 ec	 mov	 BYTE PTR __t$[ebp+5], -20 ; ffffffecH
  00113	eb 1c		 jmp	 SHORT $LN1@operator
$LN92@operator:
  00115	c6 45 f0 ed	 mov	 BYTE PTR __t$[ebp+4], -19 ; ffffffedH
  00119	eb 16		 jmp	 SHORT $LN1@operator
$LN93@operator:
  0011b	c6 45 ef ea	 mov	 BYTE PTR __t$[ebp+3], -22 ; ffffffeaH
  0011f	eb 10		 jmp	 SHORT $LN1@operator
$LN94@operator:
  00121	c6 45 ee eb	 mov	 BYTE PTR __t$[ebp+2], -21 ; ffffffebH
  00125	eb 0a		 jmp	 SHORT $LN1@operator
$LN95@operator:
  00127	c6 45 ed ec	 mov	 BYTE PTR __t$[ebp+1], -20 ; ffffffecH
  0012b	eb 04		 jmp	 SHORT $LN1@operator
$LN96@operator:
  0012d	c6 45 ec ed	 mov	 BYTE PTR __t$[ebp], -19	; ffffffedH
$LN1@operator:
  00131	6a 02		 push	 2
  00133	8d 45 ec	 lea	 eax, DWORD PTR __t$[ebp]
  00136	c6 45 f5 00	 mov	 BYTE PTR __t$[ebp+9], 0
  0013a	5a		 pop	 edx
$LL104@operator:
  0013b	81 30 ed ec eb
	ea		 xor	 DWORD PTR [eax], -353637139 ; eaebecedH
  00141	83 c0 04	 add	 eax, 4
  00144	4a		 dec	 edx
  00145	75 f4		 jne	 SHORT $LL104@operator
  00147	80 75 f4 ed	 xor	 BYTE PTR __t$[ebp+8], -19 ; ffffffedH
  0014b	56		 push	 esi
  0014c	8d 75 ec	 lea	 esi, DWORD PTR __t$[ebp]
  0014f	ff 15 00 00 00
	00		 call	 DWORD PTR __imp_?c_str@ioHashString@@QBEPBDXZ
$LL111@operator:
  00155	8a 08		 mov	 cl, BYTE PTR [eax]
  00157	3a 0e		 cmp	 cl, BYTE PTR [esi]
  00159	75 1a		 jne	 SHORT $LN112@operator
  0015b	84 c9		 test	 cl, cl
  0015d	74 12		 je	 SHORT $LN113@operator
  0015f	8a 48 01	 mov	 cl, BYTE PTR [eax+1]
  00162	3a 4e 01	 cmp	 cl, BYTE PTR [esi+1]
  00165	75 0e		 jne	 SHORT $LN112@operator
  00167	83 c0 02	 add	 eax, 2
  0016a	83 c6 02	 add	 esi, 2
  0016d	84 c9		 test	 cl, cl
  0016f	75 e4		 jne	 SHORT $LL111@operator
$LN113@operator:
  00171	33 c0		 xor	 eax, eax
  00173	eb 05		 jmp	 SHORT $LN114@operator
$LN112@operator:
  00175	1b c0		 sbb	 eax, eax
  00177	83 d8 ff	 sbb	 eax, -1
$LN114@operator:
  0017a	33 c9		 xor	 ecx, ecx
  0017c	85 c0		 test	 eax, eax
  0017e	0f 94 c0	 sete	 al

; 148  : }

  00181	8b 4d fc	 mov	 ecx, DWORD PTR __$ArrayPad$[ebp]
  00184	33 cd		 xor	 ecx, ebp
  00186	5e		 pop	 esi
  00187	e8 00 00 00 00	 call	 @__security_check_cookie@4
  0018c	c9		 leave
  0018d	c3		 ret	 0
??$?8$09@@YA_NABVioHashString@@AAY09$$CBD@Z ENDP	; operator==<10>
_TEXT	ENDS
PUBLIC	__$ArrayPad$
PUBLIC	??$?8$08@@YA_NABVioHashString@@AAY08$$CBD@Z	; operator==<9>
; Function compile flags: /Ogsp
;	COMDAT ??$?8$08@@YA_NABVioHashString@@AAY08$$CBD@Z
_TEXT	SEGMENT
__t$ = -20						; size = 9
__$ArrayPad$ = -4					; size = 4
_lhs$ = 8						; size = 4
_t$ = 12						; size = 4
??$?8$08@@YA_NABVioHashString@@AAY08$$CBD@Z PROC	; operator==<9>, COMDAT

; 146  : {

  00000	55		 push	 ebp
  00001	8b ec		 mov	 ebp, esp
  00003	83 ec 14	 sub	 esp, 20			; 00000014H
  00006	a1 00 00 00 00	 mov	 eax, DWORD PTR ___security_cookie
  0000b	33 c5		 xor	 eax, ebp
  0000d	89 45 fc	 mov	 DWORD PTR __$ArrayPad$[ebp], eax
  00010	8b 45 0c	 mov	 eax, DWORD PTR _t$[ebp]

; 147  : 	_ENCSTR(t, _t); return ( strcmp( lhs.c_str(), _t ) == 0 );

  00013	8a 10		 mov	 dl, BYTE PTR [eax]
  00015	8b 4d 08	 mov	 ecx, DWORD PTR _lhs$[ebp]
  00018	84 d2		 test	 dl, dl
  0001a	0f 84 ee 00 00
	00		 je	 $LN96@operator@2
  00020	80 f2 ed	 xor	 dl, -19			; ffffffedH
  00023	88 55 ec	 mov	 BYTE PTR __t$[ebp], dl
  00026	8a 50 01	 mov	 dl, BYTE PTR [eax+1]
  00029	84 d2		 test	 dl, dl
  0002b	0f 84 d7 00 00
	00		 je	 $LN95@operator@2
  00031	80 f2 ec	 xor	 dl, -20			; ffffffecH
  00034	88 55 ed	 mov	 BYTE PTR __t$[ebp+1], dl
  00037	8a 50 02	 mov	 dl, BYTE PTR [eax+2]
  0003a	84 d2		 test	 dl, dl
  0003c	0f 84 c0 00 00
	00		 je	 $LN94@operator@2
  00042	80 f2 eb	 xor	 dl, -21			; ffffffebH
  00045	88 55 ee	 mov	 BYTE PTR __t$[ebp+2], dl
  00048	8a 50 03	 mov	 dl, BYTE PTR [eax+3]
  0004b	84 d2		 test	 dl, dl
  0004d	0f 84 a9 00 00
	00		 je	 $LN93@operator@2
  00053	80 f2 ea	 xor	 dl, -22			; ffffffeaH
  00056	88 55 ef	 mov	 BYTE PTR __t$[ebp+3], dl
  00059	8a 50 04	 mov	 dl, BYTE PTR [eax+4]
  0005c	84 d2		 test	 dl, dl
  0005e	0f 84 92 00 00
	00		 je	 $LN92@operator@2
  00064	80 f2 ed	 xor	 dl, -19			; ffffffedH
  00067	88 55 f0	 mov	 BYTE PTR __t$[ebp+4], dl
  0006a	8a 50 05	 mov	 dl, BYTE PTR [eax+5]
  0006d	84 d2		 test	 dl, dl
  0006f	74 7f		 je	 SHORT $LN91@operator@2
  00071	80 f2 ec	 xor	 dl, -20			; ffffffecH
  00074	88 55 f1	 mov	 BYTE PTR __t$[ebp+5], dl
  00077	8a 50 06	 mov	 dl, BYTE PTR [eax+6]
  0007a	84 d2		 test	 dl, dl
  0007c	74 6c		 je	 SHORT $LN90@operator@2
  0007e	80 f2 eb	 xor	 dl, -21			; ffffffebH
  00081	88 55 f2	 mov	 BYTE PTR __t$[ebp+6], dl
  00084	8a 50 07	 mov	 dl, BYTE PTR [eax+7]
  00087	84 d2		 test	 dl, dl
  00089	74 59		 je	 SHORT $LN89@operator@2
  0008b	80 f2 ea	 xor	 dl, -22			; ffffffeaH
  0008e	80 78 08 00	 cmp	 BYTE PTR [eax+8], 0
  00092	88 55 f3	 mov	 BYTE PTR __t$[ebp+7], dl
  00095	74 7b		 je	 SHORT $LN1@operator@2
  00097	8a 50 09	 mov	 dl, BYTE PTR [eax+9]
  0009a	84 d2		 test	 dl, dl
  0009c	74 40		 je	 SHORT $LN87@operator@2
  0009e	80 f2 ec	 xor	 dl, -20			; ffffffecH
  000a1	88 55 f5	 mov	 BYTE PTR __t$[ebp+9], dl
  000a4	8a 50 0a	 mov	 dl, BYTE PTR [eax+10]
  000a7	84 d2		 test	 dl, dl
  000a9	74 2d		 je	 SHORT $LN86@operator@2
  000ab	80 f2 eb	 xor	 dl, -21			; ffffffebH
  000ae	88 55 f6	 mov	 BYTE PTR __t$[ebp+10], dl
  000b1	8a 50 0b	 mov	 dl, BYTE PTR [eax+11]
  000b4	84 d2		 test	 dl, dl
  000b6	74 1a		 je	 SHORT $LN85@operator@2
  000b8	8a 40 0c	 mov	 al, BYTE PTR [eax+12]
  000bb	80 f2 ea	 xor	 dl, -22			; ffffffeaH
  000be	88 55 f7	 mov	 BYTE PTR __t$[ebp+11], dl
  000c1	84 c0		 test	 al, al
  000c3	74 07		 je	 SHORT $LN84@operator@2
  000c5	34 ed		 xor	 al, -19			; ffffffedH
  000c7	88 45 f8	 mov	 BYTE PTR __t$[ebp+12], al
  000ca	eb 46		 jmp	 SHORT $LN1@operator@2
$LN84@operator@2:
  000cc	c6 45 f8 ed	 mov	 BYTE PTR __t$[ebp+12], -19 ; ffffffedH
  000d0	eb 40		 jmp	 SHORT $LN1@operator@2
$LN85@operator@2:
  000d2	c6 45 f7 ea	 mov	 BYTE PTR __t$[ebp+11], -22 ; ffffffeaH
  000d6	eb 3a		 jmp	 SHORT $LN1@operator@2
$LN86@operator@2:
  000d8	c6 45 f6 eb	 mov	 BYTE PTR __t$[ebp+10], -21 ; ffffffebH
  000dc	eb 34		 jmp	 SHORT $LN1@operator@2
$LN87@operator@2:
  000de	c6 45 f5 ec	 mov	 BYTE PTR __t$[ebp+9], -20 ; ffffffecH
  000e2	eb 2e		 jmp	 SHORT $LN1@operator@2
$LN89@operator@2:
  000e4	c6 45 f3 ea	 mov	 BYTE PTR __t$[ebp+7], -22 ; ffffffeaH
  000e8	eb 28		 jmp	 SHORT $LN1@operator@2
$LN90@operator@2:
  000ea	c6 45 f2 eb	 mov	 BYTE PTR __t$[ebp+6], -21 ; ffffffebH
  000ee	eb 22		 jmp	 SHORT $LN1@operator@2
$LN91@operator@2:
  000f0	c6 45 f1 ec	 mov	 BYTE PTR __t$[ebp+5], -20 ; ffffffecH
  000f4	eb 1c		 jmp	 SHORT $LN1@operator@2
$LN92@operator@2:
  000f6	c6 45 f0 ed	 mov	 BYTE PTR __t$[ebp+4], -19 ; ffffffedH
  000fa	eb 16		 jmp	 SHORT $LN1@operator@2
$LN93@operator@2:
  000fc	c6 45 ef ea	 mov	 BYTE PTR __t$[ebp+3], -22 ; ffffffeaH
  00100	eb 10		 jmp	 SHORT $LN1@operator@2
$LN94@operator@2:
  00102	c6 45 ee eb	 mov	 BYTE PTR __t$[ebp+2], -21 ; ffffffebH
  00106	eb 0a		 jmp	 SHORT $LN1@operator@2
$LN95@operator@2:
  00108	c6 45 ed ec	 mov	 BYTE PTR __t$[ebp+1], -20 ; ffffffecH
  0010c	eb 04		 jmp	 SHORT $LN1@operator@2
$LN96@operator@2:
  0010e	c6 45 ec ed	 mov	 BYTE PTR __t$[ebp], -19	; ffffffedH
$LN1@operator@2:
  00112	6a 02		 push	 2
  00114	8d 45 ec	 lea	 eax, DWORD PTR __t$[ebp]
  00117	c6 45 f4 00	 mov	 BYTE PTR __t$[ebp+8], 0
  0011b	5a		 pop	 edx
$LL104@operator@2:
  0011c	81 30 ed ec eb
	ea		 xor	 DWORD PTR [eax], -353637139 ; eaebecedH
  00122	83 c0 04	 add	 eax, 4
  00125	4a		 dec	 edx
  00126	75 f4		 jne	 SHORT $LL104@operator@2
  00128	56		 push	 esi
  00129	8d 75 ec	 lea	 esi, DWORD PTR __t$[ebp]
  0012c	ff 15 00 00 00
	00		 call	 DWORD PTR __imp_?c_str@ioHashString@@QBEPBDXZ
$LL111@operator@2:
  00132	8a 08		 mov	 cl, BYTE PTR [eax]
  00134	3a 0e		 cmp	 cl, BYTE PTR [esi]
  00136	75 1a		 jne	 SHORT $LN112@operator@2
  00138	84 c9		 test	 cl, cl
  0013a	74 12		 je	 SHORT $LN113@operator@2
  0013c	8a 48 01	 mov	 cl, BYTE PTR [eax+1]
  0013f	3a 4e 01	 cmp	 cl, BYTE PTR [esi+1]
  00142	75 0e		 jne	 SHORT $LN112@operator@2
  00144	83 c0 02	 add	 eax, 2
  00147	83 c6 02	 add	 esi, 2
  0014a	84 c9		 test	 cl, cl
  0014c	75 e4		 jne	 SHORT $LL111@operator@2
$LN113@operator@2:
  0014e	33 c0		 xor	 eax, eax
  00150	eb 05		 jmp	 SHORT $LN114@operator@2
$LN112@operator@2:
  00152	1b c0		 sbb	 eax, eax
  00154	83 d8 ff	 sbb	 eax, -1
$LN114@operator@2:
  00157	33 c9		 xor	 ecx, ecx
  00159	85 c0		 test	 eax, eax
  0015b	0f 94 c0	 sete	 al

; 148  : }

  0015e	8b 4d fc	 mov	 ecx, DWORD PTR __$ArrayPad$[ebp]
  00161	33 cd		 xor	 ecx, ebp
  00163	5e		 pop	 esi
  00164	e8 00 00 00 00	 call	 @__security_check_cookie@4
  00169	c9		 leave
  0016a	c3		 ret	 0
??$?8$08@@YA_NABVioHashString@@AAY08$$CBD@Z ENDP	; operator==<9>
_TEXT	ENDS
EXTRN	__imp_?SetWndPos@ioWnd@@QAEXHH@Z:PROC
EXTRN	__imp_?ShowWnd@ioWnd@@QAEXXZ:PROC
EXTRN	?GetNotCutWndPos@Help@@YAXHHHHAAH0@Z:PROC	; Help::GetNotCutWndPos
EXTRN	__imp_?GetHeight@ioWnd@@QBEHXZ:PROC
EXTRN	__imp_?GetMousePos@ioMouse@@QBEABUtagPOINT@@XZ:PROC
EXTRN	?SetToolTipCursor@ioLSMouse@@QAEXXZ:PROC	; ioLSMouse::SetToolTipCursor
EXTRN	__imp_?IsShow@ioWnd@@QBE_NXZ:PROC
EXTRN	?GetSingleton@ioApplication@@SAAAV1@XZ:PROC	; ioApplication::GetSingleton
EXTRN	__imp_?HideWnd@ioWnd@@QAEXXZ:PROC
EXTRN	__imp_?IsShow@ioGUIManager@@QAE_NK@Z:PROC
EXTRN	?GetSingleton@ioSP2GUIManager@@SAAAV1@XZ:PROC	; ioSP2GUIManager::GetSingleton
; Function compile flags: /Ogsp
; File d:\lost saga for developer\youtube\tutorial\source\src\lsclient\gui\pettooltip.cpp
;	COMDAT ?OnProcess@PetToolTip@@MAEXM@Z
_TEXT	SEGMENT
_iYPos$505164 = -8					; size = 4
_iXPos$505159 = -8					; size = 4
_iXPos$505163 = -4					; size = 4
_iYPos$505160 = -4					; size = 4
_fTimePerSec$ = 8					; size = 4
?OnProcess@PetToolTip@@MAEXM@Z PROC			; PetToolTip::OnProcess, COMDAT
; _this$ = ecx

; 36   : {

  00000	55		 push	 ebp
  00001	8b ec		 mov	 ebp, esp
  00003	51		 push	 ecx
  00004	51		 push	 ecx
  00005	56		 push	 esi

; 37   : 	if( !g_GUIMgr.IsShow( PET_WND ) )

  00006	68 66 18 00 00	 push	 6246			; 00001866H
  0000b	8b f1		 mov	 esi, ecx
  0000d	e8 00 00 00 00	 call	 ?GetSingleton@ioSP2GUIManager@@SAAAV1@XZ ; ioSP2GUIManager::GetSingleton
  00012	8b c8		 mov	 ecx, eax
  00014	ff 15 00 00 00
	00		 call	 DWORD PTR __imp_?IsShow@ioGUIManager@@QAE_NK@Z
  0001a	84 c0		 test	 al, al
  0001c	75 0d		 jne	 SHORT $LN7@OnProcess

; 38   : 	{
; 39   : 		HideWnd();

  0001e	8b ce		 mov	 ecx, esi
  00020	ff 15 00 00 00
	00		 call	 DWORD PTR __imp_?HideWnd@ioWnd@@QAEXXZ

; 40   : 		return;

  00026	e9 fc 00 00 00	 jmp	 $LN1@OnProcess
$LN7@OnProcess:
  0002b	57		 push	 edi

; 41   : 	}
; 42   : 
; 43   : 	ioLSMouse *pMouse = g_App.GetMouse();

  0002c	e8 00 00 00 00	 call	 ?GetSingleton@ioApplication@@SAAAV1@XZ ; ioApplication::GetSingleton
  00031	8b f8		 mov	 edi, eax
  00033	81 c7 90 00 00
	00		 add	 edi, 144		; 00000090H

; 44   : 	if( !pMouse ) 

  00039	0f 84 e7 00 00
	00		 je	 $LN14@OnProcess

; 45   : 		return;
; 46   : 
; 47   : 	if( IsShow() )

  0003f	53		 push	 ebx
  00040	8b ce		 mov	 ecx, esi
  00042	ff 15 00 00 00
	00		 call	 DWORD PTR __imp_?IsShow@ioWnd@@QBE_NXZ

; 48   : 	{	
; 49   : 		if( !SetInfo() )                                          

  00048	8b ce		 mov	 ecx, esi
  0004a	84 c0		 test	 al, al
  0004c	74 70		 je	 SHORT $LN5@OnProcess
  0004e	e8 00 00 00 00	 call	 ?SetInfo@PetToolTip@@QAE_NXZ ; PetToolTip::SetInfo
  00053	84 c0		 test	 al, al
  00055	75 0d		 jne	 SHORT $LN4@OnProcess

; 50   : 			HideWnd();

  00057	8b ce		 mov	 ecx, esi
  00059	ff 15 00 00 00
	00		 call	 DWORD PTR __imp_?HideWnd@ioWnd@@QAEXXZ

; 51   : 		else

  0005f	e9 c1 00 00 00	 jmp	 $LN15@OnProcess
$LN4@OnProcess:

; 52   : 		{
; 53   : 			pMouse->SetToolTipWndID( 0 );

  00064	33 db		 xor	 ebx, ebx

; 54   : 			pMouse->SetToolTipCursor();

  00066	8b cf		 mov	 ecx, edi
  00068	89 5f 74	 mov	 DWORD PTR [edi+116], ebx
  0006b	e8 00 00 00 00	 call	 ?SetToolTipCursor@ioLSMouse@@QAEXXZ ; ioLSMouse::SetToolTipCursor

; 55   : 			UpdateWndSize();

  00070	8b ce		 mov	 ecx, esi
  00072	e8 00 00 00 00	 call	 ?UpdateWndSize@PetToolTip@@IAEXXZ ; PetToolTip::UpdateWndSize

; 56   : 			int iXPos = 0;
; 57   : 			int iYPos = 0;
; 58   : 			Help::GetNotCutWndPos( pMouse->GetMousePos().x, pMouse->GetMousePos().y, GetWidth(), GetHeight(), iXPos, iYPos );

  00077	8b cf		 mov	 ecx, edi
  00079	89 5d f8	 mov	 DWORD PTR _iXPos$505159[ebp], ebx
  0007c	89 5d fc	 mov	 DWORD PTR _iYPos$505160[ebp], ebx
  0007f	ff 15 00 00 00
	00		 call	 DWORD PTR __imp_?GetMousePos@ioMouse@@QBEABUtagPOINT@@XZ
  00085	8b d8		 mov	 ebx, eax
  00087	8d 45 fc	 lea	 eax, DWORD PTR _iYPos$505160[ebp]
  0008a	50		 push	 eax
  0008b	8d 45 f8	 lea	 eax, DWORD PTR _iXPos$505159[ebp]
  0008e	50		 push	 eax
  0008f	8b ce		 mov	 ecx, esi
  00091	ff 15 00 00 00
	00		 call	 DWORD PTR __imp_?GetHeight@ioWnd@@QBEHXZ
  00097	50		 push	 eax
  00098	8b ce		 mov	 ecx, esi
  0009a	ff 15 00 00 00
	00		 call	 DWORD PTR __imp_?GetWidth@ioWnd@@QBEHXZ
  000a0	50		 push	 eax
  000a1	8b cf		 mov	 ecx, edi
  000a3	ff 15 00 00 00
	00		 call	 DWORD PTR __imp_?GetMousePos@ioMouse@@QBEABUtagPOINT@@XZ
  000a9	ff 70 04	 push	 DWORD PTR [eax+4]
  000ac	ff 33		 push	 DWORD PTR [ebx]
  000ae	e8 00 00 00 00	 call	 ?GetNotCutWndPos@Help@@YAXHHHHAAH0@Z ; Help::GetNotCutWndPos
  000b3	83 c4 18	 add	 esp, 24			; 00000018H

; 59   : 			SetWndPos( iXPos, iYPos );

  000b6	ff 75 fc	 push	 DWORD PTR _iYPos$505160[ebp]
  000b9	ff 75 f8	 push	 DWORD PTR _iXPos$505159[ebp]

; 60   : 		}
; 61   : 	}
; 62   : 	else

  000bc	eb 5f		 jmp	 SHORT $LN16@OnProcess
$LN5@OnProcess:

; 63   : 	{
; 64   : 		if( SetInfo() )

  000be	e8 00 00 00 00	 call	 ?SetInfo@PetToolTip@@QAE_NXZ ; PetToolTip::SetInfo
  000c3	84 c0		 test	 al, al
  000c5	74 5e		 je	 SHORT $LN15@OnProcess

; 65   : 		{
; 66   : 			ShowWnd();

  000c7	8b ce		 mov	 ecx, esi
  000c9	ff 15 00 00 00
	00		 call	 DWORD PTR __imp_?ShowWnd@ioWnd@@QAEXXZ

; 67   : 			UpdateWndSize();

  000cf	8b ce		 mov	 ecx, esi
  000d1	e8 00 00 00 00	 call	 ?UpdateWndSize@PetToolTip@@IAEXXZ ; PetToolTip::UpdateWndSize

; 68   : 			int iXPos = 0;

  000d6	33 db		 xor	 ebx, ebx

; 69   : 			int iYPos = 0;
; 70   : 			Help::GetNotCutWndPos( pMouse->GetMousePos().x, pMouse->GetMousePos().y, GetWidth(), GetHeight(), iXPos, iYPos );

  000d8	8b cf		 mov	 ecx, edi
  000da	89 5d fc	 mov	 DWORD PTR _iXPos$505163[ebp], ebx
  000dd	89 5d f8	 mov	 DWORD PTR _iYPos$505164[ebp], ebx
  000e0	ff 15 00 00 00
	00		 call	 DWORD PTR __imp_?GetMousePos@ioMouse@@QBEABUtagPOINT@@XZ
  000e6	8b d8		 mov	 ebx, eax
  000e8	8d 45 f8	 lea	 eax, DWORD PTR _iYPos$505164[ebp]
  000eb	50		 push	 eax
  000ec	8d 45 fc	 lea	 eax, DWORD PTR _iXPos$505163[ebp]
  000ef	50		 push	 eax
  000f0	8b ce		 mov	 ecx, esi
  000f2	ff 15 00 00 00
	00		 call	 DWORD PTR __imp_?GetHeight@ioWnd@@QBEHXZ
  000f8	50		 push	 eax
  000f9	8b ce		 mov	 ecx, esi
  000fb	ff 15 00 00 00
	00		 call	 DWORD PTR __imp_?GetWidth@ioWnd@@QBEHXZ
  00101	50		 push	 eax
  00102	8b cf		 mov	 ecx, edi
  00104	ff 15 00 00 00
	00		 call	 DWORD PTR __imp_?GetMousePos@ioMouse@@QBEABUtagPOINT@@XZ
  0010a	ff 70 04	 push	 DWORD PTR [eax+4]
  0010d	ff 33		 push	 DWORD PTR [ebx]
  0010f	e8 00 00 00 00	 call	 ?GetNotCutWndPos@Help@@YAXHHHHAAH0@Z ; Help::GetNotCutWndPos
  00114	83 c4 18	 add	 esp, 24			; 00000018H

; 71   : 			SetWndPos( iXPos, iYPos );

  00117	ff 75 f8	 push	 DWORD PTR _iYPos$505164[ebp]
  0011a	ff 75 fc	 push	 DWORD PTR _iXPos$505163[ebp]
$LN16@OnProcess:
  0011d	8b ce		 mov	 ecx, esi
  0011f	ff 15 00 00 00
	00		 call	 DWORD PTR __imp_?SetWndPos@ioWnd@@QAEXHH@Z
$LN15@OnProcess:
  00125	5b		 pop	 ebx
$LN14@OnProcess:
  00126	5f		 pop	 edi
$LN1@OnProcess:
  00127	5e		 pop	 esi

; 72   : 		}
; 73   : 	}
; 74   : }

  00128	c9		 leave
  00129	c2 04 00	 ret	 4
?OnProcess@PetToolTip@@MAEXM@Z ENDP			; PetToolTip::OnProcess
_TEXT	ENDS
EXTRN	__imp_?GetDerivedPosY@ioWnd@@QBEHXZ:PROC
EXTRN	__imp_?GetDerivedPosX@ioWnd@@QBEHXZ:PROC
EXTRN	__imp_?OnRender@ioWnd@@MAEXXZ:PROC
; Function compile flags: /Ogsp
;	COMDAT ?OnRender@PetToolTip@@MAEXXZ
_TEXT	SEGMENT
?OnRender@PetToolTip@@MAEXXZ PROC			; PetToolTip::OnRender, COMDAT
; _this$ = ecx

; 77   : {

  00000	53		 push	 ebx
  00001	56		 push	 esi
  00002	57		 push	 edi
  00003	8b f9		 mov	 edi, ecx

; 78   : 	enum 
; 79   : 	{ 
; 80   : 		PRINT_XOFFSET = 12, 
; 81   : 		FIRST_YOFFSET = 79, 
; 82   : 		SECOND_YOFFSET = 168, 
; 83   : 	};
; 84   : 
; 85   : 	ioWnd::OnRender();

  00005	ff 15 00 00 00
	00		 call	 DWORD PTR __imp_?OnRender@ioWnd@@MAEXXZ

; 86   : 
; 87   : 	int nXPos = GetDerivedPosX();

  0000b	8b cf		 mov	 ecx, edi
  0000d	ff 15 00 00 00
	00		 call	 DWORD PTR __imp_?GetDerivedPosX@ioWnd@@QBEHXZ

; 88   : 	int nYPos = GetDerivedPosY();

  00013	8b cf		 mov	 ecx, edi
  00015	8b d8		 mov	 ebx, eax
  00017	ff 15 00 00 00
	00		 call	 DWORD PTR __imp_?GetDerivedPosY@ioWnd@@QBEHXZ
  0001d	8b f0		 mov	 esi, eax

; 89   : 
; 90   : 	RenderDesc( nXPos, nYPos );

  0001f	56		 push	 esi
  00020	53		 push	 ebx
  00021	8b cf		 mov	 ecx, edi
  00023	e8 00 00 00 00	 call	 ?RenderDesc@PetToolTip@@IAEXHH@Z ; PetToolTip::RenderDesc

; 91   : 	RenderGrowth( nXPos, nYPos + FIRST_YOFFSET );

  00028	8d 46 4f	 lea	 eax, DWORD PTR [esi+79]
  0002b	50		 push	 eax
  0002c	53		 push	 ebx
  0002d	8b cf		 mov	 ecx, edi
  0002f	e8 00 00 00 00	 call	 ?RenderGrowth@PetToolTip@@IAEXHH@Z ; PetToolTip::RenderGrowth

; 92   : 	PrintManual( nXPos+PRINT_XOFFSET, nYPos + SECOND_YOFFSET, FONT_SIZE_12 );

  00034	f3 0f 10 05 00
	00 00 00	 movss	 xmm0, DWORD PTR __real@3f19999a
  0003c	51		 push	 ecx
  0003d	f3 0f 11 04 24	 movss	 DWORD PTR [esp], xmm0
  00042	81 c6 a8 00 00
	00		 add	 esi, 168		; 000000a8H
  00048	56		 push	 esi
  00049	83 c3 0c	 add	 ebx, 12			; 0000000cH
  0004c	53		 push	 ebx
  0004d	8b cf		 mov	 ecx, edi
  0004f	e8 00 00 00 00	 call	 ?PrintManual@PetToolTip@@IAEXHHM@Z ; PetToolTip::PrintManual
  00054	5f		 pop	 edi
  00055	5e		 pop	 esi
  00056	5b		 pop	 ebx

; 93   : }

  00057	c3		 ret	 0
?OnRender@PetToolTip@@MAEXXZ ENDP			; PetToolTip::OnRender
_TEXT	ENDS
PUBLIC	_szType$GSCopy$
PUBLIC	_pImage$GSCopy$
PUBLIC	_this$GSCopy$
PUBLIC	__$ArrayPad$
EXTRN	__imp_?AddRenderImage@ioWnd@@UAEXABVioHashString@@PAVioUIRenderImage@@@Z:PROC
; Function compile flags: /Ogsp
;	COMDAT ?AddRenderImage@PetToolTip@@UAEXABVioHashString@@PAVioUIRenderImage@@@Z
_TEXT	SEGMENT
_szType$GSCopy$ = -32					; size = 4
_pImage$GSCopy$ = -28					; size = 4
_this$GSCopy$ = -24					; size = 4
__t$506319 = -20					; size = 9
__t$506194 = -20					; size = 10
__$ArrayPad$ = -4					; size = 4
_szType$ = 8						; size = 4
_pImage$ = 12						; size = 4
?AddRenderImage@PetToolTip@@UAEXABVioHashString@@PAVioUIRenderImage@@@Z PROC ; PetToolTip::AddRenderImage, COMDAT
; _this$ = ecx

; 96   : {

  00000	55		 push	 ebp
  00001	8b ec		 mov	 ebp, esp
  00003	83 ec 20	 sub	 esp, 32			; 00000020H
  00006	a1 00 00 00 00	 mov	 eax, DWORD PTR ___security_cookie
  0000b	33 c5		 xor	 eax, ebp
  0000d	89 45 fc	 mov	 DWORD PTR __$ArrayPad$[ebp], eax
  00010	8b 45 0c	 mov	 eax, DWORD PTR _pImage$[ebp]
  00013	8b 55 08	 mov	 edx, DWORD PTR _szType$[ebp]
  00016	53		 push	 ebx
  00017	56		 push	 esi
  00018	57		 push	 edi

; 97   : 	if( szType == "BottomImg" )

  00019	6a 02		 push	 2
  0001b	5b		 pop	 ebx
  0001c	89 4d e8	 mov	 DWORD PTR _this$GSCopy$[ebp], ecx

; 101  : 	}
; 102  : 	else if( szType == "IconBack" )

  0001f	89 45 e4	 mov	 DWORD PTR _pImage$GSCopy$[ebp], eax
  00022	89 55 e0	 mov	 DWORD PTR _szType$GSCopy$[ebp], edx
  00025	c7 45 ec af 83
	9f 9e		 mov	 DWORD PTR __t$506194[ebp], -1633713233 ; 9e9f83afH
  0002c	c7 45 f0 82 81
	a2 87		 mov	 DWORD PTR __t$506194[ebp+4], -2019393150 ; 87a28182H
  00033	8d 45 ec	 lea	 eax, DWORD PTR __t$506194[ebp]
  00036	66 c7 45 f4 8a
	00		 mov	 WORD PTR __t$506194[ebp+8], 138 ; 0000008aH
  0003c	8b cb		 mov	 ecx, ebx
  0003e	bf ed ec eb ea	 mov	 edi, -353637139		; eaebecedH
$LL116@AddRenderI:

; 97   : 	if( szType == "BottomImg" )

  00043	31 38		 xor	 DWORD PTR [eax], edi
  00045	83 c0 04	 add	 eax, 4
  00048	49		 dec	 ecx
  00049	75 f8		 jne	 SHORT $LL116@AddRenderI
  0004b	80 75 f4 ed	 xor	 BYTE PTR __t$506194[ebp+8], -19 ; ffffffedH
  0004f	8b ca		 mov	 ecx, edx
  00051	8d 75 ec	 lea	 esi, DWORD PTR __t$506194[ebp]
  00054	ff 15 00 00 00
	00		 call	 DWORD PTR __imp_?c_str@ioHashString@@QBEPBDXZ
$LL234@AddRenderI:
  0005a	8a 08		 mov	 cl, BYTE PTR [eax]
  0005c	3a 0e		 cmp	 cl, BYTE PTR [esi]
  0005e	75 18		 jne	 SHORT $LN235@AddRenderI
  00060	84 c9		 test	 cl, cl
  00062	74 10		 je	 SHORT $LN236@AddRenderI
  00064	8a 48 01	 mov	 cl, BYTE PTR [eax+1]
  00067	3a 4e 01	 cmp	 cl, BYTE PTR [esi+1]
  0006a	75 0c		 jne	 SHORT $LN235@AddRenderI
  0006c	03 c3		 add	 eax, ebx
  0006e	03 f3		 add	 esi, ebx
  00070	84 c9		 test	 cl, cl
  00072	75 e6		 jne	 SHORT $LL234@AddRenderI
$LN236@AddRenderI:
  00074	33 c0		 xor	 eax, eax
  00076	eb 05		 jmp	 SHORT $LN237@AddRenderI
$LN235@AddRenderI:
  00078	1b c0		 sbb	 eax, eax
  0007a	83 d8 ff	 sbb	 eax, -1
$LN237@AddRenderI:
  0007d	85 c0		 test	 eax, eax
  0007f	75 29		 jne	 SHORT $LN233@AddRenderI

; 98   : 	{
; 99   : 		SAFEDELETE( m_pBottomImg );

  00081	8b 75 e8	 mov	 esi, DWORD PTR _this$GSCopy$[ebp]
  00084	8b 8e 68 01 00
	00		 mov	 ecx, DWORD PTR [esi+360]
  0008a	85 c9		 test	 ecx, ecx
  0008c	74 0e		 je	 SHORT $LN5@AddRenderI
  0008e	8b 01		 mov	 eax, DWORD PTR [ecx]
  00090	6a 01		 push	 1
  00092	ff 50 40	 call	 DWORD PTR [eax+64]
  00095	83 a6 68 01 00
	00 00		 and	 DWORD PTR [esi+360], 0
$LN5@AddRenderI:

; 100  : 		m_pBottomImg = pImage;

  0009c	8b 45 e4	 mov	 eax, DWORD PTR _pImage$GSCopy$[ebp]
  0009f	89 86 68 01 00
	00		 mov	 DWORD PTR [esi+360], eax
  000a5	e9 87 00 00 00	 jmp	 $LN1@AddRenderI
$LN233@AddRenderI:

; 101  : 	}
; 102  : 	else if( szType == "IconBack" )

  000aa	c7 45 ec a4 8f
	84 84		 mov	 DWORD PTR __t$506319[ebp], -2071687260 ; 84848fa4H
  000b1	c7 45 f0 af 8d
	88 81		 mov	 DWORD PTR __t$506319[ebp+4], -2121757265 ; 81888dafH
  000b8	8d 45 ec	 lea	 eax, DWORD PTR __t$506319[ebp]
  000bb	c6 45 f4 00	 mov	 BYTE PTR __t$506319[ebp+8], 0
  000bf	8b cb		 mov	 ecx, ebx
$LL222@AddRenderI:
  000c1	31 38		 xor	 DWORD PTR [eax], edi
  000c3	83 c0 04	 add	 eax, 4
  000c6	49		 dec	 ecx
  000c7	75 f8		 jne	 SHORT $LL222@AddRenderI
  000c9	8b 4d e0	 mov	 ecx, DWORD PTR _szType$GSCopy$[ebp]
  000cc	8d 75 ec	 lea	 esi, DWORD PTR __t$506319[ebp]
  000cf	ff 15 00 00 00
	00		 call	 DWORD PTR __imp_?c_str@ioHashString@@QBEPBDXZ
$LL238@AddRenderI:
  000d5	8a 08		 mov	 cl, BYTE PTR [eax]
  000d7	3a 0e		 cmp	 cl, BYTE PTR [esi]
  000d9	75 18		 jne	 SHORT $LN239@AddRenderI
  000db	84 c9		 test	 cl, cl
  000dd	74 10		 je	 SHORT $LN240@AddRenderI
  000df	8a 48 01	 mov	 cl, BYTE PTR [eax+1]
  000e2	3a 4e 01	 cmp	 cl, BYTE PTR [esi+1]
  000e5	75 0c		 jne	 SHORT $LN239@AddRenderI
  000e7	03 c3		 add	 eax, ebx
  000e9	03 f3		 add	 esi, ebx
  000eb	84 c9		 test	 cl, cl
  000ed	75 e6		 jne	 SHORT $LL238@AddRenderI
$LN240@AddRenderI:
  000ef	33 c0		 xor	 eax, eax
  000f1	eb 05		 jmp	 SHORT $LN241@AddRenderI
$LN239@AddRenderI:
  000f3	1b c0		 sbb	 eax, eax
  000f5	83 d8 ff	 sbb	 eax, -1
$LN241@AddRenderI:
  000f8	85 c0		 test	 eax, eax
  000fa	75 26		 jne	 SHORT $LN3@AddRenderI

; 103  : 	{
; 104  : 		SAFEDELETE( m_pIconBack );

  000fc	8b 75 e8	 mov	 esi, DWORD PTR _this$GSCopy$[ebp]
  000ff	8b 8e 64 01 00
	00		 mov	 ecx, DWORD PTR [esi+356]
  00105	85 c9		 test	 ecx, ecx
  00107	74 0e		 je	 SHORT $LN2@AddRenderI
  00109	8b 01		 mov	 eax, DWORD PTR [ecx]
  0010b	6a 01		 push	 1
  0010d	ff 50 40	 call	 DWORD PTR [eax+64]
  00110	83 a6 64 01 00
	00 00		 and	 DWORD PTR [esi+356], 0
$LN2@AddRenderI:

; 105  : 		m_pIconBack = pImage;

  00117	8b 45 e4	 mov	 eax, DWORD PTR _pImage$GSCopy$[ebp]
  0011a	89 86 64 01 00
	00		 mov	 DWORD PTR [esi+356], eax

; 106  : 	}
; 107  : 	else

  00120	eb 0f		 jmp	 SHORT $LN1@AddRenderI
$LN3@AddRenderI:

; 108  : 		ioWnd::AddRenderImage( szType, pImage );	

  00122	ff 75 e4	 push	 DWORD PTR _pImage$GSCopy$[ebp]
  00125	8b 4d e8	 mov	 ecx, DWORD PTR _this$GSCopy$[ebp]
  00128	ff 75 e0	 push	 DWORD PTR _szType$GSCopy$[ebp]
  0012b	ff 15 00 00 00
	00		 call	 DWORD PTR __imp_?AddRenderImage@ioWnd@@UAEXABVioHashString@@PAVioUIRenderImage@@@Z
$LN1@AddRenderI:

; 109  : }

  00131	8b 4d fc	 mov	 ecx, DWORD PTR __$ArrayPad$[ebp]
  00134	5f		 pop	 edi
  00135	5e		 pop	 esi
  00136	33 cd		 xor	 ecx, ebp
  00138	5b		 pop	 ebx
  00139	e8 00 00 00 00	 call	 @__security_check_cookie@4
  0013e	c9		 leave
  0013f	c2 08 00	 ret	 8
?AddRenderImage@PetToolTip@@UAEXABVioHashString@@PAVioUIRenderImage@@@Z ENDP ; PetToolTip::AddRenderImage
_TEXT	ENDS
END
