; Listing generated by Microsoft (R) Optimizing Compiler Version 16.00.30319.01 

	TITLE	D:\Lost Saga For Developer\Youtube\Tutorial\Source\src\LSClient\GUI\PopUpStoreWnd.cpp
	.686P
	.XMM
	include listing.inc
	.model	flat

INCLUDELIB MSVCRT
INCLUDELIB OLDNAMES

PUBLIC	?value@?$is_bind_expression@PAVPopupStoreWnd@@@tr1@std@@2_NB ; std::tr1::is_bind_expression<PopupStoreWnd *>::value
PUBLIC	?value@?$is_placeholder@PAVPopupStoreWnd@@@tr1@std@@2HB ; std::tr1::is_placeholder<PopupStoreWnd *>::value
PUBLIC	?value@?$is_bind_expression@PAVPopupStoreSubWnd@@@tr1@std@@2_NB ; std::tr1::is_bind_expression<PopupStoreSubWnd *>::value
PUBLIC	?value@?$is_placeholder@PAVPopupStoreSubWnd@@@tr1@std@@2HB ; std::tr1::is_placeholder<PopupStoreSubWnd *>::value
;	COMDAT ?value@?$is_placeholder@PAVPopupStoreSubWnd@@@tr1@std@@2HB
CONST	SEGMENT
?value@?$is_placeholder@PAVPopupStoreSubWnd@@@tr1@std@@2HB DD 00H ; std::tr1::is_placeholder<PopupStoreSubWnd *>::value
CONST	ENDS
;	COMDAT ?value@?$is_bind_expression@PAVPopupStoreSubWnd@@@tr1@std@@2_NB
CONST	SEGMENT
?value@?$is_bind_expression@PAVPopupStoreSubWnd@@@tr1@std@@2_NB DB 00H ; std::tr1::is_bind_expression<PopupStoreSubWnd *>::value
CONST	ENDS
;	COMDAT ?value@?$is_placeholder@PAVPopupStoreWnd@@@tr1@std@@2HB
CONST	SEGMENT
?value@?$is_placeholder@PAVPopupStoreWnd@@@tr1@std@@2HB DD 00H ; std::tr1::is_placeholder<PopupStoreWnd *>::value
CONST	ENDS
;	COMDAT ?value@?$is_bind_expression@PAVPopupStoreWnd@@@tr1@std@@2_NB
CONST	SEGMENT
?value@?$is_bind_expression@PAVPopupStoreWnd@@@tr1@std@@2_NB DB 00H ; std::tr1::is_bind_expression<PopupStoreWnd *>::value
CONST	ENDS
PUBLIC	?SetSubPopup@PopupStoreWnd@@QAEX_N@Z		; PopupStoreWnd::SetSubPopup
; Function compile flags: /Ogsp
; File d:\lost saga for developer\youtube\tutorial\source\src\lsclient\gui\popupstorewnd.h
;	COMDAT ?SetSubPopup@PopupStoreWnd@@QAEX_N@Z
_TEXT	SEGMENT
_bSet$ = 8						; size = 1
?SetSubPopup@PopupStoreWnd@@QAEX_N@Z PROC		; PopupStoreWnd::SetSubPopup, COMDAT
; _this$ = ecx

; 152  : 	void SetSubPopup( bool bSet ) { m_bSubPopup = bSet; }

  00000	55		 push	 ebp
  00001	8b ec		 mov	 ebp, esp
  00003	8a 45 08	 mov	 al, BYTE PTR _bSet$[ebp]
  00006	88 81 0c 03 00
	00		 mov	 BYTE PTR [ecx+780], al
  0000c	5d		 pop	 ebp
  0000d	c2 04 00	 ret	 4
?SetSubPopup@PopupStoreWnd@@QAEX_N@Z ENDP		; PopupStoreWnd::SetSubPopup
_TEXT	ENDS
PUBLIC	??_7bad_alloc@std@@6B@				; std::bad_alloc::`vftable'
PUBLIC	??0bad_alloc@std@@QAE@PBD@Z			; std::bad_alloc::bad_alloc
PUBLIC	??_R4bad_alloc@std@@6B@				; std::bad_alloc::`RTTI Complete Object Locator'
PUBLIC	??_R0?AVbad_alloc@std@@@8			; std::bad_alloc `RTTI Type Descriptor'
PUBLIC	??_R3bad_alloc@std@@8				; std::bad_alloc::`RTTI Class Hierarchy Descriptor'
PUBLIC	??_R2bad_alloc@std@@8				; std::bad_alloc::`RTTI Base Class Array'
PUBLIC	??_R1A@?0A@EA@bad_alloc@std@@8			; std::bad_alloc::`RTTI Base Class Descriptor at (0,-1,0,64)'
PUBLIC	??_R1A@?0A@EA@exception@std@@8			; std::exception::`RTTI Base Class Descriptor at (0,-1,0,64)'
PUBLIC	??_R0?AVexception@std@@@8			; std::exception `RTTI Type Descriptor'
PUBLIC	??_R3exception@std@@8				; std::exception::`RTTI Class Hierarchy Descriptor'
PUBLIC	??_R2exception@std@@8				; std::exception::`RTTI Base Class Array'
EXTRN	__imp_??0exception@std@@QAE@ABQBD@Z:PROC
EXTRN	??_7type_info@@6B@:QWORD			; type_info::`vftable'
EXTRN	??_Ebad_alloc@std@@UAEPAXI@Z:PROC		; std::bad_alloc::`vector deleting destructor'
EXTRN	?what@exception@std@@UBEPBDXZ:PROC		; std::exception::what
;	COMDAT ??_R2exception@std@@8
; File c:\program files (x86)\microsoft visual studio 10.0\vc\include\exception
rdata$r	SEGMENT
??_R2exception@std@@8 DD FLAT:??_R1A@?0A@EA@exception@std@@8 ; std::exception::`RTTI Base Class Array'
rdata$r	ENDS
;	COMDAT ??_R3exception@std@@8
rdata$r	SEGMENT
??_R3exception@std@@8 DD 00H				; std::exception::`RTTI Class Hierarchy Descriptor'
	DD	00H
	DD	01H
	DD	FLAT:??_R2exception@std@@8
rdata$r	ENDS
;	COMDAT ??_R0?AVexception@std@@@8
_DATA	SEGMENT
??_R0?AVexception@std@@@8 DD FLAT:??_7type_info@@6B@	; std::exception `RTTI Type Descriptor'
	DD	00H
	DB	'.?AVexception@std@@', 00H
_DATA	ENDS
;	COMDAT ??_R1A@?0A@EA@exception@std@@8
rdata$r	SEGMENT
??_R1A@?0A@EA@exception@std@@8 DD FLAT:??_R0?AVexception@std@@@8 ; std::exception::`RTTI Base Class Descriptor at (0,-1,0,64)'
	DD	00H
	DD	00H
	DD	0ffffffffH
	DD	00H
	DD	040H
	DD	FLAT:??_R3exception@std@@8
rdata$r	ENDS
;	COMDAT ??_R1A@?0A@EA@bad_alloc@std@@8
rdata$r	SEGMENT
??_R1A@?0A@EA@bad_alloc@std@@8 DD FLAT:??_R0?AVbad_alloc@std@@@8 ; std::bad_alloc::`RTTI Base Class Descriptor at (0,-1,0,64)'
	DD	01H
	DD	00H
	DD	0ffffffffH
	DD	00H
	DD	040H
	DD	FLAT:??_R3bad_alloc@std@@8
rdata$r	ENDS
;	COMDAT ??_R2bad_alloc@std@@8
rdata$r	SEGMENT
??_R2bad_alloc@std@@8 DD FLAT:??_R1A@?0A@EA@bad_alloc@std@@8 ; std::bad_alloc::`RTTI Base Class Array'
	DD	FLAT:??_R1A@?0A@EA@exception@std@@8
rdata$r	ENDS
;	COMDAT ??_R3bad_alloc@std@@8
rdata$r	SEGMENT
??_R3bad_alloc@std@@8 DD 00H				; std::bad_alloc::`RTTI Class Hierarchy Descriptor'
	DD	00H
	DD	02H
	DD	FLAT:??_R2bad_alloc@std@@8
rdata$r	ENDS
;	COMDAT ??_R0?AVbad_alloc@std@@@8
_DATA	SEGMENT
??_R0?AVbad_alloc@std@@@8 DD FLAT:??_7type_info@@6B@	; std::bad_alloc `RTTI Type Descriptor'
	DD	00H
	DB	'.?AVbad_alloc@std@@', 00H
_DATA	ENDS
;	COMDAT ??_R4bad_alloc@std@@6B@
rdata$r	SEGMENT
??_R4bad_alloc@std@@6B@ DD 00H				; std::bad_alloc::`RTTI Complete Object Locator'
	DD	00H
	DD	00H
	DD	FLAT:??_R0?AVbad_alloc@std@@@8
	DD	FLAT:??_R3bad_alloc@std@@8
rdata$r	ENDS
;	COMDAT ??_7bad_alloc@std@@6B@
CONST	SEGMENT
??_7bad_alloc@std@@6B@ DD FLAT:??_R4bad_alloc@std@@6B@	; std::bad_alloc::`vftable'
	DD	FLAT:??_Ebad_alloc@std@@UAEPAXI@Z
	DD	FLAT:?what@exception@std@@UBEPBDXZ
; Function compile flags: /Ogsp
CONST	ENDS
;	COMDAT ??0bad_alloc@std@@QAE@PBD@Z
_TEXT	SEGMENT
__Message$ = 8						; size = 4
??0bad_alloc@std@@QAE@PBD@Z PROC			; std::bad_alloc::bad_alloc, COMDAT
; _this$ = ecx

; 345  : 		{	// construct from message string

  00000	55		 push	 ebp
  00001	8b ec		 mov	 ebp, esp
  00003	56		 push	 esi
  00004	8d 45 08	 lea	 eax, DWORD PTR __Message$[ebp]
  00007	50		 push	 eax
  00008	8b f1		 mov	 esi, ecx
  0000a	ff 15 00 00 00
	00		 call	 DWORD PTR __imp_??0exception@std@@QAE@ABQBD@Z
  00010	c7 06 00 00 00
	00		 mov	 DWORD PTR [esi], OFFSET ??_7bad_alloc@std@@6B@

; 346  : 		}

  00016	8b c6		 mov	 eax, esi
  00018	5e		 pop	 esi
  00019	5d		 pop	 ebp
  0001a	c2 04 00	 ret	 4
??0bad_alloc@std@@QAE@PBD@Z ENDP			; std::bad_alloc::bad_alloc
_TEXT	ENDS
PUBLIC	??1bad_alloc@std@@UAE@XZ			; std::bad_alloc::~bad_alloc
EXTRN	__imp_??1exception@std@@UAE@XZ:PROC
; Function compile flags: /Ogsp
;	COMDAT ??1bad_alloc@std@@UAE@XZ
_TEXT	SEGMENT
??1bad_alloc@std@@UAE@XZ PROC				; std::bad_alloc::~bad_alloc, COMDAT
; _this$ = ecx

; 354  : 		{	// destroy the object

  00000	c7 01 00 00 00
	00		 mov	 DWORD PTR [ecx], OFFSET ??_7bad_alloc@std@@6B@

; 355  : 		}

  00006	ff 25 00 00 00
	00		 jmp	 DWORD PTR __imp_??1exception@std@@UAE@XZ
??1bad_alloc@std@@UAE@XZ ENDP				; std::bad_alloc::~bad_alloc
_TEXT	ENDS
PUBLIC	??1ioINILoader_e@@QAE@XZ			; ioINILoader_e::~ioINILoader_e
EXTRN	__imp_??1ioINILoader@@QAE@XZ:PROC
; Function compile flags: /Ogsp
;	COMDAT ??1ioINILoader_e@@QAE@XZ
_TEXT	SEGMENT
??1ioINILoader_e@@QAE@XZ PROC				; ioINILoader_e::~ioINILoader_e, COMDAT
; _this$ = ecx
  00000	ff 25 00 00 00
	00		 jmp	 DWORD PTR __imp_??1ioINILoader@@QAE@XZ
??1ioINILoader_e@@QAE@XZ ENDP				; ioINILoader_e::~ioINILoader_e
_TEXT	ENDS
EXTRN	??3@YAXPAX@Z:PROC				; operator delete
; Function compile flags: /Ogsp
;	COMDAT ??_Gbad_alloc@std@@UAEPAXI@Z
_TEXT	SEGMENT
___flags$ = 8						; size = 4
??_Gbad_alloc@std@@UAEPAXI@Z PROC			; std::bad_alloc::`scalar deleting destructor', COMDAT
; _this$ = ecx
  00000	55		 push	 ebp
  00001	8b ec		 mov	 ebp, esp
  00003	56		 push	 esi
  00004	8b f1		 mov	 esi, ecx
  00006	c7 06 00 00 00
	00		 mov	 DWORD PTR [esi], OFFSET ??_7bad_alloc@std@@6B@
  0000c	ff 15 00 00 00
	00		 call	 DWORD PTR __imp_??1exception@std@@UAE@XZ
  00012	f6 45 08 01	 test	 BYTE PTR ___flags$[ebp], 1
  00016	74 07		 je	 SHORT $LN1@scalar
  00018	56		 push	 esi
  00019	e8 00 00 00 00	 call	 ??3@YAXPAX@Z		; operator delete
  0001e	59		 pop	 ecx
$LN1@scalar:
  0001f	8b c6		 mov	 eax, esi
  00021	5e		 pop	 esi
  00022	5d		 pop	 ebp
  00023	c2 04 00	 ret	 4
??_Gbad_alloc@std@@UAEPAXI@Z ENDP			; std::bad_alloc::`scalar deleting destructor'
_TEXT	ENDS
PUBLIC	?iwm_hide@PopupStoreWnd@@UAEXXZ			; PopupStoreWnd::iwm_hide
EXTRN	__imp_?Stop@ioUI3DEffectRender@@QAEXXZ:PROC
; Function compile flags: /Ogsp
; File d:\lost saga for developer\youtube\tutorial\source\src\lsclient\gui\popupstorewnd.cpp
;	COMDAT ?iwm_hide@PopupStoreWnd@@UAEXXZ
_TEXT	SEGMENT
?iwm_hide@PopupStoreWnd@@UAEXXZ PROC			; PopupStoreWnd::iwm_hide, COMDAT
; _this$ = ecx

; 169  : {

  00000	56		 push	 esi
  00001	57		 push	 edi

; 170  : 	for( int i = 0; i < eEffectMax; ++i )

  00002	6a 04		 push	 4
  00004	8d b1 b8 01 00
	00		 lea	 esi, DWORD PTR [ecx+440]
  0000a	5f		 pop	 edi
$LL3@iwm_hide:

; 171  : 		m_pEffectItem[i]->Stop();

  0000b	8b 0e		 mov	 ecx, DWORD PTR [esi]
  0000d	ff 15 00 00 00
	00		 call	 DWORD PTR __imp_?Stop@ioUI3DEffectRender@@QAEXXZ
  00013	83 c6 04	 add	 esi, 4
  00016	4f		 dec	 edi
  00017	75 f2		 jne	 SHORT $LL3@iwm_hide

; 172  : }

  00019	5f		 pop	 edi
  0001a	5e		 pop	 esi
  0001b	c3		 ret	 0
?iwm_hide@PopupStoreWnd@@UAEXXZ ENDP			; PopupStoreWnd::iwm_hide
_TEXT	ENDS
PUBLIC	?OnRender@PopupStoreWnd@@MAEXXZ			; PopupStoreWnd::OnRender
EXTRN	__imp_?OnRender@ioWnd@@MAEXXZ:PROC
; Function compile flags: /Ogsp
;	COMDAT ?OnRender@PopupStoreWnd@@MAEXXZ
_TEXT	SEGMENT
?OnRender@PopupStoreWnd@@MAEXXZ PROC			; PopupStoreWnd::OnRender, COMDAT
; _this$ = ecx

; 176  : 	ioWnd::OnRender();

  00000	ff 25 00 00 00
	00		 jmp	 DWORD PTR __imp_?OnRender@ioWnd@@MAEXXZ
?OnRender@PopupStoreWnd@@MAEXXZ ENDP			; PopupStoreWnd::OnRender
_TEXT	ENDS
PUBLIC	??_C@_0BL@CBLGPPDM@interface?2pet?2compound?4wav?$AA@ ; `string'
PUBLIC	?iwm_show@PopupStoreWnd@@UAEXXZ			; PopupStoreWnd::iwm_show
EXTRN	__imp_??1ioHashString@@QAE@XZ:PROC
EXTRN	__imp_?PlaySoundA@ioSoundManager@@QAEKABVioHashString@@HK@Z:PROC
EXTRN	__imp_?GetSingleton@ioSoundManager@@SAAAV1@XZ:PROC
EXTRN	__imp_??0ioHashString@@QAE@PBD@Z:PROC
EXTRN	__imp_?Start@ioUI3DEffectRender@@QAEXXZ:PROC
EXTRN	__imp_?HideWnd@ioWnd@@QAEXXZ:PROC
EXTRN	__imp_?FindChildWnd@ioWnd@@QAEPAV1@K@Z:PROC
EXTRN	__imp_?GetLoopSec@ioFrameTimer@@QBEKXZ:PROC
EXTRN	__imp_?GetSingleton@ioFrameTimer@@SAAAV1@XZ:PROC
EXTRN	__imp_?SetWndPos@ioWnd@@QAEXHH@Z:PROC
EXTRN	__imp_?GetHeight@ioWnd@@QBEHXZ:PROC
EXTRN	__imp_?GetWidth@ioWnd@@QBEHXZ:PROC
EXTRN	?Height@Setting@@SAHXZ:PROC			; Setting::Height
EXTRN	?Width@Setting@@SAHXZ:PROC			; Setting::Width
EXTRN	___CxxFrameHandler3:PROC
EXTRN	@__security_check_cookie@4:PROC
EXTRN	__EH_epilog3:PROC
EXTRN	__EH_prolog3:PROC
;	COMDAT ??_C@_0BL@CBLGPPDM@interface?2pet?2compound?4wav?$AA@
CONST	SEGMENT
??_C@_0BL@CBLGPPDM@interface?2pet?2compound?4wav?$AA@ DB 'interface\pet\c'
	DB	'ompound.wav', 00H				; `string'
CONST	ENDS
;	COMDAT xdata$x
xdata$x	SEGMENT
__unwindtable$?iwm_show@PopupStoreWnd@@UAEXXZ DD 0ffffffffH
	DD	FLAT:__unwindfunclet$?iwm_show@PopupStoreWnd@@UAEXXZ$0
__ehfuncinfo$?iwm_show@PopupStoreWnd@@UAEXXZ DD 019930522H
	DD	01H
	DD	FLAT:__unwindtable$?iwm_show@PopupStoreWnd@@UAEXXZ
	DD	2 DUP(00H)
	DD	2 DUP(00H)
	DD	00H
	DD	01H
; Function compile flags: /Ogsp
xdata$x	ENDS
;	COMDAT ?iwm_show@PopupStoreWnd@@UAEXXZ
_TEXT	SEGMENT
$T514198 = -36						; size = 16
_iHeight$ = -20						; size = 4
_iWidth$ = -16						; size = 4
__$EHRec$ = -12						; size = 12
?iwm_show@PopupStoreWnd@@UAEXXZ PROC			; PopupStoreWnd::iwm_show, COMDAT
; _this$ = ecx

; 180  : {

  00000	6a 18		 push	 24			; 00000018H
  00002	b8 00 00 00 00	 mov	 eax, __ehhandler$?iwm_show@PopupStoreWnd@@UAEXXZ
  00007	e8 00 00 00 00	 call	 __EH_prolog3
  0000c	8b f1		 mov	 esi, ecx

; 181  : 	// 보여질때 윈도우 정렬
; 182  : 	int iWidth = Setting::Width();

  0000e	e8 00 00 00 00	 call	 ?Width@Setting@@SAHXZ	; Setting::Width
  00013	89 45 f0	 mov	 DWORD PTR _iWidth$[ebp], eax

; 183  : 	int iHeight = Setting::Height();

  00016	e8 00 00 00 00	 call	 ?Height@Setting@@SAHXZ	; Setting::Height

; 184  : 
; 185  : 	if( iWidth == 0 || iHeight == 0 )

  0001b	83 7d f0 00	 cmp	 DWORD PTR _iWidth$[ebp], 0
  0001f	89 45 ec	 mov	 DWORD PTR _iHeight$[ebp], eax
  00022	0f 84 b5 00 00
	00		 je	 $LN2@iwm_show
  00028	85 c0		 test	 eax, eax
  0002a	0f 84 ad 00 00
	00		 je	 $LN2@iwm_show

; 186  : 		return;
; 187  : 
; 188  : 	int iHalfX = GetWidth() / 2;

  00030	8b ce		 mov	 ecx, esi
  00032	ff 15 00 00 00
	00		 call	 DWORD PTR __imp_?GetWidth@ioWnd@@QBEHXZ
  00038	99		 cdq
  00039	2b c2		 sub	 eax, edx
  0003b	8b f8		 mov	 edi, eax

; 189  : 	int iHalfY = GetHeight() / 2;

  0003d	8b ce		 mov	 ecx, esi
  0003f	d1 ff		 sar	 edi, 1
  00041	ff 15 00 00 00
	00		 call	 DWORD PTR __imp_?GetHeight@ioWnd@@QBEHXZ
  00047	99		 cdq
  00048	2b c2		 sub	 eax, edx
  0004a	8b d8		 mov	 ebx, eax

; 190  : 
; 191  : 	int XPos = (iWidth/2) - iHalfX;

  0004c	8b 45 f0	 mov	 eax, DWORD PTR _iWidth$[ebp]
  0004f	99		 cdq
  00050	2b c2		 sub	 eax, edx
  00052	8b c8		 mov	 ecx, eax

; 192  : 	int YPos = (iHeight/2) - iHalfY;

  00054	8b 45 ec	 mov	 eax, DWORD PTR _iHeight$[ebp]
  00057	99		 cdq
  00058	2b c2		 sub	 eax, edx
  0005a	d1 f8		 sar	 eax, 1
  0005c	d1 fb		 sar	 ebx, 1
  0005e	d1 f9		 sar	 ecx, 1
  00060	2b c3		 sub	 eax, ebx
  00062	2b cf		 sub	 ecx, edi

; 193  : 
; 194  : 	SetWndPos( XPos, YPos );

  00064	50		 push	 eax
  00065	51		 push	 ecx
  00066	8b ce		 mov	 ecx, esi
  00068	ff 15 00 00 00
	00		 call	 DWORD PTR __imp_?SetWndPos@ioWnd@@QAEXHH@Z

; 195  : 
; 196  : 	m_dwShowStartTime = FRAMEGETTIME();

  0006e	ff 15 00 00 00
	00		 call	 DWORD PTR __imp_?GetSingleton@ioFrameTimer@@SAAAV1@XZ
  00074	8b c8		 mov	 ecx, eax
  00076	ff 15 00 00 00
	00		 call	 DWORD PTR __imp_?GetLoopSec@ioFrameTimer@@QBEKXZ

; 197  : 	
; 198  : 	ioWnd* pBaseWnd = FindChildWnd(eID_BASE);

  0007c	33 ff		 xor	 edi, edi
  0007e	57		 push	 edi
  0007f	8b ce		 mov	 ecx, esi
  00081	89 86 1c 03 00
	00		 mov	 DWORD PTR [esi+796], eax
  00087	ff 15 00 00 00
	00		 call	 DWORD PTR __imp_?FindChildWnd@ioWnd@@QAEPAV1@K@Z

; 199  : 	pBaseWnd->HideWnd();

  0008d	8b c8		 mov	 ecx, eax
  0008f	ff 15 00 00 00
	00		 call	 DWORD PTR __imp_?HideWnd@ioWnd@@QAEXXZ

; 200  : 
; 201  : 	m_pEffectItem[eEffectSub]->Start();

  00095	8b 8e c4 01 00
	00		 mov	 ecx, DWORD PTR [esi+452]
  0009b	ff 15 00 00 00
	00		 call	 DWORD PTR __imp_?Start@ioUI3DEffectRender@@QAEXXZ

; 202  : 	if( m_bSubPopup )

  000a1	80 be 0c 03 00
	00 00		 cmp	 BYTE PTR [esi+780], 0
  000a8	74 33		 je	 SHORT $LN2@iwm_show

; 203  : 		g_SoundMgr.PlaySound( "interface\\pet\\compound.wav" );

  000aa	68 00 00 00 00	 push	 OFFSET ??_C@_0BL@CBLGPPDM@interface?2pet?2compound?4wav?$AA@
  000af	8d 4d dc	 lea	 ecx, DWORD PTR $T514198[ebp]
  000b2	ff 15 00 00 00
	00		 call	 DWORD PTR __imp_??0ioHashString@@QAE@PBD@Z
  000b8	6a 04		 push	 4
  000ba	8d 45 dc	 lea	 eax, DWORD PTR $T514198[ebp]
  000bd	57		 push	 edi
  000be	50		 push	 eax
  000bf	89 7d fc	 mov	 DWORD PTR __$EHRec$[ebp+8], edi
  000c2	ff 15 00 00 00
	00		 call	 DWORD PTR __imp_?GetSingleton@ioSoundManager@@SAAAV1@XZ
  000c8	8b c8		 mov	 ecx, eax
  000ca	ff 15 00 00 00
	00		 call	 DWORD PTR __imp_?PlaySoundA@ioSoundManager@@QAEKABVioHashString@@HK@Z
  000d0	83 4d fc ff	 or	 DWORD PTR __$EHRec$[ebp+8], -1
  000d4	8d 4d dc	 lea	 ecx, DWORD PTR $T514198[ebp]
  000d7	ff 15 00 00 00
	00		 call	 DWORD PTR __imp_??1ioHashString@@QAE@XZ
$LN2@iwm_show:

; 204  : }

  000dd	e8 00 00 00 00	 call	 __EH_epilog3
  000e2	c3		 ret	 0
_TEXT	ENDS
;	COMDAT text$x
text$x	SEGMENT
__unwindfunclet$?iwm_show@PopupStoreWnd@@UAEXXZ$0:
  00000	8d 4d dc	 lea	 ecx, DWORD PTR $T514198[ebp]
  00003	ff 25 00 00 00
	00		 jmp	 DWORD PTR __imp_??1ioHashString@@QAE@XZ
__ehhandler$?iwm_show@PopupStoreWnd@@UAEXXZ:
  00009	8b 54 24 08	 mov	 edx, DWORD PTR [esp+8]
  0000d	8d 42 0c	 lea	 eax, DWORD PTR [edx+12]
  00010	8b 4a d8	 mov	 ecx, DWORD PTR [edx-40]
  00013	33 c8		 xor	 ecx, eax
  00015	e8 00 00 00 00	 call	 @__security_check_cookie@4
  0001a	b8 00 00 00 00	 mov	 eax, OFFSET __ehfuncinfo$?iwm_show@PopupStoreWnd@@UAEXXZ
  0001f	e9 00 00 00 00	 jmp	 ___CxxFrameHandler3
text$x	ENDS
?iwm_show@PopupStoreWnd@@UAEXXZ ENDP			; PopupStoreWnd::iwm_show
PUBLIC	?OnBtnBuy@PopupStoreWnd@@QAEHXZ			; PopupStoreWnd::OnBtnBuy
EXTRN	?SetMsgBox@ioSP2GUIManager@@QAAXHPAVioWnd@@PBDZZ:PROC ; ioSP2GUIManager::SetMsgBox
EXTRN	__imp_?c_str@ioHashString@@QBEPBDXZ:PROC
EXTRN	__imp_?ShowWnd@ioGUIManager@@QAEXK_N@Z:PROC
EXTRN	?GetSingleton@ioSP2GUIManager@@SAAAV1@XZ:PROC	; ioSP2GUIManager::GetSingleton
EXTRN	?GetTotalCash@ioMyInfo@@QAEHXZ:PROC		; ioMyInfo::GetTotalCash
EXTRN	?GetSingleton@ioMyInfo@@SAAAV1@XZ:PROC		; ioMyInfo::GetSingleton
; Function compile flags: /Ogsp
;	COMDAT ?OnBtnBuy@PopupStoreWnd@@QAEHXZ
_TEXT	SEGMENT
?OnBtnBuy@PopupStoreWnd@@QAEHXZ PROC			; PopupStoreWnd::OnBtnBuy, COMDAT
; _this$ = ecx

; 224  : {

  00000	56		 push	 esi
  00001	8b f1		 mov	 esi, ecx

; 225  : 	// 돈검사 해서
; 226  : 	if( g_MyInfo.GetTotalCash() < m_OnPopupItemInfo.iCash )

  00003	e8 00 00 00 00	 call	 ?GetSingleton@ioMyInfo@@SAAAV1@XZ ; ioMyInfo::GetSingleton
  00008	8b c8		 mov	 ecx, eax
  0000a	e8 00 00 00 00	 call	 ?GetTotalCash@ioMyInfo@@QAEHXZ ; ioMyInfo::GetTotalCash
  0000f	3b 86 34 03 00
	00		 cmp	 eax, DWORD PTR [esi+820]
  00015	7d 16		 jge	 SHORT $LN1@OnBtnBuy

; 227  : 	{
; 228  : 		g_GUIMgr.ShowWnd( BILLING_WANT_WND );

  00017	6a 00		 push	 0
  00019	68 ba 17 00 00	 push	 6074			; 000017baH
  0001e	e8 00 00 00 00	 call	 ?GetSingleton@ioSP2GUIManager@@SAAAV1@XZ ; ioSP2GUIManager::GetSingleton
  00023	8b c8		 mov	 ecx, eax
  00025	ff 15 00 00 00
	00		 call	 DWORD PTR __imp_?ShowWnd@ioGUIManager@@QAEXK_N@Z

; 229  : 		return 1;

  0002b	eb 28		 jmp	 SHORT $LN4@OnBtnBuy
$LN1@OnBtnBuy:

; 230  : 	}
; 231  : 
; 232  : 	m_iMsgType = eMsgRealBuy;
; 233  : 	g_GUIMgr.SetMsgBox( MB_YESNO, this, m_szRealBuy.c_str() );

  0002d	8d 8e ec 01 00
	00		 lea	 ecx, DWORD PTR [esi+492]
  00033	c7 86 14 03 00
	00 01 00 00 00	 mov	 DWORD PTR [esi+788], 1
  0003d	ff 15 00 00 00
	00		 call	 DWORD PTR __imp_?c_str@ioHashString@@QBEPBDXZ
  00043	50		 push	 eax
  00044	56		 push	 esi
  00045	6a 04		 push	 4
  00047	e8 00 00 00 00	 call	 ?GetSingleton@ioSP2GUIManager@@SAAAV1@XZ ; ioSP2GUIManager::GetSingleton
  0004c	50		 push	 eax
  0004d	e8 00 00 00 00	 call	 ?SetMsgBox@ioSP2GUIManager@@QAAXHPAVioWnd@@PBDZZ ; ioSP2GUIManager::SetMsgBox
  00052	83 c4 10	 add	 esp, 16			; 00000010H
$LN4@OnBtnBuy:

; 234  : 
; 235  : 	return 1;

  00055	33 c0		 xor	 eax, eax
  00057	40		 inc	 eax
  00058	5e		 pop	 esi

; 236  : }

  00059	c3		 ret	 0
?OnBtnBuy@PopupStoreWnd@@QAEHXZ ENDP			; PopupStoreWnd::OnBtnBuy
_TEXT	ENDS
PUBLIC	??2@YAPAXIPAX@Z					; operator new
; Function compile flags: /Ogsp
; File c:\program files (x86)\microsoft visual studio 10.0\vc\include\new
;	COMDAT ??2@YAPAXIPAX@Z
_TEXT	SEGMENT
___formal$ = 8						; size = 4
__Where$ = 12						; size = 4
??2@YAPAXIPAX@Z PROC					; operator new, COMDAT

; 56   : 	{	// construct array with placement at _Where

  00000	55		 push	 ebp
  00001	8b ec		 mov	 ebp, esp

; 57   : 	return (_Where);

  00003	8b 45 0c	 mov	 eax, DWORD PTR __Where$[ebp]

; 58   : 	}

  00006	5d		 pop	 ebp
  00007	c3		 ret	 0
??2@YAPAXIPAX@Z ENDP					; operator new
_TEXT	ENDS
PUBLIC	??3@YAXPAX0@Z					; operator delete
; Function compile flags: /Ogsp
;	COMDAT ??3@YAXPAX0@Z
_TEXT	SEGMENT
___formal$ = 8						; size = 4
___formal$ = 12						; size = 4
??3@YAXPAX0@Z PROC					; operator delete, COMDAT

; 62   : 	}

  00000	c3		 ret	 0
??3@YAXPAX0@Z ENDP					; operator delete
_TEXT	ENDS
PUBLIC	?OnUpdatePresentIconText@PopupStoreWnd@@IAEXXZ	; PopupStoreWnd::OnUpdatePresentIconText
EXTRN	__imp_??4ioHashString@@QAEAAV0@ABV0@@Z:PROC
EXTRN	?GetPresentIconText@ioPresentMgr@@QAEABVioHashString@@FHH@Z:PROC ; ioPresentMgr::GetPresentIconText
EXTRN	?GetSingleton@ioPresentMgr@@SAAAV1@XZ:PROC	; ioPresentMgr::GetSingleton
; Function compile flags: /Ogsp
; File d:\lost saga for developer\youtube\tutorial\source\src\lsclient\gui\popupstorewnd.cpp
;	COMDAT ?OnUpdatePresentIconText@PopupStoreWnd@@IAEXXZ
_TEXT	SEGMENT
?OnUpdatePresentIconText@PopupStoreWnd@@IAEXXZ PROC	; PopupStoreWnd::OnUpdatePresentIconText, COMDAT
; _this$ = ecx

; 284  : {

  00000	56		 push	 esi
  00001	8b f1		 mov	 esi, ecx

; 285  : 	int iPresentType = m_OnPopupItemInfo.iPresentType;
; 286  : 	int iPresentValue1 = m_OnPopupItemInfo.iPresentValue1;
; 287  : 	int iPresentValue2 = m_OnPopupItemInfo.iPresentValue2;
; 288  : 
; 289  : 	m_szIconName = g_PresentMgr.GetPresentIconText( (short)iPresentType, iPresentValue1, iPresentValue2 );

  00003	ff b6 30 03 00
	00		 push	 DWORD PTR [esi+816]
  00009	8b 8e 2c 03 00
	00		 mov	 ecx, DWORD PTR [esi+812]
  0000f	8b 86 28 03 00
	00		 mov	 eax, DWORD PTR [esi+808]
  00015	51		 push	 ecx
  00016	50		 push	 eax
  00017	e8 00 00 00 00	 call	 ?GetSingleton@ioPresentMgr@@SAAAV1@XZ ; ioPresentMgr::GetSingleton
  0001c	8b c8		 mov	 ecx, eax
  0001e	e8 00 00 00 00	 call	 ?GetPresentIconText@ioPresentMgr@@QAEABVioHashString@@FHH@Z ; ioPresentMgr::GetPresentIconText
  00023	50		 push	 eax
  00024	8d 8e cc 02 00
	00		 lea	 ecx, DWORD PTR [esi+716]
  0002a	ff 15 00 00 00
	00		 call	 DWORD PTR __imp_??4ioHashString@@QAEAAV0@ABV0@@Z
  00030	5e		 pop	 esi

; 290  : }

  00031	c3		 ret	 0
?OnUpdatePresentIconText@PopupStoreWnd@@IAEXXZ ENDP	; PopupStoreWnd::OnUpdatePresentIconText
_TEXT	ENDS
PUBLIC	?OnUpdatePresentText@PopupStoreWnd@@IAEXXZ	; PopupStoreWnd::OnUpdatePresentText
EXTRN	?GetPresentValue1Text@ioPresentMgr@@QAEABVioHashString@@FHH@Z:PROC ; ioPresentMgr::GetPresentValue1Text
EXTRN	__imp_??0ioHashString@@QAE@XZ:PROC
;	COMDAT xdata$x
xdata$x	SEGMENT
__unwindtable$?OnUpdatePresentText@PopupStoreWnd@@IAEXXZ DD 0ffffffffH
	DD	FLAT:__unwindfunclet$?OnUpdatePresentText@PopupStoreWnd@@IAEXXZ$0
__ehfuncinfo$?OnUpdatePresentText@PopupStoreWnd@@IAEXXZ DD 019930522H
	DD	01H
	DD	FLAT:__unwindtable$?OnUpdatePresentText@PopupStoreWnd@@IAEXXZ
	DD	2 DUP(00H)
	DD	2 DUP(00H)
	DD	00H
	DD	01H
; Function compile flags: /Ogsp
xdata$x	ENDS
;	COMDAT ?OnUpdatePresentText@PopupStoreWnd@@IAEXXZ
_TEXT	SEGMENT
_szReturn$ = -28					; size = 16
__$EHRec$ = -12						; size = 12
?OnUpdatePresentText@PopupStoreWnd@@IAEXXZ PROC		; PopupStoreWnd::OnUpdatePresentText, COMDAT
; _this$ = ecx

; 293  : {

  00000	6a 10		 push	 16			; 00000010H
  00002	b8 00 00 00 00	 mov	 eax, __ehhandler$?OnUpdatePresentText@PopupStoreWnd@@IAEXXZ
  00007	e8 00 00 00 00	 call	 __EH_prolog3
  0000c	8b f1		 mov	 esi, ecx

; 294  : 	ioHashString szReturn;

  0000e	8d 4d e4	 lea	 ecx, DWORD PTR _szReturn$[ebp]
  00011	ff 15 00 00 00
	00		 call	 DWORD PTR __imp_??0ioHashString@@QAE@XZ

; 295  : 
; 296  : 	int iPresentType = m_OnPopupItemInfo.iPresentType;
; 297  : 	int iPresentValue1 = m_OnPopupItemInfo.iPresentValue1;
; 298  : 	int iPresentValue2 = m_OnPopupItemInfo.iPresentValue2;
; 299  : 
; 300  : 	m_szTitle = g_PresentMgr.GetPresentValue1Text( (short)iPresentType, iPresentValue1, iPresentValue2 );

  00017	ff b6 30 03 00
	00		 push	 DWORD PTR [esi+816]
  0001d	8b 8e 2c 03 00
	00		 mov	 ecx, DWORD PTR [esi+812]
  00023	8b 86 28 03 00
	00		 mov	 eax, DWORD PTR [esi+808]
  00029	83 65 fc 00	 and	 DWORD PTR __$EHRec$[ebp+8], 0
  0002d	51		 push	 ecx
  0002e	50		 push	 eax
  0002f	e8 00 00 00 00	 call	 ?GetSingleton@ioPresentMgr@@SAAAV1@XZ ; ioPresentMgr::GetSingleton
  00034	8b c8		 mov	 ecx, eax
  00036	e8 00 00 00 00	 call	 ?GetPresentValue1Text@ioPresentMgr@@QAEABVioHashString@@FHH@Z ; ioPresentMgr::GetPresentValue1Text
  0003b	50		 push	 eax
  0003c	8d 8e ac 02 00
	00		 lea	 ecx, DWORD PTR [esi+684]
  00042	ff 15 00 00 00
	00		 call	 DWORD PTR __imp_??4ioHashString@@QAEAAV0@ABV0@@Z

; 301  : }

  00048	83 4d fc ff	 or	 DWORD PTR __$EHRec$[ebp+8], -1
  0004c	8d 4d e4	 lea	 ecx, DWORD PTR _szReturn$[ebp]
  0004f	ff 15 00 00 00
	00		 call	 DWORD PTR __imp_??1ioHashString@@QAE@XZ
  00055	e8 00 00 00 00	 call	 __EH_epilog3
  0005a	c3		 ret	 0
_TEXT	ENDS
;	COMDAT text$x
text$x	SEGMENT
__unwindfunclet$?OnUpdatePresentText@PopupStoreWnd@@IAEXXZ$0:
  00000	8d 4d e4	 lea	 ecx, DWORD PTR _szReturn$[ebp]
  00003	ff 25 00 00 00
	00		 jmp	 DWORD PTR __imp_??1ioHashString@@QAE@XZ
__ehhandler$?OnUpdatePresentText@PopupStoreWnd@@IAEXXZ:
  00009	8b 54 24 08	 mov	 edx, DWORD PTR [esp+8]
  0000d	8d 42 0c	 lea	 eax, DWORD PTR [edx+12]
  00010	8b 4a e0	 mov	 ecx, DWORD PTR [edx-32]
  00013	33 c8		 xor	 ecx, eax
  00015	e8 00 00 00 00	 call	 @__security_check_cookie@4
  0001a	b8 00 00 00 00	 mov	 eax, OFFSET __ehfuncinfo$?OnUpdatePresentText@PopupStoreWnd@@IAEXXZ
  0001f	e9 00 00 00 00	 jmp	 ___CxxFrameHandler3
text$x	ENDS
?OnUpdatePresentText@PopupStoreWnd@@IAEXXZ ENDP		; PopupStoreWnd::OnUpdatePresentText
PUBLIC	?OnUpdatePresentText2@PopupStoreWnd@@IAEXXZ	; PopupStoreWnd::OnUpdatePresentText2
EXTRN	?GetPresentValue2Text@ioPresentMgr@@QAEABVioHashString@@FHH@Z:PROC ; ioPresentMgr::GetPresentValue2Text
;	COMDAT xdata$x
xdata$x	SEGMENT
__unwindtable$?OnUpdatePresentText2@PopupStoreWnd@@IAEXXZ DD 0ffffffffH
	DD	FLAT:__unwindfunclet$?OnUpdatePresentText2@PopupStoreWnd@@IAEXXZ$0
__ehfuncinfo$?OnUpdatePresentText2@PopupStoreWnd@@IAEXXZ DD 019930522H
	DD	01H
	DD	FLAT:__unwindtable$?OnUpdatePresentText2@PopupStoreWnd@@IAEXXZ
	DD	2 DUP(00H)
	DD	2 DUP(00H)
	DD	00H
	DD	01H
; Function compile flags: /Ogsp
xdata$x	ENDS
;	COMDAT ?OnUpdatePresentText2@PopupStoreWnd@@IAEXXZ
_TEXT	SEGMENT
_szReturn$ = -28					; size = 16
__$EHRec$ = -12						; size = 12
?OnUpdatePresentText2@PopupStoreWnd@@IAEXXZ PROC	; PopupStoreWnd::OnUpdatePresentText2, COMDAT
; _this$ = ecx

; 304  : {

  00000	6a 10		 push	 16			; 00000010H
  00002	b8 00 00 00 00	 mov	 eax, __ehhandler$?OnUpdatePresentText2@PopupStoreWnd@@IAEXXZ
  00007	e8 00 00 00 00	 call	 __EH_prolog3
  0000c	8b f1		 mov	 esi, ecx

; 305  : 	ioHashString szReturn;

  0000e	8d 4d e4	 lea	 ecx, DWORD PTR _szReturn$[ebp]
  00011	ff 15 00 00 00
	00		 call	 DWORD PTR __imp_??0ioHashString@@QAE@XZ

; 306  : 
; 307  : 	int iPresentType = m_OnPopupItemInfo.iPresentType;
; 308  : 	int iPresentValue1 = m_OnPopupItemInfo.iPresentValue1;
; 309  : 	int iPresentValue2 = m_OnPopupItemInfo.iPresentValue2;
; 310  : 
; 311  : 	m_szTitle2 = g_PresentMgr.GetPresentValue2Text( (short)iPresentType, iPresentValue1, iPresentValue2 );

  00017	ff b6 30 03 00
	00		 push	 DWORD PTR [esi+816]
  0001d	8b 8e 2c 03 00
	00		 mov	 ecx, DWORD PTR [esi+812]
  00023	8b 86 28 03 00
	00		 mov	 eax, DWORD PTR [esi+808]
  00029	83 65 fc 00	 and	 DWORD PTR __$EHRec$[ebp+8], 0
  0002d	51		 push	 ecx
  0002e	50		 push	 eax
  0002f	e8 00 00 00 00	 call	 ?GetSingleton@ioPresentMgr@@SAAAV1@XZ ; ioPresentMgr::GetSingleton
  00034	8b c8		 mov	 ecx, eax
  00036	e8 00 00 00 00	 call	 ?GetPresentValue2Text@ioPresentMgr@@QAEABVioHashString@@FHH@Z ; ioPresentMgr::GetPresentValue2Text
  0003b	50		 push	 eax
  0003c	8d 8e bc 02 00
	00		 lea	 ecx, DWORD PTR [esi+700]
  00042	ff 15 00 00 00
	00		 call	 DWORD PTR __imp_??4ioHashString@@QAEAAV0@ABV0@@Z

; 312  : }

  00048	83 4d fc ff	 or	 DWORD PTR __$EHRec$[ebp+8], -1
  0004c	8d 4d e4	 lea	 ecx, DWORD PTR _szReturn$[ebp]
  0004f	ff 15 00 00 00
	00		 call	 DWORD PTR __imp_??1ioHashString@@QAE@XZ
  00055	e8 00 00 00 00	 call	 __EH_epilog3
  0005a	c3		 ret	 0
_TEXT	ENDS
;	COMDAT text$x
text$x	SEGMENT
__unwindfunclet$?OnUpdatePresentText2@PopupStoreWnd@@IAEXXZ$0:
  00000	8d 4d e4	 lea	 ecx, DWORD PTR _szReturn$[ebp]
  00003	ff 25 00 00 00
	00		 jmp	 DWORD PTR __imp_??1ioHashString@@QAE@XZ
__ehhandler$?OnUpdatePresentText2@PopupStoreWnd@@IAEXXZ:
  00009	8b 54 24 08	 mov	 edx, DWORD PTR [esp+8]
  0000d	8d 42 0c	 lea	 eax, DWORD PTR [edx+12]
  00010	8b 4a e0	 mov	 ecx, DWORD PTR [edx-32]
  00013	33 c8		 xor	 ecx, eax
  00015	e8 00 00 00 00	 call	 @__security_check_cookie@4
  0001a	b8 00 00 00 00	 mov	 eax, OFFSET __ehfuncinfo$?OnUpdatePresentText2@PopupStoreWnd@@IAEXXZ
  0001f	e9 00 00 00 00	 jmp	 ___CxxFrameHandler3
text$x	ENDS
?OnUpdatePresentText2@PopupStoreWnd@@IAEXXZ ENDP	; PopupStoreWnd::OnUpdatePresentText2
PUBLIC	?GetPopupItemInfo@PopupStoreWnd@@QAE?AUsPopupItemInfo@1@XZ ; PopupStoreWnd::GetPopupItemInfo
; Function compile flags: /Ogsp
;	COMDAT ?GetPopupItemInfo@PopupStoreWnd@@QAE?AUsPopupItemInfo@1@XZ
_TEXT	SEGMENT
___$ReturnUdt$ = 8					; size = 4
?GetPopupItemInfo@PopupStoreWnd@@QAE?AUsPopupItemInfo@1@XZ PROC ; PopupStoreWnd::GetPopupItemInfo, COMDAT
; _this$ = ecx

; 354  : {

  00000	55		 push	 ebp
  00001	8b ec		 mov	 ebp, esp

; 355  : 	return m_OnPopupItemInfo;

  00003	8b 45 08	 mov	 eax, DWORD PTR ___$ReturnUdt$[ebp]
  00006	56		 push	 esi
  00007	57		 push	 edi
  00008	6a 14		 push	 20			; 00000014H
  0000a	8d b1 20 03 00
	00		 lea	 esi, DWORD PTR [ecx+800]
  00010	59		 pop	 ecx
  00011	8b f8		 mov	 edi, eax
  00013	f3 a5		 rep movsd
  00015	5f		 pop	 edi
  00016	5e		 pop	 esi

; 356  : }

  00017	5d		 pop	 ebp
  00018	c2 04 00	 ret	 4
?GetPopupItemInfo@PopupStoreWnd@@QAE?AUsPopupItemInfo@1@XZ ENDP ; PopupStoreWnd::GetPopupItemInfo
_TEXT	ENDS
PUBLIC	__real@4008000000000000
PUBLIC	__real@4022000000000000
PUBLIC	__real@3f19999a
PUBLIC	??_C@_03IKGEINEE@?$CFs?5?$AA@			; `string'
PUBLIC	??_C@_00CNPNBAHC@?$AA@				; `string'
PUBLIC	__$ArrayPad$
PUBLIC	?OnUpdateMyCash@PopupStoreWnd@@IAEXH@Z		; PopupStoreWnd::OnUpdateMyCash
EXTRN	__imp_?GetTextHeight@ioFontManager@@QAEMPBDW4TextStyle@@M@Z:PROC
EXTRN	__imp_?GetTextWidth@ioFontManager@@QAEMPBDW4TextStyle@@MH@Z:PROC
EXTRN	__imp_?GetTextWidth@ioFontManager@@QAEMPBDM@Z:PROC
EXTRN	__imp_?GetSingleton@ioFontManager@@SAAAV1@XZ:PROC
EXTRN	__imp__sprintf:PROC
EXTRN	__imp_?GetTitleText@ioWnd@@QAEPBDXZ:PROC
EXTRN	__imp_?SetTitleText@ioWnd@@QAEXPBD0H@Z:PROC
EXTRN	?ConvertNumToStrComma@Help@@YAXHPADH@Z:PROC	; Help::ConvertNumToStrComma
EXTRN	___security_cookie:DWORD
EXTRN	__fltused:DWORD
EXTRN	__ftol2_sse:PROC
EXTRN	_memset:PROC
;	COMDAT __real@4008000000000000
CONST	SEGMENT
__real@4008000000000000 DQ 04008000000000000r	; 3
CONST	ENDS
;	COMDAT __real@4022000000000000
CONST	SEGMENT
__real@4022000000000000 DQ 04022000000000000r	; 9
CONST	ENDS
;	COMDAT __real@3f19999a
CONST	SEGMENT
__real@3f19999a DD 03f19999ar			; 0.6
CONST	ENDS
;	COMDAT ??_C@_03IKGEINEE@?$CFs?5?$AA@
CONST	SEGMENT
??_C@_03IKGEINEE@?$CFs?5?$AA@ DB '%s ', 00H		; `string'
CONST	ENDS
;	COMDAT ??_C@_00CNPNBAHC@?$AA@
CONST	SEGMENT
??_C@_00CNPNBAHC@?$AA@ DB 00H				; `string'
; Function compile flags: /Ogsp
CONST	ENDS
;	COMDAT ?OnUpdateMyCash@PopupStoreWnd@@IAEXH@Z
_TEXT	SEGMENT
_iHeight1$ = -284					; size = 4
_iArray$ = -280						; size = 16
_szPrice$ = -264					; size = 260
__$ArrayPad$ = -4					; size = 4
_iCash$ = 8						; size = 4
?OnUpdateMyCash@PopupStoreWnd@@IAEXH@Z PROC		; PopupStoreWnd::OnUpdateMyCash, COMDAT
; _this$ = ecx

; 445  : {

  00000	55		 push	 ebp
  00001	8b ec		 mov	 ebp, esp
  00003	81 ec 1c 01 00
	00		 sub	 esp, 284		; 0000011cH
  00009	a1 00 00 00 00	 mov	 eax, DWORD PTR ___security_cookie
  0000e	33 c5		 xor	 eax, ebp
  00010	89 45 fc	 mov	 DWORD PTR __$ArrayPad$[ebp], eax
  00013	56		 push	 esi
  00014	57		 push	 edi

; 446  : 	if( m_iCash == iCash )

  00015	8b 7d 08	 mov	 edi, DWORD PTR _iCash$[ebp]
  00018	8b f1		 mov	 esi, ecx
  0001a	39 be 10 03 00
	00		 cmp	 DWORD PTR [esi+784], edi
  00020	0f 84 4d 02 00
	00		 je	 $LN5@OnUpdateMy

; 447  : 		return;
; 448  : 
; 449  : 	m_iCash = iCash;
; 450  : 
; 451  : 	
; 452  : 	char szPrice[MAX_PATH]={0,};

  00026	53		 push	 ebx
  00027	68 03 01 00 00	 push	 259			; 00000103H
  0002c	8d 85 f9 fe ff
	ff		 lea	 eax, DWORD PTR _szPrice$[ebp+1]
  00032	6a 00		 push	 0
  00034	50		 push	 eax
  00035	89 be 10 03 00
	00		 mov	 DWORD PTR [esi+784], edi
  0003b	c6 85 f8 fe ff
	ff 00		 mov	 BYTE PTR _szPrice$[ebp], 0
  00042	e8 00 00 00 00	 call	 _memset

; 453  : 	Help::ConvertNumToStrComma( m_iCash, szPrice, sizeof( szPrice ) );

  00047	68 04 01 00 00	 push	 260			; 00000104H
  0004c	8d 85 f8 fe ff
	ff		 lea	 eax, DWORD PTR _szPrice$[ebp]
  00052	50		 push	 eax
  00053	57		 push	 edi
  00054	e8 00 00 00 00	 call	 ?ConvertNumToStrComma@Help@@YAXHPADH@Z ; Help::ConvertNumToStrComma

; 454  : 	m_pWndEtcWnd2->SetTitleText( szPrice );

  00059	8b 8e a4 01 00
	00		 mov	 ecx, DWORD PTR [esi+420]
  0005f	83 c4 18	 add	 esp, 24			; 00000018H
  00062	6a 00		 push	 0
  00064	68 00 00 00 00	 push	 OFFSET ??_C@_00CNPNBAHC@?$AA@
  00069	8d 85 f8 fe ff
	ff		 lea	 eax, DWORD PTR _szPrice$[ebp]
  0006f	50		 push	 eax
  00070	ff 15 00 00 00
	00		 call	 DWORD PTR __imp_?SetTitleText@ioWnd@@QAEXPBD0H@Z

; 455  : 	
; 456  : 	const char* pText1 = m_pWndEtcWnd1->GetTitleText();	

  00076	8b 8e a0 01 00
	00		 mov	 ecx, DWORD PTR [esi+416]
  0007c	8b 1d 00 00 00
	00		 mov	 ebx, DWORD PTR __imp_?GetTitleText@ioWnd@@QAEPBDXZ
  00082	ff d3		 call	 ebx

; 457  : 	sprintf( szPrice, "%s ", pText1 );

  00084	50		 push	 eax
  00085	8d 85 f8 fe ff
	ff		 lea	 eax, DWORD PTR _szPrice$[ebp]
  0008b	68 00 00 00 00	 push	 OFFSET ??_C@_03IKGEINEE@?$CFs?5?$AA@
  00090	50		 push	 eax
  00091	ff 15 00 00 00
	00		 call	 DWORD PTR __imp__sprintf

; 458  : 
; 459  : 
; 460  : 	int iArray[4] = {0,};
; 461  : 	iArray[0] = g_FontMgr.GetTextWidth( szPrice, FONT_SIZE_12 );

  00097	f3 0f 10 05 00
	00 00 00	 movss	 xmm0, DWORD PTR __real@3f19999a
  0009f	33 c0		 xor	 eax, eax
  000a1	8d bd ec fe ff
	ff		 lea	 edi, DWORD PTR _iArray$[ebp+4]
  000a7	ab		 stosd
  000a8	ab		 stosd
  000a9	ab		 stosd
  000aa	8b 3d 00 00 00
	00		 mov	 edi, DWORD PTR __imp_?GetSingleton@ioFontManager@@SAAAV1@XZ
  000b0	83 c4 08	 add	 esp, 8
  000b3	8d 85 f8 fe ff
	ff		 lea	 eax, DWORD PTR _szPrice$[ebp]
  000b9	f3 0f 11 04 24	 movss	 DWORD PTR [esp], xmm0
  000be	50		 push	 eax
  000bf	ff d7		 call	 edi
  000c1	8b c8		 mov	 ecx, eax
  000c3	ff 15 00 00 00
	00		 call	 DWORD PTR __imp_?GetTextWidth@ioFontManager@@QAEMPBDM@Z
  000c9	e8 00 00 00 00	 call	 __ftol2_sse

; 462  : 	iArray[1] = g_FontMgr.GetTextWidth( m_pWndEtcWnd2->GetTitleText(), TS_NORMAL, FONT_SIZE_12 ) + 9;

  000ce	f3 0f 10 05 00
	00 00 00	 movss	 xmm0, DWORD PTR __real@3f19999a
  000d6	6a 00		 push	 0
  000d8	51		 push	 ecx
  000d9	8b 8e a4 01 00
	00		 mov	 ecx, DWORD PTR [esi+420]
  000df	f3 0f 11 04 24	 movss	 DWORD PTR [esp], xmm0
  000e4	6a 00		 push	 0
  000e6	89 85 e8 fe ff
	ff		 mov	 DWORD PTR _iArray$[ebp], eax
  000ec	ff d3		 call	 ebx
  000ee	50		 push	 eax
  000ef	ff d7		 call	 edi
  000f1	8b c8		 mov	 ecx, eax
  000f3	ff 15 00 00 00
	00		 call	 DWORD PTR __imp_?GetTextWidth@ioFontManager@@QAEMPBDW4TextStyle@@MH@Z
  000f9	dc 05 00 00 00
	00		 fadd	 QWORD PTR __real@4022000000000000
  000ff	e8 00 00 00 00	 call	 __ftol2_sse

; 463  : 	iArray[2] = g_FontMgr.GetTextWidth( m_pWndEtcWnd3->GetTitleText(), TS_NORMAL, FONT_SIZE_12 ) + 9;

  00104	f3 0f 10 05 00
	00 00 00	 movss	 xmm0, DWORD PTR __real@3f19999a
  0010c	6a 00		 push	 0
  0010e	51		 push	 ecx
  0010f	8b 8e a8 01 00
	00		 mov	 ecx, DWORD PTR [esi+424]
  00115	f3 0f 11 04 24	 movss	 DWORD PTR [esp], xmm0
  0011a	6a 00		 push	 0
  0011c	89 85 ec fe ff
	ff		 mov	 DWORD PTR _iArray$[ebp+4], eax
  00122	ff d3		 call	 ebx
  00124	50		 push	 eax
  00125	ff d7		 call	 edi
  00127	8b c8		 mov	 ecx, eax
  00129	ff 15 00 00 00
	00		 call	 DWORD PTR __imp_?GetTextWidth@ioFontManager@@QAEMPBDW4TextStyle@@MH@Z
  0012f	dc 05 00 00 00
	00		 fadd	 QWORD PTR __real@4022000000000000
  00135	e8 00 00 00 00	 call	 __ftol2_sse

; 464  : 	iArray[3] = g_FontMgr.GetTextWidth( m_pWndEtcWnd4->GetTitleText(), TS_NORMAL, FONT_SIZE_12 );

  0013a	f3 0f 10 05 00
	00 00 00	 movss	 xmm0, DWORD PTR __real@3f19999a
  00142	6a 00		 push	 0
  00144	51		 push	 ecx
  00145	8b 8e ac 01 00
	00		 mov	 ecx, DWORD PTR [esi+428]
  0014b	f3 0f 11 04 24	 movss	 DWORD PTR [esp], xmm0
  00150	6a 00		 push	 0
  00152	89 85 f0 fe ff
	ff		 mov	 DWORD PTR _iArray$[ebp+8], eax
  00158	ff d3		 call	 ebx
  0015a	50		 push	 eax
  0015b	ff d7		 call	 edi
  0015d	8b c8		 mov	 ecx, eax
  0015f	ff 15 00 00 00
	00		 call	 DWORD PTR __imp_?GetTextWidth@ioFontManager@@QAEMPBDW4TextStyle@@MH@Z
  00165	e8 00 00 00 00	 call	 __ftol2_sse

; 465  : 
; 466  : 	// 값이 정확히 안 나오는듯??
; 467  : 	int iHeight1 = g_FontMgr.GetTextHeight( m_pWndEtcWnd3->GetTitleText(), TS_NORMAL, FONT_SIZE_12 ) + 3;

  0016a	f3 0f 10 05 00
	00 00 00	 movss	 xmm0, DWORD PTR __real@3f19999a
  00172	51		 push	 ecx
  00173	8b 8e a8 01 00
	00		 mov	 ecx, DWORD PTR [esi+424]
  00179	f3 0f 11 04 24	 movss	 DWORD PTR [esp], xmm0
  0017e	6a 00		 push	 0
  00180	89 85 f4 fe ff
	ff		 mov	 DWORD PTR _iArray$[ebp+12], eax
  00186	ff d3		 call	 ebx
  00188	50		 push	 eax
  00189	ff d7		 call	 edi
  0018b	8b c8		 mov	 ecx, eax
  0018d	ff 15 00 00 00
	00		 call	 DWORD PTR __imp_?GetTextHeight@ioFontManager@@QAEMPBDW4TextStyle@@M@Z
  00193	dc 05 00 00 00
	00		 fadd	 QWORD PTR __real@4008000000000000
  00199	e8 00 00 00 00	 call	 __ftol2_sse

; 468  : 	int iHeight2 = g_FontMgr.GetTextHeight( m_pWndEtcWnd4->GetTitleText(), TS_NORMAL, FONT_SIZE_12 ) + 3;

  0019e	f3 0f 10 05 00
	00 00 00	 movss	 xmm0, DWORD PTR __real@3f19999a
  001a6	51		 push	 ecx
  001a7	8b 8e ac 01 00
	00		 mov	 ecx, DWORD PTR [esi+428]
  001ad	f3 0f 11 04 24	 movss	 DWORD PTR [esp], xmm0
  001b2	6a 00		 push	 0
  001b4	89 85 e4 fe ff
	ff		 mov	 DWORD PTR _iHeight1$[ebp], eax
  001ba	ff d3		 call	 ebx
  001bc	50		 push	 eax
  001bd	ff d7		 call	 edi
  001bf	8b c8		 mov	 ecx, eax
  001c1	ff 15 00 00 00
	00		 call	 DWORD PTR __imp_?GetTextHeight@ioFontManager@@QAEMPBDW4TextStyle@@M@Z
  001c7	dc 05 00 00 00
	00		 fadd	 QWORD PTR __real@4008000000000000
  001cd	e8 00 00 00 00	 call	 __ftol2_sse

; 469  : 
; 470  : 	m_pWndEtcWnd3->SetSize( iArray[2], iHeight1 );

  001d2	ff b5 e4 fe ff
	ff		 push	 DWORD PTR _iHeight1$[ebp]
  001d8	8b 8e a8 01 00
	00		 mov	 ecx, DWORD PTR [esi+424]
  001de	ff b5 f0 fe ff
	ff		 push	 DWORD PTR _iArray$[ebp+8]
  001e4	8b f8		 mov	 edi, eax
  001e6	8b 01		 mov	 eax, DWORD PTR [ecx]
  001e8	ff 50 2c	 call	 DWORD PTR [eax+44]

; 471  : 	m_pWndEtcWnd4->SetSize( iArray[3], iHeight2 );

  001eb	8b 8e ac 01 00
	00		 mov	 ecx, DWORD PTR [esi+428]
  001f1	8b 01		 mov	 eax, DWORD PTR [ecx]
  001f3	57		 push	 edi
  001f4	ff b5 f4 fe ff
	ff		 push	 DWORD PTR _iArray$[ebp+12]
  001fa	ff 50 2c	 call	 DWORD PTR [eax+44]

; 472  : 
; 473  : 	int iTotal = 0;

  001fd	33 db		 xor	 ebx, ebx

; 474  : 	for( int i = 0; i < 4; ++i )

  001ff	33 c0		 xor	 eax, eax
$LL3@OnUpdateMy:

; 475  : 		iTotal += iArray[i];		

  00201	03 9c 85 e8 fe
	ff ff		 add	 ebx, DWORD PTR _iArray$[ebp+eax*4]
  00208	40		 inc	 eax
  00209	83 f8 04	 cmp	 eax, 4
  0020c	7c f3		 jl	 SHORT $LL3@OnUpdateMy

; 476  : 	int iCenter = iTotal >> 1;
; 477  : 	iCenter = -iCenter;
; 478  : 	m_pWndEtcWnd1->SetWndPos( iCenter, 0 );		

  0020e	8b 8e a0 01 00
	00		 mov	 ecx, DWORD PTR [esi+416]
  00214	8b 3d 00 00 00
	00		 mov	 edi, DWORD PTR __imp_?SetWndPos@ioWnd@@QAEXHH@Z
  0021a	d1 fb		 sar	 ebx, 1
  0021c	6a 00		 push	 0
  0021e	f7 db		 neg	 ebx
  00220	53		 push	 ebx
  00221	ff d7		 call	 edi

; 479  : 	iCenter += iArray[0];

  00223	03 9d e8 fe ff
	ff		 add	 ebx, DWORD PTR _iArray$[ebp]

; 480  : 	m_pWndEtcWnd2->SetWndPos( iCenter, 0 );

  00229	8b 8e a4 01 00
	00		 mov	 ecx, DWORD PTR [esi+420]
  0022f	6a 00		 push	 0
  00231	53		 push	 ebx
  00232	ff d7		 call	 edi

; 481  : 	iCenter += iArray[1];

  00234	03 9d ec fe ff
	ff		 add	 ebx, DWORD PTR _iArray$[ebp+4]

; 482  : 	m_pWndEtcWnd5->SetWndPos( iCenter-5, 1 );

  0023a	8b 8e b0 01 00
	00		 mov	 ecx, DWORD PTR [esi+432]
  00240	6a 01		 push	 1
  00242	8d 43 fb	 lea	 eax, DWORD PTR [ebx-5]
  00245	50		 push	 eax
  00246	ff d7		 call	 edi

; 483  : 	m_pWndEtcWnd3->SetWndPos( iCenter, 0 );

  00248	8b 8e a8 01 00
	00		 mov	 ecx, DWORD PTR [esi+424]
  0024e	6a 00		 push	 0
  00250	53		 push	 ebx
  00251	ff d7		 call	 edi

; 484  : 	iCenter += iArray[2];

  00253	03 9d f0 fe ff
	ff		 add	 ebx, DWORD PTR _iArray$[ebp+8]

; 485  : 	m_pWndEtcWnd6->SetWndPos( iCenter-5, 1 );

  00259	8b 8e b4 01 00
	00		 mov	 ecx, DWORD PTR [esi+436]
  0025f	6a 01		 push	 1
  00261	8d 43 fb	 lea	 eax, DWORD PTR [ebx-5]
  00264	50		 push	 eax
  00265	ff d7		 call	 edi

; 486  : 	m_pWndEtcWnd4->SetWndPos( iCenter, 0 );

  00267	8b 8e ac 01 00
	00		 mov	 ecx, DWORD PTR [esi+428]
  0026d	6a 00		 push	 0
  0026f	53		 push	 ebx
  00270	ff d7		 call	 edi
  00272	5b		 pop	 ebx
$LN5@OnUpdateMy:

; 487  : }

  00273	8b 4d fc	 mov	 ecx, DWORD PTR __$ArrayPad$[ebp]
  00276	5f		 pop	 edi
  00277	33 cd		 xor	 ecx, ebp
  00279	5e		 pop	 esi
  0027a	e8 00 00 00 00	 call	 @__security_check_cookie@4
  0027f	c9		 leave
  00280	c2 04 00	 ret	 4
?OnUpdateMyCash@PopupStoreWnd@@IAEXH@Z ENDP		; PopupStoreWnd::OnUpdateMyCash
_TEXT	ENDS
PUBLIC	?OnChargeOver@PopupStoreWnd@@QAEHXZ		; PopupStoreWnd::OnChargeOver
EXTRN	__imp_?SetTitleColor@ioWnd@@QAEXKK@Z:PROC
; Function compile flags: /Ogsp
;	COMDAT ?OnChargeOver@PopupStoreWnd@@QAEHXZ
_TEXT	SEGMENT
?OnChargeOver@PopupStoreWnd@@QAEHXZ PROC		; PopupStoreWnd::OnChargeOver, COMDAT
; _this$ = ecx

; 490  : {

  00000	56		 push	 esi
  00001	8b f1		 mov	 esi, ecx

; 491  : 	g_SoundMgr.PlaySound( m_szBtnOverSound );

  00003	6a 04		 push	 4
  00005	8d 86 8c 02 00
	00		 lea	 eax, DWORD PTR [esi+652]
  0000b	6a 00		 push	 0
  0000d	50		 push	 eax
  0000e	ff 15 00 00 00
	00		 call	 DWORD PTR __imp_?GetSingleton@ioSoundManager@@SAAAV1@XZ
  00014	8b c8		 mov	 ecx, eax
  00016	ff 15 00 00 00
	00		 call	 DWORD PTR __imp_?PlaySoundA@ioSoundManager@@QAEKABVioHashString@@HK@Z

; 492  : 	m_pWndEtcWnd3->SetTitleColor( 0xffffffff, 0xffffffff );

  0001c	8b 8e a8 01 00
	00		 mov	 ecx, DWORD PTR [esi+424]
  00022	6a ff		 push	 -1
  00024	6a ff		 push	 -1
  00026	ff 15 00 00 00
	00		 call	 DWORD PTR __imp_?SetTitleColor@ioWnd@@QAEXKK@Z

; 493  : 
; 494  : 	return 1;

  0002c	33 c0		 xor	 eax, eax
  0002e	40		 inc	 eax
  0002f	5e		 pop	 esi

; 495  : }

  00030	c3		 ret	 0
?OnChargeOver@PopupStoreWnd@@QAEHXZ ENDP		; PopupStoreWnd::OnChargeOver
_TEXT	ENDS
PUBLIC	?OnBtnCharge@PopupStoreWnd@@QAEHXZ		; PopupStoreWnd::OnBtnCharge
EXTRN	?GetLocal@ioLocalManager@@QAEPAVioLocalParent@@W4LocalType@ioLocalManagerParent@@@Z:PROC ; ioLocalManager::GetLocal
EXTRN	?GetSingleton@ioLocalManager@@SAAAV1@XZ:PROC	; ioLocalManager::GetSingleton
EXTRN	__imp_?GetLocalType@ioLocalManagerParent@@SA?AW4LocalType@1@XZ:PROC
; Function compile flags: /Ogsp
;	COMDAT ?OnBtnCharge@PopupStoreWnd@@QAEHXZ
_TEXT	SEGMENT
?OnBtnCharge@PopupStoreWnd@@QAEHXZ PROC			; PopupStoreWnd::OnBtnCharge, COMDAT
; _this$ = ecx

; 499  : 	g_SoundMgr.PlaySound( m_szBtnClickSound );

  00000	6a 04		 push	 4
  00002	81 c1 9c 02 00
	00		 add	 ecx, 668		; 0000029cH
  00008	6a 00		 push	 0
  0000a	51		 push	 ecx
  0000b	ff 15 00 00 00
	00		 call	 DWORD PTR __imp_?GetSingleton@ioSoundManager@@SAAAV1@XZ
  00011	8b c8		 mov	 ecx, eax
  00013	ff 15 00 00 00
	00		 call	 DWORD PTR __imp_?PlaySoundA@ioSoundManager@@QAEKABVioHashString@@HK@Z

; 500  : 	ioLocalParent* pLocal = g_LocalMgr.GetLocal( ioLocalManager::GetLocalType() );

  00019	ff 15 00 00 00
	00		 call	 DWORD PTR __imp_?GetLocalType@ioLocalManagerParent@@SA?AW4LocalType@1@XZ
  0001f	50		 push	 eax
  00020	e8 00 00 00 00	 call	 ?GetSingleton@ioLocalManager@@SAAAV1@XZ ; ioLocalManager::GetSingleton
  00025	8b c8		 mov	 ecx, eax
  00027	e8 00 00 00 00	 call	 ?GetLocal@ioLocalManager@@QAEPAVioLocalParent@@W4LocalType@ioLocalManagerParent@@@Z ; ioLocalManager::GetLocal

; 501  : 	if( pLocal )

  0002c	85 c0		 test	 eax, eax
  0002e	74 07		 je	 SHORT $LN1@OnBtnCharg

; 502  : 	{
; 503  : 		pLocal->OpenFillCashPage();

  00030	8b 10		 mov	 edx, DWORD PTR [eax]
  00032	8b c8		 mov	 ecx, eax
  00034	ff 52 7c	 call	 DWORD PTR [edx+124]
$LN1@OnBtnCharg:

; 504  : 	}
; 505  : 
; 506  : 	return 1;

  00037	33 c0		 xor	 eax, eax
  00039	40		 inc	 eax

; 507  : }

  0003a	c3		 ret	 0
?OnBtnCharge@PopupStoreWnd@@QAEHXZ ENDP			; PopupStoreWnd::OnBtnCharge
_TEXT	ENDS
PUBLIC	?OnChargeLeave@PopupStoreWnd@@QAEHXZ		; PopupStoreWnd::OnChargeLeave
; Function compile flags: /Ogsp
;	COMDAT ?OnChargeLeave@PopupStoreWnd@@QAEHXZ
_TEXT	SEGMENT
?OnChargeLeave@PopupStoreWnd@@QAEHXZ PROC		; PopupStoreWnd::OnChargeLeave, COMDAT
; _this$ = ecx

; 511  : 	m_pWndEtcWnd3->SetTitleColor( 0xffff6c00, 0xffffffff );

  00000	8b 89 a8 01 00
	00		 mov	 ecx, DWORD PTR [ecx+424]
  00006	6a ff		 push	 -1
  00008	68 00 6c ff ff	 push	 -37888			; ffff6c00H
  0000d	ff 15 00 00 00
	00		 call	 DWORD PTR __imp_?SetTitleColor@ioWnd@@QAEXKK@Z

; 512  : 
; 513  : 	return 1;

  00013	33 c0		 xor	 eax, eax
  00015	40		 inc	 eax

; 514  : }

  00016	c3		 ret	 0
?OnChargeLeave@PopupStoreWnd@@QAEHXZ ENDP		; PopupStoreWnd::OnChargeLeave
_TEXT	ENDS
PUBLIC	?OnCloseOver@PopupStoreWnd@@QAEHXZ		; PopupStoreWnd::OnCloseOver
; Function compile flags: /Ogsp
;	COMDAT ?OnCloseOver@PopupStoreWnd@@QAEHXZ
_TEXT	SEGMENT
?OnCloseOver@PopupStoreWnd@@QAEHXZ PROC			; PopupStoreWnd::OnCloseOver, COMDAT
; _this$ = ecx

; 517  : {

  00000	56		 push	 esi
  00001	8b f1		 mov	 esi, ecx

; 518  : 	g_SoundMgr.PlaySound( m_szBtnOverSound );

  00003	6a 04		 push	 4
  00005	8d 86 8c 02 00
	00		 lea	 eax, DWORD PTR [esi+652]
  0000b	6a 00		 push	 0
  0000d	50		 push	 eax
  0000e	ff 15 00 00 00
	00		 call	 DWORD PTR __imp_?GetSingleton@ioSoundManager@@SAAAV1@XZ
  00014	8b c8		 mov	 ecx, eax
  00016	ff 15 00 00 00
	00		 call	 DWORD PTR __imp_?PlaySoundA@ioSoundManager@@QAEKABVioHashString@@HK@Z

; 519  : 	m_pWndEtcWnd4->SetTitleColor( 0xffffffff, 0xffffffff );

  0001c	8b 8e ac 01 00
	00		 mov	 ecx, DWORD PTR [esi+428]
  00022	6a ff		 push	 -1
  00024	6a ff		 push	 -1
  00026	ff 15 00 00 00
	00		 call	 DWORD PTR __imp_?SetTitleColor@ioWnd@@QAEXKK@Z

; 520  : 
; 521  : 	return 1;

  0002c	33 c0		 xor	 eax, eax
  0002e	40		 inc	 eax
  0002f	5e		 pop	 esi

; 522  : }

  00030	c3		 ret	 0
?OnCloseOver@PopupStoreWnd@@QAEHXZ ENDP			; PopupStoreWnd::OnCloseOver
_TEXT	ENDS
PUBLIC	?OnBtnExit@PopupStoreWnd@@QAEHXZ		; PopupStoreWnd::OnBtnExit
; Function compile flags: /Ogsp
;	COMDAT ?OnBtnExit@PopupStoreWnd@@QAEHXZ
_TEXT	SEGMENT
?OnBtnExit@PopupStoreWnd@@QAEHXZ PROC			; PopupStoreWnd::OnBtnExit, COMDAT
; _this$ = ecx

; 525  : {

  00000	56		 push	 esi
  00001	8b f1		 mov	 esi, ecx

; 526  : 	//HideWnd();
; 527  : 
; 528  : 	g_SoundMgr.PlaySound( m_szBtnClickSound );

  00003	6a 04		 push	 4
  00005	8d 86 9c 02 00
	00		 lea	 eax, DWORD PTR [esi+668]
  0000b	6a 00		 push	 0
  0000d	50		 push	 eax
  0000e	ff 15 00 00 00
	00		 call	 DWORD PTR __imp_?GetSingleton@ioSoundManager@@SAAAV1@XZ
  00014	8b c8		 mov	 ecx, eax
  00016	ff 15 00 00 00
	00		 call	 DWORD PTR __imp_?PlaySoundA@ioSoundManager@@QAEKABVioHashString@@HK@Z

; 529  : 	m_iMsgType = eMsgClose;

  0001c	83 a6 14 03 00
	00 00		 and	 DWORD PTR [esi+788], 0

; 530  : 	g_GUIMgr.SetMsgBox( MB_YESNO, this, m_szRealClose.c_str() );

  00023	8d 8e dc 01 00
	00		 lea	 ecx, DWORD PTR [esi+476]
  00029	ff 15 00 00 00
	00		 call	 DWORD PTR __imp_?c_str@ioHashString@@QBEPBDXZ
  0002f	50		 push	 eax
  00030	56		 push	 esi
  00031	6a 04		 push	 4
  00033	e8 00 00 00 00	 call	 ?GetSingleton@ioSP2GUIManager@@SAAAV1@XZ ; ioSP2GUIManager::GetSingleton
  00038	50		 push	 eax
  00039	e8 00 00 00 00	 call	 ?SetMsgBox@ioSP2GUIManager@@QAAXHPAVioWnd@@PBDZZ ; ioSP2GUIManager::SetMsgBox
  0003e	83 c4 10	 add	 esp, 16			; 00000010H

; 531  : 
; 532  : 	return 1;

  00041	33 c0		 xor	 eax, eax
  00043	40		 inc	 eax
  00044	5e		 pop	 esi

; 533  : }

  00045	c3		 ret	 0
?OnBtnExit@PopupStoreWnd@@QAEHXZ ENDP			; PopupStoreWnd::OnBtnExit
_TEXT	ENDS
PUBLIC	?OnCloseLeave@PopupStoreWnd@@QAEHXZ		; PopupStoreWnd::OnCloseLeave
; Function compile flags: /Ogsp
;	COMDAT ?OnCloseLeave@PopupStoreWnd@@QAEHXZ
_TEXT	SEGMENT
?OnCloseLeave@PopupStoreWnd@@QAEHXZ PROC		; PopupStoreWnd::OnCloseLeave, COMDAT
; _this$ = ecx

; 537  : 	m_pWndEtcWnd4->SetTitleColor( 0xff00fcff, 0xffffffff );

  00000	8b 89 ac 01 00
	00		 mov	 ecx, DWORD PTR [ecx+428]
  00006	6a ff		 push	 -1
  00008	68 ff fc 00 ff	 push	 -16712449		; ff00fcffH
  0000d	ff 15 00 00 00
	00		 call	 DWORD PTR __imp_?SetTitleColor@ioWnd@@QAEXKK@Z

; 538  : 
; 539  : 	return 1;

  00013	33 c0		 xor	 eax, eax
  00015	40		 inc	 eax

; 540  : }

  00016	c3		 ret	 0
?OnCloseLeave@PopupStoreWnd@@QAEHXZ ENDP		; PopupStoreWnd::OnCloseLeave
_TEXT	ENDS
PUBLIC	??_R0?AVioWnd@@@8				; ioWnd `RTTI Type Descriptor'
PUBLIC	??_R0?AVMyInventoryWnd@@@8			; MyInventoryWnd `RTTI Type Descriptor'
PUBLIC	?OnBtnShow@PopupStoreWnd@@QAEHXZ		; PopupStoreWnd::OnBtnShow
EXTRN	?ShowPresentTabDirect@MyInventoryWnd@@QAEXXZ:PROC ; MyInventoryWnd::ShowPresentTabDirect
EXTRN	__imp_?FindWnd@ioGUIManager@@QAEPAVioWnd@@K@Z:PROC
EXTRN	___RTDynamicCast:PROC
;	COMDAT ??_R0?AVioWnd@@@8
_DATA	SEGMENT
??_R0?AVioWnd@@@8 DD FLAT:??_7type_info@@6B@		; ioWnd `RTTI Type Descriptor'
	DD	00H
	DB	'.?AVioWnd@@', 00H
_DATA	ENDS
;	COMDAT ??_R0?AVMyInventoryWnd@@@8
_DATA	SEGMENT
??_R0?AVMyInventoryWnd@@@8 DD FLAT:??_7type_info@@6B@	; MyInventoryWnd `RTTI Type Descriptor'
	DD	00H
	DB	'.?AVMyInventoryWnd@@', 00H
; Function compile flags: /Ogsp
_DATA	ENDS
;	COMDAT ?OnBtnShow@PopupStoreWnd@@QAEHXZ
_TEXT	SEGMENT
?OnBtnShow@PopupStoreWnd@@QAEHXZ PROC			; PopupStoreWnd::OnBtnShow, COMDAT
; _this$ = ecx

; 544  : 	HideWnd();

  00000	ff 15 00 00 00
	00		 call	 DWORD PTR __imp_?HideWnd@ioWnd@@QAEXXZ

; 545  : 
; 546  : 	//선물함 으로 가기
; 547  : 	MyInventoryWnd* pInvenWnd = dynamic_cast<MyInventoryWnd*>(g_GUIMgr.FindWnd(MY_INVENTORY_WND));

  00006	6a 00		 push	 0
  00008	68 00 00 00 00	 push	 OFFSET ??_R0?AVMyInventoryWnd@@@8
  0000d	68 00 00 00 00	 push	 OFFSET ??_R0?AVioWnd@@@8
  00012	6a 00		 push	 0
  00014	68 96 17 00 00	 push	 6038			; 00001796H
  00019	e8 00 00 00 00	 call	 ?GetSingleton@ioSP2GUIManager@@SAAAV1@XZ ; ioSP2GUIManager::GetSingleton
  0001e	8b c8		 mov	 ecx, eax
  00020	ff 15 00 00 00
	00		 call	 DWORD PTR __imp_?FindWnd@ioGUIManager@@QAEPAVioWnd@@K@Z
  00026	50		 push	 eax
  00027	e8 00 00 00 00	 call	 ___RTDynamicCast
  0002c	83 c4 14	 add	 esp, 20			; 00000014H

; 548  : 	if( pInvenWnd )

  0002f	85 c0		 test	 eax, eax
  00031	74 07		 je	 SHORT $LN1@OnBtnShow

; 549  : 	{
; 550  : 		pInvenWnd->ShowPresentTabDirect();

  00033	8b c8		 mov	 ecx, eax
  00035	e8 00 00 00 00	 call	 ?ShowPresentTabDirect@MyInventoryWnd@@QAEXXZ ; MyInventoryWnd::ShowPresentTabDirect
$LN1@OnBtnShow:

; 551  : 	}
; 552  : 
; 553  : 	return 1;

  0003a	33 c0		 xor	 eax, eax
  0003c	40		 inc	 eax

; 554  : }

  0003d	c3		 ret	 0
?OnBtnShow@PopupStoreWnd@@QAEHXZ ENDP			; PopupStoreWnd::OnBtnShow
_TEXT	ENDS
PUBLIC	?OnPage1@PopupStoreWnd@@QAEXXZ			; PopupStoreWnd::OnPage1
EXTRN	__imp_?ShowWnd@ioWnd@@QAEXXZ:PROC
; Function compile flags: /Ogsp
;	COMDAT ?OnPage1@PopupStoreWnd@@QAEXXZ
_TEXT	SEGMENT
?OnPage1@PopupStoreWnd@@QAEXXZ PROC			; PopupStoreWnd::OnPage1, COMDAT
; _this$ = ecx

; 591  : {

  00000	53		 push	 ebx
  00001	56		 push	 esi
  00002	8b f1		 mov	 esi, ecx

; 592  : 	m_bPage = true;
; 593  : 
; 594  : 	m_pWndImgs1->ShowWnd();

  00004	8b 8e 6c 01 00
	00		 mov	 ecx, DWORD PTR [esi+364]
  0000a	57		 push	 edi
  0000b	8b 3d 00 00 00
	00		 mov	 edi, DWORD PTR __imp_?ShowWnd@ioWnd@@QAEXXZ
  00011	c6 86 0d 03 00
	00 01		 mov	 BYTE PTR [esi+781], 1
  00018	ff d7		 call	 edi

; 595  : 	m_pWndImgs2->HideWnd();

  0001a	8b 8e 70 01 00
	00		 mov	 ecx, DWORD PTR [esi+368]
  00020	8b 1d 00 00 00
	00		 mov	 ebx, DWORD PTR __imp_?HideWnd@ioWnd@@QAEXXZ
  00026	ff d3		 call	 ebx

; 596  : 	m_pBtnBuy->ShowWnd();

  00028	8b 8e 60 01 00
	00		 mov	 ecx, DWORD PTR [esi+352]
  0002e	ff d7		 call	 edi

; 597  : 	m_pBtnShow->HideWnd();

  00030	8b 8e 64 01 00
	00		 mov	 ecx, DWORD PTR [esi+356]
  00036	ff d3		 call	 ebx

; 598  : 	m_pBtnClose->HideWnd();

  00038	8b 8e 68 01 00
	00		 mov	 ecx, DWORD PTR [esi+360]
  0003e	ff d3		 call	 ebx

; 599  : 	m_pEffectItem[eEffectBefore]->Start();

  00040	8b 8e b8 01 00
	00		 mov	 ecx, DWORD PTR [esi+440]
  00046	ff 15 00 00 00
	00		 call	 DWORD PTR __imp_?Start@ioUI3DEffectRender@@QAEXXZ

; 600  : 	m_pEffectItem[eEffectAfter]->Start();

  0004c	8b 8e bc 01 00
	00		 mov	 ecx, DWORD PTR [esi+444]
  00052	ff 15 00 00 00
	00		 call	 DWORD PTR __imp_?Start@ioUI3DEffectRender@@QAEXXZ

; 601  : 	m_pEffectItem[eEffectResult]->Stop();

  00058	8b 8e c0 01 00
	00		 mov	 ecx, DWORD PTR [esi+448]
  0005e	ff 15 00 00 00
	00		 call	 DWORD PTR __imp_?Stop@ioUI3DEffectRender@@QAEXXZ

; 602  : 
; 603  : 	m_pWndGolds->ShowWnd();

  00064	8b 8e 88 01 00
	00		 mov	 ecx, DWORD PTR [esi+392]
  0006a	ff d7		 call	 edi

; 604  : 	m_pWndEtcs->ShowWnd();

  0006c	8b 8e 9c 01 00
	00		 mov	 ecx, DWORD PTR [esi+412]
  00072	ff d7		 call	 edi

; 605  : 
; 606  :  	m_pWndItem->SetWndPos( 0, -2 );

  00074	8b 8e 7c 01 00
	00		 mov	 ecx, DWORD PTR [esi+380]
  0007a	6a fe		 push	 -2			; fffffffeH
  0007c	6a 00		 push	 0
  0007e	ff 15 00 00 00
	00		 call	 DWORD PTR __imp_?SetWndPos@ioWnd@@QAEXHH@Z

; 607  :  	m_pWndName->SetWndPos( 0, 52 );

  00084	8b 8e 74 01 00
	00		 mov	 ecx, DWORD PTR [esi+372]
  0008a	6a 34		 push	 52			; 00000034H
  0008c	6a 00		 push	 0
  0008e	ff 15 00 00 00
	00		 call	 DWORD PTR __imp_?SetWndPos@ioWnd@@QAEXHH@Z

; 608  : 	m_pWndCount->HideWnd();

  00094	8b 8e 78 01 00
	00		 mov	 ecx, DWORD PTR [esi+376]
  0009a	ff d3		 call	 ebx

; 609  : 
; 610  : 	m_pWndInfo1->ShowWnd();

  0009c	8b 8e 80 01 00
	00		 mov	 ecx, DWORD PTR [esi+384]
  000a2	ff d7		 call	 edi

; 611  : 	m_pWndInfo2->HideWnd();

  000a4	8b 8e 84 01 00
	00		 mov	 ecx, DWORD PTR [esi+388]
  000aa	ff d3		 call	 ebx
  000ac	5f		 pop	 edi
  000ad	5e		 pop	 esi
  000ae	5b		 pop	 ebx

; 612  : }

  000af	c3		 ret	 0
?OnPage1@PopupStoreWnd@@QAEXXZ ENDP			; PopupStoreWnd::OnPage1
_TEXT	ENDS
PUBLIC	?OnPage2@PopupStoreWnd@@QAEXXZ			; PopupStoreWnd::OnPage2
EXTRN	__imp_?IsEmpty@ioHashString@@QBE_NXZ:PROC
; Function compile flags: /Ogsp
;	COMDAT ?OnPage2@PopupStoreWnd@@QAEXXZ
_TEXT	SEGMENT
?OnPage2@PopupStoreWnd@@QAEXXZ PROC			; PopupStoreWnd::OnPage2, COMDAT
; _this$ = ecx

; 615  : {

  00000	53		 push	 ebx
  00001	56		 push	 esi
  00002	8b f1		 mov	 esi, ecx

; 616  : 	m_bPage = false;
; 617  : 
; 618  : 	m_pWndImgs2->ShowWnd();

  00004	8b 8e 70 01 00
	00		 mov	 ecx, DWORD PTR [esi+368]
  0000a	57		 push	 edi
  0000b	8b 3d 00 00 00
	00		 mov	 edi, DWORD PTR __imp_?ShowWnd@ioWnd@@QAEXXZ
  00011	c6 86 0d 03 00
	00 00		 mov	 BYTE PTR [esi+781], 0
  00018	ff d7		 call	 edi

; 619  : 	m_pWndImgs1->HideWnd();

  0001a	8b 8e 6c 01 00
	00		 mov	 ecx, DWORD PTR [esi+364]
  00020	8b 1d 00 00 00
	00		 mov	 ebx, DWORD PTR __imp_?HideWnd@ioWnd@@QAEXXZ
  00026	ff d3		 call	 ebx

; 620  : 	m_pBtnBuy->HideWnd();

  00028	8b 8e 60 01 00
	00		 mov	 ecx, DWORD PTR [esi+352]
  0002e	ff d3		 call	 ebx

; 621  : 	m_pBtnShow->ShowWnd();

  00030	8b 8e 64 01 00
	00		 mov	 ecx, DWORD PTR [esi+356]
  00036	ff d7		 call	 edi

; 622  : 	m_pBtnClose->ShowWnd();

  00038	8b 8e 68 01 00
	00		 mov	 ecx, DWORD PTR [esi+360]
  0003e	ff d7		 call	 edi

; 623  : 	m_pEffectItem[eEffectBefore]->Stop();

  00040	8b 8e b8 01 00
	00		 mov	 ecx, DWORD PTR [esi+440]
  00046	ff 15 00 00 00
	00		 call	 DWORD PTR __imp_?Stop@ioUI3DEffectRender@@QAEXXZ

; 624  : 	m_pEffectItem[eEffectAfter]->Stop();

  0004c	8b 8e bc 01 00
	00		 mov	 ecx, DWORD PTR [esi+444]
  00052	ff 15 00 00 00
	00		 call	 DWORD PTR __imp_?Stop@ioUI3DEffectRender@@QAEXXZ

; 625  : 	m_pEffectItem[eEffectResult]->Start();

  00058	8b 8e c0 01 00
	00		 mov	 ecx, DWORD PTR [esi+448]
  0005e	ff 15 00 00 00
	00		 call	 DWORD PTR __imp_?Start@ioUI3DEffectRender@@QAEXXZ

; 626  : 
; 627  : 	if( !m_szEffectPlaySound.IsEmpty() )

  00064	8d 8e 7c 02 00
	00		 lea	 ecx, DWORD PTR [esi+636]
  0006a	ff 15 00 00 00
	00		 call	 DWORD PTR __imp_?IsEmpty@ioHashString@@QBE_NXZ
  00070	84 c0		 test	 al, al
  00072	75 19		 jne	 SHORT $LN1@OnPage2

; 628  : 	{
; 629  : 		g_SoundMgr.PlaySound( m_szEffectPlaySound );

  00074	6a 04		 push	 4
  00076	8d 86 7c 02 00
	00		 lea	 eax, DWORD PTR [esi+636]
  0007c	6a 00		 push	 0
  0007e	50		 push	 eax
  0007f	ff 15 00 00 00
	00		 call	 DWORD PTR __imp_?GetSingleton@ioSoundManager@@SAAAV1@XZ
  00085	8b c8		 mov	 ecx, eax
  00087	ff 15 00 00 00
	00		 call	 DWORD PTR __imp_?PlaySoundA@ioSoundManager@@QAEKABVioHashString@@HK@Z
$LN1@OnPage2:

; 630  : 	}
; 631  : 
; 632  : 	m_pWndGolds->HideWnd();

  0008d	8b 8e 88 01 00
	00		 mov	 ecx, DWORD PTR [esi+392]
  00093	ff d3		 call	 ebx

; 633  : 	m_pWndEtcs->HideWnd();

  00095	8b 8e 9c 01 00
	00		 mov	 ecx, DWORD PTR [esi+412]
  0009b	ff d3		 call	 ebx

; 634  : 
; 635  :  	m_pWndItem->SetWndPos( 0, -27 );

  0009d	8b 8e 7c 01 00
	00		 mov	 ecx, DWORD PTR [esi+380]
  000a3	6a e5		 push	 -27			; ffffffe5H
  000a5	6a 00		 push	 0
  000a7	ff 15 00 00 00
	00		 call	 DWORD PTR __imp_?SetWndPos@ioWnd@@QAEXHH@Z

; 636  :  	m_pWndName->SetWndPos( 0, 22 );

  000ad	8b 8e 74 01 00
	00		 mov	 ecx, DWORD PTR [esi+372]
  000b3	6a 16		 push	 22			; 00000016H
  000b5	6a 00		 push	 0
  000b7	ff 15 00 00 00
	00		 call	 DWORD PTR __imp_?SetWndPos@ioWnd@@QAEXHH@Z

; 637  : 	m_pWndCount->ShowWnd();

  000bd	8b 8e 78 01 00
	00		 mov	 ecx, DWORD PTR [esi+376]
  000c3	ff d7		 call	 edi

; 638  : 
; 639  : 	m_pWndInfo2->ShowWnd();

  000c5	8b 8e 84 01 00
	00		 mov	 ecx, DWORD PTR [esi+388]
  000cb	ff d7		 call	 edi

; 640  : 	m_pWndInfo1->HideWnd();

  000cd	8b 8e 80 01 00
	00		 mov	 ecx, DWORD PTR [esi+384]
  000d3	ff d3		 call	 ebx
  000d5	5f		 pop	 edi
  000d6	5e		 pop	 esi
  000d7	5b		 pop	 ebx

; 641  : }

  000d8	c3		 ret	 0
?OnPage2@PopupStoreWnd@@QAEXXZ ENDP			; PopupStoreWnd::OnPage2
_TEXT	ENDS
PUBLIC	__$ArrayPad$
PUBLIC	?iwm_command@PopupStoreWnd@@UAEXPAVioWnd@@HK@Z	; PopupStoreWnd::iwm_command
EXTRN	??1SP2Packet@@UAE@XZ:PROC			; SP2Packet::~SP2Packet
EXTRN	?SendToServer@TCPNetwork@@YAXAAVSP2Packet@@@Z:PROC ; TCPNetwork::SendToServer
EXTRN	??6SP2Packet@@QAEAAV0@H@Z:PROC			; SP2Packet::operator<<
EXTRN	??0SP2Packet@@QAE@K@Z:PROC			; SP2Packet::SP2Packet
EXTRN	?MouseBusy@TCPNetwork@@YAX_N@Z:PROC		; TCPNetwork::MouseBusy
EXTRN	__imp_?GetID@ioWnd@@QBEKXZ:PROC
EXTRN	__imp_?UpdateBindFunction@ioWnd@@QAEXK@Z:PROC
EXTRN	__imp_?IsBind@ioWnd@@QAE_NXZ:PROC
EXTRN	__chkstk:PROC
;	COMDAT xdata$x
xdata$x	SEGMENT
__unwindtable$?iwm_command@PopupStoreWnd@@UAEXPAVioWnd@@HK@Z DD 0ffffffffH
	DD	FLAT:__unwindfunclet$?iwm_command@PopupStoreWnd@@UAEXPAVioWnd@@HK@Z$0
__ehfuncinfo$?iwm_command@PopupStoreWnd@@UAEXPAVioWnd@@HK@Z DD 019930522H
	DD	01H
	DD	FLAT:__unwindtable$?iwm_command@PopupStoreWnd@@UAEXPAVioWnd@@HK@Z
	DD	2 DUP(00H)
	DD	2 DUP(00H)
	DD	00H
	DD	01H
; Function compile flags: /Ogsp
xdata$x	ENDS
;	COMDAT ?iwm_command@PopupStoreWnd@@UAEXPAVioWnd@@HK@Z
_TEXT	SEGMENT
_kPacket$510462 = -32808				; size = 32792
__$ArrayPad$ = -16					; size = 4
__$EHRec$ = -12						; size = 12
_pWnd$ = 8						; size = 4
_cmd$ = 12						; size = 4
_param$ = 16						; size = 4
?iwm_command@PopupStoreWnd@@UAEXPAVioWnd@@HK@Z PROC	; PopupStoreWnd::iwm_command, COMDAT
; _this$ = ecx

; 644  : {

  00000	55		 push	 ebp
  00001	8b ec		 mov	 ebp, esp
  00003	6a ff		 push	 -1
  00005	68 00 00 00 00	 push	 __ehhandler$?iwm_command@PopupStoreWnd@@UAEXPAVioWnd@@HK@Z
  0000a	64 a1 00 00 00
	00		 mov	 eax, DWORD PTR fs:0
  00010	50		 push	 eax
  00011	b8 1c 80 00 00	 mov	 eax, 32796		; 0000801cH
  00016	e8 00 00 00 00	 call	 __chkstk
  0001b	a1 00 00 00 00	 mov	 eax, DWORD PTR ___security_cookie
  00020	33 c5		 xor	 eax, ebp
  00022	89 45 f0	 mov	 DWORD PTR __$ArrayPad$[ebp], eax
  00025	56		 push	 esi
  00026	57		 push	 edi
  00027	50		 push	 eax
  00028	8d 45 f4	 lea	 eax, DWORD PTR __$EHRec$[ebp]
  0002b	64 a3 00 00 00
	00		 mov	 DWORD PTR fs:0, eax
  00031	8b 7d 08	 mov	 edi, DWORD PTR _pWnd$[ebp]
  00034	8b f1		 mov	 esi, ecx

; 645  : 	if( pWnd->IsBind() )

  00036	8b cf		 mov	 ecx, edi
  00038	ff 15 00 00 00
	00		 call	 DWORD PTR __imp_?IsBind@ioWnd@@QAE_NXZ
  0003e	84 c0		 test	 al, al
  00040	74 0b		 je	 SHORT $LN10@iwm_comman

; 646  : 	{
; 647  : 		pWnd->UpdateBindFunction( cmd );

  00042	ff 75 0c	 push	 DWORD PTR _cmd$[ebp]
  00045	8b cf		 mov	 ecx, edi
  00047	ff 15 00 00 00
	00		 call	 DWORD PTR __imp_?UpdateBindFunction@ioWnd@@QAEXK@Z
$LN10@iwm_comman:

; 648  : 	}
; 649  : 
; 650  : 	if( pWnd->GetID() == MESSAGE_BOX )

  0004d	8b cf		 mov	 ecx, edi
  0004f	ff 15 00 00 00
	00		 call	 DWORD PTR __imp_?GetID@ioWnd@@QBEKXZ
  00055	3d 10 27 00 00	 cmp	 eax, 10000		; 00002710H
  0005a	75 7c		 jne	 SHORT $LN1@iwm_comman

; 651  : 	{
; 652  : 		if( m_iMsgType == eMsgClose )

  0005c	8b 86 14 03 00
	00		 mov	 eax, DWORD PTR [esi+788]
  00062	85 c0		 test	 eax, eax
  00064	75 06		 jne	 SHORT $LN8@iwm_comman

; 653  : 		{
; 654  : 			if( param == IDYES )

  00066	83 7d 10 06	 cmp	 DWORD PTR _param$[ebp], 6

; 655  : 				HideWnd();
; 656  : 		}

  0006a	eb 62		 jmp	 SHORT $LN15@iwm_comman
$LN8@iwm_comman:

; 657  : 		else if( m_iMsgType == eMsgRealBuy )

  0006c	83 f8 01	 cmp	 eax, 1
  0006f	75 5a		 jne	 SHORT $LN5@iwm_comman

; 658  : 		{
; 659  : 			if( param == IDYES )

  00071	83 7d 10 06	 cmp	 DWORD PTR _param$[ebp], 6
  00075	75 61		 jne	 SHORT $LN1@iwm_comman

; 660  : 			{
; 661  : 				if( m_iPopupIndex == 0 )

  00077	83 be 18 03 00
	00 00		 cmp	 DWORD PTR [esi+792], 0
  0007e	74 58		 je	 SHORT $LN1@iwm_comman

; 662  : 					return;
; 663  : 
; 664  : 				TCPNetwork::MouseBusy( true );

  00080	50		 push	 eax
  00081	e8 00 00 00 00	 call	 ?MouseBusy@TCPNetwork@@YAX_N@Z ; TCPNetwork::MouseBusy

; 665  : 				SP2Packet kPacket( CTPK_POPUP_ITEM_BUY );

  00086	8d 8d d8 7f ff
	ff		 lea	 ecx, DWORD PTR _kPacket$510462[ebp]
  0008c	c7 04 24 50 03
	00 00		 mov	 DWORD PTR [esp], 848	; 00000350H
  00093	e8 00 00 00 00	 call	 ??0SP2Packet@@QAE@K@Z	; SP2Packet::SP2Packet

; 666  : 				kPacket << m_iPopupIndex;

  00098	ff b6 18 03 00
	00		 push	 DWORD PTR [esi+792]
  0009e	83 65 fc 00	 and	 DWORD PTR __$EHRec$[ebp+8], 0
  000a2	8d 8d d8 7f ff
	ff		 lea	 ecx, DWORD PTR _kPacket$510462[ebp]
  000a8	e8 00 00 00 00	 call	 ??6SP2Packet@@QAEAAV0@H@Z ; SP2Packet::operator<<

; 667  : 				TCPNetwork::SendToServer( kPacket );

  000ad	8d 85 d8 7f ff
	ff		 lea	 eax, DWORD PTR _kPacket$510462[ebp]
  000b3	50		 push	 eax
  000b4	e8 00 00 00 00	 call	 ?SendToServer@TCPNetwork@@YAXAAVSP2Packet@@@Z ; TCPNetwork::SendToServer

; 668  : 			}

  000b9	83 4d fc ff	 or	 DWORD PTR __$EHRec$[ebp+8], -1
  000bd	59		 pop	 ecx
  000be	8d 8d d8 7f ff
	ff		 lea	 ecx, DWORD PTR _kPacket$510462[ebp]
  000c4	e8 00 00 00 00	 call	 ??1SP2Packet@@UAE@XZ	; SP2Packet::~SP2Packet

; 669  : 		}

  000c9	eb 0d		 jmp	 SHORT $LN1@iwm_comman
$LN5@iwm_comman:

; 670  : 		else if( m_iMsgType == eMsgError )

  000cb	83 f8 02	 cmp	 eax, 2
$LN15@iwm_comman:
  000ce	75 08		 jne	 SHORT $LN1@iwm_comman

; 671  : 		{
; 672  : 			HideWnd();

  000d0	8b ce		 mov	 ecx, esi
  000d2	ff 15 00 00 00
	00		 call	 DWORD PTR __imp_?HideWnd@ioWnd@@QAEXXZ
$LN1@iwm_comman:

; 673  : 		}
; 674  : 	}
; 675  : }

  000d8	8b 4d f4	 mov	 ecx, DWORD PTR __$EHRec$[ebp]
  000db	64 89 0d 00 00
	00 00		 mov	 DWORD PTR fs:0, ecx
  000e2	59		 pop	 ecx
  000e3	5f		 pop	 edi
  000e4	5e		 pop	 esi
  000e5	8b 4d f0	 mov	 ecx, DWORD PTR __$ArrayPad$[ebp]
  000e8	33 cd		 xor	 ecx, ebp
  000ea	e8 00 00 00 00	 call	 @__security_check_cookie@4
  000ef	c9		 leave
  000f0	c2 0c 00	 ret	 12			; 0000000cH
_TEXT	ENDS
;	COMDAT text$x
text$x	SEGMENT
__unwindfunclet$?iwm_command@PopupStoreWnd@@UAEXPAVioWnd@@HK@Z$0:
  00000	8d 8d d8 7f ff
	ff		 lea	 ecx, DWORD PTR _kPacket$510462[ebp]
  00006	e9 00 00 00 00	 jmp	 ??1SP2Packet@@UAE@XZ	; SP2Packet::~SP2Packet
__ehhandler$?iwm_command@PopupStoreWnd@@UAEXPAVioWnd@@HK@Z:
  0000b	8b 54 24 08	 mov	 edx, DWORD PTR [esp+8]
  0000f	8d 42 0c	 lea	 eax, DWORD PTR [edx+12]
  00012	8b 8a d8 7f ff
	ff		 mov	 ecx, DWORD PTR [edx-32808]
  00018	33 c8		 xor	 ecx, eax
  0001a	e8 00 00 00 00	 call	 @__security_check_cookie@4
  0001f	8b 4a fc	 mov	 ecx, DWORD PTR [edx-4]
  00022	33 c8		 xor	 ecx, eax
  00024	e8 00 00 00 00	 call	 @__security_check_cookie@4
  00029	b8 00 00 00 00	 mov	 eax, OFFSET __ehfuncinfo$?iwm_command@PopupStoreWnd@@UAEXPAVioWnd@@HK@Z
  0002e	e9 00 00 00 00	 jmp	 ___CxxFrameHandler3
text$x	ENDS
?iwm_command@PopupStoreWnd@@UAEXPAVioWnd@@HK@Z ENDP	; PopupStoreWnd::iwm_command
PUBLIC	?OnBtnClose@PopupStoreWnd@@QAEHXZ		; PopupStoreWnd::OnBtnClose
; Function compile flags: /Ogsp
;	COMDAT ?OnBtnClose@PopupStoreWnd@@QAEHXZ
_TEXT	SEGMENT
?OnBtnClose@PopupStoreWnd@@QAEHXZ PROC			; PopupStoreWnd::OnBtnClose, COMDAT
; _this$ = ecx

; 679  : 	HideWnd();

  00000	ff 15 00 00 00
	00		 call	 DWORD PTR __imp_?HideWnd@ioWnd@@QAEXXZ

; 680  : 	
; 681  : 	return 1;

  00006	33 c0		 xor	 eax, eax
  00008	40		 inc	 eax

; 682  : }

  00009	c3		 ret	 0
?OnBtnClose@PopupStoreWnd@@QAEHXZ ENDP			; PopupStoreWnd::OnBtnClose
_TEXT	ENDS
PUBLIC	?iwm_esc@PopupStoreWnd@@UAE_NXZ			; PopupStoreWnd::iwm_esc
; Function compile flags: /Ogsp
;	COMDAT ?iwm_esc@PopupStoreWnd@@UAE_NXZ
_TEXT	SEGMENT
?iwm_esc@PopupStoreWnd@@UAE_NXZ PROC			; PopupStoreWnd::iwm_esc, COMDAT
; _this$ = ecx

; 695  : 	return true;

  00000	b0 01		 mov	 al, 1

; 696  : }

  00002	c3		 ret	 0
?iwm_esc@PopupStoreWnd@@UAE_NXZ ENDP			; PopupStoreWnd::iwm_esc
_TEXT	ENDS
PUBLIC	?OnChanceAfter@PopupStoreWnd@@QAEXXZ		; PopupStoreWnd::OnChanceAfter
; Function compile flags: /Ogsp
;	COMDAT ?OnChanceAfter@PopupStoreWnd@@QAEXXZ
_TEXT	SEGMENT
?OnChanceAfter@PopupStoreWnd@@QAEXXZ PROC		; PopupStoreWnd::OnChanceAfter, COMDAT
; _this$ = ecx

; 699  : {

  00000	56		 push	 esi
  00001	8b f1		 mov	 esi, ecx

; 700  : 	m_bSubPopup = false;
; 701  : 	ioWnd* pBaseWnd = FindChildWnd(eID_BASE);

  00003	6a 00		 push	 0
  00005	c6 86 0c 03 00
	00 00		 mov	 BYTE PTR [esi+780], 0
  0000c	ff 15 00 00 00
	00		 call	 DWORD PTR __imp_?FindChildWnd@ioWnd@@QAEPAV1@K@Z

; 702  : 	pBaseWnd->ShowWnd();

  00012	8b c8		 mov	 ecx, eax
  00014	ff 15 00 00 00
	00		 call	 DWORD PTR __imp_?ShowWnd@ioWnd@@QAEXXZ

; 703  : 
; 704  : 	m_pEffectItem[eEffectSub]->Stop();

  0001a	8b 8e c4 01 00
	00		 mov	 ecx, DWORD PTR [esi+452]
  00020	ff 15 00 00 00
	00		 call	 DWORD PTR __imp_?Stop@ioUI3DEffectRender@@QAEXXZ

; 705  : 
; 706  : 	if( m_bPage )

  00026	80 be 0d 03 00
	00 00		 cmp	 BYTE PTR [esi+781], 0

; 707  : 		OnPage1();

  0002d	8b ce		 mov	 ecx, esi
  0002f	5e		 pop	 esi
  00030	74 05		 je	 SHORT $LN2@OnChanceAf
  00032	e9 00 00 00 00	 jmp	 ?OnPage1@PopupStoreWnd@@QAEXXZ ; PopupStoreWnd::OnPage1
$LN2@OnChanceAf:

; 708  : 	else
; 709  : 		OnPage2();

  00037	e9 00 00 00 00	 jmp	 ?OnPage2@PopupStoreWnd@@QAEXXZ ; PopupStoreWnd::OnPage2
?OnChanceAfter@PopupStoreWnd@@QAEXXZ ENDP		; PopupStoreWnd::OnChanceAfter
_TEXT	ENDS
PUBLIC	??_7PopupStoreSubWnd@@6B@			; PopupStoreSubWnd::`vftable'
PUBLIC	??0PopupStoreSubWnd@@QAE@XZ			; PopupStoreSubWnd::PopupStoreSubWnd
PUBLIC	??_R4PopupStoreSubWnd@@6B@			; PopupStoreSubWnd::`RTTI Complete Object Locator'
PUBLIC	??_R0?AVPopupStoreSubWnd@@@8			; PopupStoreSubWnd `RTTI Type Descriptor'
PUBLIC	??_R3PopupStoreSubWnd@@8			; PopupStoreSubWnd::`RTTI Class Hierarchy Descriptor'
PUBLIC	??_R2PopupStoreSubWnd@@8			; PopupStoreSubWnd::`RTTI Base Class Array'
PUBLIC	??_R1A@?0A@EA@PopupStoreSubWnd@@8		; PopupStoreSubWnd::`RTTI Base Class Descriptor at (0,-1,0,64)'
PUBLIC	??_R1A@?0A@EA@ioWnd@@8				; ioWnd::`RTTI Base Class Descriptor at (0,-1,0,64)'
PUBLIC	??_R3ioWnd@@8					; ioWnd::`RTTI Class Hierarchy Descriptor'
PUBLIC	??_R2ioWnd@@8					; ioWnd::`RTTI Base Class Array'
PUBLIC	?iwm_create@PopupStoreSubWnd@@UAEXXZ		; PopupStoreSubWnd::iwm_create
PUBLIC	?iwm_show@PopupStoreSubWnd@@UAEXXZ		; PopupStoreSubWnd::iwm_show
PUBLIC	?iwm_hide@PopupStoreSubWnd@@UAEXXZ		; PopupStoreSubWnd::iwm_hide
EXTRN	__imp_??0ioWnd@@QAE@XZ:PROC
EXTRN	?AddRenderFrame@ioWnd@@UAEXABVioHashString@@PAVioUIRenderFrame@@@Z:PROC ; ioWnd::AddRenderFrame
EXTRN	?AddRenderImage@ioWnd@@UAEXABVioHashString@@PAVioUIRenderImage@@@Z:PROC ; ioWnd::AddRenderImage
EXTRN	?AddTooltipHelp@ioWnd@@UAEXABVioHashString@@00@Z:PROC ; ioWnd::AddTooltipHelp
EXTRN	?ParseExtraInfo@ioWnd@@UAEXAAVioXMLElement@@@Z:PROC ; ioWnd::ParseExtraInfo
EXTRN	?AddNamedRenderImage@ioWnd@@UAEXABVioHashString@@PAVioUIRenderImage@@@Z:PROC ; ioWnd::AddNamedRenderImage
EXTRN	?RemoveNamedRenderImage@ioWnd@@UAEXABVioHashString@@@Z:PROC ; ioWnd::RemoveNamedRenderImage
EXTRN	?GetNamedRenderImage@ioWnd@@UBEPAVioUIRenderImage@@ABVioHashString@@@Z:PROC ; ioWnd::GetNamedRenderImage
EXTRN	?SetWindowAlpha@ioWnd@@UAEXH@Z:PROC		; ioWnd::SetWindowAlpha
EXTRN	?SetActive@ioWnd@@UAEXXZ:PROC			; ioWnd::SetActive
EXTRN	?SetInActive@ioWnd@@UAEXXZ:PROC			; ioWnd::SetInActive
EXTRN	?ClearElementImageList@ioWnd@@UAEXXZ:PROC	; ioWnd::ClearElementImageList
EXTRN	?SetSize@ioWnd@@UAEXHH@Z:PROC			; ioWnd::SetSize
EXTRN	?SetPositionToDefault@ioWnd@@UAEXHH_N0@Z:PROC	; ioWnd::SetPositionToDefault
EXTRN	?IsNeedProcess@ioWnd@@UBE_NXZ:PROC		; ioWnd::IsNeedProcess
EXTRN	?IsCanMouseReaction@ioWnd@@UBE_NXZ:PROC		; ioWnd::IsCanMouseReaction
EXTRN	?AddChild@ioWnd@@UAEXPAV1@@Z:PROC		; ioWnd::AddChild
EXTRN	?DeleteChild@ioWnd@@UAEXK@Z:PROC		; ioWnd::DeleteChild
EXTRN	?DeleteAllChild@ioWnd@@UAEXXZ:PROC		; ioWnd::DeleteAllChild
EXTRN	?OnRenderShowAndHide@ioWnd@@MAE_NXZ:PROC	; ioWnd::OnRenderShowAndHide
EXTRN	?OnRenderShowAndHideByDefault@ioWnd@@MAE_NK@Z:PROC ; ioWnd::OnRenderShowAndHideByDefault
EXTRN	?OnRenderShowAndHideByTop@ioWnd@@MAE_NK@Z:PROC	; ioWnd::OnRenderShowAndHideByTop
EXTRN	?OnRenderShowAndHideByDown@ioWnd@@MAE_NK@Z:PROC	; ioWnd::OnRenderShowAndHideByDown
EXTRN	?OnRender@ioWnd@@MAEXXZ:PROC			; ioWnd::OnRender
EXTRN	?OnRenderAfterChild@ioWnd@@MAEXXZ:PROC		; ioWnd::OnRenderAfterChild
EXTRN	?OnProcess@ioWnd@@MAEXM@Z:PROC			; ioWnd::OnProcess
EXTRN	?OnMouseProcess@ioWnd@@MAEXABVioMouse@@@Z:PROC	; ioWnd::OnMouseProcess
EXTRN	?CheckFrameReSize@ioWnd@@MAEXHHHH@Z:PROC	; ioWnd::CheckFrameReSize
EXTRN	?RenderImageList@ioWnd@@MAEXHHW4UIRenderType@@@Z:PROC ; ioWnd::RenderImageList
EXTRN	?iwm_destroy@ioWnd@@UAEXXZ:PROC			; ioWnd::iwm_destroy
EXTRN	?iwm_lbuttondown@ioWnd@@UAEXABVioMouse@@@Z:PROC	; ioWnd::iwm_lbuttondown
EXTRN	?iwm_lbuttonup@ioWnd@@UAEXABVioMouse@@@Z:PROC	; ioWnd::iwm_lbuttonup
EXTRN	?iwm_lbuttonDBLCLK@ioWnd@@UAEXABVioMouse@@@Z:PROC ; ioWnd::iwm_lbuttonDBLCLK
EXTRN	?iwm_rbuttondown@ioWnd@@UAEXABVioMouse@@@Z:PROC	; ioWnd::iwm_rbuttondown
EXTRN	?iwm_rbuttonup@ioWnd@@UAEXABVioMouse@@@Z:PROC	; ioWnd::iwm_rbuttonup
EXTRN	?iwm_command@ioWnd@@UAEXPAV1@HK@Z:PROC		; ioWnd::iwm_command
EXTRN	?iwm_mouseover@ioWnd@@UAEXABVioMouse@@@Z:PROC	; ioWnd::iwm_mouseover
EXTRN	?iwm_mousemove@ioWnd@@UAEXABVioMouse@@@Z:PROC	; ioWnd::iwm_mousemove
EXTRN	?iwm_mouseleave@ioWnd@@UAEXABVioMouse@@@Z:PROC	; ioWnd::iwm_mouseleave
EXTRN	?iwm_vscroll@ioWnd@@UAEXKH@Z:PROC		; ioWnd::iwm_vscroll
EXTRN	?iwm_wheel@ioWnd@@UAEXH@Z:PROC			; ioWnd::iwm_wheel
EXTRN	?iwm_esc@ioWnd@@UAE_NXZ:PROC			; ioWnd::iwm_esc
EXTRN	?iwm_spacebar@ioWnd@@UAE_NXZ:PROC		; ioWnd::iwm_spacebar
EXTRN	?iwm_gototop@ioWnd@@UAEXXZ:PROC			; ioWnd::iwm_gototop
EXTRN	?iwm_dragenter@ioWnd@@UAE?AW4IWDropEffect@@PAVioDragItem@@ABVioMouse@@@Z:PROC ; ioWnd::iwm_dragenter
EXTRN	?iwm_dragover@ioWnd@@UAE?AW4IWDropEffect@@PAVioDragItem@@ABVioMouse@@@Z:PROC ; ioWnd::iwm_dragover
EXTRN	?iwm_dragleave@ioWnd@@UAEXXZ:PROC		; ioWnd::iwm_dragleave
EXTRN	?iwm_dropitem@ioWnd@@UAE_NPAVioDragItem@@ABVioMouse@@PAV1@@Z:PROC ; ioWnd::iwm_dropitem
EXTRN	?iwm_dropdone@ioWnd@@UAEXPAVioDragItem@@PAV1@_N@Z:PROC ; ioWnd::iwm_dropdone
EXTRN	?IsEXType@ioWnd@@UBE_NXZ:PROC			; ioWnd::IsEXType
EXTRN	?GetWndType@ioWnd@@UBEKXZ:PROC			; ioWnd::GetWndType
EXTRN	?RenderWnd@ioWnd@@UAEXXZ:PROC			; ioWnd::RenderWnd
EXTRN	?SetIDEX@ioWnd@@UAEXAAK_N@Z:PROC		; ioWnd::SetIDEX
EXTRN	?ParseXML@ioWnd@@UAEXAAVioXMLElement@@@Z:PROC	; ioWnd::ParseXML
EXTRN	?GetHeaderFileName@ioWnd@@UAEPBDXZ:PROC		; ioWnd::GetHeaderFileName
EXTRN	?GetTemplateName@ioWnd@@UAEPBDXZ:PROC		; ioWnd::GetTemplateName
EXTRN	?GetDefClassName@ioWnd@@UBEPBDXZ:PROC		; ioWnd::GetDefClassName
EXTRN	?_Clone@ioWnd@@UAEPAV1@XZ:PROC			; ioWnd::_Clone
EXTRN	?Copy@ioWnd@@UAEXPAV1@@Z:PROC			; ioWnd::Copy
EXTRN	?Save@ioWnd@@UAE_NAAVioXMLElement@@@Z:PROC	; ioWnd::Save
EXTRN	?SetSaveData@ioWnd@@UAEXAAVioXMLElement@@@Z:PROC ; ioWnd::SetSaveData
EXTRN	?SetPosX@ioWnd@@UAEXH@Z:PROC			; ioWnd::SetPosX
EXTRN	?SetPosY@ioWnd@@UAEXH@Z:PROC			; ioWnd::SetPosY
EXTRN	?SetWidth@ioWnd@@UAEXH@Z:PROC			; ioWnd::SetWidth
EXTRN	?SetHeight@ioWnd@@UAEXH@Z:PROC			; ioWnd::SetHeight
EXTRN	?GetNumFixedRenderFrame@ioWnd@@UBEHXZ:PROC	; ioWnd::GetNumFixedRenderFrame
EXTRN	?GetFixedRenderFrameType@ioWnd@@UAEPBDH@Z:PROC	; ioWnd::GetFixedRenderFrameType
EXTRN	?GetRenderFrame@ioWnd@@UAEPAPAVioUIRenderElement@@PBD@Z:PROC ; ioWnd::GetRenderFrame
EXTRN	?GetNumFixedRenderImage@ioWnd@@UBEHXZ:PROC	; ioWnd::GetNumFixedRenderImage
EXTRN	?GetFixedRenderImageType@ioWnd@@UAEPBDH@Z:PROC	; ioWnd::GetFixedRenderImageType
EXTRN	?GetRenderImage@ioWnd@@UAEPAPAVioUIRenderElement@@PBD@Z:PROC ; ioWnd::GetRenderImage
EXTRN	?AddEffect@ioWnd@@UAEXABVioHashString@@PAVioUI3DEffectRender@@@Z:PROC ; ioWnd::AddEffect
EXTRN	?GetEffect@ioWnd@@UAEPAVioUI3DEffectRender@@VioHashString@@@Z:PROC ; ioWnd::GetEffect
EXTRN	??_EPopupStoreSubWnd@@UAEPAXI@Z:PROC		; PopupStoreSubWnd::`vector deleting destructor'
;	COMDAT ??_R2ioWnd@@8
rdata$r	SEGMENT
??_R2ioWnd@@8 DD FLAT:??_R1A@?0A@EA@ioWnd@@8		; ioWnd::`RTTI Base Class Array'
rdata$r	ENDS
;	COMDAT ??_R3ioWnd@@8
rdata$r	SEGMENT
??_R3ioWnd@@8 DD 00H					; ioWnd::`RTTI Class Hierarchy Descriptor'
	DD	00H
	DD	01H
	DD	FLAT:??_R2ioWnd@@8
rdata$r	ENDS
;	COMDAT ??_R1A@?0A@EA@ioWnd@@8
rdata$r	SEGMENT
??_R1A@?0A@EA@ioWnd@@8 DD FLAT:??_R0?AVioWnd@@@8	; ioWnd::`RTTI Base Class Descriptor at (0,-1,0,64)'
	DD	00H
	DD	00H
	DD	0ffffffffH
	DD	00H
	DD	040H
	DD	FLAT:??_R3ioWnd@@8
rdata$r	ENDS
;	COMDAT ??_R1A@?0A@EA@PopupStoreSubWnd@@8
rdata$r	SEGMENT
??_R1A@?0A@EA@PopupStoreSubWnd@@8 DD FLAT:??_R0?AVPopupStoreSubWnd@@@8 ; PopupStoreSubWnd::`RTTI Base Class Descriptor at (0,-1,0,64)'
	DD	01H
	DD	00H
	DD	0ffffffffH
	DD	00H
	DD	040H
	DD	FLAT:??_R3PopupStoreSubWnd@@8
rdata$r	ENDS
;	COMDAT ??_R2PopupStoreSubWnd@@8
rdata$r	SEGMENT
??_R2PopupStoreSubWnd@@8 DD FLAT:??_R1A@?0A@EA@PopupStoreSubWnd@@8 ; PopupStoreSubWnd::`RTTI Base Class Array'
	DD	FLAT:??_R1A@?0A@EA@ioWnd@@8
rdata$r	ENDS
;	COMDAT ??_R3PopupStoreSubWnd@@8
rdata$r	SEGMENT
??_R3PopupStoreSubWnd@@8 DD 00H				; PopupStoreSubWnd::`RTTI Class Hierarchy Descriptor'
	DD	00H
	DD	02H
	DD	FLAT:??_R2PopupStoreSubWnd@@8
rdata$r	ENDS
;	COMDAT ??_R0?AVPopupStoreSubWnd@@@8
_DATA	SEGMENT
??_R0?AVPopupStoreSubWnd@@@8 DD FLAT:??_7type_info@@6B@	; PopupStoreSubWnd `RTTI Type Descriptor'
	DD	00H
	DB	'.?AVPopupStoreSubWnd@@', 00H
_DATA	ENDS
;	COMDAT ??_R4PopupStoreSubWnd@@6B@
rdata$r	SEGMENT
??_R4PopupStoreSubWnd@@6B@ DD 00H			; PopupStoreSubWnd::`RTTI Complete Object Locator'
	DD	00H
	DD	00H
	DD	FLAT:??_R0?AVPopupStoreSubWnd@@@8
	DD	FLAT:??_R3PopupStoreSubWnd@@8
rdata$r	ENDS
;	COMDAT ??_7PopupStoreSubWnd@@6B@
CONST	SEGMENT
??_7PopupStoreSubWnd@@6B@ DD FLAT:??_R4PopupStoreSubWnd@@6B@ ; PopupStoreSubWnd::`vftable'
	DD	FLAT:?AddRenderFrame@ioWnd@@UAEXABVioHashString@@PAVioUIRenderFrame@@@Z
	DD	FLAT:?AddRenderImage@ioWnd@@UAEXABVioHashString@@PAVioUIRenderImage@@@Z
	DD	FLAT:?AddTooltipHelp@ioWnd@@UAEXABVioHashString@@00@Z
	DD	FLAT:?ParseExtraInfo@ioWnd@@UAEXAAVioXMLElement@@@Z
	DD	FLAT:?AddNamedRenderImage@ioWnd@@UAEXABVioHashString@@PAVioUIRenderImage@@@Z
	DD	FLAT:?RemoveNamedRenderImage@ioWnd@@UAEXABVioHashString@@@Z
	DD	FLAT:?GetNamedRenderImage@ioWnd@@UBEPAVioUIRenderImage@@ABVioHashString@@@Z
	DD	FLAT:?SetWindowAlpha@ioWnd@@UAEXH@Z
	DD	FLAT:?SetActive@ioWnd@@UAEXXZ
	DD	FLAT:?SetInActive@ioWnd@@UAEXXZ
	DD	FLAT:?ClearElementImageList@ioWnd@@UAEXXZ
	DD	FLAT:?SetSize@ioWnd@@UAEXHH@Z
	DD	FLAT:?SetPositionToDefault@ioWnd@@UAEXHH_N0@Z
	DD	FLAT:?IsNeedProcess@ioWnd@@UBE_NXZ
	DD	FLAT:?IsCanMouseReaction@ioWnd@@UBE_NXZ
	DD	FLAT:?AddChild@ioWnd@@UAEXPAV1@@Z
	DD	FLAT:?DeleteChild@ioWnd@@UAEXK@Z
	DD	FLAT:?DeleteAllChild@ioWnd@@UAEXXZ
	DD	FLAT:?OnRenderShowAndHide@ioWnd@@MAE_NXZ
	DD	FLAT:?OnRenderShowAndHideByDefault@ioWnd@@MAE_NK@Z
	DD	FLAT:?OnRenderShowAndHideByTop@ioWnd@@MAE_NK@Z
	DD	FLAT:?OnRenderShowAndHideByDown@ioWnd@@MAE_NK@Z
	DD	FLAT:?OnRender@ioWnd@@MAEXXZ
	DD	FLAT:?OnRenderAfterChild@ioWnd@@MAEXXZ
	DD	FLAT:?OnProcess@ioWnd@@MAEXM@Z
	DD	FLAT:?OnMouseProcess@ioWnd@@MAEXABVioMouse@@@Z
	DD	FLAT:?CheckFrameReSize@ioWnd@@MAEXHHHH@Z
	DD	FLAT:?RenderImageList@ioWnd@@MAEXHHW4UIRenderType@@@Z
	DD	FLAT:?iwm_create@PopupStoreSubWnd@@UAEXXZ
	DD	FLAT:?iwm_destroy@ioWnd@@UAEXXZ
	DD	FLAT:?iwm_lbuttondown@ioWnd@@UAEXABVioMouse@@@Z
	DD	FLAT:?iwm_lbuttonup@ioWnd@@UAEXABVioMouse@@@Z
	DD	FLAT:?iwm_lbuttonDBLCLK@ioWnd@@UAEXABVioMouse@@@Z
	DD	FLAT:?iwm_rbuttondown@ioWnd@@UAEXABVioMouse@@@Z
	DD	FLAT:?iwm_rbuttonup@ioWnd@@UAEXABVioMouse@@@Z
	DD	FLAT:?iwm_command@ioWnd@@UAEXPAV1@HK@Z
	DD	FLAT:?iwm_mouseover@ioWnd@@UAEXABVioMouse@@@Z
	DD	FLAT:?iwm_mousemove@ioWnd@@UAEXABVioMouse@@@Z
	DD	FLAT:?iwm_mouseleave@ioWnd@@UAEXABVioMouse@@@Z
	DD	FLAT:?iwm_vscroll@ioWnd@@UAEXKH@Z
	DD	FLAT:?iwm_wheel@ioWnd@@UAEXH@Z
	DD	FLAT:?iwm_show@PopupStoreSubWnd@@UAEXXZ
	DD	FLAT:?iwm_hide@PopupStoreSubWnd@@UAEXXZ
	DD	FLAT:?iwm_esc@ioWnd@@UAE_NXZ
	DD	FLAT:?iwm_spacebar@ioWnd@@UAE_NXZ
	DD	FLAT:?iwm_gototop@ioWnd@@UAEXXZ
	DD	FLAT:?iwm_dragenter@ioWnd@@UAE?AW4IWDropEffect@@PAVioDragItem@@ABVioMouse@@@Z
	DD	FLAT:?iwm_dragover@ioWnd@@UAE?AW4IWDropEffect@@PAVioDragItem@@ABVioMouse@@@Z
	DD	FLAT:?iwm_dragleave@ioWnd@@UAEXXZ
	DD	FLAT:?iwm_dropitem@ioWnd@@UAE_NPAVioDragItem@@ABVioMouse@@PAV1@@Z
	DD	FLAT:?iwm_dropdone@ioWnd@@UAEXPAVioDragItem@@PAV1@_N@Z
	DD	FLAT:?IsEXType@ioWnd@@UBE_NXZ
	DD	FLAT:?GetWndType@ioWnd@@UBEKXZ
	DD	FLAT:?RenderWnd@ioWnd@@UAEXXZ
	DD	FLAT:?SetIDEX@ioWnd@@UAEXAAK_N@Z
	DD	FLAT:?ParseXML@ioWnd@@UAEXAAVioXMLElement@@@Z
	DD	FLAT:?GetHeaderFileName@ioWnd@@UAEPBDXZ
	DD	FLAT:?GetTemplateName@ioWnd@@UAEPBDXZ
	DD	FLAT:?GetDefClassName@ioWnd@@UBEPBDXZ
	DD	FLAT:?_Clone@ioWnd@@UAEPAV1@XZ
	DD	FLAT:?Copy@ioWnd@@UAEXPAV1@@Z
	DD	FLAT:?Save@ioWnd@@UAE_NAAVioXMLElement@@@Z
	DD	FLAT:?SetSaveData@ioWnd@@UAEXAAVioXMLElement@@@Z
	DD	FLAT:?SetPosX@ioWnd@@UAEXH@Z
	DD	FLAT:?SetPosY@ioWnd@@UAEXH@Z
	DD	FLAT:?SetWidth@ioWnd@@UAEXH@Z
	DD	FLAT:?SetHeight@ioWnd@@UAEXH@Z
	DD	FLAT:?GetNumFixedRenderFrame@ioWnd@@UBEHXZ
	DD	FLAT:?GetFixedRenderFrameType@ioWnd@@UAEPBDH@Z
	DD	FLAT:?GetRenderFrame@ioWnd@@UAEPAPAVioUIRenderElement@@PBD@Z
	DD	FLAT:?GetNumFixedRenderImage@ioWnd@@UBEHXZ
	DD	FLAT:?GetFixedRenderImageType@ioWnd@@UAEPBDH@Z
	DD	FLAT:?GetRenderImage@ioWnd@@UAEPAPAVioUIRenderElement@@PBD@Z
	DD	FLAT:?AddEffect@ioWnd@@UAEXABVioHashString@@PAVioUI3DEffectRender@@@Z
	DD	FLAT:?GetEffect@ioWnd@@UAEPAVioUI3DEffectRender@@VioHashString@@@Z
	DD	FLAT:??_EPopupStoreSubWnd@@UAEPAXI@Z
; Function compile flags: /Ogsp
CONST	ENDS
;	COMDAT ??0PopupStoreSubWnd@@QAE@XZ
_TEXT	SEGMENT
??0PopupStoreSubWnd@@QAE@XZ PROC			; PopupStoreSubWnd::PopupStoreSubWnd, COMDAT
; _this$ = ecx

; 716  : {

  00000	56		 push	 esi
  00001	8b f1		 mov	 esi, ecx
  00003	ff 15 00 00 00
	00		 call	 DWORD PTR __imp_??0ioWnd@@QAE@XZ
  00009	33 c0		 xor	 eax, eax
  0000b	89 86 60 01 00
	00		 mov	 DWORD PTR [esi+352], eax
  00011	89 86 64 01 00
	00		 mov	 DWORD PTR [esi+356], eax
  00017	89 86 68 01 00
	00		 mov	 DWORD PTR [esi+360], eax
  0001d	c7 06 00 00 00
	00		 mov	 DWORD PTR [esi], OFFSET ??_7PopupStoreSubWnd@@6B@

; 717  : }

  00023	8b c6		 mov	 eax, esi
  00025	5e		 pop	 esi
  00026	c3		 ret	 0
??0PopupStoreSubWnd@@QAE@XZ ENDP			; PopupStoreSubWnd::PopupStoreSubWnd
_TEXT	ENDS
PUBLIC	??1PopupStoreSubWnd@@UAE@XZ			; PopupStoreSubWnd::~PopupStoreSubWnd
EXTRN	__imp_??1ioWnd@@UAE@XZ:PROC
; Function compile flags: /Ogsp
;	COMDAT ??1PopupStoreSubWnd@@UAE@XZ
_TEXT	SEGMENT
??1PopupStoreSubWnd@@UAE@XZ PROC			; PopupStoreSubWnd::~PopupStoreSubWnd, COMDAT
; _this$ = ecx

; 720  : {

  00000	c7 01 00 00 00
	00		 mov	 DWORD PTR [ecx], OFFSET ??_7PopupStoreSubWnd@@6B@

; 721  : }

  00006	ff 25 00 00 00
	00		 jmp	 DWORD PTR __imp_??1ioWnd@@UAE@XZ
??1PopupStoreSubWnd@@UAE@XZ ENDP			; PopupStoreSubWnd::~PopupStoreSubWnd
_TEXT	ENDS
PUBLIC	??_R0?AVPopupStoreWnd@@@8			; PopupStoreWnd `RTTI Type Descriptor'
PUBLIC	?OnBtnOpen@PopupStoreSubWnd@@QAEHXZ		; PopupStoreSubWnd::OnBtnOpen
EXTRN	__imp_?EraseInModalList@ioWnd@@IAEXXZ:PROC
;	COMDAT ??_R0?AVPopupStoreWnd@@@8
; File d:\lost saga for developer\youtube\tutorial\source\src\lsclient\gui\popupstorewnd.h
_DATA	SEGMENT
??_R0?AVPopupStoreWnd@@@8 DD FLAT:??_7type_info@@6B@	; PopupStoreWnd `RTTI Type Descriptor'
	DD	00H
	DB	'.?AVPopupStoreWnd@@', 00H
; Function compile flags: /Ogsp
; File d:\lost saga for developer\youtube\tutorial\source\src\lsclient\gui\popupstorewnd.cpp
_DATA	ENDS
;	COMDAT ?OnBtnOpen@PopupStoreSubWnd@@QAEHXZ
_TEXT	SEGMENT
?OnBtnOpen@PopupStoreSubWnd@@QAEHXZ PROC		; PopupStoreSubWnd::OnBtnOpen, COMDAT
; _this$ = ecx

; 735  : {

  00000	56		 push	 esi
  00001	8b f1		 mov	 esi, ecx

; 736  : 	EraseInModalList();

  00003	ff 15 00 00 00
	00		 call	 DWORD PTR __imp_?EraseInModalList@ioWnd@@IAEXXZ

; 737  : 	HideWnd();

  00009	8b ce		 mov	 ecx, esi
  0000b	ff 15 00 00 00
	00		 call	 DWORD PTR __imp_?HideWnd@ioWnd@@QAEXXZ

; 738  : 
; 739  : 	PopupStoreWnd* pPopupStoreWnd = dynamic_cast<PopupStoreWnd*>( g_GUIMgr.FindWnd( POPUP_STORE_WND ) );

  00011	6a 00		 push	 0
  00013	68 00 00 00 00	 push	 OFFSET ??_R0?AVPopupStoreWnd@@@8
  00018	68 00 00 00 00	 push	 OFFSET ??_R0?AVioWnd@@@8
  0001d	6a 00		 push	 0
  0001f	68 2d 27 00 00	 push	 10029			; 0000272dH
  00024	e8 00 00 00 00	 call	 ?GetSingleton@ioSP2GUIManager@@SAAAV1@XZ ; ioSP2GUIManager::GetSingleton
  00029	8b c8		 mov	 ecx, eax
  0002b	ff 15 00 00 00
	00		 call	 DWORD PTR __imp_?FindWnd@ioGUIManager@@QAEPAVioWnd@@K@Z
  00031	50		 push	 eax
  00032	e8 00 00 00 00	 call	 ___RTDynamicCast
  00037	83 c4 14	 add	 esp, 20			; 00000014H
  0003a	5e		 pop	 esi

; 740  : 	if( pPopupStoreWnd )

  0003b	85 c0		 test	 eax, eax
  0003d	74 0f		 je	 SHORT $LN1@OnBtnOpen

; 741  : 	{
; 742  : 		pPopupStoreWnd->SetSubPopup( true );
; 743  : 		pPopupStoreWnd->ShowWnd();

  0003f	8b c8		 mov	 ecx, eax
  00041	c6 80 0c 03 00
	00 01		 mov	 BYTE PTR [eax+780], 1
  00048	ff 15 00 00 00
	00		 call	 DWORD PTR __imp_?ShowWnd@ioWnd@@QAEXXZ
$LN1@OnBtnOpen:

; 744  : 	}
; 745  : 
; 746  : 	return 1;

  0004e	33 c0		 xor	 eax, eax
  00050	40		 inc	 eax

; 747  : }

  00051	c3		 ret	 0
?OnBtnOpen@PopupStoreSubWnd@@QAEHXZ ENDP		; PopupStoreSubWnd::OnBtnOpen
; Function compile flags: /Ogsp
_TEXT	ENDS
;	COMDAT ?iwm_show@PopupStoreSubWnd@@UAEXXZ
_TEXT	SEGMENT
_iHeight$ = -4						; size = 4
?iwm_show@PopupStoreSubWnd@@UAEXXZ PROC			; PopupStoreSubWnd::iwm_show, COMDAT
; _this$ = ecx

; 750  : {

  00000	55		 push	 ebp
  00001	8b ec		 mov	 ebp, esp
  00003	51		 push	 ecx
  00004	53		 push	 ebx
  00005	57		 push	 edi
  00006	8b f9		 mov	 edi, ecx

; 751  : 	// 보여질때 윈도우 정렬
; 752  : 	int iWidth = Setting::Width();

  00008	e8 00 00 00 00	 call	 ?Width@Setting@@SAHXZ	; Setting::Width
  0000d	8b d8		 mov	 ebx, eax

; 753  : 	int iHeight = Setting::Height();

  0000f	e8 00 00 00 00	 call	 ?Height@Setting@@SAHXZ	; Setting::Height
  00014	89 45 fc	 mov	 DWORD PTR _iHeight$[ebp], eax

; 754  : 
; 755  : 	if( iWidth == 0 || iHeight == 0 )

  00017	85 db		 test	 ebx, ebx
  00019	74 4d		 je	 SHORT $LN1@iwm_show@2
  0001b	85 c0		 test	 eax, eax
  0001d	74 49		 je	 SHORT $LN1@iwm_show@2

; 756  : 		return;
; 757  : 
; 758  : 	int iHalfX = GetWidth() / 2;

  0001f	56		 push	 esi
  00020	8b cf		 mov	 ecx, edi
  00022	ff 15 00 00 00
	00		 call	 DWORD PTR __imp_?GetWidth@ioWnd@@QBEHXZ
  00028	99		 cdq
  00029	2b c2		 sub	 eax, edx
  0002b	8b f0		 mov	 esi, eax

; 759  : 	int iHalfY = GetHeight() / 2;

  0002d	8b cf		 mov	 ecx, edi
  0002f	d1 fe		 sar	 esi, 1
  00031	ff 15 00 00 00
	00		 call	 DWORD PTR __imp_?GetHeight@ioWnd@@QBEHXZ
  00037	99		 cdq
  00038	2b c2		 sub	 eax, edx
  0003a	8b c8		 mov	 ecx, eax

; 760  : 
; 761  : 	int XPos = (iWidth/2) - iHalfX;
; 762  : 	int YPos = (iHeight/2) - iHalfY;

  0003c	8b 45 fc	 mov	 eax, DWORD PTR _iHeight$[ebp]
  0003f	99		 cdq
  00040	2b c2		 sub	 eax, edx
  00042	d1 f8		 sar	 eax, 1
  00044	d1 f9		 sar	 ecx, 1
  00046	2b c1		 sub	 eax, ecx

; 763  : 
; 764  : 	SetWndPos( XPos, YPos );

  00048	50		 push	 eax
  00049	8b c3		 mov	 eax, ebx
  0004b	99		 cdq
  0004c	2b c2		 sub	 eax, edx
  0004e	d1 f8		 sar	 eax, 1
  00050	2b c6		 sub	 eax, esi
  00052	50		 push	 eax
  00053	8b cf		 mov	 ecx, edi
  00055	ff 15 00 00 00
	00		 call	 DWORD PTR __imp_?SetWndPos@ioWnd@@QAEXHH@Z

; 765  : 
; 766  : 	m_pEffectReady->Start();

  0005b	8b 8f 68 01 00
	00		 mov	 ecx, DWORD PTR [edi+360]
  00061	ff 15 00 00 00
	00		 call	 DWORD PTR __imp_?Start@ioUI3DEffectRender@@QAEXXZ
  00067	5e		 pop	 esi
$LN1@iwm_show@2:
  00068	5f		 pop	 edi
  00069	5b		 pop	 ebx

; 767  : }

  0006a	c9		 leave
  0006b	c3		 ret	 0
?iwm_show@PopupStoreSubWnd@@UAEXXZ ENDP			; PopupStoreSubWnd::iwm_show
; Function compile flags: /Ogsp
_TEXT	ENDS
;	COMDAT ?iwm_hide@PopupStoreSubWnd@@UAEXXZ
_TEXT	SEGMENT
?iwm_hide@PopupStoreSubWnd@@UAEXXZ PROC			; PopupStoreSubWnd::iwm_hide, COMDAT
; _this$ = ecx

; 771  : 	m_pEffectReady->Stop();

  00000	8b 89 68 01 00
	00		 mov	 ecx, DWORD PTR [ecx+360]
  00006	ff 25 00 00 00
	00		 jmp	 DWORD PTR __imp_?Stop@ioUI3DEffectRender@@QAEXXZ
?iwm_hide@PopupStoreSubWnd@@UAEXXZ ENDP			; PopupStoreSubWnd::iwm_hide
_TEXT	ENDS
PUBLIC	?size@?$vector@UsPopupItemInfo@PopupStoreWnd@@V?$allocator@UsPopupItemInfo@PopupStoreWnd@@@std@@@std@@QBEIXZ ; std::vector<PopupStoreWnd::sPopupItemInfo,std::allocator<PopupStoreWnd::sPopupItemInfo> >::size
; Function compile flags: /Ogsp
; File c:\program files (x86)\microsoft visual studio 10.0\vc\include\vector
;	COMDAT ?size@?$vector@UsPopupItemInfo@PopupStoreWnd@@V?$allocator@UsPopupItemInfo@PopupStoreWnd@@@std@@@std@@QBEIXZ
_TEXT	SEGMENT
?size@?$vector@UsPopupItemInfo@PopupStoreWnd@@V?$allocator@UsPopupItemInfo@PopupStoreWnd@@@std@@@std@@QBEIXZ PROC ; std::vector<PopupStoreWnd::sPopupItemInfo,std::allocator<PopupStoreWnd::sPopupItemInfo> >::size, COMDAT
; _this$ = ecx

; 879  : 		return (this->_Mylast - this->_Myfirst);

  00000	8b 41 04	 mov	 eax, DWORD PTR [ecx+4]
  00003	2b 01		 sub	 eax, DWORD PTR [ecx]
  00005	6a 50		 push	 80			; 00000050H
  00007	99		 cdq
  00008	59		 pop	 ecx
  00009	f7 f9		 idiv	 ecx

; 880  : 		}

  0000b	c3		 ret	 0
?size@?$vector@UsPopupItemInfo@PopupStoreWnd@@V?$allocator@UsPopupItemInfo@PopupStoreWnd@@@std@@@std@@QBEIXZ ENDP ; std::vector<PopupStoreWnd::sPopupItemInfo,std::allocator<PopupStoreWnd::sPopupItemInfo> >::size
_TEXT	ENDS
PUBLIC	??A?$vector@UsPopupItemInfo@PopupStoreWnd@@V?$allocator@UsPopupItemInfo@PopupStoreWnd@@@std@@@std@@QAEAAUsPopupItemInfo@PopupStoreWnd@@I@Z ; std::vector<PopupStoreWnd::sPopupItemInfo,std::allocator<PopupStoreWnd::sPopupItemInfo> >::operator[]
; Function compile flags: /Ogsp
;	COMDAT ??A?$vector@UsPopupItemInfo@PopupStoreWnd@@V?$allocator@UsPopupItemInfo@PopupStoreWnd@@@std@@@std@@QAEAAUsPopupItemInfo@PopupStoreWnd@@I@Z
_TEXT	SEGMENT
__Pos$ = 8						; size = 4
??A?$vector@UsPopupItemInfo@PopupStoreWnd@@V?$allocator@UsPopupItemInfo@PopupStoreWnd@@@std@@@std@@QAEAAUsPopupItemInfo@PopupStoreWnd@@I@Z PROC ; std::vector<PopupStoreWnd::sPopupItemInfo,std::allocator<PopupStoreWnd::sPopupItemInfo> >::operator[], COMDAT
; _this$ = ecx

; 928  : 		{	// subscript mutable sequence

  00000	55		 push	 ebp
  00001	8b ec		 mov	 ebp, esp

; 929  :  #if _ITERATOR_DEBUG_LEVEL == 2
; 930  : 		if (size() <= _Pos)
; 931  : 			{	// report error
; 932  : 			_DEBUG_ERROR("vector subscript out of range");
; 933  : 			_SCL_SECURE_OUT_OF_RANGE;
; 934  : 			}
; 935  : 
; 936  :  #elif _ITERATOR_DEBUG_LEVEL == 1
; 937  : 		_SCL_SECURE_VALIDATE_RANGE(_Pos < size());
; 938  :  #endif /* _ITERATOR_DEBUG_LEVEL */
; 939  : 
; 940  : 		return (*(this->_Myfirst + _Pos));

  00003	8b 45 08	 mov	 eax, DWORD PTR __Pos$[ebp]
  00006	6b c0 50	 imul	 eax, 80			; 00000050H
  00009	03 01		 add	 eax, DWORD PTR [ecx]

; 941  : 		}

  0000b	5d		 pop	 ebp
  0000c	c2 04 00	 ret	 4
??A?$vector@UsPopupItemInfo@PopupStoreWnd@@V?$allocator@UsPopupItemInfo@PopupStoreWnd@@@std@@@std@@QAEAAUsPopupItemInfo@PopupStoreWnd@@I@Z ENDP ; std::vector<PopupStoreWnd::sPopupItemInfo,std::allocator<PopupStoreWnd::sPopupItemInfo> >::operator[]
_TEXT	ENDS
PUBLIC	?_Inside@?$vector@UsPopupItemInfo@PopupStoreWnd@@V?$allocator@UsPopupItemInfo@PopupStoreWnd@@@std@@@std@@IBE_NPBUsPopupItemInfo@PopupStoreWnd@@@Z ; std::vector<PopupStoreWnd::sPopupItemInfo,std::allocator<PopupStoreWnd::sPopupItemInfo> >::_Inside
; Function compile flags: /Ogsp
;	COMDAT ?_Inside@?$vector@UsPopupItemInfo@PopupStoreWnd@@V?$allocator@UsPopupItemInfo@PopupStoreWnd@@@std@@@std@@IBE_NPBUsPopupItemInfo@PopupStoreWnd@@@Z
_TEXT	SEGMENT
__Ptr$ = 8						; size = 4
?_Inside@?$vector@UsPopupItemInfo@PopupStoreWnd@@V?$allocator@UsPopupItemInfo@PopupStoreWnd@@@std@@@std@@IBE_NPBUsPopupItemInfo@PopupStoreWnd@@@Z PROC ; std::vector<PopupStoreWnd::sPopupItemInfo,std::allocator<PopupStoreWnd::sPopupItemInfo> >::_Inside, COMDAT
; _this$ = ecx

; 1285 : 		{	// test if _Ptr points inside vector

  00000	55		 push	 ebp
  00001	8b ec		 mov	 ebp, esp

; 1286 : 		return (_Ptr < this->_Mylast && this->_Myfirst <= _Ptr);

  00003	8b 45 08	 mov	 eax, DWORD PTR __Ptr$[ebp]
  00006	3b 41 04	 cmp	 eax, DWORD PTR [ecx+4]
  00009	73 09		 jae	 SHORT $LN3@Inside
  0000b	39 01		 cmp	 DWORD PTR [ecx], eax
  0000d	77 05		 ja	 SHORT $LN3@Inside
  0000f	33 c0		 xor	 eax, eax
  00011	40		 inc	 eax
  00012	eb 02		 jmp	 SHORT $LN4@Inside
$LN3@Inside:
  00014	33 c0		 xor	 eax, eax
$LN4@Inside:

; 1287 : 		}

  00016	5d		 pop	 ebp
  00017	c2 04 00	 ret	 4
?_Inside@?$vector@UsPopupItemInfo@PopupStoreWnd@@V?$allocator@UsPopupItemInfo@PopupStoreWnd@@@std@@@std@@IBE_NPBUsPopupItemInfo@PopupStoreWnd@@@Z ENDP ; std::vector<PopupStoreWnd::sPopupItemInfo,std::allocator<PopupStoreWnd::sPopupItemInfo> >::_Inside
_TEXT	ENDS
PUBLIC	?_Orphan_range@?$vector@UsPopupItemInfo@PopupStoreWnd@@V?$allocator@UsPopupItemInfo@PopupStoreWnd@@@std@@@std@@IBEXPAUsPopupItemInfo@PopupStoreWnd@@0@Z ; std::vector<PopupStoreWnd::sPopupItemInfo,std::allocator<PopupStoreWnd::sPopupItemInfo> >::_Orphan_range
; Function compile flags: /Ogsp
;	COMDAT ?_Orphan_range@?$vector@UsPopupItemInfo@PopupStoreWnd@@V?$allocator@UsPopupItemInfo@PopupStoreWnd@@@std@@@std@@IBEXPAUsPopupItemInfo@PopupStoreWnd@@0@Z
_TEXT	SEGMENT
___formal$ = 8						; size = 4
___formal$ = 12						; size = 4
?_Orphan_range@?$vector@UsPopupItemInfo@PopupStoreWnd@@V?$allocator@UsPopupItemInfo@PopupStoreWnd@@@std@@@std@@IBEXPAUsPopupItemInfo@PopupStoreWnd@@0@Z PROC ; std::vector<PopupStoreWnd::sPopupItemInfo,std::allocator<PopupStoreWnd::sPopupItemInfo> >::_Orphan_range, COMDAT
; _this$ = ecx

; 1454 : 		}

  00000	c2 08 00	 ret	 8
?_Orphan_range@?$vector@UsPopupItemInfo@PopupStoreWnd@@V?$allocator@UsPopupItemInfo@PopupStoreWnd@@@std@@@std@@IBEXPAUsPopupItemInfo@PopupStoreWnd@@0@Z ENDP ; std::vector<PopupStoreWnd::sPopupItemInfo,std::allocator<PopupStoreWnd::sPopupItemInfo> >::_Orphan_range
_TEXT	ENDS
PUBLIC	??1?$_Vector_val@UsPopupItemInfo@PopupStoreWnd@@V?$allocator@UsPopupItemInfo@PopupStoreWnd@@@std@@@std@@QAE@XZ ; std::_Vector_val<PopupStoreWnd::sPopupItemInfo,std::allocator<PopupStoreWnd::sPopupItemInfo> >::~_Vector_val<PopupStoreWnd::sPopupItemInfo,std::allocator<PopupStoreWnd::sPopupItemInfo> >
; Function compile flags: /Ogsp
;	COMDAT ??1?$_Vector_val@UsPopupItemInfo@PopupStoreWnd@@V?$allocator@UsPopupItemInfo@PopupStoreWnd@@@std@@@std@@QAE@XZ
_TEXT	SEGMENT
??1?$_Vector_val@UsPopupItemInfo@PopupStoreWnd@@V?$allocator@UsPopupItemInfo@PopupStoreWnd@@@std@@@std@@QAE@XZ PROC ; std::_Vector_val<PopupStoreWnd::sPopupItemInfo,std::allocator<PopupStoreWnd::sPopupItemInfo> >::~_Vector_val<PopupStoreWnd::sPopupItemInfo,std::allocator<PopupStoreWnd::sPopupItemInfo> >, COMDAT
; _this$ = ecx

; 434  : 		}

  00000	c3		 ret	 0
??1?$_Vector_val@UsPopupItemInfo@PopupStoreWnd@@V?$allocator@UsPopupItemInfo@PopupStoreWnd@@@std@@@std@@QAE@XZ ENDP ; std::_Vector_val<PopupStoreWnd::sPopupItemInfo,std::allocator<PopupStoreWnd::sPopupItemInfo> >::~_Vector_val<PopupStoreWnd::sPopupItemInfo,std::allocator<PopupStoreWnd::sPopupItemInfo> >
_TEXT	ENDS
PUBLIC	??0?$allocator@UsPopupItemInfo@PopupStoreWnd@@@std@@QAE@XZ ; std::allocator<PopupStoreWnd::sPopupItemInfo>::allocator<PopupStoreWnd::sPopupItemInfo>
; Function compile flags: /Ogsp
; File c:\program files (x86)\microsoft visual studio 10.0\vc\include\xmemory
;	COMDAT ??0?$allocator@UsPopupItemInfo@PopupStoreWnd@@@std@@QAE@XZ
_TEXT	SEGMENT
??0?$allocator@UsPopupItemInfo@PopupStoreWnd@@@std@@QAE@XZ PROC ; std::allocator<PopupStoreWnd::sPopupItemInfo>::allocator<PopupStoreWnd::sPopupItemInfo>, COMDAT
; _this$ = ecx

; 161  : 	_ALLOCATOR() _THROW0()

  00000	8b c1		 mov	 eax, ecx

; 162  : 		{	// construct default allocator (do nothing)
; 163  : 		}

  00002	c3		 ret	 0
??0?$allocator@UsPopupItemInfo@PopupStoreWnd@@@std@@QAE@XZ ENDP ; std::allocator<PopupStoreWnd::sPopupItemInfo>::allocator<PopupStoreWnd::sPopupItemInfo>
_TEXT	ENDS
PUBLIC	?capacity@?$vector@UsPopupItemInfo@PopupStoreWnd@@V?$allocator@UsPopupItemInfo@PopupStoreWnd@@@std@@@std@@QBEIXZ ; std::vector<PopupStoreWnd::sPopupItemInfo,std::allocator<PopupStoreWnd::sPopupItemInfo> >::capacity
; Function compile flags: /Ogsp
; File c:\program files (x86)\microsoft visual studio 10.0\vc\include\vector
;	COMDAT ?capacity@?$vector@UsPopupItemInfo@PopupStoreWnd@@V?$allocator@UsPopupItemInfo@PopupStoreWnd@@@std@@@std@@QBEIXZ
_TEXT	SEGMENT
?capacity@?$vector@UsPopupItemInfo@PopupStoreWnd@@V?$allocator@UsPopupItemInfo@PopupStoreWnd@@@std@@@std@@QBEIXZ PROC ; std::vector<PopupStoreWnd::sPopupItemInfo,std::allocator<PopupStoreWnd::sPopupItemInfo> >::capacity, COMDAT
; _this$ = ecx

; 777  : 		return (this->_Myend - this->_Myfirst);

  00000	8b 41 08	 mov	 eax, DWORD PTR [ecx+8]
  00003	2b 01		 sub	 eax, DWORD PTR [ecx]
  00005	6a 50		 push	 80			; 00000050H
  00007	99		 cdq
  00008	59		 pop	 ecx
  00009	f7 f9		 idiv	 ecx

; 778  : 		}

  0000b	c3		 ret	 0
?capacity@?$vector@UsPopupItemInfo@PopupStoreWnd@@V?$allocator@UsPopupItemInfo@PopupStoreWnd@@@std@@@std@@QBEIXZ ENDP ; std::vector<PopupStoreWnd::sPopupItemInfo,std::allocator<PopupStoreWnd::sPopupItemInfo> >::capacity
_TEXT	ENDS
PUBLIC	??_C@_0BD@OLBABOEK@vector?$DMT?$DO?5too?5long?$AA@ ; `string'
PUBLIC	?_Xlen@?$vector@UsPopupItemInfo@PopupStoreWnd@@V?$allocator@UsPopupItemInfo@PopupStoreWnd@@@std@@@std@@IBEXXZ ; std::vector<PopupStoreWnd::sPopupItemInfo,std::allocator<PopupStoreWnd::sPopupItemInfo> >::_Xlen
EXTRN	__imp_?_Xlength_error@std@@YAXPBD@Z:PROC
;	COMDAT ??_C@_0BD@OLBABOEK@vector?$DMT?$DO?5too?5long?$AA@
CONST	SEGMENT
??_C@_0BD@OLBABOEK@vector?$DMT?$DO?5too?5long?$AA@ DB 'vector<T> too long'
	DB	00H						; `string'
; Function compile flags: /Ogsp
CONST	ENDS
;	COMDAT ?_Xlen@?$vector@UsPopupItemInfo@PopupStoreWnd@@V?$allocator@UsPopupItemInfo@PopupStoreWnd@@@std@@@std@@IBEXXZ
_TEXT	SEGMENT
?_Xlen@?$vector@UsPopupItemInfo@PopupStoreWnd@@V?$allocator@UsPopupItemInfo@PopupStoreWnd@@@std@@@std@@IBEXXZ PROC ; std::vector<PopupStoreWnd::sPopupItemInfo,std::allocator<PopupStoreWnd::sPopupItemInfo> >::_Xlen, COMDAT
; _this$ = ecx

; 1427 : 		_Xlength_error("vector<T> too long");

  00000	68 00 00 00 00	 push	 OFFSET ??_C@_0BD@OLBABOEK@vector?$DMT?$DO?5too?5long?$AA@
  00005	ff 15 00 00 00
	00		 call	 DWORD PTR __imp_?_Xlength_error@std@@YAXPBD@Z
$LN4@Xlen:
$LN3@Xlen:
  0000b	cc		 int	 3
?_Xlen@?$vector@UsPopupItemInfo@PopupStoreWnd@@V?$allocator@UsPopupItemInfo@PopupStoreWnd@@@std@@@std@@IBEXXZ ENDP ; std::vector<PopupStoreWnd::sPopupItemInfo,std::allocator<PopupStoreWnd::sPopupItemInfo> >::_Xlen
_TEXT	ENDS
PUBLIC	??0?$allocator@UsPopupItemInfo@PopupStoreWnd@@@std@@QAE@ABV01@@Z ; std::allocator<PopupStoreWnd::sPopupItemInfo>::allocator<PopupStoreWnd::sPopupItemInfo>
; Function compile flags: /Ogsp
; File c:\program files (x86)\microsoft visual studio 10.0\vc\include\xmemory
;	COMDAT ??0?$allocator@UsPopupItemInfo@PopupStoreWnd@@@std@@QAE@ABV01@@Z
_TEXT	SEGMENT
___formal$ = 8						; size = 4
??0?$allocator@UsPopupItemInfo@PopupStoreWnd@@@std@@QAE@ABV01@@Z PROC ; std::allocator<PopupStoreWnd::sPopupItemInfo>::allocator<PopupStoreWnd::sPopupItemInfo>, COMDAT
; _this$ = ecx

; 165  : 	_ALLOCATOR(const _ALLOCATOR<_Ty>&) _THROW0()

  00000	8b c1		 mov	 eax, ecx

; 166  : 		{	// construct by copying (do nothing)
; 167  : 		}

  00002	c2 04 00	 ret	 4
??0?$allocator@UsPopupItemInfo@PopupStoreWnd@@@std@@QAE@ABV01@@Z ENDP ; std::allocator<PopupStoreWnd::sPopupItemInfo>::allocator<PopupStoreWnd::sPopupItemInfo>
_TEXT	ENDS
PUBLIC	?deallocate@?$allocator@UsPopupItemInfo@PopupStoreWnd@@@std@@QAEXPAUsPopupItemInfo@PopupStoreWnd@@I@Z ; std::allocator<PopupStoreWnd::sPopupItemInfo>::deallocate
; Function compile flags: /Ogsp
;	COMDAT ?deallocate@?$allocator@UsPopupItemInfo@PopupStoreWnd@@@std@@QAEXPAUsPopupItemInfo@PopupStoreWnd@@I@Z
_TEXT	SEGMENT
__Ptr$ = 8						; size = 4
___formal$ = 12						; size = 4
?deallocate@?$allocator@UsPopupItemInfo@PopupStoreWnd@@@std@@QAEXPAUsPopupItemInfo@PopupStoreWnd@@I@Z PROC ; std::allocator<PopupStoreWnd::sPopupItemInfo>::deallocate, COMDAT
; _this$ = ecx

; 181  : 		{	// deallocate object at _Ptr, ignore size

  00000	55		 push	 ebp
  00001	8b ec		 mov	 ebp, esp

; 182  : 		::operator delete(_Ptr);

  00003	ff 75 08	 push	 DWORD PTR __Ptr$[ebp]
  00006	e8 00 00 00 00	 call	 ??3@YAXPAX@Z		; operator delete
  0000b	59		 pop	 ecx

; 183  : 		}

  0000c	5d		 pop	 ebp
  0000d	c2 08 00	 ret	 8
?deallocate@?$allocator@UsPopupItemInfo@PopupStoreWnd@@@std@@QAEXPAUsPopupItemInfo@PopupStoreWnd@@I@Z ENDP ; std::allocator<PopupStoreWnd::sPopupItemInfo>::deallocate
_TEXT	ENDS
PUBLIC	?max_size@?$allocator@UsPopupItemInfo@PopupStoreWnd@@@std@@QBEIXZ ; std::allocator<PopupStoreWnd::sPopupItemInfo>::max_size
; Function compile flags: /Ogsp
;	COMDAT ?max_size@?$allocator@UsPopupItemInfo@PopupStoreWnd@@@std@@QBEIXZ
_TEXT	SEGMENT
?max_size@?$allocator@UsPopupItemInfo@PopupStoreWnd@@@std@@QBEIXZ PROC ; std::allocator<PopupStoreWnd::sPopupItemInfo>::max_size, COMDAT
; _this$ = ecx

; 218  : 		_SIZT _Count = (_SIZT)(-1) / sizeof (_Ty);
; 219  : 		return (0 < _Count ? _Count : 1);

  00000	b8 33 33 33 03	 mov	 eax, 53687091		; 03333333H

; 220  : 		}

  00005	c3		 ret	 0
?max_size@?$allocator@UsPopupItemInfo@PopupStoreWnd@@@std@@QBEIXZ ENDP ; std::allocator<PopupStoreWnd::sPopupItemInfo>::max_size
_TEXT	ENDS
PUBLIC	??$sprintf_s@$0BAE@@@YAHAAY0BAE@DPBDZZ		; sprintf_s<260>
EXTRN	__imp__vsprintf_s:PROC
; Function compile flags: /Ogsp
; File c:\program files (x86)\microsoft visual studio 10.0\vc\include\stdio.h
;	COMDAT ??$sprintf_s@$0BAE@@@YAHAAY0BAE@DPBDZZ
_TEXT	SEGMENT
__Dest$ = 8						; size = 4
__Format$ = 12						; size = 4
??$sprintf_s@$0BAE@@@YAHAAY0BAE@DPBDZZ PROC		; sprintf_s<260>, COMDAT

; 323  : __DEFINE_CPP_OVERLOAD_SECURE_FUNC_0_1_ARGLIST(int, sprintf_s, vsprintf_s, _Deref_post_z_ char, _Dest, _In_z_ _Printf_format_string_ const char *, _Format)

  00000	55		 push	 ebp
  00001	8b ec		 mov	 ebp, esp
  00003	8d 45 10	 lea	 eax, DWORD PTR __Format$[ebp+4]
  00006	50		 push	 eax
  00007	ff 75 0c	 push	 DWORD PTR __Format$[ebp]
  0000a	68 04 01 00 00	 push	 260			; 00000104H
  0000f	ff 75 08	 push	 DWORD PTR __Dest$[ebp]
  00012	ff 15 00 00 00
	00		 call	 DWORD PTR __imp__vsprintf_s
  00018	83 c4 10	 add	 esp, 16			; 00000010H
  0001b	5d		 pop	 ebp
  0001c	c3		 ret	 0
??$sprintf_s@$0BAE@@@YAHAAY0BAE@DPBDZZ ENDP		; sprintf_s<260>
_TEXT	ENDS
PUBLIC	??$addressof@$$CBUsPopupItemInfo@PopupStoreWnd@@@std@@YAPBUsPopupItemInfo@PopupStoreWnd@@ABU12@@Z ; std::addressof<PopupStoreWnd::sPopupItemInfo const >
; Function compile flags: /Ogsp
; File c:\program files (x86)\microsoft visual studio 10.0\vc\include\xmemory
;	COMDAT ??$addressof@$$CBUsPopupItemInfo@PopupStoreWnd@@@std@@YAPBUsPopupItemInfo@PopupStoreWnd@@ABU12@@Z
_TEXT	SEGMENT
__Val$ = 8						; size = 4
??$addressof@$$CBUsPopupItemInfo@PopupStoreWnd@@@std@@YAPBUsPopupItemInfo@PopupStoreWnd@@ABU12@@Z PROC ; std::addressof<PopupStoreWnd::sPopupItemInfo const >, COMDAT

; 110  : 	{	// return address of _Val

  00000	55		 push	 ebp
  00001	8b ec		 mov	 ebp, esp

; 111  : 	return ((_Ty *) &(char&)_Val);

  00003	8b 45 08	 mov	 eax, DWORD PTR __Val$[ebp]

; 112  : 	}

  00006	5d		 pop	 ebp
  00007	c3		 ret	 0
??$addressof@$$CBUsPopupItemInfo@PopupStoreWnd@@@std@@YAPBUsPopupItemInfo@PopupStoreWnd@@ABU12@@Z ENDP ; std::addressof<PopupStoreWnd::sPopupItemInfo const >
_TEXT	ENDS
PUBLIC	__TI2?AVbad_alloc@std@@
PUBLIC	??$_Allocate@UsPopupItemInfo@PopupStoreWnd@@@std@@YAPAUsPopupItemInfo@PopupStoreWnd@@IPAU12@@Z ; std::_Allocate<PopupStoreWnd::sPopupItemInfo>
PUBLIC	__CTA2?AVbad_alloc@std@@
PUBLIC	__CT??_R0?AVbad_alloc@std@@@8??0bad_alloc@std@@QAE@ABV01@@Z12
PUBLIC	??0bad_alloc@std@@QAE@ABV01@@Z			; std::bad_alloc::bad_alloc
PUBLIC	__CT??_R0?AVexception@std@@@8??0exception@std@@QAE@ABV01@@Z12
EXTRN	??2@YAPAXI@Z:PROC				; operator new
EXTRN	__CxxThrowException@8:PROC
EXTRN	??0exception@std@@QAE@ABV01@@Z:PROC		; std::exception::exception
;	COMDAT __CT??_R0?AVexception@std@@@8??0exception@std@@QAE@ABV01@@Z12
; File c:\program files (x86)\microsoft visual studio 10.0\vc\include\exception
xdata$x	SEGMENT
__CT??_R0?AVexception@std@@@8??0exception@std@@QAE@ABV01@@Z12 DD 00H
	DD	FLAT:??_R0?AVexception@std@@@8
	DD	00H
	DD	0ffffffffH
	ORG $+4
	DD	0cH
	DD	FLAT:??0exception@std@@QAE@ABV01@@Z
xdata$x	ENDS
;	COMDAT __CT??_R0?AVbad_alloc@std@@@8??0bad_alloc@std@@QAE@ABV01@@Z12
xdata$x	SEGMENT
__CT??_R0?AVbad_alloc@std@@@8??0bad_alloc@std@@QAE@ABV01@@Z12 DD 00H
	DD	FLAT:??_R0?AVbad_alloc@std@@@8
	DD	00H
	DD	0ffffffffH
	ORG $+4
	DD	0cH
	DD	FLAT:??0bad_alloc@std@@QAE@ABV01@@Z
xdata$x	ENDS
;	COMDAT __CTA2?AVbad_alloc@std@@
xdata$x	SEGMENT
__CTA2?AVbad_alloc@std@@ DD 02H
	DD	FLAT:__CT??_R0?AVbad_alloc@std@@@8??0bad_alloc@std@@QAE@ABV01@@Z12
	DD	FLAT:__CT??_R0?AVexception@std@@@8??0exception@std@@QAE@ABV01@@Z12
xdata$x	ENDS
;	COMDAT __TI2?AVbad_alloc@std@@
xdata$x	SEGMENT
__TI2?AVbad_alloc@std@@ DD 00H
	DD	FLAT:??1bad_alloc@std@@UAE@XZ
	DD	00H
	DD	FLAT:__CTA2?AVbad_alloc@std@@
; Function compile flags: /Ogsp
; File c:\program files (x86)\microsoft visual studio 10.0\vc\include\xmemory
xdata$x	ENDS
;	COMDAT ??$_Allocate@UsPopupItemInfo@PopupStoreWnd@@@std@@YAPAUsPopupItemInfo@PopupStoreWnd@@IPAU12@@Z
_TEXT	SEGMENT
$T514374 = -12						; size = 12
$T514379 = 8						; size = 4
__Count$ = 8						; size = 4
___formal$ = 12						; size = 4
??$_Allocate@UsPopupItemInfo@PopupStoreWnd@@@std@@YAPAUsPopupItemInfo@PopupStoreWnd@@IPAU12@@Z PROC ; std::_Allocate<PopupStoreWnd::sPopupItemInfo>, COMDAT

; 30   : 	{	// allocate storage for _Count elements of type _Ty

  00000	55		 push	 ebp
  00001	8b ec		 mov	 ebp, esp

; 31   : 	void *_Ptr = 0;
; 32   : 
; 33   : 	if (_Count <= 0)

  00003	8b 4d 08	 mov	 ecx, DWORD PTR __Count$[ebp]
  00006	83 ec 0c	 sub	 esp, 12			; 0000000cH
  00009	33 c0		 xor	 eax, eax
  0000b	85 c9		 test	 ecx, ecx

; 34   : 		_Count = 0;
; 35   : 	else if (((_SIZT)(-1) / sizeof (_Ty) < _Count)

  0000d	74 3c		 je	 SHORT $LN5@Allocate

; 36   : 		|| (_Ptr = ::operator new(_Count * sizeof (_Ty))) == 0)

  0000f	81 f9 33 33 33
	03		 cmp	 ecx, 53687091		; 03333333H
  00015	77 0e		 ja	 SHORT $LN1@Allocate
  00017	6b c9 50	 imul	 ecx, 80			; 00000050H
  0001a	51		 push	 ecx
  0001b	e8 00 00 00 00	 call	 ??2@YAPAXI@Z		; operator new
  00020	59		 pop	 ecx
  00021	85 c0		 test	 eax, eax

; 38   : 
; 39   : 	return ((_Ty _FARQ *)_Ptr);

  00023	75 26		 jne	 SHORT $LN5@Allocate
$LN1@Allocate:

; 37   : 		_THROW_NCEE(bad_alloc, 0);

  00025	83 65 08 00	 and	 DWORD PTR $T514379[ebp], 0
  00029	8d 45 08	 lea	 eax, DWORD PTR $T514379[ebp]
  0002c	50		 push	 eax
  0002d	8d 4d f4	 lea	 ecx, DWORD PTR $T514374[ebp]
  00030	ff 15 00 00 00
	00		 call	 DWORD PTR __imp_??0exception@std@@QAE@ABQBD@Z
  00036	68 00 00 00 00	 push	 OFFSET __TI2?AVbad_alloc@std@@
  0003b	8d 45 f4	 lea	 eax, DWORD PTR $T514374[ebp]
  0003e	50		 push	 eax
  0003f	c7 45 f4 00 00
	00 00		 mov	 DWORD PTR $T514374[ebp], OFFSET ??_7bad_alloc@std@@6B@
  00046	e8 00 00 00 00	 call	 __CxxThrowException@8
$LN10@Allocate:
$LN5@Allocate:

; 40   : 	}

  0004b	c9		 leave
  0004c	c3		 ret	 0
$LN9@Allocate:
??$_Allocate@UsPopupItemInfo@PopupStoreWnd@@@std@@YAPAUsPopupItemInfo@PopupStoreWnd@@IPAU12@@Z ENDP ; std::_Allocate<PopupStoreWnd::sPopupItemInfo>
_TEXT	ENDS
PUBLIC	??0?$_Bind_base@HV?$_Bind1@U?$_Callable_pmf@Q8PopupStoreWnd@@AEHXZV1@$0A@@tr1@std@@PAVPopupStoreWnd@@@tr1@std@@@tr1@std@@QAE@V?$_Bind1@U?$_Callable_pmf@Q8PopupStoreWnd@@AEHXZV1@$0A@@tr1@std@@PAVPopupStoreWnd@@@12@@Z ; std::tr1::_Bind_base<int,std::tr1::_Bind1<std::tr1::_Callable_pmf<int (__thiscall PopupStoreWnd::*const)(void),PopupStoreWnd,0>,PopupStoreWnd *> >::_Bind_base<int,std::tr1::_Bind1<std::tr1::_Callable_pmf<int (__thiscall PopupStoreWnd::*const)(void),PopupStoreWnd,0>,PopupStoreWnd *> >
; Function compile flags: /Ogsp
; File c:\program files (x86)\microsoft visual studio 10.0\vc\include\functional
;	COMDAT ??0?$_Bind_base@HV?$_Bind1@U?$_Callable_pmf@Q8PopupStoreWnd@@AEHXZV1@$0A@@tr1@std@@PAVPopupStoreWnd@@@tr1@std@@@tr1@std@@QAE@V?$_Bind1@U?$_Callable_pmf@Q8PopupStoreWnd@@AEHXZV1@$0A@@tr1@std@@PAVPopupStoreWnd@@@12@@Z
_TEXT	SEGMENT
__B0$ = 8						; size = 8
??0?$_Bind_base@HV?$_Bind1@U?$_Callable_pmf@Q8PopupStoreWnd@@AEHXZV1@$0A@@tr1@std@@PAVPopupStoreWnd@@@tr1@std@@@tr1@std@@QAE@V?$_Bind1@U?$_Callable_pmf@Q8PopupStoreWnd@@AEHXZV1@$0A@@tr1@std@@PAVPopupStoreWnd@@@12@@Z PROC ; std::tr1::_Bind_base<int,std::tr1::_Bind1<std::tr1::_Callable_pmf<int (__thiscall PopupStoreWnd::*const)(void),PopupStoreWnd,0>,PopupStoreWnd *> >::_Bind_base<int,std::tr1::_Bind1<std::tr1::_Callable_pmf<int (__thiscall PopupStoreWnd::*const)(void),PopupStoreWnd,0>,PopupStoreWnd *> >, COMDAT
; _this$ = ecx

; 366  : 		{	// construct

  00000	55		 push	 ebp
  00001	8b ec		 mov	 ebp, esp
  00003	8b c1		 mov	 eax, ecx
  00005	8b 4d 08	 mov	 ecx, DWORD PTR __B0$[ebp]
  00008	89 08		 mov	 DWORD PTR [eax], ecx
  0000a	8b 4d 0c	 mov	 ecx, DWORD PTR __B0$[ebp+4]
  0000d	89 48 04	 mov	 DWORD PTR [eax+4], ecx

; 367  : 		}

  00010	5d		 pop	 ebp
  00011	c2 08 00	 ret	 8
??0?$_Bind_base@HV?$_Bind1@U?$_Callable_pmf@Q8PopupStoreWnd@@AEHXZV1@$0A@@tr1@std@@PAVPopupStoreWnd@@@tr1@std@@@tr1@std@@QAE@V?$_Bind1@U?$_Callable_pmf@Q8PopupStoreWnd@@AEHXZV1@$0A@@tr1@std@@PAVPopupStoreWnd@@@12@@Z ENDP ; std::tr1::_Bind_base<int,std::tr1::_Bind1<std::tr1::_Callable_pmf<int (__thiscall PopupStoreWnd::*const)(void),PopupStoreWnd,0>,PopupStoreWnd *> >::_Bind_base<int,std::tr1::_Bind1<std::tr1::_Callable_pmf<int (__thiscall PopupStoreWnd::*const)(void),PopupStoreWnd,0>,PopupStoreWnd *> >
_TEXT	ENDS
PUBLIC	??0?$_Bind_base@HV?$_Bind1@U?$_Callable_pmf@Q8PopupStoreSubWnd@@AEHXZV1@$0A@@tr1@std@@PAVPopupStoreSubWnd@@@tr1@std@@@tr1@std@@QAE@V?$_Bind1@U?$_Callable_pmf@Q8PopupStoreSubWnd@@AEHXZV1@$0A@@tr1@std@@PAVPopupStoreSubWnd@@@12@@Z ; std::tr1::_Bind_base<int,std::tr1::_Bind1<std::tr1::_Callable_pmf<int (__thiscall PopupStoreSubWnd::*const)(void),PopupStoreSubWnd,0>,PopupStoreSubWnd *> >::_Bind_base<int,std::tr1::_Bind1<std::tr1::_Callable_pmf<int (__thiscall PopupStoreSubWnd::*const)(void),PopupStoreSubWnd,0>,PopupStoreSubWnd *> >
; Function compile flags: /Ogsp
;	COMDAT ??0?$_Bind_base@HV?$_Bind1@U?$_Callable_pmf@Q8PopupStoreSubWnd@@AEHXZV1@$0A@@tr1@std@@PAVPopupStoreSubWnd@@@tr1@std@@@tr1@std@@QAE@V?$_Bind1@U?$_Callable_pmf@Q8PopupStoreSubWnd@@AEHXZV1@$0A@@tr1@std@@PAVPopupStoreSubWnd@@@12@@Z
_TEXT	SEGMENT
__B0$ = 8						; size = 8
??0?$_Bind_base@HV?$_Bind1@U?$_Callable_pmf@Q8PopupStoreSubWnd@@AEHXZV1@$0A@@tr1@std@@PAVPopupStoreSubWnd@@@tr1@std@@@tr1@std@@QAE@V?$_Bind1@U?$_Callable_pmf@Q8PopupStoreSubWnd@@AEHXZV1@$0A@@tr1@std@@PAVPopupStoreSubWnd@@@12@@Z PROC ; std::tr1::_Bind_base<int,std::tr1::_Bind1<std::tr1::_Callable_pmf<int (__thiscall PopupStoreSubWnd::*const)(void),PopupStoreSubWnd,0>,PopupStoreSubWnd *> >::_Bind_base<int,std::tr1::_Bind1<std::tr1::_Callable_pmf<int (__thiscall PopupStoreSubWnd::*const)(void),PopupStoreSubWnd,0>,PopupStoreSubWnd *> >, COMDAT
; _this$ = ecx

; 366  : 		{	// construct

  00000	55		 push	 ebp
  00001	8b ec		 mov	 ebp, esp
  00003	8b c1		 mov	 eax, ecx
  00005	8b 4d 08	 mov	 ecx, DWORD PTR __B0$[ebp]
  00008	89 08		 mov	 DWORD PTR [eax], ecx
  0000a	8b 4d 0c	 mov	 ecx, DWORD PTR __B0$[ebp+4]
  0000d	89 48 04	 mov	 DWORD PTR [eax+4], ecx

; 367  : 		}

  00010	5d		 pop	 ebp
  00011	c2 08 00	 ret	 8
??0?$_Bind_base@HV?$_Bind1@U?$_Callable_pmf@Q8PopupStoreSubWnd@@AEHXZV1@$0A@@tr1@std@@PAVPopupStoreSubWnd@@@tr1@std@@@tr1@std@@QAE@V?$_Bind1@U?$_Callable_pmf@Q8PopupStoreSubWnd@@AEHXZV1@$0A@@tr1@std@@PAVPopupStoreSubWnd@@@12@@Z ENDP ; std::tr1::_Bind_base<int,std::tr1::_Bind1<std::tr1::_Callable_pmf<int (__thiscall PopupStoreSubWnd::*const)(void),PopupStoreSubWnd,0>,PopupStoreSubWnd *> >::_Bind_base<int,std::tr1::_Bind1<std::tr1::_Callable_pmf<int (__thiscall PopupStoreSubWnd::*const)(void),PopupStoreSubWnd,0>,PopupStoreSubWnd *> >
_TEXT	ENDS
PUBLIC	??0?$_Callable_base@Q8PopupStoreWnd@@AEHXZ$0A@@tr1@std@@QAE@ABQ8PopupStoreWnd@@AEHXZ@Z ; std::tr1::_Callable_base<int (__thiscall PopupStoreWnd::*const)(void),0>::_Callable_base<int (__thiscall PopupStoreWnd::*const)(void),0>
; Function compile flags: /Ogsp
; File c:\program files (x86)\microsoft visual studio 10.0\vc\include\xrefwrap
;	COMDAT ??0?$_Callable_base@Q8PopupStoreWnd@@AEHXZ$0A@@tr1@std@@QAE@ABQ8PopupStoreWnd@@AEHXZ@Z
_TEXT	SEGMENT
__Val$ = 8						; size = 4
??0?$_Callable_base@Q8PopupStoreWnd@@AEHXZ$0A@@tr1@std@@QAE@ABQ8PopupStoreWnd@@AEHXZ@Z PROC ; std::tr1::_Callable_base<int (__thiscall PopupStoreWnd::*const)(void),0>::_Callable_base<int (__thiscall PopupStoreWnd::*const)(void),0>, COMDAT
; _this$ = ecx

; 74   : 		{	// construct

  00000	55		 push	 ebp
  00001	8b ec		 mov	 ebp, esp
  00003	8b c1		 mov	 eax, ecx
  00005	8b 4d 08	 mov	 ecx, DWORD PTR __Val$[ebp]
  00008	8b 09		 mov	 ecx, DWORD PTR [ecx]
  0000a	89 08		 mov	 DWORD PTR [eax], ecx

; 75   : 		}

  0000c	5d		 pop	 ebp
  0000d	c2 04 00	 ret	 4
??0?$_Callable_base@Q8PopupStoreWnd@@AEHXZ$0A@@tr1@std@@QAE@ABQ8PopupStoreWnd@@AEHXZ@Z ENDP ; std::tr1::_Callable_base<int (__thiscall PopupStoreWnd::*const)(void),0>::_Callable_base<int (__thiscall PopupStoreWnd::*const)(void),0>
_TEXT	ENDS
PUBLIC	??0?$_Callable_base@Q8PopupStoreSubWnd@@AEHXZ$0A@@tr1@std@@QAE@ABQ8PopupStoreSubWnd@@AEHXZ@Z ; std::tr1::_Callable_base<int (__thiscall PopupStoreSubWnd::*const)(void),0>::_Callable_base<int (__thiscall PopupStoreSubWnd::*const)(void),0>
; Function compile flags: /Ogsp
;	COMDAT ??0?$_Callable_base@Q8PopupStoreSubWnd@@AEHXZ$0A@@tr1@std@@QAE@ABQ8PopupStoreSubWnd@@AEHXZ@Z
_TEXT	SEGMENT
__Val$ = 8						; size = 4
??0?$_Callable_base@Q8PopupStoreSubWnd@@AEHXZ$0A@@tr1@std@@QAE@ABQ8PopupStoreSubWnd@@AEHXZ@Z PROC ; std::tr1::_Callable_base<int (__thiscall PopupStoreSubWnd::*const)(void),0>::_Callable_base<int (__thiscall PopupStoreSubWnd::*const)(void),0>, COMDAT
; _this$ = ecx

; 74   : 		{	// construct

  00000	55		 push	 ebp
  00001	8b ec		 mov	 ebp, esp
  00003	8b c1		 mov	 eax, ecx
  00005	8b 4d 08	 mov	 ecx, DWORD PTR __Val$[ebp]
  00008	8b 09		 mov	 ecx, DWORD PTR [ecx]
  0000a	89 08		 mov	 DWORD PTR [eax], ecx

; 75   : 		}

  0000c	5d		 pop	 ebp
  0000d	c2 04 00	 ret	 4
??0?$_Callable_base@Q8PopupStoreSubWnd@@AEHXZ$0A@@tr1@std@@QAE@ABQ8PopupStoreSubWnd@@AEHXZ@Z ENDP ; std::tr1::_Callable_base<int (__thiscall PopupStoreSubWnd::*const)(void),0>::_Callable_base<int (__thiscall PopupStoreSubWnd::*const)(void),0>
_TEXT	ENDS
PUBLIC	??$forward@AAUsPopupItemInfo@PopupStoreWnd@@@std@@YAAAUsPopupItemInfo@PopupStoreWnd@@AAU12@@Z ; std::forward<PopupStoreWnd::sPopupItemInfo &>
; Function compile flags: /Ogsp
; File c:\program files (x86)\microsoft visual studio 10.0\vc\include\utility
;	COMDAT ??$forward@AAUsPopupItemInfo@PopupStoreWnd@@@std@@YAAAUsPopupItemInfo@PopupStoreWnd@@AAU12@@Z
_TEXT	SEGMENT
__Arg$ = 8						; size = 4
??$forward@AAUsPopupItemInfo@PopupStoreWnd@@@std@@YAAAUsPopupItemInfo@PopupStoreWnd@@AAU12@@Z PROC ; std::forward<PopupStoreWnd::sPopupItemInfo &>, COMDAT

; 78   : 	{	// forward _Arg, given explicitly specified type parameter

  00000	55		 push	 ebp
  00001	8b ec		 mov	 ebp, esp

; 79   : 	return ((_Ty&&)_Arg);

  00003	8b 45 08	 mov	 eax, DWORD PTR __Arg$[ebp]

; 80   : 	}

  00006	5d		 pop	 ebp
  00007	c3		 ret	 0
??$forward@AAUsPopupItemInfo@PopupStoreWnd@@@std@@YAAAUsPopupItemInfo@PopupStoreWnd@@AAU12@@Z ENDP ; std::forward<PopupStoreWnd::sPopupItemInfo &>
_TEXT	ENDS
PUBLIC	??$construct@AAUsPopupItemInfo@PopupStoreWnd@@@?$allocator@UsPopupItemInfo@PopupStoreWnd@@@std@@QAEXPAUsPopupItemInfo@PopupStoreWnd@@AAU23@@Z ; std::allocator<PopupStoreWnd::sPopupItemInfo>::construct<PopupStoreWnd::sPopupItemInfo &>
; Function compile flags: /Ogsp
; File c:\program files (x86)\microsoft visual studio 10.0\vc\include\xmemory
;	COMDAT ??$construct@AAUsPopupItemInfo@PopupStoreWnd@@@?$allocator@UsPopupItemInfo@PopupStoreWnd@@@std@@QAEXPAUsPopupItemInfo@PopupStoreWnd@@AAU23@@Z
_TEXT	SEGMENT
__Ptr$ = 8						; size = 4
__Val$ = 12						; size = 4
??$construct@AAUsPopupItemInfo@PopupStoreWnd@@@?$allocator@UsPopupItemInfo@PopupStoreWnd@@@std@@QAEXPAUsPopupItemInfo@PopupStoreWnd@@AAU23@@Z PROC ; std::allocator<PopupStoreWnd::sPopupItemInfo>::construct<PopupStoreWnd::sPopupItemInfo &>, COMDAT
; _this$ = ecx

; 206  : 		void construct(pointer _Ptr, _Other&& _Val)

  00000	55		 push	 ebp
  00001	8b ec		 mov	 ebp, esp
  00003	57		 push	 edi

; 207  : 		{	// construct object at _Ptr with value _Val
; 208  : 		::new ((void _FARQ *)_Ptr) _Ty(_STD forward<_Other>(_Val));

  00004	8b 7d 08	 mov	 edi, DWORD PTR __Ptr$[ebp]
  00007	85 ff		 test	 edi, edi
  00009	74 0a		 je	 SHORT $LN3@construct
  0000b	56		 push	 esi
  0000c	8b 75 0c	 mov	 esi, DWORD PTR __Val$[ebp]
  0000f	6a 14		 push	 20			; 00000014H
  00011	59		 pop	 ecx
  00012	f3 a5		 rep movsd
  00014	5e		 pop	 esi
$LN3@construct:
  00015	5f		 pop	 edi

; 209  : 		}

  00016	5d		 pop	 ebp
  00017	c2 08 00	 ret	 8
??$construct@AAUsPopupItemInfo@PopupStoreWnd@@@?$allocator@UsPopupItemInfo@PopupStoreWnd@@@std@@QAEXPAUsPopupItemInfo@PopupStoreWnd@@AAU23@@Z ENDP ; std::allocator<PopupStoreWnd::sPopupItemInfo>::construct<PopupStoreWnd::sPopupItemInfo &>
_TEXT	ENDS
PUBLIC	??$forward@ABUsPopupItemInfo@PopupStoreWnd@@@std@@YAABUsPopupItemInfo@PopupStoreWnd@@ABU12@@Z ; std::forward<PopupStoreWnd::sPopupItemInfo const &>
; Function compile flags: /Ogsp
; File c:\program files (x86)\microsoft visual studio 10.0\vc\include\utility
;	COMDAT ??$forward@ABUsPopupItemInfo@PopupStoreWnd@@@std@@YAABUsPopupItemInfo@PopupStoreWnd@@ABU12@@Z
_TEXT	SEGMENT
__Arg$ = 8						; size = 4
??$forward@ABUsPopupItemInfo@PopupStoreWnd@@@std@@YAABUsPopupItemInfo@PopupStoreWnd@@ABU12@@Z PROC ; std::forward<PopupStoreWnd::sPopupItemInfo const &>, COMDAT

; 78   : 	{	// forward _Arg, given explicitly specified type parameter

  00000	55		 push	 ebp
  00001	8b ec		 mov	 ebp, esp

; 79   : 	return ((_Ty&&)_Arg);

  00003	8b 45 08	 mov	 eax, DWORD PTR __Arg$[ebp]

; 80   : 	}

  00006	5d		 pop	 ebp
  00007	c3		 ret	 0
??$forward@ABUsPopupItemInfo@PopupStoreWnd@@@std@@YAABUsPopupItemInfo@PopupStoreWnd@@ABU12@@Z ENDP ; std::forward<PopupStoreWnd::sPopupItemInfo const &>
_TEXT	ENDS
PUBLIC	??$_Ptr_cat@UsPopupItemInfo@PopupStoreWnd@@U12@@std@@YA?AU_Nonscalar_ptr_iterator_tag@0@PAUsPopupItemInfo@PopupStoreWnd@@0@Z ; std::_Ptr_cat<PopupStoreWnd::sPopupItemInfo,PopupStoreWnd::sPopupItemInfo>
; Function compile flags: /Ogsp
; File c:\program files (x86)\microsoft visual studio 10.0\vc\include\xutility
;	COMDAT ??$_Ptr_cat@UsPopupItemInfo@PopupStoreWnd@@U12@@std@@YA?AU_Nonscalar_ptr_iterator_tag@0@PAUsPopupItemInfo@PopupStoreWnd@@0@Z
_TEXT	SEGMENT
__Cat$ = -1						; size = 1
___formal$ = 8						; size = 4
___formal$ = 12						; size = 4
??$_Ptr_cat@UsPopupItemInfo@PopupStoreWnd@@U12@@std@@YA?AU_Nonscalar_ptr_iterator_tag@0@PAUsPopupItemInfo@PopupStoreWnd@@0@Z PROC ; std::_Ptr_cat<PopupStoreWnd::sPopupItemInfo,PopupStoreWnd::sPopupItemInfo>, COMDAT

; 516  : 	{	// return pointer category from pointers

  00000	55		 push	 ebp
  00001	8b ec		 mov	 ebp, esp
  00003	51		 push	 ecx

; 517  : 	typename _Ptr_cat_helper<_Elem1, _Elem2>::_Type _Cat;
; 518  : 	return (_Cat);

  00004	8a 45 ff	 mov	 al, BYTE PTR __Cat$[ebp]

; 519  : 	}

  00007	c9		 leave
  00008	c3		 ret	 0
??$_Ptr_cat@UsPopupItemInfo@PopupStoreWnd@@U12@@std@@YA?AU_Nonscalar_ptr_iterator_tag@0@PAUsPopupItemInfo@PopupStoreWnd@@0@Z ENDP ; std::_Ptr_cat<PopupStoreWnd::sPopupItemInfo,PopupStoreWnd::sPopupItemInfo>
_TEXT	ENDS
PUBLIC	??$_Construct@UsPopupItemInfo@PopupStoreWnd@@ABU12@@std@@YAXPAUsPopupItemInfo@PopupStoreWnd@@ABU12@@Z ; std::_Construct<PopupStoreWnd::sPopupItemInfo,PopupStoreWnd::sPopupItemInfo const &>
; Function compile flags: /Ogsp
; File c:\program files (x86)\microsoft visual studio 10.0\vc\include\xmemory
;	COMDAT ??$_Construct@UsPopupItemInfo@PopupStoreWnd@@ABU12@@std@@YAXPAUsPopupItemInfo@PopupStoreWnd@@ABU12@@Z
_TEXT	SEGMENT
__Ptr$ = 8						; size = 4
__Val$ = 12						; size = 4
??$_Construct@UsPopupItemInfo@PopupStoreWnd@@ABU12@@std@@YAXPAUsPopupItemInfo@PopupStoreWnd@@ABU12@@Z PROC ; std::_Construct<PopupStoreWnd::sPopupItemInfo,PopupStoreWnd::sPopupItemInfo const &>, COMDAT

; 46   : 	{	// construct object at _Ptr with value _Val

  00000	55		 push	 ebp
  00001	8b ec		 mov	 ebp, esp
  00003	57		 push	 edi

; 47   : 	void _FARQ *_Vptr = _Ptr;
; 48   : 	::new (_Vptr) _Ty1(_STD forward<_Ty2>(_Val));

  00004	8b 7d 08	 mov	 edi, DWORD PTR __Ptr$[ebp]
  00007	85 ff		 test	 edi, edi
  00009	74 0a		 je	 SHORT $LN3@Construct
  0000b	56		 push	 esi
  0000c	8b 75 0c	 mov	 esi, DWORD PTR __Val$[ebp]
  0000f	6a 14		 push	 20			; 00000014H
  00011	59		 pop	 ecx
  00012	f3 a5		 rep movsd
  00014	5e		 pop	 esi
$LN3@Construct:
  00015	5f		 pop	 edi

; 49   : 	}

  00016	5d		 pop	 ebp
  00017	c3		 ret	 0
??$_Construct@UsPopupItemInfo@PopupStoreWnd@@ABU12@@std@@YAXPAUsPopupItemInfo@PopupStoreWnd@@ABU12@@Z ENDP ; std::_Construct<PopupStoreWnd::sPopupItemInfo,PopupStoreWnd::sPopupItemInfo const &>
_TEXT	ENDS
PUBLIC	??0?$allocator@V?$_Function_impl1@HUBINDSTRUCT@ioWnd@@@tr1@std@@@std@@QAE@XZ ; std::allocator<std::tr1::_Function_impl1<int,ioWnd::BINDSTRUCT> >::allocator<std::tr1::_Function_impl1<int,ioWnd::BINDSTRUCT> >
; Function compile flags: /Ogsp
;	COMDAT ??0?$allocator@V?$_Function_impl1@HUBINDSTRUCT@ioWnd@@@tr1@std@@@std@@QAE@XZ
_TEXT	SEGMENT
??0?$allocator@V?$_Function_impl1@HUBINDSTRUCT@ioWnd@@@tr1@std@@@std@@QAE@XZ PROC ; std::allocator<std::tr1::_Function_impl1<int,ioWnd::BINDSTRUCT> >::allocator<std::tr1::_Function_impl1<int,ioWnd::BINDSTRUCT> >, COMDAT
; _this$ = ecx

; 161  : 	_ALLOCATOR() _THROW0()

  00000	8b c1		 mov	 eax, ecx

; 162  : 		{	// construct default allocator (do nothing)
; 163  : 		}

  00002	c3		 ret	 0
??0?$allocator@V?$_Function_impl1@HUBINDSTRUCT@ioWnd@@@tr1@std@@@std@@QAE@XZ ENDP ; std::allocator<std::tr1::_Function_impl1<int,ioWnd::BINDSTRUCT> >::allocator<std::tr1::_Function_impl1<int,ioWnd::BINDSTRUCT> >
_TEXT	ENDS
PUBLIC	??$_Val_type@PAUsPopupItemInfo@PopupStoreWnd@@@std@@YAPAUsPopupItemInfo@PopupStoreWnd@@PAU12@@Z ; std::_Val_type<PopupStoreWnd::sPopupItemInfo *>
; Function compile flags: /Ogsp
; File c:\program files (x86)\microsoft visual studio 10.0\vc\include\xutility
;	COMDAT ??$_Val_type@PAUsPopupItemInfo@PopupStoreWnd@@@std@@YAPAUsPopupItemInfo@PopupStoreWnd@@PAU12@@Z
_TEXT	SEGMENT
___formal$ = 8						; size = 4
??$_Val_type@PAUsPopupItemInfo@PopupStoreWnd@@@std@@YAPAUsPopupItemInfo@PopupStoreWnd@@PAU12@@Z PROC ; std::_Val_type<PopupStoreWnd::sPopupItemInfo *>, COMDAT

; 790  : 	return (0);

  00000	33 c0		 xor	 eax, eax

; 791  : 	}

  00002	c3		 ret	 0
??$_Val_type@PAUsPopupItemInfo@PopupStoreWnd@@@std@@YAPAUsPopupItemInfo@PopupStoreWnd@@PAU12@@Z ENDP ; std::_Val_type<PopupStoreWnd::sPopupItemInfo *>
_TEXT	ENDS
PUBLIC	??0?$allocator@V?$_Impl_no_alloc1@U?$_Callable_obj@V?$_Bind@HHV?$_Bind1@U?$_Callable_pmf@Q8PopupStoreWnd@@AEHXZV1@$0A@@tr1@std@@PAVPopupStoreWnd@@@tr1@std@@@tr1@std@@$0A@@tr1@std@@HUBINDSTRUCT@ioWnd@@@tr1@std@@@std@@QAE@XZ ; std::allocator<std::tr1::_Impl_no_alloc1<std::tr1::_Callable_obj<std::tr1::_Bind<int,int,std::tr1::_Bind1<std::tr1::_Callable_pmf<int (__thiscall PopupStoreWnd::*const)(void),PopupStoreWnd,0>,PopupStoreWnd *> >,0>,int,ioWnd::BINDSTRUCT> >::allocator<std::tr1::_Impl_no_alloc1<std::tr1::_Callable_obj<std::tr1::_Bind<int,int,std::tr1::_Bind1<std::tr1::_Callable_pmf<int (__thiscall PopupStoreWnd::*const)(void),PopupStoreWnd,0>,PopupStoreWnd *> >,0>,int,ioWnd::BINDSTRUCT> >
; Function compile flags: /Ogsp
; File c:\program files (x86)\microsoft visual studio 10.0\vc\include\xmemory
;	COMDAT ??0?$allocator@V?$_Impl_no_alloc1@U?$_Callable_obj@V?$_Bind@HHV?$_Bind1@U?$_Callable_pmf@Q8PopupStoreWnd@@AEHXZV1@$0A@@tr1@std@@PAVPopupStoreWnd@@@tr1@std@@@tr1@std@@$0A@@tr1@std@@HUBINDSTRUCT@ioWnd@@@tr1@std@@@std@@QAE@XZ
_TEXT	SEGMENT
??0?$allocator@V?$_Impl_no_alloc1@U?$_Callable_obj@V?$_Bind@HHV?$_Bind1@U?$_Callable_pmf@Q8PopupStoreWnd@@AEHXZV1@$0A@@tr1@std@@PAVPopupStoreWnd@@@tr1@std@@@tr1@std@@$0A@@tr1@std@@HUBINDSTRUCT@ioWnd@@@tr1@std@@@std@@QAE@XZ PROC ; std::allocator<std::tr1::_Impl_no_alloc1<std::tr1::_Callable_obj<std::tr1::_Bind<int,int,std::tr1::_Bind1<std::tr1::_Callable_pmf<int (__thiscall PopupStoreWnd::*const)(void),PopupStoreWnd,0>,PopupStoreWnd *> >,0>,int,ioWnd::BINDSTRUCT> >::allocator<std::tr1::_Impl_no_alloc1<std::tr1::_Callable_obj<std::tr1::_Bind<int,int,std::tr1::_Bind1<std::tr1::_Callable_pmf<int (__thiscall PopupStoreWnd::*const)(void),PopupStoreWnd,0>,PopupStoreWnd *> >,0>,int,ioWnd::BINDSTRUCT> >, COMDAT
; _this$ = ecx

; 161  : 	_ALLOCATOR() _THROW0()

  00000	8b c1		 mov	 eax, ecx

; 162  : 		{	// construct default allocator (do nothing)
; 163  : 		}

  00002	c3		 ret	 0
??0?$allocator@V?$_Impl_no_alloc1@U?$_Callable_obj@V?$_Bind@HHV?$_Bind1@U?$_Callable_pmf@Q8PopupStoreWnd@@AEHXZV1@$0A@@tr1@std@@PAVPopupStoreWnd@@@tr1@std@@@tr1@std@@$0A@@tr1@std@@HUBINDSTRUCT@ioWnd@@@tr1@std@@@std@@QAE@XZ ENDP ; std::allocator<std::tr1::_Impl_no_alloc1<std::tr1::_Callable_obj<std::tr1::_Bind<int,int,std::tr1::_Bind1<std::tr1::_Callable_pmf<int (__thiscall PopupStoreWnd::*const)(void),PopupStoreWnd,0>,PopupStoreWnd *> >,0>,int,ioWnd::BINDSTRUCT> >::allocator<std::tr1::_Impl_no_alloc1<std::tr1::_Callable_obj<std::tr1::_Bind<int,int,std::tr1::_Bind1<std::tr1::_Callable_pmf<int (__thiscall PopupStoreWnd::*const)(void),PopupStoreWnd,0>,PopupStoreWnd *> >,0>,int,ioWnd::BINDSTRUCT> >
_TEXT	ENDS
PUBLIC	??0?$allocator@V?$_Impl_no_alloc1@U?$_Callable_obj@V?$_Bind@HHV?$_Bind1@U?$_Callable_pmf@Q8PopupStoreWnd@@AEHXZV1@$0A@@tr1@std@@PAVPopupStoreWnd@@@tr1@std@@@tr1@std@@$0A@@tr1@std@@HUBINDSTRUCT@ioWnd@@@tr1@std@@@std@@QAE@ABV01@@Z ; std::allocator<std::tr1::_Impl_no_alloc1<std::tr1::_Callable_obj<std::tr1::_Bind<int,int,std::tr1::_Bind1<std::tr1::_Callable_pmf<int (__thiscall PopupStoreWnd::*const)(void),PopupStoreWnd,0>,PopupStoreWnd *> >,0>,int,ioWnd::BINDSTRUCT> >::allocator<std::tr1::_Impl_no_alloc1<std::tr1::_Callable_obj<std::tr1::_Bind<int,int,std::tr1::_Bind1<std::tr1::_Callable_pmf<int (__thiscall PopupStoreWnd::*const)(void),PopupStoreWnd,0>,PopupStoreWnd *> >,0>,int,ioWnd::BINDSTRUCT> >
; Function compile flags: /Ogsp
;	COMDAT ??0?$allocator@V?$_Impl_no_alloc1@U?$_Callable_obj@V?$_Bind@HHV?$_Bind1@U?$_Callable_pmf@Q8PopupStoreWnd@@AEHXZV1@$0A@@tr1@std@@PAVPopupStoreWnd@@@tr1@std@@@tr1@std@@$0A@@tr1@std@@HUBINDSTRUCT@ioWnd@@@tr1@std@@@std@@QAE@ABV01@@Z
_TEXT	SEGMENT
___formal$ = 8						; size = 4
??0?$allocator@V?$_Impl_no_alloc1@U?$_Callable_obj@V?$_Bind@HHV?$_Bind1@U?$_Callable_pmf@Q8PopupStoreWnd@@AEHXZV1@$0A@@tr1@std@@PAVPopupStoreWnd@@@tr1@std@@@tr1@std@@$0A@@tr1@std@@HUBINDSTRUCT@ioWnd@@@tr1@std@@@std@@QAE@ABV01@@Z PROC ; std::allocator<std::tr1::_Impl_no_alloc1<std::tr1::_Callable_obj<std::tr1::_Bind<int,int,std::tr1::_Bind1<std::tr1::_Callable_pmf<int (__thiscall PopupStoreWnd::*const)(void),PopupStoreWnd,0>,PopupStoreWnd *> >,0>,int,ioWnd::BINDSTRUCT> >::allocator<std::tr1::_Impl_no_alloc1<std::tr1::_Callable_obj<std::tr1::_Bind<int,int,std::tr1::_Bind1<std::tr1::_Callable_pmf<int (__thiscall PopupStoreWnd::*const)(void),PopupStoreWnd,0>,PopupStoreWnd *> >,0>,int,ioWnd::BINDSTRUCT> >, COMDAT
; _this$ = ecx

; 165  : 	_ALLOCATOR(const _ALLOCATOR<_Ty>&) _THROW0()

  00000	8b c1		 mov	 eax, ecx

; 166  : 		{	// construct by copying (do nothing)
; 167  : 		}

  00002	c2 04 00	 ret	 4
??0?$allocator@V?$_Impl_no_alloc1@U?$_Callable_obj@V?$_Bind@HHV?$_Bind1@U?$_Callable_pmf@Q8PopupStoreWnd@@AEHXZV1@$0A@@tr1@std@@PAVPopupStoreWnd@@@tr1@std@@@tr1@std@@$0A@@tr1@std@@HUBINDSTRUCT@ioWnd@@@tr1@std@@@std@@QAE@ABV01@@Z ENDP ; std::allocator<std::tr1::_Impl_no_alloc1<std::tr1::_Callable_obj<std::tr1::_Bind<int,int,std::tr1::_Bind1<std::tr1::_Callable_pmf<int (__thiscall PopupStoreWnd::*const)(void),PopupStoreWnd,0>,PopupStoreWnd *> >,0>,int,ioWnd::BINDSTRUCT> >::allocator<std::tr1::_Impl_no_alloc1<std::tr1::_Callable_obj<std::tr1::_Bind<int,int,std::tr1::_Bind1<std::tr1::_Callable_pmf<int (__thiscall PopupStoreWnd::*const)(void),PopupStoreWnd,0>,PopupStoreWnd *> >,0>,int,ioWnd::BINDSTRUCT> >
_TEXT	ENDS
PUBLIC	??0?$allocator@V?$_Impl_no_alloc1@U?$_Callable_obj@V?$_Bind@HHV?$_Bind1@U?$_Callable_pmf@Q8PopupStoreSubWnd@@AEHXZV1@$0A@@tr1@std@@PAVPopupStoreSubWnd@@@tr1@std@@@tr1@std@@$0A@@tr1@std@@HUBINDSTRUCT@ioWnd@@@tr1@std@@@std@@QAE@XZ ; std::allocator<std::tr1::_Impl_no_alloc1<std::tr1::_Callable_obj<std::tr1::_Bind<int,int,std::tr1::_Bind1<std::tr1::_Callable_pmf<int (__thiscall PopupStoreSubWnd::*const)(void),PopupStoreSubWnd,0>,PopupStoreSubWnd *> >,0>,int,ioWnd::BINDSTRUCT> >::allocator<std::tr1::_Impl_no_alloc1<std::tr1::_Callable_obj<std::tr1::_Bind<int,int,std::tr1::_Bind1<std::tr1::_Callable_pmf<int (__thiscall PopupStoreSubWnd::*const)(void),PopupStoreSubWnd,0>,PopupStoreSubWnd *> >,0>,int,ioWnd::BINDSTRUCT> >
; Function compile flags: /Ogsp
;	COMDAT ??0?$allocator@V?$_Impl_no_alloc1@U?$_Callable_obj@V?$_Bind@HHV?$_Bind1@U?$_Callable_pmf@Q8PopupStoreSubWnd@@AEHXZV1@$0A@@tr1@std@@PAVPopupStoreSubWnd@@@tr1@std@@@tr1@std@@$0A@@tr1@std@@HUBINDSTRUCT@ioWnd@@@tr1@std@@@std@@QAE@XZ
_TEXT	SEGMENT
??0?$allocator@V?$_Impl_no_alloc1@U?$_Callable_obj@V?$_Bind@HHV?$_Bind1@U?$_Callable_pmf@Q8PopupStoreSubWnd@@AEHXZV1@$0A@@tr1@std@@PAVPopupStoreSubWnd@@@tr1@std@@@tr1@std@@$0A@@tr1@std@@HUBINDSTRUCT@ioWnd@@@tr1@std@@@std@@QAE@XZ PROC ; std::allocator<std::tr1::_Impl_no_alloc1<std::tr1::_Callable_obj<std::tr1::_Bind<int,int,std::tr1::_Bind1<std::tr1::_Callable_pmf<int (__thiscall PopupStoreSubWnd::*const)(void),PopupStoreSubWnd,0>,PopupStoreSubWnd *> >,0>,int,ioWnd::BINDSTRUCT> >::allocator<std::tr1::_Impl_no_alloc1<std::tr1::_Callable_obj<std::tr1::_Bind<int,int,std::tr1::_Bind1<std::tr1::_Callable_pmf<int (__thiscall PopupStoreSubWnd::*const)(void),PopupStoreSubWnd,0>,PopupStoreSubWnd *> >,0>,int,ioWnd::BINDSTRUCT> >, COMDAT
; _this$ = ecx

; 161  : 	_ALLOCATOR() _THROW0()

  00000	8b c1		 mov	 eax, ecx

; 162  : 		{	// construct default allocator (do nothing)
; 163  : 		}

  00002	c3		 ret	 0
??0?$allocator@V?$_Impl_no_alloc1@U?$_Callable_obj@V?$_Bind@HHV?$_Bind1@U?$_Callable_pmf@Q8PopupStoreSubWnd@@AEHXZV1@$0A@@tr1@std@@PAVPopupStoreSubWnd@@@tr1@std@@@tr1@std@@$0A@@tr1@std@@HUBINDSTRUCT@ioWnd@@@tr1@std@@@std@@QAE@XZ ENDP ; std::allocator<std::tr1::_Impl_no_alloc1<std::tr1::_Callable_obj<std::tr1::_Bind<int,int,std::tr1::_Bind1<std::tr1::_Callable_pmf<int (__thiscall PopupStoreSubWnd::*const)(void),PopupStoreSubWnd,0>,PopupStoreSubWnd *> >,0>,int,ioWnd::BINDSTRUCT> >::allocator<std::tr1::_Impl_no_alloc1<std::tr1::_Callable_obj<std::tr1::_Bind<int,int,std::tr1::_Bind1<std::tr1::_Callable_pmf<int (__thiscall PopupStoreSubWnd::*const)(void),PopupStoreSubWnd,0>,PopupStoreSubWnd *> >,0>,int,ioWnd::BINDSTRUCT> >
_TEXT	ENDS
PUBLIC	??0?$allocator@V?$_Impl_no_alloc1@U?$_Callable_obj@V?$_Bind@HHV?$_Bind1@U?$_Callable_pmf@Q8PopupStoreSubWnd@@AEHXZV1@$0A@@tr1@std@@PAVPopupStoreSubWnd@@@tr1@std@@@tr1@std@@$0A@@tr1@std@@HUBINDSTRUCT@ioWnd@@@tr1@std@@@std@@QAE@ABV01@@Z ; std::allocator<std::tr1::_Impl_no_alloc1<std::tr1::_Callable_obj<std::tr1::_Bind<int,int,std::tr1::_Bind1<std::tr1::_Callable_pmf<int (__thiscall PopupStoreSubWnd::*const)(void),PopupStoreSubWnd,0>,PopupStoreSubWnd *> >,0>,int,ioWnd::BINDSTRUCT> >::allocator<std::tr1::_Impl_no_alloc1<std::tr1::_Callable_obj<std::tr1::_Bind<int,int,std::tr1::_Bind1<std::tr1::_Callable_pmf<int (__thiscall PopupStoreSubWnd::*const)(void),PopupStoreSubWnd,0>,PopupStoreSubWnd *> >,0>,int,ioWnd::BINDSTRUCT> >
; Function compile flags: /Ogsp
;	COMDAT ??0?$allocator@V?$_Impl_no_alloc1@U?$_Callable_obj@V?$_Bind@HHV?$_Bind1@U?$_Callable_pmf@Q8PopupStoreSubWnd@@AEHXZV1@$0A@@tr1@std@@PAVPopupStoreSubWnd@@@tr1@std@@@tr1@std@@$0A@@tr1@std@@HUBINDSTRUCT@ioWnd@@@tr1@std@@@std@@QAE@ABV01@@Z
_TEXT	SEGMENT
___formal$ = 8						; size = 4
??0?$allocator@V?$_Impl_no_alloc1@U?$_Callable_obj@V?$_Bind@HHV?$_Bind1@U?$_Callable_pmf@Q8PopupStoreSubWnd@@AEHXZV1@$0A@@tr1@std@@PAVPopupStoreSubWnd@@@tr1@std@@@tr1@std@@$0A@@tr1@std@@HUBINDSTRUCT@ioWnd@@@tr1@std@@@std@@QAE@ABV01@@Z PROC ; std::allocator<std::tr1::_Impl_no_alloc1<std::tr1::_Callable_obj<std::tr1::_Bind<int,int,std::tr1::_Bind1<std::tr1::_Callable_pmf<int (__thiscall PopupStoreSubWnd::*const)(void),PopupStoreSubWnd,0>,PopupStoreSubWnd *> >,0>,int,ioWnd::BINDSTRUCT> >::allocator<std::tr1::_Impl_no_alloc1<std::tr1::_Callable_obj<std::tr1::_Bind<int,int,std::tr1::_Bind1<std::tr1::_Callable_pmf<int (__thiscall PopupStoreSubWnd::*const)(void),PopupStoreSubWnd,0>,PopupStoreSubWnd *> >,0>,int,ioWnd::BINDSTRUCT> >, COMDAT
; _this$ = ecx

; 165  : 	_ALLOCATOR(const _ALLOCATOR<_Ty>&) _THROW0()

  00000	8b c1		 mov	 eax, ecx

; 166  : 		{	// construct by copying (do nothing)
; 167  : 		}

  00002	c2 04 00	 ret	 4
??0?$allocator@V?$_Impl_no_alloc1@U?$_Callable_obj@V?$_Bind@HHV?$_Bind1@U?$_Callable_pmf@Q8PopupStoreSubWnd@@AEHXZV1@$0A@@tr1@std@@PAVPopupStoreSubWnd@@@tr1@std@@@tr1@std@@$0A@@tr1@std@@HUBINDSTRUCT@ioWnd@@@tr1@std@@@std@@QAE@ABV01@@Z ENDP ; std::allocator<std::tr1::_Impl_no_alloc1<std::tr1::_Callable_obj<std::tr1::_Bind<int,int,std::tr1::_Bind1<std::tr1::_Callable_pmf<int (__thiscall PopupStoreSubWnd::*const)(void),PopupStoreSubWnd,0>,PopupStoreSubWnd *> >,0>,int,ioWnd::BINDSTRUCT> >::allocator<std::tr1::_Impl_no_alloc1<std::tr1::_Callable_obj<std::tr1::_Bind<int,int,std::tr1::_Bind1<std::tr1::_Callable_pmf<int (__thiscall PopupStoreSubWnd::*const)(void),PopupStoreSubWnd,0>,PopupStoreSubWnd *> >,0>,int,ioWnd::BINDSTRUCT> >
_TEXT	ENDS
PUBLIC	??_7?$_Impl_base1@HUBINDSTRUCT@ioWnd@@@tr1@std@@6B@ ; std::tr1::_Impl_base1<int,ioWnd::BINDSTRUCT>::`vftable'
PUBLIC	??0?$_Impl_base1@HUBINDSTRUCT@ioWnd@@@tr1@std@@QAE@XZ ; std::tr1::_Impl_base1<int,ioWnd::BINDSTRUCT>::_Impl_base1<int,ioWnd::BINDSTRUCT>
PUBLIC	??_R4?$_Impl_base1@HUBINDSTRUCT@ioWnd@@@tr1@std@@6B@ ; std::tr1::_Impl_base1<int,ioWnd::BINDSTRUCT>::`RTTI Complete Object Locator'
PUBLIC	??_R0?AV?$_Impl_base1@HUBINDSTRUCT@ioWnd@@@tr1@std@@@8 ; std::tr1::_Impl_base1<int,ioWnd::BINDSTRUCT> `RTTI Type Descriptor'
PUBLIC	??_R3?$_Impl_base1@HUBINDSTRUCT@ioWnd@@@tr1@std@@8 ; std::tr1::_Impl_base1<int,ioWnd::BINDSTRUCT>::`RTTI Class Hierarchy Descriptor'
PUBLIC	??_R2?$_Impl_base1@HUBINDSTRUCT@ioWnd@@@tr1@std@@8 ; std::tr1::_Impl_base1<int,ioWnd::BINDSTRUCT>::`RTTI Base Class Array'
PUBLIC	??_R1A@?0A@EA@?$_Impl_base1@HUBINDSTRUCT@ioWnd@@@tr1@std@@8 ; std::tr1::_Impl_base1<int,ioWnd::BINDSTRUCT>::`RTTI Base Class Descriptor at (0,-1,0,64)'
EXTRN	__purecall:PROC
EXTRN	??_E?$_Impl_base1@HUBINDSTRUCT@ioWnd@@@tr1@std@@UAEPAXI@Z:PROC ; std::tr1::_Impl_base1<int,ioWnd::BINDSTRUCT>::`vector deleting destructor'
;	COMDAT ??_R1A@?0A@EA@?$_Impl_base1@HUBINDSTRUCT@ioWnd@@@tr1@std@@8
rdata$r	SEGMENT
??_R1A@?0A@EA@?$_Impl_base1@HUBINDSTRUCT@ioWnd@@@tr1@std@@8 DD FLAT:??_R0?AV?$_Impl_base1@HUBINDSTRUCT@ioWnd@@@tr1@std@@@8 ; std::tr1::_Impl_base1<int,ioWnd::BINDSTRUCT>::`RTTI Base Class Descriptor at (0,-1,0,64)'
	DD	00H
	DD	00H
	DD	0ffffffffH
	DD	00H
	DD	040H
	DD	FLAT:??_R3?$_Impl_base1@HUBINDSTRUCT@ioWnd@@@tr1@std@@8
rdata$r	ENDS
;	COMDAT ??_R2?$_Impl_base1@HUBINDSTRUCT@ioWnd@@@tr1@std@@8
rdata$r	SEGMENT
??_R2?$_Impl_base1@HUBINDSTRUCT@ioWnd@@@tr1@std@@8 DD FLAT:??_R1A@?0A@EA@?$_Impl_base1@HUBINDSTRUCT@ioWnd@@@tr1@std@@8 ; std::tr1::_Impl_base1<int,ioWnd::BINDSTRUCT>::`RTTI Base Class Array'
rdata$r	ENDS
;	COMDAT ??_R3?$_Impl_base1@HUBINDSTRUCT@ioWnd@@@tr1@std@@8
rdata$r	SEGMENT
??_R3?$_Impl_base1@HUBINDSTRUCT@ioWnd@@@tr1@std@@8 DD 00H ; std::tr1::_Impl_base1<int,ioWnd::BINDSTRUCT>::`RTTI Class Hierarchy Descriptor'
	DD	00H
	DD	01H
	DD	FLAT:??_R2?$_Impl_base1@HUBINDSTRUCT@ioWnd@@@tr1@std@@8
rdata$r	ENDS
;	COMDAT ??_R0?AV?$_Impl_base1@HUBINDSTRUCT@ioWnd@@@tr1@std@@@8
_DATA	SEGMENT
??_R0?AV?$_Impl_base1@HUBINDSTRUCT@ioWnd@@@tr1@std@@@8 DD FLAT:??_7type_info@@6B@ ; std::tr1::_Impl_base1<int,ioWnd::BINDSTRUCT> `RTTI Type Descriptor'
	DD	00H
	DB	'.?AV?$_Impl_base1@HUBINDSTRUCT@ioWnd@@@tr1@std@@', 00H
_DATA	ENDS
;	COMDAT ??_R4?$_Impl_base1@HUBINDSTRUCT@ioWnd@@@tr1@std@@6B@
rdata$r	SEGMENT
??_R4?$_Impl_base1@HUBINDSTRUCT@ioWnd@@@tr1@std@@6B@ DD 00H ; std::tr1::_Impl_base1<int,ioWnd::BINDSTRUCT>::`RTTI Complete Object Locator'
	DD	00H
	DD	00H
	DD	FLAT:??_R0?AV?$_Impl_base1@HUBINDSTRUCT@ioWnd@@@tr1@std@@@8
	DD	FLAT:??_R3?$_Impl_base1@HUBINDSTRUCT@ioWnd@@@tr1@std@@8
rdata$r	ENDS
;	COMDAT ??_7?$_Impl_base1@HUBINDSTRUCT@ioWnd@@@tr1@std@@6B@
CONST	SEGMENT
??_7?$_Impl_base1@HUBINDSTRUCT@ioWnd@@@tr1@std@@6B@ DD FLAT:??_R4?$_Impl_base1@HUBINDSTRUCT@ioWnd@@@tr1@std@@6B@ ; std::tr1::_Impl_base1<int,ioWnd::BINDSTRUCT>::`vftable'
	DD	FLAT:__purecall
	DD	FLAT:__purecall
	DD	FLAT:__purecall
	DD	FLAT:__purecall
	DD	FLAT:??_E?$_Impl_base1@HUBINDSTRUCT@ioWnd@@@tr1@std@@UAEPAXI@Z
	DD	FLAT:__purecall
; Function compile flags: /Ogsp
CONST	ENDS
;	COMDAT ??0?$_Impl_base1@HUBINDSTRUCT@ioWnd@@@tr1@std@@QAE@XZ
_TEXT	SEGMENT
??0?$_Impl_base1@HUBINDSTRUCT@ioWnd@@@tr1@std@@QAE@XZ PROC ; std::tr1::_Impl_base1<int,ioWnd::BINDSTRUCT>::_Impl_base1<int,ioWnd::BINDSTRUCT>, COMDAT
; _this$ = ecx
  00000	8b c1		 mov	 eax, ecx
  00002	c7 00 00 00 00
	00		 mov	 DWORD PTR [eax], OFFSET ??_7?$_Impl_base1@HUBINDSTRUCT@ioWnd@@@tr1@std@@6B@
  00008	c3		 ret	 0
??0?$_Impl_base1@HUBINDSTRUCT@ioWnd@@@tr1@std@@QAE@XZ ENDP ; std::tr1::_Impl_base1<int,ioWnd::BINDSTRUCT>::_Impl_base1<int,ioWnd::BINDSTRUCT>
_TEXT	ENDS
PUBLIC	??0?$_Callable_base@V?$_Bind@HHV?$_Bind1@U?$_Callable_pmf@Q8PopupStoreWnd@@AEHXZV1@$0A@@tr1@std@@PAVPopupStoreWnd@@@tr1@std@@@tr1@std@@$0A@@tr1@std@@QAE@AAV?$_Bind@HHV?$_Bind1@U?$_Callable_pmf@Q8PopupStoreWnd@@AEHXZV1@$0A@@tr1@std@@PAVPopupStoreWnd@@@tr1@std@@@12@@Z ; std::tr1::_Callable_base<std::tr1::_Bind<int,int,std::tr1::_Bind1<std::tr1::_Callable_pmf<int (__thiscall PopupStoreWnd::*const)(void),PopupStoreWnd,0>,PopupStoreWnd *> >,0>::_Callable_base<std::tr1::_Bind<int,int,std::tr1::_Bind1<std::tr1::_Callable_pmf<int (__thiscall PopupStoreWnd::*const)(void),PopupStoreWnd,0>,PopupStoreWnd *> >,0>
; Function compile flags: /Ogsp
; File c:\program files (x86)\microsoft visual studio 10.0\vc\include\xrefwrap
;	COMDAT ??0?$_Callable_base@V?$_Bind@HHV?$_Bind1@U?$_Callable_pmf@Q8PopupStoreWnd@@AEHXZV1@$0A@@tr1@std@@PAVPopupStoreWnd@@@tr1@std@@@tr1@std@@$0A@@tr1@std@@QAE@AAV?$_Bind@HHV?$_Bind1@U?$_Callable_pmf@Q8PopupStoreWnd@@AEHXZV1@$0A@@tr1@std@@PAVPopupStoreWnd@@@tr1@std@@@12@@Z
_TEXT	SEGMENT
__Val$ = 8						; size = 4
??0?$_Callable_base@V?$_Bind@HHV?$_Bind1@U?$_Callable_pmf@Q8PopupStoreWnd@@AEHXZV1@$0A@@tr1@std@@PAVPopupStoreWnd@@@tr1@std@@@tr1@std@@$0A@@tr1@std@@QAE@AAV?$_Bind@HHV?$_Bind1@U?$_Callable_pmf@Q8PopupStoreWnd@@AEHXZV1@$0A@@tr1@std@@PAVPopupStoreWnd@@@tr1@std@@@12@@Z PROC ; std::tr1::_Callable_base<std::tr1::_Bind<int,int,std::tr1::_Bind1<std::tr1::_Callable_pmf<int (__thiscall PopupStoreWnd::*const)(void),PopupStoreWnd,0>,PopupStoreWnd *> >,0>::_Callable_base<std::tr1::_Bind<int,int,std::tr1::_Bind1<std::tr1::_Callable_pmf<int (__thiscall PopupStoreWnd::*const)(void),PopupStoreWnd,0>,PopupStoreWnd *> >,0>, COMDAT
; _this$ = ecx

; 74   : 		{	// construct

  00000	55		 push	 ebp
  00001	8b ec		 mov	 ebp, esp
  00003	8b c1		 mov	 eax, ecx
  00005	8b 4d 08	 mov	 ecx, DWORD PTR __Val$[ebp]
  00008	8b 11		 mov	 edx, DWORD PTR [ecx]
  0000a	89 10		 mov	 DWORD PTR [eax], edx
  0000c	8b 49 04	 mov	 ecx, DWORD PTR [ecx+4]
  0000f	89 48 04	 mov	 DWORD PTR [eax+4], ecx

; 75   : 		}

  00012	5d		 pop	 ebp
  00013	c2 04 00	 ret	 4
??0?$_Callable_base@V?$_Bind@HHV?$_Bind1@U?$_Callable_pmf@Q8PopupStoreWnd@@AEHXZV1@$0A@@tr1@std@@PAVPopupStoreWnd@@@tr1@std@@@tr1@std@@$0A@@tr1@std@@QAE@AAV?$_Bind@HHV?$_Bind1@U?$_Callable_pmf@Q8PopupStoreWnd@@AEHXZV1@$0A@@tr1@std@@PAVPopupStoreWnd@@@tr1@std@@@12@@Z ENDP ; std::tr1::_Callable_base<std::tr1::_Bind<int,int,std::tr1::_Bind1<std::tr1::_Callable_pmf<int (__thiscall PopupStoreWnd::*const)(void),PopupStoreWnd,0>,PopupStoreWnd *> >,0>::_Callable_base<std::tr1::_Bind<int,int,std::tr1::_Bind1<std::tr1::_Callable_pmf<int (__thiscall PopupStoreWnd::*const)(void),PopupStoreWnd,0>,PopupStoreWnd *> >,0>
_TEXT	ENDS
PUBLIC	??0?$_Callable_base@V?$_Bind@HHV?$_Bind1@U?$_Callable_pmf@Q8PopupStoreSubWnd@@AEHXZV1@$0A@@tr1@std@@PAVPopupStoreSubWnd@@@tr1@std@@@tr1@std@@$0A@@tr1@std@@QAE@AAV?$_Bind@HHV?$_Bind1@U?$_Callable_pmf@Q8PopupStoreSubWnd@@AEHXZV1@$0A@@tr1@std@@PAVPopupStoreSubWnd@@@tr1@std@@@12@@Z ; std::tr1::_Callable_base<std::tr1::_Bind<int,int,std::tr1::_Bind1<std::tr1::_Callable_pmf<int (__thiscall PopupStoreSubWnd::*const)(void),PopupStoreSubWnd,0>,PopupStoreSubWnd *> >,0>::_Callable_base<std::tr1::_Bind<int,int,std::tr1::_Bind1<std::tr1::_Callable_pmf<int (__thiscall PopupStoreSubWnd::*const)(void),PopupStoreSubWnd,0>,PopupStoreSubWnd *> >,0>
; Function compile flags: /Ogsp
;	COMDAT ??0?$_Callable_base@V?$_Bind@HHV?$_Bind1@U?$_Callable_pmf@Q8PopupStoreSubWnd@@AEHXZV1@$0A@@tr1@std@@PAVPopupStoreSubWnd@@@tr1@std@@@tr1@std@@$0A@@tr1@std@@QAE@AAV?$_Bind@HHV?$_Bind1@U?$_Callable_pmf@Q8PopupStoreSubWnd@@AEHXZV1@$0A@@tr1@std@@PAVPopupStoreSubWnd@@@tr1@std@@@12@@Z
_TEXT	SEGMENT
__Val$ = 8						; size = 4
??0?$_Callable_base@V?$_Bind@HHV?$_Bind1@U?$_Callable_pmf@Q8PopupStoreSubWnd@@AEHXZV1@$0A@@tr1@std@@PAVPopupStoreSubWnd@@@tr1@std@@@tr1@std@@$0A@@tr1@std@@QAE@AAV?$_Bind@HHV?$_Bind1@U?$_Callable_pmf@Q8PopupStoreSubWnd@@AEHXZV1@$0A@@tr1@std@@PAVPopupStoreSubWnd@@@tr1@std@@@12@@Z PROC ; std::tr1::_Callable_base<std::tr1::_Bind<int,int,std::tr1::_Bind1<std::tr1::_Callable_pmf<int (__thiscall PopupStoreSubWnd::*const)(void),PopupStoreSubWnd,0>,PopupStoreSubWnd *> >,0>::_Callable_base<std::tr1::_Bind<int,int,std::tr1::_Bind1<std::tr1::_Callable_pmf<int (__thiscall PopupStoreSubWnd::*const)(void),PopupStoreSubWnd,0>,PopupStoreSubWnd *> >,0>, COMDAT
; _this$ = ecx

; 74   : 		{	// construct

  00000	55		 push	 ebp
  00001	8b ec		 mov	 ebp, esp
  00003	8b c1		 mov	 eax, ecx
  00005	8b 4d 08	 mov	 ecx, DWORD PTR __Val$[ebp]
  00008	8b 11		 mov	 edx, DWORD PTR [ecx]
  0000a	89 10		 mov	 DWORD PTR [eax], edx
  0000c	8b 49 04	 mov	 ecx, DWORD PTR [ecx+4]
  0000f	89 48 04	 mov	 DWORD PTR [eax+4], ecx

; 75   : 		}

  00012	5d		 pop	 ebp
  00013	c2 04 00	 ret	 4
??0?$_Callable_base@V?$_Bind@HHV?$_Bind1@U?$_Callable_pmf@Q8PopupStoreSubWnd@@AEHXZV1@$0A@@tr1@std@@PAVPopupStoreSubWnd@@@tr1@std@@@tr1@std@@$0A@@tr1@std@@QAE@AAV?$_Bind@HHV?$_Bind1@U?$_Callable_pmf@Q8PopupStoreSubWnd@@AEHXZV1@$0A@@tr1@std@@PAVPopupStoreSubWnd@@@tr1@std@@@12@@Z ENDP ; std::tr1::_Callable_base<std::tr1::_Bind<int,int,std::tr1::_Bind1<std::tr1::_Callable_pmf<int (__thiscall PopupStoreSubWnd::*const)(void),PopupStoreSubWnd,0>,PopupStoreSubWnd *> >,0>::_Callable_base<std::tr1::_Bind<int,int,std::tr1::_Bind1<std::tr1::_Callable_pmf<int (__thiscall PopupStoreSubWnd::*const)(void),PopupStoreSubWnd,0>,PopupStoreSubWnd *> >,0>
_TEXT	ENDS
PUBLIC	??$?0V?$_Function_impl1@HUBINDSTRUCT@ioWnd@@@tr1@std@@@?$allocator@V?$_Impl_no_alloc1@U?$_Callable_obj@V?$_Bind@HHV?$_Bind1@U?$_Callable_pmf@Q8PopupStoreWnd@@AEHXZV1@$0A@@tr1@std@@PAVPopupStoreWnd@@@tr1@std@@@tr1@std@@$0A@@tr1@std@@HUBINDSTRUCT@ioWnd@@@tr1@std@@@std@@QAE@ABV?$allocator@V?$_Function_impl1@HUBINDSTRUCT@ioWnd@@@tr1@std@@@1@@Z ; std::allocator<std::tr1::_Impl_no_alloc1<std::tr1::_Callable_obj<std::tr1::_Bind<int,int,std::tr1::_Bind1<std::tr1::_Callable_pmf<int (__thiscall PopupStoreWnd::*const)(void),PopupStoreWnd,0>,PopupStoreWnd *> >,0>,int,ioWnd::BINDSTRUCT> >::allocator<std::tr1::_Impl_no_alloc1<std::tr1::_Callable_obj<std::tr1::_Bind<int,int,std::tr1::_Bind1<std::tr1::_Callable_pmf<int (__thiscall PopupStoreWnd::*const)(void),PopupStoreWnd,0>,PopupStoreWnd *> >,0>,int,ioWnd::BINDSTRUCT> ><std::tr1::_Function_impl1<int,ioWnd::BINDSTRUCT> >
; Function compile flags: /Ogsp
; File c:\program files (x86)\microsoft visual studio 10.0\vc\include\xmemory
;	COMDAT ??$?0V?$_Function_impl1@HUBINDSTRUCT@ioWnd@@@tr1@std@@@?$allocator@V?$_Impl_no_alloc1@U?$_Callable_obj@V?$_Bind@HHV?$_Bind1@U?$_Callable_pmf@Q8PopupStoreWnd@@AEHXZV1@$0A@@tr1@std@@PAVPopupStoreWnd@@@tr1@std@@@tr1@std@@$0A@@tr1@std@@HUBINDSTRUCT@ioWnd@@@tr1@std@@@std@@QAE@ABV?$allocator@V?$_Function_impl1@HUBINDSTRUCT@ioWnd@@@tr1@std@@@1@@Z
_TEXT	SEGMENT
___formal$ = 8						; size = 4
??$?0V?$_Function_impl1@HUBINDSTRUCT@ioWnd@@@tr1@std@@@?$allocator@V?$_Impl_no_alloc1@U?$_Callable_obj@V?$_Bind@HHV?$_Bind1@U?$_Callable_pmf@Q8PopupStoreWnd@@AEHXZV1@$0A@@tr1@std@@PAVPopupStoreWnd@@@tr1@std@@@tr1@std@@$0A@@tr1@std@@HUBINDSTRUCT@ioWnd@@@tr1@std@@@std@@QAE@ABV?$allocator@V?$_Function_impl1@HUBINDSTRUCT@ioWnd@@@tr1@std@@@1@@Z PROC ; std::allocator<std::tr1::_Impl_no_alloc1<std::tr1::_Callable_obj<std::tr1::_Bind<int,int,std::tr1::_Bind1<std::tr1::_Callable_pmf<int (__thiscall PopupStoreWnd::*const)(void),PopupStoreWnd,0>,PopupStoreWnd *> >,0>,int,ioWnd::BINDSTRUCT> >::allocator<std::tr1::_Impl_no_alloc1<std::tr1::_Callable_obj<std::tr1::_Bind<int,int,std::tr1::_Bind1<std::tr1::_Callable_pmf<int (__thiscall PopupStoreWnd::*const)(void),PopupStoreWnd,0>,PopupStoreWnd *> >,0>,int,ioWnd::BINDSTRUCT> ><std::tr1::_Function_impl1<int,ioWnd::BINDSTRUCT> >, COMDAT
; _this$ = ecx

; 170  : 		_ALLOCATOR(const _ALLOCATOR<_Other>&) _THROW0()

  00000	8b c1		 mov	 eax, ecx

; 171  : 		{	// construct from a related allocator (do nothing)
; 172  : 		}

  00002	c2 04 00	 ret	 4
??$?0V?$_Function_impl1@HUBINDSTRUCT@ioWnd@@@tr1@std@@@?$allocator@V?$_Impl_no_alloc1@U?$_Callable_obj@V?$_Bind@HHV?$_Bind1@U?$_Callable_pmf@Q8PopupStoreWnd@@AEHXZV1@$0A@@tr1@std@@PAVPopupStoreWnd@@@tr1@std@@@tr1@std@@$0A@@tr1@std@@HUBINDSTRUCT@ioWnd@@@tr1@std@@@std@@QAE@ABV?$allocator@V?$_Function_impl1@HUBINDSTRUCT@ioWnd@@@tr1@std@@@1@@Z ENDP ; std::allocator<std::tr1::_Impl_no_alloc1<std::tr1::_Callable_obj<std::tr1::_Bind<int,int,std::tr1::_Bind1<std::tr1::_Callable_pmf<int (__thiscall PopupStoreWnd::*const)(void),PopupStoreWnd,0>,PopupStoreWnd *> >,0>,int,ioWnd::BINDSTRUCT> >::allocator<std::tr1::_Impl_no_alloc1<std::tr1::_Callable_obj<std::tr1::_Bind<int,int,std::tr1::_Bind1<std::tr1::_Callable_pmf<int (__thiscall PopupStoreWnd::*const)(void),PopupStoreWnd,0>,PopupStoreWnd *> >,0>,int,ioWnd::BINDSTRUCT> ><std::tr1::_Function_impl1<int,ioWnd::BINDSTRUCT> >
_TEXT	ENDS
PUBLIC	??$?0V?$_Function_impl1@HUBINDSTRUCT@ioWnd@@@tr1@std@@@?$allocator@V?$_Impl_no_alloc1@U?$_Callable_obj@V?$_Bind@HHV?$_Bind1@U?$_Callable_pmf@Q8PopupStoreSubWnd@@AEHXZV1@$0A@@tr1@std@@PAVPopupStoreSubWnd@@@tr1@std@@@tr1@std@@$0A@@tr1@std@@HUBINDSTRUCT@ioWnd@@@tr1@std@@@std@@QAE@ABV?$allocator@V?$_Function_impl1@HUBINDSTRUCT@ioWnd@@@tr1@std@@@1@@Z ; std::allocator<std::tr1::_Impl_no_alloc1<std::tr1::_Callable_obj<std::tr1::_Bind<int,int,std::tr1::_Bind1<std::tr1::_Callable_pmf<int (__thiscall PopupStoreSubWnd::*const)(void),PopupStoreSubWnd,0>,PopupStoreSubWnd *> >,0>,int,ioWnd::BINDSTRUCT> >::allocator<std::tr1::_Impl_no_alloc1<std::tr1::_Callable_obj<std::tr1::_Bind<int,int,std::tr1::_Bind1<std::tr1::_Callable_pmf<int (__thiscall PopupStoreSubWnd::*const)(void),PopupStoreSubWnd,0>,PopupStoreSubWnd *> >,0>,int,ioWnd::BINDSTRUCT> ><std::tr1::_Function_impl1<int,ioWnd::BINDSTRUCT> >
; Function compile flags: /Ogsp
;	COMDAT ??$?0V?$_Function_impl1@HUBINDSTRUCT@ioWnd@@@tr1@std@@@?$allocator@V?$_Impl_no_alloc1@U?$_Callable_obj@V?$_Bind@HHV?$_Bind1@U?$_Callable_pmf@Q8PopupStoreSubWnd@@AEHXZV1@$0A@@tr1@std@@PAVPopupStoreSubWnd@@@tr1@std@@@tr1@std@@$0A@@tr1@std@@HUBINDSTRUCT@ioWnd@@@tr1@std@@@std@@QAE@ABV?$allocator@V?$_Function_impl1@HUBINDSTRUCT@ioWnd@@@tr1@std@@@1@@Z
_TEXT	SEGMENT
___formal$ = 8						; size = 4
??$?0V?$_Function_impl1@HUBINDSTRUCT@ioWnd@@@tr1@std@@@?$allocator@V?$_Impl_no_alloc1@U?$_Callable_obj@V?$_Bind@HHV?$_Bind1@U?$_Callable_pmf@Q8PopupStoreSubWnd@@AEHXZV1@$0A@@tr1@std@@PAVPopupStoreSubWnd@@@tr1@std@@@tr1@std@@$0A@@tr1@std@@HUBINDSTRUCT@ioWnd@@@tr1@std@@@std@@QAE@ABV?$allocator@V?$_Function_impl1@HUBINDSTRUCT@ioWnd@@@tr1@std@@@1@@Z PROC ; std::allocator<std::tr1::_Impl_no_alloc1<std::tr1::_Callable_obj<std::tr1::_Bind<int,int,std::tr1::_Bind1<std::tr1::_Callable_pmf<int (__thiscall PopupStoreSubWnd::*const)(void),PopupStoreSubWnd,0>,PopupStoreSubWnd *> >,0>,int,ioWnd::BINDSTRUCT> >::allocator<std::tr1::_Impl_no_alloc1<std::tr1::_Callable_obj<std::tr1::_Bind<int,int,std::tr1::_Bind1<std::tr1::_Callable_pmf<int (__thiscall PopupStoreSubWnd::*const)(void),PopupStoreSubWnd,0>,PopupStoreSubWnd *> >,0>,int,ioWnd::BINDSTRUCT> ><std::tr1::_Function_impl1<int,ioWnd::BINDSTRUCT> >, COMDAT
; _this$ = ecx

; 170  : 		_ALLOCATOR(const _ALLOCATOR<_Other>&) _THROW0()

  00000	8b c1		 mov	 eax, ecx

; 171  : 		{	// construct from a related allocator (do nothing)
; 172  : 		}

  00002	c2 04 00	 ret	 4
??$?0V?$_Function_impl1@HUBINDSTRUCT@ioWnd@@@tr1@std@@@?$allocator@V?$_Impl_no_alloc1@U?$_Callable_obj@V?$_Bind@HHV?$_Bind1@U?$_Callable_pmf@Q8PopupStoreSubWnd@@AEHXZV1@$0A@@tr1@std@@PAVPopupStoreSubWnd@@@tr1@std@@@tr1@std@@$0A@@tr1@std@@HUBINDSTRUCT@ioWnd@@@tr1@std@@@std@@QAE@ABV?$allocator@V?$_Function_impl1@HUBINDSTRUCT@ioWnd@@@tr1@std@@@1@@Z ENDP ; std::allocator<std::tr1::_Impl_no_alloc1<std::tr1::_Callable_obj<std::tr1::_Bind<int,int,std::tr1::_Bind1<std::tr1::_Callable_pmf<int (__thiscall PopupStoreSubWnd::*const)(void),PopupStoreSubWnd,0>,PopupStoreSubWnd *> >,0>,int,ioWnd::BINDSTRUCT> >::allocator<std::tr1::_Impl_no_alloc1<std::tr1::_Callable_obj<std::tr1::_Bind<int,int,std::tr1::_Bind1<std::tr1::_Callable_pmf<int (__thiscall PopupStoreSubWnd::*const)(void),PopupStoreSubWnd,0>,PopupStoreSubWnd *> >,0>,int,ioWnd::BINDSTRUCT> ><std::tr1::_Function_impl1<int,ioWnd::BINDSTRUCT> >
_TEXT	ENDS
PUBLIC	??$_Destroy@UsPopupItemInfo@PopupStoreWnd@@@std@@YAXPAUsPopupItemInfo@PopupStoreWnd@@@Z ; std::_Destroy<PopupStoreWnd::sPopupItemInfo>
; Function compile flags: /Ogsp
;	COMDAT ??$_Destroy@UsPopupItemInfo@PopupStoreWnd@@@std@@YAXPAUsPopupItemInfo@PopupStoreWnd@@@Z
_TEXT	SEGMENT
__Ptr$ = 8						; size = 4
??$_Destroy@UsPopupItemInfo@PopupStoreWnd@@@std@@YAXPAUsPopupItemInfo@PopupStoreWnd@@@Z PROC ; std::_Destroy<PopupStoreWnd::sPopupItemInfo>, COMDAT

; 63   : 	_Ptr->~_Ty();
; 64   : 	}

  00000	c3		 ret	 0
??$_Destroy@UsPopupItemInfo@PopupStoreWnd@@@std@@YAXPAUsPopupItemInfo@PopupStoreWnd@@@Z ENDP ; std::_Destroy<PopupStoreWnd::sPopupItemInfo>
_TEXT	ENDS
PUBLIC	??$_Allocate@V?$_Impl_no_alloc1@U?$_Callable_obj@V?$_Bind@HHV?$_Bind1@U?$_Callable_pmf@Q8PopupStoreWnd@@AEHXZV1@$0A@@tr1@std@@PAVPopupStoreWnd@@@tr1@std@@@tr1@std@@$0A@@tr1@std@@HUBINDSTRUCT@ioWnd@@@tr1@std@@@std@@YAPAV?$_Impl_no_alloc1@U?$_Callable_obj@V?$_Bind@HHV?$_Bind1@U?$_Callable_pmf@Q8PopupStoreWnd@@AEHXZV1@$0A@@tr1@std@@PAVPopupStoreWnd@@@tr1@std@@@tr1@std@@$0A@@tr1@std@@HUBINDSTRUCT@ioWnd@@@tr1@0@IPAV120@@Z ; std::_Allocate<std::tr1::_Impl_no_alloc1<std::tr1::_Callable_obj<std::tr1::_Bind<int,int,std::tr1::_Bind1<std::tr1::_Callable_pmf<int (__thiscall PopupStoreWnd::*const)(void),PopupStoreWnd,0>,PopupStoreWnd *> >,0>,int,ioWnd::BINDSTRUCT> >
; Function compile flags: /Ogsp
;	COMDAT ??$_Allocate@V?$_Impl_no_alloc1@U?$_Callable_obj@V?$_Bind@HHV?$_Bind1@U?$_Callable_pmf@Q8PopupStoreWnd@@AEHXZV1@$0A@@tr1@std@@PAVPopupStoreWnd@@@tr1@std@@@tr1@std@@$0A@@tr1@std@@HUBINDSTRUCT@ioWnd@@@tr1@std@@@std@@YAPAV?$_Impl_no_alloc1@U?$_Callable_obj@V?$_Bind@HHV?$_Bind1@U?$_Callable_pmf@Q8PopupStoreWnd@@AEHXZV1@$0A@@tr1@std@@PAVPopupStoreWnd@@@tr1@std@@@tr1@std@@$0A@@tr1@std@@HUBINDSTRUCT@ioWnd@@@tr1@0@IPAV120@@Z
_TEXT	SEGMENT
$T514458 = -12						; size = 12
$T514462 = 8						; size = 4
__Count$ = 8						; size = 4
___formal$ = 12						; size = 4
??$_Allocate@V?$_Impl_no_alloc1@U?$_Callable_obj@V?$_Bind@HHV?$_Bind1@U?$_Callable_pmf@Q8PopupStoreWnd@@AEHXZV1@$0A@@tr1@std@@PAVPopupStoreWnd@@@tr1@std@@@tr1@std@@$0A@@tr1@std@@HUBINDSTRUCT@ioWnd@@@tr1@std@@@std@@YAPAV?$_Impl_no_alloc1@U?$_Callable_obj@V?$_Bind@HHV?$_Bind1@U?$_Callable_pmf@Q8PopupStoreWnd@@AEHXZV1@$0A@@tr1@std@@PAVPopupStoreWnd@@@tr1@std@@@tr1@std@@$0A@@tr1@std@@HUBINDSTRUCT@ioWnd@@@tr1@0@IPAV120@@Z PROC ; std::_Allocate<std::tr1::_Impl_no_alloc1<std::tr1::_Callable_obj<std::tr1::_Bind<int,int,std::tr1::_Bind1<std::tr1::_Callable_pmf<int (__thiscall PopupStoreWnd::*const)(void),PopupStoreWnd,0>,PopupStoreWnd *> >,0>,int,ioWnd::BINDSTRUCT> >, COMDAT

; 30   : 	{	// allocate storage for _Count elements of type _Ty

  00000	55		 push	 ebp
  00001	8b ec		 mov	 ebp, esp

; 31   : 	void *_Ptr = 0;
; 32   : 
; 33   : 	if (_Count <= 0)

  00003	8b 4d 08	 mov	 ecx, DWORD PTR __Count$[ebp]
  00006	83 ec 0c	 sub	 esp, 12			; 0000000cH
  00009	33 c0		 xor	 eax, eax
  0000b	85 c9		 test	 ecx, ecx

; 34   : 		_Count = 0;
; 35   : 	else if (((_SIZT)(-1) / sizeof (_Ty) < _Count)

  0000d	74 3c		 je	 SHORT $LN5@Allocate@2

; 36   : 		|| (_Ptr = ::operator new(_Count * sizeof (_Ty))) == 0)

  0000f	81 f9 55 55 55
	15		 cmp	 ecx, 357913941		; 15555555H
  00015	77 0e		 ja	 SHORT $LN1@Allocate@2
  00017	6b c9 0c	 imul	 ecx, 12			; 0000000cH
  0001a	51		 push	 ecx
  0001b	e8 00 00 00 00	 call	 ??2@YAPAXI@Z		; operator new
  00020	59		 pop	 ecx
  00021	85 c0		 test	 eax, eax

; 38   : 
; 39   : 	return ((_Ty _FARQ *)_Ptr);

  00023	75 26		 jne	 SHORT $LN5@Allocate@2
$LN1@Allocate@2:

; 37   : 		_THROW_NCEE(bad_alloc, 0);

  00025	83 65 08 00	 and	 DWORD PTR $T514462[ebp], 0
  00029	8d 45 08	 lea	 eax, DWORD PTR $T514462[ebp]
  0002c	50		 push	 eax
  0002d	8d 4d f4	 lea	 ecx, DWORD PTR $T514458[ebp]
  00030	ff 15 00 00 00
	00		 call	 DWORD PTR __imp_??0exception@std@@QAE@ABQBD@Z
  00036	68 00 00 00 00	 push	 OFFSET __TI2?AVbad_alloc@std@@
  0003b	8d 45 f4	 lea	 eax, DWORD PTR $T514458[ebp]
  0003e	50		 push	 eax
  0003f	c7 45 f4 00 00
	00 00		 mov	 DWORD PTR $T514458[ebp], OFFSET ??_7bad_alloc@std@@6B@
  00046	e8 00 00 00 00	 call	 __CxxThrowException@8
$LN10@Allocate@2:
$LN5@Allocate@2:

; 40   : 	}

  0004b	c9		 leave
  0004c	c3		 ret	 0
$LN9@Allocate@2:
??$_Allocate@V?$_Impl_no_alloc1@U?$_Callable_obj@V?$_Bind@HHV?$_Bind1@U?$_Callable_pmf@Q8PopupStoreWnd@@AEHXZV1@$0A@@tr1@std@@PAVPopupStoreWnd@@@tr1@std@@@tr1@std@@$0A@@tr1@std@@HUBINDSTRUCT@ioWnd@@@tr1@std@@@std@@YAPAV?$_Impl_no_alloc1@U?$_Callable_obj@V?$_Bind@HHV?$_Bind1@U?$_Callable_pmf@Q8PopupStoreWnd@@AEHXZV1@$0A@@tr1@std@@PAVPopupStoreWnd@@@tr1@std@@@tr1@std@@$0A@@tr1@std@@HUBINDSTRUCT@ioWnd@@@tr1@0@IPAV120@@Z ENDP ; std::_Allocate<std::tr1::_Impl_no_alloc1<std::tr1::_Callable_obj<std::tr1::_Bind<int,int,std::tr1::_Bind1<std::tr1::_Callable_pmf<int (__thiscall PopupStoreWnd::*const)(void),PopupStoreWnd,0>,PopupStoreWnd *> >,0>,int,ioWnd::BINDSTRUCT> >
_TEXT	ENDS
PUBLIC	??$_Allocate@V?$_Impl_no_alloc1@U?$_Callable_obj@V?$_Bind@HHV?$_Bind1@U?$_Callable_pmf@Q8PopupStoreSubWnd@@AEHXZV1@$0A@@tr1@std@@PAVPopupStoreSubWnd@@@tr1@std@@@tr1@std@@$0A@@tr1@std@@HUBINDSTRUCT@ioWnd@@@tr1@std@@@std@@YAPAV?$_Impl_no_alloc1@U?$_Callable_obj@V?$_Bind@HHV?$_Bind1@U?$_Callable_pmf@Q8PopupStoreSubWnd@@AEHXZV1@$0A@@tr1@std@@PAVPopupStoreSubWnd@@@tr1@std@@@tr1@std@@$0A@@tr1@std@@HUBINDSTRUCT@ioWnd@@@tr1@0@IPAV120@@Z ; std::_Allocate<std::tr1::_Impl_no_alloc1<std::tr1::_Callable_obj<std::tr1::_Bind<int,int,std::tr1::_Bind1<std::tr1::_Callable_pmf<int (__thiscall PopupStoreSubWnd::*const)(void),PopupStoreSubWnd,0>,PopupStoreSubWnd *> >,0>,int,ioWnd::BINDSTRUCT> >
; Function compile flags: /Ogsp
;	COMDAT ??$_Allocate@V?$_Impl_no_alloc1@U?$_Callable_obj@V?$_Bind@HHV?$_Bind1@U?$_Callable_pmf@Q8PopupStoreSubWnd@@AEHXZV1@$0A@@tr1@std@@PAVPopupStoreSubWnd@@@tr1@std@@@tr1@std@@$0A@@tr1@std@@HUBINDSTRUCT@ioWnd@@@tr1@std@@@std@@YAPAV?$_Impl_no_alloc1@U?$_Callable_obj@V?$_Bind@HHV?$_Bind1@U?$_Callable_pmf@Q8PopupStoreSubWnd@@AEHXZV1@$0A@@tr1@std@@PAVPopupStoreSubWnd@@@tr1@std@@@tr1@std@@$0A@@tr1@std@@HUBINDSTRUCT@ioWnd@@@tr1@0@IPAV120@@Z
_TEXT	SEGMENT
$T514467 = -12						; size = 12
$T514471 = 8						; size = 4
__Count$ = 8						; size = 4
___formal$ = 12						; size = 4
??$_Allocate@V?$_Impl_no_alloc1@U?$_Callable_obj@V?$_Bind@HHV?$_Bind1@U?$_Callable_pmf@Q8PopupStoreSubWnd@@AEHXZV1@$0A@@tr1@std@@PAVPopupStoreSubWnd@@@tr1@std@@@tr1@std@@$0A@@tr1@std@@HUBINDSTRUCT@ioWnd@@@tr1@std@@@std@@YAPAV?$_Impl_no_alloc1@U?$_Callable_obj@V?$_Bind@HHV?$_Bind1@U?$_Callable_pmf@Q8PopupStoreSubWnd@@AEHXZV1@$0A@@tr1@std@@PAVPopupStoreSubWnd@@@tr1@std@@@tr1@std@@$0A@@tr1@std@@HUBINDSTRUCT@ioWnd@@@tr1@0@IPAV120@@Z PROC ; std::_Allocate<std::tr1::_Impl_no_alloc1<std::tr1::_Callable_obj<std::tr1::_Bind<int,int,std::tr1::_Bind1<std::tr1::_Callable_pmf<int (__thiscall PopupStoreSubWnd::*const)(void),PopupStoreSubWnd,0>,PopupStoreSubWnd *> >,0>,int,ioWnd::BINDSTRUCT> >, COMDAT

; 30   : 	{	// allocate storage for _Count elements of type _Ty

  00000	55		 push	 ebp
  00001	8b ec		 mov	 ebp, esp

; 31   : 	void *_Ptr = 0;
; 32   : 
; 33   : 	if (_Count <= 0)

  00003	8b 4d 08	 mov	 ecx, DWORD PTR __Count$[ebp]
  00006	83 ec 0c	 sub	 esp, 12			; 0000000cH
  00009	33 c0		 xor	 eax, eax
  0000b	85 c9		 test	 ecx, ecx

; 34   : 		_Count = 0;
; 35   : 	else if (((_SIZT)(-1) / sizeof (_Ty) < _Count)

  0000d	74 3c		 je	 SHORT $LN5@Allocate@3

; 36   : 		|| (_Ptr = ::operator new(_Count * sizeof (_Ty))) == 0)

  0000f	81 f9 55 55 55
	15		 cmp	 ecx, 357913941		; 15555555H
  00015	77 0e		 ja	 SHORT $LN1@Allocate@3
  00017	6b c9 0c	 imul	 ecx, 12			; 0000000cH
  0001a	51		 push	 ecx
  0001b	e8 00 00 00 00	 call	 ??2@YAPAXI@Z		; operator new
  00020	59		 pop	 ecx
  00021	85 c0		 test	 eax, eax

; 38   : 
; 39   : 	return ((_Ty _FARQ *)_Ptr);

  00023	75 26		 jne	 SHORT $LN5@Allocate@3
$LN1@Allocate@3:

; 37   : 		_THROW_NCEE(bad_alloc, 0);

  00025	83 65 08 00	 and	 DWORD PTR $T514471[ebp], 0
  00029	8d 45 08	 lea	 eax, DWORD PTR $T514471[ebp]
  0002c	50		 push	 eax
  0002d	8d 4d f4	 lea	 ecx, DWORD PTR $T514467[ebp]
  00030	ff 15 00 00 00
	00		 call	 DWORD PTR __imp_??0exception@std@@QAE@ABQBD@Z
  00036	68 00 00 00 00	 push	 OFFSET __TI2?AVbad_alloc@std@@
  0003b	8d 45 f4	 lea	 eax, DWORD PTR $T514467[ebp]
  0003e	50		 push	 eax
  0003f	c7 45 f4 00 00
	00 00		 mov	 DWORD PTR $T514467[ebp], OFFSET ??_7bad_alloc@std@@6B@
  00046	e8 00 00 00 00	 call	 __CxxThrowException@8
$LN10@Allocate@3:
$LN5@Allocate@3:

; 40   : 	}

  0004b	c9		 leave
  0004c	c3		 ret	 0
$LN9@Allocate@3:
??$_Allocate@V?$_Impl_no_alloc1@U?$_Callable_obj@V?$_Bind@HHV?$_Bind1@U?$_Callable_pmf@Q8PopupStoreSubWnd@@AEHXZV1@$0A@@tr1@std@@PAVPopupStoreSubWnd@@@tr1@std@@@tr1@std@@$0A@@tr1@std@@HUBINDSTRUCT@ioWnd@@@tr1@std@@@std@@YAPAV?$_Impl_no_alloc1@U?$_Callable_obj@V?$_Bind@HHV?$_Bind1@U?$_Callable_pmf@Q8PopupStoreSubWnd@@AEHXZV1@$0A@@tr1@std@@PAVPopupStoreSubWnd@@@tr1@std@@@tr1@std@@$0A@@tr1@std@@HUBINDSTRUCT@ioWnd@@@tr1@0@IPAV120@@Z ENDP ; std::_Allocate<std::tr1::_Impl_no_alloc1<std::tr1::_Callable_obj<std::tr1::_Bind<int,int,std::tr1::_Bind1<std::tr1::_Callable_pmf<int (__thiscall PopupStoreSubWnd::*const)(void),PopupStoreSubWnd,0>,PopupStoreSubWnd *> >,0>,int,ioWnd::BINDSTRUCT> >
_TEXT	ENDS
PUBLIC	??$forward@UsPopupItemInfo@PopupStoreWnd@@@std@@YA$$QAUsPopupItemInfo@PopupStoreWnd@@AAU12@@Z ; std::forward<PopupStoreWnd::sPopupItemInfo>
; Function compile flags: /Ogsp
; File c:\program files (x86)\microsoft visual studio 10.0\vc\include\utility
;	COMDAT ??$forward@UsPopupItemInfo@PopupStoreWnd@@@std@@YA$$QAUsPopupItemInfo@PopupStoreWnd@@AAU12@@Z
_TEXT	SEGMENT
__Arg$ = 8						; size = 4
??$forward@UsPopupItemInfo@PopupStoreWnd@@@std@@YA$$QAUsPopupItemInfo@PopupStoreWnd@@AAU12@@Z PROC ; std::forward<PopupStoreWnd::sPopupItemInfo>, COMDAT

; 78   : 	{	// forward _Arg, given explicitly specified type parameter

  00000	55		 push	 ebp
  00001	8b ec		 mov	 ebp, esp

; 79   : 	return ((_Ty&&)_Arg);

  00003	8b 45 08	 mov	 eax, DWORD PTR __Arg$[ebp]

; 80   : 	}

  00006	5d		 pop	 ebp
  00007	c3		 ret	 0
??$forward@UsPopupItemInfo@PopupStoreWnd@@@std@@YA$$QAUsPopupItemInfo@PopupStoreWnd@@AAU12@@Z ENDP ; std::forward<PopupStoreWnd::sPopupItemInfo>
_TEXT	ENDS
PUBLIC	?_DECSTR@@YAXPADH@Z				; _DECSTR
; Function compile flags: /Ogsp
; File d:\lost saga for developer\youtube\tutorial\source\src\lsclient\stringprotect.h
;	COMDAT ?_DECSTR@@YAXPADH@Z
_TEXT	SEGMENT
_s$ = 8							; size = 4
_l$ = 12						; size = 4
?_DECSTR@@YAXPADH@Z PROC				; _DECSTR, COMDAT

; 40   : __forceinline void _DECSTR(char* s, int l){int i=0,l4=(l-1)/4,*p=(int*)s;s[l-1]=0;for(;i<l4;++i)*(p++)^=0xEAEBECED;for(i=l4*4;i<l-1;++i)s[i]^=0xED-i%4;}

  00000	55		 push	 ebp
  00001	8b ec		 mov	 ebp, esp
  00003	8b 4d 0c	 mov	 ecx, DWORD PTR _l$[ebp]
  00006	56		 push	 esi
  00007	8b 75 08	 mov	 esi, DWORD PTR _s$[ebp]
  0000a	57		 push	 edi
  0000b	8d 79 ff	 lea	 edi, DWORD PTR [ecx-1]
  0000e	8b c7		 mov	 eax, edi
  00010	99		 cdq
  00011	83 e2 03	 and	 edx, 3
  00014	03 c2		 add	 eax, edx
  00016	c1 f8 02	 sar	 eax, 2
  00019	8b d6		 mov	 edx, esi
  0001b	c6 44 0e ff 00	 mov	 BYTE PTR [esi+ecx-1], 0
  00020	85 c0		 test	 eax, eax
  00022	7e 0e		 jle	 SHORT $LN4@DECSTR
  00024	8b c8		 mov	 ecx, eax
$LL6@DECSTR:
  00026	81 32 ed ec eb
	ea		 xor	 DWORD PTR [edx], -353637139 ; eaebecedH
  0002c	83 c2 04	 add	 edx, 4
  0002f	49		 dec	 ecx
  00030	75 f4		 jne	 SHORT $LL6@DECSTR
$LN4@DECSTR:
  00032	c1 e0 02	 shl	 eax, 2
  00035	eb 17		 jmp	 SHORT $LN14@DECSTR
$LL3@DECSTR:
  00037	8b c8		 mov	 ecx, eax
  00039	81 e1 03 00 00
	80		 and	 ecx, -2147483645	; 80000003H
  0003f	79 05		 jns	 SHORT $LN13@DECSTR
  00041	49		 dec	 ecx
  00042	83 c9 fc	 or	 ecx, -4			; fffffffcH
  00045	41		 inc	 ecx
$LN13@DECSTR:
  00046	b2 ed		 mov	 dl, -19			; ffffffedH
  00048	2a d1		 sub	 dl, cl
  0004a	30 14 30	 xor	 BYTE PTR [eax+esi], dl
  0004d	40		 inc	 eax
$LN14@DECSTR:
  0004e	3b c7		 cmp	 eax, edi
  00050	7c e5		 jl	 SHORT $LL3@DECSTR
  00052	5f		 pop	 edi
  00053	5e		 pop	 esi
  00054	5d		 pop	 ebp
  00055	c3		 ret	 0
?_DECSTR@@YAXPADH@Z ENDP				; _DECSTR
_TEXT	ENDS
PUBLIC	?SetToolTipWndID@ioLSMouse@@QAEXK@Z		; ioLSMouse::SetToolTipWndID
; Function compile flags: /Ogsp
; File d:\lost saga for developer\youtube\tutorial\source\src\lsclient\iolsmouse.h
;	COMDAT ?SetToolTipWndID@ioLSMouse@@QAEXK@Z
_TEXT	SEGMENT
_dwToolTipWndID$ = 8					; size = 4
?SetToolTipWndID@ioLSMouse@@QAEXK@Z PROC		; ioLSMouse::SetToolTipWndID, COMDAT
; _this$ = ecx

; 56   : 	void SetToolTipWndID(DWORD dwToolTipWndID) { m_dwToolTipWndID = dwToolTipWndID; }

  00000	55		 push	 ebp
  00001	8b ec		 mov	 ebp, esp
  00003	8b 45 08	 mov	 eax, DWORD PTR _dwToolTipWndID$[ebp]
  00006	89 41 74	 mov	 DWORD PTR [ecx+116], eax
  00009	5d		 pop	 ebp
  0000a	c2 04 00	 ret	 4
?SetToolTipWndID@ioLSMouse@@QAEXK@Z ENDP		; ioLSMouse::SetToolTipWndID
_TEXT	ENDS
PUBLIC	?GetMouse@ioApplication@@QAEPAVioLSMouse@@XZ	; ioApplication::GetMouse
; Function compile flags: /Ogsp
; File d:\lost saga for developer\youtube\tutorial\source\src\lsclient\ioapplication.h
;	COMDAT ?GetMouse@ioApplication@@QAEPAVioLSMouse@@XZ
_TEXT	SEGMENT
?GetMouse@ioApplication@@QAEPAVioLSMouse@@XZ PROC	; ioApplication::GetMouse, COMDAT
; _this$ = ecx

; 796  : 	inline ioLSMouse* GetMouse(){ return &m_Mouse;	}

  00000	8d 81 90 00 00
	00		 lea	 eax, DWORD PTR [ecx+144]
  00006	c3		 ret	 0
?GetMouse@ioApplication@@QAEPAVioLSMouse@@XZ ENDP	; ioApplication::GetMouse
_TEXT	ENDS
PUBLIC	?GetCash@ioMyInfo@@QBEHXZ			; ioMyInfo::GetCash
; Function compile flags: /Ogsp
; File d:\lost saga for developer\youtube\tutorial\source\src\lsclient\iomyinfo.h
;	COMDAT ?GetCash@ioMyInfo@@QBEHXZ
_TEXT	SEGMENT
?GetCash@ioMyInfo@@QBEHXZ PROC				; ioMyInfo::GetCash, COMDAT
; _this$ = ecx

; 546  : 	int GetCash() const { return m_user_data.m_cash; }

  00000	8b 41 2c	 mov	 eax, DWORD PTR [ecx+44]
  00003	c3		 ret	 0
?GetCash@ioMyInfo@@QBEHXZ ENDP				; ioMyInfo::GetCash
_TEXT	ENDS
PUBLIC	?_Local@?$_Function_impl1@HUBINDSTRUCT@ioWnd@@@tr1@std@@ABE_NXZ ; std::tr1::_Function_impl1<int,ioWnd::BINDSTRUCT>::_Local
; Function compile flags: /Ogsp
; File c:\program files (x86)\microsoft visual studio 10.0\vc\include\xxfunction
;	COMDAT ?_Local@?$_Function_impl1@HUBINDSTRUCT@ioWnd@@@tr1@std@@ABE_NXZ
_TEXT	SEGMENT
?_Local@?$_Function_impl1@HUBINDSTRUCT@ioWnd@@@tr1@std@@ABE_NXZ PROC ; std::tr1::_Function_impl1<int,ioWnd::BINDSTRUCT>::_Local, COMDAT
; _this$ = ecx

; 1433 : 		return ((void *)_Impl == (void *)&_Space);

  00000	33 c0		 xor	 eax, eax
  00002	39 49 10	 cmp	 DWORD PTR [ecx+16], ecx
  00005	0f 94 c0	 sete	 al

; 1434 : 		}

  00008	c3		 ret	 0
?_Local@?$_Function_impl1@HUBINDSTRUCT@ioWnd@@@tr1@std@@ABE_NXZ ENDP ; std::tr1::_Function_impl1<int,ioWnd::BINDSTRUCT>::_Local
_TEXT	ENDS
PUBLIC	?_Set@?$_Function_impl1@HUBINDSTRUCT@ioWnd@@@tr1@std@@AAEXPAV?$_Impl_base1@HUBINDSTRUCT@ioWnd@@@23@@Z ; std::tr1::_Function_impl1<int,ioWnd::BINDSTRUCT>::_Set
; Function compile flags: /Ogsp
;	COMDAT ?_Set@?$_Function_impl1@HUBINDSTRUCT@ioWnd@@@tr1@std@@AAEXPAV?$_Impl_base1@HUBINDSTRUCT@ioWnd@@@23@@Z
_TEXT	SEGMENT
__Ptr$ = 8						; size = 4
?_Set@?$_Function_impl1@HUBINDSTRUCT@ioWnd@@@tr1@std@@AAEXPAV?$_Impl_base1@HUBINDSTRUCT@ioWnd@@@23@@Z PROC ; std::tr1::_Function_impl1<int,ioWnd::BINDSTRUCT>::_Set, COMDAT
; _this$ = ecx

; 1437 : 		{	// store pointer to object

  00000	55		 push	 ebp
  00001	8b ec		 mov	 ebp, esp

; 1438 : 		_Impl = _Ptr;

  00003	8b 45 08	 mov	 eax, DWORD PTR __Ptr$[ebp]
  00006	89 41 10	 mov	 DWORD PTR [ecx+16], eax

; 1439 : 		}

  00009	5d		 pop	 ebp
  0000a	c2 04 00	 ret	 4
?_Set@?$_Function_impl1@HUBINDSTRUCT@ioWnd@@@tr1@std@@AAEXPAV?$_Impl_base1@HUBINDSTRUCT@ioWnd@@@23@@Z ENDP ; std::tr1::_Function_impl1<int,ioWnd::BINDSTRUCT>::_Set
_TEXT	ENDS
PUBLIC	??1?$_Impl_base1@HUBINDSTRUCT@ioWnd@@@tr1@std@@UAE@XZ ; std::tr1::_Impl_base1<int,ioWnd::BINDSTRUCT>::~_Impl_base1<int,ioWnd::BINDSTRUCT>
; Function compile flags: /Ogsp
;	COMDAT ??1?$_Impl_base1@HUBINDSTRUCT@ioWnd@@@tr1@std@@UAE@XZ
_TEXT	SEGMENT
??1?$_Impl_base1@HUBINDSTRUCT@ioWnd@@@tr1@std@@UAE@XZ PROC ; std::tr1::_Impl_base1<int,ioWnd::BINDSTRUCT>::~_Impl_base1<int,ioWnd::BINDSTRUCT>, COMDAT
; _this$ = ecx

; 25   : 		{	// destroy the object

  00000	c7 01 00 00 00
	00		 mov	 DWORD PTR [ecx], OFFSET ??_7?$_Impl_base1@HUBINDSTRUCT@ioWnd@@@tr1@std@@6B@

; 26   : 		}

  00006	c3		 ret	 0
??1?$_Impl_base1@HUBINDSTRUCT@ioWnd@@@tr1@std@@UAE@XZ ENDP ; std::tr1::_Impl_base1<int,ioWnd::BINDSTRUCT>::~_Impl_base1<int,ioWnd::BINDSTRUCT>
; Function compile flags: /Ogsp
_TEXT	ENDS
;	COMDAT ??_G?$_Impl_base1@HUBINDSTRUCT@ioWnd@@@tr1@std@@UAEPAXI@Z
_TEXT	SEGMENT
___flags$ = 8						; size = 4
??_G?$_Impl_base1@HUBINDSTRUCT@ioWnd@@@tr1@std@@UAEPAXI@Z PROC ; std::tr1::_Impl_base1<int,ioWnd::BINDSTRUCT>::`scalar deleting destructor', COMDAT
; _this$ = ecx
  00000	55		 push	 ebp
  00001	8b ec		 mov	 ebp, esp
  00003	f6 45 08 01	 test	 BYTE PTR ___flags$[ebp], 1
  00007	56		 push	 esi
  00008	8b f1		 mov	 esi, ecx
  0000a	c7 06 00 00 00
	00		 mov	 DWORD PTR [esi], OFFSET ??_7?$_Impl_base1@HUBINDSTRUCT@ioWnd@@@tr1@std@@6B@
  00010	74 07		 je	 SHORT $LN1@scalar@2
  00012	56		 push	 esi
  00013	e8 00 00 00 00	 call	 ??3@YAXPAX@Z		; operator delete
  00018	59		 pop	 ecx
$LN1@scalar@2:
  00019	8b c6		 mov	 eax, esi
  0001b	5e		 pop	 esi
  0001c	5d		 pop	 ebp
  0001d	c2 04 00	 ret	 4
??_G?$_Impl_base1@HUBINDSTRUCT@ioWnd@@@tr1@std@@UAEPAXI@Z ENDP ; std::tr1::_Impl_base1<int,ioWnd::BINDSTRUCT>::`scalar deleting destructor'
_TEXT	ENDS
EXTRN	__imp_??0exception@std@@QAE@ABV01@@Z:PROC
; Function compile flags: /Ogsp
;	COMDAT ??0bad_alloc@std@@QAE@ABV01@@Z
_TEXT	SEGMENT
___that$ = 8						; size = 4
??0bad_alloc@std@@QAE@ABV01@@Z PROC			; std::bad_alloc::bad_alloc, COMDAT
; _this$ = ecx
  00000	55		 push	 ebp
  00001	8b ec		 mov	 ebp, esp
  00003	56		 push	 esi
  00004	ff 75 08	 push	 DWORD PTR ___that$[ebp]
  00007	8b f1		 mov	 esi, ecx
  00009	ff 15 00 00 00
	00		 call	 DWORD PTR __imp_??0exception@std@@QAE@ABV01@@Z
  0000f	c7 06 00 00 00
	00		 mov	 DWORD PTR [esi], OFFSET ??_7bad_alloc@std@@6B@
  00015	8b c6		 mov	 eax, esi
  00017	5e		 pop	 esi
  00018	5d		 pop	 ebp
  00019	c2 04 00	 ret	 4
??0bad_alloc@std@@QAE@ABV01@@Z ENDP			; std::bad_alloc::bad_alloc
_TEXT	ENDS
PUBLIC	?OnProcess@PopupStoreWnd@@MAEXM@Z		; PopupStoreWnd::OnProcess
EXTRN	__imp_?OnProcess@ioWnd@@MAEXM@Z:PROC
; Function compile flags: /Ogsp
; File d:\lost saga for developer\youtube\tutorial\source\src\lsclient\gui\popupstorewnd.cpp
;	COMDAT ?OnProcess@PopupStoreWnd@@MAEXM@Z
_TEXT	SEGMENT
_fTimePerSec$ = 8					; size = 4
?OnProcess@PopupStoreWnd@@MAEXM@Z PROC			; PopupStoreWnd::OnProcess, COMDAT
; _this$ = ecx

; 207  : {

  00000	55		 push	 ebp
  00001	8b ec		 mov	 ebp, esp

; 208  : 	ioWnd::OnProcess(fTimePerSec);

  00003	f3 0f 10 45 08	 movss	 xmm0, DWORD PTR _fTimePerSec$[ebp]
  00008	56		 push	 esi
  00009	51		 push	 ecx
  0000a	8b f1		 mov	 esi, ecx
  0000c	f3 0f 11 04 24	 movss	 DWORD PTR [esp], xmm0
  00011	ff 15 00 00 00
	00		 call	 DWORD PTR __imp_?OnProcess@ioWnd@@MAEXM@Z

; 209  : 
; 210  : 	//DWORD dwShowTime = 3000;
; 211  : 
; 212  : 	DWORD dwCurTime = FRAMEGETTIME();

  00017	ff 15 00 00 00
	00		 call	 DWORD PTR __imp_?GetSingleton@ioFrameTimer@@SAAAV1@XZ
  0001d	8b c8		 mov	 ecx, eax
  0001f	ff 15 00 00 00
	00		 call	 DWORD PTR __imp_?GetLoopSec@ioFrameTimer@@QBEKXZ

; 213  : 
; 214  : 	if( m_bSubPopup && (dwCurTime-m_dwShowStartTime) > 3000 )

  00025	80 be 0c 03 00
	00 00		 cmp	 BYTE PTR [esi+780], 0
  0002c	74 14		 je	 SHORT $LN1@OnProcess
  0002e	2b 86 1c 03 00
	00		 sub	 eax, DWORD PTR [esi+796]
  00034	3d b8 0b 00 00	 cmp	 eax, 3000		; 00000bb8H
  00039	76 07		 jbe	 SHORT $LN1@OnProcess

; 215  : 	{	
; 216  : 		OnChanceAfter();

  0003b	8b ce		 mov	 ecx, esi
  0003d	e8 00 00 00 00	 call	 ?OnChanceAfter@PopupStoreWnd@@QAEXXZ ; PopupStoreWnd::OnChanceAfter
$LN1@OnProcess:

; 217  : 	}
; 218  : 
; 219  : 	int iCash = g_MyInfo.GetCash();

  00042	e8 00 00 00 00	 call	 ?GetSingleton@ioMyInfo@@SAAAV1@XZ ; ioMyInfo::GetSingleton

; 220  : 	OnUpdateMyCash( iCash );

  00047	ff 70 2c	 push	 DWORD PTR [eax+44]
  0004a	8b ce		 mov	 ecx, esi
  0004c	e8 00 00 00 00	 call	 ?OnUpdateMyCash@PopupStoreWnd@@IAEXH@Z ; PopupStoreWnd::OnUpdateMyCash
  00051	5e		 pop	 esi

; 221  : }

  00052	5d		 pop	 ebp
  00053	c2 04 00	 ret	 4
?OnProcess@PopupStoreWnd@@MAEXM@Z ENDP			; PopupStoreWnd::OnProcess
_TEXT	ENDS
PUBLIC	?OnItemOver@PopupStoreWnd@@QAEHXZ		; PopupStoreWnd::OnItemOver
EXTRN	?GetSingleton@ioApplication@@SAAAV1@XZ:PROC	; ioApplication::GetSingleton
; Function compile flags: /Ogsp
;	COMDAT ?OnItemOver@PopupStoreWnd@@QAEHXZ
_TEXT	SEGMENT
?OnItemOver@PopupStoreWnd@@QAEHXZ PROC			; PopupStoreWnd::OnItemOver, COMDAT
; _this$ = ecx

; 360  : 	ioLSMouse* pMouse = g_App.GetMouse();

  00000	e8 00 00 00 00	 call	 ?GetSingleton@ioApplication@@SAAAV1@XZ ; ioApplication::GetSingleton
  00005	05 90 00 00 00	 add	 eax, 144		; 00000090H

; 361  : 	if( pMouse )

  0000a	74 07		 je	 SHORT $LN6@OnItemOver

; 362  : 		pMouse->SetToolTipWndID( eID_ITEM_IMG );

  0000c	c7 40 74 65 00
	00 00		 mov	 DWORD PTR [eax+116], 101 ; 00000065H
$LN6@OnItemOver:

; 363  : 
; 364  : 	return 1;

  00013	33 c0		 xor	 eax, eax
  00015	40		 inc	 eax

; 365  : }

  00016	c3		 ret	 0
?OnItemOver@PopupStoreWnd@@QAEHXZ ENDP			; PopupStoreWnd::OnItemOver
_TEXT	ENDS
PUBLIC	?OnItemLeave@PopupStoreWnd@@QAEHXZ		; PopupStoreWnd::OnItemLeave
EXTRN	?SetToolTipCursor@ioLSMouse@@QAEXXZ:PROC	; ioLSMouse::SetToolTipCursor
; Function compile flags: /Ogsp
;	COMDAT ?OnItemLeave@PopupStoreWnd@@QAEHXZ
_TEXT	SEGMENT
?OnItemLeave@PopupStoreWnd@@QAEHXZ PROC			; PopupStoreWnd::OnItemLeave, COMDAT
; _this$ = ecx

; 369  : 	ioLSMouse* pMouse = g_App.GetMouse();

  00000	e8 00 00 00 00	 call	 ?GetSingleton@ioApplication@@SAAAV1@XZ ; ioApplication::GetSingleton
  00005	05 90 00 00 00	 add	 eax, 144		; 00000090H

; 370  : 	if( pMouse )

  0000a	74 0b		 je	 SHORT $LN1@OnItemLeav

; 371  : 	{
; 372  : 		pMouse->SetToolTipWndID( 0 );

  0000c	83 60 74 00	 and	 DWORD PTR [eax+116], 0

; 373  : 		pMouse->SetToolTipCursor();

  00010	8b c8		 mov	 ecx, eax
  00012	e8 00 00 00 00	 call	 ?SetToolTipCursor@ioLSMouse@@QAEXXZ ; ioLSMouse::SetToolTipCursor
$LN1@OnItemLeav:

; 374  : 	}
; 375  : 
; 376  : 	return 1;

  00017	33 c0		 xor	 eax, eax
  00019	40		 inc	 eax

; 377  : }

  0001a	c3		 ret	 0
?OnItemLeave@PopupStoreWnd@@QAEHXZ ENDP			; PopupStoreWnd::OnItemLeave
_TEXT	ENDS
PUBLIC	__real@3ff0000000000000
PUBLIC	__real@3f666666
PUBLIC	__real@4018000000000000
PUBLIC	__$ArrayPad$
PUBLIC	?OnUpdateGoldWindow@PopupStoreWnd@@IAEXXZ	; PopupStoreWnd::OnUpdateGoldWindow
EXTRN	__imp_?GetYPos@ioWnd@@QBEHXZ:PROC
;	COMDAT __real@3ff0000000000000
; File d:\lost saga for developer\youtube\tutorial\source\src\lsclient\iomyinfo.h
CONST	SEGMENT
__real@3ff0000000000000 DQ 03ff0000000000000r	; 1
CONST	ENDS
;	COMDAT __real@3f666666
CONST	SEGMENT
__real@3f666666 DD 03f666666r			; 0.9
CONST	ENDS
;	COMDAT __real@4018000000000000
CONST	SEGMENT
__real@4018000000000000 DQ 04018000000000000r	; 6
; Function compile flags: /Ogsp
; File d:\lost saga for developer\youtube\tutorial\source\src\lsclient\gui\popupstorewnd.cpp
CONST	ENDS
;	COMDAT ?OnUpdateGoldWindow@PopupStoreWnd@@IAEXXZ
_TEXT	SEGMENT
_iCenter$510388 = -24					; size = 4
_iArray$510382 = -20					; size = 16
__$ArrayPad$ = -4					; size = 4
?OnUpdateGoldWindow@PopupStoreWnd@@IAEXXZ PROC		; PopupStoreWnd::OnUpdateGoldWindow, COMDAT
; _this$ = ecx

; 380  : {

  00000	55		 push	 ebp
  00001	8b ec		 mov	 ebp, esp
  00003	83 ec 18	 sub	 esp, 24			; 00000018H
  00006	a1 00 00 00 00	 mov	 eax, DWORD PTR ___security_cookie
  0000b	33 c5		 xor	 eax, ebp
  0000d	89 45 fc	 mov	 DWORD PTR __$ArrayPad$[ebp], eax
  00010	53		 push	 ebx
  00011	56		 push	 esi
  00012	57		 push	 edi
  00013	8b f1		 mov	 esi, ecx

; 381  : 	// 가격, 할인 정보
; 382  : 	if( m_OnPopupItemInfo.iPrevCash > 0 )

  00015	33 ff		 xor	 edi, edi
  00017	39 be 38 03 00
	00		 cmp	 DWORD PTR [esi+824], edi
  0001d	7e 09		 jle	 SHORT $LN8@OnUpdateGo

; 383  : 		m_bGoldShowType = true;

  0001f	c6 86 c8 01 00
	00 01		 mov	 BYTE PTR [esi+456], 1

; 384  : 	else

  00026	eb 07		 jmp	 SHORT $LN7@OnUpdateGo
$LN8@OnUpdateGo:

; 385  : 		m_bGoldShowType = false;

  00028	c6 86 c8 01 00
	00 00		 mov	 BYTE PTR [esi+456], 0
$LN7@OnUpdateGo:

; 386  : 
; 387  : 	m_pWndGolds->ShowWnd();

  0002f	8b 8e 88 01 00
	00		 mov	 ecx, DWORD PTR [esi+392]
  00035	8b 1d 00 00 00
	00		 mov	 ebx, DWORD PTR __imp_?ShowWnd@ioWnd@@QAEXXZ
  0003b	ff d3		 call	 ebx

; 388  : 	m_pWndEtcs->ShowWnd();

  0003d	8b 8e 9c 01 00
	00		 mov	 ecx, DWORD PTR [esi+412]
  00043	ff d3		 call	 ebx

; 389  : 
; 390  : 	if( m_bGoldShowType )

  00045	80 be c8 01 00
	00 00		 cmp	 BYTE PTR [esi+456], 0

; 391  : 	{
; 392  : 		m_pWndGoldWnd1->ShowWnd();

  0004c	8b 8e 8c 01 00
	00		 mov	 ecx, DWORD PTR [esi+396]
  00052	0f 84 89 01 00
	00		 je	 $LN6@OnUpdateGo
  00058	ff d3		 call	 ebx

; 393  : 		m_pWndGoldWnd2->ShowWnd();

  0005a	8b 8e 90 01 00
	00		 mov	 ecx, DWORD PTR [esi+400]
  00060	ff d3		 call	 ebx

; 394  : 		m_pWndGoldWnd4->ShowWnd();

  00062	8b 8e 98 01 00
	00		 mov	 ecx, DWORD PTR [esi+408]
  00068	ff d3		 call	 ebx

; 395  : 
; 396  : 		m_pWndGoldWnd3->SetTitleText( m_szCashText1.c_str() );		

  0006a	57		 push	 edi
  0006b	bf 00 00 00 00	 mov	 edi, OFFSET ??_C@_00CNPNBAHC@?$AA@
  00070	8d 8e dc 02 00
	00		 lea	 ecx, DWORD PTR [esi+732]
  00076	57		 push	 edi
  00077	ff 15 00 00 00
	00		 call	 DWORD PTR __imp_?c_str@ioHashString@@QBEPBDXZ
  0007d	8b 8e 94 01 00
	00		 mov	 ecx, DWORD PTR [esi+404]
  00083	8b 1d 00 00 00
	00		 mov	 ebx, DWORD PTR __imp_?SetTitleText@ioWnd@@QAEXPBD0H@Z
  00089	50		 push	 eax
  0008a	ff d3		 call	 ebx

; 397  : 		m_pWndGoldWnd1->SetTitleText( m_szCashText2.c_str() );

  0008c	6a 00		 push	 0
  0008e	8d 8e ec 02 00
	00		 lea	 ecx, DWORD PTR [esi+748]
  00094	57		 push	 edi
  00095	ff 15 00 00 00
	00		 call	 DWORD PTR __imp_?c_str@ioHashString@@QBEPBDXZ
  0009b	8b 8e 8c 01 00
	00		 mov	 ecx, DWORD PTR [esi+396]
  000a1	50		 push	 eax
  000a2	ff d3		 call	 ebx

; 398  : 		m_pWndGoldWnd4->SetTitleText( m_szCashText3.c_str() );

  000a4	6a 00		 push	 0
  000a6	8d 8e fc 02 00
	00		 lea	 ecx, DWORD PTR [esi+764]
  000ac	57		 push	 edi
  000ad	ff 15 00 00 00
	00		 call	 DWORD PTR __imp_?c_str@ioHashString@@QBEPBDXZ
  000b3	8b 8e 98 01 00
	00		 mov	 ecx, DWORD PTR [esi+408]
  000b9	50		 push	 eax
  000ba	ff d3		 call	 ebx

; 399  : 
; 400  : 		int iArray[4] = {0,};
; 401  : 		iArray[0] = g_FontMgr.GetTextWidth( m_szCashText2.c_str(), FONT_SIZE_12 ) + 6;

  000bc	f3 0f 10 05 00
	00 00 00	 movss	 xmm0, DWORD PTR __real@3f19999a
  000c4	33 c0		 xor	 eax, eax
  000c6	8d 7d f0	 lea	 edi, DWORD PTR _iArray$510382[ebp+4]
  000c9	ab		 stosd
  000ca	ab		 stosd
  000cb	51		 push	 ecx
  000cc	8d 8e ec 02 00
	00		 lea	 ecx, DWORD PTR [esi+748]
  000d2	ab		 stosd
  000d3	f3 0f 11 04 24	 movss	 DWORD PTR [esp], xmm0
  000d8	ff 15 00 00 00
	00		 call	 DWORD PTR __imp_?c_str@ioHashString@@QBEPBDXZ
  000de	8b 3d 00 00 00
	00		 mov	 edi, DWORD PTR __imp_?GetSingleton@ioFontManager@@SAAAV1@XZ
  000e4	50		 push	 eax
  000e5	ff d7		 call	 edi
  000e7	8b c8		 mov	 ecx, eax
  000e9	ff 15 00 00 00
	00		 call	 DWORD PTR __imp_?GetTextWidth@ioFontManager@@QAEMPBDM@Z
  000ef	dc 05 00 00 00
	00		 fadd	 QWORD PTR __real@4018000000000000
  000f5	e8 00 00 00 00	 call	 __ftol2_sse

; 402  : 		iArray[1] = 17+6;
; 403  : 		iArray[2] = g_FontMgr.GetTextWidth( m_szCashText1.c_str(), FONT_SIZE_18 ) + 1;

  000fa	f3 0f 10 05 00
	00 00 00	 movss	 xmm0, DWORD PTR __real@3f666666
  00102	51		 push	 ecx
  00103	8d 8e dc 02 00
	00		 lea	 ecx, DWORD PTR [esi+732]
  00109	89 45 ec	 mov	 DWORD PTR _iArray$510382[ebp], eax
  0010c	c7 45 f0 17 00
	00 00		 mov	 DWORD PTR _iArray$510382[ebp+4], 23 ; 00000017H
  00113	f3 0f 11 04 24	 movss	 DWORD PTR [esp], xmm0
  00118	ff 15 00 00 00
	00		 call	 DWORD PTR __imp_?c_str@ioHashString@@QBEPBDXZ
  0011e	50		 push	 eax
  0011f	ff d7		 call	 edi
  00121	8b c8		 mov	 ecx, eax
  00123	ff 15 00 00 00
	00		 call	 DWORD PTR __imp_?GetTextWidth@ioFontManager@@QAEMPBDM@Z
  00129	dc 05 00 00 00
	00		 fadd	 QWORD PTR __real@3ff0000000000000
  0012f	e8 00 00 00 00	 call	 __ftol2_sse

; 404  : 		iArray[3] = g_FontMgr.GetTextWidth( m_szCashText3.c_str(), FONT_SIZE_18 );

  00134	f3 0f 10 05 00
	00 00 00	 movss	 xmm0, DWORD PTR __real@3f666666
  0013c	51		 push	 ecx
  0013d	8d 8e fc 02 00
	00		 lea	 ecx, DWORD PTR [esi+764]
  00143	89 45 f4	 mov	 DWORD PTR _iArray$510382[ebp+8], eax
  00146	f3 0f 11 04 24	 movss	 DWORD PTR [esp], xmm0
  0014b	ff 15 00 00 00
	00		 call	 DWORD PTR __imp_?c_str@ioHashString@@QBEPBDXZ
  00151	50		 push	 eax
  00152	ff d7		 call	 edi
  00154	8b c8		 mov	 ecx, eax
  00156	ff 15 00 00 00
	00		 call	 DWORD PTR __imp_?GetTextWidth@ioFontManager@@QAEMPBDM@Z
  0015c	e8 00 00 00 00	 call	 __ftol2_sse
  00161	89 45 f8	 mov	 DWORD PTR _iArray$510382[ebp+12], eax

; 405  : 
; 406  : 		int iTotal = 0;

  00164	33 c0		 xor	 eax, eax

; 407  : 		for( int i = 0; i < 4; ++i )

  00166	33 c9		 xor	 ecx, ecx
$LL5@OnUpdateGo:

; 408  : 			iTotal += iArray[i];		

  00168	03 44 8d ec	 add	 eax, DWORD PTR _iArray$510382[ebp+ecx*4]
  0016c	41		 inc	 ecx
  0016d	83 f9 04	 cmp	 ecx, 4
  00170	7c f6		 jl	 SHORT $LL5@OnUpdateGo

; 409  : 		int iCenter = iTotal >> 1;
; 410  : 		iCenter = -iCenter;
; 411  : 		
; 412  : 		int iPosY = m_pWndGoldWnd1->GetPosY();

  00172	8b 8e 8c 01 00
	00		 mov	 ecx, DWORD PTR [esi+396]
  00178	d1 f8		 sar	 eax, 1
  0017a	f7 d8		 neg	 eax
  0017c	89 45 e8	 mov	 DWORD PTR _iCenter$510388[ebp], eax
  0017f	ff 15 00 00 00
	00		 call	 DWORD PTR __imp_?GetYPos@ioWnd@@QBEHXZ

; 413  : 		m_pWndGoldWnd1->SetWndPos( iCenter, iPosY );		

  00185	8b 8e 8c 01 00
	00		 mov	 ecx, DWORD PTR [esi+396]
  0018b	8b 3d 00 00 00
	00		 mov	 edi, DWORD PTR __imp_?SetWndPos@ioWnd@@QAEXHH@Z
  00191	50		 push	 eax
  00192	ff 75 e8	 push	 DWORD PTR _iCenter$510388[ebp]
  00195	ff d7		 call	 edi

; 414  : 		iCenter += iArray[0];

  00197	8b 45 ec	 mov	 eax, DWORD PTR _iArray$510382[ebp]

; 415  : 		iPosY = m_pWndGoldWnd2->GetPosY();

  0019a	8b 8e 90 01 00
	00		 mov	 ecx, DWORD PTR [esi+400]
  001a0	01 45 e8	 add	 DWORD PTR _iCenter$510388[ebp], eax
  001a3	ff 15 00 00 00
	00		 call	 DWORD PTR __imp_?GetYPos@ioWnd@@QBEHXZ

; 416  : 		m_pWndGoldWnd2->SetWndPos( iCenter, iPosY );

  001a9	8b 8e 90 01 00
	00		 mov	 ecx, DWORD PTR [esi+400]
  001af	50		 push	 eax
  001b0	ff 75 e8	 push	 DWORD PTR _iCenter$510388[ebp]
  001b3	ff d7		 call	 edi

; 417  : 		iCenter += iArray[1];

  001b5	83 45 e8 17	 add	 DWORD PTR _iCenter$510388[ebp], 23 ; 00000017H

; 418  : 		m_pWndGoldWnd3->SetWndPos( iCenter, 0 );

  001b9	8b 8e 94 01 00
	00		 mov	 ecx, DWORD PTR [esi+404]
  001bf	6a 00		 push	 0
  001c1	ff 75 e8	 push	 DWORD PTR _iCenter$510388[ebp]
  001c4	ff d7		 call	 edi

; 419  : 		iCenter += iArray[2];

  001c6	8b 45 e8	 mov	 eax, DWORD PTR _iCenter$510388[ebp]
  001c9	03 45 f4	 add	 eax, DWORD PTR _iArray$510382[ebp+8]

; 420  : 		m_pWndGoldWnd4->SetWndPos( iCenter, 0 );

  001cc	8b 8e 98 01 00
	00		 mov	 ecx, DWORD PTR [esi+408]
  001d2	6a 00		 push	 0
  001d4	50		 push	 eax
  001d5	ff d7		 call	 edi

; 421  : 	}
; 422  : 	else

  001d7	bf 00 00 00 00	 mov	 edi, OFFSET ??_C@_00CNPNBAHC@?$AA@
  001dc	e9 8e 00 00 00	 jmp	 $LN2@OnUpdateGo
$LN6@OnUpdateGo:

; 423  : 	{
; 424  : 		m_pWndGoldWnd1->HideWnd();

  001e1	8b 1d 00 00 00
	00		 mov	 ebx, DWORD PTR __imp_?HideWnd@ioWnd@@QAEXXZ
  001e7	ff d3		 call	 ebx

; 425  : 		m_pWndGoldWnd2->HideWnd();

  001e9	8b 8e 90 01 00
	00		 mov	 ecx, DWORD PTR [esi+400]
  001ef	ff d3		 call	 ebx

; 426  : 		m_pWndGoldWnd4->HideWnd();

  001f1	8b 8e 98 01 00
	00		 mov	 ecx, DWORD PTR [esi+408]
  001f7	ff d3		 call	 ebx

; 427  : 
; 428  : 		m_pWndGolds->SetWndPos( 0, 76 );

  001f9	8b 8e 88 01 00
	00		 mov	 ecx, DWORD PTR [esi+392]
  001ff	6a 4c		 push	 76			; 0000004cH
  00201	57		 push	 edi
  00202	ff 15 00 00 00
	00		 call	 DWORD PTR __imp_?SetWndPos@ioWnd@@QAEXHH@Z

; 429  : 		m_pWndGoldWnd3->SetTitleText( m_szCashText1.c_str() );

  00208	57		 push	 edi
  00209	bf 00 00 00 00	 mov	 edi, OFFSET ??_C@_00CNPNBAHC@?$AA@
  0020e	8d 8e dc 02 00
	00		 lea	 ecx, DWORD PTR [esi+732]
  00214	57		 push	 edi
  00215	ff 15 00 00 00
	00		 call	 DWORD PTR __imp_?c_str@ioHashString@@QBEPBDXZ
  0021b	8b 8e 94 01 00
	00		 mov	 ecx, DWORD PTR [esi+404]
  00221	8b 1d 00 00 00
	00		 mov	 ebx, DWORD PTR __imp_?SetTitleText@ioWnd@@QAEXPBD0H@Z
  00227	50		 push	 eax
  00228	ff d3		 call	 ebx

; 430  : 		int nWidth = g_FontMgr.GetTextWidth( m_szCashText1.c_str(), FONT_SIZE_18 );

  0022a	f3 0f 10 05 00
	00 00 00	 movss	 xmm0, DWORD PTR __real@3f666666
  00232	51		 push	 ecx
  00233	8d 8e dc 02 00
	00		 lea	 ecx, DWORD PTR [esi+732]
  00239	f3 0f 11 04 24	 movss	 DWORD PTR [esp], xmm0
  0023e	ff 15 00 00 00
	00		 call	 DWORD PTR __imp_?c_str@ioHashString@@QBEPBDXZ
  00244	50		 push	 eax
  00245	ff 15 00 00 00
	00		 call	 DWORD PTR __imp_?GetSingleton@ioFontManager@@SAAAV1@XZ
  0024b	8b c8		 mov	 ecx, eax
  0024d	ff 15 00 00 00
	00		 call	 DWORD PTR __imp_?GetTextWidth@ioFontManager@@QAEMPBDM@Z
  00253	e8 00 00 00 00	 call	 __ftol2_sse

; 431  : 		if( nWidth != 0 )

  00258	85 c0		 test	 eax, eax
  0025a	74 02		 je	 SHORT $LN1@OnUpdateGo

; 432  : 			nWidth = nWidth >> 1;

  0025c	d1 f8		 sar	 eax, 1
$LN1@OnUpdateGo:

; 433  : 		m_pWndGoldWnd3->SetWndPos( -nWidth, 0 );

  0025e	8b 8e 94 01 00
	00		 mov	 ecx, DWORD PTR [esi+404]
  00264	6a 00		 push	 0
  00266	f7 d8		 neg	 eax
  00268	50		 push	 eax
  00269	ff 15 00 00 00
	00		 call	 DWORD PTR __imp_?SetWndPos@ioWnd@@QAEXHH@Z
$LN2@OnUpdateGo:

; 434  : 	}
; 435  : 
; 436  : 	m_pWndName->SetTitleText( m_szTitle.c_str() );

  0026f	6a 00		 push	 0
  00271	57		 push	 edi
  00272	8d 8e ac 02 00
	00		 lea	 ecx, DWORD PTR [esi+684]
  00278	ff 15 00 00 00
	00		 call	 DWORD PTR __imp_?c_str@ioHashString@@QBEPBDXZ
  0027e	8b 8e 74 01 00
	00		 mov	 ecx, DWORD PTR [esi+372]
  00284	50		 push	 eax
  00285	ff d3		 call	 ebx

; 437  : 	m_pWndCount->SetTitleText( m_szTitle2.c_str() );

  00287	6a 00		 push	 0
  00289	57		 push	 edi
  0028a	8d 8e bc 02 00
	00		 lea	 ecx, DWORD PTR [esi+700]
  00290	ff 15 00 00 00
	00		 call	 DWORD PTR __imp_?c_str@ioHashString@@QBEPBDXZ
  00296	8b 8e 78 01 00
	00		 mov	 ecx, DWORD PTR [esi+376]
  0029c	50		 push	 eax
  0029d	ff d3		 call	 ebx

; 438  : 
; 439  : 	// 내골드 업데이트
; 440  : 	int iCash = g_MyInfo.GetCash();

  0029f	e8 00 00 00 00	 call	 ?GetSingleton@ioMyInfo@@SAAAV1@XZ ; ioMyInfo::GetSingleton

; 441  : 	OnUpdateMyCash( iCash );

  002a4	ff 70 2c	 push	 DWORD PTR [eax+44]
  002a7	8b ce		 mov	 ecx, esi
  002a9	e8 00 00 00 00	 call	 ?OnUpdateMyCash@PopupStoreWnd@@IAEXH@Z ; PopupStoreWnd::OnUpdateMyCash

; 442  : }

  002ae	8b 4d fc	 mov	 ecx, DWORD PTR __$ArrayPad$[ebp]
  002b1	5f		 pop	 edi
  002b2	5e		 pop	 esi
  002b3	33 cd		 xor	 ecx, ebp
  002b5	5b		 pop	 ebx
  002b6	e8 00 00 00 00	 call	 @__security_check_cookie@4
  002bb	c9		 leave
  002bc	c3		 ret	 0
?OnUpdateGoldWindow@PopupStoreWnd@@IAEXXZ ENDP		; PopupStoreWnd::OnUpdateGoldWindow
_TEXT	ENDS
PUBLIC	?OnBuySuccess@PopupStoreWnd@@QAEXXZ		; PopupStoreWnd::OnBuySuccess
; Function compile flags: /Ogsp
;	COMDAT ?OnBuySuccess@PopupStoreWnd@@QAEXXZ
_TEXT	SEGMENT
?OnBuySuccess@PopupStoreWnd@@QAEXXZ PROC		; PopupStoreWnd::OnBuySuccess, COMDAT
; _this$ = ecx

; 558  : 
; 559  : #if defined( USE_GA )
; 560  : 	int nSize = m_vecPopupItemInfo.size();
; 561  : 	for( int i = 0; i < nSize; ++i )
; 562  : 	{
; 563  : 		if( m_vecPopupItemInfo[i].iIndex == m_iPopupIndex )
; 564  : 		{
; 565  : 			int iCashPrice	= m_vecPopupItemInfo[i].iCash;
; 566  : 			int iItemCode	= m_vecPopupItemInfo[i].iPresentValue1;
; 567  : 
; 568  : 			if( iCashPrice != 0 && iItemCode != 0 )
; 569  : 			{
; 570  : 				// GOLD_USE_POPUP
; 571  : 				g_HttpMng.GA_ItemHitTracking( g_MyInfo.GetUserIndex() 
; 572  : 					, "PopUp"
; 573  : 					, iCashPrice
; 574  : 					, 1
; 575  : 					, iItemCode
; 576  : 					, "Gold"
; 577  : 					, "%2FGOLD%2FUSE%2FPOPUP"
; 578  : 					, true );
; 579  : 			}
; 580  : 
; 581  : 			break;
; 582  : 		}
; 583  : 	}
; 584  : #endif
; 585  : 
; 586  : 	
; 587  : 	OnPage2();

  00000	e9 00 00 00 00	 jmp	 ?OnPage2@PopupStoreWnd@@QAEXXZ ; PopupStoreWnd::OnPage2
?OnBuySuccess@PopupStoreWnd@@QAEXXZ ENDP		; PopupStoreWnd::OnBuySuccess
_TEXT	ENDS
PUBLIC	__$ArrayPad$
PUBLIC	?OnButFaild@PopupStoreWnd@@QAEXK@Z		; PopupStoreWnd::OnButFaild
; Function compile flags: /Ogsp
;	COMDAT ?OnButFaild@PopupStoreWnd@@QAEXK@Z
_TEXT	SEGMENT
_szTemp$ = -264						; size = 260
__$ArrayPad$ = -4					; size = 4
_dwReturnType$ = 8					; size = 4
?OnButFaild@PopupStoreWnd@@QAEXK@Z PROC			; PopupStoreWnd::OnButFaild, COMDAT
; _this$ = ecx

; 684  : {

  00000	55		 push	 ebp
  00001	8b ec		 mov	 ebp, esp
  00003	81 ec 08 01 00
	00		 sub	 esp, 264		; 00000108H
  00009	a1 00 00 00 00	 mov	 eax, DWORD PTR ___security_cookie
  0000e	33 c5		 xor	 eax, ebp
  00010	89 45 fc	 mov	 DWORD PTR __$ArrayPad$[ebp], eax
  00013	56		 push	 esi

; 685  : 	m_iMsgType = eMsgError;
; 686  : 
; 687  : 	char szTemp[MAX_PATH]={0,};

  00014	68 03 01 00 00	 push	 259			; 00000103H
  00019	8d 85 f9 fe ff
	ff		 lea	 eax, DWORD PTR _szTemp$[ebp+1]
  0001f	8b f1		 mov	 esi, ecx
  00021	6a 00		 push	 0
  00023	50		 push	 eax
  00024	c7 86 14 03 00
	00 02 00 00 00	 mov	 DWORD PTR [esi+788], 2
  0002e	c6 85 f8 fe ff
	ff 00		 mov	 BYTE PTR _szTemp$[ebp], 0
  00035	e8 00 00 00 00	 call	 _memset
  0003a	83 c4 0c	 add	 esp, 12			; 0000000cH

; 688  : 	//sprintf( szTemp,"%s", m_szError.c_str(), dwReturnType );
; 689  : 	sprintf_s( szTemp, m_szError.c_str(), dwReturnType );

  0003d	ff 75 08	 push	 DWORD PTR _dwReturnType$[ebp]
  00040	8d 8e 2c 02 00
	00		 lea	 ecx, DWORD PTR [esi+556]
  00046	ff 15 00 00 00
	00		 call	 DWORD PTR __imp_?c_str@ioHashString@@QBEPBDXZ
  0004c	50		 push	 eax
  0004d	8d 85 f8 fe ff
	ff		 lea	 eax, DWORD PTR _szTemp$[ebp]
  00053	50		 push	 eax
  00054	e8 00 00 00 00	 call	 ??$sprintf_s@$0BAE@@@YAHAAY0BAE@DPBDZZ ; sprintf_s<260>
  00059	83 c4 0c	 add	 esp, 12			; 0000000cH

; 690  : 	g_GUIMgr.SetMsgBox( MB_OK, this, szTemp );

  0005c	8d 85 f8 fe ff
	ff		 lea	 eax, DWORD PTR _szTemp$[ebp]
  00062	50		 push	 eax
  00063	56		 push	 esi
  00064	6a 00		 push	 0
  00066	e8 00 00 00 00	 call	 ?GetSingleton@ioSP2GUIManager@@SAAAV1@XZ ; ioSP2GUIManager::GetSingleton
  0006b	50		 push	 eax
  0006c	e8 00 00 00 00	 call	 ?SetMsgBox@ioSP2GUIManager@@QAAXHPAVioWnd@@PBDZZ ; ioSP2GUIManager::SetMsgBox

; 691  : }

  00071	8b 4d fc	 mov	 ecx, DWORD PTR __$ArrayPad$[ebp]
  00074	83 c4 10	 add	 esp, 16			; 00000010H
  00077	33 cd		 xor	 ecx, ebp
  00079	5e		 pop	 esi
  0007a	e8 00 00 00 00	 call	 @__security_check_cookie@4
  0007f	c9		 leave
  00080	c2 04 00	 ret	 4
?OnButFaild@PopupStoreWnd@@QAEXK@Z ENDP			; PopupStoreWnd::OnButFaild
; Function compile flags: /Ogsp
_TEXT	ENDS
;	COMDAT ??_GPopupStoreSubWnd@@UAEPAXI@Z
_TEXT	SEGMENT
___flags$ = 8						; size = 4
??_GPopupStoreSubWnd@@UAEPAXI@Z PROC			; PopupStoreSubWnd::`scalar deleting destructor', COMDAT
; _this$ = ecx
  00000	55		 push	 ebp
  00001	8b ec		 mov	 ebp, esp
  00003	56		 push	 esi
  00004	8b f1		 mov	 esi, ecx
  00006	e8 00 00 00 00	 call	 ??1PopupStoreSubWnd@@UAE@XZ ; PopupStoreSubWnd::~PopupStoreSubWnd
  0000b	f6 45 08 01	 test	 BYTE PTR ___flags$[ebp], 1
  0000f	74 07		 je	 SHORT $LN1@scalar@3
  00011	56		 push	 esi
  00012	e8 00 00 00 00	 call	 ??3@YAXPAX@Z		; operator delete
  00017	59		 pop	 ecx
$LN1@scalar@3:
  00018	8b c6		 mov	 eax, esi
  0001a	5e		 pop	 esi
  0001b	5d		 pop	 ebp
  0001c	c2 04 00	 ret	 4
??_GPopupStoreSubWnd@@UAEPAXI@Z ENDP			; PopupStoreSubWnd::`scalar deleting destructor'
_TEXT	ENDS
PUBLIC	??0?$_Vector_val@UsPopupItemInfo@PopupStoreWnd@@V?$allocator@UsPopupItemInfo@PopupStoreWnd@@@std@@@std@@QAE@V?$allocator@UsPopupItemInfo@PopupStoreWnd@@@1@@Z ; std::_Vector_val<PopupStoreWnd::sPopupItemInfo,std::allocator<PopupStoreWnd::sPopupItemInfo> >::_Vector_val<PopupStoreWnd::sPopupItemInfo,std::allocator<PopupStoreWnd::sPopupItemInfo> >
; Function compile flags: /Ogsp
; File c:\program files (x86)\microsoft visual studio 10.0\vc\include\vector
;	COMDAT ??0?$_Vector_val@UsPopupItemInfo@PopupStoreWnd@@V?$allocator@UsPopupItemInfo@PopupStoreWnd@@@std@@@std@@QAE@V?$allocator@UsPopupItemInfo@PopupStoreWnd@@@1@@Z
_TEXT	SEGMENT
__Al$ = 8						; size = 1
??0?$_Vector_val@UsPopupItemInfo@PopupStoreWnd@@V?$allocator@UsPopupItemInfo@PopupStoreWnd@@@std@@@std@@QAE@V?$allocator@UsPopupItemInfo@PopupStoreWnd@@@1@@Z PROC ; std::_Vector_val<PopupStoreWnd::sPopupItemInfo,std::allocator<PopupStoreWnd::sPopupItemInfo> >::_Vector_val<PopupStoreWnd::sPopupItemInfo,std::allocator<PopupStoreWnd::sPopupItemInfo> >, COMDAT
; _this$ = ecx

; 426  : 		{	// construct allocator from _Al

  00000	8b c1		 mov	 eax, ecx

; 427  : 		_Myfirst = 0;

  00002	33 c9		 xor	 ecx, ecx
  00004	89 08		 mov	 DWORD PTR [eax], ecx

; 428  : 		_Mylast = 0;

  00006	89 48 04	 mov	 DWORD PTR [eax+4], ecx

; 429  : 		_Myend = 0;

  00009	89 48 08	 mov	 DWORD PTR [eax+8], ecx

; 430  : 		}

  0000c	c2 04 00	 ret	 4
??0?$_Vector_val@UsPopupItemInfo@PopupStoreWnd@@V?$allocator@UsPopupItemInfo@PopupStoreWnd@@@std@@@std@@QAE@V?$allocator@UsPopupItemInfo@PopupStoreWnd@@@1@@Z ENDP ; std::_Vector_val<PopupStoreWnd::sPopupItemInfo,std::allocator<PopupStoreWnd::sPopupItemInfo> >::_Vector_val<PopupStoreWnd::sPopupItemInfo,std::allocator<PopupStoreWnd::sPopupItemInfo> >
_TEXT	ENDS
PUBLIC	?max_size@?$vector@UsPopupItemInfo@PopupStoreWnd@@V?$allocator@UsPopupItemInfo@PopupStoreWnd@@@std@@@std@@QBEIXZ ; std::vector<PopupStoreWnd::sPopupItemInfo,std::allocator<PopupStoreWnd::sPopupItemInfo> >::max_size
; Function compile flags: /Ogsp
;	COMDAT ?max_size@?$vector@UsPopupItemInfo@PopupStoreWnd@@V?$allocator@UsPopupItemInfo@PopupStoreWnd@@@std@@@std@@QBEIXZ
_TEXT	SEGMENT
?max_size@?$vector@UsPopupItemInfo@PopupStoreWnd@@V?$allocator@UsPopupItemInfo@PopupStoreWnd@@@std@@@std@@QBEIXZ PROC ; std::vector<PopupStoreWnd::sPopupItemInfo,std::allocator<PopupStoreWnd::sPopupItemInfo> >::max_size, COMDAT
; _this$ = ecx

; 884  : 		return (this->_Alval.max_size());

  00000	b8 33 33 33 03	 mov	 eax, 53687091		; 03333333H

; 885  : 		}

  00005	c3		 ret	 0
?max_size@?$vector@UsPopupItemInfo@PopupStoreWnd@@V?$allocator@UsPopupItemInfo@PopupStoreWnd@@@std@@@std@@QBEIXZ ENDP ; std::vector<PopupStoreWnd::sPopupItemInfo,std::allocator<PopupStoreWnd::sPopupItemInfo> >::max_size
_TEXT	ENDS
PUBLIC	?_Grow_to@?$vector@UsPopupItemInfo@PopupStoreWnd@@V?$allocator@UsPopupItemInfo@PopupStoreWnd@@@std@@@std@@IBEII@Z ; std::vector<PopupStoreWnd::sPopupItemInfo,std::allocator<PopupStoreWnd::sPopupItemInfo> >::_Grow_to
; Function compile flags: /Ogsp
;	COMDAT ?_Grow_to@?$vector@UsPopupItemInfo@PopupStoreWnd@@V?$allocator@UsPopupItemInfo@PopupStoreWnd@@@std@@@std@@IBEII@Z
_TEXT	SEGMENT
__Count$ = 8						; size = 4
?_Grow_to@?$vector@UsPopupItemInfo@PopupStoreWnd@@V?$allocator@UsPopupItemInfo@PopupStoreWnd@@@std@@@std@@IBEII@Z PROC ; std::vector<PopupStoreWnd::sPopupItemInfo,std::allocator<PopupStoreWnd::sPopupItemInfo> >::_Grow_to, COMDAT
; _this$ = ecx

; 1274 : 		{	// grow by 50% or at least to _Count

  00000	55		 push	 ebp
  00001	8b ec		 mov	 ebp, esp

; 1275 : 		size_type _Capacity = capacity();

  00003	8b 41 08	 mov	 eax, DWORD PTR [ecx+8]
  00006	2b 01		 sub	 eax, DWORD PTR [ecx]
  00008	6a 50		 push	 80			; 00000050H
  0000a	99		 cdq
  0000b	59		 pop	 ecx
  0000c	f7 f9		 idiv	 ecx

; 1276 : 
; 1277 : 		_Capacity = max_size() - _Capacity / 2 < _Capacity
; 1278 : 			? 0 : _Capacity + _Capacity / 2;	// try to grow by 50%

  0000e	ba 33 33 33 03	 mov	 edx, 53687091		; 03333333H
  00013	8b c8		 mov	 ecx, eax
  00015	d1 e9		 shr	 ecx, 1
  00017	2b d1		 sub	 edx, ecx
  00019	3b d0		 cmp	 edx, eax
  0001b	73 04		 jae	 SHORT $LN4@Grow_to
  0001d	33 c0		 xor	 eax, eax
  0001f	eb 02		 jmp	 SHORT $LN5@Grow_to
$LN4@Grow_to:
  00021	03 c1		 add	 eax, ecx
$LN5@Grow_to:

; 1279 : 		if (_Capacity < _Count)

  00023	3b 45 08	 cmp	 eax, DWORD PTR __Count$[ebp]

; 1280 : 			_Capacity = _Count;

  00026	0f 42 45 08	 cmovb	 eax, DWORD PTR __Count$[ebp]

; 1281 : 		return (_Capacity);
; 1282 : 		}

  0002a	5d		 pop	 ebp
  0002b	c2 04 00	 ret	 4
?_Grow_to@?$vector@UsPopupItemInfo@PopupStoreWnd@@V?$allocator@UsPopupItemInfo@PopupStoreWnd@@@std@@@std@@IBEII@Z ENDP ; std::vector<PopupStoreWnd::sPopupItemInfo,std::allocator<PopupStoreWnd::sPopupItemInfo> >::_Grow_to
_TEXT	ENDS
PUBLIC	?allocate@?$allocator@UsPopupItemInfo@PopupStoreWnd@@@std@@QAEPAUsPopupItemInfo@PopupStoreWnd@@I@Z ; std::allocator<PopupStoreWnd::sPopupItemInfo>::allocate
; Function compile flags: /Ogsp
; File c:\program files (x86)\microsoft visual studio 10.0\vc\include\xmemory
;	COMDAT ?allocate@?$allocator@UsPopupItemInfo@PopupStoreWnd@@@std@@QAEPAUsPopupItemInfo@PopupStoreWnd@@I@Z
_TEXT	SEGMENT
__Count$ = 8						; size = 4
?allocate@?$allocator@UsPopupItemInfo@PopupStoreWnd@@@std@@QAEPAUsPopupItemInfo@PopupStoreWnd@@I@Z PROC ; std::allocator<PopupStoreWnd::sPopupItemInfo>::allocate, COMDAT
; _this$ = ecx

; 186  : 		{	// allocate array of _Count elements

  00000	55		 push	 ebp
  00001	8b ec		 mov	 ebp, esp

; 187  : 		return (_Allocate(_Count, (pointer)0));

  00003	6a 00		 push	 0
  00005	ff 75 08	 push	 DWORD PTR __Count$[ebp]
  00008	e8 00 00 00 00	 call	 ??$_Allocate@UsPopupItemInfo@PopupStoreWnd@@@std@@YAPAUsPopupItemInfo@PopupStoreWnd@@IPAU12@@Z ; std::_Allocate<PopupStoreWnd::sPopupItemInfo>
  0000d	59		 pop	 ecx
  0000e	59		 pop	 ecx

; 188  : 		}

  0000f	5d		 pop	 ebp
  00010	c2 04 00	 ret	 4
?allocate@?$allocator@UsPopupItemInfo@PopupStoreWnd@@@std@@QAEPAUsPopupItemInfo@PopupStoreWnd@@I@Z ENDP ; std::allocator<PopupStoreWnd::sPopupItemInfo>::allocate
_TEXT	ENDS
PUBLIC	__$ArrayPad$
PUBLIC	??$SetTitle_e@$06@ioINILoader@@QAEXAAY06$$CBD@Z	; ioINILoader::SetTitle_e<7>
EXTRN	__imp_?SetTitle@ioINILoader@@QAEXPBD@Z:PROC
; Function compile flags: /Ogsp
; File d:\lost saga for developer\youtube\tutorial\source\src\io3dengine\ioiniloader.h
;	COMDAT ??$SetTitle_e@$06@ioINILoader@@QAEXAAY06$$CBD@Z
_TEXT	SEGMENT
__t$ = -16						; size = 7
__$ArrayPad$ = -4					; size = 4
_t$ = 8							; size = 4
??$SetTitle_e@$06@ioINILoader@@QAEXAAY06$$CBD@Z PROC	; ioINILoader::SetTitle_e<7>, COMDAT
; _this$ = ecx

; 188  : 	{

  00000	55		 push	 ebp
  00001	8b ec		 mov	 ebp, esp
  00003	83 ec 10	 sub	 esp, 16			; 00000010H
  00006	a1 00 00 00 00	 mov	 eax, DWORD PTR ___security_cookie
  0000b	33 c5		 xor	 eax, ebp
  0000d	89 45 fc	 mov	 DWORD PTR __$ArrayPad$[ebp], eax
  00010	8b 45 08	 mov	 eax, DWORD PTR _t$[ebp]

; 189  : 		_ENCSTR(t, _t);

  00013	8a 10		 mov	 dl, BYTE PTR [eax]
  00015	56		 push	 esi
  00016	8b f1		 mov	 esi, ecx
  00018	84 d2		 test	 dl, dl
  0001a	0f 84 c0 00 00
	00		 je	 $LN96@SetTitle_e
  00020	80 f2 ed	 xor	 dl, -19			; ffffffedH
  00023	88 55 f0	 mov	 BYTE PTR __t$[ebp], dl
  00026	8a 50 01	 mov	 dl, BYTE PTR [eax+1]
  00029	84 d2		 test	 dl, dl
  0002b	0f 84 a9 00 00
	00		 je	 $LN95@SetTitle_e
  00031	80 f2 ec	 xor	 dl, -20			; ffffffecH
  00034	88 55 f1	 mov	 BYTE PTR __t$[ebp+1], dl
  00037	8a 50 02	 mov	 dl, BYTE PTR [eax+2]
  0003a	84 d2		 test	 dl, dl
  0003c	0f 84 92 00 00
	00		 je	 $LN94@SetTitle_e
  00042	80 f2 eb	 xor	 dl, -21			; ffffffebH
  00045	88 55 f2	 mov	 BYTE PTR __t$[ebp+2], dl
  00048	8a 50 03	 mov	 dl, BYTE PTR [eax+3]
  0004b	84 d2		 test	 dl, dl
  0004d	74 7f		 je	 SHORT $LN93@SetTitle_e
  0004f	80 f2 ea	 xor	 dl, -22			; ffffffeaH
  00052	88 55 f3	 mov	 BYTE PTR __t$[ebp+3], dl
  00055	8a 50 04	 mov	 dl, BYTE PTR [eax+4]
  00058	84 d2		 test	 dl, dl
  0005a	74 6c		 je	 SHORT $LN92@SetTitle_e
  0005c	80 f2 ed	 xor	 dl, -19			; ffffffedH
  0005f	88 55 f4	 mov	 BYTE PTR __t$[ebp+4], dl
  00062	8a 50 05	 mov	 dl, BYTE PTR [eax+5]
  00065	84 d2		 test	 dl, dl
  00067	74 59		 je	 SHORT $LN91@SetTitle_e
  00069	80 f2 ec	 xor	 dl, -20			; ffffffecH
  0006c	80 78 06 00	 cmp	 BYTE PTR [eax+6], 0
  00070	88 55 f5	 mov	 BYTE PTR __t$[ebp+5], dl
  00073	74 6f		 je	 SHORT $LN1@SetTitle_e
  00075	8a 50 07	 mov	 dl, BYTE PTR [eax+7]
  00078	84 d2		 test	 dl, dl
  0007a	74 40		 je	 SHORT $LN89@SetTitle_e
  0007c	80 f2 ea	 xor	 dl, -22			; ffffffeaH
  0007f	88 55 f7	 mov	 BYTE PTR __t$[ebp+7], dl
  00082	8a 50 08	 mov	 dl, BYTE PTR [eax+8]
  00085	84 d2		 test	 dl, dl
  00087	74 2d		 je	 SHORT $LN88@SetTitle_e
  00089	80 f2 ed	 xor	 dl, -19			; ffffffedH
  0008c	88 55 f8	 mov	 BYTE PTR __t$[ebp+8], dl
  0008f	8a 50 09	 mov	 dl, BYTE PTR [eax+9]
  00092	84 d2		 test	 dl, dl
  00094	74 1a		 je	 SHORT $LN87@SetTitle_e
  00096	8a 40 0a	 mov	 al, BYTE PTR [eax+10]
  00099	80 f2 ec	 xor	 dl, -20			; ffffffecH
  0009c	88 55 f9	 mov	 BYTE PTR __t$[ebp+9], dl
  0009f	84 c0		 test	 al, al
  000a1	74 07		 je	 SHORT $LN86@SetTitle_e
  000a3	34 eb		 xor	 al, -21			; ffffffebH
  000a5	88 45 fa	 mov	 BYTE PTR __t$[ebp+10], al
  000a8	eb 3a		 jmp	 SHORT $LN1@SetTitle_e
$LN86@SetTitle_e:
  000aa	c6 45 fa eb	 mov	 BYTE PTR __t$[ebp+10], -21 ; ffffffebH
  000ae	eb 34		 jmp	 SHORT $LN1@SetTitle_e
$LN87@SetTitle_e:
  000b0	c6 45 f9 ec	 mov	 BYTE PTR __t$[ebp+9], -20 ; ffffffecH
  000b4	eb 2e		 jmp	 SHORT $LN1@SetTitle_e
$LN88@SetTitle_e:
  000b6	c6 45 f8 ed	 mov	 BYTE PTR __t$[ebp+8], -19 ; ffffffedH
  000ba	eb 28		 jmp	 SHORT $LN1@SetTitle_e
$LN89@SetTitle_e:
  000bc	c6 45 f7 ea	 mov	 BYTE PTR __t$[ebp+7], -22 ; ffffffeaH
  000c0	eb 22		 jmp	 SHORT $LN1@SetTitle_e
$LN91@SetTitle_e:
  000c2	c6 45 f5 ec	 mov	 BYTE PTR __t$[ebp+5], -20 ; ffffffecH
  000c6	eb 1c		 jmp	 SHORT $LN1@SetTitle_e
$LN92@SetTitle_e:
  000c8	c6 45 f4 ed	 mov	 BYTE PTR __t$[ebp+4], -19 ; ffffffedH
  000cc	eb 16		 jmp	 SHORT $LN1@SetTitle_e
$LN93@SetTitle_e:
  000ce	c6 45 f3 ea	 mov	 BYTE PTR __t$[ebp+3], -22 ; ffffffeaH
  000d2	eb 10		 jmp	 SHORT $LN1@SetTitle_e
$LN94@SetTitle_e:
  000d4	c6 45 f2 eb	 mov	 BYTE PTR __t$[ebp+2], -21 ; ffffffebH
  000d8	eb 0a		 jmp	 SHORT $LN1@SetTitle_e
$LN95@SetTitle_e:
  000da	c6 45 f1 ec	 mov	 BYTE PTR __t$[ebp+1], -20 ; ffffffecH
  000de	eb 04		 jmp	 SHORT $LN1@SetTitle_e
$LN96@SetTitle_e:
  000e0	c6 45 f0 ed	 mov	 BYTE PTR __t$[ebp], -19	; ffffffedH
$LN1@SetTitle_e:
  000e4	81 75 f0 ed ec
	eb ea		 xor	 DWORD PTR __t$[ebp], -353637139 ; eaebecedH
  000eb	6a 04		 push	 4
  000ed	c6 45 f6 00	 mov	 BYTE PTR __t$[ebp+6], 0
  000f1	58		 pop	 eax
$LL101@SetTitle_e:
  000f2	8b c8		 mov	 ecx, eax
  000f4	81 e1 03 00 00
	80		 and	 ecx, -2147483645	; 80000003H
  000fa	79 05		 jns	 SHORT $LN111@SetTitle_e
  000fc	49		 dec	 ecx
  000fd	83 c9 fc	 or	 ecx, -4			; fffffffcH
  00100	41		 inc	 ecx
$LN111@SetTitle_e:
  00101	b2 ed		 mov	 dl, -19			; ffffffedH
  00103	2a d1		 sub	 dl, cl
  00105	30 54 05 f0	 xor	 BYTE PTR __t$[ebp+eax], dl
  00109	40		 inc	 eax
  0010a	83 f8 06	 cmp	 eax, 6
  0010d	7c e3		 jl	 SHORT $LL101@SetTitle_e

; 190  : 		SetTitle(_t);

  0010f	8d 45 f0	 lea	 eax, DWORD PTR __t$[ebp]
  00112	50		 push	 eax
  00113	8b ce		 mov	 ecx, esi
  00115	ff 15 00 00 00
	00		 call	 DWORD PTR __imp_?SetTitle@ioINILoader@@QAEXPBD@Z

; 191  : 	}

  0011b	8b 4d fc	 mov	 ecx, DWORD PTR __$ArrayPad$[ebp]
  0011e	33 cd		 xor	 ecx, ebp
  00120	5e		 pop	 esi
  00121	e8 00 00 00 00	 call	 @__security_check_cookie@4
  00126	c9		 leave
  00127	c2 04 00	 ret	 4
??$SetTitle_e@$06@ioINILoader@@QAEXAAY06$$CBD@Z ENDP	; ioINILoader::SetTitle_e<7>
_TEXT	ENDS
PUBLIC	??$_Cons_val@V?$allocator@UsPopupItemInfo@PopupStoreWnd@@@std@@UsPopupItemInfo@PopupStoreWnd@@AAU34@@std@@YAXAAV?$allocator@UsPopupItemInfo@PopupStoreWnd@@@0@PAUsPopupItemInfo@PopupStoreWnd@@AAU23@@Z ; std::_Cons_val<std::allocator<PopupStoreWnd::sPopupItemInfo>,PopupStoreWnd::sPopupItemInfo,PopupStoreWnd::sPopupItemInfo &>
; Function compile flags: /Ogsp
; File c:\program files (x86)\microsoft visual studio 10.0\vc\include\xmemory
;	COMDAT ??$_Cons_val@V?$allocator@UsPopupItemInfo@PopupStoreWnd@@@std@@UsPopupItemInfo@PopupStoreWnd@@AAU34@@std@@YAXAAV?$allocator@UsPopupItemInfo@PopupStoreWnd@@@0@PAUsPopupItemInfo@PopupStoreWnd@@AAU23@@Z
_TEXT	SEGMENT
__Alval$ = 8						; size = 4
__Pdest$ = 12						; size = 4
__Src$ = 16						; size = 4
??$_Cons_val@V?$allocator@UsPopupItemInfo@PopupStoreWnd@@@std@@UsPopupItemInfo@PopupStoreWnd@@AAU34@@std@@YAXAAV?$allocator@UsPopupItemInfo@PopupStoreWnd@@@0@PAUsPopupItemInfo@PopupStoreWnd@@AAU23@@Z PROC ; std::_Cons_val<std::allocator<PopupStoreWnd::sPopupItemInfo>,PopupStoreWnd::sPopupItemInfo,PopupStoreWnd::sPopupItemInfo &>, COMDAT

; 279  : 	{	// construct using allocator

  00000	55		 push	 ebp
  00001	8b ec		 mov	 ebp, esp
  00003	57		 push	 edi

; 280  : 	_Alval.construct(_Pdest, _STD forward<_Ty2>(_Src));

  00004	8b 7d 0c	 mov	 edi, DWORD PTR __Pdest$[ebp]
  00007	85 ff		 test	 edi, edi
  00009	74 0a		 je	 SHORT $LN7@Cons_val
  0000b	56		 push	 esi
  0000c	8b 75 10	 mov	 esi, DWORD PTR __Src$[ebp]
  0000f	6a 14		 push	 20			; 00000014H
  00011	59		 pop	 ecx
  00012	f3 a5		 rep movsd
  00014	5e		 pop	 esi
$LN7@Cons_val:
  00015	5f		 pop	 edi

; 281  : 	}

  00016	5d		 pop	 ebp
  00017	c3		 ret	 0
??$_Cons_val@V?$allocator@UsPopupItemInfo@PopupStoreWnd@@@std@@UsPopupItemInfo@PopupStoreWnd@@AAU34@@std@@YAXAAV?$allocator@UsPopupItemInfo@PopupStoreWnd@@@0@PAUsPopupItemInfo@PopupStoreWnd@@AAU23@@Z ENDP ; std::_Cons_val<std::allocator<PopupStoreWnd::sPopupItemInfo>,PopupStoreWnd::sPopupItemInfo,PopupStoreWnd::sPopupItemInfo &>
_TEXT	ENDS
PUBLIC	?construct@?$allocator@UsPopupItemInfo@PopupStoreWnd@@@std@@QAEXPAUsPopupItemInfo@PopupStoreWnd@@ABU34@@Z ; std::allocator<PopupStoreWnd::sPopupItemInfo>::construct
; Function compile flags: /Ogsp
;	COMDAT ?construct@?$allocator@UsPopupItemInfo@PopupStoreWnd@@@std@@QAEXPAUsPopupItemInfo@PopupStoreWnd@@ABU34@@Z
_TEXT	SEGMENT
__Ptr$ = 8						; size = 4
__Val$ = 12						; size = 4
?construct@?$allocator@UsPopupItemInfo@PopupStoreWnd@@@std@@QAEXPAUsPopupItemInfo@PopupStoreWnd@@ABU34@@Z PROC ; std::allocator<PopupStoreWnd::sPopupItemInfo>::construct, COMDAT
; _this$ = ecx

; 196  : 		{	// construct object at _Ptr with value _Val

  00000	55		 push	 ebp
  00001	8b ec		 mov	 ebp, esp
  00003	57		 push	 edi

; 197  : 		_Construct(_Ptr, _Val);

  00004	8b 7d 08	 mov	 edi, DWORD PTR __Ptr$[ebp]
  00007	85 ff		 test	 edi, edi
  00009	74 0a		 je	 SHORT $LN5@construct@2
  0000b	56		 push	 esi
  0000c	8b 75 0c	 mov	 esi, DWORD PTR __Val$[ebp]
  0000f	6a 14		 push	 20			; 00000014H
  00011	59		 pop	 ecx
  00012	f3 a5		 rep movsd
  00014	5e		 pop	 esi
$LN5@construct@2:
  00015	5f		 pop	 edi

; 198  : 		}

  00016	5d		 pop	 ebp
  00017	c2 08 00	 ret	 8
?construct@?$allocator@UsPopupItemInfo@PopupStoreWnd@@@std@@QAEXPAUsPopupItemInfo@PopupStoreWnd@@ABU34@@Z ENDP ; std::allocator<PopupStoreWnd::sPopupItemInfo>::construct
_TEXT	ENDS
PUBLIC	??0?$_Bind@HHV?$_Bind1@U?$_Callable_pmf@Q8PopupStoreWnd@@AEHXZV1@$0A@@tr1@std@@PAVPopupStoreWnd@@@tr1@std@@@tr1@std@@QAE@V?$_Bind1@U?$_Callable_pmf@Q8PopupStoreWnd@@AEHXZV1@$0A@@tr1@std@@PAVPopupStoreWnd@@@12@@Z ; std::tr1::_Bind<int,int,std::tr1::_Bind1<std::tr1::_Callable_pmf<int (__thiscall PopupStoreWnd::*const)(void),PopupStoreWnd,0>,PopupStoreWnd *> >::_Bind<int,int,std::tr1::_Bind1<std::tr1::_Callable_pmf<int (__thiscall PopupStoreWnd::*const)(void),PopupStoreWnd,0>,PopupStoreWnd *> >
; Function compile flags: /Ogsp
; File c:\program files (x86)\microsoft visual studio 10.0\vc\include\functional
;	COMDAT ??0?$_Bind@HHV?$_Bind1@U?$_Callable_pmf@Q8PopupStoreWnd@@AEHXZV1@$0A@@tr1@std@@PAVPopupStoreWnd@@@tr1@std@@@tr1@std@@QAE@V?$_Bind1@U?$_Callable_pmf@Q8PopupStoreWnd@@AEHXZV1@$0A@@tr1@std@@PAVPopupStoreWnd@@@12@@Z
_TEXT	SEGMENT
__B0$ = 8						; size = 8
??0?$_Bind@HHV?$_Bind1@U?$_Callable_pmf@Q8PopupStoreWnd@@AEHXZV1@$0A@@tr1@std@@PAVPopupStoreWnd@@@tr1@std@@@tr1@std@@QAE@V?$_Bind1@U?$_Callable_pmf@Q8PopupStoreWnd@@AEHXZV1@$0A@@tr1@std@@PAVPopupStoreWnd@@@12@@Z PROC ; std::tr1::_Bind<int,int,std::tr1::_Bind1<std::tr1::_Callable_pmf<int (__thiscall PopupStoreWnd::*const)(void),PopupStoreWnd,0>,PopupStoreWnd *> >::_Bind<int,int,std::tr1::_Bind1<std::tr1::_Callable_pmf<int (__thiscall PopupStoreWnd::*const)(void),PopupStoreWnd,0>,PopupStoreWnd *> >, COMDAT
; _this$ = ecx

; 385  : 		{	// construct

  00000	55		 push	 ebp
  00001	8b ec		 mov	 ebp, esp
  00003	8b c1		 mov	 eax, ecx
  00005	8b 4d 08	 mov	 ecx, DWORD PTR __B0$[ebp]
  00008	89 08		 mov	 DWORD PTR [eax], ecx
  0000a	8b 4d 0c	 mov	 ecx, DWORD PTR __B0$[ebp+4]
  0000d	89 48 04	 mov	 DWORD PTR [eax+4], ecx

; 386  : 		}

  00010	5d		 pop	 ebp
  00011	c2 08 00	 ret	 8
??0?$_Bind@HHV?$_Bind1@U?$_Callable_pmf@Q8PopupStoreWnd@@AEHXZV1@$0A@@tr1@std@@PAVPopupStoreWnd@@@tr1@std@@@tr1@std@@QAE@V?$_Bind1@U?$_Callable_pmf@Q8PopupStoreWnd@@AEHXZV1@$0A@@tr1@std@@PAVPopupStoreWnd@@@12@@Z ENDP ; std::tr1::_Bind<int,int,std::tr1::_Bind1<std::tr1::_Callable_pmf<int (__thiscall PopupStoreWnd::*const)(void),PopupStoreWnd,0>,PopupStoreWnd *> >::_Bind<int,int,std::tr1::_Bind1<std::tr1::_Callable_pmf<int (__thiscall PopupStoreWnd::*const)(void),PopupStoreWnd,0>,PopupStoreWnd *> >
_TEXT	ENDS
PUBLIC	??0?$_Bind@HHV?$_Bind1@U?$_Callable_pmf@Q8PopupStoreSubWnd@@AEHXZV1@$0A@@tr1@std@@PAVPopupStoreSubWnd@@@tr1@std@@@tr1@std@@QAE@V?$_Bind1@U?$_Callable_pmf@Q8PopupStoreSubWnd@@AEHXZV1@$0A@@tr1@std@@PAVPopupStoreSubWnd@@@12@@Z ; std::tr1::_Bind<int,int,std::tr1::_Bind1<std::tr1::_Callable_pmf<int (__thiscall PopupStoreSubWnd::*const)(void),PopupStoreSubWnd,0>,PopupStoreSubWnd *> >::_Bind<int,int,std::tr1::_Bind1<std::tr1::_Callable_pmf<int (__thiscall PopupStoreSubWnd::*const)(void),PopupStoreSubWnd,0>,PopupStoreSubWnd *> >
; Function compile flags: /Ogsp
;	COMDAT ??0?$_Bind@HHV?$_Bind1@U?$_Callable_pmf@Q8PopupStoreSubWnd@@AEHXZV1@$0A@@tr1@std@@PAVPopupStoreSubWnd@@@tr1@std@@@tr1@std@@QAE@V?$_Bind1@U?$_Callable_pmf@Q8PopupStoreSubWnd@@AEHXZV1@$0A@@tr1@std@@PAVPopupStoreSubWnd@@@12@@Z
_TEXT	SEGMENT
__B0$ = 8						; size = 8
??0?$_Bind@HHV?$_Bind1@U?$_Callable_pmf@Q8PopupStoreSubWnd@@AEHXZV1@$0A@@tr1@std@@PAVPopupStoreSubWnd@@@tr1@std@@@tr1@std@@QAE@V?$_Bind1@U?$_Callable_pmf@Q8PopupStoreSubWnd@@AEHXZV1@$0A@@tr1@std@@PAVPopupStoreSubWnd@@@12@@Z PROC ; std::tr1::_Bind<int,int,std::tr1::_Bind1<std::tr1::_Callable_pmf<int (__thiscall PopupStoreSubWnd::*const)(void),PopupStoreSubWnd,0>,PopupStoreSubWnd *> >::_Bind<int,int,std::tr1::_Bind1<std::tr1::_Callable_pmf<int (__thiscall PopupStoreSubWnd::*const)(void),PopupStoreSubWnd,0>,PopupStoreSubWnd *> >, COMDAT
; _this$ = ecx

; 385  : 		{	// construct

  00000	55		 push	 ebp
  00001	8b ec		 mov	 ebp, esp
  00003	8b c1		 mov	 eax, ecx
  00005	8b 4d 08	 mov	 ecx, DWORD PTR __B0$[ebp]
  00008	89 08		 mov	 DWORD PTR [eax], ecx
  0000a	8b 4d 0c	 mov	 ecx, DWORD PTR __B0$[ebp+4]
  0000d	89 48 04	 mov	 DWORD PTR [eax+4], ecx

; 386  : 		}

  00010	5d		 pop	 ebp
  00011	c2 08 00	 ret	 8
??0?$_Bind@HHV?$_Bind1@U?$_Callable_pmf@Q8PopupStoreSubWnd@@AEHXZV1@$0A@@tr1@std@@PAVPopupStoreSubWnd@@@tr1@std@@@tr1@std@@QAE@V?$_Bind1@U?$_Callable_pmf@Q8PopupStoreSubWnd@@AEHXZV1@$0A@@tr1@std@@PAVPopupStoreSubWnd@@@12@@Z ENDP ; std::tr1::_Bind<int,int,std::tr1::_Bind1<std::tr1::_Callable_pmf<int (__thiscall PopupStoreSubWnd::*const)(void),PopupStoreSubWnd,0>,PopupStoreSubWnd *> >::_Bind<int,int,std::tr1::_Bind1<std::tr1::_Callable_pmf<int (__thiscall PopupStoreSubWnd::*const)(void),PopupStoreSubWnd,0>,PopupStoreSubWnd *> >
_TEXT	ENDS
PUBLIC	??0?$_Callable_pmf@Q8PopupStoreWnd@@AEHXZV1@$0A@@tr1@std@@QAE@ABQ8PopupStoreWnd@@AEHXZ@Z ; std::tr1::_Callable_pmf<int (__thiscall PopupStoreWnd::*const)(void),PopupStoreWnd,0>::_Callable_pmf<int (__thiscall PopupStoreWnd::*const)(void),PopupStoreWnd,0>
; Function compile flags: /Ogsp
; File c:\program files (x86)\microsoft visual studio 10.0\vc\include\xrefwrap
;	COMDAT ??0?$_Callable_pmf@Q8PopupStoreWnd@@AEHXZV1@$0A@@tr1@std@@QAE@ABQ8PopupStoreWnd@@AEHXZ@Z
_TEXT	SEGMENT
__Val$ = 8						; size = 4
??0?$_Callable_pmf@Q8PopupStoreWnd@@AEHXZV1@$0A@@tr1@std@@QAE@ABQ8PopupStoreWnd@@AEHXZ@Z PROC ; std::tr1::_Callable_pmf<int (__thiscall PopupStoreWnd::*const)(void),PopupStoreWnd,0>::_Callable_pmf<int (__thiscall PopupStoreWnd::*const)(void),PopupStoreWnd,0>, COMDAT
; _this$ = ecx

; 174  : 		{	// construct

  00000	55		 push	 ebp
  00001	8b ec		 mov	 ebp, esp
  00003	8b c1		 mov	 eax, ecx
  00005	8b 4d 08	 mov	 ecx, DWORD PTR __Val$[ebp]
  00008	8b 09		 mov	 ecx, DWORD PTR [ecx]
  0000a	89 08		 mov	 DWORD PTR [eax], ecx

; 175  : 		}

  0000c	5d		 pop	 ebp
  0000d	c2 04 00	 ret	 4
??0?$_Callable_pmf@Q8PopupStoreWnd@@AEHXZV1@$0A@@tr1@std@@QAE@ABQ8PopupStoreWnd@@AEHXZ@Z ENDP ; std::tr1::_Callable_pmf<int (__thiscall PopupStoreWnd::*const)(void),PopupStoreWnd,0>::_Callable_pmf<int (__thiscall PopupStoreWnd::*const)(void),PopupStoreWnd,0>
_TEXT	ENDS
PUBLIC	??0?$_Callable_pmf@Q8PopupStoreSubWnd@@AEHXZV1@$0A@@tr1@std@@QAE@ABQ8PopupStoreSubWnd@@AEHXZ@Z ; std::tr1::_Callable_pmf<int (__thiscall PopupStoreSubWnd::*const)(void),PopupStoreSubWnd,0>::_Callable_pmf<int (__thiscall PopupStoreSubWnd::*const)(void),PopupStoreSubWnd,0>
; Function compile flags: /Ogsp
;	COMDAT ??0?$_Callable_pmf@Q8PopupStoreSubWnd@@AEHXZV1@$0A@@tr1@std@@QAE@ABQ8PopupStoreSubWnd@@AEHXZ@Z
_TEXT	SEGMENT
__Val$ = 8						; size = 4
??0?$_Callable_pmf@Q8PopupStoreSubWnd@@AEHXZV1@$0A@@tr1@std@@QAE@ABQ8PopupStoreSubWnd@@AEHXZ@Z PROC ; std::tr1::_Callable_pmf<int (__thiscall PopupStoreSubWnd::*const)(void),PopupStoreSubWnd,0>::_Callable_pmf<int (__thiscall PopupStoreSubWnd::*const)(void),PopupStoreSubWnd,0>, COMDAT
; _this$ = ecx

; 174  : 		{	// construct

  00000	55		 push	 ebp
  00001	8b ec		 mov	 ebp, esp
  00003	8b c1		 mov	 eax, ecx
  00005	8b 4d 08	 mov	 ecx, DWORD PTR __Val$[ebp]
  00008	8b 09		 mov	 ecx, DWORD PTR [ecx]
  0000a	89 08		 mov	 DWORD PTR [eax], ecx

; 175  : 		}

  0000c	5d		 pop	 ebp
  0000d	c2 04 00	 ret	 4
??0?$_Callable_pmf@Q8PopupStoreSubWnd@@AEHXZV1@$0A@@tr1@std@@QAE@ABQ8PopupStoreSubWnd@@AEHXZ@Z ENDP ; std::tr1::_Callable_pmf<int (__thiscall PopupStoreSubWnd::*const)(void),PopupStoreSubWnd,0>::_Callable_pmf<int (__thiscall PopupStoreSubWnd::*const)(void),PopupStoreSubWnd,0>
_TEXT	ENDS
PUBLIC	??$encodeString@$0BK@@ioINILoader_e@@AAEPADAAY0BK@$$CBDPAD@Z ; ioINILoader_e::encodeString<26>
; Function compile flags: /Ogsp
; File d:\lost saga for developer\youtube\tutorial\source\src\io3dengine\ioiniloader.h
;	COMDAT ??$encodeString@$0BK@@ioINILoader_e@@AAEPADAAY0BK@$$CBDPAD@Z
_TEXT	SEGMENT
_s$ = 8							; size = 4
_e$ = 12						; size = 4
??$encodeString@$0BK@@ioINILoader_e@@AAEPADAAY0BK@$$CBDPAD@Z PROC ; ioINILoader_e::encodeString<26>, COMDAT
; _this$ = ecx

; 215  : 	{

  00000	55		 push	 ebp
  00001	8b ec		 mov	 ebp, esp

; 216  : 		__ENCSTR(s, e);

  00003	8b 4d 08	 mov	 ecx, DWORD PTR _s$[ebp]
  00006	8a 11		 mov	 dl, BYTE PTR [ecx]
  00008	8b 45 0c	 mov	 eax, DWORD PTR _e$[ebp]
  0000b	53		 push	 ebx
  0000c	84 d2		 test	 dl, dl
  0000e	0f 84 6a 04 00
	00		 je	 $LN96@encodeStri
  00014	80 f2 ed	 xor	 dl, -19			; ffffffedH
  00017	88 10		 mov	 BYTE PTR [eax], dl
  00019	8a 51 01	 mov	 dl, BYTE PTR [ecx+1]
  0001c	84 d2		 test	 dl, dl
  0001e	0f 84 54 04 00
	00		 je	 $LN95@encodeStri
  00024	80 f2 ec	 xor	 dl, -20			; ffffffecH
  00027	88 50 01	 mov	 BYTE PTR [eax+1], dl
  0002a	8a 51 02	 mov	 dl, BYTE PTR [ecx+2]
  0002d	84 d2		 test	 dl, dl
  0002f	0f 84 3d 04 00
	00		 je	 $LN94@encodeStri
  00035	b3 eb		 mov	 bl, -21			; ffffffebH
  00037	32 d3		 xor	 dl, bl
  00039	88 50 02	 mov	 BYTE PTR [eax+2], dl
  0003c	8a 51 03	 mov	 dl, BYTE PTR [ecx+3]
  0003f	84 d2		 test	 dl, dl
  00041	0f 84 25 04 00
	00		 je	 $LN93@encodeStri
  00047	80 f2 ea	 xor	 dl, -22			; ffffffeaH
  0004a	88 50 03	 mov	 BYTE PTR [eax+3], dl
  0004d	8a 51 04	 mov	 dl, BYTE PTR [ecx+4]
  00050	84 d2		 test	 dl, dl
  00052	0f 84 0e 04 00
	00		 je	 $LN92@encodeStri
  00058	80 f2 ed	 xor	 dl, -19			; ffffffedH
  0005b	88 50 04	 mov	 BYTE PTR [eax+4], dl
  0005e	8a 51 05	 mov	 dl, BYTE PTR [ecx+5]
  00061	84 d2		 test	 dl, dl
  00063	0f 84 f7 03 00
	00		 je	 $LN91@encodeStri
  00069	80 f2 ec	 xor	 dl, -20			; ffffffecH
  0006c	88 50 05	 mov	 BYTE PTR [eax+5], dl
  0006f	8a 51 06	 mov	 dl, BYTE PTR [ecx+6]
  00072	84 d2		 test	 dl, dl
  00074	0f 84 e1 03 00
	00		 je	 $LN90@encodeStri
  0007a	32 d3		 xor	 dl, bl
  0007c	88 50 06	 mov	 BYTE PTR [eax+6], dl
  0007f	8a 51 07	 mov	 dl, BYTE PTR [ecx+7]
  00082	84 d2		 test	 dl, dl
  00084	0f 84 cb 03 00
	00		 je	 $LN89@encodeStri
  0008a	80 f2 ea	 xor	 dl, -22			; ffffffeaH
  0008d	88 50 07	 mov	 BYTE PTR [eax+7], dl
  00090	8a 51 08	 mov	 dl, BYTE PTR [ecx+8]
  00093	84 d2		 test	 dl, dl
  00095	0f 84 b4 03 00
	00		 je	 $LN88@encodeStri
  0009b	80 f2 ed	 xor	 dl, -19			; ffffffedH
  0009e	88 50 08	 mov	 BYTE PTR [eax+8], dl
  000a1	8a 51 09	 mov	 dl, BYTE PTR [ecx+9]
  000a4	84 d2		 test	 dl, dl
  000a6	0f 84 9d 03 00
	00		 je	 $LN87@encodeStri
  000ac	80 f2 ec	 xor	 dl, -20			; ffffffecH
  000af	88 50 09	 mov	 BYTE PTR [eax+9], dl
  000b2	8a 51 0a	 mov	 dl, BYTE PTR [ecx+10]
  000b5	84 d2		 test	 dl, dl
  000b7	0f 84 87 03 00
	00		 je	 $LN86@encodeStri
  000bd	32 d3		 xor	 dl, bl
  000bf	88 50 0a	 mov	 BYTE PTR [eax+10], dl
  000c2	8a 51 0b	 mov	 dl, BYTE PTR [ecx+11]
  000c5	84 d2		 test	 dl, dl
  000c7	0f 84 71 03 00
	00		 je	 $LN85@encodeStri
  000cd	80 f2 ea	 xor	 dl, -22			; ffffffeaH
  000d0	88 50 0b	 mov	 BYTE PTR [eax+11], dl
  000d3	8a 51 0c	 mov	 dl, BYTE PTR [ecx+12]
  000d6	84 d2		 test	 dl, dl
  000d8	0f 84 5a 03 00
	00		 je	 $LN84@encodeStri
  000de	80 f2 ed	 xor	 dl, -19			; ffffffedH
  000e1	88 50 0c	 mov	 BYTE PTR [eax+12], dl
  000e4	8a 51 0d	 mov	 dl, BYTE PTR [ecx+13]
  000e7	84 d2		 test	 dl, dl
  000e9	0f 84 43 03 00
	00		 je	 $LN83@encodeStri
  000ef	80 f2 ec	 xor	 dl, -20			; ffffffecH
  000f2	88 50 0d	 mov	 BYTE PTR [eax+13], dl
  000f5	8a 51 0e	 mov	 dl, BYTE PTR [ecx+14]
  000f8	84 d2		 test	 dl, dl
  000fa	0f 84 2d 03 00
	00		 je	 $LN82@encodeStri
  00100	32 d3		 xor	 dl, bl
  00102	88 50 0e	 mov	 BYTE PTR [eax+14], dl
  00105	8a 51 0f	 mov	 dl, BYTE PTR [ecx+15]
  00108	84 d2		 test	 dl, dl
  0010a	0f 84 17 03 00
	00		 je	 $LN81@encodeStri
  00110	80 f2 ea	 xor	 dl, -22			; ffffffeaH
  00113	88 50 0f	 mov	 BYTE PTR [eax+15], dl
  00116	8a 51 10	 mov	 dl, BYTE PTR [ecx+16]
  00119	84 d2		 test	 dl, dl
  0011b	0f 84 00 03 00
	00		 je	 $LN80@encodeStri
  00121	80 f2 ed	 xor	 dl, -19			; ffffffedH
  00124	88 50 10	 mov	 BYTE PTR [eax+16], dl
  00127	8a 51 11	 mov	 dl, BYTE PTR [ecx+17]
  0012a	84 d2		 test	 dl, dl
  0012c	0f 84 e9 02 00
	00		 je	 $LN79@encodeStri
  00132	80 f2 ec	 xor	 dl, -20			; ffffffecH
  00135	88 50 11	 mov	 BYTE PTR [eax+17], dl
  00138	8a 51 12	 mov	 dl, BYTE PTR [ecx+18]
  0013b	84 d2		 test	 dl, dl
  0013d	0f 84 d3 02 00
	00		 je	 $LN78@encodeStri
  00143	32 d3		 xor	 dl, bl
  00145	88 50 12	 mov	 BYTE PTR [eax+18], dl
  00148	8a 51 13	 mov	 dl, BYTE PTR [ecx+19]
  0014b	84 d2		 test	 dl, dl
  0014d	0f 84 bd 02 00
	00		 je	 $LN77@encodeStri
  00153	80 f2 ea	 xor	 dl, -22			; ffffffeaH
  00156	88 50 13	 mov	 BYTE PTR [eax+19], dl
  00159	8a 51 14	 mov	 dl, BYTE PTR [ecx+20]
  0015c	84 d2		 test	 dl, dl
  0015e	0f 84 a6 02 00
	00		 je	 $LN76@encodeStri
  00164	80 f2 ed	 xor	 dl, -19			; ffffffedH
  00167	88 50 14	 mov	 BYTE PTR [eax+20], dl
  0016a	8a 51 15	 mov	 dl, BYTE PTR [ecx+21]
  0016d	84 d2		 test	 dl, dl
  0016f	0f 84 8f 02 00
	00		 je	 $LN75@encodeStri
  00175	80 f2 ec	 xor	 dl, -20			; ffffffecH
  00178	88 50 15	 mov	 BYTE PTR [eax+21], dl
  0017b	8a 51 16	 mov	 dl, BYTE PTR [ecx+22]
  0017e	84 d2		 test	 dl, dl
  00180	0f 84 79 02 00
	00		 je	 $LN74@encodeStri
  00186	32 d3		 xor	 dl, bl
  00188	88 50 16	 mov	 BYTE PTR [eax+22], dl
  0018b	8a 51 17	 mov	 dl, BYTE PTR [ecx+23]
  0018e	84 d2		 test	 dl, dl
  00190	0f 84 60 02 00
	00		 je	 $LN73@encodeStri
  00196	80 f2 ea	 xor	 dl, -22			; ffffffeaH
  00199	88 50 17	 mov	 BYTE PTR [eax+23], dl
  0019c	8a 51 18	 mov	 dl, BYTE PTR [ecx+24]
  0019f	84 d2		 test	 dl, dl
  001a1	0f 84 46 02 00
	00		 je	 $LN72@encodeStri
  001a7	80 f2 ed	 xor	 dl, -19			; ffffffedH
  001aa	88 50 18	 mov	 BYTE PTR [eax+24], dl
  001ad	8a 51 19	 mov	 dl, BYTE PTR [ecx+25]
  001b0	84 d2		 test	 dl, dl
  001b2	0f 84 2c 02 00
	00		 je	 $LN71@encodeStri
  001b8	80 f2 ec	 xor	 dl, -20			; ffffffecH
  001bb	88 50 19	 mov	 BYTE PTR [eax+25], dl
  001be	8a 51 1a	 mov	 dl, BYTE PTR [ecx+26]
  001c1	84 d2		 test	 dl, dl
  001c3	0f 84 13 02 00
	00		 je	 $LN70@encodeStri
  001c9	32 d3		 xor	 dl, bl
  001cb	88 50 1a	 mov	 BYTE PTR [eax+26], dl
  001ce	8a 51 1b	 mov	 dl, BYTE PTR [ecx+27]
  001d1	84 d2		 test	 dl, dl
  001d3	0f 84 fa 01 00
	00		 je	 $LN69@encodeStri
  001d9	80 f2 ea	 xor	 dl, -22			; ffffffeaH
  001dc	88 50 1b	 mov	 BYTE PTR [eax+27], dl
  001df	8a 51 1c	 mov	 dl, BYTE PTR [ecx+28]
  001e2	84 d2		 test	 dl, dl
  001e4	0f 84 e0 01 00
	00		 je	 $LN68@encodeStri
  001ea	80 f2 ed	 xor	 dl, -19			; ffffffedH
  001ed	88 50 1c	 mov	 BYTE PTR [eax+28], dl
  001f0	8a 51 1d	 mov	 dl, BYTE PTR [ecx+29]
  001f3	84 d2		 test	 dl, dl
  001f5	0f 84 c6 01 00
	00		 je	 $LN67@encodeStri
  001fb	80 f2 ec	 xor	 dl, -20			; ffffffecH
  001fe	88 50 1d	 mov	 BYTE PTR [eax+29], dl
  00201	8a 51 1e	 mov	 dl, BYTE PTR [ecx+30]
  00204	84 d2		 test	 dl, dl
  00206	0f 84 ad 01 00
	00		 je	 $LN66@encodeStri
  0020c	32 d3		 xor	 dl, bl
  0020e	88 50 1e	 mov	 BYTE PTR [eax+30], dl
  00211	8a 51 1f	 mov	 dl, BYTE PTR [ecx+31]
  00214	84 d2		 test	 dl, dl
  00216	0f 84 94 01 00
	00		 je	 $LN65@encodeStri
  0021c	80 f2 ea	 xor	 dl, -22			; ffffffeaH
  0021f	88 50 1f	 mov	 BYTE PTR [eax+31], dl
  00222	8a 51 20	 mov	 dl, BYTE PTR [ecx+32]
  00225	84 d2		 test	 dl, dl
  00227	0f 84 7a 01 00
	00		 je	 $LN64@encodeStri
  0022d	80 f2 ed	 xor	 dl, -19			; ffffffedH
  00230	88 50 20	 mov	 BYTE PTR [eax+32], dl
  00233	8a 51 21	 mov	 dl, BYTE PTR [ecx+33]
  00236	84 d2		 test	 dl, dl
  00238	0f 84 60 01 00
	00		 je	 $LN63@encodeStri
  0023e	80 f2 ec	 xor	 dl, -20			; ffffffecH
  00241	88 50 21	 mov	 BYTE PTR [eax+33], dl
  00244	8a 51 22	 mov	 dl, BYTE PTR [ecx+34]
  00247	84 d2		 test	 dl, dl
  00249	0f 84 47 01 00
	00		 je	 $LN62@encodeStri
  0024f	32 d3		 xor	 dl, bl
  00251	88 50 22	 mov	 BYTE PTR [eax+34], dl
  00254	8a 51 23	 mov	 dl, BYTE PTR [ecx+35]
  00257	84 d2		 test	 dl, dl
  00259	0f 84 2e 01 00
	00		 je	 $LN61@encodeStri
  0025f	80 f2 ea	 xor	 dl, -22			; ffffffeaH
  00262	88 50 23	 mov	 BYTE PTR [eax+35], dl
  00265	8a 51 24	 mov	 dl, BYTE PTR [ecx+36]
  00268	84 d2		 test	 dl, dl
  0026a	0f 84 14 01 00
	00		 je	 $LN60@encodeStri
  00270	80 f2 ed	 xor	 dl, -19			; ffffffedH
  00273	88 50 24	 mov	 BYTE PTR [eax+36], dl
  00276	8a 51 25	 mov	 dl, BYTE PTR [ecx+37]
  00279	84 d2		 test	 dl, dl
  0027b	0f 84 fa 00 00
	00		 je	 $LN59@encodeStri
  00281	80 f2 ec	 xor	 dl, -20			; ffffffecH
  00284	88 50 25	 mov	 BYTE PTR [eax+37], dl
  00287	8a 51 26	 mov	 dl, BYTE PTR [ecx+38]
  0028a	84 d2		 test	 dl, dl
  0028c	0f 84 e1 00 00
	00		 je	 $LN58@encodeStri
  00292	32 d3		 xor	 dl, bl
  00294	88 50 26	 mov	 BYTE PTR [eax+38], dl
  00297	8a 51 27	 mov	 dl, BYTE PTR [ecx+39]
  0029a	84 d2		 test	 dl, dl
  0029c	0f 84 c8 00 00
	00		 je	 $LN57@encodeStri
  002a2	80 f2 ea	 xor	 dl, -22			; ffffffeaH
  002a5	88 50 27	 mov	 BYTE PTR [eax+39], dl
  002a8	8a 51 28	 mov	 dl, BYTE PTR [ecx+40]
  002ab	84 d2		 test	 dl, dl
  002ad	0f 84 ae 00 00
	00		 je	 $LN56@encodeStri
  002b3	80 f2 ed	 xor	 dl, -19			; ffffffedH
  002b6	88 50 28	 mov	 BYTE PTR [eax+40], dl
  002b9	8a 51 29	 mov	 dl, BYTE PTR [ecx+41]
  002bc	84 d2		 test	 dl, dl
  002be	0f 84 94 00 00
	00		 je	 $LN55@encodeStri
  002c4	80 f2 ec	 xor	 dl, -20			; ffffffecH
  002c7	88 50 29	 mov	 BYTE PTR [eax+41], dl
  002ca	8a 51 2a	 mov	 dl, BYTE PTR [ecx+42]
  002cd	84 d2		 test	 dl, dl
  002cf	74 7f		 je	 SHORT $LN54@encodeStri
  002d1	32 d3		 xor	 dl, bl
  002d3	88 50 2a	 mov	 BYTE PTR [eax+42], dl
  002d6	8a 51 2b	 mov	 dl, BYTE PTR [ecx+43]
  002d9	84 d2		 test	 dl, dl
  002db	74 6a		 je	 SHORT $LN53@encodeStri
  002dd	80 f2 ea	 xor	 dl, -22			; ffffffeaH
  002e0	88 50 2b	 mov	 BYTE PTR [eax+43], dl
  002e3	8a 51 2c	 mov	 dl, BYTE PTR [ecx+44]
  002e6	84 d2		 test	 dl, dl
  002e8	74 54		 je	 SHORT $LN52@encodeStri
  002ea	80 f2 ed	 xor	 dl, -19			; ffffffedH
  002ed	88 50 2c	 mov	 BYTE PTR [eax+44], dl
  002f0	8a 51 2d	 mov	 dl, BYTE PTR [ecx+45]
  002f3	84 d2		 test	 dl, dl
  002f5	74 3e		 je	 SHORT $LN51@encodeStri
  002f7	80 f2 ec	 xor	 dl, -20			; ffffffecH
  002fa	88 50 2d	 mov	 BYTE PTR [eax+45], dl
  002fd	8a 51 2e	 mov	 dl, BYTE PTR [ecx+46]
  00300	84 d2		 test	 dl, dl
  00302	74 29		 je	 SHORT $LN50@encodeStri
  00304	32 d3		 xor	 dl, bl
  00306	88 50 2e	 mov	 BYTE PTR [eax+46], dl
  00309	8a 51 2f	 mov	 dl, BYTE PTR [ecx+47]
  0030c	84 d2		 test	 dl, dl
  0030e	74 14		 je	 SHORT $LN49@encodeStri
  00310	80 f2 ea	 xor	 dl, -22			; ffffffeaH
  00313	88 50 2f	 mov	 BYTE PTR [eax+47], dl
  00316	8a 49 30	 mov	 cl, BYTE PTR [ecx+48]
  00319	80 f1 ed	 xor	 cl, -19			; ffffffedH
  0031c	88 48 30	 mov	 BYTE PTR [eax+48], cl
  0031f	e9 5d 01 00 00	 jmp	 $LN1@encodeStri
$LN49@encodeStri:
  00324	c6 40 2f ea	 mov	 BYTE PTR [eax+47], -22	; ffffffeaH
  00328	e9 54 01 00 00	 jmp	 $LN1@encodeStri
$LN50@encodeStri:
  0032d	88 58 2e	 mov	 BYTE PTR [eax+46], bl
  00330	e9 4c 01 00 00	 jmp	 $LN1@encodeStri
$LN51@encodeStri:
  00335	c6 40 2d ec	 mov	 BYTE PTR [eax+45], -20	; ffffffecH
  00339	e9 43 01 00 00	 jmp	 $LN1@encodeStri
$LN52@encodeStri:
  0033e	c6 40 2c ed	 mov	 BYTE PTR [eax+44], -19	; ffffffedH
  00342	e9 3a 01 00 00	 jmp	 $LN1@encodeStri
$LN53@encodeStri:
  00347	c6 40 2b ea	 mov	 BYTE PTR [eax+43], -22	; ffffffeaH
  0034b	e9 31 01 00 00	 jmp	 $LN1@encodeStri
$LN54@encodeStri:
  00350	88 58 2a	 mov	 BYTE PTR [eax+42], bl
  00353	e9 29 01 00 00	 jmp	 $LN1@encodeStri
$LN55@encodeStri:
  00358	c6 40 29 ec	 mov	 BYTE PTR [eax+41], -20	; ffffffecH
  0035c	e9 20 01 00 00	 jmp	 $LN1@encodeStri
$LN56@encodeStri:
  00361	c6 40 28 ed	 mov	 BYTE PTR [eax+40], -19	; ffffffedH
  00365	e9 17 01 00 00	 jmp	 $LN1@encodeStri
$LN57@encodeStri:
  0036a	c6 40 27 ea	 mov	 BYTE PTR [eax+39], -22	; ffffffeaH
  0036e	e9 0e 01 00 00	 jmp	 $LN1@encodeStri
$LN58@encodeStri:
  00373	88 58 26	 mov	 BYTE PTR [eax+38], bl
  00376	e9 06 01 00 00	 jmp	 $LN1@encodeStri
$LN59@encodeStri:
  0037b	c6 40 25 ec	 mov	 BYTE PTR [eax+37], -20	; ffffffecH
  0037f	e9 fd 00 00 00	 jmp	 $LN1@encodeStri
$LN60@encodeStri:
  00384	c6 40 24 ed	 mov	 BYTE PTR [eax+36], -19	; ffffffedH
  00388	e9 f4 00 00 00	 jmp	 $LN1@encodeStri
$LN61@encodeStri:
  0038d	c6 40 23 ea	 mov	 BYTE PTR [eax+35], -22	; ffffffeaH
  00391	e9 eb 00 00 00	 jmp	 $LN1@encodeStri
$LN62@encodeStri:
  00396	88 58 22	 mov	 BYTE PTR [eax+34], bl
  00399	e9 e3 00 00 00	 jmp	 $LN1@encodeStri
$LN63@encodeStri:
  0039e	c6 40 21 ec	 mov	 BYTE PTR [eax+33], -20	; ffffffecH
  003a2	e9 da 00 00 00	 jmp	 $LN1@encodeStri
$LN64@encodeStri:
  003a7	c6 40 20 ed	 mov	 BYTE PTR [eax+32], -19	; ffffffedH
  003ab	e9 d1 00 00 00	 jmp	 $LN1@encodeStri
$LN65@encodeStri:
  003b0	c6 40 1f ea	 mov	 BYTE PTR [eax+31], -22	; ffffffeaH
  003b4	e9 c8 00 00 00	 jmp	 $LN1@encodeStri
$LN66@encodeStri:
  003b9	88 58 1e	 mov	 BYTE PTR [eax+30], bl
  003bc	e9 c0 00 00 00	 jmp	 $LN1@encodeStri
$LN67@encodeStri:
  003c1	c6 40 1d ec	 mov	 BYTE PTR [eax+29], -20	; ffffffecH
  003c5	e9 b7 00 00 00	 jmp	 $LN1@encodeStri
$LN68@encodeStri:
  003ca	c6 40 1c ed	 mov	 BYTE PTR [eax+28], -19	; ffffffedH
  003ce	e9 ae 00 00 00	 jmp	 $LN1@encodeStri
$LN69@encodeStri:
  003d3	c6 40 1b ea	 mov	 BYTE PTR [eax+27], -22	; ffffffeaH
  003d7	e9 a5 00 00 00	 jmp	 $LN1@encodeStri
$LN70@encodeStri:
  003dc	88 58 1a	 mov	 BYTE PTR [eax+26], bl
  003df	e9 9d 00 00 00	 jmp	 $LN1@encodeStri
$LN71@encodeStri:
  003e4	c6 40 19 ec	 mov	 BYTE PTR [eax+25], -20	; ffffffecH
  003e8	e9 94 00 00 00	 jmp	 $LN1@encodeStri
$LN72@encodeStri:
  003ed	c6 40 18 ed	 mov	 BYTE PTR [eax+24], -19	; ffffffedH
  003f1	e9 8b 00 00 00	 jmp	 $LN1@encodeStri
$LN73@encodeStri:
  003f6	c6 40 17 ea	 mov	 BYTE PTR [eax+23], -22	; ffffffeaH
  003fa	e9 82 00 00 00	 jmp	 $LN1@encodeStri
$LN74@encodeStri:
  003ff	88 58 16	 mov	 BYTE PTR [eax+22], bl
  00402	eb 7d		 jmp	 SHORT $LN1@encodeStri
$LN75@encodeStri:
  00404	c6 40 15 ec	 mov	 BYTE PTR [eax+21], -20	; ffffffecH
  00408	eb 77		 jmp	 SHORT $LN1@encodeStri
$LN76@encodeStri:
  0040a	c6 40 14 ed	 mov	 BYTE PTR [eax+20], -19	; ffffffedH
  0040e	eb 71		 jmp	 SHORT $LN1@encodeStri
$LN77@encodeStri:
  00410	c6 40 13 ea	 mov	 BYTE PTR [eax+19], -22	; ffffffeaH
  00414	eb 6b		 jmp	 SHORT $LN1@encodeStri
$LN78@encodeStri:
  00416	88 58 12	 mov	 BYTE PTR [eax+18], bl
  00419	eb 66		 jmp	 SHORT $LN1@encodeStri
$LN79@encodeStri:
  0041b	c6 40 11 ec	 mov	 BYTE PTR [eax+17], -20	; ffffffecH
  0041f	eb 60		 jmp	 SHORT $LN1@encodeStri
$LN80@encodeStri:
  00421	c6 40 10 ed	 mov	 BYTE PTR [eax+16], -19	; ffffffedH
  00425	eb 5a		 jmp	 SHORT $LN1@encodeStri
$LN81@encodeStri:
  00427	c6 40 0f ea	 mov	 BYTE PTR [eax+15], -22	; ffffffeaH
  0042b	eb 54		 jmp	 SHORT $LN1@encodeStri
$LN82@encodeStri:
  0042d	88 58 0e	 mov	 BYTE PTR [eax+14], bl
  00430	eb 4f		 jmp	 SHORT $LN1@encodeStri
$LN83@encodeStri:
  00432	c6 40 0d ec	 mov	 BYTE PTR [eax+13], -20	; ffffffecH
  00436	eb 49		 jmp	 SHORT $LN1@encodeStri
$LN84@encodeStri:
  00438	c6 40 0c ed	 mov	 BYTE PTR [eax+12], -19	; ffffffedH
  0043c	eb 43		 jmp	 SHORT $LN1@encodeStri
$LN85@encodeStri:
  0043e	c6 40 0b ea	 mov	 BYTE PTR [eax+11], -22	; ffffffeaH
  00442	eb 3d		 jmp	 SHORT $LN1@encodeStri
$LN86@encodeStri:
  00444	88 58 0a	 mov	 BYTE PTR [eax+10], bl
  00447	eb 38		 jmp	 SHORT $LN1@encodeStri
$LN87@encodeStri:
  00449	c6 40 09 ec	 mov	 BYTE PTR [eax+9], -20	; ffffffecH
  0044d	eb 32		 jmp	 SHORT $LN1@encodeStri
$LN88@encodeStri:
  0044f	c6 40 08 ed	 mov	 BYTE PTR [eax+8], -19	; ffffffedH
  00453	eb 2c		 jmp	 SHORT $LN1@encodeStri
$LN89@encodeStri:
  00455	c6 40 07 ea	 mov	 BYTE PTR [eax+7], -22	; ffffffeaH
  00459	eb 26		 jmp	 SHORT $LN1@encodeStri
$LN90@encodeStri:
  0045b	88 58 06	 mov	 BYTE PTR [eax+6], bl
  0045e	eb 21		 jmp	 SHORT $LN1@encodeStri
$LN91@encodeStri:
  00460	c6 40 05 ec	 mov	 BYTE PTR [eax+5], -20	; ffffffecH
  00464	eb 1b		 jmp	 SHORT $LN1@encodeStri
$LN92@encodeStri:
  00466	c6 40 04 ed	 mov	 BYTE PTR [eax+4], -19	; ffffffedH
  0046a	eb 15		 jmp	 SHORT $LN1@encodeStri
$LN93@encodeStri:
  0046c	c6 40 03 ea	 mov	 BYTE PTR [eax+3], -22	; ffffffeaH
  00470	eb 0f		 jmp	 SHORT $LN1@encodeStri
$LN94@encodeStri:
  00472	c6 40 02 eb	 mov	 BYTE PTR [eax+2], -21	; ffffffebH
  00476	eb 09		 jmp	 SHORT $LN1@encodeStri
$LN95@encodeStri:
  00478	c6 40 01 ec	 mov	 BYTE PTR [eax+1], -20	; ffffffecH
  0047c	eb 03		 jmp	 SHORT $LN1@encodeStri
$LN96@encodeStri:
  0047e	c6 00 ed	 mov	 BYTE PTR [eax], -19	; ffffffedH
$LN1@encodeStri:
  00481	6a 06		 push	 6
  00483	5a		 pop	 edx
  00484	8b c8		 mov	 ecx, eax
  00486	c6 40 19 00	 mov	 BYTE PTR [eax+25], 0
  0048a	5b		 pop	 ebx
$LL104@encodeStri:
  0048b	81 31 ed ec eb
	ea		 xor	 DWORD PTR [ecx], -353637139 ; eaebecedH
  00491	83 c1 04	 add	 ecx, 4
  00494	4a		 dec	 edx
  00495	75 f4		 jne	 SHORT $LL104@encodeStri
  00497	80 70 18 ed	 xor	 BYTE PTR [eax+24], -19	; ffffffedH

; 217  : 		return e;
; 218  : 	}

  0049b	5d		 pop	 ebp
  0049c	c2 08 00	 ret	 8
??$encodeString@$0BK@@ioINILoader_e@@AAEPADAAY0BK@$$CBDPAD@Z ENDP ; ioINILoader_e::encodeString<26>
_TEXT	ENDS
PUBLIC	?destroy@?$allocator@UsPopupItemInfo@PopupStoreWnd@@@std@@QAEXPAUsPopupItemInfo@PopupStoreWnd@@@Z ; std::allocator<PopupStoreWnd::sPopupItemInfo>::destroy
; Function compile flags: /Ogsp
; File c:\program files (x86)\microsoft visual studio 10.0\vc\include\xmemory
;	COMDAT ?destroy@?$allocator@UsPopupItemInfo@PopupStoreWnd@@@std@@QAEXPAUsPopupItemInfo@PopupStoreWnd@@@Z
_TEXT	SEGMENT
__Ptr$ = 8						; size = 4
?destroy@?$allocator@UsPopupItemInfo@PopupStoreWnd@@@std@@QAEXPAUsPopupItemInfo@PopupStoreWnd@@@Z PROC ; std::allocator<PopupStoreWnd::sPopupItemInfo>::destroy, COMDAT
; _this$ = ecx

; 213  : 		_Destroy(_Ptr);
; 214  : 		}

  00000	c2 04 00	 ret	 4
?destroy@?$allocator@UsPopupItemInfo@PopupStoreWnd@@@std@@QAEXPAUsPopupItemInfo@PopupStoreWnd@@@Z ENDP ; std::allocator<PopupStoreWnd::sPopupItemInfo>::destroy
_TEXT	ENDS
PUBLIC	?allocate@?$allocator@V?$_Impl_no_alloc1@U?$_Callable_obj@V?$_Bind@HHV?$_Bind1@U?$_Callable_pmf@Q8PopupStoreWnd@@AEHXZV1@$0A@@tr1@std@@PAVPopupStoreWnd@@@tr1@std@@@tr1@std@@$0A@@tr1@std@@HUBINDSTRUCT@ioWnd@@@tr1@std@@@std@@QAEPAV?$_Impl_no_alloc1@U?$_Callable_obj@V?$_Bind@HHV?$_Bind1@U?$_Callable_pmf@Q8PopupStoreWnd@@AEHXZV1@$0A@@tr1@std@@PAVPopupStoreWnd@@@tr1@std@@@tr1@std@@$0A@@tr1@std@@HUBINDSTRUCT@ioWnd@@@tr1@2@I@Z ; std::allocator<std::tr1::_Impl_no_alloc1<std::tr1::_Callable_obj<std::tr1::_Bind<int,int,std::tr1::_Bind1<std::tr1::_Callable_pmf<int (__thiscall PopupStoreWnd::*const)(void),PopupStoreWnd,0>,PopupStoreWnd *> >,0>,int,ioWnd::BINDSTRUCT> >::allocate
; Function compile flags: /Ogsp
;	COMDAT ?allocate@?$allocator@V?$_Impl_no_alloc1@U?$_Callable_obj@V?$_Bind@HHV?$_Bind1@U?$_Callable_pmf@Q8PopupStoreWnd@@AEHXZV1@$0A@@tr1@std@@PAVPopupStoreWnd@@@tr1@std@@@tr1@std@@$0A@@tr1@std@@HUBINDSTRUCT@ioWnd@@@tr1@std@@@std@@QAEPAV?$_Impl_no_alloc1@U?$_Callable_obj@V?$_Bind@HHV?$_Bind1@U?$_Callable_pmf@Q8PopupStoreWnd@@AEHXZV1@$0A@@tr1@std@@PAVPopupStoreWnd@@@tr1@std@@@tr1@std@@$0A@@tr1@std@@HUBINDSTRUCT@ioWnd@@@tr1@2@I@Z
_TEXT	SEGMENT
__Count$ = 8						; size = 4
?allocate@?$allocator@V?$_Impl_no_alloc1@U?$_Callable_obj@V?$_Bind@HHV?$_Bind1@U?$_Callable_pmf@Q8PopupStoreWnd@@AEHXZV1@$0A@@tr1@std@@PAVPopupStoreWnd@@@tr1@std@@@tr1@std@@$0A@@tr1@std@@HUBINDSTRUCT@ioWnd@@@tr1@std@@@std@@QAEPAV?$_Impl_no_alloc1@U?$_Callable_obj@V?$_Bind@HHV?$_Bind1@U?$_Callable_pmf@Q8PopupStoreWnd@@AEHXZV1@$0A@@tr1@std@@PAVPopupStoreWnd@@@tr1@std@@@tr1@std@@$0A@@tr1@std@@HUBINDSTRUCT@ioWnd@@@tr1@2@I@Z PROC ; std::allocator<std::tr1::_Impl_no_alloc1<std::tr1::_Callable_obj<std::tr1::_Bind<int,int,std::tr1::_Bind1<std::tr1::_Callable_pmf<int (__thiscall PopupStoreWnd::*const)(void),PopupStoreWnd,0>,PopupStoreWnd *> >,0>,int,ioWnd::BINDSTRUCT> >::allocate, COMDAT
; _this$ = ecx

; 186  : 		{	// allocate array of _Count elements

  00000	55		 push	 ebp
  00001	8b ec		 mov	 ebp, esp

; 187  : 		return (_Allocate(_Count, (pointer)0));

  00003	6a 00		 push	 0
  00005	ff 75 08	 push	 DWORD PTR __Count$[ebp]
  00008	e8 00 00 00 00	 call	 ??$_Allocate@V?$_Impl_no_alloc1@U?$_Callable_obj@V?$_Bind@HHV?$_Bind1@U?$_Callable_pmf@Q8PopupStoreWnd@@AEHXZV1@$0A@@tr1@std@@PAVPopupStoreWnd@@@tr1@std@@@tr1@std@@$0A@@tr1@std@@HUBINDSTRUCT@ioWnd@@@tr1@std@@@std@@YAPAV?$_Impl_no_alloc1@U?$_Callable_obj@V?$_Bind@HHV?$_Bind1@U?$_Callable_pmf@Q8PopupStoreWnd@@AEHXZV1@$0A@@tr1@std@@PAVPopupStoreWnd@@@tr1@std@@@tr1@std@@$0A@@tr1@std@@HUBINDSTRUCT@ioWnd@@@tr1@0@IPAV120@@Z ; std::_Allocate<std::tr1::_Impl_no_alloc1<std::tr1::_Callable_obj<std::tr1::_Bind<int,int,std::tr1::_Bind1<std::tr1::_Callable_pmf<int (__thiscall PopupStoreWnd::*const)(void),PopupStoreWnd,0>,PopupStoreWnd *> >,0>,int,ioWnd::BINDSTRUCT> >
  0000d	59		 pop	 ecx
  0000e	59		 pop	 ecx

; 188  : 		}

  0000f	5d		 pop	 ebp
  00010	c2 04 00	 ret	 4
?allocate@?$allocator@V?$_Impl_no_alloc1@U?$_Callable_obj@V?$_Bind@HHV?$_Bind1@U?$_Callable_pmf@Q8PopupStoreWnd@@AEHXZV1@$0A@@tr1@std@@PAVPopupStoreWnd@@@tr1@std@@@tr1@std@@$0A@@tr1@std@@HUBINDSTRUCT@ioWnd@@@tr1@std@@@std@@QAEPAV?$_Impl_no_alloc1@U?$_Callable_obj@V?$_Bind@HHV?$_Bind1@U?$_Callable_pmf@Q8PopupStoreWnd@@AEHXZV1@$0A@@tr1@std@@PAVPopupStoreWnd@@@tr1@std@@@tr1@std@@$0A@@tr1@std@@HUBINDSTRUCT@ioWnd@@@tr1@2@I@Z ENDP ; std::allocator<std::tr1::_Impl_no_alloc1<std::tr1::_Callable_obj<std::tr1::_Bind<int,int,std::tr1::_Bind1<std::tr1::_Callable_pmf<int (__thiscall PopupStoreWnd::*const)(void),PopupStoreWnd,0>,PopupStoreWnd *> >,0>,int,ioWnd::BINDSTRUCT> >::allocate
_TEXT	ENDS
PUBLIC	?allocate@?$allocator@V?$_Impl_no_alloc1@U?$_Callable_obj@V?$_Bind@HHV?$_Bind1@U?$_Callable_pmf@Q8PopupStoreSubWnd@@AEHXZV1@$0A@@tr1@std@@PAVPopupStoreSubWnd@@@tr1@std@@@tr1@std@@$0A@@tr1@std@@HUBINDSTRUCT@ioWnd@@@tr1@std@@@std@@QAEPAV?$_Impl_no_alloc1@U?$_Callable_obj@V?$_Bind@HHV?$_Bind1@U?$_Callable_pmf@Q8PopupStoreSubWnd@@AEHXZV1@$0A@@tr1@std@@PAVPopupStoreSubWnd@@@tr1@std@@@tr1@std@@$0A@@tr1@std@@HUBINDSTRUCT@ioWnd@@@tr1@2@I@Z ; std::allocator<std::tr1::_Impl_no_alloc1<std::tr1::_Callable_obj<std::tr1::_Bind<int,int,std::tr1::_Bind1<std::tr1::_Callable_pmf<int (__thiscall PopupStoreSubWnd::*const)(void),PopupStoreSubWnd,0>,PopupStoreSubWnd *> >,0>,int,ioWnd::BINDSTRUCT> >::allocate
; Function compile flags: /Ogsp
;	COMDAT ?allocate@?$allocator@V?$_Impl_no_alloc1@U?$_Callable_obj@V?$_Bind@HHV?$_Bind1@U?$_Callable_pmf@Q8PopupStoreSubWnd@@AEHXZV1@$0A@@tr1@std@@PAVPopupStoreSubWnd@@@tr1@std@@@tr1@std@@$0A@@tr1@std@@HUBINDSTRUCT@ioWnd@@@tr1@std@@@std@@QAEPAV?$_Impl_no_alloc1@U?$_Callable_obj@V?$_Bind@HHV?$_Bind1@U?$_Callable_pmf@Q8PopupStoreSubWnd@@AEHXZV1@$0A@@tr1@std@@PAVPopupStoreSubWnd@@@tr1@std@@@tr1@std@@$0A@@tr1@std@@HUBINDSTRUCT@ioWnd@@@tr1@2@I@Z
_TEXT	SEGMENT
__Count$ = 8						; size = 4
?allocate@?$allocator@V?$_Impl_no_alloc1@U?$_Callable_obj@V?$_Bind@HHV?$_Bind1@U?$_Callable_pmf@Q8PopupStoreSubWnd@@AEHXZV1@$0A@@tr1@std@@PAVPopupStoreSubWnd@@@tr1@std@@@tr1@std@@$0A@@tr1@std@@HUBINDSTRUCT@ioWnd@@@tr1@std@@@std@@QAEPAV?$_Impl_no_alloc1@U?$_Callable_obj@V?$_Bind@HHV?$_Bind1@U?$_Callable_pmf@Q8PopupStoreSubWnd@@AEHXZV1@$0A@@tr1@std@@PAVPopupStoreSubWnd@@@tr1@std@@@tr1@std@@$0A@@tr1@std@@HUBINDSTRUCT@ioWnd@@@tr1@2@I@Z PROC ; std::allocator<std::tr1::_Impl_no_alloc1<std::tr1::_Callable_obj<std::tr1::_Bind<int,int,std::tr1::_Bind1<std::tr1::_Callable_pmf<int (__thiscall PopupStoreSubWnd::*const)(void),PopupStoreSubWnd,0>,PopupStoreSubWnd *> >,0>,int,ioWnd::BINDSTRUCT> >::allocate, COMDAT
; _this$ = ecx

; 186  : 		{	// allocate array of _Count elements

  00000	55		 push	 ebp
  00001	8b ec		 mov	 ebp, esp

; 187  : 		return (_Allocate(_Count, (pointer)0));

  00003	6a 00		 push	 0
  00005	ff 75 08	 push	 DWORD PTR __Count$[ebp]
  00008	e8 00 00 00 00	 call	 ??$_Allocate@V?$_Impl_no_alloc1@U?$_Callable_obj@V?$_Bind@HHV?$_Bind1@U?$_Callable_pmf@Q8PopupStoreSubWnd@@AEHXZV1@$0A@@tr1@std@@PAVPopupStoreSubWnd@@@tr1@std@@@tr1@std@@$0A@@tr1@std@@HUBINDSTRUCT@ioWnd@@@tr1@std@@@std@@YAPAV?$_Impl_no_alloc1@U?$_Callable_obj@V?$_Bind@HHV?$_Bind1@U?$_Callable_pmf@Q8PopupStoreSubWnd@@AEHXZV1@$0A@@tr1@std@@PAVPopupStoreSubWnd@@@tr1@std@@@tr1@std@@$0A@@tr1@std@@HUBINDSTRUCT@ioWnd@@@tr1@0@IPAV120@@Z ; std::_Allocate<std::tr1::_Impl_no_alloc1<std::tr1::_Callable_obj<std::tr1::_Bind<int,int,std::tr1::_Bind1<std::tr1::_Callable_pmf<int (__thiscall PopupStoreSubWnd::*const)(void),PopupStoreSubWnd,0>,PopupStoreSubWnd *> >,0>,int,ioWnd::BINDSTRUCT> >
  0000d	59		 pop	 ecx
  0000e	59		 pop	 ecx

; 188  : 		}

  0000f	5d		 pop	 ebp
  00010	c2 04 00	 ret	 4
?allocate@?$allocator@V?$_Impl_no_alloc1@U?$_Callable_obj@V?$_Bind@HHV?$_Bind1@U?$_Callable_pmf@Q8PopupStoreSubWnd@@AEHXZV1@$0A@@tr1@std@@PAVPopupStoreSubWnd@@@tr1@std@@@tr1@std@@$0A@@tr1@std@@HUBINDSTRUCT@ioWnd@@@tr1@std@@@std@@QAEPAV?$_Impl_no_alloc1@U?$_Callable_obj@V?$_Bind@HHV?$_Bind1@U?$_Callable_pmf@Q8PopupStoreSubWnd@@AEHXZV1@$0A@@tr1@std@@PAVPopupStoreSubWnd@@@tr1@std@@@tr1@std@@$0A@@tr1@std@@HUBINDSTRUCT@ioWnd@@@tr1@2@I@Z ENDP ; std::allocator<std::tr1::_Impl_no_alloc1<std::tr1::_Callable_obj<std::tr1::_Bind<int,int,std::tr1::_Bind1<std::tr1::_Callable_pmf<int (__thiscall PopupStoreSubWnd::*const)(void),PopupStoreSubWnd,0>,PopupStoreSubWnd *> >,0>,int,ioWnd::BINDSTRUCT> >::allocate
_TEXT	ENDS
PUBLIC	??0?$_Callable_obj@V?$_Bind@HHV?$_Bind1@U?$_Callable_pmf@Q8PopupStoreWnd@@AEHXZV1@$0A@@tr1@std@@PAVPopupStoreWnd@@@tr1@std@@@tr1@std@@$0A@@tr1@std@@QAE@AAV?$_Bind@HHV?$_Bind1@U?$_Callable_pmf@Q8PopupStoreWnd@@AEHXZV1@$0A@@tr1@std@@PAVPopupStoreWnd@@@tr1@std@@@12@@Z ; std::tr1::_Callable_obj<std::tr1::_Bind<int,int,std::tr1::_Bind1<std::tr1::_Callable_pmf<int (__thiscall PopupStoreWnd::*const)(void),PopupStoreWnd,0>,PopupStoreWnd *> >,0>::_Callable_obj<std::tr1::_Bind<int,int,std::tr1::_Bind1<std::tr1::_Callable_pmf<int (__thiscall PopupStoreWnd::*const)(void),PopupStoreWnd,0>,PopupStoreWnd *> >,0>
; Function compile flags: /Ogsp
; File c:\program files (x86)\microsoft visual studio 10.0\vc\include\xrefwrap
;	COMDAT ??0?$_Callable_obj@V?$_Bind@HHV?$_Bind1@U?$_Callable_pmf@Q8PopupStoreWnd@@AEHXZV1@$0A@@tr1@std@@PAVPopupStoreWnd@@@tr1@std@@@tr1@std@@$0A@@tr1@std@@QAE@AAV?$_Bind@HHV?$_Bind1@U?$_Callable_pmf@Q8PopupStoreWnd@@AEHXZV1@$0A@@tr1@std@@PAVPopupStoreWnd@@@tr1@std@@@12@@Z
_TEXT	SEGMENT
__Val$ = 8						; size = 4
??0?$_Callable_obj@V?$_Bind@HHV?$_Bind1@U?$_Callable_pmf@Q8PopupStoreWnd@@AEHXZV1@$0A@@tr1@std@@PAVPopupStoreWnd@@@tr1@std@@@tr1@std@@$0A@@tr1@std@@QAE@AAV?$_Bind@HHV?$_Bind1@U?$_Callable_pmf@Q8PopupStoreWnd@@AEHXZV1@$0A@@tr1@std@@PAVPopupStoreWnd@@@tr1@std@@@12@@Z PROC ; std::tr1::_Callable_obj<std::tr1::_Bind<int,int,std::tr1::_Bind1<std::tr1::_Callable_pmf<int (__thiscall PopupStoreWnd::*const)(void),PopupStoreWnd,0>,PopupStoreWnd *> >,0>::_Callable_obj<std::tr1::_Bind<int,int,std::tr1::_Bind1<std::tr1::_Callable_pmf<int (__thiscall PopupStoreWnd::*const)(void),PopupStoreWnd,0>,PopupStoreWnd *> >,0>, COMDAT
; _this$ = ecx

; 153  : 		{	// construct

  00000	55		 push	 ebp
  00001	8b ec		 mov	 ebp, esp
  00003	8b c1		 mov	 eax, ecx
  00005	8b 4d 08	 mov	 ecx, DWORD PTR __Val$[ebp]
  00008	8b 11		 mov	 edx, DWORD PTR [ecx]
  0000a	89 10		 mov	 DWORD PTR [eax], edx
  0000c	8b 49 04	 mov	 ecx, DWORD PTR [ecx+4]
  0000f	89 48 04	 mov	 DWORD PTR [eax+4], ecx

; 154  : 		}

  00012	5d		 pop	 ebp
  00013	c2 04 00	 ret	 4
??0?$_Callable_obj@V?$_Bind@HHV?$_Bind1@U?$_Callable_pmf@Q8PopupStoreWnd@@AEHXZV1@$0A@@tr1@std@@PAVPopupStoreWnd@@@tr1@std@@@tr1@std@@$0A@@tr1@std@@QAE@AAV?$_Bind@HHV?$_Bind1@U?$_Callable_pmf@Q8PopupStoreWnd@@AEHXZV1@$0A@@tr1@std@@PAVPopupStoreWnd@@@tr1@std@@@12@@Z ENDP ; std::tr1::_Callable_obj<std::tr1::_Bind<int,int,std::tr1::_Bind1<std::tr1::_Callable_pmf<int (__thiscall PopupStoreWnd::*const)(void),PopupStoreWnd,0>,PopupStoreWnd *> >,0>::_Callable_obj<std::tr1::_Bind<int,int,std::tr1::_Bind1<std::tr1::_Callable_pmf<int (__thiscall PopupStoreWnd::*const)(void),PopupStoreWnd,0>,PopupStoreWnd *> >,0>
_TEXT	ENDS
PUBLIC	??0?$_Callable_obj@V?$_Bind@HHV?$_Bind1@U?$_Callable_pmf@Q8PopupStoreSubWnd@@AEHXZV1@$0A@@tr1@std@@PAVPopupStoreSubWnd@@@tr1@std@@@tr1@std@@$0A@@tr1@std@@QAE@AAV?$_Bind@HHV?$_Bind1@U?$_Callable_pmf@Q8PopupStoreSubWnd@@AEHXZV1@$0A@@tr1@std@@PAVPopupStoreSubWnd@@@tr1@std@@@12@@Z ; std::tr1::_Callable_obj<std::tr1::_Bind<int,int,std::tr1::_Bind1<std::tr1::_Callable_pmf<int (__thiscall PopupStoreSubWnd::*const)(void),PopupStoreSubWnd,0>,PopupStoreSubWnd *> >,0>::_Callable_obj<std::tr1::_Bind<int,int,std::tr1::_Bind1<std::tr1::_Callable_pmf<int (__thiscall PopupStoreSubWnd::*const)(void),PopupStoreSubWnd,0>,PopupStoreSubWnd *> >,0>
; Function compile flags: /Ogsp
;	COMDAT ??0?$_Callable_obj@V?$_Bind@HHV?$_Bind1@U?$_Callable_pmf@Q8PopupStoreSubWnd@@AEHXZV1@$0A@@tr1@std@@PAVPopupStoreSubWnd@@@tr1@std@@@tr1@std@@$0A@@tr1@std@@QAE@AAV?$_Bind@HHV?$_Bind1@U?$_Callable_pmf@Q8PopupStoreSubWnd@@AEHXZV1@$0A@@tr1@std@@PAVPopupStoreSubWnd@@@tr1@std@@@12@@Z
_TEXT	SEGMENT
__Val$ = 8						; size = 4
??0?$_Callable_obj@V?$_Bind@HHV?$_Bind1@U?$_Callable_pmf@Q8PopupStoreSubWnd@@AEHXZV1@$0A@@tr1@std@@PAVPopupStoreSubWnd@@@tr1@std@@@tr1@std@@$0A@@tr1@std@@QAE@AAV?$_Bind@HHV?$_Bind1@U?$_Callable_pmf@Q8PopupStoreSubWnd@@AEHXZV1@$0A@@tr1@std@@PAVPopupStoreSubWnd@@@tr1@std@@@12@@Z PROC ; std::tr1::_Callable_obj<std::tr1::_Bind<int,int,std::tr1::_Bind1<std::tr1::_Callable_pmf<int (__thiscall PopupStoreSubWnd::*const)(void),PopupStoreSubWnd,0>,PopupStoreSubWnd *> >,0>::_Callable_obj<std::tr1::_Bind<int,int,std::tr1::_Bind1<std::tr1::_Callable_pmf<int (__thiscall PopupStoreSubWnd::*const)(void),PopupStoreSubWnd,0>,PopupStoreSubWnd *> >,0>, COMDAT
; _this$ = ecx

; 153  : 		{	// construct

  00000	55		 push	 ebp
  00001	8b ec		 mov	 ebp, esp
  00003	8b c1		 mov	 eax, ecx
  00005	8b 4d 08	 mov	 ecx, DWORD PTR __Val$[ebp]
  00008	8b 11		 mov	 edx, DWORD PTR [ecx]
  0000a	89 10		 mov	 DWORD PTR [eax], edx
  0000c	8b 49 04	 mov	 ecx, DWORD PTR [ecx+4]
  0000f	89 48 04	 mov	 DWORD PTR [eax+4], ecx

; 154  : 		}

  00012	5d		 pop	 ebp
  00013	c2 04 00	 ret	 4
??0?$_Callable_obj@V?$_Bind@HHV?$_Bind1@U?$_Callable_pmf@Q8PopupStoreSubWnd@@AEHXZV1@$0A@@tr1@std@@PAVPopupStoreSubWnd@@@tr1@std@@@tr1@std@@$0A@@tr1@std@@QAE@AAV?$_Bind@HHV?$_Bind1@U?$_Callable_pmf@Q8PopupStoreSubWnd@@AEHXZV1@$0A@@tr1@std@@PAVPopupStoreSubWnd@@@tr1@std@@@12@@Z ENDP ; std::tr1::_Callable_obj<std::tr1::_Bind<int,int,std::tr1::_Bind1<std::tr1::_Callable_pmf<int (__thiscall PopupStoreSubWnd::*const)(void),PopupStoreSubWnd,0>,PopupStoreSubWnd *> >,0>::_Callable_obj<std::tr1::_Bind<int,int,std::tr1::_Bind1<std::tr1::_Callable_pmf<int (__thiscall PopupStoreSubWnd::*const)(void),PopupStoreSubWnd,0>,PopupStoreSubWnd *> >,0>
_TEXT	ENDS
PUBLIC	?construct@?$allocator@UsPopupItemInfo@PopupStoreWnd@@@std@@QAEXPAUsPopupItemInfo@PopupStoreWnd@@$$QAU34@@Z ; std::allocator<PopupStoreWnd::sPopupItemInfo>::construct
; Function compile flags: /Ogsp
; File c:\program files (x86)\microsoft visual studio 10.0\vc\include\xmemory
;	COMDAT ?construct@?$allocator@UsPopupItemInfo@PopupStoreWnd@@@std@@QAEXPAUsPopupItemInfo@PopupStoreWnd@@$$QAU34@@Z
_TEXT	SEGMENT
__Ptr$ = 8						; size = 4
__Val$ = 12						; size = 4
?construct@?$allocator@UsPopupItemInfo@PopupStoreWnd@@@std@@QAEXPAUsPopupItemInfo@PopupStoreWnd@@$$QAU34@@Z PROC ; std::allocator<PopupStoreWnd::sPopupItemInfo>::construct, COMDAT
; _this$ = ecx

; 201  : 		{	// construct object at _Ptr with value _Val

  00000	55		 push	 ebp
  00001	8b ec		 mov	 ebp, esp
  00003	57		 push	 edi

; 202  : 		::new ((void _FARQ *)_Ptr) _Ty(_STD forward<_Ty>(_Val));

  00004	8b 7d 08	 mov	 edi, DWORD PTR __Ptr$[ebp]
  00007	85 ff		 test	 edi, edi
  00009	74 0a		 je	 SHORT $LN3@construct@3
  0000b	56		 push	 esi
  0000c	8b 75 0c	 mov	 esi, DWORD PTR __Val$[ebp]
  0000f	6a 14		 push	 20			; 00000014H
  00011	59		 pop	 ecx
  00012	f3 a5		 rep movsd
  00014	5e		 pop	 esi
$LN3@construct@3:
  00015	5f		 pop	 edi

; 203  : 		}

  00016	5d		 pop	 ebp
  00017	c2 08 00	 ret	 8
?construct@?$allocator@UsPopupItemInfo@PopupStoreWnd@@@std@@QAEXPAUsPopupItemInfo@PopupStoreWnd@@$$QAU34@@Z ENDP ; std::allocator<PopupStoreWnd::sPopupItemInfo>::construct
_TEXT	ENDS
PUBLIC	?_Tidy@?$_Function_impl1@HUBINDSTRUCT@ioWnd@@@tr1@std@@IAEXXZ ; std::tr1::_Function_impl1<int,ioWnd::BINDSTRUCT>::_Tidy
; Function compile flags: /Ogsp
; File c:\program files (x86)\microsoft visual studio 10.0\vc\include\xxfunction
;	COMDAT ?_Tidy@?$_Function_impl1@HUBINDSTRUCT@ioWnd@@@tr1@std@@IAEXXZ
_TEXT	SEGMENT
?_Tidy@?$_Function_impl1@HUBINDSTRUCT@ioWnd@@@tr1@std@@IAEXXZ PROC ; std::tr1::_Function_impl1<int,ioWnd::BINDSTRUCT>::_Tidy, COMDAT
; _this$ = ecx

; 1378 : 		{	// clean up

  00000	56		 push	 esi
  00001	8b f1		 mov	 esi, ecx

; 1379 : 		if (_Impl != 0)

  00003	8b 4e 10	 mov	 ecx, DWORD PTR [esi+16]
  00006	85 c9		 test	 ecx, ecx
  00008	74 12		 je	 SHORT $LN1@Tidy

; 1380 : 			{	// destroy callable object and maybe delete it
; 1381 : 			_Impl->_Delete_this(!_Local());

  0000a	8b 01		 mov	 eax, DWORD PTR [ecx]
  0000c	3b ce		 cmp	 ecx, esi
  0000e	0f 95 c2	 setne	 dl
  00011	0f b6 d2	 movzx	 edx, dl
  00014	52		 push	 edx
  00015	ff 50 0c	 call	 DWORD PTR [eax+12]

; 1382 : 			_Impl = 0;

  00018	83 66 10 00	 and	 DWORD PTR [esi+16], 0
$LN1@Tidy:
  0001c	5e		 pop	 esi

; 1383 : 			}
; 1384 : 		}

  0001d	c3		 ret	 0
?_Tidy@?$_Function_impl1@HUBINDSTRUCT@ioWnd@@@tr1@std@@IAEXXZ ENDP ; std::tr1::_Function_impl1<int,ioWnd::BINDSTRUCT>::_Tidy
_TEXT	ENDS
PUBLIC	??_C@_0CC@OCDAGEF@PopupStoreWnd?3?3OnUpdatePresentWn@ ; `string'
PUBLIC	__$ArrayPad$
PUBLIC	?OnUpdatePresentWnd@PopupStoreWnd@@IAEXXZ	; PopupStoreWnd::OnUpdatePresentWnd
EXTRN	__imp_?SafeSprintf@@YAXPADHPBDH@Z:PROC
EXTRN	__imp_?GetString@ioStringManager@@QAEPADPBD0HW4FileNamePrefix@1@@Z:PROC
EXTRN	__imp_?GetSingleton@ioStringManager@@SAAAV1@XZ:PROC
EXTRN	__imp_??YioHashString@@QAEAAV0@ABV0@@Z:PROC
EXTRN	__imp_??4ioHashString@@QAEAAV0@PBD@Z:PROC
EXTRN	__imp_?ChangeRenderImage@ioButton@@QAEXPAVioUIImage@@@Z:PROC
EXTRN	__imp_?GetImageByFullName@ioUIImageSetManager@@QAEPAVioUIImage@@ABVioHashString@@@Z:PROC
EXTRN	__imp_?GetSingleton@ioUIImageSetManager@@SAAAV1@XZ:PROC
;	COMDAT ??_C@_0CC@OCDAGEF@PopupStoreWnd?3?3OnUpdatePresentWn@
; File d:\lost saga for developer\youtube\tutorial\source\src\lsclient\gui\popupstorewnd.cpp
CONST	SEGMENT
??_C@_0CC@OCDAGEF@PopupStoreWnd?3?3OnUpdatePresentWn@ DB 'PopupStoreWnd::'
	DB	'OnUpdatePresentWnd', 00H			; `string'
; Function compile flags: /Ogsp
CONST	ENDS
;	COMDAT ?OnUpdatePresentWnd@PopupStoreWnd@@IAEXXZ
_TEXT	SEGMENT
_szPrice$ = -264					; size = 260
__$ArrayPad$ = -4					; size = 4
?OnUpdatePresentWnd@PopupStoreWnd@@IAEXXZ PROC		; PopupStoreWnd::OnUpdatePresentWnd, COMDAT
; _this$ = ecx

; 315  : {

  00000	55		 push	 ebp
  00001	8b ec		 mov	 ebp, esp
  00003	81 ec 08 01 00
	00		 sub	 esp, 264		; 00000108H
  00009	a1 00 00 00 00	 mov	 eax, DWORD PTR ___security_cookie
  0000e	33 c5		 xor	 eax, ebp
  00010	89 45 fc	 mov	 DWORD PTR __$ArrayPad$[ebp], eax
  00013	53		 push	 ebx
  00014	56		 push	 esi
  00015	57		 push	 edi
  00016	8b f1		 mov	 esi, ecx

; 316  : 	// 아이템 이미지
; 317  : 	ioButton* pBtn = (ioButton*)m_pWndItem->FindChildWnd( eID_ITEM_IMG );

  00018	8b 8e 7c 01 00
	00		 mov	 ecx, DWORD PTR [esi+380]
  0001e	6a 65		 push	 101			; 00000065H
  00020	ff 15 00 00 00
	00		 call	 DWORD PTR __imp_?FindChildWnd@ioWnd@@QAEPAV1@K@Z
  00026	8b f8		 mov	 edi, eax

; 318  : 	if( pBtn )

  00028	85 ff		 test	 edi, edi
  0002a	74 22		 je	 SHORT $LN2@OnUpdatePr

; 319  : 	{
; 320  : 		ioUIImage* pIcon = g_UIImageSetMgr.GetImageByFullName( m_szIconName );

  0002c	8d 86 cc 02 00
	00		 lea	 eax, DWORD PTR [esi+716]
  00032	50		 push	 eax
  00033	ff 15 00 00 00
	00		 call	 DWORD PTR __imp_?GetSingleton@ioUIImageSetManager@@SAAAV1@XZ
  00039	8b c8		 mov	 ecx, eax
  0003b	ff 15 00 00 00
	00		 call	 DWORD PTR __imp_?GetImageByFullName@ioUIImageSetManager@@QAEPAVioUIImage@@ABVioHashString@@@Z

; 321  : 		if( pIcon )

  00041	85 c0		 test	 eax, eax
  00043	74 09		 je	 SHORT $LN2@OnUpdatePr

; 322  : 			pBtn->ChangeRenderImage( pIcon );

  00045	50		 push	 eax
  00046	8b cf		 mov	 ecx, edi
  00048	ff 15 00 00 00
	00		 call	 DWORD PTR __imp_?ChangeRenderImage@ioButton@@QAEXPAVioUIImage@@@Z
$LN2@OnUpdatePr:

; 323  : 	}
; 324  : 
; 325  : 	// 19,800 골드
; 326  : 	char szPrice[MAX_PATH]={0,};

  0004e	68 03 01 00 00	 push	 259			; 00000103H
  00053	8d 85 f9 fe ff
	ff		 lea	 eax, DWORD PTR _szPrice$[ebp+1]
  00059	6a 00		 push	 0
  0005b	50		 push	 eax
  0005c	c6 85 f8 fe ff
	ff 00		 mov	 BYTE PTR _szPrice$[ebp], 0
  00063	e8 00 00 00 00	 call	 _memset

; 327  : 	Help::ConvertNumToStrComma( m_OnPopupItemInfo.iCash, szPrice, sizeof( szPrice ) );

  00068	bb 04 01 00 00	 mov	 ebx, 260		; 00000104H
  0006d	53		 push	 ebx
  0006e	8d 85 f8 fe ff
	ff		 lea	 eax, DWORD PTR _szPrice$[ebp]
  00074	50		 push	 eax
  00075	ff b6 34 03 00
	00		 push	 DWORD PTR [esi+820]
  0007b	e8 00 00 00 00	 call	 ?ConvertNumToStrComma@Help@@YAXHPADH@Z ; Help::ConvertNumToStrComma

; 328  : 	m_szCashText1 = szPrice;

  00080	8b 3d 00 00 00
	00		 mov	 edi, DWORD PTR __imp_??4ioHashString@@QAEAAV0@PBD@Z
  00086	83 c4 18	 add	 esp, 24			; 00000018H
  00089	8d 85 f8 fe ff
	ff		 lea	 eax, DWORD PTR _szPrice$[ebp]
  0008f	8d 8e dc 02 00
	00		 lea	 ecx, DWORD PTR [esi+732]
  00095	50		 push	 eax
  00096	ff d7		 call	 edi

; 329  : 	m_szCashText1 += m_szGold;

  00098	8d 86 cc 01 00
	00		 lea	 eax, DWORD PTR [esi+460]
  0009e	50		 push	 eax
  0009f	8d 8e dc 02 00
	00		 lea	 ecx, DWORD PTR [esi+732]
  000a5	ff 15 00 00 00
	00		 call	 DWORD PTR __imp_??YioHashString@@QAEAAV0@ABV0@@Z

; 330  : 
; 331  : 	// 할인!!
; 332  : 	if( m_OnPopupItemInfo.iPrevCash > 0 )

  000ab	8b 86 38 03 00
	00		 mov	 eax, DWORD PTR [esi+824]
  000b1	85 c0		 test	 eax, eax
  000b3	7e 76		 jle	 SHORT $LN1@OnUpdatePr

; 333  : 	{
; 334  : 		// 198,00 골드 >> 
; 335  : 		Help::ConvertNumToStrComma( m_OnPopupItemInfo.iPrevCash, szPrice, sizeof( szPrice ) );

  000b5	53		 push	 ebx
  000b6	8d 8d f8 fe ff
	ff		 lea	 ecx, DWORD PTR _szPrice$[ebp]
  000bc	51		 push	 ecx
  000bd	50		 push	 eax
  000be	e8 00 00 00 00	 call	 ?ConvertNumToStrComma@Help@@YAXHPADH@Z ; Help::ConvertNumToStrComma
  000c3	83 c4 0c	 add	 esp, 12			; 0000000cH

; 336  : 		m_szCashText2 = szPrice;

  000c6	8d 85 f8 fe ff
	ff		 lea	 eax, DWORD PTR _szPrice$[ebp]
  000cc	8d 8e ec 02 00
	00		 lea	 ecx, DWORD PTR [esi+748]
  000d2	50		 push	 eax
  000d3	ff d7		 call	 edi

; 337  : 		m_szCashText2 += m_szGold;

  000d5	8d 86 cc 01 00
	00		 lea	 eax, DWORD PTR [esi+460]
  000db	50		 push	 eax
  000dc	8d 8e ec 02 00
	00		 lea	 ecx, DWORD PTR [esi+748]
  000e2	ff 15 00 00 00
	00		 call	 DWORD PTR __imp_??YioHashString@@QAEAAV0@ABV0@@Z

; 338  : 
; 339  : 		//(50%off)
; 340  : #ifdef USE_LIST_ARQUMENTS_TEXT_FUNCTION
; 341  : 		SafeSprintf( szPrice, sizeof(szPrice), STR(1), m_OnPopupItemInfo.iDisCount );

  000e8	ff b6 3c 03 00
	00		 push	 DWORD PTR [esi+828]
  000ee	6a 00		 push	 0
  000f0	6a 01		 push	 1
  000f2	68 00 00 00 00	 push	 OFFSET ??_C@_00CNPNBAHC@?$AA@
  000f7	68 00 00 00 00	 push	 OFFSET ??_C@_0CC@OCDAGEF@PopupStoreWnd?3?3OnUpdatePresentWn@
  000fc	ff 15 00 00 00
	00		 call	 DWORD PTR __imp_?GetSingleton@ioStringManager@@SAAAV1@XZ
  00102	8b c8		 mov	 ecx, eax
  00104	ff 15 00 00 00
	00		 call	 DWORD PTR __imp_?GetString@ioStringManager@@QAEPADPBD0HW4FileNamePrefix@1@@Z
  0010a	50		 push	 eax
  0010b	8d 85 f8 fe ff
	ff		 lea	 eax, DWORD PTR _szPrice$[ebp]
  00111	53		 push	 ebx
  00112	50		 push	 eax
  00113	ff 15 00 00 00
	00		 call	 DWORD PTR __imp_?SafeSprintf@@YAXPADHPBDH@Z
  00119	83 c4 10	 add	 esp, 16			; 00000010H

; 342  : #else
; 343  : 		sprintf_e( szPrice, "(%d%%off)", m_OnPopupItemInfo.iDisCount );
; 344  : #endif
; 345  : 		
; 346  : 		m_szCashText3 = szPrice;

  0011c	8d 85 f8 fe ff
	ff		 lea	 eax, DWORD PTR _szPrice$[ebp]
  00122	50		 push	 eax
  00123	8d 8e fc 02 00
	00		 lea	 ecx, DWORD PTR [esi+764]
  00129	ff d7		 call	 edi
$LN1@OnUpdatePr:

; 347  : 	}
; 348  : 
; 349  : 	OnUpdateGoldWindow();

  0012b	8b ce		 mov	 ecx, esi
  0012d	e8 00 00 00 00	 call	 ?OnUpdateGoldWindow@PopupStoreWnd@@IAEXXZ ; PopupStoreWnd::OnUpdateGoldWindow

; 350  : 	OnPage1();

  00132	8b ce		 mov	 ecx, esi
  00134	e8 00 00 00 00	 call	 ?OnPage1@PopupStoreWnd@@QAEXXZ ; PopupStoreWnd::OnPage1

; 351  : }

  00139	8b 4d fc	 mov	 ecx, DWORD PTR __$ArrayPad$[ebp]
  0013c	5f		 pop	 edi
  0013d	5e		 pop	 esi
  0013e	33 cd		 xor	 ecx, ebp
  00140	5b		 pop	 ebx
  00141	e8 00 00 00 00	 call	 @__security_check_cookie@4
  00146	c9		 leave
  00147	c3		 ret	 0
?OnUpdatePresentWnd@PopupStoreWnd@@IAEXXZ ENDP		; PopupStoreWnd::OnUpdatePresentWnd
_TEXT	ENDS
PUBLIC	??0?$vector@UsPopupItemInfo@PopupStoreWnd@@V?$allocator@UsPopupItemInfo@PopupStoreWnd@@@std@@@std@@QAE@XZ ; std::vector<PopupStoreWnd::sPopupItemInfo,std::allocator<PopupStoreWnd::sPopupItemInfo> >::vector<PopupStoreWnd::sPopupItemInfo,std::allocator<PopupStoreWnd::sPopupItemInfo> >
; Function compile flags: /Ogsp
; File c:\program files (x86)\microsoft visual studio 10.0\vc\include\vector
;	COMDAT ??0?$vector@UsPopupItemInfo@PopupStoreWnd@@V?$allocator@UsPopupItemInfo@PopupStoreWnd@@@std@@@std@@QAE@XZ
_TEXT	SEGMENT
??0?$vector@UsPopupItemInfo@PopupStoreWnd@@V?$allocator@UsPopupItemInfo@PopupStoreWnd@@@std@@@std@@QAE@XZ PROC ; std::vector<PopupStoreWnd::sPopupItemInfo,std::allocator<PopupStoreWnd::sPopupItemInfo> >::vector<PopupStoreWnd::sPopupItemInfo,std::allocator<PopupStoreWnd::sPopupItemInfo> >, COMDAT
; _this$ = ecx

; 507  : 		{	// construct empty vector

  00000	8b c1		 mov	 eax, ecx
  00002	33 c9		 xor	 ecx, ecx
  00004	89 08		 mov	 DWORD PTR [eax], ecx
  00006	89 48 04	 mov	 DWORD PTR [eax+4], ecx
  00009	89 48 08	 mov	 DWORD PTR [eax+8], ecx

; 508  : 		}

  0000c	c3		 ret	 0
