; Listing generated by Microsoft (R) Optimizing Compiler Version 16.00.30319.01 

	TITLE	D:\Lost Saga For Developer\Youtube\Tutorial\Source\src\LSClient\QuestVariety.cpp
	.686P
	.XMM
	include listing.inc
	.model	flat

INCLUDELIB MSVCRT
INCLUDELIB OLDNAMES

PUBLIC	?_EEM_DS@?$deque@UD3DXVECTOR3@@V?$allocator@UD3DXVECTOR3@@@std@@@std@@2HB ; std::deque<D3DXVECTOR3,std::allocator<D3DXVECTOR3> >::_EEM_DS
;	COMDAT ?_EEM_DS@?$deque@UD3DXVECTOR3@@V?$allocator@UD3DXVECTOR3@@@std@@@std@@2HB
CONST	SEGMENT
?_EEM_DS@?$deque@UD3DXVECTOR3@@V?$allocator@UD3DXVECTOR3@@@std@@@std@@2HB DD 01H ; std::deque<D3DXVECTOR3,std::allocator<D3DXVECTOR3> >::_EEM_DS
CONST	ENDS
PUBLIC	?return1@@YAIXZ					; return1
; Function compile flags: /Ogsp
; File d:\lost saga for developer\youtube\tutorial\source\src\lsclient\stdafx.h
;	COMDAT ?return1@@YAIXZ
_TEXT	SEGMENT
?return1@@YAIXZ PROC					; return1, COMDAT

; 17   : 	__forceinline unsigned int return1() { __asm mov eax, 1 };

  00000	b8 01 00 00 00	 mov	 eax, 1
  00005	c3		 ret	 0
?return1@@YAIXZ ENDP					; return1
_TEXT	ENDS
PUBLIC	?return100@@YAIXZ				; return100
; Function compile flags: /Ogsp
;	COMDAT ?return100@@YAIXZ
_TEXT	SEGMENT
?return100@@YAIXZ PROC					; return100, COMDAT

; 25   : 	__forceinline unsigned int return100() { __asm mov eax, 100 };

  00000	b8 64 00 00 00	 mov	 eax, 100		; 00000064H
  00005	c3		 ret	 0
?return100@@YAIXZ ENDP					; return100
_TEXT	ENDS
EXTRN	__imp___difftime64:PROC
EXTRN	__fltused:DWORD
; Function compile flags: /Ogsp
; File c:\program files (x86)\microsoft visual studio 10.0\vc\include\time.inl
;	COMDAT _difftime
_TEXT	SEGMENT
__Time1$ = 8						; size = 8
__Time2$ = 16						; size = 8
_difftime PROC						; COMDAT

; 83   : {

  00000	55		 push	 ebp
  00001	8b ec		 mov	 ebp, esp

; 84   :     return _difftime64(_Time1,_Time2);

  00003	ff 75 14	 push	 DWORD PTR __Time2$[ebp+4]
  00006	ff 75 10	 push	 DWORD PTR __Time2$[ebp]
  00009	ff 75 0c	 push	 DWORD PTR __Time1$[ebp+4]
  0000c	ff 75 08	 push	 DWORD PTR __Time1$[ebp]
  0000f	ff 15 00 00 00
	00		 call	 DWORD PTR __imp___difftime64
  00015	83 c4 10	 add	 esp, 16			; 00000010H

; 85   : }

  00018	5d		 pop	 ebp
  00019	c3		 ret	 0
_difftime ENDP
_TEXT	ENDS
EXTRN	__imp___localtime64:PROC
; Function compile flags: /Ogsp
;	COMDAT _localtime
_TEXT	SEGMENT
__Time$ = 8						; size = 4
_localtime PROC						; COMDAT

; 113  : {

  00000	55		 push	 ebp
  00001	8b ec		 mov	 ebp, esp

; 117  : #pragma warning( pop )
; 118  : }

  00003	5d		 pop	 ebp

; 114  : #pragma warning( push )
; 115  : #pragma warning( disable : 4996 )
; 116  :     return _localtime64(_Time);

  00004	ff 25 00 00 00
	00		 jmp	 DWORD PTR __imp___localtime64
_localtime ENDP
_TEXT	ENDS
PUBLIC	?IsBoss@ioBaseChar@@QAE_NXZ			; ioBaseChar::IsBoss
; Function compile flags: /Ogsp
; File d:\lost saga for developer\youtube\tutorial\source\src\lsclient\iobasechar.h
;	COMDAT ?IsBoss@ioBaseChar@@QAE_NXZ
_TEXT	SEGMENT
?IsBoss@ioBaseChar@@QAE_NXZ PROC			; ioBaseChar::IsBoss, COMDAT
; _this$ = ecx

; 1497 : 	bool IsBoss(){ return m_bBossCharacter; }

  00000	8a 81 e0 23 00
	00		 mov	 al, BYTE PTR [ecx+9184]
  00006	c3		 ret	 0
?IsBoss@ioBaseChar@@QAE_NXZ ENDP			; ioBaseChar::IsBoss
_TEXT	ENDS
PUBLIC	??_7bad_alloc@std@@6B@				; std::bad_alloc::`vftable'
PUBLIC	??0bad_alloc@std@@QAE@PBD@Z			; std::bad_alloc::bad_alloc
PUBLIC	??_R4bad_alloc@std@@6B@				; std::bad_alloc::`RTTI Complete Object Locator'
PUBLIC	??_R0?AVbad_alloc@std@@@8			; std::bad_alloc `RTTI Type Descriptor'
PUBLIC	??_R3bad_alloc@std@@8				; std::bad_alloc::`RTTI Class Hierarchy Descriptor'
PUBLIC	??_R2bad_alloc@std@@8				; std::bad_alloc::`RTTI Base Class Array'
PUBLIC	??_R1A@?0A@EA@bad_alloc@std@@8			; std::bad_alloc::`RTTI Base Class Descriptor at (0,-1,0,64)'
PUBLIC	??_R1A@?0A@EA@exception@std@@8			; std::exception::`RTTI Base Class Descriptor at (0,-1,0,64)'
PUBLIC	??_R0?AVexception@std@@@8			; std::exception `RTTI Type Descriptor'
PUBLIC	??_R3exception@std@@8				; std::exception::`RTTI Class Hierarchy Descriptor'
PUBLIC	??_R2exception@std@@8				; std::exception::`RTTI Base Class Array'
EXTRN	__imp_??0exception@std@@QAE@ABQBD@Z:PROC
EXTRN	??_7type_info@@6B@:QWORD			; type_info::`vftable'
EXTRN	??_Ebad_alloc@std@@UAEPAXI@Z:PROC		; std::bad_alloc::`vector deleting destructor'
EXTRN	?what@exception@std@@UBEPBDXZ:PROC		; std::exception::what
;	COMDAT ??_R2exception@std@@8
; File c:\program files (x86)\microsoft visual studio 10.0\vc\include\exception
rdata$r	SEGMENT
??_R2exception@std@@8 DD FLAT:??_R1A@?0A@EA@exception@std@@8 ; std::exception::`RTTI Base Class Array'
rdata$r	ENDS
;	COMDAT ??_R3exception@std@@8
rdata$r	SEGMENT
??_R3exception@std@@8 DD 00H				; std::exception::`RTTI Class Hierarchy Descriptor'
	DD	00H
	DD	01H
	DD	FLAT:??_R2exception@std@@8
rdata$r	ENDS
;	COMDAT ??_R0?AVexception@std@@@8
_DATA	SEGMENT
??_R0?AVexception@std@@@8 DD FLAT:??_7type_info@@6B@	; std::exception `RTTI Type Descriptor'
	DD	00H
	DB	'.?AVexception@std@@', 00H
_DATA	ENDS
;	COMDAT ??_R1A@?0A@EA@exception@std@@8
rdata$r	SEGMENT
??_R1A@?0A@EA@exception@std@@8 DD FLAT:??_R0?AVexception@std@@@8 ; std::exception::`RTTI Base Class Descriptor at (0,-1,0,64)'
	DD	00H
	DD	00H
	DD	0ffffffffH
	DD	00H
	DD	040H
	DD	FLAT:??_R3exception@std@@8
rdata$r	ENDS
;	COMDAT ??_R1A@?0A@EA@bad_alloc@std@@8
rdata$r	SEGMENT
??_R1A@?0A@EA@bad_alloc@std@@8 DD FLAT:??_R0?AVbad_alloc@std@@@8 ; std::bad_alloc::`RTTI Base Class Descriptor at (0,-1,0,64)'
	DD	01H
	DD	00H
	DD	0ffffffffH
	DD	00H
	DD	040H
	DD	FLAT:??_R3bad_alloc@std@@8
rdata$r	ENDS
;	COMDAT ??_R2bad_alloc@std@@8
rdata$r	SEGMENT
??_R2bad_alloc@std@@8 DD FLAT:??_R1A@?0A@EA@bad_alloc@std@@8 ; std::bad_alloc::`RTTI Base Class Array'
	DD	FLAT:??_R1A@?0A@EA@exception@std@@8
rdata$r	ENDS
;	COMDAT ??_R3bad_alloc@std@@8
rdata$r	SEGMENT
??_R3bad_alloc@std@@8 DD 00H				; std::bad_alloc::`RTTI Class Hierarchy Descriptor'
	DD	00H
	DD	02H
	DD	FLAT:??_R2bad_alloc@std@@8
rdata$r	ENDS
;	COMDAT ??_R0?AVbad_alloc@std@@@8
_DATA	SEGMENT
??_R0?AVbad_alloc@std@@@8 DD FLAT:??_7type_info@@6B@	; std::bad_alloc `RTTI Type Descriptor'
	DD	00H
	DB	'.?AVbad_alloc@std@@', 00H
_DATA	ENDS
;	COMDAT ??_R4bad_alloc@std@@6B@
rdata$r	SEGMENT
??_R4bad_alloc@std@@6B@ DD 00H				; std::bad_alloc::`RTTI Complete Object Locator'
	DD	00H
	DD	00H
	DD	FLAT:??_R0?AVbad_alloc@std@@@8
	DD	FLAT:??_R3bad_alloc@std@@8
rdata$r	ENDS
;	COMDAT ??_7bad_alloc@std@@6B@
CONST	SEGMENT
??_7bad_alloc@std@@6B@ DD FLAT:??_R4bad_alloc@std@@6B@	; std::bad_alloc::`vftable'
	DD	FLAT:??_Ebad_alloc@std@@UAEPAXI@Z
	DD	FLAT:?what@exception@std@@UBEPBDXZ
; Function compile flags: /Ogsp
CONST	ENDS
;	COMDAT ??0bad_alloc@std@@QAE@PBD@Z
_TEXT	SEGMENT
__Message$ = 8						; size = 4
??0bad_alloc@std@@QAE@PBD@Z PROC			; std::bad_alloc::bad_alloc, COMDAT
; _this$ = ecx

; 345  : 		{	// construct from message string

  00000	55		 push	 ebp
  00001	8b ec		 mov	 ebp, esp
  00003	56		 push	 esi
  00004	8d 45 08	 lea	 eax, DWORD PTR __Message$[ebp]
  00007	50		 push	 eax
  00008	8b f1		 mov	 esi, ecx
  0000a	ff 15 00 00 00
	00		 call	 DWORD PTR __imp_??0exception@std@@QAE@ABQBD@Z
  00010	c7 06 00 00 00
	00		 mov	 DWORD PTR [esi], OFFSET ??_7bad_alloc@std@@6B@

; 346  : 		}

  00016	8b c6		 mov	 eax, esi
  00018	5e		 pop	 esi
  00019	5d		 pop	 ebp
  0001a	c2 04 00	 ret	 4
??0bad_alloc@std@@QAE@PBD@Z ENDP			; std::bad_alloc::bad_alloc
_TEXT	ENDS
PUBLIC	??1bad_alloc@std@@UAE@XZ			; std::bad_alloc::~bad_alloc
EXTRN	__imp_??1exception@std@@UAE@XZ:PROC
; Function compile flags: /Ogsp
;	COMDAT ??1bad_alloc@std@@UAE@XZ
_TEXT	SEGMENT
??1bad_alloc@std@@UAE@XZ PROC				; std::bad_alloc::~bad_alloc, COMDAT
; _this$ = ecx

; 354  : 		{	// destroy the object

  00000	c7 01 00 00 00
	00		 mov	 DWORD PTR [ecx], OFFSET ??_7bad_alloc@std@@6B@

; 355  : 		}

  00006	ff 25 00 00 00
	00		 jmp	 DWORD PTR __imp_??1exception@std@@UAE@XZ
??1bad_alloc@std@@UAE@XZ ENDP				; std::bad_alloc::~bad_alloc
_TEXT	ENDS
EXTRN	??3@YAXPAX@Z:PROC				; operator delete
; Function compile flags: /Ogsp
;	COMDAT ??_Gbad_alloc@std@@UAEPAXI@Z
_TEXT	SEGMENT
___flags$ = 8						; size = 4
??_Gbad_alloc@std@@UAEPAXI@Z PROC			; std::bad_alloc::`scalar deleting destructor', COMDAT
; _this$ = ecx
  00000	55		 push	 ebp
  00001	8b ec		 mov	 ebp, esp
  00003	56		 push	 esi
  00004	8b f1		 mov	 esi, ecx
  00006	c7 06 00 00 00
	00		 mov	 DWORD PTR [esi], OFFSET ??_7bad_alloc@std@@6B@
  0000c	ff 15 00 00 00
	00		 call	 DWORD PTR __imp_??1exception@std@@UAE@XZ
  00012	f6 45 08 01	 test	 BYTE PTR ___flags$[ebp], 1
  00016	74 07		 je	 SHORT $LN1@scalar
  00018	56		 push	 esi
  00019	e8 00 00 00 00	 call	 ??3@YAXPAX@Z		; operator delete
  0001e	59		 pop	 ecx
$LN1@scalar:
  0001f	8b c6		 mov	 eax, esi
  00021	5e		 pop	 esi
  00022	5d		 pop	 ebp
  00023	c2 04 00	 ret	 4
??_Gbad_alloc@std@@UAEPAXI@Z ENDP			; std::bad_alloc::`scalar deleting destructor'
_TEXT	ENDS
PUBLIC	?GetState@ioBaseChar@@QBE?AW4CharState@@XZ	; ioBaseChar::GetState
; Function compile flags: /Ogsp
; File d:\lost saga for developer\youtube\tutorial\source\src\lsclient\iobasechar.h
;	COMDAT ?GetState@ioBaseChar@@QBE?AW4CharState@@XZ
_TEXT	SEGMENT
?GetState@ioBaseChar@@QBE?AW4CharState@@XZ PROC		; ioBaseChar::GetState, COMDAT
; _this$ = ecx

; 2156 : 	inline CharState GetState() const { return m_CharState; }	

  00000	8a 81 10 03 00
	00		 mov	 al, BYTE PTR [ecx+784]
  00006	c3		 ret	 0
?GetState@ioBaseChar@@QBE?AW4CharState@@XZ ENDP		; ioBaseChar::GetState
_TEXT	ENDS
PUBLIC	??2@YAPAXIPAX@Z					; operator new
; Function compile flags: /Ogsp
; File c:\program files (x86)\microsoft visual studio 10.0\vc\include\new
;	COMDAT ??2@YAPAXIPAX@Z
_TEXT	SEGMENT
___formal$ = 8						; size = 4
__Where$ = 12						; size = 4
??2@YAPAXIPAX@Z PROC					; operator new, COMDAT

; 56   : 	{	// construct array with placement at _Where

  00000	55		 push	 ebp
  00001	8b ec		 mov	 ebp, esp

; 57   : 	return (_Where);

  00003	8b 45 0c	 mov	 eax, DWORD PTR __Where$[ebp]

; 58   : 	}

  00006	5d		 pop	 ebp
  00007	c3		 ret	 0
??2@YAPAXIPAX@Z ENDP					; operator new
_TEXT	ENDS
PUBLIC	??3@YAXPAX0@Z					; operator delete
; Function compile flags: /Ogsp
;	COMDAT ??3@YAXPAX0@Z
_TEXT	SEGMENT
___formal$ = 8						; size = 4
___formal$ = 12						; size = 4
??3@YAXPAX0@Z PROC					; operator delete, COMDAT

; 62   : 	}

  00000	c3		 ret	 0
??3@YAXPAX0@Z ENDP					; operator delete
_TEXT	ENDS
PUBLIC	?GetCharacterInfo@ioBaseChar@@QBEABUCHARACTER@@XZ ; ioBaseChar::GetCharacterInfo
; Function compile flags: /Ogsp
; File d:\lost saga for developer\youtube\tutorial\source\src\lsclient\iobasechar.h
;	COMDAT ?GetCharacterInfo@ioBaseChar@@QBEABUCHARACTER@@XZ
_TEXT	SEGMENT
?GetCharacterInfo@ioBaseChar@@QBEABUCHARACTER@@XZ PROC	; ioBaseChar::GetCharacterInfo, COMDAT
; _this$ = ecx

; 2777 : 	inline const CHARACTER& GetCharacterInfo() const { return m_CharInfo; }

  00000	8d 81 58 03 00
	00		 lea	 eax, DWORD PTR [ecx+856]
  00006	c3		 ret	 0
?GetCharacterInfo@ioBaseChar@@QBEABUCHARACTER@@XZ ENDP	; ioBaseChar::GetCharacterInfo
_TEXT	ENDS
PUBLIC	?_Adopt@_Iterator_base0@std@@QAEXPBX@Z		; std::_Iterator_base0::_Adopt
; Function compile flags: /Ogsp
; File c:\program files (x86)\microsoft visual studio 10.0\vc\include\xutility
;	COMDAT ?_Adopt@_Iterator_base0@std@@QAEXPBX@Z
_TEXT	SEGMENT
___formal$ = 8						; size = 4
?_Adopt@_Iterator_base0@std@@QAEXPBX@Z PROC		; std::_Iterator_base0::_Adopt, COMDAT
; _this$ = ecx

; 49   : 		}

  00000	c2 04 00	 ret	 4
?_Adopt@_Iterator_base0@std@@QAEXPBX@Z ENDP		; std::_Iterator_base0::_Adopt
_TEXT	ENDS
PUBLIC	?IsHeroMatchMode@ioLadderTeamMgr@@QAE_NXZ	; ioLadderTeamMgr::IsHeroMatchMode
; Function compile flags: /Ogsp
; File d:\lost saga for developer\youtube\tutorial\source\src\lsclient\ioladderteammgr.h
;	COMDAT ?IsHeroMatchMode@ioLadderTeamMgr@@QAE_NXZ
_TEXT	SEGMENT
?IsHeroMatchMode@ioLadderTeamMgr@@QAE_NXZ PROC		; ioLadderTeamMgr::IsHeroMatchMode, COMDAT
; _this$ = ecx

; 274  : 	bool IsHeroMatchMode(){ return m_bHeroMatchMode; }

  00000	8a 81 be 04 00
	00		 mov	 al, BYTE PTR [ecx+1214]
  00006	c3		 ret	 0
?IsHeroMatchMode@ioLadderTeamMgr@@QAE_NXZ ENDP		; ioLadderTeamMgr::IsHeroMatchMode
_TEXT	ENDS
PUBLIC	?IsGuildTeam@ioLadderTeamMgr@@QAE?B_NXZ		; ioLadderTeamMgr::IsGuildTeam
; Function compile flags: /Ogsp
;	COMDAT ?IsGuildTeam@ioLadderTeamMgr@@QAE?B_NXZ
_TEXT	SEGMENT
?IsGuildTeam@ioLadderTeamMgr@@QAE?B_NXZ PROC		; ioLadderTeamMgr::IsGuildTeam, COMDAT
; _this$ = ecx

; 324  : 	const bool IsGuildTeam(){ return ( m_LadderTeam.m_dwGuildIndex != 0 ); }

  00000	83 79 0c 00	 cmp	 DWORD PTR [ecx+12], 0
  00004	0f 95 c0	 setne	 al
  00007	c3		 ret	 0
?IsGuildTeam@ioLadderTeamMgr@@QAE?B_NXZ ENDP		; ioLadderTeamMgr::IsGuildTeam
_TEXT	ENDS
PUBLIC	__real@4f800000
PUBLIC	?GetQuestIcon@QuestParent@@QAEPAVioUIRenderImage@@XZ ; QuestParent::GetQuestIcon
;	COMDAT __real@4f800000
; File d:\lost saga for developer\youtube\tutorial\source\src\lsclient\stdafx.h
CONST	SEGMENT
__real@4f800000 DD 04f800000r			; 4.29497e+009
; Function compile flags: /Ogsp
; File d:\lost saga for developer\youtube\tutorial\source\src\lsclient\questvariety.cpp
CONST	ENDS
;	COMDAT ?GetQuestIcon@QuestParent@@QAEPAVioUIRenderImage@@XZ
_TEXT	SEGMENT
tv143 = -4						; size = 4
?GetQuestIcon@QuestParent@@QAEPAVioUIRenderImage@@XZ PROC ; QuestParent::GetQuestIcon, COMDAT
; _this$ = ecx

; 353  : {

  00000	55		 push	 ebp
  00001	8b ec		 mov	 ebp, esp
  00003	51		 push	 ecx
  00004	56		 push	 esi
  00005	8b f1		 mov	 esi, ecx

; 354  : 	if( !m_pIcon ) return NULL;

  00007	83 be 90 00 00
	00 00		 cmp	 DWORD PTR [esi+144], 0
  0000e	75 04		 jne	 SHORT $LN1@GetQuestIc
  00010	33 c0		 xor	 eax, eax
  00012	eb 3a		 jmp	 SHORT $LN2@GetQuestIc
$LN1@GetQuestIc:

; 355  : 
; 356  : 	m_pIcon->SetScale( FLOAT1 );

  00014	b8 01 00 00 00	 mov	 eax, 1
  00019	8b 8e 90 00 00
	00		 mov	 ecx, DWORD PTR [esi+144]
  0001f	8b 11		 mov	 edx, DWORD PTR [ecx]
  00021	89 45 fc	 mov	 DWORD PTR tv143[ebp], eax
  00024	db 45 fc	 fild	 DWORD PTR tv143[ebp]
  00027	85 c0		 test	 eax, eax
  00029	79 06		 jns	 SHORT $LN6@GetQuestIc
  0002b	d8 05 00 00 00
	00		 fadd	 DWORD PTR __real@4f800000
$LN6@GetQuestIc:
  00031	51		 push	 ecx
  00032	d9 1c 24	 fstp	 DWORD PTR [esp]
  00035	ff 52 1c	 call	 DWORD PTR [edx+28]

; 357  : 	m_pIcon->SetAlpha( MAX_ALPHA_RATE );

  00038	8b 8e 90 00 00
	00		 mov	 ecx, DWORD PTR [esi+144]
  0003e	8b 01		 mov	 eax, DWORD PTR [ecx]
  00040	68 ff 00 00 00	 push	 255			; 000000ffH
  00045	ff 50 30	 call	 DWORD PTR [eax+48]

; 358  : 	return m_pIcon;

  00048	8b 86 90 00 00
	00		 mov	 eax, DWORD PTR [esi+144]
$LN2@GetQuestIc:
  0004e	5e		 pop	 esi

; 359  : }

  0004f	c9		 leave
  00050	c3		 ret	 0
?GetQuestIcon@QuestParent@@QAEPAVioUIRenderImage@@XZ ENDP ; QuestParent::GetQuestIcon
_TEXT	ENDS
PUBLIC	__real@00000000
PUBLIC	?GetProgressGaugeRate@QuestParent@@UAEMXZ	; QuestParent::GetProgressGaugeRate
EXTRN	?GetCurrentData@QuestData@@QAEKXZ:PROC		; QuestData::GetCurrentData
EXTRN	__imp_?IsEmpty@ioHashString@@QBE_NXZ:PROC
EXTRN	?GetState@QuestData@@QAEKXZ:PROC		; QuestData::GetState
EXTRN	?GetMainIndex@QuestDataParent@@QAEKXZ:PROC	; QuestDataParent::GetMainIndex
;	COMDAT __real@00000000
; File d:\lost saga for developer\youtube\tutorial\source\src\lsclient\stdafx.h
CONST	SEGMENT
__real@00000000 DD 000000000r			; 0
; Function compile flags: /Ogsp
; File d:\lost saga for developer\youtube\tutorial\source\src\lsclient\questvariety.cpp
CONST	ENDS
;	COMDAT ?GetProgressGaugeRate@QuestParent@@UAEMXZ
_TEXT	SEGMENT
tv134 = -12						; size = 8
tv168 = -4						; size = 4
tv143 = -4						; size = 4
tv139 = -4						; size = 4
tv129 = -4						; size = 4
?GetProgressGaugeRate@QuestParent@@UAEMXZ PROC		; QuestParent::GetProgressGaugeRate, COMDAT
; _this$ = ecx

; 362  : {

  00000	55		 push	 ebp
  00001	8b ec		 mov	 ebp, esp
  00003	83 ec 0c	 sub	 esp, 12			; 0000000cH
  00006	56		 push	 esi
  00007	8b f1		 mov	 esi, ecx

; 363  : 	QuestData &rkData = GetMyInfoQuestData();

  00009	8b 06		 mov	 eax, DWORD PTR [esi]
  0000b	57		 push	 edi
  0000c	ff 50 28	 call	 DWORD PTR [eax+40]
  0000f	8b f8		 mov	 edi, eax

; 364  : 	if( rkData.GetMainIndex() == 0 ) return 0.0f;

  00011	8b cf		 mov	 ecx, edi
  00013	e8 00 00 00 00	 call	 ?GetMainIndex@QuestDataParent@@QAEKXZ ; QuestDataParent::GetMainIndex
  00018	85 c0		 test	 eax, eax
  0001a	75 04		 jne	 SHORT $LN4@GetProgres
$LN11@GetProgres:
  0001c	d9 ee		 fldz
  0001e	eb 6f		 jmp	 SHORT $LN5@GetProgres
$LN4@GetProgres:

; 365  : 	if( rkData.GetState() != QS_PROGRESS ) return FLOAT1;

  00020	8b cf		 mov	 ecx, edi
  00022	e8 00 00 00 00	 call	 ?GetState@QuestData@@QAEKXZ ; QuestData::GetState
  00027	85 c0		 test	 eax, eax
  00029	74 17		 je	 SHORT $LN3@GetProgres
  0002b	b8 01 00 00 00	 mov	 eax, 1
  00030	89 45 fc	 mov	 DWORD PTR tv168[ebp], eax
  00033	db 45 fc	 fild	 DWORD PTR tv168[ebp]
  00036	85 c0		 test	 eax, eax
  00038	79 55		 jns	 SHORT $LN5@GetProgres
  0003a	d8 05 00 00 00
	00		 fadd	 DWORD PTR __real@4f800000
  00040	eb 4d		 jmp	 SHORT $LN5@GetProgres
$LN3@GetProgres:

; 366  : 	if( GetProgressCount() <= 0 ) return 0.0f;

  00042	8b 06		 mov	 eax, DWORD PTR [esi]
  00044	8b ce		 mov	 ecx, esi
  00046	ff 50 0c	 call	 DWORD PTR [eax+12]
  00049	85 c0		 test	 eax, eax
  0004b	7e cf		 jle	 SHORT $LN11@GetProgres

; 367  : 	if( GetProgressResult().IsEmpty() ) return 0.0f;

  0004d	8b 06		 mov	 eax, DWORD PTR [esi]
  0004f	8b ce		 mov	 ecx, esi
  00051	ff 10		 call	 DWORD PTR [eax]
  00053	8b c8		 mov	 ecx, eax
  00055	ff 15 00 00 00
	00		 call	 DWORD PTR __imp_?IsEmpty@ioHashString@@QBE_NXZ
  0005b	84 c0		 test	 al, al
  0005d	75 bd		 jne	 SHORT $LN11@GetProgres

; 368  : 
; 369  : 	return (float)rkData.GetCurrentData() / (float)GetProgressCount();

  0005f	8b cf		 mov	 ecx, edi
  00061	e8 00 00 00 00	 call	 ?GetCurrentData@QuestData@@QAEKXZ ; QuestData::GetCurrentData
  00066	89 45 fc	 mov	 DWORD PTR tv129[ebp], eax
  00069	db 45 fc	 fild	 DWORD PTR tv129[ebp]
  0006c	85 c0		 test	 eax, eax
  0006e	79 06		 jns	 SHORT $LN10@GetProgres
  00070	d8 05 00 00 00
	00		 fadd	 DWORD PTR __real@4f800000
$LN10@GetProgres:
  00076	8b 06		 mov	 eax, DWORD PTR [esi]
  00078	dd 5d f4	 fstp	 QWORD PTR tv134[ebp]
  0007b	8b ce		 mov	 ecx, esi
  0007d	ff 50 0c	 call	 DWORD PTR [eax+12]
  00080	89 45 fc	 mov	 DWORD PTR tv139[ebp], eax
  00083	db 45 fc	 fild	 DWORD PTR tv139[ebp]
  00086	dc 7d f4	 fdivr	 QWORD PTR tv134[ebp]
  00089	d9 5d fc	 fstp	 DWORD PTR tv143[ebp]
  0008c	d9 45 fc	 fld	 DWORD PTR tv143[ebp]
$LN5@GetProgres:
  0008f	5f		 pop	 edi
  00090	5e		 pop	 esi

; 370  : }

  00091	c9		 leave
  00092	c3		 ret	 0
?GetProgressGaugeRate@QuestParent@@UAEMXZ ENDP		; QuestParent::GetProgressGaugeRate
_TEXT	ENDS
PUBLIC	?GetRenderImageStartHeight@QuestParent@@QAEHPAVioUIRenderImage@@HM@Z ; QuestParent::GetRenderImageStartHeight
EXTRN	__imp_?GetHeight@ioUIRenderElement@@QBEHXZ:PROC
EXTRN	__imp_?GetOffsetY@ioUIRenderImage@@QBEHXZ:PROC
; Function compile flags: /Ogsp
;	COMDAT ?GetRenderImageStartHeight@QuestParent@@QAEHPAVioUIRenderImage@@HM@Z
_TEXT	SEGMENT
tv172 = -4						; size = 4
_pImage$ = 8						; size = 4
_iSrcHeight$ = 12					; size = 4
tv163 = 16						; size = 4
_fGapRate$ = 16						; size = 4
?GetRenderImageStartHeight@QuestParent@@QAEHPAVioUIRenderImage@@HM@Z PROC ; QuestParent::GetRenderImageStartHeight, COMDAT
; _this$ = ecx

; 373  : {

  00000	55		 push	 ebp
  00001	8b ec		 mov	 ebp, esp
  00003	51		 push	 ecx

; 374  : 	if( !pImage )	return 0;

  00004	83 7d 08 00	 cmp	 DWORD PTR _pImage$[ebp], 0
  00008	75 07		 jne	 SHORT $LN1@GetRenderI
  0000a	33 c0		 xor	 eax, eax
  0000c	e9 94 00 00 00	 jmp	 $LN2@GetRenderI
$LN1@GetRenderI:

; 375  : 
; 376  : 	fGapRate = min( FLOAT1, fGapRate );

  00011	b8 01 00 00 00	 mov	 eax, 1
  00016	89 45 fc	 mov	 DWORD PTR tv172[ebp], eax
  00019	db 45 fc	 fild	 DWORD PTR tv172[ebp]
  0001c	85 c0		 test	 eax, eax
  0001e	79 06		 jns	 SHORT $LN10@GetRenderI
  00020	d8 05 00 00 00
	00		 fadd	 DWORD PTR __real@4f800000
$LN10@GetRenderI:
  00026	d9 45 10	 fld	 DWORD PTR _fGapRate$[ebp]
  00029	df f1		 fcomip	 ST(1)
  0002b	dd d8		 fstp	 ST(0)
  0002d	76 18		 jbe	 SHORT $LN4@GetRenderI
  0002f	b8 01 00 00 00	 mov	 eax, 1
  00034	89 45 10	 mov	 DWORD PTR tv163[ebp], eax
  00037	db 45 10	 fild	 DWORD PTR tv163[ebp]
  0003a	85 c0		 test	 eax, eax
  0003c	79 06		 jns	 SHORT $LN11@GetRenderI
  0003e	d8 05 00 00 00
	00		 fadd	 DWORD PTR __real@4f800000
$LN11@GetRenderI:
  00044	d9 5d 10	 fstp	 DWORD PTR _fGapRate$[ebp]
$LN4@GetRenderI:

; 377  : 	float fGapHeight = (float)iSrcHeight * fGapRate;
; 378  : 	int iOffYPos = pImage->GetOffsetY();

  00047	8b 4d 08	 mov	 ecx, DWORD PTR _pImage$[ebp]
  0004a	56		 push	 esi
  0004b	ff 15 00 00 00
	00		 call	 DWORD PTR __imp_?GetOffsetY@ioUIRenderImage@@QBEHXZ

; 379  : 	int iHeight  = pImage->GetHeight();

  00051	8b 4d 08	 mov	 ecx, DWORD PTR _pImage$[ebp]
  00054	8b f0		 mov	 esi, eax
  00056	ff 15 00 00 00
	00		 call	 DWORD PTR __imp_?GetHeight@ioUIRenderElement@@QBEHXZ

; 380  : 
; 381  : 	return iOffYPos + ( (iSrcHeight / 2) - fGapHeight );	

  0005c	8b 45 0c	 mov	 eax, DWORD PTR _iSrcHeight$[ebp]
  0005f	66 0f 6e 4d 0c	 movd	 xmm1, DWORD PTR _iSrcHeight$[ebp]
  00064	f3 0f 10 55 10	 movss	 xmm2, DWORD PTR _fGapRate$[ebp]
  00069	99		 cdq
  0006a	0f 5b c9	 cvtdq2ps xmm1, xmm1
  0006d	f3 0f 5a c9	 cvtss2sd xmm1, xmm1
  00071	2b c2		 sub	 eax, edx
  00073	0f 57 c0	 xorps	 xmm0, xmm0
  00076	d1 f8		 sar	 eax, 1
  00078	f3 0f 2a c0	 cvtsi2ss xmm0, eax
  0007c	0f 5a d2	 cvtps2pd xmm2, xmm2
  0007f	f2 0f 59 ca	 mulsd	 xmm1, xmm2
  00083	f2 0f 5a c9	 cvtsd2ss xmm1, xmm1
  00087	f3 0f 5a c9	 cvtss2sd xmm1, xmm1
  0008b	0f 5a c0	 cvtps2pd xmm0, xmm0
  0008e	f2 0f 5c c1	 subsd	 xmm0, xmm1
  00092	0f 57 c9	 xorps	 xmm1, xmm1
  00095	f3 0f 2a ce	 cvtsi2ss xmm1, esi
  00099	0f 5a c9	 cvtps2pd xmm1, xmm1
  0009c	f2 0f 58 c1	 addsd	 xmm0, xmm1
  000a0	f2 0f 2c c0	 cvttsd2si eax, xmm0
  000a4	5e		 pop	 esi
$LN2@GetRenderI:

; 382  : }

  000a5	c9		 leave
  000a6	c2 0c 00	 ret	 12			; 0000000cH
?GetRenderImageStartHeight@QuestParent@@QAEHPAVioUIRenderImage@@HM@Z ENDP ; QuestParent::GetRenderImageStartHeight
_TEXT	ENDS
PUBLIC	?RenderQuestIconGauge@QuestParent@@QAEXHHM@Z	; QuestParent::RenderQuestIconGauge
EXTRN	__imp_?RenderHeightCut@ioUIRenderImage@@QAEXMMHHW4UIRenderType@@W4TextureFilterOption@@0@Z:PROC
; Function compile flags: /Ogsp
;	COMDAT ?RenderQuestIconGauge@QuestParent@@QAEXHHM@Z
_TEXT	SEGMENT
tv236 = 8						; size = 4
_iXPos$ = 8						; size = 4
tv235 = 12						; size = 4
_iYPos$ = 12						; size = 4
_iRealHeight$ = 16					; size = 4
_fScale$ = 16						; size = 4
?RenderQuestIconGauge@QuestParent@@QAEXHHM@Z PROC	; QuestParent::RenderQuestIconGauge, COMDAT
; _this$ = ecx

; 385  : {

  00000	55		 push	 ebp
  00001	8b ec		 mov	 ebp, esp
  00003	53		 push	 ebx
  00004	56		 push	 esi
  00005	57		 push	 edi
  00006	8b d9		 mov	 ebx, ecx

; 386  : 	ioUIRenderImage *pQuestIcon = GetQuestIcon();

  00008	e8 00 00 00 00	 call	 ?GetQuestIcon@QuestParent@@QAEPAVioUIRenderImage@@XZ ; QuestParent::GetQuestIcon
  0000d	8b f0		 mov	 esi, eax

; 387  : 	if( !pQuestIcon ) return;

  0000f	33 ff		 xor	 edi, edi
  00011	3b f7		 cmp	 esi, edi
  00013	0f 84 e9 00 00
	00		 je	 $LN1@RenderQues

; 388  : 
; 389  : 	pQuestIcon->SetScale( fScale );

  00019	f3 0f 10 45 10	 movss	 xmm0, DWORD PTR _fScale$[ebp]
  0001e	8b 06		 mov	 eax, DWORD PTR [esi]
  00020	51		 push	 ecx
  00021	8b ce		 mov	 ecx, esi
  00023	f3 0f 11 04 24	 movss	 DWORD PTR [esp], xmm0
  00028	ff 50 1c	 call	 DWORD PTR [eax+28]

; 390  : 
; 391  : 	int iRealHeight = GetRenderImageStartHeight( pQuestIcon, pQuestIcon->GetHeight(), GetProgressGaugeRate() );

  0002b	8b 03		 mov	 eax, DWORD PTR [ebx]
  0002d	8b cb		 mov	 ecx, ebx
  0002f	ff 50 14	 call	 DWORD PTR [eax+20]
  00032	51		 push	 ecx
  00033	8b ce		 mov	 ecx, esi
  00035	d9 1c 24	 fstp	 DWORD PTR [esp]
  00038	ff 15 00 00 00
	00		 call	 DWORD PTR __imp_?GetHeight@ioUIRenderElement@@QBEHXZ
  0003e	50		 push	 eax
  0003f	56		 push	 esi
  00040	8b cb		 mov	 ecx, ebx
  00042	e8 00 00 00 00	 call	 ?GetRenderImageStartHeight@QuestParent@@QAEHPAVioUIRenderImage@@HM@Z ; QuestParent::GetRenderImageStartHeight

; 392  : 	pQuestIcon->Render( iXPos, iYPos, UI_RENDER_GRAY_LIGHT, TFO_BILINEAR );

  00047	66 0f 6e 45 0c	 movd	 xmm0, DWORD PTR _iYPos$[ebp]
  0004c	66 0f 6e 4d 08	 movd	 xmm1, DWORD PTR _iXPos$[ebp]
  00051	57		 push	 edi
  00052	57		 push	 edi
  00053	6a 01		 push	 1
  00055	6a 09		 push	 9
  00057	51		 push	 ecx
  00058	51		 push	 ecx
  00059	0f 5b c0	 cvtdq2ps xmm0, xmm0
  0005c	89 45 10	 mov	 DWORD PTR _iRealHeight$[ebp], eax
  0005f	8b 06		 mov	 eax, DWORD PTR [esi]
  00061	0f 5b c9	 cvtdq2ps xmm1, xmm1
  00064	f3 0f 11 44 24
	04		 movss	 DWORD PTR [esp+4], xmm0
  0006a	8b ce		 mov	 ecx, esi
  0006c	f3 0f 11 45 0c	 movss	 DWORD PTR tv235[ebp], xmm0
  00071	f3 0f 11 4d 08	 movss	 DWORD PTR tv236[ebp], xmm1
  00076	f3 0f 11 0c 24	 movss	 DWORD PTR [esp], xmm1
  0007b	ff 10		 call	 DWORD PTR [eax]

; 393  : 	pQuestIcon->RenderHeightCut( iXPos, iYPos, iRealHeight, pQuestIcon->GetHeight(), UI_RENDER_NORMAL, TFO_BILINEAR );

  0007d	57		 push	 edi
  0007e	6a 01		 push	 1
  00080	57		 push	 edi
  00081	8b ce		 mov	 ecx, esi
  00083	ff 15 00 00 00
	00		 call	 DWORD PTR __imp_?GetHeight@ioUIRenderElement@@QBEHXZ
  00089	f3 0f 10 45 0c	 movss	 xmm0, DWORD PTR tv235[ebp]
  0008e	8b 1d 00 00 00
	00		 mov	 ebx, DWORD PTR __imp_?RenderHeightCut@ioUIRenderImage@@QAEXMMHHW4UIRenderType@@W4TextureFilterOption@@0@Z
  00094	50		 push	 eax
  00095	ff 75 10	 push	 DWORD PTR _iRealHeight$[ebp]
  00098	51		 push	 ecx
  00099	51		 push	 ecx
  0009a	f3 0f 11 44 24
	04		 movss	 DWORD PTR [esp+4], xmm0
  000a0	f3 0f 10 45 08	 movss	 xmm0, DWORD PTR tv236[ebp]
  000a5	8b ce		 mov	 ecx, esi
  000a7	f3 0f 11 04 24	 movss	 DWORD PTR [esp], xmm0
  000ac	ff d3		 call	 ebx

; 394  : 	if( iRealHeight + 2 <= pQuestIcon->GetHeight() )

  000ae	8b ce		 mov	 ecx, esi
  000b0	ff 15 00 00 00
	00		 call	 DWORD PTR __imp_?GetHeight@ioUIRenderElement@@QBEHXZ
  000b6	8b 4d 10	 mov	 ecx, DWORD PTR _iRealHeight$[ebp]
  000b9	83 c1 02	 add	 ecx, 2
  000bc	3b c8		 cmp	 ecx, eax
  000be	7f 42		 jg	 SHORT $LN1@RenderQues

; 395  : 	{
; 396  : 		pQuestIcon->SetColor( 0, 0, 0 );

  000c0	8b 06		 mov	 eax, DWORD PTR [esi]
  000c2	57		 push	 edi
  000c3	57		 push	 edi
  000c4	57		 push	 edi
  000c5	8b ce		 mov	 ecx, esi
  000c7	ff 50 28	 call	 DWORD PTR [eax+40]

; 397  : 		pQuestIcon->RenderHeightCut( iXPos, iYPos, iRealHeight, iRealHeight + 2, UI_RENDER_NORMAL, TFO_BILINEAR );

  000ca	8b 45 10	 mov	 eax, DWORD PTR _iRealHeight$[ebp]
  000cd	f3 0f 10 45 0c	 movss	 xmm0, DWORD PTR tv235[ebp]
  000d2	57		 push	 edi
  000d3	6a 01		 push	 1
  000d5	57		 push	 edi
  000d6	83 c0 02	 add	 eax, 2
  000d9	50		 push	 eax
  000da	ff 75 10	 push	 DWORD PTR _iRealHeight$[ebp]
  000dd	51		 push	 ecx
  000de	51		 push	 ecx
  000df	f3 0f 11 44 24
	04		 movss	 DWORD PTR [esp+4], xmm0
  000e5	f3 0f 10 45 08	 movss	 xmm0, DWORD PTR tv236[ebp]
  000ea	8b ce		 mov	 ecx, esi
  000ec	f3 0f 11 04 24	 movss	 DWORD PTR [esp], xmm0
  000f1	ff d3		 call	 ebx

; 398  : 		pQuestIcon->SetColor( 255, 255, 255 );

  000f3	8b 16		 mov	 edx, DWORD PTR [esi]
  000f5	b8 ff 00 00 00	 mov	 eax, 255		; 000000ffH
  000fa	50		 push	 eax
  000fb	50		 push	 eax
  000fc	50		 push	 eax
  000fd	8b ce		 mov	 ecx, esi
  000ff	ff 52 28	 call	 DWORD PTR [edx+40]
$LN1@RenderQues:
  00102	5f		 pop	 edi
  00103	5e		 pop	 esi
  00104	5b		 pop	 ebx

; 399  : 	}
; 400  : }

  00105	5d		 pop	 ebp
  00106	c2 0c 00	 ret	 12			; 0000000cH
?RenderQuestIconGauge@QuestParent@@QAEXHHM@Z ENDP	; QuestParent::RenderQuestIconGauge
_TEXT	ENDS
PUBLIC	?RenderQuestIcon@QuestParent@@QAEXHHM@Z		; QuestParent::RenderQuestIcon
; Function compile flags: /Ogsp
;	COMDAT ?RenderQuestIcon@QuestParent@@QAEXHHM@Z
_TEXT	SEGMENT
_iXPos$ = 8						; size = 4
_iYPos$ = 12						; size = 4
_fScale$ = 16						; size = 4
?RenderQuestIcon@QuestParent@@QAEXHHM@Z PROC		; QuestParent::RenderQuestIcon, COMDAT
; _this$ = ecx

; 403  : {

  00000	55		 push	 ebp
  00001	8b ec		 mov	 ebp, esp
  00003	56		 push	 esi

; 404  : 	ioUIRenderImage *pQuestIcon = GetQuestIcon();

  00004	e8 00 00 00 00	 call	 ?GetQuestIcon@QuestParent@@QAEPAVioUIRenderImage@@XZ ; QuestParent::GetQuestIcon
  00009	8b f0		 mov	 esi, eax

; 405  : 	if( !pQuestIcon ) return;

  0000b	85 f6		 test	 esi, esi
  0000d	74 3d		 je	 SHORT $LN2@RenderQues@2

; 406  : 
; 407  : 	pQuestIcon->SetScale( fScale );

  0000f	f3 0f 10 45 10	 movss	 xmm0, DWORD PTR _fScale$[ebp]
  00014	8b 06		 mov	 eax, DWORD PTR [esi]
  00016	51		 push	 ecx
  00017	8b ce		 mov	 ecx, esi
  00019	f3 0f 11 04 24	 movss	 DWORD PTR [esp], xmm0
  0001e	ff 50 1c	 call	 DWORD PTR [eax+28]

; 408  : 	pQuestIcon->Render( iXPos, iYPos, UI_RENDER_NORMAL, TFO_BILINEAR );

  00021	66 0f 6e 45 0c	 movd	 xmm0, DWORD PTR _iYPos$[ebp]
  00026	8b 06		 mov	 eax, DWORD PTR [esi]
  00028	6a 00		 push	 0
  0002a	6a 00		 push	 0
  0002c	6a 01		 push	 1
  0002e	6a 00		 push	 0
  00030	51		 push	 ecx
  00031	51		 push	 ecx
  00032	0f 5b c0	 cvtdq2ps xmm0, xmm0
  00035	f3 0f 11 44 24
	04		 movss	 DWORD PTR [esp+4], xmm0
  0003b	66 0f 6e 45 08	 movd	 xmm0, DWORD PTR _iXPos$[ebp]
  00040	0f 5b c0	 cvtdq2ps xmm0, xmm0
  00043	8b ce		 mov	 ecx, esi
  00045	f3 0f 11 04 24	 movss	 DWORD PTR [esp], xmm0
  0004a	ff 10		 call	 DWORD PTR [eax]
$LN2@RenderQues@2:
  0004c	5e		 pop	 esi

; 409  : }

  0004d	5d		 pop	 ebp
  0004e	c2 0c 00	 ret	 12			; 0000000cH
?RenderQuestIcon@QuestParent@@QAEXHHM@Z ENDP		; QuestParent::RenderQuestIcon
_TEXT	ENDS
PUBLIC	??0D3DXVECTOR3@@QAE@MMM@Z			; D3DXVECTOR3::D3DXVECTOR3
; Function compile flags: /Ogsp
; File c:\program files (x86)\microsoft directx sdk (june 2010)\include\d3dx9math.inl
;	COMDAT ??0D3DXVECTOR3@@QAE@MMM@Z
_TEXT	SEGMENT
_fx$ = 8						; size = 4
_fy$ = 12						; size = 4
_fz$ = 16						; size = 4
??0D3DXVECTOR3@@QAE@MMM@Z PROC				; D3DXVECTOR3::D3DXVECTOR3, COMDAT
; _this$ = ecx

; 303  : {

  00000	55		 push	 ebp
  00001	8b ec		 mov	 ebp, esp

; 304  :     x = fx;

  00003	f3 0f 10 45 08	 movss	 xmm0, DWORD PTR _fx$[ebp]
  00008	8b c1		 mov	 eax, ecx
  0000a	f3 0f 11 00	 movss	 DWORD PTR [eax], xmm0

; 305  :     y = fy;

  0000e	f3 0f 10 45 0c	 movss	 xmm0, DWORD PTR _fy$[ebp]
  00013	f3 0f 11 40 04	 movss	 DWORD PTR [eax+4], xmm0

; 306  :     z = fz;

  00018	f3 0f 10 45 10	 movss	 xmm0, DWORD PTR _fz$[ebp]
  0001d	f3 0f 11 40 08	 movss	 DWORD PTR [eax+8], xmm0

; 307  : }

  00022	5d		 pop	 ebp
  00023	c2 0c 00	 ret	 12			; 0000000cH
??0D3DXVECTOR3@@QAE@MMM@Z ENDP				; D3DXVECTOR3::D3DXVECTOR3
_TEXT	ENDS
PUBLIC	??GD3DXVECTOR3@@QBE?AU0@ABU0@@Z			; D3DXVECTOR3::operator-
; Function compile flags: /Ogsp
;	COMDAT ??GD3DXVECTOR3@@QBE?AU0@ABU0@@Z
_TEXT	SEGMENT
___$ReturnUdt$ = 8					; size = 4
_v$ = 12						; size = 4
??GD3DXVECTOR3@@QBE?AU0@ABU0@@Z PROC			; D3DXVECTOR3::operator-, COMDAT
; _this$ = ecx

; 386  : {

  00000	55		 push	 ebp
  00001	8b ec		 mov	 ebp, esp

; 387  :     return D3DXVECTOR3(x - v.x, y - v.y, z - v.z);

  00003	8b 55 0c	 mov	 edx, DWORD PTR _v$[ebp]
  00006	f3 0f 10 01	 movss	 xmm0, DWORD PTR [ecx]
  0000a	f3 0f 10 0a	 movss	 xmm1, DWORD PTR [edx]
  0000e	8b 45 08	 mov	 eax, DWORD PTR ___$ReturnUdt$[ebp]
  00011	0f 5a c0	 cvtps2pd xmm0, xmm0
  00014	0f 5a c9	 cvtps2pd xmm1, xmm1
  00017	f2 0f 5c c1	 subsd	 xmm0, xmm1
  0001b	f3 0f 10 4a 04	 movss	 xmm1, DWORD PTR [edx+4]
  00020	66 0f 5a c0	 cvtpd2ps xmm0, xmm0
  00024	f3 0f 11 00	 movss	 DWORD PTR [eax], xmm0
  00028	f3 0f 10 41 04	 movss	 xmm0, DWORD PTR [ecx+4]
  0002d	0f 5a c0	 cvtps2pd xmm0, xmm0
  00030	0f 5a c9	 cvtps2pd xmm1, xmm1
  00033	f2 0f 5c c1	 subsd	 xmm0, xmm1
  00037	f3 0f 10 4a 08	 movss	 xmm1, DWORD PTR [edx+8]
  0003c	66 0f 5a c0	 cvtpd2ps xmm0, xmm0
  00040	f3 0f 11 40 04	 movss	 DWORD PTR [eax+4], xmm0
  00045	f3 0f 10 41 08	 movss	 xmm0, DWORD PTR [ecx+8]
  0004a	0f 5a c0	 cvtps2pd xmm0, xmm0
  0004d	0f 5a c9	 cvtps2pd xmm1, xmm1
  00050	f2 0f 5c c1	 subsd	 xmm0, xmm1
  00054	66 0f 5a c0	 cvtpd2ps xmm0, xmm0
  00058	f3 0f 11 40 08	 movss	 DWORD PTR [eax+8], xmm0

; 388  : }

  0005d	5d		 pop	 ebp
  0005e	c2 08 00	 ret	 8
??GD3DXVECTOR3@@QBE?AU0@ABU0@@Z ENDP			; D3DXVECTOR3::operator-
_TEXT	ENDS
PUBLIC	?D3DXVec3LengthSq@@YAMPBUD3DXVECTOR3@@@Z	; D3DXVec3LengthSq
; Function compile flags: /Ogsp
;	COMDAT ?D3DXVec3LengthSq@@YAMPBUD3DXVECTOR3@@@Z
_TEXT	SEGMENT
tv165 = 8						; size = 4
_pV$ = 8						; size = 4
?D3DXVec3LengthSq@@YAMPBUD3DXVECTOR3@@@Z PROC		; D3DXVec3LengthSq, COMDAT

; 1725 : {

  00000	55		 push	 ebp
  00001	8b ec		 mov	 ebp, esp

; 1726 : #ifdef D3DX_DEBUG
; 1727 :     if(!pV)
; 1728 :         return 0.0f;
; 1729 : #endif
; 1730 : 
; 1731 :     return pV->x * pV->x + pV->y * pV->y + pV->z * pV->z;

  00003	8b 45 08	 mov	 eax, DWORD PTR _pV$[ebp]
  00006	d9 40 04	 fld	 DWORD PTR [eax+4]
  00009	d9 00		 fld	 DWORD PTR [eax]
  0000b	d9 40 08	 fld	 DWORD PTR [eax+8]
  0000e	d9 c1		 fld	 ST(1)
  00010	de ca		 fmulp	 ST(2), ST(0)
  00012	d9 c2		 fld	 ST(2)
  00014	de cb		 fmulp	 ST(3), ST(0)
  00016	d9 c9		 fxch	 ST(1)
  00018	de c2		 faddp	 ST(2), ST(0)
  0001a	d9 c0		 fld	 ST(0)
  0001c	de c9		 fmulp	 ST(1), ST(0)
  0001e	de c1		 faddp	 ST(1), ST(0)
  00020	d9 5d 08	 fstp	 DWORD PTR tv165[ebp]
  00023	d9 45 08	 fld	 DWORD PTR tv165[ebp]

; 1732 : }

  00026	5d		 pop	 ebp
  00027	c3		 ret	 0
?D3DXVec3LengthSq@@YAMPBUD3DXVECTOR3@@@Z ENDP		; D3DXVec3LengthSq
_TEXT	ENDS
PUBLIC	?IsQuestAlarm@QuestParent@@UAE_NXZ		; QuestParent::IsQuestAlarm
EXTRN	?IsAlarm@QuestData@@QAE_NXZ:PROC		; QuestData::IsAlarm
; Function compile flags: /Ogsp
; File d:\lost saga for developer\youtube\tutorial\source\src\lsclient\questvariety.cpp
;	COMDAT ?IsQuestAlarm@QuestParent@@UAE_NXZ
_TEXT	SEGMENT
?IsQuestAlarm@QuestParent@@UAE_NXZ PROC			; QuestParent::IsQuestAlarm, COMDAT
; _this$ = ecx

; 590  : 	QuestData &rkQuest = GetMyInfoQuestData();

  00000	8b 01		 mov	 eax, DWORD PTR [ecx]
  00002	56		 push	 esi
  00003	ff 50 28	 call	 DWORD PTR [eax+40]
  00006	8b f0		 mov	 esi, eax

; 591  : 	if( rkQuest.GetIndexData() == 0 )

  00008	8b 06		 mov	 eax, DWORD PTR [esi]
  0000a	8b ce		 mov	 ecx, esi
  0000c	ff 10		 call	 DWORD PTR [eax]
  0000e	85 c0		 test	 eax, eax
  00010	75 04		 jne	 SHORT $LN3@IsQuestAla
$LN6@IsQuestAla:

; 592  : 		return false;

  00012	32 c0		 xor	 al, al
  00014	5e		 pop	 esi

; 596  : 		return false;
; 597  : 	return true;
; 598  : }

  00015	c3		 ret	 0
$LN3@IsQuestAla:

; 593  : 	if( rkQuest.GetState() != QS_PROGRESS )

  00016	8b ce		 mov	 ecx, esi
  00018	e8 00 00 00 00	 call	 ?GetState@QuestData@@QAEKXZ ; QuestData::GetState
  0001d	85 c0		 test	 eax, eax

; 594  : 		return false;

  0001f	75 f1		 jne	 SHORT $LN6@IsQuestAla

; 595  : 	if( !rkQuest.IsAlarm() )

  00021	8b ce		 mov	 ecx, esi
  00023	e8 00 00 00 00	 call	 ?IsAlarm@QuestData@@QAE_NXZ ; QuestData::IsAlarm
  00028	84 c0		 test	 al, al
  0002a	0f 95 c0	 setne	 al
  0002d	5e		 pop	 esi

; 596  : 		return false;
; 597  : 	return true;
; 598  : }

  0002e	c3		 ret	 0
?IsQuestAlarm@QuestParent@@UAE_NXZ ENDP			; QuestParent::IsQuestAlarm
_TEXT	ENDS
PUBLIC	?IsQuestGuideShow@QuestParent@@UAE_NXZ		; QuestParent::IsQuestGuideShow
; Function compile flags: /Ogsp
;	COMDAT ?IsQuestGuideShow@QuestParent@@UAE_NXZ
_TEXT	SEGMENT
?IsQuestGuideShow@QuestParent@@UAE_NXZ PROC		; QuestParent::IsQuestGuideShow, COMDAT
; _this$ = ecx

; 602  : 	return IsQuestAlarm();

  00000	8b 01		 mov	 eax, DWORD PTR [ecx]
  00002	ff 60 30	 jmp	 DWORD PTR [eax+48]
?IsQuestGuideShow@QuestParent@@UAE_NXZ ENDP		; QuestParent::IsQuestGuideShow
_TEXT	ENDS
PUBLIC	?GetProgressPercentage@QuestParent@@UAEHHH@Z	; QuestParent::GetProgressPercentage
EXTRN	__ftol2_sse:PROC
; Function compile flags: /Ogsp
;	COMDAT ?GetProgressPercentage@QuestParent@@UAEHHH@Z
_TEXT	SEGMENT
_iValue1$ = 8						; size = 4
tv129 = 12						; size = 4
tv84 = 12						; size = 4
_iValue2$ = 12						; size = 4
?GetProgressPercentage@QuestParent@@UAEHHH@Z PROC	; QuestParent::GetProgressPercentage, COMDAT
; _this$ = ecx

; 640  : {

  00000	55		 push	 ebp
  00001	8b ec		 mov	 ebp, esp

; 641  : 	if( iValue2 <= 0 ) return 0;

  00003	83 7d 0c 00	 cmp	 DWORD PTR _iValue2$[ebp], 0
  00007	7f 04		 jg	 SHORT $LN1@GetProgres@2
  00009	33 c0		 xor	 eax, eax
  0000b	eb 28		 jmp	 SHORT $LN2@GetProgres@2
$LN1@GetProgres@2:

; 642  : 
; 643  : 	float fPercentage = (float)iValue1 / (float)iValue2;
; 644  : 	return fPercentage * FLOAT100;

  0000d	b8 64 00 00 00	 mov	 eax, 100		; 00000064H
  00012	db 45 08	 fild	 DWORD PTR _iValue1$[ebp]
  00015	da 75 0c	 fidiv	 DWORD PTR _iValue2$[ebp]
  00018	d9 5d 0c	 fstp	 DWORD PTR tv129[ebp]
  0001b	d9 45 0c	 fld	 DWORD PTR tv129[ebp]
  0001e	89 45 0c	 mov	 DWORD PTR tv84[ebp], eax
  00021	db 45 0c	 fild	 DWORD PTR tv84[ebp]
  00024	85 c0		 test	 eax, eax
  00026	79 06		 jns	 SHORT $LN6@GetProgres@2
  00028	d8 05 00 00 00
	00		 fadd	 DWORD PTR __real@4f800000
$LN6@GetProgres@2:
  0002e	de c9		 fmulp	 ST(1), ST(0)
  00030	e8 00 00 00 00	 call	 __ftol2_sse
$LN2@GetProgres@2:

; 645  : }

  00035	5d		 pop	 ebp
  00036	c2 08 00	 ret	 8
?GetProgressPercentage@QuestParent@@UAEHHH@Z ENDP	; QuestParent::GetProgressPercentage
_TEXT	ENDS
PUBLIC	?Process@QuestParent@@UAEXPAVioPlayStage@@@Z	; QuestParent::Process
; Function compile flags: /Ogsp
;	COMDAT ?Process@QuestParent@@UAEXPAVioPlayStage@@@Z
_TEXT	SEGMENT
_pPlayStage$ = 8					; size = 4
?Process@QuestParent@@UAEXPAVioPlayStage@@@Z PROC	; QuestParent::Process, COMDAT
; _this$ = ecx

; 753  : 
; 754  : }

  00000	c2 04 00	 ret	 4
?Process@QuestParent@@UAEXPAVioPlayStage@@@Z ENDP	; QuestParent::Process
_TEXT	ENDS
PUBLIC	?ProcessRewardComplete@QuestParent@@UAEXXZ	; QuestParent::ProcessRewardComplete
; Function compile flags: /Ogsp
;	COMDAT ?ProcessRewardComplete@QuestParent@@UAEXXZ
_TEXT	SEGMENT
?ProcessRewardComplete@QuestParent@@UAEXXZ PROC		; QuestParent::ProcessRewardComplete, COMDAT
; _this$ = ecx

; 758  : 
; 759  : }

  00000	c3		 ret	 0
?ProcessRewardComplete@QuestParent@@UAEXXZ ENDP		; QuestParent::ProcessRewardComplete
_TEXT	ENDS
PUBLIC	??_C@_0CN@FKLLMKEM@QuestEnterBattlePvPModeKO?3?3GetPr@ ; `string'
PUBLIC	??_C@_00CNPNBAHC@?$AA@				; `string'
PUBLIC	__$ArrayPad$
PUBLIC	?GetProgressResult@QuestEnterBattlePvPModeKO@@UAEAAVioHashString@@XZ ; QuestEnterBattlePvPModeKO::GetProgressResult
EXTRN	__imp_??4ioHashString@@QAEAAV0@PBD@Z:PROC
EXTRN	__imp_?SafeSprintf@@YAXPADHPBDH@Z:PROC
EXTRN	__imp_?SafeSprintf@@YAXPADHPBDZZ:PROC
EXTRN	__imp_?GetString@ioStringManager@@QAEPADPBD0HW4FileNamePrefix@1@@Z:PROC
EXTRN	__imp_?GetSingleton@ioStringManager@@SAAAV1@XZ:PROC
EXTRN	___security_cookie:DWORD
EXTRN	@__security_check_cookie@4:PROC
EXTRN	_memset:PROC
;	COMDAT ??_C@_0CN@FKLLMKEM@QuestEnterBattlePvPModeKO?3?3GetPr@
CONST	SEGMENT
??_C@_0CN@FKLLMKEM@QuestEnterBattlePvPModeKO?3?3GetPr@ DB 'QuestEnterBatt'
	DB	'lePvPModeKO::GetProgressResult', 00H	; `string'
CONST	ENDS
;	COMDAT ??_C@_00CNPNBAHC@?$AA@
CONST	SEGMENT
??_C@_00CNPNBAHC@?$AA@ DB 00H				; `string'
; Function compile flags: /Ogsp
CONST	ENDS
;	COMDAT ?GetProgressResult@QuestEnterBattlePvPModeKO@@UAEAAVioHashString@@XZ
_TEXT	SEGMENT
_kQuestData$ = -268					; size = 4
_szBuf$ = -264						; size = 260
__$ArrayPad$ = -4					; size = 4
?GetProgressResult@QuestEnterBattlePvPModeKO@@UAEAAVioHashString@@XZ PROC ; QuestEnterBattlePvPModeKO::GetProgressResult, COMDAT
; _this$ = ecx

; 924  : {

  00000	55		 push	 ebp
  00001	8b ec		 mov	 ebp, esp
  00003	81 ec 0c 01 00
	00		 sub	 esp, 268		; 0000010cH
  00009	a1 00 00 00 00	 mov	 eax, DWORD PTR ___security_cookie
  0000e	33 c5		 xor	 eax, ebp
  00010	89 45 fc	 mov	 DWORD PTR __$ArrayPad$[ebp], eax
  00013	56		 push	 esi
  00014	8b f1		 mov	 esi, ecx

; 925  : 	QuestData &kQuestData = GetMyInfoQuestData();

  00016	8b 06		 mov	 eax, DWORD PTR [esi]
  00018	ff 50 28	 call	 DWORD PTR [eax+40]

; 926  : 	char szBuf[MAX_PATH] = "";

  0001b	68 03 01 00 00	 push	 259			; 00000103H
  00020	89 85 f4 fe ff
	ff		 mov	 DWORD PTR _kQuestData$[ebp], eax
  00026	8d 85 f9 fe ff
	ff		 lea	 eax, DWORD PTR _szBuf$[ebp+1]
  0002c	6a 00		 push	 0
  0002e	50		 push	 eax
  0002f	c6 85 f8 fe ff
	ff 00		 mov	 BYTE PTR _szBuf$[ebp], 0
  00036	e8 00 00 00 00	 call	 _memset
  0003b	83 c4 0c	 add	 esp, 12			; 0000000cH

; 927  : 	if( !m_szProgressResult.IsEmpty() )

  0003e	8d 8e b4 00 00
	00		 lea	 ecx, DWORD PTR [esi+180]
  00044	ff 15 00 00 00
	00		 call	 DWORD PTR __imp_?IsEmpty@ioHashString@@QBE_NXZ
  0004a	84 c0		 test	 al, al
  0004c	0f 85 8d 00 00
	00		 jne	 $LN1@GetProgres@3

; 928  : 	{
; 929  : 		if( !IsMeProgressQuest() )

  00052	8b 06		 mov	 eax, DWORD PTR [esi]
  00054	8b ce		 mov	 ecx, esi
  00056	ff 50 2c	 call	 DWORD PTR [eax+44]
  00059	84 c0		 test	 al, al
  0005b	75 34		 jne	 SHORT $LN2@GetProgres@3

; 930  : 			SafeSprintf( szBuf, sizeof( szBuf ), STR(1) );

  0005d	6a 00		 push	 0
  0005f	6a 01		 push	 1
  00061	68 00 00 00 00	 push	 OFFSET ??_C@_00CNPNBAHC@?$AA@
  00066	68 00 00 00 00	 push	 OFFSET ??_C@_0CN@FKLLMKEM@QuestEnterBattlePvPModeKO?3?3GetPr@
  0006b	ff 15 00 00 00
	00		 call	 DWORD PTR __imp_?GetSingleton@ioStringManager@@SAAAV1@XZ
  00071	8b c8		 mov	 ecx, eax
  00073	ff 15 00 00 00
	00		 call	 DWORD PTR __imp_?GetString@ioStringManager@@QAEPADPBD0HW4FileNamePrefix@1@@Z
  00079	50		 push	 eax
  0007a	8d 85 f8 fe ff
	ff		 lea	 eax, DWORD PTR _szBuf$[ebp]
  00080	68 04 01 00 00	 push	 260			; 00000104H
  00085	50		 push	 eax
  00086	ff 15 00 00 00
	00		 call	 DWORD PTR __imp_?SafeSprintf@@YAXPADHPBDZZ
  0008c	83 c4 0c	 add	 esp, 12			; 0000000cH

; 931  : 		else

  0008f	eb 4e		 jmp	 SHORT $LN1@GetProgres@3
$LN2@GetProgres@3:
  00091	57		 push	 edi

; 932  : 			SafeSprintf( szBuf, sizeof( szBuf ), STR(2), GetProgressPercentage( kQuestData.GetCurrentData(), GetProgressCount() ) );

  00092	8b 3e		 mov	 edi, DWORD PTR [esi]
  00094	8b ce		 mov	 ecx, esi
  00096	ff 57 0c	 call	 DWORD PTR [edi+12]
  00099	8b 8d f4 fe ff
	ff		 mov	 ecx, DWORD PTR _kQuestData$[ebp]
  0009f	50		 push	 eax
  000a0	e8 00 00 00 00	 call	 ?GetCurrentData@QuestData@@QAEKXZ ; QuestData::GetCurrentData
  000a5	50		 push	 eax
  000a6	8b ce		 mov	 ecx, esi
  000a8	ff 57 10	 call	 DWORD PTR [edi+16]
  000ab	50		 push	 eax
  000ac	6a 00		 push	 0
  000ae	6a 02		 push	 2
  000b0	68 00 00 00 00	 push	 OFFSET ??_C@_00CNPNBAHC@?$AA@
  000b5	68 00 00 00 00	 push	 OFFSET ??_C@_0CN@FKLLMKEM@QuestEnterBattlePvPModeKO?3?3GetPr@
  000ba	ff 15 00 00 00
	00		 call	 DWORD PTR __imp_?GetSingleton@ioStringManager@@SAAAV1@XZ
  000c0	8b c8		 mov	 ecx, eax
  000c2	ff 15 00 00 00
	00		 call	 DWORD PTR __imp_?GetString@ioStringManager@@QAEPADPBD0HW4FileNamePrefix@1@@Z
  000c8	50		 push	 eax
  000c9	8d 85 f8 fe ff
	ff		 lea	 eax, DWORD PTR _szBuf$[ebp]
  000cf	68 04 01 00 00	 push	 260			; 00000104H
  000d4	50		 push	 eax
  000d5	ff 15 00 00 00
	00		 call	 DWORD PTR __imp_?SafeSprintf@@YAXPADHPBDH@Z
  000db	83 c4 10	 add	 esp, 16			; 00000010H
  000de	5f		 pop	 edi
$LN1@GetProgres@3:

; 933  : 	}
; 934  : 	m_szOutProgressResult = szBuf;

  000df	8d 85 f8 fe ff
	ff		 lea	 eax, DWORD PTR _szBuf$[ebp]
  000e5	50		 push	 eax
  000e6	8d 8e c4 00 00
	00		 lea	 ecx, DWORD PTR [esi+196]
  000ec	ff 15 00 00 00
	00		 call	 DWORD PTR __imp_??4ioHashString@@QAEAAV0@PBD@Z

; 935  : 	return m_szOutProgressResult;
; 936  : }

  000f2	8b 4d fc	 mov	 ecx, DWORD PTR __$ArrayPad$[ebp]
  000f5	8d 86 c4 00 00
	00		 lea	 eax, DWORD PTR [esi+196]
  000fb	33 cd		 xor	 ecx, ebp
  000fd	5e		 pop	 esi
  000fe	e8 00 00 00 00	 call	 @__security_check_cookie@4
  00103	c9		 leave
  00104	c3		 ret	 0
?GetProgressResult@QuestEnterBattlePvPModeKO@@UAEAAVioHashString@@XZ ENDP ; QuestEnterBattlePvPModeKO::GetProgressResult
_TEXT	ENDS
PUBLIC	??_C@_0DH@MKMDDPIM@QuestEnterBattlePvPModeKO?3?3GetPr@ ; `string'
PUBLIC	__$ArrayPad$
PUBLIC	?GetProgressResultOnlyNumber@QuestEnterBattlePvPModeKO@@UAEAAVioHashString@@XZ ; QuestEnterBattlePvPModeKO::GetProgressResultOnlyNumber
;	COMDAT ??_C@_0DH@MKMDDPIM@QuestEnterBattlePvPModeKO?3?3GetPr@
CONST	SEGMENT
??_C@_0DH@MKMDDPIM@QuestEnterBattlePvPModeKO?3?3GetPr@ DB 'QuestEnterBatt'
	DB	'lePvPModeKO::GetProgressResultOnlyNumber', 00H ; `string'
; Function compile flags: /Ogsp
CONST	ENDS
;	COMDAT ?GetProgressResultOnlyNumber@QuestEnterBattlePvPModeKO@@UAEAAVioHashString@@XZ
_TEXT	SEGMENT
_kQuestData$ = -268					; size = 4
_szBuf$ = -264						; size = 260
__$ArrayPad$ = -4					; size = 4
?GetProgressResultOnlyNumber@QuestEnterBattlePvPModeKO@@UAEAAVioHashString@@XZ PROC ; QuestEnterBattlePvPModeKO::GetProgressResultOnlyNumber, COMDAT
; _this$ = ecx

; 939  : {

  00000	55		 push	 ebp
  00001	8b ec		 mov	 ebp, esp
  00003	81 ec 0c 01 00
	00		 sub	 esp, 268		; 0000010cH
  00009	a1 00 00 00 00	 mov	 eax, DWORD PTR ___security_cookie
  0000e	33 c5		 xor	 eax, ebp
  00010	89 45 fc	 mov	 DWORD PTR __$ArrayPad$[ebp], eax
  00013	56		 push	 esi
  00014	8b f1		 mov	 esi, ecx

; 940  : 	QuestData &kQuestData = GetMyInfoQuestData();

  00016	8b 06		 mov	 eax, DWORD PTR [esi]
  00018	ff 50 28	 call	 DWORD PTR [eax+40]

; 941  : 	char szBuf[MAX_PATH] = "";

  0001b	68 03 01 00 00	 push	 259			; 00000103H
  00020	89 85 f4 fe ff
	ff		 mov	 DWORD PTR _kQuestData$[ebp], eax
  00026	8d 85 f9 fe ff
	ff		 lea	 eax, DWORD PTR _szBuf$[ebp+1]
  0002c	6a 00		 push	 0
  0002e	50		 push	 eax
  0002f	c6 85 f8 fe ff
	ff 00		 mov	 BYTE PTR _szBuf$[ebp], 0
  00036	e8 00 00 00 00	 call	 _memset
  0003b	83 c4 0c	 add	 esp, 12			; 0000000cH

; 942  : 	if( !m_szProgressResult.IsEmpty() )

  0003e	8d 8e b4 00 00
	00		 lea	 ecx, DWORD PTR [esi+180]
  00044	ff 15 00 00 00
	00		 call	 DWORD PTR __imp_?IsEmpty@ioHashString@@QBE_NXZ
  0004a	84 c0		 test	 al, al
  0004c	75 4e		 jne	 SHORT $LN1@GetProgres@4

; 943  : 		SafeSprintf( szBuf, sizeof( szBuf ), STR(1), GetProgressPercentage( kQuestData.GetCurrentData(), GetProgressCount() ) );

  0004e	57		 push	 edi
  0004f	8b 3e		 mov	 edi, DWORD PTR [esi]
  00051	8b ce		 mov	 ecx, esi
  00053	ff 57 0c	 call	 DWORD PTR [edi+12]
  00056	8b 8d f4 fe ff
	ff		 mov	 ecx, DWORD PTR _kQuestData$[ebp]
  0005c	50		 push	 eax
  0005d	e8 00 00 00 00	 call	 ?GetCurrentData@QuestData@@QAEKXZ ; QuestData::GetCurrentData
  00062	50		 push	 eax
  00063	8b ce		 mov	 ecx, esi
  00065	ff 57 10	 call	 DWORD PTR [edi+16]
  00068	50		 push	 eax
  00069	6a 00		 push	 0
  0006b	6a 01		 push	 1
  0006d	68 00 00 00 00	 push	 OFFSET ??_C@_00CNPNBAHC@?$AA@
  00072	68 00 00 00 00	 push	 OFFSET ??_C@_0DH@MKMDDPIM@QuestEnterBattlePvPModeKO?3?3GetPr@
  00077	ff 15 00 00 00
	00		 call	 DWORD PTR __imp_?GetSingleton@ioStringManager@@SAAAV1@XZ
  0007d	8b c8		 mov	 ecx, eax
  0007f	ff 15 00 00 00
	00		 call	 DWORD PTR __imp_?GetString@ioStringManager@@QAEPADPBD0HW4FileNamePrefix@1@@Z
  00085	50		 push	 eax
  00086	8d 85 f8 fe ff
	ff		 lea	 eax, DWORD PTR _szBuf$[ebp]
  0008c	68 04 01 00 00	 push	 260			; 00000104H
  00091	50		 push	 eax
  00092	ff 15 00 00 00
	00		 call	 DWORD PTR __imp_?SafeSprintf@@YAXPADHPBDH@Z
  00098	83 c4 10	 add	 esp, 16			; 00000010H
  0009b	5f		 pop	 edi
$LN1@GetProgres@4:

; 944  : 	m_szOutProgressResult = szBuf;

  0009c	8d 85 f8 fe ff
	ff		 lea	 eax, DWORD PTR _szBuf$[ebp]
  000a2	50		 push	 eax
  000a3	8d 8e c4 00 00
	00		 lea	 ecx, DWORD PTR [esi+196]
  000a9	ff 15 00 00 00
	00		 call	 DWORD PTR __imp_??4ioHashString@@QAEAAV0@PBD@Z

; 945  : 	return m_szOutProgressResult;
; 946  : }

  000af	8b 4d fc	 mov	 ecx, DWORD PTR __$ArrayPad$[ebp]
  000b2	8d 86 c4 00 00
	00		 lea	 eax, DWORD PTR [esi+196]
  000b8	33 cd		 xor	 ecx, ebp
  000ba	5e		 pop	 esi
  000bb	e8 00 00 00 00	 call	 @__security_check_cookie@4
  000c0	c9		 leave
  000c1	c3		 ret	 0
?GetProgressResultOnlyNumber@QuestEnterBattlePvPModeKO@@UAEAAVioHashString@@XZ ENDP ; QuestEnterBattlePvPModeKO::GetProgressResultOnlyNumber
_TEXT	ENDS
PUBLIC	?GetProgressResultOnlyText@QuestEnterBattlePvPModeKO@@UAEAAVioHashString@@XZ ; QuestEnterBattlePvPModeKO::GetProgressResultOnlyText
; Function compile flags: /Ogsp
;	COMDAT ?GetProgressResultOnlyText@QuestEnterBattlePvPModeKO@@UAEAAVioHashString@@XZ
_TEXT	SEGMENT
?GetProgressResultOnlyText@QuestEnterBattlePvPModeKO@@UAEAAVioHashString@@XZ PROC ; QuestEnterBattlePvPModeKO::GetProgressResultOnlyText, COMDAT
; _this$ = ecx

; 949  : {

  00000	56		 push	 esi

; 950  : 	m_szOutProgressResult = "";

  00001	8d b1 c4 00 00
	00		 lea	 esi, DWORD PTR [ecx+196]
  00007	68 00 00 00 00	 push	 OFFSET ??_C@_00CNPNBAHC@?$AA@
  0000c	8b ce		 mov	 ecx, esi
  0000e	ff 15 00 00 00
	00		 call	 DWORD PTR __imp_??4ioHashString@@QAEAAV0@PBD@Z

; 951  : 	return m_szOutProgressResult;

  00014	8b c6		 mov	 eax, esi
  00016	5e		 pop	 esi

; 952  : }

  00017	c3		 ret	 0
?GetProgressResultOnlyText@QuestEnterBattlePvPModeKO@@UAEAAVioHashString@@XZ ENDP ; QuestEnterBattlePvPModeKO::GetProgressResultOnlyText
_TEXT	ENDS
PUBLIC	?GetProgressGaugeRate@QuestEnterBattlePvPModeKO@@UAEMXZ ; QuestEnterBattlePvPModeKO::GetProgressGaugeRate
; Function compile flags: /Ogsp
;	COMDAT ?GetProgressGaugeRate@QuestEnterBattlePvPModeKO@@UAEMXZ
_TEXT	SEGMENT
?GetProgressGaugeRate@QuestEnterBattlePvPModeKO@@UAEMXZ PROC ; QuestEnterBattlePvPModeKO::GetProgressGaugeRate, COMDAT
; _this$ = ecx

; 956  : 	return QuestParent::GetProgressGaugeRate();

  00000	e9 00 00 00 00	 jmp	 ?GetProgressGaugeRate@QuestParent@@UAEMXZ ; QuestParent::GetProgressGaugeRate
?GetProgressGaugeRate@QuestEnterBattlePvPModeKO@@UAEMXZ ENDP ; QuestEnterBattlePvPModeKO::GetProgressGaugeRate
_TEXT	ENDS
PUBLIC	??_C@_0CO@IJNFNHFA@QuestEnterBattlePvPModeWin?3?3GetP@ ; `string'
PUBLIC	__$ArrayPad$
PUBLIC	?GetProgressResult@QuestEnterBattlePvPModeWin@@UAEAAVioHashString@@XZ ; QuestEnterBattlePvPModeWin::GetProgressResult
;	COMDAT ??_C@_0CO@IJNFNHFA@QuestEnterBattlePvPModeWin?3?3GetP@
CONST	SEGMENT
??_C@_0CO@IJNFNHFA@QuestEnterBattlePvPModeWin?3?3GetP@ DB 'QuestEnterBatt'
	DB	'lePvPModeWin::GetProgressResult', 00H	; `string'
; Function compile flags: /Ogsp
CONST	ENDS
;	COMDAT ?GetProgressResult@QuestEnterBattlePvPModeWin@@UAEAAVioHashString@@XZ
_TEXT	SEGMENT
_kQuestData$ = -268					; size = 4
_szBuf$ = -264						; size = 260
__$ArrayPad$ = -4					; size = 4
?GetProgressResult@QuestEnterBattlePvPModeWin@@UAEAAVioHashString@@XZ PROC ; QuestEnterBattlePvPModeWin::GetProgressResult, COMDAT
; _this$ = ecx

; 990  : {

  00000	55		 push	 ebp
  00001	8b ec		 mov	 ebp, esp
  00003	81 ec 0c 01 00
	00		 sub	 esp, 268		; 0000010cH
  00009	a1 00 00 00 00	 mov	 eax, DWORD PTR ___security_cookie
  0000e	33 c5		 xor	 eax, ebp
  00010	89 45 fc	 mov	 DWORD PTR __$ArrayPad$[ebp], eax
  00013	56		 push	 esi
  00014	8b f1		 mov	 esi, ecx

; 991  : 	QuestData &kQuestData = GetMyInfoQuestData();

  00016	8b 06		 mov	 eax, DWORD PTR [esi]
  00018	ff 50 28	 call	 DWORD PTR [eax+40]

; 992  : 	char szBuf[MAX_PATH] = "";

  0001b	68 03 01 00 00	 push	 259			; 00000103H
  00020	89 85 f4 fe ff
	ff		 mov	 DWORD PTR _kQuestData$[ebp], eax
  00026	8d 85 f9 fe ff
	ff		 lea	 eax, DWORD PTR _szBuf$[ebp+1]
  0002c	6a 00		 push	 0
  0002e	50		 push	 eax
  0002f	c6 85 f8 fe ff
	ff 00		 mov	 BYTE PTR _szBuf$[ebp], 0
  00036	e8 00 00 00 00	 call	 _memset
  0003b	83 c4 0c	 add	 esp, 12			; 0000000cH

; 993  : 	if( !m_szProgressResult.IsEmpty() )

  0003e	8d 8e b4 00 00
	00		 lea	 ecx, DWORD PTR [esi+180]
  00044	ff 15 00 00 00
	00		 call	 DWORD PTR __imp_?IsEmpty@ioHashString@@QBE_NXZ
  0004a	84 c0		 test	 al, al
  0004c	0f 85 8d 00 00
	00		 jne	 $LN1@GetProgres@5

; 994  : 	{
; 995  : 		if( !IsMeProgressQuest() )

  00052	8b 06		 mov	 eax, DWORD PTR [esi]
  00054	8b ce		 mov	 ecx, esi
  00056	ff 50 2c	 call	 DWORD PTR [eax+44]
  00059	84 c0		 test	 al, al
  0005b	75 34		 jne	 SHORT $LN2@GetProgres@5

; 996  : 			SafeSprintf( szBuf, sizeof( szBuf ), STR(1) );

  0005d	6a 00		 push	 0
  0005f	6a 01		 push	 1
  00061	68 00 00 00 00	 push	 OFFSET ??_C@_00CNPNBAHC@?$AA@
  00066	68 00 00 00 00	 push	 OFFSET ??_C@_0CO@IJNFNHFA@QuestEnterBattlePvPModeWin?3?3GetP@
  0006b	ff 15 00 00 00
	00		 call	 DWORD PTR __imp_?GetSingleton@ioStringManager@@SAAAV1@XZ
  00071	8b c8		 mov	 ecx, eax
  00073	ff 15 00 00 00
	00		 call	 DWORD PTR __imp_?GetString@ioStringManager@@QAEPADPBD0HW4FileNamePrefix@1@@Z
  00079	50		 push	 eax
  0007a	8d 85 f8 fe ff
	ff		 lea	 eax, DWORD PTR _szBuf$[ebp]
  00080	68 04 01 00 00	 push	 260			; 00000104H
  00085	50		 push	 eax
  00086	ff 15 00 00 00
	00		 call	 DWORD PTR __imp_?SafeSprintf@@YAXPADHPBDZZ
  0008c	83 c4 0c	 add	 esp, 12			; 0000000cH

; 997  : 		else

  0008f	eb 4e		 jmp	 SHORT $LN1@GetProgres@5
$LN2@GetProgres@5:
  00091	57		 push	 edi

; 998  : 			SafeSprintf( szBuf, sizeof( szBuf ), STR(2), GetProgressPercentage( kQuestData.GetCurrentData(), GetProgressCount() ) );

  00092	8b 3e		 mov	 edi, DWORD PTR [esi]
  00094	8b ce		 mov	 ecx, esi
  00096	ff 57 0c	 call	 DWORD PTR [edi+12]
  00099	8b 8d f4 fe ff
	ff		 mov	 ecx, DWORD PTR _kQuestData$[ebp]
  0009f	50		 push	 eax
  000a0	e8 00 00 00 00	 call	 ?GetCurrentData@QuestData@@QAEKXZ ; QuestData::GetCurrentData
  000a5	50		 push	 eax
  000a6	8b ce		 mov	 ecx, esi
  000a8	ff 57 10	 call	 DWORD PTR [edi+16]
  000ab	50		 push	 eax
  000ac	6a 00		 push	 0
  000ae	6a 02		 push	 2
  000b0	68 00 00 00 00	 push	 OFFSET ??_C@_00CNPNBAHC@?$AA@
  000b5	68 00 00 00 00	 push	 OFFSET ??_C@_0CO@IJNFNHFA@QuestEnterBattlePvPModeWin?3?3GetP@
  000ba	ff 15 00 00 00
	00		 call	 DWORD PTR __imp_?GetSingleton@ioStringManager@@SAAAV1@XZ
  000c0	8b c8		 mov	 ecx, eax
  000c2	ff 15 00 00 00
	00		 call	 DWORD PTR __imp_?GetString@ioStringManager@@QAEPADPBD0HW4FileNamePrefix@1@@Z
  000c8	50		 push	 eax
  000c9	8d 85 f8 fe ff
	ff		 lea	 eax, DWORD PTR _szBuf$[ebp]
  000cf	68 04 01 00 00	 push	 260			; 00000104H
  000d4	50		 push	 eax
  000d5	ff 15 00 00 00
	00		 call	 DWORD PTR __imp_?SafeSprintf@@YAXPADHPBDH@Z
  000db	83 c4 10	 add	 esp, 16			; 00000010H
  000de	5f		 pop	 edi
$LN1@GetProgres@5:

; 999  : 	}
; 1000 : 	m_szOutProgressResult = szBuf;

  000df	8d 85 f8 fe ff
	ff		 lea	 eax, DWORD PTR _szBuf$[ebp]
  000e5	50		 push	 eax
  000e6	8d 8e c4 00 00
	00		 lea	 ecx, DWORD PTR [esi+196]
  000ec	ff 15 00 00 00
	00		 call	 DWORD PTR __imp_??4ioHashString@@QAEAAV0@PBD@Z

; 1001 : 	return m_szOutProgressResult;
; 1002 : }

  000f2	8b 4d fc	 mov	 ecx, DWORD PTR __$ArrayPad$[ebp]
  000f5	8d 86 c4 00 00
	00		 lea	 eax, DWORD PTR [esi+196]
  000fb	33 cd		 xor	 ecx, ebp
  000fd	5e		 pop	 esi
  000fe	e8 00 00 00 00	 call	 @__security_check_cookie@4
  00103	c9		 leave
  00104	c3		 ret	 0
?GetProgressResult@QuestEnterBattlePvPModeWin@@UAEAAVioHashString@@XZ ENDP ; QuestEnterBattlePvPModeWin::GetProgressResult
_TEXT	ENDS
PUBLIC	??_C@_0DI@PFJEFAJN@QuestEnterBattlePvPModeWin?3?3GetP@ ; `string'
PUBLIC	__$ArrayPad$
PUBLIC	?GetProgressResultOnlyNumber@QuestEnterBattlePvPModeWin@@UAEAAVioHashString@@XZ ; QuestEnterBattlePvPModeWin::GetProgressResultOnlyNumber
;	COMDAT ??_C@_0DI@PFJEFAJN@QuestEnterBattlePvPModeWin?3?3GetP@
CONST	SEGMENT
??_C@_0DI@PFJEFAJN@QuestEnterBattlePvPModeWin?3?3GetP@ DB 'QuestEnterBatt'
	DB	'lePvPModeWin::GetProgressResultOnlyNumber', 00H ; `string'
; Function compile flags: /Ogsp
CONST	ENDS
;	COMDAT ?GetProgressResultOnlyNumber@QuestEnterBattlePvPModeWin@@UAEAAVioHashString@@XZ
_TEXT	SEGMENT
_kQuestData$ = -268					; size = 4
_szBuf$ = -264						; size = 260
__$ArrayPad$ = -4					; size = 4
?GetProgressResultOnlyNumber@QuestEnterBattlePvPModeWin@@UAEAAVioHashString@@XZ PROC ; QuestEnterBattlePvPModeWin::GetProgressResultOnlyNumber, COMDAT
; _this$ = ecx

; 1005 : {

  00000	55		 push	 ebp
  00001	8b ec		 mov	 ebp, esp
  00003	81 ec 0c 01 00
	00		 sub	 esp, 268		; 0000010cH
  00009	a1 00 00 00 00	 mov	 eax, DWORD PTR ___security_cookie
  0000e	33 c5		 xor	 eax, ebp
  00010	89 45 fc	 mov	 DWORD PTR __$ArrayPad$[ebp], eax
  00013	56		 push	 esi
  00014	8b f1		 mov	 esi, ecx

; 1006 : 	QuestData &kQuestData = GetMyInfoQuestData();

  00016	8b 06		 mov	 eax, DWORD PTR [esi]
  00018	ff 50 28	 call	 DWORD PTR [eax+40]

; 1007 : 	char szBuf[MAX_PATH] = "";

  0001b	68 03 01 00 00	 push	 259			; 00000103H
  00020	89 85 f4 fe ff
	ff		 mov	 DWORD PTR _kQuestData$[ebp], eax
  00026	8d 85 f9 fe ff
	ff		 lea	 eax, DWORD PTR _szBuf$[ebp+1]
  0002c	6a 00		 push	 0
  0002e	50		 push	 eax
  0002f	c6 85 f8 fe ff
	ff 00		 mov	 BYTE PTR _szBuf$[ebp], 0
  00036	e8 00 00 00 00	 call	 _memset
  0003b	83 c4 0c	 add	 esp, 12			; 0000000cH

; 1008 : 	if( !m_szProgressResult.IsEmpty() )

  0003e	8d 8e b4 00 00
	00		 lea	 ecx, DWORD PTR [esi+180]
  00044	ff 15 00 00 00
	00		 call	 DWORD PTR __imp_?IsEmpty@ioHashString@@QBE_NXZ
  0004a	84 c0		 test	 al, al
  0004c	75 4e		 jne	 SHORT $LN1@GetProgres@6

; 1009 : 		SafeSprintf( szBuf, sizeof( szBuf ), STR(1), GetProgressPercentage( kQuestData.GetCurrentData(), GetProgressCount() ) );

  0004e	57		 push	 edi
  0004f	8b 3e		 mov	 edi, DWORD PTR [esi]
  00051	8b ce		 mov	 ecx, esi
  00053	ff 57 0c	 call	 DWORD PTR [edi+12]
  00056	8b 8d f4 fe ff
	ff		 mov	 ecx, DWORD PTR _kQuestData$[ebp]
  0005c	50		 push	 eax
  0005d	e8 00 00 00 00	 call	 ?GetCurrentData@QuestData@@QAEKXZ ; QuestData::GetCurrentData
  00062	50		 push	 eax
  00063	8b ce		 mov	 ecx, esi
  00065	ff 57 10	 call	 DWORD PTR [edi+16]
  00068	50		 push	 eax
  00069	6a 00		 push	 0
  0006b	6a 01		 push	 1
  0006d	68 00 00 00 00	 push	 OFFSET ??_C@_00CNPNBAHC@?$AA@
  00072	68 00 00 00 00	 push	 OFFSET ??_C@_0DI@PFJEFAJN@QuestEnterBattlePvPModeWin?3?3GetP@
  00077	ff 15 00 00 00
	00		 call	 DWORD PTR __imp_?GetSingleton@ioStringManager@@SAAAV1@XZ
  0007d	8b c8		 mov	 ecx, eax
  0007f	ff 15 00 00 00
	00		 call	 DWORD PTR __imp_?GetString@ioStringManager@@QAEPADPBD0HW4FileNamePrefix@1@@Z
  00085	50		 push	 eax
  00086	8d 85 f8 fe ff
	ff		 lea	 eax, DWORD PTR _szBuf$[ebp]
  0008c	68 04 01 00 00	 push	 260			; 00000104H
  00091	50		 push	 eax
  00092	ff 15 00 00 00
	00		 call	 DWORD PTR __imp_?SafeSprintf@@YAXPADHPBDH@Z
  00098	83 c4 10	 add	 esp, 16			; 00000010H
  0009b	5f		 pop	 edi
$LN1@GetProgres@6:

; 1010 : 	m_szOutProgressResult = szBuf;

  0009c	8d 85 f8 fe ff
	ff		 lea	 eax, DWORD PTR _szBuf$[ebp]
  000a2	50		 push	 eax
  000a3	8d 8e c4 00 00
	00		 lea	 ecx, DWORD PTR [esi+196]
  000a9	ff 15 00 00 00
	00		 call	 DWORD PTR __imp_??4ioHashString@@QAEAAV0@PBD@Z

; 1011 : 	return m_szOutProgressResult;
; 1012 : }

  000af	8b 4d fc	 mov	 ecx, DWORD PTR __$ArrayPad$[ebp]
  000b2	8d 86 c4 00 00
	00		 lea	 eax, DWORD PTR [esi+196]
  000b8	33 cd		 xor	 ecx, ebp
  000ba	5e		 pop	 esi
  000bb	e8 00 00 00 00	 call	 @__security_check_cookie@4
  000c0	c9		 leave
  000c1	c3		 ret	 0
?GetProgressResultOnlyNumber@QuestEnterBattlePvPModeWin@@UAEAAVioHashString@@XZ ENDP ; QuestEnterBattlePvPModeWin::GetProgressResultOnlyNumber
_TEXT	ENDS
PUBLIC	?GetProgressResultOnlyText@QuestEnterBattlePvPModeWin@@UAEAAVioHashString@@XZ ; QuestEnterBattlePvPModeWin::GetProgressResultOnlyText
; Function compile flags: /Ogsp
;	COMDAT ?GetProgressResultOnlyText@QuestEnterBattlePvPModeWin@@UAEAAVioHashString@@XZ
_TEXT	SEGMENT
?GetProgressResultOnlyText@QuestEnterBattlePvPModeWin@@UAEAAVioHashString@@XZ PROC ; QuestEnterBattlePvPModeWin::GetProgressResultOnlyText, COMDAT
; _this$ = ecx

; 1015 : {

  00000	56		 push	 esi

; 1016 : 	m_szOutProgressResult = "";

  00001	8d b1 c4 00 00
	00		 lea	 esi, DWORD PTR [ecx+196]
  00007	68 00 00 00 00	 push	 OFFSET ??_C@_00CNPNBAHC@?$AA@
  0000c	8b ce		 mov	 ecx, esi
  0000e	ff 15 00 00 00
	00		 call	 DWORD PTR __imp_??4ioHashString@@QAEAAV0@PBD@Z

; 1017 : 	return m_szOutProgressResult;

  00014	8b c6		 mov	 eax, esi
  00016	5e		 pop	 esi

; 1018 : }

  00017	c3		 ret	 0
?GetProgressResultOnlyText@QuestEnterBattlePvPModeWin@@UAEAAVioHashString@@XZ ENDP ; QuestEnterBattlePvPModeWin::GetProgressResultOnlyText
_TEXT	ENDS
PUBLIC	?GetProgressGaugeRate@QuestEnterBattlePvPModeWin@@UAEMXZ ; QuestEnterBattlePvPModeWin::GetProgressGaugeRate
; Function compile flags: /Ogsp
;	COMDAT ?GetProgressGaugeRate@QuestEnterBattlePvPModeWin@@UAEMXZ
_TEXT	SEGMENT
?GetProgressGaugeRate@QuestEnterBattlePvPModeWin@@UAEMXZ PROC ; QuestEnterBattlePvPModeWin::GetProgressGaugeRate, COMDAT
; _this$ = ecx

; 1022 : 	return QuestParent::GetProgressGaugeRate();

  00000	e9 00 00 00 00	 jmp	 ?GetProgressGaugeRate@QuestParent@@UAEMXZ ; QuestParent::GetProgressGaugeRate
?GetProgressGaugeRate@QuestEnterBattlePvPModeWin@@UAEMXZ ENDP ; QuestEnterBattlePvPModeWin::GetProgressGaugeRate
_TEXT	ENDS
PUBLIC	?IsCheckAlreadyAttain@QuestGradeUP@@UAE_NXZ	; QuestGradeUP::IsCheckAlreadyAttain
EXTRN	?GetGradeLevel@ioMyInfo@@QAEHXZ:PROC		; ioMyInfo::GetGradeLevel
EXTRN	?GetSingleton@ioMyInfo@@SAAAV1@XZ:PROC		; ioMyInfo::GetSingleton
; Function compile flags: /Ogsp
;	COMDAT ?IsCheckAlreadyAttain@QuestGradeUP@@UAE_NXZ
_TEXT	SEGMENT
?IsCheckAlreadyAttain@QuestGradeUP@@UAE_NXZ PROC	; QuestGradeUP::IsCheckAlreadyAttain, COMDAT
; _this$ = ecx

; 1115 : {

  00000	56		 push	 esi
  00001	57		 push	 edi
  00002	8b f9		 mov	 edi, ecx

; 1116 : 	return SetAttainProcess( g_MyInfo.GetGradeLevel(), GetProgressCount() );

  00004	8b 37		 mov	 esi, DWORD PTR [edi]
  00006	ff 56 0c	 call	 DWORD PTR [esi+12]
  00009	50		 push	 eax
  0000a	e8 00 00 00 00	 call	 ?GetSingleton@ioMyInfo@@SAAAV1@XZ ; ioMyInfo::GetSingleton
  0000f	8b c8		 mov	 ecx, eax
  00011	e8 00 00 00 00	 call	 ?GetGradeLevel@ioMyInfo@@QAEHXZ ; ioMyInfo::GetGradeLevel
  00016	50		 push	 eax
  00017	8b cf		 mov	 ecx, edi
  00019	ff 56 40	 call	 DWORD PTR [esi+64]
  0001c	5f		 pop	 edi
  0001d	5e		 pop	 esi

; 1117 : }

  0001e	c3		 ret	 0
?IsCheckAlreadyAttain@QuestGradeUP@@UAE_NXZ ENDP	; QuestGradeUP::IsCheckAlreadyAttain
_TEXT	ENDS
PUBLIC	??_C@_0CA@HBOPFDBP@QuestGradeUP?3?3GetProgressResult?$AA@ ; `string'
PUBLIC	__$ArrayPad$
PUBLIC	?GetProgressResult@QuestGradeUP@@UAEAAVioHashString@@XZ ; QuestGradeUP::GetProgressResult
EXTRN	?GetGradeExpRate@ioMyInfo@@QAEHXZ:PROC		; ioMyInfo::GetGradeExpRate
EXTRN	?IsGeneralGrade@ioMyInfo@@QAE_NXZ:PROC		; ioMyInfo::IsGeneralGrade
;	COMDAT ??_C@_0CA@HBOPFDBP@QuestGradeUP?3?3GetProgressResult?$AA@
CONST	SEGMENT
??_C@_0CA@HBOPFDBP@QuestGradeUP?3?3GetProgressResult?$AA@ DB 'QuestGradeU'
	DB	'P::GetProgressResult', 00H			; `string'
; Function compile flags: /Ogsp
CONST	ENDS
;	COMDAT ?GetProgressResult@QuestGradeUP@@UAEAAVioHashString@@XZ
_TEXT	SEGMENT
_szBuf$ = -264						; size = 260
__$ArrayPad$ = -4					; size = 4
?GetProgressResult@QuestGradeUP@@UAEAAVioHashString@@XZ PROC ; QuestGradeUP::GetProgressResult, COMDAT
; _this$ = ecx

; 1125 : {

  00000	55		 push	 ebp
  00001	8b ec		 mov	 ebp, esp
  00003	81 ec 08 01 00
	00		 sub	 esp, 264		; 00000108H
  00009	a1 00 00 00 00	 mov	 eax, DWORD PTR ___security_cookie
  0000e	33 c5		 xor	 eax, ebp
  00010	89 45 fc	 mov	 DWORD PTR __$ArrayPad$[ebp], eax
  00013	53		 push	 ebx
  00014	56		 push	 esi

; 1126 : 	char szBuf[MAX_PATH] = "";

  00015	33 db		 xor	 ebx, ebx
  00017	68 03 01 00 00	 push	 259			; 00000103H
  0001c	8d 85 f9 fe ff
	ff		 lea	 eax, DWORD PTR _szBuf$[ebp+1]
  00022	53		 push	 ebx
  00023	50		 push	 eax
  00024	8b f1		 mov	 esi, ecx
  00026	88 9d f8 fe ff
	ff		 mov	 BYTE PTR _szBuf$[ebp], bl
  0002c	e8 00 00 00 00	 call	 _memset
  00031	83 c4 0c	 add	 esp, 12			; 0000000cH

; 1127 : 	if( !m_szProgressResult.IsEmpty() )

  00034	8d 8e b4 00 00
	00		 lea	 ecx, DWORD PTR [esi+180]
  0003a	ff 15 00 00 00
	00		 call	 DWORD PTR __imp_?IsEmpty@ioHashString@@QBE_NXZ
  00040	84 c0		 test	 al, al
  00042	0f 85 b4 00 00
	00		 jne	 $LN1@GetProgres@7

; 1128 : 	{
; 1129 : 		if( !IsMeProgressQuest() )

  00048	8b 06		 mov	 eax, DWORD PTR [esi]
  0004a	8b ce		 mov	 ecx, esi
  0004c	ff 50 2c	 call	 DWORD PTR [eax+44]
  0004f	84 c0		 test	 al, al
  00051	75 05		 jne	 SHORT $LN5@GetProgres@7

; 1130 : 			SafeSprintf( szBuf, sizeof( szBuf ), STR(1) );

  00053	53		 push	 ebx
  00054	6a 01		 push	 1

; 1131 : 		else

  00056	eb 76		 jmp	 SHORT $LN9@GetProgres@7
$LN5@GetProgres@7:
  00058	57		 push	 edi

; 1132 : 		{
; 1133 : 			//    - 
; 1134 : 			if( abs( GetProgressCount() - g_MyInfo.GetGradeLevel() ) == 1 )

  00059	e8 00 00 00 00	 call	 ?GetSingleton@ioMyInfo@@SAAAV1@XZ ; ioMyInfo::GetSingleton
  0005e	8b c8		 mov	 ecx, eax
  00060	e8 00 00 00 00	 call	 ?GetGradeLevel@ioMyInfo@@QAEHXZ ; ioMyInfo::GetGradeLevel
  00065	8b f8		 mov	 edi, eax
  00067	8b 06		 mov	 eax, DWORD PTR [esi]
  00069	8b ce		 mov	 ecx, esi
  0006b	ff 50 0c	 call	 DWORD PTR [eax+12]
  0006e	2b c7		 sub	 eax, edi
  00070	99		 cdq
  00071	33 c2		 xor	 eax, edx
  00073	2b c2		 sub	 eax, edx
  00075	5f		 pop	 edi
  00076	83 f8 01	 cmp	 eax, 1
  00079	75 50		 jne	 SHORT $LN3@GetProgres@7

; 1135 : 			{
; 1136 : 				if( !g_MyInfo.IsGeneralGrade() )

  0007b	e8 00 00 00 00	 call	 ?GetSingleton@ioMyInfo@@SAAAV1@XZ ; ioMyInfo::GetSingleton
  00080	8b c8		 mov	 ecx, eax
  00082	e8 00 00 00 00	 call	 ?IsGeneralGrade@ioMyInfo@@QAE_NXZ ; ioMyInfo::IsGeneralGrade
  00087	84 c0		 test	 al, al
  00089	75 71		 jne	 SHORT $LN1@GetProgres@7

; 1137 : 				{
; 1138 : 					SafeSprintf( szBuf, sizeof( szBuf ), STR(2), g_MyInfo.GetGradeExpRate() );

  0008b	e8 00 00 00 00	 call	 ?GetSingleton@ioMyInfo@@SAAAV1@XZ ; ioMyInfo::GetSingleton
  00090	8b c8		 mov	 ecx, eax
  00092	e8 00 00 00 00	 call	 ?GetGradeExpRate@ioMyInfo@@QAEHXZ ; ioMyInfo::GetGradeExpRate
  00097	50		 push	 eax
  00098	53		 push	 ebx
  00099	6a 02		 push	 2
  0009b	68 00 00 00 00	 push	 OFFSET ??_C@_00CNPNBAHC@?$AA@
  000a0	68 00 00 00 00	 push	 OFFSET ??_C@_0CA@HBOPFDBP@QuestGradeUP?3?3GetProgressResult?$AA@
  000a5	ff 15 00 00 00
	00		 call	 DWORD PTR __imp_?GetSingleton@ioStringManager@@SAAAV1@XZ
  000ab	8b c8		 mov	 ecx, eax
  000ad	ff 15 00 00 00
	00		 call	 DWORD PTR __imp_?GetString@ioStringManager@@QAEPADPBD0HW4FileNamePrefix@1@@Z
  000b3	50		 push	 eax
  000b4	8d 85 f8 fe ff
	ff		 lea	 eax, DWORD PTR _szBuf$[ebp]
  000ba	68 04 01 00 00	 push	 260			; 00000104H
  000bf	50		 push	 eax
  000c0	ff 15 00 00 00
	00		 call	 DWORD PTR __imp_?SafeSprintf@@YAXPADHPBDH@Z
  000c6	83 c4 10	 add	 esp, 16			; 00000010H

; 1139 : 				}
; 1140 : 			}
; 1141 : 			else

  000c9	eb 31		 jmp	 SHORT $LN1@GetProgres@7
$LN3@GetProgres@7:

; 1142 : 				SafeSprintf( szBuf, sizeof( szBuf ), STR(3) );

  000cb	53		 push	 ebx
  000cc	6a 03		 push	 3
$LN9@GetProgres@7:
  000ce	68 00 00 00 00	 push	 OFFSET ??_C@_00CNPNBAHC@?$AA@
  000d3	68 00 00 00 00	 push	 OFFSET ??_C@_0CA@HBOPFDBP@QuestGradeUP?3?3GetProgressResult?$AA@
  000d8	ff 15 00 00 00
	00		 call	 DWORD PTR __imp_?GetSingleton@ioStringManager@@SAAAV1@XZ
  000de	8b c8		 mov	 ecx, eax
  000e0	ff 15 00 00 00
	00		 call	 DWORD PTR __imp_?GetString@ioStringManager@@QAEPADPBD0HW4FileNamePrefix@1@@Z
  000e6	50		 push	 eax
  000e7	8d 85 f8 fe ff
	ff		 lea	 eax, DWORD PTR _szBuf$[ebp]
  000ed	68 04 01 00 00	 push	 260			; 00000104H
  000f2	50		 push	 eax
  000f3	ff 15 00 00 00
	00		 call	 DWORD PTR __imp_?SafeSprintf@@YAXPADHPBDZZ
  000f9	83 c4 0c	 add	 esp, 12			; 0000000cH
$LN1@GetProgres@7:

; 1143 : 		}
; 1144 : 	}
; 1145 : 	m_szOutProgressResult = szBuf;

  000fc	8d 85 f8 fe ff
	ff		 lea	 eax, DWORD PTR _szBuf$[ebp]
  00102	50		 push	 eax
  00103	8d 8e c4 00 00
	00		 lea	 ecx, DWORD PTR [esi+196]
  00109	ff 15 00 00 00
	00		 call	 DWORD PTR __imp_??4ioHashString@@QAEAAV0@PBD@Z

; 1146 : 	return m_szOutProgressResult;
; 1147 : }

  0010f	8b 4d fc	 mov	 ecx, DWORD PTR __$ArrayPad$[ebp]
  00112	8d 86 c4 00 00
	00		 lea	 eax, DWORD PTR [esi+196]
  00118	5e		 pop	 esi
  00119	33 cd		 xor	 ecx, ebp
  0011b	5b		 pop	 ebx
  0011c	e8 00 00 00 00	 call	 @__security_check_cookie@4
  00121	c9		 leave
  00122	c3		 ret	 0
?GetProgressResult@QuestGradeUP@@UAEAAVioHashString@@XZ ENDP ; QuestGradeUP::GetProgressResult
_TEXT	ENDS
PUBLIC	??_C@_0CK@OCAAGGPI@QuestGradeUP?3?3GetProgressResultO@ ; `string'
PUBLIC	__$ArrayPad$
PUBLIC	?GetProgressResultOnlyNumber@QuestGradeUP@@UAEAAVioHashString@@XZ ; QuestGradeUP::GetProgressResultOnlyNumber
;	COMDAT ??_C@_0CK@OCAAGGPI@QuestGradeUP?3?3GetProgressResultO@
CONST	SEGMENT
??_C@_0CK@OCAAGGPI@QuestGradeUP?3?3GetProgressResultO@ DB 'QuestGradeUP::'
	DB	'GetProgressResultOnlyNumber', 00H		; `string'
; Function compile flags: /Ogsp
CONST	ENDS
;	COMDAT ?GetProgressResultOnlyNumber@QuestGradeUP@@UAEAAVioHashString@@XZ
_TEXT	SEGMENT
_szBuf$ = -264						; size = 260
__$ArrayPad$ = -4					; size = 4
?GetProgressResultOnlyNumber@QuestGradeUP@@UAEAAVioHashString@@XZ PROC ; QuestGradeUP::GetProgressResultOnlyNumber, COMDAT
; _this$ = ecx

; 1150 : {

  00000	55		 push	 ebp
  00001	8b ec		 mov	 ebp, esp
  00003	81 ec 08 01 00
	00		 sub	 esp, 264		; 00000108H
  00009	a1 00 00 00 00	 mov	 eax, DWORD PTR ___security_cookie
  0000e	33 c5		 xor	 eax, ebp
  00010	89 45 fc	 mov	 DWORD PTR __$ArrayPad$[ebp], eax
  00013	56		 push	 esi

; 1151 : 	char szBuf[MAX_PATH] = "";

  00014	68 03 01 00 00	 push	 259			; 00000103H
  00019	8d 85 f9 fe ff
	ff		 lea	 eax, DWORD PTR _szBuf$[ebp+1]
  0001f	6a 00		 push	 0
  00021	50		 push	 eax
  00022	8b f1		 mov	 esi, ecx
  00024	c6 85 f8 fe ff
	ff 00		 mov	 BYTE PTR _szBuf$[ebp], 0
  0002b	e8 00 00 00 00	 call	 _memset
  00030	83 c4 0c	 add	 esp, 12			; 0000000cH

; 1152 : 	if( !m_szProgressResult.IsEmpty() )

  00033	8d 8e b4 00 00
	00		 lea	 ecx, DWORD PTR [esi+180]
  00039	ff 15 00 00 00
	00		 call	 DWORD PTR __imp_?IsEmpty@ioHashString@@QBE_NXZ
  0003f	84 c0		 test	 al, al
  00041	0f 85 96 00 00
	00		 jne	 $LN1@GetProgres@8

; 1153 : 	{
; 1154 : 		//    - 
; 1155 : 		if( abs( GetProgressCount() - g_MyInfo.GetGradeLevel() ) == 1 )

  00047	57		 push	 edi
  00048	e8 00 00 00 00	 call	 ?GetSingleton@ioMyInfo@@SAAAV1@XZ ; ioMyInfo::GetSingleton
  0004d	8b c8		 mov	 ecx, eax
  0004f	e8 00 00 00 00	 call	 ?GetGradeLevel@ioMyInfo@@QAEHXZ ; ioMyInfo::GetGradeLevel
  00054	8b f8		 mov	 edi, eax
  00056	8b 06		 mov	 eax, DWORD PTR [esi]
  00058	8b ce		 mov	 ecx, esi
  0005a	ff 50 0c	 call	 DWORD PTR [eax+12]
  0005d	2b c7		 sub	 eax, edi
  0005f	99		 cdq
  00060	33 c2		 xor	 eax, edx
  00062	2b c2		 sub	 eax, edx
  00064	5f		 pop	 edi
  00065	83 f8 01	 cmp	 eax, 1
  00068	75 41		 jne	 SHORT $LN2@GetProgres@8

; 1156 : 			SafeSprintf( szBuf, sizeof( szBuf ), STR(1), g_MyInfo.GetGradeExpRate() );

  0006a	e8 00 00 00 00	 call	 ?GetSingleton@ioMyInfo@@SAAAV1@XZ ; ioMyInfo::GetSingleton
  0006f	8b c8		 mov	 ecx, eax
  00071	e8 00 00 00 00	 call	 ?GetGradeExpRate@ioMyInfo@@QAEHXZ ; ioMyInfo::GetGradeExpRate
  00076	50		 push	 eax
  00077	6a 00		 push	 0
  00079	6a 01		 push	 1
  0007b	68 00 00 00 00	 push	 OFFSET ??_C@_00CNPNBAHC@?$AA@
  00080	68 00 00 00 00	 push	 OFFSET ??_C@_0CK@OCAAGGPI@QuestGradeUP?3?3GetProgressResultO@
  00085	ff 15 00 00 00
	00		 call	 DWORD PTR __imp_?GetSingleton@ioStringManager@@SAAAV1@XZ
  0008b	8b c8		 mov	 ecx, eax
  0008d	ff 15 00 00 00
	00		 call	 DWORD PTR __imp_?GetString@ioStringManager@@QAEPADPBD0HW4FileNamePrefix@1@@Z
  00093	50		 push	 eax
  00094	8d 85 f8 fe ff
	ff		 lea	 eax, DWORD PTR _szBuf$[ebp]
  0009a	68 04 01 00 00	 push	 260			; 00000104H
  0009f	50		 push	 eax
  000a0	ff 15 00 00 00
	00		 call	 DWORD PTR __imp_?SafeSprintf@@YAXPADHPBDH@Z
  000a6	83 c4 10	 add	 esp, 16			; 00000010H

; 1157 : 		else

  000a9	eb 32		 jmp	 SHORT $LN1@GetProgres@8
$LN2@GetProgres@8:

; 1158 : 			SafeSprintf( szBuf, sizeof( szBuf ), STR(2) );

  000ab	6a 00		 push	 0
  000ad	6a 02		 push	 2
  000af	68 00 00 00 00	 push	 OFFSET ??_C@_00CNPNBAHC@?$AA@
  000b4	68 00 00 00 00	 push	 OFFSET ??_C@_0CK@OCAAGGPI@QuestGradeUP?3?3GetProgressResultO@
  000b9	ff 15 00 00 00
	00		 call	 DWORD PTR __imp_?GetSingleton@ioStringManager@@SAAAV1@XZ
  000bf	8b c8		 mov	 ecx, eax
  000c1	ff 15 00 00 00
	00		 call	 DWORD PTR __imp_?GetString@ioStringManager@@QAEPADPBD0HW4FileNamePrefix@1@@Z
  000c7	50		 push	 eax
  000c8	8d 85 f8 fe ff
	ff		 lea	 eax, DWORD PTR _szBuf$[ebp]
  000ce	68 04 01 00 00	 push	 260			; 00000104H
  000d3	50		 push	 eax
  000d4	ff 15 00 00 00
	00		 call	 DWORD PTR __imp_?SafeSprintf@@YAXPADHPBDZZ
  000da	83 c4 0c	 add	 esp, 12			; 0000000cH
$LN1@GetProgres@8:

; 1159 : 	}
; 1160 : 	m_szOutProgressResult = szBuf;

  000dd	8d 85 f8 fe ff
	ff		 lea	 eax, DWORD PTR _szBuf$[ebp]
  000e3	50		 push	 eax
  000e4	8d 8e c4 00 00
	00		 lea	 ecx, DWORD PTR [esi+196]
  000ea	ff 15 00 00 00
	00		 call	 DWORD PTR __imp_??4ioHashString@@QAEAAV0@PBD@Z

; 1161 : 	return m_szOutProgressResult;
; 1162 : }

  000f0	8b 4d fc	 mov	 ecx, DWORD PTR __$ArrayPad$[ebp]
  000f3	8d 86 c4 00 00
	00		 lea	 eax, DWORD PTR [esi+196]
  000f9	33 cd		 xor	 ecx, ebp
  000fb	5e		 pop	 esi
  000fc	e8 00 00 00 00	 call	 @__security_check_cookie@4
  00101	c9		 leave
  00102	c3		 ret	 0
?GetProgressResultOnlyNumber@QuestGradeUP@@UAEAAVioHashString@@XZ ENDP ; QuestGradeUP::GetProgressResultOnlyNumber
_TEXT	ENDS
PUBLIC	?GetProgressResultOnlyText@QuestGradeUP@@UAEAAVioHashString@@XZ ; QuestGradeUP::GetProgressResultOnlyText
; Function compile flags: /Ogsp
;	COMDAT ?GetProgressResultOnlyText@QuestGradeUP@@UAEAAVioHashString@@XZ
_TEXT	SEGMENT
?GetProgressResultOnlyText@QuestGradeUP@@UAEAAVioHashString@@XZ PROC ; QuestGradeUP::GetProgressResultOnlyText, COMDAT
; _this$ = ecx

; 1165 : {

  00000	56		 push	 esi

; 1166 : 	m_szOutProgressResult = "";

  00001	8d b1 c4 00 00
	00		 lea	 esi, DWORD PTR [ecx+196]
  00007	68 00 00 00 00	 push	 OFFSET ??_C@_00CNPNBAHC@?$AA@
  0000c	8b ce		 mov	 ecx, esi
  0000e	ff 15 00 00 00
	00		 call	 DWORD PTR __imp_??4ioHashString@@QAEAAV0@PBD@Z

; 1167 : 	return m_szOutProgressResult;

  00014	8b c6		 mov	 eax, esi
  00016	5e		 pop	 esi

; 1168 : }

  00017	c3		 ret	 0
?GetProgressResultOnlyText@QuestGradeUP@@UAEAAVioHashString@@XZ ENDP ; QuestGradeUP::GetProgressResultOnlyText
_TEXT	ENDS
PUBLIC	?GetProgressGaugeRate@QuestGradeUP@@UAEMXZ	; QuestGradeUP::GetProgressGaugeRate
; Function compile flags: /Ogsp
;	COMDAT ?GetProgressGaugeRate@QuestGradeUP@@UAEMXZ
_TEXT	SEGMENT
tv171 = -4						; size = 4
tv143 = -4						; size = 4
tv135 = -4						; size = 4
tv81 = -4						; size = 4
?GetProgressGaugeRate@QuestGradeUP@@UAEMXZ PROC		; QuestGradeUP::GetProgressGaugeRate, COMDAT
; _this$ = ecx

; 1171 : {

  00000	55		 push	 ebp
  00001	8b ec		 mov	 ebp, esp
  00003	51		 push	 ecx
  00004	56		 push	 esi
  00005	8b f1		 mov	 esi, ecx

; 1172 : 	if( !IsMeProgressQuest() )

  00007	8b 06		 mov	 eax, DWORD PTR [esi]
  00009	ff 50 2c	 call	 DWORD PTR [eax+44]
  0000c	84 c0		 test	 al, al
  0000e	75 17		 jne	 SHORT $LN2@GetProgres@9

; 1173 : 		return FLOAT1;

  00010	b8 01 00 00 00	 mov	 eax, 1
  00015	89 45 fc	 mov	 DWORD PTR tv171[ebp], eax
  00018	db 45 fc	 fild	 DWORD PTR tv171[ebp]
  0001b	85 c0		 test	 eax, eax
  0001d	79 60		 jns	 SHORT $LN3@GetProgres@9
  0001f	d8 05 00 00 00
	00		 fadd	 DWORD PTR __real@4f800000
  00025	eb 58		 jmp	 SHORT $LN3@GetProgres@9
$LN2@GetProgres@9:
  00027	57		 push	 edi

; 1174 : 
; 1175 : 	//    - 
; 1176 : 	if( abs( GetProgressCount() - g_MyInfo.GetGradeLevel() ) == 1 )

  00028	e8 00 00 00 00	 call	 ?GetSingleton@ioMyInfo@@SAAAV1@XZ ; ioMyInfo::GetSingleton
  0002d	8b c8		 mov	 ecx, eax
  0002f	e8 00 00 00 00	 call	 ?GetGradeLevel@ioMyInfo@@QAEHXZ ; ioMyInfo::GetGradeLevel
  00034	8b f8		 mov	 edi, eax
  00036	8b 06		 mov	 eax, DWORD PTR [esi]
  00038	8b ce		 mov	 ecx, esi
  0003a	ff 50 0c	 call	 DWORD PTR [eax+12]
  0003d	2b c7		 sub	 eax, edi
  0003f	99		 cdq
  00040	33 c2		 xor	 eax, edx
  00042	2b c2		 sub	 eax, edx
  00044	5f		 pop	 edi
  00045	83 f8 01	 cmp	 eax, 1
  00048	75 33		 jne	 SHORT $LN1@GetProgres@9

; 1177 : 		return (float)g_MyInfo.GetGradeExpRate() / FLOAT100;

  0004a	b8 64 00 00 00	 mov	 eax, 100		; 00000064H
  0004f	8b f0		 mov	 esi, eax
  00051	e8 00 00 00 00	 call	 ?GetSingleton@ioMyInfo@@SAAAV1@XZ ; ioMyInfo::GetSingleton
  00056	8b c8		 mov	 ecx, eax
  00058	e8 00 00 00 00	 call	 ?GetGradeExpRate@ioMyInfo@@QAEHXZ ; ioMyInfo::GetGradeExpRate
  0005d	89 45 fc	 mov	 DWORD PTR tv143[ebp], eax
  00060	db 45 fc	 fild	 DWORD PTR tv143[ebp]
  00063	89 75 fc	 mov	 DWORD PTR tv135[ebp], esi
  00066	db 45 fc	 fild	 DWORD PTR tv135[ebp]
  00069	85 f6		 test	 esi, esi
  0006b	79 06		 jns	 SHORT $LN10@GetProgres@9
  0006d	d8 05 00 00 00
	00		 fadd	 DWORD PTR __real@4f800000
$LN10@GetProgres@9:
  00073	de f9		 fdivp	 ST(1), ST(0)
  00075	d9 5d fc	 fstp	 DWORD PTR tv81[ebp]
  00078	d9 45 fc	 fld	 DWORD PTR tv81[ebp]
  0007b	eb 02		 jmp	 SHORT $LN3@GetProgres@9
$LN1@GetProgres@9:

; 1178 : 	return 0.0f;

  0007d	d9 ee		 fldz
$LN3@GetProgres@9:
  0007f	5e		 pop	 esi

; 1179 : }

  00080	c9		 leave
  00081	c3		 ret	 0
?GetProgressGaugeRate@QuestGradeUP@@UAEMXZ ENDP		; QuestGradeUP::GetProgressGaugeRate
_TEXT	ENDS
PUBLIC	?IsCheckAlreadyAttain@QuestFishingLevelUP@@UAE_NXZ ; QuestFishingLevelUP::IsCheckAlreadyAttain
EXTRN	?GetFishingLevel@ioMyInfo@@QAEHXZ:PROC		; ioMyInfo::GetFishingLevel
; Function compile flags: /Ogsp
;	COMDAT ?IsCheckAlreadyAttain@QuestFishingLevelUP@@UAE_NXZ
_TEXT	SEGMENT
?IsCheckAlreadyAttain@QuestFishingLevelUP@@UAE_NXZ PROC	; QuestFishingLevelUP::IsCheckAlreadyAttain, COMDAT
; _this$ = ecx

; 1381 : {

  00000	56		 push	 esi
  00001	57		 push	 edi
  00002	8b f9		 mov	 edi, ecx

; 1382 : 	return SetAttainProcess( g_MyInfo.GetFishingLevel(), GetProgressCount() );

  00004	8b 37		 mov	 esi, DWORD PTR [edi]
  00006	ff 56 0c	 call	 DWORD PTR [esi+12]
  00009	50		 push	 eax
  0000a	e8 00 00 00 00	 call	 ?GetSingleton@ioMyInfo@@SAAAV1@XZ ; ioMyInfo::GetSingleton
  0000f	8b c8		 mov	 ecx, eax
  00011	e8 00 00 00 00	 call	 ?GetFishingLevel@ioMyInfo@@QAEHXZ ; ioMyInfo::GetFishingLevel
  00016	50		 push	 eax
  00017	8b cf		 mov	 ecx, edi
  00019	ff 56 40	 call	 DWORD PTR [esi+64]
  0001c	5f		 pop	 edi
  0001d	5e		 pop	 esi

; 1383 : }

  0001e	c3		 ret	 0
?IsCheckAlreadyAttain@QuestFishingLevelUP@@UAE_NXZ ENDP	; QuestFishingLevelUP::IsCheckAlreadyAttain
_TEXT	ENDS
PUBLIC	?GetProgressResultOnlyText@QuestFishingLevelUP@@UAEAAVioHashString@@XZ ; QuestFishingLevelUP::GetProgressResultOnlyText
; Function compile flags: /Ogsp
;	COMDAT ?GetProgressResultOnlyText@QuestFishingLevelUP@@UAEAAVioHashString@@XZ
_TEXT	SEGMENT
?GetProgressResultOnlyText@QuestFishingLevelUP@@UAEAAVioHashString@@XZ PROC ; QuestFishingLevelUP::GetProgressResultOnlyText, COMDAT
; _this$ = ecx

; 1420 : {

  00000	56		 push	 esi

; 1421 : 	m_szOutProgressResult = "";

  00001	8d b1 c4 00 00
	00		 lea	 esi, DWORD PTR [ecx+196]
  00007	68 00 00 00 00	 push	 OFFSET ??_C@_00CNPNBAHC@?$AA@
  0000c	8b ce		 mov	 ecx, esi
  0000e	ff 15 00 00 00
	00		 call	 DWORD PTR __imp_??4ioHashString@@QAEAAV0@PBD@Z

; 1422 : 	return m_szOutProgressResult;

  00014	8b c6		 mov	 eax, esi
  00016	5e		 pop	 esi

; 1423 : }

  00017	c3		 ret	 0
?GetProgressResultOnlyText@QuestFishingLevelUP@@UAEAAVioHashString@@XZ ENDP ; QuestFishingLevelUP::GetProgressResultOnlyText
_TEXT	ENDS
PUBLIC	?GetProgressResultOnlyText@QuestSoldierLevelUP@@UAEAAVioHashString@@XZ ; QuestSoldierLevelUP::GetProgressResultOnlyText
; Function compile flags: /Ogsp
;	COMDAT ?GetProgressResultOnlyText@QuestSoldierLevelUP@@UAEAAVioHashString@@XZ
_TEXT	SEGMENT
?GetProgressResultOnlyText@QuestSoldierLevelUP@@UAEAAVioHashString@@XZ PROC ; QuestSoldierLevelUP::GetProgressResultOnlyText, COMDAT
; _this$ = ecx

; 1695 : {

  00000	56		 push	 esi

; 1696 : 	m_szOutProgressResult = "";

  00001	8d b1 c4 00 00
	00		 lea	 esi, DWORD PTR [ecx+196]
  00007	68 00 00 00 00	 push	 OFFSET ??_C@_00CNPNBAHC@?$AA@
  0000c	8b ce		 mov	 ecx, esi
  0000e	ff 15 00 00 00
	00		 call	 DWORD PTR __imp_??4ioHashString@@QAEAAV0@PBD@Z

; 1697 : 	return m_szOutProgressResult;

  00014	8b c6		 mov	 eax, esi
  00016	5e		 pop	 esi

; 1698 : }

  00017	c3		 ret	 0
?GetProgressResultOnlyText@QuestSoldierLevelUP@@UAEAAVioHashString@@XZ ENDP ; QuestSoldierLevelUP::GetProgressResultOnlyText
_TEXT	ENDS
PUBLIC	??_C@_0CF@ECGADACG@QuestCampBattleKO?3?3GetProgressRe@ ; `string'
PUBLIC	__$ArrayPad$
PUBLIC	?GetProgressResult@QuestCampBattleKO@@UAEAAVioHashString@@XZ ; QuestCampBattleKO::GetProgressResult
;	COMDAT ??_C@_0CF@ECGADACG@QuestCampBattleKO?3?3GetProgressRe@
CONST	SEGMENT
??_C@_0CF@ECGADACG@QuestCampBattleKO?3?3GetProgressRe@ DB 'QuestCampBattl'
	DB	'eKO::GetProgressResult', 00H		; `string'
; Function compile flags: /Ogsp
CONST	ENDS
;	COMDAT ?GetProgressResult@QuestCampBattleKO@@UAEAAVioHashString@@XZ
_TEXT	SEGMENT
_kQuestData$ = -268					; size = 4
_szBuf$ = -264						; size = 260
__$ArrayPad$ = -4					; size = 4
?GetProgressResult@QuestCampBattleKO@@UAEAAVioHashString@@XZ PROC ; QuestCampBattleKO::GetProgressResult, COMDAT
; _this$ = ecx

; 2121 : {

  00000	55		 push	 ebp
  00001	8b ec		 mov	 ebp, esp
  00003	81 ec 0c 01 00
	00		 sub	 esp, 268		; 0000010cH
  00009	a1 00 00 00 00	 mov	 eax, DWORD PTR ___security_cookie
  0000e	33 c5		 xor	 eax, ebp
  00010	89 45 fc	 mov	 DWORD PTR __$ArrayPad$[ebp], eax
  00013	56		 push	 esi
  00014	8b f1		 mov	 esi, ecx

; 2122 : 	QuestData &kQuestData = GetMyInfoQuestData();

  00016	8b 06		 mov	 eax, DWORD PTR [esi]
  00018	ff 50 28	 call	 DWORD PTR [eax+40]

; 2123 : 	char szBuf[MAX_PATH] = "";

  0001b	68 03 01 00 00	 push	 259			; 00000103H
  00020	89 85 f4 fe ff
	ff		 mov	 DWORD PTR _kQuestData$[ebp], eax
  00026	8d 85 f9 fe ff
	ff		 lea	 eax, DWORD PTR _szBuf$[ebp+1]
  0002c	6a 00		 push	 0
  0002e	50		 push	 eax
  0002f	c6 85 f8 fe ff
	ff 00		 mov	 BYTE PTR _szBuf$[ebp], 0
  00036	e8 00 00 00 00	 call	 _memset
  0003b	83 c4 0c	 add	 esp, 12			; 0000000cH

; 2124 : 	if( !m_szProgressResult.IsEmpty() )

  0003e	8d 8e b4 00 00
	00		 lea	 ecx, DWORD PTR [esi+180]
  00044	ff 15 00 00 00
	00		 call	 DWORD PTR __imp_?IsEmpty@ioHashString@@QBE_NXZ
  0004a	84 c0		 test	 al, al
  0004c	0f 85 8d 00 00
	00		 jne	 $LN1@GetProgres@10

; 2125 : 	{
; 2126 : 		if( !IsMeProgressQuest() )

  00052	8b 06		 mov	 eax, DWORD PTR [esi]
  00054	8b ce		 mov	 ecx, esi
  00056	ff 50 2c	 call	 DWORD PTR [eax+44]
  00059	84 c0		 test	 al, al
  0005b	75 34		 jne	 SHORT $LN2@GetProgres@10

; 2127 : 			SafeSprintf( szBuf, sizeof( szBuf ), STR(1) );

  0005d	6a 00		 push	 0
  0005f	6a 01		 push	 1
  00061	68 00 00 00 00	 push	 OFFSET ??_C@_00CNPNBAHC@?$AA@
  00066	68 00 00 00 00	 push	 OFFSET ??_C@_0CF@ECGADACG@QuestCampBattleKO?3?3GetProgressRe@
  0006b	ff 15 00 00 00
	00		 call	 DWORD PTR __imp_?GetSingleton@ioStringManager@@SAAAV1@XZ
  00071	8b c8		 mov	 ecx, eax
  00073	ff 15 00 00 00
	00		 call	 DWORD PTR __imp_?GetString@ioStringManager@@QAEPADPBD0HW4FileNamePrefix@1@@Z
  00079	50		 push	 eax
  0007a	8d 85 f8 fe ff
	ff		 lea	 eax, DWORD PTR _szBuf$[ebp]
  00080	68 04 01 00 00	 push	 260			; 00000104H
  00085	50		 push	 eax
  00086	ff 15 00 00 00
	00		 call	 DWORD PTR __imp_?SafeSprintf@@YAXPADHPBDZZ
  0008c	83 c4 0c	 add	 esp, 12			; 0000000cH

; 2128 : 		else

  0008f	eb 4e		 jmp	 SHORT $LN1@GetProgres@10
$LN2@GetProgres@10:
  00091	57		 push	 edi

; 2129 : 			SafeSprintf( szBuf, sizeof( szBuf ), STR(2), GetProgressPercentage( kQuestData.GetCurrentData(), GetProgressCount() ) );

  00092	8b 3e		 mov	 edi, DWORD PTR [esi]
  00094	8b ce		 mov	 ecx, esi
  00096	ff 57 0c	 call	 DWORD PTR [edi+12]
  00099	8b 8d f4 fe ff
	ff		 mov	 ecx, DWORD PTR _kQuestData$[ebp]
  0009f	50		 push	 eax
  000a0	e8 00 00 00 00	 call	 ?GetCurrentData@QuestData@@QAEKXZ ; QuestData::GetCurrentData
  000a5	50		 push	 eax
  000a6	8b ce		 mov	 ecx, esi
  000a8	ff 57 10	 call	 DWORD PTR [edi+16]
  000ab	50		 push	 eax
  000ac	6a 00		 push	 0
  000ae	6a 02		 push	 2
  000b0	68 00 00 00 00	 push	 OFFSET ??_C@_00CNPNBAHC@?$AA@
  000b5	68 00 00 00 00	 push	 OFFSET ??_C@_0CF@ECGADACG@QuestCampBattleKO?3?3GetProgressRe@
  000ba	ff 15 00 00 00
	00		 call	 DWORD PTR __imp_?GetSingleton@ioStringManager@@SAAAV1@XZ
  000c0	8b c8		 mov	 ecx, eax
  000c2	ff 15 00 00 00
	00		 call	 DWORD PTR __imp_?GetString@ioStringManager@@QAEPADPBD0HW4FileNamePrefix@1@@Z
  000c8	50		 push	 eax
  000c9	8d 85 f8 fe ff
	ff		 lea	 eax, DWORD PTR _szBuf$[ebp]
  000cf	68 04 01 00 00	 push	 260			; 00000104H
  000d4	50		 push	 eax
  000d5	ff 15 00 00 00
	00		 call	 DWORD PTR __imp_?SafeSprintf@@YAXPADHPBDH@Z
  000db	83 c4 10	 add	 esp, 16			; 00000010H
  000de	5f		 pop	 edi
$LN1@GetProgres@10:

; 2130 : 	}
; 2131 : 	m_szOutProgressResult = szBuf;

  000df	8d 85 f8 fe ff
	ff		 lea	 eax, DWORD PTR _szBuf$[ebp]
  000e5	50		 push	 eax
  000e6	8d 8e c4 00 00
	00		 lea	 ecx, DWORD PTR [esi+196]
  000ec	ff 15 00 00 00
	00		 call	 DWORD PTR __imp_??4ioHashString@@QAEAAV0@PBD@Z

; 2132 : 	return m_szOutProgressResult;
; 2133 : }

  000f2	8b 4d fc	 mov	 ecx, DWORD PTR __$ArrayPad$[ebp]
  000f5	8d 86 c4 00 00
	00		 lea	 eax, DWORD PTR [esi+196]
  000fb	33 cd		 xor	 ecx, ebp
  000fd	5e		 pop	 esi
  000fe	e8 00 00 00 00	 call	 @__security_check_cookie@4
  00103	c9		 leave
  00104	c3		 ret	 0
?GetProgressResult@QuestCampBattleKO@@UAEAAVioHashString@@XZ ENDP ; QuestCampBattleKO::GetProgressResult
_TEXT	ENDS
PUBLIC	??_C@_0CP@JIFKNC@QuestCampBattleKO?3?3GetProgressRe@ ; `string'
PUBLIC	__$ArrayPad$
PUBLIC	?GetProgressResultOnlyNumber@QuestCampBattleKO@@UAEAAVioHashString@@XZ ; QuestCampBattleKO::GetProgressResultOnlyNumber
;	COMDAT ??_C@_0CP@JIFKNC@QuestCampBattleKO?3?3GetProgressRe@
CONST	SEGMENT
??_C@_0CP@JIFKNC@QuestCampBattleKO?3?3GetProgressRe@ DB 'QuestCampBattleK'
	DB	'O::GetProgressResultOnlyNumber', 00H	; `string'
; Function compile flags: /Ogsp
CONST	ENDS
;	COMDAT ?GetProgressResultOnlyNumber@QuestCampBattleKO@@UAEAAVioHashString@@XZ
_TEXT	SEGMENT
_kQuestData$ = -268					; size = 4
_szBuf$ = -264						; size = 260
__$ArrayPad$ = -4					; size = 4
?GetProgressResultOnlyNumber@QuestCampBattleKO@@UAEAAVioHashString@@XZ PROC ; QuestCampBattleKO::GetProgressResultOnlyNumber, COMDAT
; _this$ = ecx

; 2136 : {

  00000	55		 push	 ebp
  00001	8b ec		 mov	 ebp, esp
  00003	81 ec 0c 01 00
	00		 sub	 esp, 268		; 0000010cH
  00009	a1 00 00 00 00	 mov	 eax, DWORD PTR ___security_cookie
  0000e	33 c5		 xor	 eax, ebp
  00010	89 45 fc	 mov	 DWORD PTR __$ArrayPad$[ebp], eax
  00013	56		 push	 esi
  00014	8b f1		 mov	 esi, ecx

; 2137 : 	QuestData &kQuestData = GetMyInfoQuestData();

  00016	8b 06		 mov	 eax, DWORD PTR [esi]
  00018	ff 50 28	 call	 DWORD PTR [eax+40]

; 2138 : 	char szBuf[MAX_PATH] = "";

  0001b	68 03 01 00 00	 push	 259			; 00000103H
  00020	89 85 f4 fe ff
	ff		 mov	 DWORD PTR _kQuestData$[ebp], eax
  00026	8d 85 f9 fe ff
	ff		 lea	 eax, DWORD PTR _szBuf$[ebp+1]
  0002c	6a 00		 push	 0
  0002e	50		 push	 eax
  0002f	c6 85 f8 fe ff
	ff 00		 mov	 BYTE PTR _szBuf$[ebp], 0
  00036	e8 00 00 00 00	 call	 _memset
  0003b	83 c4 0c	 add	 esp, 12			; 0000000cH

; 2139 : 	if( !m_szProgressResult.IsEmpty() )

  0003e	8d 8e b4 00 00
	00		 lea	 ecx, DWORD PTR [esi+180]
  00044	ff 15 00 00 00
	00		 call	 DWORD PTR __imp_?IsEmpty@ioHashString@@QBE_NXZ
  0004a	84 c0		 test	 al, al
  0004c	75 4e		 jne	 SHORT $LN1@GetProgres@11

; 2140 : 		SafeSprintf( szBuf, sizeof( szBuf ), STR(1), GetProgressPercentage( kQuestData.GetCurrentData(), GetProgressCount() ) );

  0004e	57		 push	 edi
  0004f	8b 3e		 mov	 edi, DWORD PTR [esi]
  00051	8b ce		 mov	 ecx, esi
  00053	ff 57 0c	 call	 DWORD PTR [edi+12]
  00056	8b 8d f4 fe ff
	ff		 mov	 ecx, DWORD PTR _kQuestData$[ebp]
  0005c	50		 push	 eax
  0005d	e8 00 00 00 00	 call	 ?GetCurrentData@QuestData@@QAEKXZ ; QuestData::GetCurrentData
  00062	50		 push	 eax
  00063	8b ce		 mov	 ecx, esi
  00065	ff 57 10	 call	 DWORD PTR [edi+16]
  00068	50		 push	 eax
  00069	6a 00		 push	 0
  0006b	6a 01		 push	 1
  0006d	68 00 00 00 00	 push	 OFFSET ??_C@_00CNPNBAHC@?$AA@
  00072	68 00 00 00 00	 push	 OFFSET ??_C@_0CP@JIFKNC@QuestCampBattleKO?3?3GetProgressRe@
  00077	ff 15 00 00 00
	00		 call	 DWORD PTR __imp_?GetSingleton@ioStringManager@@SAAAV1@XZ
  0007d	8b c8		 mov	 ecx, eax
  0007f	ff 15 00 00 00
	00		 call	 DWORD PTR __imp_?GetString@ioStringManager@@QAEPADPBD0HW4FileNamePrefix@1@@Z
  00085	50		 push	 eax
  00086	8d 85 f8 fe ff
	ff		 lea	 eax, DWORD PTR _szBuf$[ebp]
  0008c	68 04 01 00 00	 push	 260			; 00000104H
  00091	50		 push	 eax
  00092	ff 15 00 00 00
	00		 call	 DWORD PTR __imp_?SafeSprintf@@YAXPADHPBDH@Z
  00098	83 c4 10	 add	 esp, 16			; 00000010H
  0009b	5f		 pop	 edi
$LN1@GetProgres@11:

; 2141 : 	m_szOutProgressResult = szBuf;

  0009c	8d 85 f8 fe ff
	ff		 lea	 eax, DWORD PTR _szBuf$[ebp]
  000a2	50		 push	 eax
  000a3	8d 8e c4 00 00
	00		 lea	 ecx, DWORD PTR [esi+196]
  000a9	ff 15 00 00 00
	00		 call	 DWORD PTR __imp_??4ioHashString@@QAEAAV0@PBD@Z

; 2142 : 	return m_szOutProgressResult;
; 2143 : }

  000af	8b 4d fc	 mov	 ecx, DWORD PTR __$ArrayPad$[ebp]
  000b2	8d 86 c4 00 00
	00		 lea	 eax, DWORD PTR [esi+196]
  000b8	33 cd		 xor	 ecx, ebp
  000ba	5e		 pop	 esi
  000bb	e8 00 00 00 00	 call	 @__security_check_cookie@4
  000c0	c9		 leave
  000c1	c3		 ret	 0
?GetProgressResultOnlyNumber@QuestCampBattleKO@@UAEAAVioHashString@@XZ ENDP ; QuestCampBattleKO::GetProgressResultOnlyNumber
_TEXT	ENDS
PUBLIC	?GetProgressResultOnlyText@QuestCampBattleKO@@UAEAAVioHashString@@XZ ; QuestCampBattleKO::GetProgressResultOnlyText
; Function compile flags: /Ogsp
;	COMDAT ?GetProgressResultOnlyText@QuestCampBattleKO@@UAEAAVioHashString@@XZ
_TEXT	SEGMENT
?GetProgressResultOnlyText@QuestCampBattleKO@@UAEAAVioHashString@@XZ PROC ; QuestCampBattleKO::GetProgressResultOnlyText, COMDAT
; _this$ = ecx

; 2146 : {

  00000	56		 push	 esi

; 2147 : 	m_szOutProgressResult = "";

  00001	8d b1 c4 00 00
	00		 lea	 esi, DWORD PTR [ecx+196]
  00007	68 00 00 00 00	 push	 OFFSET ??_C@_00CNPNBAHC@?$AA@
  0000c	8b ce		 mov	 ecx, esi
  0000e	ff 15 00 00 00
	00		 call	 DWORD PTR __imp_??4ioHashString@@QAEAAV0@PBD@Z

; 2148 : 	return m_szOutProgressResult;

  00014	8b c6		 mov	 eax, esi
  00016	5e		 pop	 esi

; 2149 : }

  00017	c3		 ret	 0
?GetProgressResultOnlyText@QuestCampBattleKO@@UAEAAVioHashString@@XZ ENDP ; QuestCampBattleKO::GetProgressResultOnlyText
_TEXT	ENDS
PUBLIC	?GetProgressGaugeRate@QuestCampBattleKO@@UAEMXZ	; QuestCampBattleKO::GetProgressGaugeRate
; Function compile flags: /Ogsp
;	COMDAT ?GetProgressGaugeRate@QuestCampBattleKO@@UAEMXZ
_TEXT	SEGMENT
?GetProgressGaugeRate@QuestCampBattleKO@@UAEMXZ PROC	; QuestCampBattleKO::GetProgressGaugeRate, COMDAT
; _this$ = ecx

; 2153 : 	return QuestParent::GetProgressGaugeRate();

  00000	e9 00 00 00 00	 jmp	 ?GetProgressGaugeRate@QuestParent@@UAEMXZ ; QuestParent::GetProgressGaugeRate
?GetProgressGaugeRate@QuestCampBattleKO@@UAEMXZ ENDP	; QuestCampBattleKO::GetProgressGaugeRate
_TEXT	ENDS
PUBLIC	??_C@_0CG@CEKKIEOM@QuestCampBattleWin?3?3GetProgressR@ ; `string'
PUBLIC	__$ArrayPad$
PUBLIC	?GetProgressResult@QuestCampBattleWin@@UAEAAVioHashString@@XZ ; QuestCampBattleWin::GetProgressResult
;	COMDAT ??_C@_0CG@CEKKIEOM@QuestCampBattleWin?3?3GetProgressR@
CONST	SEGMENT
??_C@_0CG@CEKKIEOM@QuestCampBattleWin?3?3GetProgressR@ DB 'QuestCampBattl'
	DB	'eWin::GetProgressResult', 00H		; `string'
; Function compile flags: /Ogsp
CONST	ENDS
;	COMDAT ?GetProgressResult@QuestCampBattleWin@@UAEAAVioHashString@@XZ
_TEXT	SEGMENT
_kQuestData$ = -268					; size = 4
_szBuf$ = -264						; size = 260
__$ArrayPad$ = -4					; size = 4
?GetProgressResult@QuestCampBattleWin@@UAEAAVioHashString@@XZ PROC ; QuestCampBattleWin::GetProgressResult, COMDAT
; _this$ = ecx

; 2191 : {

  00000	55		 push	 ebp
  00001	8b ec		 mov	 ebp, esp
  00003	81 ec 0c 01 00
	00		 sub	 esp, 268		; 0000010cH
  00009	a1 00 00 00 00	 mov	 eax, DWORD PTR ___security_cookie
  0000e	33 c5		 xor	 eax, ebp
  00010	89 45 fc	 mov	 DWORD PTR __$ArrayPad$[ebp], eax
  00013	56		 push	 esi
  00014	8b f1		 mov	 esi, ecx

; 2192 : 	QuestData &kQuestData = GetMyInfoQuestData();

  00016	8b 06		 mov	 eax, DWORD PTR [esi]
  00018	ff 50 28	 call	 DWORD PTR [eax+40]

; 2193 : 	char szBuf[MAX_PATH] = "";

  0001b	68 03 01 00 00	 push	 259			; 00000103H
  00020	89 85 f4 fe ff
	ff		 mov	 DWORD PTR _kQuestData$[ebp], eax
  00026	8d 85 f9 fe ff
	ff		 lea	 eax, DWORD PTR _szBuf$[ebp+1]
  0002c	6a 00		 push	 0
  0002e	50		 push	 eax
  0002f	c6 85 f8 fe ff
	ff 00		 mov	 BYTE PTR _szBuf$[ebp], 0
  00036	e8 00 00 00 00	 call	 _memset
  0003b	83 c4 0c	 add	 esp, 12			; 0000000cH

; 2194 : 	if( !m_szProgressResult.IsEmpty() )

  0003e	8d 8e b4 00 00
	00		 lea	 ecx, DWORD PTR [esi+180]
  00044	ff 15 00 00 00
	00		 call	 DWORD PTR __imp_?IsEmpty@ioHashString@@QBE_NXZ
  0004a	84 c0		 test	 al, al
  0004c	0f 85 8d 00 00
	00		 jne	 $LN1@GetProgres@12

; 2195 : 	{
; 2196 : 		if( !IsMeProgressQuest() )

  00052	8b 06		 mov	 eax, DWORD PTR [esi]
  00054	8b ce		 mov	 ecx, esi
  00056	ff 50 2c	 call	 DWORD PTR [eax+44]
  00059	84 c0		 test	 al, al
  0005b	75 34		 jne	 SHORT $LN2@GetProgres@12

; 2197 : 			SafeSprintf( szBuf, sizeof( szBuf ), STR(1) );

  0005d	6a 00		 push	 0
  0005f	6a 01		 push	 1
  00061	68 00 00 00 00	 push	 OFFSET ??_C@_00CNPNBAHC@?$AA@
  00066	68 00 00 00 00	 push	 OFFSET ??_C@_0CG@CEKKIEOM@QuestCampBattleWin?3?3GetProgressR@
  0006b	ff 15 00 00 00
	00		 call	 DWORD PTR __imp_?GetSingleton@ioStringManager@@SAAAV1@XZ
  00071	8b c8		 mov	 ecx, eax
  00073	ff 15 00 00 00
	00		 call	 DWORD PTR __imp_?GetString@ioStringManager@@QAEPADPBD0HW4FileNamePrefix@1@@Z
  00079	50		 push	 eax
  0007a	8d 85 f8 fe ff
	ff		 lea	 eax, DWORD PTR _szBuf$[ebp]
  00080	68 04 01 00 00	 push	 260			; 00000104H
  00085	50		 push	 eax
  00086	ff 15 00 00 00
	00		 call	 DWORD PTR __imp_?SafeSprintf@@YAXPADHPBDZZ
  0008c	83 c4 0c	 add	 esp, 12			; 0000000cH

; 2198 : 		else

  0008f	eb 4e		 jmp	 SHORT $LN1@GetProgres@12
$LN2@GetProgres@12:
  00091	57		 push	 edi

; 2199 : 			SafeSprintf( szBuf, sizeof( szBuf ), STR(2), GetProgressPercentage( kQuestData.GetCurrentData(), GetProgressCount() ) );

  00092	8b 3e		 mov	 edi, DWORD PTR [esi]
  00094	8b ce		 mov	 ecx, esi
  00096	ff 57 0c	 call	 DWORD PTR [edi+12]
  00099	8b 8d f4 fe ff
	ff		 mov	 ecx, DWORD PTR _kQuestData$[ebp]
  0009f	50		 push	 eax
  000a0	e8 00 00 00 00	 call	 ?GetCurrentData@QuestData@@QAEKXZ ; QuestData::GetCurrentData
  000a5	50		 push	 eax
  000a6	8b ce		 mov	 ecx, esi
  000a8	ff 57 10	 call	 DWORD PTR [edi+16]
  000ab	50		 push	 eax
  000ac	6a 00		 push	 0
  000ae	6a 02		 push	 2
  000b0	68 00 00 00 00	 push	 OFFSET ??_C@_00CNPNBAHC@?$AA@
  000b5	68 00 00 00 00	 push	 OFFSET ??_C@_0CG@CEKKIEOM@QuestCampBattleWin?3?3GetProgressR@
  000ba	ff 15 00 00 00
	00		 call	 DWORD PTR __imp_?GetSingleton@ioStringManager@@SAAAV1@XZ
  000c0	8b c8		 mov	 ecx, eax
  000c2	ff 15 00 00 00
	00		 call	 DWORD PTR __imp_?GetString@ioStringManager@@QAEPADPBD0HW4FileNamePrefix@1@@Z
  000c8	50		 push	 eax
  000c9	8d 85 f8 fe ff
	ff		 lea	 eax, DWORD PTR _szBuf$[ebp]
  000cf	68 04 01 00 00	 push	 260			; 00000104H
  000d4	50		 push	 eax
  000d5	ff 15 00 00 00
	00		 call	 DWORD PTR __imp_?SafeSprintf@@YAXPADHPBDH@Z
  000db	83 c4 10	 add	 esp, 16			; 00000010H
  000de	5f		 pop	 edi
$LN1@GetProgres@12:

; 2200 : 	}
; 2201 : 	m_szOutProgressResult = szBuf;

  000df	8d 85 f8 fe ff
	ff		 lea	 eax, DWORD PTR _szBuf$[ebp]
  000e5	50		 push	 eax
  000e6	8d 8e c4 00 00
	00		 lea	 ecx, DWORD PTR [esi+196]
  000ec	ff 15 00 00 00
	00		 call	 DWORD PTR __imp_??4ioHashString@@QAEAAV0@PBD@Z

; 2202 : 	return m_szOutProgressResult;
; 2203 : }

  000f2	8b 4d fc	 mov	 ecx, DWORD PTR __$ArrayPad$[ebp]
  000f5	8d 86 c4 00 00
	00		 lea	 eax, DWORD PTR [esi+196]
  000fb	33 cd		 xor	 ecx, ebp
  000fd	5e		 pop	 esi
  000fe	e8 00 00 00 00	 call	 @__security_check_cookie@4
  00103	c9		 leave
  00104	c3		 ret	 0
?GetProgressResult@QuestCampBattleWin@@UAEAAVioHashString@@XZ ENDP ; QuestCampBattleWin::GetProgressResult
_TEXT	ENDS
PUBLIC	??_C@_0DA@HJINHHAL@QuestCampBattleWin?3?3GetProgressR@ ; `string'
PUBLIC	__$ArrayPad$
PUBLIC	?GetProgressResultOnlyNumber@QuestCampBattleWin@@UAEAAVioHashString@@XZ ; QuestCampBattleWin::GetProgressResultOnlyNumber
;	COMDAT ??_C@_0DA@HJINHHAL@QuestCampBattleWin?3?3GetProgressR@
CONST	SEGMENT
??_C@_0DA@HJINHHAL@QuestCampBattleWin?3?3GetProgressR@ DB 'QuestCampBattl'
	DB	'eWin::GetProgressResultOnlyNumber', 00H	; `string'
; Function compile flags: /Ogsp
CONST	ENDS
;	COMDAT ?GetProgressResultOnlyNumber@QuestCampBattleWin@@UAEAAVioHashString@@XZ
_TEXT	SEGMENT
_kQuestData$ = -268					; size = 4
_szBuf$ = -264						; size = 260
__$ArrayPad$ = -4					; size = 4
?GetProgressResultOnlyNumber@QuestCampBattleWin@@UAEAAVioHashString@@XZ PROC ; QuestCampBattleWin::GetProgressResultOnlyNumber, COMDAT
; _this$ = ecx

; 2206 : {

  00000	55		 push	 ebp
  00001	8b ec		 mov	 ebp, esp
  00003	81 ec 0c 01 00
	00		 sub	 esp, 268		; 0000010cH
  00009	a1 00 00 00 00	 mov	 eax, DWORD PTR ___security_cookie
  0000e	33 c5		 xor	 eax, ebp
  00010	89 45 fc	 mov	 DWORD PTR __$ArrayPad$[ebp], eax
  00013	56		 push	 esi
  00014	8b f1		 mov	 esi, ecx

; 2207 : 	QuestData &kQuestData = GetMyInfoQuestData();

  00016	8b 06		 mov	 eax, DWORD PTR [esi]
  00018	ff 50 28	 call	 DWORD PTR [eax+40]

; 2208 : 	char szBuf[MAX_PATH] = "";

  0001b	68 03 01 00 00	 push	 259			; 00000103H
  00020	89 85 f4 fe ff
	ff		 mov	 DWORD PTR _kQuestData$[ebp], eax
  00026	8d 85 f9 fe ff
	ff		 lea	 eax, DWORD PTR _szBuf$[ebp+1]
  0002c	6a 00		 push	 0
  0002e	50		 push	 eax
  0002f	c6 85 f8 fe ff
	ff 00		 mov	 BYTE PTR _szBuf$[ebp], 0
  00036	e8 00 00 00 00	 call	 _memset
  0003b	83 c4 0c	 add	 esp, 12			; 0000000cH

; 2209 : 	if( !m_szProgressResult.IsEmpty() )

  0003e	8d 8e b4 00 00
	00		 lea	 ecx, DWORD PTR [esi+180]
  00044	ff 15 00 00 00
	00		 call	 DWORD PTR __imp_?IsEmpty@ioHashString@@QBE_NXZ
  0004a	84 c0		 test	 al, al
  0004c	75 4e		 jne	 SHORT $LN1@GetProgres@13

; 2210 : 		SafeSprintf( szBuf, sizeof( szBuf ), STR(1), GetProgressPercentage( kQuestData.GetCurrentData(), GetProgressCount() ) );

  0004e	57		 push	 edi
  0004f	8b 3e		 mov	 edi, DWORD PTR [esi]
  00051	8b ce		 mov	 ecx, esi
  00053	ff 57 0c	 call	 DWORD PTR [edi+12]
  00056	8b 8d f4 fe ff
	ff		 mov	 ecx, DWORD PTR _kQuestData$[ebp]
  0005c	50		 push	 eax
  0005d	e8 00 00 00 00	 call	 ?GetCurrentData@QuestData@@QAEKXZ ; QuestData::GetCurrentData
  00062	50		 push	 eax
  00063	8b ce		 mov	 ecx, esi
  00065	ff 57 10	 call	 DWORD PTR [edi+16]
  00068	50		 push	 eax
  00069	6a 00		 push	 0
  0006b	6a 01		 push	 1
  0006d	68 00 00 00 00	 push	 OFFSET ??_C@_00CNPNBAHC@?$AA@
  00072	68 00 00 00 00	 push	 OFFSET ??_C@_0DA@HJINHHAL@QuestCampBattleWin?3?3GetProgressR@
  00077	ff 15 00 00 00
	00		 call	 DWORD PTR __imp_?GetSingleton@ioStringManager@@SAAAV1@XZ
  0007d	8b c8		 mov	 ecx, eax
  0007f	ff 15 00 00 00
	00		 call	 DWORD PTR __imp_?GetString@ioStringManager@@QAEPADPBD0HW4FileNamePrefix@1@@Z
  00085	50		 push	 eax
  00086	8d 85 f8 fe ff
	ff		 lea	 eax, DWORD PTR _szBuf$[ebp]
  0008c	68 04 01 00 00	 push	 260			; 00000104H
  00091	50		 push	 eax
  00092	ff 15 00 00 00
	00		 call	 DWORD PTR __imp_?SafeSprintf@@YAXPADHPBDH@Z
  00098	83 c4 10	 add	 esp, 16			; 00000010H
  0009b	5f		 pop	 edi
$LN1@GetProgres@13:

; 2211 : 	m_szOutProgressResult = szBuf;

  0009c	8d 85 f8 fe ff
	ff		 lea	 eax, DWORD PTR _szBuf$[ebp]
  000a2	50		 push	 eax
  000a3	8d 8e c4 00 00
	00		 lea	 ecx, DWORD PTR [esi+196]
  000a9	ff 15 00 00 00
	00		 call	 DWORD PTR __imp_??4ioHashString@@QAEAAV0@PBD@Z

; 2212 : 	return m_szOutProgressResult;
; 2213 : }

  000af	8b 4d fc	 mov	 ecx, DWORD PTR __$ArrayPad$[ebp]
  000b2	8d 86 c4 00 00
	00		 lea	 eax, DWORD PTR [esi+196]
  000b8	33 cd		 xor	 ecx, ebp
  000ba	5e		 pop	 esi
  000bb	e8 00 00 00 00	 call	 @__security_check_cookie@4
  000c0	c9		 leave
  000c1	c3		 ret	 0
?GetProgressResultOnlyNumber@QuestCampBattleWin@@UAEAAVioHashString@@XZ ENDP ; QuestCampBattleWin::GetProgressResultOnlyNumber
_TEXT	ENDS
PUBLIC	?GetProgressResultOnlyText@QuestCampBattleWin@@UAEAAVioHashString@@XZ ; QuestCampBattleWin::GetProgressResultOnlyText
; Function compile flags: /Ogsp
;	COMDAT ?GetProgressResultOnlyText@QuestCampBattleWin@@UAEAAVioHashString@@XZ
_TEXT	SEGMENT
?GetProgressResultOnlyText@QuestCampBattleWin@@UAEAAVioHashString@@XZ PROC ; QuestCampBattleWin::GetProgressResultOnlyText, COMDAT
; _this$ = ecx

; 2216 : {

  00000	56		 push	 esi

; 2217 : 	m_szOutProgressResult = "";

  00001	8d b1 c4 00 00
	00		 lea	 esi, DWORD PTR [ecx+196]
  00007	68 00 00 00 00	 push	 OFFSET ??_C@_00CNPNBAHC@?$AA@
  0000c	8b ce		 mov	 ecx, esi
  0000e	ff 15 00 00 00
	00		 call	 DWORD PTR __imp_??4ioHashString@@QAEAAV0@PBD@Z

; 2218 : 	return m_szOutProgressResult;

  00014	8b c6		 mov	 eax, esi
  00016	5e		 pop	 esi

; 2219 : }

  00017	c3		 ret	 0
?GetProgressResultOnlyText@QuestCampBattleWin@@UAEAAVioHashString@@XZ ENDP ; QuestCampBattleWin::GetProgressResultOnlyText
_TEXT	ENDS
PUBLIC	?GetProgressGaugeRate@QuestCampBattleWin@@UAEMXZ ; QuestCampBattleWin::GetProgressGaugeRate
; Function compile flags: /Ogsp
;	COMDAT ?GetProgressGaugeRate@QuestCampBattleWin@@UAEMXZ
_TEXT	SEGMENT
?GetProgressGaugeRate@QuestCampBattleWin@@UAEMXZ PROC	; QuestCampBattleWin::GetProgressGaugeRate, COMDAT
; _this$ = ecx

; 2223 : 	return QuestParent::GetProgressGaugeRate();

  00000	e9 00 00 00 00	 jmp	 ?GetProgressGaugeRate@QuestParent@@UAEMXZ ; QuestParent::GetProgressGaugeRate
?GetProgressGaugeRate@QuestCampBattleWin@@UAEMXZ ENDP	; QuestCampBattleWin::GetProgressGaugeRate
_TEXT	ENDS
PUBLIC	??_C@_0CF@OLGHJAMD@QuestAwardAcquire?3?3GetProgressRe@ ; `string'
PUBLIC	__$ArrayPad$
PUBLIC	?GetProgressResult@QuestAwardAcquire@@UAEAAVioHashString@@XZ ; QuestAwardAcquire::GetProgressResult
;	COMDAT ??_C@_0CF@OLGHJAMD@QuestAwardAcquire?3?3GetProgressRe@
CONST	SEGMENT
??_C@_0CF@OLGHJAMD@QuestAwardAcquire?3?3GetProgressRe@ DB 'QuestAwardAcqu'
	DB	'ire::GetProgressResult', 00H		; `string'
; Function compile flags: /Ogsp
CONST	ENDS
;	COMDAT ?GetProgressResult@QuestAwardAcquire@@UAEAAVioHashString@@XZ
_TEXT	SEGMENT
_kQuestData$ = -268					; size = 4
_szBuf$ = -264						; size = 260
__$ArrayPad$ = -4					; size = 4
?GetProgressResult@QuestAwardAcquire@@UAEAAVioHashString@@XZ PROC ; QuestAwardAcquire::GetProgressResult, COMDAT
; _this$ = ecx

; 2369 : {

  00000	55		 push	 ebp
  00001	8b ec		 mov	 ebp, esp
  00003	81 ec 0c 01 00
	00		 sub	 esp, 268		; 0000010cH
  00009	a1 00 00 00 00	 mov	 eax, DWORD PTR ___security_cookie
  0000e	33 c5		 xor	 eax, ebp
  00010	89 45 fc	 mov	 DWORD PTR __$ArrayPad$[ebp], eax
  00013	56		 push	 esi
  00014	8b f1		 mov	 esi, ecx

; 2370 : 	QuestData &kQuestData = GetMyInfoQuestData();

  00016	8b 06		 mov	 eax, DWORD PTR [esi]
  00018	ff 50 28	 call	 DWORD PTR [eax+40]

; 2371 : 	char szBuf[MAX_PATH] = "";

  0001b	68 03 01 00 00	 push	 259			; 00000103H
  00020	89 85 f4 fe ff
	ff		 mov	 DWORD PTR _kQuestData$[ebp], eax
  00026	8d 85 f9 fe ff
	ff		 lea	 eax, DWORD PTR _szBuf$[ebp+1]
  0002c	6a 00		 push	 0
  0002e	50		 push	 eax
  0002f	c6 85 f8 fe ff
	ff 00		 mov	 BYTE PTR _szBuf$[ebp], 0
  00036	e8 00 00 00 00	 call	 _memset
  0003b	83 c4 0c	 add	 esp, 12			; 0000000cH

; 2372 : 	if( !m_szProgressResult.IsEmpty() )

  0003e	8d 8e b4 00 00
	00		 lea	 ecx, DWORD PTR [esi+180]
  00044	ff 15 00 00 00
	00		 call	 DWORD PTR __imp_?IsEmpty@ioHashString@@QBE_NXZ
  0004a	84 c0		 test	 al, al
  0004c	0f 85 8d 00 00
	00		 jne	 $LN1@GetProgres@14

; 2373 : 	{
; 2374 : 		if( !IsMeProgressQuest() )

  00052	8b 06		 mov	 eax, DWORD PTR [esi]
  00054	8b ce		 mov	 ecx, esi
  00056	ff 50 2c	 call	 DWORD PTR [eax+44]
  00059	84 c0		 test	 al, al
  0005b	75 34		 jne	 SHORT $LN2@GetProgres@14

; 2375 : 			SafeSprintf( szBuf, sizeof( szBuf ), STR(1) );

  0005d	6a 00		 push	 0
  0005f	6a 01		 push	 1
  00061	68 00 00 00 00	 push	 OFFSET ??_C@_00CNPNBAHC@?$AA@
  00066	68 00 00 00 00	 push	 OFFSET ??_C@_0CF@OLGHJAMD@QuestAwardAcquire?3?3GetProgressRe@
  0006b	ff 15 00 00 00
	00		 call	 DWORD PTR __imp_?GetSingleton@ioStringManager@@SAAAV1@XZ
  00071	8b c8		 mov	 ecx, eax
  00073	ff 15 00 00 00
	00		 call	 DWORD PTR __imp_?GetString@ioStringManager@@QAEPADPBD0HW4FileNamePrefix@1@@Z
  00079	50		 push	 eax
  0007a	8d 85 f8 fe ff
	ff		 lea	 eax, DWORD PTR _szBuf$[ebp]
  00080	68 04 01 00 00	 push	 260			; 00000104H
  00085	50		 push	 eax
  00086	ff 15 00 00 00
	00		 call	 DWORD PTR __imp_?SafeSprintf@@YAXPADHPBDZZ
  0008c	83 c4 0c	 add	 esp, 12			; 0000000cH

; 2376 : 		else

  0008f	eb 4e		 jmp	 SHORT $LN1@GetProgres@14
$LN2@GetProgres@14:
  00091	57		 push	 edi

; 2377 : 		{
; 2378 : 			SafeSprintf( szBuf, sizeof( szBuf ), STR(2), GetProgressPercentage( kQuestData.GetCurrentData(), GetProgressCount() ) );

  00092	8b 3e		 mov	 edi, DWORD PTR [esi]
  00094	8b ce		 mov	 ecx, esi
  00096	ff 57 0c	 call	 DWORD PTR [edi+12]
  00099	8b 8d f4 fe ff
	ff		 mov	 ecx, DWORD PTR _kQuestData$[ebp]
  0009f	50		 push	 eax
  000a0	e8 00 00 00 00	 call	 ?GetCurrentData@QuestData@@QAEKXZ ; QuestData::GetCurrentData
  000a5	50		 push	 eax
  000a6	8b ce		 mov	 ecx, esi
  000a8	ff 57 10	 call	 DWORD PTR [edi+16]
  000ab	50		 push	 eax
  000ac	6a 00		 push	 0
  000ae	6a 02		 push	 2
  000b0	68 00 00 00 00	 push	 OFFSET ??_C@_00CNPNBAHC@?$AA@
  000b5	68 00 00 00 00	 push	 OFFSET ??_C@_0CF@OLGHJAMD@QuestAwardAcquire?3?3GetProgressRe@
  000ba	ff 15 00 00 00
	00		 call	 DWORD PTR __imp_?GetSingleton@ioStringManager@@SAAAV1@XZ
  000c0	8b c8		 mov	 ecx, eax
  000c2	ff 15 00 00 00
	00		 call	 DWORD PTR __imp_?GetString@ioStringManager@@QAEPADPBD0HW4FileNamePrefix@1@@Z
  000c8	50		 push	 eax
  000c9	8d 85 f8 fe ff
	ff		 lea	 eax, DWORD PTR _szBuf$[ebp]
  000cf	68 04 01 00 00	 push	 260			; 00000104H
  000d4	50		 push	 eax
  000d5	ff 15 00 00 00
	00		 call	 DWORD PTR __imp_?SafeSprintf@@YAXPADHPBDH@Z
  000db	83 c4 10	 add	 esp, 16			; 00000010H
  000de	5f		 pop	 edi
$LN1@GetProgres@14:

; 2379 : 		}
; 2380 : 	}
; 2381 : 	m_szOutProgressResult = szBuf;

  000df	8d 85 f8 fe ff
	ff		 lea	 eax, DWORD PTR _szBuf$[ebp]
  000e5	50		 push	 eax
  000e6	8d 8e c4 00 00
	00		 lea	 ecx, DWORD PTR [esi+196]
  000ec	ff 15 00 00 00
	00		 call	 DWORD PTR __imp_??4ioHashString@@QAEAAV0@PBD@Z

; 2382 : 	return m_szOutProgressResult;
; 2383 : }

  000f2	8b 4d fc	 mov	 ecx, DWORD PTR __$ArrayPad$[ebp]
  000f5	8d 86 c4 00 00
	00		 lea	 eax, DWORD PTR [esi+196]
  000fb	33 cd		 xor	 ecx, ebp
  000fd	5e		 pop	 esi
  000fe	e8 00 00 00 00	 call	 @__security_check_cookie@4
  00103	c9		 leave
  00104	c3		 ret	 0
?GetProgressResult@QuestAwardAcquire@@UAEAAVioHashString@@XZ ENDP ; QuestAwardAcquire::GetProgressResult
_TEXT	ENDS
PUBLIC	??_C@_0CP@ONABIBKP@QuestAwardAcquire?3?3GetProgressRe@ ; `string'
PUBLIC	__$ArrayPad$
PUBLIC	?GetProgressResultOnlyNumber@QuestAwardAcquire@@UAEAAVioHashString@@XZ ; QuestAwardAcquire::GetProgressResultOnlyNumber
;	COMDAT ??_C@_0CP@ONABIBKP@QuestAwardAcquire?3?3GetProgressRe@
CONST	SEGMENT
??_C@_0CP@ONABIBKP@QuestAwardAcquire?3?3GetProgressRe@ DB 'QuestAwardAcqu'
	DB	'ire::GetProgressResultOnlyNumber', 00H	; `string'
; Function compile flags: /Ogsp
CONST	ENDS
;	COMDAT ?GetProgressResultOnlyNumber@QuestAwardAcquire@@UAEAAVioHashString@@XZ
_TEXT	SEGMENT
_kQuestData$ = -268					; size = 4
_szBuf$ = -264						; size = 260
__$ArrayPad$ = -4					; size = 4
?GetProgressResultOnlyNumber@QuestAwardAcquire@@UAEAAVioHashString@@XZ PROC ; QuestAwardAcquire::GetProgressResultOnlyNumber, COMDAT
; _this$ = ecx

; 2386 : {

  00000	55		 push	 ebp
  00001	8b ec		 mov	 ebp, esp
  00003	81 ec 0c 01 00
	00		 sub	 esp, 268		; 0000010cH
  00009	a1 00 00 00 00	 mov	 eax, DWORD PTR ___security_cookie
  0000e	33 c5		 xor	 eax, ebp
  00010	89 45 fc	 mov	 DWORD PTR __$ArrayPad$[ebp], eax
  00013	56		 push	 esi
  00014	8b f1		 mov	 esi, ecx

; 2387 : 	QuestData &kQuestData = GetMyInfoQuestData();

  00016	8b 06		 mov	 eax, DWORD PTR [esi]
  00018	ff 50 28	 call	 DWORD PTR [eax+40]

; 2388 : 	char szBuf[MAX_PATH] = "";

  0001b	68 03 01 00 00	 push	 259			; 00000103H
  00020	89 85 f4 fe ff
	ff		 mov	 DWORD PTR _kQuestData$[ebp], eax
  00026	8d 85 f9 fe ff
	ff		 lea	 eax, DWORD PTR _szBuf$[ebp+1]
  0002c	6a 00		 push	 0
  0002e	50		 push	 eax
  0002f	c6 85 f8 fe ff
	ff 00		 mov	 BYTE PTR _szBuf$[ebp], 0
  00036	e8 00 00 00 00	 call	 _memset
  0003b	83 c4 0c	 add	 esp, 12			; 0000000cH

; 2389 : 	if( !m_szProgressResult.IsEmpty() )

  0003e	8d 8e b4 00 00
	00		 lea	 ecx, DWORD PTR [esi+180]
  00044	ff 15 00 00 00
	00		 call	 DWORD PTR __imp_?IsEmpty@ioHashString@@QBE_NXZ
  0004a	84 c0		 test	 al, al
  0004c	75 4e		 jne	 SHORT $LN1@GetProgres@15

; 2390 : 	{
; 2391 : 		SafeSprintf( szBuf, sizeof( szBuf ), STR(1), GetProgressPercentage( kQuestData.GetCurrentData(), GetProgressCount() ) );

  0004e	57		 push	 edi
  0004f	8b 3e		 mov	 edi, DWORD PTR [esi]
  00051	8b ce		 mov	 ecx, esi
  00053	ff 57 0c	 call	 DWORD PTR [edi+12]
  00056	8b 8d f4 fe ff
	ff		 mov	 ecx, DWORD PTR _kQuestData$[ebp]
  0005c	50		 push	 eax
  0005d	e8 00 00 00 00	 call	 ?GetCurrentData@QuestData@@QAEKXZ ; QuestData::GetCurrentData
  00062	50		 push	 eax
  00063	8b ce		 mov	 ecx, esi
  00065	ff 57 10	 call	 DWORD PTR [edi+16]
  00068	50		 push	 eax
  00069	6a 00		 push	 0
  0006b	6a 01		 push	 1
  0006d	68 00 00 00 00	 push	 OFFSET ??_C@_00CNPNBAHC@?$AA@
  00072	68 00 00 00 00	 push	 OFFSET ??_C@_0CP@ONABIBKP@QuestAwardAcquire?3?3GetProgressRe@
  00077	ff 15 00 00 00
	00		 call	 DWORD PTR __imp_?GetSingleton@ioStringManager@@SAAAV1@XZ
  0007d	8b c8		 mov	 ecx, eax
  0007f	ff 15 00 00 00
	00		 call	 DWORD PTR __imp_?GetString@ioStringManager@@QAEPADPBD0HW4FileNamePrefix@1@@Z
  00085	50		 push	 eax
  00086	8d 85 f8 fe ff
	ff		 lea	 eax, DWORD PTR _szBuf$[ebp]
  0008c	68 04 01 00 00	 push	 260			; 00000104H
  00091	50		 push	 eax
  00092	ff 15 00 00 00
	00		 call	 DWORD PTR __imp_?SafeSprintf@@YAXPADHPBDH@Z
  00098	83 c4 10	 add	 esp, 16			; 00000010H
  0009b	5f		 pop	 edi
$LN1@GetProgres@15:

; 2392 : 	}
; 2393 : 	m_szOutProgressResult = szBuf;

  0009c	8d 85 f8 fe ff
	ff		 lea	 eax, DWORD PTR _szBuf$[ebp]
  000a2	50		 push	 eax
  000a3	8d 8e c4 00 00
	00		 lea	 ecx, DWORD PTR [esi+196]
  000a9	ff 15 00 00 00
	00		 call	 DWORD PTR __imp_??4ioHashString@@QAEAAV0@PBD@Z

; 2394 : 	return m_szOutProgressResult;
; 2395 : }

  000af	8b 4d fc	 mov	 ecx, DWORD PTR __$ArrayPad$[ebp]
  000b2	8d 86 c4 00 00
	00		 lea	 eax, DWORD PTR [esi+196]
  000b8	33 cd		 xor	 ecx, ebp
  000ba	5e		 pop	 esi
  000bb	e8 00 00 00 00	 call	 @__security_check_cookie@4
  000c0	c9		 leave
  000c1	c3		 ret	 0
?GetProgressResultOnlyNumber@QuestAwardAcquire@@UAEAAVioHashString@@XZ ENDP ; QuestAwardAcquire::GetProgressResultOnlyNumber
_TEXT	ENDS
PUBLIC	?GetProgressResultOnlyText@QuestAwardAcquire@@UAEAAVioHashString@@XZ ; QuestAwardAcquire::GetProgressResultOnlyText
; Function compile flags: /Ogsp
;	COMDAT ?GetProgressResultOnlyText@QuestAwardAcquire@@UAEAAVioHashString@@XZ
_TEXT	SEGMENT
?GetProgressResultOnlyText@QuestAwardAcquire@@UAEAAVioHashString@@XZ PROC ; QuestAwardAcquire::GetProgressResultOnlyText, COMDAT
; _this$ = ecx

; 2398 : {

  00000	56		 push	 esi

; 2399 : 	m_szOutProgressResult = "";

  00001	8d b1 c4 00 00
	00		 lea	 esi, DWORD PTR [ecx+196]
  00007	68 00 00 00 00	 push	 OFFSET ??_C@_00CNPNBAHC@?$AA@
  0000c	8b ce		 mov	 ecx, esi
  0000e	ff 15 00 00 00
	00		 call	 DWORD PTR __imp_??4ioHashString@@QAEAAV0@PBD@Z

; 2400 : 	return m_szOutProgressResult;

  00014	8b c6		 mov	 eax, esi
  00016	5e		 pop	 esi

; 2401 : }

  00017	c3		 ret	 0
?GetProgressResultOnlyText@QuestAwardAcquire@@UAEAAVioHashString@@XZ ENDP ; QuestAwardAcquire::GetProgressResultOnlyText
_TEXT	ENDS
PUBLIC	?GetProgressGaugeRate@QuestAwardAcquire@@UAEMXZ	; QuestAwardAcquire::GetProgressGaugeRate
; Function compile flags: /Ogsp
;	COMDAT ?GetProgressGaugeRate@QuestAwardAcquire@@UAEMXZ
_TEXT	SEGMENT
?GetProgressGaugeRate@QuestAwardAcquire@@UAEMXZ PROC	; QuestAwardAcquire::GetProgressGaugeRate, COMDAT
; _this$ = ecx

; 2405 : 	return QuestParent::GetProgressGaugeRate();

  00000	e9 00 00 00 00	 jmp	 ?GetProgressGaugeRate@QuestParent@@UAEMXZ ; QuestParent::GetProgressGaugeRate
?GetProgressGaugeRate@QuestAwardAcquire@@UAEMXZ ENDP	; QuestAwardAcquire::GetProgressGaugeRate
_TEXT	ENDS
PUBLIC	?IsCheckAlreadyAttain@QuestBattleLevel@@UAE_NXZ	; QuestBattleLevel::IsCheckAlreadyAttain
EXTRN	?GetPartyLevel@ioMyInfo@@QAEHXZ:PROC		; ioMyInfo::GetPartyLevel
; Function compile flags: /Ogsp
;	COMDAT ?IsCheckAlreadyAttain@QuestBattleLevel@@UAE_NXZ
_TEXT	SEGMENT
?IsCheckAlreadyAttain@QuestBattleLevel@@UAE_NXZ PROC	; QuestBattleLevel::IsCheckAlreadyAttain, COMDAT
; _this$ = ecx

; 2503 : {

  00000	56		 push	 esi
  00001	57		 push	 edi
  00002	8b f9		 mov	 edi, ecx

; 2504 : 	return SetAttainProcess( g_MyInfo.GetPartyLevel(), GetProgressCount() );

  00004	8b 37		 mov	 esi, DWORD PTR [edi]
  00006	ff 56 0c	 call	 DWORD PTR [esi+12]
  00009	50		 push	 eax
  0000a	e8 00 00 00 00	 call	 ?GetSingleton@ioMyInfo@@SAAAV1@XZ ; ioMyInfo::GetSingleton
  0000f	8b c8		 mov	 ecx, eax
  00011	e8 00 00 00 00	 call	 ?GetPartyLevel@ioMyInfo@@QAEHXZ ; ioMyInfo::GetPartyLevel
  00016	50		 push	 eax
  00017	8b cf		 mov	 ecx, edi
  00019	ff 56 40	 call	 DWORD PTR [esi+64]
  0001c	5f		 pop	 edi
  0001d	5e		 pop	 esi

; 2505 : }

  0001e	c3		 ret	 0
?IsCheckAlreadyAttain@QuestBattleLevel@@UAE_NXZ ENDP	; QuestBattleLevel::IsCheckAlreadyAttain
_TEXT	ENDS
PUBLIC	?GetProgressResultOnlyText@QuestBattleLevel@@UAEAAVioHashString@@XZ ; QuestBattleLevel::GetProgressResultOnlyText
; Function compile flags: /Ogsp
;	COMDAT ?GetProgressResultOnlyText@QuestBattleLevel@@UAEAAVioHashString@@XZ
_TEXT	SEGMENT
?GetProgressResultOnlyText@QuestBattleLevel@@UAEAAVioHashString@@XZ PROC ; QuestBattleLevel::GetProgressResultOnlyText, COMDAT
; _this$ = ecx

; 2544 : {

  00000	56		 push	 esi

; 2545 : 	m_szOutProgressResult = "";

  00001	8d b1 c4 00 00
	00		 lea	 esi, DWORD PTR [ecx+196]
  00007	68 00 00 00 00	 push	 OFFSET ??_C@_00CNPNBAHC@?$AA@
  0000c	8b ce		 mov	 ecx, esi
  0000e	ff 15 00 00 00
	00		 call	 DWORD PTR __imp_??4ioHashString@@QAEAAV0@PBD@Z

; 2546 : 	return m_szOutProgressResult;

  00014	8b c6		 mov	 eax, esi
  00016	5e		 pop	 esi

; 2547 : }

  00017	c3		 ret	 0
?GetProgressResultOnlyText@QuestBattleLevel@@UAEAAVioHashString@@XZ ENDP ; QuestBattleLevel::GetProgressResultOnlyText
_TEXT	ENDS
PUBLIC	?IsCheckAlreadyAttain@QuestAwardLevel@@UAE_NXZ	; QuestAwardLevel::IsCheckAlreadyAttain
EXTRN	?GetAwardLevel@ioMyInfo@@QAEHXZ:PROC		; ioMyInfo::GetAwardLevel
; Function compile flags: /Ogsp
;	COMDAT ?IsCheckAlreadyAttain@QuestAwardLevel@@UAE_NXZ
_TEXT	SEGMENT
?IsCheckAlreadyAttain@QuestAwardLevel@@UAE_NXZ PROC	; QuestAwardLevel::IsCheckAlreadyAttain, COMDAT
; _this$ = ecx

; 2589 : {

  00000	56		 push	 esi
  00001	57		 push	 edi
  00002	8b f9		 mov	 edi, ecx

; 2590 : 	return SetAttainProcess( g_MyInfo.GetAwardLevel(), GetProgressCount() );

  00004	8b 37		 mov	 esi, DWORD PTR [edi]
  00006	ff 56 0c	 call	 DWORD PTR [esi+12]
  00009	50		 push	 eax
  0000a	e8 00 00 00 00	 call	 ?GetSingleton@ioMyInfo@@SAAAV1@XZ ; ioMyInfo::GetSingleton
  0000f	8b c8		 mov	 ecx, eax
  00011	e8 00 00 00 00	 call	 ?GetAwardLevel@ioMyInfo@@QAEHXZ ; ioMyInfo::GetAwardLevel
  00016	50		 push	 eax
  00017	8b cf		 mov	 ecx, edi
  00019	ff 56 40	 call	 DWORD PTR [esi+64]
  0001c	5f		 pop	 edi
  0001d	5e		 pop	 esi

; 2591 : }

  0001e	c3		 ret	 0
?IsCheckAlreadyAttain@QuestAwardLevel@@UAE_NXZ ENDP	; QuestAwardLevel::IsCheckAlreadyAttain
_TEXT	ENDS
PUBLIC	?GetProgressResultOnlyText@QuestAwardLevel@@UAEAAVioHashString@@XZ ; QuestAwardLevel::GetProgressResultOnlyText
; Function compile flags: /Ogsp
;	COMDAT ?GetProgressResultOnlyText@QuestAwardLevel@@UAEAAVioHashString@@XZ
_TEXT	SEGMENT
?GetProgressResultOnlyText@QuestAwardLevel@@UAEAAVioHashString@@XZ PROC ; QuestAwardLevel::GetProgressResultOnlyText, COMDAT
; _this$ = ecx

; 2630 : {

  00000	56		 push	 esi

; 2631 : 	m_szOutProgressResult = "";

  00001	8d b1 c4 00 00
	00		 lea	 esi, DWORD PTR [ecx+196]
  00007	68 00 00 00 00	 push	 OFFSET ??_C@_00CNPNBAHC@?$AA@
  0000c	8b ce		 mov	 ecx, esi
  0000e	ff 15 00 00 00
	00		 call	 DWORD PTR __imp_??4ioHashString@@QAEAAV0@PBD@Z

; 2632 : 	return m_szOutProgressResult;

  00014	8b c6		 mov	 eax, esi
  00016	5e		 pop	 esi

; 2633 : }

  00017	c3		 ret	 0
?GetProgressResultOnlyText@QuestAwardLevel@@UAEAAVioHashString@@XZ ENDP ; QuestAwardLevel::GetProgressResultOnlyText
_TEXT	ENDS
PUBLIC	??_C@_0CB@PEDMCBII@QuestDropKill?3?3GetProgressResult@ ; `string'
PUBLIC	__$ArrayPad$
PUBLIC	?GetProgressResult@QuestDropKill@@UAEAAVioHashString@@XZ ; QuestDropKill::GetProgressResult
;	COMDAT ??_C@_0CB@PEDMCBII@QuestDropKill?3?3GetProgressResult@
CONST	SEGMENT
??_C@_0CB@PEDMCBII@QuestDropKill?3?3GetProgressResult@ DB 'QuestDropKill:'
	DB	':GetProgressResult', 00H			; `string'
; Function compile flags: /Ogsp
CONST	ENDS
;	COMDAT ?GetProgressResult@QuestDropKill@@UAEAAVioHashString@@XZ
_TEXT	SEGMENT
_kQuestData$ = -268					; size = 4
_szBuf$ = -264						; size = 260
__$ArrayPad$ = -4					; size = 4
?GetProgressResult@QuestDropKill@@UAEAAVioHashString@@XZ PROC ; QuestDropKill::GetProgressResult, COMDAT
; _this$ = ecx

; 2722 : {

  00000	55		 push	 ebp
  00001	8b ec		 mov	 ebp, esp
  00003	81 ec 0c 01 00
	00		 sub	 esp, 268		; 0000010cH
  00009	a1 00 00 00 00	 mov	 eax, DWORD PTR ___security_cookie
  0000e	33 c5		 xor	 eax, ebp
  00010	89 45 fc	 mov	 DWORD PTR __$ArrayPad$[ebp], eax
  00013	56		 push	 esi
  00014	8b f1		 mov	 esi, ecx

; 2723 : 	QuestData &kQuestData = GetMyInfoQuestData();

  00016	8b 06		 mov	 eax, DWORD PTR [esi]
  00018	ff 50 28	 call	 DWORD PTR [eax+40]

; 2724 : 	char szBuf[MAX_PATH] = "";

  0001b	68 03 01 00 00	 push	 259			; 00000103H
  00020	89 85 f4 fe ff
	ff		 mov	 DWORD PTR _kQuestData$[ebp], eax
  00026	8d 85 f9 fe ff
	ff		 lea	 eax, DWORD PTR _szBuf$[ebp+1]
  0002c	6a 00		 push	 0
  0002e	50		 push	 eax
  0002f	c6 85 f8 fe ff
	ff 00		 mov	 BYTE PTR _szBuf$[ebp], 0
  00036	e8 00 00 00 00	 call	 _memset
  0003b	83 c4 0c	 add	 esp, 12			; 0000000cH

; 2725 : 	if( !m_szProgressResult.IsEmpty() )

  0003e	8d 8e b4 00 00
	00		 lea	 ecx, DWORD PTR [esi+180]
  00044	ff 15 00 00 00
	00		 call	 DWORD PTR __imp_?IsEmpty@ioHashString@@QBE_NXZ
  0004a	84 c0		 test	 al, al
  0004c	0f 85 8d 00 00
	00		 jne	 $LN1@GetProgres@16

; 2726 : 	{
; 2727 : 		if( !IsMeProgressQuest() )

  00052	8b 06		 mov	 eax, DWORD PTR [esi]
  00054	8b ce		 mov	 ecx, esi
  00056	ff 50 2c	 call	 DWORD PTR [eax+44]
  00059	84 c0		 test	 al, al
  0005b	75 34		 jne	 SHORT $LN2@GetProgres@16

; 2728 : 			SafeSprintf( szBuf, sizeof( szBuf ), STR(1) );

  0005d	6a 00		 push	 0
  0005f	6a 01		 push	 1
  00061	68 00 00 00 00	 push	 OFFSET ??_C@_00CNPNBAHC@?$AA@
  00066	68 00 00 00 00	 push	 OFFSET ??_C@_0CB@PEDMCBII@QuestDropKill?3?3GetProgressResult@
  0006b	ff 15 00 00 00
	00		 call	 DWORD PTR __imp_?GetSingleton@ioStringManager@@SAAAV1@XZ
  00071	8b c8		 mov	 ecx, eax
  00073	ff 15 00 00 00
	00		 call	 DWORD PTR __imp_?GetString@ioStringManager@@QAEPADPBD0HW4FileNamePrefix@1@@Z
  00079	50		 push	 eax
  0007a	8d 85 f8 fe ff
	ff		 lea	 eax, DWORD PTR _szBuf$[ebp]
  00080	68 04 01 00 00	 push	 260			; 00000104H
  00085	50		 push	 eax
  00086	ff 15 00 00 00
	00		 call	 DWORD PTR __imp_?SafeSprintf@@YAXPADHPBDZZ
  0008c	83 c4 0c	 add	 esp, 12			; 0000000cH

; 2729 : 		else

  0008f	eb 4e		 jmp	 SHORT $LN1@GetProgres@16
$LN2@GetProgres@16:
  00091	57		 push	 edi

; 2730 : 			SafeSprintf( szBuf, sizeof( szBuf ), STR(2), GetProgressPercentage( kQuestData.GetCurrentData(), GetProgressCount() ) );

  00092	8b 3e		 mov	 edi, DWORD PTR [esi]
  00094	8b ce		 mov	 ecx, esi
  00096	ff 57 0c	 call	 DWORD PTR [edi+12]
  00099	8b 8d f4 fe ff
	ff		 mov	 ecx, DWORD PTR _kQuestData$[ebp]
  0009f	50		 push	 eax
  000a0	e8 00 00 00 00	 call	 ?GetCurrentData@QuestData@@QAEKXZ ; QuestData::GetCurrentData
  000a5	50		 push	 eax
  000a6	8b ce		 mov	 ecx, esi
  000a8	ff 57 10	 call	 DWORD PTR [edi+16]
  000ab	50		 push	 eax
  000ac	6a 00		 push	 0
  000ae	6a 02		 push	 2
  000b0	68 00 00 00 00	 push	 OFFSET ??_C@_00CNPNBAHC@?$AA@
  000b5	68 00 00 00 00	 push	 OFFSET ??_C@_0CB@PEDMCBII@QuestDropKill?3?3GetProgressResult@
  000ba	ff 15 00 00 00
	00		 call	 DWORD PTR __imp_?GetSingleton@ioStringManager@@SAAAV1@XZ
  000c0	8b c8		 mov	 ecx, eax
  000c2	ff 15 00 00 00
	00		 call	 DWORD PTR __imp_?GetString@ioStringManager@@QAEPADPBD0HW4FileNamePrefix@1@@Z
  000c8	50		 push	 eax
  000c9	8d 85 f8 fe ff
	ff		 lea	 eax, DWORD PTR _szBuf$[ebp]
  000cf	68 04 01 00 00	 push	 260			; 00000104H
  000d4	50		 push	 eax
  000d5	ff 15 00 00 00
	00		 call	 DWORD PTR __imp_?SafeSprintf@@YAXPADHPBDH@Z
  000db	83 c4 10	 add	 esp, 16			; 00000010H
  000de	5f		 pop	 edi
$LN1@GetProgres@16:

; 2731 : 	}
; 2732 : 	m_szOutProgressResult = szBuf;

  000df	8d 85 f8 fe ff
	ff		 lea	 eax, DWORD PTR _szBuf$[ebp]
  000e5	50		 push	 eax
  000e6	8d 8e c4 00 00
	00		 lea	 ecx, DWORD PTR [esi+196]
  000ec	ff 15 00 00 00
	00		 call	 DWORD PTR __imp_??4ioHashString@@QAEAAV0@PBD@Z

; 2733 : 	return m_szOutProgressResult;
; 2734 : }

  000f2	8b 4d fc	 mov	 ecx, DWORD PTR __$ArrayPad$[ebp]
  000f5	8d 86 c4 00 00
	00		 lea	 eax, DWORD PTR [esi+196]
  000fb	33 cd		 xor	 ecx, ebp
  000fd	5e		 pop	 esi
  000fe	e8 00 00 00 00	 call	 @__security_check_cookie@4
  00103	c9		 leave
  00104	c3		 ret	 0
?GetProgressResult@QuestDropKill@@UAEAAVioHashString@@XZ ENDP ; QuestDropKill::GetProgressResult
_TEXT	ENDS
PUBLIC	??_C@_0CL@ENJOKKJB@QuestDropKill?3?3GetProgressResult@ ; `string'
PUBLIC	__$ArrayPad$
PUBLIC	?GetProgressResultOnlyNumber@QuestDropKill@@UAEAAVioHashString@@XZ ; QuestDropKill::GetProgressResultOnlyNumber
;	COMDAT ??_C@_0CL@ENJOKKJB@QuestDropKill?3?3GetProgressResult@
CONST	SEGMENT
??_C@_0CL@ENJOKKJB@QuestDropKill?3?3GetProgressResult@ DB 'QuestDropKill:'
	DB	':GetProgressResultOnlyNumber', 00H		; `string'
; Function compile flags: /Ogsp
CONST	ENDS
;	COMDAT ?GetProgressResultOnlyNumber@QuestDropKill@@UAEAAVioHashString@@XZ
_TEXT	SEGMENT
_kQuestData$ = -268					; size = 4
_szBuf$ = -264						; size = 260
__$ArrayPad$ = -4					; size = 4
?GetProgressResultOnlyNumber@QuestDropKill@@UAEAAVioHashString@@XZ PROC ; QuestDropKill::GetProgressResultOnlyNumber, COMDAT
; _this$ = ecx

; 2737 : {

  00000	55		 push	 ebp
  00001	8b ec		 mov	 ebp, esp
  00003	81 ec 0c 01 00
	00		 sub	 esp, 268		; 0000010cH
  00009	a1 00 00 00 00	 mov	 eax, DWORD PTR ___security_cookie
  0000e	33 c5		 xor	 eax, ebp
  00010	89 45 fc	 mov	 DWORD PTR __$ArrayPad$[ebp], eax
  00013	56		 push	 esi
  00014	8b f1		 mov	 esi, ecx

; 2738 : 	QuestData &kQuestData = GetMyInfoQuestData();

  00016	8b 06		 mov	 eax, DWORD PTR [esi]
  00018	ff 50 28	 call	 DWORD PTR [eax+40]

; 2739 : 	char szBuf[MAX_PATH] = "";

  0001b	68 03 01 00 00	 push	 259			; 00000103H
  00020	89 85 f4 fe ff
	ff		 mov	 DWORD PTR _kQuestData$[ebp], eax
  00026	8d 85 f9 fe ff
	ff		 lea	 eax, DWORD PTR _szBuf$[ebp+1]
  0002c	6a 00		 push	 0
  0002e	50		 push	 eax
  0002f	c6 85 f8 fe ff
	ff 00		 mov	 BYTE PTR _szBuf$[ebp], 0
  00036	e8 00 00 00 00	 call	 _memset
  0003b	83 c4 0c	 add	 esp, 12			; 0000000cH

; 2740 : 	if( !m_szProgressResult.IsEmpty() )

  0003e	8d 8e b4 00 00
	00		 lea	 ecx, DWORD PTR [esi+180]
  00044	ff 15 00 00 00
	00		 call	 DWORD PTR __imp_?IsEmpty@ioHashString@@QBE_NXZ
  0004a	84 c0		 test	 al, al
  0004c	75 4e		 jne	 SHORT $LN1@GetProgres@17

; 2741 : 		SafeSprintf( szBuf, sizeof( szBuf ), STR(1), GetProgressPercentage( kQuestData.GetCurrentData(), GetProgressCount() ) );

  0004e	57		 push	 edi
  0004f	8b 3e		 mov	 edi, DWORD PTR [esi]
  00051	8b ce		 mov	 ecx, esi
  00053	ff 57 0c	 call	 DWORD PTR [edi+12]
  00056	8b 8d f4 fe ff
	ff		 mov	 ecx, DWORD PTR _kQuestData$[ebp]
  0005c	50		 push	 eax
  0005d	e8 00 00 00 00	 call	 ?GetCurrentData@QuestData@@QAEKXZ ; QuestData::GetCurrentData
  00062	50		 push	 eax
  00063	8b ce		 mov	 ecx, esi
  00065	ff 57 10	 call	 DWORD PTR [edi+16]
  00068	50		 push	 eax
  00069	6a 00		 push	 0
  0006b	6a 01		 push	 1
  0006d	68 00 00 00 00	 push	 OFFSET ??_C@_00CNPNBAHC@?$AA@
  00072	68 00 00 00 00	 push	 OFFSET ??_C@_0CL@ENJOKKJB@QuestDropKill?3?3GetProgressResult@
  00077	ff 15 00 00 00
	00		 call	 DWORD PTR __imp_?GetSingleton@ioStringManager@@SAAAV1@XZ
  0007d	8b c8		 mov	 ecx, eax
  0007f	ff 15 00 00 00
	00		 call	 DWORD PTR __imp_?GetString@ioStringManager@@QAEPADPBD0HW4FileNamePrefix@1@@Z
  00085	50		 push	 eax
  00086	8d 85 f8 fe ff
	ff		 lea	 eax, DWORD PTR _szBuf$[ebp]
  0008c	68 04 01 00 00	 push	 260			; 00000104H
  00091	50		 push	 eax
  00092	ff 15 00 00 00
	00		 call	 DWORD PTR __imp_?SafeSprintf@@YAXPADHPBDH@Z
  00098	83 c4 10	 add	 esp, 16			; 00000010H
  0009b	5f		 pop	 edi
$LN1@GetProgres@17:

; 2742 : 	m_szOutProgressResult = szBuf;

  0009c	8d 85 f8 fe ff
	ff		 lea	 eax, DWORD PTR _szBuf$[ebp]
  000a2	50		 push	 eax
  000a3	8d 8e c4 00 00
	00		 lea	 ecx, DWORD PTR [esi+196]
  000a9	ff 15 00 00 00
	00		 call	 DWORD PTR __imp_??4ioHashString@@QAEAAV0@PBD@Z

; 2743 : 	return m_szOutProgressResult;
; 2744 : }

  000af	8b 4d fc	 mov	 ecx, DWORD PTR __$ArrayPad$[ebp]
  000b2	8d 86 c4 00 00
	00		 lea	 eax, DWORD PTR [esi+196]
  000b8	33 cd		 xor	 ecx, ebp
  000ba	5e		 pop	 esi
  000bb	e8 00 00 00 00	 call	 @__security_check_cookie@4
  000c0	c9		 leave
  000c1	c3		 ret	 0
?GetProgressResultOnlyNumber@QuestDropKill@@UAEAAVioHashString@@XZ ENDP ; QuestDropKill::GetProgressResultOnlyNumber
_TEXT	ENDS
PUBLIC	?GetProgressResultOnlyText@QuestDropKill@@UAEAAVioHashString@@XZ ; QuestDropKill::GetProgressResultOnlyText
; Function compile flags: /Ogsp
;	COMDAT ?GetProgressResultOnlyText@QuestDropKill@@UAEAAVioHashString@@XZ
_TEXT	SEGMENT
?GetProgressResultOnlyText@QuestDropKill@@UAEAAVioHashString@@XZ PROC ; QuestDropKill::GetProgressResultOnlyText, COMDAT
; _this$ = ecx

; 2747 : {

  00000	56		 push	 esi

; 2748 : 	m_szOutProgressResult = "";

  00001	8d b1 c4 00 00
	00		 lea	 esi, DWORD PTR [ecx+196]
  00007	68 00 00 00 00	 push	 OFFSET ??_C@_00CNPNBAHC@?$AA@
  0000c	8b ce		 mov	 ecx, esi
  0000e	ff 15 00 00 00
	00		 call	 DWORD PTR __imp_??4ioHashString@@QAEAAV0@PBD@Z

; 2749 : 	return m_szOutProgressResult;

  00014	8b c6		 mov	 eax, esi
  00016	5e		 pop	 esi

; 2750 : }

  00017	c3		 ret	 0
?GetProgressResultOnlyText@QuestDropKill@@UAEAAVioHashString@@XZ ENDP ; QuestDropKill::GetProgressResultOnlyText
_TEXT	ENDS
PUBLIC	?GetProgressGaugeRate@QuestDropKill@@UAEMXZ	; QuestDropKill::GetProgressGaugeRate
; Function compile flags: /Ogsp
;	COMDAT ?GetProgressGaugeRate@QuestDropKill@@UAEMXZ
_TEXT	SEGMENT
?GetProgressGaugeRate@QuestDropKill@@UAEMXZ PROC	; QuestDropKill::GetProgressGaugeRate, COMDAT
; _this$ = ecx

; 2754 : 	return QuestParent::GetProgressGaugeRate();

  00000	e9 00 00 00 00	 jmp	 ?GetProgressGaugeRate@QuestParent@@UAEMXZ ; QuestParent::GetProgressGaugeRate
?GetProgressGaugeRate@QuestDropKill@@UAEMXZ ENDP	; QuestDropKill::GetProgressGaugeRate
_TEXT	ENDS
PUBLIC	??_C@_0CC@MGBHLOKO@QuestMultiKill?3?3GetProgressResul@ ; `string'
PUBLIC	__$ArrayPad$
PUBLIC	?GetProgressResult@QuestMultiKill@@UAEAAVioHashString@@XZ ; QuestMultiKill::GetProgressResult
;	COMDAT ??_C@_0CC@MGBHLOKO@QuestMultiKill?3?3GetProgressResul@
CONST	SEGMENT
??_C@_0CC@MGBHLOKO@QuestMultiKill?3?3GetProgressResul@ DB 'QuestMultiKill'
	DB	'::GetProgressResult', 00H			; `string'
; Function compile flags: /Ogsp
CONST	ENDS
;	COMDAT ?GetProgressResult@QuestMultiKill@@UAEAAVioHashString@@XZ
_TEXT	SEGMENT
_kQuestData$ = -268					; size = 4
_szBuf$ = -264						; size = 260
__$ArrayPad$ = -4					; size = 4
?GetProgressResult@QuestMultiKill@@UAEAAVioHashString@@XZ PROC ; QuestMultiKill::GetProgressResult, COMDAT
; _this$ = ecx

; 2798 : {

  00000	55		 push	 ebp
  00001	8b ec		 mov	 ebp, esp
  00003	81 ec 0c 01 00
	00		 sub	 esp, 268		; 0000010cH
  00009	a1 00 00 00 00	 mov	 eax, DWORD PTR ___security_cookie
  0000e	33 c5		 xor	 eax, ebp
  00010	89 45 fc	 mov	 DWORD PTR __$ArrayPad$[ebp], eax
  00013	56		 push	 esi
  00014	8b f1		 mov	 esi, ecx

; 2799 : 	QuestData &kQuestData = GetMyInfoQuestData();

  00016	8b 06		 mov	 eax, DWORD PTR [esi]
  00018	ff 50 28	 call	 DWORD PTR [eax+40]

; 2800 : 	char szBuf[MAX_PATH] = "";

  0001b	68 03 01 00 00	 push	 259			; 00000103H
  00020	89 85 f4 fe ff
	ff		 mov	 DWORD PTR _kQuestData$[ebp], eax
  00026	8d 85 f9 fe ff
	ff		 lea	 eax, DWORD PTR _szBuf$[ebp+1]
  0002c	6a 00		 push	 0
  0002e	50		 push	 eax
  0002f	c6 85 f8 fe ff
	ff 00		 mov	 BYTE PTR _szBuf$[ebp], 0
  00036	e8 00 00 00 00	 call	 _memset
  0003b	83 c4 0c	 add	 esp, 12			; 0000000cH

; 2801 : 	if( !m_szProgressResult.IsEmpty() )

  0003e	8d 8e b4 00 00
	00		 lea	 ecx, DWORD PTR [esi+180]
  00044	ff 15 00 00 00
	00		 call	 DWORD PTR __imp_?IsEmpty@ioHashString@@QBE_NXZ
  0004a	84 c0		 test	 al, al
  0004c	0f 85 8d 00 00
	00		 jne	 $LN1@GetProgres@18

; 2802 : 	{
; 2803 : 		if( !IsMeProgressQuest() )

  00052	8b 06		 mov	 eax, DWORD PTR [esi]
  00054	8b ce		 mov	 ecx, esi
  00056	ff 50 2c	 call	 DWORD PTR [eax+44]
  00059	84 c0		 test	 al, al
  0005b	75 34		 jne	 SHORT $LN2@GetProgres@18

; 2804 : 			SafeSprintf( szBuf, sizeof( szBuf ), STR(1) );

  0005d	6a 00		 push	 0
  0005f	6a 01		 push	 1
  00061	68 00 00 00 00	 push	 OFFSET ??_C@_00CNPNBAHC@?$AA@
  00066	68 00 00 00 00	 push	 OFFSET ??_C@_0CC@MGBHLOKO@QuestMultiKill?3?3GetProgressResul@
  0006b	ff 15 00 00 00
	00		 call	 DWORD PTR __imp_?GetSingleton@ioStringManager@@SAAAV1@XZ
  00071	8b c8		 mov	 ecx, eax
  00073	ff 15 00 00 00
	00		 call	 DWORD PTR __imp_?GetString@ioStringManager@@QAEPADPBD0HW4FileNamePrefix@1@@Z
  00079	50		 push	 eax
  0007a	8d 85 f8 fe ff
	ff		 lea	 eax, DWORD PTR _szBuf$[ebp]
  00080	68 04 01 00 00	 push	 260			; 00000104H
  00085	50		 push	 eax
  00086	ff 15 00 00 00
	00		 call	 DWORD PTR __imp_?SafeSprintf@@YAXPADHPBDZZ
  0008c	83 c4 0c	 add	 esp, 12			; 0000000cH

; 2805 : 		else

  0008f	eb 4e		 jmp	 SHORT $LN1@GetProgres@18
$LN2@GetProgres@18:
  00091	57		 push	 edi

; 2806 : 			SafeSprintf( szBuf, sizeof( szBuf ), STR(2), GetProgressPercentage( kQuestData.GetCurrentData(), GetProgressCount() ) );

  00092	8b 3e		 mov	 edi, DWORD PTR [esi]
  00094	8b ce		 mov	 ecx, esi
  00096	ff 57 0c	 call	 DWORD PTR [edi+12]
  00099	8b 8d f4 fe ff
	ff		 mov	 ecx, DWORD PTR _kQuestData$[ebp]
  0009f	50		 push	 eax
  000a0	e8 00 00 00 00	 call	 ?GetCurrentData@QuestData@@QAEKXZ ; QuestData::GetCurrentData
  000a5	50		 push	 eax
  000a6	8b ce		 mov	 ecx, esi
  000a8	ff 57 10	 call	 DWORD PTR [edi+16]
  000ab	50		 push	 eax
  000ac	6a 00		 push	 0
  000ae	6a 02		 push	 2
  000b0	68 00 00 00 00	 push	 OFFSET ??_C@_00CNPNBAHC@?$AA@
  000b5	68 00 00 00 00	 push	 OFFSET ??_C@_0CC@MGBHLOKO@QuestMultiKill?3?3GetProgressResul@
  000ba	ff 15 00 00 00
	00		 call	 DWORD PTR __imp_?GetSingleton@ioStringManager@@SAAAV1@XZ
  000c0	8b c8		 mov	 ecx, eax
  000c2	ff 15 00 00 00
	00		 call	 DWORD PTR __imp_?GetString@ioStringManager@@QAEPADPBD0HW4FileNamePrefix@1@@Z
  000c8	50		 push	 eax
  000c9	8d 85 f8 fe ff
	ff		 lea	 eax, DWORD PTR _szBuf$[ebp]
  000cf	68 04 01 00 00	 push	 260			; 00000104H
  000d4	50		 push	 eax
  000d5	ff 15 00 00 00
	00		 call	 DWORD PTR __imp_?SafeSprintf@@YAXPADHPBDH@Z
  000db	83 c4 10	 add	 esp, 16			; 00000010H
  000de	5f		 pop	 edi
$LN1@GetProgres@18:

; 2807 : 	}
; 2808 : 	m_szOutProgressResult = szBuf;

  000df	8d 85 f8 fe ff
	ff		 lea	 eax, DWORD PTR _szBuf$[ebp]
  000e5	50		 push	 eax
  000e6	8d 8e c4 00 00
	00		 lea	 ecx, DWORD PTR [esi+196]
  000ec	ff 15 00 00 00
	00		 call	 DWORD PTR __imp_??4ioHashString@@QAEAAV0@PBD@Z

; 2809 : 	return m_szOutProgressResult;
; 2810 : }

  000f2	8b 4d fc	 mov	 ecx, DWORD PTR __$ArrayPad$[ebp]
  000f5	8d 86 c4 00 00
	00		 lea	 eax, DWORD PTR [esi+196]
  000fb	33 cd		 xor	 ecx, ebp
  000fd	5e		 pop	 esi
  000fe	e8 00 00 00 00	 call	 @__security_check_cookie@4
  00103	c9		 leave
  00104	c3		 ret	 0
?GetProgressResult@QuestMultiKill@@UAEAAVioHashString@@XZ ENDP ; QuestMultiKill::GetProgressResult
_TEXT	ENDS
PUBLIC	??_C@_0CM@IBBBJOJC@QuestMultiKill?3?3GetProgressResul@ ; `string'
PUBLIC	__$ArrayPad$
PUBLIC	?GetProgressResultOnlyNumber@QuestMultiKill@@UAEAAVioHashString@@XZ ; QuestMultiKill::GetProgressResultOnlyNumber
;	COMDAT ??_C@_0CM@IBBBJOJC@QuestMultiKill?3?3GetProgressResul@
CONST	SEGMENT
??_C@_0CM@IBBBJOJC@QuestMultiKill?3?3GetProgressResul@ DB 'QuestMultiKill'
	DB	'::GetProgressResultOnlyNumber', 00H		; `string'
; Function compile flags: /Ogsp
CONST	ENDS
;	COMDAT ?GetProgressResultOnlyNumber@QuestMultiKill@@UAEAAVioHashString@@XZ
_TEXT	SEGMENT
_kQuestData$ = -268					; size = 4
_szBuf$ = -264						; size = 260
__$ArrayPad$ = -4					; size = 4
?GetProgressResultOnlyNumber@QuestMultiKill@@UAEAAVioHashString@@XZ PROC ; QuestMultiKill::GetProgressResultOnlyNumber, COMDAT
; _this$ = ecx

; 2813 : {

  00000	55		 push	 ebp
  00001	8b ec		 mov	 ebp, esp
  00003	81 ec 0c 01 00
	00		 sub	 esp, 268		; 0000010cH
  00009	a1 00 00 00 00	 mov	 eax, DWORD PTR ___security_cookie
  0000e	33 c5		 xor	 eax, ebp
  00010	89 45 fc	 mov	 DWORD PTR __$ArrayPad$[ebp], eax
  00013	56		 push	 esi
  00014	8b f1		 mov	 esi, ecx

; 2814 : 	QuestData &kQuestData = GetMyInfoQuestData();

  00016	8b 06		 mov	 eax, DWORD PTR [esi]
  00018	ff 50 28	 call	 DWORD PTR [eax+40]

; 2815 : 	char szBuf[MAX_PATH] = "";

  0001b	68 03 01 00 00	 push	 259			; 00000103H
  00020	89 85 f4 fe ff
	ff		 mov	 DWORD PTR _kQuestData$[ebp], eax
  00026	8d 85 f9 fe ff
	ff		 lea	 eax, DWORD PTR _szBuf$[ebp+1]
  0002c	6a 00		 push	 0
  0002e	50		 push	 eax
  0002f	c6 85 f8 fe ff
	ff 00		 mov	 BYTE PTR _szBuf$[ebp], 0
  00036	e8 00 00 00 00	 call	 _memset
  0003b	83 c4 0c	 add	 esp, 12			; 0000000cH

; 2816 : 	if( !m_szProgressResult.IsEmpty() )

  0003e	8d 8e b4 00 00
	00		 lea	 ecx, DWORD PTR [esi+180]
  00044	ff 15 00 00 00
	00		 call	 DWORD PTR __imp_?IsEmpty@ioHashString@@QBE_NXZ
  0004a	84 c0		 test	 al, al
  0004c	75 4e		 jne	 SHORT $LN1@GetProgres@19

; 2817 : 		SafeSprintf( szBuf, sizeof( szBuf ), STR(1), GetProgressPercentage( kQuestData.GetCurrentData(), GetProgressCount() ) );

  0004e	57		 push	 edi
  0004f	8b 3e		 mov	 edi, DWORD PTR [esi]
  00051	8b ce		 mov	 ecx, esi
  00053	ff 57 0c	 call	 DWORD PTR [edi+12]
  00056	8b 8d f4 fe ff
	ff		 mov	 ecx, DWORD PTR _kQuestData$[ebp]
  0005c	50		 push	 eax
  0005d	e8 00 00 00 00	 call	 ?GetCurrentData@QuestData@@QAEKXZ ; QuestData::GetCurrentData
  00062	50		 push	 eax
  00063	8b ce		 mov	 ecx, esi
  00065	ff 57 10	 call	 DWORD PTR [edi+16]
  00068	50		 push	 eax
  00069	6a 00		 push	 0
  0006b	6a 01		 push	 1
  0006d	68 00 00 00 00	 push	 OFFSET ??_C@_00CNPNBAHC@?$AA@
  00072	68 00 00 00 00	 push	 OFFSET ??_C@_0CM@IBBBJOJC@QuestMultiKill?3?3GetProgressResul@
  00077	ff 15 00 00 00
	00		 call	 DWORD PTR __imp_?GetSingleton@ioStringManager@@SAAAV1@XZ
  0007d	8b c8		 mov	 ecx, eax
  0007f	ff 15 00 00 00
	00		 call	 DWORD PTR __imp_?GetString@ioStringManager@@QAEPADPBD0HW4FileNamePrefix@1@@Z
  00085	50		 push	 eax
  00086	8d 85 f8 fe ff
	ff		 lea	 eax, DWORD PTR _szBuf$[ebp]
  0008c	68 04 01 00 00	 push	 260			; 00000104H
  00091	50		 push	 eax
  00092	ff 15 00 00 00
	00		 call	 DWORD PTR __imp_?SafeSprintf@@YAXPADHPBDH@Z
  00098	83 c4 10	 add	 esp, 16			; 00000010H
  0009b	5f		 pop	 edi
$LN1@GetProgres@19:

; 2818 : 	m_szOutProgressResult = szBuf;

  0009c	8d 85 f8 fe ff
	ff		 lea	 eax, DWORD PTR _szBuf$[ebp]
  000a2	50		 push	 eax
  000a3	8d 8e c4 00 00
	00		 lea	 ecx, DWORD PTR [esi+196]
  000a9	ff 15 00 00 00
	00		 call	 DWORD PTR __imp_??4ioHashString@@QAEAAV0@PBD@Z

; 2819 : 	return m_szOutProgressResult;
; 2820 : }

  000af	8b 4d fc	 mov	 ecx, DWORD PTR __$ArrayPad$[ebp]
  000b2	8d 86 c4 00 00
	00		 lea	 eax, DWORD PTR [esi+196]
  000b8	33 cd		 xor	 ecx, ebp
  000ba	5e		 pop	 esi
  000bb	e8 00 00 00 00	 call	 @__security_check_cookie@4
  000c0	c9		 leave
  000c1	c3		 ret	 0
?GetProgressResultOnlyNumber@QuestMultiKill@@UAEAAVioHashString@@XZ ENDP ; QuestMultiKill::GetProgressResultOnlyNumber
_TEXT	ENDS
PUBLIC	?GetProgressResultOnlyText@QuestMultiKill@@UAEAAVioHashString@@XZ ; QuestMultiKill::GetProgressResultOnlyText
; Function compile flags: /Ogsp
;	COMDAT ?GetProgressResultOnlyText@QuestMultiKill@@UAEAAVioHashString@@XZ
_TEXT	SEGMENT
?GetProgressResultOnlyText@QuestMultiKill@@UAEAAVioHashString@@XZ PROC ; QuestMultiKill::GetProgressResultOnlyText, COMDAT
; _this$ = ecx

; 2823 : {	

  00000	56		 push	 esi

; 2824 : 	m_szOutProgressResult = "";

  00001	8d b1 c4 00 00
	00		 lea	 esi, DWORD PTR [ecx+196]
  00007	68 00 00 00 00	 push	 OFFSET ??_C@_00CNPNBAHC@?$AA@
  0000c	8b ce		 mov	 ecx, esi
  0000e	ff 15 00 00 00
	00		 call	 DWORD PTR __imp_??4ioHashString@@QAEAAV0@PBD@Z

; 2825 : 	return m_szOutProgressResult;

  00014	8b c6		 mov	 eax, esi
  00016	5e		 pop	 esi

; 2826 : }

  00017	c3		 ret	 0
?GetProgressResultOnlyText@QuestMultiKill@@UAEAAVioHashString@@XZ ENDP ; QuestMultiKill::GetProgressResultOnlyText
_TEXT	ENDS
PUBLIC	?GetProgressGaugeRate@QuestMultiKill@@UAEMXZ	; QuestMultiKill::GetProgressGaugeRate
; Function compile flags: /Ogsp
;	COMDAT ?GetProgressGaugeRate@QuestMultiKill@@UAEMXZ
_TEXT	SEGMENT
?GetProgressGaugeRate@QuestMultiKill@@UAEMXZ PROC	; QuestMultiKill::GetProgressGaugeRate, COMDAT
; _this$ = ecx

; 2830 : 	return QuestParent::GetProgressGaugeRate();

  00000	e9 00 00 00 00	 jmp	 ?GetProgressGaugeRate@QuestParent@@UAEMXZ ; QuestParent::GetProgressGaugeRate
?GetProgressGaugeRate@QuestMultiKill@@UAEMXZ ENDP	; QuestMultiKill::GetProgressGaugeRate
_TEXT	ENDS
PUBLIC	?IsCheckCompleteTerm@QuestModePlayTime@@UAE_NKHHH@Z ; QuestModePlayTime::IsCheckCompleteTerm
; Function compile flags: /Ogsp
;	COMDAT ?IsCheckCompleteTerm@QuestModePlayTime@@UAE_NKHHH@Z
_TEXT	SEGMENT
_dwTerm$ = 8						; size = 4
_iValue1$ = 12						; size = 4
_iValue2$ = 16						; size = 4
_iValue3$ = 20						; size = 4
?IsCheckCompleteTerm@QuestModePlayTime@@UAE_NKHHH@Z PROC ; QuestModePlayTime::IsCheckCompleteTerm, COMDAT
; _this$ = ecx

; 3124 : 	return false;

  00000	32 c0		 xor	 al, al

; 3125 : }

  00002	c2 10 00	 ret	 16			; 00000010H
?IsCheckCompleteTerm@QuestModePlayTime@@UAE_NKHHH@Z ENDP ; QuestModePlayTime::IsCheckCompleteTerm
_TEXT	ENDS
PUBLIC	??_C@_0CE@MFOAAIEO@QuestStoneAttack?3?3GetProgressRes@ ; `string'
PUBLIC	__$ArrayPad$
PUBLIC	?GetProgressResult@QuestStoneAttack@@UAEAAVioHashString@@XZ ; QuestStoneAttack::GetProgressResult
;	COMDAT ??_C@_0CE@MFOAAIEO@QuestStoneAttack?3?3GetProgressRes@
CONST	SEGMENT
??_C@_0CE@MFOAAIEO@QuestStoneAttack?3?3GetProgressRes@ DB 'QuestStoneAtta'
	DB	'ck::GetProgressResult', 00H			; `string'
; Function compile flags: /Ogsp
CONST	ENDS
;	COMDAT ?GetProgressResult@QuestStoneAttack@@UAEAAVioHashString@@XZ
_TEXT	SEGMENT
_kQuestData$ = -268					; size = 4
_szBuf$ = -264						; size = 260
__$ArrayPad$ = -4					; size = 4
?GetProgressResult@QuestStoneAttack@@UAEAAVioHashString@@XZ PROC ; QuestStoneAttack::GetProgressResult, COMDAT
; _this$ = ecx

; 3247 : {

  00000	55		 push	 ebp
  00001	8b ec		 mov	 ebp, esp
  00003	81 ec 0c 01 00
	00		 sub	 esp, 268		; 0000010cH
  00009	a1 00 00 00 00	 mov	 eax, DWORD PTR ___security_cookie
  0000e	33 c5		 xor	 eax, ebp
  00010	89 45 fc	 mov	 DWORD PTR __$ArrayPad$[ebp], eax
  00013	56		 push	 esi
  00014	8b f1		 mov	 esi, ecx

; 3248 : 	QuestData &kQuestData = GetMyInfoQuestData();

  00016	8b 06		 mov	 eax, DWORD PTR [esi]
  00018	ff 50 28	 call	 DWORD PTR [eax+40]

; 3249 : 	char szBuf[MAX_PATH] = "";

  0001b	68 03 01 00 00	 push	 259			; 00000103H
  00020	89 85 f4 fe ff
	ff		 mov	 DWORD PTR _kQuestData$[ebp], eax
  00026	8d 85 f9 fe ff
	ff		 lea	 eax, DWORD PTR _szBuf$[ebp+1]
  0002c	6a 00		 push	 0
  0002e	50		 push	 eax
  0002f	c6 85 f8 fe ff
	ff 00		 mov	 BYTE PTR _szBuf$[ebp], 0
  00036	e8 00 00 00 00	 call	 _memset
  0003b	83 c4 0c	 add	 esp, 12			; 0000000cH

; 3250 : 	if( !m_szProgressResult.IsEmpty() )

  0003e	8d 8e b4 00 00
	00		 lea	 ecx, DWORD PTR [esi+180]
  00044	ff 15 00 00 00
	00		 call	 DWORD PTR __imp_?IsEmpty@ioHashString@@QBE_NXZ
  0004a	84 c0		 test	 al, al
  0004c	0f 85 8d 00 00
	00		 jne	 $LN1@GetProgres@20

; 3251 : 	{
; 3252 : 		if( !IsMeProgressQuest() )

  00052	8b 06		 mov	 eax, DWORD PTR [esi]
  00054	8b ce		 mov	 ecx, esi
  00056	ff 50 2c	 call	 DWORD PTR [eax+44]
  00059	84 c0		 test	 al, al
  0005b	75 34		 jne	 SHORT $LN2@GetProgres@20

; 3253 : 			SafeSprintf( szBuf, sizeof( szBuf ), STR(1) );

  0005d	6a 00		 push	 0
  0005f	6a 01		 push	 1
  00061	68 00 00 00 00	 push	 OFFSET ??_C@_00CNPNBAHC@?$AA@
  00066	68 00 00 00 00	 push	 OFFSET ??_C@_0CE@MFOAAIEO@QuestStoneAttack?3?3GetProgressRes@
  0006b	ff 15 00 00 00
	00		 call	 DWORD PTR __imp_?GetSingleton@ioStringManager@@SAAAV1@XZ
  00071	8b c8		 mov	 ecx, eax
  00073	ff 15 00 00 00
	00		 call	 DWORD PTR __imp_?GetString@ioStringManager@@QAEPADPBD0HW4FileNamePrefix@1@@Z
  00079	50		 push	 eax
  0007a	8d 85 f8 fe ff
	ff		 lea	 eax, DWORD PTR _szBuf$[ebp]
  00080	68 04 01 00 00	 push	 260			; 00000104H
  00085	50		 push	 eax
  00086	ff 15 00 00 00
	00		 call	 DWORD PTR __imp_?SafeSprintf@@YAXPADHPBDZZ
  0008c	83 c4 0c	 add	 esp, 12			; 0000000cH

; 3254 : 		else

  0008f	eb 4e		 jmp	 SHORT $LN1@GetProgres@20
$LN2@GetProgres@20:
  00091	57		 push	 edi

; 3255 : 			SafeSprintf( szBuf, sizeof( szBuf ), STR(2), GetProgressPercentage( kQuestData.GetCurrentData(), GetProgressCount() ) );

  00092	8b 3e		 mov	 edi, DWORD PTR [esi]
  00094	8b ce		 mov	 ecx, esi
  00096	ff 57 0c	 call	 DWORD PTR [edi+12]
  00099	8b 8d f4 fe ff
	ff		 mov	 ecx, DWORD PTR _kQuestData$[ebp]
  0009f	50		 push	 eax
  000a0	e8 00 00 00 00	 call	 ?GetCurrentData@QuestData@@QAEKXZ ; QuestData::GetCurrentData
  000a5	50		 push	 eax
  000a6	8b ce		 mov	 ecx, esi
  000a8	ff 57 10	 call	 DWORD PTR [edi+16]
  000ab	50		 push	 eax
  000ac	6a 00		 push	 0
  000ae	6a 02		 push	 2
  000b0	68 00 00 00 00	 push	 OFFSET ??_C@_00CNPNBAHC@?$AA@
  000b5	68 00 00 00 00	 push	 OFFSET ??_C@_0CE@MFOAAIEO@QuestStoneAttack?3?3GetProgressRes@
  000ba	ff 15 00 00 00
	00		 call	 DWORD PTR __imp_?GetSingleton@ioStringManager@@SAAAV1@XZ
  000c0	8b c8		 mov	 ecx, eax
  000c2	ff 15 00 00 00
	00		 call	 DWORD PTR __imp_?GetString@ioStringManager@@QAEPADPBD0HW4FileNamePrefix@1@@Z
  000c8	50		 push	 eax
  000c9	8d 85 f8 fe ff
	ff		 lea	 eax, DWORD PTR _szBuf$[ebp]
  000cf	68 04 01 00 00	 push	 260			; 00000104H
  000d4	50		 push	 eax
  000d5	ff 15 00 00 00
	00		 call	 DWORD PTR __imp_?SafeSprintf@@YAXPADHPBDH@Z
  000db	83 c4 10	 add	 esp, 16			; 00000010H
  000de	5f		 pop	 edi
$LN1@GetProgres@20:

; 3256 : 	}
; 3257 : 	m_szOutProgressResult = szBuf;

  000df	8d 85 f8 fe ff
	ff		 lea	 eax, DWORD PTR _szBuf$[ebp]
  000e5	50		 push	 eax
  000e6	8d 8e c4 00 00
	00		 lea	 ecx, DWORD PTR [esi+196]
  000ec	ff 15 00 00 00
	00		 call	 DWORD PTR __imp_??4ioHashString@@QAEAAV0@PBD@Z

; 3258 : 	return m_szOutProgressResult;
; 3259 : }

  000f2	8b 4d fc	 mov	 ecx, DWORD PTR __$ArrayPad$[ebp]
  000f5	8d 86 c4 00 00
	00		 lea	 eax, DWORD PTR [esi+196]
  000fb	33 cd		 xor	 ecx, ebp
  000fd	5e		 pop	 esi
  000fe	e8 00 00 00 00	 call	 @__security_check_cookie@4
  00103	c9		 leave
  00104	c3		 ret	 0
?GetProgressResult@QuestStoneAttack@@UAEAAVioHashString@@XZ ENDP ; QuestStoneAttack::GetProgressResult
_TEXT	ENDS
PUBLIC	??_C@_0CO@EJMLCNDK@QuestStoneAttack?3?3GetProgressRes@ ; `string'
PUBLIC	__$ArrayPad$
PUBLIC	?GetProgressResultOnlyNumber@QuestStoneAttack@@UAEAAVioHashString@@XZ ; QuestStoneAttack::GetProgressResultOnlyNumber
;	COMDAT ??_C@_0CO@EJMLCNDK@QuestStoneAttack?3?3GetProgressRes@
CONST	SEGMENT
??_C@_0CO@EJMLCNDK@QuestStoneAttack?3?3GetProgressRes@ DB 'QuestStoneAtta'
	DB	'ck::GetProgressResultOnlyNumber', 00H	; `string'
; Function compile flags: /Ogsp
CONST	ENDS
;	COMDAT ?GetProgressResultOnlyNumber@QuestStoneAttack@@UAEAAVioHashString@@XZ
_TEXT	SEGMENT
_kQuestData$ = -268					; size = 4
_szBuf$ = -264						; size = 260
__$ArrayPad$ = -4					; size = 4
?GetProgressResultOnlyNumber@QuestStoneAttack@@UAEAAVioHashString@@XZ PROC ; QuestStoneAttack::GetProgressResultOnlyNumber, COMDAT
; _this$ = ecx

; 3262 : {

  00000	55		 push	 ebp
  00001	8b ec		 mov	 ebp, esp
  00003	81 ec 0c 01 00
	00		 sub	 esp, 268		; 0000010cH
  00009	a1 00 00 00 00	 mov	 eax, DWORD PTR ___security_cookie
  0000e	33 c5		 xor	 eax, ebp
  00010	89 45 fc	 mov	 DWORD PTR __$ArrayPad$[ebp], eax
  00013	56		 push	 esi
  00014	8b f1		 mov	 esi, ecx

; 3263 : 	QuestData &kQuestData = GetMyInfoQuestData();

  00016	8b 06		 mov	 eax, DWORD PTR [esi]
  00018	ff 50 28	 call	 DWORD PTR [eax+40]

; 3264 : 	char szBuf[MAX_PATH] = "";

  0001b	68 03 01 00 00	 push	 259			; 00000103H
  00020	89 85 f4 fe ff
	ff		 mov	 DWORD PTR _kQuestData$[ebp], eax
  00026	8d 85 f9 fe ff
	ff		 lea	 eax, DWORD PTR _szBuf$[ebp+1]
  0002c	6a 00		 push	 0
  0002e	50		 push	 eax
  0002f	c6 85 f8 fe ff
	ff 00		 mov	 BYTE PTR _szBuf$[ebp], 0
  00036	e8 00 00 00 00	 call	 _memset
  0003b	83 c4 0c	 add	 esp, 12			; 0000000cH

; 3265 : 	if( !m_szProgressResult.IsEmpty() )

  0003e	8d 8e b4 00 00
	00		 lea	 ecx, DWORD PTR [esi+180]
  00044	ff 15 00 00 00
	00		 call	 DWORD PTR __imp_?IsEmpty@ioHashString@@QBE_NXZ
  0004a	84 c0		 test	 al, al
  0004c	75 4e		 jne	 SHORT $LN1@GetProgres@21

; 3266 : 		SafeSprintf( szBuf, sizeof( szBuf ), STR(1), GetProgressPercentage( kQuestData.GetCurrentData(), GetProgressCount() ) );

  0004e	57		 push	 edi
  0004f	8b 3e		 mov	 edi, DWORD PTR [esi]
  00051	8b ce		 mov	 ecx, esi
  00053	ff 57 0c	 call	 DWORD PTR [edi+12]
  00056	8b 8d f4 fe ff
	ff		 mov	 ecx, DWORD PTR _kQuestData$[ebp]
  0005c	50		 push	 eax
  0005d	e8 00 00 00 00	 call	 ?GetCurrentData@QuestData@@QAEKXZ ; QuestData::GetCurrentData
  00062	50		 push	 eax
  00063	8b ce		 mov	 ecx, esi
  00065	ff 57 10	 call	 DWORD PTR [edi+16]
  00068	50		 push	 eax
  00069	6a 00		 push	 0
  0006b	6a 01		 push	 1
  0006d	68 00 00 00 00	 push	 OFFSET ??_C@_00CNPNBAHC@?$AA@
  00072	68 00 00 00 00	 push	 OFFSET ??_C@_0CO@EJMLCNDK@QuestStoneAttack?3?3GetProgressRes@
  00077	ff 15 00 00 00
	00		 call	 DWORD PTR __imp_?GetSingleton@ioStringManager@@SAAAV1@XZ
  0007d	8b c8		 mov	 ecx, eax
  0007f	ff 15 00 00 00
	00		 call	 DWORD PTR __imp_?GetString@ioStringManager@@QAEPADPBD0HW4FileNamePrefix@1@@Z
  00085	50		 push	 eax
  00086	8d 85 f8 fe ff
	ff		 lea	 eax, DWORD PTR _szBuf$[ebp]
  0008c	68 04 01 00 00	 push	 260			; 00000104H
  00091	50		 push	 eax
  00092	ff 15 00 00 00
	00		 call	 DWORD PTR __imp_?SafeSprintf@@YAXPADHPBDH@Z
  00098	83 c4 10	 add	 esp, 16			; 00000010H
  0009b	5f		 pop	 edi
$LN1@GetProgres@21:

; 3267 : 	m_szOutProgressResult = szBuf;

  0009c	8d 85 f8 fe ff
	ff		 lea	 eax, DWORD PTR _szBuf$[ebp]
  000a2	50		 push	 eax
  000a3	8d 8e c4 00 00
	00		 lea	 ecx, DWORD PTR [esi+196]
  000a9	ff 15 00 00 00
	00		 call	 DWORD PTR __imp_??4ioHashString@@QAEAAV0@PBD@Z

; 3268 : 	return m_szOutProgressResult;
; 3269 : }

  000af	8b 4d fc	 mov	 ecx, DWORD PTR __$ArrayPad$[ebp]
  000b2	8d 86 c4 00 00
	00		 lea	 eax, DWORD PTR [esi+196]
  000b8	33 cd		 xor	 ecx, ebp
  000ba	5e		 pop	 esi
  000bb	e8 00 00 00 00	 call	 @__security_check_cookie@4
  000c0	c9		 leave
  000c1	c3		 ret	 0
?GetProgressResultOnlyNumber@QuestStoneAttack@@UAEAAVioHashString@@XZ ENDP ; QuestStoneAttack::GetProgressResultOnlyNumber
_TEXT	ENDS
PUBLIC	?GetProgressResultOnlyText@QuestStoneAttack@@UAEAAVioHashString@@XZ ; QuestStoneAttack::GetProgressResultOnlyText
; Function compile flags: /Ogsp
;	COMDAT ?GetProgressResultOnlyText@QuestStoneAttack@@UAEAAVioHashString@@XZ
_TEXT	SEGMENT
?GetProgressResultOnlyText@QuestStoneAttack@@UAEAAVioHashString@@XZ PROC ; QuestStoneAttack::GetProgressResultOnlyText, COMDAT
; _this$ = ecx

; 3272 : {

  00000	56		 push	 esi

; 3273 : 	m_szOutProgressResult = "";

  00001	8d b1 c4 00 00
	00		 lea	 esi, DWORD PTR [ecx+196]
  00007	68 00 00 00 00	 push	 OFFSET ??_C@_00CNPNBAHC@?$AA@
  0000c	8b ce		 mov	 ecx, esi
  0000e	ff 15 00 00 00
	00		 call	 DWORD PTR __imp_??4ioHashString@@QAEAAV0@PBD@Z

; 3274 : 	return m_szOutProgressResult;

  00014	8b c6		 mov	 eax, esi
  00016	5e		 pop	 esi

; 3275 : }

  00017	c3		 ret	 0
?GetProgressResultOnlyText@QuestStoneAttack@@UAEAAVioHashString@@XZ ENDP ; QuestStoneAttack::GetProgressResultOnlyText
_TEXT	ENDS
PUBLIC	?GetProgressGaugeRate@QuestStoneAttack@@UAEMXZ	; QuestStoneAttack::GetProgressGaugeRate
; Function compile flags: /Ogsp
;	COMDAT ?GetProgressGaugeRate@QuestStoneAttack@@UAEMXZ
_TEXT	SEGMENT
?GetProgressGaugeRate@QuestStoneAttack@@UAEMXZ PROC	; QuestStoneAttack::GetProgressGaugeRate, COMDAT
; _this$ = ecx

; 3279 : 	return QuestParent::GetProgressGaugeRate();

  00000	e9 00 00 00 00	 jmp	 ?GetProgressGaugeRate@QuestParent@@UAEMXZ ; QuestParent::GetProgressGaugeRate
?GetProgressGaugeRate@QuestStoneAttack@@UAEMXZ ENDP	; QuestStoneAttack::GetProgressGaugeRate
_TEXT	ENDS
PUBLIC	?IsCheckAlreadyAttain@QuestMortmainSoldierCount@@UAE_NXZ ; QuestMortmainSoldierCount::IsCheckAlreadyAttain
EXTRN	?GetMortmainCharCount@ioMyInfo@@QAEHXZ:PROC	; ioMyInfo::GetMortmainCharCount
; Function compile flags: /Ogsp
;	COMDAT ?IsCheckAlreadyAttain@QuestMortmainSoldierCount@@UAE_NXZ
_TEXT	SEGMENT
?IsCheckAlreadyAttain@QuestMortmainSoldierCount@@UAE_NXZ PROC ; QuestMortmainSoldierCount::IsCheckAlreadyAttain, COMDAT
; _this$ = ecx

; 3529 : {

  00000	56		 push	 esi
  00001	57		 push	 edi
  00002	8b f9		 mov	 edi, ecx

; 3530 : 	return SetAttainProcess( g_MyInfo.GetMortmainCharCount(), GetProgressCount() );

  00004	8b 37		 mov	 esi, DWORD PTR [edi]
  00006	ff 56 0c	 call	 DWORD PTR [esi+12]
  00009	50		 push	 eax
  0000a	e8 00 00 00 00	 call	 ?GetSingleton@ioMyInfo@@SAAAV1@XZ ; ioMyInfo::GetSingleton
  0000f	8b c8		 mov	 ecx, eax
  00011	e8 00 00 00 00	 call	 ?GetMortmainCharCount@ioMyInfo@@QAEHXZ ; ioMyInfo::GetMortmainCharCount
  00016	50		 push	 eax
  00017	8b cf		 mov	 ecx, edi
  00019	ff 56 40	 call	 DWORD PTR [esi+64]
  0001c	5f		 pop	 edi
  0001d	5e		 pop	 esi

; 3531 : }

  0001e	c3		 ret	 0
?IsCheckAlreadyAttain@QuestMortmainSoldierCount@@UAE_NXZ ENDP ; QuestMortmainSoldierCount::IsCheckAlreadyAttain
_TEXT	ENDS
PUBLIC	?IsCheckAlreadyAttain@QuestCampLevel@@UAE_NXZ	; QuestCampLevel::IsCheckAlreadyAttain
EXTRN	?GetLadderLevel@ioMyInfo@@QAEHXZ:PROC		; ioMyInfo::GetLadderLevel
; Function compile flags: /Ogsp
;	COMDAT ?IsCheckAlreadyAttain@QuestCampLevel@@UAE_NXZ
_TEXT	SEGMENT
?IsCheckAlreadyAttain@QuestCampLevel@@UAE_NXZ PROC	; QuestCampLevel::IsCheckAlreadyAttain, COMDAT
; _this$ = ecx

; 3681 : {

  00000	56		 push	 esi
  00001	57		 push	 edi
  00002	8b f9		 mov	 edi, ecx

; 3682 : 	return SetAttainProcess( g_MyInfo.GetLadderLevel(), GetProgressCount() );

  00004	8b 37		 mov	 esi, DWORD PTR [edi]
  00006	ff 56 0c	 call	 DWORD PTR [esi+12]
  00009	50		 push	 eax
  0000a	e8 00 00 00 00	 call	 ?GetSingleton@ioMyInfo@@SAAAV1@XZ ; ioMyInfo::GetSingleton
  0000f	8b c8		 mov	 ecx, eax
  00011	e8 00 00 00 00	 call	 ?GetLadderLevel@ioMyInfo@@QAEHXZ ; ioMyInfo::GetLadderLevel
  00016	50		 push	 eax
  00017	8b cf		 mov	 ecx, edi
  00019	ff 56 40	 call	 DWORD PTR [esi+64]
  0001c	5f		 pop	 edi
  0001d	5e		 pop	 esi

; 3683 : }

  0001e	c3		 ret	 0
?IsCheckAlreadyAttain@QuestCampLevel@@UAE_NXZ ENDP	; QuestCampLevel::IsCheckAlreadyAttain
_TEXT	ENDS
PUBLIC	?GetProgressResultOnlyText@QuestCampLevel@@UAEAAVioHashString@@XZ ; QuestCampLevel::GetProgressResultOnlyText
; Function compile flags: /Ogsp
;	COMDAT ?GetProgressResultOnlyText@QuestCampLevel@@UAEAAVioHashString@@XZ
_TEXT	SEGMENT
?GetProgressResultOnlyText@QuestCampLevel@@UAEAAVioHashString@@XZ PROC ; QuestCampLevel::GetProgressResultOnlyText, COMDAT
; _this$ = ecx

; 3722 : {

  00000	56		 push	 esi

; 3723 : 	m_szOutProgressResult = "";

  00001	8d b1 c4 00 00
	00		 lea	 esi, DWORD PTR [ecx+196]
  00007	68 00 00 00 00	 push	 OFFSET ??_C@_00CNPNBAHC@?$AA@
  0000c	8b ce		 mov	 ecx, esi
  0000e	ff 15 00 00 00
	00		 call	 DWORD PTR __imp_??4ioHashString@@QAEAAV0@PBD@Z

; 3724 : 	return m_szOutProgressResult;

  00014	8b c6		 mov	 eax, esi
  00016	5e		 pop	 esi

; 3725 : }

  00017	c3		 ret	 0
?GetProgressResultOnlyText@QuestCampLevel@@UAEAAVioHashString@@XZ ENDP ; QuestCampLevel::GetProgressResultOnlyText
_TEXT	ENDS
PUBLIC	?IsCheckAlreadyAttain@QuestMaxFriendSlot@@UAE_NXZ ; QuestMaxFriendSlot::IsCheckAlreadyAttain
EXTRN	?GetSlotSize@ioFriendManager@@QAEHXZ:PROC	; ioFriendManager::GetSlotSize
EXTRN	?GetSingleton@ioFriendManager@@SAAAV1@XZ:PROC	; ioFriendManager::GetSingleton
; Function compile flags: /Ogsp
;	COMDAT ?IsCheckAlreadyAttain@QuestMaxFriendSlot@@UAE_NXZ
_TEXT	SEGMENT
?IsCheckAlreadyAttain@QuestMaxFriendSlot@@UAE_NXZ PROC	; QuestMaxFriendSlot::IsCheckAlreadyAttain, COMDAT
; _this$ = ecx

; 3814 : {

  00000	56		 push	 esi
  00001	57		 push	 edi
  00002	8b f9		 mov	 edi, ecx

; 3815 : 	return SetAttainProcess( g_FriendManager.GetSlotSize(), GetProgressCount() );

  00004	8b 37		 mov	 esi, DWORD PTR [edi]
  00006	ff 56 0c	 call	 DWORD PTR [esi+12]
  00009	50		 push	 eax
  0000a	e8 00 00 00 00	 call	 ?GetSingleton@ioFriendManager@@SAAAV1@XZ ; ioFriendManager::GetSingleton
  0000f	8b c8		 mov	 ecx, eax
  00011	e8 00 00 00 00	 call	 ?GetSlotSize@ioFriendManager@@QAEHXZ ; ioFriendManager::GetSlotSize
  00016	50		 push	 eax
  00017	8b cf		 mov	 ecx, edi
  00019	ff 56 40	 call	 DWORD PTR [esi+64]
  0001c	5f		 pop	 edi
  0001d	5e		 pop	 esi

; 3816 : }

  0001e	c3		 ret	 0
?IsCheckAlreadyAttain@QuestMaxFriendSlot@@UAE_NXZ ENDP	; QuestMaxFriendSlot::IsCheckAlreadyAttain
_TEXT	ENDS
PUBLIC	?StartProcessTime@QuestRealTimeCount@@UAEXXZ	; QuestRealTimeCount::StartProcessTime
EXTRN	__imp_?GetLoopSec@ioFrameTimer@@QBEKXZ:PROC
EXTRN	__imp_?GetSingleton@ioFrameTimer@@SAAAV1@XZ:PROC
; Function compile flags: /Ogsp
;	COMDAT ?StartProcessTime@QuestRealTimeCount@@UAEXXZ
_TEXT	SEGMENT
?StartProcessTime@QuestRealTimeCount@@UAEXXZ PROC	; QuestRealTimeCount::StartProcessTime, COMDAT
; _this$ = ecx

; 3855 : {

  00000	56		 push	 esi
  00001	8b f1		 mov	 esi, ecx

; 3856 : 	m_dwProcessTime = FRAMEGETTIME();

  00003	ff 15 00 00 00
	00		 call	 DWORD PTR __imp_?GetSingleton@ioFrameTimer@@SAAAV1@XZ
  00009	8b c8		 mov	 ecx, eax
  0000b	ff 15 00 00 00
	00		 call	 DWORD PTR __imp_?GetLoopSec@ioFrameTimer@@QBEKXZ

; 3857 : 	m_dwAccrueSec   = 0;

  00011	83 a6 fc 00 00
	00 00		 and	 DWORD PTR [esi+252], 0
  00018	89 86 f8 00 00
	00		 mov	 DWORD PTR [esi+248], eax
  0001e	5e		 pop	 esi

; 3858 : }

  0001f	c3		 ret	 0
?StartProcessTime@QuestRealTimeCount@@UAEXXZ ENDP	; QuestRealTimeCount::StartProcessTime
_TEXT	ENDS
PUBLIC	??_C@_0CG@LDKIECMJ@QuestRealTimeCount?3?3GetProgressR@ ; `string'
PUBLIC	__$ArrayPad$
PUBLIC	?GetProgressResult@QuestRealTimeCount@@UAEAAVioHashString@@XZ ; QuestRealTimeCount::GetProgressResult
;	COMDAT ??_C@_0CG@LDKIECMJ@QuestRealTimeCount?3?3GetProgressR@
CONST	SEGMENT
??_C@_0CG@LDKIECMJ@QuestRealTimeCount?3?3GetProgressR@ DB 'QuestRealTimeC'
	DB	'ount::GetProgressResult', 00H		; `string'
; Function compile flags: /Ogsp
CONST	ENDS
;	COMDAT ?GetProgressResult@QuestRealTimeCount@@UAEAAVioHashString@@XZ
_TEXT	SEGMENT
_kQuestData$ = -268					; size = 4
_szBuf$ = -264						; size = 260
__$ArrayPad$ = -4					; size = 4
?GetProgressResult@QuestRealTimeCount@@UAEAAVioHashString@@XZ PROC ; QuestRealTimeCount::GetProgressResult, COMDAT
; _this$ = ecx

; 3866 : {

  00000	55		 push	 ebp
  00001	8b ec		 mov	 ebp, esp
  00003	81 ec 0c 01 00
	00		 sub	 esp, 268		; 0000010cH
  00009	a1 00 00 00 00	 mov	 eax, DWORD PTR ___security_cookie
  0000e	33 c5		 xor	 eax, ebp
  00010	89 45 fc	 mov	 DWORD PTR __$ArrayPad$[ebp], eax
  00013	56		 push	 esi
  00014	8b f1		 mov	 esi, ecx

; 3867 : 	QuestData &kQuestData = GetMyInfoQuestData();

  00016	8b 06		 mov	 eax, DWORD PTR [esi]
  00018	ff 50 28	 call	 DWORD PTR [eax+40]

; 3868 : 	char szBuf[MAX_PATH] = "";

  0001b	68 03 01 00 00	 push	 259			; 00000103H
  00020	89 85 f4 fe ff
	ff		 mov	 DWORD PTR _kQuestData$[ebp], eax
  00026	8d 85 f9 fe ff
	ff		 lea	 eax, DWORD PTR _szBuf$[ebp+1]
  0002c	6a 00		 push	 0
  0002e	50		 push	 eax
  0002f	c6 85 f8 fe ff
	ff 00		 mov	 BYTE PTR _szBuf$[ebp], 0
  00036	e8 00 00 00 00	 call	 _memset
  0003b	83 c4 0c	 add	 esp, 12			; 0000000cH

; 3869 : 	if( !m_szProgressResult.IsEmpty() )

  0003e	8d 8e b4 00 00
	00		 lea	 ecx, DWORD PTR [esi+180]
  00044	ff 15 00 00 00
	00		 call	 DWORD PTR __imp_?IsEmpty@ioHashString@@QBE_NXZ
  0004a	84 c0		 test	 al, al
  0004c	0f 85 8d 00 00
	00		 jne	 $LN1@GetProgres@22

; 3870 : 	{
; 3871 : 		if( !IsMeProgressQuest() )

  00052	8b 06		 mov	 eax, DWORD PTR [esi]
  00054	8b ce		 mov	 ecx, esi
  00056	ff 50 2c	 call	 DWORD PTR [eax+44]
  00059	84 c0		 test	 al, al
  0005b	75 34		 jne	 SHORT $LN2@GetProgres@22

; 3872 : 			SafeSprintf( szBuf, sizeof( szBuf ), STR(1) );

  0005d	6a 00		 push	 0
  0005f	6a 01		 push	 1
  00061	68 00 00 00 00	 push	 OFFSET ??_C@_00CNPNBAHC@?$AA@
  00066	68 00 00 00 00	 push	 OFFSET ??_C@_0CG@LDKIECMJ@QuestRealTimeCount?3?3GetProgressR@
  0006b	ff 15 00 00 00
	00		 call	 DWORD PTR __imp_?GetSingleton@ioStringManager@@SAAAV1@XZ
  00071	8b c8		 mov	 ecx, eax
  00073	ff 15 00 00 00
	00		 call	 DWORD PTR __imp_?GetString@ioStringManager@@QAEPADPBD0HW4FileNamePrefix@1@@Z
  00079	50		 push	 eax
  0007a	8d 85 f8 fe ff
	ff		 lea	 eax, DWORD PTR _szBuf$[ebp]
  00080	68 04 01 00 00	 push	 260			; 00000104H
  00085	50		 push	 eax
  00086	ff 15 00 00 00
	00		 call	 DWORD PTR __imp_?SafeSprintf@@YAXPADHPBDZZ
  0008c	83 c4 0c	 add	 esp, 12			; 0000000cH

; 3873 : 		else

  0008f	eb 4e		 jmp	 SHORT $LN1@GetProgres@22
$LN2@GetProgres@22:
  00091	57		 push	 edi

; 3874 : 		{
; 3875 : 			SafeSprintf( szBuf, sizeof( szBuf ), STR(2), GetProgressPercentage( kQuestData.GetCurrentData(), GetProgressCount() ) );

  00092	8b 3e		 mov	 edi, DWORD PTR [esi]
  00094	8b ce		 mov	 ecx, esi
  00096	ff 57 0c	 call	 DWORD PTR [edi+12]
  00099	8b 8d f4 fe ff
	ff		 mov	 ecx, DWORD PTR _kQuestData$[ebp]
  0009f	50		 push	 eax
  000a0	e8 00 00 00 00	 call	 ?GetCurrentData@QuestData@@QAEKXZ ; QuestData::GetCurrentData
  000a5	50		 push	 eax
  000a6	8b ce		 mov	 ecx, esi
  000a8	ff 57 10	 call	 DWORD PTR [edi+16]
  000ab	50		 push	 eax
  000ac	6a 00		 push	 0
  000ae	6a 02		 push	 2
  000b0	68 00 00 00 00	 push	 OFFSET ??_C@_00CNPNBAHC@?$AA@
  000b5	68 00 00 00 00	 push	 OFFSET ??_C@_0CG@LDKIECMJ@QuestRealTimeCount?3?3GetProgressR@
  000ba	ff 15 00 00 00
	00		 call	 DWORD PTR __imp_?GetSingleton@ioStringManager@@SAAAV1@XZ
  000c0	8b c8		 mov	 ecx, eax
  000c2	ff 15 00 00 00
	00		 call	 DWORD PTR __imp_?GetString@ioStringManager@@QAEPADPBD0HW4FileNamePrefix@1@@Z
  000c8	50		 push	 eax
  000c9	8d 85 f8 fe ff
	ff		 lea	 eax, DWORD PTR _szBuf$[ebp]
  000cf	68 04 01 00 00	 push	 260			; 00000104H
  000d4	50		 push	 eax
  000d5	ff 15 00 00 00
	00		 call	 DWORD PTR __imp_?SafeSprintf@@YAXPADHPBDH@Z
  000db	83 c4 10	 add	 esp, 16			; 00000010H
  000de	5f		 pop	 edi
$LN1@GetProgres@22:

; 3876 : 		}
; 3877 : 	}
; 3878 : 	m_szOutProgressResult = szBuf;

  000df	8d 85 f8 fe ff
	ff		 lea	 eax, DWORD PTR _szBuf$[ebp]
  000e5	50		 push	 eax
  000e6	8d 8e c4 00 00
	00		 lea	 ecx, DWORD PTR [esi+196]
  000ec	ff 15 00 00 00
	00		 call	 DWORD PTR __imp_??4ioHashString@@QAEAAV0@PBD@Z

; 3879 : 	return m_szOutProgressResult;
; 3880 : }

  000f2	8b 4d fc	 mov	 ecx, DWORD PTR __$ArrayPad$[ebp]
  000f5	8d 86 c4 00 00
	00		 lea	 eax, DWORD PTR [esi+196]
  000fb	33 cd		 xor	 ecx, ebp
  000fd	5e		 pop	 esi
  000fe	e8 00 00 00 00	 call	 @__security_check_cookie@4
  00103	c9		 leave
  00104	c3		 ret	 0
?GetProgressResult@QuestRealTimeCount@@UAEAAVioHashString@@XZ ENDP ; QuestRealTimeCount::GetProgressResult
_TEXT	ENDS
PUBLIC	??_C@_0DA@HDGOIKJC@QuestRealTimeCount?3?3GetProgressR@ ; `string'
PUBLIC	__$ArrayPad$
PUBLIC	?GetProgressResultOnlyNumber@QuestRealTimeCount@@UAEAAVioHashString@@XZ ; QuestRealTimeCount::GetProgressResultOnlyNumber
;	COMDAT ??_C@_0DA@HDGOIKJC@QuestRealTimeCount?3?3GetProgressR@
CONST	SEGMENT
??_C@_0DA@HDGOIKJC@QuestRealTimeCount?3?3GetProgressR@ DB 'QuestRealTimeC'
	DB	'ount::GetProgressResultOnlyNumber', 00H	; `string'
; Function compile flags: /Ogsp
CONST	ENDS
;	COMDAT ?GetProgressResultOnlyNumber@QuestRealTimeCount@@UAEAAVioHashString@@XZ
_TEXT	SEGMENT
_kQuestData$ = -268					; size = 4
_szBuf$ = -264						; size = 260
__$ArrayPad$ = -4					; size = 4
?GetProgressResultOnlyNumber@QuestRealTimeCount@@UAEAAVioHashString@@XZ PROC ; QuestRealTimeCount::GetProgressResultOnlyNumber, COMDAT
; _this$ = ecx

; 3883 : {

  00000	55		 push	 ebp
  00001	8b ec		 mov	 ebp, esp
  00003	81 ec 0c 01 00
	00		 sub	 esp, 268		; 0000010cH
  00009	a1 00 00 00 00	 mov	 eax, DWORD PTR ___security_cookie
  0000e	33 c5		 xor	 eax, ebp
  00010	89 45 fc	 mov	 DWORD PTR __$ArrayPad$[ebp], eax
  00013	56		 push	 esi
  00014	8b f1		 mov	 esi, ecx

; 3884 : 	QuestData &kQuestData = GetMyInfoQuestData();

  00016	8b 06		 mov	 eax, DWORD PTR [esi]
  00018	ff 50 28	 call	 DWORD PTR [eax+40]

; 3885 : 	char szBuf[MAX_PATH] = "";

  0001b	68 03 01 00 00	 push	 259			; 00000103H
  00020	89 85 f4 fe ff
	ff		 mov	 DWORD PTR _kQuestData$[ebp], eax
  00026	8d 85 f9 fe ff
	ff		 lea	 eax, DWORD PTR _szBuf$[ebp+1]
  0002c	6a 00		 push	 0
  0002e	50		 push	 eax
  0002f	c6 85 f8 fe ff
	ff 00		 mov	 BYTE PTR _szBuf$[ebp], 0
  00036	e8 00 00 00 00	 call	 _memset
  0003b	83 c4 0c	 add	 esp, 12			; 0000000cH

; 3886 : 	if( !m_szProgressResult.IsEmpty() )

  0003e	8d 8e b4 00 00
	00		 lea	 ecx, DWORD PTR [esi+180]
  00044	ff 15 00 00 00
	00		 call	 DWORD PTR __imp_?IsEmpty@ioHashString@@QBE_NXZ
  0004a	84 c0		 test	 al, al
  0004c	75 4e		 jne	 SHORT $LN1@GetProgres@23

; 3887 : 	{
; 3888 : 		SafeSprintf( szBuf, sizeof( szBuf ), STR(1), GetProgressPercentage( kQuestData.GetCurrentData(), GetProgressCount() ) );

  0004e	57		 push	 edi
  0004f	8b 3e		 mov	 edi, DWORD PTR [esi]
  00051	8b ce		 mov	 ecx, esi
  00053	ff 57 0c	 call	 DWORD PTR [edi+12]
  00056	8b 8d f4 fe ff
	ff		 mov	 ecx, DWORD PTR _kQuestData$[ebp]
  0005c	50		 push	 eax
  0005d	e8 00 00 00 00	 call	 ?GetCurrentData@QuestData@@QAEKXZ ; QuestData::GetCurrentData
  00062	50		 push	 eax
  00063	8b ce		 mov	 ecx, esi
  00065	ff 57 10	 call	 DWORD PTR [edi+16]
  00068	50		 push	 eax
  00069	6a 00		 push	 0
  0006b	6a 01		 push	 1
  0006d	68 00 00 00 00	 push	 OFFSET ??_C@_00CNPNBAHC@?$AA@
  00072	68 00 00 00 00	 push	 OFFSET ??_C@_0DA@HDGOIKJC@QuestRealTimeCount?3?3GetProgressR@
  00077	ff 15 00 00 00
	00		 call	 DWORD PTR __imp_?GetSingleton@ioStringManager@@SAAAV1@XZ
  0007d	8b c8		 mov	 ecx, eax
  0007f	ff 15 00 00 00
	00		 call	 DWORD PTR __imp_?GetString@ioStringManager@@QAEPADPBD0HW4FileNamePrefix@1@@Z
  00085	50		 push	 eax
  00086	8d 85 f8 fe ff
	ff		 lea	 eax, DWORD PTR _szBuf$[ebp]
  0008c	68 04 01 00 00	 push	 260			; 00000104H
  00091	50		 push	 eax
  00092	ff 15 00 00 00
	00		 call	 DWORD PTR __imp_?SafeSprintf@@YAXPADHPBDH@Z
  00098	83 c4 10	 add	 esp, 16			; 00000010H
  0009b	5f		 pop	 edi
$LN1@GetProgres@23:

; 3889 : 	}
; 3890 : 	m_szOutProgressResult = szBuf;

  0009c	8d 85 f8 fe ff
	ff		 lea	 eax, DWORD PTR _szBuf$[ebp]
  000a2	50		 push	 eax
  000a3	8d 8e c4 00 00
	00		 lea	 ecx, DWORD PTR [esi+196]
  000a9	ff 15 00 00 00
	00		 call	 DWORD PTR __imp_??4ioHashString@@QAEAAV0@PBD@Z

; 3891 : 	return m_szOutProgressResult;
; 3892 : }

  000af	8b 4d fc	 mov	 ecx, DWORD PTR __$ArrayPad$[ebp]
  000b2	8d 86 c4 00 00
	00		 lea	 eax, DWORD PTR [esi+196]
  000b8	33 cd		 xor	 ecx, ebp
  000ba	5e		 pop	 esi
  000bb	e8 00 00 00 00	 call	 @__security_check_cookie@4
  000c0	c9		 leave
  000c1	c3		 ret	 0
?GetProgressResultOnlyNumber@QuestRealTimeCount@@UAEAAVioHashString@@XZ ENDP ; QuestRealTimeCount::GetProgressResultOnlyNumber
_TEXT	ENDS
PUBLIC	?GetProgressResultOnlyText@QuestRealTimeCount@@UAEAAVioHashString@@XZ ; QuestRealTimeCount::GetProgressResultOnlyText
; Function compile flags: /Ogsp
;	COMDAT ?GetProgressResultOnlyText@QuestRealTimeCount@@UAEAAVioHashString@@XZ
_TEXT	SEGMENT
?GetProgressResultOnlyText@QuestRealTimeCount@@UAEAAVioHashString@@XZ PROC ; QuestRealTimeCount::GetProgressResultOnlyText, COMDAT
; _this$ = ecx

; 3895 : {

  00000	56		 push	 esi

; 3896 : 	m_szOutProgressResult = "";

  00001	8d b1 c4 00 00
	00		 lea	 esi, DWORD PTR [ecx+196]
  00007	68 00 00 00 00	 push	 OFFSET ??_C@_00CNPNBAHC@?$AA@
  0000c	8b ce		 mov	 ecx, esi
  0000e	ff 15 00 00 00
	00		 call	 DWORD PTR __imp_??4ioHashString@@QAEAAV0@PBD@Z

; 3897 : 	return m_szOutProgressResult;

  00014	8b c6		 mov	 eax, esi
  00016	5e		 pop	 esi

; 3898 : }

  00017	c3		 ret	 0
?GetProgressResultOnlyText@QuestRealTimeCount@@UAEAAVioHashString@@XZ ENDP ; QuestRealTimeCount::GetProgressResultOnlyText
_TEXT	ENDS
PUBLIC	?GetProgressGaugeRate@QuestRealTimeCount@@UAEMXZ ; QuestRealTimeCount::GetProgressGaugeRate
; Function compile flags: /Ogsp
;	COMDAT ?GetProgressGaugeRate@QuestRealTimeCount@@UAEMXZ
_TEXT	SEGMENT
?GetProgressGaugeRate@QuestRealTimeCount@@UAEMXZ PROC	; QuestRealTimeCount::GetProgressGaugeRate, COMDAT
; _this$ = ecx

; 3902 : 	return QuestParent::GetProgressGaugeRate();

  00000	e9 00 00 00 00	 jmp	 ?GetProgressGaugeRate@QuestParent@@UAEMXZ ; QuestParent::GetProgressGaugeRate
?GetProgressGaugeRate@QuestRealTimeCount@@UAEMXZ ENDP	; QuestRealTimeCount::GetProgressGaugeRate
_TEXT	ENDS
PUBLIC	?IsCheckCompleteTerm@QuestPlayTimeCount@@UAE_NKHHH@Z ; QuestPlayTimeCount::IsCheckCompleteTerm
; Function compile flags: /Ogsp
;	COMDAT ?IsCheckCompleteTerm@QuestPlayTimeCount@@UAE_NKHHH@Z
_TEXT	SEGMENT
_dwTerm$ = 8						; size = 4
_iValue1$ = 12						; size = 4
_iValue2$ = 16						; size = 4
_iValue3$ = 20						; size = 4
?IsCheckCompleteTerm@QuestPlayTimeCount@@UAE_NKHHH@Z PROC ; QuestPlayTimeCount::IsCheckCompleteTerm, COMDAT
; _this$ = ecx

; 3957 : 	return false;

  00000	32 c0		 xor	 al, al

; 3958 : }

  00002	c2 10 00	 ret	 16			; 00000010H
?IsCheckCompleteTerm@QuestPlayTimeCount@@UAE_NKHHH@Z ENDP ; QuestPlayTimeCount::IsCheckCompleteTerm
_TEXT	ENDS
PUBLIC	??_C@_0CG@HBIMABPL@QuestPlayTimeCount?3?3GetProgressR@ ; `string'
PUBLIC	__$ArrayPad$
PUBLIC	?GetProgressResult@QuestPlayTimeCount@@UAEAAVioHashString@@XZ ; QuestPlayTimeCount::GetProgressResult
;	COMDAT ??_C@_0CG@HBIMABPL@QuestPlayTimeCount?3?3GetProgressR@
CONST	SEGMENT
??_C@_0CG@HBIMABPL@QuestPlayTimeCount?3?3GetProgressR@ DB 'QuestPlayTimeC'
	DB	'ount::GetProgressResult', 00H		; `string'
; Function compile flags: /Ogsp
CONST	ENDS
;	COMDAT ?GetProgressResult@QuestPlayTimeCount@@UAEAAVioHashString@@XZ
_TEXT	SEGMENT
_kQuestData$ = -268					; size = 4
_szBuf$ = -264						; size = 260
__$ArrayPad$ = -4					; size = 4
?GetProgressResult@QuestPlayTimeCount@@UAEAAVioHashString@@XZ PROC ; QuestPlayTimeCount::GetProgressResult, COMDAT
; _this$ = ecx

; 3972 : {

  00000	55		 push	 ebp
  00001	8b ec		 mov	 ebp, esp
  00003	81 ec 0c 01 00
	00		 sub	 esp, 268		; 0000010cH
  00009	a1 00 00 00 00	 mov	 eax, DWORD PTR ___security_cookie
  0000e	33 c5		 xor	 eax, ebp
  00010	89 45 fc	 mov	 DWORD PTR __$ArrayPad$[ebp], eax
  00013	56		 push	 esi
  00014	8b f1		 mov	 esi, ecx

; 3973 : 	QuestData &kQuestData = GetMyInfoQuestData();

  00016	8b 06		 mov	 eax, DWORD PTR [esi]
  00018	ff 50 28	 call	 DWORD PTR [eax+40]

; 3974 : 	char szBuf[MAX_PATH] = "";

  0001b	68 03 01 00 00	 push	 259			; 00000103H
  00020	89 85 f4 fe ff
	ff		 mov	 DWORD PTR _kQuestData$[ebp], eax
  00026	8d 85 f9 fe ff
	ff		 lea	 eax, DWORD PTR _szBuf$[ebp+1]
  0002c	6a 00		 push	 0
  0002e	50		 push	 eax
  0002f	c6 85 f8 fe ff
	ff 00		 mov	 BYTE PTR _szBuf$[ebp], 0
  00036	e8 00 00 00 00	 call	 _memset
  0003b	83 c4 0c	 add	 esp, 12			; 0000000cH

; 3975 : 	if( !m_szProgressResult.IsEmpty() )

  0003e	8d 8e b4 00 00
	00		 lea	 ecx, DWORD PTR [esi+180]
  00044	ff 15 00 00 00
	00		 call	 DWORD PTR __imp_?IsEmpty@ioHashString@@QBE_NXZ
  0004a	84 c0		 test	 al, al
  0004c	0f 85 8d 00 00
	00		 jne	 $LN1@GetProgres@24

; 3976 : 	{
; 3977 : 		if( !IsMeProgressQuest() )

  00052	8b 06		 mov	 eax, DWORD PTR [esi]
  00054	8b ce		 mov	 ecx, esi
  00056	ff 50 2c	 call	 DWORD PTR [eax+44]
  00059	84 c0		 test	 al, al
  0005b	75 34		 jne	 SHORT $LN2@GetProgres@24

; 3978 : 			SafeSprintf( szBuf, sizeof( szBuf ), STR(1) );

  0005d	6a 00		 push	 0
  0005f	6a 01		 push	 1
  00061	68 00 00 00 00	 push	 OFFSET ??_C@_00CNPNBAHC@?$AA@
  00066	68 00 00 00 00	 push	 OFFSET ??_C@_0CG@HBIMABPL@QuestPlayTimeCount?3?3GetProgressR@
  0006b	ff 15 00 00 00
	00		 call	 DWORD PTR __imp_?GetSingleton@ioStringManager@@SAAAV1@XZ
  00071	8b c8		 mov	 ecx, eax
  00073	ff 15 00 00 00
	00		 call	 DWORD PTR __imp_?GetString@ioStringManager@@QAEPADPBD0HW4FileNamePrefix@1@@Z
  00079	50		 push	 eax
  0007a	8d 85 f8 fe ff
	ff		 lea	 eax, DWORD PTR _szBuf$[ebp]
  00080	68 04 01 00 00	 push	 260			; 00000104H
  00085	50		 push	 eax
  00086	ff 15 00 00 00
	00		 call	 DWORD PTR __imp_?SafeSprintf@@YAXPADHPBDZZ
  0008c	83 c4 0c	 add	 esp, 12			; 0000000cH

; 3979 : 		else

  0008f	eb 4e		 jmp	 SHORT $LN1@GetProgres@24
$LN2@GetProgres@24:
  00091	57		 push	 edi

; 3980 : 		{
; 3981 : 			SafeSprintf( szBuf, sizeof( szBuf ), STR(2), GetProgressPercentage( kQuestData.GetCurrentData(), GetProgressCount() ) );

  00092	8b 3e		 mov	 edi, DWORD PTR [esi]
  00094	8b ce		 mov	 ecx, esi
  00096	ff 57 0c	 call	 DWORD PTR [edi+12]
  00099	8b 8d f4 fe ff
	ff		 mov	 ecx, DWORD PTR _kQuestData$[ebp]
  0009f	50		 push	 eax
  000a0	e8 00 00 00 00	 call	 ?GetCurrentData@QuestData@@QAEKXZ ; QuestData::GetCurrentData
  000a5	50		 push	 eax
  000a6	8b ce		 mov	 ecx, esi
  000a8	ff 57 10	 call	 DWORD PTR [edi+16]
  000ab	50		 push	 eax
  000ac	6a 00		 push	 0
  000ae	6a 02		 push	 2
  000b0	68 00 00 00 00	 push	 OFFSET ??_C@_00CNPNBAHC@?$AA@
  000b5	68 00 00 00 00	 push	 OFFSET ??_C@_0CG@HBIMABPL@QuestPlayTimeCount?3?3GetProgressR@
  000ba	ff 15 00 00 00
	00		 call	 DWORD PTR __imp_?GetSingleton@ioStringManager@@SAAAV1@XZ
  000c0	8b c8		 mov	 ecx, eax
  000c2	ff 15 00 00 00
	00		 call	 DWORD PTR __imp_?GetString@ioStringManager@@QAEPADPBD0HW4FileNamePrefix@1@@Z
  000c8	50		 push	 eax
  000c9	8d 85 f8 fe ff
	ff		 lea	 eax, DWORD PTR _szBuf$[ebp]
  000cf	68 04 01 00 00	 push	 260			; 00000104H
  000d4	50		 push	 eax
  000d5	ff 15 00 00 00
	00		 call	 DWORD PTR __imp_?SafeSprintf@@YAXPADHPBDH@Z
  000db	83 c4 10	 add	 esp, 16			; 00000010H
  000de	5f		 pop	 edi
$LN1@GetProgres@24:

; 3982 : 		}
; 3983 : 	}
; 3984 : 	m_szOutProgressResult = szBuf;

  000df	8d 85 f8 fe ff
	ff		 lea	 eax, DWORD PTR _szBuf$[ebp]
  000e5	50		 push	 eax
  000e6	8d 8e c4 00 00
	00		 lea	 ecx, DWORD PTR [esi+196]
  000ec	ff 15 00 00 00
	00		 call	 DWORD PTR __imp_??4ioHashString@@QAEAAV0@PBD@Z

; 3985 : 	return m_szOutProgressResult;
; 3986 : }

  000f2	8b 4d fc	 mov	 ecx, DWORD PTR __$ArrayPad$[ebp]
  000f5	8d 86 c4 00 00
	00		 lea	 eax, DWORD PTR [esi+196]
  000fb	33 cd		 xor	 ecx, ebp
  000fd	5e		 pop	 esi
  000fe	e8 00 00 00 00	 call	 @__security_check_cookie@4
  00103	c9		 leave
  00104	c3		 ret	 0
?GetProgressResult@QuestPlayTimeCount@@UAEAAVioHashString@@XZ ENDP ; QuestPlayTimeCount::GetProgressResult
_TEXT	ENDS
PUBLIC	??_C@_0DA@NOMJAFFL@QuestPlayTimeCount?3?3GetProgressR@ ; `string'
PUBLIC	__$ArrayPad$
PUBLIC	?GetProgressResultOnlyNumber@QuestPlayTimeCount@@UAEAAVioHashString@@XZ ; QuestPlayTimeCount::GetProgressResultOnlyNumber
;	COMDAT ??_C@_0DA@NOMJAFFL@QuestPlayTimeCount?3?3GetProgressR@
CONST	SEGMENT
??_C@_0DA@NOMJAFFL@QuestPlayTimeCount?3?3GetProgressR@ DB 'QuestPlayTimeC'
	DB	'ount::GetProgressResultOnlyNumber', 00H	; `string'
; Function compile flags: /Ogsp
CONST	ENDS
;	COMDAT ?GetProgressResultOnlyNumber@QuestPlayTimeCount@@UAEAAVioHashString@@XZ
_TEXT	SEGMENT
_kQuestData$ = -268					; size = 4
_szBuf$ = -264						; size = 260
__$ArrayPad$ = -4					; size = 4
?GetProgressResultOnlyNumber@QuestPlayTimeCount@@UAEAAVioHashString@@XZ PROC ; QuestPlayTimeCount::GetProgressResultOnlyNumber, COMDAT
; _this$ = ecx

; 3989 : {

  00000	55		 push	 ebp
  00001	8b ec		 mov	 ebp, esp
  00003	81 ec 0c 01 00
	00		 sub	 esp, 268		; 0000010cH
  00009	a1 00 00 00 00	 mov	 eax, DWORD PTR ___security_cookie
  0000e	33 c5		 xor	 eax, ebp
  00010	89 45 fc	 mov	 DWORD PTR __$ArrayPad$[ebp], eax
  00013	56		 push	 esi
  00014	8b f1		 mov	 esi, ecx

; 3990 : 	QuestData &kQuestData = GetMyInfoQuestData();

  00016	8b 06		 mov	 eax, DWORD PTR [esi]
  00018	ff 50 28	 call	 DWORD PTR [eax+40]

; 3991 : 	char szBuf[MAX_PATH] = "";

  0001b	68 03 01 00 00	 push	 259			; 00000103H
  00020	89 85 f4 fe ff
	ff		 mov	 DWORD PTR _kQuestData$[ebp], eax
  00026	8d 85 f9 fe ff
	ff		 lea	 eax, DWORD PTR _szBuf$[ebp+1]
  0002c	6a 00		 push	 0
  0002e	50		 push	 eax
  0002f	c6 85 f8 fe ff
	ff 00		 mov	 BYTE PTR _szBuf$[ebp], 0
  00036	e8 00 00 00 00	 call	 _memset
  0003b	83 c4 0c	 add	 esp, 12			; 0000000cH

; 3992 : 	if( !m_szProgressResult.IsEmpty() )

  0003e	8d 8e b4 00 00
	00		 lea	 ecx, DWORD PTR [esi+180]
  00044	ff 15 00 00 00
	00		 call	 DWORD PTR __imp_?IsEmpty@ioHashString@@QBE_NXZ
  0004a	84 c0		 test	 al, al
  0004c	75 4e		 jne	 SHORT $LN1@GetProgres@25

; 3993 : 	{
; 3994 : 		SafeSprintf( szBuf, sizeof( szBuf ), STR(1), GetProgressPercentage( kQuestData.GetCurrentData(), GetProgressCount() ) );

  0004e	57		 push	 edi
  0004f	8b 3e		 mov	 edi, DWORD PTR [esi]
  00051	8b ce		 mov	 ecx, esi
  00053	ff 57 0c	 call	 DWORD PTR [edi+12]
  00056	8b 8d f4 fe ff
	ff		 mov	 ecx, DWORD PTR _kQuestData$[ebp]
  0005c	50		 push	 eax
  0005d	e8 00 00 00 00	 call	 ?GetCurrentData@QuestData@@QAEKXZ ; QuestData::GetCurrentData
  00062	50		 push	 eax
  00063	8b ce		 mov	 ecx, esi
  00065	ff 57 10	 call	 DWORD PTR [edi+16]
  00068	50		 push	 eax
  00069	6a 00		 push	 0
  0006b	6a 01		 push	 1
  0006d	68 00 00 00 00	 push	 OFFSET ??_C@_00CNPNBAHC@?$AA@
  00072	68 00 00 00 00	 push	 OFFSET ??_C@_0DA@NOMJAFFL@QuestPlayTimeCount?3?3GetProgressR@
  00077	ff 15 00 00 00
	00		 call	 DWORD PTR __imp_?GetSingleton@ioStringManager@@SAAAV1@XZ
  0007d	8b c8		 mov	 ecx, eax
  0007f	ff 15 00 00 00
	00		 call	 DWORD PTR __imp_?GetString@ioStringManager@@QAEPADPBD0HW4FileNamePrefix@1@@Z
  00085	50		 push	 eax
  00086	8d 85 f8 fe ff
	ff		 lea	 eax, DWORD PTR _szBuf$[ebp]
  0008c	68 04 01 00 00	 push	 260			; 00000104H
  00091	50		 push	 eax
  00092	ff 15 00 00 00
	00		 call	 DWORD PTR __imp_?SafeSprintf@@YAXPADHPBDH@Z
  00098	83 c4 10	 add	 esp, 16			; 00000010H
  0009b	5f		 pop	 edi
$LN1@GetProgres@25:

; 3995 : 	}
; 3996 : 	m_szOutProgressResult = szBuf;

  0009c	8d 85 f8 fe ff
	ff		 lea	 eax, DWORD PTR _szBuf$[ebp]
  000a2	50		 push	 eax
  000a3	8d 8e c4 00 00
	00		 lea	 ecx, DWORD PTR [esi+196]
  000a9	ff 15 00 00 00
	00		 call	 DWORD PTR __imp_??4ioHashString@@QAEAAV0@PBD@Z

; 3997 : 	return m_szOutProgressResult;
; 3998 : }

  000af	8b 4d fc	 mov	 ecx, DWORD PTR __$ArrayPad$[ebp]
  000b2	8d 86 c4 00 00
	00		 lea	 eax, DWORD PTR [esi+196]
  000b8	33 cd		 xor	 ecx, ebp
  000ba	5e		 pop	 esi
  000bb	e8 00 00 00 00	 call	 @__security_check_cookie@4
  000c0	c9		 leave
  000c1	c3		 ret	 0
?GetProgressResultOnlyNumber@QuestPlayTimeCount@@UAEAAVioHashString@@XZ ENDP ; QuestPlayTimeCount::GetProgressResultOnlyNumber
_TEXT	ENDS
PUBLIC	?GetProgressResultOnlyText@QuestPlayTimeCount@@UAEAAVioHashString@@XZ ; QuestPlayTimeCount::GetProgressResultOnlyText
; Function compile flags: /Ogsp
;	COMDAT ?GetProgressResultOnlyText@QuestPlayTimeCount@@UAEAAVioHashString@@XZ
_TEXT	SEGMENT
?GetProgressResultOnlyText@QuestPlayTimeCount@@UAEAAVioHashString@@XZ PROC ; QuestPlayTimeCount::GetProgressResultOnlyText, COMDAT
; _this$ = ecx

; 4001 : {

  00000	56		 push	 esi

; 4002 : 	m_szOutProgressResult = "";

  00001	8d b1 c4 00 00
	00		 lea	 esi, DWORD PTR [ecx+196]
  00007	68 00 00 00 00	 push	 OFFSET ??_C@_00CNPNBAHC@?$AA@
  0000c	8b ce		 mov	 ecx, esi
  0000e	ff 15 00 00 00
	00		 call	 DWORD PTR __imp_??4ioHashString@@QAEAAV0@PBD@Z

; 4003 : 	return m_szOutProgressResult;

  00014	8b c6		 mov	 eax, esi
  00016	5e		 pop	 esi

; 4004 : }

  00017	c3		 ret	 0
?GetProgressResultOnlyText@QuestPlayTimeCount@@UAEAAVioHashString@@XZ ENDP ; QuestPlayTimeCount::GetProgressResultOnlyText
_TEXT	ENDS
PUBLIC	?GetProgressGaugeRate@QuestPlayTimeCount@@UAEMXZ ; QuestPlayTimeCount::GetProgressGaugeRate
; Function compile flags: /Ogsp
;	COMDAT ?GetProgressGaugeRate@QuestPlayTimeCount@@UAEMXZ
_TEXT	SEGMENT
?GetProgressGaugeRate@QuestPlayTimeCount@@UAEMXZ PROC	; QuestPlayTimeCount::GetProgressGaugeRate, COMDAT
; _this$ = ecx

; 4008 : 	return QuestParent::GetProgressGaugeRate();

  00000	e9 00 00 00 00	 jmp	 ?GetProgressGaugeRate@QuestParent@@UAEMXZ ; QuestParent::GetProgressGaugeRate
?GetProgressGaugeRate@QuestPlayTimeCount@@UAEMXZ ENDP	; QuestPlayTimeCount::GetProgressGaugeRate
_TEXT	ENDS
PUBLIC	?IsCheckCompleteTerm@QuestFriendRecommendPlayTime@@UAE_NKHHH@Z ; QuestFriendRecommendPlayTime::IsCheckCompleteTerm
; Function compile flags: /Ogsp
;	COMDAT ?IsCheckCompleteTerm@QuestFriendRecommendPlayTime@@UAE_NKHHH@Z
_TEXT	SEGMENT
_dwTerm$ = 8						; size = 4
_iValue1$ = 12						; size = 4
_iValue2$ = 16						; size = 4
_iValue3$ = 20						; size = 4
?IsCheckCompleteTerm@QuestFriendRecommendPlayTime@@UAE_NKHHH@Z PROC ; QuestFriendRecommendPlayTime::IsCheckCompleteTerm, COMDAT
; _this$ = ecx

; 4157 : 	return false;

  00000	32 c0		 xor	 al, al

; 4158 : }

  00002	c2 10 00	 ret	 16			; 00000010H
?IsCheckCompleteTerm@QuestFriendRecommendPlayTime@@UAE_NKHHH@Z ENDP ; QuestFriendRecommendPlayTime::IsCheckCompleteTerm
_TEXT	ENDS
PUBLIC	??_C@_0DA@ENOEHGJO@QuestFriendRecommendPlayTime?3?3Ge@ ; `string'
PUBLIC	__$ArrayPad$
PUBLIC	?GetProgressResult@QuestFriendRecommendPlayTime@@UAEAAVioHashString@@XZ ; QuestFriendRecommendPlayTime::GetProgressResult
;	COMDAT ??_C@_0DA@ENOEHGJO@QuestFriendRecommendPlayTime?3?3Ge@
CONST	SEGMENT
??_C@_0DA@ENOEHGJO@QuestFriendRecommendPlayTime?3?3Ge@ DB 'QuestFriendRec'
	DB	'ommendPlayTime::GetProgressResult', 00H	; `string'
; Function compile flags: /Ogsp
CONST	ENDS
;	COMDAT ?GetProgressResult@QuestFriendRecommendPlayTime@@UAEAAVioHashString@@XZ
_TEXT	SEGMENT
_kQuestData$ = -268					; size = 4
_szBuf$ = -264						; size = 260
__$ArrayPad$ = -4					; size = 4
?GetProgressResult@QuestFriendRecommendPlayTime@@UAEAAVioHashString@@XZ PROC ; QuestFriendRecommendPlayTime::GetProgressResult, COMDAT
; _this$ = ecx

; 4172 : {

  00000	55		 push	 ebp
  00001	8b ec		 mov	 ebp, esp
  00003	81 ec 0c 01 00
	00		 sub	 esp, 268		; 0000010cH
  00009	a1 00 00 00 00	 mov	 eax, DWORD PTR ___security_cookie
  0000e	33 c5		 xor	 eax, ebp
  00010	89 45 fc	 mov	 DWORD PTR __$ArrayPad$[ebp], eax
  00013	56		 push	 esi
  00014	8b f1		 mov	 esi, ecx

; 4173 : 	QuestData &kQuestData = GetMyInfoQuestData();

  00016	8b 06		 mov	 eax, DWORD PTR [esi]
  00018	ff 50 28	 call	 DWORD PTR [eax+40]

; 4174 : 	char szBuf[MAX_PATH] = "";

  0001b	68 03 01 00 00	 push	 259			; 00000103H
  00020	89 85 f4 fe ff
	ff		 mov	 DWORD PTR _kQuestData$[ebp], eax
  00026	8d 85 f9 fe ff
	ff		 lea	 eax, DWORD PTR _szBuf$[ebp+1]
  0002c	6a 00		 push	 0
  0002e	50		 push	 eax
  0002f	c6 85 f8 fe ff
	ff 00		 mov	 BYTE PTR _szBuf$[ebp], 0
  00036	e8 00 00 00 00	 call	 _memset
  0003b	83 c4 0c	 add	 esp, 12			; 0000000cH

; 4175 : 	if( !m_szProgressResult.IsEmpty() )

  0003e	8d 8e b4 00 00
	00		 lea	 ecx, DWORD PTR [esi+180]
  00044	ff 15 00 00 00
	00		 call	 DWORD PTR __imp_?IsEmpty@ioHashString@@QBE_NXZ
  0004a	84 c0		 test	 al, al
  0004c	0f 85 8d 00 00
	00		 jne	 $LN1@GetProgres@26

; 4176 : 	{
; 4177 : 		if( !IsMeProgressQuest() )

  00052	8b 06		 mov	 eax, DWORD PTR [esi]
  00054	8b ce		 mov	 ecx, esi
  00056	ff 50 2c	 call	 DWORD PTR [eax+44]
  00059	84 c0		 test	 al, al
  0005b	75 34		 jne	 SHORT $LN2@GetProgres@26

; 4178 : 			SafeSprintf( szBuf, sizeof( szBuf ), STR(1) );

  0005d	6a 00		 push	 0
  0005f	6a 01		 push	 1
  00061	68 00 00 00 00	 push	 OFFSET ??_C@_00CNPNBAHC@?$AA@
  00066	68 00 00 00 00	 push	 OFFSET ??_C@_0DA@ENOEHGJO@QuestFriendRecommendPlayTime?3?3Ge@
  0006b	ff 15 00 00 00
	00		 call	 DWORD PTR __imp_?GetSingleton@ioStringManager@@SAAAV1@XZ
  00071	8b c8		 mov	 ecx, eax
  00073	ff 15 00 00 00
	00		 call	 DWORD PTR __imp_?GetString@ioStringManager@@QAEPADPBD0HW4FileNamePrefix@1@@Z
  00079	50		 push	 eax
  0007a	8d 85 f8 fe ff
	ff		 lea	 eax, DWORD PTR _szBuf$[ebp]
  00080	68 04 01 00 00	 push	 260			; 00000104H
  00085	50		 push	 eax
  00086	ff 15 00 00 00
	00		 call	 DWORD PTR __imp_?SafeSprintf@@YAXPADHPBDZZ
  0008c	83 c4 0c	 add	 esp, 12			; 0000000cH

; 4179 : 		else

  0008f	eb 4e		 jmp	 SHORT $LN1@GetProgres@26
$LN2@GetProgres@26:
  00091	57		 push	 edi

; 4180 : 		{
; 4181 : 			SafeSprintf( szBuf, sizeof( szBuf ), STR(2), GetProgressPercentage( kQuestData.GetCurrentData(), GetProgressCount() ) );

  00092	8b 3e		 mov	 edi, DWORD PTR [esi]
  00094	8b ce		 mov	 ecx, esi
  00096	ff 57 0c	 call	 DWORD PTR [edi+12]
  00099	8b 8d f4 fe ff
	ff		 mov	 ecx, DWORD PTR _kQuestData$[ebp]
  0009f	50		 push	 eax
  000a0	e8 00 00 00 00	 call	 ?GetCurrentData@QuestData@@QAEKXZ ; QuestData::GetCurrentData
  000a5	50		 push	 eax
  000a6	8b ce		 mov	 ecx, esi
  000a8	ff 57 10	 call	 DWORD PTR [edi+16]
  000ab	50		 push	 eax
  000ac	6a 00		 push	 0
  000ae	6a 02		 push	 2
  000b0	68 00 00 00 00	 push	 OFFSET ??_C@_00CNPNBAHC@?$AA@
  000b5	68 00 00 00 00	 push	 OFFSET ??_C@_0DA@ENOEHGJO@QuestFriendRecommendPlayTime?3?3Ge@
  000ba	ff 15 00 00 00
	00		 call	 DWORD PTR __imp_?GetSingleton@ioStringManager@@SAAAV1@XZ
  000c0	8b c8		 mov	 ecx, eax
  000c2	ff 15 00 00 00
	00		 call	 DWORD PTR __imp_?GetString@ioStringManager@@QAEPADPBD0HW4FileNamePrefix@1@@Z
  000c8	50		 push	 eax
  000c9	8d 85 f8 fe ff
	ff		 lea	 eax, DWORD PTR _szBuf$[ebp]
  000cf	68 04 01 00 00	 push	 260			; 00000104H
  000d4	50		 push	 eax
  000d5	ff 15 00 00 00
	00		 call	 DWORD PTR __imp_?SafeSprintf@@YAXPADHPBDH@Z
  000db	83 c4 10	 add	 esp, 16			; 00000010H
  000de	5f		 pop	 edi
$LN1@GetProgres@26:

; 4182 : 		}
; 4183 : 	}
; 4184 : 	m_szOutProgressResult = szBuf;

  000df	8d 85 f8 fe ff
	ff		 lea	 eax, DWORD PTR _szBuf$[ebp]
  000e5	50		 push	 eax
  000e6	8d 8e c4 00 00
	00		 lea	 ecx, DWORD PTR [esi+196]
  000ec	ff 15 00 00 00
	00		 call	 DWORD PTR __imp_??4ioHashString@@QAEAAV0@PBD@Z

; 4185 : 	return m_szOutProgressResult;
; 4186 : }

  000f2	8b 4d fc	 mov	 ecx, DWORD PTR __$ArrayPad$[ebp]
  000f5	8d 86 c4 00 00
	00		 lea	 eax, DWORD PTR [esi+196]
  000fb	33 cd		 xor	 ecx, ebp
  000fd	5e		 pop	 esi
  000fe	e8 00 00 00 00	 call	 @__security_check_cookie@4
  00103	c9		 leave
  00104	c3		 ret	 0
?GetProgressResult@QuestFriendRecommendPlayTime@@UAEAAVioHashString@@XZ ENDP ; QuestFriendRecommendPlayTime::GetProgressResult
_TEXT	ENDS
PUBLIC	??_C@_0DK@BBAIBAFL@QuestFriendRecommendPlayTime?3?3Ge@ ; `string'
PUBLIC	__$ArrayPad$
PUBLIC	?GetProgressResultOnlyNumber@QuestFriendRecommendPlayTime@@UAEAAVioHashString@@XZ ; QuestFriendRecommendPlayTime::GetProgressResultOnlyNumber
;	COMDAT ??_C@_0DK@BBAIBAFL@QuestFriendRecommendPlayTime?3?3Ge@
CONST	SEGMENT
??_C@_0DK@BBAIBAFL@QuestFriendRecommendPlayTime?3?3Ge@ DB 'QuestFriendRec'
	DB	'ommendPlayTime::GetProgressResultOnlyNumber', 00H ; `string'
; Function compile flags: /Ogsp
CONST	ENDS
;	COMDAT ?GetProgressResultOnlyNumber@QuestFriendRecommendPlayTime@@UAEAAVioHashString@@XZ
_TEXT	SEGMENT
_kQuestData$ = -268					; size = 4
_szBuf$ = -264						; size = 260
__$ArrayPad$ = -4					; size = 4
?GetProgressResultOnlyNumber@QuestFriendRecommendPlayTime@@UAEAAVioHashString@@XZ PROC ; QuestFriendRecommendPlayTime::GetProgressResultOnlyNumber, COMDAT
; _this$ = ecx

; 4189 : {

  00000	55		 push	 ebp
  00001	8b ec		 mov	 ebp, esp
  00003	81 ec 0c 01 00
	00		 sub	 esp, 268		; 0000010cH
  00009	a1 00 00 00 00	 mov	 eax, DWORD PTR ___security_cookie
  0000e	33 c5		 xor	 eax, ebp
  00010	89 45 fc	 mov	 DWORD PTR __$ArrayPad$[ebp], eax
  00013	56		 push	 esi
  00014	8b f1		 mov	 esi, ecx

; 4190 : 	QuestData &kQuestData = GetMyInfoQuestData();

  00016	8b 06		 mov	 eax, DWORD PTR [esi]
  00018	ff 50 28	 call	 DWORD PTR [eax+40]

; 4191 : 	char szBuf[MAX_PATH] = "";

  0001b	68 03 01 00 00	 push	 259			; 00000103H
  00020	89 85 f4 fe ff
	ff		 mov	 DWORD PTR _kQuestData$[ebp], eax
  00026	8d 85 f9 fe ff
	ff		 lea	 eax, DWORD PTR _szBuf$[ebp+1]
  0002c	6a 00		 push	 0
  0002e	50		 push	 eax
  0002f	c6 85 f8 fe ff
	ff 00		 mov	 BYTE PTR _szBuf$[ebp], 0
  00036	e8 00 00 00 00	 call	 _memset
  0003b	83 c4 0c	 add	 esp, 12			; 0000000cH

; 4192 : 	if( !m_szProgressResult.IsEmpty() )

  0003e	8d 8e b4 00 00
	00		 lea	 ecx, DWORD PTR [esi+180]
  00044	ff 15 00 00 00
	00		 call	 DWORD PTR __imp_?IsEmpty@ioHashString@@QBE_NXZ
  0004a	84 c0		 test	 al, al
  0004c	75 4e		 jne	 SHORT $LN1@GetProgres@27

; 4193 : 	{
; 4194 : 		SafeSprintf( szBuf, sizeof( szBuf ), STR(1), GetProgressPercentage( kQuestData.GetCurrentData(), GetProgressCount() ) );

  0004e	57		 push	 edi
  0004f	8b 3e		 mov	 edi, DWORD PTR [esi]
  00051	8b ce		 mov	 ecx, esi
  00053	ff 57 0c	 call	 DWORD PTR [edi+12]
  00056	8b 8d f4 fe ff
	ff		 mov	 ecx, DWORD PTR _kQuestData$[ebp]
  0005c	50		 push	 eax
  0005d	e8 00 00 00 00	 call	 ?GetCurrentData@QuestData@@QAEKXZ ; QuestData::GetCurrentData
  00062	50		 push	 eax
  00063	8b ce		 mov	 ecx, esi
  00065	ff 57 10	 call	 DWORD PTR [edi+16]
  00068	50		 push	 eax
  00069	6a 00		 push	 0
  0006b	6a 01		 push	 1
  0006d	68 00 00 00 00	 push	 OFFSET ??_C@_00CNPNBAHC@?$AA@
  00072	68 00 00 00 00	 push	 OFFSET ??_C@_0DK@BBAIBAFL@QuestFriendRecommendPlayTime?3?3Ge@
  00077	ff 15 00 00 00
	00		 call	 DWORD PTR __imp_?GetSingleton@ioStringManager@@SAAAV1@XZ
  0007d	8b c8		 mov	 ecx, eax
  0007f	ff 15 00 00 00
	00		 call	 DWORD PTR __imp_?GetString@ioStringManager@@QAEPADPBD0HW4FileNamePrefix@1@@Z
  00085	50		 push	 eax
  00086	8d 85 f8 fe ff
	ff		 lea	 eax, DWORD PTR _szBuf$[ebp]
  0008c	68 04 01 00 00	 push	 260			; 00000104H
  00091	50		 push	 eax
  00092	ff 15 00 00 00
	00		 call	 DWORD PTR __imp_?SafeSprintf@@YAXPADHPBDH@Z
  00098	83 c4 10	 add	 esp, 16			; 00000010H
  0009b	5f		 pop	 edi
$LN1@GetProgres@27:

; 4195 : 	}
; 4196 : 	m_szOutProgressResult = szBuf;

  0009c	8d 85 f8 fe ff
	ff		 lea	 eax, DWORD PTR _szBuf$[ebp]
  000a2	50		 push	 eax
  000a3	8d 8e c4 00 00
	00		 lea	 ecx, DWORD PTR [esi+196]
  000a9	ff 15 00 00 00
	00		 call	 DWORD PTR __imp_??4ioHashString@@QAEAAV0@PBD@Z

; 4197 : 	return m_szOutProgressResult;
; 4198 : }

  000af	8b 4d fc	 mov	 ecx, DWORD PTR __$ArrayPad$[ebp]
  000b2	8d 86 c4 00 00
	00		 lea	 eax, DWORD PTR [esi+196]
  000b8	33 cd		 xor	 ecx, ebp
  000ba	5e		 pop	 esi
  000bb	e8 00 00 00 00	 call	 @__security_check_cookie@4
  000c0	c9		 leave
  000c1	c3		 ret	 0
?GetProgressResultOnlyNumber@QuestFriendRecommendPlayTime@@UAEAAVioHashString@@XZ ENDP ; QuestFriendRecommendPlayTime::GetProgressResultOnlyNumber
_TEXT	ENDS
PUBLIC	?GetProgressResultOnlyText@QuestFriendRecommendPlayTime@@UAEAAVioHashString@@XZ ; QuestFriendRecommendPlayTime::GetProgressResultOnlyText
; Function compile flags: /Ogsp
;	COMDAT ?GetProgressResultOnlyText@QuestFriendRecommendPlayTime@@UAEAAVioHashString@@XZ
_TEXT	SEGMENT
?GetProgressResultOnlyText@QuestFriendRecommendPlayTime@@UAEAAVioHashString@@XZ PROC ; QuestFriendRecommendPlayTime::GetProgressResultOnlyText, COMDAT
; _this$ = ecx

; 4201 : {

  00000	56		 push	 esi

; 4202 : 	m_szOutProgressResult = "";

  00001	8d b1 c4 00 00
	00		 lea	 esi, DWORD PTR [ecx+196]
  00007	68 00 00 00 00	 push	 OFFSET ??_C@_00CNPNBAHC@?$AA@
  0000c	8b ce		 mov	 ecx, esi
  0000e	ff 15 00 00 00
	00		 call	 DWORD PTR __imp_??4ioHashString@@QAEAAV0@PBD@Z

; 4203 : 	return m_szOutProgressResult;

  00014	8b c6		 mov	 eax, esi
  00016	5e		 pop	 esi

; 4204 : }

  00017	c3		 ret	 0
?GetProgressResultOnlyText@QuestFriendRecommendPlayTime@@UAEAAVioHashString@@XZ ENDP ; QuestFriendRecommendPlayTime::GetProgressResultOnlyText
_TEXT	ENDS
PUBLIC	?GetProgressGaugeRate@QuestFriendRecommendPlayTime@@UAEMXZ ; QuestFriendRecommendPlayTime::GetProgressGaugeRate
; Function compile flags: /Ogsp
;	COMDAT ?GetProgressGaugeRate@QuestFriendRecommendPlayTime@@UAEMXZ
_TEXT	SEGMENT
?GetProgressGaugeRate@QuestFriendRecommendPlayTime@@UAEMXZ PROC ; QuestFriendRecommendPlayTime::GetProgressGaugeRate, COMDAT
; _this$ = ecx

; 4208 : 	return QuestParent::GetProgressGaugeRate();

  00000	e9 00 00 00 00	 jmp	 ?GetProgressGaugeRate@QuestParent@@UAEMXZ ; QuestParent::GetProgressGaugeRate
?GetProgressGaugeRate@QuestFriendRecommendPlayTime@@UAEMXZ ENDP ; QuestFriendRecommendPlayTime::GetProgressGaugeRate
_TEXT	ENDS
PUBLIC	??_C@_0CG@JIIIJPPD@QuestSoccerBallHit?3?3GetProgressR@ ; `string'
PUBLIC	__$ArrayPad$
PUBLIC	?GetProgressResult@QuestSoccerBallHit@@UAEAAVioHashString@@XZ ; QuestSoccerBallHit::GetProgressResult
;	COMDAT ??_C@_0CG@JIIIJPPD@QuestSoccerBallHit?3?3GetProgressR@
CONST	SEGMENT
??_C@_0CG@JIIIJPPD@QuestSoccerBallHit?3?3GetProgressR@ DB 'QuestSoccerBal'
	DB	'lHit::GetProgressResult', 00H		; `string'
; Function compile flags: /Ogsp
CONST	ENDS
;	COMDAT ?GetProgressResult@QuestSoccerBallHit@@UAEAAVioHashString@@XZ
_TEXT	SEGMENT
_kQuestData$ = -268					; size = 4
_szBuf$ = -264						; size = 260
__$ArrayPad$ = -4					; size = 4
?GetProgressResult@QuestSoccerBallHit@@UAEAAVioHashString@@XZ PROC ; QuestSoccerBallHit::GetProgressResult, COMDAT
; _this$ = ecx

; 4504 : {

  00000	55		 push	 ebp
  00001	8b ec		 mov	 ebp, esp
  00003	81 ec 0c 01 00
	00		 sub	 esp, 268		; 0000010cH
  00009	a1 00 00 00 00	 mov	 eax, DWORD PTR ___security_cookie
  0000e	33 c5		 xor	 eax, ebp
  00010	89 45 fc	 mov	 DWORD PTR __$ArrayPad$[ebp], eax
  00013	56		 push	 esi
  00014	8b f1		 mov	 esi, ecx

; 4505 : 	QuestData &kQuestData = GetMyInfoQuestData();

  00016	8b 06		 mov	 eax, DWORD PTR [esi]
  00018	ff 50 28	 call	 DWORD PTR [eax+40]

; 4506 : 	char szBuf[MAX_PATH] = "";

  0001b	68 03 01 00 00	 push	 259			; 00000103H
  00020	89 85 f4 fe ff
	ff		 mov	 DWORD PTR _kQuestData$[ebp], eax
  00026	8d 85 f9 fe ff
	ff		 lea	 eax, DWORD PTR _szBuf$[ebp+1]
  0002c	6a 00		 push	 0
  0002e	50		 push	 eax
  0002f	c6 85 f8 fe ff
	ff 00		 mov	 BYTE PTR _szBuf$[ebp], 0
  00036	e8 00 00 00 00	 call	 _memset
  0003b	83 c4 0c	 add	 esp, 12			; 0000000cH

; 4507 : 	if( !m_szProgressResult.IsEmpty() )

  0003e	8d 8e b4 00 00
	00		 lea	 ecx, DWORD PTR [esi+180]
  00044	ff 15 00 00 00
	00		 call	 DWORD PTR __imp_?IsEmpty@ioHashString@@QBE_NXZ
  0004a	84 c0		 test	 al, al
  0004c	0f 85 8d 00 00
	00		 jne	 $LN1@GetProgres@28

; 4508 : 	{
; 4509 : 		if( !IsMeProgressQuest() )

  00052	8b 06		 mov	 eax, DWORD PTR [esi]
  00054	8b ce		 mov	 ecx, esi
  00056	ff 50 2c	 call	 DWORD PTR [eax+44]
  00059	84 c0		 test	 al, al
  0005b	75 34		 jne	 SHORT $LN2@GetProgres@28

; 4510 : 			SafeSprintf( szBuf, sizeof( szBuf ), STR(1) );

  0005d	6a 00		 push	 0
  0005f	6a 01		 push	 1
  00061	68 00 00 00 00	 push	 OFFSET ??_C@_00CNPNBAHC@?$AA@
  00066	68 00 00 00 00	 push	 OFFSET ??_C@_0CG@JIIIJPPD@QuestSoccerBallHit?3?3GetProgressR@
  0006b	ff 15 00 00 00
	00		 call	 DWORD PTR __imp_?GetSingleton@ioStringManager@@SAAAV1@XZ
  00071	8b c8		 mov	 ecx, eax
  00073	ff 15 00 00 00
	00		 call	 DWORD PTR __imp_?GetString@ioStringManager@@QAEPADPBD0HW4FileNamePrefix@1@@Z
  00079	50		 push	 eax
  0007a	8d 85 f8 fe ff
	ff		 lea	 eax, DWORD PTR _szBuf$[ebp]
  00080	68 04 01 00 00	 push	 260			; 00000104H
  00085	50		 push	 eax
  00086	ff 15 00 00 00
	00		 call	 DWORD PTR __imp_?SafeSprintf@@YAXPADHPBDZZ
  0008c	83 c4 0c	 add	 esp, 12			; 0000000cH

; 4511 : 		else

  0008f	eb 4e		 jmp	 SHORT $LN1@GetProgres@28
$LN2@GetProgres@28:
  00091	57		 push	 edi

; 4512 : 		{
; 4513 : 			SafeSprintf( szBuf, sizeof( szBuf ), STR(2), GetProgressPercentage( kQuestData.GetCurrentData(), GetProgressCount() ) );

  00092	8b 3e		 mov	 edi, DWORD PTR [esi]
  00094	8b ce		 mov	 ecx, esi
  00096	ff 57 0c	 call	 DWORD PTR [edi+12]
  00099	8b 8d f4 fe ff
	ff		 mov	 ecx, DWORD PTR _kQuestData$[ebp]
  0009f	50		 push	 eax
  000a0	e8 00 00 00 00	 call	 ?GetCurrentData@QuestData@@QAEKXZ ; QuestData::GetCurrentData
  000a5	50		 push	 eax
  000a6	8b ce		 mov	 ecx, esi
  000a8	ff 57 10	 call	 DWORD PTR [edi+16]
  000ab	50		 push	 eax
  000ac	6a 00		 push	 0
  000ae	6a 02		 push	 2
  000b0	68 00 00 00 00	 push	 OFFSET ??_C@_00CNPNBAHC@?$AA@
  000b5	68 00 00 00 00	 push	 OFFSET ??_C@_0CG@JIIIJPPD@QuestSoccerBallHit?3?3GetProgressR@
  000ba	ff 15 00 00 00
	00		 call	 DWORD PTR __imp_?GetSingleton@ioStringManager@@SAAAV1@XZ
  000c0	8b c8		 mov	 ecx, eax
  000c2	ff 15 00 00 00
	00		 call	 DWORD PTR __imp_?GetString@ioStringManager@@QAEPADPBD0HW4FileNamePrefix@1@@Z
  000c8	50		 push	 eax
  000c9	8d 85 f8 fe ff
	ff		 lea	 eax, DWORD PTR _szBuf$[ebp]
  000cf	68 04 01 00 00	 push	 260			; 00000104H
  000d4	50		 push	 eax
  000d5	ff 15 00 00 00
	00		 call	 DWORD PTR __imp_?SafeSprintf@@YAXPADHPBDH@Z
  000db	83 c4 10	 add	 esp, 16			; 00000010H
  000de	5f		 pop	 edi
$LN1@GetProgres@28:

; 4514 : 		}
; 4515 : 	}
; 4516 : 	m_szOutProgressResult = szBuf;

  000df	8d 85 f8 fe ff
	ff		 lea	 eax, DWORD PTR _szBuf$[ebp]
  000e5	50		 push	 eax
  000e6	8d 8e c4 00 00
	00		 lea	 ecx, DWORD PTR [esi+196]
  000ec	ff 15 00 00 00
	00		 call	 DWORD PTR __imp_??4ioHashString@@QAEAAV0@PBD@Z

; 4517 : 	return m_szOutProgressResult;
; 4518 : }

  000f2	8b 4d fc	 mov	 ecx, DWORD PTR __$ArrayPad$[ebp]
  000f5	8d 86 c4 00 00
	00		 lea	 eax, DWORD PTR [esi+196]
  000fb	33 cd		 xor	 ecx, ebp
  000fd	5e		 pop	 esi
  000fe	e8 00 00 00 00	 call	 @__security_check_cookie@4
  00103	c9		 leave
  00104	c3		 ret	 0
?GetProgressResult@QuestSoccerBallHit@@UAEAAVioHashString@@XZ ENDP ; QuestSoccerBallHit::GetProgressResult
_TEXT	ENDS
PUBLIC	??_C@_0DA@NNDLDBDN@QuestSoccerBallHit?3?3GetProgressR@ ; `string'
PUBLIC	__$ArrayPad$
PUBLIC	?GetProgressResultOnlyNumber@QuestSoccerBallHit@@UAEAAVioHashString@@XZ ; QuestSoccerBallHit::GetProgressResultOnlyNumber
;	COMDAT ??_C@_0DA@NNDLDBDN@QuestSoccerBallHit?3?3GetProgressR@
CONST	SEGMENT
??_C@_0DA@NNDLDBDN@QuestSoccerBallHit?3?3GetProgressR@ DB 'QuestSoccerBal'
	DB	'lHit::GetProgressResultOnlyNumber', 00H	; `string'
; Function compile flags: /Ogsp
CONST	ENDS
;	COMDAT ?GetProgressResultOnlyNumber@QuestSoccerBallHit@@UAEAAVioHashString@@XZ
_TEXT	SEGMENT
_kQuestData$ = -268					; size = 4
_szBuf$ = -264						; size = 260
__$ArrayPad$ = -4					; size = 4
?GetProgressResultOnlyNumber@QuestSoccerBallHit@@UAEAAVioHashString@@XZ PROC ; QuestSoccerBallHit::GetProgressResultOnlyNumber, COMDAT
; _this$ = ecx

; 4521 : {

  00000	55		 push	 ebp
  00001	8b ec		 mov	 ebp, esp
  00003	81 ec 0c 01 00
	00		 sub	 esp, 268		; 0000010cH
  00009	a1 00 00 00 00	 mov	 eax, DWORD PTR ___security_cookie
  0000e	33 c5		 xor	 eax, ebp
  00010	89 45 fc	 mov	 DWORD PTR __$ArrayPad$[ebp], eax
  00013	56		 push	 esi
  00014	8b f1		 mov	 esi, ecx

; 4522 : 	QuestData &kQuestData = GetMyInfoQuestData();

  00016	8b 06		 mov	 eax, DWORD PTR [esi]
  00018	ff 50 28	 call	 DWORD PTR [eax+40]

; 4523 : 	char szBuf[MAX_PATH] = "";

  0001b	68 03 01 00 00	 push	 259			; 00000103H
  00020	89 85 f4 fe ff
	ff		 mov	 DWORD PTR _kQuestData$[ebp], eax
  00026	8d 85 f9 fe ff
	ff		 lea	 eax, DWORD PTR _szBuf$[ebp+1]
  0002c	6a 00		 push	 0
  0002e	50		 push	 eax
  0002f	c6 85 f8 fe ff
	ff 00		 mov	 BYTE PTR _szBuf$[ebp], 0
  00036	e8 00 00 00 00	 call	 _memset
  0003b	83 c4 0c	 add	 esp, 12			; 0000000cH

; 4524 : 	if( !m_szProgressResult.IsEmpty() )

  0003e	8d 8e b4 00 00
	00		 lea	 ecx, DWORD PTR [esi+180]
  00044	ff 15 00 00 00
	00		 call	 DWORD PTR __imp_?IsEmpty@ioHashString@@QBE_NXZ
  0004a	84 c0		 test	 al, al
  0004c	75 4e		 jne	 SHORT $LN1@GetProgres@29

; 4525 : 	{
; 4526 : 		SafeSprintf( szBuf, sizeof( szBuf ), STR(1), GetProgressPercentage( kQuestData.GetCurrentData(), GetProgressCount() ) );

  0004e	57		 push	 edi
  0004f	8b 3e		 mov	 edi, DWORD PTR [esi]
  00051	8b ce		 mov	 ecx, esi
  00053	ff 57 0c	 call	 DWORD PTR [edi+12]
  00056	8b 8d f4 fe ff
	ff		 mov	 ecx, DWORD PTR _kQuestData$[ebp]
  0005c	50		 push	 eax
  0005d	e8 00 00 00 00	 call	 ?GetCurrentData@QuestData@@QAEKXZ ; QuestData::GetCurrentData
  00062	50		 push	 eax
  00063	8b ce		 mov	 ecx, esi
  00065	ff 57 10	 call	 DWORD PTR [edi+16]
  00068	50		 push	 eax
  00069	6a 00		 push	 0
  0006b	6a 01		 push	 1
  0006d	68 00 00 00 00	 push	 OFFSET ??_C@_00CNPNBAHC@?$AA@
  00072	68 00 00 00 00	 push	 OFFSET ??_C@_0DA@NNDLDBDN@QuestSoccerBallHit?3?3GetProgressR@
  00077	ff 15 00 00 00
	00		 call	 DWORD PTR __imp_?GetSingleton@ioStringManager@@SAAAV1@XZ
  0007d	8b c8		 mov	 ecx, eax
  0007f	ff 15 00 00 00
	00		 call	 DWORD PTR __imp_?GetString@ioStringManager@@QAEPADPBD0HW4FileNamePrefix@1@@Z
  00085	50		 push	 eax
  00086	8d 85 f8 fe ff
	ff		 lea	 eax, DWORD PTR _szBuf$[ebp]
  0008c	68 04 01 00 00	 push	 260			; 00000104H
  00091	50		 push	 eax
  00092	ff 15 00 00 00
	00		 call	 DWORD PTR __imp_?SafeSprintf@@YAXPADHPBDH@Z
  00098	83 c4 10	 add	 esp, 16			; 00000010H
  0009b	5f		 pop	 edi
$LN1@GetProgres@29:

; 4527 : 	}
; 4528 : 	m_szOutProgressResult = szBuf;

  0009c	8d 85 f8 fe ff
	ff		 lea	 eax, DWORD PTR _szBuf$[ebp]
  000a2	50		 push	 eax
  000a3	8d 8e c4 00 00
	00		 lea	 ecx, DWORD PTR [esi+196]
  000a9	ff 15 00 00 00
	00		 call	 DWORD PTR __imp_??4ioHashString@@QAEAAV0@PBD@Z

; 4529 : 	return m_szOutProgressResult;
; 4530 : }

  000af	8b 4d fc	 mov	 ecx, DWORD PTR __$ArrayPad$[ebp]
  000b2	8d 86 c4 00 00
	00		 lea	 eax, DWORD PTR [esi+196]
  000b8	33 cd		 xor	 ecx, ebp
  000ba	5e		 pop	 esi
  000bb	e8 00 00 00 00	 call	 @__security_check_cookie@4
  000c0	c9		 leave
  000c1	c3		 ret	 0
?GetProgressResultOnlyNumber@QuestSoccerBallHit@@UAEAAVioHashString@@XZ ENDP ; QuestSoccerBallHit::GetProgressResultOnlyNumber
_TEXT	ENDS
PUBLIC	?GetProgressResultOnlyText@QuestSoccerBallHit@@UAEAAVioHashString@@XZ ; QuestSoccerBallHit::GetProgressResultOnlyText
; Function compile flags: /Ogsp
;	COMDAT ?GetProgressResultOnlyText@QuestSoccerBallHit@@UAEAAVioHashString@@XZ
_TEXT	SEGMENT
?GetProgressResultOnlyText@QuestSoccerBallHit@@UAEAAVioHashString@@XZ PROC ; QuestSoccerBallHit::GetProgressResultOnlyText, COMDAT
; _this$ = ecx

; 4533 : {

  00000	56		 push	 esi

; 4534 : 	m_szOutProgressResult = "";

  00001	8d b1 c4 00 00
	00		 lea	 esi, DWORD PTR [ecx+196]
  00007	68 00 00 00 00	 push	 OFFSET ??_C@_00CNPNBAHC@?$AA@
  0000c	8b ce		 mov	 ecx, esi
  0000e	ff 15 00 00 00
	00		 call	 DWORD PTR __imp_??4ioHashString@@QAEAAV0@PBD@Z

; 4535 : 	return m_szOutProgressResult;

  00014	8b c6		 mov	 eax, esi
  00016	5e		 pop	 esi

; 4536 : }

  00017	c3		 ret	 0
?GetProgressResultOnlyText@QuestSoccerBallHit@@UAEAAVioHashString@@XZ ENDP ; QuestSoccerBallHit::GetProgressResultOnlyText
_TEXT	ENDS
PUBLIC	?GetProgressGaugeRate@QuestSoccerBallHit@@UAEMXZ ; QuestSoccerBallHit::GetProgressGaugeRate
; Function compile flags: /Ogsp
;	COMDAT ?GetProgressGaugeRate@QuestSoccerBallHit@@UAEMXZ
_TEXT	SEGMENT
?GetProgressGaugeRate@QuestSoccerBallHit@@UAEMXZ PROC	; QuestSoccerBallHit::GetProgressGaugeRate, COMDAT
; _this$ = ecx

; 4540 : 	return QuestParent::GetProgressGaugeRate();

  00000	e9 00 00 00 00	 jmp	 ?GetProgressGaugeRate@QuestParent@@UAEMXZ ; QuestParent::GetProgressGaugeRate
?GetProgressGaugeRate@QuestSoccerBallHit@@UAEMXZ ENDP	; QuestSoccerBallHit::GetProgressGaugeRate
_TEXT	ENDS
PUBLIC	??_C@_0CD@HEHJJIAD@QuestSoccerGoal?3?3GetProgressResu@ ; `string'
PUBLIC	__$ArrayPad$
PUBLIC	?GetProgressResult@QuestSoccerGoal@@UAEAAVioHashString@@XZ ; QuestSoccerGoal::GetProgressResult
;	COMDAT ??_C@_0CD@HEHJJIAD@QuestSoccerGoal?3?3GetProgressResu@
CONST	SEGMENT
??_C@_0CD@HEHJJIAD@QuestSoccerGoal?3?3GetProgressResu@ DB 'QuestSoccerGoa'
	DB	'l::GetProgressResult', 00H			; `string'
; Function compile flags: /Ogsp
CONST	ENDS
;	COMDAT ?GetProgressResult@QuestSoccerGoal@@UAEAAVioHashString@@XZ
_TEXT	SEGMENT
_kQuestData$ = -268					; size = 4
_szBuf$ = -264						; size = 260
__$ArrayPad$ = -4					; size = 4
?GetProgressResult@QuestSoccerGoal@@UAEAAVioHashString@@XZ PROC ; QuestSoccerGoal::GetProgressResult, COMDAT
; _this$ = ecx

; 4577 : {

  00000	55		 push	 ebp
  00001	8b ec		 mov	 ebp, esp
  00003	81 ec 0c 01 00
	00		 sub	 esp, 268		; 0000010cH
  00009	a1 00 00 00 00	 mov	 eax, DWORD PTR ___security_cookie
  0000e	33 c5		 xor	 eax, ebp
  00010	89 45 fc	 mov	 DWORD PTR __$ArrayPad$[ebp], eax
  00013	56		 push	 esi
  00014	8b f1		 mov	 esi, ecx

; 4578 : 	QuestData &kQuestData = GetMyInfoQuestData();

  00016	8b 06		 mov	 eax, DWORD PTR [esi]
  00018	ff 50 28	 call	 DWORD PTR [eax+40]

; 4579 : 	char szBuf[MAX_PATH] = "";

  0001b	68 03 01 00 00	 push	 259			; 00000103H
  00020	89 85 f4 fe ff
	ff		 mov	 DWORD PTR _kQuestData$[ebp], eax
  00026	8d 85 f9 fe ff
	ff		 lea	 eax, DWORD PTR _szBuf$[ebp+1]
  0002c	6a 00		 push	 0
  0002e	50		 push	 eax
  0002f	c6 85 f8 fe ff
	ff 00		 mov	 BYTE PTR _szBuf$[ebp], 0
  00036	e8 00 00 00 00	 call	 _memset
  0003b	83 c4 0c	 add	 esp, 12			; 0000000cH

; 4580 : 	if( !m_szProgressResult.IsEmpty() )

  0003e	8d 8e b4 00 00
	00		 lea	 ecx, DWORD PTR [esi+180]
  00044	ff 15 00 00 00
	00		 call	 DWORD PTR __imp_?IsEmpty@ioHashString@@QBE_NXZ
  0004a	84 c0		 test	 al, al
  0004c	0f 85 8d 00 00
	00		 jne	 $LN1@GetProgres@30

; 4581 : 	{
; 4582 : 		if( !IsMeProgressQuest() )

  00052	8b 06		 mov	 eax, DWORD PTR [esi]
  00054	8b ce		 mov	 ecx, esi
  00056	ff 50 2c	 call	 DWORD PTR [eax+44]
  00059	84 c0		 test	 al, al
  0005b	75 34		 jne	 SHORT $LN2@GetProgres@30

; 4583 : 			SafeSprintf( szBuf, sizeof( szBuf ), STR(1) );

  0005d	6a 00		 push	 0
  0005f	6a 01		 push	 1
  00061	68 00 00 00 00	 push	 OFFSET ??_C@_00CNPNBAHC@?$AA@
  00066	68 00 00 00 00	 push	 OFFSET ??_C@_0CD@HEHJJIAD@QuestSoccerGoal?3?3GetProgressResu@
  0006b	ff 15 00 00 00
	00		 call	 DWORD PTR __imp_?GetSingleton@ioStringManager@@SAAAV1@XZ
  00071	8b c8		 mov	 ecx, eax
  00073	ff 15 00 00 00
	00		 call	 DWORD PTR __imp_?GetString@ioStringManager@@QAEPADPBD0HW4FileNamePrefix@1@@Z
  00079	50		 push	 eax
  0007a	8d 85 f8 fe ff
	ff		 lea	 eax, DWORD PTR _szBuf$[ebp]
  00080	68 04 01 00 00	 push	 260			; 00000104H
  00085	50		 push	 eax
  00086	ff 15 00 00 00
	00		 call	 DWORD PTR __imp_?SafeSprintf@@YAXPADHPBDZZ
  0008c	83 c4 0c	 add	 esp, 12			; 0000000cH

; 4584 : 		else

  0008f	eb 4e		 jmp	 SHORT $LN1@GetProgres@30
$LN2@GetProgres@30:
  00091	57		 push	 edi

; 4585 : 		{
; 4586 : 			SafeSprintf( szBuf, sizeof( szBuf ), STR(2), GetProgressPercentage( kQuestData.GetCurrentData(), GetProgressCount() ) );

  00092	8b 3e		 mov	 edi, DWORD PTR [esi]
  00094	8b ce		 mov	 ecx, esi
  00096	ff 57 0c	 call	 DWORD PTR [edi+12]
  00099	8b 8d f4 fe ff
	ff		 mov	 ecx, DWORD PTR _kQuestData$[ebp]
  0009f	50		 push	 eax
  000a0	e8 00 00 00 00	 call	 ?GetCurrentData@QuestData@@QAEKXZ ; QuestData::GetCurrentData
  000a5	50		 push	 eax
  000a6	8b ce		 mov	 ecx, esi
  000a8	ff 57 10	 call	 DWORD PTR [edi+16]
  000ab	50		 push	 eax
  000ac	6a 00		 push	 0
  000ae	6a 02		 push	 2
  000b0	68 00 00 00 00	 push	 OFFSET ??_C@_00CNPNBAHC@?$AA@
  000b5	68 00 00 00 00	 push	 OFFSET ??_C@_0CD@HEHJJIAD@QuestSoccerGoal?3?3GetProgressResu@
  000ba	ff 15 00 00 00
	00		 call	 DWORD PTR __imp_?GetSingleton@ioStringManager@@SAAAV1@XZ
  000c0	8b c8		 mov	 ecx, eax
  000c2	ff 15 00 00 00
	00		 call	 DWORD PTR __imp_?GetString@ioStringManager@@QAEPADPBD0HW4FileNamePrefix@1@@Z
  000c8	50		 push	 eax
  000c9	8d 85 f8 fe ff
	ff		 lea	 eax, DWORD PTR _szBuf$[ebp]
  000cf	68 04 01 00 00	 push	 260			; 00000104H
  000d4	50		 push	 eax
  000d5	ff 15 00 00 00
	00		 call	 DWORD PTR __imp_?SafeSprintf@@YAXPADHPBDH@Z
  000db	83 c4 10	 add	 esp, 16			; 00000010H
  000de	5f		 pop	 edi
$LN1@GetProgres@30:

; 4587 : 		}
; 4588 : 	}
; 4589 : 	m_szOutProgressResult = szBuf;

  000df	8d 85 f8 fe ff
	ff		 lea	 eax, DWORD PTR _szBuf$[ebp]
  000e5	50		 push	 eax
  000e6	8d 8e c4 00 00
	00		 lea	 ecx, DWORD PTR [esi+196]
  000ec	ff 15 00 00 00
	00		 call	 DWORD PTR __imp_??4ioHashString@@QAEAAV0@PBD@Z

; 4590 : 	return m_szOutProgressResult;
; 4591 : }

  000f2	8b 4d fc	 mov	 ecx, DWORD PTR __$ArrayPad$[ebp]
  000f5	8d 86 c4 00 00
	00		 lea	 eax, DWORD PTR [esi+196]
  000fb	33 cd		 xor	 ecx, ebp
  000fd	5e		 pop	 esi
  000fe	e8 00 00 00 00	 call	 @__security_check_cookie@4
  00103	c9		 leave
  00104	c3		 ret	 0
?GetProgressResult@QuestSoccerGoal@@UAEAAVioHashString@@XZ ENDP ; QuestSoccerGoal::GetProgressResult
_TEXT	ENDS
PUBLIC	??_C@_0CN@FONHAINK@QuestSoccerGoal?3?3GetProgressResu@ ; `string'
PUBLIC	__$ArrayPad$
PUBLIC	?GetProgressResultOnlyNumber@QuestSoccerGoal@@UAEAAVioHashString@@XZ ; QuestSoccerGoal::GetProgressResultOnlyNumber
;	COMDAT ??_C@_0CN@FONHAINK@QuestSoccerGoal?3?3GetProgressResu@
CONST	SEGMENT
??_C@_0CN@FONHAINK@QuestSoccerGoal?3?3GetProgressResu@ DB 'QuestSoccerGoa'
	DB	'l::GetProgressResultOnlyNumber', 00H	; `string'
; Function compile flags: /Ogsp
CONST	ENDS
;	COMDAT ?GetProgressResultOnlyNumber@QuestSoccerGoal@@UAEAAVioHashString@@XZ
_TEXT	SEGMENT
_kQuestData$ = -268					; size = 4
_szBuf$ = -264						; size = 260
__$ArrayPad$ = -4					; size = 4
?GetProgressResultOnlyNumber@QuestSoccerGoal@@UAEAAVioHashString@@XZ PROC ; QuestSoccerGoal::GetProgressResultOnlyNumber, COMDAT
; _this$ = ecx

; 4594 : {

  00000	55		 push	 ebp
  00001	8b ec		 mov	 ebp, esp
  00003	81 ec 0c 01 00
	00		 sub	 esp, 268		; 0000010cH
  00009	a1 00 00 00 00	 mov	 eax, DWORD PTR ___security_cookie
  0000e	33 c5		 xor	 eax, ebp
  00010	89 45 fc	 mov	 DWORD PTR __$ArrayPad$[ebp], eax
  00013	56		 push	 esi
  00014	8b f1		 mov	 esi, ecx

; 4595 : 	QuestData &kQuestData = GetMyInfoQuestData();

  00016	8b 06		 mov	 eax, DWORD PTR [esi]
  00018	ff 50 28	 call	 DWORD PTR [eax+40]

; 4596 : 	char szBuf[MAX_PATH] = "";

  0001b	68 03 01 00 00	 push	 259			; 00000103H
  00020	89 85 f4 fe ff
	ff		 mov	 DWORD PTR _kQuestData$[ebp], eax
  00026	8d 85 f9 fe ff
	ff		 lea	 eax, DWORD PTR _szBuf$[ebp+1]
  0002c	6a 00		 push	 0
  0002e	50		 push	 eax
  0002f	c6 85 f8 fe ff
	ff 00		 mov	 BYTE PTR _szBuf$[ebp], 0
  00036	e8 00 00 00 00	 call	 _memset
  0003b	83 c4 0c	 add	 esp, 12			; 0000000cH

; 4597 : 	if( !m_szProgressResult.IsEmpty() )

  0003e	8d 8e b4 00 00
	00		 lea	 ecx, DWORD PTR [esi+180]
  00044	ff 15 00 00 00
	00		 call	 DWORD PTR __imp_?IsEmpty@ioHashString@@QBE_NXZ
  0004a	84 c0		 test	 al, al
  0004c	75 4e		 jne	 SHORT $LN1@GetProgres@31

; 4598 : 	{
; 4599 : 		SafeSprintf( szBuf, sizeof( szBuf ), STR(1), GetProgressPercentage( kQuestData.GetCurrentData(), GetProgressCount() ) );

  0004e	57		 push	 edi
  0004f	8b 3e		 mov	 edi, DWORD PTR [esi]
  00051	8b ce		 mov	 ecx, esi
  00053	ff 57 0c	 call	 DWORD PTR [edi+12]
  00056	8b 8d f4 fe ff
	ff		 mov	 ecx, DWORD PTR _kQuestData$[ebp]
  0005c	50		 push	 eax
  0005d	e8 00 00 00 00	 call	 ?GetCurrentData@QuestData@@QAEKXZ ; QuestData::GetCurrentData
  00062	50		 push	 eax
  00063	8b ce		 mov	 ecx, esi
  00065	ff 57 10	 call	 DWORD PTR [edi+16]
  00068	50		 push	 eax
  00069	6a 00		 push	 0
  0006b	6a 01		 push	 1
  0006d	68 00 00 00 00	 push	 OFFSET ??_C@_00CNPNBAHC@?$AA@
  00072	68 00 00 00 00	 push	 OFFSET ??_C@_0CN@FONHAINK@QuestSoccerGoal?3?3GetProgressResu@
  00077	ff 15 00 00 00
	00		 call	 DWORD PTR __imp_?GetSingleton@ioStringManager@@SAAAV1@XZ
  0007d	8b c8		 mov	 ecx, eax
  0007f	ff 15 00 00 00
	00		 call	 DWORD PTR __imp_?GetString@ioStringManager@@QAEPADPBD0HW4FileNamePrefix@1@@Z
  00085	50		 push	 eax
  00086	8d 85 f8 fe ff
	ff		 lea	 eax, DWORD PTR _szBuf$[ebp]
  0008c	68 04 01 00 00	 push	 260			; 00000104H
  00091	50		 push	 eax
  00092	ff 15 00 00 00
	00		 call	 DWORD PTR __imp_?SafeSprintf@@YAXPADHPBDH@Z
  00098	83 c4 10	 add	 esp, 16			; 00000010H
  0009b	5f		 pop	 edi
$LN1@GetProgres@31:

; 4600 : 	}
; 4601 : 	m_szOutProgressResult = szBuf;

  0009c	8d 85 f8 fe ff
	ff		 lea	 eax, DWORD PTR _szBuf$[ebp]
  000a2	50		 push	 eax
  000a3	8d 8e c4 00 00
	00		 lea	 ecx, DWORD PTR [esi+196]
  000a9	ff 15 00 00 00
	00		 call	 DWORD PTR __imp_??4ioHashString@@QAEAAV0@PBD@Z

; 4602 : 	return m_szOutProgressResult;
; 4603 : }

  000af	8b 4d fc	 mov	 ecx, DWORD PTR __$ArrayPad$[ebp]
  000b2	8d 86 c4 00 00
	00		 lea	 eax, DWORD PTR [esi+196]
  000b8	33 cd		 xor	 ecx, ebp
  000ba	5e		 pop	 esi
  000bb	e8 00 00 00 00	 call	 @__security_check_cookie@4
  000c0	c9		 leave
  000c1	c3		 ret	 0
?GetProgressResultOnlyNumber@QuestSoccerGoal@@UAEAAVioHashString@@XZ ENDP ; QuestSoccerGoal::GetProgressResultOnlyNumber
_TEXT	ENDS
PUBLIC	?GetProgressResultOnlyText@QuestSoccerGoal@@UAEAAVioHashString@@XZ ; QuestSoccerGoal::GetProgressResultOnlyText
; Function compile flags: /Ogsp
;	COMDAT ?GetProgressResultOnlyText@QuestSoccerGoal@@UAEAAVioHashString@@XZ
_TEXT	SEGMENT
?GetProgressResultOnlyText@QuestSoccerGoal@@UAEAAVioHashString@@XZ PROC ; QuestSoccerGoal::GetProgressResultOnlyText, COMDAT
; _this$ = ecx

; 4606 : {

  00000	56		 push	 esi

; 4607 : 	m_szOutProgressResult = "";

  00001	8d b1 c4 00 00
	00		 lea	 esi, DWORD PTR [ecx+196]
  00007	68 00 00 00 00	 push	 OFFSET ??_C@_00CNPNBAHC@?$AA@
  0000c	8b ce		 mov	 ecx, esi
  0000e	ff 15 00 00 00
	00		 call	 DWORD PTR __imp_??4ioHashString@@QAEAAV0@PBD@Z

; 4608 : 	return m_szOutProgressResult;

  00014	8b c6		 mov	 eax, esi
  00016	5e		 pop	 esi

; 4609 : }

  00017	c3		 ret	 0
?GetProgressResultOnlyText@QuestSoccerGoal@@UAEAAVioHashString@@XZ ENDP ; QuestSoccerGoal::GetProgressResultOnlyText
_TEXT	ENDS
PUBLIC	?GetProgressGaugeRate@QuestSoccerGoal@@UAEMXZ	; QuestSoccerGoal::GetProgressGaugeRate
; Function compile flags: /Ogsp
;	COMDAT ?GetProgressGaugeRate@QuestSoccerGoal@@UAEMXZ
_TEXT	SEGMENT
?GetProgressGaugeRate@QuestSoccerGoal@@UAEMXZ PROC	; QuestSoccerGoal::GetProgressGaugeRate, COMDAT
; _this$ = ecx

; 4613 : 	return QuestParent::GetProgressGaugeRate();

  00000	e9 00 00 00 00	 jmp	 ?GetProgressGaugeRate@QuestParent@@UAEMXZ ; QuestParent::GetProgressGaugeRate
?GetProgressGaugeRate@QuestSoccerGoal@@UAEMXZ ENDP	; QuestSoccerGoal::GetProgressGaugeRate
_TEXT	ENDS
PUBLIC	??_C@_0CF@ODNKPNNG@QuestSoccerAssist?3?3GetProgressRe@ ; `string'
PUBLIC	__$ArrayPad$
PUBLIC	?GetProgressResult@QuestSoccerAssist@@UAEAAVioHashString@@XZ ; QuestSoccerAssist::GetProgressResult
;	COMDAT ??_C@_0CF@ODNKPNNG@QuestSoccerAssist?3?3GetProgressRe@
CONST	SEGMENT
??_C@_0CF@ODNKPNNG@QuestSoccerAssist?3?3GetProgressRe@ DB 'QuestSoccerAss'
	DB	'ist::GetProgressResult', 00H		; `string'
; Function compile flags: /Ogsp
CONST	ENDS
;	COMDAT ?GetProgressResult@QuestSoccerAssist@@UAEAAVioHashString@@XZ
_TEXT	SEGMENT
_kQuestData$ = -268					; size = 4
_szBuf$ = -264						; size = 260
__$ArrayPad$ = -4					; size = 4
?GetProgressResult@QuestSoccerAssist@@UAEAAVioHashString@@XZ PROC ; QuestSoccerAssist::GetProgressResult, COMDAT
; _this$ = ecx

; 4650 : {

  00000	55		 push	 ebp
  00001	8b ec		 mov	 ebp, esp
  00003	81 ec 0c 01 00
	00		 sub	 esp, 268		; 0000010cH
  00009	a1 00 00 00 00	 mov	 eax, DWORD PTR ___security_cookie
  0000e	33 c5		 xor	 eax, ebp
  00010	89 45 fc	 mov	 DWORD PTR __$ArrayPad$[ebp], eax
  00013	56		 push	 esi
  00014	8b f1		 mov	 esi, ecx

; 4651 : 	QuestData &kQuestData = GetMyInfoQuestData();

  00016	8b 06		 mov	 eax, DWORD PTR [esi]
  00018	ff 50 28	 call	 DWORD PTR [eax+40]

; 4652 : 	char szBuf[MAX_PATH] = "";

  0001b	68 03 01 00 00	 push	 259			; 00000103H
  00020	89 85 f4 fe ff
	ff		 mov	 DWORD PTR _kQuestData$[ebp], eax
  00026	8d 85 f9 fe ff
	ff		 lea	 eax, DWORD PTR _szBuf$[ebp+1]
  0002c	6a 00		 push	 0
  0002e	50		 push	 eax
  0002f	c6 85 f8 fe ff
	ff 00		 mov	 BYTE PTR _szBuf$[ebp], 0
  00036	e8 00 00 00 00	 call	 _memset
  0003b	83 c4 0c	 add	 esp, 12			; 0000000cH

; 4653 : 	if( !m_szProgressResult.IsEmpty() )

  0003e	8d 8e b4 00 00
	00		 lea	 ecx, DWORD PTR [esi+180]
  00044	ff 15 00 00 00
	00		 call	 DWORD PTR __imp_?IsEmpty@ioHashString@@QBE_NXZ
  0004a	84 c0		 test	 al, al
  0004c	0f 85 8d 00 00
	00		 jne	 $LN1@GetProgres@32

; 4654 : 	{
; 4655 : 		if( !IsMeProgressQuest() )

  00052	8b 06		 mov	 eax, DWORD PTR [esi]
  00054	8b ce		 mov	 ecx, esi
  00056	ff 50 2c	 call	 DWORD PTR [eax+44]
  00059	84 c0		 test	 al, al
  0005b	75 34		 jne	 SHORT $LN2@GetProgres@32

; 4656 : 			SafeSprintf( szBuf, sizeof( szBuf ), STR(1) );

  0005d	6a 00		 push	 0
  0005f	6a 01		 push	 1
  00061	68 00 00 00 00	 push	 OFFSET ??_C@_00CNPNBAHC@?$AA@
  00066	68 00 00 00 00	 push	 OFFSET ??_C@_0CF@ODNKPNNG@QuestSoccerAssist?3?3GetProgressRe@
  0006b	ff 15 00 00 00
	00		 call	 DWORD PTR __imp_?GetSingleton@ioStringManager@@SAAAV1@XZ
  00071	8b c8		 mov	 ecx, eax
  00073	ff 15 00 00 00
	00		 call	 DWORD PTR __imp_?GetString@ioStringManager@@QAEPADPBD0HW4FileNamePrefix@1@@Z
  00079	50		 push	 eax
  0007a	8d 85 f8 fe ff
	ff		 lea	 eax, DWORD PTR _szBuf$[ebp]
  00080	68 04 01 00 00	 push	 260			; 00000104H
  00085	50		 push	 eax
  00086	ff 15 00 00 00
	00		 call	 DWORD PTR __imp_?SafeSprintf@@YAXPADHPBDZZ
  0008c	83 c4 0c	 add	 esp, 12			; 0000000cH

; 4657 : 		else

  0008f	eb 4e		 jmp	 SHORT $LN1@GetProgres@32
$LN2@GetProgres@32:
  00091	57		 push	 edi

; 4658 : 		{
; 4659 : 			SafeSprintf( szBuf, sizeof( szBuf ), STR(2), GetProgressPercentage( kQuestData.GetCurrentData(), GetProgressCount() ) );

  00092	8b 3e		 mov	 edi, DWORD PTR [esi]
  00094	8b ce		 mov	 ecx, esi
  00096	ff 57 0c	 call	 DWORD PTR [edi+12]
  00099	8b 8d f4 fe ff
	ff		 mov	 ecx, DWORD PTR _kQuestData$[ebp]
  0009f	50		 push	 eax
  000a0	e8 00 00 00 00	 call	 ?GetCurrentData@QuestData@@QAEKXZ ; QuestData::GetCurrentData
  000a5	50		 push	 eax
  000a6	8b ce		 mov	 ecx, esi
  000a8	ff 57 10	 call	 DWORD PTR [edi+16]
  000ab	50		 push	 eax
  000ac	6a 00		 push	 0
  000ae	6a 02		 push	 2
  000b0	68 00 00 00 00	 push	 OFFSET ??_C@_00CNPNBAHC@?$AA@
  000b5	68 00 00 00 00	 push	 OFFSET ??_C@_0CF@ODNKPNNG@QuestSoccerAssist?3?3GetProgressRe@
  000ba	ff 15 00 00 00
	00		 call	 DWORD PTR __imp_?GetSingleton@ioStringManager@@SAAAV1@XZ
  000c0	8b c8		 mov	 ecx, eax
  000c2	ff 15 00 00 00
	00		 call	 DWORD PTR __imp_?GetString@ioStringManager@@QAEPADPBD0HW4FileNamePrefix@1@@Z
  000c8	50		 push	 eax
  000c9	8d 85 f8 fe ff
	ff		 lea	 eax, DWORD PTR _szBuf$[ebp]
  000cf	68 04 01 00 00	 push	 260			; 00000104H
  000d4	50		 push	 eax
  000d5	ff 15 00 00 00
	00		 call	 DWORD PTR __imp_?SafeSprintf@@YAXPADHPBDH@Z
  000db	83 c4 10	 add	 esp, 16			; 00000010H
  000de	5f		 pop	 edi
$LN1@GetProgres@32:

; 4660 : 		}
; 4661 : 	}
; 4662 : 	m_szOutProgressResult = szBuf;

  000df	8d 85 f8 fe ff
	ff		 lea	 eax, DWORD PTR _szBuf$[ebp]
  000e5	50		 push	 eax
  000e6	8d 8e c4 00 00
	00		 lea	 ecx, DWORD PTR [esi+196]
  000ec	ff 15 00 00 00
	00		 call	 DWORD PTR __imp_??4ioHashString@@QAEAAV0@PBD@Z

; 4663 : 	return m_szOutProgressResult;
; 4664 : }

  000f2	8b 4d fc	 mov	 ecx, DWORD PTR __$ArrayPad$[ebp]
  000f5	8d 86 c4 00 00
	00		 lea	 eax, DWORD PTR [esi+196]
  000fb	33 cd		 xor	 ecx, ebp
  000fd	5e		 pop	 esi
  000fe	e8 00 00 00 00	 call	 @__security_check_cookie@4
  00103	c9		 leave
  00104	c3		 ret	 0
?GetProgressResult@QuestSoccerAssist@@UAEAAVioHashString@@XZ ENDP ; QuestSoccerAssist::GetProgressResult
_TEXT	ENDS
PUBLIC	??_C@_0CP@PPLGCAOB@QuestSoccerAssist?3?3GetProgressRe@ ; `string'
PUBLIC	__$ArrayPad$
PUBLIC	?GetProgressResultOnlyNumber@QuestSoccerAssist@@UAEAAVioHashString@@XZ ; QuestSoccerAssist::GetProgressResultOnlyNumber
;	COMDAT ??_C@_0CP@PPLGCAOB@QuestSoccerAssist?3?3GetProgressRe@
CONST	SEGMENT
??_C@_0CP@PPLGCAOB@QuestSoccerAssist?3?3GetProgressRe@ DB 'QuestSoccerAss'
	DB	'ist::GetProgressResultOnlyNumber', 00H	; `string'
; Function compile flags: /Ogsp
CONST	ENDS
;	COMDAT ?GetProgressResultOnlyNumber@QuestSoccerAssist@@UAEAAVioHashString@@XZ
_TEXT	SEGMENT
_kQuestData$ = -268					; size = 4
_szBuf$ = -264						; size = 260
__$ArrayPad$ = -4					; size = 4
?GetProgressResultOnlyNumber@QuestSoccerAssist@@UAEAAVioHashString@@XZ PROC ; QuestSoccerAssist::GetProgressResultOnlyNumber, COMDAT
; _this$ = ecx

; 4667 : {

  00000	55		 push	 ebp
  00001	8b ec		 mov	 ebp, esp
  00003	81 ec 0c 01 00
	00		 sub	 esp, 268		; 0000010cH
  00009	a1 00 00 00 00	 mov	 eax, DWORD PTR ___security_cookie
  0000e	33 c5		 xor	 eax, ebp
  00010	89 45 fc	 mov	 DWORD PTR __$ArrayPad$[ebp], eax
  00013	56		 push	 esi
  00014	8b f1		 mov	 esi, ecx

; 4668 : 	QuestData &kQuestData = GetMyInfoQuestData();

  00016	8b 06		 mov	 eax, DWORD PTR [esi]
  00018	ff 50 28	 call	 DWORD PTR [eax+40]

; 4669 : 	char szBuf[MAX_PATH] = "";

  0001b	68 03 01 00 00	 push	 259			; 00000103H
  00020	89 85 f4 fe ff
	ff		 mov	 DWORD PTR _kQuestData$[ebp], eax
  00026	8d 85 f9 fe ff
	ff		 lea	 eax, DWORD PTR _szBuf$[ebp+1]
  0002c	6a 00		 push	 0
  0002e	50		 push	 eax
  0002f	c6 85 f8 fe ff
	ff 00		 mov	 BYTE PTR _szBuf$[ebp], 0
  00036	e8 00 00 00 00	 call	 _memset
  0003b	83 c4 0c	 add	 esp, 12			; 0000000cH

; 4670 : 	if( !m_szProgressResult.IsEmpty() )

  0003e	8d 8e b4 00 00
	00		 lea	 ecx, DWORD PTR [esi+180]
  00044	ff 15 00 00 00
	00		 call	 DWORD PTR __imp_?IsEmpty@ioHashString@@QBE_NXZ
  0004a	84 c0		 test	 al, al
  0004c	75 4e		 jne	 SHORT $LN1@GetProgres@33

; 4671 : 	{
; 4672 : 		SafeSprintf( szBuf, sizeof( szBuf ), STR(1), GetProgressPercentage( kQuestData.GetCurrentData(), GetProgressCount() ) );

  0004e	57		 push	 edi
  0004f	8b 3e		 mov	 edi, DWORD PTR [esi]
  00051	8b ce		 mov	 ecx, esi
  00053	ff 57 0c	 call	 DWORD PTR [edi+12]
  00056	8b 8d f4 fe ff
	ff		 mov	 ecx, DWORD PTR _kQuestData$[ebp]
  0005c	50		 push	 eax
  0005d	e8 00 00 00 00	 call	 ?GetCurrentData@QuestData@@QAEKXZ ; QuestData::GetCurrentData
  00062	50		 push	 eax
  00063	8b ce		 mov	 ecx, esi
  00065	ff 57 10	 call	 DWORD PTR [edi+16]
  00068	50		 push	 eax
  00069	6a 00		 push	 0
  0006b	6a 01		 push	 1
  0006d	68 00 00 00 00	 push	 OFFSET ??_C@_00CNPNBAHC@?$AA@
  00072	68 00 00 00 00	 push	 OFFSET ??_C@_0CP@PPLGCAOB@QuestSoccerAssist?3?3GetProgressRe@
  00077	ff 15 00 00 00
	00		 call	 DWORD PTR __imp_?GetSingleton@ioStringManager@@SAAAV1@XZ
  0007d	8b c8		 mov	 ecx, eax
  0007f	ff 15 00 00 00
	00		 call	 DWORD PTR __imp_?GetString@ioStringManager@@QAEPADPBD0HW4FileNamePrefix@1@@Z
  00085	50		 push	 eax
  00086	8d 85 f8 fe ff
	ff		 lea	 eax, DWORD PTR _szBuf$[ebp]
  0008c	68 04 01 00 00	 push	 260			; 00000104H
  00091	50		 push	 eax
  00092	ff 15 00 00 00
	00		 call	 DWORD PTR __imp_?SafeSprintf@@YAXPADHPBDH@Z
  00098	83 c4 10	 add	 esp, 16			; 00000010H
  0009b	5f		 pop	 edi
$LN1@GetProgres@33:

; 4673 : 	}
; 4674 : 	m_szOutProgressResult = szBuf;

  0009c	8d 85 f8 fe ff
	ff		 lea	 eax, DWORD PTR _szBuf$[ebp]
  000a2	50		 push	 eax
  000a3	8d 8e c4 00 00
	00		 lea	 ecx, DWORD PTR [esi+196]
  000a9	ff 15 00 00 00
	00		 call	 DWORD PTR __imp_??4ioHashString@@QAEAAV0@PBD@Z

; 4675 : 	return m_szOutProgressResult;
; 4676 : }

  000af	8b 4d fc	 mov	 ecx, DWORD PTR __$ArrayPad$[ebp]
  000b2	8d 86 c4 00 00
	00		 lea	 eax, DWORD PTR [esi+196]
  000b8	33 cd		 xor	 ecx, ebp
  000ba	5e		 pop	 esi
  000bb	e8 00 00 00 00	 call	 @__security_check_cookie@4
  000c0	c9		 leave
  000c1	c3		 ret	 0
?GetProgressResultOnlyNumber@QuestSoccerAssist@@UAEAAVioHashString@@XZ ENDP ; QuestSoccerAssist::GetProgressResultOnlyNumber
_TEXT	ENDS
PUBLIC	?GetProgressResultOnlyText@QuestSoccerAssist@@UAEAAVioHashString@@XZ ; QuestSoccerAssist::GetProgressResultOnlyText
; Function compile flags: /Ogsp
;	COMDAT ?GetProgressResultOnlyText@QuestSoccerAssist@@UAEAAVioHashString@@XZ
_TEXT	SEGMENT
?GetProgressResultOnlyText@QuestSoccerAssist@@UAEAAVioHashString@@XZ PROC ; QuestSoccerAssist::GetProgressResultOnlyText, COMDAT
; _this$ = ecx

; 4679 : {

  00000	56		 push	 esi

; 4680 : 	m_szOutProgressResult = "";

  00001	8d b1 c4 00 00
	00		 lea	 esi, DWORD PTR [ecx+196]
  00007	68 00 00 00 00	 push	 OFFSET ??_C@_00CNPNBAHC@?$AA@
  0000c	8b ce		 mov	 ecx, esi
  0000e	ff 15 00 00 00
	00		 call	 DWORD PTR __imp_??4ioHashString@@QAEAAV0@PBD@Z

; 4681 : 	return m_szOutProgressResult;

  00014	8b c6		 mov	 eax, esi
  00016	5e		 pop	 esi

; 4682 : }

  00017	c3		 ret	 0
?GetProgressResultOnlyText@QuestSoccerAssist@@UAEAAVioHashString@@XZ ENDP ; QuestSoccerAssist::GetProgressResultOnlyText
_TEXT	ENDS
PUBLIC	?GetProgressGaugeRate@QuestSoccerAssist@@UAEMXZ	; QuestSoccerAssist::GetProgressGaugeRate
; Function compile flags: /Ogsp
;	COMDAT ?GetProgressGaugeRate@QuestSoccerAssist@@UAEMXZ
_TEXT	SEGMENT
?GetProgressGaugeRate@QuestSoccerAssist@@UAEMXZ PROC	; QuestSoccerAssist::GetProgressGaugeRate, COMDAT
; _this$ = ecx

; 4686 : 	return QuestParent::GetProgressGaugeRate();

  00000	e9 00 00 00 00	 jmp	 ?GetProgressGaugeRate@QuestParent@@UAEMXZ ; QuestParent::GetProgressGaugeRate
?GetProgressGaugeRate@QuestSoccerAssist@@UAEMXZ ENDP	; QuestSoccerAssist::GetProgressGaugeRate
_TEXT	ENDS
PUBLIC	?IsCheckAlreadyAttain@QuestExcavationLevelUP@@UAE_NXZ ; QuestExcavationLevelUP::IsCheckAlreadyAttain
EXTRN	?GetExcavationLevel@ioMyInfo@@QAEHXZ:PROC	; ioMyInfo::GetExcavationLevel
; Function compile flags: /Ogsp
;	COMDAT ?IsCheckAlreadyAttain@QuestExcavationLevelUP@@UAE_NXZ
_TEXT	SEGMENT
?IsCheckAlreadyAttain@QuestExcavationLevelUP@@UAE_NXZ PROC ; QuestExcavationLevelUP::IsCheckAlreadyAttain, COMDAT
; _this$ = ecx

; 4780 : {

  00000	56		 push	 esi
  00001	57		 push	 edi
  00002	8b f9		 mov	 edi, ecx

; 4781 : 	return SetAttainProcess( g_MyInfo.GetExcavationLevel(), GetProgressCount() );

  00004	8b 37		 mov	 esi, DWORD PTR [edi]
  00006	ff 56 0c	 call	 DWORD PTR [esi+12]
  00009	50		 push	 eax
  0000a	e8 00 00 00 00	 call	 ?GetSingleton@ioMyInfo@@SAAAV1@XZ ; ioMyInfo::GetSingleton
  0000f	8b c8		 mov	 ecx, eax
  00011	e8 00 00 00 00	 call	 ?GetExcavationLevel@ioMyInfo@@QAEHXZ ; ioMyInfo::GetExcavationLevel
  00016	50		 push	 eax
  00017	8b cf		 mov	 ecx, edi
  00019	ff 56 40	 call	 DWORD PTR [esi+64]
  0001c	5f		 pop	 edi
  0001d	5e		 pop	 esi

; 4782 : }

  0001e	c3		 ret	 0
?IsCheckAlreadyAttain@QuestExcavationLevelUP@@UAE_NXZ ENDP ; QuestExcavationLevelUP::IsCheckAlreadyAttain
_TEXT	ENDS
PUBLIC	?GetProgressResultOnlyText@QuestExcavationLevelUP@@UAEAAVioHashString@@XZ ; QuestExcavationLevelUP::GetProgressResultOnlyText
; Function compile flags: /Ogsp
;	COMDAT ?GetProgressResultOnlyText@QuestExcavationLevelUP@@UAEAAVioHashString@@XZ
_TEXT	SEGMENT
?GetProgressResultOnlyText@QuestExcavationLevelUP@@UAEAAVioHashString@@XZ PROC ; QuestExcavationLevelUP::GetProgressResultOnlyText, COMDAT
; _this$ = ecx

; 4819 : {

  00000	56		 push	 esi

; 4820 : 	m_szOutProgressResult = "";

  00001	8d b1 c4 00 00
	00		 lea	 esi, DWORD PTR [ecx+196]
  00007	68 00 00 00 00	 push	 OFFSET ??_C@_00CNPNBAHC@?$AA@
  0000c	8b ce		 mov	 ecx, esi
  0000e	ff 15 00 00 00
	00		 call	 DWORD PTR __imp_??4ioHashString@@QAEAAV0@PBD@Z

; 4821 : 	return m_szOutProgressResult;

  00014	8b c6		 mov	 eax, esi
  00016	5e		 pop	 esi

; 4822 : }

  00017	c3		 ret	 0
?GetProgressResultOnlyText@QuestExcavationLevelUP@@UAEAAVioHashString@@XZ ENDP ; QuestExcavationLevelUP::GetProgressResultOnlyText
_TEXT	ENDS
PUBLIC	?IsCheckCompleteTerm@QuestExcavationTime@@UAE_NKHHH@Z ; QuestExcavationTime::IsCheckCompleteTerm
; Function compile flags: /Ogsp
;	COMDAT ?IsCheckCompleteTerm@QuestExcavationTime@@UAE_NKHHH@Z
_TEXT	SEGMENT
_dwTerm$ = 8						; size = 4
_iValue1$ = 12						; size = 4
_iValue2$ = 16						; size = 4
_iValue3$ = 20						; size = 4
?IsCheckCompleteTerm@QuestExcavationTime@@UAE_NKHHH@Z PROC ; QuestExcavationTime::IsCheckCompleteTerm, COMDAT
; _this$ = ecx

; 5012 : 	return false;

  00000	32 c0		 xor	 al, al

; 5013 : }

  00002	c2 10 00	 ret	 16			; 00000010H
?IsCheckCompleteTerm@QuestExcavationTime@@UAE_NKHHH@Z ENDP ; QuestExcavationTime::IsCheckCompleteTerm
_TEXT	ENDS
PUBLIC	?StartProcessTime@QuestExcavationTime@@UAEXXZ	; QuestExcavationTime::StartProcessTime
; Function compile flags: /Ogsp
;	COMDAT ?StartProcessTime@QuestExcavationTime@@UAEXXZ
_TEXT	SEGMENT
?StartProcessTime@QuestExcavationTime@@UAEXXZ PROC	; QuestExcavationTime::StartProcessTime, COMDAT
; _this$ = ecx

; 5016 : {

  00000	56		 push	 esi
  00001	8b f1		 mov	 esi, ecx

; 5017 : 	m_dwProcessTime = FRAMEGETTIME();

  00003	ff 15 00 00 00
	00		 call	 DWORD PTR __imp_?GetSingleton@ioFrameTimer@@SAAAV1@XZ
  00009	8b c8		 mov	 ecx, eax
  0000b	ff 15 00 00 00
	00		 call	 DWORD PTR __imp_?GetLoopSec@ioFrameTimer@@QBEKXZ

; 5018 : 	m_dwAccrueSec   = 0;

  00011	83 a6 fc 00 00
	00 00		 and	 DWORD PTR [esi+252], 0
  00018	89 86 f8 00 00
	00		 mov	 DWORD PTR [esi+248], eax
  0001e	5e		 pop	 esi

; 5019 : }

  0001f	c3		 ret	 0
?StartProcessTime@QuestExcavationTime@@UAEXXZ ENDP	; QuestExcavationTime::StartProcessTime
_TEXT	ENDS
PUBLIC	??_C@_0CH@JBCAPJNG@QuestExcavationTime?3?3GetProgress@ ; `string'
PUBLIC	__$ArrayPad$
PUBLIC	?GetProgressResult@QuestExcavationTime@@UAEAAVioHashString@@XZ ; QuestExcavationTime::GetProgressResult
;	COMDAT ??_C@_0CH@JBCAPJNG@QuestExcavationTime?3?3GetProgress@
CONST	SEGMENT
??_C@_0CH@JBCAPJNG@QuestExcavationTime?3?3GetProgress@ DB 'QuestExcavatio'
	DB	'nTime::GetProgressResult', 00H		; `string'
; Function compile flags: /Ogsp
CONST	ENDS
;	COMDAT ?GetProgressResult@QuestExcavationTime@@UAEAAVioHashString@@XZ
_TEXT	SEGMENT
_kQuestData$ = -268					; size = 4
_szBuf$ = -264						; size = 260
__$ArrayPad$ = -4					; size = 4
?GetProgressResult@QuestExcavationTime@@UAEAAVioHashString@@XZ PROC ; QuestExcavationTime::GetProgressResult, COMDAT
; _this$ = ecx

; 5027 : {

  00000	55		 push	 ebp
  00001	8b ec		 mov	 ebp, esp
  00003	81 ec 0c 01 00
	00		 sub	 esp, 268		; 0000010cH
  00009	a1 00 00 00 00	 mov	 eax, DWORD PTR ___security_cookie
  0000e	33 c5		 xor	 eax, ebp
  00010	89 45 fc	 mov	 DWORD PTR __$ArrayPad$[ebp], eax
  00013	56		 push	 esi
  00014	8b f1		 mov	 esi, ecx

; 5028 : 	QuestData &kQuestData = GetMyInfoQuestData();

  00016	8b 06		 mov	 eax, DWORD PTR [esi]
  00018	ff 50 28	 call	 DWORD PTR [eax+40]

; 5029 : 	char szBuf[MAX_PATH] = "";

  0001b	68 03 01 00 00	 push	 259			; 00000103H
  00020	89 85 f4 fe ff
	ff		 mov	 DWORD PTR _kQuestData$[ebp], eax
  00026	8d 85 f9 fe ff
	ff		 lea	 eax, DWORD PTR _szBuf$[ebp+1]
  0002c	6a 00		 push	 0
  0002e	50		 push	 eax
  0002f	c6 85 f8 fe ff
	ff 00		 mov	 BYTE PTR _szBuf$[ebp], 0
  00036	e8 00 00 00 00	 call	 _memset
  0003b	83 c4 0c	 add	 esp, 12			; 0000000cH

; 5030 : 	if( !m_szProgressResult.IsEmpty() )

  0003e	8d 8e b4 00 00
	00		 lea	 ecx, DWORD PTR [esi+180]
  00044	ff 15 00 00 00
	00		 call	 DWORD PTR __imp_?IsEmpty@ioHashString@@QBE_NXZ
  0004a	84 c0		 test	 al, al
  0004c	0f 85 8d 00 00
	00		 jne	 $LN1@GetProgres@34

; 5031 : 	{
; 5032 : 		if( !IsMeProgressQuest() )

  00052	8b 06		 mov	 eax, DWORD PTR [esi]
  00054	8b ce		 mov	 ecx, esi
  00056	ff 50 2c	 call	 DWORD PTR [eax+44]
  00059	84 c0		 test	 al, al
  0005b	75 34		 jne	 SHORT $LN2@GetProgres@34

; 5033 : 			SafeSprintf( szBuf, sizeof( szBuf ), STR(1) );

  0005d	6a 00		 push	 0
  0005f	6a 01		 push	 1
  00061	68 00 00 00 00	 push	 OFFSET ??_C@_00CNPNBAHC@?$AA@
  00066	68 00 00 00 00	 push	 OFFSET ??_C@_0CH@JBCAPJNG@QuestExcavationTime?3?3GetProgress@
  0006b	ff 15 00 00 00
	00		 call	 DWORD PTR __imp_?GetSingleton@ioStringManager@@SAAAV1@XZ
  00071	8b c8		 mov	 ecx, eax
  00073	ff 15 00 00 00
	00		 call	 DWORD PTR __imp_?GetString@ioStringManager@@QAEPADPBD0HW4FileNamePrefix@1@@Z
  00079	50		 push	 eax
  0007a	8d 85 f8 fe ff
	ff		 lea	 eax, DWORD PTR _szBuf$[ebp]
  00080	68 04 01 00 00	 push	 260			; 00000104H
  00085	50		 push	 eax
  00086	ff 15 00 00 00
	00		 call	 DWORD PTR __imp_?SafeSprintf@@YAXPADHPBDZZ
  0008c	83 c4 0c	 add	 esp, 12			; 0000000cH

; 5034 : 		else

  0008f	eb 4e		 jmp	 SHORT $LN1@GetProgres@34
$LN2@GetProgres@34:
  00091	57		 push	 edi

; 5035 : 		{
; 5036 : 			SafeSprintf( szBuf, sizeof( szBuf ), STR(2), GetProgressPercentage( kQuestData.GetCurrentData(), GetProgressCount() ) );

  00092	8b 3e		 mov	 edi, DWORD PTR [esi]
  00094	8b ce		 mov	 ecx, esi
  00096	ff 57 0c	 call	 DWORD PTR [edi+12]
  00099	8b 8d f4 fe ff
	ff		 mov	 ecx, DWORD PTR _kQuestData$[ebp]
  0009f	50		 push	 eax
  000a0	e8 00 00 00 00	 call	 ?GetCurrentData@QuestData@@QAEKXZ ; QuestData::GetCurrentData
  000a5	50		 push	 eax
  000a6	8b ce		 mov	 ecx, esi
  000a8	ff 57 10	 call	 DWORD PTR [edi+16]
  000ab	50		 push	 eax
  000ac	6a 00		 push	 0
  000ae	6a 02		 push	 2
  000b0	68 00 00 00 00	 push	 OFFSET ??_C@_00CNPNBAHC@?$AA@
  000b5	68 00 00 00 00	 push	 OFFSET ??_C@_0CH@JBCAPJNG@QuestExcavationTime?3?3GetProgress@
  000ba	ff 15 00 00 00
	00		 call	 DWORD PTR __imp_?GetSingleton@ioStringManager@@SAAAV1@XZ
  000c0	8b c8		 mov	 ecx, eax
  000c2	ff 15 00 00 00
	00		 call	 DWORD PTR __imp_?GetString@ioStringManager@@QAEPADPBD0HW4FileNamePrefix@1@@Z
  000c8	50		 push	 eax
  000c9	8d 85 f8 fe ff
	ff		 lea	 eax, DWORD PTR _szBuf$[ebp]
  000cf	68 04 01 00 00	 push	 260			; 00000104H
  000d4	50		 push	 eax
  000d5	ff 15 00 00 00
	00		 call	 DWORD PTR __imp_?SafeSprintf@@YAXPADHPBDH@Z
  000db	83 c4 10	 add	 esp, 16			; 00000010H
  000de	5f		 pop	 edi
$LN1@GetProgres@34:

; 5037 : 		}
; 5038 : 	}
; 5039 : 	m_szOutProgressResult = szBuf;

  000df	8d 85 f8 fe ff
	ff		 lea	 eax, DWORD PTR _szBuf$[ebp]
  000e5	50		 push	 eax
  000e6	8d 8e c4 00 00
	00		 lea	 ecx, DWORD PTR [esi+196]
  000ec	ff 15 00 00 00
	00		 call	 DWORD PTR __imp_??4ioHashString@@QAEAAV0@PBD@Z

; 5040 : 	return m_szOutProgressResult;
; 5041 : }

  000f2	8b 4d fc	 mov	 ecx, DWORD PTR __$ArrayPad$[ebp]
  000f5	8d 86 c4 00 00
	00		 lea	 eax, DWORD PTR [esi+196]
  000fb	33 cd		 xor	 ecx, ebp
  000fd	5e		 pop	 esi
  000fe	e8 00 00 00 00	 call	 @__security_check_cookie@4
  00103	c9		 leave
  00104	c3		 ret	 0
?GetProgressResult@QuestExcavationTime@@UAEAAVioHashString@@XZ ENDP ; QuestExcavationTime::GetProgressResult
_TEXT	ENDS
PUBLIC	??_C@_0DB@LHAGLIGN@QuestExcavationTime?3?3GetProgress@ ; `string'
PUBLIC	__$ArrayPad$
PUBLIC	?GetProgressResultOnlyNumber@QuestExcavationTime@@UAEAAVioHashString@@XZ ; QuestExcavationTime::GetProgressResultOnlyNumber
;	COMDAT ??_C@_0DB@LHAGLIGN@QuestExcavationTime?3?3GetProgress@
CONST	SEGMENT
??_C@_0DB@LHAGLIGN@QuestExcavationTime?3?3GetProgress@ DB 'QuestExcavatio'
	DB	'nTime::GetProgressResultOnlyNumber', 00H	; `string'
; Function compile flags: /Ogsp
CONST	ENDS
;	COMDAT ?GetProgressResultOnlyNumber@QuestExcavationTime@@UAEAAVioHashString@@XZ
_TEXT	SEGMENT
_kQuestData$ = -268					; size = 4
_szBuf$ = -264						; size = 260
__$ArrayPad$ = -4					; size = 4
?GetProgressResultOnlyNumber@QuestExcavationTime@@UAEAAVioHashString@@XZ PROC ; QuestExcavationTime::GetProgressResultOnlyNumber, COMDAT
; _this$ = ecx

; 5044 : {

  00000	55		 push	 ebp
  00001	8b ec		 mov	 ebp, esp
  00003	81 ec 0c 01 00
	00		 sub	 esp, 268		; 0000010cH
  00009	a1 00 00 00 00	 mov	 eax, DWORD PTR ___security_cookie
  0000e	33 c5		 xor	 eax, ebp
  00010	89 45 fc	 mov	 DWORD PTR __$ArrayPad$[ebp], eax
  00013	56		 push	 esi
  00014	8b f1		 mov	 esi, ecx

; 5045 : 	QuestData &kQuestData = GetMyInfoQuestData();

  00016	8b 06		 mov	 eax, DWORD PTR [esi]
  00018	ff 50 28	 call	 DWORD PTR [eax+40]

; 5046 : 	char szBuf[MAX_PATH] = "";

  0001b	68 03 01 00 00	 push	 259			; 00000103H
  00020	89 85 f4 fe ff
	ff		 mov	 DWORD PTR _kQuestData$[ebp], eax
  00026	8d 85 f9 fe ff
	ff		 lea	 eax, DWORD PTR _szBuf$[ebp+1]
  0002c	6a 00		 push	 0
  0002e	50		 push	 eax
  0002f	c6 85 f8 fe ff
	ff 00		 mov	 BYTE PTR _szBuf$[ebp], 0
  00036	e8 00 00 00 00	 call	 _memset
  0003b	83 c4 0c	 add	 esp, 12			; 0000000cH

; 5047 : 	if( !m_szProgressResult.IsEmpty() )

  0003e	8d 8e b4 00 00
	00		 lea	 ecx, DWORD PTR [esi+180]
  00044	ff 15 00 00 00
	00		 call	 DWORD PTR __imp_?IsEmpty@ioHashString@@QBE_NXZ
  0004a	84 c0		 test	 al, al
  0004c	75 4e		 jne	 SHORT $LN1@GetProgres@35

; 5048 : 	{
; 5049 : 		SafeSprintf( szBuf, sizeof( szBuf ), STR(1), GetProgressPercentage( kQuestData.GetCurrentData(), GetProgressCount() ) );

  0004e	57		 push	 edi
  0004f	8b 3e		 mov	 edi, DWORD PTR [esi]
  00051	8b ce		 mov	 ecx, esi
  00053	ff 57 0c	 call	 DWORD PTR [edi+12]
  00056	8b 8d f4 fe ff
	ff		 mov	 ecx, DWORD PTR _kQuestData$[ebp]
  0005c	50		 push	 eax
  0005d	e8 00 00 00 00	 call	 ?GetCurrentData@QuestData@@QAEKXZ ; QuestData::GetCurrentData
  00062	50		 push	 eax
  00063	8b ce		 mov	 ecx, esi
  00065	ff 57 10	 call	 DWORD PTR [edi+16]
  00068	50		 push	 eax
  00069	6a 00		 push	 0
  0006b	6a 01		 push	 1
  0006d	68 00 00 00 00	 push	 OFFSET ??_C@_00CNPNBAHC@?$AA@
  00072	68 00 00 00 00	 push	 OFFSET ??_C@_0DB@LHAGLIGN@QuestExcavationTime?3?3GetProgress@
  00077	ff 15 00 00 00
	00		 call	 DWORD PTR __imp_?GetSingleton@ioStringManager@@SAAAV1@XZ
  0007d	8b c8		 mov	 ecx, eax
  0007f	ff 15 00 00 00
	00		 call	 DWORD PTR __imp_?GetString@ioStringManager@@QAEPADPBD0HW4FileNamePrefix@1@@Z
  00085	50		 push	 eax
  00086	8d 85 f8 fe ff
	ff		 lea	 eax, DWORD PTR _szBuf$[ebp]
  0008c	68 04 01 00 00	 push	 260			; 00000104H
  00091	50		 push	 eax
  00092	ff 15 00 00 00
	00		 call	 DWORD PTR __imp_?SafeSprintf@@YAXPADHPBDH@Z
  00098	83 c4 10	 add	 esp, 16			; 00000010H
  0009b	5f		 pop	 edi
$LN1@GetProgres@35:

; 5050 : 	}
; 5051 : 	m_szOutProgressResult = szBuf;

  0009c	8d 85 f8 fe ff
	ff		 lea	 eax, DWORD PTR _szBuf$[ebp]
  000a2	50		 push	 eax
  000a3	8d 8e c4 00 00
	00		 lea	 ecx, DWORD PTR [esi+196]
  000a9	ff 15 00 00 00
	00		 call	 DWORD PTR __imp_??4ioHashString@@QAEAAV0@PBD@Z

; 5052 : 	return m_szOutProgressResult;
; 5053 : }

  000af	8b 4d fc	 mov	 ecx, DWORD PTR __$ArrayPad$[ebp]
  000b2	8d 86 c4 00 00
	00		 lea	 eax, DWORD PTR [esi+196]
  000b8	33 cd		 xor	 ecx, ebp
  000ba	5e		 pop	 esi
  000bb	e8 00 00 00 00	 call	 @__security_check_cookie@4
  000c0	c9		 leave
  000c1	c3		 ret	 0
?GetProgressResultOnlyNumber@QuestExcavationTime@@UAEAAVioHashString@@XZ ENDP ; QuestExcavationTime::GetProgressResultOnlyNumber
_TEXT	ENDS
PUBLIC	?GetProgressResultOnlyText@QuestExcavationTime@@UAEAAVioHashString@@XZ ; QuestExcavationTime::GetProgressResultOnlyText
; Function compile flags: /Ogsp
;	COMDAT ?GetProgressResultOnlyText@QuestExcavationTime@@UAEAAVioHashString@@XZ
_TEXT	SEGMENT
?GetProgressResultOnlyText@QuestExcavationTime@@UAEAAVioHashString@@XZ PROC ; QuestExcavationTime::GetProgressResultOnlyText, COMDAT
; _this$ = ecx

; 5056 : {

  00000	56		 push	 esi

; 5057 : 	m_szOutProgressResult = "";

  00001	8d b1 c4 00 00
	00		 lea	 esi, DWORD PTR [ecx+196]
  00007	68 00 00 00 00	 push	 OFFSET ??_C@_00CNPNBAHC@?$AA@
  0000c	8b ce		 mov	 ecx, esi
  0000e	ff 15 00 00 00
	00		 call	 DWORD PTR __imp_??4ioHashString@@QAEAAV0@PBD@Z

; 5058 : 	return m_szOutProgressResult;

  00014	8b c6		 mov	 eax, esi
  00016	5e		 pop	 esi

; 5059 : }

  00017	c3		 ret	 0
?GetProgressResultOnlyText@QuestExcavationTime@@UAEAAVioHashString@@XZ ENDP ; QuestExcavationTime::GetProgressResultOnlyText
_TEXT	ENDS
PUBLIC	?GetProgressGaugeRate@QuestExcavationTime@@UAEMXZ ; QuestExcavationTime::GetProgressGaugeRate
; Function compile flags: /Ogsp
;	COMDAT ?GetProgressGaugeRate@QuestExcavationTime@@UAEMXZ
_TEXT	SEGMENT
?GetProgressGaugeRate@QuestExcavationTime@@UAEMXZ PROC	; QuestExcavationTime::GetProgressGaugeRate, COMDAT
; _this$ = ecx

; 5063 : 	return QuestParent::GetProgressGaugeRate();

  00000	e9 00 00 00 00	 jmp	 ?GetProgressGaugeRate@QuestParent@@UAEMXZ ; QuestParent::GetProgressGaugeRate
?GetProgressGaugeRate@QuestExcavationTime@@UAEMXZ ENDP	; QuestExcavationTime::GetProgressGaugeRate
_TEXT	ENDS
PUBLIC	??_C@_0CJ@KBBJCDDB@QuestExtraItemEquipKo?3?3GetProgre@ ; `string'
PUBLIC	__$ArrayPad$
PUBLIC	?GetProgressResult@QuestExtraItemEquipKo@@UAEAAVioHashString@@XZ ; QuestExtraItemEquipKo::GetProgressResult
;	COMDAT ??_C@_0CJ@KBBJCDDB@QuestExtraItemEquipKo?3?3GetProgre@
CONST	SEGMENT
??_C@_0CJ@KBBJCDDB@QuestExtraItemEquipKo?3?3GetProgre@ DB 'QuestExtraItem'
	DB	'EquipKo::GetProgressResult', 00H		; `string'
; Function compile flags: /Ogsp
CONST	ENDS
;	COMDAT ?GetProgressResult@QuestExtraItemEquipKo@@UAEAAVioHashString@@XZ
_TEXT	SEGMENT
_kQuestData$ = -268					; size = 4
_szBuf$ = -264						; size = 260
__$ArrayPad$ = -4					; size = 4
?GetProgressResult@QuestExtraItemEquipKo@@UAEAAVioHashString@@XZ PROC ; QuestExtraItemEquipKo::GetProgressResult, COMDAT
; _this$ = ecx

; 5324 : {

  00000	55		 push	 ebp
  00001	8b ec		 mov	 ebp, esp
  00003	81 ec 0c 01 00
	00		 sub	 esp, 268		; 0000010cH
  00009	a1 00 00 00 00	 mov	 eax, DWORD PTR ___security_cookie
  0000e	33 c5		 xor	 eax, ebp
  00010	89 45 fc	 mov	 DWORD PTR __$ArrayPad$[ebp], eax
  00013	56		 push	 esi
  00014	8b f1		 mov	 esi, ecx

; 5325 : 	QuestData &kQuestData = GetMyInfoQuestData();

  00016	8b 06		 mov	 eax, DWORD PTR [esi]
  00018	ff 50 28	 call	 DWORD PTR [eax+40]

; 5326 : 	char szBuf[MAX_PATH] = "";

  0001b	68 03 01 00 00	 push	 259			; 00000103H
  00020	89 85 f4 fe ff
	ff		 mov	 DWORD PTR _kQuestData$[ebp], eax
  00026	8d 85 f9 fe ff
	ff		 lea	 eax, DWORD PTR _szBuf$[ebp+1]
  0002c	6a 00		 push	 0
  0002e	50		 push	 eax
  0002f	c6 85 f8 fe ff
	ff 00		 mov	 BYTE PTR _szBuf$[ebp], 0
  00036	e8 00 00 00 00	 call	 _memset
  0003b	83 c4 0c	 add	 esp, 12			; 0000000cH

; 5327 : 	if( !m_szProgressResult.IsEmpty() )

  0003e	8d 8e b4 00 00
	00		 lea	 ecx, DWORD PTR [esi+180]
  00044	ff 15 00 00 00
	00		 call	 DWORD PTR __imp_?IsEmpty@ioHashString@@QBE_NXZ
  0004a	84 c0		 test	 al, al
  0004c	0f 85 8d 00 00
	00		 jne	 $LN1@GetProgres@36

; 5328 : 	{
; 5329 : 		if( !IsMeProgressQuest() )

  00052	8b 06		 mov	 eax, DWORD PTR [esi]
  00054	8b ce		 mov	 ecx, esi
  00056	ff 50 2c	 call	 DWORD PTR [eax+44]
  00059	84 c0		 test	 al, al
  0005b	75 34		 jne	 SHORT $LN2@GetProgres@36

; 5330 : 			SafeSprintf( szBuf, sizeof( szBuf ), STR(1) );

  0005d	6a 00		 push	 0
  0005f	6a 01		 push	 1
  00061	68 00 00 00 00	 push	 OFFSET ??_C@_00CNPNBAHC@?$AA@
  00066	68 00 00 00 00	 push	 OFFSET ??_C@_0CJ@KBBJCDDB@QuestExtraItemEquipKo?3?3GetProgre@
  0006b	ff 15 00 00 00
	00		 call	 DWORD PTR __imp_?GetSingleton@ioStringManager@@SAAAV1@XZ
  00071	8b c8		 mov	 ecx, eax
  00073	ff 15 00 00 00
	00		 call	 DWORD PTR __imp_?GetString@ioStringManager@@QAEPADPBD0HW4FileNamePrefix@1@@Z
  00079	50		 push	 eax
  0007a	8d 85 f8 fe ff
	ff		 lea	 eax, DWORD PTR _szBuf$[ebp]
  00080	68 04 01 00 00	 push	 260			; 00000104H
  00085	50		 push	 eax
  00086	ff 15 00 00 00
	00		 call	 DWORD PTR __imp_?SafeSprintf@@YAXPADHPBDZZ
  0008c	83 c4 0c	 add	 esp, 12			; 0000000cH

; 5331 : 		else

  0008f	eb 4e		 jmp	 SHORT $LN1@GetProgres@36
$LN2@GetProgres@36:
  00091	57		 push	 edi

; 5332 : 		{
; 5333 : 			SafeSprintf( szBuf, sizeof( szBuf ), STR(2), GetProgressPercentage( kQuestData.GetCurrentData(), GetProgressCount() ) );

  00092	8b 3e		 mov	 edi, DWORD PTR [esi]
  00094	8b ce		 mov	 ecx, esi
  00096	ff 57 0c	 call	 DWORD PTR [edi+12]
  00099	8b 8d f4 fe ff
	ff		 mov	 ecx, DWORD PTR _kQuestData$[ebp]
  0009f	50		 push	 eax
  000a0	e8 00 00 00 00	 call	 ?GetCurrentData@QuestData@@QAEKXZ ; QuestData::GetCurrentData
  000a5	50		 push	 eax
  000a6	8b ce		 mov	 ecx, esi
  000a8	ff 57 10	 call	 DWORD PTR [edi+16]
  000ab	50		 push	 eax
  000ac	6a 00		 push	 0
  000ae	6a 02		 push	 2
  000b0	68 00 00 00 00	 push	 OFFSET ??_C@_00CNPNBAHC@?$AA@
  000b5	68 00 00 00 00	 push	 OFFSET ??_C@_0CJ@KBBJCDDB@QuestExtraItemEquipKo?3?3GetProgre@
  000ba	ff 15 00 00 00
	00		 call	 DWORD PTR __imp_?GetSingleton@ioStringManager@@SAAAV1@XZ
  000c0	8b c8		 mov	 ecx, eax
  000c2	ff 15 00 00 00
	00		 call	 DWORD PTR __imp_?GetString@ioStringManager@@QAEPADPBD0HW4FileNamePrefix@1@@Z
  000c8	50		 push	 eax
  000c9	8d 85 f8 fe ff
	ff		 lea	 eax, DWORD PTR _szBuf$[ebp]
  000cf	68 04 01 00 00	 push	 260			; 00000104H
  000d4	50		 push	 eax
  000d5	ff 15 00 00 00
	00		 call	 DWORD PTR __imp_?SafeSprintf@@YAXPADHPBDH@Z
  000db	83 c4 10	 add	 esp, 16			; 00000010H
  000de	5f		 pop	 edi
$LN1@GetProgres@36:

; 5334 : 		}
; 5335 : 	}
; 5336 : 	m_szOutProgressResult = szBuf;

  000df	8d 85 f8 fe ff
	ff		 lea	 eax, DWORD PTR _szBuf$[ebp]
  000e5	50		 push	 eax
  000e6	8d 8e c4 00 00
	00		 lea	 ecx, DWORD PTR [esi+196]
  000ec	ff 15 00 00 00
	00		 call	 DWORD PTR __imp_??4ioHashString@@QAEAAV0@PBD@Z

; 5337 : 	return m_szOutProgressResult;
; 5338 : }

  000f2	8b 4d fc	 mov	 ecx, DWORD PTR __$ArrayPad$[ebp]
  000f5	8d 86 c4 00 00
	00		 lea	 eax, DWORD PTR [esi+196]
  000fb	33 cd		 xor	 ecx, ebp
  000fd	5e		 pop	 esi
  000fe	e8 00 00 00 00	 call	 @__security_check_cookie@4
  00103	c9		 leave
  00104	c3		 ret	 0
?GetProgressResult@QuestExtraItemEquipKo@@UAEAAVioHashString@@XZ ENDP ; QuestExtraItemEquipKo::GetProgressResult
_TEXT	ENDS
PUBLIC	??_C@_0DD@NBPAIIMG@QuestExtraItemEquipKo?3?3GetProgre@ ; `string'
PUBLIC	__$ArrayPad$
PUBLIC	?GetProgressResultOnlyNumber@QuestExtraItemEquipKo@@UAEAAVioHashString@@XZ ; QuestExtraItemEquipKo::GetProgressResultOnlyNumber
;	COMDAT ??_C@_0DD@NBPAIIMG@QuestExtraItemEquipKo?3?3GetProgre@
CONST	SEGMENT
??_C@_0DD@NBPAIIMG@QuestExtraItemEquipKo?3?3GetProgre@ DB 'QuestExtraItem'
	DB	'EquipKo::GetProgressResultOnlyNumber', 00H	; `string'
; Function compile flags: /Ogsp
CONST	ENDS
;	COMDAT ?GetProgressResultOnlyNumber@QuestExtraItemEquipKo@@UAEAAVioHashString@@XZ
_TEXT	SEGMENT
_kQuestData$ = -268					; size = 4
_szBuf$ = -264						; size = 260
__$ArrayPad$ = -4					; size = 4
?GetProgressResultOnlyNumber@QuestExtraItemEquipKo@@UAEAAVioHashString@@XZ PROC ; QuestExtraItemEquipKo::GetProgressResultOnlyNumber, COMDAT
; _this$ = ecx

; 5341 : {

  00000	55		 push	 ebp
  00001	8b ec		 mov	 ebp, esp
  00003	81 ec 0c 01 00
	00		 sub	 esp, 268		; 0000010cH
  00009	a1 00 00 00 00	 mov	 eax, DWORD PTR ___security_cookie
  0000e	33 c5		 xor	 eax, ebp
  00010	89 45 fc	 mov	 DWORD PTR __$ArrayPad$[ebp], eax
  00013	56		 push	 esi
  00014	8b f1		 mov	 esi, ecx

; 5342 : 	QuestData &kQuestData = GetMyInfoQuestData();

  00016	8b 06		 mov	 eax, DWORD PTR [esi]
  00018	ff 50 28	 call	 DWORD PTR [eax+40]

; 5343 : 	char szBuf[MAX_PATH] = "";

  0001b	68 03 01 00 00	 push	 259			; 00000103H
  00020	89 85 f4 fe ff
	ff		 mov	 DWORD PTR _kQuestData$[ebp], eax
  00026	8d 85 f9 fe ff
	ff		 lea	 eax, DWORD PTR _szBuf$[ebp+1]
  0002c	6a 00		 push	 0
  0002e	50		 push	 eax
  0002f	c6 85 f8 fe ff
	ff 00		 mov	 BYTE PTR _szBuf$[ebp], 0
  00036	e8 00 00 00 00	 call	 _memset
  0003b	83 c4 0c	 add	 esp, 12			; 0000000cH

; 5344 : 	if( !m_szProgressResult.IsEmpty() )

  0003e	8d 8e b4 00 00
	00		 lea	 ecx, DWORD PTR [esi+180]
  00044	ff 15 00 00 00
	00		 call	 DWORD PTR __imp_?IsEmpty@ioHashString@@QBE_NXZ
  0004a	84 c0		 test	 al, al
  0004c	75 4e		 jne	 SHORT $LN1@GetProgres@37

; 5345 : 	{
; 5346 : 		SafeSprintf( szBuf, sizeof( szBuf ), STR(1), GetProgressPercentage( kQuestData.GetCurrentData(), GetProgressCount() ) );

  0004e	57		 push	 edi
  0004f	8b 3e		 mov	 edi, DWORD PTR [esi]
  00051	8b ce		 mov	 ecx, esi
  00053	ff 57 0c	 call	 DWORD PTR [edi+12]
  00056	8b 8d f4 fe ff
	ff		 mov	 ecx, DWORD PTR _kQuestData$[ebp]
  0005c	50		 push	 eax
  0005d	e8 00 00 00 00	 call	 ?GetCurrentData@QuestData@@QAEKXZ ; QuestData::GetCurrentData
  00062	50		 push	 eax
  00063	8b ce		 mov	 ecx, esi
  00065	ff 57 10	 call	 DWORD PTR [edi+16]
  00068	50		 push	 eax
  00069	6a 00		 push	 0
  0006b	6a 01		 push	 1
  0006d	68 00 00 00 00	 push	 OFFSET ??_C@_00CNPNBAHC@?$AA@
  00072	68 00 00 00 00	 push	 OFFSET ??_C@_0DD@NBPAIIMG@QuestExtraItemEquipKo?3?3GetProgre@
  00077	ff 15 00 00 00
	00		 call	 DWORD PTR __imp_?GetSingleton@ioStringManager@@SAAAV1@XZ
  0007d	8b c8		 mov	 ecx, eax
  0007f	ff 15 00 00 00
	00		 call	 DWORD PTR __imp_?GetString@ioStringManager@@QAEPADPBD0HW4FileNamePrefix@1@@Z
  00085	50		 push	 eax
  00086	8d 85 f8 fe ff
	ff		 lea	 eax, DWORD PTR _szBuf$[ebp]
  0008c	68 04 01 00 00	 push	 260			; 00000104H
  00091	50		 push	 eax
  00092	ff 15 00 00 00
	00		 call	 DWORD PTR __imp_?SafeSprintf@@YAXPADHPBDH@Z
  00098	83 c4 10	 add	 esp, 16			; 00000010H
  0009b	5f		 pop	 edi
$LN1@GetProgres@37:

; 5347 : 	}
; 5348 : 	m_szOutProgressResult = szBuf;

  0009c	8d 85 f8 fe ff
	ff		 lea	 eax, DWORD PTR _szBuf$[ebp]
  000a2	50		 push	 eax
  000a3	8d 8e c4 00 00
	00		 lea	 ecx, DWORD PTR [esi+196]
  000a9	ff 15 00 00 00
	00		 call	 DWORD PTR __imp_??4ioHashString@@QAEAAV0@PBD@Z

; 5349 : 	return m_szOutProgressResult;
; 5350 : }

  000af	8b 4d fc	 mov	 ecx, DWORD PTR __$ArrayPad$[ebp]
  000b2	8d 86 c4 00 00
	00		 lea	 eax, DWORD PTR [esi+196]
  000b8	33 cd		 xor	 ecx, ebp
  000ba	5e		 pop	 esi
  000bb	e8 00 00 00 00	 call	 @__security_check_cookie@4
  000c0	c9		 leave
  000c1	c3		 ret	 0
?GetProgressResultOnlyNumber@QuestExtraItemEquipKo@@UAEAAVioHashString@@XZ ENDP ; QuestExtraItemEquipKo::GetProgressResultOnlyNumber
_TEXT	ENDS
PUBLIC	?GetProgressResultOnlyText@QuestExtraItemEquipKo@@UAEAAVioHashString@@XZ ; QuestExtraItemEquipKo::GetProgressResultOnlyText
; Function compile flags: /Ogsp
;	COMDAT ?GetProgressResultOnlyText@QuestExtraItemEquipKo@@UAEAAVioHashString@@XZ
_TEXT	SEGMENT
?GetProgressResultOnlyText@QuestExtraItemEquipKo@@UAEAAVioHashString@@XZ PROC ; QuestExtraItemEquipKo::GetProgressResultOnlyText, COMDAT
; _this$ = ecx

; 5353 : {

  00000	56		 push	 esi

; 5354 : 	m_szOutProgressResult = "";

  00001	8d b1 c4 00 00
	00		 lea	 esi, DWORD PTR [ecx+196]
  00007	68 00 00 00 00	 push	 OFFSET ??_C@_00CNPNBAHC@?$AA@
  0000c	8b ce		 mov	 ecx, esi
  0000e	ff 15 00 00 00
	00		 call	 DWORD PTR __imp_??4ioHashString@@QAEAAV0@PBD@Z

; 5355 : 	return m_szOutProgressResult;

  00014	8b c6		 mov	 eax, esi
  00016	5e		 pop	 esi

; 5356 : }

  00017	c3		 ret	 0
?GetProgressResultOnlyText@QuestExtraItemEquipKo@@UAEAAVioHashString@@XZ ENDP ; QuestExtraItemEquipKo::GetProgressResultOnlyText
_TEXT	ENDS
PUBLIC	?GetProgressGaugeRate@QuestExtraItemEquipKo@@UAEMXZ ; QuestExtraItemEquipKo::GetProgressGaugeRate
; Function compile flags: /Ogsp
;	COMDAT ?GetProgressGaugeRate@QuestExtraItemEquipKo@@UAEMXZ
_TEXT	SEGMENT
?GetProgressGaugeRate@QuestExtraItemEquipKo@@UAEMXZ PROC ; QuestExtraItemEquipKo::GetProgressGaugeRate, COMDAT
; _this$ = ecx

; 5360 : 	return QuestParent::GetProgressGaugeRate();

  00000	e9 00 00 00 00	 jmp	 ?GetProgressGaugeRate@QuestParent@@UAEMXZ ; QuestParent::GetProgressGaugeRate
?GetProgressGaugeRate@QuestExtraItemEquipKo@@UAEMXZ ENDP ; QuestExtraItemEquipKo::GetProgressGaugeRate
_TEXT	ENDS
PUBLIC	??_C@_0CF@DMDGEDHA@QuestGuildTeamWin?3?3GetProgressRe@ ; `string'
PUBLIC	__$ArrayPad$
PUBLIC	?GetProgressResult@QuestGuildTeamWin@@UAEAAVioHashString@@XZ ; QuestGuildTeamWin::GetProgressResult
;	COMDAT ??_C@_0CF@DMDGEDHA@QuestGuildTeamWin?3?3GetProgressRe@
CONST	SEGMENT
??_C@_0CF@DMDGEDHA@QuestGuildTeamWin?3?3GetProgressRe@ DB 'QuestGuildTeam'
	DB	'Win::GetProgressResult', 00H		; `string'
; Function compile flags: /Ogsp
CONST	ENDS
;	COMDAT ?GetProgressResult@QuestGuildTeamWin@@UAEAAVioHashString@@XZ
_TEXT	SEGMENT
_kQuestData$ = -268					; size = 4
_szBuf$ = -264						; size = 260
__$ArrayPad$ = -4					; size = 4
?GetProgressResult@QuestGuildTeamWin@@UAEAAVioHashString@@XZ PROC ; QuestGuildTeamWin::GetProgressResult, COMDAT
; _this$ = ecx

; 5696 : {

  00000	55		 push	 ebp
  00001	8b ec		 mov	 ebp, esp
  00003	81 ec 0c 01 00
	00		 sub	 esp, 268		; 0000010cH
  00009	a1 00 00 00 00	 mov	 eax, DWORD PTR ___security_cookie
  0000e	33 c5		 xor	 eax, ebp
  00010	89 45 fc	 mov	 DWORD PTR __$ArrayPad$[ebp], eax
  00013	56		 push	 esi
  00014	8b f1		 mov	 esi, ecx

; 5697 : 	QuestData &kQuestData = GetMyInfoQuestData();

  00016	8b 06		 mov	 eax, DWORD PTR [esi]
  00018	ff 50 28	 call	 DWORD PTR [eax+40]

; 5698 : 	char szBuf[MAX_PATH] = "";

  0001b	68 03 01 00 00	 push	 259			; 00000103H
  00020	89 85 f4 fe ff
	ff		 mov	 DWORD PTR _kQuestData$[ebp], eax
  00026	8d 85 f9 fe ff
	ff		 lea	 eax, DWORD PTR _szBuf$[ebp+1]
  0002c	6a 00		 push	 0
  0002e	50		 push	 eax
  0002f	c6 85 f8 fe ff
	ff 00		 mov	 BYTE PTR _szBuf$[ebp], 0
  00036	e8 00 00 00 00	 call	 _memset
  0003b	83 c4 0c	 add	 esp, 12			; 0000000cH

; 5699 : 	if( !m_szProgressResult.IsEmpty() )

  0003e	8d 8e b4 00 00
	00		 lea	 ecx, DWORD PTR [esi+180]
  00044	ff 15 00 00 00
	00		 call	 DWORD PTR __imp_?IsEmpty@ioHashString@@QBE_NXZ
  0004a	84 c0		 test	 al, al
  0004c	0f 85 8d 00 00
	00		 jne	 $LN1@GetProgres@38

; 5700 : 	{
; 5701 : 		if( !IsMeProgressQuest() )

  00052	8b 06		 mov	 eax, DWORD PTR [esi]
  00054	8b ce		 mov	 ecx, esi
  00056	ff 50 2c	 call	 DWORD PTR [eax+44]
  00059	84 c0		 test	 al, al
  0005b	75 34		 jne	 SHORT $LN2@GetProgres@38

; 5702 : 			SafeSprintf( szBuf, sizeof( szBuf ), STR(1) );

  0005d	6a 00		 push	 0
  0005f	6a 01		 push	 1
  00061	68 00 00 00 00	 push	 OFFSET ??_C@_00CNPNBAHC@?$AA@
  00066	68 00 00 00 00	 push	 OFFSET ??_C@_0CF@DMDGEDHA@QuestGuildTeamWin?3?3GetProgressRe@
  0006b	ff 15 00 00 00
	00		 call	 DWORD PTR __imp_?GetSingleton@ioStringManager@@SAAAV1@XZ
  00071	8b c8		 mov	 ecx, eax
  00073	ff 15 00 00 00
	00		 call	 DWORD PTR __imp_?GetString@ioStringManager@@QAEPADPBD0HW4FileNamePrefix@1@@Z
  00079	50		 push	 eax
  0007a	8d 85 f8 fe ff
	ff		 lea	 eax, DWORD PTR _szBuf$[ebp]
  00080	68 04 01 00 00	 push	 260			; 00000104H
  00085	50		 push	 eax
  00086	ff 15 00 00 00
	00		 call	 DWORD PTR __imp_?SafeSprintf@@YAXPADHPBDZZ
  0008c	83 c4 0c	 add	 esp, 12			; 0000000cH

; 5703 : 		else

  0008f	eb 4e		 jmp	 SHORT $LN1@GetProgres@38
$LN2@GetProgres@38:
  00091	57		 push	 edi

; 5704 : 			SafeSprintf( szBuf, sizeof( szBuf ), STR(2), GetProgressPercentage( kQuestData.GetCurrentData(), GetProgressCount() ) );

  00092	8b 3e		 mov	 edi, DWORD PTR [esi]
  00094	8b ce		 mov	 ecx, esi
  00096	ff 57 0c	 call	 DWORD PTR [edi+12]
  00099	8b 8d f4 fe ff
	ff		 mov	 ecx, DWORD PTR _kQuestData$[ebp]
  0009f	50		 push	 eax
  000a0	e8 00 00 00 00	 call	 ?GetCurrentData@QuestData@@QAEKXZ ; QuestData::GetCurrentData
  000a5	50		 push	 eax
  000a6	8b ce		 mov	 ecx, esi
  000a8	ff 57 10	 call	 DWORD PTR [edi+16]
  000ab	50		 push	 eax
  000ac	6a 00		 push	 0
  000ae	6a 02		 push	 2
  000b0	68 00 00 00 00	 push	 OFFSET ??_C@_00CNPNBAHC@?$AA@
  000b5	68 00 00 00 00	 push	 OFFSET ??_C@_0CF@DMDGEDHA@QuestGuildTeamWin?3?3GetProgressRe@
  000ba	ff 15 00 00 00
	00		 call	 DWORD PTR __imp_?GetSingleton@ioStringManager@@SAAAV1@XZ
  000c0	8b c8		 mov	 ecx, eax
  000c2	ff 15 00 00 00
	00		 call	 DWORD PTR __imp_?GetString@ioStringManager@@QAEPADPBD0HW4FileNamePrefix@1@@Z
  000c8	50		 push	 eax
  000c9	8d 85 f8 fe ff
	ff		 lea	 eax, DWORD PTR _szBuf$[ebp]
  000cf	68 04 01 00 00	 push	 260			; 00000104H
  000d4	50		 push	 eax
  000d5	ff 15 00 00 00
	00		 call	 DWORD PTR __imp_?SafeSprintf@@YAXPADHPBDH@Z
  000db	83 c4 10	 add	 esp, 16			; 00000010H
  000de	5f		 pop	 edi
$LN1@GetProgres@38:

; 5705 : 	}
; 5706 : 	m_szOutProgressResult = szBuf;

  000df	8d 85 f8 fe ff
	ff		 lea	 eax, DWORD PTR _szBuf$[ebp]
  000e5	50		 push	 eax
  000e6	8d 8e c4 00 00
	00		 lea	 ecx, DWORD PTR [esi+196]
  000ec	ff 15 00 00 00
	00		 call	 DWORD PTR __imp_??4ioHashString@@QAEAAV0@PBD@Z

; 5707 : 	return m_szOutProgressResult;
; 5708 : }

  000f2	8b 4d fc	 mov	 ecx, DWORD PTR __$ArrayPad$[ebp]
  000f5	8d 86 c4 00 00
	00		 lea	 eax, DWORD PTR [esi+196]
  000fb	33 cd		 xor	 ecx, ebp
  000fd	5e		 pop	 esi
  000fe	e8 00 00 00 00	 call	 @__security_check_cookie@4
  00103	c9		 leave
  00104	c3		 ret	 0
?GetProgressResult@QuestGuildTeamWin@@UAEAAVioHashString@@XZ ENDP ; QuestGuildTeamWin::GetProgressResult
_TEXT	ENDS
PUBLIC	??_C@_0CP@FCKCACPK@QuestGuildTeamWin?3?3GetProgressRe@ ; `string'
PUBLIC	__$ArrayPad$
PUBLIC	?GetProgressResultOnlyNumber@QuestGuildTeamWin@@UAEAAVioHashString@@XZ ; QuestGuildTeamWin::GetProgressResultOnlyNumber
;	COMDAT ??_C@_0CP@FCKCACPK@QuestGuildTeamWin?3?3GetProgressRe@
CONST	SEGMENT
??_C@_0CP@FCKCACPK@QuestGuildTeamWin?3?3GetProgressRe@ DB 'QuestGuildTeam'
	DB	'Win::GetProgressResultOnlyNumber', 00H	; `string'
; Function compile flags: /Ogsp
CONST	ENDS
;	COMDAT ?GetProgressResultOnlyNumber@QuestGuildTeamWin@@UAEAAVioHashString@@XZ
_TEXT	SEGMENT
_kQuestData$ = -268					; size = 4
_szBuf$ = -264						; size = 260
__$ArrayPad$ = -4					; size = 4
?GetProgressResultOnlyNumber@QuestGuildTeamWin@@UAEAAVioHashString@@XZ PROC ; QuestGuildTeamWin::GetProgressResultOnlyNumber, COMDAT
; _this$ = ecx

