; Listing generated by Microsoft (R) Optimizing Compiler Version 16.00.30319.01 

	TITLE	D:\Lost Saga For Developer\Youtube\Tutorial\Source\src\LSClient\GUI\QuickLobbyWnd.cpp
	.686P
	.XMM
	include listing.inc
	.model	flat

INCLUDELIB MSVCRT
INCLUDELIB OLDNAMES

PUBLIC	??_7QuickLobbyWndBase@@6B@			; QuickLobbyWndBase::`vftable'
PUBLIC	??0QuickLobbyWndBase@@QAE@XZ			; QuickLobbyWndBase::QuickLobbyWndBase
PUBLIC	??_R4QuickLobbyWndBase@@6B@			; QuickLobbyWndBase::`RTTI Complete Object Locator'
PUBLIC	??_R0?AVQuickLobbyWndBase@@@8			; QuickLobbyWndBase `RTTI Type Descriptor'
PUBLIC	??_R3QuickLobbyWndBase@@8			; QuickLobbyWndBase::`RTTI Class Hierarchy Descriptor'
PUBLIC	??_R2QuickLobbyWndBase@@8			; QuickLobbyWndBase::`RTTI Base Class Array'
PUBLIC	??_R1A@?0A@EA@QuickLobbyWndBase@@8		; QuickLobbyWndBase::`RTTI Base Class Descriptor at (0,-1,0,64)'
PUBLIC	??_R1A@?0A@EA@ioMovingWndEX@@8			; ioMovingWndEX::`RTTI Base Class Descriptor at (0,-1,0,64)'
PUBLIC	??_R0?AVioMovingWndEX@@@8			; ioMovingWndEX `RTTI Type Descriptor'
PUBLIC	??_R3ioMovingWndEX@@8				; ioMovingWndEX::`RTTI Class Hierarchy Descriptor'
PUBLIC	??_R2ioMovingWndEX@@8				; ioMovingWndEX::`RTTI Base Class Array'
PUBLIC	??_R1A@?0A@EA@ioWndEX@@8			; ioWndEX::`RTTI Base Class Descriptor at (0,-1,0,64)'
PUBLIC	??_R0?AVioWndEX@@@8				; ioWndEX `RTTI Type Descriptor'
PUBLIC	??_R3ioWndEX@@8					; ioWndEX::`RTTI Class Hierarchy Descriptor'
PUBLIC	??_R2ioWndEX@@8					; ioWndEX::`RTTI Base Class Array'
PUBLIC	??_R1A@?0A@EA@ioWnd@@8				; ioWnd::`RTTI Base Class Descriptor at (0,-1,0,64)'
PUBLIC	??_R0?AVioWnd@@@8				; ioWnd `RTTI Type Descriptor'
PUBLIC	??_R3ioWnd@@8					; ioWnd::`RTTI Class Hierarchy Descriptor'
PUBLIC	??_R2ioWnd@@8					; ioWnd::`RTTI Base Class Array'
PUBLIC	?iwm_create@QuickLobbyWndBase@@UAEXXZ		; QuickLobbyWndBase::iwm_create
PUBLIC	?iwm_destroy@QuickLobbyWndBase@@UAEXXZ		; QuickLobbyWndBase::iwm_destroy
PUBLIC	?OnExitButtonDown@QuickLobbyWndBase@@UAEXPAVioWndEX@@AAVioWndEXMouseEvent@@@Z ; QuickLobbyWndBase::OnExitButtonDown
EXTRN	__imp_??0ioMovingWndEX@@QAE@XZ:PROC
EXTRN	??_7type_info@@6B@:QWORD			; type_info::`vftable'
EXTRN	?AddRenderFrame@ioWnd@@UAEXABVioHashString@@PAVioUIRenderFrame@@@Z:PROC ; ioWnd::AddRenderFrame
EXTRN	?AddRenderImage@ioWnd@@UAEXABVioHashString@@PAVioUIRenderImage@@@Z:PROC ; ioWnd::AddRenderImage
EXTRN	?AddTooltipHelp@ioWnd@@UAEXABVioHashString@@00@Z:PROC ; ioWnd::AddTooltipHelp
EXTRN	?ParseExtraInfo@ioWndEX@@UAEXAAVioXMLElement@@@Z:PROC ; ioWndEX::ParseExtraInfo
EXTRN	?AddNamedRenderImage@ioWnd@@UAEXABVioHashString@@PAVioUIRenderImage@@@Z:PROC ; ioWnd::AddNamedRenderImage
EXTRN	?RemoveNamedRenderImage@ioWnd@@UAEXABVioHashString@@@Z:PROC ; ioWnd::RemoveNamedRenderImage
EXTRN	?GetNamedRenderImage@ioWnd@@UBEPAVioUIRenderImage@@ABVioHashString@@@Z:PROC ; ioWnd::GetNamedRenderImage
EXTRN	?SetWindowAlpha@ioWnd@@UAEXH@Z:PROC		; ioWnd::SetWindowAlpha
EXTRN	?SetActive@ioWnd@@UAEXXZ:PROC			; ioWnd::SetActive
EXTRN	?SetInActive@ioWnd@@UAEXXZ:PROC			; ioWnd::SetInActive
EXTRN	?ClearElementImageList@ioWnd@@UAEXXZ:PROC	; ioWnd::ClearElementImageList
EXTRN	?SetSize@ioWnd@@UAEXHH@Z:PROC			; ioWnd::SetSize
EXTRN	?SetPositionToDefault@ioMovingWndEX@@UAEXHH_N0@Z:PROC ; ioMovingWndEX::SetPositionToDefault
EXTRN	?IsNeedProcess@ioWnd@@UBE_NXZ:PROC		; ioWnd::IsNeedProcess
EXTRN	?IsCanMouseReaction@ioWnd@@UBE_NXZ:PROC		; ioWnd::IsCanMouseReaction
EXTRN	?AddChild@ioWnd@@UAEXPAV1@@Z:PROC		; ioWnd::AddChild
EXTRN	?DeleteChild@ioWnd@@UAEXK@Z:PROC		; ioWnd::DeleteChild
EXTRN	?DeleteAllChild@ioWnd@@UAEXXZ:PROC		; ioWnd::DeleteAllChild
EXTRN	?OnRenderShowAndHide@ioWnd@@MAE_NXZ:PROC	; ioWnd::OnRenderShowAndHide
EXTRN	?OnRenderShowAndHideByDefault@ioWnd@@MAE_NK@Z:PROC ; ioWnd::OnRenderShowAndHideByDefault
EXTRN	?OnRenderShowAndHideByTop@ioWnd@@MAE_NK@Z:PROC	; ioWnd::OnRenderShowAndHideByTop
EXTRN	?OnRenderShowAndHideByDown@ioWnd@@MAE_NK@Z:PROC	; ioWnd::OnRenderShowAndHideByDown
EXTRN	?OnRender@ioWnd@@MAEXXZ:PROC			; ioWnd::OnRender
EXTRN	?OnRenderAfterChild@ioWnd@@MAEXXZ:PROC		; ioWnd::OnRenderAfterChild
EXTRN	?OnProcess@ioWnd@@MAEXM@Z:PROC			; ioWnd::OnProcess
EXTRN	?OnMouseProcess@ioMovingWndEX@@MAEXABVioMouse@@@Z:PROC ; ioMovingWndEX::OnMouseProcess
EXTRN	?CheckFrameReSize@ioWnd@@MAEXHHHH@Z:PROC	; ioWnd::CheckFrameReSize
EXTRN	?RenderImageList@ioWnd@@MAEXHHW4UIRenderType@@@Z:PROC ; ioWnd::RenderImageList
EXTRN	?iwm_lbuttondown@ioMovingWndEX@@UAEXABVioMouse@@@Z:PROC ; ioMovingWndEX::iwm_lbuttondown
EXTRN	?iwm_lbuttonup@ioMovingWndEX@@UAEXABVioMouse@@@Z:PROC ; ioMovingWndEX::iwm_lbuttonup
EXTRN	?iwm_lbuttonDBLCLK@ioWndEX@@UAEXABVioMouse@@@Z:PROC ; ioWndEX::iwm_lbuttonDBLCLK
EXTRN	?iwm_rbuttondown@ioWndEX@@UAEXABVioMouse@@@Z:PROC ; ioWndEX::iwm_rbuttondown
EXTRN	?iwm_rbuttonup@ioWndEX@@UAEXABVioMouse@@@Z:PROC	; ioWndEX::iwm_rbuttonup
EXTRN	?iwm_command@ioWnd@@UAEXPAV1@HK@Z:PROC		; ioWnd::iwm_command
EXTRN	?iwm_mouseover@ioWndEX@@UAEXABVioMouse@@@Z:PROC	; ioWndEX::iwm_mouseover
EXTRN	?iwm_mousemove@ioWndEX@@UAEXABVioMouse@@@Z:PROC	; ioWndEX::iwm_mousemove
EXTRN	?iwm_mouseleave@ioWndEX@@UAEXABVioMouse@@@Z:PROC ; ioWndEX::iwm_mouseleave
EXTRN	?iwm_vscroll@ioWnd@@UAEXKH@Z:PROC		; ioWnd::iwm_vscroll
EXTRN	?iwm_wheel@ioWndEX@@UAEXH@Z:PROC		; ioWndEX::iwm_wheel
EXTRN	?iwm_show@ioWndEX@@UAEXXZ:PROC			; ioWndEX::iwm_show
EXTRN	?iwm_hide@ioWndEX@@UAEXXZ:PROC			; ioWndEX::iwm_hide
EXTRN	?iwm_esc@ioWndEX@@UAE_NXZ:PROC			; ioWndEX::iwm_esc
EXTRN	?iwm_spacebar@ioWndEX@@UAE_NXZ:PROC		; ioWndEX::iwm_spacebar
EXTRN	?iwm_gototop@ioWnd@@UAEXXZ:PROC			; ioWnd::iwm_gototop
EXTRN	?iwm_dragenter@ioWnd@@UAE?AW4IWDropEffect@@PAVioDragItem@@ABVioMouse@@@Z:PROC ; ioWnd::iwm_dragenter
EXTRN	?iwm_dragover@ioWnd@@UAE?AW4IWDropEffect@@PAVioDragItem@@ABVioMouse@@@Z:PROC ; ioWnd::iwm_dragover
EXTRN	?iwm_dragleave@ioWnd@@UAEXXZ:PROC		; ioWnd::iwm_dragleave
EXTRN	?iwm_dropitem@ioWnd@@UAE_NPAVioDragItem@@ABVioMouse@@PAV1@@Z:PROC ; ioWnd::iwm_dropitem
EXTRN	?iwm_dropdone@ioWnd@@UAEXPAVioDragItem@@PAV1@_N@Z:PROC ; ioWnd::iwm_dropdone
EXTRN	?IsEXType@ioWndEX@@UBE_NXZ:PROC			; ioWndEX::IsEXType
EXTRN	?GetWndType@ioWnd@@UBEKXZ:PROC			; ioWnd::GetWndType
EXTRN	?RenderWnd@ioWnd@@UAEXXZ:PROC			; ioWnd::RenderWnd
EXTRN	?SetIDEX@ioWnd@@UAEXAAK_N@Z:PROC		; ioWnd::SetIDEX
EXTRN	?ParseXML@ioWnd@@UAEXAAVioXMLElement@@@Z:PROC	; ioWnd::ParseXML
EXTRN	?GetHeaderFileName@ioWndEX@@UAEPBDXZ:PROC	; ioWndEX::GetHeaderFileName
EXTRN	?GetTemplateName@ioWndEX@@UAEPBDXZ:PROC		; ioWndEX::GetTemplateName
EXTRN	?GetDefClassName@ioWndEX@@UBEPBDXZ:PROC		; ioWndEX::GetDefClassName
EXTRN	?_Clone@ioWndEX@@UAEPAVioWnd@@XZ:PROC		; ioWndEX::_Clone
EXTRN	?Copy@ioWnd@@UAEXPAV1@@Z:PROC			; ioWnd::Copy
EXTRN	?Save@ioWnd@@UAE_NAAVioXMLElement@@@Z:PROC	; ioWnd::Save
EXTRN	?SetSaveData@ioWndEX@@UAEXAAVioXMLElement@@@Z:PROC ; ioWndEX::SetSaveData
EXTRN	?SetPosX@ioWnd@@UAEXH@Z:PROC			; ioWnd::SetPosX
EXTRN	?SetPosY@ioWnd@@UAEXH@Z:PROC			; ioWnd::SetPosY
EXTRN	?SetWidth@ioWnd@@UAEXH@Z:PROC			; ioWnd::SetWidth
EXTRN	?SetHeight@ioWnd@@UAEXH@Z:PROC			; ioWnd::SetHeight
EXTRN	?GetNumFixedRenderFrame@ioWnd@@UBEHXZ:PROC	; ioWnd::GetNumFixedRenderFrame
EXTRN	?GetFixedRenderFrameType@ioWnd@@UAEPBDH@Z:PROC	; ioWnd::GetFixedRenderFrameType
EXTRN	?GetRenderFrame@ioWnd@@UAEPAPAVioUIRenderElement@@PBD@Z:PROC ; ioWnd::GetRenderFrame
EXTRN	?GetNumFixedRenderImage@ioWnd@@UBEHXZ:PROC	; ioWnd::GetNumFixedRenderImage
EXTRN	?GetFixedRenderImageType@ioWnd@@UAEPBDH@Z:PROC	; ioWnd::GetFixedRenderImageType
EXTRN	?GetRenderImage@ioWnd@@UAEPAPAVioUIRenderElement@@PBD@Z:PROC ; ioWnd::GetRenderImage
EXTRN	?AddEffect@ioWnd@@UAEXABVioHashString@@PAVioUI3DEffectRender@@@Z:PROC ; ioWnd::AddEffect
EXTRN	?GetEffect@ioWnd@@UAEPAVioUI3DEffectRender@@VioHashString@@@Z:PROC ; ioWnd::GetEffect
EXTRN	??_EQuickLobbyWndBase@@UAEPAXI@Z:PROC		; QuickLobbyWndBase::`vector deleting destructor'
EXTRN	?_ParseExtraInfo@ioWndEX@@UAEXAAVioXMLElement@@@Z:PROC ; ioWndEX::_ParseExtraInfo
EXTRN	?_SetSaveData@ioWndEX@@UAEXAAVioXMLElement@@@Z:PROC ; ioWndEX::_SetSaveData
;	COMDAT ??_R2ioWnd@@8
; File d:\lost saga for developer\youtube\tutorial\source\src\lsclient\gui\quicklobbywndbase.h
rdata$r	SEGMENT
??_R2ioWnd@@8 DD FLAT:??_R1A@?0A@EA@ioWnd@@8		; ioWnd::`RTTI Base Class Array'
rdata$r	ENDS
;	COMDAT ??_R3ioWnd@@8
rdata$r	SEGMENT
??_R3ioWnd@@8 DD 00H					; ioWnd::`RTTI Class Hierarchy Descriptor'
	DD	00H
	DD	01H
	DD	FLAT:??_R2ioWnd@@8
rdata$r	ENDS
;	COMDAT ??_R0?AVioWnd@@@8
_DATA	SEGMENT
??_R0?AVioWnd@@@8 DD FLAT:??_7type_info@@6B@		; ioWnd `RTTI Type Descriptor'
	DD	00H
	DB	'.?AVioWnd@@', 00H
_DATA	ENDS
;	COMDAT ??_R1A@?0A@EA@ioWnd@@8
rdata$r	SEGMENT
??_R1A@?0A@EA@ioWnd@@8 DD FLAT:??_R0?AVioWnd@@@8	; ioWnd::`RTTI Base Class Descriptor at (0,-1,0,64)'
	DD	00H
	DD	00H
	DD	0ffffffffH
	DD	00H
	DD	040H
	DD	FLAT:??_R3ioWnd@@8
rdata$r	ENDS
;	COMDAT ??_R2ioWndEX@@8
rdata$r	SEGMENT
??_R2ioWndEX@@8 DD FLAT:??_R1A@?0A@EA@ioWndEX@@8	; ioWndEX::`RTTI Base Class Array'
	DD	FLAT:??_R1A@?0A@EA@ioWnd@@8
rdata$r	ENDS
;	COMDAT ??_R3ioWndEX@@8
rdata$r	SEGMENT
??_R3ioWndEX@@8 DD 00H					; ioWndEX::`RTTI Class Hierarchy Descriptor'
	DD	00H
	DD	02H
	DD	FLAT:??_R2ioWndEX@@8
rdata$r	ENDS
;	COMDAT ??_R0?AVioWndEX@@@8
_DATA	SEGMENT
??_R0?AVioWndEX@@@8 DD FLAT:??_7type_info@@6B@		; ioWndEX `RTTI Type Descriptor'
	DD	00H
	DB	'.?AVioWndEX@@', 00H
_DATA	ENDS
;	COMDAT ??_R1A@?0A@EA@ioWndEX@@8
rdata$r	SEGMENT
??_R1A@?0A@EA@ioWndEX@@8 DD FLAT:??_R0?AVioWndEX@@@8	; ioWndEX::`RTTI Base Class Descriptor at (0,-1,0,64)'
	DD	01H
	DD	00H
	DD	0ffffffffH
	DD	00H
	DD	040H
	DD	FLAT:??_R3ioWndEX@@8
rdata$r	ENDS
;	COMDAT ??_R2ioMovingWndEX@@8
rdata$r	SEGMENT
??_R2ioMovingWndEX@@8 DD FLAT:??_R1A@?0A@EA@ioMovingWndEX@@8 ; ioMovingWndEX::`RTTI Base Class Array'
	DD	FLAT:??_R1A@?0A@EA@ioWndEX@@8
	DD	FLAT:??_R1A@?0A@EA@ioWnd@@8
rdata$r	ENDS
;	COMDAT ??_R3ioMovingWndEX@@8
rdata$r	SEGMENT
??_R3ioMovingWndEX@@8 DD 00H				; ioMovingWndEX::`RTTI Class Hierarchy Descriptor'
	DD	00H
	DD	03H
	DD	FLAT:??_R2ioMovingWndEX@@8
rdata$r	ENDS
;	COMDAT ??_R0?AVioMovingWndEX@@@8
_DATA	SEGMENT
??_R0?AVioMovingWndEX@@@8 DD FLAT:??_7type_info@@6B@	; ioMovingWndEX `RTTI Type Descriptor'
	DD	00H
	DB	'.?AVioMovingWndEX@@', 00H
_DATA	ENDS
;	COMDAT ??_R1A@?0A@EA@ioMovingWndEX@@8
rdata$r	SEGMENT
??_R1A@?0A@EA@ioMovingWndEX@@8 DD FLAT:??_R0?AVioMovingWndEX@@@8 ; ioMovingWndEX::`RTTI Base Class Descriptor at (0,-1,0,64)'
	DD	02H
	DD	00H
	DD	0ffffffffH
	DD	00H
	DD	040H
	DD	FLAT:??_R3ioMovingWndEX@@8
rdata$r	ENDS
;	COMDAT ??_R1A@?0A@EA@QuickLobbyWndBase@@8
rdata$r	SEGMENT
??_R1A@?0A@EA@QuickLobbyWndBase@@8 DD FLAT:??_R0?AVQuickLobbyWndBase@@@8 ; QuickLobbyWndBase::`RTTI Base Class Descriptor at (0,-1,0,64)'
	DD	03H
	DD	00H
	DD	0ffffffffH
	DD	00H
	DD	040H
	DD	FLAT:??_R3QuickLobbyWndBase@@8
rdata$r	ENDS
;	COMDAT ??_R2QuickLobbyWndBase@@8
rdata$r	SEGMENT
??_R2QuickLobbyWndBase@@8 DD FLAT:??_R1A@?0A@EA@QuickLobbyWndBase@@8 ; QuickLobbyWndBase::`RTTI Base Class Array'
	DD	FLAT:??_R1A@?0A@EA@ioMovingWndEX@@8
	DD	FLAT:??_R1A@?0A@EA@ioWndEX@@8
	DD	FLAT:??_R1A@?0A@EA@ioWnd@@8
rdata$r	ENDS
;	COMDAT ??_R3QuickLobbyWndBase@@8
rdata$r	SEGMENT
??_R3QuickLobbyWndBase@@8 DD 00H			; QuickLobbyWndBase::`RTTI Class Hierarchy Descriptor'
	DD	00H
	DD	04H
	DD	FLAT:??_R2QuickLobbyWndBase@@8
rdata$r	ENDS
;	COMDAT ??_R0?AVQuickLobbyWndBase@@@8
_DATA	SEGMENT
??_R0?AVQuickLobbyWndBase@@@8 DD FLAT:??_7type_info@@6B@ ; QuickLobbyWndBase `RTTI Type Descriptor'
	DD	00H
	DB	'.?AVQuickLobbyWndBase@@', 00H
_DATA	ENDS
;	COMDAT ??_R4QuickLobbyWndBase@@6B@
rdata$r	SEGMENT
??_R4QuickLobbyWndBase@@6B@ DD 00H			; QuickLobbyWndBase::`RTTI Complete Object Locator'
	DD	00H
	DD	00H
	DD	FLAT:??_R0?AVQuickLobbyWndBase@@@8
	DD	FLAT:??_R3QuickLobbyWndBase@@8
rdata$r	ENDS
;	COMDAT ??_7QuickLobbyWndBase@@6B@
CONST	SEGMENT
??_7QuickLobbyWndBase@@6B@ DD FLAT:??_R4QuickLobbyWndBase@@6B@ ; QuickLobbyWndBase::`vftable'
	DD	FLAT:?AddRenderFrame@ioWnd@@UAEXABVioHashString@@PAVioUIRenderFrame@@@Z
	DD	FLAT:?AddRenderImage@ioWnd@@UAEXABVioHashString@@PAVioUIRenderImage@@@Z
	DD	FLAT:?AddTooltipHelp@ioWnd@@UAEXABVioHashString@@00@Z
	DD	FLAT:?ParseExtraInfo@ioWndEX@@UAEXAAVioXMLElement@@@Z
	DD	FLAT:?AddNamedRenderImage@ioWnd@@UAEXABVioHashString@@PAVioUIRenderImage@@@Z
	DD	FLAT:?RemoveNamedRenderImage@ioWnd@@UAEXABVioHashString@@@Z
	DD	FLAT:?GetNamedRenderImage@ioWnd@@UBEPAVioUIRenderImage@@ABVioHashString@@@Z
	DD	FLAT:?SetWindowAlpha@ioWnd@@UAEXH@Z
	DD	FLAT:?SetActive@ioWnd@@UAEXXZ
	DD	FLAT:?SetInActive@ioWnd@@UAEXXZ
	DD	FLAT:?ClearElementImageList@ioWnd@@UAEXXZ
	DD	FLAT:?SetSize@ioWnd@@UAEXHH@Z
	DD	FLAT:?SetPositionToDefault@ioMovingWndEX@@UAEXHH_N0@Z
	DD	FLAT:?IsNeedProcess@ioWnd@@UBE_NXZ
	DD	FLAT:?IsCanMouseReaction@ioWnd@@UBE_NXZ
	DD	FLAT:?AddChild@ioWnd@@UAEXPAV1@@Z
	DD	FLAT:?DeleteChild@ioWnd@@UAEXK@Z
	DD	FLAT:?DeleteAllChild@ioWnd@@UAEXXZ
	DD	FLAT:?OnRenderShowAndHide@ioWnd@@MAE_NXZ
	DD	FLAT:?OnRenderShowAndHideByDefault@ioWnd@@MAE_NK@Z
	DD	FLAT:?OnRenderShowAndHideByTop@ioWnd@@MAE_NK@Z
	DD	FLAT:?OnRenderShowAndHideByDown@ioWnd@@MAE_NK@Z
	DD	FLAT:?OnRender@ioWnd@@MAEXXZ
	DD	FLAT:?OnRenderAfterChild@ioWnd@@MAEXXZ
	DD	FLAT:?OnProcess@ioWnd@@MAEXM@Z
	DD	FLAT:?OnMouseProcess@ioMovingWndEX@@MAEXABVioMouse@@@Z
	DD	FLAT:?CheckFrameReSize@ioWnd@@MAEXHHHH@Z
	DD	FLAT:?RenderImageList@ioWnd@@MAEXHHW4UIRenderType@@@Z
	DD	FLAT:?iwm_create@QuickLobbyWndBase@@UAEXXZ
	DD	FLAT:?iwm_destroy@QuickLobbyWndBase@@UAEXXZ
	DD	FLAT:?iwm_lbuttondown@ioMovingWndEX@@UAEXABVioMouse@@@Z
	DD	FLAT:?iwm_lbuttonup@ioMovingWndEX@@UAEXABVioMouse@@@Z
	DD	FLAT:?iwm_lbuttonDBLCLK@ioWndEX@@UAEXABVioMouse@@@Z
	DD	FLAT:?iwm_rbuttondown@ioWndEX@@UAEXABVioMouse@@@Z
	DD	FLAT:?iwm_rbuttonup@ioWndEX@@UAEXABVioMouse@@@Z
	DD	FLAT:?iwm_command@ioWnd@@UAEXPAV1@HK@Z
	DD	FLAT:?iwm_mouseover@ioWndEX@@UAEXABVioMouse@@@Z
	DD	FLAT:?iwm_mousemove@ioWndEX@@UAEXABVioMouse@@@Z
	DD	FLAT:?iwm_mouseleave@ioWndEX@@UAEXABVioMouse@@@Z
	DD	FLAT:?iwm_vscroll@ioWnd@@UAEXKH@Z
	DD	FLAT:?iwm_wheel@ioWndEX@@UAEXH@Z
	DD	FLAT:?iwm_show@ioWndEX@@UAEXXZ
	DD	FLAT:?iwm_hide@ioWndEX@@UAEXXZ
	DD	FLAT:?iwm_esc@ioWndEX@@UAE_NXZ
	DD	FLAT:?iwm_spacebar@ioWndEX@@UAE_NXZ
	DD	FLAT:?iwm_gototop@ioWnd@@UAEXXZ
	DD	FLAT:?iwm_dragenter@ioWnd@@UAE?AW4IWDropEffect@@PAVioDragItem@@ABVioMouse@@@Z
	DD	FLAT:?iwm_dragover@ioWnd@@UAE?AW4IWDropEffect@@PAVioDragItem@@ABVioMouse@@@Z
	DD	FLAT:?iwm_dragleave@ioWnd@@UAEXXZ
	DD	FLAT:?iwm_dropitem@ioWnd@@UAE_NPAVioDragItem@@ABVioMouse@@PAV1@@Z
	DD	FLAT:?iwm_dropdone@ioWnd@@UAEXPAVioDragItem@@PAV1@_N@Z
	DD	FLAT:?IsEXType@ioWndEX@@UBE_NXZ
	DD	FLAT:?GetWndType@ioWnd@@UBEKXZ
	DD	FLAT:?RenderWnd@ioWnd@@UAEXXZ
	DD	FLAT:?SetIDEX@ioWnd@@UAEXAAK_N@Z
	DD	FLAT:?ParseXML@ioWnd@@UAEXAAVioXMLElement@@@Z
	DD	FLAT:?GetHeaderFileName@ioWndEX@@UAEPBDXZ
	DD	FLAT:?GetTemplateName@ioWndEX@@UAEPBDXZ
	DD	FLAT:?GetDefClassName@ioWndEX@@UBEPBDXZ
	DD	FLAT:?_Clone@ioWndEX@@UAEPAVioWnd@@XZ
	DD	FLAT:?Copy@ioWnd@@UAEXPAV1@@Z
	DD	FLAT:?Save@ioWnd@@UAE_NAAVioXMLElement@@@Z
	DD	FLAT:?SetSaveData@ioWndEX@@UAEXAAVioXMLElement@@@Z
	DD	FLAT:?SetPosX@ioWnd@@UAEXH@Z
	DD	FLAT:?SetPosY@ioWnd@@UAEXH@Z
	DD	FLAT:?SetWidth@ioWnd@@UAEXH@Z
	DD	FLAT:?SetHeight@ioWnd@@UAEXH@Z
	DD	FLAT:?GetNumFixedRenderFrame@ioWnd@@UBEHXZ
	DD	FLAT:?GetFixedRenderFrameType@ioWnd@@UAEPBDH@Z
	DD	FLAT:?GetRenderFrame@ioWnd@@UAEPAPAVioUIRenderElement@@PBD@Z
	DD	FLAT:?GetNumFixedRenderImage@ioWnd@@UBEHXZ
	DD	FLAT:?GetFixedRenderImageType@ioWnd@@UAEPBDH@Z
	DD	FLAT:?GetRenderImage@ioWnd@@UAEPAPAVioUIRenderElement@@PBD@Z
	DD	FLAT:?AddEffect@ioWnd@@UAEXABVioHashString@@PAVioUI3DEffectRender@@@Z
	DD	FLAT:?GetEffect@ioWnd@@UAEPAVioUI3DEffectRender@@VioHashString@@@Z
	DD	FLAT:??_EQuickLobbyWndBase@@UAEPAXI@Z
	DD	FLAT:?_ParseExtraInfo@ioWndEX@@UAEXAAVioXMLElement@@@Z
	DD	FLAT:?_SetSaveData@ioWndEX@@UAEXAAVioXMLElement@@@Z
	DD	FLAT:?OnExitButtonDown@QuickLobbyWndBase@@UAEXPAVioWndEX@@AAVioWndEXMouseEvent@@@Z
; Function compile flags: /Ogsp
CONST	ENDS
;	COMDAT ??0QuickLobbyWndBase@@QAE@XZ
_TEXT	SEGMENT
??0QuickLobbyWndBase@@QAE@XZ PROC			; QuickLobbyWndBase::QuickLobbyWndBase, COMDAT
; _this$ = ecx

; 45   : 	{

  00000	56		 push	 esi
  00001	8b f1		 mov	 esi, ecx
  00003	ff 15 00 00 00
	00		 call	 DWORD PTR __imp_??0ioMovingWndEX@@QAE@XZ
  00009	c7 06 00 00 00
	00		 mov	 DWORD PTR [esi], OFFSET ??_7QuickLobbyWndBase@@6B@

; 46   : 
; 47   : 	}

  0000f	8b c6		 mov	 eax, esi
  00011	5e		 pop	 esi
  00012	c3		 ret	 0
??0QuickLobbyWndBase@@QAE@XZ ENDP			; QuickLobbyWndBase::QuickLobbyWndBase
_TEXT	ENDS
PUBLIC	??1QuickLobbyWndBase@@UAE@XZ			; QuickLobbyWndBase::~QuickLobbyWndBase
EXTRN	__imp_??1ioMovingWndEX@@UAE@XZ:PROC
; Function compile flags: /Ogsp
;	COMDAT ??1QuickLobbyWndBase@@UAE@XZ
_TEXT	SEGMENT
??1QuickLobbyWndBase@@UAE@XZ PROC			; QuickLobbyWndBase::~QuickLobbyWndBase, COMDAT
; _this$ = ecx

; 50   : 	{

  00000	c7 01 00 00 00
	00		 mov	 DWORD PTR [ecx], OFFSET ??_7QuickLobbyWndBase@@6B@

; 51   : 	}

  00006	ff 25 00 00 00
	00		 jmp	 DWORD PTR __imp_??1ioMovingWndEX@@UAE@XZ
??1QuickLobbyWndBase@@UAE@XZ ENDP			; QuickLobbyWndBase::~QuickLobbyWndBase
_TEXT	ENDS
EXTRN	__imp_?iwm_destroy@ioWndEX@@UAEXXZ:PROC
EXTRN	__imp_?Disconnect@ioWndEX@@QAEXW4WNDEX_EVENT_TYPE@@PAV1@@Z:PROC
EXTRN	__imp_?FindChildWndEX@ioWnd@@QAEPAV1@K_N@Z:PROC
; Function compile flags: /Ogsp
;	COMDAT ?iwm_destroy@QuickLobbyWndBase@@UAEXXZ
_TEXT	SEGMENT
?iwm_destroy@QuickLobbyWndBase@@UAEXXZ PROC		; QuickLobbyWndBase::iwm_destroy, COMDAT
; _this$ = ecx

; 73   : 	{

  00000	56		 push	 esi

; 74   : 		{
; 75   : 				ioWndEX* child = (ioWndEX*)( FindChildWndEX(1) );

  00001	6a 00		 push	 0
  00003	6a 01		 push	 1
  00005	8b f1		 mov	 esi, ecx
  00007	ff 15 00 00 00
	00		 call	 DWORD PTR __imp_?FindChildWndEX@ioWnd@@QAEPAV1@K_N@Z

; 76   : 				if ( child ) {

  0000d	85 c0		 test	 eax, eax
  0000f	74 0b		 je	 SHORT $LN1@iwm_destro

; 77   : 					child->Disconnect( static_cast<WNDEX_EVENT_TYPE>(7), this );

  00011	56		 push	 esi
  00012	6a 07		 push	 7
  00014	8b c8		 mov	 ecx, eax
  00016	ff 15 00 00 00
	00		 call	 DWORD PTR __imp_?Disconnect@ioWndEX@@QAEXW4WNDEX_EVENT_TYPE@@PAV1@@Z
$LN1@iwm_destro:

; 78   : 				}
; 79   : 		}
; 80   : 
; 81   : 
; 82   : 		ioWndEX::iwm_destroy();

  0001c	8b ce		 mov	 ecx, esi
  0001e	5e		 pop	 esi
  0001f	ff 25 00 00 00
	00		 jmp	 DWORD PTR __imp_?iwm_destroy@ioWndEX@@UAEXXZ
?iwm_destroy@QuickLobbyWndBase@@UAEXXZ ENDP		; QuickLobbyWndBase::iwm_destroy
; Function compile flags: /Ogsp
_TEXT	ENDS
;	COMDAT ?OnExitButtonDown@QuickLobbyWndBase@@UAEXPAVioWndEX@@AAVioWndEXMouseEvent@@@Z
_TEXT	SEGMENT
_wnd$ = 8						; size = 4
_event$ = 12						; size = 4
?OnExitButtonDown@QuickLobbyWndBase@@UAEXPAVioWndEX@@AAVioWndEXMouseEvent@@@Z PROC ; QuickLobbyWndBase::OnExitButtonDown, COMDAT
; _this$ = ecx

; 89   : 	virtual void OnExitButtonDown( ioWndEX* wnd, ioWndEXMouseEvent& event ) {}

  00000	c2 08 00	 ret	 8
?OnExitButtonDown@QuickLobbyWndBase@@UAEXPAVioWndEX@@AAVioWndEXMouseEvent@@@Z ENDP ; QuickLobbyWndBase::OnExitButtonDown
_TEXT	ENDS
EXTRN	??3@YAXPAX@Z:PROC				; operator delete
; Function compile flags: /Ogsp
;	COMDAT ??_GQuickLobbyWndBase@@UAEPAXI@Z
_TEXT	SEGMENT
___flags$ = 8						; size = 4
??_GQuickLobbyWndBase@@UAEPAXI@Z PROC			; QuickLobbyWndBase::`scalar deleting destructor', COMDAT
; _this$ = ecx
  00000	55		 push	 ebp
  00001	8b ec		 mov	 ebp, esp
  00003	56		 push	 esi
  00004	8b f1		 mov	 esi, ecx
  00006	c7 06 00 00 00
	00		 mov	 DWORD PTR [esi], OFFSET ??_7QuickLobbyWndBase@@6B@
  0000c	ff 15 00 00 00
	00		 call	 DWORD PTR __imp_??1ioMovingWndEX@@UAE@XZ
  00012	f6 45 08 01	 test	 BYTE PTR ___flags$[ebp], 1
  00016	74 07		 je	 SHORT $LN1@scalar
  00018	56		 push	 esi
  00019	e8 00 00 00 00	 call	 ??3@YAXPAX@Z		; operator delete
  0001e	59		 pop	 ecx
$LN1@scalar:
  0001f	8b c6		 mov	 eax, esi
  00021	5e		 pop	 esi
  00022	5d		 pop	 ebp
  00023	c2 04 00	 ret	 4
??_GQuickLobbyWndBase@@UAEPAXI@Z ENDP			; QuickLobbyWndBase::`scalar deleting destructor'
_TEXT	ENDS
PUBLIC	?ResetCurrMenu@QuickLobbyWnd@@QAEXXZ		; QuickLobbyWnd::ResetCurrMenu
; Function compile flags: /Ogsp
; File d:\lost saga for developer\youtube\tutorial\source\src\lsclient\gui\quicklobbywnd.h
;	COMDAT ?ResetCurrMenu@QuickLobbyWnd@@QAEXXZ
_TEXT	SEGMENT
?ResetCurrMenu@QuickLobbyWnd@@QAEXXZ PROC		; QuickLobbyWnd::ResetCurrMenu, COMDAT
; _this$ = ecx

; 46   : 	__forceinline void  ResetCurrMenu(){ m_dwCurrMenu = NONE; }

  00000	83 a1 b4 01 00
	00 00		 and	 DWORD PTR [ecx+436], 0
  00007	c3		 ret	 0
?ResetCurrMenu@QuickLobbyWnd@@QAEXXZ ENDP		; QuickLobbyWnd::ResetCurrMenu
_TEXT	ENDS
PUBLIC	?SetMaxPlazaList@PlazaListWnd@@QAEXK@Z		; PlazaListWnd::SetMaxPlazaList
; Function compile flags: /Ogsp
; File d:\lost saga for developer\youtube\tutorial\source\src\lsclient\gui\plazamainwnd.h
;	COMDAT ?SetMaxPlazaList@PlazaListWnd@@QAEXK@Z
_TEXT	SEGMENT
_dwMax$ = 8						; size = 4
?SetMaxPlazaList@PlazaListWnd@@QAEXK@Z PROC		; PlazaListWnd::SetMaxPlazaList, COMDAT
; _this$ = ecx

; 218  : 	inline void SetMaxPlazaList( DWORD dwMax ){ m_dwMaxPlazaList = dwMax; }

  00000	55		 push	 ebp
  00001	8b ec		 mov	 ebp, esp
  00003	8b 45 08	 mov	 eax, DWORD PTR _dwMax$[ebp]
  00006	89 81 64 01 00
	00		 mov	 DWORD PTR [ecx+356], eax
  0000c	5d		 pop	 ebp
  0000d	c2 04 00	 ret	 4
?SetMaxPlazaList@PlazaListWnd@@QAEXK@Z ENDP		; PlazaListWnd::SetMaxPlazaList
_TEXT	ENDS
PUBLIC	?SetMaxTradeList@LobbyOwnerTradeListWnd@@QAEXK@Z ; LobbyOwnerTradeListWnd::SetMaxTradeList
; Function compile flags: /Ogsp
; File d:\lost saga for developer\youtube\tutorial\source\src\lsclient\gui\trademainwnd.h
;	COMDAT ?SetMaxTradeList@LobbyOwnerTradeListWnd@@QAEXK@Z
_TEXT	SEGMENT
_dwMax$ = 8						; size = 4
?SetMaxTradeList@LobbyOwnerTradeListWnd@@QAEXK@Z PROC	; LobbyOwnerTradeListWnd::SetMaxTradeList, COMDAT
; _this$ = ecx

; 372  : 	inline void SetMaxTradeList( DWORD dwMax ){ m_dwMaxTradeList = dwMax; }

  00000	55		 push	 ebp
  00001	8b ec		 mov	 ebp, esp
  00003	8b 45 08	 mov	 eax, DWORD PTR _dwMax$[ebp]
  00006	89 81 6c 01 00
	00		 mov	 DWORD PTR [ecx+364], eax
  0000c	5d		 pop	 ebp
  0000d	c2 04 00	 ret	 4
?SetMaxTradeList@LobbyOwnerTradeListWnd@@QAEXK@Z ENDP	; LobbyOwnerTradeListWnd::SetMaxTradeList
_TEXT	ENDS
PUBLIC	?SetMaxPartyList@PartyCatalogueWnd@@QAEXK@Z	; PartyCatalogueWnd::SetMaxPartyList
; Function compile flags: /Ogsp
; File d:\lost saga for developer\youtube\tutorial\source\src\lsclient\gui\partymenuwnd.h
;	COMDAT ?SetMaxPartyList@PartyCatalogueWnd@@QAEXK@Z
_TEXT	SEGMENT
_dwMax$ = 8						; size = 4
?SetMaxPartyList@PartyCatalogueWnd@@QAEXK@Z PROC	; PartyCatalogueWnd::SetMaxPartyList, COMDAT
; _this$ = ecx

; 424  : 	inline void SetMaxPartyList( DWORD dwMax ){ m_dwMaxPartyList = dwMax; }

  00000	55		 push	 ebp
  00001	8b ec		 mov	 ebp, esp
  00003	8b 45 08	 mov	 eax, DWORD PTR _dwMax$[ebp]
  00006	89 81 60 01 00
	00		 mov	 DWORD PTR [ecx+352], eax
  0000c	5d		 pop	 ebp
  0000d	c2 04 00	 ret	 4
?SetMaxPartyList@PartyCatalogueWnd@@QAEXK@Z ENDP	; PartyCatalogueWnd::SetMaxPartyList
_TEXT	ENDS
PUBLIC	?SetMaxTeamList@LadderTeamListWnd@@QAEXK@Z	; LadderTeamListWnd::SetMaxTeamList
; Function compile flags: /Ogsp
; File d:\lost saga for developer\youtube\tutorial\source\src\lsclient\gui\ladderteamwnd.h
;	COMDAT ?SetMaxTeamList@LadderTeamListWnd@@QAEXK@Z
_TEXT	SEGMENT
_dwMax$ = 8						; size = 4
?SetMaxTeamList@LadderTeamListWnd@@QAEXK@Z PROC		; LadderTeamListWnd::SetMaxTeamList, COMDAT
; _this$ = ecx

; 124  : 	inline void SetMaxTeamList( DWORD dwMax ){ m_dwMaxTeamList = dwMax; }

  00000	55		 push	 ebp
  00001	8b ec		 mov	 ebp, esp
  00003	8b 45 08	 mov	 eax, DWORD PTR _dwMax$[ebp]
  00006	89 81 74 01 00
	00		 mov	 DWORD PTR [ecx+372], eax
  0000c	5d		 pop	 ebp
  0000d	c2 04 00	 ret	 4
?SetMaxTeamList@LadderTeamListWnd@@QAEXK@Z ENDP		; LadderTeamListWnd::SetMaxTeamList
_TEXT	ENDS
PUBLIC	??_7QuickLobbyWnd@@6B@				; QuickLobbyWnd::`vftable'
PUBLIC	??0QuickLobbyWnd@@QAE@XZ			; QuickLobbyWnd::QuickLobbyWnd
PUBLIC	??_R4QuickLobbyWnd@@6B@				; QuickLobbyWnd::`RTTI Complete Object Locator'
PUBLIC	??_R0?AVQuickLobbyWnd@@@8			; QuickLobbyWnd `RTTI Type Descriptor'
PUBLIC	??_R3QuickLobbyWnd@@8				; QuickLobbyWnd::`RTTI Class Hierarchy Descriptor'
PUBLIC	??_R2QuickLobbyWnd@@8				; QuickLobbyWnd::`RTTI Base Class Array'
PUBLIC	??_R1A@?0A@EA@QuickLobbyWnd@@8			; QuickLobbyWnd::`RTTI Base Class Descriptor at (0,-1,0,64)'
PUBLIC	?SetPositionToDefault@QuickLobbyWnd@@UAEXHH_N0@Z ; QuickLobbyWnd::SetPositionToDefault
PUBLIC	?iwm_create@QuickLobbyWnd@@UAEXXZ		; QuickLobbyWnd::iwm_create
PUBLIC	?iwm_show@QuickLobbyWnd@@UAEXXZ			; QuickLobbyWnd::iwm_show
PUBLIC	?iwm_hide@QuickLobbyWnd@@UAEXXZ			; QuickLobbyWnd::iwm_hide
PUBLIC	?iwm_esc@QuickLobbyWnd@@UAE_NXZ			; QuickLobbyWnd::iwm_esc
PUBLIC	?IsEXType@QuickLobbyWnd@@UBE_NXZ		; QuickLobbyWnd::IsEXType
PUBLIC	?OnExitButtonDown@QuickLobbyWnd@@UAEXPAVioWndEX@@AAVioWndEXMouseEvent@@@Z ; QuickLobbyWnd::OnExitButtonDown
EXTRN	??_EQuickLobbyWnd@@UAEPAXI@Z:PROC		; QuickLobbyWnd::`vector deleting destructor'
;	COMDAT ??_R1A@?0A@EA@QuickLobbyWnd@@8
; File d:\lost saga for developer\youtube\tutorial\source\src\lsclient\gui\quicklobbywndbase.h
rdata$r	SEGMENT
??_R1A@?0A@EA@QuickLobbyWnd@@8 DD FLAT:??_R0?AVQuickLobbyWnd@@@8 ; QuickLobbyWnd::`RTTI Base Class Descriptor at (0,-1,0,64)'
	DD	04H
	DD	00H
	DD	0ffffffffH
	DD	00H
	DD	040H
	DD	FLAT:??_R3QuickLobbyWnd@@8
rdata$r	ENDS
;	COMDAT ??_R2QuickLobbyWnd@@8
rdata$r	SEGMENT
??_R2QuickLobbyWnd@@8 DD FLAT:??_R1A@?0A@EA@QuickLobbyWnd@@8 ; QuickLobbyWnd::`RTTI Base Class Array'
	DD	FLAT:??_R1A@?0A@EA@QuickLobbyWndBase@@8
	DD	FLAT:??_R1A@?0A@EA@ioMovingWndEX@@8
	DD	FLAT:??_R1A@?0A@EA@ioWndEX@@8
	DD	FLAT:??_R1A@?0A@EA@ioWnd@@8
rdata$r	ENDS
;	COMDAT ??_R3QuickLobbyWnd@@8
rdata$r	SEGMENT
??_R3QuickLobbyWnd@@8 DD 00H				; QuickLobbyWnd::`RTTI Class Hierarchy Descriptor'
	DD	00H
	DD	05H
	DD	FLAT:??_R2QuickLobbyWnd@@8
rdata$r	ENDS
;	COMDAT ??_R0?AVQuickLobbyWnd@@@8
_DATA	SEGMENT
??_R0?AVQuickLobbyWnd@@@8 DD FLAT:??_7type_info@@6B@	; QuickLobbyWnd `RTTI Type Descriptor'
	DD	00H
	DB	'.?AVQuickLobbyWnd@@', 00H
_DATA	ENDS
;	COMDAT ??_R4QuickLobbyWnd@@6B@
rdata$r	SEGMENT
??_R4QuickLobbyWnd@@6B@ DD 00H				; QuickLobbyWnd::`RTTI Complete Object Locator'
	DD	00H
	DD	00H
	DD	FLAT:??_R0?AVQuickLobbyWnd@@@8
	DD	FLAT:??_R3QuickLobbyWnd@@8
rdata$r	ENDS
;	COMDAT ??_7QuickLobbyWnd@@6B@
CONST	SEGMENT
??_7QuickLobbyWnd@@6B@ DD FLAT:??_R4QuickLobbyWnd@@6B@	; QuickLobbyWnd::`vftable'
	DD	FLAT:?AddRenderFrame@ioWnd@@UAEXABVioHashString@@PAVioUIRenderFrame@@@Z
	DD	FLAT:?AddRenderImage@ioWnd@@UAEXABVioHashString@@PAVioUIRenderImage@@@Z
	DD	FLAT:?AddTooltipHelp@ioWnd@@UAEXABVioHashString@@00@Z
	DD	FLAT:?ParseExtraInfo@ioWndEX@@UAEXAAVioXMLElement@@@Z
	DD	FLAT:?AddNamedRenderImage@ioWnd@@UAEXABVioHashString@@PAVioUIRenderImage@@@Z
	DD	FLAT:?RemoveNamedRenderImage@ioWnd@@UAEXABVioHashString@@@Z
	DD	FLAT:?GetNamedRenderImage@ioWnd@@UBEPAVioUIRenderImage@@ABVioHashString@@@Z
	DD	FLAT:?SetWindowAlpha@ioWnd@@UAEXH@Z
	DD	FLAT:?SetActive@ioWnd@@UAEXXZ
	DD	FLAT:?SetInActive@ioWnd@@UAEXXZ
	DD	FLAT:?ClearElementImageList@ioWnd@@UAEXXZ
	DD	FLAT:?SetSize@ioWnd@@UAEXHH@Z
	DD	FLAT:?SetPositionToDefault@QuickLobbyWnd@@UAEXHH_N0@Z
	DD	FLAT:?IsNeedProcess@ioWnd@@UBE_NXZ
	DD	FLAT:?IsCanMouseReaction@ioWnd@@UBE_NXZ
	DD	FLAT:?AddChild@ioWnd@@UAEXPAV1@@Z
	DD	FLAT:?DeleteChild@ioWnd@@UAEXK@Z
	DD	FLAT:?DeleteAllChild@ioWnd@@UAEXXZ
	DD	FLAT:?OnRenderShowAndHide@ioWnd@@MAE_NXZ
	DD	FLAT:?OnRenderShowAndHideByDefault@ioWnd@@MAE_NK@Z
	DD	FLAT:?OnRenderShowAndHideByTop@ioWnd@@MAE_NK@Z
	DD	FLAT:?OnRenderShowAndHideByDown@ioWnd@@MAE_NK@Z
	DD	FLAT:?OnRender@ioWnd@@MAEXXZ
	DD	FLAT:?OnRenderAfterChild@ioWnd@@MAEXXZ
	DD	FLAT:?OnProcess@ioWnd@@MAEXM@Z
	DD	FLAT:?OnMouseProcess@ioMovingWndEX@@MAEXABVioMouse@@@Z
	DD	FLAT:?CheckFrameReSize@ioWnd@@MAEXHHHH@Z
	DD	FLAT:?RenderImageList@ioWnd@@MAEXHHW4UIRenderType@@@Z
	DD	FLAT:?iwm_create@QuickLobbyWnd@@UAEXXZ
	DD	FLAT:?iwm_destroy@QuickLobbyWndBase@@UAEXXZ
	DD	FLAT:?iwm_lbuttondown@ioMovingWndEX@@UAEXABVioMouse@@@Z
	DD	FLAT:?iwm_lbuttonup@ioMovingWndEX@@UAEXABVioMouse@@@Z
	DD	FLAT:?iwm_lbuttonDBLCLK@ioWndEX@@UAEXABVioMouse@@@Z
	DD	FLAT:?iwm_rbuttondown@ioWndEX@@UAEXABVioMouse@@@Z
	DD	FLAT:?iwm_rbuttonup@ioWndEX@@UAEXABVioMouse@@@Z
	DD	FLAT:?iwm_command@ioWnd@@UAEXPAV1@HK@Z
	DD	FLAT:?iwm_mouseover@ioWndEX@@UAEXABVioMouse@@@Z
	DD	FLAT:?iwm_mousemove@ioWndEX@@UAEXABVioMouse@@@Z
	DD	FLAT:?iwm_mouseleave@ioWndEX@@UAEXABVioMouse@@@Z
	DD	FLAT:?iwm_vscroll@ioWnd@@UAEXKH@Z
	DD	FLAT:?iwm_wheel@ioWndEX@@UAEXH@Z
	DD	FLAT:?iwm_show@QuickLobbyWnd@@UAEXXZ
	DD	FLAT:?iwm_hide@QuickLobbyWnd@@UAEXXZ
	DD	FLAT:?iwm_esc@QuickLobbyWnd@@UAE_NXZ
	DD	FLAT:?iwm_spacebar@ioWndEX@@UAE_NXZ
	DD	FLAT:?iwm_gototop@ioWnd@@UAEXXZ
	DD	FLAT:?iwm_dragenter@ioWnd@@UAE?AW4IWDropEffect@@PAVioDragItem@@ABVioMouse@@@Z
	DD	FLAT:?iwm_dragover@ioWnd@@UAE?AW4IWDropEffect@@PAVioDragItem@@ABVioMouse@@@Z
	DD	FLAT:?iwm_dragleave@ioWnd@@UAEXXZ
	DD	FLAT:?iwm_dropitem@ioWnd@@UAE_NPAVioDragItem@@ABVioMouse@@PAV1@@Z
	DD	FLAT:?iwm_dropdone@ioWnd@@UAEXPAVioDragItem@@PAV1@_N@Z
	DD	FLAT:?IsEXType@QuickLobbyWnd@@UBE_NXZ
	DD	FLAT:?GetWndType@ioWnd@@UBEKXZ
	DD	FLAT:?RenderWnd@ioWnd@@UAEXXZ
	DD	FLAT:?SetIDEX@ioWnd@@UAEXAAK_N@Z
	DD	FLAT:?ParseXML@ioWnd@@UAEXAAVioXMLElement@@@Z
	DD	FLAT:?GetHeaderFileName@ioWndEX@@UAEPBDXZ
	DD	FLAT:?GetTemplateName@ioWndEX@@UAEPBDXZ
	DD	FLAT:?GetDefClassName@ioWndEX@@UBEPBDXZ
	DD	FLAT:?_Clone@ioWndEX@@UAEPAVioWnd@@XZ
	DD	FLAT:?Copy@ioWnd@@UAEXPAV1@@Z
	DD	FLAT:?Save@ioWnd@@UAE_NAAVioXMLElement@@@Z
	DD	FLAT:?SetSaveData@ioWndEX@@UAEXAAVioXMLElement@@@Z
	DD	FLAT:?SetPosX@ioWnd@@UAEXH@Z
	DD	FLAT:?SetPosY@ioWnd@@UAEXH@Z
	DD	FLAT:?SetWidth@ioWnd@@UAEXH@Z
	DD	FLAT:?SetHeight@ioWnd@@UAEXH@Z
	DD	FLAT:?GetNumFixedRenderFrame@ioWnd@@UBEHXZ
	DD	FLAT:?GetFixedRenderFrameType@ioWnd@@UAEPBDH@Z
	DD	FLAT:?GetRenderFrame@ioWnd@@UAEPAPAVioUIRenderElement@@PBD@Z
	DD	FLAT:?GetNumFixedRenderImage@ioWnd@@UBEHXZ
	DD	FLAT:?GetFixedRenderImageType@ioWnd@@UAEPBDH@Z
	DD	FLAT:?GetRenderImage@ioWnd@@UAEPAPAVioUIRenderElement@@PBD@Z
	DD	FLAT:?AddEffect@ioWnd@@UAEXABVioHashString@@PAVioUI3DEffectRender@@@Z
	DD	FLAT:?GetEffect@ioWnd@@UAEPAVioUI3DEffectRender@@VioHashString@@@Z
	DD	FLAT:??_EQuickLobbyWnd@@UAEPAXI@Z
	DD	FLAT:?_ParseExtraInfo@ioWndEX@@UAEXAAVioXMLElement@@@Z
	DD	FLAT:?_SetSaveData@ioWndEX@@UAEXAAVioXMLElement@@@Z
	DD	FLAT:?OnExitButtonDown@QuickLobbyWnd@@UAEXPAVioWndEX@@AAVioWndEXMouseEvent@@@Z
; Function compile flags: /Ogsp
; File d:\lost saga for developer\youtube\tutorial\source\src\lsclient\gui\quicklobbywnd.cpp
CONST	ENDS
;	COMDAT ??0QuickLobbyWnd@@QAE@XZ
_TEXT	SEGMENT
??0QuickLobbyWnd@@QAE@XZ PROC				; QuickLobbyWnd::QuickLobbyWnd, COMDAT
; _this$ = ecx

; 18   : {

  00000	56		 push	 esi
  00001	8b f1		 mov	 esi, ecx
  00003	ff 15 00 00 00
	00		 call	 DWORD PTR __imp_??0ioMovingWndEX@@QAE@XZ

; 19   : 	m_pModeHelpTooltip  = NULL;

  00009	33 c0		 xor	 eax, eax
  0000b	89 86 b8 01 00
	00		 mov	 DWORD PTR [esi+440], eax

; 20   : 	m_pQuickJoinTooltip = NULL;

  00011	89 86 bc 01 00
	00		 mov	 DWORD PTR [esi+444], eax

; 21   : 	m_dwCurrMenu		= NONE;

  00017	89 86 b4 01 00
	00		 mov	 DWORD PTR [esi+436], eax
  0001d	c7 06 00 00 00
	00		 mov	 DWORD PTR [esi], OFFSET ??_7QuickLobbyWnd@@6B@

; 22   : }

  00023	8b c6		 mov	 eax, esi
  00025	5e		 pop	 esi
  00026	c3		 ret	 0
??0QuickLobbyWnd@@QAE@XZ ENDP				; QuickLobbyWnd::QuickLobbyWnd
; Function compile flags: /Ogsp
; File d:\lost saga for developer\youtube\tutorial\source\src\lsclient\gui\quicklobbywnd.h
_TEXT	ENDS
;	COMDAT ?IsEXType@QuickLobbyWnd@@UBE_NXZ
_TEXT	SEGMENT
?IsEXType@QuickLobbyWnd@@UBE_NXZ PROC			; QuickLobbyWnd::IsEXType, COMDAT
; _this$ = ecx

; 44   : 	virtual bool IsEXType() const { return false; }

  00000	32 c0		 xor	 al, al
  00002	c3		 ret	 0
?IsEXType@QuickLobbyWnd@@UBE_NXZ ENDP			; QuickLobbyWnd::IsEXType
_TEXT	ENDS
PUBLIC	??1QuickLobbyWnd@@UAE@XZ			; QuickLobbyWnd::~QuickLobbyWnd
; Function compile flags: /Ogsp
; File d:\lost saga for developer\youtube\tutorial\source\src\lsclient\gui\quicklobbywnd.cpp
;	COMDAT ??1QuickLobbyWnd@@UAE@XZ
_TEXT	SEGMENT
??1QuickLobbyWnd@@UAE@XZ PROC				; QuickLobbyWnd::~QuickLobbyWnd, COMDAT
; _this$ = ecx

; 26   : }

  00000	c7 01 00 00 00
	00		 mov	 DWORD PTR [ecx], OFFSET ??_7QuickLobbyWndBase@@6B@
  00006	ff 25 00 00 00
	00		 jmp	 DWORD PTR __imp_??1ioMovingWndEX@@UAE@XZ
??1QuickLobbyWnd@@UAE@XZ ENDP				; QuickLobbyWnd::~QuickLobbyWnd
_TEXT	ENDS
EXTRN	?PlazaUIMove@LadderTeamListWnd@@QAEXXZ:PROC	; LadderTeamListWnd::PlazaUIMove
EXTRN	?PlazaUIMove@PlazaListWnd@@QAEXXZ:PROC		; PlazaListWnd::PlazaUIMove
EXTRN	?PlazaUIMove@PartyCatalogueWnd@@QAEXXZ:PROC	; PartyCatalogueWnd::PlazaUIMove
EXTRN	__imp_?FindChildWnd@ioWnd@@QAEPAV1@K@Z:PROC
; Function compile flags: /Ogsp
;	COMDAT ?iwm_show@QuickLobbyWnd@@UAEXXZ
_TEXT	SEGMENT
?iwm_show@QuickLobbyWnd@@UAEXXZ PROC			; QuickLobbyWnd::iwm_show, COMDAT
; _this$ = ecx

; 74   : {

  00000	53		 push	 ebx
  00001	56		 push	 esi

; 75   : 	PartyCatalogueWnd* pParty = (PartyCatalogueWnd*)( FindChildWnd( BATTLE ) );

  00002	8b 35 00 00 00
	00		 mov	 esi, DWORD PTR __imp_?FindChildWnd@ioWnd@@QAEPAV1@K@Z
  00008	57		 push	 edi
  00009	6a 0a		 push	 10			; 0000000aH
  0000b	8b f9		 mov	 edi, ecx
  0000d	ff d6		 call	 esi

; 76   : 	if( pParty )

  0000f	6a 08		 push	 8
  00011	5b		 pop	 ebx
  00012	85 c0		 test	 eax, eax
  00014	74 0d		 je	 SHORT $LN4@iwm_show

; 77   : 	{
; 78   : 		pParty->SetMaxPartyList( PartyCatalogueWnd::PLAZA_MAX_PARTY_LIST );
; 79   : 		pParty->PlazaUIMove();

  00016	8b c8		 mov	 ecx, eax
  00018	89 98 60 01 00
	00		 mov	 DWORD PTR [eax+352], ebx
  0001e	e8 00 00 00 00	 call	 ?PlazaUIMove@PartyCatalogueWnd@@QAEXXZ ; PartyCatalogueWnd::PlazaUIMove
$LN4@iwm_show:

; 80   : 	}
; 81   : 
; 82   : 	PlazaListWnd* pPlaza = (PlazaListWnd*)( FindChildWnd( PLAZA ) );

  00023	6a 0c		 push	 12			; 0000000cH
  00025	8b cf		 mov	 ecx, edi
  00027	ff d6		 call	 esi

; 83   : 	if( pPlaza )

  00029	85 c0		 test	 eax, eax
  0002b	74 0d		 je	 SHORT $LN3@iwm_show

; 84   : 	{
; 85   : 		pPlaza->SetMaxPlazaList( PlazaListWnd::PLAZA_MAX_PLAZA_LIST );
; 86   : 		pPlaza->PlazaUIMove();

  0002d	8b c8		 mov	 ecx, eax
  0002f	89 98 64 01 00
	00		 mov	 DWORD PTR [eax+356], ebx
  00035	e8 00 00 00 00	 call	 ?PlazaUIMove@PlazaListWnd@@QAEXXZ ; PlazaListWnd::PlazaUIMove
$LN3@iwm_show:

; 87   : 	}
; 88   : 
; 89   : 	CampMainWnd* pCamp = (CampMainWnd*)( FindChildWnd( CAMP ) );

  0003a	6a 0b		 push	 11			; 0000000bH
  0003c	8b cf		 mov	 ecx, edi
  0003e	ff d6		 call	 esi

; 90   : 	if( pCamp )

  00040	85 c0		 test	 eax, eax
  00042	74 1c		 je	 SHORT $LN1@iwm_show

; 91   : 	{
; 92   : 		LadderTeamListWnd* pTeamWnd = (LadderTeamListWnd*)( pCamp->FindChildWnd( CampMainWnd::ID_CAMP_TEAM_WND ) );

  00044	6a 0a		 push	 10			; 0000000aH
  00046	5f		 pop	 edi
  00047	57		 push	 edi
  00048	8b c8		 mov	 ecx, eax
  0004a	ff d6		 call	 esi

; 93   : 		if( pTeamWnd )

  0004c	85 c0		 test	 eax, eax
  0004e	74 10		 je	 SHORT $LN1@iwm_show

; 94   : 		{
; 95   : 			pTeamWnd->SetMaxTeamList( LadderTeamListWnd::PLAZA_MAX_TEAM_LIST );

  00050	89 b8 74 01 00
	00		 mov	 DWORD PTR [eax+372], edi
  00056	5f		 pop	 edi
  00057	5e		 pop	 esi

; 96   : 			pTeamWnd->PlazaUIMove();

  00058	8b c8		 mov	 ecx, eax
  0005a	5b		 pop	 ebx
  0005b	e9 00 00 00 00	 jmp	 ?PlazaUIMove@LadderTeamListWnd@@QAEXXZ ; LadderTeamListWnd::PlazaUIMove
$LN1@iwm_show:
  00060	5f		 pop	 edi
  00061	5e		 pop	 esi
  00062	5b		 pop	 ebx

; 97   : 		}
; 98   : 	}
; 99   : }

  00063	c3		 ret	 0
?iwm_show@QuickLobbyWnd@@UAEXXZ ENDP			; QuickLobbyWnd::iwm_show
_TEXT	ENDS
PUBLIC	??_C@_00CNPNBAHC@?$AA@				; `string'
EXTRN	__imp_?HideWnd@ioWnd@@QAEXXZ:PROC
EXTRN	?SetModeHelpTooltip@CQuickModeToolTip@@QAEXPAVioWnd@@H@Z:PROC ; CQuickModeToolTip::SetModeHelpTooltip
EXTRN	__imp_??1ioHashString@@QAE@XZ:PROC
EXTRN	?SetModeHelpTooltip@ModeHelpTooltip@@QAEXPAVioWnd@@ABVioHashString@@H@Z:PROC ; ModeHelpTooltip::SetModeHelpTooltip
EXTRN	__imp_??0ioHashString@@QAE@PBD@Z:PROC
EXTRN	___CxxFrameHandler3:PROC
EXTRN	@__security_check_cookie@4:PROC
EXTRN	__EH_epilog3:PROC
EXTRN	__EH_prolog3:PROC
;	COMDAT ??_C@_00CNPNBAHC@?$AA@
; File d:\lost saga for developer\youtube\tutorial\source\src\lsclient\gui\quicklobbywnd.h
CONST	SEGMENT
??_C@_00CNPNBAHC@?$AA@ DB 00H				; `string'
CONST	ENDS
;	COMDAT xdata$x
xdata$x	SEGMENT
__unwindtable$?iwm_hide@QuickLobbyWnd@@UAEXXZ DD 0ffffffffH
	DD	FLAT:__unwindfunclet$?iwm_hide@QuickLobbyWnd@@UAEXXZ$0
__ehfuncinfo$?iwm_hide@QuickLobbyWnd@@UAEXXZ DD 019930522H
	DD	01H
	DD	FLAT:__unwindtable$?iwm_hide@QuickLobbyWnd@@UAEXXZ
	DD	2 DUP(00H)
	DD	2 DUP(00H)
	DD	00H
	DD	01H
; Function compile flags: /Ogsp
; File d:\lost saga for developer\youtube\tutorial\source\src\lsclient\gui\quicklobbywnd.cpp
xdata$x	ENDS
;	COMDAT ?iwm_hide@QuickLobbyWnd@@UAEXXZ
_TEXT	SEGMENT
$T523417 = -28						; size = 16
__$EHRec$ = -12						; size = 12
?iwm_hide@QuickLobbyWnd@@UAEXXZ PROC			; QuickLobbyWnd::iwm_hide, COMDAT
; _this$ = ecx

; 115  : {

  00000	6a 10		 push	 16			; 00000010H
  00002	b8 00 00 00 00	 mov	 eax, __ehhandler$?iwm_hide@QuickLobbyWnd@@UAEXXZ
  00007	e8 00 00 00 00	 call	 __EH_prolog3
  0000c	8b f1		 mov	 esi, ecx

; 116  : 	ResetCurrMenu();
; 117  : 
; 118  : 	ModeHelpTooltip *pModeHelpTooltip = (ModeHelpTooltip*)( m_pModeHelpTooltip );	

  0000e	8b be b8 01 00
	00		 mov	 edi, DWORD PTR [esi+440]
  00014	83 a6 b4 01 00
	00 00		 and	 DWORD PTR [esi+436], 0

; 119  : 	if( pModeHelpTooltip )

  0001b	85 ff		 test	 edi, edi
  0001d	74 2e		 je	 SHORT $LN6@iwm_hide

; 120  : 	{
; 121  : 		pModeHelpTooltip->SetModeHelpTooltip( NULL, "", -1 );

  0001f	68 00 00 00 00	 push	 OFFSET ??_C@_00CNPNBAHC@?$AA@
  00024	8d 4d e4	 lea	 ecx, DWORD PTR $T523417[ebp]
  00027	ff 15 00 00 00
	00		 call	 DWORD PTR __imp_??0ioHashString@@QAE@PBD@Z
  0002d	83 65 fc 00	 and	 DWORD PTR __$EHRec$[ebp+8], 0
  00031	6a ff		 push	 -1
  00033	8d 45 e4	 lea	 eax, DWORD PTR $T523417[ebp]
  00036	50		 push	 eax
  00037	6a 00		 push	 0
  00039	8b cf		 mov	 ecx, edi
  0003b	e8 00 00 00 00	 call	 ?SetModeHelpTooltip@ModeHelpTooltip@@QAEXPAVioWnd@@ABVioHashString@@H@Z ; ModeHelpTooltip::SetModeHelpTooltip
  00040	83 4d fc ff	 or	 DWORD PTR __$EHRec$[ebp+8], -1
  00044	8d 4d e4	 lea	 ecx, DWORD PTR $T523417[ebp]
  00047	ff 15 00 00 00
	00		 call	 DWORD PTR __imp_??1ioHashString@@QAE@XZ
$LN6@iwm_hide:

; 122  : 	}	
; 123  : 
; 124  : 	CQuickModeToolTip *pQuickTooltip = (CQuickModeToolTip*)( m_pQuickJoinTooltip );

  0004d	8b 8e bc 01 00
	00		 mov	 ecx, DWORD PTR [esi+444]

; 125  : 	if( pQuickTooltip )

  00053	85 c9		 test	 ecx, ecx
  00055	74 09		 je	 SHORT $LN5@iwm_hide

; 126  : 		pQuickTooltip->SetModeHelpTooltip( NULL, -1 );

  00057	6a ff		 push	 -1
  00059	6a 00		 push	 0
  0005b	e8 00 00 00 00	 call	 ?SetModeHelpTooltip@CQuickModeToolTip@@QAEXPAVioWnd@@H@Z ; CQuickModeToolTip::SetModeHelpTooltip
$LN5@iwm_hide:

; 127  : 
; 128  : 	for( DWORD dwID = BATTLE; dwID <= TOURNAMENT; ++dwID )

  00060	6a 0a		 push	 10			; 0000000aH
  00062	5f		 pop	 edi
$LL4@iwm_hide:

; 129  : 	{
; 130  : 		ioWnd* pWnd = FindChildWnd( dwID );

  00063	57		 push	 edi
  00064	8b ce		 mov	 ecx, esi
  00066	ff 15 00 00 00
	00		 call	 DWORD PTR __imp_?FindChildWnd@ioWnd@@QAEPAV1@K@Z

; 131  : 		if( pWnd )

  0006c	85 c0		 test	 eax, eax
  0006e	74 08		 je	 SHORT $LN3@iwm_hide

; 132  : 			pWnd->HideWnd();

  00070	8b c8		 mov	 ecx, eax
  00072	ff 15 00 00 00
	00		 call	 DWORD PTR __imp_?HideWnd@ioWnd@@QAEXXZ
$LN3@iwm_hide:

; 127  : 
; 128  : 	for( DWORD dwID = BATTLE; dwID <= TOURNAMENT; ++dwID )

  00078	47		 inc	 edi
  00079	83 ff 10	 cmp	 edi, 16			; 00000010H
  0007c	76 e5		 jbe	 SHORT $LL4@iwm_hide

; 133  : 	}
; 134  : }

  0007e	e8 00 00 00 00	 call	 __EH_epilog3
  00083	c3		 ret	 0
_TEXT	ENDS
;	COMDAT text$x
text$x	SEGMENT
__unwindfunclet$?iwm_hide@QuickLobbyWnd@@UAEXXZ$0:
  00000	8d 4d e4	 lea	 ecx, DWORD PTR $T523417[ebp]
  00003	ff 25 00 00 00
	00		 jmp	 DWORD PTR __imp_??1ioHashString@@QAE@XZ
__ehhandler$?iwm_hide@QuickLobbyWnd@@UAEXXZ:
  00009	8b 54 24 08	 mov	 edx, DWORD PTR [esp+8]
  0000d	8d 42 0c	 lea	 eax, DWORD PTR [edx+12]
  00010	8b 4a e0	 mov	 ecx, DWORD PTR [edx-32]
  00013	33 c8		 xor	 ecx, eax
  00015	e8 00 00 00 00	 call	 @__security_check_cookie@4
  0001a	b8 00 00 00 00	 mov	 eax, OFFSET __ehfuncinfo$?iwm_hide@QuickLobbyWnd@@UAEXXZ
  0001f	e9 00 00 00 00	 jmp	 ___CxxFrameHandler3
text$x	ENDS
?iwm_hide@QuickLobbyWnd@@UAEXXZ ENDP			; QuickLobbyWnd::iwm_hide
PUBLIC	??_R0?AVModeHelpTooltip@@@8			; ModeHelpTooltip `RTTI Type Descriptor'
PUBLIC	?SetModeHelpTooltip@QuickLobbyWnd@@QAEXPAVioWnd@@ABVioHashString@@H@Z ; QuickLobbyWnd::SetModeHelpTooltip
EXTRN	___RTDynamicCast:PROC
;	COMDAT ??_R0?AVModeHelpTooltip@@@8
_DATA	SEGMENT
??_R0?AVModeHelpTooltip@@@8 DD FLAT:??_7type_info@@6B@	; ModeHelpTooltip `RTTI Type Descriptor'
	DD	00H
	DB	'.?AVModeHelpTooltip@@', 00H
; Function compile flags: /Ogsp
_DATA	ENDS
;	COMDAT ?SetModeHelpTooltip@QuickLobbyWnd@@QAEXPAVioWnd@@ABVioHashString@@H@Z
_TEXT	SEGMENT
_pCallWnd$ = 8						; size = 4
_szTitle$ = 12						; size = 4
_iQuickstartModeHelpIndex$ = 16				; size = 4
?SetModeHelpTooltip@QuickLobbyWnd@@QAEXPAVioWnd@@ABVioHashString@@H@Z PROC ; QuickLobbyWnd::SetModeHelpTooltip, COMDAT
; _this$ = ecx

; 137  : {

  00000	55		 push	 ebp
  00001	8b ec		 mov	 ebp, esp
  00003	53		 push	 ebx
  00004	56		 push	 esi
  00005	8b f1		 mov	 esi, ecx

; 138  : 	if( m_pModeHelpTooltip == NULL )

  00007	33 c0		 xor	 eax, eax
  00009	57		 push	 edi
  0000a	bb 00 00 00 00	 mov	 ebx, OFFSET ??_R0?AVModeHelpTooltip@@@8
  0000f	bf 00 00 00 00	 mov	 edi, OFFSET ??_R0?AVioWnd@@@8
  00014	39 86 b8 01 00
	00		 cmp	 DWORD PTR [esi+440], eax
  0001a	75 20		 jne	 SHORT $LN2@SetModeHel

; 139  : 		m_pModeHelpTooltip = dynamic_cast< ModeHelpTooltip * >( FindChildWnd( ID_MODE_HELP_TOOLTIP ) );

  0001c	50		 push	 eax
  0001d	53		 push	 ebx
  0001e	57		 push	 edi
  0001f	50		 push	 eax
  00020	68 f4 01 00 00	 push	 500			; 000001f4H
  00025	ff 15 00 00 00
	00		 call	 DWORD PTR __imp_?FindChildWnd@ioWnd@@QAEPAV1@K@Z
  0002b	50		 push	 eax
  0002c	e8 00 00 00 00	 call	 ___RTDynamicCast
  00031	83 c4 14	 add	 esp, 20			; 00000014H
  00034	89 86 b8 01 00
	00		 mov	 DWORD PTR [esi+440], eax
  0003a	33 c0		 xor	 eax, eax
$LN2@SetModeHel:

; 140  : 
; 141  : 	ModeHelpTooltip *pModeHelpTooltip = dynamic_cast< ModeHelpTooltip * >( m_pModeHelpTooltip );	

  0003c	50		 push	 eax
  0003d	53		 push	 ebx
  0003e	57		 push	 edi
  0003f	50		 push	 eax
  00040	ff b6 b8 01 00
	00		 push	 DWORD PTR [esi+440]
  00046	e8 00 00 00 00	 call	 ___RTDynamicCast
  0004b	83 c4 14	 add	 esp, 20			; 00000014H
  0004e	5f		 pop	 edi
  0004f	5e		 pop	 esi
  00050	5b		 pop	 ebx

; 142  : 	if( pModeHelpTooltip )

  00051	85 c0		 test	 eax, eax
  00053	74 08		 je	 SHORT $LN1@SetModeHel

; 143  : 		pModeHelpTooltip->SetModeHelpTooltip(  pCallWnd, szTitle, iQuickstartModeHelpIndex );

  00055	8b c8		 mov	 ecx, eax

; 144  : }

  00057	5d		 pop	 ebp

; 143  : 		pModeHelpTooltip->SetModeHelpTooltip(  pCallWnd, szTitle, iQuickstartModeHelpIndex );

  00058	e9 00 00 00 00	 jmp	 ?SetModeHelpTooltip@ModeHelpTooltip@@QAEXPAVioWnd@@ABVioHashString@@H@Z ; ModeHelpTooltip::SetModeHelpTooltip
$LN1@SetModeHel:

; 144  : }

  0005d	5d		 pop	 ebp
  0005e	c2 0c 00	 ret	 12			; 0000000cH
?SetModeHelpTooltip@QuickLobbyWnd@@QAEXPAVioWnd@@ABVioHashString@@H@Z ENDP ; QuickLobbyWnd::SetModeHelpTooltip
_TEXT	ENDS
PUBLIC	?SetQuickJoinTooltip@QuickLobbyWnd@@QAEXPAVioWnd@@H@Z ; QuickLobbyWnd::SetQuickJoinTooltip
; Function compile flags: /Ogsp
;	COMDAT ?SetQuickJoinTooltip@QuickLobbyWnd@@QAEXPAVioWnd@@H@Z
_TEXT	SEGMENT
_pCallWnd$ = 8						; size = 4
_nMode$ = 12						; size = 4
?SetQuickJoinTooltip@QuickLobbyWnd@@QAEXPAVioWnd@@H@Z PROC ; QuickLobbyWnd::SetQuickJoinTooltip, COMDAT
; _this$ = ecx

; 147  : {

  00000	55		 push	 ebp
  00001	8b ec		 mov	 ebp, esp
  00003	56		 push	 esi

; 148  : 	if( m_pQuickJoinTooltip == NULL )

  00004	8d b1 bc 01 00
	00		 lea	 esi, DWORD PTR [ecx+444]
  0000a	83 3e 00	 cmp	 DWORD PTR [esi], 0
  0000d	75 0d		 jne	 SHORT $LN2@SetQuickJo

; 149  : 		m_pQuickJoinTooltip = (CQuickModeToolTip*)( FindChildWnd( ID_QUICKJOIN_TOOLTIP ) );

  0000f	68 f5 01 00 00	 push	 501			; 000001f5H
  00014	ff 15 00 00 00
	00		 call	 DWORD PTR __imp_?FindChildWnd@ioWnd@@QAEPAV1@K@Z
  0001a	89 06		 mov	 DWORD PTR [esi], eax
$LN2@SetQuickJo:

; 150  : 
; 151  : 	CQuickModeToolTip *pQuickTooltip = (CQuickModeToolTip*)( m_pQuickJoinTooltip );

  0001c	8b 0e		 mov	 ecx, DWORD PTR [esi]
  0001e	5e		 pop	 esi

; 152  : 	if( pQuickTooltip )

  0001f	85 c9		 test	 ecx, ecx
  00021	74 06		 je	 SHORT $LN1@SetQuickJo

; 154  : }

  00023	5d		 pop	 ebp

; 153  : 		pQuickTooltip->SetModeHelpTooltip( pCallWnd, nMode );

  00024	e9 00 00 00 00	 jmp	 ?SetModeHelpTooltip@CQuickModeToolTip@@QAEXPAVioWnd@@H@Z ; CQuickModeToolTip::SetModeHelpTooltip
$LN1@SetQuickJo:

; 154  : }

  00029	5d		 pop	 ebp
  0002a	c2 08 00	 ret	 8
?SetQuickJoinTooltip@QuickLobbyWnd@@QAEXPAVioWnd@@H@Z ENDP ; QuickLobbyWnd::SetQuickJoinTooltip
_TEXT	ENDS
PUBLIC	?SetShuffleToolTip@QuickLobbyWnd@@QAEX_N@Z	; QuickLobbyWnd::SetShuffleToolTip
EXTRN	__imp_?HideChildWnd@ioWnd@@QAEXK_N@Z:PROC
EXTRN	__imp_?ShowWnd@ioWnd@@QAEXXZ:PROC
EXTRN	__imp_?IsShow@ioWnd@@QBE_NXZ:PROC
; Function compile flags: /Ogsp
;	COMDAT ?SetShuffleToolTip@QuickLobbyWnd@@QAEX_N@Z
_TEXT	SEGMENT
_bShow$ = 8						; size = 1
?SetShuffleToolTip@QuickLobbyWnd@@QAEX_N@Z PROC		; QuickLobbyWnd::SetShuffleToolTip, COMDAT
; _this$ = ecx

; 157  : {

  00000	55		 push	 ebp
  00001	8b ec		 mov	 ebp, esp

; 158  : 	if( bShow )

  00003	80 7d 08 00	 cmp	 BYTE PTR _bShow$[ebp], 0
  00007	56		 push	 esi
  00008	74 27		 je	 SHORT $LN3@SetShuffle

; 159  : 	{
; 160  : 		ioWnd *pWnd = FindChildWnd( ID_SHUFFLE_TOOLTIP );

  0000a	68 f6 01 00 00	 push	 502			; 000001f6H
  0000f	ff 15 00 00 00
	00		 call	 DWORD PTR __imp_?FindChildWnd@ioWnd@@QAEPAV1@K@Z
  00015	8b f0		 mov	 esi, eax

; 161  : 		if( pWnd && !pWnd->IsShow() )

  00017	85 f6		 test	 esi, esi
  00019	74 23		 je	 SHORT $LN1@SetShuffle
  0001b	8b ce		 mov	 ecx, esi
  0001d	ff 15 00 00 00
	00		 call	 DWORD PTR __imp_?IsShow@ioWnd@@QBE_NXZ
  00023	84 c0		 test	 al, al
  00025	75 17		 jne	 SHORT $LN1@SetShuffle

; 162  : 			pWnd->ShowWnd();

  00027	8b ce		 mov	 ecx, esi
  00029	ff 15 00 00 00
	00		 call	 DWORD PTR __imp_?ShowWnd@ioWnd@@QAEXXZ

; 163  : 	}
; 164  : 	else

  0002f	eb 0d		 jmp	 SHORT $LN1@SetShuffle
$LN3@SetShuffle:

; 165  : 	{
; 166  : 		HideChildWnd( ID_SHUFFLE_TOOLTIP );

  00031	6a 00		 push	 0
  00033	68 f6 01 00 00	 push	 502			; 000001f6H
  00038	ff 15 00 00 00
	00		 call	 DWORD PTR __imp_?HideChildWnd@ioWnd@@QAEXK_N@Z
$LN1@SetShuffle:
  0003e	5e		 pop	 esi

; 167  : 	}
; 168  : }

  0003f	5d		 pop	 ebp
  00040	c2 04 00	 ret	 4
?SetShuffleToolTip@QuickLobbyWnd@@QAEX_N@Z ENDP		; QuickLobbyWnd::SetShuffleToolTip
; Function compile flags: /Ogsp
_TEXT	ENDS
;	COMDAT ?iwm_esc@QuickLobbyWnd@@UAE_NXZ
_TEXT	SEGMENT
?iwm_esc@QuickLobbyWnd@@UAE_NXZ PROC			; QuickLobbyWnd::iwm_esc, COMDAT
; _this$ = ecx

; 172  : 	HideWnd();

  00000	ff 15 00 00 00
	00		 call	 DWORD PTR __imp_?HideWnd@ioWnd@@QAEXXZ

; 173  : 	return true;

  00006	b0 01		 mov	 al, 1

; 174  : }

  00008	c3		 ret	 0
?iwm_esc@QuickLobbyWnd@@UAE_NXZ ENDP			; QuickLobbyWnd::iwm_esc
_TEXT	ENDS
PUBLIC	?HideInfo@QuickLobbyWnd@@QAEXK@Z		; QuickLobbyWnd::HideInfo
; Function compile flags: /Ogsp
;	COMDAT ?HideInfo@QuickLobbyWnd@@QAEXK@Z
_TEXT	SEGMENT
_dwWndID$ = 8						; size = 4
?HideInfo@QuickLobbyWnd@@QAEXK@Z PROC			; QuickLobbyWnd::HideInfo, COMDAT
; _this$ = ecx

; 256  : {

  00000	55		 push	 ebp
  00001	8b ec		 mov	 ebp, esp

; 257  : 	switch( dwWndID )

  00003	83 7d 08 0b	 cmp	 DWORD PTR _dwWndID$[ebp], 11 ; 0000000bH
  00007	75 0a		 jne	 SHORT $LN2@HideInfo

; 258  : 	{
; 259  : 	case CAMP:
; 260  : 		{
; 261  : 			HideChildWnd( CAMP_INFO );

  00009	6a 00		 push	 0
  0000b	6a 03		 push	 3
  0000d	ff 15 00 00 00
	00		 call	 DWORD PTR __imp_?HideChildWnd@ioWnd@@QAEXK_N@Z
$LN2@HideInfo:

; 262  : 		}
; 263  : 		break;
; 264  : 	}
; 265  : }

  00013	5d		 pop	 ebp
  00014	c2 04 00	 ret	 4
?HideInfo@QuickLobbyWnd@@QAEXK@Z ENDP			; QuickLobbyWnd::HideInfo
_TEXT	ENDS
PUBLIC	??_C@_0BH@EMGOAFN@QuickLobbyWnd?3?3SeTitle?$AA@	; `string'
PUBLIC	?SeTitle@QuickLobbyWnd@@QAEXK@Z			; QuickLobbyWnd::SeTitle
EXTRN	__imp_?SetTitleText@ioWnd@@QAEXPBD0H@Z:PROC
EXTRN	__imp_?GetString@ioStringManager@@QAEPADPBD0HW4FileNamePrefix@1@@Z:PROC
EXTRN	__imp_?GetSingleton@ioStringManager@@SAAAV1@XZ:PROC
;	COMDAT ??_C@_0BH@EMGOAFN@QuickLobbyWnd?3?3SeTitle?$AA@
CONST	SEGMENT
??_C@_0BH@EMGOAFN@QuickLobbyWnd?3?3SeTitle?$AA@ DB 'QuickLobbyWnd::SeTitl'
	DB	'e', 00H					; `string'
; Function compile flags: /Ogsp
CONST	ENDS
;	COMDAT ?SeTitle@QuickLobbyWnd@@QAEXK@Z
_TEXT	SEGMENT
_dwWndID$ = 8						; size = 4
?SeTitle@QuickLobbyWnd@@QAEXK@Z PROC			; QuickLobbyWnd::SeTitle, COMDAT
; _this$ = ecx

; 268  : {

  00000	55		 push	 ebp
  00001	8b ec		 mov	 ebp, esp

; 269  : 	switch( dwWndID )

  00003	8b 45 08	 mov	 eax, DWORD PTR _dwWndID$[ebp]
  00006	83 e8 0a	 sub	 eax, 10			; 0000000aH
  00009	56		 push	 esi
  0000a	8b f1		 mov	 esi, ecx

; 286  : 	default:
; 287  : 		SetTitleText( "" );

  0000c	6a 00		 push	 0
  0000e	74 3e		 je	 SHORT $LN6@SeTitle

; 269  : 	switch( dwWndID )

  00010	48		 dec	 eax
  00011	74 2f		 je	 SHORT $LN5@SeTitle
  00013	48		 dec	 eax
  00014	74 20		 je	 SHORT $LN4@SeTitle
  00016	83 e8 03	 sub	 eax, 3
  00019	74 0f		 je	 SHORT $LN3@SeTitle
  0001b	48		 dec	 eax

; 286  : 	default:
; 287  : 		SetTitleText( "" );

  0001c	b8 00 00 00 00	 mov	 eax, OFFSET ??_C@_00CNPNBAHC@?$AA@
  00021	50		 push	 eax
  00022	75 4a		 jne	 SHORT $LN11@SeTitle

; 283  : 	case TOURNAMENT:
; 284  : 		SetTitleText( STR(5) );

  00024	6a 00		 push	 0
  00026	6a 05		 push	 5

; 285  : 		break;

  00028	eb 2e		 jmp	 SHORT $LN12@SeTitle
$LN3@SeTitle:

; 280  : 	case TRADE:
; 281  : 		SetTitleText( STR(4) );

  0002a	b8 00 00 00 00	 mov	 eax, OFFSET ??_C@_00CNPNBAHC@?$AA@
  0002f	50		 push	 eax
  00030	6a 00		 push	 0
  00032	6a 04		 push	 4

; 282  : 		break;

  00034	eb 22		 jmp	 SHORT $LN12@SeTitle
$LN4@SeTitle:

; 277  : 	case PLAZA: 
; 278  : 		SetTitleText( STR(3) );

  00036	b8 00 00 00 00	 mov	 eax, OFFSET ??_C@_00CNPNBAHC@?$AA@
  0003b	50		 push	 eax
  0003c	6a 00		 push	 0
  0003e	6a 03		 push	 3

; 279  : 		break;

  00040	eb 16		 jmp	 SHORT $LN12@SeTitle
$LN5@SeTitle:

; 273  : 		break;
; 274  : 	case CAMP:
; 275  : 		SetTitleText( STR(2) );

  00042	b8 00 00 00 00	 mov	 eax, OFFSET ??_C@_00CNPNBAHC@?$AA@
  00047	50		 push	 eax
  00048	6a 00		 push	 0
  0004a	6a 02		 push	 2

; 276  : 		break;

  0004c	eb 0a		 jmp	 SHORT $LN12@SeTitle
$LN6@SeTitle:

; 270  : 	{
; 271  : 	case BATTLE: 
; 272  : 		SetTitleText( STR(1) );

  0004e	b8 00 00 00 00	 mov	 eax, OFFSET ??_C@_00CNPNBAHC@?$AA@
  00053	50		 push	 eax
  00054	6a 00		 push	 0
  00056	6a 01		 push	 1
$LN12@SeTitle:
  00058	50		 push	 eax
  00059	68 00 00 00 00	 push	 OFFSET ??_C@_0BH@EMGOAFN@QuickLobbyWnd?3?3SeTitle?$AA@
  0005e	ff 15 00 00 00
	00		 call	 DWORD PTR __imp_?GetSingleton@ioStringManager@@SAAAV1@XZ
  00064	8b c8		 mov	 ecx, eax
  00066	ff 15 00 00 00
	00		 call	 DWORD PTR __imp_?GetString@ioStringManager@@QAEPADPBD0HW4FileNamePrefix@1@@Z
  0006c	8b ce		 mov	 ecx, esi
$LN11@SeTitle:
  0006e	50		 push	 eax
  0006f	ff 15 00 00 00
	00		 call	 DWORD PTR __imp_?SetTitleText@ioWnd@@QAEXPBD0H@Z
  00075	5e		 pop	 esi

; 288  : 	}
; 289  : }

  00076	5d		 pop	 ebp
  00077	c2 04 00	 ret	 4
?SeTitle@QuickLobbyWnd@@QAEXK@Z ENDP			; QuickLobbyWnd::SeTitle
_TEXT	ENDS
PUBLIC	?CalcSize@QuickLobbyWnd@@QAEXK@Z		; QuickLobbyWnd::CalcSize
; Function compile flags: /Ogsp
;	COMDAT ?CalcSize@QuickLobbyWnd@@QAEXK@Z
_TEXT	SEGMENT
_dwWndID$ = 8						; size = 4
?CalcSize@QuickLobbyWnd@@QAEXK@Z PROC			; QuickLobbyWnd::CalcSize, COMDAT
; _this$ = ecx

; 292  : {

  00000	55		 push	 ebp
  00001	8b ec		 mov	 ebp, esp

; 293  : 	switch( dwWndID )

  00003	8b 45 08	 mov	 eax, DWORD PTR _dwWndID$[ebp]
  00006	83 e8 0a	 sub	 eax, 10			; 0000000aH
  00009	74 12		 je	 SHORT $LN2@CalcSize
  0000b	48		 dec	 eax
  0000c	48		 dec	 eax
  0000d	74 0e		 je	 SHORT $LN2@CalcSize

; 298  : 		break;
; 299  : 	default:
; 300  : 		SetSize( m_iDefWidth, m_iDefHeight );

  0000f	ff b1 cc 00 00
	00		 push	 DWORD PTR [ecx+204]
  00015	ff b1 c8 00 00
	00		 push	 DWORD PTR [ecx+200]

; 301  : 		break;

  0001b	eb 0a		 jmp	 SHORT $LN7@CalcSize
$LN2@CalcSize:

; 294  : 	{
; 295  : 	case BATTLE:
; 296  : 	case PLAZA:
; 297  : 		SetSize( 437, 416 );

  0001d	68 a0 01 00 00	 push	 416			; 000001a0H
  00022	68 b5 01 00 00	 push	 437			; 000001b5H
$LN7@CalcSize:
  00027	8b 01		 mov	 eax, DWORD PTR [ecx]
  00029	ff 50 2c	 call	 DWORD PTR [eax+44]

; 302  : 	}
; 303  : }

  0002c	5d		 pop	 ebp
  0002d	c2 04 00	 ret	 4
?CalcSize@QuickLobbyWnd@@QAEXK@Z ENDP			; QuickLobbyWnd::CalcSize
; Function compile flags: /Ogsp
_TEXT	ENDS
;	COMDAT ?OnExitButtonDown@QuickLobbyWnd@@UAEXPAVioWndEX@@AAVioWndEXMouseEvent@@@Z
_TEXT	SEGMENT
_wnd$ = 8						; size = 4
_event$ = 12						; size = 4
?OnExitButtonDown@QuickLobbyWnd@@UAEXPAVioWndEX@@AAVioWndEXMouseEvent@@@Z PROC ; QuickLobbyWnd::OnExitButtonDown, COMDAT
; _this$ = ecx

; 333  : 	HideWnd();

  00000	ff 15 00 00 00
	00		 call	 DWORD PTR __imp_?HideWnd@ioWnd@@QAEXXZ

; 334  : }

  00006	c2 08 00	 ret	 8
?OnExitButtonDown@QuickLobbyWnd@@UAEXPAVioWndEX@@AAVioWndEXMouseEvent@@@Z ENDP ; QuickLobbyWnd::OnExitButtonDown
_TEXT	ENDS
PUBLIC	?Layout@QuickLobbyWnd@@QAEXHH@Z			; QuickLobbyWnd::Layout
EXTRN	__imp_?m_fScreenRateY@ioWnd@@1MA:DWORD
EXTRN	__imp_?m_fScreenRateX@ioWnd@@1MA:DWORD
EXTRN	__imp_?GetHeight@ioWnd@@QBEHXZ:PROC
EXTRN	__imp_?GetWidth@ioWnd@@QBEHXZ:PROC
EXTRN	__imp_?GetYPos@ioWnd@@QBEHXZ:PROC
EXTRN	__imp_?GetXPos@ioWnd@@QBEHXZ:PROC
EXTRN	__fltused:DWORD
; Function compile flags: /Ogsp
;	COMDAT ?Layout@QuickLobbyWnd@@QAEXHH@Z
_TEXT	SEGMENT
_rcRect$ = -24						; size = 16
_parentx$ = -8						; size = 4
_parenty$ = -4						; size = 4
_iWidth$ = 8						; size = 4
_iHeight$ = 12						; size = 4
?Layout@QuickLobbyWnd@@QAEXHH@Z PROC			; QuickLobbyWnd::Layout, COMDAT
; _this$ = ecx

; 337  : {

  00000	55		 push	 ebp
  00001	8b ec		 mov	 ebp, esp
  00003	83 ec 18	 sub	 esp, 24			; 00000018H
  00006	56		 push	 esi
  00007	8b f1		 mov	 esi, ecx

; 338  : 	if( !m_pParent )

  00009	8b 4e 40	 mov	 ecx, DWORD PTR [esi+64]
  0000c	85 c9		 test	 ecx, ecx
  0000e	0f 84 18 01 00
	00		 je	 $LN14@Layout

; 339  : 		return;
; 340  : 
; 341  : 	int parentx      = m_pParent->GetXPos();

  00014	53		 push	 ebx
  00015	57		 push	 edi
  00016	ff 15 00 00 00
	00		 call	 DWORD PTR __imp_?GetXPos@ioWnd@@QBEHXZ

; 342  : 	int parenty      = m_pParent->GetYPos();

  0001c	8b 4e 40	 mov	 ecx, DWORD PTR [esi+64]
  0001f	89 45 f8	 mov	 DWORD PTR _parentx$[ebp], eax
  00022	ff 15 00 00 00
	00		 call	 DWORD PTR __imp_?GetYPos@ioWnd@@QBEHXZ

; 343  : 	int parentwidth  = m_pParent->GetWidth();

  00028	8b 4e 40	 mov	 ecx, DWORD PTR [esi+64]
  0002b	89 45 fc	 mov	 DWORD PTR _parenty$[ebp], eax
  0002e	ff 15 00 00 00
	00		 call	 DWORD PTR __imp_?GetWidth@ioWnd@@QBEHXZ

; 344  : 	int parentheight = m_pParent->GetHeight();

  00034	8b 4e 40	 mov	 ecx, DWORD PTR [esi+64]
  00037	8b d8		 mov	 ebx, eax
  00039	ff 15 00 00 00
	00		 call	 DWORD PTR __imp_?GetHeight@ioWnd@@QBEHXZ

; 345  : 
; 346  : 	RECT rcRect = { 0, 0, 0, 0 };
; 347  : 	rcRect.left = m_iDefXPos;

  0003f	8b be c0 00 00
	00		 mov	 edi, DWORD PTR [esi+192]
  00045	8b c8		 mov	 ecx, eax

; 348  : 		
; 349  : 	switch( m_XPosAlign )

  00047	8b 86 b8 00 00
	00		 mov	 eax, DWORD PTR [esi+184]
  0004d	83 e8 00	 sub	 eax, 0
  00050	89 7d e8	 mov	 DWORD PTR _rcRect$[ebp], edi
  00053	74 48		 je	 SHORT $LN10@Layout
  00055	48		 dec	 eax
  00056	74 3b		 je	 SHORT $LN7@Layout
  00058	48		 dec	 eax
  00059	74 23		 je	 SHORT $LN9@Layout
  0005b	48		 dec	 eax
  0005c	75 45		 jne	 SHORT $LN11@Layout

; 357  : 	case UI_RATE_ALIGN:
; 358  : 		rcRect.left = parentwidth * m_fScreenRateX;

  0005e	a1 00 00 00 00	 mov	 eax, DWORD PTR __imp_?m_fScreenRateX@ioWnd@@1MA
  00063	f3 0f 10 08	 movss	 xmm1, DWORD PTR [eax]
  00067	0f 57 c0	 xorps	 xmm0, xmm0
  0006a	f3 0f 2a c3	 cvtsi2ss xmm0, ebx
  0006e	0f 5a c0	 cvtps2pd xmm0, xmm0
  00071	0f 5a c9	 cvtps2pd xmm1, xmm1
  00074	f2 0f 59 c1	 mulsd	 xmm0, xmm1
  00078	f2 0f 2c f8	 cvttsd2si edi, xmm0

; 359  : 		break;

  0007c	eb 22		 jmp	 SHORT $LN16@Layout
$LN9@Layout:

; 353  : 		break;
; 354  : 	case UI_CENTER_ALIGN:
; 355  : 		rcRect.left = parentwidth / 2 - iWidth / 2;

  0007e	8b c3		 mov	 eax, ebx
  00080	99		 cdq
  00081	2b c2		 sub	 eax, edx
  00083	8b f8		 mov	 edi, eax
  00085	8b 45 08	 mov	 eax, DWORD PTR _iWidth$[ebp]
  00088	99		 cdq
  00089	2b c2		 sub	 eax, edx
  0008b	d1 ff		 sar	 edi, 1
  0008d	d1 f8		 sar	 eax, 1
  0008f	2b f8		 sub	 edi, eax

; 356  : 		break;

  00091	eb 0d		 jmp	 SHORT $LN16@Layout
$LN7@Layout:

; 360  : 	case UI_RIGHT_ALIGN:
; 361  : 		rcRect.left = parentx + parentwidth - iWidth;

  00093	2b 5d 08	 sub	 ebx, DWORD PTR _iWidth$[ebp]
  00096	03 5d f8	 add	 ebx, DWORD PTR _parentx$[ebp]
  00099	8b fb		 mov	 edi, ebx

; 362  : 		break;

  0009b	eb 03		 jmp	 SHORT $LN16@Layout
$LN10@Layout:

; 350  : 	{
; 351  : 	case UI_LEFT_ALIGN:
; 352  : 		rcRect.left = parentx;

  0009d	8b 7d f8	 mov	 edi, DWORD PTR _parentx$[ebp]
$LN16@Layout:
  000a0	89 7d e8	 mov	 DWORD PTR _rcRect$[ebp], edi
$LN11@Layout:

; 363  : 	}
; 364  : 
; 365  : 	rcRect.top = m_iDefYPos;
; 366  : 	switch( m_YPosAlign )

  000a3	8b 86 bc 00 00
	00		 mov	 eax, DWORD PTR [esi+188]
  000a9	8b 9e c4 00 00
	00		 mov	 ebx, DWORD PTR [esi+196]
  000af	48		 dec	 eax
  000b0	48		 dec	 eax
  000b1	89 5d ec	 mov	 DWORD PTR _rcRect$[ebp+4], ebx
  000b4	74 3a		 je	 SHORT $LN3@Layout
  000b6	48		 dec	 eax
  000b7	74 15		 je	 SHORT $LN2@Layout
  000b9	48		 dec	 eax
  000ba	74 0d		 je	 SHORT $LN4@Layout
  000bc	48		 dec	 eax
  000bd	75 47		 jne	 SHORT $LN5@Layout

; 377  : 	case UI_BOTTOM_ALIGN:
; 378  : 		rcRect.top = parenty + parentheight - iHeight;

  000bf	2b 4d 0c	 sub	 ecx, DWORD PTR _iHeight$[ebp]
  000c2	03 4d fc	 add	 ecx, DWORD PTR _parenty$[ebp]
  000c5	8b d9		 mov	 ebx, ecx

; 379  : 		break;

  000c7	eb 3a		 jmp	 SHORT $LN17@Layout
$LN4@Layout:

; 367  : 	{
; 368  : 	case UI_TOP_ALIGN:
; 369  : 		rcRect.top = parenty;

  000c9	8b 5d fc	 mov	 ebx, DWORD PTR _parenty$[ebp]

; 370  : 		break;

  000cc	eb 35		 jmp	 SHORT $LN17@Layout
$LN2@Layout:

; 373  : 		break;
; 374  : 	case UI_RATE_ALIGN:
; 375  : 		rcRect.top = parenty * m_fScreenRateY;

  000ce	66 0f 6e 45 fc	 movd	 xmm0, DWORD PTR _parenty$[ebp]
  000d3	a1 00 00 00 00	 mov	 eax, DWORD PTR __imp_?m_fScreenRateY@ioWnd@@1MA
  000d8	f3 0f 10 08	 movss	 xmm1, DWORD PTR [eax]
  000dc	0f 5b c0	 cvtdq2ps xmm0, xmm0
  000df	f3 0f 5a c0	 cvtss2sd xmm0, xmm0
  000e3	0f 5a c9	 cvtps2pd xmm1, xmm1
  000e6	f2 0f 59 c1	 mulsd	 xmm0, xmm1
  000ea	f2 0f 2c d8	 cvttsd2si ebx, xmm0

; 376  : 		break;

  000ee	eb 13		 jmp	 SHORT $LN17@Layout
$LN3@Layout:

; 371  : 	case UI_CENTER_ALIGN:
; 372  : 		rcRect.top = parentheight / 2 - iHeight / 2;

  000f0	8b c1		 mov	 eax, ecx
  000f2	99		 cdq
  000f3	2b c2		 sub	 eax, edx
  000f5	8b d8		 mov	 ebx, eax
  000f7	8b 45 0c	 mov	 eax, DWORD PTR _iHeight$[ebp]
  000fa	99		 cdq
  000fb	2b c2		 sub	 eax, edx
  000fd	d1 fb		 sar	 ebx, 1
  000ff	d1 f8		 sar	 eax, 1
  00101	2b d8		 sub	 ebx, eax
$LN17@Layout:
  00103	89 5d ec	 mov	 DWORD PTR _rcRect$[ebp+4], ebx
$LN5@Layout:

; 380  : 	}
; 381  : 
; 382  : 	rcRect.right  = rcRect.left + GetWidth();

  00106	8b ce		 mov	 ecx, esi
  00108	ff 15 00 00 00
	00		 call	 DWORD PTR __imp_?GetWidth@ioWnd@@QBEHXZ
  0010e	03 c7		 add	 eax, edi

; 383  : 	rcRect.bottom = rcRect.top + GetHeight();

  00110	8b ce		 mov	 ecx, esi
  00112	89 45 f0	 mov	 DWORD PTR _rcRect$[ebp+8], eax
  00115	ff 15 00 00 00
	00		 call	 DWORD PTR __imp_?GetHeight@ioWnd@@QBEHXZ

; 384  : 
; 385  : 	m_rcPos	= rcRect;

  0011b	8d 7e 28	 lea	 edi, DWORD PTR [esi+40]
  0011e	03 c3		 add	 eax, ebx
  00120	89 45 f4	 mov	 DWORD PTR _rcRect$[ebp+12], eax
  00123	8d 75 e8	 lea	 esi, DWORD PTR _rcRect$[ebp]
  00126	a5		 movsd
  00127	a5		 movsd
  00128	a5		 movsd
  00129	a5		 movsd
  0012a	5f		 pop	 edi
  0012b	5b		 pop	 ebx
$LN14@Layout:
  0012c	5e		 pop	 esi

; 386  : }

  0012d	c9		 leave
  0012e	c2 08 00	 ret	 8
?Layout@QuickLobbyWnd@@QAEXHH@Z ENDP			; QuickLobbyWnd::Layout
_TEXT	ENDS
PUBLIC	?ApplyPlazaList@QuickLobbyWnd@@QAEXAAVSP2Packet@@@Z ; QuickLobbyWnd::ApplyPlazaList
EXTRN	?SetPlazaList@PlazaListWnd@@QAEXAAVSP2Packet@@@Z:PROC ; PlazaListWnd::SetPlazaList
; Function compile flags: /Ogsp
;	COMDAT ?ApplyPlazaList@QuickLobbyWnd@@QAEXAAVSP2Packet@@@Z
_TEXT	SEGMENT
_rkPacket$ = 8						; size = 4
?ApplyPlazaList@QuickLobbyWnd@@QAEXAAVSP2Packet@@@Z PROC ; QuickLobbyWnd::ApplyPlazaList, COMDAT
; _this$ = ecx

; 389  : {

  00000	55		 push	 ebp
  00001	8b ec		 mov	 ebp, esp
  00003	56		 push	 esi

; 390  : 	PlazaListWnd *pPlazaListWnd = (PlazaListWnd*)( FindChildWnd( PLAZA ) );

  00004	6a 0c		 push	 12			; 0000000cH
  00006	ff 15 00 00 00
	00		 call	 DWORD PTR __imp_?FindChildWnd@ioWnd@@QAEPAV1@K@Z
  0000c	8b f0		 mov	 esi, eax

; 391  : 	if( pPlazaListWnd && pPlazaListWnd->IsShow() )

  0000e	85 f6		 test	 esi, esi
  00010	74 16		 je	 SHORT $LN1@ApplyPlaza
  00012	8b ce		 mov	 ecx, esi
  00014	ff 15 00 00 00
	00		 call	 DWORD PTR __imp_?IsShow@ioWnd@@QBE_NXZ
  0001a	84 c0		 test	 al, al
  0001c	74 0a		 je	 SHORT $LN1@ApplyPlaza

; 392  : 		pPlazaListWnd->SetPlazaList( rkPacket );

  0001e	ff 75 08	 push	 DWORD PTR _rkPacket$[ebp]
  00021	8b ce		 mov	 ecx, esi
  00023	e8 00 00 00 00	 call	 ?SetPlazaList@PlazaListWnd@@QAEXAAVSP2Packet@@@Z ; PlazaListWnd::SetPlazaList
$LN1@ApplyPlaza:
  00028	5e		 pop	 esi

; 393  : }

  00029	5d		 pop	 ebp
  0002a	c2 04 00	 ret	 4
?ApplyPlazaList@QuickLobbyWnd@@QAEXAAVSP2Packet@@@Z ENDP ; QuickLobbyWnd::ApplyPlazaList
_TEXT	ENDS
PUBLIC	?ApplyTournamentList@QuickLobbyWnd@@QAEXAAVSP2Packet@@@Z ; QuickLobbyWnd::ApplyTournamentList
EXTRN	?ApplyTournamentList@TournamentMainWnd@@QAEXAAVSP2Packet@@@Z:PROC ; TournamentMainWnd::ApplyTournamentList
; Function compile flags: /Ogsp
;	COMDAT ?ApplyTournamentList@QuickLobbyWnd@@QAEXAAVSP2Packet@@@Z
_TEXT	SEGMENT
_rkPacket$ = 8						; size = 4
?ApplyTournamentList@QuickLobbyWnd@@QAEXAAVSP2Packet@@@Z PROC ; QuickLobbyWnd::ApplyTournamentList, COMDAT
; _this$ = ecx

; 396  : {

  00000	55		 push	 ebp
  00001	8b ec		 mov	 ebp, esp
  00003	56		 push	 esi

; 397  : 	TournamentMainWnd *pTournamentWnd = ( TournamentMainWnd * )( FindChildWnd( TOURNAMENT ) );

  00004	6a 10		 push	 16			; 00000010H
  00006	ff 15 00 00 00
	00		 call	 DWORD PTR __imp_?FindChildWnd@ioWnd@@QAEPAV1@K@Z
  0000c	8b f0		 mov	 esi, eax

; 398  : 	if( pTournamentWnd && pTournamentWnd->IsShow() )

  0000e	85 f6		 test	 esi, esi
  00010	74 16		 je	 SHORT $LN1@ApplyTourn
  00012	8b ce		 mov	 ecx, esi
  00014	ff 15 00 00 00
	00		 call	 DWORD PTR __imp_?IsShow@ioWnd@@QBE_NXZ
  0001a	84 c0		 test	 al, al
  0001c	74 0a		 je	 SHORT $LN1@ApplyTourn

; 399  : 		pTournamentWnd->ApplyTournamentList( rkPacket );

  0001e	ff 75 08	 push	 DWORD PTR _rkPacket$[ebp]
  00021	8b ce		 mov	 ecx, esi
  00023	e8 00 00 00 00	 call	 ?ApplyTournamentList@TournamentMainWnd@@QAEXAAVSP2Packet@@@Z ; TournamentMainWnd::ApplyTournamentList
$LN1@ApplyTourn:
  00028	5e		 pop	 esi

; 400  : }

  00029	5d		 pop	 ebp
  0002a	c2 04 00	 ret	 4
?ApplyTournamentList@QuickLobbyWnd@@QAEXAAVSP2Packet@@@Z ENDP ; QuickLobbyWnd::ApplyTournamentList
_TEXT	ENDS
PUBLIC	?ApplyTournamentConfirmCheck@QuickLobbyWnd@@QAEXAAVSP2Packet@@@Z ; QuickLobbyWnd::ApplyTournamentConfirmCheck
EXTRN	?ApplyTournamentConfirmCheck@TournamentMainWnd@@QAEXAAVSP2Packet@@@Z:PROC ; TournamentMainWnd::ApplyTournamentConfirmCheck
; Function compile flags: /Ogsp
;	COMDAT ?ApplyTournamentConfirmCheck@QuickLobbyWnd@@QAEXAAVSP2Packet@@@Z
_TEXT	SEGMENT
_rkPacket$ = 8						; size = 4
?ApplyTournamentConfirmCheck@QuickLobbyWnd@@QAEXAAVSP2Packet@@@Z PROC ; QuickLobbyWnd::ApplyTournamentConfirmCheck, COMDAT
; _this$ = ecx

; 403  : {

  00000	55		 push	 ebp
  00001	8b ec		 mov	 ebp, esp
  00003	56		 push	 esi

; 404  : 	TournamentMainWnd *pTournamentWnd = ( TournamentMainWnd * )( FindChildWnd( TOURNAMENT ) );

  00004	6a 10		 push	 16			; 00000010H
  00006	ff 15 00 00 00
	00		 call	 DWORD PTR __imp_?FindChildWnd@ioWnd@@QAEPAV1@K@Z
  0000c	8b f0		 mov	 esi, eax

; 405  : 	if( pTournamentWnd && pTournamentWnd->IsShow() )

  0000e	85 f6		 test	 esi, esi
  00010	74 16		 je	 SHORT $LN1@ApplyTourn@2
  00012	8b ce		 mov	 ecx, esi
  00014	ff 15 00 00 00
	00		 call	 DWORD PTR __imp_?IsShow@ioWnd@@QBE_NXZ
  0001a	84 c0		 test	 al, al
  0001c	74 0a		 je	 SHORT $LN1@ApplyTourn@2

; 406  : 		pTournamentWnd->ApplyTournamentConfirmCheck( rkPacket );

  0001e	ff 75 08	 push	 DWORD PTR _rkPacket$[ebp]
  00021	8b ce		 mov	 ecx, esi
  00023	e8 00 00 00 00	 call	 ?ApplyTournamentConfirmCheck@TournamentMainWnd@@QAEXAAVSP2Packet@@@Z ; TournamentMainWnd::ApplyTournamentConfirmCheck
$LN1@ApplyTourn@2:
  00028	5e		 pop	 esi

; 407  : }

  00029	5d		 pop	 ebp
  0002a	c2 04 00	 ret	 4
?ApplyTournamentConfirmCheck@QuickLobbyWnd@@QAEXAAVSP2Packet@@@Z ENDP ; QuickLobbyWnd::ApplyTournamentConfirmCheck
_TEXT	ENDS
PUBLIC	?ApplyTournamentConfirmRequest@QuickLobbyWnd@@QAEXAAVSP2Packet@@@Z ; QuickLobbyWnd::ApplyTournamentConfirmRequest
EXTRN	?ApplyTournamentConfirmRequest@TournamentMainWnd@@QAEXAAVSP2Packet@@@Z:PROC ; TournamentMainWnd::ApplyTournamentConfirmRequest
; Function compile flags: /Ogsp
;	COMDAT ?ApplyTournamentConfirmRequest@QuickLobbyWnd@@QAEXAAVSP2Packet@@@Z
_TEXT	SEGMENT
_rkPacket$ = 8						; size = 4
?ApplyTournamentConfirmRequest@QuickLobbyWnd@@QAEXAAVSP2Packet@@@Z PROC ; QuickLobbyWnd::ApplyTournamentConfirmRequest, COMDAT
; _this$ = ecx

; 410  : {

  00000	55		 push	 ebp
  00001	8b ec		 mov	 ebp, esp
  00003	56		 push	 esi

; 411  : 	TournamentMainWnd *pTournamentWnd = ( TournamentMainWnd * )( FindChildWnd( TOURNAMENT ) );

  00004	6a 10		 push	 16			; 00000010H
  00006	ff 15 00 00 00
	00		 call	 DWORD PTR __imp_?FindChildWnd@ioWnd@@QAEPAV1@K@Z
  0000c	8b f0		 mov	 esi, eax

; 412  : 	if( pTournamentWnd && pTournamentWnd->IsShow() )

  0000e	85 f6		 test	 esi, esi
  00010	74 16		 je	 SHORT $LN1@ApplyTourn@3
  00012	8b ce		 mov	 ecx, esi
  00014	ff 15 00 00 00
	00		 call	 DWORD PTR __imp_?IsShow@ioWnd@@QBE_NXZ
  0001a	84 c0		 test	 al, al
  0001c	74 0a		 je	 SHORT $LN1@ApplyTourn@3

; 413  : 		pTournamentWnd->ApplyTournamentConfirmRequest( rkPacket );

  0001e	ff 75 08	 push	 DWORD PTR _rkPacket$[ebp]
  00021	8b ce		 mov	 ecx, esi
  00023	e8 00 00 00 00	 call	 ?ApplyTournamentConfirmRequest@TournamentMainWnd@@QAEXAAVSP2Packet@@@Z ; TournamentMainWnd::ApplyTournamentConfirmRequest
$LN1@ApplyTourn@3:
  00028	5e		 pop	 esi

; 414  : }

  00029	5d		 pop	 ebp
  0002a	c2 04 00	 ret	 4
?ApplyTournamentConfirmRequest@QuickLobbyWnd@@QAEXAAVSP2Packet@@@Z ENDP ; QuickLobbyWnd::ApplyTournamentConfirmRequest
_TEXT	ENDS
PUBLIC	?ApplyNormalTeamList@QuickLobbyWnd@@QAEXAAVSP2Packet@@@Z ; QuickLobbyWnd::ApplyNormalTeamList
EXTRN	?SetPartyList@PartyCatalogueWnd@@QAEXAAVSP2Packet@@@Z:PROC ; PartyCatalogueWnd::SetPartyList
; Function compile flags: /Ogsp
;	COMDAT ?ApplyNormalTeamList@QuickLobbyWnd@@QAEXAAVSP2Packet@@@Z
_TEXT	SEGMENT
_rkPacket$ = 8						; size = 4
?ApplyNormalTeamList@QuickLobbyWnd@@QAEXAAVSP2Packet@@@Z PROC ; QuickLobbyWnd::ApplyNormalTeamList, COMDAT
; _this$ = ecx

; 417  : {

  00000	55		 push	 ebp
  00001	8b ec		 mov	 ebp, esp
  00003	56		 push	 esi

; 418  : 	PartyCatalogueWnd *pCatalogueWnd = (PartyCatalogueWnd*)( FindChildWnd( BATTLE ) );

  00004	6a 0a		 push	 10			; 0000000aH
  00006	ff 15 00 00 00
	00		 call	 DWORD PTR __imp_?FindChildWnd@ioWnd@@QAEPAV1@K@Z
  0000c	8b f0		 mov	 esi, eax

; 419  : 	if( pCatalogueWnd && pCatalogueWnd->IsShow() )

  0000e	85 f6		 test	 esi, esi
  00010	74 16		 je	 SHORT $LN1@ApplyNorma
  00012	8b ce		 mov	 ecx, esi
  00014	ff 15 00 00 00
	00		 call	 DWORD PTR __imp_?IsShow@ioWnd@@QBE_NXZ
  0001a	84 c0		 test	 al, al
  0001c	74 0a		 je	 SHORT $LN1@ApplyNorma

; 420  : 		pCatalogueWnd->SetPartyList( rkPacket );

  0001e	ff 75 08	 push	 DWORD PTR _rkPacket$[ebp]
  00021	8b ce		 mov	 ecx, esi
  00023	e8 00 00 00 00	 call	 ?SetPartyList@PartyCatalogueWnd@@QAEXAAVSP2Packet@@@Z ; PartyCatalogueWnd::SetPartyList
$LN1@ApplyNorma:
  00028	5e		 pop	 esi

; 421  : }

  00029	5d		 pop	 ebp
  0002a	c2 04 00	 ret	 4
?ApplyNormalTeamList@QuickLobbyWnd@@QAEXAAVSP2Packet@@@Z ENDP ; QuickLobbyWnd::ApplyNormalTeamList
_TEXT	ENDS
PUBLIC	?RefreshBattleList@QuickLobbyWnd@@QAEXK@Z	; QuickLobbyWnd::RefreshBattleList
EXTRN	?StartSend@PartyCatalogueWnd@@QAEX_N@Z:PROC	; PartyCatalogueWnd::StartSend
EXTRN	?IsIndexToList@PartyCatalogueWnd@@QAE_NK@Z:PROC	; PartyCatalogueWnd::IsIndexToList
; Function compile flags: /Ogsp
;	COMDAT ?RefreshBattleList@QuickLobbyWnd@@QAEXK@Z
_TEXT	SEGMENT
_dwIndex$ = 8						; size = 4
?RefreshBattleList@QuickLobbyWnd@@QAEXK@Z PROC		; QuickLobbyWnd::RefreshBattleList, COMDAT
; _this$ = ecx

; 424  : {

  00000	55		 push	 ebp
  00001	8b ec		 mov	 ebp, esp
  00003	56		 push	 esi

; 425  : 	PartyCatalogueWnd *pCatalogueWnd = (PartyCatalogueWnd*)( FindChildWnd( BATTLE ) );

  00004	6a 0a		 push	 10			; 0000000aH
  00006	ff 15 00 00 00
	00		 call	 DWORD PTR __imp_?FindChildWnd@ioWnd@@QAEPAV1@K@Z
  0000c	8b f0		 mov	 esi, eax

; 426  : 	if( pCatalogueWnd && pCatalogueWnd->IsShow() )

  0000e	85 f6		 test	 esi, esi
  00010	74 29		 je	 SHORT $LN2@RefreshBat
  00012	8b ce		 mov	 ecx, esi
  00014	ff 15 00 00 00
	00		 call	 DWORD PTR __imp_?IsShow@ioWnd@@QBE_NXZ
  0001a	84 c0		 test	 al, al
  0001c	74 1d		 je	 SHORT $LN2@RefreshBat

; 427  : 	{
; 428  : 		if( dwIndex == 0 || pCatalogueWnd->IsIndexToList( dwIndex ) )

  0001e	83 7d 08 00	 cmp	 DWORD PTR _dwIndex$[ebp], 0
  00022	74 0e		 je	 SHORT $LN1@RefreshBat
  00024	ff 75 08	 push	 DWORD PTR _dwIndex$[ebp]
  00027	8b ce		 mov	 ecx, esi
  00029	e8 00 00 00 00	 call	 ?IsIndexToList@PartyCatalogueWnd@@QAE_NK@Z ; PartyCatalogueWnd::IsIndexToList
  0002e	84 c0		 test	 al, al
  00030	74 09		 je	 SHORT $LN2@RefreshBat
$LN1@RefreshBat:

; 429  : 			pCatalogueWnd->StartSend( false );

  00032	6a 00		 push	 0
  00034	8b ce		 mov	 ecx, esi
  00036	e8 00 00 00 00	 call	 ?StartSend@PartyCatalogueWnd@@QAEX_N@Z ; PartyCatalogueWnd::StartSend
$LN2@RefreshBat:
  0003b	5e		 pop	 esi

; 430  : 	}
; 431  : }

  0003c	5d		 pop	 ebp
  0003d	c2 04 00	 ret	 4
?RefreshBattleList@QuickLobbyWnd@@QAEXK@Z ENDP		; QuickLobbyWnd::RefreshBattleList
_TEXT	ENDS
PUBLIC	??_R0?AVCampMainWnd@@@8				; CampMainWnd `RTTI Type Descriptor'
PUBLIC	?ApplyLadderTeamList@QuickLobbyWnd@@QAEXAAVSP2Packet@@@Z ; QuickLobbyWnd::ApplyLadderTeamList
EXTRN	?SetLadderTeamList@CampMainWnd@@QAEXAAVSP2Packet@@@Z:PROC ; CampMainWnd::SetLadderTeamList
;	COMDAT ??_R0?AVCampMainWnd@@@8
_DATA	SEGMENT
??_R0?AVCampMainWnd@@@8 DD FLAT:??_7type_info@@6B@	; CampMainWnd `RTTI Type Descriptor'
	DD	00H
	DB	'.?AVCampMainWnd@@', 00H
; Function compile flags: /Ogsp
_DATA	ENDS
;	COMDAT ?ApplyLadderTeamList@QuickLobbyWnd@@QAEXAAVSP2Packet@@@Z
_TEXT	SEGMENT
_rkPacket$ = 8						; size = 4
?ApplyLadderTeamList@QuickLobbyWnd@@QAEXAAVSP2Packet@@@Z PROC ; QuickLobbyWnd::ApplyLadderTeamList, COMDAT
; _this$ = ecx

; 434  : {

  00000	55		 push	 ebp
  00001	8b ec		 mov	 ebp, esp
  00003	56		 push	 esi

; 435  : 	CampMainWnd *pCampMainWnd = dynamic_cast<CampMainWnd*>( FindChildWnd( CAMP ) );

  00004	6a 00		 push	 0
  00006	68 00 00 00 00	 push	 OFFSET ??_R0?AVCampMainWnd@@@8
  0000b	68 00 00 00 00	 push	 OFFSET ??_R0?AVioWnd@@@8
  00010	6a 00		 push	 0
  00012	6a 0b		 push	 11			; 0000000bH
  00014	ff 15 00 00 00
	00		 call	 DWORD PTR __imp_?FindChildWnd@ioWnd@@QAEPAV1@K@Z
  0001a	50		 push	 eax
  0001b	e8 00 00 00 00	 call	 ___RTDynamicCast
  00020	8b f0		 mov	 esi, eax
  00022	83 c4 14	 add	 esp, 20			; 00000014H

; 436  : 	if( pCampMainWnd && pCampMainWnd->IsShow() )

  00025	85 f6		 test	 esi, esi
  00027	74 16		 je	 SHORT $LN1@ApplyLadde
  00029	8b ce		 mov	 ecx, esi
  0002b	ff 15 00 00 00
	00		 call	 DWORD PTR __imp_?IsShow@ioWnd@@QBE_NXZ
  00031	84 c0		 test	 al, al
  00033	74 0a		 je	 SHORT $LN1@ApplyLadde

; 437  : 		pCampMainWnd->SetLadderTeamList( rkPacket );

  00035	ff 75 08	 push	 DWORD PTR _rkPacket$[ebp]
  00038	8b ce		 mov	 ecx, esi
  0003a	e8 00 00 00 00	 call	 ?SetLadderTeamList@CampMainWnd@@QAEXAAVSP2Packet@@@Z ; CampMainWnd::SetLadderTeamList
$LN1@ApplyLadde:
  0003f	5e		 pop	 esi

; 438  : }

  00040	5d		 pop	 ebp
  00041	c2 04 00	 ret	 4
?ApplyLadderTeamList@QuickLobbyWnd@@QAEXAAVSP2Packet@@@Z ENDP ; QuickLobbyWnd::ApplyLadderTeamList
_TEXT	ENDS
PUBLIC	??_R0?AVTournamentMainWnd@@@8			; TournamentMainWnd `RTTI Type Descriptor'
PUBLIC	?SetTournamentLink@QuickLobbyWnd@@QAEXK@Z	; QuickLobbyWnd::SetTournamentLink
EXTRN	?SetTournamentLink@TournamentMainWnd@@QAEXK@Z:PROC ; TournamentMainWnd::SetTournamentLink
;	COMDAT ??_R0?AVTournamentMainWnd@@@8
_DATA	SEGMENT
??_R0?AVTournamentMainWnd@@@8 DD FLAT:??_7type_info@@6B@ ; TournamentMainWnd `RTTI Type Descriptor'
	DD	00H
	DB	'.?AVTournamentMainWnd@@', 00H
; Function compile flags: /Ogsp
_DATA	ENDS
;	COMDAT ?SetTournamentLink@QuickLobbyWnd@@QAEXK@Z
_TEXT	SEGMENT
_dwTourIndex$ = 8					; size = 4
?SetTournamentLink@QuickLobbyWnd@@QAEXK@Z PROC		; QuickLobbyWnd::SetTournamentLink, COMDAT
; _this$ = ecx

; 483  : {

  00000	55		 push	 ebp
  00001	8b ec		 mov	 ebp, esp

; 484  : 	TournamentMainWnd *pTournamentWnd = dynamic_cast< TournamentMainWnd * >( FindChildWnd( TOURNAMENT ) );

  00003	6a 00		 push	 0
  00005	68 00 00 00 00	 push	 OFFSET ??_R0?AVTournamentMainWnd@@@8
  0000a	68 00 00 00 00	 push	 OFFSET ??_R0?AVioWnd@@@8
  0000f	6a 00		 push	 0
  00011	6a 10		 push	 16			; 00000010H
  00013	ff 15 00 00 00
	00		 call	 DWORD PTR __imp_?FindChildWnd@ioWnd@@QAEPAV1@K@Z
  00019	50		 push	 eax
  0001a	e8 00 00 00 00	 call	 ___RTDynamicCast
  0001f	83 c4 14	 add	 esp, 20			; 00000014H

; 485  : 	if( pTournamentWnd )

  00022	85 c0		 test	 eax, eax
  00024	74 08		 je	 SHORT $LN1@SetTournam

; 486  : 	{
; 487  : 		pTournamentWnd->SetTournamentLink( dwTourIndex );

  00026	8b c8		 mov	 ecx, eax

; 488  : 	}
; 489  : }

  00028	5d		 pop	 ebp

; 486  : 	{
; 487  : 		pTournamentWnd->SetTournamentLink( dwTourIndex );

  00029	e9 00 00 00 00	 jmp	 ?SetTournamentLink@TournamentMainWnd@@QAEXK@Z ; TournamentMainWnd::SetTournamentLink
$LN1@SetTournam:

; 488  : 	}
; 489  : }

  0002e	5d		 pop	 ebp
  0002f	c2 04 00	 ret	 4
?SetTournamentLink@QuickLobbyWnd@@QAEXK@Z ENDP		; QuickLobbyWnd::SetTournamentLink
_TEXT	ENDS
PUBLIC	?QuestGuide@QuickLobbyWnd@@QAE_NHAAM0@Z		; QuickLobbyWnd::QuestGuide
EXTRN	?QuestGuide@PartyCatalogueWnd@@QAE_NHAAM0@Z:PROC ; PartyCatalogueWnd::QuestGuide
; Function compile flags: /Ogsp
;	COMDAT ?QuestGuide@QuickLobbyWnd@@QAE_NHAAM0@Z
_TEXT	SEGMENT
_iModeSelectIndex$ = 8					; size = 4
_rfXPos$ = 12						; size = 4
_rfYPos$ = 16						; size = 4
?QuestGuide@QuickLobbyWnd@@QAE_NHAAM0@Z PROC		; QuickLobbyWnd::QuestGuide, COMDAT
; _this$ = ecx

; 492  : {

  00000	55		 push	 ebp
  00001	8b ec		 mov	 ebp, esp
  00003	56		 push	 esi

; 493  : 	PartyCatalogueWnd *pCatalogueWnd = (PartyCatalogueWnd*)( FindChildWnd( BATTLE ) );

  00004	6a 0a		 push	 10			; 0000000aH
  00006	ff 15 00 00 00
	00		 call	 DWORD PTR __imp_?FindChildWnd@ioWnd@@QAEPAV1@K@Z
  0000c	8b f0		 mov	 esi, eax

; 494  : 	if( pCatalogueWnd && pCatalogueWnd->IsShow() )

  0000e	85 f6		 test	 esi, esi
  00010	74 1e		 je	 SHORT $LN1@QuestGuide
  00012	8b ce		 mov	 ecx, esi
  00014	ff 15 00 00 00
	00		 call	 DWORD PTR __imp_?IsShow@ioWnd@@QBE_NXZ
  0001a	84 c0		 test	 al, al
  0001c	74 12		 je	 SHORT $LN1@QuestGuide

; 495  : 	{
; 496  : 		return pCatalogueWnd->QuestGuide( iModeSelectIndex, rfXPos, rfYPos );

  0001e	ff 75 10	 push	 DWORD PTR _rfYPos$[ebp]
  00021	8b ce		 mov	 ecx, esi
  00023	ff 75 0c	 push	 DWORD PTR _rfXPos$[ebp]
  00026	ff 75 08	 push	 DWORD PTR _iModeSelectIndex$[ebp]
  00029	e8 00 00 00 00	 call	 ?QuestGuide@PartyCatalogueWnd@@QAE_NHAAM0@Z ; PartyCatalogueWnd::QuestGuide
  0002e	eb 02		 jmp	 SHORT $LN2@QuestGuide
$LN1@QuestGuide:

; 497  : 	}
; 498  : 
; 499  : 	return false;

  00030	32 c0		 xor	 al, al
$LN2@QuestGuide:
  00032	5e		 pop	 esi

; 500  : }

  00033	5d		 pop	 ebp
  00034	c2 0c 00	 ret	 12			; 0000000cH
?QuestGuide@QuickLobbyWnd@@QAE_NHAAM0@Z ENDP		; QuickLobbyWnd::QuestGuide
_TEXT	ENDS
PUBLIC	??_7QuickLobbyTradeInfoWnd@@6B@			; QuickLobbyTradeInfoWnd::`vftable'
PUBLIC	??0QuickLobbyTradeInfoWnd@@QAE@XZ		; QuickLobbyTradeInfoWnd::QuickLobbyTradeInfoWnd
PUBLIC	??_R4QuickLobbyTradeInfoWnd@@6B@		; QuickLobbyTradeInfoWnd::`RTTI Complete Object Locator'
PUBLIC	??_R0?AVQuickLobbyTradeInfoWnd@@@8		; QuickLobbyTradeInfoWnd `RTTI Type Descriptor'
PUBLIC	??_R3QuickLobbyTradeInfoWnd@@8			; QuickLobbyTradeInfoWnd::`RTTI Class Hierarchy Descriptor'
PUBLIC	??_R2QuickLobbyTradeInfoWnd@@8			; QuickLobbyTradeInfoWnd::`RTTI Base Class Array'
PUBLIC	??_R1A@?0A@EA@QuickLobbyTradeInfoWnd@@8		; QuickLobbyTradeInfoWnd::`RTTI Base Class Descriptor at (0,-1,0,64)'
PUBLIC	?iwm_create@QuickLobbyTradeInfoWnd@@UAEXXZ	; QuickLobbyTradeInfoWnd::iwm_create
PUBLIC	?iwm_show@QuickLobbyTradeInfoWnd@@UAEXXZ	; QuickLobbyTradeInfoWnd::iwm_show
PUBLIC	?iwm_hide@QuickLobbyTradeInfoWnd@@UAEXXZ	; QuickLobbyTradeInfoWnd::iwm_hide
EXTRN	__imp_??0ioWnd@@QAE@XZ:PROC
EXTRN	?ParseExtraInfo@ioWnd@@UAEXAAVioXMLElement@@@Z:PROC ; ioWnd::ParseExtraInfo
EXTRN	?SetPositionToDefault@ioWnd@@UAEXHH_N0@Z:PROC	; ioWnd::SetPositionToDefault
EXTRN	?OnMouseProcess@ioWnd@@MAEXABVioMouse@@@Z:PROC	; ioWnd::OnMouseProcess
EXTRN	?iwm_destroy@ioWnd@@UAEXXZ:PROC			; ioWnd::iwm_destroy
EXTRN	?iwm_lbuttondown@ioWnd@@UAEXABVioMouse@@@Z:PROC	; ioWnd::iwm_lbuttondown
EXTRN	?iwm_lbuttonup@ioWnd@@UAEXABVioMouse@@@Z:PROC	; ioWnd::iwm_lbuttonup
EXTRN	?iwm_lbuttonDBLCLK@ioWnd@@UAEXABVioMouse@@@Z:PROC ; ioWnd::iwm_lbuttonDBLCLK
EXTRN	?iwm_rbuttondown@ioWnd@@UAEXABVioMouse@@@Z:PROC	; ioWnd::iwm_rbuttondown
EXTRN	?iwm_rbuttonup@ioWnd@@UAEXABVioMouse@@@Z:PROC	; ioWnd::iwm_rbuttonup
EXTRN	?iwm_mouseover@ioWnd@@UAEXABVioMouse@@@Z:PROC	; ioWnd::iwm_mouseover
EXTRN	?iwm_mousemove@ioWnd@@UAEXABVioMouse@@@Z:PROC	; ioWnd::iwm_mousemove
EXTRN	?iwm_mouseleave@ioWnd@@UAEXABVioMouse@@@Z:PROC	; ioWnd::iwm_mouseleave
EXTRN	?iwm_wheel@ioWnd@@UAEXH@Z:PROC			; ioWnd::iwm_wheel
EXTRN	?iwm_esc@ioWnd@@UAE_NXZ:PROC			; ioWnd::iwm_esc
EXTRN	?iwm_spacebar@ioWnd@@UAE_NXZ:PROC		; ioWnd::iwm_spacebar
EXTRN	?IsEXType@ioWnd@@UBE_NXZ:PROC			; ioWnd::IsEXType
EXTRN	?GetHeaderFileName@ioWnd@@UAEPBDXZ:PROC		; ioWnd::GetHeaderFileName
EXTRN	?GetTemplateName@ioWnd@@UAEPBDXZ:PROC		; ioWnd::GetTemplateName
EXTRN	?GetDefClassName@ioWnd@@UBEPBDXZ:PROC		; ioWnd::GetDefClassName
EXTRN	?_Clone@ioWnd@@UAEPAV1@XZ:PROC			; ioWnd::_Clone
EXTRN	?SetSaveData@ioWnd@@UAEXAAVioXMLElement@@@Z:PROC ; ioWnd::SetSaveData
EXTRN	??_EQuickLobbyTradeInfoWnd@@UAEPAXI@Z:PROC	; QuickLobbyTradeInfoWnd::`vector deleting destructor'
;	COMDAT ??_R1A@?0A@EA@QuickLobbyTradeInfoWnd@@8
rdata$r	SEGMENT
??_R1A@?0A@EA@QuickLobbyTradeInfoWnd@@8 DD FLAT:??_R0?AVQuickLobbyTradeInfoWnd@@@8 ; QuickLobbyTradeInfoWnd::`RTTI Base Class Descriptor at (0,-1,0,64)'
	DD	01H
	DD	00H
	DD	0ffffffffH
	DD	00H
	DD	040H
	DD	FLAT:??_R3QuickLobbyTradeInfoWnd@@8
rdata$r	ENDS
;	COMDAT ??_R2QuickLobbyTradeInfoWnd@@8
rdata$r	SEGMENT
??_R2QuickLobbyTradeInfoWnd@@8 DD FLAT:??_R1A@?0A@EA@QuickLobbyTradeInfoWnd@@8 ; QuickLobbyTradeInfoWnd::`RTTI Base Class Array'
	DD	FLAT:??_R1A@?0A@EA@ioWnd@@8
rdata$r	ENDS
;	COMDAT ??_R3QuickLobbyTradeInfoWnd@@8
rdata$r	SEGMENT
??_R3QuickLobbyTradeInfoWnd@@8 DD 00H			; QuickLobbyTradeInfoWnd::`RTTI Class Hierarchy Descriptor'
	DD	00H
	DD	02H
	DD	FLAT:??_R2QuickLobbyTradeInfoWnd@@8
rdata$r	ENDS
;	COMDAT ??_R0?AVQuickLobbyTradeInfoWnd@@@8
_DATA	SEGMENT
??_R0?AVQuickLobbyTradeInfoWnd@@@8 DD FLAT:??_7type_info@@6B@ ; QuickLobbyTradeInfoWnd `RTTI Type Descriptor'
	DD	00H
	DB	'.?AVQuickLobbyTradeInfoWnd@@', 00H
_DATA	ENDS
;	COMDAT ??_R4QuickLobbyTradeInfoWnd@@6B@
rdata$r	SEGMENT
??_R4QuickLobbyTradeInfoWnd@@6B@ DD 00H			; QuickLobbyTradeInfoWnd::`RTTI Complete Object Locator'
	DD	00H
	DD	00H
	DD	FLAT:??_R0?AVQuickLobbyTradeInfoWnd@@@8
	DD	FLAT:??_R3QuickLobbyTradeInfoWnd@@8
rdata$r	ENDS
;	COMDAT ??_7QuickLobbyTradeInfoWnd@@6B@
CONST	SEGMENT
??_7QuickLobbyTradeInfoWnd@@6B@ DD FLAT:??_R4QuickLobbyTradeInfoWnd@@6B@ ; QuickLobbyTradeInfoWnd::`vftable'
	DD	FLAT:?AddRenderFrame@ioWnd@@UAEXABVioHashString@@PAVioUIRenderFrame@@@Z
	DD	FLAT:?AddRenderImage@ioWnd@@UAEXABVioHashString@@PAVioUIRenderImage@@@Z
	DD	FLAT:?AddTooltipHelp@ioWnd@@UAEXABVioHashString@@00@Z
	DD	FLAT:?ParseExtraInfo@ioWnd@@UAEXAAVioXMLElement@@@Z
	DD	FLAT:?AddNamedRenderImage@ioWnd@@UAEXABVioHashString@@PAVioUIRenderImage@@@Z
	DD	FLAT:?RemoveNamedRenderImage@ioWnd@@UAEXABVioHashString@@@Z
	DD	FLAT:?GetNamedRenderImage@ioWnd@@UBEPAVioUIRenderImage@@ABVioHashString@@@Z
	DD	FLAT:?SetWindowAlpha@ioWnd@@UAEXH@Z
	DD	FLAT:?SetActive@ioWnd@@UAEXXZ
	DD	FLAT:?SetInActive@ioWnd@@UAEXXZ
	DD	FLAT:?ClearElementImageList@ioWnd@@UAEXXZ
	DD	FLAT:?SetSize@ioWnd@@UAEXHH@Z
	DD	FLAT:?SetPositionToDefault@ioWnd@@UAEXHH_N0@Z
	DD	FLAT:?IsNeedProcess@ioWnd@@UBE_NXZ
	DD	FLAT:?IsCanMouseReaction@ioWnd@@UBE_NXZ
	DD	FLAT:?AddChild@ioWnd@@UAEXPAV1@@Z
	DD	FLAT:?DeleteChild@ioWnd@@UAEXK@Z
	DD	FLAT:?DeleteAllChild@ioWnd@@UAEXXZ
	DD	FLAT:?OnRenderShowAndHide@ioWnd@@MAE_NXZ
	DD	FLAT:?OnRenderShowAndHideByDefault@ioWnd@@MAE_NK@Z
	DD	FLAT:?OnRenderShowAndHideByTop@ioWnd@@MAE_NK@Z
	DD	FLAT:?OnRenderShowAndHideByDown@ioWnd@@MAE_NK@Z
	DD	FLAT:?OnRender@ioWnd@@MAEXXZ
	DD	FLAT:?OnRenderAfterChild@ioWnd@@MAEXXZ
	DD	FLAT:?OnProcess@ioWnd@@MAEXM@Z
	DD	FLAT:?OnMouseProcess@ioWnd@@MAEXABVioMouse@@@Z
	DD	FLAT:?CheckFrameReSize@ioWnd@@MAEXHHHH@Z
	DD	FLAT:?RenderImageList@ioWnd@@MAEXHHW4UIRenderType@@@Z
	DD	FLAT:?iwm_create@QuickLobbyTradeInfoWnd@@UAEXXZ
	DD	FLAT:?iwm_destroy@ioWnd@@UAEXXZ
	DD	FLAT:?iwm_lbuttondown@ioWnd@@UAEXABVioMouse@@@Z
	DD	FLAT:?iwm_lbuttonup@ioWnd@@UAEXABVioMouse@@@Z
	DD	FLAT:?iwm_lbuttonDBLCLK@ioWnd@@UAEXABVioMouse@@@Z
	DD	FLAT:?iwm_rbuttondown@ioWnd@@UAEXABVioMouse@@@Z
	DD	FLAT:?iwm_rbuttonup@ioWnd@@UAEXABVioMouse@@@Z
	DD	FLAT:?iwm_command@ioWnd@@UAEXPAV1@HK@Z
	DD	FLAT:?iwm_mouseover@ioWnd@@UAEXABVioMouse@@@Z
	DD	FLAT:?iwm_mousemove@ioWnd@@UAEXABVioMouse@@@Z
	DD	FLAT:?iwm_mouseleave@ioWnd@@UAEXABVioMouse@@@Z
	DD	FLAT:?iwm_vscroll@ioWnd@@UAEXKH@Z
	DD	FLAT:?iwm_wheel@ioWnd@@UAEXH@Z
	DD	FLAT:?iwm_show@QuickLobbyTradeInfoWnd@@UAEXXZ
	DD	FLAT:?iwm_hide@QuickLobbyTradeInfoWnd@@UAEXXZ
	DD	FLAT:?iwm_esc@ioWnd@@UAE_NXZ
	DD	FLAT:?iwm_spacebar@ioWnd@@UAE_NXZ
	DD	FLAT:?iwm_gototop@ioWnd@@UAEXXZ
	DD	FLAT:?iwm_dragenter@ioWnd@@UAE?AW4IWDropEffect@@PAVioDragItem@@ABVioMouse@@@Z
	DD	FLAT:?iwm_dragover@ioWnd@@UAE?AW4IWDropEffect@@PAVioDragItem@@ABVioMouse@@@Z
	DD	FLAT:?iwm_dragleave@ioWnd@@UAEXXZ
	DD	FLAT:?iwm_dropitem@ioWnd@@UAE_NPAVioDragItem@@ABVioMouse@@PAV1@@Z
	DD	FLAT:?iwm_dropdone@ioWnd@@UAEXPAVioDragItem@@PAV1@_N@Z
	DD	FLAT:?IsEXType@ioWnd@@UBE_NXZ
	DD	FLAT:?GetWndType@ioWnd@@UBEKXZ
	DD	FLAT:?RenderWnd@ioWnd@@UAEXXZ
	DD	FLAT:?SetIDEX@ioWnd@@UAEXAAK_N@Z
	DD	FLAT:?ParseXML@ioWnd@@UAEXAAVioXMLElement@@@Z
	DD	FLAT:?GetHeaderFileName@ioWnd@@UAEPBDXZ
	DD	FLAT:?GetTemplateName@ioWnd@@UAEPBDXZ
	DD	FLAT:?GetDefClassName@ioWnd@@UBEPBDXZ
	DD	FLAT:?_Clone@ioWnd@@UAEPAV1@XZ
	DD	FLAT:?Copy@ioWnd@@UAEXPAV1@@Z
	DD	FLAT:?Save@ioWnd@@UAE_NAAVioXMLElement@@@Z
	DD	FLAT:?SetSaveData@ioWnd@@UAEXAAVioXMLElement@@@Z
	DD	FLAT:?SetPosX@ioWnd@@UAEXH@Z
	DD	FLAT:?SetPosY@ioWnd@@UAEXH@Z
	DD	FLAT:?SetWidth@ioWnd@@UAEXH@Z
	DD	FLAT:?SetHeight@ioWnd@@UAEXH@Z
	DD	FLAT:?GetNumFixedRenderFrame@ioWnd@@UBEHXZ
	DD	FLAT:?GetFixedRenderFrameType@ioWnd@@UAEPBDH@Z
	DD	FLAT:?GetRenderFrame@ioWnd@@UAEPAPAVioUIRenderElement@@PBD@Z
	DD	FLAT:?GetNumFixedRenderImage@ioWnd@@UBEHXZ
	DD	FLAT:?GetFixedRenderImageType@ioWnd@@UAEPBDH@Z
	DD	FLAT:?GetRenderImage@ioWnd@@UAEPAPAVioUIRenderElement@@PBD@Z
	DD	FLAT:?AddEffect@ioWnd@@UAEXABVioHashString@@PAVioUI3DEffectRender@@@Z
	DD	FLAT:?GetEffect@ioWnd@@UAEPAVioUI3DEffectRender@@VioHashString@@@Z
	DD	FLAT:??_EQuickLobbyTradeInfoWnd@@UAEPAXI@Z
; Function compile flags: /Ogsp
CONST	ENDS
;	COMDAT ??0QuickLobbyTradeInfoWnd@@QAE@XZ
_TEXT	SEGMENT
??0QuickLobbyTradeInfoWnd@@QAE@XZ PROC			; QuickLobbyTradeInfoWnd::QuickLobbyTradeInfoWnd, COMDAT
; _this$ = ecx

; 518  : {

  00000	56		 push	 esi
  00001	8b f1		 mov	 esi, ecx
  00003	ff 15 00 00 00
	00		 call	 DWORD PTR __imp_??0ioWnd@@QAE@XZ

; 519  : 	m_pInfoWnd = NULL;

  00009	83 a6 60 01 00
	00 00		 and	 DWORD PTR [esi+352], 0
  00010	c7 06 00 00 00
	00		 mov	 DWORD PTR [esi], OFFSET ??_7QuickLobbyTradeInfoWnd@@6B@

; 520  : }

  00016	8b c6		 mov	 eax, esi
  00018	5e		 pop	 esi
  00019	c3		 ret	 0
??0QuickLobbyTradeInfoWnd@@QAE@XZ ENDP			; QuickLobbyTradeInfoWnd::QuickLobbyTradeInfoWnd
_TEXT	ENDS
PUBLIC	??1QuickLobbyTradeInfoWnd@@UAE@XZ		; QuickLobbyTradeInfoWnd::~QuickLobbyTradeInfoWnd
EXTRN	__imp_??1ioWnd@@UAE@XZ:PROC
; Function compile flags: /Ogsp
;	COMDAT ??1QuickLobbyTradeInfoWnd@@UAE@XZ
_TEXT	SEGMENT
??1QuickLobbyTradeInfoWnd@@UAE@XZ PROC			; QuickLobbyTradeInfoWnd::~QuickLobbyTradeInfoWnd, COMDAT
; _this$ = ecx

; 524  : 	m_pInfoWnd = NULL;

  00000	83 a1 60 01 00
	00 00		 and	 DWORD PTR [ecx+352], 0
  00007	c7 01 00 00 00
	00		 mov	 DWORD PTR [ecx], OFFSET ??_7QuickLobbyTradeInfoWnd@@6B@

; 525  : }

  0000d	ff 25 00 00 00
	00		 jmp	 DWORD PTR __imp_??1ioWnd@@UAE@XZ
??1QuickLobbyTradeInfoWnd@@UAE@XZ ENDP			; QuickLobbyTradeInfoWnd::~QuickLobbyTradeInfoWnd
_TEXT	ENDS
PUBLIC	??_C@_0BP@JJFNKFLI@XML?1LobbyOwnerTradeListWnd?4xml?$AA@ ; `string'
EXTRN	?PlazaUIMove@LobbyOwnerTradeListWnd@@QAEXH@Z:PROC ; LobbyOwnerTradeListWnd::PlazaUIMove
EXTRN	__imp_?AddWnd@ioGUIManager@@QAEPAVioWnd@@PBDPAV2@@Z:PROC
EXTRN	?GetSingleton@ioSP2GUIManager@@SAAAV1@XZ:PROC	; ioSP2GUIManager::GetSingleton
;	COMDAT ??_C@_0BP@JJFNKFLI@XML?1LobbyOwnerTradeListWnd?4xml?$AA@
; File d:\lost saga for developer\youtube\tutorial\source\src\lsclient\gui\trademainwnd.h
CONST	SEGMENT
??_C@_0BP@JJFNKFLI@XML?1LobbyOwnerTradeListWnd?4xml?$AA@ DB 'XML/LobbyOwn'
	DB	'erTradeListWnd.xml', 00H			; `string'
; Function compile flags: /Ogsp
; File d:\lost saga for developer\youtube\tutorial\source\src\lsclient\gui\quicklobbywnd.cpp
CONST	ENDS
;	COMDAT ?iwm_create@QuickLobbyTradeInfoWnd@@UAEXXZ
_TEXT	SEGMENT
?iwm_create@QuickLobbyTradeInfoWnd@@UAEXXZ PROC		; QuickLobbyTradeInfoWnd::iwm_create, COMDAT
; _this$ = ecx

; 528  : {

  00000	56		 push	 esi
  00001	8b f1		 mov	 esi, ecx

; 529  : 	m_pInfoWnd = (LobbyOwnerTradeListWnd*)( g_GUIMgr.AddWnd( "XML/LobbyOwnerTradeListWnd.xml", this ) );

  00003	56		 push	 esi
  00004	68 00 00 00 00	 push	 OFFSET ??_C@_0BP@JJFNKFLI@XML?1LobbyOwnerTradeListWnd?4xml?$AA@
  00009	e8 00 00 00 00	 call	 ?GetSingleton@ioSP2GUIManager@@SAAAV1@XZ ; ioSP2GUIManager::GetSingleton
  0000e	8b c8		 mov	 ecx, eax
  00010	ff 15 00 00 00
	00		 call	 DWORD PTR __imp_?AddWnd@ioGUIManager@@QAEPAVioWnd@@PBDPAV2@@Z
  00016	8d 8e 60 01 00
	00		 lea	 ecx, DWORD PTR [esi+352]
  0001c	89 01		 mov	 DWORD PTR [ecx], eax
  0001e	5e		 pop	 esi

; 530  : 	if( m_pInfoWnd )

  0001f	85 c0		 test	 eax, eax
  00021	74 13		 je	 SHORT $LN1@iwm_create

; 531  : 	{
; 532  : 		m_pInfoWnd->SetMaxTradeList( LobbyOwnerTradeListWnd::OWNER_MAX_TRADE );

  00023	c7 80 6c 01 00
	00 07 00 00 00	 mov	 DWORD PTR [eax+364], 7

; 533  : 		m_pInfoWnd->PlazaUIMove();

  0002d	8b 09		 mov	 ecx, DWORD PTR [ecx]
  0002f	6a 00		 push	 0
  00031	e8 00 00 00 00	 call	 ?PlazaUIMove@LobbyOwnerTradeListWnd@@QAEXH@Z ; LobbyOwnerTradeListWnd::PlazaUIMove
$LN1@iwm_create:

; 534  : 	}
; 535  : }

  00036	c3		 ret	 0
?iwm_create@QuickLobbyTradeInfoWnd@@UAEXXZ ENDP		; QuickLobbyTradeInfoWnd::iwm_create
; Function compile flags: /Ogsp
_TEXT	ENDS
;	COMDAT ?iwm_hide@QuickLobbyTradeInfoWnd@@UAEXXZ
_TEXT	SEGMENT
?iwm_hide@QuickLobbyTradeInfoWnd@@UAEXXZ PROC		; QuickLobbyTradeInfoWnd::iwm_hide, COMDAT
; _this$ = ecx

; 539  : 	if( m_pInfoWnd )

  00000	8b 89 60 01 00
	00		 mov	 ecx, DWORD PTR [ecx+352]
  00006	85 c9		 test	 ecx, ecx
  00008	74 06		 je	 SHORT $LN1@iwm_hide@2

; 540  : 		m_pInfoWnd->HideWnd();

  0000a	ff 25 00 00 00
	00		 jmp	 DWORD PTR __imp_?HideWnd@ioWnd@@QAEXXZ
$LN1@iwm_hide@2:

; 541  : }

  00010	c3		 ret	 0
?iwm_hide@QuickLobbyTradeInfoWnd@@UAEXXZ ENDP		; QuickLobbyTradeInfoWnd::iwm_hide
; Function compile flags: /Ogsp
_TEXT	ENDS
;	COMDAT ?iwm_show@QuickLobbyTradeInfoWnd@@UAEXXZ
_TEXT	SEGMENT
?iwm_show@QuickLobbyTradeInfoWnd@@UAEXXZ PROC		; QuickLobbyTradeInfoWnd::iwm_show, COMDAT
; _this$ = ecx

; 545  : 	if( m_pInfoWnd )

  00000	8b 89 60 01 00
	00		 mov	 ecx, DWORD PTR [ecx+352]
  00006	85 c9		 test	 ecx, ecx
  00008	74 06		 je	 SHORT $LN1@iwm_show@2

; 546  : 		m_pInfoWnd->ShowWnd();

  0000a	ff 25 00 00 00
	00		 jmp	 DWORD PTR __imp_?ShowWnd@ioWnd@@QAEXXZ
$LN1@iwm_show@2:

; 547  : }

  00010	c3		 ret	 0
?iwm_show@QuickLobbyTradeInfoWnd@@UAEXXZ ENDP		; QuickLobbyTradeInfoWnd::iwm_show
_TEXT	ENDS
PUBLIC	?OnRefreshTradeItemList@QuickLobbyTradeInfoWnd@@QAEXXZ ; QuickLobbyTradeInfoWnd::OnRefreshTradeItemList
EXTRN	?OnRefreshTradeItemList@LobbyOwnerTradeListWnd@@QAEXXZ:PROC ; LobbyOwnerTradeListWnd::OnRefreshTradeItemList
; Function compile flags: /Ogsp
;	COMDAT ?OnRefreshTradeItemList@QuickLobbyTradeInfoWnd@@QAEXXZ
_TEXT	SEGMENT
?OnRefreshTradeItemList@QuickLobbyTradeInfoWnd@@QAEXXZ PROC ; QuickLobbyTradeInfoWnd::OnRefreshTradeItemList, COMDAT
; _this$ = ecx

; 551  : 	if( m_pInfoWnd )

  00000	8b 89 60 01 00
	00		 mov	 ecx, DWORD PTR [ecx+352]
  00006	85 c9		 test	 ecx, ecx
  00008	74 05		 je	 SHORT $LN1@OnRefreshT

; 552  : 		m_pInfoWnd->OnRefreshTradeItemList();

  0000a	e9 00 00 00 00	 jmp	 ?OnRefreshTradeItemList@LobbyOwnerTradeListWnd@@QAEXXZ ; LobbyOwnerTradeListWnd::OnRefreshTradeItemList
$LN1@OnRefreshT:

; 553  : }

  0000f	c3		 ret	 0
?OnRefreshTradeItemList@QuickLobbyTradeInfoWnd@@QAEXXZ ENDP ; QuickLobbyTradeInfoWnd::OnRefreshTradeItemList
_TEXT	ENDS
PUBLIC	?ApplyTradeItemList@QuickLobbyTradeInfoWnd@@QAEXAAVSP2Packet@@H@Z ; QuickLobbyTradeInfoWnd::ApplyTradeItemList
EXTRN	?SetTradeItemList@LobbyOwnerTradeListWnd@@QAEXAAVSP2Packet@@H@Z:PROC ; LobbyOwnerTradeListWnd::SetTradeItemList
; Function compile flags: /Ogsp
;	COMDAT ?ApplyTradeItemList@QuickLobbyTradeInfoWnd@@QAEXAAVSP2Packet@@H@Z
_TEXT	SEGMENT
_rkPacket$ = 8						; size = 4
_iMaxSize$ = 12						; size = 4
?ApplyTradeItemList@QuickLobbyTradeInfoWnd@@QAEXAAVSP2Packet@@H@Z PROC ; QuickLobbyTradeInfoWnd::ApplyTradeItemList, COMDAT
; _this$ = ecx

; 556  : {

  00000	55		 push	 ebp
  00001	8b ec		 mov	 ebp, esp

; 557  : 	if( m_pInfoWnd )

  00003	8b 89 60 01 00
	00		 mov	 ecx, DWORD PTR [ecx+352]
  00009	85 c9		 test	 ecx, ecx
  0000b	74 06		 je	 SHORT $LN1@ApplyTrade

; 559  : }

  0000d	5d		 pop	 ebp

; 558  : 		m_pInfoWnd->SetTradeItemList( rkPacket, iMaxSize );

  0000e	e9 00 00 00 00	 jmp	 ?SetTradeItemList@LobbyOwnerTradeListWnd@@QAEXAAVSP2Packet@@H@Z ; LobbyOwnerTradeListWnd::SetTradeItemList
$LN1@ApplyTrade:

; 559  : }

  00013	5d		 pop	 ebp
  00014	c2 08 00	 ret	 8
?ApplyTradeItemList@QuickLobbyTradeInfoWnd@@QAEXAAVSP2Packet@@H@Z ENDP ; QuickLobbyTradeInfoWnd::ApplyTradeItemList
_TEXT	ENDS
PUBLIC	??_7?$ioWndEXEventHandlerEX@VQuickLobbyWndBase@@VioWndEXMouseEvent@@@@6B@ ; ioWndEXEventHandlerEX<QuickLobbyWndBase,ioWndEXMouseEvent>::`vftable'
PUBLIC	??1?$ioWndEXEventHandlerEX@VQuickLobbyWndBase@@VioWndEXMouseEvent@@@@UAE@XZ ; ioWndEXEventHandlerEX<QuickLobbyWndBase,ioWndEXMouseEvent>::~ioWndEXEventHandlerEX<QuickLobbyWndBase,ioWndEXMouseEvent>
PUBLIC	??_R4?$ioWndEXEventHandlerEX@VQuickLobbyWndBase@@VioWndEXMouseEvent@@@@6B@ ; ioWndEXEventHandlerEX<QuickLobbyWndBase,ioWndEXMouseEvent>::`RTTI Complete Object Locator'
PUBLIC	??_R0?AV?$ioWndEXEventHandlerEX@VQuickLobbyWndBase@@VioWndEXMouseEvent@@@@@8 ; ioWndEXEventHandlerEX<QuickLobbyWndBase,ioWndEXMouseEvent> `RTTI Type Descriptor'
PUBLIC	??_R3?$ioWndEXEventHandlerEX@VQuickLobbyWndBase@@VioWndEXMouseEvent@@@@8 ; ioWndEXEventHandlerEX<QuickLobbyWndBase,ioWndEXMouseEvent>::`RTTI Class Hierarchy Descriptor'
PUBLIC	??_R2?$ioWndEXEventHandlerEX@VQuickLobbyWndBase@@VioWndEXMouseEvent@@@@8 ; ioWndEXEventHandlerEX<QuickLobbyWndBase,ioWndEXMouseEvent>::`RTTI Base Class Array'
PUBLIC	??_R1A@?0A@EA@?$ioWndEXEventHandlerEX@VQuickLobbyWndBase@@VioWndEXMouseEvent@@@@8 ; ioWndEXEventHandlerEX<QuickLobbyWndBase,ioWndEXMouseEvent>::`RTTI Base Class Descriptor at (0,-1,0,64)'
PUBLIC	??_R1A@?0A@EA@ioWndEXEventHandlerBase@@8	; ioWndEXEventHandlerBase::`RTTI Base Class Descriptor at (0,-1,0,64)'
PUBLIC	??_R0?AVioWndEXEventHandlerBase@@@8		; ioWndEXEventHandlerBase `RTTI Type Descriptor'
PUBLIC	??_R3ioWndEXEventHandlerBase@@8			; ioWndEXEventHandlerBase::`RTTI Class Hierarchy Descriptor'
PUBLIC	??_R2ioWndEXEventHandlerBase@@8			; ioWndEXEventHandlerBase::`RTTI Base Class Array'
PUBLIC	?Call@?$ioWndEXEventHandlerEX@VQuickLobbyWndBase@@VioWndEXMouseEvent@@@@UAEXPAVioWndEX@@AAVioWndEXEvent@@@Z ; ioWndEXEventHandlerEX<QuickLobbyWndBase,ioWndEXMouseEvent>::Call
EXTRN	__imp_??1ioWndEXEventHandlerBase@@UAE@XZ:PROC
EXTRN	??_E?$ioWndEXEventHandlerEX@VQuickLobbyWndBase@@VioWndEXMouseEvent@@@@UAEPAXI@Z:PROC ; ioWndEXEventHandlerEX<QuickLobbyWndBase,ioWndEXMouseEvent>::`vector deleting destructor'
;	COMDAT ??_R2ioWndEXEventHandlerBase@@8
; File d:\lost saga for developer\youtube\tutorial\source\src\lsclient\gui\iowndexeventhandlerex.h
rdata$r	SEGMENT
??_R2ioWndEXEventHandlerBase@@8 DD FLAT:??_R1A@?0A@EA@ioWndEXEventHandlerBase@@8 ; ioWndEXEventHandlerBase::`RTTI Base Class Array'
rdata$r	ENDS
;	COMDAT ??_R3ioWndEXEventHandlerBase@@8
rdata$r	SEGMENT
??_R3ioWndEXEventHandlerBase@@8 DD 00H			; ioWndEXEventHandlerBase::`RTTI Class Hierarchy Descriptor'
	DD	00H
	DD	01H
	DD	FLAT:??_R2ioWndEXEventHandlerBase@@8
rdata$r	ENDS
;	COMDAT ??_R0?AVioWndEXEventHandlerBase@@@8
_DATA	SEGMENT
??_R0?AVioWndEXEventHandlerBase@@@8 DD FLAT:??_7type_info@@6B@ ; ioWndEXEventHandlerBase `RTTI Type Descriptor'
	DD	00H
	DB	'.?AVioWndEXEventHandlerBase@@', 00H
_DATA	ENDS
;	COMDAT ??_R1A@?0A@EA@ioWndEXEventHandlerBase@@8
rdata$r	SEGMENT
??_R1A@?0A@EA@ioWndEXEventHandlerBase@@8 DD FLAT:??_R0?AVioWndEXEventHandlerBase@@@8 ; ioWndEXEventHandlerBase::`RTTI Base Class Descriptor at (0,-1,0,64)'
	DD	00H
	DD	00H
	DD	0ffffffffH
	DD	00H
	DD	040H
	DD	FLAT:??_R3ioWndEXEventHandlerBase@@8
rdata$r	ENDS
;	COMDAT ??_R1A@?0A@EA@?$ioWndEXEventHandlerEX@VQuickLobbyWndBase@@VioWndEXMouseEvent@@@@8
rdata$r	SEGMENT
??_R1A@?0A@EA@?$ioWndEXEventHandlerEX@VQuickLobbyWndBase@@VioWndEXMouseEvent@@@@8 DD FLAT:??_R0?AV?$ioWndEXEventHandlerEX@VQuickLobbyWndBase@@VioWndEXMouseEvent@@@@@8 ; ioWndEXEventHandlerEX<QuickLobbyWndBase,ioWndEXMouseEvent>::`RTTI Base Class Descriptor at (0,-1,0,64)'
	DD	01H
	DD	00H
	DD	0ffffffffH
	DD	00H
	DD	040H
	DD	FLAT:??_R3?$ioWndEXEventHandlerEX@VQuickLobbyWndBase@@VioWndEXMouseEvent@@@@8
rdata$r	ENDS
;	COMDAT ??_R2?$ioWndEXEventHandlerEX@VQuickLobbyWndBase@@VioWndEXMouseEvent@@@@8
rdata$r	SEGMENT
??_R2?$ioWndEXEventHandlerEX@VQuickLobbyWndBase@@VioWndEXMouseEvent@@@@8 DD FLAT:??_R1A@?0A@EA@?$ioWndEXEventHandlerEX@VQuickLobbyWndBase@@VioWndEXMouseEvent@@@@8 ; ioWndEXEventHandlerEX<QuickLobbyWndBase,ioWndEXMouseEvent>::`RTTI Base Class Array'
	DD	FLAT:??_R1A@?0A@EA@ioWndEXEventHandlerBase@@8
rdata$r	ENDS
;	COMDAT ??_R3?$ioWndEXEventHandlerEX@VQuickLobbyWndBase@@VioWndEXMouseEvent@@@@8
rdata$r	SEGMENT
??_R3?$ioWndEXEventHandlerEX@VQuickLobbyWndBase@@VioWndEXMouseEvent@@@@8 DD 00H ; ioWndEXEventHandlerEX<QuickLobbyWndBase,ioWndEXMouseEvent>::`RTTI Class Hierarchy Descriptor'
	DD	00H
	DD	02H
	DD	FLAT:??_R2?$ioWndEXEventHandlerEX@VQuickLobbyWndBase@@VioWndEXMouseEvent@@@@8
rdata$r	ENDS
;	COMDAT ??_R0?AV?$ioWndEXEventHandlerEX@VQuickLobbyWndBase@@VioWndEXMouseEvent@@@@@8
_DATA	SEGMENT
??_R0?AV?$ioWndEXEventHandlerEX@VQuickLobbyWndBase@@VioWndEXMouseEvent@@@@@8 DD FLAT:??_7type_info@@6B@ ; ioWndEXEventHandlerEX<QuickLobbyWndBase,ioWndEXMouseEvent> `RTTI Type Descriptor'
	DD	00H
	DB	'.?AV?$ioWndEXEventHandlerEX@VQuickLobbyWndBase@@VioWndEX'
	DB	'MouseEvent@@@@', 00H
_DATA	ENDS
;	COMDAT ??_R4?$ioWndEXEventHandlerEX@VQuickLobbyWndBase@@VioWndEXMouseEvent@@@@6B@
rdata$r	SEGMENT
??_R4?$ioWndEXEventHandlerEX@VQuickLobbyWndBase@@VioWndEXMouseEvent@@@@6B@ DD 00H ; ioWndEXEventHandlerEX<QuickLobbyWndBase,ioWndEXMouseEvent>::`RTTI Complete Object Locator'
	DD	00H
	DD	00H
	DD	FLAT:??_R0?AV?$ioWndEXEventHandlerEX@VQuickLobbyWndBase@@VioWndEXMouseEvent@@@@@8
	DD	FLAT:??_R3?$ioWndEXEventHandlerEX@VQuickLobbyWndBase@@VioWndEXMouseEvent@@@@8
rdata$r	ENDS
;	COMDAT ??_7?$ioWndEXEventHandlerEX@VQuickLobbyWndBase@@VioWndEXMouseEvent@@@@6B@
CONST	SEGMENT
??_7?$ioWndEXEventHandlerEX@VQuickLobbyWndBase@@VioWndEXMouseEvent@@@@6B@ DD FLAT:??_R4?$ioWndEXEventHandlerEX@VQuickLobbyWndBase@@VioWndEXMouseEvent@@@@6B@ ; ioWndEXEventHandlerEX<QuickLobbyWndBase,ioWndEXMouseEvent>::`vftable'
	DD	FLAT:??_E?$ioWndEXEventHandlerEX@VQuickLobbyWndBase@@VioWndEXMouseEvent@@@@UAEPAXI@Z
	DD	FLAT:?Call@?$ioWndEXEventHandlerEX@VQuickLobbyWndBase@@VioWndEXMouseEvent@@@@UAEXPAVioWndEX@@AAVioWndEXEvent@@@Z
; Function compile flags: /Ogsp
CONST	ENDS
;	COMDAT ??1?$ioWndEXEventHandlerEX@VQuickLobbyWndBase@@VioWndEXMouseEvent@@@@UAE@XZ
_TEXT	SEGMENT
??1?$ioWndEXEventHandlerEX@VQuickLobbyWndBase@@VioWndEXMouseEvent@@@@UAE@XZ PROC ; ioWndEXEventHandlerEX<QuickLobbyWndBase,ioWndEXMouseEvent>::~ioWndEXEventHandlerEX<QuickLobbyWndBase,ioWndEXMouseEvent>, COMDAT
; _this$ = ecx

; 34   : 	{}

  00000	c7 01 00 00 00
	00		 mov	 DWORD PTR [ecx], OFFSET ??_7?$ioWndEXEventHandlerEX@VQuickLobbyWndBase@@VioWndEXMouseEvent@@@@6B@
  00006	ff 25 00 00 00
	00		 jmp	 DWORD PTR __imp_??1ioWndEXEventHandlerBase@@UAE@XZ
??1?$ioWndEXEventHandlerEX@VQuickLobbyWndBase@@VioWndEXMouseEvent@@@@UAE@XZ ENDP ; ioWndEXEventHandlerEX<QuickLobbyWndBase,ioWndEXMouseEvent>::~ioWndEXEventHandlerEX<QuickLobbyWndBase,ioWndEXMouseEvent>
; Function compile flags: /Ogsp
_TEXT	ENDS
;	COMDAT ?Call@?$ioWndEXEventHandlerEX@VQuickLobbyWndBase@@VioWndEXMouseEvent@@@@UAEXPAVioWndEX@@AAVioWndEXEvent@@@Z
_TEXT	SEGMENT
_wnd$ = 8						; size = 4
_event$ = 12						; size = 4
?Call@?$ioWndEXEventHandlerEX@VQuickLobbyWndBase@@VioWndEXMouseEvent@@@@UAEXPAVioWndEX@@AAVioWndEXEvent@@@Z PROC ; ioWndEXEventHandlerEX<QuickLobbyWndBase,ioWndEXMouseEvent>::Call, COMDAT
; _this$ = ecx

; 37   : 	{

  00000	55		 push	 ebp
  00001	8b ec		 mov	 ebp, esp
  00003	8b c1		 mov	 eax, ecx

; 38   : 		if ( m_owner && m_callback ) {

  00005	8b 48 08	 mov	 ecx, DWORD PTR [eax+8]
  00008	85 c9		 test	 ecx, ecx
  0000a	74 0a		 je	 SHORT $LN1@Call
  0000c	8b 40 0c	 mov	 eax, DWORD PTR [eax+12]
  0000f	85 c0		 test	 eax, eax
  00011	74 03		 je	 SHORT $LN1@Call

; 40   : 		}
; 41   : 	}

  00013	5d		 pop	 ebp

; 39   : 			(m_owner->*m_callback)( wnd, ((EOT&)( event )) );

  00014	ff e0		 jmp	 eax
$LN1@Call:

; 40   : 		}
; 41   : 	}

  00016	5d		 pop	 ebp
  00017	c2 08 00	 ret	 8
?Call@?$ioWndEXEventHandlerEX@VQuickLobbyWndBase@@VioWndEXMouseEvent@@@@UAEXPAVioWndEX@@AAVioWndEXEvent@@@Z ENDP ; ioWndEXEventHandlerEX<QuickLobbyWndBase,ioWndEXMouseEvent>::Call
; Function compile flags: /Ogsp
_TEXT	ENDS
;	COMDAT ??_G?$ioWndEXEventHandlerEX@VQuickLobbyWndBase@@VioWndEXMouseEvent@@@@UAEPAXI@Z
_TEXT	SEGMENT
___flags$ = 8						; size = 4
??_G?$ioWndEXEventHandlerEX@VQuickLobbyWndBase@@VioWndEXMouseEvent@@@@UAEPAXI@Z PROC ; ioWndEXEventHandlerEX<QuickLobbyWndBase,ioWndEXMouseEvent>::`scalar deleting destructor', COMDAT
; _this$ = ecx
  00000	55		 push	 ebp
  00001	8b ec		 mov	 ebp, esp
  00003	56		 push	 esi
  00004	8b f1		 mov	 esi, ecx
  00006	c7 06 00 00 00
	00		 mov	 DWORD PTR [esi], OFFSET ??_7?$ioWndEXEventHandlerEX@VQuickLobbyWndBase@@VioWndEXMouseEvent@@@@6B@
  0000c	ff 15 00 00 00
	00		 call	 DWORD PTR __imp_??1ioWndEXEventHandlerBase@@UAE@XZ
  00012	f6 45 08 01	 test	 BYTE PTR ___flags$[ebp], 1
  00016	74 07		 je	 SHORT $LN1@scalar@2
  00018	56		 push	 esi
  00019	e8 00 00 00 00	 call	 ??3@YAXPAX@Z		; operator delete
  0001e	59		 pop	 ecx
$LN1@scalar@2:
  0001f	8b c6		 mov	 eax, esi
  00021	5e		 pop	 esi
  00022	5d		 pop	 ebp
  00023	c2 04 00	 ret	 4
??_G?$ioWndEXEventHandlerEX@VQuickLobbyWndBase@@VioWndEXMouseEvent@@@@UAEPAXI@Z ENDP ; ioWndEXEventHandlerEX<QuickLobbyWndBase,ioWndEXMouseEvent>::`scalar deleting destructor'
_TEXT	ENDS
PUBLIC	??0?$ioWndEXEventHandlerEX@VQuickLobbyWndBase@@VioWndEXMouseEvent@@@@QAE@PAVQuickLobbyWndBase@@P81@AEXPAVioWndEX@@AAVioWndEXMouseEvent@@@Z@Z ; ioWndEXEventHandlerEX<QuickLobbyWndBase,ioWndEXMouseEvent>::ioWndEXEventHandlerEX<QuickLobbyWndBase,ioWndEXMouseEvent>
EXTRN	__imp_??0ioWndEXEventHandlerBase@@QAE@PAVioWndEX@@@Z:PROC
; Function compile flags: /Ogsp
;	COMDAT ??0?$ioWndEXEventHandlerEX@VQuickLobbyWndBase@@VioWndEXMouseEvent@@@@QAE@PAVQuickLobbyWndBase@@P81@AEXPAVioWndEX@@AAVioWndEXMouseEvent@@@Z@Z
_TEXT	SEGMENT
_owner$ = 8						; size = 4
_cb$ = 12						; size = 4
??0?$ioWndEXEventHandlerEX@VQuickLobbyWndBase@@VioWndEXMouseEvent@@@@QAE@PAVQuickLobbyWndBase@@P81@AEXPAVioWndEX@@AAVioWndEXMouseEvent@@@Z@Z PROC ; ioWndEXEventHandlerEX<QuickLobbyWndBase,ioWndEXMouseEvent>::ioWndEXEventHandlerEX<QuickLobbyWndBase,ioWndEXMouseEvent>, COMDAT
; _this$ = ecx

; 31   : 	{}

  00000	55		 push	 ebp
  00001	8b ec		 mov	 ebp, esp
  00003	56		 push	 esi
  00004	57		 push	 edi
  00005	8b 7d 08	 mov	 edi, DWORD PTR _owner$[ebp]
  00008	57		 push	 edi
  00009	8b f1		 mov	 esi, ecx
  0000b	ff 15 00 00 00
	00		 call	 DWORD PTR __imp_??0ioWndEXEventHandlerBase@@QAE@PAVioWndEX@@@Z
  00011	8b 45 0c	 mov	 eax, DWORD PTR _cb$[ebp]
  00014	89 7e 08	 mov	 DWORD PTR [esi+8], edi
  00017	89 46 0c	 mov	 DWORD PTR [esi+12], eax
  0001a	5f		 pop	 edi
  0001b	c7 06 00 00 00
	00		 mov	 DWORD PTR [esi], OFFSET ??_7?$ioWndEXEventHandlerEX@VQuickLobbyWndBase@@VioWndEXMouseEvent@@@@6B@
  00021	8b c6		 mov	 eax, esi
  00023	5e		 pop	 esi
  00024	5d		 pop	 ebp
  00025	c2 08 00	 ret	 8
??0?$ioWndEXEventHandlerEX@VQuickLobbyWndBase@@VioWndEXMouseEvent@@@@QAE@PAVQuickLobbyWndBase@@P81@AEXPAVioWndEX@@AAVioWndEXMouseEvent@@@Z@Z ENDP ; ioWndEXEventHandlerEX<QuickLobbyWndBase,ioWndEXMouseEvent>::ioWndEXEventHandlerEX<QuickLobbyWndBase,ioWndEXMouseEvent>
_TEXT	ENDS
PUBLIC	??_9QuickLobbyWndBase@@$BBDI@AE			; QuickLobbyWndBase::`vcall'{312}'
; Function compile flags: /Odsp
;	COMDAT ??_9QuickLobbyWndBase@@$BBDI@AE
_TEXT	SEGMENT
??_9QuickLobbyWndBase@@$BBDI@AE PROC			; QuickLobbyWndBase::`vcall'{312}', COMDAT
  00000	8b 01		 mov	 eax, DWORD PTR [ecx]
  00002	ff a0 38 01 00
	00		 jmp	 DWORD PTR [eax+312]
??_9QuickLobbyWndBase@@$BBDI@AE ENDP			; QuickLobbyWndBase::`vcall'{312}'
_TEXT	ENDS
PUBLIC	??_H@YGXPAXIHP6EPAX0@Z@Z			; `vector constructor iterator'
; Function compile flags: /Ogsp
;	COMDAT ??_H@YGXPAXIHP6EPAX0@Z@Z
_TEXT	SEGMENT
___t$ = 8						; size = 4
___s$ = 12						; size = 4
___n$ = 16						; size = 4
___f$ = 20						; size = 4
??_H@YGXPAXIHP6EPAX0@Z@Z PROC				; `vector constructor iterator', COMDAT
  00000	55		 push	 ebp
  00001	8b ec		 mov	 ebp, esp
  00003	ff 4d 10	 dec	 DWORD PTR ___n$[ebp]
  00006	78 12		 js	 SHORT $LN1@vector
  00008	56		 push	 esi
  00009	8b 75 08	 mov	 esi, DWORD PTR ___t$[ebp]
$LL2@vector:
  0000c	8b ce		 mov	 ecx, esi
  0000e	ff 55 14	 call	 DWORD PTR ___f$[ebp]
  00011	03 75 0c	 add	 esi, DWORD PTR ___s$[ebp]
  00014	ff 4d 10	 dec	 DWORD PTR ___n$[ebp]
  00017	79 f3		 jns	 SHORT $LL2@vector
  00019	5e		 pop	 esi
$LN1@vector:
  0001a	5d		 pop	 ebp
  0001b	c2 10 00	 ret	 16			; 00000010H
??_H@YGXPAXIHP6EPAX0@Z@Z ENDP				; `vector constructor iterator'
_TEXT	ENDS
PUBLIC	?SetJoinHeadquartersRequestName@ioMyInfo@@QAEXABVioHashString@@@Z ; ioMyInfo::SetJoinHeadquartersRequestName
EXTRN	__imp_??4ioHashString@@QAEAAV0@ABV0@@Z:PROC
; Function compile flags: /Ogsp
; File d:\lost saga for developer\youtube\tutorial\source\src\lsclient\iomyinfo.h
;	COMDAT ?SetJoinHeadquartersRequestName@ioMyInfo@@QAEXABVioHashString@@@Z
_TEXT	SEGMENT
_rkName$ = 8						; size = 4
?SetJoinHeadquartersRequestName@ioMyInfo@@QAEXABVioHashString@@@Z PROC ; ioMyInfo::SetJoinHeadquartersRequestName, COMDAT
; _this$ = ecx

; 495  : 	void SetJoinHeadquartersRequestName( const ioHashString &rkName ){ m_szJoinHeadquartersRequestName = rkName; };

  00000	55		 push	 ebp
  00001	8b ec		 mov	 ebp, esp
  00003	81 c1 6c 09 00
	00		 add	 ecx, 2412		; 0000096cH
  00009	5d		 pop	 ebp
  0000a	ff 25 00 00 00
	00		 jmp	 DWORD PTR __imp_??4ioHashString@@QAEAAV0@ABV0@@Z
?SetJoinHeadquartersRequestName@ioMyInfo@@QAEXABVioHashString@@@Z ENDP ; ioMyInfo::SetJoinHeadquartersRequestName
_TEXT	ENDS
PUBLIC	?GetPublicID@ioMyInfo@@QBEABVioHashString@@XZ	; ioMyInfo::GetPublicID
; Function compile flags: /Ogsp
;	COMDAT ?GetPublicID@ioMyInfo@@QBEABVioHashString@@XZ
_TEXT	SEGMENT
?GetPublicID@ioMyInfo@@QBEABVioHashString@@XZ PROC	; ioMyInfo::GetPublicID, COMDAT
; _this$ = ecx

; 517  : 	const ioHashString& GetPublicID() const { return m_user_data.m_public_id; }    

  00000	8d 41 1c	 lea	 eax, DWORD PTR [ecx+28]
  00003	c3		 ret	 0
?GetPublicID@ioMyInfo@@QBEABVioHashString@@XZ ENDP	; ioMyInfo::GetPublicID
; Function compile flags: /Ogsp
_TEXT	ENDS
;	COMDAT ??_GQuickLobbyWnd@@UAEPAXI@Z
_TEXT	SEGMENT
___flags$ = 8						; size = 4
??_GQuickLobbyWnd@@UAEPAXI@Z PROC			; QuickLobbyWnd::`scalar deleting destructor', COMDAT
; _this$ = ecx
  00000	55		 push	 ebp
  00001	8b ec		 mov	 ebp, esp
  00003	56		 push	 esi
  00004	8b f1		 mov	 esi, ecx
  00006	e8 00 00 00 00	 call	 ??1QuickLobbyWnd@@UAE@XZ ; QuickLobbyWnd::~QuickLobbyWnd
  0000b	f6 45 08 01	 test	 BYTE PTR ___flags$[ebp], 1
  0000f	74 07		 je	 SHORT $LN1@scalar@3
  00011	56		 push	 esi
  00012	e8 00 00 00 00	 call	 ??3@YAXPAX@Z		; operator delete
  00017	59		 pop	 ecx
$LN1@scalar@3:
  00018	8b c6		 mov	 eax, esi
  0001a	5e		 pop	 esi
  0001b	5d		 pop	 ebp
  0001c	c2 04 00	 ret	 4
??_GQuickLobbyWnd@@UAEPAXI@Z ENDP			; QuickLobbyWnd::`scalar deleting destructor'
_TEXT	ENDS
PUBLIC	?ShowInfo@QuickLobbyWnd@@QAEXK_N@Z		; QuickLobbyWnd::ShowInfo
EXTRN	__imp_?SetWndPos@ioWnd@@QAEXHH@Z:PROC
; Function compile flags: /Ogsp
; File d:\lost saga for developer\youtube\tutorial\source\src\lsclient\gui\quicklobbywnd.cpp
;	COMDAT ?ShowInfo@QuickLobbyWnd@@QAEXK_N@Z
_TEXT	SEGMENT
_dwWndID$ = 8						; size = 4
_bReCalcPos$ = 12					; size = 1
?ShowInfo@QuickLobbyWnd@@QAEXK_N@Z PROC			; QuickLobbyWnd::ShowInfo, COMDAT
; _this$ = ecx

; 205  : {

  00000	55		 push	 ebp
  00001	8b ec		 mov	 ebp, esp
  00003	53		 push	 ebx
  00004	56		 push	 esi

; 206  : 	HideChildWnd( TOUR_INFO );

  00005	8b 35 00 00 00
	00		 mov	 esi, DWORD PTR __imp_?HideChildWnd@ioWnd@@QAEXK_N@Z
  0000b	57		 push	 edi
  0000c	33 db		 xor	 ebx, ebx
  0000e	53		 push	 ebx
  0000f	6a 07		 push	 7
  00011	8b f9		 mov	 edi, ecx
  00013	ff d6		 call	 esi

; 207  : 	HideChildWnd( CAMP_INFO );

  00015	53		 push	 ebx
  00016	6a 03		 push	 3
  00018	8b cf		 mov	 ecx, edi
  0001a	ff d6		 call	 esi

; 208  : 	HideChildWnd( TRADE_INFO );

  0001c	53		 push	 ebx
  0001d	6a 08		 push	 8
  0001f	8b cf		 mov	 ecx, edi
  00021	ff d6		 call	 esi

; 209  : 
; 210  : 	ioWnd* pWnd = NULL;
; 211  : 	switch( dwWndID )

  00023	8b 45 08	 mov	 eax, DWORD PTR _dwWndID$[ebp]
  00026	33 f6		 xor	 esi, esi
  00028	83 e8 0b	 sub	 eax, 11			; 0000000bH
  0002b	74 28		 je	 SHORT $LN8@ShowInfo
  0002d	83 e8 04	 sub	 eax, 4
  00030	74 07		 je	 SHORT $LN6@ShowInfo
  00032	48		 dec	 eax
  00033	75 52		 jne	 SHORT $LN2@ShowInfo

; 216  : 		}
; 217  : 		break;
; 218  : 	case TOURNAMENT:
; 219  : 		{
; 220  : 			pWnd = FindChildWnd( TOUR_INFO );

  00035	6a 07		 push	 7

; 221  : 		}
; 222  : 		break;

  00037	eb 1e		 jmp	 SHORT $LN17@ShowInfo
$LN6@ShowInfo:

; 223  : 	case TRADE:
; 224  : 		{
; 225  : 			QuickLobbyTradeInfoWnd* pTradeWnd = (QuickLobbyTradeInfoWnd*)( FindChildWnd( TRADE_INFO ) );

  00039	6a 08		 push	 8
  0003b	8b cf		 mov	 ecx, edi
  0003d	ff 15 00 00 00
	00		 call	 DWORD PTR __imp_?FindChildWnd@ioWnd@@QAEPAV1@K@Z

; 226  : 			if( bReCalcPos )

  00043	38 5d 0c	 cmp	 BYTE PTR _bReCalcPos$[ebp], bl

; 227  : 			{
; 228  : 				pWnd = pTradeWnd;
; 229  : 			}
; 230  : 			else

  00046	75 17		 jne	 SHORT $LN18@ShowInfo

; 231  : 			{
; 232  : 				//       info  show
; 233  : 				if( pTradeWnd )

  00048	3b c3		 cmp	 eax, ebx
  0004a	74 3b		 je	 SHORT $LN2@ShowInfo

; 234  : 					pTradeWnd->OnRefreshTradeItemList();

  0004c	8b c8		 mov	 ecx, eax
  0004e	e8 00 00 00 00	 call	 ?OnRefreshTradeItemList@QuickLobbyTradeInfoWnd@@QAEXXZ ; QuickLobbyTradeInfoWnd::OnRefreshTradeItemList

; 235  : 			}				
; 236  : 		}
; 237  : 		break;

  00053	eb 0c		 jmp	 SHORT $LN9@ShowInfo
$LN8@ShowInfo:

; 212  : 	{
; 213  : 	case CAMP:
; 214  : 		{
; 215  : 			pWnd = FindChildWnd( CAMP_INFO );

  00055	6a 03		 push	 3
$LN17@ShowInfo:
  00057	8b cf		 mov	 ecx, edi
  00059	ff 15 00 00 00
	00		 call	 DWORD PTR __imp_?FindChildWnd@ioWnd@@QAEPAV1@K@Z
$LN18@ShowInfo:
  0005f	8b f0		 mov	 esi, eax
$LN9@ShowInfo:

; 238  : 	}
; 239  : 
; 240  : 	if( pWnd )

  00061	3b f3		 cmp	 esi, ebx
  00063	74 22		 je	 SHORT $LN2@ShowInfo

; 241  : 	{
; 242  : 		pWnd->SetWndPos( 439, 0 );

  00065	53		 push	 ebx
  00066	68 b7 01 00 00	 push	 439			; 000001b7H
  0006b	8b ce		 mov	 ecx, esi
  0006d	ff 15 00 00 00
	00		 call	 DWORD PTR __imp_?SetWndPos@ioWnd@@QAEXHH@Z

; 243  : 		pWnd->ShowWnd();

  00073	8b ce		 mov	 ecx, esi
  00075	ff 15 00 00 00
	00		 call	 DWORD PTR __imp_?ShowWnd@ioWnd@@QAEXXZ

; 244  : 
; 245  : 		//  (Info    )
; 246  : 		Layout( 645, 526 );

  0007b	68 0e 02 00 00	 push	 526			; 0000020eH
  00080	68 85 02 00 00	 push	 645			; 00000285H

; 247  : 	}
; 248  : 	else

  00085	eb 0c		 jmp	 SHORT $LN19@ShowInfo
$LN2@ShowInfo:

; 249  : 	{
; 250  : 		//  (   )
; 251  : 		Layout( GetDefaultWidth(), GetDefaultHeight() );

  00087	ff b7 cc 00 00
	00		 push	 DWORD PTR [edi+204]
  0008d	ff b7 c8 00 00
	00		 push	 DWORD PTR [edi+200]
$LN19@ShowInfo:
  00093	8b cf		 mov	 ecx, edi
  00095	e8 00 00 00 00	 call	 ?Layout@QuickLobbyWnd@@QAEXHH@Z ; QuickLobbyWnd::Layout
  0009a	5f		 pop	 edi
  0009b	5e		 pop	 esi
  0009c	5b		 pop	 ebx

; 252  : 	}
; 253  : }

  0009d	5d		 pop	 ebp
  0009e	c2 08 00	 ret	 8
?ShowInfo@QuickLobbyWnd@@QAEXK_N@Z ENDP			; QuickLobbyWnd::ShowInfo
_TEXT	ENDS
PUBLIC	??_C@_0CE@MLKMHMKE@QuickLobbyWnd?3?3OnCreateHeadquart@ ; `string'
PUBLIC	__$ArrayPad$
PUBLIC	?OnCreateHeadquarters@QuickLobbyWnd@@QAEXXZ	; QuickLobbyWnd::OnCreateHeadquarters
EXTRN	??1SP2Packet@@UAE@XZ:PROC			; SP2Packet::~SP2Packet
EXTRN	?MouseBusy@TCPNetwork@@YAX_N@Z:PROC		; TCPNetwork::MouseBusy
EXTRN	?SendToServer@TCPNetwork@@YAXAAVSP2Packet@@@Z:PROC ; TCPNetwork::SendToServer
EXTRN	??6SP2Packet@@QAEAAV0@_N@Z:PROC			; SP2Packet::operator<<
EXTRN	??6SP2Packet@@QAEAAV0@H@Z:PROC			; SP2Packet::operator<<
EXTRN	??6SP2Packet@@QAEAAV0@ABVioHashString@@@Z:PROC	; SP2Packet::operator<<
EXTRN	?CheckHeadquartersMapIndex@ioModeSelectInfo@@QAEHHH@Z:PROC ; ioModeSelectInfo::CheckHeadquartersMapIndex
EXTRN	?GetHeadquartersModeIndex@ioModeSelectInfo@@QAEHXZ:PROC ; ioModeSelectInfo::GetHeadquartersModeIndex
EXTRN	?GetSingleton@ioModeSelectInfo@@SAAAV1@XZ:PROC	; ioModeSelectInfo::GetSingleton
EXTRN	??0SP2Packet@@QAE@K@Z:PROC			; SP2Packet::SP2Packet
EXTRN	?GetSingleton@ioMyInfo@@SAAAV1@XZ:PROC		; ioMyInfo::GetSingleton
EXTRN	?IsLadderTeam@ioLadderTeamMgr@@QAE_NXZ:PROC	; ioLadderTeamMgr::IsLadderTeam
EXTRN	?GetSingleton@ioLadderTeamMgr@@SAAAV1@XZ:PROC	; ioLadderTeamMgr::GetSingleton
EXTRN	?SetMsgBox@ioSP2GUIManager@@QAAXHPAVioWnd@@PBDZZ:PROC ; ioSP2GUIManager::SetMsgBox
EXTRN	?IsBattleRoom@ioBattleRoomMgr@@QAE_NXZ:PROC	; ioBattleRoomMgr::IsBattleRoom
EXTRN	?GetSingleton@ioBattleRoomMgr@@SAAAV1@XZ:PROC	; ioBattleRoomMgr::GetSingleton
EXTRN	?IsMouseBusy@ioApplication@@QAE_NXZ:PROC	; ioApplication::IsMouseBusy
EXTRN	?GetSingleton@ioApplication@@SAAAV1@XZ:PROC	; ioApplication::GetSingleton
EXTRN	___security_cookie:DWORD
EXTRN	__chkstk:PROC
;	COMDAT ??_C@_0CE@MLKMHMKE@QuickLobbyWnd?3?3OnCreateHeadquart@
; File d:\lost saga for developer\youtube\tutorial\source\src\lsclient\iomyinfo.h
CONST	SEGMENT
??_C@_0CE@MLKMHMKE@QuickLobbyWnd?3?3OnCreateHeadquart@ DB 'QuickLobbyWnd:'
	DB	':OnCreateHeadquarters', 00H			; `string'
CONST	ENDS
;	COMDAT xdata$x
xdata$x	SEGMENT
__unwindtable$?OnCreateHeadquarters@QuickLobbyWnd@@QAEXXZ DD 0ffffffffH
	DD	FLAT:__unwindfunclet$?OnCreateHeadquarters@QuickLobbyWnd@@QAEXXZ$0
	DD	0ffffffffH
	DD	FLAT:__unwindfunclet$?OnCreateHeadquarters@QuickLobbyWnd@@QAEXXZ$1
__ehfuncinfo$?OnCreateHeadquarters@QuickLobbyWnd@@QAEXXZ DD 019930522H
	DD	02H
	DD	FLAT:__unwindtable$?OnCreateHeadquarters@QuickLobbyWnd@@QAEXXZ
	DD	2 DUP(00H)
	DD	2 DUP(00H)
	DD	00H
	DD	01H
; Function compile flags: /Ogsp
; File d:\lost saga for developer\youtube\tutorial\source\src\lsclient\gui\quicklobbywnd.cpp
xdata$x	ENDS
;	COMDAT ?OnCreateHeadquarters@QuickLobbyWnd@@QAEXXZ
_TEXT	SEGMENT
$T523564 = -32824					; size = 16
_kPacket$ = -32808					; size = 32792
__$ArrayPad$ = -16					; size = 4
__$EHRec$ = -12						; size = 12
?OnCreateHeadquarters@QuickLobbyWnd@@QAEXXZ PROC	; QuickLobbyWnd::OnCreateHeadquarters, COMDAT
; _this$ = ecx

; 306  : {

  00000	55		 push	 ebp
  00001	8b ec		 mov	 ebp, esp
  00003	6a ff		 push	 -1
  00005	68 00 00 00 00	 push	 __ehhandler$?OnCreateHeadquarters@QuickLobbyWnd@@QAEXXZ
  0000a	64 a1 00 00 00
	00		 mov	 eax, DWORD PTR fs:0
  00010	50		 push	 eax
  00011	b8 2c 80 00 00	 mov	 eax, 32812		; 0000802cH
  00016	e8 00 00 00 00	 call	 __chkstk
  0001b	a1 00 00 00 00	 mov	 eax, DWORD PTR ___security_cookie
  00020	33 c5		 xor	 eax, ebp
  00022	89 45 f0	 mov	 DWORD PTR __$ArrayPad$[ebp], eax
  00025	53		 push	 ebx
  00026	56		 push	 esi
  00027	57		 push	 edi
  00028	50		 push	 eax
  00029	8d 45 f4	 lea	 eax, DWORD PTR __$EHRec$[ebp]
  0002c	64 a3 00 00 00
	00		 mov	 DWORD PTR fs:0, eax

; 307  : 	if( g_App.IsMouseBusy() )

  00032	e8 00 00 00 00	 call	 ?GetSingleton@ioApplication@@SAAAV1@XZ ; ioApplication::GetSingleton
  00037	8b c8		 mov	 ecx, eax
  00039	e8 00 00 00 00	 call	 ?IsMouseBusy@ioApplication@@QAE_NXZ ; ioApplication::IsMouseBusy
  0003e	84 c0		 test	 al, al
  00040	0f 85 65 01 00
	00		 jne	 $LN4@OnCreateHe

; 308  : 		return;
; 309  : 
; 310  : 	if( g_BattleRoomMgr.IsBattleRoom() )

  00046	e8 00 00 00 00	 call	 ?GetSingleton@ioBattleRoomMgr@@SAAAV1@XZ ; ioBattleRoomMgr::GetSingleton
  0004b	8b c8		 mov	 ecx, eax
  0004d	e8 00 00 00 00	 call	 ?IsBattleRoom@ioBattleRoomMgr@@QAE_NXZ ; ioBattleRoomMgr::IsBattleRoom
  00052	84 c0		 test	 al, al
  00054	74 59		 je	 SHORT $LN2@OnCreateHe

; 311  : 	{
; 312  : 		g_GUIMgr.SetMsgBox( MB_OK, NULL, STR(1) );

  00056	33 db		 xor	 ebx, ebx
  00058	53		 push	 ebx
  00059	6a 01		 push	 1
  0005b	bf 00 00 00 00	 mov	 edi, OFFSET ??_C@_00CNPNBAHC@?$AA@
  00060	57		 push	 edi
  00061	be 00 00 00 00	 mov	 esi, OFFSET ??_C@_0CE@MLKMHMKE@QuickLobbyWnd?3?3OnCreateHeadquart@
  00066	56		 push	 esi
  00067	ff 15 00 00 00
	00		 call	 DWORD PTR __imp_?GetSingleton@ioStringManager@@SAAAV1@XZ
  0006d	8b c8		 mov	 ecx, eax
  0006f	ff 15 00 00 00
	00		 call	 DWORD PTR __imp_?GetString@ioStringManager@@QAEPADPBD0HW4FileNamePrefix@1@@Z
  00075	50		 push	 eax
  00076	53		 push	 ebx
  00077	53		 push	 ebx
  00078	e8 00 00 00 00	 call	 ?GetSingleton@ioSP2GUIManager@@SAAAV1@XZ ; ioSP2GUIManager::GetSingleton
  0007d	50		 push	 eax
  0007e	e8 00 00 00 00	 call	 ?SetMsgBox@ioSP2GUIManager@@QAAXHPAVioWnd@@PBDZZ ; ioSP2GUIManager::SetMsgBox
  00083	83 c4 10	 add	 esp, 16			; 00000010H

; 313  : 		g_GUIMgr.SetMsgBox( MB_OK, NULL, STR(1) );

  00086	53		 push	 ebx
  00087	6a 01		 push	 1
$LN13@OnCreateHe:
  00089	57		 push	 edi
  0008a	56		 push	 esi
  0008b	ff 15 00 00 00
	00		 call	 DWORD PTR __imp_?GetSingleton@ioStringManager@@SAAAV1@XZ
  00091	8b c8		 mov	 ecx, eax
  00093	ff 15 00 00 00
	00		 call	 DWORD PTR __imp_?GetString@ioStringManager@@QAEPADPBD0HW4FileNamePrefix@1@@Z
  00099	50		 push	 eax
  0009a	53		 push	 ebx
  0009b	53		 push	 ebx
  0009c	e8 00 00 00 00	 call	 ?GetSingleton@ioSP2GUIManager@@SAAAV1@XZ ; ioSP2GUIManager::GetSingleton
  000a1	50		 push	 eax
  000a2	e8 00 00 00 00	 call	 ?SetMsgBox@ioSP2GUIManager@@QAAXHPAVioWnd@@PBDZZ ; ioSP2GUIManager::SetMsgBox
  000a7	83 c4 10	 add	 esp, 16			; 00000010H

; 314  : 		return;

  000aa	e9 fc 00 00 00	 jmp	 $LN4@OnCreateHe
$LN2@OnCreateHe:

; 315  : 	}
; 316  : 
; 317  : 	if( g_LadderTeamMgr.IsLadderTeam() )

  000af	e8 00 00 00 00	 call	 ?GetSingleton@ioLadderTeamMgr@@SAAAV1@XZ ; ioLadderTeamMgr::GetSingleton
  000b4	8b c8		 mov	 ecx, eax
  000b6	e8 00 00 00 00	 call	 ?IsLadderTeam@ioLadderTeamMgr@@QAE_NXZ ; ioLadderTeamMgr::IsLadderTeam
  000bb	84 c0		 test	 al, al
  000bd	74 35		 je	 SHORT $LN1@OnCreateHe

; 318  : 	{
; 319  : 		g_GUIMgr.SetMsgBox( MB_OK, NULL, STR(2) );

  000bf	33 db		 xor	 ebx, ebx
  000c1	53		 push	 ebx
  000c2	6a 02		 push	 2
  000c4	bf 00 00 00 00	 mov	 edi, OFFSET ??_C@_00CNPNBAHC@?$AA@
  000c9	57		 push	 edi
  000ca	be 00 00 00 00	 mov	 esi, OFFSET ??_C@_0CE@MLKMHMKE@QuickLobbyWnd?3?3OnCreateHeadquart@
  000cf	56		 push	 esi
  000d0	ff 15 00 00 00
	00		 call	 DWORD PTR __imp_?GetSingleton@ioStringManager@@SAAAV1@XZ
  000d6	8b c8		 mov	 ecx, eax
  000d8	ff 15 00 00 00
	00		 call	 DWORD PTR __imp_?GetString@ioStringManager@@QAEPADPBD0HW4FileNamePrefix@1@@Z
  000de	50		 push	 eax
  000df	53		 push	 ebx
  000e0	53		 push	 ebx
  000e1	e8 00 00 00 00	 call	 ?GetSingleton@ioSP2GUIManager@@SAAAV1@XZ ; ioSP2GUIManager::GetSingleton
  000e6	50		 push	 eax
  000e7	e8 00 00 00 00	 call	 ?SetMsgBox@ioSP2GUIManager@@QAAXHPAVioWnd@@PBDZZ ; ioSP2GUIManager::SetMsgBox
  000ec	83 c4 10	 add	 esp, 16			; 00000010H

; 320  : 		g_GUIMgr.SetMsgBox( MB_OK, NULL, STR(2) );

  000ef	53		 push	 ebx
  000f0	6a 02		 push	 2

; 321  : 		return;

  000f2	eb 95		 jmp	 SHORT $LN13@OnCreateHe
$LN1@OnCreateHe:

; 322  : 	}
; 323  : 
; 324  : 	g_MyInfo.SetJoinHeadquartersRequestName( "" );

  000f4	68 00 00 00 00	 push	 OFFSET ??_C@_00CNPNBAHC@?$AA@
  000f9	8d 8d c8 7f ff
	ff		 lea	 ecx, DWORD PTR $T523564[ebp]
  000ff	ff 15 00 00 00
	00		 call	 DWORD PTR __imp_??0ioHashString@@QAE@PBD@Z
  00105	33 db		 xor	 ebx, ebx
  00107	89 5d fc	 mov	 DWORD PTR __$EHRec$[ebp+8], ebx
  0010a	e8 00 00 00 00	 call	 ?GetSingleton@ioMyInfo@@SAAAV1@XZ ; ioMyInfo::GetSingleton
  0010f	8d 8d c8 7f ff
	ff		 lea	 ecx, DWORD PTR $T523564[ebp]
  00115	51		 push	 ecx
  00116	8d 88 6c 09 00
	00		 lea	 ecx, DWORD PTR [eax+2412]
  0011c	ff 15 00 00 00
	00		 call	 DWORD PTR __imp_??4ioHashString@@QAEAAV0@ABV0@@Z
  00122	83 4d fc ff	 or	 DWORD PTR __$EHRec$[ebp+8], -1
  00126	8d 8d c8 7f ff
	ff		 lea	 ecx, DWORD PTR $T523564[ebp]
  0012c	ff 15 00 00 00
	00		 call	 DWORD PTR __imp_??1ioHashString@@QAE@XZ

; 325  : 	SP2Packet kPacket( CTPK_JOIN_HEADQUARTERS );

  00132	68 20 01 00 00	 push	 288			; 00000120H
  00137	8d 8d d8 7f ff
	ff		 lea	 ecx, DWORD PTR _kPacket$[ebp]
  0013d	e8 00 00 00 00	 call	 ??0SP2Packet@@QAE@K@Z	; SP2Packet::SP2Packet
  00142	33 f6		 xor	 esi, esi
  00144	46		 inc	 esi
  00145	89 75 fc	 mov	 DWORD PTR __$EHRec$[ebp+8], esi

; 326  : 	kPacket << g_MyInfo.GetPublicID() << g_ModeSelectInfo.CheckHeadquartersMapIndex( g_ModeSelectInfo.GetHeadquartersModeIndex(), 1 ) << false;

  00148	e8 00 00 00 00	 call	 ?GetSingleton@ioMyInfo@@SAAAV1@XZ ; ioMyInfo::GetSingleton
  0014d	53		 push	 ebx
  0014e	56		 push	 esi
  0014f	8b f8		 mov	 edi, eax
  00151	e8 00 00 00 00	 call	 ?GetSingleton@ioModeSelectInfo@@SAAAV1@XZ ; ioModeSelectInfo::GetSingleton
  00156	8b c8		 mov	 ecx, eax
  00158	e8 00 00 00 00	 call	 ?GetHeadquartersModeIndex@ioModeSelectInfo@@QAEHXZ ; ioModeSelectInfo::GetHeadquartersModeIndex
  0015d	50		 push	 eax
  0015e	e8 00 00 00 00	 call	 ?GetSingleton@ioModeSelectInfo@@SAAAV1@XZ ; ioModeSelectInfo::GetSingleton
  00163	8b c8		 mov	 ecx, eax
  00165	e8 00 00 00 00	 call	 ?CheckHeadquartersMapIndex@ioModeSelectInfo@@QAEHHH@Z ; ioModeSelectInfo::CheckHeadquartersMapIndex
  0016a	50		 push	 eax
  0016b	83 c7 1c	 add	 edi, 28			; 0000001cH
  0016e	57		 push	 edi
  0016f	8d 8d d8 7f ff
	ff		 lea	 ecx, DWORD PTR _kPacket$[ebp]
  00175	e8 00 00 00 00	 call	 ??6SP2Packet@@QAEAAV0@ABVioHashString@@@Z ; SP2Packet::operator<<
  0017a	8b c8		 mov	 ecx, eax
  0017c	e8 00 00 00 00	 call	 ??6SP2Packet@@QAEAAV0@H@Z ; SP2Packet::operator<<
  00181	8b c8		 mov	 ecx, eax
  00183	e8 00 00 00 00	 call	 ??6SP2Packet@@QAEAAV0@_N@Z ; SP2Packet::operator<<

; 327  : 	TCPNetwork::SendToServer( kPacket );

  00188	8d 85 d8 7f ff
	ff		 lea	 eax, DWORD PTR _kPacket$[ebp]
  0018e	50		 push	 eax
  0018f	e8 00 00 00 00	 call	 ?SendToServer@TCPNetwork@@YAXAAVSP2Packet@@@Z ; TCPNetwork::SendToServer

; 328  : 	TCPNetwork::MouseBusy( true );

  00194	56		 push	 esi
  00195	e8 00 00 00 00	 call	 ?MouseBusy@TCPNetwork@@YAX_N@Z ; TCPNetwork::MouseBusy

; 329  : }

  0019a	83 4d fc ff	 or	 DWORD PTR __$EHRec$[ebp+8], -1
  0019e	59		 pop	 ecx
  0019f	59		 pop	 ecx
  001a0	8d 8d d8 7f ff
	ff		 lea	 ecx, DWORD PTR _kPacket$[ebp]
  001a6	e8 00 00 00 00	 call	 ??1SP2Packet@@UAE@XZ	; SP2Packet::~SP2Packet
$LN4@OnCreateHe:
  001ab	8b 4d f4	 mov	 ecx, DWORD PTR __$EHRec$[ebp]
  001ae	64 89 0d 00 00
	00 00		 mov	 DWORD PTR fs:0, ecx
  001b5	59		 pop	 ecx
  001b6	5f		 pop	 edi
  001b7	5e		 pop	 esi
  001b8	5b		 pop	 ebx
  001b9	8b 4d f0	 mov	 ecx, DWORD PTR __$ArrayPad$[ebp]
  001bc	33 cd		 xor	 ecx, ebp
  001be	e8 00 00 00 00	 call	 @__security_check_cookie@4
  001c3	c9		 leave
  001c4	c3		 ret	 0
_TEXT	ENDS
;	COMDAT text$x
text$x	SEGMENT
__unwindfunclet$?OnCreateHeadquarters@QuickLobbyWnd@@QAEXXZ$0:
  00000	8d 8d c8 7f ff
	ff		 lea	 ecx, DWORD PTR $T523564[ebp]
  00006	ff 25 00 00 00
	00		 jmp	 DWORD PTR __imp_??1ioHashString@@QAE@XZ
__unwindfunclet$?OnCreateHeadquarters@QuickLobbyWnd@@QAEXXZ$1:
  0000c	8d 8d d8 7f ff
	ff		 lea	 ecx, DWORD PTR _kPacket$[ebp]
  00012	e9 00 00 00 00	 jmp	 ??1SP2Packet@@UAE@XZ	; SP2Packet::~SP2Packet
__ehhandler$?OnCreateHeadquarters@QuickLobbyWnd@@QAEXXZ:
  00017	8b 54 24 08	 mov	 edx, DWORD PTR [esp+8]
  0001b	8d 42 0c	 lea	 eax, DWORD PTR [edx+12]
  0001e	8b 8a c4 7f ff
	ff		 mov	 ecx, DWORD PTR [edx-32828]
  00024	33 c8		 xor	 ecx, eax
  00026	e8 00 00 00 00	 call	 @__security_check_cookie@4
  0002b	8b 4a fc	 mov	 ecx, DWORD PTR [edx-4]
  0002e	33 c8		 xor	 ecx, eax
  00030	e8 00 00 00 00	 call	 @__security_check_cookie@4
  00035	b8 00 00 00 00	 mov	 eax, OFFSET __ehfuncinfo$?OnCreateHeadquarters@QuickLobbyWnd@@QAEXXZ
  0003a	e9 00 00 00 00	 jmp	 ___CxxFrameHandler3
text$x	ENDS
?OnCreateHeadquarters@QuickLobbyWnd@@QAEXXZ ENDP	; QuickLobbyWnd::OnCreateHeadquarters
PUBLIC	?RefreshTradeItemList@QuickLobbyWnd@@QAEXXZ	; QuickLobbyWnd::RefreshTradeItemList
EXTRN	?OnRefreshTradeItemList@TradeMainWnd@@QAEXXZ:PROC ; TradeMainWnd::OnRefreshTradeItemList
; Function compile flags: /Ogsp
;	COMDAT ?RefreshTradeItemList@QuickLobbyWnd@@QAEXXZ
_TEXT	SEGMENT
?RefreshTradeItemList@QuickLobbyWnd@@QAEXXZ PROC	; QuickLobbyWnd::RefreshTradeItemList, COMDAT
; _this$ = ecx

; 441  : {

  00000	56		 push	 esi

; 442  : 	TradeMainWnd *pTradeWnd = (TradeMainWnd*)( FindChildWnd( TRADE ) );

  00001	8b 35 00 00 00
	00		 mov	 esi, DWORD PTR __imp_?FindChildWnd@ioWnd@@QAEPAV1@K@Z
  00007	57		 push	 edi
  00008	6a 0f		 push	 15			; 0000000fH
  0000a	8b f9		 mov	 edi, ecx
  0000c	ff d6		 call	 esi

; 443  : 	if( pTradeWnd )

  0000e	85 c0		 test	 eax, eax
  00010	74 07		 je	 SHORT $LN2@RefreshTra

; 444  : 		pTradeWnd->OnRefreshTradeItemList();

  00012	8b c8		 mov	 ecx, eax
  00014	e8 00 00 00 00	 call	 ?OnRefreshTradeItemList@TradeMainWnd@@QAEXXZ ; TradeMainWnd::OnRefreshTradeItemList
$LN2@RefreshTra:

; 445  : 
; 446  : 	QuickLobbyTradeInfoWnd *pTradeInfoWnd = (QuickLobbyTradeInfoWnd*)( FindChildWnd( TRADE_INFO ) );

  00019	6a 08		 push	 8
  0001b	8b cf		 mov	 ecx, edi
  0001d	ff d6		 call	 esi
  0001f	5f		 pop	 edi
  00020	5e		 pop	 esi

; 447  : 	if( pTradeInfoWnd )

  00021	85 c0		 test	 eax, eax
  00023	74 07		 je	 SHORT $LN1@RefreshTra

; 448  : 		pTradeInfoWnd->OnRefreshTradeItemList();

  00025	8b c8		 mov	 ecx, eax
  00027	e9 00 00 00 00	 jmp	 ?OnRefreshTradeItemList@QuickLobbyTradeInfoWnd@@QAEXXZ ; QuickLobbyTradeInfoWnd::OnRefreshTradeItemList
$LN1@RefreshTra:

; 449  : }

  0002c	c3		 ret	 0
?RefreshTradeItemList@QuickLobbyWnd@@QAEXXZ ENDP	; QuickLobbyWnd::RefreshTradeItemList
_TEXT	ENDS
PUBLIC	?ApplyTradeItemList@QuickLobbyWnd@@QAEXAAVSP2Packet@@@Z ; QuickLobbyWnd::ApplyTradeItemList
EXTRN	?SetTradeItemList@TradeMainWnd@@QAEXAAVSP2Packet@@H@Z:PROC ; TradeMainWnd::SetTradeItemList
EXTRN	??5SP2Packet@@QAEAAV0@AAH@Z:PROC		; SP2Packet::operator>>
EXTRN	??5SP2Packet@@QAEAAV0@AA_N@Z:PROC		; SP2Packet::operator>>
; Function compile flags: /Ogsp
;	COMDAT ?ApplyTradeItemList@QuickLobbyWnd@@QAEXAAVSP2Packet@@@Z
_TEXT	SEGMENT
_pTradeWnd$ = -16					; size = 4
_pTradeInfoWnd$ = -12					; size = 4
_iMaxSize$ = -8						; size = 4
_bOwnerList$ = -1					; size = 1
_rkPacket$ = 8						; size = 4
?ApplyTradeItemList@QuickLobbyWnd@@QAEXAAVSP2Packet@@@Z PROC ; QuickLobbyWnd::ApplyTradeItemList, COMDAT
; _this$ = ecx

; 452  : {

  00000	55		 push	 ebp
  00001	8b ec		 mov	 ebp, esp
  00003	83 ec 10	 sub	 esp, 16			; 00000010H
  00006	53		 push	 ebx
  00007	56		 push	 esi
  00008	57		 push	 edi

; 453  : 	bool bOwnerList = false;
; 454  : 	int iMaxSize = 0;
; 455  : 	rkPacket >> bOwnerList;

  00009	8d 45 ff	 lea	 eax, DWORD PTR _bOwnerList$[ebp]
  0000c	8b f9		 mov	 edi, ecx
  0000e	8b 4d 08	 mov	 ecx, DWORD PTR _rkPacket$[ebp]
  00011	33 db		 xor	 ebx, ebx
  00013	50		 push	 eax
  00014	88 5d ff	 mov	 BYTE PTR _bOwnerList$[ebp], bl
  00017	89 5d f8	 mov	 DWORD PTR _iMaxSize$[ebp], ebx
  0001a	e8 00 00 00 00	 call	 ??5SP2Packet@@QAEAAV0@AA_N@Z ; SP2Packet::operator>>

; 456  : 	rkPacket >> iMaxSize;

  0001f	8b 4d 08	 mov	 ecx, DWORD PTR _rkPacket$[ebp]
  00022	8d 45 f8	 lea	 eax, DWORD PTR _iMaxSize$[ebp]
  00025	50		 push	 eax
  00026	e8 00 00 00 00	 call	 ??5SP2Packet@@QAEAAV0@AAH@Z ; SP2Packet::operator>>

; 457  : 
; 458  : 	TradeMainWnd *pTradeWnd = (TradeMainWnd*)( FindChildWnd( TRADE ) );

  0002b	8b 35 00 00 00
	00		 mov	 esi, DWORD PTR __imp_?FindChildWnd@ioWnd@@QAEPAV1@K@Z
  00031	6a 0f		 push	 15			; 0000000fH
  00033	8b cf		 mov	 ecx, edi
  00035	ff d6		 call	 esi

; 459  : 	QuickLobbyTradeInfoWnd *pTradeInfoWnd = (QuickLobbyTradeInfoWnd*)( FindChildWnd( TRADE_INFO ) );

  00037	6a 08		 push	 8
  00039	8b cf		 mov	 ecx, edi
  0003b	89 45 f0	 mov	 DWORD PTR _pTradeWnd$[ebp], eax
  0003e	ff d6		 call	 esi
  00040	89 45 f4	 mov	 DWORD PTR _pTradeInfoWnd$[ebp], eax

; 460  : 
; 461  : 	if( bOwnerList )

  00043	38 5d ff	 cmp	 BYTE PTR _bOwnerList$[ebp], bl
  00046	74 36		 je	 SHORT $LN5@ApplyTrade@2

; 462  : 	{
; 463  : 		if( pTradeWnd && pTradeWnd->IsShow() && pTradeInfoWnd )

  00048	8b 4d f0	 mov	 ecx, DWORD PTR _pTradeWnd$[ebp]
  0004b	3b cb		 cmp	 ecx, ebx
  0004d	74 54		 je	 SHORT $LN1@ApplyTrade@2
  0004f	ff 15 00 00 00
	00		 call	 DWORD PTR __imp_?IsShow@ioWnd@@QBE_NXZ
  00055	84 c0		 test	 al, al
  00057	74 4a		 je	 SHORT $LN1@ApplyTrade@2
  00059	39 5d f4	 cmp	 DWORD PTR _pTradeInfoWnd$[ebp], ebx
  0005c	74 45		 je	 SHORT $LN1@ApplyTrade@2

; 464  : 		{
; 465  : 			//     
; 466  : 			if( 0 < iMaxSize )

  0005e	39 5d f8	 cmp	 DWORD PTR _iMaxSize$[ebp], ebx
  00061	7e 0b		 jle	 SHORT $LN3@ApplyTrade@2

; 467  : 				ShowInfo( TRADE, true );

  00063	6a 01		 push	 1
  00065	6a 0f		 push	 15			; 0000000fH
  00067	8b cf		 mov	 ecx, edi
  00069	e8 00 00 00 00	 call	 ?ShowInfo@QuickLobbyWnd@@QAEXK_N@Z ; QuickLobbyWnd::ShowInfo
$LN3@ApplyTrade@2:

; 468  : 
; 469  : 			pTradeInfoWnd->ApplyTradeItemList( rkPacket, iMaxSize );

  0006e	ff 75 f8	 push	 DWORD PTR _iMaxSize$[ebp]
  00071	8b 4d f4	 mov	 ecx, DWORD PTR _pTradeInfoWnd$[ebp]
  00074	ff 75 08	 push	 DWORD PTR _rkPacket$[ebp]
  00077	e8 00 00 00 00	 call	 ?ApplyTradeItemList@QuickLobbyTradeInfoWnd@@QAEXAAVSP2Packet@@H@Z ; QuickLobbyTradeInfoWnd::ApplyTradeItemList

; 470  : 		}
; 471  : 	}
; 472  : 	else

  0007c	eb 25		 jmp	 SHORT $LN1@ApplyTrade@2
$LN5@ApplyTrade@2:

; 473  : 	{
; 474  : 		TradeMainWnd *pTradeWnd = (TradeMainWnd*)( FindChildWnd( TRADE ) );

  0007e	6a 0f		 push	 15			; 0000000fH
  00080	8b cf		 mov	 ecx, edi
  00082	ff d6		 call	 esi
  00084	8b f0		 mov	 esi, eax

; 475  : 		if( pTradeWnd  && pTradeWnd->IsShow() )

  00086	3b f3		 cmp	 esi, ebx
  00088	74 19		 je	 SHORT $LN1@ApplyTrade@2
  0008a	8b ce		 mov	 ecx, esi
  0008c	ff 15 00 00 00
	00		 call	 DWORD PTR __imp_?IsShow@ioWnd@@QBE_NXZ
  00092	84 c0		 test	 al, al
  00094	74 0d		 je	 SHORT $LN1@ApplyTrade@2

; 476  : 		{
; 477  : 			pTradeWnd->SetTradeItemList( rkPacket, iMaxSize );

  00096	ff 75 f8	 push	 DWORD PTR _iMaxSize$[ebp]
  00099	8b ce		 mov	 ecx, esi
  0009b	ff 75 08	 push	 DWORD PTR _rkPacket$[ebp]
  0009e	e8 00 00 00 00	 call	 ?SetTradeItemList@TradeMainWnd@@QAEXAAVSP2Packet@@H@Z ; TradeMainWnd::SetTradeItemList
$LN1@ApplyTrade@2:
  000a3	5f		 pop	 edi
  000a4	5e		 pop	 esi
  000a5	5b		 pop	 ebx

; 478  : 		}
; 479  : 	}
; 480  : }

  000a6	c9		 leave
  000a7	c2 04 00	 ret	 4
?ApplyTradeItemList@QuickLobbyWnd@@QAEXAAVSP2Packet@@@Z ENDP ; QuickLobbyWnd::ApplyTradeItemList
; Function compile flags: /Ogsp
_TEXT	ENDS
;	COMDAT ??_GQuickLobbyTradeInfoWnd@@UAEPAXI@Z
_TEXT	SEGMENT
___flags$ = 8						; size = 4
??_GQuickLobbyTradeInfoWnd@@UAEPAXI@Z PROC		; QuickLobbyTradeInfoWnd::`scalar deleting destructor', COMDAT
; _this$ = ecx
  00000	55		 push	 ebp
  00001	8b ec		 mov	 ebp, esp
  00003	56		 push	 esi
  00004	8b f1		 mov	 esi, ecx
  00006	e8 00 00 00 00	 call	 ??1QuickLobbyTradeInfoWnd@@UAE@XZ ; QuickLobbyTradeInfoWnd::~QuickLobbyTradeInfoWnd
  0000b	f6 45 08 01	 test	 BYTE PTR ___flags$[ebp], 1
  0000f	74 07		 je	 SHORT $LN1@scalar@4
  00011	56		 push	 esi
  00012	e8 00 00 00 00	 call	 ??3@YAXPAX@Z		; operator delete
  00017	59		 pop	 ecx
$LN1@scalar@4:
  00018	8b c6		 mov	 eax, esi
  0001a	5e		 pop	 esi
  0001b	5d		 pop	 ebp
  0001c	c2 04 00	 ret	 4
??_GQuickLobbyTradeInfoWnd@@UAEPAXI@Z ENDP		; QuickLobbyTradeInfoWnd::`scalar deleting destructor'
_TEXT	ENDS
PUBLIC	??_7?$ioWndEXMouseEventHandlerEX@VQuickLobbyWndBase@@@@6B@ ; ioWndEXMouseEventHandlerEX<QuickLobbyWndBase>::`vftable'
PUBLIC	??0?$ioWndEXMouseEventHandlerEX@VQuickLobbyWndBase@@@@QAE@PAVQuickLobbyWndBase@@P81@AEXPAVioWndEX@@AAVioWndEXMouseEvent@@@Z@Z ; ioWndEXMouseEventHandlerEX<QuickLobbyWndBase>::ioWndEXMouseEventHandlerEX<QuickLobbyWndBase>
PUBLIC	??_R4?$ioWndEXMouseEventHandlerEX@VQuickLobbyWndBase@@@@6B@ ; ioWndEXMouseEventHandlerEX<QuickLobbyWndBase>::`RTTI Complete Object Locator'
PUBLIC	??_R0?AV?$ioWndEXMouseEventHandlerEX@VQuickLobbyWndBase@@@@@8 ; ioWndEXMouseEventHandlerEX<QuickLobbyWndBase> `RTTI Type Descriptor'
PUBLIC	??_R3?$ioWndEXMouseEventHandlerEX@VQuickLobbyWndBase@@@@8 ; ioWndEXMouseEventHandlerEX<QuickLobbyWndBase>::`RTTI Class Hierarchy Descriptor'
PUBLIC	??_R2?$ioWndEXMouseEventHandlerEX@VQuickLobbyWndBase@@@@8 ; ioWndEXMouseEventHandlerEX<QuickLobbyWndBase>::`RTTI Base Class Array'
PUBLIC	??_R1A@?0A@EA@?$ioWndEXMouseEventHandlerEX@VQuickLobbyWndBase@@@@8 ; ioWndEXMouseEventHandlerEX<QuickLobbyWndBase>::`RTTI Base Class Descriptor at (0,-1,0,64)'
EXTRN	??_E?$ioWndEXMouseEventHandlerEX@VQuickLobbyWndBase@@@@UAEPAXI@Z:PROC ; ioWndEXMouseEventHandlerEX<QuickLobbyWndBase>::`vector deleting destructor'
;	COMDAT ??_R1A@?0A@EA@?$ioWndEXMouseEventHandlerEX@VQuickLobbyWndBase@@@@8
; File d:\lost saga for developer\youtube\tutorial\source\src\lsclient\gui\iowndexeventhandlerex.h
rdata$r	SEGMENT
??_R1A@?0A@EA@?$ioWndEXMouseEventHandlerEX@VQuickLobbyWndBase@@@@8 DD FLAT:??_R0?AV?$ioWndEXMouseEventHandlerEX@VQuickLobbyWndBase@@@@@8 ; ioWndEXMouseEventHandlerEX<QuickLobbyWndBase>::`RTTI Base Class Descriptor at (0,-1,0,64)'
	DD	02H
	DD	00H
	DD	0ffffffffH
	DD	00H
	DD	040H
	DD	FLAT:??_R3?$ioWndEXMouseEventHandlerEX@VQuickLobbyWndBase@@@@8
rdata$r	ENDS
;	COMDAT ??_R2?$ioWndEXMouseEventHandlerEX@VQuickLobbyWndBase@@@@8
rdata$r	SEGMENT
??_R2?$ioWndEXMouseEventHandlerEX@VQuickLobbyWndBase@@@@8 DD FLAT:??_R1A@?0A@EA@?$ioWndEXMouseEventHandlerEX@VQuickLobbyWndBase@@@@8 ; ioWndEXMouseEventHandlerEX<QuickLobbyWndBase>::`RTTI Base Class Array'
	DD	FLAT:??_R1A@?0A@EA@?$ioWndEXEventHandlerEX@VQuickLobbyWndBase@@VioWndEXMouseEvent@@@@8
	DD	FLAT:??_R1A@?0A@EA@ioWndEXEventHandlerBase@@8
rdata$r	ENDS
;	COMDAT ??_R3?$ioWndEXMouseEventHandlerEX@VQuickLobbyWndBase@@@@8
rdata$r	SEGMENT
??_R3?$ioWndEXMouseEventHandlerEX@VQuickLobbyWndBase@@@@8 DD 00H ; ioWndEXMouseEventHandlerEX<QuickLobbyWndBase>::`RTTI Class Hierarchy Descriptor'
	DD	00H
	DD	03H
	DD	FLAT:??_R2?$ioWndEXMouseEventHandlerEX@VQuickLobbyWndBase@@@@8
rdata$r	ENDS
;	COMDAT ??_R0?AV?$ioWndEXMouseEventHandlerEX@VQuickLobbyWndBase@@@@@8
_DATA	SEGMENT
??_R0?AV?$ioWndEXMouseEventHandlerEX@VQuickLobbyWndBase@@@@@8 DD FLAT:??_7type_info@@6B@ ; ioWndEXMouseEventHandlerEX<QuickLobbyWndBase> `RTTI Type Descriptor'
	DD	00H
	DB	'.?AV?$ioWndEXMouseEventHandlerEX@VQuickLobbyWndBase@@@@', 00H
_DATA	ENDS
;	COMDAT ??_R4?$ioWndEXMouseEventHandlerEX@VQuickLobbyWndBase@@@@6B@
rdata$r	SEGMENT
??_R4?$ioWndEXMouseEventHandlerEX@VQuickLobbyWndBase@@@@6B@ DD 00H ; ioWndEXMouseEventHandlerEX<QuickLobbyWndBase>::`RTTI Complete Object Locator'
	DD	00H
	DD	00H
	DD	FLAT:??_R0?AV?$ioWndEXMouseEventHandlerEX@VQuickLobbyWndBase@@@@@8
	DD	FLAT:??_R3?$ioWndEXMouseEventHandlerEX@VQuickLobbyWndBase@@@@8
rdata$r	ENDS
;	COMDAT ??_7?$ioWndEXMouseEventHandlerEX@VQuickLobbyWndBase@@@@6B@
CONST	SEGMENT
??_7?$ioWndEXMouseEventHandlerEX@VQuickLobbyWndBase@@@@6B@ DD FLAT:??_R4?$ioWndEXMouseEventHandlerEX@VQuickLobbyWndBase@@@@6B@ ; ioWndEXMouseEventHandlerEX<QuickLobbyWndBase>::`vftable'
	DD	FLAT:??_E?$ioWndEXMouseEventHandlerEX@VQuickLobbyWndBase@@@@UAEPAXI@Z
	DD	FLAT:?Call@?$ioWndEXEventHandlerEX@VQuickLobbyWndBase@@VioWndEXMouseEvent@@@@UAEXPAVioWndEX@@AAVioWndEXEvent@@@Z
; Function compile flags: /Ogsp
CONST	ENDS
;	COMDAT ??0?$ioWndEXMouseEventHandlerEX@VQuickLobbyWndBase@@@@QAE@PAVQuickLobbyWndBase@@P81@AEXPAVioWndEX@@AAVioWndEXMouseEvent@@@Z@Z
_TEXT	SEGMENT
_owner$ = 8						; size = 4
_cb$ = 12						; size = 4
??0?$ioWndEXMouseEventHandlerEX@VQuickLobbyWndBase@@@@QAE@PAVQuickLobbyWndBase@@P81@AEXPAVioWndEX@@AAVioWndEXMouseEvent@@@Z@Z PROC ; ioWndEXMouseEventHandlerEX<QuickLobbyWndBase>::ioWndEXMouseEventHandlerEX<QuickLobbyWndBase>, COMDAT
; _this$ = ecx

; 60   : 	{}

  00000	55		 push	 ebp
  00001	8b ec		 mov	 ebp, esp
  00003	56		 push	 esi
  00004	ff 75 0c	 push	 DWORD PTR _cb$[ebp]
  00007	8b f1		 mov	 esi, ecx
  00009	ff 75 08	 push	 DWORD PTR _owner$[ebp]
  0000c	e8 00 00 00 00	 call	 ??0?$ioWndEXEventHandlerEX@VQuickLobbyWndBase@@VioWndEXMouseEvent@@@@QAE@PAVQuickLobbyWndBase@@P81@AEXPAVioWndEX@@AAVioWndEXMouseEvent@@@Z@Z ; ioWndEXEventHandlerEX<QuickLobbyWndBase,ioWndEXMouseEvent>::ioWndEXEventHandlerEX<QuickLobbyWndBase,ioWndEXMouseEvent>
  00011	c7 06 00 00 00
	00		 mov	 DWORD PTR [esi], OFFSET ??_7?$ioWndEXMouseEventHandlerEX@VQuickLobbyWndBase@@@@6B@
  00017	8b c6		 mov	 eax, esi
  00019	5e		 pop	 esi
  0001a	5d		 pop	 ebp
  0001b	c2 08 00	 ret	 8
??0?$ioWndEXMouseEventHandlerEX@VQuickLobbyWndBase@@@@QAE@PAVQuickLobbyWndBase@@P81@AEXPAVioWndEX@@AAVioWndEXMouseEvent@@@Z@Z ENDP ; ioWndEXMouseEventHandlerEX<QuickLobbyWndBase>::ioWndEXMouseEventHandlerEX<QuickLobbyWndBase>
_TEXT	ENDS
PUBLIC	??1?$ioWndEXMouseEventHandlerEX@VQuickLobbyWndBase@@@@UAE@XZ ; ioWndEXMouseEventHandlerEX<QuickLobbyWndBase>::~ioWndEXMouseEventHandlerEX<QuickLobbyWndBase>
; Function compile flags: /Ogsp
;	COMDAT ??1?$ioWndEXMouseEventHandlerEX@VQuickLobbyWndBase@@@@UAE@XZ
_TEXT	SEGMENT
??1?$ioWndEXMouseEventHandlerEX@VQuickLobbyWndBase@@@@UAE@XZ PROC ; ioWndEXMouseEventHandlerEX<QuickLobbyWndBase>::~ioWndEXMouseEventHandlerEX<QuickLobbyWndBase>, COMDAT
; _this$ = ecx

; 62   : 	virtual ~ioWndEXMouseEventHandlerEX() {}

  00000	c7 01 00 00 00
	00		 mov	 DWORD PTR [ecx], OFFSET ??_7?$ioWndEXEventHandlerEX@VQuickLobbyWndBase@@VioWndEXMouseEvent@@@@6B@
  00006	ff 25 00 00 00
	00		 jmp	 DWORD PTR __imp_??1ioWndEXEventHandlerBase@@UAE@XZ
??1?$ioWndEXMouseEventHandlerEX@VQuickLobbyWndBase@@@@UAE@XZ ENDP ; ioWndEXMouseEventHandlerEX<QuickLobbyWndBase>::~ioWndEXMouseEventHandlerEX<QuickLobbyWndBase>
; Function compile flags: /Ogsp
_TEXT	ENDS
;	COMDAT ??_G?$ioWndEXMouseEventHandlerEX@VQuickLobbyWndBase@@@@UAEPAXI@Z
_TEXT	SEGMENT
___flags$ = 8						; size = 4
??_G?$ioWndEXMouseEventHandlerEX@VQuickLobbyWndBase@@@@UAEPAXI@Z PROC ; ioWndEXMouseEventHandlerEX<QuickLobbyWndBase>::`scalar deleting destructor', COMDAT
; _this$ = ecx
  00000	55		 push	 ebp
  00001	8b ec		 mov	 ebp, esp
  00003	56		 push	 esi
  00004	8b f1		 mov	 esi, ecx
  00006	c7 06 00 00 00
	00		 mov	 DWORD PTR [esi], OFFSET ??_7?$ioWndEXEventHandlerEX@VQuickLobbyWndBase@@VioWndEXMouseEvent@@@@6B@
  0000c	ff 15 00 00 00
	00		 call	 DWORD PTR __imp_??1ioWndEXEventHandlerBase@@UAE@XZ
  00012	f6 45 08 01	 test	 BYTE PTR ___flags$[ebp], 1
  00016	74 07		 je	 SHORT $LN1@scalar@5
  00018	56		 push	 esi
  00019	e8 00 00 00 00	 call	 ??3@YAXPAX@Z		; operator delete
  0001e	59		 pop	 ecx
$LN1@scalar@5:
  0001f	8b c6		 mov	 eax, esi
  00021	5e		 pop	 esi
  00022	5d		 pop	 ebp
  00023	c2 04 00	 ret	 4
??_G?$ioWndEXMouseEventHandlerEX@VQuickLobbyWndBase@@@@UAEPAXI@Z ENDP ; ioWndEXMouseEventHandlerEX<QuickLobbyWndBase>::`scalar deleting destructor'
_TEXT	ENDS
EXTRN	__imp_?Connect@ioWndEX@@QAEXW4WNDEX_EVENT_TYPE@@PAVioWndEXEventHandlerBase@@@Z:PROC
EXTRN	??2@YAPAXI@Z:PROC				; operator new
EXTRN	__imp_?iwm_create@ioWndEX@@UAEXXZ:PROC
;	COMDAT xdata$x
xdata$x	SEGMENT
__unwindtable$?iwm_create@QuickLobbyWndBase@@UAEXXZ DD 0ffffffffH
	DD	FLAT:__unwindfunclet$?iwm_create@QuickLobbyWndBase@@UAEXXZ$0
__ehfuncinfo$?iwm_create@QuickLobbyWndBase@@UAEXXZ DD 019930522H
	DD	01H
	DD	FLAT:__unwindtable$?iwm_create@QuickLobbyWndBase@@UAEXXZ
	DD	2 DUP(00H)
	DD	2 DUP(00H)
	DD	00H
	DD	01H
; Function compile flags: /Ogsp
; File d:\lost saga for developer\youtube\tutorial\source\src\lsclient\gui\quicklobbywndbase.h
xdata$x	ENDS
;	COMDAT ?iwm_create@QuickLobbyWndBase@@UAEXXZ
_TEXT	SEGMENT
$T523618 = -16						; size = 4
__$EHRec$ = -12						; size = 12
?iwm_create@QuickLobbyWndBase@@UAEXXZ PROC		; QuickLobbyWndBase::iwm_create, COMDAT
; _this$ = ecx

; 58   : 	{

  00000	6a 04		 push	 4
  00002	b8 00 00 00 00	 mov	 eax, __ehhandler$?iwm_create@QuickLobbyWndBase@@UAEXXZ
  00007	e8 00 00 00 00	 call	 __EH_prolog3
  0000c	8b f9		 mov	 edi, ecx

; 59   : 		ioWndEX::iwm_create();

  0000e	ff 15 00 00 00
	00		 call	 DWORD PTR __imp_?iwm_create@ioWndEX@@UAEXXZ

; 60   : 
; 61   : 
; 62   : 
; 63   : 		{
; 64   : 				ioWndEX* child = (ioWndEX*)( FindChildWndEX(1) );

  00014	6a 00		 push	 0
  00016	6a 01		 push	 1
  00018	8b cf		 mov	 ecx, edi
  0001a	ff 15 00 00 00
	00		 call	 DWORD PTR __imp_?FindChildWndEX@ioWnd@@QAEPAV1@K_N@Z
  00020	8b d8		 mov	 ebx, eax

; 65   : 				if ( child ) {

  00022	85 db		 test	 ebx, ebx
  00024	74 41		 je	 SHORT $LN1@iwm_create@2

; 66   : 					child->Connect( static_cast<WNDEX_EVENT_TYPE>(7), new ioWndEXMouseEventHandlerEX< QuickLobbyWndBase >( this, &QuickLobbyWndBase::OnExitButtonDown ) );

  00026	6a 10		 push	 16			; 00000010H
  00028	e8 00 00 00 00	 call	 ??2@YAPAXI@Z		; operator new
  0002d	8b f0		 mov	 esi, eax
  0002f	59		 pop	 ecx
  00030	89 75 f0	 mov	 DWORD PTR $T523618[ebp], esi
  00033	83 65 fc 00	 and	 DWORD PTR __$EHRec$[ebp+8], 0
  00037	85 f6		 test	 esi, esi
  00039	74 1b		 je	 SHORT $LN4@iwm_create@2
  0003b	57		 push	 edi
  0003c	8b ce		 mov	 ecx, esi
  0003e	ff 15 00 00 00
	00		 call	 DWORD PTR __imp_??0ioWndEXEventHandlerBase@@QAE@PAVioWndEX@@@Z
  00044	89 7e 08	 mov	 DWORD PTR [esi+8], edi
  00047	c7 46 0c 00 00
	00 00		 mov	 DWORD PTR [esi+12], OFFSET ??_9QuickLobbyWndBase@@$BBDI@AE ; QuickLobbyWndBase::`vcall'{312}'
  0004e	c7 06 00 00 00
	00		 mov	 DWORD PTR [esi], OFFSET ??_7?$ioWndEXMouseEventHandlerEX@VQuickLobbyWndBase@@@@6B@
  00054	eb 02		 jmp	 SHORT $LN5@iwm_create@2
$LN4@iwm_create@2:
  00056	33 f6		 xor	 esi, esi
$LN5@iwm_create@2:
  00058	83 4d fc ff	 or	 DWORD PTR __$EHRec$[ebp+8], -1
  0005c	56		 push	 esi
  0005d	6a 07		 push	 7
  0005f	8b cb		 mov	 ecx, ebx
  00061	ff 15 00 00 00
	00		 call	 DWORD PTR __imp_?Connect@ioWndEX@@QAEXW4WNDEX_EVENT_TYPE@@PAVioWndEXEventHandlerBase@@@Z
$LN1@iwm_create@2:

; 67   : 				}
; 68   : 		}
; 69   : 
; 70   : 	}

  00067	e8 00 00 00 00	 call	 __EH_epilog3
  0006c	c3		 ret	 0
_TEXT	ENDS
;	COMDAT text$x
text$x	SEGMENT
__unwindfunclet$?iwm_create@QuickLobbyWndBase@@UAEXXZ$0:
  00000	ff 75 f0	 push	 DWORD PTR $T523618[ebp]
  00003	e8 00 00 00 00	 call	 ??3@YAXPAX@Z		; operator delete
  00008	59		 pop	 ecx
  00009	c3		 ret	 0
__ehhandler$?iwm_create@QuickLobbyWndBase@@UAEXXZ:
  0000a	8b 54 24 08	 mov	 edx, DWORD PTR [esp+8]
  0000e	8d 42 0c	 lea	 eax, DWORD PTR [edx+12]
  00011	8b 4a ec	 mov	 ecx, DWORD PTR [edx-20]
  00014	33 c8		 xor	 ecx, eax
  00016	e8 00 00 00 00	 call	 @__security_check_cookie@4
  0001b	b8 00 00 00 00	 mov	 eax, OFFSET __ehfuncinfo$?iwm_create@QuickLobbyWndBase@@UAEXXZ
  00020	e9 00 00 00 00	 jmp	 ___CxxFrameHandler3
text$x	ENDS
?iwm_create@QuickLobbyWndBase@@UAEXXZ ENDP		; QuickLobbyWndBase::iwm_create
PUBLIC	??_C@_0BH@EAKPEOPJ@XML?1shuffletooptip?4xml?$AA@ ; `string'
PUBLIC	??_C@_0BK@BCDLEGLI@XML?1tournamentinfownd?4xml?$AA@ ; `string'
PUBLIC	??_C@_0BK@GELFMGMP@XML?1tournamentmainwnd?4xml?$AA@ ; `string'
PUBLIC	??_C@_0BP@IKEGNKNH@XML?1quickLobbytradeinfownd?4xml?$AA@ ; `string'
PUBLIC	??_C@_0BF@LKPPHECA@XML?1trademainwnd?4xml?$AA@	; `string'
PUBLIC	??_C@_0BF@EKMGOMEE@XML?1plazalistwnd?4xml?$AA@	; `string'
PUBLIC	??_C@_0BJ@FOOEHAJD@XML?1lobbycampinfownd?4xml?$AA@ ; `string'
PUBLIC	??_C@_0BE@MPJGDPAI@XML?1campmainwnd?4xml?$AA@	; `string'
PUBLIC	??_C@_0BK@NFJAMPAN@XML?1partycataloguewnd?4xml?$AA@ ; `string'
;	COMDAT ??_C@_0BH@EAKPEOPJ@XML?1shuffletooptip?4xml?$AA@
; File d:\lost saga for developer\youtube\tutorial\source\src\lsclient\gui\plazamainwnd.h
CONST	SEGMENT
??_C@_0BH@EAKPEOPJ@XML?1shuffletooptip?4xml?$AA@ DB 'XML/shuffletooptip.x'
	DB	'ml', 00H					; `string'
CONST	ENDS
;	COMDAT ??_C@_0BK@BCDLEGLI@XML?1tournamentinfownd?4xml?$AA@
CONST	SEGMENT
??_C@_0BK@BCDLEGLI@XML?1tournamentinfownd?4xml?$AA@ DB 'XML/tournamentinf'
	DB	'ownd.xml', 00H				; `string'
CONST	ENDS
;	COMDAT ??_C@_0BK@GELFMGMP@XML?1tournamentmainwnd?4xml?$AA@
CONST	SEGMENT
??_C@_0BK@GELFMGMP@XML?1tournamentmainwnd?4xml?$AA@ DB 'XML/tournamentmai'
	DB	'nwnd.xml', 00H				; `string'
CONST	ENDS
;	COMDAT ??_C@_0BP@IKEGNKNH@XML?1quickLobbytradeinfownd?4xml?$AA@
CONST	SEGMENT
??_C@_0BP@IKEGNKNH@XML?1quickLobbytradeinfownd?4xml?$AA@ DB 'XML/quickLob'
	DB	'bytradeinfownd.xml', 00H			; `string'
CONST	ENDS
;	COMDAT ??_C@_0BF@LKPPHECA@XML?1trademainwnd?4xml?$AA@
CONST	SEGMENT
??_C@_0BF@LKPPHECA@XML?1trademainwnd?4xml?$AA@ DB 'XML/trademainwnd.xml', 00H ; `string'
CONST	ENDS
;	COMDAT ??_C@_0BF@EKMGOMEE@XML?1plazalistwnd?4xml?$AA@
CONST	SEGMENT
??_C@_0BF@EKMGOMEE@XML?1plazalistwnd?4xml?$AA@ DB 'XML/plazalistwnd.xml', 00H ; `string'
CONST	ENDS
;	COMDAT ??_C@_0BJ@FOOEHAJD@XML?1lobbycampinfownd?4xml?$AA@
CONST	SEGMENT
??_C@_0BJ@FOOEHAJD@XML?1lobbycampinfownd?4xml?$AA@ DB 'XML/lobbycampinfow'
	DB	'nd.xml', 00H				; `string'
CONST	ENDS
;	COMDAT ??_C@_0BE@MPJGDPAI@XML?1campmainwnd?4xml?$AA@
CONST	SEGMENT
??_C@_0BE@MPJGDPAI@XML?1campmainwnd?4xml?$AA@ DB 'XML/campmainwnd.xml', 00H ; `string'
CONST	ENDS
;	COMDAT ??_C@_0BK@NFJAMPAN@XML?1partycataloguewnd?4xml?$AA@
CONST	SEGMENT
??_C@_0BK@NFJAMPAN@XML?1partycataloguewnd?4xml?$AA@ DB 'XML/partycatalogu'
	DB	'ewnd.xml', 00H				; `string'
; Function compile flags: /Ogsp
; File d:\lost saga for developer\youtube\tutorial\source\src\lsclient\gui\quicklobbywnd.cpp
CONST	ENDS
;	COMDAT ?iwm_create@QuickLobbyWnd@@UAEXXZ
_TEXT	SEGMENT
?iwm_create@QuickLobbyWnd@@UAEXXZ PROC			; QuickLobbyWnd::iwm_create, COMDAT
; _this$ = ecx

; 29   : {

  00000	56		 push	 esi
  00001	57		 push	 edi
  00002	8b f9		 mov	 edi, ecx

; 30   : 	QuickLobbyWndBase::iwm_create();

  00004	e8 00 00 00 00	 call	 ?iwm_create@QuickLobbyWndBase@@UAEXXZ ; QuickLobbyWndBase::iwm_create

; 31   : 
; 32   : 	//
; 33   : 	PartyCatalogueWnd* pParty = (PartyCatalogueWnd*)( g_GUIMgr.AddWnd( "XML/partycataloguewnd.xml", this ) );

  00009	57		 push	 edi
  0000a	68 00 00 00 00	 push	 OFFSET ??_C@_0BK@NFJAMPAN@XML?1partycataloguewnd?4xml?$AA@
  0000f	e8 00 00 00 00	 call	 ?GetSingleton@ioSP2GUIManager@@SAAAV1@XZ ; ioSP2GUIManager::GetSingleton
  00014	8b 35 00 00 00
	00		 mov	 esi, DWORD PTR __imp_?AddWnd@ioGUIManager@@QAEPAVioWnd@@PBDPAV2@@Z
  0001a	8b c8		 mov	 ecx, eax
  0001c	ff d6		 call	 esi

; 34   : 	if( pParty )

  0001e	85 c0		 test	 eax, eax
  00020	74 11		 je	 SHORT $LN13@iwm_create@3

; 35   : 	{
; 36   : 		pParty->SetMaxPartyList( PartyCatalogueWnd::PLAZA_MAX_PARTY_LIST );
; 37   : 		pParty->PlazaUIMove();

  00022	8b c8		 mov	 ecx, eax
  00024	c7 80 60 01 00
	00 08 00 00 00	 mov	 DWORD PTR [eax+352], 8
  0002e	e8 00 00 00 00	 call	 ?PlazaUIMove@PartyCatalogueWnd@@QAEXXZ ; PartyCatalogueWnd::PlazaUIMove
$LN13@iwm_create@3:

; 38   : 	}
; 39   : 
; 40   : 	//
; 41   : 	CampMainWnd* pCamp = (CampMainWnd*)( g_GUIMgr.AddWnd( "XML/campmainwnd.xml", this ) );

  00033	57		 push	 edi
  00034	68 00 00 00 00	 push	 OFFSET ??_C@_0BE@MPJGDPAI@XML?1campmainwnd?4xml?$AA@
  00039	e8 00 00 00 00	 call	 ?GetSingleton@ioSP2GUIManager@@SAAAV1@XZ ; ioSP2GUIManager::GetSingleton
  0003e	8b c8		 mov	 ecx, eax
  00040	ff d6		 call	 esi

; 42   : 	if( pCamp )

  00042	85 c0		 test	 eax, eax
  00044	74 1f		 je	 SHORT $LN14@iwm_create@3

; 43   : 	{
; 44   : 		LadderTeamListWnd* pTeamWnd = (LadderTeamListWnd*)( pCamp->FindChildWnd( CampMainWnd::ID_CAMP_TEAM_WND ) );

  00046	6a 0a		 push	 10			; 0000000aH
  00048	8b c8		 mov	 ecx, eax
  0004a	ff 15 00 00 00
	00		 call	 DWORD PTR __imp_?FindChildWnd@ioWnd@@QAEPAV1@K@Z

; 45   : 		if( pTeamWnd )

  00050	85 c0		 test	 eax, eax
  00052	74 11		 je	 SHORT $LN14@iwm_create@3

; 46   : 		{
; 47   : 			pTeamWnd->SetMaxTeamList( LadderTeamListWnd::PLAZA_MAX_TEAM_LIST );
; 48   : 			pTeamWnd->PlazaUIMove();

  00054	8b c8		 mov	 ecx, eax
  00056	c7 80 74 01 00
	00 0a 00 00 00	 mov	 DWORD PTR [eax+372], 10	; 0000000aH
  00060	e8 00 00 00 00	 call	 ?PlazaUIMove@LadderTeamListWnd@@QAEXXZ ; LadderTeamListWnd::PlazaUIMove
$LN14@iwm_create@3:

; 49   : 		}
; 50   : 	}
; 51   : 
; 52   : 	g_GUIMgr.AddWnd( "XML/lobbycampinfownd.xml", this );

  00065	57		 push	 edi
  00066	68 00 00 00 00	 push	 OFFSET ??_C@_0BJ@FOOEHAJD@XML?1lobbycampinfownd?4xml?$AA@
  0006b	e8 00 00 00 00	 call	 ?GetSingleton@ioSP2GUIManager@@SAAAV1@XZ ; ioSP2GUIManager::GetSingleton
  00070	8b c8		 mov	 ecx, eax
  00072	ff d6		 call	 esi

; 53   : 	PlazaListWnd* pPlaza = (PlazaListWnd*)( g_GUIMgr.AddWnd( "XML/plazalistwnd.xml", this ) );

  00074	57		 push	 edi
  00075	68 00 00 00 00	 push	 OFFSET ??_C@_0BF@EKMGOMEE@XML?1plazalistwnd?4xml?$AA@
  0007a	e8 00 00 00 00	 call	 ?GetSingleton@ioSP2GUIManager@@SAAAV1@XZ ; ioSP2GUIManager::GetSingleton
  0007f	8b c8		 mov	 ecx, eax
  00081	ff d6		 call	 esi

; 54   : 	if( pPlaza )

  00083	85 c0		 test	 eax, eax
  00085	74 11		 je	 SHORT $LN1@iwm_create@3

; 55   : 	{
; 56   : 		pPlaza->SetMaxPlazaList( PlazaListWnd::PLAZA_MAX_PLAZA_LIST );
; 57   : 		pPlaza->PlazaUIMove();

  00087	8b c8		 mov	 ecx, eax
  00089	c7 80 64 01 00
	00 08 00 00 00	 mov	 DWORD PTR [eax+356], 8
  00093	e8 00 00 00 00	 call	 ?PlazaUIMove@PlazaListWnd@@QAEXXZ ; PlazaListWnd::PlazaUIMove
$LN1@iwm_create@3:

; 58   : 	}
; 59   : 
; 60   : 	//
; 61   : 	g_GUIMgr.AddWnd( "XML/trademainwnd.xml", this );

  00098	57		 push	 edi
  00099	68 00 00 00 00	 push	 OFFSET ??_C@_0BF@LKPPHECA@XML?1trademainwnd?4xml?$AA@
  0009e	e8 00 00 00 00	 call	 ?GetSingleton@ioSP2GUIManager@@SAAAV1@XZ ; ioSP2GUIManager::GetSingleton
  000a3	8b c8		 mov	 ecx, eax
  000a5	ff d6		 call	 esi

; 62   : 	g_GUIMgr.AddWnd( "XML/quickLobbytradeinfownd.xml", this );

  000a7	57		 push	 edi
  000a8	68 00 00 00 00	 push	 OFFSET ??_C@_0BP@IKEGNKNH@XML?1quickLobbytradeinfownd?4xml?$AA@
  000ad	e8 00 00 00 00	 call	 ?GetSingleton@ioSP2GUIManager@@SAAAV1@XZ ; ioSP2GUIManager::GetSingleton
  000b2	8b c8		 mov	 ecx, eax
  000b4	ff d6		 call	 esi

; 63   : 
; 64   : 	//
; 65   : 	g_GUIMgr.AddWnd( "XML/tournamentmainwnd.xml", this );

  000b6	57		 push	 edi
  000b7	68 00 00 00 00	 push	 OFFSET ??_C@_0BK@GELFMGMP@XML?1tournamentmainwnd?4xml?$AA@
  000bc	e8 00 00 00 00	 call	 ?GetSingleton@ioSP2GUIManager@@SAAAV1@XZ ; ioSP2GUIManager::GetSingleton
  000c1	8b c8		 mov	 ecx, eax
  000c3	ff d6		 call	 esi

; 66   : 	g_GUIMgr.AddWnd( "XML/tournamentinfownd.xml", this );

  000c5	57		 push	 edi
  000c6	68 00 00 00 00	 push	 OFFSET ??_C@_0BK@BCDLEGLI@XML?1tournamentinfownd?4xml?$AA@
  000cb	e8 00 00 00 00	 call	 ?GetSingleton@ioSP2GUIManager@@SAAAV1@XZ ; ioSP2GUIManager::GetSingleton
  000d0	8b c8		 mov	 ecx, eax
  000d2	ff d6		 call	 esi

; 67   : 
; 68   : 	//  
; 69   : 	g_GUIMgr.AddWnd( "XML/shuffletooptip.xml", this );

  000d4	57		 push	 edi
  000d5	68 00 00 00 00	 push	 OFFSET ??_C@_0BH@EAKPEOPJ@XML?1shuffletooptip?4xml?$AA@
  000da	e8 00 00 00 00	 call	 ?GetSingleton@ioSP2GUIManager@@SAAAV1@XZ ; ioSP2GUIManager::GetSingleton
  000df	8b c8		 mov	 ecx, eax
  000e1	ff d6		 call	 esi
  000e3	5f		 pop	 edi
  000e4	5e		 pop	 esi

; 70   : 
; 71   : }

  000e5	c3		 ret	 0
?iwm_create@QuickLobbyWnd@@UAEXXZ ENDP			; QuickLobbyWnd::iwm_create
_TEXT	ENDS
PUBLIC	?ShowMenu@QuickLobbyWnd@@QAEXK@Z		; QuickLobbyWnd::ShowMenu
; Function compile flags: /Ogsp
;	COMDAT ?ShowMenu@QuickLobbyWnd@@QAEXK@Z
_TEXT	SEGMENT
_dwWndID$ = 8						; size = 4
?ShowMenu@QuickLobbyWnd@@QAEXK@Z PROC			; QuickLobbyWnd::ShowMenu, COMDAT
; _this$ = ecx

; 177  : {

  00000	55		 push	 ebp
  00001	8b ec		 mov	 ebp, esp
  00003	53		 push	 ebx
  00004	56		 push	 esi
  00005	57		 push	 edi
  00006	8b f1		 mov	 esi, ecx

; 178  : 	ShowWnd();

  00008	ff 15 00 00 00
	00		 call	 DWORD PTR __imp_?ShowWnd@ioWnd@@QAEXXZ

; 179  : 
; 180  : 	//iwm_create       for show/hide
; 181  : 	for( DWORD dwID = BATTLE; dwID <= TOURNAMENT; ++dwID )

  0000e	6a 0a		 push	 10			; 0000000aH
  00010	5f		 pop	 edi
$LL6@ShowMenu:

; 182  : 	{
; 183  : 		ioWnd* pWnd = FindChildWnd( dwID );

  00011	57		 push	 edi
  00012	8b ce		 mov	 ecx, esi
  00014	ff 15 00 00 00
	00		 call	 DWORD PTR __imp_?FindChildWnd@ioWnd@@QAEPAV1@K@Z
  0001a	8b d8		 mov	 ebx, eax

; 184  : 		if( pWnd )

  0001c	85 db		 test	 ebx, ebx
  0001e	74 4e		 je	 SHORT $LN5@ShowMenu

; 185  : 		{
; 186  : 			if( dwID == dwWndID )

  00020	3b 7d 08	 cmp	 edi, DWORD PTR _dwWndID$[ebp]
  00023	75 39		 jne	 SHORT $LN2@ShowMenu

; 187  : 			{
; 188  : 				SeTitle( dwID );

  00025	57		 push	 edi
  00026	8b ce		 mov	 ecx, esi
  00028	e8 00 00 00 00	 call	 ?SeTitle@QuickLobbyWnd@@QAEXK@Z ; QuickLobbyWnd::SeTitle

; 189  : 				CalcSize( dwID );

  0002d	57		 push	 edi
  0002e	8b ce		 mov	 ecx, esi
  00030	e8 00 00 00 00	 call	 ?CalcSize@QuickLobbyWnd@@QAEXK@Z ; QuickLobbyWnd::CalcSize

; 190  : 				pWnd->SetWndPos( 17, 50 );

  00035	6a 32		 push	 50			; 00000032H
  00037	6a 11		 push	 17			; 00000011H
  00039	8b cb		 mov	 ecx, ebx
  0003b	ff 15 00 00 00
	00		 call	 DWORD PTR __imp_?SetWndPos@ioWnd@@QAEXHH@Z

; 191  : 				pWnd->ShowWnd();

  00041	8b cb		 mov	 ecx, ebx
  00043	ff 15 00 00 00
	00		 call	 DWORD PTR __imp_?ShowWnd@ioWnd@@QAEXXZ

; 192  : 				m_dwCurrMenu = dwWndID;

  00049	8b 45 08	 mov	 eax, DWORD PTR _dwWndID$[ebp]

; 193  : 				ShowInfo( dwID );

  0004c	6a 00		 push	 0
  0004e	57		 push	 edi
  0004f	8b ce		 mov	 ecx, esi
  00051	89 86 b4 01 00
	00		 mov	 DWORD PTR [esi+436], eax
  00057	e8 00 00 00 00	 call	 ?ShowInfo@QuickLobbyWnd@@QAEXK_N@Z ; QuickLobbyWnd::ShowInfo

; 194  : 			}
; 195  : 			else

  0005c	eb 10		 jmp	 SHORT $LN5@ShowMenu
$LN2@ShowMenu:

; 196  : 			{
; 197  : 				pWnd->HideWnd();

  0005e	8b cb		 mov	 ecx, ebx
  00060	ff 15 00 00 00
	00		 call	 DWORD PTR __imp_?HideWnd@ioWnd@@QAEXXZ

; 198  : 				HideInfo( dwID );

  00066	57		 push	 edi
  00067	8b ce		 mov	 ecx, esi
  00069	e8 00 00 00 00	 call	 ?HideInfo@QuickLobbyWnd@@QAEXK@Z ; QuickLobbyWnd::HideInfo
$LN5@ShowMenu:

; 179  : 
; 180  : 	//iwm_create       for show/hide
; 181  : 	for( DWORD dwID = BATTLE; dwID <= TOURNAMENT; ++dwID )

  0006e	47		 inc	 edi
  0006f	83 ff 10	 cmp	 edi, 16			; 00000010H
  00072	76 9d		 jbe	 SHORT $LL6@ShowMenu
  00074	5f		 pop	 edi
  00075	5e		 pop	 esi
  00076	5b		 pop	 ebx

; 199  : 			}
; 200  : 		}
; 201  : 	}
; 202  : }

  00077	5d		 pop	 ebp
  00078	c2 04 00	 ret	 4
?ShowMenu@QuickLobbyWnd@@QAEXK@Z ENDP			; QuickLobbyWnd::ShowMenu
_TEXT	ENDS
PUBLIC	?RefreshCampInfo@QuickLobbyWnd@@QAEXH@Z		; QuickLobbyWnd::RefreshCampInfo
EXTRN	?CheckCampButton@CampMainWnd@@QAEXK@Z:PROC	; CampMainWnd::CheckCampButton
; Function compile flags: /Ogsp
;	COMDAT ?RefreshCampInfo@QuickLobbyWnd@@QAEXH@Z
_TEXT	SEGMENT
_iPrevMyCampPos$ = 8					; size = 4
?RefreshCampInfo@QuickLobbyWnd@@QAEXH@Z PROC		; QuickLobbyWnd::RefreshCampInfo, COMDAT
; _this$ = ecx

; 503  : {

  00000	55		 push	 ebp
  00001	8b ec		 mov	 ebp, esp
  00003	53		 push	 ebx
  00004	56		 push	 esi

; 504  : 	CampMainWnd *pCampMainWnd = dynamic_cast<CampMainWnd*>( FindChildWnd( CAMP ) );

  00005	6a 00		 push	 0
  00007	68 00 00 00 00	 push	 OFFSET ??_R0?AVCampMainWnd@@@8
  0000c	68 00 00 00 00	 push	 OFFSET ??_R0?AVioWnd@@@8
  00011	6a 00		 push	 0
  00013	6a 0b		 push	 11			; 0000000bH
  00015	8b f1		 mov	 esi, ecx
  00017	ff 15 00 00 00
	00		 call	 DWORD PTR __imp_?FindChildWnd@ioWnd@@QAEPAV1@K@Z
  0001d	50		 push	 eax
  0001e	e8 00 00 00 00	 call	 ___RTDynamicCast
  00023	8b d8		 mov	 ebx, eax
  00025	83 c4 14	 add	 esp, 20			; 00000014H

; 505  : 	if( pCampMainWnd )

  00028	85 db		 test	 ebx, ebx
  0002a	74 18		 je	 SHORT $LN1@RefreshCam

; 506  : 	{
; 507  : 		ShowMenu( CAMP );

  0002c	6a 0b		 push	 11			; 0000000bH
  0002e	8b ce		 mov	 ecx, esi
  00030	e8 00 00 00 00	 call	 ?ShowMenu@QuickLobbyWnd@@QAEXK@Z ; QuickLobbyWnd::ShowMenu

; 508  : 
; 509  : 		//     .
; 510  : 		if( iPrevMyCampPos == CAMP_NONE )

  00035	83 7d 08 00	 cmp	 DWORD PTR _iPrevMyCampPos$[ebp], 0
  00039	75 09		 jne	 SHORT $LN1@RefreshCam

; 511  : 			pCampMainWnd->CheckCampButton( CampMainWnd::ID_CAMP_INFO_BTN );

  0003b	6a 01		 push	 1
  0003d	8b cb		 mov	 ecx, ebx
  0003f	e8 00 00 00 00	 call	 ?CheckCampButton@CampMainWnd@@QAEXK@Z ; CampMainWnd::CheckCampButton
$LN1@RefreshCam:
  00044	5e		 pop	 esi
  00045	5b		 pop	 ebx

; 512  : 	}
; 513  : }

  00046	5d		 pop	 ebp
  00047	c2 04 00	 ret	 4
?RefreshCampInfo@QuickLobbyWnd@@QAEXH@Z ENDP		; QuickLobbyWnd::RefreshCampInfo
_TEXT	ENDS
EXTRN	__imp_?SetPositionToDefault@ioMovingWndEX@@UAEXHH_N0@Z:PROC
; Function compile flags: /Ogsp
;	COMDAT ?SetPositionToDefault@QuickLobbyWnd@@UAEXHH_N0@Z
_TEXT	SEGMENT
_iParentWidth$ = 8					; size = 4
_iParentHeight$ = 12					; size = 4
_bChildMove$ = 16					; size = 1
_bCreate$ = 20						; size = 1
?SetPositionToDefault@QuickLobbyWnd@@UAEXHH_N0@Z PROC	; QuickLobbyWnd::SetPositionToDefault, COMDAT
; _this$ = ecx

; 102  : {

  00000	55		 push	 ebp
  00001	8b ec		 mov	 ebp, esp
  00003	56		 push	 esi
  00004	57		 push	 edi

; 103  : 	QuickLobbyWndBase::SetPositionToDefault( iParentWidth, iParentHeight, bChildMove, bCreate );

  00005	ff 75 14	 push	 DWORD PTR _bCreate$[ebp]
  00008	8b f1		 mov	 esi, ecx
  0000a	ff 75 10	 push	 DWORD PTR _bChildMove$[ebp]
  0000d	ff 75 0c	 push	 DWORD PTR _iParentHeight$[ebp]
  00010	ff 75 08	 push	 DWORD PTR _iParentWidth$[ebp]
  00013	ff 15 00 00 00
	00		 call	 DWORD PTR __imp_?SetPositionToDefault@ioMovingWndEX@@UAEXHH_N0@Z

; 104  : 
; 105  : 	if( m_dwCurrMenu != NONE )

  00019	8b be b4 01 00
	00		 mov	 edi, DWORD PTR [esi+436]
  0001f	85 ff		 test	 edi, edi
  00021	74 10		 je	 SHORT $LN1@SetPositio

; 106  : 	{
; 107  : 		//Hide    
; 108  : 		DWORD dwPrevMenu = m_dwCurrMenu;
; 109  : 		HideWnd();

  00023	8b ce		 mov	 ecx, esi
  00025	ff 15 00 00 00
	00		 call	 DWORD PTR __imp_?HideWnd@ioWnd@@QAEXXZ

; 110  : 		ShowMenu( dwPrevMenu );

  0002b	57		 push	 edi
  0002c	8b ce		 mov	 ecx, esi
  0002e	e8 00 00 00 00	 call	 ?ShowMenu@QuickLobbyWnd@@QAEXK@Z ; QuickLobbyWnd::ShowMenu
$LN1@SetPositio:
  00033	5f		 pop	 edi
  00034	5e		 pop	 esi

; 111  : 	}
; 112  : }

  00035	5d		 pop	 ebp
  00036	c2 10 00	 ret	 16			; 00000010H
?SetPositionToDefault@QuickLobbyWnd@@UAEXHH_N0@Z ENDP	; QuickLobbyWnd::SetPositionToDefault
_TEXT	ENDS
END
