; Listing generated by Microsoft (R) Optimizing Compiler Version 16.00.30319.01 

	TITLE	D:\Lost Saga For Developer\Youtube\Tutorial\Source\src\LSClient\GUI\RandomDecoWnd.cpp
	.686P
	.XMM
	include listing.inc
	.model	flat

INCLUDELIB MSVCRT
INCLUDELIB OLDNAMES

PUBLIC	?return1@@YAIXZ					; return1
; Function compile flags: /Ogsp
; File d:\lost saga for developer\youtube\tutorial\source\src\lsclient\stdafx.h
;	COMDAT ?return1@@YAIXZ
_TEXT	SEGMENT
?return1@@YAIXZ PROC					; return1, COMDAT

; 17   : 	__forceinline unsigned int return1() { __asm mov eax, 1 };

  00000	b8 01 00 00 00	 mov	 eax, 1
  00005	c3		 ret	 0
?return1@@YAIXZ ENDP					; return1
_TEXT	ENDS
PUBLIC	?return1000@@YAIXZ				; return1000
; Function compile flags: /Ogsp
;	COMDAT ?return1000@@YAIXZ
_TEXT	SEGMENT
?return1000@@YAIXZ PROC					; return1000, COMDAT

; 29   : 	__forceinline unsigned int return1000() { __asm mov eax, 1000 };

  00000	b8 e8 03 00 00	 mov	 eax, 1000		; 000003e8H
  00005	c3		 ret	 0
?return1000@@YAIXZ ENDP					; return1000
_TEXT	ENDS
PUBLIC	??_7bad_alloc@std@@6B@				; std::bad_alloc::`vftable'
PUBLIC	??0bad_alloc@std@@QAE@PBD@Z			; std::bad_alloc::bad_alloc
PUBLIC	??_R4bad_alloc@std@@6B@				; std::bad_alloc::`RTTI Complete Object Locator'
PUBLIC	??_R0?AVbad_alloc@std@@@8			; std::bad_alloc `RTTI Type Descriptor'
PUBLIC	??_R3bad_alloc@std@@8				; std::bad_alloc::`RTTI Class Hierarchy Descriptor'
PUBLIC	??_R2bad_alloc@std@@8				; std::bad_alloc::`RTTI Base Class Array'
PUBLIC	??_R1A@?0A@EA@bad_alloc@std@@8			; std::bad_alloc::`RTTI Base Class Descriptor at (0,-1,0,64)'
PUBLIC	??_R1A@?0A@EA@exception@std@@8			; std::exception::`RTTI Base Class Descriptor at (0,-1,0,64)'
PUBLIC	??_R0?AVexception@std@@@8			; std::exception `RTTI Type Descriptor'
PUBLIC	??_R3exception@std@@8				; std::exception::`RTTI Class Hierarchy Descriptor'
PUBLIC	??_R2exception@std@@8				; std::exception::`RTTI Base Class Array'
EXTRN	__imp_??0exception@std@@QAE@ABQBD@Z:PROC
EXTRN	??_7type_info@@6B@:QWORD			; type_info::`vftable'
EXTRN	??_Ebad_alloc@std@@UAEPAXI@Z:PROC		; std::bad_alloc::`vector deleting destructor'
EXTRN	?what@exception@std@@UBEPBDXZ:PROC		; std::exception::what
;	COMDAT ??_R2exception@std@@8
; File c:\program files (x86)\microsoft visual studio 10.0\vc\include\exception
rdata$r	SEGMENT
??_R2exception@std@@8 DD FLAT:??_R1A@?0A@EA@exception@std@@8 ; std::exception::`RTTI Base Class Array'
rdata$r	ENDS
;	COMDAT ??_R3exception@std@@8
rdata$r	SEGMENT
??_R3exception@std@@8 DD 00H				; std::exception::`RTTI Class Hierarchy Descriptor'
	DD	00H
	DD	01H
	DD	FLAT:??_R2exception@std@@8
rdata$r	ENDS
;	COMDAT ??_R0?AVexception@std@@@8
_DATA	SEGMENT
??_R0?AVexception@std@@@8 DD FLAT:??_7type_info@@6B@	; std::exception `RTTI Type Descriptor'
	DD	00H
	DB	'.?AVexception@std@@', 00H
_DATA	ENDS
;	COMDAT ??_R1A@?0A@EA@exception@std@@8
rdata$r	SEGMENT
??_R1A@?0A@EA@exception@std@@8 DD FLAT:??_R0?AVexception@std@@@8 ; std::exception::`RTTI Base Class Descriptor at (0,-1,0,64)'
	DD	00H
	DD	00H
	DD	0ffffffffH
	DD	00H
	DD	040H
	DD	FLAT:??_R3exception@std@@8
rdata$r	ENDS
;	COMDAT ??_R1A@?0A@EA@bad_alloc@std@@8
rdata$r	SEGMENT
??_R1A@?0A@EA@bad_alloc@std@@8 DD FLAT:??_R0?AVbad_alloc@std@@@8 ; std::bad_alloc::`RTTI Base Class Descriptor at (0,-1,0,64)'
	DD	01H
	DD	00H
	DD	0ffffffffH
	DD	00H
	DD	040H
	DD	FLAT:??_R3bad_alloc@std@@8
rdata$r	ENDS
;	COMDAT ??_R2bad_alloc@std@@8
rdata$r	SEGMENT
??_R2bad_alloc@std@@8 DD FLAT:??_R1A@?0A@EA@bad_alloc@std@@8 ; std::bad_alloc::`RTTI Base Class Array'
	DD	FLAT:??_R1A@?0A@EA@exception@std@@8
rdata$r	ENDS
;	COMDAT ??_R3bad_alloc@std@@8
rdata$r	SEGMENT
??_R3bad_alloc@std@@8 DD 00H				; std::bad_alloc::`RTTI Class Hierarchy Descriptor'
	DD	00H
	DD	02H
	DD	FLAT:??_R2bad_alloc@std@@8
rdata$r	ENDS
;	COMDAT ??_R0?AVbad_alloc@std@@@8
_DATA	SEGMENT
??_R0?AVbad_alloc@std@@@8 DD FLAT:??_7type_info@@6B@	; std::bad_alloc `RTTI Type Descriptor'
	DD	00H
	DB	'.?AVbad_alloc@std@@', 00H
_DATA	ENDS
;	COMDAT ??_R4bad_alloc@std@@6B@
rdata$r	SEGMENT
??_R4bad_alloc@std@@6B@ DD 00H				; std::bad_alloc::`RTTI Complete Object Locator'
	DD	00H
	DD	00H
	DD	FLAT:??_R0?AVbad_alloc@std@@@8
	DD	FLAT:??_R3bad_alloc@std@@8
rdata$r	ENDS
;	COMDAT ??_7bad_alloc@std@@6B@
CONST	SEGMENT
??_7bad_alloc@std@@6B@ DD FLAT:??_R4bad_alloc@std@@6B@	; std::bad_alloc::`vftable'
	DD	FLAT:??_Ebad_alloc@std@@UAEPAXI@Z
	DD	FLAT:?what@exception@std@@UBEPBDXZ
; Function compile flags: /Ogsp
CONST	ENDS
;	COMDAT ??0bad_alloc@std@@QAE@PBD@Z
_TEXT	SEGMENT
__Message$ = 8						; size = 4
??0bad_alloc@std@@QAE@PBD@Z PROC			; std::bad_alloc::bad_alloc, COMDAT
; _this$ = ecx

; 345  : 		{	// construct from message string

  00000	55		 push	 ebp
  00001	8b ec		 mov	 ebp, esp
  00003	56		 push	 esi
  00004	8d 45 08	 lea	 eax, DWORD PTR __Message$[ebp]
  00007	50		 push	 eax
  00008	8b f1		 mov	 esi, ecx
  0000a	ff 15 00 00 00
	00		 call	 DWORD PTR __imp_??0exception@std@@QAE@ABQBD@Z
  00010	c7 06 00 00 00
	00		 mov	 DWORD PTR [esi], OFFSET ??_7bad_alloc@std@@6B@

; 346  : 		}

  00016	8b c6		 mov	 eax, esi
  00018	5e		 pop	 esi
  00019	5d		 pop	 ebp
  0001a	c2 04 00	 ret	 4
??0bad_alloc@std@@QAE@PBD@Z ENDP			; std::bad_alloc::bad_alloc
_TEXT	ENDS
PUBLIC	??1bad_alloc@std@@UAE@XZ			; std::bad_alloc::~bad_alloc
EXTRN	__imp_??1exception@std@@UAE@XZ:PROC
; Function compile flags: /Ogsp
;	COMDAT ??1bad_alloc@std@@UAE@XZ
_TEXT	SEGMENT
??1bad_alloc@std@@UAE@XZ PROC				; std::bad_alloc::~bad_alloc, COMDAT
; _this$ = ecx

; 354  : 		{	// destroy the object

  00000	c7 01 00 00 00
	00		 mov	 DWORD PTR [ecx], OFFSET ??_7bad_alloc@std@@6B@

; 355  : 		}

  00006	ff 25 00 00 00
	00		 jmp	 DWORD PTR __imp_??1exception@std@@UAE@XZ
??1bad_alloc@std@@UAE@XZ ENDP				; std::bad_alloc::~bad_alloc
_TEXT	ENDS
EXTRN	??3@YAXPAX@Z:PROC				; operator delete
; Function compile flags: /Ogsp
;	COMDAT ??_Gbad_alloc@std@@UAEPAXI@Z
_TEXT	SEGMENT
___flags$ = 8						; size = 4
??_Gbad_alloc@std@@UAEPAXI@Z PROC			; std::bad_alloc::`scalar deleting destructor', COMDAT
; _this$ = ecx
  00000	55		 push	 ebp
  00001	8b ec		 mov	 ebp, esp
  00003	56		 push	 esi
  00004	8b f1		 mov	 esi, ecx
  00006	c7 06 00 00 00
	00		 mov	 DWORD PTR [esi], OFFSET ??_7bad_alloc@std@@6B@
  0000c	ff 15 00 00 00
	00		 call	 DWORD PTR __imp_??1exception@std@@UAE@XZ
  00012	f6 45 08 01	 test	 BYTE PTR ___flags$[ebp], 1
  00016	74 07		 je	 SHORT $LN1@scalar
  00018	56		 push	 esi
  00019	e8 00 00 00 00	 call	 ??3@YAXPAX@Z		; operator delete
  0001e	59		 pop	 ecx
$LN1@scalar:
  0001f	8b c6		 mov	 eax, esi
  00021	5e		 pop	 esi
  00022	5d		 pop	 ebp
  00023	c2 04 00	 ret	 4
??_Gbad_alloc@std@@UAEPAXI@Z ENDP			; std::bad_alloc::`scalar deleting destructor'
_TEXT	ENDS
PUBLIC	??2@YAPAXIPAX@Z					; operator new
; Function compile flags: /Ogsp
; File c:\program files (x86)\microsoft visual studio 10.0\vc\include\new
;	COMDAT ??2@YAPAXIPAX@Z
_TEXT	SEGMENT
___formal$ = 8						; size = 4
__Where$ = 12						; size = 4
??2@YAPAXIPAX@Z PROC					; operator new, COMDAT

; 56   : 	{	// construct array with placement at _Where

  00000	55		 push	 ebp
  00001	8b ec		 mov	 ebp, esp

; 57   : 	return (_Where);

  00003	8b 45 0c	 mov	 eax, DWORD PTR __Where$[ebp]

; 58   : 	}

  00006	5d		 pop	 ebp
  00007	c3		 ret	 0
??2@YAPAXIPAX@Z ENDP					; operator new
_TEXT	ENDS
PUBLIC	??3@YAXPAX0@Z					; operator delete
; Function compile flags: /Ogsp
;	COMDAT ??3@YAXPAX0@Z
_TEXT	SEGMENT
___formal$ = 8						; size = 4
___formal$ = 12						; size = 4
??3@YAXPAX0@Z PROC					; operator delete, COMDAT

; 62   : 	}

  00000	c3		 ret	 0
??3@YAXPAX0@Z ENDP					; operator delete
_TEXT	ENDS
PUBLIC	?iwm_hide@RandomDecoWnd@@UAEXXZ			; RandomDecoWnd::iwm_hide
EXTRN	__imp_?StopSound@ioSoundManager@@QAEXABVioHashString@@K@Z:PROC
EXTRN	__imp_?GetSingleton@ioSoundManager@@SAAAV1@XZ:PROC
EXTRN	__imp_?IsEmpty@ioHashString@@QBE_NXZ:PROC
; Function compile flags: /Ogsp
; File d:\lost saga for developer\youtube\tutorial\source\src\lsclient\gui\randomdecownd.cpp
;	COMDAT ?iwm_hide@RandomDecoWnd@@UAEXXZ
_TEXT	SEGMENT
?iwm_hide@RandomDecoWnd@@UAEXXZ PROC			; RandomDecoWnd::iwm_hide, COMDAT
; _this$ = ecx

; 471  : {

  00000	56		 push	 esi

; 472  : 	if( !m_szRollingSound.IsEmpty() )

  00001	8d b1 04 02 00
	00		 lea	 esi, DWORD PTR [ecx+516]
  00007	8b ce		 mov	 ecx, esi
  00009	ff 15 00 00 00
	00		 call	 DWORD PTR __imp_?IsEmpty@ioHashString@@QBE_NXZ
  0000f	84 c0		 test	 al, al
  00011	75 11		 jne	 SHORT $LN1@iwm_hide

; 473  : 	{
; 474  : 		g_SoundMgr.StopSound( m_szRollingSound, 0 );

  00013	6a 00		 push	 0
  00015	56		 push	 esi
  00016	ff 15 00 00 00
	00		 call	 DWORD PTR __imp_?GetSingleton@ioSoundManager@@SAAAV1@XZ
  0001c	8b c8		 mov	 ecx, eax
  0001e	ff 15 00 00 00
	00		 call	 DWORD PTR __imp_?StopSound@ioSoundManager@@QAEXABVioHashString@@K@Z
$LN1@iwm_hide:
  00024	5e		 pop	 esi

; 475  : 	}
; 476  : }

  00025	c3		 ret	 0
?iwm_hide@RandomDecoWnd@@UAEXXZ ENDP			; RandomDecoWnd::iwm_hide
_TEXT	ENDS
PUBLIC	?_Adopt@_Iterator_base0@std@@QAEXPBX@Z		; std::_Iterator_base0::_Adopt
; Function compile flags: /Ogsp
; File c:\program files (x86)\microsoft visual studio 10.0\vc\include\xutility
;	COMDAT ?_Adopt@_Iterator_base0@std@@QAEXPBX@Z
_TEXT	SEGMENT
___formal$ = 8						; size = 4
?_Adopt@_Iterator_base0@std@@QAEXPBX@Z PROC		; std::_Iterator_base0::_Adopt, COMDAT
; _this$ = ecx

; 49   : 		}

  00000	c2 04 00	 ret	 4
?_Adopt@_Iterator_base0@std@@QAEXPBX@Z ENDP		; std::_Iterator_base0::_Adopt
_TEXT	ENDS
PUBLIC	?OnResultInfo@RandomDecoWnd@@QAEXFHHHH_NH@Z	; RandomDecoWnd::OnResultInfo
; Function compile flags: /Ogsp
; File d:\lost saga for developer\youtube\tutorial\source\src\lsclient\gui\randomdecownd.cpp
;	COMDAT ?OnResultInfo@RandomDecoWnd@@QAEXFHHHH_NH@Z
_TEXT	SEGMENT
_iPresentType$ = 8					; size = 2
_iPresentValue1$ = 12					; size = 4
_iPresentValue2$ = 16					; size = 4
_iPresentValue3$ = 20					; size = 4
_iPresentValue4$ = 24					; size = 4
_bAlram$ = 28						; size = 1
_iPresentPeso$ = 32					; size = 4
?OnResultInfo@RandomDecoWnd@@QAEXFHHHH_NH@Z PROC	; RandomDecoWnd::OnResultInfo, COMDAT
; _this$ = ecx

; 681  : {

  00000	55		 push	 ebp
  00001	8b ec		 mov	 ebp, esp

; 682  : 	m_bResult   = true;
; 683  : 
; 684  : 	m_iPresentType   = iPresentType;

  00003	66 8b 45 08	 mov	 ax, WORD PTR _iPresentType$[ebp]
  00007	66 89 81 b8 01
	00 00		 mov	 WORD PTR [ecx+440], ax

; 685  : 	m_iPresentValue1 = iPresentValue1;

  0000e	8b 45 0c	 mov	 eax, DWORD PTR _iPresentValue1$[ebp]
  00011	89 81 bc 01 00
	00		 mov	 DWORD PTR [ecx+444], eax

; 686  : 	m_iPresentValue2 = iPresentValue2;

  00017	8b 45 10	 mov	 eax, DWORD PTR _iPresentValue2$[ebp]
  0001a	89 81 c0 01 00
	00		 mov	 DWORD PTR [ecx+448], eax

; 687  : 	m_iPresentValue3 = iPresentValue3;

  00020	8b 45 14	 mov	 eax, DWORD PTR _iPresentValue3$[ebp]
  00023	89 81 c4 01 00
	00		 mov	 DWORD PTR [ecx+452], eax

; 688  : 	m_iPresentValue4 = iPresentValue4;

  00029	8b 45 18	 mov	 eax, DWORD PTR _iPresentValue4$[ebp]
  0002c	89 81 c8 01 00
	00		 mov	 DWORD PTR [ecx+456], eax

; 689  : 	m_bAlarm         = bAlram;

  00032	8a 45 1c	 mov	 al, BYTE PTR _bAlram$[ebp]
  00035	88 81 cc 01 00
	00		 mov	 BYTE PTR [ecx+460], al

; 690  : 	m_iPresentPeso   = iPresentPeso;

  0003b	8b 45 20	 mov	 eax, DWORD PTR _iPresentPeso$[ebp]
  0003e	c6 81 d4 01 00
	00 01		 mov	 BYTE PTR [ecx+468], 1
  00045	89 81 d0 01 00
	00		 mov	 DWORD PTR [ecx+464], eax

; 691  : }

  0004b	5d		 pop	 ebp
  0004c	c2 1c 00	 ret	 28			; 0000001cH
?OnResultInfo@RandomDecoWnd@@QAEXFHHHH_NH@Z ENDP	; RandomDecoWnd::OnResultInfo
_TEXT	ENDS
PUBLIC	__real@4f800000
PUBLIC	?SetPresentIcon@RandomDecoWnd@@IAEXXZ		; RandomDecoWnd::SetPresentIcon
EXTRN	__imp_?CreateImageByFullName@ioUIImageSetManager@@QAEPAVioUIRenderImage@@ABVioHashString@@_N@Z:PROC
EXTRN	__imp_?GetSingleton@ioUIImageSetManager@@SAAAV1@XZ:PROC
EXTRN	?GetDecoData@ioDecorationPrice@@QAEABUtagDecoData@@HHH@Z:PROC ; ioDecorationPrice::GetDecoData
EXTRN	?GetSingleton@ioDecorationPrice@@SAAAV1@XZ:PROC	; ioDecorationPrice::GetSingleton
EXTRN	__fltused:DWORD
EXTRN	__ftol2_sse:PROC
;	COMDAT __real@4f800000
; File d:\lost saga for developer\youtube\tutorial\source\src\lsclient\stdafx.h
CONST	SEGMENT
__real@4f800000 DD 04f800000r			; 4.29497e+009
; Function compile flags: /Ogsp
; File d:\lost saga for developer\youtube\tutorial\source\src\lsclient\gui\randomdecownd.cpp
CONST	ENDS
;	COMDAT ?SetPresentIcon@RandomDecoWnd@@IAEXXZ
_TEXT	SEGMENT
tv197 = -4						; size = 4
tv194 = -4						; size = 4
?SetPresentIcon@RandomDecoWnd@@IAEXXZ PROC		; RandomDecoWnd::SetPresentIcon, COMDAT
; _this$ = ecx

; 694  : {

  00000	55		 push	 ebp
  00001	8b ec		 mov	 ebp, esp
  00003	51		 push	 ecx
  00004	56		 push	 esi
  00005	8b f1		 mov	 esi, ecx

; 695  : 	SAFEDELETE( m_pIcon );

  00007	8b 8e 60 01 00
	00		 mov	 ecx, DWORD PTR [esi+352]
  0000d	85 c9		 test	 ecx, ecx
  0000f	74 0e		 je	 SHORT $LN4@SetPresent
  00011	8b 01		 mov	 eax, DWORD PTR [ecx]
  00013	6a 01		 push	 1
  00015	ff 50 40	 call	 DWORD PTR [eax+64]
  00018	83 a6 60 01 00
	00 00		 and	 DWORD PTR [esi+352], 0
$LN4@SetPresent:

; 696  : 	switch( m_iPresentType )

  0001f	66 83 be b8 01
	00 00 07	 cmp	 WORD PTR [esi+440], 7
  00027	75 72		 jne	 SHORT $LN2@SetPresent

; 697  : 	{
; 698  : 	case PRESENT_RANDOM_DECO:
; 699  : 		{
; 700  : 			int iSexType   = (m_iPresentValue1 % 100000) / FLOAT1000;

  00029	53		 push	 ebx
  0002a	57		 push	 edi
  0002b	b8 e8 03 00 00	 mov	 eax, 1000		; 000003e8H
  00030	8b be bc 01 00
	00		 mov	 edi, DWORD PTR [esi+444]
  00036	8b c8		 mov	 ecx, eax
  00038	8b c7		 mov	 eax, edi
  0003a	99		 cdq
  0003b	bb a0 86 01 00	 mov	 ebx, 100000		; 000186a0H
  00040	f7 fb		 idiv	 ebx
  00042	89 55 fc	 mov	 DWORD PTR tv197[ebp], edx
  00045	db 45 fc	 fild	 DWORD PTR tv197[ebp]
  00048	89 4d fc	 mov	 DWORD PTR tv194[ebp], ecx
  0004b	db 45 fc	 fild	 DWORD PTR tv194[ebp]
  0004e	85 c9		 test	 ecx, ecx
  00050	79 06		 jns	 SHORT $LN11@SetPresent
  00052	d8 05 00 00 00
	00		 fadd	 DWORD PTR __real@4f800000
$LN11@SetPresent:
  00058	de f9		 fdivp	 ST(1), ST(0)
  0005a	e8 00 00 00 00	 call	 __ftol2_sse
  0005f	8b c8		 mov	 ecx, eax

; 701  : 			int iDecoType  = m_iPresentValue1 % 1000;

  00061	8b c7		 mov	 eax, edi
  00063	99		 cdq
  00064	bf e8 03 00 00	 mov	 edi, 1000		; 000003e8H
  00069	f7 ff		 idiv	 edi

; 702  : 			const DecoData &kData = g_DecorationPrice.GetDecoData( iSexType, iDecoType, m_iPresentValue2 );

  0006b	ff b6 c0 01 00
	00		 push	 DWORD PTR [esi+448]
  00071	52		 push	 edx
  00072	51		 push	 ecx
  00073	e8 00 00 00 00	 call	 ?GetSingleton@ioDecorationPrice@@SAAAV1@XZ ; ioDecorationPrice::GetSingleton
  00078	8b c8		 mov	 ecx, eax
  0007a	e8 00 00 00 00	 call	 ?GetDecoData@ioDecorationPrice@@QAEABUtagDecoData@@HHH@Z ; ioDecorationPrice::GetDecoData

; 703  : 			m_pIcon = g_UIImageSetMgr.CreateImageByFullName( kData.m_szIcon );

  0007f	83 c0 10	 add	 eax, 16			; 00000010H
  00082	6a 00		 push	 0
  00084	50		 push	 eax
  00085	ff 15 00 00 00
	00		 call	 DWORD PTR __imp_?GetSingleton@ioUIImageSetManager@@SAAAV1@XZ
  0008b	8b c8		 mov	 ecx, eax
  0008d	ff 15 00 00 00
	00		 call	 DWORD PTR __imp_?CreateImageByFullName@ioUIImageSetManager@@QAEPAVioUIRenderImage@@ABVioHashString@@_N@Z
  00093	5f		 pop	 edi
  00094	89 86 60 01 00
	00		 mov	 DWORD PTR [esi+352], eax
  0009a	5b		 pop	 ebx
$LN2@SetPresent:
  0009b	5e		 pop	 esi

; 704  : 		}
; 705  : 		break;
; 706  : 	}
; 707  : }

  0009c	c9		 leave
  0009d	c3		 ret	 0
?SetPresentIcon@RandomDecoWnd@@IAEXXZ ENDP		; RandomDecoWnd::SetPresentIcon
_TEXT	ENDS
PUBLIC	?IsRolling@RandomDecoWnd@@QAE_NXZ		; RandomDecoWnd::IsRolling
; Function compile flags: /Ogsp
;	COMDAT ?IsRolling@RandomDecoWnd@@QAE_NXZ
_TEXT	SEGMENT
?IsRolling@RandomDecoWnd@@QAE_NXZ PROC			; RandomDecoWnd::IsRolling, COMDAT
; _this$ = ecx

; 711  : 	if( m_bResult && !m_bFinalResult )

  00000	80 b9 d4 01 00
	00 00		 cmp	 BYTE PTR [ecx+468], 0
  00007	74 0c		 je	 SHORT $LN1@IsRolling
  00009	80 b9 d5 01 00
	00 00		 cmp	 BYTE PTR [ecx+469], 0
  00010	75 03		 jne	 SHORT $LN1@IsRolling

; 712  : 		return true;

  00012	b0 01		 mov	 al, 1

; 715  : }

  00014	c3		 ret	 0
$LN1@IsRolling:

; 713  : 
; 714  : 	return false;

  00015	32 c0		 xor	 al, al

; 715  : }

  00017	c3		 ret	 0
?IsRolling@RandomDecoWnd@@QAE_NXZ ENDP			; RandomDecoWnd::IsRolling
_TEXT	ENDS
PUBLIC	??A?$vector@VioHashString@@V?$allocator@VioHashString@@@std@@@std@@QAEAAVioHashString@@I@Z ; std::vector<ioHashString,std::allocator<ioHashString> >::operator[]
; Function compile flags: /Ogsp
; File c:\program files (x86)\microsoft visual studio 10.0\vc\include\vector
;	COMDAT ??A?$vector@VioHashString@@V?$allocator@VioHashString@@@std@@@std@@QAEAAVioHashString@@I@Z
_TEXT	SEGMENT
__Pos$ = 8						; size = 4
??A?$vector@VioHashString@@V?$allocator@VioHashString@@@std@@@std@@QAEAAVioHashString@@I@Z PROC ; std::vector<ioHashString,std::allocator<ioHashString> >::operator[], COMDAT
; _this$ = ecx

; 928  : 		{	// subscript mutable sequence

  00000	55		 push	 ebp
  00001	8b ec		 mov	 ebp, esp

; 929  :  #if _ITERATOR_DEBUG_LEVEL == 2
; 930  : 		if (size() <= _Pos)
; 931  : 			{	// report error
; 932  : 			_DEBUG_ERROR("vector subscript out of range");
; 933  : 			_SCL_SECURE_OUT_OF_RANGE;
; 934  : 			}
; 935  : 
; 936  :  #elif _ITERATOR_DEBUG_LEVEL == 1
; 937  : 		_SCL_SECURE_VALIDATE_RANGE(_Pos < size());
; 938  :  #endif /* _ITERATOR_DEBUG_LEVEL */
; 939  : 
; 940  : 		return (*(this->_Myfirst + _Pos));

  00003	8b 45 08	 mov	 eax, DWORD PTR __Pos$[ebp]
  00006	c1 e0 04	 shl	 eax, 4
  00009	03 01		 add	 eax, DWORD PTR [ecx]

; 941  : 		}

  0000b	5d		 pop	 ebp
  0000c	c2 04 00	 ret	 4
??A?$vector@VioHashString@@V?$allocator@VioHashString@@@std@@@std@@QAEAAVioHashString@@I@Z ENDP ; std::vector<ioHashString,std::allocator<ioHashString> >::operator[]
_TEXT	ENDS
PUBLIC	?GetSingleton@?$Singleton@VioEtcItemManager@@@@SAAAVioEtcItemManager@@XZ ; Singleton<ioEtcItemManager>::GetSingleton
EXTRN	?ms_Singleton@?$Singleton@VioEtcItemManager@@@@1PAVioEtcItemManager@@A:DWORD ; Singleton<ioEtcItemManager>::ms_Singleton
; Function compile flags: /Ogsp
; File d:\lost saga for developer\youtube\tutorial\source\src\io3dengine\iosingleton.h
;	COMDAT ?GetSingleton@?$Singleton@VioEtcItemManager@@@@SAAAVioEtcItemManager@@XZ
_TEXT	SEGMENT
?GetSingleton@?$Singleton@VioEtcItemManager@@@@SAAAVioEtcItemManager@@XZ PROC ; Singleton<ioEtcItemManager>::GetSingleton, COMDAT

; 42   : 		assert( ms_Singleton );
; 43   : 		return (*ms_Singleton);

  00000	a1 00 00 00 00	 mov	 eax, DWORD PTR ?ms_Singleton@?$Singleton@VioEtcItemManager@@@@1PAVioEtcItemManager@@A ; Singleton<ioEtcItemManager>::ms_Singleton

; 44   : 	}

  00005	c3		 ret	 0
?GetSingleton@?$Singleton@VioEtcItemManager@@@@SAAAVioEtcItemManager@@XZ ENDP ; Singleton<ioEtcItemManager>::GetSingleton
_TEXT	ENDS
PUBLIC	?capacity@?$vector@VioHashString@@V?$allocator@VioHashString@@@std@@@std@@QBEIXZ ; std::vector<ioHashString,std::allocator<ioHashString> >::capacity
; Function compile flags: /Ogsp
; File c:\program files (x86)\microsoft visual studio 10.0\vc\include\vector
;	COMDAT ?capacity@?$vector@VioHashString@@V?$allocator@VioHashString@@@std@@@std@@QBEIXZ
_TEXT	SEGMENT
?capacity@?$vector@VioHashString@@V?$allocator@VioHashString@@@std@@@std@@QBEIXZ PROC ; std::vector<ioHashString,std::allocator<ioHashString> >::capacity, COMDAT
; _this$ = ecx

; 777  : 		return (this->_Myend - this->_Myfirst);

  00000	8b 41 08	 mov	 eax, DWORD PTR [ecx+8]
  00003	2b 01		 sub	 eax, DWORD PTR [ecx]
  00005	c1 f8 04	 sar	 eax, 4

; 778  : 		}

  00008	c3		 ret	 0
?capacity@?$vector@VioHashString@@V?$allocator@VioHashString@@@std@@@std@@QBEIXZ ENDP ; std::vector<ioHashString,std::allocator<ioHashString> >::capacity
_TEXT	ENDS
PUBLIC	?_Inside@?$vector@VioHashString@@V?$allocator@VioHashString@@@std@@@std@@IBE_NPBVioHashString@@@Z ; std::vector<ioHashString,std::allocator<ioHashString> >::_Inside
; Function compile flags: /Ogsp
;	COMDAT ?_Inside@?$vector@VioHashString@@V?$allocator@VioHashString@@@std@@@std@@IBE_NPBVioHashString@@@Z
_TEXT	SEGMENT
__Ptr$ = 8						; size = 4
?_Inside@?$vector@VioHashString@@V?$allocator@VioHashString@@@std@@@std@@IBE_NPBVioHashString@@@Z PROC ; std::vector<ioHashString,std::allocator<ioHashString> >::_Inside, COMDAT
; _this$ = ecx

; 1285 : 		{	// test if _Ptr points inside vector

  00000	55		 push	 ebp
  00001	8b ec		 mov	 ebp, esp

; 1286 : 		return (_Ptr < this->_Mylast && this->_Myfirst <= _Ptr);

  00003	8b 45 08	 mov	 eax, DWORD PTR __Ptr$[ebp]
  00006	3b 41 04	 cmp	 eax, DWORD PTR [ecx+4]
  00009	73 09		 jae	 SHORT $LN3@Inside
  0000b	39 01		 cmp	 DWORD PTR [ecx], eax
  0000d	77 05		 ja	 SHORT $LN3@Inside
  0000f	33 c0		 xor	 eax, eax
  00011	40		 inc	 eax
  00012	eb 02		 jmp	 SHORT $LN4@Inside
$LN3@Inside:
  00014	33 c0		 xor	 eax, eax
$LN4@Inside:

; 1287 : 		}

  00016	5d		 pop	 ebp
  00017	c2 04 00	 ret	 4
?_Inside@?$vector@VioHashString@@V?$allocator@VioHashString@@@std@@@std@@IBE_NPBVioHashString@@@Z ENDP ; std::vector<ioHashString,std::allocator<ioHashString> >::_Inside
_TEXT	ENDS
PUBLIC	?_Orphan_range@?$vector@VioHashString@@V?$allocator@VioHashString@@@std@@@std@@IBEXPAVioHashString@@0@Z ; std::vector<ioHashString,std::allocator<ioHashString> >::_Orphan_range
; Function compile flags: /Ogsp
;	COMDAT ?_Orphan_range@?$vector@VioHashString@@V?$allocator@VioHashString@@@std@@@std@@IBEXPAVioHashString@@0@Z
_TEXT	SEGMENT
___formal$ = 8						; size = 4
___formal$ = 12						; size = 4
?_Orphan_range@?$vector@VioHashString@@V?$allocator@VioHashString@@@std@@@std@@IBEXPAVioHashString@@0@Z PROC ; std::vector<ioHashString,std::allocator<ioHashString> >::_Orphan_range, COMDAT
; _this$ = ecx

; 1454 : 		}

  00000	c2 08 00	 ret	 8
?_Orphan_range@?$vector@VioHashString@@V?$allocator@VioHashString@@@std@@@std@@IBEXPAVioHashString@@0@Z ENDP ; std::vector<ioHashString,std::allocator<ioHashString> >::_Orphan_range
_TEXT	ENDS
PUBLIC	??$addressof@$$CBVioHashString@@@std@@YAPBVioHashString@@ABV1@@Z ; std::addressof<ioHashString const >
; Function compile flags: /Ogsp
; File c:\program files (x86)\microsoft visual studio 10.0\vc\include\xmemory
;	COMDAT ??$addressof@$$CBVioHashString@@@std@@YAPBVioHashString@@ABV1@@Z
_TEXT	SEGMENT
__Val$ = 8						; size = 4
??$addressof@$$CBVioHashString@@@std@@YAPBVioHashString@@ABV1@@Z PROC ; std::addressof<ioHashString const >, COMDAT

; 110  : 	{	// return address of _Val

  00000	55		 push	 ebp
  00001	8b ec		 mov	 ebp, esp

; 111  : 	return ((_Ty *) &(char&)_Val);

  00003	8b 45 08	 mov	 eax, DWORD PTR __Val$[ebp]

; 112  : 	}

  00006	5d		 pop	 ebp
  00007	c3		 ret	 0
??$addressof@$$CBVioHashString@@@std@@YAPBVioHashString@@ABV1@@Z ENDP ; std::addressof<ioHashString const >
_TEXT	ENDS
PUBLIC	??$_Val_type@PAVioHashString@@@std@@YAPAVioHashString@@PAV1@@Z ; std::_Val_type<ioHashString *>
; Function compile flags: /Ogsp
; File c:\program files (x86)\microsoft visual studio 10.0\vc\include\xutility
;	COMDAT ??$_Val_type@PAVioHashString@@@std@@YAPAVioHashString@@PAV1@@Z
_TEXT	SEGMENT
___formal$ = 8						; size = 4
??$_Val_type@PAVioHashString@@@std@@YAPAVioHashString@@PAV1@@Z PROC ; std::_Val_type<ioHashString *>, COMDAT

; 790  : 	return (0);

  00000	33 c0		 xor	 eax, eax

; 791  : 	}

  00002	c3		 ret	 0
??$_Val_type@PAVioHashString@@@std@@YAPAVioHashString@@PAV1@@Z ENDP ; std::_Val_type<ioHashString *>
_TEXT	ENDS
PUBLIC	??$forward@VioHashString@@@std@@YA$$QAVioHashString@@AAV1@@Z ; std::forward<ioHashString>
; Function compile flags: /Ogsp
; File c:\program files (x86)\microsoft visual studio 10.0\vc\include\utility
;	COMDAT ??$forward@VioHashString@@@std@@YA$$QAVioHashString@@AAV1@@Z
_TEXT	SEGMENT
__Arg$ = 8						; size = 4
??$forward@VioHashString@@@std@@YA$$QAVioHashString@@AAV1@@Z PROC ; std::forward<ioHashString>, COMDAT

; 78   : 	{	// forward _Arg, given explicitly specified type parameter

  00000	55		 push	 ebp
  00001	8b ec		 mov	 ebp, esp

; 79   : 	return ((_Ty&&)_Arg);

  00003	8b 45 08	 mov	 eax, DWORD PTR __Arg$[ebp]

; 80   : 	}

  00006	5d		 pop	 ebp
  00007	c3		 ret	 0
??$forward@VioHashString@@@std@@YA$$QAVioHashString@@AAV1@@Z ENDP ; std::forward<ioHashString>
; Function compile flags: /Ogsp
; File c:\program files (x86)\microsoft sdks\windows\v7.0a\include\strsafe.h
_TEXT	ENDS
;	COMDAT ?StringValidateDestA@@YGJPBDII@Z
_TEXT	SEGMENT
_cchMax$ = 8						; size = 4
?StringValidateDestA@@YGJPBDII@Z PROC			; StringValidateDestA, COMDAT
; _cchDest$ = ecx

; 8721 : {

  00000	55		 push	 ebp
  00001	8b ec		 mov	 ebp, esp

; 8722 :     HRESULT hr = S_OK;

  00003	33 c0		 xor	 eax, eax

; 8723 : 
; 8724 :     if ((cchDest == 0) || (cchDest > cchMax))

  00005	85 c9		 test	 ecx, ecx
  00007	74 05		 je	 SHORT $LN1@StringVali
  00009	3b 4d 08	 cmp	 ecx, DWORD PTR _cchMax$[ebp]
  0000c	76 05		 jbe	 SHORT $LN2@StringVali
$LN1@StringVali:

; 8725 :     {
; 8726 :         hr = STRSAFE_E_INVALID_PARAMETER;

  0000e	b8 57 00 07 80	 mov	 eax, -2147024809	; 80070057H
$LN2@StringVali:

; 8727 :     }
; 8728 : 
; 8729 :     return hr;
; 8730 : }

  00013	5d		 pop	 ebp
  00014	c2 04 00	 ret	 4
?StringValidateDestA@@YGJPBDII@Z ENDP			; StringValidateDestA
_TEXT	ENDS
EXTRN	__imp___vsnprintf:PROC
; Function compile flags: /Ogsp
;	COMDAT ?StringVPrintfWorkerA@@YGJPADIPAIPBD0@Z
_TEXT	SEGMENT
_pcchNewDestLength$ = 8					; size = 4
_pszFormat$ = 12					; size = 4
_argList$ = 16						; size = 4
?StringVPrintfWorkerA@@YGJPADIPAIPBD0@Z PROC		; StringVPrintfWorkerA, COMDAT
; _pszDest$ = edi
; _cchDest$ = eax

; 9029 : {

  00000	55		 push	 ebp
  00001	8b ec		 mov	 ebp, esp
  00003	53		 push	 ebx
  00004	56		 push	 esi

; 9030 :     HRESULT hr = S_OK;
; 9031 :     int iRet;
; 9032 :     size_t cchMax;
; 9033 :     size_t cchNewDestLength = 0;
; 9034 : 
; 9035 :     // leave the last space for the null terminator
; 9036 :     cchMax = cchDest - 1;
; 9037 : 
; 9038 : #if (STRSAFE_USE_SECURE_CRT == 1) && !defined(STRSAFE_LIB_IMPL)
; 9039 :     iRet = _vsnprintf_s(pszDest, cchDest, cchMax, pszFormat, argList);
; 9040 : #else
; 9041 :     #pragma warning(push)
; 9042 :     #pragma warning(disable: __WARNING_BANNED_API_USAGE)// "STRSAFE not included"
; 9043 :     iRet = _vsnprintf(pszDest, cchMax, pszFormat, argList);

  00005	ff 75 10	 push	 DWORD PTR _argList$[ebp]
  00008	8d 70 ff	 lea	 esi, DWORD PTR [eax-1]
  0000b	ff 75 0c	 push	 DWORD PTR _pszFormat$[ebp]
  0000e	33 db		 xor	 ebx, ebx
  00010	56		 push	 esi
  00011	57		 push	 edi
  00012	ff 15 00 00 00
	00		 call	 DWORD PTR __imp___vsnprintf
  00018	83 c4 10	 add	 esp, 16			; 00000010H

; 9044 :     #pragma warning(pop)
; 9045 : #endif
; 9046 :     // ASSERT((iRet < 0) || (((size_t)iRet) <= cchMax));
; 9047 : 
; 9048 :     if ((iRet < 0) || (((size_t)iRet) > cchMax))

  0001b	85 c0		 test	 eax, eax
  0001d	78 0b		 js	 SHORT $LN5@StringVPri
  0001f	3b c6		 cmp	 eax, esi
  00021	77 07		 ja	 SHORT $LN5@StringVPri

; 9058 :     }
; 9059 :     else if (((size_t)iRet) == cchMax)

  00023	75 0f		 jne	 SHORT $LN2@StringVPri

; 9060 :     {
; 9061 :         // need to null terminate the string
; 9062 :         pszDest += cchMax;
; 9063 :         *pszDest = '\0';

  00025	88 1c 3e	 mov	 BYTE PTR [esi+edi], bl

; 9064 : 
; 9065 :         cchNewDestLength = cchMax;
; 9066 :     }
; 9067 :     else

  00028	eb 08		 jmp	 SHORT $LN9@StringVPri
$LN5@StringVPri:

; 9049 :     {
; 9050 :         // need to null terminate the string
; 9051 :         pszDest += cchMax;
; 9052 :         *pszDest = '\0';

  0002a	88 1c 3e	 mov	 BYTE PTR [esi+edi], bl

; 9055 : 
; 9056 :         // we have truncated pszDest
; 9057 :         hr = STRSAFE_E_INSUFFICIENT_BUFFER;

  0002d	bb 7a 00 07 80	 mov	 ebx, -2147024774	; 8007007aH
$LN9@StringVPri:

; 9053 : 
; 9054 :         cchNewDestLength = cchMax;

  00032	8b c6		 mov	 eax, esi
$LN2@StringVPri:

; 9068 :     {
; 9069 :         cchNewDestLength = (size_t)iRet;
; 9070 :     }
; 9071 : 
; 9072 :     if (pcchNewDestLength)

  00034	8b 4d 08	 mov	 ecx, DWORD PTR _pcchNewDestLength$[ebp]
  00037	85 c9		 test	 ecx, ecx
  00039	74 02		 je	 SHORT $LN1@StringVPri

; 9073 :     {
; 9074 :         *pcchNewDestLength = cchNewDestLength;

  0003b	89 01		 mov	 DWORD PTR [ecx], eax
$LN1@StringVPri:
  0003d	5e		 pop	 esi

; 9075 :     }
; 9076 : 
; 9077 :     return hr;

  0003e	8b c3		 mov	 eax, ebx
  00040	5b		 pop	 ebx

; 9078 : }

  00041	5d		 pop	 ebp
  00042	c2 0c 00	 ret	 12			; 0000000cH
?StringVPrintfWorkerA@@YGJPADIPAIPBD0@Z ENDP		; StringVPrintfWorkerA
_TEXT	ENDS
PUBLIC	?_DECSTR@@YAXPADH@Z				; _DECSTR
; Function compile flags: /Ogsp
; File d:\lost saga for developer\youtube\tutorial\source\src\lsclient\stringprotect.h
;	COMDAT ?_DECSTR@@YAXPADH@Z
_TEXT	SEGMENT
_s$ = 8							; size = 4
_l$ = 12						; size = 4
?_DECSTR@@YAXPADH@Z PROC				; _DECSTR, COMDAT

; 40   : __forceinline void _DECSTR(char* s, int l){int i=0,l4=(l-1)/4,*p=(int*)s;s[l-1]=0;for(;i<l4;++i)*(p++)^=0xEAEBECED;for(i=l4*4;i<l-1;++i)s[i]^=0xED-i%4;}

  00000	55		 push	 ebp
  00001	8b ec		 mov	 ebp, esp
  00003	8b 4d 0c	 mov	 ecx, DWORD PTR _l$[ebp]
  00006	56		 push	 esi
  00007	8b 75 08	 mov	 esi, DWORD PTR _s$[ebp]
  0000a	57		 push	 edi
  0000b	8d 79 ff	 lea	 edi, DWORD PTR [ecx-1]
  0000e	8b c7		 mov	 eax, edi
  00010	99		 cdq
  00011	83 e2 03	 and	 edx, 3
  00014	03 c2		 add	 eax, edx
  00016	c1 f8 02	 sar	 eax, 2
  00019	8b d6		 mov	 edx, esi
  0001b	c6 44 0e ff 00	 mov	 BYTE PTR [esi+ecx-1], 0
  00020	85 c0		 test	 eax, eax
  00022	7e 0e		 jle	 SHORT $LN4@DECSTR
  00024	8b c8		 mov	 ecx, eax
$LL6@DECSTR:
  00026	81 32 ed ec eb
	ea		 xor	 DWORD PTR [edx], -353637139 ; eaebecedH
  0002c	83 c2 04	 add	 edx, 4
  0002f	49		 dec	 ecx
  00030	75 f4		 jne	 SHORT $LL6@DECSTR
$LN4@DECSTR:
  00032	c1 e0 02	 shl	 eax, 2
  00035	eb 17		 jmp	 SHORT $LN14@DECSTR
$LL3@DECSTR:
  00037	8b c8		 mov	 ecx, eax
  00039	81 e1 03 00 00
	80		 and	 ecx, -2147483645	; 80000003H
  0003f	79 05		 jns	 SHORT $LN13@DECSTR
  00041	49		 dec	 ecx
  00042	83 c9 fc	 or	 ecx, -4			; fffffffcH
  00045	41		 inc	 ecx
$LN13@DECSTR:
  00046	b2 ed		 mov	 dl, -19			; ffffffedH
  00048	2a d1		 sub	 dl, cl
  0004a	30 14 30	 xor	 BYTE PTR [eax+esi], dl
  0004d	40		 inc	 eax
$LN14@DECSTR:
  0004e	3b c7		 cmp	 eax, edi
  00050	7c e5		 jl	 SHORT $LL3@DECSTR
  00052	5f		 pop	 edi
  00053	5e		 pop	 esi
  00054	5d		 pop	 ebp
  00055	c3		 ret	 0
?_DECSTR@@YAXPADH@Z ENDP				; _DECSTR
_TEXT	ENDS
PUBLIC	??0ETCITEMSLOT@ioUserEtcItem@@QAE@XZ		; ioUserEtcItem::ETCITEMSLOT::ETCITEMSLOT
; Function compile flags: /Ogsp
; File d:\lost saga for developer\youtube\tutorial\source\src\lsclient\iouseretcitem.h
;	COMDAT ??0ETCITEMSLOT@ioUserEtcItem@@QAE@XZ
_TEXT	SEGMENT
??0ETCITEMSLOT@ioUserEtcItem@@QAE@XZ PROC		; ioUserEtcItem::ETCITEMSLOT::ETCITEMSLOT, COMDAT
; _this$ = ecx

; 22   : 		ETCITEMSLOT()

  00000	8b c1		 mov	 eax, ecx

; 23   : 		{
; 24   : 			m_iType   = 0;

  00002	33 c9		 xor	 ecx, ecx
  00004	89 08		 mov	 DWORD PTR [eax], ecx

; 25   : 			m_iValue1 = 0;

  00006	89 48 04	 mov	 DWORD PTR [eax+4], ecx

; 26   : 			m_iValue2 = 0;

  00009	89 48 08	 mov	 DWORD PTR [eax+8], ecx

; 27   : 		}

  0000c	c3		 ret	 0
??0ETCITEMSLOT@ioUserEtcItem@@QAE@XZ ENDP		; ioUserEtcItem::ETCITEMSLOT::ETCITEMSLOT
_TEXT	ENDS
PUBLIC	?GetInventorySubManual@ioEtcItem@@QBEHXZ	; ioEtcItem::GetInventorySubManual
; Function compile flags: /Ogsp
; File d:\lost saga for developer\youtube\tutorial\source\src\lsclient\ioetcitem.h
;	COMDAT ?GetInventorySubManual@ioEtcItem@@QBEHXZ
_TEXT	SEGMENT
?GetInventorySubManual@ioEtcItem@@QBEHXZ PROC		; ioEtcItem::GetInventorySubManual, COMDAT
; _this$ = ecx

; 435  : 	inline int     GetInventorySubManual() const { return m_iInventorySubManual; }

  00000	8b 41 4c	 mov	 eax, DWORD PTR [ecx+76]
  00003	c3		 ret	 0
?GetInventorySubManual@ioEtcItem@@QBEHXZ ENDP		; ioEtcItem::GetInventorySubManual
_TEXT	ENDS
PUBLIC	?GetPublicID@ioMyInfo@@QBEABVioHashString@@XZ	; ioMyInfo::GetPublicID
; Function compile flags: /Ogsp
; File d:\lost saga for developer\youtube\tutorial\source\src\lsclient\iomyinfo.h
;	COMDAT ?GetPublicID@ioMyInfo@@QBEABVioHashString@@XZ
_TEXT	SEGMENT
?GetPublicID@ioMyInfo@@QBEABVioHashString@@XZ PROC	; ioMyInfo::GetPublicID, COMDAT
; _this$ = ecx

; 517  : 	const ioHashString& GetPublicID() const { return m_user_data.m_public_id; }    

  00000	8d 41 1c	 lea	 eax, DWORD PTR [ecx+28]
  00003	c3		 ret	 0
?GetPublicID@ioMyInfo@@QBEABVioHashString@@XZ ENDP	; ioMyInfo::GetPublicID
_TEXT	ENDS
PUBLIC	?GetUserEtcItem@ioMyInfo@@QAEPAVioUserEtcItem@@XZ ; ioMyInfo::GetUserEtcItem
; Function compile flags: /Ogsp
;	COMDAT ?GetUserEtcItem@ioMyInfo@@QAEPAVioUserEtcItem@@XZ
_TEXT	SEGMENT
?GetUserEtcItem@ioMyInfo@@QAEPAVioUserEtcItem@@XZ PROC	; ioMyInfo::GetUserEtcItem, COMDAT
; _this$ = ecx

; 635  : 	ioUserEtcItem* GetUserEtcItem() { return &m_UserEtcItem; }

  00000	8d 81 44 01 00
	00		 lea	 eax, DWORD PTR [ecx+324]
  00006	c3		 ret	 0
?GetUserEtcItem@ioMyInfo@@QAEPAVioUserEtcItem@@XZ ENDP	; ioMyInfo::GetUserEtcItem
_TEXT	ENDS
PUBLIC	?size@?$vector@VioHashString@@V?$allocator@VioHashString@@@std@@@std@@QBEIXZ ; std::vector<ioHashString,std::allocator<ioHashString> >::size
; Function compile flags: /Ogsp
; File c:\program files (x86)\microsoft visual studio 10.0\vc\include\vector
;	COMDAT ?size@?$vector@VioHashString@@V?$allocator@VioHashString@@@std@@@std@@QBEIXZ
_TEXT	SEGMENT
?size@?$vector@VioHashString@@V?$allocator@VioHashString@@@std@@@std@@QBEIXZ PROC ; std::vector<ioHashString,std::allocator<ioHashString> >::size, COMDAT
; _this$ = ecx

; 879  : 		return (this->_Mylast - this->_Myfirst);

  00000	8b 41 04	 mov	 eax, DWORD PTR [ecx+4]
  00003	2b 01		 sub	 eax, DWORD PTR [ecx]
  00005	c1 f8 04	 sar	 eax, 4

; 880  : 		}

  00008	c3		 ret	 0
?size@?$vector@VioHashString@@V?$allocator@VioHashString@@@std@@@std@@QBEIXZ ENDP ; std::vector<ioHashString,std::allocator<ioHashString> >::size
_TEXT	ENDS
PUBLIC	??1?$_Vector_val@VioHashString@@V?$allocator@VioHashString@@@std@@@std@@QAE@XZ ; std::_Vector_val<ioHashString,std::allocator<ioHashString> >::~_Vector_val<ioHashString,std::allocator<ioHashString> >
; Function compile flags: /Ogsp
;	COMDAT ??1?$_Vector_val@VioHashString@@V?$allocator@VioHashString@@@std@@@std@@QAE@XZ
_TEXT	SEGMENT
??1?$_Vector_val@VioHashString@@V?$allocator@VioHashString@@@std@@@std@@QAE@XZ PROC ; std::_Vector_val<ioHashString,std::allocator<ioHashString> >::~_Vector_val<ioHashString,std::allocator<ioHashString> >, COMDAT
; _this$ = ecx

; 434  : 		}

  00000	c3		 ret	 0
??1?$_Vector_val@VioHashString@@V?$allocator@VioHashString@@@std@@@std@@QAE@XZ ENDP ; std::_Vector_val<ioHashString,std::allocator<ioHashString> >::~_Vector_val<ioHashString,std::allocator<ioHashString> >
_TEXT	ENDS
PUBLIC	??0?$allocator@VioHashString@@@std@@QAE@XZ	; std::allocator<ioHashString>::allocator<ioHashString>
; Function compile flags: /Ogsp
; File c:\program files (x86)\microsoft visual studio 10.0\vc\include\xmemory
;	COMDAT ??0?$allocator@VioHashString@@@std@@QAE@XZ
_TEXT	SEGMENT
??0?$allocator@VioHashString@@@std@@QAE@XZ PROC		; std::allocator<ioHashString>::allocator<ioHashString>, COMDAT
; _this$ = ecx

; 161  : 	_ALLOCATOR() _THROW0()

  00000	8b c1		 mov	 eax, ecx

; 162  : 		{	// construct default allocator (do nothing)
; 163  : 		}

  00002	c3		 ret	 0
??0?$allocator@VioHashString@@@std@@QAE@XZ ENDP		; std::allocator<ioHashString>::allocator<ioHashString>
_TEXT	ENDS
PUBLIC	??0?$allocator@VioHashString@@@std@@QAE@ABV01@@Z ; std::allocator<ioHashString>::allocator<ioHashString>
; Function compile flags: /Ogsp
;	COMDAT ??0?$allocator@VioHashString@@@std@@QAE@ABV01@@Z
_TEXT	SEGMENT
___formal$ = 8						; size = 4
??0?$allocator@VioHashString@@@std@@QAE@ABV01@@Z PROC	; std::allocator<ioHashString>::allocator<ioHashString>, COMDAT
; _this$ = ecx

; 165  : 	_ALLOCATOR(const _ALLOCATOR<_Ty>&) _THROW0()

  00000	8b c1		 mov	 eax, ecx

; 166  : 		{	// construct by copying (do nothing)
; 167  : 		}

  00002	c2 04 00	 ret	 4
??0?$allocator@VioHashString@@@std@@QAE@ABV01@@Z ENDP	; std::allocator<ioHashString>::allocator<ioHashString>
_TEXT	ENDS
PUBLIC	??_C@_0BD@OLBABOEK@vector?$DMT?$DO?5too?5long?$AA@ ; `string'
PUBLIC	?_Xlen@?$vector@VioHashString@@V?$allocator@VioHashString@@@std@@@std@@IBEXXZ ; std::vector<ioHashString,std::allocator<ioHashString> >::_Xlen
EXTRN	__imp_?_Xlength_error@std@@YAXPBD@Z:PROC
;	COMDAT ??_C@_0BD@OLBABOEK@vector?$DMT?$DO?5too?5long?$AA@
; File c:\program files (x86)\microsoft visual studio 10.0\vc\include\vector
CONST	SEGMENT
??_C@_0BD@OLBABOEK@vector?$DMT?$DO?5too?5long?$AA@ DB 'vector<T> too long'
	DB	00H						; `string'
; Function compile flags: /Ogsp
CONST	ENDS
;	COMDAT ?_Xlen@?$vector@VioHashString@@V?$allocator@VioHashString@@@std@@@std@@IBEXXZ
_TEXT	SEGMENT
?_Xlen@?$vector@VioHashString@@V?$allocator@VioHashString@@@std@@@std@@IBEXXZ PROC ; std::vector<ioHashString,std::allocator<ioHashString> >::_Xlen, COMDAT
; _this$ = ecx

; 1427 : 		_Xlength_error("vector<T> too long");

  00000	68 00 00 00 00	 push	 OFFSET ??_C@_0BD@OLBABOEK@vector?$DMT?$DO?5too?5long?$AA@
  00005	ff 15 00 00 00
	00		 call	 DWORD PTR __imp_?_Xlength_error@std@@YAXPBD@Z
$LN4@Xlen:
$LN3@Xlen:
  0000b	cc		 int	 3
?_Xlen@?$vector@VioHashString@@V?$allocator@VioHashString@@@std@@@std@@IBEXXZ ENDP ; std::vector<ioHashString,std::allocator<ioHashString> >::_Xlen
_TEXT	ENDS
PUBLIC	?deallocate@?$allocator@VioHashString@@@std@@QAEXPAVioHashString@@I@Z ; std::allocator<ioHashString>::deallocate
; Function compile flags: /Ogsp
; File c:\program files (x86)\microsoft visual studio 10.0\vc\include\xmemory
;	COMDAT ?deallocate@?$allocator@VioHashString@@@std@@QAEXPAVioHashString@@I@Z
_TEXT	SEGMENT
__Ptr$ = 8						; size = 4
___formal$ = 12						; size = 4
?deallocate@?$allocator@VioHashString@@@std@@QAEXPAVioHashString@@I@Z PROC ; std::allocator<ioHashString>::deallocate, COMDAT
; _this$ = ecx

; 181  : 		{	// deallocate object at _Ptr, ignore size

  00000	55		 push	 ebp
  00001	8b ec		 mov	 ebp, esp

; 182  : 		::operator delete(_Ptr);

  00003	ff 75 08	 push	 DWORD PTR __Ptr$[ebp]
  00006	e8 00 00 00 00	 call	 ??3@YAXPAX@Z		; operator delete
  0000b	59		 pop	 ecx

; 183  : 		}

  0000c	5d		 pop	 ebp
  0000d	c2 08 00	 ret	 8
?deallocate@?$allocator@VioHashString@@@std@@QAEXPAVioHashString@@I@Z ENDP ; std::allocator<ioHashString>::deallocate
_TEXT	ENDS
PUBLIC	??0?$_Vector_const_iterator@V?$_Vector_val@VioHashString@@V?$allocator@VioHashString@@@std@@@std@@@std@@QAE@PAVioHashString@@PBU_Container_base0@1@@Z ; std::_Vector_const_iterator<std::_Vector_val<ioHashString,std::allocator<ioHashString> > >::_Vector_const_iterator<std::_Vector_val<ioHashString,std::allocator<ioHashString> > >
; Function compile flags: /Ogsp
; File c:\program files (x86)\microsoft visual studio 10.0\vc\include\vector
;	COMDAT ??0?$_Vector_const_iterator@V?$_Vector_val@VioHashString@@V?$allocator@VioHashString@@@std@@@std@@@std@@QAE@PAVioHashString@@PBU_Container_base0@1@@Z
_TEXT	SEGMENT
__Parg$ = 8						; size = 4
__Pvector$ = 12						; size = 4
??0?$_Vector_const_iterator@V?$_Vector_val@VioHashString@@V?$allocator@VioHashString@@@std@@@std@@@std@@QAE@PAVioHashString@@PBU_Container_base0@1@@Z PROC ; std::_Vector_const_iterator<std::_Vector_val<ioHashString,std::allocator<ioHashString> > >::_Vector_const_iterator<std::_Vector_val<ioHashString,std::allocator<ioHashString> > >, COMDAT
; _this$ = ecx

; 45   : 		{	// construct with pointer _Parg

  00000	55		 push	 ebp
  00001	8b ec		 mov	 ebp, esp
  00003	8b c1		 mov	 eax, ecx
  00005	8b 4d 08	 mov	 ecx, DWORD PTR __Parg$[ebp]
  00008	89 08		 mov	 DWORD PTR [eax], ecx

; 46   : 		this->_Adopt(_Pvector);
; 47   : 		}

  0000a	5d		 pop	 ebp
  0000b	c2 08 00	 ret	 8
??0?$_Vector_const_iterator@V?$_Vector_val@VioHashString@@V?$allocator@VioHashString@@@std@@@std@@@std@@QAE@PAVioHashString@@PBU_Container_base0@1@@Z ENDP ; std::_Vector_const_iterator<std::_Vector_val<ioHashString,std::allocator<ioHashString> > >::_Vector_const_iterator<std::_Vector_val<ioHashString,std::allocator<ioHashString> > >
_TEXT	ENDS
PUBLIC	??0?$_Vector_iterator@V?$_Vector_val@VioHashString@@V?$allocator@VioHashString@@@std@@@std@@@std@@QAE@PAVioHashString@@PBU_Container_base0@1@@Z ; std::_Vector_iterator<std::_Vector_val<ioHashString,std::allocator<ioHashString> > >::_Vector_iterator<std::_Vector_val<ioHashString,std::allocator<ioHashString> > >
; Function compile flags: /Ogsp
;	COMDAT ??0?$_Vector_iterator@V?$_Vector_val@VioHashString@@V?$allocator@VioHashString@@@std@@@std@@@std@@QAE@PAVioHashString@@PBU_Container_base0@1@@Z
_TEXT	SEGMENT
__Parg$ = 8						; size = 4
__Pvector$ = 12						; size = 4
??0?$_Vector_iterator@V?$_Vector_val@VioHashString@@V?$allocator@VioHashString@@@std@@@std@@@std@@QAE@PAVioHashString@@PBU_Container_base0@1@@Z PROC ; std::_Vector_iterator<std::_Vector_val<ioHashString,std::allocator<ioHashString> > >::_Vector_iterator<std::_Vector_val<ioHashString,std::allocator<ioHashString> > >, COMDAT
; _this$ = ecx

; 304  : 		{	// construct with pointer _Parg

  00000	55		 push	 ebp
  00001	8b ec		 mov	 ebp, esp
  00003	8b c1		 mov	 eax, ecx
  00005	8b 4d 08	 mov	 ecx, DWORD PTR __Parg$[ebp]
  00008	89 08		 mov	 DWORD PTR [eax], ecx

; 305  : 		}

  0000a	5d		 pop	 ebp
  0000b	c2 08 00	 ret	 8
??0?$_Vector_iterator@V?$_Vector_val@VioHashString@@V?$allocator@VioHashString@@@std@@@std@@@std@@QAE@PAVioHashString@@PBU_Container_base0@1@@Z ENDP ; std::_Vector_iterator<std::_Vector_val<ioHashString,std::allocator<ioHashString> > >::_Vector_iterator<std::_Vector_val<ioHashString,std::allocator<ioHashString> > >
_TEXT	ENDS
PUBLIC	?max_size@?$allocator@VioHashString@@@std@@QBEIXZ ; std::allocator<ioHashString>::max_size
; Function compile flags: /Ogsp
; File c:\program files (x86)\microsoft visual studio 10.0\vc\include\xmemory
;	COMDAT ?max_size@?$allocator@VioHashString@@@std@@QBEIXZ
_TEXT	SEGMENT
?max_size@?$allocator@VioHashString@@@std@@QBEIXZ PROC	; std::allocator<ioHashString>::max_size, COMDAT
; _this$ = ecx

; 218  : 		_SIZT _Count = (_SIZT)(-1) / sizeof (_Ty);
; 219  : 		return (0 < _Count ? _Count : 1);

  00000	b8 ff ff ff 0f	 mov	 eax, 268435455		; 0fffffffH

; 220  : 		}

  00005	c3		 ret	 0
?max_size@?$allocator@VioHashString@@@std@@QBEIXZ ENDP	; std::allocator<ioHashString>::max_size
_TEXT	ENDS
PUBLIC	?_Compat@?$_Vector_const_iterator@V?$_Vector_val@VioHashString@@V?$allocator@VioHashString@@@std@@@std@@@std@@QBEXABV12@@Z ; std::_Vector_const_iterator<std::_Vector_val<ioHashString,std::allocator<ioHashString> > >::_Compat
; Function compile flags: /Ogsp
; File c:\program files (x86)\microsoft visual studio 10.0\vc\include\vector
;	COMDAT ?_Compat@?$_Vector_const_iterator@V?$_Vector_val@VioHashString@@V?$allocator@VioHashString@@@std@@@std@@@std@@QBEXABV12@@Z
_TEXT	SEGMENT
___formal$ = 8						; size = 4
?_Compat@?$_Vector_const_iterator@V?$_Vector_val@VioHashString@@V?$allocator@VioHashString@@@std@@@std@@@std@@QBEXABV12@@Z PROC ; std::_Vector_const_iterator<std::_Vector_val<ioHashString,std::allocator<ioHashString> > >::_Compat, COMDAT
; _this$ = ecx

; 253  : 		}

  00000	c2 04 00	 ret	 4
?_Compat@?$_Vector_const_iterator@V?$_Vector_val@VioHashString@@V?$allocator@VioHashString@@@std@@@std@@@std@@QBEXABV12@@Z ENDP ; std::_Vector_const_iterator<std::_Vector_val<ioHashString,std::allocator<ioHashString> > >::_Compat
_TEXT	ENDS
PUBLIC	__TI2?AVbad_alloc@std@@
PUBLIC	??$_Allocate@VioHashString@@@std@@YAPAVioHashString@@IPAV1@@Z ; std::_Allocate<ioHashString>
PUBLIC	__CTA2?AVbad_alloc@std@@
PUBLIC	__CT??_R0?AVbad_alloc@std@@@8??0bad_alloc@std@@QAE@ABV01@@Z12
PUBLIC	??0bad_alloc@std@@QAE@ABV01@@Z			; std::bad_alloc::bad_alloc
PUBLIC	__CT??_R0?AVexception@std@@@8??0exception@std@@QAE@ABV01@@Z12
EXTRN	??2@YAPAXI@Z:PROC				; operator new
EXTRN	__CxxThrowException@8:PROC
EXTRN	??0exception@std@@QAE@ABV01@@Z:PROC		; std::exception::exception
;	COMDAT __CT??_R0?AVexception@std@@@8??0exception@std@@QAE@ABV01@@Z12
; File c:\program files (x86)\microsoft visual studio 10.0\vc\include\exception
xdata$x	SEGMENT
__CT??_R0?AVexception@std@@@8??0exception@std@@QAE@ABV01@@Z12 DD 00H
	DD	FLAT:??_R0?AVexception@std@@@8
	DD	00H
	DD	0ffffffffH
	ORG $+4
	DD	0cH
	DD	FLAT:??0exception@std@@QAE@ABV01@@Z
xdata$x	ENDS
;	COMDAT __CT??_R0?AVbad_alloc@std@@@8??0bad_alloc@std@@QAE@ABV01@@Z12
xdata$x	SEGMENT
__CT??_R0?AVbad_alloc@std@@@8??0bad_alloc@std@@QAE@ABV01@@Z12 DD 00H
	DD	FLAT:??_R0?AVbad_alloc@std@@@8
	DD	00H
	DD	0ffffffffH
	ORG $+4
	DD	0cH
	DD	FLAT:??0bad_alloc@std@@QAE@ABV01@@Z
xdata$x	ENDS
;	COMDAT __CTA2?AVbad_alloc@std@@
xdata$x	SEGMENT
__CTA2?AVbad_alloc@std@@ DD 02H
	DD	FLAT:__CT??_R0?AVbad_alloc@std@@@8??0bad_alloc@std@@QAE@ABV01@@Z12
	DD	FLAT:__CT??_R0?AVexception@std@@@8??0exception@std@@QAE@ABV01@@Z12
xdata$x	ENDS
;	COMDAT __TI2?AVbad_alloc@std@@
xdata$x	SEGMENT
__TI2?AVbad_alloc@std@@ DD 00H
	DD	FLAT:??1bad_alloc@std@@UAE@XZ
	DD	00H
	DD	FLAT:__CTA2?AVbad_alloc@std@@
; Function compile flags: /Ogsp
; File c:\program files (x86)\microsoft visual studio 10.0\vc\include\xmemory
xdata$x	ENDS
;	COMDAT ??$_Allocate@VioHashString@@@std@@YAPAVioHashString@@IPAV1@@Z
_TEXT	SEGMENT
$T512398 = -12						; size = 12
$T512403 = 8						; size = 4
__Count$ = 8						; size = 4
___formal$ = 12						; size = 4
??$_Allocate@VioHashString@@@std@@YAPAVioHashString@@IPAV1@@Z PROC ; std::_Allocate<ioHashString>, COMDAT

; 30   : 	{	// allocate storage for _Count elements of type _Ty

  00000	55		 push	 ebp
  00001	8b ec		 mov	 ebp, esp

; 31   : 	void *_Ptr = 0;
; 32   : 
; 33   : 	if (_Count <= 0)

  00003	8b 4d 08	 mov	 ecx, DWORD PTR __Count$[ebp]
  00006	83 ec 0c	 sub	 esp, 12			; 0000000cH
  00009	33 c0		 xor	 eax, eax
  0000b	85 c9		 test	 ecx, ecx

; 34   : 		_Count = 0;
; 35   : 	else if (((_SIZT)(-1) / sizeof (_Ty) < _Count)

  0000d	74 3c		 je	 SHORT $LN5@Allocate

; 36   : 		|| (_Ptr = ::operator new(_Count * sizeof (_Ty))) == 0)

  0000f	81 f9 ff ff ff
	0f		 cmp	 ecx, 268435455		; 0fffffffH
  00015	77 0e		 ja	 SHORT $LN1@Allocate
  00017	c1 e1 04	 shl	 ecx, 4
  0001a	51		 push	 ecx
  0001b	e8 00 00 00 00	 call	 ??2@YAPAXI@Z		; operator new
  00020	59		 pop	 ecx
  00021	85 c0		 test	 eax, eax

; 38   : 
; 39   : 	return ((_Ty _FARQ *)_Ptr);

  00023	75 26		 jne	 SHORT $LN5@Allocate
$LN1@Allocate:

; 37   : 		_THROW_NCEE(bad_alloc, 0);

  00025	83 65 08 00	 and	 DWORD PTR $T512403[ebp], 0
  00029	8d 45 08	 lea	 eax, DWORD PTR $T512403[ebp]
  0002c	50		 push	 eax
  0002d	8d 4d f4	 lea	 ecx, DWORD PTR $T512398[ebp]
  00030	ff 15 00 00 00
	00		 call	 DWORD PTR __imp_??0exception@std@@QAE@ABQBD@Z
  00036	68 00 00 00 00	 push	 OFFSET __TI2?AVbad_alloc@std@@
  0003b	8d 45 f4	 lea	 eax, DWORD PTR $T512398[ebp]
  0003e	50		 push	 eax
  0003f	c7 45 f4 00 00
	00 00		 mov	 DWORD PTR $T512398[ebp], OFFSET ??_7bad_alloc@std@@6B@
  00046	e8 00 00 00 00	 call	 __CxxThrowException@8
$LN10@Allocate:
$LN5@Allocate:

; 40   : 	}

  0004b	c9		 leave
  0004c	c3		 ret	 0
$LN9@Allocate:
??$_Allocate@VioHashString@@@std@@YAPAVioHashString@@IPAV1@@Z ENDP ; std::_Allocate<ioHashString>
_TEXT	ENDS
EXTRN	__imp_??0exception@std@@QAE@ABV01@@Z:PROC
; Function compile flags: /Ogsp
;	COMDAT ??0bad_alloc@std@@QAE@ABV01@@Z
_TEXT	SEGMENT
___that$ = 8						; size = 4
??0bad_alloc@std@@QAE@ABV01@@Z PROC			; std::bad_alloc::bad_alloc, COMDAT
; _this$ = ecx
  00000	55		 push	 ebp
  00001	8b ec		 mov	 ebp, esp
  00003	56		 push	 esi
  00004	ff 75 08	 push	 DWORD PTR ___that$[ebp]
  00007	8b f1		 mov	 esi, ecx
  00009	ff 15 00 00 00
	00		 call	 DWORD PTR __imp_??0exception@std@@QAE@ABV01@@Z
  0000f	c7 06 00 00 00
	00		 mov	 DWORD PTR [esi], OFFSET ??_7bad_alloc@std@@6B@
  00015	8b c6		 mov	 eax, esi
  00017	5e		 pop	 esi
  00018	5d		 pop	 ebp
  00019	c2 04 00	 ret	 4
??0bad_alloc@std@@QAE@ABV01@@Z ENDP			; std::bad_alloc::bad_alloc
_TEXT	ENDS
PUBLIC	??$forward@ABVioHashString@@@std@@YAABVioHashString@@ABV1@@Z ; std::forward<ioHashString const &>
; Function compile flags: /Ogsp
; File c:\program files (x86)\microsoft visual studio 10.0\vc\include\utility
;	COMDAT ??$forward@ABVioHashString@@@std@@YAABVioHashString@@ABV1@@Z
_TEXT	SEGMENT
__Arg$ = 8						; size = 4
??$forward@ABVioHashString@@@std@@YAABVioHashString@@ABV1@@Z PROC ; std::forward<ioHashString const &>, COMDAT

; 78   : 	{	// forward _Arg, given explicitly specified type parameter

  00000	55		 push	 ebp
  00001	8b ec		 mov	 ebp, esp

; 79   : 	return ((_Ty&&)_Arg);

  00003	8b 45 08	 mov	 eax, DWORD PTR __Arg$[ebp]

; 80   : 	}

  00006	5d		 pop	 ebp
  00007	c3		 ret	 0
??$forward@ABVioHashString@@@std@@YAABVioHashString@@ABV1@@Z ENDP ; std::forward<ioHashString const &>
_TEXT	ENDS
PUBLIC	??$forward@AAVioHashString@@@std@@YAAAVioHashString@@AAV1@@Z ; std::forward<ioHashString &>
; Function compile flags: /Ogsp
;	COMDAT ??$forward@AAVioHashString@@@std@@YAAAVioHashString@@AAV1@@Z
_TEXT	SEGMENT
__Arg$ = 8						; size = 4
??$forward@AAVioHashString@@@std@@YAAAVioHashString@@AAV1@@Z PROC ; std::forward<ioHashString &>, COMDAT

; 78   : 	{	// forward _Arg, given explicitly specified type parameter

  00000	55		 push	 ebp
  00001	8b ec		 mov	 ebp, esp

; 79   : 	return ((_Ty&&)_Arg);

  00003	8b 45 08	 mov	 eax, DWORD PTR __Arg$[ebp]

; 80   : 	}

  00006	5d		 pop	 ebp
  00007	c3		 ret	 0
??$forward@AAVioHashString@@@std@@YAAAVioHashString@@AAV1@@Z ENDP ; std::forward<ioHashString &>
_TEXT	ENDS
PUBLIC	??$_Ptr_cat@VioHashString@@V1@@std@@YA?AU_Nonscalar_ptr_iterator_tag@0@PAVioHashString@@0@Z ; std::_Ptr_cat<ioHashString,ioHashString>
; Function compile flags: /Ogsp
; File c:\program files (x86)\microsoft visual studio 10.0\vc\include\xutility
;	COMDAT ??$_Ptr_cat@VioHashString@@V1@@std@@YA?AU_Nonscalar_ptr_iterator_tag@0@PAVioHashString@@0@Z
_TEXT	SEGMENT
__Cat$ = -1						; size = 1
___formal$ = 8						; size = 4
___formal$ = 12						; size = 4
??$_Ptr_cat@VioHashString@@V1@@std@@YA?AU_Nonscalar_ptr_iterator_tag@0@PAVioHashString@@0@Z PROC ; std::_Ptr_cat<ioHashString,ioHashString>, COMDAT

; 516  : 	{	// return pointer category from pointers

  00000	55		 push	 ebp
  00001	8b ec		 mov	 ebp, esp
  00003	51		 push	 ecx

; 517  : 	typename _Ptr_cat_helper<_Elem1, _Elem2>::_Type _Cat;
; 518  : 	return (_Cat);

  00004	8a 45 ff	 mov	 al, BYTE PTR __Cat$[ebp]

; 519  : 	}

  00007	c9		 leave
  00008	c3		 ret	 0
??$_Ptr_cat@VioHashString@@V1@@std@@YA?AU_Nonscalar_ptr_iterator_tag@0@PAVioHashString@@0@Z ENDP ; std::_Ptr_cat<ioHashString,ioHashString>
_TEXT	ENDS
PUBLIC	??$move@AAVioHashString@@@std@@YA$$QAVioHashString@@AAV1@@Z ; std::move<ioHashString &>
; Function compile flags: /Ogsp
; File c:\program files (x86)\microsoft visual studio 10.0\vc\include\utility
;	COMDAT ??$move@AAVioHashString@@@std@@YA$$QAVioHashString@@AAV1@@Z
_TEXT	SEGMENT
__Arg$ = 8						; size = 4
??$move@AAVioHashString@@@std@@YA$$QAVioHashString@@AAV1@@Z PROC ; std::move<ioHashString &>, COMDAT

; 86   : 	{	// forward _Arg as movable

  00000	55		 push	 ebp
  00001	8b ec		 mov	 ebp, esp

; 87   : 	return ((typename tr1::_Remove_reference<_Ty>::_Type&&)_Arg);

  00003	8b 45 08	 mov	 eax, DWORD PTR __Arg$[ebp]

; 88   : 	}

  00006	5d		 pop	 ebp
  00007	c3		 ret	 0
??$move@AAVioHashString@@@std@@YA$$QAVioHashString@@AAV1@@Z ENDP ; std::move<ioHashString &>
_TEXT	ENDS
PUBLIC	??_GioHashString@@QAEPAXI@Z			; ioHashString::`scalar deleting destructor'
EXTRN	__imp_??1ioHashString@@QAE@XZ:PROC
; Function compile flags: /Ogsp
;	COMDAT ??_GioHashString@@QAEPAXI@Z
_TEXT	SEGMENT
___flags$ = 8						; size = 4
??_GioHashString@@QAEPAXI@Z PROC			; ioHashString::`scalar deleting destructor', COMDAT
; _this$ = ecx
  00000	55		 push	 ebp
  00001	8b ec		 mov	 ebp, esp
  00003	56		 push	 esi
  00004	8b f1		 mov	 esi, ecx
  00006	ff 15 00 00 00
	00		 call	 DWORD PTR __imp_??1ioHashString@@QAE@XZ
  0000c	f6 45 08 01	 test	 BYTE PTR ___flags$[ebp], 1
  00010	74 07		 je	 SHORT $LN1@scalar@2
  00012	56		 push	 esi
  00013	e8 00 00 00 00	 call	 ??3@YAXPAX@Z		; operator delete
  00018	59		 pop	 ecx
$LN1@scalar@2:
  00019	8b c6		 mov	 eax, esi
  0001b	5e		 pop	 esi
  0001c	5d		 pop	 ebp
  0001d	c2 04 00	 ret	 4
??_GioHashString@@QAEPAXI@Z ENDP			; ioHashString::`scalar deleting destructor'
_TEXT	ENDS
PUBLIC	??$_Construct@VioHashString@@ABV1@@std@@YAXPAVioHashString@@ABV1@@Z ; std::_Construct<ioHashString,ioHashString const &>
EXTRN	__imp_??0ioHashString@@QAE@ABV0@@Z:PROC
EXTRN	___CxxFrameHandler3:PROC
EXTRN	@__security_check_cookie@4:PROC
EXTRN	__EH_epilog3:PROC
EXTRN	__EH_prolog3:PROC
;	COMDAT xdata$x
xdata$x	SEGMENT
__unwindtable$??$_Construct@VioHashString@@ABV1@@std@@YAXPAVioHashString@@ABV1@@Z DD 0ffffffffH
	DD	FLAT:__unwindfunclet$??$_Construct@VioHashString@@ABV1@@std@@YAXPAVioHashString@@ABV1@@Z$0
__ehfuncinfo$??$_Construct@VioHashString@@ABV1@@std@@YAXPAVioHashString@@ABV1@@Z DD 019930522H
	DD	01H
	DD	FLAT:__unwindtable$??$_Construct@VioHashString@@ABV1@@std@@YAXPAVioHashString@@ABV1@@Z
	DD	2 DUP(00H)
	DD	2 DUP(00H)
	DD	00H
	DD	01H
; Function compile flags: /Ogsp
; File c:\program files (x86)\microsoft visual studio 10.0\vc\include\xmemory
xdata$x	ENDS
;	COMDAT ??$_Construct@VioHashString@@ABV1@@std@@YAXPAVioHashString@@ABV1@@Z
_TEXT	SEGMENT
$T512422 = -16						; size = 4
__$EHRec$ = -12						; size = 12
__Vptr$ = 8						; size = 4
__Ptr$ = 8						; size = 4
__Val$ = 12						; size = 4
??$_Construct@VioHashString@@ABV1@@std@@YAXPAVioHashString@@ABV1@@Z PROC ; std::_Construct<ioHashString,ioHashString const &>, COMDAT

; 46   : 	{	// construct object at _Ptr with value _Val

  00000	6a 04		 push	 4
  00002	b8 00 00 00 00	 mov	 eax, __ehhandler$??$_Construct@VioHashString@@ABV1@@std@@YAXPAVioHashString@@ABV1@@Z
  00007	e8 00 00 00 00	 call	 __EH_prolog3

; 47   : 	void _FARQ *_Vptr = _Ptr;

  0000c	8b 4d 08	 mov	 ecx, DWORD PTR __Ptr$[ebp]
  0000f	89 4d 08	 mov	 DWORD PTR __Vptr$[ebp], ecx

; 48   : 	::new (_Vptr) _Ty1(_STD forward<_Ty2>(_Val));

  00012	89 4d f0	 mov	 DWORD PTR $T512422[ebp], ecx
  00015	83 65 fc 00	 and	 DWORD PTR __$EHRec$[ebp+8], 0
  00019	85 c9		 test	 ecx, ecx
  0001b	74 09		 je	 SHORT $LN3@Construct
  0001d	ff 75 0c	 push	 DWORD PTR __Val$[ebp]
  00020	ff 15 00 00 00
	00		 call	 DWORD PTR __imp_??0ioHashString@@QAE@ABV0@@Z
$LN3@Construct:

; 49   : 	}

  00026	e8 00 00 00 00	 call	 __EH_epilog3
  0002b	c3		 ret	 0
_TEXT	ENDS
;	COMDAT text$x
text$x	SEGMENT
__unwindfunclet$??$_Construct@VioHashString@@ABV1@@std@@YAXPAVioHashString@@ABV1@@Z$0:
  00000	ff 75 08	 push	 DWORD PTR __Vptr$[ebp]
  00003	ff 75 f0	 push	 DWORD PTR $T512422[ebp]
  00006	e8 00 00 00 00	 call	 ??3@YAXPAX0@Z		; operator delete
  0000b	59		 pop	 ecx
  0000c	59		 pop	 ecx
  0000d	c3		 ret	 0
__ehhandler$??$_Construct@VioHashString@@ABV1@@std@@YAXPAVioHashString@@ABV1@@Z:
  0000e	8b 54 24 08	 mov	 edx, DWORD PTR [esp+8]
  00012	8d 42 0c	 lea	 eax, DWORD PTR [edx+12]
  00015	8b 4a ec	 mov	 ecx, DWORD PTR [edx-20]
  00018	33 c8		 xor	 ecx, eax
  0001a	e8 00 00 00 00	 call	 @__security_check_cookie@4
  0001f	b8 00 00 00 00	 mov	 eax, OFFSET __ehfuncinfo$??$_Construct@VioHashString@@ABV1@@std@@YAXPAVioHashString@@ABV1@@Z
  00024	e9 00 00 00 00	 jmp	 ___CxxFrameHandler3
text$x	ENDS
??$_Construct@VioHashString@@ABV1@@std@@YAXPAVioHashString@@ABV1@@Z ENDP ; std::_Construct<ioHashString,ioHashString const &>
PUBLIC	?RollingEffect@RandomDecoWnd@@IAEXM@Z		; RandomDecoWnd::RollingEffect
EXTRN	__imp_?GetLoopSec@ioFrameTimer@@QBEKXZ:PROC
EXTRN	__imp_?GetSingleton@ioFrameTimer@@SAAAV1@XZ:PROC
;	COMDAT xdata$x
; File c:\program files (x86)\microsoft visual studio 10.0\vc\include\vector
xdata$x	SEGMENT
__unwindtable$?RollingEffect@RandomDecoWnd@@IAEXM@Z DD 0ffffffffH
	DD	FLAT:__unwindfunclet$?RollingEffect@RandomDecoWnd@@IAEXM@Z$0
	DD	0ffffffffH
	DD	FLAT:__unwindfunclet$?RollingEffect@RandomDecoWnd@@IAEXM@Z$1
__ehfuncinfo$?RollingEffect@RandomDecoWnd@@IAEXM@Z DD 019930522H
	DD	02H
	DD	FLAT:__unwindtable$?RollingEffect@RandomDecoWnd@@IAEXM@Z
	DD	2 DUP(00H)
	DD	2 DUP(00H)
	DD	00H
	DD	01H
; Function compile flags: /Ogsp
; File d:\lost saga for developer\youtube\tutorial\source\src\lsclient\gui\randomdecownd.cpp
xdata$x	ENDS
;	COMDAT ?RollingEffect@RandomDecoWnd@@IAEXM@Z
_TEXT	SEGMENT
_szEffect$509893 = -48					; size = 16
_szEffect$509883 = -32					; size = 16
_dwCurTime$ = -16					; size = 4
__$EHRec$ = -12						; size = 12
_fTimePerSec$ = 8					; size = 4
?RollingEffect@RandomDecoWnd@@IAEXM@Z PROC		; RandomDecoWnd::RollingEffect, COMDAT
; _this$ = ecx

; 293  : {

  00000	6a 24		 push	 36			; 00000024H
  00002	b8 00 00 00 00	 mov	 eax, __ehhandler$?RollingEffect@RandomDecoWnd@@IAEXM@Z
  00007	e8 00 00 00 00	 call	 __EH_prolog3
  0000c	8b f1		 mov	 esi, ecx

; 294  : 	DWORD dwCurTime = FRAMEGETTIME();

  0000e	ff 15 00 00 00
	00		 call	 DWORD PTR __imp_?GetSingleton@ioFrameTimer@@SAAAV1@XZ
  00014	8b c8		 mov	 ecx, eax
  00016	ff 15 00 00 00
	00		 call	 DWORD PTR __imp_?GetLoopSec@ioFrameTimer@@QBEKXZ

; 295  : 
; 296  : 	int iEffectListCnt = m_vRollingEffect.size();

  0001c	8b be 9c 01 00
	00		 mov	 edi, DWORD PTR [esi+412]
  00022	2b be 98 01 00
	00		 sub	 edi, DWORD PTR [esi+408]

; 297  : 	if( m_bFinalResult )

  00028	8a 8e d5 01 00
	00		 mov	 cl, BYTE PTR [esi+469]
  0002e	c1 ff 04	 sar	 edi, 4
  00031	89 45 f0	 mov	 DWORD PTR _dwCurTime$[ebp], eax
  00034	84 c9		 test	 cl, cl
  00036	74 0f		 je	 SHORT $LN19@RollingEff

; 298  : 		iEffectListCnt = m_vEndEfffect.size();

  00038	8b be ac 01 00
	00		 mov	 edi, DWORD PTR [esi+428]
  0003e	2b be a8 01 00
	00		 sub	 edi, DWORD PTR [esi+424]
  00044	c1 ff 04	 sar	 edi, 4
$LN19@RollingEff:

; 299  : 
; 300  : 	if( iEffectListCnt == 0 )

  00047	33 db		 xor	 ebx, ebx
  00049	3b fb		 cmp	 edi, ebx
  0004b	75 20		 jne	 SHORT $LN18@RollingEff
$LN42@RollingEff:

; 301  : 	{
; 302  : 		SAFEDELETE( m_pEffect );

  0004d	8b 8e 64 01 00
	00		 mov	 ecx, DWORD PTR [esi+356]
  00053	3b cb		 cmp	 ecx, ebx
  00055	0f 84 60 01 00
	00		 je	 $LN6@RollingEff
  0005b	8b 01		 mov	 eax, DWORD PTR [ecx]
  0005d	6a 01		 push	 1
  0005f	ff 50 40	 call	 DWORD PTR [eax+64]
  00062	89 9e 64 01 00
	00		 mov	 DWORD PTR [esi+356], ebx

; 303  : 		return;

  00068	e9 4e 01 00 00	 jmp	 $LN6@RollingEff
$LN18@RollingEff:

; 304  : 	}
; 305  : 
; 306  : 	if( m_bFinalResult )

  0006d	84 c9		 test	 cl, cl
  0006f	0f 84 9f 00 00
	00		 je	 $LN16@RollingEff

; 307  : 	{
; 308  : 		if( m_iCurEffectArray == iEffectListCnt-1 )

  00075	8d 47 ff	 lea	 eax, DWORD PTR [edi-1]
  00078	39 86 e8 01 00
	00		 cmp	 DWORD PTR [esi+488], eax

; 309  : 		{
; 310  : 			SAFEDELETE( m_pEffect );
; 311  : 			return;

  0007e	74 cd		 je	 SHORT $LN42@RollingEff

; 312  : 		}
; 313  : 
; 314  : 		if( m_dwRollingEffectCheckTime == 0 || dwCurTime - m_dwRollingEffectCheckTime > m_dwRollingEffectTime )		// 

  00080	8b 86 f0 01 00
	00		 mov	 eax, DWORD PTR [esi+496]
  00086	3b c3		 cmp	 eax, ebx
  00088	74 11		 je	 SHORT $LN12@RollingEff
  0008a	8b 4d f0	 mov	 ecx, DWORD PTR _dwCurTime$[ebp]
  0008d	2b c8		 sub	 ecx, eax
  0008f	3b 8e ec 01 00
	00		 cmp	 ecx, DWORD PTR [esi+492]
  00095	0f 86 20 01 00
	00		 jbe	 $LN6@RollingEff
$LN12@RollingEff:

; 315  : 		{
; 316  : 			SAFEDELETE( m_pEffect );

  0009b	8b 8e 64 01 00
	00		 mov	 ecx, DWORD PTR [esi+356]
  000a1	3b cb		 cmp	 ecx, ebx
  000a3	74 0d		 je	 SHORT $LN11@RollingEff
  000a5	8b 01		 mov	 eax, DWORD PTR [ecx]
  000a7	6a 01		 push	 1
  000a9	ff 50 40	 call	 DWORD PTR [eax+64]
  000ac	89 9e 64 01 00
	00		 mov	 DWORD PTR [esi+356], ebx
$LN11@RollingEff:

; 317  : 
; 318  : 			m_iCurEffectArray++;

  000b2	ff 86 e8 01 00
	00		 inc	 DWORD PTR [esi+488]
  000b8	8b 86 e8 01 00
	00		 mov	 eax, DWORD PTR [esi+488]

; 319  : 
; 320  : 			if( !COMPARE( m_iCurEffectArray, 0, iEffectListCnt ) )

  000be	78 04		 js	 SHORT $LN9@RollingEff
  000c0	3b c7		 cmp	 eax, edi
  000c2	7c 06		 jl	 SHORT $LN10@RollingEff
$LN9@RollingEff:

; 321  : 				m_iCurEffectArray = 0;

  000c4	89 9e e8 01 00
	00		 mov	 DWORD PTR [esi+488], ebx
$LN10@RollingEff:

; 322  : 
; 323  : 			ioHashString szEffect = m_vEndEfffect[m_iCurEffectArray];

  000ca	8b 86 e8 01 00
	00		 mov	 eax, DWORD PTR [esi+488]
  000d0	c1 e0 04	 shl	 eax, 4
  000d3	03 86 a8 01 00
	00		 add	 eax, DWORD PTR [esi+424]
  000d9	8d 4d e0	 lea	 ecx, DWORD PTR _szEffect$509883[ebp]
  000dc	50		 push	 eax
  000dd	ff 15 00 00 00
	00		 call	 DWORD PTR __imp_??0ioHashString@@QAE@ABV0@@Z

; 324  : 
; 325  : 			if( !szEffect.IsEmpty() )

  000e3	8d 4d e0	 lea	 ecx, DWORD PTR _szEffect$509883[ebp]
  000e6	89 5d fc	 mov	 DWORD PTR __$EHRec$[ebp+8], ebx
  000e9	ff 15 00 00 00
	00		 call	 DWORD PTR __imp_?IsEmpty@ioHashString@@QBE_NXZ
  000ef	84 c0		 test	 al, al
  000f1	75 19		 jne	 SHORT $LN8@RollingEff

; 326  : 			{
; 327  : 				m_pEffect = g_UIImageSetMgr.CreateImageByFullName( szEffect );

  000f3	8d 45 e0	 lea	 eax, DWORD PTR _szEffect$509883[ebp]
  000f6	53		 push	 ebx
  000f7	50		 push	 eax
  000f8	ff 15 00 00 00
	00		 call	 DWORD PTR __imp_?GetSingleton@ioUIImageSetManager@@SAAAV1@XZ
  000fe	8b c8		 mov	 ecx, eax
  00100	ff 15 00 00 00
	00		 call	 DWORD PTR __imp_?CreateImageByFullName@ioUIImageSetManager@@QAEPAVioUIRenderImage@@ABVioHashString@@_N@Z
  00106	89 86 64 01 00
	00		 mov	 DWORD PTR [esi+356], eax
$LN8@RollingEff:

; 328  : 			}
; 329  : 
; 330  : 			m_dwRollingEffectCheckTime = dwCurTime;
; 331  : 		}

  0010c	8d 4d e0	 lea	 ecx, DWORD PTR _szEffect$509883[ebp]

; 332  : 	}
; 333  : 	else

  0010f	e9 94 00 00 00	 jmp	 $LN41@RollingEff
$LN16@RollingEff:

; 334  : 	{
; 335  : 		if( m_dwRollingEffectCheckTime == 0 || dwCurTime - m_dwRollingEffectCheckTime > m_dwRollingEffectTime )		// 

  00114	8b 86 f0 01 00
	00		 mov	 eax, DWORD PTR [esi+496]
  0011a	3b c3		 cmp	 eax, ebx
  0011c	74 11		 je	 SHORT $LN5@RollingEff
  0011e	8b 4d f0	 mov	 ecx, DWORD PTR _dwCurTime$[ebp]
  00121	2b c8		 sub	 ecx, eax
  00123	3b 8e ec 01 00
	00		 cmp	 ecx, DWORD PTR [esi+492]
  00129	0f 86 8c 00 00
	00		 jbe	 $LN6@RollingEff
$LN5@RollingEff:

; 336  : 		{
; 337  : 			SAFEDELETE( m_pEffect );

  0012f	8b 8e 64 01 00
	00		 mov	 ecx, DWORD PTR [esi+356]
  00135	33 db		 xor	 ebx, ebx
  00137	43		 inc	 ebx
  00138	85 c9		 test	 ecx, ecx
  0013a	74 0d		 je	 SHORT $LN4@RollingEff
  0013c	8b 01		 mov	 eax, DWORD PTR [ecx]
  0013e	53		 push	 ebx
  0013f	ff 50 40	 call	 DWORD PTR [eax+64]
  00142	83 a6 64 01 00
	00 00		 and	 DWORD PTR [esi+356], 0
$LN4@RollingEff:

; 338  : 
; 339  : 			m_iCurEffectArray++;

  00149	ff 86 e8 01 00
	00		 inc	 DWORD PTR [esi+488]
  0014f	8b 8e e8 01 00
	00		 mov	 ecx, DWORD PTR [esi+488]

; 340  : 
; 341  : 			if( !COMPARE( m_iCurEffectArray, 0, iEffectListCnt ) )

  00155	78 04		 js	 SHORT $LN2@RollingEff
  00157	3b cf		 cmp	 ecx, edi
  00159	7c 07		 jl	 SHORT $LN3@RollingEff
$LN2@RollingEff:

; 342  : 				m_iCurEffectArray = 0;

  0015b	83 a6 e8 01 00
	00 00		 and	 DWORD PTR [esi+488], 0
$LN3@RollingEff:

; 343  : 
; 344  : 			ioHashString szEffect = m_vRollingEffect[m_iCurEffectArray];

  00162	8b 86 e8 01 00
	00		 mov	 eax, DWORD PTR [esi+488]
  00168	c1 e0 04	 shl	 eax, 4
  0016b	03 86 98 01 00
	00		 add	 eax, DWORD PTR [esi+408]
  00171	8d 4d d0	 lea	 ecx, DWORD PTR _szEffect$509893[ebp]
  00174	50		 push	 eax
  00175	ff 15 00 00 00
	00		 call	 DWORD PTR __imp_??0ioHashString@@QAE@ABV0@@Z

; 345  : 
; 346  : 			if( !szEffect.IsEmpty() )

  0017b	8d 4d d0	 lea	 ecx, DWORD PTR _szEffect$509893[ebp]
  0017e	89 5d fc	 mov	 DWORD PTR __$EHRec$[ebp+8], ebx
  00181	ff 15 00 00 00
	00		 call	 DWORD PTR __imp_?IsEmpty@ioHashString@@QBE_NXZ
  00187	84 c0		 test	 al, al
  00189	75 1a		 jne	 SHORT $LN1@RollingEff

; 347  : 			{
; 348  : 				m_pEffect = g_UIImageSetMgr.CreateImageByFullName( szEffect );

  0018b	8d 45 d0	 lea	 eax, DWORD PTR _szEffect$509893[ebp]
  0018e	6a 00		 push	 0
  00190	50		 push	 eax
  00191	ff 15 00 00 00
	00		 call	 DWORD PTR __imp_?GetSingleton@ioUIImageSetManager@@SAAAV1@XZ
  00197	8b c8		 mov	 ecx, eax
  00199	ff 15 00 00 00
	00		 call	 DWORD PTR __imp_?CreateImageByFullName@ioUIImageSetManager@@QAEPAVioUIRenderImage@@ABVioHashString@@_N@Z
  0019f	89 86 64 01 00
	00		 mov	 DWORD PTR [esi+356], eax
$LN1@RollingEff:

; 352  : 		}

  001a5	8d 4d d0	 lea	 ecx, DWORD PTR _szEffect$509893[ebp]
$LN41@RollingEff:

; 349  : 			}
; 350  : 
; 351  : 			m_dwRollingEffectCheckTime = dwCurTime;

  001a8	8b 45 f0	 mov	 eax, DWORD PTR _dwCurTime$[ebp]

; 352  : 		}

  001ab	83 4d fc ff	 or	 DWORD PTR __$EHRec$[ebp+8], -1
  001af	89 86 f0 01 00
	00		 mov	 DWORD PTR [esi+496], eax
  001b5	ff 15 00 00 00
	00		 call	 DWORD PTR __imp_??1ioHashString@@QAE@XZ
$LN6@RollingEff:

; 353  : 	}
; 354  : }

  001bb	e8 00 00 00 00	 call	 __EH_epilog3
  001c0	c2 04 00	 ret	 4
_TEXT	ENDS
;	COMDAT text$x
text$x	SEGMENT
__unwindfunclet$?RollingEffect@RandomDecoWnd@@IAEXM@Z$0:
  00000	8d 4d e0	 lea	 ecx, DWORD PTR _szEffect$509883[ebp]
  00003	ff 25 00 00 00
	00		 jmp	 DWORD PTR __imp_??1ioHashString@@QAE@XZ
__unwindfunclet$?RollingEffect@RandomDecoWnd@@IAEXM@Z$1:
  00009	8d 4d d0	 lea	 ecx, DWORD PTR _szEffect$509893[ebp]
  0000c	ff 25 00 00 00
	00		 jmp	 DWORD PTR __imp_??1ioHashString@@QAE@XZ
__ehhandler$?RollingEffect@RandomDecoWnd@@IAEXM@Z:
  00012	8b 54 24 08	 mov	 edx, DWORD PTR [esp+8]
  00016	8d 42 0c	 lea	 eax, DWORD PTR [edx+12]
  00019	8b 4a cc	 mov	 ecx, DWORD PTR [edx-52]
  0001c	33 c8		 xor	 ecx, eax
  0001e	e8 00 00 00 00	 call	 @__security_check_cookie@4
  00023	b8 00 00 00 00	 mov	 eax, OFFSET __ehfuncinfo$?RollingEffect@RandomDecoWnd@@IAEXM@Z
  00028	e9 00 00 00 00	 jmp	 ___CxxFrameHandler3
text$x	ENDS
?RollingEffect@RandomDecoWnd@@IAEXM@Z ENDP		; RandomDecoWnd::RollingEffect
PUBLIC	??_C@_0BJ@MBKFFGIH@?$CFs?5pEtcItem?5?$DN?$DN?5NULL?5?3?5?$CFd?$AA@ ; `string'
PUBLIC	??_C@_0BL@ENIINPCL@RandomDecoWnd?3?3iwm_command?$AA@ ; `string'
PUBLIC	??_R0?AVioWnd@@@8				; ioWnd `RTTI Type Descriptor'
PUBLIC	??_R0?AVMyInventoryWnd@@@8			; MyInventoryWnd `RTTI Type Descriptor'
PUBLIC	?iwm_command@RandomDecoWnd@@UAEXPAVioWnd@@HK@Z	; RandomDecoWnd::iwm_command
EXTRN	__imp_?HideWnd@ioWnd@@QAEXXZ:PROC
EXTRN	__imp_?PrintTimeAndLog@CLog@@QAAXHPADZZ:PROC
EXTRN	__imp_?LOG@@3VCLog@@A:BYTE
EXTRN	?FindEtcItem@ioEtcItemManager@@QAEPAVioEtcItem@@K@Z:PROC ; ioEtcItemManager::FindEtcItem
EXTRN	?GetSingleton@ioMyInfo@@SAAAV1@XZ:PROC		; ioMyInfo::GetSingleton
EXTRN	?ShowPresentTabDirect@MyInventoryWnd@@QAEXXZ:PROC ; MyInventoryWnd::ShowPresentTabDirect
EXTRN	__imp_?FindWnd@ioGUIManager@@QAEPAVioWnd@@K@Z:PROC
EXTRN	?GetSingleton@ioSP2GUIManager@@SAAAV1@XZ:PROC	; ioSP2GUIManager::GetSingleton
EXTRN	__imp_?GetID@ioWnd@@QBEKXZ:PROC
EXTRN	___RTDynamicCast:PROC
;	COMDAT ??_C@_0BJ@MBKFFGIH@?$CFs?5pEtcItem?5?$DN?$DN?5NULL?5?3?5?$CFd?$AA@
; File d:\lost saga for developer\youtube\tutorial\source\src\io3dengine\iosingleton.h
CONST	SEGMENT
??_C@_0BJ@MBKFFGIH@?$CFs?5pEtcItem?5?$DN?$DN?5NULL?5?3?5?$CFd?$AA@ DB '%s'
	DB	' pEtcItem == NULL : %d', 00H		; `string'
CONST	ENDS
;	COMDAT ??_C@_0BL@ENIINPCL@RandomDecoWnd?3?3iwm_command?$AA@
CONST	SEGMENT
??_C@_0BL@ENIINPCL@RandomDecoWnd?3?3iwm_command?$AA@ DB 'RandomDecoWnd::i'
	DB	'wm_command', 00H				; `string'
CONST	ENDS
;	COMDAT ??_R0?AVioWnd@@@8
_DATA	SEGMENT
??_R0?AVioWnd@@@8 DD FLAT:??_7type_info@@6B@		; ioWnd `RTTI Type Descriptor'
	DD	00H
	DB	'.?AVioWnd@@', 00H
_DATA	ENDS
;	COMDAT ??_R0?AVMyInventoryWnd@@@8
_DATA	SEGMENT
??_R0?AVMyInventoryWnd@@@8 DD FLAT:??_7type_info@@6B@	; MyInventoryWnd `RTTI Type Descriptor'
	DD	00H
	DB	'.?AVMyInventoryWnd@@', 00H
; Function compile flags: /Ogsp
; File d:\lost saga for developer\youtube\tutorial\source\src\lsclient\gui\randomdecownd.cpp
_DATA	ENDS
;	COMDAT ?iwm_command@RandomDecoWnd@@UAEXPAVioWnd@@HK@Z
_TEXT	SEGMENT
_pWnd$ = 8						; size = 4
_pUserEtcItem$509959 = 12				; size = 4
_cmd$ = 12						; size = 4
_param$ = 16						; size = 4
?iwm_command@RandomDecoWnd@@UAEXPAVioWnd@@HK@Z PROC	; RandomDecoWnd::iwm_command, COMDAT
; _this$ = ecx

; 479  : {

  00000	55		 push	 ebp
  00001	8b ec		 mov	 ebp, esp
  00003	53		 push	 ebx
  00004	8b d9		 mov	 ebx, ecx

; 480  : 	DWORD dwID = pWnd->GetID();

  00006	8b 4d 08	 mov	 ecx, DWORD PTR _pWnd$[ebp]
  00009	ff 15 00 00 00
	00		 call	 DWORD PTR __imp_?GetID@ioWnd@@QBEKXZ

; 481  : 
; 482  : 	switch( dwID )

  0000f	48		 dec	 eax
  00010	48		 dec	 eax
  00011	74 45		 je	 SHORT $LN5@iwm_comman
  00013	48		 dec	 eax
  00014	0f 85 aa 00 00
	00		 jne	 $LN3@iwm_comman

; 483  : 	{
; 484  : 	case ID_GO:
; 485  : 		if( cmd == IOBN_BTNUP )

  0001a	83 7d 0c 11	 cmp	 DWORD PTR _cmd$[ebp], 17 ; 00000011H
  0001e	0f 85 a0 00 00
	00		 jne	 $LN3@iwm_comman

; 486  : 		{
; 487  : 			MyInventoryWnd *pInvenWnd = dynamic_cast<MyInventoryWnd*>(g_GUIMgr.FindWnd(MY_INVENTORY_WND));

  00024	50		 push	 eax
  00025	68 00 00 00 00	 push	 OFFSET ??_R0?AVMyInventoryWnd@@@8
  0002a	68 00 00 00 00	 push	 OFFSET ??_R0?AVioWnd@@@8
  0002f	50		 push	 eax
  00030	68 96 17 00 00	 push	 6038			; 00001796H
  00035	e8 00 00 00 00	 call	 ?GetSingleton@ioSP2GUIManager@@SAAAV1@XZ ; ioSP2GUIManager::GetSingleton
  0003a	8b c8		 mov	 ecx, eax
  0003c	ff 15 00 00 00
	00		 call	 DWORD PTR __imp_?FindWnd@ioGUIManager@@QAEPAVioWnd@@K@Z
  00042	50		 push	 eax
  00043	e8 00 00 00 00	 call	 ___RTDynamicCast
  00048	83 c4 14	 add	 esp, 20			; 00000014H

; 488  : 			if( pInvenWnd )

  0004b	85 c0		 test	 eax, eax
  0004d	74 75		 je	 SHORT $LN3@iwm_comman

; 489  : 			{
; 490  : 				pInvenWnd->ShowPresentTabDirect();

  0004f	8b c8		 mov	 ecx, eax
  00051	e8 00 00 00 00	 call	 ?ShowPresentTabDirect@MyInventoryWnd@@QAEXXZ ; MyInventoryWnd::ShowPresentTabDirect

; 491  : 			}
; 492  : 		}
; 493  : 		break;

  00056	eb 6c		 jmp	 SHORT $LN3@iwm_comman
$LN5@iwm_comman:

; 494  : 	case ID_USE:
; 495  : 		if( cmd == IOBN_BTNUP )

  00058	83 7d 0c 11	 cmp	 DWORD PTR _cmd$[ebp], 17 ; 00000011H
  0005c	75 66		 jne	 SHORT $LN3@iwm_comman

; 496  : 		{
; 497  : 			ioUserEtcItem *pUserEtcItem =  g_MyInfo.GetUserEtcItem();

  0005e	e8 00 00 00 00	 call	 ?GetSingleton@ioMyInfo@@SAAAV1@XZ ; ioMyInfo::GetSingleton
  00063	05 44 01 00 00	 add	 eax, 324		; 00000144H
  00068	89 45 0c	 mov	 DWORD PTR _pUserEtcItem$509959[ebp], eax

; 498  : 			if( pUserEtcItem )

  0006b	74 57		 je	 SHORT $LN3@iwm_comman

; 499  : 			{
; 500  : 				int iType = ioEtcItem::EIT_ETC_RANDOM_DECO_W;
; 501  : 				if( m_bMan )

  0006d	80 bb 74 01 00
	00 00		 cmp	 BYTE PTR [ebx+372], 0
  00074	57		 push	 edi
  00075	bf 5d 42 0f 00	 mov	 edi, 1000029		; 000f425dH
  0007a	74 01		 je	 SHORT $LN2@iwm_comman

; 502  : 				{
; 503  : 					iType = ioEtcItem::EIT_ETC_RANDOM_DECO_M;

  0007c	4f		 dec	 edi
$LN2@iwm_comman:

; 504  : 				}
; 505  : 
; 506  : 				ioEtcItem *pEtcItem = g_EtcItemMgr.FindEtcItem( iType );

  0007d	8b 0d 00 00 00
	00		 mov	 ecx, DWORD PTR ?ms_Singleton@?$Singleton@VioEtcItemManager@@@@1PAVioEtcItemManager@@A ; Singleton<ioEtcItemManager>::ms_Singleton
  00083	56		 push	 esi
  00084	57		 push	 edi
  00085	e8 00 00 00 00	 call	 ?FindEtcItem@ioEtcItemManager@@QAEPAVioEtcItem@@K@Z ; ioEtcItemManager::FindEtcItem
  0008a	8b f0		 mov	 esi, eax

; 507  : 				if( !pEtcItem )

  0008c	85 f6		 test	 esi, esi
  0008e	75 1d		 jne	 SHORT $LN1@iwm_comman

; 508  : 				{
; 509  : 					LOG.PrintTimeAndLog( 0, "%s pEtcItem == NULL : %d", __FUNCTION__, iType );

  00090	57		 push	 edi
  00091	68 00 00 00 00	 push	 OFFSET ??_C@_0BL@ENIINPCL@RandomDecoWnd?3?3iwm_command?$AA@
  00096	68 00 00 00 00	 push	 OFFSET ??_C@_0BJ@MBKFFGIH@?$CFs?5pEtcItem?5?$DN?$DN?5NULL?5?3?5?$CFd?$AA@
  0009b	50		 push	 eax
  0009c	ff 35 00 00 00
	00		 push	 DWORD PTR __imp_?LOG@@3VCLog@@A
  000a2	ff 15 00 00 00
	00		 call	 DWORD PTR __imp_?PrintTimeAndLog@CLog@@QAAXHPADZZ
  000a8	83 c4 14	 add	 esp, 20			; 00000014H

; 510  : 					return;

  000ab	eb 15		 jmp	 SHORT $LN18@iwm_comman
$LN1@iwm_comman:

; 511  : 				}
; 512  : 				HideWnd();

  000ad	8b cb		 mov	 ecx, ebx
  000af	ff 15 00 00 00
	00		 call	 DWORD PTR __imp_?HideWnd@ioWnd@@QAEXXZ

; 513  : 
; 514  : 				pEtcItem->OnUseBtnPush( iType, pUserEtcItem );

  000b5	8b 06		 mov	 eax, DWORD PTR [esi]
  000b7	6a 01		 push	 1
  000b9	ff 75 0c	 push	 DWORD PTR _pUserEtcItem$509959[ebp]
  000bc	8b ce		 mov	 ecx, esi
  000be	57		 push	 edi
  000bf	ff 50 20	 call	 DWORD PTR [eax+32]
$LN18@iwm_comman:
  000c2	5e		 pop	 esi
  000c3	5f		 pop	 edi
$LN3@iwm_comman:
  000c4	5b		 pop	 ebx

; 515  : 			}
; 516  : 		}
; 517  : 		break;
; 518  : 	}
; 519  : }

  000c5	5d		 pop	 ebp
  000c6	c2 0c 00	 ret	 12			; 0000000cH
?iwm_command@RandomDecoWnd@@UAEXPAVioWnd@@HK@Z ENDP	; RandomDecoWnd::iwm_command
_TEXT	ENDS
PUBLIC	??_R0?AVioButton@@@8				; ioButton `RTTI Type Descriptor'
PUBLIC	?ReBatchButton@RandomDecoWnd@@IAEXH@Z		; RandomDecoWnd::ReBatchButton
EXTRN	__imp_?SetChildInActive@ioWnd@@QAEXK@Z:PROC
EXTRN	__imp_?ShowChildWnd@ioWnd@@QAEXK_N@Z:PROC
EXTRN	?GetEtcItem@ioUserEtcItem@@QAE_NHAAUETCITEMSLOT@1@@Z:PROC ; ioUserEtcItem::GetEtcItem
EXTRN	__imp_?ShowWnd@ioWnd@@QAEXXZ:PROC
EXTRN	__imp_?SetOffset@ioUITitle@@QAEXHH@Z:PROC
EXTRN	__imp_?GetTextYOffSet@ioUITitle@@QBEHXZ:PROC
EXTRN	__imp_?GetTitle@ioWnd@@QBEPAVioUITitle@@XZ:PROC
EXTRN	__imp_?SetWndPos@ioWnd@@QAEXHH@Z:PROC
EXTRN	__imp_?GetYPos@ioWnd@@QBEHXZ:PROC
EXTRN	__imp_?GetHeight@ioWnd@@QBEHXZ:PROC
EXTRN	__imp_?FindChildWnd@ioWnd@@QAEPAV1@K@Z:PROC
EXTRN	__imp_?HideChildWnd@ioWnd@@QAEXK_N@Z:PROC
;	COMDAT ??_R0?AVioButton@@@8
; File d:\lost saga for developer\youtube\tutorial\source\src\lsclient\iouseretcitem.h
_DATA	SEGMENT
??_R0?AVioButton@@@8 DD FLAT:??_7type_info@@6B@		; ioButton `RTTI Type Descriptor'
	DD	00H
	DB	'.?AVioButton@@', 00H
; Function compile flags: /Ogsp
; File d:\lost saga for developer\youtube\tutorial\source\src\lsclient\gui\randomdecownd.cpp
_DATA	ENDS
;	COMDAT ?ReBatchButton@RandomDecoWnd@@IAEXH@Z
_TEXT	SEGMENT
_kSlot$509991 = -20					; size = 12
tv689 = -8						; size = 4
tv686 = -8						; size = 4
_pTitle$510020 = -8					; size = 4
_this$ = -4						; size = 4
_pButton$510017 = 8					; size = 4
_pButton$510000 = 8					; size = 4
_iType$ = 8						; size = 4
?ReBatchButton@RandomDecoWnd@@IAEXH@Z PROC		; RandomDecoWnd::ReBatchButton, COMDAT
; _this$ = ecx

; 522  : {

  00000	55		 push	 ebp
  00001	8b ec		 mov	 ebp, esp
  00003	83 ec 14	 sub	 esp, 20			; 00000014H

; 523  : 	enum
; 524  : 	{
; 525  : 		ONE_BTN_SIZE	= 204,
; 526  : 		TWO_BTN_SIZE	= 102,
; 527  : 
; 528  : 		ONE_BTN_X		= 27,
; 529  : 		TWO_BTN_X		= 131,
; 530  : 
; 531  : 		ONE_TEXT_X		= 102,
; 532  : 		TWO_TEXT_X		= 51,
; 533  : 	};
; 534  : 
; 535  : 	switch( iType )

  00006	8b 45 08	 mov	 eax, DWORD PTR _iType$[ebp]
  00009	48		 dec	 eax
  0000a	53		 push	 ebx
  0000b	56		 push	 esi
  0000c	57		 push	 edi
  0000d	8b f9		 mov	 edi, ecx
  0000f	89 7d fc	 mov	 DWORD PTR _this$[ebp], edi
  00012	0f 84 14 02 00
	00		 je	 $LN23@ReBatchBut
  00018	48		 dec	 eax
  00019	0f 85 36 02 00
	00		 jne	 $LN24@ReBatchBut

; 543  : 		break;
; 544  : 	case RESULT_BTN:
; 545  : 		HideChildWnd(ID_ROLLING);

  0001f	8b 35 00 00 00
	00		 mov	 esi, DWORD PTR __imp_?HideChildWnd@ioWnd@@QAEXK_N@Z
  00025	33 db		 xor	 ebx, ebx
  00027	53		 push	 ebx
  00028	6a 01		 push	 1
  0002a	ff d6		 call	 esi

; 546  : 		HideChildWnd(ID_USE);

  0002c	53		 push	 ebx
  0002d	6a 02		 push	 2
  0002f	8b cf		 mov	 ecx, edi
  00031	ff d6		 call	 esi

; 547  : 		HideChildWnd(ID_GO);

  00033	53		 push	 ebx
  00034	6a 03		 push	 3
  00036	8b cf		 mov	 ecx, edi
  00038	ff d6		 call	 esi

; 548  : 
; 549  : 		// 
; 550  : 		ioUserEtcItem *pUserEtcItem = g_MyInfo.GetUserEtcItem();

  0003a	e8 00 00 00 00	 call	 ?GetSingleton@ioMyInfo@@SAAAV1@XZ ; ioMyInfo::GetSingleton
  0003f	05 44 01 00 00	 add	 eax, 324		; 00000144H

; 551  : 		if( !pUserEtcItem )

  00044	75 7f		 jne	 SHORT $LN21@ReBatchBut

; 552  : 		{
; 553  : 			ioButton *pButton = dynamic_cast<ioButton*>(FindChildWnd(ID_GO));

  00046	53		 push	 ebx
$LN37@ReBatchBut:
  00047	68 00 00 00 00	 push	 OFFSET ??_R0?AVioButton@@@8
  0004c	68 00 00 00 00	 push	 OFFSET ??_R0?AVioWnd@@@8
  00051	53		 push	 ebx
  00052	6a 03		 push	 3
  00054	8b cf		 mov	 ecx, edi
  00056	ff 15 00 00 00
	00		 call	 DWORD PTR __imp_?FindChildWnd@ioWnd@@QAEPAV1@K@Z
  0005c	50		 push	 eax
  0005d	e8 00 00 00 00	 call	 ___RTDynamicCast
  00062	8b f0		 mov	 esi, eax
  00064	83 c4 14	 add	 esp, 20			; 00000014H

; 554  : 			if( pButton )

  00067	3b f3		 cmp	 esi, ebx
  00069	0f 84 e6 01 00
	00		 je	 $LN24@ReBatchBut

; 555  : 			{
; 556  : 				pButton->SetSize( ONE_BTN_SIZE, pButton->GetHeight() );

  0006f	8b 3e		 mov	 edi, DWORD PTR [esi]
  00071	8b ce		 mov	 ecx, esi
  00073	ff 15 00 00 00
	00		 call	 DWORD PTR __imp_?GetHeight@ioWnd@@QBEHXZ
  00079	50		 push	 eax
  0007a	68 cc 00 00 00	 push	 204			; 000000ccH
  0007f	8b ce		 mov	 ecx, esi
  00081	ff 57 2c	 call	 DWORD PTR [edi+44]

; 557  : 				pButton->SetWndPos( ONE_BTN_X, pButton->GetYPos() );

  00084	8b ce		 mov	 ecx, esi
  00086	ff 15 00 00 00
	00		 call	 DWORD PTR __imp_?GetYPos@ioWnd@@QBEHXZ
  0008c	50		 push	 eax
  0008d	6a 1b		 push	 27			; 0000001bH
  0008f	8b ce		 mov	 ecx, esi
  00091	ff 15 00 00 00
	00		 call	 DWORD PTR __imp_?SetWndPos@ioWnd@@QAEXHH@Z

; 558  : 
; 559  : 				ioUITitle *pTitle =  pButton->GetTitle();

  00097	8b ce		 mov	 ecx, esi
  00099	ff 15 00 00 00
	00		 call	 DWORD PTR __imp_?GetTitle@ioWnd@@QBEPAVioUITitle@@XZ
  0009f	8b f8		 mov	 edi, eax

; 560  : 				if( pTitle )

  000a1	3b fb		 cmp	 edi, ebx
  000a3	74 13		 je	 SHORT $LN19@ReBatchBut

; 561  : 				{
; 562  : 					pTitle->SetOffset( ONE_TEXT_X, pTitle->GetTextYOffSet() );

  000a5	8b cf		 mov	 ecx, edi
  000a7	ff 15 00 00 00
	00		 call	 DWORD PTR __imp_?GetTextYOffSet@ioUITitle@@QBEHXZ
  000ad	50		 push	 eax
  000ae	6a 66		 push	 102			; 00000066H
$LN32@ReBatchBut:
  000b0	8b cf		 mov	 ecx, edi
  000b2	ff 15 00 00 00
	00		 call	 DWORD PTR __imp_?SetOffset@ioUITitle@@QAEXHH@Z
$LN19@ReBatchBut:

; 563  : 				}
; 564  : 
; 565  : 				pButton->ShowWnd();

  000b8	8b ce		 mov	 ecx, esi
  000ba	ff 15 00 00 00
	00		 call	 DWORD PTR __imp_?ShowWnd@ioWnd@@QAEXXZ

; 566  : 			}
; 567  : 			break;

  000c0	e9 90 01 00 00	 jmp	 $LN24@ReBatchBut
$LN21@ReBatchBut:

; 568  : 		}
; 569  : 
; 570  : 		ioUserEtcItem::ETCITEMSLOT kSlot;
; 571  : 		//  
; 572  : 		if( m_bMan )
; 573  : 		{
; 574  : 			if( !pUserEtcItem->GetEtcItem( ioEtcItem::EIT_ETC_RANDOM_DECO_M, kSlot) )

  000c5	8d 4d ec	 lea	 ecx, DWORD PTR _kSlot$509991[ebp]
  000c8	51		 push	 ecx
  000c9	89 5d ec	 mov	 DWORD PTR _kSlot$509991[ebp], ebx
  000cc	89 5d f0	 mov	 DWORD PTR _kSlot$509991[ebp+4], ebx
  000cf	89 5d f4	 mov	 DWORD PTR _kSlot$509991[ebp+8], ebx
  000d2	8b c8		 mov	 ecx, eax
  000d4	38 9f 74 01 00
	00		 cmp	 BYTE PTR [edi+372], bl
  000da	74 52		 je	 SHORT $LN18@ReBatchBut
  000dc	68 5c 42 0f 00	 push	 1000028			; 000f425cH
  000e1	e8 00 00 00 00	 call	 ?GetEtcItem@ioUserEtcItem@@QAE_NHAAUETCITEMSLOT@1@@Z ; ioUserEtcItem::GetEtcItem

; 575  : 			{
; 576  : 				ioButton *pButton = dynamic_cast<ioButton*>(FindChildWnd(ID_GO));

  000e6	53		 push	 ebx
  000e7	84 c0		 test	 al, al

; 577  : 				if( pButton )
; 578  : 				{
; 579  : 					pButton->SetSize( ONE_BTN_SIZE, pButton->GetHeight() );
; 580  : 					pButton->SetWndPos( ONE_BTN_X, pButton->GetYPos() );
; 581  : 
; 582  : 					ioUITitle *pTitle =  pButton->GetTitle();
; 583  : 					if( pTitle )
; 584  : 					{
; 585  : 						pTitle->SetOffset( ONE_TEXT_X, pTitle->GetTextYOffSet() );
; 586  : 					}
; 587  : 
; 588  : 					pButton->ShowWnd();
; 589  : 				}
; 590  : 			}
; 591  : 			else

  000e9	0f 84 58 ff ff
	ff		 je	 $LN37@ReBatchBut

; 592  : 			{
; 593  : 				ioButton *pButton = dynamic_cast<ioButton*>(FindChildWnd(ID_USE));

  000ef	8b 4d fc	 mov	 ecx, DWORD PTR _this$[ebp]
  000f2	bf 00 00 00 00	 mov	 edi, OFFSET ??_R0?AVioButton@@@8
  000f7	57		 push	 edi
  000f8	be 00 00 00 00	 mov	 esi, OFFSET ??_R0?AVioWnd@@@8
  000fd	56		 push	 esi
  000fe	53		 push	 ebx
  000ff	6a 02		 push	 2
  00101	ff 15 00 00 00
	00		 call	 DWORD PTR __imp_?FindChildWnd@ioWnd@@QAEPAV1@K@Z
  00107	50		 push	 eax
  00108	e8 00 00 00 00	 call	 ___RTDynamicCast
  0010d	83 c4 14	 add	 esp, 20			; 00000014H
  00110	89 45 08	 mov	 DWORD PTR _pButton$510000[ebp], eax

; 594  : 				if( pButton )

  00113	3b c3		 cmp	 eax, ebx
  00115	0f 84 a9 00 00
	00		 je	 $LN4@ReBatchBut

; 595  : 				{
; 596  : 					pButton->SetSize( TWO_BTN_SIZE, pButton->GetHeight() );

  0011b	8b 08		 mov	 ecx, DWORD PTR [eax]
  0011d	89 4d f8	 mov	 DWORD PTR tv686[ebp], ecx
  00120	8b c8		 mov	 ecx, eax
  00122	ff 15 00 00 00
	00		 call	 DWORD PTR __imp_?GetHeight@ioWnd@@QBEHXZ
  00128	50		 push	 eax
  00129	8b 45 f8	 mov	 eax, DWORD PTR tv686[ebp]

; 597  : 					pButton->SetWndPos( ONE_BTN_X, pButton->GetYPos() );
; 598  : 
; 599  : 					ioUITitle *pTitle =  pButton->GetTitle();
; 600  : 					if( pTitle )
; 601  : 					{
; 602  : 						pTitle->SetOffset( TWO_TEXT_X, pTitle->GetTextYOffSet() );
; 603  : 					}
; 604  : 
; 605  : 					pButton->ShowWnd();
; 606  : 				}
; 607  : 
; 608  : 				pButton = dynamic_cast<ioButton*>(FindChildWnd(ID_GO));
; 609  : 				if( pButton )
; 610  : 				{
; 611  : 					pButton->SetSize( TWO_BTN_SIZE, pButton->GetHeight() );
; 612  : 					pButton->SetWndPos( TWO_BTN_X, pButton->GetYPos() );
; 613  : 
; 614  : 					ioUITitle *pTitle =  pButton->GetTitle();
; 615  : 					if( pTitle )
; 616  : 					{
; 617  : 						pTitle->SetOffset( TWO_TEXT_X, pTitle->GetTextYOffSet() );
; 618  : 					}
; 619  : 
; 620  : 					pButton->ShowWnd();
; 621  : 				}
; 622  : 			}
; 623  : 		}
; 624  : 		else	//  

  0012c	eb 4c		 jmp	 SHORT $LN36@ReBatchBut
$LN18@ReBatchBut:

; 625  : 		{
; 626  : 			if( !pUserEtcItem->GetEtcItem( ioEtcItem::EIT_ETC_RANDOM_DECO_W, kSlot) )

  0012e	68 5d 42 0f 00	 push	 1000029			; 000f425dH
  00133	e8 00 00 00 00	 call	 ?GetEtcItem@ioUserEtcItem@@QAE_NHAAUETCITEMSLOT@1@@Z ; ioUserEtcItem::GetEtcItem

; 627  : 			{
; 628  : 				ioButton *pButton = dynamic_cast<ioButton*>(FindChildWnd(ID_GO));

  00138	53		 push	 ebx
  00139	84 c0		 test	 al, al

; 629  : 				if( pButton )
; 630  : 				{
; 631  : 					pButton->SetSize( ONE_BTN_SIZE, pButton->GetHeight() );
; 632  : 					pButton->SetWndPos( ONE_BTN_X, pButton->GetYPos() );
; 633  : 
; 634  : 					ioUITitle *pTitle =  pButton->GetTitle();
; 635  : 					if( pTitle )
; 636  : 					{
; 637  : 						pTitle->SetOffset( ONE_TEXT_X, pTitle->GetTextYOffSet() );
; 638  : 					}
; 639  : 
; 640  : 					pButton->ShowWnd();
; 641  : 				}
; 642  : 			}
; 643  : 			else

  0013b	0f 84 06 ff ff
	ff		 je	 $LN37@ReBatchBut

; 644  : 			{
; 645  : 				ioButton *pButton = dynamic_cast<ioButton*>(FindChildWnd(ID_USE));

  00141	8b 4d fc	 mov	 ecx, DWORD PTR _this$[ebp]
  00144	bf 00 00 00 00	 mov	 edi, OFFSET ??_R0?AVioButton@@@8
  00149	57		 push	 edi
  0014a	be 00 00 00 00	 mov	 esi, OFFSET ??_R0?AVioWnd@@@8
  0014f	56		 push	 esi
  00150	53		 push	 ebx
  00151	6a 02		 push	 2
  00153	ff 15 00 00 00
	00		 call	 DWORD PTR __imp_?FindChildWnd@ioWnd@@QAEPAV1@K@Z
  00159	50		 push	 eax
  0015a	e8 00 00 00 00	 call	 ___RTDynamicCast
  0015f	83 c4 14	 add	 esp, 20			; 00000014H
  00162	89 45 08	 mov	 DWORD PTR _pButton$510017[ebp], eax

; 646  : 				if( pButton )

  00165	3b c3		 cmp	 eax, ebx
  00167	74 5b		 je	 SHORT $LN4@ReBatchBut

; 647  : 				{
; 648  : 					pButton->SetSize( TWO_BTN_SIZE, pButton->GetHeight() );

  00169	8b 08		 mov	 ecx, DWORD PTR [eax]
  0016b	89 4d f8	 mov	 DWORD PTR tv689[ebp], ecx
  0016e	8b c8		 mov	 ecx, eax
  00170	ff 15 00 00 00
	00		 call	 DWORD PTR __imp_?GetHeight@ioWnd@@QBEHXZ
  00176	50		 push	 eax
  00177	8b 45 f8	 mov	 eax, DWORD PTR tv689[ebp]
$LN36@ReBatchBut:
  0017a	8b 4d 08	 mov	 ecx, DWORD PTR _pButton$510017[ebp]
  0017d	6a 66		 push	 102			; 00000066H
  0017f	ff 50 2c	 call	 DWORD PTR [eax+44]

; 649  : 					pButton->SetWndPos( ONE_BTN_X, pButton->GetYPos() );

  00182	8b 4d 08	 mov	 ecx, DWORD PTR _pButton$510017[ebp]
  00185	ff 15 00 00 00
	00		 call	 DWORD PTR __imp_?GetYPos@ioWnd@@QBEHXZ
  0018b	8b 4d 08	 mov	 ecx, DWORD PTR _pButton$510017[ebp]
  0018e	50		 push	 eax
  0018f	6a 1b		 push	 27			; 0000001bH
  00191	ff 15 00 00 00
	00		 call	 DWORD PTR __imp_?SetWndPos@ioWnd@@QAEXHH@Z

; 650  : 
; 651  : 					ioUITitle *pTitle =  pButton->GetTitle();

  00197	8b 4d 08	 mov	 ecx, DWORD PTR _pButton$510017[ebp]
  0019a	ff 15 00 00 00
	00		 call	 DWORD PTR __imp_?GetTitle@ioWnd@@QBEPAVioUITitle@@XZ
  001a0	8b c8		 mov	 ecx, eax
  001a2	89 4d f8	 mov	 DWORD PTR _pTitle$510020[ebp], ecx

; 652  : 					if( pTitle )

  001a5	3b cb		 cmp	 ecx, ebx
  001a7	74 12		 je	 SHORT $LN3@ReBatchBut

; 653  : 					{
; 654  : 						pTitle->SetOffset( TWO_TEXT_X, pTitle->GetTextYOffSet() );

  001a9	ff 15 00 00 00
	00		 call	 DWORD PTR __imp_?GetTextYOffSet@ioUITitle@@QBEHXZ
  001af	8b 4d f8	 mov	 ecx, DWORD PTR _pTitle$510020[ebp]
  001b2	50		 push	 eax
  001b3	6a 33		 push	 51			; 00000033H
  001b5	ff 15 00 00 00
	00		 call	 DWORD PTR __imp_?SetOffset@ioUITitle@@QAEXHH@Z
$LN3@ReBatchBut:

; 655  : 					}
; 656  : 
; 657  : 					pButton->ShowWnd();

  001bb	8b 4d 08	 mov	 ecx, DWORD PTR _pButton$510017[ebp]
  001be	ff 15 00 00 00
	00		 call	 DWORD PTR __imp_?ShowWnd@ioWnd@@QAEXXZ
$LN4@ReBatchBut:

; 658  : 				}
; 659  : 
; 660  : 				pButton = dynamic_cast<ioButton*>(FindChildWnd(ID_GO));

  001c4	8b 4d fc	 mov	 ecx, DWORD PTR _this$[ebp]
  001c7	53		 push	 ebx
  001c8	57		 push	 edi
  001c9	56		 push	 esi
  001ca	53		 push	 ebx
  001cb	6a 03		 push	 3
  001cd	ff 15 00 00 00
	00		 call	 DWORD PTR __imp_?FindChildWnd@ioWnd@@QAEPAV1@K@Z
  001d3	50		 push	 eax
  001d4	e8 00 00 00 00	 call	 ___RTDynamicCast
  001d9	8b f0		 mov	 esi, eax
  001db	83 c4 14	 add	 esp, 20			; 00000014H

; 661  : 				if( pButton )

  001de	3b f3		 cmp	 esi, ebx
  001e0	74 73		 je	 SHORT $LN24@ReBatchBut

; 662  : 				{
; 663  : 					pButton->SetSize( TWO_BTN_SIZE, pButton->GetHeight() );

  001e2	8b 3e		 mov	 edi, DWORD PTR [esi]
  001e4	8b ce		 mov	 ecx, esi
  001e6	ff 15 00 00 00
	00		 call	 DWORD PTR __imp_?GetHeight@ioWnd@@QBEHXZ
  001ec	50		 push	 eax
  001ed	6a 66		 push	 102			; 00000066H
  001ef	8b ce		 mov	 ecx, esi
  001f1	ff 57 2c	 call	 DWORD PTR [edi+44]

; 664  : 					pButton->SetWndPos( TWO_BTN_X, pButton->GetYPos() );

  001f4	8b ce		 mov	 ecx, esi
  001f6	ff 15 00 00 00
	00		 call	 DWORD PTR __imp_?GetYPos@ioWnd@@QBEHXZ
  001fc	50		 push	 eax
  001fd	68 83 00 00 00	 push	 131			; 00000083H
  00202	8b ce		 mov	 ecx, esi
  00204	ff 15 00 00 00
	00		 call	 DWORD PTR __imp_?SetWndPos@ioWnd@@QAEXHH@Z

; 665  : 
; 666  : 					ioUITitle *pTitle =  pButton->GetTitle();

  0020a	8b ce		 mov	 ecx, esi
  0020c	ff 15 00 00 00
	00		 call	 DWORD PTR __imp_?GetTitle@ioWnd@@QBEPAVioUITitle@@XZ
  00212	8b f8		 mov	 edi, eax

; 667  : 					if( pTitle )

  00214	3b fb		 cmp	 edi, ebx
  00216	0f 84 9c fe ff
	ff		 je	 $LN19@ReBatchBut

; 668  : 					{
; 669  : 						pTitle->SetOffset( TWO_TEXT_X, pTitle->GetTextYOffSet() );

  0021c	8b cf		 mov	 ecx, edi
  0021e	ff 15 00 00 00
	00		 call	 DWORD PTR __imp_?GetTextYOffSet@ioUITitle@@QBEHXZ
  00224	50		 push	 eax
  00225	6a 33		 push	 51			; 00000033H

; 670  : 					}
; 671  : 
; 672  : 					pButton->ShowWnd();
; 673  : 				}
; 674  : 			}
; 675  : 		}
; 676  : 		break;

  00227	e9 84 fe ff ff	 jmp	 $LN32@ReBatchBut
$LN23@ReBatchBut:

; 536  : 	{
; 537  : 	case ROLLING_BTN:
; 538  : 		ShowChildWnd(ID_ROLLING);

  0022c	33 db		 xor	 ebx, ebx
  0022e	53		 push	 ebx
  0022f	6a 01		 push	 1
  00231	ff 15 00 00 00
	00		 call	 DWORD PTR __imp_?ShowChildWnd@ioWnd@@QAEXK_N@Z

; 539  : 		SetChildInActive(ID_ROLLING);

  00237	6a 01		 push	 1
  00239	8b cf		 mov	 ecx, edi
  0023b	ff 15 00 00 00
	00		 call	 DWORD PTR __imp_?SetChildInActive@ioWnd@@QAEXK@Z

; 540  : 
; 541  : 		HideChildWnd(ID_USE);

  00241	8b 35 00 00 00
	00		 mov	 esi, DWORD PTR __imp_?HideChildWnd@ioWnd@@QAEXK_N@Z
  00247	53		 push	 ebx
  00248	6a 02		 push	 2
  0024a	8b cf		 mov	 ecx, edi
  0024c	ff d6		 call	 esi

; 542  : 		HideChildWnd(ID_GO);

  0024e	53		 push	 ebx
  0024f	6a 03		 push	 3
  00251	8b cf		 mov	 ecx, edi
  00253	ff d6		 call	 esi
$LN24@ReBatchBut:
  00255	5f		 pop	 edi
  00256	5e		 pop	 esi
  00257	5b		 pop	 ebx

; 677  : 	}
; 678  : }

  00258	c9		 leave
  00259	c2 04 00	 ret	 4
?ReBatchButton@RandomDecoWnd@@IAEXH@Z ENDP		; RandomDecoWnd::ReBatchButton
_TEXT	ENDS
PUBLIC	__real@434c0000
PUBLIC	?PrintManual@RandomDecoWnd@@IAEXHHM@Z		; RandomDecoWnd::PrintManual
EXTRN	??1ioComplexStringPrinter@@QAE@XZ:PROC		; ioComplexStringPrinter::~ioComplexStringPrinter
EXTRN	?ClearList@ioComplexStringPrinter@@QAEXXZ:PROC	; ioComplexStringPrinter::ClearList
EXTRN	?PrintFullTextWidthCut@ioComplexStringPrinter@@QAEXMMW4TextAlignType@@ME@Z:PROC ; ioComplexStringPrinter::PrintFullTextWidthCut
EXTRN	??0ioComplexStringPrinter@@QAE@XZ:PROC		; ioComplexStringPrinter::ioComplexStringPrinter
;	COMDAT __real@434c0000
; File d:\lost saga for developer\youtube\tutorial\source\src\lsclient\ioetcitem.h
CONST	SEGMENT
__real@434c0000 DD 0434c0000r			; 204
CONST	ENDS
;	COMDAT xdata$x
xdata$x	SEGMENT
__unwindtable$?PrintManual@RandomDecoWnd@@IAEXHHM@Z DD 0ffffffffH
	DD	FLAT:__unwindfunclet$?PrintManual@RandomDecoWnd@@IAEXHHM@Z$0
__ehfuncinfo$?PrintManual@RandomDecoWnd@@IAEXHHM@Z DD 019930522H
	DD	01H
	DD	FLAT:__unwindtable$?PrintManual@RandomDecoWnd@@IAEXHHM@Z
	DD	2 DUP(00H)
	DD	2 DUP(00H)
	DD	00H
	DD	01H
; Function compile flags: /Ogsp
; File d:\lost saga for developer\youtube\tutorial\source\src\lsclient\gui\randomdecownd.cpp
xdata$x	ENDS
;	COMDAT ?PrintManual@RandomDecoWnd@@IAEXHHM@Z
_TEXT	SEGMENT
_kPrinter$ = -48					; size = 32
_iMaxLine$ = -16					; size = 4
__$EHRec$ = -12						; size = 12
tv229 = 8						; size = 4
_a_iXPos$ = 8						; size = 4
_a_iYPos$ = 12						; size = 4
_fScale$ = 16						; size = 4
?PrintManual@RandomDecoWnd@@IAEXHHM@Z PROC		; RandomDecoWnd::PrintManual, COMDAT
; _this$ = ecx

; 718  : {

  00000	6a 24		 push	 36			; 00000024H
  00002	b8 00 00 00 00	 mov	 eax, __ehhandler$?PrintManual@RandomDecoWnd@@IAEXHHM@Z
  00007	e8 00 00 00 00	 call	 __EH_prolog3
  0000c	8b f1		 mov	 esi, ecx

; 719  : 	if( !m_pManual )

  0000e	83 be 70 01 00
	00 00		 cmp	 DWORD PTR [esi+368], 0
  00015	0f 84 d8 00 00
	00		 je	 $LN8@PrintManua

; 720  : 		return;
; 721  : 
; 722  : 	ioEtcItem *pItem = NULL;
; 723  : 	if( m_bMan )

  0001b	80 be 74 01 00
	00 00		 cmp	 BYTE PTR [esi+372], 0

; 724  : 		pItem = g_EtcItemMgr.FindEtcItem( ioEtcItem::EIT_ETC_RANDOM_DECO_M );

  00022	8b 0d 00 00 00
	00		 mov	 ecx, DWORD PTR ?ms_Singleton@?$Singleton@VioEtcItemManager@@@@1PAVioEtcItemManager@@A ; Singleton<ioEtcItemManager>::ms_Singleton
  00028	74 07		 je	 SHORT $LN6@PrintManua
  0002a	68 5c 42 0f 00	 push	 1000028			; 000f425cH

; 725  : 	else

  0002f	eb 05		 jmp	 SHORT $LN20@PrintManua
$LN6@PrintManua:

; 726  : 		pItem = g_EtcItemMgr.FindEtcItem( ioEtcItem::EIT_ETC_RANDOM_DECO_W );

  00031	68 5d 42 0f 00	 push	 1000029			; 000f425dH
$LN20@PrintManua:
  00036	e8 00 00 00 00	 call	 ?FindEtcItem@ioEtcItemManager@@QAEPAVioEtcItem@@K@Z ; ioEtcItemManager::FindEtcItem

; 727  : 
; 728  : 	if( !pItem ) return;

  0003b	85 c0		 test	 eax, eax
  0003d	0f 84 b0 00 00
	00		 je	 $LN8@PrintManua

; 729  : 
; 730  : 	int iSubManual = pItem->GetInventorySubManual() - 1;

  00043	8b 78 4c	 mov	 edi, DWORD PTR [eax+76]

; 731  : 	ioComplexStringPrinter kPrinter;

  00046	8d 4d d0	 lea	 ecx, DWORD PTR _kPrinter$[ebp]
  00049	4f		 dec	 edi
  0004a	e8 00 00 00 00	 call	 ??0ioComplexStringPrinter@@QAE@XZ ; ioComplexStringPrinter::ioComplexStringPrinter

; 732  : 	int iMaxLine = m_pManual->GetMaxLine( iSubManual );

  0004f	8b 8e 70 01 00
	00		 mov	 ecx, DWORD PTR [esi+368]
  00055	8b 01		 mov	 eax, DWORD PTR [ecx]
  00057	83 65 fc 00	 and	 DWORD PTR __$EHRec$[ebp+8], 0
  0005b	57		 push	 edi
  0005c	ff 50 08	 call	 DWORD PTR [eax+8]

; 733  : 	for(int iLine = 1; iLine < iMaxLine; iLine++)

  0005f	33 db		 xor	 ebx, ebx
  00061	43		 inc	 ebx
  00062	89 45 f0	 mov	 DWORD PTR _iMaxLine$[ebp], eax
  00065	3b c3		 cmp	 eax, ebx
  00067	7e 7e		 jle	 SHORT $LN1@PrintManua
  00069	66 0f 6e 45 08	 movd	 xmm0, DWORD PTR _a_iXPos$[ebp]
  0006e	0f 5b c0	 cvtdq2ps xmm0, xmm0
  00071	f3 0f 11 45 08	 movss	 DWORD PTR tv229[ebp], xmm0
$LL3@PrintManua:

; 734  : 	{
; 735  : 		m_pManual->SetPrinter( iSubManual, iLine, fScale, kPrinter);

  00076	8b 8e 70 01 00
	00		 mov	 ecx, DWORD PTR [esi+368]
  0007c	f3 0f 10 45 10	 movss	 xmm0, DWORD PTR _fScale$[ebp]
  00081	8b 01		 mov	 eax, DWORD PTR [ecx]
  00083	8d 55 d0	 lea	 edx, DWORD PTR _kPrinter$[ebp]
  00086	52		 push	 edx
  00087	51		 push	 ecx
  00088	f3 0f 11 04 24	 movss	 DWORD PTR [esp], xmm0
  0008d	53		 push	 ebx
  0008e	57		 push	 edi
  0008f	ff 50 10	 call	 DWORD PTR [eax+16]

; 736  : 		a_iYPos += m_pManual->GetSpaceLine( iSubManual, iLine);

  00092	8b 8e 70 01 00
	00		 mov	 ecx, DWORD PTR [esi+368]
  00098	8b 01		 mov	 eax, DWORD PTR [ecx]
  0009a	53		 push	 ebx
  0009b	57		 push	 edi
  0009c	ff 50 0c	 call	 DWORD PTR [eax+12]

; 737  : 		kPrinter.PrintFullTextWidthCut( a_iXPos, a_iYPos, TAT_LEFT, DESC_WIDTH );

  0009f	f3 0f 10 05 00
	00 00 00	 movss	 xmm0, DWORD PTR __real@434c0000
  000a7	01 45 0c	 add	 DWORD PTR _a_iYPos$[ebp], eax
  000aa	68 ff 00 00 00	 push	 255			; 000000ffH
  000af	51		 push	 ecx
  000b0	f3 0f 11 04 24	 movss	 DWORD PTR [esp], xmm0
  000b5	66 0f 6e 45 0c	 movd	 xmm0, DWORD PTR _a_iYPos$[ebp]
  000ba	6a 00		 push	 0
  000bc	51		 push	 ecx
  000bd	51		 push	 ecx
  000be	0f 5b c0	 cvtdq2ps xmm0, xmm0
  000c1	f3 0f 11 44 24
	04		 movss	 DWORD PTR [esp+4], xmm0
  000c7	f3 0f 10 45 08	 movss	 xmm0, DWORD PTR tv229[ebp]
  000cc	8d 4d d0	 lea	 ecx, DWORD PTR _kPrinter$[ebp]
  000cf	f3 0f 11 04 24	 movss	 DWORD PTR [esp], xmm0
  000d4	e8 00 00 00 00	 call	 ?PrintFullTextWidthCut@ioComplexStringPrinter@@QAEXMMW4TextAlignType@@ME@Z ; ioComplexStringPrinter::PrintFullTextWidthCut

; 738  : 		kPrinter.ClearList();

  000d9	8d 4d d0	 lea	 ecx, DWORD PTR _kPrinter$[ebp]
  000dc	e8 00 00 00 00	 call	 ?ClearList@ioComplexStringPrinter@@QAEXXZ ; ioComplexStringPrinter::ClearList
  000e1	43		 inc	 ebx
  000e2	3b 5d f0	 cmp	 ebx, DWORD PTR _iMaxLine$[ebp]
  000e5	7c 8f		 jl	 SHORT $LL3@PrintManua
$LN1@PrintManua:

; 739  : 	}
; 740  : }

  000e7	83 4d fc ff	 or	 DWORD PTR __$EHRec$[ebp+8], -1
  000eb	8d 4d d0	 lea	 ecx, DWORD PTR _kPrinter$[ebp]
  000ee	e8 00 00 00 00	 call	 ??1ioComplexStringPrinter@@QAE@XZ ; ioComplexStringPrinter::~ioComplexStringPrinter
$LN8@PrintManua:
  000f3	e8 00 00 00 00	 call	 __EH_epilog3
  000f8	c2 0c 00	 ret	 12			; 0000000cH
_TEXT	ENDS
;	COMDAT text$x
text$x	SEGMENT
__unwindfunclet$?PrintManual@RandomDecoWnd@@IAEXHHM@Z$0:
  00000	8d 4d d0	 lea	 ecx, DWORD PTR _kPrinter$[ebp]
  00003	e9 00 00 00 00	 jmp	 ??1ioComplexStringPrinter@@QAE@XZ ; ioComplexStringPrinter::~ioComplexStringPrinter
__ehhandler$?PrintManual@RandomDecoWnd@@IAEXHHM@Z:
  00008	8b 54 24 08	 mov	 edx, DWORD PTR [esp+8]
  0000c	8d 42 0c	 lea	 eax, DWORD PTR [edx+12]
  0000f	8b 4a cc	 mov	 ecx, DWORD PTR [edx-52]
  00012	33 c8		 xor	 ecx, eax
  00014	e8 00 00 00 00	 call	 @__security_check_cookie@4
  00019	b8 00 00 00 00	 mov	 eax, OFFSET __ehfuncinfo$?PrintManual@RandomDecoWnd@@IAEXHHM@Z
  0001e	e9 00 00 00 00	 jmp	 ___CxxFrameHandler3
text$x	ENDS
?PrintManual@RandomDecoWnd@@IAEXHHM@Z ENDP		; RandomDecoWnd::PrintManual
PUBLIC	__$ArrayPad$
PUBLIC	??$?8$0M@@@YA_NABVioHashString@@AAY0M@$$CBD@Z	; operator==<12>
EXTRN	__imp_?c_str@ioHashString@@QBEPBDXZ:PROC
EXTRN	___security_cookie:DWORD
; Function compile flags: /Ogsp
; File d:\lost saga for developer\youtube\tutorial\source\src\io3dengine\iohashstring.h
;	COMDAT ??$?8$0M@@@YA_NABVioHashString@@AAY0M@$$CBD@Z
_TEXT	SEGMENT
__t$ = -20						; size = 12
__$ArrayPad$ = -4					; size = 4
_lhs$ = 8						; size = 4
_t$ = 12						; size = 4
??$?8$0M@@@YA_NABVioHashString@@AAY0M@$$CBD@Z PROC	; operator==<12>, COMDAT

; 146  : {

  00000	55		 push	 ebp
  00001	8b ec		 mov	 ebp, esp
  00003	83 ec 14	 sub	 esp, 20			; 00000014H
  00006	a1 00 00 00 00	 mov	 eax, DWORD PTR ___security_cookie
  0000b	33 c5		 xor	 eax, ebp
  0000d	89 45 fc	 mov	 DWORD PTR __$ArrayPad$[ebp], eax
  00010	8b 45 0c	 mov	 eax, DWORD PTR _t$[ebp]

; 147  : 	_ENCSTR(t, _t); return ( strcmp( lhs.c_str(), _t ) == 0 );

  00013	8a 10		 mov	 dl, BYTE PTR [eax]
  00015	56		 push	 esi
  00016	57		 push	 edi
  00017	8b 7d 08	 mov	 edi, DWORD PTR _lhs$[ebp]
  0001a	84 d2		 test	 dl, dl
  0001c	0f 84 32 01 00
	00		 je	 $LN96@operator
  00022	80 f2 ed	 xor	 dl, -19			; ffffffedH
  00025	88 55 ec	 mov	 BYTE PTR __t$[ebp], dl
  00028	8a 50 01	 mov	 dl, BYTE PTR [eax+1]
  0002b	84 d2		 test	 dl, dl
  0002d	0f 84 1b 01 00
	00		 je	 $LN95@operator
  00033	80 f2 ec	 xor	 dl, -20			; ffffffecH
  00036	88 55 ed	 mov	 BYTE PTR __t$[ebp+1], dl
  00039	8a 50 02	 mov	 dl, BYTE PTR [eax+2]
  0003c	84 d2		 test	 dl, dl
  0003e	0f 84 04 01 00
	00		 je	 $LN94@operator
  00044	b1 eb		 mov	 cl, -21			; ffffffebH
  00046	32 d1		 xor	 dl, cl
  00048	88 55 ee	 mov	 BYTE PTR __t$[ebp+2], dl
  0004b	8a 50 03	 mov	 dl, BYTE PTR [eax+3]
  0004e	84 d2		 test	 dl, dl
  00050	0f 84 ec 00 00
	00		 je	 $LN93@operator
  00056	80 f2 ea	 xor	 dl, -22			; ffffffeaH
  00059	88 55 ef	 mov	 BYTE PTR __t$[ebp+3], dl
  0005c	8a 50 04	 mov	 dl, BYTE PTR [eax+4]
  0005f	84 d2		 test	 dl, dl
  00061	0f 84 d5 00 00
	00		 je	 $LN92@operator
  00067	80 f2 ed	 xor	 dl, -19			; ffffffedH
  0006a	88 55 f0	 mov	 BYTE PTR __t$[ebp+4], dl
  0006d	8a 50 05	 mov	 dl, BYTE PTR [eax+5]
  00070	84 d2		 test	 dl, dl
  00072	0f 84 be 00 00
	00		 je	 $LN91@operator
  00078	80 f2 ec	 xor	 dl, -20			; ffffffecH
  0007b	88 55 f1	 mov	 BYTE PTR __t$[ebp+5], dl
  0007e	8a 50 06	 mov	 dl, BYTE PTR [eax+6]
  00081	84 d2		 test	 dl, dl
  00083	0f 84 a8 00 00
	00		 je	 $LN90@operator
  00089	32 d1		 xor	 dl, cl
  0008b	88 55 f2	 mov	 BYTE PTR __t$[ebp+6], dl
  0008e	8a 50 07	 mov	 dl, BYTE PTR [eax+7]
  00091	84 d2		 test	 dl, dl
  00093	0f 84 92 00 00
	00		 je	 $LN89@operator
  00099	80 f2 ea	 xor	 dl, -22			; ffffffeaH
  0009c	88 55 f3	 mov	 BYTE PTR __t$[ebp+7], dl
  0009f	8a 50 08	 mov	 dl, BYTE PTR [eax+8]
  000a2	84 d2		 test	 dl, dl
  000a4	74 7f		 je	 SHORT $LN88@operator
  000a6	80 f2 ed	 xor	 dl, -19			; ffffffedH
  000a9	88 55 f4	 mov	 BYTE PTR __t$[ebp+8], dl
  000ac	8a 50 09	 mov	 dl, BYTE PTR [eax+9]
  000af	84 d2		 test	 dl, dl
  000b1	74 6c		 je	 SHORT $LN87@operator
  000b3	80 f2 ec	 xor	 dl, -20			; ffffffecH
  000b6	88 55 f5	 mov	 BYTE PTR __t$[ebp+9], dl
  000b9	8a 50 0a	 mov	 dl, BYTE PTR [eax+10]
  000bc	84 d2		 test	 dl, dl
  000be	74 5a		 je	 SHORT $LN86@operator
  000c0	32 d1		 xor	 dl, cl
  000c2	80 78 0b 00	 cmp	 BYTE PTR [eax+11], 0
  000c6	88 55 f6	 mov	 BYTE PTR __t$[ebp+10], dl
  000c9	0f 84 89 00 00
	00		 je	 $LN1@operator
  000cf	8a 50 0c	 mov	 dl, BYTE PTR [eax+12]
  000d2	84 d2		 test	 dl, dl
  000d4	74 3e		 je	 SHORT $LN84@operator
  000d6	80 f2 ed	 xor	 dl, -19			; ffffffedH
  000d9	88 55 f8	 mov	 BYTE PTR __t$[ebp+12], dl
  000dc	8a 50 0d	 mov	 dl, BYTE PTR [eax+13]
  000df	84 d2		 test	 dl, dl
  000e1	74 2b		 je	 SHORT $LN83@operator
  000e3	80 f2 ec	 xor	 dl, -20			; ffffffecH
  000e6	88 55 f9	 mov	 BYTE PTR __t$[ebp+13], dl
  000e9	8a 50 0e	 mov	 dl, BYTE PTR [eax+14]
  000ec	84 d2		 test	 dl, dl
  000ee	74 19		 je	 SHORT $LN82@operator
  000f0	8a 40 0f	 mov	 al, BYTE PTR [eax+15]
  000f3	32 d1		 xor	 dl, cl
  000f5	88 55 fa	 mov	 BYTE PTR __t$[ebp+14], dl
  000f8	84 c0		 test	 al, al
  000fa	74 07		 je	 SHORT $LN81@operator
  000fc	34 ea		 xor	 al, -22			; ffffffeaH
  000fe	88 45 fb	 mov	 BYTE PTR __t$[ebp+15], al
  00101	eb 55		 jmp	 SHORT $LN1@operator
$LN81@operator:
  00103	c6 45 fb ea	 mov	 BYTE PTR __t$[ebp+15], -22 ; ffffffeaH
  00107	eb 4f		 jmp	 SHORT $LN1@operator
$LN82@operator:
  00109	88 4d fa	 mov	 BYTE PTR __t$[ebp+14], cl
  0010c	eb 4a		 jmp	 SHORT $LN1@operator
$LN83@operator:
  0010e	c6 45 f9 ec	 mov	 BYTE PTR __t$[ebp+13], -20 ; ffffffecH
  00112	eb 44		 jmp	 SHORT $LN1@operator
$LN84@operator:
  00114	c6 45 f8 ed	 mov	 BYTE PTR __t$[ebp+12], -19 ; ffffffedH
  00118	eb 3e		 jmp	 SHORT $LN1@operator
$LN86@operator:
  0011a	88 4d f6	 mov	 BYTE PTR __t$[ebp+10], cl
  0011d	eb 39		 jmp	 SHORT $LN1@operator
$LN87@operator:
  0011f	c6 45 f5 ec	 mov	 BYTE PTR __t$[ebp+9], -20 ; ffffffecH
  00123	eb 33		 jmp	 SHORT $LN1@operator
$LN88@operator:
  00125	c6 45 f4 ed	 mov	 BYTE PTR __t$[ebp+8], -19 ; ffffffedH
  00129	eb 2d		 jmp	 SHORT $LN1@operator
$LN89@operator:
  0012b	c6 45 f3 ea	 mov	 BYTE PTR __t$[ebp+7], -22 ; ffffffeaH
  0012f	eb 27		 jmp	 SHORT $LN1@operator
$LN90@operator:
  00131	88 4d f2	 mov	 BYTE PTR __t$[ebp+6], cl
  00134	eb 22		 jmp	 SHORT $LN1@operator
$LN91@operator:
  00136	c6 45 f1 ec	 mov	 BYTE PTR __t$[ebp+5], -20 ; ffffffecH
  0013a	eb 1c		 jmp	 SHORT $LN1@operator
$LN92@operator:
  0013c	c6 45 f0 ed	 mov	 BYTE PTR __t$[ebp+4], -19 ; ffffffedH
  00140	eb 16		 jmp	 SHORT $LN1@operator
$LN93@operator:
  00142	c6 45 ef ea	 mov	 BYTE PTR __t$[ebp+3], -22 ; ffffffeaH
  00146	eb 10		 jmp	 SHORT $LN1@operator
$LN94@operator:
  00148	c6 45 ee eb	 mov	 BYTE PTR __t$[ebp+2], -21 ; ffffffebH
  0014c	eb 0a		 jmp	 SHORT $LN1@operator
$LN95@operator:
  0014e	c6 45 ed ec	 mov	 BYTE PTR __t$[ebp+1], -20 ; ffffffecH
  00152	eb 04		 jmp	 SHORT $LN1@operator
$LN96@operator:
  00154	c6 45 ec ed	 mov	 BYTE PTR __t$[ebp], -19	; ffffffedH
$LN1@operator:
  00158	6a 02		 push	 2
  0015a	8d 45 ec	 lea	 eax, DWORD PTR __t$[ebp]
  0015d	c6 45 f7 00	 mov	 BYTE PTR __t$[ebp+11], 0
  00161	5a		 pop	 edx
$LL104@operator:
  00162	81 30 ed ec eb
	ea		 xor	 DWORD PTR [eax], -353637139 ; eaebecedH
  00168	83 c0 04	 add	 eax, 4
  0016b	4a		 dec	 edx
  0016c	75 f4		 jne	 SHORT $LL104@operator
  0016e	6a 08		 push	 8
  00170	58		 pop	 eax
$LL101@operator:
  00171	8b c8		 mov	 ecx, eax
  00173	81 e1 03 00 00
	80		 and	 ecx, -2147483645	; 80000003H
  00179	79 05		 jns	 SHORT $LN115@operator
  0017b	49		 dec	 ecx
  0017c	83 c9 fc	 or	 ecx, -4			; fffffffcH
  0017f	41		 inc	 ecx
$LN115@operator:
  00180	b2 ed		 mov	 dl, -19			; ffffffedH
  00182	2a d1		 sub	 dl, cl
  00184	30 54 05 ec	 xor	 BYTE PTR __t$[ebp+eax], dl
  00188	40		 inc	 eax
  00189	83 f8 0b	 cmp	 eax, 11			; 0000000bH
  0018c	7c e3		 jl	 SHORT $LL101@operator
  0018e	8b cf		 mov	 ecx, edi
  00190	8d 75 ec	 lea	 esi, DWORD PTR __t$[ebp]
  00193	ff 15 00 00 00
	00		 call	 DWORD PTR __imp_?c_str@ioHashString@@QBEPBDXZ
$LL111@operator:
  00199	8a 08		 mov	 cl, BYTE PTR [eax]
  0019b	3a 0e		 cmp	 cl, BYTE PTR [esi]
  0019d	75 1a		 jne	 SHORT $LN112@operator
  0019f	84 c9		 test	 cl, cl
  001a1	74 12		 je	 SHORT $LN113@operator
  001a3	8a 48 01	 mov	 cl, BYTE PTR [eax+1]
  001a6	3a 4e 01	 cmp	 cl, BYTE PTR [esi+1]
  001a9	75 0e		 jne	 SHORT $LN112@operator
  001ab	83 c0 02	 add	 eax, 2
  001ae	83 c6 02	 add	 esi, 2
  001b1	84 c9		 test	 cl, cl
  001b3	75 e4		 jne	 SHORT $LL111@operator
$LN113@operator:
  001b5	33 c0		 xor	 eax, eax
  001b7	eb 05		 jmp	 SHORT $LN114@operator
$LN112@operator:
  001b9	1b c0		 sbb	 eax, eax
  001bb	83 d8 ff	 sbb	 eax, -1
$LN114@operator:
  001be	33 c9		 xor	 ecx, ecx
  001c0	85 c0		 test	 eax, eax
  001c2	0f 94 c0	 sete	 al

; 148  : }

  001c5	8b 4d fc	 mov	 ecx, DWORD PTR __$ArrayPad$[ebp]
  001c8	5f		 pop	 edi
  001c9	33 cd		 xor	 ecx, ebp
  001cb	5e		 pop	 esi
  001cc	e8 00 00 00 00	 call	 @__security_check_cookie@4
  001d1	c9		 leave
  001d2	c3		 ret	 0
??$?8$0M@@@YA_NABVioHashString@@AAY0M@$$CBD@Z ENDP	; operator==<12>
_TEXT	ENDS
PUBLIC	__$ArrayPad$
PUBLIC	??$?8$0BC@@@YA_NABVioHashString@@AAY0BC@$$CBD@Z	; operator==<18>
; Function compile flags: /Ogsp
;	COMDAT ??$?8$0BC@@@YA_NABVioHashString@@AAY0BC@$$CBD@Z
_TEXT	SEGMENT
__t$ = -28						; size = 18
__$ArrayPad$ = -4					; size = 4
_lhs$ = 8						; size = 4
_t$ = 12						; size = 4
??$?8$0BC@@@YA_NABVioHashString@@AAY0BC@$$CBD@Z PROC	; operator==<18>, COMDAT

; 146  : {

  00000	55		 push	 ebp
  00001	8b ec		 mov	 ebp, esp
  00003	83 ec 1c	 sub	 esp, 28			; 0000001cH
  00006	a1 00 00 00 00	 mov	 eax, DWORD PTR ___security_cookie
  0000b	33 c5		 xor	 eax, ebp
  0000d	89 45 fc	 mov	 DWORD PTR __$ArrayPad$[ebp], eax
  00010	8b 45 0c	 mov	 eax, DWORD PTR _t$[ebp]

; 147  : 	_ENCSTR(t, _t); return ( strcmp( lhs.c_str(), _t ) == 0 );

  00013	8a 10		 mov	 dl, BYTE PTR [eax]
  00015	56		 push	 esi
  00016	57		 push	 edi
  00017	8b 7d 08	 mov	 edi, DWORD PTR _lhs$[ebp]
  0001a	84 d2		 test	 dl, dl
  0001c	0f 84 be 01 00
	00		 je	 $LN96@operator@2
  00022	80 f2 ed	 xor	 dl, -19			; ffffffedH
  00025	88 55 e4	 mov	 BYTE PTR __t$[ebp], dl
  00028	8a 50 01	 mov	 dl, BYTE PTR [eax+1]
  0002b	84 d2		 test	 dl, dl
  0002d	0f 84 a7 01 00
	00		 je	 $LN95@operator@2
  00033	80 f2 ec	 xor	 dl, -20			; ffffffecH
  00036	88 55 e5	 mov	 BYTE PTR __t$[ebp+1], dl
  00039	8a 50 02	 mov	 dl, BYTE PTR [eax+2]
  0003c	84 d2		 test	 dl, dl
  0003e	0f 84 90 01 00
	00		 je	 $LN94@operator@2
  00044	b1 eb		 mov	 cl, -21			; ffffffebH
  00046	32 d1		 xor	 dl, cl
  00048	88 55 e6	 mov	 BYTE PTR __t$[ebp+2], dl
  0004b	8a 50 03	 mov	 dl, BYTE PTR [eax+3]
  0004e	84 d2		 test	 dl, dl
  00050	0f 84 78 01 00
	00		 je	 $LN93@operator@2
  00056	80 f2 ea	 xor	 dl, -22			; ffffffeaH
  00059	88 55 e7	 mov	 BYTE PTR __t$[ebp+3], dl
  0005c	8a 50 04	 mov	 dl, BYTE PTR [eax+4]
  0005f	84 d2		 test	 dl, dl
  00061	0f 84 61 01 00
	00		 je	 $LN92@operator@2
  00067	80 f2 ed	 xor	 dl, -19			; ffffffedH
  0006a	88 55 e8	 mov	 BYTE PTR __t$[ebp+4], dl
  0006d	8a 50 05	 mov	 dl, BYTE PTR [eax+5]
  00070	84 d2		 test	 dl, dl
  00072	0f 84 4a 01 00
	00		 je	 $LN91@operator@2
  00078	80 f2 ec	 xor	 dl, -20			; ffffffecH
  0007b	88 55 e9	 mov	 BYTE PTR __t$[ebp+5], dl
  0007e	8a 50 06	 mov	 dl, BYTE PTR [eax+6]
  00081	84 d2		 test	 dl, dl
  00083	0f 84 34 01 00
	00		 je	 $LN90@operator@2
  00089	32 d1		 xor	 dl, cl
  0008b	88 55 ea	 mov	 BYTE PTR __t$[ebp+6], dl
  0008e	8a 50 07	 mov	 dl, BYTE PTR [eax+7]
  00091	84 d2		 test	 dl, dl
  00093	0f 84 1e 01 00
	00		 je	 $LN89@operator@2
  00099	80 f2 ea	 xor	 dl, -22			; ffffffeaH
  0009c	88 55 eb	 mov	 BYTE PTR __t$[ebp+7], dl
  0009f	8a 50 08	 mov	 dl, BYTE PTR [eax+8]
  000a2	84 d2		 test	 dl, dl
  000a4	0f 84 07 01 00
	00		 je	 $LN88@operator@2
  000aa	80 f2 ed	 xor	 dl, -19			; ffffffedH
  000ad	88 55 ec	 mov	 BYTE PTR __t$[ebp+8], dl
  000b0	8a 50 09	 mov	 dl, BYTE PTR [eax+9]
  000b3	84 d2		 test	 dl, dl
  000b5	0f 84 f0 00 00
	00		 je	 $LN87@operator@2
  000bb	80 f2 ec	 xor	 dl, -20			; ffffffecH
  000be	88 55 ed	 mov	 BYTE PTR __t$[ebp+9], dl
  000c1	8a 50 0a	 mov	 dl, BYTE PTR [eax+10]
  000c4	84 d2		 test	 dl, dl
  000c6	0f 84 da 00 00
	00		 je	 $LN86@operator@2
  000cc	32 d1		 xor	 dl, cl
  000ce	88 55 ee	 mov	 BYTE PTR __t$[ebp+10], dl
  000d1	8a 50 0b	 mov	 dl, BYTE PTR [eax+11]
  000d4	84 d2		 test	 dl, dl
  000d6	0f 84 c4 00 00
	00		 je	 $LN85@operator@2
  000dc	80 f2 ea	 xor	 dl, -22			; ffffffeaH
  000df	88 55 ef	 mov	 BYTE PTR __t$[ebp+11], dl
  000e2	8a 50 0c	 mov	 dl, BYTE PTR [eax+12]
  000e5	84 d2		 test	 dl, dl
  000e7	0f 84 ad 00 00
	00		 je	 $LN84@operator@2
  000ed	80 f2 ed	 xor	 dl, -19			; ffffffedH
  000f0	88 55 f0	 mov	 BYTE PTR __t$[ebp+12], dl
  000f3	8a 50 0d	 mov	 dl, BYTE PTR [eax+13]
  000f6	84 d2		 test	 dl, dl
  000f8	0f 84 96 00 00
	00		 je	 $LN83@operator@2
  000fe	80 f2 ec	 xor	 dl, -20			; ffffffecH
  00101	88 55 f1	 mov	 BYTE PTR __t$[ebp+13], dl
  00104	8a 50 0e	 mov	 dl, BYTE PTR [eax+14]
  00107	84 d2		 test	 dl, dl
  00109	0f 84 80 00 00
	00		 je	 $LN82@operator@2
  0010f	32 d1		 xor	 dl, cl
  00111	88 55 f2	 mov	 BYTE PTR __t$[ebp+14], dl
  00114	8a 50 0f	 mov	 dl, BYTE PTR [eax+15]
  00117	84 d2		 test	 dl, dl
  00119	74 6e		 je	 SHORT $LN81@operator@2
  0011b	80 f2 ea	 xor	 dl, -22			; ffffffeaH
  0011e	88 55 f3	 mov	 BYTE PTR __t$[ebp+15], dl
  00121	8a 50 10	 mov	 dl, BYTE PTR [eax+16]
  00124	84 d2		 test	 dl, dl
  00126	74 5b		 je	 SHORT $LN80@operator@2
  00128	80 f2 ed	 xor	 dl, -19			; ffffffedH
  0012b	80 78 11 00	 cmp	 BYTE PTR [eax+17], 0
  0012f	88 55 f4	 mov	 BYTE PTR __t$[ebp+16], dl
  00132	0f 84 ac 00 00
	00		 je	 $LN1@operator@2
  00138	8a 50 12	 mov	 dl, BYTE PTR [eax+18]
  0013b	84 d2		 test	 dl, dl
  0013d	74 3f		 je	 SHORT $LN78@operator@2
  0013f	32 d1		 xor	 dl, cl
  00141	88 55 f6	 mov	 BYTE PTR __t$[ebp+18], dl
  00144	8a 50 13	 mov	 dl, BYTE PTR [eax+19]
  00147	84 d2		 test	 dl, dl
  00149	74 2d		 je	 SHORT $LN77@operator@2
  0014b	80 f2 ea	 xor	 dl, -22			; ffffffeaH
  0014e	88 55 f7	 mov	 BYTE PTR __t$[ebp+19], dl
  00151	8a 50 14	 mov	 dl, BYTE PTR [eax+20]
  00154	84 d2		 test	 dl, dl
  00156	74 1a		 je	 SHORT $LN76@operator@2
  00158	8a 40 15	 mov	 al, BYTE PTR [eax+21]
  0015b	80 f2 ed	 xor	 dl, -19			; ffffffedH
  0015e	88 55 f8	 mov	 BYTE PTR __t$[ebp+20], dl
  00161	84 c0		 test	 al, al
  00163	74 07		 je	 SHORT $LN75@operator@2
  00165	34 ec		 xor	 al, -20			; ffffffecH
  00167	88 45 f9	 mov	 BYTE PTR __t$[ebp+21], al
  0016a	eb 78		 jmp	 SHORT $LN1@operator@2
$LN75@operator@2:
  0016c	c6 45 f9 ec	 mov	 BYTE PTR __t$[ebp+21], -20 ; ffffffecH
  00170	eb 72		 jmp	 SHORT $LN1@operator@2
$LN76@operator@2:
  00172	c6 45 f8 ed	 mov	 BYTE PTR __t$[ebp+20], -19 ; ffffffedH
  00176	eb 6c		 jmp	 SHORT $LN1@operator@2
$LN77@operator@2:
  00178	c6 45 f7 ea	 mov	 BYTE PTR __t$[ebp+19], -22 ; ffffffeaH
  0017c	eb 66		 jmp	 SHORT $LN1@operator@2
$LN78@operator@2:
  0017e	88 4d f6	 mov	 BYTE PTR __t$[ebp+18], cl
  00181	eb 61		 jmp	 SHORT $LN1@operator@2
$LN80@operator@2:
  00183	c6 45 f4 ed	 mov	 BYTE PTR __t$[ebp+16], -19 ; ffffffedH
  00187	eb 5b		 jmp	 SHORT $LN1@operator@2
$LN81@operator@2:
  00189	c6 45 f3 ea	 mov	 BYTE PTR __t$[ebp+15], -22 ; ffffffeaH
  0018d	eb 55		 jmp	 SHORT $LN1@operator@2
$LN82@operator@2:
  0018f	88 4d f2	 mov	 BYTE PTR __t$[ebp+14], cl
  00192	eb 50		 jmp	 SHORT $LN1@operator@2
$LN83@operator@2:
  00194	c6 45 f1 ec	 mov	 BYTE PTR __t$[ebp+13], -20 ; ffffffecH
  00198	eb 4a		 jmp	 SHORT $LN1@operator@2
$LN84@operator@2:
  0019a	c6 45 f0 ed	 mov	 BYTE PTR __t$[ebp+12], -19 ; ffffffedH
  0019e	eb 44		 jmp	 SHORT $LN1@operator@2
$LN85@operator@2:
  001a0	c6 45 ef ea	 mov	 BYTE PTR __t$[ebp+11], -22 ; ffffffeaH
  001a4	eb 3e		 jmp	 SHORT $LN1@operator@2
$LN86@operator@2:
  001a6	88 4d ee	 mov	 BYTE PTR __t$[ebp+10], cl
  001a9	eb 39		 jmp	 SHORT $LN1@operator@2
$LN87@operator@2:
  001ab	c6 45 ed ec	 mov	 BYTE PTR __t$[ebp+9], -20 ; ffffffecH
  001af	eb 33		 jmp	 SHORT $LN1@operator@2
$LN88@operator@2:
  001b1	c6 45 ec ed	 mov	 BYTE PTR __t$[ebp+8], -19 ; ffffffedH
  001b5	eb 2d		 jmp	 SHORT $LN1@operator@2
$LN89@operator@2:
  001b7	c6 45 eb ea	 mov	 BYTE PTR __t$[ebp+7], -22 ; ffffffeaH
  001bb	eb 27		 jmp	 SHORT $LN1@operator@2
$LN90@operator@2:
  001bd	88 4d ea	 mov	 BYTE PTR __t$[ebp+6], cl
  001c0	eb 22		 jmp	 SHORT $LN1@operator@2
$LN91@operator@2:
  001c2	c6 45 e9 ec	 mov	 BYTE PTR __t$[ebp+5], -20 ; ffffffecH
  001c6	eb 1c		 jmp	 SHORT $LN1@operator@2
$LN92@operator@2:
  001c8	c6 45 e8 ed	 mov	 BYTE PTR __t$[ebp+4], -19 ; ffffffedH
  001cc	eb 16		 jmp	 SHORT $LN1@operator@2
$LN93@operator@2:
  001ce	c6 45 e7 ea	 mov	 BYTE PTR __t$[ebp+3], -22 ; ffffffeaH
  001d2	eb 10		 jmp	 SHORT $LN1@operator@2
$LN94@operator@2:
  001d4	c6 45 e6 eb	 mov	 BYTE PTR __t$[ebp+2], -21 ; ffffffebH
  001d8	eb 0a		 jmp	 SHORT $LN1@operator@2
$LN95@operator@2:
  001da	c6 45 e5 ec	 mov	 BYTE PTR __t$[ebp+1], -20 ; ffffffecH
  001de	eb 04		 jmp	 SHORT $LN1@operator@2
$LN96@operator@2:
  001e0	c6 45 e4 ed	 mov	 BYTE PTR __t$[ebp], -19	; ffffffedH
$LN1@operator@2:
  001e4	6a 04		 push	 4
  001e6	8d 45 e4	 lea	 eax, DWORD PTR __t$[ebp]
  001e9	c6 45 f5 00	 mov	 BYTE PTR __t$[ebp+17], 0
  001ed	5a		 pop	 edx
$LL104@operator@2:
  001ee	81 30 ed ec eb
	ea		 xor	 DWORD PTR [eax], -353637139 ; eaebecedH
  001f4	83 c0 04	 add	 eax, 4
  001f7	4a		 dec	 edx
  001f8	75 f4		 jne	 SHORT $LL104@operator@2
  001fa	80 75 f4 ed	 xor	 BYTE PTR __t$[ebp+16], -19 ; ffffffedH
  001fe	8b cf		 mov	 ecx, edi
  00200	8d 75 e4	 lea	 esi, DWORD PTR __t$[ebp]
  00203	ff 15 00 00 00
	00		 call	 DWORD PTR __imp_?c_str@ioHashString@@QBEPBDXZ
$LL111@operator@2:
  00209	8a 08		 mov	 cl, BYTE PTR [eax]
  0020b	3a 0e		 cmp	 cl, BYTE PTR [esi]
  0020d	75 1a		 jne	 SHORT $LN112@operator@2
  0020f	84 c9		 test	 cl, cl
  00211	74 12		 je	 SHORT $LN113@operator@2
  00213	8a 48 01	 mov	 cl, BYTE PTR [eax+1]
  00216	3a 4e 01	 cmp	 cl, BYTE PTR [esi+1]
  00219	75 0e		 jne	 SHORT $LN112@operator@2
  0021b	83 c0 02	 add	 eax, 2
  0021e	83 c6 02	 add	 esi, 2
  00221	84 c9		 test	 cl, cl
  00223	75 e4		 jne	 SHORT $LL111@operator@2
$LN113@operator@2:
  00225	33 c0		 xor	 eax, eax
  00227	eb 05		 jmp	 SHORT $LN114@operator@2
$LN112@operator@2:
  00229	1b c0		 sbb	 eax, eax
  0022b	83 d8 ff	 sbb	 eax, -1
$LN114@operator@2:
  0022e	33 c9		 xor	 ecx, ecx
  00230	85 c0		 test	 eax, eax
  00232	0f 94 c0	 sete	 al

; 148  : }

  00235	8b 4d fc	 mov	 ecx, DWORD PTR __$ArrayPad$[ebp]
  00238	5f		 pop	 edi
  00239	33 cd		 xor	 ecx, ebp
  0023b	5e		 pop	 esi
  0023c	e8 00 00 00 00	 call	 @__security_check_cookie@4
  00241	c9		 leave
  00242	c3		 ret	 0
??$?8$0BC@@@YA_NABVioHashString@@AAY0BC@$$CBD@Z ENDP	; operator==<18>
_TEXT	ENDS
PUBLIC	__$ArrayPad$
PUBLIC	??$GetIntAttribute_e@$0N@@ioXMLElement@@QBEHAAY0N@$$CBD@Z ; ioXMLElement::GetIntAttribute_e<13>
EXTRN	__imp_?GetIntAttribute@ioXMLElement@@QBEHPBD@Z:PROC
; Function compile flags: /Ogsp
; File d:\lost saga for developer\youtube\tutorial\source\src\io3dengine\ioxmlelement.h
;	COMDAT ??$GetIntAttribute_e@$0N@@ioXMLElement@@QBEHAAY0N@$$CBD@Z
_TEXT	SEGMENT
__k$ = -24						; size = 13
__$ArrayPad$ = -4					; size = 4
_k$ = 8							; size = 4
??$GetIntAttribute_e@$0N@@ioXMLElement@@QBEHAAY0N@$$CBD@Z PROC ; ioXMLElement::GetIntAttribute_e<13>, COMDAT
; _this$ = ecx

; 86   : 	{

  00000	55		 push	 ebp
  00001	8b ec		 mov	 ebp, esp
  00003	83 ec 18	 sub	 esp, 24			; 00000018H
  00006	a1 00 00 00 00	 mov	 eax, DWORD PTR ___security_cookie
  0000b	33 c5		 xor	 eax, ebp
  0000d	89 45 fc	 mov	 DWORD PTR __$ArrayPad$[ebp], eax
  00010	8b 45 08	 mov	 eax, DWORD PTR _k$[ebp]

; 87   : 		_ENCSTR(k, _k);

  00013	8a 10		 mov	 dl, BYTE PTR [eax]
  00015	56		 push	 esi
  00016	8b f1		 mov	 esi, ecx
  00018	84 d2		 test	 dl, dl
  0001a	0f 84 4d 01 00
	00		 je	 $LN96@GetIntAttr
  00020	80 f2 ed	 xor	 dl, -19			; ffffffedH
  00023	88 55 e8	 mov	 BYTE PTR __k$[ebp], dl
  00026	8a 50 01	 mov	 dl, BYTE PTR [eax+1]
  00029	84 d2		 test	 dl, dl
  0002b	0f 84 36 01 00
	00		 je	 $LN95@GetIntAttr
  00031	b1 ec		 mov	 cl, -20			; ffffffecH
  00033	32 d1		 xor	 dl, cl
  00035	88 55 e9	 mov	 BYTE PTR __k$[ebp+1], dl
  00038	8a 50 02	 mov	 dl, BYTE PTR [eax+2]
  0003b	84 d2		 test	 dl, dl
  0003d	0f 84 1e 01 00
	00		 je	 $LN94@GetIntAttr
  00043	80 f2 eb	 xor	 dl, -21			; ffffffebH
  00046	88 55 ea	 mov	 BYTE PTR __k$[ebp+2], dl
  00049	8a 50 03	 mov	 dl, BYTE PTR [eax+3]
  0004c	84 d2		 test	 dl, dl
  0004e	0f 84 07 01 00
	00		 je	 $LN93@GetIntAttr
  00054	80 f2 ea	 xor	 dl, -22			; ffffffeaH
  00057	88 55 eb	 mov	 BYTE PTR __k$[ebp+3], dl
  0005a	8a 50 04	 mov	 dl, BYTE PTR [eax+4]
  0005d	84 d2		 test	 dl, dl
  0005f	0f 84 f0 00 00
	00		 je	 $LN92@GetIntAttr
  00065	80 f2 ed	 xor	 dl, -19			; ffffffedH
  00068	88 55 ec	 mov	 BYTE PTR __k$[ebp+4], dl
  0006b	8a 50 05	 mov	 dl, BYTE PTR [eax+5]
  0006e	84 d2		 test	 dl, dl
  00070	0f 84 da 00 00
	00		 je	 $LN91@GetIntAttr
  00076	32 d1		 xor	 dl, cl
  00078	88 55 ed	 mov	 BYTE PTR __k$[ebp+5], dl
  0007b	8a 50 06	 mov	 dl, BYTE PTR [eax+6]
  0007e	84 d2		 test	 dl, dl
  00080	0f 84 c4 00 00
	00		 je	 $LN90@GetIntAttr
  00086	80 f2 eb	 xor	 dl, -21			; ffffffebH
  00089	88 55 ee	 mov	 BYTE PTR __k$[ebp+6], dl
  0008c	8a 50 07	 mov	 dl, BYTE PTR [eax+7]
  0008f	84 d2		 test	 dl, dl
  00091	0f 84 ad 00 00
	00		 je	 $LN89@GetIntAttr
  00097	80 f2 ea	 xor	 dl, -22			; ffffffeaH
  0009a	88 55 ef	 mov	 BYTE PTR __k$[ebp+7], dl
  0009d	8a 50 08	 mov	 dl, BYTE PTR [eax+8]
  000a0	84 d2		 test	 dl, dl
  000a2	0f 84 96 00 00
	00		 je	 $LN88@GetIntAttr
  000a8	80 f2 ed	 xor	 dl, -19			; ffffffedH
  000ab	88 55 f0	 mov	 BYTE PTR __k$[ebp+8], dl
  000ae	8a 50 09	 mov	 dl, BYTE PTR [eax+9]
  000b1	84 d2		 test	 dl, dl
  000b3	0f 84 80 00 00
	00		 je	 $LN87@GetIntAttr
  000b9	32 d1		 xor	 dl, cl
  000bb	88 55 f1	 mov	 BYTE PTR __k$[ebp+9], dl
  000be	8a 50 0a	 mov	 dl, BYTE PTR [eax+10]
  000c1	84 d2		 test	 dl, dl
  000c3	74 6e		 je	 SHORT $LN86@GetIntAttr
  000c5	80 f2 eb	 xor	 dl, -21			; ffffffebH
  000c8	88 55 f2	 mov	 BYTE PTR __k$[ebp+10], dl
  000cb	8a 50 0b	 mov	 dl, BYTE PTR [eax+11]
  000ce	84 d2		 test	 dl, dl
  000d0	74 5b		 je	 SHORT $LN85@GetIntAttr
  000d2	80 f2 ea	 xor	 dl, -22			; ffffffeaH
  000d5	80 78 0c 00	 cmp	 BYTE PTR [eax+12], 0
  000d9	88 55 f3	 mov	 BYTE PTR __k$[ebp+11], dl
  000dc	0f 84 8f 00 00
	00		 je	 $LN1@GetIntAttr
  000e2	8a 50 0d	 mov	 dl, BYTE PTR [eax+13]
  000e5	84 d2		 test	 dl, dl
  000e7	74 3f		 je	 SHORT $LN83@GetIntAttr
  000e9	32 d1		 xor	 dl, cl
  000eb	88 55 f5	 mov	 BYTE PTR __k$[ebp+13], dl
  000ee	8a 50 0e	 mov	 dl, BYTE PTR [eax+14]
  000f1	84 d2		 test	 dl, dl
  000f3	74 2d		 je	 SHORT $LN82@GetIntAttr
  000f5	80 f2 eb	 xor	 dl, -21			; ffffffebH
  000f8	88 55 f6	 mov	 BYTE PTR __k$[ebp+14], dl
  000fb	8a 50 0f	 mov	 dl, BYTE PTR [eax+15]
  000fe	84 d2		 test	 dl, dl
  00100	74 1a		 je	 SHORT $LN81@GetIntAttr
  00102	8a 40 10	 mov	 al, BYTE PTR [eax+16]
  00105	80 f2 ea	 xor	 dl, -22			; ffffffeaH
  00108	88 55 f7	 mov	 BYTE PTR __k$[ebp+15], dl
  0010b	84 c0		 test	 al, al
  0010d	74 07		 je	 SHORT $LN80@GetIntAttr
  0010f	34 ed		 xor	 al, -19			; ffffffedH
  00111	88 45 f8	 mov	 BYTE PTR __k$[ebp+16], al
  00114	eb 5b		 jmp	 SHORT $LN1@GetIntAttr
$LN80@GetIntAttr:
  00116	c6 45 f8 ed	 mov	 BYTE PTR __k$[ebp+16], -19 ; ffffffedH
  0011a	eb 55		 jmp	 SHORT $LN1@GetIntAttr
$LN81@GetIntAttr:
  0011c	c6 45 f7 ea	 mov	 BYTE PTR __k$[ebp+15], -22 ; ffffffeaH
  00120	eb 4f		 jmp	 SHORT $LN1@GetIntAttr
$LN82@GetIntAttr:
  00122	c6 45 f6 eb	 mov	 BYTE PTR __k$[ebp+14], -21 ; ffffffebH
  00126	eb 49		 jmp	 SHORT $LN1@GetIntAttr
$LN83@GetIntAttr:
  00128	88 4d f5	 mov	 BYTE PTR __k$[ebp+13], cl
  0012b	eb 44		 jmp	 SHORT $LN1@GetIntAttr
$LN85@GetIntAttr:
  0012d	c6 45 f3 ea	 mov	 BYTE PTR __k$[ebp+11], -22 ; ffffffeaH
  00131	eb 3e		 jmp	 SHORT $LN1@GetIntAttr
$LN86@GetIntAttr:
  00133	c6 45 f2 eb	 mov	 BYTE PTR __k$[ebp+10], -21 ; ffffffebH
  00137	eb 38		 jmp	 SHORT $LN1@GetIntAttr
$LN87@GetIntAttr:
  00139	88 4d f1	 mov	 BYTE PTR __k$[ebp+9], cl
  0013c	eb 33		 jmp	 SHORT $LN1@GetIntAttr
$LN88@GetIntAttr:
  0013e	c6 45 f0 ed	 mov	 BYTE PTR __k$[ebp+8], -19 ; ffffffedH
  00142	eb 2d		 jmp	 SHORT $LN1@GetIntAttr
$LN89@GetIntAttr:
  00144	c6 45 ef ea	 mov	 BYTE PTR __k$[ebp+7], -22 ; ffffffeaH
  00148	eb 27		 jmp	 SHORT $LN1@GetIntAttr
$LN90@GetIntAttr:
  0014a	c6 45 ee eb	 mov	 BYTE PTR __k$[ebp+6], -21 ; ffffffebH
  0014e	eb 21		 jmp	 SHORT $LN1@GetIntAttr
$LN91@GetIntAttr:
  00150	88 4d ed	 mov	 BYTE PTR __k$[ebp+5], cl
  00153	eb 1c		 jmp	 SHORT $LN1@GetIntAttr
$LN92@GetIntAttr:
  00155	c6 45 ec ed	 mov	 BYTE PTR __k$[ebp+4], -19 ; ffffffedH
  00159	eb 16		 jmp	 SHORT $LN1@GetIntAttr
$LN93@GetIntAttr:
  0015b	c6 45 eb ea	 mov	 BYTE PTR __k$[ebp+3], -22 ; ffffffeaH
  0015f	eb 10		 jmp	 SHORT $LN1@GetIntAttr
$LN94@GetIntAttr:
  00161	c6 45 ea eb	 mov	 BYTE PTR __k$[ebp+2], -21 ; ffffffebH
  00165	eb 0a		 jmp	 SHORT $LN1@GetIntAttr
$LN95@GetIntAttr:
  00167	c6 45 e9 ec	 mov	 BYTE PTR __k$[ebp+1], -20 ; ffffffecH
  0016b	eb 04		 jmp	 SHORT $LN1@GetIntAttr
$LN96@GetIntAttr:
  0016d	c6 45 e8 ed	 mov	 BYTE PTR __k$[ebp], -19	; ffffffedH
$LN1@GetIntAttr:
  00171	6a 03		 push	 3
  00173	8d 45 e8	 lea	 eax, DWORD PTR __k$[ebp]
  00176	c6 45 f4 00	 mov	 BYTE PTR __k$[ebp+12], 0
  0017a	5a		 pop	 edx
$LL104@GetIntAttr:
  0017b	81 30 ed ec eb
	ea		 xor	 DWORD PTR [eax], -353637139 ; eaebecedH
  00181	83 c0 04	 add	 eax, 4
  00184	4a		 dec	 edx
  00185	75 f4		 jne	 SHORT $LL104@GetIntAttr

; 88   : 		return GetIntAttribute(_k);

  00187	8d 45 e8	 lea	 eax, DWORD PTR __k$[ebp]
  0018a	50		 push	 eax
  0018b	8b ce		 mov	 ecx, esi
  0018d	ff 15 00 00 00
	00		 call	 DWORD PTR __imp_?GetIntAttribute@ioXMLElement@@QBEHPBD@Z

; 89   : 	}

  00193	8b 4d fc	 mov	 ecx, DWORD PTR __$ArrayPad$[ebp]
  00196	33 cd		 xor	 ecx, ebp
  00198	5e		 pop	 esi
  00199	e8 00 00 00 00	 call	 @__security_check_cookie@4
  0019e	c9		 leave
  0019f	c2 04 00	 ret	 4
??$GetIntAttribute_e@$0N@@ioXMLElement@@QBEHAAY0N@$$CBD@Z ENDP ; ioXMLElement::GetIntAttribute_e<13>
_TEXT	ENDS
PUBLIC	__$ArrayPad$
PUBLIC	??$GetIntAttribute_e@$0BD@@ioXMLElement@@QBEHAAY0BD@$$CBD@Z ; ioXMLElement::GetIntAttribute_e<19>
; Function compile flags: /Ogsp
;	COMDAT ??$GetIntAttribute_e@$0BD@@ioXMLElement@@QBEHAAY0BD@$$CBD@Z
_TEXT	SEGMENT
__k$ = -28						; size = 19
__$ArrayPad$ = -4					; size = 4
_k$ = 8							; size = 4
??$GetIntAttribute_e@$0BD@@ioXMLElement@@QBEHAAY0BD@$$CBD@Z PROC ; ioXMLElement::GetIntAttribute_e<19>, COMDAT
; _this$ = ecx

; 86   : 	{

  00000	55		 push	 ebp
  00001	8b ec		 mov	 ebp, esp
  00003	83 ec 1c	 sub	 esp, 28			; 0000001cH
  00006	a1 00 00 00 00	 mov	 eax, DWORD PTR ___security_cookie
  0000b	33 c5		 xor	 eax, ebp
  0000d	89 45 fc	 mov	 DWORD PTR __$ArrayPad$[ebp], eax
  00010	8b 45 08	 mov	 eax, DWORD PTR _k$[ebp]

; 87   : 		_ENCSTR(k, _k);

  00013	8a 10		 mov	 dl, BYTE PTR [eax]
  00015	56		 push	 esi
  00016	8b f1		 mov	 esi, ecx
  00018	84 d2		 test	 dl, dl
  0001a	0f 84 cf 01 00
	00		 je	 $LN96@GetIntAttr@2
  00020	80 f2 ed	 xor	 dl, -19			; ffffffedH
  00023	88 55 e4	 mov	 BYTE PTR __k$[ebp], dl
  00026	8a 50 01	 mov	 dl, BYTE PTR [eax+1]
  00029	84 d2		 test	 dl, dl
  0002b	0f 84 b8 01 00
	00		 je	 $LN95@GetIntAttr@2
  00031	b1 ec		 mov	 cl, -20			; ffffffecH
  00033	32 d1		 xor	 dl, cl
  00035	88 55 e5	 mov	 BYTE PTR __k$[ebp+1], dl
  00038	8a 50 02	 mov	 dl, BYTE PTR [eax+2]
  0003b	84 d2		 test	 dl, dl
  0003d	0f 84 a0 01 00
	00		 je	 $LN94@GetIntAttr@2
  00043	80 f2 eb	 xor	 dl, -21			; ffffffebH
  00046	88 55 e6	 mov	 BYTE PTR __k$[ebp+2], dl
  00049	8a 50 03	 mov	 dl, BYTE PTR [eax+3]
  0004c	84 d2		 test	 dl, dl
  0004e	0f 84 89 01 00
	00		 je	 $LN93@GetIntAttr@2
  00054	80 f2 ea	 xor	 dl, -22			; ffffffeaH
  00057	88 55 e7	 mov	 BYTE PTR __k$[ebp+3], dl
  0005a	8a 50 04	 mov	 dl, BYTE PTR [eax+4]
  0005d	84 d2		 test	 dl, dl
  0005f	0f 84 72 01 00
	00		 je	 $LN92@GetIntAttr@2
  00065	80 f2 ed	 xor	 dl, -19			; ffffffedH
  00068	88 55 e8	 mov	 BYTE PTR __k$[ebp+4], dl
  0006b	8a 50 05	 mov	 dl, BYTE PTR [eax+5]
  0006e	84 d2		 test	 dl, dl
  00070	0f 84 5c 01 00
	00		 je	 $LN91@GetIntAttr@2
  00076	32 d1		 xor	 dl, cl
  00078	88 55 e9	 mov	 BYTE PTR __k$[ebp+5], dl
  0007b	8a 50 06	 mov	 dl, BYTE PTR [eax+6]
  0007e	84 d2		 test	 dl, dl
  00080	0f 84 46 01 00
	00		 je	 $LN90@GetIntAttr@2
  00086	80 f2 eb	 xor	 dl, -21			; ffffffebH
  00089	88 55 ea	 mov	 BYTE PTR __k$[ebp+6], dl
  0008c	8a 50 07	 mov	 dl, BYTE PTR [eax+7]
  0008f	84 d2		 test	 dl, dl
  00091	0f 84 2f 01 00
	00		 je	 $LN89@GetIntAttr@2
  00097	80 f2 ea	 xor	 dl, -22			; ffffffeaH
  0009a	88 55 eb	 mov	 BYTE PTR __k$[ebp+7], dl
  0009d	8a 50 08	 mov	 dl, BYTE PTR [eax+8]
  000a0	84 d2		 test	 dl, dl
  000a2	0f 84 18 01 00
	00		 je	 $LN88@GetIntAttr@2
  000a8	80 f2 ed	 xor	 dl, -19			; ffffffedH
  000ab	88 55 ec	 mov	 BYTE PTR __k$[ebp+8], dl
  000ae	8a 50 09	 mov	 dl, BYTE PTR [eax+9]
  000b1	84 d2		 test	 dl, dl
  000b3	0f 84 02 01 00
	00		 je	 $LN87@GetIntAttr@2
  000b9	32 d1		 xor	 dl, cl
  000bb	88 55 ed	 mov	 BYTE PTR __k$[ebp+9], dl
  000be	8a 50 0a	 mov	 dl, BYTE PTR [eax+10]
  000c1	84 d2		 test	 dl, dl
  000c3	0f 84 ec 00 00
	00		 je	 $LN86@GetIntAttr@2
  000c9	80 f2 eb	 xor	 dl, -21			; ffffffebH
  000cc	88 55 ee	 mov	 BYTE PTR __k$[ebp+10], dl
  000cf	8a 50 0b	 mov	 dl, BYTE PTR [eax+11]
  000d2	84 d2		 test	 dl, dl
  000d4	0f 84 d5 00 00
	00		 je	 $LN85@GetIntAttr@2
  000da	80 f2 ea	 xor	 dl, -22			; ffffffeaH
  000dd	88 55 ef	 mov	 BYTE PTR __k$[ebp+11], dl
  000e0	8a 50 0c	 mov	 dl, BYTE PTR [eax+12]
  000e3	84 d2		 test	 dl, dl
  000e5	0f 84 be 00 00
	00		 je	 $LN84@GetIntAttr@2
  000eb	80 f2 ed	 xor	 dl, -19			; ffffffedH
  000ee	88 55 f0	 mov	 BYTE PTR __k$[ebp+12], dl
  000f1	8a 50 0d	 mov	 dl, BYTE PTR [eax+13]
  000f4	84 d2		 test	 dl, dl
  000f6	0f 84 a8 00 00
	00		 je	 $LN83@GetIntAttr@2
  000fc	32 d1		 xor	 dl, cl
  000fe	88 55 f1	 mov	 BYTE PTR __k$[ebp+13], dl
  00101	8a 50 0e	 mov	 dl, BYTE PTR [eax+14]
  00104	84 d2		 test	 dl, dl
  00106	0f 84 92 00 00
	00		 je	 $LN82@GetIntAttr@2
  0010c	80 f2 eb	 xor	 dl, -21			; ffffffebH
  0010f	88 55 f2	 mov	 BYTE PTR __k$[ebp+14], dl
  00112	8a 50 0f	 mov	 dl, BYTE PTR [eax+15]
  00115	84 d2		 test	 dl, dl
  00117	74 7f		 je	 SHORT $LN81@GetIntAttr@2
  00119	80 f2 ea	 xor	 dl, -22			; ffffffeaH
  0011c	88 55 f3	 mov	 BYTE PTR __k$[ebp+15], dl
  0011f	8a 50 10	 mov	 dl, BYTE PTR [eax+16]
  00122	84 d2		 test	 dl, dl
  00124	74 6c		 je	 SHORT $LN80@GetIntAttr@2
  00126	80 f2 ed	 xor	 dl, -19			; ffffffedH
  00129	88 55 f4	 mov	 BYTE PTR __k$[ebp+16], dl
  0012c	8a 50 11	 mov	 dl, BYTE PTR [eax+17]
  0012f	84 d2		 test	 dl, dl
  00131	74 5a		 je	 SHORT $LN79@GetIntAttr@2
  00133	32 d1		 xor	 dl, cl
  00135	80 78 12 00	 cmp	 BYTE PTR [eax+18], 0
  00139	88 55 f5	 mov	 BYTE PTR __k$[ebp+17], dl
  0013c	0f 84 b1 00 00
	00		 je	 $LN1@GetIntAttr@2
  00142	8a 50 13	 mov	 dl, BYTE PTR [eax+19]
  00145	84 d2		 test	 dl, dl
  00147	74 3e		 je	 SHORT $LN77@GetIntAttr@2
  00149	80 f2 ea	 xor	 dl, -22			; ffffffeaH
  0014c	88 55 f7	 mov	 BYTE PTR __k$[ebp+19], dl
  0014f	8a 50 14	 mov	 dl, BYTE PTR [eax+20]
  00152	84 d2		 test	 dl, dl
  00154	74 2b		 je	 SHORT $LN76@GetIntAttr@2
  00156	80 f2 ed	 xor	 dl, -19			; ffffffedH
  00159	88 55 f8	 mov	 BYTE PTR __k$[ebp+20], dl
  0015c	8a 50 15	 mov	 dl, BYTE PTR [eax+21]
  0015f	84 d2		 test	 dl, dl
  00161	74 19		 je	 SHORT $LN75@GetIntAttr@2
  00163	8a 40 16	 mov	 al, BYTE PTR [eax+22]
  00166	32 d1		 xor	 dl, cl
  00168	88 55 f9	 mov	 BYTE PTR __k$[ebp+21], dl
  0016b	84 c0		 test	 al, al
  0016d	74 07		 je	 SHORT $LN74@GetIntAttr@2
  0016f	34 eb		 xor	 al, -21			; ffffffebH
  00171	88 45 fa	 mov	 BYTE PTR __k$[ebp+22], al
  00174	eb 7d		 jmp	 SHORT $LN1@GetIntAttr@2
$LN74@GetIntAttr@2:
  00176	c6 45 fa eb	 mov	 BYTE PTR __k$[ebp+22], -21 ; ffffffebH
  0017a	eb 77		 jmp	 SHORT $LN1@GetIntAttr@2
$LN75@GetIntAttr@2:
  0017c	88 4d f9	 mov	 BYTE PTR __k$[ebp+21], cl
  0017f	eb 72		 jmp	 SHORT $LN1@GetIntAttr@2
$LN76@GetIntAttr@2:
  00181	c6 45 f8 ed	 mov	 BYTE PTR __k$[ebp+20], -19 ; ffffffedH
  00185	eb 6c		 jmp	 SHORT $LN1@GetIntAttr@2
$LN77@GetIntAttr@2:
  00187	c6 45 f7 ea	 mov	 BYTE PTR __k$[ebp+19], -22 ; ffffffeaH
  0018b	eb 66		 jmp	 SHORT $LN1@GetIntAttr@2
$LN79@GetIntAttr@2:
  0018d	88 4d f5	 mov	 BYTE PTR __k$[ebp+17], cl
  00190	eb 61		 jmp	 SHORT $LN1@GetIntAttr@2
$LN80@GetIntAttr@2:
  00192	c6 45 f4 ed	 mov	 BYTE PTR __k$[ebp+16], -19 ; ffffffedH
  00196	eb 5b		 jmp	 SHORT $LN1@GetIntAttr@2
$LN81@GetIntAttr@2:
  00198	c6 45 f3 ea	 mov	 BYTE PTR __k$[ebp+15], -22 ; ffffffeaH
  0019c	eb 55		 jmp	 SHORT $LN1@GetIntAttr@2
$LN82@GetIntAttr@2:
  0019e	c6 45 f2 eb	 mov	 BYTE PTR __k$[ebp+14], -21 ; ffffffebH
  001a2	eb 4f		 jmp	 SHORT $LN1@GetIntAttr@2
$LN83@GetIntAttr@2:
  001a4	88 4d f1	 mov	 BYTE PTR __k$[ebp+13], cl
  001a7	eb 4a		 jmp	 SHORT $LN1@GetIntAttr@2
$LN84@GetIntAttr@2:
  001a9	c6 45 f0 ed	 mov	 BYTE PTR __k$[ebp+12], -19 ; ffffffedH
  001ad	eb 44		 jmp	 SHORT $LN1@GetIntAttr@2
$LN85@GetIntAttr@2:
  001af	c6 45 ef ea	 mov	 BYTE PTR __k$[ebp+11], -22 ; ffffffeaH
  001b3	eb 3e		 jmp	 SHORT $LN1@GetIntAttr@2
$LN86@GetIntAttr@2:
  001b5	c6 45 ee eb	 mov	 BYTE PTR __k$[ebp+10], -21 ; ffffffebH
  001b9	eb 38		 jmp	 SHORT $LN1@GetIntAttr@2
$LN87@GetIntAttr@2:
  001bb	88 4d ed	 mov	 BYTE PTR __k$[ebp+9], cl
  001be	eb 33		 jmp	 SHORT $LN1@GetIntAttr@2
$LN88@GetIntAttr@2:
  001c0	c6 45 ec ed	 mov	 BYTE PTR __k$[ebp+8], -19 ; ffffffedH
  001c4	eb 2d		 jmp	 SHORT $LN1@GetIntAttr@2
$LN89@GetIntAttr@2:
  001c6	c6 45 eb ea	 mov	 BYTE PTR __k$[ebp+7], -22 ; ffffffeaH
  001ca	eb 27		 jmp	 SHORT $LN1@GetIntAttr@2
$LN90@GetIntAttr@2:
  001cc	c6 45 ea eb	 mov	 BYTE PTR __k$[ebp+6], -21 ; ffffffebH
  001d0	eb 21		 jmp	 SHORT $LN1@GetIntAttr@2
$LN91@GetIntAttr@2:
  001d2	88 4d e9	 mov	 BYTE PTR __k$[ebp+5], cl
  001d5	eb 1c		 jmp	 SHORT $LN1@GetIntAttr@2
$LN92@GetIntAttr@2:
  001d7	c6 45 e8 ed	 mov	 BYTE PTR __k$[ebp+4], -19 ; ffffffedH
  001db	eb 16		 jmp	 SHORT $LN1@GetIntAttr@2
$LN93@GetIntAttr@2:
  001dd	c6 45 e7 ea	 mov	 BYTE PTR __k$[ebp+3], -22 ; ffffffeaH
  001e1	eb 10		 jmp	 SHORT $LN1@GetIntAttr@2
$LN94@GetIntAttr@2:
  001e3	c6 45 e6 eb	 mov	 BYTE PTR __k$[ebp+2], -21 ; ffffffebH
  001e7	eb 0a		 jmp	 SHORT $LN1@GetIntAttr@2
$LN95@GetIntAttr@2:
  001e9	c6 45 e5 ec	 mov	 BYTE PTR __k$[ebp+1], -20 ; ffffffecH
  001ed	eb 04		 jmp	 SHORT $LN1@GetIntAttr@2
$LN96@GetIntAttr@2:
  001ef	c6 45 e4 ed	 mov	 BYTE PTR __k$[ebp], -19	; ffffffedH
$LN1@GetIntAttr@2:
  001f3	6a 04		 push	 4
  001f5	8d 45 e4	 lea	 eax, DWORD PTR __k$[ebp]
  001f8	c6 45 f6 00	 mov	 BYTE PTR __k$[ebp+18], 0
  001fc	5a		 pop	 edx
$LL104@GetIntAttr@2:
  001fd	81 30 ed ec eb
	ea		 xor	 DWORD PTR [eax], -353637139 ; eaebecedH
  00203	83 c0 04	 add	 eax, 4
  00206	4a		 dec	 edx
  00207	75 f4		 jne	 SHORT $LL104@GetIntAttr@2
  00209	6a 10		 push	 16			; 00000010H
  0020b	58		 pop	 eax
$LL101@GetIntAttr@2:
  0020c	8b c8		 mov	 ecx, eax
  0020e	81 e1 03 00 00
	80		 and	 ecx, -2147483645	; 80000003H
  00214	79 05		 jns	 SHORT $LN111@GetIntAttr@2
  00216	49		 dec	 ecx
  00217	83 c9 fc	 or	 ecx, -4			; fffffffcH
  0021a	41		 inc	 ecx
$LN111@GetIntAttr@2:
  0021b	b2 ed		 mov	 dl, -19			; ffffffedH
  0021d	2a d1		 sub	 dl, cl
  0021f	30 54 05 e4	 xor	 BYTE PTR __k$[ebp+eax], dl
  00223	40		 inc	 eax
  00224	83 f8 12	 cmp	 eax, 18			; 00000012H
  00227	7c e3		 jl	 SHORT $LL101@GetIntAttr@2

; 88   : 		return GetIntAttribute(_k);

  00229	8d 45 e4	 lea	 eax, DWORD PTR __k$[ebp]
  0022c	50		 push	 eax
  0022d	8b ce		 mov	 ecx, esi
  0022f	ff 15 00 00 00
	00		 call	 DWORD PTR __imp_?GetIntAttribute@ioXMLElement@@QBEHPBD@Z

; 89   : 	}

  00235	8b 4d fc	 mov	 ecx, DWORD PTR __$ArrayPad$[ebp]
  00238	33 cd		 xor	 ecx, ebp
  0023a	5e		 pop	 esi
  0023b	e8 00 00 00 00	 call	 @__security_check_cookie@4
  00240	c9		 leave
  00241	c2 04 00	 ret	 4
??$GetIntAttribute_e@$0BD@@ioXMLElement@@QBEHAAY0BD@$$CBD@Z ENDP ; ioXMLElement::GetIntAttribute_e<19>
_TEXT	ENDS
PUBLIC	__$ArrayPad$
PUBLIC	??$GetFloatAttribute_e@$0L@@ioXMLElement@@QBEMAAY0L@$$CBD@Z ; ioXMLElement::GetFloatAttribute_e<11>
EXTRN	__imp_?GetFloatAttribute@ioXMLElement@@QBEMPBD@Z:PROC
; Function compile flags: /Ogsp
;	COMDAT ??$GetFloatAttribute_e@$0L@@ioXMLElement@@QBEMAAY0L@$$CBD@Z
_TEXT	SEGMENT
__k$ = -20						; size = 11
__$ArrayPad$ = -4					; size = 4
_k$ = 8							; size = 4
??$GetFloatAttribute_e@$0L@@ioXMLElement@@QBEMAAY0L@$$CBD@Z PROC ; ioXMLElement::GetFloatAttribute_e<11>, COMDAT
; _this$ = ecx

; 100  : 	{

  00000	55		 push	 ebp
  00001	8b ec		 mov	 ebp, esp
  00003	83 ec 14	 sub	 esp, 20			; 00000014H
  00006	a1 00 00 00 00	 mov	 eax, DWORD PTR ___security_cookie
  0000b	33 c5		 xor	 eax, ebp
  0000d	89 45 fc	 mov	 DWORD PTR __$ArrayPad$[ebp], eax
  00010	8b 45 08	 mov	 eax, DWORD PTR _k$[ebp]

; 101  : 		_ENCSTR(k, _k);

  00013	8a 10		 mov	 dl, BYTE PTR [eax]
  00015	56		 push	 esi
  00016	8b f1		 mov	 esi, ecx
  00018	84 d2		 test	 dl, dl
  0001a	0f 84 24 01 00
	00		 je	 $LN96@GetFloatAt
  00020	80 f2 ed	 xor	 dl, -19			; ffffffedH
  00023	88 55 ec	 mov	 BYTE PTR __k$[ebp], dl
  00026	8a 50 01	 mov	 dl, BYTE PTR [eax+1]
  00029	84 d2		 test	 dl, dl
  0002b	0f 84 0d 01 00
	00		 je	 $LN95@GetFloatAt
  00031	80 f2 ec	 xor	 dl, -20			; ffffffecH
  00034	88 55 ed	 mov	 BYTE PTR __k$[ebp+1], dl
  00037	8a 50 02	 mov	 dl, BYTE PTR [eax+2]
  0003a	84 d2		 test	 dl, dl
  0003c	0f 84 f6 00 00
	00		 je	 $LN94@GetFloatAt
  00042	80 f2 eb	 xor	 dl, -21			; ffffffebH
  00045	88 55 ee	 mov	 BYTE PTR __k$[ebp+2], dl
  00048	8a 50 03	 mov	 dl, BYTE PTR [eax+3]
  0004b	84 d2		 test	 dl, dl
  0004d	0f 84 df 00 00
	00		 je	 $LN93@GetFloatAt
  00053	80 f2 ea	 xor	 dl, -22			; ffffffeaH
  00056	88 55 ef	 mov	 BYTE PTR __k$[ebp+3], dl
  00059	8a 50 04	 mov	 dl, BYTE PTR [eax+4]
  0005c	84 d2		 test	 dl, dl
  0005e	0f 84 c8 00 00
	00		 je	 $LN92@GetFloatAt
  00064	80 f2 ed	 xor	 dl, -19			; ffffffedH
  00067	88 55 f0	 mov	 BYTE PTR __k$[ebp+4], dl
  0006a	8a 50 05	 mov	 dl, BYTE PTR [eax+5]
  0006d	84 d2		 test	 dl, dl
  0006f	0f 84 b1 00 00
	00		 je	 $LN91@GetFloatAt
  00075	80 f2 ec	 xor	 dl, -20			; ffffffecH
  00078	88 55 f1	 mov	 BYTE PTR __k$[ebp+5], dl
  0007b	8a 50 06	 mov	 dl, BYTE PTR [eax+6]
  0007e	84 d2		 test	 dl, dl
  00080	0f 84 9a 00 00
	00		 je	 $LN90@GetFloatAt
  00086	80 f2 eb	 xor	 dl, -21			; ffffffebH
  00089	88 55 f2	 mov	 BYTE PTR __k$[ebp+6], dl
  0008c	8a 50 07	 mov	 dl, BYTE PTR [eax+7]
  0008f	84 d2		 test	 dl, dl
  00091	0f 84 83 00 00
	00		 je	 $LN89@GetFloatAt
  00097	80 f2 ea	 xor	 dl, -22			; ffffffeaH
  0009a	88 55 f3	 mov	 BYTE PTR __k$[ebp+7], dl
  0009d	8a 50 08	 mov	 dl, BYTE PTR [eax+8]
  000a0	84 d2		 test	 dl, dl
  000a2	74 70		 je	 SHORT $LN88@GetFloatAt
  000a4	80 f2 ed	 xor	 dl, -19			; ffffffedH
  000a7	88 55 f4	 mov	 BYTE PTR __k$[ebp+8], dl
  000aa	8a 50 09	 mov	 dl, BYTE PTR [eax+9]
  000ad	84 d2		 test	 dl, dl
  000af	74 5d		 je	 SHORT $LN87@GetFloatAt
  000b1	80 f2 ec	 xor	 dl, -20			; ffffffecH
  000b4	80 78 0a 00	 cmp	 BYTE PTR [eax+10], 0
  000b8	88 55 f5	 mov	 BYTE PTR __k$[ebp+9], dl
  000bb	0f 84 87 00 00
	00		 je	 $LN1@GetFloatAt
  000c1	8a 50 0b	 mov	 dl, BYTE PTR [eax+11]
  000c4	84 d2		 test	 dl, dl
  000c6	74 40		 je	 SHORT $LN85@GetFloatAt
  000c8	80 f2 ea	 xor	 dl, -22			; ffffffeaH
  000cb	88 55 f7	 mov	 BYTE PTR __k$[ebp+11], dl
  000ce	8a 50 0c	 mov	 dl, BYTE PTR [eax+12]
  000d1	84 d2		 test	 dl, dl
  000d3	74 2d		 je	 SHORT $LN84@GetFloatAt
  000d5	80 f2 ed	 xor	 dl, -19			; ffffffedH
  000d8	88 55 f8	 mov	 BYTE PTR __k$[ebp+12], dl
  000db	8a 50 0d	 mov	 dl, BYTE PTR [eax+13]
  000de	84 d2		 test	 dl, dl
  000e0	74 1a		 je	 SHORT $LN83@GetFloatAt
  000e2	8a 40 0e	 mov	 al, BYTE PTR [eax+14]
  000e5	80 f2 ec	 xor	 dl, -20			; ffffffecH
  000e8	88 55 f9	 mov	 BYTE PTR __k$[ebp+13], dl
  000eb	84 c0		 test	 al, al
  000ed	74 07		 je	 SHORT $LN82@GetFloatAt
  000ef	34 eb		 xor	 al, -21			; ffffffebH
  000f1	88 45 fa	 mov	 BYTE PTR __k$[ebp+14], al
  000f4	eb 52		 jmp	 SHORT $LN1@GetFloatAt
$LN82@GetFloatAt:
  000f6	c6 45 fa eb	 mov	 BYTE PTR __k$[ebp+14], -21 ; ffffffebH
  000fa	eb 4c		 jmp	 SHORT $LN1@GetFloatAt
$LN83@GetFloatAt:
  000fc	c6 45 f9 ec	 mov	 BYTE PTR __k$[ebp+13], -20 ; ffffffecH
  00100	eb 46		 jmp	 SHORT $LN1@GetFloatAt
$LN84@GetFloatAt:
  00102	c6 45 f8 ed	 mov	 BYTE PTR __k$[ebp+12], -19 ; ffffffedH
  00106	eb 40		 jmp	 SHORT $LN1@GetFloatAt
$LN85@GetFloatAt:
  00108	c6 45 f7 ea	 mov	 BYTE PTR __k$[ebp+11], -22 ; ffffffeaH
  0010c	eb 3a		 jmp	 SHORT $LN1@GetFloatAt
$LN87@GetFloatAt:
  0010e	c6 45 f5 ec	 mov	 BYTE PTR __k$[ebp+9], -20 ; ffffffecH
  00112	eb 34		 jmp	 SHORT $LN1@GetFloatAt
$LN88@GetFloatAt:
  00114	c6 45 f4 ed	 mov	 BYTE PTR __k$[ebp+8], -19 ; ffffffedH
  00118	eb 2e		 jmp	 SHORT $LN1@GetFloatAt
$LN89@GetFloatAt:
  0011a	c6 45 f3 ea	 mov	 BYTE PTR __k$[ebp+7], -22 ; ffffffeaH
  0011e	eb 28		 jmp	 SHORT $LN1@GetFloatAt
$LN90@GetFloatAt:
  00120	c6 45 f2 eb	 mov	 BYTE PTR __k$[ebp+6], -21 ; ffffffebH
  00124	eb 22		 jmp	 SHORT $LN1@GetFloatAt
$LN91@GetFloatAt:
  00126	c6 45 f1 ec	 mov	 BYTE PTR __k$[ebp+5], -20 ; ffffffecH
  0012a	eb 1c		 jmp	 SHORT $LN1@GetFloatAt
$LN92@GetFloatAt:
  0012c	c6 45 f0 ed	 mov	 BYTE PTR __k$[ebp+4], -19 ; ffffffedH
  00130	eb 16		 jmp	 SHORT $LN1@GetFloatAt
$LN93@GetFloatAt:
  00132	c6 45 ef ea	 mov	 BYTE PTR __k$[ebp+3], -22 ; ffffffeaH
  00136	eb 10		 jmp	 SHORT $LN1@GetFloatAt
$LN94@GetFloatAt:
  00138	c6 45 ee eb	 mov	 BYTE PTR __k$[ebp+2], -21 ; ffffffebH
  0013c	eb 0a		 jmp	 SHORT $LN1@GetFloatAt
$LN95@GetFloatAt:
  0013e	c6 45 ed ec	 mov	 BYTE PTR __k$[ebp+1], -20 ; ffffffecH
  00142	eb 04		 jmp	 SHORT $LN1@GetFloatAt
$LN96@GetFloatAt:
  00144	c6 45 ec ed	 mov	 BYTE PTR __k$[ebp], -19	; ffffffedH
$LN1@GetFloatAt:
  00148	6a 02		 push	 2
  0014a	8d 45 ec	 lea	 eax, DWORD PTR __k$[ebp]
  0014d	c6 45 f6 00	 mov	 BYTE PTR __k$[ebp+10], 0
  00151	5a		 pop	 edx
$LL104@GetFloatAt:
  00152	81 30 ed ec eb
	ea		 xor	 DWORD PTR [eax], -353637139 ; eaebecedH
  00158	83 c0 04	 add	 eax, 4
  0015b	4a		 dec	 edx
  0015c	75 f4		 jne	 SHORT $LL104@GetFloatAt
  0015e	6a 08		 push	 8
  00160	58		 pop	 eax
$LL101@GetFloatAt:
  00161	8b c8		 mov	 ecx, eax
  00163	81 e1 03 00 00
	80		 and	 ecx, -2147483645	; 80000003H
  00169	79 05		 jns	 SHORT $LN111@GetFloatAt
  0016b	49		 dec	 ecx
  0016c	83 c9 fc	 or	 ecx, -4			; fffffffcH
  0016f	41		 inc	 ecx
$LN111@GetFloatAt:
  00170	b2 ed		 mov	 dl, -19			; ffffffedH
  00172	2a d1		 sub	 dl, cl
  00174	30 54 05 ec	 xor	 BYTE PTR __k$[ebp+eax], dl
  00178	40		 inc	 eax
  00179	83 f8 0a	 cmp	 eax, 10			; 0000000aH
  0017c	7c e3		 jl	 SHORT $LL101@GetFloatAt

; 102  : 		return GetFloatAttribute(_k);

  0017e	8d 45 ec	 lea	 eax, DWORD PTR __k$[ebp]
  00181	50		 push	 eax
  00182	8b ce		 mov	 ecx, esi
  00184	ff 15 00 00 00
	00		 call	 DWORD PTR __imp_?GetFloatAttribute@ioXMLElement@@QBEMPBD@Z

; 103  : 	}

  0018a	8b 4d fc	 mov	 ecx, DWORD PTR __$ArrayPad$[ebp]
  0018d	33 cd		 xor	 ecx, ebp
  0018f	5e		 pop	 esi
  00190	e8 00 00 00 00	 call	 @__security_check_cookie@4
  00195	c9		 leave
  00196	c2 04 00	 ret	 4
??$GetFloatAttribute_e@$0L@@ioXMLElement@@QBEMAAY0L@$$CBD@Z ENDP ; ioXMLElement::GetFloatAttribute_e<11>
_TEXT	ENDS
PUBLIC	__$ArrayPad$
PUBLIC	??$GetIntAttribute_e@$0BA@@ioXMLElement@@QBEHAAY0BA@$$CBD@Z ; ioXMLElement::GetIntAttribute_e<16>
; Function compile flags: /Ogsp
;	COMDAT ??$GetIntAttribute_e@$0BA@@ioXMLElement@@QBEHAAY0BA@$$CBD@Z
_TEXT	SEGMENT
__k$ = -24						; size = 16
__$ArrayPad$ = -4					; size = 4
_k$ = 8							; size = 4
??$GetIntAttribute_e@$0BA@@ioXMLElement@@QBEHAAY0BA@$$CBD@Z PROC ; ioXMLElement::GetIntAttribute_e<16>, COMDAT
; _this$ = ecx

; 86   : 	{

  00000	55		 push	 ebp
  00001	8b ec		 mov	 ebp, esp
  00003	83 ec 18	 sub	 esp, 24			; 00000018H
  00006	a1 00 00 00 00	 mov	 eax, DWORD PTR ___security_cookie
  0000b	33 c5		 xor	 eax, ebp
  0000d	89 45 fc	 mov	 DWORD PTR __$ArrayPad$[ebp], eax
  00010	8b 45 08	 mov	 eax, DWORD PTR _k$[ebp]

; 87   : 		_ENCSTR(k, _k);

  00013	8a 10		 mov	 dl, BYTE PTR [eax]
  00015	56		 push	 esi
  00016	8b f1		 mov	 esi, ecx
  00018	84 d2		 test	 dl, dl
  0001a	0f 84 8c 01 00
	00		 je	 $LN96@GetIntAttr@3
  00020	80 f2 ed	 xor	 dl, -19			; ffffffedH
  00023	88 55 e8	 mov	 BYTE PTR __k$[ebp], dl
  00026	8a 50 01	 mov	 dl, BYTE PTR [eax+1]
  00029	84 d2		 test	 dl, dl
  0002b	0f 84 75 01 00
	00		 je	 $LN95@GetIntAttr@3
  00031	80 f2 ec	 xor	 dl, -20			; ffffffecH
  00034	88 55 e9	 mov	 BYTE PTR __k$[ebp+1], dl
  00037	8a 50 02	 mov	 dl, BYTE PTR [eax+2]
  0003a	84 d2		 test	 dl, dl
  0003c	0f 84 5e 01 00
	00		 je	 $LN94@GetIntAttr@3
  00042	b1 eb		 mov	 cl, -21			; ffffffebH
  00044	32 d1		 xor	 dl, cl
  00046	88 55 ea	 mov	 BYTE PTR __k$[ebp+2], dl
  00049	8a 50 03	 mov	 dl, BYTE PTR [eax+3]
  0004c	84 d2		 test	 dl, dl
  0004e	0f 84 46 01 00
	00		 je	 $LN93@GetIntAttr@3
  00054	80 f2 ea	 xor	 dl, -22			; ffffffeaH
  00057	88 55 eb	 mov	 BYTE PTR __k$[ebp+3], dl
  0005a	8a 50 04	 mov	 dl, BYTE PTR [eax+4]
  0005d	84 d2		 test	 dl, dl
  0005f	0f 84 2f 01 00
	00		 je	 $LN92@GetIntAttr@3
  00065	80 f2 ed	 xor	 dl, -19			; ffffffedH
  00068	88 55 ec	 mov	 BYTE PTR __k$[ebp+4], dl
  0006b	8a 50 05	 mov	 dl, BYTE PTR [eax+5]
  0006e	84 d2		 test	 dl, dl
  00070	0f 84 18 01 00
	00		 je	 $LN91@GetIntAttr@3
  00076	80 f2 ec	 xor	 dl, -20			; ffffffecH
  00079	88 55 ed	 mov	 BYTE PTR __k$[ebp+5], dl
  0007c	8a 50 06	 mov	 dl, BYTE PTR [eax+6]
  0007f	84 d2		 test	 dl, dl
  00081	0f 84 02 01 00
	00		 je	 $LN90@GetIntAttr@3
  00087	32 d1		 xor	 dl, cl
  00089	88 55 ee	 mov	 BYTE PTR __k$[ebp+6], dl
  0008c	8a 50 07	 mov	 dl, BYTE PTR [eax+7]
  0008f	84 d2		 test	 dl, dl
  00091	0f 84 ec 00 00
	00		 je	 $LN89@GetIntAttr@3
  00097	80 f2 ea	 xor	 dl, -22			; ffffffeaH
  0009a	88 55 ef	 mov	 BYTE PTR __k$[ebp+7], dl
  0009d	8a 50 08	 mov	 dl, BYTE PTR [eax+8]
  000a0	84 d2		 test	 dl, dl
  000a2	0f 84 d5 00 00
	00		 je	 $LN88@GetIntAttr@3
  000a8	80 f2 ed	 xor	 dl, -19			; ffffffedH
  000ab	88 55 f0	 mov	 BYTE PTR __k$[ebp+8], dl
  000ae	8a 50 09	 mov	 dl, BYTE PTR [eax+9]
  000b1	84 d2		 test	 dl, dl
  000b3	0f 84 be 00 00
	00		 je	 $LN87@GetIntAttr@3
  000b9	80 f2 ec	 xor	 dl, -20			; ffffffecH
  000bc	88 55 f1	 mov	 BYTE PTR __k$[ebp+9], dl
  000bf	8a 50 0a	 mov	 dl, BYTE PTR [eax+10]
  000c2	84 d2		 test	 dl, dl
  000c4	0f 84 a8 00 00
	00		 je	 $LN86@GetIntAttr@3
  000ca	32 d1		 xor	 dl, cl
  000cc	88 55 f2	 mov	 BYTE PTR __k$[ebp+10], dl
  000cf	8a 50 0b	 mov	 dl, BYTE PTR [eax+11]
  000d2	84 d2		 test	 dl, dl
  000d4	0f 84 92 00 00
	00		 je	 $LN85@GetIntAttr@3
  000da	80 f2 ea	 xor	 dl, -22			; ffffffeaH
  000dd	88 55 f3	 mov	 BYTE PTR __k$[ebp+11], dl
  000e0	8a 50 0c	 mov	 dl, BYTE PTR [eax+12]
  000e3	84 d2		 test	 dl, dl
  000e5	74 7f		 je	 SHORT $LN84@GetIntAttr@3
  000e7	80 f2 ed	 xor	 dl, -19			; ffffffedH
  000ea	88 55 f4	 mov	 BYTE PTR __k$[ebp+12], dl
  000ed	8a 50 0d	 mov	 dl, BYTE PTR [eax+13]
  000f0	84 d2		 test	 dl, dl
  000f2	74 6c		 je	 SHORT $LN83@GetIntAttr@3
  000f4	80 f2 ec	 xor	 dl, -20			; ffffffecH
  000f7	88 55 f5	 mov	 BYTE PTR __k$[ebp+13], dl
  000fa	8a 50 0e	 mov	 dl, BYTE PTR [eax+14]
  000fd	84 d2		 test	 dl, dl
  000ff	74 5a		 je	 SHORT $LN82@GetIntAttr@3
  00101	32 d1		 xor	 dl, cl
  00103	80 78 0f 00	 cmp	 BYTE PTR [eax+15], 0
  00107	88 55 f6	 mov	 BYTE PTR __k$[ebp+14], dl
  0010a	0f 84 a0 00 00
	00		 je	 $LN1@GetIntAttr@3
  00110	8a 50 10	 mov	 dl, BYTE PTR [eax+16]
  00113	84 d2		 test	 dl, dl
  00115	74 3e		 je	 SHORT $LN80@GetIntAttr@3
  00117	80 f2 ed	 xor	 dl, -19			; ffffffedH
  0011a	88 55 f8	 mov	 BYTE PTR __k$[ebp+16], dl
  0011d	8a 50 11	 mov	 dl, BYTE PTR [eax+17]
  00120	84 d2		 test	 dl, dl
  00122	74 2b		 je	 SHORT $LN79@GetIntAttr@3
  00124	80 f2 ec	 xor	 dl, -20			; ffffffecH
  00127	88 55 f9	 mov	 BYTE PTR __k$[ebp+17], dl
  0012a	8a 50 12	 mov	 dl, BYTE PTR [eax+18]
  0012d	84 d2		 test	 dl, dl
  0012f	74 19		 je	 SHORT $LN78@GetIntAttr@3
  00131	8a 40 13	 mov	 al, BYTE PTR [eax+19]
  00134	32 d1		 xor	 dl, cl
  00136	88 55 fa	 mov	 BYTE PTR __k$[ebp+18], dl
  00139	84 c0		 test	 al, al
  0013b	74 07		 je	 SHORT $LN77@GetIntAttr@3
  0013d	34 ea		 xor	 al, -22			; ffffffeaH
  0013f	88 45 fb	 mov	 BYTE PTR __k$[ebp+19], al
  00142	eb 6c		 jmp	 SHORT $LN1@GetIntAttr@3
$LN77@GetIntAttr@3:
  00144	c6 45 fb ea	 mov	 BYTE PTR __k$[ebp+19], -22 ; ffffffeaH
  00148	eb 66		 jmp	 SHORT $LN1@GetIntAttr@3
$LN78@GetIntAttr@3:
  0014a	88 4d fa	 mov	 BYTE PTR __k$[ebp+18], cl
  0014d	eb 61		 jmp	 SHORT $LN1@GetIntAttr@3
$LN79@GetIntAttr@3:
  0014f	c6 45 f9 ec	 mov	 BYTE PTR __k$[ebp+17], -20 ; ffffffecH
  00153	eb 5b		 jmp	 SHORT $LN1@GetIntAttr@3
$LN80@GetIntAttr@3:
  00155	c6 45 f8 ed	 mov	 BYTE PTR __k$[ebp+16], -19 ; ffffffedH
  00159	eb 55		 jmp	 SHORT $LN1@GetIntAttr@3
$LN82@GetIntAttr@3:
  0015b	88 4d f6	 mov	 BYTE PTR __k$[ebp+14], cl
  0015e	eb 50		 jmp	 SHORT $LN1@GetIntAttr@3
$LN83@GetIntAttr@3:
  00160	c6 45 f5 ec	 mov	 BYTE PTR __k$[ebp+13], -20 ; ffffffecH
  00164	eb 4a		 jmp	 SHORT $LN1@GetIntAttr@3
$LN84@GetIntAttr@3:
  00166	c6 45 f4 ed	 mov	 BYTE PTR __k$[ebp+12], -19 ; ffffffedH
  0016a	eb 44		 jmp	 SHORT $LN1@GetIntAttr@3
$LN85@GetIntAttr@3:
  0016c	c6 45 f3 ea	 mov	 BYTE PTR __k$[ebp+11], -22 ; ffffffeaH
  00170	eb 3e		 jmp	 SHORT $LN1@GetIntAttr@3
$LN86@GetIntAttr@3:
  00172	88 4d f2	 mov	 BYTE PTR __k$[ebp+10], cl
  00175	eb 39		 jmp	 SHORT $LN1@GetIntAttr@3
$LN87@GetIntAttr@3:
  00177	c6 45 f1 ec	 mov	 BYTE PTR __k$[ebp+9], -20 ; ffffffecH
  0017b	eb 33		 jmp	 SHORT $LN1@GetIntAttr@3
$LN88@GetIntAttr@3:
  0017d	c6 45 f0 ed	 mov	 BYTE PTR __k$[ebp+8], -19 ; ffffffedH
  00181	eb 2d		 jmp	 SHORT $LN1@GetIntAttr@3
$LN89@GetIntAttr@3:
  00183	c6 45 ef ea	 mov	 BYTE PTR __k$[ebp+7], -22 ; ffffffeaH
  00187	eb 27		 jmp	 SHORT $LN1@GetIntAttr@3
$LN90@GetIntAttr@3:
  00189	88 4d ee	 mov	 BYTE PTR __k$[ebp+6], cl
  0018c	eb 22		 jmp	 SHORT $LN1@GetIntAttr@3
$LN91@GetIntAttr@3:
  0018e	c6 45 ed ec	 mov	 BYTE PTR __k$[ebp+5], -20 ; ffffffecH
  00192	eb 1c		 jmp	 SHORT $LN1@GetIntAttr@3
$LN92@GetIntAttr@3:
  00194	c6 45 ec ed	 mov	 BYTE PTR __k$[ebp+4], -19 ; ffffffedH
  00198	eb 16		 jmp	 SHORT $LN1@GetIntAttr@3
$LN93@GetIntAttr@3:
  0019a	c6 45 eb ea	 mov	 BYTE PTR __k$[ebp+3], -22 ; ffffffeaH
  0019e	eb 10		 jmp	 SHORT $LN1@GetIntAttr@3
$LN94@GetIntAttr@3:
  001a0	c6 45 ea eb	 mov	 BYTE PTR __k$[ebp+2], -21 ; ffffffebH
  001a4	eb 0a		 jmp	 SHORT $LN1@GetIntAttr@3
$LN95@GetIntAttr@3:
  001a6	c6 45 e9 ec	 mov	 BYTE PTR __k$[ebp+1], -20 ; ffffffecH
  001aa	eb 04		 jmp	 SHORT $LN1@GetIntAttr@3
$LN96@GetIntAttr@3:
  001ac	c6 45 e8 ed	 mov	 BYTE PTR __k$[ebp], -19	; ffffffedH
$LN1@GetIntAttr@3:
  001b0	6a 03		 push	 3
  001b2	8d 45 e8	 lea	 eax, DWORD PTR __k$[ebp]
  001b5	c6 45 f7 00	 mov	 BYTE PTR __k$[ebp+15], 0
  001b9	5a		 pop	 edx
$LL104@GetIntAttr@3:
  001ba	81 30 ed ec eb
	ea		 xor	 DWORD PTR [eax], -353637139 ; eaebecedH
  001c0	83 c0 04	 add	 eax, 4
  001c3	4a		 dec	 edx
  001c4	75 f4		 jne	 SHORT $LL104@GetIntAttr@3
  001c6	6a 0c		 push	 12			; 0000000cH
  001c8	58		 pop	 eax
$LL101@GetIntAttr@3:
  001c9	8b c8		 mov	 ecx, eax
  001cb	81 e1 03 00 00
	80		 and	 ecx, -2147483645	; 80000003H
  001d1	79 05		 jns	 SHORT $LN111@GetIntAttr@3
  001d3	49		 dec	 ecx
  001d4	83 c9 fc	 or	 ecx, -4			; fffffffcH
  001d7	41		 inc	 ecx
$LN111@GetIntAttr@3:
  001d8	b2 ed		 mov	 dl, -19			; ffffffedH
  001da	2a d1		 sub	 dl, cl
  001dc	30 54 05 e8	 xor	 BYTE PTR __k$[ebp+eax], dl
  001e0	40		 inc	 eax
  001e1	83 f8 0f	 cmp	 eax, 15			; 0000000fH
  001e4	7c e3		 jl	 SHORT $LL101@GetIntAttr@3

; 88   : 		return GetIntAttribute(_k);

  001e6	8d 45 e8	 lea	 eax, DWORD PTR __k$[ebp]
  001e9	50		 push	 eax
  001ea	8b ce		 mov	 ecx, esi
  001ec	ff 15 00 00 00
	00		 call	 DWORD PTR __imp_?GetIntAttribute@ioXMLElement@@QBEHPBD@Z

; 89   : 	}

  001f2	8b 4d fc	 mov	 ecx, DWORD PTR __$ArrayPad$[ebp]
  001f5	33 cd		 xor	 ecx, ebp
  001f7	5e		 pop	 esi
  001f8	e8 00 00 00 00	 call	 @__security_check_cookie@4
  001fd	c9		 leave
  001fe	c2 04 00	 ret	 4
??$GetIntAttribute_e@$0BA@@ioXMLElement@@QBEHAAY0BA@$$CBD@Z ENDP ; ioXMLElement::GetIntAttribute_e<16>
_TEXT	ENDS
PUBLIC	__$ArrayPad$
PUBLIC	??$GetStringAttribute_e@$0O@@ioXMLElement@@QBEPBDAAY0O@$$CBD@Z ; ioXMLElement::GetStringAttribute_e<14>
EXTRN	__imp_?GetStringAttribute@ioXMLElement@@QBEPBDPBD@Z:PROC
; Function compile flags: /Ogsp
;	COMDAT ??$GetStringAttribute_e@$0O@@ioXMLElement@@QBEPBDAAY0O@$$CBD@Z
_TEXT	SEGMENT
__k$ = -24						; size = 14
__$ArrayPad$ = -4					; size = 4
_k$ = 8							; size = 4
??$GetStringAttribute_e@$0O@@ioXMLElement@@QBEPBDAAY0O@$$CBD@Z PROC ; ioXMLElement::GetStringAttribute_e<14>, COMDAT
; _this$ = ecx

; 107  : 	{

  00000	55		 push	 ebp
  00001	8b ec		 mov	 ebp, esp
  00003	83 ec 18	 sub	 esp, 24			; 00000018H
  00006	a1 00 00 00 00	 mov	 eax, DWORD PTR ___security_cookie
  0000b	33 c5		 xor	 eax, ebp
  0000d	89 45 fc	 mov	 DWORD PTR __$ArrayPad$[ebp], eax
  00010	8b 45 08	 mov	 eax, DWORD PTR _k$[ebp]

; 108  : 		_ENCSTR(k, _k);

  00013	8a 10		 mov	 dl, BYTE PTR [eax]
  00015	56		 push	 esi
  00016	8b f1		 mov	 esi, ecx
  00018	84 d2		 test	 dl, dl
  0001a	0f 84 64 01 00
	00		 je	 $LN96@GetStringA
  00020	80 f2 ed	 xor	 dl, -19			; ffffffedH
  00023	88 55 e8	 mov	 BYTE PTR __k$[ebp], dl
  00026	8a 50 01	 mov	 dl, BYTE PTR [eax+1]
  00029	84 d2		 test	 dl, dl
  0002b	0f 84 4d 01 00
	00		 je	 $LN95@GetStringA
  00031	80 f2 ec	 xor	 dl, -20			; ffffffecH
  00034	88 55 e9	 mov	 BYTE PTR __k$[ebp+1], dl
  00037	8a 50 02	 mov	 dl, BYTE PTR [eax+2]
  0003a	84 d2		 test	 dl, dl
  0003c	0f 84 36 01 00
	00		 je	 $LN94@GetStringA
  00042	b1 eb		 mov	 cl, -21			; ffffffebH
  00044	32 d1		 xor	 dl, cl
  00046	88 55 ea	 mov	 BYTE PTR __k$[ebp+2], dl
  00049	8a 50 03	 mov	 dl, BYTE PTR [eax+3]
  0004c	84 d2		 test	 dl, dl
  0004e	0f 84 1e 01 00
	00		 je	 $LN93@GetStringA
  00054	80 f2 ea	 xor	 dl, -22			; ffffffeaH
  00057	88 55 eb	 mov	 BYTE PTR __k$[ebp+3], dl
  0005a	8a 50 04	 mov	 dl, BYTE PTR [eax+4]
  0005d	84 d2		 test	 dl, dl
  0005f	0f 84 07 01 00
	00		 je	 $LN92@GetStringA
  00065	80 f2 ed	 xor	 dl, -19			; ffffffedH
  00068	88 55 ec	 mov	 BYTE PTR __k$[ebp+4], dl
  0006b	8a 50 05	 mov	 dl, BYTE PTR [eax+5]
  0006e	84 d2		 test	 dl, dl
  00070	0f 84 f0 00 00
	00		 je	 $LN91@GetStringA
  00076	80 f2 ec	 xor	 dl, -20			; ffffffecH
  00079	88 55 ed	 mov	 BYTE PTR __k$[ebp+5], dl
  0007c	8a 50 06	 mov	 dl, BYTE PTR [eax+6]
  0007f	84 d2		 test	 dl, dl
  00081	0f 84 da 00 00
	00		 je	 $LN90@GetStringA
  00087	32 d1		 xor	 dl, cl
  00089	88 55 ee	 mov	 BYTE PTR __k$[ebp+6], dl
  0008c	8a 50 07	 mov	 dl, BYTE PTR [eax+7]
  0008f	84 d2		 test	 dl, dl
  00091	0f 84 c4 00 00
	00		 je	 $LN89@GetStringA
  00097	80 f2 ea	 xor	 dl, -22			; ffffffeaH
  0009a	88 55 ef	 mov	 BYTE PTR __k$[ebp+7], dl
  0009d	8a 50 08	 mov	 dl, BYTE PTR [eax+8]
  000a0	84 d2		 test	 dl, dl
  000a2	0f 84 ad 00 00
	00		 je	 $LN88@GetStringA
  000a8	80 f2 ed	 xor	 dl, -19			; ffffffedH
  000ab	88 55 f0	 mov	 BYTE PTR __k$[ebp+8], dl
  000ae	8a 50 09	 mov	 dl, BYTE PTR [eax+9]
  000b1	84 d2		 test	 dl, dl
  000b3	0f 84 96 00 00
	00		 je	 $LN87@GetStringA
  000b9	80 f2 ec	 xor	 dl, -20			; ffffffecH
  000bc	88 55 f1	 mov	 BYTE PTR __k$[ebp+9], dl
  000bf	8a 50 0a	 mov	 dl, BYTE PTR [eax+10]
  000c2	84 d2		 test	 dl, dl
  000c4	0f 84 80 00 00
	00		 je	 $LN86@GetStringA
  000ca	32 d1		 xor	 dl, cl
  000cc	88 55 f2	 mov	 BYTE PTR __k$[ebp+10], dl
  000cf	8a 50 0b	 mov	 dl, BYTE PTR [eax+11]
  000d2	84 d2		 test	 dl, dl
  000d4	74 6e		 je	 SHORT $LN85@GetStringA
  000d6	80 f2 ea	 xor	 dl, -22			; ffffffeaH
  000d9	88 55 f3	 mov	 BYTE PTR __k$[ebp+11], dl
  000dc	8a 50 0c	 mov	 dl, BYTE PTR [eax+12]
  000df	84 d2		 test	 dl, dl
  000e1	74 5b		 je	 SHORT $LN84@GetStringA
  000e3	80 f2 ed	 xor	 dl, -19			; ffffffedH
  000e6	80 78 0d 00	 cmp	 BYTE PTR [eax+13], 0
  000ea	88 55 f4	 mov	 BYTE PTR __k$[ebp+12], dl
  000ed	0f 84 95 00 00
	00		 je	 $LN1@GetStringA
  000f3	8a 50 0e	 mov	 dl, BYTE PTR [eax+14]
  000f6	84 d2		 test	 dl, dl
  000f8	74 3f		 je	 SHORT $LN82@GetStringA
  000fa	32 d1		 xor	 dl, cl
  000fc	88 55 f6	 mov	 BYTE PTR __k$[ebp+14], dl
  000ff	8a 50 0f	 mov	 dl, BYTE PTR [eax+15]
  00102	84 d2		 test	 dl, dl
  00104	74 2d		 je	 SHORT $LN81@GetStringA
  00106	80 f2 ea	 xor	 dl, -22			; ffffffeaH
  00109	88 55 f7	 mov	 BYTE PTR __k$[ebp+15], dl
  0010c	8a 50 10	 mov	 dl, BYTE PTR [eax+16]
  0010f	84 d2		 test	 dl, dl
  00111	74 1a		 je	 SHORT $LN80@GetStringA
  00113	8a 40 11	 mov	 al, BYTE PTR [eax+17]
  00116	80 f2 ed	 xor	 dl, -19			; ffffffedH
  00119	88 55 f8	 mov	 BYTE PTR __k$[ebp+16], dl
  0011c	84 c0		 test	 al, al
  0011e	74 07		 je	 SHORT $LN79@GetStringA
  00120	34 ec		 xor	 al, -20			; ffffffecH
  00122	88 45 f9	 mov	 BYTE PTR __k$[ebp+17], al
  00125	eb 61		 jmp	 SHORT $LN1@GetStringA
$LN79@GetStringA:
  00127	c6 45 f9 ec	 mov	 BYTE PTR __k$[ebp+17], -20 ; ffffffecH
  0012b	eb 5b		 jmp	 SHORT $LN1@GetStringA
$LN80@GetStringA:
  0012d	c6 45 f8 ed	 mov	 BYTE PTR __k$[ebp+16], -19 ; ffffffedH
  00131	eb 55		 jmp	 SHORT $LN1@GetStringA
$LN81@GetStringA:
  00133	c6 45 f7 ea	 mov	 BYTE PTR __k$[ebp+15], -22 ; ffffffeaH
  00137	eb 4f		 jmp	 SHORT $LN1@GetStringA
$LN82@GetStringA:
  00139	88 4d f6	 mov	 BYTE PTR __k$[ebp+14], cl
  0013c	eb 4a		 jmp	 SHORT $LN1@GetStringA
$LN84@GetStringA:
  0013e	c6 45 f4 ed	 mov	 BYTE PTR __k$[ebp+12], -19 ; ffffffedH
  00142	eb 44		 jmp	 SHORT $LN1@GetStringA
$LN85@GetStringA:
  00144	c6 45 f3 ea	 mov	 BYTE PTR __k$[ebp+11], -22 ; ffffffeaH
  00148	eb 3e		 jmp	 SHORT $LN1@GetStringA
$LN86@GetStringA:
  0014a	88 4d f2	 mov	 BYTE PTR __k$[ebp+10], cl
  0014d	eb 39		 jmp	 SHORT $LN1@GetStringA
$LN87@GetStringA:
  0014f	c6 45 f1 ec	 mov	 BYTE PTR __k$[ebp+9], -20 ; ffffffecH
  00153	eb 33		 jmp	 SHORT $LN1@GetStringA
$LN88@GetStringA:
  00155	c6 45 f0 ed	 mov	 BYTE PTR __k$[ebp+8], -19 ; ffffffedH
  00159	eb 2d		 jmp	 SHORT $LN1@GetStringA
$LN89@GetStringA:
  0015b	c6 45 ef ea	 mov	 BYTE PTR __k$[ebp+7], -22 ; ffffffeaH
  0015f	eb 27		 jmp	 SHORT $LN1@GetStringA
$LN90@GetStringA:
  00161	88 4d ee	 mov	 BYTE PTR __k$[ebp+6], cl
  00164	eb 22		 jmp	 SHORT $LN1@GetStringA
$LN91@GetStringA:
  00166	c6 45 ed ec	 mov	 BYTE PTR __k$[ebp+5], -20 ; ffffffecH
  0016a	eb 1c		 jmp	 SHORT $LN1@GetStringA
$LN92@GetStringA:
  0016c	c6 45 ec ed	 mov	 BYTE PTR __k$[ebp+4], -19 ; ffffffedH
  00170	eb 16		 jmp	 SHORT $LN1@GetStringA
$LN93@GetStringA:
  00172	c6 45 eb ea	 mov	 BYTE PTR __k$[ebp+3], -22 ; ffffffeaH
  00176	eb 10		 jmp	 SHORT $LN1@GetStringA
$LN94@GetStringA:
  00178	c6 45 ea eb	 mov	 BYTE PTR __k$[ebp+2], -21 ; ffffffebH
  0017c	eb 0a		 jmp	 SHORT $LN1@GetStringA
$LN95@GetStringA:
  0017e	c6 45 e9 ec	 mov	 BYTE PTR __k$[ebp+1], -20 ; ffffffecH
  00182	eb 04		 jmp	 SHORT $LN1@GetStringA
$LN96@GetStringA:
  00184	c6 45 e8 ed	 mov	 BYTE PTR __k$[ebp], -19	; ffffffedH
$LN1@GetStringA:
  00188	6a 03		 push	 3
  0018a	8d 45 e8	 lea	 eax, DWORD PTR __k$[ebp]
  0018d	c6 45 f5 00	 mov	 BYTE PTR __k$[ebp+13], 0
  00191	5a		 pop	 edx
$LL104@GetStringA:
  00192	81 30 ed ec eb
	ea		 xor	 DWORD PTR [eax], -353637139 ; eaebecedH
  00198	83 c0 04	 add	 eax, 4
  0019b	4a		 dec	 edx
  0019c	75 f4		 jne	 SHORT $LL104@GetStringA
  0019e	80 75 f4 ed	 xor	 BYTE PTR __k$[ebp+12], -19 ; ffffffedH

; 109  : 		return GetStringAttribute(_k);

  001a2	8d 45 e8	 lea	 eax, DWORD PTR __k$[ebp]
  001a5	50		 push	 eax
  001a6	8b ce		 mov	 ecx, esi
  001a8	ff 15 00 00 00
	00		 call	 DWORD PTR __imp_?GetStringAttribute@ioXMLElement@@QBEPBDPBD@Z

; 110  : 	}

  001ae	8b 4d fc	 mov	 ecx, DWORD PTR __$ArrayPad$[ebp]
  001b1	33 cd		 xor	 ecx, ebp
  001b3	5e		 pop	 esi
  001b4	e8 00 00 00 00	 call	 @__security_check_cookie@4
  001b9	c9		 leave
  001ba	c2 04 00	 ret	 4
??$GetStringAttribute_e@$0O@@ioXMLElement@@QBEPBDAAY0O@$$CBD@Z ENDP ; ioXMLElement::GetStringAttribute_e<14>
_TEXT	ENDS
PUBLIC	__$ArrayPad$
PUBLIC	??$GetStringAttribute_e@$0N@@ioXMLElement@@QBEPBDAAY0N@$$CBD@Z ; ioXMLElement::GetStringAttribute_e<13>
; Function compile flags: /Ogsp
;	COMDAT ??$GetStringAttribute_e@$0N@@ioXMLElement@@QBEPBDAAY0N@$$CBD@Z
_TEXT	SEGMENT
__k$ = -24						; size = 13
__$ArrayPad$ = -4					; size = 4
_k$ = 8							; size = 4
??$GetStringAttribute_e@$0N@@ioXMLElement@@QBEPBDAAY0N@$$CBD@Z PROC ; ioXMLElement::GetStringAttribute_e<13>, COMDAT
; _this$ = ecx

; 107  : 	{

  00000	55		 push	 ebp
  00001	8b ec		 mov	 ebp, esp
  00003	83 ec 18	 sub	 esp, 24			; 00000018H
  00006	a1 00 00 00 00	 mov	 eax, DWORD PTR ___security_cookie
  0000b	33 c5		 xor	 eax, ebp
  0000d	89 45 fc	 mov	 DWORD PTR __$ArrayPad$[ebp], eax
  00010	8b 45 08	 mov	 eax, DWORD PTR _k$[ebp]

; 108  : 		_ENCSTR(k, _k);

  00013	8a 10		 mov	 dl, BYTE PTR [eax]
  00015	56		 push	 esi
  00016	8b f1		 mov	 esi, ecx
  00018	84 d2		 test	 dl, dl
  0001a	0f 84 4d 01 00
	00		 je	 $LN96@GetStringA@2
  00020	80 f2 ed	 xor	 dl, -19			; ffffffedH
  00023	88 55 e8	 mov	 BYTE PTR __k$[ebp], dl
  00026	8a 50 01	 mov	 dl, BYTE PTR [eax+1]
  00029	84 d2		 test	 dl, dl
  0002b	0f 84 36 01 00
	00		 je	 $LN95@GetStringA@2
  00031	b1 ec		 mov	 cl, -20			; ffffffecH
  00033	32 d1		 xor	 dl, cl
  00035	88 55 e9	 mov	 BYTE PTR __k$[ebp+1], dl
  00038	8a 50 02	 mov	 dl, BYTE PTR [eax+2]
  0003b	84 d2		 test	 dl, dl
  0003d	0f 84 1e 01 00
	00		 je	 $LN94@GetStringA@2
  00043	80 f2 eb	 xor	 dl, -21			; ffffffebH
  00046	88 55 ea	 mov	 BYTE PTR __k$[ebp+2], dl
  00049	8a 50 03	 mov	 dl, BYTE PTR [eax+3]
  0004c	84 d2		 test	 dl, dl
  0004e	0f 84 07 01 00
	00		 je	 $LN93@GetStringA@2
  00054	80 f2 ea	 xor	 dl, -22			; ffffffeaH
  00057	88 55 eb	 mov	 BYTE PTR __k$[ebp+3], dl
  0005a	8a 50 04	 mov	 dl, BYTE PTR [eax+4]
  0005d	84 d2		 test	 dl, dl
  0005f	0f 84 f0 00 00
	00		 je	 $LN92@GetStringA@2
  00065	80 f2 ed	 xor	 dl, -19			; ffffffedH
  00068	88 55 ec	 mov	 BYTE PTR __k$[ebp+4], dl
  0006b	8a 50 05	 mov	 dl, BYTE PTR [eax+5]
  0006e	84 d2		 test	 dl, dl
  00070	0f 84 da 00 00
	00		 je	 $LN91@GetStringA@2
  00076	32 d1		 xor	 dl, cl
  00078	88 55 ed	 mov	 BYTE PTR __k$[ebp+5], dl
  0007b	8a 50 06	 mov	 dl, BYTE PTR [eax+6]
  0007e	84 d2		 test	 dl, dl
  00080	0f 84 c4 00 00
	00		 je	 $LN90@GetStringA@2
  00086	80 f2 eb	 xor	 dl, -21			; ffffffebH
  00089	88 55 ee	 mov	 BYTE PTR __k$[ebp+6], dl
  0008c	8a 50 07	 mov	 dl, BYTE PTR [eax+7]
  0008f	84 d2		 test	 dl, dl
  00091	0f 84 ad 00 00
	00		 je	 $LN89@GetStringA@2
  00097	80 f2 ea	 xor	 dl, -22			; ffffffeaH
  0009a	88 55 ef	 mov	 BYTE PTR __k$[ebp+7], dl
  0009d	8a 50 08	 mov	 dl, BYTE PTR [eax+8]
  000a0	84 d2		 test	 dl, dl
  000a2	0f 84 96 00 00
	00		 je	 $LN88@GetStringA@2
  000a8	80 f2 ed	 xor	 dl, -19			; ffffffedH
  000ab	88 55 f0	 mov	 BYTE PTR __k$[ebp+8], dl
  000ae	8a 50 09	 mov	 dl, BYTE PTR [eax+9]
  000b1	84 d2		 test	 dl, dl
  000b3	0f 84 80 00 00
	00		 je	 $LN87@GetStringA@2
  000b9	32 d1		 xor	 dl, cl
  000bb	88 55 f1	 mov	 BYTE PTR __k$[ebp+9], dl
  000be	8a 50 0a	 mov	 dl, BYTE PTR [eax+10]
  000c1	84 d2		 test	 dl, dl
  000c3	74 6e		 je	 SHORT $LN86@GetStringA@2
  000c5	80 f2 eb	 xor	 dl, -21			; ffffffebH
  000c8	88 55 f2	 mov	 BYTE PTR __k$[ebp+10], dl
  000cb	8a 50 0b	 mov	 dl, BYTE PTR [eax+11]
  000ce	84 d2		 test	 dl, dl
  000d0	74 5b		 je	 SHORT $LN85@GetStringA@2
  000d2	80 f2 ea	 xor	 dl, -22			; ffffffeaH
  000d5	80 78 0c 00	 cmp	 BYTE PTR [eax+12], 0
  000d9	88 55 f3	 mov	 BYTE PTR __k$[ebp+11], dl
  000dc	0f 84 8f 00 00
	00		 je	 $LN1@GetStringA@2
  000e2	8a 50 0d	 mov	 dl, BYTE PTR [eax+13]
  000e5	84 d2		 test	 dl, dl
  000e7	74 3f		 je	 SHORT $LN83@GetStringA@2
  000e9	32 d1		 xor	 dl, cl
  000eb	88 55 f5	 mov	 BYTE PTR __k$[ebp+13], dl
  000ee	8a 50 0e	 mov	 dl, BYTE PTR [eax+14]
  000f1	84 d2		 test	 dl, dl
  000f3	74 2d		 je	 SHORT $LN82@GetStringA@2
  000f5	80 f2 eb	 xor	 dl, -21			; ffffffebH
  000f8	88 55 f6	 mov	 BYTE PTR __k$[ebp+14], dl
  000fb	8a 50 0f	 mov	 dl, BYTE PTR [eax+15]
  000fe	84 d2		 test	 dl, dl
  00100	74 1a		 je	 SHORT $LN81@GetStringA@2
  00102	8a 40 10	 mov	 al, BYTE PTR [eax+16]
  00105	80 f2 ea	 xor	 dl, -22			; ffffffeaH
  00108	88 55 f7	 mov	 BYTE PTR __k$[ebp+15], dl
  0010b	84 c0		 test	 al, al
  0010d	74 07		 je	 SHORT $LN80@GetStringA@2
  0010f	34 ed		 xor	 al, -19			; ffffffedH
  00111	88 45 f8	 mov	 BYTE PTR __k$[ebp+16], al
  00114	eb 5b		 jmp	 SHORT $LN1@GetStringA@2
$LN80@GetStringA@2:
  00116	c6 45 f8 ed	 mov	 BYTE PTR __k$[ebp+16], -19 ; ffffffedH
  0011a	eb 55		 jmp	 SHORT $LN1@GetStringA@2
$LN81@GetStringA@2:
  0011c	c6 45 f7 ea	 mov	 BYTE PTR __k$[ebp+15], -22 ; ffffffeaH
  00120	eb 4f		 jmp	 SHORT $LN1@GetStringA@2
$LN82@GetStringA@2:
  00122	c6 45 f6 eb	 mov	 BYTE PTR __k$[ebp+14], -21 ; ffffffebH
  00126	eb 49		 jmp	 SHORT $LN1@GetStringA@2
$LN83@GetStringA@2:
  00128	88 4d f5	 mov	 BYTE PTR __k$[ebp+13], cl
  0012b	eb 44		 jmp	 SHORT $LN1@GetStringA@2
$LN85@GetStringA@2:
  0012d	c6 45 f3 ea	 mov	 BYTE PTR __k$[ebp+11], -22 ; ffffffeaH
  00131	eb 3e		 jmp	 SHORT $LN1@GetStringA@2
$LN86@GetStringA@2:
  00133	c6 45 f2 eb	 mov	 BYTE PTR __k$[ebp+10], -21 ; ffffffebH
  00137	eb 38		 jmp	 SHORT $LN1@GetStringA@2
$LN87@GetStringA@2:
  00139	88 4d f1	 mov	 BYTE PTR __k$[ebp+9], cl
  0013c	eb 33		 jmp	 SHORT $LN1@GetStringA@2
$LN88@GetStringA@2:
  0013e	c6 45 f0 ed	 mov	 BYTE PTR __k$[ebp+8], -19 ; ffffffedH
  00142	eb 2d		 jmp	 SHORT $LN1@GetStringA@2
$LN89@GetStringA@2:
  00144	c6 45 ef ea	 mov	 BYTE PTR __k$[ebp+7], -22 ; ffffffeaH
  00148	eb 27		 jmp	 SHORT $LN1@GetStringA@2
$LN90@GetStringA@2:
  0014a	c6 45 ee eb	 mov	 BYTE PTR __k$[ebp+6], -21 ; ffffffebH
  0014e	eb 21		 jmp	 SHORT $LN1@GetStringA@2
$LN91@GetStringA@2:
  00150	88 4d ed	 mov	 BYTE PTR __k$[ebp+5], cl
  00153	eb 1c		 jmp	 SHORT $LN1@GetStringA@2
$LN92@GetStringA@2:
  00155	c6 45 ec ed	 mov	 BYTE PTR __k$[ebp+4], -19 ; ffffffedH
  00159	eb 16		 jmp	 SHORT $LN1@GetStringA@2
$LN93@GetStringA@2:
  0015b	c6 45 eb ea	 mov	 BYTE PTR __k$[ebp+3], -22 ; ffffffeaH
  0015f	eb 10		 jmp	 SHORT $LN1@GetStringA@2
$LN94@GetStringA@2:
  00161	c6 45 ea eb	 mov	 BYTE PTR __k$[ebp+2], -21 ; ffffffebH
  00165	eb 0a		 jmp	 SHORT $LN1@GetStringA@2
$LN95@GetStringA@2:
  00167	c6 45 e9 ec	 mov	 BYTE PTR __k$[ebp+1], -20 ; ffffffecH
  0016b	eb 04		 jmp	 SHORT $LN1@GetStringA@2
$LN96@GetStringA@2:
  0016d	c6 45 e8 ed	 mov	 BYTE PTR __k$[ebp], -19	; ffffffedH
$LN1@GetStringA@2:
  00171	6a 03		 push	 3
  00173	8d 45 e8	 lea	 eax, DWORD PTR __k$[ebp]
  00176	c6 45 f4 00	 mov	 BYTE PTR __k$[ebp+12], 0
  0017a	5a		 pop	 edx
$LL104@GetStringA@2:
  0017b	81 30 ed ec eb
	ea		 xor	 DWORD PTR [eax], -353637139 ; eaebecedH
  00181	83 c0 04	 add	 eax, 4
  00184	4a		 dec	 edx
  00185	75 f4		 jne	 SHORT $LL104@GetStringA@2

; 109  : 		return GetStringAttribute(_k);

  00187	8d 45 e8	 lea	 eax, DWORD PTR __k$[ebp]
  0018a	50		 push	 eax
  0018b	8b ce		 mov	 ecx, esi
  0018d	ff 15 00 00 00
	00		 call	 DWORD PTR __imp_?GetStringAttribute@ioXMLElement@@QBEPBDPBD@Z

; 110  : 	}

  00193	8b 4d fc	 mov	 ecx, DWORD PTR __$ArrayPad$[ebp]
  00196	33 cd		 xor	 ecx, ebp
  00198	5e		 pop	 esi
  00199	e8 00 00 00 00	 call	 @__security_check_cookie@4
  0019e	c9		 leave
  0019f	c2 04 00	 ret	 4
??$GetStringAttribute_e@$0N@@ioXMLElement@@QBEPBDAAY0N@$$CBD@Z ENDP ; ioXMLElement::GetStringAttribute_e<13>
_TEXT	ENDS
PUBLIC	__$ArrayPad$
PUBLIC	??$GetIntAttribute_e@$0O@@ioXMLElement@@QBEHAAY0O@$$CBD@Z ; ioXMLElement::GetIntAttribute_e<14>
; Function compile flags: /Ogsp
;	COMDAT ??$GetIntAttribute_e@$0O@@ioXMLElement@@QBEHAAY0O@$$CBD@Z
_TEXT	SEGMENT
__k$ = -24						; size = 14
__$ArrayPad$ = -4					; size = 4
_k$ = 8							; size = 4
??$GetIntAttribute_e@$0O@@ioXMLElement@@QBEHAAY0O@$$CBD@Z PROC ; ioXMLElement::GetIntAttribute_e<14>, COMDAT
; _this$ = ecx

; 86   : 	{

  00000	55		 push	 ebp
  00001	8b ec		 mov	 ebp, esp
  00003	83 ec 18	 sub	 esp, 24			; 00000018H
  00006	a1 00 00 00 00	 mov	 eax, DWORD PTR ___security_cookie
  0000b	33 c5		 xor	 eax, ebp
  0000d	89 45 fc	 mov	 DWORD PTR __$ArrayPad$[ebp], eax
  00010	8b 45 08	 mov	 eax, DWORD PTR _k$[ebp]

; 87   : 		_ENCSTR(k, _k);

  00013	8a 10		 mov	 dl, BYTE PTR [eax]
  00015	56		 push	 esi
  00016	8b f1		 mov	 esi, ecx
  00018	84 d2		 test	 dl, dl
  0001a	0f 84 64 01 00
	00		 je	 $LN96@GetIntAttr@4
  00020	80 f2 ed	 xor	 dl, -19			; ffffffedH
  00023	88 55 e8	 mov	 BYTE PTR __k$[ebp], dl
  00026	8a 50 01	 mov	 dl, BYTE PTR [eax+1]
  00029	84 d2		 test	 dl, dl
  0002b	0f 84 4d 01 00
	00		 je	 $LN95@GetIntAttr@4
  00031	80 f2 ec	 xor	 dl, -20			; ffffffecH
  00034	88 55 e9	 mov	 BYTE PTR __k$[ebp+1], dl
  00037	8a 50 02	 mov	 dl, BYTE PTR [eax+2]
  0003a	84 d2		 test	 dl, dl
  0003c	0f 84 36 01 00
	00		 je	 $LN94@GetIntAttr@4
  00042	b1 eb		 mov	 cl, -21			; ffffffebH
  00044	32 d1		 xor	 dl, cl
  00046	88 55 ea	 mov	 BYTE PTR __k$[ebp+2], dl
  00049	8a 50 03	 mov	 dl, BYTE PTR [eax+3]
  0004c	84 d2		 test	 dl, dl
  0004e	0f 84 1e 01 00
	00		 je	 $LN93@GetIntAttr@4
  00054	80 f2 ea	 xor	 dl, -22			; ffffffeaH
  00057	88 55 eb	 mov	 BYTE PTR __k$[ebp+3], dl
  0005a	8a 50 04	 mov	 dl, BYTE PTR [eax+4]
  0005d	84 d2		 test	 dl, dl
  0005f	0f 84 07 01 00
	00		 je	 $LN92@GetIntAttr@4
  00065	80 f2 ed	 xor	 dl, -19			; ffffffedH
  00068	88 55 ec	 mov	 BYTE PTR __k$[ebp+4], dl
  0006b	8a 50 05	 mov	 dl, BYTE PTR [eax+5]
  0006e	84 d2		 test	 dl, dl
  00070	0f 84 f0 00 00
	00		 je	 $LN91@GetIntAttr@4
  00076	80 f2 ec	 xor	 dl, -20			; ffffffecH
  00079	88 55 ed	 mov	 BYTE PTR __k$[ebp+5], dl
  0007c	8a 50 06	 mov	 dl, BYTE PTR [eax+6]
  0007f	84 d2		 test	 dl, dl
  00081	0f 84 da 00 00
	00		 je	 $LN90@GetIntAttr@4
  00087	32 d1		 xor	 dl, cl
  00089	88 55 ee	 mov	 BYTE PTR __k$[ebp+6], dl
  0008c	8a 50 07	 mov	 dl, BYTE PTR [eax+7]
  0008f	84 d2		 test	 dl, dl
  00091	0f 84 c4 00 00
	00		 je	 $LN89@GetIntAttr@4
  00097	80 f2 ea	 xor	 dl, -22			; ffffffeaH
  0009a	88 55 ef	 mov	 BYTE PTR __k$[ebp+7], dl
  0009d	8a 50 08	 mov	 dl, BYTE PTR [eax+8]
  000a0	84 d2		 test	 dl, dl
  000a2	0f 84 ad 00 00
	00		 je	 $LN88@GetIntAttr@4
  000a8	80 f2 ed	 xor	 dl, -19			; ffffffedH
  000ab	88 55 f0	 mov	 BYTE PTR __k$[ebp+8], dl
  000ae	8a 50 09	 mov	 dl, BYTE PTR [eax+9]
  000b1	84 d2		 test	 dl, dl
  000b3	0f 84 96 00 00
	00		 je	 $LN87@GetIntAttr@4
  000b9	80 f2 ec	 xor	 dl, -20			; ffffffecH
  000bc	88 55 f1	 mov	 BYTE PTR __k$[ebp+9], dl
  000bf	8a 50 0a	 mov	 dl, BYTE PTR [eax+10]
  000c2	84 d2		 test	 dl, dl
  000c4	0f 84 80 00 00
	00		 je	 $LN86@GetIntAttr@4
  000ca	32 d1		 xor	 dl, cl
  000cc	88 55 f2	 mov	 BYTE PTR __k$[ebp+10], dl
  000cf	8a 50 0b	 mov	 dl, BYTE PTR [eax+11]
  000d2	84 d2		 test	 dl, dl
  000d4	74 6e		 je	 SHORT $LN85@GetIntAttr@4
  000d6	80 f2 ea	 xor	 dl, -22			; ffffffeaH
  000d9	88 55 f3	 mov	 BYTE PTR __k$[ebp+11], dl
  000dc	8a 50 0c	 mov	 dl, BYTE PTR [eax+12]
  000df	84 d2		 test	 dl, dl
  000e1	74 5b		 je	 SHORT $LN84@GetIntAttr@4
  000e3	80 f2 ed	 xor	 dl, -19			; ffffffedH
  000e6	80 78 0d 00	 cmp	 BYTE PTR [eax+13], 0
  000ea	88 55 f4	 mov	 BYTE PTR __k$[ebp+12], dl
  000ed	0f 84 95 00 00
	00		 je	 $LN1@GetIntAttr@4
  000f3	8a 50 0e	 mov	 dl, BYTE PTR [eax+14]
  000f6	84 d2		 test	 dl, dl
  000f8	74 3f		 je	 SHORT $LN82@GetIntAttr@4
  000fa	32 d1		 xor	 dl, cl
  000fc	88 55 f6	 mov	 BYTE PTR __k$[ebp+14], dl
  000ff	8a 50 0f	 mov	 dl, BYTE PTR [eax+15]
  00102	84 d2		 test	 dl, dl
  00104	74 2d		 je	 SHORT $LN81@GetIntAttr@4
  00106	80 f2 ea	 xor	 dl, -22			; ffffffeaH
  00109	88 55 f7	 mov	 BYTE PTR __k$[ebp+15], dl
  0010c	8a 50 10	 mov	 dl, BYTE PTR [eax+16]
  0010f	84 d2		 test	 dl, dl
  00111	74 1a		 je	 SHORT $LN80@GetIntAttr@4
  00113	8a 40 11	 mov	 al, BYTE PTR [eax+17]
  00116	80 f2 ed	 xor	 dl, -19			; ffffffedH
  00119	88 55 f8	 mov	 BYTE PTR __k$[ebp+16], dl
  0011c	84 c0		 test	 al, al
  0011e	74 07		 je	 SHORT $LN79@GetIntAttr@4
  00120	34 ec		 xor	 al, -20			; ffffffecH
  00122	88 45 f9	 mov	 BYTE PTR __k$[ebp+17], al
  00125	eb 61		 jmp	 SHORT $LN1@GetIntAttr@4
$LN79@GetIntAttr@4:
  00127	c6 45 f9 ec	 mov	 BYTE PTR __k$[ebp+17], -20 ; ffffffecH
  0012b	eb 5b		 jmp	 SHORT $LN1@GetIntAttr@4
$LN80@GetIntAttr@4:
  0012d	c6 45 f8 ed	 mov	 BYTE PTR __k$[ebp+16], -19 ; ffffffedH
  00131	eb 55		 jmp	 SHORT $LN1@GetIntAttr@4
$LN81@GetIntAttr@4:
  00133	c6 45 f7 ea	 mov	 BYTE PTR __k$[ebp+15], -22 ; ffffffeaH
  00137	eb 4f		 jmp	 SHORT $LN1@GetIntAttr@4
$LN82@GetIntAttr@4:
  00139	88 4d f6	 mov	 BYTE PTR __k$[ebp+14], cl
  0013c	eb 4a		 jmp	 SHORT $LN1@GetIntAttr@4
$LN84@GetIntAttr@4:
  0013e	c6 45 f4 ed	 mov	 BYTE PTR __k$[ebp+12], -19 ; ffffffedH
  00142	eb 44		 jmp	 SHORT $LN1@GetIntAttr@4
$LN85@GetIntAttr@4:
  00144	c6 45 f3 ea	 mov	 BYTE PTR __k$[ebp+11], -22 ; ffffffeaH
  00148	eb 3e		 jmp	 SHORT $LN1@GetIntAttr@4
$LN86@GetIntAttr@4:
  0014a	88 4d f2	 mov	 BYTE PTR __k$[ebp+10], cl
  0014d	eb 39		 jmp	 SHORT $LN1@GetIntAttr@4
$LN87@GetIntAttr@4:
  0014f	c6 45 f1 ec	 mov	 BYTE PTR __k$[ebp+9], -20 ; ffffffecH
  00153	eb 33		 jmp	 SHORT $LN1@GetIntAttr@4
$LN88@GetIntAttr@4:
  00155	c6 45 f0 ed	 mov	 BYTE PTR __k$[ebp+8], -19 ; ffffffedH
  00159	eb 2d		 jmp	 SHORT $LN1@GetIntAttr@4
$LN89@GetIntAttr@4:
  0015b	c6 45 ef ea	 mov	 BYTE PTR __k$[ebp+7], -22 ; ffffffeaH
  0015f	eb 27		 jmp	 SHORT $LN1@GetIntAttr@4
$LN90@GetIntAttr@4:
  00161	88 4d ee	 mov	 BYTE PTR __k$[ebp+6], cl
  00164	eb 22		 jmp	 SHORT $LN1@GetIntAttr@4
$LN91@GetIntAttr@4:
  00166	c6 45 ed ec	 mov	 BYTE PTR __k$[ebp+5], -20 ; ffffffecH
  0016a	eb 1c		 jmp	 SHORT $LN1@GetIntAttr@4
$LN92@GetIntAttr@4:
  0016c	c6 45 ec ed	 mov	 BYTE PTR __k$[ebp+4], -19 ; ffffffedH
  00170	eb 16		 jmp	 SHORT $LN1@GetIntAttr@4
$LN93@GetIntAttr@4:
  00172	c6 45 eb ea	 mov	 BYTE PTR __k$[ebp+3], -22 ; ffffffeaH
  00176	eb 10		 jmp	 SHORT $LN1@GetIntAttr@4
$LN94@GetIntAttr@4:
  00178	c6 45 ea eb	 mov	 BYTE PTR __k$[ebp+2], -21 ; ffffffebH
  0017c	eb 0a		 jmp	 SHORT $LN1@GetIntAttr@4
$LN95@GetIntAttr@4:
  0017e	c6 45 e9 ec	 mov	 BYTE PTR __k$[ebp+1], -20 ; ffffffecH
  00182	eb 04		 jmp	 SHORT $LN1@GetIntAttr@4
$LN96@GetIntAttr@4:
  00184	c6 45 e8 ed	 mov	 BYTE PTR __k$[ebp], -19	; ffffffedH
$LN1@GetIntAttr@4:
  00188	6a 03		 push	 3
  0018a	8d 45 e8	 lea	 eax, DWORD PTR __k$[ebp]
  0018d	c6 45 f5 00	 mov	 BYTE PTR __k$[ebp+13], 0
  00191	5a		 pop	 edx
$LL104@GetIntAttr@4:
  00192	81 30 ed ec eb
	ea		 xor	 DWORD PTR [eax], -353637139 ; eaebecedH
  00198	83 c0 04	 add	 eax, 4
  0019b	4a		 dec	 edx
  0019c	75 f4		 jne	 SHORT $LL104@GetIntAttr@4
  0019e	80 75 f4 ed	 xor	 BYTE PTR __k$[ebp+12], -19 ; ffffffedH

; 88   : 		return GetIntAttribute(_k);

  001a2	8d 45 e8	 lea	 eax, DWORD PTR __k$[ebp]
  001a5	50		 push	 eax
  001a6	8b ce		 mov	 ecx, esi
  001a8	ff 15 00 00 00
	00		 call	 DWORD PTR __imp_?GetIntAttribute@ioXMLElement@@QBEHPBD@Z

; 89   : 	}

  001ae	8b 4d fc	 mov	 ecx, DWORD PTR __$ArrayPad$[ebp]
  001b1	33 cd		 xor	 ecx, ebp
  001b3	5e		 pop	 esi
  001b4	e8 00 00 00 00	 call	 @__security_check_cookie@4
  001b9	c9		 leave
  001ba	c2 04 00	 ret	 4
??$GetIntAttribute_e@$0O@@ioXMLElement@@QBEHAAY0O@$$CBD@Z ENDP ; ioXMLElement::GetIntAttribute_e<14>
_TEXT	ENDS
PUBLIC	??$?8$00@ioHashString@@QAE_NAAY00$$CBD@Z	; ioHashString::operator==<1>
; Function compile flags: /Ogsp
; File d:\lost saga for developer\youtube\tutorial\source\src\io3dengine\iohashstring.h
;	COMDAT ??$?8$00@ioHashString@@QAE_NAAY00$$CBD@Z
_TEXT	SEGMENT
__t$ = -5						; size = 1
_t$ = 8							; size = 4
??$?8$00@ioHashString@@QAE_NAAY00$$CBD@Z PROC		; ioHashString::operator==<1>, COMDAT
; _this$ = ecx

; 127  : 	{

  00000	55		 push	 ebp
  00001	8b ec		 mov	 ebp, esp
  00003	51		 push	 ecx
  00004	51		 push	 ecx

; 128  : 		_ENCSTR(t, _t); return ( strcmp( m_pString, _t ) == 0 );

  00005	8b 45 08	 mov	 eax, DWORD PTR _t$[ebp]
  00008	80 38 00	 cmp	 BYTE PTR [eax], 0
  0000b	74 4b		 je	 SHORT $LN2@operator@3
  0000d	8a 50 01	 mov	 dl, BYTE PTR [eax+1]
  00010	84 d2		 test	 dl, dl
  00012	74 40		 je	 SHORT $LN95@operator@3
  00014	80 f2 ec	 xor	 dl, -20			; ffffffecH
  00017	88 55 fc	 mov	 BYTE PTR __t$[ebp+1], dl
  0001a	8a 50 02	 mov	 dl, BYTE PTR [eax+2]
  0001d	84 d2		 test	 dl, dl
  0001f	74 2d		 je	 SHORT $LN94@operator@3
  00021	80 f2 eb	 xor	 dl, -21			; ffffffebH
  00024	88 55 fd	 mov	 BYTE PTR __t$[ebp+2], dl
  00027	8a 50 03	 mov	 dl, BYTE PTR [eax+3]
  0002a	84 d2		 test	 dl, dl
  0002c	74 1a		 je	 SHORT $LN93@operator@3
  0002e	8a 40 04	 mov	 al, BYTE PTR [eax+4]
  00031	80 f2 ea	 xor	 dl, -22			; ffffffeaH
  00034	88 55 fe	 mov	 BYTE PTR __t$[ebp+3], dl
  00037	84 c0		 test	 al, al
  00039	74 07		 je	 SHORT $LN92@operator@3
  0003b	34 ed		 xor	 al, -19			; ffffffedH
  0003d	88 45 ff	 mov	 BYTE PTR __t$[ebp+4], al
  00040	eb 16		 jmp	 SHORT $LN2@operator@3
$LN92@operator@3:
  00042	c6 45 ff ed	 mov	 BYTE PTR __t$[ebp+4], -19 ; ffffffedH
  00046	eb 10		 jmp	 SHORT $LN2@operator@3
$LN93@operator@3:
  00048	c6 45 fe ea	 mov	 BYTE PTR __t$[ebp+3], -22 ; ffffffeaH
  0004c	eb 0a		 jmp	 SHORT $LN2@operator@3
$LN94@operator@3:
  0004e	c6 45 fd eb	 mov	 BYTE PTR __t$[ebp+2], -21 ; ffffffebH
  00052	eb 04		 jmp	 SHORT $LN2@operator@3
$LN95@operator@3:
  00054	c6 45 fc ec	 mov	 BYTE PTR __t$[ebp+1], -20 ; ffffffecH
$LN2@operator@3:
  00058	8b 01		 mov	 eax, DWORD PTR [ecx]
  0005a	c6 45 fb 00	 mov	 BYTE PTR __t$[ebp], 0
  0005e	8d 55 fb	 lea	 edx, DWORD PTR __t$[ebp]
$LL111@operator@3:
  00061	8a 08		 mov	 cl, BYTE PTR [eax]
  00063	3a 0a		 cmp	 cl, BYTE PTR [edx]
  00065	75 1a		 jne	 SHORT $LN112@operator@3
  00067	84 c9		 test	 cl, cl
  00069	74 12		 je	 SHORT $LN113@operator@3
  0006b	8a 48 01	 mov	 cl, BYTE PTR [eax+1]
  0006e	3a 4a 01	 cmp	 cl, BYTE PTR [edx+1]
  00071	75 0e		 jne	 SHORT $LN112@operator@3
  00073	83 c0 02	 add	 eax, 2
  00076	83 c2 02	 add	 edx, 2
  00079	84 c9		 test	 cl, cl
  0007b	75 e4		 jne	 SHORT $LL111@operator@3
$LN113@operator@3:
  0007d	33 c0		 xor	 eax, eax
  0007f	eb 05		 jmp	 SHORT $LN114@operator@3
$LN112@operator@3:
  00081	1b c0		 sbb	 eax, eax
  00083	83 d8 ff	 sbb	 eax, -1
$LN114@operator@3:
  00086	33 c9		 xor	 ecx, ecx
  00088	85 c0		 test	 eax, eax
  0008a	0f 94 c0	 sete	 al

; 129  : 	}

  0008d	c9		 leave
  0008e	c2 04 00	 ret	 4
??$?8$00@ioHashString@@QAE_NAAY00$$CBD@Z ENDP		; ioHashString::operator==<1>
_TEXT	ENDS
PUBLIC	__$ArrayPad$
PUBLIC	??$GetIntAttribute_e@$0P@@ioXMLElement@@QBEHAAY0P@$$CBD@Z ; ioXMLElement::GetIntAttribute_e<15>
; Function compile flags: /Ogsp
; File d:\lost saga for developer\youtube\tutorial\source\src\io3dengine\ioxmlelement.h
;	COMDAT ??$GetIntAttribute_e@$0P@@ioXMLElement@@QBEHAAY0P@$$CBD@Z
_TEXT	SEGMENT
__k$ = -24						; size = 15
__$ArrayPad$ = -4					; size = 4
_k$ = 8							; size = 4
??$GetIntAttribute_e@$0P@@ioXMLElement@@QBEHAAY0P@$$CBD@Z PROC ; ioXMLElement::GetIntAttribute_e<15>, COMDAT
; _this$ = ecx

; 86   : 	{

  00000	55		 push	 ebp
  00001	8b ec		 mov	 ebp, esp
  00003	83 ec 18	 sub	 esp, 24			; 00000018H
  00006	a1 00 00 00 00	 mov	 eax, DWORD PTR ___security_cookie
  0000b	33 c5		 xor	 eax, ebp
  0000d	89 45 fc	 mov	 DWORD PTR __$ArrayPad$[ebp], eax
  00010	8b 45 08	 mov	 eax, DWORD PTR _k$[ebp]

; 87   : 		_ENCSTR(k, _k);

  00013	8a 10		 mov	 dl, BYTE PTR [eax]
  00015	56		 push	 esi
  00016	8b f1		 mov	 esi, ecx
  00018	84 d2		 test	 dl, dl
  0001a	0f 84 75 01 00
	00		 je	 $LN96@GetIntAttr@5
  00020	80 f2 ed	 xor	 dl, -19			; ffffffedH
  00023	88 55 e8	 mov	 BYTE PTR __k$[ebp], dl
  00026	8a 50 01	 mov	 dl, BYTE PTR [eax+1]
  00029	84 d2		 test	 dl, dl
  0002b	0f 84 5e 01 00
	00		 je	 $LN95@GetIntAttr@5
  00031	b1 ec		 mov	 cl, -20			; ffffffecH
  00033	32 d1		 xor	 dl, cl
  00035	88 55 e9	 mov	 BYTE PTR __k$[ebp+1], dl
  00038	8a 50 02	 mov	 dl, BYTE PTR [eax+2]
  0003b	84 d2		 test	 dl, dl
  0003d	0f 84 46 01 00
	00		 je	 $LN94@GetIntAttr@5
  00043	80 f2 eb	 xor	 dl, -21			; ffffffebH
  00046	88 55 ea	 mov	 BYTE PTR __k$[ebp+2], dl
  00049	8a 50 03	 mov	 dl, BYTE PTR [eax+3]
  0004c	84 d2		 test	 dl, dl
  0004e	0f 84 2f 01 00
	00		 je	 $LN93@GetIntAttr@5
  00054	80 f2 ea	 xor	 dl, -22			; ffffffeaH
  00057	88 55 eb	 mov	 BYTE PTR __k$[ebp+3], dl
  0005a	8a 50 04	 mov	 dl, BYTE PTR [eax+4]
  0005d	84 d2		 test	 dl, dl
  0005f	0f 84 18 01 00
	00		 je	 $LN92@GetIntAttr@5
  00065	80 f2 ed	 xor	 dl, -19			; ffffffedH
  00068	88 55 ec	 mov	 BYTE PTR __k$[ebp+4], dl
  0006b	8a 50 05	 mov	 dl, BYTE PTR [eax+5]
  0006e	84 d2		 test	 dl, dl
  00070	0f 84 02 01 00
	00		 je	 $LN91@GetIntAttr@5
  00076	32 d1		 xor	 dl, cl
  00078	88 55 ed	 mov	 BYTE PTR __k$[ebp+5], dl
  0007b	8a 50 06	 mov	 dl, BYTE PTR [eax+6]
  0007e	84 d2		 test	 dl, dl
  00080	0f 84 ec 00 00
	00		 je	 $LN90@GetIntAttr@5
  00086	80 f2 eb	 xor	 dl, -21			; ffffffebH
  00089	88 55 ee	 mov	 BYTE PTR __k$[ebp+6], dl
  0008c	8a 50 07	 mov	 dl, BYTE PTR [eax+7]
  0008f	84 d2		 test	 dl, dl
  00091	0f 84 d5 00 00
	00		 je	 $LN89@GetIntAttr@5
  00097	80 f2 ea	 xor	 dl, -22			; ffffffeaH
  0009a	88 55 ef	 mov	 BYTE PTR __k$[ebp+7], dl
  0009d	8a 50 08	 mov	 dl, BYTE PTR [eax+8]
  000a0	84 d2		 test	 dl, dl
  000a2	0f 84 be 00 00
	00		 je	 $LN88@GetIntAttr@5
  000a8	80 f2 ed	 xor	 dl, -19			; ffffffedH
  000ab	88 55 f0	 mov	 BYTE PTR __k$[ebp+8], dl
  000ae	8a 50 09	 mov	 dl, BYTE PTR [eax+9]
  000b1	84 d2		 test	 dl, dl
  000b3	0f 84 a8 00 00
	00		 je	 $LN87@GetIntAttr@5
  000b9	32 d1		 xor	 dl, cl
  000bb	88 55 f1	 mov	 BYTE PTR __k$[ebp+9], dl
  000be	8a 50 0a	 mov	 dl, BYTE PTR [eax+10]
  000c1	84 d2		 test	 dl, dl
  000c3	0f 84 92 00 00
	00		 je	 $LN86@GetIntAttr@5
  000c9	80 f2 eb	 xor	 dl, -21			; ffffffebH
  000cc	88 55 f2	 mov	 BYTE PTR __k$[ebp+10], dl
  000cf	8a 50 0b	 mov	 dl, BYTE PTR [eax+11]
  000d2	84 d2		 test	 dl, dl
  000d4	74 7f		 je	 SHORT $LN85@GetIntAttr@5
  000d6	80 f2 ea	 xor	 dl, -22			; ffffffeaH
  000d9	88 55 f3	 mov	 BYTE PTR __k$[ebp+11], dl
  000dc	8a 50 0c	 mov	 dl, BYTE PTR [eax+12]
  000df	84 d2		 test	 dl, dl
  000e1	74 6c		 je	 SHORT $LN84@GetIntAttr@5
  000e3	80 f2 ed	 xor	 dl, -19			; ffffffedH
  000e6	88 55 f4	 mov	 BYTE PTR __k$[ebp+12], dl
  000e9	8a 50 0d	 mov	 dl, BYTE PTR [eax+13]
  000ec	84 d2		 test	 dl, dl
  000ee	74 5a		 je	 SHORT $LN83@GetIntAttr@5
  000f0	32 d1		 xor	 dl, cl
  000f2	80 78 0e 00	 cmp	 BYTE PTR [eax+14], 0
  000f6	88 55 f5	 mov	 BYTE PTR __k$[ebp+13], dl
  000f9	0f 84 9a 00 00
	00		 je	 $LN1@GetIntAttr@5
  000ff	8a 50 0f	 mov	 dl, BYTE PTR [eax+15]
  00102	84 d2		 test	 dl, dl
  00104	74 3e		 je	 SHORT $LN81@GetIntAttr@5
  00106	80 f2 ea	 xor	 dl, -22			; ffffffeaH
  00109	88 55 f7	 mov	 BYTE PTR __k$[ebp+15], dl
  0010c	8a 50 10	 mov	 dl, BYTE PTR [eax+16]
  0010f	84 d2		 test	 dl, dl
  00111	74 2b		 je	 SHORT $LN80@GetIntAttr@5
  00113	80 f2 ed	 xor	 dl, -19			; ffffffedH
  00116	88 55 f8	 mov	 BYTE PTR __k$[ebp+16], dl
  00119	8a 50 11	 mov	 dl, BYTE PTR [eax+17]
  0011c	84 d2		 test	 dl, dl
  0011e	74 19		 je	 SHORT $LN79@GetIntAttr@5
  00120	8a 40 12	 mov	 al, BYTE PTR [eax+18]
  00123	32 d1		 xor	 dl, cl
  00125	88 55 f9	 mov	 BYTE PTR __k$[ebp+17], dl
  00128	84 c0		 test	 al, al
  0012a	74 07		 je	 SHORT $LN78@GetIntAttr@5
  0012c	34 eb		 xor	 al, -21			; ffffffebH
  0012e	88 45 fa	 mov	 BYTE PTR __k$[ebp+18], al
  00131	eb 66		 jmp	 SHORT $LN1@GetIntAttr@5
$LN78@GetIntAttr@5:
  00133	c6 45 fa eb	 mov	 BYTE PTR __k$[ebp+18], -21 ; ffffffebH
  00137	eb 60		 jmp	 SHORT $LN1@GetIntAttr@5
$LN79@GetIntAttr@5:
  00139	88 4d f9	 mov	 BYTE PTR __k$[ebp+17], cl
  0013c	eb 5b		 jmp	 SHORT $LN1@GetIntAttr@5
$LN80@GetIntAttr@5:
  0013e	c6 45 f8 ed	 mov	 BYTE PTR __k$[ebp+16], -19 ; ffffffedH
  00142	eb 55		 jmp	 SHORT $LN1@GetIntAttr@5
$LN81@GetIntAttr@5:
  00144	c6 45 f7 ea	 mov	 BYTE PTR __k$[ebp+15], -22 ; ffffffeaH
  00148	eb 4f		 jmp	 SHORT $LN1@GetIntAttr@5
$LN83@GetIntAttr@5:
  0014a	88 4d f5	 mov	 BYTE PTR __k$[ebp+13], cl
  0014d	eb 4a		 jmp	 SHORT $LN1@GetIntAttr@5
$LN84@GetIntAttr@5:
  0014f	c6 45 f4 ed	 mov	 BYTE PTR __k$[ebp+12], -19 ; ffffffedH
  00153	eb 44		 jmp	 SHORT $LN1@GetIntAttr@5
$LN85@GetIntAttr@5:
  00155	c6 45 f3 ea	 mov	 BYTE PTR __k$[ebp+11], -22 ; ffffffeaH
  00159	eb 3e		 jmp	 SHORT $LN1@GetIntAttr@5
$LN86@GetIntAttr@5:
  0015b	c6 45 f2 eb	 mov	 BYTE PTR __k$[ebp+10], -21 ; ffffffebH
  0015f	eb 38		 jmp	 SHORT $LN1@GetIntAttr@5
$LN87@GetIntAttr@5:
  00161	88 4d f1	 mov	 BYTE PTR __k$[ebp+9], cl
  00164	eb 33		 jmp	 SHORT $LN1@GetIntAttr@5
$LN88@GetIntAttr@5:
  00166	c6 45 f0 ed	 mov	 BYTE PTR __k$[ebp+8], -19 ; ffffffedH
  0016a	eb 2d		 jmp	 SHORT $LN1@GetIntAttr@5
$LN89@GetIntAttr@5:
  0016c	c6 45 ef ea	 mov	 BYTE PTR __k$[ebp+7], -22 ; ffffffeaH
  00170	eb 27		 jmp	 SHORT $LN1@GetIntAttr@5
$LN90@GetIntAttr@5:
  00172	c6 45 ee eb	 mov	 BYTE PTR __k$[ebp+6], -21 ; ffffffebH
  00176	eb 21		 jmp	 SHORT $LN1@GetIntAttr@5
$LN91@GetIntAttr@5:
  00178	88 4d ed	 mov	 BYTE PTR __k$[ebp+5], cl
  0017b	eb 1c		 jmp	 SHORT $LN1@GetIntAttr@5
$LN92@GetIntAttr@5:
  0017d	c6 45 ec ed	 mov	 BYTE PTR __k$[ebp+4], -19 ; ffffffedH
  00181	eb 16		 jmp	 SHORT $LN1@GetIntAttr@5
$LN93@GetIntAttr@5:
  00183	c6 45 eb ea	 mov	 BYTE PTR __k$[ebp+3], -22 ; ffffffeaH
  00187	eb 10		 jmp	 SHORT $LN1@GetIntAttr@5
$LN94@GetIntAttr@5:
  00189	c6 45 ea eb	 mov	 BYTE PTR __k$[ebp+2], -21 ; ffffffebH
  0018d	eb 0a		 jmp	 SHORT $LN1@GetIntAttr@5
$LN95@GetIntAttr@5:
  0018f	c6 45 e9 ec	 mov	 BYTE PTR __k$[ebp+1], -20 ; ffffffecH
  00193	eb 04		 jmp	 SHORT $LN1@GetIntAttr@5
$LN96@GetIntAttr@5:
  00195	c6 45 e8 ed	 mov	 BYTE PTR __k$[ebp], -19	; ffffffedH
$LN1@GetIntAttr@5:
  00199	6a 03		 push	 3
  0019b	8d 45 e8	 lea	 eax, DWORD PTR __k$[ebp]
  0019e	c6 45 f6 00	 mov	 BYTE PTR __k$[ebp+14], 0
  001a2	5a		 pop	 edx
$LL104@GetIntAttr@5:
  001a3	81 30 ed ec eb
	ea		 xor	 DWORD PTR [eax], -353637139 ; eaebecedH
  001a9	83 c0 04	 add	 eax, 4
  001ac	4a		 dec	 edx
  001ad	75 f4		 jne	 SHORT $LL104@GetIntAttr@5
  001af	6a 0c		 push	 12			; 0000000cH
  001b1	58		 pop	 eax
$LL101@GetIntAttr@5:
  001b2	8b c8		 mov	 ecx, eax
  001b4	81 e1 03 00 00
	80		 and	 ecx, -2147483645	; 80000003H
  001ba	79 05		 jns	 SHORT $LN111@GetIntAttr@5
  001bc	49		 dec	 ecx
  001bd	83 c9 fc	 or	 ecx, -4			; fffffffcH
  001c0	41		 inc	 ecx
$LN111@GetIntAttr@5:
  001c1	b2 ed		 mov	 dl, -19			; ffffffedH
  001c3	2a d1		 sub	 dl, cl
  001c5	30 54 05 e8	 xor	 BYTE PTR __k$[ebp+eax], dl
  001c9	40		 inc	 eax
  001ca	83 f8 0e	 cmp	 eax, 14			; 0000000eH
  001cd	7c e3		 jl	 SHORT $LL101@GetIntAttr@5

; 88   : 		return GetIntAttribute(_k);

  001cf	8d 45 e8	 lea	 eax, DWORD PTR __k$[ebp]
  001d2	50		 push	 eax
  001d3	8b ce		 mov	 ecx, esi
  001d5	ff 15 00 00 00
	00		 call	 DWORD PTR __imp_?GetIntAttribute@ioXMLElement@@QBEHPBD@Z

; 89   : 	}

  001db	8b 4d fc	 mov	 ecx, DWORD PTR __$ArrayPad$[ebp]
  001de	33 cd		 xor	 ecx, ebp
  001e0	5e		 pop	 esi
  001e1	e8 00 00 00 00	 call	 @__security_check_cookie@4
  001e6	c9		 leave
  001e7	c2 04 00	 ret	 4
??$GetIntAttribute_e@$0P@@ioXMLElement@@QBEHAAY0P@$$CBD@Z ENDP ; ioXMLElement::GetIntAttribute_e<15>
_TEXT	ENDS
PUBLIC	??$construct@AAVioHashString@@@?$allocator@VioHashString@@@std@@QAEXPAVioHashString@@AAV2@@Z ; std::allocator<ioHashString>::construct<ioHashString &>
;	COMDAT xdata$x
; File c:\program files (x86)\microsoft visual studio 10.0\vc\include\utility
xdata$x	SEGMENT
__unwindtable$??$construct@AAVioHashString@@@?$allocator@VioHashString@@@std@@QAEXPAVioHashString@@AAV2@@Z DD 0ffffffffH
	DD	FLAT:__unwindfunclet$??$construct@AAVioHashString@@@?$allocator@VioHashString@@@std@@QAEXPAVioHashString@@AAV2@@Z$0
__ehfuncinfo$??$construct@AAVioHashString@@@?$allocator@VioHashString@@@std@@QAEXPAVioHashString@@AAV2@@Z DD 019930522H
	DD	01H
	DD	FLAT:__unwindtable$??$construct@AAVioHashString@@@?$allocator@VioHashString@@@std@@QAEXPAVioHashString@@AAV2@@Z
	DD	2 DUP(00H)
	DD	2 DUP(00H)
	DD	00H
	DD	01H
; Function compile flags: /Ogsp
; File c:\program files (x86)\microsoft visual studio 10.0\vc\include\xmemory
xdata$x	ENDS
;	COMDAT ??$construct@AAVioHashString@@@?$allocator@VioHashString@@@std@@QAEXPAVioHashString@@AAV2@@Z
_TEXT	SEGMENT
$T512791 = -16						; size = 4
__$EHRec$ = -12						; size = 12
__Ptr$ = 8						; size = 4
__Val$ = 12						; size = 4
??$construct@AAVioHashString@@@?$allocator@VioHashString@@@std@@QAEXPAVioHashString@@AAV2@@Z PROC ; std::allocator<ioHashString>::construct<ioHashString &>, COMDAT
; _this$ = ecx

; 206  : 		void construct(pointer _Ptr, _Other&& _Val)

  00000	6a 04		 push	 4
  00002	b8 00 00 00 00	 mov	 eax, __ehhandler$??$construct@AAVioHashString@@@?$allocator@VioHashString@@@std@@QAEXPAVioHashString@@AAV2@@Z
  00007	e8 00 00 00 00	 call	 __EH_prolog3

; 207  : 		{	// construct object at _Ptr with value _Val
; 208  : 		::new ((void _FARQ *)_Ptr) _Ty(_STD forward<_Other>(_Val));

  0000c	8b 4d 08	 mov	 ecx, DWORD PTR __Ptr$[ebp]
  0000f	89 4d f0	 mov	 DWORD PTR $T512791[ebp], ecx
  00012	83 65 fc 00	 and	 DWORD PTR __$EHRec$[ebp+8], 0
  00016	85 c9		 test	 ecx, ecx
  00018	74 09		 je	 SHORT $LN3@construct
  0001a	ff 75 0c	 push	 DWORD PTR __Val$[ebp]
  0001d	ff 15 00 00 00
	00		 call	 DWORD PTR __imp_??0ioHashString@@QAE@ABV0@@Z
$LN3@construct:

; 209  : 		}

  00023	e8 00 00 00 00	 call	 __EH_epilog3
  00028	c2 08 00	 ret	 8
_TEXT	ENDS
;	COMDAT text$x
text$x	SEGMENT
__unwindfunclet$??$construct@AAVioHashString@@@?$allocator@VioHashString@@@std@@QAEXPAVioHashString@@AAV2@@Z$0:
  00000	ff 75 08	 push	 DWORD PTR __Ptr$[ebp]
  00003	ff 75 f0	 push	 DWORD PTR $T512791[ebp]
  00006	e8 00 00 00 00	 call	 ??3@YAXPAX0@Z		; operator delete
  0000b	59		 pop	 ecx
  0000c	59		 pop	 ecx
  0000d	c3		 ret	 0
__ehhandler$??$construct@AAVioHashString@@@?$allocator@VioHashString@@@std@@QAEXPAVioHashString@@AAV2@@Z:
  0000e	8b 54 24 08	 mov	 edx, DWORD PTR [esp+8]
  00012	8d 42 0c	 lea	 eax, DWORD PTR [edx+12]
  00015	8b 4a ec	 mov	 ecx, DWORD PTR [edx-20]
  00018	33 c8		 xor	 ecx, eax
  0001a	e8 00 00 00 00	 call	 @__security_check_cookie@4
  0001f	b8 00 00 00 00	 mov	 eax, OFFSET __ehfuncinfo$??$construct@AAVioHashString@@@?$allocator@VioHashString@@@std@@QAEXPAVioHashString@@AAV2@@Z
  00024	e9 00 00 00 00	 jmp	 ___CxxFrameHandler3
text$x	ENDS
??$construct@AAVioHashString@@@?$allocator@VioHashString@@@std@@QAEXPAVioHashString@@AAV2@@Z ENDP ; std::allocator<ioHashString>::construct<ioHashString &>
PUBLIC	?construct@?$allocator@VioHashString@@@std@@QAEXPAVioHashString@@$$QAV3@@Z ; std::allocator<ioHashString>::construct
;	COMDAT xdata$x
; File c:\program files (x86)\microsoft visual studio 10.0\vc\include\utility
xdata$x	SEGMENT
__unwindtable$?construct@?$allocator@VioHashString@@@std@@QAEXPAVioHashString@@$$QAV3@@Z DD 0ffffffffH
	DD	FLAT:__unwindfunclet$?construct@?$allocator@VioHashString@@@std@@QAEXPAVioHashString@@$$QAV3@@Z$0
__ehfuncinfo$?construct@?$allocator@VioHashString@@@std@@QAEXPAVioHashString@@$$QAV3@@Z DD 019930522H
	DD	01H
	DD	FLAT:__unwindtable$?construct@?$allocator@VioHashString@@@std@@QAEXPAVioHashString@@$$QAV3@@Z
	DD	2 DUP(00H)
	DD	2 DUP(00H)
	DD	00H
	DD	01H
; Function compile flags: /Ogsp
; File c:\program files (x86)\microsoft visual studio 10.0\vc\include\xmemory
xdata$x	ENDS
;	COMDAT ?construct@?$allocator@VioHashString@@@std@@QAEXPAVioHashString@@$$QAV3@@Z
_TEXT	SEGMENT
$T512810 = -16						; size = 4
__$EHRec$ = -12						; size = 12
__Ptr$ = 8						; size = 4
__Val$ = 12						; size = 4
?construct@?$allocator@VioHashString@@@std@@QAEXPAVioHashString@@$$QAV3@@Z PROC ; std::allocator<ioHashString>::construct, COMDAT
; _this$ = ecx

; 201  : 		{	// construct object at _Ptr with value _Val

  00000	6a 04		 push	 4
  00002	b8 00 00 00 00	 mov	 eax, __ehhandler$?construct@?$allocator@VioHashString@@@std@@QAEXPAVioHashString@@$$QAV3@@Z
  00007	e8 00 00 00 00	 call	 __EH_prolog3

; 202  : 		::new ((void _FARQ *)_Ptr) _Ty(_STD forward<_Ty>(_Val));

  0000c	8b 4d 08	 mov	 ecx, DWORD PTR __Ptr$[ebp]
  0000f	89 4d f0	 mov	 DWORD PTR $T512810[ebp], ecx
  00012	83 65 fc 00	 and	 DWORD PTR __$EHRec$[ebp+8], 0
  00016	85 c9		 test	 ecx, ecx
  00018	74 09		 je	 SHORT $LN3@construct@2
  0001a	ff 75 0c	 push	 DWORD PTR __Val$[ebp]
  0001d	ff 15 00 00 00
	00		 call	 DWORD PTR __imp_??0ioHashString@@QAE@ABV0@@Z
$LN3@construct@2:

; 203  : 		}

  00023	e8 00 00 00 00	 call	 __EH_epilog3
  00028	c2 08 00	 ret	 8
_TEXT	ENDS
;	COMDAT text$x
text$x	SEGMENT
__unwindfunclet$?construct@?$allocator@VioHashString@@@std@@QAEXPAVioHashString@@$$QAV3@@Z$0:
  00000	ff 75 08	 push	 DWORD PTR __Ptr$[ebp]
  00003	ff 75 f0	 push	 DWORD PTR $T512810[ebp]
  00006	e8 00 00 00 00	 call	 ??3@YAXPAX0@Z		; operator delete
  0000b	59		 pop	 ecx
  0000c	59		 pop	 ecx
  0000d	c3		 ret	 0
__ehhandler$?construct@?$allocator@VioHashString@@@std@@QAEXPAVioHashString@@$$QAV3@@Z:
  0000e	8b 54 24 08	 mov	 edx, DWORD PTR [esp+8]
  00012	8d 42 0c	 lea	 eax, DWORD PTR [edx+12]
  00015	8b 4a ec	 mov	 ecx, DWORD PTR [edx-20]
  00018	33 c8		 xor	 ecx, eax
  0001a	e8 00 00 00 00	 call	 @__security_check_cookie@4
  0001f	b8 00 00 00 00	 mov	 eax, OFFSET __ehfuncinfo$?construct@?$allocator@VioHashString@@@std@@QAEXPAVioHashString@@$$QAV3@@Z
  00024	e9 00 00 00 00	 jmp	 ___CxxFrameHandler3
text$x	ENDS
?construct@?$allocator@VioHashString@@@std@@QAEXPAVioHashString@@$$QAV3@@Z ENDP ; std::allocator<ioHashString>::construct
PUBLIC	?StringCbPrintfA@@YAJPADIPBDZZ			; StringCbPrintfA
; Function compile flags: /Ogsp
; File c:\program files (x86)\microsoft sdks\windows\v7.0a\include\strsafe.h
;	COMDAT ?StringCbPrintfA@@YAJPADIPBDZZ
_TEXT	SEGMENT
_pszDest$ = 8						; size = 4
_cbDest$ = 12						; size = 4
_pszFormat$ = 16					; size = 4
?StringCbPrintfA@@YAJPADIPBDZZ PROC			; StringCbPrintfA, COMDAT

; 4767 : {

  00000	55		 push	 ebp
  00001	8b ec		 mov	 ebp, esp

; 4768 :     HRESULT hr;
; 4769 :     size_t cchDest = cbDest / sizeof(char);
; 4770 : 
; 4771 :     hr = StringValidateDestA(pszDest, cchDest, STRSAFE_MAX_CCH);

  00003	8b 4d 0c	 mov	 ecx, DWORD PTR _cbDest$[ebp]
  00006	33 c0		 xor	 eax, eax
  00008	85 c9		 test	 ecx, ecx
  0000a	74 08		 je	 SHORT $LN4@StringCbPr
  0000c	81 f9 ff ff ff
	7f		 cmp	 ecx, 2147483647		; 7fffffffH
  00012	76 05		 jbe	 SHORT $LN5@StringCbPr
$LN4@StringCbPr:
  00014	b8 57 00 07 80	 mov	 eax, -2147024809	; 80070057H
$LN5@StringCbPr:

; 4772 :     
; 4773 :     if (SUCCEEDED(hr))

  00019	85 c0		 test	 eax, eax
  0001b	78 39		 js	 SHORT $LN1@StringCbPr

; 4774 :     {
; 4775 :         va_list argList;
; 4776 : 
; 4777 :         va_start(argList, pszFormat);
; 4778 : 
; 4779 :         hr = StringVPrintfWorkerA(pszDest,
; 4780 :                                   cchDest,
; 4781 :                                   NULL,
; 4782 :                                   pszFormat,
; 4783 :                                   argList);

  0001d	53		 push	 ebx
  0001e	56		 push	 esi
  0001f	57		 push	 edi
  00020	8b 7d 08	 mov	 edi, DWORD PTR _pszDest$[ebp]
  00023	8d 45 14	 lea	 eax, DWORD PTR _pszFormat$[ebp+4]
  00026	50		 push	 eax
  00027	ff 75 10	 push	 DWORD PTR _pszFormat$[ebp]
  0002a	8d 71 ff	 lea	 esi, DWORD PTR [ecx-1]
  0002d	56		 push	 esi
  0002e	57		 push	 edi
  0002f	33 db		 xor	 ebx, ebx
  00031	ff 15 00 00 00
	00		 call	 DWORD PTR __imp___vsnprintf
  00037	83 c4 10	 add	 esp, 16			; 00000010H
  0003a	85 c0		 test	 eax, eax
  0003c	78 0b		 js	 SHORT $LN12@StringCbPr
  0003e	3b c6		 cmp	 eax, esi
  00040	77 07		 ja	 SHORT $LN12@StringCbPr
  00042	75 0d		 jne	 SHORT $LN9@StringCbPr
  00044	88 1c 3e	 mov	 BYTE PTR [esi+edi], bl
  00047	eb 08		 jmp	 SHORT $LN9@StringCbPr
$LN12@StringCbPr:
  00049	88 1c 3e	 mov	 BYTE PTR [esi+edi], bl
  0004c	bb 7a 00 07 80	 mov	 ebx, -2147024774	; 8007007aH
$LN9@StringCbPr:
  00051	5f		 pop	 edi
  00052	5e		 pop	 esi
  00053	8b c3		 mov	 eax, ebx
  00055	5b		 pop	 ebx
$LN1@StringCbPr:

; 4784 : 
; 4785 :         va_end(argList);
; 4786 :     }
; 4787 : 
; 4788 :     return hr;
; 4789 : }

  00056	5d		 pop	 ebp
  00057	c3		 ret	 0
?StringCbPrintfA@@YAJPADIPBDZZ ENDP			; StringCbPrintfA
_TEXT	ENDS
PUBLIC	?begin@?$vector@VioHashString@@V?$allocator@VioHashString@@@std@@@std@@QAE?AV?$_Vector_iterator@V?$_Vector_val@VioHashString@@V?$allocator@VioHashString@@@std@@@std@@@2@XZ ; std::vector<ioHashString,std::allocator<ioHashString> >::begin
; Function compile flags: /Ogsp
; File c:\program files (x86)\microsoft visual studio 10.0\vc\include\vector
;	COMDAT ?begin@?$vector@VioHashString@@V?$allocator@VioHashString@@@std@@@std@@QAE?AV?$_Vector_iterator@V?$_Vector_val@VioHashString@@V?$allocator@VioHashString@@@std@@@std@@@2@XZ
_TEXT	SEGMENT
___$ReturnUdt$ = 8					; size = 4
?begin@?$vector@VioHashString@@V?$allocator@VioHashString@@@std@@@std@@QAE?AV?$_Vector_iterator@V?$_Vector_val@VioHashString@@V?$allocator@VioHashString@@@std@@@std@@@2@XZ PROC ; std::vector<ioHashString,std::allocator<ioHashString> >::begin, COMDAT
; _this$ = ecx

; 781  : 		{	// return iterator for beginning of mutable sequence

  00000	55		 push	 ebp
  00001	8b ec		 mov	 ebp, esp

; 782  : 		return (iterator(this->_Myfirst, this));

  00003	8b 09		 mov	 ecx, DWORD PTR [ecx]
  00005	8b 45 08	 mov	 eax, DWORD PTR ___$ReturnUdt$[ebp]
  00008	89 08		 mov	 DWORD PTR [eax], ecx

; 783  : 		}

  0000a	5d		 pop	 ebp
  0000b	c2 04 00	 ret	 4
?begin@?$vector@VioHashString@@V?$allocator@VioHashString@@@std@@@std@@QAE?AV?$_Vector_iterator@V?$_Vector_val@VioHashString@@V?$allocator@VioHashString@@@std@@@std@@@2@XZ ENDP ; std::vector<ioHashString,std::allocator<ioHashString> >::begin
_TEXT	ENDS
PUBLIC	?end@?$vector@VioHashString@@V?$allocator@VioHashString@@@std@@@std@@QAE?AV?$_Vector_iterator@V?$_Vector_val@VioHashString@@V?$allocator@VioHashString@@@std@@@std@@@2@XZ ; std::vector<ioHashString,std::allocator<ioHashString> >::end
; Function compile flags: /Ogsp
;	COMDAT ?end@?$vector@VioHashString@@V?$allocator@VioHashString@@@std@@@std@@QAE?AV?$_Vector_iterator@V?$_Vector_val@VioHashString@@V?$allocator@VioHashString@@@std@@@std@@@2@XZ
_TEXT	SEGMENT
___$ReturnUdt$ = 8					; size = 4
?end@?$vector@VioHashString@@V?$allocator@VioHashString@@@std@@@std@@QAE?AV?$_Vector_iterator@V?$_Vector_val@VioHashString@@V?$allocator@VioHashString@@@std@@@std@@@2@XZ PROC ; std::vector<ioHashString,std::allocator<ioHashString> >::end, COMDAT
; _this$ = ecx

; 791  : 		{	// return iterator for end of mutable sequence

  00000	55		 push	 ebp
  00001	8b ec		 mov	 ebp, esp

; 792  : 		return (iterator(this->_Mylast, this));

  00003	8b 49 04	 mov	 ecx, DWORD PTR [ecx+4]
  00006	8b 45 08	 mov	 eax, DWORD PTR ___$ReturnUdt$[ebp]
  00009	89 08		 mov	 DWORD PTR [eax], ecx

; 793  : 		}

  0000b	5d		 pop	 ebp
  0000c	c2 04 00	 ret	 4
?end@?$vector@VioHashString@@V?$allocator@VioHashString@@@std@@@std@@QAE?AV?$_Vector_iterator@V?$_Vector_val@VioHashString@@V?$allocator@VioHashString@@@std@@@std@@@2@XZ ENDP ; std::vector<ioHashString,std::allocator<ioHashString> >::end
_TEXT	ENDS
PUBLIC	??0?$_Vector_val@VioHashString@@V?$allocator@VioHashString@@@std@@@std@@QAE@V?$allocator@VioHashString@@@1@@Z ; std::_Vector_val<ioHashString,std::allocator<ioHashString> >::_Vector_val<ioHashString,std::allocator<ioHashString> >
; Function compile flags: /Ogsp
;	COMDAT ??0?$_Vector_val@VioHashString@@V?$allocator@VioHashString@@@std@@@std@@QAE@V?$allocator@VioHashString@@@1@@Z
_TEXT	SEGMENT
__Al$ = 8						; size = 1
??0?$_Vector_val@VioHashString@@V?$allocator@VioHashString@@@std@@@std@@QAE@V?$allocator@VioHashString@@@1@@Z PROC ; std::_Vector_val<ioHashString,std::allocator<ioHashString> >::_Vector_val<ioHashString,std::allocator<ioHashString> >, COMDAT
; _this$ = ecx

; 426  : 		{	// construct allocator from _Al

  00000	8b c1		 mov	 eax, ecx

; 427  : 		_Myfirst = 0;

  00002	33 c9		 xor	 ecx, ecx
  00004	89 08		 mov	 DWORD PTR [eax], ecx

; 428  : 		_Mylast = 0;

  00006	89 48 04	 mov	 DWORD PTR [eax+4], ecx

; 429  : 		_Myend = 0;

  00009	89 48 08	 mov	 DWORD PTR [eax+8], ecx

; 430  : 		}

  0000c	c2 04 00	 ret	 4
??0?$_Vector_val@VioHashString@@V?$allocator@VioHashString@@@std@@@std@@QAE@V?$allocator@VioHashString@@@1@@Z ENDP ; std::_Vector_val<ioHashString,std::allocator<ioHashString> >::_Vector_val<ioHashString,std::allocator<ioHashString> >
_TEXT	ENDS
PUBLIC	?_Make_iter@?$vector@VioHashString@@V?$allocator@VioHashString@@@std@@@std@@QBE?AV?$_Vector_iterator@V?$_Vector_val@VioHashString@@V?$allocator@VioHashString@@@std@@@std@@@2@V?$_Vector_const_iterator@V?$_Vector_val@VioHashString@@V?$allocator@VioHashString@@@std@@@std@@@2@@Z ; std::vector<ioHashString,std::allocator<ioHashString> >::_Make_iter
; Function compile flags: /Ogsp
;	COMDAT ?_Make_iter@?$vector@VioHashString@@V?$allocator@VioHashString@@@std@@@std@@QBE?AV?$_Vector_iterator@V?$_Vector_val@VioHashString@@V?$allocator@VioHashString@@@std@@@std@@@2@V?$_Vector_const_iterator@V?$_Vector_val@VioHashString@@V?$allocator@VioHashString@@@std@@@std@@@2@@Z
_TEXT	SEGMENT
___$ReturnUdt$ = 8					; size = 4
__Where$ = 12						; size = 4
?_Make_iter@?$vector@VioHashString@@V?$allocator@VioHashString@@@std@@@std@@QBE?AV?$_Vector_iterator@V?$_Vector_val@VioHashString@@V?$allocator@VioHashString@@@std@@@std@@@2@V?$_Vector_const_iterator@V?$_Vector_val@VioHashString@@V?$allocator@VioHashString@@@std@@@std@@@2@@Z PROC ; std::vector<ioHashString,std::allocator<ioHashString> >::_Make_iter, COMDAT
; _this$ = ecx

; 801  : 		{	// make iterator from const_iterator

  00000	55		 push	 ebp
  00001	8b ec		 mov	 ebp, esp

; 802  : 		return (iterator(_Where._Ptr, this));

  00003	8b 45 08	 mov	 eax, DWORD PTR ___$ReturnUdt$[ebp]
  00006	8b 4d 0c	 mov	 ecx, DWORD PTR __Where$[ebp]
  00009	89 08		 mov	 DWORD PTR [eax], ecx

; 803  : 		}

  0000b	5d		 pop	 ebp
  0000c	c2 08 00	 ret	 8
?_Make_iter@?$vector@VioHashString@@V?$allocator@VioHashString@@@std@@@std@@QBE?AV?$_Vector_iterator@V?$_Vector_val@VioHashString@@V?$allocator@VioHashString@@@std@@@std@@@2@V?$_Vector_const_iterator@V?$_Vector_val@VioHashString@@V?$allocator@VioHashString@@@std@@@std@@@2@@Z ENDP ; std::vector<ioHashString,std::allocator<ioHashString> >::_Make_iter
_TEXT	ENDS
PUBLIC	?max_size@?$vector@VioHashString@@V?$allocator@VioHashString@@@std@@@std@@QBEIXZ ; std::vector<ioHashString,std::allocator<ioHashString> >::max_size
; Function compile flags: /Ogsp
;	COMDAT ?max_size@?$vector@VioHashString@@V?$allocator@VioHashString@@@std@@@std@@QBEIXZ
_TEXT	SEGMENT
?max_size@?$vector@VioHashString@@V?$allocator@VioHashString@@@std@@@std@@QBEIXZ PROC ; std::vector<ioHashString,std::allocator<ioHashString> >::max_size, COMDAT
; _this$ = ecx

; 884  : 		return (this->_Alval.max_size());

  00000	b8 ff ff ff 0f	 mov	 eax, 268435455		; 0fffffffH

; 885  : 		}

  00005	c3		 ret	 0
?max_size@?$vector@VioHashString@@V?$allocator@VioHashString@@@std@@@std@@QBEIXZ ENDP ; std::vector<ioHashString,std::allocator<ioHashString> >::max_size
_TEXT	ENDS
PUBLIC	?allocate@?$allocator@VioHashString@@@std@@QAEPAVioHashString@@I@Z ; std::allocator<ioHashString>::allocate
; Function compile flags: /Ogsp
; File c:\program files (x86)\microsoft visual studio 10.0\vc\include\xmemory
;	COMDAT ?allocate@?$allocator@VioHashString@@@std@@QAEPAVioHashString@@I@Z
_TEXT	SEGMENT
__Count$ = 8						; size = 4
?allocate@?$allocator@VioHashString@@@std@@QAEPAVioHashString@@I@Z PROC ; std::allocator<ioHashString>::allocate, COMDAT
; _this$ = ecx

; 186  : 		{	// allocate array of _Count elements

  00000	55		 push	 ebp
  00001	8b ec		 mov	 ebp, esp

; 187  : 		return (_Allocate(_Count, (pointer)0));

  00003	6a 00		 push	 0
  00005	ff 75 08	 push	 DWORD PTR __Count$[ebp]
  00008	e8 00 00 00 00	 call	 ??$_Allocate@VioHashString@@@std@@YAPAVioHashString@@IPAV1@@Z ; std::_Allocate<ioHashString>
  0000d	59		 pop	 ecx
  0000e	59		 pop	 ecx

; 188  : 		}

  0000f	5d		 pop	 ebp
  00010	c2 04 00	 ret	 4
?allocate@?$allocator@VioHashString@@@std@@QAEPAVioHashString@@I@Z ENDP ; std::allocator<ioHashString>::allocate
_TEXT	ENDS
PUBLIC	??8?$_Vector_const_iterator@V?$_Vector_val@VioHashString@@V?$allocator@VioHashString@@@std@@@std@@@std@@QBE_NABV01@@Z ; std::_Vector_const_iterator<std::_Vector_val<ioHashString,std::allocator<ioHashString> > >::operator==
; Function compile flags: /Ogsp
; File c:\program files (x86)\microsoft visual studio 10.0\vc\include\vector
;	COMDAT ??8?$_Vector_const_iterator@V?$_Vector_val@VioHashString@@V?$allocator@VioHashString@@@std@@@std@@@std@@QBE_NABV01@@Z
_TEXT	SEGMENT
__Right$ = 8						; size = 4
??8?$_Vector_const_iterator@V?$_Vector_val@VioHashString@@V?$allocator@VioHashString@@@std@@@std@@@std@@QBE_NABV01@@Z PROC ; std::_Vector_const_iterator<std::_Vector_val<ioHashString,std::allocator<ioHashString> > >::operator==, COMDAT
; _this$ = ecx

; 201  : 		{	// test for iterator equality

  00000	55		 push	 ebp
  00001	8b ec		 mov	 ebp, esp

; 202  : 		_Compat(_Right);
; 203  : 		return (this->_Ptr == _Right._Ptr);

  00003	8b 01		 mov	 eax, DWORD PTR [ecx]
  00005	8b 4d 08	 mov	 ecx, DWORD PTR __Right$[ebp]
  00008	2b 01		 sub	 eax, DWORD PTR [ecx]
  0000a	f7 d8		 neg	 eax
  0000c	1b c0		 sbb	 eax, eax
  0000e	40		 inc	 eax

; 204  : 		}

  0000f	5d		 pop	 ebp
  00010	c2 04 00	 ret	 4
??8?$_Vector_const_iterator@V?$_Vector_val@VioHashString@@V?$allocator@VioHashString@@@std@@@std@@@std@@QBE_NABV01@@Z ENDP ; std::_Vector_const_iterator<std::_Vector_val<ioHashString,std::allocator<ioHashString> > >::operator==
_TEXT	ENDS
PUBLIC	??$_Move@PAVioHashString@@PAV1@@std@@YAPAVioHashString@@PAV1@00U_Nonscalar_ptr_iterator_tag@0@@Z ; std::_Move<ioHashString *,ioHashString *>
EXTRN	__imp_??4ioHashString@@QAEAAV0@ABV0@@Z:PROC
; Function compile flags: /Ogsp
; File c:\program files (x86)\microsoft visual studio 10.0\vc\include\xutility
;	COMDAT ??$_Move@PAVioHashString@@PAV1@@std@@YAPAVioHashString@@PAV1@00U_Nonscalar_ptr_iterator_tag@0@@Z
_TEXT	SEGMENT
__First$ = 8						; size = 4
__Last$ = 12						; size = 4
__Dest$ = 16						; size = 4
___formal$ = 20						; size = 1
??$_Move@PAVioHashString@@PAV1@@std@@YAPAVioHashString@@PAV1@00U_Nonscalar_ptr_iterator_tag@0@@Z PROC ; std::_Move<ioHashString *,ioHashString *>, COMDAT

; 2512 : 	{	// move [_First, _Last) to [_Dest, ...), arbitrary iterators

  00000	55		 push	 ebp
  00001	8b ec		 mov	 ebp, esp
  00003	56		 push	 esi

; 2513 : 	for (; _First != _Last; ++_Dest, ++_First)

  00004	8b 75 08	 mov	 esi, DWORD PTR __First$[ebp]
  00007	eb 11		 jmp	 SHORT $LN11@Move
$LL3@Move:

; 2514 : 		*_Dest = _STD move(*_First);

  00009	8b 4d 10	 mov	 ecx, DWORD PTR __Dest$[ebp]
  0000c	56		 push	 esi
  0000d	ff 15 00 00 00
	00		 call	 DWORD PTR __imp_??4ioHashString@@QAEAAV0@ABV0@@Z
  00013	83 45 10 10	 add	 DWORD PTR __Dest$[ebp], 16 ; 00000010H
  00017	83 c6 10	 add	 esi, 16			; 00000010H
$LN11@Move:

; 2513 : 	for (; _First != _Last; ++_Dest, ++_First)

  0001a	3b 75 0c	 cmp	 esi, DWORD PTR __Last$[ebp]
  0001d	75 ea		 jne	 SHORT $LL3@Move

; 2515 : 	return (_Dest);

  0001f	8b 45 10	 mov	 eax, DWORD PTR __Dest$[ebp]
  00022	5e		 pop	 esi

; 2516 : 	}

  00023	5d		 pop	 ebp
  00024	c3		 ret	 0
??$_Move@PAVioHashString@@PAV1@@std@@YAPAVioHashString@@PAV1@00U_Nonscalar_ptr_iterator_tag@0@@Z ENDP ; std::_Move<ioHashString *,ioHashString *>
_TEXT	ENDS
PUBLIC	??$_Destroy@VioHashString@@@std@@YAXPAVioHashString@@@Z ; std::_Destroy<ioHashString>
; Function compile flags: /Ogsp
; File c:\program files (x86)\microsoft visual studio 10.0\vc\include\xmemory
;	COMDAT ??$_Destroy@VioHashString@@@std@@YAXPAVioHashString@@@Z
_TEXT	SEGMENT
__Ptr$ = 8						; size = 4
??$_Destroy@VioHashString@@@std@@YAXPAVioHashString@@@Z PROC ; std::_Destroy<ioHashString>, COMDAT

; 62   : 	{	// destroy object at _Ptr

  00000	55		 push	 ebp
  00001	8b ec		 mov	 ebp, esp

; 63   : 	_Ptr->~_Ty();

  00003	8b 4d 08	 mov	 ecx, DWORD PTR __Ptr$[ebp]

; 64   : 	}

  00006	5d		 pop	 ebp

; 63   : 	_Ptr->~_Ty();

  00007	ff 25 00 00 00
	00		 jmp	 DWORD PTR __imp_??1ioHashString@@QAE@XZ
??$_Destroy@VioHashString@@@std@@YAXPAVioHashString@@@Z ENDP ; std::_Destroy<ioHashString>
_TEXT	ENDS
PUBLIC	?construct@?$allocator@VioHashString@@@std@@QAEXPAVioHashString@@ABV3@@Z ; std::allocator<ioHashString>::construct
; Function compile flags: /Ogsp
;	COMDAT ?construct@?$allocator@VioHashString@@@std@@QAEXPAVioHashString@@ABV3@@Z
_TEXT	SEGMENT
__Ptr$ = 8						; size = 4
__Val$ = 12						; size = 4
?construct@?$allocator@VioHashString@@@std@@QAEXPAVioHashString@@ABV3@@Z PROC ; std::allocator<ioHashString>::construct, COMDAT
; _this$ = ecx

; 196  : 		{	// construct object at _Ptr with value _Val

  00000	55		 push	 ebp
  00001	8b ec		 mov	 ebp, esp

; 197  : 		_Construct(_Ptr, _Val);

  00003	ff 75 0c	 push	 DWORD PTR __Val$[ebp]
  00006	ff 75 08	 push	 DWORD PTR __Ptr$[ebp]
  00009	e8 00 00 00 00	 call	 ??$_Construct@VioHashString@@ABV1@@std@@YAXPAVioHashString@@ABV1@@Z ; std::_Construct<ioHashString,ioHashString const &>
  0000e	59		 pop	 ecx
  0000f	59		 pop	 ecx

; 198  : 		}

  00010	5d		 pop	 ebp
  00011	c2 08 00	 ret	 8
?construct@?$allocator@VioHashString@@@std@@QAEXPAVioHashString@@ABV3@@Z ENDP ; std::allocator<ioHashString>::construct
_TEXT	ENDS
PUBLIC	_pImage$GSCopy$
PUBLIC	_this$GSCopy$
PUBLIC	_szType$GSCopy$
PUBLIC	__$ArrayPad$
PUBLIC	?AddRenderImage@RandomDecoWnd@@UAEXABVioHashString@@PAVioUIRenderImage@@@Z ; RandomDecoWnd::AddRenderImage
EXTRN	__imp_?AddRenderImage@ioWnd@@UAEXABVioHashString@@PAVioUIRenderImage@@@Z:PROC
; Function compile flags: /Ogsp
; File d:\lost saga for developer\youtube\tutorial\source\src\lsclient\gui\randomdecownd.cpp
;	COMDAT ?AddRenderImage@RandomDecoWnd@@UAEXABVioHashString@@PAVioUIRenderImage@@@Z
_TEXT	SEGMENT
_pImage$GSCopy$ = -40					; size = 4
_this$GSCopy$ = -36					; size = 4
_szType$GSCopy$ = -32					; size = 4
__t$513107 = -28					; size = 18
__t$512969 = -24					; size = 12
__$ArrayPad$ = -4					; size = 4
_szType$ = 8						; size = 4
_pImage$ = 12						; size = 4
?AddRenderImage@RandomDecoWnd@@UAEXABVioHashString@@PAVioUIRenderImage@@@Z PROC ; RandomDecoWnd::AddRenderImage, COMDAT
; _this$ = ecx

; 83   : {

  00000	55		 push	 ebp
  00001	8b ec		 mov	 ebp, esp
  00003	83 ec 28	 sub	 esp, 40			; 00000028H
  00006	a1 00 00 00 00	 mov	 eax, DWORD PTR ___security_cookie
  0000b	33 c5		 xor	 eax, ebp
  0000d	89 45 fc	 mov	 DWORD PTR __$ArrayPad$[ebp], eax
  00010	8b 45 08	 mov	 eax, DWORD PTR _szType$[ebp]
  00013	56		 push	 esi
  00014	57		 push	 edi

; 90   : 	{
; 91   : 		SAFEDELETE( m_pFinalBackEffect );

  00015	89 45 e0	 mov	 DWORD PTR _szType$GSCopy$[ebp], eax
  00018	8b 45 0c	 mov	 eax, DWORD PTR _pImage$[ebp]
  0001b	6a 02		 push	 2
  0001d	89 4d dc	 mov	 DWORD PTR _this$GSCopy$[ebp], ecx
  00020	89 45 d8	 mov	 DWORD PTR _pImage$GSCopy$[ebp], eax
  00023	c7 45 e8 8f 8d
	88 81		 mov	 DWORD PTR __t$512969[ebp], -2121757297 ; 81888d8fH
  0002a	c7 45 ec b2 89
	8d 8c		 mov	 DWORD PTR __t$512969[ebp+4], -1936881230 ; 8c8d89b2H
  00031	8d 45 e8	 lea	 eax, DWORD PTR __t$512969[ebp]
  00034	c7 45 f0 88 8f
	9f 00		 mov	 DWORD PTR __t$512969[ebp+8], 10456968 ; 009f8f88H
  0003b	59		 pop	 ecx
  0003c	bf ed ec eb ea	 mov	 edi, -353637139		; eaebecedH
$LL116@AddRenderI:

; 84   : 	if( szType == "back_effect" )

  00041	31 38		 xor	 DWORD PTR [eax], edi
  00043	83 c0 04	 add	 eax, 4
  00046	49		 dec	 ecx
  00047	75 f8		 jne	 SHORT $LL116@AddRenderI
  00049	6a 08		 push	 8
  0004b	58		 pop	 eax
$LL113@AddRenderI:
  0004c	8b c8		 mov	 ecx, eax
  0004e	81 e1 03 00 00
	80		 and	 ecx, -2147483645	; 80000003H
  00054	79 05		 jns	 SHORT $LN242@AddRenderI
  00056	49		 dec	 ecx
  00057	83 c9 fc	 or	 ecx, -4			; fffffffcH
  0005a	41		 inc	 ecx
$LN242@AddRenderI:
  0005b	b2 ed		 mov	 dl, -19			; ffffffedH
  0005d	2a d1		 sub	 dl, cl
  0005f	30 54 05 e8	 xor	 BYTE PTR __t$512969[ebp+eax], dl
  00063	40		 inc	 eax
  00064	83 f8 0b	 cmp	 eax, 11			; 0000000bH
  00067	7c e3		 jl	 SHORT $LL113@AddRenderI
  00069	8b 4d e0	 mov	 ecx, DWORD PTR _szType$GSCopy$[ebp]
  0006c	8d 75 e8	 lea	 esi, DWORD PTR __t$512969[ebp]
  0006f	ff 15 00 00 00
	00		 call	 DWORD PTR __imp_?c_str@ioHashString@@QBEPBDXZ
$LL234@AddRenderI:
  00075	8a 08		 mov	 cl, BYTE PTR [eax]
  00077	3a 0e		 cmp	 cl, BYTE PTR [esi]
  00079	75 1a		 jne	 SHORT $LN235@AddRenderI
  0007b	84 c9		 test	 cl, cl
  0007d	74 12		 je	 SHORT $LN236@AddRenderI
  0007f	8a 48 01	 mov	 cl, BYTE PTR [eax+1]
  00082	3a 4e 01	 cmp	 cl, BYTE PTR [esi+1]
  00085	75 0e		 jne	 SHORT $LN235@AddRenderI
  00087	83 c0 02	 add	 eax, 2
  0008a	83 c6 02	 add	 esi, 2
  0008d	84 c9		 test	 cl, cl
  0008f	75 e4		 jne	 SHORT $LL234@AddRenderI
$LN236@AddRenderI:
  00091	33 c0		 xor	 eax, eax
  00093	eb 05		 jmp	 SHORT $LN237@AddRenderI
$LN235@AddRenderI:
  00095	1b c0		 sbb	 eax, eax
  00097	83 d8 ff	 sbb	 eax, -1
$LN237@AddRenderI:
  0009a	85 c0		 test	 eax, eax
  0009c	75 29		 jne	 SHORT $LN233@AddRenderI

; 85   : 	{
; 86   : 		SAFEDELETE( m_pBackEffect );

  0009e	8b 75 dc	 mov	 esi, DWORD PTR _this$GSCopy$[ebp]
  000a1	8b 8e 68 01 00
	00		 mov	 ecx, DWORD PTR [esi+360]
  000a7	85 c9		 test	 ecx, ecx
  000a9	74 0e		 je	 SHORT $LN5@AddRenderI
  000ab	8b 01		 mov	 eax, DWORD PTR [ecx]
  000ad	6a 01		 push	 1
  000af	ff 50 40	 call	 DWORD PTR [eax+64]
  000b2	83 a6 68 01 00
	00 00		 and	 DWORD PTR [esi+360], 0
$LN5@AddRenderI:

; 87   : 		m_pBackEffect = pImage;

  000b9	8b 45 d8	 mov	 eax, DWORD PTR _pImage$GSCopy$[ebp]
  000bc	89 86 68 01 00
	00		 mov	 DWORD PTR [esi+360], eax
  000c2	e9 9e 00 00 00	 jmp	 $LN1@AddRenderI
$LN233@AddRenderI:

; 88   : 	}
; 89   : 	else if( szType == "final_back_effect" )

  000c7	6a 04		 push	 4
  000c9	c7 45 e4 8b 85
	85 8b		 mov	 DWORD PTR __t$513107[ebp], -1954183797 ; 8b85858bH
  000d0	c7 45 e8 81 b3
	89 8b		 mov	 DWORD PTR __t$513107[ebp+4], -1953909887 ; 8b89b381H
  000d7	c7 45 ec 8e 87
	b4 8f		 mov	 DWORD PTR __t$513107[ebp+8], -1883994226 ; 8fb4878eH
  000de	c7 45 f0 8b 8a
	8e 89		 mov	 DWORD PTR __t$513107[ebp+12], -1987147125 ; 898e8a8bH
  000e5	8d 45 e4	 lea	 eax, DWORD PTR __t$513107[ebp]
  000e8	66 c7 45 f4 99
	00		 mov	 WORD PTR __t$513107[ebp+16], 153 ; 00000099H
  000ee	59		 pop	 ecx
$LL222@AddRenderI:
  000ef	31 38		 xor	 DWORD PTR [eax], edi
  000f1	83 c0 04	 add	 eax, 4
  000f4	49		 dec	 ecx
  000f5	75 f8		 jne	 SHORT $LL222@AddRenderI
  000f7	8b 4d e0	 mov	 ecx, DWORD PTR _szType$GSCopy$[ebp]
  000fa	80 75 f4 ed	 xor	 BYTE PTR __t$513107[ebp+16], -19 ; ffffffedH
  000fe	8d 75 e4	 lea	 esi, DWORD PTR __t$513107[ebp]
  00101	ff 15 00 00 00
	00		 call	 DWORD PTR __imp_?c_str@ioHashString@@QBEPBDXZ
$LL238@AddRenderI:
  00107	8a 08		 mov	 cl, BYTE PTR [eax]
  00109	3a 0e		 cmp	 cl, BYTE PTR [esi]
  0010b	75 1a		 jne	 SHORT $LN239@AddRenderI
  0010d	84 c9		 test	 cl, cl
  0010f	74 12		 je	 SHORT $LN240@AddRenderI
  00111	8a 48 01	 mov	 cl, BYTE PTR [eax+1]
  00114	3a 4e 01	 cmp	 cl, BYTE PTR [esi+1]
  00117	75 0e		 jne	 SHORT $LN239@AddRenderI
  00119	83 c0 02	 add	 eax, 2
  0011c	83 c6 02	 add	 esi, 2
  0011f	84 c9		 test	 cl, cl
  00121	75 e4		 jne	 SHORT $LL238@AddRenderI
$LN240@AddRenderI:
  00123	33 c0		 xor	 eax, eax
  00125	eb 05		 jmp	 SHORT $LN241@AddRenderI
$LN239@AddRenderI:
  00127	1b c0		 sbb	 eax, eax
  00129	83 d8 ff	 sbb	 eax, -1
$LN241@AddRenderI:
  0012c	85 c0		 test	 eax, eax
  0012e	75 26		 jne	 SHORT $LN3@AddRenderI

; 90   : 	{
; 91   : 		SAFEDELETE( m_pFinalBackEffect );

  00130	8b 75 dc	 mov	 esi, DWORD PTR _this$GSCopy$[ebp]
  00133	8b 8e 6c 01 00
	00		 mov	 ecx, DWORD PTR [esi+364]
  00139	85 c9		 test	 ecx, ecx
  0013b	74 0e		 je	 SHORT $LN2@AddRenderI
  0013d	8b 01		 mov	 eax, DWORD PTR [ecx]
  0013f	6a 01		 push	 1
  00141	ff 50 40	 call	 DWORD PTR [eax+64]
  00144	83 a6 6c 01 00
	00 00		 and	 DWORD PTR [esi+364], 0
$LN2@AddRenderI:

; 92   : 		m_pFinalBackEffect = pImage;

  0014b	8b 45 d8	 mov	 eax, DWORD PTR _pImage$GSCopy$[ebp]
  0014e	89 86 6c 01 00
	00		 mov	 DWORD PTR [esi+364], eax

; 93   : 	}
; 94   : 	else

  00154	eb 0f		 jmp	 SHORT $LN1@AddRenderI
$LN3@AddRenderI:

; 95   : 		ioWnd::AddRenderImage( szType, pImage );

  00156	ff 75 d8	 push	 DWORD PTR _pImage$GSCopy$[ebp]
  00159	8b 4d dc	 mov	 ecx, DWORD PTR _this$GSCopy$[ebp]
  0015c	ff 75 e0	 push	 DWORD PTR _szType$GSCopy$[ebp]
  0015f	ff 15 00 00 00
	00		 call	 DWORD PTR __imp_?AddRenderImage@ioWnd@@UAEXABVioHashString@@PAVioUIRenderImage@@@Z
$LN1@AddRenderI:

; 96   : }

  00165	8b 4d fc	 mov	 ecx, DWORD PTR __$ArrayPad$[ebp]
  00168	5f		 pop	 edi
  00169	33 cd		 xor	 ecx, ebp
  0016b	5e		 pop	 esi
  0016c	e8 00 00 00 00	 call	 @__security_check_cookie@4
  00171	c9		 leave
  00172	c2 08 00	 ret	 8
?AddRenderImage@RandomDecoWnd@@UAEXABVioHashString@@PAVioUIRenderImage@@@Z ENDP ; RandomDecoWnd::AddRenderImage
_TEXT	ENDS
PUBLIC	?ShowRandomBox@RandomDecoWnd@@QAEX_N@Z		; RandomDecoWnd::ShowRandomBox
EXTRN	__imp_?PlaySoundA@ioSoundManager@@QAEKABVioHashString@@HK@Z:PROC
EXTRN	?GetSingletonPtr@ioEtcInvenSubManualMgr@@SAPAV1@XZ:PROC ; ioEtcInvenSubManualMgr::GetSingletonPtr
; Function compile flags: /Ogsp
;	COMDAT ?ShowRandomBox@RandomDecoWnd@@QAEX_N@Z
_TEXT	SEGMENT
_bMan$ = 8						; size = 1
?ShowRandomBox@RandomDecoWnd@@QAEX_N@Z PROC		; RandomDecoWnd::ShowRandomBox, COMDAT
; _this$ = ecx

; 164  : {

  00000	55		 push	 ebp
  00001	8b ec		 mov	 ebp, esp
  00003	53		 push	 ebx
  00004	56		 push	 esi
  00005	57		 push	 edi
  00006	8b f1		 mov	 esi, ecx

; 165  : 	m_pManual = ioEtcInvenSubManualMgr::GetSingletonPtr();

  00008	e8 00 00 00 00	 call	 ?GetSingletonPtr@ioEtcInvenSubManualMgr@@SAPAV1@XZ ; ioEtcInvenSubManualMgr::GetSingletonPtr

; 166  : 
; 167  : 	ShowWnd();

  0000d	8b ce		 mov	 ecx, esi
  0000f	89 86 70 01 00
	00		 mov	 DWORD PTR [esi+368], eax
  00015	ff 15 00 00 00
	00		 call	 DWORD PTR __imp_?ShowWnd@ioWnd@@QAEXXZ

; 168  : 
; 169  : 	m_bMan = bMan;

  0001b	8a 45 08	 mov	 al, BYTE PTR _bMan$[ebp]

; 170  : 
; 171  : 	m_bResult = false;

  0001e	33 db		 xor	 ebx, ebx
  00020	88 86 74 01 00
	00		 mov	 BYTE PTR [esi+372], al

; 172  : 	m_bFinalResult = false;
; 173  : 	m_iPresentType   = 0;

  00026	33 c0		 xor	 eax, eax
  00028	66 89 9e d4 01
	00 00		 mov	 WORD PTR [esi+468], bx
  0002f	66 89 86 b8 01
	00 00		 mov	 WORD PTR [esi+440], ax

; 174  : 	m_iPresentValue1 = 0;

  00036	89 9e bc 01 00
	00		 mov	 DWORD PTR [esi+444], ebx

; 175  : 	m_iPresentValue2 = 0;

  0003c	89 9e c0 01 00
	00		 mov	 DWORD PTR [esi+448], ebx

; 176  : 	m_iPresentValue3 = 0;

  00042	89 9e c4 01 00
	00		 mov	 DWORD PTR [esi+452], ebx

; 177  : 	m_iPresentValue4 = 0;

  00048	89 9e c8 01 00
	00		 mov	 DWORD PTR [esi+456], ebx

; 178  : 	m_bAlarm         = false;

  0004e	88 9e cc 01 00
	00		 mov	 BYTE PTR [esi+460], bl

; 179  : 	m_iPresentPeso   = 0;

  00054	89 9e d0 01 00
	00		 mov	 DWORD PTR [esi+464], ebx

; 180  : 
; 181  : 	DWORD dwCurTime = FRAMEGETTIME();

  0005a	ff 15 00 00 00
	00		 call	 DWORD PTR __imp_?GetSingleton@ioFrameTimer@@SAAAV1@XZ
  00060	8b c8		 mov	 ecx, eax
  00062	ff 15 00 00 00
	00		 call	 DWORD PTR __imp_?GetLoopSec@ioFrameTimer@@QBEKXZ

; 182  : 	m_dwRollingEndTime = dwCurTime + m_dwRollingTotalTime;

  00068	8b 8e e4 01 00
	00		 mov	 ecx, DWORD PTR [esi+484]

; 183  : 	m_dwRollingCheckTime = 0;
; 184  : 	m_dwRollingEffectCheckTime = 0;
; 185  : 
; 186  : 	m_iCurIconArray = -1;

  0006e	83 8e f4 01 00
	00 ff		 or	 DWORD PTR [esi+500], -1

; 187  : 	m_iCurEffectArray = -1;

  00075	83 8e e8 01 00
	00 ff		 or	 DWORD PTR [esi+488], -1
  0007c	03 c8		 add	 ecx, eax
  0007e	89 8e fc 01 00
	00		 mov	 DWORD PTR [esi+508], ecx

; 188  : 
; 189  : 	SAFEDELETE(m_pIcon);

  00084	8b 8e 60 01 00
	00		 mov	 ecx, DWORD PTR [esi+352]
  0008a	89 9e f8 01 00
	00		 mov	 DWORD PTR [esi+504], ebx
  00090	89 9e f0 01 00
	00		 mov	 DWORD PTR [esi+496], ebx
  00096	3b cb		 cmp	 ecx, ebx
  00098	74 0d		 je	 SHORT $LN3@ShowRandom
  0009a	8b 01		 mov	 eax, DWORD PTR [ecx]
  0009c	6a 01		 push	 1
  0009e	ff 50 40	 call	 DWORD PTR [eax+64]
  000a1	89 9e 60 01 00
	00		 mov	 DWORD PTR [esi+352], ebx
$LN3@ShowRandom:

; 190  : 	SAFEDELETE(m_pEffect);

  000a7	8b 8e 64 01 00
	00		 mov	 ecx, DWORD PTR [esi+356]
  000ad	3b cb		 cmp	 ecx, ebx
  000af	74 0d		 je	 SHORT $LN10@ShowRandom
  000b1	8b 01		 mov	 eax, DWORD PTR [ecx]
  000b3	6a 01		 push	 1
  000b5	ff 50 40	 call	 DWORD PTR [eax+64]
  000b8	89 9e 64 01 00
	00		 mov	 DWORD PTR [esi+356], ebx
$LN10@ShowRandom:

; 191  : 
; 192  : 	ReBatchButton( ROLLING_BTN );

  000be	6a 01		 push	 1
  000c0	8b ce		 mov	 ecx, esi
  000c2	e8 00 00 00 00	 call	 ?ReBatchButton@RandomDecoWnd@@IAEXH@Z ; RandomDecoWnd::ReBatchButton

; 193  : 
; 194  : 	if( !m_szRollingSound.IsEmpty() )

  000c7	81 c6 04 02 00
	00		 add	 esi, 516		; 00000204H
  000cd	8b ce		 mov	 ecx, esi
  000cf	ff 15 00 00 00
	00		 call	 DWORD PTR __imp_?IsEmpty@ioHashString@@QBE_NXZ
  000d5	84 c0		 test	 al, al
  000d7	75 12		 jne	 SHORT $LN1@ShowRandom

; 195  : 		g_SoundMgr.PlaySound( m_szRollingSound, DSBVOLUME_MAX, PSM_LOOP | PSM_THREAD );

  000d9	6a 06		 push	 6
  000db	53		 push	 ebx
  000dc	56		 push	 esi
  000dd	ff 15 00 00 00
	00		 call	 DWORD PTR __imp_?GetSingleton@ioSoundManager@@SAAAV1@XZ
  000e3	8b c8		 mov	 ecx, eax
  000e5	ff 15 00 00 00
	00		 call	 DWORD PTR __imp_?PlaySoundA@ioSoundManager@@QAEKABVioHashString@@HK@Z
$LN1@ShowRandom:
  000eb	5f		 pop	 edi
  000ec	5e		 pop	 esi
  000ed	5b		 pop	 ebx

; 196  : }

  000ee	5d		 pop	 ebp
  000ef	c2 04 00	 ret	 4
?ShowRandomBox@RandomDecoWnd@@QAEX_N@Z ENDP		; RandomDecoWnd::ShowRandomBox
_TEXT	ENDS
PUBLIC	__$ArrayPad$
PUBLIC	?RollingIcon@RandomDecoWnd@@IAEXM@Z		; RandomDecoWnd::RollingIcon
EXTRN	??1SP2Packet@@UAE@XZ:PROC			; SP2Packet::~SP2Packet
EXTRN	?SendToServer@TCPNetwork@@YAXAAVSP2Packet@@@Z:PROC ; TCPNetwork::SendToServer
EXTRN	??6SP2Packet@@QAEAAV0@ABVioHashString@@@Z:PROC	; SP2Packet::operator<<
EXTRN	??6SP2Packet@@QAEAAV0@H@Z:PROC			; SP2Packet::operator<<
EXTRN	??0SP2Packet@@QAE@K@Z:PROC			; SP2Packet::SP2Packet
EXTRN	?GetPresentValue1Text@ioPresentMgr@@QAEABVioHashString@@FHH@Z:PROC ; ioPresentMgr::GetPresentValue1Text
EXTRN	?GetSingleton@ioPresentMgr@@SAAAV1@XZ:PROC	; ioPresentMgr::GetSingleton
EXTRN	?PlaySoundA@ioExtendSoundManager@@QAEXW4ExSoundType@ExSound@@@Z:PROC ; ioExtendSoundManager::PlaySoundA
EXTRN	?IsSound@ioExtendSoundManager@@QAE_NW4ExSoundType@ExSound@@@Z:PROC ; ioExtendSoundManager::IsSound
EXTRN	?GetSingleton@ioExtendSoundManager@@SAAAV1@XZ:PROC ; ioExtendSoundManager::GetSingleton
EXTRN	__chkstk:PROC
;	COMDAT xdata$x
; File c:\program files (x86)\microsoft visual studio 10.0\vc\include\vector
xdata$x	SEGMENT
__unwindtable$?RollingIcon@RandomDecoWnd@@IAEXM@Z DD 0ffffffffH
	DD	FLAT:__unwindfunclet$?RollingIcon@RandomDecoWnd@@IAEXM@Z$0
	DD	00H
	DD	FLAT:__unwindfunclet$?RollingIcon@RandomDecoWnd@@IAEXM@Z$1
	DD	0ffffffffH
	DD	FLAT:__unwindfunclet$?RollingIcon@RandomDecoWnd@@IAEXM@Z$2
__ehfuncinfo$?RollingIcon@RandomDecoWnd@@IAEXM@Z DD 019930522H
	DD	03H
	DD	FLAT:__unwindtable$?RollingIcon@RandomDecoWnd@@IAEXM@Z
	DD	2 DUP(00H)
	DD	2 DUP(00H)
	DD	00H
	DD	01H
; Function compile flags: /Ogsp
; File d:\lost saga for developer\youtube\tutorial\source\src\lsclient\gui\randomdecownd.cpp
xdata$x	ENDS
;	COMDAT ?RollingIcon@RandomDecoWnd@@IAEXM@Z
_TEXT	SEGMENT
_szItemName$509846 = -32848				; size = 16
_szCurIcon$509857 = -32832				; size = 16
tv546 = -32816						; size = 4
tv541 = -32816						; size = 4
tv559 = -32812						; size = 4
tv555 = -32812						; size = 4
tv552 = -32812						; size = 4
_fScaleRate$509834 = -32812				; size = 4
_fScale$509830 = -32812					; size = 4
_kPacket$509847 = -32808				; size = 32792
__$ArrayPad$ = -16					; size = 4
__$EHRec$ = -12						; size = 12
_fTimePerSec$ = 8					; size = 4
?RollingIcon@RandomDecoWnd@@IAEXM@Z PROC		; RandomDecoWnd::RollingIcon, COMDAT
; _this$ = ecx

; 209  : {

  00000	55		 push	 ebp
  00001	8b ec		 mov	 ebp, esp
  00003	6a ff		 push	 -1
  00005	68 00 00 00 00	 push	 __ehhandler$?RollingIcon@RandomDecoWnd@@IAEXM@Z
  0000a	64 a1 00 00 00
	00		 mov	 eax, DWORD PTR fs:0
  00010	50		 push	 eax
  00011	b8 44 80 00 00	 mov	 eax, 32836		; 00008044H
  00016	e8 00 00 00 00	 call	 __chkstk
  0001b	a1 00 00 00 00	 mov	 eax, DWORD PTR ___security_cookie
  00020	33 c5		 xor	 eax, ebp
  00022	89 45 f0	 mov	 DWORD PTR __$ArrayPad$[ebp], eax
  00025	53		 push	 ebx
  00026	56		 push	 esi
  00027	57		 push	 edi
  00028	50		 push	 eax
  00029	8d 45 f4	 lea	 eax, DWORD PTR __$EHRec$[ebp]
  0002c	64 a3 00 00 00
	00		 mov	 DWORD PTR fs:0, eax
  00032	8b f1		 mov	 esi, ecx

; 210  : 	DWORD dwCurTime = FRAMEGETTIME();

  00034	ff 15 00 00 00
	00		 call	 DWORD PTR __imp_?GetSingleton@ioFrameTimer@@SAAAV1@XZ
  0003a	8b c8		 mov	 ecx, eax
  0003c	ff 15 00 00 00
	00		 call	 DWORD PTR __imp_?GetLoopSec@ioFrameTimer@@QBEKXZ

; 211  : 
; 212  : 	int iIconListCnt = m_vIconListM.size();

  00042	8b be 7c 01 00
	00		 mov	 edi, DWORD PTR [esi+380]
  00048	2b be 78 01 00
	00		 sub	 edi, DWORD PTR [esi+376]
  0004e	8b d8		 mov	 ebx, eax
  00050	c1 ff 04	 sar	 edi, 4

; 213  : 	if( !m_bMan )

  00053	80 be 74 01 00
	00 00		 cmp	 BYTE PTR [esi+372], 0
  0005a	75 0f		 jne	 SHORT $LN20@RollingIco

; 214  : 		iIconListCnt = m_vIconListW.size();

  0005c	8b be 8c 01 00
	00		 mov	 edi, DWORD PTR [esi+396]
  00062	2b be 88 01 00
	00		 sub	 edi, DWORD PTR [esi+392]
  00068	c1 ff 04	 sar	 edi, 4
$LN20@RollingIco:

; 215  : 
; 216  : 	if( m_bResult && m_dwRollingEndTime < dwCurTime  )			// RollingEnd

  0006b	80 be d4 01 00
	00 00		 cmp	 BYTE PTR [esi+468], 0
  00072	0f 84 31 02 00
	00		 je	 $LN19@RollingIco
  00078	39 9e fc 01 00
	00		 cmp	 DWORD PTR [esi+508], ebx
  0007e	0f 83 25 02 00
	00		 jae	 $LN19@RollingIco

; 217  : 	{
; 218  : 		// Icon 
; 219  : 		if( !m_bFinalResult )		//    

  00084	80 be d5 01 00
	00 00		 cmp	 BYTE PTR [esi+469], 0
  0008b	75 0d		 jne	 SHORT $LN18@RollingIco

; 220  : 		{
; 221  : 			SetPresentIcon();

  0008d	8b ce		 mov	 ecx, esi
  0008f	e8 00 00 00 00	 call	 ?SetPresentIcon@RandomDecoWnd@@IAEXXZ ; RandomDecoWnd::SetPresentIcon

; 222  : 			m_dwScaleStartTime = dwCurTime;

  00094	89 9e 00 02 00
	00		 mov	 DWORD PTR [esi+512], ebx
$LN18@RollingIco:

; 223  : 		}
; 224  : 
; 225  : 		// IconScale 
; 226  : 		float fScale = FLOAT1;

  0009a	b8 01 00 00 00	 mov	 eax, 1
  0009f	89 85 d4 7f ff
	ff		 mov	 DWORD PTR tv559[ebp], eax
  000a5	db 85 d4 7f ff
	ff		 fild	 DWORD PTR tv559[ebp]
  000ab	85 c0		 test	 eax, eax
  000ad	79 06		 jns	 SHORT $LN46@RollingIco
  000af	d8 05 00 00 00
	00		 fadd	 DWORD PTR __real@4f800000
$LN46@RollingIco:

; 227  : 		DWORD dwGapTime = dwCurTime - m_dwScaleStartTime;

  000b5	2b 9e 00 02 00
	00		 sub	 ebx, DWORD PTR [esi+512]
  000bb	d9 9d d4 7f ff
	ff		 fstp	 DWORD PTR _fScale$509830[ebp]

; 228  : 		if( dwGapTime < m_dwIconScaleTime )

  000c1	8b 86 dc 01 00
	00		 mov	 eax, DWORD PTR [esi+476]
  000c7	3b d8		 cmp	 ebx, eax
  000c9	0f 83 86 00 00
	00		 jae	 $LN17@RollingIco

; 229  : 		{
; 230  : 			float fScaleRate = (float)dwGapTime / (float)m_dwIconScaleTime;

  000cf	89 9d d4 7f ff
	ff		 mov	 DWORD PTR tv555[ebp], ebx
  000d5	db 85 d4 7f ff
	ff		 fild	 DWORD PTR tv555[ebp]
  000db	85 db		 test	 ebx, ebx
  000dd	79 06		 jns	 SHORT $LN47@RollingIco
  000df	d8 05 00 00 00
	00		 fadd	 DWORD PTR __real@4f800000
$LN47@RollingIco:
  000e5	89 85 d4 7f ff
	ff		 mov	 DWORD PTR tv552[ebp], eax
  000eb	db 85 d4 7f ff
	ff		 fild	 DWORD PTR tv552[ebp]
  000f1	85 c0		 test	 eax, eax
  000f3	79 06		 jns	 SHORT $LN48@RollingIco
  000f5	d8 05 00 00 00
	00		 fadd	 DWORD PTR __real@4f800000
$LN48@RollingIco:
  000fb	de f9		 fdivp	 ST(1), ST(0)
  000fd	d9 9d d4 7f ff
	ff		 fstp	 DWORD PTR _fScaleRate$509834[ebp]

; 231  : 			fScale = m_fIconScale * ( FLOAT1 - fScaleRate ) + FLOAT1 * fScaleRate;

  00103	b8 01 00 00 00	 mov	 eax, 1
  00108	8b c8		 mov	 ecx, eax
  0010a	b8 01 00 00 00	 mov	 eax, 1
  0010f	89 8d d0 7f ff
	ff		 mov	 DWORD PTR tv546[ebp], ecx
  00115	db 85 d0 7f ff
	ff		 fild	 DWORD PTR tv546[ebp]
  0011b	85 c9		 test	 ecx, ecx
  0011d	79 06		 jns	 SHORT $LN49@RollingIco
  0011f	d8 05 00 00 00
	00		 fadd	 DWORD PTR __real@4f800000
$LN49@RollingIco:
  00125	d8 a5 d4 7f ff
	ff		 fsub	 DWORD PTR _fScaleRate$509834[ebp]
  0012b	89 85 d0 7f ff
	ff		 mov	 DWORD PTR tv541[ebp], eax
  00131	d8 8e d8 01 00
	00		 fmul	 DWORD PTR [esi+472]
  00137	db 85 d0 7f ff
	ff		 fild	 DWORD PTR tv541[ebp]
  0013d	85 c0		 test	 eax, eax
  0013f	79 06		 jns	 SHORT $LN50@RollingIco
  00141	d8 05 00 00 00
	00		 fadd	 DWORD PTR __real@4f800000
$LN50@RollingIco:
  00147	d8 8d d4 7f ff
	ff		 fmul	 DWORD PTR _fScaleRate$509834[ebp]
  0014d	de c1		 faddp	 ST(1), ST(0)
  0014f	d9 9d d4 7f ff
	ff		 fstp	 DWORD PTR _fScale$509830[ebp]
$LN17@RollingIco:

; 232  : 		}
; 233  : 
; 234  : 		if( m_pIcon )

  00155	8b 8e 60 01 00
	00		 mov	 ecx, DWORD PTR [esi+352]
  0015b	85 c9		 test	 ecx, ecx
  0015d	74 13		 je	 SHORT $LN16@RollingIco

; 235  : 			m_pIcon->SetScale( fScale );

  0015f	f3 0f 10 85 d4
	7f ff ff	 movss	 xmm0, DWORD PTR _fScale$509830[ebp]
  00167	8b 01		 mov	 eax, DWORD PTR [ecx]
  00169	51		 push	 ecx
  0016a	f3 0f 11 04 24	 movss	 DWORD PTR [esp], xmm0
  0016f	ff 50 1c	 call	 DWORD PTR [eax+28]
$LN16@RollingIco:

; 236  : 
; 237  : 		if( !m_bFinalResult )

  00172	80 be d5 01 00
	00 00		 cmp	 BYTE PTR [esi+469], 0
  00179	0f 85 08 02 00
	00		 jne	 $LN7@RollingIco

; 238  : 		{
; 239  : 			m_bFinalResult = true;
; 240  : 			ReBatchButton( RESULT_BTN );

  0017f	6a 02		 push	 2
  00181	8b ce		 mov	 ecx, esi
  00183	c6 86 d5 01 00
	00 01		 mov	 BYTE PTR [esi+469], 1
  0018a	e8 00 00 00 00	 call	 ?ReBatchButton@RandomDecoWnd@@IAEXH@Z ; RandomDecoWnd::ReBatchButton

; 241  : 
; 242  : 			if( !m_szRollingSound.IsEmpty() )

  0018f	8d 9e 04 02 00
	00		 lea	 ebx, DWORD PTR [esi+516]
  00195	8b cb		 mov	 ecx, ebx
  00197	ff 15 00 00 00
	00		 call	 DWORD PTR __imp_?IsEmpty@ioHashString@@QBE_NXZ
  0019d	8b 3d 00 00 00
	00		 mov	 edi, DWORD PTR __imp_?GetSingleton@ioSoundManager@@SAAAV1@XZ
  001a3	84 c0		 test	 al, al
  001a5	75 0d		 jne	 SHORT $LN14@RollingIco

; 243  : 				g_SoundMgr.StopSound( m_szRollingSound, 0 );

  001a7	6a 00		 push	 0
  001a9	53		 push	 ebx
  001aa	ff d7		 call	 edi
  001ac	8b c8		 mov	 ecx, eax
  001ae	ff 15 00 00 00
	00		 call	 DWORD PTR __imp_?StopSound@ioSoundManager@@QAEXABVioHashString@@K@Z
$LN14@RollingIco:

; 244  : 
; 245  : 			if( g_ExSoundMgr.IsSound( ExSound::EST_GASHAPON_GET ) )

  001b4	6a 0a		 push	 10			; 0000000aH
  001b6	e8 00 00 00 00	 call	 ?GetSingleton@ioExtendSoundManager@@SAAAV1@XZ ; ioExtendSoundManager::GetSingleton
  001bb	8b c8		 mov	 ecx, eax
  001bd	e8 00 00 00 00	 call	 ?IsSound@ioExtendSoundManager@@QAE_NW4ExSoundType@ExSound@@@Z ; ioExtendSoundManager::IsSound
  001c2	84 c0		 test	 al, al
  001c4	74 10		 je	 SHORT $LN13@RollingIco

; 246  : 			{
; 247  : 				g_ExSoundMgr.PlaySound( ExSound::EST_GASHAPON_GET );

  001c6	6a 0a		 push	 10			; 0000000aH
  001c8	e8 00 00 00 00	 call	 ?GetSingleton@ioExtendSoundManager@@SAAAV1@XZ ; ioExtendSoundManager::GetSingleton
  001cd	8b c8		 mov	 ecx, eax
  001cf	e8 00 00 00 00	 call	 ?PlaySoundA@ioExtendSoundManager@@QAEXW4ExSoundType@ExSound@@@Z ; ioExtendSoundManager::PlaySoundA

; 248  : 			}
; 249  : 			else

  001d4	eb 21		 jmp	 SHORT $LN11@RollingIco
$LN13@RollingIco:

; 250  : 			{
; 251  : 				if( !m_szResultSound.IsEmpty() )

  001d6	8d 9e 14 02 00
	00		 lea	 ebx, DWORD PTR [esi+532]
  001dc	8b cb		 mov	 ecx, ebx
  001de	ff 15 00 00 00
	00		 call	 DWORD PTR __imp_?IsEmpty@ioHashString@@QBE_NXZ
  001e4	84 c0		 test	 al, al
  001e6	75 0f		 jne	 SHORT $LN11@RollingIco

; 252  : 					g_SoundMgr.PlaySound( m_szResultSound );

  001e8	6a 04		 push	 4
  001ea	6a 00		 push	 0
  001ec	53		 push	 ebx
  001ed	ff d7		 call	 edi
  001ef	8b c8		 mov	 ecx, eax
  001f1	ff 15 00 00 00
	00		 call	 DWORD PTR __imp_?PlaySoundA@ioSoundManager@@QAEKABVioHashString@@HK@Z
$LN11@RollingIco:

; 253  : 			}
; 254  : 
; 255  : 			m_iCurEffectArray = -1;

  001f7	83 8e e8 01 00
	00 ff		 or	 DWORD PTR [esi+488], -1

; 256  : 			m_dwRollingEffectCheckTime = 0;

  001fe	83 a6 f0 01 00
	00 00		 and	 DWORD PTR [esi+496], 0

; 257  : 
; 258  : 			if( m_bAlarm )

  00205	80 be cc 01 00
	00 00		 cmp	 BYTE PTR [esi+460], 0
  0020c	0f 84 75 01 00
	00		 je	 $LN7@RollingIco

; 259  : 			{
; 260  : 				ioHashString szItemName = g_PresentMgr.GetPresentValue1Text( m_iPresentType, m_iPresentValue1, m_iPresentValue2 );

  00212	ff b6 c0 01 00
	00		 push	 DWORD PTR [esi+448]
  00218	0f b7 86 b8 01
	00 00		 movzx	 eax, WORD PTR [esi+440]
  0021f	ff b6 bc 01 00
	00		 push	 DWORD PTR [esi+444]
  00225	50		 push	 eax
  00226	e8 00 00 00 00	 call	 ?GetSingleton@ioPresentMgr@@SAAAV1@XZ ; ioPresentMgr::GetSingleton
  0022b	8b c8		 mov	 ecx, eax
  0022d	e8 00 00 00 00	 call	 ?GetPresentValue1Text@ioPresentMgr@@QAEABVioHashString@@FHH@Z ; ioPresentMgr::GetPresentValue1Text
  00232	50		 push	 eax
  00233	8d 8d b0 7f ff
	ff		 lea	 ecx, DWORD PTR _szItemName$509846[ebp]
  00239	ff 15 00 00 00
	00		 call	 DWORD PTR __imp_??0ioHashString@@QAE@ABV0@@Z
  0023f	83 65 fc 00	 and	 DWORD PTR __$EHRec$[ebp+8], 0

; 261  : 				SP2Packet kPacket( CTPK_SERVER_ALARM_MSG );

  00243	68 82 01 00 00	 push	 386			; 00000182H
  00248	8d 8d d8 7f ff
	ff		 lea	 ecx, DWORD PTR _kPacket$509847[ebp]
  0024e	e8 00 00 00 00	 call	 ??0SP2Packet@@QAE@K@Z	; SP2Packet::SP2Packet
  00253	c6 45 fc 01	 mov	 BYTE PTR __$EHRec$[ebp+8], 1

; 262  : 				kPacket << UDP_SERVER_ALARM_RANDOM_DECO_PRESENT << g_MyInfo.GetPublicID() << szItemName;

  00257	e8 00 00 00 00	 call	 ?GetSingleton@ioMyInfo@@SAAAV1@XZ ; ioMyInfo::GetSingleton
  0025c	8d 8d b0 7f ff
	ff		 lea	 ecx, DWORD PTR _szItemName$509846[ebp]
  00262	51		 push	 ecx
  00263	83 c0 1c	 add	 eax, 28			; 0000001cH
  00266	50		 push	 eax
  00267	6a 0b		 push	 11			; 0000000bH
  00269	8d 8d d8 7f ff
	ff		 lea	 ecx, DWORD PTR _kPacket$509847[ebp]
  0026f	e8 00 00 00 00	 call	 ??6SP2Packet@@QAEAAV0@H@Z ; SP2Packet::operator<<
  00274	8b c8		 mov	 ecx, eax
  00276	e8 00 00 00 00	 call	 ??6SP2Packet@@QAEAAV0@ABVioHashString@@@Z ; SP2Packet::operator<<
  0027b	8b c8		 mov	 ecx, eax
  0027d	e8 00 00 00 00	 call	 ??6SP2Packet@@QAEAAV0@ABVioHashString@@@Z ; SP2Packet::operator<<

; 263  : 				TCPNetwork::SendToServer( kPacket );

  00282	8d 85 d8 7f ff
	ff		 lea	 eax, DWORD PTR _kPacket$509847[ebp]
  00288	50		 push	 eax
  00289	e8 00 00 00 00	 call	 ?SendToServer@TCPNetwork@@YAXAAVSP2Packet@@@Z ; TCPNetwork::SendToServer
  0028e	59		 pop	 ecx

; 264  : 			}

  0028f	8d 8d d8 7f ff
	ff		 lea	 ecx, DWORD PTR _kPacket$509847[ebp]
  00295	c6 45 fc 00	 mov	 BYTE PTR __$EHRec$[ebp+8], 0
  00299	e8 00 00 00 00	 call	 ??1SP2Packet@@UAE@XZ	; SP2Packet::~SP2Packet
  0029e	8d 8d b0 7f ff
	ff		 lea	 ecx, DWORD PTR _szItemName$509846[ebp]

; 265  : 		}
; 266  : 	}

  002a4	e9 d4 00 00 00	 jmp	 $LN51@RollingIco
$LN19@RollingIco:

; 267  : 	else if( iIconListCnt > 0 )				// Rolling

  002a9	85 ff		 test	 edi, edi
  002ab	0f 8e d6 00 00
	00		 jle	 $LN7@RollingIco

; 268  : 	{
; 269  : 		if( m_dwRollingCheckTime == 0 || dwCurTime - m_dwRollingCheckTime > m_dwRollingTime )		// 

  002b1	8b 86 f8 01 00
	00		 mov	 eax, DWORD PTR [esi+504]
  002b7	85 c0		 test	 eax, eax
  002b9	74 10		 je	 SHORT $LN6@RollingIco
  002bb	8b cb		 mov	 ecx, ebx
  002bd	2b c8		 sub	 ecx, eax
  002bf	3b 8e e0 01 00
	00		 cmp	 ecx, DWORD PTR [esi+480]
  002c5	0f 86 bc 00 00
	00		 jbe	 $LN7@RollingIco
$LN6@RollingIco:

; 270  : 		{
; 271  : 			SAFEDELETE( m_pIcon );

  002cb	8b 8e 60 01 00
	00		 mov	 ecx, DWORD PTR [esi+352]
  002d1	85 c9		 test	 ecx, ecx
  002d3	74 0e		 je	 SHORT $LN5@RollingIco
  002d5	8b 01		 mov	 eax, DWORD PTR [ecx]
  002d7	6a 01		 push	 1
  002d9	ff 50 40	 call	 DWORD PTR [eax+64]
  002dc	83 a6 60 01 00
	00 00		 and	 DWORD PTR [esi+352], 0
$LN5@RollingIco:

; 272  : 
; 273  : 			m_iCurIconArray++;

  002e3	ff 86 f4 01 00
	00		 inc	 DWORD PTR [esi+500]
  002e9	8b 86 f4 01 00
	00		 mov	 eax, DWORD PTR [esi+500]

; 274  : 
; 275  : 			if( !COMPARE( m_iCurIconArray, 0, iIconListCnt ) )

  002ef	78 04		 js	 SHORT $LN3@RollingIco
  002f1	3b c7		 cmp	 eax, edi
  002f3	7c 07		 jl	 SHORT $LN4@RollingIco
$LN3@RollingIco:

; 276  : 				m_iCurIconArray = 0;

  002f5	83 a6 f4 01 00
	00 00		 and	 DWORD PTR [esi+500], 0
$LN4@RollingIco:

; 277  : 
; 278  : 			ioHashString szCurIcon = m_vIconListM[m_iCurIconArray];

  002fc	8b 86 f4 01 00
	00		 mov	 eax, DWORD PTR [esi+500]
  00302	c1 e0 04	 shl	 eax, 4
  00305	03 86 78 01 00
	00		 add	 eax, DWORD PTR [esi+376]
  0030b	8d 8d c0 7f ff
	ff		 lea	 ecx, DWORD PTR _szCurIcon$509857[ebp]
  00311	50		 push	 eax
  00312	ff 15 00 00 00
	00		 call	 DWORD PTR __imp_??0ioHashString@@QAE@ABV0@@Z

; 279  : 			if( !m_bMan )

  00318	80 be 74 01 00
	00 00		 cmp	 BYTE PTR [esi+372], 0
  0031f	c7 45 fc 02 00
	00 00		 mov	 DWORD PTR __$EHRec$[ebp+8], 2
  00326	75 1c		 jne	 SHORT $LN2@RollingIco

; 280  : 				szCurIcon = m_vIconListW[m_iCurIconArray];

  00328	8b 86 f4 01 00
	00		 mov	 eax, DWORD PTR [esi+500]
  0032e	c1 e0 04	 shl	 eax, 4
  00331	03 86 88 01 00
	00		 add	 eax, DWORD PTR [esi+392]
  00337	8d 8d c0 7f ff
	ff		 lea	 ecx, DWORD PTR _szCurIcon$509857[ebp]
  0033d	50		 push	 eax
  0033e	ff 15 00 00 00
	00		 call	 DWORD PTR __imp_??4ioHashString@@QAEAAV0@ABV0@@Z
$LN2@RollingIco:

; 281  : 
; 282  : 			if( !szCurIcon.IsEmpty() )

  00344	8d 8d c0 7f ff
	ff		 lea	 ecx, DWORD PTR _szCurIcon$509857[ebp]
  0034a	ff 15 00 00 00
	00		 call	 DWORD PTR __imp_?IsEmpty@ioHashString@@QBE_NXZ
  00350	84 c0		 test	 al, al
  00352	75 1d		 jne	 SHORT $LN1@RollingIco

; 283  : 			{
; 284  : 				m_pIcon = g_UIImageSetMgr.CreateImageByFullName( szCurIcon );

  00354	8d 85 c0 7f ff
	ff		 lea	 eax, DWORD PTR _szCurIcon$509857[ebp]
  0035a	6a 00		 push	 0
  0035c	50		 push	 eax
  0035d	ff 15 00 00 00
	00		 call	 DWORD PTR __imp_?GetSingleton@ioUIImageSetManager@@SAAAV1@XZ
  00363	8b c8		 mov	 ecx, eax
  00365	ff 15 00 00 00
	00		 call	 DWORD PTR __imp_?CreateImageByFullName@ioUIImageSetManager@@QAEPAVioUIRenderImage@@ABVioHashString@@_N@Z
  0036b	89 86 60 01 00
	00		 mov	 DWORD PTR [esi+352], eax
$LN1@RollingIco:

; 285  : 			}
; 286  : 
; 287  : 			m_dwRollingCheckTime = dwCurTime;

  00371	89 9e f8 01 00
	00		 mov	 DWORD PTR [esi+504], ebx

; 288  : 		}

  00377	8d 8d c0 7f ff
	ff		 lea	 ecx, DWORD PTR _szCurIcon$509857[ebp]
$LN51@RollingIco:
  0037d	83 4d fc ff	 or	 DWORD PTR __$EHRec$[ebp+8], -1
  00381	ff 15 00 00 00
	00		 call	 DWORD PTR __imp_??1ioHashString@@QAE@XZ
$LN7@RollingIco:

; 289  : 	}
; 290  : }

  00387	8b 4d f4	 mov	 ecx, DWORD PTR __$EHRec$[ebp]
  0038a	64 89 0d 00 00
	00 00		 mov	 DWORD PTR fs:0, ecx
  00391	59		 pop	 ecx
  00392	5f		 pop	 edi
  00393	5e		 pop	 esi
  00394	5b		 pop	 ebx
  00395	8b 4d f0	 mov	 ecx, DWORD PTR __$ArrayPad$[ebp]
  00398	33 cd		 xor	 ecx, ebp
  0039a	e8 00 00 00 00	 call	 @__security_check_cookie@4
  0039f	c9		 leave
  003a0	c2 04 00	 ret	 4
_TEXT	ENDS
;	COMDAT text$x
text$x	SEGMENT
__unwindfunclet$?RollingIcon@RandomDecoWnd@@IAEXM@Z$0:
  00000	8d 8d b0 7f ff
	ff		 lea	 ecx, DWORD PTR _szItemName$509846[ebp]
  00006	ff 25 00 00 00
	00		 jmp	 DWORD PTR __imp_??1ioHashString@@QAE@XZ
__unwindfunclet$?RollingIcon@RandomDecoWnd@@IAEXM@Z$1:
  0000c	8d 8d d8 7f ff
	ff		 lea	 ecx, DWORD PTR _kPacket$509847[ebp]
  00012	e9 00 00 00 00	 jmp	 ??1SP2Packet@@UAE@XZ	; SP2Packet::~SP2Packet
__unwindfunclet$?RollingIcon@RandomDecoWnd@@IAEXM@Z$2:
  00017	8d 8d c0 7f ff
	ff		 lea	 ecx, DWORD PTR _szCurIcon$509857[ebp]
  0001d	ff 25 00 00 00
	00		 jmp	 DWORD PTR __imp_??1ioHashString@@QAE@XZ
__ehhandler$?RollingIcon@RandomDecoWnd@@IAEXM@Z:
  00023	8b 54 24 08	 mov	 edx, DWORD PTR [esp+8]
  00027	8d 42 0c	 lea	 eax, DWORD PTR [edx+12]
  0002a	8b 8a ac 7f ff
	ff		 mov	 ecx, DWORD PTR [edx-32852]
  00030	33 c8		 xor	 ecx, eax
  00032	e8 00 00 00 00	 call	 @__security_check_cookie@4
  00037	8b 4a fc	 mov	 ecx, DWORD PTR [edx-4]
  0003a	33 c8		 xor	 ecx, eax
  0003c	e8 00 00 00 00	 call	 @__security_check_cookie@4
  00041	b8 00 00 00 00	 mov	 eax, OFFSET __ehfuncinfo$?RollingIcon@RandomDecoWnd@@IAEXM@Z
  00046	e9 00 00 00 00	 jmp	 ___CxxFrameHandler3
text$x	ENDS
?RollingIcon@RandomDecoWnd@@IAEXM@Z ENDP		; RandomDecoWnd::RollingIcon
PUBLIC	__real@3f59999a
PUBLIC	??_C@_0BI@EGMJEJKA@RandomDecoWnd?3?3OnRender?$AA@ ; `string'
PUBLIC	??_C@_00CNPNBAHC@?$AA@				; `string'
PUBLIC	__real@3f19999a
PUBLIC	__real@40000000
PUBLIC	?OnRender@RandomDecoWnd@@MAEXXZ			; RandomDecoWnd::OnRender
EXTRN	??_M@YGXPAXIHP6EX0@Z@Z:PROC			; `eh vector destructor iterator'
EXTRN	?PrintFullText@ioComplexStringPrinter@@QAEXMMW4TextAlignType@@E@Z:PROC ; ioComplexStringPrinter::PrintFullText
EXTRN	?AddTextPiece@ioComplexStringPrinter@@QAAXMPBDZZ:PROC ; ioComplexStringPrinter::AddTextPiece
EXTRN	?SetTextColor@ioComplexStringPrinter@@QAEXK@Z:PROC ; ioComplexStringPrinter::SetTextColor
EXTRN	?SetBkColor@ioComplexStringPrinter@@QAEXHHH@Z:PROC ; ioComplexStringPrinter::SetBkColor
EXTRN	?SetTextStyle@ioComplexStringPrinter@@QAEXW4TextStyle@@@Z:PROC ; ioComplexStringPrinter::SetTextStyle
EXTRN	__imp_??4ioHashString@@QAEAAV0@PBD@Z:PROC
EXTRN	__imp_?SafeSprintf@@YAXPADHPBD1H@Z:PROC
EXTRN	?GetPresentValue2Text@ioPresentMgr@@QAEABVioHashString@@FHH@Z:PROC ; ioPresentMgr::GetPresentValue2Text
EXTRN	__imp_??0ioHashString@@QAE@PBD@Z:PROC
EXTRN	??_L@YGXPAXIHP6EX0@Z1@Z:PROC			; `eh vector constructor iterator'
EXTRN	__imp_?PrintText@ioFontManager@@QAAXMMMPBDZZ:PROC
EXTRN	__imp_?GetString@ioStringManager@@QAEPADPBD0HW4FileNamePrefix@1@@Z:PROC
EXTRN	__imp_?GetSingleton@ioStringManager@@SAAAV1@XZ:PROC
EXTRN	__imp_?SetTextColor@ioFontManager@@QAEXK@Z:PROC
EXTRN	__imp_?SetBkColor@ioFontManager@@QAEXHHH@Z:PROC
EXTRN	__imp_?SetAlignType@ioFontManager@@QAEXW4TextAlignType@@@Z:PROC
EXTRN	__imp_?SetTextStyle@ioFontManager@@QAEXW4TextStyle@@@Z:PROC
EXTRN	__imp_?GetSingleton@ioFontManager@@SAAAV1@XZ:PROC
EXTRN	__imp_?GetDerivedPosY@ioWnd@@QBEHXZ:PROC
EXTRN	__imp_?GetDerivedPosX@ioWnd@@QBEHXZ:PROC
EXTRN	__imp_?OnRender@ioWnd@@MAEXXZ:PROC
EXTRN	__EH_epilog3_GS:PROC
EXTRN	__EH_prolog3_GS:PROC
EXTRN	_memset:PROC
;	COMDAT __real@3f59999a
CONST	SEGMENT
__real@3f59999a DD 03f59999ar			; 0.85
CONST	ENDS
;	COMDAT ??_C@_0BI@EGMJEJKA@RandomDecoWnd?3?3OnRender?$AA@
CONST	SEGMENT
??_C@_0BI@EGMJEJKA@RandomDecoWnd?3?3OnRender?$AA@ DB 'RandomDecoWnd::OnRe'
	DB	'nder', 00H					; `string'
CONST	ENDS
;	COMDAT ??_C@_00CNPNBAHC@?$AA@
CONST	SEGMENT
??_C@_00CNPNBAHC@?$AA@ DB 00H				; `string'
CONST	ENDS
;	COMDAT __real@3f19999a
CONST	SEGMENT
__real@3f19999a DD 03f19999ar			; 0.6
CONST	ENDS
;	COMDAT __real@40000000
CONST	SEGMENT
__real@40000000 DD 040000000r			; 2
CONST	ENDS
;	COMDAT xdata$x
xdata$x	SEGMENT
__unwindtable$?OnRender@RandomDecoWnd@@MAEXXZ DD 0ffffffffH
	DD	FLAT:__unwindfunclet$?OnRender@RandomDecoWnd@@MAEXXZ$0
	DD	00H
	DD	FLAT:__unwindfunclet$?OnRender@RandomDecoWnd@@MAEXXZ$1
	DD	01H
	DD	FLAT:__unwindfunclet$?OnRender@RandomDecoWnd@@MAEXXZ$2
__ehfuncinfo$?OnRender@RandomDecoWnd@@MAEXXZ DD 019930522H
	DD	03H
	DD	FLAT:__unwindtable$?OnRender@RandomDecoWnd@@MAEXXZ
	DD	2 DUP(00H)
	DD	2 DUP(00H)
	DD	00H
	DD	01H
; Function compile flags: /Ogsp
xdata$x	ENDS
;	COMDAT ?OnRender@RandomDecoWnd@@MAEXXZ
_TEXT	SEGMENT
_kPrinter$ = -400					; size = 64
_szName$ = -336						; size = 16
_szDesc$ = -320						; size = 16
_iXPos$ = -304						; size = 4
tv606 = -300						; size = 4
tv559 = -300						; size = 4
_iYPos$ = -296						; size = 4
_szBuf$509933 = -292					; size = 260
_szHack1$ = -32						; size = 6
_szHack2$ = -24						; size = 6
__$EHRec$ = -12						; size = 12
?OnRender@RandomDecoWnd@@MAEXXZ PROC			; RandomDecoWnd::OnRender, COMDAT
; _this$ = ecx

; 357  : {

  00000	68 84 01 00 00	 push	 388			; 00000184H
  00005	b8 00 00 00 00	 mov	 eax, __ehhandler$?OnRender@RandomDecoWnd@@MAEXXZ
  0000a	e8 00 00 00 00	 call	 __EH_prolog3_GS
  0000f	8b f9		 mov	 edi, ecx

; 358  : 	ioWnd::OnRender();

  00011	ff 15 00 00 00
	00		 call	 DWORD PTR __imp_?OnRender@ioWnd@@MAEXXZ

; 359  : 
; 360  : 	int iXPos = GetDerivedPosX();

  00017	8b cf		 mov	 ecx, edi
  00019	ff 15 00 00 00
	00		 call	 DWORD PTR __imp_?GetDerivedPosX@ioWnd@@QBEHXZ
  0001f	8b f0		 mov	 esi, eax

; 361  : 	int iYPos = GetDerivedPosY();

  00021	8b cf		 mov	 ecx, edi
  00023	89 b5 d0 fe ff
	ff		 mov	 DWORD PTR _iXPos$[ebp], esi
  00029	ff 15 00 00 00
	00		 call	 DWORD PTR __imp_?GetDerivedPosY@ioWnd@@QBEHXZ

; 362  : 
; 363  : 	enum
; 364  : 	{
; 365  : 		ICON_X		= 129,
; 366  : 		ICON_Y		= 105,
; 367  : 
; 368  : 		DESC_BIG_X	= 129,
; 369  : 		DESC_BIG_Y	= 152,
; 370  : 
; 371  : 		DESC_X		= 27,
; 372  : 		DESC_Y		= 206,
; 373  : 
; 374  : 		FINAL_DESC_X	= 128,
; 375  : 		FINAL_DESC_Y	= 421,
; 376  : 	};
; 377  : 
; 378  : 	// Back
; 379  : 	if( m_bFinalResult )

  0002f	33 db		 xor	 ebx, ebx
  00031	8b d0		 mov	 edx, eax
  00033	89 95 d8 fe ff
	ff		 mov	 DWORD PTR _iYPos$[ebp], edx
  00039	38 9f d5 01 00
	00		 cmp	 BYTE PTR [edi+469], bl
  0003f	74 10		 je	 SHORT $LN12@OnRender

; 380  : 	{
; 381  : 		if( m_pFinalBackEffect )

  00041	39 9f 6c 01 00
	00		 cmp	 DWORD PTR [edi+364], ebx
  00047	74 43		 je	 SHORT $LN9@OnRender

; 382  : 			m_pFinalBackEffect->Render( iXPos+ICON_X, iYPos+ICON_Y, UI_RENDER_MULTIPLY );

  00049	8b 8f 6c 01 00
	00		 mov	 ecx, DWORD PTR [edi+364]

; 383  : 	}
; 384  : 	else

  0004f	eb 0e		 jmp	 SHORT $LN21@OnRender
$LN12@OnRender:

; 385  : 	{
; 386  : 		if( m_pBackEffect )

  00051	39 9f 68 01 00
	00		 cmp	 DWORD PTR [edi+360], ebx
  00057	74 33		 je	 SHORT $LN9@OnRender

; 387  : 			m_pBackEffect->Render( iXPos+ICON_X, iYPos+ICON_Y, UI_RENDER_MULTIPLY );

  00059	8b 8f 68 01 00
	00		 mov	 ecx, DWORD PTR [edi+360]
$LN21@OnRender:
  0005f	8b 01		 mov	 eax, DWORD PTR [ecx]
  00061	53		 push	 ebx
  00062	53		 push	 ebx
  00063	53		 push	 ebx
  00064	6a 08		 push	 8
  00066	51		 push	 ecx
  00067	0f 57 c0	 xorps	 xmm0, xmm0
  0006a	83 c2 69	 add	 edx, 105		; 00000069H
  0006d	f3 0f 2a c2	 cvtsi2ss xmm0, edx
  00071	51		 push	 ecx
  00072	f3 0f 11 44 24
	04		 movss	 DWORD PTR [esp+4], xmm0
  00078	8d 96 81 00 00
	00		 lea	 edx, DWORD PTR [esi+129]
  0007e	0f 57 c0	 xorps	 xmm0, xmm0
  00081	f3 0f 2a c2	 cvtsi2ss xmm0, edx
  00085	f3 0f 11 04 24	 movss	 DWORD PTR [esp], xmm0
  0008a	ff 10		 call	 DWORD PTR [eax]
$LN9@OnRender:

; 388  : 	}
; 389  : 
; 390  : 	// Icon
; 391  : 	if( m_pIcon )

  0008c	39 9f 60 01 00
	00		 cmp	 DWORD PTR [edi+352], ebx
  00092	74 39		 je	 SHORT $LN8@OnRender

; 392  : 	{
; 393  : 		m_pIcon->Render( iXPos+ICON_X, iYPos+ICON_Y, UI_RENDER_NORMAL, TFO_BILINEAR );

  00094	8b 8f 60 01 00
	00		 mov	 ecx, DWORD PTR [edi+352]
  0009a	8b 95 d8 fe ff
	ff		 mov	 edx, DWORD PTR _iYPos$[ebp]
  000a0	8b 01		 mov	 eax, DWORD PTR [ecx]
  000a2	53		 push	 ebx
  000a3	53		 push	 ebx
  000a4	6a 01		 push	 1
  000a6	53		 push	 ebx
  000a7	83 c2 69	 add	 edx, 105		; 00000069H
  000aa	0f 57 c0	 xorps	 xmm0, xmm0
  000ad	f3 0f 2a c2	 cvtsi2ss xmm0, edx
  000b1	51		 push	 ecx
  000b2	51		 push	 ecx
  000b3	f3 0f 11 44 24
	04		 movss	 DWORD PTR [esp+4], xmm0
  000b9	8d 96 81 00 00
	00		 lea	 edx, DWORD PTR [esi+129]
  000bf	0f 57 c0	 xorps	 xmm0, xmm0
  000c2	f3 0f 2a c2	 cvtsi2ss xmm0, edx
  000c6	f3 0f 11 04 24	 movss	 DWORD PTR [esp], xmm0
  000cb	ff 10		 call	 DWORD PTR [eax]
$LN8@OnRender:

; 394  : 	}
; 395  : 
; 396  : 	// Effect
; 397  : 	if( m_pEffect )

  000cd	39 9f 64 01 00
	00		 cmp	 DWORD PTR [edi+356], ebx
  000d3	74 52		 je	 SHORT $LN7@OnRender

; 398  : 	{
; 399  : 		m_pEffect->SetScale( 2.0f );

  000d5	8b 8f 64 01 00
	00		 mov	 ecx, DWORD PTR [edi+356]
  000db	f3 0f 10 05 00
	00 00 00	 movss	 xmm0, DWORD PTR __real@40000000
  000e3	8b 01		 mov	 eax, DWORD PTR [ecx]
  000e5	51		 push	 ecx
  000e6	f3 0f 11 04 24	 movss	 DWORD PTR [esp], xmm0
  000eb	ff 50 1c	 call	 DWORD PTR [eax+28]

; 400  : 		m_pEffect->Render( iXPos+ICON_X, iYPos+ICON_Y, UI_RENDER_ADD );

  000ee	8b 8f 64 01 00
	00		 mov	 ecx, DWORD PTR [edi+356]
  000f4	8b 95 d8 fe ff
	ff		 mov	 edx, DWORD PTR _iYPos$[ebp]
  000fa	8b 01		 mov	 eax, DWORD PTR [ecx]
  000fc	53		 push	 ebx
  000fd	53		 push	 ebx
  000fe	53		 push	 ebx
  000ff	6a 03		 push	 3
  00101	83 c2 69	 add	 edx, 105		; 00000069H
  00104	0f 57 c0	 xorps	 xmm0, xmm0
  00107	f3 0f 2a c2	 cvtsi2ss xmm0, edx
  0010b	51		 push	 ecx
  0010c	51		 push	 ecx
  0010d	f3 0f 11 44 24
	04		 movss	 DWORD PTR [esp+4], xmm0
  00113	8d 96 81 00 00
	00		 lea	 edx, DWORD PTR [esi+129]
  00119	0f 57 c0	 xorps	 xmm0, xmm0
  0011c	f3 0f 2a c2	 cvtsi2ss xmm0, edx
  00120	f3 0f 11 04 24	 movss	 DWORD PTR [esp], xmm0
  00125	ff 10		 call	 DWORD PTR [eax]
$LN7@OnRender:

; 401  : 	}
; 402  : 
; 403  : 	if( m_bFinalResult )

  00127	38 9f d5 01 00
	00		 cmp	 BYTE PTR [edi+469], bl
  0012d	0f 84 b8 00 00
	00		 je	 $LN6@OnRender

; 404  : 	{
; 405  : 		PrintManual( iXPos+DESC_X, iYPos+DESC_Y, FONT_SIZE_12 );

  00133	8b 85 d8 fe ff
	ff		 mov	 eax, DWORD PTR _iYPos$[ebp]
  00139	f3 0f 10 05 00
	00 00 00	 movss	 xmm0, DWORD PTR __real@3f19999a
  00141	51		 push	 ecx
  00142	f3 0f 11 04 24	 movss	 DWORD PTR [esp], xmm0
  00147	05 ce 00 00 00	 add	 eax, 206		; 000000ceH
  0014c	50		 push	 eax
  0014d	83 c6 1b	 add	 esi, 27			; 0000001bH
  00150	56		 push	 esi
  00151	8b cf		 mov	 ecx, edi
  00153	e8 00 00 00 00	 call	 ?PrintManual@RandomDecoWnd@@IAEXHHM@Z ; RandomDecoWnd::PrintManual

; 406  : 
; 407  : 		g_FontMgr.SetTextStyle( TS_NORMAL );

  00158	8b 35 00 00 00
	00		 mov	 esi, DWORD PTR __imp_?GetSingleton@ioFontManager@@SAAAV1@XZ
  0015e	53		 push	 ebx
  0015f	ff d6		 call	 esi
  00161	8b c8		 mov	 ecx, eax
  00163	ff 15 00 00 00
	00		 call	 DWORD PTR __imp_?SetTextStyle@ioFontManager@@QAEXW4TextStyle@@@Z

; 408  : 		g_FontMgr.SetAlignType( TAT_CENTER );

  00169	6a 01		 push	 1
  0016b	ff d6		 call	 esi
  0016d	8b c8		 mov	 ecx, eax
  0016f	ff 15 00 00 00
	00		 call	 DWORD PTR __imp_?SetAlignType@ioFontManager@@QAEXW4TextAlignType@@@Z

; 409  : 		g_FontMgr.SetBkColor( 0, 0, 0 );

  00175	53		 push	 ebx
  00176	53		 push	 ebx
  00177	53		 push	 ebx
  00178	ff d6		 call	 esi
  0017a	8b c8		 mov	 ecx, eax
  0017c	ff 15 00 00 00
	00		 call	 DWORD PTR __imp_?SetBkColor@ioFontManager@@QAEXHHH@Z

; 410  : 		g_FontMgr.SetTextColor( TCT_DEFAULT_GREEN );

  00182	68 22 72 11 ff	 push	 -15633886		; ff117222H
  00187	ff d6		 call	 esi
  00189	8b c8		 mov	 ecx, eax
  0018b	ff 15 00 00 00
	00		 call	 DWORD PTR __imp_?SetTextColor@ioFontManager@@QAEXK@Z

; 411  : 		g_FontMgr.PrintText( iXPos+FINAL_DESC_X, iYPos+FINAL_DESC_Y, FONT_SIZE_17, STR(1) );

  00191	53		 push	 ebx
  00192	6a 01		 push	 1
  00194	68 00 00 00 00	 push	 OFFSET ??_C@_00CNPNBAHC@?$AA@
  00199	68 00 00 00 00	 push	 OFFSET ??_C@_0BI@EGMJEJKA@RandomDecoWnd?3?3OnRender?$AA@
  0019e	ff 15 00 00 00
	00		 call	 DWORD PTR __imp_?GetSingleton@ioStringManager@@SAAAV1@XZ
  001a4	8b c8		 mov	 ecx, eax
  001a6	ff 15 00 00 00
	00		 call	 DWORD PTR __imp_?GetString@ioStringManager@@QAEPADPBD0HW4FileNamePrefix@1@@Z
  001ac	f3 0f 10 05 00
	00 00 00	 movss	 xmm0, DWORD PTR __real@3f59999a
  001b4	50		 push	 eax
  001b5	8b 85 d8 fe ff
	ff		 mov	 eax, DWORD PTR _iYPos$[ebp]
  001bb	83 ec 0c	 sub	 esp, 12			; 0000000cH
  001be	f3 0f 11 44 24
	08		 movss	 DWORD PTR [esp+8], xmm0
  001c4	05 a5 01 00 00	 add	 eax, 421		; 000001a5H
  001c9	0f 57 c0	 xorps	 xmm0, xmm0
  001cc	f3 0f 2a c0	 cvtsi2ss xmm0, eax
  001d0	8b 85 d0 fe ff
	ff		 mov	 eax, DWORD PTR _iXPos$[ebp]
  001d6	f3 0f 11 44 24
	04		 movss	 DWORD PTR [esp+4], xmm0
  001dc	83 e8 80	 sub	 eax, -128		; ffffff80H
  001df	0f 57 c0	 xorps	 xmm0, xmm0
  001e2	f3 0f 2a c0	 cvtsi2ss xmm0, eax

; 412  : 	}
; 413  : 	else

  001e6	e9 2d 01 00 00	 jmp	 $LN22@OnRender
$LN6@OnRender:

; 414  : 	{
; 415  : 		g_FontMgr.SetTextStyle( TS_NORMAL );

  001eb	8b 35 00 00 00
	00		 mov	 esi, DWORD PTR __imp_?GetSingleton@ioFontManager@@SAAAV1@XZ
  001f1	53		 push	 ebx
  001f2	ff d6		 call	 esi
  001f4	8b c8		 mov	 ecx, eax
  001f6	ff 15 00 00 00
	00		 call	 DWORD PTR __imp_?SetTextStyle@ioFontManager@@QAEXW4TextStyle@@@Z

; 416  : 		g_FontMgr.SetAlignType( TAT_LEFT );

  001fc	53		 push	 ebx
  001fd	ff d6		 call	 esi
  001ff	8b c8		 mov	 ecx, eax
  00201	ff 15 00 00 00
	00		 call	 DWORD PTR __imp_?SetAlignType@ioFontManager@@QAEXW4TextAlignType@@@Z

; 417  : 		g_FontMgr.SetBkColor( 0, 0, 0 );

  00207	53		 push	 ebx
  00208	53		 push	 ebx
  00209	53		 push	 ebx
  0020a	ff d6		 call	 esi
  0020c	8b c8		 mov	 ecx, eax
  0020e	ff 15 00 00 00
	00		 call	 DWORD PTR __imp_?SetBkColor@ioFontManager@@QAEXHHH@Z

; 418  : 		g_FontMgr.SetTextColor( TCT_DEFAULT_LIGHTGRAY );

  00214	68 a7 a7 a7 ff	 push	 -5789785		; ffa7a7a7H
  00219	ff d6		 call	 esi
  0021b	8b c8		 mov	 ecx, eax
  0021d	ff 15 00 00 00
	00		 call	 DWORD PTR __imp_?SetTextColor@ioFontManager@@QAEXK@Z

; 419  : 		g_FontMgr.PrintText( iXPos+DESC_X, iYPos+DESC_Y, FONT_SIZE_12, STR(2) );

  00223	8b 85 d0 fe ff
	ff		 mov	 eax, DWORD PTR _iXPos$[ebp]
  00229	53		 push	 ebx
  0022a	6a 02		 push	 2
  0022c	83 c0 1b	 add	 eax, 27			; 0000001bH
  0022f	0f 57 c0	 xorps	 xmm0, xmm0
  00232	68 00 00 00 00	 push	 OFFSET ??_C@_00CNPNBAHC@?$AA@
  00237	f3 0f 2a c0	 cvtsi2ss xmm0, eax
  0023b	68 00 00 00 00	 push	 OFFSET ??_C@_0BI@EGMJEJKA@RandomDecoWnd?3?3OnRender?$AA@
  00240	f3 0f 11 85 d4
	fe ff ff	 movss	 DWORD PTR tv606[ebp], xmm0
  00248	ff 15 00 00 00
	00		 call	 DWORD PTR __imp_?GetSingleton@ioStringManager@@SAAAV1@XZ
  0024e	8b c8		 mov	 ecx, eax
  00250	ff 15 00 00 00
	00		 call	 DWORD PTR __imp_?GetString@ioStringManager@@QAEPADPBD0HW4FileNamePrefix@1@@Z
  00256	f3 0f 10 05 00
	00 00 00	 movss	 xmm0, DWORD PTR __real@3f19999a
  0025e	50		 push	 eax
  0025f	8b 85 d8 fe ff
	ff		 mov	 eax, DWORD PTR _iYPos$[ebp]
  00265	83 ec 0c	 sub	 esp, 12			; 0000000cH
  00268	f3 0f 11 44 24
	08		 movss	 DWORD PTR [esp+8], xmm0
  0026e	05 ce 00 00 00	 add	 eax, 206		; 000000ceH
  00273	0f 57 c0	 xorps	 xmm0, xmm0
  00276	f3 0f 2a c0	 cvtsi2ss xmm0, eax
  0027a	f3 0f 11 44 24
	04		 movss	 DWORD PTR [esp+4], xmm0
  00280	f3 0f 10 85 d4
	fe ff ff	 movss	 xmm0, DWORD PTR tv606[ebp]
  00288	f3 0f 11 04 24	 movss	 DWORD PTR [esp], xmm0
  0028d	ff d6		 call	 esi
  0028f	50		 push	 eax
  00290	ff 15 00 00 00
	00		 call	 DWORD PTR __imp_?PrintText@ioFontManager@@QAAXMMMPBDZZ
  00296	83 c4 14	 add	 esp, 20			; 00000014H

; 420  : 
; 421  : 		g_FontMgr.SetTextStyle( TS_NORMAL );

  00299	53		 push	 ebx
  0029a	ff d6		 call	 esi
  0029c	8b c8		 mov	 ecx, eax
  0029e	ff 15 00 00 00
	00		 call	 DWORD PTR __imp_?SetTextStyle@ioFontManager@@QAEXW4TextStyle@@@Z

; 422  : 		g_FontMgr.SetAlignType( TAT_LEFT );

  002a4	53		 push	 ebx
  002a5	ff d6		 call	 esi
  002a7	8b c8		 mov	 ecx, eax
  002a9	ff 15 00 00 00
	00		 call	 DWORD PTR __imp_?SetAlignType@ioFontManager@@QAEXW4TextAlignType@@@Z

; 423  : 		g_FontMgr.SetBkColor( 0, 0, 0 );

  002af	53		 push	 ebx
  002b0	53		 push	 ebx
  002b1	53		 push	 ebx
  002b2	ff d6		 call	 esi
  002b4	8b c8		 mov	 ecx, eax
  002b6	ff 15 00 00 00
	00		 call	 DWORD PTR __imp_?SetBkColor@ioFontManager@@QAEXHHH@Z

; 424  : 		g_FontMgr.SetTextColor( TCT_DEFAULT_LIGHTGRAY );

  002bc	68 a7 a7 a7 ff	 push	 -5789785		; ffa7a7a7H
  002c1	ff d6		 call	 esi
  002c3	8b c8		 mov	 ecx, eax
  002c5	ff 15 00 00 00
	00		 call	 DWORD PTR __imp_?SetTextColor@ioFontManager@@QAEXK@Z

; 425  : 		g_FontMgr.PrintText( iXPos+DESC_X, iYPos+DESC_Y+18, FONT_SIZE_12, STR(4) );

  002cb	53		 push	 ebx
  002cc	6a 04		 push	 4
  002ce	68 00 00 00 00	 push	 OFFSET ??_C@_00CNPNBAHC@?$AA@
  002d3	68 00 00 00 00	 push	 OFFSET ??_C@_0BI@EGMJEJKA@RandomDecoWnd?3?3OnRender?$AA@
  002d8	ff 15 00 00 00
	00		 call	 DWORD PTR __imp_?GetSingleton@ioStringManager@@SAAAV1@XZ
  002de	8b c8		 mov	 ecx, eax
  002e0	ff 15 00 00 00
	00		 call	 DWORD PTR __imp_?GetString@ioStringManager@@QAEPADPBD0HW4FileNamePrefix@1@@Z
  002e6	f3 0f 10 05 00
	00 00 00	 movss	 xmm0, DWORD PTR __real@3f19999a
  002ee	50		 push	 eax
  002ef	8b 85 d8 fe ff
	ff		 mov	 eax, DWORD PTR _iYPos$[ebp]
  002f5	83 ec 0c	 sub	 esp, 12			; 0000000cH
  002f8	f3 0f 11 44 24
	08		 movss	 DWORD PTR [esp+8], xmm0
  002fe	05 e0 00 00 00	 add	 eax, 224		; 000000e0H
  00303	0f 57 c0	 xorps	 xmm0, xmm0
  00306	f3 0f 2a c0	 cvtsi2ss xmm0, eax
  0030a	f3 0f 11 44 24
	04		 movss	 DWORD PTR [esp+4], xmm0
  00310	f3 0f 10 85 d4
	fe ff ff	 movss	 xmm0, DWORD PTR tv606[ebp]
$LN22@OnRender:
  00318	f3 0f 11 04 24	 movss	 DWORD PTR [esp], xmm0
  0031d	ff d6		 call	 esi
  0031f	50		 push	 eax
  00320	ff 15 00 00 00
	00		 call	 DWORD PTR __imp_?PrintText@ioFontManager@@QAAXMMMPBDZZ
  00326	83 c4 14	 add	 esp, 20			; 00000014H

; 426  : 	}
; 427  : 
; 428  : 
; 429  : 	// Text
; 430  : 	ioComplexStringPrinter kPrinter[2];

  00329	68 00 00 00 00	 push	 OFFSET ??1ioComplexStringPrinter@@QAE@XZ ; ioComplexStringPrinter::~ioComplexStringPrinter
  0032e	68 00 00 00 00	 push	 OFFSET ??0ioComplexStringPrinter@@QAE@XZ ; ioComplexStringPrinter::ioComplexStringPrinter
  00333	6a 02		 push	 2
  00335	6a 20		 push	 32			; 00000020H
  00337	8d 85 70 fe ff
	ff		 lea	 eax, DWORD PTR _kPrinter$[ebp]
  0033d	50		 push	 eax
  0033e	e8 00 00 00 00	 call	 ??_L@YGXPAXIHP6EX0@Z1@Z

; 431  : 
; 432  : 	char szHack1[] = {'?','?','?','?','?','\0'};
; 433  : 	char szHack2[] = {'?','?','?','?','?','\0'};
; 434  : 	ioHashString szName = szHack1;

  00343	8b 35 00 00 00
	00		 mov	 esi, DWORD PTR __imp_??0ioHashString@@QAE@PBD@Z
  00349	8d 45 e0	 lea	 eax, DWORD PTR _szHack1$[ebp]
  0034c	50		 push	 eax
  0034d	8d 8d b0 fe ff
	ff		 lea	 ecx, DWORD PTR _szName$[ebp]
  00353	89 5d fc	 mov	 DWORD PTR __$EHRec$[ebp+8], ebx
  00356	c7 45 e0 3f 3f
	3f 3f		 mov	 DWORD PTR _szHack1$[ebp], 1061109567 ; 3f3f3f3fH
  0035d	66 c7 45 e4 3f
	00		 mov	 WORD PTR _szHack1$[ebp+4], 63 ; 0000003fH
  00363	c7 45 e8 3f 3f
	3f 3f		 mov	 DWORD PTR _szHack2$[ebp], 1061109567 ; 3f3f3f3fH
  0036a	66 c7 45 ec 3f
	00		 mov	 WORD PTR _szHack2$[ebp+4], 63 ; 0000003fH
  00370	ff d6		 call	 esi

; 435  : 	ioHashString szDesc = szHack2;

  00372	8d 45 e8	 lea	 eax, DWORD PTR _szHack2$[ebp]
  00375	50		 push	 eax
  00376	8d 8d c0 fe ff
	ff		 lea	 ecx, DWORD PTR _szDesc$[ebp]
  0037c	c6 45 fc 01	 mov	 BYTE PTR __$EHRec$[ebp+8], 1
  00380	ff d6		 call	 esi
  00382	c6 45 fc 02	 mov	 BYTE PTR __$EHRec$[ebp+8], 2

; 436  : 
; 437  : 	if( m_bFinalResult )

  00386	38 9f d5 01 00
	00		 cmp	 BYTE PTR [edi+469], bl
  0038c	0f 84 22 01 00
	00		 je	 $LN1@OnRender

; 438  : 	{
; 439  : 		szName = g_PresentMgr.GetPresentValue1Text( m_iPresentType, m_iPresentValue1, m_iPresentValue2 );

  00392	ff b7 c0 01 00
	00		 push	 DWORD PTR [edi+448]
  00398	0f b7 87 b8 01
	00 00		 movzx	 eax, WORD PTR [edi+440]
  0039f	ff b7 bc 01 00
	00		 push	 DWORD PTR [edi+444]
  003a5	50		 push	 eax
  003a6	e8 00 00 00 00	 call	 ?GetSingleton@ioPresentMgr@@SAAAV1@XZ ; ioPresentMgr::GetSingleton
  003ab	8b c8		 mov	 ecx, eax
  003ad	e8 00 00 00 00	 call	 ?GetPresentValue1Text@ioPresentMgr@@QAEABVioHashString@@FHH@Z ; ioPresentMgr::GetPresentValue1Text
  003b2	50		 push	 eax
  003b3	8d 8d b0 fe ff
	ff		 lea	 ecx, DWORD PTR _szName$[ebp]
  003b9	ff 15 00 00 00
	00		 call	 DWORD PTR __imp_??4ioHashString@@QAEAAV0@ABV0@@Z

; 440  : 
; 441  : 		if(  !g_PresentMgr.GetPresentValue2Text( m_iPresentType, m_iPresentValue1, m_iPresentValue2 ).IsEmpty() )

  003bf	ff b7 c0 01 00
	00		 push	 DWORD PTR [edi+448]
  003c5	0f b7 87 b8 01
	00 00		 movzx	 eax, WORD PTR [edi+440]
  003cc	ff b7 bc 01 00
	00		 push	 DWORD PTR [edi+444]
  003d2	50		 push	 eax
  003d3	e8 00 00 00 00	 call	 ?GetSingleton@ioPresentMgr@@SAAAV1@XZ ; ioPresentMgr::GetSingleton
  003d8	8b c8		 mov	 ecx, eax
  003da	e8 00 00 00 00	 call	 ?GetPresentValue2Text@ioPresentMgr@@QAEABVioHashString@@FHH@Z ; ioPresentMgr::GetPresentValue2Text
  003df	8b c8		 mov	 ecx, eax
  003e1	ff 15 00 00 00
	00		 call	 DWORD PTR __imp_?IsEmpty@ioHashString@@QBE_NXZ
  003e7	84 c0		 test	 al, al
  003e9	0f 85 c5 00 00
	00		 jne	 $LN1@OnRender

; 442  : 		{
; 443  : 			if( m_iPresentPeso == 0 )

  003ef	8b b7 d0 01 00
	00		 mov	 esi, DWORD PTR [edi+464]
  003f5	3b f3		 cmp	 esi, ebx
  003f7	75 32		 jne	 SHORT $LN2@OnRender

; 444  : 				szDesc = g_PresentMgr.GetPresentValue2Text( m_iPresentType, m_iPresentValue1, m_iPresentValue2 );

  003f9	ff b7 c0 01 00
	00		 push	 DWORD PTR [edi+448]
  003ff	0f b7 87 b8 01
	00 00		 movzx	 eax, WORD PTR [edi+440]
  00406	ff b7 bc 01 00
	00		 push	 DWORD PTR [edi+444]
  0040c	50		 push	 eax
  0040d	e8 00 00 00 00	 call	 ?GetSingleton@ioPresentMgr@@SAAAV1@XZ ; ioPresentMgr::GetSingleton
  00412	8b c8		 mov	 ecx, eax
  00414	e8 00 00 00 00	 call	 ?GetPresentValue2Text@ioPresentMgr@@QAEABVioHashString@@FHH@Z ; ioPresentMgr::GetPresentValue2Text
  00419	50		 push	 eax
  0041a	8d 8d c0 fe ff
	ff		 lea	 ecx, DWORD PTR _szDesc$[ebp]
  00420	ff 15 00 00 00
	00		 call	 DWORD PTR __imp_??4ioHashString@@QAEAAV0@ABV0@@Z

; 445  : 			else

  00426	e9 89 00 00 00	 jmp	 $LN1@OnRender
$LN2@OnRender:

; 446  : 			{
; 447  : 				char szBuf[MAX_PATH] = "";

  0042b	68 03 01 00 00	 push	 259			; 00000103H
  00430	8d 85 dd fe ff
	ff		 lea	 eax, DWORD PTR _szBuf$509933[ebp+1]
  00436	53		 push	 ebx
  00437	50		 push	 eax
  00438	88 9d dc fe ff
	ff		 mov	 BYTE PTR _szBuf$509933[ebp], bl
  0043e	e8 00 00 00 00	 call	 _memset

; 448  : 				SafeSprintf( szBuf, sizeof( szBuf ), STR(3), g_PresentMgr.GetPresentValue2Text( m_iPresentType, m_iPresentValue1, m_iPresentValue2 ).c_str(), m_iPresentPeso );

  00443	0f b7 87 b8 01
	00 00		 movzx	 eax, WORD PTR [edi+440]
  0044a	83 c4 0c	 add	 esp, 12			; 0000000cH
  0044d	56		 push	 esi
  0044e	ff b7 c0 01 00
	00		 push	 DWORD PTR [edi+448]
  00454	ff b7 bc 01 00
	00		 push	 DWORD PTR [edi+444]
  0045a	50		 push	 eax
  0045b	e8 00 00 00 00	 call	 ?GetSingleton@ioPresentMgr@@SAAAV1@XZ ; ioPresentMgr::GetSingleton
  00460	8b c8		 mov	 ecx, eax
  00462	e8 00 00 00 00	 call	 ?GetPresentValue2Text@ioPresentMgr@@QAEABVioHashString@@FHH@Z ; ioPresentMgr::GetPresentValue2Text
  00467	8b c8		 mov	 ecx, eax
  00469	ff 15 00 00 00
	00		 call	 DWORD PTR __imp_?c_str@ioHashString@@QBEPBDXZ
  0046f	50		 push	 eax
  00470	53		 push	 ebx
  00471	6a 03		 push	 3
  00473	68 00 00 00 00	 push	 OFFSET ??_C@_00CNPNBAHC@?$AA@
  00478	68 00 00 00 00	 push	 OFFSET ??_C@_0BI@EGMJEJKA@RandomDecoWnd?3?3OnRender?$AA@
  0047d	ff 15 00 00 00
	00		 call	 DWORD PTR __imp_?GetSingleton@ioStringManager@@SAAAV1@XZ
  00483	8b c8		 mov	 ecx, eax
  00485	ff 15 00 00 00
	00		 call	 DWORD PTR __imp_?GetString@ioStringManager@@QAEPADPBD0HW4FileNamePrefix@1@@Z
  0048b	50		 push	 eax
  0048c	8d 85 dc fe ff
	ff		 lea	 eax, DWORD PTR _szBuf$509933[ebp]
  00492	68 04 01 00 00	 push	 260			; 00000104H
  00497	50		 push	 eax
  00498	ff 15 00 00 00
	00		 call	 DWORD PTR __imp_?SafeSprintf@@YAXPADHPBD1H@Z
  0049e	83 c4 14	 add	 esp, 20			; 00000014H

; 449  : 				szDesc = szBuf;

  004a1	8d 85 dc fe ff
	ff		 lea	 eax, DWORD PTR _szBuf$509933[ebp]
  004a7	50		 push	 eax
  004a8	8d 8d c0 fe ff
	ff		 lea	 ecx, DWORD PTR _szDesc$[ebp]
  004ae	ff 15 00 00 00
	00		 call	 DWORD PTR __imp_??4ioHashString@@QAEAAV0@PBD@Z
$LN1@OnRender:

; 450  : 			}
; 451  : 		}
; 452  : 	}
; 453  : 
; 454  : 	// Name
; 455  : 	kPrinter[0].ClearList();

  004b4	8d 8d 70 fe ff
	ff		 lea	 ecx, DWORD PTR _kPrinter$[ebp]
  004ba	e8 00 00 00 00	 call	 ?ClearList@ioComplexStringPrinter@@QAEXXZ ; ioComplexStringPrinter::ClearList

; 456  : 	kPrinter[0].SetTextStyle( TS_NORMAL );

  004bf	53		 push	 ebx
  004c0	8d 8d 70 fe ff
	ff		 lea	 ecx, DWORD PTR _kPrinter$[ebp]
  004c6	e8 00 00 00 00	 call	 ?SetTextStyle@ioComplexStringPrinter@@QAEXW4TextStyle@@@Z ; ioComplexStringPrinter::SetTextStyle

; 457  : 	kPrinter[0].SetBkColor( 0, 0, 0 );	

  004cb	53		 push	 ebx
  004cc	53		 push	 ebx
  004cd	53		 push	 ebx
  004ce	8d 8d 70 fe ff
	ff		 lea	 ecx, DWORD PTR _kPrinter$[ebp]
  004d4	e8 00 00 00 00	 call	 ?SetBkColor@ioComplexStringPrinter@@QAEXHHH@Z ; ioComplexStringPrinter::SetBkColor

; 458  : 	kPrinter[0].SetTextColor( TCT_DEFAULT_DARKGRAY );

  004d9	68 3a 3a 3a ff	 push	 -12961222		; ff3a3a3aH
  004de	8d 8d 70 fe ff
	ff		 lea	 ecx, DWORD PTR _kPrinter$[ebp]
  004e4	e8 00 00 00 00	 call	 ?SetTextColor@ioComplexStringPrinter@@QAEXK@Z ; ioComplexStringPrinter::SetTextColor

; 459  : 	kPrinter[0].AddTextPiece( FONT_SIZE_17, szName.c_str() );

  004e9	8d 8d b0 fe ff
	ff		 lea	 ecx, DWORD PTR _szName$[ebp]
  004ef	ff 15 00 00 00
	00		 call	 DWORD PTR __imp_?c_str@ioHashString@@QBEPBDXZ
  004f5	f3 0f 10 05 00
	00 00 00	 movss	 xmm0, DWORD PTR __real@3f59999a
  004fd	50		 push	 eax
  004fe	51		 push	 ecx
  004ff	8d 85 70 fe ff
	ff		 lea	 eax, DWORD PTR _kPrinter$[ebp]
  00505	f3 0f 11 04 24	 movss	 DWORD PTR [esp], xmm0
  0050a	50		 push	 eax
  0050b	e8 00 00 00 00	 call	 ?AddTextPiece@ioComplexStringPrinter@@QAAXMPBDZZ ; ioComplexStringPrinter::AddTextPiece

; 460  : 	kPrinter[0].PrintFullText( iXPos+DESC_BIG_X, iYPos+DESC_BIG_Y, TAT_CENTER );

  00510	8b 85 d0 fe ff
	ff		 mov	 eax, DWORD PTR _iXPos$[ebp]
  00516	8b b5 d8 fe ff
	ff		 mov	 esi, DWORD PTR _iYPos$[ebp]
  0051c	83 c4 0c	 add	 esp, 12			; 0000000cH
  0051f	bf ff 00 00 00	 mov	 edi, 255		; 000000ffH
  00524	57		 push	 edi
  00525	05 81 00 00 00	 add	 eax, 129		; 00000081H
  0052a	6a 01		 push	 1
  0052c	0f 57 c0	 xorps	 xmm0, xmm0
  0052f	f3 0f 2a c0	 cvtsi2ss xmm0, eax
  00533	51		 push	 ecx
  00534	51		 push	 ecx
  00535	8d 86 98 00 00
	00		 lea	 eax, DWORD PTR [esi+152]
  0053b	0f 57 c9	 xorps	 xmm1, xmm1
  0053e	f3 0f 2a c8	 cvtsi2ss xmm1, eax
  00542	f3 0f 11 4c 24
	04		 movss	 DWORD PTR [esp+4], xmm1
  00548	8d 8d 70 fe ff
	ff		 lea	 ecx, DWORD PTR _kPrinter$[ebp]
  0054e	f3 0f 11 85 d4
	fe ff ff	 movss	 DWORD PTR tv559[ebp], xmm0
  00556	f3 0f 11 04 24	 movss	 DWORD PTR [esp], xmm0
  0055b	e8 00 00 00 00	 call	 ?PrintFullText@ioComplexStringPrinter@@QAEXMMW4TextAlignType@@E@Z ; ioComplexStringPrinter::PrintFullText

; 461  : 
; 462  : 	kPrinter[1].ClearList();

  00560	8d 8d 90 fe ff
	ff		 lea	 ecx, DWORD PTR _kPrinter$[ebp+32]
  00566	e8 00 00 00 00	 call	 ?ClearList@ioComplexStringPrinter@@QAEXXZ ; ioComplexStringPrinter::ClearList

; 463  : 	kPrinter[1].SetTextStyle( TS_NORMAL );

  0056b	53		 push	 ebx
  0056c	8d 8d 90 fe ff
	ff		 lea	 ecx, DWORD PTR _kPrinter$[ebp+32]
  00572	e8 00 00 00 00	 call	 ?SetTextStyle@ioComplexStringPrinter@@QAEXW4TextStyle@@@Z ; ioComplexStringPrinter::SetTextStyle

; 464  : 	kPrinter[1].SetBkColor( 0, 0, 0 );

  00577	53		 push	 ebx
  00578	53		 push	 ebx
  00579	53		 push	 ebx
  0057a	8d 8d 90 fe ff
	ff		 lea	 ecx, DWORD PTR _kPrinter$[ebp+32]
  00580	e8 00 00 00 00	 call	 ?SetBkColor@ioComplexStringPrinter@@QAEXHHH@Z ; ioComplexStringPrinter::SetBkColor

; 465  : 	kPrinter[1].SetTextColor( TCT_DEFAULT_BLUE );

  00585	68 b2 46 16 ff	 push	 -15317326		; ff1646b2H
  0058a	8d 8d 90 fe ff
	ff		 lea	 ecx, DWORD PTR _kPrinter$[ebp+32]
  00590	e8 00 00 00 00	 call	 ?SetTextColor@ioComplexStringPrinter@@QAEXK@Z ; ioComplexStringPrinter::SetTextColor

; 466  : 	kPrinter[1].AddTextPiece( FONT_SIZE_17, szDesc.c_str() );

  00595	8d 8d c0 fe ff
	ff		 lea	 ecx, DWORD PTR _szDesc$[ebp]
  0059b	ff 15 00 00 00
	00		 call	 DWORD PTR __imp_?c_str@ioHashString@@QBEPBDXZ
  005a1	f3 0f 10 05 00
	00 00 00	 movss	 xmm0, DWORD PTR __real@3f59999a
  005a9	50		 push	 eax
  005aa	51		 push	 ecx
  005ab	8d 85 90 fe ff
	ff		 lea	 eax, DWORD PTR _kPrinter$[ebp+32]
  005b1	f3 0f 11 04 24	 movss	 DWORD PTR [esp], xmm0
  005b6	50		 push	 eax
  005b7	e8 00 00 00 00	 call	 ?AddTextPiece@ioComplexStringPrinter@@QAAXMPBDZZ ; ioComplexStringPrinter::AddTextPiece
  005bc	83 c4 0c	 add	 esp, 12			; 0000000cH

; 467  : 	kPrinter[1].PrintFullText( iXPos+DESC_BIG_X, iYPos+DESC_BIG_Y+23, TAT_CENTER );

  005bf	57		 push	 edi
  005c0	6a 01		 push	 1
  005c2	51		 push	 ecx
  005c3	51		 push	 ecx
  005c4	0f 57 c0	 xorps	 xmm0, xmm0
  005c7	81 c6 af 00 00
	00		 add	 esi, 175		; 000000afH
  005cd	f3 0f 2a c6	 cvtsi2ss xmm0, esi
  005d1	f3 0f 11 44 24
	04		 movss	 DWORD PTR [esp+4], xmm0
  005d7	f3 0f 10 85 d4
	fe ff ff	 movss	 xmm0, DWORD PTR tv559[ebp]
  005df	8d 8d 90 fe ff
	ff		 lea	 ecx, DWORD PTR _kPrinter$[ebp+32]
  005e5	f3 0f 11 04 24	 movss	 DWORD PTR [esp], xmm0
  005ea	e8 00 00 00 00	 call	 ?PrintFullText@ioComplexStringPrinter@@QAEXMMW4TextAlignType@@E@Z ; ioComplexStringPrinter::PrintFullText

; 468  : }

  005ef	8b 3d 00 00 00
	00		 mov	 edi, DWORD PTR __imp_??1ioHashString@@QAE@XZ
  005f5	8d 8d c0 fe ff
	ff		 lea	 ecx, DWORD PTR _szDesc$[ebp]
  005fb	c6 45 fc 01	 mov	 BYTE PTR __$EHRec$[ebp+8], 1
  005ff	ff d7		 call	 edi
  00601	88 5d fc	 mov	 BYTE PTR __$EHRec$[ebp+8], bl
  00604	8d 8d b0 fe ff
	ff		 lea	 ecx, DWORD PTR _szName$[ebp]
  0060a	ff d7		 call	 edi
  0060c	83 4d fc ff	 or	 DWORD PTR __$EHRec$[ebp+8], -1
  00610	68 00 00 00 00	 push	 OFFSET ??1ioComplexStringPrinter@@QAE@XZ ; ioComplexStringPrinter::~ioComplexStringPrinter
  00615	6a 02		 push	 2
  00617	6a 20		 push	 32			; 00000020H
  00619	8d 85 70 fe ff
	ff		 lea	 eax, DWORD PTR _kPrinter$[ebp]
  0061f	50		 push	 eax
  00620	e8 00 00 00 00	 call	 ??_M@YGXPAXIHP6EX0@Z@Z
  00625	e8 00 00 00 00	 call	 __EH_epilog3_GS
  0062a	c3		 ret	 0
_TEXT	ENDS
;	COMDAT text$x
text$x	SEGMENT
__unwindfunclet$?OnRender@RandomDecoWnd@@MAEXXZ$0:
  00000	68 00 00 00 00	 push	 OFFSET ??1ioComplexStringPrinter@@QAE@XZ ; ioComplexStringPrinter::~ioComplexStringPrinter
  00005	6a 02		 push	 2
  00007	6a 20		 push	 32			; 00000020H
  00009	8d 85 70 fe ff
	ff		 lea	 eax, DWORD PTR _kPrinter$[ebp]
  0000f	50		 push	 eax
  00010	e8 00 00 00 00	 call	 ??_M@YGXPAXIHP6EX0@Z@Z
  00015	c3		 ret	 0
__unwindfunclet$?OnRender@RandomDecoWnd@@MAEXXZ$1:
  00016	8d 8d b0 fe ff
	ff		 lea	 ecx, DWORD PTR _szName$[ebp]
  0001c	ff 25 00 00 00
	00		 jmp	 DWORD PTR __imp_??1ioHashString@@QAE@XZ
__unwindfunclet$?OnRender@RandomDecoWnd@@MAEXXZ$2:
  00022	8d 8d c0 fe ff
	ff		 lea	 ecx, DWORD PTR _szDesc$[ebp]
  00028	ff 25 00 00 00
	00		 jmp	 DWORD PTR __imp_??1ioHashString@@QAE@XZ
__ehhandler$?OnRender@RandomDecoWnd@@MAEXXZ:
  0002e	8b 54 24 08	 mov	 edx, DWORD PTR [esp+8]
  00032	8d 42 0c	 lea	 eax, DWORD PTR [edx+12]
  00035	8b 8a 6c fe ff
	ff		 mov	 ecx, DWORD PTR [edx-404]
  0003b	33 c8		 xor	 ecx, eax
  0003d	e8 00 00 00 00	 call	 @__security_check_cookie@4
  00042	8b 4a fc	 mov	 ecx, DWORD PTR [edx-4]
  00045	33 c8		 xor	 ecx, eax
  00047	e8 00 00 00 00	 call	 @__security_check_cookie@4
  0004c	b8 00 00 00 00	 mov	 eax, OFFSET __ehfuncinfo$?OnRender@RandomDecoWnd@@MAEXXZ
  00051	e9 00 00 00 00	 jmp	 ___CxxFrameHandler3
text$x	ENDS
?OnRender@RandomDecoWnd@@MAEXXZ ENDP			; RandomDecoWnd::OnRender
PUBLIC	?_Grow_to@?$vector@VioHashString@@V?$allocator@VioHashString@@@std@@@std@@IBEII@Z ; std::vector<ioHashString,std::allocator<ioHashString> >::_Grow_to
; Function compile flags: /Ogsp
; File c:\program files (x86)\microsoft visual studio 10.0\vc\include\vector
;	COMDAT ?_Grow_to@?$vector@VioHashString@@V?$allocator@VioHashString@@@std@@@std@@IBEII@Z
_TEXT	SEGMENT
__Count$ = 8						; size = 4
?_Grow_to@?$vector@VioHashString@@V?$allocator@VioHashString@@@std@@@std@@IBEII@Z PROC ; std::vector<ioHashString,std::allocator<ioHashString> >::_Grow_to, COMDAT
; _this$ = ecx

; 1274 : 		{	// grow by 50% or at least to _Count

  00000	55		 push	 ebp
  00001	8b ec		 mov	 ebp, esp

; 1275 : 		size_type _Capacity = capacity();

  00003	8b 41 08	 mov	 eax, DWORD PTR [ecx+8]
  00006	2b 01		 sub	 eax, DWORD PTR [ecx]

; 1276 : 
; 1277 : 		_Capacity = max_size() - _Capacity / 2 < _Capacity
; 1278 : 			? 0 : _Capacity + _Capacity / 2;	// try to grow by 50%

  00008	ba ff ff ff 0f	 mov	 edx, 268435455		; 0fffffffH
  0000d	c1 f8 04	 sar	 eax, 4
  00010	8b c8		 mov	 ecx, eax
  00012	d1 e9		 shr	 ecx, 1
  00014	2b d1		 sub	 edx, ecx
  00016	3b d0		 cmp	 edx, eax
  00018	73 04		 jae	 SHORT $LN4@Grow_to
  0001a	33 c0		 xor	 eax, eax
  0001c	eb 02		 jmp	 SHORT $LN5@Grow_to
$LN4@Grow_to:
  0001e	03 c1		 add	 eax, ecx
$LN5@Grow_to:

; 1279 : 		if (_Capacity < _Count)

  00020	3b 45 08	 cmp	 eax, DWORD PTR __Count$[ebp]

; 1280 : 			_Capacity = _Count;

  00023	0f 42 45 08	 cmovb	 eax, DWORD PTR __Count$[ebp]

; 1281 : 		return (_Capacity);
; 1282 : 		}

  00027	5d		 pop	 ebp
  00028	c2 04 00	 ret	 4
?_Grow_to@?$vector@VioHashString@@V?$allocator@VioHashString@@@std@@@std@@IBEII@Z ENDP ; std::vector<ioHashString,std::allocator<ioHashString> >::_Grow_to
_TEXT	ENDS
PUBLIC	??$_Cons_val@V?$allocator@VioHashString@@@std@@VioHashString@@AAV3@@std@@YAXAAV?$allocator@VioHashString@@@0@PAVioHashString@@AAV2@@Z ; std::_Cons_val<std::allocator<ioHashString>,ioHashString,ioHashString &>
; Function compile flags: /Ogsp
; File c:\program files (x86)\microsoft visual studio 10.0\vc\include\xmemory
;	COMDAT ??$_Cons_val@V?$allocator@VioHashString@@@std@@VioHashString@@AAV3@@std@@YAXAAV?$allocator@VioHashString@@@0@PAVioHashString@@AAV2@@Z
_TEXT	SEGMENT
__Alval$ = 8						; size = 4
__Pdest$ = 12						; size = 4
__Src$ = 16						; size = 4
??$_Cons_val@V?$allocator@VioHashString@@@std@@VioHashString@@AAV3@@std@@YAXAAV?$allocator@VioHashString@@@0@PAVioHashString@@AAV2@@Z PROC ; std::_Cons_val<std::allocator<ioHashString>,ioHashString,ioHashString &>, COMDAT

; 279  : 	{	// construct using allocator

  00000	55		 push	 ebp
  00001	8b ec		 mov	 ebp, esp

; 280  : 	_Alval.construct(_Pdest, _STD forward<_Ty2>(_Src));

  00003	ff 75 10	 push	 DWORD PTR __Src$[ebp]
  00006	8b 4d 08	 mov	 ecx, DWORD PTR __Alval$[ebp]
  00009	ff 75 0c	 push	 DWORD PTR __Pdest$[ebp]
  0000c	e8 00 00 00 00	 call	 ??$construct@AAVioHashString@@@?$allocator@VioHashString@@@std@@QAEXPAVioHashString@@AAV2@@Z ; std::allocator<ioHashString>::construct<ioHashString &>

; 281  : 	}

  00011	5d		 pop	 ebp
  00012	c3		 ret	 0
??$_Cons_val@V?$allocator@VioHashString@@@std@@VioHashString@@AAV3@@std@@YAXAAV?$allocator@VioHashString@@@0@PAVioHashString@@AAV2@@Z ENDP ; std::_Cons_val<std::allocator<ioHashString>,ioHashString,ioHashString &>
_TEXT	ENDS
PUBLIC	??$_Cons_val@V?$allocator@VioHashString@@@std@@VioHashString@@V3@@std@@YAXAAV?$allocator@VioHashString@@@0@PAVioHashString@@$$QAV2@@Z ; std::_Cons_val<std::allocator<ioHashString>,ioHashString,ioHashString>
; Function compile flags: /Ogsp
;	COMDAT ??$_Cons_val@V?$allocator@VioHashString@@@std@@VioHashString@@V3@@std@@YAXAAV?$allocator@VioHashString@@@0@PAVioHashString@@$$QAV2@@Z
_TEXT	SEGMENT
__Alval$ = 8						; size = 4
__Pdest$ = 12						; size = 4
__Src$ = 16						; size = 4
??$_Cons_val@V?$allocator@VioHashString@@@std@@VioHashString@@V3@@std@@YAXAAV?$allocator@VioHashString@@@0@PAVioHashString@@$$QAV2@@Z PROC ; std::_Cons_val<std::allocator<ioHashString>,ioHashString,ioHashString>, COMDAT

; 279  : 	{	// construct using allocator

  00000	55		 push	 ebp
  00001	8b ec		 mov	 ebp, esp

; 280  : 	_Alval.construct(_Pdest, _STD forward<_Ty2>(_Src));

  00003	ff 75 10	 push	 DWORD PTR __Src$[ebp]
  00006	8b 4d 08	 mov	 ecx, DWORD PTR __Alval$[ebp]
  00009	ff 75 0c	 push	 DWORD PTR __Pdest$[ebp]
  0000c	e8 00 00 00 00	 call	 ?construct@?$allocator@VioHashString@@@std@@QAEXPAVioHashString@@$$QAV3@@Z ; std::allocator<ioHashString>::construct

; 281  : 	}

  00011	5d		 pop	 ebp
  00012	c3		 ret	 0
??$_Cons_val@V?$allocator@VioHashString@@@std@@VioHashString@@V3@@std@@YAXAAV?$allocator@VioHashString@@@0@PAVioHashString@@$$QAV2@@Z ENDP ; std::_Cons_val<std::allocator<ioHashString>,ioHashString,ioHashString>
_TEXT	ENDS
PUBLIC	??0?$vector@VioHashString@@V?$allocator@VioHashString@@@std@@@std@@QAE@XZ ; std::vector<ioHashString,std::allocator<ioHashString> >::vector<ioHashString,std::allocator<ioHashString> >
; Function compile flags: /Ogsp
; File c:\program files (x86)\microsoft visual studio 10.0\vc\include\vector
;	COMDAT ??0?$vector@VioHashString@@V?$allocator@VioHashString@@@std@@@std@@QAE@XZ
_TEXT	SEGMENT
??0?$vector@VioHashString@@V?$allocator@VioHashString@@@std@@@std@@QAE@XZ PROC ; std::vector<ioHashString,std::allocator<ioHashString> >::vector<ioHashString,std::allocator<ioHashString> >, COMDAT
; _this$ = ecx

; 507  : 		{	// construct empty vector

  00000	8b c1		 mov	 eax, ecx
  00002	33 c9		 xor	 ecx, ecx
  00004	89 08		 mov	 DWORD PTR [eax], ecx
  00006	89 48 04	 mov	 DWORD PTR [eax+4], ecx
  00009	89 48 08	 mov	 DWORD PTR [eax+8], ecx

; 508  : 		}

  0000c	c3		 ret	 0
??0?$vector@VioHashString@@V?$allocator@VioHashString@@@std@@@std@@QAE@XZ ENDP ; std::vector<ioHashString,std::allocator<ioHashString> >::vector<ioHashString,std::allocator<ioHashString> >
_TEXT	ENDS
PUBLIC	??9?$_Vector_const_iterator@V?$_Vector_val@VioHashString@@V?$allocator@VioHashString@@@std@@@std@@@std@@QBE_NABV01@@Z ; std::_Vector_const_iterator<std::_Vector_val<ioHashString,std::allocator<ioHashString> > >::operator!=
; Function compile flags: /Ogsp
;	COMDAT ??9?$_Vector_const_iterator@V?$_Vector_val@VioHashString@@V?$allocator@VioHashString@@@std@@@std@@@std@@QBE_NABV01@@Z
_TEXT	SEGMENT
__Right$ = 8						; size = 4
??9?$_Vector_const_iterator@V?$_Vector_val@VioHashString@@V?$allocator@VioHashString@@@std@@@std@@@std@@QBE_NABV01@@Z PROC ; std::_Vector_const_iterator<std::_Vector_val<ioHashString,std::allocator<ioHashString> > >::operator!=, COMDAT
; _this$ = ecx

; 207  : 		{	// test for iterator inequality

  00000	55		 push	 ebp
  00001	8b ec		 mov	 ebp, esp

; 208  : 		return (!(*this == _Right));

  00003	8b 01		 mov	 eax, DWORD PTR [ecx]
  00005	8b 55 08	 mov	 edx, DWORD PTR __Right$[ebp]
  00008	33 c9		 xor	 ecx, ecx
  0000a	3b 02		 cmp	 eax, DWORD PTR [edx]
  0000c	0f 95 c0	 setne	 al

; 209  : 		}

  0000f	5d		 pop	 ebp
  00010	c2 04 00	 ret	 4
??9?$_Vector_const_iterator@V?$_Vector_val@VioHashString@@V?$allocator@VioHashString@@@std@@@std@@@std@@QBE_NABV01@@Z ENDP ; std::_Vector_const_iterator<std::_Vector_val<ioHashString,std::allocator<ioHashString> > >::operator!=
_TEXT	ENDS
PUBLIC	??$_Move@PAVioHashString@@PAV1@@std@@YAPAVioHashString@@PAV1@00@Z ; std::_Move<ioHashString *,ioHashString *>
; Function compile flags: /Ogsp
; File c:\program files (x86)\microsoft visual studio 10.0\vc\include\xutility
;	COMDAT ??$_Move@PAVioHashString@@PAV1@@std@@YAPAVioHashString@@PAV1@00@Z
_TEXT	SEGMENT
__Cat$513384 = -4					; size = 1
__First$ = 8						; size = 4
__Last$ = 12						; size = 4
__Dest$ = 16						; size = 4
??$_Move@PAVioHashString@@PAV1@@std@@YAPAVioHashString@@PAV1@00@Z PROC ; std::_Move<ioHashString *,ioHashString *>, COMDAT

; 2533 : 	{	// move [_First, _Last) to [_Dest, ...), unchecked

  00000	55		 push	 ebp
  00001	8b ec		 mov	 ebp, esp
  00003	51		 push	 ecx

; 2534 : 	return (_Move(_First, _Last,
; 2535 : 		_Dest, _Ptr_cat(_First, _Dest)));

  00004	ff 75 fc	 push	 DWORD PTR __Cat$513384[ebp]
  00007	ff 75 10	 push	 DWORD PTR __Dest$[ebp]
  0000a	ff 75 0c	 push	 DWORD PTR __Last$[ebp]
  0000d	ff 75 08	 push	 DWORD PTR __First$[ebp]
  00010	e8 00 00 00 00	 call	 ??$_Move@PAVioHashString@@PAV1@@std@@YAPAVioHashString@@PAV1@00U_Nonscalar_ptr_iterator_tag@0@@Z ; std::_Move<ioHashString *,ioHashString *>
  00015	83 c4 10	 add	 esp, 16			; 00000010H

; 2536 : 	}

  00018	c9		 leave
  00019	c3		 ret	 0
??$_Move@PAVioHashString@@PAV1@@std@@YAPAVioHashString@@PAV1@00@Z ENDP ; std::_Move<ioHashString *,ioHashString *>
_TEXT	ENDS
PUBLIC	?destroy@?$allocator@VioHashString@@@std@@QAEXPAVioHashString@@@Z ; std::allocator<ioHashString>::destroy
; Function compile flags: /Ogsp
; File c:\program files (x86)\microsoft visual studio 10.0\vc\include\xmemory
;	COMDAT ?destroy@?$allocator@VioHashString@@@std@@QAEXPAVioHashString@@@Z
_TEXT	SEGMENT
__Ptr$ = 8						; size = 4
?destroy@?$allocator@VioHashString@@@std@@QAEXPAVioHashString@@@Z PROC ; std::allocator<ioHashString>::destroy, COMDAT
; _this$ = ecx

; 212  : 		{	// destroy object at _Ptr

  00000	55		 push	 ebp
  00001	8b ec		 mov	 ebp, esp

; 213  : 		_Destroy(_Ptr);

  00003	8b 4d 08	 mov	 ecx, DWORD PTR __Ptr$[ebp]
  00006	ff 15 00 00 00
	00		 call	 DWORD PTR __imp_??1ioHashString@@QAE@XZ

; 214  : 		}

  0000c	5d		 pop	 ebp
  0000d	c2 04 00	 ret	 4
?destroy@?$allocator@VioHashString@@@std@@QAEXPAVioHashString@@@Z ENDP ; std::allocator<ioHashString>::destroy
_TEXT	ENDS
PUBLIC	??$_Cons_val@V?$allocator@VioHashString@@@std@@VioHashString@@ABV3@@std@@YAXAAV?$allocator@VioHashString@@@0@PAVioHashString@@ABV2@@Z ; std::_Cons_val<std::allocator<ioHashString>,ioHashString,ioHashString const &>
; Function compile flags: /Ogsp
;	COMDAT ??$_Cons_val@V?$allocator@VioHashString@@@std@@VioHashString@@ABV3@@std@@YAXAAV?$allocator@VioHashString@@@0@PAVioHashString@@ABV2@@Z
_TEXT	SEGMENT
__Alval$ = 8						; size = 4
__Pdest$ = 12						; size = 4
__Src$ = 16						; size = 4
??$_Cons_val@V?$allocator@VioHashString@@@std@@VioHashString@@ABV3@@std@@YAXAAV?$allocator@VioHashString@@@0@PAVioHashString@@ABV2@@Z PROC ; std::_Cons_val<std::allocator<ioHashString>,ioHashString,ioHashString const &>, COMDAT

; 279  : 	{	// construct using allocator

  00000	55		 push	 ebp
  00001	8b ec		 mov	 ebp, esp

; 280  : 	_Alval.construct(_Pdest, _STD forward<_Ty2>(_Src));

  00003	ff 75 10	 push	 DWORD PTR __Src$[ebp]
  00006	ff 75 0c	 push	 DWORD PTR __Pdest$[ebp]
  00009	e8 00 00 00 00	 call	 ??$_Construct@VioHashString@@ABV1@@std@@YAXPAVioHashString@@ABV1@@Z ; std::_Construct<ioHashString,ioHashString const &>
  0000e	59		 pop	 ecx
  0000f	59		 pop	 ecx

; 281  : 	}

  00010	5d		 pop	 ebp
  00011	c3		 ret	 0
??$_Cons_val@V?$allocator@VioHashString@@@std@@VioHashString@@ABV3@@std@@YAXAAV?$allocator@VioHashString@@@0@PAVioHashString@@ABV2@@Z ENDP ; std::_Cons_val<std::allocator<ioHashString>,ioHashString,ioHashString const &>
_TEXT	ENDS
PUBLIC	?OnProcess@RandomDecoWnd@@MAEXM@Z		; RandomDecoWnd::OnProcess
EXTRN	__imp_?OnProcess@ioWnd@@MAEXM@Z:PROC
EXTRN	__imp_?IsShow@ioWnd@@QBE_NXZ:PROC
; Function compile flags: /Ogsp
; File d:\lost saga for developer\youtube\tutorial\source\src\lsclient\gui\randomdecownd.cpp
;	COMDAT ?OnProcess@RandomDecoWnd@@MAEXM@Z
_TEXT	SEGMENT
_fTimePerSec$ = 8					; size = 4
?OnProcess@RandomDecoWnd@@MAEXM@Z PROC			; RandomDecoWnd::OnProcess, COMDAT
; _this$ = ecx

; 199  : {

  00000	55		 push	 ebp
  00001	8b ec		 mov	 ebp, esp
  00003	56		 push	 esi
  00004	8b f1		 mov	 esi, ecx

; 200  : 	if( !IsShow() ) return;

  00006	ff 15 00 00 00
	00		 call	 DWORD PTR __imp_?IsShow@ioWnd@@QBE_NXZ
  0000c	84 c0		 test	 al, al
  0000e	74 37		 je	 SHORT $LN2@OnProcess

; 201  : 
; 202  : 	ioWnd::OnProcess( fTimePerSec );

  00010	f3 0f 10 45 08	 movss	 xmm0, DWORD PTR _fTimePerSec$[ebp]
  00015	51		 push	 ecx
  00016	8b ce		 mov	 ecx, esi
  00018	f3 0f 11 04 24	 movss	 DWORD PTR [esp], xmm0
  0001d	ff 15 00 00 00
	00		 call	 DWORD PTR __imp_?OnProcess@ioWnd@@MAEXM@Z

; 203  : 
; 204  : 	RollingIcon( fTimePerSec );

  00023	f3 0f 10 45 08	 movss	 xmm0, DWORD PTR _fTimePerSec$[ebp]
  00028	51		 push	 ecx
  00029	8b ce		 mov	 ecx, esi
  0002b	f3 0f 11 04 24	 movss	 DWORD PTR [esp], xmm0
  00030	e8 00 00 00 00	 call	 ?RollingIcon@RandomDecoWnd@@IAEXM@Z ; RandomDecoWnd::RollingIcon

; 205  : 	RollingEffect( fTimePerSec );

  00035	f3 0f 10 45 08	 movss	 xmm0, DWORD PTR _fTimePerSec$[ebp]
  0003a	51		 push	 ecx
  0003b	8b ce		 mov	 ecx, esi
  0003d	f3 0f 11 04 24	 movss	 DWORD PTR [esp], xmm0
  00042	e8 00 00 00 00	 call	 ?RollingEffect@RandomDecoWnd@@IAEXM@Z ; RandomDecoWnd::RollingEffect
$LN2@OnProcess:
  00047	5e		 pop	 esi

; 206  : }

  00048	5d		 pop	 ebp
  00049	c2 04 00	 ret	 4
?OnProcess@RandomDecoWnd@@MAEXM@Z ENDP			; RandomDecoWnd::OnProcess
_TEXT	ENDS
PUBLIC	??$_Dest_val@V?$allocator@VioHashString@@@std@@VioHashString@@@std@@YAXAAV?$allocator@VioHashString@@@0@PAVioHashString@@@Z ; std::_Dest_val<std::allocator<ioHashString>,ioHashString>
; Function compile flags: /Ogsp
; File c:\program files (x86)\microsoft visual studio 10.0\vc\include\xmemory
;	COMDAT ??$_Dest_val@V?$allocator@VioHashString@@@std@@VioHashString@@@std@@YAXAAV?$allocator@VioHashString@@@0@PAVioHashString@@@Z
_TEXT	SEGMENT
__Alval$ = 8						; size = 4
__Pdest$ = 12						; size = 4
??$_Dest_val@V?$allocator@VioHashString@@@std@@VioHashString@@@std@@YAXAAV?$allocator@VioHashString@@@0@PAVioHashString@@@Z PROC ; std::_Dest_val<std::allocator<ioHashString>,ioHashString>, COMDAT

; 286  : 	{	// destroy using allocator

  00000	55		 push	 ebp
  00001	8b ec		 mov	 ebp, esp

; 287  : 	_Alval.destroy(_Pdest);

  00003	8b 4d 0c	 mov	 ecx, DWORD PTR __Pdest$[ebp]

; 288  : 	}

  00006	5d		 pop	 ebp

; 287  : 	_Alval.destroy(_Pdest);

  00007	ff 25 00 00 00
	00		 jmp	 DWORD PTR __imp_??1ioHashString@@QAE@XZ
??$_Dest_val@V?$allocator@VioHashString@@@std@@VioHashString@@@std@@YAXAAV?$allocator@VioHashString@@@0@PAVioHashString@@@Z ENDP ; std::_Dest_val<std::allocator<ioHashString>,ioHashString>
_TEXT	ENDS
PUBLIC	??$_Uninit_move@PAVioHashString@@PAV1@V?$allocator@VioHashString@@@std@@V1@@std@@YAPAVioHashString@@PAV1@00AAV?$allocator@VioHashString@@@0@0U_Nonscalar_ptr_iterator_tag@0@@Z ; std::_Uninit_move<ioHashString *,ioHashString *,std::allocator<ioHashString>,ioHashString>
EXTRN	__EH_prolog3_catch:PROC
;	COMDAT xdata$x
; File c:\program files (x86)\microsoft visual studio 10.0\vc\include\vector
xdata$x	SEGMENT
__catchsym$??$_Uninit_move@PAVioHashString@@PAV1@V?$allocator@VioHashString@@@std@@V1@@std@@YAPAVioHashString@@PAV1@00AAV?$allocator@VioHashString@@@0@0U_Nonscalar_ptr_iterator_tag@0@@Z$2 DD 040H
	DD	00H
	DD	00H
	DD	FLAT:__catch$??$_Uninit_move@PAVioHashString@@PAV1@V?$allocator@VioHashString@@@std@@V1@@std@@YAPAVioHashString@@PAV1@00AAV?$allocator@VioHashString@@@0@0U_Nonscalar_ptr_iterator_tag@0@@Z$0
__unwindtable$??$_Uninit_move@PAVioHashString@@PAV1@V?$allocator@VioHashString@@@std@@V1@@std@@YAPAVioHashString@@PAV1@00AAV?$allocator@VioHashString@@@0@0U_Nonscalar_ptr_iterator_tag@0@@Z DD 0ffffffffH
	DD	00H
	DD	0ffffffffH
	DD	00H
__tryblocktable$??$_Uninit_move@PAVioHashString@@PAV1@V?$allocator@VioHashString@@@std@@V1@@std@@YAPAVioHashString@@PAV1@00AAV?$allocator@VioHashString@@@0@0U_Nonscalar_ptr_iterator_tag@0@@Z DD 00H
	DD	00H
	DD	01H
	DD	01H
	DD	FLAT:__catchsym$??$_Uninit_move@PAVioHashString@@PAV1@V?$allocator@VioHashString@@@std@@V1@@std@@YAPAVioHashString@@PAV1@00AAV?$allocator@VioHashString@@@0@0U_Nonscalar_ptr_iterator_tag@0@@Z$2
__ehfuncinfo$??$_Uninit_move@PAVioHashString@@PAV1@V?$allocator@VioHashString@@@std@@V1@@std@@YAPAVioHashString@@PAV1@00AAV?$allocator@VioHashString@@@0@0U_Nonscalar_ptr_iterator_tag@0@@Z DD 019930522H
	DD	02H
	DD	FLAT:__unwindtable$??$_Uninit_move@PAVioHashString@@PAV1@V?$allocator@VioHashString@@@std@@V1@@std@@YAPAVioHashString@@PAV1@00AAV?$allocator@VioHashString@@@0@0U_Nonscalar_ptr_iterator_tag@0@@Z
	DD	01H
	DD	FLAT:__tryblocktable$??$_Uninit_move@PAVioHashString@@PAV1@V?$allocator@VioHashString@@@std@@V1@@std@@YAPAVioHashString@@PAV1@00AAV?$allocator@VioHashString@@@0@0U_Nonscalar_ptr_iterator_tag@0@@Z
	DD	2 DUP(00H)
	DD	00H
	DD	01H
; Function compile flags: /Ogsp
; File c:\program files (x86)\microsoft visual studio 10.0\vc\include\memory
xdata$x	ENDS
;	COMDAT ??$_Uninit_move@PAVioHashString@@PAV1@V?$allocator@VioHashString@@@std@@V1@@std@@YAPAVioHashString@@PAV1@00AAV?$allocator@VioHashString@@@0@0U_Nonscalar_ptr_iterator_tag@0@@Z
_TEXT	SEGMENT
__Next$ = -20						; size = 4
__$EHRec$ = -16						; size = 16
__First$ = 8						; size = 4
__Last$ = 12						; size = 4
__Dest$ = 16						; size = 4
__Al$ = 20						; size = 4
___formal$ = 24						; size = 4
___formal$ = 28						; size = 1
??$_Uninit_move@PAVioHashString@@PAV1@V?$allocator@VioHashString@@@std@@V1@@std@@YAPAVioHashString@@PAV1@00AAV?$allocator@VioHashString@@@0@0U_Nonscalar_ptr_iterator_tag@0@@Z PROC ; std::_Uninit_move<ioHashString *,ioHashString *,std::allocator<ioHashString>,ioHashString>, COMDAT

; 424  : 	{	// move [_First, _Last) to raw _Dest, using _Al, arbitrary type

  00000	6a 08		 push	 8
  00002	b8 00 00 00 00	 mov	 eax, __ehhandler$??$_Uninit_move@PAVioHashString@@PAV1@V?$allocator@VioHashString@@@std@@V1@@std@@YAPAVioHashString@@PAV1@00AAV?$allocator@VioHashString@@@0@0U_Nonscalar_ptr_iterator_tag@0@@Z
  00007	e8 00 00 00 00	 call	 __EH_prolog3_catch

; 425  : 	_DEBUG_RANGE(_First, _Last);
; 426  : 	_DEBUG_POINTER(_Dest);
; 427  : 	_FwdIt _Next = _Dest;

  0000c	8b 45 10	 mov	 eax, DWORD PTR __Dest$[ebp]

; 428  : 
; 429  : 	_TRY_BEGIN

  0000f	83 65 fc 00	 and	 DWORD PTR __$EHRec$[ebp+12], 0
  00013	8b 75 08	 mov	 esi, DWORD PTR __First$[ebp]
  00016	89 45 ec	 mov	 DWORD PTR __Next$[ebp], eax
$LL6@Uninit_mov:

; 430  : 	for (; _First != _Last; ++_Dest, ++_First)

  00019	3b 75 0c	 cmp	 esi, DWORD PTR __Last$[ebp]
  0001c	74 33		 je	 SHORT $LN4@Uninit_mov

; 431  : 		_Cons_val(_Al, _Dest, (_Valty &&)*_First);

  0001e	8b 4d 14	 mov	 ecx, DWORD PTR __Al$[ebp]
  00021	56		 push	 esi
  00022	ff 75 10	 push	 DWORD PTR __Dest$[ebp]
  00025	e8 00 00 00 00	 call	 ?construct@?$allocator@VioHashString@@@std@@QAEXPAVioHashString@@$$QAV3@@Z ; std::allocator<ioHashString>::construct
  0002a	83 45 10 10	 add	 DWORD PTR __Dest$[ebp], 16 ; 00000010H
  0002e	83 c6 10	 add	 esi, 16			; 00000010H
  00031	eb e6		 jmp	 SHORT $LL6@Uninit_mov
__catch$??$_Uninit_move@PAVioHashString@@PAV1@V?$allocator@VioHashString@@@std@@V1@@std@@YAPAVioHashString@@PAV1@00AAV?$allocator@VioHashString@@@0@0U_Nonscalar_ptr_iterator_tag@0@@Z$0:

; 432  : 	_CATCH_ALL
; 433  : 	for (; _Next != _Dest; ++_Next)

  00033	8b 75 ec	 mov	 esi, DWORD PTR __Next$[ebp]
  00036	eb 0b		 jmp	 SHORT $LN33@Uninit_mov
$LL3@Uninit_mov:

; 434  : 		_Dest_val(_Al, _Next);

  00038	8b ce		 mov	 ecx, esi
  0003a	ff 15 00 00 00
	00		 call	 DWORD PTR __imp_??1ioHashString@@QAE@XZ
  00040	83 c6 10	 add	 esi, 16			; 00000010H
$LN33@Uninit_mov:

; 432  : 	_CATCH_ALL
; 433  : 	for (; _Next != _Dest; ++_Next)

  00043	3b 75 10	 cmp	 esi, DWORD PTR __Dest$[ebp]
  00046	75 f0		 jne	 SHORT $LL3@Uninit_mov

; 435  : 	_RERAISE;

  00048	6a 00		 push	 0
  0004a	6a 00		 push	 0
  0004c	e8 00 00 00 00	 call	 __CxxThrowException@8
$LN34@Uninit_mov:
$LN4@Uninit_mov:

; 436  : 	_CATCH_END
; 437  : 	return (_Dest);

  00051	8b 45 10	 mov	 eax, DWORD PTR __Dest$[ebp]

; 438  : 	}

  00054	e8 00 00 00 00	 call	 __EH_epilog3
  00059	c3		 ret	 0
$LN32@Uninit_mov:
_TEXT	ENDS
;	COMDAT text$x
text$x	SEGMENT
__ehhandler$??$_Uninit_move@PAVioHashString@@PAV1@V?$allocator@VioHashString@@@std@@V1@@std@@YAPAVioHashString@@PAV1@00AAV?$allocator@VioHashString@@@0@0U_Nonscalar_ptr_iterator_tag@0@@Z:
  00000	8b 54 24 08	 mov	 edx, DWORD PTR [esp+8]
  00004	8d 42 0c	 lea	 eax, DWORD PTR [edx+12]
  00007	8b 4a e8	 mov	 ecx, DWORD PTR [edx-24]
  0000a	33 c8		 xor	 ecx, eax
  0000c	e8 00 00 00 00	 call	 @__security_check_cookie@4
  00011	b8 00 00 00 00	 mov	 eax, OFFSET __ehfuncinfo$??$_Uninit_move@PAVioHashString@@PAV1@V?$allocator@VioHashString@@@std@@V1@@std@@YAPAVioHashString@@PAV1@00AAV?$allocator@VioHashString@@@0@0U_Nonscalar_ptr_iterator_tag@0@@Z
  00016	e9 00 00 00 00	 jmp	 ___CxxFrameHandler3
text$x	ENDS
??$_Uninit_move@PAVioHashString@@PAV1@V?$allocator@VioHashString@@@std@@V1@@std@@YAPAVioHashString@@PAV1@00AAV?$allocator@VioHashString@@@0@0U_Nonscalar_ptr_iterator_tag@0@@Z ENDP ; std::_Uninit_move<ioHashString *,ioHashString *,std::allocator<ioHashString>,ioHashString>
PUBLIC	??$_Destroy_range@V?$allocator@VioHashString@@@std@@@std@@YAXPAVioHashString@@0AAV?$allocator@VioHashString@@@0@U_Nonscalar_ptr_iterator_tag@0@@Z ; std::_Destroy_range<std::allocator<ioHashString> >
; Function compile flags: /Ogsp
; File c:\program files (x86)\microsoft visual studio 10.0\vc\include\xmemory
;	COMDAT ??$_Destroy_range@V?$allocator@VioHashString@@@std@@@std@@YAXPAVioHashString@@0AAV?$allocator@VioHashString@@@0@U_Nonscalar_ptr_iterator_tag@0@@Z
_TEXT	SEGMENT
__First$ = 8						; size = 4
__Last$ = 12						; size = 4
__Al$ = 16						; size = 4
___formal$ = 20						; size = 1
??$_Destroy_range@V?$allocator@VioHashString@@@std@@@std@@YAXPAVioHashString@@0AAV?$allocator@VioHashString@@@0@U_Nonscalar_ptr_iterator_tag@0@@Z PROC ; std::_Destroy_range<std::allocator<ioHashString> >, COMDAT

; 95   : 	{	// destroy [_First, _Last), arbitrary type

  00000	55		 push	 ebp
  00001	8b ec		 mov	 ebp, esp
  00003	56		 push	 esi

; 96   : 	for (; _First != _Last; ++_First)

  00004	8b 75 08	 mov	 esi, DWORD PTR __First$[ebp]
  00007	eb 0b		 jmp	 SHORT $LN17@Destroy_ra
$LL3@Destroy_ra:

; 97   : 		_Dest_val(_Al, _First);

  00009	8b ce		 mov	 ecx, esi
  0000b	ff 15 00 00 00
	00		 call	 DWORD PTR __imp_??1ioHashString@@QAE@XZ
  00011	83 c6 10	 add	 esi, 16			; 00000010H
$LN17@Destroy_ra:

; 96   : 	for (; _First != _Last; ++_First)

  00014	3b 75 0c	 cmp	 esi, DWORD PTR __Last$[ebp]
  00017	75 f0		 jne	 SHORT $LL3@Destroy_ra
  00019	5e		 pop	 esi

; 98   : 	}

  0001a	5d		 pop	 ebp
  0001b	c3		 ret	 0
??$_Destroy_range@V?$allocator@VioHashString@@@std@@@std@@YAXPAVioHashString@@0AAV?$allocator@VioHashString@@@0@U_Nonscalar_ptr_iterator_tag@0@@Z ENDP ; std::_Destroy_range<std::allocator<ioHashString> >
_TEXT	ENDS
PUBLIC	??$_Uninitialized_move@PAVioHashString@@PAV1@V?$allocator@VioHashString@@@std@@@std@@YAPAVioHashString@@PAV1@00AAV?$allocator@VioHashString@@@0@@Z ; std::_Uninitialized_move<ioHashString *,ioHashString *,std::allocator<ioHashString> >
; Function compile flags: /Ogsp
; File c:\program files (x86)\microsoft visual studio 10.0\vc\include\memory
;	COMDAT ??$_Uninitialized_move@PAVioHashString@@PAV1@V?$allocator@VioHashString@@@std@@@std@@YAPAVioHashString@@PAV1@00AAV?$allocator@VioHashString@@@0@@Z
_TEXT	SEGMENT
__Cat$513524 = -4					; size = 1
__First$ = 8						; size = 4
__Last$ = 12						; size = 4
__Dest$ = 16						; size = 4
__Al$ = 20						; size = 4
??$_Uninitialized_move@PAVioHashString@@PAV1@V?$allocator@VioHashString@@@std@@@std@@YAPAVioHashString@@PAV1@00AAV?$allocator@VioHashString@@@0@@Z PROC ; std::_Uninitialized_move<ioHashString *,ioHashString *,std::allocator<ioHashString> >, COMDAT

; 469  : 	{	// move [_First, _Last) to raw _Dest, using _Al

  00000	55		 push	 ebp
  00001	8b ec		 mov	 ebp, esp
  00003	51		 push	 ecx

; 470  : 	return (_Uninit_move(_First, _Last, _Dest, _Al,
; 471  : 		_Val_type(_First), _Ptr_cat(_First, _Dest)));

  00004	ff 75 fc	 push	 DWORD PTR __Cat$513524[ebp]
  00007	6a 00		 push	 0
  00009	ff 75 14	 push	 DWORD PTR __Al$[ebp]
  0000c	ff 75 10	 push	 DWORD PTR __Dest$[ebp]
  0000f	ff 75 0c	 push	 DWORD PTR __Last$[ebp]
  00012	ff 75 08	 push	 DWORD PTR __First$[ebp]
  00015	e8 00 00 00 00	 call	 ??$_Uninit_move@PAVioHashString@@PAV1@V?$allocator@VioHashString@@@std@@V1@@std@@YAPAVioHashString@@PAV1@00AAV?$allocator@VioHashString@@@0@0U_Nonscalar_ptr_iterator_tag@0@@Z ; std::_Uninit_move<ioHashString *,ioHashString *,std::allocator<ioHashString>,ioHashString>
  0001a	83 c4 18	 add	 esp, 24			; 00000018H

; 472  : 	}

  0001d	c9		 leave
  0001e	c3		 ret	 0
??$_Uninitialized_move@PAVioHashString@@PAV1@V?$allocator@VioHashString@@@std@@@std@@YAPAVioHashString@@PAV1@00AAV?$allocator@VioHashString@@@0@@Z ENDP ; std::_Uninitialized_move<ioHashString *,ioHashString *,std::allocator<ioHashString> >
_TEXT	ENDS
PUBLIC	??$_Destroy_range@V?$allocator@VioHashString@@@std@@@std@@YAXPAVioHashString@@0AAV?$allocator@VioHashString@@@0@@Z ; std::_Destroy_range<std::allocator<ioHashString> >
; Function compile flags: /Ogsp
; File c:\program files (x86)\microsoft visual studio 10.0\vc\include\xmemory
;	COMDAT ??$_Destroy_range@V?$allocator@VioHashString@@@std@@@std@@YAXPAVioHashString@@0AAV?$allocator@VioHashString@@@0@@Z
_TEXT	SEGMENT
__First$ = 8						; size = 4
__Last$ = 12						; size = 4
__Al$ = 16						; size = 4
??$_Destroy_range@V?$allocator@VioHashString@@@std@@@std@@YAXPAVioHashString@@0AAV?$allocator@VioHashString@@@0@@Z PROC ; std::_Destroy_range<std::allocator<ioHashString> >, COMDAT

; 87   : 	{	// destroy [_First, _Last)

  00000	55		 push	 ebp
  00001	8b ec		 mov	 ebp, esp
  00003	56		 push	 esi

; 88   : 	_Destroy_range(_First, _Last, _Al, _Ptr_cat(_First, _Last));

  00004	8b 75 08	 mov	 esi, DWORD PTR __First$[ebp]
  00007	eb 0b		 jmp	 SHORT $LN21@Destroy_ra@2
$LL7@Destroy_ra@2:
  00009	8b ce		 mov	 ecx, esi
  0000b	ff 15 00 00 00
	00		 call	 DWORD PTR __imp_??1ioHashString@@QAE@XZ
  00011	83 c6 10	 add	 esi, 16			; 00000010H
$LN21@Destroy_ra@2:
  00014	3b 75 0c	 cmp	 esi, DWORD PTR __Last$[ebp]
  00017	75 f0		 jne	 SHORT $LL7@Destroy_ra@2
  00019	5e		 pop	 esi

; 89   : 	}

  0001a	5d		 pop	 ebp
  0001b	c3		 ret	 0
??$_Destroy_range@V?$allocator@VioHashString@@@std@@@std@@YAXPAVioHashString@@0AAV?$allocator@VioHashString@@@0@@Z ENDP ; std::_Destroy_range<std::allocator<ioHashString> >
_TEXT	ENDS
PUBLIC	??$_Umove@PAVioHashString@@@?$vector@VioHashString@@V?$allocator@VioHashString@@@std@@@std@@IAEPAVioHashString@@PAV2@00@Z ; std::vector<ioHashString,std::allocator<ioHashString> >::_Umove<ioHashString *>
; Function compile flags: /Ogsp
; File c:\program files (x86)\microsoft visual studio 10.0\vc\include\vector
;	COMDAT ??$_Umove@PAVioHashString@@@?$vector@VioHashString@@V?$allocator@VioHashString@@@std@@@std@@IAEPAVioHashString@@PAV2@00@Z
_TEXT	SEGMENT
__First$ = 8						; size = 4
__Last$ = 12						; size = 4
__Ptr$ = 16						; size = 4
??$_Umove@PAVioHashString@@@?$vector@VioHashString@@V?$allocator@VioHashString@@@std@@@std@@IAEPAVioHashString@@PAV2@00@Z PROC ; std::vector<ioHashString,std::allocator<ioHashString> >::_Umove<ioHashString *>, COMDAT
; _this$ = ecx

; 1322 : 		pointer _Umove(_Iter _First, _Iter _Last, pointer _Ptr)

  00000	55		 push	 ebp
  00001	8b ec		 mov	 ebp, esp

; 1323 : 		{	// move initializing [_First, _Last), using allocator
; 1324 : 		return (_Uninitialized_move(_First, _Last,
; 1325 : 			_Ptr, this->_Alval));

  00003	83 c1 0c	 add	 ecx, 12			; 0000000cH
  00006	51		 push	 ecx
  00007	ff 75 10	 push	 DWORD PTR __Ptr$[ebp]
  0000a	ff 75 0c	 push	 DWORD PTR __Last$[ebp]
  0000d	ff 75 08	 push	 DWORD PTR __First$[ebp]
  00010	e8 00 00 00 00	 call	 ??$_Uninitialized_move@PAVioHashString@@PAV1@V?$allocator@VioHashString@@@std@@@std@@YAPAVioHashString@@PAV1@00AAV?$allocator@VioHashString@@@0@@Z ; std::_Uninitialized_move<ioHashString *,ioHashString *,std::allocator<ioHashString> >
  00015	83 c4 10	 add	 esp, 16			; 00000010H

; 1326 : 		}

  00018	5d		 pop	 ebp
  00019	c2 0c 00	 ret	 12			; 0000000cH
??$_Umove@PAVioHashString@@@?$vector@VioHashString@@V?$allocator@VioHashString@@@std@@@std@@IAEPAVioHashString@@PAV2@00@Z ENDP ; std::vector<ioHashString,std::allocator<ioHashString> >::_Umove<ioHashString *>
_TEXT	ENDS
PUBLIC	?_Destroy@?$vector@VioHashString@@V?$allocator@VioHashString@@@std@@@std@@IAEXPAVioHashString@@0@Z ; std::vector<ioHashString,std::allocator<ioHashString> >::_Destroy
; Function compile flags: /Ogsp
;	COMDAT ?_Destroy@?$vector@VioHashString@@V?$allocator@VioHashString@@@std@@@std@@IAEXPAVioHashString@@0@Z
_TEXT	SEGMENT
__First$ = 8						; size = 4
__Last$ = 12						; size = 4
?_Destroy@?$vector@VioHashString@@V?$allocator@VioHashString@@@std@@@std@@IAEXPAVioHashString@@0@Z PROC ; std::vector<ioHashString,std::allocator<ioHashString> >::_Destroy, COMDAT
; _this$ = ecx

; 1269 : 		{	// destroy [_First, _Last) using allocator

  00000	55		 push	 ebp
  00001	8b ec		 mov	 ebp, esp
  00003	56		 push	 esi

; 1270 : 		_Destroy_range(_First, _Last, this->_Alval);

  00004	8b 75 08	 mov	 esi, DWORD PTR __First$[ebp]
  00007	eb 0b		 jmp	 SHORT $LN23@Destroy
$LL9@Destroy:
  00009	8b ce		 mov	 ecx, esi
  0000b	ff 15 00 00 00
	00		 call	 DWORD PTR __imp_??1ioHashString@@QAE@XZ
  00011	83 c6 10	 add	 esi, 16			; 00000010H
$LN23@Destroy:
  00014	3b 75 0c	 cmp	 esi, DWORD PTR __Last$[ebp]
  00017	75 f0		 jne	 SHORT $LL9@Destroy
  00019	5e		 pop	 esi

; 1271 : 		}

  0001a	5d		 pop	 ebp
  0001b	c2 08 00	 ret	 8
?_Destroy@?$vector@VioHashString@@V?$allocator@VioHashString@@@std@@@std@@IAEXPAVioHashString@@0@Z ENDP ; std::vector<ioHashString,std::allocator<ioHashString> >::_Destroy
_TEXT	ENDS
PUBLIC	?reserve@?$vector@VioHashString@@V?$allocator@VioHashString@@@std@@@std@@QAEXI@Z ; std::vector<ioHashString,std::allocator<ioHashString> >::reserve
EXTRN	__imp_?_Orphan_all@_Container_base0@std@@QAEXXZ:PROC
;	COMDAT xdata$x
; File c:\program files (x86)\microsoft visual studio 10.0\vc\include\xmemory
xdata$x	SEGMENT
__catchsym$?reserve@?$vector@VioHashString@@V?$allocator@VioHashString@@@std@@@std@@QAEXI@Z$2 DD 040H
	DD	00H
	DD	00H
	DD	FLAT:__catch$?reserve@?$vector@VioHashString@@V?$allocator@VioHashString@@@std@@@std@@QAEXI@Z$0
__unwindtable$?reserve@?$vector@VioHashString@@V?$allocator@VioHashString@@@std@@@std@@QAEXI@Z DD 0ffffffffH
	DD	00H
	DD	0ffffffffH
	DD	00H
__tryblocktable$?reserve@?$vector@VioHashString@@V?$allocator@VioHashString@@@std@@@std@@QAEXI@Z DD 00H
	DD	00H
	DD	01H
	DD	01H
	DD	FLAT:__catchsym$?reserve@?$vector@VioHashString@@V?$allocator@VioHashString@@@std@@@std@@QAEXI@Z$2
__ehfuncinfo$?reserve@?$vector@VioHashString@@V?$allocator@VioHashString@@@std@@@std@@QAEXI@Z DD 019930522H
	DD	02H
	DD	FLAT:__unwindtable$?reserve@?$vector@VioHashString@@V?$allocator@VioHashString@@@std@@@std@@QAEXI@Z
	DD	01H
	DD	FLAT:__tryblocktable$?reserve@?$vector@VioHashString@@V?$allocator@VioHashString@@@std@@@std@@QAEXI@Z
	DD	2 DUP(00H)
	DD	00H
	DD	01H
; Function compile flags: /Ogsp
; File c:\program files (x86)\microsoft visual studio 10.0\vc\include\vector
xdata$x	ENDS
;	COMDAT ?reserve@?$vector@VioHashString@@V?$allocator@VioHashString@@@std@@@std@@QAEXI@Z
_TEXT	SEGMENT
tv300 = -24						; size = 4
__Ptr$510078 = -20					; size = 4
__$EHRec$ = -16						; size = 16
$T513753 = 8						; size = 4
__Count$ = 8						; size = 4
?reserve@?$vector@VioHashString@@V?$allocator@VioHashString@@@std@@@std@@QAEXI@Z PROC ; std::vector<ioHashString,std::allocator<ioHashString> >::reserve, COMDAT
; _this$ = ecx

; 746  : 		{	// determine new minimum length of allocated storage

  00000	6a 0c		 push	 12			; 0000000cH
  00002	b8 00 00 00 00	 mov	 eax, __ehhandler$?reserve@?$vector@VioHashString@@V?$allocator@VioHashString@@@std@@@std@@QAEXI@Z
  00007	e8 00 00 00 00	 call	 __EH_prolog3_catch
  0000c	8b f1		 mov	 esi, ecx

; 747  : 		if (max_size() < _Count)

  0000e	8b 5d 08	 mov	 ebx, DWORD PTR __Count$[ebp]
  00011	81 fb ff ff ff
	0f		 cmp	 ebx, 268435455		; 0fffffffH
  00017	76 0b		 jbe	 SHORT $LN5@reserve

; 748  : 			_Xlen();	// result too long

  00019	68 00 00 00 00	 push	 OFFSET ??_C@_0BD@OLBABOEK@vector?$DMT?$DO?5too?5long?$AA@
  0001e	ff 15 00 00 00
	00		 call	 DWORD PTR __imp_?_Xlength_error@std@@YAXPBD@Z
$LN59@reserve:
$LN5@reserve:

; 749  : 		else if (capacity() < _Count)

  00024	8b 46 08	 mov	 eax, DWORD PTR [esi+8]
  00027	2b 06		 sub	 eax, DWORD PTR [esi]
  00029	c1 f8 04	 sar	 eax, 4
  0002c	3b c3		 cmp	 eax, ebx
  0002e	73 7a		 jae	 SHORT $LN3@reserve

; 750  : 			{	// not enough room, reallocate
; 751  : 			pointer _Ptr = this->_Alval.allocate(_Count);

  00030	6a 00		 push	 0
  00032	53		 push	 ebx
  00033	e8 00 00 00 00	 call	 ??$_Allocate@VioHashString@@@std@@YAPAVioHashString@@IPAV1@@Z ; std::_Allocate<ioHashString>

; 752  : 
; 753  : 			_TRY_BEGIN
; 754  : 			_Umove(this->_Myfirst, this->_Mylast, _Ptr);

  00038	8b 0e		 mov	 ecx, DWORD PTR [esi]
  0003a	83 65 fc 00	 and	 DWORD PTR __$EHRec$[ebp+12], 0
  0003e	8d 56 0c	 lea	 edx, DWORD PTR [esi+12]
  00041	52		 push	 edx
  00042	89 45 ec	 mov	 DWORD PTR __Ptr$510078[ebp], eax
  00045	ff 75 ec	 push	 DWORD PTR __Ptr$510078[ebp]
  00048	8b 46 04	 mov	 eax, DWORD PTR [esi+4]
  0004b	50		 push	 eax
  0004c	51		 push	 ecx
  0004d	e8 00 00 00 00	 call	 ??$_Uninitialized_move@PAVioHashString@@PAV1@V?$allocator@VioHashString@@@std@@@std@@YAPAVioHashString@@PAV1@00AAV?$allocator@VioHashString@@@0@@Z ; std::_Uninitialized_move<ioHashString *,ioHashString *,std::allocator<ioHashString> >

; 758  : 			_CATCH_END
; 759  : 
; 760  : 			size_type _Size = size();

  00052	8b 4e 04	 mov	 ecx, DWORD PTR [esi+4]
  00055	8b 06		 mov	 eax, DWORD PTR [esi]
  00057	83 4d fc ff	 or	 DWORD PTR __$EHRec$[ebp+12], -1
  0005b	8b f9		 mov	 edi, ecx
  0005d	83 c4 18	 add	 esp, 24			; 00000018H
  00060	2b f8		 sub	 edi, eax
  00062	89 4d e8	 mov	 DWORD PTR tv300[ebp], ecx
  00065	85 c0		 test	 eax, eax
  00067	74 24		 je	 SHORT $LN51@reserve

; 761  : 			if (this->_Myfirst != 0)
; 762  : 				{	// destroy and deallocate old array
; 763  : 				_Destroy(this->_Myfirst, this->_Mylast);

  00069	89 45 08	 mov	 DWORD PTR $T513753[ebp], eax
  0006c	3b c1		 cmp	 eax, ecx
  0006e	74 15		 je	 SHORT $LN37@reserve
$LN39@reserve:
  00070	8b 4d 08	 mov	 ecx, DWORD PTR $T513753[ebp]
  00073	ff 15 00 00 00
	00		 call	 DWORD PTR __imp_??1ioHashString@@QAE@XZ
  00079	83 45 08 10	 add	 DWORD PTR $T513753[ebp], 16 ; 00000010H
  0007d	8b 45 08	 mov	 eax, DWORD PTR $T513753[ebp]
  00080	3b 45 e8	 cmp	 eax, DWORD PTR tv300[ebp]
  00083	75 eb		 jne	 SHORT $LN39@reserve
$LN37@reserve:

; 764  : 				this->_Alval.deallocate(this->_Myfirst,
; 765  : 					this->_Myend - this->_Myfirst);

  00085	ff 36		 push	 DWORD PTR [esi]
  00087	e8 00 00 00 00	 call	 ??3@YAXPAX@Z		; operator delete
  0008c	59		 pop	 ecx
$LN51@reserve:

; 766  : 				}
; 767  : 
; 768  : 			this->_Orphan_all();

  0008d	8b ce		 mov	 ecx, esi
  0008f	ff 15 00 00 00
	00		 call	 DWORD PTR __imp_?_Orphan_all@_Container_base0@std@@QAEXXZ

; 769  : 			this->_Myend = _Ptr + _Count;

  00095	8b 45 ec	 mov	 eax, DWORD PTR __Ptr$510078[ebp]
  00098	c1 e3 04	 shl	 ebx, 4
  0009b	03 d8		 add	 ebx, eax

; 770  : 			this->_Mylast = _Ptr + _Size;

  0009d	83 e7 f0	 and	 edi, -16		; fffffff0H
  000a0	03 f8		 add	 edi, eax
  000a2	89 5e 08	 mov	 DWORD PTR [esi+8], ebx
  000a5	89 7e 04	 mov	 DWORD PTR [esi+4], edi

; 771  : 			this->_Myfirst = _Ptr;

  000a8	89 06		 mov	 DWORD PTR [esi], eax
$LN3@reserve:

; 772  : 			}
; 773  : 		}

  000aa	e8 00 00 00 00	 call	 __EH_epilog3
  000af	c2 04 00	 ret	 4
__catch$?reserve@?$vector@VioHashString@@V?$allocator@VioHashString@@@std@@@std@@QAEXI@Z$0:

; 755  : 			_CATCH_ALL
; 756  : 			this->_Alval.deallocate(_Ptr, _Count);

  000b2	ff 75 ec	 push	 DWORD PTR __Ptr$510078[ebp]
  000b5	e8 00 00 00 00	 call	 ??3@YAXPAX@Z		; operator delete
  000ba	59		 pop	 ecx

; 757  : 			_RERAISE;

  000bb	6a 00		 push	 0
  000bd	6a 00		 push	 0
  000bf	e8 00 00 00 00	 call	 __CxxThrowException@8
$LN60@reserve:
$LN58@reserve:
  000c4	cc		 int	 3
_TEXT	ENDS
;	COMDAT text$x
text$x	SEGMENT
__ehhandler$?reserve@?$vector@VioHashString@@V?$allocator@VioHashString@@@std@@@std@@QAEXI@Z:
  00000	8b 54 24 08	 mov	 edx, DWORD PTR [esp+8]
  00004	8d 42 0c	 lea	 eax, DWORD PTR [edx+12]
  00007	8b 4a e4	 mov	 ecx, DWORD PTR [edx-28]
  0000a	33 c8		 xor	 ecx, eax
  0000c	e8 00 00 00 00	 call	 @__security_check_cookie@4
  00011	b8 00 00 00 00	 mov	 eax, OFFSET __ehfuncinfo$?reserve@?$vector@VioHashString@@V?$allocator@VioHashString@@@std@@@std@@QAEXI@Z
  00016	e9 00 00 00 00	 jmp	 ___CxxFrameHandler3
text$x	ENDS
?reserve@?$vector@VioHashString@@V?$allocator@VioHashString@@@std@@@std@@QAEXI@Z ENDP ; std::vector<ioHashString,std::allocator<ioHashString> >::reserve
PUBLIC	?_Reserve@?$vector@VioHashString@@V?$allocator@VioHashString@@@std@@@std@@IAEXI@Z ; std::vector<ioHashString,std::allocator<ioHashString> >::_Reserve
; Function compile flags: /Ogsp
;	COMDAT ?_Reserve@?$vector@VioHashString@@V?$allocator@VioHashString@@@std@@@std@@IAEXI@Z
_TEXT	SEGMENT
__Count$ = 8						; size = 4
?_Reserve@?$vector@VioHashString@@V?$allocator@VioHashString@@@std@@@std@@IAEXI@Z PROC ; std::vector<ioHashString,std::allocator<ioHashString> >::_Reserve, COMDAT
; _this$ = ecx

; 1290 : 		{	// ensure room for _Count new elements, grow exponentially

  00000	55		 push	 ebp
  00001	8b ec		 mov	 ebp, esp
  00003	56		 push	 esi
  00004	8b f1		 mov	 esi, ecx

; 1291 : 		size_type _Size = size();

  00006	8b 0e		 mov	 ecx, DWORD PTR [esi]
  00008	8b 46 04	 mov	 eax, DWORD PTR [esi+4]
  0000b	2b c1		 sub	 eax, ecx

; 1292 : 		if (max_size() - _Count < _Size)

  0000d	ba ff ff ff 0f	 mov	 edx, 268435455		; 0fffffffH
  00012	2b 55 08	 sub	 edx, DWORD PTR __Count$[ebp]
  00015	c1 f8 04	 sar	 eax, 4
  00018	3b d0		 cmp	 edx, eax
  0001a	73 0b		 jae	 SHORT $LN4@Reserve

; 1293 : 			_Xlen();

  0001c	68 00 00 00 00	 push	 OFFSET ??_C@_0BD@OLBABOEK@vector?$DMT?$DO?5too?5long?$AA@
  00021	ff 15 00 00 00
	00		 call	 DWORD PTR __imp_?_Xlength_error@std@@YAXPBD@Z
$LN21@Reserve:
$LN4@Reserve:

; 1294 : 		else if ((_Size += _Count) <= capacity())

  00027	8b 56 08	 mov	 edx, DWORD PTR [esi+8]
  0002a	03 45 08	 add	 eax, DWORD PTR __Count$[ebp]
  0002d	2b d1		 sub	 edx, ecx
  0002f	c1 fa 04	 sar	 edx, 4
  00032	3b c2		 cmp	 eax, edx
  00034	76 10		 jbe	 SHORT $LN1@Reserve

; 1295 : 			;
; 1296 : 		else
; 1297 : 			reserve(_Grow_to(_Size));

  00036	50		 push	 eax
  00037	8b ce		 mov	 ecx, esi
  00039	e8 00 00 00 00	 call	 ?_Grow_to@?$vector@VioHashString@@V?$allocator@VioHashString@@@std@@@std@@IBEII@Z ; std::vector<ioHashString,std::allocator<ioHashString> >::_Grow_to
  0003e	50		 push	 eax
  0003f	8b ce		 mov	 ecx, esi
  00041	e8 00 00 00 00	 call	 ?reserve@?$vector@VioHashString@@V?$allocator@VioHashString@@@std@@@std@@QAEXI@Z ; std::vector<ioHashString,std::allocator<ioHashString> >::reserve
$LN1@Reserve:
  00046	5e		 pop	 esi

; 1298 : 		}

  00047	5d		 pop	 ebp
  00048	c2 04 00	 ret	 4
$LN20@Reserve:
?_Reserve@?$vector@VioHashString@@V?$allocator@VioHashString@@@std@@@std@@IAEXI@Z ENDP ; std::vector<ioHashString,std::allocator<ioHashString> >::_Reserve
_TEXT	ENDS
PUBLIC	?erase@?$vector@VioHashString@@V?$allocator@VioHashString@@@std@@@std@@QAE?AV?$_Vector_iterator@V?$_Vector_val@VioHashString@@V?$allocator@VioHashString@@@std@@@std@@@2@V?$_Vector_const_iterator@V?$_Vector_val@VioHashString@@V?$allocator@VioHashString@@@std@@@std@@@2@0@Z ; std::vector<ioHashString,std::allocator<ioHashString> >::erase
; Function compile flags: /Ogsp
;	COMDAT ?erase@?$vector@VioHashString@@V?$allocator@VioHashString@@@std@@@std@@QAE?AV?$_Vector_iterator@V?$_Vector_val@VioHashString@@V?$allocator@VioHashString@@@std@@@std@@@2@V?$_Vector_const_iterator@V?$_Vector_val@VioHashString@@V?$allocator@VioHashString@@@std@@@std@@@2@0@Z
_TEXT	SEGMENT
$T513978 = -4						; size = 4
___$ReturnUdt$ = 8					; size = 4
__First_arg$ = 12					; size = 4
__Cat$513923 = 16					; size = 1
__Last_arg$ = 16					; size = 4
?erase@?$vector@VioHashString@@V?$allocator@VioHashString@@@std@@@std@@QAE?AV?$_Vector_iterator@V?$_Vector_val@VioHashString@@V?$allocator@VioHashString@@@std@@@std@@@2@V?$_Vector_const_iterator@V?$_Vector_val@VioHashString@@V?$allocator@VioHashString@@@std@@@std@@@2@0@Z PROC ; std::vector<ioHashString,std::allocator<ioHashString> >::erase, COMDAT
; _this$ = ecx

; 1190 : 		{	// erase [_First, _Last)

  00000	55		 push	 ebp
  00001	8b ec		 mov	 ebp, esp
  00003	51		 push	 ecx

; 1191 : 		iterator _First = _Make_iter(_First_arg);

  00004	8b 45 08	 mov	 eax, DWORD PTR ___$ReturnUdt$[ebp]
  00007	56		 push	 esi
  00008	8b f1		 mov	 esi, ecx
  0000a	8b 4d 0c	 mov	 ecx, DWORD PTR __First_arg$[ebp]
  0000d	89 08		 mov	 DWORD PTR [eax], ecx

; 1192 : 		iterator _Last = _Make_iter(_Last_arg);
; 1193 : 
; 1194 : 		if (_First != _Last)

  0000f	3b 4d 10	 cmp	 ecx, DWORD PTR __Last_arg$[ebp]
  00012	74 38		 je	 SHORT $LN1@erase

; 1195 : 			{	// worth doing, copy down over hole
; 1196 :  #if _ITERATOR_DEBUG_LEVEL == 2
; 1197 : 			if (_Last < _First || _VICONT(_First) != this
; 1198 : 				|| _VIPTR(_First) < this->_Myfirst
; 1199 : 				|| this->_Mylast < _VIPTR(_Last))
; 1200 : 				_DEBUG_ERROR("vector erase iterator outside range");
; 1201 : 			pointer _Ptr = _Move(_VIPTR(_Last), this->_Mylast,
; 1202 : 				_VIPTR(_First));
; 1203 : 			_Orphan_range(_VIPTR(_First), this->_Mylast);
; 1204 : 
; 1205 :  #else /* _ITERATOR_DEBUG_LEVEL == 2 */
; 1206 : 			pointer _Ptr = _Move(_VIPTR(_Last), this->_Mylast,
; 1207 : 				_VIPTR(_First));

  00014	8b 46 04	 mov	 eax, DWORD PTR [esi+4]
  00017	53		 push	 ebx
  00018	57		 push	 edi
  00019	ff 75 10	 push	 DWORD PTR __Cat$513923[ebp]
  0001c	51		 push	 ecx
  0001d	50		 push	 eax
  0001e	ff 75 10	 push	 DWORD PTR __Last_arg$[ebp]
  00021	e8 00 00 00 00	 call	 ??$_Move@PAVioHashString@@PAV1@@std@@YAPAVioHashString@@PAV1@00U_Nonscalar_ptr_iterator_tag@0@@Z ; std::_Move<ioHashString *,ioHashString *>

; 1208 :  #endif /* _ITERATOR_DEBUG_LEVEL == 2 */
; 1209 : 
; 1210 : 			_Destroy(_Ptr, this->_Mylast);

  00026	8b 7e 04	 mov	 edi, DWORD PTR [esi+4]
  00029	8b d8		 mov	 ebx, eax
  0002b	83 c4 10	 add	 esp, 16			; 00000010H
  0002e	89 5d fc	 mov	 DWORD PTR $T513978[ebp], ebx
  00031	3b df		 cmp	 ebx, edi
  00033	74 12		 je	 SHORT $LN36@erase
$LL52@erase:
  00035	8b 4d fc	 mov	 ecx, DWORD PTR $T513978[ebp]
  00038	ff 15 00 00 00
	00		 call	 DWORD PTR __imp_??1ioHashString@@QAE@XZ
  0003e	83 45 fc 10	 add	 DWORD PTR $T513978[ebp], 16 ; 00000010H
  00042	39 7d fc	 cmp	 DWORD PTR $T513978[ebp], edi
  00045	75 ee		 jne	 SHORT $LL52@erase
$LN36@erase:

; 1211 : 			this->_Mylast = _Ptr;

  00047	5f		 pop	 edi
  00048	89 5e 04	 mov	 DWORD PTR [esi+4], ebx
  0004b	5b		 pop	 ebx
$LN1@erase:

; 1212 : 			}
; 1213 : 		return (_First);

  0004c	8b 45 08	 mov	 eax, DWORD PTR ___$ReturnUdt$[ebp]
  0004f	5e		 pop	 esi

; 1214 : 		}

  00050	c9		 leave
  00051	c2 0c 00	 ret	 12			; 0000000cH
?erase@?$vector@VioHashString@@V?$allocator@VioHashString@@@std@@@std@@QAE?AV?$_Vector_iterator@V?$_Vector_val@VioHashString@@V?$allocator@VioHashString@@@std@@@std@@@2@V?$_Vector_const_iterator@V?$_Vector_val@VioHashString@@V?$allocator@VioHashString@@@std@@@std@@@2@0@Z ENDP ; std::vector<ioHashString,std::allocator<ioHashString> >::erase
_TEXT	ENDS
PUBLIC	?_Tidy@?$vector@VioHashString@@V?$allocator@VioHashString@@@std@@@std@@IAEXXZ ; std::vector<ioHashString,std::allocator<ioHashString> >::_Tidy
; Function compile flags: /Ogsp
;	COMDAT ?_Tidy@?$vector@VioHashString@@V?$allocator@VioHashString@@@std@@@std@@IAEXXZ
_TEXT	SEGMENT
?_Tidy@?$vector@VioHashString@@V?$allocator@VioHashString@@@std@@@std@@IAEXXZ PROC ; std::vector<ioHashString,std::allocator<ioHashString> >::_Tidy, COMDAT
; _this$ = ecx

; 1301 : 		{	// free all storage

  00000	56		 push	 esi
  00001	8b f1		 mov	 esi, ecx

; 1302 : 		if (this->_Myfirst != 0)

  00003	83 3e 00	 cmp	 DWORD PTR [esi], 0
  00006	74 28		 je	 SHORT $LN24@Tidy

; 1303 : 			{	// something to free, destroy and deallocate it
; 1304 : 			this->_Orphan_all();

  00008	53		 push	 ebx
  00009	57		 push	 edi
  0000a	ff 15 00 00 00
	00		 call	 DWORD PTR __imp_?_Orphan_all@_Container_base0@std@@QAEXXZ

; 1305 : 			_Destroy(this->_Myfirst, this->_Mylast);

  00010	8b 5e 04	 mov	 ebx, DWORD PTR [esi+4]
  00013	8b 3e		 mov	 edi, DWORD PTR [esi]
  00015	eb 0b		 jmp	 SHORT $LN28@Tidy
$LL12@Tidy:
  00017	8b cf		 mov	 ecx, edi
  00019	ff 15 00 00 00
	00		 call	 DWORD PTR __imp_??1ioHashString@@QAE@XZ
  0001f	83 c7 10	 add	 edi, 16			; 00000010H
$LN28@Tidy:
  00022	3b fb		 cmp	 edi, ebx
  00024	75 f1		 jne	 SHORT $LL12@Tidy

; 1306 : 			this->_Alval.deallocate(this->_Myfirst,
; 1307 : 				this->_Myend - this->_Myfirst);

  00026	ff 36		 push	 DWORD PTR [esi]
  00028	e8 00 00 00 00	 call	 ??3@YAXPAX@Z		; operator delete
  0002d	59		 pop	 ecx
  0002e	5f		 pop	 edi
  0002f	5b		 pop	 ebx
$LN24@Tidy:

; 1308 : 			}
; 1309 : 		this->_Myfirst = 0;

  00030	33 c0		 xor	 eax, eax
  00032	89 06		 mov	 DWORD PTR [esi], eax

; 1310 : 		this->_Mylast = 0;

  00034	89 46 04	 mov	 DWORD PTR [esi+4], eax

; 1311 : 		this->_Myend = 0;

  00037	89 46 08	 mov	 DWORD PTR [esi+8], eax
  0003a	5e		 pop	 esi

; 1312 : 		}

  0003b	c3		 ret	 0
?_Tidy@?$vector@VioHashString@@V?$allocator@VioHashString@@@std@@@std@@IAEXXZ ENDP ; std::vector<ioHashString,std::allocator<ioHashString> >::_Tidy
_TEXT	ENDS
PUBLIC	?push_back@?$vector@VioHashString@@V?$allocator@VioHashString@@@std@@@std@@QAEXABVioHashString@@@Z ; std::vector<ioHashString,std::allocator<ioHashString> >::push_back
; Function compile flags: /Ogsp
;	COMDAT ?push_back@?$vector@VioHashString@@V?$allocator@VioHashString@@@std@@@std@@QAEXABVioHashString@@@Z
_TEXT	SEGMENT
__Val$ = 8						; size = 4
?push_back@?$vector@VioHashString@@V?$allocator@VioHashString@@@std@@@std@@QAEXABVioHashString@@@Z PROC ; std::vector<ioHashString,std::allocator<ioHashString> >::push_back, COMDAT
; _this$ = ecx

; 976  : 		{	// insert element at end

  00000	55		 push	 ebp
  00001	8b ec		 mov	 ebp, esp
  00003	56		 push	 esi
  00004	8b f1		 mov	 esi, ecx

; 977  : 		if (_Inside(_STD addressof(_Val)))

  00006	8b 46 04	 mov	 eax, DWORD PTR [esi+4]
  00009	57		 push	 edi
  0000a	8b 7d 08	 mov	 edi, DWORD PTR __Val$[ebp]
  0000d	3b f8		 cmp	 edi, eax
  0000f	73 29		 jae	 SHORT $LN4@push_back
  00011	8b 0e		 mov	 ecx, DWORD PTR [esi]
  00013	3b cf		 cmp	 ecx, edi
  00015	77 23		 ja	 SHORT $LN4@push_back

; 978  : 			{	// push back an element
; 979  : 			size_type _Idx = _STD addressof(_Val) - this->_Myfirst;

  00017	2b f9		 sub	 edi, ecx

; 980  : 			if (this->_Mylast == this->_Myend)

  00019	3b 46 08	 cmp	 eax, DWORD PTR [esi+8]
  0001c	75 09		 jne	 SHORT $LN3@push_back

; 981  : 				_Reserve(1);

  0001e	6a 01		 push	 1
  00020	8b ce		 mov	 ecx, esi
  00022	e8 00 00 00 00	 call	 ?_Reserve@?$vector@VioHashString@@V?$allocator@VioHashString@@@std@@@std@@IAEXI@Z ; std::vector<ioHashString,std::allocator<ioHashString> >::_Reserve
$LN3@push_back:

; 982  : 			_Orphan_range(this->_Mylast, this->_Mylast);
; 983  : 			_Cons_val(this->_Alval,
; 984  : 				this->_Mylast,
; 985  : 				this->_Myfirst[_Idx]);

  00027	83 e7 f0	 and	 edi, -16		; fffffff0H
  0002a	03 3e		 add	 edi, DWORD PTR [esi]
  0002c	8d 4e 0c	 lea	 ecx, DWORD PTR [esi+12]
  0002f	57		 push	 edi
  00030	ff 76 04	 push	 DWORD PTR [esi+4]
  00033	e8 00 00 00 00	 call	 ??$construct@AAVioHashString@@@?$allocator@VioHashString@@@std@@QAEXPAVioHashString@@AAV2@@Z ; std::allocator<ioHashString>::construct<ioHashString &>

; 986  : 			++this->_Mylast;
; 987  : 			}
; 988  : 		else

  00038	eb 19		 jmp	 SHORT $LN30@push_back
$LN4@push_back:

; 989  : 			{	// push back a non-element
; 990  : 			if (this->_Mylast == this->_Myend)

  0003a	3b 46 08	 cmp	 eax, DWORD PTR [esi+8]
  0003d	75 09		 jne	 SHORT $LN1@push_back

; 991  : 				_Reserve(1);

  0003f	6a 01		 push	 1
  00041	8b ce		 mov	 ecx, esi
  00043	e8 00 00 00 00	 call	 ?_Reserve@?$vector@VioHashString@@V?$allocator@VioHashString@@@std@@@std@@IAEXI@Z ; std::vector<ioHashString,std::allocator<ioHashString> >::_Reserve
$LN1@push_back:

; 992  : 			_Orphan_range(this->_Mylast, this->_Mylast);
; 993  : 			_Cons_val(this->_Alval,
; 994  : 				this->_Mylast,
; 995  : 				_Val);

  00048	57		 push	 edi
  00049	ff 76 04	 push	 DWORD PTR [esi+4]
  0004c	e8 00 00 00 00	 call	 ??$_Construct@VioHashString@@ABV1@@std@@YAXPAVioHashString@@ABV1@@Z ; std::_Construct<ioHashString,ioHashString const &>
  00051	59		 pop	 ecx
  00052	59		 pop	 ecx
$LN30@push_back:

; 996  : 			++this->_Mylast;

  00053	83 46 04 10	 add	 DWORD PTR [esi+4], 16	; 00000010H
  00057	5f		 pop	 edi
  00058	5e		 pop	 esi

; 997  : 			}
; 998  : 		}

  00059	5d		 pop	 ebp
  0005a	c2 04 00	 ret	 4
?push_back@?$vector@VioHashString@@V?$allocator@VioHashString@@@std@@@std@@QAEXABVioHashString@@@Z ENDP ; std::vector<ioHashString,std::allocator<ioHashString> >::push_back
_TEXT	ENDS
PUBLIC	??1?$vector@VioHashString@@V?$allocator@VioHashString@@@std@@@std@@QAE@XZ ; std::vector<ioHashString,std::allocator<ioHashString> >::~vector<ioHashString,std::allocator<ioHashString> >
; Function compile flags: /Ogsp
;	COMDAT ??1?$vector@VioHashString@@V?$allocator@VioHashString@@@std@@@std@@QAE@XZ
_TEXT	SEGMENT
??1?$vector@VioHashString@@V?$allocator@VioHashString@@@std@@@std@@QAE@XZ PROC ; std::vector<ioHashString,std::allocator<ioHashString> >::~vector<ioHashString,std::allocator<ioHashString> >, COMDAT
; _this$ = ecx

; 705  : 		_Tidy();

  00000	e9 00 00 00 00	 jmp	 ?_Tidy@?$vector@VioHashString@@V?$allocator@VioHashString@@@std@@@std@@IAEXXZ ; std::vector<ioHashString,std::allocator<ioHashString> >::_Tidy
??1?$vector@VioHashString@@V?$allocator@VioHashString@@@std@@@std@@QAE@XZ ENDP ; std::vector<ioHashString,std::allocator<ioHashString> >::~vector<ioHashString,std::allocator<ioHashString> >
_TEXT	ENDS
PUBLIC	?clear@?$vector@VioHashString@@V?$allocator@VioHashString@@@std@@@std@@QAEXXZ ; std::vector<ioHashString,std::allocator<ioHashString> >::clear
; Function compile flags: /Ogsp
;	COMDAT ?clear@?$vector@VioHashString@@V?$allocator@VioHashString@@@std@@@std@@QAEXXZ
_TEXT	SEGMENT
$T514191 = -4						; size = 4
?clear@?$vector@VioHashString@@V?$allocator@VioHashString@@@std@@@std@@QAEXXZ PROC ; std::vector<ioHashString,std::allocator<ioHashString> >::clear, COMDAT
; _this$ = ecx

; 1217 : 		{	// erase all

  00000	55		 push	 ebp
  00001	8b ec		 mov	 ebp, esp
  00003	51		 push	 ecx

; 1218 : 		erase(begin(), end());

  00004	8b 41 04	 mov	 eax, DWORD PTR [ecx+4]
  00007	8b 11		 mov	 edx, DWORD PTR [ecx]
  00009	50		 push	 eax
  0000a	52		 push	 edx
  0000b	8d 45 fc	 lea	 eax, DWORD PTR $T514191[ebp]
  0000e	50		 push	 eax
  0000f	e8 00 00 00 00	 call	 ?erase@?$vector@VioHashString@@V?$allocator@VioHashString@@@std@@@std@@QAE?AV?$_Vector_iterator@V?$_Vector_val@VioHashString@@V?$allocator@VioHashString@@@std@@@std@@@2@V?$_Vector_const_iterator@V?$_Vector_val@VioHashString@@V?$allocator@VioHashString@@@std@@@std@@@2@0@Z ; std::vector<ioHashString,std::allocator<ioHashString> >::erase

; 1219 : 		}

  00014	c9		 leave
  00015	c3		 ret	 0
?clear@?$vector@VioHashString@@V?$allocator@VioHashString@@@std@@@std@@QAEXXZ ENDP ; std::vector<ioHashString,std::allocator<ioHashString> >::clear
_TEXT	ENDS
PUBLIC	??_7RandomDecoWnd@@6B@				; RandomDecoWnd::`vftable'
PUBLIC	??0RandomDecoWnd@@QAE@XZ			; RandomDecoWnd::RandomDecoWnd
PUBLIC	??_R4RandomDecoWnd@@6B@				; RandomDecoWnd::`RTTI Complete Object Locator'
PUBLIC	??_R0?AVRandomDecoWnd@@@8			; RandomDecoWnd `RTTI Type Descriptor'
PUBLIC	??_R3RandomDecoWnd@@8				; RandomDecoWnd::`RTTI Class Hierarchy Descriptor'
PUBLIC	??_R2RandomDecoWnd@@8				; RandomDecoWnd::`RTTI Base Class Array'
PUBLIC	??_R1A@?0A@EA@RandomDecoWnd@@8			; RandomDecoWnd::`RTTI Base Class Descriptor at (0,-1,0,64)'
PUBLIC	??_R1A@?0A@EA@ioWnd@@8				; ioWnd::`RTTI Base Class Descriptor at (0,-1,0,64)'
PUBLIC	??_R3ioWnd@@8					; ioWnd::`RTTI Class Hierarchy Descriptor'
PUBLIC	??_R2ioWnd@@8					; ioWnd::`RTTI Base Class Array'
PUBLIC	?ParseExtraInfo@RandomDecoWnd@@UAEXAAVioXMLElement@@@Z ; RandomDecoWnd::ParseExtraInfo
EXTRN	__imp_??1ioWnd@@UAE@XZ:PROC
EXTRN	__imp_??0ioHashString@@QAE@XZ:PROC
EXTRN	__imp_??0ioWnd@@QAE@XZ:PROC
EXTRN	?AddRenderFrame@ioWnd@@UAEXABVioHashString@@PAVioUIRenderFrame@@@Z:PROC ; ioWnd::AddRenderFrame
EXTRN	?AddTooltipHelp@ioWnd@@UAEXABVioHashString@@00@Z:PROC ; ioWnd::AddTooltipHelp
EXTRN	?AddNamedRenderImage@ioWnd@@UAEXABVioHashString@@PAVioUIRenderImage@@@Z:PROC ; ioWnd::AddNamedRenderImage
EXTRN	?RemoveNamedRenderImage@ioWnd@@UAEXABVioHashString@@@Z:PROC ; ioWnd::RemoveNamedRenderImage
EXTRN	?GetNamedRenderImage@ioWnd@@UBEPAVioUIRenderImage@@ABVioHashString@@@Z:PROC ; ioWnd::GetNamedRenderImage
EXTRN	?SetWindowAlpha@ioWnd@@UAEXH@Z:PROC		; ioWnd::SetWindowAlpha
EXTRN	?SetActive@ioWnd@@UAEXXZ:PROC			; ioWnd::SetActive
EXTRN	?SetInActive@ioWnd@@UAEXXZ:PROC			; ioWnd::SetInActive
EXTRN	?ClearElementImageList@ioWnd@@UAEXXZ:PROC	; ioWnd::ClearElementImageList
EXTRN	?SetSize@ioWnd@@UAEXHH@Z:PROC			; ioWnd::SetSize
EXTRN	?SetPositionToDefault@ioWnd@@UAEXHH_N0@Z:PROC	; ioWnd::SetPositionToDefault
EXTRN	?IsNeedProcess@ioWnd@@UBE_NXZ:PROC		; ioWnd::IsNeedProcess
EXTRN	?IsCanMouseReaction@ioWnd@@UBE_NXZ:PROC		; ioWnd::IsCanMouseReaction
EXTRN	?AddChild@ioWnd@@UAEXPAV1@@Z:PROC		; ioWnd::AddChild
EXTRN	?DeleteChild@ioWnd@@UAEXK@Z:PROC		; ioWnd::DeleteChild
EXTRN	?DeleteAllChild@ioWnd@@UAEXXZ:PROC		; ioWnd::DeleteAllChild
EXTRN	?OnRenderShowAndHide@ioWnd@@MAE_NXZ:PROC	; ioWnd::OnRenderShowAndHide
EXTRN	?OnRenderShowAndHideByDefault@ioWnd@@MAE_NK@Z:PROC ; ioWnd::OnRenderShowAndHideByDefault
EXTRN	?OnRenderShowAndHideByTop@ioWnd@@MAE_NK@Z:PROC	; ioWnd::OnRenderShowAndHideByTop
EXTRN	?OnRenderShowAndHideByDown@ioWnd@@MAE_NK@Z:PROC	; ioWnd::OnRenderShowAndHideByDown
EXTRN	?OnRenderAfterChild@ioWnd@@MAEXXZ:PROC		; ioWnd::OnRenderAfterChild
EXTRN	?OnMouseProcess@ioWnd@@MAEXABVioMouse@@@Z:PROC	; ioWnd::OnMouseProcess
EXTRN	?CheckFrameReSize@ioWnd@@MAEXHHHH@Z:PROC	; ioWnd::CheckFrameReSize
EXTRN	?RenderImageList@ioWnd@@MAEXHHW4UIRenderType@@@Z:PROC ; ioWnd::RenderImageList
EXTRN	?iwm_create@ioWnd@@UAEXXZ:PROC			; ioWnd::iwm_create
EXTRN	?iwm_destroy@ioWnd@@UAEXXZ:PROC			; ioWnd::iwm_destroy
EXTRN	?iwm_lbuttondown@ioWnd@@UAEXABVioMouse@@@Z:PROC	; ioWnd::iwm_lbuttondown
EXTRN	?iwm_lbuttonup@ioWnd@@UAEXABVioMouse@@@Z:PROC	; ioWnd::iwm_lbuttonup
EXTRN	?iwm_lbuttonDBLCLK@ioWnd@@UAEXABVioMouse@@@Z:PROC ; ioWnd::iwm_lbuttonDBLCLK
EXTRN	?iwm_rbuttondown@ioWnd@@UAEXABVioMouse@@@Z:PROC	; ioWnd::iwm_rbuttondown
EXTRN	?iwm_rbuttonup@ioWnd@@UAEXABVioMouse@@@Z:PROC	; ioWnd::iwm_rbuttonup
EXTRN	?iwm_mouseover@ioWnd@@UAEXABVioMouse@@@Z:PROC	; ioWnd::iwm_mouseover
EXTRN	?iwm_mousemove@ioWnd@@UAEXABVioMouse@@@Z:PROC	; ioWnd::iwm_mousemove
EXTRN	?iwm_mouseleave@ioWnd@@UAEXABVioMouse@@@Z:PROC	; ioWnd::iwm_mouseleave
EXTRN	?iwm_vscroll@ioWnd@@UAEXKH@Z:PROC		; ioWnd::iwm_vscroll
EXTRN	?iwm_wheel@ioWnd@@UAEXH@Z:PROC			; ioWnd::iwm_wheel
EXTRN	?iwm_show@ioWnd@@UAEXXZ:PROC			; ioWnd::iwm_show
EXTRN	?iwm_esc@ioWnd@@UAE_NXZ:PROC			; ioWnd::iwm_esc
EXTRN	?iwm_spacebar@ioWnd@@UAE_NXZ:PROC		; ioWnd::iwm_spacebar
EXTRN	?iwm_gototop@ioWnd@@UAEXXZ:PROC			; ioWnd::iwm_gototop
EXTRN	?iwm_dragenter@ioWnd@@UAE?AW4IWDropEffect@@PAVioDragItem@@ABVioMouse@@@Z:PROC ; ioWnd::iwm_dragenter
EXTRN	?iwm_dragover@ioWnd@@UAE?AW4IWDropEffect@@PAVioDragItem@@ABVioMouse@@@Z:PROC ; ioWnd::iwm_dragover
EXTRN	?iwm_dragleave@ioWnd@@UAEXXZ:PROC		; ioWnd::iwm_dragleave
EXTRN	?iwm_dropitem@ioWnd@@UAE_NPAVioDragItem@@ABVioMouse@@PAV1@@Z:PROC ; ioWnd::iwm_dropitem
EXTRN	?iwm_dropdone@ioWnd@@UAEXPAVioDragItem@@PAV1@_N@Z:PROC ; ioWnd::iwm_dropdone
EXTRN	?IsEXType@ioWnd@@UBE_NXZ:PROC			; ioWnd::IsEXType
EXTRN	?GetWndType@ioWnd@@UBEKXZ:PROC			; ioWnd::GetWndType
EXTRN	?RenderWnd@ioWnd@@UAEXXZ:PROC			; ioWnd::RenderWnd
EXTRN	?SetIDEX@ioWnd@@UAEXAAK_N@Z:PROC		; ioWnd::SetIDEX
EXTRN	?ParseXML@ioWnd@@UAEXAAVioXMLElement@@@Z:PROC	; ioWnd::ParseXML
EXTRN	?GetHeaderFileName@ioWnd@@UAEPBDXZ:PROC		; ioWnd::GetHeaderFileName
EXTRN	?GetTemplateName@ioWnd@@UAEPBDXZ:PROC		; ioWnd::GetTemplateName
EXTRN	?GetDefClassName@ioWnd@@UBEPBDXZ:PROC		; ioWnd::GetDefClassName
EXTRN	?_Clone@ioWnd@@UAEPAV1@XZ:PROC			; ioWnd::_Clone
EXTRN	?Copy@ioWnd@@UAEXPAV1@@Z:PROC			; ioWnd::Copy
EXTRN	?Save@ioWnd@@UAE_NAAVioXMLElement@@@Z:PROC	; ioWnd::Save
EXTRN	?SetSaveData@ioWnd@@UAEXAAVioXMLElement@@@Z:PROC ; ioWnd::SetSaveData
EXTRN	?SetPosX@ioWnd@@UAEXH@Z:PROC			; ioWnd::SetPosX
EXTRN	?SetPosY@ioWnd@@UAEXH@Z:PROC			; ioWnd::SetPosY
EXTRN	?SetWidth@ioWnd@@UAEXH@Z:PROC			; ioWnd::SetWidth
EXTRN	?SetHeight@ioWnd@@UAEXH@Z:PROC			; ioWnd::SetHeight
EXTRN	?GetNumFixedRenderFrame@ioWnd@@UBEHXZ:PROC	; ioWnd::GetNumFixedRenderFrame
EXTRN	?GetFixedRenderFrameType@ioWnd@@UAEPBDH@Z:PROC	; ioWnd::GetFixedRenderFrameType
EXTRN	?GetRenderFrame@ioWnd@@UAEPAPAVioUIRenderElement@@PBD@Z:PROC ; ioWnd::GetRenderFrame
EXTRN	?GetNumFixedRenderImage@ioWnd@@UBEHXZ:PROC	; ioWnd::GetNumFixedRenderImage
EXTRN	?GetFixedRenderImageType@ioWnd@@UAEPBDH@Z:PROC	; ioWnd::GetFixedRenderImageType
EXTRN	?GetRenderImage@ioWnd@@UAEPAPAVioUIRenderElement@@PBD@Z:PROC ; ioWnd::GetRenderImage
EXTRN	?AddEffect@ioWnd@@UAEXABVioHashString@@PAVioUI3DEffectRender@@@Z:PROC ; ioWnd::AddEffect
EXTRN	?GetEffect@ioWnd@@UAEPAVioUI3DEffectRender@@VioHashString@@@Z:PROC ; ioWnd::GetEffect
EXTRN	??_ERandomDecoWnd@@UAEPAXI@Z:PROC		; RandomDecoWnd::`vector deleting destructor'
;	COMDAT ??_R2ioWnd@@8
; File c:\program files (x86)\microsoft visual studio 10.0\vc\include\xmemory
rdata$r	SEGMENT
??_R2ioWnd@@8 DD FLAT:??_R1A@?0A@EA@ioWnd@@8		; ioWnd::`RTTI Base Class Array'
rdata$r	ENDS
;	COMDAT ??_R3ioWnd@@8
rdata$r	SEGMENT
??_R3ioWnd@@8 DD 00H					; ioWnd::`RTTI Class Hierarchy Descriptor'
	DD	00H
	DD	01H
	DD	FLAT:??_R2ioWnd@@8
rdata$r	ENDS
;	COMDAT ??_R1A@?0A@EA@ioWnd@@8
rdata$r	SEGMENT
??_R1A@?0A@EA@ioWnd@@8 DD FLAT:??_R0?AVioWnd@@@8	; ioWnd::`RTTI Base Class Descriptor at (0,-1,0,64)'
	DD	00H
	DD	00H
	DD	0ffffffffH
	DD	00H
	DD	040H
	DD	FLAT:??_R3ioWnd@@8
rdata$r	ENDS
;	COMDAT ??_R1A@?0A@EA@RandomDecoWnd@@8
rdata$r	SEGMENT
??_R1A@?0A@EA@RandomDecoWnd@@8 DD FLAT:??_R0?AVRandomDecoWnd@@@8 ; RandomDecoWnd::`RTTI Base Class Descriptor at (0,-1,0,64)'
	DD	01H
	DD	00H
	DD	0ffffffffH
	DD	00H
	DD	040H
	DD	FLAT:??_R3RandomDecoWnd@@8
rdata$r	ENDS
;	COMDAT ??_R2RandomDecoWnd@@8
rdata$r	SEGMENT
??_R2RandomDecoWnd@@8 DD FLAT:??_R1A@?0A@EA@RandomDecoWnd@@8 ; RandomDecoWnd::`RTTI Base Class Array'
	DD	FLAT:??_R1A@?0A@EA@ioWnd@@8
rdata$r	ENDS
;	COMDAT ??_R3RandomDecoWnd@@8
rdata$r	SEGMENT
??_R3RandomDecoWnd@@8 DD 00H				; RandomDecoWnd::`RTTI Class Hierarchy Descriptor'
	DD	00H
	DD	02H
	DD	FLAT:??_R2RandomDecoWnd@@8
rdata$r	ENDS
;	COMDAT ??_R0?AVRandomDecoWnd@@@8
_DATA	SEGMENT
??_R0?AVRandomDecoWnd@@@8 DD FLAT:??_7type_info@@6B@	; RandomDecoWnd `RTTI Type Descriptor'
	DD	00H
	DB	'.?AVRandomDecoWnd@@', 00H
_DATA	ENDS
;	COMDAT ??_R4RandomDecoWnd@@6B@
rdata$r	SEGMENT
??_R4RandomDecoWnd@@6B@ DD 00H				; RandomDecoWnd::`RTTI Complete Object Locator'
	DD	00H
	DD	00H
	DD	FLAT:??_R0?AVRandomDecoWnd@@@8
	DD	FLAT:??_R3RandomDecoWnd@@8
rdata$r	ENDS
;	COMDAT ??_7RandomDecoWnd@@6B@
CONST	SEGMENT
??_7RandomDecoWnd@@6B@ DD FLAT:??_R4RandomDecoWnd@@6B@	; RandomDecoWnd::`vftable'
	DD	FLAT:?AddRenderFrame@ioWnd@@UAEXABVioHashString@@PAVioUIRenderFrame@@@Z
	DD	FLAT:?AddRenderImage@RandomDecoWnd@@UAEXABVioHashString@@PAVioUIRenderImage@@@Z
	DD	FLAT:?AddTooltipHelp@ioWnd@@UAEXABVioHashString@@00@Z
	DD	FLAT:?ParseExtraInfo@RandomDecoWnd@@UAEXAAVioXMLElement@@@Z
	DD	FLAT:?AddNamedRenderImage@ioWnd@@UAEXABVioHashString@@PAVioUIRenderImage@@@Z
	DD	FLAT:?RemoveNamedRenderImage@ioWnd@@UAEXABVioHashString@@@Z
	DD	FLAT:?GetNamedRenderImage@ioWnd@@UBEPAVioUIRenderImage@@ABVioHashString@@@Z
	DD	FLAT:?SetWindowAlpha@ioWnd@@UAEXH@Z
	DD	FLAT:?SetActive@ioWnd@@UAEXXZ
	DD	FLAT:?SetInActive@ioWnd@@UAEXXZ
	DD	FLAT:?ClearElementImageList@ioWnd@@UAEXXZ
	DD	FLAT:?SetSize@ioWnd@@UAEXHH@Z
	DD	FLAT:?SetPositionToDefault@ioWnd@@UAEXHH_N0@Z
	DD	FLAT:?IsNeedProcess@ioWnd@@UBE_NXZ
	DD	FLAT:?IsCanMouseReaction@ioWnd@@UBE_NXZ
	DD	FLAT:?AddChild@ioWnd@@UAEXPAV1@@Z
	DD	FLAT:?DeleteChild@ioWnd@@UAEXK@Z
	DD	FLAT:?DeleteAllChild@ioWnd@@UAEXXZ
	DD	FLAT:?OnRenderShowAndHide@ioWnd@@MAE_NXZ
	DD	FLAT:?OnRenderShowAndHideByDefault@ioWnd@@MAE_NK@Z
	DD	FLAT:?OnRenderShowAndHideByTop@ioWnd@@MAE_NK@Z
	DD	FLAT:?OnRenderShowAndHideByDown@ioWnd@@MAE_NK@Z
	DD	FLAT:?OnRender@RandomDecoWnd@@MAEXXZ
	DD	FLAT:?OnRenderAfterChild@ioWnd@@MAEXXZ
	DD	FLAT:?OnProcess@RandomDecoWnd@@MAEXM@Z
	DD	FLAT:?OnMouseProcess@ioWnd@@MAEXABVioMouse@@@Z
	DD	FLAT:?CheckFrameReSize@ioWnd@@MAEXHHHH@Z
	DD	FLAT:?RenderImageList@ioWnd@@MAEXHHW4UIRenderType@@@Z
	DD	FLAT:?iwm_create@ioWnd@@UAEXXZ
	DD	FLAT:?iwm_destroy@ioWnd@@UAEXXZ
	DD	FLAT:?iwm_lbuttondown@ioWnd@@UAEXABVioMouse@@@Z
	DD	FLAT:?iwm_lbuttonup@ioWnd@@UAEXABVioMouse@@@Z
	DD	FLAT:?iwm_lbuttonDBLCLK@ioWnd@@UAEXABVioMouse@@@Z
	DD	FLAT:?iwm_rbuttondown@ioWnd@@UAEXABVioMouse@@@Z
	DD	FLAT:?iwm_rbuttonup@ioWnd@@UAEXABVioMouse@@@Z
	DD	FLAT:?iwm_command@RandomDecoWnd@@UAEXPAVioWnd@@HK@Z
	DD	FLAT:?iwm_mouseover@ioWnd@@UAEXABVioMouse@@@Z
	DD	FLAT:?iwm_mousemove@ioWnd@@UAEXABVioMouse@@@Z
	DD	FLAT:?iwm_mouseleave@ioWnd@@UAEXABVioMouse@@@Z
	DD	FLAT:?iwm_vscroll@ioWnd@@UAEXKH@Z
	DD	FLAT:?iwm_wheel@ioWnd@@UAEXH@Z
	DD	FLAT:?iwm_show@ioWnd@@UAEXXZ
	DD	FLAT:?iwm_hide@RandomDecoWnd@@UAEXXZ
	DD	FLAT:?iwm_esc@ioWnd@@UAE_NXZ
	DD	FLAT:?iwm_spacebar@ioWnd@@UAE_NXZ
	DD	FLAT:?iwm_gototop@ioWnd@@UAEXXZ
	DD	FLAT:?iwm_dragenter@ioWnd@@UAE?AW4IWDropEffect@@PAVioDragItem@@ABVioMouse@@@Z
	DD	FLAT:?iwm_dragover@ioWnd@@UAE?AW4IWDropEffect@@PAVioDragItem@@ABVioMouse@@@Z
	DD	FLAT:?iwm_dragleave@ioWnd@@UAEXXZ
	DD	FLAT:?iwm_dropitem@ioWnd@@UAE_NPAVioDragItem@@ABVioMouse@@PAV1@@Z
	DD	FLAT:?iwm_dropdone@ioWnd@@UAEXPAVioDragItem@@PAV1@_N@Z
	DD	FLAT:?IsEXType@ioWnd@@UBE_NXZ
	DD	FLAT:?GetWndType@ioWnd@@UBEKXZ
	DD	FLAT:?RenderWnd@ioWnd@@UAEXXZ
	DD	FLAT:?SetIDEX@ioWnd@@UAEXAAK_N@Z
	DD	FLAT:?ParseXML@ioWnd@@UAEXAAVioXMLElement@@@Z
	DD	FLAT:?GetHeaderFileName@ioWnd@@UAEPBDXZ
	DD	FLAT:?GetTemplateName@ioWnd@@UAEPBDXZ
	DD	FLAT:?GetDefClassName@ioWnd@@UBEPBDXZ
	DD	FLAT:?_Clone@ioWnd@@UAEPAV1@XZ
	DD	FLAT:?Copy@ioWnd@@UAEXPAV1@@Z
	DD	FLAT:?Save@ioWnd@@UAE_NAAVioXMLElement@@@Z
	DD	FLAT:?SetSaveData@ioWnd@@UAEXAAVioXMLElement@@@Z
	DD	FLAT:?SetPosX@ioWnd@@UAEXH@Z
	DD	FLAT:?SetPosY@ioWnd@@UAEXH@Z
	DD	FLAT:?SetWidth@ioWnd@@UAEXH@Z
	DD	FLAT:?SetHeight@ioWnd@@UAEXH@Z
	DD	FLAT:?GetNumFixedRenderFrame@ioWnd@@UBEHXZ
	DD	FLAT:?GetFixedRenderFrameType@ioWnd@@UAEPBDH@Z
	DD	FLAT:?GetRenderFrame@ioWnd@@UAEPAPAVioUIRenderElement@@PBD@Z
	DD	FLAT:?GetNumFixedRenderImage@ioWnd@@UBEHXZ
	DD	FLAT:?GetFixedRenderImageType@ioWnd@@UAEPBDH@Z
	DD	FLAT:?GetRenderImage@ioWnd@@UAEPAPAVioUIRenderElement@@PBD@Z
	DD	FLAT:?AddEffect@ioWnd@@UAEXABVioHashString@@PAVioUI3DEffectRender@@@Z
	DD	FLAT:?GetEffect@ioWnd@@UAEPAVioUI3DEffectRender@@VioHashString@@@Z
	DD	FLAT:??_ERandomDecoWnd@@UAEPAXI@Z
CONST	ENDS
;	COMDAT xdata$x
xdata$x	SEGMENT
__ehfuncinfo$??0RandomDecoWnd@@QAE@XZ DD 019930522H
	DD	06H
	DD	FLAT:__unwindtable$??0RandomDecoWnd@@QAE@XZ
	DD	2 DUP(00H)
	DD	2 DUP(00H)
	DD	00H
	DD	01H
__unwindtable$??0RandomDecoWnd@@QAE@XZ DD 0ffffffffH
	DD	FLAT:__unwindfunclet$??0RandomDecoWnd@@QAE@XZ$0
	DD	00H
	DD	FLAT:__unwindfunclet$??0RandomDecoWnd@@QAE@XZ$1
	DD	01H
	DD	FLAT:__unwindfunclet$??0RandomDecoWnd@@QAE@XZ$2
	DD	02H
	DD	FLAT:__unwindfunclet$??0RandomDecoWnd@@QAE@XZ$3
	DD	03H
	DD	FLAT:__unwindfunclet$??0RandomDecoWnd@@QAE@XZ$4
	DD	04H
	DD	FLAT:__unwindfunclet$??0RandomDecoWnd@@QAE@XZ$5
; Function compile flags: /Ogsp
; File d:\lost saga for developer\youtube\tutorial\source\src\lsclient\gui\randomdecownd.cpp
xdata$x	ENDS
;	COMDAT ??0RandomDecoWnd@@QAE@XZ
_TEXT	SEGMENT
_this$ = -16						; size = 4
__$EHRec$ = -12						; size = 12
??0RandomDecoWnd@@QAE@XZ PROC				; RandomDecoWnd::RandomDecoWnd, COMDAT
; _this$ = ecx

; 48   : {

  00000	6a 04		 push	 4
  00002	b8 00 00 00 00	 mov	 eax, __ehhandler$??0RandomDecoWnd@@QAE@XZ
  00007	e8 00 00 00 00	 call	 __EH_prolog3
  0000c	8b f1		 mov	 esi, ecx
  0000e	89 75 f0	 mov	 DWORD PTR _this$[ebp], esi
  00011	ff 15 00 00 00
	00		 call	 DWORD PTR __imp_??0ioWnd@@QAE@XZ
  00017	33 db		 xor	 ebx, ebx
  00019	c7 06 00 00 00
	00		 mov	 DWORD PTR [esi], OFFSET ??_7RandomDecoWnd@@6B@
  0001f	89 5d fc	 mov	 DWORD PTR __$EHRec$[ebp+8], ebx
  00022	89 9e 78 01 00
	00		 mov	 DWORD PTR [esi+376], ebx
  00028	89 9e 7c 01 00
	00		 mov	 DWORD PTR [esi+380], ebx
  0002e	89 9e 80 01 00
	00		 mov	 DWORD PTR [esi+384], ebx
  00034	89 9e 88 01 00
	00		 mov	 DWORD PTR [esi+392], ebx
  0003a	89 9e 8c 01 00
	00		 mov	 DWORD PTR [esi+396], ebx
  00040	89 9e 90 01 00
	00		 mov	 DWORD PTR [esi+400], ebx
  00046	89 9e 98 01 00
	00		 mov	 DWORD PTR [esi+408], ebx
  0004c	89 9e 9c 01 00
	00		 mov	 DWORD PTR [esi+412], ebx
  00052	89 9e a0 01 00
	00		 mov	 DWORD PTR [esi+416], ebx
  00058	89 9e a8 01 00
	00		 mov	 DWORD PTR [esi+424], ebx
  0005e	89 9e ac 01 00
	00		 mov	 DWORD PTR [esi+428], ebx
  00064	89 9e b0 01 00
	00		 mov	 DWORD PTR [esi+432], ebx
  0006a	8b 3d 00 00 00
	00		 mov	 edi, DWORD PTR __imp_??0ioHashString@@QAE@XZ
  00070	8d 8e 04 02 00
	00		 lea	 ecx, DWORD PTR [esi+516]
  00076	c6 45 fc 04	 mov	 BYTE PTR __$EHRec$[ebp+8], 4
  0007a	ff d7		 call	 edi
  0007c	8d 8e 14 02 00
	00		 lea	 ecx, DWORD PTR [esi+532]
  00082	c6 45 fc 05	 mov	 BYTE PTR __$EHRec$[ebp+8], 5
  00086	ff d7		 call	 edi

; 49   : 	m_pBackEffect = NULL;
; 50   : 	m_pFinalBackEffect = NULL;
; 51   : 	m_pIcon	= NULL;
; 52   : 	m_pEffect = NULL;
; 53   : 
; 54   : 	m_bResult = false;
; 55   : 	m_bFinalResult = false;
; 56   : 
; 57   : 	m_iPresentType   = 0;

  00088	33 c0		 xor	 eax, eax
  0008a	66 89 86 b8 01
	00 00		 mov	 WORD PTR [esi+440], ax
  00091	89 9e 68 01 00
	00		 mov	 DWORD PTR [esi+360], ebx
  00097	89 9e 6c 01 00
	00		 mov	 DWORD PTR [esi+364], ebx
  0009d	89 9e 60 01 00
	00		 mov	 DWORD PTR [esi+352], ebx
  000a3	89 9e 64 01 00
	00		 mov	 DWORD PTR [esi+356], ebx
  000a9	66 89 9e d4 01
	00 00		 mov	 WORD PTR [esi+468], bx

; 58   : 	m_iPresentValue1 = 0;

  000b0	89 9e bc 01 00
	00		 mov	 DWORD PTR [esi+444], ebx

; 59   : 	m_iPresentValue2 = 0;

  000b6	89 9e c0 01 00
	00		 mov	 DWORD PTR [esi+448], ebx

; 60   : 	m_iPresentValue3 = 0;

  000bc	89 9e c4 01 00
	00		 mov	 DWORD PTR [esi+452], ebx

; 61   : 	m_iPresentValue4 = 0;

  000c2	89 9e c8 01 00
	00		 mov	 DWORD PTR [esi+456], ebx

; 62   : 	m_bAlarm         = false;

  000c8	88 9e cc 01 00
	00		 mov	 BYTE PTR [esi+460], bl

; 63   : 	m_iPresentPeso   = 0;

  000ce	89 9e d0 01 00
	00		 mov	 DWORD PTR [esi+464], ebx

; 64   : 
; 65   : 	m_pManual = NULL;

  000d4	89 9e 70 01 00
	00		 mov	 DWORD PTR [esi+368], ebx

; 66   : }

  000da	8b c6		 mov	 eax, esi
  000dc	e8 00 00 00 00	 call	 __EH_epilog3
  000e1	c3		 ret	 0
_TEXT	ENDS
;	COMDAT text$x
text$x	SEGMENT
__unwindfunclet$??0RandomDecoWnd@@QAE@XZ$0:
  00000	8b 4d f0	 mov	 ecx, DWORD PTR _this$[ebp]
  00003	ff 25 00 00 00
	00		 jmp	 DWORD PTR __imp_??1ioWnd@@UAE@XZ
__unwindfunclet$??0RandomDecoWnd@@QAE@XZ$1:
  00009	8b 4d f0	 mov	 ecx, DWORD PTR _this$[ebp]
  0000c	81 c1 78 01 00
	00		 add	 ecx, 376		; 00000178H
  00012	e9 00 00 00 00	 jmp	 ??1?$vector@VioHashString@@V?$allocator@VioHashString@@@std@@@std@@QAE@XZ ; std::vector<ioHashString,std::allocator<ioHashString> >::~vector<ioHashString,std::allocator<ioHashString> >
__unwindfunclet$??0RandomDecoWnd@@QAE@XZ$2:
  00017	8b 4d f0	 mov	 ecx, DWORD PTR _this$[ebp]
  0001a	81 c1 88 01 00
	00		 add	 ecx, 392		; 00000188H
  00020	e9 00 00 00 00	 jmp	 ??1?$vector@VioHashString@@V?$allocator@VioHashString@@@std@@@std@@QAE@XZ ; std::vector<ioHashString,std::allocator<ioHashString> >::~vector<ioHashString,std::allocator<ioHashString> >
__unwindfunclet$??0RandomDecoWnd@@QAE@XZ$3:
  00025	8b 4d f0	 mov	 ecx, DWORD PTR _this$[ebp]
  00028	81 c1 98 01 00
	00		 add	 ecx, 408		; 00000198H
  0002e	e9 00 00 00 00	 jmp	 ??1?$vector@VioHashString@@V?$allocator@VioHashString@@@std@@@std@@QAE@XZ ; std::vector<ioHashString,std::allocator<ioHashString> >::~vector<ioHashString,std::allocator<ioHashString> >
__unwindfunclet$??0RandomDecoWnd@@QAE@XZ$4:
  00033	8b 4d f0	 mov	 ecx, DWORD PTR _this$[ebp]
  00036	81 c1 a8 01 00
	00		 add	 ecx, 424		; 000001a8H
  0003c	e9 00 00 00 00	 jmp	 ??1?$vector@VioHashString@@V?$allocator@VioHashString@@@std@@@std@@QAE@XZ ; std::vector<ioHashString,std::allocator<ioHashString> >::~vector<ioHashString,std::allocator<ioHashString> >
__unwindfunclet$??0RandomDecoWnd@@QAE@XZ$5:
  00041	8b 4d f0	 mov	 ecx, DWORD PTR _this$[ebp]
  00044	81 c1 04 02 00
	00		 add	 ecx, 516		; 00000204H
  0004a	ff 25 00 00 00
	00		 jmp	 DWORD PTR __imp_??1ioHashString@@QAE@XZ
__ehhandler$??0RandomDecoWnd@@QAE@XZ:
  00050	8b 54 24 08	 mov	 edx, DWORD PTR [esp+8]
  00054	8d 42 0c	 lea	 eax, DWORD PTR [edx+12]
  00057	8b 4a ec	 mov	 ecx, DWORD PTR [edx-20]
  0005a	33 c8		 xor	 ecx, eax
  0005c	e8 00 00 00 00	 call	 @__security_check_cookie@4
  00061	b8 00 00 00 00	 mov	 eax, OFFSET __ehfuncinfo$??0RandomDecoWnd@@QAE@XZ
  00066	e9 00 00 00 00	 jmp	 ___CxxFrameHandler3
text$x	ENDS
??0RandomDecoWnd@@QAE@XZ ENDP				; RandomDecoWnd::RandomDecoWnd
PUBLIC	??1RandomDecoWnd@@UAE@XZ			; RandomDecoWnd::~RandomDecoWnd
;	COMDAT xdata$x
; File c:\program files (x86)\microsoft visual studio 10.0\vc\include\vector
xdata$x	SEGMENT
__ehfuncinfo$??1RandomDecoWnd@@UAE@XZ DD 019930522H
	DD	07H
	DD	FLAT:__unwindtable$??1RandomDecoWnd@@UAE@XZ
	DD	2 DUP(00H)
	DD	2 DUP(00H)
	DD	00H
	DD	01H
__unwindtable$??1RandomDecoWnd@@UAE@XZ DD 0ffffffffH
	DD	FLAT:__unwindfunclet$??1RandomDecoWnd@@UAE@XZ$0
	DD	00H
	DD	FLAT:__unwindfunclet$??1RandomDecoWnd@@UAE@XZ$1
	DD	01H
	DD	FLAT:__unwindfunclet$??1RandomDecoWnd@@UAE@XZ$2
	DD	02H
	DD	FLAT:__unwindfunclet$??1RandomDecoWnd@@UAE@XZ$3
	DD	03H
	DD	FLAT:__unwindfunclet$??1RandomDecoWnd@@UAE@XZ$4
	DD	04H
	DD	FLAT:__unwindfunclet$??1RandomDecoWnd@@UAE@XZ$5
	DD	05H
	DD	FLAT:__unwindfunclet$??1RandomDecoWnd@@UAE@XZ$6
; Function compile flags: /Ogsp
; File d:\lost saga for developer\youtube\tutorial\source\src\lsclient\gui\randomdecownd.cpp
xdata$x	ENDS
;	COMDAT ??1RandomDecoWnd@@UAE@XZ
_TEXT	SEGMENT
$T514684 = -20						; size = 4
$T514604 = -20						; size = 4
$T514524 = -20						; size = 4
$T514444 = -20						; size = 4
_this$ = -16						; size = 4
__$EHRec$ = -12						; size = 12
??1RandomDecoWnd@@UAE@XZ PROC				; RandomDecoWnd::~RandomDecoWnd, COMDAT
; _this$ = ecx

; 69   : {

  00000	6a 08		 push	 8
  00002	b8 00 00 00 00	 mov	 eax, __ehhandler$??1RandomDecoWnd@@UAE@XZ
  00007	e8 00 00 00 00	 call	 __EH_prolog3
  0000c	8b f1		 mov	 esi, ecx
  0000e	89 75 f0	 mov	 DWORD PTR _this$[ebp], esi
  00011	c7 06 00 00 00
	00		 mov	 DWORD PTR [esi], OFFSET ??_7RandomDecoWnd@@6B@

; 70   : 	SAFEDELETE(m_pBackEffect);

  00017	8b 8e 68 01 00
	00		 mov	 ecx, DWORD PTR [esi+360]
  0001d	33 db		 xor	 ebx, ebx
  0001f	c7 45 fc 06 00
	00 00		 mov	 DWORD PTR __$EHRec$[ebp+8], 6
  00026	3b cb		 cmp	 ecx, ebx
  00028	74 0d		 je	 SHORT $LN4@RandomDeco
  0002a	8b 01		 mov	 eax, DWORD PTR [ecx]
  0002c	6a 01		 push	 1
  0002e	ff 50 40	 call	 DWORD PTR [eax+64]
  00031	89 9e 68 01 00
	00		 mov	 DWORD PTR [esi+360], ebx
$LN4@RandomDeco:

; 71   : 	SAFEDELETE(m_pFinalBackEffect);

  00037	8b 8e 6c 01 00
	00		 mov	 ecx, DWORD PTR [esi+364]
  0003d	3b cb		 cmp	 ecx, ebx
  0003f	74 0d		 je	 SHORT $LN3@RandomDeco
  00041	8b 01		 mov	 eax, DWORD PTR [ecx]
  00043	6a 01		 push	 1
  00045	ff 50 40	 call	 DWORD PTR [eax+64]
  00048	89 9e 6c 01 00
	00		 mov	 DWORD PTR [esi+364], ebx
$LN3@RandomDeco:

; 72   : 	SAFEDELETE(m_pIcon);

  0004e	8b 8e 60 01 00
	00		 mov	 ecx, DWORD PTR [esi+352]
  00054	3b cb		 cmp	 ecx, ebx
  00056	74 0d		 je	 SHORT $LN2@RandomDeco
  00058	8b 01		 mov	 eax, DWORD PTR [ecx]
  0005a	6a 01		 push	 1
  0005c	ff 50 40	 call	 DWORD PTR [eax+64]
  0005f	89 9e 60 01 00
	00		 mov	 DWORD PTR [esi+352], ebx
$LN2@RandomDeco:

; 73   : 	SAFEDELETE(m_pEffect);

  00065	8b 8e 64 01 00
	00		 mov	 ecx, DWORD PTR [esi+356]
  0006b	3b cb		 cmp	 ecx, ebx
  0006d	74 0d		 je	 SHORT $LN1@RandomDeco
  0006f	8b 01		 mov	 eax, DWORD PTR [ecx]
  00071	6a 01		 push	 1
  00073	ff 50 40	 call	 DWORD PTR [eax+64]
  00076	89 9e 64 01 00
	00		 mov	 DWORD PTR [esi+356], ebx
$LN1@RandomDeco:

; 74   : 
; 75   : 	m_vIconListM.clear();

  0007c	8b 86 7c 01 00
	00		 mov	 eax, DWORD PTR [esi+380]
  00082	8b 8e 78 01 00
	00		 mov	 ecx, DWORD PTR [esi+376]
  00088	50		 push	 eax
  00089	51		 push	 ecx
  0008a	8d 45 ec	 lea	 eax, DWORD PTR $T514444[ebp]
  0008d	50		 push	 eax
  0008e	8d 8e 78 01 00
	00		 lea	 ecx, DWORD PTR [esi+376]
  00094	e8 00 00 00 00	 call	 ?erase@?$vector@VioHashString@@V?$allocator@VioHashString@@@std@@@std@@QAE?AV?$_Vector_iterator@V?$_Vector_val@VioHashString@@V?$allocator@VioHashString@@@std@@@std@@@2@V?$_Vector_const_iterator@V?$_Vector_val@VioHashString@@V?$allocator@VioHashString@@@std@@@std@@@2@0@Z ; std::vector<ioHashString,std::allocator<ioHashString> >::erase

; 76   : 	m_vIconListW.clear();

  00099	8b 86 8c 01 00
	00		 mov	 eax, DWORD PTR [esi+396]
  0009f	8b 8e 88 01 00
	00		 mov	 ecx, DWORD PTR [esi+392]
  000a5	50		 push	 eax
  000a6	51		 push	 ecx
  000a7	8d 45 ec	 lea	 eax, DWORD PTR $T514524[ebp]
  000aa	50		 push	 eax
  000ab	8d 8e 88 01 00
	00		 lea	 ecx, DWORD PTR [esi+392]
  000b1	e8 00 00 00 00	 call	 ?erase@?$vector@VioHashString@@V?$allocator@VioHashString@@@std@@@std@@QAE?AV?$_Vector_iterator@V?$_Vector_val@VioHashString@@V?$allocator@VioHashString@@@std@@@std@@@2@V?$_Vector_const_iterator@V?$_Vector_val@VioHashString@@V?$allocator@VioHashString@@@std@@@std@@@2@0@Z ; std::vector<ioHashString,std::allocator<ioHashString> >::erase

; 77   : 
; 78   : 	m_vRollingEffect.clear();

  000b6	8d 8e 98 01 00
	00		 lea	 ecx, DWORD PTR [esi+408]
  000bc	8b 41 04	 mov	 eax, DWORD PTR [ecx+4]
  000bf	8b 11		 mov	 edx, DWORD PTR [ecx]
  000c1	50		 push	 eax
  000c2	52		 push	 edx
  000c3	8d 45 ec	 lea	 eax, DWORD PTR $T514604[ebp]
  000c6	50		 push	 eax
  000c7	e8 00 00 00 00	 call	 ?erase@?$vector@VioHashString@@V?$allocator@VioHashString@@@std@@@std@@QAE?AV?$_Vector_iterator@V?$_Vector_val@VioHashString@@V?$allocator@VioHashString@@@std@@@std@@@2@V?$_Vector_const_iterator@V?$_Vector_val@VioHashString@@V?$allocator@VioHashString@@@std@@@std@@@2@0@Z ; std::vector<ioHashString,std::allocator<ioHashString> >::erase

; 79   : 	m_vEndEfffect.clear();

  000cc	8d 8e a8 01 00
	00		 lea	 ecx, DWORD PTR [esi+424]
  000d2	8b 41 04	 mov	 eax, DWORD PTR [ecx+4]
  000d5	8b 11		 mov	 edx, DWORD PTR [ecx]
  000d7	50		 push	 eax
  000d8	52		 push	 edx
  000d9	8d 45 ec	 lea	 eax, DWORD PTR $T514684[ebp]
  000dc	50		 push	 eax
  000dd	e8 00 00 00 00	 call	 ?erase@?$vector@VioHashString@@V?$allocator@VioHashString@@@std@@@std@@QAE?AV?$_Vector_iterator@V?$_Vector_val@VioHashString@@V?$allocator@VioHashString@@@std@@@std@@@2@V?$_Vector_const_iterator@V?$_Vector_val@VioHashString@@V?$allocator@VioHashString@@@std@@@std@@@2@0@Z ; std::vector<ioHashString,std::allocator<ioHashString> >::erase

; 80   : }

  000e2	8d 8e 14 02 00
	00		 lea	 ecx, DWORD PTR [esi+532]
  000e8	c6 45 fc 05	 mov	 BYTE PTR __$EHRec$[ebp+8], 5
  000ec	ff 15 00 00 00
	00		 call	 DWORD PTR __imp_??1ioHashString@@QAE@XZ
  000f2	8d 8e 04 02 00
	00		 lea	 ecx, DWORD PTR [esi+516]
  000f8	c6 45 fc 04	 mov	 BYTE PTR __$EHRec$[ebp+8], 4
  000fc	ff 15 00 00 00
	00		 call	 DWORD PTR __imp_??1ioHashString@@QAE@XZ
  00102	8d 8e a8 01 00
	00		 lea	 ecx, DWORD PTR [esi+424]
  00108	c6 45 fc 03	 mov	 BYTE PTR __$EHRec$[ebp+8], 3
  0010c	e8 00 00 00 00	 call	 ?_Tidy@?$vector@VioHashString@@V?$allocator@VioHashString@@@std@@@std@@IAEXXZ ; std::vector<ioHashString,std::allocator<ioHashString> >::_Tidy
  00111	8d 8e 98 01 00
	00		 lea	 ecx, DWORD PTR [esi+408]
  00117	c6 45 fc 02	 mov	 BYTE PTR __$EHRec$[ebp+8], 2
  0011b	e8 00 00 00 00	 call	 ?_Tidy@?$vector@VioHashString@@V?$allocator@VioHashString@@@std@@@std@@IAEXXZ ; std::vector<ioHashString,std::allocator<ioHashString> >::_Tidy
  00120	8d 8e 88 01 00
	00		 lea	 ecx, DWORD PTR [esi+392]
  00126	c6 45 fc 01	 mov	 BYTE PTR __$EHRec$[ebp+8], 1
  0012a	e8 00 00 00 00	 call	 ?_Tidy@?$vector@VioHashString@@V?$allocator@VioHashString@@@std@@@std@@IAEXXZ ; std::vector<ioHashString,std::allocator<ioHashString> >::_Tidy
  0012f	8d 8e 78 01 00
	00		 lea	 ecx, DWORD PTR [esi+376]
  00135	88 5d fc	 mov	 BYTE PTR __$EHRec$[ebp+8], bl
  00138	e8 00 00 00 00	 call	 ?_Tidy@?$vector@VioHashString@@V?$allocator@VioHashString@@@std@@@std@@IAEXXZ ; std::vector<ioHashString,std::allocator<ioHashString> >::_Tidy
  0013d	83 4d fc ff	 or	 DWORD PTR __$EHRec$[ebp+8], -1
  00141	8b ce		 mov	 ecx, esi
  00143	ff 15 00 00 00
	00		 call	 DWORD PTR __imp_??1ioWnd@@UAE@XZ
  00149	e8 00 00 00 00	 call	 __EH_epilog3
  0014e	c3		 ret	 0
_TEXT	ENDS
;	COMDAT text$x
text$x	SEGMENT
__unwindfunclet$??1RandomDecoWnd@@UAE@XZ$0:
  00000	8b 4d f0	 mov	 ecx, DWORD PTR _this$[ebp]
  00003	ff 25 00 00 00
	00		 jmp	 DWORD PTR __imp_??1ioWnd@@UAE@XZ
__unwindfunclet$??1RandomDecoWnd@@UAE@XZ$1:
  00009	8b 4d f0	 mov	 ecx, DWORD PTR _this$[ebp]
  0000c	81 c1 78 01 00
	00		 add	 ecx, 376		; 00000178H
  00012	e9 00 00 00 00	 jmp	 ??1?$vector@VioHashString@@V?$allocator@VioHashString@@@std@@@std@@QAE@XZ ; std::vector<ioHashString,std::allocator<ioHashString> >::~vector<ioHashString,std::allocator<ioHashString> >
__unwindfunclet$??1RandomDecoWnd@@UAE@XZ$2:
  00017	8b 4d f0	 mov	 ecx, DWORD PTR _this$[ebp]
  0001a	81 c1 88 01 00
	00		 add	 ecx, 392		; 00000188H
  00020	e9 00 00 00 00	 jmp	 ??1?$vector@VioHashString@@V?$allocator@VioHashString@@@std@@@std@@QAE@XZ ; std::vector<ioHashString,std::allocator<ioHashString> >::~vector<ioHashString,std::allocator<ioHashString> >
__unwindfunclet$??1RandomDecoWnd@@UAE@XZ$3:
  00025	8b 4d f0	 mov	 ecx, DWORD PTR _this$[ebp]
  00028	81 c1 98 01 00
	00		 add	 ecx, 408		; 00000198H
  0002e	e9 00 00 00 00	 jmp	 ??1?$vector@VioHashString@@V?$allocator@VioHashString@@@std@@@std@@QAE@XZ ; std::vector<ioHashString,std::allocator<ioHashString> >::~vector<ioHashString,std::allocator<ioHashString> >
__unwindfunclet$??1RandomDecoWnd@@UAE@XZ$4:
  00033	8b 4d f0	 mov	 ecx, DWORD PTR _this$[ebp]
  00036	81 c1 a8 01 00
	00		 add	 ecx, 424		; 000001a8H
  0003c	e9 00 00 00 00	 jmp	 ??1?$vector@VioHashString@@V?$allocator@VioHashString@@@std@@@std@@QAE@XZ ; std::vector<ioHashString,std::allocator<ioHashString> >::~vector<ioHashString,std::allocator<ioHashString> >
__unwindfunclet$??1RandomDecoWnd@@UAE@XZ$5:
  00041	8b 4d f0	 mov	 ecx, DWORD PTR _this$[ebp]
  00044	81 c1 04 02 00
	00		 add	 ecx, 516		; 00000204H
  0004a	ff 25 00 00 00
	00		 jmp	 DWORD PTR __imp_??1ioHashString@@QAE@XZ
__unwindfunclet$??1RandomDecoWnd@@UAE@XZ$6:
  00050	8b 4d f0	 mov	 ecx, DWORD PTR _this$[ebp]
  00053	81 c1 14 02 00
	00		 add	 ecx, 532		; 00000214H
  00059	ff 25 00 00 00
	00		 jmp	 DWORD PTR __imp_??1ioHashString@@QAE@XZ
__ehhandler$??1RandomDecoWnd@@UAE@XZ:
  0005f	8b 54 24 08	 mov	 edx, DWORD PTR [esp+8]
  00063	8d 42 0c	 lea	 eax, DWORD PTR [edx+12]
  00066	8b 4a e8	 mov	 ecx, DWORD PTR [edx-24]
  00069	33 c8		 xor	 ecx, eax
  0006b	e8 00 00 00 00	 call	 @__security_check_cookie@4
  00070	b8 00 00 00 00	 mov	 eax, OFFSET __ehfuncinfo$??1RandomDecoWnd@@UAE@XZ
  00075	e9 00 00 00 00	 jmp	 ___CxxFrameHandler3
text$x	ENDS
??1RandomDecoWnd@@UAE@XZ ENDP				; RandomDecoWnd::~RandomDecoWnd
PUBLIC	_xElement$GSCopy$
;	COMDAT xdata$x
; File d:\lost saga for developer\youtube\tutorial\source\src\lsclient\stringprotect.h
xdata$x	SEGMENT
__unwindtable$?ParseExtraInfo@RandomDecoWnd@@UAEXAAVioXMLElement@@@Z DD 0ffffffffH
	DD	FLAT:__unwindfunclet$?ParseExtraInfo@RandomDecoWnd@@UAEXAAVioXMLElement@@@Z$0
	DD	0ffffffffH
	DD	FLAT:__unwindfunclet$?ParseExtraInfo@RandomDecoWnd@@UAEXAAVioXMLElement@@@Z$1
	DD	0ffffffffH
	DD	FLAT:__unwindfunclet$?ParseExtraInfo@RandomDecoWnd@@UAEXAAVioXMLElement@@@Z$2
	DD	0ffffffffH
	DD	FLAT:__unwindfunclet$?ParseExtraInfo@RandomDecoWnd@@UAEXAAVioXMLElement@@@Z$3
__ehfuncinfo$?ParseExtraInfo@RandomDecoWnd@@UAEXAAVioXMLElement@@@Z DD 019930522H
	DD	04H
	DD	FLAT:__unwindtable$?ParseExtraInfo@RandomDecoWnd@@UAEXAAVioXMLElement@@@Z
	DD	2 DUP(00H)
	DD	2 DUP(00H)
	DD	00H
	DD	01H
; Function compile flags: /Ogsp
; File d:\lost saga for developer\youtube\tutorial\source\src\lsclient\gui\randomdecownd.cpp
xdata$x	ENDS
;	COMDAT ?ParseExtraInfo@RandomDecoWnd@@UAEXAAVioXMLElement@@@Z
_TEXT	SEGMENT
_szEffect$509802 = -616					; size = 16
__t$516794 = -597					; size = 1
__t$516546 = -597					; size = 1
__t$516069 = -597					; size = 1
__t$515729 = -597					; size = 1
_iMax$ = -592						; size = 4
_xElement$GSCopy$ = -588				; size = 4
tv14137 = -584						; size = 4
tv14118 = -584						; size = 4
tv13941 = -584						; size = 4
tv13824 = -584						; size = 4
$T516365 = -584						; size = 4
$T515900 = -584						; size = 4
$T515560 = -584						; size = 4
_i$509482 = -584					; size = 4
_i$509321 = -584					; size = 4
_i$509152 = -584					; size = 4
_szName$509649 = -580					; size = 260
_szName$509486 = -320					; size = 260
_szName$509325 = -320					; size = 260
_szName$509156 = -320					; size = 260
__k$515388 = -60					; size = 13
__k$515013 = -60					; size = 11
__k$514763 = -60					; size = 13
_szEffect$509639 = -60					; size = 16
_szIconName$509478 = -60				; size = 16
_szIconName$509310 = -60				; size = 16
__k$516411 = -40					; size = 19
__k$516231 = -40					; size = 16
__k$515971 = -40					; size = 16
__k$515176 = -40					; size = 16
__k$514888 = -40					; size = 19
___encStr$509490 = -40					; size = 18
__k$516671 = -36					; size = 15
__k$515593 = -36					; size = 14
__k$515263 = -36					; size = 14
___encStr$509653 = -36					; size = 14
___encStr$509329 = -36					; size = 15
___encStr$509160 = -36					; size = 13
__$EHRec$ = -12						; size = 12
_xElement$ = 8						; size = 4
?ParseExtraInfo@RandomDecoWnd@@UAEXAAVioXMLElement@@@Z PROC ; RandomDecoWnd::ParseExtraInfo, COMDAT
; _this$ = ecx

; 99   : {

  00000	68 5c 02 00 00	 push	 604			; 0000025cH
  00005	b8 00 00 00 00	 mov	 eax, __ehhandler$?ParseExtraInfo@RandomDecoWnd@@UAEXAAVioXMLElement@@@Z
  0000a	e8 00 00 00 00	 call	 __EH_prolog3_GS

; 105  : 
; 106  : 	m_szRollingSound = xElement.GetStringAttribute_e( "Rolling_Sound" );

  0000f	8b 45 08	 mov	 eax, DWORD PTR _xElement$[ebp]
  00012	33 db		 xor	 ebx, ebx
  00014	6a 03		 push	 3
  00016	8b f1		 mov	 esi, ecx
  00018	89 85 b4 fd ff
	ff		 mov	 DWORD PTR _xElement$GSCopy$[ebp], eax
  0001e	c7 45 c4 bf 83
	87 86		 mov	 DWORD PTR __k$514763[ebp], -2037939265 ; 868783bfH
  00025	c7 45 c8 84 82
	8c b5		 mov	 DWORD PTR __k$514763[ebp+4], -1249082748 ; b58c8284H
  0002c	c7 45 cc b9 85
	86 8f		 mov	 DWORD PTR __k$514763[ebp+8], -1887009351 ; 8f8685b9H
  00033	8d 45 c4	 lea	 eax, DWORD PTR __k$514763[ebp]
  00036	88 5d d0	 mov	 BYTE PTR __k$514763[ebp+12], bl
  00039	59		 pop	 ecx
$LL522@ParseExtra:

; 100  : 	m_dwRollingTime = xElement.GetIntAttribute_e( "Rolling_Time" );

  0003a	81 30 ed ec eb
	ea		 xor	 DWORD PTR [eax], -353637139 ; eaebecedH
  00040	83 c0 04	 add	 eax, 4
  00043	49		 dec	 ecx
  00044	75 f4		 jne	 SHORT $LL522@ParseExtra
  00046	8b 8d b4 fd ff
	ff		 mov	 ecx, DWORD PTR _xElement$GSCopy$[ebp]
  0004c	8b 3d 00 00 00
	00		 mov	 edi, DWORD PTR __imp_?GetIntAttribute@ioXMLElement@@QBEHPBD@Z
  00052	8d 45 c4	 lea	 eax, DWORD PTR __k$514763[ebp]
  00055	50		 push	 eax
  00056	ff d7		 call	 edi
  00058	6a 04		 push	 4
  0005a	89 86 e0 01 00
	00		 mov	 DWORD PTR [esi+480], eax

; 101  : 	m_dwRollingTotalTime = xElement.GetIntAttribute_e( "Rolling_Total_Time" );

  00060	c7 45 d8 bf 83
	87 86		 mov	 DWORD PTR __k$514888[ebp], -2037939265 ; 868783bfH
  00067	c7 45 dc 84 82
	8c b5		 mov	 DWORD PTR __k$514888[ebp+4], -1249082748 ; b58c8284H
  0006e	c7 45 e0 b9 83
	9f 8b		 mov	 DWORD PTR __k$514888[ebp+8], -1952480327 ; 8b9f83b9H
  00075	c7 45 e4 81 b3
	bf 83		 mov	 DWORD PTR __k$514888[ebp+12], -2084588671 ; 83bfb381H
  0007c	66 c7 45 e8 80
	89		 mov	 WORD PTR __k$514888[ebp+16], 35200 ; 00008980H
  00082	8d 45 d8	 lea	 eax, DWORD PTR __k$514888[ebp]
  00085	88 5d ea	 mov	 BYTE PTR __k$514888[ebp+18], bl
  00088	59		 pop	 ecx
$LL628@ParseExtra:
  00089	81 30 ed ec eb
	ea		 xor	 DWORD PTR [eax], -353637139 ; eaebecedH
  0008f	83 c0 04	 add	 eax, 4
  00092	49		 dec	 ecx
  00093	75 f4		 jne	 SHORT $LL628@ParseExtra
  00095	6a 10		 push	 16			; 00000010H
  00097	58		 pop	 eax
$LL625@ParseExtra:
  00098	8b c8		 mov	 ecx, eax
  0009a	81 e1 03 00 00
	80		 and	 ecx, -2147483645	; 80000003H
  000a0	79 05		 jns	 SHORT $LN2202@ParseExtra
  000a2	49		 dec	 ecx
  000a3	83 c9 fc	 or	 ecx, -4			; fffffffcH
  000a6	41		 inc	 ecx
$LN2202@ParseExtra:
  000a7	b2 ed		 mov	 dl, -19			; ffffffedH
  000a9	2a d1		 sub	 dl, cl
  000ab	30 54 05 d8	 xor	 BYTE PTR __k$514888[ebp+eax], dl
  000af	40		 inc	 eax
  000b0	83 f8 12	 cmp	 eax, 18			; 00000012H
  000b3	7c e3		 jl	 SHORT $LL625@ParseExtra
  000b5	8b 8d b4 fd ff
	ff		 mov	 ecx, DWORD PTR _xElement$GSCopy$[ebp]
  000bb	8d 45 d8	 lea	 eax, DWORD PTR __k$514888[ebp]
  000be	50		 push	 eax
  000bf	ff d7		 call	 edi
  000c1	6a 02		 push	 2
  000c3	89 86 e4 01 00
	00		 mov	 DWORD PTR [esi+484], eax

; 102  : 
; 103  : 	m_fIconScale = xElement.GetFloatAttribute_e( "Icon_Scale" );

  000c9	c7 45 c4 a4 8f
	84 84		 mov	 DWORD PTR __k$515013[ebp], -2071687260 ; 84848fa4H
  000d0	c7 45 c8 b2 bf
	88 8b		 mov	 DWORD PTR __k$515013[ebp+4], -1953972302 ; 8b88bfb2H
  000d7	66 c7 45 cc 81
	89		 mov	 WORD PTR __k$515013[ebp+8], 35201 ; 00008981H
  000dd	8d 45 c4	 lea	 eax, DWORD PTR __k$515013[ebp]
  000e0	88 5d ce	 mov	 BYTE PTR __k$515013[ebp+10], bl
  000e3	59		 pop	 ecx
$LL734@ParseExtra:
  000e4	81 30 ed ec eb
	ea		 xor	 DWORD PTR [eax], -353637139 ; eaebecedH
  000ea	83 c0 04	 add	 eax, 4
  000ed	49		 dec	 ecx
  000ee	75 f4		 jne	 SHORT $LL734@ParseExtra
  000f0	6a 08		 push	 8
  000f2	58		 pop	 eax
$LL731@ParseExtra:
  000f3	8b c8		 mov	 ecx, eax
  000f5	81 e1 03 00 00
	80		 and	 ecx, -2147483645	; 80000003H
  000fb	79 05		 jns	 SHORT $LN2203@ParseExtra
  000fd	49		 dec	 ecx
  000fe	83 c9 fc	 or	 ecx, -4			; fffffffcH
  00101	41		 inc	 ecx
$LN2203@ParseExtra:
  00102	b2 ed		 mov	 dl, -19			; ffffffedH
  00104	2a d1		 sub	 dl, cl
  00106	30 54 05 c4	 xor	 BYTE PTR __k$515013[ebp+eax], dl
  0010a	40		 inc	 eax
  0010b	83 f8 0a	 cmp	 eax, 10			; 0000000aH
  0010e	7c e3		 jl	 SHORT $LL731@ParseExtra
  00110	8b 8d b4 fd ff
	ff		 mov	 ecx, DWORD PTR _xElement$GSCopy$[ebp]
  00116	8d 45 c4	 lea	 eax, DWORD PTR __k$515013[ebp]
  00119	50		 push	 eax
  0011a	ff 15 00 00 00
	00		 call	 DWORD PTR __imp_?GetFloatAttribute@ioXMLElement@@QBEMPBD@Z
  00120	d9 9e d8 01 00
	00		 fstp	 DWORD PTR [esi+472]
  00126	6a 03		 push	 3

; 104  : 	m_dwIconScaleTime = xElement.GetIntAttribute_e( "Icon_Scale_Time" );

  00128	c7 45 d8 a4 8f
	84 84		 mov	 DWORD PTR __k$515176[ebp], -2071687260 ; 84848fa4H
  0012f	c7 45 dc b2 bf
	88 8b		 mov	 DWORD PTR __k$515176[ebp+4], -1953972302 ; 8b88bfb2H
  00136	c7 45 e0 81 89
	b4 be		 mov	 DWORD PTR __k$515176[ebp+8], -1095464575 ; beb48981H
  0013d	8d 45 d8	 lea	 eax, DWORD PTR __k$515176[ebp]
  00140	c7 45 e4 84 81
	8e 00		 mov	 DWORD PTR __k$515176[ebp+12], 9339268 ; 008e8184H
  00147	59		 pop	 ecx
$LL840@ParseExtra:
  00148	81 30 ed ec eb
	ea		 xor	 DWORD PTR [eax], -353637139 ; eaebecedH
  0014e	83 c0 04	 add	 eax, 4
  00151	49		 dec	 ecx
  00152	75 f4		 jne	 SHORT $LL840@ParseExtra
  00154	6a 0c		 push	 12			; 0000000cH
  00156	58		 pop	 eax
$LL837@ParseExtra:
  00157	8b c8		 mov	 ecx, eax
  00159	81 e1 03 00 00
	80		 and	 ecx, -2147483645	; 80000003H
  0015f	79 05		 jns	 SHORT $LN2204@ParseExtra
  00161	49		 dec	 ecx
  00162	83 c9 fc	 or	 ecx, -4			; fffffffcH
  00165	41		 inc	 ecx
$LN2204@ParseExtra:
  00166	b2 ed		 mov	 dl, -19			; ffffffedH
  00168	2a d1		 sub	 dl, cl
  0016a	30 54 05 d8	 xor	 BYTE PTR __k$515176[ebp+eax], dl
  0016e	40		 inc	 eax
  0016f	83 f8 0f	 cmp	 eax, 15			; 0000000fH
  00172	7c e3		 jl	 SHORT $LL837@ParseExtra
  00174	8b 8d b4 fd ff
	ff		 mov	 ecx, DWORD PTR _xElement$GSCopy$[ebp]
  0017a	8d 45 d8	 lea	 eax, DWORD PTR __k$515176[ebp]
  0017d	50		 push	 eax
  0017e	ff d7		 call	 edi
  00180	6a 03		 push	 3
  00182	89 86 dc 01 00
	00		 mov	 DWORD PTR [esi+476], eax

; 105  : 
; 106  : 	m_szRollingSound = xElement.GetStringAttribute_e( "Rolling_Sound" );

  00188	c7 45 dc bf 83
	87 86		 mov	 DWORD PTR __k$515263[ebp], -2037939265 ; 868783bfH
  0018f	c7 45 e0 84 82
	8c b5		 mov	 DWORD PTR __k$515263[ebp+4], -1249082748 ; b58c8284H
  00196	c7 45 e4 be 83
	9e 84		 mov	 DWORD PTR __k$515263[ebp+8], -2069986370 ; 849e83beH
  0019d	8d 45 dc	 lea	 eax, DWORD PTR __k$515263[ebp]
  001a0	66 c7 45 e8 89
	00		 mov	 WORD PTR __k$515263[ebp+12], 137 ; 00000089H
  001a6	59		 pop	 ecx
$LL946@ParseExtra:
  001a7	81 30 ed ec eb
	ea		 xor	 DWORD PTR [eax], -353637139 ; eaebecedH
  001ad	83 c0 04	 add	 eax, 4
  001b0	49		 dec	 ecx
  001b1	75 f4		 jne	 SHORT $LL946@ParseExtra
  001b3	8b 8d b4 fd ff
	ff		 mov	 ecx, DWORD PTR _xElement$GSCopy$[ebp]
  001b9	80 75 e8 ed	 xor	 BYTE PTR __k$515263[ebp+12], -19 ; ffffffedH
  001bd	8d 45 dc	 lea	 eax, DWORD PTR __k$515263[ebp]
  001c0	50		 push	 eax
  001c1	ff 15 00 00 00
	00		 call	 DWORD PTR __imp_?GetStringAttribute@ioXMLElement@@QBEPBDPBD@Z
  001c7	8b 3d 00 00 00
	00		 mov	 edi, DWORD PTR __imp_??4ioHashString@@QAEAAV0@PBD@Z
  001cd	50		 push	 eax
  001ce	8d 8e 04 02 00
	00		 lea	 ecx, DWORD PTR [esi+516]
  001d4	ff d7		 call	 edi
  001d6	6a 03		 push	 3

; 107  : 	m_szResultSound = xElement.GetStringAttribute_e( "Result_Sound" );

  001d8	c7 45 c4 bf 89
	98 9f		 mov	 DWORD PTR __k$515388[ebp], -1617393217 ; 9f9889bfH
  001df	c7 45 c8 81 98
	b4 b9		 mov	 DWORD PTR __k$515388[ebp+4], -1179346815 ; b9b49881H
  001e6	c7 45 cc 82 99
	85 8e		 mov	 DWORD PTR __k$515388[ebp+8], -1903847038 ; 8e859982H
  001ed	8d 45 c4	 lea	 eax, DWORD PTR __k$515388[ebp]
  001f0	88 5d d0	 mov	 BYTE PTR __k$515388[ebp+12], bl
  001f3	59		 pop	 ecx
$LL1052@ParseExtra:
  001f4	81 30 ed ec eb
	ea		 xor	 DWORD PTR [eax], -353637139 ; eaebecedH
  001fa	83 c0 04	 add	 eax, 4
  001fd	49		 dec	 ecx
  001fe	75 f4		 jne	 SHORT $LL1052@ParseExtra
  00200	8b 8d b4 fd ff
	ff		 mov	 ecx, DWORD PTR _xElement$GSCopy$[ebp]
  00206	8d 45 c4	 lea	 eax, DWORD PTR __k$515388[ebp]
  00209	50		 push	 eax
  0020a	ff 15 00 00 00
	00		 call	 DWORD PTR __imp_?GetStringAttribute@ioXMLElement@@QBEPBDPBD@Z
  00210	50		 push	 eax
  00211	8d 8e 14 02 00
	00		 lea	 ecx, DWORD PTR [esi+532]
  00217	ff d7		 call	 edi

; 108  : 
; 109  : 	m_vIconListM.clear();

  00219	8b 86 7c 01 00
	00		 mov	 eax, DWORD PTR [esi+380]
  0021f	8b 8e 78 01 00
	00		 mov	 ecx, DWORD PTR [esi+376]
  00225	50		 push	 eax
  00226	51		 push	 ecx
  00227	8d 85 b8 fd ff
	ff		 lea	 eax, DWORD PTR $T515560[ebp]
  0022d	50		 push	 eax
  0022e	8d 8e 78 01 00
	00		 lea	 ecx, DWORD PTR [esi+376]
  00234	e8 00 00 00 00	 call	 ?erase@?$vector@VioHashString@@V?$allocator@VioHashString@@@std@@@std@@QAE?AV?$_Vector_iterator@V?$_Vector_val@VioHashString@@V?$allocator@VioHashString@@@std@@@std@@@2@V?$_Vector_const_iterator@V?$_Vector_val@VioHashString@@V?$allocator@VioHashString@@@std@@@std@@@2@0@Z ; std::vector<ioHashString,std::allocator<ioHashString> >::erase
  00239	6a 03		 push	 3

; 110  : 	int iMax = xElement.GetIntAttribute_e( "Max_Icon_Name" );

  0023b	c7 45 dc a0 8d
	93 b5		 mov	 DWORD PTR __k$515593[ebp], -1248621152 ; b5938da0H
  00242	c7 45 e0 a4 8f
	84 84		 mov	 DWORD PTR __k$515593[ebp+4], -2071687260 ; 84848fa4H
  00249	c7 45 e4 b2 a2
	8a 87		 mov	 DWORD PTR __k$515593[ebp+8], -2020957518 ; 878aa2b2H
  00250	8d 45 dc	 lea	 eax, DWORD PTR __k$515593[ebp]
  00253	66 c7 45 e8 88
	00		 mov	 WORD PTR __k$515593[ebp+12], 136 ; 00000088H
  00259	59		 pop	 ecx
$LL1176@ParseExtra:
  0025a	81 30 ed ec eb
	ea		 xor	 DWORD PTR [eax], -353637139 ; eaebecedH
  00260	83 c0 04	 add	 eax, 4
  00263	49		 dec	 ecx
  00264	75 f4		 jne	 SHORT $LL1176@ParseExtra
  00266	8b 8d b4 fd ff
	ff		 mov	 ecx, DWORD PTR _xElement$GSCopy$[ebp]
  0026c	80 75 e8 ed	 xor	 BYTE PTR __k$515593[ebp+12], -19 ; ffffffedH
  00270	8d 45 dc	 lea	 eax, DWORD PTR __k$515593[ebp]
  00273	50		 push	 eax
  00274	ff 15 00 00 00
	00		 call	 DWORD PTR __imp_?GetIntAttribute@ioXMLElement@@QBEHPBD@Z
  0027a	89 85 b0 fd ff
	ff		 mov	 DWORD PTR _iMax$[ebp], eax

; 111  : 	for (int i = 0; i < iMax ; i++)

  00280	89 9d b8 fd ff
	ff		 mov	 DWORD PTR _i$509152[ebp], ebx
  00286	3b c3		 cmp	 eax, ebx
  00288	0f 8e 06 01 00
	00		 jle	 $LN410@ParseExtra
$LL412@ParseExtra:

; 112  : 	{
; 113  : 		char szName[MAX_PATH]="";

  0028e	68 03 01 00 00	 push	 259			; 00000103H
  00293	8d 85 c1 fe ff
	ff		 lea	 eax, DWORD PTR _szName$509156[ebp+1]
  00299	53		 push	 ebx
  0029a	50		 push	 eax
  0029b	88 9d c0 fe ff
	ff		 mov	 BYTE PTR _szName$509156[ebp], bl
  002a1	e8 00 00 00 00	 call	 _memset
  002a6	83 c4 0c	 add	 esp, 12			; 0000000cH
  002a9	6a 03		 push	 3

; 114  : 		StringCbPrintf_e( szName, sizeof( szName ), "Icon_Name_%d", i+1 );

  002ab	c7 45 dc a4 8f
	84 84		 mov	 DWORD PTR ___encStr$509160[ebp], -2071687260 ; 84848fa4H
  002b2	c7 45 e0 b2 a2
	8a 87		 mov	 DWORD PTR ___encStr$509160[ebp+4], -2020957518 ; 878aa2b2H
  002b9	c7 45 e4 88 b3
	ce 8e		 mov	 DWORD PTR ___encStr$509160[ebp+8], -1899056248 ; 8eceb388H
  002c0	8d 45 dc	 lea	 eax, DWORD PTR ___encStr$509160[ebp]
  002c3	88 5d e8	 mov	 BYTE PTR ___encStr$509160[ebp+12], bl
  002c6	59		 pop	 ecx
$LL1184@ParseExtra:
  002c7	81 30 ed ec eb
	ea		 xor	 DWORD PTR [eax], -353637139 ; eaebecedH
  002cd	83 c0 04	 add	 eax, 4
  002d0	49		 dec	 ecx
  002d1	75 f4		 jne	 SHORT $LL1184@ParseExtra
  002d3	8b 85 b8 fd ff
	ff		 mov	 eax, DWORD PTR _i$509152[ebp]
  002d9	40		 inc	 eax
  002da	50		 push	 eax
  002db	89 85 b8 fd ff
	ff		 mov	 DWORD PTR tv13824[ebp], eax
  002e1	8d 45 dc	 lea	 eax, DWORD PTR ___encStr$509160[ebp]
  002e4	50		 push	 eax
  002e5	8d 85 c0 fe ff
	ff		 lea	 eax, DWORD PTR _szName$509156[ebp]
  002eb	68 04 01 00 00	 push	 260			; 00000104H
  002f0	50		 push	 eax
  002f1	e8 00 00 00 00	 call	 ?StringCbPrintfA@@YAJPADIPBDZZ ; StringCbPrintfA

; 115  : 		ioHashString szIconName = xElement.GetStringAttribute( szName );

  002f6	8b 8d b4 fd ff
	ff		 mov	 ecx, DWORD PTR _xElement$GSCopy$[ebp]
  002fc	83 c4 10	 add	 esp, 16			; 00000010H
  002ff	8d 85 c0 fe ff
	ff		 lea	 eax, DWORD PTR _szName$509156[ebp]
  00305	50		 push	 eax
  00306	ff 15 00 00 00
	00		 call	 DWORD PTR __imp_?GetStringAttribute@ioXMLElement@@QBEPBDPBD@Z
  0030c	50		 push	 eax
  0030d	8d 4d c4	 lea	 ecx, DWORD PTR _szIconName$509310[ebp]
  00310	ff 15 00 00 00
	00		 call	 DWORD PTR __imp_??0ioHashString@@QAE@PBD@Z

; 116  : 		if( szIconName == "" )

  00316	8b 45 c4	 mov	 eax, DWORD PTR _szIconName$509310[ebp]
  00319	89 5d fc	 mov	 DWORD PTR __$EHRec$[ebp+8], ebx
  0031c	88 9d ab fd ff
	ff		 mov	 BYTE PTR __t$515729[ebp], bl
  00322	8d 8d ab fd ff
	ff		 lea	 ecx, DWORD PTR __t$515729[ebp]
$LL2184@ParseExtra:
  00328	8a 10		 mov	 dl, BYTE PTR [eax]
  0032a	3a 11		 cmp	 dl, BYTE PTR [ecx]
  0032c	75 1a		 jne	 SHORT $LN2185@ParseExtra
  0032e	3a d3		 cmp	 dl, bl
  00330	74 12		 je	 SHORT $LN2186@ParseExtra
  00332	8a 50 01	 mov	 dl, BYTE PTR [eax+1]
  00335	3a 51 01	 cmp	 dl, BYTE PTR [ecx+1]
  00338	75 0e		 jne	 SHORT $LN2185@ParseExtra
  0033a	83 c0 02	 add	 eax, 2
  0033d	83 c1 02	 add	 ecx, 2
  00340	3a d3		 cmp	 dl, bl
  00342	75 e4		 jne	 SHORT $LL2184@ParseExtra
$LN2186@ParseExtra:
  00344	33 c0		 xor	 eax, eax
  00346	eb 05		 jmp	 SHORT $LN2187@ParseExtra
$LN2185@ParseExtra:
  00348	1b c0		 sbb	 eax, eax
  0034a	83 d8 ff	 sbb	 eax, -1
$LN2187@ParseExtra:
  0034d	3b c3		 cmp	 eax, ebx
  0034f	74 36		 je	 SHORT $LN2137@ParseExtra

; 118  : 		m_vIconListM.push_back( szIconName );

  00351	8d 45 c4	 lea	 eax, DWORD PTR _szIconName$509310[ebp]
  00354	50		 push	 eax
  00355	8d 8e 78 01 00
	00		 lea	 ecx, DWORD PTR [esi+376]
  0035b	e8 00 00 00 00	 call	 ?push_back@?$vector@VioHashString@@V?$allocator@VioHashString@@@std@@@std@@QAEXABVioHashString@@@Z ; std::vector<ioHashString,std::allocator<ioHashString> >::push_back

; 119  : 	}

  00360	83 4d fc ff	 or	 DWORD PTR __$EHRec$[ebp+8], -1
  00364	8d 4d c4	 lea	 ecx, DWORD PTR _szIconName$509310[ebp]
  00367	ff 15 00 00 00
	00		 call	 DWORD PTR __imp_??1ioHashString@@QAE@XZ
  0036d	8b 85 b8 fd ff
	ff		 mov	 eax, DWORD PTR tv13824[ebp]
  00373	89 85 b8 fd ff
	ff		 mov	 DWORD PTR _i$509152[ebp], eax
  00379	3b 85 b0 fd ff
	ff		 cmp	 eax, DWORD PTR _iMax$[ebp]
  0037f	0f 8c 09 ff ff
	ff		 jl	 $LL412@ParseExtra

; 157  : 		if( szEffect == "" )

  00385	eb 0d		 jmp	 SHORT $LN410@ParseExtra
$LN2137@ParseExtra:

; 117  : 			break;

  00387	83 4d fc ff	 or	 DWORD PTR __$EHRec$[ebp+8], -1
  0038b	8d 4d c4	 lea	 ecx, DWORD PTR _szIconName$509310[ebp]
  0038e	ff 15 00 00 00
	00		 call	 DWORD PTR __imp_??1ioHashString@@QAE@XZ
$LN410@ParseExtra:

; 120  : 
; 121  : 	m_vIconListW.clear();

  00394	8b 86 8c 01 00
	00		 mov	 eax, DWORD PTR [esi+396]
  0039a	8b 8e 88 01 00
	00		 mov	 ecx, DWORD PTR [esi+392]
  003a0	50		 push	 eax
  003a1	51		 push	 ecx
  003a2	8d 85 b8 fd ff
	ff		 lea	 eax, DWORD PTR $T515900[ebp]
  003a8	50		 push	 eax
  003a9	8d 8e 88 01 00
	00		 lea	 ecx, DWORD PTR [esi+392]
  003af	e8 00 00 00 00	 call	 ?erase@?$vector@VioHashString@@V?$allocator@VioHashString@@@std@@@std@@QAE?AV?$_Vector_iterator@V?$_Vector_val@VioHashString@@V?$allocator@VioHashString@@@std@@@std@@@2@V?$_Vector_const_iterator@V?$_Vector_val@VioHashString@@V?$allocator@VioHashString@@@std@@@std@@@2@0@Z ; std::vector<ioHashString,std::allocator<ioHashString> >::erase
  003b4	6a 03		 push	 3

; 122  : 	iMax = xElement.GetIntAttribute_e( "Max_Icon_Name_W" );

  003b6	c7 45 d8 a0 8d
	93 b5		 mov	 DWORD PTR __k$515971[ebp], -1248621152 ; b5938da0H
  003bd	c7 45 dc a4 8f
	84 84		 mov	 DWORD PTR __k$515971[ebp+4], -2071687260 ; 84848fa4H
  003c4	c7 45 e0 b2 a2
	8a 87		 mov	 DWORD PTR __k$515971[ebp+8], -2020957518 ; 878aa2b2H
  003cb	8d 45 d8	 lea	 eax, DWORD PTR __k$515971[ebp]
  003ce	c7 45 e4 88 b3
	bc 00		 mov	 DWORD PTR __k$515971[ebp+12], 12366728 ; 00bcb388H
  003d5	59		 pop	 ecx
$LL1414@ParseExtra:
  003d6	81 30 ed ec eb
	ea		 xor	 DWORD PTR [eax], -353637139 ; eaebecedH
  003dc	83 c0 04	 add	 eax, 4
  003df	49		 dec	 ecx
  003e0	75 f4		 jne	 SHORT $LL1414@ParseExtra
  003e2	6a 0c		 push	 12			; 0000000cH
  003e4	58		 pop	 eax
$LL1411@ParseExtra:
  003e5	8b c8		 mov	 ecx, eax
  003e7	81 e1 03 00 00
	80		 and	 ecx, -2147483645	; 80000003H
  003ed	79 05		 jns	 SHORT $LN2205@ParseExtra
  003ef	49		 dec	 ecx
  003f0	83 c9 fc	 or	 ecx, -4			; fffffffcH
  003f3	41		 inc	 ecx
$LN2205@ParseExtra:
  003f4	b2 ed		 mov	 dl, -19			; ffffffedH
  003f6	2a d1		 sub	 dl, cl
  003f8	30 54 05 d8	 xor	 BYTE PTR __k$515971[ebp+eax], dl
  003fc	40		 inc	 eax
  003fd	83 f8 0f	 cmp	 eax, 15			; 0000000fH
  00400	7c e3		 jl	 SHORT $LL1411@ParseExtra
  00402	8b 8d b4 fd ff
	ff		 mov	 ecx, DWORD PTR _xElement$GSCopy$[ebp]
  00408	8d 45 d8	 lea	 eax, DWORD PTR __k$515971[ebp]
  0040b	50		 push	 eax
  0040c	ff 15 00 00 00
	00		 call	 DWORD PTR __imp_?GetIntAttribute@ioXMLElement@@QBEHPBD@Z
  00412	89 85 b0 fd ff
	ff		 mov	 DWORD PTR _iMax$[ebp], eax

; 123  : 	for (int i = 0; i < iMax ; i++)

  00418	89 9d b8 fd ff
	ff		 mov	 DWORD PTR _i$509321[ebp], ebx
  0041e	3b c3		 cmp	 eax, ebx
  00420	0f 8e 30 01 00
	00		 jle	 $LN307@ParseExtra
$LL309@ParseExtra:

; 124  : 	{
; 125  : 		char szName[MAX_PATH]="";

  00426	68 03 01 00 00	 push	 259			; 00000103H
  0042b	8d 85 c1 fe ff
	ff		 lea	 eax, DWORD PTR _szName$509325[ebp+1]
  00431	53		 push	 ebx
  00432	50		 push	 eax
  00433	88 9d c0 fe ff
	ff		 mov	 BYTE PTR _szName$509325[ebp], bl
  00439	e8 00 00 00 00	 call	 _memset
  0043e	83 c4 0c	 add	 esp, 12			; 0000000cH
  00441	6a 03		 push	 3

; 126  : 		StringCbPrintf_e( szName, sizeof( szName ), "Icon_Name_W_%d", i+1 );

  00443	c7 45 dc a4 8f
	84 84		 mov	 DWORD PTR ___encStr$509329[ebp], -2071687260 ; 84848fa4H
  0044a	c7 45 e0 b2 a2
	8a 87		 mov	 DWORD PTR ___encStr$509329[ebp+4], -2020957518 ; 878aa2b2H
  00451	c7 45 e4 88 b3
	bc b5		 mov	 DWORD PTR ___encStr$509329[ebp+8], -1245924472 ; b5bcb388H
  00458	66 c7 45 e8 c8
	88		 mov	 WORD PTR ___encStr$509329[ebp+12], 35016 ; 000088c8H
  0045e	8d 45 dc	 lea	 eax, DWORD PTR ___encStr$509329[ebp]
  00461	88 5d ea	 mov	 BYTE PTR ___encStr$509329[ebp+14], bl
  00464	59		 pop	 ecx
$LL1422@ParseExtra:
  00465	81 30 ed ec eb
	ea		 xor	 DWORD PTR [eax], -353637139 ; eaebecedH
  0046b	83 c0 04	 add	 eax, 4
  0046e	49		 dec	 ecx
  0046f	75 f4		 jne	 SHORT $LL1422@ParseExtra
  00471	6a 0c		 push	 12			; 0000000cH
  00473	58		 pop	 eax
$LL1419@ParseExtra:
  00474	8b c8		 mov	 ecx, eax
  00476	81 e1 03 00 00
	80		 and	 ecx, -2147483645	; 80000003H
  0047c	79 05		 jns	 SHORT $LN2206@ParseExtra
  0047e	49		 dec	 ecx
  0047f	83 c9 fc	 or	 ecx, -4			; fffffffcH
  00482	41		 inc	 ecx
$LN2206@ParseExtra:
  00483	b2 ed		 mov	 dl, -19			; ffffffedH
  00485	2a d1		 sub	 dl, cl
  00487	30 54 05 dc	 xor	 BYTE PTR ___encStr$509329[ebp+eax], dl
  0048b	40		 inc	 eax
  0048c	83 f8 0e	 cmp	 eax, 14			; 0000000eH
  0048f	7c e3		 jl	 SHORT $LL1419@ParseExtra
  00491	8b 85 b8 fd ff
	ff		 mov	 eax, DWORD PTR _i$509321[ebp]
  00497	40		 inc	 eax
  00498	50		 push	 eax
  00499	89 85 b8 fd ff
	ff		 mov	 DWORD PTR tv13941[ebp], eax
  0049f	8d 45 dc	 lea	 eax, DWORD PTR ___encStr$509329[ebp]
  004a2	50		 push	 eax
  004a3	8d 85 c0 fe ff
	ff		 lea	 eax, DWORD PTR _szName$509325[ebp]
  004a9	68 04 01 00 00	 push	 260			; 00000104H
  004ae	50		 push	 eax
  004af	e8 00 00 00 00	 call	 ?StringCbPrintfA@@YAJPADIPBDZZ ; StringCbPrintfA

; 127  : 		ioHashString szIconName = xElement.GetStringAttribute( szName );

  004b4	8b 8d b4 fd ff
	ff		 mov	 ecx, DWORD PTR _xElement$GSCopy$[ebp]
  004ba	83 c4 10	 add	 esp, 16			; 00000010H
  004bd	8d 85 c0 fe ff
	ff		 lea	 eax, DWORD PTR _szName$509325[ebp]
  004c3	50		 push	 eax
  004c4	ff 15 00 00 00
	00		 call	 DWORD PTR __imp_?GetStringAttribute@ioXMLElement@@QBEPBDPBD@Z
  004ca	50		 push	 eax
  004cb	8d 4d c4	 lea	 ecx, DWORD PTR _szIconName$509478[ebp]
  004ce	ff 15 00 00 00
	00		 call	 DWORD PTR __imp_??0ioHashString@@QAE@PBD@Z

; 128  : 		if( szIconName == "" )

  004d4	8b 45 c4	 mov	 eax, DWORD PTR _szIconName$509478[ebp]
  004d7	c7 45 fc 01 00
	00 00		 mov	 DWORD PTR __$EHRec$[ebp+8], 1
  004de	88 9d ab fd ff
	ff		 mov	 BYTE PTR __t$516069[ebp], bl
  004e4	8d 8d ab fd ff
	ff		 lea	 ecx, DWORD PTR __t$516069[ebp]
$LL2188@ParseExtra:
  004ea	8a 10		 mov	 dl, BYTE PTR [eax]
  004ec	3a 11		 cmp	 dl, BYTE PTR [ecx]
  004ee	75 1a		 jne	 SHORT $LN2189@ParseExtra
  004f0	3a d3		 cmp	 dl, bl
  004f2	74 12		 je	 SHORT $LN2190@ParseExtra
  004f4	8a 50 01	 mov	 dl, BYTE PTR [eax+1]
  004f7	3a 51 01	 cmp	 dl, BYTE PTR [ecx+1]
  004fa	75 0e		 jne	 SHORT $LN2189@ParseExtra
  004fc	83 c0 02	 add	 eax, 2
  004ff	83 c1 02	 add	 ecx, 2
  00502	3a d3		 cmp	 dl, bl
  00504	75 e4		 jne	 SHORT $LL2188@ParseExtra
$LN2190@ParseExtra:
  00506	33 c0		 xor	 eax, eax
  00508	eb 05		 jmp	 SHORT $LN2191@ParseExtra
$LN2189@ParseExtra:
  0050a	1b c0		 sbb	 eax, eax
  0050c	83 d8 ff	 sbb	 eax, -1
$LN2191@ParseExtra:
  0050f	3b c3		 cmp	 eax, ebx
  00511	74 36		 je	 SHORT $LN2138@ParseExtra

; 130  : 		m_vIconListW.push_back( szIconName );

  00513	8d 45 c4	 lea	 eax, DWORD PTR _szIconName$509478[ebp]
  00516	50		 push	 eax
  00517	8d 8e 88 01 00
	00		 lea	 ecx, DWORD PTR [esi+392]
  0051d	e8 00 00 00 00	 call	 ?push_back@?$vector@VioHashString@@V?$allocator@VioHashString@@@std@@@std@@QAEXABVioHashString@@@Z ; std::vector<ioHashString,std::allocator<ioHashString> >::push_back

; 131  : 	}

  00522	83 4d fc ff	 or	 DWORD PTR __$EHRec$[ebp+8], -1
  00526	8d 4d c4	 lea	 ecx, DWORD PTR _szIconName$509478[ebp]
  00529	ff 15 00 00 00
	00		 call	 DWORD PTR __imp_??1ioHashString@@QAE@XZ
  0052f	8b 85 b8 fd ff
	ff		 mov	 eax, DWORD PTR tv13941[ebp]
  00535	89 85 b8 fd ff
	ff		 mov	 DWORD PTR _i$509321[ebp], eax
  0053b	3b 85 b0 fd ff
	ff		 cmp	 eax, DWORD PTR _iMax$[ebp]
  00541	0f 8c df fe ff
	ff		 jl	 $LL309@ParseExtra

; 157  : 		if( szEffect == "" )

  00547	eb 0d		 jmp	 SHORT $LN307@ParseExtra
$LN2138@ParseExtra:

; 129  : 			break;

  00549	83 4d fc ff	 or	 DWORD PTR __$EHRec$[ebp+8], -1
  0054d	8d 4d c4	 lea	 ecx, DWORD PTR _szIconName$509478[ebp]
  00550	ff 15 00 00 00
	00		 call	 DWORD PTR __imp_??1ioHashString@@QAE@XZ
$LN307@ParseExtra:

; 132  : 
; 133  : 
; 134  : 	m_dwRollingEffectTime = xElement.GetIntAttribute_e( "Effect_Gap_Time" );

  00556	6a 03		 push	 3
  00558	c7 45 d8 a8 8a
	8d 8f		 mov	 DWORD PTR __k$516231[ebp], -1886549336 ; 8f8d8aa8H
  0055f	c7 45 dc 8e 98
	b4 ad		 mov	 DWORD PTR __k$516231[ebp+4], -1380673394 ; adb4988eH
  00566	c7 45 e0 8c 9c
	b4 be		 mov	 DWORD PTR __k$516231[ebp+8], -1095459700 ; beb49c8cH
  0056d	8d 45 d8	 lea	 eax, DWORD PTR __k$516231[ebp]
  00570	c7 45 e4 84 81
	8e 00		 mov	 DWORD PTR __k$516231[ebp+12], 9339268 ; 008e8184H
  00577	59		 pop	 ecx
$LL1634@ParseExtra:
  00578	81 30 ed ec eb
	ea		 xor	 DWORD PTR [eax], -353637139 ; eaebecedH
  0057e	83 c0 04	 add	 eax, 4
  00581	49		 dec	 ecx
  00582	75 f4		 jne	 SHORT $LL1634@ParseExtra
  00584	6a 0c		 push	 12			; 0000000cH
  00586	5f		 pop	 edi
$LL1631@ParseExtra:
  00587	8b c7		 mov	 eax, edi
  00589	25 03 00 00 80	 and	 eax, -2147483645	; 80000003H
  0058e	79 05		 jns	 SHORT $LN2207@ParseExtra
  00590	48		 dec	 eax
  00591	83 c8 fc	 or	 eax, -4			; fffffffcH
  00594	40		 inc	 eax
$LN2207@ParseExtra:
  00595	b1 ed		 mov	 cl, -19			; ffffffedH
  00597	2a c8		 sub	 cl, al
  00599	30 4c 3d d8	 xor	 BYTE PTR __k$516231[ebp+edi], cl
  0059d	47		 inc	 edi
  0059e	83 ff 0f	 cmp	 edi, 15			; 0000000fH
  005a1	7c e4		 jl	 SHORT $LL1631@ParseExtra
  005a3	8b 8d b4 fd ff
	ff		 mov	 ecx, DWORD PTR _xElement$GSCopy$[ebp]
  005a9	8d 45 d8	 lea	 eax, DWORD PTR __k$516231[ebp]
  005ac	50		 push	 eax
  005ad	ff 15 00 00 00
	00		 call	 DWORD PTR __imp_?GetIntAttribute@ioXMLElement@@QBEHPBD@Z
  005b3	89 86 ec 01 00
	00		 mov	 DWORD PTR [esi+492], eax

; 135  : 	m_vRollingEffect.clear();

  005b9	8b 86 9c 01 00
	00		 mov	 eax, DWORD PTR [esi+412]
  005bf	8b 8e 98 01 00
	00		 mov	 ecx, DWORD PTR [esi+408]
  005c5	50		 push	 eax
  005c6	51		 push	 ecx
  005c7	8d 85 b8 fd ff
	ff		 lea	 eax, DWORD PTR $T516365[ebp]
  005cd	50		 push	 eax
  005ce	8d 8e 98 01 00
	00		 lea	 ecx, DWORD PTR [esi+408]
  005d4	e8 00 00 00 00	 call	 ?erase@?$vector@VioHashString@@V?$allocator@VioHashString@@@std@@@std@@QAE?AV?$_Vector_iterator@V?$_Vector_val@VioHashString@@V?$allocator@VioHashString@@@std@@@std@@@2@V?$_Vector_const_iterator@V?$_Vector_val@VioHashString@@V?$allocator@VioHashString@@@std@@@std@@@2@0@Z ; std::vector<ioHashString,std::allocator<ioHashString> >::erase
  005d9	6a 04		 push	 4

; 136  : 
; 137  : 	iMax = xElement.GetIntAttribute_e( "Max_Rolling_Effect" );

  005db	c7 45 d8 a0 8d
	93 b5		 mov	 DWORD PTR __k$516411[ebp], -1248621152 ; b5938da0H
  005e2	c7 45 dc bf 83
	87 86		 mov	 DWORD PTR __k$516411[ebp+4], -2037939265 ; 868783bfH
  005e9	c7 45 e0 84 82
	8c b5		 mov	 DWORD PTR __k$516411[ebp+8], -1249082748 ; b58c8284H
  005f0	c7 45 e4 a8 8a
	8d 8f		 mov	 DWORD PTR __k$516411[ebp+12], -1886549336 ; 8f8d8aa8H
  005f7	66 c7 45 e8 8e
	98		 mov	 WORD PTR __k$516411[ebp+16], 39054 ; 0000988eH
  005fd	8d 45 d8	 lea	 eax, DWORD PTR __k$516411[ebp]
  00600	88 5d ea	 mov	 BYTE PTR __k$516411[ebp+18], bl
  00603	59		 pop	 ecx
$LL1758@ParseExtra:
  00604	81 30 ed ec eb
	ea		 xor	 DWORD PTR [eax], -353637139 ; eaebecedH
  0060a	83 c0 04	 add	 eax, 4
  0060d	49		 dec	 ecx
  0060e	75 f4		 jne	 SHORT $LL1758@ParseExtra
  00610	6a 10		 push	 16			; 00000010H
  00612	58		 pop	 eax
$LL1755@ParseExtra:
  00613	8b c8		 mov	 ecx, eax
  00615	81 e1 03 00 00
	80		 and	 ecx, -2147483645	; 80000003H
  0061b	79 05		 jns	 SHORT $LN2208@ParseExtra
  0061d	49		 dec	 ecx
  0061e	83 c9 fc	 or	 ecx, -4			; fffffffcH
  00621	41		 inc	 ecx
$LN2208@ParseExtra:
  00622	b2 ed		 mov	 dl, -19			; ffffffedH
  00624	2a d1		 sub	 dl, cl
  00626	30 54 05 d8	 xor	 BYTE PTR __k$516411[ebp+eax], dl
  0062a	40		 inc	 eax
  0062b	83 f8 12	 cmp	 eax, 18			; 00000012H
  0062e	7c e3		 jl	 SHORT $LL1755@ParseExtra
  00630	8b 8d b4 fd ff
	ff		 mov	 ecx, DWORD PTR _xElement$GSCopy$[ebp]
  00636	8d 45 d8	 lea	 eax, DWORD PTR __k$516411[ebp]
  00639	50		 push	 eax
  0063a	ff 15 00 00 00
	00		 call	 DWORD PTR __imp_?GetIntAttribute@ioXMLElement@@QBEHPBD@Z

; 138  : 	m_vRollingEffect.reserve( iMax );

  00640	50		 push	 eax
  00641	8d 8e 98 01 00
	00		 lea	 ecx, DWORD PTR [esi+408]
  00647	89 85 b0 fd ff
	ff		 mov	 DWORD PTR _iMax$[ebp], eax
  0064d	e8 00 00 00 00	 call	 ?reserve@?$vector@VioHashString@@V?$allocator@VioHashString@@@std@@@std@@QAEXI@Z ; std::vector<ioHashString,std::allocator<ioHashString> >::reserve

; 139  : 	for (int i = 0; i < iMax ; i++)

  00652	89 9d b8 fd ff
	ff		 mov	 DWORD PTR _i$509482[ebp], ebx
  00658	39 9d b0 fd ff
	ff		 cmp	 DWORD PTR _iMax$[ebp], ebx
  0065e	0f 8e 18 01 00
	00		 jle	 $LN204@ParseExtra
$LL206@ParseExtra:

; 140  : 	{
; 141  : 		char szName[MAX_PATH]="";

  00664	68 03 01 00 00	 push	 259			; 00000103H
  00669	8d 85 c1 fe ff
	ff		 lea	 eax, DWORD PTR _szName$509486[ebp+1]
  0066f	53		 push	 ebx
  00670	50		 push	 eax
  00671	88 9d c0 fe ff
	ff		 mov	 BYTE PTR _szName$509486[ebp], bl
  00677	e8 00 00 00 00	 call	 _memset
  0067c	83 c4 0c	 add	 esp, 12			; 0000000cH
  0067f	6a 04		 push	 4

; 142  : 		StringCbPrintf_e( szName, sizeof( szName ), "Rolling_Effect_%d", i+1 );

  00681	c7 45 d8 bf 83
	87 86		 mov	 DWORD PTR ___encStr$509490[ebp], -2037939265 ; 868783bfH
  00688	c7 45 dc 84 82
	8c b5		 mov	 DWORD PTR ___encStr$509490[ebp+4], -1249082748 ; b58c8284H
  0068f	c7 45 e0 a8 8a
	8d 8f		 mov	 DWORD PTR ___encStr$509490[ebp+8], -1886549336 ; 8f8d8aa8H
  00696	c7 45 e4 8e 98
	b4 cf		 mov	 DWORD PTR ___encStr$509490[ebp+12], -810248050 ; cfb4988eH
  0069d	8d 45 d8	 lea	 eax, DWORD PTR ___encStr$509490[ebp]
  006a0	66 c7 45 e8 89
	00		 mov	 WORD PTR ___encStr$509490[ebp+16], 137 ; 00000089H
  006a6	59		 pop	 ecx
$LL1766@ParseExtra:
  006a7	81 30 ed ec eb
	ea		 xor	 DWORD PTR [eax], -353637139 ; eaebecedH
  006ad	83 c0 04	 add	 eax, 4
  006b0	49		 dec	 ecx
  006b1	75 f4		 jne	 SHORT $LL1766@ParseExtra
  006b3	8b 85 b8 fd ff
	ff		 mov	 eax, DWORD PTR _i$509482[ebp]
  006b9	80 75 e8 ed	 xor	 BYTE PTR ___encStr$509490[ebp+16], -19 ; ffffffedH
  006bd	40		 inc	 eax
  006be	50		 push	 eax
  006bf	89 85 b8 fd ff
	ff		 mov	 DWORD PTR tv14118[ebp], eax
  006c5	8d 45 d8	 lea	 eax, DWORD PTR ___encStr$509490[ebp]
  006c8	50		 push	 eax
  006c9	8d 85 c0 fe ff
	ff		 lea	 eax, DWORD PTR _szName$509486[ebp]
  006cf	68 04 01 00 00	 push	 260			; 00000104H
  006d4	50		 push	 eax
  006d5	e8 00 00 00 00	 call	 ?StringCbPrintfA@@YAJPADIPBDZZ ; StringCbPrintfA

; 143  : 		ioHashString szEffect = xElement.GetStringAttribute( szName );

  006da	8b 8d b4 fd ff
	ff		 mov	 ecx, DWORD PTR _xElement$GSCopy$[ebp]
  006e0	83 c4 10	 add	 esp, 16			; 00000010H
  006e3	8d 85 c0 fe ff
	ff		 lea	 eax, DWORD PTR _szName$509486[ebp]
  006e9	50		 push	 eax
  006ea	ff 15 00 00 00
	00		 call	 DWORD PTR __imp_?GetStringAttribute@ioXMLElement@@QBEPBDPBD@Z
  006f0	50		 push	 eax
  006f1	8d 4d c4	 lea	 ecx, DWORD PTR _szEffect$509639[ebp]
  006f4	ff 15 00 00 00
	00		 call	 DWORD PTR __imp_??0ioHashString@@QAE@PBD@Z

; 144  : 		if( szEffect == "" )

  006fa	8b 45 c4	 mov	 eax, DWORD PTR _szEffect$509639[ebp]
  006fd	c7 45 fc 02 00
	00 00		 mov	 DWORD PTR __$EHRec$[ebp+8], 2
  00704	88 9d ab fd ff
	ff		 mov	 BYTE PTR __t$516546[ebp], bl
  0070a	8d 8d ab fd ff
	ff		 lea	 ecx, DWORD PTR __t$516546[ebp]
$LL2192@ParseExtra:
  00710	8a 10		 mov	 dl, BYTE PTR [eax]
  00712	3a 11		 cmp	 dl, BYTE PTR [ecx]
  00714	75 1a		 jne	 SHORT $LN2193@ParseExtra
  00716	3a d3		 cmp	 dl, bl
  00718	74 12		 je	 SHORT $LN2194@ParseExtra
  0071a	8a 50 01	 mov	 dl, BYTE PTR [eax+1]
  0071d	3a 51 01	 cmp	 dl, BYTE PTR [ecx+1]
  00720	75 0e		 jne	 SHORT $LN2193@ParseExtra
  00722	83 c0 02	 add	 eax, 2
  00725	83 c1 02	 add	 ecx, 2
  00728	3a d3		 cmp	 dl, bl
  0072a	75 e4		 jne	 SHORT $LL2192@ParseExtra
$LN2194@ParseExtra:
  0072c	33 c0		 xor	 eax, eax
  0072e	eb 05		 jmp	 SHORT $LN2195@ParseExtra
$LN2193@ParseExtra:
  00730	1b c0		 sbb	 eax, eax
  00732	83 d8 ff	 sbb	 eax, -1
$LN2195@ParseExtra:
  00735	3b c3		 cmp	 eax, ebx
  00737	74 36		 je	 SHORT $LN2139@ParseExtra

; 146  : 		m_vRollingEffect.push_back( szEffect );

  00739	8d 45 c4	 lea	 eax, DWORD PTR _szEffect$509639[ebp]
  0073c	50		 push	 eax
  0073d	8d 8e 98 01 00
	00		 lea	 ecx, DWORD PTR [esi+408]
  00743	e8 00 00 00 00	 call	 ?push_back@?$vector@VioHashString@@V?$allocator@VioHashString@@@std@@@std@@QAEXABVioHashString@@@Z ; std::vector<ioHashString,std::allocator<ioHashString> >::push_back

; 147  : 	}

  00748	83 4d fc ff	 or	 DWORD PTR __$EHRec$[ebp+8], -1
  0074c	8d 4d c4	 lea	 ecx, DWORD PTR _szEffect$509639[ebp]
  0074f	ff 15 00 00 00
	00		 call	 DWORD PTR __imp_??1ioHashString@@QAE@XZ
  00755	8b 85 b8 fd ff
	ff		 mov	 eax, DWORD PTR tv14118[ebp]
  0075b	89 85 b8 fd ff
	ff		 mov	 DWORD PTR _i$509482[ebp], eax
  00761	3b 85 b0 fd ff
	ff		 cmp	 eax, DWORD PTR _iMax$[ebp]
  00767	0f 8c f7 fe ff
	ff		 jl	 $LL206@ParseExtra

; 157  : 		if( szEffect == "" )

  0076d	eb 0d		 jmp	 SHORT $LN204@ParseExtra
$LN2139@ParseExtra:

; 145  : 			break;

  0076f	83 4d fc ff	 or	 DWORD PTR __$EHRec$[ebp+8], -1
  00773	8d 4d c4	 lea	 ecx, DWORD PTR _szEffect$509639[ebp]
  00776	ff 15 00 00 00
	00		 call	 DWORD PTR __imp_??1ioHashString@@QAE@XZ
$LN204@ParseExtra:

; 148  : 
; 149  : 	m_vEndEfffect.clear();

  0077c	81 c6 a8 01 00
	00		 add	 esi, 424		; 000001a8H
  00782	8b ce		 mov	 ecx, esi
  00784	89 b5 b8 fd ff
	ff		 mov	 DWORD PTR tv14137[ebp], esi
  0078a	e8 00 00 00 00	 call	 ?clear@?$vector@VioHashString@@V?$allocator@VioHashString@@@std@@@std@@QAEXXZ ; std::vector<ioHashString,std::allocator<ioHashString> >::clear
  0078f	6a 03		 push	 3

; 150  : 	iMax = xElement.GetIntAttribute_e( "Max_End_Effect" );

  00791	c7 45 dc a0 8d
	93 b5		 mov	 DWORD PTR __k$516671[ebp], -1248621152 ; b5938da0H
  00798	c7 45 e0 a8 82
	8f b5		 mov	 DWORD PTR __k$516671[ebp+4], -1248886104 ; b58f82a8H
  0079f	c7 45 e4 a8 8a
	8d 8f		 mov	 DWORD PTR __k$516671[ebp+8], -1886549336 ; 8f8d8aa8H
  007a6	66 c7 45 e8 8e
	98		 mov	 WORD PTR __k$516671[ebp+12], 39054 ; 0000988eH
  007ac	8d 45 dc	 lea	 eax, DWORD PTR __k$516671[ebp]
  007af	88 5d ea	 mov	 BYTE PTR __k$516671[ebp+14], bl
  007b2	59		 pop	 ecx
$LL1978@ParseExtra:
  007b3	81 30 ed ec eb
	ea		 xor	 DWORD PTR [eax], -353637139 ; eaebecedH
  007b9	83 c0 04	 add	 eax, 4
  007bc	49		 dec	 ecx
  007bd	75 f4		 jne	 SHORT $LL1978@ParseExtra
  007bf	6a 0c		 push	 12			; 0000000cH
  007c1	5f		 pop	 edi
$LL1975@ParseExtra:
  007c2	8b c7		 mov	 eax, edi
  007c4	25 03 00 00 80	 and	 eax, -2147483645	; 80000003H
  007c9	79 05		 jns	 SHORT $LN2209@ParseExtra
  007cb	48		 dec	 eax
  007cc	83 c8 fc	 or	 eax, -4			; fffffffcH
  007cf	40		 inc	 eax
$LN2209@ParseExtra:
  007d0	b1 ed		 mov	 cl, -19			; ffffffedH
  007d2	2a c8		 sub	 cl, al
  007d4	30 4c 3d dc	 xor	 BYTE PTR __k$516671[ebp+edi], cl
  007d8	47		 inc	 edi
  007d9	83 ff 0e	 cmp	 edi, 14			; 0000000eH
  007dc	7c e4		 jl	 SHORT $LL1975@ParseExtra
  007de	8b 8d b4 fd ff
	ff		 mov	 ecx, DWORD PTR _xElement$GSCopy$[ebp]
  007e4	8d 45 dc	 lea	 eax, DWORD PTR __k$516671[ebp]
  007e7	50		 push	 eax
  007e8	ff 15 00 00 00
	00		 call	 DWORD PTR __imp_?GetIntAttribute@ioXMLElement@@QBEHPBD@Z

; 151  : 	m_vEndEfffect.reserve( iMax );

  007ee	50		 push	 eax
  007ef	8b ce		 mov	 ecx, esi
  007f1	89 85 b0 fd ff
	ff		 mov	 DWORD PTR _iMax$[ebp], eax
  007f7	e8 00 00 00 00	 call	 ?reserve@?$vector@VioHashString@@V?$allocator@VioHashString@@@std@@@std@@QAEXI@Z ; std::vector<ioHashString,std::allocator<ioHashString> >::reserve

; 152  : 	for (int i = 0; i < iMax ; i++)

  007fc	33 f6		 xor	 esi, esi
  007fe	39 9d b0 fd ff
	ff		 cmp	 DWORD PTR _iMax$[ebp], ebx
  00804	0f 8e 08 01 00
	00		 jle	 $LN101@ParseExtra
$LN103@ParseExtra:

; 153  : 	{
; 154  : 		char szName[MAX_PATH]="";

  0080a	68 03 01 00 00	 push	 259			; 00000103H
  0080f	8d 85 bd fd ff
	ff		 lea	 eax, DWORD PTR _szName$509649[ebp+1]
  00815	53		 push	 ebx
  00816	50		 push	 eax
  00817	88 9d bc fd ff
	ff		 mov	 BYTE PTR _szName$509649[ebp], bl
  0081d	e8 00 00 00 00	 call	 _memset
  00822	83 c4 0c	 add	 esp, 12			; 0000000cH
  00825	6a 03		 push	 3

; 155  : 		StringCbPrintf_e( szName, sizeof( szName ), "End_Effect_%d", i+1 );

  00827	c7 45 dc a8 82
	8f b5		 mov	 DWORD PTR ___encStr$509653[ebp], -1248886104 ; b58f82a8H
  0082e	c7 45 e0 a8 8a
	8d 8f		 mov	 DWORD PTR ___encStr$509653[ebp+4], -1886549336 ; 8f8d8aa8H
  00835	c7 45 e4 8e 98
	b4 cf		 mov	 DWORD PTR ___encStr$509653[ebp+8], -810248050 ; cfb4988eH
  0083c	8d 45 dc	 lea	 eax, DWORD PTR ___encStr$509653[ebp]
  0083f	66 c7 45 e8 89
	00		 mov	 WORD PTR ___encStr$509653[ebp+12], 137 ; 00000089H
  00845	59		 pop	 ecx
$LL1986@ParseExtra:
  00846	81 30 ed ec eb
	ea		 xor	 DWORD PTR [eax], -353637139 ; eaebecedH
  0084c	83 c0 04	 add	 eax, 4
  0084f	49		 dec	 ecx
  00850	75 f4		 jne	 SHORT $LL1986@ParseExtra
  00852	80 75 e8 ed	 xor	 BYTE PTR ___encStr$509653[ebp+12], -19 ; ffffffedH
  00856	46		 inc	 esi
  00857	56		 push	 esi
  00858	8d 45 dc	 lea	 eax, DWORD PTR ___encStr$509653[ebp]
  0085b	50		 push	 eax
  0085c	8d 85 bc fd ff
	ff		 lea	 eax, DWORD PTR _szName$509649[ebp]
  00862	68 04 01 00 00	 push	 260			; 00000104H
  00867	50		 push	 eax
  00868	e8 00 00 00 00	 call	 ?StringCbPrintfA@@YAJPADIPBDZZ ; StringCbPrintfA

; 156  : 		ioHashString szEffect = xElement.GetStringAttribute( szName );

  0086d	8b 8d b4 fd ff
	ff		 mov	 ecx, DWORD PTR _xElement$GSCopy$[ebp]
  00873	83 c4 10	 add	 esp, 16			; 00000010H
  00876	8d 85 bc fd ff
	ff		 lea	 eax, DWORD PTR _szName$509649[ebp]
  0087c	50		 push	 eax
  0087d	ff 15 00 00 00
	00		 call	 DWORD PTR __imp_?GetStringAttribute@ioXMLElement@@QBEPBDPBD@Z
  00883	50		 push	 eax
  00884	8d 8d 98 fd ff
	ff		 lea	 ecx, DWORD PTR _szEffect$509802[ebp]
  0088a	ff 15 00 00 00
	00		 call	 DWORD PTR __imp_??0ioHashString@@QAE@PBD@Z

; 157  : 		if( szEffect == "" )

  00890	8b 85 98 fd ff
	ff		 mov	 eax, DWORD PTR _szEffect$509802[ebp]
  00896	c7 45 fc 03 00
	00 00		 mov	 DWORD PTR __$EHRec$[ebp+8], 3
  0089d	88 9d ab fd ff
	ff		 mov	 BYTE PTR __t$516794[ebp], bl
  008a3	8d bd ab fd ff
	ff		 lea	 edi, DWORD PTR __t$516794[ebp]
$LL2196@ParseExtra:
  008a9	8a 08		 mov	 cl, BYTE PTR [eax]
  008ab	3a 0f		 cmp	 cl, BYTE PTR [edi]
  008ad	75 1a		 jne	 SHORT $LN2197@ParseExtra
  008af	3a cb		 cmp	 cl, bl
  008b1	74 12		 je	 SHORT $LN2198@ParseExtra
  008b3	8a 48 01	 mov	 cl, BYTE PTR [eax+1]
  008b6	3a 4f 01	 cmp	 cl, BYTE PTR [edi+1]
  008b9	75 0e		 jne	 SHORT $LN2197@ParseExtra
  008bb	83 c0 02	 add	 eax, 2
  008be	83 c7 02	 add	 edi, 2
  008c1	3a cb		 cmp	 cl, bl
  008c3	75 e4		 jne	 SHORT $LL2196@ParseExtra
$LN2198@ParseExtra:
  008c5	33 c0		 xor	 eax, eax
  008c7	eb 05		 jmp	 SHORT $LN2199@ParseExtra
$LN2197@ParseExtra:
  008c9	1b c0		 sbb	 eax, eax
  008cb	83 d8 ff	 sbb	 eax, -1
$LN2199@ParseExtra:
  008ce	3b c3		 cmp	 eax, ebx
  008d0	74 30		 je	 SHORT $LN2140@ParseExtra

; 159  : 		m_vEndEfffect.push_back( szEffect );

  008d2	8b 8d b8 fd ff
	ff		 mov	 ecx, DWORD PTR tv14137[ebp]
  008d8	8d 85 98 fd ff
	ff		 lea	 eax, DWORD PTR _szEffect$509802[ebp]
  008de	50		 push	 eax
  008df	e8 00 00 00 00	 call	 ?push_back@?$vector@VioHashString@@V?$allocator@VioHashString@@@std@@@std@@QAEXABVioHashString@@@Z ; std::vector<ioHashString,std::allocator<ioHashString> >::push_back

; 160  : 	}

  008e4	83 4d fc ff	 or	 DWORD PTR __$EHRec$[ebp+8], -1
  008e8	8d 8d 98 fd ff
	ff		 lea	 ecx, DWORD PTR _szEffect$509802[ebp]
  008ee	ff 15 00 00 00
	00		 call	 DWORD PTR __imp_??1ioHashString@@QAE@XZ
  008f4	3b b5 b0 fd ff
	ff		 cmp	 esi, DWORD PTR _iMax$[ebp]
  008fa	0f 8c 0a ff ff
	ff		 jl	 $LN103@ParseExtra

; 157  : 		if( szEffect == "" )

  00900	eb 10		 jmp	 SHORT $LN101@ParseExtra
$LN2140@ParseExtra:

; 158  : 			break;

  00902	83 4d fc ff	 or	 DWORD PTR __$EHRec$[ebp+8], -1
  00906	8d 8d 98 fd ff
	ff		 lea	 ecx, DWORD PTR _szEffect$509802[ebp]
  0090c	ff 15 00 00 00
	00		 call	 DWORD PTR __imp_??1ioHashString@@QAE@XZ
$LN101@ParseExtra:

; 161  : }

  00912	e8 00 00 00 00	 call	 __EH_epilog3_GS
  00917	c2 04 00	 ret	 4
_TEXT	ENDS
;	COMDAT text$x
text$x	SEGMENT
__unwindfunclet$?ParseExtraInfo@RandomDecoWnd@@UAEXAAVioXMLElement@@@Z$0:
  00000	8d 4d c4	 lea	 ecx, DWORD PTR _szIconName$509310[ebp]
  00003	ff 25 00 00 00
	00		 jmp	 DWORD PTR __imp_??1ioHashString@@QAE@XZ
__unwindfunclet$?ParseExtraInfo@RandomDecoWnd@@UAEXAAVioXMLElement@@@Z$1:
  00009	8d 4d c4	 lea	 ecx, DWORD PTR _szIconName$509478[ebp]
  0000c	ff 25 00 00 00
	00		 jmp	 DWORD PTR __imp_??1ioHashString@@QAE@XZ
__unwindfunclet$?ParseExtraInfo@RandomDecoWnd@@UAEXAAVioXMLElement@@@Z$2:
  00012	8d 4d c4	 lea	 ecx, DWORD PTR _szEffect$509639[ebp]
  00015	ff 25 00 00 00
	00		 jmp	 DWORD PTR __imp_??1ioHashString@@QAE@XZ
__unwindfunclet$?ParseExtraInfo@RandomDecoWnd@@UAEXAAVioXMLElement@@@Z$3:
  0001b	8d 8d 98 fd ff
	ff		 lea	 ecx, DWORD PTR _szEffect$509802[ebp]
  00021	ff 25 00 00 00
	00		 jmp	 DWORD PTR __imp_??1ioHashString@@QAE@XZ
__ehhandler$?ParseExtraInfo@RandomDecoWnd@@UAEXAAVioXMLElement@@@Z:
  00027	8b 54 24 08	 mov	 edx, DWORD PTR [esp+8]
  0002b	8d 42 0c	 lea	 eax, DWORD PTR [edx+12]
  0002e	8b 8a 94 fd ff
	ff		 mov	 ecx, DWORD PTR [edx-620]
  00034	33 c8		 xor	 ecx, eax
  00036	e8 00 00 00 00	 call	 @__security_check_cookie@4
  0003b	8b 4a fc	 mov	 ecx, DWORD PTR [edx-4]
  0003e	33 c8		 xor	 ecx, eax
  00040	e8 00 00 00 00	 call	 @__security_check_cookie@4
  00045	b8 00 00 00 00	 mov	 eax, OFFSET __ehfuncinfo$?ParseExtraInfo@RandomDecoWnd@@UAEXAAVioXMLElement@@@Z
  0004a	e9 00 00 00 00	 jmp	 ___CxxFrameHandler3
text$x	ENDS
?ParseExtraInfo@RandomDecoWnd@@UAEXAAVioXMLElement@@@Z ENDP ; RandomDecoWnd::ParseExtraInfo
; Function compile flags: /Ogsp
;	COMDAT ??_GRandomDecoWnd@@UAEPAXI@Z
_TEXT	SEGMENT
___flags$ = 8						; size = 4
??_GRandomDecoWnd@@UAEPAXI@Z PROC			; RandomDecoWnd::`scalar deleting destructor', COMDAT
; _this$ = ecx
  00000	55		 push	 ebp
  00001	8b ec		 mov	 ebp, esp
  00003	56		 push	 esi
  00004	8b f1		 mov	 esi, ecx
  00006	e8 00 00 00 00	 call	 ??1RandomDecoWnd@@UAE@XZ ; RandomDecoWnd::~RandomDecoWnd
  0000b	f6 45 08 01	 test	 BYTE PTR ___flags$[ebp], 1
  0000f	74 07		 je	 SHORT $LN1@scalar@3
  00011	56		 push	 esi
  00012	e8 00 00 00 00	 call	 ??3@YAXPAX@Z		; operator delete
  00017	59		 pop	 ecx
$LN1@scalar@3:
  00018	8b c6		 mov	 eax, esi
  0001a	5e		 pop	 esi
  0001b	5d		 pop	 ebp
  0001c	c2 04 00	 ret	 4
??_GRandomDecoWnd@@UAEPAXI@Z ENDP			; RandomDecoWnd::`scalar deleting destructor'
_TEXT	ENDS
END
