; Listing generated by Microsoft (R) Optimizing Compiler Version 16.00.30319.01 

	TITLE	D:\Lost Saga For Developer\Youtube\Tutorial\Source\src\LSClient\GUI\RisingGashaponWnd.cpp
	.686P
	.XMM
	include listing.inc
	.model	flat

INCLUDELIB MSVCRT
INCLUDELIB OLDNAMES

PUBLIC	?_EEM_DS@?$deque@UD3DXVECTOR3@@V?$allocator@UD3DXVECTOR3@@@std@@@std@@2HB ; std::deque<D3DXVECTOR3,std::allocator<D3DXVECTOR3> >::_EEM_DS
;	COMDAT ?_EEM_DS@?$deque@UD3DXVECTOR3@@V?$allocator@UD3DXVECTOR3@@@std@@@std@@2HB
CONST	SEGMENT
?_EEM_DS@?$deque@UD3DXVECTOR3@@V?$allocator@UD3DXVECTOR3@@@std@@@std@@2HB DD 01H ; std::deque<D3DXVECTOR3,std::allocator<D3DXVECTOR3> >::_EEM_DS
CONST	ENDS
PUBLIC	?IsEmptyCard@RisingGashaponItemInfoBtn@@QAE_NXZ	; RisingGashaponItemInfoBtn::IsEmptyCard
EXTRN	?IsEmpty@GashaponPresent@@QAE_NXZ:PROC		; GashaponPresent::IsEmpty
; Function compile flags: /Ogsp
; File d:\lost saga for developer\youtube\tutorial\source\src\lsclient\gui\risinggashaponwnd.h
;	COMDAT ?IsEmptyCard@RisingGashaponItemInfoBtn@@QAE_NXZ
_TEXT	SEGMENT
?IsEmptyCard@RisingGashaponItemInfoBtn@@QAE_NXZ PROC	; RisingGashaponItemInfoBtn::IsEmptyCard, COMDAT
; _this$ = ecx

; 96   : 	bool IsEmptyCard(){ return m_GashaponPresent.IsEmpty(); }

  00000	81 c1 14 02 00
	00		 add	 ecx, 532		; 00000214H
  00006	e9 00 00 00 00	 jmp	 ?IsEmpty@GashaponPresent@@QAE_NXZ ; GashaponPresent::IsEmpty
?IsEmptyCard@RisingGashaponItemInfoBtn@@QAE_NXZ ENDP	; RisingGashaponItemInfoBtn::IsEmptyCard
_TEXT	ENDS
PUBLIC	?return5@@YAIXZ					; return5
; Function compile flags: /Ogsp
; File d:\lost saga for developer\youtube\tutorial\source\src\lsclient\stdafx.h
;	COMDAT ?return5@@YAIXZ
_TEXT	SEGMENT
?return5@@YAIXZ PROC					; return5, COMDAT

; 18   : 	__forceinline unsigned int return5() { __asm mov eax, 5 };

  00000	b8 05 00 00 00	 mov	 eax, 5
  00005	c3		 ret	 0
?return5@@YAIXZ ENDP					; return5
_TEXT	ENDS
PUBLIC	?return10@@YAIXZ				; return10
; Function compile flags: /Ogsp
;	COMDAT ?return10@@YAIXZ
_TEXT	SEGMENT
?return10@@YAIXZ PROC					; return10, COMDAT

; 21   : 	__forceinline unsigned int return10() { __asm mov eax, 10 };

  00000	b8 0a 00 00 00	 mov	 eax, 10			; 0000000aH
  00005	c3		 ret	 0
?return10@@YAIXZ ENDP					; return10
_TEXT	ENDS
PUBLIC	?return344@@YAIXZ				; return344
; Function compile flags: /Ogsp
;	COMDAT ?return344@@YAIXZ
_TEXT	SEGMENT
?return344@@YAIXZ PROC					; return344, COMDAT

; 26   : 	__forceinline unsigned int return344() { __asm mov eax, 344 };

  00000	b8 58 01 00 00	 mov	 eax, 344		; 00000158H
  00005	c3		 ret	 0
?return344@@YAIXZ ENDP					; return344
_TEXT	ENDS
PUBLIC	?OnRender@RisingGashaponItemInfoBtn@@MAEXXZ	; RisingGashaponItemInfoBtn::OnRender
EXTRN	__imp_?OnRender@ioButton@@MAEXXZ:PROC
; Function compile flags: /Ogsp
; File d:\lost saga for developer\youtube\tutorial\source\src\lsclient\gui\risinggashaponwnd.cpp
;	COMDAT ?OnRender@RisingGashaponItemInfoBtn@@MAEXXZ
_TEXT	SEGMENT
?OnRender@RisingGashaponItemInfoBtn@@MAEXXZ PROC	; RisingGashaponItemInfoBtn::OnRender, COMDAT
; _this$ = ecx

; 145  : 	ioButton::OnRender();

  00000	ff 25 00 00 00
	00		 jmp	 DWORD PTR __imp_?OnRender@ioButton@@MAEXXZ
?OnRender@RisingGashaponItemInfoBtn@@MAEXXZ ENDP	; RisingGashaponItemInfoBtn::OnRender
_TEXT	ENDS
PUBLIC	??_7bad_alloc@std@@6B@				; std::bad_alloc::`vftable'
PUBLIC	??0bad_alloc@std@@QAE@PBD@Z			; std::bad_alloc::bad_alloc
PUBLIC	??_R4bad_alloc@std@@6B@				; std::bad_alloc::`RTTI Complete Object Locator'
PUBLIC	??_R0?AVbad_alloc@std@@@8			; std::bad_alloc `RTTI Type Descriptor'
PUBLIC	??_R3bad_alloc@std@@8				; std::bad_alloc::`RTTI Class Hierarchy Descriptor'
PUBLIC	??_R2bad_alloc@std@@8				; std::bad_alloc::`RTTI Base Class Array'
PUBLIC	??_R1A@?0A@EA@bad_alloc@std@@8			; std::bad_alloc::`RTTI Base Class Descriptor at (0,-1,0,64)'
PUBLIC	??_R1A@?0A@EA@exception@std@@8			; std::exception::`RTTI Base Class Descriptor at (0,-1,0,64)'
PUBLIC	??_R0?AVexception@std@@@8			; std::exception `RTTI Type Descriptor'
PUBLIC	??_R3exception@std@@8				; std::exception::`RTTI Class Hierarchy Descriptor'
PUBLIC	??_R2exception@std@@8				; std::exception::`RTTI Base Class Array'
EXTRN	__imp_??0exception@std@@QAE@ABQBD@Z:PROC
EXTRN	??_7type_info@@6B@:QWORD			; type_info::`vftable'
EXTRN	??_Ebad_alloc@std@@UAEPAXI@Z:PROC		; std::bad_alloc::`vector deleting destructor'
EXTRN	?what@exception@std@@UBEPBDXZ:PROC		; std::exception::what
;	COMDAT ??_R2exception@std@@8
; File c:\program files (x86)\microsoft visual studio 10.0\vc\include\exception
rdata$r	SEGMENT
??_R2exception@std@@8 DD FLAT:??_R1A@?0A@EA@exception@std@@8 ; std::exception::`RTTI Base Class Array'
rdata$r	ENDS
;	COMDAT ??_R3exception@std@@8
rdata$r	SEGMENT
??_R3exception@std@@8 DD 00H				; std::exception::`RTTI Class Hierarchy Descriptor'
	DD	00H
	DD	01H
	DD	FLAT:??_R2exception@std@@8
rdata$r	ENDS
;	COMDAT ??_R0?AVexception@std@@@8
_DATA	SEGMENT
??_R0?AVexception@std@@@8 DD FLAT:??_7type_info@@6B@	; std::exception `RTTI Type Descriptor'
	DD	00H
	DB	'.?AVexception@std@@', 00H
_DATA	ENDS
;	COMDAT ??_R1A@?0A@EA@exception@std@@8
rdata$r	SEGMENT
??_R1A@?0A@EA@exception@std@@8 DD FLAT:??_R0?AVexception@std@@@8 ; std::exception::`RTTI Base Class Descriptor at (0,-1,0,64)'
	DD	00H
	DD	00H
	DD	0ffffffffH
	DD	00H
	DD	040H
	DD	FLAT:??_R3exception@std@@8
rdata$r	ENDS
;	COMDAT ??_R1A@?0A@EA@bad_alloc@std@@8
rdata$r	SEGMENT
??_R1A@?0A@EA@bad_alloc@std@@8 DD FLAT:??_R0?AVbad_alloc@std@@@8 ; std::bad_alloc::`RTTI Base Class Descriptor at (0,-1,0,64)'
	DD	01H
	DD	00H
	DD	0ffffffffH
	DD	00H
	DD	040H
	DD	FLAT:??_R3bad_alloc@std@@8
rdata$r	ENDS
;	COMDAT ??_R2bad_alloc@std@@8
rdata$r	SEGMENT
??_R2bad_alloc@std@@8 DD FLAT:??_R1A@?0A@EA@bad_alloc@std@@8 ; std::bad_alloc::`RTTI Base Class Array'
	DD	FLAT:??_R1A@?0A@EA@exception@std@@8
rdata$r	ENDS
;	COMDAT ??_R3bad_alloc@std@@8
rdata$r	SEGMENT
??_R3bad_alloc@std@@8 DD 00H				; std::bad_alloc::`RTTI Class Hierarchy Descriptor'
	DD	00H
	DD	02H
	DD	FLAT:??_R2bad_alloc@std@@8
rdata$r	ENDS
;	COMDAT ??_R0?AVbad_alloc@std@@@8
_DATA	SEGMENT
??_R0?AVbad_alloc@std@@@8 DD FLAT:??_7type_info@@6B@	; std::bad_alloc `RTTI Type Descriptor'
	DD	00H
	DB	'.?AVbad_alloc@std@@', 00H
_DATA	ENDS
;	COMDAT ??_R4bad_alloc@std@@6B@
rdata$r	SEGMENT
??_R4bad_alloc@std@@6B@ DD 00H				; std::bad_alloc::`RTTI Complete Object Locator'
	DD	00H
	DD	00H
	DD	FLAT:??_R0?AVbad_alloc@std@@@8
	DD	FLAT:??_R3bad_alloc@std@@8
rdata$r	ENDS
;	COMDAT ??_7bad_alloc@std@@6B@
CONST	SEGMENT
??_7bad_alloc@std@@6B@ DD FLAT:??_R4bad_alloc@std@@6B@	; std::bad_alloc::`vftable'
	DD	FLAT:??_Ebad_alloc@std@@UAEPAXI@Z
	DD	FLAT:?what@exception@std@@UBEPBDXZ
; Function compile flags: /Ogsp
CONST	ENDS
;	COMDAT ??0bad_alloc@std@@QAE@PBD@Z
_TEXT	SEGMENT
__Message$ = 8						; size = 4
??0bad_alloc@std@@QAE@PBD@Z PROC			; std::bad_alloc::bad_alloc, COMDAT
; _this$ = ecx

; 345  : 		{	// construct from message string

  00000	55		 push	 ebp
  00001	8b ec		 mov	 ebp, esp
  00003	56		 push	 esi
  00004	8d 45 08	 lea	 eax, DWORD PTR __Message$[ebp]
  00007	50		 push	 eax
  00008	8b f1		 mov	 esi, ecx
  0000a	ff 15 00 00 00
	00		 call	 DWORD PTR __imp_??0exception@std@@QAE@ABQBD@Z
  00010	c7 06 00 00 00
	00		 mov	 DWORD PTR [esi], OFFSET ??_7bad_alloc@std@@6B@

; 346  : 		}

  00016	8b c6		 mov	 eax, esi
  00018	5e		 pop	 esi
  00019	5d		 pop	 ebp
  0001a	c2 04 00	 ret	 4
??0bad_alloc@std@@QAE@PBD@Z ENDP			; std::bad_alloc::bad_alloc
_TEXT	ENDS
PUBLIC	??1bad_alloc@std@@UAE@XZ			; std::bad_alloc::~bad_alloc
EXTRN	__imp_??1exception@std@@UAE@XZ:PROC
; Function compile flags: /Ogsp
;	COMDAT ??1bad_alloc@std@@UAE@XZ
_TEXT	SEGMENT
??1bad_alloc@std@@UAE@XZ PROC				; std::bad_alloc::~bad_alloc, COMDAT
; _this$ = ecx

; 354  : 		{	// destroy the object

  00000	c7 01 00 00 00
	00		 mov	 DWORD PTR [ecx], OFFSET ??_7bad_alloc@std@@6B@

; 355  : 		}

  00006	ff 25 00 00 00
	00		 jmp	 DWORD PTR __imp_??1exception@std@@UAE@XZ
??1bad_alloc@std@@UAE@XZ ENDP				; std::bad_alloc::~bad_alloc
_TEXT	ENDS
EXTRN	??3@YAXPAX@Z:PROC				; operator delete
; Function compile flags: /Ogsp
;	COMDAT ??_Gbad_alloc@std@@UAEPAXI@Z
_TEXT	SEGMENT
___flags$ = 8						; size = 4
??_Gbad_alloc@std@@UAEPAXI@Z PROC			; std::bad_alloc::`scalar deleting destructor', COMDAT
; _this$ = ecx
  00000	55		 push	 ebp
  00001	8b ec		 mov	 ebp, esp
  00003	56		 push	 esi
  00004	8b f1		 mov	 esi, ecx
  00006	c7 06 00 00 00
	00		 mov	 DWORD PTR [esi], OFFSET ??_7bad_alloc@std@@6B@
  0000c	ff 15 00 00 00
	00		 call	 DWORD PTR __imp_??1exception@std@@UAE@XZ
  00012	f6 45 08 01	 test	 BYTE PTR ___flags$[ebp], 1
  00016	74 07		 je	 SHORT $LN1@scalar
  00018	56		 push	 esi
  00019	e8 00 00 00 00	 call	 ??3@YAXPAX@Z		; operator delete
  0001e	59		 pop	 ecx
$LN1@scalar:
  0001f	8b c6		 mov	 eax, esi
  00021	5e		 pop	 esi
  00022	5d		 pop	 ebp
  00023	c2 04 00	 ret	 4
??_Gbad_alloc@std@@UAEPAXI@Z ENDP			; std::bad_alloc::`scalar deleting destructor'
_TEXT	ENDS
PUBLIC	??2@YAPAXIPAX@Z					; operator new
; Function compile flags: /Ogsp
; File c:\program files (x86)\microsoft visual studio 10.0\vc\include\new
;	COMDAT ??2@YAPAXIPAX@Z
_TEXT	SEGMENT
___formal$ = 8						; size = 4
__Where$ = 12						; size = 4
??2@YAPAXIPAX@Z PROC					; operator new, COMDAT

; 56   : 	{	// construct array with placement at _Where

  00000	55		 push	 ebp
  00001	8b ec		 mov	 ebp, esp

; 57   : 	return (_Where);

  00003	8b 45 0c	 mov	 eax, DWORD PTR __Where$[ebp]

; 58   : 	}

  00006	5d		 pop	 ebp
  00007	c3		 ret	 0
??2@YAPAXIPAX@Z ENDP					; operator new
_TEXT	ENDS
PUBLIC	??3@YAXPAX0@Z					; operator delete
; Function compile flags: /Ogsp
;	COMDAT ??3@YAXPAX0@Z
_TEXT	SEGMENT
___formal$ = 8						; size = 4
___formal$ = 12						; size = 4
??3@YAXPAX0@Z PROC					; operator delete, COMDAT

; 62   : 	}

  00000	c3		 ret	 0
??3@YAXPAX0@Z ENDP					; operator delete
_TEXT	ENDS
PUBLIC	?iwm_create@RisingGashaponItemInfoBtn@@UAEXXZ	; RisingGashaponItemInfoBtn::iwm_create
; Function compile flags: /Ogsp
; File d:\lost saga for developer\youtube\tutorial\source\src\lsclient\gui\risinggashaponwnd.cpp
;	COMDAT ?iwm_create@RisingGashaponItemInfoBtn@@UAEXXZ
_TEXT	SEGMENT
?iwm_create@RisingGashaponItemInfoBtn@@UAEXXZ PROC	; RisingGashaponItemInfoBtn::iwm_create, COMDAT
; _this$ = ecx

; 172  : }

  00000	c3		 ret	 0
?iwm_create@RisingGashaponItemInfoBtn@@UAEXXZ ENDP	; RisingGashaponItemInfoBtn::iwm_create
_TEXT	ENDS
PUBLIC	?iwm_hide@RisingGashaponItemInfoBtn@@UAEXXZ	; RisingGashaponItemInfoBtn::iwm_hide
EXTRN	__imp_?StopSound@ioSoundManager@@QAEXABVioHashString@@K@Z:PROC
EXTRN	__imp_?GetSingleton@ioSoundManager@@SAAAV1@XZ:PROC
EXTRN	__imp_?IsEmpty@ioHashString@@QBE_NXZ:PROC
; Function compile flags: /Ogsp
;	COMDAT ?iwm_hide@RisingGashaponItemInfoBtn@@UAEXXZ
_TEXT	SEGMENT
?iwm_hide@RisingGashaponItemInfoBtn@@UAEXXZ PROC	; RisingGashaponItemInfoBtn::iwm_hide, COMDAT
; _this$ = ecx

; 180  : {

  00000	56		 push	 esi

; 181  : 	if( !m_szSuccessSound.IsEmpty() )

  00001	8d b1 4c 02 00
	00		 lea	 esi, DWORD PTR [ecx+588]
  00007	8b ce		 mov	 ecx, esi
  00009	ff 15 00 00 00
	00		 call	 DWORD PTR __imp_?IsEmpty@ioHashString@@QBE_NXZ
  0000f	84 c0		 test	 al, al
  00011	75 11		 jne	 SHORT $LN1@iwm_hide

; 182  : 		g_SoundMgr.StopSound( m_szSuccessSound, 0 );

  00013	6a 00		 push	 0
  00015	56		 push	 esi
  00016	ff 15 00 00 00
	00		 call	 DWORD PTR __imp_?GetSingleton@ioSoundManager@@SAAAV1@XZ
  0001c	8b c8		 mov	 ecx, eax
  0001e	ff 15 00 00 00
	00		 call	 DWORD PTR __imp_?StopSound@ioSoundManager@@QAEXABVioHashString@@K@Z
$LN1@iwm_hide:
  00024	5e		 pop	 esi

; 183  : }

  00025	c3		 ret	 0
?iwm_hide@RisingGashaponItemInfoBtn@@UAEXXZ ENDP	; RisingGashaponItemInfoBtn::iwm_hide
_TEXT	ENDS
PUBLIC	?SetEmptyCard@RisingGashaponItemInfoBtn@@QAEXXZ	; RisingGashaponItemInfoBtn::SetEmptyCard
EXTRN	__imp_?Clear@ioHashString@@QAEXXZ:PROC
EXTRN	?Clear@GashaponPresent@@QAEXXZ:PROC		; GashaponPresent::Clear
; Function compile flags: /Ogsp
;	COMDAT ?SetEmptyCard@RisingGashaponItemInfoBtn@@QAEXXZ
_TEXT	SEGMENT
?SetEmptyCard@RisingGashaponItemInfoBtn@@QAEXXZ PROC	; RisingGashaponItemInfoBtn::SetEmptyCard, COMDAT
; _this$ = ecx

; 187  : {

  00000	56		 push	 esi
  00001	8b f1		 mov	 esi, ecx
  00003	57		 push	 edi

; 188  : 	m_GashaponPresent.Clear();

  00004	8d 8e 14 02 00
	00		 lea	 ecx, DWORD PTR [esi+532]
  0000a	e8 00 00 00 00	 call	 ?Clear@GashaponPresent@@QAEXXZ ; GashaponPresent::Clear

; 189  : 
; 190  : 	m_bGetCard     = false;
; 191  : 	m_bSelect      = false;
; 192  : 	m_iCurEffectArray          = -1;

  0000f	83 8e 40 02 00
	00 ff		 or	 DWORD PTR [esi+576], -1
  00016	33 c0		 xor	 eax, eax
  00018	6a 02		 push	 2
  0001a	66 89 86 28 02
	00 00		 mov	 WORD PTR [esi+552], ax

; 193  : 	m_dwRollingEffectCheckTime = 0;

  00021	89 86 48 02 00
	00		 mov	 DWORD PTR [esi+584], eax
  00027	81 c6 5c 02 00
	00		 add	 esi, 604		; 0000025cH
  0002d	5f		 pop	 edi
$LL3@SetEmptyCa:

; 194  : 
; 195  : 	for (int i = 0; i < MAX_SPLIT_LINE ; i++)
; 196  : 	{
; 197  : 		m_szTitles[i].Clear();

  0002e	8b ce		 mov	 ecx, esi
  00030	ff 15 00 00 00
	00		 call	 DWORD PTR __imp_?Clear@ioHashString@@QAEXXZ
  00036	83 c6 10	 add	 esi, 16			; 00000010H
  00039	4f		 dec	 edi
  0003a	75 f2		 jne	 SHORT $LL3@SetEmptyCa

; 198  : 	}
; 199  : }

  0003c	5f		 pop	 edi
  0003d	5e		 pop	 esi
  0003e	c3		 ret	 0
?SetEmptyCard@RisingGashaponItemInfoBtn@@QAEXXZ ENDP	; RisingGashaponItemInfoBtn::SetEmptyCard
_TEXT	ENDS
PUBLIC	?SetGetCard@RisingGashaponItemInfoBtn@@QAEX_N@Z	; RisingGashaponItemInfoBtn::SetGetCard
; Function compile flags: /Ogsp
;	COMDAT ?SetGetCard@RisingGashaponItemInfoBtn@@QAEX_N@Z
_TEXT	SEGMENT
_bGetCard$ = 8						; size = 1
?SetGetCard@RisingGashaponItemInfoBtn@@QAEX_N@Z PROC	; RisingGashaponItemInfoBtn::SetGetCard, COMDAT
; _this$ = ecx

; 202  : {

  00000	55		 push	 ebp
  00001	8b ec		 mov	 ebp, esp

; 203  : 	m_bGetCard = bGetCard;

  00003	8a 45 08	 mov	 al, BYTE PTR _bGetCard$[ebp]
  00006	88 81 28 02 00
	00		 mov	 BYTE PTR [ecx+552], al

; 204  : }

  0000c	5d		 pop	 ebp
  0000d	c2 04 00	 ret	 4
?SetGetCard@RisingGashaponItemInfoBtn@@QAEX_N@Z ENDP	; RisingGashaponItemInfoBtn::SetGetCard
_TEXT	ENDS
PUBLIC	?SetSelect@RisingGashaponItemInfoBtn@@QAEX_N@Z	; RisingGashaponItemInfoBtn::SetSelect
; Function compile flags: /Ogsp
;	COMDAT ?SetSelect@RisingGashaponItemInfoBtn@@QAEX_N@Z
_TEXT	SEGMENT
_bSelect$ = 8						; size = 1
?SetSelect@RisingGashaponItemInfoBtn@@QAEX_N@Z PROC	; RisingGashaponItemInfoBtn::SetSelect, COMDAT
; _this$ = ecx

; 207  : {

  00000	55		 push	 ebp
  00001	8b ec		 mov	 ebp, esp

; 208  : 	m_bSelect = bSelect;

  00003	8a 45 08	 mov	 al, BYTE PTR _bSelect$[ebp]
  00006	88 81 29 02 00
	00		 mov	 BYTE PTR [ecx+553], al

; 209  : }

  0000c	5d		 pop	 ebp
  0000d	c2 04 00	 ret	 4
?SetSelect@RisingGashaponItemInfoBtn@@QAEX_N@Z ENDP	; RisingGashaponItemInfoBtn::SetSelect
_TEXT	ENDS
PUBLIC	?SetGetEffect@RisingGashaponItemInfoBtn@@QAEXXZ	; RisingGashaponItemInfoBtn::SetGetEffect
EXTRN	__imp_?GetLoopSec@ioFrameTimer@@QBEKXZ:PROC
EXTRN	__imp_?GetSingleton@ioFrameTimer@@SAAAV1@XZ:PROC
; Function compile flags: /Ogsp
;	COMDAT ?SetGetEffect@RisingGashaponItemInfoBtn@@QAEXXZ
_TEXT	SEGMENT
?SetGetEffect@RisingGashaponItemInfoBtn@@QAEXXZ PROC	; RisingGashaponItemInfoBtn::SetGetEffect, COMDAT
; _this$ = ecx

; 247  : {

  00000	56		 push	 esi
  00001	8b f1		 mov	 esi, ecx

; 248  : 	m_dwRollingEffectCheckTime = FRAMEGETTIME();

  00003	ff 15 00 00 00
	00		 call	 DWORD PTR __imp_?GetSingleton@ioFrameTimer@@SAAAV1@XZ
  00009	8b c8		 mov	 ecx, eax
  0000b	ff 15 00 00 00
	00		 call	 DWORD PTR __imp_?GetLoopSec@ioFrameTimer@@QBEKXZ

; 249  : 	m_iCurEffectArray = -1;
; 250  : 	SAFEDELETE( m_pEffect );

  00011	8b 8e 2c 02 00
	00		 mov	 ecx, DWORD PTR [esi+556]
  00017	83 8e 40 02 00
	00 ff		 or	 DWORD PTR [esi+576], -1
  0001e	89 86 48 02 00
	00		 mov	 DWORD PTR [esi+584], eax
  00024	85 c9		 test	 ecx, ecx
  00026	74 0e		 je	 SHORT $LN1@SetGetEffe
  00028	8b 01		 mov	 eax, DWORD PTR [ecx]
  0002a	6a 01		 push	 1
  0002c	ff 50 40	 call	 DWORD PTR [eax+64]
  0002f	83 a6 2c 02 00
	00 00		 and	 DWORD PTR [esi+556], 0
$LN1@SetGetEffe:
  00036	5e		 pop	 esi

; 251  : }

  00037	c3		 ret	 0
?SetGetEffect@RisingGashaponItemInfoBtn@@QAEXXZ ENDP	; RisingGashaponItemInfoBtn::SetGetEffect
_TEXT	ENDS
PUBLIC	?OnDrawOvered@RisingGashaponItemInfoBtn@@MAEXHH@Z ; RisingGashaponItemInfoBtn::OnDrawOvered
; Function compile flags: /Ogsp
;	COMDAT ?OnDrawOvered@RisingGashaponItemInfoBtn@@MAEXHH@Z
_TEXT	SEGMENT
_iXPos$ = 8						; size = 4
_iYPos$ = 12						; size = 4
?OnDrawOvered@RisingGashaponItemInfoBtn@@MAEXHH@Z PROC	; RisingGashaponItemInfoBtn::OnDrawOvered, COMDAT
; _this$ = ecx

; 268  : {

  00000	55		 push	 ebp
  00001	8b ec		 mov	 ebp, esp

; 269  : 	OnDrawNormal( iXPos, iYPos );

  00003	8b 01		 mov	 eax, DWORD PTR [ecx]

; 270  : }

  00005	5d		 pop	 ebp

; 269  : 	OnDrawNormal( iXPos, iYPos );

  00006	ff a0 30 01 00
	00		 jmp	 DWORD PTR [eax+304]
?OnDrawOvered@RisingGashaponItemInfoBtn@@MAEXHH@Z ENDP	; RisingGashaponItemInfoBtn::OnDrawOvered
_TEXT	ENDS
PUBLIC	?OnDrawPushed@RisingGashaponItemInfoBtn@@MAEXHH@Z ; RisingGashaponItemInfoBtn::OnDrawPushed
; Function compile flags: /Ogsp
;	COMDAT ?OnDrawPushed@RisingGashaponItemInfoBtn@@MAEXHH@Z
_TEXT	SEGMENT
_iXPos$ = 8						; size = 4
_iYPos$ = 12						; size = 4
?OnDrawPushed@RisingGashaponItemInfoBtn@@MAEXHH@Z PROC	; RisingGashaponItemInfoBtn::OnDrawPushed, COMDAT
; _this$ = ecx

; 273  : {

  00000	55		 push	 ebp
  00001	8b ec		 mov	 ebp, esp

; 274  : 	OnDrawNormal( iXPos, iYPos );

  00003	8b 01		 mov	 eax, DWORD PTR [ecx]

; 275  : }

  00005	5d		 pop	 ebp

; 274  : 	OnDrawNormal( iXPos, iYPos );

  00006	ff a0 30 01 00
	00		 jmp	 DWORD PTR [eax+304]
?OnDrawPushed@RisingGashaponItemInfoBtn@@MAEXHH@Z ENDP	; RisingGashaponItemInfoBtn::OnDrawPushed
_TEXT	ENDS
PUBLIC	?OnDrawDisabled@RisingGashaponItemInfoBtn@@MAEXHH@Z ; RisingGashaponItemInfoBtn::OnDrawDisabled
; Function compile flags: /Ogsp
;	COMDAT ?OnDrawDisabled@RisingGashaponItemInfoBtn@@MAEXHH@Z
_TEXT	SEGMENT
_iXPos$ = 8						; size = 4
_iYPos$ = 12						; size = 4
?OnDrawDisabled@RisingGashaponItemInfoBtn@@MAEXHH@Z PROC ; RisingGashaponItemInfoBtn::OnDrawDisabled, COMDAT
; _this$ = ecx

; 278  : {

  00000	55		 push	 ebp
  00001	8b ec		 mov	 ebp, esp

; 279  : 	OnDrawNormal( iXPos, iYPos );

  00003	8b 01		 mov	 eax, DWORD PTR [ecx]

; 280  : }

  00005	5d		 pop	 ebp

; 279  : 	OnDrawNormal( iXPos, iYPos );

  00006	ff a0 30 01 00
	00		 jmp	 DWORD PTR [eax+304]
?OnDrawDisabled@RisingGashaponItemInfoBtn@@MAEXHH@Z ENDP ; RisingGashaponItemInfoBtn::OnDrawDisabled
_TEXT	ENDS
PUBLIC	__real@3fae147b
PUBLIC	?RenderEffect@RisingGashaponItemInfoBtn@@IAEXHHW4UIRenderType@@@Z ; RisingGashaponItemInfoBtn::RenderEffect
EXTRN	__fltused:DWORD
;	COMDAT __real@3fae147b
CONST	SEGMENT
__real@3fae147b DD 03fae147br			; 1.36
; Function compile flags: /Ogsp
CONST	ENDS
;	COMDAT ?RenderEffect@RisingGashaponItemInfoBtn@@IAEXHHW4UIRenderType@@@Z
_TEXT	SEGMENT
_iXPos$ = 8						; size = 4
_iYPos$ = 12						; size = 4
_eType$ = 16						; size = 4
?RenderEffect@RisingGashaponItemInfoBtn@@IAEXHHW4UIRenderType@@@Z PROC ; RisingGashaponItemInfoBtn::RenderEffect, COMDAT
; _this$ = ecx

; 283  : {

  00000	55		 push	 ebp
  00001	8b ec		 mov	 ebp, esp
  00003	56		 push	 esi
  00004	8b f1		 mov	 esi, ecx

; 284  : 	enum 
; 285  : 	{
; 286  : 		X_OFFSET = 35,
; 287  : 		Y_OFFSET = 29,
; 288  : 	};
; 289  : 
; 290  : 	if( !m_pEffect )

  00006	83 be 2c 02 00
	00 00		 cmp	 DWORD PTR [esi+556], 0
  0000d	74 53		 je	 SHORT $LN2@RenderEffe

; 291  : 		return;
; 292  : 
; 293  : 	m_pEffect->SetScale( 1.36f );

  0000f	8b 8e 2c 02 00
	00		 mov	 ecx, DWORD PTR [esi+556]
  00015	f3 0f 10 05 00
	00 00 00	 movss	 xmm0, DWORD PTR __real@3fae147b
  0001d	8b 01		 mov	 eax, DWORD PTR [ecx]
  0001f	51		 push	 ecx
  00020	f3 0f 11 04 24	 movss	 DWORD PTR [esp], xmm0
  00025	ff 50 1c	 call	 DWORD PTR [eax+28]

; 294  : 	m_pEffect->Render( iXPos + X_OFFSET, iYPos + Y_OFFSET, eType, TFO_BILINEAR );

  00028	8b 8e 2c 02 00
	00		 mov	 ecx, DWORD PTR [esi+556]
  0002e	8b 55 0c	 mov	 edx, DWORD PTR _iYPos$[ebp]
  00031	8b 01		 mov	 eax, DWORD PTR [ecx]
  00033	6a 00		 push	 0
  00035	6a 00		 push	 0
  00037	6a 01		 push	 1
  00039	ff 75 10	 push	 DWORD PTR _eType$[ebp]
  0003c	83 c2 1d	 add	 edx, 29			; 0000001dH
  0003f	0f 57 c0	 xorps	 xmm0, xmm0
  00042	f3 0f 2a c2	 cvtsi2ss xmm0, edx
  00046	8b 55 08	 mov	 edx, DWORD PTR _iXPos$[ebp]
  00049	51		 push	 ecx
  0004a	51		 push	 ecx
  0004b	f3 0f 11 44 24
	04		 movss	 DWORD PTR [esp+4], xmm0
  00051	83 c2 23	 add	 edx, 35			; 00000023H
  00054	0f 57 c0	 xorps	 xmm0, xmm0
  00057	f3 0f 2a c2	 cvtsi2ss xmm0, edx
  0005b	f3 0f 11 04 24	 movss	 DWORD PTR [esp], xmm0
  00060	ff 10		 call	 DWORD PTR [eax]
$LN2@RenderEffe:
  00062	5e		 pop	 esi

; 295  : }

  00063	5d		 pop	 ebp
  00064	c2 0c 00	 ret	 12			; 0000000cH
?RenderEffect@RisingGashaponItemInfoBtn@@IAEXHHW4UIRenderType@@@Z ENDP ; RisingGashaponItemInfoBtn::RenderEffect
_TEXT	ENDS
PUBLIC	?length@?$char_traits@D@std@@SAIPBD@Z		; std::char_traits<char>::length
; Function compile flags: /Ogsp
; File c:\program files (x86)\microsoft visual studio 10.0\vc\include\iosfwd
;	COMDAT ?length@?$char_traits@D@std@@SAIPBD@Z
_TEXT	SEGMENT
__First$ = 8						; size = 4
?length@?$char_traits@D@std@@SAIPBD@Z PROC		; std::char_traits<char>::length, COMDAT

; 490  : 		{	// find length of null-terminated string

  00000	55		 push	 ebp
  00001	8b ec		 mov	 ebp, esp

; 491  : 		return (_CSTD strlen(_First));

  00003	8b 45 08	 mov	 eax, DWORD PTR __First$[ebp]
  00006	8d 50 01	 lea	 edx, DWORD PTR [eax+1]
$LL3@length:
  00009	8a 08		 mov	 cl, BYTE PTR [eax]
  0000b	40		 inc	 eax
  0000c	84 c9		 test	 cl, cl
  0000e	75 f9		 jne	 SHORT $LL3@length
  00010	2b c2		 sub	 eax, edx

; 492  : 		}

  00012	5d		 pop	 ebp
  00013	c3		 ret	 0
?length@?$char_traits@D@std@@SAIPBD@Z ENDP		; std::char_traits<char>::length
_TEXT	ENDS
PUBLIC	?copy@?$char_traits@D@std@@SAPADPADPBDI@Z	; std::char_traits<char>::copy
EXTRN	_memcpy:PROC
; Function compile flags: /Ogsp
;	COMDAT ?copy@?$char_traits@D@std@@SAPADPADPBDI@Z
_TEXT	SEGMENT
__First1$ = 8						; size = 4
__First2$ = 12						; size = 4
__Count$ = 16						; size = 4
?copy@?$char_traits@D@std@@SAPADPADPBDI@Z PROC		; std::char_traits<char>::copy, COMDAT

; 496  : 		{	// copy [_First1, _First1 + _Count) to [_First2, ...)

  00000	55		 push	 ebp
  00001	8b ec		 mov	 ebp, esp

; 498  : 		}

  00003	5d		 pop	 ebp

; 497  : 		return ((_Elem *)_CSTD memcpy(_First1, _First2, _Count));

  00004	e9 00 00 00 00	 jmp	 _memcpy
?copy@?$char_traits@D@std@@SAPADPADPBDI@Z ENDP		; std::char_traits<char>::copy
_TEXT	ENDS
PUBLIC	?RenderSelect@RisingGashaponItemInfoBtn@@IAEXHHW4UIRenderType@@@Z ; RisingGashaponItemInfoBtn::RenderSelect
; Function compile flags: /Ogsp
; File d:\lost saga for developer\youtube\tutorial\source\src\lsclient\gui\risinggashaponwnd.cpp
;	COMDAT ?RenderSelect@RisingGashaponItemInfoBtn@@IAEXHHW4UIRenderType@@@Z
_TEXT	SEGMENT
_iXPos$ = 8						; size = 4
_iYPos$ = 12						; size = 4
_eType$ = 16						; size = 4
?RenderSelect@RisingGashaponItemInfoBtn@@IAEXHHW4UIRenderType@@@Z PROC ; RisingGashaponItemInfoBtn::RenderSelect, COMDAT
; _this$ = ecx

; 298  : {

  00000	55		 push	 ebp
  00001	8b ec		 mov	 ebp, esp

; 299  : 	if( !m_bSelect )

  00003	33 d2		 xor	 edx, edx
  00005	38 91 29 02 00
	00		 cmp	 BYTE PTR [ecx+553], dl
  0000b	74 39		 je	 SHORT $LN3@RenderSele

; 300  : 		return;
; 301  : 
; 302  : 	if( !m_pSelect )

  0000d	39 91 fc 01 00
	00		 cmp	 DWORD PTR [ecx+508], edx
  00013	74 31		 je	 SHORT $LN3@RenderSele

; 303  : 		return;
; 304  : 
; 305  : 	m_pSelect->Render( iXPos, iYPos, eType );

  00015	66 0f 6e 45 0c	 movd	 xmm0, DWORD PTR _iYPos$[ebp]
  0001a	8b 81 fc 01 00
	00		 mov	 eax, DWORD PTR [ecx+508]
  00020	56		 push	 esi
  00021	8b 30		 mov	 esi, DWORD PTR [eax]
  00023	52		 push	 edx
  00024	52		 push	 edx
  00025	52		 push	 edx
  00026	ff 75 10	 push	 DWORD PTR _eType$[ebp]
  00029	0f 5b c0	 cvtdq2ps xmm0, xmm0
  0002c	51		 push	 ecx
  0002d	51		 push	 ecx
  0002e	f3 0f 11 44 24
	04		 movss	 DWORD PTR [esp+4], xmm0
  00034	66 0f 6e 45 08	 movd	 xmm0, DWORD PTR _iXPos$[ebp]
  00039	0f 5b c0	 cvtdq2ps xmm0, xmm0
  0003c	8b c8		 mov	 ecx, eax
  0003e	f3 0f 11 04 24	 movss	 DWORD PTR [esp], xmm0
  00043	ff 16		 call	 DWORD PTR [esi]
  00045	5e		 pop	 esi
$LN3@RenderSele:

; 306  : }

  00046	5d		 pop	 ebp
  00047	c2 0c 00	 ret	 12			; 0000000cH
?RenderSelect@RisingGashaponItemInfoBtn@@IAEXHHW4UIRenderType@@@Z ENDP ; RisingGashaponItemInfoBtn::RenderSelect
_TEXT	ENDS
PUBLIC	__real@3f0ccccd
PUBLIC	__real@c0800000
PUBLIC	__real@3f800000
PUBLIC	__real@3f2e147b
PUBLIC	?RenderInfo@RisingGashaponItemInfoBtn@@IAEXHHW4UIRenderType@@@Z ; RisingGashaponItemInfoBtn::RenderInfo
EXTRN	__imp_?PrintText@ioFontManager@@QAAXMMMPBDZZ:PROC
EXTRN	__imp_?c_str@ioHashString@@QBEPBDXZ:PROC
EXTRN	__imp_?SetTextColor@ioFontManager@@QAEXK@Z:PROC
EXTRN	__imp_?SetTextStyle@ioFontManager@@QAEXW4TextStyle@@@Z:PROC
EXTRN	__imp_?SetAlignType@ioFontManager@@QAEXW4TextAlignType@@@Z:PROC
EXTRN	__imp_?SetBkColor@ioFontManager@@QAEXHHH@Z:PROC
EXTRN	__imp_?GetSingleton@ioFontManager@@SAAAV1@XZ:PROC
EXTRN	__imp_?RenderNum@ioUIRenderImage@@QAEXMMHMMW4UIRenderType@@W4TextureFilterOption@@0W4RenerNumerFormatting@1@@Z:PROC
EXTRN	__imp_?GetWidth@ioUIRenderElement@@QBEHXZ:PROC
;	COMDAT __real@3f0ccccd
CONST	SEGMENT
__real@3f0ccccd DD 03f0ccccdr			; 0.55
CONST	ENDS
;	COMDAT __real@c0800000
CONST	SEGMENT
__real@c0800000 DD 0c0800000r			; -4
CONST	ENDS
;	COMDAT __real@3f800000
CONST	SEGMENT
__real@3f800000 DD 03f800000r			; 1
CONST	ENDS
;	COMDAT __real@3f2e147b
CONST	SEGMENT
__real@3f2e147b DD 03f2e147br			; 0.68
; Function compile flags: /Ogsp
CONST	ENDS
;	COMDAT ?RenderInfo@RisingGashaponItemInfoBtn@@IAEXHHW4UIRenderType@@@Z
_TEXT	SEGMENT
tv411 = -12						; size = 4
tv180 = -12						; size = 4
tv543 = -8						; size = 4
_i$513283 = -8						; size = 4
tv545 = -4						; size = 4
tv507 = -4						; size = 4
_iReinforce$513268 = -4					; size = 4
tv363 = 8						; size = 4
_iXPos$ = 8						; size = 4
_iYPos$ = 12						; size = 4
_eType$ = 16						; size = 4
?RenderInfo@RisingGashaponItemInfoBtn@@IAEXHHW4UIRenderType@@@Z PROC ; RisingGashaponItemInfoBtn::RenderInfo, COMDAT
; _this$ = ecx

; 310  : {

  00000	55		 push	 ebp
  00001	8b ec		 mov	 ebp, esp
  00003	83 ec 0c	 sub	 esp, 12			; 0000000cH
  00006	53		 push	 ebx
  00007	57		 push	 edi
  00008	8b f9		 mov	 edi, ecx

; 311  : 	const float ICON_SIZE_SCALE = 0.68f;
; 312  : 	enum 
; 313  : 	{
; 314  : 		X_OFFSET_BACK = 35,
; 315  : 		Y_OFFSET_BACK = 44, 
; 316  : 
; 317  : 		X_OFFSET_ICON = 35,
; 318  : 		Y_OFFSET_ICON = 29,
; 319  : 
; 320  : 		X_OFFSET_ONE_TEXT = 35,
; 321  : 		Y_OFFSET_ONE_TEXT = 66,
; 322  : 
; 323  : 		X_OFFSET_TWO_TEXT = 35,
; 324  : 		Y_OFFSET_TWO_TEXT = 60,
; 325  : 		TWO_TEXT_LINE_GAP = 12,
; 326  : 
; 327  : 		PLUS_SIZE = 14,
; 328  : 		TEXT_SIZE = 20,
; 329  : 		REINFORCE_GAP = -4,
; 330  : 	};
; 331  : 	// back
; 332  : 	if( m_pNormal )

  0000a	33 db		 xor	 ebx, ebx
  0000c	39 9f 80 01 00
	00		 cmp	 DWORD PTR [edi+384], ebx
  00012	74 3a		 je	 SHORT $LN35@RenderInfo

; 333  : 	{
; 334  : 		m_pNormal->Render( iXPos + X_OFFSET_BACK, iYPos + Y_OFFSET_BACK, eType, TFO_BILINEAR );

  00014	8b 4d 0c	 mov	 ecx, DWORD PTR _iYPos$[ebp]
  00017	8b 87 80 01 00
	00		 mov	 eax, DWORD PTR [edi+384]
  0001d	8b 10		 mov	 edx, DWORD PTR [eax]
  0001f	53		 push	 ebx
  00020	53		 push	 ebx
  00021	6a 01		 push	 1
  00023	ff 75 10	 push	 DWORD PTR _eType$[ebp]
  00026	83 c1 2c	 add	 ecx, 44			; 0000002cH
  00029	51		 push	 ecx
  0002a	51		 push	 ecx
  0002b	0f 57 c0	 xorps	 xmm0, xmm0
  0002e	f3 0f 2a c1	 cvtsi2ss xmm0, ecx
  00032	8b 4d 08	 mov	 ecx, DWORD PTR _iXPos$[ebp]
  00035	f3 0f 11 44 24
	04		 movss	 DWORD PTR [esp+4], xmm0
  0003b	83 c1 23	 add	 ecx, 35			; 00000023H
  0003e	0f 57 c0	 xorps	 xmm0, xmm0
  00041	f3 0f 2a c1	 cvtsi2ss xmm0, ecx
  00045	8b c8		 mov	 ecx, eax
  00047	f3 0f 11 04 24	 movss	 DWORD PTR [esp], xmm0
  0004c	ff 12		 call	 DWORD PTR [edx]
$LN35@RenderInfo:

; 335  : 	}
; 336  : 
; 337  : 
; 338  : 	// icon
; 339  : 	if( m_pPresentIcon )

  0004e	56		 push	 esi
  0004f	39 9f 04 02 00
	00		 cmp	 DWORD PTR [edi+516], ebx
  00055	74 53		 je	 SHORT $LN38@RenderInfo

; 340  : 	{
; 341  : 		m_pPresentIcon->SetScale( ICON_SIZE_SCALE );

  00057	8b 8f 04 02 00
	00		 mov	 ecx, DWORD PTR [edi+516]
  0005d	f3 0f 10 05 00
	00 00 00	 movss	 xmm0, DWORD PTR __real@3f2e147b
  00065	8b 01		 mov	 eax, DWORD PTR [ecx]
  00067	51		 push	 ecx
  00068	f3 0f 11 04 24	 movss	 DWORD PTR [esp], xmm0
  0006d	ff 50 1c	 call	 DWORD PTR [eax+28]

; 342  : 		m_pPresentIcon->Render( iXPos + X_OFFSET_ICON, iYPos + Y_OFFSET_ICON, eType, TFO_BILINEAR );

  00070	8b 4d 0c	 mov	 ecx, DWORD PTR _iYPos$[ebp]
  00073	8b b7 04 02 00
	00		 mov	 esi, DWORD PTR [edi+516]
  00079	8b 06		 mov	 eax, DWORD PTR [esi]
  0007b	53		 push	 ebx
  0007c	53		 push	 ebx
  0007d	6a 01		 push	 1
  0007f	ff 75 10	 push	 DWORD PTR _eType$[ebp]
  00082	83 c1 1d	 add	 ecx, 29			; 0000001dH
  00085	51		 push	 ecx
  00086	51		 push	 ecx
  00087	0f 57 c0	 xorps	 xmm0, xmm0
  0008a	f3 0f 2a c1	 cvtsi2ss xmm0, ecx
  0008e	8b 4d 08	 mov	 ecx, DWORD PTR _iXPos$[ebp]
  00091	f3 0f 11 44 24
	04		 movss	 DWORD PTR [esp+4], xmm0
  00097	83 c1 23	 add	 ecx, 35			; 00000023H
  0009a	0f 57 c0	 xorps	 xmm0, xmm0
  0009d	f3 0f 2a c1	 cvtsi2ss xmm0, ecx
  000a1	8b ce		 mov	 ecx, esi
  000a3	f3 0f 11 04 24	 movss	 DWORD PTR [esp], xmm0
  000a8	ff 10		 call	 DWORD PTR [eax]
$LN38@RenderInfo:

; 343  : 	}
; 344  : 	// 강화수치 표시
; 345  : 	if( m_pPlus && m_pNum && m_GashaponPresent.m_iValue2 > PRESENT_EXTRAITEM_DIVISION_2 )

  000aa	8b 8f 0c 02 00
	00		 mov	 ecx, DWORD PTR [edi+524]
  000b0	3b cb		 cmp	 ecx, ebx
  000b2	0f 84 d4 00 00
	00		 je	 $LN22@RenderInfo
  000b8	39 9f 08 02 00
	00		 cmp	 DWORD PTR [edi+520], ebx
  000be	0f 84 c8 00 00
	00		 je	 $LN22@RenderInfo
  000c4	8b 87 1c 02 00
	00		 mov	 eax, DWORD PTR [edi+540]
  000ca	be 10 27 00 00	 mov	 esi, 10000		; 00002710H
  000cf	3b c6		 cmp	 eax, esi
  000d1	0f 8e b5 00 00
	00		 jle	 $LN22@RenderInfo

; 346  : 	{
; 347  : 		int iReinforce = m_GashaponPresent.m_iValue2 / PRESENT_EXTRAITEM_DIVISION_2;   // /10000은 선물 value2의 장비 성장값과 동일

  000d7	99		 cdq
  000d8	f7 fe		 idiv	 esi
  000da	89 45 fc	 mov	 DWORD PTR _iReinforce$513268[ebp], eax

; 348  : 		int iCurPos = 0;
; 349  : 		int iDefaultPos = iXPos;
; 350  : 
; 351  : 		int iNewXPos = iXPos + m_pPlus->GetWidth() / 2;

  000dd	ff 15 00 00 00
	00		 call	 DWORD PTR __imp_?GetWidth@ioUIRenderElement@@QBEHXZ
  000e3	99		 cdq
  000e4	2b c2		 sub	 eax, edx
  000e6	8b c8		 mov	 ecx, eax
  000e8	d1 f9		 sar	 ecx, 1
  000ea	03 4d 08	 add	 ecx, DWORD PTR _iXPos$[ebp]

; 352  : 
; 353  : 		int iTotalSize = PLUS_SIZE;      
; 354  : 		if( iReinforce < 10 )

  000ed	83 7d fc 0a	 cmp	 DWORD PTR _iReinforce$513268[ebp], 10 ; 0000000aH
  000f1	7d 05		 jge	 SHORT $LN21@RenderInfo

; 355  : 			iTotalSize += TEXT_SIZE + REINFORCE_GAP;

  000f3	6a 1e		 push	 30			; 0000001eH
  000f5	58		 pop	 eax
  000f6	eb 10		 jmp	 SHORT $LN19@RenderInfo
$LN21@RenderInfo:

; 356  : 		else if( iReinforce < 100 )

  000f8	33 c0		 xor	 eax, eax
  000fa	83 7d fc 64	 cmp	 DWORD PTR _iReinforce$513268[ebp], 100 ; 00000064H
  000fe	0f 9d c0	 setge	 al
  00101	48		 dec	 eax
  00102	83 e0 f0	 and	 eax, -16		; fffffff0H
  00105	83 c0 3e	 add	 eax, 62			; 0000003eH
$LN19@RenderInfo:

; 357  : 			iTotalSize += (TEXT_SIZE + REINFORCE_GAP) * 2;
; 358  : 		else
; 359  : 			iTotalSize += (TEXT_SIZE + REINFORCE_GAP) * 3;
; 360  : 
; 361  : 		iCurPos = iNewXPos - (iTotalSize / 2);
; 362  : 
; 363  : 		m_pPlus->Render( iCurPos, iYPos );

  00108	66 0f 6e 45 0c	 movd	 xmm0, DWORD PTR _iYPos$[ebp]
  0010d	99		 cdq
  0010e	53		 push	 ebx
  0010f	2b c2		 sub	 eax, edx
  00111	53		 push	 ebx
  00112	d1 f8		 sar	 eax, 1
  00114	2b c8		 sub	 ecx, eax
  00116	53		 push	 ebx
  00117	8b f1		 mov	 esi, ecx
  00119	8b 8f 0c 02 00
	00		 mov	 ecx, DWORD PTR [edi+524]
  0011f	8b 01		 mov	 eax, DWORD PTR [ecx]
  00121	53		 push	 ebx
  00122	0f 5b c0	 cvtdq2ps xmm0, xmm0
  00125	51		 push	 ecx
  00126	51		 push	 ecx
  00127	f3 0f 11 44 24
	04		 movss	 DWORD PTR [esp+4], xmm0
  0012d	f3 0f 11 45 f4	 movss	 DWORD PTR tv411[ebp], xmm0
  00132	0f 57 c0	 xorps	 xmm0, xmm0
  00135	f3 0f 2a c6	 cvtsi2ss xmm0, esi
  00139	f3 0f 11 04 24	 movss	 DWORD PTR [esp], xmm0
  0013e	ff 10		 call	 DWORD PTR [eax]

; 364  : 		m_pNum->RenderNum( iCurPos + ( PLUS_SIZE + REINFORCE_GAP ) , iYPos, iReinforce, REINFORCE_GAP);

  00140	f3 0f 10 05 00
	00 00 00	 movss	 xmm0, DWORD PTR __real@3f800000
  00148	53		 push	 ebx
  00149	53		 push	 ebx
  0014a	53		 push	 ebx
  0014b	53		 push	 ebx
  0014c	51		 push	 ecx
  0014d	51		 push	 ecx
  0014e	f3 0f 11 44 24
	04		 movss	 DWORD PTR [esp+4], xmm0
  00154	f3 0f 10 05 00
	00 00 00	 movss	 xmm0, DWORD PTR __real@c0800000
  0015c	f3 0f 11 04 24	 movss	 DWORD PTR [esp], xmm0
  00161	ff 75 fc	 push	 DWORD PTR _iReinforce$513268[ebp]
  00164	f3 0f 10 45 f4	 movss	 xmm0, DWORD PTR tv411[ebp]
  00169	51		 push	 ecx
  0016a	51		 push	 ecx
  0016b	8b 8f 08 02 00
	00		 mov	 ecx, DWORD PTR [edi+520]
  00171	f3 0f 11 44 24
	04		 movss	 DWORD PTR [esp+4], xmm0
  00177	83 c6 0a	 add	 esi, 10			; 0000000aH
  0017a	0f 57 c0	 xorps	 xmm0, xmm0
  0017d	f3 0f 2a c6	 cvtsi2ss xmm0, esi
  00181	f3 0f 11 04 24	 movss	 DWORD PTR [esp], xmm0
  00186	ff 15 00 00 00
	00		 call	 DWORD PTR __imp_?RenderNum@ioUIRenderImage@@QAEXMMHMMW4UIRenderType@@W4TextureFilterOption@@0W4RenerNumerFormatting@1@@Z
$LN22@RenderInfo:

; 365  : 	}
; 366  : 
; 367  : 
; 368  : 	// text
; 369  : 	g_FontMgr.SetBkColor( 0, 0, 0 );

  0018c	8b 35 00 00 00
	00		 mov	 esi, DWORD PTR __imp_?GetSingleton@ioFontManager@@SAAAV1@XZ
  00192	53		 push	 ebx
  00193	53		 push	 ebx
  00194	53		 push	 ebx
  00195	ff d6		 call	 esi
  00197	8b c8		 mov	 ecx, eax
  00199	ff 15 00 00 00
	00		 call	 DWORD PTR __imp_?SetBkColor@ioFontManager@@QAEXHHH@Z

; 370  : 	g_FontMgr.SetAlignType( TAT_CENTER );

  0019f	6a 01		 push	 1
  001a1	ff d6		 call	 esi
  001a3	8b c8		 mov	 ecx, eax
  001a5	ff 15 00 00 00
	00		 call	 DWORD PTR __imp_?SetAlignType@ioFontManager@@QAEXW4TextAlignType@@@Z

; 371  : 	g_FontMgr.SetTextStyle( TS_NORMAL );

  001ab	53		 push	 ebx
  001ac	ff d6		 call	 esi
  001ae	8b c8		 mov	 ecx, eax
  001b0	ff 15 00 00 00
	00		 call	 DWORD PTR __imp_?SetTextStyle@ioFontManager@@QAEXW4TextStyle@@@Z

; 372  : 
; 373  : 	if( eType == UI_RENDER_NORMAL )

  001b6	39 5d 10	 cmp	 DWORD PTR _eType$[ebp], ebx
  001b9	75 07		 jne	 SHORT $LN17@RenderInfo

; 374  : 	{
; 375  : 		g_FontMgr.SetTextColor( TCT_DEFAULT_DARKGRAY );

  001bb	68 3a 3a 3a ff	 push	 -12961222		; ff3a3a3aH
  001c0	eb 0b		 jmp	 SHORT $LN39@RenderInfo
$LN17@RenderInfo:

; 376  : 	}
; 377  : 	else if( eType == UI_RENDER_GRAY )

  001c2	83 7d 10 02	 cmp	 DWORD PTR _eType$[ebp], 2
  001c6	75 0f		 jne	 SHORT $LN15@RenderInfo

; 378  : 	{
; 379  : 		g_FontMgr.SetTextColor( TCT_DEFAULT_LIGHTGRAY );

  001c8	68 a7 a7 a7 ff	 push	 -5789785		; ffa7a7a7H
$LN39@RenderInfo:
  001cd	ff d6		 call	 esi
  001cf	8b c8		 mov	 ecx, eax
  001d1	ff 15 00 00 00
	00		 call	 DWORD PTR __imp_?SetTextColor@ioFontManager@@QAEXK@Z
$LN15@RenderInfo:

; 380  : 	}
; 381  : 
; 382  : 	bool bTwoLines = true;
; 383  : 	for (int i = 0; i < MAX_SPLIT_LINE ; i++)

  001d7	8d 87 5c 02 00
	00		 lea	 eax, DWORD PTR [edi+604]
  001dd	89 5d f8	 mov	 DWORD PTR _i$513283[ebp], ebx
  001e0	89 45 fc	 mov	 DWORD PTR tv507[ebp], eax
$LL36@RenderInfo:

; 384  : 	{
; 385  : 		if( m_szTitles[i].IsEmpty() )

  001e3	8b 4d fc	 mov	 ecx, DWORD PTR tv507[ebp]
  001e6	ff 15 00 00 00
	00		 call	 DWORD PTR __imp_?IsEmpty@ioHashString@@QBE_NXZ
  001ec	84 c0		 test	 al, al
  001ee	0f 85 86 00 00
	00		 jne	 $LN10@RenderInfo

; 380  : 	}
; 381  : 
; 382  : 	bool bTwoLines = true;
; 383  : 	for (int i = 0; i < MAX_SPLIT_LINE ; i++)

  001f4	ff 45 f8	 inc	 DWORD PTR _i$513283[ebp]
  001f7	83 45 fc 10	 add	 DWORD PTR tv507[ebp], 16 ; 00000010H
  001fb	83 7d f8 02	 cmp	 DWORD PTR _i$513283[ebp], 2
  001ff	7c e2		 jl	 SHORT $LL36@RenderInfo
  00201	8b 45 08	 mov	 eax, DWORD PTR _iXPos$[ebp]
  00204	83 c0 23	 add	 eax, 35			; 00000023H

; 397  : 		}
; 398  : 	}
; 399  : 	else

  00207	0f 57 c0	 xorps	 xmm0, xmm0
  0020a	f3 0f 2a c0	 cvtsi2ss xmm0, eax
  0020e	8b 45 0c	 mov	 eax, DWORD PTR _iYPos$[ebp]
  00211	83 c0 3c	 add	 eax, 60			; 0000003cH
  00214	89 45 f8	 mov	 DWORD PTR tv543[ebp], eax
  00217	8d 87 5c 02 00
	00		 lea	 eax, DWORD PTR [edi+604]
  0021d	f3 0f 11 45 08	 movss	 DWORD PTR tv363[ebp], xmm0
  00222	89 45 fc	 mov	 DWORD PTR tv545[ebp], eax
  00225	c7 45 f4 02 00
	00 00		 mov	 DWORD PTR tv180[ebp], 2
$LL37@RenderInfo:

; 386  : 		{
; 387  : 			bTwoLines = false;
; 388  : 			break;
; 389  : 		}
; 390  : 	}
; 391  : 
; 392  : 	if( bTwoLines )
; 393  : 	{
; 394  : 		for (int i = 0; i < MAX_SPLIT_LINE ; i++)
; 395  : 		{
; 396  : 			g_FontMgr.PrintText( iXPos + X_OFFSET_TWO_TEXT, iYPos + Y_OFFSET_TWO_TEXT + ( TWO_TEXT_LINE_GAP*i), FONT_SIZE_11, m_szTitles[i].c_str() );

  0022c	8b 4d fc	 mov	 ecx, DWORD PTR tv545[ebp]
  0022f	ff 15 00 00 00
	00		 call	 DWORD PTR __imp_?c_str@ioHashString@@QBEPBDXZ
  00235	f3 0f 10 05 00
	00 00 00	 movss	 xmm0, DWORD PTR __real@3f0ccccd
  0023d	50		 push	 eax
  0023e	83 ec 0c	 sub	 esp, 12			; 0000000cH
  00241	f3 0f 11 44 24
	08		 movss	 DWORD PTR [esp+8], xmm0
  00247	66 0f 6e 45 f8	 movd	 xmm0, DWORD PTR tv543[ebp]
  0024c	0f 5b c0	 cvtdq2ps xmm0, xmm0
  0024f	f3 0f 11 44 24
	04		 movss	 DWORD PTR [esp+4], xmm0
  00255	f3 0f 10 45 08	 movss	 xmm0, DWORD PTR tv363[ebp]
  0025a	f3 0f 11 04 24	 movss	 DWORD PTR [esp], xmm0
  0025f	ff d6		 call	 esi
  00261	50		 push	 eax
  00262	ff 15 00 00 00
	00		 call	 DWORD PTR __imp_?PrintText@ioFontManager@@QAAXMMMPBDZZ
  00268	83 45 f8 0c	 add	 DWORD PTR tv543[ebp], 12 ; 0000000cH
  0026c	83 45 fc 10	 add	 DWORD PTR tv545[ebp], 16 ; 00000010H
  00270	83 c4 14	 add	 esp, 20			; 00000014H
  00273	ff 4d f4	 dec	 DWORD PTR tv180[ebp]
  00276	75 b4		 jne	 SHORT $LL37@RenderInfo

; 397  : 		}
; 398  : 	}
; 399  : 	else

  00278	eb 59		 jmp	 SHORT $LN3@RenderInfo
$LN10@RenderInfo:
  0027a	8b 45 08	 mov	 eax, DWORD PTR _iXPos$[ebp]
  0027d	83 c0 23	 add	 eax, 35			; 00000023H
  00280	0f 57 c0	 xorps	 xmm0, xmm0
  00283	f3 0f 2a c0	 cvtsi2ss xmm0, eax

; 400  : 	{
; 401  : 		for (int i = 0; i < MAX_SPLIT_LINE-1 ; i++)
; 402  : 		{
; 403  : 			g_FontMgr.PrintText( iXPos + X_OFFSET_ONE_TEXT, iYPos + Y_OFFSET_ONE_TEXT, FONT_SIZE_11, m_szTitles[i].c_str() );

  00287	8d 8f 5c 02 00
	00		 lea	 ecx, DWORD PTR [edi+604]
  0028d	f3 0f 11 45 08	 movss	 DWORD PTR tv363[ebp], xmm0
  00292	ff 15 00 00 00
	00		 call	 DWORD PTR __imp_?c_str@ioHashString@@QBEPBDXZ
  00298	f3 0f 10 05 00
	00 00 00	 movss	 xmm0, DWORD PTR __real@3f0ccccd
  002a0	50		 push	 eax
  002a1	8b 45 0c	 mov	 eax, DWORD PTR _iYPos$[ebp]
  002a4	83 ec 0c	 sub	 esp, 12			; 0000000cH
  002a7	f3 0f 11 44 24
	08		 movss	 DWORD PTR [esp+8], xmm0
  002ad	83 c0 42	 add	 eax, 66			; 00000042H
  002b0	0f 57 c0	 xorps	 xmm0, xmm0
  002b3	f3 0f 2a c0	 cvtsi2ss xmm0, eax
  002b7	f3 0f 11 44 24
	04		 movss	 DWORD PTR [esp+4], xmm0
  002bd	f3 0f 10 45 08	 movss	 xmm0, DWORD PTR tv363[ebp]
  002c2	f3 0f 11 04 24	 movss	 DWORD PTR [esp], xmm0
  002c7	ff d6		 call	 esi
  002c9	50		 push	 eax
  002ca	ff 15 00 00 00
	00		 call	 DWORD PTR __imp_?PrintText@ioFontManager@@QAAXMMMPBDZZ
  002d0	83 c4 14	 add	 esp, 20			; 00000014H
$LN3@RenderInfo:

; 404  : 		}
; 405  : 	}
; 406  : 
; 407  : 	if(m_bGetCard)

  002d3	5e		 pop	 esi
  002d4	38 9f 28 02 00
	00		 cmp	 BYTE PTR [edi+552], bl
  002da	74 37		 je	 SHORT $LN1@RenderInfo

; 408  : 	{
; 409  : 		if(m_pGain)

  002dc	39 9f 10 02 00
	00		 cmp	 DWORD PTR [edi+528], ebx
  002e2	74 2f		 je	 SHORT $LN1@RenderInfo

; 410  : 		{
; 411  : 			m_pGain->Render(iXPos + X_OFFSET_ICON, iYPos + Y_OFFSET_ICON, eType);

  002e4	8b 8f 10 02 00
	00		 mov	 ecx, DWORD PTR [edi+528]
  002ea	8b 55 0c	 mov	 edx, DWORD PTR _iYPos$[ebp]
  002ed	8b 01		 mov	 eax, DWORD PTR [ecx]
  002ef	53		 push	 ebx
  002f0	53		 push	 ebx
  002f1	53		 push	 ebx
  002f2	ff 75 10	 push	 DWORD PTR _eType$[ebp]
  002f5	83 c2 1d	 add	 edx, 29			; 0000001dH
  002f8	51		 push	 ecx
  002f9	0f 57 c0	 xorps	 xmm0, xmm0
  002fc	51		 push	 ecx
  002fd	f3 0f 2a c2	 cvtsi2ss xmm0, edx
  00301	f3 0f 11 44 24
	04		 movss	 DWORD PTR [esp+4], xmm0
  00307	f3 0f 10 45 08	 movss	 xmm0, DWORD PTR tv363[ebp]
  0030c	f3 0f 11 04 24	 movss	 DWORD PTR [esp], xmm0
  00311	ff 10		 call	 DWORD PTR [eax]
$LN1@RenderInfo:
  00313	5f		 pop	 edi
  00314	5b		 pop	 ebx

; 412  : 		}
; 413  : 	}
; 414  : 
; 415  : 
; 416  : }

  00315	c9		 leave
  00316	c2 0c 00	 ret	 12			; 0000000cH
?RenderInfo@RisingGashaponItemInfoBtn@@IAEXHHW4UIRenderType@@@Z ENDP ; RisingGashaponItemInfoBtn::RenderInfo
_TEXT	ENDS
PUBLIC	?move@?$char_traits@D@std@@SAPADPADPBDI@Z	; std::char_traits<char>::move
EXTRN	__imp__memmove:PROC
; Function compile flags: /Ogsp
; File c:\program files (x86)\microsoft visual studio 10.0\vc\include\iosfwd
;	COMDAT ?move@?$char_traits@D@std@@SAPADPADPBDI@Z
_TEXT	SEGMENT
__First1$ = 8						; size = 4
__First2$ = 12						; size = 4
__Count$ = 16						; size = 4
?move@?$char_traits@D@std@@SAPADPADPBDI@Z PROC		; std::char_traits<char>::move, COMDAT

; 516  : 		{	// copy [_First1, _First1 + _Count) to [_First2, ...)

  00000	55		 push	 ebp
  00001	8b ec		 mov	 ebp, esp

; 518  : 		}

  00003	5d		 pop	 ebp

; 517  : 		return ((_Elem *)_CSTD memmove(_First1, _First2, _Count));

  00004	ff 25 00 00 00
	00		 jmp	 DWORD PTR __imp__memmove
?move@?$char_traits@D@std@@SAPADPADPBDI@Z ENDP		; std::char_traits<char>::move
_TEXT	ENDS
PUBLIC	?assign@?$char_traits@D@std@@SAXAADABD@Z	; std::char_traits<char>::assign
; Function compile flags: /Ogsp
;	COMDAT ?assign@?$char_traits@D@std@@SAXAADABD@Z
_TEXT	SEGMENT
__Left$ = 8						; size = 4
__Right$ = 12						; size = 4
?assign@?$char_traits@D@std@@SAXAADABD@Z PROC		; std::char_traits<char>::assign, COMDAT

; 526  : 		{	// assign an element

  00000	55		 push	 ebp
  00001	8b ec		 mov	 ebp, esp

; 527  : 		_Left = _Right;

  00003	8b 45 0c	 mov	 eax, DWORD PTR __Right$[ebp]
  00006	8a 00		 mov	 al, BYTE PTR [eax]
  00008	8b 4d 08	 mov	 ecx, DWORD PTR __Left$[ebp]
  0000b	88 01		 mov	 BYTE PTR [ecx], al

; 528  : 		}

  0000d	5d		 pop	 ebp
  0000e	c3		 ret	 0
?assign@?$char_traits@D@std@@SAXAADABD@Z ENDP		; std::char_traits<char>::assign
_TEXT	ENDS
PUBLIC	?RenderEmpty@RisingGashaponItemInfoBtn@@IAEXHHW4UIRenderType@@@Z ; RisingGashaponItemInfoBtn::RenderEmpty
; Function compile flags: /Ogsp
; File d:\lost saga for developer\youtube\tutorial\source\src\lsclient\gui\risinggashaponwnd.cpp
;	COMDAT ?RenderEmpty@RisingGashaponItemInfoBtn@@IAEXHHW4UIRenderType@@@Z
_TEXT	SEGMENT
_iXPos$ = 8						; size = 4
_iYPos$ = 12						; size = 4
_eType$ = 16						; size = 4
?RenderEmpty@RisingGashaponItemInfoBtn@@IAEXHHW4UIRenderType@@@Z PROC ; RisingGashaponItemInfoBtn::RenderEmpty, COMDAT
; _this$ = ecx

; 419  : {

  00000	55		 push	 ebp
  00001	8b ec		 mov	 ebp, esp

; 420  : 	if( m_pEmpty )

  00003	8d 81 00 02 00
	00		 lea	 eax, DWORD PTR [ecx+512]
  00009	33 c9		 xor	 ecx, ecx
  0000b	39 08		 cmp	 DWORD PTR [eax], ecx
  0000d	74 2c		 je	 SHORT $LN1@RenderEmpt

; 421  : 		m_pEmpty->Render( iXPos, iYPos, eType, TFO_BILINEAR );

  0000f	66 0f 6e 45 0c	 movd	 xmm0, DWORD PTR _iYPos$[ebp]
  00014	8b 00		 mov	 eax, DWORD PTR [eax]
  00016	8b 10		 mov	 edx, DWORD PTR [eax]
  00018	51		 push	 ecx
  00019	51		 push	 ecx
  0001a	6a 01		 push	 1
  0001c	ff 75 10	 push	 DWORD PTR _eType$[ebp]
  0001f	0f 5b c0	 cvtdq2ps xmm0, xmm0
  00022	51		 push	 ecx
  00023	51		 push	 ecx
  00024	f3 0f 11 44 24
	04		 movss	 DWORD PTR [esp+4], xmm0
  0002a	66 0f 6e 45 08	 movd	 xmm0, DWORD PTR _iXPos$[ebp]
  0002f	0f 5b c0	 cvtdq2ps xmm0, xmm0
  00032	8b c8		 mov	 ecx, eax
  00034	f3 0f 11 04 24	 movss	 DWORD PTR [esp], xmm0
  00039	ff 12		 call	 DWORD PTR [edx]
$LN1@RenderEmpt:

; 422  : }

  0003b	5d		 pop	 ebp
  0003c	c2 0c 00	 ret	 12			; 0000000cH
?RenderEmpty@RisingGashaponItemInfoBtn@@IAEXHHW4UIRenderType@@@Z ENDP ; RisingGashaponItemInfoBtn::RenderEmpty
_TEXT	ENDS
PUBLIC	__$ArrayPad$
PUBLIC	?SendBuy@RisingGashaponWnd@@QAEXXZ		; RisingGashaponWnd::SendBuy
EXTRN	??1SP2Packet@@UAE@XZ:PROC			; SP2Packet::~SP2Packet
EXTRN	?SendToServer@TCPNetwork@@YAXAAVSP2Packet@@@Z:PROC ; TCPNetwork::SendToServer
EXTRN	??6SP2Packet@@QAEAAV0@H@Z:PROC			; SP2Packet::operator<<
EXTRN	??0SP2Packet@@QAE@K@Z:PROC			; SP2Packet::SP2Packet
EXTRN	?SetMouseBusy@ioApplication@@QAEX_N@Z:PROC	; ioApplication::SetMouseBusy
EXTRN	?IsMouseBusy@ioApplication@@QAE_NXZ:PROC	; ioApplication::IsMouseBusy
EXTRN	?GetSingleton@ioApplication@@SAAAV1@XZ:PROC	; ioApplication::GetSingleton
EXTRN	___security_cookie:DWORD
EXTRN	___CxxFrameHandler3:PROC
EXTRN	@__security_check_cookie@4:PROC
EXTRN	__chkstk:PROC
;	COMDAT xdata$x
xdata$x	SEGMENT
__unwindtable$?SendBuy@RisingGashaponWnd@@QAEXXZ DD 0ffffffffH
	DD	FLAT:__unwindfunclet$?SendBuy@RisingGashaponWnd@@QAEXXZ$0
__ehfuncinfo$?SendBuy@RisingGashaponWnd@@QAEXXZ DD 019930522H
	DD	01H
	DD	FLAT:__unwindtable$?SendBuy@RisingGashaponWnd@@QAEXXZ
	DD	2 DUP(00H)
	DD	2 DUP(00H)
	DD	00H
	DD	01H
; Function compile flags: /Ogsp
xdata$x	ENDS
;	COMDAT ?SendBuy@RisingGashaponWnd@@QAEXXZ
_TEXT	SEGMENT
_kPacket$ = -32808					; size = 32792
__$ArrayPad$ = -16					; size = 4
__$EHRec$ = -12						; size = 12
?SendBuy@RisingGashaponWnd@@QAEXXZ PROC			; RisingGashaponWnd::SendBuy, COMDAT
; _this$ = ecx

; 498  : {

  00000	55		 push	 ebp
  00001	8b ec		 mov	 ebp, esp
  00003	6a ff		 push	 -1
  00005	68 00 00 00 00	 push	 __ehhandler$?SendBuy@RisingGashaponWnd@@QAEXXZ
  0000a	64 a1 00 00 00
	00		 mov	 eax, DWORD PTR fs:0
  00010	50		 push	 eax
  00011	b8 1c 80 00 00	 mov	 eax, 32796		; 0000801cH
  00016	e8 00 00 00 00	 call	 __chkstk
  0001b	a1 00 00 00 00	 mov	 eax, DWORD PTR ___security_cookie
  00020	33 c5		 xor	 eax, ebp
  00022	89 45 f0	 mov	 DWORD PTR __$ArrayPad$[ebp], eax
  00025	56		 push	 esi
  00026	50		 push	 eax
  00027	8d 45 f4	 lea	 eax, DWORD PTR __$EHRec$[ebp]
  0002a	64 a3 00 00 00
	00		 mov	 DWORD PTR fs:0, eax
  00030	8b f1		 mov	 esi, ecx

; 499  : 	if( g_App.IsMouseBusy() )

  00032	e8 00 00 00 00	 call	 ?GetSingleton@ioApplication@@SAAAV1@XZ ; ioApplication::GetSingleton
  00037	8b c8		 mov	 ecx, eax
  00039	e8 00 00 00 00	 call	 ?IsMouseBusy@ioApplication@@QAE_NXZ ; ioApplication::IsMouseBusy
  0003e	84 c0		 test	 al, al
  00040	75 60		 jne	 SHORT $LN2@SendBuy

; 500  : 		return;
; 501  : 
; 502  : 	g_App.SetMouseBusy( true );

  00042	6a 01		 push	 1
  00044	e8 00 00 00 00	 call	 ?GetSingleton@ioApplication@@SAAAV1@XZ ; ioApplication::GetSingleton
  00049	8b c8		 mov	 ecx, eax
  0004b	e8 00 00 00 00	 call	 ?SetMouseBusy@ioApplication@@QAEX_N@Z ; ioApplication::SetMouseBusy

; 503  : 
; 504  : 	SP2Packet kPacket( CTPK_BUY_RISING_GASHAPON );

  00050	68 01 05 00 00	 push	 1281			; 00000501H
  00055	8d 8d d8 7f ff
	ff		 lea	 ecx, DWORD PTR _kPacket$[ebp]
  0005b	e8 00 00 00 00	 call	 ??0SP2Packet@@QAE@K@Z	; SP2Packet::SP2Packet

; 505  : 	kPacket << m_iEtcItemType;

  00060	ff b6 c8 01 00
	00		 push	 DWORD PTR [esi+456]
  00066	83 65 fc 00	 and	 DWORD PTR __$EHRec$[ebp+8], 0
  0006a	8d 8d d8 7f ff
	ff		 lea	 ecx, DWORD PTR _kPacket$[ebp]
  00070	e8 00 00 00 00	 call	 ??6SP2Packet@@QAEAAV0@H@Z ; SP2Packet::operator<<

; 506  : 	kPacket << m_bBuyCash;

  00075	ff b6 ec 01 00
	00		 push	 DWORD PTR [esi+492]
  0007b	8d 8d d8 7f ff
	ff		 lea	 ecx, DWORD PTR _kPacket$[ebp]
  00081	e8 00 00 00 00	 call	 ??6SP2Packet@@QAEAAV0@H@Z ; SP2Packet::operator<<

; 507  : 
; 508  : 	TCPNetwork::SendToServer( kPacket );

  00086	8d 85 d8 7f ff
	ff		 lea	 eax, DWORD PTR _kPacket$[ebp]
  0008c	50		 push	 eax
  0008d	e8 00 00 00 00	 call	 ?SendToServer@TCPNetwork@@YAXAAVSP2Packet@@@Z ; TCPNetwork::SendToServer

; 509  : 
; 510  : 
; 511  : }

  00092	83 4d fc ff	 or	 DWORD PTR __$EHRec$[ebp+8], -1
  00096	59		 pop	 ecx
  00097	8d 8d d8 7f ff
	ff		 lea	 ecx, DWORD PTR _kPacket$[ebp]
  0009d	e8 00 00 00 00	 call	 ??1SP2Packet@@UAE@XZ	; SP2Packet::~SP2Packet
$LN2@SendBuy:
  000a2	8b 4d f4	 mov	 ecx, DWORD PTR __$EHRec$[ebp]
  000a5	64 89 0d 00 00
	00 00		 mov	 DWORD PTR fs:0, ecx
  000ac	59		 pop	 ecx
  000ad	5e		 pop	 esi
  000ae	8b 4d f0	 mov	 ecx, DWORD PTR __$ArrayPad$[ebp]
  000b1	33 cd		 xor	 ecx, ebp
  000b3	e8 00 00 00 00	 call	 @__security_check_cookie@4
  000b8	c9		 leave
  000b9	c3		 ret	 0
_TEXT	ENDS
;	COMDAT text$x
text$x	SEGMENT
__unwindfunclet$?SendBuy@RisingGashaponWnd@@QAEXXZ$0:
  00000	8d 8d d8 7f ff
	ff		 lea	 ecx, DWORD PTR _kPacket$[ebp]
  00006	e9 00 00 00 00	 jmp	 ??1SP2Packet@@UAE@XZ	; SP2Packet::~SP2Packet
__ehhandler$?SendBuy@RisingGashaponWnd@@QAEXXZ:
  0000b	8b 54 24 08	 mov	 edx, DWORD PTR [esp+8]
  0000f	8d 42 0c	 lea	 eax, DWORD PTR [edx+12]
  00012	8b 8a dc 7f ff
	ff		 mov	 ecx, DWORD PTR [edx-32804]
  00018	33 c8		 xor	 ecx, eax
  0001a	e8 00 00 00 00	 call	 @__security_check_cookie@4
  0001f	8b 4a fc	 mov	 ecx, DWORD PTR [edx-4]
  00022	33 c8		 xor	 ecx, eax
  00024	e8 00 00 00 00	 call	 @__security_check_cookie@4
  00029	b8 00 00 00 00	 mov	 eax, OFFSET __ehfuncinfo$?SendBuy@RisingGashaponWnd@@QAEXXZ
  0002e	e9 00 00 00 00	 jmp	 ___CxxFrameHandler3
text$x	ENDS
?SendBuy@RisingGashaponWnd@@QAEXXZ ENDP			; RisingGashaponWnd::SendBuy
PUBLIC	?_Adopt@_Iterator_base0@std@@QAEXPBX@Z		; std::_Iterator_base0::_Adopt
; Function compile flags: /Ogsp
; File c:\program files (x86)\microsoft visual studio 10.0\vc\include\xutility
;	COMDAT ?_Adopt@_Iterator_base0@std@@QAEXPBX@Z
_TEXT	SEGMENT
___formal$ = 8						; size = 4
?_Adopt@_Iterator_base0@std@@QAEXPBX@Z PROC		; std::_Iterator_base0::_Adopt, COMDAT
; _this$ = ecx

; 49   : 		}

  00000	c2 04 00	 ret	 4
?_Adopt@_Iterator_base0@std@@QAEXPBX@Z ENDP		; std::_Iterator_base0::_Adopt
_TEXT	ENDS
PUBLIC	?InitAniState@RisingGashaponWnd@@IAEXXZ		; RisingGashaponWnd::InitAniState
EXTRN	?SetCurState@FSMStateMgr@@QAEXH@Z:PROC		; FSMStateMgr::SetCurState
EXTRN	?Add@FSMStateMgr@@QAEXPAVFSMState@@@Z:PROC	; FSMStateMgr::Add
EXTRN	?Add@FSMState@@QAEXHHH@Z:PROC			; FSMState::Add
EXTRN	??0FSMState@@QAE@H@Z:PROC			; FSMState::FSMState
EXTRN	??2@YAPAXI@Z:PROC				; operator new
EXTRN	__EH_epilog3:PROC
EXTRN	__EH_prolog3:PROC
;	COMDAT xdata$x
; File d:\lost saga for developer\youtube\tutorial\source\src\lsclient\gui\risinggashaponwnd.cpp
xdata$x	SEGMENT
__ehfuncinfo$?InitAniState@RisingGashaponWnd@@IAEXXZ DD 019930522H
	DD	06H
	DD	FLAT:__unwindtable$?InitAniState@RisingGashaponWnd@@IAEXXZ
	DD	2 DUP(00H)
	DD	2 DUP(00H)
	DD	00H
	DD	01H
__unwindtable$?InitAniState@RisingGashaponWnd@@IAEXXZ DD 0ffffffffH
	DD	FLAT:__unwindfunclet$?InitAniState@RisingGashaponWnd@@IAEXXZ$0
	DD	0ffffffffH
	DD	FLAT:__unwindfunclet$?InitAniState@RisingGashaponWnd@@IAEXXZ$1
	DD	0ffffffffH
	DD	FLAT:__unwindfunclet$?InitAniState@RisingGashaponWnd@@IAEXXZ$2
	DD	0ffffffffH
	DD	FLAT:__unwindfunclet$?InitAniState@RisingGashaponWnd@@IAEXXZ$3
	DD	0ffffffffH
	DD	FLAT:__unwindfunclet$?InitAniState@RisingGashaponWnd@@IAEXXZ$4
	DD	0ffffffffH
	DD	FLAT:__unwindfunclet$?InitAniState@RisingGashaponWnd@@IAEXXZ$5
; Function compile flags: /Ogsp
xdata$x	ENDS
;	COMDAT ?InitAniState@RisingGashaponWnd@@IAEXXZ
_TEXT	SEGMENT
$T517304 = -24						; size = 4
$T517300 = -24						; size = 4
$T517296 = -24						; size = 4
$T517292 = -24						; size = 4
_this$ = -20						; size = 4
tv226 = -16						; size = 4
$T517288 = -16						; size = 4
$T517284 = -16						; size = 4
__$EHRec$ = -12						; size = 12
?InitAniState@RisingGashaponWnd@@IAEXXZ PROC		; RisingGashaponWnd::InitAniState, COMDAT
; _this$ = ecx

; 765  : {

  00000	6a 0c		 push	 12			; 0000000cH
  00002	b8 00 00 00 00	 mov	 eax, __ehhandler$?InitAniState@RisingGashaponWnd@@IAEXXZ
  00007	e8 00 00 00 00	 call	 __EH_prolog3
  0000c	8b d9		 mov	 ebx, ecx
  0000e	89 5d ec	 mov	 DWORD PTR _this$[ebp], ebx

; 766  : 	FSMState *pState = new FSMState(AT_NONE);

  00011	6a 38		 push	 56			; 00000038H
  00013	e8 00 00 00 00	 call	 ??2@YAPAXI@Z		; operator new
  00018	59		 pop	 ecx
  00019	89 45 f0	 mov	 DWORD PTR $T517284[ebp], eax
  0001c	33 ff		 xor	 edi, edi
  0001e	89 7d fc	 mov	 DWORD PTR __$EHRec$[ebp+8], edi
  00021	3b c7		 cmp	 eax, edi
  00023	74 0a		 je	 SHORT $LN10@InitAniSta
  00025	57		 push	 edi
  00026	8b c8		 mov	 ecx, eax
  00028	e8 00 00 00 00	 call	 ??0FSMState@@QAE@H@Z	; FSMState::FSMState
  0002d	8b f8		 mov	 edi, eax
$LN10@InitAniSta:
  0002f	83 4d fc ff	 or	 DWORD PTR __$EHRec$[ebp+8], -1

; 767  : 	if( pState )

  00033	33 f6		 xor	 esi, esi
  00035	46		 inc	 esi
  00036	85 ff		 test	 edi, edi
  00038	74 18		 je	 SHORT $LN6@InitAniSta

; 768  : 		pState->Add( AT_WAIT,  AT_WAIT );

  0003a	6a ff		 push	 -1
  0003c	56		 push	 esi
  0003d	56		 push	 esi
  0003e	8b cf		 mov	 ecx, edi
  00040	e8 00 00 00 00	 call	 ?Add@FSMState@@QAEXHHH@Z ; FSMState::Add

; 769  : 	if( pState )
; 770  : 		pState->Add( AT_END,  AT_END );

  00045	6a ff		 push	 -1
  00047	6a 05		 push	 5
  00049	6a 05		 push	 5
  0004b	8b cf		 mov	 ecx, edi
  0004d	e8 00 00 00 00	 call	 ?Add@FSMState@@QAEXHHH@Z ; FSMState::Add
$LN6@InitAniSta:

; 771  : 	m_AniState.Add( pState );

  00052	8d 8b 8c 01 00
	00		 lea	 ecx, DWORD PTR [ebx+396]
  00058	57		 push	 edi
  00059	e8 00 00 00 00	 call	 ?Add@FSMStateMgr@@QAEXPAVFSMState@@@Z ; FSMStateMgr::Add

; 772  : 
; 773  : 	pState = new FSMState(AT_WAIT);

  0005e	6a 38		 push	 56			; 00000038H
  00060	e8 00 00 00 00	 call	 ??2@YAPAXI@Z		; operator new
  00065	59		 pop	 ecx
  00066	89 45 f0	 mov	 DWORD PTR $T517288[ebp], eax
  00069	89 75 fc	 mov	 DWORD PTR __$EHRec$[ebp+8], esi
  0006c	85 c0		 test	 eax, eax
  0006e	74 0c		 je	 SHORT $LN12@InitAniSta
  00070	56		 push	 esi
  00071	8b c8		 mov	 ecx, eax
  00073	e8 00 00 00 00	 call	 ??0FSMState@@QAE@H@Z	; FSMState::FSMState
  00078	8b d8		 mov	 ebx, eax
  0007a	eb 02		 jmp	 SHORT $LN13@InitAniSta
$LN12@InitAniSta:
  0007c	33 db		 xor	 ebx, ebx
$LN13@InitAniSta:
  0007e	83 4d fc ff	 or	 DWORD PTR __$EHRec$[ebp+8], -1

; 774  : 	if( pState )

  00082	6a 02		 push	 2
  00084	5f		 pop	 edi
  00085	85 db		 test	 ebx, ebx
  00087	74 12		 je	 SHORT $LN5@InitAniSta

; 775  : 		pState->Add( AT_WAIT, AT_SOUND, m_dwAniWaitDelay );

  00089	8b 45 ec	 mov	 eax, DWORD PTR _this$[ebp]
  0008c	ff b0 b4 01 00
	00		 push	 DWORD PTR [eax+436]
  00092	8b cb		 mov	 ecx, ebx
  00094	57		 push	 edi
  00095	56		 push	 esi
  00096	e8 00 00 00 00	 call	 ?Add@FSMState@@QAEXHHH@Z ; FSMState::Add
$LN5@InitAniSta:

; 776  : 	m_AniState.Add( pState );

  0009b	8b 75 ec	 mov	 esi, DWORD PTR _this$[ebp]
  0009e	81 c6 8c 01 00
	00		 add	 esi, 396		; 0000018cH
  000a4	53		 push	 ebx
  000a5	8b ce		 mov	 ecx, esi
  000a7	89 75 f0	 mov	 DWORD PTR tv226[ebp], esi
  000aa	e8 00 00 00 00	 call	 ?Add@FSMStateMgr@@QAEXPAVFSMState@@@Z ; FSMStateMgr::Add

; 777  : 
; 778  : 	pState = new FSMState(AT_SOUND);

  000af	6a 38		 push	 56			; 00000038H
  000b1	e8 00 00 00 00	 call	 ??2@YAPAXI@Z		; operator new
  000b6	59		 pop	 ecx
  000b7	89 45 e8	 mov	 DWORD PTR $T517292[ebp], eax
  000ba	89 7d fc	 mov	 DWORD PTR __$EHRec$[ebp+8], edi
  000bd	85 c0		 test	 eax, eax
  000bf	74 0c		 je	 SHORT $LN14@InitAniSta
  000c1	57		 push	 edi
  000c2	8b c8		 mov	 ecx, eax
  000c4	e8 00 00 00 00	 call	 ??0FSMState@@QAE@H@Z	; FSMState::FSMState
  000c9	8b f8		 mov	 edi, eax
  000cb	eb 02		 jmp	 SHORT $LN15@InitAniSta
$LN14@InitAniSta:
  000cd	33 ff		 xor	 edi, edi
$LN15@InitAniSta:
  000cf	83 4d fc ff	 or	 DWORD PTR __$EHRec$[ebp+8], -1

; 779  : 	if( pState )

  000d3	6a 03		 push	 3
  000d5	5b		 pop	 ebx
  000d6	85 ff		 test	 edi, edi
  000d8	74 0b		 je	 SHORT $LN4@InitAniSta

; 780  : 		pState->Add( AT_ROLL, AT_ROLL );

  000da	6a ff		 push	 -1
  000dc	53		 push	 ebx
  000dd	53		 push	 ebx
  000de	8b cf		 mov	 ecx, edi
  000e0	e8 00 00 00 00	 call	 ?Add@FSMState@@QAEXHHH@Z ; FSMState::Add
$LN4@InitAniSta:

; 781  : 	m_AniState.Add( pState );

  000e5	57		 push	 edi
  000e6	8b ce		 mov	 ecx, esi
  000e8	e8 00 00 00 00	 call	 ?Add@FSMStateMgr@@QAEXPAVFSMState@@@Z ; FSMStateMgr::Add

; 782  : 
; 783  : 	pState = new FSMState(AT_ROLL);

  000ed	6a 38		 push	 56			; 00000038H
  000ef	e8 00 00 00 00	 call	 ??2@YAPAXI@Z		; operator new
  000f4	59		 pop	 ecx
  000f5	89 45 e8	 mov	 DWORD PTR $T517296[ebp], eax
  000f8	89 5d fc	 mov	 DWORD PTR __$EHRec$[ebp+8], ebx
  000fb	85 c0		 test	 eax, eax
  000fd	74 0c		 je	 SHORT $LN16@InitAniSta
  000ff	53		 push	 ebx
  00100	8b c8		 mov	 ecx, eax
  00102	e8 00 00 00 00	 call	 ??0FSMState@@QAE@H@Z	; FSMState::FSMState
  00107	8b f8		 mov	 edi, eax
  00109	eb 02		 jmp	 SHORT $LN17@InitAniSta
$LN16@InitAniSta:
  0010b	33 ff		 xor	 edi, edi
$LN17@InitAniSta:
  0010d	83 4d fc ff	 or	 DWORD PTR __$EHRec$[ebp+8], -1

; 784  : 	if( pState )

  00111	6a 04		 push	 4
  00113	5e		 pop	 esi
  00114	85 ff		 test	 edi, edi
  00116	74 12		 je	 SHORT $LN3@InitAniSta

; 785  : 		pState->Add( AT_ROLL, AT_CHANGE, m_dwAniRollDelay );

  00118	8b 45 ec	 mov	 eax, DWORD PTR _this$[ebp]
  0011b	ff b0 b8 01 00
	00		 push	 DWORD PTR [eax+440]
  00121	8b cf		 mov	 ecx, edi
  00123	56		 push	 esi
  00124	53		 push	 ebx
  00125	e8 00 00 00 00	 call	 ?Add@FSMState@@QAEXHHH@Z ; FSMState::Add
$LN3@InitAniSta:

; 786  : 	m_AniState.Add( pState );	

  0012a	8b 4d f0	 mov	 ecx, DWORD PTR tv226[ebp]
  0012d	57		 push	 edi
  0012e	e8 00 00 00 00	 call	 ?Add@FSMStateMgr@@QAEXPAVFSMState@@@Z ; FSMStateMgr::Add

; 787  : 
; 788  : 	pState = new FSMState(AT_CHANGE);

  00133	6a 38		 push	 56			; 00000038H
  00135	e8 00 00 00 00	 call	 ??2@YAPAXI@Z		; operator new
  0013a	59		 pop	 ecx
  0013b	89 45 e8	 mov	 DWORD PTR $T517300[ebp], eax
  0013e	89 75 fc	 mov	 DWORD PTR __$EHRec$[ebp+8], esi
  00141	85 c0		 test	 eax, eax
  00143	74 0c		 je	 SHORT $LN18@InitAniSta
  00145	56		 push	 esi
  00146	8b c8		 mov	 ecx, eax
  00148	e8 00 00 00 00	 call	 ??0FSMState@@QAE@H@Z	; FSMState::FSMState
  0014d	8b f0		 mov	 esi, eax
  0014f	eb 02		 jmp	 SHORT $LN19@InitAniSta
$LN18@InitAniSta:
  00151	33 f6		 xor	 esi, esi
$LN19@InitAniSta:
  00153	83 cf ff	 or	 edi, -1
  00156	89 7d fc	 mov	 DWORD PTR __$EHRec$[ebp+8], edi

; 789  : 	if( pState )

  00159	85 f6		 test	 esi, esi
  0015b	74 16		 je	 SHORT $LN2@InitAniSta

; 790  : 	{
; 791  : 		pState->Add( AT_ROLL, AT_ROLL );

  0015d	57		 push	 edi
  0015e	53		 push	 ebx
  0015f	53		 push	 ebx
  00160	8b ce		 mov	 ecx, esi
  00162	e8 00 00 00 00	 call	 ?Add@FSMState@@QAEXHHH@Z ; FSMState::Add

; 792  : 		pState->Add( AT_END, AT_END );

  00167	57		 push	 edi
  00168	6a 05		 push	 5
  0016a	6a 05		 push	 5
  0016c	8b ce		 mov	 ecx, esi
  0016e	e8 00 00 00 00	 call	 ?Add@FSMState@@QAEXHHH@Z ; FSMState::Add
$LN2@InitAniSta:

; 793  : 	}
; 794  : 	m_AniState.Add( pState );	

  00173	8b 4d f0	 mov	 ecx, DWORD PTR tv226[ebp]
  00176	56		 push	 esi
  00177	e8 00 00 00 00	 call	 ?Add@FSMStateMgr@@QAEXPAVFSMState@@@Z ; FSMStateMgr::Add

; 795  : 
; 796  : 	pState = new FSMState(AT_END);

  0017c	6a 38		 push	 56			; 00000038H
  0017e	e8 00 00 00 00	 call	 ??2@YAPAXI@Z		; operator new
  00183	59		 pop	 ecx
  00184	89 45 e8	 mov	 DWORD PTR $T517304[ebp], eax
  00187	33 db		 xor	 ebx, ebx
  00189	c7 45 fc 05 00
	00 00		 mov	 DWORD PTR __$EHRec$[ebp+8], 5
  00190	3b c3		 cmp	 eax, ebx
  00192	74 0d		 je	 SHORT $LN20@InitAniSta
  00194	6a 05		 push	 5
  00196	8b c8		 mov	 ecx, eax
  00198	e8 00 00 00 00	 call	 ??0FSMState@@QAE@H@Z	; FSMState::FSMState
  0019d	8b f0		 mov	 esi, eax
  0019f	eb 02		 jmp	 SHORT $LN21@InitAniSta
$LN20@InitAniSta:
  001a1	33 f6		 xor	 esi, esi
$LN21@InitAniSta:
  001a3	89 7d fc	 mov	 DWORD PTR __$EHRec$[ebp+8], edi

; 797  : 	if( pState )

  001a6	3b f3		 cmp	 esi, ebx
  001a8	74 0a		 je	 SHORT $LN1@InitAniSta

; 798  : 		pState->Add( AT_NONE, AT_NONE );

  001aa	57		 push	 edi
  001ab	53		 push	 ebx
  001ac	53		 push	 ebx
  001ad	8b ce		 mov	 ecx, esi
  001af	e8 00 00 00 00	 call	 ?Add@FSMState@@QAEXHHH@Z ; FSMState::Add
$LN1@InitAniSta:

; 799  : 	m_AniState.Add( pState );	

  001b4	8b 4d f0	 mov	 ecx, DWORD PTR tv226[ebp]
  001b7	56		 push	 esi
  001b8	e8 00 00 00 00	 call	 ?Add@FSMStateMgr@@QAEXPAVFSMState@@@Z ; FSMStateMgr::Add

; 800  : 
; 801  : 	m_AniState.SetCurState( AT_NONE );

  001bd	8b 4d f0	 mov	 ecx, DWORD PTR tv226[ebp]
  001c0	53		 push	 ebx
  001c1	e8 00 00 00 00	 call	 ?SetCurState@FSMStateMgr@@QAEXH@Z ; FSMStateMgr::SetCurState

; 802  : }

  001c6	e8 00 00 00 00	 call	 __EH_epilog3
  001cb	c3		 ret	 0
_TEXT	ENDS
;	COMDAT text$x
text$x	SEGMENT
__unwindfunclet$?InitAniState@RisingGashaponWnd@@IAEXXZ$0:
  00000	ff 75 f0	 push	 DWORD PTR $T517284[ebp]
  00003	e8 00 00 00 00	 call	 ??3@YAXPAX@Z		; operator delete
  00008	59		 pop	 ecx
  00009	c3		 ret	 0
__unwindfunclet$?InitAniState@RisingGashaponWnd@@IAEXXZ$1:
  0000a	ff 75 f0	 push	 DWORD PTR $T517288[ebp]
  0000d	e8 00 00 00 00	 call	 ??3@YAXPAX@Z		; operator delete
  00012	59		 pop	 ecx
  00013	c3		 ret	 0
__unwindfunclet$?InitAniState@RisingGashaponWnd@@IAEXXZ$2:
  00014	ff 75 e8	 push	 DWORD PTR $T517292[ebp]
  00017	e8 00 00 00 00	 call	 ??3@YAXPAX@Z		; operator delete
  0001c	59		 pop	 ecx
  0001d	c3		 ret	 0
__unwindfunclet$?InitAniState@RisingGashaponWnd@@IAEXXZ$3:
  0001e	ff 75 e8	 push	 DWORD PTR $T517296[ebp]
  00021	e8 00 00 00 00	 call	 ??3@YAXPAX@Z		; operator delete
  00026	59		 pop	 ecx
  00027	c3		 ret	 0
__unwindfunclet$?InitAniState@RisingGashaponWnd@@IAEXXZ$4:
  00028	ff 75 e8	 push	 DWORD PTR $T517300[ebp]
  0002b	e8 00 00 00 00	 call	 ??3@YAXPAX@Z		; operator delete
  00030	59		 pop	 ecx
  00031	c3		 ret	 0
__unwindfunclet$?InitAniState@RisingGashaponWnd@@IAEXXZ$5:
  00032	ff 75 e8	 push	 DWORD PTR $T517304[ebp]
  00035	e8 00 00 00 00	 call	 ??3@YAXPAX@Z		; operator delete
  0003a	59		 pop	 ecx
  0003b	c3		 ret	 0
__ehhandler$?InitAniState@RisingGashaponWnd@@IAEXXZ:
  0003c	8b 54 24 08	 mov	 edx, DWORD PTR [esp+8]
  00040	8d 42 0c	 lea	 eax, DWORD PTR [edx+12]
  00043	8b 4a e4	 mov	 ecx, DWORD PTR [edx-28]
  00046	33 c8		 xor	 ecx, eax
  00048	e8 00 00 00 00	 call	 @__security_check_cookie@4
  0004d	b8 00 00 00 00	 mov	 eax, OFFSET __ehfuncinfo$?InitAniState@RisingGashaponWnd@@IAEXXZ
  00052	e9 00 00 00 00	 jmp	 ___CxxFrameHandler3
text$x	ENDS
?InitAniState@RisingGashaponWnd@@IAEXXZ ENDP		; RisingGashaponWnd::InitAniState
PUBLIC	??1NeedPesoInfo@NewShopNeedPesoWnd@@QAE@XZ	; NewShopNeedPesoWnd::NeedPesoInfo::~NeedPesoInfo
EXTRN	__imp_??1ioHashString@@QAE@XZ:PROC
;	COMDAT xdata$x
xdata$x	SEGMENT
__unwindtable$??1NeedPesoInfo@NewShopNeedPesoWnd@@QAE@XZ DD 0ffffffffH
	DD	FLAT:__unwindfunclet$??1NeedPesoInfo@NewShopNeedPesoWnd@@QAE@XZ$0
	DD	00H
	DD	FLAT:__unwindfunclet$??1NeedPesoInfo@NewShopNeedPesoWnd@@QAE@XZ$1
	DD	01H
	DD	FLAT:__unwindfunclet$??1NeedPesoInfo@NewShopNeedPesoWnd@@QAE@XZ$2
__ehfuncinfo$??1NeedPesoInfo@NewShopNeedPesoWnd@@QAE@XZ DD 019930522H
	DD	03H
	DD	FLAT:__unwindtable$??1NeedPesoInfo@NewShopNeedPesoWnd@@QAE@XZ
	DD	2 DUP(00H)
	DD	2 DUP(00H)
	DD	00H
	DD	01H
; Function compile flags: /Ogsp
xdata$x	ENDS
;	COMDAT ??1NeedPesoInfo@NewShopNeedPesoWnd@@QAE@XZ
_TEXT	SEGMENT
_this$ = -16						; size = 4
__$EHRec$ = -12						; size = 12
??1NeedPesoInfo@NewShopNeedPesoWnd@@QAE@XZ PROC		; NewShopNeedPesoWnd::NeedPesoInfo::~NeedPesoInfo, COMDAT
; _this$ = ecx
  00000	6a 04		 push	 4
  00002	b8 00 00 00 00	 mov	 eax, __ehhandler$??1NeedPesoInfo@NewShopNeedPesoWnd@@QAE@XZ
  00007	e8 00 00 00 00	 call	 __EH_prolog3
  0000c	8b f9		 mov	 edi, ecx
  0000e	89 7d f0	 mov	 DWORD PTR _this$[ebp], edi
  00011	8b 35 00 00 00
	00		 mov	 esi, DWORD PTR __imp_??1ioHashString@@QAE@XZ
  00017	8d 4f 30	 lea	 ecx, DWORD PTR [edi+48]
  0001a	c7 45 fc 02 00
	00 00		 mov	 DWORD PTR __$EHRec$[ebp+8], 2
  00021	ff d6		 call	 esi
  00023	8d 4f 20	 lea	 ecx, DWORD PTR [edi+32]
  00026	c6 45 fc 01	 mov	 BYTE PTR __$EHRec$[ebp+8], 1
  0002a	ff d6		 call	 esi
  0002c	8d 4f 10	 lea	 ecx, DWORD PTR [edi+16]
  0002f	c6 45 fc 00	 mov	 BYTE PTR __$EHRec$[ebp+8], 0
  00033	ff d6		 call	 esi
  00035	83 4d fc ff	 or	 DWORD PTR __$EHRec$[ebp+8], -1
  00039	8b cf		 mov	 ecx, edi
  0003b	ff d6		 call	 esi
  0003d	e8 00 00 00 00	 call	 __EH_epilog3
  00042	c3		 ret	 0
_TEXT	ENDS
;	COMDAT text$x
text$x	SEGMENT
__unwindfunclet$??1NeedPesoInfo@NewShopNeedPesoWnd@@QAE@XZ$0:
  00000	8b 4d f0	 mov	 ecx, DWORD PTR _this$[ebp]
  00003	ff 25 00 00 00
	00		 jmp	 DWORD PTR __imp_??1ioHashString@@QAE@XZ
__unwindfunclet$??1NeedPesoInfo@NewShopNeedPesoWnd@@QAE@XZ$1:
  00009	8b 4d f0	 mov	 ecx, DWORD PTR _this$[ebp]
  0000c	83 c1 10	 add	 ecx, 16			; 00000010H
  0000f	ff 25 00 00 00
	00		 jmp	 DWORD PTR __imp_??1ioHashString@@QAE@XZ
__unwindfunclet$??1NeedPesoInfo@NewShopNeedPesoWnd@@QAE@XZ$2:
  00015	8b 4d f0	 mov	 ecx, DWORD PTR _this$[ebp]
  00018	83 c1 20	 add	 ecx, 32			; 00000020H
  0001b	ff 25 00 00 00
	00		 jmp	 DWORD PTR __imp_??1ioHashString@@QAE@XZ
__ehhandler$??1NeedPesoInfo@NewShopNeedPesoWnd@@QAE@XZ:
  00021	8b 54 24 08	 mov	 edx, DWORD PTR [esp+8]
  00025	8d 42 0c	 lea	 eax, DWORD PTR [edx+12]
  00028	8b 4a ec	 mov	 ecx, DWORD PTR [edx-20]
  0002b	33 c8		 xor	 ecx, eax
  0002d	e8 00 00 00 00	 call	 @__security_check_cookie@4
  00032	b8 00 00 00 00	 mov	 eax, OFFSET __ehfuncinfo$??1NeedPesoInfo@NewShopNeedPesoWnd@@QAE@XZ
  00037	e9 00 00 00 00	 jmp	 ___CxxFrameHandler3
text$x	ENDS
??1NeedPesoInfo@NewShopNeedPesoWnd@@QAE@XZ ENDP		; NewShopNeedPesoWnd::NeedPesoInfo::~NeedPesoInfo
PUBLIC	??_C@_0BP@JAMDNHOE@RisingGashaponWnd?3?3ShowExitMsg?$AA@ ; `string'
PUBLIC	??_C@_00CNPNBAHC@?$AA@				; `string'
PUBLIC	?ShowExitMsg@RisingGashaponWnd@@IAEXXZ		; RisingGashaponWnd::ShowExitMsg
EXTRN	?SetMsgBox@ioSP2GUIManager@@QAAXHPAVioWnd@@PBDZZ:PROC ; ioSP2GUIManager::SetMsgBox
EXTRN	?GetSingleton@ioSP2GUIManager@@SAAAV1@XZ:PROC	; ioSP2GUIManager::GetSingleton
EXTRN	__imp_?GetString@ioStringManager@@QAEPADPBD0HW4FileNamePrefix@1@@Z:PROC
EXTRN	__imp_?GetSingleton@ioStringManager@@SAAAV1@XZ:PROC
;	COMDAT ??_C@_0BP@JAMDNHOE@RisingGashaponWnd?3?3ShowExitMsg?$AA@
CONST	SEGMENT
??_C@_0BP@JAMDNHOE@RisingGashaponWnd?3?3ShowExitMsg?$AA@ DB 'RisingGashap'
	DB	'onWnd::ShowExitMsg', 00H			; `string'
CONST	ENDS
;	COMDAT ??_C@_00CNPNBAHC@?$AA@
CONST	SEGMENT
??_C@_00CNPNBAHC@?$AA@ DB 00H				; `string'
; Function compile flags: /Ogsp
CONST	ENDS
;	COMDAT ?ShowExitMsg@RisingGashaponWnd@@IAEXXZ
_TEXT	SEGMENT
?ShowExitMsg@RisingGashaponWnd@@IAEXXZ PROC		; RisingGashaponWnd::ShowExitMsg, COMDAT
; _this$ = ecx

; 1185 : {

  00000	56		 push	 esi

; 1186 : 	m_eMsgType = eMSGBOX_TYPE_EXIT;
; 1187 : 	g_GUIMgr.SetMsgBox( MB_YESNO, this, STR(1) );

  00001	6a 00		 push	 0
  00003	6a 01		 push	 1
  00005	8b f1		 mov	 esi, ecx
  00007	68 00 00 00 00	 push	 OFFSET ??_C@_00CNPNBAHC@?$AA@
  0000c	68 00 00 00 00	 push	 OFFSET ??_C@_0BP@JAMDNHOE@RisingGashaponWnd?3?3ShowExitMsg?$AA@
  00011	c7 86 f4 01 00
	00 02 00 00 00	 mov	 DWORD PTR [esi+500], 2
  0001b	ff 15 00 00 00
	00		 call	 DWORD PTR __imp_?GetSingleton@ioStringManager@@SAAAV1@XZ
  00021	8b c8		 mov	 ecx, eax
  00023	ff 15 00 00 00
	00		 call	 DWORD PTR __imp_?GetString@ioStringManager@@QAEPADPBD0HW4FileNamePrefix@1@@Z
  00029	50		 push	 eax
  0002a	56		 push	 esi
  0002b	6a 04		 push	 4
  0002d	e8 00 00 00 00	 call	 ?GetSingleton@ioSP2GUIManager@@SAAAV1@XZ ; ioSP2GUIManager::GetSingleton
  00032	50		 push	 eax
  00033	e8 00 00 00 00	 call	 ?SetMsgBox@ioSP2GUIManager@@QAAXHPAVioWnd@@PBDZZ ; ioSP2GUIManager::SetMsgBox
  00038	83 c4 10	 add	 esp, 16			; 00000010H
  0003b	5e		 pop	 esi

; 1188 : 
; 1189 : }

  0003c	c3		 ret	 0
?ShowExitMsg@RisingGashaponWnd@@IAEXXZ ENDP		; RisingGashaponWnd::ShowExitMsg
_TEXT	ENDS
PUBLIC	??_C@_0CD@MELCPINJ@RisingGashaponWnd?3?3ShowInitWarni@ ; `string'
PUBLIC	?ShowInitWarning@RisingGashaponWnd@@IAEXXZ	; RisingGashaponWnd::ShowInitWarning
;	COMDAT ??_C@_0CD@MELCPINJ@RisingGashaponWnd?3?3ShowInitWarni@
CONST	SEGMENT
??_C@_0CD@MELCPINJ@RisingGashaponWnd?3?3ShowInitWarni@ DB 'RisingGashapon'
	DB	'Wnd::ShowInitWarning', 00H			; `string'
; Function compile flags: /Ogsp
CONST	ENDS
;	COMDAT ?ShowInitWarning@RisingGashaponWnd@@IAEXXZ
_TEXT	SEGMENT
?ShowInitWarning@RisingGashaponWnd@@IAEXXZ PROC		; RisingGashaponWnd::ShowInitWarning, COMDAT
; _this$ = ecx

; 1192 : {

  00000	56		 push	 esi

; 1193 : 	m_eMsgType = eMSGBOX_TYPE_INITAGAIN;

  00001	33 c0		 xor	 eax, eax
  00003	40		 inc	 eax

; 1194 : 	g_GUIMgr.SetMsgBox( MB_YESNO, this, STR(1));

  00004	6a 00		 push	 0
  00006	50		 push	 eax
  00007	8b f1		 mov	 esi, ecx
  00009	68 00 00 00 00	 push	 OFFSET ??_C@_00CNPNBAHC@?$AA@
  0000e	68 00 00 00 00	 push	 OFFSET ??_C@_0CD@MELCPINJ@RisingGashaponWnd?3?3ShowInitWarni@
  00013	89 86 f4 01 00
	00		 mov	 DWORD PTR [esi+500], eax
  00019	ff 15 00 00 00
	00		 call	 DWORD PTR __imp_?GetSingleton@ioStringManager@@SAAAV1@XZ
  0001f	8b c8		 mov	 ecx, eax
  00021	ff 15 00 00 00
	00		 call	 DWORD PTR __imp_?GetString@ioStringManager@@QAEPADPBD0HW4FileNamePrefix@1@@Z
  00027	50		 push	 eax
  00028	56		 push	 esi
  00029	6a 04		 push	 4
  0002b	e8 00 00 00 00	 call	 ?GetSingleton@ioSP2GUIManager@@SAAAV1@XZ ; ioSP2GUIManager::GetSingleton
  00030	50		 push	 eax
  00031	e8 00 00 00 00	 call	 ?SetMsgBox@ioSP2GUIManager@@QAAXHPAVioWnd@@PBDZZ ; ioSP2GUIManager::SetMsgBox
  00036	83 c4 10	 add	 esp, 16			; 00000010H
  00039	5e		 pop	 esi

; 1195 : }

  0003a	c3		 ret	 0
?ShowInitWarning@RisingGashaponWnd@@IAEXXZ ENDP		; RisingGashaponWnd::ShowInitWarning
_TEXT	ENDS
PUBLIC	__$ArrayPad$
PUBLIC	?SendInit@RisingGashaponWnd@@IAEXXZ		; RisingGashaponWnd::SendInit
;	COMDAT xdata$x
xdata$x	SEGMENT
__unwindtable$?SendInit@RisingGashaponWnd@@IAEXXZ DD 0ffffffffH
	DD	FLAT:__unwindfunclet$?SendInit@RisingGashaponWnd@@IAEXXZ$0
__ehfuncinfo$?SendInit@RisingGashaponWnd@@IAEXXZ DD 019930522H
	DD	01H
	DD	FLAT:__unwindtable$?SendInit@RisingGashaponWnd@@IAEXXZ
	DD	2 DUP(00H)
	DD	2 DUP(00H)
	DD	00H
	DD	01H
; Function compile flags: /Ogsp
xdata$x	ENDS
;	COMDAT ?SendInit@RisingGashaponWnd@@IAEXXZ
_TEXT	SEGMENT
_kPacket$ = -32808					; size = 32792
__$ArrayPad$ = -16					; size = 4
__$EHRec$ = -12						; size = 12
?SendInit@RisingGashaponWnd@@IAEXXZ PROC		; RisingGashaponWnd::SendInit, COMDAT
; _this$ = ecx

; 1227 : {

  00000	55		 push	 ebp
  00001	8b ec		 mov	 ebp, esp
  00003	6a ff		 push	 -1
  00005	68 00 00 00 00	 push	 __ehhandler$?SendInit@RisingGashaponWnd@@IAEXXZ
  0000a	64 a1 00 00 00
	00		 mov	 eax, DWORD PTR fs:0
  00010	50		 push	 eax
  00011	b8 1c 80 00 00	 mov	 eax, 32796		; 0000801cH
  00016	e8 00 00 00 00	 call	 __chkstk
  0001b	a1 00 00 00 00	 mov	 eax, DWORD PTR ___security_cookie
  00020	33 c5		 xor	 eax, ebp
  00022	89 45 f0	 mov	 DWORD PTR __$ArrayPad$[ebp], eax
  00025	50		 push	 eax
  00026	8d 45 f4	 lea	 eax, DWORD PTR __$EHRec$[ebp]
  00029	64 a3 00 00 00
	00		 mov	 DWORD PTR fs:0, eax

; 1228 : 	SP2Packet kPacket( CTPK_INIT_RISING_GASHAPON );

  0002f	68 02 05 00 00	 push	 1282			; 00000502H
  00034	8d 8d d8 7f ff
	ff		 lea	 ecx, DWORD PTR _kPacket$[ebp]
  0003a	e8 00 00 00 00	 call	 ??0SP2Packet@@QAE@K@Z	; SP2Packet::SP2Packet
  0003f	83 65 fc 00	 and	 DWORD PTR __$EHRec$[ebp+8], 0

; 1229 : 
; 1230 : 	TCPNetwork::SendToServer( kPacket );

  00043	8d 85 d8 7f ff
	ff		 lea	 eax, DWORD PTR _kPacket$[ebp]
  00049	50		 push	 eax
  0004a	e8 00 00 00 00	 call	 ?SendToServer@TCPNetwork@@YAXAAVSP2Packet@@@Z ; TCPNetwork::SendToServer

; 1231 : }

  0004f	83 4d fc ff	 or	 DWORD PTR __$EHRec$[ebp+8], -1
  00053	59		 pop	 ecx
  00054	8d 8d d8 7f ff
	ff		 lea	 ecx, DWORD PTR _kPacket$[ebp]
  0005a	e8 00 00 00 00	 call	 ??1SP2Packet@@UAE@XZ	; SP2Packet::~SP2Packet
  0005f	8b 4d f4	 mov	 ecx, DWORD PTR __$EHRec$[ebp]
  00062	64 89 0d 00 00
	00 00		 mov	 DWORD PTR fs:0, ecx
  00069	59		 pop	 ecx
  0006a	8b 4d f0	 mov	 ecx, DWORD PTR __$ArrayPad$[ebp]
  0006d	33 cd		 xor	 ecx, ebp
  0006f	e8 00 00 00 00	 call	 @__security_check_cookie@4
  00074	c9		 leave
  00075	c3		 ret	 0
_TEXT	ENDS
;	COMDAT text$x
text$x	SEGMENT
__unwindfunclet$?SendInit@RisingGashaponWnd@@IAEXXZ$0:
  00000	8d 8d d8 7f ff
	ff		 lea	 ecx, DWORD PTR _kPacket$[ebp]
  00006	e9 00 00 00 00	 jmp	 ??1SP2Packet@@UAE@XZ	; SP2Packet::~SP2Packet
__ehhandler$?SendInit@RisingGashaponWnd@@IAEXXZ:
  0000b	8b 54 24 08	 mov	 edx, DWORD PTR [esp+8]
  0000f	8d 42 0c	 lea	 eax, DWORD PTR [edx+12]
  00012	8b 8a e0 7f ff
	ff		 mov	 ecx, DWORD PTR [edx-32800]
  00018	33 c8		 xor	 ecx, eax
  0001a	e8 00 00 00 00	 call	 @__security_check_cookie@4
  0001f	8b 4a fc	 mov	 ecx, DWORD PTR [edx-4]
  00022	33 c8		 xor	 ecx, eax
  00024	e8 00 00 00 00	 call	 @__security_check_cookie@4
  00029	b8 00 00 00 00	 mov	 eax, OFFSET __ehfuncinfo$?SendInit@RisingGashaponWnd@@IAEXXZ
  0002e	e9 00 00 00 00	 jmp	 ___CxxFrameHandler3
text$x	ENDS
?SendInit@RisingGashaponWnd@@IAEXXZ ENDP		; RisingGashaponWnd::SendInit
PUBLIC	__real@3f19999a
PUBLIC	??_C@_0CG@KIDMNJKE@RisingGashaponWnd?3?3OnRenderAfter@ ; `string'
PUBLIC	?OnRenderAfterChild@RisingGashaponWnd@@MAEXXZ	; RisingGashaponWnd::OnRenderAfterChild
EXTRN	??1ioComplexStringPrinter@@QAE@XZ:PROC		; ioComplexStringPrinter::~ioComplexStringPrinter
EXTRN	?ClearList@ioComplexStringPrinter@@QAEXXZ:PROC	; ioComplexStringPrinter::ClearList
EXTRN	?PrintFullText@ioComplexStringPrinter@@QAEXMMW4TextAlignType@@E@Z:PROC ; ioComplexStringPrinter::PrintFullText
EXTRN	?AddTextPiece@ioComplexStringPrinter@@QAAXMPBDZZ:PROC ; ioComplexStringPrinter::AddTextPiece
EXTRN	?SetTextColor@ioComplexStringPrinter@@QAEXHHH@Z:PROC ; ioComplexStringPrinter::SetTextColor
EXTRN	?SetBkColor@ioComplexStringPrinter@@QAEXHHH@Z:PROC ; ioComplexStringPrinter::SetBkColor
EXTRN	?SetTextStyle@ioComplexStringPrinter@@QAEXW4TextStyle@@@Z:PROC ; ioComplexStringPrinter::SetTextStyle
EXTRN	??0ioComplexStringPrinter@@QAE@XZ:PROC		; ioComplexStringPrinter::ioComplexStringPrinter
EXTRN	?ConvertNumToStrComma@Help@@YAXHPADH@Z:PROC	; Help::ConvertNumToStrComma
EXTRN	?GetTotalCash@ioMyInfo@@QAEHXZ:PROC		; ioMyInfo::GetTotalCash
EXTRN	?GetSingleton@ioMyInfo@@SAAAV1@XZ:PROC		; ioMyInfo::GetSingleton
EXTRN	__imp_?GetDerivedPosY@ioWnd@@QBEHXZ:PROC
EXTRN	__imp_?GetDerivedPosX@ioWnd@@QBEHXZ:PROC
EXTRN	__EH_epilog3_GS:PROC
EXTRN	__EH_prolog3_GS:PROC
EXTRN	_memset:PROC
;	COMDAT __real@3f19999a
CONST	SEGMENT
__real@3f19999a DD 03f19999ar			; 0.6
CONST	ENDS
;	COMDAT ??_C@_0CG@KIDMNJKE@RisingGashaponWnd?3?3OnRenderAfter@
CONST	SEGMENT
??_C@_0CG@KIDMNJKE@RisingGashaponWnd?3?3OnRenderAfter@ DB 'RisingGashapon'
	DB	'Wnd::OnRenderAfterChild', 00H		; `string'
CONST	ENDS
;	COMDAT xdata$x
xdata$x	SEGMENT
__unwindtable$?OnRenderAfterChild@RisingGashaponWnd@@MAEXXZ DD 0ffffffffH
	DD	FLAT:__unwindfunclet$?OnRenderAfterChild@RisingGashaponWnd@@MAEXXZ$0
__ehfuncinfo$?OnRenderAfterChild@RisingGashaponWnd@@MAEXXZ DD 019930522H
	DD	01H
	DD	FLAT:__unwindtable$?OnRenderAfterChild@RisingGashaponWnd@@MAEXXZ
	DD	2 DUP(00H)
	DD	2 DUP(00H)
	DD	00H
	DD	01H
; Function compile flags: /Ogsp
xdata$x	ENDS
;	COMDAT ?OnRenderAfterChild@RisingGashaponWnd@@MAEXXZ
_TEXT	SEGMENT
_kPrinter$ = -308					; size = 32
_szCash$ = -276						; size = 260
__$EHRec$ = -12						; size = 12
?OnRenderAfterChild@RisingGashaponWnd@@MAEXXZ PROC	; RisingGashaponWnd::OnRenderAfterChild, COMDAT
; _this$ = ecx

; 1234 : {

  00000	68 28 01 00 00	 push	 296			; 00000128H
  00005	b8 00 00 00 00	 mov	 eax, __ehhandler$?OnRenderAfterChild@RisingGashaponWnd@@MAEXXZ
  0000a	e8 00 00 00 00	 call	 __EH_prolog3_GS
  0000f	8b f1		 mov	 esi, ecx

; 1235 : 	// 타이틀 캐쉬출력
; 1236 : 
; 1237 : 	int iXPos = GetDerivedPosX();

  00011	ff 15 00 00 00
	00		 call	 DWORD PTR __imp_?GetDerivedPosX@ioWnd@@QBEHXZ

; 1238 : 	int iYPos = GetDerivedPosY();

  00017	8b ce		 mov	 ecx, esi
  00019	8b f8		 mov	 edi, eax
  0001b	ff 15 00 00 00
	00		 call	 DWORD PTR __imp_?GetDerivedPosY@ioWnd@@QBEHXZ

; 1239 : 
; 1240 : 	enum 
; 1241 : 	{
; 1242 : 		X_OFFSET = 256,
; 1243 : 		Y_OFFSET = 14,
; 1244 : 	};
; 1245 : 
; 1246 : 	char szCash[MAX_PATH] = {0,};

  00021	68 03 01 00 00	 push	 259			; 00000103H
  00026	8b d8		 mov	 ebx, eax
  00028	8d 85 ed fe ff
	ff		 lea	 eax, DWORD PTR _szCash$[ebp+1]
  0002e	6a 00		 push	 0
  00030	50		 push	 eax
  00031	c6 85 ec fe ff
	ff 00		 mov	 BYTE PTR _szCash$[ebp], 0
  00038	e8 00 00 00 00	 call	 _memset
  0003d	83 c4 0c	 add	 esp, 12			; 0000000cH

; 1247 : 	Help::ConvertNumToStrComma( g_MyInfo.GetTotalCash(), szCash, sizeof( szCash ) );

  00040	8d 85 ec fe ff
	ff		 lea	 eax, DWORD PTR _szCash$[ebp]
  00046	68 04 01 00 00	 push	 260			; 00000104H
  0004b	50		 push	 eax
  0004c	e8 00 00 00 00	 call	 ?GetSingleton@ioMyInfo@@SAAAV1@XZ ; ioMyInfo::GetSingleton
  00051	8b c8		 mov	 ecx, eax
  00053	e8 00 00 00 00	 call	 ?GetTotalCash@ioMyInfo@@QAEHXZ ; ioMyInfo::GetTotalCash
  00058	50		 push	 eax
  00059	e8 00 00 00 00	 call	 ?ConvertNumToStrComma@Help@@YAXHPADH@Z ; Help::ConvertNumToStrComma
  0005e	83 c4 0c	 add	 esp, 12			; 0000000cH

; 1248 : 
; 1249 : 
; 1250 : 	ioComplexStringPrinter kPrinter;

  00061	8d 8d cc fe ff
	ff		 lea	 ecx, DWORD PTR _kPrinter$[ebp]
  00067	e8 00 00 00 00	 call	 ??0ioComplexStringPrinter@@QAE@XZ ; ioComplexStringPrinter::ioComplexStringPrinter
  0006c	83 65 fc 00	 and	 DWORD PTR __$EHRec$[ebp+8], 0

; 1251 : 	kPrinter.SetTextStyle( TS_OUTLINE_FULL_2X );

  00070	6a 05		 push	 5
  00072	8d 8d cc fe ff
	ff		 lea	 ecx, DWORD PTR _kPrinter$[ebp]
  00078	e8 00 00 00 00	 call	 ?SetTextStyle@ioComplexStringPrinter@@QAEXW4TextStyle@@@Z ; ioComplexStringPrinter::SetTextStyle

; 1252 : 	kPrinter.SetBkColor( 12, 66, 111 );

  0007d	6a 6f		 push	 111			; 0000006fH
  0007f	6a 42		 push	 66			; 00000042H
  00081	6a 0c		 push	 12			; 0000000cH
  00083	8d 8d cc fe ff
	ff		 lea	 ecx, DWORD PTR _kPrinter$[ebp]
  00089	e8 00 00 00 00	 call	 ?SetBkColor@ioComplexStringPrinter@@QAEXHHH@Z ; ioComplexStringPrinter::SetBkColor

; 1253 : 
; 1254 : 	kPrinter.SetTextColor( 255, 188, 26 );		

  0008e	6a 1a		 push	 26			; 0000001aH
  00090	68 bc 00 00 00	 push	 188			; 000000bcH
  00095	be ff 00 00 00	 mov	 esi, 255		; 000000ffH
  0009a	56		 push	 esi
  0009b	8d 8d cc fe ff
	ff		 lea	 ecx, DWORD PTR _kPrinter$[ebp]
  000a1	e8 00 00 00 00	 call	 ?SetTextColor@ioComplexStringPrinter@@QAEXHHH@Z ; ioComplexStringPrinter::SetTextColor

; 1255 : 	//kPrinter.SetTextColor( 141, 87, 4 );		
; 1256 : 	kPrinter.AddTextPiece( FONT_SIZE_12, STR(1) );

  000a6	6a 00		 push	 0
  000a8	6a 01		 push	 1
  000aa	68 00 00 00 00	 push	 OFFSET ??_C@_00CNPNBAHC@?$AA@
  000af	68 00 00 00 00	 push	 OFFSET ??_C@_0CG@KIDMNJKE@RisingGashaponWnd?3?3OnRenderAfter@
  000b4	ff 15 00 00 00
	00		 call	 DWORD PTR __imp_?GetSingleton@ioStringManager@@SAAAV1@XZ
  000ba	8b c8		 mov	 ecx, eax
  000bc	ff 15 00 00 00
	00		 call	 DWORD PTR __imp_?GetString@ioStringManager@@QAEPADPBD0HW4FileNamePrefix@1@@Z
  000c2	f3 0f 10 05 00
	00 00 00	 movss	 xmm0, DWORD PTR __real@3f19999a
  000ca	50		 push	 eax
  000cb	51		 push	 ecx
  000cc	8d 85 cc fe ff
	ff		 lea	 eax, DWORD PTR _kPrinter$[ebp]
  000d2	f3 0f 11 04 24	 movss	 DWORD PTR [esp], xmm0
  000d7	50		 push	 eax
  000d8	e8 00 00 00 00	 call	 ?AddTextPiece@ioComplexStringPrinter@@QAAXMPBDZZ ; ioComplexStringPrinter::AddTextPiece

; 1257 : 	kPrinter.AddTextPiece( FONT_SIZE_12, szCash );

  000dd	f3 0f 10 05 00
	00 00 00	 movss	 xmm0, DWORD PTR __real@3f19999a
  000e5	83 c4 0c	 add	 esp, 12			; 0000000cH
  000e8	8d 85 ec fe ff
	ff		 lea	 eax, DWORD PTR _szCash$[ebp]
  000ee	50		 push	 eax
  000ef	51		 push	 ecx
  000f0	8d 85 cc fe ff
	ff		 lea	 eax, DWORD PTR _kPrinter$[ebp]
  000f6	f3 0f 11 04 24	 movss	 DWORD PTR [esp], xmm0
  000fb	50		 push	 eax
  000fc	e8 00 00 00 00	 call	 ?AddTextPiece@ioComplexStringPrinter@@QAAXMPBDZZ ; ioComplexStringPrinter::AddTextPiece
  00101	83 c4 0c	 add	 esp, 12			; 0000000cH

; 1258 : 
; 1259 : 	kPrinter.PrintFullText( iXPos + X_OFFSET, iYPos + Y_OFFSET, TAT_RIGHT );

  00104	56		 push	 esi
  00105	6a 02		 push	 2
  00107	51		 push	 ecx
  00108	0f 57 c0	 xorps	 xmm0, xmm0
  0010b	51		 push	 ecx
  0010c	83 c3 0e	 add	 ebx, 14			; 0000000eH
  0010f	f3 0f 2a c3	 cvtsi2ss xmm0, ebx
  00113	f3 0f 11 44 24
	04		 movss	 DWORD PTR [esp+4], xmm0
  00119	81 c7 00 01 00
	00		 add	 edi, 256		; 00000100H
  0011f	0f 57 c0	 xorps	 xmm0, xmm0
  00122	f3 0f 2a c7	 cvtsi2ss xmm0, edi
  00126	8d 8d cc fe ff
	ff		 lea	 ecx, DWORD PTR _kPrinter$[ebp]
  0012c	f3 0f 11 04 24	 movss	 DWORD PTR [esp], xmm0
  00131	e8 00 00 00 00	 call	 ?PrintFullText@ioComplexStringPrinter@@QAEXMMW4TextAlignType@@E@Z ; ioComplexStringPrinter::PrintFullText

; 1260 : 	kPrinter.ClearList();

  00136	8d 8d cc fe ff
	ff		 lea	 ecx, DWORD PTR _kPrinter$[ebp]
  0013c	e8 00 00 00 00	 call	 ?ClearList@ioComplexStringPrinter@@QAEXXZ ; ioComplexStringPrinter::ClearList

; 1261 : 
; 1262 : }

  00141	83 4d fc ff	 or	 DWORD PTR __$EHRec$[ebp+8], -1
  00145	8d 8d cc fe ff
	ff		 lea	 ecx, DWORD PTR _kPrinter$[ebp]
  0014b	e8 00 00 00 00	 call	 ??1ioComplexStringPrinter@@QAE@XZ ; ioComplexStringPrinter::~ioComplexStringPrinter
  00150	e8 00 00 00 00	 call	 __EH_epilog3_GS
  00155	c3		 ret	 0
_TEXT	ENDS
;	COMDAT text$x
text$x	SEGMENT
__unwindfunclet$?OnRenderAfterChild@RisingGashaponWnd@@MAEXXZ$0:
  00000	8d 8d cc fe ff
	ff		 lea	 ecx, DWORD PTR _kPrinter$[ebp]
  00006	e9 00 00 00 00	 jmp	 ??1ioComplexStringPrinter@@QAE@XZ ; ioComplexStringPrinter::~ioComplexStringPrinter
__ehhandler$?OnRenderAfterChild@RisingGashaponWnd@@MAEXXZ:
  0000b	8b 54 24 08	 mov	 edx, DWORD PTR [esp+8]
  0000f	8d 42 0c	 lea	 eax, DWORD PTR [edx+12]
  00012	8b 8a c8 fe ff
	ff		 mov	 ecx, DWORD PTR [edx-312]
  00018	33 c8		 xor	 ecx, eax
  0001a	e8 00 00 00 00	 call	 @__security_check_cookie@4
  0001f	8b 4a fc	 mov	 ecx, DWORD PTR [edx-4]
  00022	33 c8		 xor	 ecx, eax
  00024	e8 00 00 00 00	 call	 @__security_check_cookie@4
  00029	b8 00 00 00 00	 mov	 eax, OFFSET __ehfuncinfo$?OnRenderAfterChild@RisingGashaponWnd@@MAEXXZ
  0002e	e9 00 00 00 00	 jmp	 ___CxxFrameHandler3
text$x	ENDS
?OnRenderAfterChild@RisingGashaponWnd@@MAEXXZ ENDP	; RisingGashaponWnd::OnRenderAfterChild
PUBLIC	?iwm_esc@RisingGashaponWnd@@UAE_NXZ		; RisingGashaponWnd::iwm_esc
; Function compile flags: /Ogsp
;	COMDAT ?iwm_esc@RisingGashaponWnd@@UAE_NXZ
_TEXT	SEGMENT
?iwm_esc@RisingGashaponWnd@@UAE_NXZ PROC		; RisingGashaponWnd::iwm_esc, COMDAT
; _this$ = ecx

; 1266 : 	ShowExitMsg();

  00000	e8 00 00 00 00	 call	 ?ShowExitMsg@RisingGashaponWnd@@IAEXXZ ; RisingGashaponWnd::ShowExitMsg

; 1267 : 	return true;

  00005	b0 01		 mov	 al, 1

; 1268 : }

  00007	c3		 ret	 0
?iwm_esc@RisingGashaponWnd@@UAE_NXZ ENDP		; RisingGashaponWnd::iwm_esc
_TEXT	ENDS
PUBLIC	??_C@_0BH@LJGOMNKA@Can?8t?5find?5Present?0?5?$CFd?$AA@ ; `string'
PUBLIC	??_C@_0BF@NOLPPGAJ@?$CFs?5Unknown?5Error?0?5?$CFd?$AA@ ; `string'
PUBLIC	??_C@_0BN@FKJDDGLN@RisingGashaponWnd?3?3ShowError?$AA@ ; `string'
PUBLIC	?ShowError@RisingGashaponWnd@@IAEXW4ErrorNumType@1@@Z ; RisingGashaponWnd::ShowError
EXTRN	__imp_?PrintTimeAndLog@CLog@@QAAXHPADZZ:PROC
EXTRN	__imp_?LOG@@3VCLog@@A:BYTE
;	COMDAT ??_C@_0BH@LJGOMNKA@Can?8t?5find?5Present?0?5?$CFd?$AA@
CONST	SEGMENT
??_C@_0BH@LJGOMNKA@Can?8t?5find?5Present?0?5?$CFd?$AA@ DB 'Can''t find Pr'
	DB	'esent, %d', 00H				; `string'
CONST	ENDS
;	COMDAT ??_C@_0BF@NOLPPGAJ@?$CFs?5Unknown?5Error?0?5?$CFd?$AA@
CONST	SEGMENT
??_C@_0BF@NOLPPGAJ@?$CFs?5Unknown?5Error?0?5?$CFd?$AA@ DB '%s Unknown Err'
	DB	'or, %d', 00H				; `string'
CONST	ENDS
;	COMDAT ??_C@_0BN@FKJDDGLN@RisingGashaponWnd?3?3ShowError?$AA@
CONST	SEGMENT
??_C@_0BN@FKJDDGLN@RisingGashaponWnd?3?3ShowError?$AA@ DB 'RisingGashapon'
	DB	'Wnd::ShowError', 00H			; `string'
; Function compile flags: /Ogsp
CONST	ENDS
;	COMDAT ?ShowError@RisingGashaponWnd@@IAEXW4ErrorNumType@1@@Z
_TEXT	SEGMENT
_eErrorType$ = 8					; size = 4
?ShowError@RisingGashaponWnd@@IAEXW4ErrorNumType@1@@Z PROC ; RisingGashaponWnd::ShowError, COMDAT
; _this$ = ecx

; 1271 : {

  00000	55		 push	 ebp
  00001	8b ec		 mov	 ebp, esp
  00003	53		 push	 ebx

; 1272 : 	switch (eErrorType)

  00004	33 db		 xor	 ebx, ebx
  00006	57		 push	 edi
  00007	8b f9		 mov	 edi, ecx
  00009	39 5d 08	 cmp	 DWORD PTR _eErrorType$[ebp], ebx
  0000c	74 4a		 je	 SHORT $LN2@ShowError

; 1277 : 		break;
; 1278 : 	default:
; 1279 : 		g_GUIMgr.SetMsgBox( MB_OK, this, STR(1) );

  0000e	56		 push	 esi
  0000f	53		 push	 ebx
  00010	6a 01		 push	 1
  00012	68 00 00 00 00	 push	 OFFSET ??_C@_00CNPNBAHC@?$AA@
  00017	be 00 00 00 00	 mov	 esi, OFFSET ??_C@_0BN@FKJDDGLN@RisingGashaponWnd?3?3ShowError?$AA@
  0001c	56		 push	 esi
  0001d	ff 15 00 00 00
	00		 call	 DWORD PTR __imp_?GetSingleton@ioStringManager@@SAAAV1@XZ
  00023	8b c8		 mov	 ecx, eax
  00025	ff 15 00 00 00
	00		 call	 DWORD PTR __imp_?GetString@ioStringManager@@QAEPADPBD0HW4FileNamePrefix@1@@Z
  0002b	50		 push	 eax
  0002c	57		 push	 edi
  0002d	53		 push	 ebx
  0002e	e8 00 00 00 00	 call	 ?GetSingleton@ioSP2GUIManager@@SAAAV1@XZ ; ioSP2GUIManager::GetSingleton
  00033	50		 push	 eax
  00034	e8 00 00 00 00	 call	 ?SetMsgBox@ioSP2GUIManager@@QAAXHPAVioWnd@@PBDZZ ; ioSP2GUIManager::SetMsgBox

; 1280 : 		LOG.PrintTimeAndLog(0, "%s Unknown Error, %d", __FUNCTION__, m_iEtcItemType);

  00039	ff b7 c8 01 00
	00		 push	 DWORD PTR [edi+456]
  0003f	56		 push	 esi
  00040	68 00 00 00 00	 push	 OFFSET ??_C@_0BF@NOLPPGAJ@?$CFs?5Unknown?5Error?0?5?$CFd?$AA@
  00045	53		 push	 ebx
  00046	ff 35 00 00 00
	00		 push	 DWORD PTR __imp_?LOG@@3VCLog@@A
  0004c	ff 15 00 00 00
	00		 call	 DWORD PTR __imp_?PrintTimeAndLog@CLog@@QAAXHPADZZ
  00052	83 c4 24	 add	 esp, 36			; 00000024H
  00055	5e		 pop	 esi

; 1281 : 		break;

  00056	eb 44		 jmp	 SHORT $LN3@ShowError
$LN2@ShowError:

; 1273 : 	{
; 1274 : 	case eERROR_NUM_TYPE_PRESENT_CANT_FIND:
; 1275 : 		g_GUIMgr.SetMsgBox( MB_OK, this, STR(2) );

  00058	53		 push	 ebx
  00059	6a 02		 push	 2
  0005b	68 00 00 00 00	 push	 OFFSET ??_C@_00CNPNBAHC@?$AA@
  00060	68 00 00 00 00	 push	 OFFSET ??_C@_0BN@FKJDDGLN@RisingGashaponWnd?3?3ShowError?$AA@
  00065	ff 15 00 00 00
	00		 call	 DWORD PTR __imp_?GetSingleton@ioStringManager@@SAAAV1@XZ
  0006b	8b c8		 mov	 ecx, eax
  0006d	ff 15 00 00 00
	00		 call	 DWORD PTR __imp_?GetString@ioStringManager@@QAEPADPBD0HW4FileNamePrefix@1@@Z
  00073	50		 push	 eax
  00074	57		 push	 edi
  00075	53		 push	 ebx
  00076	e8 00 00 00 00	 call	 ?GetSingleton@ioSP2GUIManager@@SAAAV1@XZ ; ioSP2GUIManager::GetSingleton
  0007b	50		 push	 eax
  0007c	e8 00 00 00 00	 call	 ?SetMsgBox@ioSP2GUIManager@@QAAXHPAVioWnd@@PBDZZ ; ioSP2GUIManager::SetMsgBox

; 1276 : 		LOG.PrintTimeAndLog(0, "Can't find Present, %d", m_iEtcItemType);

  00081	ff b7 c8 01 00
	00		 push	 DWORD PTR [edi+456]
  00087	68 00 00 00 00	 push	 OFFSET ??_C@_0BH@LJGOMNKA@Can?8t?5find?5Present?0?5?$CFd?$AA@
  0008c	53		 push	 ebx
  0008d	ff 35 00 00 00
	00		 push	 DWORD PTR __imp_?LOG@@3VCLog@@A
  00093	ff 15 00 00 00
	00		 call	 DWORD PTR __imp_?PrintTimeAndLog@CLog@@QAAXHPADZZ
  00099	83 c4 20	 add	 esp, 32			; 00000020H
$LN3@ShowError:
  0009c	5f		 pop	 edi
  0009d	5b		 pop	 ebx

; 1282 : 	}
; 1283 : }

  0009e	5d		 pop	 ebp
  0009f	c2 04 00	 ret	 4
?ShowError@RisingGashaponWnd@@IAEXW4ErrorNumType@1@@Z ENDP ; RisingGashaponWnd::ShowError
_TEXT	ENDS
PUBLIC	??A?$vector@VioHashString@@V?$allocator@VioHashString@@@std@@@std@@QAEAAVioHashString@@I@Z ; std::vector<ioHashString,std::allocator<ioHashString> >::operator[]
; Function compile flags: /Ogsp
; File c:\program files (x86)\microsoft visual studio 10.0\vc\include\vector
;	COMDAT ??A?$vector@VioHashString@@V?$allocator@VioHashString@@@std@@@std@@QAEAAVioHashString@@I@Z
_TEXT	SEGMENT
__Pos$ = 8						; size = 4
??A?$vector@VioHashString@@V?$allocator@VioHashString@@@std@@@std@@QAEAAVioHashString@@I@Z PROC ; std::vector<ioHashString,std::allocator<ioHashString> >::operator[], COMDAT
; _this$ = ecx

; 928  : 		{	// subscript mutable sequence

  00000	55		 push	 ebp
  00001	8b ec		 mov	 ebp, esp

; 929  :  #if _ITERATOR_DEBUG_LEVEL == 2
; 930  : 		if (size() <= _Pos)
; 931  : 			{	// report error
; 932  : 			_DEBUG_ERROR("vector subscript out of range");
; 933  : 			_SCL_SECURE_OUT_OF_RANGE;
; 934  : 			}
; 935  : 
; 936  :  #elif _ITERATOR_DEBUG_LEVEL == 1
; 937  : 		_SCL_SECURE_VALIDATE_RANGE(_Pos < size());
; 938  :  #endif /* _ITERATOR_DEBUG_LEVEL */
; 939  : 
; 940  : 		return (*(this->_Myfirst + _Pos));

  00003	8b 45 08	 mov	 eax, DWORD PTR __Pos$[ebp]
  00006	c1 e0 04	 shl	 eax, 4
  00009	03 01		 add	 eax, DWORD PTR [ecx]

; 941  : 		}

  0000b	5d		 pop	 ebp
  0000c	c2 04 00	 ret	 4
??A?$vector@VioHashString@@V?$allocator@VioHashString@@@std@@@std@@QAEAAVioHashString@@I@Z ENDP ; std::vector<ioHashString,std::allocator<ioHashString> >::operator[]
_TEXT	ENDS
PUBLIC	?size@?$vector@V?$basic_string@DU?$char_traits@D@std@@V?$allocator@D@2@@std@@V?$allocator@V?$basic_string@DU?$char_traits@D@std@@V?$allocator@D@2@@std@@@2@@std@@QBEIXZ ; std::vector<std::basic_string<char,std::char_traits<char>,std::allocator<char> >,std::allocator<std::basic_string<char,std::char_traits<char>,std::allocator<char> > > >::size
; Function compile flags: /Ogsp
;	COMDAT ?size@?$vector@V?$basic_string@DU?$char_traits@D@std@@V?$allocator@D@2@@std@@V?$allocator@V?$basic_string@DU?$char_traits@D@std@@V?$allocator@D@2@@std@@@2@@std@@QBEIXZ
_TEXT	SEGMENT
?size@?$vector@V?$basic_string@DU?$char_traits@D@std@@V?$allocator@D@2@@std@@V?$allocator@V?$basic_string@DU?$char_traits@D@std@@V?$allocator@D@2@@std@@@2@@std@@QBEIXZ PROC ; std::vector<std::basic_string<char,std::char_traits<char>,std::allocator<char> >,std::allocator<std::basic_string<char,std::char_traits<char>,std::allocator<char> > > >::size, COMDAT
; _this$ = ecx

; 879  : 		return (this->_Mylast - this->_Myfirst);

  00000	8b 41 04	 mov	 eax, DWORD PTR [ecx+4]
  00003	2b 01		 sub	 eax, DWORD PTR [ecx]
  00005	6a 1c		 push	 28			; 0000001cH
  00007	99		 cdq
  00008	59		 pop	 ecx
  00009	f7 f9		 idiv	 ecx

; 880  : 		}

  0000b	c3		 ret	 0
?size@?$vector@V?$basic_string@DU?$char_traits@D@std@@V?$allocator@D@2@@std@@V?$allocator@V?$basic_string@DU?$char_traits@D@std@@V?$allocator@D@2@@std@@@2@@std@@QBEIXZ ENDP ; std::vector<std::basic_string<char,std::char_traits<char>,std::allocator<char> >,std::allocator<std::basic_string<char,std::char_traits<char>,std::allocator<char> > > >::size
_TEXT	ENDS
PUBLIC	?empty@?$vector@V?$basic_string@DU?$char_traits@D@std@@V?$allocator@D@2@@std@@V?$allocator@V?$basic_string@DU?$char_traits@D@std@@V?$allocator@D@2@@std@@@2@@std@@QBE_NXZ ; std::vector<std::basic_string<char,std::char_traits<char>,std::allocator<char> >,std::allocator<std::basic_string<char,std::char_traits<char>,std::allocator<char> > > >::empty
; Function compile flags: /Ogsp
;	COMDAT ?empty@?$vector@V?$basic_string@DU?$char_traits@D@std@@V?$allocator@D@2@@std@@V?$allocator@V?$basic_string@DU?$char_traits@D@std@@V?$allocator@D@2@@std@@@2@@std@@QBE_NXZ
_TEXT	SEGMENT
?empty@?$vector@V?$basic_string@DU?$char_traits@D@std@@V?$allocator@D@2@@std@@V?$allocator@V?$basic_string@DU?$char_traits@D@std@@V?$allocator@D@2@@std@@@2@@std@@QBE_NXZ PROC ; std::vector<std::basic_string<char,std::char_traits<char>,std::allocator<char> >,std::allocator<std::basic_string<char,std::char_traits<char>,std::allocator<char> > > >::empty, COMDAT
; _this$ = ecx

; 889  : 		return (this->_Myfirst == this->_Mylast);

  00000	8b 01		 mov	 eax, DWORD PTR [ecx]
  00002	2b 41 04	 sub	 eax, DWORD PTR [ecx+4]
  00005	f7 d8		 neg	 eax
  00007	1b c0		 sbb	 eax, eax
  00009	40		 inc	 eax

; 890  : 		}

  0000a	c3		 ret	 0
?empty@?$vector@V?$basic_string@DU?$char_traits@D@std@@V?$allocator@D@2@@std@@V?$allocator@V?$basic_string@DU?$char_traits@D@std@@V?$allocator@D@2@@std@@@2@@std@@QBE_NXZ ENDP ; std::vector<std::basic_string<char,std::char_traits<char>,std::allocator<char> >,std::allocator<std::basic_string<char,std::char_traits<char>,std::allocator<char> > > >::empty
_TEXT	ENDS
PUBLIC	??A?$vector@V?$basic_string@DU?$char_traits@D@std@@V?$allocator@D@2@@std@@V?$allocator@V?$basic_string@DU?$char_traits@D@std@@V?$allocator@D@2@@std@@@2@@std@@QAEAAV?$basic_string@DU?$char_traits@D@std@@V?$allocator@D@2@@1@I@Z ; std::vector<std::basic_string<char,std::char_traits<char>,std::allocator<char> >,std::allocator<std::basic_string<char,std::char_traits<char>,std::allocator<char> > > >::operator[]
; Function compile flags: /Ogsp
;	COMDAT ??A?$vector@V?$basic_string@DU?$char_traits@D@std@@V?$allocator@D@2@@std@@V?$allocator@V?$basic_string@DU?$char_traits@D@std@@V?$allocator@D@2@@std@@@2@@std@@QAEAAV?$basic_string@DU?$char_traits@D@std@@V?$allocator@D@2@@1@I@Z
_TEXT	SEGMENT
__Pos$ = 8						; size = 4
??A?$vector@V?$basic_string@DU?$char_traits@D@std@@V?$allocator@D@2@@std@@V?$allocator@V?$basic_string@DU?$char_traits@D@std@@V?$allocator@D@2@@std@@@2@@std@@QAEAAV?$basic_string@DU?$char_traits@D@std@@V?$allocator@D@2@@1@I@Z PROC ; std::vector<std::basic_string<char,std::char_traits<char>,std::allocator<char> >,std::allocator<std::basic_string<char,std::char_traits<char>,std::allocator<char> > > >::operator[], COMDAT
; _this$ = ecx

; 928  : 		{	// subscript mutable sequence

  00000	55		 push	 ebp
  00001	8b ec		 mov	 ebp, esp

; 929  :  #if _ITERATOR_DEBUG_LEVEL == 2
; 930  : 		if (size() <= _Pos)
; 931  : 			{	// report error
; 932  : 			_DEBUG_ERROR("vector subscript out of range");
; 933  : 			_SCL_SECURE_OUT_OF_RANGE;
; 934  : 			}
; 935  : 
; 936  :  #elif _ITERATOR_DEBUG_LEVEL == 1
; 937  : 		_SCL_SECURE_VALIDATE_RANGE(_Pos < size());
; 938  :  #endif /* _ITERATOR_DEBUG_LEVEL */
; 939  : 
; 940  : 		return (*(this->_Myfirst + _Pos));

  00003	8b 45 08	 mov	 eax, DWORD PTR __Pos$[ebp]
  00006	6b c0 1c	 imul	 eax, 28			; 0000001cH
  00009	03 01		 add	 eax, DWORD PTR [ecx]

; 941  : 		}

  0000b	5d		 pop	 ebp
  0000c	c2 04 00	 ret	 4
??A?$vector@V?$basic_string@DU?$char_traits@D@std@@V?$allocator@D@2@@std@@V?$allocator@V?$basic_string@DU?$char_traits@D@std@@V?$allocator@D@2@@std@@@2@@std@@QAEAAV?$basic_string@DU?$char_traits@D@std@@V?$allocator@D@2@@1@I@Z ENDP ; std::vector<std::basic_string<char,std::char_traits<char>,std::allocator<char> >,std::allocator<std::basic_string<char,std::char_traits<char>,std::allocator<char> > > >::operator[]
_TEXT	ENDS
PUBLIC	?GetSingleton@?$Singleton@VioEtcItemManager@@@@SAAAVioEtcItemManager@@XZ ; Singleton<ioEtcItemManager>::GetSingleton
EXTRN	?ms_Singleton@?$Singleton@VioEtcItemManager@@@@1PAVioEtcItemManager@@A:DWORD ; Singleton<ioEtcItemManager>::ms_Singleton
; Function compile flags: /Ogsp
; File d:\lost saga for developer\youtube\tutorial\source\src\io3dengine\iosingleton.h
;	COMDAT ?GetSingleton@?$Singleton@VioEtcItemManager@@@@SAAAVioEtcItemManager@@XZ
_TEXT	SEGMENT
?GetSingleton@?$Singleton@VioEtcItemManager@@@@SAAAVioEtcItemManager@@XZ PROC ; Singleton<ioEtcItemManager>::GetSingleton, COMDAT

; 42   : 		assert( ms_Singleton );
; 43   : 		return (*ms_Singleton);

  00000	a1 00 00 00 00	 mov	 eax, DWORD PTR ?ms_Singleton@?$Singleton@VioEtcItemManager@@@@1PAVioEtcItemManager@@A ; Singleton<ioEtcItemManager>::ms_Singleton

; 44   : 	}

  00005	c3		 ret	 0
?GetSingleton@?$Singleton@VioEtcItemManager@@@@SAAAVioEtcItemManager@@XZ ENDP ; Singleton<ioEtcItemManager>::GetSingleton
_TEXT	ENDS
PUBLIC	?size@?$vector@VGashaponPresent@@V?$allocator@VGashaponPresent@@@std@@@std@@QBEIXZ ; std::vector<GashaponPresent,std::allocator<GashaponPresent> >::size
; Function compile flags: /Ogsp
; File c:\program files (x86)\microsoft visual studio 10.0\vc\include\vector
;	COMDAT ?size@?$vector@VGashaponPresent@@V?$allocator@VGashaponPresent@@@std@@@std@@QBEIXZ
_TEXT	SEGMENT
?size@?$vector@VGashaponPresent@@V?$allocator@VGashaponPresent@@@std@@@std@@QBEIXZ PROC ; std::vector<GashaponPresent,std::allocator<GashaponPresent> >::size, COMDAT
; _this$ = ecx

; 879  : 		return (this->_Mylast - this->_Myfirst);

  00000	8b 41 04	 mov	 eax, DWORD PTR [ecx+4]
  00003	2b 01		 sub	 eax, DWORD PTR [ecx]
  00005	6a 14		 push	 20			; 00000014H
  00007	99		 cdq
  00008	59		 pop	 ecx
  00009	f7 f9		 idiv	 ecx

; 880  : 		}

  0000b	c3		 ret	 0
?size@?$vector@VGashaponPresent@@V?$allocator@VGashaponPresent@@@std@@@std@@QBEIXZ ENDP ; std::vector<GashaponPresent,std::allocator<GashaponPresent> >::size
_TEXT	ENDS
PUBLIC	??A?$vector@VGashaponPresent@@V?$allocator@VGashaponPresent@@@std@@@std@@QAEAAVGashaponPresent@@I@Z ; std::vector<GashaponPresent,std::allocator<GashaponPresent> >::operator[]
; Function compile flags: /Ogsp
;	COMDAT ??A?$vector@VGashaponPresent@@V?$allocator@VGashaponPresent@@@std@@@std@@QAEAAVGashaponPresent@@I@Z
_TEXT	SEGMENT
__Pos$ = 8						; size = 4
??A?$vector@VGashaponPresent@@V?$allocator@VGashaponPresent@@@std@@@std@@QAEAAVGashaponPresent@@I@Z PROC ; std::vector<GashaponPresent,std::allocator<GashaponPresent> >::operator[], COMDAT
; _this$ = ecx

; 928  : 		{	// subscript mutable sequence

  00000	55		 push	 ebp
  00001	8b ec		 mov	 ebp, esp

; 929  :  #if _ITERATOR_DEBUG_LEVEL == 2
; 930  : 		if (size() <= _Pos)
; 931  : 			{	// report error
; 932  : 			_DEBUG_ERROR("vector subscript out of range");
; 933  : 			_SCL_SECURE_OUT_OF_RANGE;
; 934  : 			}
; 935  : 
; 936  :  #elif _ITERATOR_DEBUG_LEVEL == 1
; 937  : 		_SCL_SECURE_VALIDATE_RANGE(_Pos < size());
; 938  :  #endif /* _ITERATOR_DEBUG_LEVEL */
; 939  : 
; 940  : 		return (*(this->_Myfirst + _Pos));

  00003	8b 45 08	 mov	 eax, DWORD PTR __Pos$[ebp]
  00006	6b c0 14	 imul	 eax, 20			; 00000014H
  00009	03 01		 add	 eax, DWORD PTR [ecx]

; 941  : 		}

  0000b	5d		 pop	 ebp
  0000c	c2 04 00	 ret	 4
??A?$vector@VGashaponPresent@@V?$allocator@VGashaponPresent@@@std@@@std@@QAEAAVGashaponPresent@@I@Z ENDP ; std::vector<GashaponPresent,std::allocator<GashaponPresent> >::operator[]
_TEXT	ENDS
PUBLIC	?capacity@?$vector@VioHashString@@V?$allocator@VioHashString@@@std@@@std@@QBEIXZ ; std::vector<ioHashString,std::allocator<ioHashString> >::capacity
; Function compile flags: /Ogsp
;	COMDAT ?capacity@?$vector@VioHashString@@V?$allocator@VioHashString@@@std@@@std@@QBEIXZ
_TEXT	SEGMENT
?capacity@?$vector@VioHashString@@V?$allocator@VioHashString@@@std@@@std@@QBEIXZ PROC ; std::vector<ioHashString,std::allocator<ioHashString> >::capacity, COMDAT
; _this$ = ecx

; 777  : 		return (this->_Myend - this->_Myfirst);

  00000	8b 41 08	 mov	 eax, DWORD PTR [ecx+8]
  00003	2b 01		 sub	 eax, DWORD PTR [ecx]
  00005	c1 f8 04	 sar	 eax, 4

; 778  : 		}

  00008	c3		 ret	 0
?capacity@?$vector@VioHashString@@V?$allocator@VioHashString@@@std@@@std@@QBEIXZ ENDP ; std::vector<ioHashString,std::allocator<ioHashString> >::capacity
_TEXT	ENDS
PUBLIC	?_Inside@?$vector@VioHashString@@V?$allocator@VioHashString@@@std@@@std@@IBE_NPBVioHashString@@@Z ; std::vector<ioHashString,std::allocator<ioHashString> >::_Inside
; Function compile flags: /Ogsp
;	COMDAT ?_Inside@?$vector@VioHashString@@V?$allocator@VioHashString@@@std@@@std@@IBE_NPBVioHashString@@@Z
_TEXT	SEGMENT
__Ptr$ = 8						; size = 4
?_Inside@?$vector@VioHashString@@V?$allocator@VioHashString@@@std@@@std@@IBE_NPBVioHashString@@@Z PROC ; std::vector<ioHashString,std::allocator<ioHashString> >::_Inside, COMDAT
; _this$ = ecx

; 1285 : 		{	// test if _Ptr points inside vector

  00000	55		 push	 ebp
  00001	8b ec		 mov	 ebp, esp

; 1286 : 		return (_Ptr < this->_Mylast && this->_Myfirst <= _Ptr);

  00003	8b 45 08	 mov	 eax, DWORD PTR __Ptr$[ebp]
  00006	3b 41 04	 cmp	 eax, DWORD PTR [ecx+4]
  00009	73 09		 jae	 SHORT $LN3@Inside
  0000b	39 01		 cmp	 DWORD PTR [ecx], eax
  0000d	77 05		 ja	 SHORT $LN3@Inside
  0000f	33 c0		 xor	 eax, eax
  00011	40		 inc	 eax
  00012	eb 02		 jmp	 SHORT $LN4@Inside
$LN3@Inside:
  00014	33 c0		 xor	 eax, eax
$LN4@Inside:

; 1287 : 		}

  00016	5d		 pop	 ebp
  00017	c2 04 00	 ret	 4
?_Inside@?$vector@VioHashString@@V?$allocator@VioHashString@@@std@@@std@@IBE_NPBVioHashString@@@Z ENDP ; std::vector<ioHashString,std::allocator<ioHashString> >::_Inside
_TEXT	ENDS
PUBLIC	?_Orphan_range@?$vector@VioHashString@@V?$allocator@VioHashString@@@std@@@std@@IBEXPAVioHashString@@0@Z ; std::vector<ioHashString,std::allocator<ioHashString> >::_Orphan_range
; Function compile flags: /Ogsp
;	COMDAT ?_Orphan_range@?$vector@VioHashString@@V?$allocator@VioHashString@@@std@@@std@@IBEXPAVioHashString@@0@Z
_TEXT	SEGMENT
___formal$ = 8						; size = 4
___formal$ = 12						; size = 4
?_Orphan_range@?$vector@VioHashString@@V?$allocator@VioHashString@@@std@@@std@@IBEXPAVioHashString@@0@Z PROC ; std::vector<ioHashString,std::allocator<ioHashString> >::_Orphan_range, COMDAT
; _this$ = ecx

; 1454 : 		}

  00000	c2 08 00	 ret	 8
?_Orphan_range@?$vector@VioHashString@@V?$allocator@VioHashString@@@std@@@std@@IBEXPAVioHashString@@0@Z ENDP ; std::vector<ioHashString,std::allocator<ioHashString> >::_Orphan_range
_TEXT	ENDS
PUBLIC	??0?$allocator@V?$basic_string@DU?$char_traits@D@std@@V?$allocator@D@2@@std@@@std@@QAE@XZ ; std::allocator<std::basic_string<char,std::char_traits<char>,std::allocator<char> > >::allocator<std::basic_string<char,std::char_traits<char>,std::allocator<char> > >
; Function compile flags: /Ogsp
; File c:\program files (x86)\microsoft visual studio 10.0\vc\include\xmemory
;	COMDAT ??0?$allocator@V?$basic_string@DU?$char_traits@D@std@@V?$allocator@D@2@@std@@@std@@QAE@XZ
_TEXT	SEGMENT
??0?$allocator@V?$basic_string@DU?$char_traits@D@std@@V?$allocator@D@2@@std@@@std@@QAE@XZ PROC ; std::allocator<std::basic_string<char,std::char_traits<char>,std::allocator<char> > >::allocator<std::basic_string<char,std::char_traits<char>,std::allocator<char> > >, COMDAT
; _this$ = ecx

; 161  : 	_ALLOCATOR() _THROW0()

  00000	8b c1		 mov	 eax, ecx

; 162  : 		{	// construct default allocator (do nothing)
; 163  : 		}

  00002	c3		 ret	 0
??0?$allocator@V?$basic_string@DU?$char_traits@D@std@@V?$allocator@D@2@@std@@@std@@QAE@XZ ENDP ; std::allocator<std::basic_string<char,std::char_traits<char>,std::allocator<char> > >::allocator<std::basic_string<char,std::char_traits<char>,std::allocator<char> > >
_TEXT	ENDS
PUBLIC	?_Inside@?$vector@HV?$allocator@H@std@@@std@@IBE_NPBH@Z ; std::vector<int,std::allocator<int> >::_Inside
; Function compile flags: /Ogsp
; File c:\program files (x86)\microsoft visual studio 10.0\vc\include\vector
;	COMDAT ?_Inside@?$vector@HV?$allocator@H@std@@@std@@IBE_NPBH@Z
_TEXT	SEGMENT
__Ptr$ = 8						; size = 4
?_Inside@?$vector@HV?$allocator@H@std@@@std@@IBE_NPBH@Z PROC ; std::vector<int,std::allocator<int> >::_Inside, COMDAT
; _this$ = ecx

; 1285 : 		{	// test if _Ptr points inside vector

  00000	55		 push	 ebp
  00001	8b ec		 mov	 ebp, esp

; 1286 : 		return (_Ptr < this->_Mylast && this->_Myfirst <= _Ptr);

  00003	8b 45 08	 mov	 eax, DWORD PTR __Ptr$[ebp]
  00006	3b 41 04	 cmp	 eax, DWORD PTR [ecx+4]
  00009	73 09		 jae	 SHORT $LN3@Inside@2
  0000b	39 01		 cmp	 DWORD PTR [ecx], eax
  0000d	77 05		 ja	 SHORT $LN3@Inside@2
  0000f	33 c0		 xor	 eax, eax
  00011	40		 inc	 eax
  00012	eb 02		 jmp	 SHORT $LN4@Inside@2
$LN3@Inside@2:
  00014	33 c0		 xor	 eax, eax
$LN4@Inside@2:

; 1287 : 		}

  00016	5d		 pop	 ebp
  00017	c2 04 00	 ret	 4
?_Inside@?$vector@HV?$allocator@H@std@@@std@@IBE_NPBH@Z ENDP ; std::vector<int,std::allocator<int> >::_Inside
_TEXT	ENDS
PUBLIC	?_Orphan_range@?$vector@HV?$allocator@H@std@@@std@@IBEXPAH0@Z ; std::vector<int,std::allocator<int> >::_Orphan_range
; Function compile flags: /Ogsp
;	COMDAT ?_Orphan_range@?$vector@HV?$allocator@H@std@@@std@@IBEXPAH0@Z
_TEXT	SEGMENT
___formal$ = 8						; size = 4
___formal$ = 12						; size = 4
?_Orphan_range@?$vector@HV?$allocator@H@std@@@std@@IBEXPAH0@Z PROC ; std::vector<int,std::allocator<int> >::_Orphan_range, COMDAT
; _this$ = ecx

; 1454 : 		}

  00000	c2 08 00	 ret	 8
?_Orphan_range@?$vector@HV?$allocator@H@std@@@std@@IBEXPAH0@Z ENDP ; std::vector<int,std::allocator<int> >::_Orphan_range
_TEXT	ENDS
PUBLIC	?capacity@?$vector@VGashaponPresent@@V?$allocator@VGashaponPresent@@@std@@@std@@QBEIXZ ; std::vector<GashaponPresent,std::allocator<GashaponPresent> >::capacity
; Function compile flags: /Ogsp
;	COMDAT ?capacity@?$vector@VGashaponPresent@@V?$allocator@VGashaponPresent@@@std@@@std@@QBEIXZ
_TEXT	SEGMENT
?capacity@?$vector@VGashaponPresent@@V?$allocator@VGashaponPresent@@@std@@@std@@QBEIXZ PROC ; std::vector<GashaponPresent,std::allocator<GashaponPresent> >::capacity, COMDAT
; _this$ = ecx

; 777  : 		return (this->_Myend - this->_Myfirst);

  00000	8b 41 08	 mov	 eax, DWORD PTR [ecx+8]
  00003	2b 01		 sub	 eax, DWORD PTR [ecx]
  00005	6a 14		 push	 20			; 00000014H
  00007	99		 cdq
  00008	59		 pop	 ecx
  00009	f7 f9		 idiv	 ecx

; 778  : 		}

  0000b	c3		 ret	 0
?capacity@?$vector@VGashaponPresent@@V?$allocator@VGashaponPresent@@@std@@@std@@QBEIXZ ENDP ; std::vector<GashaponPresent,std::allocator<GashaponPresent> >::capacity
_TEXT	ENDS
PUBLIC	??0?$allocator@V?$basic_string@DU?$char_traits@D@std@@V?$allocator@D@2@@std@@@std@@QAE@ABV01@@Z ; std::allocator<std::basic_string<char,std::char_traits<char>,std::allocator<char> > >::allocator<std::basic_string<char,std::char_traits<char>,std::allocator<char> > >
; Function compile flags: /Ogsp
; File c:\program files (x86)\microsoft visual studio 10.0\vc\include\xmemory
;	COMDAT ??0?$allocator@V?$basic_string@DU?$char_traits@D@std@@V?$allocator@D@2@@std@@@std@@QAE@ABV01@@Z
_TEXT	SEGMENT
___formal$ = 8						; size = 4
??0?$allocator@V?$basic_string@DU?$char_traits@D@std@@V?$allocator@D@2@@std@@@std@@QAE@ABV01@@Z PROC ; std::allocator<std::basic_string<char,std::char_traits<char>,std::allocator<char> > >::allocator<std::basic_string<char,std::char_traits<char>,std::allocator<char> > >, COMDAT
; _this$ = ecx

; 165  : 	_ALLOCATOR(const _ALLOCATOR<_Ty>&) _THROW0()

  00000	8b c1		 mov	 eax, ecx

; 166  : 		{	// construct by copying (do nothing)
; 167  : 		}

  00002	c2 04 00	 ret	 4
??0?$allocator@V?$basic_string@DU?$char_traits@D@std@@V?$allocator@D@2@@std@@@std@@QAE@ABV01@@Z ENDP ; std::allocator<std::basic_string<char,std::char_traits<char>,std::allocator<char> > >::allocator<std::basic_string<char,std::char_traits<char>,std::allocator<char> > >
_TEXT	ENDS
PUBLIC	??_C@_0BD@OLBABOEK@vector?$DMT?$DO?5too?5long?$AA@ ; `string'
PUBLIC	?_Xlen@?$vector@VGashaponPresent@@V?$allocator@VGashaponPresent@@@std@@@std@@IBEXXZ ; std::vector<GashaponPresent,std::allocator<GashaponPresent> >::_Xlen
EXTRN	__imp_?_Xlength_error@std@@YAXPBD@Z:PROC
;	COMDAT ??_C@_0BD@OLBABOEK@vector?$DMT?$DO?5too?5long?$AA@
; File c:\program files (x86)\microsoft visual studio 10.0\vc\include\vector
CONST	SEGMENT
??_C@_0BD@OLBABOEK@vector?$DMT?$DO?5too?5long?$AA@ DB 'vector<T> too long'
	DB	00H						; `string'
; Function compile flags: /Ogsp
CONST	ENDS
;	COMDAT ?_Xlen@?$vector@VGashaponPresent@@V?$allocator@VGashaponPresent@@@std@@@std@@IBEXXZ
_TEXT	SEGMENT
?_Xlen@?$vector@VGashaponPresent@@V?$allocator@VGashaponPresent@@@std@@@std@@IBEXXZ PROC ; std::vector<GashaponPresent,std::allocator<GashaponPresent> >::_Xlen, COMDAT
; _this$ = ecx

; 1427 : 		_Xlength_error("vector<T> too long");

  00000	68 00 00 00 00	 push	 OFFSET ??_C@_0BD@OLBABOEK@vector?$DMT?$DO?5too?5long?$AA@
  00005	ff 15 00 00 00
	00		 call	 DWORD PTR __imp_?_Xlength_error@std@@YAXPBD@Z
$LN4@Xlen:
$LN3@Xlen:
  0000b	cc		 int	 3
?_Xlen@?$vector@VGashaponPresent@@V?$allocator@VGashaponPresent@@@std@@@std@@IBEXXZ ENDP ; std::vector<GashaponPresent,std::allocator<GashaponPresent> >::_Xlen
_TEXT	ENDS
PUBLIC	??D?$_Vector_const_iterator@V?$_Vector_val@HV?$allocator@H@std@@@std@@@std@@QBEABHXZ ; std::_Vector_const_iterator<std::_Vector_val<int,std::allocator<int> > >::operator*
; Function compile flags: /Ogsp
;	COMDAT ??D?$_Vector_const_iterator@V?$_Vector_val@HV?$allocator@H@std@@@std@@@std@@QBEABHXZ
_TEXT	SEGMENT
??D?$_Vector_const_iterator@V?$_Vector_val@HV?$allocator@H@std@@@std@@@std@@QBEABHXZ PROC ; std::_Vector_const_iterator<std::_Vector_val<int,std::allocator<int> > >::operator*, COMDAT
; _this$ = ecx

; 64   :  #if _ITERATOR_DEBUG_LEVEL == 2
; 65   : 		if (this->_Getcont() == 0
; 66   : 			|| this->_Ptr == 0
; 67   : 			|| this->_Ptr < ((_Myvec *)this->_Getcont())->_Myfirst
; 68   : 			|| ((_Myvec *)this->_Getcont())->_Mylast <= this->_Ptr)
; 69   : 			{	// report error
; 70   : 			_DEBUG_ERROR("vector iterator not dereferencable");
; 71   : 			_SCL_SECURE_OUT_OF_RANGE;
; 72   : 			}
; 73   : 
; 74   :  #elif _ITERATOR_DEBUG_LEVEL == 1
; 75   : 		_SCL_SECURE_VALIDATE(this->_Getcont() != 0);
; 76   : 		_SCL_SECURE_VALIDATE_RANGE(
; 77   : 			this->_Ptr != 0
; 78   : 			&& ((_Myvec *)this->_Getcont())->_Myfirst <= this->_Ptr
; 79   : 			&& this->_Ptr < ((_Myvec *)this->_Getcont())->_Mylast);
; 80   :  #endif /* _ITERATOR_DEBUG_LEVEL */
; 81   : 
; 82   : 		__analysis_assume(this->_Ptr != 0);
; 83   : 
; 84   : 		return (*this->_Ptr);

  00000	8b 01		 mov	 eax, DWORD PTR [ecx]

; 85   : 		}

  00002	c3		 ret	 0
??D?$_Vector_const_iterator@V?$_Vector_val@HV?$allocator@H@std@@@std@@@std@@QBEABHXZ ENDP ; std::_Vector_const_iterator<std::_Vector_val<int,std::allocator<int> > >::operator*
_TEXT	ENDS
PUBLIC	??F?$_Vector_const_iterator@V?$_Vector_val@HV?$allocator@H@std@@@std@@@std@@QAEAAV01@XZ ; std::_Vector_const_iterator<std::_Vector_val<int,std::allocator<int> > >::operator--
; Function compile flags: /Ogsp
;	COMDAT ??F?$_Vector_const_iterator@V?$_Vector_val@HV?$allocator@H@std@@@std@@@std@@QAEAAV01@XZ
_TEXT	SEGMENT
??F?$_Vector_const_iterator@V?$_Vector_val@HV?$allocator@H@std@@@std@@@std@@QAEAAV01@XZ PROC ; std::_Vector_const_iterator<std::_Vector_val<int,std::allocator<int> > >::operator--, COMDAT
; _this$ = ecx

; 122  : 		{	// predecrement

  00000	8b c1		 mov	 eax, ecx

; 123  :  #if _ITERATOR_DEBUG_LEVEL == 2
; 124  : 		if (this->_Getcont() == 0
; 125  : 			|| this->_Ptr == 0
; 126  : 			|| this->_Ptr <= ((_Myvec *)this->_Getcont())->_Myfirst)
; 127  : 			{	// report error
; 128  : 			_DEBUG_ERROR("vector iterator not decrementable");
; 129  : 			_SCL_SECURE_OUT_OF_RANGE;
; 130  : 			}
; 131  : 
; 132  :  #elif _ITERATOR_DEBUG_LEVEL == 1
; 133  : 		_SCL_SECURE_VALIDATE(this->_Getcont() != 0);
; 134  : 		_SCL_SECURE_VALIDATE_RANGE(
; 135  : 			this->_Ptr != 0
; 136  : 			&& ((_Myvec *)this->_Getcont())->_Myfirst < this->_Ptr);
; 137  :  #endif /* _ITERATOR_DEBUG_LEVEL */
; 138  : 
; 139  : 		--this->_Ptr;

  00002	83 00 fc	 add	 DWORD PTR [eax], -4	; fffffffcH

; 140  : 		return (*this);
; 141  : 		}

  00005	c3		 ret	 0
??F?$_Vector_const_iterator@V?$_Vector_val@HV?$allocator@H@std@@@std@@@std@@QAEAAV01@XZ ENDP ; std::_Vector_const_iterator<std::_Vector_val<int,std::allocator<int> > >::operator--
_TEXT	ENDS
PUBLIC	??0?$_Revranit@V?$_Vector_iterator@V?$_Vector_val@HV?$allocator@H@std@@@std@@@std@@U?$iterator@Urandom_access_iterator_tag@std@@HHPAHAAH@2@@std@@QAE@V?$_Vector_iterator@V?$_Vector_val@HV?$allocator@H@std@@@std@@@1@@Z ; std::_Revranit<std::_Vector_iterator<std::_Vector_val<int,std::allocator<int> > >,std::iterator<std::random_access_iterator_tag,int,int,int *,int &> >::_Revranit<std::_Vector_iterator<std::_Vector_val<int,std::allocator<int> > >,std::iterator<std::random_access_iterator_tag,int,int,int *,int &> >
; Function compile flags: /Ogsp
; File c:\program files (x86)\microsoft visual studio 10.0\vc\include\xutility
;	COMDAT ??0?$_Revranit@V?$_Vector_iterator@V?$_Vector_val@HV?$allocator@H@std@@@std@@@std@@U?$iterator@Urandom_access_iterator_tag@std@@HHPAHAAH@2@@std@@QAE@V?$_Vector_iterator@V?$_Vector_val@HV?$allocator@H@std@@@std@@@1@@Z
_TEXT	SEGMENT
__Right$ = 8						; size = 4
??0?$_Revranit@V?$_Vector_iterator@V?$_Vector_val@HV?$allocator@H@std@@@std@@@std@@U?$iterator@Urandom_access_iterator_tag@std@@HHPAHAAH@2@@std@@QAE@V?$_Vector_iterator@V?$_Vector_val@HV?$allocator@H@std@@@std@@@1@@Z PROC ; std::_Revranit<std::_Vector_iterator<std::_Vector_val<int,std::allocator<int> > >,std::iterator<std::random_access_iterator_tag,int,int,int *,int &> >::_Revranit<std::_Vector_iterator<std::_Vector_val<int,std::allocator<int> > >,std::iterator<std::random_access_iterator_tag,int,int,int *,int &> >, COMDAT
; _this$ = ecx

; 1027 : 		{	// construct wrapped iterator from _Right

  00000	55		 push	 ebp
  00001	8b ec		 mov	 ebp, esp
  00003	8b c1		 mov	 eax, ecx
  00005	8b 4d 08	 mov	 ecx, DWORD PTR __Right$[ebp]
  00008	89 08		 mov	 DWORD PTR [eax], ecx

; 1028 : 		}

  0000a	5d		 pop	 ebp
  0000b	c2 04 00	 ret	 4
??0?$_Revranit@V?$_Vector_iterator@V?$_Vector_val@HV?$allocator@H@std@@@std@@@std@@U?$iterator@Urandom_access_iterator_tag@std@@HHPAHAAH@2@@std@@QAE@V?$_Vector_iterator@V?$_Vector_val@HV?$allocator@H@std@@@std@@@1@@Z ENDP ; std::_Revranit<std::_Vector_iterator<std::_Vector_val<int,std::allocator<int> > >,std::iterator<std::random_access_iterator_tag,int,int,int *,int &> >::_Revranit<std::_Vector_iterator<std::_Vector_val<int,std::allocator<int> > >,std::iterator<std::random_access_iterator_tag,int,int,int *,int &> >
_TEXT	ENDS
PUBLIC	?max_size@?$allocator@VGashaponPresent@@@std@@QBEIXZ ; std::allocator<GashaponPresent>::max_size
; Function compile flags: /Ogsp
; File c:\program files (x86)\microsoft visual studio 10.0\vc\include\xmemory
;	COMDAT ?max_size@?$allocator@VGashaponPresent@@@std@@QBEIXZ
_TEXT	SEGMENT
?max_size@?$allocator@VGashaponPresent@@@std@@QBEIXZ PROC ; std::allocator<GashaponPresent>::max_size, COMDAT
; _this$ = ecx

; 218  : 		_SIZT _Count = (_SIZT)(-1) / sizeof (_Ty);
; 219  : 		return (0 < _Count ? _Count : 1);

  00000	b8 cc cc cc 0c	 mov	 eax, 214748364		; 0cccccccH

; 220  : 		}

  00005	c3		 ret	 0
?max_size@?$allocator@VGashaponPresent@@@std@@QBEIXZ ENDP ; std::allocator<GashaponPresent>::max_size
_TEXT	ENDS
PUBLIC	??0?$_Vector_const_iterator@V?$_Vector_val@VGashaponPresent@@V?$allocator@VGashaponPresent@@@std@@@std@@@std@@QAE@PAVGashaponPresent@@PBU_Container_base0@1@@Z ; std::_Vector_const_iterator<std::_Vector_val<GashaponPresent,std::allocator<GashaponPresent> > >::_Vector_const_iterator<std::_Vector_val<GashaponPresent,std::allocator<GashaponPresent> > >
; Function compile flags: /Ogsp
; File c:\program files (x86)\microsoft visual studio 10.0\vc\include\vector
;	COMDAT ??0?$_Vector_const_iterator@V?$_Vector_val@VGashaponPresent@@V?$allocator@VGashaponPresent@@@std@@@std@@@std@@QAE@PAVGashaponPresent@@PBU_Container_base0@1@@Z
_TEXT	SEGMENT
__Parg$ = 8						; size = 4
__Pvector$ = 12						; size = 4
??0?$_Vector_const_iterator@V?$_Vector_val@VGashaponPresent@@V?$allocator@VGashaponPresent@@@std@@@std@@@std@@QAE@PAVGashaponPresent@@PBU_Container_base0@1@@Z PROC ; std::_Vector_const_iterator<std::_Vector_val<GashaponPresent,std::allocator<GashaponPresent> > >::_Vector_const_iterator<std::_Vector_val<GashaponPresent,std::allocator<GashaponPresent> > >, COMDAT
; _this$ = ecx

; 45   : 		{	// construct with pointer _Parg

  00000	55		 push	 ebp
  00001	8b ec		 mov	 ebp, esp
  00003	8b c1		 mov	 eax, ecx
  00005	8b 4d 08	 mov	 ecx, DWORD PTR __Parg$[ebp]
  00008	89 08		 mov	 DWORD PTR [eax], ecx

; 46   : 		this->_Adopt(_Pvector);
; 47   : 		}

  0000a	5d		 pop	 ebp
  0000b	c2 08 00	 ret	 8
??0?$_Vector_const_iterator@V?$_Vector_val@VGashaponPresent@@V?$allocator@VGashaponPresent@@@std@@@std@@@std@@QAE@PAVGashaponPresent@@PBU_Container_base0@1@@Z ENDP ; std::_Vector_const_iterator<std::_Vector_val<GashaponPresent,std::allocator<GashaponPresent> > >::_Vector_const_iterator<std::_Vector_val<GashaponPresent,std::allocator<GashaponPresent> > >
_TEXT	ENDS
PUBLIC	?_Compat@?$_Vector_const_iterator@V?$_Vector_val@VGashaponPresent@@V?$allocator@VGashaponPresent@@@std@@@std@@@std@@QBEXABV12@@Z ; std::_Vector_const_iterator<std::_Vector_val<GashaponPresent,std::allocator<GashaponPresent> > >::_Compat
; Function compile flags: /Ogsp
;	COMDAT ?_Compat@?$_Vector_const_iterator@V?$_Vector_val@VGashaponPresent@@V?$allocator@VGashaponPresent@@@std@@@std@@@std@@QBEXABV12@@Z
_TEXT	SEGMENT
___formal$ = 8						; size = 4
?_Compat@?$_Vector_const_iterator@V?$_Vector_val@VGashaponPresent@@V?$allocator@VGashaponPresent@@@std@@@std@@@std@@QBEXABV12@@Z PROC ; std::_Vector_const_iterator<std::_Vector_val<GashaponPresent,std::allocator<GashaponPresent> > >::_Compat, COMDAT
; _this$ = ecx

; 253  : 		}

  00000	c2 04 00	 ret	 4
?_Compat@?$_Vector_const_iterator@V?$_Vector_val@VGashaponPresent@@V?$allocator@VGashaponPresent@@@std@@@std@@@std@@QBEXABV12@@Z ENDP ; std::_Vector_const_iterator<std::_Vector_val<GashaponPresent,std::allocator<GashaponPresent> > >::_Compat
_TEXT	ENDS
PUBLIC	??$addressof@$$CBVioHashString@@@std@@YAPBVioHashString@@ABV1@@Z ; std::addressof<ioHashString const >
; Function compile flags: /Ogsp
; File c:\program files (x86)\microsoft visual studio 10.0\vc\include\xmemory
;	COMDAT ??$addressof@$$CBVioHashString@@@std@@YAPBVioHashString@@ABV1@@Z
_TEXT	SEGMENT
__Val$ = 8						; size = 4
??$addressof@$$CBVioHashString@@@std@@YAPBVioHashString@@ABV1@@Z PROC ; std::addressof<ioHashString const >, COMDAT

; 110  : 	{	// return address of _Val

  00000	55		 push	 ebp
  00001	8b ec		 mov	 ebp, esp

; 111  : 	return ((_Ty *) &(char&)_Val);

  00003	8b 45 08	 mov	 eax, DWORD PTR __Val$[ebp]

; 112  : 	}

  00006	5d		 pop	 ebp
  00007	c3		 ret	 0
??$addressof@$$CBVioHashString@@@std@@YAPBVioHashString@@ABV1@@Z ENDP ; std::addressof<ioHashString const >
_TEXT	ENDS
PUBLIC	??$addressof@$$CBH@std@@YAPBHABH@Z		; std::addressof<int const >
; Function compile flags: /Ogsp
;	COMDAT ??$addressof@$$CBH@std@@YAPBHABH@Z
_TEXT	SEGMENT
__Val$ = 8						; size = 4
??$addressof@$$CBH@std@@YAPBHABH@Z PROC			; std::addressof<int const >, COMDAT

; 110  : 	{	// return address of _Val

  00000	55		 push	 ebp
  00001	8b ec		 mov	 ebp, esp

; 111  : 	return ((_Ty *) &(char&)_Val);

  00003	8b 45 08	 mov	 eax, DWORD PTR __Val$[ebp]

; 112  : 	}

  00006	5d		 pop	 ebp
  00007	c3		 ret	 0
??$addressof@$$CBH@std@@YAPBHABH@Z ENDP			; std::addressof<int const >
_TEXT	ENDS
PUBLIC	__TI2?AVbad_alloc@std@@
PUBLIC	??$_Allocate@VGashaponPresent@@@std@@YAPAVGashaponPresent@@IPAV1@@Z ; std::_Allocate<GashaponPresent>
PUBLIC	__CTA2?AVbad_alloc@std@@
PUBLIC	__CT??_R0?AVbad_alloc@std@@@8??0bad_alloc@std@@QAE@ABV01@@Z12
PUBLIC	??0bad_alloc@std@@QAE@ABV01@@Z			; std::bad_alloc::bad_alloc
PUBLIC	__CT??_R0?AVexception@std@@@8??0exception@std@@QAE@ABV01@@Z12
EXTRN	__CxxThrowException@8:PROC
EXTRN	??0exception@std@@QAE@ABV01@@Z:PROC		; std::exception::exception
;	COMDAT __CT??_R0?AVexception@std@@@8??0exception@std@@QAE@ABV01@@Z12
; File c:\program files (x86)\microsoft visual studio 10.0\vc\include\exception
xdata$x	SEGMENT
__CT??_R0?AVexception@std@@@8??0exception@std@@QAE@ABV01@@Z12 DD 00H
	DD	FLAT:??_R0?AVexception@std@@@8
	DD	00H
	DD	0ffffffffH
	ORG $+4
	DD	0cH
	DD	FLAT:??0exception@std@@QAE@ABV01@@Z
xdata$x	ENDS
;	COMDAT __CT??_R0?AVbad_alloc@std@@@8??0bad_alloc@std@@QAE@ABV01@@Z12
xdata$x	SEGMENT
__CT??_R0?AVbad_alloc@std@@@8??0bad_alloc@std@@QAE@ABV01@@Z12 DD 00H
	DD	FLAT:??_R0?AVbad_alloc@std@@@8
	DD	00H
	DD	0ffffffffH
	ORG $+4
	DD	0cH
	DD	FLAT:??0bad_alloc@std@@QAE@ABV01@@Z
xdata$x	ENDS
;	COMDAT __CTA2?AVbad_alloc@std@@
xdata$x	SEGMENT
__CTA2?AVbad_alloc@std@@ DD 02H
	DD	FLAT:__CT??_R0?AVbad_alloc@std@@@8??0bad_alloc@std@@QAE@ABV01@@Z12
	DD	FLAT:__CT??_R0?AVexception@std@@@8??0exception@std@@QAE@ABV01@@Z12
xdata$x	ENDS
;	COMDAT __TI2?AVbad_alloc@std@@
xdata$x	SEGMENT
__TI2?AVbad_alloc@std@@ DD 00H
	DD	FLAT:??1bad_alloc@std@@UAE@XZ
	DD	00H
	DD	FLAT:__CTA2?AVbad_alloc@std@@
; Function compile flags: /Ogsp
; File c:\program files (x86)\microsoft visual studio 10.0\vc\include\xmemory
xdata$x	ENDS
;	COMDAT ??$_Allocate@VGashaponPresent@@@std@@YAPAVGashaponPresent@@IPAV1@@Z
_TEXT	SEGMENT
$T517447 = -12						; size = 12
$T517452 = 8						; size = 4
__Count$ = 8						; size = 4
___formal$ = 12						; size = 4
??$_Allocate@VGashaponPresent@@@std@@YAPAVGashaponPresent@@IPAV1@@Z PROC ; std::_Allocate<GashaponPresent>, COMDAT

; 30   : 	{	// allocate storage for _Count elements of type _Ty

  00000	55		 push	 ebp
  00001	8b ec		 mov	 ebp, esp

; 31   : 	void *_Ptr = 0;
; 32   : 
; 33   : 	if (_Count <= 0)

  00003	8b 4d 08	 mov	 ecx, DWORD PTR __Count$[ebp]
  00006	83 ec 0c	 sub	 esp, 12			; 0000000cH
  00009	33 c0		 xor	 eax, eax
  0000b	85 c9		 test	 ecx, ecx

; 34   : 		_Count = 0;
; 35   : 	else if (((_SIZT)(-1) / sizeof (_Ty) < _Count)

  0000d	74 3c		 je	 SHORT $LN5@Allocate

; 36   : 		|| (_Ptr = ::operator new(_Count * sizeof (_Ty))) == 0)

  0000f	81 f9 cc cc cc
	0c		 cmp	 ecx, 214748364		; 0cccccccH
  00015	77 0e		 ja	 SHORT $LN1@Allocate
  00017	6b c9 14	 imul	 ecx, 20			; 00000014H
  0001a	51		 push	 ecx
  0001b	e8 00 00 00 00	 call	 ??2@YAPAXI@Z		; operator new
  00020	59		 pop	 ecx
  00021	85 c0		 test	 eax, eax

; 38   : 
; 39   : 	return ((_Ty _FARQ *)_Ptr);

  00023	75 26		 jne	 SHORT $LN5@Allocate
$LN1@Allocate:

; 37   : 		_THROW_NCEE(bad_alloc, 0);

  00025	83 65 08 00	 and	 DWORD PTR $T517452[ebp], 0
  00029	8d 45 08	 lea	 eax, DWORD PTR $T517452[ebp]
  0002c	50		 push	 eax
  0002d	8d 4d f4	 lea	 ecx, DWORD PTR $T517447[ebp]
  00030	ff 15 00 00 00
	00		 call	 DWORD PTR __imp_??0exception@std@@QAE@ABQBD@Z
  00036	68 00 00 00 00	 push	 OFFSET __TI2?AVbad_alloc@std@@
  0003b	8d 45 f4	 lea	 eax, DWORD PTR $T517447[ebp]
  0003e	50		 push	 eax
  0003f	c7 45 f4 00 00
	00 00		 mov	 DWORD PTR $T517447[ebp], OFFSET ??_7bad_alloc@std@@6B@
  00046	e8 00 00 00 00	 call	 __CxxThrowException@8
$LN10@Allocate:
$LN5@Allocate:

; 40   : 	}

  0004b	c9		 leave
  0004c	c3		 ret	 0
$LN9@Allocate:
??$_Allocate@VGashaponPresent@@@std@@YAPAVGashaponPresent@@IPAV1@@Z ENDP ; std::_Allocate<GashaponPresent>
_TEXT	ENDS
PUBLIC	??$_Find@PAHH@std@@YAPAHPAH0ABH@Z		; std::_Find<int *,int>
; Function compile flags: /Ogsp
; File c:\program files (x86)\microsoft visual studio 10.0\vc\include\algorithm
;	COMDAT ??$_Find@PAHH@std@@YAPAHPAH0ABH@Z
_TEXT	SEGMENT
__First$ = 8						; size = 4
__Last$ = 12						; size = 4
__Val$ = 16						; size = 4
??$_Find@PAHH@std@@YAPAHPAH0ABH@Z PROC			; std::_Find<int *,int>, COMDAT

; 39   : 	{	// find first matching _Val

  00000	55		 push	 ebp
  00001	8b ec		 mov	 ebp, esp

; 40   : 	for (; _First != _Last; ++_First)

  00003	8b 45 08	 mov	 eax, DWORD PTR __First$[ebp]
  00006	3b 45 0c	 cmp	 eax, DWORD PTR __Last$[ebp]
  00009	74 11		 je	 SHORT $LN8@Find
  0000b	8b 4d 10	 mov	 ecx, DWORD PTR __Val$[ebp]
  0000e	8b 09		 mov	 ecx, DWORD PTR [ecx]
$LL4@Find:

; 41   : 		if (*_First == _Val)

  00010	39 08		 cmp	 DWORD PTR [eax], ecx
  00012	74 08		 je	 SHORT $LN8@Find

; 40   : 	for (; _First != _Last; ++_First)

  00014	83 c0 04	 add	 eax, 4
  00017	3b 45 0c	 cmp	 eax, DWORD PTR __Last$[ebp]
  0001a	75 f4		 jne	 SHORT $LL4@Find
$LN8@Find:

; 42   : 			break;
; 43   : 	return (_First);
; 44   : 	}

  0001c	5d		 pop	 ebp
  0001d	c3		 ret	 0
??$_Find@PAHH@std@@YAPAHPAH0ABH@Z ENDP			; std::_Find<int *,int>
_TEXT	ENDS
PUBLIC	??$_Dist_type@V?$_Vector_iterator@V?$_Vector_val@HV?$allocator@H@std@@@std@@@std@@@std@@YAPAHV?$_Vector_iterator@V?$_Vector_val@HV?$allocator@H@std@@@std@@@0@@Z ; std::_Dist_type<std::_Vector_iterator<std::_Vector_val<int,std::allocator<int> > > >
; Function compile flags: /Ogsp
; File c:\program files (x86)\microsoft visual studio 10.0\vc\include\xutility
;	COMDAT ??$_Dist_type@V?$_Vector_iterator@V?$_Vector_val@HV?$allocator@H@std@@@std@@@std@@@std@@YAPAHV?$_Vector_iterator@V?$_Vector_val@HV?$allocator@H@std@@@std@@@0@@Z
_TEXT	SEGMENT
___formal$ = 8						; size = 4
??$_Dist_type@V?$_Vector_iterator@V?$_Vector_val@HV?$allocator@H@std@@@std@@@std@@@std@@YAPAHV?$_Vector_iterator@V?$_Vector_val@HV?$allocator@H@std@@@std@@@0@@Z PROC ; std::_Dist_type<std::_Vector_iterator<std::_Vector_val<int,std::allocator<int> > > >, COMDAT

; 850  : 	return (0);

  00000	33 c0		 xor	 eax, eax

; 851  : 	}

  00002	c3		 ret	 0
??$_Dist_type@V?$_Vector_iterator@V?$_Vector_val@HV?$allocator@H@std@@@std@@@std@@@std@@YAPAHV?$_Vector_iterator@V?$_Vector_val@HV?$allocator@H@std@@@std@@@0@@Z ENDP ; std::_Dist_type<std::_Vector_iterator<std::_Vector_val<int,std::allocator<int> > > >
_TEXT	ENDS
PUBLIC	??$forward@ABH@std@@YAABHABH@Z			; std::forward<int const &>
; Function compile flags: /Ogsp
; File c:\program files (x86)\microsoft visual studio 10.0\vc\include\utility
;	COMDAT ??$forward@ABH@std@@YAABHABH@Z
_TEXT	SEGMENT
__Arg$ = 8						; size = 4
??$forward@ABH@std@@YAABHABH@Z PROC			; std::forward<int const &>, COMDAT

; 78   : 	{	// forward _Arg, given explicitly specified type parameter

  00000	55		 push	 ebp
  00001	8b ec		 mov	 ebp, esp

; 79   : 	return ((_Ty&&)_Arg);

  00003	8b 45 08	 mov	 eax, DWORD PTR __Arg$[ebp]

; 80   : 	}

  00006	5d		 pop	 ebp
  00007	c3		 ret	 0
??$forward@ABH@std@@YAABHABH@Z ENDP			; std::forward<int const &>
_TEXT	ENDS
PUBLIC	??$_Copy_impl@PAVGashaponPresent@@PAV1@@std@@YAPAVGashaponPresent@@PAV1@00U_Nonscalar_ptr_iterator_tag@0@@Z ; std::_Copy_impl<GashaponPresent *,GashaponPresent *>
; Function compile flags: /Ogsp
; File c:\program files (x86)\microsoft visual studio 10.0\vc\include\xutility
;	COMDAT ??$_Copy_impl@PAVGashaponPresent@@PAV1@@std@@YAPAVGashaponPresent@@PAV1@00U_Nonscalar_ptr_iterator_tag@0@@Z
_TEXT	SEGMENT
__First$ = 8						; size = 4
__Last$ = 12						; size = 4
__Dest$ = 16						; size = 4
___formal$ = 20						; size = 1
??$_Copy_impl@PAVGashaponPresent@@PAV1@@std@@YAPAVGashaponPresent@@PAV1@00U_Nonscalar_ptr_iterator_tag@0@@Z PROC ; std::_Copy_impl<GashaponPresent *,GashaponPresent *>, COMDAT

; 2142 : 	{	// copy [_First, _Last) to [_Dest, ...), arbitrary iterators

  00000	55		 push	 ebp
  00001	8b ec		 mov	 ebp, esp

; 2143 : 	for (; _First != _Last; ++_Dest, ++_First)

  00003	8b 45 08	 mov	 eax, DWORD PTR __First$[ebp]
  00006	3b 45 0c	 cmp	 eax, DWORD PTR __Last$[ebp]
  00009	74 1a		 je	 SHORT $LN8@Copy_impl
  0000b	56		 push	 esi
  0000c	57		 push	 edi
$LL3@Copy_impl:

; 2144 : 		*_Dest = *_First;

  0000d	8b 7d 10	 mov	 edi, DWORD PTR __Dest$[ebp]
  00010	83 45 10 14	 add	 DWORD PTR __Dest$[ebp], 20 ; 00000014H
  00014	8b f0		 mov	 esi, eax
  00016	6a 05		 push	 5
  00018	83 c0 14	 add	 eax, 20			; 00000014H
  0001b	59		 pop	 ecx
  0001c	f3 a5		 rep movsd
  0001e	3b 45 0c	 cmp	 eax, DWORD PTR __Last$[ebp]
  00021	75 ea		 jne	 SHORT $LL3@Copy_impl
  00023	5f		 pop	 edi
  00024	5e		 pop	 esi
$LN8@Copy_impl:

; 2145 : 	return (_Dest);

  00025	8b 45 10	 mov	 eax, DWORD PTR __Dest$[ebp]

; 2146 : 	}

  00028	5d		 pop	 ebp
  00029	c3		 ret	 0
??$_Copy_impl@PAVGashaponPresent@@PAV1@@std@@YAPAVGashaponPresent@@PAV1@00U_Nonscalar_ptr_iterator_tag@0@@Z ENDP ; std::_Copy_impl<GashaponPresent *,GashaponPresent *>
_TEXT	ENDS
PUBLIC	??$_Construct@HABH@std@@YAXPAHABH@Z		; std::_Construct<int,int const &>
; Function compile flags: /Ogsp
; File c:\program files (x86)\microsoft visual studio 10.0\vc\include\xmemory
;	COMDAT ??$_Construct@HABH@std@@YAXPAHABH@Z
_TEXT	SEGMENT
__Ptr$ = 8						; size = 4
__Val$ = 12						; size = 4
??$_Construct@HABH@std@@YAXPAHABH@Z PROC		; std::_Construct<int,int const &>, COMDAT

; 46   : 	{	// construct object at _Ptr with value _Val

  00000	55		 push	 ebp
  00001	8b ec		 mov	 ebp, esp

; 47   : 	void _FARQ *_Vptr = _Ptr;
; 48   : 	::new (_Vptr) _Ty1(_STD forward<_Ty2>(_Val));

  00003	8b 45 08	 mov	 eax, DWORD PTR __Ptr$[ebp]
  00006	85 c0		 test	 eax, eax
  00008	74 07		 je	 SHORT $LN3@Construct
  0000a	8b 4d 0c	 mov	 ecx, DWORD PTR __Val$[ebp]
  0000d	8b 09		 mov	 ecx, DWORD PTR [ecx]
  0000f	89 08		 mov	 DWORD PTR [eax], ecx
$LN3@Construct:

; 49   : 	}

  00011	5d		 pop	 ebp
  00012	c3		 ret	 0
??$_Construct@HABH@std@@YAXPAHABH@Z ENDP		; std::_Construct<int,int const &>
_TEXT	ENDS
PUBLIC	??$_Val_type@PAVioHashString@@@std@@YAPAVioHashString@@PAV1@@Z ; std::_Val_type<ioHashString *>
; Function compile flags: /Ogsp
; File c:\program files (x86)\microsoft visual studio 10.0\vc\include\xutility
;	COMDAT ??$_Val_type@PAVioHashString@@@std@@YAPAVioHashString@@PAV1@@Z
_TEXT	SEGMENT
___formal$ = 8						; size = 4
??$_Val_type@PAVioHashString@@@std@@YAPAVioHashString@@PAV1@@Z PROC ; std::_Val_type<ioHashString *>, COMDAT

; 790  : 	return (0);

  00000	33 c0		 xor	 eax, eax

; 791  : 	}

  00002	c3		 ret	 0
??$_Val_type@PAVioHashString@@@std@@YAPAVioHashString@@PAV1@@Z ENDP ; std::_Val_type<ioHashString *>
_TEXT	ENDS
PUBLIC	??$move@AAVGashaponPresent@@@std@@YA$$QAVGashaponPresent@@AAV1@@Z ; std::move<GashaponPresent &>
; Function compile flags: /Ogsp
; File c:\program files (x86)\microsoft visual studio 10.0\vc\include\utility
;	COMDAT ??$move@AAVGashaponPresent@@@std@@YA$$QAVGashaponPresent@@AAV1@@Z
_TEXT	SEGMENT
__Arg$ = 8						; size = 4
??$move@AAVGashaponPresent@@@std@@YA$$QAVGashaponPresent@@AAV1@@Z PROC ; std::move<GashaponPresent &>, COMDAT

; 86   : 	{	// forward _Arg as movable

  00000	55		 push	 ebp
  00001	8b ec		 mov	 ebp, esp

; 87   : 	return ((typename tr1::_Remove_reference<_Ty>::_Type&&)_Arg);

  00003	8b 45 08	 mov	 eax, DWORD PTR __Arg$[ebp]

; 88   : 	}

  00006	5d		 pop	 ebp
  00007	c3		 ret	 0
??$move@AAVGashaponPresent@@@std@@YA$$QAVGashaponPresent@@AAV1@@Z ENDP ; std::move<GashaponPresent &>
_TEXT	ENDS
PUBLIC	?base@?$_Revranit@V?$_Vector_iterator@V?$_Vector_val@HV?$allocator@H@std@@@std@@@std@@U?$iterator@Urandom_access_iterator_tag@std@@HHPAHAAH@2@@std@@QBE?AV?$_Vector_iterator@V?$_Vector_val@HV?$allocator@H@std@@@std@@@2@XZ ; std::_Revranit<std::_Vector_iterator<std::_Vector_val<int,std::allocator<int> > >,std::iterator<std::random_access_iterator_tag,int,int,int *,int &> >::base
; Function compile flags: /Ogsp
; File c:\program files (x86)\microsoft visual studio 10.0\vc\include\xutility
;	COMDAT ?base@?$_Revranit@V?$_Vector_iterator@V?$_Vector_val@HV?$allocator@H@std@@@std@@@std@@U?$iterator@Urandom_access_iterator_tag@std@@HHPAHAAH@2@@std@@QBE?AV?$_Vector_iterator@V?$_Vector_val@HV?$allocator@H@std@@@std@@@2@XZ
_TEXT	SEGMENT
___$ReturnUdt$ = 8					; size = 4
?base@?$_Revranit@V?$_Vector_iterator@V?$_Vector_val@HV?$allocator@H@std@@@std@@@std@@U?$iterator@Urandom_access_iterator_tag@std@@HHPAHAAH@2@@std@@QBE?AV?$_Vector_iterator@V?$_Vector_val@HV?$allocator@H@std@@@std@@@2@XZ PROC ; std::_Revranit<std::_Vector_iterator<std::_Vector_val<int,std::allocator<int> > >,std::iterator<std::random_access_iterator_tag,int,int,int *,int &> >::base, COMDAT
; _this$ = ecx

; 1038 : 		{	// return wrapped iterator

  00000	55		 push	 ebp
  00001	8b ec		 mov	 ebp, esp

; 1039 : 		return (current);

  00003	8b 09		 mov	 ecx, DWORD PTR [ecx]
  00005	8b 45 08	 mov	 eax, DWORD PTR ___$ReturnUdt$[ebp]
  00008	89 08		 mov	 DWORD PTR [eax], ecx

; 1040 : 		}

  0000a	5d		 pop	 ebp
  0000b	c2 04 00	 ret	 4
?base@?$_Revranit@V?$_Vector_iterator@V?$_Vector_val@HV?$allocator@H@std@@@std@@@std@@U?$iterator@Urandom_access_iterator_tag@std@@HHPAHAAH@2@@std@@QBE?AV?$_Vector_iterator@V?$_Vector_val@HV?$allocator@H@std@@@std@@@2@XZ ENDP ; std::_Revranit<std::_Vector_iterator<std::_Vector_val<int,std::allocator<int> > >,std::iterator<std::random_access_iterator_tag,int,int,int *,int &> >::base
_TEXT	ENDS
PUBLIC	??$forward@VioHashString@@@std@@YA$$QAVioHashString@@AAV1@@Z ; std::forward<ioHashString>
; Function compile flags: /Ogsp
; File c:\program files (x86)\microsoft visual studio 10.0\vc\include\utility
;	COMDAT ??$forward@VioHashString@@@std@@YA$$QAVioHashString@@AAV1@@Z
_TEXT	SEGMENT
__Arg$ = 8						; size = 4
??$forward@VioHashString@@@std@@YA$$QAVioHashString@@AAV1@@Z PROC ; std::forward<ioHashString>, COMDAT

; 78   : 	{	// forward _Arg, given explicitly specified type parameter

  00000	55		 push	 ebp
  00001	8b ec		 mov	 ebp, esp

; 79   : 	return ((_Ty&&)_Arg);

  00003	8b 45 08	 mov	 eax, DWORD PTR __Arg$[ebp]

; 80   : 	}

  00006	5d		 pop	 ebp
  00007	c3		 ret	 0
??$forward@VioHashString@@@std@@YA$$QAVioHashString@@AAV1@@Z ENDP ; std::forward<ioHashString>
_TEXT	ENDS
PUBLIC	??$forward@AAVGashaponPresent@@@std@@YAAAVGashaponPresent@@AAV1@@Z ; std::forward<GashaponPresent &>
; Function compile flags: /Ogsp
;	COMDAT ??$forward@AAVGashaponPresent@@@std@@YAAAVGashaponPresent@@AAV1@@Z
_TEXT	SEGMENT
__Arg$ = 8						; size = 4
??$forward@AAVGashaponPresent@@@std@@YAAAVGashaponPresent@@AAV1@@Z PROC ; std::forward<GashaponPresent &>, COMDAT

; 78   : 	{	// forward _Arg, given explicitly specified type parameter

  00000	55		 push	 ebp
  00001	8b ec		 mov	 ebp, esp

; 79   : 	return ((_Ty&&)_Arg);

  00003	8b 45 08	 mov	 eax, DWORD PTR __Arg$[ebp]

; 80   : 	}

  00006	5d		 pop	 ebp
  00007	c3		 ret	 0
??$forward@AAVGashaponPresent@@@std@@YAAAVGashaponPresent@@AAV1@@Z ENDP ; std::forward<GashaponPresent &>
_TEXT	ENDS
PUBLIC	??$construct@AAVGashaponPresent@@@?$allocator@VGashaponPresent@@@std@@QAEXPAVGashaponPresent@@AAV2@@Z ; std::allocator<GashaponPresent>::construct<GashaponPresent &>
; Function compile flags: /Ogsp
; File c:\program files (x86)\microsoft visual studio 10.0\vc\include\xmemory
;	COMDAT ??$construct@AAVGashaponPresent@@@?$allocator@VGashaponPresent@@@std@@QAEXPAVGashaponPresent@@AAV2@@Z
_TEXT	SEGMENT
__Ptr$ = 8						; size = 4
__Val$ = 12						; size = 4
??$construct@AAVGashaponPresent@@@?$allocator@VGashaponPresent@@@std@@QAEXPAVGashaponPresent@@AAV2@@Z PROC ; std::allocator<GashaponPresent>::construct<GashaponPresent &>, COMDAT
; _this$ = ecx

; 206  : 		void construct(pointer _Ptr, _Other&& _Val)

  00000	55		 push	 ebp
  00001	8b ec		 mov	 ebp, esp
  00003	57		 push	 edi

; 207  : 		{	// construct object at _Ptr with value _Val
; 208  : 		::new ((void _FARQ *)_Ptr) _Ty(_STD forward<_Other>(_Val));

  00004	8b 7d 08	 mov	 edi, DWORD PTR __Ptr$[ebp]
  00007	85 ff		 test	 edi, edi
  00009	74 0a		 je	 SHORT $LN3@construct
  0000b	56		 push	 esi
  0000c	8b 75 0c	 mov	 esi, DWORD PTR __Val$[ebp]
  0000f	6a 05		 push	 5
  00011	59		 pop	 ecx
  00012	f3 a5		 rep movsd
  00014	5e		 pop	 esi
$LN3@construct:
  00015	5f		 pop	 edi

; 209  : 		}

  00016	5d		 pop	 ebp
  00017	c2 08 00	 ret	 8
??$construct@AAVGashaponPresent@@@?$allocator@VGashaponPresent@@@std@@QAEXPAVGashaponPresent@@AAV2@@Z ENDP ; std::allocator<GashaponPresent>::construct<GashaponPresent &>
; Function compile flags: /Ogsp
; File c:\program files (x86)\microsoft sdks\windows\v7.0a\include\strsafe.h
_TEXT	ENDS
;	COMDAT ?StringLengthWorkerA@@YGJPBDIPAI@Z
_TEXT	SEGMENT
?StringLengthWorkerA@@YGJPBDIPAI@Z PROC			; StringLengthWorkerA, COMDAT
; _psz$ = eax
; _cchMax$ = edx
; _pcchLength$ = edi

; 8549 : {

  00000	56		 push	 esi
  00001	8b f0		 mov	 esi, eax

; 8550 :     HRESULT hr = S_OK;

  00003	33 c0		 xor	 eax, eax

; 8551 :     size_t cchOriginalMax = cchMax;

  00005	8b ca		 mov	 ecx, edx

; 8552 : 
; 8553 :     while (cchMax && (*psz != '\0'))

  00007	85 d2		 test	 edx, edx
  00009	74 0c		 je	 SHORT $LN11@StringLeng
$LL6@StringLeng:
  0000b	38 06		 cmp	 BYTE PTR [esi], al
  0000d	74 04		 je	 SHORT $LN5@StringLeng

; 8554 :     {
; 8555 :         psz++;

  0000f	46		 inc	 esi

; 8556 :         cchMax--;

  00010	4a		 dec	 edx
  00011	75 f8		 jne	 SHORT $LL6@StringLeng
$LN5@StringLeng:

; 8557 :     }
; 8558 : 
; 8559 :     if (cchMax == 0)

  00013	85 d2		 test	 edx, edx
  00015	75 05		 jne	 SHORT $LN4@StringLeng
$LN11@StringLeng:

; 8560 :     {
; 8561 :         // the string is longer than cchMax
; 8562 :         hr = STRSAFE_E_INVALID_PARAMETER;

  00017	b8 57 00 07 80	 mov	 eax, -2147024809	; 80070057H
$LN4@StringLeng:
  0001c	5e		 pop	 esi

; 8563 :     }
; 8564 : 
; 8565 :     if (pcchLength)

  0001d	85 ff		 test	 edi, edi
  0001f	74 0c		 je	 SHORT $LN1@StringLeng

; 8566 :     {
; 8567 :         if (SUCCEEDED(hr))

  00021	85 c0		 test	 eax, eax
  00023	78 05		 js	 SHORT $LN2@StringLeng

; 8568 :         {
; 8569 :             *pcchLength = cchOriginalMax - cchMax;

  00025	2b ca		 sub	 ecx, edx
  00027	89 0f		 mov	 DWORD PTR [edi], ecx

; 8574 :         }
; 8575 :     }
; 8576 : 
; 8577 :     return hr;
; 8578 : }

  00029	c3		 ret	 0
$LN2@StringLeng:

; 8570 :         }
; 8571 :         else
; 8572 :         {
; 8573 :             *pcchLength = 0;

  0002a	83 27 00	 and	 DWORD PTR [edi], 0
$LN1@StringLeng:

; 8574 :         }
; 8575 :     }
; 8576 : 
; 8577 :     return hr;
; 8578 : }

  0002d	c3		 ret	 0
?StringLengthWorkerA@@YGJPBDIPAI@Z ENDP			; StringLengthWorkerA
; Function compile flags: /Ogsp
_TEXT	ENDS
;	COMDAT ?StringValidateDestA@@YGJPBDII@Z
_TEXT	SEGMENT
_cchMax$ = 8						; size = 4
?StringValidateDestA@@YGJPBDII@Z PROC			; StringValidateDestA, COMDAT
; _cchDest$ = ecx

; 8721 : {

  00000	55		 push	 ebp
  00001	8b ec		 mov	 ebp, esp

; 8722 :     HRESULT hr = S_OK;

  00003	33 c0		 xor	 eax, eax

; 8723 : 
; 8724 :     if ((cchDest == 0) || (cchDest > cchMax))

  00005	85 c9		 test	 ecx, ecx
  00007	74 05		 je	 SHORT $LN1@StringVali
  00009	3b 4d 08	 cmp	 ecx, DWORD PTR _cchMax$[ebp]
  0000c	76 05		 jbe	 SHORT $LN2@StringVali
$LN1@StringVali:

; 8725 :     {
; 8726 :         hr = STRSAFE_E_INVALID_PARAMETER;

  0000e	b8 57 00 07 80	 mov	 eax, -2147024809	; 80070057H
$LN2@StringVali:

; 8727 :     }
; 8728 : 
; 8729 :     return hr;
; 8730 : }

  00013	5d		 pop	 ebp
  00014	c2 04 00	 ret	 4
?StringValidateDestA@@YGJPBDII@Z ENDP			; StringValidateDestA
; Function compile flags: /Ogsp
_TEXT	ENDS
;	COMDAT ?StringValidateDestAndLengthA@@YGJPBDIPAII@Z
_TEXT	SEGMENT
_pszDest$ = 8						; size = 4
_cchMax$ = 12						; size = 4
?StringValidateDestAndLengthA@@YGJPBDIPAII@Z PROC	; StringValidateDestAndLengthA, COMDAT
; _cchDest$ = ecx
; _pcchDestLength$ = esi

; 8743 : {

  00000	55		 push	 ebp
  00001	8b ec		 mov	 ebp, esp

; 8744 :     HRESULT hr;
; 8745 : 
; 8746 :     hr = StringValidateDestA(pszDest, cchDest, cchMax);

  00003	33 c0		 xor	 eax, eax
  00005	85 c9		 test	 ecx, ecx
  00007	74 05		 je	 SHORT $LN5@StringVali@2
  00009	3b 4d 0c	 cmp	 ecx, DWORD PTR _cchMax$[ebp]
  0000c	76 05		 jbe	 SHORT $LN6@StringVali@2
$LN5@StringVali@2:
  0000e	b8 57 00 07 80	 mov	 eax, -2147024809	; 80070057H
$LN6@StringVali@2:

; 8747 : 
; 8748 :     if (SUCCEEDED(hr))

  00013	85 c0		 test	 eax, eax
  00015	78 34		 js	 SHORT $LN2@StringVali@2

; 8749 :     {
; 8750 :         hr = StringLengthWorkerA(pszDest, cchDest, pcchDestLength);

  00017	8b 45 08	 mov	 eax, DWORD PTR _pszDest$[ebp]
  0001a	57		 push	 edi
  0001b	33 ff		 xor	 edi, edi
  0001d	8b d1		 mov	 edx, ecx
  0001f	85 c9		 test	 ecx, ecx
  00021	74 0d		 je	 SHORT $LN19@StringVali@2
$LL14@StringVali@2:
  00023	80 38 00	 cmp	 BYTE PTR [eax], 0
  00026	74 04		 je	 SHORT $LN13@StringVali@2
  00028	40		 inc	 eax
  00029	4a		 dec	 edx
  0002a	75 f7		 jne	 SHORT $LL14@StringVali@2
$LN13@StringVali@2:
  0002c	85 d2		 test	 edx, edx
  0002e	75 05		 jne	 SHORT $LN12@StringVali@2
$LN19@StringVali@2:
  00030	bf 57 00 07 80	 mov	 edi, -2147024809	; 80070057H
$LN12@StringVali@2:
  00035	85 f6		 test	 esi, esi
  00037	74 0d		 je	 SHORT $LN9@StringVali@2
  00039	85 ff		 test	 edi, edi
  0003b	78 06		 js	 SHORT $LN10@StringVali@2
  0003d	2b ca		 sub	 ecx, edx
  0003f	89 0e		 mov	 DWORD PTR [esi], ecx
  00041	eb 03		 jmp	 SHORT $LN9@StringVali@2
$LN10@StringVali@2:
  00043	83 26 00	 and	 DWORD PTR [esi], 0
$LN9@StringVali@2:
  00046	8b c7		 mov	 eax, edi
  00048	5f		 pop	 edi

; 8751 :     }
; 8752 :     else

  00049	eb 03		 jmp	 SHORT $LN1@StringVali@2
$LN2@StringVali@2:

; 8753 :     {
; 8754 :         *pcchDestLength = 0;

  0004b	83 26 00	 and	 DWORD PTR [esi], 0
$LN1@StringVali@2:

; 8755 :     }
; 8756 : 
; 8757 :     return hr;
; 8758 : }

  0004e	5d		 pop	 ebp
  0004f	c2 08 00	 ret	 8
?StringValidateDestAndLengthA@@YGJPBDIPAII@Z ENDP	; StringValidateDestAndLengthA
; Function compile flags: /Ogsp
_TEXT	ENDS
;	COMDAT ?StringCopyWorkerA@@YGJPADIPAIPBDI@Z
_TEXT	SEGMENT
_hr$ = -4						; size = 4
_pcchNewDestLength$ = 8					; size = 4
_pszSrc$ = 12						; size = 4
_cchToCopy$ = 16					; size = 4
?StringCopyWorkerA@@YGJPADIPAIPBDI@Z PROC		; StringCopyWorkerA, COMDAT
; _pszDest$ = ecx
; _cchDest$ = eax

; 8947 : {

  00000	55		 push	 ebp
  00001	8b ec		 mov	 ebp, esp
  00003	51		 push	 ecx

; 8948 :     HRESULT hr = S_OK;

  00004	83 65 fc 00	 and	 DWORD PTR _hr$[ebp], 0
  00008	57		 push	 edi
  00009	8b f8		 mov	 edi, eax

; 8949 :     size_t cchNewDestLength = 0;

  0000b	33 c0		 xor	 eax, eax

; 8950 :     
; 8951 :     // ASSERT(cchDest != 0);
; 8952 : 
; 8953 :     while (cchDest && cchToCopy && (*pszSrc != '\0'))

  0000d	85 ff		 test	 edi, edi
  0000f	74 23		 je	 SHORT $LN9@StringCopy

; 8948 :     HRESULT hr = S_OK;

  00011	53		 push	 ebx
  00012	8b 5d 10	 mov	 ebx, DWORD PTR _cchToCopy$[ebp]
  00015	56		 push	 esi

; 8950 :     
; 8951 :     // ASSERT(cchDest != 0);
; 8952 : 
; 8953 :     while (cchDest && cchToCopy && (*pszSrc != '\0'))

  00016	8b 75 0c	 mov	 esi, DWORD PTR _pszSrc$[ebp]
  00019	2b f1		 sub	 esi, ecx
$LL4@StringCopy:
  0001b	85 db		 test	 ebx, ebx
  0001d	74 0f		 je	 SHORT $LN11@StringCopy
  0001f	8a 14 0e	 mov	 dl, BYTE PTR [esi+ecx]
  00022	84 d2		 test	 dl, dl
  00024	74 08		 je	 SHORT $LN11@StringCopy

; 8954 :     {
; 8955 :         *pszDest++ = *pszSrc++;

  00026	88 11		 mov	 BYTE PTR [ecx], dl
  00028	41		 inc	 ecx

; 8956 :         cchDest--;

  00029	4b		 dec	 ebx

; 8957 :         cchToCopy--;
; 8958 : 
; 8959 :         cchNewDestLength++;

  0002a	40		 inc	 eax
  0002b	4f		 dec	 edi
  0002c	75 ed		 jne	 SHORT $LL4@StringCopy
$LN11@StringCopy:
  0002e	5e		 pop	 esi
  0002f	5b		 pop	 ebx

; 8960 :     }
; 8961 : 
; 8962 :     if (cchDest == 0)

  00030	85 ff		 test	 edi, edi
  00032	75 09		 jne	 SHORT $LN2@StringCopy
$LN9@StringCopy:

; 8963 :     {
; 8964 :         // we are going to truncate pszDest
; 8965 :         pszDest--;

  00034	49		 dec	 ecx

; 8966 :         cchNewDestLength--;

  00035	48		 dec	 eax

; 8967 : 
; 8968 :         hr = STRSAFE_E_INSUFFICIENT_BUFFER;

  00036	c7 45 fc 7a 00
	07 80		 mov	 DWORD PTR _hr$[ebp], -2147024774 ; 8007007aH
$LN2@StringCopy:

; 8969 :     }
; 8970 : 
; 8971 :     *pszDest = '\0';

  0003d	c6 01 00	 mov	 BYTE PTR [ecx], 0

; 8972 : 
; 8973 :     if (pcchNewDestLength)

  00040	8b 4d 08	 mov	 ecx, DWORD PTR _pcchNewDestLength$[ebp]
  00043	5f		 pop	 edi
  00044	85 c9		 test	 ecx, ecx
  00046	74 02		 je	 SHORT $LN1@StringCopy

; 8974 :     {
; 8975 :         *pcchNewDestLength = cchNewDestLength;

  00048	89 01		 mov	 DWORD PTR [ecx], eax
$LN1@StringCopy:

; 8976 :     }
; 8977 : 
; 8978 :     return hr;

  0004a	8b 45 fc	 mov	 eax, DWORD PTR _hr$[ebp]

; 8979 : }

  0004d	c9		 leave
  0004e	c2 0c 00	 ret	 12			; 0000000cH
?StringCopyWorkerA@@YGJPADIPAIPBDI@Z ENDP		; StringCopyWorkerA
_TEXT	ENDS
EXTRN	__imp___vsnprintf:PROC
; Function compile flags: /Ogsp
;	COMDAT ?StringVPrintfWorkerA@@YGJPADIPAIPBD0@Z
_TEXT	SEGMENT
_pcchNewDestLength$ = 8					; size = 4
_pszFormat$ = 12					; size = 4
_argList$ = 16						; size = 4
?StringVPrintfWorkerA@@YGJPADIPAIPBD0@Z PROC		; StringVPrintfWorkerA, COMDAT
; _pszDest$ = edi
; _cchDest$ = eax

; 9029 : {

  00000	55		 push	 ebp
  00001	8b ec		 mov	 ebp, esp
  00003	53		 push	 ebx
  00004	56		 push	 esi

; 9030 :     HRESULT hr = S_OK;
; 9031 :     int iRet;
; 9032 :     size_t cchMax;
; 9033 :     size_t cchNewDestLength = 0;
; 9034 : 
; 9035 :     // leave the last space for the null terminator
; 9036 :     cchMax = cchDest - 1;
; 9037 : 
; 9038 : #if (STRSAFE_USE_SECURE_CRT == 1) && !defined(STRSAFE_LIB_IMPL)
; 9039 :     iRet = _vsnprintf_s(pszDest, cchDest, cchMax, pszFormat, argList);
; 9040 : #else
; 9041 :     #pragma warning(push)
; 9042 :     #pragma warning(disable: __WARNING_BANNED_API_USAGE)// "STRSAFE not included"
; 9043 :     iRet = _vsnprintf(pszDest, cchMax, pszFormat, argList);

  00005	ff 75 10	 push	 DWORD PTR _argList$[ebp]
  00008	8d 70 ff	 lea	 esi, DWORD PTR [eax-1]
  0000b	ff 75 0c	 push	 DWORD PTR _pszFormat$[ebp]
  0000e	33 db		 xor	 ebx, ebx
  00010	56		 push	 esi
  00011	57		 push	 edi
  00012	ff 15 00 00 00
	00		 call	 DWORD PTR __imp___vsnprintf
  00018	83 c4 10	 add	 esp, 16			; 00000010H

; 9044 :     #pragma warning(pop)
; 9045 : #endif
; 9046 :     // ASSERT((iRet < 0) || (((size_t)iRet) <= cchMax));
; 9047 : 
; 9048 :     if ((iRet < 0) || (((size_t)iRet) > cchMax))

  0001b	85 c0		 test	 eax, eax
  0001d	78 0b		 js	 SHORT $LN5@StringVPri
  0001f	3b c6		 cmp	 eax, esi
  00021	77 07		 ja	 SHORT $LN5@StringVPri

; 9058 :     }
; 9059 :     else if (((size_t)iRet) == cchMax)

  00023	75 0f		 jne	 SHORT $LN2@StringVPri

; 9060 :     {
; 9061 :         // need to null terminate the string
; 9062 :         pszDest += cchMax;
; 9063 :         *pszDest = '\0';

  00025	88 1c 3e	 mov	 BYTE PTR [esi+edi], bl

; 9064 : 
; 9065 :         cchNewDestLength = cchMax;
; 9066 :     }
; 9067 :     else

  00028	eb 08		 jmp	 SHORT $LN9@StringVPri
$LN5@StringVPri:

; 9049 :     {
; 9050 :         // need to null terminate the string
; 9051 :         pszDest += cchMax;
; 9052 :         *pszDest = '\0';

  0002a	88 1c 3e	 mov	 BYTE PTR [esi+edi], bl

; 9055 : 
; 9056 :         // we have truncated pszDest
; 9057 :         hr = STRSAFE_E_INSUFFICIENT_BUFFER;

  0002d	bb 7a 00 07 80	 mov	 ebx, -2147024774	; 8007007aH
$LN9@StringVPri:

; 9053 : 
; 9054 :         cchNewDestLength = cchMax;

  00032	8b c6		 mov	 eax, esi
$LN2@StringVPri:

; 9068 :     {
; 9069 :         cchNewDestLength = (size_t)iRet;
; 9070 :     }
; 9071 : 
; 9072 :     if (pcchNewDestLength)

  00034	8b 4d 08	 mov	 ecx, DWORD PTR _pcchNewDestLength$[ebp]
  00037	85 c9		 test	 ecx, ecx
  00039	74 02		 je	 SHORT $LN1@StringVPri

; 9073 :     {
; 9074 :         *pcchNewDestLength = cchNewDestLength;

  0003b	89 01		 mov	 DWORD PTR [ecx], eax
$LN1@StringVPri:
  0003d	5e		 pop	 esi

; 9075 :     }
; 9076 : 
; 9077 :     return hr;

  0003e	8b c3		 mov	 eax, ebx
  00040	5b		 pop	 ebx

; 9078 : }

  00041	5d		 pop	 ebp
  00042	c2 0c 00	 ret	 12			; 0000000cH
?StringVPrintfWorkerA@@YGJPADIPAIPBD0@Z ENDP		; StringVPrintfWorkerA
_TEXT	ENDS
PUBLIC	?_DECSTR@@YAXPADH@Z				; _DECSTR
; Function compile flags: /Ogsp
; File d:\lost saga for developer\youtube\tutorial\source\src\lsclient\stringprotect.h
;	COMDAT ?_DECSTR@@YAXPADH@Z
_TEXT	SEGMENT
_s$ = 8							; size = 4
_l$ = 12						; size = 4
?_DECSTR@@YAXPADH@Z PROC				; _DECSTR, COMDAT

; 40   : __forceinline void _DECSTR(char* s, int l){int i=0,l4=(l-1)/4,*p=(int*)s;s[l-1]=0;for(;i<l4;++i)*(p++)^=0xEAEBECED;for(i=l4*4;i<l-1;++i)s[i]^=0xED-i%4;}

  00000	55		 push	 ebp
  00001	8b ec		 mov	 ebp, esp
  00003	8b 4d 0c	 mov	 ecx, DWORD PTR _l$[ebp]
  00006	56		 push	 esi
  00007	8b 75 08	 mov	 esi, DWORD PTR _s$[ebp]
  0000a	57		 push	 edi
  0000b	8d 79 ff	 lea	 edi, DWORD PTR [ecx-1]
  0000e	8b c7		 mov	 eax, edi
  00010	99		 cdq
  00011	83 e2 03	 and	 edx, 3
  00014	03 c2		 add	 eax, edx
  00016	c1 f8 02	 sar	 eax, 2
  00019	8b d6		 mov	 edx, esi
  0001b	c6 44 0e ff 00	 mov	 BYTE PTR [esi+ecx-1], 0
  00020	85 c0		 test	 eax, eax
  00022	7e 0e		 jle	 SHORT $LN4@DECSTR
  00024	8b c8		 mov	 ecx, eax
$LL6@DECSTR:
  00026	81 32 ed ec eb
	ea		 xor	 DWORD PTR [edx], -353637139 ; eaebecedH
  0002c	83 c2 04	 add	 edx, 4
  0002f	49		 dec	 ecx
  00030	75 f4		 jne	 SHORT $LL6@DECSTR
$LN4@DECSTR:
  00032	c1 e0 02	 shl	 eax, 2
  00035	eb 17		 jmp	 SHORT $LN14@DECSTR
$LL3@DECSTR:
  00037	8b c8		 mov	 ecx, eax
  00039	81 e1 03 00 00
	80		 and	 ecx, -2147483645	; 80000003H
  0003f	79 05		 jns	 SHORT $LN13@DECSTR
  00041	49		 dec	 ecx
  00042	83 c9 fc	 or	 ecx, -4			; fffffffcH
  00045	41		 inc	 ecx
$LN13@DECSTR:
  00046	b2 ed		 mov	 dl, -19			; ffffffedH
  00048	2a d1		 sub	 dl, cl
  0004a	30 14 30	 xor	 BYTE PTR [eax+esi], dl
  0004d	40		 inc	 eax
$LN14@DECSTR:
  0004e	3b c7		 cmp	 eax, edi
  00050	7c e5		 jl	 SHORT $LL3@DECSTR
  00052	5f		 pop	 edi
  00053	5e		 pop	 esi
  00054	5d		 pop	 ebp
  00055	c3		 ret	 0
?_DECSTR@@YAXPADH@Z ENDP				; _DECSTR
_TEXT	ENDS
PUBLIC	?GetGameStage@ioApplication@@QBEPAVioGameStage@@XZ ; ioApplication::GetGameStage
; Function compile flags: /Ogsp
; File d:\lost saga for developer\youtube\tutorial\source\src\lsclient\ioapplication.h
;	COMDAT ?GetGameStage@ioApplication@@QBEPAVioGameStage@@XZ
_TEXT	SEGMENT
?GetGameStage@ioApplication@@QBEPAVioGameStage@@XZ PROC	; ioApplication::GetGameStage, COMDAT
; _this$ = ecx

; 685  : 	ioGameStage * GetGameStage() const { return m_pGameStage; }

  00000	8b 81 28 01 00
	00		 mov	 eax, DWORD PTR [ecx+296]
  00006	c3		 ret	 0
?GetGameStage@ioApplication@@QBEPAVioGameStage@@XZ ENDP	; ioApplication::GetGameStage
_TEXT	ENDS
PUBLIC	?GetConnectedMoveMode@ioApplication@@QAE?AW4ConnectedMoveMode@1@XZ ; ioApplication::GetConnectedMoveMode
; Function compile flags: /Ogsp
;	COMDAT ?GetConnectedMoveMode@ioApplication@@QAE?AW4ConnectedMoveMode@1@XZ
_TEXT	SEGMENT
?GetConnectedMoveMode@ioApplication@@QAE?AW4ConnectedMoveMode@1@XZ PROC ; ioApplication::GetConnectedMoveMode, COMDAT
; _this$ = ecx

; 1225 : 	inline ConnectedMoveMode GetConnectedMoveMode(){ return static_cast<ConnectedMoveMode>( m_eConnectedMoveMode ); }

  00000	8b 81 ac 06 00
	00		 mov	 eax, DWORD PTR [ecx+1708]
  00006	c3		 ret	 0
?GetConnectedMoveMode@ioApplication@@QAE?AW4ConnectedMoveMode@1@XZ ENDP ; ioApplication::GetConnectedMoveMode
_TEXT	ENDS
PUBLIC	?GetName@ioEtcItem@@QBEABVioHashString@@XZ	; ioEtcItem::GetName
; Function compile flags: /Ogsp
; File d:\lost saga for developer\youtube\tutorial\source\src\lsclient\ioetcitem.h
;	COMDAT ?GetName@ioEtcItem@@QBEABVioHashString@@XZ
_TEXT	SEGMENT
?GetName@ioEtcItem@@QBEABVioHashString@@XZ PROC		; ioEtcItem::GetName, COMDAT
; _this$ = ecx

; 465  : 	inline const ioHashString& GetName() const { return m_Name; }

  00000	8d 41 04	 lea	 eax, DWORD PTR [ecx+4]
  00003	c3		 ret	 0
?GetName@ioEtcItem@@QBEABVioHashString@@XZ ENDP		; ioEtcItem::GetName
_TEXT	ENDS
PUBLIC	?GetIconName@ioEtcItem@@QBEABVioHashString@@XZ	; ioEtcItem::GetIconName
; Function compile flags: /Ogsp
;	COMDAT ?GetIconName@ioEtcItem@@QBEABVioHashString@@XZ
_TEXT	SEGMENT
?GetIconName@ioEtcItem@@QBEABVioHashString@@XZ PROC	; ioEtcItem::GetIconName, COMDAT
; _this$ = ecx

; 467  : 	inline const ioHashString& GetIconName() const { return m_IconName; }

  00000	8d 81 60 01 00
	00		 lea	 eax, DWORD PTR [ecx+352]
  00006	c3		 ret	 0
?GetIconName@ioEtcItem@@QBEABVioHashString@@XZ ENDP	; ioEtcItem::GetIconName
_TEXT	ENDS
PUBLIC	?GetTtitle@ioRisingGashapon@@QBEABVioHashString@@XZ ; ioRisingGashapon::GetTtitle
; Function compile flags: /Ogsp
;	COMDAT ?GetTtitle@ioRisingGashapon@@QBEABVioHashString@@XZ
_TEXT	SEGMENT
?GetTtitle@ioRisingGashapon@@QBEABVioHashString@@XZ PROC ; ioRisingGashapon::GetTtitle, COMDAT
; _this$ = ecx

; 2473 : 	inline const ioHashString& GetTtitle() const { return m_szTtitle; }

  00000	8d 81 88 01 00
	00		 lea	 eax, DWORD PTR [ecx+392]
  00006	c3		 ret	 0
?GetTtitle@ioRisingGashapon@@QBEABVioHashString@@XZ ENDP ; ioRisingGashapon::GetTtitle
_TEXT	ENDS
PUBLIC	?GetMent1@ioRisingGashapon@@QBEABVioHashString@@XZ ; ioRisingGashapon::GetMent1
; Function compile flags: /Ogsp
;	COMDAT ?GetMent1@ioRisingGashapon@@QBEABVioHashString@@XZ
_TEXT	SEGMENT
?GetMent1@ioRisingGashapon@@QBEABVioHashString@@XZ PROC	; ioRisingGashapon::GetMent1, COMDAT
; _this$ = ecx

; 2474 : 	inline const ioHashString& GetMent1() const { return m_szMent1; }

  00000	8d 81 98 01 00
	00		 lea	 eax, DWORD PTR [ecx+408]
  00006	c3		 ret	 0
?GetMent1@ioRisingGashapon@@QBEABVioHashString@@XZ ENDP	; ioRisingGashapon::GetMent1
_TEXT	ENDS
PUBLIC	?GetMent2@ioRisingGashapon@@QBEABVioHashString@@XZ ; ioRisingGashapon::GetMent2
; Function compile flags: /Ogsp
;	COMDAT ?GetMent2@ioRisingGashapon@@QBEABVioHashString@@XZ
_TEXT	SEGMENT
?GetMent2@ioRisingGashapon@@QBEABVioHashString@@XZ PROC	; ioRisingGashapon::GetMent2, COMDAT
; _this$ = ecx

; 2475 : 	inline const ioHashString& GetMent2() const { return m_szMent2; }

  00000	8d 81 a8 01 00
	00		 lea	 eax, DWORD PTR [ecx+424]
  00006	c3		 ret	 0
?GetMent2@ioRisingGashapon@@QBEABVioHashString@@XZ ENDP	; ioRisingGashapon::GetMent2
_TEXT	ENDS
PUBLIC	?GetBuyPesoText@ioRisingGashapon@@QBEABVioHashString@@XZ ; ioRisingGashapon::GetBuyPesoText
; Function compile flags: /Ogsp
;	COMDAT ?GetBuyPesoText@ioRisingGashapon@@QBEABVioHashString@@XZ
_TEXT	SEGMENT
?GetBuyPesoText@ioRisingGashapon@@QBEABVioHashString@@XZ PROC ; ioRisingGashapon::GetBuyPesoText, COMDAT
; _this$ = ecx

; 2476 : 	inline const ioHashString& GetBuyPesoText() const { return m_szBuyPesoText; }

  00000	8d 81 b8 01 00
	00		 lea	 eax, DWORD PTR [ecx+440]
  00006	c3		 ret	 0
?GetBuyPesoText@ioRisingGashapon@@QBEABVioHashString@@XZ ENDP ; ioRisingGashapon::GetBuyPesoText
_TEXT	ENDS
PUBLIC	?GetBuyCashText@ioRisingGashapon@@QBEABVioHashString@@XZ ; ioRisingGashapon::GetBuyCashText
; Function compile flags: /Ogsp
;	COMDAT ?GetBuyCashText@ioRisingGashapon@@QBEABVioHashString@@XZ
_TEXT	SEGMENT
?GetBuyCashText@ioRisingGashapon@@QBEABVioHashString@@XZ PROC ; ioRisingGashapon::GetBuyCashText, COMDAT
; _this$ = ecx

; 2477 : 	inline const ioHashString& GetBuyCashText() const { return m_szBuyCashText; }

  00000	8d 81 c8 01 00
	00		 lea	 eax, DWORD PTR [ecx+456]
  00006	c3		 ret	 0
?GetBuyCashText@ioRisingGashapon@@QBEABVioHashString@@XZ ENDP ; ioRisingGashapon::GetBuyCashText
_TEXT	ENDS
PUBLIC	?GetCurState@FSMStateMgr@@QBEHXZ		; FSMStateMgr::GetCurState
; Function compile flags: /Ogsp
; File d:\lost saga for developer\youtube\tutorial\source\src\lsclient\gui\fsmstatemgr.h
;	COMDAT ?GetCurState@FSMStateMgr@@QBEHXZ
_TEXT	SEGMENT
?GetCurState@FSMStateMgr@@QBEHXZ PROC			; FSMStateMgr::GetCurState, COMDAT
; _this$ = ecx

; 52   : 	inline int GetCurState() const { return m_iCurState; }

  00000	8b 41 04	 mov	 eax, DWORD PTR [ecx+4]
  00003	c3		 ret	 0
?GetCurState@FSMStateMgr@@QBEHXZ ENDP			; FSMStateMgr::GetCurState
_TEXT	ENDS
PUBLIC	?Clear@NeedPesoInfo@NewShopNeedPesoWnd@@QAEXXZ	; NewShopNeedPesoWnd::NeedPesoInfo::Clear
; Function compile flags: /Ogsp
; File d:\lost saga for developer\youtube\tutorial\source\src\lsclient\gui\newshopbuywnd.h
;	COMDAT ?Clear@NeedPesoInfo@NewShopNeedPesoWnd@@QAEXXZ
_TEXT	SEGMENT
?Clear@NeedPesoInfo@NewShopNeedPesoWnd@@QAEXXZ PROC	; NewShopNeedPesoWnd::NeedPesoInfo::Clear, COMDAT
; _this$ = ecx

; 341  : 		{

  00000	56		 push	 esi

; 342  : 			m_sName.Clear();

  00001	8b 35 00 00 00
	00		 mov	 esi, DWORD PTR __imp_?Clear@ioHashString@@QAEXXZ
  00007	57		 push	 edi
  00008	8b f9		 mov	 edi, ecx
  0000a	ff d6		 call	 esi

; 343  : 			m_sIcon.Clear();

  0000c	8d 4f 10	 lea	 ecx, DWORD PTR [edi+16]
  0000f	ff d6		 call	 esi

; 344  : 			m_sPrice.Clear();

  00011	8d 4f 20	 lea	 ecx, DWORD PTR [edi+32]
  00014	ff d6		 call	 esi

; 345  : 			m_sMinusPrice.Clear();

  00016	8d 4f 30	 lea	 ecx, DWORD PTR [edi+48]
  00019	ff d6		 call	 esi
  0001b	5f		 pop	 edi
  0001c	5e		 pop	 esi

; 346  : 		}

  0001d	c3		 ret	 0
?Clear@NeedPesoInfo@NewShopNeedPesoWnd@@QAEXXZ ENDP	; NewShopNeedPesoWnd::NeedPesoInfo::Clear
_TEXT	ENDS
PUBLIC	??0NeedPesoInfo@NewShopNeedPesoWnd@@QAE@XZ	; NewShopNeedPesoWnd::NeedPesoInfo::NeedPesoInfo
EXTRN	__imp_??0ioHashString@@QAE@XZ:PROC
;	COMDAT xdata$x
xdata$x	SEGMENT
__unwindtable$??0NeedPesoInfo@NewShopNeedPesoWnd@@QAE@XZ DD 0ffffffffH
	DD	FLAT:__unwindfunclet$??0NeedPesoInfo@NewShopNeedPesoWnd@@QAE@XZ$0
	DD	00H
	DD	FLAT:__unwindfunclet$??0NeedPesoInfo@NewShopNeedPesoWnd@@QAE@XZ$1
	DD	01H
	DD	FLAT:__unwindfunclet$??0NeedPesoInfo@NewShopNeedPesoWnd@@QAE@XZ$2
	DD	02H
	DD	FLAT:__unwindfunclet$??0NeedPesoInfo@NewShopNeedPesoWnd@@QAE@XZ$3
__ehfuncinfo$??0NeedPesoInfo@NewShopNeedPesoWnd@@QAE@XZ DD 019930522H
	DD	04H
	DD	FLAT:__unwindtable$??0NeedPesoInfo@NewShopNeedPesoWnd@@QAE@XZ
	DD	2 DUP(00H)
	DD	2 DUP(00H)
	DD	00H
	DD	01H
; Function compile flags: /Ogsp
xdata$x	ENDS
;	COMDAT ??0NeedPesoInfo@NewShopNeedPesoWnd@@QAE@XZ
_TEXT	SEGMENT
_this$ = -16						; size = 4
__$EHRec$ = -12						; size = 12
??0NeedPesoInfo@NewShopNeedPesoWnd@@QAE@XZ PROC		; NewShopNeedPesoWnd::NeedPesoInfo::NeedPesoInfo, COMDAT
; _this$ = ecx

; 348  : 		NeedPesoInfo()

  00000	6a 04		 push	 4
  00002	b8 00 00 00 00	 mov	 eax, __ehhandler$??0NeedPesoInfo@NewShopNeedPesoWnd@@QAE@XZ
  00007	e8 00 00 00 00	 call	 __EH_prolog3
  0000c	8b f9		 mov	 edi, ecx
  0000e	89 7d f0	 mov	 DWORD PTR _this$[ebp], edi
  00011	8b 35 00 00 00
	00		 mov	 esi, DWORD PTR __imp_??0ioHashString@@QAE@XZ
  00017	ff d6		 call	 esi
  00019	83 65 fc 00	 and	 DWORD PTR __$EHRec$[ebp+8], 0
  0001d	8d 4f 10	 lea	 ecx, DWORD PTR [edi+16]
  00020	ff d6		 call	 esi
  00022	8d 4f 20	 lea	 ecx, DWORD PTR [edi+32]
  00025	c6 45 fc 01	 mov	 BYTE PTR __$EHRec$[ebp+8], 1
  00029	ff d6		 call	 esi
  0002b	8d 4f 30	 lea	 ecx, DWORD PTR [edi+48]
  0002e	c6 45 fc 02	 mov	 BYTE PTR __$EHRec$[ebp+8], 2
  00032	ff d6		 call	 esi

; 349  : 		{
; 350  : 			Clear();

  00034	8b cf		 mov	 ecx, edi
  00036	c6 45 fc 03	 mov	 BYTE PTR __$EHRec$[ebp+8], 3
  0003a	e8 00 00 00 00	 call	 ?Clear@NeedPesoInfo@NewShopNeedPesoWnd@@QAEXXZ ; NewShopNeedPesoWnd::NeedPesoInfo::Clear

; 351  : 		}

  0003f	8b c7		 mov	 eax, edi
  00041	e8 00 00 00 00	 call	 __EH_epilog3
  00046	c3		 ret	 0
_TEXT	ENDS
;	COMDAT text$x
text$x	SEGMENT
__unwindfunclet$??0NeedPesoInfo@NewShopNeedPesoWnd@@QAE@XZ$0:
  00000	8b 4d f0	 mov	 ecx, DWORD PTR _this$[ebp]
  00003	ff 25 00 00 00
	00		 jmp	 DWORD PTR __imp_??1ioHashString@@QAE@XZ
__unwindfunclet$??0NeedPesoInfo@NewShopNeedPesoWnd@@QAE@XZ$1:
  00009	8b 4d f0	 mov	 ecx, DWORD PTR _this$[ebp]
  0000c	83 c1 10	 add	 ecx, 16			; 00000010H
  0000f	ff 25 00 00 00
	00		 jmp	 DWORD PTR __imp_??1ioHashString@@QAE@XZ
__unwindfunclet$??0NeedPesoInfo@NewShopNeedPesoWnd@@QAE@XZ$2:
  00015	8b 4d f0	 mov	 ecx, DWORD PTR _this$[ebp]
  00018	83 c1 20	 add	 ecx, 32			; 00000020H
  0001b	ff 25 00 00 00
	00		 jmp	 DWORD PTR __imp_??1ioHashString@@QAE@XZ
__unwindfunclet$??0NeedPesoInfo@NewShopNeedPesoWnd@@QAE@XZ$3:
  00021	8b 4d f0	 mov	 ecx, DWORD PTR _this$[ebp]
  00024	83 c1 30	 add	 ecx, 48			; 00000030H
  00027	ff 25 00 00 00
	00		 jmp	 DWORD PTR __imp_??1ioHashString@@QAE@XZ
__ehhandler$??0NeedPesoInfo@NewShopNeedPesoWnd@@QAE@XZ:
  0002d	8b 54 24 08	 mov	 edx, DWORD PTR [esp+8]
  00031	8d 42 0c	 lea	 eax, DWORD PTR [edx+12]
  00034	8b 4a ec	 mov	 ecx, DWORD PTR [edx-20]
  00037	33 c8		 xor	 ecx, eax
  00039	e8 00 00 00 00	 call	 @__security_check_cookie@4
  0003e	b8 00 00 00 00	 mov	 eax, OFFSET __ehfuncinfo$??0NeedPesoInfo@NewShopNeedPesoWnd@@QAE@XZ
  00043	e9 00 00 00 00	 jmp	 ___CxxFrameHandler3
text$x	ENDS
??0NeedPesoInfo@NewShopNeedPesoWnd@@QAE@XZ ENDP		; NewShopNeedPesoWnd::NeedPesoInfo::NeedPesoInfo
PUBLIC	?GetPublicID@ioMyInfo@@QBEABVioHashString@@XZ	; ioMyInfo::GetPublicID
; Function compile flags: /Ogsp
; File d:\lost saga for developer\youtube\tutorial\source\src\lsclient\iomyinfo.h
;	COMDAT ?GetPublicID@ioMyInfo@@QBEABVioHashString@@XZ
_TEXT	SEGMENT
?GetPublicID@ioMyInfo@@QBEABVioHashString@@XZ PROC	; ioMyInfo::GetPublicID, COMDAT
; _this$ = ecx

; 517  : 	const ioHashString& GetPublicID() const { return m_user_data.m_public_id; }    

  00000	8d 41 1c	 lea	 eax, DWORD PTR [ecx+28]
  00003	c3		 ret	 0
?GetPublicID@ioMyInfo@@QBEABVioHashString@@XZ ENDP	; ioMyInfo::GetPublicID
_TEXT	ENDS
PUBLIC	?GetMoney@ioMyInfo@@QBE_JXZ			; ioMyInfo::GetMoney
; Function compile flags: /Ogsp
;	COMDAT ?GetMoney@ioMyInfo@@QBE_JXZ
_TEXT	SEGMENT
?GetMoney@ioMyInfo@@QBE_JXZ PROC			; ioMyInfo::GetMoney, COMDAT
; _this$ = ecx

; 545  : 	__int64 GetMoney() const { return m_user_data.m_money; }

  00000	8b 41 30	 mov	 eax, DWORD PTR [ecx+48]
  00003	8b 51 34	 mov	 edx, DWORD PTR [ecx+52]
  00006	c3		 ret	 0
?GetMoney@ioMyInfo@@QBE_JXZ ENDP			; ioMyInfo::GetMoney
_TEXT	ENDS
PUBLIC	?GetEntryType@ioMyInfo@@QBE?AW4EntryType@@XZ	; ioMyInfo::GetEntryType
; Function compile flags: /Ogsp
;	COMDAT ?GetEntryType@ioMyInfo@@QBE?AW4EntryType@@XZ
_TEXT	SEGMENT
?GetEntryType@ioMyInfo@@QBE?AW4EntryType@@XZ PROC	; ioMyInfo::GetEntryType, COMDAT
; _this$ = ecx

; 816  : 	EntryType GetEntryType() const { return m_user_data.m_eEntryType; }

  00000	8b 41 5c	 mov	 eax, DWORD PTR [ecx+92]
  00003	c3		 ret	 0
?GetEntryType@ioMyInfo@@QBE?AW4EntryType@@XZ ENDP	; ioMyInfo::GetEntryType
_TEXT	ENDS
PUBLIC	?size@?$basic_string@DU?$char_traits@D@std@@V?$allocator@D@2@@std@@QBEIXZ ; std::basic_string<char,std::char_traits<char>,std::allocator<char> >::size
; Function compile flags: /Ogsp
; File c:\program files (x86)\microsoft visual studio 10.0\vc\include\xstring
;	COMDAT ?size@?$basic_string@DU?$char_traits@D@std@@V?$allocator@D@2@@std@@QBEIXZ
_TEXT	SEGMENT
?size@?$basic_string@DU?$char_traits@D@std@@V?$allocator@D@2@@std@@QBEIXZ PROC ; std::basic_string<char,std::char_traits<char>,std::allocator<char> >::size, COMDAT
; _this$ = ecx

; 1512 : 		return (this->_Mysize);

  00000	8b 41 10	 mov	 eax, DWORD PTR [ecx+16]

; 1513 : 		}

  00003	c3		 ret	 0
?size@?$basic_string@DU?$char_traits@D@std@@V?$allocator@D@2@@std@@QBEIXZ ENDP ; std::basic_string<char,std::char_traits<char>,std::allocator<char> >::size
_TEXT	ENDS
PUBLIC	?size@?$vector@VioHashString@@V?$allocator@VioHashString@@@std@@@std@@QBEIXZ ; std::vector<ioHashString,std::allocator<ioHashString> >::size
; Function compile flags: /Ogsp
; File c:\program files (x86)\microsoft visual studio 10.0\vc\include\vector
;	COMDAT ?size@?$vector@VioHashString@@V?$allocator@VioHashString@@@std@@@std@@QBEIXZ
_TEXT	SEGMENT
?size@?$vector@VioHashString@@V?$allocator@VioHashString@@@std@@@std@@QBEIXZ PROC ; std::vector<ioHashString,std::allocator<ioHashString> >::size, COMDAT
; _this$ = ecx

; 879  : 		return (this->_Mylast - this->_Myfirst);

  00000	8b 41 04	 mov	 eax, DWORD PTR [ecx+4]
  00003	2b 01		 sub	 eax, DWORD PTR [ecx]
  00005	c1 f8 04	 sar	 eax, 4

; 880  : 		}

  00008	c3		 ret	 0
?size@?$vector@VioHashString@@V?$allocator@VioHashString@@@std@@@std@@QBEIXZ ENDP ; std::vector<ioHashString,std::allocator<ioHashString> >::size
_TEXT	ENDS
PUBLIC	?size@?$vector@HV?$allocator@H@std@@@std@@QBEIXZ ; std::vector<int,std::allocator<int> >::size
; Function compile flags: /Ogsp
;	COMDAT ?size@?$vector@HV?$allocator@H@std@@@std@@QBEIXZ
_TEXT	SEGMENT
?size@?$vector@HV?$allocator@H@std@@@std@@QBEIXZ PROC	; std::vector<int,std::allocator<int> >::size, COMDAT
; _this$ = ecx

; 879  : 		return (this->_Mylast - this->_Myfirst);

  00000	8b 41 04	 mov	 eax, DWORD PTR [ecx+4]
  00003	2b 01		 sub	 eax, DWORD PTR [ecx]
  00005	c1 f8 02	 sar	 eax, 2

; 880  : 		}

  00008	c3		 ret	 0
?size@?$vector@HV?$allocator@H@std@@@std@@QBEIXZ ENDP	; std::vector<int,std::allocator<int> >::size
_TEXT	ENDS
PUBLIC	??A?$vector@HV?$allocator@H@std@@@std@@QAEAAHI@Z ; std::vector<int,std::allocator<int> >::operator[]
; Function compile flags: /Ogsp
;	COMDAT ??A?$vector@HV?$allocator@H@std@@@std@@QAEAAHI@Z
_TEXT	SEGMENT
__Pos$ = 8						; size = 4
??A?$vector@HV?$allocator@H@std@@@std@@QAEAAHI@Z PROC	; std::vector<int,std::allocator<int> >::operator[], COMDAT
; _this$ = ecx

; 928  : 		{	// subscript mutable sequence

  00000	55		 push	 ebp
  00001	8b ec		 mov	 ebp, esp

; 929  :  #if _ITERATOR_DEBUG_LEVEL == 2
; 930  : 		if (size() <= _Pos)
; 931  : 			{	// report error
; 932  : 			_DEBUG_ERROR("vector subscript out of range");
; 933  : 			_SCL_SECURE_OUT_OF_RANGE;
; 934  : 			}
; 935  : 
; 936  :  #elif _ITERATOR_DEBUG_LEVEL == 1
; 937  : 		_SCL_SECURE_VALIDATE_RANGE(_Pos < size());
; 938  :  #endif /* _ITERATOR_DEBUG_LEVEL */
; 939  : 
; 940  : 		return (*(this->_Myfirst + _Pos));

  00003	8b 01		 mov	 eax, DWORD PTR [ecx]
  00005	8b 4d 08	 mov	 ecx, DWORD PTR __Pos$[ebp]
  00008	8d 04 88	 lea	 eax, DWORD PTR [eax+ecx*4]

; 941  : 		}

  0000b	5d		 pop	 ebp
  0000c	c2 04 00	 ret	 4
??A?$vector@HV?$allocator@H@std@@@std@@QAEAAHI@Z ENDP	; std::vector<int,std::allocator<int> >::operator[]
_TEXT	ENDS
PUBLIC	?_Myptr@?$basic_string@DU?$char_traits@D@std@@V?$allocator@D@2@@std@@QBEPBDXZ ; std::basic_string<char,std::char_traits<char>,std::allocator<char> >::_Myptr
; Function compile flags: /Ogsp
; File c:\program files (x86)\microsoft visual studio 10.0\vc\include\xstring
;	COMDAT ?_Myptr@?$basic_string@DU?$char_traits@D@std@@V?$allocator@D@2@@std@@QBEPBDXZ
_TEXT	SEGMENT
?_Myptr@?$basic_string@DU?$char_traits@D@std@@V?$allocator@D@2@@std@@QBEPBDXZ PROC ; std::basic_string<char,std::char_traits<char>,std::allocator<char> >::_Myptr, COMDAT
; _this$ = ecx

; 2010 : 		return (this->_BUF_SIZE <= this->_Myres ? this->_Bx._Ptr
; 2011 : 			: this->_Bx._Buf);

  00000	83 79 14 10	 cmp	 DWORD PTR [ecx+20], 16	; 00000010H
  00004	72 03		 jb	 SHORT $LN3@Myptr
  00006	8b 01		 mov	 eax, DWORD PTR [ecx]

; 2012 : 		}

  00008	c3		 ret	 0
$LN3@Myptr:

; 2010 : 		return (this->_BUF_SIZE <= this->_Myres ? this->_Bx._Ptr
; 2011 : 			: this->_Bx._Buf);

  00009	8b c1		 mov	 eax, ecx

; 2012 : 		}

  0000b	c3		 ret	 0
?_Myptr@?$basic_string@DU?$char_traits@D@std@@V?$allocator@D@2@@std@@QBEPBDXZ ENDP ; std::basic_string<char,std::char_traits<char>,std::allocator<char> >::_Myptr
_TEXT	ENDS
PUBLIC	??1?$_String_val@DV?$allocator@D@std@@@std@@QAE@XZ ; std::_String_val<char,std::allocator<char> >::~_String_val<char,std::allocator<char> >
; Function compile flags: /Ogsp
;	COMDAT ??1?$_String_val@DV?$allocator@D@std@@@std@@QAE@XZ
_TEXT	SEGMENT
??1?$_String_val@DV?$allocator@D@std@@@std@@QAE@XZ PROC	; std::_String_val<char,std::allocator<char> >::~_String_val<char,std::allocator<char> >, COMDAT
; _this$ = ecx

; 459  : 		}

  00000	c3		 ret	 0
??1?$_String_val@DV?$allocator@D@std@@@std@@QAE@XZ ENDP	; std::_String_val<char,std::allocator<char> >::~_String_val<char,std::allocator<char> >
_TEXT	ENDS
PUBLIC	??0?$allocator@D@std@@QAE@XZ			; std::allocator<char>::allocator<char>
; Function compile flags: /Ogsp
; File c:\program files (x86)\microsoft visual studio 10.0\vc\include\xmemory
;	COMDAT ??0?$allocator@D@std@@QAE@XZ
_TEXT	SEGMENT
??0?$allocator@D@std@@QAE@XZ PROC			; std::allocator<char>::allocator<char>, COMDAT
; _this$ = ecx

; 161  : 	_ALLOCATOR() _THROW0()

  00000	8b c1		 mov	 eax, ecx

; 162  : 		{	// construct default allocator (do nothing)
; 163  : 		}

  00002	c3		 ret	 0
??0?$allocator@D@std@@QAE@XZ ENDP			; std::allocator<char>::allocator<char>
_TEXT	ENDS
PUBLIC	??0?$allocator@D@std@@QAE@ABV01@@Z		; std::allocator<char>::allocator<char>
; Function compile flags: /Ogsp
;	COMDAT ??0?$allocator@D@std@@QAE@ABV01@@Z
_TEXT	SEGMENT
___formal$ = 8						; size = 4
??0?$allocator@D@std@@QAE@ABV01@@Z PROC			; std::allocator<char>::allocator<char>, COMDAT
; _this$ = ecx

; 165  : 	_ALLOCATOR(const _ALLOCATOR<_Ty>&) _THROW0()

  00000	8b c1		 mov	 eax, ecx

; 166  : 		{	// construct by copying (do nothing)
; 167  : 		}

  00002	c2 04 00	 ret	 4
??0?$allocator@D@std@@QAE@ABV01@@Z ENDP			; std::allocator<char>::allocator<char>
_TEXT	ENDS
PUBLIC	??0?$allocator@H@std@@QAE@XZ			; std::allocator<int>::allocator<int>
; Function compile flags: /Ogsp
;	COMDAT ??0?$allocator@H@std@@QAE@XZ
_TEXT	SEGMENT
??0?$allocator@H@std@@QAE@XZ PROC			; std::allocator<int>::allocator<int>, COMDAT
; _this$ = ecx

; 161  : 	_ALLOCATOR() _THROW0()

  00000	8b c1		 mov	 eax, ecx

; 162  : 		{	// construct default allocator (do nothing)
; 163  : 		}

  00002	c3		 ret	 0
??0?$allocator@H@std@@QAE@XZ ENDP			; std::allocator<int>::allocator<int>
_TEXT	ENDS
PUBLIC	??1?$_Vector_val@VioHashString@@V?$allocator@VioHashString@@@std@@@std@@QAE@XZ ; std::_Vector_val<ioHashString,std::allocator<ioHashString> >::~_Vector_val<ioHashString,std::allocator<ioHashString> >
; Function compile flags: /Ogsp
; File c:\program files (x86)\microsoft visual studio 10.0\vc\include\vector
;	COMDAT ??1?$_Vector_val@VioHashString@@V?$allocator@VioHashString@@@std@@@std@@QAE@XZ
_TEXT	SEGMENT
??1?$_Vector_val@VioHashString@@V?$allocator@VioHashString@@@std@@@std@@QAE@XZ PROC ; std::_Vector_val<ioHashString,std::allocator<ioHashString> >::~_Vector_val<ioHashString,std::allocator<ioHashString> >, COMDAT
; _this$ = ecx

; 434  : 		}

  00000	c3		 ret	 0
??1?$_Vector_val@VioHashString@@V?$allocator@VioHashString@@@std@@@std@@QAE@XZ ENDP ; std::_Vector_val<ioHashString,std::allocator<ioHashString> >::~_Vector_val<ioHashString,std::allocator<ioHashString> >
_TEXT	ENDS
PUBLIC	??0?$allocator@VioHashString@@@std@@QAE@XZ	; std::allocator<ioHashString>::allocator<ioHashString>
; Function compile flags: /Ogsp
; File c:\program files (x86)\microsoft visual studio 10.0\vc\include\xmemory
;	COMDAT ??0?$allocator@VioHashString@@@std@@QAE@XZ
_TEXT	SEGMENT
??0?$allocator@VioHashString@@@std@@QAE@XZ PROC		; std::allocator<ioHashString>::allocator<ioHashString>, COMDAT
; _this$ = ecx

; 161  : 	_ALLOCATOR() _THROW0()

  00000	8b c1		 mov	 eax, ecx

; 162  : 		{	// construct default allocator (do nothing)
; 163  : 		}

  00002	c3		 ret	 0
??0?$allocator@VioHashString@@@std@@QAE@XZ ENDP		; std::allocator<ioHashString>::allocator<ioHashString>
_TEXT	ENDS
PUBLIC	??0?$allocator@VioHashString@@@std@@QAE@ABV01@@Z ; std::allocator<ioHashString>::allocator<ioHashString>
; Function compile flags: /Ogsp
;	COMDAT ??0?$allocator@VioHashString@@@std@@QAE@ABV01@@Z
_TEXT	SEGMENT
___formal$ = 8						; size = 4
??0?$allocator@VioHashString@@@std@@QAE@ABV01@@Z PROC	; std::allocator<ioHashString>::allocator<ioHashString>, COMDAT
; _this$ = ecx

; 165  : 	_ALLOCATOR(const _ALLOCATOR<_Ty>&) _THROW0()

  00000	8b c1		 mov	 eax, ecx

; 166  : 		{	// construct by copying (do nothing)
; 167  : 		}

  00002	c2 04 00	 ret	 4
??0?$allocator@VioHashString@@@std@@QAE@ABV01@@Z ENDP	; std::allocator<ioHashString>::allocator<ioHashString>
_TEXT	ENDS
PUBLIC	??1?$_Vector_val@HV?$allocator@H@std@@@std@@QAE@XZ ; std::_Vector_val<int,std::allocator<int> >::~_Vector_val<int,std::allocator<int> >
; Function compile flags: /Ogsp
; File c:\program files (x86)\microsoft visual studio 10.0\vc\include\vector
;	COMDAT ??1?$_Vector_val@HV?$allocator@H@std@@@std@@QAE@XZ
_TEXT	SEGMENT
??1?$_Vector_val@HV?$allocator@H@std@@@std@@QAE@XZ PROC	; std::_Vector_val<int,std::allocator<int> >::~_Vector_val<int,std::allocator<int> >, COMDAT
; _this$ = ecx

; 434  : 		}

  00000	c3		 ret	 0
??1?$_Vector_val@HV?$allocator@H@std@@@std@@QAE@XZ ENDP	; std::_Vector_val<int,std::allocator<int> >::~_Vector_val<int,std::allocator<int> >
_TEXT	ENDS
PUBLIC	??1?$_Vector_val@VGashaponPresent@@V?$allocator@VGashaponPresent@@@std@@@std@@QAE@XZ ; std::_Vector_val<GashaponPresent,std::allocator<GashaponPresent> >::~_Vector_val<GashaponPresent,std::allocator<GashaponPresent> >
; Function compile flags: /Ogsp
;	COMDAT ??1?$_Vector_val@VGashaponPresent@@V?$allocator@VGashaponPresent@@@std@@@std@@QAE@XZ
_TEXT	SEGMENT
??1?$_Vector_val@VGashaponPresent@@V?$allocator@VGashaponPresent@@@std@@@std@@QAE@XZ PROC ; std::_Vector_val<GashaponPresent,std::allocator<GashaponPresent> >::~_Vector_val<GashaponPresent,std::allocator<GashaponPresent> >, COMDAT
; _this$ = ecx

; 434  : 		}

  00000	c3		 ret	 0
??1?$_Vector_val@VGashaponPresent@@V?$allocator@VGashaponPresent@@@std@@@std@@QAE@XZ ENDP ; std::_Vector_val<GashaponPresent,std::allocator<GashaponPresent> >::~_Vector_val<GashaponPresent,std::allocator<GashaponPresent> >
_TEXT	ENDS
PUBLIC	??0?$allocator@VGashaponPresent@@@std@@QAE@XZ	; std::allocator<GashaponPresent>::allocator<GashaponPresent>
; Function compile flags: /Ogsp
; File c:\program files (x86)\microsoft visual studio 10.0\vc\include\xmemory
;	COMDAT ??0?$allocator@VGashaponPresent@@@std@@QAE@XZ
_TEXT	SEGMENT
??0?$allocator@VGashaponPresent@@@std@@QAE@XZ PROC	; std::allocator<GashaponPresent>::allocator<GashaponPresent>, COMDAT
; _this$ = ecx

; 161  : 	_ALLOCATOR() _THROW0()

  00000	8b c1		 mov	 eax, ecx

; 162  : 		{	// construct default allocator (do nothing)
; 163  : 		}

  00002	c3		 ret	 0
??0?$allocator@VGashaponPresent@@@std@@QAE@XZ ENDP	; std::allocator<GashaponPresent>::allocator<GashaponPresent>
_TEXT	ENDS
PUBLIC	??0?$_Vector_const_iterator@V?$_Vector_val@HV?$allocator@H@std@@@std@@@std@@QAE@PAHPBU_Container_base0@1@@Z ; std::_Vector_const_iterator<std::_Vector_val<int,std::allocator<int> > >::_Vector_const_iterator<std::_Vector_val<int,std::allocator<int> > >
; Function compile flags: /Ogsp
; File c:\program files (x86)\microsoft visual studio 10.0\vc\include\vector
;	COMDAT ??0?$_Vector_const_iterator@V?$_Vector_val@HV?$allocator@H@std@@@std@@@std@@QAE@PAHPBU_Container_base0@1@@Z
_TEXT	SEGMENT
__Parg$ = 8						; size = 4
__Pvector$ = 12						; size = 4
??0?$_Vector_const_iterator@V?$_Vector_val@HV?$allocator@H@std@@@std@@@std@@QAE@PAHPBU_Container_base0@1@@Z PROC ; std::_Vector_const_iterator<std::_Vector_val<int,std::allocator<int> > >::_Vector_const_iterator<std::_Vector_val<int,std::allocator<int> > >, COMDAT
; _this$ = ecx

; 45   : 		{	// construct with pointer _Parg

  00000	55		 push	 ebp
  00001	8b ec		 mov	 ebp, esp
  00003	8b c1		 mov	 eax, ecx
  00005	8b 4d 08	 mov	 ecx, DWORD PTR __Parg$[ebp]
  00008	89 08		 mov	 DWORD PTR [eax], ecx

; 46   : 		this->_Adopt(_Pvector);
; 47   : 		}

  0000a	5d		 pop	 ebp
  0000b	c2 08 00	 ret	 8
??0?$_Vector_const_iterator@V?$_Vector_val@HV?$allocator@H@std@@@std@@@std@@QAE@PAHPBU_Container_base0@1@@Z ENDP ; std::_Vector_const_iterator<std::_Vector_val<int,std::allocator<int> > >::_Vector_const_iterator<std::_Vector_val<int,std::allocator<int> > >
_TEXT	ENDS
PUBLIC	??0?$_Vector_iterator@V?$_Vector_val@HV?$allocator@H@std@@@std@@@std@@QAE@PAHPBU_Container_base0@1@@Z ; std::_Vector_iterator<std::_Vector_val<int,std::allocator<int> > >::_Vector_iterator<std::_Vector_val<int,std::allocator<int> > >
; Function compile flags: /Ogsp
;	COMDAT ??0?$_Vector_iterator@V?$_Vector_val@HV?$allocator@H@std@@@std@@@std@@QAE@PAHPBU_Container_base0@1@@Z
_TEXT	SEGMENT
__Parg$ = 8						; size = 4
__Pvector$ = 12						; size = 4
??0?$_Vector_iterator@V?$_Vector_val@HV?$allocator@H@std@@@std@@@std@@QAE@PAHPBU_Container_base0@1@@Z PROC ; std::_Vector_iterator<std::_Vector_val<int,std::allocator<int> > >::_Vector_iterator<std::_Vector_val<int,std::allocator<int> > >, COMDAT
; _this$ = ecx

; 304  : 		{	// construct with pointer _Parg

  00000	55		 push	 ebp
  00001	8b ec		 mov	 ebp, esp
  00003	8b c1		 mov	 eax, ecx
  00005	8b 4d 08	 mov	 ecx, DWORD PTR __Parg$[ebp]
  00008	89 08		 mov	 DWORD PTR [eax], ecx

; 305  : 		}

  0000a	5d		 pop	 ebp
  0000b	c2 08 00	 ret	 8
??0?$_Vector_iterator@V?$_Vector_val@HV?$allocator@H@std@@@std@@@std@@QAE@PAHPBU_Container_base0@1@@Z ENDP ; std::_Vector_iterator<std::_Vector_val<int,std::allocator<int> > >::_Vector_iterator<std::_Vector_val<int,std::allocator<int> > >
_TEXT	ENDS
PUBLIC	?_Myptr@?$basic_string@DU?$char_traits@D@std@@V?$allocator@D@2@@std@@QAEPADXZ ; std::basic_string<char,std::char_traits<char>,std::allocator<char> >::_Myptr
; Function compile flags: /Ogsp
; File c:\program files (x86)\microsoft visual studio 10.0\vc\include\xstring
;	COMDAT ?_Myptr@?$basic_string@DU?$char_traits@D@std@@V?$allocator@D@2@@std@@QAEPADXZ
_TEXT	SEGMENT
?_Myptr@?$basic_string@DU?$char_traits@D@std@@V?$allocator@D@2@@std@@QAEPADXZ PROC ; std::basic_string<char,std::char_traits<char>,std::allocator<char> >::_Myptr, COMDAT
; _this$ = ecx

; 2004 : 		return (this->_BUF_SIZE <= this->_Myres ? this->_Bx._Ptr
; 2005 : 			: this->_Bx._Buf);

  00000	83 79 14 10	 cmp	 DWORD PTR [ecx+20], 16	; 00000010H
  00004	72 03		 jb	 SHORT $LN3@Myptr@2
  00006	8b 01		 mov	 eax, DWORD PTR [ecx]

; 2006 : 		}

  00008	c3		 ret	 0
$LN3@Myptr@2:

; 2004 : 		return (this->_BUF_SIZE <= this->_Myres ? this->_Bx._Ptr
; 2005 : 			: this->_Bx._Buf);

  00009	8b c1		 mov	 eax, ecx

; 2006 : 		}

  0000b	c3		 ret	 0
?_Myptr@?$basic_string@DU?$char_traits@D@std@@V?$allocator@D@2@@std@@QAEPADXZ ENDP ; std::basic_string<char,std::char_traits<char>,std::allocator<char> >::_Myptr
_TEXT	ENDS
PUBLIC	??_C@_0BA@JFNIOLAK@string?5too?5long?$AA@	; `string'
PUBLIC	?_Xlen@?$basic_string@DU?$char_traits@D@std@@V?$allocator@D@2@@std@@QBEXXZ ; std::basic_string<char,std::char_traits<char>,std::allocator<char> >::_Xlen
;	COMDAT ??_C@_0BA@JFNIOLAK@string?5too?5long?$AA@
CONST	SEGMENT
??_C@_0BA@JFNIOLAK@string?5too?5long?$AA@ DB 'string too long', 00H ; `string'
; Function compile flags: /Ogsp
CONST	ENDS
;	COMDAT ?_Xlen@?$basic_string@DU?$char_traits@D@std@@V?$allocator@D@2@@std@@QBEXXZ
_TEXT	SEGMENT
?_Xlen@?$basic_string@DU?$char_traits@D@std@@V?$allocator@D@2@@std@@QBEXXZ PROC ; std::basic_string<char,std::char_traits<char>,std::allocator<char> >::_Xlen, COMDAT
; _this$ = ecx

; 2016 : 		_Xlength_error("string too long");

  00000	68 00 00 00 00	 push	 OFFSET ??_C@_0BA@JFNIOLAK@string?5too?5long?$AA@
  00005	ff 15 00 00 00
	00		 call	 DWORD PTR __imp_?_Xlength_error@std@@YAXPBD@Z
$LN4@Xlen@2:
$LN3@Xlen@2:
  0000b	cc		 int	 3
?_Xlen@?$basic_string@DU?$char_traits@D@std@@V?$allocator@D@2@@std@@QBEXXZ ENDP ; std::basic_string<char,std::char_traits<char>,std::allocator<char> >::_Xlen
_TEXT	ENDS
PUBLIC	??_C@_0BI@CFPLBAOH@invalid?5string?5position?$AA@ ; `string'
PUBLIC	?_Xran@?$basic_string@DU?$char_traits@D@std@@V?$allocator@D@2@@std@@QBEXXZ ; std::basic_string<char,std::char_traits<char>,std::allocator<char> >::_Xran
EXTRN	__imp_?_Xout_of_range@std@@YAXPBD@Z:PROC
;	COMDAT ??_C@_0BI@CFPLBAOH@invalid?5string?5position?$AA@
CONST	SEGMENT
??_C@_0BI@CFPLBAOH@invalid?5string?5position?$AA@ DB 'invalid string posi'
	DB	'tion', 00H					; `string'
; Function compile flags: /Ogsp
CONST	ENDS
;	COMDAT ?_Xran@?$basic_string@DU?$char_traits@D@std@@V?$allocator@D@2@@std@@QBEXXZ
_TEXT	SEGMENT
?_Xran@?$basic_string@DU?$char_traits@D@std@@V?$allocator@D@2@@std@@QBEXXZ PROC ; std::basic_string<char,std::char_traits<char>,std::allocator<char> >::_Xran, COMDAT
; _this$ = ecx

; 2021 : 		_Xout_of_range("invalid string position");

  00000	68 00 00 00 00	 push	 OFFSET ??_C@_0BI@CFPLBAOH@invalid?5string?5position?$AA@
  00005	ff 15 00 00 00
	00		 call	 DWORD PTR __imp_?_Xout_of_range@std@@YAXPBD@Z
$LN4@Xran:
$LN3@Xran:
  0000b	cc		 int	 3
?_Xran@?$basic_string@DU?$char_traits@D@std@@V?$allocator@D@2@@std@@QBEXXZ ENDP ; std::basic_string<char,std::char_traits<char>,std::allocator<char> >::_Xran
_TEXT	ENDS
PUBLIC	?deallocate@?$allocator@D@std@@QAEXPADI@Z	; std::allocator<char>::deallocate
; Function compile flags: /Ogsp
; File c:\program files (x86)\microsoft visual studio 10.0\vc\include\xmemory
;	COMDAT ?deallocate@?$allocator@D@std@@QAEXPADI@Z
_TEXT	SEGMENT
__Ptr$ = 8						; size = 4
___formal$ = 12						; size = 4
?deallocate@?$allocator@D@std@@QAEXPADI@Z PROC		; std::allocator<char>::deallocate, COMDAT
; _this$ = ecx

; 181  : 		{	// deallocate object at _Ptr, ignore size

  00000	55		 push	 ebp
  00001	8b ec		 mov	 ebp, esp

; 182  : 		::operator delete(_Ptr);

  00003	ff 75 08	 push	 DWORD PTR __Ptr$[ebp]
  00006	e8 00 00 00 00	 call	 ??3@YAXPAX@Z		; operator delete
  0000b	59		 pop	 ecx

; 183  : 		}

  0000c	5d		 pop	 ebp
  0000d	c2 08 00	 ret	 8
?deallocate@?$allocator@D@std@@QAEXPADI@Z ENDP		; std::allocator<char>::deallocate
_TEXT	ENDS
PUBLIC	??0?$allocator@H@std@@QAE@ABV01@@Z		; std::allocator<int>::allocator<int>
; Function compile flags: /Ogsp
;	COMDAT ??0?$allocator@H@std@@QAE@ABV01@@Z
_TEXT	SEGMENT
___formal$ = 8						; size = 4
??0?$allocator@H@std@@QAE@ABV01@@Z PROC			; std::allocator<int>::allocator<int>, COMDAT
; _this$ = ecx

; 165  : 	_ALLOCATOR(const _ALLOCATOR<_Ty>&) _THROW0()

  00000	8b c1		 mov	 eax, ecx

; 166  : 		{	// construct by copying (do nothing)
; 167  : 		}

  00002	c2 04 00	 ret	 4
??0?$allocator@H@std@@QAE@ABV01@@Z ENDP			; std::allocator<int>::allocator<int>
_TEXT	ENDS
PUBLIC	?deallocate@?$allocator@H@std@@QAEXPAHI@Z	; std::allocator<int>::deallocate
; Function compile flags: /Ogsp
;	COMDAT ?deallocate@?$allocator@H@std@@QAEXPAHI@Z
_TEXT	SEGMENT
__Ptr$ = 8						; size = 4
___formal$ = 12						; size = 4
?deallocate@?$allocator@H@std@@QAEXPAHI@Z PROC		; std::allocator<int>::deallocate, COMDAT
; _this$ = ecx

; 181  : 		{	// deallocate object at _Ptr, ignore size

  00000	55		 push	 ebp
  00001	8b ec		 mov	 ebp, esp

; 182  : 		::operator delete(_Ptr);

  00003	ff 75 08	 push	 DWORD PTR __Ptr$[ebp]
  00006	e8 00 00 00 00	 call	 ??3@YAXPAX@Z		; operator delete
  0000b	59		 pop	 ecx

; 183  : 		}

  0000c	5d		 pop	 ebp
  0000d	c2 08 00	 ret	 8
?deallocate@?$allocator@H@std@@QAEXPAHI@Z ENDP		; std::allocator<int>::deallocate
_TEXT	ENDS
PUBLIC	?_Xlen@?$vector@VioHashString@@V?$allocator@VioHashString@@@std@@@std@@IBEXXZ ; std::vector<ioHashString,std::allocator<ioHashString> >::_Xlen
; Function compile flags: /Ogsp
; File c:\program files (x86)\microsoft visual studio 10.0\vc\include\vector
;	COMDAT ?_Xlen@?$vector@VioHashString@@V?$allocator@VioHashString@@@std@@@std@@IBEXXZ
_TEXT	SEGMENT
?_Xlen@?$vector@VioHashString@@V?$allocator@VioHashString@@@std@@@std@@IBEXXZ PROC ; std::vector<ioHashString,std::allocator<ioHashString> >::_Xlen, COMDAT
; _this$ = ecx

; 1427 : 		_Xlength_error("vector<T> too long");

  00000	68 00 00 00 00	 push	 OFFSET ??_C@_0BD@OLBABOEK@vector?$DMT?$DO?5too?5long?$AA@
  00005	ff 15 00 00 00
	00		 call	 DWORD PTR __imp_?_Xlength_error@std@@YAXPBD@Z
$LN4@Xlen@3:
$LN3@Xlen@3:
  0000b	cc		 int	 3
?_Xlen@?$vector@VioHashString@@V?$allocator@VioHashString@@@std@@@std@@IBEXXZ ENDP ; std::vector<ioHashString,std::allocator<ioHashString> >::_Xlen
_TEXT	ENDS
PUBLIC	?deallocate@?$allocator@VioHashString@@@std@@QAEXPAVioHashString@@I@Z ; std::allocator<ioHashString>::deallocate
; Function compile flags: /Ogsp
; File c:\program files (x86)\microsoft visual studio 10.0\vc\include\xmemory
;	COMDAT ?deallocate@?$allocator@VioHashString@@@std@@QAEXPAVioHashString@@I@Z
_TEXT	SEGMENT
__Ptr$ = 8						; size = 4
___formal$ = 12						; size = 4
?deallocate@?$allocator@VioHashString@@@std@@QAEXPAVioHashString@@I@Z PROC ; std::allocator<ioHashString>::deallocate, COMDAT
; _this$ = ecx

; 181  : 		{	// deallocate object at _Ptr, ignore size

  00000	55		 push	 ebp
  00001	8b ec		 mov	 ebp, esp

; 182  : 		::operator delete(_Ptr);

  00003	ff 75 08	 push	 DWORD PTR __Ptr$[ebp]
  00006	e8 00 00 00 00	 call	 ??3@YAXPAX@Z		; operator delete
  0000b	59		 pop	 ecx

; 183  : 		}

  0000c	5d		 pop	 ebp
  0000d	c2 08 00	 ret	 8
?deallocate@?$allocator@VioHashString@@@std@@QAEXPAVioHashString@@I@Z ENDP ; std::allocator<ioHashString>::deallocate
_TEXT	ENDS
PUBLIC	?capacity@?$vector@HV?$allocator@H@std@@@std@@QBEIXZ ; std::vector<int,std::allocator<int> >::capacity
; Function compile flags: /Ogsp
; File c:\program files (x86)\microsoft visual studio 10.0\vc\include\vector
;	COMDAT ?capacity@?$vector@HV?$allocator@H@std@@@std@@QBEIXZ
_TEXT	SEGMENT
?capacity@?$vector@HV?$allocator@H@std@@@std@@QBEIXZ PROC ; std::vector<int,std::allocator<int> >::capacity, COMDAT
; _this$ = ecx

; 777  : 		return (this->_Myend - this->_Myfirst);

  00000	8b 41 08	 mov	 eax, DWORD PTR [ecx+8]
  00003	2b 01		 sub	 eax, DWORD PTR [ecx]
  00005	c1 f8 02	 sar	 eax, 2

; 778  : 		}

  00008	c3		 ret	 0
?capacity@?$vector@HV?$allocator@H@std@@@std@@QBEIXZ ENDP ; std::vector<int,std::allocator<int> >::capacity
_TEXT	ENDS
PUBLIC	?_Make_iter@?$vector@HV?$allocator@H@std@@@std@@QBE?AV?$_Vector_iterator@V?$_Vector_val@HV?$allocator@H@std@@@std@@@2@V?$_Vector_const_iterator@V?$_Vector_val@HV?$allocator@H@std@@@std@@@2@@Z ; std::vector<int,std::allocator<int> >::_Make_iter
; Function compile flags: /Ogsp
;	COMDAT ?_Make_iter@?$vector@HV?$allocator@H@std@@@std@@QBE?AV?$_Vector_iterator@V?$_Vector_val@HV?$allocator@H@std@@@std@@@2@V?$_Vector_const_iterator@V?$_Vector_val@HV?$allocator@H@std@@@std@@@2@@Z
_TEXT	SEGMENT
___$ReturnUdt$ = 8					; size = 4
__Where$ = 12						; size = 4
?_Make_iter@?$vector@HV?$allocator@H@std@@@std@@QBE?AV?$_Vector_iterator@V?$_Vector_val@HV?$allocator@H@std@@@std@@@2@V?$_Vector_const_iterator@V?$_Vector_val@HV?$allocator@H@std@@@std@@@2@@Z PROC ; std::vector<int,std::allocator<int> >::_Make_iter, COMDAT
; _this$ = ecx

; 801  : 		{	// make iterator from const_iterator

  00000	55		 push	 ebp
  00001	8b ec		 mov	 ebp, esp

; 802  : 		return (iterator(_Where._Ptr, this));

  00003	8b 45 08	 mov	 eax, DWORD PTR ___$ReturnUdt$[ebp]
  00006	8b 4d 0c	 mov	 ecx, DWORD PTR __Where$[ebp]
  00009	89 08		 mov	 DWORD PTR [eax], ecx

; 803  : 		}

  0000b	5d		 pop	 ebp
  0000c	c2 08 00	 ret	 8
?_Make_iter@?$vector@HV?$allocator@H@std@@@std@@QBE?AV?$_Vector_iterator@V?$_Vector_val@HV?$allocator@H@std@@@std@@@2@V?$_Vector_const_iterator@V?$_Vector_val@HV?$allocator@H@std@@@std@@@2@@Z ENDP ; std::vector<int,std::allocator<int> >::_Make_iter
_TEXT	ENDS
PUBLIC	?_Xlen@?$vector@HV?$allocator@H@std@@@std@@IBEXXZ ; std::vector<int,std::allocator<int> >::_Xlen
; Function compile flags: /Ogsp
;	COMDAT ?_Xlen@?$vector@HV?$allocator@H@std@@@std@@IBEXXZ
_TEXT	SEGMENT
?_Xlen@?$vector@HV?$allocator@H@std@@@std@@IBEXXZ PROC	; std::vector<int,std::allocator<int> >::_Xlen, COMDAT
; _this$ = ecx

; 1427 : 		_Xlength_error("vector<T> too long");

  00000	68 00 00 00 00	 push	 OFFSET ??_C@_0BD@OLBABOEK@vector?$DMT?$DO?5too?5long?$AA@
  00005	ff 15 00 00 00
	00		 call	 DWORD PTR __imp_?_Xlength_error@std@@YAXPBD@Z
$LN4@Xlen@4:
$LN3@Xlen@4:
  0000b	cc		 int	 3
?_Xlen@?$vector@HV?$allocator@H@std@@@std@@IBEXXZ ENDP	; std::vector<int,std::allocator<int> >::_Xlen
_TEXT	ENDS
PUBLIC	??0?$allocator@VGashaponPresent@@@std@@QAE@ABV01@@Z ; std::allocator<GashaponPresent>::allocator<GashaponPresent>
; Function compile flags: /Ogsp
; File c:\program files (x86)\microsoft visual studio 10.0\vc\include\xmemory
;	COMDAT ??0?$allocator@VGashaponPresent@@@std@@QAE@ABV01@@Z
_TEXT	SEGMENT
___formal$ = 8						; size = 4
??0?$allocator@VGashaponPresent@@@std@@QAE@ABV01@@Z PROC ; std::allocator<GashaponPresent>::allocator<GashaponPresent>, COMDAT
; _this$ = ecx

; 165  : 	_ALLOCATOR(const _ALLOCATOR<_Ty>&) _THROW0()

  00000	8b c1		 mov	 eax, ecx

; 166  : 		{	// construct by copying (do nothing)
; 167  : 		}

  00002	c2 04 00	 ret	 4
??0?$allocator@VGashaponPresent@@@std@@QAE@ABV01@@Z ENDP ; std::allocator<GashaponPresent>::allocator<GashaponPresent>
_TEXT	ENDS
PUBLIC	?deallocate@?$allocator@VGashaponPresent@@@std@@QAEXPAVGashaponPresent@@I@Z ; std::allocator<GashaponPresent>::deallocate
; Function compile flags: /Ogsp
;	COMDAT ?deallocate@?$allocator@VGashaponPresent@@@std@@QAEXPAVGashaponPresent@@I@Z
_TEXT	SEGMENT
__Ptr$ = 8						; size = 4
___formal$ = 12						; size = 4
?deallocate@?$allocator@VGashaponPresent@@@std@@QAEXPAVGashaponPresent@@I@Z PROC ; std::allocator<GashaponPresent>::deallocate, COMDAT
; _this$ = ecx

; 181  : 		{	// deallocate object at _Ptr, ignore size

  00000	55		 push	 ebp
  00001	8b ec		 mov	 ebp, esp

; 182  : 		::operator delete(_Ptr);

  00003	ff 75 08	 push	 DWORD PTR __Ptr$[ebp]
  00006	e8 00 00 00 00	 call	 ??3@YAXPAX@Z		; operator delete
  0000b	59		 pop	 ecx

; 183  : 		}

  0000c	5d		 pop	 ebp
  0000d	c2 08 00	 ret	 8
?deallocate@?$allocator@VGashaponPresent@@@std@@QAEXPAVGashaponPresent@@I@Z ENDP ; std::allocator<GashaponPresent>::deallocate
_TEXT	ENDS
PUBLIC	??0?$_Vector_const_iterator@V?$_Vector_val@VioHashString@@V?$allocator@VioHashString@@@std@@@std@@@std@@QAE@PAVioHashString@@PBU_Container_base0@1@@Z ; std::_Vector_const_iterator<std::_Vector_val<ioHashString,std::allocator<ioHashString> > >::_Vector_const_iterator<std::_Vector_val<ioHashString,std::allocator<ioHashString> > >
; Function compile flags: /Ogsp
; File c:\program files (x86)\microsoft visual studio 10.0\vc\include\vector
;	COMDAT ??0?$_Vector_const_iterator@V?$_Vector_val@VioHashString@@V?$allocator@VioHashString@@@std@@@std@@@std@@QAE@PAVioHashString@@PBU_Container_base0@1@@Z
_TEXT	SEGMENT
__Parg$ = 8						; size = 4
__Pvector$ = 12						; size = 4
??0?$_Vector_const_iterator@V?$_Vector_val@VioHashString@@V?$allocator@VioHashString@@@std@@@std@@@std@@QAE@PAVioHashString@@PBU_Container_base0@1@@Z PROC ; std::_Vector_const_iterator<std::_Vector_val<ioHashString,std::allocator<ioHashString> > >::_Vector_const_iterator<std::_Vector_val<ioHashString,std::allocator<ioHashString> > >, COMDAT
; _this$ = ecx

; 45   : 		{	// construct with pointer _Parg

  00000	55		 push	 ebp
  00001	8b ec		 mov	 ebp, esp
  00003	8b c1		 mov	 eax, ecx
  00005	8b 4d 08	 mov	 ecx, DWORD PTR __Parg$[ebp]
  00008	89 08		 mov	 DWORD PTR [eax], ecx

; 46   : 		this->_Adopt(_Pvector);
; 47   : 		}

  0000a	5d		 pop	 ebp
  0000b	c2 08 00	 ret	 8
??0?$_Vector_const_iterator@V?$_Vector_val@VioHashString@@V?$allocator@VioHashString@@@std@@@std@@@std@@QAE@PAVioHashString@@PBU_Container_base0@1@@Z ENDP ; std::_Vector_const_iterator<std::_Vector_val<ioHashString,std::allocator<ioHashString> > >::_Vector_const_iterator<std::_Vector_val<ioHashString,std::allocator<ioHashString> > >
_TEXT	ENDS
PUBLIC	??0?$_Vector_iterator@V?$_Vector_val@VioHashString@@V?$allocator@VioHashString@@@std@@@std@@@std@@QAE@PAVioHashString@@PBU_Container_base0@1@@Z ; std::_Vector_iterator<std::_Vector_val<ioHashString,std::allocator<ioHashString> > >::_Vector_iterator<std::_Vector_val<ioHashString,std::allocator<ioHashString> > >
; Function compile flags: /Ogsp
;	COMDAT ??0?$_Vector_iterator@V?$_Vector_val@VioHashString@@V?$allocator@VioHashString@@@std@@@std@@@std@@QAE@PAVioHashString@@PBU_Container_base0@1@@Z
_TEXT	SEGMENT
__Parg$ = 8						; size = 4
__Pvector$ = 12						; size = 4
??0?$_Vector_iterator@V?$_Vector_val@VioHashString@@V?$allocator@VioHashString@@@std@@@std@@@std@@QAE@PAVioHashString@@PBU_Container_base0@1@@Z PROC ; std::_Vector_iterator<std::_Vector_val<ioHashString,std::allocator<ioHashString> > >::_Vector_iterator<std::_Vector_val<ioHashString,std::allocator<ioHashString> > >, COMDAT
; _this$ = ecx

; 304  : 		{	// construct with pointer _Parg

  00000	55		 push	 ebp
  00001	8b ec		 mov	 ebp, esp
  00003	8b c1		 mov	 eax, ecx
  00005	8b 4d 08	 mov	 ecx, DWORD PTR __Parg$[ebp]
  00008	89 08		 mov	 DWORD PTR [eax], ecx

; 305  : 		}

  0000a	5d		 pop	 ebp
  0000b	c2 08 00	 ret	 8
??0?$_Vector_iterator@V?$_Vector_val@VioHashString@@V?$allocator@VioHashString@@@std@@@std@@@std@@QAE@PAVioHashString@@PBU_Container_base0@1@@Z ENDP ; std::_Vector_iterator<std::_Vector_val<ioHashString,std::allocator<ioHashString> > >::_Vector_iterator<std::_Vector_val<ioHashString,std::allocator<ioHashString> > >
_TEXT	ENDS
PUBLIC	?_Inside@?$basic_string@DU?$char_traits@D@std@@V?$allocator@D@2@@std@@QAE_NPBD@Z ; std::basic_string<char,std::char_traits<char>,std::allocator<char> >::_Inside
; Function compile flags: /Ogsp
; File c:\program files (x86)\microsoft visual studio 10.0\vc\include\xstring
;	COMDAT ?_Inside@?$basic_string@DU?$char_traits@D@std@@V?$allocator@D@2@@std@@QAE_NPBD@Z
_TEXT	SEGMENT
__Ptr$ = 8						; size = 4
?_Inside@?$basic_string@DU?$char_traits@D@std@@V?$allocator@D@2@@std@@QAE_NPBD@Z PROC ; std::basic_string<char,std::char_traits<char>,std::allocator<char> >::_Inside, COMDAT
; _this$ = ecx

; 1973 : 		{	// test if _Ptr points inside string

  00000	55		 push	 ebp
  00001	8b ec		 mov	 ebp, esp

; 1974 : 		if (_Ptr == 0 || _Ptr < _Myptr() || _Myptr() + this->_Mysize <= _Ptr)

  00003	83 7d 08 00	 cmp	 DWORD PTR __Ptr$[ebp], 0
  00007	74 2c		 je	 SHORT $LN2@Inside@3
  00009	8b 51 14	 mov	 edx, DWORD PTR [ecx+20]
  0000c	83 fa 10	 cmp	 edx, 16			; 00000010H
  0000f	72 04		 jb	 SHORT $LN8@Inside@3
  00011	8b 01		 mov	 eax, DWORD PTR [ecx]
  00013	eb 02		 jmp	 SHORT $LN9@Inside@3
$LN8@Inside@3:
  00015	8b c1		 mov	 eax, ecx
$LN9@Inside@3:
  00017	39 45 08	 cmp	 DWORD PTR __Ptr$[ebp], eax
  0001a	72 19		 jb	 SHORT $LN2@Inside@3
  0001c	83 fa 10	 cmp	 edx, 16			; 00000010H
  0001f	72 04		 jb	 SHORT $LN12@Inside@3
  00021	8b 01		 mov	 eax, DWORD PTR [ecx]
  00023	eb 02		 jmp	 SHORT $LN13@Inside@3
$LN12@Inside@3:
  00025	8b c1		 mov	 eax, ecx
$LN13@Inside@3:
  00027	8b 49 10	 mov	 ecx, DWORD PTR [ecx+16]
  0002a	03 c8		 add	 ecx, eax
  0002c	3b 4d 08	 cmp	 ecx, DWORD PTR __Ptr$[ebp]
  0002f	76 04		 jbe	 SHORT $LN2@Inside@3

; 1976 : 		else
; 1977 : 			return (true);

  00031	b0 01		 mov	 al, 1
  00033	eb 02		 jmp	 SHORT $LN1@Inside@3
$LN2@Inside@3:

; 1975 : 			return (false);	// don't ask

  00035	32 c0		 xor	 al, al
$LN1@Inside@3:

; 1978 : 		}

  00037	5d		 pop	 ebp
  00038	c2 04 00	 ret	 4
?_Inside@?$basic_string@DU?$char_traits@D@std@@V?$allocator@D@2@@std@@QAE_NPBD@Z ENDP ; std::basic_string<char,std::char_traits<char>,std::allocator<char> >::_Inside
_TEXT	ENDS
PUBLIC	?max_size@?$allocator@H@std@@QBEIXZ		; std::allocator<int>::max_size
; Function compile flags: /Ogsp
; File c:\program files (x86)\microsoft visual studio 10.0\vc\include\xmemory
;	COMDAT ?max_size@?$allocator@H@std@@QBEIXZ
_TEXT	SEGMENT
?max_size@?$allocator@H@std@@QBEIXZ PROC		; std::allocator<int>::max_size, COMDAT
; _this$ = ecx

; 218  : 		_SIZT _Count = (_SIZT)(-1) / sizeof (_Ty);
; 219  : 		return (0 < _Count ? _Count : 1);

  00000	b8 ff ff ff 3f	 mov	 eax, 1073741823		; 3fffffffH

; 220  : 		}

  00005	c3		 ret	 0
?max_size@?$allocator@H@std@@QBEIXZ ENDP		; std::allocator<int>::max_size
_TEXT	ENDS
PUBLIC	?max_size@?$allocator@VioHashString@@@std@@QBEIXZ ; std::allocator<ioHashString>::max_size
; Function compile flags: /Ogsp
;	COMDAT ?max_size@?$allocator@VioHashString@@@std@@QBEIXZ
_TEXT	SEGMENT
?max_size@?$allocator@VioHashString@@@std@@QBEIXZ PROC	; std::allocator<ioHashString>::max_size, COMDAT
; _this$ = ecx

; 218  : 		_SIZT _Count = (_SIZT)(-1) / sizeof (_Ty);
; 219  : 		return (0 < _Count ? _Count : 1);

  00000	b8 ff ff ff 0f	 mov	 eax, 268435455		; 0fffffffH

; 220  : 		}

  00005	c3		 ret	 0
?max_size@?$allocator@VioHashString@@@std@@QBEIXZ ENDP	; std::allocator<ioHashString>::max_size
_TEXT	ENDS
PUBLIC	?max_size@?$allocator@D@std@@QBEIXZ		; std::allocator<char>::max_size
; Function compile flags: /Ogsp
;	COMDAT ?max_size@?$allocator@D@std@@QBEIXZ
_TEXT	SEGMENT
?max_size@?$allocator@D@std@@QBEIXZ PROC		; std::allocator<char>::max_size, COMDAT
; _this$ = ecx

; 218  : 		_SIZT _Count = (_SIZT)(-1) / sizeof (_Ty);
; 219  : 		return (0 < _Count ? _Count : 1);

  00000	83 c8 ff	 or	 eax, -1

; 220  : 		}

  00003	c3		 ret	 0
?max_size@?$allocator@D@std@@QBEIXZ ENDP		; std::allocator<char>::max_size
_TEXT	ENDS
PUBLIC	?_Compat@?$_Vector_const_iterator@V?$_Vector_val@HV?$allocator@H@std@@@std@@@std@@QBEXABV12@@Z ; std::_Vector_const_iterator<std::_Vector_val<int,std::allocator<int> > >::_Compat
; Function compile flags: /Ogsp
; File c:\program files (x86)\microsoft visual studio 10.0\vc\include\vector
;	COMDAT ?_Compat@?$_Vector_const_iterator@V?$_Vector_val@HV?$allocator@H@std@@@std@@@std@@QBEXABV12@@Z
_TEXT	SEGMENT
___formal$ = 8						; size = 4
?_Compat@?$_Vector_const_iterator@V?$_Vector_val@HV?$allocator@H@std@@@std@@@std@@QBEXABV12@@Z PROC ; std::_Vector_const_iterator<std::_Vector_val<int,std::allocator<int> > >::_Compat, COMDAT
; _this$ = ecx

; 253  : 		}

  00000	c2 04 00	 ret	 4
?_Compat@?$_Vector_const_iterator@V?$_Vector_val@HV?$allocator@H@std@@@std@@@std@@QBEXABV12@@Z ENDP ; std::_Vector_const_iterator<std::_Vector_val<int,std::allocator<int> > >::_Compat
_TEXT	ENDS
PUBLIC	?_Compat@?$_Vector_const_iterator@V?$_Vector_val@VioHashString@@V?$allocator@VioHashString@@@std@@@std@@@std@@QBEXABV12@@Z ; std::_Vector_const_iterator<std::_Vector_val<ioHashString,std::allocator<ioHashString> > >::_Compat
; Function compile flags: /Ogsp
;	COMDAT ?_Compat@?$_Vector_const_iterator@V?$_Vector_val@VioHashString@@V?$allocator@VioHashString@@@std@@@std@@@std@@QBEXABV12@@Z
_TEXT	SEGMENT
___formal$ = 8						; size = 4
?_Compat@?$_Vector_const_iterator@V?$_Vector_val@VioHashString@@V?$allocator@VioHashString@@@std@@@std@@@std@@QBEXABV12@@Z PROC ; std::_Vector_const_iterator<std::_Vector_val<ioHashString,std::allocator<ioHashString> > >::_Compat, COMDAT
; _this$ = ecx

; 253  : 		}

  00000	c2 04 00	 ret	 4
?_Compat@?$_Vector_const_iterator@V?$_Vector_val@VioHashString@@V?$allocator@VioHashString@@@std@@@std@@@std@@QBEXABV12@@Z ENDP ; std::_Vector_const_iterator<std::_Vector_val<ioHashString,std::allocator<ioHashString> > >::_Compat
_TEXT	ENDS
PUBLIC	??$_Allocate@VioHashString@@@std@@YAPAVioHashString@@IPAV1@@Z ; std::_Allocate<ioHashString>
; Function compile flags: /Ogsp
; File c:\program files (x86)\microsoft visual studio 10.0\vc\include\xmemory
;	COMDAT ??$_Allocate@VioHashString@@@std@@YAPAVioHashString@@IPAV1@@Z
_TEXT	SEGMENT
$T517785 = -12						; size = 12
$T517789 = 8						; size = 4
__Count$ = 8						; size = 4
___formal$ = 12						; size = 4
??$_Allocate@VioHashString@@@std@@YAPAVioHashString@@IPAV1@@Z PROC ; std::_Allocate<ioHashString>, COMDAT

; 30   : 	{	// allocate storage for _Count elements of type _Ty

  00000	55		 push	 ebp
  00001	8b ec		 mov	 ebp, esp

; 31   : 	void *_Ptr = 0;
; 32   : 
; 33   : 	if (_Count <= 0)

  00003	8b 4d 08	 mov	 ecx, DWORD PTR __Count$[ebp]
  00006	83 ec 0c	 sub	 esp, 12			; 0000000cH
  00009	33 c0		 xor	 eax, eax
  0000b	85 c9		 test	 ecx, ecx

; 34   : 		_Count = 0;
; 35   : 	else if (((_SIZT)(-1) / sizeof (_Ty) < _Count)

  0000d	74 3c		 je	 SHORT $LN5@Allocate@2

; 36   : 		|| (_Ptr = ::operator new(_Count * sizeof (_Ty))) == 0)

  0000f	81 f9 ff ff ff
	0f		 cmp	 ecx, 268435455		; 0fffffffH
  00015	77 0e		 ja	 SHORT $LN1@Allocate@2
  00017	c1 e1 04	 shl	 ecx, 4
  0001a	51		 push	 ecx
  0001b	e8 00 00 00 00	 call	 ??2@YAPAXI@Z		; operator new
  00020	59		 pop	 ecx
  00021	85 c0		 test	 eax, eax

; 38   : 
; 39   : 	return ((_Ty _FARQ *)_Ptr);

  00023	75 26		 jne	 SHORT $LN5@Allocate@2
$LN1@Allocate@2:

; 37   : 		_THROW_NCEE(bad_alloc, 0);

  00025	83 65 08 00	 and	 DWORD PTR $T517789[ebp], 0
  00029	8d 45 08	 lea	 eax, DWORD PTR $T517789[ebp]
  0002c	50		 push	 eax
  0002d	8d 4d f4	 lea	 ecx, DWORD PTR $T517785[ebp]
  00030	ff 15 00 00 00
	00		 call	 DWORD PTR __imp_??0exception@std@@QAE@ABQBD@Z
  00036	68 00 00 00 00	 push	 OFFSET __TI2?AVbad_alloc@std@@
  0003b	8d 45 f4	 lea	 eax, DWORD PTR $T517785[ebp]
  0003e	50		 push	 eax
  0003f	c7 45 f4 00 00
	00 00		 mov	 DWORD PTR $T517785[ebp], OFFSET ??_7bad_alloc@std@@6B@
  00046	e8 00 00 00 00	 call	 __CxxThrowException@8
$LN10@Allocate@2:
$LN5@Allocate@2:

; 40   : 	}

  0004b	c9		 leave
  0004c	c3		 ret	 0
$LN9@Allocate@2:
??$_Allocate@VioHashString@@@std@@YAPAVioHashString@@IPAV1@@Z ENDP ; std::_Allocate<ioHashString>
_TEXT	ENDS
PUBLIC	??$_Allocate@H@std@@YAPAHIPAH@Z			; std::_Allocate<int>
; Function compile flags: /Ogsp
;	COMDAT ??$_Allocate@H@std@@YAPAHIPAH@Z
_TEXT	SEGMENT
$T517794 = -12						; size = 12
$T517798 = 8						; size = 4
__Count$ = 8						; size = 4
___formal$ = 12						; size = 4
??$_Allocate@H@std@@YAPAHIPAH@Z PROC			; std::_Allocate<int>, COMDAT

; 30   : 	{	// allocate storage for _Count elements of type _Ty

  00000	55		 push	 ebp
  00001	8b ec		 mov	 ebp, esp

; 31   : 	void *_Ptr = 0;
; 32   : 
; 33   : 	if (_Count <= 0)

  00003	8b 4d 08	 mov	 ecx, DWORD PTR __Count$[ebp]
  00006	83 ec 0c	 sub	 esp, 12			; 0000000cH
  00009	33 c0		 xor	 eax, eax
  0000b	85 c9		 test	 ecx, ecx

; 34   : 		_Count = 0;
; 35   : 	else if (((_SIZT)(-1) / sizeof (_Ty) < _Count)

  0000d	74 3e		 je	 SHORT $LN5@Allocate@3

; 36   : 		|| (_Ptr = ::operator new(_Count * sizeof (_Ty))) == 0)

  0000f	81 f9 ff ff ff
	3f		 cmp	 ecx, 1073741823		; 3fffffffH
  00015	77 10		 ja	 SHORT $LN1@Allocate@3
  00017	8b c1		 mov	 eax, ecx
  00019	c1 e0 02	 shl	 eax, 2
  0001c	50		 push	 eax
  0001d	e8 00 00 00 00	 call	 ??2@YAPAXI@Z		; operator new
  00022	59		 pop	 ecx
  00023	85 c0		 test	 eax, eax

; 38   : 
; 39   : 	return ((_Ty _FARQ *)_Ptr);

  00025	75 26		 jne	 SHORT $LN5@Allocate@3
$LN1@Allocate@3:

; 37   : 		_THROW_NCEE(bad_alloc, 0);

  00027	83 65 08 00	 and	 DWORD PTR $T517798[ebp], 0
  0002b	8d 45 08	 lea	 eax, DWORD PTR $T517798[ebp]
  0002e	50		 push	 eax
  0002f	8d 4d f4	 lea	 ecx, DWORD PTR $T517794[ebp]
  00032	ff 15 00 00 00
	00		 call	 DWORD PTR __imp_??0exception@std@@QAE@ABQBD@Z
  00038	68 00 00 00 00	 push	 OFFSET __TI2?AVbad_alloc@std@@
  0003d	8d 45 f4	 lea	 eax, DWORD PTR $T517794[ebp]
  00040	50		 push	 eax
  00041	c7 45 f4 00 00
	00 00		 mov	 DWORD PTR $T517794[ebp], OFFSET ??_7bad_alloc@std@@6B@
  00048	e8 00 00 00 00	 call	 __CxxThrowException@8
$LN10@Allocate@3:
$LN5@Allocate@3:

; 40   : 	}

  0004d	c9		 leave
  0004e	c3		 ret	 0
$LN9@Allocate@3:
??$_Allocate@H@std@@YAPAHIPAH@Z ENDP			; std::_Allocate<int>
_TEXT	ENDS
PUBLIC	??$_Allocate@D@std@@YAPADIPAD@Z			; std::_Allocate<char>
; Function compile flags: /Ogsp
;	COMDAT ??$_Allocate@D@std@@YAPADIPAD@Z
_TEXT	SEGMENT
$T517803 = -12						; size = 12
$T517807 = 8						; size = 4
__Count$ = 8						; size = 4
___formal$ = 12						; size = 4
??$_Allocate@D@std@@YAPADIPAD@Z PROC			; std::_Allocate<char>, COMDAT

; 30   : 	{	// allocate storage for _Count elements of type _Ty

  00000	55		 push	 ebp
  00001	8b ec		 mov	 ebp, esp

; 31   : 	void *_Ptr = 0;

  00003	33 c0		 xor	 eax, eax
  00005	83 ec 0c	 sub	 esp, 12			; 0000000cH

; 32   : 
; 33   : 	if (_Count <= 0)

  00008	39 45 08	 cmp	 DWORD PTR __Count$[ebp], eax

; 34   : 		_Count = 0;
; 35   : 	else if (((_SIZT)(-1) / sizeof (_Ty) < _Count)

  0000b	76 39		 jbe	 SHORT $LN5@Allocate@4

; 36   : 		|| (_Ptr = ::operator new(_Count * sizeof (_Ty))) == 0)

  0000d	83 7d 08 ff	 cmp	 DWORD PTR __Count$[ebp], -1
  00011	77 0d		 ja	 SHORT $LN1@Allocate@4
  00013	ff 75 08	 push	 DWORD PTR __Count$[ebp]
  00016	e8 00 00 00 00	 call	 ??2@YAPAXI@Z		; operator new
  0001b	59		 pop	 ecx
  0001c	85 c0		 test	 eax, eax

; 38   : 
; 39   : 	return ((_Ty _FARQ *)_Ptr);

  0001e	75 26		 jne	 SHORT $LN5@Allocate@4
$LN1@Allocate@4:

; 37   : 		_THROW_NCEE(bad_alloc, 0);

  00020	83 65 08 00	 and	 DWORD PTR $T517807[ebp], 0
  00024	8d 45 08	 lea	 eax, DWORD PTR $T517807[ebp]
  00027	50		 push	 eax
  00028	8d 4d f4	 lea	 ecx, DWORD PTR $T517803[ebp]
  0002b	ff 15 00 00 00
	00		 call	 DWORD PTR __imp_??0exception@std@@QAE@ABQBD@Z
  00031	68 00 00 00 00	 push	 OFFSET __TI2?AVbad_alloc@std@@
  00036	8d 45 f4	 lea	 eax, DWORD PTR $T517803[ebp]
  00039	50		 push	 eax
  0003a	c7 45 f4 00 00
	00 00		 mov	 DWORD PTR $T517803[ebp], OFFSET ??_7bad_alloc@std@@6B@
  00041	e8 00 00 00 00	 call	 __CxxThrowException@8
$LN10@Allocate@4:
$LN5@Allocate@4:

; 40   : 	}

  00046	c9		 leave
  00047	c3		 ret	 0
$LN9@Allocate@4:
??$_Allocate@D@std@@YAPADIPAD@Z ENDP			; std::_Allocate<char>
_TEXT	ENDS
EXTRN	__imp_??0exception@std@@QAE@ABV01@@Z:PROC
; Function compile flags: /Ogsp
;	COMDAT ??0bad_alloc@std@@QAE@ABV01@@Z
_TEXT	SEGMENT
___that$ = 8						; size = 4
??0bad_alloc@std@@QAE@ABV01@@Z PROC			; std::bad_alloc::bad_alloc, COMDAT
; _this$ = ecx
  00000	55		 push	 ebp
  00001	8b ec		 mov	 ebp, esp
  00003	56		 push	 esi
  00004	ff 75 08	 push	 DWORD PTR ___that$[ebp]
  00007	8b f1		 mov	 esi, ecx
  00009	ff 15 00 00 00
	00		 call	 DWORD PTR __imp_??0exception@std@@QAE@ABV01@@Z
  0000f	c7 06 00 00 00
	00		 mov	 DWORD PTR [esi], OFFSET ??_7bad_alloc@std@@6B@
  00015	8b c6		 mov	 eax, esi
  00017	5e		 pop	 esi
  00018	5d		 pop	 ebp
  00019	c2 04 00	 ret	 4
??0bad_alloc@std@@QAE@ABV01@@Z ENDP			; std::bad_alloc::bad_alloc
_TEXT	ENDS
PUBLIC	??$_Move@AAH@std@@YA$$QAHAAH@Z			; std::_Move<int &>
; Function compile flags: /Ogsp
; File c:\program files (x86)\microsoft visual studio 10.0\vc\include\utility
;	COMDAT ??$_Move@AAH@std@@YA$$QAHAAH@Z
_TEXT	SEGMENT
__Arg$ = 8						; size = 4
??$_Move@AAH@std@@YA$$QAHAAH@Z PROC			; std::_Move<int &>, COMDAT

; 94   : 	{	// forward _Arg as movable

  00000	55		 push	 ebp
  00001	8b ec		 mov	 ebp, esp

; 95   : 	return ((typename tr1::_Remove_reference<_Ty>::_Type&&)_Arg);

  00003	8b 45 08	 mov	 eax, DWORD PTR __Arg$[ebp]

; 96   : 	}

  00006	5d		 pop	 ebp
  00007	c3		 ret	 0
??$_Move@AAH@std@@YA$$QAHAAH@Z ENDP			; std::_Move<int &>
_TEXT	ENDS
PUBLIC	??$forward@ABVioHashString@@@std@@YAABVioHashString@@ABV1@@Z ; std::forward<ioHashString const &>
; Function compile flags: /Ogsp
;	COMDAT ??$forward@ABVioHashString@@@std@@YAABVioHashString@@ABV1@@Z
_TEXT	SEGMENT
__Arg$ = 8						; size = 4
??$forward@ABVioHashString@@@std@@YAABVioHashString@@ABV1@@Z PROC ; std::forward<ioHashString const &>, COMDAT

; 78   : 	{	// forward _Arg, given explicitly specified type parameter

  00000	55		 push	 ebp
  00001	8b ec		 mov	 ebp, esp

; 79   : 	return ((_Ty&&)_Arg);

  00003	8b 45 08	 mov	 eax, DWORD PTR __Arg$[ebp]

; 80   : 	}

  00006	5d		 pop	 ebp
  00007	c3		 ret	 0
??$forward@ABVioHashString@@@std@@YAABVioHashString@@ABV1@@Z ENDP ; std::forward<ioHashString const &>
_TEXT	ENDS
PUBLIC	??$forward@AAVioHashString@@@std@@YAAAVioHashString@@AAV1@@Z ; std::forward<ioHashString &>
; Function compile flags: /Ogsp
;	COMDAT ??$forward@AAVioHashString@@@std@@YAAAVioHashString@@AAV1@@Z
_TEXT	SEGMENT
__Arg$ = 8						; size = 4
??$forward@AAVioHashString@@@std@@YAAAVioHashString@@AAV1@@Z PROC ; std::forward<ioHashString &>, COMDAT

; 78   : 	{	// forward _Arg, given explicitly specified type parameter

  00000	55		 push	 ebp
  00001	8b ec		 mov	 ebp, esp

; 79   : 	return ((_Ty&&)_Arg);

  00003	8b 45 08	 mov	 eax, DWORD PTR __Arg$[ebp]

; 80   : 	}

  00006	5d		 pop	 ebp
  00007	c3		 ret	 0
??$forward@AAVioHashString@@@std@@YAAAVioHashString@@AAV1@@Z ENDP ; std::forward<ioHashString &>
_TEXT	ENDS
PUBLIC	??$forward@AAH@std@@YAAAHAAH@Z			; std::forward<int &>
; Function compile flags: /Ogsp
;	COMDAT ??$forward@AAH@std@@YAAAHAAH@Z
_TEXT	SEGMENT
__Arg$ = 8						; size = 4
??$forward@AAH@std@@YAAAHAAH@Z PROC			; std::forward<int &>, COMDAT

; 78   : 	{	// forward _Arg, given explicitly specified type parameter

  00000	55		 push	 ebp
  00001	8b ec		 mov	 ebp, esp

; 79   : 	return ((_Ty&&)_Arg);

  00003	8b 45 08	 mov	 eax, DWORD PTR __Arg$[ebp]

; 80   : 	}

  00006	5d		 pop	 ebp
  00007	c3		 ret	 0
??$forward@AAH@std@@YAAAHAAH@Z ENDP			; std::forward<int &>
_TEXT	ENDS
PUBLIC	??$_Val_type@PAH@std@@YAPAHPAH@Z		; std::_Val_type<int *>
; Function compile flags: /Ogsp
; File c:\program files (x86)\microsoft visual studio 10.0\vc\include\xutility
;	COMDAT ??$_Val_type@PAH@std@@YAPAHPAH@Z
_TEXT	SEGMENT
___formal$ = 8						; size = 4
??$_Val_type@PAH@std@@YAPAHPAH@Z PROC			; std::_Val_type<int *>, COMDAT

; 790  : 	return (0);

  00000	33 c0		 xor	 eax, eax

; 791  : 	}

  00002	c3		 ret	 0
??$_Val_type@PAH@std@@YAPAHPAH@Z ENDP			; std::_Val_type<int *>
_TEXT	ENDS
PUBLIC	??$_Ptr_cat@HH@std@@YA?AU_Scalar_ptr_iterator_tag@0@PAH0@Z ; std::_Ptr_cat<int,int>
; Function compile flags: /Ogsp
;	COMDAT ??$_Ptr_cat@HH@std@@YA?AU_Scalar_ptr_iterator_tag@0@PAH0@Z
_TEXT	SEGMENT
__Cat$ = -1						; size = 1
___formal$ = 8						; size = 4
___formal$ = 12						; size = 4
??$_Ptr_cat@HH@std@@YA?AU_Scalar_ptr_iterator_tag@0@PAH0@Z PROC ; std::_Ptr_cat<int,int>, COMDAT

; 516  : 	{	// return pointer category from pointers

  00000	55		 push	 ebp
  00001	8b ec		 mov	 ebp, esp
  00003	51		 push	 ecx

; 517  : 	typename _Ptr_cat_helper<_Elem1, _Elem2>::_Type _Cat;
; 518  : 	return (_Cat);

  00004	8a 45 ff	 mov	 al, BYTE PTR __Cat$[ebp]

; 519  : 	}

  00007	c9		 leave
  00008	c3		 ret	 0
??$_Ptr_cat@HH@std@@YA?AU_Scalar_ptr_iterator_tag@0@PAH0@Z ENDP ; std::_Ptr_cat<int,int>
_TEXT	ENDS
PUBLIC	??$_Ptr_cat@VioHashString@@V1@@std@@YA?AU_Nonscalar_ptr_iterator_tag@0@PAVioHashString@@0@Z ; std::_Ptr_cat<ioHashString,ioHashString>
; Function compile flags: /Ogsp
;	COMDAT ??$_Ptr_cat@VioHashString@@V1@@std@@YA?AU_Nonscalar_ptr_iterator_tag@0@PAVioHashString@@0@Z
_TEXT	SEGMENT
__Cat$ = -1						; size = 1
___formal$ = 8						; size = 4
___formal$ = 12						; size = 4
??$_Ptr_cat@VioHashString@@V1@@std@@YA?AU_Nonscalar_ptr_iterator_tag@0@PAVioHashString@@0@Z PROC ; std::_Ptr_cat<ioHashString,ioHashString>, COMDAT

; 516  : 	{	// return pointer category from pointers

  00000	55		 push	 ebp
  00001	8b ec		 mov	 ebp, esp
  00003	51		 push	 ecx

; 517  : 	typename _Ptr_cat_helper<_Elem1, _Elem2>::_Type _Cat;
; 518  : 	return (_Cat);

  00004	8a 45 ff	 mov	 al, BYTE PTR __Cat$[ebp]

; 519  : 	}

  00007	c9		 leave
  00008	c3		 ret	 0
??$_Ptr_cat@VioHashString@@V1@@std@@YA?AU_Nonscalar_ptr_iterator_tag@0@PAVioHashString@@0@Z ENDP ; std::_Ptr_cat<ioHashString,ioHashString>
_TEXT	ENDS
PUBLIC	??$_Move@PAHPAH@std@@YAPAHPAH00U_Scalar_ptr_iterator_tag@0@@Z ; std::_Move<int *,int *>
; Function compile flags: /Ogsp
;	COMDAT ??$_Move@PAHPAH@std@@YAPAHPAH00U_Scalar_ptr_iterator_tag@0@@Z
_TEXT	SEGMENT
__First$ = 8						; size = 4
__Last$ = 12						; size = 4
__Dest$ = 16						; size = 4
___formal$ = 20						; size = 1
??$_Move@PAHPAH@std@@YAPAHPAH00U_Scalar_ptr_iterator_tag@0@@Z PROC ; std::_Move<int *,int *>, COMDAT

; 2522 : 	{	// move [_First, _Last) to [_Dest, ...), pointers to scalars

  00000	55		 push	 ebp
  00001	8b ec		 mov	 ebp, esp
  00003	56		 push	 esi

; 2523 : 	ptrdiff_t _Count = _Last - _First;

  00004	8b 75 0c	 mov	 esi, DWORD PTR __Last$[ebp]
  00007	2b 75 08	 sub	 esi, DWORD PTR __First$[ebp]
  0000a	57		 push	 edi

; 2524 : 	_CSTD memmove(&*_Dest, &*_First,
; 2525 : 		_Count * sizeof (*_First));

  0000b	8b 7d 10	 mov	 edi, DWORD PTR __Dest$[ebp]
  0000e	c1 fe 02	 sar	 esi, 2
  00011	c1 e6 02	 shl	 esi, 2
  00014	56		 push	 esi
  00015	ff 75 08	 push	 DWORD PTR __First$[ebp]
  00018	57		 push	 edi
  00019	ff 15 00 00 00
	00		 call	 DWORD PTR __imp__memmove
  0001f	83 c4 0c	 add	 esp, 12			; 0000000cH

; 2526 : 	return (_Dest + _Count);

  00022	8d 04 3e	 lea	 eax, DWORD PTR [esi+edi]
  00025	5f		 pop	 edi
  00026	5e		 pop	 esi

; 2527 : 	}

  00027	5d		 pop	 ebp
  00028	c3		 ret	 0
??$_Move@PAHPAH@std@@YAPAHPAH00U_Scalar_ptr_iterator_tag@0@@Z ENDP ; std::_Move<int *,int *>
_TEXT	ENDS
PUBLIC	??$_Destroy_range@V?$allocator@H@std@@@std@@YAXPAH0AAV?$allocator@H@0@U_Scalar_ptr_iterator_tag@0@@Z ; std::_Destroy_range<std::allocator<int> >
; Function compile flags: /Ogsp
; File c:\program files (x86)\microsoft visual studio 10.0\vc\include\xmemory
;	COMDAT ??$_Destroy_range@V?$allocator@H@std@@@std@@YAXPAH0AAV?$allocator@H@0@U_Scalar_ptr_iterator_tag@0@@Z
_TEXT	SEGMENT
__First$ = 8						; size = 4
__Last$ = 12						; size = 4
__Al$ = 16						; size = 4
___formal$ = 20						; size = 1
??$_Destroy_range@V?$allocator@H@std@@@std@@YAXPAH0AAV?$allocator@H@0@U_Scalar_ptr_iterator_tag@0@@Z PROC ; std::_Destroy_range<std::allocator<int> >, COMDAT

; 105  : 	}

  00000	c3		 ret	 0
??$_Destroy_range@V?$allocator@H@std@@@std@@YAXPAH0AAV?$allocator@H@0@U_Scalar_ptr_iterator_tag@0@@Z ENDP ; std::_Destroy_range<std::allocator<int> >
_TEXT	ENDS
PUBLIC	??$_Ptr_cat@VGashaponPresent@@V1@@std@@YA?AU_Nonscalar_ptr_iterator_tag@0@PAVGashaponPresent@@0@Z ; std::_Ptr_cat<GashaponPresent,GashaponPresent>
; Function compile flags: /Ogsp
; File c:\program files (x86)\microsoft visual studio 10.0\vc\include\xutility
;	COMDAT ??$_Ptr_cat@VGashaponPresent@@V1@@std@@YA?AU_Nonscalar_ptr_iterator_tag@0@PAVGashaponPresent@@0@Z
_TEXT	SEGMENT
__Cat$ = -1						; size = 1
___formal$ = 8						; size = 4
___formal$ = 12						; size = 4
??$_Ptr_cat@VGashaponPresent@@V1@@std@@YA?AU_Nonscalar_ptr_iterator_tag@0@PAVGashaponPresent@@0@Z PROC ; std::_Ptr_cat<GashaponPresent,GashaponPresent>, COMDAT

; 516  : 	{	// return pointer category from pointers

  00000	55		 push	 ebp
  00001	8b ec		 mov	 ebp, esp
  00003	51		 push	 ecx

; 517  : 	typename _Ptr_cat_helper<_Elem1, _Elem2>::_Type _Cat;
; 518  : 	return (_Cat);

  00004	8a 45 ff	 mov	 al, BYTE PTR __Cat$[ebp]

; 519  : 	}

  00007	c9		 leave
  00008	c3		 ret	 0
??$_Ptr_cat@VGashaponPresent@@V1@@std@@YA?AU_Nonscalar_ptr_iterator_tag@0@PAVGashaponPresent@@0@Z ENDP ; std::_Ptr_cat<GashaponPresent,GashaponPresent>
_TEXT	ENDS
PUBLIC	?_Rechecked@?$_Vector_iterator@V?$_Vector_val@HV?$allocator@H@std@@@std@@@std@@QAEAAV12@PAH@Z ; std::_Vector_iterator<std::_Vector_val<int,std::allocator<int> > >::_Rechecked
; Function compile flags: /Ogsp
; File c:\program files (x86)\microsoft visual studio 10.0\vc\include\vector
;	COMDAT ?_Rechecked@?$_Vector_iterator@V?$_Vector_val@HV?$allocator@H@std@@@std@@@std@@QAEAAV12@PAH@Z
_TEXT	SEGMENT
__Right$ = 8						; size = 4
?_Rechecked@?$_Vector_iterator@V?$_Vector_val@HV?$allocator@H@std@@@std@@@std@@QAEAAV12@PAH@Z PROC ; std::_Vector_iterator<std::_Vector_val<int,std::allocator<int> > >::_Rechecked, COMDAT
; _this$ = ecx

; 310  : 		{	// reset from unchecked iterator

  00000	55		 push	 ebp
  00001	8b ec		 mov	 ebp, esp
  00003	8b c1		 mov	 eax, ecx

; 311  : 		this->_Ptr = _Right;

  00005	8b 4d 08	 mov	 ecx, DWORD PTR __Right$[ebp]
  00008	89 08		 mov	 DWORD PTR [eax], ecx

; 312  : 		return (*this);
; 313  : 		}

  0000a	5d		 pop	 ebp
  0000b	c2 04 00	 ret	 4
?_Rechecked@?$_Vector_iterator@V?$_Vector_val@HV?$allocator@H@std@@@std@@@std@@QAEAAV12@PAH@Z ENDP ; std::_Vector_iterator<std::_Vector_val<int,std::allocator<int> > >::_Rechecked
_TEXT	ENDS
PUBLIC	?_Unchecked@?$_Vector_iterator@V?$_Vector_val@HV?$allocator@H@std@@@std@@@std@@QBEPAHXZ ; std::_Vector_iterator<std::_Vector_val<int,std::allocator<int> > >::_Unchecked
; Function compile flags: /Ogsp
;	COMDAT ?_Unchecked@?$_Vector_iterator@V?$_Vector_val@HV?$allocator@H@std@@@std@@@std@@QBEPAHXZ
_TEXT	SEGMENT
?_Unchecked@?$_Vector_iterator@V?$_Vector_val@HV?$allocator@H@std@@@std@@@std@@QBEPAHXZ PROC ; std::_Vector_iterator<std::_Vector_val<int,std::allocator<int> > >::_Unchecked, COMDAT
; _this$ = ecx

; 317  : 		return (_Unchecked_type(this->_Ptr));

  00000	8b 01		 mov	 eax, DWORD PTR [ecx]

; 318  : 		}

  00002	c3		 ret	 0
?_Unchecked@?$_Vector_iterator@V?$_Vector_val@HV?$allocator@H@std@@@std@@@std@@QBEPAHXZ ENDP ; std::_Vector_iterator<std::_Vector_val<int,std::allocator<int> > >::_Unchecked
_TEXT	ENDS
PUBLIC	??$move@AAVioHashString@@@std@@YA$$QAVioHashString@@AAV1@@Z ; std::move<ioHashString &>
; Function compile flags: /Ogsp
; File c:\program files (x86)\microsoft visual studio 10.0\vc\include\utility
;	COMDAT ??$move@AAVioHashString@@@std@@YA$$QAVioHashString@@AAV1@@Z
_TEXT	SEGMENT
__Arg$ = 8						; size = 4
??$move@AAVioHashString@@@std@@YA$$QAVioHashString@@AAV1@@Z PROC ; std::move<ioHashString &>, COMDAT

; 86   : 	{	// forward _Arg as movable

  00000	55		 push	 ebp
  00001	8b ec		 mov	 ebp, esp

; 87   : 	return ((typename tr1::_Remove_reference<_Ty>::_Type&&)_Arg);

  00003	8b 45 08	 mov	 eax, DWORD PTR __Arg$[ebp]

; 88   : 	}

  00006	5d		 pop	 ebp
  00007	c3		 ret	 0
??$move@AAVioHashString@@@std@@YA$$QAVioHashString@@AAV1@@Z ENDP ; std::move<ioHashString &>
_TEXT	ENDS
PUBLIC	??$_Uninit_move@HHH@std@@YAPAHPAH00AAV?$allocator@H@0@0U_Scalar_ptr_iterator_tag@0@@Z ; std::_Uninit_move<int,int,int>
; Function compile flags: /Ogsp
; File c:\program files (x86)\microsoft visual studio 10.0\vc\include\memory
;	COMDAT ??$_Uninit_move@HHH@std@@YAPAHPAH00AAV?$allocator@H@0@0U_Scalar_ptr_iterator_tag@0@@Z
_TEXT	SEGMENT
__First$ = 8						; size = 4
__Last$ = 12						; size = 4
__Dest$ = 16						; size = 4
___formal$ = 20						; size = 4
___formal$ = 24						; size = 4
___formal$ = 28						; size = 1
??$_Uninit_move@HHH@std@@YAPAHPAH00AAV?$allocator@H@0@0U_Scalar_ptr_iterator_tag@0@@Z PROC ; std::_Uninit_move<int,int,int>, COMDAT

; 456  : 	{	// move [_First, _Last) to raw _Dest, scalar type

  00000	55		 push	 ebp
  00001	8b ec		 mov	 ebp, esp
  00003	56		 push	 esi

; 457  : 	_DEBUG_RANGE(_First, _Last);
; 458  : 	_DEBUG_POINTER(_Dest);
; 459  : 	size_t _Count = (size_t)(_Last - _First);

  00004	8b 75 0c	 mov	 esi, DWORD PTR __Last$[ebp]
  00007	2b 75 08	 sub	 esi, DWORD PTR __First$[ebp]
  0000a	c1 fe 02	 sar	 esi, 2

; 460  : 	return ((_Ty2 *)_CSTD memmove(&*_Dest, &*_First,
; 461  : 		_Count * sizeof (*_First)) + _Count);	// NB: non-overlapping move

  0000d	c1 e6 02	 shl	 esi, 2
  00010	56		 push	 esi
  00011	ff 75 08	 push	 DWORD PTR __First$[ebp]
  00014	ff 75 10	 push	 DWORD PTR __Dest$[ebp]
  00017	ff 15 00 00 00
	00		 call	 DWORD PTR __imp__memmove
  0001d	83 c4 0c	 add	 esp, 12			; 0000000cH
  00020	03 c6		 add	 eax, esi
  00022	5e		 pop	 esi

; 462  : 	}

  00023	5d		 pop	 ebp
  00024	c3		 ret	 0
??$_Uninit_move@HHH@std@@YAPAHPAH00AAV?$allocator@H@0@0U_Scalar_ptr_iterator_tag@0@@Z ENDP ; std::_Uninit_move<int,int,int>
_TEXT	ENDS
PUBLIC	??_GioHashString@@QAEPAXI@Z			; ioHashString::`scalar deleting destructor'
; Function compile flags: /Ogsp
;	COMDAT ??_GioHashString@@QAEPAXI@Z
_TEXT	SEGMENT
___flags$ = 8						; size = 4
??_GioHashString@@QAEPAXI@Z PROC			; ioHashString::`scalar deleting destructor', COMDAT
; _this$ = ecx
  00000	55		 push	 ebp
  00001	8b ec		 mov	 ebp, esp
  00003	56		 push	 esi
  00004	8b f1		 mov	 esi, ecx
  00006	ff 15 00 00 00
	00		 call	 DWORD PTR __imp_??1ioHashString@@QAE@XZ
  0000c	f6 45 08 01	 test	 BYTE PTR ___flags$[ebp], 1
  00010	74 07		 je	 SHORT $LN1@scalar@2
  00012	56		 push	 esi
  00013	e8 00 00 00 00	 call	 ??3@YAXPAX@Z		; operator delete
  00018	59		 pop	 ecx
$LN1@scalar@2:
  00019	8b c6		 mov	 eax, esi
  0001b	5e		 pop	 esi
  0001c	5d		 pop	 ebp
  0001d	c2 04 00	 ret	 4
??_GioHashString@@QAEPAXI@Z ENDP			; ioHashString::`scalar deleting destructor'
_TEXT	ENDS
PUBLIC	??_GGashaponPresent@@QAEPAXI@Z			; GashaponPresent::`scalar deleting destructor'
EXTRN	??1GashaponPresent@@QAE@XZ:PROC			; GashaponPresent::~GashaponPresent
; Function compile flags: /Ogsp
;	COMDAT ??_GGashaponPresent@@QAEPAXI@Z
_TEXT	SEGMENT
___flags$ = 8						; size = 4
??_GGashaponPresent@@QAEPAXI@Z PROC			; GashaponPresent::`scalar deleting destructor', COMDAT
; _this$ = ecx
  00000	55		 push	 ebp
  00001	8b ec		 mov	 ebp, esp
  00003	56		 push	 esi
  00004	8b f1		 mov	 esi, ecx
  00006	e8 00 00 00 00	 call	 ??1GashaponPresent@@QAE@XZ ; GashaponPresent::~GashaponPresent
  0000b	f6 45 08 01	 test	 BYTE PTR ___flags$[ebp], 1
  0000f	74 07		 je	 SHORT $LN1@scalar@3
  00011	56		 push	 esi
  00012	e8 00 00 00 00	 call	 ??3@YAXPAX@Z		; operator delete
  00017	59		 pop	 ecx
$LN1@scalar@3:
  00018	8b c6		 mov	 eax, esi
  0001a	5e		 pop	 esi
  0001b	5d		 pop	 ebp
  0001c	c2 04 00	 ret	 4
??_GGashaponPresent@@QAEPAXI@Z ENDP			; GashaponPresent::`scalar deleting destructor'
_TEXT	ENDS
PUBLIC	??1?$_Vector_val@V?$basic_string@DU?$char_traits@D@std@@V?$allocator@D@2@@std@@V?$allocator@V?$basic_string@DU?$char_traits@D@std@@V?$allocator@D@2@@std@@@2@@std@@QAE@XZ ; std::_Vector_val<std::basic_string<char,std::char_traits<char>,std::allocator<char> >,std::allocator<std::basic_string<char,std::char_traits<char>,std::allocator<char> > > >::~_Vector_val<std::basic_string<char,std::char_traits<char>,std::allocator<char> >,std::allocator<std::basic_string<char,std::char_traits<char>,std::allocator<char> > > >
; Function compile flags: /Ogsp
; File c:\program files (x86)\microsoft visual studio 10.0\vc\include\vector
;	COMDAT ??1?$_Vector_val@V?$basic_string@DU?$char_traits@D@std@@V?$allocator@D@2@@std@@V?$allocator@V?$basic_string@DU?$char_traits@D@std@@V?$allocator@D@2@@std@@@2@@std@@QAE@XZ
_TEXT	SEGMENT
??1?$_Vector_val@V?$basic_string@DU?$char_traits@D@std@@V?$allocator@D@2@@std@@V?$allocator@V?$basic_string@DU?$char_traits@D@std@@V?$allocator@D@2@@std@@@2@@std@@QAE@XZ PROC ; std::_Vector_val<std::basic_string<char,std::char_traits<char>,std::allocator<char> >,std::allocator<std::basic_string<char,std::char_traits<char>,std::allocator<char> > > >::~_Vector_val<std::basic_string<char,std::char_traits<char>,std::allocator<char> >,std::allocator<std::basic_string<char,std::char_traits<char>,std::allocator<char> > > >, COMDAT
; _this$ = ecx

; 434  : 		}

  00000	c3		 ret	 0
??1?$_Vector_val@V?$basic_string@DU?$char_traits@D@std@@V?$allocator@D@2@@std@@V?$allocator@V?$basic_string@DU?$char_traits@D@std@@V?$allocator@D@2@@std@@@2@@std@@QAE@XZ ENDP ; std::_Vector_val<std::basic_string<char,std::char_traits<char>,std::allocator<char> >,std::allocator<std::basic_string<char,std::char_traits<char>,std::allocator<char> > > >::~_Vector_val<std::basic_string<char,std::char_traits<char>,std::allocator<char> >,std::allocator<std::basic_string<char,std::char_traits<char>,std::allocator<char> > > >
_TEXT	ENDS
PUBLIC	?deallocate@?$allocator@V?$basic_string@DU?$char_traits@D@std@@V?$allocator@D@2@@std@@@std@@QAEXPAV?$basic_string@DU?$char_traits@D@std@@V?$allocator@D@2@@2@I@Z ; std::allocator<std::basic_string<char,std::char_traits<char>,std::allocator<char> > >::deallocate
; Function compile flags: /Ogsp
; File c:\program files (x86)\microsoft visual studio 10.0\vc\include\xmemory
;	COMDAT ?deallocate@?$allocator@V?$basic_string@DU?$char_traits@D@std@@V?$allocator@D@2@@std@@@std@@QAEXPAV?$basic_string@DU?$char_traits@D@std@@V?$allocator@D@2@@2@I@Z
_TEXT	SEGMENT
__Ptr$ = 8						; size = 4
___formal$ = 12						; size = 4
?deallocate@?$allocator@V?$basic_string@DU?$char_traits@D@std@@V?$allocator@D@2@@std@@@std@@QAEXPAV?$basic_string@DU?$char_traits@D@std@@V?$allocator@D@2@@2@I@Z PROC ; std::allocator<std::basic_string<char,std::char_traits<char>,std::allocator<char> > >::deallocate, COMDAT
; _this$ = ecx

; 181  : 		{	// deallocate object at _Ptr, ignore size

  00000	55		 push	 ebp
  00001	8b ec		 mov	 ebp, esp

; 182  : 		::operator delete(_Ptr);

  00003	ff 75 08	 push	 DWORD PTR __Ptr$[ebp]
  00006	e8 00 00 00 00	 call	 ??3@YAXPAX@Z		; operator delete
  0000b	59		 pop	 ecx

; 183  : 		}

  0000c	5d		 pop	 ebp
  0000d	c2 08 00	 ret	 8
?deallocate@?$allocator@V?$basic_string@DU?$char_traits@D@std@@V?$allocator@D@2@@std@@@std@@QAEXPAV?$basic_string@DU?$char_traits@D@std@@V?$allocator@D@2@@2@I@Z ENDP ; std::allocator<std::basic_string<char,std::char_traits<char>,std::allocator<char> > >::deallocate
_TEXT	ENDS
PUBLIC	??$_Construct@VioHashString@@ABV1@@std@@YAXPAVioHashString@@ABV1@@Z ; std::_Construct<ioHashString,ioHashString const &>
EXTRN	__imp_??0ioHashString@@QAE@ABV0@@Z:PROC
;	COMDAT xdata$x
; File c:\program files (x86)\microsoft visual studio 10.0\vc\include\utility
xdata$x	SEGMENT
__unwindtable$??$_Construct@VioHashString@@ABV1@@std@@YAXPAVioHashString@@ABV1@@Z DD 0ffffffffH
	DD	FLAT:__unwindfunclet$??$_Construct@VioHashString@@ABV1@@std@@YAXPAVioHashString@@ABV1@@Z$0
__ehfuncinfo$??$_Construct@VioHashString@@ABV1@@std@@YAXPAVioHashString@@ABV1@@Z DD 019930522H
	DD	01H
	DD	FLAT:__unwindtable$??$_Construct@VioHashString@@ABV1@@std@@YAXPAVioHashString@@ABV1@@Z
	DD	2 DUP(00H)
	DD	2 DUP(00H)
	DD	00H
	DD	01H
; Function compile flags: /Ogsp
; File c:\program files (x86)\microsoft visual studio 10.0\vc\include\xmemory
xdata$x	ENDS
;	COMDAT ??$_Construct@VioHashString@@ABV1@@std@@YAXPAVioHashString@@ABV1@@Z
_TEXT	SEGMENT
$T517856 = -16						; size = 4
__$EHRec$ = -12						; size = 12
__Vptr$ = 8						; size = 4
__Ptr$ = 8						; size = 4
__Val$ = 12						; size = 4
??$_Construct@VioHashString@@ABV1@@std@@YAXPAVioHashString@@ABV1@@Z PROC ; std::_Construct<ioHashString,ioHashString const &>, COMDAT

; 46   : 	{	// construct object at _Ptr with value _Val

  00000	6a 04		 push	 4
  00002	b8 00 00 00 00	 mov	 eax, __ehhandler$??$_Construct@VioHashString@@ABV1@@std@@YAXPAVioHashString@@ABV1@@Z
  00007	e8 00 00 00 00	 call	 __EH_prolog3

; 47   : 	void _FARQ *_Vptr = _Ptr;

  0000c	8b 4d 08	 mov	 ecx, DWORD PTR __Ptr$[ebp]
  0000f	89 4d 08	 mov	 DWORD PTR __Vptr$[ebp], ecx

; 48   : 	::new (_Vptr) _Ty1(_STD forward<_Ty2>(_Val));

  00012	89 4d f0	 mov	 DWORD PTR $T517856[ebp], ecx
  00015	83 65 fc 00	 and	 DWORD PTR __$EHRec$[ebp+8], 0
  00019	85 c9		 test	 ecx, ecx
  0001b	74 09		 je	 SHORT $LN3@Construct@2
  0001d	ff 75 0c	 push	 DWORD PTR __Val$[ebp]
  00020	ff 15 00 00 00
	00		 call	 DWORD PTR __imp_??0ioHashString@@QAE@ABV0@@Z
$LN3@Construct@2:

; 49   : 	}

  00026	e8 00 00 00 00	 call	 __EH_epilog3
  0002b	c3		 ret	 0
_TEXT	ENDS
;	COMDAT text$x
text$x	SEGMENT
__unwindfunclet$??$_Construct@VioHashString@@ABV1@@std@@YAXPAVioHashString@@ABV1@@Z$0:
  00000	ff 75 08	 push	 DWORD PTR __Vptr$[ebp]
  00003	ff 75 f0	 push	 DWORD PTR $T517856[ebp]
  00006	e8 00 00 00 00	 call	 ??3@YAXPAX0@Z		; operator delete
  0000b	59		 pop	 ecx
  0000c	59		 pop	 ecx
  0000d	c3		 ret	 0
__ehhandler$??$_Construct@VioHashString@@ABV1@@std@@YAXPAVioHashString@@ABV1@@Z:
  0000e	8b 54 24 08	 mov	 edx, DWORD PTR [esp+8]
  00012	8d 42 0c	 lea	 eax, DWORD PTR [edx+12]
  00015	8b 4a ec	 mov	 ecx, DWORD PTR [edx-20]
  00018	33 c8		 xor	 ecx, eax
  0001a	e8 00 00 00 00	 call	 @__security_check_cookie@4
  0001f	b8 00 00 00 00	 mov	 eax, OFFSET __ehfuncinfo$??$_Construct@VioHashString@@ABV1@@std@@YAXPAVioHashString@@ABV1@@Z
  00024	e9 00 00 00 00	 jmp	 ___CxxFrameHandler3
text$x	ENDS
??$_Construct@VioHashString@@ABV1@@std@@YAXPAVioHashString@@ABV1@@Z ENDP ; std::_Construct<ioHashString,ioHashString const &>
PUBLIC	??$_Ptr_cat@V?$basic_string@DU?$char_traits@D@std@@V?$allocator@D@2@@std@@V12@@std@@YA?AU_Nonscalar_ptr_iterator_tag@0@PAV?$basic_string@DU?$char_traits@D@std@@V?$allocator@D@2@@0@0@Z ; std::_Ptr_cat<std::basic_string<char,std::char_traits<char>,std::allocator<char> >,std::basic_string<char,std::char_traits<char>,std::allocator<char> > >
; Function compile flags: /Ogsp
; File c:\program files (x86)\microsoft visual studio 10.0\vc\include\xutility
;	COMDAT ??$_Ptr_cat@V?$basic_string@DU?$char_traits@D@std@@V?$allocator@D@2@@std@@V12@@std@@YA?AU_Nonscalar_ptr_iterator_tag@0@PAV?$basic_string@DU?$char_traits@D@std@@V?$allocator@D@2@@0@0@Z
_TEXT	SEGMENT
__Cat$ = -1						; size = 1
___formal$ = 8						; size = 4
___formal$ = 12						; size = 4
??$_Ptr_cat@V?$basic_string@DU?$char_traits@D@std@@V?$allocator@D@2@@std@@V12@@std@@YA?AU_Nonscalar_ptr_iterator_tag@0@PAV?$basic_string@DU?$char_traits@D@std@@V?$allocator@D@2@@0@0@Z PROC ; std::_Ptr_cat<std::basic_string<char,std::char_traits<char>,std::allocator<char> >,std::basic_string<char,std::char_traits<char>,std::allocator<char> > >, COMDAT

; 516  : 	{	// return pointer category from pointers

  00000	55		 push	 ebp
  00001	8b ec		 mov	 ebp, esp
  00003	51		 push	 ecx

; 517  : 	typename _Ptr_cat_helper<_Elem1, _Elem2>::_Type _Cat;
; 518  : 	return (_Cat);

  00004	8a 45 ff	 mov	 al, BYTE PTR __Cat$[ebp]

; 519  : 	}

  00007	c9		 leave
  00008	c3		 ret	 0
??$_Ptr_cat@V?$basic_string@DU?$char_traits@D@std@@V?$allocator@D@2@@std@@V12@@std@@YA?AU_Nonscalar_ptr_iterator_tag@0@PAV?$basic_string@DU?$char_traits@D@std@@V?$allocator@D@2@@0@0@Z ENDP ; std::_Ptr_cat<std::basic_string<char,std::char_traits<char>,std::allocator<char> >,std::basic_string<char,std::char_traits<char>,std::allocator<char> > >
_TEXT	ENDS
PUBLIC	?iwm_show@RisingGashaponItemInfoBtn@@UAEXXZ	; RisingGashaponItemInfoBtn::iwm_show
; Function compile flags: /Ogsp
; File d:\lost saga for developer\youtube\tutorial\source\src\lsclient\gui\risinggashaponwnd.cpp
;	COMDAT ?iwm_show@RisingGashaponItemInfoBtn@@UAEXXZ
_TEXT	SEGMENT
?iwm_show@RisingGashaponItemInfoBtn@@UAEXXZ PROC	; RisingGashaponItemInfoBtn::iwm_show, COMDAT
; _this$ = ecx

; 176  : 	SetEmptyCard();

  00000	e9 00 00 00 00	 jmp	 ?SetEmptyCard@RisingGashaponItemInfoBtn@@QAEXXZ ; RisingGashaponItemInfoBtn::SetEmptyCard
?iwm_show@RisingGashaponItemInfoBtn@@UAEXXZ ENDP	; RisingGashaponItemInfoBtn::iwm_show
_TEXT	ENDS
PUBLIC	?RollingEffect@RisingGashaponItemInfoBtn@@IAEXM@Z ; RisingGashaponItemInfoBtn::RollingEffect
EXTRN	__imp_?PlaySoundA@ioSoundManager@@QAEKABVioHashString@@HK@Z:PROC
EXTRN	__imp_?CreateImageByFullName@ioUIImageSetManager@@QAEPAVioUIRenderImage@@ABVioHashString@@_N@Z:PROC
EXTRN	__imp_?GetSingleton@ioUIImageSetManager@@SAAAV1@XZ:PROC
EXTRN	__imp_??4ioHashString@@QAEAAV0@ABV0@@Z:PROC
;	COMDAT xdata$x
; File c:\program files (x86)\microsoft visual studio 10.0\vc\include\vector
xdata$x	SEGMENT
__unwindtable$?RollingEffect@RisingGashaponItemInfoBtn@@IAEXM@Z DD 0ffffffffH
	DD	FLAT:__unwindfunclet$?RollingEffect@RisingGashaponItemInfoBtn@@IAEXM@Z$0
__ehfuncinfo$?RollingEffect@RisingGashaponItemInfoBtn@@IAEXM@Z DD 019930522H
	DD	01H
	DD	FLAT:__unwindtable$?RollingEffect@RisingGashaponItemInfoBtn@@IAEXM@Z
	DD	2 DUP(00H)
	DD	2 DUP(00H)
	DD	00H
	DD	01H
; Function compile flags: /Ogsp
; File d:\lost saga for developer\youtube\tutorial\source\src\lsclient\gui\risinggashaponwnd.cpp
xdata$x	ENDS
;	COMDAT ?RollingEffect@RisingGashaponItemInfoBtn@@IAEXM@Z
_TEXT	SEGMENT
_szEffect$513191 = -28					; size = 16
__$EHRec$ = -12						; size = 12
_fTimePerSec$ = 8					; size = 4
?RollingEffect@RisingGashaponItemInfoBtn@@IAEXM@Z PROC	; RisingGashaponItemInfoBtn::RollingEffect, COMDAT
; _this$ = ecx

; 212  : {

  00000	6a 10		 push	 16			; 00000010H
  00002	b8 00 00 00 00	 mov	 eax, __ehhandler$?RollingEffect@RisingGashaponItemInfoBtn@@IAEXM@Z
  00007	e8 00 00 00 00	 call	 __EH_prolog3
  0000c	8b f1		 mov	 esi, ecx

; 213  : 	if(  m_dwRollingEffectCheckTime == 0 )

  0000e	33 ff		 xor	 edi, edi
  00010	39 be 48 02 00
	00		 cmp	 DWORD PTR [esi+584], edi
  00016	0f 84 17 01 00
	00		 je	 $LN8@RollingEff

; 214  : 		return;
; 215  : 
; 216  : 	DWORD dwCurTime = FRAMEGETTIME();

  0001c	ff 15 00 00 00
	00		 call	 DWORD PTR __imp_?GetSingleton@ioFrameTimer@@SAAAV1@XZ
  00022	8b c8		 mov	 ecx, eax
  00024	ff 15 00 00 00
	00		 call	 DWORD PTR __imp_?GetLoopSec@ioFrameTimer@@QBEKXZ
  0002a	8b d8		 mov	 ebx, eax

; 217  : 	if( dwCurTime - m_dwRollingEffectCheckTime > m_dwRollingEffectTime )		// 교체

  0002c	2b 86 48 02 00
	00		 sub	 eax, DWORD PTR [esi+584]
  00032	3b 86 44 02 00
	00		 cmp	 eax, DWORD PTR [esi+580]
  00038	0f 86 f5 00 00
	00		 jbe	 $LN8@RollingEff

; 218  : 	{
; 219  : 		SAFEDELETE( m_pEffect );

  0003e	8b 8e 2c 02 00
	00		 mov	 ecx, DWORD PTR [esi+556]
  00044	3b cf		 cmp	 ecx, edi
  00046	74 0d		 je	 SHORT $LN7@RollingEff
  00048	8b 01		 mov	 eax, DWORD PTR [ecx]
  0004a	6a 01		 push	 1
  0004c	ff 50 40	 call	 DWORD PTR [eax+64]
  0004f	89 be 2c 02 00
	00		 mov	 DWORD PTR [esi+556], edi
$LN7@RollingEff:

; 220  : 
; 221  : 		m_iCurEffectArray++;

  00055	ff 86 40 02 00
	00		 inc	 DWORD PTR [esi+576]
  0005b	8b 8e 40 02 00
	00		 mov	 ecx, DWORD PTR [esi+576]

; 222  : 
; 223  : 		if( !COMPARE( m_iCurEffectArray, 0, (int)m_vEndEfffect_S.size() ) )

  00061	78 13		 js	 SHORT $LN5@RollingEff
  00063	8b 96 34 02 00
	00		 mov	 edx, DWORD PTR [esi+564]
  00069	2b 96 30 02 00
	00		 sub	 edx, DWORD PTR [esi+560]
  0006f	c1 fa 04	 sar	 edx, 4
  00072	3b ca		 cmp	 ecx, edx
  00074	7c 06		 jl	 SHORT $LN6@RollingEff
$LN5@RollingEff:

; 224  : 			m_iCurEffectArray = 0;

  00076	89 be 40 02 00
	00		 mov	 DWORD PTR [esi+576], edi
$LN6@RollingEff:

; 225  : 
; 226  : 		ioHashString szEffect;

  0007c	8d 4d e4	 lea	 ecx, DWORD PTR _szEffect$513191[ebp]
  0007f	ff 15 00 00 00
	00		 call	 DWORD PTR __imp_??0ioHashString@@QAE@XZ

; 227  : 		szEffect = m_vEndEfffect_S[m_iCurEffectArray];

  00085	8b 86 40 02 00
	00		 mov	 eax, DWORD PTR [esi+576]
  0008b	c1 e0 04	 shl	 eax, 4
  0008e	03 86 30 02 00
	00		 add	 eax, DWORD PTR [esi+560]
  00094	8d 4d e4	 lea	 ecx, DWORD PTR _szEffect$513191[ebp]
  00097	50		 push	 eax
  00098	89 7d fc	 mov	 DWORD PTR __$EHRec$[ebp+8], edi
  0009b	ff 15 00 00 00
	00		 call	 DWORD PTR __imp_??4ioHashString@@QAEAAV0@ABV0@@Z

; 228  : 
; 229  : 		if( !szEffect.IsEmpty() )

  000a1	8d 4d e4	 lea	 ecx, DWORD PTR _szEffect$513191[ebp]
  000a4	ff 15 00 00 00
	00		 call	 DWORD PTR __imp_?IsEmpty@ioHashString@@QBE_NXZ
  000aa	84 c0		 test	 al, al
  000ac	75 19		 jne	 SHORT $LN4@RollingEff

; 230  : 		{
; 231  : 			m_pEffect = g_UIImageSetMgr.CreateImageByFullName( szEffect );

  000ae	8d 45 e4	 lea	 eax, DWORD PTR _szEffect$513191[ebp]
  000b1	57		 push	 edi
  000b2	50		 push	 eax
  000b3	ff 15 00 00 00
	00		 call	 DWORD PTR __imp_?GetSingleton@ioUIImageSetManager@@SAAAV1@XZ
  000b9	8b c8		 mov	 ecx, eax
  000bb	ff 15 00 00 00
	00		 call	 DWORD PTR __imp_?CreateImageByFullName@ioUIImageSetManager@@QAEPAVioUIRenderImage@@ABVioHashString@@_N@Z
  000c1	89 86 2c 02 00
	00		 mov	 DWORD PTR [esi+556], eax
$LN4@RollingEff:

; 232  : 		}
; 233  : 
; 234  : 		m_dwRollingEffectCheckTime = dwCurTime;

  000c7	89 9e 48 02 00
	00		 mov	 DWORD PTR [esi+584], ebx

; 235  : 
; 236  : 		if( m_iCurEffectArray >= (int)m_vEndEfffect_S.size()-1 ) // end

  000cd	8b 86 34 02 00
	00		 mov	 eax, DWORD PTR [esi+564]
  000d3	2b 86 30 02 00
	00		 sub	 eax, DWORD PTR [esi+560]
  000d9	c1 f8 04	 sar	 eax, 4
  000dc	48		 dec	 eax
  000dd	39 86 40 02 00
	00		 cmp	 DWORD PTR [esi+576], eax
  000e3	7c 41		 jl	 SHORT $LN1@RollingEff

; 237  : 		{
; 238  : 			SAFEDELETE( m_pEffect );

  000e5	8b 8e 2c 02 00
	00		 mov	 ecx, DWORD PTR [esi+556]
  000eb	3b cf		 cmp	 ecx, edi
  000ed	74 0d		 je	 SHORT $LN2@RollingEff
  000ef	8b 01		 mov	 eax, DWORD PTR [ecx]
  000f1	6a 01		 push	 1
  000f3	ff 50 40	 call	 DWORD PTR [eax+64]
  000f6	89 be 2c 02 00
	00		 mov	 DWORD PTR [esi+556], edi
$LN2@RollingEff:

; 239  : 			m_dwRollingEffectCheckTime = 0;

  000fc	89 be 48 02 00
	00		 mov	 DWORD PTR [esi+584], edi

; 240  : 			if( !m_szSuccessSound.IsEmpty() )

  00102	81 c6 4c 02 00
	00		 add	 esi, 588		; 0000024cH
  00108	8b ce		 mov	 ecx, esi
  0010a	ff 15 00 00 00
	00		 call	 DWORD PTR __imp_?IsEmpty@ioHashString@@QBE_NXZ
  00110	84 c0		 test	 al, al
  00112	75 12		 jne	 SHORT $LN1@RollingEff

; 241  : 				g_SoundMgr.PlaySound( m_szSuccessSound, DSBVOLUME_MAX, PSM_THREAD );

  00114	6a 04		 push	 4
  00116	57		 push	 edi
  00117	56		 push	 esi
  00118	ff 15 00 00 00
	00		 call	 DWORD PTR __imp_?GetSingleton@ioSoundManager@@SAAAV1@XZ
  0011e	8b c8		 mov	 ecx, eax
  00120	ff 15 00 00 00
	00		 call	 DWORD PTR __imp_?PlaySoundA@ioSoundManager@@QAEKABVioHashString@@HK@Z
$LN1@RollingEff:

; 242  : 		}
; 243  : 	}

  00126	83 4d fc ff	 or	 DWORD PTR __$EHRec$[ebp+8], -1
  0012a	8d 4d e4	 lea	 ecx, DWORD PTR _szEffect$513191[ebp]
  0012d	ff 15 00 00 00
	00		 call	 DWORD PTR __imp_??1ioHashString@@QAE@XZ
$LN8@RollingEff:

; 244  : }

  00133	e8 00 00 00 00	 call	 __EH_epilog3
  00138	c2 04 00	 ret	 4
_TEXT	ENDS
;	COMDAT text$x
text$x	SEGMENT
__unwindfunclet$?RollingEffect@RisingGashaponItemInfoBtn@@IAEXM@Z$0:
  00000	8d 4d e4	 lea	 ecx, DWORD PTR _szEffect$513191[ebp]
  00003	ff 25 00 00 00
	00		 jmp	 DWORD PTR __imp_??1ioHashString@@QAE@XZ
__ehhandler$?RollingEffect@RisingGashaponItemInfoBtn@@IAEXM@Z:
  00009	8b 54 24 08	 mov	 edx, DWORD PTR [esp+8]
  0000d	8d 42 0c	 lea	 eax, DWORD PTR [edx+12]
  00010	8b 4a e0	 mov	 ecx, DWORD PTR [edx-32]
  00013	33 c8		 xor	 ecx, eax
  00015	e8 00 00 00 00	 call	 @__security_check_cookie@4
  0001a	b8 00 00 00 00	 mov	 eax, OFFSET __ehfuncinfo$?RollingEffect@RisingGashaponItemInfoBtn@@IAEXM@Z
  0001f	e9 00 00 00 00	 jmp	 ___CxxFrameHandler3
text$x	ENDS
?RollingEffect@RisingGashaponItemInfoBtn@@IAEXM@Z ENDP	; RisingGashaponItemInfoBtn::RollingEffect
PUBLIC	?OnDrawNormal@RisingGashaponItemInfoBtn@@MAEXHH@Z ; RisingGashaponItemInfoBtn::OnDrawNormal
; Function compile flags: /Ogsp
;	COMDAT ?OnDrawNormal@RisingGashaponItemInfoBtn@@MAEXHH@Z
_TEXT	SEGMENT
_iXPos$ = 8						; size = 4
_iYPos$ = 12						; size = 4
?OnDrawNormal@RisingGashaponItemInfoBtn@@MAEXHH@Z PROC	; RisingGashaponItemInfoBtn::OnDrawNormal, COMDAT
; _this$ = ecx

; 254  : {

  00000	55		 push	 ebp
  00001	8b ec		 mov	 ebp, esp
  00003	56		 push	 esi
  00004	8b f1		 mov	 esi, ecx

; 255  : 	if( IsEmptyCard() )

  00006	8d 8e 14 02 00
	00		 lea	 ecx, DWORD PTR [esi+532]
  0000c	e8 00 00 00 00	 call	 ?IsEmpty@GashaponPresent@@QAE_NXZ ; GashaponPresent::IsEmpty

; 256  : 	{
; 257  : 		RenderEmpty(iXPos, iYPos, UI_RENDER_NORMAL);

  00011	6a 00		 push	 0
  00013	ff 75 0c	 push	 DWORD PTR _iYPos$[ebp]
  00016	8b ce		 mov	 ecx, esi
  00018	ff 75 08	 push	 DWORD PTR _iXPos$[ebp]
  0001b	84 c0		 test	 al, al
  0001d	74 07		 je	 SHORT $LN2@OnDrawNorm
  0001f	e8 00 00 00 00	 call	 ?RenderEmpty@RisingGashaponItemInfoBtn@@IAEXHHW4UIRenderType@@@Z ; RisingGashaponItemInfoBtn::RenderEmpty

; 258  : 	}
; 259  : 	else

  00024	eb 23		 jmp	 SHORT $LN1@OnDrawNorm
$LN2@OnDrawNorm:

; 260  : 	{
; 261  : 		RenderInfo( iXPos, iYPos, UI_RENDER_NORMAL );

  00026	e8 00 00 00 00	 call	 ?RenderInfo@RisingGashaponItemInfoBtn@@IAEXHHW4UIRenderType@@@Z ; RisingGashaponItemInfoBtn::RenderInfo

; 262  : 		RenderEffect( iXPos, iYPos, UI_RENDER_ADD );

  0002b	6a 03		 push	 3
  0002d	ff 75 0c	 push	 DWORD PTR _iYPos$[ebp]
  00030	8b ce		 mov	 ecx, esi
  00032	ff 75 08	 push	 DWORD PTR _iXPos$[ebp]
  00035	e8 00 00 00 00	 call	 ?RenderEffect@RisingGashaponItemInfoBtn@@IAEXHHW4UIRenderType@@@Z ; RisingGashaponItemInfoBtn::RenderEffect

; 263  : 		RenderSelect( iXPos, iYPos, UI_RENDER_ADD );

  0003a	6a 03		 push	 3
  0003c	ff 75 0c	 push	 DWORD PTR _iYPos$[ebp]
  0003f	8b ce		 mov	 ecx, esi
  00041	ff 75 08	 push	 DWORD PTR _iXPos$[ebp]
  00044	e8 00 00 00 00	 call	 ?RenderSelect@RisingGashaponItemInfoBtn@@IAEXHHW4UIRenderType@@@Z ; RisingGashaponItemInfoBtn::RenderSelect
$LN1@OnDrawNorm:
  00049	5e		 pop	 esi

; 264  : 	}
; 265  : }

  0004a	5d		 pop	 ebp
  0004b	c2 08 00	 ret	 8
?OnDrawNormal@RisingGashaponItemInfoBtn@@MAEXHH@Z ENDP	; RisingGashaponItemInfoBtn::OnDrawNormal
_TEXT	ENDS
PUBLIC	?iwm_hide@RisingGashaponWnd@@UAEXXZ		; RisingGashaponWnd::iwm_hide
; Function compile flags: /Ogsp
;	COMDAT ?iwm_hide@RisingGashaponWnd@@UAEXXZ
_TEXT	SEGMENT
?iwm_hide@RisingGashaponWnd@@UAEXXZ PROC		; RisingGashaponWnd::iwm_hide, COMDAT
; _this$ = ecx

; 687  : {

  00000	56		 push	 esi
  00001	8b f1		 mov	 esi, ecx
  00003	57		 push	 edi

; 688  : 	if( !m_szRollingSound.IsEmpty() )

  00004	8d be 7c 01 00
	00		 lea	 edi, DWORD PTR [esi+380]
  0000a	8b cf		 mov	 ecx, edi
  0000c	ff 15 00 00 00
	00		 call	 DWORD PTR __imp_?IsEmpty@ioHashString@@QBE_NXZ
  00012	84 c0		 test	 al, al
  00014	75 11		 jne	 SHORT $LN1@iwm_hide@2

; 689  : 		g_SoundMgr.StopSound( m_szRollingSound, 0 );

  00016	6a 00		 push	 0
  00018	57		 push	 edi
  00019	ff 15 00 00 00
	00		 call	 DWORD PTR __imp_?GetSingleton@ioSoundManager@@SAAAV1@XZ
  0001f	8b c8		 mov	 ecx, eax
  00021	ff 15 00 00 00
	00		 call	 DWORD PTR __imp_?StopSound@ioSoundManager@@QAEXABVioHashString@@K@Z
$LN1@iwm_hide@2:

; 690  : 
; 691  : 	m_szMent1.Clear();

  00027	8b 3d 00 00 00
	00		 mov	 edi, DWORD PTR __imp_?Clear@ioHashString@@QAEXXZ
  0002d	8d 8e cc 01 00
	00		 lea	 ecx, DWORD PTR [esi+460]
  00033	ff d7		 call	 edi

; 692  : 	m_szMent2.Clear();

  00035	8d 8e dc 01 00
	00		 lea	 ecx, DWORD PTR [esi+476]
  0003b	ff d7		 call	 edi

; 693  : 
; 694  : 	m_iEtcItemType = 0;

  0003d	83 a6 c8 01 00
	00 00		 and	 DWORD PTR [esi+456], 0
  00044	5f		 pop	 edi

; 695  : 
; 696  : 	SendInit();

  00045	8b ce		 mov	 ecx, esi
  00047	5e		 pop	 esi
  00048	e9 00 00 00 00	 jmp	 ?SendInit@RisingGashaponWnd@@IAEXXZ ; RisingGashaponWnd::SendInit
?iwm_hide@RisingGashaponWnd@@UAEXXZ ENDP		; RisingGashaponWnd::iwm_hide
_TEXT	ENDS
PUBLIC	__real@4f800000
PUBLIC	__real@3f400000
PUBLIC	__real@3f266666
PUBLIC	??_C@_0BM@GLFKGLB@RisingGashaponWnd?3?3OnRender?$AA@ ; `string'
PUBLIC	?OnRender@RisingGashaponWnd@@MAEXXZ		; RisingGashaponWnd::OnRender
EXTRN	__imp_?SetHorzFormatting@ioUIRenderImage@@QAEXW4HorzFormatting@1@@Z:PROC
EXTRN	__imp_?GetHeight@ioUIRenderElement@@QBEHXZ:PROC
EXTRN	__imp_?GetTextWidth@ioFontManager@@QAEMPBDW4TextStyle@@MH@Z:PROC
EXTRN	__imp_?SafeSprintf@@YAXPADHPBDH@Z:PROC
EXTRN	?SetTextColor@ioComplexStringPrinter@@QAEXK@Z:PROC ; ioComplexStringPrinter::SetTextColor
EXTRN	__imp_?OnRender@ioWnd@@MAEXXZ:PROC
EXTRN	__ftol2_sse:PROC
;	COMDAT __real@4f800000
; File d:\lost saga for developer\youtube\tutorial\source\src\lsclient\stdafx.h
CONST	SEGMENT
__real@4f800000 DD 04f800000r			; 4.29497e+009
CONST	ENDS
;	COMDAT __real@3f400000
CONST	SEGMENT
__real@3f400000 DD 03f400000r			; 0.75
CONST	ENDS
;	COMDAT __real@3f266666
CONST	SEGMENT
__real@3f266666 DD 03f266666r			; 0.65
CONST	ENDS
;	COMDAT ??_C@_0BM@GLFKGLB@RisingGashaponWnd?3?3OnRender?$AA@
CONST	SEGMENT
??_C@_0BM@GLFKGLB@RisingGashaponWnd?3?3OnRender?$AA@ DB 'RisingGashaponWn'
	DB	'd::OnRender', 00H				; `string'
CONST	ENDS
;	COMDAT xdata$x
xdata$x	SEGMENT
__unwindtable$?OnRender@RisingGashaponWnd@@MAEXXZ DD 0ffffffffH
	DD	FLAT:__unwindfunclet$?OnRender@RisingGashaponWnd@@MAEXXZ$0
__ehfuncinfo$?OnRender@RisingGashaponWnd@@MAEXXZ DD 019930522H
	DD	01H
	DD	FLAT:__unwindtable$?OnRender@RisingGashaponWnd@@MAEXXZ
	DD	2 DUP(00H)
	DD	2 DUP(00H)
	DD	00H
	DD	01H
; Function compile flags: /Ogsp
; File d:\lost saga for developer\youtube\tutorial\source\src\lsclient\gui\risinggashaponwnd.cpp
xdata$x	ENDS
;	COMDAT ?OnRender@RisingGashaponWnd@@MAEXXZ
_TEXT	SEGMENT
tv155 = -336						; size = 8
$T517936 = -328						; size = 4
_kPrinter$ = -324					; size = 32
tv467 = -292						; size = 4
tv456 = -292						; size = 4
tv423 = -292						; size = 4
tv419 = -292						; size = 4
_iXPos$ = -288						; size = 4
tv453 = -284						; size = 4
$T517932 = -284						; size = 4
_iWidth$513962 = -284					; size = 4
tv551 = -280						; size = 4
tv482 = -280						; size = 4
tv356 = -280						; size = 4
$T517940 = -280						; size = 4
_szSelect$ = -276					; size = 260
__$EHRec$ = -12						; size = 12
?OnRender@RisingGashaponWnd@@MAEXXZ PROC		; RisingGashaponWnd::OnRender, COMDAT
; _this$ = ecx

; 908  : {

  00000	68 44 01 00 00	 push	 324			; 00000144H
  00005	b8 00 00 00 00	 mov	 eax, __ehhandler$?OnRender@RisingGashaponWnd@@MAEXXZ
  0000a	e8 00 00 00 00	 call	 __EH_prolog3_GS
  0000f	8b f1		 mov	 esi, ecx

; 909  : 	ioWnd::OnRender();

  00011	ff 15 00 00 00
	00		 call	 DWORD PTR __imp_?OnRender@ioWnd@@MAEXXZ

; 910  : 
; 911  : 	int iXPos = GetDerivedPosX();

  00017	8b ce		 mov	 ecx, esi
  00019	ff 15 00 00 00
	00		 call	 DWORD PTR __imp_?GetDerivedPosX@ioWnd@@QBEHXZ

; 912  : 	int iYPos = GetDerivedPosY();

  0001f	8b ce		 mov	 ecx, esi
  00021	89 85 e0 fe ff
	ff		 mov	 DWORD PTR _iXPos$[ebp], eax
  00027	ff 15 00 00 00
	00		 call	 DWORD PTR __imp_?GetDerivedPosY@ioWnd@@QBEHXZ

; 913  : 
; 914  : 	enum 
; 915  : 	{
; 916  : 		X_OFFSET_DESC = 197,
; 917  : 		Y_OFFSET_DESC = 53,
; 918  : 		LINE_GAP      = 18,
; 919  : 
; 920  : 		X_OFFSET_SELECT = 197,
; 921  : 		Y_OFFSET_SELECT = 97,
; 922  : 
; 923  : 		X_OFFSET_DESC_CARD = 198,
; 924  : 		Y_OFFSET_DESC_CARD = 128,
; 925  : 
; 926  : 		X_OFFSET_LEFT = 20,
; 927  : 		Y_OFFSET_LEFT = 134,
; 928  : 
; 929  : 		X_OFFSET_RIGHT = 371,
; 930  : 		Y_OFFSET_RIGHT = 134,
; 931  : 
; 932  : 		ALL_CARD_WIDTH = 344,
; 933  : 
; 934  : 		X_OFFSET_CENTER_LEFT = 27,
; 935  : 		Y_OFFSET_CENTER_LEFT = 134,
; 936  : 
; 937  : 		X_OFFSET_CENTER_RIGHT = 371,
; 938  : 		Y_OFFSET_CENTER_RIGHT = 134,
; 939  : 	};
; 940  : 
; 941  : 	// text
; 942  : 	ioComplexStringPrinter kPrinter;

  0002d	8d 8d bc fe ff
	ff		 lea	 ecx, DWORD PTR _kPrinter$[ebp]
  00033	8b f8		 mov	 edi, eax
  00035	e8 00 00 00 00	 call	 ??0ioComplexStringPrinter@@QAE@XZ ; ioComplexStringPrinter::ioComplexStringPrinter
  0003a	33 db		 xor	 ebx, ebx

; 943  : 	kPrinter.SetTextStyle( TS_NORMAL );

  0003c	53		 push	 ebx
  0003d	8d 8d bc fe ff
	ff		 lea	 ecx, DWORD PTR _kPrinter$[ebp]
  00043	89 5d fc	 mov	 DWORD PTR __$EHRec$[ebp+8], ebx
  00046	e8 00 00 00 00	 call	 ?SetTextStyle@ioComplexStringPrinter@@QAEXW4TextStyle@@@Z ; ioComplexStringPrinter::SetTextStyle

; 944  : 	kPrinter.SetTextColor( TCT_DEFAULT_GRAY );

  0004b	68 6e 6e 6e ff	 push	 -9539986		; ff6e6e6eH
  00050	8d 8d bc fe ff
	ff		 lea	 ecx, DWORD PTR _kPrinter$[ebp]
  00056	e8 00 00 00 00	 call	 ?SetTextColor@ioComplexStringPrinter@@QAEXK@Z ; ioComplexStringPrinter::SetTextColor

; 945  : 	kPrinter.SetBkColor( 0, 0, 0 );

  0005b	53		 push	 ebx
  0005c	53		 push	 ebx
  0005d	53		 push	 ebx
  0005e	8d 8d bc fe ff
	ff		 lea	 ecx, DWORD PTR _kPrinter$[ebp]
  00064	e8 00 00 00 00	 call	 ?SetBkColor@ioComplexStringPrinter@@QAEXHHH@Z ; ioComplexStringPrinter::SetBkColor

; 946  : 	if( m_szMent1.IsEmpty() )

  00069	8d 8e cc 01 00
	00		 lea	 ecx, DWORD PTR [esi+460]
  0006f	ff 15 00 00 00
	00		 call	 DWORD PTR __imp_?IsEmpty@ioHashString@@QBE_NXZ
  00075	84 c0		 test	 al, al
  00077	74 1d		 je	 SHORT $LN7@OnRender

; 947  : 	{
; 948  : 		kPrinter.AddTextPiece( FONT_SIZE_13, STR(1) );

  00079	53		 push	 ebx
  0007a	6a 01		 push	 1
  0007c	68 00 00 00 00	 push	 OFFSET ??_C@_00CNPNBAHC@?$AA@
  00081	68 00 00 00 00	 push	 OFFSET ??_C@_0BM@GLFKGLB@RisingGashaponWnd?3?3OnRender?$AA@
  00086	ff 15 00 00 00
	00		 call	 DWORD PTR __imp_?GetSingleton@ioStringManager@@SAAAV1@XZ
  0008c	8b c8		 mov	 ecx, eax
  0008e	ff 15 00 00 00
	00		 call	 DWORD PTR __imp_?GetString@ioStringManager@@QAEPADPBD0HW4FileNamePrefix@1@@Z

; 949  : 	}
; 950  : 	else

  00094	eb 0c		 jmp	 SHORT $LN26@OnRender
$LN7@OnRender:

; 951  : 	{
; 952  : 		kPrinter.AddTextPiece( FONT_SIZE_13, m_szMent1.c_str() );

  00096	8d 8e cc 01 00
	00		 lea	 ecx, DWORD PTR [esi+460]
  0009c	ff 15 00 00 00
	00		 call	 DWORD PTR __imp_?c_str@ioHashString@@QBEPBDXZ
$LN26@OnRender:
  000a2	f3 0f 10 05 00
	00 00 00	 movss	 xmm0, DWORD PTR __real@3f266666
  000aa	50		 push	 eax
  000ab	51		 push	 ecx
  000ac	8d 85 bc fe ff
	ff		 lea	 eax, DWORD PTR _kPrinter$[ebp]
  000b2	f3 0f 11 04 24	 movss	 DWORD PTR [esp], xmm0
  000b7	50		 push	 eax
  000b8	e8 00 00 00 00	 call	 ?AddTextPiece@ioComplexStringPrinter@@QAAXMPBDZZ ; ioComplexStringPrinter::AddTextPiece

; 953  : 	}
; 954  : 
; 955  : 	kPrinter.PrintFullText( iXPos + X_OFFSET_DESC, iYPos + Y_OFFSET_DESC, TAT_CENTER );

  000bd	8b 85 e0 fe ff
	ff		 mov	 eax, DWORD PTR _iXPos$[ebp]
  000c3	83 c4 0c	 add	 esp, 12			; 0000000cH
  000c6	68 ff 00 00 00	 push	 255			; 000000ffH
  000cb	05 c5 00 00 00	 add	 eax, 197		; 000000c5H
  000d0	6a 01		 push	 1
  000d2	0f 57 c0	 xorps	 xmm0, xmm0
  000d5	f3 0f 2a c0	 cvtsi2ss xmm0, eax
  000d9	51		 push	 ecx
  000da	51		 push	 ecx
  000db	8d 47 35	 lea	 eax, DWORD PTR [edi+53]
  000de	0f 57 c9	 xorps	 xmm1, xmm1
  000e1	f3 0f 2a c8	 cvtsi2ss xmm1, eax
  000e5	f3 0f 11 4c 24
	04		 movss	 DWORD PTR [esp+4], xmm1
  000eb	8d 8d bc fe ff
	ff		 lea	 ecx, DWORD PTR _kPrinter$[ebp]
  000f1	f3 0f 11 85 e4
	fe ff ff	 movss	 DWORD PTR tv453[ebp], xmm0
  000f9	f3 0f 11 04 24	 movss	 DWORD PTR [esp], xmm0
  000fe	e8 00 00 00 00	 call	 ?PrintFullText@ioComplexStringPrinter@@QAEXMMW4TextAlignType@@E@Z ; ioComplexStringPrinter::PrintFullText

; 956  : 	kPrinter.ClearList();

  00103	8d 8d bc fe ff
	ff		 lea	 ecx, DWORD PTR _kPrinter$[ebp]
  00109	e8 00 00 00 00	 call	 ?ClearList@ioComplexStringPrinter@@QAEXXZ ; ioComplexStringPrinter::ClearList

; 957  : 
; 958  : 	if( m_szMent2.IsEmpty() )

  0010e	8d 8e dc 01 00
	00		 lea	 ecx, DWORD PTR [esi+476]
  00114	ff 15 00 00 00
	00		 call	 DWORD PTR __imp_?IsEmpty@ioHashString@@QBE_NXZ

; 959  : 	{
; 960  : 		kPrinter.SetTextColor( TCT_DEFAULT_GRAY );

  0011a	68 6e 6e 6e ff	 push	 -9539986		; ff6e6e6eH
  0011f	8d 8d bc fe ff
	ff		 lea	 ecx, DWORD PTR _kPrinter$[ebp]
  00125	84 c0		 test	 al, al
  00127	74 22		 je	 SHORT $LN5@OnRender
  00129	e8 00 00 00 00	 call	 ?SetTextColor@ioComplexStringPrinter@@QAEXK@Z ; ioComplexStringPrinter::SetTextColor

; 961  : 		kPrinter.AddTextPiece( FONT_SIZE_13, STR(2));

  0012e	53		 push	 ebx
  0012f	6a 02		 push	 2
  00131	68 00 00 00 00	 push	 OFFSET ??_C@_00CNPNBAHC@?$AA@
  00136	68 00 00 00 00	 push	 OFFSET ??_C@_0BM@GLFKGLB@RisingGashaponWnd?3?3OnRender?$AA@
  0013b	ff 15 00 00 00
	00		 call	 DWORD PTR __imp_?GetSingleton@ioStringManager@@SAAAV1@XZ
  00141	8b c8		 mov	 ecx, eax
  00143	ff 15 00 00 00
	00		 call	 DWORD PTR __imp_?GetString@ioStringManager@@QAEPADPBD0HW4FileNamePrefix@1@@Z

; 962  : 	}
; 963  : 	else

  00149	eb 11		 jmp	 SHORT $LN27@OnRender
$LN5@OnRender:

; 964  : 	{
; 965  : 		kPrinter.SetTextColor( TCT_DEFAULT_GRAY );

  0014b	e8 00 00 00 00	 call	 ?SetTextColor@ioComplexStringPrinter@@QAEXK@Z ; ioComplexStringPrinter::SetTextColor

; 966  : 		kPrinter.AddTextPiece( FONT_SIZE_13, m_szMent2.c_str() );

  00150	8d 8e dc 01 00
	00		 lea	 ecx, DWORD PTR [esi+476]
  00156	ff 15 00 00 00
	00		 call	 DWORD PTR __imp_?c_str@ioHashString@@QBEPBDXZ
$LN27@OnRender:
  0015c	f3 0f 10 05 00
	00 00 00	 movss	 xmm0, DWORD PTR __real@3f266666
  00164	50		 push	 eax
  00165	51		 push	 ecx
  00166	8d 85 bc fe ff
	ff		 lea	 eax, DWORD PTR _kPrinter$[ebp]
  0016c	f3 0f 11 04 24	 movss	 DWORD PTR [esp], xmm0
  00171	50		 push	 eax
  00172	e8 00 00 00 00	 call	 ?AddTextPiece@ioComplexStringPrinter@@QAAXMPBDZZ ; ioComplexStringPrinter::AddTextPiece
  00177	83 c4 0c	 add	 esp, 12			; 0000000cH

; 967  : 	}
; 968  : 
; 969  : 	kPrinter.PrintFullText( iXPos + X_OFFSET_DESC, iYPos + Y_OFFSET_DESC + LINE_GAP, TAT_CENTER );

  0017a	68 ff 00 00 00	 push	 255			; 000000ffH
  0017f	6a 01		 push	 1
  00181	51		 push	 ecx
  00182	51		 push	 ecx
  00183	8d 47 47	 lea	 eax, DWORD PTR [edi+71]
  00186	0f 57 c0	 xorps	 xmm0, xmm0
  00189	f3 0f 2a c0	 cvtsi2ss xmm0, eax
  0018d	f3 0f 11 44 24
	04		 movss	 DWORD PTR [esp+4], xmm0
  00193	f3 0f 10 85 e4
	fe ff ff	 movss	 xmm0, DWORD PTR tv453[ebp]
  0019b	8d 8d bc fe ff
	ff		 lea	 ecx, DWORD PTR _kPrinter$[ebp]
  001a1	f3 0f 11 04 24	 movss	 DWORD PTR [esp], xmm0
  001a6	e8 00 00 00 00	 call	 ?PrintFullText@ioComplexStringPrinter@@QAEXMMW4TextAlignType@@E@Z ; ioComplexStringPrinter::PrintFullText

; 970  : 	kPrinter.ClearList();

  001ab	8d 8d bc fe ff
	ff		 lea	 ecx, DWORD PTR _kPrinter$[ebp]
  001b1	e8 00 00 00 00	 call	 ?ClearList@ioComplexStringPrinter@@QAEXXZ ; ioComplexStringPrinter::ClearList

; 971  : 	
; 972  : 
; 973  : 	char szSelect[MAX_PATH]="";

  001b6	68 03 01 00 00	 push	 259			; 00000103H
  001bb	8d 85 ed fe ff
	ff		 lea	 eax, DWORD PTR _szSelect$[ebp+1]
  001c1	53		 push	 ebx
  001c2	50		 push	 eax
  001c3	88 9d ec fe ff
	ff		 mov	 BYTE PTR _szSelect$[ebp], bl
  001c9	e8 00 00 00 00	 call	 _memset

; 974  : 	SafeSprintf( szSelect, sizeof( szSelect ), STR(3), (int)m_vUnGettedIndexList.size() );

  001ce	8b 86 0c 02 00
	00		 mov	 eax, DWORD PTR [esi+524]
  001d4	2b 86 08 02 00
	00		 sub	 eax, DWORD PTR [esi+520]
  001da	83 c4 0c	 add	 esp, 12			; 0000000cH
  001dd	c1 f8 02	 sar	 eax, 2
  001e0	50		 push	 eax
  001e1	53		 push	 ebx
  001e2	6a 03		 push	 3
  001e4	68 00 00 00 00	 push	 OFFSET ??_C@_00CNPNBAHC@?$AA@
  001e9	68 00 00 00 00	 push	 OFFSET ??_C@_0BM@GLFKGLB@RisingGashaponWnd?3?3OnRender?$AA@
  001ee	ff 15 00 00 00
	00		 call	 DWORD PTR __imp_?GetSingleton@ioStringManager@@SAAAV1@XZ
  001f4	8b c8		 mov	 ecx, eax
  001f6	ff 15 00 00 00
	00		 call	 DWORD PTR __imp_?GetString@ioStringManager@@QAEPADPBD0HW4FileNamePrefix@1@@Z
  001fc	50		 push	 eax
  001fd	8d 85 ec fe ff
	ff		 lea	 eax, DWORD PTR _szSelect$[ebp]
  00203	68 04 01 00 00	 push	 260			; 00000104H
  00208	50		 push	 eax
  00209	ff 15 00 00 00
	00		 call	 DWORD PTR __imp_?SafeSprintf@@YAXPADHPBDH@Z
  0020f	83 c4 10	 add	 esp, 16			; 00000010H

; 975  : 
; 976  : 	kPrinter.SetTextColor( TCT_DEFAULT_RED );

  00212	68 00 16 b9 ff	 push	 -4647424		; ffb91600H
  00217	8d 8d bc fe ff
	ff		 lea	 ecx, DWORD PTR _kPrinter$[ebp]
  0021d	e8 00 00 00 00	 call	 ?SetTextColor@ioComplexStringPrinter@@QAEXK@Z ; ioComplexStringPrinter::SetTextColor

; 977  : 	kPrinter.AddTextPiece( FONT_SIZE_15, szSelect );

  00222	f3 0f 10 05 00
	00 00 00	 movss	 xmm0, DWORD PTR __real@3f400000
  0022a	8d 85 ec fe ff
	ff		 lea	 eax, DWORD PTR _szSelect$[ebp]
  00230	50		 push	 eax
  00231	51		 push	 ecx
  00232	8d 85 bc fe ff
	ff		 lea	 eax, DWORD PTR _kPrinter$[ebp]
  00238	f3 0f 11 04 24	 movss	 DWORD PTR [esp], xmm0
  0023d	50		 push	 eax
  0023e	e8 00 00 00 00	 call	 ?AddTextPiece@ioComplexStringPrinter@@QAAXMPBDZZ ; ioComplexStringPrinter::AddTextPiece
  00243	83 c4 0c	 add	 esp, 12			; 0000000cH

; 978  : 	kPrinter.PrintFullText( iXPos + X_OFFSET_SELECT, iYPos + Y_OFFSET_SELECT, TAT_CENTER );

  00246	68 ff 00 00 00	 push	 255			; 000000ffH
  0024b	6a 01		 push	 1
  0024d	51		 push	 ecx
  0024e	51		 push	 ecx
  0024f	8d 47 61	 lea	 eax, DWORD PTR [edi+97]
  00252	0f 57 c0	 xorps	 xmm0, xmm0
  00255	f3 0f 2a c0	 cvtsi2ss xmm0, eax
  00259	f3 0f 11 44 24
	04		 movss	 DWORD PTR [esp+4], xmm0
  0025f	f3 0f 10 85 e4
	fe ff ff	 movss	 xmm0, DWORD PTR tv453[ebp]
  00267	8d 8d bc fe ff
	ff		 lea	 ecx, DWORD PTR _kPrinter$[ebp]
  0026d	f3 0f 11 04 24	 movss	 DWORD PTR [esp], xmm0
  00272	e8 00 00 00 00	 call	 ?PrintFullText@ioComplexStringPrinter@@QAEXMMW4TextAlignType@@E@Z ; ioComplexStringPrinter::PrintFullText

; 979  : 	kPrinter.ClearList();

  00277	8d 8d bc fe ff
	ff		 lea	 ecx, DWORD PTR _kPrinter$[ebp]
  0027d	e8 00 00 00 00	 call	 ?ClearList@ioComplexStringPrinter@@QAEXXZ ; ioComplexStringPrinter::ClearList

; 980  : 
; 981  : 	kPrinter.SetTextColor( TCT_DEFAULT_LIGHTGRAY );	

  00282	68 a7 a7 a7 ff	 push	 -5789785		; ffa7a7a7H
  00287	8d 8d bc fe ff
	ff		 lea	 ecx, DWORD PTR _kPrinter$[ebp]
  0028d	e8 00 00 00 00	 call	 ?SetTextColor@ioComplexStringPrinter@@QAEXK@Z ; ioComplexStringPrinter::SetTextColor

; 982  : 	kPrinter.AddTextPiece( FONT_SIZE_12, m_sDescCard.c_str() );

  00292	8d 8e 60 01 00
	00		 lea	 ecx, DWORD PTR [esi+352]
  00298	ff 15 00 00 00
	00		 call	 DWORD PTR __imp_?c_str@ioHashString@@QBEPBDXZ
  0029e	f3 0f 10 05 00
	00 00 00	 movss	 xmm0, DWORD PTR __real@3f19999a
  002a6	50		 push	 eax
  002a7	51		 push	 ecx
  002a8	f3 0f 11 04 24	 movss	 DWORD PTR [esp], xmm0
  002ad	8d 85 bc fe ff
	ff		 lea	 eax, DWORD PTR _kPrinter$[ebp]
  002b3	50		 push	 eax
  002b4	e8 00 00 00 00	 call	 ?AddTextPiece@ioComplexStringPrinter@@QAAXMPBDZZ ; ioComplexStringPrinter::AddTextPiece
  002b9	83 c4 0c	 add	 esp, 12			; 0000000cH

; 983  : 	kPrinter.PrintFullText( iXPos + X_OFFSET_DESC_CARD, iYPos + Y_OFFSET_DESC_CARD, TAT_CENTER );

  002bc	68 ff 00 00 00	 push	 255			; 000000ffH
  002c1	6a 01		 push	 1
  002c3	0f 57 c0	 xorps	 xmm0, xmm0
  002c6	8d 87 80 00 00
	00		 lea	 eax, DWORD PTR [edi+128]
  002cc	f3 0f 2a c0	 cvtsi2ss xmm0, eax
  002d0	8b 85 e0 fe ff
	ff		 mov	 eax, DWORD PTR _iXPos$[ebp]
  002d6	51		 push	 ecx
  002d7	51		 push	 ecx
  002d8	f3 0f 11 44 24
	04		 movss	 DWORD PTR [esp+4], xmm0
  002de	05 c6 00 00 00	 add	 eax, 198		; 000000c6H
  002e3	0f 57 c0	 xorps	 xmm0, xmm0
  002e6	f3 0f 2a c0	 cvtsi2ss xmm0, eax
  002ea	8d 8d bc fe ff
	ff		 lea	 ecx, DWORD PTR _kPrinter$[ebp]
  002f0	f3 0f 11 04 24	 movss	 DWORD PTR [esp], xmm0
  002f5	e8 00 00 00 00	 call	 ?PrintFullText@ioComplexStringPrinter@@QAEXMMW4TextAlignType@@E@Z ; ioComplexStringPrinter::PrintFullText

; 984  : 	kPrinter.ClearList();

  002fa	8d 8d bc fe ff
	ff		 lea	 ecx, DWORD PTR _kPrinter$[ebp]
  00300	e8 00 00 00 00	 call	 ?ClearList@ioComplexStringPrinter@@QAEXXZ ; ioComplexStringPrinter::ClearList

; 985  : 
; 986  : 	// 테두리
; 987  : 	if( m_pLineLeft )

  00305	39 9e 70 01 00
	00		 cmp	 DWORD PTR [esi+368], ebx
  0030b	74 3a		 je	 SHORT $LN3@OnRender

; 988  : 		m_pLineLeft->Render( iXPos + X_OFFSET_LEFT, iYPos + Y_OFFSET_LEFT );

  0030d	8b 86 70 01 00
	00		 mov	 eax, DWORD PTR [esi+368]
  00313	8b 10		 mov	 edx, DWORD PTR [eax]
  00315	53		 push	 ebx
  00316	53		 push	 ebx
  00317	53		 push	 ebx
  00318	8d 8f 86 00 00
	00		 lea	 ecx, DWORD PTR [edi+134]
  0031e	53		 push	 ebx
  0031f	51		 push	 ecx
  00320	51		 push	 ecx
  00321	0f 57 c0	 xorps	 xmm0, xmm0
  00324	f3 0f 2a c1	 cvtsi2ss xmm0, ecx
  00328	8b 8d e0 fe ff
	ff		 mov	 ecx, DWORD PTR _iXPos$[ebp]
  0032e	f3 0f 11 44 24
	04		 movss	 DWORD PTR [esp+4], xmm0
  00334	83 c1 14	 add	 ecx, 20			; 00000014H
  00337	0f 57 c0	 xorps	 xmm0, xmm0
  0033a	f3 0f 2a c1	 cvtsi2ss xmm0, ecx
  0033e	8b c8		 mov	 ecx, eax
  00340	f3 0f 11 04 24	 movss	 DWORD PTR [esp], xmm0
  00345	ff 12		 call	 DWORD PTR [edx]
$LN3@OnRender:

; 989  : 
; 990  : 	if( m_pLineCenter )

  00347	39 9e 74 01 00
	00		 cmp	 DWORD PTR [esi+372], ebx
  0034d	0f 84 92 01 00
	00		 je	 $LN2@OnRender

; 991  : 	{
; 992  : 		// 자동 계산
; 993  : 		
; 994  : 		// left center // /2 를 * FLOAT05로 변경
; 995  : 		// ALL_CARD_WIDTH 를 FLOAT344 로 변경
; 996  : 		int iWidth = ( FLOAT344 - ( g_FontMgr.GetTextWidth( m_sDescCard.c_str(), TS_NORMAL, FONT_SIZE_12 ) + FLOAT10 ) ) * FLOAT05;

  00353	b8 58 01 00 00	 mov	 eax, 344		; 00000158H
  00358	8b c8		 mov	 ecx, eax
  0035a	b8 0a 00 00 00	 mov	 eax, 10			; 0000000aH
  0035f	89 85 e4 fe ff
	ff		 mov	 DWORD PTR $T517932[ebp], eax
  00365	b8 05 00 00 00	 mov	 eax, 5
  0036a	89 85 b8 fe ff
	ff		 mov	 DWORD PTR $T517936[ebp], eax
  00370	b8 0a 00 00 00	 mov	 eax, 10			; 0000000aH
  00375	89 8d dc fe ff
	ff		 mov	 DWORD PTR tv467[ebp], ecx
  0037b	db 85 dc fe ff
	ff		 fild	 DWORD PTR tv467[ebp]
  00381	89 85 e8 fe ff
	ff		 mov	 DWORD PTR $T517940[ebp], eax
  00387	85 c9		 test	 ecx, ecx
  00389	79 06		 jns	 SHORT $LN22@OnRender
  0038b	d8 05 00 00 00
	00		 fadd	 DWORD PTR __real@4f800000
$LN22@OnRender:
  00391	f3 0f 10 05 00
	00 00 00	 movss	 xmm0, DWORD PTR __real@3f19999a
  00399	dd 9d b0 fe ff
	ff		 fstp	 QWORD PTR tv155[ebp]
  0039f	53		 push	 ebx
  003a0	51		 push	 ecx
  003a1	f3 0f 11 04 24	 movss	 DWORD PTR [esp], xmm0
  003a6	53		 push	 ebx
  003a7	8d 8e 60 01 00
	00		 lea	 ecx, DWORD PTR [esi+352]
  003ad	ff 15 00 00 00
	00		 call	 DWORD PTR __imp_?c_str@ioHashString@@QBEPBDXZ
  003b3	50		 push	 eax
  003b4	ff 15 00 00 00
	00		 call	 DWORD PTR __imp_?GetSingleton@ioFontManager@@SAAAV1@XZ
  003ba	8b c8		 mov	 ecx, eax
  003bc	ff 15 00 00 00
	00		 call	 DWORD PTR __imp_?GetTextWidth@ioFontManager@@QAEMPBDW4TextStyle@@MH@Z
  003c2	db 85 e4 fe ff
	ff		 fild	 DWORD PTR $T517932[ebp]
  003c8	8b 85 e4 fe ff
	ff		 mov	 eax, DWORD PTR $T517932[ebp]
  003ce	85 c0		 test	 eax, eax
  003d0	79 06		 jns	 SHORT $LN23@OnRender
  003d2	d8 05 00 00 00
	00		 fadd	 DWORD PTR __real@4f800000
$LN23@OnRender:
  003d8	8b 85 b8 fe ff
	ff		 mov	 eax, DWORD PTR $T517936[ebp]
  003de	de c1		 faddp	 ST(1), ST(0)
  003e0	dc ad b0 fe ff
	ff		 fsubr	 QWORD PTR tv155[ebp]
  003e6	db 85 b8 fe ff
	ff		 fild	 DWORD PTR $T517936[ebp]
  003ec	85 c0		 test	 eax, eax
  003ee	79 06		 jns	 SHORT $LN24@OnRender
  003f0	d8 05 00 00 00
	00		 fadd	 DWORD PTR __real@4f800000
$LN24@OnRender:
  003f6	8b 85 e8 fe ff
	ff		 mov	 eax, DWORD PTR $T517940[ebp]
  003fc	db 85 e8 fe ff
	ff		 fild	 DWORD PTR $T517940[ebp]
  00402	85 c0		 test	 eax, eax
  00404	79 06		 jns	 SHORT $LN25@OnRender
  00406	d8 05 00 00 00
	00		 fadd	 DWORD PTR __real@4f800000
$LN25@OnRender:
  0040c	de f9		 fdivp	 ST(1), ST(0)
  0040e	d9 9d e8 fe ff
	ff		 fstp	 DWORD PTR tv356[ebp]
  00414	d8 8d e8 fe ff
	ff		 fmul	 DWORD PTR tv356[ebp]
  0041a	e8 00 00 00 00	 call	 __ftol2_sse

; 997  : 		m_pLineCenter->SetSize( iWidth, m_pLineCenter->GetHeight() );

  0041f	8b 8e 74 01 00
	00		 mov	 ecx, DWORD PTR [esi+372]
  00425	89 85 e4 fe ff
	ff		 mov	 DWORD PTR _iWidth$513962[ebp], eax
  0042b	8b 86 74 01 00
	00		 mov	 eax, DWORD PTR [esi+372]
  00431	8b 00		 mov	 eax, DWORD PTR [eax]
  00433	89 85 e8 fe ff
	ff		 mov	 DWORD PTR tv551[ebp], eax
  00439	ff 15 00 00 00
	00		 call	 DWORD PTR __imp_?GetHeight@ioUIRenderElement@@QBEHXZ
  0043f	8b 8e 74 01 00
	00		 mov	 ecx, DWORD PTR [esi+372]
  00445	50		 push	 eax
  00446	ff b5 e4 fe ff
	ff		 push	 DWORD PTR _iWidth$513962[ebp]
  0044c	8b 85 e8 fe ff
	ff		 mov	 eax, DWORD PTR tv551[ebp]
  00452	ff 50 10	 call	 DWORD PTR [eax+16]

; 998  : 		m_pLineCenter->SetHorzFormatting( ioUIRenderImage::HF_STRETCH );

  00455	8b 8e 74 01 00
	00		 mov	 ecx, DWORD PTR [esi+372]
  0045b	6a 03		 push	 3
  0045d	ff 15 00 00 00
	00		 call	 DWORD PTR __imp_?SetHorzFormatting@ioUIRenderImage@@QAEXW4HorzFormatting@1@@Z

; 999  : 		m_pLineCenter->Render( iXPos + X_OFFSET_CENTER_LEFT, iYPos + Y_OFFSET_CENTER_LEFT );

  00463	8b 8e 74 01 00
	00		 mov	 ecx, DWORD PTR [esi+372]
  00469	8b 95 e0 fe ff
	ff		 mov	 edx, DWORD PTR _iXPos$[ebp]
  0046f	53		 push	 ebx
  00470	53		 push	 ebx
  00471	53		 push	 ebx
  00472	53		 push	 ebx
  00473	0f 57 c0	 xorps	 xmm0, xmm0
  00476	51		 push	 ecx
  00477	8d 87 86 00 00
	00		 lea	 eax, DWORD PTR [edi+134]
  0047d	f3 0f 2a c0	 cvtsi2ss xmm0, eax
  00481	8b 01		 mov	 eax, DWORD PTR [ecx]
  00483	51		 push	 ecx
  00484	f3 0f 11 44 24
	04		 movss	 DWORD PTR [esp+4], xmm0
  0048a	f3 0f 11 85 e8
	fe ff ff	 movss	 DWORD PTR tv482[ebp], xmm0
  00492	83 c2 1b	 add	 edx, 27			; 0000001bH
  00495	0f 57 c0	 xorps	 xmm0, xmm0
  00498	f3 0f 2a c2	 cvtsi2ss xmm0, edx
  0049c	f3 0f 11 04 24	 movss	 DWORD PTR [esp], xmm0
  004a1	ff 10		 call	 DWORD PTR [eax]

; 1000 : 
; 1001 : 		// right center
; 1002 : 		m_pLineCenter->Render( iXPos + X_OFFSET_CENTER_RIGHT - iWidth, iYPos + Y_OFFSET_CENTER_RIGHT );

  004a3	f3 0f 10 85 e8
	fe ff ff	 movss	 xmm0, DWORD PTR tv482[ebp]
  004ab	8b 86 74 01 00
	00		 mov	 eax, DWORD PTR [esi+372]
  004b1	8b 00		 mov	 eax, DWORD PTR [eax]
  004b3	53		 push	 ebx
  004b4	53		 push	 ebx
  004b5	53		 push	 ebx
  004b6	53		 push	 ebx
  004b7	51		 push	 ecx
  004b8	51		 push	 ecx
  004b9	8b 8d e0 fe ff
	ff		 mov	 ecx, DWORD PTR _iXPos$[ebp]
  004bf	2b 8d e4 fe ff
	ff		 sub	 ecx, DWORD PTR _iWidth$513962[ebp]
  004c5	f3 0f 11 44 24
	04		 movss	 DWORD PTR [esp+4], xmm0
  004cb	81 c1 73 01 00
	00		 add	 ecx, 371		; 00000173H
  004d1	0f 57 c0	 xorps	 xmm0, xmm0
  004d4	f3 0f 2a c1	 cvtsi2ss xmm0, ecx
  004d8	8b 8e 74 01 00
	00		 mov	 ecx, DWORD PTR [esi+372]
  004de	f3 0f 11 04 24	 movss	 DWORD PTR [esp], xmm0
  004e3	ff 10		 call	 DWORD PTR [eax]
$LN2@OnRender:

; 1003 : 	}
; 1004 : 
; 1005 : 	if( m_pLineRight )

  004e5	39 9e 78 01 00
	00		 cmp	 DWORD PTR [esi+376], ebx
  004eb	74 3b		 je	 SHORT $LN1@OnRender

; 1006 : 		m_pLineRight->Render( iXPos + X_OFFSET_RIGHT, iYPos + Y_OFFSET_RIGHT );

  004ed	8b 8e 78 01 00
	00		 mov	 ecx, DWORD PTR [esi+376]
  004f3	8b 95 e0 fe ff
	ff		 mov	 edx, DWORD PTR _iXPos$[ebp]
  004f9	8b 01		 mov	 eax, DWORD PTR [ecx]
  004fb	53		 push	 ebx
  004fc	53		 push	 ebx
  004fd	53		 push	 ebx
  004fe	53		 push	 ebx
  004ff	0f 57 c0	 xorps	 xmm0, xmm0
  00502	51		 push	 ecx
  00503	81 c7 86 00 00
	00		 add	 edi, 134		; 00000086H
  00509	f3 0f 2a c7	 cvtsi2ss xmm0, edi
  0050d	51		 push	 ecx
  0050e	f3 0f 11 44 24
	04		 movss	 DWORD PTR [esp+4], xmm0
  00514	81 c2 73 01 00
	00		 add	 edx, 371		; 00000173H
  0051a	0f 57 c0	 xorps	 xmm0, xmm0
  0051d	f3 0f 2a c2	 cvtsi2ss xmm0, edx
  00521	f3 0f 11 04 24	 movss	 DWORD PTR [esp], xmm0
  00526	ff 10		 call	 DWORD PTR [eax]
$LN1@OnRender:

; 1007 : }

  00528	83 4d fc ff	 or	 DWORD PTR __$EHRec$[ebp+8], -1
  0052c	8d 8d bc fe ff
	ff		 lea	 ecx, DWORD PTR _kPrinter$[ebp]
  00532	e8 00 00 00 00	 call	 ??1ioComplexStringPrinter@@QAE@XZ ; ioComplexStringPrinter::~ioComplexStringPrinter
  00537	e8 00 00 00 00	 call	 __EH_epilog3_GS
  0053c	c3		 ret	 0
_TEXT	ENDS
;	COMDAT text$x
text$x	SEGMENT
__unwindfunclet$?OnRender@RisingGashaponWnd@@MAEXXZ$0:
  00000	8d 8d bc fe ff
	ff		 lea	 ecx, DWORD PTR _kPrinter$[ebp]
  00006	e9 00 00 00 00	 jmp	 ??1ioComplexStringPrinter@@QAE@XZ ; ioComplexStringPrinter::~ioComplexStringPrinter
__ehhandler$?OnRender@RisingGashaponWnd@@MAEXXZ:
  0000b	8b 54 24 08	 mov	 edx, DWORD PTR [esp+8]
  0000f	8d 42 0c	 lea	 eax, DWORD PTR [edx+12]
  00012	8b 8a ac fe ff
	ff		 mov	 ecx, DWORD PTR [edx-340]
  00018	33 c8		 xor	 ecx, eax
  0001a	e8 00 00 00 00	 call	 @__security_check_cookie@4
  0001f	8b 4a fc	 mov	 ecx, DWORD PTR [edx-4]
  00022	33 c8		 xor	 ecx, eax
  00024	e8 00 00 00 00	 call	 @__security_check_cookie@4
  00029	b8 00 00 00 00	 mov	 eax, OFFSET __ehfuncinfo$?OnRender@RisingGashaponWnd@@MAEXXZ
  0002e	e9 00 00 00 00	 jmp	 ___CxxFrameHandler3
text$x	ENDS
?OnRender@RisingGashaponWnd@@MAEXXZ ENDP		; RisingGashaponWnd::OnRender
PUBLIC	??_C@_0CC@ODACPNHE@RisingGashaponWnd?3?3SetTitleBuyBt@ ; `string'
PUBLIC	_this$GSCopy$
PUBLIC	__$ArrayPad$
PUBLIC	?SetTitleBuyBtn@RisingGashaponWnd@@IAEXH@Z	; RisingGashaponWnd::SetTitleBuyBtn
EXTRN	__imp_?SetTitleText@ioWnd@@QAEXPBD0H@Z:PROC
EXTRN	__imp_?FindChildWnd@ioWnd@@QAEPAV1@K@Z:PROC
EXTRN	__imp_?SafeSprintf@@YAXPADHPBD1@Z:PROC
EXTRN	?GetPeso@ioEtcItem@@QBEHH@Z:PROC		; ioEtcItem::GetPeso
EXTRN	?GetCash@ioEtcItem@@QBEHH@Z:PROC		; ioEtcItem::GetCash
EXTRN	?FindEtcItem@ioEtcItemManager@@QAEPAVioEtcItem@@K@Z:PROC ; ioEtcItemManager::FindEtcItem
;	COMDAT ??_C@_0CC@ODACPNHE@RisingGashaponWnd?3?3SetTitleBuyBt@
; File d:\lost saga for developer\youtube\tutorial\source\src\lsclient\ioetcitem.h
CONST	SEGMENT
??_C@_0CC@ODACPNHE@RisingGashaponWnd?3?3SetTitleBuyBt@ DB 'RisingGashapon'
	DB	'Wnd::SetTitleBuyBtn', 00H			; `string'
; Function compile flags: /Ogsp
; File d:\lost saga for developer\youtube\tutorial\source\src\lsclient\gui\risinggashaponwnd.cpp
CONST	ENDS
;	COMDAT ?SetTitleBuyBtn@RisingGashaponWnd@@IAEXH@Z
_TEXT	SEGMENT
_this$GSCopy$ = -536					; size = 4
_iPayAmt$ = -532					; size = 4
_strBuy$513987 = -528					; size = 4
_strBuy$513982 = -528					; size = 4
_pRising$ = -528					; size = 4
_szTitle$ = -524					; size = 260
_szPrice$ = -264					; size = 260
__$ArrayPad$ = -4					; size = 4
_iCashArray$ = 8					; size = 4
?SetTitleBuyBtn@RisingGashaponWnd@@IAEXH@Z PROC		; RisingGashaponWnd::SetTitleBuyBtn, COMDAT
; _this$ = ecx

; 1011 : {

  00000	55		 push	 ebp
  00001	8b ec		 mov	 ebp, esp
  00003	81 ec 18 02 00
	00		 sub	 esp, 536		; 00000218H
  00009	a1 00 00 00 00	 mov	 eax, DWORD PTR ___security_cookie
  0000e	33 c5		 xor	 eax, ebp
  00010	89 45 fc	 mov	 DWORD PTR __$ArrayPad$[ebp], eax
  00013	53		 push	 ebx
  00014	56		 push	 esi
  00015	8b f1		 mov	 esi, ecx

; 1012 : 	int iPayAmt = 0;
; 1013 : 
; 1014 : 	ioRisingGashapon * pRising = static_cast<ioRisingGashapon *>(g_EtcItemMgr.FindEtcItem( m_iEtcItemType ));

  00017	8b 0d 00 00 00
	00		 mov	 ecx, DWORD PTR ?ms_Singleton@?$Singleton@VioEtcItemManager@@@@1PAVioEtcItemManager@@A ; Singleton<ioEtcItemManager>::ms_Singleton
  0001d	57		 push	 edi
  0001e	ff b6 c8 01 00
	00		 push	 DWORD PTR [esi+456]
  00024	33 db		 xor	 ebx, ebx
  00026	89 b5 e8 fd ff
	ff		 mov	 DWORD PTR _this$GSCopy$[ebp], esi
  0002c	89 9d ec fd ff
	ff		 mov	 DWORD PTR _iPayAmt$[ebp], ebx
  00032	e8 00 00 00 00	 call	 ?FindEtcItem@ioEtcItemManager@@QAEPAVioEtcItem@@K@Z ; ioEtcItemManager::FindEtcItem
  00037	8b c8		 mov	 ecx, eax
  00039	89 8d f0 fd ff
	ff		 mov	 DWORD PTR _pRising$[ebp], ecx

; 1015 : 	if( pRising )

  0003f	3b cb		 cmp	 ecx, ebx
  00041	74 1d		 je	 SHORT $LN8@SetTitleBu

; 1016 : 	{
; 1017 : 		if(m_bBuyCash)
; 1018 : 		{
; 1019 : 			iPayAmt = pRising->GetCash( iCashArray );

  00043	ff 75 08	 push	 DWORD PTR _iCashArray$[ebp]
  00046	39 9e ec 01 00
	00		 cmp	 DWORD PTR [esi+492], ebx
  0004c	74 07		 je	 SHORT $LN9@SetTitleBu
  0004e	e8 00 00 00 00	 call	 ?GetCash@ioEtcItem@@QBEHH@Z ; ioEtcItem::GetCash

; 1020 : 		}
; 1021 : 		else

  00053	eb 05		 jmp	 SHORT $LN19@SetTitleBu
$LN9@SetTitleBu:

; 1022 : 		{
; 1023 : 			iPayAmt = pRising->GetPeso( iCashArray );

  00055	e8 00 00 00 00	 call	 ?GetPeso@ioEtcItem@@QBEHH@Z ; ioEtcItem::GetPeso
$LN19@SetTitleBu:
  0005a	89 85 ec fd ff
	ff		 mov	 DWORD PTR _iPayAmt$[ebp], eax
$LN8@SetTitleBu:

; 1024 : 		}
; 1025 : 	}
; 1026 : 
; 1027 : 	char szPrice[MAX_PATH]="";

  00060	bf 03 01 00 00	 mov	 edi, 259		; 00000103H
  00065	57		 push	 edi
  00066	8d 85 f9 fe ff
	ff		 lea	 eax, DWORD PTR _szPrice$[ebp+1]
  0006c	53		 push	 ebx
  0006d	50		 push	 eax
  0006e	88 9d f8 fe ff
	ff		 mov	 BYTE PTR _szPrice$[ebp], bl
  00074	e8 00 00 00 00	 call	 _memset

; 1028 : 	Help::ConvertNumToStrComma( iPayAmt, szPrice, sizeof( szPrice ) );

  00079	8d 77 01	 lea	 esi, DWORD PTR [edi+1]
  0007c	56		 push	 esi
  0007d	8d 85 f8 fe ff
	ff		 lea	 eax, DWORD PTR _szPrice$[ebp]
  00083	50		 push	 eax
  00084	ff b5 ec fd ff
	ff		 push	 DWORD PTR _iPayAmt$[ebp]
  0008a	e8 00 00 00 00	 call	 ?ConvertNumToStrComma@Help@@YAXHPADH@Z ; Help::ConvertNumToStrComma

; 1029 : 
; 1030 : 	char szTitle[MAX_PATH]="";

  0008f	57		 push	 edi
  00090	8d 85 f5 fd ff
	ff		 lea	 eax, DWORD PTR _szTitle$[ebp+1]
  00096	53		 push	 ebx
  00097	50		 push	 eax
  00098	88 9d f4 fd ff
	ff		 mov	 BYTE PTR _szTitle$[ebp], bl
  0009e	e8 00 00 00 00	 call	 _memset

; 1031 : 	if(m_bBuyCash)

  000a3	8b 85 e8 fd ff
	ff		 mov	 eax, DWORD PTR _this$GSCopy$[ebp]

; 1032 : 	{
; 1033 : 		const ioHashString & strBuy = pRising->GetBuyCashText();

  000a9	8b 8d f0 fd ff
	ff		 mov	 ecx, DWORD PTR _pRising$[ebp]
  000af	83 c4 24	 add	 esp, 36			; 00000024H
  000b2	bf 00 00 00 00	 mov	 edi, OFFSET ??_C@_00CNPNBAHC@?$AA@
  000b7	39 98 ec 01 00
	00		 cmp	 DWORD PTR [eax+492], ebx
  000bd	74 36		 je	 SHORT $LN7@SetTitleBu
  000bf	81 c1 c8 01 00
	00		 add	 ecx, 456		; 000001c8H
  000c5	89 8d f0 fd ff
	ff		 mov	 DWORD PTR _strBuy$513982[ebp], ecx

; 1034 : 		if(strBuy.IsEmpty())

  000cb	ff 15 00 00 00
	00		 call	 DWORD PTR __imp_?IsEmpty@ioHashString@@QBE_NXZ
  000d1	84 c0		 test	 al, al

; 1035 : 			SafeSprintf( szTitle, sizeof( szTitle ), STR(1), szPrice );

  000d3	8d 85 f8 fe ff
	ff		 lea	 eax, DWORD PTR _szPrice$[ebp]
  000d9	50		 push	 eax
  000da	74 3b		 je	 SHORT $LN6@SetTitleBu
  000dc	53		 push	 ebx
  000dd	6a 01		 push	 1
$LN21@SetTitleBu:
  000df	57		 push	 edi
  000e0	68 00 00 00 00	 push	 OFFSET ??_C@_0CC@ODACPNHE@RisingGashaponWnd?3?3SetTitleBuyBt@
  000e5	ff 15 00 00 00
	00		 call	 DWORD PTR __imp_?GetSingleton@ioStringManager@@SAAAV1@XZ
  000eb	8b c8		 mov	 ecx, eax
  000ed	ff 15 00 00 00
	00		 call	 DWORD PTR __imp_?GetString@ioStringManager@@QAEPADPBD0HW4FileNamePrefix@1@@Z

; 1036 : 		else

  000f3	eb 2e		 jmp	 SHORT $LN20@SetTitleBu
$LN7@SetTitleBu:

; 1037 : 			SafeSprintf( szTitle, sizeof( szTitle ), strBuy.c_str(), szPrice );
; 1038 : 
; 1039 : 	}
; 1040 : 	else
; 1041 : 	{
; 1042 : 		const ioHashString & strBuy = pRising->GetBuyPesoText();

  000f5	81 c1 b8 01 00
	00		 add	 ecx, 440		; 000001b8H
  000fb	89 8d f0 fd ff
	ff		 mov	 DWORD PTR _strBuy$513987[ebp], ecx

; 1043 : 		if(strBuy.IsEmpty())

  00101	ff 15 00 00 00
	00		 call	 DWORD PTR __imp_?IsEmpty@ioHashString@@QBE_NXZ
  00107	84 c0		 test	 al, al

; 1044 : 			SafeSprintf( szTitle, sizeof( szTitle ), STR(2), szPrice );

  00109	8d 85 f8 fe ff
	ff		 lea	 eax, DWORD PTR _szPrice$[ebp]
  0010f	50		 push	 eax
  00110	74 05		 je	 SHORT $LN6@SetTitleBu
  00112	53		 push	 ebx
  00113	6a 02		 push	 2

; 1045 : 		else

  00115	eb c8		 jmp	 SHORT $LN21@SetTitleBu
$LN6@SetTitleBu:

; 1046 : 			SafeSprintf( szTitle, sizeof( szTitle ), strBuy.c_str(), szPrice );

  00117	8b 8d f0 fd ff
	ff		 mov	 ecx, DWORD PTR _strBuy$513987[ebp]
  0011d	ff 15 00 00 00
	00		 call	 DWORD PTR __imp_?c_str@ioHashString@@QBEPBDXZ
$LN20@SetTitleBu:
  00123	50		 push	 eax
  00124	8d 85 f4 fd ff
	ff		 lea	 eax, DWORD PTR _szTitle$[ebp]
  0012a	56		 push	 esi
  0012b	50		 push	 eax
  0012c	ff 15 00 00 00
	00		 call	 DWORD PTR __imp_?SafeSprintf@@YAXPADHPBD1@Z

; 1047 : 	}
; 1048 : 	
; 1049 : 	ioWnd *pWnd = FindChildWnd( ID_BUY );

  00132	8b 8d e8 fd ff
	ff		 mov	 ecx, DWORD PTR _this$GSCopy$[ebp]
  00138	83 c4 10	 add	 esp, 16			; 00000010H
  0013b	6a 02		 push	 2
  0013d	ff 15 00 00 00
	00		 call	 DWORD PTR __imp_?FindChildWnd@ioWnd@@QAEPAV1@K@Z

; 1050 : 	if( pWnd )

  00143	3b c3		 cmp	 eax, ebx
  00145	74 11		 je	 SHORT $LN1@SetTitleBu

; 1051 : 	{
; 1052 : 		pWnd->SetTitleText( szTitle );

  00147	53		 push	 ebx
  00148	57		 push	 edi
  00149	8d 8d f4 fd ff
	ff		 lea	 ecx, DWORD PTR _szTitle$[ebp]
  0014f	51		 push	 ecx
  00150	8b c8		 mov	 ecx, eax
  00152	ff 15 00 00 00
	00		 call	 DWORD PTR __imp_?SetTitleText@ioWnd@@QAEXPBD0H@Z
$LN1@SetTitleBu:

; 1053 : 	}
; 1054 : }

  00158	8b 4d fc	 mov	 ecx, DWORD PTR __$ArrayPad$[ebp]
  0015b	5f		 pop	 edi
  0015c	5e		 pop	 esi
  0015d	33 cd		 xor	 ecx, ebp
  0015f	5b		 pop	 ebx
  00160	e8 00 00 00 00	 call	 @__security_check_cookie@4
  00165	c9		 leave
  00166	c2 04 00	 ret	 4
?SetTitleBuyBtn@RisingGashaponWnd@@IAEXH@Z ENDP		; RisingGashaponWnd::SetTitleBuyBtn
_TEXT	ENDS
PUBLIC	??_C@_0CA@FKAPKFAL@RisingGashaponWnd?3?3OnCashCharge?$AA@ ; `string'
PUBLIC	?OnCashCharge@RisingGashaponWnd@@IAEXXZ		; RisingGashaponWnd::OnCashCharge
EXTRN	?GetLocal@ioLocalManager@@QAEPAVioLocalParent@@W4LocalType@ioLocalManagerParent@@@Z:PROC ; ioLocalManager::GetLocal
EXTRN	?GetSingleton@ioLocalManager@@SAAAV1@XZ:PROC	; ioLocalManager::GetSingleton
EXTRN	__imp_?GetLocalType@ioLocalManagerParent@@SA?AW4LocalType@1@XZ:PROC
EXTRN	?GetModeType@ioPlayStage@@QBE?AW4ModeType@@XZ:PROC ; ioPlayStage::GetModeType
;	COMDAT ??_C@_0CA@FKAPKFAL@RisingGashaponWnd?3?3OnCashCharge?$AA@
; File d:\lost saga for developer\youtube\tutorial\source\src\lsclient\ioapplication.h
CONST	SEGMENT
??_C@_0CA@FKAPKFAL@RisingGashaponWnd?3?3OnCashCharge?$AA@ DB 'RisingGasha'
	DB	'ponWnd::OnCashCharge', 00H			; `string'
; Function compile flags: /Ogsp
; File d:\lost saga for developer\youtube\tutorial\source\src\lsclient\gui\risinggashaponwnd.cpp
CONST	ENDS
;	COMDAT ?OnCashCharge@RisingGashaponWnd@@IAEXXZ
_TEXT	SEGMENT
?OnCashCharge@RisingGashaponWnd@@IAEXXZ PROC		; RisingGashaponWnd::OnCashCharge, COMDAT
; _this$ = ecx

; 1198 : {

  00000	56		 push	 esi

; 1199 : 	ioPlayStage *pStage = (ioPlayStage *)g_App.GetGameStage();

  00001	e8 00 00 00 00	 call	 ?GetSingleton@ioApplication@@SAAAV1@XZ ; ioApplication::GetSingleton
  00006	8b b0 28 01 00
	00		 mov	 esi, DWORD PTR [eax+296]

; 1200 : 
; 1201 : 	if( g_App.GetConnectedMoveMode() == ioApplication::CMM_LOBBY )

  0000c	e8 00 00 00 00	 call	 ?GetSingleton@ioApplication@@SAAAV1@XZ ; ioApplication::GetSingleton
  00011	83 b8 ac 06 00
	00 02		 cmp	 DWORD PTR [eax+1708], 2
  00018	75 41		 jne	 SHORT $LN5@OnCashChar

; 1202 : 	{
; 1203 : 		if( pStage && pStage->GetModeType() != MT_MYROOM )

  0001a	85 f6		 test	 esi, esi
  0001c	74 59		 je	 SHORT $LN2@OnCashChar
  0001e	8b ce		 mov	 ecx, esi
  00020	e8 00 00 00 00	 call	 ?GetModeType@ioPlayStage@@QBE?AW4ModeType@@XZ ; ioPlayStage::GetModeType
  00025	83 f8 18	 cmp	 eax, 24			; 00000018H
$LN13@OnCashChar:
  00028	74 4d		 je	 SHORT $LN2@OnCashChar

; 1204 : 		{
; 1205 : 			g_GUIMgr.SetMsgBox( MB_OK, NULL, STR(1) );

  0002a	6a 00		 push	 0
  0002c	6a 01		 push	 1
  0002e	68 00 00 00 00	 push	 OFFSET ??_C@_00CNPNBAHC@?$AA@
  00033	68 00 00 00 00	 push	 OFFSET ??_C@_0CA@FKAPKFAL@RisingGashaponWnd?3?3OnCashCharge?$AA@
  00038	ff 15 00 00 00
	00		 call	 DWORD PTR __imp_?GetSingleton@ioStringManager@@SAAAV1@XZ
  0003e	8b c8		 mov	 ecx, eax
  00040	ff 15 00 00 00
	00		 call	 DWORD PTR __imp_?GetString@ioStringManager@@QAEPADPBD0HW4FileNamePrefix@1@@Z
  00046	50		 push	 eax
  00047	6a 00		 push	 0
  00049	6a 00		 push	 0
  0004b	e8 00 00 00 00	 call	 ?GetSingleton@ioSP2GUIManager@@SAAAV1@XZ ; ioSP2GUIManager::GetSingleton
  00050	50		 push	 eax
  00051	e8 00 00 00 00	 call	 ?SetMsgBox@ioSP2GUIManager@@QAAXHPAVioWnd@@PBDZZ ; ioSP2GUIManager::SetMsgBox
  00056	83 c4 10	 add	 esp, 16			; 00000010H
$LN1@OnCashChar:
  00059	5e		 pop	 esi

; 1223 : 	}
; 1224 : }

  0005a	c3		 ret	 0
$LN5@OnCashChar:

; 1206 : 			return;
; 1207 : 		}
; 1208 : 	}
; 1209 : 	else
; 1210 : 	{
; 1211 : 		if( pStage && pStage->GetModeType() != MT_TRAINING && pStage->GetModeType() != MT_HEADQUARTERS )

  0005b	85 f6		 test	 esi, esi
  0005d	74 18		 je	 SHORT $LN2@OnCashChar
  0005f	8b ce		 mov	 ecx, esi
  00061	e8 00 00 00 00	 call	 ?GetModeType@ioPlayStage@@QBE?AW4ModeType@@XZ ; ioPlayStage::GetModeType
  00066	83 f8 04	 cmp	 eax, 4
  00069	74 0c		 je	 SHORT $LN2@OnCashChar
  0006b	8b ce		 mov	 ecx, esi
  0006d	e8 00 00 00 00	 call	 ?GetModeType@ioPlayStage@@QBE?AW4ModeType@@XZ ; ioPlayStage::GetModeType
  00072	83 f8 0d	 cmp	 eax, 13			; 0000000dH

; 1212 : 		{
; 1213 : 			g_GUIMgr.SetMsgBox( MB_OK, NULL, STR(1) );
; 1214 : 			return;

  00075	eb b1		 jmp	 SHORT $LN13@OnCashChar
$LN2@OnCashChar:

; 1215 : 		}
; 1216 : 	}
; 1217 : 
; 1218 : 	ioLocalParent *pLocal = g_LocalMgr.GetLocal( ioLocalManager::GetLocalType() );

  00077	ff 15 00 00 00
	00		 call	 DWORD PTR __imp_?GetLocalType@ioLocalManagerParent@@SA?AW4LocalType@1@XZ
  0007d	50		 push	 eax
  0007e	e8 00 00 00 00	 call	 ?GetSingleton@ioLocalManager@@SAAAV1@XZ ; ioLocalManager::GetSingleton
  00083	8b c8		 mov	 ecx, eax
  00085	e8 00 00 00 00	 call	 ?GetLocal@ioLocalManager@@QAEPAVioLocalParent@@W4LocalType@ioLocalManagerParent@@@Z ; ioLocalManager::GetLocal
  0008a	8b f0		 mov	 esi, eax

; 1219 : 	if( pLocal )

  0008c	85 f6		 test	 esi, esi
  0008e	74 c9		 je	 SHORT $LN1@OnCashChar

; 1220 : 	{
; 1221 : 		pLocal->SetGoldChargeBtn( true );

  00090	8b 06		 mov	 eax, DWORD PTR [esi]
  00092	6a 01		 push	 1
  00094	8b ce		 mov	 ecx, esi
  00096	ff 90 48 01 00
	00		 call	 DWORD PTR [eax+328]

; 1222 : 		pLocal->OpenFillCashPage();

  0009c	8b 06		 mov	 eax, DWORD PTR [esi]
  0009e	8b ce		 mov	 ecx, esi
  000a0	5e		 pop	 esi
  000a1	ff 60 7c	 jmp	 DWORD PTR [eax+124]
?OnCashCharge@RisingGashaponWnd@@IAEXXZ ENDP		; RisingGashaponWnd::OnCashCharge
_TEXT	ENDS
PUBLIC	??0?$_Vector_val@V?$basic_string@DU?$char_traits@D@std@@V?$allocator@D@2@@std@@V?$allocator@V?$basic_string@DU?$char_traits@D@std@@V?$allocator@D@2@@std@@@2@@std@@QAE@V?$allocator@V?$basic_string@DU?$char_traits@D@std@@V?$allocator@D@2@@std@@@1@@Z ; std::_Vector_val<std::basic_string<char,std::char_traits<char>,std::allocator<char> >,std::allocator<std::basic_string<char,std::char_traits<char>,std::allocator<char> > > >::_Vector_val<std::basic_string<char,std::char_traits<char>,std::allocator<char> >,std::allocator<std::basic_string<char,std::char_traits<char>,std::allocator<char> > > >
; Function compile flags: /Ogsp
; File c:\program files (x86)\microsoft visual studio 10.0\vc\include\vector
;	COMDAT ??0?$_Vector_val@V?$basic_string@DU?$char_traits@D@std@@V?$allocator@D@2@@std@@V?$allocator@V?$basic_string@DU?$char_traits@D@std@@V?$allocator@D@2@@std@@@2@@std@@QAE@V?$allocator@V?$basic_string@DU?$char_traits@D@std@@V?$allocator@D@2@@std@@@1@@Z
_TEXT	SEGMENT
__Al$ = 8						; size = 1
??0?$_Vector_val@V?$basic_string@DU?$char_traits@D@std@@V?$allocator@D@2@@std@@V?$allocator@V?$basic_string@DU?$char_traits@D@std@@V?$allocator@D@2@@std@@@2@@std@@QAE@V?$allocator@V?$basic_string@DU?$char_traits@D@std@@V?$allocator@D@2@@std@@@1@@Z PROC ; std::_Vector_val<std::basic_string<char,std::char_traits<char>,std::allocator<char> >,std::allocator<std::basic_string<char,std::char_traits<char>,std::allocator<char> > > >::_Vector_val<std::basic_string<char,std::char_traits<char>,std::allocator<char> >,std::allocator<std::basic_string<char,std::char_traits<char>,std::allocator<char> > > >, COMDAT
; _this$ = ecx

; 426  : 		{	// construct allocator from _Al

  00000	8b c1		 mov	 eax, ecx

; 427  : 		_Myfirst = 0;

  00002	33 c9		 xor	 ecx, ecx
  00004	89 08		 mov	 DWORD PTR [eax], ecx

; 428  : 		_Mylast = 0;

  00006	89 48 04	 mov	 DWORD PTR [eax+4], ecx

; 429  : 		_Myend = 0;

  00009	89 48 08	 mov	 DWORD PTR [eax+8], ecx

; 430  : 		}

  0000c	c2 04 00	 ret	 4
??0?$_Vector_val@V?$basic_string@DU?$char_traits@D@std@@V?$allocator@D@2@@std@@V?$allocator@V?$basic_string@DU?$char_traits@D@std@@V?$allocator@D@2@@std@@@2@@std@@QAE@V?$allocator@V?$basic_string@DU?$char_traits@D@std@@V?$allocator@D@2@@std@@@1@@Z ENDP ; std::_Vector_val<std::basic_string<char,std::char_traits<char>,std::allocator<char> >,std::allocator<std::basic_string<char,std::char_traits<char>,std::allocator<char> > > >::_Vector_val<std::basic_string<char,std::char_traits<char>,std::allocator<char> >,std::allocator<std::basic_string<char,std::char_traits<char>,std::allocator<char> > > >
_TEXT	ENDS
PUBLIC	??D?$_Vector_iterator@V?$_Vector_val@HV?$allocator@H@std@@@std@@@std@@QBEAAHXZ ; std::_Vector_iterator<std::_Vector_val<int,std::allocator<int> > >::operator*
; Function compile flags: /Ogsp
;	COMDAT ??D?$_Vector_iterator@V?$_Vector_val@HV?$allocator@H@std@@@std@@@std@@QBEAAHXZ
_TEXT	SEGMENT
??D?$_Vector_iterator@V?$_Vector_val@HV?$allocator@H@std@@@std@@@std@@QBEAAHXZ PROC ; std::_Vector_iterator<std::_Vector_val<int,std::allocator<int> > >::operator*, COMDAT
; _this$ = ecx

; 322  : 		return ((reference)**(_Mybase *)this);

  00000	8b 01		 mov	 eax, DWORD PTR [ecx]

; 323  : 		}

  00002	c3		 ret	 0
??D?$_Vector_iterator@V?$_Vector_val@HV?$allocator@H@std@@@std@@@std@@QBEAAHXZ ENDP ; std::_Vector_iterator<std::_Vector_val<int,std::allocator<int> > >::operator*
_TEXT	ENDS
PUBLIC	??F?$_Vector_iterator@V?$_Vector_val@HV?$allocator@H@std@@@std@@@std@@QAEAAV01@XZ ; std::_Vector_iterator<std::_Vector_val<int,std::allocator<int> > >::operator--
; Function compile flags: /Ogsp
;	COMDAT ??F?$_Vector_iterator@V?$_Vector_val@HV?$allocator@H@std@@@std@@@std@@QAEAAV01@XZ
_TEXT	SEGMENT
??F?$_Vector_iterator@V?$_Vector_val@HV?$allocator@H@std@@@std@@@std@@QAEAAV01@XZ PROC ; std::_Vector_iterator<std::_Vector_val<int,std::allocator<int> > >::operator--, COMDAT
; _this$ = ecx

; 344  : 		{	// predecrement

  00000	8b c1		 mov	 eax, ecx

; 345  : 		--*(_Mybase *)this;

  00002	83 00 fc	 add	 DWORD PTR [eax], -4	; fffffffcH

; 346  : 		return (*this);
; 347  : 		}

  00005	c3		 ret	 0
??F?$_Vector_iterator@V?$_Vector_val@HV?$allocator@H@std@@@std@@@std@@QAEAAV01@XZ ENDP ; std::_Vector_iterator<std::_Vector_val<int,std::allocator<int> > >::operator--
_TEXT	ENDS
PUBLIC	??0?$reverse_iterator@V?$_Vector_iterator@V?$_Vector_val@HV?$allocator@H@std@@@std@@@std@@@std@@QAE@V?$_Vector_iterator@V?$_Vector_val@HV?$allocator@H@std@@@std@@@1@@Z ; std::reverse_iterator<std::_Vector_iterator<std::_Vector_val<int,std::allocator<int> > > >::reverse_iterator<std::_Vector_iterator<std::_Vector_val<int,std::allocator<int> > > >
; Function compile flags: /Ogsp
; File c:\program files (x86)\microsoft visual studio 10.0\vc\include\xutility
;	COMDAT ??0?$reverse_iterator@V?$_Vector_iterator@V?$_Vector_val@HV?$allocator@H@std@@@std@@@std@@@std@@QAE@V?$_Vector_iterator@V?$_Vector_val@HV?$allocator@H@std@@@std@@@1@@Z
_TEXT	SEGMENT
__Right$ = 8						; size = 4
??0?$reverse_iterator@V?$_Vector_iterator@V?$_Vector_val@HV?$allocator@H@std@@@std@@@std@@@std@@QAE@V?$_Vector_iterator@V?$_Vector_val@HV?$allocator@H@std@@@std@@@1@@Z PROC ; std::reverse_iterator<std::_Vector_iterator<std::_Vector_val<int,std::allocator<int> > > >::reverse_iterator<std::_Vector_iterator<std::_Vector_val<int,std::allocator<int> > > >, COMDAT
; _this$ = ecx

; 1249 : 		{	// construct wrapped iterator from _Right

  00000	55		 push	 ebp
  00001	8b ec		 mov	 ebp, esp
  00003	8b c1		 mov	 eax, ecx
  00005	8b 4d 08	 mov	 ecx, DWORD PTR __Right$[ebp]
  00008	89 08		 mov	 DWORD PTR [eax], ecx

; 1250 : 		}

  0000a	5d		 pop	 ebp
  0000b	c2 04 00	 ret	 4
??0?$reverse_iterator@V?$_Vector_iterator@V?$_Vector_val@HV?$allocator@H@std@@@std@@@std@@@std@@QAE@V?$_Vector_iterator@V?$_Vector_val@HV?$allocator@H@std@@@std@@@1@@Z ENDP ; std::reverse_iterator<std::_Vector_iterator<std::_Vector_val<int,std::allocator<int> > > >::reverse_iterator<std::_Vector_iterator<std::_Vector_val<int,std::allocator<int> > > >
_TEXT	ENDS
PUBLIC	?max_size@?$vector@VGashaponPresent@@V?$allocator@VGashaponPresent@@@std@@@std@@QBEIXZ ; std::vector<GashaponPresent,std::allocator<GashaponPresent> >::max_size
; Function compile flags: /Ogsp
; File c:\program files (x86)\microsoft visual studio 10.0\vc\include\vector
;	COMDAT ?max_size@?$vector@VGashaponPresent@@V?$allocator@VGashaponPresent@@@std@@@std@@QBEIXZ
_TEXT	SEGMENT
?max_size@?$vector@VGashaponPresent@@V?$allocator@VGashaponPresent@@@std@@@std@@QBEIXZ PROC ; std::vector<GashaponPresent,std::allocator<GashaponPresent> >::max_size, COMDAT
; _this$ = ecx

; 884  : 		return (this->_Alval.max_size());

  00000	b8 cc cc cc 0c	 mov	 eax, 214748364		; 0cccccccH

; 885  : 		}

  00005	c3		 ret	 0
?max_size@?$vector@VGashaponPresent@@V?$allocator@VGashaponPresent@@@std@@@std@@QBEIXZ ENDP ; std::vector<GashaponPresent,std::allocator<GashaponPresent> >::max_size
_TEXT	ENDS
PUBLIC	?allocate@?$allocator@VGashaponPresent@@@std@@QAEPAVGashaponPresent@@I@Z ; std::allocator<GashaponPresent>::allocate
; Function compile flags: /Ogsp
; File c:\program files (x86)\microsoft visual studio 10.0\vc\include\xmemory
;	COMDAT ?allocate@?$allocator@VGashaponPresent@@@std@@QAEPAVGashaponPresent@@I@Z
_TEXT	SEGMENT
__Count$ = 8						; size = 4
?allocate@?$allocator@VGashaponPresent@@@std@@QAEPAVGashaponPresent@@I@Z PROC ; std::allocator<GashaponPresent>::allocate, COMDAT
; _this$ = ecx

; 186  : 		{	// allocate array of _Count elements

  00000	55		 push	 ebp
  00001	8b ec		 mov	 ebp, esp

; 187  : 		return (_Allocate(_Count, (pointer)0));

  00003	6a 00		 push	 0
  00005	ff 75 08	 push	 DWORD PTR __Count$[ebp]
  00008	e8 00 00 00 00	 call	 ??$_Allocate@VGashaponPresent@@@std@@YAPAVGashaponPresent@@IPAV1@@Z ; std::_Allocate<GashaponPresent>
  0000d	59		 pop	 ecx
  0000e	59		 pop	 ecx

; 188  : 		}

  0000f	5d		 pop	 ebp
  00010	c2 04 00	 ret	 4
?allocate@?$allocator@VGashaponPresent@@@std@@QAEPAVGashaponPresent@@I@Z ENDP ; std::allocator<GashaponPresent>::allocate
_TEXT	ENDS
PUBLIC	??0?$_Vector_iterator@V?$_Vector_val@VGashaponPresent@@V?$allocator@VGashaponPresent@@@std@@@std@@@std@@QAE@PAVGashaponPresent@@PBU_Container_base0@1@@Z ; std::_Vector_iterator<std::_Vector_val<GashaponPresent,std::allocator<GashaponPresent> > >::_Vector_iterator<std::_Vector_val<GashaponPresent,std::allocator<GashaponPresent> > >
; Function compile flags: /Ogsp
; File c:\program files (x86)\microsoft visual studio 10.0\vc\include\vector
;	COMDAT ??0?$_Vector_iterator@V?$_Vector_val@VGashaponPresent@@V?$allocator@VGashaponPresent@@@std@@@std@@@std@@QAE@PAVGashaponPresent@@PBU_Container_base0@1@@Z
_TEXT	SEGMENT
__Parg$ = 8						; size = 4
__Pvector$ = 12						; size = 4
??0?$_Vector_iterator@V?$_Vector_val@VGashaponPresent@@V?$allocator@VGashaponPresent@@@std@@@std@@@std@@QAE@PAVGashaponPresent@@PBU_Container_base0@1@@Z PROC ; std::_Vector_iterator<std::_Vector_val<GashaponPresent,std::allocator<GashaponPresent> > >::_Vector_iterator<std::_Vector_val<GashaponPresent,std::allocator<GashaponPresent> > >, COMDAT
; _this$ = ecx

; 304  : 		{	// construct with pointer _Parg

  00000	55		 push	 ebp
  00001	8b ec		 mov	 ebp, esp
  00003	8b c1		 mov	 eax, ecx
  00005	8b 4d 08	 mov	 ecx, DWORD PTR __Parg$[ebp]
  00008	89 08		 mov	 DWORD PTR [eax], ecx

; 305  : 		}

  0000a	5d		 pop	 ebp
  0000b	c2 08 00	 ret	 8
??0?$_Vector_iterator@V?$_Vector_val@VGashaponPresent@@V?$allocator@VGashaponPresent@@@std@@@std@@@std@@QAE@PAVGashaponPresent@@PBU_Container_base0@1@@Z ENDP ; std::_Vector_iterator<std::_Vector_val<GashaponPresent,std::allocator<GashaponPresent> > >::_Vector_iterator<std::_Vector_val<GashaponPresent,std::allocator<GashaponPresent> > >
_TEXT	ENDS
PUBLIC	??8?$_Vector_const_iterator@V?$_Vector_val@VGashaponPresent@@V?$allocator@VGashaponPresent@@@std@@@std@@@std@@QBE_NABV01@@Z ; std::_Vector_const_iterator<std::_Vector_val<GashaponPresent,std::allocator<GashaponPresent> > >::operator==
; Function compile flags: /Ogsp
;	COMDAT ??8?$_Vector_const_iterator@V?$_Vector_val@VGashaponPresent@@V?$allocator@VGashaponPresent@@@std@@@std@@@std@@QBE_NABV01@@Z
_TEXT	SEGMENT
__Right$ = 8						; size = 4
??8?$_Vector_const_iterator@V?$_Vector_val@VGashaponPresent@@V?$allocator@VGashaponPresent@@@std@@@std@@@std@@QBE_NABV01@@Z PROC ; std::_Vector_const_iterator<std::_Vector_val<GashaponPresent,std::allocator<GashaponPresent> > >::operator==, COMDAT
; _this$ = ecx

; 201  : 		{	// test for iterator equality

  00000	55		 push	 ebp
  00001	8b ec		 mov	 ebp, esp

; 202  : 		_Compat(_Right);
; 203  : 		return (this->_Ptr == _Right._Ptr);

  00003	8b 01		 mov	 eax, DWORD PTR [ecx]
  00005	8b 4d 08	 mov	 ecx, DWORD PTR __Right$[ebp]
  00008	2b 01		 sub	 eax, DWORD PTR [ecx]
  0000a	f7 d8		 neg	 eax
  0000c	1b c0		 sbb	 eax, eax
  0000e	40		 inc	 eax

; 204  : 		}

  0000f	5d		 pop	 ebp
  00010	c2 04 00	 ret	 4
??8?$_Vector_const_iterator@V?$_Vector_val@VGashaponPresent@@V?$allocator@VGashaponPresent@@@std@@@std@@@std@@QBE_NABV01@@Z ENDP ; std::_Vector_const_iterator<std::_Vector_val<GashaponPresent,std::allocator<GashaponPresent> > >::operator==
_TEXT	ENDS
PUBLIC	__$ArrayPad$
PUBLIC	??$?8$08@@YA_NABVioHashString@@AAY08$$CBD@Z	; operator==<9>
; Function compile flags: /Ogsp
; File d:\lost saga for developer\youtube\tutorial\source\src\io3dengine\iohashstring.h
;	COMDAT ??$?8$08@@YA_NABVioHashString@@AAY08$$CBD@Z
_TEXT	SEGMENT
__t$ = -20						; size = 9
__$ArrayPad$ = -4					; size = 4
_lhs$ = 8						; size = 4
_t$ = 12						; size = 4
??$?8$08@@YA_NABVioHashString@@AAY08$$CBD@Z PROC	; operator==<9>, COMDAT

; 146  : {

  00000	55		 push	 ebp
  00001	8b ec		 mov	 ebp, esp
  00003	83 ec 14	 sub	 esp, 20			; 00000014H
  00006	a1 00 00 00 00	 mov	 eax, DWORD PTR ___security_cookie
  0000b	33 c5		 xor	 eax, ebp
  0000d	89 45 fc	 mov	 DWORD PTR __$ArrayPad$[ebp], eax
  00010	8b 45 0c	 mov	 eax, DWORD PTR _t$[ebp]

; 147  : 	_ENCSTR(t, _t); return ( strcmp( lhs.c_str(), _t ) == 0 );

  00013	8a 10		 mov	 dl, BYTE PTR [eax]
  00015	8b 4d 08	 mov	 ecx, DWORD PTR _lhs$[ebp]
  00018	84 d2		 test	 dl, dl
  0001a	0f 84 ee 00 00
	00		 je	 $LN96@operator
  00020	80 f2 ed	 xor	 dl, -19			; ffffffedH
  00023	88 55 ec	 mov	 BYTE PTR __t$[ebp], dl
  00026	8a 50 01	 mov	 dl, BYTE PTR [eax+1]
  00029	84 d2		 test	 dl, dl
  0002b	0f 84 d7 00 00
	00		 je	 $LN95@operator
  00031	80 f2 ec	 xor	 dl, -20			; ffffffecH
  00034	88 55 ed	 mov	 BYTE PTR __t$[ebp+1], dl
  00037	8a 50 02	 mov	 dl, BYTE PTR [eax+2]
  0003a	84 d2		 test	 dl, dl
  0003c	0f 84 c0 00 00
	00		 je	 $LN94@operator
  00042	80 f2 eb	 xor	 dl, -21			; ffffffebH
  00045	88 55 ee	 mov	 BYTE PTR __t$[ebp+2], dl
  00048	8a 50 03	 mov	 dl, BYTE PTR [eax+3]
  0004b	84 d2		 test	 dl, dl
  0004d	0f 84 a9 00 00
	00		 je	 $LN93@operator
  00053	80 f2 ea	 xor	 dl, -22			; ffffffeaH
  00056	88 55 ef	 mov	 BYTE PTR __t$[ebp+3], dl
  00059	8a 50 04	 mov	 dl, BYTE PTR [eax+4]
  0005c	84 d2		 test	 dl, dl
  0005e	0f 84 92 00 00
	00		 je	 $LN92@operator
  00064	80 f2 ed	 xor	 dl, -19			; ffffffedH
  00067	88 55 f0	 mov	 BYTE PTR __t$[ebp+4], dl
  0006a	8a 50 05	 mov	 dl, BYTE PTR [eax+5]
  0006d	84 d2		 test	 dl, dl
  0006f	74 7f		 je	 SHORT $LN91@operator
  00071	80 f2 ec	 xor	 dl, -20			; ffffffecH
  00074	88 55 f1	 mov	 BYTE PTR __t$[ebp+5], dl
  00077	8a 50 06	 mov	 dl, BYTE PTR [eax+6]
  0007a	84 d2		 test	 dl, dl
  0007c	74 6c		 je	 SHORT $LN90@operator
  0007e	80 f2 eb	 xor	 dl, -21			; ffffffebH
  00081	88 55 f2	 mov	 BYTE PTR __t$[ebp+6], dl
  00084	8a 50 07	 mov	 dl, BYTE PTR [eax+7]
  00087	84 d2		 test	 dl, dl
  00089	74 59		 je	 SHORT $LN89@operator
  0008b	80 f2 ea	 xor	 dl, -22			; ffffffeaH
  0008e	80 78 08 00	 cmp	 BYTE PTR [eax+8], 0
  00092	88 55 f3	 mov	 BYTE PTR __t$[ebp+7], dl
  00095	74 7b		 je	 SHORT $LN1@operator
  00097	8a 50 09	 mov	 dl, BYTE PTR [eax+9]
  0009a	84 d2		 test	 dl, dl
  0009c	74 40		 je	 SHORT $LN87@operator
  0009e	80 f2 ec	 xor	 dl, -20			; ffffffecH
  000a1	88 55 f5	 mov	 BYTE PTR __t$[ebp+9], dl
  000a4	8a 50 0a	 mov	 dl, BYTE PTR [eax+10]
  000a7	84 d2		 test	 dl, dl
  000a9	74 2d		 je	 SHORT $LN86@operator
  000ab	80 f2 eb	 xor	 dl, -21			; ffffffebH
  000ae	88 55 f6	 mov	 BYTE PTR __t$[ebp+10], dl
  000b1	8a 50 0b	 mov	 dl, BYTE PTR [eax+11]
  000b4	84 d2		 test	 dl, dl
  000b6	74 1a		 je	 SHORT $LN85@operator
  000b8	8a 40 0c	 mov	 al, BYTE PTR [eax+12]
  000bb	80 f2 ea	 xor	 dl, -22			; ffffffeaH
  000be	88 55 f7	 mov	 BYTE PTR __t$[ebp+11], dl
  000c1	84 c0		 test	 al, al
  000c3	74 07		 je	 SHORT $LN84@operator
  000c5	34 ed		 xor	 al, -19			; ffffffedH
  000c7	88 45 f8	 mov	 BYTE PTR __t$[ebp+12], al
  000ca	eb 46		 jmp	 SHORT $LN1@operator
$LN84@operator:
  000cc	c6 45 f8 ed	 mov	 BYTE PTR __t$[ebp+12], -19 ; ffffffedH
  000d0	eb 40		 jmp	 SHORT $LN1@operator
$LN85@operator:
  000d2	c6 45 f7 ea	 mov	 BYTE PTR __t$[ebp+11], -22 ; ffffffeaH
  000d6	eb 3a		 jmp	 SHORT $LN1@operator
$LN86@operator:
  000d8	c6 45 f6 eb	 mov	 BYTE PTR __t$[ebp+10], -21 ; ffffffebH
  000dc	eb 34		 jmp	 SHORT $LN1@operator
$LN87@operator:
  000de	c6 45 f5 ec	 mov	 BYTE PTR __t$[ebp+9], -20 ; ffffffecH
  000e2	eb 2e		 jmp	 SHORT $LN1@operator
$LN89@operator:
  000e4	c6 45 f3 ea	 mov	 BYTE PTR __t$[ebp+7], -22 ; ffffffeaH
  000e8	eb 28		 jmp	 SHORT $LN1@operator
$LN90@operator:
  000ea	c6 45 f2 eb	 mov	 BYTE PTR __t$[ebp+6], -21 ; ffffffebH
  000ee	eb 22		 jmp	 SHORT $LN1@operator
$LN91@operator:
  000f0	c6 45 f1 ec	 mov	 BYTE PTR __t$[ebp+5], -20 ; ffffffecH
  000f4	eb 1c		 jmp	 SHORT $LN1@operator
$LN92@operator:
  000f6	c6 45 f0 ed	 mov	 BYTE PTR __t$[ebp+4], -19 ; ffffffedH
  000fa	eb 16		 jmp	 SHORT $LN1@operator
$LN93@operator:
  000fc	c6 45 ef ea	 mov	 BYTE PTR __t$[ebp+3], -22 ; ffffffeaH
  00100	eb 10		 jmp	 SHORT $LN1@operator
$LN94@operator:
  00102	c6 45 ee eb	 mov	 BYTE PTR __t$[ebp+2], -21 ; ffffffebH
  00106	eb 0a		 jmp	 SHORT $LN1@operator
$LN95@operator:
  00108	c6 45 ed ec	 mov	 BYTE PTR __t$[ebp+1], -20 ; ffffffecH
  0010c	eb 04		 jmp	 SHORT $LN1@operator
$LN96@operator:
  0010e	c6 45 ec ed	 mov	 BYTE PTR __t$[ebp], -19	; ffffffedH
$LN1@operator:
  00112	6a 02		 push	 2
  00114	8d 45 ec	 lea	 eax, DWORD PTR __t$[ebp]
  00117	c6 45 f4 00	 mov	 BYTE PTR __t$[ebp+8], 0
  0011b	5a		 pop	 edx
$LL104@operator:
  0011c	81 30 ed ec eb
	ea		 xor	 DWORD PTR [eax], -353637139 ; eaebecedH
  00122	83 c0 04	 add	 eax, 4
  00125	4a		 dec	 edx
  00126	75 f4		 jne	 SHORT $LL104@operator
  00128	56		 push	 esi
  00129	8d 75 ec	 lea	 esi, DWORD PTR __t$[ebp]
  0012c	ff 15 00 00 00
	00		 call	 DWORD PTR __imp_?c_str@ioHashString@@QBEPBDXZ
$LL111@operator:
  00132	8a 08		 mov	 cl, BYTE PTR [eax]
  00134	3a 0e		 cmp	 cl, BYTE PTR [esi]
  00136	75 1a		 jne	 SHORT $LN112@operator
  00138	84 c9		 test	 cl, cl
  0013a	74 12		 je	 SHORT $LN113@operator
  0013c	8a 48 01	 mov	 cl, BYTE PTR [eax+1]
  0013f	3a 4e 01	 cmp	 cl, BYTE PTR [esi+1]
  00142	75 0e		 jne	 SHORT $LN112@operator
  00144	83 c0 02	 add	 eax, 2
  00147	83 c6 02	 add	 esi, 2
  0014a	84 c9		 test	 cl, cl
  0014c	75 e4		 jne	 SHORT $LL111@operator
$LN113@operator:
  0014e	33 c0		 xor	 eax, eax
  00150	eb 05		 jmp	 SHORT $LN114@operator
$LN112@operator:
  00152	1b c0		 sbb	 eax, eax
  00154	83 d8 ff	 sbb	 eax, -1
$LN114@operator:
  00157	33 c9		 xor	 ecx, ecx
  00159	85 c0		 test	 eax, eax
  0015b	0f 94 c0	 sete	 al

; 148  : }

  0015e	8b 4d fc	 mov	 ecx, DWORD PTR __$ArrayPad$[ebp]
  00161	33 cd		 xor	 ecx, ebp
  00163	5e		 pop	 esi
  00164	e8 00 00 00 00	 call	 @__security_check_cookie@4
  00169	c9		 leave
  0016a	c3		 ret	 0
??$?8$08@@YA_NABVioHashString@@AAY08$$CBD@Z ENDP	; operator==<9>
_TEXT	ENDS
PUBLIC	__$ArrayPad$
PUBLIC	??$?8$07@@YA_NABVioHashString@@AAY07$$CBD@Z	; operator==<8>
; Function compile flags: /Ogsp
;	COMDAT ??$?8$07@@YA_NABVioHashString@@AAY07$$CBD@Z
_TEXT	SEGMENT
__t$ = -16						; size = 8
__$ArrayPad$ = -4					; size = 4
_lhs$ = 8						; size = 4
_t$ = 12						; size = 4
??$?8$07@@YA_NABVioHashString@@AAY07$$CBD@Z PROC	; operator==<8>, COMDAT

; 146  : {

  00000	55		 push	 ebp
  00001	8b ec		 mov	 ebp, esp
  00003	83 ec 10	 sub	 esp, 16			; 00000010H
  00006	a1 00 00 00 00	 mov	 eax, DWORD PTR ___security_cookie
  0000b	33 c5		 xor	 eax, ebp
  0000d	89 45 fc	 mov	 DWORD PTR __$ArrayPad$[ebp], eax
  00010	8b 45 0c	 mov	 eax, DWORD PTR _t$[ebp]

; 147  : 	_ENCSTR(t, _t); return ( strcmp( lhs.c_str(), _t ) == 0 );

  00013	8a 10		 mov	 dl, BYTE PTR [eax]
  00015	56		 push	 esi
  00016	57		 push	 edi
  00017	8b 7d 08	 mov	 edi, DWORD PTR _lhs$[ebp]
  0001a	84 d2		 test	 dl, dl
  0001c	0f 84 d7 00 00
	00		 je	 $LN96@operator@2
  00022	80 f2 ed	 xor	 dl, -19			; ffffffedH
  00025	88 55 f0	 mov	 BYTE PTR __t$[ebp], dl
  00028	8a 50 01	 mov	 dl, BYTE PTR [eax+1]
  0002b	84 d2		 test	 dl, dl
  0002d	0f 84 c0 00 00
	00		 je	 $LN95@operator@2
  00033	80 f2 ec	 xor	 dl, -20			; ffffffecH
  00036	88 55 f1	 mov	 BYTE PTR __t$[ebp+1], dl
  00039	8a 50 02	 mov	 dl, BYTE PTR [eax+2]
  0003c	84 d2		 test	 dl, dl
  0003e	0f 84 a9 00 00
	00		 je	 $LN94@operator@2
  00044	80 f2 eb	 xor	 dl, -21			; ffffffebH
  00047	88 55 f2	 mov	 BYTE PTR __t$[ebp+2], dl
  0004a	8a 50 03	 mov	 dl, BYTE PTR [eax+3]
  0004d	84 d2		 test	 dl, dl
  0004f	0f 84 92 00 00
	00		 je	 $LN93@operator@2
  00055	80 f2 ea	 xor	 dl, -22			; ffffffeaH
  00058	88 55 f3	 mov	 BYTE PTR __t$[ebp+3], dl
  0005b	8a 50 04	 mov	 dl, BYTE PTR [eax+4]
  0005e	84 d2		 test	 dl, dl
  00060	74 7f		 je	 SHORT $LN92@operator@2
  00062	80 f2 ed	 xor	 dl, -19			; ffffffedH
  00065	88 55 f4	 mov	 BYTE PTR __t$[ebp+4], dl
  00068	8a 50 05	 mov	 dl, BYTE PTR [eax+5]
  0006b	84 d2		 test	 dl, dl
  0006d	74 6c		 je	 SHORT $LN91@operator@2
  0006f	80 f2 ec	 xor	 dl, -20			; ffffffecH
  00072	88 55 f5	 mov	 BYTE PTR __t$[ebp+5], dl
  00075	8a 50 06	 mov	 dl, BYTE PTR [eax+6]
  00078	84 d2		 test	 dl, dl
  0007a	74 59		 je	 SHORT $LN90@operator@2
  0007c	80 f2 eb	 xor	 dl, -21			; ffffffebH
  0007f	80 78 07 00	 cmp	 BYTE PTR [eax+7], 0
  00083	88 55 f6	 mov	 BYTE PTR __t$[ebp+6], dl
  00086	74 75		 je	 SHORT $LN1@operator@2
  00088	8a 50 08	 mov	 dl, BYTE PTR [eax+8]
  0008b	84 d2		 test	 dl, dl
  0008d	74 40		 je	 SHORT $LN88@operator@2
  0008f	80 f2 ed	 xor	 dl, -19			; ffffffedH
  00092	88 55 f8	 mov	 BYTE PTR __t$[ebp+8], dl
  00095	8a 50 09	 mov	 dl, BYTE PTR [eax+9]
  00098	84 d2		 test	 dl, dl
  0009a	74 2d		 je	 SHORT $LN87@operator@2
  0009c	80 f2 ec	 xor	 dl, -20			; ffffffecH
  0009f	88 55 f9	 mov	 BYTE PTR __t$[ebp+9], dl
  000a2	8a 50 0a	 mov	 dl, BYTE PTR [eax+10]
  000a5	84 d2		 test	 dl, dl
  000a7	74 1a		 je	 SHORT $LN86@operator@2
  000a9	8a 40 0b	 mov	 al, BYTE PTR [eax+11]
  000ac	80 f2 eb	 xor	 dl, -21			; ffffffebH
  000af	88 55 fa	 mov	 BYTE PTR __t$[ebp+10], dl
  000b2	84 c0		 test	 al, al
  000b4	74 07		 je	 SHORT $LN85@operator@2
  000b6	34 ea		 xor	 al, -22			; ffffffeaH
  000b8	88 45 fb	 mov	 BYTE PTR __t$[ebp+11], al
  000bb	eb 40		 jmp	 SHORT $LN1@operator@2
$LN85@operator@2:
  000bd	c6 45 fb ea	 mov	 BYTE PTR __t$[ebp+11], -22 ; ffffffeaH
  000c1	eb 3a		 jmp	 SHORT $LN1@operator@2
$LN86@operator@2:
  000c3	c6 45 fa eb	 mov	 BYTE PTR __t$[ebp+10], -21 ; ffffffebH
  000c7	eb 34		 jmp	 SHORT $LN1@operator@2
$LN87@operator@2:
  000c9	c6 45 f9 ec	 mov	 BYTE PTR __t$[ebp+9], -20 ; ffffffecH
  000cd	eb 2e		 jmp	 SHORT $LN1@operator@2
$LN88@operator@2:
  000cf	c6 45 f8 ed	 mov	 BYTE PTR __t$[ebp+8], -19 ; ffffffedH
  000d3	eb 28		 jmp	 SHORT $LN1@operator@2
$LN90@operator@2:
  000d5	c6 45 f6 eb	 mov	 BYTE PTR __t$[ebp+6], -21 ; ffffffebH
  000d9	eb 22		 jmp	 SHORT $LN1@operator@2
$LN91@operator@2:
  000db	c6 45 f5 ec	 mov	 BYTE PTR __t$[ebp+5], -20 ; ffffffecH
  000df	eb 1c		 jmp	 SHORT $LN1@operator@2
$LN92@operator@2:
  000e1	c6 45 f4 ed	 mov	 BYTE PTR __t$[ebp+4], -19 ; ffffffedH
  000e5	eb 16		 jmp	 SHORT $LN1@operator@2
$LN93@operator@2:
  000e7	c6 45 f3 ea	 mov	 BYTE PTR __t$[ebp+3], -22 ; ffffffeaH
  000eb	eb 10		 jmp	 SHORT $LN1@operator@2
$LN94@operator@2:
  000ed	c6 45 f2 eb	 mov	 BYTE PTR __t$[ebp+2], -21 ; ffffffebH
  000f1	eb 0a		 jmp	 SHORT $LN1@operator@2
$LN95@operator@2:
  000f3	c6 45 f1 ec	 mov	 BYTE PTR __t$[ebp+1], -20 ; ffffffecH
  000f7	eb 04		 jmp	 SHORT $LN1@operator@2
$LN96@operator@2:
  000f9	c6 45 f0 ed	 mov	 BYTE PTR __t$[ebp], -19	; ffffffedH
$LN1@operator@2:
  000fd	81 75 f0 ed ec
	eb ea		 xor	 DWORD PTR __t$[ebp], -353637139 ; eaebecedH
  00104	6a 04		 push	 4
  00106	c6 45 f7 00	 mov	 BYTE PTR __t$[ebp+7], 0
  0010a	58		 pop	 eax
$LL101@operator@2:
  0010b	8b c8		 mov	 ecx, eax
  0010d	81 e1 03 00 00
	80		 and	 ecx, -2147483645	; 80000003H
  00113	79 05		 jns	 SHORT $LN115@operator@2
  00115	49		 dec	 ecx
  00116	83 c9 fc	 or	 ecx, -4			; fffffffcH
  00119	41		 inc	 ecx
$LN115@operator@2:
  0011a	b2 ed		 mov	 dl, -19			; ffffffedH
  0011c	2a d1		 sub	 dl, cl
  0011e	30 54 05 f0	 xor	 BYTE PTR __t$[ebp+eax], dl
  00122	40		 inc	 eax
  00123	83 f8 07	 cmp	 eax, 7
  00126	7c e3		 jl	 SHORT $LL101@operator@2
  00128	8b cf		 mov	 ecx, edi
  0012a	8d 75 f0	 lea	 esi, DWORD PTR __t$[ebp]
  0012d	ff 15 00 00 00
	00		 call	 DWORD PTR __imp_?c_str@ioHashString@@QBEPBDXZ
$LL111@operator@2:
  00133	8a 08		 mov	 cl, BYTE PTR [eax]
  00135	3a 0e		 cmp	 cl, BYTE PTR [esi]
  00137	75 1a		 jne	 SHORT $LN112@operator@2
  00139	84 c9		 test	 cl, cl
  0013b	74 12		 je	 SHORT $LN113@operator@2
  0013d	8a 48 01	 mov	 cl, BYTE PTR [eax+1]
  00140	3a 4e 01	 cmp	 cl, BYTE PTR [esi+1]
  00143	75 0e		 jne	 SHORT $LN112@operator@2
  00145	83 c0 02	 add	 eax, 2
  00148	83 c6 02	 add	 esi, 2
  0014b	84 c9		 test	 cl, cl
  0014d	75 e4		 jne	 SHORT $LL111@operator@2
$LN113@operator@2:
  0014f	33 c0		 xor	 eax, eax
  00151	eb 05		 jmp	 SHORT $LN114@operator@2
$LN112@operator@2:
  00153	1b c0		 sbb	 eax, eax
  00155	83 d8 ff	 sbb	 eax, -1
$LN114@operator@2:
  00158	33 c9		 xor	 ecx, ecx
  0015a	85 c0		 test	 eax, eax
  0015c	0f 94 c0	 sete	 al

; 148  : }

  0015f	8b 4d fc	 mov	 ecx, DWORD PTR __$ArrayPad$[ebp]
  00162	5f		 pop	 edi
  00163	33 cd		 xor	 ecx, ebp
  00165	5e		 pop	 esi
  00166	e8 00 00 00 00	 call	 @__security_check_cookie@4
  0016b	c9		 leave
  0016c	c3		 ret	 0
??$?8$07@@YA_NABVioHashString@@AAY07$$CBD@Z ENDP	; operator==<8>
_TEXT	ENDS
PUBLIC	__$ArrayPad$
PUBLIC	??$?8$0L@@@YA_NABVioHashString@@AAY0L@$$CBD@Z	; operator==<11>
; Function compile flags: /Ogsp
;	COMDAT ??$?8$0L@@@YA_NABVioHashString@@AAY0L@$$CBD@Z
_TEXT	SEGMENT
__t$ = -20						; size = 11
__$ArrayPad$ = -4					; size = 4
_lhs$ = 8						; size = 4
_t$ = 12						; size = 4
??$?8$0L@@@YA_NABVioHashString@@AAY0L@$$CBD@Z PROC	; operator==<11>, COMDAT

; 146  : {

  00000	55		 push	 ebp
  00001	8b ec		 mov	 ebp, esp
  00003	83 ec 14	 sub	 esp, 20			; 00000014H
  00006	a1 00 00 00 00	 mov	 eax, DWORD PTR ___security_cookie
  0000b	33 c5		 xor	 eax, ebp
  0000d	89 45 fc	 mov	 DWORD PTR __$ArrayPad$[ebp], eax
  00010	8b 45 0c	 mov	 eax, DWORD PTR _t$[ebp]

; 147  : 	_ENCSTR(t, _t); return ( strcmp( lhs.c_str(), _t ) == 0 );

  00013	8a 10		 mov	 dl, BYTE PTR [eax]
  00015	56		 push	 esi
  00016	57		 push	 edi
  00017	8b 7d 08	 mov	 edi, DWORD PTR _lhs$[ebp]
  0001a	84 d2		 test	 dl, dl
  0001c	0f 84 24 01 00
	00		 je	 $LN96@operator@3
  00022	80 f2 ed	 xor	 dl, -19			; ffffffedH
  00025	88 55 ec	 mov	 BYTE PTR __t$[ebp], dl
  00028	8a 50 01	 mov	 dl, BYTE PTR [eax+1]
  0002b	84 d2		 test	 dl, dl
  0002d	0f 84 0d 01 00
	00		 je	 $LN95@operator@3
  00033	80 f2 ec	 xor	 dl, -20			; ffffffecH
  00036	88 55 ed	 mov	 BYTE PTR __t$[ebp+1], dl
  00039	8a 50 02	 mov	 dl, BYTE PTR [eax+2]
  0003c	84 d2		 test	 dl, dl
  0003e	0f 84 f6 00 00
	00		 je	 $LN94@operator@3
  00044	80 f2 eb	 xor	 dl, -21			; ffffffebH
  00047	88 55 ee	 mov	 BYTE PTR __t$[ebp+2], dl
  0004a	8a 50 03	 mov	 dl, BYTE PTR [eax+3]
  0004d	84 d2		 test	 dl, dl
  0004f	0f 84 df 00 00
	00		 je	 $LN93@operator@3
  00055	80 f2 ea	 xor	 dl, -22			; ffffffeaH
  00058	88 55 ef	 mov	 BYTE PTR __t$[ebp+3], dl
  0005b	8a 50 04	 mov	 dl, BYTE PTR [eax+4]
  0005e	84 d2		 test	 dl, dl
  00060	0f 84 c8 00 00
	00		 je	 $LN92@operator@3
  00066	80 f2 ed	 xor	 dl, -19			; ffffffedH
  00069	88 55 f0	 mov	 BYTE PTR __t$[ebp+4], dl
  0006c	8a 50 05	 mov	 dl, BYTE PTR [eax+5]
  0006f	84 d2		 test	 dl, dl
  00071	0f 84 b1 00 00
	00		 je	 $LN91@operator@3
  00077	80 f2 ec	 xor	 dl, -20			; ffffffecH
  0007a	88 55 f1	 mov	 BYTE PTR __t$[ebp+5], dl
  0007d	8a 50 06	 mov	 dl, BYTE PTR [eax+6]
  00080	84 d2		 test	 dl, dl
  00082	0f 84 9a 00 00
	00		 je	 $LN90@operator@3
  00088	80 f2 eb	 xor	 dl, -21			; ffffffebH
  0008b	88 55 f2	 mov	 BYTE PTR __t$[ebp+6], dl
  0008e	8a 50 07	 mov	 dl, BYTE PTR [eax+7]
  00091	84 d2		 test	 dl, dl
  00093	0f 84 83 00 00
	00		 je	 $LN89@operator@3
  00099	80 f2 ea	 xor	 dl, -22			; ffffffeaH
  0009c	88 55 f3	 mov	 BYTE PTR __t$[ebp+7], dl
  0009f	8a 50 08	 mov	 dl, BYTE PTR [eax+8]
  000a2	84 d2		 test	 dl, dl
  000a4	74 70		 je	 SHORT $LN88@operator@3
  000a6	80 f2 ed	 xor	 dl, -19			; ffffffedH
  000a9	88 55 f4	 mov	 BYTE PTR __t$[ebp+8], dl
  000ac	8a 50 09	 mov	 dl, BYTE PTR [eax+9]
  000af	84 d2		 test	 dl, dl
  000b1	74 5d		 je	 SHORT $LN87@operator@3
  000b3	80 f2 ec	 xor	 dl, -20			; ffffffecH
  000b6	80 78 0a 00	 cmp	 BYTE PTR [eax+10], 0
  000ba	88 55 f5	 mov	 BYTE PTR __t$[ebp+9], dl
  000bd	0f 84 87 00 00
	00		 je	 $LN1@operator@3
  000c3	8a 50 0b	 mov	 dl, BYTE PTR [eax+11]
  000c6	84 d2		 test	 dl, dl
  000c8	74 40		 je	 SHORT $LN85@operator@3
  000ca	80 f2 ea	 xor	 dl, -22			; ffffffeaH
  000cd	88 55 f7	 mov	 BYTE PTR __t$[ebp+11], dl
  000d0	8a 50 0c	 mov	 dl, BYTE PTR [eax+12]
  000d3	84 d2		 test	 dl, dl
  000d5	74 2d		 je	 SHORT $LN84@operator@3
  000d7	80 f2 ed	 xor	 dl, -19			; ffffffedH
  000da	88 55 f8	 mov	 BYTE PTR __t$[ebp+12], dl
  000dd	8a 50 0d	 mov	 dl, BYTE PTR [eax+13]
  000e0	84 d2		 test	 dl, dl
  000e2	74 1a		 je	 SHORT $LN83@operator@3
  000e4	8a 40 0e	 mov	 al, BYTE PTR [eax+14]
  000e7	80 f2 ec	 xor	 dl, -20			; ffffffecH
  000ea	88 55 f9	 mov	 BYTE PTR __t$[ebp+13], dl
  000ed	84 c0		 test	 al, al
  000ef	74 07		 je	 SHORT $LN82@operator@3
  000f1	34 eb		 xor	 al, -21			; ffffffebH
  000f3	88 45 fa	 mov	 BYTE PTR __t$[ebp+14], al
  000f6	eb 52		 jmp	 SHORT $LN1@operator@3
$LN82@operator@3:
  000f8	c6 45 fa eb	 mov	 BYTE PTR __t$[ebp+14], -21 ; ffffffebH
  000fc	eb 4c		 jmp	 SHORT $LN1@operator@3
$LN83@operator@3:
  000fe	c6 45 f9 ec	 mov	 BYTE PTR __t$[ebp+13], -20 ; ffffffecH
  00102	eb 46		 jmp	 SHORT $LN1@operator@3
$LN84@operator@3:
  00104	c6 45 f8 ed	 mov	 BYTE PTR __t$[ebp+12], -19 ; ffffffedH
  00108	eb 40		 jmp	 SHORT $LN1@operator@3
$LN85@operator@3:
  0010a	c6 45 f7 ea	 mov	 BYTE PTR __t$[ebp+11], -22 ; ffffffeaH
  0010e	eb 3a		 jmp	 SHORT $LN1@operator@3
$LN87@operator@3:
  00110	c6 45 f5 ec	 mov	 BYTE PTR __t$[ebp+9], -20 ; ffffffecH
  00114	eb 34		 jmp	 SHORT $LN1@operator@3
$LN88@operator@3:
  00116	c6 45 f4 ed	 mov	 BYTE PTR __t$[ebp+8], -19 ; ffffffedH
  0011a	eb 2e		 jmp	 SHORT $LN1@operator@3
$LN89@operator@3:
  0011c	c6 45 f3 ea	 mov	 BYTE PTR __t$[ebp+7], -22 ; ffffffeaH
  00120	eb 28		 jmp	 SHORT $LN1@operator@3
$LN90@operator@3:
  00122	c6 45 f2 eb	 mov	 BYTE PTR __t$[ebp+6], -21 ; ffffffebH
  00126	eb 22		 jmp	 SHORT $LN1@operator@3
$LN91@operator@3:
  00128	c6 45 f1 ec	 mov	 BYTE PTR __t$[ebp+5], -20 ; ffffffecH
  0012c	eb 1c		 jmp	 SHORT $LN1@operator@3
$LN92@operator@3:
  0012e	c6 45 f0 ed	 mov	 BYTE PTR __t$[ebp+4], -19 ; ffffffedH
  00132	eb 16		 jmp	 SHORT $LN1@operator@3
$LN93@operator@3:
  00134	c6 45 ef ea	 mov	 BYTE PTR __t$[ebp+3], -22 ; ffffffeaH
  00138	eb 10		 jmp	 SHORT $LN1@operator@3
$LN94@operator@3:
  0013a	c6 45 ee eb	 mov	 BYTE PTR __t$[ebp+2], -21 ; ffffffebH
  0013e	eb 0a		 jmp	 SHORT $LN1@operator@3
$LN95@operator@3:
  00140	c6 45 ed ec	 mov	 BYTE PTR __t$[ebp+1], -20 ; ffffffecH
  00144	eb 04		 jmp	 SHORT $LN1@operator@3
$LN96@operator@3:
  00146	c6 45 ec ed	 mov	 BYTE PTR __t$[ebp], -19	; ffffffedH
$LN1@operator@3:
  0014a	6a 02		 push	 2
  0014c	8d 45 ec	 lea	 eax, DWORD PTR __t$[ebp]
  0014f	c6 45 f6 00	 mov	 BYTE PTR __t$[ebp+10], 0
  00153	5a		 pop	 edx
$LL104@operator@3:
  00154	81 30 ed ec eb
	ea		 xor	 DWORD PTR [eax], -353637139 ; eaebecedH
  0015a	83 c0 04	 add	 eax, 4
  0015d	4a		 dec	 edx
  0015e	75 f4		 jne	 SHORT $LL104@operator@3
  00160	6a 08		 push	 8
  00162	58		 pop	 eax
$LL101@operator@3:
  00163	8b c8		 mov	 ecx, eax
  00165	81 e1 03 00 00
	80		 and	 ecx, -2147483645	; 80000003H
  0016b	79 05		 jns	 SHORT $LN115@operator@3
  0016d	49		 dec	 ecx
  0016e	83 c9 fc	 or	 ecx, -4			; fffffffcH
  00171	41		 inc	 ecx
$LN115@operator@3:
  00172	b2 ed		 mov	 dl, -19			; ffffffedH
  00174	2a d1		 sub	 dl, cl
  00176	30 54 05 ec	 xor	 BYTE PTR __t$[ebp+eax], dl
  0017a	40		 inc	 eax
  0017b	83 f8 0a	 cmp	 eax, 10			; 0000000aH
  0017e	7c e3		 jl	 SHORT $LL101@operator@3
  00180	8b cf		 mov	 ecx, edi
  00182	8d 75 ec	 lea	 esi, DWORD PTR __t$[ebp]
  00185	ff 15 00 00 00
	00		 call	 DWORD PTR __imp_?c_str@ioHashString@@QBEPBDXZ
$LL111@operator@3:
  0018b	8a 08		 mov	 cl, BYTE PTR [eax]
  0018d	3a 0e		 cmp	 cl, BYTE PTR [esi]
  0018f	75 1a		 jne	 SHORT $LN112@operator@3
  00191	84 c9		 test	 cl, cl
  00193	74 12		 je	 SHORT $LN113@operator@3
  00195	8a 48 01	 mov	 cl, BYTE PTR [eax+1]
  00198	3a 4e 01	 cmp	 cl, BYTE PTR [esi+1]
  0019b	75 0e		 jne	 SHORT $LN112@operator@3
  0019d	83 c0 02	 add	 eax, 2
  001a0	83 c6 02	 add	 esi, 2
  001a3	84 c9		 test	 cl, cl
  001a5	75 e4		 jne	 SHORT $LL111@operator@3
$LN113@operator@3:
  001a7	33 c0		 xor	 eax, eax
  001a9	eb 05		 jmp	 SHORT $LN114@operator@3
$LN112@operator@3:
  001ab	1b c0		 sbb	 eax, eax
  001ad	83 d8 ff	 sbb	 eax, -1
$LN114@operator@3:
  001b0	33 c9		 xor	 ecx, ecx
  001b2	85 c0		 test	 eax, eax
  001b4	0f 94 c0	 sete	 al

; 148  : }

  001b7	8b 4d fc	 mov	 ecx, DWORD PTR __$ArrayPad$[ebp]
  001ba	5f		 pop	 edi
  001bb	33 cd		 xor	 ecx, ebp
  001bd	5e		 pop	 esi
  001be	e8 00 00 00 00	 call	 @__security_check_cookie@4
  001c3	c9		 leave
  001c4	c3		 ret	 0
??$?8$0L@@@YA_NABVioHashString@@AAY0L@$$CBD@Z ENDP	; operator==<11>
_TEXT	ENDS
PUBLIC	__$ArrayPad$
PUBLIC	??$?8$0O@@@YA_NABVioHashString@@AAY0O@$$CBD@Z	; operator==<14>
; Function compile flags: /Ogsp
;	COMDAT ??$?8$0O@@@YA_NABVioHashString@@AAY0O@$$CBD@Z
_TEXT	SEGMENT
__t$ = -24						; size = 14
__$ArrayPad$ = -4					; size = 4
_lhs$ = 8						; size = 4
_t$ = 12						; size = 4
??$?8$0O@@@YA_NABVioHashString@@AAY0O@$$CBD@Z PROC	; operator==<14>, COMDAT

; 146  : {

  00000	55		 push	 ebp
  00001	8b ec		 mov	 ebp, esp
  00003	83 ec 18	 sub	 esp, 24			; 00000018H
  00006	a1 00 00 00 00	 mov	 eax, DWORD PTR ___security_cookie
  0000b	33 c5		 xor	 eax, ebp
  0000d	89 45 fc	 mov	 DWORD PTR __$ArrayPad$[ebp], eax
  00010	8b 45 0c	 mov	 eax, DWORD PTR _t$[ebp]

; 147  : 	_ENCSTR(t, _t); return ( strcmp( lhs.c_str(), _t ) == 0 );

  00013	8a 10		 mov	 dl, BYTE PTR [eax]
  00015	56		 push	 esi
  00016	57		 push	 edi
  00017	8b 7d 08	 mov	 edi, DWORD PTR _lhs$[ebp]
  0001a	84 d2		 test	 dl, dl
  0001c	0f 84 64 01 00
	00		 je	 $LN96@operator@4
  00022	80 f2 ed	 xor	 dl, -19			; ffffffedH
  00025	88 55 e8	 mov	 BYTE PTR __t$[ebp], dl
  00028	8a 50 01	 mov	 dl, BYTE PTR [eax+1]
  0002b	84 d2		 test	 dl, dl
  0002d	0f 84 4d 01 00
	00		 je	 $LN95@operator@4
  00033	80 f2 ec	 xor	 dl, -20			; ffffffecH
  00036	88 55 e9	 mov	 BYTE PTR __t$[ebp+1], dl
  00039	8a 50 02	 mov	 dl, BYTE PTR [eax+2]
  0003c	84 d2		 test	 dl, dl
  0003e	0f 84 36 01 00
	00		 je	 $LN94@operator@4
  00044	b1 eb		 mov	 cl, -21			; ffffffebH
  00046	32 d1		 xor	 dl, cl
  00048	88 55 ea	 mov	 BYTE PTR __t$[ebp+2], dl
  0004b	8a 50 03	 mov	 dl, BYTE PTR [eax+3]
  0004e	84 d2		 test	 dl, dl
  00050	0f 84 1e 01 00
	00		 je	 $LN93@operator@4
  00056	80 f2 ea	 xor	 dl, -22			; ffffffeaH
  00059	88 55 eb	 mov	 BYTE PTR __t$[ebp+3], dl
  0005c	8a 50 04	 mov	 dl, BYTE PTR [eax+4]
  0005f	84 d2		 test	 dl, dl
  00061	0f 84 07 01 00
	00		 je	 $LN92@operator@4
  00067	80 f2 ed	 xor	 dl, -19			; ffffffedH
  0006a	88 55 ec	 mov	 BYTE PTR __t$[ebp+4], dl
  0006d	8a 50 05	 mov	 dl, BYTE PTR [eax+5]
  00070	84 d2		 test	 dl, dl
  00072	0f 84 f0 00 00
	00		 je	 $LN91@operator@4
  00078	80 f2 ec	 xor	 dl, -20			; ffffffecH
  0007b	88 55 ed	 mov	 BYTE PTR __t$[ebp+5], dl
  0007e	8a 50 06	 mov	 dl, BYTE PTR [eax+6]
  00081	84 d2		 test	 dl, dl
  00083	0f 84 da 00 00
	00		 je	 $LN90@operator@4
  00089	32 d1		 xor	 dl, cl
  0008b	88 55 ee	 mov	 BYTE PTR __t$[ebp+6], dl
  0008e	8a 50 07	 mov	 dl, BYTE PTR [eax+7]
  00091	84 d2		 test	 dl, dl
  00093	0f 84 c4 00 00
	00		 je	 $LN89@operator@4
  00099	80 f2 ea	 xor	 dl, -22			; ffffffeaH
  0009c	88 55 ef	 mov	 BYTE PTR __t$[ebp+7], dl
  0009f	8a 50 08	 mov	 dl, BYTE PTR [eax+8]
  000a2	84 d2		 test	 dl, dl
  000a4	0f 84 ad 00 00
	00		 je	 $LN88@operator@4
  000aa	80 f2 ed	 xor	 dl, -19			; ffffffedH
  000ad	88 55 f0	 mov	 BYTE PTR __t$[ebp+8], dl
  000b0	8a 50 09	 mov	 dl, BYTE PTR [eax+9]
  000b3	84 d2		 test	 dl, dl
  000b5	0f 84 96 00 00
	00		 je	 $LN87@operator@4
  000bb	80 f2 ec	 xor	 dl, -20			; ffffffecH
  000be	88 55 f1	 mov	 BYTE PTR __t$[ebp+9], dl
  000c1	8a 50 0a	 mov	 dl, BYTE PTR [eax+10]
  000c4	84 d2		 test	 dl, dl
  000c6	0f 84 80 00 00
	00		 je	 $LN86@operator@4
  000cc	32 d1		 xor	 dl, cl
  000ce	88 55 f2	 mov	 BYTE PTR __t$[ebp+10], dl
  000d1	8a 50 0b	 mov	 dl, BYTE PTR [eax+11]
  000d4	84 d2		 test	 dl, dl
  000d6	74 6e		 je	 SHORT $LN85@operator@4
  000d8	80 f2 ea	 xor	 dl, -22			; ffffffeaH
  000db	88 55 f3	 mov	 BYTE PTR __t$[ebp+11], dl
  000de	8a 50 0c	 mov	 dl, BYTE PTR [eax+12]
  000e1	84 d2		 test	 dl, dl
  000e3	74 5b		 je	 SHORT $LN84@operator@4
  000e5	80 f2 ed	 xor	 dl, -19			; ffffffedH
  000e8	80 78 0d 00	 cmp	 BYTE PTR [eax+13], 0
  000ec	88 55 f4	 mov	 BYTE PTR __t$[ebp+12], dl
  000ef	0f 84 95 00 00
	00		 je	 $LN1@operator@4
  000f5	8a 50 0e	 mov	 dl, BYTE PTR [eax+14]
  000f8	84 d2		 test	 dl, dl
  000fa	74 3f		 je	 SHORT $LN82@operator@4
  000fc	32 d1		 xor	 dl, cl
  000fe	88 55 f6	 mov	 BYTE PTR __t$[ebp+14], dl
  00101	8a 50 0f	 mov	 dl, BYTE PTR [eax+15]
  00104	84 d2		 test	 dl, dl
  00106	74 2d		 je	 SHORT $LN81@operator@4
  00108	80 f2 ea	 xor	 dl, -22			; ffffffeaH
  0010b	88 55 f7	 mov	 BYTE PTR __t$[ebp+15], dl
  0010e	8a 50 10	 mov	 dl, BYTE PTR [eax+16]
  00111	84 d2		 test	 dl, dl
  00113	74 1a		 je	 SHORT $LN80@operator@4
  00115	8a 40 11	 mov	 al, BYTE PTR [eax+17]
  00118	80 f2 ed	 xor	 dl, -19			; ffffffedH
  0011b	88 55 f8	 mov	 BYTE PTR __t$[ebp+16], dl
  0011e	84 c0		 test	 al, al
  00120	74 07		 je	 SHORT $LN79@operator@4
  00122	34 ec		 xor	 al, -20			; ffffffecH
  00124	88 45 f9	 mov	 BYTE PTR __t$[ebp+17], al
  00127	eb 61		 jmp	 SHORT $LN1@operator@4
$LN79@operator@4:
  00129	c6 45 f9 ec	 mov	 BYTE PTR __t$[ebp+17], -20 ; ffffffecH
  0012d	eb 5b		 jmp	 SHORT $LN1@operator@4
$LN80@operator@4:
  0012f	c6 45 f8 ed	 mov	 BYTE PTR __t$[ebp+16], -19 ; ffffffedH
  00133	eb 55		 jmp	 SHORT $LN1@operator@4
$LN81@operator@4:
  00135	c6 45 f7 ea	 mov	 BYTE PTR __t$[ebp+15], -22 ; ffffffeaH
  00139	eb 4f		 jmp	 SHORT $LN1@operator@4
$LN82@operator@4:
  0013b	88 4d f6	 mov	 BYTE PTR __t$[ebp+14], cl
  0013e	eb 4a		 jmp	 SHORT $LN1@operator@4
$LN84@operator@4:
  00140	c6 45 f4 ed	 mov	 BYTE PTR __t$[ebp+12], -19 ; ffffffedH
  00144	eb 44		 jmp	 SHORT $LN1@operator@4
$LN85@operator@4:
  00146	c6 45 f3 ea	 mov	 BYTE PTR __t$[ebp+11], -22 ; ffffffeaH
  0014a	eb 3e		 jmp	 SHORT $LN1@operator@4
$LN86@operator@4:
  0014c	88 4d f2	 mov	 BYTE PTR __t$[ebp+10], cl
  0014f	eb 39		 jmp	 SHORT $LN1@operator@4
$LN87@operator@4:
  00151	c6 45 f1 ec	 mov	 BYTE PTR __t$[ebp+9], -20 ; ffffffecH
  00155	eb 33		 jmp	 SHORT $LN1@operator@4
$LN88@operator@4:
  00157	c6 45 f0 ed	 mov	 BYTE PTR __t$[ebp+8], -19 ; ffffffedH
  0015b	eb 2d		 jmp	 SHORT $LN1@operator@4
$LN89@operator@4:
  0015d	c6 45 ef ea	 mov	 BYTE PTR __t$[ebp+7], -22 ; ffffffeaH
  00161	eb 27		 jmp	 SHORT $LN1@operator@4
$LN90@operator@4:
  00163	88 4d ee	 mov	 BYTE PTR __t$[ebp+6], cl
  00166	eb 22		 jmp	 SHORT $LN1@operator@4
$LN91@operator@4:
  00168	c6 45 ed ec	 mov	 BYTE PTR __t$[ebp+5], -20 ; ffffffecH
  0016c	eb 1c		 jmp	 SHORT $LN1@operator@4
$LN92@operator@4:
  0016e	c6 45 ec ed	 mov	 BYTE PTR __t$[ebp+4], -19 ; ffffffedH
  00172	eb 16		 jmp	 SHORT $LN1@operator@4
$LN93@operator@4:
  00174	c6 45 eb ea	 mov	 BYTE PTR __t$[ebp+3], -22 ; ffffffeaH
  00178	eb 10		 jmp	 SHORT $LN1@operator@4
$LN94@operator@4:
  0017a	c6 45 ea eb	 mov	 BYTE PTR __t$[ebp+2], -21 ; ffffffebH
  0017e	eb 0a		 jmp	 SHORT $LN1@operator@4
$LN95@operator@4:
  00180	c6 45 e9 ec	 mov	 BYTE PTR __t$[ebp+1], -20 ; ffffffecH
  00184	eb 04		 jmp	 SHORT $LN1@operator@4
$LN96@operator@4:
  00186	c6 45 e8 ed	 mov	 BYTE PTR __t$[ebp], -19	; ffffffedH
$LN1@operator@4:
  0018a	6a 03		 push	 3
  0018c	8d 45 e8	 lea	 eax, DWORD PTR __t$[ebp]
  0018f	c6 45 f5 00	 mov	 BYTE PTR __t$[ebp+13], 0
  00193	5a		 pop	 edx
$LL104@operator@4:
  00194	81 30 ed ec eb
	ea		 xor	 DWORD PTR [eax], -353637139 ; eaebecedH
  0019a	83 c0 04	 add	 eax, 4
  0019d	4a		 dec	 edx
  0019e	75 f4		 jne	 SHORT $LL104@operator@4
  001a0	80 75 f4 ed	 xor	 BYTE PTR __t$[ebp+12], -19 ; ffffffedH
  001a4	8b cf		 mov	 ecx, edi
  001a6	8d 75 e8	 lea	 esi, DWORD PTR __t$[ebp]
  001a9	ff 15 00 00 00
	00		 call	 DWORD PTR __imp_?c_str@ioHashString@@QBEPBDXZ
$LL111@operator@4:
  001af	8a 08		 mov	 cl, BYTE PTR [eax]
  001b1	3a 0e		 cmp	 cl, BYTE PTR [esi]
  001b3	75 1a		 jne	 SHORT $LN112@operator@4
  001b5	84 c9		 test	 cl, cl
  001b7	74 12		 je	 SHORT $LN113@operator@4
  001b9	8a 48 01	 mov	 cl, BYTE PTR [eax+1]
  001bc	3a 4e 01	 cmp	 cl, BYTE PTR [esi+1]
  001bf	75 0e		 jne	 SHORT $LN112@operator@4
  001c1	83 c0 02	 add	 eax, 2
  001c4	83 c6 02	 add	 esi, 2
  001c7	84 c9		 test	 cl, cl
  001c9	75 e4		 jne	 SHORT $LL111@operator@4
$LN113@operator@4:
  001cb	33 c0		 xor	 eax, eax
  001cd	eb 05		 jmp	 SHORT $LN114@operator@4
$LN112@operator@4:
  001cf	1b c0		 sbb	 eax, eax
  001d1	83 d8 ff	 sbb	 eax, -1
$LN114@operator@4:
  001d4	33 c9		 xor	 ecx, ecx
  001d6	85 c0		 test	 eax, eax
  001d8	0f 94 c0	 sete	 al

; 148  : }

  001db	8b 4d fc	 mov	 ecx, DWORD PTR __$ArrayPad$[ebp]
  001de	5f		 pop	 edi
  001df	33 cd		 xor	 ecx, ebp
  001e1	5e		 pop	 esi
  001e2	e8 00 00 00 00	 call	 @__security_check_cookie@4
  001e7	c9		 leave
  001e8	c3		 ret	 0
??$?8$0O@@@YA_NABVioHashString@@AAY0O@$$CBD@Z ENDP	; operator==<14>
_TEXT	ENDS
PUBLIC	__$ArrayPad$
PUBLIC	??$?8$09@@YA_NABVioHashString@@AAY09$$CBD@Z	; operator==<10>
; Function compile flags: /Ogsp
;	COMDAT ??$?8$09@@YA_NABVioHashString@@AAY09$$CBD@Z
_TEXT	SEGMENT
__t$ = -20						; size = 10
__$ArrayPad$ = -4					; size = 4
_lhs$ = 8						; size = 4
_t$ = 12						; size = 4
??$?8$09@@YA_NABVioHashString@@AAY09$$CBD@Z PROC	; operator==<10>, COMDAT

; 146  : {

  00000	55		 push	 ebp
  00001	8b ec		 mov	 ebp, esp
  00003	83 ec 14	 sub	 esp, 20			; 00000014H
  00006	a1 00 00 00 00	 mov	 eax, DWORD PTR ___security_cookie
  0000b	33 c5		 xor	 eax, ebp
  0000d	89 45 fc	 mov	 DWORD PTR __$ArrayPad$[ebp], eax
  00010	8b 45 0c	 mov	 eax, DWORD PTR _t$[ebp]

; 147  : 	_ENCSTR(t, _t); return ( strcmp( lhs.c_str(), _t ) == 0 );

  00013	8a 10		 mov	 dl, BYTE PTR [eax]
  00015	8b 4d 08	 mov	 ecx, DWORD PTR _lhs$[ebp]
  00018	84 d2		 test	 dl, dl
  0001a	0f 84 0d 01 00
	00		 je	 $LN96@operator@5
  00020	80 f2 ed	 xor	 dl, -19			; ffffffedH
  00023	88 55 ec	 mov	 BYTE PTR __t$[ebp], dl
  00026	8a 50 01	 mov	 dl, BYTE PTR [eax+1]
  00029	84 d2		 test	 dl, dl
  0002b	0f 84 f6 00 00
	00		 je	 $LN95@operator@5
  00031	80 f2 ec	 xor	 dl, -20			; ffffffecH
  00034	88 55 ed	 mov	 BYTE PTR __t$[ebp+1], dl
  00037	8a 50 02	 mov	 dl, BYTE PTR [eax+2]
  0003a	84 d2		 test	 dl, dl
  0003c	0f 84 df 00 00
	00		 je	 $LN94@operator@5
  00042	80 f2 eb	 xor	 dl, -21			; ffffffebH
  00045	88 55 ee	 mov	 BYTE PTR __t$[ebp+2], dl
  00048	8a 50 03	 mov	 dl, BYTE PTR [eax+3]
  0004b	84 d2		 test	 dl, dl
  0004d	0f 84 c8 00 00
	00		 je	 $LN93@operator@5
  00053	80 f2 ea	 xor	 dl, -22			; ffffffeaH
  00056	88 55 ef	 mov	 BYTE PTR __t$[ebp+3], dl
  00059	8a 50 04	 mov	 dl, BYTE PTR [eax+4]
  0005c	84 d2		 test	 dl, dl
  0005e	0f 84 b1 00 00
	00		 je	 $LN92@operator@5
  00064	80 f2 ed	 xor	 dl, -19			; ffffffedH
  00067	88 55 f0	 mov	 BYTE PTR __t$[ebp+4], dl
  0006a	8a 50 05	 mov	 dl, BYTE PTR [eax+5]
  0006d	84 d2		 test	 dl, dl
  0006f	0f 84 9a 00 00
	00		 je	 $LN91@operator@5
  00075	80 f2 ec	 xor	 dl, -20			; ffffffecH
  00078	88 55 f1	 mov	 BYTE PTR __t$[ebp+5], dl
  0007b	8a 50 06	 mov	 dl, BYTE PTR [eax+6]
  0007e	84 d2		 test	 dl, dl
  00080	0f 84 83 00 00
	00		 je	 $LN90@operator@5
  00086	80 f2 eb	 xor	 dl, -21			; ffffffebH
  00089	88 55 f2	 mov	 BYTE PTR __t$[ebp+6], dl
  0008c	8a 50 07	 mov	 dl, BYTE PTR [eax+7]
  0008f	84 d2		 test	 dl, dl
  00091	74 70		 je	 SHORT $LN89@operator@5
  00093	80 f2 ea	 xor	 dl, -22			; ffffffeaH
  00096	88 55 f3	 mov	 BYTE PTR __t$[ebp+7], dl
  00099	8a 50 08	 mov	 dl, BYTE PTR [eax+8]
  0009c	84 d2		 test	 dl, dl
  0009e	74 5d		 je	 SHORT $LN88@operator@5
  000a0	80 f2 ed	 xor	 dl, -19			; ffffffedH
  000a3	80 78 09 00	 cmp	 BYTE PTR [eax+9], 0
  000a7	88 55 f4	 mov	 BYTE PTR __t$[ebp+8], dl
  000aa	0f 84 81 00 00
	00		 je	 $LN1@operator@5
  000b0	8a 50 0a	 mov	 dl, BYTE PTR [eax+10]
  000b3	84 d2		 test	 dl, dl
  000b5	74 40		 je	 SHORT $LN86@operator@5
  000b7	80 f2 eb	 xor	 dl, -21			; ffffffebH
  000ba	88 55 f6	 mov	 BYTE PTR __t$[ebp+10], dl
  000bd	8a 50 0b	 mov	 dl, BYTE PTR [eax+11]
  000c0	84 d2		 test	 dl, dl
  000c2	74 2d		 je	 SHORT $LN85@operator@5
  000c4	80 f2 ea	 xor	 dl, -22			; ffffffeaH
  000c7	88 55 f7	 mov	 BYTE PTR __t$[ebp+11], dl
  000ca	8a 50 0c	 mov	 dl, BYTE PTR [eax+12]
  000cd	84 d2		 test	 dl, dl
  000cf	74 1a		 je	 SHORT $LN84@operator@5
  000d1	8a 40 0d	 mov	 al, BYTE PTR [eax+13]
  000d4	80 f2 ed	 xor	 dl, -19			; ffffffedH
  000d7	88 55 f8	 mov	 BYTE PTR __t$[ebp+12], dl
  000da	84 c0		 test	 al, al
  000dc	74 07		 je	 SHORT $LN83@operator@5
  000de	34 ec		 xor	 al, -20			; ffffffecH
  000e0	88 45 f9	 mov	 BYTE PTR __t$[ebp+13], al
  000e3	eb 4c		 jmp	 SHORT $LN1@operator@5
$LN83@operator@5:
  000e5	c6 45 f9 ec	 mov	 BYTE PTR __t$[ebp+13], -20 ; ffffffecH
  000e9	eb 46		 jmp	 SHORT $LN1@operator@5
$LN84@operator@5:
  000eb	c6 45 f8 ed	 mov	 BYTE PTR __t$[ebp+12], -19 ; ffffffedH
  000ef	eb 40		 jmp	 SHORT $LN1@operator@5
$LN85@operator@5:
  000f1	c6 45 f7 ea	 mov	 BYTE PTR __t$[ebp+11], -22 ; ffffffeaH
  000f5	eb 3a		 jmp	 SHORT $LN1@operator@5
$LN86@operator@5:
  000f7	c6 45 f6 eb	 mov	 BYTE PTR __t$[ebp+10], -21 ; ffffffebH
  000fb	eb 34		 jmp	 SHORT $LN1@operator@5
$LN88@operator@5:
  000fd	c6 45 f4 ed	 mov	 BYTE PTR __t$[ebp+8], -19 ; ffffffedH
  00101	eb 2e		 jmp	 SHORT $LN1@operator@5
$LN89@operator@5:
  00103	c6 45 f3 ea	 mov	 BYTE PTR __t$[ebp+7], -22 ; ffffffeaH
  00107	eb 28		 jmp	 SHORT $LN1@operator@5
$LN90@operator@5:
  00109	c6 45 f2 eb	 mov	 BYTE PTR __t$[ebp+6], -21 ; ffffffebH
  0010d	eb 22		 jmp	 SHORT $LN1@operator@5
$LN91@operator@5:
  0010f	c6 45 f1 ec	 mov	 BYTE PTR __t$[ebp+5], -20 ; ffffffecH
  00113	eb 1c		 jmp	 SHORT $LN1@operator@5
$LN92@operator@5:
  00115	c6 45 f0 ed	 mov	 BYTE PTR __t$[ebp+4], -19 ; ffffffedH
  00119	eb 16		 jmp	 SHORT $LN1@operator@5
$LN93@operator@5:
  0011b	c6 45 ef ea	 mov	 BYTE PTR __t$[ebp+3], -22 ; ffffffeaH
  0011f	eb 10		 jmp	 SHORT $LN1@operator@5
$LN94@operator@5:
  00121	c6 45 ee eb	 mov	 BYTE PTR __t$[ebp+2], -21 ; ffffffebH
  00125	eb 0a		 jmp	 SHORT $LN1@operator@5
$LN95@operator@5:
  00127	c6 45 ed ec	 mov	 BYTE PTR __t$[ebp+1], -20 ; ffffffecH
  0012b	eb 04		 jmp	 SHORT $LN1@operator@5
$LN96@operator@5:
  0012d	c6 45 ec ed	 mov	 BYTE PTR __t$[ebp], -19	; ffffffedH
$LN1@operator@5:
  00131	6a 02		 push	 2
  00133	8d 45 ec	 lea	 eax, DWORD PTR __t$[ebp]
  00136	c6 45 f5 00	 mov	 BYTE PTR __t$[ebp+9], 0
  0013a	5a		 pop	 edx
$LL104@operator@5:
  0013b	81 30 ed ec eb
	ea		 xor	 DWORD PTR [eax], -353637139 ; eaebecedH
  00141	83 c0 04	 add	 eax, 4
  00144	4a		 dec	 edx
  00145	75 f4		 jne	 SHORT $LL104@operator@5
  00147	80 75 f4 ed	 xor	 BYTE PTR __t$[ebp+8], -19 ; ffffffedH
  0014b	56		 push	 esi
  0014c	8d 75 ec	 lea	 esi, DWORD PTR __t$[ebp]
  0014f	ff 15 00 00 00
	00		 call	 DWORD PTR __imp_?c_str@ioHashString@@QBEPBDXZ
$LL111@operator@5:
  00155	8a 08		 mov	 cl, BYTE PTR [eax]
  00157	3a 0e		 cmp	 cl, BYTE PTR [esi]
  00159	75 1a		 jne	 SHORT $LN112@operator@5
  0015b	84 c9		 test	 cl, cl
  0015d	74 12		 je	 SHORT $LN113@operator@5
  0015f	8a 48 01	 mov	 cl, BYTE PTR [eax+1]
  00162	3a 4e 01	 cmp	 cl, BYTE PTR [esi+1]
  00165	75 0e		 jne	 SHORT $LN112@operator@5
  00167	83 c0 02	 add	 eax, 2
  0016a	83 c6 02	 add	 esi, 2
  0016d	84 c9		 test	 cl, cl
  0016f	75 e4		 jne	 SHORT $LL111@operator@5
$LN113@operator@5:
  00171	33 c0		 xor	 eax, eax
  00173	eb 05		 jmp	 SHORT $LN114@operator@5
$LN112@operator@5:
  00175	1b c0		 sbb	 eax, eax
  00177	83 d8 ff	 sbb	 eax, -1
$LN114@operator@5:
  0017a	33 c9		 xor	 ecx, ecx
  0017c	85 c0		 test	 eax, eax
  0017e	0f 94 c0	 sete	 al

; 148  : }

  00181	8b 4d fc	 mov	 ecx, DWORD PTR __$ArrayPad$[ebp]
  00184	33 cd		 xor	 ecx, ebp
  00186	5e		 pop	 esi
  00187	e8 00 00 00 00	 call	 @__security_check_cookie@4
  0018c	c9		 leave
  0018d	c3		 ret	 0
??$?8$09@@YA_NABVioHashString@@AAY09$$CBD@Z ENDP	; operator==<10>
_TEXT	ENDS
PUBLIC	__$ArrayPad$
PUBLIC	??$GetIntAttribute_e@$0BA@@ioXMLElement@@QBEHAAY0BA@$$CBD@Z ; ioXMLElement::GetIntAttribute_e<16>
EXTRN	__imp_?GetIntAttribute@ioXMLElement@@QBEHPBD@Z:PROC
; Function compile flags: /Ogsp
; File d:\lost saga for developer\youtube\tutorial\source\src\io3dengine\ioxmlelement.h
;	COMDAT ??$GetIntAttribute_e@$0BA@@ioXMLElement@@QBEHAAY0BA@$$CBD@Z
_TEXT	SEGMENT
__k$ = -24						; size = 16
__$ArrayPad$ = -4					; size = 4
_k$ = 8							; size = 4
??$GetIntAttribute_e@$0BA@@ioXMLElement@@QBEHAAY0BA@$$CBD@Z PROC ; ioXMLElement::GetIntAttribute_e<16>, COMDAT
; _this$ = ecx

; 86   : 	{

  00000	55		 push	 ebp
  00001	8b ec		 mov	 ebp, esp
  00003	83 ec 18	 sub	 esp, 24			; 00000018H
  00006	a1 00 00 00 00	 mov	 eax, DWORD PTR ___security_cookie
  0000b	33 c5		 xor	 eax, ebp
  0000d	89 45 fc	 mov	 DWORD PTR __$ArrayPad$[ebp], eax
  00010	8b 45 08	 mov	 eax, DWORD PTR _k$[ebp]

; 87   : 		_ENCSTR(k, _k);

  00013	8a 10		 mov	 dl, BYTE PTR [eax]
  00015	56		 push	 esi
  00016	8b f1		 mov	 esi, ecx
  00018	84 d2		 test	 dl, dl
  0001a	0f 84 8c 01 00
	00		 je	 $LN96@GetIntAttr
  00020	80 f2 ed	 xor	 dl, -19			; ffffffedH
  00023	88 55 e8	 mov	 BYTE PTR __k$[ebp], dl
  00026	8a 50 01	 mov	 dl, BYTE PTR [eax+1]
  00029	84 d2		 test	 dl, dl
  0002b	0f 84 75 01 00
	00		 je	 $LN95@GetIntAttr
  00031	80 f2 ec	 xor	 dl, -20			; ffffffecH
  00034	88 55 e9	 mov	 BYTE PTR __k$[ebp+1], dl
  00037	8a 50 02	 mov	 dl, BYTE PTR [eax+2]
  0003a	84 d2		 test	 dl, dl
  0003c	0f 84 5e 01 00
	00		 je	 $LN94@GetIntAttr
  00042	b1 eb		 mov	 cl, -21			; ffffffebH
  00044	32 d1		 xor	 dl, cl
  00046	88 55 ea	 mov	 BYTE PTR __k$[ebp+2], dl
  00049	8a 50 03	 mov	 dl, BYTE PTR [eax+3]
  0004c	84 d2		 test	 dl, dl
  0004e	0f 84 46 01 00
	00		 je	 $LN93@GetIntAttr
  00054	80 f2 ea	 xor	 dl, -22			; ffffffeaH
  00057	88 55 eb	 mov	 BYTE PTR __k$[ebp+3], dl
  0005a	8a 50 04	 mov	 dl, BYTE PTR [eax+4]
  0005d	84 d2		 test	 dl, dl
  0005f	0f 84 2f 01 00
	00		 je	 $LN92@GetIntAttr
  00065	80 f2 ed	 xor	 dl, -19			; ffffffedH
  00068	88 55 ec	 mov	 BYTE PTR __k$[ebp+4], dl
  0006b	8a 50 05	 mov	 dl, BYTE PTR [eax+5]
  0006e	84 d2		 test	 dl, dl
  00070	0f 84 18 01 00
	00		 je	 $LN91@GetIntAttr
  00076	80 f2 ec	 xor	 dl, -20			; ffffffecH
  00079	88 55 ed	 mov	 BYTE PTR __k$[ebp+5], dl
  0007c	8a 50 06	 mov	 dl, BYTE PTR [eax+6]
  0007f	84 d2		 test	 dl, dl
  00081	0f 84 02 01 00
	00		 je	 $LN90@GetIntAttr
  00087	32 d1		 xor	 dl, cl
  00089	88 55 ee	 mov	 BYTE PTR __k$[ebp+6], dl
  0008c	8a 50 07	 mov	 dl, BYTE PTR [eax+7]
  0008f	84 d2		 test	 dl, dl
  00091	0f 84 ec 00 00
	00		 je	 $LN89@GetIntAttr
  00097	80 f2 ea	 xor	 dl, -22			; ffffffeaH
  0009a	88 55 ef	 mov	 BYTE PTR __k$[ebp+7], dl
  0009d	8a 50 08	 mov	 dl, BYTE PTR [eax+8]
  000a0	84 d2		 test	 dl, dl
  000a2	0f 84 d5 00 00
	00		 je	 $LN88@GetIntAttr
  000a8	80 f2 ed	 xor	 dl, -19			; ffffffedH
  000ab	88 55 f0	 mov	 BYTE PTR __k$[ebp+8], dl
  000ae	8a 50 09	 mov	 dl, BYTE PTR [eax+9]
  000b1	84 d2		 test	 dl, dl
  000b3	0f 84 be 00 00
	00		 je	 $LN87@GetIntAttr
  000b9	80 f2 ec	 xor	 dl, -20			; ffffffecH
  000bc	88 55 f1	 mov	 BYTE PTR __k$[ebp+9], dl
  000bf	8a 50 0a	 mov	 dl, BYTE PTR [eax+10]
  000c2	84 d2		 test	 dl, dl
  000c4	0f 84 a8 00 00
	00		 je	 $LN86@GetIntAttr
  000ca	32 d1		 xor	 dl, cl
  000cc	88 55 f2	 mov	 BYTE PTR __k$[ebp+10], dl
  000cf	8a 50 0b	 mov	 dl, BYTE PTR [eax+11]
  000d2	84 d2		 test	 dl, dl
  000d4	0f 84 92 00 00
	00		 je	 $LN85@GetIntAttr
  000da	80 f2 ea	 xor	 dl, -22			; ffffffeaH
  000dd	88 55 f3	 mov	 BYTE PTR __k$[ebp+11], dl
  000e0	8a 50 0c	 mov	 dl, BYTE PTR [eax+12]
  000e3	84 d2		 test	 dl, dl
  000e5	74 7f		 je	 SHORT $LN84@GetIntAttr
  000e7	80 f2 ed	 xor	 dl, -19			; ffffffedH
  000ea	88 55 f4	 mov	 BYTE PTR __k$[ebp+12], dl
  000ed	8a 50 0d	 mov	 dl, BYTE PTR [eax+13]
  000f0	84 d2		 test	 dl, dl
  000f2	74 6c		 je	 SHORT $LN83@GetIntAttr
  000f4	80 f2 ec	 xor	 dl, -20			; ffffffecH
  000f7	88 55 f5	 mov	 BYTE PTR __k$[ebp+13], dl
  000fa	8a 50 0e	 mov	 dl, BYTE PTR [eax+14]
  000fd	84 d2		 test	 dl, dl
  000ff	74 5a		 je	 SHORT $LN82@GetIntAttr
  00101	32 d1		 xor	 dl, cl
  00103	80 78 0f 00	 cmp	 BYTE PTR [eax+15], 0
  00107	88 55 f6	 mov	 BYTE PTR __k$[ebp+14], dl
  0010a	0f 84 a0 00 00
	00		 je	 $LN1@GetIntAttr
  00110	8a 50 10	 mov	 dl, BYTE PTR [eax+16]
  00113	84 d2		 test	 dl, dl
  00115	74 3e		 je	 SHORT $LN80@GetIntAttr
  00117	80 f2 ed	 xor	 dl, -19			; ffffffedH
  0011a	88 55 f8	 mov	 BYTE PTR __k$[ebp+16], dl
  0011d	8a 50 11	 mov	 dl, BYTE PTR [eax+17]
  00120	84 d2		 test	 dl, dl
  00122	74 2b		 je	 SHORT $LN79@GetIntAttr
  00124	80 f2 ec	 xor	 dl, -20			; ffffffecH
  00127	88 55 f9	 mov	 BYTE PTR __k$[ebp+17], dl
  0012a	8a 50 12	 mov	 dl, BYTE PTR [eax+18]
  0012d	84 d2		 test	 dl, dl
  0012f	74 19		 je	 SHORT $LN78@GetIntAttr
  00131	8a 40 13	 mov	 al, BYTE PTR [eax+19]
  00134	32 d1		 xor	 dl, cl
  00136	88 55 fa	 mov	 BYTE PTR __k$[ebp+18], dl
  00139	84 c0		 test	 al, al
  0013b	74 07		 je	 SHORT $LN77@GetIntAttr
  0013d	34 ea		 xor	 al, -22			; ffffffeaH
  0013f	88 45 fb	 mov	 BYTE PTR __k$[ebp+19], al
  00142	eb 6c		 jmp	 SHORT $LN1@GetIntAttr
$LN77@GetIntAttr:
  00144	c6 45 fb ea	 mov	 BYTE PTR __k$[ebp+19], -22 ; ffffffeaH
  00148	eb 66		 jmp	 SHORT $LN1@GetIntAttr
$LN78@GetIntAttr:
  0014a	88 4d fa	 mov	 BYTE PTR __k$[ebp+18], cl
  0014d	eb 61		 jmp	 SHORT $LN1@GetIntAttr
$LN79@GetIntAttr:
  0014f	c6 45 f9 ec	 mov	 BYTE PTR __k$[ebp+17], -20 ; ffffffecH
  00153	eb 5b		 jmp	 SHORT $LN1@GetIntAttr
$LN80@GetIntAttr:
  00155	c6 45 f8 ed	 mov	 BYTE PTR __k$[ebp+16], -19 ; ffffffedH
  00159	eb 55		 jmp	 SHORT $LN1@GetIntAttr
$LN82@GetIntAttr:
  0015b	88 4d f6	 mov	 BYTE PTR __k$[ebp+14], cl
  0015e	eb 50		 jmp	 SHORT $LN1@GetIntAttr
$LN83@GetIntAttr:
  00160	c6 45 f5 ec	 mov	 BYTE PTR __k$[ebp+13], -20 ; ffffffecH
  00164	eb 4a		 jmp	 SHORT $LN1@GetIntAttr
$LN84@GetIntAttr:
  00166	c6 45 f4 ed	 mov	 BYTE PTR __k$[ebp+12], -19 ; ffffffedH
  0016a	eb 44		 jmp	 SHORT $LN1@GetIntAttr
$LN85@GetIntAttr:
  0016c	c6 45 f3 ea	 mov	 BYTE PTR __k$[ebp+11], -22 ; ffffffeaH
  00170	eb 3e		 jmp	 SHORT $LN1@GetIntAttr
$LN86@GetIntAttr:
  00172	88 4d f2	 mov	 BYTE PTR __k$[ebp+10], cl
  00175	eb 39		 jmp	 SHORT $LN1@GetIntAttr
$LN87@GetIntAttr:
  00177	c6 45 f1 ec	 mov	 BYTE PTR __k$[ebp+9], -20 ; ffffffecH
  0017b	eb 33		 jmp	 SHORT $LN1@GetIntAttr
$LN88@GetIntAttr:
  0017d	c6 45 f0 ed	 mov	 BYTE PTR __k$[ebp+8], -19 ; ffffffedH
  00181	eb 2d		 jmp	 SHORT $LN1@GetIntAttr
$LN89@GetIntAttr:
  00183	c6 45 ef ea	 mov	 BYTE PTR __k$[ebp+7], -22 ; ffffffeaH
  00187	eb 27		 jmp	 SHORT $LN1@GetIntAttr
$LN90@GetIntAttr:
  00189	88 4d ee	 mov	 BYTE PTR __k$[ebp+6], cl
  0018c	eb 22		 jmp	 SHORT $LN1@GetIntAttr
$LN91@GetIntAttr:
  0018e	c6 45 ed ec	 mov	 BYTE PTR __k$[ebp+5], -20 ; ffffffecH
  00192	eb 1c		 jmp	 SHORT $LN1@GetIntAttr
$LN92@GetIntAttr:
  00194	c6 45 ec ed	 mov	 BYTE PTR __k$[ebp+4], -19 ; ffffffedH
  00198	eb 16		 jmp	 SHORT $LN1@GetIntAttr
$LN93@GetIntAttr:
  0019a	c6 45 eb ea	 mov	 BYTE PTR __k$[ebp+3], -22 ; ffffffeaH
  0019e	eb 10		 jmp	 SHORT $LN1@GetIntAttr
$LN94@GetIntAttr:
  001a0	c6 45 ea eb	 mov	 BYTE PTR __k$[ebp+2], -21 ; ffffffebH
  001a4	eb 0a		 jmp	 SHORT $LN1@GetIntAttr
$LN95@GetIntAttr:
  001a6	c6 45 e9 ec	 mov	 BYTE PTR __k$[ebp+1], -20 ; ffffffecH
  001aa	eb 04		 jmp	 SHORT $LN1@GetIntAttr
$LN96@GetIntAttr:
  001ac	c6 45 e8 ed	 mov	 BYTE PTR __k$[ebp], -19	; ffffffedH
$LN1@GetIntAttr:
  001b0	6a 03		 push	 3
  001b2	8d 45 e8	 lea	 eax, DWORD PTR __k$[ebp]
  001b5	c6 45 f7 00	 mov	 BYTE PTR __k$[ebp+15], 0
  001b9	5a		 pop	 edx
$LL104@GetIntAttr:
  001ba	81 30 ed ec eb
	ea		 xor	 DWORD PTR [eax], -353637139 ; eaebecedH
  001c0	83 c0 04	 add	 eax, 4
  001c3	4a		 dec	 edx
  001c4	75 f4		 jne	 SHORT $LL104@GetIntAttr
  001c6	6a 0c		 push	 12			; 0000000cH
  001c8	58		 pop	 eax
$LL101@GetIntAttr:
  001c9	8b c8		 mov	 ecx, eax
  001cb	81 e1 03 00 00
	80		 and	 ecx, -2147483645	; 80000003H
  001d1	79 05		 jns	 SHORT $LN111@GetIntAttr
  001d3	49		 dec	 ecx
  001d4	83 c9 fc	 or	 ecx, -4			; fffffffcH
  001d7	41		 inc	 ecx
$LN111@GetIntAttr:
  001d8	b2 ed		 mov	 dl, -19			; ffffffedH
  001da	2a d1		 sub	 dl, cl
  001dc	30 54 05 e8	 xor	 BYTE PTR __k$[ebp+eax], dl
  001e0	40		 inc	 eax
  001e1	83 f8 0f	 cmp	 eax, 15			; 0000000fH
  001e4	7c e3		 jl	 SHORT $LL101@GetIntAttr

; 88   : 		return GetIntAttribute(_k);

  001e6	8d 45 e8	 lea	 eax, DWORD PTR __k$[ebp]
  001e9	50		 push	 eax
  001ea	8b ce		 mov	 ecx, esi
  001ec	ff 15 00 00 00
	00		 call	 DWORD PTR __imp_?GetIntAttribute@ioXMLElement@@QBEHPBD@Z

; 89   : 	}

  001f2	8b 4d fc	 mov	 ecx, DWORD PTR __$ArrayPad$[ebp]
  001f5	33 cd		 xor	 ecx, ebp
  001f7	5e		 pop	 esi
  001f8	e8 00 00 00 00	 call	 @__security_check_cookie@4
  001fd	c9		 leave
  001fe	c2 04 00	 ret	 4
??$GetIntAttribute_e@$0BA@@ioXMLElement@@QBEHAAY0BA@$$CBD@Z ENDP ; ioXMLElement::GetIntAttribute_e<16>
_TEXT	ENDS
PUBLIC	__$ArrayPad$
PUBLIC	??$GetIntAttribute_e@$0BD@@ioXMLElement@@QBEHAAY0BD@$$CBD@Z ; ioXMLElement::GetIntAttribute_e<19>
; Function compile flags: /Ogsp
;	COMDAT ??$GetIntAttribute_e@$0BD@@ioXMLElement@@QBEHAAY0BD@$$CBD@Z
_TEXT	SEGMENT
__k$ = -28						; size = 19
__$ArrayPad$ = -4					; size = 4
_k$ = 8							; size = 4
??$GetIntAttribute_e@$0BD@@ioXMLElement@@QBEHAAY0BD@$$CBD@Z PROC ; ioXMLElement::GetIntAttribute_e<19>, COMDAT
; _this$ = ecx

; 86   : 	{

  00000	55		 push	 ebp
  00001	8b ec		 mov	 ebp, esp
  00003	83 ec 1c	 sub	 esp, 28			; 0000001cH
  00006	a1 00 00 00 00	 mov	 eax, DWORD PTR ___security_cookie
  0000b	33 c5		 xor	 eax, ebp
  0000d	89 45 fc	 mov	 DWORD PTR __$ArrayPad$[ebp], eax
  00010	8b 45 08	 mov	 eax, DWORD PTR _k$[ebp]

; 87   : 		_ENCSTR(k, _k);

  00013	8a 10		 mov	 dl, BYTE PTR [eax]
  00015	56		 push	 esi
  00016	8b f1		 mov	 esi, ecx
  00018	84 d2		 test	 dl, dl
  0001a	0f 84 cf 01 00
	00		 je	 $LN96@GetIntAttr@2
  00020	80 f2 ed	 xor	 dl, -19			; ffffffedH
  00023	88 55 e4	 mov	 BYTE PTR __k$[ebp], dl
  00026	8a 50 01	 mov	 dl, BYTE PTR [eax+1]
  00029	84 d2		 test	 dl, dl
  0002b	0f 84 b8 01 00
	00		 je	 $LN95@GetIntAttr@2
  00031	b1 ec		 mov	 cl, -20			; ffffffecH
  00033	32 d1		 xor	 dl, cl
  00035	88 55 e5	 mov	 BYTE PTR __k$[ebp+1], dl
  00038	8a 50 02	 mov	 dl, BYTE PTR [eax+2]
  0003b	84 d2		 test	 dl, dl
  0003d	0f 84 a0 01 00
	00		 je	 $LN94@GetIntAttr@2
  00043	80 f2 eb	 xor	 dl, -21			; ffffffebH
  00046	88 55 e6	 mov	 BYTE PTR __k$[ebp+2], dl
  00049	8a 50 03	 mov	 dl, BYTE PTR [eax+3]
  0004c	84 d2		 test	 dl, dl
  0004e	0f 84 89 01 00
	00		 je	 $LN93@GetIntAttr@2
  00054	80 f2 ea	 xor	 dl, -22			; ffffffeaH
  00057	88 55 e7	 mov	 BYTE PTR __k$[ebp+3], dl
  0005a	8a 50 04	 mov	 dl, BYTE PTR [eax+4]
  0005d	84 d2		 test	 dl, dl
  0005f	0f 84 72 01 00
	00		 je	 $LN92@GetIntAttr@2
  00065	80 f2 ed	 xor	 dl, -19			; ffffffedH
  00068	88 55 e8	 mov	 BYTE PTR __k$[ebp+4], dl
  0006b	8a 50 05	 mov	 dl, BYTE PTR [eax+5]
  0006e	84 d2		 test	 dl, dl
  00070	0f 84 5c 01 00
	00		 je	 $LN91@GetIntAttr@2
  00076	32 d1		 xor	 dl, cl
  00078	88 55 e9	 mov	 BYTE PTR __k$[ebp+5], dl
  0007b	8a 50 06	 mov	 dl, BYTE PTR [eax+6]
  0007e	84 d2		 test	 dl, dl
  00080	0f 84 46 01 00
	00		 je	 $LN90@GetIntAttr@2
  00086	80 f2 eb	 xor	 dl, -21			; ffffffebH
  00089	88 55 ea	 mov	 BYTE PTR __k$[ebp+6], dl
  0008c	8a 50 07	 mov	 dl, BYTE PTR [eax+7]
  0008f	84 d2		 test	 dl, dl
  00091	0f 84 2f 01 00
	00		 je	 $LN89@GetIntAttr@2
  00097	80 f2 ea	 xor	 dl, -22			; ffffffeaH
  0009a	88 55 eb	 mov	 BYTE PTR __k$[ebp+7], dl
  0009d	8a 50 08	 mov	 dl, BYTE PTR [eax+8]
  000a0	84 d2		 test	 dl, dl
  000a2	0f 84 18 01 00
	00		 je	 $LN88@GetIntAttr@2
  000a8	80 f2 ed	 xor	 dl, -19			; ffffffedH
  000ab	88 55 ec	 mov	 BYTE PTR __k$[ebp+8], dl
  000ae	8a 50 09	 mov	 dl, BYTE PTR [eax+9]
  000b1	84 d2		 test	 dl, dl
  000b3	0f 84 02 01 00
	00		 je	 $LN87@GetIntAttr@2
  000b9	32 d1		 xor	 dl, cl
  000bb	88 55 ed	 mov	 BYTE PTR __k$[ebp+9], dl
  000be	8a 50 0a	 mov	 dl, BYTE PTR [eax+10]
  000c1	84 d2		 test	 dl, dl
  000c3	0f 84 ec 00 00
	00		 je	 $LN86@GetIntAttr@2
  000c9	80 f2 eb	 xor	 dl, -21			; ffffffebH
  000cc	88 55 ee	 mov	 BYTE PTR __k$[ebp+10], dl
  000cf	8a 50 0b	 mov	 dl, BYTE PTR [eax+11]
  000d2	84 d2		 test	 dl, dl
  000d4	0f 84 d5 00 00
	00		 je	 $LN85@GetIntAttr@2
  000da	80 f2 ea	 xor	 dl, -22			; ffffffeaH
  000dd	88 55 ef	 mov	 BYTE PTR __k$[ebp+11], dl
  000e0	8a 50 0c	 mov	 dl, BYTE PTR [eax+12]
  000e3	84 d2		 test	 dl, dl
  000e5	0f 84 be 00 00
	00		 je	 $LN84@GetIntAttr@2
  000eb	80 f2 ed	 xor	 dl, -19			; ffffffedH
  000ee	88 55 f0	 mov	 BYTE PTR __k$[ebp+12], dl
  000f1	8a 50 0d	 mov	 dl, BYTE PTR [eax+13]
  000f4	84 d2		 test	 dl, dl
  000f6	0f 84 a8 00 00
	00		 je	 $LN83@GetIntAttr@2
  000fc	32 d1		 xor	 dl, cl
  000fe	88 55 f1	 mov	 BYTE PTR __k$[ebp+13], dl
  00101	8a 50 0e	 mov	 dl, BYTE PTR [eax+14]
  00104	84 d2		 test	 dl, dl
  00106	0f 84 92 00 00
	00		 je	 $LN82@GetIntAttr@2
  0010c	80 f2 eb	 xor	 dl, -21			; ffffffebH
  0010f	88 55 f2	 mov	 BYTE PTR __k$[ebp+14], dl
  00112	8a 50 0f	 mov	 dl, BYTE PTR [eax+15]
  00115	84 d2		 test	 dl, dl
  00117	74 7f		 je	 SHORT $LN81@GetIntAttr@2
  00119	80 f2 ea	 xor	 dl, -22			; ffffffeaH
  0011c	88 55 f3	 mov	 BYTE PTR __k$[ebp+15], dl
  0011f	8a 50 10	 mov	 dl, BYTE PTR [eax+16]
  00122	84 d2		 test	 dl, dl
  00124	74 6c		 je	 SHORT $LN80@GetIntAttr@2
  00126	80 f2 ed	 xor	 dl, -19			; ffffffedH
  00129	88 55 f4	 mov	 BYTE PTR __k$[ebp+16], dl
  0012c	8a 50 11	 mov	 dl, BYTE PTR [eax+17]
  0012f	84 d2		 test	 dl, dl
  00131	74 5a		 je	 SHORT $LN79@GetIntAttr@2
  00133	32 d1		 xor	 dl, cl
  00135	80 78 12 00	 cmp	 BYTE PTR [eax+18], 0
  00139	88 55 f5	 mov	 BYTE PTR __k$[ebp+17], dl
  0013c	0f 84 b1 00 00
	00		 je	 $LN1@GetIntAttr@2
  00142	8a 50 13	 mov	 dl, BYTE PTR [eax+19]
  00145	84 d2		 test	 dl, dl
  00147	74 3e		 je	 SHORT $LN77@GetIntAttr@2
  00149	80 f2 ea	 xor	 dl, -22			; ffffffeaH
  0014c	88 55 f7	 mov	 BYTE PTR __k$[ebp+19], dl
  0014f	8a 50 14	 mov	 dl, BYTE PTR [eax+20]
  00152	84 d2		 test	 dl, dl
  00154	74 2b		 je	 SHORT $LN76@GetIntAttr@2
  00156	80 f2 ed	 xor	 dl, -19			; ffffffedH
  00159	88 55 f8	 mov	 BYTE PTR __k$[ebp+20], dl
  0015c	8a 50 15	 mov	 dl, BYTE PTR [eax+21]
  0015f	84 d2		 test	 dl, dl
  00161	74 19		 je	 SHORT $LN75@GetIntAttr@2
  00163	8a 40 16	 mov	 al, BYTE PTR [eax+22]
  00166	32 d1		 xor	 dl, cl
  00168	88 55 f9	 mov	 BYTE PTR __k$[ebp+21], dl
  0016b	84 c0		 test	 al, al
  0016d	74 07		 je	 SHORT $LN74@GetIntAttr@2
  0016f	34 eb		 xor	 al, -21			; ffffffebH
  00171	88 45 fa	 mov	 BYTE PTR __k$[ebp+22], al
  00174	eb 7d		 jmp	 SHORT $LN1@GetIntAttr@2
$LN74@GetIntAttr@2:
  00176	c6 45 fa eb	 mov	 BYTE PTR __k$[ebp+22], -21 ; ffffffebH
  0017a	eb 77		 jmp	 SHORT $LN1@GetIntAttr@2
$LN75@GetIntAttr@2:
  0017c	88 4d f9	 mov	 BYTE PTR __k$[ebp+21], cl
  0017f	eb 72		 jmp	 SHORT $LN1@GetIntAttr@2
$LN76@GetIntAttr@2:
  00181	c6 45 f8 ed	 mov	 BYTE PTR __k$[ebp+20], -19 ; ffffffedH
  00185	eb 6c		 jmp	 SHORT $LN1@GetIntAttr@2
$LN77@GetIntAttr@2:
  00187	c6 45 f7 ea	 mov	 BYTE PTR __k$[ebp+19], -22 ; ffffffeaH
  0018b	eb 66		 jmp	 SHORT $LN1@GetIntAttr@2
$LN79@GetIntAttr@2:
  0018d	88 4d f5	 mov	 BYTE PTR __k$[ebp+17], cl
  00190	eb 61		 jmp	 SHORT $LN1@GetIntAttr@2
$LN80@GetIntAttr@2:
  00192	c6 45 f4 ed	 mov	 BYTE PTR __k$[ebp+16], -19 ; ffffffedH
  00196	eb 5b		 jmp	 SHORT $LN1@GetIntAttr@2
$LN81@GetIntAttr@2:
  00198	c6 45 f3 ea	 mov	 BYTE PTR __k$[ebp+15], -22 ; ffffffeaH
  0019c	eb 55		 jmp	 SHORT $LN1@GetIntAttr@2
$LN82@GetIntAttr@2:
  0019e	c6 45 f2 eb	 mov	 BYTE PTR __k$[ebp+14], -21 ; ffffffebH
  001a2	eb 4f		 jmp	 SHORT $LN1@GetIntAttr@2
$LN83@GetIntAttr@2:
  001a4	88 4d f1	 mov	 BYTE PTR __k$[ebp+13], cl
  001a7	eb 4a		 jmp	 SHORT $LN1@GetIntAttr@2
$LN84@GetIntAttr@2:
  001a9	c6 45 f0 ed	 mov	 BYTE PTR __k$[ebp+12], -19 ; ffffffedH
  001ad	eb 44		 jmp	 SHORT $LN1@GetIntAttr@2
$LN85@GetIntAttr@2:
  001af	c6 45 ef ea	 mov	 BYTE PTR __k$[ebp+11], -22 ; ffffffeaH
  001b3	eb 3e		 jmp	 SHORT $LN1@GetIntAttr@2
$LN86@GetIntAttr@2:
  001b5	c6 45 ee eb	 mov	 BYTE PTR __k$[ebp+10], -21 ; ffffffebH
  001b9	eb 38		 jmp	 SHORT $LN1@GetIntAttr@2
$LN87@GetIntAttr@2:
  001bb	88 4d ed	 mov	 BYTE PTR __k$[ebp+9], cl
  001be	eb 33		 jmp	 SHORT $LN1@GetIntAttr@2
$LN88@GetIntAttr@2:
  001c0	c6 45 ec ed	 mov	 BYTE PTR __k$[ebp+8], -19 ; ffffffedH
  001c4	eb 2d		 jmp	 SHORT $LN1@GetIntAttr@2
$LN89@GetIntAttr@2:
  001c6	c6 45 eb ea	 mov	 BYTE PTR __k$[ebp+7], -22 ; ffffffeaH
  001ca	eb 27		 jmp	 SHORT $LN1@GetIntAttr@2
$LN90@GetIntAttr@2:
  001cc	c6 45 ea eb	 mov	 BYTE PTR __k$[ebp+6], -21 ; ffffffebH
  001d0	eb 21		 jmp	 SHORT $LN1@GetIntAttr@2
$LN91@GetIntAttr@2:
  001d2	88 4d e9	 mov	 BYTE PTR __k$[ebp+5], cl
  001d5	eb 1c		 jmp	 SHORT $LN1@GetIntAttr@2
$LN92@GetIntAttr@2:
  001d7	c6 45 e8 ed	 mov	 BYTE PTR __k$[ebp+4], -19 ; ffffffedH
  001db	eb 16		 jmp	 SHORT $LN1@GetIntAttr@2
$LN93@GetIntAttr@2:
  001dd	c6 45 e7 ea	 mov	 BYTE PTR __k$[ebp+3], -22 ; ffffffeaH
  001e1	eb 10		 jmp	 SHORT $LN1@GetIntAttr@2
$LN94@GetIntAttr@2:
  001e3	c6 45 e6 eb	 mov	 BYTE PTR __k$[ebp+2], -21 ; ffffffebH
  001e7	eb 0a		 jmp	 SHORT $LN1@GetIntAttr@2
$LN95@GetIntAttr@2:
  001e9	c6 45 e5 ec	 mov	 BYTE PTR __k$[ebp+1], -20 ; ffffffecH
  001ed	eb 04		 jmp	 SHORT $LN1@GetIntAttr@2
$LN96@GetIntAttr@2:
  001ef	c6 45 e4 ed	 mov	 BYTE PTR __k$[ebp], -19	; ffffffedH
$LN1@GetIntAttr@2:
  001f3	6a 04		 push	 4
  001f5	8d 45 e4	 lea	 eax, DWORD PTR __k$[ebp]
  001f8	c6 45 f6 00	 mov	 BYTE PTR __k$[ebp+18], 0
  001fc	5a		 pop	 edx
$LL104@GetIntAttr@2:
  001fd	81 30 ed ec eb
	ea		 xor	 DWORD PTR [eax], -353637139 ; eaebecedH
  00203	83 c0 04	 add	 eax, 4
  00206	4a		 dec	 edx
  00207	75 f4		 jne	 SHORT $LL104@GetIntAttr@2
  00209	6a 10		 push	 16			; 00000010H
  0020b	58		 pop	 eax
$LL101@GetIntAttr@2:
  0020c	8b c8		 mov	 ecx, eax
  0020e	81 e1 03 00 00
	80		 and	 ecx, -2147483645	; 80000003H
  00214	79 05		 jns	 SHORT $LN111@GetIntAttr@2
  00216	49		 dec	 ecx
  00217	83 c9 fc	 or	 ecx, -4			; fffffffcH
  0021a	41		 inc	 ecx
$LN111@GetIntAttr@2:
  0021b	b2 ed		 mov	 dl, -19			; ffffffedH
  0021d	2a d1		 sub	 dl, cl
  0021f	30 54 05 e4	 xor	 BYTE PTR __k$[ebp+eax], dl
  00223	40		 inc	 eax
  00224	83 f8 12	 cmp	 eax, 18			; 00000012H
  00227	7c e3		 jl	 SHORT $LL101@GetIntAttr@2

; 88   : 		return GetIntAttribute(_k);

  00229	8d 45 e4	 lea	 eax, DWORD PTR __k$[ebp]
  0022c	50		 push	 eax
  0022d	8b ce		 mov	 ecx, esi
  0022f	ff 15 00 00 00
	00		 call	 DWORD PTR __imp_?GetIntAttribute@ioXMLElement@@QBEHPBD@Z

; 89   : 	}

  00235	8b 4d fc	 mov	 ecx, DWORD PTR __$ArrayPad$[ebp]
  00238	33 cd		 xor	 ecx, ebp
  0023a	5e		 pop	 esi
  0023b	e8 00 00 00 00	 call	 @__security_check_cookie@4
  00240	c9		 leave
  00241	c2 04 00	 ret	 4
??$GetIntAttribute_e@$0BD@@ioXMLElement@@QBEHAAY0BD@$$CBD@Z ENDP ; ioXMLElement::GetIntAttribute_e<19>
_TEXT	ENDS
PUBLIC	??$?8$00@ioHashString@@QAE_NAAY00$$CBD@Z	; ioHashString::operator==<1>
; Function compile flags: /Ogsp
; File d:\lost saga for developer\youtube\tutorial\source\src\io3dengine\iohashstring.h
;	COMDAT ??$?8$00@ioHashString@@QAE_NAAY00$$CBD@Z
_TEXT	SEGMENT
__t$ = -5						; size = 1
_t$ = 8							; size = 4
??$?8$00@ioHashString@@QAE_NAAY00$$CBD@Z PROC		; ioHashString::operator==<1>, COMDAT
; _this$ = ecx

; 127  : 	{

  00000	55		 push	 ebp
  00001	8b ec		 mov	 ebp, esp
  00003	51		 push	 ecx
  00004	51		 push	 ecx

; 128  : 		_ENCSTR(t, _t); return ( strcmp( m_pString, _t ) == 0 );

  00005	8b 45 08	 mov	 eax, DWORD PTR _t$[ebp]
  00008	80 38 00	 cmp	 BYTE PTR [eax], 0
  0000b	74 4b		 je	 SHORT $LN2@operator@6
  0000d	8a 50 01	 mov	 dl, BYTE PTR [eax+1]
  00010	84 d2		 test	 dl, dl
  00012	74 40		 je	 SHORT $LN95@operator@6
  00014	80 f2 ec	 xor	 dl, -20			; ffffffecH
  00017	88 55 fc	 mov	 BYTE PTR __t$[ebp+1], dl
  0001a	8a 50 02	 mov	 dl, BYTE PTR [eax+2]
  0001d	84 d2		 test	 dl, dl
  0001f	74 2d		 je	 SHORT $LN94@operator@6
  00021	80 f2 eb	 xor	 dl, -21			; ffffffebH
  00024	88 55 fd	 mov	 BYTE PTR __t$[ebp+2], dl
  00027	8a 50 03	 mov	 dl, BYTE PTR [eax+3]
  0002a	84 d2		 test	 dl, dl
  0002c	74 1a		 je	 SHORT $LN93@operator@6
  0002e	8a 40 04	 mov	 al, BYTE PTR [eax+4]
  00031	80 f2 ea	 xor	 dl, -22			; ffffffeaH
  00034	88 55 fe	 mov	 BYTE PTR __t$[ebp+3], dl
  00037	84 c0		 test	 al, al
  00039	74 07		 je	 SHORT $LN92@operator@6
  0003b	34 ed		 xor	 al, -19			; ffffffedH
  0003d	88 45 ff	 mov	 BYTE PTR __t$[ebp+4], al
  00040	eb 16		 jmp	 SHORT $LN2@operator@6
$LN92@operator@6:
  00042	c6 45 ff ed	 mov	 BYTE PTR __t$[ebp+4], -19 ; ffffffedH
  00046	eb 10		 jmp	 SHORT $LN2@operator@6
$LN93@operator@6:
  00048	c6 45 fe ea	 mov	 BYTE PTR __t$[ebp+3], -22 ; ffffffeaH
  0004c	eb 0a		 jmp	 SHORT $LN2@operator@6
$LN94@operator@6:
  0004e	c6 45 fd eb	 mov	 BYTE PTR __t$[ebp+2], -21 ; ffffffebH
  00052	eb 04		 jmp	 SHORT $LN2@operator@6
$LN95@operator@6:
  00054	c6 45 fc ec	 mov	 BYTE PTR __t$[ebp+1], -20 ; ffffffecH
$LN2@operator@6:
  00058	8b 01		 mov	 eax, DWORD PTR [ecx]
  0005a	c6 45 fb 00	 mov	 BYTE PTR __t$[ebp], 0
  0005e	8d 55 fb	 lea	 edx, DWORD PTR __t$[ebp]
$LL111@operator@6:
  00061	8a 08		 mov	 cl, BYTE PTR [eax]
  00063	3a 0a		 cmp	 cl, BYTE PTR [edx]
  00065	75 1a		 jne	 SHORT $LN112@operator@6
  00067	84 c9		 test	 cl, cl
  00069	74 12		 je	 SHORT $LN113@operator@6
  0006b	8a 48 01	 mov	 cl, BYTE PTR [eax+1]
  0006e	3a 4a 01	 cmp	 cl, BYTE PTR [edx+1]
  00071	75 0e		 jne	 SHORT $LN112@operator@6
  00073	83 c0 02	 add	 eax, 2
  00076	83 c2 02	 add	 edx, 2
  00079	84 c9		 test	 cl, cl
  0007b	75 e4		 jne	 SHORT $LL111@operator@6
$LN113@operator@6:
  0007d	33 c0		 xor	 eax, eax
  0007f	eb 05		 jmp	 SHORT $LN114@operator@6
$LN112@operator@6:
  00081	1b c0		 sbb	 eax, eax
  00083	83 d8 ff	 sbb	 eax, -1
$LN114@operator@6:
  00086	33 c9		 xor	 ecx, ecx
  00088	85 c0		 test	 eax, eax
  0008a	0f 94 c0	 sete	 al

; 129  : 	}

  0008d	c9		 leave
  0008e	c2 04 00	 ret	 4
??$?8$00@ioHashString@@QAE_NAAY00$$CBD@Z ENDP		; ioHashString::operator==<1>
_TEXT	ENDS
PUBLIC	__$ArrayPad$
PUBLIC	??$GetIntAttribute_e@$09@ioXMLElement@@QBEHAAY09$$CBD@Z ; ioXMLElement::GetIntAttribute_e<10>
; Function compile flags: /Ogsp
; File d:\lost saga for developer\youtube\tutorial\source\src\io3dengine\ioxmlelement.h
;	COMDAT ??$GetIntAttribute_e@$09@ioXMLElement@@QBEHAAY09$$CBD@Z
_TEXT	SEGMENT
__k$ = -20						; size = 10
__$ArrayPad$ = -4					; size = 4
_k$ = 8							; size = 4
??$GetIntAttribute_e@$09@ioXMLElement@@QBEHAAY09$$CBD@Z PROC ; ioXMLElement::GetIntAttribute_e<10>, COMDAT
; _this$ = ecx

; 86   : 	{

  00000	55		 push	 ebp
  00001	8b ec		 mov	 ebp, esp
  00003	83 ec 14	 sub	 esp, 20			; 00000014H
  00006	a1 00 00 00 00	 mov	 eax, DWORD PTR ___security_cookie
  0000b	33 c5		 xor	 eax, ebp
  0000d	89 45 fc	 mov	 DWORD PTR __$ArrayPad$[ebp], eax
  00010	8b 45 08	 mov	 eax, DWORD PTR _k$[ebp]

; 87   : 		_ENCSTR(k, _k);

  00013	8a 10		 mov	 dl, BYTE PTR [eax]
  00015	84 d2		 test	 dl, dl
  00017	0f 84 0d 01 00
	00		 je	 $LN96@GetIntAttr@3
  0001d	80 f2 ed	 xor	 dl, -19			; ffffffedH
  00020	88 55 ec	 mov	 BYTE PTR __k$[ebp], dl
  00023	8a 50 01	 mov	 dl, BYTE PTR [eax+1]
  00026	84 d2		 test	 dl, dl
  00028	0f 84 f6 00 00
	00		 je	 $LN95@GetIntAttr@3
  0002e	80 f2 ec	 xor	 dl, -20			; ffffffecH
  00031	88 55 ed	 mov	 BYTE PTR __k$[ebp+1], dl
  00034	8a 50 02	 mov	 dl, BYTE PTR [eax+2]
  00037	84 d2		 test	 dl, dl
  00039	0f 84 df 00 00
	00		 je	 $LN94@GetIntAttr@3
  0003f	80 f2 eb	 xor	 dl, -21			; ffffffebH
  00042	88 55 ee	 mov	 BYTE PTR __k$[ebp+2], dl
  00045	8a 50 03	 mov	 dl, BYTE PTR [eax+3]
  00048	84 d2		 test	 dl, dl
  0004a	0f 84 c8 00 00
	00		 je	 $LN93@GetIntAttr@3
  00050	80 f2 ea	 xor	 dl, -22			; ffffffeaH
  00053	88 55 ef	 mov	 BYTE PTR __k$[ebp+3], dl
  00056	8a 50 04	 mov	 dl, BYTE PTR [eax+4]
  00059	84 d2		 test	 dl, dl
  0005b	0f 84 b1 00 00
	00		 je	 $LN92@GetIntAttr@3
  00061	80 f2 ed	 xor	 dl, -19			; ffffffedH
  00064	88 55 f0	 mov	 BYTE PTR __k$[ebp+4], dl
  00067	8a 50 05	 mov	 dl, BYTE PTR [eax+5]
  0006a	84 d2		 test	 dl, dl
  0006c	0f 84 9a 00 00
	00		 je	 $LN91@GetIntAttr@3
  00072	80 f2 ec	 xor	 dl, -20			; ffffffecH
  00075	88 55 f1	 mov	 BYTE PTR __k$[ebp+5], dl
  00078	8a 50 06	 mov	 dl, BYTE PTR [eax+6]
  0007b	84 d2		 test	 dl, dl
  0007d	0f 84 83 00 00
	00		 je	 $LN90@GetIntAttr@3
  00083	80 f2 eb	 xor	 dl, -21			; ffffffebH
  00086	88 55 f2	 mov	 BYTE PTR __k$[ebp+6], dl
  00089	8a 50 07	 mov	 dl, BYTE PTR [eax+7]
  0008c	84 d2		 test	 dl, dl
  0008e	74 70		 je	 SHORT $LN89@GetIntAttr@3
  00090	80 f2 ea	 xor	 dl, -22			; ffffffeaH
  00093	88 55 f3	 mov	 BYTE PTR __k$[ebp+7], dl
  00096	8a 50 08	 mov	 dl, BYTE PTR [eax+8]
  00099	84 d2		 test	 dl, dl
  0009b	74 5d		 je	 SHORT $LN88@GetIntAttr@3
  0009d	80 f2 ed	 xor	 dl, -19			; ffffffedH
  000a0	80 78 09 00	 cmp	 BYTE PTR [eax+9], 0
  000a4	88 55 f4	 mov	 BYTE PTR __k$[ebp+8], dl
  000a7	0f 84 81 00 00
	00		 je	 $LN1@GetIntAttr@3
  000ad	8a 50 0a	 mov	 dl, BYTE PTR [eax+10]
  000b0	84 d2		 test	 dl, dl
  000b2	74 40		 je	 SHORT $LN86@GetIntAttr@3
  000b4	80 f2 eb	 xor	 dl, -21			; ffffffebH
  000b7	88 55 f6	 mov	 BYTE PTR __k$[ebp+10], dl
  000ba	8a 50 0b	 mov	 dl, BYTE PTR [eax+11]
  000bd	84 d2		 test	 dl, dl
  000bf	74 2d		 je	 SHORT $LN85@GetIntAttr@3
  000c1	80 f2 ea	 xor	 dl, -22			; ffffffeaH
  000c4	88 55 f7	 mov	 BYTE PTR __k$[ebp+11], dl
  000c7	8a 50 0c	 mov	 dl, BYTE PTR [eax+12]
  000ca	84 d2		 test	 dl, dl
  000cc	74 1a		 je	 SHORT $LN84@GetIntAttr@3
  000ce	8a 40 0d	 mov	 al, BYTE PTR [eax+13]
  000d1	80 f2 ed	 xor	 dl, -19			; ffffffedH
  000d4	88 55 f8	 mov	 BYTE PTR __k$[ebp+12], dl
  000d7	84 c0		 test	 al, al
  000d9	74 07		 je	 SHORT $LN83@GetIntAttr@3
  000db	34 ec		 xor	 al, -20			; ffffffecH
  000dd	88 45 f9	 mov	 BYTE PTR __k$[ebp+13], al
  000e0	eb 4c		 jmp	 SHORT $LN1@GetIntAttr@3
$LN83@GetIntAttr@3:
  000e2	c6 45 f9 ec	 mov	 BYTE PTR __k$[ebp+13], -20 ; ffffffecH
  000e6	eb 46		 jmp	 SHORT $LN1@GetIntAttr@3
$LN84@GetIntAttr@3:
  000e8	c6 45 f8 ed	 mov	 BYTE PTR __k$[ebp+12], -19 ; ffffffedH
  000ec	eb 40		 jmp	 SHORT $LN1@GetIntAttr@3
$LN85@GetIntAttr@3:
  000ee	c6 45 f7 ea	 mov	 BYTE PTR __k$[ebp+11], -22 ; ffffffeaH
  000f2	eb 3a		 jmp	 SHORT $LN1@GetIntAttr@3
$LN86@GetIntAttr@3:
  000f4	c6 45 f6 eb	 mov	 BYTE PTR __k$[ebp+10], -21 ; ffffffebH
  000f8	eb 34		 jmp	 SHORT $LN1@GetIntAttr@3
$LN88@GetIntAttr@3:
  000fa	c6 45 f4 ed	 mov	 BYTE PTR __k$[ebp+8], -19 ; ffffffedH
  000fe	eb 2e		 jmp	 SHORT $LN1@GetIntAttr@3
$LN89@GetIntAttr@3:
  00100	c6 45 f3 ea	 mov	 BYTE PTR __k$[ebp+7], -22 ; ffffffeaH
  00104	eb 28		 jmp	 SHORT $LN1@GetIntAttr@3
$LN90@GetIntAttr@3:
  00106	c6 45 f2 eb	 mov	 BYTE PTR __k$[ebp+6], -21 ; ffffffebH
  0010a	eb 22		 jmp	 SHORT $LN1@GetIntAttr@3
$LN91@GetIntAttr@3:
  0010c	c6 45 f1 ec	 mov	 BYTE PTR __k$[ebp+5], -20 ; ffffffecH
  00110	eb 1c		 jmp	 SHORT $LN1@GetIntAttr@3
$LN92@GetIntAttr@3:
  00112	c6 45 f0 ed	 mov	 BYTE PTR __k$[ebp+4], -19 ; ffffffedH
  00116	eb 16		 jmp	 SHORT $LN1@GetIntAttr@3
$LN93@GetIntAttr@3:
  00118	c6 45 ef ea	 mov	 BYTE PTR __k$[ebp+3], -22 ; ffffffeaH
  0011c	eb 10		 jmp	 SHORT $LN1@GetIntAttr@3
$LN94@GetIntAttr@3:
  0011e	c6 45 ee eb	 mov	 BYTE PTR __k$[ebp+2], -21 ; ffffffebH
  00122	eb 0a		 jmp	 SHORT $LN1@GetIntAttr@3
$LN95@GetIntAttr@3:
  00124	c6 45 ed ec	 mov	 BYTE PTR __k$[ebp+1], -20 ; ffffffecH
  00128	eb 04		 jmp	 SHORT $LN1@GetIntAttr@3
$LN96@GetIntAttr@3:
  0012a	c6 45 ec ed	 mov	 BYTE PTR __k$[ebp], -19	; ffffffedH
$LN1@GetIntAttr@3:
  0012e	6a 02		 push	 2
  00130	8d 45 ec	 lea	 eax, DWORD PTR __k$[ebp]
  00133	c6 45 f5 00	 mov	 BYTE PTR __k$[ebp+9], 0
  00137	5a		 pop	 edx
$LL104@GetIntAttr@3:
  00138	81 30 ed ec eb
	ea		 xor	 DWORD PTR [eax], -353637139 ; eaebecedH
  0013e	83 c0 04	 add	 eax, 4
  00141	4a		 dec	 edx
  00142	75 f4		 jne	 SHORT $LL104@GetIntAttr@3
  00144	80 75 f4 ed	 xor	 BYTE PTR __k$[ebp+8], -19 ; ffffffedH

; 88   : 		return GetIntAttribute(_k);

  00148	8d 45 ec	 lea	 eax, DWORD PTR __k$[ebp]
  0014b	50		 push	 eax
  0014c	ff 15 00 00 00
	00		 call	 DWORD PTR __imp_?GetIntAttribute@ioXMLElement@@QBEHPBD@Z

; 89   : 	}

  00152	8b 4d fc	 mov	 ecx, DWORD PTR __$ArrayPad$[ebp]
  00155	33 cd		 xor	 ecx, ebp
  00157	e8 00 00 00 00	 call	 @__security_check_cookie@4
  0015c	c9		 leave
  0015d	c2 04 00	 ret	 4
??$GetIntAttribute_e@$09@ioXMLElement@@QBEHAAY09$$CBD@Z ENDP ; ioXMLElement::GetIntAttribute_e<10>
_TEXT	ENDS
PUBLIC	__$ArrayPad$
PUBLIC	??$GetIntAttribute_e@$07@ioXMLElement@@QBEHAAY07$$CBD@Z ; ioXMLElement::GetIntAttribute_e<8>
; Function compile flags: /Ogsp
;	COMDAT ??$GetIntAttribute_e@$07@ioXMLElement@@QBEHAAY07$$CBD@Z
_TEXT	SEGMENT
__k$ = -16						; size = 8
__$ArrayPad$ = -4					; size = 4
_k$ = 8							; size = 4
??$GetIntAttribute_e@$07@ioXMLElement@@QBEHAAY07$$CBD@Z PROC ; ioXMLElement::GetIntAttribute_e<8>, COMDAT
; _this$ = ecx

; 86   : 	{

  00000	55		 push	 ebp
  00001	8b ec		 mov	 ebp, esp
  00003	83 ec 10	 sub	 esp, 16			; 00000010H
  00006	a1 00 00 00 00	 mov	 eax, DWORD PTR ___security_cookie
  0000b	33 c5		 xor	 eax, ebp
  0000d	89 45 fc	 mov	 DWORD PTR __$ArrayPad$[ebp], eax
  00010	8b 45 08	 mov	 eax, DWORD PTR _k$[ebp]

; 87   : 		_ENCSTR(k, _k);

  00013	8a 10		 mov	 dl, BYTE PTR [eax]
  00015	56		 push	 esi
  00016	8b f1		 mov	 esi, ecx
  00018	84 d2		 test	 dl, dl
  0001a	0f 84 d7 00 00
	00		 je	 $LN96@GetIntAttr@4
  00020	80 f2 ed	 xor	 dl, -19			; ffffffedH
  00023	88 55 f0	 mov	 BYTE PTR __k$[ebp], dl
  00026	8a 50 01	 mov	 dl, BYTE PTR [eax+1]
  00029	84 d2		 test	 dl, dl
  0002b	0f 84 c0 00 00
	00		 je	 $LN95@GetIntAttr@4
  00031	80 f2 ec	 xor	 dl, -20			; ffffffecH
  00034	88 55 f1	 mov	 BYTE PTR __k$[ebp+1], dl
  00037	8a 50 02	 mov	 dl, BYTE PTR [eax+2]
  0003a	84 d2		 test	 dl, dl
  0003c	0f 84 a9 00 00
	00		 je	 $LN94@GetIntAttr@4
  00042	80 f2 eb	 xor	 dl, -21			; ffffffebH
  00045	88 55 f2	 mov	 BYTE PTR __k$[ebp+2], dl
  00048	8a 50 03	 mov	 dl, BYTE PTR [eax+3]
  0004b	84 d2		 test	 dl, dl
  0004d	0f 84 92 00 00
	00		 je	 $LN93@GetIntAttr@4
  00053	80 f2 ea	 xor	 dl, -22			; ffffffeaH
  00056	88 55 f3	 mov	 BYTE PTR __k$[ebp+3], dl
  00059	8a 50 04	 mov	 dl, BYTE PTR [eax+4]
  0005c	84 d2		 test	 dl, dl
  0005e	74 7f		 je	 SHORT $LN92@GetIntAttr@4
  00060	80 f2 ed	 xor	 dl, -19			; ffffffedH
  00063	88 55 f4	 mov	 BYTE PTR __k$[ebp+4], dl
  00066	8a 50 05	 mov	 dl, BYTE PTR [eax+5]
  00069	84 d2		 test	 dl, dl
  0006b	74 6c		 je	 SHORT $LN91@GetIntAttr@4
  0006d	80 f2 ec	 xor	 dl, -20			; ffffffecH
  00070	88 55 f5	 mov	 BYTE PTR __k$[ebp+5], dl
  00073	8a 50 06	 mov	 dl, BYTE PTR [eax+6]
  00076	84 d2		 test	 dl, dl
  00078	74 59		 je	 SHORT $LN90@GetIntAttr@4
  0007a	80 f2 eb	 xor	 dl, -21			; ffffffebH
  0007d	80 78 07 00	 cmp	 BYTE PTR [eax+7], 0
  00081	88 55 f6	 mov	 BYTE PTR __k$[ebp+6], dl
  00084	74 75		 je	 SHORT $LN1@GetIntAttr@4
  00086	8a 50 08	 mov	 dl, BYTE PTR [eax+8]
  00089	84 d2		 test	 dl, dl
  0008b	74 40		 je	 SHORT $LN88@GetIntAttr@4
  0008d	80 f2 ed	 xor	 dl, -19			; ffffffedH
  00090	88 55 f8	 mov	 BYTE PTR __k$[ebp+8], dl
  00093	8a 50 09	 mov	 dl, BYTE PTR [eax+9]
  00096	84 d2		 test	 dl, dl
  00098	74 2d		 je	 SHORT $LN87@GetIntAttr@4
  0009a	80 f2 ec	 xor	 dl, -20			; ffffffecH
  0009d	88 55 f9	 mov	 BYTE PTR __k$[ebp+9], dl
  000a0	8a 50 0a	 mov	 dl, BYTE PTR [eax+10]
  000a3	84 d2		 test	 dl, dl
  000a5	74 1a		 je	 SHORT $LN86@GetIntAttr@4
  000a7	8a 40 0b	 mov	 al, BYTE PTR [eax+11]
  000aa	80 f2 eb	 xor	 dl, -21			; ffffffebH
  000ad	88 55 fa	 mov	 BYTE PTR __k$[ebp+10], dl
  000b0	84 c0		 test	 al, al
  000b2	74 07		 je	 SHORT $LN85@GetIntAttr@4
  000b4	34 ea		 xor	 al, -22			; ffffffeaH
  000b6	88 45 fb	 mov	 BYTE PTR __k$[ebp+11], al
  000b9	eb 40		 jmp	 SHORT $LN1@GetIntAttr@4
$LN85@GetIntAttr@4:
  000bb	c6 45 fb ea	 mov	 BYTE PTR __k$[ebp+11], -22 ; ffffffeaH
  000bf	eb 3a		 jmp	 SHORT $LN1@GetIntAttr@4
$LN86@GetIntAttr@4:
  000c1	c6 45 fa eb	 mov	 BYTE PTR __k$[ebp+10], -21 ; ffffffebH
  000c5	eb 34		 jmp	 SHORT $LN1@GetIntAttr@4
$LN87@GetIntAttr@4:
  000c7	c6 45 f9 ec	 mov	 BYTE PTR __k$[ebp+9], -20 ; ffffffecH
  000cb	eb 2e		 jmp	 SHORT $LN1@GetIntAttr@4
$LN88@GetIntAttr@4:
  000cd	c6 45 f8 ed	 mov	 BYTE PTR __k$[ebp+8], -19 ; ffffffedH
  000d1	eb 28		 jmp	 SHORT $LN1@GetIntAttr@4
$LN90@GetIntAttr@4:
  000d3	c6 45 f6 eb	 mov	 BYTE PTR __k$[ebp+6], -21 ; ffffffebH
  000d7	eb 22		 jmp	 SHORT $LN1@GetIntAttr@4
$LN91@GetIntAttr@4:
  000d9	c6 45 f5 ec	 mov	 BYTE PTR __k$[ebp+5], -20 ; ffffffecH
  000dd	eb 1c		 jmp	 SHORT $LN1@GetIntAttr@4
$LN92@GetIntAttr@4:
  000df	c6 45 f4 ed	 mov	 BYTE PTR __k$[ebp+4], -19 ; ffffffedH
  000e3	eb 16		 jmp	 SHORT $LN1@GetIntAttr@4
$LN93@GetIntAttr@4:
  000e5	c6 45 f3 ea	 mov	 BYTE PTR __k$[ebp+3], -22 ; ffffffeaH
  000e9	eb 10		 jmp	 SHORT $LN1@GetIntAttr@4
$LN94@GetIntAttr@4:
  000eb	c6 45 f2 eb	 mov	 BYTE PTR __k$[ebp+2], -21 ; ffffffebH
  000ef	eb 0a		 jmp	 SHORT $LN1@GetIntAttr@4
$LN95@GetIntAttr@4:
  000f1	c6 45 f1 ec	 mov	 BYTE PTR __k$[ebp+1], -20 ; ffffffecH
  000f5	eb 04		 jmp	 SHORT $LN1@GetIntAttr@4
$LN96@GetIntAttr@4:
  000f7	c6 45 f0 ed	 mov	 BYTE PTR __k$[ebp], -19	; ffffffedH
$LN1@GetIntAttr@4:
  000fb	81 75 f0 ed ec
	eb ea		 xor	 DWORD PTR __k$[ebp], -353637139 ; eaebecedH
  00102	6a 04		 push	 4
  00104	c6 45 f7 00	 mov	 BYTE PTR __k$[ebp+7], 0
  00108	58		 pop	 eax
$LL101@GetIntAttr@4:
  00109	8b c8		 mov	 ecx, eax
  0010b	81 e1 03 00 00
	80		 and	 ecx, -2147483645	; 80000003H
  00111	79 05		 jns	 SHORT $LN111@GetIntAttr@4
  00113	49		 dec	 ecx
  00114	83 c9 fc	 or	 ecx, -4			; fffffffcH
  00117	41		 inc	 ecx
$LN111@GetIntAttr@4:
  00118	b2 ed		 mov	 dl, -19			; ffffffedH
  0011a	2a d1		 sub	 dl, cl
  0011c	30 54 05 f0	 xor	 BYTE PTR __k$[ebp+eax], dl
  00120	40		 inc	 eax
  00121	83 f8 07	 cmp	 eax, 7
  00124	7c e3		 jl	 SHORT $LL101@GetIntAttr@4

; 88   : 		return GetIntAttribute(_k);

  00126	8d 45 f0	 lea	 eax, DWORD PTR __k$[ebp]
  00129	50		 push	 eax
  0012a	8b ce		 mov	 ecx, esi
  0012c	ff 15 00 00 00
	00		 call	 DWORD PTR __imp_?GetIntAttribute@ioXMLElement@@QBEHPBD@Z

; 89   : 	}

  00132	8b 4d fc	 mov	 ecx, DWORD PTR __$ArrayPad$[ebp]
  00135	33 cd		 xor	 ecx, ebp
  00137	5e		 pop	 esi
  00138	e8 00 00 00 00	 call	 @__security_check_cookie@4
  0013d	c9		 leave
  0013e	c2 04 00	 ret	 4
??$GetIntAttribute_e@$07@ioXMLElement@@QBEHAAY07$$CBD@Z ENDP ; ioXMLElement::GetIntAttribute_e<8>
_TEXT	ENDS
PUBLIC	??$_Copy_impl@PAVGashaponPresent@@PAV1@@std@@YAPAVGashaponPresent@@PAV1@00@Z ; std::_Copy_impl<GashaponPresent *,GashaponPresent *>
; Function compile flags: /Ogsp
; File c:\program files (x86)\microsoft visual studio 10.0\vc\include\xutility
;	COMDAT ??$_Copy_impl@PAVGashaponPresent@@PAV1@@std@@YAPAVGashaponPresent@@PAV1@00@Z
_TEXT	SEGMENT
__Cat$518285 = -4					; size = 1
__First$ = 8						; size = 4
__Last$ = 12						; size = 4
__Dest$ = 16						; size = 4
??$_Copy_impl@PAVGashaponPresent@@PAV1@@std@@YAPAVGashaponPresent@@PAV1@00@Z PROC ; std::_Copy_impl<GashaponPresent *,GashaponPresent *>, COMDAT

; 2163 : 	{	// copy [_First, _Last) to [_Dest, ...)

  00000	55		 push	 ebp
  00001	8b ec		 mov	 ebp, esp
  00003	51		 push	 ecx

; 2164 : 	return (_Copy_impl(_First, _Last,
; 2165 : 		_Dest, _Ptr_cat(_First, _Dest)));

  00004	ff 75 fc	 push	 DWORD PTR __Cat$518285[ebp]
  00007	ff 75 10	 push	 DWORD PTR __Dest$[ebp]
  0000a	ff 75 0c	 push	 DWORD PTR __Last$[ebp]
  0000d	ff 75 08	 push	 DWORD PTR __First$[ebp]
  00010	e8 00 00 00 00	 call	 ??$_Copy_impl@PAVGashaponPresent@@PAV1@@std@@YAPAVGashaponPresent@@PAV1@00U_Nonscalar_ptr_iterator_tag@0@@Z ; std::_Copy_impl<GashaponPresent *,GashaponPresent *>
  00015	83 c4 10	 add	 esp, 16			; 00000010H

; 2166 : 	}

  00018	c9		 leave
  00019	c3		 ret	 0
??$_Copy_impl@PAVGashaponPresent@@PAV1@@std@@YAPAVGashaponPresent@@PAV1@00@Z ENDP ; std::_Copy_impl<GashaponPresent *,GashaponPresent *>
_TEXT	ENDS
PUBLIC	?construct@?$allocator@H@std@@QAEXPAHABH@Z	; std::allocator<int>::construct
; Function compile flags: /Ogsp
; File c:\program files (x86)\microsoft visual studio 10.0\vc\include\xmemory
;	COMDAT ?construct@?$allocator@H@std@@QAEXPAHABH@Z
_TEXT	SEGMENT
__Ptr$ = 8						; size = 4
__Val$ = 12						; size = 4
?construct@?$allocator@H@std@@QAEXPAHABH@Z PROC		; std::allocator<int>::construct, COMDAT
; _this$ = ecx

; 196  : 		{	// construct object at _Ptr with value _Val

  00000	55		 push	 ebp
  00001	8b ec		 mov	 ebp, esp

; 197  : 		_Construct(_Ptr, _Val);

  00003	8b 45 08	 mov	 eax, DWORD PTR __Ptr$[ebp]
  00006	85 c0		 test	 eax, eax
  00008	74 07		 je	 SHORT $LN5@construct@2
  0000a	8b 4d 0c	 mov	 ecx, DWORD PTR __Val$[ebp]
  0000d	8b 09		 mov	 ecx, DWORD PTR [ecx]
  0000f	89 08		 mov	 DWORD PTR [eax], ecx
$LN5@construct@2:

; 198  : 		}

  00011	5d		 pop	 ebp
  00012	c2 08 00	 ret	 8
?construct@?$allocator@H@std@@QAEXPAHABH@Z ENDP		; std::allocator<int>::construct
_TEXT	ENDS
PUBLIC	??$construct@AAVioHashString@@@?$allocator@VioHashString@@@std@@QAEXPAVioHashString@@AAV2@@Z ; std::allocator<ioHashString>::construct<ioHashString &>
;	COMDAT xdata$x
; File c:\program files (x86)\microsoft visual studio 10.0\vc\include\utility
xdata$x	SEGMENT
__unwindtable$??$construct@AAVioHashString@@@?$allocator@VioHashString@@@std@@QAEXPAVioHashString@@AAV2@@Z DD 0ffffffffH
	DD	FLAT:__unwindfunclet$??$construct@AAVioHashString@@@?$allocator@VioHashString@@@std@@QAEXPAVioHashString@@AAV2@@Z$0
__ehfuncinfo$??$construct@AAVioHashString@@@?$allocator@VioHashString@@@std@@QAEXPAVioHashString@@AAV2@@Z DD 019930522H
	DD	01H
	DD	FLAT:__unwindtable$??$construct@AAVioHashString@@@?$allocator@VioHashString@@@std@@QAEXPAVioHashString@@AAV2@@Z
	DD	2 DUP(00H)
	DD	2 DUP(00H)
	DD	00H
	DD	01H
; Function compile flags: /Ogsp
; File c:\program files (x86)\microsoft visual studio 10.0\vc\include\xmemory
xdata$x	ENDS
;	COMDAT ??$construct@AAVioHashString@@@?$allocator@VioHashString@@@std@@QAEXPAVioHashString@@AAV2@@Z
_TEXT	SEGMENT
$T518314 = -16						; size = 4
__$EHRec$ = -12						; size = 12
__Ptr$ = 8						; size = 4
__Val$ = 12						; size = 4
??$construct@AAVioHashString@@@?$allocator@VioHashString@@@std@@QAEXPAVioHashString@@AAV2@@Z PROC ; std::allocator<ioHashString>::construct<ioHashString &>, COMDAT
; _this$ = ecx

; 206  : 		void construct(pointer _Ptr, _Other&& _Val)

  00000	6a 04		 push	 4
  00002	b8 00 00 00 00	 mov	 eax, __ehhandler$??$construct@AAVioHashString@@@?$allocator@VioHashString@@@std@@QAEXPAVioHashString@@AAV2@@Z
  00007	e8 00 00 00 00	 call	 __EH_prolog3

; 207  : 		{	// construct object at _Ptr with value _Val
; 208  : 		::new ((void _FARQ *)_Ptr) _Ty(_STD forward<_Other>(_Val));

  0000c	8b 4d 08	 mov	 ecx, DWORD PTR __Ptr$[ebp]
  0000f	89 4d f0	 mov	 DWORD PTR $T518314[ebp], ecx
  00012	83 65 fc 00	 and	 DWORD PTR __$EHRec$[ebp+8], 0
  00016	85 c9		 test	 ecx, ecx
  00018	74 09		 je	 SHORT $LN3@construct@3
  0001a	ff 75 0c	 push	 DWORD PTR __Val$[ebp]
  0001d	ff 15 00 00 00
	00		 call	 DWORD PTR __imp_??0ioHashString@@QAE@ABV0@@Z
$LN3@construct@3:

; 209  : 		}

  00023	e8 00 00 00 00	 call	 __EH_epilog3
  00028	c2 08 00	 ret	 8
_TEXT	ENDS
;	COMDAT text$x
text$x	SEGMENT
__unwindfunclet$??$construct@AAVioHashString@@@?$allocator@VioHashString@@@std@@QAEXPAVioHashString@@AAV2@@Z$0:
  00000	ff 75 08	 push	 DWORD PTR __Ptr$[ebp]
  00003	ff 75 f0	 push	 DWORD PTR $T518314[ebp]
  00006	e8 00 00 00 00	 call	 ??3@YAXPAX0@Z		; operator delete
  0000b	59		 pop	 ecx
  0000c	59		 pop	 ecx
  0000d	c3		 ret	 0
__ehhandler$??$construct@AAVioHashString@@@?$allocator@VioHashString@@@std@@QAEXPAVioHashString@@AAV2@@Z:
  0000e	8b 54 24 08	 mov	 edx, DWORD PTR [esp+8]
  00012	8d 42 0c	 lea	 eax, DWORD PTR [edx+12]
  00015	8b 4a ec	 mov	 ecx, DWORD PTR [edx-20]
  00018	33 c8		 xor	 ecx, eax
  0001a	e8 00 00 00 00	 call	 @__security_check_cookie@4
  0001f	b8 00 00 00 00	 mov	 eax, OFFSET __ehfuncinfo$??$construct@AAVioHashString@@@?$allocator@VioHashString@@@std@@QAEXPAVioHashString@@AAV2@@Z
  00024	e9 00 00 00 00	 jmp	 ___CxxFrameHandler3
text$x	ENDS
??$construct@AAVioHashString@@@?$allocator@VioHashString@@@std@@QAEXPAVioHashString@@AAV2@@Z ENDP ; std::allocator<ioHashString>::construct<ioHashString &>
PUBLIC	??$construct@AAH@?$allocator@H@std@@QAEXPAHAAH@Z ; std::allocator<int>::construct<int &>
; Function compile flags: /Ogsp
;	COMDAT ??$construct@AAH@?$allocator@H@std@@QAEXPAHAAH@Z
_TEXT	SEGMENT
__Ptr$ = 8						; size = 4
__Val$ = 12						; size = 4
??$construct@AAH@?$allocator@H@std@@QAEXPAHAAH@Z PROC	; std::allocator<int>::construct<int &>, COMDAT
; _this$ = ecx

; 206  : 		void construct(pointer _Ptr, _Other&& _Val)

  00000	55		 push	 ebp
  00001	8b ec		 mov	 ebp, esp

; 207  : 		{	// construct object at _Ptr with value _Val
; 208  : 		::new ((void _FARQ *)_Ptr) _Ty(_STD forward<_Other>(_Val));

  00003	8b 45 08	 mov	 eax, DWORD PTR __Ptr$[ebp]
  00006	85 c0		 test	 eax, eax
  00008	74 07		 je	 SHORT $LN3@construct@4
  0000a	8b 4d 0c	 mov	 ecx, DWORD PTR __Val$[ebp]
  0000d	8b 09		 mov	 ecx, DWORD PTR [ecx]
  0000f	89 08		 mov	 DWORD PTR [eax], ecx
$LN3@construct@4:

; 209  : 		}

  00011	5d		 pop	 ebp
  00012	c2 08 00	 ret	 8
??$construct@AAH@?$allocator@H@std@@QAEXPAHAAH@Z ENDP	; std::allocator<int>::construct<int &>
_TEXT	ENDS
PUBLIC	??$_Move@PAVGashaponPresent@@PAV1@@std@@YAPAVGashaponPresent@@PAV1@00U_Nonscalar_ptr_iterator_tag@0@@Z ; std::_Move<GashaponPresent *,GashaponPresent *>
; Function compile flags: /Ogsp
; File c:\program files (x86)\microsoft visual studio 10.0\vc\include\xutility
;	COMDAT ??$_Move@PAVGashaponPresent@@PAV1@@std@@YAPAVGashaponPresent@@PAV1@00U_Nonscalar_ptr_iterator_tag@0@@Z
_TEXT	SEGMENT
__First$ = 8						; size = 4
__Last$ = 12						; size = 4
__Dest$ = 16						; size = 4
___formal$ = 20						; size = 1
??$_Move@PAVGashaponPresent@@PAV1@@std@@YAPAVGashaponPresent@@PAV1@00U_Nonscalar_ptr_iterator_tag@0@@Z PROC ; std::_Move<GashaponPresent *,GashaponPresent *>, COMDAT

; 2512 : 	{	// move [_First, _Last) to [_Dest, ...), arbitrary iterators

  00000	55		 push	 ebp
  00001	8b ec		 mov	 ebp, esp

; 2513 : 	for (; _First != _Last; ++_Dest, ++_First)

  00003	8b 45 08	 mov	 eax, DWORD PTR __First$[ebp]
  00006	3b 45 0c	 cmp	 eax, DWORD PTR __Last$[ebp]
  00009	74 1a		 je	 SHORT $LN10@Move
  0000b	56		 push	 esi
  0000c	57		 push	 edi
$LL3@Move:

; 2514 : 		*_Dest = _STD move(*_First);

  0000d	8b 7d 10	 mov	 edi, DWORD PTR __Dest$[ebp]
  00010	83 45 10 14	 add	 DWORD PTR __Dest$[ebp], 20 ; 00000014H
  00014	8b f0		 mov	 esi, eax
  00016	6a 05		 push	 5
  00018	83 c0 14	 add	 eax, 20			; 00000014H
  0001b	59		 pop	 ecx
  0001c	f3 a5		 rep movsd
  0001e	3b 45 0c	 cmp	 eax, DWORD PTR __Last$[ebp]
  00021	75 ea		 jne	 SHORT $LL3@Move
  00023	5f		 pop	 edi
  00024	5e		 pop	 esi
$LN10@Move:

; 2515 : 	return (_Dest);

  00025	8b 45 10	 mov	 eax, DWORD PTR __Dest$[ebp]

; 2516 : 	}

  00028	5d		 pop	 ebp
  00029	c3		 ret	 0
??$_Move@PAVGashaponPresent@@PAV1@@std@@YAPAVGashaponPresent@@PAV1@00U_Nonscalar_ptr_iterator_tag@0@@Z ENDP ; std::_Move<GashaponPresent *,GashaponPresent *>
_TEXT	ENDS
PUBLIC	??$_Cons_val@V?$allocator@VGashaponPresent@@@std@@VGashaponPresent@@AAV3@@std@@YAXAAV?$allocator@VGashaponPresent@@@0@PAVGashaponPresent@@AAV2@@Z ; std::_Cons_val<std::allocator<GashaponPresent>,GashaponPresent,GashaponPresent &>
; Function compile flags: /Ogsp
; File c:\program files (x86)\microsoft visual studio 10.0\vc\include\xmemory
;	COMDAT ??$_Cons_val@V?$allocator@VGashaponPresent@@@std@@VGashaponPresent@@AAV3@@std@@YAXAAV?$allocator@VGashaponPresent@@@0@PAVGashaponPresent@@AAV2@@Z
_TEXT	SEGMENT
__Alval$ = 8						; size = 4
__Pdest$ = 12						; size = 4
__Src$ = 16						; size = 4
??$_Cons_val@V?$allocator@VGashaponPresent@@@std@@VGashaponPresent@@AAV3@@std@@YAXAAV?$allocator@VGashaponPresent@@@0@PAVGashaponPresent@@AAV2@@Z PROC ; std::_Cons_val<std::allocator<GashaponPresent>,GashaponPresent,GashaponPresent &>, COMDAT

; 279  : 	{	// construct using allocator

  00000	55		 push	 ebp
  00001	8b ec		 mov	 ebp, esp
  00003	57		 push	 edi

; 280  : 	_Alval.construct(_Pdest, _STD forward<_Ty2>(_Src));

  00004	8b 7d 0c	 mov	 edi, DWORD PTR __Pdest$[ebp]
  00007	85 ff		 test	 edi, edi
  00009	74 0a		 je	 SHORT $LN7@Cons_val
  0000b	56		 push	 esi
  0000c	8b 75 10	 mov	 esi, DWORD PTR __Src$[ebp]
  0000f	6a 05		 push	 5
  00011	59		 pop	 ecx
  00012	f3 a5		 rep movsd
  00014	5e		 pop	 esi
$LN7@Cons_val:
  00015	5f		 pop	 edi

; 281  : 	}

  00016	5d		 pop	 ebp
  00017	c3		 ret	 0
??$_Cons_val@V?$allocator@VGashaponPresent@@@std@@VGashaponPresent@@AAV3@@std@@YAXAAV?$allocator@VGashaponPresent@@@0@PAVGashaponPresent@@AAV2@@Z ENDP ; std::_Cons_val<std::allocator<GashaponPresent>,GashaponPresent,GashaponPresent &>
_TEXT	ENDS
PUBLIC	?construct@?$allocator@VioHashString@@@std@@QAEXPAVioHashString@@$$QAV3@@Z ; std::allocator<ioHashString>::construct
;	COMDAT xdata$x
; File c:\program files (x86)\microsoft visual studio 10.0\vc\include\utility
xdata$x	SEGMENT
__unwindtable$?construct@?$allocator@VioHashString@@@std@@QAEXPAVioHashString@@$$QAV3@@Z DD 0ffffffffH
	DD	FLAT:__unwindfunclet$?construct@?$allocator@VioHashString@@@std@@QAEXPAVioHashString@@$$QAV3@@Z$0
__ehfuncinfo$?construct@?$allocator@VioHashString@@@std@@QAEXPAVioHashString@@$$QAV3@@Z DD 019930522H
	DD	01H
	DD	FLAT:__unwindtable$?construct@?$allocator@VioHashString@@@std@@QAEXPAVioHashString@@$$QAV3@@Z
	DD	2 DUP(00H)
	DD	2 DUP(00H)
	DD	00H
	DD	01H
; Function compile flags: /Ogsp
; File c:\program files (x86)\microsoft visual studio 10.0\vc\include\xmemory
xdata$x	ENDS
;	COMDAT ?construct@?$allocator@VioHashString@@@std@@QAEXPAVioHashString@@$$QAV3@@Z
_TEXT	SEGMENT
$T518380 = -16						; size = 4
__$EHRec$ = -12						; size = 12
__Ptr$ = 8						; size = 4
__Val$ = 12						; size = 4
?construct@?$allocator@VioHashString@@@std@@QAEXPAVioHashString@@$$QAV3@@Z PROC ; std::allocator<ioHashString>::construct, COMDAT
; _this$ = ecx

; 201  : 		{	// construct object at _Ptr with value _Val

  00000	6a 04		 push	 4
  00002	b8 00 00 00 00	 mov	 eax, __ehhandler$?construct@?$allocator@VioHashString@@@std@@QAEXPAVioHashString@@$$QAV3@@Z
  00007	e8 00 00 00 00	 call	 __EH_prolog3

; 202  : 		::new ((void _FARQ *)_Ptr) _Ty(_STD forward<_Ty>(_Val));

  0000c	8b 4d 08	 mov	 ecx, DWORD PTR __Ptr$[ebp]
  0000f	89 4d f0	 mov	 DWORD PTR $T518380[ebp], ecx
  00012	83 65 fc 00	 and	 DWORD PTR __$EHRec$[ebp+8], 0
  00016	85 c9		 test	 ecx, ecx
  00018	74 09		 je	 SHORT $LN3@construct@5
  0001a	ff 75 0c	 push	 DWORD PTR __Val$[ebp]
  0001d	ff 15 00 00 00
	00		 call	 DWORD PTR __imp_??0ioHashString@@QAE@ABV0@@Z
$LN3@construct@5:

; 203  : 		}

  00023	e8 00 00 00 00	 call	 __EH_epilog3
  00028	c2 08 00	 ret	 8
_TEXT	ENDS
;	COMDAT text$x
text$x	SEGMENT
__unwindfunclet$?construct@?$allocator@VioHashString@@@std@@QAEXPAVioHashString@@$$QAV3@@Z$0:
  00000	ff 75 08	 push	 DWORD PTR __Ptr$[ebp]
  00003	ff 75 f0	 push	 DWORD PTR $T518380[ebp]
  00006	e8 00 00 00 00	 call	 ??3@YAXPAX0@Z		; operator delete
  0000b	59		 pop	 ecx
  0000c	59		 pop	 ecx
  0000d	c3		 ret	 0
__ehhandler$?construct@?$allocator@VioHashString@@@std@@QAEXPAVioHashString@@$$QAV3@@Z:
  0000e	8b 54 24 08	 mov	 edx, DWORD PTR [esp+8]
  00012	8d 42 0c	 lea	 eax, DWORD PTR [edx+12]
  00015	8b 4a ec	 mov	 ecx, DWORD PTR [edx-20]
  00018	33 c8		 xor	 ecx, eax
  0001a	e8 00 00 00 00	 call	 @__security_check_cookie@4
  0001f	b8 00 00 00 00	 mov	 eax, OFFSET __ehfuncinfo$?construct@?$allocator@VioHashString@@@std@@QAEXPAVioHashString@@$$QAV3@@Z
  00024	e9 00 00 00 00	 jmp	 ___CxxFrameHandler3
text$x	ENDS
?construct@?$allocator@VioHashString@@@std@@QAEXPAVioHashString@@$$QAV3@@Z ENDP ; std::allocator<ioHashString>::construct
PUBLIC	?StringCbCopyA@@YGJPADIPBD@Z			; StringCbCopyA
; Function compile flags: /Ogsp
; File c:\program files (x86)\microsoft sdks\windows\v7.0a\include\strsafe.h
;	COMDAT ?StringCbCopyA@@YGJPADIPBD@Z
_TEXT	SEGMENT
_pszDest$ = 8						; size = 4
_cbDest$ = 12						; size = 4
_pszSrc$ = 16						; size = 4
?StringCbCopyA@@YGJPADIPBD@Z PROC			; StringCbCopyA, COMDAT

; 582  : {

  00000	55		 push	 ebp
  00001	8b ec		 mov	 ebp, esp

; 583  :     HRESULT hr;
; 584  :     size_t cchDest = cbDest / sizeof(char);
; 585  : 
; 586  :     hr = StringValidateDestA(pszDest, cchDest, STRSAFE_MAX_CCH);

  00003	33 c0		 xor	 eax, eax
  00005	39 45 0c	 cmp	 DWORD PTR _cbDest$[ebp], eax
  00008	74 09		 je	 SHORT $LN4@StringCbCo
  0000a	81 7d 0c ff ff
	ff 7f		 cmp	 DWORD PTR _cbDest$[ebp], 2147483647 ; 7fffffffH
  00011	76 05		 jbe	 SHORT $LN5@StringCbCo
$LN4@StringCbCo:
  00013	b8 57 00 07 80	 mov	 eax, -2147024809	; 80070057H
$LN5@StringCbCo:

; 587  : 
; 588  :     if (SUCCEEDED(hr))

  00018	85 c0		 test	 eax, eax
  0001a	78 15		 js	 SHORT $LN1@StringCbCo

; 589  :     {
; 590  :         hr = StringCopyWorkerA(pszDest,
; 591  :                                cchDest,
; 592  :                                NULL,
; 593  :                                pszSrc,
; 594  :                                STRSAFE_MAX_LENGTH);

  0001c	8b 45 0c	 mov	 eax, DWORD PTR _cbDest$[ebp]
  0001f	8b 4d 08	 mov	 ecx, DWORD PTR _pszDest$[ebp]
  00022	68 fe ff ff 7f	 push	 2147483646		; 7ffffffeH
  00027	ff 75 10	 push	 DWORD PTR _pszSrc$[ebp]
  0002a	6a 00		 push	 0
  0002c	e8 00 00 00 00	 call	 ?StringCopyWorkerA@@YGJPADIPAIPBDI@Z ; StringCopyWorkerA
$LN1@StringCbCo:

; 595  :     }
; 596  : 
; 597  :     return hr;
; 598  : }

  00031	5d		 pop	 ebp
  00032	c2 0c 00	 ret	 12			; 0000000cH
?StringCbCopyA@@YGJPADIPBD@Z ENDP			; StringCbCopyA
_TEXT	ENDS
PUBLIC	?StringCbCatA@@YGJPADIPBD@Z			; StringCbCatA
; Function compile flags: /Ogsp
;	COMDAT ?StringCbCatA@@YGJPADIPBD@Z
_TEXT	SEGMENT
_pszDest$ = 8						; size = 4
_cbDest$ = 12						; size = 4
_pszSrc$ = 16						; size = 4
?StringCbCatA@@YGJPADIPBD@Z PROC			; StringCbCatA, COMDAT

; 2449 : {

  00000	55		 push	 ebp
  00001	8b ec		 mov	 ebp, esp
  00003	53		 push	 ebx
  00004	56		 push	 esi

; 2450 :     HRESULT hr;
; 2451 :     size_t cchDestLength;
; 2452 :     size_t cchDest = cbDest / sizeof(char);
; 2453 : 
; 2454 :     hr = StringValidateDestAndLengthA(pszDest,
; 2455 :                                       cchDest,
; 2456 :                                       &cchDestLength,
; 2457 :                                       STRSAFE_MAX_CCH);

  00005	8b 75 0c	 mov	 esi, DWORD PTR _cbDest$[ebp]
  00008	33 c9		 xor	 ecx, ecx
  0000a	57		 push	 edi
  0000b	bb ff ff ff 7f	 mov	 ebx, 2147483647		; 7fffffffH
  00010	85 f6		 test	 esi, esi
  00012	74 04		 je	 SHORT $LN8@StringCbCa
  00014	3b f3		 cmp	 esi, ebx
  00016	76 05		 jbe	 SHORT $LN9@StringCbCa
$LN8@StringCbCa:
  00018	b9 57 00 07 80	 mov	 ecx, -2147024809	; 80070057H
$LN9@StringCbCa:
  0001d	8b 7d 08	 mov	 edi, DWORD PTR _pszDest$[ebp]
  00020	8b c1		 mov	 eax, ecx
  00022	85 c9		 test	 ecx, ecx
  00024	78 1b		 js	 SHORT $LN5@StringCbCa
  00026	33 c0		 xor	 eax, eax
  00028	8b d6		 mov	 edx, esi
  0002a	8b cf		 mov	 ecx, edi
  0002c	85 f6		 test	 esi, esi
  0002e	74 0c		 je	 SHORT $LN24@StringCbCa
$LL17@StringCbCa:
  00030	38 01		 cmp	 BYTE PTR [ecx], al
  00032	74 04		 je	 SHORT $LN16@StringCbCa
  00034	41		 inc	 ecx
  00035	4a		 dec	 edx
  00036	75 f8		 jne	 SHORT $LL17@StringCbCa
$LN16@StringCbCa:
  00038	85 d2		 test	 edx, edx
  0003a	75 23		 jne	 SHORT $LN23@StringCbCa
$LN24@StringCbCa:
  0003c	b8 57 00 07 80	 mov	 eax, -2147024809	; 80070057H
$LN5@StringCbCa:
  00041	33 c9		 xor	 ecx, ecx
$LN4@StringCbCa:

; 2458 :     
; 2459 :     if (SUCCEEDED(hr))

  00043	85 c0		 test	 eax, eax
  00045	78 11		 js	 SHORT $LN1@StringCbCa

; 2460 :     {
; 2461 :         hr = StringCopyWorkerA(pszDest + cchDestLength,
; 2462 :                                cchDest - cchDestLength,
; 2463 :                                NULL,
; 2464 :                                pszSrc,
; 2465 :                                STRSAFE_MAX_CCH);

  00047	53		 push	 ebx
  00048	ff 75 10	 push	 DWORD PTR _pszSrc$[ebp]
  0004b	8b c6		 mov	 eax, esi
  0004d	2b c1		 sub	 eax, ecx
  0004f	6a 00		 push	 0
  00051	03 cf		 add	 ecx, edi
  00053	e8 00 00 00 00	 call	 ?StringCopyWorkerA@@YGJPADIPAIPBDI@Z ; StringCopyWorkerA
$LN1@StringCbCa:
  00058	5f		 pop	 edi
  00059	5e		 pop	 esi
  0005a	5b		 pop	 ebx

; 2466 :     }
; 2467 : 
; 2468 :     return hr;
; 2469 : }

  0005b	5d		 pop	 ebp
  0005c	c2 0c 00	 ret	 12			; 0000000cH
$LN23@StringCbCa:

; 2450 :     HRESULT hr;
; 2451 :     size_t cchDestLength;
; 2452 :     size_t cchDest = cbDest / sizeof(char);
; 2453 : 
; 2454 :     hr = StringValidateDestAndLengthA(pszDest,
; 2455 :                                       cchDest,
; 2456 :                                       &cchDestLength,
; 2457 :                                       STRSAFE_MAX_CCH);

  0005f	8b ce		 mov	 ecx, esi
  00061	2b ca		 sub	 ecx, edx
  00063	eb de		 jmp	 SHORT $LN4@StringCbCa
?StringCbCatA@@YGJPADIPBD@Z ENDP			; StringCbCatA
_TEXT	ENDS
PUBLIC	?StringCbPrintfA@@YAJPADIPBDZZ			; StringCbPrintfA
; Function compile flags: /Ogsp
;	COMDAT ?StringCbPrintfA@@YAJPADIPBDZZ
_TEXT	SEGMENT
_pszDest$ = 8						; size = 4
_cbDest$ = 12						; size = 4
_pszFormat$ = 16					; size = 4
?StringCbPrintfA@@YAJPADIPBDZZ PROC			; StringCbPrintfA, COMDAT

; 4767 : {

  00000	55		 push	 ebp
  00001	8b ec		 mov	 ebp, esp

; 4768 :     HRESULT hr;
; 4769 :     size_t cchDest = cbDest / sizeof(char);
; 4770 : 
; 4771 :     hr = StringValidateDestA(pszDest, cchDest, STRSAFE_MAX_CCH);

  00003	8b 4d 0c	 mov	 ecx, DWORD PTR _cbDest$[ebp]
  00006	33 c0		 xor	 eax, eax
  00008	85 c9		 test	 ecx, ecx
  0000a	74 08		 je	 SHORT $LN4@StringCbPr
  0000c	81 f9 ff ff ff
	7f		 cmp	 ecx, 2147483647		; 7fffffffH
  00012	76 05		 jbe	 SHORT $LN5@StringCbPr
$LN4@StringCbPr:
  00014	b8 57 00 07 80	 mov	 eax, -2147024809	; 80070057H
$LN5@StringCbPr:

; 4772 :     
; 4773 :     if (SUCCEEDED(hr))

  00019	85 c0		 test	 eax, eax
  0001b	78 39		 js	 SHORT $LN1@StringCbPr

; 4774 :     {
; 4775 :         va_list argList;
; 4776 : 
; 4777 :         va_start(argList, pszFormat);
; 4778 : 
; 4779 :         hr = StringVPrintfWorkerA(pszDest,
; 4780 :                                   cchDest,
; 4781 :                                   NULL,
; 4782 :                                   pszFormat,
; 4783 :                                   argList);

  0001d	53		 push	 ebx
  0001e	56		 push	 esi
  0001f	57		 push	 edi
  00020	8b 7d 08	 mov	 edi, DWORD PTR _pszDest$[ebp]
  00023	8d 45 14	 lea	 eax, DWORD PTR _pszFormat$[ebp+4]
  00026	50		 push	 eax
  00027	ff 75 10	 push	 DWORD PTR _pszFormat$[ebp]
  0002a	8d 71 ff	 lea	 esi, DWORD PTR [ecx-1]
  0002d	56		 push	 esi
  0002e	57		 push	 edi
  0002f	33 db		 xor	 ebx, ebx
  00031	ff 15 00 00 00
	00		 call	 DWORD PTR __imp___vsnprintf
  00037	83 c4 10	 add	 esp, 16			; 00000010H
  0003a	85 c0		 test	 eax, eax
  0003c	78 0b		 js	 SHORT $LN12@StringCbPr
  0003e	3b c6		 cmp	 eax, esi
  00040	77 07		 ja	 SHORT $LN12@StringCbPr
  00042	75 0d		 jne	 SHORT $LN9@StringCbPr
  00044	88 1c 3e	 mov	 BYTE PTR [esi+edi], bl
  00047	eb 08		 jmp	 SHORT $LN9@StringCbPr
$LN12@StringCbPr:
  00049	88 1c 3e	 mov	 BYTE PTR [esi+edi], bl
  0004c	bb 7a 00 07 80	 mov	 ebx, -2147024774	; 8007007aH
$LN9@StringCbPr:
  00051	5f		 pop	 edi
  00052	5e		 pop	 esi
  00053	8b c3		 mov	 eax, ebx
  00055	5b		 pop	 ebx
$LN1@StringCbPr:

; 4784 : 
; 4785 :         va_end(argList);
; 4786 :     }
; 4787 : 
; 4788 :     return hr;
; 4789 : }

  00056	5d		 pop	 ebp
  00057	c3		 ret	 0
?StringCbPrintfA@@YAJPADIPBDZZ ENDP			; StringCbPrintfA
_TEXT	ENDS
PUBLIC	?c_str@?$basic_string@DU?$char_traits@D@std@@V?$allocator@D@2@@std@@QBEPBDXZ ; std::basic_string<char,std::char_traits<char>,std::allocator<char> >::c_str
; Function compile flags: /Ogsp
; File c:\program files (x86)\microsoft visual studio 10.0\vc\include\xstring
;	COMDAT ?c_str@?$basic_string@DU?$char_traits@D@std@@V?$allocator@D@2@@std@@QBEPBDXZ
_TEXT	SEGMENT
?c_str@?$basic_string@DU?$char_traits@D@std@@V?$allocator@D@2@@std@@QBEPBDXZ PROC ; std::basic_string<char,std::char_traits<char>,std::allocator<char> >::c_str, COMDAT
; _this$ = ecx

; 1497 : 		return (_Myptr());

  00000	83 79 14 10	 cmp	 DWORD PTR [ecx+20], 16	; 00000010H
  00004	72 03		 jb	 SHORT $LN5@c_str
  00006	8b 01		 mov	 eax, DWORD PTR [ecx]

; 1498 : 		}

  00008	c3		 ret	 0

; 1497 : 		return (_Myptr());

$LN5@c_str:
  00009	8b c1		 mov	 eax, ecx

; 1498 : 		}

  0000b	c3		 ret	 0
?c_str@?$basic_string@DU?$char_traits@D@std@@V?$allocator@D@2@@std@@QBEPBDXZ ENDP ; std::basic_string<char,std::char_traits<char>,std::allocator<char> >::c_str
_TEXT	ENDS
PUBLIC	?begin@?$vector@HV?$allocator@H@std@@@std@@QAE?AV?$_Vector_iterator@V?$_Vector_val@HV?$allocator@H@std@@@std@@@2@XZ ; std::vector<int,std::allocator<int> >::begin
; Function compile flags: /Ogsp
; File c:\program files (x86)\microsoft visual studio 10.0\vc\include\vector
;	COMDAT ?begin@?$vector@HV?$allocator@H@std@@@std@@QAE?AV?$_Vector_iterator@V?$_Vector_val@HV?$allocator@H@std@@@std@@@2@XZ
_TEXT	SEGMENT
___$ReturnUdt$ = 8					; size = 4
?begin@?$vector@HV?$allocator@H@std@@@std@@QAE?AV?$_Vector_iterator@V?$_Vector_val@HV?$allocator@H@std@@@std@@@2@XZ PROC ; std::vector<int,std::allocator<int> >::begin, COMDAT
; _this$ = ecx

; 781  : 		{	// return iterator for beginning of mutable sequence

  00000	55		 push	 ebp
  00001	8b ec		 mov	 ebp, esp

; 782  : 		return (iterator(this->_Myfirst, this));

  00003	8b 09		 mov	 ecx, DWORD PTR [ecx]
  00005	8b 45 08	 mov	 eax, DWORD PTR ___$ReturnUdt$[ebp]
  00008	89 08		 mov	 DWORD PTR [eax], ecx

; 783  : 		}

  0000a	5d		 pop	 ebp
  0000b	c2 04 00	 ret	 4
?begin@?$vector@HV?$allocator@H@std@@@std@@QAE?AV?$_Vector_iterator@V?$_Vector_val@HV?$allocator@H@std@@@std@@@2@XZ ENDP ; std::vector<int,std::allocator<int> >::begin
_TEXT	ENDS
PUBLIC	??0?$_String_val@DV?$allocator@D@std@@@std@@QAE@V?$allocator@D@1@@Z ; std::_String_val<char,std::allocator<char> >::_String_val<char,std::allocator<char> >
; Function compile flags: /Ogsp
; File c:\program files (x86)\microsoft visual studio 10.0\vc\include\xstring
;	COMDAT ??0?$_String_val@DV?$allocator@D@std@@@std@@QAE@V?$allocator@D@1@@Z
_TEXT	SEGMENT
__Al$ = 8						; size = 1
??0?$_String_val@DV?$allocator@D@std@@@std@@QAE@V?$allocator@D@1@@Z PROC ; std::_String_val<char,std::allocator<char> >::_String_val<char,std::allocator<char> >, COMDAT
; _this$ = ecx

; 454  : 		{	// construct allocator from _Al

  00000	8b c1		 mov	 eax, ecx

; 455  : 		}

  00002	c2 04 00	 ret	 4
??0?$_String_val@DV?$allocator@D@std@@@std@@QAE@V?$allocator@D@1@@Z ENDP ; std::_String_val<char,std::allocator<char> >::_String_val<char,std::allocator<char> >
_TEXT	ENDS
PUBLIC	?begin@?$vector@VioHashString@@V?$allocator@VioHashString@@@std@@@std@@QAE?AV?$_Vector_iterator@V?$_Vector_val@VioHashString@@V?$allocator@VioHashString@@@std@@@std@@@2@XZ ; std::vector<ioHashString,std::allocator<ioHashString> >::begin
; Function compile flags: /Ogsp
; File c:\program files (x86)\microsoft visual studio 10.0\vc\include\vector
;	COMDAT ?begin@?$vector@VioHashString@@V?$allocator@VioHashString@@@std@@@std@@QAE?AV?$_Vector_iterator@V?$_Vector_val@VioHashString@@V?$allocator@VioHashString@@@std@@@std@@@2@XZ
_TEXT	SEGMENT
___$ReturnUdt$ = 8					; size = 4
?begin@?$vector@VioHashString@@V?$allocator@VioHashString@@@std@@@std@@QAE?AV?$_Vector_iterator@V?$_Vector_val@VioHashString@@V?$allocator@VioHashString@@@std@@@std@@@2@XZ PROC ; std::vector<ioHashString,std::allocator<ioHashString> >::begin, COMDAT
; _this$ = ecx

; 781  : 		{	// return iterator for beginning of mutable sequence

  00000	55		 push	 ebp
  00001	8b ec		 mov	 ebp, esp

; 782  : 		return (iterator(this->_Myfirst, this));

  00003	8b 09		 mov	 ecx, DWORD PTR [ecx]
  00005	8b 45 08	 mov	 eax, DWORD PTR ___$ReturnUdt$[ebp]
  00008	89 08		 mov	 DWORD PTR [eax], ecx

; 783  : 		}

  0000a	5d		 pop	 ebp
  0000b	c2 04 00	 ret	 4
?begin@?$vector@VioHashString@@V?$allocator@VioHashString@@@std@@@std@@QAE?AV?$_Vector_iterator@V?$_Vector_val@VioHashString@@V?$allocator@VioHashString@@@std@@@std@@@2@XZ ENDP ; std::vector<ioHashString,std::allocator<ioHashString> >::begin
_TEXT	ENDS
PUBLIC	?end@?$vector@VioHashString@@V?$allocator@VioHashString@@@std@@@std@@QAE?AV?$_Vector_iterator@V?$_Vector_val@VioHashString@@V?$allocator@VioHashString@@@std@@@std@@@2@XZ ; std::vector<ioHashString,std::allocator<ioHashString> >::end
; Function compile flags: /Ogsp
;	COMDAT ?end@?$vector@VioHashString@@V?$allocator@VioHashString@@@std@@@std@@QAE?AV?$_Vector_iterator@V?$_Vector_val@VioHashString@@V?$allocator@VioHashString@@@std@@@std@@@2@XZ
_TEXT	SEGMENT
___$ReturnUdt$ = 8					; size = 4
?end@?$vector@VioHashString@@V?$allocator@VioHashString@@@std@@@std@@QAE?AV?$_Vector_iterator@V?$_Vector_val@VioHashString@@V?$allocator@VioHashString@@@std@@@std@@@2@XZ PROC ; std::vector<ioHashString,std::allocator<ioHashString> >::end, COMDAT
; _this$ = ecx

; 791  : 		{	// return iterator for end of mutable sequence

  00000	55		 push	 ebp
  00001	8b ec		 mov	 ebp, esp

; 792  : 		return (iterator(this->_Mylast, this));

  00003	8b 49 04	 mov	 ecx, DWORD PTR [ecx+4]
  00006	8b 45 08	 mov	 eax, DWORD PTR ___$ReturnUdt$[ebp]
  00009	89 08		 mov	 DWORD PTR [eax], ecx

; 793  : 		}

  0000b	5d		 pop	 ebp
  0000c	c2 04 00	 ret	 4
?end@?$vector@VioHashString@@V?$allocator@VioHashString@@@std@@@std@@QAE?AV?$_Vector_iterator@V?$_Vector_val@VioHashString@@V?$allocator@VioHashString@@@std@@@std@@@2@XZ ENDP ; std::vector<ioHashString,std::allocator<ioHashString> >::end
_TEXT	ENDS
PUBLIC	??0?$_Vector_val@VioHashString@@V?$allocator@VioHashString@@@std@@@std@@QAE@V?$allocator@VioHashString@@@1@@Z ; std::_Vector_val<ioHashString,std::allocator<ioHashString> >::_Vector_val<ioHashString,std::allocator<ioHashString> >
; Function compile flags: /Ogsp
;	COMDAT ??0?$_Vector_val@VioHashString@@V?$allocator@VioHashString@@@std@@@std@@QAE@V?$allocator@VioHashString@@@1@@Z
_TEXT	SEGMENT
__Al$ = 8						; size = 1
??0?$_Vector_val@VioHashString@@V?$allocator@VioHashString@@@std@@@std@@QAE@V?$allocator@VioHashString@@@1@@Z PROC ; std::_Vector_val<ioHashString,std::allocator<ioHashString> >::_Vector_val<ioHashString,std::allocator<ioHashString> >, COMDAT
; _this$ = ecx

; 426  : 		{	// construct allocator from _Al

  00000	8b c1		 mov	 eax, ecx

; 427  : 		_Myfirst = 0;

  00002	33 c9		 xor	 ecx, ecx
  00004	89 08		 mov	 DWORD PTR [eax], ecx

; 428  : 		_Mylast = 0;

  00006	89 48 04	 mov	 DWORD PTR [eax+4], ecx

; 429  : 		_Myend = 0;

  00009	89 48 08	 mov	 DWORD PTR [eax+8], ecx

; 430  : 		}

  0000c	c2 04 00	 ret	 4
??0?$_Vector_val@VioHashString@@V?$allocator@VioHashString@@@std@@@std@@QAE@V?$allocator@VioHashString@@@1@@Z ENDP ; std::_Vector_val<ioHashString,std::allocator<ioHashString> >::_Vector_val<ioHashString,std::allocator<ioHashString> >
_TEXT	ENDS
PUBLIC	?end@?$vector@HV?$allocator@H@std@@@std@@QAE?AV?$_Vector_iterator@V?$_Vector_val@HV?$allocator@H@std@@@std@@@2@XZ ; std::vector<int,std::allocator<int> >::end
; Function compile flags: /Ogsp
;	COMDAT ?end@?$vector@HV?$allocator@H@std@@@std@@QAE?AV?$_Vector_iterator@V?$_Vector_val@HV?$allocator@H@std@@@std@@@2@XZ
_TEXT	SEGMENT
___$ReturnUdt$ = 8					; size = 4
?end@?$vector@HV?$allocator@H@std@@@std@@QAE?AV?$_Vector_iterator@V?$_Vector_val@HV?$allocator@H@std@@@std@@@2@XZ PROC ; std::vector<int,std::allocator<int> >::end, COMDAT
; _this$ = ecx

; 791  : 		{	// return iterator for end of mutable sequence

  00000	55		 push	 ebp
  00001	8b ec		 mov	 ebp, esp

; 792  : 		return (iterator(this->_Mylast, this));

  00003	8b 49 04	 mov	 ecx, DWORD PTR [ecx+4]
  00006	8b 45 08	 mov	 eax, DWORD PTR ___$ReturnUdt$[ebp]
  00009	89 08		 mov	 DWORD PTR [eax], ecx

; 793  : 		}

  0000b	5d		 pop	 ebp
  0000c	c2 04 00	 ret	 4
?end@?$vector@HV?$allocator@H@std@@@std@@QAE?AV?$_Vector_iterator@V?$_Vector_val@HV?$allocator@H@std@@@std@@@2@XZ ENDP ; std::vector<int,std::allocator<int> >::end
_TEXT	ENDS
PUBLIC	??0?$_Vector_val@HV?$allocator@H@std@@@std@@QAE@V?$allocator@H@1@@Z ; std::_Vector_val<int,std::allocator<int> >::_Vector_val<int,std::allocator<int> >
; Function compile flags: /Ogsp
;	COMDAT ??0?$_Vector_val@HV?$allocator@H@std@@@std@@QAE@V?$allocator@H@1@@Z
_TEXT	SEGMENT
__Al$ = 8						; size = 1
??0?$_Vector_val@HV?$allocator@H@std@@@std@@QAE@V?$allocator@H@1@@Z PROC ; std::_Vector_val<int,std::allocator<int> >::_Vector_val<int,std::allocator<int> >, COMDAT
; _this$ = ecx

; 426  : 		{	// construct allocator from _Al

  00000	8b c1		 mov	 eax, ecx

; 427  : 		_Myfirst = 0;

  00002	33 c9		 xor	 ecx, ecx
  00004	89 08		 mov	 DWORD PTR [eax], ecx

; 428  : 		_Mylast = 0;

  00006	89 48 04	 mov	 DWORD PTR [eax+4], ecx

; 429  : 		_Myend = 0;

  00009	89 48 08	 mov	 DWORD PTR [eax+8], ecx

; 430  : 		}

  0000c	c2 04 00	 ret	 4
??0?$_Vector_val@HV?$allocator@H@std@@@std@@QAE@V?$allocator@H@1@@Z ENDP ; std::_Vector_val<int,std::allocator<int> >::_Vector_val<int,std::allocator<int> >
_TEXT	ENDS
PUBLIC	??0?$_Vector_val@VGashaponPresent@@V?$allocator@VGashaponPresent@@@std@@@std@@QAE@V?$allocator@VGashaponPresent@@@1@@Z ; std::_Vector_val<GashaponPresent,std::allocator<GashaponPresent> >::_Vector_val<GashaponPresent,std::allocator<GashaponPresent> >
; Function compile flags: /Ogsp
;	COMDAT ??0?$_Vector_val@VGashaponPresent@@V?$allocator@VGashaponPresent@@@std@@@std@@QAE@V?$allocator@VGashaponPresent@@@1@@Z
_TEXT	SEGMENT
__Al$ = 8						; size = 1
??0?$_Vector_val@VGashaponPresent@@V?$allocator@VGashaponPresent@@@std@@@std@@QAE@V?$allocator@VGashaponPresent@@@1@@Z PROC ; std::_Vector_val<GashaponPresent,std::allocator<GashaponPresent> >::_Vector_val<GashaponPresent,std::allocator<GashaponPresent> >, COMDAT
; _this$ = ecx

; 426  : 		{	// construct allocator from _Al

  00000	8b c1		 mov	 eax, ecx

; 427  : 		_Myfirst = 0;

  00002	33 c9		 xor	 ecx, ecx
  00004	89 08		 mov	 DWORD PTR [eax], ecx

; 428  : 		_Mylast = 0;

  00006	89 48 04	 mov	 DWORD PTR [eax+4], ecx

; 429  : 		_Myend = 0;

  00009	89 48 08	 mov	 DWORD PTR [eax+8], ecx

; 430  : 		}

  0000c	c2 04 00	 ret	 4
??0?$_Vector_val@VGashaponPresent@@V?$allocator@VGashaponPresent@@@std@@@std@@QAE@V?$allocator@VGashaponPresent@@@1@@Z ENDP ; std::_Vector_val<GashaponPresent,std::allocator<GashaponPresent> >::_Vector_val<GashaponPresent,std::allocator<GashaponPresent> >
_TEXT	ENDS
PUBLIC	?_Eos@?$basic_string@DU?$char_traits@D@std@@V?$allocator@D@2@@std@@QAEXI@Z ; std::basic_string<char,std::char_traits<char>,std::allocator<char> >::_Eos
; Function compile flags: /Ogsp
; File c:\program files (x86)\microsoft visual studio 10.0\vc\include\xstring
;	COMDAT ?_Eos@?$basic_string@DU?$char_traits@D@std@@V?$allocator@D@2@@std@@QAEXI@Z
_TEXT	SEGMENT
__Newsize$ = 8						; size = 4
?_Eos@?$basic_string@DU?$char_traits@D@std@@V?$allocator@D@2@@std@@QAEXI@Z PROC ; std::basic_string<char,std::char_traits<char>,std::allocator<char> >::_Eos, COMDAT
; _this$ = ecx

; 1953 : 		{	// set new length and null terminator

  00000	55		 push	 ebp
  00001	8b ec		 mov	 ebp, esp

; 1954 : 		_Traits::assign(_Myptr()[this->_Mysize = _Newsize], _Elem());

  00003	83 79 14 10	 cmp	 DWORD PTR [ecx+20], 16	; 00000010H
  00007	8b 45 08	 mov	 eax, DWORD PTR __Newsize$[ebp]
  0000a	89 41 10	 mov	 DWORD PTR [ecx+16], eax
  0000d	72 02		 jb	 SHORT $LN5@Eos
  0000f	8b 09		 mov	 ecx, DWORD PTR [ecx]
$LN5@Eos:
  00011	c6 04 01 00	 mov	 BYTE PTR [ecx+eax], 0

; 1955 : 		}

  00015	5d		 pop	 ebp
  00016	c2 04 00	 ret	 4
?_Eos@?$basic_string@DU?$char_traits@D@std@@V?$allocator@D@2@@std@@QAEXI@Z ENDP ; std::basic_string<char,std::char_traits<char>,std::allocator<char> >::_Eos
_TEXT	ENDS
PUBLIC	?_Make_iter@?$vector@VioHashString@@V?$allocator@VioHashString@@@std@@@std@@QBE?AV?$_Vector_iterator@V?$_Vector_val@VioHashString@@V?$allocator@VioHashString@@@std@@@std@@@2@V?$_Vector_const_iterator@V?$_Vector_val@VioHashString@@V?$allocator@VioHashString@@@std@@@std@@@2@@Z ; std::vector<ioHashString,std::allocator<ioHashString> >::_Make_iter
; Function compile flags: /Ogsp
; File c:\program files (x86)\microsoft visual studio 10.0\vc\include\vector
;	COMDAT ?_Make_iter@?$vector@VioHashString@@V?$allocator@VioHashString@@@std@@@std@@QBE?AV?$_Vector_iterator@V?$_Vector_val@VioHashString@@V?$allocator@VioHashString@@@std@@@std@@@2@V?$_Vector_const_iterator@V?$_Vector_val@VioHashString@@V?$allocator@VioHashString@@@std@@@std@@@2@@Z
_TEXT	SEGMENT
___$ReturnUdt$ = 8					; size = 4
__Where$ = 12						; size = 4
?_Make_iter@?$vector@VioHashString@@V?$allocator@VioHashString@@@std@@@std@@QBE?AV?$_Vector_iterator@V?$_Vector_val@VioHashString@@V?$allocator@VioHashString@@@std@@@std@@@2@V?$_Vector_const_iterator@V?$_Vector_val@VioHashString@@V?$allocator@VioHashString@@@std@@@std@@@2@@Z PROC ; std::vector<ioHashString,std::allocator<ioHashString> >::_Make_iter, COMDAT
; _this$ = ecx

; 801  : 		{	// make iterator from const_iterator

  00000	55		 push	 ebp
  00001	8b ec		 mov	 ebp, esp

; 802  : 		return (iterator(_Where._Ptr, this));

  00003	8b 45 08	 mov	 eax, DWORD PTR ___$ReturnUdt$[ebp]
  00006	8b 4d 0c	 mov	 ecx, DWORD PTR __Where$[ebp]
  00009	89 08		 mov	 DWORD PTR [eax], ecx

; 803  : 		}

  0000b	5d		 pop	 ebp
  0000c	c2 08 00	 ret	 8
?_Make_iter@?$vector@VioHashString@@V?$allocator@VioHashString@@@std@@@std@@QBE?AV?$_Vector_iterator@V?$_Vector_val@VioHashString@@V?$allocator@VioHashString@@@std@@@std@@@2@V?$_Vector_const_iterator@V?$_Vector_val@VioHashString@@V?$allocator@VioHashString@@@std@@@std@@@2@@Z ENDP ; std::vector<ioHashString,std::allocator<ioHashString> >::_Make_iter
_TEXT	ENDS
PUBLIC	?max_size@?$vector@VioHashString@@V?$allocator@VioHashString@@@std@@@std@@QBEIXZ ; std::vector<ioHashString,std::allocator<ioHashString> >::max_size
; Function compile flags: /Ogsp
;	COMDAT ?max_size@?$vector@VioHashString@@V?$allocator@VioHashString@@@std@@@std@@QBEIXZ
_TEXT	SEGMENT
?max_size@?$vector@VioHashString@@V?$allocator@VioHashString@@@std@@@std@@QBEIXZ PROC ; std::vector<ioHashString,std::allocator<ioHashString> >::max_size, COMDAT
; _this$ = ecx

; 884  : 		return (this->_Alval.max_size());

  00000	b8 ff ff ff 0f	 mov	 eax, 268435455		; 0fffffffH

; 885  : 		}

  00005	c3		 ret	 0
?max_size@?$vector@VioHashString@@V?$allocator@VioHashString@@@std@@@std@@QBEIXZ ENDP ; std::vector<ioHashString,std::allocator<ioHashString> >::max_size
_TEXT	ENDS
PUBLIC	?allocate@?$allocator@VioHashString@@@std@@QAEPAVioHashString@@I@Z ; std::allocator<ioHashString>::allocate
; Function compile flags: /Ogsp
; File c:\program files (x86)\microsoft visual studio 10.0\vc\include\xmemory
;	COMDAT ?allocate@?$allocator@VioHashString@@@std@@QAEPAVioHashString@@I@Z
_TEXT	SEGMENT
__Count$ = 8						; size = 4
?allocate@?$allocator@VioHashString@@@std@@QAEPAVioHashString@@I@Z PROC ; std::allocator<ioHashString>::allocate, COMDAT
; _this$ = ecx

; 186  : 		{	// allocate array of _Count elements

  00000	55		 push	 ebp
  00001	8b ec		 mov	 ebp, esp

; 187  : 		return (_Allocate(_Count, (pointer)0));

  00003	6a 00		 push	 0
  00005	ff 75 08	 push	 DWORD PTR __Count$[ebp]
  00008	e8 00 00 00 00	 call	 ??$_Allocate@VioHashString@@@std@@YAPAVioHashString@@IPAV1@@Z ; std::_Allocate<ioHashString>
  0000d	59		 pop	 ecx
  0000e	59		 pop	 ecx

; 188  : 		}

  0000f	5d		 pop	 ebp
  00010	c2 04 00	 ret	 4
?allocate@?$allocator@VioHashString@@@std@@QAEPAVioHashString@@I@Z ENDP ; std::allocator<ioHashString>::allocate
_TEXT	ENDS
PUBLIC	?max_size@?$vector@HV?$allocator@H@std@@@std@@QBEIXZ ; std::vector<int,std::allocator<int> >::max_size
; Function compile flags: /Ogsp
; File c:\program files (x86)\microsoft visual studio 10.0\vc\include\vector
;	COMDAT ?max_size@?$vector@HV?$allocator@H@std@@@std@@QBEIXZ
_TEXT	SEGMENT
?max_size@?$vector@HV?$allocator@H@std@@@std@@QBEIXZ PROC ; std::vector<int,std::allocator<int> >::max_size, COMDAT
; _this$ = ecx

; 884  : 		return (this->_Alval.max_size());

  00000	b8 ff ff ff 3f	 mov	 eax, 1073741823		; 3fffffffH

; 885  : 		}

  00005	c3		 ret	 0
?max_size@?$vector@HV?$allocator@H@std@@@std@@QBEIXZ ENDP ; std::vector<int,std::allocator<int> >::max_size
_TEXT	ENDS
PUBLIC	?_Grow_to@?$vector@HV?$allocator@H@std@@@std@@IBEII@Z ; std::vector<int,std::allocator<int> >::_Grow_to
; Function compile flags: /Ogsp
;	COMDAT ?_Grow_to@?$vector@HV?$allocator@H@std@@@std@@IBEII@Z
_TEXT	SEGMENT
__Count$ = 8						; size = 4
?_Grow_to@?$vector@HV?$allocator@H@std@@@std@@IBEII@Z PROC ; std::vector<int,std::allocator<int> >::_Grow_to, COMDAT
; _this$ = ecx

; 1274 : 		{	// grow by 50% or at least to _Count

  00000	55		 push	 ebp
  00001	8b ec		 mov	 ebp, esp

; 1275 : 		size_type _Capacity = capacity();

  00003	8b 41 08	 mov	 eax, DWORD PTR [ecx+8]
  00006	2b 01		 sub	 eax, DWORD PTR [ecx]

; 1276 : 
; 1277 : 		_Capacity = max_size() - _Capacity / 2 < _Capacity
; 1278 : 			? 0 : _Capacity + _Capacity / 2;	// try to grow by 50%

  00008	ba ff ff ff 3f	 mov	 edx, 1073741823		; 3fffffffH
  0000d	c1 f8 02	 sar	 eax, 2
  00010	8b c8		 mov	 ecx, eax
  00012	d1 e9		 shr	 ecx, 1
  00014	2b d1		 sub	 edx, ecx
  00016	3b d0		 cmp	 edx, eax
  00018	73 04		 jae	 SHORT $LN4@Grow_to
  0001a	33 c0		 xor	 eax, eax
  0001c	eb 02		 jmp	 SHORT $LN5@Grow_to
$LN4@Grow_to:
  0001e	03 c1		 add	 eax, ecx
$LN5@Grow_to:

; 1279 : 		if (_Capacity < _Count)

  00020	3b 45 08	 cmp	 eax, DWORD PTR __Count$[ebp]

; 1280 : 			_Capacity = _Count;

  00023	0f 42 45 08	 cmovb	 eax, DWORD PTR __Count$[ebp]

; 1281 : 		return (_Capacity);
; 1282 : 		}

  00027	5d		 pop	 ebp
  00028	c2 04 00	 ret	 4
?_Grow_to@?$vector@HV?$allocator@H@std@@@std@@IBEII@Z ENDP ; std::vector<int,std::allocator<int> >::_Grow_to
_TEXT	ENDS
PUBLIC	?max_size@?$basic_string@DU?$char_traits@D@std@@V?$allocator@D@2@@std@@QBEIXZ ; std::basic_string<char,std::char_traits<char>,std::allocator<char> >::max_size
; Function compile flags: /Ogsp
; File c:\program files (x86)\microsoft visual studio 10.0\vc\include\xstring
;	COMDAT ?max_size@?$basic_string@DU?$char_traits@D@std@@V?$allocator@D@2@@std@@QBEIXZ
_TEXT	SEGMENT
?max_size@?$basic_string@DU?$char_traits@D@std@@V?$allocator@D@2@@std@@QBEIXZ PROC ; std::basic_string<char,std::char_traits<char>,std::allocator<char> >::max_size, COMDAT
; _this$ = ecx

; 1517 : 		size_type _Num = this->_Alval.max_size();
; 1518 : 		return (_Num <= 1 ? 1 : _Num - 1);

  00000	6a fe		 push	 -2			; fffffffeH
  00002	58		 pop	 eax

; 1519 : 		}

  00003	c3		 ret	 0
?max_size@?$basic_string@DU?$char_traits@D@std@@V?$allocator@D@2@@std@@QBEIXZ ENDP ; std::basic_string<char,std::char_traits<char>,std::allocator<char> >::max_size
_TEXT	ENDS
PUBLIC	?allocate@?$allocator@H@std@@QAEPAHI@Z		; std::allocator<int>::allocate
; Function compile flags: /Ogsp
; File c:\program files (x86)\microsoft visual studio 10.0\vc\include\xmemory
;	COMDAT ?allocate@?$allocator@H@std@@QAEPAHI@Z
_TEXT	SEGMENT
__Count$ = 8						; size = 4
?allocate@?$allocator@H@std@@QAEPAHI@Z PROC		; std::allocator<int>::allocate, COMDAT
; _this$ = ecx

; 186  : 		{	// allocate array of _Count elements

  00000	55		 push	 ebp
  00001	8b ec		 mov	 ebp, esp

; 187  : 		return (_Allocate(_Count, (pointer)0));

  00003	6a 00		 push	 0
  00005	ff 75 08	 push	 DWORD PTR __Count$[ebp]
  00008	e8 00 00 00 00	 call	 ??$_Allocate@H@std@@YAPAHIPAH@Z ; std::_Allocate<int>
  0000d	59		 pop	 ecx
  0000e	59		 pop	 ecx

; 188  : 		}

  0000f	5d		 pop	 ebp
  00010	c2 04 00	 ret	 4
?allocate@?$allocator@H@std@@QAEPAHI@Z ENDP		; std::allocator<int>::allocate
_TEXT	ENDS
PUBLIC	??8?$_Vector_const_iterator@V?$_Vector_val@HV?$allocator@H@std@@@std@@@std@@QBE_NABV01@@Z ; std::_Vector_const_iterator<std::_Vector_val<int,std::allocator<int> > >::operator==
; Function compile flags: /Ogsp
; File c:\program files (x86)\microsoft visual studio 10.0\vc\include\vector
;	COMDAT ??8?$_Vector_const_iterator@V?$_Vector_val@HV?$allocator@H@std@@@std@@@std@@QBE_NABV01@@Z
_TEXT	SEGMENT
__Right$ = 8						; size = 4
??8?$_Vector_const_iterator@V?$_Vector_val@HV?$allocator@H@std@@@std@@@std@@QBE_NABV01@@Z PROC ; std::_Vector_const_iterator<std::_Vector_val<int,std::allocator<int> > >::operator==, COMDAT
; _this$ = ecx

; 201  : 		{	// test for iterator equality

  00000	55		 push	 ebp
  00001	8b ec		 mov	 ebp, esp

; 202  : 		_Compat(_Right);
; 203  : 		return (this->_Ptr == _Right._Ptr);

  00003	8b 01		 mov	 eax, DWORD PTR [ecx]
  00005	8b 4d 08	 mov	 ecx, DWORD PTR __Right$[ebp]
  00008	2b 01		 sub	 eax, DWORD PTR [ecx]
  0000a	f7 d8		 neg	 eax
  0000c	1b c0		 sbb	 eax, eax
  0000e	40		 inc	 eax

; 204  : 		}

  0000f	5d		 pop	 ebp
  00010	c2 04 00	 ret	 4
??8?$_Vector_const_iterator@V?$_Vector_val@HV?$allocator@H@std@@@std@@@std@@QBE_NABV01@@Z ENDP ; std::_Vector_const_iterator<std::_Vector_val<int,std::allocator<int> > >::operator==
_TEXT	ENDS
PUBLIC	??8?$_Vector_const_iterator@V?$_Vector_val@VioHashString@@V?$allocator@VioHashString@@@std@@@std@@@std@@QBE_NABV01@@Z ; std::_Vector_const_iterator<std::_Vector_val<ioHashString,std::allocator<ioHashString> > >::operator==
; Function compile flags: /Ogsp
;	COMDAT ??8?$_Vector_const_iterator@V?$_Vector_val@VioHashString@@V?$allocator@VioHashString@@@std@@@std@@@std@@QBE_NABV01@@Z
_TEXT	SEGMENT
__Right$ = 8						; size = 4
??8?$_Vector_const_iterator@V?$_Vector_val@VioHashString@@V?$allocator@VioHashString@@@std@@@std@@@std@@QBE_NABV01@@Z PROC ; std::_Vector_const_iterator<std::_Vector_val<ioHashString,std::allocator<ioHashString> > >::operator==, COMDAT
; _this$ = ecx

; 201  : 		{	// test for iterator equality

  00000	55		 push	 ebp
  00001	8b ec		 mov	 ebp, esp

; 202  : 		_Compat(_Right);
; 203  : 		return (this->_Ptr == _Right._Ptr);

  00003	8b 01		 mov	 eax, DWORD PTR [ecx]
  00005	8b 4d 08	 mov	 ecx, DWORD PTR __Right$[ebp]
  00008	2b 01		 sub	 eax, DWORD PTR [ecx]
  0000a	f7 d8		 neg	 eax
  0000c	1b c0		 sbb	 eax, eax
  0000e	40		 inc	 eax

; 204  : 		}

  0000f	5d		 pop	 ebp
  00010	c2 04 00	 ret	 4
??8?$_Vector_const_iterator@V?$_Vector_val@VioHashString@@V?$allocator@VioHashString@@@std@@@std@@@std@@QBE_NABV01@@Z ENDP ; std::_Vector_const_iterator<std::_Vector_val<ioHashString,std::allocator<ioHashString> > >::operator==
_TEXT	ENDS
PUBLIC	?allocate@?$allocator@D@std@@QAEPADI@Z		; std::allocator<char>::allocate
; Function compile flags: /Ogsp
; File c:\program files (x86)\microsoft visual studio 10.0\vc\include\xmemory
;	COMDAT ?allocate@?$allocator@D@std@@QAEPADI@Z
_TEXT	SEGMENT
__Count$ = 8						; size = 4
?allocate@?$allocator@D@std@@QAEPADI@Z PROC		; std::allocator<char>::allocate, COMDAT
; _this$ = ecx

; 186  : 		{	// allocate array of _Count elements

  00000	55		 push	 ebp
  00001	8b ec		 mov	 ebp, esp

; 187  : 		return (_Allocate(_Count, (pointer)0));

  00003	6a 00		 push	 0
  00005	ff 75 08	 push	 DWORD PTR __Count$[ebp]
  00008	e8 00 00 00 00	 call	 ??$_Allocate@D@std@@YAPADIPAD@Z ; std::_Allocate<char>
  0000d	59		 pop	 ecx
  0000e	59		 pop	 ecx

; 188  : 		}

  0000f	5d		 pop	 ebp
  00010	c2 04 00	 ret	 4
?allocate@?$allocator@D@std@@QAEPADI@Z ENDP		; std::allocator<char>::allocate
_TEXT	ENDS
PUBLIC	??$swap@H@std@@YAXAAH0@Z			; std::swap<int>
; Function compile flags: /Ogsp
; File c:\program files (x86)\microsoft visual studio 10.0\vc\include\utility
;	COMDAT ??$swap@H@std@@YAXAAH0@Z
_TEXT	SEGMENT
__Left$ = 8						; size = 4
__Right$ = 12						; size = 4
??$swap@H@std@@YAXAAH0@Z PROC				; std::swap<int>, COMDAT

; 101  : 	{	// exchange values stored at _Left and _Right

  00000	55		 push	 ebp
  00001	8b ec		 mov	 ebp, esp

; 102  : 	_Ty _Tmp = _Move(_Left);
; 103  : 	_Left = _Move(_Right);

  00003	8b 55 0c	 mov	 edx, DWORD PTR __Right$[ebp]
  00006	8b 45 08	 mov	 eax, DWORD PTR __Left$[ebp]
  00009	8b 08		 mov	 ecx, DWORD PTR [eax]
  0000b	56		 push	 esi
  0000c	8b 32		 mov	 esi, DWORD PTR [edx]
  0000e	89 30		 mov	 DWORD PTR [eax], esi

; 104  : 	_Right = _Move(_Tmp);

  00010	89 0a		 mov	 DWORD PTR [edx], ecx
  00012	5e		 pop	 esi

; 105  : 	}

  00013	5d		 pop	 ebp
  00014	c3		 ret	 0
??$swap@H@std@@YAXAAH0@Z ENDP				; std::swap<int>
_TEXT	ENDS
PUBLIC	??$_Move@PAHPAH@std@@YAPAHPAH00@Z		; std::_Move<int *,int *>
; Function compile flags: /Ogsp
; File c:\program files (x86)\microsoft visual studio 10.0\vc\include\xutility
;	COMDAT ??$_Move@PAHPAH@std@@YAPAHPAH00@Z
_TEXT	SEGMENT
__Cat$518700 = -4					; size = 1
__First$ = 8						; size = 4
__Last$ = 12						; size = 4
__Dest$ = 16						; size = 4
??$_Move@PAHPAH@std@@YAPAHPAH00@Z PROC			; std::_Move<int *,int *>, COMDAT

; 2533 : 	{	// move [_First, _Last) to [_Dest, ...), unchecked

  00000	55		 push	 ebp
  00001	8b ec		 mov	 ebp, esp
  00003	51		 push	 ecx

; 2534 : 	return (_Move(_First, _Last,
; 2535 : 		_Dest, _Ptr_cat(_First, _Dest)));

  00004	ff 75 fc	 push	 DWORD PTR __Cat$518700[ebp]
  00007	ff 75 10	 push	 DWORD PTR __Dest$[ebp]
  0000a	ff 75 0c	 push	 DWORD PTR __Last$[ebp]
  0000d	ff 75 08	 push	 DWORD PTR __First$[ebp]
  00010	e8 00 00 00 00	 call	 ??$_Move@PAHPAH@std@@YAPAHPAH00U_Scalar_ptr_iterator_tag@0@@Z ; std::_Move<int *,int *>
  00015	83 c4 10	 add	 esp, 16			; 00000010H

; 2536 : 	}

  00018	c9		 leave
  00019	c3		 ret	 0
??$_Move@PAHPAH@std@@YAPAHPAH00@Z ENDP			; std::_Move<int *,int *>
_TEXT	ENDS
PUBLIC	??$_Destroy_range@V?$allocator@H@std@@@std@@YAXPAH0AAV?$allocator@H@0@@Z ; std::_Destroy_range<std::allocator<int> >
; Function compile flags: /Ogsp
; File c:\program files (x86)\microsoft visual studio 10.0\vc\include\xmemory
;	COMDAT ??$_Destroy_range@V?$allocator@H@std@@@std@@YAXPAH0AAV?$allocator@H@0@@Z
_TEXT	SEGMENT
__First$ = 8						; size = 4
__Last$ = 12						; size = 4
__Al$ = 16						; size = 4
??$_Destroy_range@V?$allocator@H@std@@@std@@YAXPAH0AAV?$allocator@H@0@@Z PROC ; std::_Destroy_range<std::allocator<int> >, COMDAT

; 88   : 	_Destroy_range(_First, _Last, _Al, _Ptr_cat(_First, _Last));
; 89   : 	}

  00000	c3		 ret	 0
??$_Destroy_range@V?$allocator@H@std@@@std@@YAXPAH0AAV?$allocator@H@0@@Z ENDP ; std::_Destroy_range<std::allocator<int> >
_TEXT	ENDS
PUBLIC	??$_Unchecked@V?$_Vector_val@HV?$allocator@H@std@@@std@@@std@@YAPAHV?$_Vector_iterator@V?$_Vector_val@HV?$allocator@H@std@@@std@@@0@@Z ; std::_Unchecked<std::_Vector_val<int,std::allocator<int> > >
; Function compile flags: /Ogsp
; File c:\program files (x86)\microsoft visual studio 10.0\vc\include\vector
;	COMDAT ??$_Unchecked@V?$_Vector_val@HV?$allocator@H@std@@@std@@@std@@YAPAHV?$_Vector_iterator@V?$_Vector_val@HV?$allocator@H@std@@@std@@@0@@Z
_TEXT	SEGMENT
__Iter$ = 8						; size = 4
??$_Unchecked@V?$_Vector_val@HV?$allocator@H@std@@@std@@@std@@YAPAHV?$_Vector_iterator@V?$_Vector_val@HV?$allocator@H@std@@@std@@@0@@Z PROC ; std::_Unchecked<std::_Vector_val<int,std::allocator<int> > >, COMDAT

; 393  : 	{	// convert to unchecked

  00000	55		 push	 ebp
  00001	8b ec		 mov	 ebp, esp

; 394  : 	return (_Iter._Unchecked());

  00003	8b 45 08	 mov	 eax, DWORD PTR __Iter$[ebp]

; 395  : 	}

  00006	5d		 pop	 ebp
  00007	c3		 ret	 0
??$_Unchecked@V?$_Vector_val@HV?$allocator@H@std@@@std@@@std@@YAPAHV?$_Vector_iterator@V?$_Vector_val@HV?$allocator@H@std@@@std@@@0@@Z ENDP ; std::_Unchecked<std::_Vector_val<int,std::allocator<int> > >
_TEXT	ENDS
PUBLIC	??$_Rechecked@V?$_Vector_val@HV?$allocator@H@std@@@std@@@std@@YAAAV?$_Vector_iterator@V?$_Vector_val@HV?$allocator@H@std@@@std@@@0@AAV10@PAH@Z ; std::_Rechecked<std::_Vector_val<int,std::allocator<int> > >
; Function compile flags: /Ogsp
;	COMDAT ??$_Rechecked@V?$_Vector_val@HV?$allocator@H@std@@@std@@@std@@YAAAV?$_Vector_iterator@V?$_Vector_val@HV?$allocator@H@std@@@std@@@0@AAV10@PAH@Z
_TEXT	SEGMENT
__Iter$ = 8						; size = 4
__Right$ = 12						; size = 4
??$_Rechecked@V?$_Vector_val@HV?$allocator@H@std@@@std@@@std@@YAAAV?$_Vector_iterator@V?$_Vector_val@HV?$allocator@H@std@@@std@@@0@AAV10@PAH@Z PROC ; std::_Rechecked<std::_Vector_val<int,std::allocator<int> > >, COMDAT

; 402  : 	{	// convert to checked

  00000	55		 push	 ebp
  00001	8b ec		 mov	 ebp, esp

; 403  : 	return (_Iter._Rechecked(_Right));

  00003	8b 45 08	 mov	 eax, DWORD PTR __Iter$[ebp]
  00006	8b 4d 0c	 mov	 ecx, DWORD PTR __Right$[ebp]
  00009	89 08		 mov	 DWORD PTR [eax], ecx

; 404  : 	}

  0000b	5d		 pop	 ebp
  0000c	c3		 ret	 0
??$_Rechecked@V?$_Vector_val@HV?$allocator@H@std@@@std@@@std@@YAAAV?$_Vector_iterator@V?$_Vector_val@HV?$allocator@H@std@@@std@@@0@AAV10@PAH@Z ENDP ; std::_Rechecked<std::_Vector_val<int,std::allocator<int> > >
_TEXT	ENDS
PUBLIC	??$_Move@PAVioHashString@@PAV1@@std@@YAPAVioHashString@@PAV1@00U_Nonscalar_ptr_iterator_tag@0@@Z ; std::_Move<ioHashString *,ioHashString *>
; Function compile flags: /Ogsp
; File c:\program files (x86)\microsoft visual studio 10.0\vc\include\xutility
;	COMDAT ??$_Move@PAVioHashString@@PAV1@@std@@YAPAVioHashString@@PAV1@00U_Nonscalar_ptr_iterator_tag@0@@Z
_TEXT	SEGMENT
__First$ = 8						; size = 4
__Last$ = 12						; size = 4
__Dest$ = 16						; size = 4
___formal$ = 20						; size = 1
??$_Move@PAVioHashString@@PAV1@@std@@YAPAVioHashString@@PAV1@00U_Nonscalar_ptr_iterator_tag@0@@Z PROC ; std::_Move<ioHashString *,ioHashString *>, COMDAT

; 2512 : 	{	// move [_First, _Last) to [_Dest, ...), arbitrary iterators

  00000	55		 push	 ebp
  00001	8b ec		 mov	 ebp, esp
  00003	56		 push	 esi

; 2513 : 	for (; _First != _Last; ++_Dest, ++_First)

  00004	8b 75 08	 mov	 esi, DWORD PTR __First$[ebp]
  00007	eb 11		 jmp	 SHORT $LN11@Move@2
$LL3@Move@2:

; 2514 : 		*_Dest = _STD move(*_First);

  00009	8b 4d 10	 mov	 ecx, DWORD PTR __Dest$[ebp]
  0000c	56		 push	 esi
  0000d	ff 15 00 00 00
	00		 call	 DWORD PTR __imp_??4ioHashString@@QAEAAV0@ABV0@@Z
  00013	83 45 10 10	 add	 DWORD PTR __Dest$[ebp], 16 ; 00000010H
  00017	83 c6 10	 add	 esi, 16			; 00000010H
$LN11@Move@2:

; 2513 : 	for (; _First != _Last; ++_Dest, ++_First)

  0001a	3b 75 0c	 cmp	 esi, DWORD PTR __Last$[ebp]
  0001d	75 ea		 jne	 SHORT $LL3@Move@2

; 2515 : 	return (_Dest);

  0001f	8b 45 10	 mov	 eax, DWORD PTR __Dest$[ebp]
  00022	5e		 pop	 esi

; 2516 : 	}

  00023	5d		 pop	 ebp
  00024	c3		 ret	 0
??$_Move@PAVioHashString@@PAV1@@std@@YAPAVioHashString@@PAV1@00U_Nonscalar_ptr_iterator_tag@0@@Z ENDP ; std::_Move<ioHashString *,ioHashString *>
_TEXT	ENDS
PUBLIC	??$_Uninitialized_move@PAHPAHV?$allocator@H@std@@@std@@YAPAHPAH00AAV?$allocator@H@0@@Z ; std::_Uninitialized_move<int *,int *,std::allocator<int> >
; Function compile flags: /Ogsp
; File c:\program files (x86)\microsoft visual studio 10.0\vc\include\memory
;	COMDAT ??$_Uninitialized_move@PAHPAHV?$allocator@H@std@@@std@@YAPAHPAH00AAV?$allocator@H@0@@Z
_TEXT	SEGMENT
__First$ = 8						; size = 4
__Last$ = 12						; size = 4
__Dest$ = 16						; size = 4
__Al$ = 20						; size = 4
??$_Uninitialized_move@PAHPAHV?$allocator@H@std@@@std@@YAPAHPAH00AAV?$allocator@H@0@@Z PROC ; std::_Uninitialized_move<int *,int *,std::allocator<int> >, COMDAT

; 469  : 	{	// move [_First, _Last) to raw _Dest, using _Al

  00000	55		 push	 ebp
  00001	8b ec		 mov	 ebp, esp
  00003	56		 push	 esi

; 470  : 	return (_Uninit_move(_First, _Last, _Dest, _Al,
; 471  : 		_Val_type(_First), _Ptr_cat(_First, _Dest)));

  00004	8b 75 0c	 mov	 esi, DWORD PTR __Last$[ebp]
  00007	2b 75 08	 sub	 esi, DWORD PTR __First$[ebp]
  0000a	c1 fe 02	 sar	 esi, 2
  0000d	c1 e6 02	 shl	 esi, 2
  00010	56		 push	 esi
  00011	ff 75 08	 push	 DWORD PTR __First$[ebp]
  00014	ff 75 10	 push	 DWORD PTR __Dest$[ebp]
  00017	ff 15 00 00 00
	00		 call	 DWORD PTR __imp__memmove
  0001d	83 c4 0c	 add	 esp, 12			; 0000000cH
  00020	03 c6		 add	 eax, esi
  00022	5e		 pop	 esi

; 472  : 	}

  00023	5d		 pop	 ebp
  00024	c3		 ret	 0
??$_Uninitialized_move@PAHPAHV?$allocator@H@std@@@std@@YAPAHPAH00AAV?$allocator@H@0@@Z ENDP ; std::_Uninitialized_move<int *,int *,std::allocator<int> >
_TEXT	ENDS
PUBLIC	??$_Destroy@VioHashString@@@std@@YAXPAVioHashString@@@Z ; std::_Destroy<ioHashString>
; Function compile flags: /Ogsp
; File c:\program files (x86)\microsoft visual studio 10.0\vc\include\xmemory
;	COMDAT ??$_Destroy@VioHashString@@@std@@YAXPAVioHashString@@@Z
_TEXT	SEGMENT
__Ptr$ = 8						; size = 4
??$_Destroy@VioHashString@@@std@@YAXPAVioHashString@@@Z PROC ; std::_Destroy<ioHashString>, COMDAT

; 62   : 	{	// destroy object at _Ptr

  00000	55		 push	 ebp
  00001	8b ec		 mov	 ebp, esp

; 63   : 	_Ptr->~_Ty();

  00003	8b 4d 08	 mov	 ecx, DWORD PTR __Ptr$[ebp]

; 64   : 	}

  00006	5d		 pop	 ebp

; 63   : 	_Ptr->~_Ty();

  00007	ff 25 00 00 00
	00		 jmp	 DWORD PTR __imp_??1ioHashString@@QAE@XZ
??$_Destroy@VioHashString@@@std@@YAXPAVioHashString@@@Z ENDP ; std::_Destroy<ioHashString>
_TEXT	ENDS
PUBLIC	??$_Destroy@VGashaponPresent@@@std@@YAXPAVGashaponPresent@@@Z ; std::_Destroy<GashaponPresent>
; Function compile flags: /Ogsp
;	COMDAT ??$_Destroy@VGashaponPresent@@@std@@YAXPAVGashaponPresent@@@Z
_TEXT	SEGMENT
__Ptr$ = 8						; size = 4
??$_Destroy@VGashaponPresent@@@std@@YAXPAVGashaponPresent@@@Z PROC ; std::_Destroy<GashaponPresent>, COMDAT

; 62   : 	{	// destroy object at _Ptr

  00000	55		 push	 ebp
  00001	8b ec		 mov	 ebp, esp

; 63   : 	_Ptr->~_Ty();

  00003	8b 4d 08	 mov	 ecx, DWORD PTR __Ptr$[ebp]

; 64   : 	}

  00006	5d		 pop	 ebp

; 63   : 	_Ptr->~_Ty();

  00007	e9 00 00 00 00	 jmp	 ??1GashaponPresent@@QAE@XZ ; GashaponPresent::~GashaponPresent
??$_Destroy@VGashaponPresent@@@std@@YAXPAVGashaponPresent@@@Z ENDP ; std::_Destroy<GashaponPresent>
_TEXT	ENDS
PUBLIC	?construct@?$allocator@VioHashString@@@std@@QAEXPAVioHashString@@ABV3@@Z ; std::allocator<ioHashString>::construct
; Function compile flags: /Ogsp
;	COMDAT ?construct@?$allocator@VioHashString@@@std@@QAEXPAVioHashString@@ABV3@@Z
_TEXT	SEGMENT
__Ptr$ = 8						; size = 4
__Val$ = 12						; size = 4
?construct@?$allocator@VioHashString@@@std@@QAEXPAVioHashString@@ABV3@@Z PROC ; std::allocator<ioHashString>::construct, COMDAT
; _this$ = ecx

; 196  : 		{	// construct object at _Ptr with value _Val

  00000	55		 push	 ebp
  00001	8b ec		 mov	 ebp, esp

; 197  : 		_Construct(_Ptr, _Val);

  00003	ff 75 0c	 push	 DWORD PTR __Val$[ebp]
  00006	ff 75 08	 push	 DWORD PTR __Ptr$[ebp]
  00009	e8 00 00 00 00	 call	 ??$_Construct@VioHashString@@ABV1@@std@@YAXPAVioHashString@@ABV1@@Z ; std::_Construct<ioHashString,ioHashString const &>
  0000e	59		 pop	 ecx
  0000f	59		 pop	 ecx

; 198  : 		}

  00010	5d		 pop	 ebp
  00011	c2 08 00	 ret	 8
?construct@?$allocator@VioHashString@@@std@@QAEXPAVioHashString@@ABV3@@Z ENDP ; std::allocator<ioHashString>::construct
_TEXT	ENDS
PUBLIC	_szType$GSCopy$
PUBLIC	_pImage$GSCopy$
PUBLIC	_this$GSCopy$
PUBLIC	__$ArrayPad$
PUBLIC	?AddRenderImage@RisingGashaponItemInfoBtn@@MAEXABVioHashString@@PAVioUIRenderImage@@@Z ; RisingGashaponItemInfoBtn::AddRenderImage
EXTRN	__imp_?AddRenderImage@ioButton@@UAEXABVioHashString@@PAVioUIRenderImage@@@Z:PROC
; Function compile flags: /Ogsp
; File d:\lost saga for developer\youtube\tutorial\source\src\lsclient\gui\risinggashaponwnd.cpp
;	COMDAT ?AddRenderImage@RisingGashaponItemInfoBtn@@MAEXABVioHashString@@PAVioUIRenderImage@@@Z
_TEXT	SEGMENT
_szType$GSCopy$ = -32					; size = 4
_pImage$GSCopy$ = -28					; size = 4
_this$GSCopy$ = -24					; size = 4
__t$519042 = -20					; size = 11
__t$518917 = -20					; size = 8
__t$518792 = -20					; size = 9
__$ArrayPad$ = -4					; size = 4
_szType$ = 8						; size = 4
_pImage$ = 12						; size = 4
?AddRenderImage@RisingGashaponItemInfoBtn@@MAEXABVioHashString@@PAVioUIRenderImage@@@Z PROC ; RisingGashaponItemInfoBtn::AddRenderImage, COMDAT
; _this$ = ecx

; 66   : {

  00000	55		 push	 ebp
  00001	8b ec		 mov	 ebp, esp
  00003	83 ec 20	 sub	 esp, 32			; 00000020H
  00006	a1 00 00 00 00	 mov	 eax, DWORD PTR ___security_cookie
  0000b	33 c5		 xor	 eax, ebp
  0000d	89 45 fc	 mov	 DWORD PTR __$ArrayPad$[ebp], eax
  00010	8b 45 0c	 mov	 eax, DWORD PTR _pImage$[ebp]
  00013	8b 55 08	 mov	 edx, DWORD PTR _szType$[ebp]
  00016	53		 push	 ebx
  00017	56		 push	 esi
  00018	57		 push	 edi

; 67   : 
; 68   : 	if( szType == "PlusText" )

  00019	33 db		 xor	 ebx, ebx
  0001b	6a 02		 push	 2
  0001d	89 4d e8	 mov	 DWORD PTR _this$GSCopy$[ebp], ecx

; 79   : 	{
; 80   : 		SAFEDELETE( m_pGain );

  00020	89 45 e4	 mov	 DWORD PTR _pImage$GSCopy$[ebp], eax
  00023	89 55 e0	 mov	 DWORD PTR _szType$GSCopy$[ebp], edx
  00026	c7 45 ec bd 80
	9e 99		 mov	 DWORD PTR __t$518792[ebp], -1717665603 ; 999e80bdH
  0002d	c7 45 f0 b9 89
	93 9e		 mov	 DWORD PTR __t$518792[ebp+4], -1634498119 ; 9e9389b9H
  00034	8d 45 ec	 lea	 eax, DWORD PTR __t$518792[ebp]
  00037	88 5d f4	 mov	 BYTE PTR __t$518792[ebp+8], bl
  0003a	59		 pop	 ecx
  0003b	bf ed ec eb ea	 mov	 edi, -353637139		; eaebecedH
$LL121@AddRenderI:

; 67   : 
; 68   : 	if( szType == "PlusText" )

  00040	31 38		 xor	 DWORD PTR [eax], edi
  00042	83 c0 04	 add	 eax, 4
  00045	49		 dec	 ecx
  00046	75 f8		 jne	 SHORT $LL121@AddRenderI
  00048	8b ca		 mov	 ecx, edx
  0004a	8d 75 ec	 lea	 esi, DWORD PTR __t$518792[ebp]
  0004d	ff 15 00 00 00
	00		 call	 DWORD PTR __imp_?c_str@ioHashString@@QBEPBDXZ
$LL350@AddRenderI:
  00053	8a 08		 mov	 cl, BYTE PTR [eax]
  00055	3a 0e		 cmp	 cl, BYTE PTR [esi]
  00057	75 1a		 jne	 SHORT $LN351@AddRenderI
  00059	3a cb		 cmp	 cl, bl
  0005b	74 12		 je	 SHORT $LN352@AddRenderI
  0005d	8a 48 01	 mov	 cl, BYTE PTR [eax+1]
  00060	3a 4e 01	 cmp	 cl, BYTE PTR [esi+1]
  00063	75 0e		 jne	 SHORT $LN351@AddRenderI
  00065	83 c0 02	 add	 eax, 2
  00068	83 c6 02	 add	 esi, 2
  0006b	3a cb		 cmp	 cl, bl
  0006d	75 e4		 jne	 SHORT $LL350@AddRenderI
$LN352@AddRenderI:
  0006f	33 c0		 xor	 eax, eax
  00071	eb 05		 jmp	 SHORT $LN353@AddRenderI
$LN351@AddRenderI:
  00073	1b c0		 sbb	 eax, eax
  00075	83 d8 ff	 sbb	 eax, -1
$LN353@AddRenderI:
  00078	3b c3		 cmp	 eax, ebx
  0007a	75 28		 jne	 SHORT $LN348@AddRenderI

; 69   : 	{
; 70   : 		SAFEDELETE( m_pPlus );

  0007c	8b 75 e8	 mov	 esi, DWORD PTR _this$GSCopy$[ebp]
  0007f	8b 8e 0c 02 00
	00		 mov	 ecx, DWORD PTR [esi+524]
  00085	3b cb		 cmp	 ecx, ebx
  00087	74 0d		 je	 SHORT $LN8@AddRenderI
  00089	8b 01		 mov	 eax, DWORD PTR [ecx]
  0008b	6a 01		 push	 1
  0008d	ff 50 40	 call	 DWORD PTR [eax+64]
  00090	89 9e 0c 02 00
	00		 mov	 DWORD PTR [esi+524], ebx
$LN8@AddRenderI:

; 71   : 		m_pPlus = pImage;

  00096	8b 45 e4	 mov	 eax, DWORD PTR _pImage$GSCopy$[ebp]
  00099	89 86 0c 02 00
	00		 mov	 DWORD PTR [esi+524], eax
  0009f	e9 3c 01 00 00	 jmp	 $LN1@AddRenderI
$LN348@AddRenderI:

; 72   : 	}
; 73   : 	else if( szType == "NumText" )

  000a4	6a 04		 push	 4
  000a6	c7 45 ec a3 99
	86 be		 mov	 DWORD PTR __t$518917[ebp], -1098475101 ; be8699a3H
  000ad	31 7d ec	 xor	 DWORD PTR __t$518917[ebp], edi
  000b0	c7 45 f0 88 94
	9f 00		 mov	 DWORD PTR __t$518917[ebp+4], 10458248 ; 009f9488H
  000b7	58		 pop	 eax
$LL224@AddRenderI:
  000b8	8b c8		 mov	 ecx, eax
  000ba	81 e1 03 00 00
	80		 and	 ecx, -2147483645	; 80000003H
  000c0	79 05		 jns	 SHORT $LN362@AddRenderI
  000c2	49		 dec	 ecx
  000c3	83 c9 fc	 or	 ecx, -4			; fffffffcH
  000c6	41		 inc	 ecx
$LN362@AddRenderI:
  000c7	b2 ed		 mov	 dl, -19			; ffffffedH
  000c9	2a d1		 sub	 dl, cl
  000cb	30 54 05 ec	 xor	 BYTE PTR __t$518917[ebp+eax], dl
  000cf	40		 inc	 eax
  000d0	83 f8 07	 cmp	 eax, 7
  000d3	7c e3		 jl	 SHORT $LL224@AddRenderI
  000d5	8b 4d e0	 mov	 ecx, DWORD PTR _szType$GSCopy$[ebp]
  000d8	8d 75 ec	 lea	 esi, DWORD PTR __t$518917[ebp]
  000db	ff 15 00 00 00
	00		 call	 DWORD PTR __imp_?c_str@ioHashString@@QBEPBDXZ
$LL354@AddRenderI:
  000e1	8a 08		 mov	 cl, BYTE PTR [eax]
  000e3	3a 0e		 cmp	 cl, BYTE PTR [esi]
  000e5	75 1a		 jne	 SHORT $LN355@AddRenderI
  000e7	3a cb		 cmp	 cl, bl
  000e9	74 12		 je	 SHORT $LN356@AddRenderI
  000eb	8a 48 01	 mov	 cl, BYTE PTR [eax+1]
  000ee	3a 4e 01	 cmp	 cl, BYTE PTR [esi+1]
  000f1	75 0e		 jne	 SHORT $LN355@AddRenderI
  000f3	83 c0 02	 add	 eax, 2
  000f6	83 c6 02	 add	 esi, 2
  000f9	3a cb		 cmp	 cl, bl
  000fb	75 e4		 jne	 SHORT $LL354@AddRenderI
$LN356@AddRenderI:
  000fd	33 c0		 xor	 eax, eax
  000ff	eb 05		 jmp	 SHORT $LN357@AddRenderI
$LN355@AddRenderI:
  00101	1b c0		 sbb	 eax, eax
  00103	83 d8 ff	 sbb	 eax, -1
$LN357@AddRenderI:
  00106	3b c3		 cmp	 eax, ebx
  00108	75 28		 jne	 SHORT $LN349@AddRenderI

; 74   : 	{
; 75   : 		SAFEDELETE( m_pNum );

  0010a	8b 75 e8	 mov	 esi, DWORD PTR _this$GSCopy$[ebp]
  0010d	8b 8e 08 02 00
	00		 mov	 ecx, DWORD PTR [esi+520]
  00113	3b cb		 cmp	 ecx, ebx
  00115	74 0d		 je	 SHORT $LN5@AddRenderI
  00117	8b 01		 mov	 eax, DWORD PTR [ecx]
  00119	6a 01		 push	 1
  0011b	ff 50 40	 call	 DWORD PTR [eax+64]
  0011e	89 9e 08 02 00
	00		 mov	 DWORD PTR [esi+520], ebx
$LN5@AddRenderI:

; 76   : 		m_pNum = pImage;

  00124	8b 45 e4	 mov	 eax, DWORD PTR _pImage$GSCopy$[ebp]
  00127	89 86 08 02 00
	00		 mov	 DWORD PTR [esi+520], eax
  0012d	e9 ae 00 00 00	 jmp	 $LN1@AddRenderI
$LN349@AddRenderI:

; 77   : 	}
; 78   : 	else if( szType == "stamp_gain" )

  00132	6a 02		 push	 2
  00134	c7 45 ec 9e 98
	8a 87		 mov	 DWORD PTR __t$519042[ebp], -2020960098 ; 878a989eH
  0013b	c7 45 f0 9d b3
	8c 8b		 mov	 DWORD PTR __t$519042[ebp+4], -1953713251 ; 8b8cb39dH
  00142	66 c7 45 f4 84
	82		 mov	 WORD PTR __t$519042[ebp+8], 33412 ; 00008284H
  00148	8d 45 ec	 lea	 eax, DWORD PTR __t$519042[ebp]
  0014b	88 5d f6	 mov	 BYTE PTR __t$519042[ebp+10], bl
  0014e	59		 pop	 ecx
$LL333@AddRenderI:
  0014f	31 38		 xor	 DWORD PTR [eax], edi
  00151	83 c0 04	 add	 eax, 4
  00154	49		 dec	 ecx
  00155	75 f8		 jne	 SHORT $LL333@AddRenderI
  00157	6a 08		 push	 8
  00159	58		 pop	 eax
$LL330@AddRenderI:
  0015a	8b c8		 mov	 ecx, eax
  0015c	81 e1 03 00 00
	80		 and	 ecx, -2147483645	; 80000003H
  00162	79 05		 jns	 SHORT $LN363@AddRenderI
  00164	49		 dec	 ecx
  00165	83 c9 fc	 or	 ecx, -4			; fffffffcH
  00168	41		 inc	 ecx
$LN363@AddRenderI:
  00169	b2 ed		 mov	 dl, -19			; ffffffedH
  0016b	2a d1		 sub	 dl, cl
  0016d	30 54 05 ec	 xor	 BYTE PTR __t$519042[ebp+eax], dl
  00171	40		 inc	 eax
  00172	83 f8 0a	 cmp	 eax, 10			; 0000000aH
  00175	7c e3		 jl	 SHORT $LL330@AddRenderI
  00177	8b 4d e0	 mov	 ecx, DWORD PTR _szType$GSCopy$[ebp]
  0017a	8d 75 ec	 lea	 esi, DWORD PTR __t$519042[ebp]
  0017d	ff 15 00 00 00
	00		 call	 DWORD PTR __imp_?c_str@ioHashString@@QBEPBDXZ
$LL358@AddRenderI:
  00183	8a 08		 mov	 cl, BYTE PTR [eax]
  00185	3a 0e		 cmp	 cl, BYTE PTR [esi]
  00187	75 1a		 jne	 SHORT $LN359@AddRenderI
  00189	3a cb		 cmp	 cl, bl
  0018b	74 12		 je	 SHORT $LN360@AddRenderI
  0018d	8a 48 01	 mov	 cl, BYTE PTR [eax+1]
  00190	3a 4e 01	 cmp	 cl, BYTE PTR [esi+1]
  00193	75 0e		 jne	 SHORT $LN359@AddRenderI
  00195	83 c0 02	 add	 eax, 2
  00198	83 c6 02	 add	 esi, 2
  0019b	3a cb		 cmp	 cl, bl
  0019d	75 e4		 jne	 SHORT $LL358@AddRenderI
$LN360@AddRenderI:
  0019f	33 c0		 xor	 eax, eax
  001a1	eb 05		 jmp	 SHORT $LN361@AddRenderI
$LN359@AddRenderI:
  001a3	1b c0		 sbb	 eax, eax
  001a5	83 d8 ff	 sbb	 eax, -1
$LN361@AddRenderI:
  001a8	3b c3		 cmp	 eax, ebx
  001aa	75 25		 jne	 SHORT $LN3@AddRenderI

; 79   : 	{
; 80   : 		SAFEDELETE( m_pGain );

  001ac	8b 75 e8	 mov	 esi, DWORD PTR _this$GSCopy$[ebp]
  001af	8b 8e 10 02 00
	00		 mov	 ecx, DWORD PTR [esi+528]
  001b5	3b cb		 cmp	 ecx, ebx
  001b7	74 0d		 je	 SHORT $LN2@AddRenderI
  001b9	8b 01		 mov	 eax, DWORD PTR [ecx]
  001bb	6a 01		 push	 1
  001bd	ff 50 40	 call	 DWORD PTR [eax+64]
  001c0	89 9e 10 02 00
	00		 mov	 DWORD PTR [esi+528], ebx
$LN2@AddRenderI:

; 81   : 		m_pGain = pImage;

  001c6	8b 45 e4	 mov	 eax, DWORD PTR _pImage$GSCopy$[ebp]
  001c9	89 86 10 02 00
	00		 mov	 DWORD PTR [esi+528], eax

; 82   : 	}
; 83   : 	else

  001cf	eb 0f		 jmp	 SHORT $LN1@AddRenderI
$LN3@AddRenderI:

; 84   : 	{
; 85   : 		ioButton::AddRenderImage( szType, pImage );

  001d1	ff 75 e4	 push	 DWORD PTR _pImage$GSCopy$[ebp]
  001d4	8b 4d e8	 mov	 ecx, DWORD PTR _this$GSCopy$[ebp]
  001d7	ff 75 e0	 push	 DWORD PTR _szType$GSCopy$[ebp]
  001da	ff 15 00 00 00
	00		 call	 DWORD PTR __imp_?AddRenderImage@ioButton@@UAEXABVioHashString@@PAVioUIRenderImage@@@Z
$LN1@AddRenderI:

; 86   : 	}
; 87   : }

  001e0	8b 4d fc	 mov	 ecx, DWORD PTR __$ArrayPad$[ebp]
  001e3	5f		 pop	 edi
  001e4	5e		 pop	 esi
  001e5	33 cd		 xor	 ecx, ebp
  001e7	5b		 pop	 ebx
  001e8	e8 00 00 00 00	 call	 @__security_check_cookie@4
  001ed	c9		 leave
  001ee	c2 08 00	 ret	 8
?AddRenderImage@RisingGashaponItemInfoBtn@@MAEXABVioHashString@@PAVioUIRenderImage@@@Z ENDP ; RisingGashaponItemInfoBtn::AddRenderImage
_TEXT	ENDS
PUBLIC	_szType$GSCopy$
PUBLIC	_pFrame$GSCopy$
PUBLIC	_this$GSCopy$
PUBLIC	__$ArrayPad$
PUBLIC	?AddRenderFrame@RisingGashaponItemInfoBtn@@MAEXABVioHashString@@PAVioUIRenderFrame@@@Z ; RisingGashaponItemInfoBtn::AddRenderFrame
EXTRN	__imp_?AddRenderFrame@ioButton@@UAEXABVioHashString@@PAVioUIRenderFrame@@@Z:PROC
; Function compile flags: /Ogsp
;	COMDAT ?AddRenderFrame@RisingGashaponItemInfoBtn@@MAEXABVioHashString@@PAVioUIRenderFrame@@@Z
_TEXT	SEGMENT
_szType$GSCopy$ = -36					; size = 4
_pFrame$GSCopy$ = -32					; size = 4
_this$GSCopy$ = -28					; size = 4
__t$519245 = -24					; size = 14
__t$519333 = -20					; size = 10
__$ArrayPad$ = -4					; size = 4
_szType$ = 8						; size = 4
_pFrame$ = 12						; size = 4
?AddRenderFrame@RisingGashaponItemInfoBtn@@MAEXABVioHashString@@PAVioUIRenderFrame@@@Z PROC ; RisingGashaponItemInfoBtn::AddRenderFrame, COMDAT
; _this$ = ecx

; 90   : {

  00000	55		 push	 ebp
  00001	8b ec		 mov	 ebp, esp
  00003	83 ec 24	 sub	 esp, 36			; 00000024H
  00006	a1 00 00 00 00	 mov	 eax, DWORD PTR ___security_cookie
  0000b	33 c5		 xor	 eax, ebp
  0000d	89 45 fc	 mov	 DWORD PTR __$ArrayPad$[ebp], eax
  00010	8b 45 0c	 mov	 eax, DWORD PTR _pFrame$[ebp]
  00013	8b 55 08	 mov	 edx, DWORD PTR _szType$[ebp]
  00016	56		 push	 esi
  00017	57		 push	 edi

; 91   : 	if( szType == "PresentSelect" )

  00018	6a 03		 push	 3
  0001a	89 4d e4	 mov	 DWORD PTR _this$GSCopy$[ebp], ecx

; 95   : 	}
; 96   : 	else if( szType == "empty_frm" )

  0001d	89 45 e0	 mov	 DWORD PTR _pFrame$GSCopy$[ebp], eax
  00020	89 55 dc	 mov	 DWORD PTR _szType$GSCopy$[ebp], edx
  00023	c7 45 e8 bd 9e
	8e 99		 mov	 DWORD PTR __t$519245[ebp], -1718706499 ; 998e9ebdH
  0002a	c7 45 ec 88 82
	9f b9		 mov	 DWORD PTR __t$519245[ebp+4], -1180728696 ; b99f8288H
  00031	c7 45 f0 88 80
	8e 89		 mov	 DWORD PTR __t$519245[ebp+8], -1987149688 ; 898e8088H
  00038	8d 45 e8	 lea	 eax, DWORD PTR __t$519245[ebp]
  0003b	66 c7 45 f4 99
	00		 mov	 WORD PTR __t$519245[ebp+12], 153 ; 00000099H
  00041	59		 pop	 ecx
  00042	bf ed ec eb ea	 mov	 edi, -353637139		; eaebecedH
$LL116@AddRenderF:

; 91   : 	if( szType == "PresentSelect" )

  00047	31 38		 xor	 DWORD PTR [eax], edi
  00049	83 c0 04	 add	 eax, 4
  0004c	49		 dec	 ecx
  0004d	75 f8		 jne	 SHORT $LL116@AddRenderF
  0004f	80 75 f4 ed	 xor	 BYTE PTR __t$519245[ebp+12], -19 ; ffffffedH
  00053	8b ca		 mov	 ecx, edx
  00055	8d 75 e8	 lea	 esi, DWORD PTR __t$519245[ebp]
  00058	ff 15 00 00 00
	00		 call	 DWORD PTR __imp_?c_str@ioHashString@@QBEPBDXZ
$LL234@AddRenderF:
  0005e	8a 08		 mov	 cl, BYTE PTR [eax]
  00060	3a 0e		 cmp	 cl, BYTE PTR [esi]
  00062	75 1a		 jne	 SHORT $LN235@AddRenderF
  00064	84 c9		 test	 cl, cl
  00066	74 12		 je	 SHORT $LN236@AddRenderF
  00068	8a 48 01	 mov	 cl, BYTE PTR [eax+1]
  0006b	3a 4e 01	 cmp	 cl, BYTE PTR [esi+1]
  0006e	75 0e		 jne	 SHORT $LN235@AddRenderF
  00070	83 c0 02	 add	 eax, 2
  00073	83 c6 02	 add	 esi, 2
  00076	84 c9		 test	 cl, cl
  00078	75 e4		 jne	 SHORT $LL234@AddRenderF
$LN236@AddRenderF:
  0007a	33 c0		 xor	 eax, eax
  0007c	eb 05		 jmp	 SHORT $LN237@AddRenderF
$LN235@AddRenderF:
  0007e	1b c0		 sbb	 eax, eax
  00080	83 d8 ff	 sbb	 eax, -1
$LN237@AddRenderF:
  00083	85 c0		 test	 eax, eax
  00085	75 29		 jne	 SHORT $LN233@AddRenderF

; 92   : 	{
; 93   : 		SAFEDELETE( m_pSelect );

  00087	8b 75 e4	 mov	 esi, DWORD PTR _this$GSCopy$[ebp]
  0008a	8b 8e fc 01 00
	00		 mov	 ecx, DWORD PTR [esi+508]
  00090	85 c9		 test	 ecx, ecx
  00092	74 0e		 je	 SHORT $LN5@AddRenderF
  00094	8b 01		 mov	 eax, DWORD PTR [ecx]
  00096	6a 01		 push	 1
  00098	ff 50 40	 call	 DWORD PTR [eax+64]
  0009b	83 a6 fc 01 00
	00 00		 and	 DWORD PTR [esi+508], 0
$LN5@AddRenderF:

; 94   : 		m_pSelect = pFrame;

  000a2	8b 45 e0	 mov	 eax, DWORD PTR _pFrame$GSCopy$[ebp]
  000a5	89 86 fc 01 00
	00		 mov	 DWORD PTR [esi+508], eax
  000ab	e9 90 00 00 00	 jmp	 $LN1@AddRenderF
$LN233@AddRenderF:

; 95   : 	}
; 96   : 	else if( szType == "empty_frm" )

  000b0	6a 02		 push	 2
  000b2	c7 45 ec 88 81
	9b 9e		 mov	 DWORD PTR __t$519333[ebp], -1633975928 ; 9e9b8188H
  000b9	c7 45 f0 94 b3
	8d 98		 mov	 DWORD PTR __t$519333[ebp+4], -1735543916 ; 988db394H
  000c0	8d 45 ec	 lea	 eax, DWORD PTR __t$519333[ebp]
  000c3	66 c7 45 f4 80
	00		 mov	 WORD PTR __t$519333[ebp+8], 128 ; 00000080H
  000c9	59		 pop	 ecx
$LL222@AddRenderF:
  000ca	31 38		 xor	 DWORD PTR [eax], edi
  000cc	83 c0 04	 add	 eax, 4
  000cf	49		 dec	 ecx
  000d0	75 f8		 jne	 SHORT $LL222@AddRenderF
  000d2	8b 4d dc	 mov	 ecx, DWORD PTR _szType$GSCopy$[ebp]
  000d5	80 75 f4 ed	 xor	 BYTE PTR __t$519333[ebp+8], -19 ; ffffffedH
  000d9	8d 75 ec	 lea	 esi, DWORD PTR __t$519333[ebp]
  000dc	ff 15 00 00 00
	00		 call	 DWORD PTR __imp_?c_str@ioHashString@@QBEPBDXZ
$LL238@AddRenderF:
  000e2	8a 08		 mov	 cl, BYTE PTR [eax]
  000e4	3a 0e		 cmp	 cl, BYTE PTR [esi]
  000e6	75 1a		 jne	 SHORT $LN239@AddRenderF
  000e8	84 c9		 test	 cl, cl
  000ea	74 12		 je	 SHORT $LN240@AddRenderF
  000ec	8a 48 01	 mov	 cl, BYTE PTR [eax+1]
  000ef	3a 4e 01	 cmp	 cl, BYTE PTR [esi+1]
  000f2	75 0e		 jne	 SHORT $LN239@AddRenderF
  000f4	83 c0 02	 add	 eax, 2
  000f7	83 c6 02	 add	 esi, 2
  000fa	84 c9		 test	 cl, cl
  000fc	75 e4		 jne	 SHORT $LL238@AddRenderF
$LN240@AddRenderF:
  000fe	33 c0		 xor	 eax, eax
  00100	eb 05		 jmp	 SHORT $LN241@AddRenderF
$LN239@AddRenderF:
  00102	1b c0		 sbb	 eax, eax
  00104	83 d8 ff	 sbb	 eax, -1
$LN241@AddRenderF:
  00107	85 c0		 test	 eax, eax
  00109	75 26		 jne	 SHORT $LN3@AddRenderF

; 97   : 	{
; 98   : 		SAFEDELETE( m_pEmpty );

  0010b	8b 75 e4	 mov	 esi, DWORD PTR _this$GSCopy$[ebp]
  0010e	8b 8e 00 02 00
	00		 mov	 ecx, DWORD PTR [esi+512]
  00114	85 c9		 test	 ecx, ecx
  00116	74 0e		 je	 SHORT $LN2@AddRenderF
  00118	8b 01		 mov	 eax, DWORD PTR [ecx]
  0011a	6a 01		 push	 1
  0011c	ff 50 40	 call	 DWORD PTR [eax+64]
  0011f	83 a6 00 02 00
	00 00		 and	 DWORD PTR [esi+512], 0
$LN2@AddRenderF:

; 99   : 		m_pEmpty = pFrame;

  00126	8b 45 e0	 mov	 eax, DWORD PTR _pFrame$GSCopy$[ebp]
  00129	89 86 00 02 00
	00		 mov	 DWORD PTR [esi+512], eax

; 100  : 	}
; 101  : 	else

  0012f	eb 0f		 jmp	 SHORT $LN1@AddRenderF
$LN3@AddRenderF:

; 102  : 	{
; 103  : 		ioButton::AddRenderFrame( szType, pFrame );

  00131	ff 75 e0	 push	 DWORD PTR _pFrame$GSCopy$[ebp]
  00134	8b 4d e4	 mov	 ecx, DWORD PTR _this$GSCopy$[ebp]
  00137	ff 75 dc	 push	 DWORD PTR _szType$GSCopy$[ebp]
  0013a	ff 15 00 00 00
	00		 call	 DWORD PTR __imp_?AddRenderFrame@ioButton@@UAEXABVioHashString@@PAVioUIRenderFrame@@@Z
$LN1@AddRenderF:

; 104  : 	}
; 105  : }

  00140	8b 4d fc	 mov	 ecx, DWORD PTR __$ArrayPad$[ebp]
  00143	5f		 pop	 edi
  00144	33 cd		 xor	 ecx, ebp
  00146	5e		 pop	 esi
  00147	e8 00 00 00 00	 call	 @__security_check_cookie@4
  0014c	c9		 leave
  0014d	c2 08 00	 ret	 8
?AddRenderFrame@RisingGashaponItemInfoBtn@@MAEXABVioHashString@@PAVioUIRenderFrame@@@Z ENDP ; RisingGashaponItemInfoBtn::AddRenderFrame
_TEXT	ENDS
PUBLIC	?OnProcess@RisingGashaponItemInfoBtn@@MAEXM@Z	; RisingGashaponItemInfoBtn::OnProcess
EXTRN	__imp_?IsShow@ioWnd@@QBE_NXZ:PROC
; Function compile flags: /Ogsp
;	COMDAT ?OnProcess@RisingGashaponItemInfoBtn@@MAEXM@Z
_TEXT	SEGMENT
_fTimePerSec$ = 8					; size = 4
?OnProcess@RisingGashaponItemInfoBtn@@MAEXM@Z PROC	; RisingGashaponItemInfoBtn::OnProcess, COMDAT
; _this$ = ecx

; 137  : {

  00000	55		 push	 ebp
  00001	8b ec		 mov	 ebp, esp
  00003	56		 push	 esi
  00004	8b f1		 mov	 esi, ecx

; 138  : 	if( !IsShow() ) return;

  00006	ff 15 00 00 00
	00		 call	 DWORD PTR __imp_?IsShow@ioWnd@@QBE_NXZ
  0000c	84 c0		 test	 al, al
  0000e	74 12		 je	 SHORT $LN2@OnProcess

; 139  : 
; 140  : 	RollingEffect( fTimePerSec );

  00010	f3 0f 10 45 08	 movss	 xmm0, DWORD PTR _fTimePerSec$[ebp]
  00015	51		 push	 ecx
  00016	8b ce		 mov	 ecx, esi
  00018	f3 0f 11 04 24	 movss	 DWORD PTR [esp], xmm0
  0001d	e8 00 00 00 00	 call	 ?RollingEffect@RisingGashaponItemInfoBtn@@IAEXM@Z ; RisingGashaponItemInfoBtn::RollingEffect
$LN2@OnProcess:
  00022	5e		 pop	 esi

; 141  : }

  00023	5d		 pop	 ebp
  00024	c2 04 00	 ret	 4
?OnProcess@RisingGashaponItemInfoBtn@@MAEXM@Z ENDP	; RisingGashaponItemInfoBtn::OnProcess
_TEXT	ENDS
PUBLIC	_xElement$GSCopy$
PUBLIC	__$ArrayPad$
PUBLIC	?ParseExtraInfo@RisingGashaponWnd@@UAEXAAVioXMLElement@@@Z ; RisingGashaponWnd::ParseExtraInfo
EXTRN	__imp_??4ioHashString@@QAEAAV0@PBD@Z:PROC
EXTRN	__imp_?GetStringAttribute@ioXMLElement@@QBEPBDPBD@Z:PROC
; Function compile flags: /Ogsp
;	COMDAT ?ParseExtraInfo@RisingGashaponWnd@@UAEXAAVioXMLElement@@@Z
_TEXT	SEGMENT
_xElement$GSCopy$ = -288				; size = 4
_szKeyName$ = -284					; size = 260
___encStr$513346 = -24					; size = 14
__k$519746 = -20					; size = 8
__k$519621 = -20					; size = 10
__k$519496 = -20					; size = 10
__$ArrayPad$ = -4					; size = 4
_xElement$ = 8						; size = 4
?ParseExtraInfo@RisingGashaponWnd@@UAEXAAVioXMLElement@@@Z PROC ; RisingGashaponWnd::ParseExtraInfo, COMDAT
; _this$ = ecx

; 460  : {

  00000	55		 push	 ebp
  00001	8b ec		 mov	 ebp, esp
  00003	81 ec 20 01 00
	00		 sub	 esp, 288		; 00000120H
  00009	a1 00 00 00 00	 mov	 eax, DWORD PTR ___security_cookie
  0000e	33 c5		 xor	 eax, ebp
  00010	89 45 fc	 mov	 DWORD PTR __$ArrayPad$[ebp], eax
  00013	53		 push	 ebx
  00014	57		 push	 edi
  00015	8b f9		 mov	 edi, ecx
  00017	8b 4d 08	 mov	 ecx, DWORD PTR _xElement$[ebp]

; 461  : 	m_dwAniWaitDelay = xElement.GetIntAttribute_e( "WaitDelay" );

  0001a	6a 02		 push	 2

; 467  : 	StringCbPrintf_e( szKeyName, sizeof( szKeyName ), "rolling_sound" );

  0001c	89 8d e0 fe ff
	ff		 mov	 DWORD PTR _xElement$GSCopy$[ebp], ecx
  00022	c7 45 ec ba 8d
	82 9e		 mov	 DWORD PTR __k$519496[ebp], -1635611206 ; 9e828dbaH
  00029	c7 45 f0 a9 89
	87 8b		 mov	 DWORD PTR __k$519496[ebp+4], -1954051671 ; 8b8789a9H
  00030	8d 45 ec	 lea	 eax, DWORD PTR __k$519496[ebp]
  00033	66 c7 45 f4 94
	00		 mov	 WORD PTR __k$519496[ebp+8], 148 ; 00000094H
  00039	5a		 pop	 edx
  0003a	bb ed ec eb ea	 mov	 ebx, -353637139		; eaebecedH
$LL205@ParseExtra:

; 461  : 	m_dwAniWaitDelay = xElement.GetIntAttribute_e( "WaitDelay" );

  0003f	31 18		 xor	 DWORD PTR [eax], ebx
  00041	83 c0 04	 add	 eax, 4
  00044	4a		 dec	 edx
  00045	75 f8		 jne	 SHORT $LL205@ParseExtra
  00047	80 75 f4 ed	 xor	 BYTE PTR __k$519496[ebp+8], -19 ; ffffffedH
  0004b	56		 push	 esi
  0004c	8b 35 00 00 00
	00		 mov	 esi, DWORD PTR __imp_?GetIntAttribute@ioXMLElement@@QBEHPBD@Z
  00052	8d 45 ec	 lea	 eax, DWORD PTR __k$519496[ebp]
  00055	50		 push	 eax
  00056	ff d6		 call	 esi
  00058	6a 02		 push	 2
  0005a	89 87 b4 01 00
	00		 mov	 DWORD PTR [edi+436], eax

; 462  : 	m_dwAniRollDelay = xElement.GetIntAttribute_e( "RollDelay" );

  00060	c7 45 ec bf 83
	87 86		 mov	 DWORD PTR __k$519621[ebp], -2037939265 ; 868783bfH
  00067	c7 45 f0 a9 89
	87 8b		 mov	 DWORD PTR __k$519621[ebp+4], -1954051671 ; 8b8789a9H
  0006e	8d 45 ec	 lea	 eax, DWORD PTR __k$519621[ebp]
  00071	66 c7 45 f4 94
	00		 mov	 WORD PTR __k$519621[ebp+8], 148 ; 00000094H
  00077	59		 pop	 ecx
$LL311@ParseExtra:
  00078	31 18		 xor	 DWORD PTR [eax], ebx
  0007a	83 c0 04	 add	 eax, 4
  0007d	49		 dec	 ecx
  0007e	75 f8		 jne	 SHORT $LL311@ParseExtra
  00080	8b 8d e0 fe ff
	ff		 mov	 ecx, DWORD PTR _xElement$GSCopy$[ebp]
  00086	80 75 f4 ed	 xor	 BYTE PTR __k$519621[ebp+8], -19 ; ffffffedH
  0008a	8d 45 ec	 lea	 eax, DWORD PTR __k$519621[ebp]
  0008d	50		 push	 eax
  0008e	ff d6		 call	 esi

; 463  : 	m_dwAniRollCnt   = xElement.GetIntAttribute_e( "RollCnt" );

  00090	6a 04		 push	 4
  00092	89 87 b8 01 00
	00		 mov	 DWORD PTR [edi+440], eax
  00098	c7 45 ec bf 83
	87 86		 mov	 DWORD PTR __k$519746[ebp], -2037939265 ; 868783bfH
  0009f	31 5d ec	 xor	 DWORD PTR __k$519746[ebp], ebx
  000a2	c7 45 f0 ae 82
	9f 00		 mov	 DWORD PTR __k$519746[ebp+4], 10453678 ; 009f82aeH
  000a9	58		 pop	 eax
$LL414@ParseExtra:
  000aa	8b c8		 mov	 ecx, eax
  000ac	81 e1 03 00 00
	80		 and	 ecx, -2147483645	; 80000003H
  000b2	79 05		 jns	 SHORT $LN444@ParseExtra
  000b4	49		 dec	 ecx
  000b5	83 c9 fc	 or	 ecx, -4			; fffffffcH
  000b8	41		 inc	 ecx
$LN444@ParseExtra:
  000b9	b2 ed		 mov	 dl, -19			; ffffffedH
  000bb	2a d1		 sub	 dl, cl
  000bd	30 54 05 ec	 xor	 BYTE PTR __k$519746[ebp+eax], dl
  000c1	40		 inc	 eax
  000c2	83 f8 07	 cmp	 eax, 7
  000c5	7c e3		 jl	 SHORT $LL414@ParseExtra
  000c7	8b 8d e0 fe ff
	ff		 mov	 ecx, DWORD PTR _xElement$GSCopy$[ebp]
  000cd	8d 45 ec	 lea	 eax, DWORD PTR __k$519746[ebp]
  000d0	50		 push	 eax
  000d1	ff d6		 call	 esi

; 464  : 
; 465  : 
; 466  : 	char szKeyName[MAX_PATH] = {0,};

  000d3	68 03 01 00 00	 push	 259			; 00000103H
  000d8	89 87 bc 01 00
	00		 mov	 DWORD PTR [edi+444], eax
  000de	8d 85 e5 fe ff
	ff		 lea	 eax, DWORD PTR _szKeyName$[ebp+1]
  000e4	6a 00		 push	 0
  000e6	50		 push	 eax
  000e7	c6 85 e4 fe ff
	ff 00		 mov	 BYTE PTR _szKeyName$[ebp], 0
  000ee	e8 00 00 00 00	 call	 _memset
  000f3	83 c4 0c	 add	 esp, 12			; 0000000cH
  000f6	6a 03		 push	 3
  000f8	59		 pop	 ecx

; 467  : 	StringCbPrintf_e( szKeyName, sizeof( szKeyName ), "rolling_sound" );

  000f9	c7 45 e8 9f 83
	87 86		 mov	 DWORD PTR ___encStr$513346[ebp], -2037939297 ; 8687839fH
  00100	c7 45 ec 84 82
	8c b5		 mov	 DWORD PTR ___encStr$513346[ebp+4], -1249082748 ; b58c8284H
  00107	c7 45 f0 9e 83
	9e 84		 mov	 DWORD PTR ___encStr$513346[ebp+8], -2069986402 ; 849e839eH
  0010e	8d 45 e8	 lea	 eax, DWORD PTR ___encStr$513346[ebp]
  00111	66 c7 45 f4 89
	00		 mov	 WORD PTR ___encStr$513346[ebp+12], 137 ; 00000089H
  00117	5e		 pop	 esi
$LL425@ParseExtra:
  00118	31 18		 xor	 DWORD PTR [eax], ebx
  0011a	83 c0 04	 add	 eax, 4
  0011d	49		 dec	 ecx
  0011e	75 f8		 jne	 SHORT $LL425@ParseExtra
  00120	80 75 f4 ed	 xor	 BYTE PTR ___encStr$513346[ebp+12], -19 ; ffffffedH
  00124	8d 45 e8	 lea	 eax, DWORD PTR ___encStr$513346[ebp]
  00127	50		 push	 eax
  00128	8d 85 e4 fe ff
	ff		 lea	 eax, DWORD PTR _szKeyName$[ebp]
  0012e	68 04 01 00 00	 push	 260			; 00000104H
  00133	50		 push	 eax
  00134	e8 00 00 00 00	 call	 ?StringCbPrintfA@@YAJPADIPBDZZ ; StringCbPrintfA

; 468  : 	m_szRollingSound = xElement.GetStringAttribute( szKeyName );

  00139	8b 8d e0 fe ff
	ff		 mov	 ecx, DWORD PTR _xElement$GSCopy$[ebp]
  0013f	83 c4 0c	 add	 esp, 12			; 0000000cH
  00142	8d 85 e4 fe ff
	ff		 lea	 eax, DWORD PTR _szKeyName$[ebp]
  00148	50		 push	 eax
  00149	ff 15 00 00 00
	00		 call	 DWORD PTR __imp_?GetStringAttribute@ioXMLElement@@QBEPBDPBD@Z
  0014f	50		 push	 eax
  00150	8d 8f 7c 01 00
	00		 lea	 ecx, DWORD PTR [edi+380]
  00156	ff 15 00 00 00
	00		 call	 DWORD PTR __imp_??4ioHashString@@QAEAAV0@PBD@Z

; 469  : }

  0015c	8b 4d fc	 mov	 ecx, DWORD PTR __$ArrayPad$[ebp]
  0015f	5f		 pop	 edi
  00160	33 cd		 xor	 ecx, ebp
  00162	5b		 pop	 ebx
  00163	e8 00 00 00 00	 call	 @__security_check_cookie@4
  00168	c9		 leave
  00169	c2 04 00	 ret	 4
?ParseExtraInfo@RisingGashaponWnd@@UAEXAAVioXMLElement@@@Z ENDP ; RisingGashaponWnd::ParseExtraInfo
_TEXT	ENDS
PUBLIC	_szType$GSCopy$
PUBLIC	_pImage$GSCopy$
PUBLIC	_this$GSCopy$
PUBLIC	__$ArrayPad$
PUBLIC	?AddRenderImage@RisingGashaponWnd@@UAEXABVioHashString@@PAVioUIRenderImage@@@Z ; RisingGashaponWnd::AddRenderImage
EXTRN	__imp_?AddRenderImage@ioWnd@@UAEXABVioHashString@@PAVioUIRenderImage@@@Z:PROC
EXTRN	__imp_?SetReverseFormatting@ioUIRenderImage@@QAEXW4ReverseFormatting@1@@Z:PROC
; Function compile flags: /Ogsp
;	COMDAT ?AddRenderImage@RisingGashaponWnd@@UAEXABVioHashString@@PAVioUIRenderImage@@@Z
_TEXT	SEGMENT
_szType$GSCopy$ = -32					; size = 4
_pImage$GSCopy$ = -28					; size = 4
_this$GSCopy$ = -24					; size = 4
__t$520153 = -20					; size = 10
__t$520028 = -20					; size = 11
__t$519903 = -20					; size = 9
__$ArrayPad$ = -4					; size = 4
_szType$ = 8						; size = 4
_pImage$ = 12						; size = 4
?AddRenderImage@RisingGashaponWnd@@UAEXABVioHashString@@PAVioUIRenderImage@@@Z PROC ; RisingGashaponWnd::AddRenderImage, COMDAT
; _this$ = ecx

; 472  : {

  00000	55		 push	 ebp
  00001	8b ec		 mov	 ebp, esp
  00003	83 ec 20	 sub	 esp, 32			; 00000020H
  00006	a1 00 00 00 00	 mov	 eax, DWORD PTR ___security_cookie
  0000b	33 c5		 xor	 eax, ebp
  0000d	89 45 fc	 mov	 DWORD PTR __$ArrayPad$[ebp], eax
  00010	8b 45 0c	 mov	 eax, DWORD PTR _pImage$[ebp]
  00013	8b 55 08	 mov	 edx, DWORD PTR _szType$[ebp]
  00016	53		 push	 ebx
  00017	56		 push	 esi
  00018	57		 push	 edi

; 473  : 	if( szType == "LineLeft" )

  00019	6a 02		 push	 2
  0001b	33 db		 xor	 ebx, ebx
  0001d	5f		 pop	 edi
  0001e	89 4d e8	 mov	 DWORD PTR _this$GSCopy$[ebp], ecx

; 486  : 		m_pLineRight = pImage;

  00021	89 45 e4	 mov	 DWORD PTR _pImage$GSCopy$[ebp], eax
  00024	89 55 e0	 mov	 DWORD PTR _szType$GSCopy$[ebp], edx
  00027	c7 45 ec a1 85
	85 8f		 mov	 DWORD PTR __t$519903[ebp], -1887074911 ; 8f8585a1H
  0002e	c7 45 f0 a1 89
	8d 9e		 mov	 DWORD PTR __t$519903[ebp+4], -1634891359 ; 9e8d89a1H
  00035	8d 45 ec	 lea	 eax, DWORD PTR __t$519903[ebp]
  00038	88 5d f4	 mov	 BYTE PTR __t$519903[ebp+8], bl
  0003b	8b cf		 mov	 ecx, edi
$LL122@AddRenderI@2:

; 473  : 	if( szType == "LineLeft" )

  0003d	81 30 ed ec eb
	ea		 xor	 DWORD PTR [eax], -353637139 ; eaebecedH
  00043	83 c0 04	 add	 eax, 4
  00046	49		 dec	 ecx
  00047	75 f4		 jne	 SHORT $LL122@AddRenderI@2
  00049	8b ca		 mov	 ecx, edx
  0004b	8d 75 ec	 lea	 esi, DWORD PTR __t$519903[ebp]
  0004e	ff 15 00 00 00
	00		 call	 DWORD PTR __imp_?c_str@ioHashString@@QBEPBDXZ
$LL351@AddRenderI@2:
  00054	8a 08		 mov	 cl, BYTE PTR [eax]
  00056	3a 0e		 cmp	 cl, BYTE PTR [esi]
  00058	75 18		 jne	 SHORT $LN352@AddRenderI@2
  0005a	3a cb		 cmp	 cl, bl
  0005c	74 10		 je	 SHORT $LN353@AddRenderI@2
  0005e	8a 48 01	 mov	 cl, BYTE PTR [eax+1]
  00061	3a 4e 01	 cmp	 cl, BYTE PTR [esi+1]
  00064	75 0c		 jne	 SHORT $LN352@AddRenderI@2
  00066	03 c7		 add	 eax, edi
  00068	03 f7		 add	 esi, edi
  0006a	3a cb		 cmp	 cl, bl
  0006c	75 e6		 jne	 SHORT $LL351@AddRenderI@2
$LN353@AddRenderI@2:
  0006e	33 c0		 xor	 eax, eax
  00070	eb 05		 jmp	 SHORT $LN354@AddRenderI@2
$LN352@AddRenderI@2:
  00072	1b c0		 sbb	 eax, eax
  00074	83 d8 ff	 sbb	 eax, -1
$LN354@AddRenderI@2:
  00077	3b c3		 cmp	 eax, ebx
  00079	75 28		 jne	 SHORT $LN349@AddRenderI@2

; 474  : 	{
; 475  : 		SAFEDELETE( m_pLineLeft );

  0007b	8b 75 e8	 mov	 esi, DWORD PTR _this$GSCopy$[ebp]
  0007e	8b 8e 70 01 00
	00		 mov	 ecx, DWORD PTR [esi+368]
  00084	3b cb		 cmp	 ecx, ebx
  00086	74 0d		 je	 SHORT $LN9@AddRenderI@2
  00088	8b 01		 mov	 eax, DWORD PTR [ecx]
  0008a	6a 01		 push	 1
  0008c	ff 50 40	 call	 DWORD PTR [eax+64]
  0008f	89 9e 70 01 00
	00		 mov	 DWORD PTR [esi+368], ebx
$LN9@AddRenderI@2:

; 476  : 		m_pLineLeft = pImage;

  00095	8b 45 e4	 mov	 eax, DWORD PTR _pImage$GSCopy$[ebp]
  00098	89 86 70 01 00
	00		 mov	 DWORD PTR [esi+368], eax
  0009e	e9 3f 01 00 00	 jmp	 $LN1@AddRenderI@2
$LN349@AddRenderI@2:

; 477  : 	}
; 478  : 	else if( szType == "LineCenter" )

  000a3	c7 45 ec a1 85
	85 8f		 mov	 DWORD PTR __t$520028[ebp], -1887074911 ; 8f8585a1H
  000aa	c7 45 f0 ae 89
	85 9e		 mov	 DWORD PTR __t$520028[ebp+4], -1635415634 ; 9e8589aeH
  000b1	66 c7 45 f4 88
	9e		 mov	 WORD PTR __t$520028[ebp+8], 40584 ; 00009e88H
  000b7	8d 45 ec	 lea	 eax, DWORD PTR __t$520028[ebp]
  000ba	88 5d f6	 mov	 BYTE PTR __t$520028[ebp+10], bl
  000bd	8b cf		 mov	 ecx, edi
$LL228@AddRenderI@2:
  000bf	81 30 ed ec eb
	ea		 xor	 DWORD PTR [eax], -353637139 ; eaebecedH
  000c5	83 c0 04	 add	 eax, 4
  000c8	49		 dec	 ecx
  000c9	75 f4		 jne	 SHORT $LL228@AddRenderI@2
  000cb	6a 08		 push	 8
  000cd	58		 pop	 eax
$LL225@AddRenderI@2:
  000ce	8b c8		 mov	 ecx, eax
  000d0	81 e1 03 00 00
	80		 and	 ecx, -2147483645	; 80000003H
  000d6	79 05		 jns	 SHORT $LN363@AddRenderI@2
  000d8	49		 dec	 ecx
  000d9	83 c9 fc	 or	 ecx, -4			; fffffffcH
  000dc	41		 inc	 ecx
$LN363@AddRenderI@2:
  000dd	b2 ed		 mov	 dl, -19			; ffffffedH
  000df	2a d1		 sub	 dl, cl
  000e1	30 54 05 ec	 xor	 BYTE PTR __t$520028[ebp+eax], dl
  000e5	40		 inc	 eax
  000e6	83 f8 0a	 cmp	 eax, 10			; 0000000aH
  000e9	7c e3		 jl	 SHORT $LL225@AddRenderI@2
  000eb	8b 4d e0	 mov	 ecx, DWORD PTR _szType$GSCopy$[ebp]
  000ee	8d 75 ec	 lea	 esi, DWORD PTR __t$520028[ebp]
  000f1	ff 15 00 00 00
	00		 call	 DWORD PTR __imp_?c_str@ioHashString@@QBEPBDXZ
$LL355@AddRenderI@2:
  000f7	8a 08		 mov	 cl, BYTE PTR [eax]
  000f9	3a 0e		 cmp	 cl, BYTE PTR [esi]
  000fb	75 18		 jne	 SHORT $LN356@AddRenderI@2
  000fd	3a cb		 cmp	 cl, bl
  000ff	74 10		 je	 SHORT $LN357@AddRenderI@2
  00101	8a 48 01	 mov	 cl, BYTE PTR [eax+1]
  00104	3a 4e 01	 cmp	 cl, BYTE PTR [esi+1]
  00107	75 0c		 jne	 SHORT $LN356@AddRenderI@2
  00109	03 c7		 add	 eax, edi
  0010b	03 f7		 add	 esi, edi
  0010d	3a cb		 cmp	 cl, bl
  0010f	75 e6		 jne	 SHORT $LL355@AddRenderI@2
$LN357@AddRenderI@2:
  00111	33 c0		 xor	 eax, eax
  00113	eb 05		 jmp	 SHORT $LN358@AddRenderI@2
$LN356@AddRenderI@2:
  00115	1b c0		 sbb	 eax, eax
  00117	83 d8 ff	 sbb	 eax, -1
$LN358@AddRenderI@2:
  0011a	3b c3		 cmp	 eax, ebx
  0011c	75 28		 jne	 SHORT $LN350@AddRenderI@2

; 479  : 	{
; 480  : 		SAFEDELETE( m_pLineCenter );

  0011e	8b 75 e8	 mov	 esi, DWORD PTR _this$GSCopy$[ebp]
  00121	8b 8e 74 01 00
	00		 mov	 ecx, DWORD PTR [esi+372]
  00127	3b cb		 cmp	 ecx, ebx
  00129	74 0d		 je	 SHORT $LN6@AddRenderI@2
  0012b	8b 01		 mov	 eax, DWORD PTR [ecx]
  0012d	6a 01		 push	 1
  0012f	ff 50 40	 call	 DWORD PTR [eax+64]
  00132	89 9e 74 01 00
	00		 mov	 DWORD PTR [esi+372], ebx
$LN6@AddRenderI@2:

; 481  : 		m_pLineCenter = pImage;

  00138	8b 45 e4	 mov	 eax, DWORD PTR _pImage$GSCopy$[ebp]
  0013b	89 86 74 01 00
	00		 mov	 DWORD PTR [esi+372], eax
  00141	e9 9c 00 00 00	 jmp	 $LN1@AddRenderI@2
$LN350@AddRenderI@2:

; 482  : 	}
; 483  : 	else if( szType == "LineRight" )

  00146	c7 45 ec a1 85
	85 8f		 mov	 DWORD PTR __t$520153[ebp], -1887074911 ; 8f8585a1H
  0014d	c7 45 f0 bf 85
	8c 82		 mov	 DWORD PTR __t$520153[ebp+4], -2104719937 ; 828c85bfH
  00154	8d 45 ec	 lea	 eax, DWORD PTR __t$520153[ebp]
  00157	66 c7 45 f4 99
	00		 mov	 WORD PTR __t$520153[ebp+8], 153 ; 00000099H
  0015d	8b cf		 mov	 ecx, edi
$LL334@AddRenderI@2:
  0015f	81 30 ed ec eb
	ea		 xor	 DWORD PTR [eax], -353637139 ; eaebecedH
  00165	83 c0 04	 add	 eax, 4
  00168	49		 dec	 ecx
  00169	75 f4		 jne	 SHORT $LL334@AddRenderI@2
  0016b	8b 4d e0	 mov	 ecx, DWORD PTR _szType$GSCopy$[ebp]
  0016e	80 75 f4 ed	 xor	 BYTE PTR __t$520153[ebp+8], -19 ; ffffffedH
  00172	8d 75 ec	 lea	 esi, DWORD PTR __t$520153[ebp]
  00175	ff 15 00 00 00
	00		 call	 DWORD PTR __imp_?c_str@ioHashString@@QBEPBDXZ
$LL359@AddRenderI@2:
  0017b	8a 08		 mov	 cl, BYTE PTR [eax]
  0017d	3a 0e		 cmp	 cl, BYTE PTR [esi]
  0017f	75 18		 jne	 SHORT $LN360@AddRenderI@2
  00181	3a cb		 cmp	 cl, bl
  00183	74 10		 je	 SHORT $LN361@AddRenderI@2
  00185	8a 48 01	 mov	 cl, BYTE PTR [eax+1]
  00188	3a 4e 01	 cmp	 cl, BYTE PTR [esi+1]
  0018b	75 0c		 jne	 SHORT $LN360@AddRenderI@2
  0018d	03 c7		 add	 eax, edi
  0018f	03 f7		 add	 esi, edi
  00191	3a cb		 cmp	 cl, bl
  00193	75 e6		 jne	 SHORT $LL359@AddRenderI@2
$LN361@AddRenderI@2:
  00195	33 c0		 xor	 eax, eax
  00197	eb 05		 jmp	 SHORT $LN362@AddRenderI@2
$LN360@AddRenderI@2:
  00199	1b c0		 sbb	 eax, eax
  0019b	83 d8 ff	 sbb	 eax, -1
$LN362@AddRenderI@2:
  0019e	3b c3		 cmp	 eax, ebx
  001a0	75 31		 jne	 SHORT $LN4@AddRenderI@2

; 484  : 	{
; 485  : 		SAFEDELETE( m_pLineRight );

  001a2	8b 75 e8	 mov	 esi, DWORD PTR _this$GSCopy$[ebp]
  001a5	8b 8e 78 01 00
	00		 mov	 ecx, DWORD PTR [esi+376]
  001ab	3b cb		 cmp	 ecx, ebx
  001ad	74 0d		 je	 SHORT $LN3@AddRenderI@2
  001af	8b 01		 mov	 eax, DWORD PTR [ecx]
  001b1	6a 01		 push	 1
  001b3	ff 50 40	 call	 DWORD PTR [eax+64]
  001b6	89 9e 78 01 00
	00		 mov	 DWORD PTR [esi+376], ebx
$LN3@AddRenderI@2:

; 486  : 		m_pLineRight = pImage;

  001bc	8b 4d e4	 mov	 ecx, DWORD PTR _pImage$GSCopy$[ebp]
  001bf	89 8e 78 01 00
	00		 mov	 DWORD PTR [esi+376], ecx

; 487  : 
; 488  : 		if( m_pLineRight )

  001c5	3b cb		 cmp	 ecx, ebx
  001c7	74 19		 je	 SHORT $LN1@AddRenderI@2

; 489  : 			m_pLineRight->SetReverseFormatting( ioUIRenderImage::RF_HORZ_REVERSE );

  001c9	6a 01		 push	 1
  001cb	ff 15 00 00 00
	00		 call	 DWORD PTR __imp_?SetReverseFormatting@ioUIRenderImage@@QAEXW4ReverseFormatting@1@@Z

; 490  : 	}
; 491  : 	else

  001d1	eb 0f		 jmp	 SHORT $LN1@AddRenderI@2
$LN4@AddRenderI@2:

; 492  : 	{
; 493  : 		ioWnd::AddRenderImage( szType, pImage );	

  001d3	ff 75 e4	 push	 DWORD PTR _pImage$GSCopy$[ebp]
  001d6	8b 4d e8	 mov	 ecx, DWORD PTR _this$GSCopy$[ebp]
  001d9	ff 75 e0	 push	 DWORD PTR _szType$GSCopy$[ebp]
  001dc	ff 15 00 00 00
	00		 call	 DWORD PTR __imp_?AddRenderImage@ioWnd@@UAEXABVioHashString@@PAVioUIRenderImage@@@Z
$LN1@AddRenderI@2:

; 494  : 	}
; 495  : }

  001e2	8b 4d fc	 mov	 ecx, DWORD PTR __$ArrayPad$[ebp]
  001e5	5f		 pop	 edi
  001e6	5e		 pop	 esi
  001e7	33 cd		 xor	 ecx, ebp
  001e9	5b		 pop	 ebx
  001ea	e8 00 00 00 00	 call	 @__security_check_cookie@4
  001ef	c9		 leave
  001f0	c2 08 00	 ret	 8
?AddRenderImage@RisingGashaponWnd@@UAEXABVioHashString@@PAVioUIRenderImage@@@Z ENDP ; RisingGashaponWnd::AddRenderImage
_TEXT	ENDS
PUBLIC	??_C@_0CA@BCCCBAMK@RisingGashaponWnd?3?3ShowNeedPeso?$AA@ ; `string'
PUBLIC	?ShowNeedPeso@RisingGashaponWnd@@IAEXXZ		; RisingGashaponWnd::ShowNeedPeso
EXTRN	__imp_?ShowWnd@ioWnd@@QAEXXZ:PROC
EXTRN	?SetInfo@NewShopNeedPesoWnd@@QAE_NABUNeedPesoInfo@1@@Z:PROC ; NewShopNeedPesoWnd::SetInfo
EXTRN	__imp_?FindWnd@ioGUIManager@@QAEPAVioWnd@@K@Z:PROC
;	COMDAT ??_C@_0CA@BCCCBAMK@RisingGashaponWnd?3?3ShowNeedPeso?$AA@
; File d:\lost saga for developer\youtube\tutorial\source\src\lsclient\iomyinfo.h
CONST	SEGMENT
??_C@_0CA@BCCCBAMK@RisingGashaponWnd?3?3ShowNeedPeso?$AA@ DB 'RisingGasha'
	DB	'ponWnd::ShowNeedPeso', 00H			; `string'
CONST	ENDS
;	COMDAT xdata$x
xdata$x	SEGMENT
__unwindtable$?ShowNeedPeso@RisingGashaponWnd@@IAEXXZ DD 0ffffffffH
	DD	FLAT:__unwindfunclet$?ShowNeedPeso@RisingGashaponWnd@@IAEXXZ$0
__ehfuncinfo$?ShowNeedPeso@RisingGashaponWnd@@IAEXXZ DD 019930522H
	DD	01H
	DD	FLAT:__unwindtable$?ShowNeedPeso@RisingGashaponWnd@@IAEXXZ
	DD	2 DUP(00H)
	DD	2 DUP(00H)
	DD	00H
	DD	01H
; Function compile flags: /Ogsp
; File d:\lost saga for developer\youtube\tutorial\source\src\lsclient\gui\risinggashaponwnd.cpp
xdata$x	ENDS
;	COMDAT ?ShowNeedPeso@RisingGashaponWnd@@IAEXXZ
_TEXT	SEGMENT
_kInfo$514052 = -612					; size = 64
$T520311 = -548						; size = 8
_pNeedPesoWnd$ = -540					; size = 4
_szTemp$514056 = -536					; size = 260
_szPrice$514054 = -276					; size = 260
__$EHRec$ = -12						; size = 12
?ShowNeedPeso@RisingGashaponWnd@@IAEXXZ PROC		; RisingGashaponWnd::ShowNeedPeso, COMDAT
; _this$ = ecx

; 1155 : {

  00000	68 58 02 00 00	 push	 600			; 00000258H
  00005	b8 00 00 00 00	 mov	 eax, __ehhandler$?ShowNeedPeso@RisingGashaponWnd@@IAEXXZ
  0000a	e8 00 00 00 00	 call	 __EH_prolog3_GS

; 1156 : 	NewShopNeedPesoWnd *pNeedPesoWnd = static_cast<NewShopNeedPesoWnd*> ( g_GUIMgr.FindWnd( NEW_SHOP_NEED_PESO_WND ) );

  0000f	68 fd 17 00 00	 push	 6141			; 000017fdH
  00014	8b d9		 mov	 ebx, ecx
  00016	e8 00 00 00 00	 call	 ?GetSingleton@ioSP2GUIManager@@SAAAV1@XZ ; ioSP2GUIManager::GetSingleton
  0001b	8b c8		 mov	 ecx, eax
  0001d	ff 15 00 00 00
	00		 call	 DWORD PTR __imp_?FindWnd@ioGUIManager@@QAEPAVioWnd@@K@Z
  00023	89 85 e4 fd ff
	ff		 mov	 DWORD PTR _pNeedPesoWnd$[ebp], eax

; 1157 : 	if( !pNeedPesoWnd )

  00029	85 c0		 test	 eax, eax
  0002b	0f 84 8b 01 00
	00		 je	 $LN2@ShowNeedPe

; 1158 : 		return;
; 1159 : 
; 1160 : 	ioEtcItem *pEtcItem = g_EtcItemMgr.FindEtcItem( m_iEtcItemType );

  00031	ff b3 c8 01 00
	00		 push	 DWORD PTR [ebx+456]
  00037	8b 0d 00 00 00
	00		 mov	 ecx, DWORD PTR ?ms_Singleton@?$Singleton@VioEtcItemManager@@@@1PAVioEtcItemManager@@A ; Singleton<ioEtcItemManager>::ms_Singleton
  0003d	e8 00 00 00 00	 call	 ?FindEtcItem@ioEtcItemManager@@QAEPAVioEtcItem@@K@Z ; ioEtcItemManager::FindEtcItem
  00042	8b f8		 mov	 edi, eax

; 1161 : 	if( pEtcItem )

  00044	85 ff		 test	 edi, edi
  00046	0f 84 70 01 00
	00		 je	 $LN2@ShowNeedPe

; 1162 : 	{
; 1163 : 		NewShopNeedPesoWnd::NeedPesoInfo kInfo;

  0004c	8d 8d 9c fd ff
	ff		 lea	 ecx, DWORD PTR _kInfo$514052[ebp]
  00052	e8 00 00 00 00	 call	 ??0NeedPesoInfo@NewShopNeedPesoWnd@@QAE@XZ ; NewShopNeedPesoWnd::NeedPesoInfo::NeedPesoInfo

; 1164 : 		kInfo.m_sName = pEtcItem->GetName();

  00057	8b 35 00 00 00
	00		 mov	 esi, DWORD PTR __imp_??4ioHashString@@QAEAAV0@ABV0@@Z
  0005d	83 65 fc 00	 and	 DWORD PTR __$EHRec$[ebp+8], 0
  00061	8d 47 04	 lea	 eax, DWORD PTR [edi+4]
  00064	50		 push	 eax
  00065	8d 8d 9c fd ff
	ff		 lea	 ecx, DWORD PTR _kInfo$514052[ebp]
  0006b	ff d6		 call	 esi

; 1165 : 		kInfo.m_sIcon = pEtcItem->GetIconName();

  0006d	8d 87 60 01 00
	00		 lea	 eax, DWORD PTR [edi+352]
  00073	50		 push	 eax
  00074	8d 8d ac fd ff
	ff		 lea	 ecx, DWORD PTR _kInfo$514052[ebp+16]
  0007a	ff d6		 call	 esi

; 1166 : 
; 1167 : 		int iPeso = pEtcItem->GetPeso( m_iBuyCount );

  0007c	ff b3 f0 01 00
	00		 push	 DWORD PTR [ebx+496]
  00082	8b cf		 mov	 ecx, edi
  00084	e8 00 00 00 00	 call	 ?GetPeso@ioEtcItem@@QBEHH@Z ; ioEtcItem::GetPeso

; 1168 : 		char szPrice[MAX_PATH]="";

  00089	68 03 01 00 00	 push	 259			; 00000103H
  0008e	8b f8		 mov	 edi, eax
  00090	8d 85 ed fe ff
	ff		 lea	 eax, DWORD PTR _szPrice$514054[ebp+1]
  00096	6a 00		 push	 0
  00098	50		 push	 eax
  00099	c6 85 ec fe ff
	ff 00		 mov	 BYTE PTR _szPrice$514054[ebp], 0
  000a0	e8 00 00 00 00	 call	 _memset

; 1169 : 		Help::ConvertNumToStrComma( iPeso, szPrice, sizeof( szPrice ) );

  000a5	be 04 01 00 00	 mov	 esi, 260		; 00000104H
  000aa	56		 push	 esi
  000ab	8d 85 ec fe ff
	ff		 lea	 eax, DWORD PTR _szPrice$514054[ebp]
  000b1	50		 push	 eax
  000b2	57		 push	 edi
  000b3	e8 00 00 00 00	 call	 ?ConvertNumToStrComma@Help@@YAXHPADH@Z ; Help::ConvertNumToStrComma

; 1170 : 		StringCbCat( szPrice, sizeof( szPrice ), STR(1) );

  000b8	8b 1d 00 00 00
	00		 mov	 ebx, DWORD PTR __imp_?GetSingleton@ioStringManager@@SAAAV1@XZ
  000be	83 c4 18	 add	 esp, 24			; 00000018H
  000c1	6a 00		 push	 0
  000c3	6a 01		 push	 1
  000c5	68 00 00 00 00	 push	 OFFSET ??_C@_00CNPNBAHC@?$AA@
  000ca	68 00 00 00 00	 push	 OFFSET ??_C@_0CA@BCCCBAMK@RisingGashaponWnd?3?3ShowNeedPeso?$AA@
  000cf	ff d3		 call	 ebx
  000d1	8b c8		 mov	 ecx, eax
  000d3	ff 15 00 00 00
	00		 call	 DWORD PTR __imp_?GetString@ioStringManager@@QAEPADPBD0HW4FileNamePrefix@1@@Z
  000d9	50		 push	 eax
  000da	56		 push	 esi
  000db	8d 85 ec fe ff
	ff		 lea	 eax, DWORD PTR _szPrice$514054[ebp]
  000e1	50		 push	 eax
  000e2	e8 00 00 00 00	 call	 ?StringCbCatA@@YGJPADIPBD@Z ; StringCbCatA

; 1171 : 		kInfo.m_sPrice = szPrice;

  000e7	8d 85 ec fe ff
	ff		 lea	 eax, DWORD PTR _szPrice$514054[ebp]
  000ed	50		 push	 eax
  000ee	8d 8d bc fd ff
	ff		 lea	 ecx, DWORD PTR _kInfo$514052[ebp+32]
  000f4	ff 15 00 00 00
	00		 call	 DWORD PTR __imp_??4ioHashString@@QAEAAV0@PBD@Z

; 1172 : 
; 1173 : 		ZeroMemory( szPrice, sizeof( szPrice ) );

  000fa	56		 push	 esi
  000fb	8d 85 ec fe ff
	ff		 lea	 eax, DWORD PTR _szPrice$514054[ebp]
  00101	6a 00		 push	 0
  00103	50		 push	 eax
  00104	e8 00 00 00 00	 call	 _memset

; 1174 : 		char szTemp[MAX_PATH]="";

  00109	68 03 01 00 00	 push	 259			; 00000103H
  0010e	8d 85 e9 fd ff
	ff		 lea	 eax, DWORD PTR _szTemp$514056[ebp+1]
  00114	6a 00		 push	 0
  00116	50		 push	 eax
  00117	c6 85 e8 fd ff
	ff 00		 mov	 BYTE PTR _szTemp$514056[ebp], 0
  0011e	e8 00 00 00 00	 call	 _memset

; 1175 : 		int iNeedPeso = iPeso - g_MyInfo.GetMoney();

  00123	e8 00 00 00 00	 call	 ?GetSingleton@ioMyInfo@@SAAAV1@XZ ; ioMyInfo::GetSingleton
  00128	8b 48 30	 mov	 ecx, DWORD PTR [eax+48]
  0012b	8b 40 34	 mov	 eax, DWORD PTR [eax+52]
  0012e	89 85 e0 fd ff
	ff		 mov	 DWORD PTR $T520311[ebp+4], eax

; 1176 : 		Help::ConvertNumToStrComma( iNeedPeso, szTemp, sizeof( szTemp ) );

  00134	56		 push	 esi
  00135	8d 85 e8 fd ff
	ff		 lea	 eax, DWORD PTR _szTemp$514056[ebp]
  0013b	2b f9		 sub	 edi, ecx
  0013d	50		 push	 eax
  0013e	57		 push	 edi
  0013f	e8 00 00 00 00	 call	 ?ConvertNumToStrComma@Help@@YAXHPADH@Z ; Help::ConvertNumToStrComma
  00144	83 c4 24	 add	 esp, 36			; 00000024H

; 1177 : 		SafeSprintf( szPrice, sizeof( szPrice ), STR(2), szTemp );

  00147	8d 85 e8 fd ff
	ff		 lea	 eax, DWORD PTR _szTemp$514056[ebp]
  0014d	50		 push	 eax
  0014e	6a 00		 push	 0
  00150	6a 02		 push	 2
  00152	68 00 00 00 00	 push	 OFFSET ??_C@_00CNPNBAHC@?$AA@
  00157	68 00 00 00 00	 push	 OFFSET ??_C@_0CA@BCCCBAMK@RisingGashaponWnd?3?3ShowNeedPeso?$AA@
  0015c	ff d3		 call	 ebx
  0015e	8b c8		 mov	 ecx, eax
  00160	ff 15 00 00 00
	00		 call	 DWORD PTR __imp_?GetString@ioStringManager@@QAEPADPBD0HW4FileNamePrefix@1@@Z
  00166	50		 push	 eax
  00167	56		 push	 esi
  00168	8d 85 ec fe ff
	ff		 lea	 eax, DWORD PTR _szPrice$514054[ebp]
  0016e	50		 push	 eax
  0016f	ff 15 00 00 00
	00		 call	 DWORD PTR __imp_?SafeSprintf@@YAXPADHPBD1@Z
  00175	83 c4 10	 add	 esp, 16			; 00000010H

; 1178 : 		kInfo.m_sMinusPrice = szPrice;

  00178	8d 85 ec fe ff
	ff		 lea	 eax, DWORD PTR _szPrice$514054[ebp]
  0017e	50		 push	 eax
  0017f	8d 8d cc fd ff
	ff		 lea	 ecx, DWORD PTR _kInfo$514052[ebp+48]
  00185	ff 15 00 00 00
	00		 call	 DWORD PTR __imp_??4ioHashString@@QAEAAV0@PBD@Z

; 1179 : 		if( pNeedPesoWnd->SetInfo( kInfo ) )

  0018b	8b 8d e4 fd ff
	ff		 mov	 ecx, DWORD PTR _pNeedPesoWnd$[ebp]
  00191	8d 85 9c fd ff
	ff		 lea	 eax, DWORD PTR _kInfo$514052[ebp]
  00197	50		 push	 eax
  00198	e8 00 00 00 00	 call	 ?SetInfo@NewShopNeedPesoWnd@@QAE_NABUNeedPesoInfo@1@@Z ; NewShopNeedPesoWnd::SetInfo
  0019d	84 c0		 test	 al, al
  0019f	74 0c		 je	 SHORT $LN1@ShowNeedPe

; 1180 : 			pNeedPesoWnd->ShowWnd();

  001a1	8b 8d e4 fd ff
	ff		 mov	 ecx, DWORD PTR _pNeedPesoWnd$[ebp]
  001a7	ff 15 00 00 00
	00		 call	 DWORD PTR __imp_?ShowWnd@ioWnd@@QAEXXZ
$LN1@ShowNeedPe:

; 1181 : 	}

  001ad	83 4d fc ff	 or	 DWORD PTR __$EHRec$[ebp+8], -1
  001b1	8d 8d 9c fd ff
	ff		 lea	 ecx, DWORD PTR _kInfo$514052[ebp]
  001b7	e8 00 00 00 00	 call	 ??1NeedPesoInfo@NewShopNeedPesoWnd@@QAE@XZ
$LN2@ShowNeedPe:

; 1182 : }

  001bc	e8 00 00 00 00	 call	 __EH_epilog3_GS
  001c1	c3		 ret	 0
_TEXT	ENDS
;	COMDAT text$x
text$x	SEGMENT
__unwindfunclet$?ShowNeedPeso@RisingGashaponWnd@@IAEXXZ$0:
  00000	8d 8d 9c fd ff
	ff		 lea	 ecx, DWORD PTR _kInfo$514052[ebp]
  00006	e9 00 00 00 00	 jmp	 ??1NeedPesoInfo@NewShopNeedPesoWnd@@QAE@XZ
__ehhandler$?ShowNeedPeso@RisingGashaponWnd@@IAEXXZ:
  0000b	8b 54 24 08	 mov	 edx, DWORD PTR [esp+8]
  0000f	8d 42 0c	 lea	 eax, DWORD PTR [edx+12]
  00012	8b 8a 98 fd ff
	ff		 mov	 ecx, DWORD PTR [edx-616]
  00018	33 c8		 xor	 ecx, eax
  0001a	e8 00 00 00 00	 call	 @__security_check_cookie@4
  0001f	8b 4a fc	 mov	 ecx, DWORD PTR [edx-4]
  00022	33 c8		 xor	 ecx, eax
  00024	e8 00 00 00 00	 call	 @__security_check_cookie@4
  00029	b8 00 00 00 00	 mov	 eax, OFFSET __ehfuncinfo$?ShowNeedPeso@RisingGashaponWnd@@IAEXXZ
  0002e	e9 00 00 00 00	 jmp	 ___CxxFrameHandler3
text$x	ENDS
?ShowNeedPeso@RisingGashaponWnd@@IAEXXZ ENDP		; RisingGashaponWnd::ShowNeedPeso
PUBLIC	??0?$vector@V?$basic_string@DU?$char_traits@D@std@@V?$allocator@D@2@@std@@V?$allocator@V?$basic_string@DU?$char_traits@D@std@@V?$allocator@D@2@@std@@@2@@std@@QAE@XZ ; std::vector<std::basic_string<char,std::char_traits<char>,std::allocator<char> >,std::allocator<std::basic_string<char,std::char_traits<char>,std::allocator<char> > > >::vector<std::basic_string<char,std::char_traits<char>,std::allocator<char> >,std::allocator<std::basic_string<char,std::char_traits<char>,std::allocator<char> > > >
; Function compile flags: /Ogsp
; File c:\program files (x86)\microsoft visual studio 10.0\vc\include\vector
;	COMDAT ??0?$vector@V?$basic_string@DU?$char_traits@D@std@@V?$allocator@D@2@@std@@V?$allocator@V?$basic_string@DU?$char_traits@D@std@@V?$allocator@D@2@@std@@@2@@std@@QAE@XZ
_TEXT	SEGMENT
??0?$vector@V?$basic_string@DU?$char_traits@D@std@@V?$allocator@D@2@@std@@V?$allocator@V?$basic_string@DU?$char_traits@D@std@@V?$allocator@D@2@@std@@@2@@std@@QAE@XZ PROC ; std::vector<std::basic_string<char,std::char_traits<char>,std::allocator<char> >,std::allocator<std::basic_string<char,std::char_traits<char>,std::allocator<char> > > >::vector<std::basic_string<char,std::char_traits<char>,std::allocator<char> >,std::allocator<std::basic_string<char,std::char_traits<char>,std::allocator<char> > > >, COMDAT
; _this$ = ecx

; 507  : 		{	// construct empty vector

  00000	8b c1		 mov	 eax, ecx
  00002	33 c9		 xor	 ecx, ecx
  00004	89 08		 mov	 DWORD PTR [eax], ecx
  00006	89 48 04	 mov	 DWORD PTR [eax+4], ecx
  00009	89 48 08	 mov	 DWORD PTR [eax+8], ecx

; 508  : 		}

  0000c	c3		 ret	 0
??0?$vector@V?$basic_string@DU?$char_traits@D@std@@V?$allocator@D@2@@std@@V?$allocator@V?$basic_string@DU?$char_traits@D@std@@V?$allocator@D@2@@std@@@2@@std@@QAE@XZ ENDP ; std::vector<std::basic_string<char,std::char_traits<char>,std::allocator<char> >,std::allocator<std::basic_string<char,std::char_traits<char>,std::allocator<char> > > >::vector<std::basic_string<char,std::char_traits<char>,std::allocator<char> >,std::allocator<std::basic_string<char,std::char_traits<char>,std::allocator<char> > > >
_TEXT	ENDS
PUBLIC	?rbegin@?$vector@HV?$allocator@H@std@@@std@@QAE?AV?$reverse_iterator@V?$_Vector_iterator@V?$_Vector_val@HV?$allocator@H@std@@@std@@@std@@@2@XZ ; std::vector<int,std::allocator<int> >::rbegin
; Function compile flags: /Ogsp
;	COMDAT ?rbegin@?$vector@HV?$allocator@H@std@@@std@@QAE?AV?$reverse_iterator@V?$_Vector_iterator@V?$_Vector_val@HV?$allocator@H@std@@@std@@@std@@@2@XZ
_TEXT	SEGMENT
___$ReturnUdt$ = 8					; size = 4
?rbegin@?$vector@HV?$allocator@H@std@@@std@@QAE?AV?$reverse_iterator@V?$_Vector_iterator@V?$_Vector_val@HV?$allocator@H@std@@@std@@@std@@@2@XZ PROC ; std::vector<int,std::allocator<int> >::rbegin, COMDAT
; _this$ = ecx

; 806  : 		{	// return iterator for beginning of reversed mutable sequence

  00000	55		 push	 ebp
  00001	8b ec		 mov	 ebp, esp

; 807  : 		return (reverse_iterator(end()));

  00003	8b 49 04	 mov	 ecx, DWORD PTR [ecx+4]
  00006	8b 45 08	 mov	 eax, DWORD PTR ___$ReturnUdt$[ebp]
  00009	89 08		 mov	 DWORD PTR [eax], ecx

; 808  : 		}

  0000b	5d		 pop	 ebp
  0000c	c2 04 00	 ret	 4
?rbegin@?$vector@HV?$allocator@H@std@@@std@@QAE?AV?$reverse_iterator@V?$_Vector_iterator@V?$_Vector_val@HV?$allocator@H@std@@@std@@@std@@@2@XZ ENDP ; std::vector<int,std::allocator<int> >::rbegin
_TEXT	ENDS
PUBLIC	?rend@?$vector@HV?$allocator@H@std@@@std@@QAE?AV?$reverse_iterator@V?$_Vector_iterator@V?$_Vector_val@HV?$allocator@H@std@@@std@@@std@@@2@XZ ; std::vector<int,std::allocator<int> >::rend
; Function compile flags: /Ogsp
;	COMDAT ?rend@?$vector@HV?$allocator@H@std@@@std@@QAE?AV?$reverse_iterator@V?$_Vector_iterator@V?$_Vector_val@HV?$allocator@H@std@@@std@@@std@@@2@XZ
_TEXT	SEGMENT
___$ReturnUdt$ = 8					; size = 4
?rend@?$vector@HV?$allocator@H@std@@@std@@QAE?AV?$reverse_iterator@V?$_Vector_iterator@V?$_Vector_val@HV?$allocator@H@std@@@std@@@std@@@2@XZ PROC ; std::vector<int,std::allocator<int> >::rend, COMDAT
; _this$ = ecx

; 816  : 		{	// return iterator for end of reversed mutable sequence

  00000	55		 push	 ebp
  00001	8b ec		 mov	 ebp, esp

; 817  : 		return (reverse_iterator(begin()));

  00003	8b 09		 mov	 ecx, DWORD PTR [ecx]
  00005	8b 45 08	 mov	 eax, DWORD PTR ___$ReturnUdt$[ebp]
  00008	89 08		 mov	 DWORD PTR [eax], ecx

; 818  : 		}

  0000a	5d		 pop	 ebp
  0000b	c2 04 00	 ret	 4
?rend@?$vector@HV?$allocator@H@std@@@std@@QAE?AV?$reverse_iterator@V?$_Vector_iterator@V?$_Vector_val@HV?$allocator@H@std@@@std@@@std@@@2@XZ ENDP ; std::vector<int,std::allocator<int> >::rend
_TEXT	ENDS
PUBLIC	??D?$_Revranit@V?$_Vector_iterator@V?$_Vector_val@HV?$allocator@H@std@@@std@@@std@@U?$iterator@Urandom_access_iterator_tag@std@@HHPAHAAH@2@@std@@QBEAAHXZ ; std::_Revranit<std::_Vector_iterator<std::_Vector_val<int,std::allocator<int> > >,std::iterator<std::random_access_iterator_tag,int,int,int *,int &> >::operator*
; Function compile flags: /Ogsp
; File c:\program files (x86)\microsoft visual studio 10.0\vc\include\xutility
;	COMDAT ??D?$_Revranit@V?$_Vector_iterator@V?$_Vector_val@HV?$allocator@H@std@@@std@@@std@@U?$iterator@Urandom_access_iterator_tag@std@@HHPAHAAH@2@@std@@QBEAAHXZ
_TEXT	SEGMENT
??D?$_Revranit@V?$_Vector_iterator@V?$_Vector_val@HV?$allocator@H@std@@@std@@@std@@U?$iterator@Urandom_access_iterator_tag@std@@HHPAHAAH@2@@std@@QBEAAHXZ PROC ; std::_Revranit<std::_Vector_iterator<std::_Vector_val<int,std::allocator<int> > >,std::iterator<std::random_access_iterator_tag,int,int,int *,int &> >::operator*, COMDAT
; _this$ = ecx

; 1044 : 		_RanIt _Tmp = current;
; 1045 : 		return (*--_Tmp);

  00000	8b 01		 mov	 eax, DWORD PTR [ecx]
  00002	83 e8 04	 sub	 eax, 4

; 1046 : 		}

  00005	c3		 ret	 0
??D?$_Revranit@V?$_Vector_iterator@V?$_Vector_val@HV?$allocator@H@std@@@std@@@std@@U?$iterator@Urandom_access_iterator_tag@std@@HHPAHAAH@2@@std@@QBEAAHXZ ENDP ; std::_Revranit<std::_Vector_iterator<std::_Vector_val<int,std::allocator<int> > >,std::iterator<std::random_access_iterator_tag,int,int,int *,int &> >::operator*
_TEXT	ENDS
PUBLIC	?_Buy@?$vector@VGashaponPresent@@V?$allocator@VGashaponPresent@@@std@@@std@@IAE_NI@Z ; std::vector<GashaponPresent,std::allocator<GashaponPresent> >::_Buy
; Function compile flags: /Ogsp
; File c:\program files (x86)\microsoft visual studio 10.0\vc\include\vector
;	COMDAT ?_Buy@?$vector@VGashaponPresent@@V?$allocator@VGashaponPresent@@@std@@@std@@IAE_NI@Z
_TEXT	SEGMENT
__Capacity$ = 8						; size = 4
?_Buy@?$vector@VGashaponPresent@@V?$allocator@VGashaponPresent@@@std@@@std@@IAE_NI@Z PROC ; std::vector<GashaponPresent,std::allocator<GashaponPresent> >::_Buy, COMDAT
; _this$ = ecx

; 1250 : 		{	// allocate array with _Capacity elements

  00000	55		 push	 ebp
  00001	8b ec		 mov	 ebp, esp
  00003	56		 push	 esi

; 1251 : 		this->_Myfirst = 0;

  00004	33 c0		 xor	 eax, eax
  00006	57		 push	 edi

; 1252 : 		this->_Mylast = 0;
; 1253 : 		this->_Myend = 0;
; 1254 : 
; 1255 : 		if (_Capacity == 0)

  00007	8b 7d 08	 mov	 edi, DWORD PTR __Capacity$[ebp]
  0000a	8b f1		 mov	 esi, ecx
  0000c	89 06		 mov	 DWORD PTR [esi], eax
  0000e	89 46 04	 mov	 DWORD PTR [esi+4], eax
  00011	89 46 08	 mov	 DWORD PTR [esi+8], eax
  00014	3b f8		 cmp	 edi, eax
  00016	75 04		 jne	 SHORT $LN4@Buy

; 1256 : 			return (false);

  00018	32 c0		 xor	 al, al
  0001a	eb 2b		 jmp	 SHORT $LN5@Buy
$LN4@Buy:

; 1257 : 		else if (max_size() < _Capacity)

  0001c	81 ff cc cc cc
	0c		 cmp	 edi, 214748364		; 0cccccccH
  00022	76 0b		 jbe	 SHORT $LN2@Buy

; 1258 : 			_Xlen();	// result too long

  00024	68 00 00 00 00	 push	 OFFSET ??_C@_0BD@OLBABOEK@vector?$DMT?$DO?5too?5long?$AA@
  00029	ff 15 00 00 00
	00		 call	 DWORD PTR __imp_?_Xlength_error@std@@YAXPBD@Z
$LN19@Buy:
$LN2@Buy:

; 1259 : 		else
; 1260 : 			{	// nonempty array, allocate storage
; 1261 : 			this->_Myfirst = this->_Alval.allocate(_Capacity);

  0002f	50		 push	 eax
  00030	57		 push	 edi
  00031	e8 00 00 00 00	 call	 ??$_Allocate@VGashaponPresent@@@std@@YAPAVGashaponPresent@@IPAV1@@Z ; std::_Allocate<GashaponPresent>

; 1262 : 			this->_Mylast = this->_Myfirst;
; 1263 : 			this->_Myend = this->_Myfirst + _Capacity;

  00036	6b ff 14	 imul	 edi, 20			; 00000014H
  00039	03 f8		 add	 edi, eax
  0003b	59		 pop	 ecx
  0003c	89 06		 mov	 DWORD PTR [esi], eax
  0003e	89 46 04	 mov	 DWORD PTR [esi+4], eax
  00041	59		 pop	 ecx
  00042	89 7e 08	 mov	 DWORD PTR [esi+8], edi

; 1264 : 			}
; 1265 : 		return (true);

  00045	b0 01		 mov	 al, 1
$LN5@Buy:
  00047	5f		 pop	 edi
  00048	5e		 pop	 esi

; 1266 : 		}

  00049	5d		 pop	 ebp
  0004a	c2 04 00	 ret	 4
$LN18@Buy:
?_Buy@?$vector@VGashaponPresent@@V?$allocator@VGashaponPresent@@@std@@@std@@IAE_NI@Z ENDP ; std::vector<GashaponPresent,std::allocator<GashaponPresent> >::_Buy
_TEXT	ENDS
PUBLIC	?_Grow_to@?$vector@VioHashString@@V?$allocator@VioHashString@@@std@@@std@@IBEII@Z ; std::vector<ioHashString,std::allocator<ioHashString> >::_Grow_to
; Function compile flags: /Ogsp
;	COMDAT ?_Grow_to@?$vector@VioHashString@@V?$allocator@VioHashString@@@std@@@std@@IBEII@Z
_TEXT	SEGMENT
__Count$ = 8						; size = 4
?_Grow_to@?$vector@VioHashString@@V?$allocator@VioHashString@@@std@@@std@@IBEII@Z PROC ; std::vector<ioHashString,std::allocator<ioHashString> >::_Grow_to, COMDAT
; _this$ = ecx

; 1274 : 		{	// grow by 50% or at least to _Count

  00000	55		 push	 ebp
  00001	8b ec		 mov	 ebp, esp

; 1275 : 		size_type _Capacity = capacity();

  00003	8b 41 08	 mov	 eax, DWORD PTR [ecx+8]
  00006	2b 01		 sub	 eax, DWORD PTR [ecx]

; 1276 : 
; 1277 : 		_Capacity = max_size() - _Capacity / 2 < _Capacity
; 1278 : 			? 0 : _Capacity + _Capacity / 2;	// try to grow by 50%

  00008	ba ff ff ff 0f	 mov	 edx, 268435455		; 0fffffffH
  0000d	c1 f8 04	 sar	 eax, 4
  00010	8b c8		 mov	 ecx, eax
  00012	d1 e9		 shr	 ecx, 1
  00014	2b d1		 sub	 edx, ecx
  00016	3b d0		 cmp	 edx, eax
  00018	73 04		 jae	 SHORT $LN4@Grow_to@2
  0001a	33 c0		 xor	 eax, eax
  0001c	eb 02		 jmp	 SHORT $LN5@Grow_to@2
$LN4@Grow_to@2:
  0001e	03 c1		 add	 eax, ecx
$LN5@Grow_to@2:

; 1279 : 		if (_Capacity < _Count)

  00020	3b 45 08	 cmp	 eax, DWORD PTR __Count$[ebp]

; 1280 : 			_Capacity = _Count;

  00023	0f 42 45 08	 cmovb	 eax, DWORD PTR __Count$[ebp]

; 1281 : 		return (_Capacity);
; 1282 : 		}

  00027	5d		 pop	 ebp
  00028	c2 04 00	 ret	 4
?_Grow_to@?$vector@VioHashString@@V?$allocator@VioHashString@@@std@@@std@@IBEII@Z ENDP ; std::vector<ioHashString,std::allocator<ioHashString> >::_Grow_to
_TEXT	ENDS
PUBLIC	?begin@?$vector@VGashaponPresent@@V?$allocator@VGashaponPresent@@@std@@@std@@QAE?AV?$_Vector_iterator@V?$_Vector_val@VGashaponPresent@@V?$allocator@VGashaponPresent@@@std@@@std@@@2@XZ ; std::vector<GashaponPresent,std::allocator<GashaponPresent> >::begin
; Function compile flags: /Ogsp
;	COMDAT ?begin@?$vector@VGashaponPresent@@V?$allocator@VGashaponPresent@@@std@@@std@@QAE?AV?$_Vector_iterator@V?$_Vector_val@VGashaponPresent@@V?$allocator@VGashaponPresent@@@std@@@std@@@2@XZ
_TEXT	SEGMENT
___$ReturnUdt$ = 8					; size = 4
?begin@?$vector@VGashaponPresent@@V?$allocator@VGashaponPresent@@@std@@@std@@QAE?AV?$_Vector_iterator@V?$_Vector_val@VGashaponPresent@@V?$allocator@VGashaponPresent@@@std@@@std@@@2@XZ PROC ; std::vector<GashaponPresent,std::allocator<GashaponPresent> >::begin, COMDAT
; _this$ = ecx

; 781  : 		{	// return iterator for beginning of mutable sequence

  00000	55		 push	 ebp
  00001	8b ec		 mov	 ebp, esp

; 782  : 		return (iterator(this->_Myfirst, this));

  00003	8b 09		 mov	 ecx, DWORD PTR [ecx]
  00005	8b 45 08	 mov	 eax, DWORD PTR ___$ReturnUdt$[ebp]
  00008	89 08		 mov	 DWORD PTR [eax], ecx

; 783  : 		}

  0000a	5d		 pop	 ebp
  0000b	c2 04 00	 ret	 4
?begin@?$vector@VGashaponPresent@@V?$allocator@VGashaponPresent@@@std@@@std@@QAE?AV?$_Vector_iterator@V?$_Vector_val@VGashaponPresent@@V?$allocator@VGashaponPresent@@@std@@@std@@@2@XZ ENDP ; std::vector<GashaponPresent,std::allocator<GashaponPresent> >::begin
_TEXT	ENDS
PUBLIC	?end@?$vector@VGashaponPresent@@V?$allocator@VGashaponPresent@@@std@@@std@@QAE?AV?$_Vector_iterator@V?$_Vector_val@VGashaponPresent@@V?$allocator@VGashaponPresent@@@std@@@std@@@2@XZ ; std::vector<GashaponPresent,std::allocator<GashaponPresent> >::end
; Function compile flags: /Ogsp
;	COMDAT ?end@?$vector@VGashaponPresent@@V?$allocator@VGashaponPresent@@@std@@@std@@QAE?AV?$_Vector_iterator@V?$_Vector_val@VGashaponPresent@@V?$allocator@VGashaponPresent@@@std@@@std@@@2@XZ
_TEXT	SEGMENT
___$ReturnUdt$ = 8					; size = 4
?end@?$vector@VGashaponPresent@@V?$allocator@VGashaponPresent@@@std@@@std@@QAE?AV?$_Vector_iterator@V?$_Vector_val@VGashaponPresent@@V?$allocator@VGashaponPresent@@@std@@@std@@@2@XZ PROC ; std::vector<GashaponPresent,std::allocator<GashaponPresent> >::end, COMDAT
; _this$ = ecx

; 791  : 		{	// return iterator for end of mutable sequence

  00000	55		 push	 ebp
  00001	8b ec		 mov	 ebp, esp

; 792  : 		return (iterator(this->_Mylast, this));

  00003	8b 49 04	 mov	 ecx, DWORD PTR [ecx+4]
  00006	8b 45 08	 mov	 eax, DWORD PTR ___$ReturnUdt$[ebp]
  00009	89 08		 mov	 DWORD PTR [eax], ecx

; 793  : 		}

  0000b	5d		 pop	 ebp
  0000c	c2 04 00	 ret	 4
?end@?$vector@VGashaponPresent@@V?$allocator@VGashaponPresent@@@std@@@std@@QAE?AV?$_Vector_iterator@V?$_Vector_val@VGashaponPresent@@V?$allocator@VGashaponPresent@@@std@@@std@@@2@XZ ENDP ; std::vector<GashaponPresent,std::allocator<GashaponPresent> >::end
_TEXT	ENDS
PUBLIC	?_Make_iter@?$vector@VGashaponPresent@@V?$allocator@VGashaponPresent@@@std@@@std@@QBE?AV?$_Vector_iterator@V?$_Vector_val@VGashaponPresent@@V?$allocator@VGashaponPresent@@@std@@@std@@@2@V?$_Vector_const_iterator@V?$_Vector_val@VGashaponPresent@@V?$allocator@VGashaponPresent@@@std@@@std@@@2@@Z ; std::vector<GashaponPresent,std::allocator<GashaponPresent> >::_Make_iter
; Function compile flags: /Ogsp
;	COMDAT ?_Make_iter@?$vector@VGashaponPresent@@V?$allocator@VGashaponPresent@@@std@@@std@@QBE?AV?$_Vector_iterator@V?$_Vector_val@VGashaponPresent@@V?$allocator@VGashaponPresent@@@std@@@std@@@2@V?$_Vector_const_iterator@V?$_Vector_val@VGashaponPresent@@V?$allocator@VGashaponPresent@@@std@@@std@@@2@@Z
_TEXT	SEGMENT
___$ReturnUdt$ = 8					; size = 4
__Where$ = 12						; size = 4
?_Make_iter@?$vector@VGashaponPresent@@V?$allocator@VGashaponPresent@@@std@@@std@@QBE?AV?$_Vector_iterator@V?$_Vector_val@VGashaponPresent@@V?$allocator@VGashaponPresent@@@std@@@std@@@2@V?$_Vector_const_iterator@V?$_Vector_val@VGashaponPresent@@V?$allocator@VGashaponPresent@@@std@@@std@@@2@@Z PROC ; std::vector<GashaponPresent,std::allocator<GashaponPresent> >::_Make_iter, COMDAT
; _this$ = ecx

; 801  : 		{	// make iterator from const_iterator

  00000	55		 push	 ebp
  00001	8b ec		 mov	 ebp, esp

; 802  : 		return (iterator(_Where._Ptr, this));

  00003	8b 45 08	 mov	 eax, DWORD PTR ___$ReturnUdt$[ebp]
  00006	8b 4d 0c	 mov	 ecx, DWORD PTR __Where$[ebp]
  00009	89 08		 mov	 DWORD PTR [eax], ecx

; 803  : 		}

  0000b	5d		 pop	 ebp
  0000c	c2 08 00	 ret	 8
?_Make_iter@?$vector@VGashaponPresent@@V?$allocator@VGashaponPresent@@@std@@@std@@QBE?AV?$_Vector_iterator@V?$_Vector_val@VGashaponPresent@@V?$allocator@VGashaponPresent@@@std@@@std@@@2@V?$_Vector_const_iterator@V?$_Vector_val@VGashaponPresent@@V?$allocator@VGashaponPresent@@@std@@@std@@@2@@Z ENDP ; std::vector<GashaponPresent,std::allocator<GashaponPresent> >::_Make_iter
_TEXT	ENDS
PUBLIC	??9?$_Vector_const_iterator@V?$_Vector_val@VGashaponPresent@@V?$allocator@VGashaponPresent@@@std@@@std@@@std@@QBE_NABV01@@Z ; std::_Vector_const_iterator<std::_Vector_val<GashaponPresent,std::allocator<GashaponPresent> > >::operator!=
; Function compile flags: /Ogsp
;	COMDAT ??9?$_Vector_const_iterator@V?$_Vector_val@VGashaponPresent@@V?$allocator@VGashaponPresent@@@std@@@std@@@std@@QBE_NABV01@@Z
_TEXT	SEGMENT
__Right$ = 8						; size = 4
??9?$_Vector_const_iterator@V?$_Vector_val@VGashaponPresent@@V?$allocator@VGashaponPresent@@@std@@@std@@@std@@QBE_NABV01@@Z PROC ; std::_Vector_const_iterator<std::_Vector_val<GashaponPresent,std::allocator<GashaponPresent> > >::operator!=, COMDAT
; _this$ = ecx

; 207  : 		{	// test for iterator inequality

  00000	55		 push	 ebp
  00001	8b ec		 mov	 ebp, esp

; 208  : 		return (!(*this == _Right));

  00003	8b 01		 mov	 eax, DWORD PTR [ecx]
  00005	8b 55 08	 mov	 edx, DWORD PTR __Right$[ebp]
  00008	33 c9		 xor	 ecx, ecx
  0000a	3b 02		 cmp	 eax, DWORD PTR [edx]
  0000c	0f 95 c0	 setne	 al

; 209  : 		}

  0000f	5d		 pop	 ebp
  00010	c2 04 00	 ret	 4
??9?$_Vector_const_iterator@V?$_Vector_val@VGashaponPresent@@V?$allocator@VGashaponPresent@@@std@@@std@@@std@@QBE_NABV01@@Z ENDP ; std::_Vector_const_iterator<std::_Vector_val<GashaponPresent,std::allocator<GashaponPresent> > >::operator!=
_TEXT	ENDS
PUBLIC	??$find@V?$_Vector_iterator@V?$_Vector_val@HV?$allocator@H@std@@@std@@@std@@H@std@@YA?AV?$_Vector_iterator@V?$_Vector_val@HV?$allocator@H@std@@@std@@@0@V10@0ABH@Z ; std::find<std::_Vector_iterator<std::_Vector_val<int,std::allocator<int> > >,int>
; Function compile flags: /Ogsp
; File c:\program files (x86)\microsoft visual studio 10.0\vc\include\algorithm
;	COMDAT ??$find@V?$_Vector_iterator@V?$_Vector_val@HV?$allocator@H@std@@@std@@@std@@H@std@@YA?AV?$_Vector_iterator@V?$_Vector_val@HV?$allocator@H@std@@@std@@@0@V10@0ABH@Z
_TEXT	SEGMENT
___$ReturnUdt$ = 8					; size = 4
__First$ = 12						; size = 4
__Last$ = 16						; size = 4
__Val$ = 20						; size = 4
??$find@V?$_Vector_iterator@V?$_Vector_val@HV?$allocator@H@std@@@std@@@std@@H@std@@YA?AV?$_Vector_iterator@V?$_Vector_val@HV?$allocator@H@std@@@std@@@0@V10@0ABH@Z PROC ; std::find<std::_Vector_iterator<std::_Vector_val<int,std::allocator<int> > >,int>, COMDAT

; 71   : 	{	// find first matching _Val

  00000	55		 push	 ebp
  00001	8b ec		 mov	 ebp, esp

; 72   : 	_DEBUG_RANGE(_First, _Last);
; 73   : 	return (_Rechecked(_First,
; 74   : 		_Find(_Unchecked(_First), _Unchecked(_Last), _Val)));

  00003	ff 75 14	 push	 DWORD PTR __Val$[ebp]
  00006	ff 75 10	 push	 DWORD PTR __Last$[ebp]
  00009	ff 75 0c	 push	 DWORD PTR __First$[ebp]
  0000c	e8 00 00 00 00	 call	 ??$_Find@PAHH@std@@YAPAHPAH0ABH@Z ; std::_Find<int *,int>
  00011	8b 4d 08	 mov	 ecx, DWORD PTR ___$ReturnUdt$[ebp]
  00014	89 01		 mov	 DWORD PTR [ecx], eax
  00016	83 c4 0c	 add	 esp, 12			; 0000000cH
  00019	8b c1		 mov	 eax, ecx

; 75   : 	}

  0001b	5d		 pop	 ebp
  0001c	c3		 ret	 0
??$find@V?$_Vector_iterator@V?$_Vector_val@HV?$allocator@H@std@@@std@@@std@@H@std@@YA?AV?$_Vector_iterator@V?$_Vector_val@HV?$allocator@H@std@@@std@@@0@V10@0ABH@Z ENDP ; std::find<std::_Vector_iterator<std::_Vector_val<int,std::allocator<int> > >,int>
_TEXT	ENDS
PUBLIC	??$_Cons_val@V?$allocator@VioHashString@@@std@@VioHashString@@AAV3@@std@@YAXAAV?$allocator@VioHashString@@@0@PAVioHashString@@AAV2@@Z ; std::_Cons_val<std::allocator<ioHashString>,ioHashString,ioHashString &>
; Function compile flags: /Ogsp
; File c:\program files (x86)\microsoft visual studio 10.0\vc\include\xmemory
;	COMDAT ??$_Cons_val@V?$allocator@VioHashString@@@std@@VioHashString@@AAV3@@std@@YAXAAV?$allocator@VioHashString@@@0@PAVioHashString@@AAV2@@Z
_TEXT	SEGMENT
__Alval$ = 8						; size = 4
__Pdest$ = 12						; size = 4
__Src$ = 16						; size = 4
??$_Cons_val@V?$allocator@VioHashString@@@std@@VioHashString@@AAV3@@std@@YAXAAV?$allocator@VioHashString@@@0@PAVioHashString@@AAV2@@Z PROC ; std::_Cons_val<std::allocator<ioHashString>,ioHashString,ioHashString &>, COMDAT

; 279  : 	{	// construct using allocator

  00000	55		 push	 ebp
  00001	8b ec		 mov	 ebp, esp

; 280  : 	_Alval.construct(_Pdest, _STD forward<_Ty2>(_Src));

  00003	ff 75 10	 push	 DWORD PTR __Src$[ebp]
  00006	8b 4d 08	 mov	 ecx, DWORD PTR __Alval$[ebp]
  00009	ff 75 0c	 push	 DWORD PTR __Pdest$[ebp]
  0000c	e8 00 00 00 00	 call	 ??$construct@AAVioHashString@@@?$allocator@VioHashString@@@std@@QAEXPAVioHashString@@AAV2@@Z ; std::allocator<ioHashString>::construct<ioHashString &>

; 281  : 	}

  00011	5d		 pop	 ebp
  00012	c3		 ret	 0
??$_Cons_val@V?$allocator@VioHashString@@@std@@VioHashString@@AAV3@@std@@YAXAAV?$allocator@VioHashString@@@0@PAVioHashString@@AAV2@@Z ENDP ; std::_Cons_val<std::allocator<ioHashString>,ioHashString,ioHashString &>
_TEXT	ENDS
PUBLIC	??$_Cons_val@V?$allocator@H@std@@HAAH@std@@YAXAAV?$allocator@H@0@PAHAAH@Z ; std::_Cons_val<std::allocator<int>,int,int &>
; Function compile flags: /Ogsp
;	COMDAT ??$_Cons_val@V?$allocator@H@std@@HAAH@std@@YAXAAV?$allocator@H@0@PAHAAH@Z
_TEXT	SEGMENT
__Alval$ = 8						; size = 4
__Pdest$ = 12						; size = 4
__Src$ = 16						; size = 4
??$_Cons_val@V?$allocator@H@std@@HAAH@std@@YAXAAV?$allocator@H@0@PAHAAH@Z PROC ; std::_Cons_val<std::allocator<int>,int,int &>, COMDAT

; 279  : 	{	// construct using allocator

  00000	55		 push	 ebp
  00001	8b ec		 mov	 ebp, esp

; 280  : 	_Alval.construct(_Pdest, _STD forward<_Ty2>(_Src));

  00003	8b 45 0c	 mov	 eax, DWORD PTR __Pdest$[ebp]
  00006	85 c0		 test	 eax, eax
  00008	74 07		 je	 SHORT $LN7@Cons_val@2
  0000a	8b 4d 10	 mov	 ecx, DWORD PTR __Src$[ebp]
  0000d	8b 09		 mov	 ecx, DWORD PTR [ecx]
  0000f	89 08		 mov	 DWORD PTR [eax], ecx
$LN7@Cons_val@2:

; 281  : 	}

  00011	5d		 pop	 ebp
  00012	c3		 ret	 0
??$_Cons_val@V?$allocator@H@std@@HAAH@std@@YAXAAV?$allocator@H@0@PAHAAH@Z ENDP ; std::_Cons_val<std::allocator<int>,int,int &>
_TEXT	ENDS
PUBLIC	??$_Cons_val@V?$allocator@H@std@@HABH@std@@YAXAAV?$allocator@H@0@PAHABH@Z ; std::_Cons_val<std::allocator<int>,int,int const &>
; Function compile flags: /Ogsp
;	COMDAT ??$_Cons_val@V?$allocator@H@std@@HABH@std@@YAXAAV?$allocator@H@0@PAHABH@Z
_TEXT	SEGMENT
__Alval$ = 8						; size = 4
__Pdest$ = 12						; size = 4
__Src$ = 16						; size = 4
??$_Cons_val@V?$allocator@H@std@@HABH@std@@YAXAAV?$allocator@H@0@PAHABH@Z PROC ; std::_Cons_val<std::allocator<int>,int,int const &>, COMDAT

; 279  : 	{	// construct using allocator

  00000	55		 push	 ebp
  00001	8b ec		 mov	 ebp, esp

; 280  : 	_Alval.construct(_Pdest, _STD forward<_Ty2>(_Src));

  00003	8b 45 0c	 mov	 eax, DWORD PTR __Pdest$[ebp]
  00006	85 c0		 test	 eax, eax
  00008	74 07		 je	 SHORT $LN9@Cons_val@3
  0000a	8b 4d 10	 mov	 ecx, DWORD PTR __Src$[ebp]
  0000d	8b 09		 mov	 ecx, DWORD PTR [ecx]
  0000f	89 08		 mov	 DWORD PTR [eax], ecx
$LN9@Cons_val@3:

; 281  : 	}

  00011	5d		 pop	 ebp
  00012	c3		 ret	 0
??$_Cons_val@V?$allocator@H@std@@HABH@std@@YAXAAV?$allocator@H@0@PAHABH@Z ENDP ; std::_Cons_val<std::allocator<int>,int,int const &>
_TEXT	ENDS
PUBLIC	??$_Move@PAVGashaponPresent@@PAV1@@std@@YAPAVGashaponPresent@@PAV1@00@Z ; std::_Move<GashaponPresent *,GashaponPresent *>
; Function compile flags: /Ogsp
; File c:\program files (x86)\microsoft visual studio 10.0\vc\include\xutility
;	COMDAT ??$_Move@PAVGashaponPresent@@PAV1@@std@@YAPAVGashaponPresent@@PAV1@00@Z
_TEXT	SEGMENT
__Cat$520650 = -4					; size = 1
__First$ = 8						; size = 4
__Last$ = 12						; size = 4
__Dest$ = 16						; size = 4
??$_Move@PAVGashaponPresent@@PAV1@@std@@YAPAVGashaponPresent@@PAV1@00@Z PROC ; std::_Move<GashaponPresent *,GashaponPresent *>, COMDAT

; 2533 : 	{	// move [_First, _Last) to [_Dest, ...), unchecked

  00000	55		 push	 ebp
  00001	8b ec		 mov	 ebp, esp
  00003	51		 push	 ecx

; 2534 : 	return (_Move(_First, _Last,
; 2535 : 		_Dest, _Ptr_cat(_First, _Dest)));

  00004	ff 75 fc	 push	 DWORD PTR __Cat$520650[ebp]
  00007	ff 75 10	 push	 DWORD PTR __Dest$[ebp]
  0000a	ff 75 0c	 push	 DWORD PTR __Last$[ebp]
  0000d	ff 75 08	 push	 DWORD PTR __First$[ebp]
  00010	e8 00 00 00 00	 call	 ??$_Move@PAVGashaponPresent@@PAV1@@std@@YAPAVGashaponPresent@@PAV1@00U_Nonscalar_ptr_iterator_tag@0@@Z ; std::_Move<GashaponPresent *,GashaponPresent *>
  00015	83 c4 10	 add	 esp, 16			; 00000010H

; 2536 : 	}

  00018	c9		 leave
  00019	c3		 ret	 0
??$_Move@PAVGashaponPresent@@PAV1@@std@@YAPAVGashaponPresent@@PAV1@00@Z ENDP ; std::_Move<GashaponPresent *,GashaponPresent *>
_TEXT	ENDS
PUBLIC	??$_Equal@V?$_Vector_iterator@V?$_Vector_val@HV?$allocator@H@std@@@std@@@std@@U?$iterator@Urandom_access_iterator_tag@std@@HHPAHAAH@2@@?$_Revranit@V?$_Vector_iterator@V?$_Vector_val@HV?$allocator@H@std@@@std@@@std@@U?$iterator@Urandom_access_iterator_tag@std@@HHPAHAAH@2@@std@@QBE_NABV01@@Z ; std::_Revranit<std::_Vector_iterator<std::_Vector_val<int,std::allocator<int> > >,std::iterator<std::random_access_iterator_tag,int,int,int *,int &> >::_Equal<std::_Vector_iterator<std::_Vector_val<int,std::allocator<int> > >,std::iterator<std::random_access_iterator_tag,int,int,int *,int &> >
; Function compile flags: /Ogsp
;	COMDAT ??$_Equal@V?$_Vector_iterator@V?$_Vector_val@HV?$allocator@H@std@@@std@@@std@@U?$iterator@Urandom_access_iterator_tag@std@@HHPAHAAH@2@@?$_Revranit@V?$_Vector_iterator@V?$_Vector_val@HV?$allocator@H@std@@@std@@@std@@U?$iterator@Urandom_access_iterator_tag@std@@HHPAHAAH@2@@std@@QBE_NABV01@@Z
_TEXT	SEGMENT
__Right$ = 8						; size = 4
??$_Equal@V?$_Vector_iterator@V?$_Vector_val@HV?$allocator@H@std@@@std@@@std@@U?$iterator@Urandom_access_iterator_tag@std@@HHPAHAAH@2@@?$_Revranit@V?$_Vector_iterator@V?$_Vector_val@HV?$allocator@H@std@@@std@@@std@@U?$iterator@Urandom_access_iterator_tag@std@@HHPAHAAH@2@@std@@QBE_NABV01@@Z PROC ; std::_Revranit<std::_Vector_iterator<std::_Vector_val<int,std::allocator<int> > >,std::iterator<std::random_access_iterator_tag,int,int,int *,int &> >::_Equal<std::_Vector_iterator<std::_Vector_val<int,std::allocator<int> > >,std::iterator<std::random_access_iterator_tag,int,int,int *,int &> >, COMDAT
; _this$ = ecx

; 1081 : 		bool _Equal(const _Revranit<_RanIt2, _Base2>& _Right) const

  00000	55		 push	 ebp
  00001	8b ec		 mov	 ebp, esp

; 1082 : 		{	// test for iterator equality
; 1083 : 		return (current == _Right.base());

  00003	8b 45 08	 mov	 eax, DWORD PTR __Right$[ebp]
  00006	8b 00		 mov	 eax, DWORD PTR [eax]
  00008	33 d2		 xor	 edx, edx
  0000a	39 01		 cmp	 DWORD PTR [ecx], eax
  0000c	0f 94 c0	 sete	 al

; 1084 : 		}

  0000f	5d		 pop	 ebp
  00010	c2 04 00	 ret	 4
??$_Equal@V?$_Vector_iterator@V?$_Vector_val@HV?$allocator@H@std@@@std@@@std@@U?$iterator@Urandom_access_iterator_tag@std@@HHPAHAAH@2@@?$_Revranit@V?$_Vector_iterator@V?$_Vector_val@HV?$allocator@H@std@@@std@@@std@@U?$iterator@Urandom_access_iterator_tag@std@@HHPAHAAH@2@@std@@QBE_NABV01@@Z ENDP ; std::_Revranit<std::_Vector_iterator<std::_Vector_val<int,std::allocator<int> > >,std::iterator<std::random_access_iterator_tag,int,int,int *,int &> >::_Equal<std::_Vector_iterator<std::_Vector_val<int,std::allocator<int> > >,std::iterator<std::random_access_iterator_tag,int,int,int *,int &> >
_TEXT	ENDS
PUBLIC	??$iter_swap@PAHPAH@std@@YAXPAH0@Z		; std::iter_swap<int *,int *>
; Function compile flags: /Ogsp
;	COMDAT ??$iter_swap@PAHPAH@std@@YAXPAH0@Z
_TEXT	SEGMENT
__Left$ = 8						; size = 4
__Right$ = 12						; size = 4
??$iter_swap@PAHPAH@std@@YAXPAH0@Z PROC			; std::iter_swap<int *,int *>, COMDAT

; 2133 : 	{	// swap *_Left and *_Right

  00000	55		 push	 ebp
  00001	8b ec		 mov	 ebp, esp

; 2134 : 	swap(*_Left, *_Right);

  00003	8b 55 0c	 mov	 edx, DWORD PTR __Right$[ebp]
  00006	8b 45 08	 mov	 eax, DWORD PTR __Left$[ebp]
  00009	8b 08		 mov	 ecx, DWORD PTR [eax]
  0000b	56		 push	 esi
  0000c	8b 32		 mov	 esi, DWORD PTR [edx]
  0000e	89 30		 mov	 DWORD PTR [eax], esi
  00010	89 0a		 mov	 DWORD PTR [edx], ecx
  00012	5e		 pop	 esi

; 2135 : 	}

  00013	5d		 pop	 ebp
  00014	c3		 ret	 0
??$iter_swap@PAHPAH@std@@YAXPAH0@Z ENDP			; std::iter_swap<int *,int *>
_TEXT	ENDS
PUBLIC	??$_Cons_val@V?$allocator@VioHashString@@@std@@VioHashString@@V3@@std@@YAXAAV?$allocator@VioHashString@@@0@PAVioHashString@@$$QAV2@@Z ; std::_Cons_val<std::allocator<ioHashString>,ioHashString,ioHashString>
; Function compile flags: /Ogsp
; File c:\program files (x86)\microsoft visual studio 10.0\vc\include\xmemory
;	COMDAT ??$_Cons_val@V?$allocator@VioHashString@@@std@@VioHashString@@V3@@std@@YAXAAV?$allocator@VioHashString@@@0@PAVioHashString@@$$QAV2@@Z
_TEXT	SEGMENT
__Alval$ = 8						; size = 4
__Pdest$ = 12						; size = 4
__Src$ = 16						; size = 4
??$_Cons_val@V?$allocator@VioHashString@@@std@@VioHashString@@V3@@std@@YAXAAV?$allocator@VioHashString@@@0@PAVioHashString@@$$QAV2@@Z PROC ; std::_Cons_val<std::allocator<ioHashString>,ioHashString,ioHashString>, COMDAT

; 279  : 	{	// construct using allocator

  00000	55		 push	 ebp
  00001	8b ec		 mov	 ebp, esp

; 280  : 	_Alval.construct(_Pdest, _STD forward<_Ty2>(_Src));

  00003	ff 75 10	 push	 DWORD PTR __Src$[ebp]
  00006	8b 4d 08	 mov	 ecx, DWORD PTR __Alval$[ebp]
  00009	ff 75 0c	 push	 DWORD PTR __Pdest$[ebp]
  0000c	e8 00 00 00 00	 call	 ?construct@?$allocator@VioHashString@@@std@@QAEXPAVioHashString@@$$QAV3@@Z ; std::allocator<ioHashString>::construct

; 281  : 	}

  00011	5d		 pop	 ebp
  00012	c3		 ret	 0
??$_Cons_val@V?$allocator@VioHashString@@@std@@VioHashString@@V3@@std@@YAXAAV?$allocator@VioHashString@@@0@PAVioHashString@@$$QAV2@@Z ENDP ; std::_Cons_val<std::allocator<ioHashString>,ioHashString,ioHashString>
_TEXT	ENDS
PUBLIC	??0?$vector@VioHashString@@V?$allocator@VioHashString@@@std@@@std@@QAE@XZ ; std::vector<ioHashString,std::allocator<ioHashString> >::vector<ioHashString,std::allocator<ioHashString> >
; Function compile flags: /Ogsp
; File c:\program files (x86)\microsoft visual studio 10.0\vc\include\vector
;	COMDAT ??0?$vector@VioHashString@@V?$allocator@VioHashString@@@std@@@std@@QAE@XZ
_TEXT	SEGMENT
??0?$vector@VioHashString@@V?$allocator@VioHashString@@@std@@@std@@QAE@XZ PROC ; std::vector<ioHashString,std::allocator<ioHashString> >::vector<ioHashString,std::allocator<ioHashString> >, COMDAT
; _this$ = ecx

; 507  : 		{	// construct empty vector

  00000	8b c1		 mov	 eax, ecx
  00002	33 c9		 xor	 ecx, ecx
  00004	89 08		 mov	 DWORD PTR [eax], ecx
  00006	89 48 04	 mov	 DWORD PTR [eax+4], ecx
  00009	89 48 08	 mov	 DWORD PTR [eax+8], ecx

; 508  : 		}

  0000c	c3		 ret	 0
??0?$vector@VioHashString@@V?$allocator@VioHashString@@@std@@@std@@QAE@XZ ENDP ; std::vector<ioHashString,std::allocator<ioHashString> >::vector<ioHashString,std::allocator<ioHashString> >
_TEXT	ENDS
PUBLIC	??0?$vector@HV?$allocator@H@std@@@std@@QAE@XZ	; std::vector<int,std::allocator<int> >::vector<int,std::allocator<int> >
; Function compile flags: /Ogsp
;	COMDAT ??0?$vector@HV?$allocator@H@std@@@std@@QAE@XZ
_TEXT	SEGMENT
??0?$vector@HV?$allocator@H@std@@@std@@QAE@XZ PROC	; std::vector<int,std::allocator<int> >::vector<int,std::allocator<int> >, COMDAT
; _this$ = ecx

; 507  : 		{	// construct empty vector

  00000	8b c1		 mov	 eax, ecx
  00002	33 c9		 xor	 ecx, ecx
  00004	89 08		 mov	 DWORD PTR [eax], ecx
  00006	89 48 04	 mov	 DWORD PTR [eax+4], ecx
  00009	89 48 08	 mov	 DWORD PTR [eax+8], ecx

; 508  : 		}

  0000c	c3		 ret	 0
??0?$vector@HV?$allocator@H@std@@@std@@QAE@XZ ENDP	; std::vector<int,std::allocator<int> >::vector<int,std::allocator<int> >
_TEXT	ENDS
PUBLIC	??0?$vector@VGashaponPresent@@V?$allocator@VGashaponPresent@@@std@@@std@@QAE@XZ ; std::vector<GashaponPresent,std::allocator<GashaponPresent> >::vector<GashaponPresent,std::allocator<GashaponPresent> >
; Function compile flags: /Ogsp
;	COMDAT ??0?$vector@VGashaponPresent@@V?$allocator@VGashaponPresent@@@std@@@std@@QAE@XZ
_TEXT	SEGMENT
??0?$vector@VGashaponPresent@@V?$allocator@VGashaponPresent@@@std@@@std@@QAE@XZ PROC ; std::vector<GashaponPresent,std::allocator<GashaponPresent> >::vector<GashaponPresent,std::allocator<GashaponPresent> >, COMDAT
; _this$ = ecx

; 507  : 		{	// construct empty vector

  00000	8b c1		 mov	 eax, ecx
  00002	33 c9		 xor	 ecx, ecx
  00004	89 08		 mov	 DWORD PTR [eax], ecx
  00006	89 48 04	 mov	 DWORD PTR [eax+4], ecx
  00009	89 48 08	 mov	 DWORD PTR [eax+8], ecx

; 508  : 		}

  0000c	c3		 ret	 0
??0?$vector@VGashaponPresent@@V?$allocator@VGashaponPresent@@@std@@@std@@QAE@XZ ENDP ; std::vector<GashaponPresent,std::allocator<GashaponPresent> >::vector<GashaponPresent,std::allocator<GashaponPresent> >
_TEXT	ENDS
PUBLIC	?_Tidy@?$basic_string@DU?$char_traits@D@std@@V?$allocator@D@2@@std@@QAEX_NI@Z ; std::basic_string<char,std::char_traits<char>,std::allocator<char> >::_Tidy
; Function compile flags: /Ogsp
; File c:\program files (x86)\microsoft visual studio 10.0\vc\include\xstring
;	COMDAT ?_Tidy@?$basic_string@DU?$char_traits@D@std@@V?$allocator@D@2@@std@@QAEX_NI@Z
_TEXT	SEGMENT
__Built$ = 8						; size = 1
__Newsize$ = 12						; size = 4
?_Tidy@?$basic_string@DU?$char_traits@D@std@@V?$allocator@D@2@@std@@QAEX_NI@Z PROC ; std::basic_string<char,std::char_traits<char>,std::allocator<char> >::_Tidy, COMDAT
; _this$ = ecx

; 1988 : 		{	// initialize buffer, deallocating any storage

  00000	55		 push	 ebp
  00001	8b ec		 mov	 ebp, esp

; 1989 : 		if (!_Built)

  00003	80 7d 08 00	 cmp	 BYTE PTR __Built$[ebp], 0
  00007	56		 push	 esi
  00008	57		 push	 edi
  00009	8b 7d 0c	 mov	 edi, DWORD PTR __Newsize$[ebp]
  0000c	8b f1		 mov	 esi, ecx
  0000e	74 20		 je	 SHORT $LN9@Tidy

; 1990 : 			;
; 1991 : 		else if (this->_BUF_SIZE <= this->_Myres)

  00010	83 7e 14 10	 cmp	 DWORD PTR [esi+20], 16	; 00000010H
  00014	72 1a		 jb	 SHORT $LN9@Tidy

; 1992 : 			{	// copy any leftovers to small buffer and deallocate
; 1993 : 			_Elem *_Ptr = this->_Bx._Ptr;

  00016	53		 push	 ebx
  00017	8b 1e		 mov	 ebx, DWORD PTR [esi]

; 1994 : 			if (0 < _Newsize)

  00019	85 ff		 test	 edi, edi
  0001b	74 0b		 je	 SHORT $LN7@Tidy

; 1995 : 				_Traits::copy(this->_Bx._Buf, _Ptr, _Newsize);

  0001d	57		 push	 edi
  0001e	53		 push	 ebx
  0001f	56		 push	 esi
  00020	e8 00 00 00 00	 call	 _memcpy
  00025	83 c4 0c	 add	 esp, 12			; 0000000cH
$LN7@Tidy:

; 1996 : 			this->_Alval.deallocate(_Ptr, this->_Myres + 1);

  00028	53		 push	 ebx
  00029	e8 00 00 00 00	 call	 ??3@YAXPAX@Z		; operator delete
  0002e	59		 pop	 ecx
  0002f	5b		 pop	 ebx
$LN9@Tidy:

; 1997 : 			}
; 1998 : 		this->_Myres = this->_BUF_SIZE - 1;
; 1999 : 		_Eos(_Newsize);

  00030	89 7e 10	 mov	 DWORD PTR [esi+16], edi
  00033	c7 46 14 0f 00
	00 00		 mov	 DWORD PTR [esi+20], 15	; 0000000fH
  0003a	c6 04 37 00	 mov	 BYTE PTR [edi+esi], 0
  0003e	5f		 pop	 edi
  0003f	5e		 pop	 esi

; 2000 : 		}

  00040	5d		 pop	 ebp
  00041	c2 08 00	 ret	 8
?_Tidy@?$basic_string@DU?$char_traits@D@std@@V?$allocator@D@2@@std@@QAEX_NI@Z ENDP ; std::basic_string<char,std::char_traits<char>,std::allocator<char> >::_Tidy
_TEXT	ENDS
PUBLIC	?erase@?$basic_string@DU?$char_traits@D@std@@V?$allocator@D@2@@std@@QAEAAV12@II@Z ; std::basic_string<char,std::char_traits<char>,std::allocator<char> >::erase
; Function compile flags: /Ogsp
;	COMDAT ?erase@?$basic_string@DU?$char_traits@D@std@@V?$allocator@D@2@@std@@QAEAAV12@II@Z
_TEXT	SEGMENT
__Off$ = 8						; size = 4
__Count$ = 12						; size = 4
?erase@?$basic_string@DU?$char_traits@D@std@@V?$allocator@D@2@@std@@QAEAAV12@II@Z PROC ; std::basic_string<char,std::char_traits<char>,std::allocator<char> >::erase, COMDAT
; _this$ = ecx

; 1109 : 		{	// erase elements [_Off, _Off + _Count)

  00000	55		 push	 ebp
  00001	8b ec		 mov	 ebp, esp
  00003	53		 push	 ebx
  00004	56		 push	 esi
  00005	8b f1		 mov	 esi, ecx

; 1110 : 		if (this->_Mysize < _Off)

  00007	8b 46 10	 mov	 eax, DWORD PTR [esi+16]
  0000a	8b 4d 08	 mov	 ecx, DWORD PTR __Off$[ebp]
  0000d	3b c1		 cmp	 eax, ecx
  0000f	73 0b		 jae	 SHORT $LN3@erase

; 1111 : 			_Xran();	// _Off off end

  00011	68 00 00 00 00	 push	 OFFSET ??_C@_0BI@CFPLBAOH@invalid?5string?5position?$AA@
  00016	ff 15 00 00 00
	00		 call	 DWORD PTR __imp_?_Xout_of_range@std@@YAXPBD@Z
$LN28@erase:
$LN3@erase:

; 1112 : 		if (this->_Mysize - _Off < _Count)

  0001c	8b 5d 0c	 mov	 ebx, DWORD PTR __Count$[ebp]
  0001f	2b c1		 sub	 eax, ecx
  00021	3b c3		 cmp	 eax, ebx

; 1113 : 			_Count = this->_Mysize - _Off;	// trim _Count

  00023	0f 42 d8	 cmovb	 ebx, eax

; 1114 : 		if (0 < _Count)

  00026	85 db		 test	 ebx, ebx
  00028	74 47		 je	 SHORT $LN25@erase

; 1115 : 			{	// move elements down
; 1116 : 			_Traits::move(_Myptr() + _Off, _Myptr() + _Off + _Count,
; 1117 : 				this->_Mysize - _Off - _Count);

  0002a	8b 56 14	 mov	 edx, DWORD PTR [esi+20]
  0002d	57		 push	 edi
  0002e	83 fa 10	 cmp	 edx, 16			; 00000010H
  00031	72 04		 jb	 SHORT $LN11@erase
  00033	8b 3e		 mov	 edi, DWORD PTR [esi]
  00035	eb 02		 jmp	 SHORT $LN12@erase
$LN11@erase:
  00037	8b fe		 mov	 edi, esi
$LN12@erase:
  00039	83 fa 10	 cmp	 edx, 16			; 00000010H
  0003c	72 04		 jb	 SHORT $LN15@erase
  0003e	8b 16		 mov	 edx, DWORD PTR [esi]
  00040	eb 02		 jmp	 SHORT $LN16@erase
$LN15@erase:
  00042	8b d6		 mov	 edx, esi
$LN16@erase:
  00044	2b c3		 sub	 eax, ebx
  00046	03 f9		 add	 edi, ecx
  00048	50		 push	 eax
  00049	03 fb		 add	 edi, ebx
  0004b	03 d1		 add	 edx, ecx
  0004d	57		 push	 edi
  0004e	52		 push	 edx
  0004f	ff 15 00 00 00
	00		 call	 DWORD PTR __imp__memmove

; 1118 : 			size_type _Newsize = this->_Mysize - _Count;

  00055	8b 46 10	 mov	 eax, DWORD PTR [esi+16]
  00058	83 c4 0c	 add	 esp, 12			; 0000000cH
  0005b	2b c3		 sub	 eax, ebx

; 1119 : 			_Eos(_Newsize);

  0005d	83 7e 14 10	 cmp	 DWORD PTR [esi+20], 16	; 00000010H
  00061	89 46 10	 mov	 DWORD PTR [esi+16], eax
  00064	5f		 pop	 edi
  00065	72 04		 jb	 SHORT $LN23@erase
  00067	8b 0e		 mov	 ecx, DWORD PTR [esi]
  00069	eb 02		 jmp	 SHORT $LN24@erase
$LN23@erase:
  0006b	8b ce		 mov	 ecx, esi
$LN24@erase:
  0006d	c6 04 01 00	 mov	 BYTE PTR [ecx+eax], 0
$LN25@erase:

; 1120 : 			}
; 1121 : 		return (*this);

  00071	8b c6		 mov	 eax, esi
  00073	5e		 pop	 esi
  00074	5b		 pop	 ebx

; 1122 : 		}

  00075	5d		 pop	 ebp
  00076	c2 08 00	 ret	 8
$LN27@erase:
?erase@?$basic_string@DU?$char_traits@D@std@@V?$allocator@D@2@@std@@QAEAAV12@II@Z ENDP ; std::basic_string<char,std::char_traits<char>,std::allocator<char> >::erase
_TEXT	ENDS
PUBLIC	?_Destroy@?$vector@HV?$allocator@H@std@@@std@@IAEXPAH0@Z ; std::vector<int,std::allocator<int> >::_Destroy
; Function compile flags: /Ogsp
; File c:\program files (x86)\microsoft visual studio 10.0\vc\include\vector
;	COMDAT ?_Destroy@?$vector@HV?$allocator@H@std@@@std@@IAEXPAH0@Z
_TEXT	SEGMENT
__First$ = 8						; size = 4
__Last$ = 12						; size = 4
?_Destroy@?$vector@HV?$allocator@H@std@@@std@@IAEXPAH0@Z PROC ; std::vector<int,std::allocator<int> >::_Destroy, COMDAT
; _this$ = ecx

; 1270 : 		_Destroy_range(_First, _Last, this->_Alval);
; 1271 : 		}

  00000	c2 08 00	 ret	 8
?_Destroy@?$vector@HV?$allocator@H@std@@@std@@IAEXPAH0@Z ENDP ; std::vector<int,std::allocator<int> >::_Destroy
_TEXT	ENDS
PUBLIC	??9?$_Vector_const_iterator@V?$_Vector_val@HV?$allocator@H@std@@@std@@@std@@QBE_NABV01@@Z ; std::_Vector_const_iterator<std::_Vector_val<int,std::allocator<int> > >::operator!=
; Function compile flags: /Ogsp
;	COMDAT ??9?$_Vector_const_iterator@V?$_Vector_val@HV?$allocator@H@std@@@std@@@std@@QBE_NABV01@@Z
_TEXT	SEGMENT
__Right$ = 8						; size = 4
??9?$_Vector_const_iterator@V?$_Vector_val@HV?$allocator@H@std@@@std@@@std@@QBE_NABV01@@Z PROC ; std::_Vector_const_iterator<std::_Vector_val<int,std::allocator<int> > >::operator!=, COMDAT
; _this$ = ecx

; 207  : 		{	// test for iterator inequality

  00000	55		 push	 ebp
  00001	8b ec		 mov	 ebp, esp

; 208  : 		return (!(*this == _Right));

  00003	8b 01		 mov	 eax, DWORD PTR [ecx]
  00005	8b 55 08	 mov	 edx, DWORD PTR __Right$[ebp]
  00008	33 c9		 xor	 ecx, ecx
  0000a	3b 02		 cmp	 eax, DWORD PTR [edx]
  0000c	0f 95 c0	 setne	 al

; 209  : 		}

  0000f	5d		 pop	 ebp
  00010	c2 04 00	 ret	 4
??9?$_Vector_const_iterator@V?$_Vector_val@HV?$allocator@H@std@@@std@@@std@@QBE_NABV01@@Z ENDP ; std::_Vector_const_iterator<std::_Vector_val<int,std::allocator<int> > >::operator!=
_TEXT	ENDS
PUBLIC	??9?$_Vector_const_iterator@V?$_Vector_val@VioHashString@@V?$allocator@VioHashString@@@std@@@std@@@std@@QBE_NABV01@@Z ; std::_Vector_const_iterator<std::_Vector_val<ioHashString,std::allocator<ioHashString> > >::operator!=
; Function compile flags: /Ogsp
;	COMDAT ??9?$_Vector_const_iterator@V?$_Vector_val@VioHashString@@V?$allocator@VioHashString@@@std@@@std@@@std@@QBE_NABV01@@Z
_TEXT	SEGMENT
__Right$ = 8						; size = 4
??9?$_Vector_const_iterator@V?$_Vector_val@VioHashString@@V?$allocator@VioHashString@@@std@@@std@@@std@@QBE_NABV01@@Z PROC ; std::_Vector_const_iterator<std::_Vector_val<ioHashString,std::allocator<ioHashString> > >::operator!=, COMDAT
; _this$ = ecx

; 207  : 		{	// test for iterator inequality

  00000	55		 push	 ebp
  00001	8b ec		 mov	 ebp, esp

; 208  : 		return (!(*this == _Right));

  00003	8b 01		 mov	 eax, DWORD PTR [ecx]
  00005	8b 55 08	 mov	 edx, DWORD PTR __Right$[ebp]
  00008	33 c9		 xor	 ecx, ecx
  0000a	3b 02		 cmp	 eax, DWORD PTR [edx]
  0000c	0f 95 c0	 setne	 al

; 209  : 		}

  0000f	5d		 pop	 ebp
  00010	c2 04 00	 ret	 4
??9?$_Vector_const_iterator@V?$_Vector_val@VioHashString@@V?$allocator@VioHashString@@@std@@@std@@@std@@QBE_NABV01@@Z ENDP ; std::_Vector_const_iterator<std::_Vector_val<ioHashString,std::allocator<ioHashString> > >::operator!=
_TEXT	ENDS
PUBLIC	?_Copy@?$basic_string@DU?$char_traits@D@std@@V?$allocator@D@2@@std@@QAEXII@Z ; std::basic_string<char,std::char_traits<char>,std::allocator<char> >::_Copy
EXTRN	__EH_prolog3_catch:PROC
;	COMDAT xdata$x
; File c:\program files (x86)\microsoft visual studio 10.0\vc\include\iosfwd
xdata$x	SEGMENT
__catchsym$?_Copy@?$basic_string@DU?$char_traits@D@std@@V?$allocator@D@2@@std@@QAEXII@Z$5 DD 040H
	DD	00H
	DD	00H
	DD	FLAT:__catch$?_Copy@?$basic_string@DU?$char_traits@D@std@@V?$allocator@D@2@@std@@QAEXII@Z$0
__catchsym$?_Copy@?$basic_string@DU?$char_traits@D@std@@V?$allocator@D@2@@std@@QAEXII@Z$4 DD 040H
	DD	00H
	DD	00H
	DD	FLAT:__catch$?_Copy@?$basic_string@DU?$char_traits@D@std@@V?$allocator@D@2@@std@@QAEXII@Z$1
__unwindtable$?_Copy@?$basic_string@DU?$char_traits@D@std@@V?$allocator@D@2@@std@@QAEXII@Z DD 0ffffffffH
	DD	00H
	DD	0ffffffffH
	DD	00H
	DD	01H
	DD	00H
	DD	01H
	DD	00H
__ehfuncinfo$?_Copy@?$basic_string@DU?$char_traits@D@std@@V?$allocator@D@2@@std@@QAEXII@Z DD 019930522H
	DD	04H
	DD	FLAT:__unwindtable$?_Copy@?$basic_string@DU?$char_traits@D@std@@V?$allocator@D@2@@std@@QAEXII@Z
	DD	02H
	DD	FLAT:__tryblocktable$?_Copy@?$basic_string@DU?$char_traits@D@std@@V?$allocator@D@2@@std@@QAEXII@Z
	DD	2 DUP(00H)
	DD	00H
	DD	01H
__tryblocktable$?_Copy@?$basic_string@DU?$char_traits@D@std@@V?$allocator@D@2@@std@@QAEXII@Z DD 02H
	DD	02H
	DD	03H
	DD	01H
	DD	FLAT:__catchsym$?_Copy@?$basic_string@DU?$char_traits@D@std@@V?$allocator@D@2@@std@@QAEXII@Z$4
	DD	00H
	DD	00H
	DD	03H
	DD	01H
	DD	FLAT:__catchsym$?_Copy@?$basic_string@DU?$char_traits@D@std@@V?$allocator@D@2@@std@@QAEXII@Z$5
; Function compile flags: /Ogsp
; File c:\program files (x86)\microsoft visual studio 10.0\vc\include\xstring
xdata$x	ENDS
;	COMDAT ?_Copy@?$basic_string@DU?$char_traits@D@std@@V?$allocator@D@2@@std@@QAEXII@Z
_TEXT	SEGMENT
_this$ = -24						; size = 4
tv296 = -20						; size = 4
__Newres$ = -20						; size = 4
__$EHRec$ = -16						; size = 16
__Ptr$ = 8						; size = 4
__Newsize$ = 8						; size = 4
__Oldlen$ = 12						; size = 4
?_Copy@?$basic_string@DU?$char_traits@D@std@@V?$allocator@D@2@@std@@QAEXII@Z PROC ; std::basic_string<char,std::char_traits<char>,std::allocator<char> >::_Copy, COMDAT
; _this$ = ecx

; 1919 : 		{	// copy _Oldlen elements to newly allocated buffer

  00000	6a 0c		 push	 12			; 0000000cH
  00002	b8 00 00 00 00	 mov	 eax, __ehhandler$?_Copy@?$basic_string@DU?$char_traits@D@std@@V?$allocator@D@2@@std@@QAEXII@Z
  00007	e8 00 00 00 00	 call	 __EH_prolog3_catch
  0000c	8b f1		 mov	 esi, ecx
  0000e	89 75 e8	 mov	 DWORD PTR _this$[ebp], esi

; 1920 : 		size_type _Newres = _Newsize | this->_ALLOC_MASK;

  00011	8b 7d 08	 mov	 edi, DWORD PTR __Newsize$[ebp]
  00014	83 cf 0f	 or	 edi, 15			; 0000000fH

; 1921 : 		if (max_size() < _Newres)

  00017	83 ff fe	 cmp	 edi, -2			; fffffffeH
  0001a	76 05		 jbe	 SHORT $LN9@Copy

; 1922 : 			_Newres = _Newsize;	// undo roundup if too big

  0001c	8b 7d 08	 mov	 edi, DWORD PTR __Newsize$[ebp]
  0001f	eb 27		 jmp	 SHORT $LN5@Copy
$LN9@Copy:

; 1923 : 		else if (this->_Myres / 2 <= _Newres / 3)

  00021	33 d2		 xor	 edx, edx
  00023	6a 03		 push	 3
  00025	8b c7		 mov	 eax, edi
  00027	5b		 pop	 ebx
  00028	f7 f3		 div	 ebx
  0002a	8b 4e 14	 mov	 ecx, DWORD PTR [esi+20]
  0002d	89 4d ec	 mov	 DWORD PTR tv296[ebp], ecx
  00030	d1 6d ec	 shr	 DWORD PTR tv296[ebp], 1
  00033	8b 55 ec	 mov	 edx, DWORD PTR tv296[ebp]
  00036	3b d0		 cmp	 edx, eax
  00038	76 0e		 jbe	 SHORT $LN5@Copy

; 1924 : 			;
; 1925 : 		else if (this->_Myres <= max_size() - this->_Myres / 2)

  0003a	6a fe		 push	 -2			; fffffffeH
  0003c	5f		 pop	 edi
  0003d	8b c7		 mov	 eax, edi
  0003f	2b c2		 sub	 eax, edx
  00041	3b c8		 cmp	 ecx, eax
  00043	77 03		 ja	 SHORT $LN5@Copy

; 1926 : 			_Newres = this->_Myres
; 1927 : 				+ this->_Myres / 2;	// grow exponentially if possible

  00045	8d 3c 0a	 lea	 edi, DWORD PTR [edx+ecx]
$LN5@Copy:

; 1928 : 		else
; 1929 : 			_Newres = max_size();	// settle for max_size()
; 1930 : 
; 1931 : 		_Elem *_Ptr;
; 1932 : 		_TRY_BEGIN

  00048	83 65 fc 00	 and	 DWORD PTR __$EHRec$[ebp+12], 0

; 1933 : 			_Ptr = this->_Alval.allocate(_Newres + 1);

  0004c	8d 47 01	 lea	 eax, DWORD PTR [edi+1]
  0004f	6a 00		 push	 0
  00051	50		 push	 eax
  00052	e8 00 00 00 00	 call	 ??$_Allocate@D@std@@YAPADIPAD@Z ; std::_Allocate<char>
  00057	59		 pop	 ecx
  00058	59		 pop	 ecx
  00059	89 45 08	 mov	 DWORD PTR __Ptr$[ebp], eax
  0005c	eb 27		 jmp	 SHORT $LN19@Copy
__catch$?_Copy@?$basic_string@DU?$char_traits@D@std@@V?$allocator@D@2@@std@@QAEXII@Z$0:

; 1934 : 		_CATCH_ALL
; 1935 : 			_Newres = _Newsize;	// allocation failed, undo roundup and retry

  0005e	8b 45 08	 mov	 eax, DWORD PTR __Newsize$[ebp]
  00061	89 65 f0	 mov	 DWORD PTR __$EHRec$[ebp], esp
  00064	89 45 ec	 mov	 DWORD PTR __Newres$[ebp], eax

; 1936 : 			_TRY_BEGIN
; 1937 : 				_Ptr = this->_Alval.allocate(_Newres + 1);

  00067	40		 inc	 eax
  00068	6a 00		 push	 0
  0006a	50		 push	 eax
  0006b	c6 45 fc 02	 mov	 BYTE PTR __$EHRec$[ebp+12], 2
  0006f	e8 00 00 00 00	 call	 ??$_Allocate@D@std@@YAPADIPAD@Z ; std::_Allocate<char>
  00074	59		 pop	 ecx
  00075	89 45 08	 mov	 DWORD PTR __Ptr$[ebp], eax
  00078	59		 pop	 ecx

; 1941 : 			_CATCH_END
; 1942 : 		_CATCH_END

  00079	b8 00 00 00 00	 mov	 eax, $LN63@Copy
  0007e	c3		 ret	 0
$LN63@Copy:
  0007f	8b 75 e8	 mov	 esi, DWORD PTR _this$[ebp]
  00082	8b 7d ec	 mov	 edi, DWORD PTR __Newres$[ebp]
$LN19@Copy:

; 1943 : 
; 1944 : 		if (0 < _Oldlen)

  00085	8b 5d 0c	 mov	 ebx, DWORD PTR __Oldlen$[ebp]
  00088	85 db		 test	 ebx, ebx
  0008a	74 19		 je	 SHORT $LN52@Copy

; 1945 : 			_Traits::copy(_Ptr, _Myptr(), _Oldlen);	// copy existing elements

  0008c	83 7e 14 10	 cmp	 DWORD PTR [esi+20], 16	; 00000010H
  00090	72 04		 jb	 SHORT $LN50@Copy
  00092	8b 06		 mov	 eax, DWORD PTR [esi]
  00094	eb 02		 jmp	 SHORT $LN51@Copy
$LN50@Copy:
  00096	8b c6		 mov	 eax, esi
$LN51@Copy:
  00098	53		 push	 ebx
  00099	50		 push	 eax
  0009a	ff 75 08	 push	 DWORD PTR __Ptr$[ebp]
  0009d	e8 00 00 00 00	 call	 _memcpy
  000a2	83 c4 0c	 add	 esp, 12			; 0000000cH
$LN52@Copy:

; 1946 : 		_Tidy(true);

  000a5	6a 00		 push	 0
  000a7	6a 01		 push	 1
  000a9	8b ce		 mov	 ecx, esi
  000ab	e8 00 00 00 00	 call	 ?_Tidy@?$basic_string@DU?$char_traits@D@std@@V?$allocator@D@2@@std@@QAEX_NI@Z ; std::basic_string<char,std::char_traits<char>,std::allocator<char> >::_Tidy

; 1947 : 		this->_Bx._Ptr = _Ptr;

  000b0	8b 45 08	 mov	 eax, DWORD PTR __Ptr$[ebp]
  000b3	89 06		 mov	 DWORD PTR [esi], eax

; 1948 : 		this->_Myres = _Newres;
; 1949 : 		_Eos(_Oldlen);

  000b5	83 ff 10	 cmp	 edi, 16			; 00000010H
  000b8	89 7e 14	 mov	 DWORD PTR [esi+20], edi
  000bb	89 5e 10	 mov	 DWORD PTR [esi+16], ebx
  000be	0f 42 c6	 cmovb	 eax, esi
  000c1	c6 04 18 00	 mov	 BYTE PTR [eax+ebx], 0

; 1950 : 		}

  000c5	e8 00 00 00 00	 call	 __EH_epilog3
  000ca	c2 08 00	 ret	 8
__catch$?_Copy@?$basic_string@DU?$char_traits@D@std@@V?$allocator@D@2@@std@@QAEXII@Z$1:

; 1938 : 			_CATCH_ALL
; 1939 : 			_Tidy(true);	// failed again, discard storage and reraise

  000cd	8b 4d e8	 mov	 ecx, DWORD PTR _this$[ebp]
  000d0	33 f6		 xor	 esi, esi
  000d2	56		 push	 esi
  000d3	6a 01		 push	 1
  000d5	e8 00 00 00 00	 call	 ?_Tidy@?$basic_string@DU?$char_traits@D@std@@V?$allocator@D@2@@std@@QAEX_NI@Z ; std::basic_string<char,std::char_traits<char>,std::allocator<char> >::_Tidy

; 1940 : 			_RERAISE;

  000da	56		 push	 esi
  000db	56		 push	 esi
  000dc	e8 00 00 00 00	 call	 __CxxThrowException@8
$LN67@Copy:
$LN66@Copy:
  000e1	cc		 int	 3
_TEXT	ENDS
;	COMDAT text$x
text$x	SEGMENT
__ehhandler$?_Copy@?$basic_string@DU?$char_traits@D@std@@V?$allocator@D@2@@std@@QAEXII@Z:
  00000	8b 54 24 08	 mov	 edx, DWORD PTR [esp+8]
  00004	8d 42 0c	 lea	 eax, DWORD PTR [edx+12]
  00007	8b 4a e4	 mov	 ecx, DWORD PTR [edx-28]
  0000a	33 c8		 xor	 ecx, eax
  0000c	e8 00 00 00 00	 call	 @__security_check_cookie@4
  00011	b8 00 00 00 00	 mov	 eax, OFFSET __ehfuncinfo$?_Copy@?$basic_string@DU?$char_traits@D@std@@V?$allocator@D@2@@std@@QAEXII@Z
  00016	e9 00 00 00 00	 jmp	 ___CxxFrameHandler3
text$x	ENDS
?_Copy@?$basic_string@DU?$char_traits@D@std@@V?$allocator@D@2@@std@@QAEXII@Z ENDP ; std::basic_string<char,std::char_traits<char>,std::allocator<char> >::_Copy
PUBLIC	??$_Move@PAVioHashString@@PAV1@@std@@YAPAVioHashString@@PAV1@00@Z ; std::_Move<ioHashString *,ioHashString *>
; Function compile flags: /Ogsp
; File c:\program files (x86)\microsoft visual studio 10.0\vc\include\xutility
;	COMDAT ??$_Move@PAVioHashString@@PAV1@@std@@YAPAVioHashString@@PAV1@00@Z
_TEXT	SEGMENT
__Cat$520991 = -4					; size = 1
__First$ = 8						; size = 4
__Last$ = 12						; size = 4
__Dest$ = 16						; size = 4
??$_Move@PAVioHashString@@PAV1@@std@@YAPAVioHashString@@PAV1@00@Z PROC ; std::_Move<ioHashString *,ioHashString *>, COMDAT

; 2533 : 	{	// move [_First, _Last) to [_Dest, ...), unchecked

  00000	55		 push	 ebp
  00001	8b ec		 mov	 ebp, esp
  00003	51		 push	 ecx

; 2534 : 	return (_Move(_First, _Last,
; 2535 : 		_Dest, _Ptr_cat(_First, _Dest)));

  00004	ff 75 fc	 push	 DWORD PTR __Cat$520991[ebp]
  00007	ff 75 10	 push	 DWORD PTR __Dest$[ebp]
  0000a	ff 75 0c	 push	 DWORD PTR __Last$[ebp]
  0000d	ff 75 08	 push	 DWORD PTR __First$[ebp]
  00010	e8 00 00 00 00	 call	 ??$_Move@PAVioHashString@@PAV1@@std@@YAPAVioHashString@@PAV1@00U_Nonscalar_ptr_iterator_tag@0@@Z ; std::_Move<ioHashString *,ioHashString *>
  00015	83 c4 10	 add	 esp, 16			; 00000010H

; 2536 : 	}

  00018	c9		 leave
  00019	c3		 ret	 0
??$_Move@PAVioHashString@@PAV1@@std@@YAPAVioHashString@@PAV1@00@Z ENDP ; std::_Move<ioHashString *,ioHashString *>
_TEXT	ENDS
PUBLIC	??$_Umove@PAH@?$vector@HV?$allocator@H@std@@@std@@IAEPAHPAH00@Z ; std::vector<int,std::allocator<int> >::_Umove<int *>
; Function compile flags: /Ogsp
; File c:\program files (x86)\microsoft visual studio 10.0\vc\include\vector
;	COMDAT ??$_Umove@PAH@?$vector@HV?$allocator@H@std@@@std@@IAEPAHPAH00@Z
_TEXT	SEGMENT
__First$ = 8						; size = 4
__Last$ = 12						; size = 4
__Ptr$ = 16						; size = 4
??$_Umove@PAH@?$vector@HV?$allocator@H@std@@@std@@IAEPAHPAH00@Z PROC ; std::vector<int,std::allocator<int> >::_Umove<int *>, COMDAT
; _this$ = ecx

; 1322 : 		pointer _Umove(_Iter _First, _Iter _Last, pointer _Ptr)

  00000	55		 push	 ebp
  00001	8b ec		 mov	 ebp, esp

; 1323 : 		{	// move initializing [_First, _Last), using allocator
; 1324 : 		return (_Uninitialized_move(_First, _Last,
; 1325 : 			_Ptr, this->_Alval));

  00003	83 c1 0c	 add	 ecx, 12			; 0000000cH
  00006	51		 push	 ecx
  00007	ff 75 10	 push	 DWORD PTR __Ptr$[ebp]
  0000a	ff 75 0c	 push	 DWORD PTR __Last$[ebp]
  0000d	ff 75 08	 push	 DWORD PTR __First$[ebp]
  00010	e8 00 00 00 00	 call	 ??$_Uninitialized_move@PAHPAHV?$allocator@H@std@@@std@@YAPAHPAH00AAV?$allocator@H@0@@Z ; std::_Uninitialized_move<int *,int *,std::allocator<int> >
  00015	83 c4 10	 add	 esp, 16			; 00000010H

; 1326 : 		}

  00018	5d		 pop	 ebp
  00019	c2 0c 00	 ret	 12			; 0000000cH
??$_Umove@PAH@?$vector@HV?$allocator@H@std@@@std@@IAEPAHPAH00@Z ENDP ; std::vector<int,std::allocator<int> >::_Umove<int *>
_TEXT	ENDS
PUBLIC	?destroy@?$allocator@VioHashString@@@std@@QAEXPAVioHashString@@@Z ; std::allocator<ioHashString>::destroy
; Function compile flags: /Ogsp
; File c:\program files (x86)\microsoft visual studio 10.0\vc\include\xmemory
;	COMDAT ?destroy@?$allocator@VioHashString@@@std@@QAEXPAVioHashString@@@Z
_TEXT	SEGMENT
__Ptr$ = 8						; size = 4
?destroy@?$allocator@VioHashString@@@std@@QAEXPAVioHashString@@@Z PROC ; std::allocator<ioHashString>::destroy, COMDAT
; _this$ = ecx

; 212  : 		{	// destroy object at _Ptr

  00000	55		 push	 ebp
  00001	8b ec		 mov	 ebp, esp

; 213  : 		_Destroy(_Ptr);

  00003	8b 4d 08	 mov	 ecx, DWORD PTR __Ptr$[ebp]
  00006	ff 15 00 00 00
	00		 call	 DWORD PTR __imp_??1ioHashString@@QAE@XZ

; 214  : 		}

  0000c	5d		 pop	 ebp
  0000d	c2 04 00	 ret	 4
?destroy@?$allocator@VioHashString@@@std@@QAEXPAVioHashString@@@Z ENDP ; std::allocator<ioHashString>::destroy
_TEXT	ENDS
PUBLIC	?destroy@?$allocator@VGashaponPresent@@@std@@QAEXPAVGashaponPresent@@@Z ; std::allocator<GashaponPresent>::destroy
; Function compile flags: /Ogsp
;	COMDAT ?destroy@?$allocator@VGashaponPresent@@@std@@QAEXPAVGashaponPresent@@@Z
_TEXT	SEGMENT
__Ptr$ = 8						; size = 4
?destroy@?$allocator@VGashaponPresent@@@std@@QAEXPAVGashaponPresent@@@Z PROC ; std::allocator<GashaponPresent>::destroy, COMDAT
; _this$ = ecx

; 212  : 		{	// destroy object at _Ptr

  00000	55		 push	 ebp
  00001	8b ec		 mov	 ebp, esp

; 213  : 		_Destroy(_Ptr);

  00003	8b 4d 08	 mov	 ecx, DWORD PTR __Ptr$[ebp]
  00006	e8 00 00 00 00	 call	 ??1GashaponPresent@@QAE@XZ ; GashaponPresent::~GashaponPresent

; 214  : 		}

  0000b	5d		 pop	 ebp
  0000c	c2 04 00	 ret	 4
?destroy@?$allocator@VGashaponPresent@@@std@@QAEXPAVGashaponPresent@@@Z ENDP ; std::allocator<GashaponPresent>::destroy
_TEXT	ENDS
PUBLIC	??$_Cons_val@V?$allocator@VioHashString@@@std@@VioHashString@@ABV3@@std@@YAXAAV?$allocator@VioHashString@@@0@PAVioHashString@@ABV2@@Z ; std::_Cons_val<std::allocator<ioHashString>,ioHashString,ioHashString const &>
; Function compile flags: /Ogsp
;	COMDAT ??$_Cons_val@V?$allocator@VioHashString@@@std@@VioHashString@@ABV3@@std@@YAXAAV?$allocator@VioHashString@@@0@PAVioHashString@@ABV2@@Z
_TEXT	SEGMENT
__Alval$ = 8						; size = 4
__Pdest$ = 12						; size = 4
__Src$ = 16						; size = 4
??$_Cons_val@V?$allocator@VioHashString@@@std@@VioHashString@@ABV3@@std@@YAXAAV?$allocator@VioHashString@@@0@PAVioHashString@@ABV2@@Z PROC ; std::_Cons_val<std::allocator<ioHashString>,ioHashString,ioHashString const &>, COMDAT

; 279  : 	{	// construct using allocator

  00000	55		 push	 ebp
  00001	8b ec		 mov	 ebp, esp

; 280  : 	_Alval.construct(_Pdest, _STD forward<_Ty2>(_Src));

  00003	ff 75 10	 push	 DWORD PTR __Src$[ebp]
  00006	ff 75 0c	 push	 DWORD PTR __Pdest$[ebp]
  00009	e8 00 00 00 00	 call	 ??$_Construct@VioHashString@@ABV1@@std@@YAXPAVioHashString@@ABV1@@Z ; std::_Construct<ioHashString,ioHashString const &>
  0000e	59		 pop	 ecx
  0000f	59		 pop	 ecx

; 281  : 	}

  00010	5d		 pop	 ebp
  00011	c3		 ret	 0
??$_Cons_val@V?$allocator@VioHashString@@@std@@VioHashString@@ABV3@@std@@YAXAAV?$allocator@VioHashString@@@0@PAVioHashString@@ABV2@@Z ENDP ; std::_Cons_val<std::allocator<ioHashString>,ioHashString,ioHashString const &>
_TEXT	ENDS
PUBLIC	??_C@_0BC@KELNKFGO@?5?5?5?5?5?5?5?5?5?5?5?5?5?5?5?5?5?$AA@ ; `string'
PUBLIC	??_C@_0BM@CPBICBMK@RisingGashaponWnd?3?3CheckBuy?$AA@ ; `string'
PUBLIC	??_C@_0BN@JJOBINLC@IsBillingTestID?5is?5true?5?3?5?$CFs?$AA@ ; `string'
PUBLIC	_this$GSCopy$
PUBLIC	?CheckBuy@RisingGashaponWnd@@IAEXXZ		; RisingGashaponWnd::CheckBuy
EXTRN	??_M@YGXPAXIHP6EX0@Z@Z:PROC			; `eh vector destructor iterator'
EXTRN	?SetPrintMessage@NewShopBuyConfirmWnd@@QAEXPAVioWnd@@PAVioComplexStringPrinter@@H@Z:PROC ; NewShopBuyConfirmWnd::SetPrintMessage
EXTRN	?AddTextPiece@ioComplexStringPrinter@@QAEXMPBD0@Z:PROC ; ioComplexStringPrinter::AddTextPiece
EXTRN	??_L@YGXPAXIHP6EX0@Z1@Z:PROC			; `eh vector constructor iterator'
EXTRN	__imp_?ShowWnd@ioGUIManager@@QAEXK_N@Z:PROC
EXTRN	?IsBillingTestID@ioChannelingNodeParent@@SA_NABVioHashString@@@Z:PROC ; ioChannelingNodeParent::IsBillingTestID
EXTRN	?IsExpertEntryTemporary@ioMyInfo@@QAE_NXZ:PROC	; ioMyInfo::IsExpertEntryTemporary
EXTRN	?IsExtraItemFull@ioMyInfo@@QAE_N_N@Z:PROC	; ioMyInfo::IsExtraItemFull
;	COMDAT ??_C@_0BC@KELNKFGO@?5?5?5?5?5?5?5?5?5?5?5?5?5?5?5?5?5?$AA@
; File d:\lost saga for developer\youtube\tutorial\source\src\lsclient\iomyinfo.h
CONST	SEGMENT
??_C@_0BC@KELNKFGO@?5?5?5?5?5?5?5?5?5?5?5?5?5?5?5?5?5?$AA@ DB '          '
	DB	'       ', 00H				; `string'
CONST	ENDS
;	COMDAT ??_C@_0BM@CPBICBMK@RisingGashaponWnd?3?3CheckBuy?$AA@
CONST	SEGMENT
??_C@_0BM@CPBICBMK@RisingGashaponWnd?3?3CheckBuy?$AA@ DB 'RisingGashaponW'
	DB	'nd::CheckBuy', 00H				; `string'
CONST	ENDS
;	COMDAT ??_C@_0BN@JJOBINLC@IsBillingTestID?5is?5true?5?3?5?$CFs?$AA@
CONST	SEGMENT
??_C@_0BN@JJOBINLC@IsBillingTestID?5is?5true?5?3?5?$CFs?$AA@ DB 'IsBillin'
	DB	'gTestID is true : %s', 00H			; `string'
CONST	ENDS
;	COMDAT xdata$x
xdata$x	SEGMENT
__unwindtable$?CheckBuy@RisingGashaponWnd@@IAEXXZ DD 0ffffffffH
	DD	FLAT:__unwindfunclet$?CheckBuy@RisingGashaponWnd@@IAEXXZ$0
__ehfuncinfo$?CheckBuy@RisingGashaponWnd@@IAEXXZ DD 019930522H
	DD	01H
	DD	FLAT:__unwindtable$?CheckBuy@RisingGashaponWnd@@IAEXXZ
	DD	2 DUP(00H)
	DD	2 DUP(00H)
	DD	00H
	DD	01H
; Function compile flags: /Ogsp
; File d:\lost saga for developer\youtube\tutorial\source\src\lsclient\gui\risinggashaponwnd.cpp
xdata$x	ENDS
;	COMDAT ?CheckBuy@RisingGashaponWnd@@IAEXXZ
_TEXT	SEGMENT
$T521059 = -936						; size = 8
_this$GSCopy$ = -928					; size = 4
_iPayAmt$ = -924					; size = 4
_kPrinter$ = -920					; size = 384
_szName$ = -536						; size = 260
_szPrice$ = -276					; size = 260
__$EHRec$ = -12						; size = 12
?CheckBuy@RisingGashaponWnd@@IAEXXZ PROC		; RisingGashaponWnd::CheckBuy, COMDAT
; _this$ = ecx

; 515  : {

  00000	68 9c 03 00 00	 push	 924			; 0000039cH
  00005	b8 00 00 00 00	 mov	 eax, __ehhandler$?CheckBuy@RisingGashaponWnd@@IAEXXZ
  0000a	e8 00 00 00 00	 call	 __EH_prolog3_GS
  0000f	8b f1		 mov	 esi, ecx

; 516  : 
; 517  : 	// 모두 구매함.. 리셋 해야한다.
; 518  : 	if(m_iBuyCount == m_vGashaponItemList.size())

  00011	8b 86 1c 02 00
	00		 mov	 eax, DWORD PTR [esi+540]
  00017	2b 86 18 02 00
	00		 sub	 eax, DWORD PTR [esi+536]
  0001d	6a 14		 push	 20			; 00000014H
  0001f	99		 cdq
  00020	59		 pop	 ecx
  00021	f7 f9		 idiv	 ecx

; 593  : 
; 594  : 
; 595  : 	ioComplexStringPrinter kPrinter[MAX_MSG_LIST_SIZE];

  00023	89 b5 60 fc ff
	ff		 mov	 DWORD PTR _this$GSCopy$[ebp], esi
  00029	39 86 f0 01 00
	00		 cmp	 DWORD PTR [esi+496], eax
  0002f	75 0c		 jne	 SHORT $LN17@CheckBuy

; 519  : 	{
; 520  : 		// 리셋 메시지박스 출력
; 521  : 		ShowInitWarning();

  00031	8b ce		 mov	 ecx, esi
  00033	e8 00 00 00 00	 call	 ?ShowInitWarning@RisingGashaponWnd@@IAEXXZ ; RisingGashaponWnd::ShowInitWarning

; 522  : 		return;

  00038	e9 67 04 00 00	 jmp	 $LN18@CheckBuy
$LN17@CheckBuy:

; 523  : 	}
; 524  : 
; 525  : 	// 장비 제한 체크
; 526  : 	if( g_MyInfo.IsExtraItemFull( true ) )

  0003d	6a 01		 push	 1
  0003f	e8 00 00 00 00	 call	 ?GetSingleton@ioMyInfo@@SAAAV1@XZ ; ioMyInfo::GetSingleton
  00044	8b c8		 mov	 ecx, eax
  00046	e8 00 00 00 00	 call	 ?IsExtraItemFull@ioMyInfo@@QAE_N_N@Z ; ioMyInfo::IsExtraItemFull
  0004b	84 c0		 test	 al, al
  0004d	0f 85 51 04 00
	00		 jne	 $LN18@CheckBuy

; 527  : 		return;
; 528  : 
; 529  : 	// cash
; 530  : 	if( g_MyInfo.GetEntryType() == ET_TERMINATION || g_MyInfo.IsExpertEntryTemporary() )

  00053	e8 00 00 00 00	 call	 ?GetSingleton@ioMyInfo@@SAAAV1@XZ ; ioMyInfo::GetSingleton
  00058	8b 40 5c	 mov	 eax, DWORD PTR [eax+92]
  0005b	83 f8 ff	 cmp	 eax, -1
  0005e	0f 84 12 04 00
	00		 je	 $LN14@CheckBuy
  00064	e8 00 00 00 00	 call	 ?GetSingleton@ioMyInfo@@SAAAV1@XZ ; ioMyInfo::GetSingleton
  00069	8b c8		 mov	 ecx, eax
  0006b	e8 00 00 00 00	 call	 ?IsExpertEntryTemporary@ioMyInfo@@QAE_NXZ ; ioMyInfo::IsExpertEntryTemporary
  00070	84 c0		 test	 al, al
  00072	0f 85 fe 03 00
	00		 jne	 $LN14@CheckBuy

; 533  : 		return;
; 534  : 	}
; 535  : 
; 536  : 
; 537  : 	int iPayAmt = 0;
; 538  : 	char szName[MAX_PATH]="";

  00078	33 db		 xor	 ebx, ebx
  0007a	68 03 01 00 00	 push	 259			; 00000103H
  0007f	8d 85 e9 fd ff
	ff		 lea	 eax, DWORD PTR _szName$[ebp+1]
  00085	53		 push	 ebx
  00086	50		 push	 eax
  00087	88 9d e8 fd ff
	ff		 mov	 BYTE PTR _szName$[ebp], bl
  0008d	e8 00 00 00 00	 call	 _memset

; 539  : 	ioRisingGashapon *pEtcItem = static_cast< ioRisingGashapon* > ( g_EtcItemMgr.FindEtcItem( m_iEtcItemType ) );

  00092	8b 0d 00 00 00
	00		 mov	 ecx, DWORD PTR ?ms_Singleton@?$Singleton@VioEtcItemManager@@@@1PAVioEtcItemManager@@A ; Singleton<ioEtcItemManager>::ms_Singleton
  00098	83 c4 0c	 add	 esp, 12			; 0000000cH
  0009b	ff b6 c8 01 00
	00		 push	 DWORD PTR [esi+456]
  000a1	e8 00 00 00 00	 call	 ?FindEtcItem@ioEtcItemManager@@QAEPAVioEtcItem@@K@Z ; ioEtcItemManager::FindEtcItem
  000a6	8b f8		 mov	 edi, eax

; 540  : 	if( pEtcItem )

  000a8	3b fb		 cmp	 edi, ebx
  000aa	74 49		 je	 SHORT $LN35@CheckBuy

; 541  : 	{
; 542  : 		// 몇번째이냐에 따라 가격 달라짐 즉 순번으로 가격 가져오기
; 543  : 		if(m_bBuyCash)
; 544  : 		{
; 545  : 			iPayAmt = pEtcItem->GetCash( m_iBuyCount );

  000ac	ff b6 f0 01 00
	00		 push	 DWORD PTR [esi+496]
  000b2	8b cf		 mov	 ecx, edi
  000b4	39 9e ec 01 00
	00		 cmp	 DWORD PTR [esi+492], ebx
  000ba	74 07		 je	 SHORT $LN12@CheckBuy
  000bc	e8 00 00 00 00	 call	 ?GetCash@ioEtcItem@@QBEHH@Z ; ioEtcItem::GetCash

; 546  : 		}
; 547  : 		else

  000c1	eb 05		 jmp	 SHORT $LN38@CheckBuy
$LN12@CheckBuy:

; 548  : 		{
; 549  : 			iPayAmt = pEtcItem->GetPeso( m_iBuyCount );

  000c3	e8 00 00 00 00	 call	 ?GetPeso@ioEtcItem@@QBEHH@Z ; ioEtcItem::GetPeso
$LN38@CheckBuy:

; 550  : 			
; 551  : 		}
; 552  : 		StringCbCopy( szName, sizeof( szName ), pEtcItem->GetTtitle().c_str() );

  000c8	8d 8f 88 01 00
	00		 lea	 ecx, DWORD PTR [edi+392]
  000ce	89 85 64 fc ff
	ff		 mov	 DWORD PTR _iPayAmt$[ebp], eax
  000d4	ff 15 00 00 00
	00		 call	 DWORD PTR __imp_?c_str@ioHashString@@QBEPBDXZ
  000da	50		 push	 eax
  000db	bf 04 01 00 00	 mov	 edi, 260		; 00000104H
  000e0	57		 push	 edi
  000e1	8d 85 e8 fd ff
	ff		 lea	 eax, DWORD PTR _szName$[ebp]
  000e7	50		 push	 eax
  000e8	e8 00 00 00 00	 call	 ?StringCbCopyA@@YGJPADIPBD@Z ; StringCbCopyA

; 553  : 	}
; 554  : 
; 555  : 	if( iPayAmt <= 0 )

  000ed	39 9d 64 fc ff
	ff		 cmp	 DWORD PTR _iPayAmt$[ebp], ebx
  000f3	7f 08		 jg	 SHORT $LN10@CheckBuy
$LN35@CheckBuy:

; 556  : 	{
; 557  : 		g_GUIMgr.SetMsgBox( MB_OK, NULL, STR(2) );

  000f5	53		 push	 ebx
  000f6	6a 02		 push	 2

; 558  : 		return;

  000f8	e9 7e 03 00 00	 jmp	 $LN39@CheckBuy
$LN10@CheckBuy:

; 559  : 	}
; 560  : 	
; 561  : 	if(m_bBuyCash)

  000fd	39 9e ec 01 00
	00		 cmp	 DWORD PTR [esi+492], ebx
  00103	0f 84 a4 00 00
	00		 je	 $LN9@CheckBuy

; 562  : 	{
; 563  : 		if( g_MyInfo.GetTotalCash() < iPayAmt )

  00109	e8 00 00 00 00	 call	 ?GetSingleton@ioMyInfo@@SAAAV1@XZ ; ioMyInfo::GetSingleton
  0010e	8b c8		 mov	 ecx, eax
  00110	e8 00 00 00 00	 call	 ?GetTotalCash@ioMyInfo@@QAEHXZ ; ioMyInfo::GetTotalCash
  00115	3b 85 64 fc ff
	ff		 cmp	 eax, DWORD PTR _iPayAmt$[ebp]
  0011b	7d 37		 jge	 SHORT $LN4@CheckBuy

; 564  : 		{
; 565  : 			if( ioChannelingNodeParent::IsBillingTestID( g_MyInfo.GetPublicID() ) )

  0011d	e8 00 00 00 00	 call	 ?GetSingleton@ioMyInfo@@SAAAV1@XZ ; ioMyInfo::GetSingleton
  00122	83 c0 1c	 add	 eax, 28			; 0000001cH
  00125	50		 push	 eax
  00126	e8 00 00 00 00	 call	 ?IsBillingTestID@ioChannelingNodeParent@@SA_NABVioHashString@@@Z ; ioChannelingNodeParent::IsBillingTestID
  0012b	59		 pop	 ecx
  0012c	84 c0		 test	 al, al
  0012e	74 65		 je	 SHORT $LN7@CheckBuy

; 566  : 			{
; 567  : 				LOG.PrintTimeAndLog( 0, "IsBillingTestID is true : %s", g_MyInfo.GetPublicID().c_str() );

  00130	e8 00 00 00 00	 call	 ?GetSingleton@ioMyInfo@@SAAAV1@XZ ; ioMyInfo::GetSingleton
  00135	8d 48 1c	 lea	 ecx, DWORD PTR [eax+28]
  00138	ff 15 00 00 00
	00		 call	 DWORD PTR __imp_?c_str@ioHashString@@QBEPBDXZ
  0013e	50		 push	 eax
  0013f	68 00 00 00 00	 push	 OFFSET ??_C@_0BN@JJOBINLC@IsBillingTestID?5is?5true?5?3?5?$CFs?$AA@
  00144	53		 push	 ebx
  00145	ff 35 00 00 00
	00		 push	 DWORD PTR __imp_?LOG@@3VCLog@@A
  0014b	ff 15 00 00 00
	00		 call	 DWORD PTR __imp_?PrintTimeAndLog@CLog@@QAAXHPADZZ
  00151	83 c4 10	 add	 esp, 16			; 00000010H
$LN4@CheckBuy:

; 582  : 		}
; 583  : 
; 584  : 	}
; 585  : 
; 586  : 	// show confirm 
; 587  : 	char szPrice[MAX_PATH]="";

  00154	68 03 01 00 00	 push	 259			; 00000103H
  00159	8d 85 ed fe ff
	ff		 lea	 eax, DWORD PTR _szPrice$[ebp+1]
  0015f	53		 push	 ebx
  00160	50		 push	 eax
  00161	88 9d ec fe ff
	ff		 mov	 BYTE PTR _szPrice$[ebp], bl
  00167	e8 00 00 00 00	 call	 _memset

; 588  : 	Help::ConvertNumToStrComma( iPayAmt, szPrice, sizeof( szPrice ) );

  0016c	57		 push	 edi
  0016d	8d 85 ec fe ff
	ff		 lea	 eax, DWORD PTR _szPrice$[ebp]
  00173	50		 push	 eax
  00174	ff b5 64 fc ff
	ff		 push	 DWORD PTR _iPayAmt$[ebp]
  0017a	e8 00 00 00 00	 call	 ?ConvertNumToStrComma@Help@@YAXHPADH@Z ; Help::ConvertNumToStrComma
  0017f	83 c4 18	 add	 esp, 24			; 00000018H

; 589  : 	if(m_bBuyCash)

  00182	39 9e ec 01 00
	00		 cmp	 DWORD PTR [esi+492], ebx

; 590  : 		StringCbCat( szPrice, sizeof( szPrice ), STR(3));

  00188	8b 35 00 00 00
	00		 mov	 esi, DWORD PTR __imp_?GetSingleton@ioStringManager@@SAAAV1@XZ
  0018e	53		 push	 ebx
  0018f	74 4e		 je	 SHORT $LN3@CheckBuy
  00191	6a 03		 push	 3

; 591  : 	else

  00193	eb 4c		 jmp	 SHORT $LN40@CheckBuy
$LN7@CheckBuy:

; 568  : 			}
; 569  : 			else
; 570  : 			{
; 571  : 				g_GUIMgr.ShowWnd( BILLING_WANT_WND );

  00195	53		 push	 ebx
  00196	68 ba 17 00 00	 push	 6074			; 000017baH
  0019b	e8 00 00 00 00	 call	 ?GetSingleton@ioSP2GUIManager@@SAAAV1@XZ ; ioSP2GUIManager::GetSingleton
  001a0	8b c8		 mov	 ecx, eax
  001a2	ff 15 00 00 00
	00		 call	 DWORD PTR __imp_?ShowWnd@ioGUIManager@@QAEXK_N@Z

; 572  : 				return;

  001a8	e9 f7 02 00 00	 jmp	 $LN18@CheckBuy
$LN9@CheckBuy:

; 573  : 			}
; 574  : 		}
; 575  : 	}
; 576  : 	else
; 577  : 	{
; 578  : 		if( g_MyInfo.GetMoney() < iPayAmt )

  001ad	e8 00 00 00 00	 call	 ?GetSingleton@ioMyInfo@@SAAAV1@XZ ; ioMyInfo::GetSingleton
  001b2	8b 48 30	 mov	 ecx, DWORD PTR [eax+48]
  001b5	89 8d 58 fc ff
	ff		 mov	 DWORD PTR $T521059[ebp], ecx
  001bb	8b 48 34	 mov	 ecx, DWORD PTR [eax+52]
  001be	8b 85 64 fc ff
	ff		 mov	 eax, DWORD PTR _iPayAmt$[ebp]
  001c4	99		 cdq
  001c5	3b ca		 cmp	 ecx, edx
  001c7	7f 8b		 jg	 SHORT $LN4@CheckBuy
  001c9	7c 08		 jl	 SHORT $LN36@CheckBuy
  001cb	39 85 58 fc ff
	ff		 cmp	 DWORD PTR $T521059[ebp], eax
  001d1	73 81		 jae	 SHORT $LN4@CheckBuy
$LN36@CheckBuy:

; 579  : 		{
; 580  : 			ShowNeedPeso();

  001d3	8b ce		 mov	 ecx, esi
  001d5	e8 00 00 00 00	 call	 ?ShowNeedPeso@RisingGashaponWnd@@IAEXXZ ; RisingGashaponWnd::ShowNeedPeso

; 581  : 			return;

  001da	e9 c5 02 00 00	 jmp	 $LN18@CheckBuy
$LN3@CheckBuy:

; 592  : 		StringCbCat( szPrice, sizeof( szPrice ), STR(4));

  001df	6a 04		 push	 4
$LN40@CheckBuy:
  001e1	68 00 00 00 00	 push	 OFFSET ??_C@_00CNPNBAHC@?$AA@
  001e6	68 00 00 00 00	 push	 OFFSET ??_C@_0BM@CPBICBMK@RisingGashaponWnd?3?3CheckBuy?$AA@
  001eb	ff d6		 call	 esi
  001ed	8b 3d 00 00 00
	00		 mov	 edi, DWORD PTR __imp_?GetString@ioStringManager@@QAEPADPBD0HW4FileNamePrefix@1@@Z
  001f3	8b c8		 mov	 ecx, eax
  001f5	ff d7		 call	 edi
  001f7	50		 push	 eax
  001f8	68 04 01 00 00	 push	 260			; 00000104H
  001fd	8d 85 ec fe ff
	ff		 lea	 eax, DWORD PTR _szPrice$[ebp]
  00203	50		 push	 eax
  00204	e8 00 00 00 00	 call	 ?StringCbCatA@@YGJPADIPBD@Z ; StringCbCatA

; 593  : 
; 594  : 
; 595  : 	ioComplexStringPrinter kPrinter[MAX_MSG_LIST_SIZE];

  00209	68 00 00 00 00	 push	 OFFSET ??1ioComplexStringPrinter@@QAE@XZ ; ioComplexStringPrinter::~ioComplexStringPrinter
  0020e	68 00 00 00 00	 push	 OFFSET ??0ioComplexStringPrinter@@QAE@XZ ; ioComplexStringPrinter::ioComplexStringPrinter
  00213	6a 0c		 push	 12			; 0000000cH
  00215	6a 20		 push	 32			; 00000020H
  00217	8d 85 68 fc ff
	ff		 lea	 eax, DWORD PTR _kPrinter$[ebp]
  0021d	50		 push	 eax
  0021e	e8 00 00 00 00	 call	 ??_L@YGXPAXIHP6EX0@Z1@Z

; 596  : 	kPrinter[0].SetTextStyle( TS_NORMAL );

  00223	53		 push	 ebx
  00224	8d 8d 68 fc ff
	ff		 lea	 ecx, DWORD PTR _kPrinter$[ebp]
  0022a	89 5d fc	 mov	 DWORD PTR __$EHRec$[ebp+8], ebx
  0022d	e8 00 00 00 00	 call	 ?SetTextStyle@ioComplexStringPrinter@@QAEXW4TextStyle@@@Z ; ioComplexStringPrinter::SetTextStyle

; 597  : 	kPrinter[0].SetBkColor( 0, 0, 0 );	

  00232	53		 push	 ebx
  00233	53		 push	 ebx
  00234	53		 push	 ebx
  00235	8d 8d 68 fc ff
	ff		 lea	 ecx, DWORD PTR _kPrinter$[ebp]
  0023b	e8 00 00 00 00	 call	 ?SetBkColor@ioComplexStringPrinter@@QAEXHHH@Z ; ioComplexStringPrinter::SetBkColor

; 598  : 	kPrinter[0].SetTextColor( TCT_DEFAULT_DARKGRAY );

  00240	68 3a 3a 3a ff	 push	 -12961222		; ff3a3a3aH
  00245	8d 8d 68 fc ff
	ff		 lea	 ecx, DWORD PTR _kPrinter$[ebp]
  0024b	e8 00 00 00 00	 call	 ?SetTextColor@ioComplexStringPrinter@@QAEXK@Z ; ioComplexStringPrinter::SetTextColor

; 599  : 	kPrinter[0].AddTextPiece( FONT_SIZE_13, STR(5), szName );

  00250	8d 85 e8 fd ff
	ff		 lea	 eax, DWORD PTR _szName$[ebp]
  00256	50		 push	 eax
  00257	53		 push	 ebx
  00258	6a 05		 push	 5
  0025a	68 00 00 00 00	 push	 OFFSET ??_C@_00CNPNBAHC@?$AA@
  0025f	68 00 00 00 00	 push	 OFFSET ??_C@_0BM@CPBICBMK@RisingGashaponWnd?3?3CheckBuy?$AA@
  00264	ff d6		 call	 esi
  00266	8b c8		 mov	 ecx, eax
  00268	ff d7		 call	 edi
  0026a	f3 0f 10 05 00
	00 00 00	 movss	 xmm0, DWORD PTR __real@3f266666
  00272	50		 push	 eax
  00273	51		 push	 ecx
  00274	8d 8d 68 fc ff
	ff		 lea	 ecx, DWORD PTR _kPrinter$[ebp]
  0027a	f3 0f 11 04 24	 movss	 DWORD PTR [esp], xmm0
  0027f	e8 00 00 00 00	 call	 ?AddTextPiece@ioComplexStringPrinter@@QAEXMPBD0@Z ; ioComplexStringPrinter::AddTextPiece

; 600  : 
; 601  : 	kPrinter[1].SetTextStyle( TS_NORMAL );

  00284	53		 push	 ebx
  00285	8d 8d 88 fc ff
	ff		 lea	 ecx, DWORD PTR _kPrinter$[ebp+32]
  0028b	e8 00 00 00 00	 call	 ?SetTextStyle@ioComplexStringPrinter@@QAEXW4TextStyle@@@Z ; ioComplexStringPrinter::SetTextStyle

; 602  : 	kPrinter[1].SetBkColor( 0, 0, 0 );	

  00290	53		 push	 ebx
  00291	53		 push	 ebx
  00292	53		 push	 ebx
  00293	8d 8d 88 fc ff
	ff		 lea	 ecx, DWORD PTR _kPrinter$[ebp+32]
  00299	e8 00 00 00 00	 call	 ?SetBkColor@ioComplexStringPrinter@@QAEXHHH@Z ; ioComplexStringPrinter::SetBkColor

; 603  : 	kPrinter[1].SetTextColor( TCT_DEFAULT_DARKGRAY );

  0029e	68 3a 3a 3a ff	 push	 -12961222		; ff3a3a3aH
  002a3	8d 8d 88 fc ff
	ff		 lea	 ecx, DWORD PTR _kPrinter$[ebp+32]
  002a9	e8 00 00 00 00	 call	 ?SetTextColor@ioComplexStringPrinter@@QAEXK@Z ; ioComplexStringPrinter::SetTextColor

; 604  : 	kPrinter[1].AddTextPiece( FONT_SIZE_13, STR(6), szPrice );

  002ae	8d 85 ec fe ff
	ff		 lea	 eax, DWORD PTR _szPrice$[ebp]
  002b4	50		 push	 eax
  002b5	53		 push	 ebx
  002b6	6a 06		 push	 6
  002b8	68 00 00 00 00	 push	 OFFSET ??_C@_00CNPNBAHC@?$AA@
  002bd	68 00 00 00 00	 push	 OFFSET ??_C@_0BM@CPBICBMK@RisingGashaponWnd?3?3CheckBuy?$AA@
  002c2	ff d6		 call	 esi
  002c4	8b c8		 mov	 ecx, eax
  002c6	ff d7		 call	 edi
  002c8	f3 0f 10 05 00
	00 00 00	 movss	 xmm0, DWORD PTR __real@3f266666
  002d0	50		 push	 eax
  002d1	51		 push	 ecx
  002d2	8d 8d 88 fc ff
	ff		 lea	 ecx, DWORD PTR _kPrinter$[ebp+32]
  002d8	f3 0f 11 04 24	 movss	 DWORD PTR [esp], xmm0
  002dd	e8 00 00 00 00	 call	 ?AddTextPiece@ioComplexStringPrinter@@QAEXMPBD0@Z ; ioComplexStringPrinter::AddTextPiece

; 605  : 
; 606  : 	kPrinter[2].SetTextStyle( TS_NORMAL );

  002e2	53		 push	 ebx
  002e3	8d 8d a8 fc ff
	ff		 lea	 ecx, DWORD PTR _kPrinter$[ebp+64]
  002e9	e8 00 00 00 00	 call	 ?SetTextStyle@ioComplexStringPrinter@@QAEXW4TextStyle@@@Z ; ioComplexStringPrinter::SetTextStyle

; 607  : 	kPrinter[2].SetBkColor( 0, 0, 0 );	

  002ee	53		 push	 ebx
  002ef	53		 push	 ebx
  002f0	53		 push	 ebx
  002f1	8d 8d a8 fc ff
	ff		 lea	 ecx, DWORD PTR _kPrinter$[ebp+64]
  002f7	e8 00 00 00 00	 call	 ?SetBkColor@ioComplexStringPrinter@@QAEXHHH@Z ; ioComplexStringPrinter::SetBkColor

; 608  : 	kPrinter[2].SetTextColor( TCT_DEFAULT_DARKGRAY );

  002fc	68 3a 3a 3a ff	 push	 -12961222		; ff3a3a3aH
  00301	8d 8d a8 fc ff
	ff		 lea	 ecx, DWORD PTR _kPrinter$[ebp+64]
  00307	e8 00 00 00 00	 call	 ?SetTextColor@ioComplexStringPrinter@@QAEXK@Z ; ioComplexStringPrinter::SetTextColor

; 609  : 	kPrinter[2].AddTextPiece( FONT_SIZE_13, STR(7) );

  0030c	53		 push	 ebx
  0030d	6a 07		 push	 7
  0030f	68 00 00 00 00	 push	 OFFSET ??_C@_00CNPNBAHC@?$AA@
  00314	68 00 00 00 00	 push	 OFFSET ??_C@_0BM@CPBICBMK@RisingGashaponWnd?3?3CheckBuy?$AA@
  00319	ff d6		 call	 esi
  0031b	8b c8		 mov	 ecx, eax
  0031d	ff d7		 call	 edi
  0031f	f3 0f 10 05 00
	00 00 00	 movss	 xmm0, DWORD PTR __real@3f266666
  00327	50		 push	 eax
  00328	51		 push	 ecx
  00329	8d 85 a8 fc ff
	ff		 lea	 eax, DWORD PTR _kPrinter$[ebp+64]
  0032f	f3 0f 11 04 24	 movss	 DWORD PTR [esp], xmm0
  00334	50		 push	 eax
  00335	e8 00 00 00 00	 call	 ?AddTextPiece@ioComplexStringPrinter@@QAAXMPBDZZ ; ioComplexStringPrinter::AddTextPiece
  0033a	83 c4 0c	 add	 esp, 12			; 0000000cH

; 610  : 
; 611  : 	kPrinter[3].SetTextStyle( TS_NORMAL );

  0033d	53		 push	 ebx
  0033e	8d 8d c8 fc ff
	ff		 lea	 ecx, DWORD PTR _kPrinter$[ebp+96]
  00344	e8 00 00 00 00	 call	 ?SetTextStyle@ioComplexStringPrinter@@QAEXW4TextStyle@@@Z ; ioComplexStringPrinter::SetTextStyle

; 612  : 	kPrinter[3].SetBkColor( 0, 0, 0 );	

  00349	53		 push	 ebx
  0034a	53		 push	 ebx
  0034b	53		 push	 ebx
  0034c	8d 8d c8 fc ff
	ff		 lea	 ecx, DWORD PTR _kPrinter$[ebp+96]
  00352	e8 00 00 00 00	 call	 ?SetBkColor@ioComplexStringPrinter@@QAEXHHH@Z ; ioComplexStringPrinter::SetBkColor

; 613  : 	kPrinter[3].SetTextColor( TCT_DEFAULT_DARKGRAY );

  00357	68 3a 3a 3a ff	 push	 -12961222		; ff3a3a3aH
  0035c	8d 8d c8 fc ff
	ff		 lea	 ecx, DWORD PTR _kPrinter$[ebp+96]
  00362	e8 00 00 00 00	 call	 ?SetTextColor@ioComplexStringPrinter@@QAEXK@Z ; ioComplexStringPrinter::SetTextColor

; 614  : 	kPrinter[3].AddTextPiece( FONT_SIZE_13, "                 " );

  00367	f3 0f 10 05 00
	00 00 00	 movss	 xmm0, DWORD PTR __real@3f266666
  0036f	68 00 00 00 00	 push	 OFFSET ??_C@_0BC@KELNKFGO@?5?5?5?5?5?5?5?5?5?5?5?5?5?5?5?5?5?$AA@
  00374	51		 push	 ecx
  00375	8d 85 c8 fc ff
	ff		 lea	 eax, DWORD PTR _kPrinter$[ebp+96]
  0037b	f3 0f 11 04 24	 movss	 DWORD PTR [esp], xmm0
  00380	50		 push	 eax
  00381	e8 00 00 00 00	 call	 ?AddTextPiece@ioComplexStringPrinter@@QAAXMPBDZZ ; ioComplexStringPrinter::AddTextPiece
  00386	83 c4 0c	 add	 esp, 12			; 0000000cH

; 615  : 
; 616  : 	kPrinter[4].SetTextStyle( TS_NORMAL );

  00389	53		 push	 ebx
  0038a	8d 8d e8 fc ff
	ff		 lea	 ecx, DWORD PTR _kPrinter$[ebp+128]
  00390	e8 00 00 00 00	 call	 ?SetTextStyle@ioComplexStringPrinter@@QAEXW4TextStyle@@@Z ; ioComplexStringPrinter::SetTextStyle

; 617  : 	kPrinter[4].SetBkColor( 0, 0, 0 );	

  00395	53		 push	 ebx
  00396	53		 push	 ebx
  00397	53		 push	 ebx
  00398	8d 8d e8 fc ff
	ff		 lea	 ecx, DWORD PTR _kPrinter$[ebp+128]
  0039e	e8 00 00 00 00	 call	 ?SetBkColor@ioComplexStringPrinter@@QAEXHHH@Z ; ioComplexStringPrinter::SetBkColor

; 618  : 	kPrinter[4].SetTextColor( TCT_DEFAULT_GRAY );

  003a3	68 6e 6e 6e ff	 push	 -9539986		; ff6e6e6eH
  003a8	8d 8d e8 fc ff
	ff		 lea	 ecx, DWORD PTR _kPrinter$[ebp+128]
  003ae	e8 00 00 00 00	 call	 ?SetTextColor@ioComplexStringPrinter@@QAEXK@Z ; ioComplexStringPrinter::SetTextColor

; 619  : 	kPrinter[4].AddTextPiece( FONT_SIZE_13, STR(8) );

  003b3	53		 push	 ebx
  003b4	6a 08		 push	 8
  003b6	68 00 00 00 00	 push	 OFFSET ??_C@_00CNPNBAHC@?$AA@
  003bb	68 00 00 00 00	 push	 OFFSET ??_C@_0BM@CPBICBMK@RisingGashaponWnd?3?3CheckBuy?$AA@
  003c0	ff d6		 call	 esi
  003c2	8b c8		 mov	 ecx, eax
  003c4	ff d7		 call	 edi
  003c6	f3 0f 10 05 00
	00 00 00	 movss	 xmm0, DWORD PTR __real@3f266666
  003ce	50		 push	 eax
  003cf	51		 push	 ecx
  003d0	8d 85 e8 fc ff
	ff		 lea	 eax, DWORD PTR _kPrinter$[ebp+128]
  003d6	f3 0f 11 04 24	 movss	 DWORD PTR [esp], xmm0
  003db	50		 push	 eax
  003dc	e8 00 00 00 00	 call	 ?AddTextPiece@ioComplexStringPrinter@@QAAXMPBDZZ ; ioComplexStringPrinter::AddTextPiece
  003e1	83 c4 0c	 add	 esp, 12			; 0000000cH

; 620  : 
; 621  : 	kPrinter[5].SetTextStyle( TS_NORMAL );

  003e4	53		 push	 ebx
  003e5	8d 8d 08 fd ff
	ff		 lea	 ecx, DWORD PTR _kPrinter$[ebp+160]
  003eb	e8 00 00 00 00	 call	 ?SetTextStyle@ioComplexStringPrinter@@QAEXW4TextStyle@@@Z ; ioComplexStringPrinter::SetTextStyle

; 622  : 	kPrinter[5].SetBkColor( 0, 0, 0 );	

  003f0	53		 push	 ebx
  003f1	53		 push	 ebx
  003f2	53		 push	 ebx
  003f3	8d 8d 08 fd ff
	ff		 lea	 ecx, DWORD PTR _kPrinter$[ebp+160]
  003f9	e8 00 00 00 00	 call	 ?SetBkColor@ioComplexStringPrinter@@QAEXHHH@Z ; ioComplexStringPrinter::SetBkColor

; 623  : 	kPrinter[5].SetTextColor( TCT_DEFAULT_DARKGRAY );

  003fe	68 3a 3a 3a ff	 push	 -12961222		; ff3a3a3aH
  00403	8d 8d 08 fd ff
	ff		 lea	 ecx, DWORD PTR _kPrinter$[ebp+160]
  00409	e8 00 00 00 00	 call	 ?SetTextColor@ioComplexStringPrinter@@QAEXK@Z ; ioComplexStringPrinter::SetTextColor

; 624  : 	kPrinter[5].AddTextPiece( FONT_SIZE_13, "                 " );

  0040e	f3 0f 10 05 00
	00 00 00	 movss	 xmm0, DWORD PTR __real@3f266666
  00416	68 00 00 00 00	 push	 OFFSET ??_C@_0BC@KELNKFGO@?5?5?5?5?5?5?5?5?5?5?5?5?5?5?5?5?5?$AA@
  0041b	51		 push	 ecx
  0041c	8d 85 08 fd ff
	ff		 lea	 eax, DWORD PTR _kPrinter$[ebp+160]
  00422	f3 0f 11 04 24	 movss	 DWORD PTR [esp], xmm0
  00427	50		 push	 eax
  00428	e8 00 00 00 00	 call	 ?AddTextPiece@ioComplexStringPrinter@@QAAXMPBDZZ ; ioComplexStringPrinter::AddTextPiece
  0042d	83 c4 0c	 add	 esp, 12			; 0000000cH

; 625  : 
; 626  : 	NewShopBuyConfirmWnd *pBuyMsgWnd = ( NewShopBuyConfirmWnd* )( g_GUIMgr.FindWnd( NEWSHOP_BUY_CONFIRM_WND ) ); 

  00430	68 9c 17 00 00	 push	 6044			; 0000179cH
  00435	e8 00 00 00 00	 call	 ?GetSingleton@ioSP2GUIManager@@SAAAV1@XZ ; ioSP2GUIManager::GetSingleton
  0043a	8b c8		 mov	 ecx, eax
  0043c	ff 15 00 00 00
	00		 call	 DWORD PTR __imp_?FindWnd@ioGUIManager@@QAEPAVioWnd@@K@Z

; 627  : 	if( pBuyMsgWnd )

  00442	3b c3		 cmp	 eax, ebx
  00444	74 15		 je	 SHORT $LN1@CheckBuy

; 628  : 		pBuyMsgWnd->SetPrintMessage( this, kPrinter, SUBSCRIPTION_NONE );

  00446	53		 push	 ebx
  00447	8d 8d 68 fc ff
	ff		 lea	 ecx, DWORD PTR _kPrinter$[ebp]
  0044d	51		 push	 ecx
  0044e	ff b5 60 fc ff
	ff		 push	 DWORD PTR _this$GSCopy$[ebp]
  00454	8b c8		 mov	 ecx, eax
  00456	e8 00 00 00 00	 call	 ?SetPrintMessage@NewShopBuyConfirmWnd@@QAEXPAVioWnd@@PAVioComplexStringPrinter@@H@Z ; NewShopBuyConfirmWnd::SetPrintMessage
$LN1@CheckBuy:

; 629  : }

  0045b	83 4d fc ff	 or	 DWORD PTR __$EHRec$[ebp+8], -1
  0045f	68 00 00 00 00	 push	 OFFSET ??1ioComplexStringPrinter@@QAE@XZ ; ioComplexStringPrinter::~ioComplexStringPrinter
  00464	6a 0c		 push	 12			; 0000000cH
  00466	6a 20		 push	 32			; 00000020H
  00468	8d 85 68 fc ff
	ff		 lea	 eax, DWORD PTR _kPrinter$[ebp]
  0046e	50		 push	 eax
  0046f	e8 00 00 00 00	 call	 ??_M@YGXPAXIHP6EX0@Z@Z
  00474	eb 2e		 jmp	 SHORT $LN18@CheckBuy
$LN14@CheckBuy:

; 531  : 	{
; 532  : 		g_GUIMgr.SetMsgBox( MB_OK, NULL, STR(1) );

  00476	33 db		 xor	 ebx, ebx
  00478	53		 push	 ebx
  00479	6a 01		 push	 1
$LN39@CheckBuy:
  0047b	68 00 00 00 00	 push	 OFFSET ??_C@_00CNPNBAHC@?$AA@
  00480	68 00 00 00 00	 push	 OFFSET ??_C@_0BM@CPBICBMK@RisingGashaponWnd?3?3CheckBuy?$AA@
  00485	ff 15 00 00 00
	00		 call	 DWORD PTR __imp_?GetSingleton@ioStringManager@@SAAAV1@XZ
  0048b	8b c8		 mov	 ecx, eax
  0048d	ff 15 00 00 00
	00		 call	 DWORD PTR __imp_?GetString@ioStringManager@@QAEPADPBD0HW4FileNamePrefix@1@@Z
  00493	50		 push	 eax
  00494	53		 push	 ebx
  00495	53		 push	 ebx
  00496	e8 00 00 00 00	 call	 ?GetSingleton@ioSP2GUIManager@@SAAAV1@XZ ; ioSP2GUIManager::GetSingleton
  0049b	50		 push	 eax
  0049c	e8 00 00 00 00	 call	 ?SetMsgBox@ioSP2GUIManager@@QAAXHPAVioWnd@@PBDZZ ; ioSP2GUIManager::SetMsgBox
  004a1	83 c4 10	 add	 esp, 16			; 00000010H
$LN18@CheckBuy:

; 629  : }

  004a4	e8 00 00 00 00	 call	 __EH_epilog3_GS
  004a9	c3		 ret	 0
_TEXT	ENDS
;	COMDAT text$x
text$x	SEGMENT
__unwindfunclet$?CheckBuy@RisingGashaponWnd@@IAEXXZ$0:
  00000	68 00 00 00 00	 push	 OFFSET ??1ioComplexStringPrinter@@QAE@XZ ; ioComplexStringPrinter::~ioComplexStringPrinter
  00005	6a 0c		 push	 12			; 0000000cH
  00007	6a 20		 push	 32			; 00000020H
  00009	8d 85 68 fc ff
	ff		 lea	 eax, DWORD PTR _kPrinter$[ebp]
  0000f	50		 push	 eax
  00010	e8 00 00 00 00	 call	 ??_M@YGXPAXIHP6EX0@Z@Z
  00015	c3		 ret	 0
__ehhandler$?CheckBuy@RisingGashaponWnd@@IAEXXZ:
  00016	8b 54 24 08	 mov	 edx, DWORD PTR [esp+8]
  0001a	8d 42 0c	 lea	 eax, DWORD PTR [edx+12]
  0001d	8b 8a 54 fc ff
	ff		 mov	 ecx, DWORD PTR [edx-940]
  00023	33 c8		 xor	 ecx, eax
  00025	e8 00 00 00 00	 call	 @__security_check_cookie@4
  0002a	8b 4a fc	 mov	 ecx, DWORD PTR [edx-4]
  0002d	33 c8		 xor	 ecx, eax
  0002f	e8 00 00 00 00	 call	 @__security_check_cookie@4
  00034	b8 00 00 00 00	 mov	 eax, OFFSET __ehfuncinfo$?CheckBuy@RisingGashaponWnd@@IAEXXZ
  00039	e9 00 00 00 00	 jmp	 ___CxxFrameHandler3
text$x	ENDS
?CheckBuy@RisingGashaponWnd@@IAEXXZ ENDP		; RisingGashaponWnd::CheckBuy
PUBLIC	?erase@?$vector@HV?$allocator@H@std@@@std@@QAE?AV?$_Vector_iterator@V?$_Vector_val@HV?$allocator@H@std@@@std@@@2@V?$_Vector_const_iterator@V?$_Vector_val@HV?$allocator@H@std@@@std@@@2@@Z ; std::vector<int,std::allocator<int> >::erase
; Function compile flags: /Ogsp
; File c:\program files (x86)\microsoft visual studio 10.0\vc\include\vector
;	COMDAT ?erase@?$vector@HV?$allocator@H@std@@@std@@QAE?AV?$_Vector_iterator@V?$_Vector_val@HV?$allocator@H@std@@@std@@@2@V?$_Vector_const_iterator@V?$_Vector_val@HV?$allocator@H@std@@@std@@@2@@Z
_TEXT	SEGMENT
___$ReturnUdt$ = 8					; size = 4
__Cat$521084 = 12					; size = 1
__Where$ = 12						; size = 4
?erase@?$vector@HV?$allocator@H@std@@@std@@QAE?AV?$_Vector_iterator@V?$_Vector_val@HV?$allocator@H@std@@@std@@@2@V?$_Vector_const_iterator@V?$_Vector_val@HV?$allocator@H@std@@@std@@@2@@Z PROC ; std::vector<int,std::allocator<int> >::erase, COMDAT
; _this$ = ecx

; 1179 : 		{	// erase element at where

  00000	55		 push	 ebp
  00001	8b ec		 mov	 ebp, esp

; 1180 : 		_Move(_VIPTR(_Where) + 1, this->_Mylast,
; 1181 : 			_VIPTR(_Where));

  00003	8b 45 0c	 mov	 eax, DWORD PTR __Where$[ebp]
  00006	56		 push	 esi
  00007	ff 75 0c	 push	 DWORD PTR __Cat$521084[ebp]
  0000a	8b f1		 mov	 esi, ecx
  0000c	50		 push	 eax
  0000d	ff 76 04	 push	 DWORD PTR [esi+4]
  00010	83 c0 04	 add	 eax, 4
  00013	50		 push	 eax
  00014	e8 00 00 00 00	 call	 ??$_Move@PAHPAH@std@@YAPAHPAH00U_Scalar_ptr_iterator_tag@0@@Z ; std::_Move<int *,int *>

; 1182 : 		_Destroy(this->_Mylast - 1, this->_Mylast);
; 1183 : 		--this->_Mylast;
; 1184 : 		return (_Make_iter(_Where));

  00019	8b 45 08	 mov	 eax, DWORD PTR ___$ReturnUdt$[ebp]
  0001c	8b 4d 0c	 mov	 ecx, DWORD PTR __Where$[ebp]
  0001f	83 c4 10	 add	 esp, 16			; 00000010H
  00022	83 46 04 fc	 add	 DWORD PTR [esi+4], -4	; fffffffcH
  00026	89 08		 mov	 DWORD PTR [eax], ecx
  00028	5e		 pop	 esi

; 1185 : 		}

  00029	5d		 pop	 ebp
  0002a	c2 08 00	 ret	 8
?erase@?$vector@HV?$allocator@H@std@@@std@@QAE?AV?$_Vector_iterator@V?$_Vector_val@HV?$allocator@H@std@@@std@@@2@V?$_Vector_const_iterator@V?$_Vector_val@HV?$allocator@H@std@@@std@@@2@@Z ENDP ; std::vector<int,std::allocator<int> >::erase
_TEXT	ENDS
PUBLIC	??$?8V?$_Vector_iterator@V?$_Vector_val@HV?$allocator@H@std@@@std@@@std@@V01@@std@@YA_NABV?$reverse_iterator@V?$_Vector_iterator@V?$_Vector_val@HV?$allocator@H@std@@@std@@@std@@@0@0@Z ; std::operator==<std::_Vector_iterator<std::_Vector_val<int,std::allocator<int> > >,std::_Vector_iterator<std::_Vector_val<int,std::allocator<int> > > >
; Function compile flags: /Ogsp
; File c:\program files (x86)\microsoft visual studio 10.0\vc\include\xutility
;	COMDAT ??$?8V?$_Vector_iterator@V?$_Vector_val@HV?$allocator@H@std@@@std@@@std@@V01@@std@@YA_NABV?$reverse_iterator@V?$_Vector_iterator@V?$_Vector_val@HV?$allocator@H@std@@@std@@@std@@@0@0@Z
_TEXT	SEGMENT
__Left$ = 8						; size = 4
__Right$ = 12						; size = 4
??$?8V?$_Vector_iterator@V?$_Vector_val@HV?$allocator@H@std@@@std@@@std@@V01@@std@@YA_NABV?$reverse_iterator@V?$_Vector_iterator@V?$_Vector_val@HV?$allocator@H@std@@@std@@@std@@@0@0@Z PROC ; std::operator==<std::_Vector_iterator<std::_Vector_val<int,std::allocator<int> > >,std::_Vector_iterator<std::_Vector_val<int,std::allocator<int> > > >, COMDAT

; 1342 : 	{	// test for reverse_iterator equality

  00000	55		 push	 ebp
  00001	8b ec		 mov	 ebp, esp

; 1343 : 	return (_Left._Equal(_Right));

  00003	8b 45 0c	 mov	 eax, DWORD PTR __Right$[ebp]
  00006	8b 00		 mov	 eax, DWORD PTR [eax]
  00008	8b 55 08	 mov	 edx, DWORD PTR __Left$[ebp]
  0000b	33 c9		 xor	 ecx, ecx
  0000d	39 02		 cmp	 DWORD PTR [edx], eax
  0000f	0f 94 c0	 sete	 al

; 1344 : 	}

  00012	5d		 pop	 ebp
  00013	c3		 ret	 0
??$?8V?$_Vector_iterator@V?$_Vector_val@HV?$allocator@H@std@@@std@@@std@@V01@@std@@YA_NABV?$reverse_iterator@V?$_Vector_iterator@V?$_Vector_val@HV?$allocator@H@std@@@std@@@std@@@0@0@Z ENDP ; std::operator==<std::_Vector_iterator<std::_Vector_val<int,std::allocator<int> > >,std::_Vector_iterator<std::_Vector_val<int,std::allocator<int> > > >
_TEXT	ENDS
PUBLIC	??$_Random_shuffle@PAHH@std@@YAXPAH00@Z		; std::_Random_shuffle<int *,int>
EXTRN	__imp__rand:PROC
; Function compile flags: /Ogsp
; File c:\program files (x86)\microsoft visual studio 10.0\vc\include\algorithm
;	COMDAT ??$_Random_shuffle@PAHH@std@@YAXPAH00@Z
_TEXT	SEGMENT
__Rm$516203 = -8					; size = 4
__Index$516199 = -4					; size = 4
__First$ = 8						; size = 4
__Last$ = 12						; size = 4
___formal$ = 16						; size = 4
??$_Random_shuffle@PAHH@std@@YAXPAH00@Z PROC		; std::_Random_shuffle<int *,int>, COMDAT

; 2214 : 	{	// shuffle [_First, _Last)

  00000	55		 push	 ebp
  00001	8b ec		 mov	 ebp, esp
  00003	51		 push	 ecx
  00004	51		 push	 ecx
  00005	57		 push	 edi

; 2215 : 	const int _RANDOM_BITS = 15;	// minimum random bits from rand()
; 2216 : 	const int _RANDOM_MAX = (1U << _RANDOM_BITS) - 1;
; 2217 : 
; 2218 : 	_RanIt _Next = _First;
; 2219 : 	for (unsigned long _Index = 2; ++_Next != _Last; ++_Index)

  00006	8b 7d 08	 mov	 edi, DWORD PTR __First$[ebp]
  00009	83 c7 04	 add	 edi, 4
  0000c	c7 45 fc 02 00
	00 00		 mov	 DWORD PTR __Index$516199[ebp], 2
  00013	3b 7d 0c	 cmp	 edi, DWORD PTR __Last$[ebp]
  00016	74 5e		 je	 SHORT $LN4@Random_shu
  00018	53		 push	 ebx
  00019	56		 push	 esi
  0001a	be ff 7f 00 00	 mov	 esi, 32767		; 00007fffH
$LL6@Random_shu:

; 2220 : 		{	// assume unsigned long big enough for _Diff count
; 2221 : 		unsigned long _Rm = _RANDOM_MAX;

  0001f	89 75 f8	 mov	 DWORD PTR __Rm$516203[ebp], esi

; 2222 : 		unsigned long _Rn = _CSTD rand() & _RANDOM_MAX;

  00022	ff 15 00 00 00
	00		 call	 DWORD PTR __imp__rand
  00028	8b d8		 mov	 ebx, eax
  0002a	23 de		 and	 ebx, esi

; 2223 : 		for (; _Rm < _Index && _Rm != ~0UL;
; 2224 : 			_Rm = _Rm << _RANDOM_BITS | _RANDOM_MAX)

  0002c	39 75 fc	 cmp	 DWORD PTR __Index$516199[ebp], esi
  0002f	76 23		 jbe	 SHORT $LN1@Random_shu
$LL23@Random_shu:
  00031	83 7d f8 ff	 cmp	 DWORD PTR __Rm$516203[ebp], -1
  00035	74 1d		 je	 SHORT $LN1@Random_shu

; 2225 : 			_Rn = _Rn << _RANDOM_BITS
; 2226 : 				| (_CSTD rand() & _RANDOM_MAX);	// build random value

  00037	ff 15 00 00 00
	00		 call	 DWORD PTR __imp__rand
  0003d	23 c6		 and	 eax, esi
  0003f	c1 e3 0f	 shl	 ebx, 15			; 0000000fH
  00042	0b d8		 or	 ebx, eax
  00044	8b 45 f8	 mov	 eax, DWORD PTR __Rm$516203[ebp]
  00047	c1 e0 0f	 shl	 eax, 15			; 0000000fH
  0004a	0b c6		 or	 eax, esi
  0004c	89 45 f8	 mov	 DWORD PTR __Rm$516203[ebp], eax
  0004f	3b 45 fc	 cmp	 eax, DWORD PTR __Index$516199[ebp]
  00052	72 dd		 jb	 SHORT $LL23@Random_shu
$LN1@Random_shu:

; 2227 : 
; 2228 : 		_STD iter_swap(_Next, _First + _Diff(_Rn % _Index));	// swap a pair

  00054	33 d2		 xor	 edx, edx
  00056	8b c3		 mov	 eax, ebx
  00058	f7 75 fc	 div	 DWORD PTR __Index$516199[ebp]
  0005b	8b 45 08	 mov	 eax, DWORD PTR __First$[ebp]
  0005e	8b 0f		 mov	 ecx, DWORD PTR [edi]
  00060	ff 45 fc	 inc	 DWORD PTR __Index$516199[ebp]
  00063	8d 04 90	 lea	 eax, DWORD PTR [eax+edx*4]
  00066	8b 10		 mov	 edx, DWORD PTR [eax]
  00068	89 17		 mov	 DWORD PTR [edi], edx
  0006a	83 c7 04	 add	 edi, 4
  0006d	89 08		 mov	 DWORD PTR [eax], ecx
  0006f	3b 7d 0c	 cmp	 edi, DWORD PTR __Last$[ebp]
  00072	75 ab		 jne	 SHORT $LL6@Random_shu
  00074	5e		 pop	 esi
  00075	5b		 pop	 ebx
$LN4@Random_shu:
  00076	5f		 pop	 edi

; 2229 : 		}
; 2230 : 	}

  00077	c9		 leave
  00078	c3		 ret	 0
??$_Random_shuffle@PAHH@std@@YAXPAH00@Z ENDP		; std::_Random_shuffle<int *,int>
_TEXT	ENDS
PUBLIC	??1?$basic_string@DU?$char_traits@D@std@@V?$allocator@D@2@@std@@QAE@XZ ; std::basic_string<char,std::char_traits<char>,std::allocator<char> >::~basic_string<char,std::char_traits<char>,std::allocator<char> >
; Function compile flags: /Ogsp
; File c:\program files (x86)\microsoft visual studio 10.0\vc\include\xstring
;	COMDAT ??1?$basic_string@DU?$char_traits@D@std@@V?$allocator@D@2@@std@@QAE@XZ
_TEXT	SEGMENT
??1?$basic_string@DU?$char_traits@D@std@@V?$allocator@D@2@@std@@QAE@XZ PROC ; std::basic_string<char,std::char_traits<char>,std::allocator<char> >::~basic_string<char,std::char_traits<char>,std::allocator<char> >, COMDAT
; _this$ = ecx

; 754  : 		_Tidy(true);

  00000	6a 00		 push	 0
  00002	6a 01		 push	 1
  00004	e8 00 00 00 00	 call	 ?_Tidy@?$basic_string@DU?$char_traits@D@std@@V?$allocator@D@2@@std@@QAEX_NI@Z ; std::basic_string<char,std::char_traits<char>,std::allocator<char> >::_Tidy

; 755  : 		}

  00009	c3		 ret	 0
??1?$basic_string@DU?$char_traits@D@std@@V?$allocator@D@2@@std@@QAE@XZ ENDP ; std::basic_string<char,std::char_traits<char>,std::allocator<char> >::~basic_string<char,std::char_traits<char>,std::allocator<char> >
_TEXT	ENDS
PUBLIC	?erase@?$vector@HV?$allocator@H@std@@@std@@QAE?AV?$_Vector_iterator@V?$_Vector_val@HV?$allocator@H@std@@@std@@@2@V?$_Vector_const_iterator@V?$_Vector_val@HV?$allocator@H@std@@@std@@@2@0@Z ; std::vector<int,std::allocator<int> >::erase
; Function compile flags: /Ogsp
; File c:\program files (x86)\microsoft visual studio 10.0\vc\include\vector
;	COMDAT ?erase@?$vector@HV?$allocator@H@std@@@std@@QAE?AV?$_Vector_iterator@V?$_Vector_val@HV?$allocator@H@std@@@std@@@2@V?$_Vector_const_iterator@V?$_Vector_val@HV?$allocator@H@std@@@std@@@2@0@Z
_TEXT	SEGMENT
___$ReturnUdt$ = 8					; size = 4
__First_arg$ = 12					; size = 4
__Cat$521283 = 16					; size = 1
__Last_arg$ = 16					; size = 4
?erase@?$vector@HV?$allocator@H@std@@@std@@QAE?AV?$_Vector_iterator@V?$_Vector_val@HV?$allocator@H@std@@@std@@@2@V?$_Vector_const_iterator@V?$_Vector_val@HV?$allocator@H@std@@@std@@@2@0@Z PROC ; std::vector<int,std::allocator<int> >::erase, COMDAT
; _this$ = ecx

; 1190 : 		{	// erase [_First, _Last)

  00000	55		 push	 ebp
  00001	8b ec		 mov	 ebp, esp

; 1191 : 		iterator _First = _Make_iter(_First_arg);

  00003	8b 45 0c	 mov	 eax, DWORD PTR __First_arg$[ebp]
  00006	56		 push	 esi
  00007	57		 push	 edi
  00008	8b 7d 08	 mov	 edi, DWORD PTR ___$ReturnUdt$[ebp]
  0000b	8b f1		 mov	 esi, ecx
  0000d	89 07		 mov	 DWORD PTR [edi], eax

; 1192 : 		iterator _Last = _Make_iter(_Last_arg);
; 1193 : 
; 1194 : 		if (_First != _Last)

  0000f	3b 45 10	 cmp	 eax, DWORD PTR __Last_arg$[ebp]
  00012	74 16		 je	 SHORT $LN1@erase@2

; 1195 : 			{	// worth doing, copy down over hole
; 1196 :  #if _ITERATOR_DEBUG_LEVEL == 2
; 1197 : 			if (_Last < _First || _VICONT(_First) != this
; 1198 : 				|| _VIPTR(_First) < this->_Myfirst
; 1199 : 				|| this->_Mylast < _VIPTR(_Last))
; 1200 : 				_DEBUG_ERROR("vector erase iterator outside range");
; 1201 : 			pointer _Ptr = _Move(_VIPTR(_Last), this->_Mylast,
; 1202 : 				_VIPTR(_First));
; 1203 : 			_Orphan_range(_VIPTR(_First), this->_Mylast);
; 1204 : 
; 1205 :  #else /* _ITERATOR_DEBUG_LEVEL == 2 */
; 1206 : 			pointer _Ptr = _Move(_VIPTR(_Last), this->_Mylast,
; 1207 : 				_VIPTR(_First));

  00014	ff 75 10	 push	 DWORD PTR __Cat$521283[ebp]
  00017	8b 4e 04	 mov	 ecx, DWORD PTR [esi+4]
  0001a	50		 push	 eax
  0001b	51		 push	 ecx
  0001c	ff 75 10	 push	 DWORD PTR __Last_arg$[ebp]
  0001f	e8 00 00 00 00	 call	 ??$_Move@PAHPAH@std@@YAPAHPAH00U_Scalar_ptr_iterator_tag@0@@Z ; std::_Move<int *,int *>
  00024	83 c4 10	 add	 esp, 16			; 00000010H

; 1208 :  #endif /* _ITERATOR_DEBUG_LEVEL == 2 */
; 1209 : 
; 1210 : 			_Destroy(_Ptr, this->_Mylast);
; 1211 : 			this->_Mylast = _Ptr;

  00027	89 46 04	 mov	 DWORD PTR [esi+4], eax
$LN1@erase@2:

; 1212 : 			}
; 1213 : 		return (_First);

  0002a	8b c7		 mov	 eax, edi
  0002c	5f		 pop	 edi
  0002d	5e		 pop	 esi

; 1214 : 		}

  0002e	5d		 pop	 ebp
  0002f	c2 0c 00	 ret	 12			; 0000000cH
?erase@?$vector@HV?$allocator@H@std@@@std@@QAE?AV?$_Vector_iterator@V?$_Vector_val@HV?$allocator@H@std@@@std@@@2@V?$_Vector_const_iterator@V?$_Vector_val@HV?$allocator@H@std@@@std@@@2@0@Z ENDP ; std::vector<int,std::allocator<int> >::erase
_TEXT	ENDS
PUBLIC	?_Tidy@?$vector@HV?$allocator@H@std@@@std@@IAEXXZ ; std::vector<int,std::allocator<int> >::_Tidy
EXTRN	__imp_?_Orphan_all@_Container_base0@std@@QAEXXZ:PROC
; Function compile flags: /Ogsp
;	COMDAT ?_Tidy@?$vector@HV?$allocator@H@std@@@std@@IAEXXZ
_TEXT	SEGMENT
?_Tidy@?$vector@HV?$allocator@H@std@@@std@@IAEXXZ PROC	; std::vector<int,std::allocator<int> >::_Tidy, COMDAT
; _this$ = ecx

; 1301 : 		{	// free all storage

  00000	56		 push	 esi
  00001	8b f1		 mov	 esi, ecx

; 1302 : 		if (this->_Myfirst != 0)

  00003	83 3e 00	 cmp	 DWORD PTR [esi], 0
  00006	74 0e		 je	 SHORT $LN12@Tidy@2

; 1303 : 			{	// something to free, destroy and deallocate it
; 1304 : 			this->_Orphan_all();

  00008	ff 15 00 00 00
	00		 call	 DWORD PTR __imp_?_Orphan_all@_Container_base0@std@@QAEXXZ

; 1305 : 			_Destroy(this->_Myfirst, this->_Mylast);
; 1306 : 			this->_Alval.deallocate(this->_Myfirst,
; 1307 : 				this->_Myend - this->_Myfirst);

  0000e	ff 36		 push	 DWORD PTR [esi]
  00010	e8 00 00 00 00	 call	 ??3@YAXPAX@Z		; operator delete
  00015	59		 pop	 ecx
$LN12@Tidy@2:

; 1308 : 			}
; 1309 : 		this->_Myfirst = 0;

  00016	83 26 00	 and	 DWORD PTR [esi], 0

; 1310 : 		this->_Mylast = 0;

  00019	83 66 04 00	 and	 DWORD PTR [esi+4], 0

; 1311 : 		this->_Myend = 0;

  0001d	83 66 08 00	 and	 DWORD PTR [esi+8], 0
  00021	5e		 pop	 esi

; 1312 : 		}

  00022	c3		 ret	 0
?_Tidy@?$vector@HV?$allocator@H@std@@@std@@IAEXXZ ENDP	; std::vector<int,std::allocator<int> >::_Tidy
_TEXT	ENDS
PUBLIC	?_Grow@?$basic_string@DU?$char_traits@D@std@@V?$allocator@D@2@@std@@QAE_NI_N@Z ; std::basic_string<char,std::char_traits<char>,std::allocator<char> >::_Grow
; Function compile flags: /Ogsp
; File c:\program files (x86)\microsoft visual studio 10.0\vc\include\xstring
;	COMDAT ?_Grow@?$basic_string@DU?$char_traits@D@std@@V?$allocator@D@2@@std@@QAE_NI_N@Z
_TEXT	SEGMENT
__Newsize$ = 8						; size = 4
__Trim$ = 12						; size = 1
?_Grow@?$basic_string@DU?$char_traits@D@std@@V?$allocator@D@2@@std@@QAE_NI_N@Z PROC ; std::basic_string<char,std::char_traits<char>,std::allocator<char> >::_Grow, COMDAT
; _this$ = ecx

; 1959 : 		{	// ensure buffer is big enough, trim to size if _Trim is true

  00000	55		 push	 ebp
  00001	8b ec		 mov	 ebp, esp
  00003	56		 push	 esi

; 1960 : 		if (max_size() < _Newsize)

  00004	8b 75 08	 mov	 esi, DWORD PTR __Newsize$[ebp]
  00007	83 fe fe	 cmp	 esi, -2			; fffffffeH
  0000a	76 0b		 jbe	 SHORT $LN6@Grow

; 1961 : 			_Xlen();	// result too long

  0000c	68 00 00 00 00	 push	 OFFSET ??_C@_0BA@JFNIOLAK@string?5too?5long?$AA@
  00011	ff 15 00 00 00
	00		 call	 DWORD PTR __imp_?_Xlength_error@std@@YAXPBD@Z
$LN31@Grow:
$LN6@Grow:

; 1962 : 		if (this->_Myres < _Newsize)

  00017	8b 41 14	 mov	 eax, DWORD PTR [ecx+20]
  0001a	3b c6		 cmp	 eax, esi
  0001c	73 0b		 jae	 SHORT $LN5@Grow

; 1963 : 			_Copy(_Newsize, this->_Mysize);	// reallocate to grow

  0001e	ff 71 10	 push	 DWORD PTR [ecx+16]
  00021	56		 push	 esi
  00022	e8 00 00 00 00	 call	 ?_Copy@?$basic_string@DU?$char_traits@D@std@@V?$allocator@D@2@@std@@QAEXII@Z ; std::basic_string<char,std::char_traits<char>,std::allocator<char> >::_Copy
  00027	eb 2e		 jmp	 SHORT $LN28@Grow
$LN5@Grow:

; 1964 : 		else if (_Trim && _Newsize < this->_BUF_SIZE)

  00029	33 d2		 xor	 edx, edx
  0002b	38 55 0c	 cmp	 BYTE PTR __Trim$[ebp], dl
  0002e	74 17		 je	 SHORT $LN3@Grow
  00030	83 fe 10	 cmp	 esi, 16			; 00000010H
  00033	73 12		 jae	 SHORT $LN3@Grow

; 1965 : 			_Tidy(true,	// copy and deallocate if trimming to small string
; 1966 : 				_Newsize < this->_Mysize ? _Newsize : this->_Mysize);

  00035	8b 41 10	 mov	 eax, DWORD PTR [ecx+16]
  00038	3b f0		 cmp	 esi, eax
  0003a	0f 42 c6	 cmovb	 eax, esi
  0003d	50		 push	 eax
  0003e	6a 01		 push	 1
  00040	e8 00 00 00 00	 call	 ?_Tidy@?$basic_string@DU?$char_traits@D@std@@V?$allocator@D@2@@std@@QAEX_NI@Z ; std::basic_string<char,std::char_traits<char>,std::allocator<char> >::_Tidy
  00045	eb 10		 jmp	 SHORT $LN28@Grow
$LN3@Grow:

; 1967 : 		else if (_Newsize == 0)

  00047	3b f2		 cmp	 esi, edx
  00049	75 0c		 jne	 SHORT $LN28@Grow

; 1968 : 			_Eos(0);	// new size is zero, just null terminate

  0004b	89 51 10	 mov	 DWORD PTR [ecx+16], edx
  0004e	83 f8 10	 cmp	 eax, 16			; 00000010H
  00051	72 02		 jb	 SHORT $LN26@Grow
  00053	8b 09		 mov	 ecx, DWORD PTR [ecx]
$LN26@Grow:
  00055	88 11		 mov	 BYTE PTR [ecx], dl
$LN28@Grow:

; 1969 : 		return (0 < _Newsize);	// return true only if more work to do

  00057	33 c0		 xor	 eax, eax
  00059	3b c6		 cmp	 eax, esi
  0005b	1b c0		 sbb	 eax, eax
  0005d	f7 d8		 neg	 eax
  0005f	5e		 pop	 esi

; 1970 : 		}

  00060	5d		 pop	 ebp
  00061	c2 08 00	 ret	 8
$LN30@Grow:
?_Grow@?$basic_string@DU?$char_traits@D@std@@V?$allocator@D@2@@std@@QAE_NI_N@Z ENDP ; std::basic_string<char,std::char_traits<char>,std::allocator<char> >::_Grow
_TEXT	ENDS
PUBLIC	?reserve@?$vector@HV?$allocator@H@std@@@std@@QAEXI@Z ; std::vector<int,std::allocator<int> >::reserve
; Function compile flags: /Ogsp
; File c:\program files (x86)\microsoft visual studio 10.0\vc\include\vector
;	COMDAT ?reserve@?$vector@HV?$allocator@H@std@@@std@@QAEXI@Z
_TEXT	SEGMENT
__Count$ = 8						; size = 4
?reserve@?$vector@HV?$allocator@H@std@@@std@@QAEXI@Z PROC ; std::vector<int,std::allocator<int> >::reserve, COMDAT
; _this$ = ecx

; 746  : 		{	// determine new minimum length of allocated storage

  00000	55		 push	 ebp
  00001	8b ec		 mov	 ebp, esp

; 747  : 		if (max_size() < _Count)

  00003	81 7d 08 ff ff
	ff 3f		 cmp	 DWORD PTR __Count$[ebp], 1073741823 ; 3fffffffH
  0000a	56		 push	 esi
  0000b	8b f1		 mov	 esi, ecx
  0000d	76 0b		 jbe	 SHORT $LN5@reserve

; 748  : 			_Xlen();	// result too long

  0000f	68 00 00 00 00	 push	 OFFSET ??_C@_0BD@OLBABOEK@vector?$DMT?$DO?5too?5long?$AA@
  00014	ff 15 00 00 00
	00		 call	 DWORD PTR __imp_?_Xlength_error@std@@YAXPBD@Z
$LN43@reserve:
$LN5@reserve:

; 749  : 		else if (capacity() < _Count)

  0001a	8b 46 08	 mov	 eax, DWORD PTR [esi+8]
  0001d	2b 06		 sub	 eax, DWORD PTR [esi]
  0001f	c1 f8 02	 sar	 eax, 2
  00022	3b 45 08	 cmp	 eax, DWORD PTR __Count$[ebp]
  00025	73 52		 jae	 SHORT $LN3@reserve

; 750  : 			{	// not enough room, reallocate
; 751  : 			pointer _Ptr = this->_Alval.allocate(_Count);

  00027	53		 push	 ebx
  00028	57		 push	 edi
  00029	6a 00		 push	 0
  0002b	ff 75 08	 push	 DWORD PTR __Count$[ebp]
  0002e	e8 00 00 00 00	 call	 ??$_Allocate@H@std@@YAPAHIPAH@Z ; std::_Allocate<int>

; 752  : 
; 753  : 			_TRY_BEGIN
; 754  : 			_Umove(this->_Myfirst, this->_Mylast, _Ptr);

  00033	8b 0e		 mov	 ecx, DWORD PTR [esi]
  00035	8d 56 0c	 lea	 edx, DWORD PTR [esi+12]
  00038	52		 push	 edx
  00039	8b d8		 mov	 ebx, eax
  0003b	8b 46 04	 mov	 eax, DWORD PTR [esi+4]
  0003e	53		 push	 ebx
  0003f	50		 push	 eax
  00040	51		 push	 ecx
  00041	e8 00 00 00 00	 call	 ??$_Uninitialized_move@PAHPAHV?$allocator@H@std@@@std@@YAPAHPAH00AAV?$allocator@H@0@@Z ; std::_Uninitialized_move<int *,int *,std::allocator<int> >

; 755  : 			_CATCH_ALL
; 756  : 			this->_Alval.deallocate(_Ptr, _Count);
; 757  : 			_RERAISE;
; 758  : 			_CATCH_END
; 759  : 
; 760  : 			size_type _Size = size();

  00046	8b 06		 mov	 eax, DWORD PTR [esi]
  00048	8b 7e 04	 mov	 edi, DWORD PTR [esi+4]
  0004b	2b f8		 sub	 edi, eax
  0004d	83 c4 18	 add	 esp, 24			; 00000018H
  00050	c1 ff 02	 sar	 edi, 2

; 761  : 			if (this->_Myfirst != 0)

  00053	85 c0		 test	 eax, eax
  00055	74 07		 je	 SHORT $LN39@reserve

; 762  : 				{	// destroy and deallocate old array
; 763  : 				_Destroy(this->_Myfirst, this->_Mylast);
; 764  : 				this->_Alval.deallocate(this->_Myfirst,
; 765  : 					this->_Myend - this->_Myfirst);

  00057	50		 push	 eax
  00058	e8 00 00 00 00	 call	 ??3@YAXPAX@Z		; operator delete
  0005d	59		 pop	 ecx
$LN39@reserve:

; 766  : 				}
; 767  : 
; 768  : 			this->_Orphan_all();

  0005e	8b ce		 mov	 ecx, esi
  00060	ff 15 00 00 00
	00		 call	 DWORD PTR __imp_?_Orphan_all@_Container_base0@std@@QAEXXZ

; 769  : 			this->_Myend = _Ptr + _Count;

  00066	8b 45 08	 mov	 eax, DWORD PTR __Count$[ebp]
  00069	8d 04 83	 lea	 eax, DWORD PTR [ebx+eax*4]
  0006c	89 46 08	 mov	 DWORD PTR [esi+8], eax

; 770  : 			this->_Mylast = _Ptr + _Size;

  0006f	8d 04 bb	 lea	 eax, DWORD PTR [ebx+edi*4]
  00072	5f		 pop	 edi

; 771  : 			this->_Myfirst = _Ptr;

  00073	89 1e		 mov	 DWORD PTR [esi], ebx
  00075	89 46 04	 mov	 DWORD PTR [esi+4], eax
  00078	5b		 pop	 ebx
$LN3@reserve:
  00079	5e		 pop	 esi

; 772  : 			}
; 773  : 		}

  0007a	5d		 pop	 ebp
  0007b	c2 04 00	 ret	 4
$LN42@reserve:
?reserve@?$vector@HV?$allocator@H@std@@@std@@QAEXI@Z ENDP ; std::vector<int,std::allocator<int> >::reserve
_TEXT	ENDS
PUBLIC	?append@?$basic_string@DU?$char_traits@D@std@@V?$allocator@D@2@@std@@QAEAAV12@ABV12@II@Z ; std::basic_string<char,std::char_traits<char>,std::allocator<char> >::append
; Function compile flags: /Ogsp
; File c:\program files (x86)\microsoft visual studio 10.0\vc\include\xstring
;	COMDAT ?append@?$basic_string@DU?$char_traits@D@std@@V?$allocator@D@2@@std@@QAEAAV12@ABV12@II@Z
_TEXT	SEGMENT
__Right$ = 8						; size = 4
__Roff$ = 12						; size = 4
__Count$ = 16						; size = 4
?append@?$basic_string@DU?$char_traits@D@std@@V?$allocator@D@2@@std@@QAEAAV12@ABV12@II@Z PROC ; std::basic_string<char,std::char_traits<char>,std::allocator<char> >::append, COMDAT
; _this$ = ecx

; 799  : 		{	// append _Right [_Roff, _Roff + _Count)

  00000	55		 push	 ebp
  00001	8b ec		 mov	 ebp, esp

; 800  : 		if (_Right.size() < _Roff)

  00003	8b 45 08	 mov	 eax, DWORD PTR __Right$[ebp]
  00006	8b 40 10	 mov	 eax, DWORD PTR [eax+16]
  00009	53		 push	 ebx
  0000a	56		 push	 esi
  0000b	8b f1		 mov	 esi, ecx
  0000d	3b 45 0c	 cmp	 eax, DWORD PTR __Roff$[ebp]
  00010	73 0b		 jae	 SHORT $LN4@append

; 801  : 			_Xran();	// _Roff off end

  00012	68 00 00 00 00	 push	 OFFSET ??_C@_0BI@CFPLBAOH@invalid?5string?5position?$AA@
  00017	ff 15 00 00 00
	00		 call	 DWORD PTR __imp_?_Xout_of_range@std@@YAXPBD@Z
$LN36@append:
$LN4@append:

; 802  : 		size_type _Num = _Right.size() - _Roff;

  0001d	2b 45 0c	 sub	 eax, DWORD PTR __Roff$[ebp]

; 803  : 		if (_Num < _Count)

  00020	8b 5d 10	 mov	 ebx, DWORD PTR __Count$[ebp]
  00023	3b c3		 cmp	 eax, ebx

; 804  : 			_Count = _Num;	// trim _Count to size

  00025	0f 42 d8	 cmovb	 ebx, eax

; 805  : 		if (npos - this->_Mysize <= _Count)

  00028	8b 46 10	 mov	 eax, DWORD PTR [esi+16]
  0002b	83 c9 ff	 or	 ecx, -1
  0002e	2b c8		 sub	 ecx, eax
  00030	3b cb		 cmp	 ecx, ebx
  00032	77 0b		 ja	 SHORT $LN2@append

; 806  : 			_Xlen();	// result too long

  00034	68 00 00 00 00	 push	 OFFSET ??_C@_0BA@JFNIOLAK@string?5too?5long?$AA@
  00039	ff 15 00 00 00
	00		 call	 DWORD PTR __imp_?_Xlength_error@std@@YAXPBD@Z
$LN37@append:
$LN2@append:

; 807  : 
; 808  : 		if (0 < _Count && _Grow(_Num = this->_Mysize + _Count))

  0003f	85 db		 test	 ebx, ebx
  00041	74 50		 je	 SHORT $LN32@append
  00043	57		 push	 edi
  00044	8d 3c 18	 lea	 edi, DWORD PTR [eax+ebx]
  00047	6a 00		 push	 0
  00049	57		 push	 edi
  0004a	8b ce		 mov	 ecx, esi
  0004c	e8 00 00 00 00	 call	 ?_Grow@?$basic_string@DU?$char_traits@D@std@@V?$allocator@D@2@@std@@QAE_NI_N@Z ; std::basic_string<char,std::char_traits<char>,std::allocator<char> >::_Grow
  00051	84 c0		 test	 al, al
  00053	74 3d		 je	 SHORT $LN34@append

; 809  : 			{	// make room and append new stuff
; 810  : 			_Traits::copy(_Myptr() + this->_Mysize,
; 811  : 				_Right._Myptr() + _Roff, _Count);

  00055	8b 45 08	 mov	 eax, DWORD PTR __Right$[ebp]
  00058	83 78 14 10	 cmp	 DWORD PTR [eax+20], 16	; 00000010H
  0005c	72 02		 jb	 SHORT $LN18@append
  0005e	8b 00		 mov	 eax, DWORD PTR [eax]
$LN18@append:
  00060	83 7e 14 10	 cmp	 DWORD PTR [esi+20], 16	; 00000010H
  00064	72 04		 jb	 SHORT $LN22@append
  00066	8b 0e		 mov	 ecx, DWORD PTR [esi]
  00068	eb 02		 jmp	 SHORT $LN23@append
$LN22@append:
  0006a	8b ce		 mov	 ecx, esi
$LN23@append:
  0006c	03 45 0c	 add	 eax, DWORD PTR __Roff$[ebp]
  0006f	53		 push	 ebx
  00070	50		 push	 eax
  00071	8b 46 10	 mov	 eax, DWORD PTR [esi+16]
  00074	03 c1		 add	 eax, ecx
  00076	50		 push	 eax
  00077	e8 00 00 00 00	 call	 _memcpy
  0007c	83 c4 0c	 add	 esp, 12			; 0000000cH

; 812  : 			_Eos(_Num);

  0007f	83 7e 14 10	 cmp	 DWORD PTR [esi+20], 16	; 00000010H
  00083	89 7e 10	 mov	 DWORD PTR [esi+16], edi
  00086	72 04		 jb	 SHORT $LN30@append
  00088	8b 06		 mov	 eax, DWORD PTR [esi]
  0008a	eb 02		 jmp	 SHORT $LN31@append
$LN30@append:
  0008c	8b c6		 mov	 eax, esi
$LN31@append:
  0008e	c6 04 38 00	 mov	 BYTE PTR [eax+edi], 0
$LN34@append:
  00092	5f		 pop	 edi
$LN32@append:

; 813  : 			}
; 814  : 		return (*this);

  00093	8b c6		 mov	 eax, esi
  00095	5e		 pop	 esi
  00096	5b		 pop	 ebx

; 815  : 		}

  00097	5d		 pop	 ebp
  00098	c2 0c 00	 ret	 12			; 0000000cH
$LN35@append:
?append@?$basic_string@DU?$char_traits@D@std@@V?$allocator@D@2@@std@@QAEAAV12@ABV12@II@Z ENDP ; std::basic_string<char,std::char_traits<char>,std::allocator<char> >::append
_TEXT	ENDS
PUBLIC	??$_Dest_val@V?$allocator@VioHashString@@@std@@VioHashString@@@std@@YAXAAV?$allocator@VioHashString@@@0@PAVioHashString@@@Z ; std::_Dest_val<std::allocator<ioHashString>,ioHashString>
; Function compile flags: /Ogsp
; File c:\program files (x86)\microsoft visual studio 10.0\vc\include\xmemory
;	COMDAT ??$_Dest_val@V?$allocator@VioHashString@@@std@@VioHashString@@@std@@YAXAAV?$allocator@VioHashString@@@0@PAVioHashString@@@Z
_TEXT	SEGMENT
__Alval$ = 8						; size = 4
__Pdest$ = 12						; size = 4
??$_Dest_val@V?$allocator@VioHashString@@@std@@VioHashString@@@std@@YAXAAV?$allocator@VioHashString@@@0@PAVioHashString@@@Z PROC ; std::_Dest_val<std::allocator<ioHashString>,ioHashString>, COMDAT

; 286  : 	{	// destroy using allocator

  00000	55		 push	 ebp
  00001	8b ec		 mov	 ebp, esp

; 287  : 	_Alval.destroy(_Pdest);

  00003	8b 4d 0c	 mov	 ecx, DWORD PTR __Pdest$[ebp]

; 288  : 	}

  00006	5d		 pop	 ebp

; 287  : 	_Alval.destroy(_Pdest);

  00007	ff 25 00 00 00
	00		 jmp	 DWORD PTR __imp_??1ioHashString@@QAE@XZ
??$_Dest_val@V?$allocator@VioHashString@@@std@@VioHashString@@@std@@YAXAAV?$allocator@VioHashString@@@0@PAVioHashString@@@Z ENDP ; std::_Dest_val<std::allocator<ioHashString>,ioHashString>
_TEXT	ENDS
PUBLIC	??$_Dest_val@V?$allocator@VGashaponPresent@@@std@@VGashaponPresent@@@std@@YAXAAV?$allocator@VGashaponPresent@@@0@PAVGashaponPresent@@@Z ; std::_Dest_val<std::allocator<GashaponPresent>,GashaponPresent>
; Function compile flags: /Ogsp
;	COMDAT ??$_Dest_val@V?$allocator@VGashaponPresent@@@std@@VGashaponPresent@@@std@@YAXAAV?$allocator@VGashaponPresent@@@0@PAVGashaponPresent@@@Z
_TEXT	SEGMENT
__Alval$ = 8						; size = 4
__Pdest$ = 12						; size = 4
??$_Dest_val@V?$allocator@VGashaponPresent@@@std@@VGashaponPresent@@@std@@YAXAAV?$allocator@VGashaponPresent@@@0@PAVGashaponPresent@@@Z PROC ; std::_Dest_val<std::allocator<GashaponPresent>,GashaponPresent>, COMDAT

; 286  : 	{	// destroy using allocator

  00000	55		 push	 ebp
  00001	8b ec		 mov	 ebp, esp

; 287  : 	_Alval.destroy(_Pdest);

  00003	8b 4d 0c	 mov	 ecx, DWORD PTR __Pdest$[ebp]

; 288  : 	}

  00006	5d		 pop	 ebp

; 287  : 	_Alval.destroy(_Pdest);

  00007	e9 00 00 00 00	 jmp	 ??1GashaponPresent@@QAE@XZ ; GashaponPresent::~GashaponPresent
??$_Dest_val@V?$allocator@VGashaponPresent@@@std@@VGashaponPresent@@@std@@YAXAAV?$allocator@VGashaponPresent@@@0@PAVGashaponPresent@@@Z ENDP ; std::_Dest_val<std::allocator<GashaponPresent>,GashaponPresent>
_TEXT	ENDS
PUBLIC	??_G?$basic_string@DU?$char_traits@D@std@@V?$allocator@D@2@@std@@QAEPAXI@Z ; std::basic_string<char,std::char_traits<char>,std::allocator<char> >::`scalar deleting destructor'
; Function compile flags: /Ogsp
;	COMDAT ??_G?$basic_string@DU?$char_traits@D@std@@V?$allocator@D@2@@std@@QAEPAXI@Z
_TEXT	SEGMENT
___flags$ = 8						; size = 4
??_G?$basic_string@DU?$char_traits@D@std@@V?$allocator@D@2@@std@@QAEPAXI@Z PROC ; std::basic_string<char,std::char_traits<char>,std::allocator<char> >::`scalar deleting destructor', COMDAT
; _this$ = ecx
  00000	55		 push	 ebp
  00001	8b ec		 mov	 ebp, esp
  00003	56		 push	 esi
  00004	6a 00		 push	 0
  00006	6a 01		 push	 1
  00008	8b f1		 mov	 esi, ecx
  0000a	e8 00 00 00 00	 call	 ?_Tidy@?$basic_string@DU?$char_traits@D@std@@V?$allocator@D@2@@std@@QAEX_NI@Z ; std::basic_string<char,std::char_traits<char>,std::allocator<char> >::_Tidy
  0000f	f6 45 08 01	 test	 BYTE PTR ___flags$[ebp], 1
  00013	74 07		 je	 SHORT $LN1@scalar@4
  00015	56		 push	 esi
  00016	e8 00 00 00 00	 call	 ??3@YAXPAX@Z		; operator delete
  0001b	59		 pop	 ecx
$LN1@scalar@4:
  0001c	8b c6		 mov	 eax, esi
  0001e	5e		 pop	 esi
  0001f	5d		 pop	 ebp
  00020	c2 04 00	 ret	 4
??_G?$basic_string@DU?$char_traits@D@std@@V?$allocator@D@2@@std@@QAEPAXI@Z ENDP ; std::basic_string<char,std::char_traits<char>,std::allocator<char> >::`scalar deleting destructor'
_TEXT	ENDS
PUBLIC	??$?9V?$_Vector_iterator@V?$_Vector_val@HV?$allocator@H@std@@@std@@@std@@V01@@std@@YA_NABV?$reverse_iterator@V?$_Vector_iterator@V?$_Vector_val@HV?$allocator@H@std@@@std@@@std@@@0@0@Z ; std::operator!=<std::_Vector_iterator<std::_Vector_val<int,std::allocator<int> > >,std::_Vector_iterator<std::_Vector_val<int,std::allocator<int> > > >
; Function compile flags: /Ogsp
; File c:\program files (x86)\microsoft visual studio 10.0\vc\include\xutility
;	COMDAT ??$?9V?$_Vector_iterator@V?$_Vector_val@HV?$allocator@H@std@@@std@@@std@@V01@@std@@YA_NABV?$reverse_iterator@V?$_Vector_iterator@V?$_Vector_val@HV?$allocator@H@std@@@std@@@std@@@0@0@Z
_TEXT	SEGMENT
__Left$ = 8						; size = 4
__Right$ = 12						; size = 4
??$?9V?$_Vector_iterator@V?$_Vector_val@HV?$allocator@H@std@@@std@@@std@@V01@@std@@YA_NABV?$reverse_iterator@V?$_Vector_iterator@V?$_Vector_val@HV?$allocator@H@std@@@std@@@std@@@0@0@Z PROC ; std::operator!=<std::_Vector_iterator<std::_Vector_val<int,std::allocator<int> > >,std::_Vector_iterator<std::_Vector_val<int,std::allocator<int> > > >, COMDAT

; 1350 : 	{	// test for reverse_iterator inequality

  00000	55		 push	 ebp
  00001	8b ec		 mov	 ebp, esp

; 1351 : 	return (!(_Left == _Right));

  00003	8b 45 0c	 mov	 eax, DWORD PTR __Right$[ebp]
  00006	8b 00		 mov	 eax, DWORD PTR [eax]
  00008	8b 55 08	 mov	 edx, DWORD PTR __Left$[ebp]
  0000b	33 c9		 xor	 ecx, ecx
  0000d	39 02		 cmp	 DWORD PTR [edx], eax
  0000f	0f 95 c0	 setne	 al

; 1352 : 	}

  00012	5d		 pop	 ebp
  00013	c3		 ret	 0
??$?9V?$_Vector_iterator@V?$_Vector_val@HV?$allocator@H@std@@@std@@@std@@V01@@std@@YA_NABV?$reverse_iterator@V?$_Vector_iterator@V?$_Vector_val@HV?$allocator@H@std@@@std@@@std@@@0@0@Z ENDP ; std::operator!=<std::_Vector_iterator<std::_Vector_val<int,std::allocator<int> > >,std::_Vector_iterator<std::_Vector_val<int,std::allocator<int> > > >
_TEXT	ENDS
PUBLIC	??$random_shuffle@V?$_Vector_iterator@V?$_Vector_val@HV?$allocator@H@std@@@std@@@std@@@std@@YAXV?$_Vector_iterator@V?$_Vector_val@HV?$allocator@H@std@@@std@@@0@0@Z ; std::random_shuffle<std::_Vector_iterator<std::_Vector_val<int,std::allocator<int> > > >
; Function compile flags: /Ogsp
; File c:\program files (x86)\microsoft visual studio 10.0\vc\include\algorithm
;	COMDAT ??$random_shuffle@V?$_Vector_iterator@V?$_Vector_val@HV?$allocator@H@std@@@std@@@std@@@std@@YAXV?$_Vector_iterator@V?$_Vector_val@HV?$allocator@H@std@@@std@@@0@0@Z
_TEXT	SEGMENT
__First$ = 8						; size = 4
__Last$ = 12						; size = 4
??$random_shuffle@V?$_Vector_iterator@V?$_Vector_val@HV?$allocator@H@std@@@std@@@std@@@std@@YAXV?$_Vector_iterator@V?$_Vector_val@HV?$allocator@H@std@@@std@@@0@0@Z PROC ; std::random_shuffle<std::_Vector_iterator<std::_Vector_val<int,std::allocator<int> > > >, COMDAT

; 2234 : 	{	// shuffle [_First, _Last)

  00000	55		 push	 ebp
  00001	8b ec		 mov	 ebp, esp

; 2235 : 	_DEBUG_RANGE(_First, _Last);
; 2236 : 	if (_First != _Last)

  00003	8b 45 08	 mov	 eax, DWORD PTR __First$[ebp]
  00006	3b 45 0c	 cmp	 eax, DWORD PTR __Last$[ebp]
  00009	74 0e		 je	 SHORT $LN1@random_shu

; 2237 : 		_Random_shuffle(_Unchecked(_First), _Unchecked(_Last),
; 2238 : 			_Dist_type(_First));

  0000b	6a 00		 push	 0
  0000d	ff 75 0c	 push	 DWORD PTR __Last$[ebp]
  00010	50		 push	 eax
  00011	e8 00 00 00 00	 call	 ??$_Random_shuffle@PAHH@std@@YAXPAH00@Z ; std::_Random_shuffle<int *,int>
  00016	83 c4 0c	 add	 esp, 12			; 0000000cH
$LN1@random_shu:

; 2239 : 	}

  00019	5d		 pop	 ebp
  0001a	c3		 ret	 0
??$random_shuffle@V?$_Vector_iterator@V?$_Vector_val@HV?$allocator@H@std@@@std@@@std@@@std@@YAXV?$_Vector_iterator@V?$_Vector_val@HV?$allocator@H@std@@@std@@@0@0@Z ENDP ; std::random_shuffle<std::_Vector_iterator<std::_Vector_val<int,std::allocator<int> > > >
_TEXT	ENDS
PUBLIC	??$_Uninit_move@PAVioHashString@@PAV1@V?$allocator@VioHashString@@@std@@V1@@std@@YAPAVioHashString@@PAV1@00AAV?$allocator@VioHashString@@@0@0U_Nonscalar_ptr_iterator_tag@0@@Z ; std::_Uninit_move<ioHashString *,ioHashString *,std::allocator<ioHashString>,ioHashString>
;	COMDAT xdata$x
; File c:\program files (x86)\microsoft visual studio 10.0\vc\include\vector
xdata$x	SEGMENT
__catchsym$??$_Uninit_move@PAVioHashString@@PAV1@V?$allocator@VioHashString@@@std@@V1@@std@@YAPAVioHashString@@PAV1@00AAV?$allocator@VioHashString@@@0@0U_Nonscalar_ptr_iterator_tag@0@@Z$2 DD 040H
	DD	00H
	DD	00H
	DD	FLAT:__catch$??$_Uninit_move@PAVioHashString@@PAV1@V?$allocator@VioHashString@@@std@@V1@@std@@YAPAVioHashString@@PAV1@00AAV?$allocator@VioHashString@@@0@0U_Nonscalar_ptr_iterator_tag@0@@Z$0
__unwindtable$??$_Uninit_move@PAVioHashString@@PAV1@V?$allocator@VioHashString@@@std@@V1@@std@@YAPAVioHashString@@PAV1@00AAV?$allocator@VioHashString@@@0@0U_Nonscalar_ptr_iterator_tag@0@@Z DD 0ffffffffH
	DD	00H
	DD	0ffffffffH
	DD	00H
__tryblocktable$??$_Uninit_move@PAVioHashString@@PAV1@V?$allocator@VioHashString@@@std@@V1@@std@@YAPAVioHashString@@PAV1@00AAV?$allocator@VioHashString@@@0@0U_Nonscalar_ptr_iterator_tag@0@@Z DD 00H
	DD	00H
	DD	01H
	DD	01H
	DD	FLAT:__catchsym$??$_Uninit_move@PAVioHashString@@PAV1@V?$allocator@VioHashString@@@std@@V1@@std@@YAPAVioHashString@@PAV1@00AAV?$allocator@VioHashString@@@0@0U_Nonscalar_ptr_iterator_tag@0@@Z$2
__ehfuncinfo$??$_Uninit_move@PAVioHashString@@PAV1@V?$allocator@VioHashString@@@std@@V1@@std@@YAPAVioHashString@@PAV1@00AAV?$allocator@VioHashString@@@0@0U_Nonscalar_ptr_iterator_tag@0@@Z DD 019930522H
	DD	02H
	DD	FLAT:__unwindtable$??$_Uninit_move@PAVioHashString@@PAV1@V?$allocator@VioHashString@@@std@@V1@@std@@YAPAVioHashString@@PAV1@00AAV?$allocator@VioHashString@@@0@0U_Nonscalar_ptr_iterator_tag@0@@Z
	DD	01H
	DD	FLAT:__tryblocktable$??$_Uninit_move@PAVioHashString@@PAV1@V?$allocator@VioHashString@@@std@@V1@@std@@YAPAVioHashString@@PAV1@00AAV?$allocator@VioHashString@@@0@0U_Nonscalar_ptr_iterator_tag@0@@Z
	DD	2 DUP(00H)
	DD	00H
	DD	01H
; Function compile flags: /Ogsp
; File c:\program files (x86)\microsoft visual studio 10.0\vc\include\memory
xdata$x	ENDS
;	COMDAT ??$_Uninit_move@PAVioHashString@@PAV1@V?$allocator@VioHashString@@@std@@V1@@std@@YAPAVioHashString@@PAV1@00AAV?$allocator@VioHashString@@@0@0U_Nonscalar_ptr_iterator_tag@0@@Z
_TEXT	SEGMENT
__Next$ = -20						; size = 4
__$EHRec$ = -16						; size = 16
__First$ = 8						; size = 4
__Last$ = 12						; size = 4
__Dest$ = 16						; size = 4
__Al$ = 20						; size = 4
___formal$ = 24						; size = 4
___formal$ = 28						; size = 1
??$_Uninit_move@PAVioHashString@@PAV1@V?$allocator@VioHashString@@@std@@V1@@std@@YAPAVioHashString@@PAV1@00AAV?$allocator@VioHashString@@@0@0U_Nonscalar_ptr_iterator_tag@0@@Z PROC ; std::_Uninit_move<ioHashString *,ioHashString *,std::allocator<ioHashString>,ioHashString>, COMDAT

; 424  : 	{	// move [_First, _Last) to raw _Dest, using _Al, arbitrary type

  00000	6a 08		 push	 8
  00002	b8 00 00 00 00	 mov	 eax, __ehhandler$??$_Uninit_move@PAVioHashString@@PAV1@V?$allocator@VioHashString@@@std@@V1@@std@@YAPAVioHashString@@PAV1@00AAV?$allocator@VioHashString@@@0@0U_Nonscalar_ptr_iterator_tag@0@@Z
  00007	e8 00 00 00 00	 call	 __EH_prolog3_catch

; 425  : 	_DEBUG_RANGE(_First, _Last);
; 426  : 	_DEBUG_POINTER(_Dest);
; 427  : 	_FwdIt _Next = _Dest;

  0000c	8b 45 10	 mov	 eax, DWORD PTR __Dest$[ebp]

; 428  : 
; 429  : 	_TRY_BEGIN

  0000f	83 65 fc 00	 and	 DWORD PTR __$EHRec$[ebp+12], 0
  00013	8b 75 08	 mov	 esi, DWORD PTR __First$[ebp]
  00016	89 45 ec	 mov	 DWORD PTR __Next$[ebp], eax
$LL6@Uninit_mov:

; 430  : 	for (; _First != _Last; ++_Dest, ++_First)

  00019	3b 75 0c	 cmp	 esi, DWORD PTR __Last$[ebp]
  0001c	74 33		 je	 SHORT $LN4@Uninit_mov

; 431  : 		_Cons_val(_Al, _Dest, (_Valty &&)*_First);

  0001e	8b 4d 14	 mov	 ecx, DWORD PTR __Al$[ebp]
  00021	56		 push	 esi
  00022	ff 75 10	 push	 DWORD PTR __Dest$[ebp]
  00025	e8 00 00 00 00	 call	 ?construct@?$allocator@VioHashString@@@std@@QAEXPAVioHashString@@$$QAV3@@Z ; std::allocator<ioHashString>::construct
  0002a	83 45 10 10	 add	 DWORD PTR __Dest$[ebp], 16 ; 00000010H
  0002e	83 c6 10	 add	 esi, 16			; 00000010H
  00031	eb e6		 jmp	 SHORT $LL6@Uninit_mov
__catch$??$_Uninit_move@PAVioHashString@@PAV1@V?$allocator@VioHashString@@@std@@V1@@std@@YAPAVioHashString@@PAV1@00AAV?$allocator@VioHashString@@@0@0U_Nonscalar_ptr_iterator_tag@0@@Z$0:

; 432  : 	_CATCH_ALL
; 433  : 	for (; _Next != _Dest; ++_Next)

  00033	8b 75 ec	 mov	 esi, DWORD PTR __Next$[ebp]
  00036	eb 0b		 jmp	 SHORT $LN33@Uninit_mov
$LL3@Uninit_mov:

; 434  : 		_Dest_val(_Al, _Next);

  00038	8b ce		 mov	 ecx, esi
  0003a	ff 15 00 00 00
	00		 call	 DWORD PTR __imp_??1ioHashString@@QAE@XZ
  00040	83 c6 10	 add	 esi, 16			; 00000010H
$LN33@Uninit_mov:

; 432  : 	_CATCH_ALL
; 433  : 	for (; _Next != _Dest; ++_Next)

  00043	3b 75 10	 cmp	 esi, DWORD PTR __Dest$[ebp]
  00046	75 f0		 jne	 SHORT $LL3@Uninit_mov

; 435  : 	_RERAISE;

  00048	6a 00		 push	 0
  0004a	6a 00		 push	 0
  0004c	e8 00 00 00 00	 call	 __CxxThrowException@8
$LN34@Uninit_mov:
$LN4@Uninit_mov:

; 436  : 	_CATCH_END
; 437  : 	return (_Dest);

  00051	8b 45 10	 mov	 eax, DWORD PTR __Dest$[ebp]

; 438  : 	}

  00054	e8 00 00 00 00	 call	 __EH_epilog3
  00059	c3		 ret	 0
$LN32@Uninit_mov:
_TEXT	ENDS
;	COMDAT text$x
text$x	SEGMENT
__ehhandler$??$_Uninit_move@PAVioHashString@@PAV1@V?$allocator@VioHashString@@@std@@V1@@std@@YAPAVioHashString@@PAV1@00AAV?$allocator@VioHashString@@@0@0U_Nonscalar_ptr_iterator_tag@0@@Z:
  00000	8b 54 24 08	 mov	 edx, DWORD PTR [esp+8]
  00004	8d 42 0c	 lea	 eax, DWORD PTR [edx+12]
  00007	8b 4a e8	 mov	 ecx, DWORD PTR [edx-24]
  0000a	33 c8		 xor	 ecx, eax
  0000c	e8 00 00 00 00	 call	 @__security_check_cookie@4
  00011	b8 00 00 00 00	 mov	 eax, OFFSET __ehfuncinfo$??$_Uninit_move@PAVioHashString@@PAV1@V?$allocator@VioHashString@@@std@@V1@@std@@YAPAVioHashString@@PAV1@00AAV?$allocator@VioHashString@@@0@0U_Nonscalar_ptr_iterator_tag@0@@Z
  00016	e9 00 00 00 00	 jmp	 ___CxxFrameHandler3
text$x	ENDS
??$_Uninit_move@PAVioHashString@@PAV1@V?$allocator@VioHashString@@@std@@V1@@std@@YAPAVioHashString@@PAV1@00AAV?$allocator@VioHashString@@@0@0U_Nonscalar_ptr_iterator_tag@0@@Z ENDP ; std::_Uninit_move<ioHashString *,ioHashString *,std::allocator<ioHashString>,ioHashString>
PUBLIC	??$_Uninit_copy@PAVGashaponPresent@@PAV1@V?$allocator@VGashaponPresent@@@std@@@std@@YAPAVGashaponPresent@@PAV1@00AAV?$allocator@VGashaponPresent@@@0@U_Nonscalar_ptr_iterator_tag@0@@Z ; std::_Uninit_copy<GashaponPresent *,GashaponPresent *,std::allocator<GashaponPresent> >
; Function compile flags: /Ogsp
;	COMDAT ??$_Uninit_copy@PAVGashaponPresent@@PAV1@V?$allocator@VGashaponPresent@@@std@@@std@@YAPAVGashaponPresent@@PAV1@00AAV?$allocator@VGashaponPresent@@@0@U_Nonscalar_ptr_iterator_tag@0@@Z
_TEXT	SEGMENT
__First$ = 8						; size = 4
__Last$ = 12						; size = 4
__Dest$ = 16						; size = 4
__Al$ = 20						; size = 4
___formal$ = 24						; size = 1
??$_Uninit_copy@PAVGashaponPresent@@PAV1@V?$allocator@VGashaponPresent@@@std@@@std@@YAPAVGashaponPresent@@PAV1@00AAV?$allocator@VGashaponPresent@@@0@U_Nonscalar_ptr_iterator_tag@0@@Z PROC ; std::_Uninit_copy<GashaponPresent *,GashaponPresent *,std::allocator<GashaponPresent> >, COMDAT

; 369  : 	{	// copy [_First, _Last) to raw _Dest, using _Al, arbitrary type

  00000	55		 push	 ebp
  00001	8b ec		 mov	 ebp, esp
  00003	56		 push	 esi

; 370  : 	_DEBUG_RANGE(_First, _Last);
; 371  : 	_DEBUG_POINTER(_Dest);
; 372  : 	_FwdIt _Next = _Dest;
; 373  : 
; 374  : 	_TRY_BEGIN
; 375  : 	for (; _First != _Last; ++_Dest, ++_First)

  00004	8b 75 08	 mov	 esi, DWORD PTR __First$[ebp]
  00007	eb 16		 jmp	 SHORT $LN27@Uninit_cop
$LL6@Uninit_cop:

; 376  : 		_Cons_val(_Al, _Dest, *_First);

  00009	56		 push	 esi
  0000a	ff 75 10	 push	 DWORD PTR __Dest$[ebp]
  0000d	ff 75 14	 push	 DWORD PTR __Al$[ebp]
  00010	e8 00 00 00 00	 call	 ??$_Cons_val@V?$allocator@VGashaponPresent@@@std@@VGashaponPresent@@AAV3@@std@@YAXAAV?$allocator@VGashaponPresent@@@0@PAVGashaponPresent@@AAV2@@Z ; std::_Cons_val<std::allocator<GashaponPresent>,GashaponPresent,GashaponPresent &>
  00015	83 45 10 14	 add	 DWORD PTR __Dest$[ebp], 20 ; 00000014H
  00019	83 c4 0c	 add	 esp, 12			; 0000000cH
  0001c	83 c6 14	 add	 esi, 20			; 00000014H
$LN27@Uninit_cop:

; 370  : 	_DEBUG_RANGE(_First, _Last);
; 371  : 	_DEBUG_POINTER(_Dest);
; 372  : 	_FwdIt _Next = _Dest;
; 373  : 
; 374  : 	_TRY_BEGIN
; 375  : 	for (; _First != _Last; ++_Dest, ++_First)

  0001f	3b 75 0c	 cmp	 esi, DWORD PTR __Last$[ebp]
  00022	75 e5		 jne	 SHORT $LL6@Uninit_cop

; 377  : 	_CATCH_ALL
; 378  : 	for (; _Next != _Dest; ++_Next)
; 379  : 		_Dest_val(_Al, _Next);
; 380  : 	_RERAISE;
; 381  : 	_CATCH_END
; 382  : 	return (_Dest);

  00024	8b 45 10	 mov	 eax, DWORD PTR __Dest$[ebp]
  00027	5e		 pop	 esi

; 383  : 	}

  00028	5d		 pop	 ebp
  00029	c3		 ret	 0
??$_Uninit_copy@PAVGashaponPresent@@PAV1@V?$allocator@VGashaponPresent@@@std@@@std@@YAPAVGashaponPresent@@PAV1@00AAV?$allocator@VGashaponPresent@@@0@U_Nonscalar_ptr_iterator_tag@0@@Z ENDP ; std::_Uninit_copy<GashaponPresent *,GashaponPresent *,std::allocator<GashaponPresent> >
_TEXT	ENDS
PUBLIC	??1?$vector@HV?$allocator@H@std@@@std@@QAE@XZ	; std::vector<int,std::allocator<int> >::~vector<int,std::allocator<int> >
; Function compile flags: /Ogsp
; File c:\program files (x86)\microsoft visual studio 10.0\vc\include\vector
;	COMDAT ??1?$vector@HV?$allocator@H@std@@@std@@QAE@XZ
_TEXT	SEGMENT
??1?$vector@HV?$allocator@H@std@@@std@@QAE@XZ PROC	; std::vector<int,std::allocator<int> >::~vector<int,std::allocator<int> >, COMDAT
; _this$ = ecx

; 705  : 		_Tidy();

  00000	e9 00 00 00 00	 jmp	 ?_Tidy@?$vector@HV?$allocator@H@std@@@std@@IAEXXZ ; std::vector<int,std::allocator<int> >::_Tidy
??1?$vector@HV?$allocator@H@std@@@std@@QAE@XZ ENDP	; std::vector<int,std::allocator<int> >::~vector<int,std::allocator<int> >
_TEXT	ENDS
PUBLIC	?clear@?$vector@HV?$allocator@H@std@@@std@@QAEXXZ ; std::vector<int,std::allocator<int> >::clear
; Function compile flags: /Ogsp
;	COMDAT ?clear@?$vector@HV?$allocator@H@std@@@std@@QAEXXZ
_TEXT	SEGMENT
$T521783 = -4						; size = 4
?clear@?$vector@HV?$allocator@H@std@@@std@@QAEXXZ PROC	; std::vector<int,std::allocator<int> >::clear, COMDAT
; _this$ = ecx

; 1217 : 		{	// erase all

  00000	55		 push	 ebp
  00001	8b ec		 mov	 ebp, esp
  00003	51		 push	 ecx

; 1218 : 		erase(begin(), end());

  00004	8b 41 04	 mov	 eax, DWORD PTR [ecx+4]
  00007	8b 11		 mov	 edx, DWORD PTR [ecx]
  00009	50		 push	 eax
  0000a	52		 push	 edx
  0000b	8d 45 fc	 lea	 eax, DWORD PTR $T521783[ebp]
  0000e	50		 push	 eax
  0000f	e8 00 00 00 00	 call	 ?erase@?$vector@HV?$allocator@H@std@@@std@@QAE?AV?$_Vector_iterator@V?$_Vector_val@HV?$allocator@H@std@@@std@@@2@V?$_Vector_const_iterator@V?$_Vector_val@HV?$allocator@H@std@@@std@@@2@0@Z ; std::vector<int,std::allocator<int> >::erase

; 1219 : 		}

  00014	c9		 leave
  00015	c3		 ret	 0
?clear@?$vector@HV?$allocator@H@std@@@std@@QAEXXZ ENDP	; std::vector<int,std::allocator<int> >::clear
_TEXT	ENDS
PUBLIC	?_Reserve@?$vector@HV?$allocator@H@std@@@std@@IAEXI@Z ; std::vector<int,std::allocator<int> >::_Reserve
; Function compile flags: /Ogsp
;	COMDAT ?_Reserve@?$vector@HV?$allocator@H@std@@@std@@IAEXI@Z
_TEXT	SEGMENT
__Count$ = 8						; size = 4
?_Reserve@?$vector@HV?$allocator@H@std@@@std@@IAEXI@Z PROC ; std::vector<int,std::allocator<int> >::_Reserve, COMDAT
; _this$ = ecx

; 1290 : 		{	// ensure room for _Count new elements, grow exponentially

  00000	55		 push	 ebp
  00001	8b ec		 mov	 ebp, esp
  00003	56		 push	 esi
  00004	8b f1		 mov	 esi, ecx

; 1291 : 		size_type _Size = size();

  00006	8b 0e		 mov	 ecx, DWORD PTR [esi]
  00008	8b 46 04	 mov	 eax, DWORD PTR [esi+4]
  0000b	2b c1		 sub	 eax, ecx

; 1292 : 		if (max_size() - _Count < _Size)

  0000d	ba ff ff ff 3f	 mov	 edx, 1073741823		; 3fffffffH
  00012	2b 55 08	 sub	 edx, DWORD PTR __Count$[ebp]
  00015	c1 f8 02	 sar	 eax, 2
  00018	3b d0		 cmp	 edx, eax
  0001a	73 0b		 jae	 SHORT $LN4@Reserve

; 1293 : 			_Xlen();

  0001c	68 00 00 00 00	 push	 OFFSET ??_C@_0BD@OLBABOEK@vector?$DMT?$DO?5too?5long?$AA@
  00021	ff 15 00 00 00
	00		 call	 DWORD PTR __imp_?_Xlength_error@std@@YAXPBD@Z
$LN21@Reserve:
$LN4@Reserve:

; 1294 : 		else if ((_Size += _Count) <= capacity())

  00027	8b 56 08	 mov	 edx, DWORD PTR [esi+8]
  0002a	03 45 08	 add	 eax, DWORD PTR __Count$[ebp]
  0002d	2b d1		 sub	 edx, ecx
  0002f	c1 fa 02	 sar	 edx, 2
  00032	3b c2		 cmp	 eax, edx
  00034	76 10		 jbe	 SHORT $LN1@Reserve

; 1295 : 			;
; 1296 : 		else
; 1297 : 			reserve(_Grow_to(_Size));

  00036	50		 push	 eax
  00037	8b ce		 mov	 ecx, esi
  00039	e8 00 00 00 00	 call	 ?_Grow_to@?$vector@HV?$allocator@H@std@@@std@@IBEII@Z ; std::vector<int,std::allocator<int> >::_Grow_to
  0003e	50		 push	 eax
  0003f	8b ce		 mov	 ecx, esi
  00041	e8 00 00 00 00	 call	 ?reserve@?$vector@HV?$allocator@H@std@@@std@@QAEXI@Z ; std::vector<int,std::allocator<int> >::reserve
$LN1@Reserve:
  00046	5e		 pop	 esi

; 1298 : 		}

  00047	5d		 pop	 ebp
  00048	c2 04 00	 ret	 4
$LN20@Reserve:
?_Reserve@?$vector@HV?$allocator@H@std@@@std@@IAEXI@Z ENDP ; std::vector<int,std::allocator<int> >::_Reserve
_TEXT	ENDS
PUBLIC	?append@?$basic_string@DU?$char_traits@D@std@@V?$allocator@D@2@@std@@QAEAAV12@PBDI@Z ; std::basic_string<char,std::char_traits<char>,std::allocator<char> >::append
; Function compile flags: /Ogsp
; File c:\program files (x86)\microsoft visual studio 10.0\vc\include\xstring
;	COMDAT ?append@?$basic_string@DU?$char_traits@D@std@@V?$allocator@D@2@@std@@QAEAAV12@PBDI@Z
_TEXT	SEGMENT
__Ptr$ = 8						; size = 4
__Count$ = 12						; size = 4
?append@?$basic_string@DU?$char_traits@D@std@@V?$allocator@D@2@@std@@QAEAAV12@PBDI@Z PROC ; std::basic_string<char,std::char_traits<char>,std::allocator<char> >::append, COMDAT
; _this$ = ecx

; 818  : 		{	// append [_Ptr, _Ptr + _Count)

  00000	55		 push	 ebp
  00001	8b ec		 mov	 ebp, esp
  00003	56		 push	 esi
  00004	57		 push	 edi

; 819  :  #if _ITERATOR_DEBUG_LEVEL == 2
; 820  : 		if (_Count != 0)
; 821  : 			_DEBUG_POINTER(_Ptr);
; 822  :  #endif /* _ITERATOR_DEBUG_LEVEL == 2 */
; 823  : 
; 824  : 		if (_Inside(_Ptr))

  00005	8b 7d 08	 mov	 edi, DWORD PTR __Ptr$[ebp]
  00008	57		 push	 edi
  00009	8b f1		 mov	 esi, ecx
  0000b	e8 00 00 00 00	 call	 ?_Inside@?$basic_string@DU?$char_traits@D@std@@V?$allocator@D@2@@std@@QAE_NPBD@Z ; std::basic_string<char,std::char_traits<char>,std::allocator<char> >::_Inside
  00010	84 c0		 test	 al, al
  00012	74 1c		 je	 SHORT $LN3@append@2

; 825  : 			return (append(*this, _Ptr - _Myptr(), _Count));	// substring

  00014	83 7e 14 10	 cmp	 DWORD PTR [esi+20], 16	; 00000010H
  00018	72 04		 jb	 SHORT $LN8@append@2
  0001a	8b 06		 mov	 eax, DWORD PTR [esi]
  0001c	eb 02		 jmp	 SHORT $LN9@append@2
$LN8@append@2:
  0001e	8b c6		 mov	 eax, esi
$LN9@append@2:
  00020	ff 75 0c	 push	 DWORD PTR __Count$[ebp]
  00023	2b f8		 sub	 edi, eax
  00025	57		 push	 edi
  00026	56		 push	 esi
  00027	8b ce		 mov	 ecx, esi
  00029	e8 00 00 00 00	 call	 ?append@?$basic_string@DU?$char_traits@D@std@@V?$allocator@D@2@@std@@QAEAAV12@ABV12@II@Z ; std::basic_string<char,std::char_traits<char>,std::allocator<char> >::append
  0002e	eb 64		 jmp	 SHORT $LN4@append@2
$LN3@append@2:

; 826  : 		if (npos - this->_Mysize <= _Count)

  00030	8b 46 10	 mov	 eax, DWORD PTR [esi+16]
  00033	83 c9 ff	 or	 ecx, -1
  00036	53		 push	 ebx
  00037	8b 5d 0c	 mov	 ebx, DWORD PTR __Count$[ebp]
  0003a	2b c8		 sub	 ecx, eax
  0003c	3b cb		 cmp	 ecx, ebx
  0003e	77 0b		 ja	 SHORT $LN2@append@2

; 827  : 			_Xlen();	// result too long

  00040	68 00 00 00 00	 push	 OFFSET ??_C@_0BA@JFNIOLAK@string?5too?5long?$AA@
  00045	ff 15 00 00 00
	00		 call	 DWORD PTR __imp_?_Xlength_error@std@@YAXPBD@Z
$LN28@append@2:
$LN2@append@2:

; 828  : 
; 829  : 		size_type _Num;
; 830  : 		if (0 < _Count && _Grow(_Num = this->_Mysize + _Count))

  0004b	85 db		 test	 ebx, ebx
  0004d	74 42		 je	 SHORT $LN25@append@2
  0004f	8d 3c 18	 lea	 edi, DWORD PTR [eax+ebx]
  00052	6a 00		 push	 0
  00054	57		 push	 edi
  00055	8b ce		 mov	 ecx, esi
  00057	e8 00 00 00 00	 call	 ?_Grow@?$basic_string@DU?$char_traits@D@std@@V?$allocator@D@2@@std@@QAE_NI_N@Z ; std::basic_string<char,std::char_traits<char>,std::allocator<char> >::_Grow
  0005c	84 c0		 test	 al, al
  0005e	74 31		 je	 SHORT $LN25@append@2

; 831  : 			{	// make room and append new stuff
; 832  : 			_Traits::copy(_Myptr() + this->_Mysize, _Ptr, _Count);

  00060	83 7e 14 10	 cmp	 DWORD PTR [esi+20], 16	; 00000010H
  00064	72 04		 jb	 SHORT $LN15@append@2
  00066	8b 06		 mov	 eax, DWORD PTR [esi]
  00068	eb 02		 jmp	 SHORT $LN16@append@2
$LN15@append@2:
  0006a	8b c6		 mov	 eax, esi
$LN16@append@2:
  0006c	8b 4e 10	 mov	 ecx, DWORD PTR [esi+16]
  0006f	53		 push	 ebx
  00070	ff 75 08	 push	 DWORD PTR __Ptr$[ebp]
  00073	03 c8		 add	 ecx, eax
  00075	51		 push	 ecx
  00076	e8 00 00 00 00	 call	 _memcpy
  0007b	83 c4 0c	 add	 esp, 12			; 0000000cH

; 833  : 			_Eos(_Num);

  0007e	83 7e 14 10	 cmp	 DWORD PTR [esi+20], 16	; 00000010H
  00082	89 7e 10	 mov	 DWORD PTR [esi+16], edi
  00085	72 04		 jb	 SHORT $LN23@append@2
  00087	8b 06		 mov	 eax, DWORD PTR [esi]
  00089	eb 02		 jmp	 SHORT $LN24@append@2
$LN23@append@2:
  0008b	8b c6		 mov	 eax, esi
$LN24@append@2:
  0008d	c6 04 38 00	 mov	 BYTE PTR [eax+edi], 0
$LN25@append@2:

; 834  : 			}
; 835  : 		return (*this);

  00091	8b c6		 mov	 eax, esi
  00093	5b		 pop	 ebx
$LN4@append@2:
  00094	5f		 pop	 edi
  00095	5e		 pop	 esi

; 836  : 		}

  00096	5d		 pop	 ebp
  00097	c2 08 00	 ret	 8
$LN27@append@2:
?append@?$basic_string@DU?$char_traits@D@std@@V?$allocator@D@2@@std@@QAEAAV12@PBDI@Z ENDP ; std::basic_string<char,std::char_traits<char>,std::allocator<char> >::append
_TEXT	ENDS
PUBLIC	?assign@?$basic_string@DU?$char_traits@D@std@@V?$allocator@D@2@@std@@QAEAAV12@ABV12@II@Z ; std::basic_string<char,std::char_traits<char>,std::allocator<char> >::assign
; Function compile flags: /Ogsp
;	COMDAT ?assign@?$basic_string@DU?$char_traits@D@std@@V?$allocator@D@2@@std@@QAEAAV12@ABV12@II@Z
_TEXT	SEGMENT
__Right$ = 8						; size = 4
__Roff$ = 12						; size = 4
__Count$ = 16						; size = 4
?assign@?$basic_string@DU?$char_traits@D@std@@V?$allocator@D@2@@std@@QAEAAV12@ABV12@II@Z PROC ; std::basic_string<char,std::char_traits<char>,std::allocator<char> >::assign, COMDAT
; _this$ = ecx

; 893  : 		{	// assign _Right [_Roff, _Roff + _Count)

  00000	55		 push	 ebp
  00001	8b ec		 mov	 ebp, esp
  00003	53		 push	 ebx

; 894  : 		if (_Right.size() < _Roff)

  00004	8b 5d 08	 mov	 ebx, DWORD PTR __Right$[ebp]
  00007	8b 43 10	 mov	 eax, DWORD PTR [ebx+16]
  0000a	56		 push	 esi
  0000b	8b f1		 mov	 esi, ecx
  0000d	8b 4d 0c	 mov	 ecx, DWORD PTR __Roff$[ebp]
  00010	57		 push	 edi
  00011	3b c1		 cmp	 eax, ecx
  00013	73 0b		 jae	 SHORT $LN5@assign

; 895  : 			_Xran();	// _Roff off end

  00015	68 00 00 00 00	 push	 OFFSET ??_C@_0BI@CFPLBAOH@invalid?5string?5position?$AA@
  0001a	ff 15 00 00 00
	00		 call	 DWORD PTR __imp_?_Xout_of_range@std@@YAXPBD@Z
$LN34@assign:
$LN5@assign:

; 896  : 		size_type _Num = _Right.size() - _Roff;

  00020	2b c1		 sub	 eax, ecx
  00022	8b f8		 mov	 edi, eax

; 897  : 		if (_Count < _Num)

  00024	39 7d 10	 cmp	 DWORD PTR __Count$[ebp], edi

; 898  : 			_Num = _Count;	// trim _Num to size

  00027	0f 42 7d 10	 cmovb	 edi, DWORD PTR __Count$[ebp]

; 899  : 
; 900  : 		if (this == &_Right)

  0002b	3b f3		 cmp	 esi, ebx
  0002d	75 1a		 jne	 SHORT $LN3@assign

; 901  : 			erase((size_type)(_Roff + _Num)), erase(0, _Roff);	// substring

  0002f	03 f9		 add	 edi, ecx
  00031	6a ff		 push	 -1
  00033	57		 push	 edi
  00034	8b ce		 mov	 ecx, esi
  00036	e8 00 00 00 00	 call	 ?erase@?$basic_string@DU?$char_traits@D@std@@V?$allocator@D@2@@std@@QAEAAV12@II@Z ; std::basic_string<char,std::char_traits<char>,std::allocator<char> >::erase
  0003b	ff 75 0c	 push	 DWORD PTR __Roff$[ebp]
  0003e	8b ce		 mov	 ecx, esi
  00040	6a 00		 push	 0
  00042	e8 00 00 00 00	 call	 ?erase@?$basic_string@DU?$char_traits@D@std@@V?$allocator@D@2@@std@@QAEAAV12@II@Z ; std::basic_string<char,std::char_traits<char>,std::allocator<char> >::erase
  00047	eb 47		 jmp	 SHORT $LN31@assign
$LN3@assign:

; 902  : 		else if (_Grow(_Num))

  00049	6a 00		 push	 0
  0004b	57		 push	 edi
  0004c	8b ce		 mov	 ecx, esi
  0004e	e8 00 00 00 00	 call	 ?_Grow@?$basic_string@DU?$char_traits@D@std@@V?$allocator@D@2@@std@@QAE_NI_N@Z ; std::basic_string<char,std::char_traits<char>,std::allocator<char> >::_Grow
  00053	84 c0		 test	 al, al
  00055	74 39		 je	 SHORT $LN31@assign

; 903  : 			{	// make room and assign new stuff
; 904  : 			_Traits::copy(_Myptr(), _Right._Myptr() + _Roff, _Num);

  00057	83 7b 14 10	 cmp	 DWORD PTR [ebx+20], 16	; 00000010H
  0005b	72 04		 jb	 SHORT $LN17@assign
  0005d	8b 03		 mov	 eax, DWORD PTR [ebx]
  0005f	eb 02		 jmp	 SHORT $LN18@assign
$LN17@assign:
  00061	8b c3		 mov	 eax, ebx
$LN18@assign:
  00063	83 7e 14 10	 cmp	 DWORD PTR [esi+20], 16	; 00000010H
  00067	72 04		 jb	 SHORT $LN21@assign
  00069	8b 0e		 mov	 ecx, DWORD PTR [esi]
  0006b	eb 02		 jmp	 SHORT $LN22@assign
$LN21@assign:
  0006d	8b ce		 mov	 ecx, esi
$LN22@assign:
  0006f	03 45 0c	 add	 eax, DWORD PTR __Roff$[ebp]
  00072	57		 push	 edi
  00073	50		 push	 eax
  00074	51		 push	 ecx
  00075	e8 00 00 00 00	 call	 _memcpy
  0007a	83 c4 0c	 add	 esp, 12			; 0000000cH

; 905  : 			_Eos(_Num);

  0007d	83 7e 14 10	 cmp	 DWORD PTR [esi+20], 16	; 00000010H
  00081	89 7e 10	 mov	 DWORD PTR [esi+16], edi
  00084	72 04		 jb	 SHORT $LN29@assign
  00086	8b 06		 mov	 eax, DWORD PTR [esi]
  00088	eb 02		 jmp	 SHORT $LN30@assign
$LN29@assign:
  0008a	8b c6		 mov	 eax, esi
$LN30@assign:
  0008c	c6 04 38 00	 mov	 BYTE PTR [eax+edi], 0
$LN31@assign:

; 906  : 			}
; 907  : 		return (*this);

  00090	5f		 pop	 edi
  00091	8b c6		 mov	 eax, esi
  00093	5e		 pop	 esi
  00094	5b		 pop	 ebx

; 908  : 		}

  00095	5d		 pop	 ebp
  00096	c2 0c 00	 ret	 12			; 0000000cH
$LN33@assign:
?assign@?$basic_string@DU?$char_traits@D@std@@V?$allocator@D@2@@std@@QAEAAV12@ABV12@II@Z ENDP ; std::basic_string<char,std::char_traits<char>,std::allocator<char> >::assign
_TEXT	ENDS
PUBLIC	?assign@?$basic_string@DU?$char_traits@D@std@@V?$allocator@D@2@@std@@QAEAAV12@PBDI@Z ; std::basic_string<char,std::char_traits<char>,std::allocator<char> >::assign
; Function compile flags: /Ogsp
;	COMDAT ?assign@?$basic_string@DU?$char_traits@D@std@@V?$allocator@D@2@@std@@QAEAAV12@PBDI@Z
_TEXT	SEGMENT
__Ptr$ = 8						; size = 4
__Count$ = 12						; size = 4
?assign@?$basic_string@DU?$char_traits@D@std@@V?$allocator@D@2@@std@@QAEAAV12@PBDI@Z PROC ; std::basic_string<char,std::char_traits<char>,std::allocator<char> >::assign, COMDAT
; _this$ = ecx

; 911  : 		{	// assign [_Ptr, _Ptr + _Count)

  00000	55		 push	 ebp
  00001	8b ec		 mov	 ebp, esp
  00003	53		 push	 ebx

; 912  :  #if _ITERATOR_DEBUG_LEVEL == 2
; 913  : 		if (_Count != 0)
; 914  : 			_DEBUG_POINTER(_Ptr);
; 915  :  #endif /* _ITERATOR_DEBUG_LEVEL == 2 */
; 916  : 
; 917  : 		if (_Inside(_Ptr))

  00004	8b 5d 08	 mov	 ebx, DWORD PTR __Ptr$[ebp]
  00007	56		 push	 esi
  00008	53		 push	 ebx
  00009	8b f1		 mov	 esi, ecx
  0000b	e8 00 00 00 00	 call	 ?_Inside@?$basic_string@DU?$char_traits@D@std@@V?$allocator@D@2@@std@@QAE_NPBD@Z ; std::basic_string<char,std::char_traits<char>,std::allocator<char> >::_Inside
  00010	84 c0		 test	 al, al
  00012	74 1c		 je	 SHORT $LN2@assign@2

; 918  : 			return (assign(*this, _Ptr - _Myptr(), _Count));	// substring

  00014	83 7e 14 10	 cmp	 DWORD PTR [esi+20], 16	; 00000010H
  00018	72 04		 jb	 SHORT $LN7@assign@2
  0001a	8b 06		 mov	 eax, DWORD PTR [esi]
  0001c	eb 02		 jmp	 SHORT $LN8@assign@2
$LN7@assign@2:
  0001e	8b c6		 mov	 eax, esi
$LN8@assign@2:
  00020	ff 75 0c	 push	 DWORD PTR __Count$[ebp]
  00023	2b d8		 sub	 ebx, eax
  00025	53		 push	 ebx
  00026	56		 push	 esi
  00027	8b ce		 mov	 ecx, esi
  00029	e8 00 00 00 00	 call	 ?assign@?$basic_string@DU?$char_traits@D@std@@V?$allocator@D@2@@std@@QAEAAV12@ABV12@II@Z ; std::basic_string<char,std::char_traits<char>,std::allocator<char> >::assign
  0002e	eb 3f		 jmp	 SHORT $LN3@assign@2
$LN2@assign@2:
  00030	57		 push	 edi

; 919  : 
; 920  : 		if (_Grow(_Count))

  00031	8b 7d 0c	 mov	 edi, DWORD PTR __Count$[ebp]
  00034	6a 00		 push	 0
  00036	57		 push	 edi
  00037	8b ce		 mov	 ecx, esi
  00039	e8 00 00 00 00	 call	 ?_Grow@?$basic_string@DU?$char_traits@D@std@@V?$allocator@D@2@@std@@QAE_NI_N@Z ; std::basic_string<char,std::char_traits<char>,std::allocator<char> >::_Grow
  0003e	84 c0		 test	 al, al
  00040	74 2a		 je	 SHORT $LN21@assign@2

; 921  : 			{	// make room and assign new stuff
; 922  : 			_Traits::copy(_Myptr(), _Ptr, _Count);

  00042	83 7e 14 10	 cmp	 DWORD PTR [esi+20], 16	; 00000010H
  00046	72 04		 jb	 SHORT $LN11@assign@2
  00048	8b 06		 mov	 eax, DWORD PTR [esi]
  0004a	eb 02		 jmp	 SHORT $LN12@assign@2
$LN11@assign@2:
  0004c	8b c6		 mov	 eax, esi
$LN12@assign@2:
  0004e	57		 push	 edi
  0004f	53		 push	 ebx
  00050	50		 push	 eax
  00051	e8 00 00 00 00	 call	 _memcpy
  00056	83 c4 0c	 add	 esp, 12			; 0000000cH

; 923  : 			_Eos(_Count);

  00059	83 7e 14 10	 cmp	 DWORD PTR [esi+20], 16	; 00000010H
  0005d	89 7e 10	 mov	 DWORD PTR [esi+16], edi
  00060	72 04		 jb	 SHORT $LN19@assign@2
  00062	8b 06		 mov	 eax, DWORD PTR [esi]
  00064	eb 02		 jmp	 SHORT $LN20@assign@2
$LN19@assign@2:
  00066	8b c6		 mov	 eax, esi
$LN20@assign@2:
  00068	c6 04 38 00	 mov	 BYTE PTR [eax+edi], 0
$LN21@assign@2:

; 924  : 			}
; 925  : 		return (*this);

  0006c	8b c6		 mov	 eax, esi
  0006e	5f		 pop	 edi
$LN3@assign@2:
  0006f	5e		 pop	 esi
  00070	5b		 pop	 ebx

; 926  : 		}

  00071	5d		 pop	 ebp
  00072	c2 08 00	 ret	 8
?assign@?$basic_string@DU?$char_traits@D@std@@V?$allocator@D@2@@std@@QAEAAV12@PBDI@Z ENDP ; std::basic_string<char,std::char_traits<char>,std::allocator<char> >::assign
_TEXT	ENDS
PUBLIC	?append@?$basic_string@DU?$char_traits@D@std@@V?$allocator@D@2@@std@@QAEAAV12@PBD@Z ; std::basic_string<char,std::char_traits<char>,std::allocator<char> >::append
; Function compile flags: /Ogsp
;	COMDAT ?append@?$basic_string@DU?$char_traits@D@std@@V?$allocator@D@2@@std@@QAEAAV12@PBD@Z
_TEXT	SEGMENT
__Ptr$ = 8						; size = 4
?append@?$basic_string@DU?$char_traits@D@std@@V?$allocator@D@2@@std@@QAEAAV12@PBD@Z PROC ; std::basic_string<char,std::char_traits<char>,std::allocator<char> >::append, COMDAT
; _this$ = ecx

; 839  : 		{	// append [_Ptr, <null>)

  00000	55		 push	 ebp
  00001	8b ec		 mov	 ebp, esp

; 840  : 		_DEBUG_POINTER(_Ptr);
; 841  : 		return (append(_Ptr, _Traits::length(_Ptr)));

  00003	8b 45 08	 mov	 eax, DWORD PTR __Ptr$[ebp]
  00006	8d 50 01	 lea	 edx, DWORD PTR [eax+1]
  00009	53		 push	 ebx
$LL5@append@3:
  0000a	8a 18		 mov	 bl, BYTE PTR [eax]
  0000c	40		 inc	 eax
  0000d	84 db		 test	 bl, bl
  0000f	75 f9		 jne	 SHORT $LL5@append@3
  00011	2b c2		 sub	 eax, edx
  00013	50		 push	 eax
  00014	ff 75 08	 push	 DWORD PTR __Ptr$[ebp]
  00017	e8 00 00 00 00	 call	 ?append@?$basic_string@DU?$char_traits@D@std@@V?$allocator@D@2@@std@@QAEAAV12@PBDI@Z ; std::basic_string<char,std::char_traits<char>,std::allocator<char> >::append
  0001c	5b		 pop	 ebx

; 842  : 		}

  0001d	5d		 pop	 ebp
  0001e	c2 04 00	 ret	 4
?append@?$basic_string@DU?$char_traits@D@std@@V?$allocator@D@2@@std@@QAEAAV12@PBD@Z ENDP ; std::basic_string<char,std::char_traits<char>,std::allocator<char> >::append
_TEXT	ENDS
PUBLIC	??$_Destroy_range@V?$allocator@VioHashString@@@std@@@std@@YAXPAVioHashString@@0AAV?$allocator@VioHashString@@@0@U_Nonscalar_ptr_iterator_tag@0@@Z ; std::_Destroy_range<std::allocator<ioHashString> >
; Function compile flags: /Ogsp
; File c:\program files (x86)\microsoft visual studio 10.0\vc\include\xmemory
;	COMDAT ??$_Destroy_range@V?$allocator@VioHashString@@@std@@@std@@YAXPAVioHashString@@0AAV?$allocator@VioHashString@@@0@U_Nonscalar_ptr_iterator_tag@0@@Z
_TEXT	SEGMENT
__First$ = 8						; size = 4
__Last$ = 12						; size = 4
__Al$ = 16						; size = 4
___formal$ = 20						; size = 1
??$_Destroy_range@V?$allocator@VioHashString@@@std@@@std@@YAXPAVioHashString@@0AAV?$allocator@VioHashString@@@0@U_Nonscalar_ptr_iterator_tag@0@@Z PROC ; std::_Destroy_range<std::allocator<ioHashString> >, COMDAT

; 95   : 	{	// destroy [_First, _Last), arbitrary type

  00000	55		 push	 ebp
  00001	8b ec		 mov	 ebp, esp
  00003	56		 push	 esi

; 96   : 	for (; _First != _Last; ++_First)

  00004	8b 75 08	 mov	 esi, DWORD PTR __First$[ebp]
  00007	eb 0b		 jmp	 SHORT $LN17@Destroy_ra
$LL3@Destroy_ra:

; 97   : 		_Dest_val(_Al, _First);

  00009	8b ce		 mov	 ecx, esi
  0000b	ff 15 00 00 00
	00		 call	 DWORD PTR __imp_??1ioHashString@@QAE@XZ
  00011	83 c6 10	 add	 esi, 16			; 00000010H
$LN17@Destroy_ra:

; 96   : 	for (; _First != _Last; ++_First)

  00014	3b 75 0c	 cmp	 esi, DWORD PTR __Last$[ebp]
  00017	75 f0		 jne	 SHORT $LL3@Destroy_ra
  00019	5e		 pop	 esi

; 98   : 	}

  0001a	5d		 pop	 ebp
  0001b	c3		 ret	 0
??$_Destroy_range@V?$allocator@VioHashString@@@std@@@std@@YAXPAVioHashString@@0AAV?$allocator@VioHashString@@@0@U_Nonscalar_ptr_iterator_tag@0@@Z ENDP ; std::_Destroy_range<std::allocator<ioHashString> >
_TEXT	ENDS
PUBLIC	??$_Destroy_range@V?$allocator@VGashaponPresent@@@std@@@std@@YAXPAVGashaponPresent@@0AAV?$allocator@VGashaponPresent@@@0@U_Nonscalar_ptr_iterator_tag@0@@Z ; std::_Destroy_range<std::allocator<GashaponPresent> >
; Function compile flags: /Ogsp
;	COMDAT ??$_Destroy_range@V?$allocator@VGashaponPresent@@@std@@@std@@YAXPAVGashaponPresent@@0AAV?$allocator@VGashaponPresent@@@0@U_Nonscalar_ptr_iterator_tag@0@@Z
_TEXT	SEGMENT
__First$ = 8						; size = 4
__Last$ = 12						; size = 4
__Al$ = 16						; size = 4
___formal$ = 20						; size = 1
??$_Destroy_range@V?$allocator@VGashaponPresent@@@std@@@std@@YAXPAVGashaponPresent@@0AAV?$allocator@VGashaponPresent@@@0@U_Nonscalar_ptr_iterator_tag@0@@Z PROC ; std::_Destroy_range<std::allocator<GashaponPresent> >, COMDAT

; 95   : 	{	// destroy [_First, _Last), arbitrary type

  00000	55		 push	 ebp
  00001	8b ec		 mov	 ebp, esp
  00003	56		 push	 esi

; 96   : 	for (; _First != _Last; ++_First)

  00004	8b 75 08	 mov	 esi, DWORD PTR __First$[ebp]
  00007	eb 0a		 jmp	 SHORT $LN17@Destroy_ra@2
$LL3@Destroy_ra@2:

; 97   : 		_Dest_val(_Al, _First);

  00009	8b ce		 mov	 ecx, esi
  0000b	e8 00 00 00 00	 call	 ??1GashaponPresent@@QAE@XZ ; GashaponPresent::~GashaponPresent
  00010	83 c6 14	 add	 esi, 20			; 00000014H
$LN17@Destroy_ra@2:

; 96   : 	for (; _First != _Last; ++_First)

  00013	3b 75 0c	 cmp	 esi, DWORD PTR __Last$[ebp]
  00016	75 f1		 jne	 SHORT $LL3@Destroy_ra@2
  00018	5e		 pop	 esi

; 98   : 	}

  00019	5d		 pop	 ebp
  0001a	c3		 ret	 0
??$_Destroy_range@V?$allocator@VGashaponPresent@@@std@@@std@@YAXPAVGashaponPresent@@0AAV?$allocator@VGashaponPresent@@@0@U_Nonscalar_ptr_iterator_tag@0@@Z ENDP ; std::_Destroy_range<std::allocator<GashaponPresent> >
_TEXT	ENDS
PUBLIC	??$_Destroy@V?$basic_string@DU?$char_traits@D@std@@V?$allocator@D@2@@std@@@std@@YAXPAV?$basic_string@DU?$char_traits@D@std@@V?$allocator@D@2@@0@@Z ; std::_Destroy<std::basic_string<char,std::char_traits<char>,std::allocator<char> > >
; Function compile flags: /Ogsp
;	COMDAT ??$_Destroy@V?$basic_string@DU?$char_traits@D@std@@V?$allocator@D@2@@std@@@std@@YAXPAV?$basic_string@DU?$char_traits@D@std@@V?$allocator@D@2@@0@@Z
_TEXT	SEGMENT
__Ptr$ = 8						; size = 4
??$_Destroy@V?$basic_string@DU?$char_traits@D@std@@V?$allocator@D@2@@std@@@std@@YAXPAV?$basic_string@DU?$char_traits@D@std@@V?$allocator@D@2@@0@@Z PROC ; std::_Destroy<std::basic_string<char,std::char_traits<char>,std::allocator<char> > >, COMDAT

; 62   : 	{	// destroy object at _Ptr

  00000	55		 push	 ebp
  00001	8b ec		 mov	 ebp, esp

; 63   : 	_Ptr->~_Ty();

  00003	8b 4d 08	 mov	 ecx, DWORD PTR __Ptr$[ebp]
  00006	6a 00		 push	 0
  00008	6a 01		 push	 1
  0000a	e8 00 00 00 00	 call	 ?_Tidy@?$basic_string@DU?$char_traits@D@std@@V?$allocator@D@2@@std@@QAEX_NI@Z ; std::basic_string<char,std::char_traits<char>,std::allocator<char> >::_Tidy

; 64   : 	}

  0000f	5d		 pop	 ebp
  00010	c3		 ret	 0
??$_Destroy@V?$basic_string@DU?$char_traits@D@std@@V?$allocator@D@2@@std@@@std@@YAXPAV?$basic_string@DU?$char_traits@D@std@@V?$allocator@D@2@@0@@Z ENDP ; std::_Destroy<std::basic_string<char,std::char_traits<char>,std::allocator<char> > >
_TEXT	ENDS
PUBLIC	??_C@_0BN@MMOLJODH@?$CFs?0?5Something?5wrong?$CB?$CB?0?5?$CFd?5?$CFd?$AA@ ; `string'
PUBLIC	??_C@_0BO@DMHKIFII@RisingGashaponWnd?3?3ProcessAni?$AA@ ; `string'
PUBLIC	?ProcessAni@RisingGashaponWnd@@IAEXXZ		; RisingGashaponWnd::ProcessAni
EXTRN	__imp_?HideChildWnd@ioWnd@@QAEXK_N@Z:PROC
EXTRN	__imp_?ShowChildWnd@ioWnd@@QAEXK_N@Z:PROC
EXTRN	?ChangeState@FSMStateMgr@@QAEHH@Z:PROC		; FSMStateMgr::ChangeState
EXTRN	?UpdateTime@FSMStateMgr@@QAEXXZ:PROC		; FSMStateMgr::UpdateTime
;	COMDAT ?iRandIndex@?L@??ProcessAni@RisingGashaponWnd@@IAEXXZ@4IA
; File c:\program files (x86)\microsoft visual studio 10.0\vc\include\vector
_BSS	SEGMENT
?iRandIndex@?L@??ProcessAni@RisingGashaponWnd@@IAEXXZ@4IA DD 01H DUP (?) ; `RisingGashaponWnd::ProcessAni'::`11'::iRandIndex
_BSS	ENDS
;	COMDAT ??_C@_0BN@MMOLJODH@?$CFs?0?5Something?5wrong?$CB?$CB?0?5?$CFd?5?$CFd?$AA@
CONST	SEGMENT
??_C@_0BN@MMOLJODH@?$CFs?0?5Something?5wrong?$CB?$CB?0?5?$CFd?5?$CFd?$AA@ DB '%'
	DB	's, Something wrong!!, %d %d', 00H		; `string'
CONST	ENDS
;	COMDAT ??_C@_0BO@DMHKIFII@RisingGashaponWnd?3?3ProcessAni?$AA@
CONST	SEGMENT
??_C@_0BO@DMHKIFII@RisingGashaponWnd?3?3ProcessAni?$AA@ DB 'RisingGashapo'
	DB	'nWnd::ProcessAni', 00H			; `string'
; Function compile flags: /Ogsp
; File d:\lost saga for developer\youtube\tutorial\source\src\lsclient\gui\risinggashaponwnd.cpp
CONST	ENDS
;	COMDAT ?ProcessAni@RisingGashaponWnd@@IAEXXZ
_TEXT	SEGMENT
tv544 = -8						; size = 4
$T522104 = -4						; size = 4
_i$513681 = -4						; size = 4
_randValue$513664 = -4					; size = 4
?ProcessAni@RisingGashaponWnd@@IAEXXZ PROC		; RisingGashaponWnd::ProcessAni, COMDAT
; _this$ = ecx

; 805  : {

  00000	55		 push	 ebp
  00001	8b ec		 mov	 ebp, esp
  00003	51		 push	 ecx
  00004	51		 push	 ecx
  00005	56		 push	 esi
  00006	8b f1		 mov	 esi, ecx
  00008	57		 push	 edi

; 806  : 	m_AniState.UpdateTime();

  00009	8d be 8c 01 00
	00		 lea	 edi, DWORD PTR [esi+396]
  0000f	8b cf		 mov	 ecx, edi
  00011	89 7d f8	 mov	 DWORD PTR tv544[ebp], edi
  00014	e8 00 00 00 00	 call	 ?UpdateTime@FSMStateMgr@@QAEXXZ ; FSMStateMgr::UpdateTime

; 807  : 
; 808  : 	if( m_AniState.GetCurState() == AT_SOUND )

  00019	8b 86 90 01 00
	00		 mov	 eax, DWORD PTR [esi+400]
  0001f	83 f8 02	 cmp	 eax, 2
  00022	75 33		 jne	 SHORT $LN26@ProcessAni

; 809  : 	{
; 810  : 		if( !m_szRollingSound.IsEmpty() )

  00024	81 c6 7c 01 00
	00		 add	 esi, 380		; 0000017cH
  0002a	8b ce		 mov	 ecx, esi
  0002c	ff 15 00 00 00
	00		 call	 DWORD PTR __imp_?IsEmpty@ioHashString@@QBE_NXZ
  00032	84 c0		 test	 al, al
  00034	75 13		 jne	 SHORT $LN25@ProcessAni

; 811  : 			g_SoundMgr.PlaySound( m_szRollingSound, DSBVOLUME_MAX, PSM_LOOP | PSM_THREAD );

  00036	6a 06		 push	 6
  00038	6a 00		 push	 0
  0003a	56		 push	 esi
  0003b	ff 15 00 00 00
	00		 call	 DWORD PTR __imp_?GetSingleton@ioSoundManager@@SAAAV1@XZ
  00041	8b c8		 mov	 ecx, eax
  00043	ff 15 00 00 00
	00		 call	 DWORD PTR __imp_?PlaySoundA@ioSoundManager@@QAEKABVioHashString@@HK@Z
$LN25@ProcessAni:

; 812  : 
; 813  : 		m_AniState.ChangeState( AT_ROLL );

  00049	6a 03		 push	 3
  0004b	8b cf		 mov	 ecx, edi
  0004d	e8 00 00 00 00	 call	 ?ChangeState@FSMStateMgr@@QAEHH@Z ; FSMStateMgr::ChangeState
  00052	e9 b1 01 00 00	 jmp	 $LN11@ProcessAni
$LN26@ProcessAni:
  00057	53		 push	 ebx

; 814  : 	}
; 815  : 	else if( m_AniState.GetCurState() == AT_CHANGE )

  00058	83 f8 04	 cmp	 eax, 4
  0005b	0f 85 93 00 00
	00		 jne	 $LN23@ProcessAni

; 816  : 	{
; 817  : 
; 818  : 		static unsigned int iRandIndex = 0;
; 819  : 
; 820  : 		// 증가
; 821  : 		++iRandIndex;
; 822  : 		if(iRandIndex >= m_vUnGettedIndexList.size())

  00061	8b 8e 0c 02 00
	00		 mov	 ecx, DWORD PTR [esi+524]
  00067	2b 8e 08 02 00
	00		 sub	 ecx, DWORD PTR [esi+520]
  0006d	ff 05 00 00 00
	00		 inc	 DWORD PTR ?iRandIndex@?L@??ProcessAni@RisingGashaponWnd@@IAEXXZ@4IA
  00073	c1 f9 02	 sar	 ecx, 2
  00076	39 0d 00 00 00
	00		 cmp	 DWORD PTR ?iRandIndex@?L@??ProcessAni@RisingGashaponWnd@@IAEXXZ@4IA, ecx
  0007c	72 07		 jb	 SHORT $LN158@ProcessAni

; 823  : 		{
; 824  : 			iRandIndex = 0;

  0007e	83 25 00 00 00
	00 00		 and	 DWORD PTR ?iRandIndex@?L@??ProcessAni@RisingGashaponWnd@@IAEXXZ@4IA, 0
$LN158@ProcessAni:

; 825  : 		}
; 826  : 		int randValue = m_vUnGettedIndexList[iRandIndex];

  00085	8b 86 08 02 00
	00		 mov	 eax, DWORD PTR [esi+520]
  0008b	8b 0d 00 00 00
	00		 mov	 ecx, DWORD PTR ?iRandIndex@?L@??ProcessAni@RisingGashaponWnd@@IAEXXZ@4IA
  00091	8b 04 88	 mov	 eax, DWORD PTR [eax+ecx*4]
  00094	89 45 fc	 mov	 DWORD PTR _randValue$513664[ebp], eax

; 827  : 
; 828  : 		for (int i = 0; i < MAX_ITEM; i++)

  00097	33 ff		 xor	 edi, edi
$LL21@ProcessAni:

; 829  : 		{
; 830  : 			int UIID = i + ID_ITEM_1;
; 831  : 			RisingGashaponItemInfoBtn *pCardBtn = static_cast< RisingGashaponItemInfoBtn * >( FindChildWnd( UIID ) );

  00099	8d 87 e9 03 00
	00		 lea	 eax, DWORD PTR [edi+1001]
  0009f	50		 push	 eax
  000a0	8b ce		 mov	 ecx, esi
  000a2	ff 15 00 00 00
	00		 call	 DWORD PTR __imp_?FindChildWnd@ioWnd@@QAEPAV1@K@Z
  000a8	8b d8		 mov	 ebx, eax

; 832  : 			if( !pCardBtn )

  000aa	85 db		 test	 ebx, ebx
  000ac	74 1b		 je	 SHORT $LN20@ProcessAni

; 833  : 				continue;
; 834  : 
; 835  : 			if( pCardBtn->IsEmptyCard() )

  000ae	8d 8b 14 02 00
	00		 lea	 ecx, DWORD PTR [ebx+532]
  000b4	e8 00 00 00 00	 call	 ?IsEmpty@GashaponPresent@@QAE_NXZ ; GashaponPresent::IsEmpty
  000b9	84 c0		 test	 al, al
  000bb	75 0c		 jne	 SHORT $LN20@ProcessAni

; 836  : 				continue;
; 837  : 
; 838  : 			if( i == randValue ) 

  000bd	3b 7d fc	 cmp	 edi, DWORD PTR _randValue$513664[ebp]
  000c0	0f 94 c0	 sete	 al
  000c3	88 83 29 02 00
	00		 mov	 BYTE PTR [ebx+553], al
$LN20@ProcessAni:

; 827  : 
; 828  : 		for (int i = 0; i < MAX_ITEM; i++)

  000c9	47		 inc	 edi
  000ca	83 ff 0a	 cmp	 edi, 10			; 0000000aH
  000cd	7c ca		 jl	 SHORT $LL21@ProcessAni

; 839  : 				pCardBtn->SetSelect( true );
; 840  : 			else
; 841  : 				pCardBtn->SetSelect( false );
; 842  : 		}	
; 843  : 
; 844  : 
; 845  : 		m_dwCurAniRollCnt++;

  000cf	ff 86 c0 01 00
	00		 inc	 DWORD PTR [esi+448]
  000d5	8b 86 c0 01 00
	00		 mov	 eax, DWORD PTR [esi+448]

; 846  : 		if( m_dwCurAniRollCnt >= m_dwAniRollCnt )
; 847  : 			m_AniState.ChangeState( AT_END );

  000db	8b 4d f8	 mov	 ecx, DWORD PTR tv544[ebp]
  000de	3b 86 bc 01 00
	00		 cmp	 eax, DWORD PTR [esi+444]
  000e4	72 07		 jb	 SHORT $LN14@ProcessAni
  000e6	6a 05		 push	 5

; 848  : 		else

  000e8	e9 15 01 00 00	 jmp	 $LN163@ProcessAni
$LN14@ProcessAni:

; 849  : 			m_AniState.ChangeState( AT_ROLL );

  000ed	6a 03		 push	 3
  000ef	e9 0e 01 00 00	 jmp	 $LN163@ProcessAni
$LN23@ProcessAni:

; 850  : 	}
; 851  : 	else if( m_AniState.GetCurState() == AT_END )

  000f4	83 f8 05	 cmp	 eax, 5
  000f7	0f 85 0a 01 00
	00		 jne	 $LN162@ProcessAni

; 852  : 	{
; 853  : 		if( !m_szRollingSound.IsEmpty() )

  000fd	8d be 7c 01 00
	00		 lea	 edi, DWORD PTR [esi+380]
  00103	8b cf		 mov	 ecx, edi
  00105	ff 15 00 00 00
	00		 call	 DWORD PTR __imp_?IsEmpty@ioHashString@@QBE_NXZ
  0010b	84 c0		 test	 al, al
  0010d	75 11		 jne	 SHORT $LN159@ProcessAni

; 854  : 			g_SoundMgr.StopSound( m_szRollingSound, 0 );

  0010f	6a 00		 push	 0
  00111	57		 push	 edi
  00112	ff 15 00 00 00
	00		 call	 DWORD PTR __imp_?GetSingleton@ioSoundManager@@SAAAV1@XZ
  00118	8b c8		 mov	 ecx, eax
  0011a	ff 15 00 00 00
	00		 call	 DWORD PTR __imp_?StopSound@ioSoundManager@@QAEXABVioHashString@@K@Z
$LN159@ProcessAni:

; 855  : 
; 856  : 
; 857  : 		for (int i = 0; i < MAX_ITEM; i++)

  00120	83 65 fc 00	 and	 DWORD PTR _i$513681[ebp], 0
  00124	8b 1d 00 00 00
	00		 mov	 ebx, DWORD PTR __imp_?FindChildWnd@ioWnd@@QAEPAV1@K@Z
$LL161@ProcessAni:

; 858  : 		{
; 859  : 			int UIID = i + ID_ITEM_1;
; 860  : 			RisingGashaponItemInfoBtn *pCardBtn = static_cast< RisingGashaponItemInfoBtn * >( FindChildWnd( UIID ) );

  0012a	8b 45 fc	 mov	 eax, DWORD PTR _i$513681[ebp]
  0012d	05 e9 03 00 00	 add	 eax, 1001		; 000003e9H
  00132	50		 push	 eax
  00133	8b ce		 mov	 ecx, esi
  00135	ff d3		 call	 ebx
  00137	8b f8		 mov	 edi, eax

; 861  : 			if( !pCardBtn )

  00139	85 ff		 test	 edi, edi
  0013b	74 15		 je	 SHORT $LN8@ProcessAni

; 862  : 				continue;
; 863  : 
; 864  : 			if( pCardBtn->IsEmptyCard() )

  0013d	8d 8f 14 02 00
	00		 lea	 ecx, DWORD PTR [edi+532]
  00143	e8 00 00 00 00	 call	 ?IsEmpty@GashaponPresent@@QAE_NXZ ; GashaponPresent::IsEmpty
  00148	84 c0		 test	 al, al
  0014a	75 06		 jne	 SHORT $LN8@ProcessAni

; 865  : 				continue;
; 866  : 
; 867  : 			pCardBtn->SetSelect( false );

  0014c	88 87 29 02 00
	00		 mov	 BYTE PTR [edi+553], al
$LN8@ProcessAni:

; 855  : 
; 856  : 
; 857  : 		for (int i = 0; i < MAX_ITEM; i++)

  00152	ff 45 fc	 inc	 DWORD PTR _i$513681[ebp]
  00155	83 7d fc 0a	 cmp	 DWORD PTR _i$513681[ebp], 10 ; 0000000aH
  00159	7c cf		 jl	 SHORT $LL161@ProcessAni

; 868  : 		}	
; 869  : 
; 870  : 		auto itGet = m_vGettedIndexList.rbegin();

  0015b	8b 86 fc 01 00
	00		 mov	 eax, DWORD PTR [esi+508]

; 871  : 		int getIndex = C_INVALID_INDEX;

  00161	83 cf ff	 or	 edi, -1

; 872  : 		if(itGet != m_vGettedIndexList.rend())

  00164	3b 86 f8 01 00
	00		 cmp	 eax, DWORD PTR [esi+504]
  0016a	74 20		 je	 SHORT $LN160@ProcessAni

; 873  : 		{
; 874  : 			getIndex = *itGet;

  0016c	8b 78 fc	 mov	 edi, DWORD PTR [eax-4]

; 875  : 
; 876  : 			DWORD getUIID = getIndex + ID_ITEM_1;

  0016f	8d 87 e9 03 00
	00		 lea	 eax, DWORD PTR [edi+1001]

; 877  : 			RisingGashaponItemInfoBtn *pCardBtn = static_cast< RisingGashaponItemInfoBtn * >( FindChildWnd( getUIID ) );

  00175	50		 push	 eax
  00176	8b ce		 mov	 ecx, esi
  00178	ff d3		 call	 ebx

; 878  : 			if( pCardBtn )

  0017a	85 c0		 test	 eax, eax
  0017c	74 0e		 je	 SHORT $LN160@ProcessAni

; 879  : 			{
; 880  : 				pCardBtn->SetGetCard(true);
; 881  : 				pCardBtn->SetGetEffect();

  0017e	8b c8		 mov	 ecx, eax
  00180	c6 80 28 02 00
	00 01		 mov	 BYTE PTR [eax+552], 1
  00187	e8 00 00 00 00	 call	 ?SetGetEffect@RisingGashaponItemInfoBtn@@QAEXXZ ; RisingGashaponItemInfoBtn::SetGetEffect
$LN160@ProcessAni:

; 882  : 			}
; 883  : 		}
; 884  : 
; 885  : 		// 못얻은 리스트 에서 제거 나중에 랜덤 리스트 생성에 사용
; 886  : 		auto itList = std::find(m_vUnGettedIndexList.begin(), m_vUnGettedIndexList.end(), getIndex);

  0018c	8b 96 0c 02 00
	00		 mov	 edx, DWORD PTR [esi+524]
  00192	8d 8e 08 02 00
	00		 lea	 ecx, DWORD PTR [esi+520]
  00198	8b 01		 mov	 eax, DWORD PTR [ecx]
  0019a	eb 07		 jmp	 SHORT $LN164@ProcessAni
$LL130@ProcessAni:
  0019c	39 38		 cmp	 DWORD PTR [eax], edi
  0019e	74 07		 je	 SHORT $LN154@ProcessAni
  001a0	83 c0 04	 add	 eax, 4
$LN164@ProcessAni:
  001a3	3b c2		 cmp	 eax, edx
  001a5	75 f5		 jne	 SHORT $LL130@ProcessAni
$LN154@ProcessAni:

; 887  : 		if(itList != m_vUnGettedIndexList.end())

  001a7	3b c2		 cmp	 eax, edx
  001a9	74 0c		 je	 SHORT $LN2@ProcessAni

; 888  : 		{
; 889  : 			m_vUnGettedIndexList.erase(itList);

  001ab	50		 push	 eax
  001ac	8d 45 fc	 lea	 eax, DWORD PTR $T522104[ebp]
  001af	50		 push	 eax
  001b0	e8 00 00 00 00	 call	 ?erase@?$vector@HV?$allocator@H@std@@@std@@QAE?AV?$_Vector_iterator@V?$_Vector_val@HV?$allocator@H@std@@@std@@@2@V?$_Vector_const_iterator@V?$_Vector_val@HV?$allocator@H@std@@@std@@@2@@Z ; std::vector<int,std::allocator<int> >::erase

; 890  : 		}
; 891  : 		else

  001b5	eb 22		 jmp	 SHORT $LN1@ProcessAni
$LN2@ProcessAni:

; 892  : 		{
; 893  : 			LOG.PrintTimeAndLog(0, "%s, Something wrong!!, %d %d", __FUNCTION__, m_iEtcItemType, getIndex);

  001b7	57		 push	 edi
  001b8	ff b6 c8 01 00
	00		 push	 DWORD PTR [esi+456]
  001be	68 00 00 00 00	 push	 OFFSET ??_C@_0BO@DMHKIFII@RisingGashaponWnd?3?3ProcessAni?$AA@
  001c3	68 00 00 00 00	 push	 OFFSET ??_C@_0BN@MMOLJODH@?$CFs?0?5Something?5wrong?$CB?$CB?0?5?$CFd?5?$CFd?$AA@
  001c8	6a 00		 push	 0
  001ca	ff 35 00 00 00
	00		 push	 DWORD PTR __imp_?LOG@@3VCLog@@A
  001d0	ff 15 00 00 00
	00		 call	 DWORD PTR __imp_?PrintTimeAndLog@CLog@@QAAXHPADZZ
  001d6	83 c4 18	 add	 esp, 24			; 00000018H
$LN1@ProcessAni:

; 894  : 		}
; 895  : 
; 896  : 
; 897  : 		// 가격 갱신
; 898  : 		SetTitleBuyBtn(m_iBuyCount);

  001d9	ff b6 f0 01 00
	00		 push	 DWORD PTR [esi+496]
  001df	8b ce		 mov	 ecx, esi
  001e1	e8 00 00 00 00	 call	 ?SetTitleBuyBtn@RisingGashaponWnd@@IAEXH@Z ; RisingGashaponWnd::SetTitleBuyBtn

; 899  : 
; 900  : 		ShowChildWnd( ID_BUY );

  001e6	33 ff		 xor	 edi, edi
  001e8	57		 push	 edi
  001e9	6a 02		 push	 2
  001eb	8b ce		 mov	 ecx, esi
  001ed	ff 15 00 00 00
	00		 call	 DWORD PTR __imp_?ShowChildWnd@ioWnd@@QAEXK_N@Z

; 901  : 		HideChildWnd( ID_WAITING );

  001f3	57		 push	 edi
  001f4	6a 03		 push	 3
  001f6	8b ce		 mov	 ecx, esi
  001f8	ff 15 00 00 00
	00		 call	 DWORD PTR __imp_?HideChildWnd@ioWnd@@QAEXK_N@Z

; 902  : 
; 903  : 		m_AniState.ChangeState( AT_NONE );

  001fe	8b 4d f8	 mov	 ecx, DWORD PTR tv544[ebp]
  00201	57		 push	 edi
$LN163@ProcessAni:
  00202	e8 00 00 00 00	 call	 ?ChangeState@FSMStateMgr@@QAEHH@Z ; FSMStateMgr::ChangeState
$LN162@ProcessAni:
  00207	5b		 pop	 ebx
$LN11@ProcessAni:
  00208	5f		 pop	 edi
  00209	5e		 pop	 esi

; 904  : 	}
; 905  : }

  0020a	c9		 leave
  0020b	c3		 ret	 0
?ProcessAni@RisingGashaponWnd@@IAEXXZ ENDP		; RisingGashaponWnd::ProcessAni
_TEXT	ENDS
PUBLIC	?push_back@?$vector@HV?$allocator@H@std@@@std@@QAEXABH@Z ; std::vector<int,std::allocator<int> >::push_back
; Function compile flags: /Ogsp
; File c:\program files (x86)\microsoft visual studio 10.0\vc\include\vector
;	COMDAT ?push_back@?$vector@HV?$allocator@H@std@@@std@@QAEXABH@Z
_TEXT	SEGMENT
__Val$ = 8						; size = 4
?push_back@?$vector@HV?$allocator@H@std@@@std@@QAEXABH@Z PROC ; std::vector<int,std::allocator<int> >::push_back, COMDAT
; _this$ = ecx

; 976  : 		{	// insert element at end

  00000	55		 push	 ebp
  00001	8b ec		 mov	 ebp, esp
  00003	56		 push	 esi
  00004	8b f1		 mov	 esi, ecx

; 977  : 		if (_Inside(_STD addressof(_Val)))

  00006	8b 46 04	 mov	 eax, DWORD PTR [esi+4]
  00009	57		 push	 edi
  0000a	8b 7d 08	 mov	 edi, DWORD PTR __Val$[ebp]
  0000d	3b f8		 cmp	 edi, eax
  0000f	73 27		 jae	 SHORT $LN4@push_back
  00011	8b 0e		 mov	 ecx, DWORD PTR [esi]
  00013	3b cf		 cmp	 ecx, edi
  00015	77 21		 ja	 SHORT $LN4@push_back

; 978  : 			{	// push back an element
; 979  : 			size_type _Idx = _STD addressof(_Val) - this->_Myfirst;

  00017	2b f9		 sub	 edi, ecx
  00019	c1 ff 02	 sar	 edi, 2

; 980  : 			if (this->_Mylast == this->_Myend)

  0001c	3b 46 08	 cmp	 eax, DWORD PTR [esi+8]
  0001f	75 09		 jne	 SHORT $LN3@push_back

; 981  : 				_Reserve(1);

  00021	6a 01		 push	 1
  00023	8b ce		 mov	 ecx, esi
  00025	e8 00 00 00 00	 call	 ?_Reserve@?$vector@HV?$allocator@H@std@@@std@@IAEXI@Z ; std::vector<int,std::allocator<int> >::_Reserve
$LN3@push_back:

; 982  : 			_Orphan_range(this->_Mylast, this->_Mylast);
; 983  : 			_Cons_val(this->_Alval,
; 984  : 				this->_Mylast,
; 985  : 				this->_Myfirst[_Idx]);

  0002a	8b 46 04	 mov	 eax, DWORD PTR [esi+4]
  0002d	85 c0		 test	 eax, eax
  0002f	74 20		 je	 SHORT $LN39@push_back
  00031	8b 0e		 mov	 ecx, DWORD PTR [esi]
  00033	8b 0c b9	 mov	 ecx, DWORD PTR [ecx+edi*4]

; 986  : 			++this->_Mylast;
; 987  : 			}
; 988  : 		else

  00036	eb 17		 jmp	 SHORT $LN46@push_back
$LN4@push_back:

; 989  : 			{	// push back a non-element
; 990  : 			if (this->_Mylast == this->_Myend)

  00038	3b 46 08	 cmp	 eax, DWORD PTR [esi+8]
  0003b	75 09		 jne	 SHORT $LN1@push_back

; 991  : 				_Reserve(1);

  0003d	6a 01		 push	 1
  0003f	8b ce		 mov	 ecx, esi
  00041	e8 00 00 00 00	 call	 ?_Reserve@?$vector@HV?$allocator@H@std@@@std@@IAEXI@Z ; std::vector<int,std::allocator<int> >::_Reserve
$LN1@push_back:

; 992  : 			_Orphan_range(this->_Mylast, this->_Mylast);
; 993  : 			_Cons_val(this->_Alval,
; 994  : 				this->_Mylast,
; 995  : 				_Val);

  00046	8b 46 04	 mov	 eax, DWORD PTR [esi+4]
  00049	85 c0		 test	 eax, eax
  0004b	74 04		 je	 SHORT $LN39@push_back
  0004d	8b 0f		 mov	 ecx, DWORD PTR [edi]
$LN46@push_back:
  0004f	89 08		 mov	 DWORD PTR [eax], ecx
$LN39@push_back:

; 996  : 			++this->_Mylast;

  00051	83 46 04 04	 add	 DWORD PTR [esi+4], 4
  00055	5f		 pop	 edi
  00056	5e		 pop	 esi

; 997  : 			}
; 998  : 		}

  00057	5d		 pop	 ebp
  00058	c2 04 00	 ret	 4
?push_back@?$vector@HV?$allocator@H@std@@@std@@QAEXABH@Z ENDP ; std::vector<int,std::allocator<int> >::push_back
_TEXT	ENDS
PUBLIC	??$_Uninitialized_move@PAVioHashString@@PAV1@V?$allocator@VioHashString@@@std@@@std@@YAPAVioHashString@@PAV1@00AAV?$allocator@VioHashString@@@0@@Z ; std::_Uninitialized_move<ioHashString *,ioHashString *,std::allocator<ioHashString> >
; Function compile flags: /Ogsp
; File c:\program files (x86)\microsoft visual studio 10.0\vc\include\memory
;	COMDAT ??$_Uninitialized_move@PAVioHashString@@PAV1@V?$allocator@VioHashString@@@std@@@std@@YAPAVioHashString@@PAV1@00AAV?$allocator@VioHashString@@@0@@Z
_TEXT	SEGMENT
__Cat$522609 = -4					; size = 1
__First$ = 8						; size = 4
__Last$ = 12						; size = 4
__Dest$ = 16						; size = 4
__Al$ = 20						; size = 4
??$_Uninitialized_move@PAVioHashString@@PAV1@V?$allocator@VioHashString@@@std@@@std@@YAPAVioHashString@@PAV1@00AAV?$allocator@VioHashString@@@0@@Z PROC ; std::_Uninitialized_move<ioHashString *,ioHashString *,std::allocator<ioHashString> >, COMDAT

; 469  : 	{	// move [_First, _Last) to raw _Dest, using _Al

  00000	55		 push	 ebp
  00001	8b ec		 mov	 ebp, esp
  00003	51		 push	 ecx

; 470  : 	return (_Uninit_move(_First, _Last, _Dest, _Al,
; 471  : 		_Val_type(_First), _Ptr_cat(_First, _Dest)));

  00004	ff 75 fc	 push	 DWORD PTR __Cat$522609[ebp]
  00007	6a 00		 push	 0
  00009	ff 75 14	 push	 DWORD PTR __Al$[ebp]
  0000c	ff 75 10	 push	 DWORD PTR __Dest$[ebp]
  0000f	ff 75 0c	 push	 DWORD PTR __Last$[ebp]
  00012	ff 75 08	 push	 DWORD PTR __First$[ebp]
  00015	e8 00 00 00 00	 call	 ??$_Uninit_move@PAVioHashString@@PAV1@V?$allocator@VioHashString@@@std@@V1@@std@@YAPAVioHashString@@PAV1@00AAV?$allocator@VioHashString@@@0@0U_Nonscalar_ptr_iterator_tag@0@@Z ; std::_Uninit_move<ioHashString *,ioHashString *,std::allocator<ioHashString>,ioHashString>
  0001a	83 c4 18	 add	 esp, 24			; 00000018H

; 472  : 	}

  0001d	c9		 leave
  0001e	c3		 ret	 0
??$_Uninitialized_move@PAVioHashString@@PAV1@V?$allocator@VioHashString@@@std@@@std@@YAPAVioHashString@@PAV1@00AAV?$allocator@VioHashString@@@0@@Z ENDP ; std::_Uninitialized_move<ioHashString *,ioHashString *,std::allocator<ioHashString> >
_TEXT	ENDS
PUBLIC	??$_Uninitialized_copy@PAVGashaponPresent@@PAV1@V?$allocator@VGashaponPresent@@@std@@@std@@YAPAVGashaponPresent@@PAV1@00AAV?$allocator@VGashaponPresent@@@0@@Z ; std::_Uninitialized_copy<GashaponPresent *,GashaponPresent *,std::allocator<GashaponPresent> >
; Function compile flags: /Ogsp
;	COMDAT ??$_Uninitialized_copy@PAVGashaponPresent@@PAV1@V?$allocator@VGashaponPresent@@@std@@@std@@YAPAVGashaponPresent@@PAV1@00AAV?$allocator@VGashaponPresent@@@0@@Z
_TEXT	SEGMENT
__Cat$522618 = -4					; size = 1
__First$ = 8						; size = 4
__Last$ = 12						; size = 4
__Dest$ = 16						; size = 4
__Al$ = 20						; size = 4
??$_Uninitialized_copy@PAVGashaponPresent@@PAV1@V?$allocator@VGashaponPresent@@@std@@@std@@YAPAVGashaponPresent@@PAV1@00AAV?$allocator@VGashaponPresent@@@0@@Z PROC ; std::_Uninitialized_copy<GashaponPresent *,GashaponPresent *,std::allocator<GashaponPresent> >, COMDAT

; 412  : 	{	// copy [_First, _Last) to raw _Dest, using _Al

  00000	55		 push	 ebp
  00001	8b ec		 mov	 ebp, esp
  00003	51		 push	 ecx

; 413  : 	return (_Uninit_copy(_First, _Last, _Dest, _Al,
; 414  : 		_Ptr_cat(_First, _Dest)));

  00004	ff 75 fc	 push	 DWORD PTR __Cat$522618[ebp]
  00007	ff 75 14	 push	 DWORD PTR __Al$[ebp]
  0000a	ff 75 10	 push	 DWORD PTR __Dest$[ebp]
  0000d	ff 75 0c	 push	 DWORD PTR __Last$[ebp]
  00010	ff 75 08	 push	 DWORD PTR __First$[ebp]
  00013	e8 00 00 00 00	 call	 ??$_Uninit_copy@PAVGashaponPresent@@PAV1@V?$allocator@VGashaponPresent@@@std@@@std@@YAPAVGashaponPresent@@PAV1@00AAV?$allocator@VGashaponPresent@@@0@U_Nonscalar_ptr_iterator_tag@0@@Z ; std::_Uninit_copy<GashaponPresent *,GashaponPresent *,std::allocator<GashaponPresent> >
  00018	83 c4 14	 add	 esp, 20			; 00000014H

; 415  : 	}

  0001b	c9		 leave
  0001c	c3		 ret	 0
??$_Uninitialized_copy@PAVGashaponPresent@@PAV1@V?$allocator@VGashaponPresent@@@std@@@std@@YAPAVGashaponPresent@@PAV1@00AAV?$allocator@VGashaponPresent@@@0@@Z ENDP ; std::_Uninitialized_copy<GashaponPresent *,GashaponPresent *,std::allocator<GashaponPresent> >
_TEXT	ENDS
PUBLIC	?assign@?$basic_string@DU?$char_traits@D@std@@V?$allocator@D@2@@std@@QAEAAV12@PBD@Z ; std::basic_string<char,std::char_traits<char>,std::allocator<char> >::assign
; Function compile flags: /Ogsp
; File c:\program files (x86)\microsoft visual studio 10.0\vc\include\xstring
;	COMDAT ?assign@?$basic_string@DU?$char_traits@D@std@@V?$allocator@D@2@@std@@QAEAAV12@PBD@Z
_TEXT	SEGMENT
__Ptr$ = 8						; size = 4
?assign@?$basic_string@DU?$char_traits@D@std@@V?$allocator@D@2@@std@@QAEAAV12@PBD@Z PROC ; std::basic_string<char,std::char_traits<char>,std::allocator<char> >::assign, COMDAT
; _this$ = ecx

; 929  : 		{	// assign [_Ptr, <null>)

  00000	55		 push	 ebp
  00001	8b ec		 mov	 ebp, esp

; 930  : 		_DEBUG_POINTER(_Ptr);
; 931  : 		return (assign(_Ptr, _Traits::length(_Ptr)));

  00003	8b 45 08	 mov	 eax, DWORD PTR __Ptr$[ebp]
  00006	8d 50 01	 lea	 edx, DWORD PTR [eax+1]
  00009	53		 push	 ebx
$LL5@assign@3:
  0000a	8a 18		 mov	 bl, BYTE PTR [eax]
  0000c	40		 inc	 eax
  0000d	84 db		 test	 bl, bl
  0000f	75 f9		 jne	 SHORT $LL5@assign@3
  00011	2b c2		 sub	 eax, edx
  00013	50		 push	 eax
  00014	ff 75 08	 push	 DWORD PTR __Ptr$[ebp]
  00017	e8 00 00 00 00	 call	 ?assign@?$basic_string@DU?$char_traits@D@std@@V?$allocator@D@2@@std@@QAEAAV12@PBDI@Z ; std::basic_string<char,std::char_traits<char>,std::allocator<char> >::assign
  0001c	5b		 pop	 ebx

; 932  : 		}

  0001d	5d		 pop	 ebp
  0001e	c2 04 00	 ret	 4
?assign@?$basic_string@DU?$char_traits@D@std@@V?$allocator@D@2@@std@@QAEAAV12@PBD@Z ENDP ; std::basic_string<char,std::char_traits<char>,std::allocator<char> >::assign
_TEXT	ENDS
PUBLIC	??$_Destroy_range@V?$allocator@VioHashString@@@std@@@std@@YAXPAVioHashString@@0AAV?$allocator@VioHashString@@@0@@Z ; std::_Destroy_range<std::allocator<ioHashString> >
; Function compile flags: /Ogsp
; File c:\program files (x86)\microsoft visual studio 10.0\vc\include\xmemory
;	COMDAT ??$_Destroy_range@V?$allocator@VioHashString@@@std@@@std@@YAXPAVioHashString@@0AAV?$allocator@VioHashString@@@0@@Z
_TEXT	SEGMENT
__First$ = 8						; size = 4
__Last$ = 12						; size = 4
__Al$ = 16						; size = 4
??$_Destroy_range@V?$allocator@VioHashString@@@std@@@std@@YAXPAVioHashString@@0AAV?$allocator@VioHashString@@@0@@Z PROC ; std::_Destroy_range<std::allocator<ioHashString> >, COMDAT

; 87   : 	{	// destroy [_First, _Last)

  00000	55		 push	 ebp
  00001	8b ec		 mov	 ebp, esp
  00003	56		 push	 esi

; 88   : 	_Destroy_range(_First, _Last, _Al, _Ptr_cat(_First, _Last));

  00004	8b 75 08	 mov	 esi, DWORD PTR __First$[ebp]
  00007	eb 0b		 jmp	 SHORT $LN21@Destroy_ra@3
$LL7@Destroy_ra@3:
  00009	8b ce		 mov	 ecx, esi
  0000b	ff 15 00 00 00
	00		 call	 DWORD PTR __imp_??1ioHashString@@QAE@XZ
  00011	83 c6 10	 add	 esi, 16			; 00000010H
$LN21@Destroy_ra@3:
  00014	3b 75 0c	 cmp	 esi, DWORD PTR __Last$[ebp]
  00017	75 f0		 jne	 SHORT $LL7@Destroy_ra@3
  00019	5e		 pop	 esi

; 89   : 	}

  0001a	5d		 pop	 ebp
  0001b	c3		 ret	 0
??$_Destroy_range@V?$allocator@VioHashString@@@std@@@std@@YAXPAVioHashString@@0AAV?$allocator@VioHashString@@@0@@Z ENDP ; std::_Destroy_range<std::allocator<ioHashString> >
_TEXT	ENDS
PUBLIC	??$_Destroy_range@V?$allocator@VGashaponPresent@@@std@@@std@@YAXPAVGashaponPresent@@0AAV?$allocator@VGashaponPresent@@@0@@Z ; std::_Destroy_range<std::allocator<GashaponPresent> >
; Function compile flags: /Ogsp
;	COMDAT ??$_Destroy_range@V?$allocator@VGashaponPresent@@@std@@@std@@YAXPAVGashaponPresent@@0AAV?$allocator@VGashaponPresent@@@0@@Z
_TEXT	SEGMENT
__First$ = 8						; size = 4
__Last$ = 12						; size = 4
__Al$ = 16						; size = 4
??$_Destroy_range@V?$allocator@VGashaponPresent@@@std@@@std@@YAXPAVGashaponPresent@@0AAV?$allocator@VGashaponPresent@@@0@@Z PROC ; std::_Destroy_range<std::allocator<GashaponPresent> >, COMDAT

; 87   : 	{	// destroy [_First, _Last)

  00000	55		 push	 ebp
  00001	8b ec		 mov	 ebp, esp
  00003	56		 push	 esi

; 88   : 	_Destroy_range(_First, _Last, _Al, _Ptr_cat(_First, _Last));

  00004	8b 75 08	 mov	 esi, DWORD PTR __First$[ebp]
  00007	eb 0a		 jmp	 SHORT $LN21@Destroy_ra@4
$LL7@Destroy_ra@4:
  00009	8b ce		 mov	 ecx, esi
  0000b	e8 00 00 00 00	 call	 ??1GashaponPresent@@QAE@XZ ; GashaponPresent::~GashaponPresent
  00010	83 c6 14	 add	 esi, 20			; 00000014H
$LN21@Destroy_ra@4:
  00013	3b 75 0c	 cmp	 esi, DWORD PTR __Last$[ebp]
  00016	75 f1		 jne	 SHORT $LL7@Destroy_ra@4
  00018	5e		 pop	 esi

; 89   : 	}

  00019	5d		 pop	 ebp
  0001a	c3		 ret	 0
??$_Destroy_range@V?$allocator@VGashaponPresent@@@std@@@std@@YAXPAVGashaponPresent@@0AAV?$allocator@VGashaponPresent@@@0@@Z ENDP ; std::_Destroy_range<std::allocator<GashaponPresent> >
_TEXT	ENDS
PUBLIC	??Y?$basic_string@DU?$char_traits@D@std@@V?$allocator@D@2@@std@@QAEAAV01@PBD@Z ; std::basic_string<char,std::char_traits<char>,std::allocator<char> >::operator+=
; Function compile flags: /Ogsp
; File c:\program files (x86)\microsoft visual studio 10.0\vc\include\xstring
;	COMDAT ??Y?$basic_string@DU?$char_traits@D@std@@V?$allocator@D@2@@std@@QAEAAV01@PBD@Z
_TEXT	SEGMENT
__Ptr$ = 8						; size = 4
??Y?$basic_string@DU?$char_traits@D@std@@V?$allocator@D@2@@std@@QAEAAV01@PBD@Z PROC ; std::basic_string<char,std::char_traits<char>,std::allocator<char> >::operator+=, COMDAT
; _this$ = ecx

; 783  : 		{	// append [_Ptr, <null>)

  00000	55		 push	 ebp
  00001	8b ec		 mov	 ebp, esp

; 785  : 		}

  00003	5d		 pop	 ebp

; 784  : 		return (append(_Ptr));

  00004	e9 00 00 00 00	 jmp	 ?append@?$basic_string@DU?$char_traits@D@std@@V?$allocator@D@2@@std@@QAEAAV12@PBD@Z ; std::basic_string<char,std::char_traits<char>,std::allocator<char> >::append
??Y?$basic_string@DU?$char_traits@D@std@@V?$allocator@D@2@@std@@QAEAAV01@PBD@Z ENDP ; std::basic_string<char,std::char_traits<char>,std::allocator<char> >::operator+=
_TEXT	ENDS
PUBLIC	?destroy@?$allocator@V?$basic_string@DU?$char_traits@D@std@@V?$allocator@D@2@@std@@@std@@QAEXPAV?$basic_string@DU?$char_traits@D@std@@V?$allocator@D@2@@2@@Z ; std::allocator<std::basic_string<char,std::char_traits<char>,std::allocator<char> > >::destroy
; Function compile flags: /Ogsp
; File c:\program files (x86)\microsoft visual studio 10.0\vc\include\xmemory
;	COMDAT ?destroy@?$allocator@V?$basic_string@DU?$char_traits@D@std@@V?$allocator@D@2@@std@@@std@@QAEXPAV?$basic_string@DU?$char_traits@D@std@@V?$allocator@D@2@@2@@Z
_TEXT	SEGMENT
__Ptr$ = 8						; size = 4
?destroy@?$allocator@V?$basic_string@DU?$char_traits@D@std@@V?$allocator@D@2@@std@@@std@@QAEXPAV?$basic_string@DU?$char_traits@D@std@@V?$allocator@D@2@@2@@Z PROC ; std::allocator<std::basic_string<char,std::char_traits<char>,std::allocator<char> > >::destroy, COMDAT
; _this$ = ecx

; 212  : 		{	// destroy object at _Ptr

  00000	55		 push	 ebp
  00001	8b ec		 mov	 ebp, esp

; 213  : 		_Destroy(_Ptr);

  00003	8b 4d 08	 mov	 ecx, DWORD PTR __Ptr$[ebp]
  00006	6a 00		 push	 0
  00008	6a 01		 push	 1
  0000a	e8 00 00 00 00	 call	 ?_Tidy@?$basic_string@DU?$char_traits@D@std@@V?$allocator@D@2@@std@@QAEX_NI@Z ; std::basic_string<char,std::char_traits<char>,std::allocator<char> >::_Tidy

; 214  : 		}

  0000f	5d		 pop	 ebp
  00010	c2 04 00	 ret	 4
?destroy@?$allocator@V?$basic_string@DU?$char_traits@D@std@@V?$allocator@D@2@@std@@@std@@QAEXPAV?$basic_string@DU?$char_traits@D@std@@V?$allocator@D@2@@2@@Z ENDP ; std::allocator<std::basic_string<char,std::char_traits<char>,std::allocator<char> > >::destroy
_TEXT	ENDS
PUBLIC	?OnProcess@RisingGashaponWnd@@MAEXM@Z		; RisingGashaponWnd::OnProcess
; Function compile flags: /Ogsp
; File d:\lost saga for developer\youtube\tutorial\source\src\lsclient\gui\risinggashaponwnd.cpp
;	COMDAT ?OnProcess@RisingGashaponWnd@@MAEXM@Z
_TEXT	SEGMENT
_fTimePerSec$ = 8					; size = 4
?OnProcess@RisingGashaponWnd@@MAEXM@Z PROC		; RisingGashaponWnd::OnProcess, COMDAT
; _this$ = ecx

; 757  : {

  00000	56		 push	 esi
  00001	8b f1		 mov	 esi, ecx

; 758  : 	if( !IsShow() )

  00003	ff 15 00 00 00
	00		 call	 DWORD PTR __imp_?IsShow@ioWnd@@QBE_NXZ
  00009	84 c0		 test	 al, al
  0000b	74 07		 je	 SHORT $LN2@OnProcess@2

; 759  : 		return;
; 760  : 
; 761  : 	ProcessAni();

  0000d	8b ce		 mov	 ecx, esi
  0000f	e8 00 00 00 00	 call	 ?ProcessAni@RisingGashaponWnd@@IAEXXZ ; RisingGashaponWnd::ProcessAni
$LN2@OnProcess@2:
  00014	5e		 pop	 esi

; 762  : }

  00015	c2 04 00	 ret	 4
?OnProcess@RisingGashaponWnd@@MAEXM@Z ENDP		; RisingGashaponWnd::OnProcess
_TEXT	ENDS
PUBLIC	?SetResult@RisingGashaponWnd@@QAEXABVGashaponPresent@@@Z ; RisingGashaponWnd::SetResult
EXTRN	??8@YA_NABVGashaponPresent@@0@Z:PROC		; operator==
; Function compile flags: /Ogsp
;	COMDAT ?SetResult@RisingGashaponWnd@@QAEXABVGashaponPresent@@@Z
_TEXT	SEGMENT
_bFind$ = -1						; size = 1
$T522771 = 8						; size = 4
_rkResultPresent$ = 8					; size = 4
?SetResult@RisingGashaponWnd@@QAEXABVGashaponPresent@@@Z PROC ; RisingGashaponWnd::SetResult, COMDAT
; _this$ = ecx

; 1057 : {

  00000	55		 push	 ebp
  00001	8b ec		 mov	 ebp, esp
  00003	51		 push	 ecx
  00004	53		 push	 ebx
  00005	56		 push	 esi
  00006	8b f1		 mov	 esi, ecx

; 1058 : 
; 1059 : 	m_dwCurAniRollCnt = 0;

  00008	33 db		 xor	 ebx, ebx

; 1060 : 	m_iBuyCount++;

  0000a	ff 86 f0 01 00
	00		 inc	 DWORD PTR [esi+496]
  00010	89 9e c0 01 00
	00		 mov	 DWORD PTR [esi+448], ebx

; 1061 : 	// 받은아이템 확인
; 1062 : 	bool bFind = false;
; 1063 : 	unsigned int iGettedItemIndex = C_INVALID_INDEX;
; 1064 : 	for( unsigned int i = 0; i < m_vGashaponItemList.size(); ++i )

  00016	8b 86 1c 02 00
	00		 mov	 eax, DWORD PTR [esi+540]
  0001c	2b 86 18 02 00
	00		 sub	 eax, DWORD PTR [esi+536]
  00022	57		 push	 edi
  00023	6a 14		 push	 20			; 00000014H
  00025	99		 cdq
  00026	59		 pop	 ecx
  00027	f7 f9		 idiv	 ecx
  00029	33 ff		 xor	 edi, edi
  0002b	88 5d ff	 mov	 BYTE PTR _bFind$[ebp], bl
  0002e	85 c0		 test	 eax, eax
  00030	74 31		 je	 SHORT $LN36@SetResult
$LL8@SetResult:

; 1065 : 	{
; 1066 : 		const GashaponPresent& rkRandom = m_vGashaponItemList[i];

  00032	8b 86 18 02 00
	00		 mov	 eax, DWORD PTR [esi+536]

; 1067 : 		if( rkRandom == rkResultPresent )

  00038	ff 75 08	 push	 DWORD PTR _rkResultPresent$[ebp]
  0003b	03 c3		 add	 eax, ebx
  0003d	50		 push	 eax
  0003e	e8 00 00 00 00	 call	 ??8@YA_NABVGashaponPresent@@0@Z ; operator==
  00043	59		 pop	 ecx
  00044	59		 pop	 ecx
  00045	84 c0		 test	 al, al
  00047	75 6e		 jne	 SHORT $LN34@SetResult

; 1061 : 	// 받은아이템 확인
; 1062 : 	bool bFind = false;
; 1063 : 	unsigned int iGettedItemIndex = C_INVALID_INDEX;
; 1064 : 	for( unsigned int i = 0; i < m_vGashaponItemList.size(); ++i )

  00049	8b 86 1c 02 00
	00		 mov	 eax, DWORD PTR [esi+540]
  0004f	2b 86 18 02 00
	00		 sub	 eax, DWORD PTR [esi+536]
  00055	6a 14		 push	 20			; 00000014H
  00057	99		 cdq
  00058	59		 pop	 ecx
  00059	f7 f9		 idiv	 ecx
  0005b	47		 inc	 edi
  0005c	83 c3 14	 add	 ebx, 20			; 00000014H
  0005f	3b f8		 cmp	 edi, eax
  00061	72 cf		 jb	 SHORT $LL8@SetResult
$LN36@SetResult:

; 1077 : 	{
; 1078 : 		ShowError(eERROR_NUM_TYPE_PRESENT_CANT_FIND);

  00063	6a 00		 push	 0
  00065	8b ce		 mov	 ecx, esi
  00067	e8 00 00 00 00	 call	 ?ShowError@RisingGashaponWnd@@IAEXW4ErrorNumType@1@@Z ; RisingGashaponWnd::ShowError
$LN4@SetResult:

; 1079 : 	}
; 1080 : 
; 1081 : 	// 랜덤 리스트 생성
; 1082 : 	std::random_shuffle(m_vUnGettedIndexList.begin(), m_vUnGettedIndexList.end());

  0006c	8b 86 0c 02 00
	00		 mov	 eax, DWORD PTR [esi+524]
  00072	8b 8e 08 02 00
	00		 mov	 ecx, DWORD PTR [esi+520]
  00078	50		 push	 eax
  00079	51		 push	 ecx
  0007a	e8 00 00 00 00	 call	 ??$random_shuffle@V?$_Vector_iterator@V?$_Vector_val@HV?$allocator@H@std@@@std@@@std@@@std@@YAXV?$_Vector_iterator@V?$_Vector_val@HV?$allocator@H@std@@@std@@@0@0@Z ; std::random_shuffle<std::_Vector_iterator<std::_Vector_val<int,std::allocator<int> > > >

; 1083 : 
; 1084 : 
; 1085 : 	if(m_vUnGettedIndexList.size() < 2 || !bFind)

  0007f	8b 86 0c 02 00
	00		 mov	 eax, DWORD PTR [esi+524]
  00085	2b 86 08 02 00
	00		 sub	 eax, DWORD PTR [esi+520]
  0008b	59		 pop	 ecx
  0008c	c1 f8 02	 sar	 eax, 2
  0008f	59		 pop	 ecx
  00090	83 f8 02	 cmp	 eax, 2
  00093	72 3a		 jb	 SHORT $LN2@SetResult
  00095	80 7d ff 00	 cmp	 BYTE PTR _bFind$[ebp], 0
  00099	74 34		 je	 SHORT $LN2@SetResult

; 1088 : 
; 1089 : 	}
; 1090 : 	else
; 1091 : 	{
; 1092 : 		HideChildWnd( ID_BUY );

  0009b	6a 00		 push	 0
  0009d	6a 02		 push	 2
  0009f	8b ce		 mov	 ecx, esi
  000a1	ff 15 00 00 00
	00		 call	 DWORD PTR __imp_?HideChildWnd@ioWnd@@QAEXK_N@Z

; 1093 : 		ShowChildWnd( ID_WAITING );

  000a7	6a 00		 push	 0
  000a9	6a 03		 push	 3
  000ab	8b ce		 mov	 ecx, esi
  000ad	ff 15 00 00 00
	00		 call	 DWORD PTR __imp_?ShowChildWnd@ioWnd@@QAEXK_N@Z

; 1094 : 
; 1095 : 		m_AniState.ChangeState( AT_WAIT );

  000b3	6a 01		 push	 1
  000b5	eb 1a		 jmp	 SHORT $LN37@SetResult
$LN34@SetResult:

; 1068 : 		{
; 1069 : 			iGettedItemIndex = i;
; 1070 : 			m_vGettedIndexList.push_back(iGettedItemIndex);

  000b7	8d 45 08	 lea	 eax, DWORD PTR $T522771[ebp]
  000ba	50		 push	 eax
  000bb	8d 8e f8 01 00
	00		 lea	 ecx, DWORD PTR [esi+504]
  000c1	89 7d 08	 mov	 DWORD PTR $T522771[ebp], edi
  000c4	e8 00 00 00 00	 call	 ?push_back@?$vector@HV?$allocator@H@std@@@std@@QAEXABH@Z ; std::vector<int,std::allocator<int> >::push_back

; 1071 : 			bFind = true;

  000c9	c6 45 ff 01	 mov	 BYTE PTR _bFind$[ebp], 1

; 1072 : 			break;
; 1073 : 		}
; 1074 : 	}
; 1075 : 
; 1076 : 	if(!bFind)

  000cd	eb 9d		 jmp	 SHORT $LN4@SetResult
$LN2@SetResult:

; 1086 : 	{
; 1087 : 		m_AniState.ChangeState( AT_END );

  000cf	6a 05		 push	 5
$LN37@SetResult:
  000d1	8d 8e 8c 01 00
	00		 lea	 ecx, DWORD PTR [esi+396]
  000d7	e8 00 00 00 00	 call	 ?ChangeState@FSMStateMgr@@QAEHH@Z ; FSMStateMgr::ChangeState
  000dc	5f		 pop	 edi
  000dd	5e		 pop	 esi
  000de	5b		 pop	 ebx

; 1096 : 	}
; 1097 : 
; 1098 : }

  000df	c9		 leave
  000e0	c2 04 00	 ret	 4
?SetResult@RisingGashaponWnd@@QAEXABVGashaponPresent@@@Z ENDP ; RisingGashaponWnd::SetResult
_TEXT	ENDS
PUBLIC	??$_Umove@PAVioHashString@@@?$vector@VioHashString@@V?$allocator@VioHashString@@@std@@@std@@IAEPAVioHashString@@PAV2@00@Z ; std::vector<ioHashString,std::allocator<ioHashString> >::_Umove<ioHashString *>
; Function compile flags: /Ogsp
; File c:\program files (x86)\microsoft visual studio 10.0\vc\include\vector
;	COMDAT ??$_Umove@PAVioHashString@@@?$vector@VioHashString@@V?$allocator@VioHashString@@@std@@@std@@IAEPAVioHashString@@PAV2@00@Z
_TEXT	SEGMENT
__First$ = 8						; size = 4
__Last$ = 12						; size = 4
__Ptr$ = 16						; size = 4
??$_Umove@PAVioHashString@@@?$vector@VioHashString@@V?$allocator@VioHashString@@@std@@@std@@IAEPAVioHashString@@PAV2@00@Z PROC ; std::vector<ioHashString,std::allocator<ioHashString> >::_Umove<ioHashString *>, COMDAT
; _this$ = ecx

; 1322 : 		pointer _Umove(_Iter _First, _Iter _Last, pointer _Ptr)

  00000	55		 push	 ebp
  00001	8b ec		 mov	 ebp, esp

; 1323 : 		{	// move initializing [_First, _Last), using allocator
; 1324 : 		return (_Uninitialized_move(_First, _Last,
; 1325 : 			_Ptr, this->_Alval));

  00003	83 c1 0c	 add	 ecx, 12			; 0000000cH
  00006	51		 push	 ecx
  00007	ff 75 10	 push	 DWORD PTR __Ptr$[ebp]
  0000a	ff 75 0c	 push	 DWORD PTR __Last$[ebp]
  0000d	ff 75 08	 push	 DWORD PTR __First$[ebp]
  00010	e8 00 00 00 00	 call	 ??$_Uninitialized_move@PAVioHashString@@PAV1@V?$allocator@VioHashString@@@std@@@std@@YAPAVioHashString@@PAV1@00AAV?$allocator@VioHashString@@@0@@Z ; std::_Uninitialized_move<ioHashString *,ioHashString *,std::allocator<ioHashString> >
  00015	83 c4 10	 add	 esp, 16			; 00000010H

; 1326 : 		}

  00018	5d		 pop	 ebp
  00019	c2 0c 00	 ret	 12			; 0000000cH
??$_Umove@PAVioHashString@@@?$vector@VioHashString@@V?$allocator@VioHashString@@@std@@@std@@IAEPAVioHashString@@PAV2@00@Z ENDP ; std::vector<ioHashString,std::allocator<ioHashString> >::_Umove<ioHashString *>
_TEXT	ENDS
PUBLIC	??$_Ucopy@PAVGashaponPresent@@@?$vector@VGashaponPresent@@V?$allocator@VGashaponPresent@@@std@@@std@@IAEPAVGashaponPresent@@PAV2@00@Z ; std::vector<GashaponPresent,std::allocator<GashaponPresent> >::_Ucopy<GashaponPresent *>
; Function compile flags: /Ogsp
;	COMDAT ??$_Ucopy@PAVGashaponPresent@@@?$vector@VGashaponPresent@@V?$allocator@VGashaponPresent@@@std@@@std@@IAEPAVGashaponPresent@@PAV2@00@Z
_TEXT	SEGMENT
__First$ = 8						; size = 4
__Last$ = 12						; size = 4
__Cat$522854 = 16					; size = 1
__Ptr$ = 16						; size = 4
??$_Ucopy@PAVGashaponPresent@@@?$vector@VGashaponPresent@@V?$allocator@VGashaponPresent@@@std@@@std@@IAEPAVGashaponPresent@@PAV2@00@Z PROC ; std::vector<GashaponPresent,std::allocator<GashaponPresent> >::_Ucopy<GashaponPresent *>, COMDAT
; _this$ = ecx

; 1315 : 		pointer _Ucopy(_Iter _First, _Iter _Last, pointer _Ptr)

  00000	55		 push	 ebp
  00001	8b ec		 mov	 ebp, esp

; 1316 : 		{	// copy initializing [_First, _Last), using allocator
; 1317 : 		return (_Uninitialized_copy(_First, _Last,
; 1318 : 			_Ptr, this->_Alval));

  00003	ff 75 10	 push	 DWORD PTR __Cat$522854[ebp]
  00006	83 c1 0c	 add	 ecx, 12			; 0000000cH
  00009	51		 push	 ecx
  0000a	ff 75 10	 push	 DWORD PTR __Ptr$[ebp]
  0000d	ff 75 0c	 push	 DWORD PTR __Last$[ebp]
  00010	ff 75 08	 push	 DWORD PTR __First$[ebp]
  00013	e8 00 00 00 00	 call	 ??$_Uninit_copy@PAVGashaponPresent@@PAV1@V?$allocator@VGashaponPresent@@@std@@@std@@YAPAVGashaponPresent@@PAV1@00AAV?$allocator@VGashaponPresent@@@0@U_Nonscalar_ptr_iterator_tag@0@@Z ; std::_Uninit_copy<GashaponPresent *,GashaponPresent *,std::allocator<GashaponPresent> >
  00018	83 c4 14	 add	 esp, 20			; 00000014H

; 1319 : 		}

  0001b	5d		 pop	 ebp
  0001c	c2 0c 00	 ret	 12			; 0000000cH
??$_Ucopy@PAVGashaponPresent@@@?$vector@VGashaponPresent@@V?$allocator@VGashaponPresent@@@std@@@std@@IAEPAVGashaponPresent@@PAV2@00@Z ENDP ; std::vector<GashaponPresent,std::allocator<GashaponPresent> >::_Ucopy<GashaponPresent *>
_TEXT	ENDS
PUBLIC	??0?$basic_string@DU?$char_traits@D@std@@V?$allocator@D@2@@std@@QAE@PBD@Z ; std::basic_string<char,std::char_traits<char>,std::allocator<char> >::basic_string<char,std::char_traits<char>,std::allocator<char> >
; Function compile flags: /Ogsp
; File c:\program files (x86)\microsoft visual studio 10.0\vc\include\xstring
;	COMDAT ??0?$basic_string@DU?$char_traits@D@std@@V?$allocator@D@2@@std@@QAE@PBD@Z
_TEXT	SEGMENT
__Ptr$ = 8						; size = 4
??0?$basic_string@DU?$char_traits@D@std@@V?$allocator@D@2@@std@@QAE@PBD@Z PROC ; std::basic_string<char,std::char_traits<char>,std::allocator<char> >::basic_string<char,std::char_traits<char>,std::allocator<char> >, COMDAT
; _this$ = ecx

; 592  : 		{	// construct from [_Ptr, <null>)

  00000	55		 push	 ebp
  00001	8b ec		 mov	 ebp, esp
  00003	56		 push	 esi

; 593  : 		_Tidy();
; 594  : 		assign(_Ptr);

  00004	ff 75 08	 push	 DWORD PTR __Ptr$[ebp]
  00007	8b f1		 mov	 esi, ecx
  00009	83 66 10 00	 and	 DWORD PTR [esi+16], 0
  0000d	c7 46 14 0f 00
	00 00		 mov	 DWORD PTR [esi+20], 15	; 0000000fH
  00014	c6 06 00	 mov	 BYTE PTR [esi], 0
  00017	e8 00 00 00 00	 call	 ?assign@?$basic_string@DU?$char_traits@D@std@@V?$allocator@D@2@@std@@QAEAAV12@PBD@Z ; std::basic_string<char,std::char_traits<char>,std::allocator<char> >::assign

; 595  : 		}

  0001c	8b c6		 mov	 eax, esi
  0001e	5e		 pop	 esi
  0001f	5d		 pop	 ebp
  00020	c2 04 00	 ret	 4
??0?$basic_string@DU?$char_traits@D@std@@V?$allocator@D@2@@std@@QAE@PBD@Z ENDP ; std::basic_string<char,std::char_traits<char>,std::allocator<char> >::basic_string<char,std::char_traits<char>,std::allocator<char> >
_TEXT	ENDS
PUBLIC	?_Destroy@?$vector@VioHashString@@V?$allocator@VioHashString@@@std@@@std@@IAEXPAVioHashString@@0@Z ; std::vector<ioHashString,std::allocator<ioHashString> >::_Destroy
; Function compile flags: /Ogsp
; File c:\program files (x86)\microsoft visual studio 10.0\vc\include\vector
;	COMDAT ?_Destroy@?$vector@VioHashString@@V?$allocator@VioHashString@@@std@@@std@@IAEXPAVioHashString@@0@Z
_TEXT	SEGMENT
__First$ = 8						; size = 4
__Last$ = 12						; size = 4
?_Destroy@?$vector@VioHashString@@V?$allocator@VioHashString@@@std@@@std@@IAEXPAVioHashString@@0@Z PROC ; std::vector<ioHashString,std::allocator<ioHashString> >::_Destroy, COMDAT
; _this$ = ecx

; 1269 : 		{	// destroy [_First, _Last) using allocator

  00000	55		 push	 ebp
  00001	8b ec		 mov	 ebp, esp
  00003	56		 push	 esi

; 1270 : 		_Destroy_range(_First, _Last, this->_Alval);

  00004	8b 75 08	 mov	 esi, DWORD PTR __First$[ebp]
  00007	eb 0b		 jmp	 SHORT $LN23@Destroy
$LL9@Destroy:
  00009	8b ce		 mov	 ecx, esi
  0000b	ff 15 00 00 00
	00		 call	 DWORD PTR __imp_??1ioHashString@@QAE@XZ
  00011	83 c6 10	 add	 esi, 16			; 00000010H
$LN23@Destroy:
  00014	3b 75 0c	 cmp	 esi, DWORD PTR __Last$[ebp]
  00017	75 f0		 jne	 SHORT $LL9@Destroy
  00019	5e		 pop	 esi

; 1271 : 		}

  0001a	5d		 pop	 ebp
  0001b	c2 08 00	 ret	 8
?_Destroy@?$vector@VioHashString@@V?$allocator@VioHashString@@@std@@@std@@IAEXPAVioHashString@@0@Z ENDP ; std::vector<ioHashString,std::allocator<ioHashString> >::_Destroy
_TEXT	ENDS
PUBLIC	?_Destroy@?$vector@VGashaponPresent@@V?$allocator@VGashaponPresent@@@std@@@std@@IAEXPAVGashaponPresent@@0@Z ; std::vector<GashaponPresent,std::allocator<GashaponPresent> >::_Destroy
; Function compile flags: /Ogsp
;	COMDAT ?_Destroy@?$vector@VGashaponPresent@@V?$allocator@VGashaponPresent@@@std@@@std@@IAEXPAVGashaponPresent@@0@Z
_TEXT	SEGMENT
__First$ = 8						; size = 4
__Last$ = 12						; size = 4
?_Destroy@?$vector@VGashaponPresent@@V?$allocator@VGashaponPresent@@@std@@@std@@IAEXPAVGashaponPresent@@0@Z PROC ; std::vector<GashaponPresent,std::allocator<GashaponPresent> >::_Destroy, COMDAT
; _this$ = ecx

; 1269 : 		{	// destroy [_First, _Last) using allocator

  00000	55		 push	 ebp
  00001	8b ec		 mov	 ebp, esp
  00003	56		 push	 esi

; 1270 : 		_Destroy_range(_First, _Last, this->_Alval);

  00004	8b 75 08	 mov	 esi, DWORD PTR __First$[ebp]
  00007	eb 0a		 jmp	 SHORT $LN23@Destroy@2
$LL9@Destroy@2:
  00009	8b ce		 mov	 ecx, esi
  0000b	e8 00 00 00 00	 call	 ??1GashaponPresent@@QAE@XZ ; GashaponPresent::~GashaponPresent
  00010	83 c6 14	 add	 esi, 20			; 00000014H
$LN23@Destroy@2:
  00013	3b 75 0c	 cmp	 esi, DWORD PTR __Last$[ebp]
  00016	75 f1		 jne	 SHORT $LL9@Destroy@2
  00018	5e		 pop	 esi

; 1271 : 		}

  00019	5d		 pop	 ebp
  0001a	c2 08 00	 ret	 8
?_Destroy@?$vector@VGashaponPresent@@V?$allocator@VGashaponPresent@@@std@@@std@@IAEXPAVGashaponPresent@@0@Z ENDP ; std::vector<GashaponPresent,std::allocator<GashaponPresent> >::_Destroy
_TEXT	ENDS
PUBLIC	??$_Dest_val@V?$allocator@V?$basic_string@DU?$char_traits@D@std@@V?$allocator@D@2@@std@@@std@@V?$basic_string@DU?$char_traits@D@std@@V?$allocator@D@2@@2@@std@@YAXAAV?$allocator@V?$basic_string@DU?$char_traits@D@std@@V?$allocator@D@2@@std@@@0@PAV?$basic_string@DU?$char_traits@D@std@@V?$allocator@D@2@@0@@Z ; std::_Dest_val<std::allocator<std::basic_string<char,std::char_traits<char>,std::allocator<char> > >,std::basic_string<char,std::char_traits<char>,std::allocator<char> > >
; Function compile flags: /Ogsp
; File c:\program files (x86)\microsoft visual studio 10.0\vc\include\xmemory
;	COMDAT ??$_Dest_val@V?$allocator@V?$basic_string@DU?$char_traits@D@std@@V?$allocator@D@2@@std@@@std@@V?$basic_string@DU?$char_traits@D@std@@V?$allocator@D@2@@2@@std@@YAXAAV?$allocator@V?$basic_string@DU?$char_traits@D@std@@V?$allocator@D@2@@std@@@0@PAV?$basic_string@DU?$char_traits@D@std@@V?$allocator@D@2@@0@@Z
_TEXT	SEGMENT
__Alval$ = 8						; size = 4
__Pdest$ = 12						; size = 4
??$_Dest_val@V?$allocator@V?$basic_string@DU?$char_traits@D@std@@V?$allocator@D@2@@std@@@std@@V?$basic_string@DU?$char_traits@D@std@@V?$allocator@D@2@@2@@std@@YAXAAV?$allocator@V?$basic_string@DU?$char_traits@D@std@@V?$allocator@D@2@@std@@@0@PAV?$basic_string@DU?$char_traits@D@std@@V?$allocator@D@2@@0@@Z PROC ; std::_Dest_val<std::allocator<std::basic_string<char,std::char_traits<char>,std::allocator<char> > >,std::basic_string<char,std::char_traits<char>,std::allocator<char> > >, COMDAT

; 286  : 	{	// destroy using allocator

  00000	55		 push	 ebp
  00001	8b ec		 mov	 ebp, esp

; 287  : 	_Alval.destroy(_Pdest);

  00003	8b 4d 0c	 mov	 ecx, DWORD PTR __Pdest$[ebp]
  00006	6a 00		 push	 0
  00008	6a 01		 push	 1
  0000a	e8 00 00 00 00	 call	 ?_Tidy@?$basic_string@DU?$char_traits@D@std@@V?$allocator@D@2@@std@@QAEX_NI@Z ; std::basic_string<char,std::char_traits<char>,std::allocator<char> >::_Tidy

; 288  : 	}

  0000f	5d		 pop	 ebp
  00010	c3		 ret	 0
??$_Dest_val@V?$allocator@V?$basic_string@DU?$char_traits@D@std@@V?$allocator@D@2@@std@@@std@@V?$basic_string@DU?$char_traits@D@std@@V?$allocator@D@2@@2@@std@@YAXAAV?$allocator@V?$basic_string@DU?$char_traits@D@std@@V?$allocator@D@2@@std@@@0@PAV?$basic_string@DU?$char_traits@D@std@@V?$allocator@D@2@@0@@Z ENDP ; std::_Dest_val<std::allocator<std::basic_string<char,std::char_traits<char>,std::allocator<char> > >,std::basic_string<char,std::char_traits<char>,std::allocator<char> > >
_TEXT	ENDS
PUBLIC	?reserve@?$vector@VioHashString@@V?$allocator@VioHashString@@@std@@@std@@QAEXI@Z ; std::vector<ioHashString,std::allocator<ioHashString> >::reserve
;	COMDAT xdata$x
xdata$x	SEGMENT
__catchsym$?reserve@?$vector@VioHashString@@V?$allocator@VioHashString@@@std@@@std@@QAEXI@Z$2 DD 040H
	DD	00H
	DD	00H
	DD	FLAT:__catch$?reserve@?$vector@VioHashString@@V?$allocator@VioHashString@@@std@@@std@@QAEXI@Z$0
__unwindtable$?reserve@?$vector@VioHashString@@V?$allocator@VioHashString@@@std@@@std@@QAEXI@Z DD 0ffffffffH
	DD	00H
	DD	0ffffffffH
	DD	00H
__tryblocktable$?reserve@?$vector@VioHashString@@V?$allocator@VioHashString@@@std@@@std@@QAEXI@Z DD 00H
	DD	00H
	DD	01H
	DD	01H
	DD	FLAT:__catchsym$?reserve@?$vector@VioHashString@@V?$allocator@VioHashString@@@std@@@std@@QAEXI@Z$2
__ehfuncinfo$?reserve@?$vector@VioHashString@@V?$allocator@VioHashString@@@std@@@std@@QAEXI@Z DD 019930522H
	DD	02H
	DD	FLAT:__unwindtable$?reserve@?$vector@VioHashString@@V?$allocator@VioHashString@@@std@@@std@@QAEXI@Z
	DD	01H
	DD	FLAT:__tryblocktable$?reserve@?$vector@VioHashString@@V?$allocator@VioHashString@@@std@@@std@@QAEXI@Z
	DD	2 DUP(00H)
	DD	00H
	DD	01H
; Function compile flags: /Ogsp
; File c:\program files (x86)\microsoft visual studio 10.0\vc\include\vector
xdata$x	ENDS
;	COMDAT ?reserve@?$vector@VioHashString@@V?$allocator@VioHashString@@@std@@@std@@QAEXI@Z
_TEXT	SEGMENT
tv300 = -24						; size = 4
__Ptr$514117 = -20					; size = 4
__$EHRec$ = -16						; size = 16
$T523204 = 8						; size = 4
__Count$ = 8						; size = 4
?reserve@?$vector@VioHashString@@V?$allocator@VioHashString@@@std@@@std@@QAEXI@Z PROC ; std::vector<ioHashString,std::allocator<ioHashString> >::reserve, COMDAT
; _this$ = ecx

; 746  : 		{	// determine new minimum length of allocated storage

  00000	6a 0c		 push	 12			; 0000000cH
  00002	b8 00 00 00 00	 mov	 eax, __ehhandler$?reserve@?$vector@VioHashString@@V?$allocator@VioHashString@@@std@@@std@@QAEXI@Z
  00007	e8 00 00 00 00	 call	 __EH_prolog3_catch
  0000c	8b f1		 mov	 esi, ecx

; 747  : 		if (max_size() < _Count)

  0000e	8b 5d 08	 mov	 ebx, DWORD PTR __Count$[ebp]
  00011	81 fb ff ff ff
	0f		 cmp	 ebx, 268435455		; 0fffffffH
  00017	76 0b		 jbe	 SHORT $LN5@reserve@2

; 748  : 			_Xlen();	// result too long

  00019	68 00 00 00 00	 push	 OFFSET ??_C@_0BD@OLBABOEK@vector?$DMT?$DO?5too?5long?$AA@
  0001e	ff 15 00 00 00
	00		 call	 DWORD PTR __imp_?_Xlength_error@std@@YAXPBD@Z
$LN59@reserve@2:
$LN5@reserve@2:

; 749  : 		else if (capacity() < _Count)

  00024	8b 46 08	 mov	 eax, DWORD PTR [esi+8]
  00027	2b 06		 sub	 eax, DWORD PTR [esi]
  00029	c1 f8 04	 sar	 eax, 4
  0002c	3b c3		 cmp	 eax, ebx
  0002e	73 7a		 jae	 SHORT $LN3@reserve@2

; 750  : 			{	// not enough room, reallocate
; 751  : 			pointer _Ptr = this->_Alval.allocate(_Count);

  00030	6a 00		 push	 0
  00032	53		 push	 ebx
  00033	e8 00 00 00 00	 call	 ??$_Allocate@VioHashString@@@std@@YAPAVioHashString@@IPAV1@@Z ; std::_Allocate<ioHashString>

; 752  : 
; 753  : 			_TRY_BEGIN
; 754  : 			_Umove(this->_Myfirst, this->_Mylast, _Ptr);

  00038	8b 0e		 mov	 ecx, DWORD PTR [esi]
  0003a	83 65 fc 00	 and	 DWORD PTR __$EHRec$[ebp+12], 0
  0003e	8d 56 0c	 lea	 edx, DWORD PTR [esi+12]
  00041	52		 push	 edx
  00042	89 45 ec	 mov	 DWORD PTR __Ptr$514117[ebp], eax
  00045	ff 75 ec	 push	 DWORD PTR __Ptr$514117[ebp]
  00048	8b 46 04	 mov	 eax, DWORD PTR [esi+4]
  0004b	50		 push	 eax
  0004c	51		 push	 ecx
  0004d	e8 00 00 00 00	 call	 ??$_Uninitialized_move@PAVioHashString@@PAV1@V?$allocator@VioHashString@@@std@@@std@@YAPAVioHashString@@PAV1@00AAV?$allocator@VioHashString@@@0@@Z ; std::_Uninitialized_move<ioHashString *,ioHashString *,std::allocator<ioHashString> >

; 758  : 			_CATCH_END
; 759  : 
; 760  : 			size_type _Size = size();

  00052	8b 4e 04	 mov	 ecx, DWORD PTR [esi+4]
  00055	8b 06		 mov	 eax, DWORD PTR [esi]
  00057	83 4d fc ff	 or	 DWORD PTR __$EHRec$[ebp+12], -1
  0005b	8b f9		 mov	 edi, ecx
  0005d	83 c4 18	 add	 esp, 24			; 00000018H
  00060	2b f8		 sub	 edi, eax
  00062	89 4d e8	 mov	 DWORD PTR tv300[ebp], ecx
  00065	85 c0		 test	 eax, eax
  00067	74 24		 je	 SHORT $LN51@reserve@2

; 761  : 			if (this->_Myfirst != 0)
; 762  : 				{	// destroy and deallocate old array
; 763  : 				_Destroy(this->_Myfirst, this->_Mylast);

  00069	89 45 08	 mov	 DWORD PTR $T523204[ebp], eax
  0006c	3b c1		 cmp	 eax, ecx
  0006e	74 15		 je	 SHORT $LN37@reserve@2
$LN39@reserve@2:
  00070	8b 4d 08	 mov	 ecx, DWORD PTR $T523204[ebp]
  00073	ff 15 00 00 00
	00		 call	 DWORD PTR __imp_??1ioHashString@@QAE@XZ
  00079	83 45 08 10	 add	 DWORD PTR $T523204[ebp], 16 ; 00000010H
  0007d	8b 45 08	 mov	 eax, DWORD PTR $T523204[ebp]
  00080	3b 45 e8	 cmp	 eax, DWORD PTR tv300[ebp]
  00083	75 eb		 jne	 SHORT $LN39@reserve@2
$LN37@reserve@2:

; 764  : 				this->_Alval.deallocate(this->_Myfirst,
; 765  : 					this->_Myend - this->_Myfirst);

  00085	ff 36		 push	 DWORD PTR [esi]
  00087	e8 00 00 00 00	 call	 ??3@YAXPAX@Z		; operator delete
  0008c	59		 pop	 ecx
$LN51@reserve@2:

; 766  : 				}
; 767  : 
; 768  : 			this->_Orphan_all();

  0008d	8b ce		 mov	 ecx, esi
  0008f	ff 15 00 00 00
	00		 call	 DWORD PTR __imp_?_Orphan_all@_Container_base0@std@@QAEXXZ

; 769  : 			this->_Myend = _Ptr + _Count;

  00095	8b 45 ec	 mov	 eax, DWORD PTR __Ptr$514117[ebp]
  00098	c1 e3 04	 shl	 ebx, 4
  0009b	03 d8		 add	 ebx, eax

; 770  : 			this->_Mylast = _Ptr + _Size;

  0009d	83 e7 f0	 and	 edi, -16		; fffffff0H
  000a0	03 f8		 add	 edi, eax
  000a2	89 5e 08	 mov	 DWORD PTR [esi+8], ebx
  000a5	89 7e 04	 mov	 DWORD PTR [esi+4], edi

; 771  : 			this->_Myfirst = _Ptr;

  000a8	89 06		 mov	 DWORD PTR [esi], eax
$LN3@reserve@2:

; 772  : 			}
; 773  : 		}

  000aa	e8 00 00 00 00	 call	 __EH_epilog3
  000af	c2 04 00	 ret	 4
__catch$?reserve@?$vector@VioHashString@@V?$allocator@VioHashString@@@std@@@std@@QAEXI@Z$0:

; 755  : 			_CATCH_ALL
; 756  : 			this->_Alval.deallocate(_Ptr, _Count);

  000b2	ff 75 ec	 push	 DWORD PTR __Ptr$514117[ebp]
  000b5	e8 00 00 00 00	 call	 ??3@YAXPAX@Z		; operator delete
  000ba	59		 pop	 ecx

; 757  : 			_RERAISE;

  000bb	6a 00		 push	 0
  000bd	6a 00		 push	 0
  000bf	e8 00 00 00 00	 call	 __CxxThrowException@8
$LN60@reserve@2:
$LN58@reserve@2:
  000c4	cc		 int	 3
_TEXT	ENDS
;	COMDAT text$x
text$x	SEGMENT
__ehhandler$?reserve@?$vector@VioHashString@@V?$allocator@VioHashString@@@std@@@std@@QAEXI@Z:
  00000	8b 54 24 08	 mov	 edx, DWORD PTR [esp+8]
  00004	8d 42 0c	 lea	 eax, DWORD PTR [edx+12]
  00007	8b 4a e4	 mov	 ecx, DWORD PTR [edx-28]
  0000a	33 c8		 xor	 ecx, eax
  0000c	e8 00 00 00 00	 call	 @__security_check_cookie@4
  00011	b8 00 00 00 00	 mov	 eax, OFFSET __ehfuncinfo$?reserve@?$vector@VioHashString@@V?$allocator@VioHashString@@@std@@@std@@QAEXI@Z
  00016	e9 00 00 00 00	 jmp	 ___CxxFrameHandler3
text$x	ENDS
?reserve@?$vector@VioHashString@@V?$allocator@VioHashString@@@std@@@std@@QAEXI@Z ENDP ; std::vector<ioHashString,std::allocator<ioHashString> >::reserve
PUBLIC	?_Reserve@?$vector@VioHashString@@V?$allocator@VioHashString@@@std@@@std@@IAEXI@Z ; std::vector<ioHashString,std::allocator<ioHashString> >::_Reserve
; Function compile flags: /Ogsp
;	COMDAT ?_Reserve@?$vector@VioHashString@@V?$allocator@VioHashString@@@std@@@std@@IAEXI@Z
_TEXT	SEGMENT
__Count$ = 8						; size = 4
?_Reserve@?$vector@VioHashString@@V?$allocator@VioHashString@@@std@@@std@@IAEXI@Z PROC ; std::vector<ioHashString,std::allocator<ioHashString> >::_Reserve, COMDAT
; _this$ = ecx

; 1290 : 		{	// ensure room for _Count new elements, grow exponentially

  00000	55		 push	 ebp
  00001	8b ec		 mov	 ebp, esp
  00003	56		 push	 esi
  00004	8b f1		 mov	 esi, ecx

; 1291 : 		size_type _Size = size();

  00006	8b 0e		 mov	 ecx, DWORD PTR [esi]
  00008	8b 46 04	 mov	 eax, DWORD PTR [esi+4]
  0000b	2b c1		 sub	 eax, ecx

; 1292 : 		if (max_size() - _Count < _Size)

  0000d	ba ff ff ff 0f	 mov	 edx, 268435455		; 0fffffffH
  00012	2b 55 08	 sub	 edx, DWORD PTR __Count$[ebp]
  00015	c1 f8 04	 sar	 eax, 4
  00018	3b d0		 cmp	 edx, eax
  0001a	73 0b		 jae	 SHORT $LN4@Reserve@2

; 1293 : 			_Xlen();

  0001c	68 00 00 00 00	 push	 OFFSET ??_C@_0BD@OLBABOEK@vector?$DMT?$DO?5too?5long?$AA@
  00021	ff 15 00 00 00
	00		 call	 DWORD PTR __imp_?_Xlength_error@std@@YAXPBD@Z
$LN21@Reserve@2:
$LN4@Reserve@2:

; 1294 : 		else if ((_Size += _Count) <= capacity())

  00027	8b 56 08	 mov	 edx, DWORD PTR [esi+8]
  0002a	03 45 08	 add	 eax, DWORD PTR __Count$[ebp]
  0002d	2b d1		 sub	 edx, ecx
  0002f	c1 fa 04	 sar	 edx, 4
  00032	3b c2		 cmp	 eax, edx
  00034	76 10		 jbe	 SHORT $LN1@Reserve@2

; 1295 : 			;
; 1296 : 		else
; 1297 : 			reserve(_Grow_to(_Size));

  00036	50		 push	 eax
  00037	8b ce		 mov	 ecx, esi
  00039	e8 00 00 00 00	 call	 ?_Grow_to@?$vector@VioHashString@@V?$allocator@VioHashString@@@std@@@std@@IBEII@Z ; std::vector<ioHashString,std::allocator<ioHashString> >::_Grow_to
  0003e	50		 push	 eax
  0003f	8b ce		 mov	 ecx, esi
  00041	e8 00 00 00 00	 call	 ?reserve@?$vector@VioHashString@@V?$allocator@VioHashString@@@std@@@std@@QAEXI@Z ; std::vector<ioHashString,std::allocator<ioHashString> >::reserve
$LN1@Reserve@2:
  00046	5e		 pop	 esi

; 1298 : 		}

  00047	5d		 pop	 ebp
  00048	c2 04 00	 ret	 4
$LN20@Reserve@2:
?_Reserve@?$vector@VioHashString@@V?$allocator@VioHashString@@@std@@@std@@IAEXI@Z ENDP ; std::vector<ioHashString,std::allocator<ioHashString> >::_Reserve
_TEXT	ENDS
PUBLIC	?erase@?$vector@VGashaponPresent@@V?$allocator@VGashaponPresent@@@std@@@std@@QAE?AV?$_Vector_iterator@V?$_Vector_val@VGashaponPresent@@V?$allocator@VGashaponPresent@@@std@@@std@@@2@V?$_Vector_const_iterator@V?$_Vector_val@VGashaponPresent@@V?$allocator@VGashaponPresent@@@std@@@std@@@2@0@Z ; std::vector<GashaponPresent,std::allocator<GashaponPresent> >::erase
; Function compile flags: /Ogsp
;	COMDAT ?erase@?$vector@VGashaponPresent@@V?$allocator@VGashaponPresent@@@std@@@std@@QAE?AV?$_Vector_iterator@V?$_Vector_val@VGashaponPresent@@V?$allocator@VGashaponPresent@@@std@@@std@@@2@V?$_Vector_const_iterator@V?$_Vector_val@VGashaponPresent@@V?$allocator@VGashaponPresent@@@std@@@std@@@2@0@Z
_TEXT	SEGMENT
$T523429 = -4						; size = 4
___$ReturnUdt$ = 8					; size = 4
__First_arg$ = 12					; size = 4
__Cat$523374 = 16					; size = 1
__Last_arg$ = 16					; size = 4
?erase@?$vector@VGashaponPresent@@V?$allocator@VGashaponPresent@@@std@@@std@@QAE?AV?$_Vector_iterator@V?$_Vector_val@VGashaponPresent@@V?$allocator@VGashaponPresent@@@std@@@std@@@2@V?$_Vector_const_iterator@V?$_Vector_val@VGashaponPresent@@V?$allocator@VGashaponPresent@@@std@@@std@@@2@0@Z PROC ; std::vector<GashaponPresent,std::allocator<GashaponPresent> >::erase, COMDAT
; _this$ = ecx

; 1190 : 		{	// erase [_First, _Last)

  00000	55		 push	 ebp
  00001	8b ec		 mov	 ebp, esp
  00003	51		 push	 ecx

; 1191 : 		iterator _First = _Make_iter(_First_arg);

  00004	8b 45 08	 mov	 eax, DWORD PTR ___$ReturnUdt$[ebp]
  00007	56		 push	 esi
  00008	8b f1		 mov	 esi, ecx
  0000a	8b 4d 0c	 mov	 ecx, DWORD PTR __First_arg$[ebp]
  0000d	89 08		 mov	 DWORD PTR [eax], ecx

; 1192 : 		iterator _Last = _Make_iter(_Last_arg);
; 1193 : 
; 1194 : 		if (_First != _Last)

  0000f	3b 4d 10	 cmp	 ecx, DWORD PTR __Last_arg$[ebp]
  00012	74 37		 je	 SHORT $LN1@erase@3

; 1195 : 			{	// worth doing, copy down over hole
; 1196 :  #if _ITERATOR_DEBUG_LEVEL == 2
; 1197 : 			if (_Last < _First || _VICONT(_First) != this
; 1198 : 				|| _VIPTR(_First) < this->_Myfirst
; 1199 : 				|| this->_Mylast < _VIPTR(_Last))
; 1200 : 				_DEBUG_ERROR("vector erase iterator outside range");
; 1201 : 			pointer _Ptr = _Move(_VIPTR(_Last), this->_Mylast,
; 1202 : 				_VIPTR(_First));
; 1203 : 			_Orphan_range(_VIPTR(_First), this->_Mylast);
; 1204 : 
; 1205 :  #else /* _ITERATOR_DEBUG_LEVEL == 2 */
; 1206 : 			pointer _Ptr = _Move(_VIPTR(_Last), this->_Mylast,
; 1207 : 				_VIPTR(_First));

  00014	8b 46 04	 mov	 eax, DWORD PTR [esi+4]
  00017	53		 push	 ebx
  00018	57		 push	 edi
  00019	ff 75 10	 push	 DWORD PTR __Cat$523374[ebp]
  0001c	51		 push	 ecx
  0001d	50		 push	 eax
  0001e	ff 75 10	 push	 DWORD PTR __Last_arg$[ebp]
  00021	e8 00 00 00 00	 call	 ??$_Move@PAVGashaponPresent@@PAV1@@std@@YAPAVGashaponPresent@@PAV1@00U_Nonscalar_ptr_iterator_tag@0@@Z ; std::_Move<GashaponPresent *,GashaponPresent *>

; 1208 :  #endif /* _ITERATOR_DEBUG_LEVEL == 2 */
; 1209 : 
; 1210 : 			_Destroy(_Ptr, this->_Mylast);

  00026	8b 7e 04	 mov	 edi, DWORD PTR [esi+4]
  00029	8b d8		 mov	 ebx, eax
  0002b	83 c4 10	 add	 esp, 16			; 00000010H
  0002e	89 5d fc	 mov	 DWORD PTR $T523429[ebp], ebx
  00031	3b df		 cmp	 ebx, edi
  00033	74 11		 je	 SHORT $LN36@erase@3
$LL52@erase@3:
  00035	8b 4d fc	 mov	 ecx, DWORD PTR $T523429[ebp]
  00038	e8 00 00 00 00	 call	 ??1GashaponPresent@@QAE@XZ ; GashaponPresent::~GashaponPresent
  0003d	83 45 fc 14	 add	 DWORD PTR $T523429[ebp], 20 ; 00000014H
  00041	39 7d fc	 cmp	 DWORD PTR $T523429[ebp], edi
  00044	75 ef		 jne	 SHORT $LL52@erase@3
$LN36@erase@3:

; 1211 : 			this->_Mylast = _Ptr;

  00046	5f		 pop	 edi
  00047	89 5e 04	 mov	 DWORD PTR [esi+4], ebx
  0004a	5b		 pop	 ebx
$LN1@erase@3:

; 1212 : 			}
; 1213 : 		return (_First);

  0004b	8b 45 08	 mov	 eax, DWORD PTR ___$ReturnUdt$[ebp]
  0004e	5e		 pop	 esi

; 1214 : 		}

  0004f	c9		 leave
  00050	c2 0c 00	 ret	 12			; 0000000cH
?erase@?$vector@VGashaponPresent@@V?$allocator@VGashaponPresent@@@std@@@std@@QAE?AV?$_Vector_iterator@V?$_Vector_val@VGashaponPresent@@V?$allocator@VGashaponPresent@@@std@@@std@@@2@V?$_Vector_const_iterator@V?$_Vector_val@VGashaponPresent@@V?$allocator@VGashaponPresent@@@std@@@std@@@2@0@Z ENDP ; std::vector<GashaponPresent,std::allocator<GashaponPresent> >::erase
_TEXT	ENDS
PUBLIC	?erase@?$vector@VioHashString@@V?$allocator@VioHashString@@@std@@@std@@QAE?AV?$_Vector_iterator@V?$_Vector_val@VioHashString@@V?$allocator@VioHashString@@@std@@@std@@@2@V?$_Vector_const_iterator@V?$_Vector_val@VioHashString@@V?$allocator@VioHashString@@@std@@@std@@@2@0@Z ; std::vector<ioHashString,std::allocator<ioHashString> >::erase
; Function compile flags: /Ogsp
;	COMDAT ?erase@?$vector@VioHashString@@V?$allocator@VioHashString@@@std@@@std@@QAE?AV?$_Vector_iterator@V?$_Vector_val@VioHashString@@V?$allocator@VioHashString@@@std@@@std@@@2@V?$_Vector_const_iterator@V?$_Vector_val@VioHashString@@V?$allocator@VioHashString@@@std@@@std@@@2@0@Z
_TEXT	SEGMENT
$T523606 = -4						; size = 4
___$ReturnUdt$ = 8					; size = 4
__First_arg$ = 12					; size = 4
__Cat$523551 = 16					; size = 1
__Last_arg$ = 16					; size = 4
?erase@?$vector@VioHashString@@V?$allocator@VioHashString@@@std@@@std@@QAE?AV?$_Vector_iterator@V?$_Vector_val@VioHashString@@V?$allocator@VioHashString@@@std@@@std@@@2@V?$_Vector_const_iterator@V?$_Vector_val@VioHashString@@V?$allocator@VioHashString@@@std@@@std@@@2@0@Z PROC ; std::vector<ioHashString,std::allocator<ioHashString> >::erase, COMDAT
; _this$ = ecx

; 1190 : 		{	// erase [_First, _Last)

  00000	55		 push	 ebp
  00001	8b ec		 mov	 ebp, esp
  00003	51		 push	 ecx

; 1191 : 		iterator _First = _Make_iter(_First_arg);

  00004	8b 45 08	 mov	 eax, DWORD PTR ___$ReturnUdt$[ebp]
  00007	56		 push	 esi
  00008	8b f1		 mov	 esi, ecx
  0000a	8b 4d 0c	 mov	 ecx, DWORD PTR __First_arg$[ebp]
  0000d	89 08		 mov	 DWORD PTR [eax], ecx

; 1192 : 		iterator _Last = _Make_iter(_Last_arg);
; 1193 : 
; 1194 : 		if (_First != _Last)

  0000f	3b 4d 10	 cmp	 ecx, DWORD PTR __Last_arg$[ebp]
  00012	74 38		 je	 SHORT $LN1@erase@4

; 1195 : 			{	// worth doing, copy down over hole
; 1196 :  #if _ITERATOR_DEBUG_LEVEL == 2
; 1197 : 			if (_Last < _First || _VICONT(_First) != this
; 1198 : 				|| _VIPTR(_First) < this->_Myfirst
; 1199 : 				|| this->_Mylast < _VIPTR(_Last))
; 1200 : 				_DEBUG_ERROR("vector erase iterator outside range");
; 1201 : 			pointer _Ptr = _Move(_VIPTR(_Last), this->_Mylast,
; 1202 : 				_VIPTR(_First));
; 1203 : 			_Orphan_range(_VIPTR(_First), this->_Mylast);
; 1204 : 
; 1205 :  #else /* _ITERATOR_DEBUG_LEVEL == 2 */
; 1206 : 			pointer _Ptr = _Move(_VIPTR(_Last), this->_Mylast,
; 1207 : 				_VIPTR(_First));

  00014	8b 46 04	 mov	 eax, DWORD PTR [esi+4]
  00017	53		 push	 ebx
  00018	57		 push	 edi
  00019	ff 75 10	 push	 DWORD PTR __Cat$523551[ebp]
  0001c	51		 push	 ecx
  0001d	50		 push	 eax
  0001e	ff 75 10	 push	 DWORD PTR __Last_arg$[ebp]
  00021	e8 00 00 00 00	 call	 ??$_Move@PAVioHashString@@PAV1@@std@@YAPAVioHashString@@PAV1@00U_Nonscalar_ptr_iterator_tag@0@@Z ; std::_Move<ioHashString *,ioHashString *>

; 1208 :  #endif /* _ITERATOR_DEBUG_LEVEL == 2 */
; 1209 : 
; 1210 : 			_Destroy(_Ptr, this->_Mylast);

  00026	8b 7e 04	 mov	 edi, DWORD PTR [esi+4]
  00029	8b d8		 mov	 ebx, eax
  0002b	83 c4 10	 add	 esp, 16			; 00000010H
  0002e	89 5d fc	 mov	 DWORD PTR $T523606[ebp], ebx
  00031	3b df		 cmp	 ebx, edi
  00033	74 12		 je	 SHORT $LN36@erase@4
$LL52@erase@4:
  00035	8b 4d fc	 mov	 ecx, DWORD PTR $T523606[ebp]
  00038	ff 15 00 00 00
	00		 call	 DWORD PTR __imp_??1ioHashString@@QAE@XZ
  0003e	83 45 fc 10	 add	 DWORD PTR $T523606[ebp], 16 ; 00000010H
  00042	39 7d fc	 cmp	 DWORD PTR $T523606[ebp], edi
  00045	75 ee		 jne	 SHORT $LL52@erase@4
$LN36@erase@4:

; 1211 : 			this->_Mylast = _Ptr;

  00047	5f		 pop	 edi
  00048	89 5e 04	 mov	 DWORD PTR [esi+4], ebx
  0004b	5b		 pop	 ebx
$LN1@erase@4:

; 1212 : 			}
; 1213 : 		return (_First);

  0004c	8b 45 08	 mov	 eax, DWORD PTR ___$ReturnUdt$[ebp]
  0004f	5e		 pop	 esi

; 1214 : 		}

  00050	c9		 leave
  00051	c2 0c 00	 ret	 12			; 0000000cH
?erase@?$vector@VioHashString@@V?$allocator@VioHashString@@@std@@@std@@QAE?AV?$_Vector_iterator@V?$_Vector_val@VioHashString@@V?$allocator@VioHashString@@@std@@@std@@@2@V?$_Vector_const_iterator@V?$_Vector_val@VioHashString@@V?$allocator@VioHashString@@@std@@@std@@@2@0@Z ENDP ; std::vector<ioHashString,std::allocator<ioHashString> >::erase
_TEXT	ENDS
PUBLIC	?_Tidy@?$vector@VioHashString@@V?$allocator@VioHashString@@@std@@@std@@IAEXXZ ; std::vector<ioHashString,std::allocator<ioHashString> >::_Tidy
; Function compile flags: /Ogsp
;	COMDAT ?_Tidy@?$vector@VioHashString@@V?$allocator@VioHashString@@@std@@@std@@IAEXXZ
_TEXT	SEGMENT
?_Tidy@?$vector@VioHashString@@V?$allocator@VioHashString@@@std@@@std@@IAEXXZ PROC ; std::vector<ioHashString,std::allocator<ioHashString> >::_Tidy, COMDAT
; _this$ = ecx

; 1301 : 		{	// free all storage

  00000	56		 push	 esi
  00001	8b f1		 mov	 esi, ecx

; 1302 : 		if (this->_Myfirst != 0)

  00003	83 3e 00	 cmp	 DWORD PTR [esi], 0
  00006	74 28		 je	 SHORT $LN24@Tidy@3

; 1303 : 			{	// something to free, destroy and deallocate it
; 1304 : 			this->_Orphan_all();

  00008	53		 push	 ebx
  00009	57		 push	 edi
  0000a	ff 15 00 00 00
	00		 call	 DWORD PTR __imp_?_Orphan_all@_Container_base0@std@@QAEXXZ

; 1305 : 			_Destroy(this->_Myfirst, this->_Mylast);

  00010	8b 5e 04	 mov	 ebx, DWORD PTR [esi+4]
  00013	8b 3e		 mov	 edi, DWORD PTR [esi]
  00015	eb 0b		 jmp	 SHORT $LN28@Tidy@3
$LL12@Tidy@3:
  00017	8b cf		 mov	 ecx, edi
  00019	ff 15 00 00 00
	00		 call	 DWORD PTR __imp_??1ioHashString@@QAE@XZ
  0001f	83 c7 10	 add	 edi, 16			; 00000010H
$LN28@Tidy@3:
  00022	3b fb		 cmp	 edi, ebx
  00024	75 f1		 jne	 SHORT $LL12@Tidy@3

; 1306 : 			this->_Alval.deallocate(this->_Myfirst,
; 1307 : 				this->_Myend - this->_Myfirst);

  00026	ff 36		 push	 DWORD PTR [esi]
  00028	e8 00 00 00 00	 call	 ??3@YAXPAX@Z		; operator delete
  0002d	59		 pop	 ecx
  0002e	5f		 pop	 edi
  0002f	5b		 pop	 ebx
$LN24@Tidy@3:

; 1308 : 			}
; 1309 : 		this->_Myfirst = 0;

  00030	33 c0		 xor	 eax, eax
  00032	89 06		 mov	 DWORD PTR [esi], eax

; 1310 : 		this->_Mylast = 0;

  00034	89 46 04	 mov	 DWORD PTR [esi+4], eax

; 1311 : 		this->_Myend = 0;

  00037	89 46 08	 mov	 DWORD PTR [esi+8], eax
  0003a	5e		 pop	 esi

; 1312 : 		}

  0003b	c3		 ret	 0
?_Tidy@?$vector@VioHashString@@V?$allocator@VioHashString@@@std@@@std@@IAEXXZ ENDP ; std::vector<ioHashString,std::allocator<ioHashString> >::_Tidy
_TEXT	ENDS
PUBLIC	?_Tidy@?$vector@VGashaponPresent@@V?$allocator@VGashaponPresent@@@std@@@std@@IAEXXZ ; std::vector<GashaponPresent,std::allocator<GashaponPresent> >::_Tidy
; Function compile flags: /Ogsp
;	COMDAT ?_Tidy@?$vector@VGashaponPresent@@V?$allocator@VGashaponPresent@@@std@@@std@@IAEXXZ
_TEXT	SEGMENT
?_Tidy@?$vector@VGashaponPresent@@V?$allocator@VGashaponPresent@@@std@@@std@@IAEXXZ PROC ; std::vector<GashaponPresent,std::allocator<GashaponPresent> >::_Tidy, COMDAT
; _this$ = ecx

; 1301 : 		{	// free all storage

  00000	56		 push	 esi
  00001	8b f1		 mov	 esi, ecx

; 1302 : 		if (this->_Myfirst != 0)

  00003	83 3e 00	 cmp	 DWORD PTR [esi], 0
  00006	74 27		 je	 SHORT $LN24@Tidy@4

; 1303 : 			{	// something to free, destroy and deallocate it
; 1304 : 			this->_Orphan_all();

  00008	53		 push	 ebx
  00009	57		 push	 edi
  0000a	ff 15 00 00 00
	00		 call	 DWORD PTR __imp_?_Orphan_all@_Container_base0@std@@QAEXXZ

; 1305 : 			_Destroy(this->_Myfirst, this->_Mylast);

  00010	8b 5e 04	 mov	 ebx, DWORD PTR [esi+4]
  00013	8b 3e		 mov	 edi, DWORD PTR [esi]
  00015	eb 0a		 jmp	 SHORT $LN28@Tidy@4
$LL12@Tidy@4:
  00017	8b cf		 mov	 ecx, edi
  00019	e8 00 00 00 00	 call	 ??1GashaponPresent@@QAE@XZ ; GashaponPresent::~GashaponPresent
  0001e	83 c7 14	 add	 edi, 20			; 00000014H
$LN28@Tidy@4:
  00021	3b fb		 cmp	 edi, ebx
  00023	75 f2		 jne	 SHORT $LL12@Tidy@4

; 1306 : 			this->_Alval.deallocate(this->_Myfirst,
; 1307 : 				this->_Myend - this->_Myfirst);

  00025	ff 36		 push	 DWORD PTR [esi]
  00027	e8 00 00 00 00	 call	 ??3@YAXPAX@Z		; operator delete
  0002c	59		 pop	 ecx
  0002d	5f		 pop	 edi
  0002e	5b		 pop	 ebx
$LN24@Tidy@4:

; 1308 : 			}
; 1309 : 		this->_Myfirst = 0;

  0002f	33 c0		 xor	 eax, eax
  00031	89 06		 mov	 DWORD PTR [esi], eax

; 1310 : 		this->_Mylast = 0;

  00033	89 46 04	 mov	 DWORD PTR [esi+4], eax

; 1311 : 		this->_Myend = 0;

  00036	89 46 08	 mov	 DWORD PTR [esi+8], eax
  00039	5e		 pop	 esi

; 1312 : 		}

  0003a	c3		 ret	 0
?_Tidy@?$vector@VGashaponPresent@@V?$allocator@VGashaponPresent@@@std@@@std@@IAEXXZ ENDP ; std::vector<GashaponPresent,std::allocator<GashaponPresent> >::_Tidy
_TEXT	ENDS
PUBLIC	??$_Destroy_range@V?$allocator@V?$basic_string@DU?$char_traits@D@std@@V?$allocator@D@2@@std@@@std@@@std@@YAXPAV?$basic_string@DU?$char_traits@D@std@@V?$allocator@D@2@@0@0AAV?$allocator@V?$basic_string@DU?$char_traits@D@std@@V?$allocator@D@2@@std@@@0@U_Nonscalar_ptr_iterator_tag@0@@Z ; std::_Destroy_range<std::allocator<std::basic_string<char,std::char_traits<char>,std::allocator<char> > > >
; Function compile flags: /Ogsp
; File c:\program files (x86)\microsoft visual studio 10.0\vc\include\xmemory
;	COMDAT ??$_Destroy_range@V?$allocator@V?$basic_string@DU?$char_traits@D@std@@V?$allocator@D@2@@std@@@std@@@std@@YAXPAV?$basic_string@DU?$char_traits@D@std@@V?$allocator@D@2@@0@0AAV?$allocator@V?$basic_string@DU?$char_traits@D@std@@V?$allocator@D@2@@std@@@0@U_Nonscalar_ptr_iterator_tag@0@@Z
_TEXT	SEGMENT
__First$ = 8						; size = 4
__Last$ = 12						; size = 4
__Al$ = 16						; size = 4
___formal$ = 20						; size = 1
??$_Destroy_range@V?$allocator@V?$basic_string@DU?$char_traits@D@std@@V?$allocator@D@2@@std@@@std@@@std@@YAXPAV?$basic_string@DU?$char_traits@D@std@@V?$allocator@D@2@@0@0AAV?$allocator@V?$basic_string@DU?$char_traits@D@std@@V?$allocator@D@2@@std@@@0@U_Nonscalar_ptr_iterator_tag@0@@Z PROC ; std::_Destroy_range<std::allocator<std::basic_string<char,std::char_traits<char>,std::allocator<char> > > >, COMDAT

; 95   : 	{	// destroy [_First, _Last), arbitrary type

  00000	55		 push	 ebp
  00001	8b ec		 mov	 ebp, esp
  00003	56		 push	 esi

; 96   : 	for (; _First != _Last; ++_First)

  00004	8b 75 08	 mov	 esi, DWORD PTR __First$[ebp]
  00007	eb 0e		 jmp	 SHORT $LN21@Destroy_ra@5
$LL3@Destroy_ra@5:

; 97   : 		_Dest_val(_Al, _First);

  00009	6a 00		 push	 0
  0000b	6a 01		 push	 1
  0000d	8b ce		 mov	 ecx, esi
  0000f	e8 00 00 00 00	 call	 ?_Tidy@?$basic_string@DU?$char_traits@D@std@@V?$allocator@D@2@@std@@QAEX_NI@Z ; std::basic_string<char,std::char_traits<char>,std::allocator<char> >::_Tidy
  00014	83 c6 1c	 add	 esi, 28			; 0000001cH
$LN21@Destroy_ra@5:

; 96   : 	for (; _First != _Last; ++_First)

  00017	3b 75 0c	 cmp	 esi, DWORD PTR __Last$[ebp]
  0001a	75 ed		 jne	 SHORT $LL3@Destroy_ra@5
  0001c	5e		 pop	 esi

; 98   : 	}

  0001d	5d		 pop	 ebp
  0001e	c3		 ret	 0
??$_Destroy_range@V?$allocator@V?$basic_string@DU?$char_traits@D@std@@V?$allocator@D@2@@std@@@std@@@std@@YAXPAV?$basic_string@DU?$char_traits@D@std@@V?$allocator@D@2@@0@0AAV?$allocator@V?$basic_string@DU?$char_traits@D@std@@V?$allocator@D@2@@std@@@0@U_Nonscalar_ptr_iterator_tag@0@@Z ENDP ; std::_Destroy_range<std::allocator<std::basic_string<char,std::char_traits<char>,std::allocator<char> > > >
_TEXT	ENDS
PUBLIC	?push_back@?$vector@VioHashString@@V?$allocator@VioHashString@@@std@@@std@@QAEXABVioHashString@@@Z ; std::vector<ioHashString,std::allocator<ioHashString> >::push_back
; Function compile flags: /Ogsp
; File c:\program files (x86)\microsoft visual studio 10.0\vc\include\vector
;	COMDAT ?push_back@?$vector@VioHashString@@V?$allocator@VioHashString@@@std@@@std@@QAEXABVioHashString@@@Z
_TEXT	SEGMENT
__Val$ = 8						; size = 4
?push_back@?$vector@VioHashString@@V?$allocator@VioHashString@@@std@@@std@@QAEXABVioHashString@@@Z PROC ; std::vector<ioHashString,std::allocator<ioHashString> >::push_back, COMDAT
; _this$ = ecx

; 976  : 		{	// insert element at end

  00000	55		 push	 ebp
  00001	8b ec		 mov	 ebp, esp
  00003	56		 push	 esi
  00004	8b f1		 mov	 esi, ecx

; 977  : 		if (_Inside(_STD addressof(_Val)))

  00006	8b 46 04	 mov	 eax, DWORD PTR [esi+4]
  00009	57		 push	 edi
  0000a	8b 7d 08	 mov	 edi, DWORD PTR __Val$[ebp]
  0000d	3b f8		 cmp	 edi, eax
  0000f	73 29		 jae	 SHORT $LN4@push_back@2
  00011	8b 0e		 mov	 ecx, DWORD PTR [esi]
  00013	3b cf		 cmp	 ecx, edi
  00015	77 23		 ja	 SHORT $LN4@push_back@2

; 978  : 			{	// push back an element
; 979  : 			size_type _Idx = _STD addressof(_Val) - this->_Myfirst;

  00017	2b f9		 sub	 edi, ecx

; 980  : 			if (this->_Mylast == this->_Myend)

  00019	3b 46 08	 cmp	 eax, DWORD PTR [esi+8]
  0001c	75 09		 jne	 SHORT $LN3@push_back@2

; 981  : 				_Reserve(1);

  0001e	6a 01		 push	 1
  00020	8b ce		 mov	 ecx, esi
  00022	e8 00 00 00 00	 call	 ?_Reserve@?$vector@VioHashString@@V?$allocator@VioHashString@@@std@@@std@@IAEXI@Z ; std::vector<ioHashString,std::allocator<ioHashString> >::_Reserve
$LN3@push_back@2:

; 982  : 			_Orphan_range(this->_Mylast, this->_Mylast);
; 983  : 			_Cons_val(this->_Alval,
; 984  : 				this->_Mylast,
; 985  : 				this->_Myfirst[_Idx]);

  00027	83 e7 f0	 and	 edi, -16		; fffffff0H
  0002a	03 3e		 add	 edi, DWORD PTR [esi]
  0002c	8d 4e 0c	 lea	 ecx, DWORD PTR [esi+12]
  0002f	57		 push	 edi
  00030	ff 76 04	 push	 DWORD PTR [esi+4]
  00033	e8 00 00 00 00	 call	 ??$construct@AAVioHashString@@@?$allocator@VioHashString@@@std@@QAEXPAVioHashString@@AAV2@@Z ; std::allocator<ioHashString>::construct<ioHashString &>

; 986  : 			++this->_Mylast;
; 987  : 			}
; 988  : 		else

  00038	eb 19		 jmp	 SHORT $LN30@push_back@2
$LN4@push_back@2:

; 989  : 			{	// push back a non-element
; 990  : 			if (this->_Mylast == this->_Myend)

  0003a	3b 46 08	 cmp	 eax, DWORD PTR [esi+8]
  0003d	75 09		 jne	 SHORT $LN1@push_back@2

; 991  : 				_Reserve(1);

  0003f	6a 01		 push	 1
  00041	8b ce		 mov	 ecx, esi
  00043	e8 00 00 00 00	 call	 ?_Reserve@?$vector@VioHashString@@V?$allocator@VioHashString@@@std@@@std@@IAEXI@Z ; std::vector<ioHashString,std::allocator<ioHashString> >::_Reserve
$LN1@push_back@2:

; 992  : 			_Orphan_range(this->_Mylast, this->_Mylast);
; 993  : 			_Cons_val(this->_Alval,
; 994  : 				this->_Mylast,
; 995  : 				_Val);

  00048	57		 push	 edi
  00049	ff 76 04	 push	 DWORD PTR [esi+4]
  0004c	e8 00 00 00 00	 call	 ??$_Construct@VioHashString@@ABV1@@std@@YAXPAVioHashString@@ABV1@@Z ; std::_Construct<ioHashString,ioHashString const &>
  00051	59		 pop	 ecx
  00052	59		 pop	 ecx
$LN30@push_back@2:

; 996  : 			++this->_Mylast;

  00053	83 46 04 10	 add	 DWORD PTR [esi+4], 16	; 00000010H
  00057	5f		 pop	 edi
  00058	5e		 pop	 esi

; 997  : 			}
; 998  : 		}

  00059	5d		 pop	 ebp
  0005a	c2 04 00	 ret	 4
?push_back@?$vector@VioHashString@@V?$allocator@VioHashString@@@std@@@std@@QAEXABVioHashString@@@Z ENDP ; std::vector<ioHashString,std::allocator<ioHashString> >::push_back
_TEXT	ENDS
PUBLIC	?clear@?$vector@VGashaponPresent@@V?$allocator@VGashaponPresent@@@std@@@std@@QAEXXZ ; std::vector<GashaponPresent,std::allocator<GashaponPresent> >::clear
; Function compile flags: /Ogsp
;	COMDAT ?clear@?$vector@VGashaponPresent@@V?$allocator@VGashaponPresent@@@std@@@std@@QAEXXZ
_TEXT	SEGMENT
$T523975 = -4						; size = 4
?clear@?$vector@VGashaponPresent@@V?$allocator@VGashaponPresent@@@std@@@std@@QAEXXZ PROC ; std::vector<GashaponPresent,std::allocator<GashaponPresent> >::clear, COMDAT
; _this$ = ecx

; 1217 : 		{	// erase all

  00000	55		 push	 ebp
  00001	8b ec		 mov	 ebp, esp
  00003	51		 push	 ecx

; 1218 : 		erase(begin(), end());

  00004	8b 41 04	 mov	 eax, DWORD PTR [ecx+4]
  00007	8b 11		 mov	 edx, DWORD PTR [ecx]
  00009	50		 push	 eax
  0000a	52		 push	 edx
  0000b	8d 45 fc	 lea	 eax, DWORD PTR $T523975[ebp]
  0000e	50		 push	 eax
  0000f	e8 00 00 00 00	 call	 ?erase@?$vector@VGashaponPresent@@V?$allocator@VGashaponPresent@@@std@@@std@@QAE?AV?$_Vector_iterator@V?$_Vector_val@VGashaponPresent@@V?$allocator@VGashaponPresent@@@std@@@std@@@2@V?$_Vector_const_iterator@V?$_Vector_val@VGashaponPresent@@V?$allocator@VGashaponPresent@@@std@@@std@@@2@0@Z ; std::vector<GashaponPresent,std::allocator<GashaponPresent> >::erase

; 1219 : 		}

  00014	c9		 leave
  00015	c3		 ret	 0
?clear@?$vector@VGashaponPresent@@V?$allocator@VGashaponPresent@@@std@@@std@@QAEXXZ ENDP ; std::vector<GashaponPresent,std::allocator<GashaponPresent> >::clear
_TEXT	ENDS
PUBLIC	??1?$vector@VioHashString@@V?$allocator@VioHashString@@@std@@@std@@QAE@XZ ; std::vector<ioHashString,std::allocator<ioHashString> >::~vector<ioHashString,std::allocator<ioHashString> >
; Function compile flags: /Ogsp
;	COMDAT ??1?$vector@VioHashString@@V?$allocator@VioHashString@@@std@@@std@@QAE@XZ
_TEXT	SEGMENT
??1?$vector@VioHashString@@V?$allocator@VioHashString@@@std@@@std@@QAE@XZ PROC ; std::vector<ioHashString,std::allocator<ioHashString> >::~vector<ioHashString,std::allocator<ioHashString> >, COMDAT
; _this$ = ecx

; 705  : 		_Tidy();

  00000	e9 00 00 00 00	 jmp	 ?_Tidy@?$vector@VioHashString@@V?$allocator@VioHashString@@@std@@@std@@IAEXXZ ; std::vector<ioHashString,std::allocator<ioHashString> >::_Tidy
??1?$vector@VioHashString@@V?$allocator@VioHashString@@@std@@@std@@QAE@XZ ENDP ; std::vector<ioHashString,std::allocator<ioHashString> >::~vector<ioHashString,std::allocator<ioHashString> >
_TEXT	ENDS
PUBLIC	?clear@?$vector@VioHashString@@V?$allocator@VioHashString@@@std@@@std@@QAEXXZ ; std::vector<ioHashString,std::allocator<ioHashString> >::clear
; Function compile flags: /Ogsp
;	COMDAT ?clear@?$vector@VioHashString@@V?$allocator@VioHashString@@@std@@@std@@QAEXXZ
_TEXT	SEGMENT
$T524039 = -4						; size = 4
?clear@?$vector@VioHashString@@V?$allocator@VioHashString@@@std@@@std@@QAEXXZ PROC ; std::vector<ioHashString,std::allocator<ioHashString> >::clear, COMDAT
; _this$ = ecx

; 1217 : 		{	// erase all

  00000	55		 push	 ebp
  00001	8b ec		 mov	 ebp, esp
  00003	51		 push	 ecx

; 1218 : 		erase(begin(), end());

  00004	8b 41 04	 mov	 eax, DWORD PTR [ecx+4]
  00007	8b 11		 mov	 edx, DWORD PTR [ecx]
  00009	50		 push	 eax
  0000a	52		 push	 edx
  0000b	8d 45 fc	 lea	 eax, DWORD PTR $T524039[ebp]
  0000e	50		 push	 eax
  0000f	e8 00 00 00 00	 call	 ?erase@?$vector@VioHashString@@V?$allocator@VioHashString@@@std@@@std@@QAE?AV?$_Vector_iterator@V?$_Vector_val@VioHashString@@V?$allocator@VioHashString@@@std@@@std@@@2@V?$_Vector_const_iterator@V?$_Vector_val@VioHashString@@V?$allocator@VioHashString@@@std@@@std@@@2@0@Z ; std::vector<ioHashString,std::allocator<ioHashString> >::erase

; 1219 : 		}

  00014	c9		 leave
  00015	c3		 ret	 0
?clear@?$vector@VioHashString@@V?$allocator@VioHashString@@@std@@@std@@QAEXXZ ENDP ; std::vector<ioHashString,std::allocator<ioHashString> >::clear
_TEXT	ENDS
PUBLIC	??1?$vector@VGashaponPresent@@V?$allocator@VGashaponPresent@@@std@@@std@@QAE@XZ ; std::vector<GashaponPresent,std::allocator<GashaponPresent> >::~vector<GashaponPresent,std::allocator<GashaponPresent> >
; Function compile flags: /Ogsp
;	COMDAT ??1?$vector@VGashaponPresent@@V?$allocator@VGashaponPresent@@@std@@@std@@QAE@XZ
_TEXT	SEGMENT
??1?$vector@VGashaponPresent@@V?$allocator@VGashaponPresent@@@std@@@std@@QAE@XZ PROC ; std::vector<GashaponPresent,std::allocator<GashaponPresent> >::~vector<GashaponPresent,std::allocator<GashaponPresent> >, COMDAT
; _this$ = ecx

; 705  : 		_Tidy();

  00000	e9 00 00 00 00	 jmp	 ?_Tidy@?$vector@VGashaponPresent@@V?$allocator@VGashaponPresent@@@std@@@std@@IAEXXZ ; std::vector<GashaponPresent,std::allocator<GashaponPresent> >::_Tidy
??1?$vector@VGashaponPresent@@V?$allocator@VGashaponPresent@@@std@@@std@@QAE@XZ ENDP ; std::vector<GashaponPresent,std::allocator<GashaponPresent> >::~vector<GashaponPresent,std::allocator<GashaponPresent> >
_TEXT	ENDS
PUBLIC	??$_Destroy_range@V?$allocator@V?$basic_string@DU?$char_traits@D@std@@V?$allocator@D@2@@std@@@std@@@std@@YAXPAV?$basic_string@DU?$char_traits@D@std@@V?$allocator@D@2@@0@0AAV?$allocator@V?$basic_string@DU?$char_traits@D@std@@V?$allocator@D@2@@std@@@0@@Z ; std::_Destroy_range<std::allocator<std::basic_string<char,std::char_traits<char>,std::allocator<char> > > >
; Function compile flags: /Ogsp
; File c:\program files (x86)\microsoft visual studio 10.0\vc\include\xmemory
;	COMDAT ??$_Destroy_range@V?$allocator@V?$basic_string@DU?$char_traits@D@std@@V?$allocator@D@2@@std@@@std@@@std@@YAXPAV?$basic_string@DU?$char_traits@D@std@@V?$allocator@D@2@@0@0AAV?$allocator@V?$basic_string@DU?$char_traits@D@std@@V?$allocator@D@2@@std@@@0@@Z
_TEXT	SEGMENT
__Cat$524102 = -4					; size = 1
__First$ = 8						; size = 4
__Last$ = 12						; size = 4
__Al$ = 16						; size = 4
??$_Destroy_range@V?$allocator@V?$basic_string@DU?$char_traits@D@std@@V?$allocator@D@2@@std@@@std@@@std@@YAXPAV?$basic_string@DU?$char_traits@D@std@@V?$allocator@D@2@@0@0AAV?$allocator@V?$basic_string@DU?$char_traits@D@std@@V?$allocator@D@2@@std@@@0@@Z PROC ; std::_Destroy_range<std::allocator<std::basic_string<char,std::char_traits<char>,std::allocator<char> > > >, COMDAT

; 87   : 	{	// destroy [_First, _Last)

  00000	55		 push	 ebp
  00001	8b ec		 mov	 ebp, esp
  00003	51		 push	 ecx

; 88   : 	_Destroy_range(_First, _Last, _Al, _Ptr_cat(_First, _Last));

  00004	ff 75 fc	 push	 DWORD PTR __Cat$524102[ebp]
  00007	ff 75 10	 push	 DWORD PTR __Al$[ebp]
  0000a	ff 75 0c	 push	 DWORD PTR __Last$[ebp]
  0000d	ff 75 08	 push	 DWORD PTR __First$[ebp]
  00010	e8 00 00 00 00	 call	 ??$_Destroy_range@V?$allocator@V?$basic_string@DU?$char_traits@D@std@@V?$allocator@D@2@@std@@@std@@@std@@YAXPAV?$basic_string@DU?$char_traits@D@std@@V?$allocator@D@2@@0@0AAV?$allocator@V?$basic_string@DU?$char_traits@D@std@@V?$allocator@D@2@@std@@@0@U_Nonscalar_ptr_iterator_tag@0@@Z ; std::_Destroy_range<std::allocator<std::basic_string<char,std::char_traits<char>,std::allocator<char> > > >
  00015	83 c4 10	 add	 esp, 16			; 00000010H

; 89   : 	}

  00018	c9		 leave
  00019	c3		 ret	 0
??$_Destroy_range@V?$allocator@V?$basic_string@DU?$char_traits@D@std@@V?$allocator@D@2@@std@@@std@@@std@@YAXPAV?$basic_string@DU?$char_traits@D@std@@V?$allocator@D@2@@0@0AAV?$allocator@V?$basic_string@DU?$char_traits@D@std@@V?$allocator@D@2@@std@@@0@@Z ENDP ; std::_Destroy_range<std::allocator<std::basic_string<char,std::char_traits<char>,std::allocator<char> > > >
_TEXT	ENDS
PUBLIC	??_7RisingGashaponItemInfoBtn@@6B@		; RisingGashaponItemInfoBtn::`vftable'
PUBLIC	??0RisingGashaponItemInfoBtn@@QAE@XZ		; RisingGashaponItemInfoBtn::RisingGashaponItemInfoBtn
PUBLIC	??_R4RisingGashaponItemInfoBtn@@6B@		; RisingGashaponItemInfoBtn::`RTTI Complete Object Locator'
PUBLIC	??_R0?AVRisingGashaponItemInfoBtn@@@8		; RisingGashaponItemInfoBtn `RTTI Type Descriptor'
PUBLIC	??_R3RisingGashaponItemInfoBtn@@8		; RisingGashaponItemInfoBtn::`RTTI Class Hierarchy Descriptor'
PUBLIC	??_R2RisingGashaponItemInfoBtn@@8		; RisingGashaponItemInfoBtn::`RTTI Base Class Array'
PUBLIC	??_R1A@?0A@EA@RisingGashaponItemInfoBtn@@8	; RisingGashaponItemInfoBtn::`RTTI Base Class Descriptor at (0,-1,0,64)'
PUBLIC	??_R1A@?0A@EA@ioButton@@8			; ioButton::`RTTI Base Class Descriptor at (0,-1,0,64)'
PUBLIC	??_R0?AVioButton@@@8				; ioButton `RTTI Type Descriptor'
PUBLIC	??_R3ioButton@@8				; ioButton::`RTTI Class Hierarchy Descriptor'
PUBLIC	??_R2ioButton@@8				; ioButton::`RTTI Base Class Array'
PUBLIC	??_R1A@?0A@EA@ioWnd@@8				; ioWnd::`RTTI Base Class Descriptor at (0,-1,0,64)'
PUBLIC	??_R0?AVioWnd@@@8				; ioWnd `RTTI Type Descriptor'
PUBLIC	??_R3ioWnd@@8					; ioWnd::`RTTI Class Hierarchy Descriptor'
PUBLIC	??_R2ioWnd@@8					; ioWnd::`RTTI Base Class Array'
PUBLIC	?ParseExtraInfo@RisingGashaponItemInfoBtn@@UAEXAAVioXMLElement@@@Z ; RisingGashaponItemInfoBtn::ParseExtraInfo
EXTRN	__imp_??1ioButton@@UAE@XZ:PROC
EXTRN	??0GashaponPresent@@QAE@XZ:PROC			; GashaponPresent::GashaponPresent
EXTRN	__imp_??0ioButton@@QAE@XZ:PROC
EXTRN	?AddTooltipHelp@ioWnd@@UAEXABVioHashString@@00@Z:PROC ; ioWnd::AddTooltipHelp
EXTRN	?AddNamedRenderImage@ioWnd@@UAEXABVioHashString@@PAVioUIRenderImage@@@Z:PROC ; ioWnd::AddNamedRenderImage
EXTRN	?RemoveNamedRenderImage@ioWnd@@UAEXABVioHashString@@@Z:PROC ; ioWnd::RemoveNamedRenderImage
EXTRN	?GetNamedRenderImage@ioWnd@@UBEPAVioUIRenderImage@@ABVioHashString@@@Z:PROC ; ioWnd::GetNamedRenderImage
EXTRN	?SetWindowAlpha@ioButton@@UAEXH@Z:PROC		; ioButton::SetWindowAlpha
EXTRN	?SetActive@ioWnd@@UAEXXZ:PROC			; ioWnd::SetActive
EXTRN	?SetInActive@ioWnd@@UAEXXZ:PROC			; ioWnd::SetInActive
EXTRN	?ClearElementImageList@ioWnd@@UAEXXZ:PROC	; ioWnd::ClearElementImageList
EXTRN	?SetSize@ioWnd@@UAEXHH@Z:PROC			; ioWnd::SetSize
EXTRN	?SetPositionToDefault@ioWnd@@UAEXHH_N0@Z:PROC	; ioWnd::SetPositionToDefault
EXTRN	?IsNeedProcess@ioWnd@@UBE_NXZ:PROC		; ioWnd::IsNeedProcess
EXTRN	?IsCanMouseReaction@ioWnd@@UBE_NXZ:PROC		; ioWnd::IsCanMouseReaction
EXTRN	?AddChild@ioWnd@@UAEXPAV1@@Z:PROC		; ioWnd::AddChild
EXTRN	?DeleteChild@ioWnd@@UAEXK@Z:PROC		; ioWnd::DeleteChild
EXTRN	?DeleteAllChild@ioWnd@@UAEXXZ:PROC		; ioWnd::DeleteAllChild
EXTRN	?OnRenderShowAndHide@ioWnd@@MAE_NXZ:PROC	; ioWnd::OnRenderShowAndHide
EXTRN	?OnRenderShowAndHideByDefault@ioWnd@@MAE_NK@Z:PROC ; ioWnd::OnRenderShowAndHideByDefault
EXTRN	?OnRenderShowAndHideByTop@ioWnd@@MAE_NK@Z:PROC	; ioWnd::OnRenderShowAndHideByTop
EXTRN	?OnRenderShowAndHideByDown@ioWnd@@MAE_NK@Z:PROC	; ioWnd::OnRenderShowAndHideByDown
EXTRN	?OnRenderAfterChild@ioWnd@@MAEXXZ:PROC		; ioWnd::OnRenderAfterChild
EXTRN	?OnMouseProcess@ioWnd@@MAEXABVioMouse@@@Z:PROC	; ioWnd::OnMouseProcess
EXTRN	?CheckFrameReSize@ioButton@@MAEXHHHH@Z:PROC	; ioButton::CheckFrameReSize
EXTRN	?RenderImageList@ioWnd@@MAEXHHW4UIRenderType@@@Z:PROC ; ioWnd::RenderImageList
EXTRN	?iwm_destroy@ioWnd@@UAEXXZ:PROC			; ioWnd::iwm_destroy
EXTRN	?iwm_lbuttondown@ioButton@@UAEXABVioMouse@@@Z:PROC ; ioButton::iwm_lbuttondown
EXTRN	?iwm_lbuttonup@ioButton@@UAEXABVioMouse@@@Z:PROC ; ioButton::iwm_lbuttonup
EXTRN	?iwm_lbuttonDBLCLK@ioButton@@UAEXABVioMouse@@@Z:PROC ; ioButton::iwm_lbuttonDBLCLK
EXTRN	?iwm_rbuttondown@ioButton@@UAEXABVioMouse@@@Z:PROC ; ioButton::iwm_rbuttondown
EXTRN	?iwm_rbuttonup@ioButton@@UAEXABVioMouse@@@Z:PROC ; ioButton::iwm_rbuttonup
EXTRN	?iwm_command@ioWnd@@UAEXPAV1@HK@Z:PROC		; ioWnd::iwm_command
EXTRN	?iwm_mouseover@ioButton@@UAEXABVioMouse@@@Z:PROC ; ioButton::iwm_mouseover
EXTRN	?iwm_mousemove@ioWnd@@UAEXABVioMouse@@@Z:PROC	; ioWnd::iwm_mousemove
EXTRN	?iwm_mouseleave@ioWnd@@UAEXABVioMouse@@@Z:PROC	; ioWnd::iwm_mouseleave
EXTRN	?iwm_vscroll@ioWnd@@UAEXKH@Z:PROC		; ioWnd::iwm_vscroll
EXTRN	?iwm_wheel@ioWnd@@UAEXH@Z:PROC			; ioWnd::iwm_wheel
EXTRN	?iwm_esc@ioWnd@@UAE_NXZ:PROC			; ioWnd::iwm_esc
EXTRN	?iwm_spacebar@ioWnd@@UAE_NXZ:PROC		; ioWnd::iwm_spacebar
EXTRN	?iwm_gototop@ioWnd@@UAEXXZ:PROC			; ioWnd::iwm_gototop
EXTRN	?iwm_dragenter@ioWnd@@UAE?AW4IWDropEffect@@PAVioDragItem@@ABVioMouse@@@Z:PROC ; ioWnd::iwm_dragenter
EXTRN	?iwm_dragover@ioWnd@@UAE?AW4IWDropEffect@@PAVioDragItem@@ABVioMouse@@@Z:PROC ; ioWnd::iwm_dragover
EXTRN	?iwm_dragleave@ioWnd@@UAEXXZ:PROC		; ioWnd::iwm_dragleave
EXTRN	?iwm_dropitem@ioWnd@@UAE_NPAVioDragItem@@ABVioMouse@@PAV1@@Z:PROC ; ioWnd::iwm_dropitem
EXTRN	?iwm_dropdone@ioWnd@@UAEXPAVioDragItem@@PAV1@_N@Z:PROC ; ioWnd::iwm_dropdone
EXTRN	?IsEXType@ioWnd@@UBE_NXZ:PROC			; ioWnd::IsEXType
EXTRN	?GetWndType@ioButton@@UBEKXZ:PROC		; ioButton::GetWndType
EXTRN	?RenderWnd@ioWnd@@UAEXXZ:PROC			; ioWnd::RenderWnd
EXTRN	?SetIDEX@ioWnd@@UAEXAAK_N@Z:PROC		; ioWnd::SetIDEX
EXTRN	?ParseXML@ioWnd@@UAEXAAVioXMLElement@@@Z:PROC	; ioWnd::ParseXML
EXTRN	?GetHeaderFileName@ioButton@@UAEPBDXZ:PROC	; ioButton::GetHeaderFileName
EXTRN	?GetTemplateName@ioButton@@UAEPBDXZ:PROC	; ioButton::GetTemplateName
EXTRN	?GetDefClassName@ioButton@@UBEPBDXZ:PROC	; ioButton::GetDefClassName
EXTRN	?_Clone@ioButton@@UAEPAVioWnd@@XZ:PROC		; ioButton::_Clone
EXTRN	?Copy@ioButton@@UAEXPAVioWnd@@@Z:PROC		; ioButton::Copy
EXTRN	?Save@ioWnd@@UAE_NAAVioXMLElement@@@Z:PROC	; ioWnd::Save
EXTRN	?SetSaveData@ioButton@@UAEXAAVioXMLElement@@@Z:PROC ; ioButton::SetSaveData
EXTRN	?SetPosX@ioWnd@@UAEXH@Z:PROC			; ioWnd::SetPosX
EXTRN	?SetPosY@ioWnd@@UAEXH@Z:PROC			; ioWnd::SetPosY
EXTRN	?SetWidth@ioWnd@@UAEXH@Z:PROC			; ioWnd::SetWidth
EXTRN	?SetHeight@ioWnd@@UAEXH@Z:PROC			; ioWnd::SetHeight
EXTRN	?GetNumFixedRenderFrame@ioButton@@UBEHXZ:PROC	; ioButton::GetNumFixedRenderFrame
EXTRN	?GetFixedRenderFrameType@ioButton@@UAEPBDH@Z:PROC ; ioButton::GetFixedRenderFrameType
EXTRN	?GetRenderFrame@ioButton@@UAEPAPAVioUIRenderElement@@PBD@Z:PROC ; ioButton::GetRenderFrame
EXTRN	?GetNumFixedRenderImage@ioButton@@UBEHXZ:PROC	; ioButton::GetNumFixedRenderImage
EXTRN	?GetFixedRenderImageType@ioButton@@UAEPBDH@Z:PROC ; ioButton::GetFixedRenderImageType
EXTRN	?GetRenderImage@ioButton@@UAEPAPAVioUIRenderElement@@PBD@Z:PROC ; ioButton::GetRenderImage
EXTRN	?AddEffect@ioWnd@@UAEXABVioHashString@@PAVioUI3DEffectRender@@@Z:PROC ; ioWnd::AddEffect
EXTRN	?GetEffect@ioWnd@@UAEPAVioUI3DEffectRender@@VioHashString@@@Z:PROC ; ioWnd::GetEffect
EXTRN	??_ERisingGashaponItemInfoBtn@@UAEPAXI@Z:PROC	; RisingGashaponItemInfoBtn::`vector deleting destructor'
EXTRN	?OnDrawOveredAdd@ioButton@@MAEXHH@Z:PROC	; ioButton::OnDrawOveredAdd
EXTRN	?OnDrawExDisabledNormal@ioButton@@MAEXHH@Z:PROC	; ioButton::OnDrawExDisabledNormal
EXTRN	?OnDrawExDisabledOvered@ioButton@@MAEXHH@Z:PROC	; ioButton::OnDrawExDisabledOvered
EXTRN	?OnDrawExDisabledPushed@ioButton@@MAEXHH@Z:PROC	; ioButton::OnDrawExDisabledPushed
EXTRN	?OnDrawBack@ioButton@@MAEXHH@Z:PROC		; ioButton::OnDrawBack
EXTRN	?OnDrawNormalList@ioButton@@MAEXHH@Z:PROC	; ioButton::OnDrawNormalList
EXTRN	?OnDrawDisableList@ioButton@@MAEXHH@Z:PROC	; ioButton::OnDrawDisableList
;	COMDAT ??_R2ioWnd@@8
; File c:\program files (x86)\microsoft visual studio 10.0\vc\include\xutility
rdata$r	SEGMENT
??_R2ioWnd@@8 DD FLAT:??_R1A@?0A@EA@ioWnd@@8		; ioWnd::`RTTI Base Class Array'
rdata$r	ENDS
;	COMDAT ??_R3ioWnd@@8
rdata$r	SEGMENT
??_R3ioWnd@@8 DD 00H					; ioWnd::`RTTI Class Hierarchy Descriptor'
	DD	00H
	DD	01H
	DD	FLAT:??_R2ioWnd@@8
rdata$r	ENDS
;	COMDAT ??_R0?AVioWnd@@@8
_DATA	SEGMENT
??_R0?AVioWnd@@@8 DD FLAT:??_7type_info@@6B@		; ioWnd `RTTI Type Descriptor'
	DD	00H
	DB	'.?AVioWnd@@', 00H
_DATA	ENDS
;	COMDAT ??_R1A@?0A@EA@ioWnd@@8
rdata$r	SEGMENT
??_R1A@?0A@EA@ioWnd@@8 DD FLAT:??_R0?AVioWnd@@@8	; ioWnd::`RTTI Base Class Descriptor at (0,-1,0,64)'
	DD	00H
	DD	00H
	DD	0ffffffffH
	DD	00H
	DD	040H
	DD	FLAT:??_R3ioWnd@@8
rdata$r	ENDS
;	COMDAT ??_R2ioButton@@8
rdata$r	SEGMENT
??_R2ioButton@@8 DD FLAT:??_R1A@?0A@EA@ioButton@@8	; ioButton::`RTTI Base Class Array'
	DD	FLAT:??_R1A@?0A@EA@ioWnd@@8
rdata$r	ENDS
;	COMDAT ??_R3ioButton@@8
rdata$r	SEGMENT
??_R3ioButton@@8 DD 00H					; ioButton::`RTTI Class Hierarchy Descriptor'
	DD	00H
	DD	02H
	DD	FLAT:??_R2ioButton@@8
rdata$r	ENDS
;	COMDAT ??_R0?AVioButton@@@8
_DATA	SEGMENT
??_R0?AVioButton@@@8 DD FLAT:??_7type_info@@6B@		; ioButton `RTTI Type Descriptor'
	DD	00H
	DB	'.?AVioButton@@', 00H
_DATA	ENDS
;	COMDAT ??_R1A@?0A@EA@ioButton@@8
rdata$r	SEGMENT
??_R1A@?0A@EA@ioButton@@8 DD FLAT:??_R0?AVioButton@@@8	; ioButton::`RTTI Base Class Descriptor at (0,-1,0,64)'
	DD	01H
	DD	00H
	DD	0ffffffffH
	DD	00H
	DD	040H
	DD	FLAT:??_R3ioButton@@8
rdata$r	ENDS
;	COMDAT ??_R1A@?0A@EA@RisingGashaponItemInfoBtn@@8
rdata$r	SEGMENT
??_R1A@?0A@EA@RisingGashaponItemInfoBtn@@8 DD FLAT:??_R0?AVRisingGashaponItemInfoBtn@@@8 ; RisingGashaponItemInfoBtn::`RTTI Base Class Descriptor at (0,-1,0,64)'
	DD	02H
	DD	00H
	DD	0ffffffffH
	DD	00H
	DD	040H
	DD	FLAT:??_R3RisingGashaponItemInfoBtn@@8
rdata$r	ENDS
;	COMDAT ??_R2RisingGashaponItemInfoBtn@@8
rdata$r	SEGMENT
??_R2RisingGashaponItemInfoBtn@@8 DD FLAT:??_R1A@?0A@EA@RisingGashaponItemInfoBtn@@8 ; RisingGashaponItemInfoBtn::`RTTI Base Class Array'
	DD	FLAT:??_R1A@?0A@EA@ioButton@@8
	DD	FLAT:??_R1A@?0A@EA@ioWnd@@8
rdata$r	ENDS
;	COMDAT ??_R3RisingGashaponItemInfoBtn@@8
rdata$r	SEGMENT
??_R3RisingGashaponItemInfoBtn@@8 DD 00H		; RisingGashaponItemInfoBtn::`RTTI Class Hierarchy Descriptor'
	DD	00H
	DD	03H
	DD	FLAT:??_R2RisingGashaponItemInfoBtn@@8
rdata$r	ENDS
;	COMDAT ??_R0?AVRisingGashaponItemInfoBtn@@@8
_DATA	SEGMENT
??_R0?AVRisingGashaponItemInfoBtn@@@8 DD FLAT:??_7type_info@@6B@ ; RisingGashaponItemInfoBtn `RTTI Type Descriptor'
	DD	00H
	DB	'.?AVRisingGashaponItemInfoBtn@@', 00H
_DATA	ENDS
;	COMDAT ??_R4RisingGashaponItemInfoBtn@@6B@
rdata$r	SEGMENT
??_R4RisingGashaponItemInfoBtn@@6B@ DD 00H		; RisingGashaponItemInfoBtn::`RTTI Complete Object Locator'
	DD	00H
	DD	00H
	DD	FLAT:??_R0?AVRisingGashaponItemInfoBtn@@@8
	DD	FLAT:??_R3RisingGashaponItemInfoBtn@@8
rdata$r	ENDS
;	COMDAT ??_7RisingGashaponItemInfoBtn@@6B@
CONST	SEGMENT
??_7RisingGashaponItemInfoBtn@@6B@ DD FLAT:??_R4RisingGashaponItemInfoBtn@@6B@ ; RisingGashaponItemInfoBtn::`vftable'
	DD	FLAT:?AddRenderFrame@RisingGashaponItemInfoBtn@@MAEXABVioHashString@@PAVioUIRenderFrame@@@Z
	DD	FLAT:?AddRenderImage@RisingGashaponItemInfoBtn@@MAEXABVioHashString@@PAVioUIRenderImage@@@Z
	DD	FLAT:?AddTooltipHelp@ioWnd@@UAEXABVioHashString@@00@Z
	DD	FLAT:?ParseExtraInfo@RisingGashaponItemInfoBtn@@UAEXAAVioXMLElement@@@Z
	DD	FLAT:?AddNamedRenderImage@ioWnd@@UAEXABVioHashString@@PAVioUIRenderImage@@@Z
	DD	FLAT:?RemoveNamedRenderImage@ioWnd@@UAEXABVioHashString@@@Z
	DD	FLAT:?GetNamedRenderImage@ioWnd@@UBEPAVioUIRenderImage@@ABVioHashString@@@Z
	DD	FLAT:?SetWindowAlpha@ioButton@@UAEXH@Z
	DD	FLAT:?SetActive@ioWnd@@UAEXXZ
	DD	FLAT:?SetInActive@ioWnd@@UAEXXZ
	DD	FLAT:?ClearElementImageList@ioWnd@@UAEXXZ
	DD	FLAT:?SetSize@ioWnd@@UAEXHH@Z
	DD	FLAT:?SetPositionToDefault@ioWnd@@UAEXHH_N0@Z
	DD	FLAT:?IsNeedProcess@ioWnd@@UBE_NXZ
	DD	FLAT:?IsCanMouseReaction@ioWnd@@UBE_NXZ
	DD	FLAT:?AddChild@ioWnd@@UAEXPAV1@@Z
	DD	FLAT:?DeleteChild@ioWnd@@UAEXK@Z
	DD	FLAT:?DeleteAllChild@ioWnd@@UAEXXZ
	DD	FLAT:?OnRenderShowAndHide@ioWnd@@MAE_NXZ
	DD	FLAT:?OnRenderShowAndHideByDefault@ioWnd@@MAE_NK@Z
	DD	FLAT:?OnRenderShowAndHideByTop@ioWnd@@MAE_NK@Z
	DD	FLAT:?OnRenderShowAndHideByDown@ioWnd@@MAE_NK@Z
	DD	FLAT:?OnRender@RisingGashaponItemInfoBtn@@MAEXXZ
	DD	FLAT:?OnRenderAfterChild@ioWnd@@MAEXXZ
	DD	FLAT:?OnProcess@RisingGashaponItemInfoBtn@@MAEXM@Z
	DD	FLAT:?OnMouseProcess@ioWnd@@MAEXABVioMouse@@@Z
	DD	FLAT:?CheckFrameReSize@ioButton@@MAEXHHHH@Z
	DD	FLAT:?RenderImageList@ioWnd@@MAEXHHW4UIRenderType@@@Z
	DD	FLAT:?iwm_create@RisingGashaponItemInfoBtn@@UAEXXZ
	DD	FLAT:?iwm_destroy@ioWnd@@UAEXXZ
	DD	FLAT:?iwm_lbuttondown@ioButton@@UAEXABVioMouse@@@Z
	DD	FLAT:?iwm_lbuttonup@ioButton@@UAEXABVioMouse@@@Z
	DD	FLAT:?iwm_lbuttonDBLCLK@ioButton@@UAEXABVioMouse@@@Z
	DD	FLAT:?iwm_rbuttondown@ioButton@@UAEXABVioMouse@@@Z
	DD	FLAT:?iwm_rbuttonup@ioButton@@UAEXABVioMouse@@@Z
	DD	FLAT:?iwm_command@ioWnd@@UAEXPAV1@HK@Z
	DD	FLAT:?iwm_mouseover@ioButton@@UAEXABVioMouse@@@Z
	DD	FLAT:?iwm_mousemove@ioWnd@@UAEXABVioMouse@@@Z
	DD	FLAT:?iwm_mouseleave@ioWnd@@UAEXABVioMouse@@@Z
	DD	FLAT:?iwm_vscroll@ioWnd@@UAEXKH@Z
	DD	FLAT:?iwm_wheel@ioWnd@@UAEXH@Z
	DD	FLAT:?iwm_show@RisingGashaponItemInfoBtn@@UAEXXZ
	DD	FLAT:?iwm_hide@RisingGashaponItemInfoBtn@@UAEXXZ
	DD	FLAT:?iwm_esc@ioWnd@@UAE_NXZ
	DD	FLAT:?iwm_spacebar@ioWnd@@UAE_NXZ
	DD	FLAT:?iwm_gototop@ioWnd@@UAEXXZ
	DD	FLAT:?iwm_dragenter@ioWnd@@UAE?AW4IWDropEffect@@PAVioDragItem@@ABVioMouse@@@Z
	DD	FLAT:?iwm_dragover@ioWnd@@UAE?AW4IWDropEffect@@PAVioDragItem@@ABVioMouse@@@Z
	DD	FLAT:?iwm_dragleave@ioWnd@@UAEXXZ
	DD	FLAT:?iwm_dropitem@ioWnd@@UAE_NPAVioDragItem@@ABVioMouse@@PAV1@@Z
	DD	FLAT:?iwm_dropdone@ioWnd@@UAEXPAVioDragItem@@PAV1@_N@Z
	DD	FLAT:?IsEXType@ioWnd@@UBE_NXZ
	DD	FLAT:?GetWndType@ioButton@@UBEKXZ
	DD	FLAT:?RenderWnd@ioWnd@@UAEXXZ
	DD	FLAT:?SetIDEX@ioWnd@@UAEXAAK_N@Z
	DD	FLAT:?ParseXML@ioWnd@@UAEXAAVioXMLElement@@@Z
	DD	FLAT:?GetHeaderFileName@ioButton@@UAEPBDXZ
	DD	FLAT:?GetTemplateName@ioButton@@UAEPBDXZ
	DD	FLAT:?GetDefClassName@ioButton@@UBEPBDXZ
	DD	FLAT:?_Clone@ioButton@@UAEPAVioWnd@@XZ
	DD	FLAT:?Copy@ioButton@@UAEXPAVioWnd@@@Z
	DD	FLAT:?Save@ioWnd@@UAE_NAAVioXMLElement@@@Z
	DD	FLAT:?SetSaveData@ioButton@@UAEXAAVioXMLElement@@@Z
	DD	FLAT:?SetPosX@ioWnd@@UAEXH@Z
	DD	FLAT:?SetPosY@ioWnd@@UAEXH@Z
	DD	FLAT:?SetWidth@ioWnd@@UAEXH@Z
	DD	FLAT:?SetHeight@ioWnd@@UAEXH@Z
	DD	FLAT:?GetNumFixedRenderFrame@ioButton@@UBEHXZ
	DD	FLAT:?GetFixedRenderFrameType@ioButton@@UAEPBDH@Z
	DD	FLAT:?GetRenderFrame@ioButton@@UAEPAPAVioUIRenderElement@@PBD@Z
	DD	FLAT:?GetNumFixedRenderImage@ioButton@@UBEHXZ
	DD	FLAT:?GetFixedRenderImageType@ioButton@@UAEPBDH@Z
	DD	FLAT:?GetRenderImage@ioButton@@UAEPAPAVioUIRenderElement@@PBD@Z
	DD	FLAT:?AddEffect@ioWnd@@UAEXABVioHashString@@PAVioUI3DEffectRender@@@Z
	DD	FLAT:?GetEffect@ioWnd@@UAEPAVioUI3DEffectRender@@VioHashString@@@Z
	DD	FLAT:??_ERisingGashaponItemInfoBtn@@UAEPAXI@Z
	DD	FLAT:?OnDrawNormal@RisingGashaponItemInfoBtn@@MAEXHH@Z
	DD	FLAT:?OnDrawOvered@RisingGashaponItemInfoBtn@@MAEXHH@Z
	DD	FLAT:?OnDrawOveredAdd@ioButton@@MAEXHH@Z
	DD	FLAT:?OnDrawPushed@RisingGashaponItemInfoBtn@@MAEXHH@Z
	DD	FLAT:?OnDrawDisabled@RisingGashaponItemInfoBtn@@MAEXHH@Z
	DD	FLAT:?OnDrawExDisabledNormal@ioButton@@MAEXHH@Z
	DD	FLAT:?OnDrawExDisabledOvered@ioButton@@MAEXHH@Z
	DD	FLAT:?OnDrawExDisabledPushed@ioButton@@MAEXHH@Z
	DD	FLAT:?OnDrawBack@ioButton@@MAEXHH@Z
	DD	FLAT:?OnDrawNormalList@ioButton@@MAEXHH@Z
	DD	FLAT:?OnDrawDisableList@ioButton@@MAEXHH@Z
CONST	ENDS
;	COMDAT xdata$x
xdata$x	SEGMENT
__ehfuncinfo$??0RisingGashaponItemInfoBtn@@QAE@XZ DD 019930522H
	DD	05H
	DD	FLAT:__unwindtable$??0RisingGashaponItemInfoBtn@@QAE@XZ
	DD	2 DUP(00H)
	DD	2 DUP(00H)
	DD	00H
	DD	01H
__unwindtable$??0RisingGashaponItemInfoBtn@@QAE@XZ DD 0ffffffffH
	DD	FLAT:__unwindfunclet$??0RisingGashaponItemInfoBtn@@QAE@XZ$0
	DD	00H
	DD	FLAT:__unwindfunclet$??0RisingGashaponItemInfoBtn@@QAE@XZ$1
	DD	01H
	DD	FLAT:__unwindfunclet$??0RisingGashaponItemInfoBtn@@QAE@XZ$2
	DD	02H
	DD	FLAT:__unwindfunclet$??0RisingGashaponItemInfoBtn@@QAE@XZ$3
	DD	03H
	DD	FLAT:__unwindfunclet$??0RisingGashaponItemInfoBtn@@QAE@XZ$4
; Function compile flags: /Ogsp
; File d:\lost saga for developer\youtube\tutorial\source\src\lsclient\gui\risinggashaponwnd.cpp
xdata$x	ENDS
;	COMDAT ??0RisingGashaponItemInfoBtn@@QAE@XZ
_TEXT	SEGMENT
$T524198 = -20						; size = 4
_this$ = -16						; size = 4
__$EHRec$ = -12						; size = 12
??0RisingGashaponItemInfoBtn@@QAE@XZ PROC		; RisingGashaponItemInfoBtn::RisingGashaponItemInfoBtn, COMDAT
; _this$ = ecx

; 28   : {

  00000	6a 08		 push	 8
  00002	b8 00 00 00 00	 mov	 eax, __ehhandler$??0RisingGashaponItemInfoBtn@@QAE@XZ
  00007	e8 00 00 00 00	 call	 __EH_prolog3
  0000c	8b f1		 mov	 esi, ecx
  0000e	89 75 f0	 mov	 DWORD PTR _this$[ebp], esi
  00011	ff 15 00 00 00
	00		 call	 DWORD PTR __imp_??0ioButton@@QAE@XZ
  00017	33 db		 xor	 ebx, ebx
  00019	8d 8e 14 02 00
	00		 lea	 ecx, DWORD PTR [esi+532]
  0001f	89 5d fc	 mov	 DWORD PTR __$EHRec$[ebp+8], ebx
  00022	c7 06 00 00 00
	00		 mov	 DWORD PTR [esi], OFFSET ??_7RisingGashaponItemInfoBtn@@6B@
  00028	e8 00 00 00 00	 call	 ??0GashaponPresent@@QAE@XZ ; GashaponPresent::GashaponPresent
  0002d	89 9e 30 02 00
	00		 mov	 DWORD PTR [esi+560], ebx
  00033	89 9e 34 02 00
	00		 mov	 DWORD PTR [esi+564], ebx
  00039	89 9e 38 02 00
	00		 mov	 DWORD PTR [esi+568], ebx
  0003f	8d 8e 4c 02 00
	00		 lea	 ecx, DWORD PTR [esi+588]
  00045	c6 45 fc 02	 mov	 BYTE PTR __$EHRec$[ebp+8], 2
  00049	ff 15 00 00 00
	00		 call	 DWORD PTR __imp_??0ioHashString@@QAE@XZ
  0004f	ff 35 00 00 00
	00		 push	 DWORD PTR __imp_??1ioHashString@@QAE@XZ
  00055	8d 86 5c 02 00
	00		 lea	 eax, DWORD PTR [esi+604]
  0005b	ff 35 00 00 00
	00		 push	 DWORD PTR __imp_??0ioHashString@@QAE@XZ
  00061	c6 45 fc 03	 mov	 BYTE PTR __$EHRec$[ebp+8], 3
  00065	6a 02		 push	 2
  00067	6a 10		 push	 16			; 00000010H
  00069	50		 push	 eax
  0006a	e8 00 00 00 00	 call	 ??_L@YGXPAXIHP6EX0@Z1@Z

; 29   : 
; 30   : 	m_pSelect = NULL;
; 31   : 	m_pPresentIcon = NULL;
; 32   : 	m_pEffect = NULL;
; 33   : 	m_pPlus = NULL;
; 34   : 	m_pNum = NULL;
; 35   : 	m_pEmpty = NULL;
; 36   : 	m_pGain = NULL;
; 37   : 
; 38   : 	m_bGetCard = false;
; 39   : 	m_bSelect  = false;
; 40   : 
; 41   : 	m_iCurEffectArray     = -1;

  0006f	83 8e 40 02 00
	00 ff		 or	 DWORD PTR [esi+576], -1
  00076	89 9e fc 01 00
	00		 mov	 DWORD PTR [esi+508], ebx
  0007c	89 9e 04 02 00
	00		 mov	 DWORD PTR [esi+516], ebx
  00082	89 9e 2c 02 00
	00		 mov	 DWORD PTR [esi+556], ebx
  00088	89 9e 0c 02 00
	00		 mov	 DWORD PTR [esi+524], ebx
  0008e	89 9e 08 02 00
	00		 mov	 DWORD PTR [esi+520], ebx
  00094	89 9e 00 02 00
	00		 mov	 DWORD PTR [esi+512], ebx
  0009a	89 9e 10 02 00
	00		 mov	 DWORD PTR [esi+528], ebx
  000a0	66 89 9e 28 02
	00 00		 mov	 WORD PTR [esi+552], bx

; 42   : 	m_dwRollingEffectTime = 0;

  000a7	89 9e 44 02 00
	00		 mov	 DWORD PTR [esi+580], ebx

; 43   : 	m_dwRollingEffectCheckTime = 0;

  000ad	89 9e 48 02 00
	00		 mov	 DWORD PTR [esi+584], ebx

; 44   : 	m_vEndEfffect_S.clear();

  000b3	8b 86 34 02 00
	00		 mov	 eax, DWORD PTR [esi+564]
  000b9	8b 8e 30 02 00
	00		 mov	 ecx, DWORD PTR [esi+560]
  000bf	50		 push	 eax
  000c0	51		 push	 ecx
  000c1	8d 45 ec	 lea	 eax, DWORD PTR $T524198[ebp]
  000c4	50		 push	 eax
  000c5	8d 8e 30 02 00
	00		 lea	 ecx, DWORD PTR [esi+560]
  000cb	c6 45 fc 04	 mov	 BYTE PTR __$EHRec$[ebp+8], 4
  000cf	e8 00 00 00 00	 call	 ?erase@?$vector@VioHashString@@V?$allocator@VioHashString@@@std@@@std@@QAE?AV?$_Vector_iterator@V?$_Vector_val@VioHashString@@V?$allocator@VioHashString@@@std@@@std@@@2@V?$_Vector_const_iterator@V?$_Vector_val@VioHashString@@V?$allocator@VioHashString@@@std@@@std@@@2@0@Z ; std::vector<ioHashString,std::allocator<ioHashString> >::erase

; 45   : 
; 46   : 
; 47   : }

  000d4	8b c6		 mov	 eax, esi
  000d6	e8 00 00 00 00	 call	 __EH_epilog3
  000db	c3		 ret	 0
_TEXT	ENDS
;	COMDAT text$x
text$x	SEGMENT
__unwindfunclet$??0RisingGashaponItemInfoBtn@@QAE@XZ$0:
  00000	8b 4d f0	 mov	 ecx, DWORD PTR _this$[ebp]
  00003	ff 25 00 00 00
	00		 jmp	 DWORD PTR __imp_??1ioButton@@UAE@XZ
__unwindfunclet$??0RisingGashaponItemInfoBtn@@QAE@XZ$1:
  00009	8b 4d f0	 mov	 ecx, DWORD PTR _this$[ebp]
  0000c	81 c1 14 02 00
	00		 add	 ecx, 532		; 00000214H
  00012	e9 00 00 00 00	 jmp	 ??1GashaponPresent@@QAE@XZ ; GashaponPresent::~GashaponPresent
__unwindfunclet$??0RisingGashaponItemInfoBtn@@QAE@XZ$2:
  00017	8b 4d f0	 mov	 ecx, DWORD PTR _this$[ebp]
  0001a	81 c1 30 02 00
	00		 add	 ecx, 560		; 00000230H
  00020	e9 00 00 00 00	 jmp	 ??1?$vector@VioHashString@@V?$allocator@VioHashString@@@std@@@std@@QAE@XZ ; std::vector<ioHashString,std::allocator<ioHashString> >::~vector<ioHashString,std::allocator<ioHashString> >
__unwindfunclet$??0RisingGashaponItemInfoBtn@@QAE@XZ$3:
  00025	8b 4d f0	 mov	 ecx, DWORD PTR _this$[ebp]
  00028	81 c1 4c 02 00
	00		 add	 ecx, 588		; 0000024cH
  0002e	ff 25 00 00 00
	00		 jmp	 DWORD PTR __imp_??1ioHashString@@QAE@XZ
__unwindfunclet$??0RisingGashaponItemInfoBtn@@QAE@XZ$4:
  00034	ff 35 00 00 00
	00		 push	 DWORD PTR __imp_??1ioHashString@@QAE@XZ
  0003a	6a 02		 push	 2
  0003c	6a 10		 push	 16			; 00000010H
  0003e	8b 45 f0	 mov	 eax, DWORD PTR _this$[ebp]
  00041	05 5c 02 00 00	 add	 eax, 604		; 0000025cH
  00046	50		 push	 eax
  00047	e8 00 00 00 00	 call	 ??_M@YGXPAXIHP6EX0@Z@Z
  0004c	c3		 ret	 0
__ehhandler$??0RisingGashaponItemInfoBtn@@QAE@XZ:
  0004d	8b 54 24 08	 mov	 edx, DWORD PTR [esp+8]
  00051	8d 42 0c	 lea	 eax, DWORD PTR [edx+12]
  00054	8b 4a e8	 mov	 ecx, DWORD PTR [edx-24]
  00057	33 c8		 xor	 ecx, eax
  00059	e8 00 00 00 00	 call	 @__security_check_cookie@4
  0005e	b8 00 00 00 00	 mov	 eax, OFFSET __ehfuncinfo$??0RisingGashaponItemInfoBtn@@QAE@XZ
  00063	e9 00 00 00 00	 jmp	 ___CxxFrameHandler3
text$x	ENDS
??0RisingGashaponItemInfoBtn@@QAE@XZ ENDP		; RisingGashaponItemInfoBtn::RisingGashaponItemInfoBtn
PUBLIC	??1RisingGashaponItemInfoBtn@@UAE@XZ		; RisingGashaponItemInfoBtn::~RisingGashaponItemInfoBtn
;	COMDAT xdata$x
; File c:\program files (x86)\microsoft visual studio 10.0\vc\include\vector
xdata$x	SEGMENT
__ehfuncinfo$??1RisingGashaponItemInfoBtn@@UAE@XZ DD 019930522H
	DD	05H
	DD	FLAT:__unwindtable$??1RisingGashaponItemInfoBtn@@UAE@XZ
	DD	2 DUP(00H)
	DD	2 DUP(00H)
	DD	00H
	DD	01H
__unwindtable$??1RisingGashaponItemInfoBtn@@UAE@XZ DD 0ffffffffH
	DD	FLAT:__unwindfunclet$??1RisingGashaponItemInfoBtn@@UAE@XZ$0
	DD	00H
	DD	FLAT:__unwindfunclet$??1RisingGashaponItemInfoBtn@@UAE@XZ$1
	DD	01H
	DD	FLAT:__unwindfunclet$??1RisingGashaponItemInfoBtn@@UAE@XZ$2
	DD	02H
	DD	FLAT:__unwindfunclet$??1RisingGashaponItemInfoBtn@@UAE@XZ$3
	DD	03H
	DD	FLAT:__unwindfunclet$??1RisingGashaponItemInfoBtn@@UAE@XZ$4
; Function compile flags: /Ogsp
; File d:\lost saga for developer\youtube\tutorial\source\src\lsclient\gui\risinggashaponwnd.cpp
xdata$x	ENDS
;	COMDAT ??1RisingGashaponItemInfoBtn@@UAE@XZ
_TEXT	SEGMENT
_this$ = -16						; size = 4
__$EHRec$ = -12						; size = 12
??1RisingGashaponItemInfoBtn@@UAE@XZ PROC		; RisingGashaponItemInfoBtn::~RisingGashaponItemInfoBtn, COMDAT
; _this$ = ecx

; 50   : {

  00000	6a 04		 push	 4
  00002	b8 00 00 00 00	 mov	 eax, __ehhandler$??1RisingGashaponItemInfoBtn@@UAE@XZ
  00007	e8 00 00 00 00	 call	 __EH_prolog3
  0000c	8b f1		 mov	 esi, ecx
  0000e	89 75 f0	 mov	 DWORD PTR _this$[ebp], esi
  00011	c7 06 00 00 00
	00		 mov	 DWORD PTR [esi], OFFSET ??_7RisingGashaponItemInfoBtn@@6B@

; 51   : 	SAFEDELETE( m_pSelect );

  00017	8b 8e fc 01 00
	00		 mov	 ecx, DWORD PTR [esi+508]
  0001d	33 db		 xor	 ebx, ebx
  0001f	c7 45 fc 04 00
	00 00		 mov	 DWORD PTR __$EHRec$[ebp+8], 4
  00026	3b cb		 cmp	 ecx, ebx
  00028	74 0d		 je	 SHORT $LN7@RisingGash
  0002a	8b 01		 mov	 eax, DWORD PTR [ecx]
  0002c	6a 01		 push	 1
  0002e	ff 50 40	 call	 DWORD PTR [eax+64]
  00031	89 9e fc 01 00
	00		 mov	 DWORD PTR [esi+508], ebx
$LN7@RisingGash:

; 52   : 
; 53   : 	SAFEDELETE( m_pPresentIcon );

  00037	8b 8e 04 02 00
	00		 mov	 ecx, DWORD PTR [esi+516]
  0003d	3b cb		 cmp	 ecx, ebx
  0003f	74 0d		 je	 SHORT $LN6@RisingGash
  00041	8b 01		 mov	 eax, DWORD PTR [ecx]
  00043	6a 01		 push	 1
  00045	ff 50 40	 call	 DWORD PTR [eax+64]
  00048	89 9e 04 02 00
	00		 mov	 DWORD PTR [esi+516], ebx
$LN6@RisingGash:

; 54   : 	SAFEDELETE( m_pEffect );

  0004e	8b 8e 2c 02 00
	00		 mov	 ecx, DWORD PTR [esi+556]
  00054	3b cb		 cmp	 ecx, ebx
  00056	74 0d		 je	 SHORT $LN5@RisingGash
  00058	8b 01		 mov	 eax, DWORD PTR [ecx]
  0005a	6a 01		 push	 1
  0005c	ff 50 40	 call	 DWORD PTR [eax+64]
  0005f	89 9e 2c 02 00
	00		 mov	 DWORD PTR [esi+556], ebx
$LN5@RisingGash:

; 55   : 
; 56   : 	SAFEDELETE( m_pNum );

  00065	8b 8e 08 02 00
	00		 mov	 ecx, DWORD PTR [esi+520]
  0006b	3b cb		 cmp	 ecx, ebx
  0006d	74 0d		 je	 SHORT $LN4@RisingGash
  0006f	8b 01		 mov	 eax, DWORD PTR [ecx]
  00071	6a 01		 push	 1
  00073	ff 50 40	 call	 DWORD PTR [eax+64]
  00076	89 9e 08 02 00
	00		 mov	 DWORD PTR [esi+520], ebx
$LN4@RisingGash:

; 57   : 	SAFEDELETE( m_pPlus );

  0007c	8b 8e 0c 02 00
	00		 mov	 ecx, DWORD PTR [esi+524]
  00082	3b cb		 cmp	 ecx, ebx
  00084	74 0d		 je	 SHORT $LN3@RisingGash
  00086	8b 01		 mov	 eax, DWORD PTR [ecx]
  00088	6a 01		 push	 1
  0008a	ff 50 40	 call	 DWORD PTR [eax+64]
  0008d	89 9e 0c 02 00
	00		 mov	 DWORD PTR [esi+524], ebx
$LN3@RisingGash:

; 58   : 	SAFEDELETE( m_pEmpty );

  00093	8b 8e 00 02 00
	00		 mov	 ecx, DWORD PTR [esi+512]
  00099	3b cb		 cmp	 ecx, ebx
  0009b	74 0d		 je	 SHORT $LN2@RisingGash
  0009d	8b 01		 mov	 eax, DWORD PTR [ecx]
  0009f	6a 01		 push	 1
  000a1	ff 50 40	 call	 DWORD PTR [eax+64]
  000a4	89 9e 00 02 00
	00		 mov	 DWORD PTR [esi+512], ebx
$LN2@RisingGash:

; 59   : 	SAFEDELETE( m_pGain );

  000aa	8b 8e 10 02 00
	00		 mov	 ecx, DWORD PTR [esi+528]
  000b0	3b cb		 cmp	 ecx, ebx
  000b2	74 0d		 je	 SHORT $LN1@RisingGash
  000b4	8b 01		 mov	 eax, DWORD PTR [ecx]
  000b6	6a 01		 push	 1
  000b8	ff 50 40	 call	 DWORD PTR [eax+64]
  000bb	89 9e 10 02 00
	00		 mov	 DWORD PTR [esi+528], ebx
$LN1@RisingGash:

; 60   : 
; 61   : 
; 62   : 
; 63   : }

  000c1	8b 3d 00 00 00
	00		 mov	 edi, DWORD PTR __imp_??1ioHashString@@QAE@XZ
  000c7	57		 push	 edi
  000c8	6a 02		 push	 2
  000ca	6a 10		 push	 16			; 00000010H
  000cc	8d 86 5c 02 00
	00		 lea	 eax, DWORD PTR [esi+604]
  000d2	50		 push	 eax
  000d3	c6 45 fc 03	 mov	 BYTE PTR __$EHRec$[ebp+8], 3
  000d7	e8 00 00 00 00	 call	 ??_M@YGXPAXIHP6EX0@Z@Z
  000dc	8d 8e 4c 02 00
	00		 lea	 ecx, DWORD PTR [esi+588]
  000e2	c6 45 fc 02	 mov	 BYTE PTR __$EHRec$[ebp+8], 2
  000e6	ff d7		 call	 edi
  000e8	8d 8e 30 02 00
	00		 lea	 ecx, DWORD PTR [esi+560]
  000ee	c6 45 fc 01	 mov	 BYTE PTR __$EHRec$[ebp+8], 1
  000f2	e8 00 00 00 00	 call	 ?_Tidy@?$vector@VioHashString@@V?$allocator@VioHashString@@@std@@@std@@IAEXXZ ; std::vector<ioHashString,std::allocator<ioHashString> >::_Tidy
  000f7	8d 8e 14 02 00
	00		 lea	 ecx, DWORD PTR [esi+532]
  000fd	88 5d fc	 mov	 BYTE PTR __$EHRec$[ebp+8], bl
  00100	e8 00 00 00 00	 call	 ??1GashaponPresent@@QAE@XZ ; GashaponPresent::~GashaponPresent
  00105	83 4d fc ff	 or	 DWORD PTR __$EHRec$[ebp+8], -1
  00109	8b ce		 mov	 ecx, esi
  0010b	ff 15 00 00 00
	00		 call	 DWORD PTR __imp_??1ioButton@@UAE@XZ
  00111	e8 00 00 00 00	 call	 __EH_epilog3
  00116	c3		 ret	 0
_TEXT	ENDS
;	COMDAT text$x
text$x	SEGMENT
__unwindfunclet$??1RisingGashaponItemInfoBtn@@UAE@XZ$0:
  00000	8b 4d f0	 mov	 ecx, DWORD PTR _this$[ebp]
  00003	ff 25 00 00 00
	00		 jmp	 DWORD PTR __imp_??1ioButton@@UAE@XZ
__unwindfunclet$??1RisingGashaponItemInfoBtn@@UAE@XZ$1:
  00009	8b 4d f0	 mov	 ecx, DWORD PTR _this$[ebp]
  0000c	81 c1 14 02 00
	00		 add	 ecx, 532		; 00000214H
  00012	e9 00 00 00 00	 jmp	 ??1GashaponPresent@@QAE@XZ ; GashaponPresent::~GashaponPresent
__unwindfunclet$??1RisingGashaponItemInfoBtn@@UAE@XZ$2:
  00017	8b 4d f0	 mov	 ecx, DWORD PTR _this$[ebp]
  0001a	81 c1 30 02 00
	00		 add	 ecx, 560		; 00000230H
  00020	e9 00 00 00 00	 jmp	 ??1?$vector@VioHashString@@V?$allocator@VioHashString@@@std@@@std@@QAE@XZ ; std::vector<ioHashString,std::allocator<ioHashString> >::~vector<ioHashString,std::allocator<ioHashString> >
__unwindfunclet$??1RisingGashaponItemInfoBtn@@UAE@XZ$3:
  00025	8b 4d f0	 mov	 ecx, DWORD PTR _this$[ebp]
  00028	81 c1 4c 02 00
	00		 add	 ecx, 588		; 0000024cH
  0002e	ff 25 00 00 00
	00		 jmp	 DWORD PTR __imp_??1ioHashString@@QAE@XZ
__unwindfunclet$??1RisingGashaponItemInfoBtn@@UAE@XZ$4:
  00034	ff 35 00 00 00
	00		 push	 DWORD PTR __imp_??1ioHashString@@QAE@XZ
  0003a	6a 02		 push	 2
  0003c	6a 10		 push	 16			; 00000010H
  0003e	8b 45 f0	 mov	 eax, DWORD PTR _this$[ebp]
  00041	05 5c 02 00 00	 add	 eax, 604		; 0000025cH
  00046	50		 push	 eax
  00047	e8 00 00 00 00	 call	 ??_M@YGXPAXIHP6EX0@Z@Z
  0004c	c3		 ret	 0
__ehhandler$??1RisingGashaponItemInfoBtn@@UAE@XZ:
  0004d	8b 54 24 08	 mov	 edx, DWORD PTR [esp+8]
  00051	8d 42 0c	 lea	 eax, DWORD PTR [edx+12]
  00054	8b 4a ec	 mov	 ecx, DWORD PTR [edx-20]
  00057	33 c8		 xor	 ecx, eax
  00059	e8 00 00 00 00	 call	 @__security_check_cookie@4
  0005e	b8 00 00 00 00	 mov	 eax, OFFSET __ehfuncinfo$??1RisingGashaponItemInfoBtn@@UAE@XZ
  00063	e9 00 00 00 00	 jmp	 ___CxxFrameHandler3
text$x	ENDS
??1RisingGashaponItemInfoBtn@@UAE@XZ ENDP		; RisingGashaponItemInfoBtn::~RisingGashaponItemInfoBtn
PUBLIC	_xElement$GSCopy$
PUBLIC	_this$GSCopy$
EXTRN	__imp_??0ioHashString@@QAE@PBD@Z:PROC
;	COMDAT xdata$x
; File d:\lost saga for developer\youtube\tutorial\source\src\lsclient\stringprotect.h
xdata$x	SEGMENT
__unwindtable$?ParseExtraInfo@RisingGashaponItemInfoBtn@@UAEXAAVioXMLElement@@@Z DD 0ffffffffH
	DD	FLAT:__unwindfunclet$?ParseExtraInfo@RisingGashaponItemInfoBtn@@UAEXAAVioXMLElement@@@Z$0
__ehfuncinfo$?ParseExtraInfo@RisingGashaponItemInfoBtn@@UAEXAAVioXMLElement@@@Z DD 019930522H
	DD	01H
	DD	FLAT:__unwindtable$?ParseExtraInfo@RisingGashaponItemInfoBtn@@UAEXAAVioXMLElement@@@Z
	DD	2 DUP(00H)
	DD	2 DUP(00H)
	DD	00H
	DD	01H
; Function compile flags: /Ogsp
; File d:\lost saga for developer\youtube\tutorial\source\src\lsclient\gui\risinggashaponwnd.cpp
xdata$x	ENDS
;	COMDAT ?ParseExtraInfo@RisingGashaponItemInfoBtn@@UAEXAAVioXMLElement@@@Z
_TEXT	SEGMENT
__t$524643 = -621					; size = 1
_this$GSCopy$ = -616					; size = 4
$T524462 = -612						; size = 4
_iMax$ = -612						; size = 4
_xElement$GSCopy$ = -608				; size = 4
tv3779 = -604						; size = 4
_i$512832 = -604					; size = 4
_szName$512836 = -600					; size = 260
_szKeyName$ = -340					; size = 260
___encStr$513004 = -80					; size = 14
__k$524291 = -60					; size = 16
_szEffect$512990 = -56					; size = 16
__k$524508 = -40					; size = 19
___encStr$512840 = -40					; size = 18
__$EHRec$ = -12						; size = 12
_xElement$ = 8						; size = 4
?ParseExtraInfo@RisingGashaponItemInfoBtn@@UAEXAAVioXMLElement@@@Z PROC ; RisingGashaponItemInfoBtn::ParseExtraInfo, COMDAT
; _this$ = ecx

; 149  : {

  00000	68 64 02 00 00	 push	 612			; 00000264H
  00005	b8 00 00 00 00	 mov	 eax, __ehhandler$?ParseExtraInfo@RisingGashaponItemInfoBtn@@UAEXAAVioXMLElement@@@Z
  0000a	e8 00 00 00 00	 call	 __EH_prolog3_GS
  0000f	8b 7d 08	 mov	 edi, DWORD PTR _xElement$[ebp]
  00012	8b f1		 mov	 esi, ecx

; 150  : 	m_dwRollingEffectTime = xElement.GetIntAttribute_e( "Effect_Gap_Time" );

  00014	6a 03		 push	 3

; 164  : 
; 165  : 	char szKeyName[MAX_PATH]="";

  00016	89 b5 98 fd ff
	ff		 mov	 DWORD PTR _this$GSCopy$[ebp], esi
  0001c	89 bd a0 fd ff
	ff		 mov	 DWORD PTR _xElement$GSCopy$[ebp], edi
  00022	c7 45 c4 a8 8a
	8d 8f		 mov	 DWORD PTR __k$524291[ebp], -1886549336 ; 8f8d8aa8H
  00029	c7 45 c8 8e 98
	b4 ad		 mov	 DWORD PTR __k$524291[ebp+4], -1380673394 ; adb4988eH
  00030	c7 45 cc 8c 9c
	b4 be		 mov	 DWORD PTR __k$524291[ebp+8], -1095459700 ; beb49c8cH
  00037	8d 45 c4	 lea	 eax, DWORD PTR __k$524291[ebp]
  0003a	33 db		 xor	 ebx, ebx
  0003c	c7 45 d0 84 81
	8e 00		 mov	 DWORD PTR __k$524291[ebp+12], 9339268 ; 008e8184H
  00043	59		 pop	 ecx
$LL309@ParseExtra@2:

; 150  : 	m_dwRollingEffectTime = xElement.GetIntAttribute_e( "Effect_Gap_Time" );

  00044	81 30 ed ec eb
	ea		 xor	 DWORD PTR [eax], -353637139 ; eaebecedH
  0004a	83 c0 04	 add	 eax, 4
  0004d	49		 dec	 ecx
  0004e	75 f4		 jne	 SHORT $LL309@ParseExtra@2
  00050	6a 0c		 push	 12			; 0000000cH
  00052	58		 pop	 eax
$LL306@ParseExtra@2:
  00053	8b c8		 mov	 ecx, eax
  00055	81 e1 03 00 00
	80		 and	 ecx, -2147483645	; 80000003H
  0005b	79 05		 jns	 SHORT $LN587@ParseExtra@2
  0005d	49		 dec	 ecx
  0005e	83 c9 fc	 or	 ecx, -4			; fffffffcH
  00061	41		 inc	 ecx
$LN587@ParseExtra@2:
  00062	b2 ed		 mov	 dl, -19			; ffffffedH
  00064	2a d1		 sub	 dl, cl
  00066	30 54 05 c4	 xor	 BYTE PTR __k$524291[ebp+eax], dl
  0006a	40		 inc	 eax
  0006b	83 f8 0f	 cmp	 eax, 15			; 0000000fH
  0006e	7c e3		 jl	 SHORT $LL306@ParseExtra@2
  00070	8d 45 c4	 lea	 eax, DWORD PTR __k$524291[ebp]
  00073	8b cf		 mov	 ecx, edi
  00075	8b 3d 00 00 00
	00		 mov	 edi, DWORD PTR __imp_?GetIntAttribute@ioXMLElement@@QBEHPBD@Z
  0007b	50		 push	 eax
  0007c	ff d7		 call	 edi
  0007e	89 86 44 02 00
	00		 mov	 DWORD PTR [esi+580], eax

; 151  : 
; 152  : 	m_vEndEfffect_S.clear();

  00084	8b 86 34 02 00
	00		 mov	 eax, DWORD PTR [esi+564]
  0008a	81 c6 30 02 00
	00		 add	 esi, 560		; 00000230H
  00090	8b 0e		 mov	 ecx, DWORD PTR [esi]
  00092	50		 push	 eax
  00093	51		 push	 ecx
  00094	8d 85 9c fd ff
	ff		 lea	 eax, DWORD PTR $T524462[ebp]
  0009a	50		 push	 eax
  0009b	8b ce		 mov	 ecx, esi
  0009d	e8 00 00 00 00	 call	 ?erase@?$vector@VioHashString@@V?$allocator@VioHashString@@@std@@@std@@QAE?AV?$_Vector_iterator@V?$_Vector_val@VioHashString@@V?$allocator@VioHashString@@@std@@@std@@@2@V?$_Vector_const_iterator@V?$_Vector_val@VioHashString@@V?$allocator@VioHashString@@@std@@@std@@@2@0@Z ; std::vector<ioHashString,std::allocator<ioHashString> >::erase
  000a2	6a 04		 push	 4

; 153  : 	int iMax = xElement.GetIntAttribute_e( "Max_Success_Effect" );

  000a4	c7 45 d8 a0 8d
	93 b5		 mov	 DWORD PTR __k$524508[ebp], -1248621152 ; b5938da0H
  000ab	c7 45 dc be 99
	88 89		 mov	 DWORD PTR __k$524508[ebp+4], -1987536450 ; 898899beH
  000b2	c7 45 e0 88 9f
	98 b5		 mov	 DWORD PTR __k$524508[ebp+8], -1248288888 ; b5989f88H
  000b9	c7 45 e4 a8 8a
	8d 8f		 mov	 DWORD PTR __k$524508[ebp+12], -1886549336 ; 8f8d8aa8H
  000c0	66 c7 45 e8 8e
	98		 mov	 WORD PTR __k$524508[ebp+16], 39054 ; 0000988eH
  000c6	8d 45 d8	 lea	 eax, DWORD PTR __k$524508[ebp]
  000c9	88 5d ea	 mov	 BYTE PTR __k$524508[ebp+18], bl
  000cc	59		 pop	 ecx
$LL433@ParseExtra@2:
  000cd	81 30 ed ec eb
	ea		 xor	 DWORD PTR [eax], -353637139 ; eaebecedH
  000d3	83 c0 04	 add	 eax, 4
  000d6	49		 dec	 ecx
  000d7	75 f4		 jne	 SHORT $LL433@ParseExtra@2
  000d9	6a 10		 push	 16			; 00000010H
  000db	58		 pop	 eax
$LL430@ParseExtra@2:
  000dc	8b c8		 mov	 ecx, eax
  000de	81 e1 03 00 00
	80		 and	 ecx, -2147483645	; 80000003H
  000e4	79 05		 jns	 SHORT $LN588@ParseExtra@2
  000e6	49		 dec	 ecx
  000e7	83 c9 fc	 or	 ecx, -4			; fffffffcH
  000ea	41		 inc	 ecx
$LN588@ParseExtra@2:
  000eb	b2 ed		 mov	 dl, -19			; ffffffedH
  000ed	2a d1		 sub	 dl, cl
  000ef	30 54 05 d8	 xor	 BYTE PTR __k$524508[ebp+eax], dl
  000f3	40		 inc	 eax
  000f4	83 f8 12	 cmp	 eax, 18			; 00000012H
  000f7	7c e3		 jl	 SHORT $LL430@ParseExtra@2
  000f9	8b 8d a0 fd ff
	ff		 mov	 ecx, DWORD PTR _xElement$GSCopy$[ebp]
  000ff	8d 45 d8	 lea	 eax, DWORD PTR __k$524508[ebp]
  00102	50		 push	 eax
  00103	ff d7		 call	 edi

; 154  : 	m_vEndEfffect_S.reserve( iMax );

  00105	50		 push	 eax
  00106	8b ce		 mov	 ecx, esi
  00108	89 85 9c fd ff
	ff		 mov	 DWORD PTR _iMax$[ebp], eax
  0010e	e8 00 00 00 00	 call	 ?reserve@?$vector@VioHashString@@V?$allocator@VioHashString@@@std@@@std@@QAEXI@Z ; std::vector<ioHashString,std::allocator<ioHashString> >::reserve

; 155  : 	for (int i = 0; i < iMax ; i++)

  00113	89 9d a4 fd ff
	ff		 mov	 DWORD PTR _i$512832[ebp], ebx
  00119	bf 03 01 00 00	 mov	 edi, 259		; 00000103H
  0011e	39 9d 9c fd ff
	ff		 cmp	 DWORD PTR _iMax$[ebp], ebx
  00124	0f 8e 0c 01 00
	00		 jle	 $LN200@ParseExtra@2
$LL202@ParseExtra@2:

; 156  : 	{
; 157  : 		char szName[MAX_PATH]="";

  0012a	57		 push	 edi
  0012b	8d 85 a9 fd ff
	ff		 lea	 eax, DWORD PTR _szName$512836[ebp+1]
  00131	53		 push	 ebx
  00132	50		 push	 eax
  00133	88 9d a8 fd ff
	ff		 mov	 BYTE PTR _szName$512836[ebp], bl
  00139	e8 00 00 00 00	 call	 _memset
  0013e	83 c4 0c	 add	 esp, 12			; 0000000cH
  00141	6a 04		 push	 4

; 158  : 		StringCbPrintf_e( szName, sizeof( szName ), "Success_Effect_%d", i+1 );

  00143	c7 45 d8 be 99
	88 89		 mov	 DWORD PTR ___encStr$512840[ebp], -1987536450 ; 898899beH
  0014a	c7 45 dc 88 9f
	98 b5		 mov	 DWORD PTR ___encStr$512840[ebp+4], -1248288888 ; b5989f88H
  00151	c7 45 e0 a8 8a
	8d 8f		 mov	 DWORD PTR ___encStr$512840[ebp+8], -1886549336 ; 8f8d8aa8H
  00158	c7 45 e4 8e 98
	b4 cf		 mov	 DWORD PTR ___encStr$512840[ebp+12], -810248050 ; cfb4988eH
  0015f	8d 45 d8	 lea	 eax, DWORD PTR ___encStr$512840[ebp]
  00162	66 c7 45 e8 89
	00		 mov	 WORD PTR ___encStr$512840[ebp+16], 137 ; 00000089H
  00168	59		 pop	 ecx
$LL441@ParseExtra@2:
  00169	81 30 ed ec eb
	ea		 xor	 DWORD PTR [eax], -353637139 ; eaebecedH
  0016f	83 c0 04	 add	 eax, 4
  00172	49		 dec	 ecx
  00173	75 f4		 jne	 SHORT $LL441@ParseExtra@2
  00175	8b 85 a4 fd ff
	ff		 mov	 eax, DWORD PTR _i$512832[ebp]
  0017b	80 75 e8 ed	 xor	 BYTE PTR ___encStr$512840[ebp+16], -19 ; ffffffedH
  0017f	40		 inc	 eax
  00180	50		 push	 eax
  00181	89 85 a4 fd ff
	ff		 mov	 DWORD PTR tv3779[ebp], eax
  00187	8d 45 d8	 lea	 eax, DWORD PTR ___encStr$512840[ebp]
  0018a	50		 push	 eax
  0018b	8d 85 a8 fd ff
	ff		 lea	 eax, DWORD PTR _szName$512836[ebp]
  00191	68 04 01 00 00	 push	 260			; 00000104H
  00196	50		 push	 eax
  00197	e8 00 00 00 00	 call	 ?StringCbPrintfA@@YAJPADIPBDZZ ; StringCbPrintfA

; 159  : 		ioHashString szEffect = xElement.GetStringAttribute( szName );

  0019c	8b 8d a0 fd ff
	ff		 mov	 ecx, DWORD PTR _xElement$GSCopy$[ebp]
  001a2	83 c4 10	 add	 esp, 16			; 00000010H
  001a5	8d 85 a8 fd ff
	ff		 lea	 eax, DWORD PTR _szName$512836[ebp]
  001ab	50		 push	 eax
  001ac	ff 15 00 00 00
	00		 call	 DWORD PTR __imp_?GetStringAttribute@ioXMLElement@@QBEPBDPBD@Z
  001b2	50		 push	 eax
  001b3	8d 4d c8	 lea	 ecx, DWORD PTR _szEffect$512990[ebp]
  001b6	ff 15 00 00 00
	00		 call	 DWORD PTR __imp_??0ioHashString@@QAE@PBD@Z

; 160  : 		if( szEffect == "" )

  001bc	8b 45 c8	 mov	 eax, DWORD PTR _szEffect$512990[ebp]
  001bf	89 5d fc	 mov	 DWORD PTR __$EHRec$[ebp+8], ebx
  001c2	88 9d 93 fd ff
	ff		 mov	 BYTE PTR __t$524643[ebp], bl
  001c8	8d 8d 93 fd ff
	ff		 lea	 ecx, DWORD PTR __t$524643[ebp]
$LL581@ParseExtra@2:
  001ce	8a 10		 mov	 dl, BYTE PTR [eax]
  001d0	3a 11		 cmp	 dl, BYTE PTR [ecx]
  001d2	75 1a		 jne	 SHORT $LN582@ParseExtra@2
  001d4	3a d3		 cmp	 dl, bl
  001d6	74 12		 je	 SHORT $LN583@ParseExtra@2
  001d8	8a 50 01	 mov	 dl, BYTE PTR [eax+1]
  001db	3a 51 01	 cmp	 dl, BYTE PTR [ecx+1]
  001de	75 0e		 jne	 SHORT $LN582@ParseExtra@2
  001e0	83 c0 02	 add	 eax, 2
  001e3	83 c1 02	 add	 ecx, 2
  001e6	3a d3		 cmp	 dl, bl
  001e8	75 e4		 jne	 SHORT $LL581@ParseExtra@2
$LN583@ParseExtra@2:
  001ea	33 c0		 xor	 eax, eax
  001ec	eb 05		 jmp	 SHORT $LN584@ParseExtra@2
$LN582@ParseExtra@2:
  001ee	1b c0		 sbb	 eax, eax
  001f0	83 d8 ff	 sbb	 eax, -1
$LN584@ParseExtra@2:
  001f3	3b c3		 cmp	 eax, ebx
  001f5	74 32		 je	 SHORT $LN569@ParseExtra@2

; 162  : 		m_vEndEfffect_S.push_back( szEffect );

  001f7	8d 45 c8	 lea	 eax, DWORD PTR _szEffect$512990[ebp]
  001fa	50		 push	 eax
  001fb	8b ce		 mov	 ecx, esi
  001fd	e8 00 00 00 00	 call	 ?push_back@?$vector@VioHashString@@V?$allocator@VioHashString@@@std@@@std@@QAEXABVioHashString@@@Z ; std::vector<ioHashString,std::allocator<ioHashString> >::push_back

; 163  : 	}

  00202	83 4d fc ff	 or	 DWORD PTR __$EHRec$[ebp+8], -1
  00206	8d 4d c8	 lea	 ecx, DWORD PTR _szEffect$512990[ebp]
  00209	ff 15 00 00 00
	00		 call	 DWORD PTR __imp_??1ioHashString@@QAE@XZ
  0020f	8b 85 a4 fd ff
	ff		 mov	 eax, DWORD PTR tv3779[ebp]
  00215	89 85 a4 fd ff
	ff		 mov	 DWORD PTR _i$512832[ebp], eax
  0021b	3b 85 9c fd ff
	ff		 cmp	 eax, DWORD PTR _iMax$[ebp]
  00221	0f 8c 03 ff ff
	ff		 jl	 $LL202@ParseExtra@2

; 160  : 		if( szEffect == "" )

  00227	eb 0d		 jmp	 SHORT $LN200@ParseExtra@2
$LN569@ParseExtra@2:

; 161  : 			break;

  00229	83 4d fc ff	 or	 DWORD PTR __$EHRec$[ebp+8], -1
  0022d	8d 4d c8	 lea	 ecx, DWORD PTR _szEffect$512990[ebp]
  00230	ff 15 00 00 00
	00		 call	 DWORD PTR __imp_??1ioHashString@@QAE@XZ
$LN200@ParseExtra@2:

; 164  : 
; 165  : 	char szKeyName[MAX_PATH]="";

  00236	57		 push	 edi
  00237	8d 85 ad fe ff
	ff		 lea	 eax, DWORD PTR _szKeyName$[ebp+1]
  0023d	53		 push	 ebx
  0023e	50		 push	 eax
  0023f	88 9d ac fe ff
	ff		 mov	 BYTE PTR _szKeyName$[ebp], bl
  00245	e8 00 00 00 00	 call	 _memset
  0024a	83 c4 0c	 add	 esp, 12			; 0000000cH
  0024d	6a 03		 push	 3

; 166  : 	StringCbPrintf_e( szKeyName, sizeof( szKeyName ), "success_sound" );

  0024f	c7 45 b0 9e 99
	88 89		 mov	 DWORD PTR ___encStr$513004[ebp], -1987536482 ; 8988999eH
  00256	c7 45 b4 88 9f
	98 b5		 mov	 DWORD PTR ___encStr$513004[ebp+4], -1248288888 ; b5989f88H
  0025d	c7 45 b8 9e 83
	9e 84		 mov	 DWORD PTR ___encStr$513004[ebp+8], -2069986402 ; 849e839eH
  00264	8d 45 b0	 lea	 eax, DWORD PTR ___encStr$513004[ebp]
  00267	66 c7 45 bc 89
	00		 mov	 WORD PTR ___encStr$513004[ebp+12], 137 ; 00000089H
  0026d	59		 pop	 ecx
$LL555@ParseExtra@2:
  0026e	81 30 ed ec eb
	ea		 xor	 DWORD PTR [eax], -353637139 ; eaebecedH
  00274	83 c0 04	 add	 eax, 4
  00277	49		 dec	 ecx
  00278	75 f4		 jne	 SHORT $LL555@ParseExtra@2
  0027a	80 75 bc ed	 xor	 BYTE PTR ___encStr$513004[ebp+12], -19 ; ffffffedH
  0027e	8d 45 b0	 lea	 eax, DWORD PTR ___encStr$513004[ebp]
  00281	50		 push	 eax
  00282	8d 85 ac fe ff
	ff		 lea	 eax, DWORD PTR _szKeyName$[ebp]
  00288	68 04 01 00 00	 push	 260			; 00000104H
  0028d	50		 push	 eax
  0028e	e8 00 00 00 00	 call	 ?StringCbPrintfA@@YAJPADIPBDZZ ; StringCbPrintfA

; 167  : 	m_szSuccessSound = xElement.GetStringAttribute( szKeyName );

  00293	8b 8d a0 fd ff
	ff		 mov	 ecx, DWORD PTR _xElement$GSCopy$[ebp]
  00299	83 c4 0c	 add	 esp, 12			; 0000000cH
  0029c	8d 85 ac fe ff
	ff		 lea	 eax, DWORD PTR _szKeyName$[ebp]
  002a2	50		 push	 eax
  002a3	ff 15 00 00 00
	00		 call	 DWORD PTR __imp_?GetStringAttribute@ioXMLElement@@QBEPBDPBD@Z
  002a9	8b 8d 98 fd ff
	ff		 mov	 ecx, DWORD PTR _this$GSCopy$[ebp]
  002af	50		 push	 eax
  002b0	81 c1 4c 02 00
	00		 add	 ecx, 588		; 0000024cH
  002b6	ff 15 00 00 00
	00		 call	 DWORD PTR __imp_??4ioHashString@@QAEAAV0@PBD@Z

; 168  : }

  002bc	e8 00 00 00 00	 call	 __EH_epilog3_GS
  002c1	c2 04 00	 ret	 4
_TEXT	ENDS
;	COMDAT text$x
text$x	SEGMENT
__unwindfunclet$?ParseExtraInfo@RisingGashaponItemInfoBtn@@UAEXAAVioXMLElement@@@Z$0:
  00000	8d 4d c8	 lea	 ecx, DWORD PTR _szEffect$512990[ebp]
  00003	ff 25 00 00 00
	00		 jmp	 DWORD PTR __imp_??1ioHashString@@QAE@XZ
__ehhandler$?ParseExtraInfo@RisingGashaponItemInfoBtn@@UAEXAAVioXMLElement@@@Z:
  00009	8b 54 24 08	 mov	 edx, DWORD PTR [esp+8]
  0000d	8d 42 0c	 lea	 eax, DWORD PTR [edx+12]
  00010	8b 8a 8c fd ff
	ff		 mov	 ecx, DWORD PTR [edx-628]
  00016	33 c8		 xor	 ecx, eax
  00018	e8 00 00 00 00	 call	 @__security_check_cookie@4
  0001d	8b 4a fc	 mov	 ecx, DWORD PTR [edx-4]
  00020	33 c8		 xor	 ecx, eax
  00022	e8 00 00 00 00	 call	 @__security_check_cookie@4
  00027	b8 00 00 00 00	 mov	 eax, OFFSET __ehfuncinfo$?ParseExtraInfo@RisingGashaponItemInfoBtn@@UAEXAAVioXMLElement@@@Z
  0002c	e9 00 00 00 00	 jmp	 ___CxxFrameHandler3
text$x	ENDS
?ParseExtraInfo@RisingGashaponItemInfoBtn@@UAEXAAVioXMLElement@@@Z ENDP ; RisingGashaponItemInfoBtn::ParseExtraInfo
PUBLIC	??_C@_0CF@CIILPIAE@RisingGashaponWnd?3?3RisingGashapo@ ; `string'
PUBLIC	??_7RisingGashaponWnd@@6B@			; RisingGashaponWnd::`vftable'
PUBLIC	??0RisingGashaponWnd@@QAE@XZ			; RisingGashaponWnd::RisingGashaponWnd
PUBLIC	??_R4RisingGashaponWnd@@6B@			; RisingGashaponWnd::`RTTI Complete Object Locator'
PUBLIC	??_R0?AVRisingGashaponWnd@@@8			; RisingGashaponWnd `RTTI Type Descriptor'
PUBLIC	??_R3RisingGashaponWnd@@8			; RisingGashaponWnd::`RTTI Class Hierarchy Descriptor'
PUBLIC	??_R2RisingGashaponWnd@@8			; RisingGashaponWnd::`RTTI Base Class Array'
PUBLIC	??_R1A@?0A@EA@RisingGashaponWnd@@8		; RisingGashaponWnd::`RTTI Base Class Descriptor at (0,-1,0,64)'
PUBLIC	?iwm_command@RisingGashaponWnd@@UAEXPAVioWnd@@HK@Z ; RisingGashaponWnd::iwm_command
EXTRN	??1FSMStateMgr@@UAE@XZ:PROC			; FSMStateMgr::~FSMStateMgr
EXTRN	__imp_??1ioWnd@@UAE@XZ:PROC
EXTRN	??0FSMStateMgr@@QAE@XZ:PROC			; FSMStateMgr::FSMStateMgr
EXTRN	__imp_??0ioWnd@@QAE@XZ:PROC
EXTRN	?AddRenderFrame@ioWnd@@UAEXABVioHashString@@PAVioUIRenderFrame@@@Z:PROC ; ioWnd::AddRenderFrame
EXTRN	?SetWindowAlpha@ioWnd@@UAEXH@Z:PROC		; ioWnd::SetWindowAlpha
EXTRN	?CheckFrameReSize@ioWnd@@MAEXHHHH@Z:PROC	; ioWnd::CheckFrameReSize
EXTRN	?iwm_create@ioWnd@@UAEXXZ:PROC			; ioWnd::iwm_create
EXTRN	?iwm_lbuttondown@ioWnd@@UAEXABVioMouse@@@Z:PROC	; ioWnd::iwm_lbuttondown
EXTRN	?iwm_lbuttonup@ioWnd@@UAEXABVioMouse@@@Z:PROC	; ioWnd::iwm_lbuttonup
EXTRN	?iwm_lbuttonDBLCLK@ioWnd@@UAEXABVioMouse@@@Z:PROC ; ioWnd::iwm_lbuttonDBLCLK
EXTRN	?iwm_rbuttondown@ioWnd@@UAEXABVioMouse@@@Z:PROC	; ioWnd::iwm_rbuttondown
EXTRN	?iwm_rbuttonup@ioWnd@@UAEXABVioMouse@@@Z:PROC	; ioWnd::iwm_rbuttonup
EXTRN	?iwm_mouseover@ioWnd@@UAEXABVioMouse@@@Z:PROC	; ioWnd::iwm_mouseover
EXTRN	?iwm_show@ioWnd@@UAEXXZ:PROC			; ioWnd::iwm_show
EXTRN	?GetWndType@ioWnd@@UBEKXZ:PROC			; ioWnd::GetWndType
EXTRN	?GetHeaderFileName@ioWnd@@UAEPBDXZ:PROC		; ioWnd::GetHeaderFileName
EXTRN	?GetTemplateName@ioWnd@@UAEPBDXZ:PROC		; ioWnd::GetTemplateName
EXTRN	?GetDefClassName@ioWnd@@UBEPBDXZ:PROC		; ioWnd::GetDefClassName
EXTRN	?_Clone@ioWnd@@UAEPAV1@XZ:PROC			; ioWnd::_Clone
EXTRN	?Copy@ioWnd@@UAEXPAV1@@Z:PROC			; ioWnd::Copy
EXTRN	?SetSaveData@ioWnd@@UAEXAAVioXMLElement@@@Z:PROC ; ioWnd::SetSaveData
EXTRN	?GetNumFixedRenderFrame@ioWnd@@UBEHXZ:PROC	; ioWnd::GetNumFixedRenderFrame
EXTRN	?GetFixedRenderFrameType@ioWnd@@UAEPBDH@Z:PROC	; ioWnd::GetFixedRenderFrameType
EXTRN	?GetRenderFrame@ioWnd@@UAEPAPAVioUIRenderElement@@PBD@Z:PROC ; ioWnd::GetRenderFrame
EXTRN	?GetNumFixedRenderImage@ioWnd@@UBEHXZ:PROC	; ioWnd::GetNumFixedRenderImage
EXTRN	?GetFixedRenderImageType@ioWnd@@UAEPBDH@Z:PROC	; ioWnd::GetFixedRenderImageType
EXTRN	?GetRenderImage@ioWnd@@UAEPAPAVioUIRenderElement@@PBD@Z:PROC ; ioWnd::GetRenderImage
EXTRN	??_ERisingGashaponWnd@@UAEPAXI@Z:PROC		; RisingGashaponWnd::`vector deleting destructor'
;	COMDAT ??_R1A@?0A@EA@RisingGashaponWnd@@8
; File c:\program files (x86)\microsoft visual studio 10.0\vc\include\xmemory
rdata$r	SEGMENT
??_R1A@?0A@EA@RisingGashaponWnd@@8 DD FLAT:??_R0?AVRisingGashaponWnd@@@8 ; RisingGashaponWnd::`RTTI Base Class Descriptor at (0,-1,0,64)'
	DD	01H
	DD	00H
	DD	0ffffffffH
	DD	00H
	DD	040H
	DD	FLAT:??_R3RisingGashaponWnd@@8
rdata$r	ENDS
;	COMDAT ??_R2RisingGashaponWnd@@8
rdata$r	SEGMENT
??_R2RisingGashaponWnd@@8 DD FLAT:??_R1A@?0A@EA@RisingGashaponWnd@@8 ; RisingGashaponWnd::`RTTI Base Class Array'
	DD	FLAT:??_R1A@?0A@EA@ioWnd@@8
rdata$r	ENDS
;	COMDAT ??_R3RisingGashaponWnd@@8
rdata$r	SEGMENT
??_R3RisingGashaponWnd@@8 DD 00H			; RisingGashaponWnd::`RTTI Class Hierarchy Descriptor'
	DD	00H
	DD	02H
	DD	FLAT:??_R2RisingGashaponWnd@@8
rdata$r	ENDS
;	COMDAT ??_R0?AVRisingGashaponWnd@@@8
_DATA	SEGMENT
??_R0?AVRisingGashaponWnd@@@8 DD FLAT:??_7type_info@@6B@ ; RisingGashaponWnd `RTTI Type Descriptor'
	DD	00H
	DB	'.?AVRisingGashaponWnd@@', 00H
_DATA	ENDS
;	COMDAT ??_R4RisingGashaponWnd@@6B@
rdata$r	SEGMENT
??_R4RisingGashaponWnd@@6B@ DD 00H			; RisingGashaponWnd::`RTTI Complete Object Locator'
	DD	00H
	DD	00H
	DD	FLAT:??_R0?AVRisingGashaponWnd@@@8
	DD	FLAT:??_R3RisingGashaponWnd@@8
rdata$r	ENDS
;	COMDAT ??_C@_0CF@CIILPIAE@RisingGashaponWnd?3?3RisingGashapo@
CONST	SEGMENT
??_C@_0CF@CIILPIAE@RisingGashaponWnd?3?3RisingGashapo@ DB 'RisingGashapon'
	DB	'Wnd::RisingGashaponWnd', 00H		; `string'
CONST	ENDS
;	COMDAT ??_7RisingGashaponWnd@@6B@
CONST	SEGMENT
??_7RisingGashaponWnd@@6B@ DD FLAT:??_R4RisingGashaponWnd@@6B@ ; RisingGashaponWnd::`vftable'
	DD	FLAT:?AddRenderFrame@ioWnd@@UAEXABVioHashString@@PAVioUIRenderFrame@@@Z
	DD	FLAT:?AddRenderImage@RisingGashaponWnd@@UAEXABVioHashString@@PAVioUIRenderImage@@@Z
	DD	FLAT:?AddTooltipHelp@ioWnd@@UAEXABVioHashString@@00@Z
	DD	FLAT:?ParseExtraInfo@RisingGashaponWnd@@UAEXAAVioXMLElement@@@Z
	DD	FLAT:?AddNamedRenderImage@ioWnd@@UAEXABVioHashString@@PAVioUIRenderImage@@@Z
	DD	FLAT:?RemoveNamedRenderImage@ioWnd@@UAEXABVioHashString@@@Z
	DD	FLAT:?GetNamedRenderImage@ioWnd@@UBEPAVioUIRenderImage@@ABVioHashString@@@Z
	DD	FLAT:?SetWindowAlpha@ioWnd@@UAEXH@Z
	DD	FLAT:?SetActive@ioWnd@@UAEXXZ
	DD	FLAT:?SetInActive@ioWnd@@UAEXXZ
	DD	FLAT:?ClearElementImageList@ioWnd@@UAEXXZ
	DD	FLAT:?SetSize@ioWnd@@UAEXHH@Z
	DD	FLAT:?SetPositionToDefault@ioWnd@@UAEXHH_N0@Z
	DD	FLAT:?IsNeedProcess@ioWnd@@UBE_NXZ
	DD	FLAT:?IsCanMouseReaction@ioWnd@@UBE_NXZ
	DD	FLAT:?AddChild@ioWnd@@UAEXPAV1@@Z
	DD	FLAT:?DeleteChild@ioWnd@@UAEXK@Z
	DD	FLAT:?DeleteAllChild@ioWnd@@UAEXXZ
	DD	FLAT:?OnRenderShowAndHide@ioWnd@@MAE_NXZ
	DD	FLAT:?OnRenderShowAndHideByDefault@ioWnd@@MAE_NK@Z
	DD	FLAT:?OnRenderShowAndHideByTop@ioWnd@@MAE_NK@Z
	DD	FLAT:?OnRenderShowAndHideByDown@ioWnd@@MAE_NK@Z
	DD	FLAT:?OnRender@RisingGashaponWnd@@MAEXXZ
	DD	FLAT:?OnRenderAfterChild@RisingGashaponWnd@@MAEXXZ
	DD	FLAT:?OnProcess@RisingGashaponWnd@@MAEXM@Z
	DD	FLAT:?OnMouseProcess@ioWnd@@MAEXABVioMouse@@@Z
	DD	FLAT:?CheckFrameReSize@ioWnd@@MAEXHHHH@Z
	DD	FLAT:?RenderImageList@ioWnd@@MAEXHHW4UIRenderType@@@Z
	DD	FLAT:?iwm_create@ioWnd@@UAEXXZ
	DD	FLAT:?iwm_destroy@ioWnd@@UAEXXZ
	DD	FLAT:?iwm_lbuttondown@ioWnd@@UAEXABVioMouse@@@Z
	DD	FLAT:?iwm_lbuttonup@ioWnd@@UAEXABVioMouse@@@Z
	DD	FLAT:?iwm_lbuttonDBLCLK@ioWnd@@UAEXABVioMouse@@@Z
	DD	FLAT:?iwm_rbuttondown@ioWnd@@UAEXABVioMouse@@@Z
	DD	FLAT:?iwm_rbuttonup@ioWnd@@UAEXABVioMouse@@@Z
	DD	FLAT:?iwm_command@RisingGashaponWnd@@UAEXPAVioWnd@@HK@Z
	DD	FLAT:?iwm_mouseover@ioWnd@@UAEXABVioMouse@@@Z
	DD	FLAT:?iwm_mousemove@ioWnd@@UAEXABVioMouse@@@Z
	DD	FLAT:?iwm_mouseleave@ioWnd@@UAEXABVioMouse@@@Z
	DD	FLAT:?iwm_vscroll@ioWnd@@UAEXKH@Z
	DD	FLAT:?iwm_wheel@ioWnd@@UAEXH@Z
	DD	FLAT:?iwm_show@ioWnd@@UAEXXZ
	DD	FLAT:?iwm_hide@RisingGashaponWnd@@UAEXXZ
	DD	FLAT:?iwm_esc@RisingGashaponWnd@@UAE_NXZ
	DD	FLAT:?iwm_spacebar@ioWnd@@UAE_NXZ
	DD	FLAT:?iwm_gototop@ioWnd@@UAEXXZ
	DD	FLAT:?iwm_dragenter@ioWnd@@UAE?AW4IWDropEffect@@PAVioDragItem@@ABVioMouse@@@Z
	DD	FLAT:?iwm_dragover@ioWnd@@UAE?AW4IWDropEffect@@PAVioDragItem@@ABVioMouse@@@Z
	DD	FLAT:?iwm_dragleave@ioWnd@@UAEXXZ
	DD	FLAT:?iwm_dropitem@ioWnd@@UAE_NPAVioDragItem@@ABVioMouse@@PAV1@@Z
	DD	FLAT:?iwm_dropdone@ioWnd@@UAEXPAVioDragItem@@PAV1@_N@Z
	DD	FLAT:?IsEXType@ioWnd@@UBE_NXZ
	DD	FLAT:?GetWndType@ioWnd@@UBEKXZ
	DD	FLAT:?RenderWnd@ioWnd@@UAEXXZ
	DD	FLAT:?SetIDEX@ioWnd@@UAEXAAK_N@Z
	DD	FLAT:?ParseXML@ioWnd@@UAEXAAVioXMLElement@@@Z
	DD	FLAT:?GetHeaderFileName@ioWnd@@UAEPBDXZ
	DD	FLAT:?GetTemplateName@ioWnd@@UAEPBDXZ
	DD	FLAT:?GetDefClassName@ioWnd@@UBEPBDXZ
	DD	FLAT:?_Clone@ioWnd@@UAEPAV1@XZ
	DD	FLAT:?Copy@ioWnd@@UAEXPAV1@@Z
	DD	FLAT:?Save@ioWnd@@UAE_NAAVioXMLElement@@@Z
	DD	FLAT:?SetSaveData@ioWnd@@UAEXAAVioXMLElement@@@Z
	DD	FLAT:?SetPosX@ioWnd@@UAEXH@Z
	DD	FLAT:?SetPosY@ioWnd@@UAEXH@Z
	DD	FLAT:?SetWidth@ioWnd@@UAEXH@Z
	DD	FLAT:?SetHeight@ioWnd@@UAEXH@Z
	DD	FLAT:?GetNumFixedRenderFrame@ioWnd@@UBEHXZ
	DD	FLAT:?GetFixedRenderFrameType@ioWnd@@UAEPBDH@Z
	DD	FLAT:?GetRenderFrame@ioWnd@@UAEPAPAVioUIRenderElement@@PBD@Z
	DD	FLAT:?GetNumFixedRenderImage@ioWnd@@UBEHXZ
	DD	FLAT:?GetFixedRenderImageType@ioWnd@@UAEPBDH@Z
	DD	FLAT:?GetRenderImage@ioWnd@@UAEPAPAVioUIRenderElement@@PBD@Z
	DD	FLAT:?AddEffect@ioWnd@@UAEXABVioHashString@@PAVioUI3DEffectRender@@@Z
	DD	FLAT:?GetEffect@ioWnd@@UAEPAVioUI3DEffectRender@@VioHashString@@@Z
	DD	FLAT:??_ERisingGashaponWnd@@UAEPAXI@Z
CONST	ENDS
;	COMDAT xdata$x
xdata$x	SEGMENT
__ehfuncinfo$??0RisingGashaponWnd@@QAE@XZ DD 019930522H
	DD	09H
	DD	FLAT:__unwindtable$??0RisingGashaponWnd@@QAE@XZ
	DD	2 DUP(00H)
	DD	2 DUP(00H)
	DD	00H
	DD	01H
__unwindtable$??0RisingGashaponWnd@@QAE@XZ DD 0ffffffffH
	DD	FLAT:__unwindfunclet$??0RisingGashaponWnd@@QAE@XZ$0
	DD	00H
	DD	FLAT:__unwindfunclet$??0RisingGashaponWnd@@QAE@XZ$1
	DD	01H
	DD	FLAT:__unwindfunclet$??0RisingGashaponWnd@@QAE@XZ$2
	DD	02H
	DD	FLAT:__unwindfunclet$??0RisingGashaponWnd@@QAE@XZ$3
	DD	03H
	DD	FLAT:__unwindfunclet$??0RisingGashaponWnd@@QAE@XZ$4
	DD	04H
	DD	FLAT:__unwindfunclet$??0RisingGashaponWnd@@QAE@XZ$5
	DD	05H
	DD	FLAT:__unwindfunclet$??0RisingGashaponWnd@@QAE@XZ$6
	DD	06H
	DD	FLAT:__unwindfunclet$??0RisingGashaponWnd@@QAE@XZ$7
	DD	07H
	DD	FLAT:__unwindfunclet$??0RisingGashaponWnd@@QAE@XZ$8
; Function compile flags: /Ogsp
; File d:\lost saga for developer\youtube\tutorial\source\src\lsclient\gui\risinggashaponwnd.cpp
xdata$x	ENDS
;	COMDAT ??0RisingGashaponWnd@@QAE@XZ
_TEXT	SEGMENT
_this$ = -16						; size = 4
__$EHRec$ = -12						; size = 12
??0RisingGashaponWnd@@QAE@XZ PROC			; RisingGashaponWnd::RisingGashaponWnd, COMDAT
; _this$ = ecx

; 429  : {

  00000	6a 04		 push	 4
  00002	b8 00 00 00 00	 mov	 eax, __ehhandler$??0RisingGashaponWnd@@QAE@XZ
  00007	e8 00 00 00 00	 call	 __EH_prolog3
  0000c	8b f1		 mov	 esi, ecx
  0000e	89 75 f0	 mov	 DWORD PTR _this$[ebp], esi
  00011	ff 15 00 00 00
	00		 call	 DWORD PTR __imp_??0ioWnd@@QAE@XZ
  00017	8b 1d 00 00 00
	00		 mov	 ebx, DWORD PTR __imp_??0ioHashString@@QAE@XZ
  0001d	33 ff		 xor	 edi, edi
  0001f	8d 8e 60 01 00
	00		 lea	 ecx, DWORD PTR [esi+352]
  00025	89 7d fc	 mov	 DWORD PTR __$EHRec$[ebp+8], edi
  00028	c7 06 00 00 00
	00		 mov	 DWORD PTR [esi], OFFSET ??_7RisingGashaponWnd@@6B@
  0002e	ff d3		 call	 ebx
  00030	8d 8e 7c 01 00
	00		 lea	 ecx, DWORD PTR [esi+380]
  00036	c6 45 fc 01	 mov	 BYTE PTR __$EHRec$[ebp+8], 1
  0003a	ff d3		 call	 ebx
  0003c	8d 8e 8c 01 00
	00		 lea	 ecx, DWORD PTR [esi+396]
  00042	c6 45 fc 02	 mov	 BYTE PTR __$EHRec$[ebp+8], 2
  00046	e8 00 00 00 00	 call	 ??0FSMStateMgr@@QAE@XZ	; FSMStateMgr::FSMStateMgr
  0004b	8d 8e cc 01 00
	00		 lea	 ecx, DWORD PTR [esi+460]
  00051	c6 45 fc 03	 mov	 BYTE PTR __$EHRec$[ebp+8], 3
  00055	ff d3		 call	 ebx
  00057	8d 8e dc 01 00
	00		 lea	 ecx, DWORD PTR [esi+476]
  0005d	c6 45 fc 04	 mov	 BYTE PTR __$EHRec$[ebp+8], 4
  00061	ff d3		 call	 ebx
  00063	89 be f8 01 00
	00		 mov	 DWORD PTR [esi+504], edi
  00069	89 be fc 01 00
	00		 mov	 DWORD PTR [esi+508], edi
  0006f	89 be 00 02 00
	00		 mov	 DWORD PTR [esi+512], edi
  00075	89 be 08 02 00
	00		 mov	 DWORD PTR [esi+520], edi
  0007b	89 be 0c 02 00
	00		 mov	 DWORD PTR [esi+524], edi
  00081	89 be 10 02 00
	00		 mov	 DWORD PTR [esi+528], edi
  00087	89 be 18 02 00
	00		 mov	 DWORD PTR [esi+536], edi
  0008d	89 be 1c 02 00
	00		 mov	 DWORD PTR [esi+540], edi
  00093	89 be 20 02 00
	00		 mov	 DWORD PTR [esi+544], edi

; 430  : 
; 431  : 	m_sDescCard = STR(1);

  00099	57		 push	 edi
  0009a	33 db		 xor	 ebx, ebx
  0009c	43		 inc	 ebx
  0009d	53		 push	 ebx
  0009e	68 00 00 00 00	 push	 OFFSET ??_C@_00CNPNBAHC@?$AA@
  000a3	68 00 00 00 00	 push	 OFFSET ??_C@_0CF@CIILPIAE@RisingGashaponWnd?3?3RisingGashapo@
  000a8	c6 45 fc 08	 mov	 BYTE PTR __$EHRec$[ebp+8], 8
  000ac	ff 15 00 00 00
	00		 call	 DWORD PTR __imp_?GetSingleton@ioStringManager@@SAAAV1@XZ
  000b2	8b c8		 mov	 ecx, eax
  000b4	ff 15 00 00 00
	00		 call	 DWORD PTR __imp_?GetString@ioStringManager@@QAEPADPBD0HW4FileNamePrefix@1@@Z
  000ba	50		 push	 eax
  000bb	8d 8e 60 01 00
	00		 lea	 ecx, DWORD PTR [esi+352]
  000c1	ff 15 00 00 00
	00		 call	 DWORD PTR __imp_??4ioHashString@@QAEAAV0@PBD@Z

; 432  : 
; 433  : 	m_pLineLeft   = NULL;

  000c7	89 be 70 01 00
	00		 mov	 DWORD PTR [esi+368], edi

; 434  : 	m_pLineCenter = NULL;

  000cd	89 be 74 01 00
	00		 mov	 DWORD PTR [esi+372], edi

; 435  : 	m_pLineRight  = NULL;

  000d3	89 be 78 01 00
	00		 mov	 DWORD PTR [esi+376], edi

; 436  : 
; 437  : 	m_dwAniWaitDelay  = 0;

  000d9	89 be b4 01 00
	00		 mov	 DWORD PTR [esi+436], edi

; 438  : 	m_dwAniRollDelay  = 0;

  000df	89 be b8 01 00
	00		 mov	 DWORD PTR [esi+440], edi

; 439  : 	m_dwAniRollCnt    = 0;

  000e5	89 be bc 01 00
	00		 mov	 DWORD PTR [esi+444], edi

; 440  : 	m_dwCurAniRollCnt = 0;

  000eb	89 be c0 01 00
	00		 mov	 DWORD PTR [esi+448], edi

; 441  : 	m_iMaxSelectItem  = 0;

  000f1	89 be c4 01 00
	00		 mov	 DWORD PTR [esi+452], edi

; 442  : 	m_iEtcItemType    = 0;

  000f7	89 be c8 01 00
	00		 mov	 DWORD PTR [esi+456], edi

; 443  : 
; 444  : 	m_bBuyCash = true;

  000fd	89 9e ec 01 00
	00		 mov	 DWORD PTR [esi+492], ebx

; 445  : 	m_iBuyCount = 0;

  00103	89 be f0 01 00
	00		 mov	 DWORD PTR [esi+496], edi

; 446  : 	m_eMsgType = eMSGBOX_TYPE_NONE;

  00109	89 be f4 01 00
	00		 mov	 DWORD PTR [esi+500], edi

; 447  : 
; 448  : }

  0010f	8b c6		 mov	 eax, esi
  00111	e8 00 00 00 00	 call	 __EH_epilog3
  00116	c3		 ret	 0
_TEXT	ENDS
;	COMDAT text$x
text$x	SEGMENT
__unwindfunclet$??0RisingGashaponWnd@@QAE@XZ$0:
  00000	8b 4d f0	 mov	 ecx, DWORD PTR _this$[ebp]
  00003	ff 25 00 00 00
	00		 jmp	 DWORD PTR __imp_??1ioWnd@@UAE@XZ
__unwindfunclet$??0RisingGashaponWnd@@QAE@XZ$1:
  00009	8b 4d f0	 mov	 ecx, DWORD PTR _this$[ebp]
  0000c	81 c1 60 01 00
	00		 add	 ecx, 352		; 00000160H
  00012	ff 25 00 00 00
	00		 jmp	 DWORD PTR __imp_??1ioHashString@@QAE@XZ
__unwindfunclet$??0RisingGashaponWnd@@QAE@XZ$2:
  00018	8b 4d f0	 mov	 ecx, DWORD PTR _this$[ebp]
  0001b	81 c1 7c 01 00
	00		 add	 ecx, 380		; 0000017cH
  00021	ff 25 00 00 00
	00		 jmp	 DWORD PTR __imp_??1ioHashString@@QAE@XZ
__unwindfunclet$??0RisingGashaponWnd@@QAE@XZ$3:
  00027	8b 4d f0	 mov	 ecx, DWORD PTR _this$[ebp]
  0002a	81 c1 8c 01 00
	00		 add	 ecx, 396		; 0000018cH
  00030	e9 00 00 00 00	 jmp	 ??1FSMStateMgr@@UAE@XZ	; FSMStateMgr::~FSMStateMgr
__unwindfunclet$??0RisingGashaponWnd@@QAE@XZ$4:
  00035	8b 4d f0	 mov	 ecx, DWORD PTR _this$[ebp]
  00038	81 c1 cc 01 00
	00		 add	 ecx, 460		; 000001ccH
  0003e	ff 25 00 00 00
	00		 jmp	 DWORD PTR __imp_??1ioHashString@@QAE@XZ
__unwindfunclet$??0RisingGashaponWnd@@QAE@XZ$5:
  00044	8b 4d f0	 mov	 ecx, DWORD PTR _this$[ebp]
  00047	81 c1 dc 01 00
	00		 add	 ecx, 476		; 000001dcH
  0004d	ff 25 00 00 00
	00		 jmp	 DWORD PTR __imp_??1ioHashString@@QAE@XZ
__unwindfunclet$??0RisingGashaponWnd@@QAE@XZ$6:
  00053	8b 4d f0	 mov	 ecx, DWORD PTR _this$[ebp]
  00056	81 c1 f8 01 00
	00		 add	 ecx, 504		; 000001f8H
  0005c	e9 00 00 00 00	 jmp	 ??1?$vector@HV?$allocator@H@std@@@std@@QAE@XZ ; std::vector<int,std::allocator<int> >::~vector<int,std::allocator<int> >
__unwindfunclet$??0RisingGashaponWnd@@QAE@XZ$7:
  00061	8b 4d f0	 mov	 ecx, DWORD PTR _this$[ebp]
  00064	81 c1 08 02 00
	00		 add	 ecx, 520		; 00000208H
  0006a	e9 00 00 00 00	 jmp	 ??1?$vector@HV?$allocator@H@std@@@std@@QAE@XZ ; std::vector<int,std::allocator<int> >::~vector<int,std::allocator<int> >
__unwindfunclet$??0RisingGashaponWnd@@QAE@XZ$8:
  0006f	8b 4d f0	 mov	 ecx, DWORD PTR _this$[ebp]
  00072	81 c1 18 02 00
	00		 add	 ecx, 536		; 00000218H
  00078	e9 00 00 00 00	 jmp	 ??1?$vector@VGashaponPresent@@V?$allocator@VGashaponPresent@@@std@@@std@@QAE@XZ ; std::vector<GashaponPresent,std::allocator<GashaponPresent> >::~vector<GashaponPresent,std::allocator<GashaponPresent> >
__ehhandler$??0RisingGashaponWnd@@QAE@XZ:
  0007d	8b 54 24 08	 mov	 edx, DWORD PTR [esp+8]
  00081	8d 42 0c	 lea	 eax, DWORD PTR [edx+12]
  00084	8b 4a ec	 mov	 ecx, DWORD PTR [edx-20]
  00087	33 c8		 xor	 ecx, eax
  00089	e8 00 00 00 00	 call	 @__security_check_cookie@4
  0008e	b8 00 00 00 00	 mov	 eax, OFFSET __ehfuncinfo$??0RisingGashaponWnd@@QAE@XZ
  00093	e9 00 00 00 00	 jmp	 ___CxxFrameHandler3
text$x	ENDS
??0RisingGashaponWnd@@QAE@XZ ENDP			; RisingGashaponWnd::RisingGashaponWnd
PUBLIC	??1RisingGashaponWnd@@UAE@XZ			; RisingGashaponWnd::~RisingGashaponWnd
;	COMDAT xdata$x
; File c:\program files (x86)\microsoft visual studio 10.0\vc\include\vector
xdata$x	SEGMENT
__ehfuncinfo$??1RisingGashaponWnd@@UAE@XZ DD 019930522H
	DD	09H
	DD	FLAT:__unwindtable$??1RisingGashaponWnd@@UAE@XZ
	DD	2 DUP(00H)
	DD	2 DUP(00H)
	DD	00H
	DD	01H
__unwindtable$??1RisingGashaponWnd@@UAE@XZ DD 0ffffffffH
	DD	FLAT:__unwindfunclet$??1RisingGashaponWnd@@UAE@XZ$0
	DD	00H
	DD	FLAT:__unwindfunclet$??1RisingGashaponWnd@@UAE@XZ$1
	DD	01H
	DD	FLAT:__unwindfunclet$??1RisingGashaponWnd@@UAE@XZ$2
	DD	02H
	DD	FLAT:__unwindfunclet$??1RisingGashaponWnd@@UAE@XZ$3
	DD	03H
	DD	FLAT:__unwindfunclet$??1RisingGashaponWnd@@UAE@XZ$4
	DD	04H
	DD	FLAT:__unwindfunclet$??1RisingGashaponWnd@@UAE@XZ$5
	DD	05H
	DD	FLAT:__unwindfunclet$??1RisingGashaponWnd@@UAE@XZ$6
	DD	06H
	DD	FLAT:__unwindfunclet$??1RisingGashaponWnd@@UAE@XZ$7
	DD	07H
	DD	FLAT:__unwindfunclet$??1RisingGashaponWnd@@UAE@XZ$8
; Function compile flags: /Ogsp
; File d:\lost saga for developer\youtube\tutorial\source\src\lsclient\gui\risinggashaponwnd.cpp
xdata$x	ENDS
;	COMDAT ??1RisingGashaponWnd@@UAE@XZ
_TEXT	SEGMENT
_this$ = -16						; size = 4
__$EHRec$ = -12						; size = 12
??1RisingGashaponWnd@@UAE@XZ PROC			; RisingGashaponWnd::~RisingGashaponWnd, COMDAT
; _this$ = ecx

; 452  : {

  00000	6a 04		 push	 4
  00002	b8 00 00 00 00	 mov	 eax, __ehhandler$??1RisingGashaponWnd@@UAE@XZ
  00007	e8 00 00 00 00	 call	 __EH_prolog3
  0000c	8b f1		 mov	 esi, ecx
  0000e	89 75 f0	 mov	 DWORD PTR _this$[ebp], esi
  00011	c7 06 00 00 00
	00		 mov	 DWORD PTR [esi], OFFSET ??_7RisingGashaponWnd@@6B@

; 453  : 	SAFEDELETE( m_pLineLeft );

  00017	8b 8e 70 01 00
	00		 mov	 ecx, DWORD PTR [esi+368]
  0001d	c7 45 fc 08 00
	00 00		 mov	 DWORD PTR __$EHRec$[ebp+8], 8
  00024	85 c9		 test	 ecx, ecx
  00026	74 0e		 je	 SHORT $LN3@RisingGash@2
  00028	8b 01		 mov	 eax, DWORD PTR [ecx]
  0002a	6a 01		 push	 1
  0002c	ff 50 40	 call	 DWORD PTR [eax+64]
  0002f	83 a6 70 01 00
	00 00		 and	 DWORD PTR [esi+368], 0
$LN3@RisingGash@2:

; 454  : 	SAFEDELETE( m_pLineCenter );

  00036	8b 8e 74 01 00
	00		 mov	 ecx, DWORD PTR [esi+372]
  0003c	85 c9		 test	 ecx, ecx
  0003e	74 0e		 je	 SHORT $LN2@RisingGash@2
  00040	8b 01		 mov	 eax, DWORD PTR [ecx]
  00042	6a 01		 push	 1
  00044	ff 50 40	 call	 DWORD PTR [eax+64]
  00047	83 a6 74 01 00
	00 00		 and	 DWORD PTR [esi+372], 0
$LN2@RisingGash@2:

; 455  : 	SAFEDELETE( m_pLineRight );

  0004e	8b 8e 78 01 00
	00		 mov	 ecx, DWORD PTR [esi+376]
  00054	85 c9		 test	 ecx, ecx
  00056	74 0e		 je	 SHORT $LN1@RisingGash@2
  00058	8b 01		 mov	 eax, DWORD PTR [ecx]
  0005a	6a 01		 push	 1
  0005c	ff 50 40	 call	 DWORD PTR [eax+64]
  0005f	83 a6 78 01 00
	00 00		 and	 DWORD PTR [esi+376], 0
$LN1@RisingGash@2:

; 456  : }

  00066	8d 8e 18 02 00
	00		 lea	 ecx, DWORD PTR [esi+536]
  0006c	c6 45 fc 07	 mov	 BYTE PTR __$EHRec$[ebp+8], 7
  00070	e8 00 00 00 00	 call	 ?_Tidy@?$vector@VGashaponPresent@@V?$allocator@VGashaponPresent@@@std@@@std@@IAEXXZ ; std::vector<GashaponPresent,std::allocator<GashaponPresent> >::_Tidy
  00075	8d 8e 08 02 00
	00		 lea	 ecx, DWORD PTR [esi+520]
  0007b	c6 45 fc 06	 mov	 BYTE PTR __$EHRec$[ebp+8], 6
  0007f	e8 00 00 00 00	 call	 ?_Tidy@?$vector@HV?$allocator@H@std@@@std@@IAEXXZ ; std::vector<int,std::allocator<int> >::_Tidy
  00084	8d 8e f8 01 00
	00		 lea	 ecx, DWORD PTR [esi+504]
  0008a	c6 45 fc 05	 mov	 BYTE PTR __$EHRec$[ebp+8], 5
  0008e	e8 00 00 00 00	 call	 ?_Tidy@?$vector@HV?$allocator@H@std@@@std@@IAEXXZ ; std::vector<int,std::allocator<int> >::_Tidy
  00093	8b 3d 00 00 00
	00		 mov	 edi, DWORD PTR __imp_??1ioHashString@@QAE@XZ
  00099	8d 8e dc 01 00
	00		 lea	 ecx, DWORD PTR [esi+476]
  0009f	c6 45 fc 04	 mov	 BYTE PTR __$EHRec$[ebp+8], 4
  000a3	ff d7		 call	 edi
  000a5	8d 8e cc 01 00
	00		 lea	 ecx, DWORD PTR [esi+460]
  000ab	c6 45 fc 03	 mov	 BYTE PTR __$EHRec$[ebp+8], 3
  000af	ff d7		 call	 edi
  000b1	8d 8e 8c 01 00
	00		 lea	 ecx, DWORD PTR [esi+396]
  000b7	c6 45 fc 02	 mov	 BYTE PTR __$EHRec$[ebp+8], 2
  000bb	e8 00 00 00 00	 call	 ??1FSMStateMgr@@UAE@XZ	; FSMStateMgr::~FSMStateMgr
  000c0	8d 8e 7c 01 00
	00		 lea	 ecx, DWORD PTR [esi+380]
  000c6	c6 45 fc 01	 mov	 BYTE PTR __$EHRec$[ebp+8], 1
  000ca	ff d7		 call	 edi
  000cc	8d 8e 60 01 00
	00		 lea	 ecx, DWORD PTR [esi+352]
  000d2	c6 45 fc 00	 mov	 BYTE PTR __$EHRec$[ebp+8], 0
  000d6	ff d7		 call	 edi
  000d8	83 4d fc ff	 or	 DWORD PTR __$EHRec$[ebp+8], -1
  000dc	8b ce		 mov	 ecx, esi
  000de	ff 15 00 00 00
	00		 call	 DWORD PTR __imp_??1ioWnd@@UAE@XZ
  000e4	e8 00 00 00 00	 call	 __EH_epilog3
  000e9	c3		 ret	 0
_TEXT	ENDS
;	COMDAT text$x
text$x	SEGMENT
__unwindfunclet$??1RisingGashaponWnd@@UAE@XZ$0:
  00000	8b 4d f0	 mov	 ecx, DWORD PTR _this$[ebp]
  00003	ff 25 00 00 00
	00		 jmp	 DWORD PTR __imp_??1ioWnd@@UAE@XZ
__unwindfunclet$??1RisingGashaponWnd@@UAE@XZ$1:
  00009	8b 4d f0	 mov	 ecx, DWORD PTR _this$[ebp]
  0000c	81 c1 60 01 00
	00		 add	 ecx, 352		; 00000160H
  00012	ff 25 00 00 00
	00		 jmp	 DWORD PTR __imp_??1ioHashString@@QAE@XZ
__unwindfunclet$??1RisingGashaponWnd@@UAE@XZ$2:
  00018	8b 4d f0	 mov	 ecx, DWORD PTR _this$[ebp]
  0001b	81 c1 7c 01 00
	00		 add	 ecx, 380		; 0000017cH
  00021	ff 25 00 00 00
	00		 jmp	 DWORD PTR __imp_??1ioHashString@@QAE@XZ
__unwindfunclet$??1RisingGashaponWnd@@UAE@XZ$3:
  00027	8b 4d f0	 mov	 ecx, DWORD PTR _this$[ebp]
  0002a	81 c1 8c 01 00
	00		 add	 ecx, 396		; 0000018cH
  00030	e9 00 00 00 00	 jmp	 ??1FSMStateMgr@@UAE@XZ	; FSMStateMgr::~FSMStateMgr
__unwindfunclet$??1RisingGashaponWnd@@UAE@XZ$4:
  00035	8b 4d f0	 mov	 ecx, DWORD PTR _this$[ebp]
  00038	81 c1 cc 01 00
	00		 add	 ecx, 460		; 000001ccH
  0003e	ff 25 00 00 00
	00		 jmp	 DWORD PTR __imp_??1ioHashString@@QAE@XZ
__unwindfunclet$??1RisingGashaponWnd@@UAE@XZ$5:
  00044	8b 4d f0	 mov	 ecx, DWORD PTR _this$[ebp]
  00047	81 c1 dc 01 00
	00		 add	 ecx, 476		; 000001dcH
  0004d	ff 25 00 00 00
	00		 jmp	 DWORD PTR __imp_??1ioHashString@@QAE@XZ
__unwindfunclet$??1RisingGashaponWnd@@UAE@XZ$6:
  00053	8b 4d f0	 mov	 ecx, DWORD PTR _this$[ebp]
  00056	81 c1 f8 01 00
	00		 add	 ecx, 504		; 000001f8H
  0005c	e9 00 00 00 00	 jmp	 ??1?$vector@HV?$allocator@H@std@@@std@@QAE@XZ ; std::vector<int,std::allocator<int> >::~vector<int,std::allocator<int> >
__unwindfunclet$??1RisingGashaponWnd@@UAE@XZ$7:
  00061	8b 4d f0	 mov	 ecx, DWORD PTR _this$[ebp]
  00064	81 c1 08 02 00
	00		 add	 ecx, 520		; 00000208H
  0006a	e9 00 00 00 00	 jmp	 ??1?$vector@HV?$allocator@H@std@@@std@@QAE@XZ ; std::vector<int,std::allocator<int> >::~vector<int,std::allocator<int> >
__unwindfunclet$??1RisingGashaponWnd@@UAE@XZ$8:
  0006f	8b 4d f0	 mov	 ecx, DWORD PTR _this$[ebp]
  00072	81 c1 18 02 00
	00		 add	 ecx, 536		; 00000218H
  00078	e9 00 00 00 00	 jmp	 ??1?$vector@VGashaponPresent@@V?$allocator@VGashaponPresent@@@std@@@std@@QAE@XZ ; std::vector<GashaponPresent,std::allocator<GashaponPresent> >::~vector<GashaponPresent,std::allocator<GashaponPresent> >
__ehhandler$??1RisingGashaponWnd@@UAE@XZ:
  0007d	8b 54 24 08	 mov	 edx, DWORD PTR [esp+8]
  00081	8d 42 0c	 lea	 eax, DWORD PTR [edx+12]
  00084	8b 4a ec	 mov	 ecx, DWORD PTR [edx-20]
  00087	33 c8		 xor	 ecx, eax
  00089	e8 00 00 00 00	 call	 @__security_check_cookie@4
  0008e	b8 00 00 00 00	 mov	 eax, OFFSET __ehfuncinfo$??1RisingGashaponWnd@@UAE@XZ
  00093	e9 00 00 00 00	 jmp	 ___CxxFrameHandler3
text$x	ENDS
??1RisingGashaponWnd@@UAE@XZ ENDP			; RisingGashaponWnd::~RisingGashaponWnd
PUBLIC	??4?$vector@VGashaponPresent@@V?$allocator@VGashaponPresent@@@std@@@std@@QAEAAV01@ABV01@@Z ; std::vector<GashaponPresent,std::allocator<GashaponPresent> >::operator=
; Function compile flags: /Ogsp
; File c:\program files (x86)\microsoft visual studio 10.0\vc\include\vector
;	COMDAT ??4?$vector@VGashaponPresent@@V?$allocator@VGashaponPresent@@@std@@@std@@QAEAAV01@ABV01@@Z
_TEXT	SEGMENT
tv555 = -4						; size = 4
tv551 = 8						; size = 4
__Cat$525306 = 8					; size = 1
__Cat$525179 = 8					; size = 1
__Cat$525156 = 8					; size = 1
__Cat$525035 = 8					; size = 1
$T525090 = 8						; size = 4
$T525002 = 8						; size = 4
__Right$ = 8						; size = 4
??4?$vector@VGashaponPresent@@V?$allocator@VGashaponPresent@@@std@@@std@@QAEAAV01@ABV01@@Z PROC ; std::vector<GashaponPresent,std::allocator<GashaponPresent> >::operator=, COMDAT
; _this$ = ecx

; 709  : 		{	// assign _Right

  00000	55		 push	 ebp
  00001	8b ec		 mov	 ebp, esp
  00003	51		 push	 ecx
  00004	56		 push	 esi
  00005	57		 push	 edi

; 710  : 		if (this != &_Right)

  00006	8b 7d 08	 mov	 edi, DWORD PTR __Right$[ebp]
  00009	8b f1		 mov	 esi, ecx
  0000b	3b f7		 cmp	 esi, edi
  0000d	0f 84 16 01 00
	00		 je	 $LN1@operator@7

; 711  : 			{	// worth doing
; 712  : 			this->_Orphan_all();

  00013	ff 15 00 00 00
	00		 call	 DWORD PTR __imp_?_Orphan_all@_Container_base0@std@@QAEXXZ

; 713  : 
; 714  : 			if (_Right.size() == 0)

  00019	8b 47 04	 mov	 eax, DWORD PTR [edi+4]
  0001c	2b 07		 sub	 eax, DWORD PTR [edi]
  0001e	6a 14		 push	 20			; 00000014H
  00020	99		 cdq
  00021	59		 pop	 ecx
  00022	f7 f9		 idiv	 ecx
  00024	89 45 08	 mov	 DWORD PTR tv551[ebp], eax
  00027	85 c0		 test	 eax, eax

; 715  : 				clear();	// new sequence empty, erase existing sequence

  00029	8b 46 04	 mov	 eax, DWORD PTR [esi+4]
  0002c	75 14		 jne	 SHORT $LN8@operator@7
  0002e	8b 0e		 mov	 ecx, DWORD PTR [esi]
  00030	50		 push	 eax
  00031	51		 push	 ecx
  00032	8d 45 08	 lea	 eax, DWORD PTR $T525002[ebp]
  00035	50		 push	 eax
  00036	8b ce		 mov	 ecx, esi
  00038	e8 00 00 00 00	 call	 ?erase@?$vector@VGashaponPresent@@V?$allocator@VGashaponPresent@@@std@@@std@@QAE?AV?$_Vector_iterator@V?$_Vector_val@VGashaponPresent@@V?$allocator@VGashaponPresent@@@std@@@std@@@2@V?$_Vector_const_iterator@V?$_Vector_val@VGashaponPresent@@V?$allocator@VGashaponPresent@@@std@@@std@@@2@0@Z ; std::vector<GashaponPresent,std::allocator<GashaponPresent> >::erase

; 716  : 			else if (_Right.size() <= size())

  0003d	e9 e7 00 00 00	 jmp	 $LN1@operator@7
$LN8@operator@7:
  00042	53		 push	 ebx
  00043	8b 1e		 mov	 ebx, DWORD PTR [esi]
  00045	89 45 fc	 mov	 DWORD PTR tv555[ebp], eax
  00048	2b c3		 sub	 eax, ebx
  0004a	6a 14		 push	 20			; 00000014H
  0004c	99		 cdq
  0004d	59		 pop	 ecx
  0004e	f7 f9		 idiv	 ecx
  00050	8b c8		 mov	 ecx, eax
  00052	39 4d 08	 cmp	 DWORD PTR tv551[ebp], ecx
  00055	77 41		 ja	 SHORT $LN6@operator@7

; 717  : 				{	// enough elements, copy new and destroy old
; 718  : 				pointer _Ptr = _STD _Copy_impl(_Right._Myfirst, _Right._Mylast,
; 719  : 					this->_Myfirst);	// copy new

  00057	ff 75 08	 push	 DWORD PTR __Cat$525035[ebp]
  0005a	53		 push	 ebx
  0005b	ff 77 04	 push	 DWORD PTR [edi+4]
  0005e	ff 37		 push	 DWORD PTR [edi]
  00060	e8 00 00 00 00	 call	 ??$_Copy_impl@PAVGashaponPresent@@PAV1@@std@@YAPAVGashaponPresent@@PAV1@00U_Nonscalar_ptr_iterator_tag@0@@Z ; std::_Copy_impl<GashaponPresent *,GashaponPresent *>

; 720  : 				_Destroy(_Ptr, this->_Mylast);	// destroy old

  00065	8b 5e 04	 mov	 ebx, DWORD PTR [esi+4]
  00068	83 c4 10	 add	 esp, 16			; 00000010H
  0006b	89 45 08	 mov	 DWORD PTR $T525090[ebp], eax
  0006e	3b c3		 cmp	 eax, ebx
  00070	74 11		 je	 SHORT $LN46@operator@7
$LL114@operator@7:
  00072	8b 4d 08	 mov	 ecx, DWORD PTR $T525090[ebp]
  00075	e8 00 00 00 00	 call	 ??1GashaponPresent@@QAE@XZ ; GashaponPresent::~GashaponPresent
  0007a	83 45 08 14	 add	 DWORD PTR $T525090[ebp], 20 ; 00000014H
  0007e	39 5d 08	 cmp	 DWORD PTR $T525090[ebp], ebx
  00081	75 ef		 jne	 SHORT $LL114@operator@7
$LN46@operator@7:

; 721  : 				this->_Mylast = this->_Myfirst + _Right.size();

  00083	8b 47 04	 mov	 eax, DWORD PTR [edi+4]
  00086	2b 07		 sub	 eax, DWORD PTR [edi]
  00088	6a 14		 push	 20			; 00000014H
  0008a	99		 cdq
  0008b	59		 pop	 ecx
  0008c	f7 f9		 idiv	 ecx
  0008e	6b c0 14	 imul	 eax, 20			; 00000014H
  00091	03 06		 add	 eax, DWORD PTR [esi]

; 722  : 				}
; 723  : 			else if (_Right.size() <= capacity())

  00093	e9 8d 00 00 00	 jmp	 $LN116@operator@7
$LN6@operator@7:
  00098	8b 46 08	 mov	 eax, DWORD PTR [esi+8]
  0009b	2b c3		 sub	 eax, ebx
  0009d	6a 14		 push	 20			; 00000014H
  0009f	99		 cdq
  000a0	5b		 pop	 ebx
  000a1	f7 fb		 idiv	 ebx
  000a3	39 45 08	 cmp	 DWORD PTR tv551[ebp], eax
  000a6	77 2e		 ja	 SHORT $LN4@operator@7

; 724  : 				{	// enough room, copy and construct new
; 725  : 				pointer _Ptr = _Right._Myfirst + size();
; 726  : 				_STD _Copy_impl(_Right._Myfirst, _Ptr, this->_Myfirst);

  000a8	ff 75 08	 push	 DWORD PTR __Cat$525156[ebp]
  000ab	6b c9 14	 imul	 ecx, 20			; 00000014H
  000ae	8b 07		 mov	 eax, DWORD PTR [edi]
  000b0	ff 36		 push	 DWORD PTR [esi]
  000b2	8d 1c 08	 lea	 ebx, DWORD PTR [eax+ecx]
  000b5	53		 push	 ebx
  000b6	50		 push	 eax
  000b7	e8 00 00 00 00	 call	 ??$_Copy_impl@PAVGashaponPresent@@PAV1@@std@@YAPAVGashaponPresent@@PAV1@00U_Nonscalar_ptr_iterator_tag@0@@Z ; std::_Copy_impl<GashaponPresent *,GashaponPresent *>

; 727  : 				this->_Mylast = _Ucopy(_Ptr, _Right._Mylast, this->_Mylast);

  000bc	ff 75 08	 push	 DWORD PTR __Cat$525179[ebp]
  000bf	8b 46 04	 mov	 eax, DWORD PTR [esi+4]
  000c2	8b 7f 04	 mov	 edi, DWORD PTR [edi+4]
  000c5	8d 4e 0c	 lea	 ecx, DWORD PTR [esi+12]
  000c8	51		 push	 ecx
  000c9	50		 push	 eax
  000ca	57		 push	 edi
  000cb	53		 push	 ebx
  000cc	e8 00 00 00 00	 call	 ??$_Uninit_copy@PAVGashaponPresent@@PAV1@V?$allocator@VGashaponPresent@@@std@@@std@@YAPAVGashaponPresent@@PAV1@00AAV?$allocator@VGashaponPresent@@@0@U_Nonscalar_ptr_iterator_tag@0@@Z ; std::_Uninit_copy<GashaponPresent *,GashaponPresent *,std::allocator<GashaponPresent> >
  000d1	83 c4 24	 add	 esp, 36			; 00000024H

; 728  : 				}
; 729  : 			else

  000d4	eb 4f		 jmp	 SHORT $LN116@operator@7
$LN4@operator@7:

; 730  : 				{	// not enough room, allocate new array and construct new
; 731  : 				if (this->_Myfirst != 0)

  000d6	8b 1e		 mov	 ebx, DWORD PTR [esi]
  000d8	85 db		 test	 ebx, ebx
  000da	74 19		 je	 SHORT $LN113@operator@7
  000dc	eb 0a		 jmp	 SHORT $LN117@operator@7

; 732  : 					{	// discard old array
; 733  : 					_Destroy(this->_Myfirst, this->_Mylast);

$LL86@operator@7:
  000de	8b cb		 mov	 ecx, ebx
  000e0	e8 00 00 00 00	 call	 ??1GashaponPresent@@QAE@XZ ; GashaponPresent::~GashaponPresent
  000e5	83 c3 14	 add	 ebx, 20			; 00000014H
$LN117@operator@7:
  000e8	3b 5d fc	 cmp	 ebx, DWORD PTR tv555[ebp]
  000eb	75 f1		 jne	 SHORT $LL86@operator@7

; 734  : 					this->_Alval.deallocate(this->_Myfirst,
; 735  : 						this->_Myend - this->_Myfirst);

  000ed	ff 36		 push	 DWORD PTR [esi]
  000ef	e8 00 00 00 00	 call	 ??3@YAXPAX@Z		; operator delete
  000f4	59		 pop	 ecx
$LN113@operator@7:

; 736  : 					}
; 737  : 				if (_Buy(_Right.size()))

  000f5	8b 47 04	 mov	 eax, DWORD PTR [edi+4]
  000f8	2b 07		 sub	 eax, DWORD PTR [edi]
  000fa	6a 14		 push	 20			; 00000014H
  000fc	59		 pop	 ecx
  000fd	99		 cdq
  000fe	f7 f9		 idiv	 ecx
  00100	8b ce		 mov	 ecx, esi
  00102	50		 push	 eax
  00103	e8 00 00 00 00	 call	 ?_Buy@?$vector@VGashaponPresent@@V?$allocator@VGashaponPresent@@@std@@@std@@IAE_NI@Z ; std::vector<GashaponPresent,std::allocator<GashaponPresent> >::_Buy
  00108	84 c0		 test	 al, al
  0010a	74 1c		 je	 SHORT $LN115@operator@7

; 738  : 					this->_Mylast = _Ucopy(_Right._Myfirst, _Right._Mylast,
; 739  : 						this->_Myfirst);

  0010c	ff 75 08	 push	 DWORD PTR __Cat$525306[ebp]
  0010f	8b 06		 mov	 eax, DWORD PTR [esi]
  00111	8b 4f 04	 mov	 ecx, DWORD PTR [edi+4]
  00114	8b 3f		 mov	 edi, DWORD PTR [edi]
  00116	8d 56 0c	 lea	 edx, DWORD PTR [esi+12]
  00119	52		 push	 edx
  0011a	50		 push	 eax
  0011b	51		 push	 ecx
  0011c	57		 push	 edi
  0011d	e8 00 00 00 00	 call	 ??$_Uninit_copy@PAVGashaponPresent@@PAV1@V?$allocator@VGashaponPresent@@@std@@@std@@YAPAVGashaponPresent@@PAV1@00AAV?$allocator@VGashaponPresent@@@0@U_Nonscalar_ptr_iterator_tag@0@@Z ; std::_Uninit_copy<GashaponPresent *,GashaponPresent *,std::allocator<GashaponPresent> >
  00122	83 c4 14	 add	 esp, 20			; 00000014H
$LN116@operator@7:
  00125	89 46 04	 mov	 DWORD PTR [esi+4], eax
$LN115@operator@7:
  00128	5b		 pop	 ebx
$LN1@operator@7:
  00129	5f		 pop	 edi

; 740  : 				}
; 741  : 			}
; 742  : 		return (*this);

  0012a	8b c6		 mov	 eax, esi
  0012c	5e		 pop	 esi

; 743  : 		}

  0012d	c9		 leave
  0012e	c2 04 00	 ret	 4
??4?$vector@VGashaponPresent@@V?$allocator@VGashaponPresent@@@std@@@std@@QAEAAV01@ABV01@@Z ENDP ; std::vector<GashaponPresent,std::allocator<GashaponPresent> >::operator=
_TEXT	ENDS
PUBLIC	?_Destroy@?$vector@V?$basic_string@DU?$char_traits@D@std@@V?$allocator@D@2@@std@@V?$allocator@V?$basic_string@DU?$char_traits@D@std@@V?$allocator@D@2@@std@@@2@@std@@IAEXPAV?$basic_string@DU?$char_traits@D@std@@V?$allocator@D@2@@2@0@Z ; std::vector<std::basic_string<char,std::char_traits<char>,std::allocator<char> >,std::allocator<std::basic_string<char,std::char_traits<char>,std::allocator<char> > > >::_Destroy
; Function compile flags: /Ogsp
;	COMDAT ?_Destroy@?$vector@V?$basic_string@DU?$char_traits@D@std@@V?$allocator@D@2@@std@@V?$allocator@V?$basic_string@DU?$char_traits@D@std@@V?$allocator@D@2@@std@@@2@@std@@IAEXPAV?$basic_string@DU?$char_traits@D@std@@V?$allocator@D@2@@2@0@Z
_TEXT	SEGMENT
__First$ = 8						; size = 4
__Cat$525333 = 12					; size = 1
__Last$ = 12						; size = 4
?_Destroy@?$vector@V?$basic_string@DU?$char_traits@D@std@@V?$allocator@D@2@@std@@V?$allocator@V?$basic_string@DU?$char_traits@D@std@@V?$allocator@D@2@@std@@@2@@std@@IAEXPAV?$basic_string@DU?$char_traits@D@std@@V?$allocator@D@2@@2@0@Z PROC ; std::vector<std::basic_string<char,std::char_traits<char>,std::allocator<char> >,std::allocator<std::basic_string<char,std::char_traits<char>,std::allocator<char> > > >::_Destroy, COMDAT
; _this$ = ecx

; 1269 : 		{	// destroy [_First, _Last) using allocator

  00000	55		 push	 ebp
  00001	8b ec		 mov	 ebp, esp

; 1270 : 		_Destroy_range(_First, _Last, this->_Alval);

  00003	ff 75 0c	 push	 DWORD PTR __Cat$525333[ebp]
  00006	83 c1 0c	 add	 ecx, 12			; 0000000cH
  00009	51		 push	 ecx
  0000a	ff 75 0c	 push	 DWORD PTR __Last$[ebp]
  0000d	ff 75 08	 push	 DWORD PTR __First$[ebp]
  00010	e8 00 00 00 00	 call	 ??$_Destroy_range@V?$allocator@V?$basic_string@DU?$char_traits@D@std@@V?$allocator@D@2@@std@@@std@@@std@@YAXPAV?$basic_string@DU?$char_traits@D@std@@V?$allocator@D@2@@0@0AAV?$allocator@V?$basic_string@DU?$char_traits@D@std@@V?$allocator@D@2@@std@@@0@U_Nonscalar_ptr_iterator_tag@0@@Z ; std::_Destroy_range<std::allocator<std::basic_string<char,std::char_traits<char>,std::allocator<char> > > >
  00015	83 c4 10	 add	 esp, 16			; 00000010H

; 1271 : 		}

  00018	5d		 pop	 ebp
  00019	c2 08 00	 ret	 8
?_Destroy@?$vector@V?$basic_string@DU?$char_traits@D@std@@V?$allocator@D@2@@std@@V?$allocator@V?$basic_string@DU?$char_traits@D@std@@V?$allocator@D@2@@std@@@2@@std@@IAEXPAV?$basic_string@DU?$char_traits@D@std@@V?$allocator@D@2@@2@0@Z ENDP ; std::vector<std::basic_string<char,std::char_traits<char>,std::allocator<char> >,std::allocator<std::basic_string<char,std::char_traits<char>,std::allocator<char> > > >::_Destroy
; Function compile flags: /Ogsp
_TEXT	ENDS
;	COMDAT ??_GRisingGashaponItemInfoBtn@@UAEPAXI@Z
_TEXT	SEGMENT
___flags$ = 8						; size = 4
??_GRisingGashaponItemInfoBtn@@UAEPAXI@Z PROC		; RisingGashaponItemInfoBtn::`scalar deleting destructor', COMDAT
; _this$ = ecx
  00000	55		 push	 ebp
  00001	8b ec		 mov	 ebp, esp
  00003	56		 push	 esi
  00004	8b f1		 mov	 esi, ecx
  00006	e8 00 00 00 00	 call	 ??1RisingGashaponItemInfoBtn@@UAE@XZ ; RisingGashaponItemInfoBtn::~RisingGashaponItemInfoBtn
  0000b	f6 45 08 01	 test	 BYTE PTR ___flags$[ebp], 1
  0000f	74 07		 je	 SHORT $LN1@scalar@5
  00011	56		 push	 esi
  00012	e8 00 00 00 00	 call	 ??3@YAXPAX@Z		; operator delete
  00017	59		 pop	 ecx
$LN1@scalar@5:
  00018	8b c6		 mov	 eax, esi
  0001a	5e		 pop	 esi
  0001b	5d		 pop	 ebp
  0001c	c2 04 00	 ret	 4
??_GRisingGashaponItemInfoBtn@@UAEPAXI@Z ENDP		; RisingGashaponItemInfoBtn::`scalar deleting destructor'
; Function compile flags: /Ogsp
_TEXT	ENDS
;	COMDAT ??_GRisingGashaponWnd@@UAEPAXI@Z
_TEXT	SEGMENT
___flags$ = 8						; size = 4
??_GRisingGashaponWnd@@UAEPAXI@Z PROC			; RisingGashaponWnd::`scalar deleting destructor', COMDAT
; _this$ = ecx
  00000	55		 push	 ebp
  00001	8b ec		 mov	 ebp, esp
  00003	56		 push	 esi
  00004	8b f1		 mov	 esi, ecx
  00006	e8 00 00 00 00	 call	 ??1RisingGashaponWnd@@UAE@XZ ; RisingGashaponWnd::~RisingGashaponWnd
  0000b	f6 45 08 01	 test	 BYTE PTR ___flags$[ebp], 1
  0000f	74 07		 je	 SHORT $LN1@scalar@6
  00011	56		 push	 esi
  00012	e8 00 00 00 00	 call	 ??3@YAXPAX@Z		; operator delete
  00017	59		 pop	 ecx
$LN1@scalar@6:
  00018	8b c6		 mov	 eax, esi
  0001a	5e		 pop	 esi
  0001b	5d		 pop	 ebp
  0001c	c2 04 00	 ret	 4
??_GRisingGashaponWnd@@UAEPAXI@Z ENDP			; RisingGashaponWnd::`scalar deleting destructor'
_TEXT	ENDS
PUBLIC	?_Tidy@?$vector@V?$basic_string@DU?$char_traits@D@std@@V?$allocator@D@2@@std@@V?$allocator@V?$basic_string@DU?$char_traits@D@std@@V?$allocator@D@2@@std@@@2@@std@@IAEXXZ ; std::vector<std::basic_string<char,std::char_traits<char>,std::allocator<char> >,std::allocator<std::basic_string<char,std::char_traits<char>,std::allocator<char> > > >::_Tidy
; Function compile flags: /Ogsp
;	COMDAT ?_Tidy@?$vector@V?$basic_string@DU?$char_traits@D@std@@V?$allocator@D@2@@std@@V?$allocator@V?$basic_string@DU?$char_traits@D@std@@V?$allocator@D@2@@std@@@2@@std@@IAEXXZ
_TEXT	SEGMENT
__Cat$525359 = -4					; size = 1
?_Tidy@?$vector@V?$basic_string@DU?$char_traits@D@std@@V?$allocator@D@2@@std@@V?$allocator@V?$basic_string@DU?$char_traits@D@std@@V?$allocator@D@2@@std@@@2@@std@@IAEXXZ PROC ; std::vector<std::basic_string<char,std::char_traits<char>,std::allocator<char> >,std::allocator<std::basic_string<char,std::char_traits<char>,std::allocator<char> > > >::_Tidy, COMDAT
; _this$ = ecx

; 1301 : 		{	// free all storage

  00000	55		 push	 ebp
  00001	8b ec		 mov	 ebp, esp
  00003	51		 push	 ecx
  00004	56		 push	 esi
  00005	8b f1		 mov	 esi, ecx

; 1302 : 		if (this->_Myfirst != 0)

  00007	83 3e 00	 cmp	 DWORD PTR [esi], 0
  0000a	74 21		 je	 SHORT $LN10@Tidy@5

; 1303 : 			{	// something to free, destroy and deallocate it
; 1304 : 			this->_Orphan_all();

  0000c	ff 15 00 00 00
	00		 call	 DWORD PTR __imp_?_Orphan_all@_Container_base0@std@@QAEXXZ

; 1305 : 			_Destroy(this->_Myfirst, this->_Mylast);

  00012	ff 75 fc	 push	 DWORD PTR __Cat$525359[ebp]
  00015	8d 46 0c	 lea	 eax, DWORD PTR [esi+12]
  00018	50		 push	 eax
  00019	ff 76 04	 push	 DWORD PTR [esi+4]
  0001c	ff 36		 push	 DWORD PTR [esi]
  0001e	e8 00 00 00 00	 call	 ??$_Destroy_range@V?$allocator@V?$basic_string@DU?$char_traits@D@std@@V?$allocator@D@2@@std@@@std@@@std@@YAXPAV?$basic_string@DU?$char_traits@D@std@@V?$allocator@D@2@@0@0AAV?$allocator@V?$basic_string@DU?$char_traits@D@std@@V?$allocator@D@2@@std@@@0@U_Nonscalar_ptr_iterator_tag@0@@Z ; std::_Destroy_range<std::allocator<std::basic_string<char,std::char_traits<char>,std::allocator<char> > > >

; 1306 : 			this->_Alval.deallocate(this->_Myfirst,
; 1307 : 				this->_Myend - this->_Myfirst);

  00023	ff 36		 push	 DWORD PTR [esi]
  00025	e8 00 00 00 00	 call	 ??3@YAXPAX@Z		; operator delete
  0002a	83 c4 14	 add	 esp, 20			; 00000014H
$LN10@Tidy@5:

; 1308 : 			}
; 1309 : 		this->_Myfirst = 0;

  0002d	83 26 00	 and	 DWORD PTR [esi], 0

; 1310 : 		this->_Mylast = 0;

  00030	83 66 04 00	 and	 DWORD PTR [esi+4], 0

; 1311 : 		this->_Myend = 0;

  00034	83 66 08 00	 and	 DWORD PTR [esi+8], 0
  00038	5e		 pop	 esi

; 1312 : 		}

  00039	c9		 leave
  0003a	c3		 ret	 0
?_Tidy@?$vector@V?$basic_string@DU?$char_traits@D@std@@V?$allocator@D@2@@std@@V?$allocator@V?$basic_string@DU?$char_traits@D@std@@V?$allocator@D@2@@std@@@2@@std@@IAEXXZ ENDP ; std::vector<std::basic_string<char,std::char_traits<char>,std::allocator<char> >,std::allocator<std::basic_string<char,std::char_traits<char>,std::allocator<char> > > >::_Tidy
_TEXT	ENDS
PUBLIC	??1?$vector@V?$basic_string@DU?$char_traits@D@std@@V?$allocator@D@2@@std@@V?$allocator@V?$basic_string@DU?$char_traits@D@std@@V?$allocator@D@2@@std@@@2@@std@@QAE@XZ ; std::vector<std::basic_string<char,std::char_traits<char>,std::allocator<char> >,std::allocator<std::basic_string<char,std::char_traits<char>,std::allocator<char> > > >::~vector<std::basic_string<char,std::char_traits<char>,std::allocator<char> >,std::allocator<std::basic_string<char,std::char_traits<char>,std::allocator<char> > > >
; Function compile flags: /Ogsp
;	COMDAT ??1?$vector@V?$basic_string@DU?$char_traits@D@std@@V?$allocator@D@2@@std@@V?$allocator@V?$basic_string@DU?$char_traits@D@std@@V?$allocator@D@2@@std@@@2@@std@@QAE@XZ
_TEXT	SEGMENT
??1?$vector@V?$basic_string@DU?$char_traits@D@std@@V?$allocator@D@2@@std@@V?$allocator@V?$basic_string@DU?$char_traits@D@std@@V?$allocator@D@2@@std@@@2@@std@@QAE@XZ PROC ; std::vector<std::basic_string<char,std::char_traits<char>,std::allocator<char> >,std::allocator<std::basic_string<char,std::char_traits<char>,std::allocator<char> > > >::~vector<std::basic_string<char,std::char_traits<char>,std::allocator<char> >,std::allocator<std::basic_string<char,std::char_traits<char>,std::allocator<char> > > >, COMDAT
; _this$ = ecx

; 705  : 		_Tidy();

  00000	e9 00 00 00 00	 jmp	 ?_Tidy@?$vector@V?$basic_string@DU?$char_traits@D@std@@V?$allocator@D@2@@std@@V?$allocator@V?$basic_string@DU?$char_traits@D@std@@V?$allocator@D@2@@std@@@2@@std@@IAEXXZ ; std::vector<std::basic_string<char,std::char_traits<char>,std::allocator<char> >,std::allocator<std::basic_string<char,std::char_traits<char>,std::allocator<char> > > >::_Tidy
??1?$vector@V?$basic_string@DU?$char_traits@D@std@@V?$allocator@D@2@@std@@V?$allocator@V?$basic_string@DU?$char_traits@D@std@@V?$allocator@D@2@@std@@@2@@std@@QAE@XZ ENDP ; std::vector<std::basic_string<char,std::char_traits<char>,std::allocator<char> >,std::allocator<std::basic_string<char,std::char_traits<char>,std::allocator<char> > > >::~vector<std::basic_string<char,std::char_traits<char>,std::allocator<char> >,std::allocator<std::basic_string<char,std::char_traits<char>,std::allocator<char> > > >
_TEXT	ENDS
PUBLIC	?SetPresent@RisingGashaponItemInfoBtn@@QAEXABVGashaponPresent@@VioHashString@@@Z ; RisingGashaponItemInfoBtn::SetPresent
EXTRN	?SplitTextWidth@Help@@YAXV?$basic_string@DU?$char_traits@D@std@@V?$allocator@D@2@@std@@AAV?$vector@V?$basic_string@DU?$char_traits@D@std@@V?$allocator@D@2@@std@@V?$allocator@V?$basic_string@DU?$char_traits@D@std@@V?$allocator@D@2@@std@@@2@@3@HW4TextStyle@@M@Z:PROC ; Help::SplitTextWidth
EXTRN	?GetPresentIconText@ioPresentMgr@@QAEABVioHashString@@FHH@Z:PROC ; ioPresentMgr::GetPresentIconText
EXTRN	?GetSingleton@ioPresentMgr@@SAAAV1@XZ:PROC	; ioPresentMgr::GetSingleton
;	COMDAT xdata$x
xdata$x	SEGMENT
__unwindtable$?SetPresent@RisingGashaponItemInfoBtn@@QAEXABVGashaponPresent@@VioHashString@@@Z DD 0ffffffffH
	DD	FLAT:__unwindfunclet$?SetPresent@RisingGashaponItemInfoBtn@@QAEXABVGashaponPresent@@VioHashString@@@Z$0
	DD	00H
	DD	FLAT:__unwindfunclet$?SetPresent@RisingGashaponItemInfoBtn@@QAEXABVGashaponPresent@@VioHashString@@@Z$1
__ehfuncinfo$?SetPresent@RisingGashaponItemInfoBtn@@QAEXABVGashaponPresent@@VioHashString@@@Z DD 019930522H
	DD	02H
	DD	FLAT:__unwindtable$?SetPresent@RisingGashaponItemInfoBtn@@QAEXABVGashaponPresent@@VioHashString@@@Z
	DD	2 DUP(00H)
	DD	2 DUP(00H)
	DD	00H
	DD	01H
; Function compile flags: /Ogsp
; File d:\lost saga for developer\youtube\tutorial\source\src\lsclient\gui\risinggashaponwnd.cpp
xdata$x	ENDS
;	COMDAT ?SetPresent@RisingGashaponItemInfoBtn@@QAEXABVGashaponPresent@@VioHashString@@@Z
_TEXT	SEGMENT
_vItemName$ = -32					; size = 16
_nLineSize$ = -16					; size = 4
__$EHRec$ = -12						; size = 12
_i$512805 = 8						; size = 4
$T525382 = 8						; size = 4
_rkPresent$ = 8						; size = 4
_strName$ = 12						; size = 16
?SetPresent@RisingGashaponItemInfoBtn@@QAEXABVGashaponPresent@@VioHashString@@@Z PROC ; RisingGashaponItemInfoBtn::SetPresent, COMDAT
; _this$ = ecx

; 109  : {

  00000	6a 14		 push	 20			; 00000014H
  00002	b8 00 00 00 00	 mov	 eax, __ehhandler$?SetPresent@RisingGashaponItemInfoBtn@@QAEXABVGashaponPresent@@VioHashString@@@Z
  00007	e8 00 00 00 00	 call	 __EH_prolog3
  0000c	8b d9		 mov	 ebx, ecx

; 110  : 	m_GashaponPresent = rkPresent;

  0000e	8b 45 08	 mov	 eax, DWORD PTR _rkPresent$[ebp]
  00011	83 65 fc 00	 and	 DWORD PTR __$EHRec$[ebp+8], 0
  00015	6a 05		 push	 5
  00017	8d bb 14 02 00
	00		 lea	 edi, DWORD PTR [ebx+532]
  0001d	59		 pop	 ecx
  0001e	8b f0		 mov	 esi, eax
  00020	f3 a5		 rep movsd

; 111  : 
; 112  : 	// icon
; 113  : 	SAFEDELETE( m_pPresentIcon );

  00022	8b 8b 04 02 00
	00		 mov	 ecx, DWORD PTR [ebx+516]
  00028	85 c9		 test	 ecx, ecx
  0002a	74 11		 je	 SHORT $LN6@SetPresent
  0002c	8b 01		 mov	 eax, DWORD PTR [ecx]
  0002e	6a 01		 push	 1
  00030	ff 50 40	 call	 DWORD PTR [eax+64]
  00033	83 a3 04 02 00
	00 00		 and	 DWORD PTR [ebx+516], 0
  0003a	8b 45 08	 mov	 eax, DWORD PTR _rkPresent$[ebp]
$LN6@SetPresent:

; 114  : 	const ioHashString &rkPresentIcon = g_PresentMgr.GetPresentIconText( rkPresent.m_iType, rkPresent.m_iValue1, rkPresent.m_iValue2 );

  0003d	ff 70 08	 push	 DWORD PTR [eax+8]
  00040	ff 70 04	 push	 DWORD PTR [eax+4]
  00043	0f b7 00	 movzx	 eax, WORD PTR [eax]
  00046	50		 push	 eax
  00047	e8 00 00 00 00	 call	 ?GetSingleton@ioPresentMgr@@SAAAV1@XZ ; ioPresentMgr::GetSingleton
  0004c	8b c8		 mov	 ecx, eax
  0004e	e8 00 00 00 00	 call	 ?GetPresentIconText@ioPresentMgr@@QAEABVioHashString@@FHH@Z ; ioPresentMgr::GetPresentIconText

; 115  : 	m_pPresentIcon = g_UIImageSetMgr.CreateImageByFullName( rkPresentIcon );

  00053	33 f6		 xor	 esi, esi
  00055	56		 push	 esi
  00056	50		 push	 eax
  00057	ff 15 00 00 00
	00		 call	 DWORD PTR __imp_?GetSingleton@ioUIImageSetManager@@SAAAV1@XZ
  0005d	8b c8		 mov	 ecx, eax
  0005f	ff 15 00 00 00
	00		 call	 DWORD PTR __imp_?CreateImageByFullName@ioUIImageSetManager@@QAEPAVioUIRenderImage@@ABVioHashString@@_N@Z
  00065	89 83 04 02 00
	00		 mov	 DWORD PTR [ebx+516], eax

; 116  : 
; 117  : 	StringVector vItemName;

  0006b	89 75 e0	 mov	 DWORD PTR _vItemName$[ebp], esi
  0006e	89 75 e4	 mov	 DWORD PTR _vItemName$[ebp+4], esi
  00071	89 75 e8	 mov	 DWORD PTR _vItemName$[ebp+8], esi

; 118  : 	Help::SplitTextWidth( strName.c_str(), vItemName, 62, TS_NORMAL, FONT_SIZE_11 );

  00074	d9 05 00 00 00
	00		 fld	 DWORD PTR __real@3f0ccccd
  0007a	51		 push	 ecx
  0007b	d9 1c 24	 fstp	 DWORD PTR [esp]
  0007e	56		 push	 esi
  0007f	6a 3e		 push	 62			; 0000003eH
  00081	8d 45 e0	 lea	 eax, DWORD PTR _vItemName$[ebp]
  00084	50		 push	 eax
  00085	8d 4d 0c	 lea	 ecx, DWORD PTR _strName$[ebp]
  00088	c6 45 fc 01	 mov	 BYTE PTR __$EHRec$[ebp+8], 1
  0008c	ff 15 00 00 00
	00		 call	 DWORD PTR __imp_?c_str@ioHashString@@QBEPBDXZ
  00092	83 ec 1c	 sub	 esp, 28			; 0000001cH
  00095	8b cc		 mov	 ecx, esp
  00097	89 65 08	 mov	 DWORD PTR $T525382[ebp], esp
  0009a	50		 push	 eax
  0009b	e8 00 00 00 00	 call	 ??0?$basic_string@DU?$char_traits@D@std@@V?$allocator@D@2@@std@@QAE@PBD@Z ; std::basic_string<char,std::char_traits<char>,std::allocator<char> >::basic_string<char,std::char_traits<char>,std::allocator<char> >
  000a0	e8 00 00 00 00	 call	 ?SplitTextWidth@Help@@YAXV?$basic_string@DU?$char_traits@D@std@@V?$allocator@D@2@@std@@AAV?$vector@V?$basic_string@DU?$char_traits@D@std@@V?$allocator@D@2@@std@@V?$allocator@V?$basic_string@DU?$char_traits@D@std@@V?$allocator@D@2@@std@@@2@@3@HW4TextStyle@@M@Z ; Help::SplitTextWidth

; 119  : 
; 120  : 	int nLineSize = vItemName.size();

  000a5	8b 45 e4	 mov	 eax, DWORD PTR _vItemName$[ebp+4]
  000a8	2b 45 e0	 sub	 eax, DWORD PTR _vItemName$[ebp]
  000ab	83 c4 2c	 add	 esp, 44			; 0000002cH
  000ae	6a 1c		 push	 28			; 0000001cH
  000b0	99		 cdq
  000b1	59		 pop	 ecx
  000b2	f7 f9		 idiv	 ecx
  000b4	33 ff		 xor	 edi, edi

; 121  : 	for (int i = 0; i < MAX_SPLIT_LINE ; i++)

  000b6	89 75 08	 mov	 DWORD PTR _i$512805[ebp], esi
  000b9	81 c3 5c 02 00
	00		 add	 ebx, 604		; 0000025cH
  000bf	89 45 f0	 mov	 DWORD PTR _nLineSize$[ebp], eax
$LN5@SetPresent:

; 122  : 	{
; 123  : 
; 124  : 		if(COMPARE(i, 0, nLineSize))

  000c2	8b 45 08	 mov	 eax, DWORD PTR _i$512805[ebp]
  000c5	3b c6		 cmp	 eax, esi
  000c7	7c 15		 jl	 SHORT $LN2@SetPresent
  000c9	3b 45 f0	 cmp	 eax, DWORD PTR _nLineSize$[ebp]
  000cc	7d 10		 jge	 SHORT $LN2@SetPresent

; 125  : 		{
; 126  : 			m_szTitles[i] = vItemName[i].c_str();

  000ce	8b 45 e0	 mov	 eax, DWORD PTR _vItemName$[ebp]
  000d1	03 c7		 add	 eax, edi
  000d3	83 78 14 10	 cmp	 DWORD PTR [eax+20], 16	; 00000010H
  000d7	72 02		 jb	 SHORT $LN30@SetPresent
  000d9	8b 00		 mov	 eax, DWORD PTR [eax]
$LN30@SetPresent:
  000db	50		 push	 eax

; 127  : 		}
; 128  : 		else

  000dc	eb 05		 jmp	 SHORT $LN40@SetPresent
$LN2@SetPresent:

; 129  : 		{
; 130  : 			m_szTitles[i] = "";

  000de	68 00 00 00 00	 push	 OFFSET ??_C@_00CNPNBAHC@?$AA@
$LN40@SetPresent:
  000e3	8b cb		 mov	 ecx, ebx
  000e5	ff 15 00 00 00
	00		 call	 DWORD PTR __imp_??4ioHashString@@QAEAAV0@PBD@Z
  000eb	ff 45 08	 inc	 DWORD PTR _i$512805[ebp]
  000ee	83 c7 1c	 add	 edi, 28			; 0000001cH
  000f1	83 c3 10	 add	 ebx, 16			; 00000010H
  000f4	83 ff 38	 cmp	 edi, 56			; 00000038H
  000f7	7c c9		 jl	 SHORT $LN5@SetPresent

; 131  : 		}
; 132  : 	}
; 133  : 
; 134  : }

  000f9	8d 4d e0	 lea	 ecx, DWORD PTR _vItemName$[ebp]
  000fc	c6 45 fc 00	 mov	 BYTE PTR __$EHRec$[ebp+8], 0
  00100	e8 00 00 00 00	 call	 ?_Tidy@?$vector@V?$basic_string@DU?$char_traits@D@std@@V?$allocator@D@2@@std@@V?$allocator@V?$basic_string@DU?$char_traits@D@std@@V?$allocator@D@2@@std@@@2@@std@@IAEXXZ ; std::vector<std::basic_string<char,std::char_traits<char>,std::allocator<char> >,std::allocator<std::basic_string<char,std::char_traits<char>,std::allocator<char> > > >::_Tidy
  00105	83 4d fc ff	 or	 DWORD PTR __$EHRec$[ebp+8], -1
  00109	8d 4d 0c	 lea	 ecx, DWORD PTR _strName$[ebp]
  0010c	ff 15 00 00 00
	00		 call	 DWORD PTR __imp_??1ioHashString@@QAE@XZ
  00112	e8 00 00 00 00	 call	 __EH_epilog3
  00117	c2 14 00	 ret	 20			; 00000014H
_TEXT	ENDS
;	COMDAT text$x
text$x	SEGMENT
__unwindfunclet$?SetPresent@RisingGashaponItemInfoBtn@@QAEXABVGashaponPresent@@VioHashString@@@Z$0:
  00000	8d 4d 0c	 lea	 ecx, DWORD PTR _strName$[ebp]
  00003	ff 25 00 00 00
	00		 jmp	 DWORD PTR __imp_??1ioHashString@@QAE@XZ
__unwindfunclet$?SetPresent@RisingGashaponItemInfoBtn@@QAEXABVGashaponPresent@@VioHashString@@@Z$1:
  00009	8d 4d e0	 lea	 ecx, DWORD PTR _vItemName$[ebp]
  0000c	e9 00 00 00 00	 jmp	 ??1?$vector@V?$basic_string@DU?$char_traits@D@std@@V?$allocator@D@2@@std@@V?$allocator@V?$basic_string@DU?$char_traits@D@std@@V?$allocator@D@2@@std@@@2@@std@@QAE@XZ ; std::vector<std::basic_string<char,std::char_traits<char>,std::allocator<char> >,std::allocator<std::basic_string<char,std::char_traits<char>,std::allocator<char> > > >::~vector<std::basic_string<char,std::char_traits<char>,std::allocator<char> >,std::allocator<std::basic_string<char,std::char_traits<char>,std::allocator<char> > > >
__ehhandler$?SetPresent@RisingGashaponItemInfoBtn@@QAEXABVGashaponPresent@@VioHashString@@@Z:
  00011	8b 54 24 08	 mov	 edx, DWORD PTR [esp+8]
  00015	8d 42 0c	 lea	 eax, DWORD PTR [edx+12]
  00018	8b 4a dc	 mov	 ecx, DWORD PTR [edx-36]
  0001b	33 c8		 xor	 ecx, eax
  0001d	e8 00 00 00 00	 call	 @__security_check_cookie@4
  00022	b8 00 00 00 00	 mov	 eax, OFFSET __ehfuncinfo$?SetPresent@RisingGashaponItemInfoBtn@@QAEXABVGashaponPresent@@VioHashString@@@Z
  00027	e9 00 00 00 00	 jmp	 ___CxxFrameHandler3
text$x	ENDS
?SetPresent@RisingGashaponItemInfoBtn@@QAEXABVGashaponPresent@@VioHashString@@@Z ENDP ; RisingGashaponItemInfoBtn::SetPresent
PUBLIC	??_C@_0BL@JKLHPLED@?$CFs?0?5Can?8t?5Find?5EtcItem?0?5?$CFd?$AA@ ; `string'
PUBLIC	??_C@_0BI@MLIIKLFF@RisingGashaponWnd?3?3Init?$AA@ ; `string'
PUBLIC	?Init@RisingGashaponWnd@@IAEXXZ			; RisingGashaponWnd::Init
EXTRN	?GetItemName@ioRisingGashapon@@QAE?BVioHashString@@H@Z:PROC ; ioRisingGashapon::GetItemName
EXTRN	?FindGashaponPresentList@ioGashaponMgr@@QAEABV?$vector@VGashaponPresent@@V?$allocator@VGashaponPresent@@@std@@@std@@H@Z:PROC ; ioGashaponMgr::FindGashaponPresentList
EXTRN	?GetSingleton@ioGashaponMgr@@SAAAV1@XZ:PROC	; ioGashaponMgr::GetSingleton
;	COMDAT ??_C@_0BL@JKLHPLED@?$CFs?0?5Can?8t?5Find?5EtcItem?0?5?$CFd?$AA@
; File c:\program files (x86)\microsoft visual studio 10.0\vc\include\vector
CONST	SEGMENT
??_C@_0BL@JKLHPLED@?$CFs?0?5Can?8t?5Find?5EtcItem?0?5?$CFd?$AA@ DB '%s, C'
	DB	'an''t Find EtcItem, %d', 00H		; `string'
CONST	ENDS
;	COMDAT ??_C@_0BI@MLIIKLFF@RisingGashaponWnd?3?3Init?$AA@
CONST	SEGMENT
??_C@_0BI@MLIIKLFF@RisingGashaponWnd?3?3Init?$AA@ DB 'RisingGashaponWnd::'
	DB	'Init', 00H					; `string'
CONST	ENDS
;	COMDAT xdata$x
xdata$x	SEGMENT
__unwindtable$?Init@RisingGashaponWnd@@IAEXXZ DD 0ffffffffH
	DD	FLAT:__unwindfunclet$?Init@RisingGashaponWnd@@IAEXXZ$0
	DD	00H
	DD	FLAT:__unwindfunclet$?Init@RisingGashaponWnd@@IAEXXZ$1
__ehfuncinfo$?Init@RisingGashaponWnd@@IAEXXZ DD 019930522H
	DD	02H
	DD	FLAT:__unwindtable$?Init@RisingGashaponWnd@@IAEXXZ
	DD	2 DUP(00H)
	DD	2 DUP(00H)
	DD	00H
	DD	01H
; Function compile flags: /Ogsp
; File d:\lost saga for developer\youtube\tutorial\source\src\lsclient\gui\risinggashaponwnd.cpp
xdata$x	ENDS
;	COMDAT ?Init@RisingGashaponWnd@@IAEXXZ
_TEXT	SEGMENT
$T525452 = -68						; size = 16
_strName$ = -52						; size = 16
$T525453 = -36						; size = 4
$T525598 = -32						; size = 4
$T525518 = -32						; size = 4
_pItemWnd$514036 = -32					; size = 4
_pRising$ = -28						; size = 4
_gashaponSize$ = -24					; size = 4
tv557 = -20						; size = 4
$T525451 = -20						; size = 4
_i$514031 = -16						; size = 4
_i$514019 = -16						; size = 4
__$EHRec$ = -12						; size = 12
?Init@RisingGashaponWnd@@IAEXXZ PROC			; RisingGashaponWnd::Init, COMDAT
; _this$ = ecx

; 1102 : {

  00000	6a 38		 push	 56			; 00000038H
  00002	b8 00 00 00 00	 mov	 eax, __ehhandler$?Init@RisingGashaponWnd@@IAEXXZ
  00007	e8 00 00 00 00	 call	 __EH_prolog3
  0000c	8b f1		 mov	 esi, ecx

; 1103 : 	// 구매 횟수 초기화
; 1104 : 	m_iBuyCount = 0;
; 1105 : 	m_eMsgType = eMSGBOX_TYPE_NONE;
; 1106 : 
; 1107 : 	m_dwCurAniRollCnt  = 0;
; 1108 : 
; 1109 : 	m_vGashaponItemList = g_GashaponMgr.FindGashaponPresentList( m_iEtcItemType );

  0000e	ff b6 c8 01 00
	00		 push	 DWORD PTR [esi+456]
  00014	33 c0		 xor	 eax, eax
  00016	89 86 f0 01 00
	00		 mov	 DWORD PTR [esi+496], eax
  0001c	89 86 f4 01 00
	00		 mov	 DWORD PTR [esi+500], eax
  00022	89 86 c0 01 00
	00		 mov	 DWORD PTR [esi+448], eax
  00028	e8 00 00 00 00	 call	 ?GetSingleton@ioGashaponMgr@@SAAAV1@XZ ; ioGashaponMgr::GetSingleton
  0002d	8b c8		 mov	 ecx, eax
  0002f	e8 00 00 00 00	 call	 ?FindGashaponPresentList@ioGashaponMgr@@QAEABV?$vector@VGashaponPresent@@V?$allocator@VGashaponPresent@@@std@@@std@@H@Z ; ioGashaponMgr::FindGashaponPresentList
  00034	50		 push	 eax
  00035	8d 8e 18 02 00
	00		 lea	 ecx, DWORD PTR [esi+536]
  0003b	e8 00 00 00 00	 call	 ??4?$vector@VGashaponPresent@@V?$allocator@VGashaponPresent@@@std@@@std@@QAEAAV01@ABV01@@Z ; std::vector<GashaponPresent,std::allocator<GashaponPresent> >::operator=

; 1110 : 
; 1111 : 	m_vGettedIndexList.clear();

  00040	8d 8e f8 01 00
	00		 lea	 ecx, DWORD PTR [esi+504]
  00046	8b 41 04	 mov	 eax, DWORD PTR [ecx+4]
  00049	8b 11		 mov	 edx, DWORD PTR [ecx]
  0004b	50		 push	 eax
  0004c	52		 push	 edx
  0004d	8d 45 e0	 lea	 eax, DWORD PTR $T525518[ebp]
  00050	50		 push	 eax
  00051	e8 00 00 00 00	 call	 ?erase@?$vector@HV?$allocator@H@std@@@std@@QAE?AV?$_Vector_iterator@V?$_Vector_val@HV?$allocator@H@std@@@std@@@2@V?$_Vector_const_iterator@V?$_Vector_val@HV?$allocator@H@std@@@std@@@2@0@Z ; std::vector<int,std::allocator<int> >::erase

; 1112 : 	m_vUnGettedIndexList.clear();

  00056	8b 86 0c 02 00
	00		 mov	 eax, DWORD PTR [esi+524]
  0005c	8b 8e 08 02 00
	00		 mov	 ecx, DWORD PTR [esi+520]
  00062	50		 push	 eax
  00063	51		 push	 ecx
  00064	8d 45 e0	 lea	 eax, DWORD PTR $T525598[ebp]
  00067	50		 push	 eax
  00068	8d 8e 08 02 00
	00		 lea	 ecx, DWORD PTR [esi+520]
  0006e	e8 00 00 00 00	 call	 ?erase@?$vector@HV?$allocator@H@std@@@std@@QAE?AV?$_Vector_iterator@V?$_Vector_val@HV?$allocator@H@std@@@std@@@2@V?$_Vector_const_iterator@V?$_Vector_val@HV?$allocator@H@std@@@std@@@2@0@Z ; std::vector<int,std::allocator<int> >::erase

; 1113 : 	for(unsigned int i = 0; i < m_vGashaponItemList.size(); ++i)

  00073	8b 86 1c 02 00
	00		 mov	 eax, DWORD PTR [esi+540]
  00079	2b 86 18 02 00
	00		 sub	 eax, DWORD PTR [esi+536]
  0007f	6a 14		 push	 20			; 00000014H
  00081	99		 cdq
  00082	59		 pop	 ecx
  00083	f7 f9		 idiv	 ecx
  00085	83 65 f0 00	 and	 DWORD PTR _i$514019[ebp], 0
  00089	85 c0		 test	 eax, eax
  0008b	74 2f		 je	 SHORT $LN9@Init
$LL11@Init:

; 1114 : 	{
; 1115 : 		m_vUnGettedIndexList.push_back(i);

  0008d	8b 45 f0	 mov	 eax, DWORD PTR _i$514019[ebp]
  00090	89 45 ec	 mov	 DWORD PTR $T525451[ebp], eax
  00093	8d 45 ec	 lea	 eax, DWORD PTR $T525451[ebp]
  00096	50		 push	 eax
  00097	8d 8e 08 02 00
	00		 lea	 ecx, DWORD PTR [esi+520]
  0009d	e8 00 00 00 00	 call	 ?push_back@?$vector@HV?$allocator@H@std@@@std@@QAEXABH@Z ; std::vector<int,std::allocator<int> >::push_back
  000a2	8b 86 1c 02 00
	00		 mov	 eax, DWORD PTR [esi+540]
  000a8	2b 86 18 02 00
	00		 sub	 eax, DWORD PTR [esi+536]
  000ae	6a 14		 push	 20			; 00000014H
  000b0	99		 cdq
  000b1	59		 pop	 ecx
  000b2	f7 f9		 idiv	 ecx
  000b4	ff 45 f0	 inc	 DWORD PTR _i$514019[ebp]
  000b7	39 45 f0	 cmp	 DWORD PTR _i$514019[ebp], eax
  000ba	72 d1		 jb	 SHORT $LL11@Init
$LN9@Init:

; 1116 : 	}
; 1117 : 
; 1118 : 	ioRisingGashapon * pRising = static_cast<ioRisingGashapon *>(g_EtcItemMgr.FindEtcItem( m_iEtcItemType ));

  000bc	ff b6 c8 01 00
	00		 push	 DWORD PTR [esi+456]
  000c2	8b 0d 00 00 00
	00		 mov	 ecx, DWORD PTR ?ms_Singleton@?$Singleton@VioEtcItemManager@@@@1PAVioEtcItemManager@@A ; Singleton<ioEtcItemManager>::ms_Singleton
  000c8	e8 00 00 00 00	 call	 ?FindEtcItem@ioEtcItemManager@@QAEPAVioEtcItem@@K@Z ; ioEtcItemManager::FindEtcItem

; 1119 : 	if(!pRising)

  000cd	33 db		 xor	 ebx, ebx
  000cf	89 45 e4	 mov	 DWORD PTR _pRising$[ebp], eax
  000d2	3b c3		 cmp	 eax, ebx
  000d4	75 25		 jne	 SHORT $LN8@Init

; 1120 : 	{
; 1121 : 		LOG.PrintTimeAndLog(0, "%s, Can't Find EtcItem, %d", __FUNCTION__, m_iEtcItemType);

  000d6	ff b6 c8 01 00
	00		 push	 DWORD PTR [esi+456]
  000dc	68 00 00 00 00	 push	 OFFSET ??_C@_0BI@MLIIKLFF@RisingGashaponWnd?3?3Init?$AA@
  000e1	68 00 00 00 00	 push	 OFFSET ??_C@_0BL@JKLHPLED@?$CFs?0?5Can?8t?5Find?5EtcItem?0?5?$CFd?$AA@
  000e6	53		 push	 ebx
  000e7	ff 35 00 00 00
	00		 push	 DWORD PTR __imp_?LOG@@3VCLog@@A
  000ed	ff 15 00 00 00
	00		 call	 DWORD PTR __imp_?PrintTimeAndLog@CLog@@QAAXHPADZZ
  000f3	83 c4 14	 add	 esp, 20			; 00000014H

; 1122 : 		return;

  000f6	e9 e9 00 00 00	 jmp	 $LN12@Init
$LN8@Init:

; 1123 : 	}
; 1124 : 	
; 1125 : 	ShowChildWnd( ID_BUY );

  000fb	53		 push	 ebx
  000fc	6a 02		 push	 2
  000fe	8b ce		 mov	 ecx, esi
  00100	ff 15 00 00 00
	00		 call	 DWORD PTR __imp_?ShowChildWnd@ioWnd@@QAEXK_N@Z

; 1126 : 	HideChildWnd( ID_WAITING );

  00106	53		 push	 ebx
  00107	6a 03		 push	 3
  00109	8b ce		 mov	 ecx, esi
  0010b	ff 15 00 00 00
	00		 call	 DWORD PTR __imp_?HideChildWnd@ioWnd@@QAEXK_N@Z

; 1127 : 
; 1128 : 	int gashaponSize = m_vGashaponItemList.size();

  00111	8b 86 1c 02 00
	00		 mov	 eax, DWORD PTR [esi+540]
  00117	2b 86 18 02 00
	00		 sub	 eax, DWORD PTR [esi+536]
  0011d	6a 14		 push	 20			; 00000014H
  0011f	99		 cdq
  00120	59		 pop	 ecx
  00121	f7 f9		 idiv	 ecx

; 1129 : 	ioHashString strName;

  00123	8d 4d cc	 lea	 ecx, DWORD PTR _strName$[ebp]
  00126	89 45 e8	 mov	 DWORD PTR _gashaponSize$[ebp], eax
  00129	ff 15 00 00 00
	00		 call	 DWORD PTR __imp_??0ioHashString@@QAE@XZ
  0012f	89 5d fc	 mov	 DWORD PTR __$EHRec$[ebp+8], ebx

; 1130 : 	for (int i = 0; i < MAX_ITEM ; i++)

  00132	89 5d f0	 mov	 DWORD PTR _i$514031[ebp], ebx
  00135	89 5d ec	 mov	 DWORD PTR tv557[ebp], ebx
  00138	8b 1d 00 00 00
	00		 mov	 ebx, DWORD PTR __imp_??1ioHashString@@QAE@XZ
$LN7@Init:

; 1131 : 	{
; 1132 : 		int idNum = ID_ITEM_1 + i;
; 1133 : 		RisingGashaponItemInfoBtn *pItemWnd = static_cast< RisingGashaponItemInfoBtn*>( FindChildWnd( idNum ) );

  0013e	8b 45 f0	 mov	 eax, DWORD PTR _i$514031[ebp]
  00141	05 e9 03 00 00	 add	 eax, 1001		; 000003e9H
  00146	50		 push	 eax
  00147	8b ce		 mov	 ecx, esi
  00149	ff 15 00 00 00
	00		 call	 DWORD PTR __imp_?FindChildWnd@ioWnd@@QAEPAV1@K@Z
  0014f	8b c8		 mov	 ecx, eax
  00151	89 4d e0	 mov	 DWORD PTR _pItemWnd$514036[ebp], ecx

; 1134 : 		if( pItemWnd )

  00154	85 c9		 test	 ecx, ecx
  00156	74 59		 je	 SHORT $LN6@Init

; 1135 : 		{
; 1136 : 			pItemWnd->SetEmptyCard();

  00158	e8 00 00 00 00	 call	 ?SetEmptyCard@RisingGashaponItemInfoBtn@@QAEXXZ ; RisingGashaponItemInfoBtn::SetEmptyCard

; 1137 : 
; 1138 : 			if(COMPARE(i, 0, gashaponSize))

  0015d	8b 45 f0	 mov	 eax, DWORD PTR _i$514031[ebp]
  00160	85 c0		 test	 eax, eax
  00162	78 4d		 js	 SHORT $LN6@Init
  00164	3b 45 e8	 cmp	 eax, DWORD PTR _gashaponSize$[ebp]
  00167	7d 48		 jge	 SHORT $LN6@Init

; 1139 : 			{
; 1140 : 				if(pRising)
; 1141 : 					strName = pRising->GetItemName(i);

  00169	8b 4d e4	 mov	 ecx, DWORD PTR _pRising$[ebp]
  0016c	50		 push	 eax
  0016d	8d 45 bc	 lea	 eax, DWORD PTR $T525452[ebp]
  00170	50		 push	 eax
  00171	e8 00 00 00 00	 call	 ?GetItemName@ioRisingGashapon@@QAE?BVioHashString@@H@Z ; ioRisingGashapon::GetItemName
  00176	50		 push	 eax
  00177	8d 4d cc	 lea	 ecx, DWORD PTR _strName$[ebp]
  0017a	c6 45 fc 01	 mov	 BYTE PTR __$EHRec$[ebp+8], 1
  0017e	ff 15 00 00 00
	00		 call	 DWORD PTR __imp_??4ioHashString@@QAEAAV0@ABV0@@Z
  00184	8d 4d bc	 lea	 ecx, DWORD PTR $T525452[ebp]
  00187	c6 45 fc 00	 mov	 BYTE PTR __$EHRec$[ebp+8], 0
  0018b	ff d3		 call	 ebx

; 1142 : 				else
; 1143 : 					strName = STR(1);
; 1144 : 
; 1145 : 				pItemWnd->SetPresent(m_vGashaponItemList[i], strName);

  0018d	83 ec 10	 sub	 esp, 16			; 00000010H
  00190	8d 45 cc	 lea	 eax, DWORD PTR _strName$[ebp]
  00193	8b cc		 mov	 ecx, esp
  00195	89 65 dc	 mov	 DWORD PTR $T525453[ebp], esp
  00198	50		 push	 eax
  00199	ff 15 00 00 00
	00		 call	 DWORD PTR __imp_??0ioHashString@@QAE@ABV0@@Z
  0019f	8b 86 18 02 00
	00		 mov	 eax, DWORD PTR [esi+536]
  001a5	03 45 ec	 add	 eax, DWORD PTR tv557[ebp]
  001a8	8b 4d e0	 mov	 ecx, DWORD PTR _pItemWnd$514036[ebp]
  001ab	50		 push	 eax
  001ac	e8 00 00 00 00	 call	 ?SetPresent@RisingGashaponItemInfoBtn@@QAEXABVGashaponPresent@@VioHashString@@@Z ; RisingGashaponItemInfoBtn::SetPresent
$LN6@Init:

; 1130 : 	for (int i = 0; i < MAX_ITEM ; i++)

  001b1	ff 45 f0	 inc	 DWORD PTR _i$514031[ebp]
  001b4	83 45 ec 14	 add	 DWORD PTR tv557[ebp], 20 ; 00000014H
  001b8	81 7d ec c8 00
	00 00		 cmp	 DWORD PTR tv557[ebp], 200 ; 000000c8H
  001bf	0f 8c 79 ff ff
	ff		 jl	 $LN7@Init

; 1146 : 			}
; 1147 : 		}
; 1148 : 	}
; 1149 : 	
; 1150 : 	SetTitleBuyBtn( 0 );

  001c5	6a 00		 push	 0
  001c7	8b ce		 mov	 ecx, esi
  001c9	e8 00 00 00 00	 call	 ?SetTitleBuyBtn@RisingGashaponWnd@@IAEXH@Z ; RisingGashaponWnd::SetTitleBuyBtn

; 1151 : 	m_AniState.SetCurState( AT_NONE );

  001ce	6a 00		 push	 0
  001d0	8d 8e 8c 01 00
	00		 lea	 ecx, DWORD PTR [esi+396]
  001d6	e8 00 00 00 00	 call	 ?SetCurState@FSMStateMgr@@QAEXH@Z ; FSMStateMgr::SetCurState

; 1152 : }

  001db	83 4d fc ff	 or	 DWORD PTR __$EHRec$[ebp+8], -1
  001df	8d 4d cc	 lea	 ecx, DWORD PTR _strName$[ebp]
  001e2	ff d3		 call	 ebx
$LN12@Init:
  001e4	e8 00 00 00 00	 call	 __EH_epilog3
  001e9	c3		 ret	 0
_TEXT	ENDS
;	COMDAT text$x
text$x	SEGMENT
__unwindfunclet$?Init@RisingGashaponWnd@@IAEXXZ$0:
  00000	8d 4d cc	 lea	 ecx, DWORD PTR _strName$[ebp]
  00003	ff 25 00 00 00
	00		 jmp	 DWORD PTR __imp_??1ioHashString@@QAE@XZ
__unwindfunclet$?Init@RisingGashaponWnd@@IAEXXZ$1:
  00009	8d 4d bc	 lea	 ecx, DWORD PTR $T525452[ebp]
  0000c	ff 25 00 00 00
	00		 jmp	 DWORD PTR __imp_??1ioHashString@@QAE@XZ
__ehhandler$?Init@RisingGashaponWnd@@IAEXXZ:
  00012	8b 54 24 08	 mov	 edx, DWORD PTR [esp+8]
  00016	8d 42 0c	 lea	 eax, DWORD PTR [edx+12]
  00019	8b 4a b8	 mov	 ecx, DWORD PTR [edx-72]
  0001c	33 c8		 xor	 ecx, eax
  0001e	e8 00 00 00 00	 call	 @__security_check_cookie@4
  00023	b8 00 00 00 00	 mov	 eax, OFFSET __ehfuncinfo$?Init@RisingGashaponWnd@@IAEXXZ
  00028	e9 00 00 00 00	 jmp	 ___CxxFrameHandler3
text$x	ENDS
?Init@RisingGashaponWnd@@IAEXXZ ENDP			; RisingGashaponWnd::Init
PUBLIC	??_C@_02DJGKEECL@?4?4?$AA@			; `string'
PUBLIC	?ShowRisingGashaponWnd@RisingGashaponWnd@@QAEXHK@Z ; RisingGashaponWnd::ShowRisingGashaponWnd
;	COMDAT ??_C@_02DJGKEECL@?4?4?$AA@
; File d:\lost saga for developer\youtube\tutorial\source\src\lsclient\ioetcitem.h
CONST	SEGMENT
??_C@_02DJGKEECL@?4?4?$AA@ DB '..', 00H			; `string'
CONST	ENDS
;	COMDAT xdata$x
xdata$x	SEGMENT
__unwindtable$?ShowRisingGashaponWnd@RisingGashaponWnd@@QAEXHK@Z DD 0ffffffffH
	DD	FLAT:__unwindfunclet$?ShowRisingGashaponWnd@RisingGashaponWnd@@QAEXHK@Z$0
__ehfuncinfo$?ShowRisingGashaponWnd@RisingGashaponWnd@@QAEXHK@Z DD 019930522H
	DD	01H
	DD	FLAT:__unwindtable$?ShowRisingGashaponWnd@RisingGashaponWnd@@QAEXHK@Z
	DD	2 DUP(00H)
	DD	2 DUP(00H)
	DD	00H
	DD	01H
; Function compile flags: /Ogsp
; File d:\lost saga for developer\youtube\tutorial\source\src\lsclient\gui\risinggashaponwnd.cpp
xdata$x	ENDS
;	COMDAT ?ShowRisingGashaponWnd@RisingGashaponWnd@@QAEXHK@Z
_TEXT	SEGMENT
_vItemName$513578 = -28					; size = 16
__$EHRec$ = -12						; size = 12
_pEtcItem$ = 8						; size = 4
_iEtcItemType$ = 8					; size = 4
$T525648 = 12						; size = 4
_dwID$ = 12						; size = 4
?ShowRisingGashaponWnd@RisingGashaponWnd@@QAEXHK@Z PROC	; RisingGashaponWnd::ShowRisingGashaponWnd, COMDAT
; _this$ = ecx

; 633  : {

  00000	6a 10		 push	 16			; 00000010H
  00002	b8 00 00 00 00	 mov	 eax, __ehhandler$?ShowRisingGashaponWnd@RisingGashaponWnd@@QAEXHK@Z
  00007	e8 00 00 00 00	 call	 __EH_prolog3
  0000c	8b f1		 mov	 esi, ecx

; 634  : 	if( !COMPARE( iEtcItemType, ioEtcItem::EIT_ETC_RISING_GASHAPON_001, ioEtcItem::EIT_ETC_RISING_GASHAPON_MAX + 1 ) )

  0000e	8b 7d 08	 mov	 edi, DWORD PTR _iEtcItemType$[ebp]
  00011	8d 87 b7 25 d2
	ff		 lea	 eax, DWORD PTR [edi-3005001]
  00017	83 f8 63	 cmp	 eax, 99			; 00000063H
  0001a	0f 87 31 01 00
	00		 ja	 $LN10@ShowRising

; 635  : 		return;
; 636  : 
; 637  : 	ioRisingGashapon *pEtcItem = static_cast< ioRisingGashapon* > ( g_EtcItemMgr.FindEtcItem( iEtcItemType ) );

  00020	8b 0d 00 00 00
	00		 mov	 ecx, DWORD PTR ?ms_Singleton@?$Singleton@VioEtcItemManager@@@@1PAVioEtcItemManager@@A ; Singleton<ioEtcItemManager>::ms_Singleton
  00026	57		 push	 edi
  00027	e8 00 00 00 00	 call	 ?FindEtcItem@ioEtcItemManager@@QAEPAVioEtcItem@@K@Z ; ioEtcItemManager::FindEtcItem

; 638  : 	if( !pEtcItem )

  0002c	33 db		 xor	 ebx, ebx
  0002e	89 45 08	 mov	 DWORD PTR _pEtcItem$[ebp], eax
  00031	3b c3		 cmp	 eax, ebx
  00033	0f 84 18 01 00
	00		 je	 $LN10@ShowRising

; 639  : 		return;
; 640  : 
; 641  : 	// 캐쉬, 페소구매 
; 642  : 	if(dwID == NewShopBuyWnd::ID_BUY_CASH_BTN)

  00039	83 7d 0c 02	 cmp	 DWORD PTR _dwID$[ebp], 2
  0003d	75 0c		 jne	 SHORT $LN8@ShowRising

; 643  : 	{
; 644  : 		m_bBuyCash = true;

  0003f	c7 86 ec 01 00
	00 01 00 00 00	 mov	 DWORD PTR [esi+492], 1
  00049	eb 0c		 jmp	 SHORT $LN6@ShowRising
$LN8@ShowRising:

; 645  : 	}
; 646  : 	else if(dwID == NewShopBuyWnd::ID_BUY_PESO_BTN)

  0004b	83 7d 0c 01	 cmp	 DWORD PTR _dwID$[ebp], 1
  0004f	75 06		 jne	 SHORT $LN6@ShowRising

; 647  : 	{
; 648  : 		m_bBuyCash = false;

  00051	89 9e ec 01 00
	00		 mov	 DWORD PTR [esi+492], ebx
$LN6@ShowRising:

; 649  : 	}
; 650  : 
; 651  : 	InitAniState();

  00057	8b ce		 mov	 ecx, esi
  00059	e8 00 00 00 00	 call	 ?InitAniState@RisingGashaponWnd@@IAEXXZ ; RisingGashaponWnd::InitAniState

; 652  : 
; 653  : 	m_iEtcItemType   = iEtcItemType;

  0005e	89 be c8 01 00
	00		 mov	 DWORD PTR [esi+456], edi

; 654  : 
; 655  : 
; 656  : 
; 657  : 
; 658  : 
; 659  : 	if( !pEtcItem->GetTtitle().IsEmpty() )

  00064	8b 7d 08	 mov	 edi, DWORD PTR _pEtcItem$[ebp]
  00067	8d 8f 88 01 00
	00		 lea	 ecx, DWORD PTR [edi+392]
  0006d	ff 15 00 00 00
	00		 call	 DWORD PTR __imp_?IsEmpty@ioHashString@@QBE_NXZ
  00073	84 c0		 test	 al, al
  00075	75 79		 jne	 SHORT $LN5@ShowRising

; 660  : 	{
; 661  : 		StringVector vItemName;

  00077	89 5d e4	 mov	 DWORD PTR _vItemName$513578[ebp], ebx
  0007a	89 5d e8	 mov	 DWORD PTR _vItemName$513578[ebp+4], ebx
  0007d	89 5d ec	 mov	 DWORD PTR _vItemName$513578[ebp+8], ebx

; 662  : 		int width = 80;
; 663  : 		Help::SplitTextWidth( pEtcItem->GetTtitle().c_str(), vItemName, width, TS_NORMAL, FONT_SIZE_11 );

  00080	d9 05 00 00 00
	00		 fld	 DWORD PTR __real@3f0ccccd
  00086	51		 push	 ecx
  00087	d9 1c 24	 fstp	 DWORD PTR [esp]
  0008a	53		 push	 ebx
  0008b	6a 50		 push	 80			; 00000050H
  0008d	8d 45 e4	 lea	 eax, DWORD PTR _vItemName$513578[ebp]
  00090	50		 push	 eax
  00091	8d 8f 88 01 00
	00		 lea	 ecx, DWORD PTR [edi+392]
  00097	89 5d fc	 mov	 DWORD PTR __$EHRec$[ebp+8], ebx
  0009a	ff 15 00 00 00
	00		 call	 DWORD PTR __imp_?c_str@ioHashString@@QBEPBDXZ
  000a0	83 ec 1c	 sub	 esp, 28			; 0000001cH
  000a3	8b cc		 mov	 ecx, esp
  000a5	89 65 0c	 mov	 DWORD PTR $T525648[ebp], esp
  000a8	50		 push	 eax
  000a9	e8 00 00 00 00	 call	 ??0?$basic_string@DU?$char_traits@D@std@@V?$allocator@D@2@@std@@QAE@PBD@Z ; std::basic_string<char,std::char_traits<char>,std::allocator<char> >::basic_string<char,std::char_traits<char>,std::allocator<char> >
  000ae	e8 00 00 00 00	 call	 ?SplitTextWidth@Help@@YAXV?$basic_string@DU?$char_traits@D@std@@V?$allocator@D@2@@std@@AAV?$vector@V?$basic_string@DU?$char_traits@D@std@@V?$allocator@D@2@@std@@V?$allocator@V?$basic_string@DU?$char_traits@D@std@@V?$allocator@D@2@@std@@@2@@3@HW4TextStyle@@M@Z ; Help::SplitTextWidth

; 664  : 		if(!vItemName.empty())

  000b3	8b 4d e4	 mov	 ecx, DWORD PTR _vItemName$513578[ebp]
  000b6	83 c4 2c	 add	 esp, 44			; 0000002cH
  000b9	3b 4d e8	 cmp	 ecx, DWORD PTR _vItemName$513578[ebp+4]
  000bc	74 24		 je	 SHORT $LN4@ShowRising

; 665  : 		{
; 666  : 			vItemName[0] += "..";

  000be	68 00 00 00 00	 push	 OFFSET ??_C@_02DJGKEECL@?4?4?$AA@
  000c3	e8 00 00 00 00	 call	 ?append@?$basic_string@DU?$char_traits@D@std@@V?$allocator@D@2@@std@@QAEAAV12@PBD@Z ; std::basic_string<char,std::char_traits<char>,std::allocator<char> >::append

; 667  : 			SetTitleText( vItemName[0].c_str() );

  000c8	8b 45 e4	 mov	 eax, DWORD PTR _vItemName$513578[ebp]
  000cb	83 78 14 10	 cmp	 DWORD PTR [eax+20], 16	; 00000010H
  000cf	72 02		 jb	 SHORT $LN42@ShowRising
  000d1	8b 00		 mov	 eax, DWORD PTR [eax]
$LN42@ShowRising:
  000d3	53		 push	 ebx
  000d4	68 00 00 00 00	 push	 OFFSET ??_C@_00CNPNBAHC@?$AA@
  000d9	50		 push	 eax
  000da	8b ce		 mov	 ecx, esi
  000dc	ff 15 00 00 00
	00		 call	 DWORD PTR __imp_?SetTitleText@ioWnd@@QAEXPBD0H@Z
$LN4@ShowRising:

; 668  : 		}
; 669  : 	}

  000e2	83 4d fc ff	 or	 DWORD PTR __$EHRec$[ebp+8], -1
  000e6	8d 4d e4	 lea	 ecx, DWORD PTR _vItemName$513578[ebp]
  000e9	e8 00 00 00 00	 call	 ?_Tidy@?$vector@V?$basic_string@DU?$char_traits@D@std@@V?$allocator@D@2@@std@@V?$allocator@V?$basic_string@DU?$char_traits@D@std@@V?$allocator@D@2@@std@@@2@@std@@IAEXXZ ; std::vector<std::basic_string<char,std::char_traits<char>,std::allocator<char> >,std::allocator<std::basic_string<char,std::char_traits<char>,std::allocator<char> > > >::_Tidy

; 670  : 	else

  000ee	eb 10		 jmp	 SHORT $LN3@ShowRising
$LN5@ShowRising:

; 671  : 	{
; 672  : 		SetTitleText( "" );

  000f0	53		 push	 ebx
  000f1	b8 00 00 00 00	 mov	 eax, OFFSET ??_C@_00CNPNBAHC@?$AA@
  000f6	50		 push	 eax
  000f7	50		 push	 eax
  000f8	8b ce		 mov	 ecx, esi
  000fa	ff 15 00 00 00
	00		 call	 DWORD PTR __imp_?SetTitleText@ioWnd@@QAEXPBD0H@Z
$LN3@ShowRising:

; 673  : 	}
; 674  : 
; 675  : 
; 676  : 	if( !pEtcItem->GetMent1().IsEmpty() )

  00100	8b 5d 08	 mov	 ebx, DWORD PTR _pEtcItem$[ebp]
  00103	81 c3 98 01 00
	00		 add	 ebx, 408		; 00000198H
  00109	8b cb		 mov	 ecx, ebx
  0010b	ff 15 00 00 00
	00		 call	 DWORD PTR __imp_?IsEmpty@ioHashString@@QBE_NXZ
  00111	8b 3d 00 00 00
	00		 mov	 edi, DWORD PTR __imp_??4ioHashString@@QAEAAV0@ABV0@@Z
  00117	84 c0		 test	 al, al
  00119	75 09		 jne	 SHORT $LN2@ShowRising

; 677  : 		m_szMent1 = pEtcItem->GetMent1();

  0011b	53		 push	 ebx
  0011c	8d 8e cc 01 00
	00		 lea	 ecx, DWORD PTR [esi+460]
  00122	ff d7		 call	 edi
$LN2@ShowRising:

; 678  : 
; 679  : 	if( !pEtcItem->GetMent2().IsEmpty() )

  00124	8b 5d 08	 mov	 ebx, DWORD PTR _pEtcItem$[ebp]
  00127	81 c3 a8 01 00
	00		 add	 ebx, 424		; 000001a8H
  0012d	8b cb		 mov	 ecx, ebx
  0012f	ff 15 00 00 00
	00		 call	 DWORD PTR __imp_?IsEmpty@ioHashString@@QBE_NXZ
  00135	84 c0		 test	 al, al
  00137	75 09		 jne	 SHORT $LN1@ShowRising

; 680  : 		m_szMent2 = pEtcItem->GetMent2();	

  00139	53		 push	 ebx
  0013a	8d 8e dc 01 00
	00		 lea	 ecx, DWORD PTR [esi+476]
  00140	ff d7		 call	 edi
$LN1@ShowRising:

; 681  : 
; 682  : 	Init();

  00142	8b ce		 mov	 ecx, esi
  00144	e8 00 00 00 00	 call	 ?Init@RisingGashaponWnd@@IAEXXZ ; RisingGashaponWnd::Init

; 683  : 	ShowWnd();

  00149	8b ce		 mov	 ecx, esi
  0014b	ff 15 00 00 00
	00		 call	 DWORD PTR __imp_?ShowWnd@ioWnd@@QAEXXZ
$LN10@ShowRising:

; 684  : }

  00151	e8 00 00 00 00	 call	 __EH_epilog3
  00156	c2 08 00	 ret	 8
_TEXT	ENDS
;	COMDAT text$x
text$x	SEGMENT
__unwindfunclet$?ShowRisingGashaponWnd@RisingGashaponWnd@@QAEXHK@Z$0:
  00000	8d 4d e4	 lea	 ecx, DWORD PTR _vItemName$513578[ebp]
  00003	e9 00 00 00 00	 jmp	 ??1?$vector@V?$basic_string@DU?$char_traits@D@std@@V?$allocator@D@2@@std@@V?$allocator@V?$basic_string@DU?$char_traits@D@std@@V?$allocator@D@2@@std@@@2@@std@@QAE@XZ ; std::vector<std::basic_string<char,std::char_traits<char>,std::allocator<char> >,std::allocator<std::basic_string<char,std::char_traits<char>,std::allocator<char> > > >::~vector<std::basic_string<char,std::char_traits<char>,std::allocator<char> >,std::allocator<std::basic_string<char,std::char_traits<char>,std::allocator<char> > > >
__ehhandler$?ShowRisingGashaponWnd@RisingGashaponWnd@@QAEXHK@Z:
  00008	8b 54 24 08	 mov	 edx, DWORD PTR [esp+8]
  0000c	8d 42 0c	 lea	 eax, DWORD PTR [edx+12]
  0000f	8b 4a e0	 mov	 ecx, DWORD PTR [edx-32]
  00012	33 c8		 xor	 ecx, eax
  00014	e8 00 00 00 00	 call	 @__security_check_cookie@4
  00019	b8 00 00 00 00	 mov	 eax, OFFSET __ehfuncinfo$?ShowRisingGashaponWnd@RisingGashaponWnd@@QAEXHK@Z
  0001e	e9 00 00 00 00	 jmp	 ___CxxFrameHandler3
text$x	ENDS
?ShowRisingGashaponWnd@RisingGashaponWnd@@QAEXHK@Z ENDP	; RisingGashaponWnd::ShowRisingGashaponWnd
EXTRN	__imp_?HideWnd@ioWnd@@QAEXXZ:PROC
EXTRN	__imp_?GetID@ioWnd@@QBEKXZ:PROC
; Function compile flags: /Ogsp
;	COMDAT ?iwm_command@RisingGashaponWnd@@UAEXPAVioWnd@@HK@Z
_TEXT	SEGMENT
_pWnd$ = 8						; size = 4
_cmd$ = 12						; size = 4
_param$ = 16						; size = 4
?iwm_command@RisingGashaponWnd@@UAEXPAVioWnd@@HK@Z PROC	; RisingGashaponWnd::iwm_command, COMDAT
; _this$ = ecx

; 700  : {

  00000	55		 push	 ebp
  00001	8b ec		 mov	 ebp, esp
  00003	56		 push	 esi
  00004	8b f1		 mov	 esi, ecx

; 701  : 	DWORD dwID = pWnd->GetID();

  00006	8b 4d 08	 mov	 ecx, DWORD PTR _pWnd$[ebp]
  00009	ff 15 00 00 00
	00		 call	 DWORD PTR __imp_?GetID@ioWnd@@QBEKXZ

; 702  : 	switch( dwID )

  0000f	48		 dec	 eax
  00010	74 62		 je	 SHORT $LN13@iwm_comman
  00012	48		 dec	 eax
  00013	74 50		 je	 SHORT $LN11@iwm_comman
  00015	48		 dec	 eax
  00016	48		 dec	 eax
  00017	74 3d		 je	 SHORT $LN9@iwm_comman
  00019	2d 0c 27 00 00	 sub	 eax, 9996		; 0000270cH
  0001e	75 61		 jne	 SHORT $LN12@iwm_comman

; 722  : 	case ID_ITEM_1:
; 723  : 	case ID_ITEM_2:
; 724  : 	case ID_ITEM_3:
; 725  : 	case ID_ITEM_4:
; 726  : 	case ID_ITEM_5:
; 727  : 	case ID_ITEM_6:
; 728  : 	case ID_ITEM_7:
; 729  : 	case ID_ITEM_8:
; 730  : 	case ID_ITEM_9:
; 731  : 	case ID_ITEM_10:
; 732  : 		break;
; 733  : 	case MESSAGE_BOX:
; 734  : 		{
; 735  : 			if( cmd == IOBN_BTNUP )

  00020	83 7d 0c 11	 cmp	 DWORD PTR _cmd$[ebp], 17 ; 00000011H
  00024	75 5b		 jne	 SHORT $LN12@iwm_comman

; 736  : 			{
; 737  : 				if( param == IDYES )

  00026	83 7d 10 06	 cmp	 DWORD PTR _param$[ebp], 6
  0002a	75 55		 jne	 SHORT $LN12@iwm_comman

; 738  : 				{
; 739  : 					if(m_eMsgType == eMSGBOX_TYPE_INITAGAIN)

  0002c	8b 86 f4 01 00
	00		 mov	 eax, DWORD PTR [esi+500]
  00032	83 f8 01	 cmp	 eax, 1
  00035	75 10		 jne	 SHORT $LN3@iwm_comman

; 740  : 					{
; 741  : 						SendInit();

  00037	8b ce		 mov	 ecx, esi
  00039	e8 00 00 00 00	 call	 ?SendInit@RisingGashaponWnd@@IAEXXZ ; RisingGashaponWnd::SendInit

; 742  : 						Init();

  0003e	8b ce		 mov	 ecx, esi
  00040	e8 00 00 00 00	 call	 ?Init@RisingGashaponWnd@@IAEXXZ ; RisingGashaponWnd::Init
  00045	eb 3a		 jmp	 SHORT $LN12@iwm_comman
$LN3@iwm_comman:

; 743  : 					}
; 744  : 					else if(m_eMsgType == eMSGBOX_TYPE_EXIT)

  00047	83 f8 02	 cmp	 eax, 2
  0004a	75 35		 jne	 SHORT $LN12@iwm_comman

; 745  : 					{
; 746  : 						HideWnd();

  0004c	8b ce		 mov	 ecx, esi
  0004e	ff 15 00 00 00
	00		 call	 DWORD PTR __imp_?HideWnd@ioWnd@@QAEXXZ

; 747  : 					}
; 748  : 				}
; 749  : 			}
; 750  : 		}
; 751  : 		break;

  00054	eb 2b		 jmp	 SHORT $LN12@iwm_comman
$LN9@iwm_comman:

; 716  : 	case ID_GOLD_CHARGE:
; 717  : 		if( cmd == IOBN_BTNUP )

  00056	83 7d 0c 11	 cmp	 DWORD PTR _cmd$[ebp], 17 ; 00000011H
  0005a	75 25		 jne	 SHORT $LN12@iwm_comman

; 718  : 		{
; 719  : 			OnCashCharge();

  0005c	8b ce		 mov	 ecx, esi
  0005e	e8 00 00 00 00	 call	 ?OnCashCharge@RisingGashaponWnd@@IAEXXZ ; RisingGashaponWnd::OnCashCharge

; 720  : 		}
; 721  : 		break;			

  00063	eb 1c		 jmp	 SHORT $LN12@iwm_comman
$LN11@iwm_comman:

; 708  : 		}
; 709  : 		break;
; 710  : 	case ID_BUY:
; 711  : 		if( cmd == IOBN_BTNUP )

  00065	83 7d 0c 11	 cmp	 DWORD PTR _cmd$[ebp], 17 ; 00000011H
  00069	75 16		 jne	 SHORT $LN12@iwm_comman

; 712  : 		{
; 713  : 			CheckBuy();

  0006b	8b ce		 mov	 ecx, esi
  0006d	e8 00 00 00 00	 call	 ?CheckBuy@RisingGashaponWnd@@IAEXXZ ; RisingGashaponWnd::CheckBuy

; 714  : 		}
; 715  : 		break;

  00072	eb 0d		 jmp	 SHORT $LN12@iwm_comman
$LN13@iwm_comman:

; 703  : 	{
; 704  : 	case ID_EXIT:
; 705  : 		if( cmd == IOBN_BTNUP )

  00074	83 7d 0c 11	 cmp	 DWORD PTR _cmd$[ebp], 17 ; 00000011H
  00078	75 07		 jne	 SHORT $LN12@iwm_comman

; 706  : 		{
; 707  : 			ShowExitMsg();

  0007a	8b ce		 mov	 ecx, esi
  0007c	e8 00 00 00 00	 call	 ?ShowExitMsg@RisingGashaponWnd@@IAEXXZ ; RisingGashaponWnd::ShowExitMsg
$LN12@iwm_comman:
  00081	5e		 pop	 esi

; 752  : 	}
; 753  : }

  00082	5d		 pop	 ebp
  00083	c2 0c 00	 ret	 12			; 0000000cH
?iwm_command@RisingGashaponWnd@@UAEXPAVioWnd@@HK@Z ENDP	; RisingGashaponWnd::iwm_command
_TEXT	ENDS
END
