; Listing generated by Microsoft (R) Optimizing Compiler Version 16.00.30319.01 

	TITLE	D:\Lost Saga For Developer\Youtube\Tutorial\Source\src\LSClient\GUI\RouletteWnd.cpp
	.686P
	.XMM
	include listing.inc
	.model	flat

INCLUDELIB MSVCRT
INCLUDELIB OLDNAMES

PUBLIC	?m_bPosToDefualt@RouletteWnd@@1_NA		; RouletteWnd::m_bPosToDefualt
_BSS	SEGMENT
?m_bPosToDefualt@RouletteWnd@@1_NA DB 01H DUP (?)	; RouletteWnd::m_bPosToDefualt
_BSS	ENDS
PUBLIC	??0UIEffectAniInfo@RouletteWnd@@QAE@PAVioUIRenderImage@@HHHHM@Z ; RouletteWnd::UIEffectAniInfo::UIEffectAniInfo
EXTRN	__imp_?GetLoopSec@ioFrameTimer@@QBEKXZ:PROC
EXTRN	__imp_?GetSingleton@ioFrameTimer@@SAAAV1@XZ:PROC
EXTRN	__fltused:DWORD
; Function compile flags: /Ogsp
; File d:\lost saga for developer\youtube\tutorial\source\src\lsclient\gui\roulettewnd.h
;	COMDAT ??0UIEffectAniInfo@RouletteWnd@@QAE@PAVioUIRenderImage@@HHHHM@Z
_TEXT	SEGMENT
_pImage$ = 8						; size = 4
_x$ = 12						; size = 4
_y$ = 16						; size = 4
_iNum$ = 20						; size = 4
_iAlpha$ = 24						; size = 4
_fScale$ = 28						; size = 4
??0UIEffectAniInfo@RouletteWnd@@QAE@PAVioUIRenderImage@@HHHHM@Z PROC ; RouletteWnd::UIEffectAniInfo::UIEffectAniInfo, COMDAT
; _this$ = ecx

; 33   : 		UIEffectAniInfo( ioUIRenderImage *pImage, int x, int y, int iNum = -1, int iAlpha = 0, float fScale = 2.0f )

  00000	55		 push	 ebp
  00001	8b ec		 mov	 ebp, esp

; 34   : 		{
; 35   : 			m_State = AS_PLAY;
; 36   : 			m_pImage = pImage;

  00003	8b 45 08	 mov	 eax, DWORD PTR _pImage$[ebp]

; 37   : 			m_iXPos  = x;
; 38   : 			m_iYPos  = y;
; 39   : 			m_iNum   = iNum;
; 40   : 			m_iAlpha = iAlpha;
; 41   : 			m_fScale = fScale;

  00006	f3 0f 10 45 1c	 movss	 xmm0, DWORD PTR _fScale$[ebp]
  0000b	56		 push	 esi
  0000c	8b f1		 mov	 esi, ecx
  0000e	83 26 00	 and	 DWORD PTR [esi], 0
  00011	89 46 1c	 mov	 DWORD PTR [esi+28], eax
  00014	8b 45 0c	 mov	 eax, DWORD PTR _x$[ebp]
  00017	89 46 04	 mov	 DWORD PTR [esi+4], eax
  0001a	8b 45 10	 mov	 eax, DWORD PTR _y$[ebp]
  0001d	89 46 08	 mov	 DWORD PTR [esi+8], eax
  00020	8b 45 14	 mov	 eax, DWORD PTR _iNum$[ebp]
  00023	89 46 14	 mov	 DWORD PTR [esi+20], eax
  00026	8b 45 18	 mov	 eax, DWORD PTR _iAlpha$[ebp]
  00029	89 46 0c	 mov	 DWORD PTR [esi+12], eax
  0002c	f3 0f 11 46 10	 movss	 DWORD PTR [esi+16], xmm0

; 42   : 			m_dwEndTime = FRAMEGETTIME() + 500;

  00031	ff 15 00 00 00
	00		 call	 DWORD PTR __imp_?GetSingleton@ioFrameTimer@@SAAAV1@XZ
  00037	8b c8		 mov	 ecx, eax
  00039	ff 15 00 00 00
	00		 call	 DWORD PTR __imp_?GetLoopSec@ioFrameTimer@@QBEKXZ
  0003f	05 f4 01 00 00	 add	 eax, 500		; 000001f4H
  00044	89 46 18	 mov	 DWORD PTR [esi+24], eax

; 43   : 		}

  00047	8b c6		 mov	 eax, esi
  00049	5e		 pop	 esi
  0004a	5d		 pop	 ebp
  0004b	c2 18 00	 ret	 24			; 00000018H
??0UIEffectAniInfo@RouletteWnd@@QAE@PAVioUIRenderImage@@HHHHM@Z ENDP ; RouletteWnd::UIEffectAniInfo::UIEffectAniInfo
_TEXT	ENDS
PUBLIC	?GetImage@UIEffectAniInfo@RouletteWnd@@QAEPAVioUIRenderImage@@XZ ; RouletteWnd::UIEffectAniInfo::GetImage
; Function compile flags: /Ogsp
;	COMDAT ?GetImage@UIEffectAniInfo@RouletteWnd@@QAEPAVioUIRenderImage@@XZ
_TEXT	SEGMENT
?GetImage@UIEffectAniInfo@RouletteWnd@@QAEPAVioUIRenderImage@@XZ PROC ; RouletteWnd::UIEffectAniInfo::GetImage, COMDAT
; _this$ = ecx

; 44   : 		ioUIRenderImage *GetImage() { return m_pImage; }

  00000	8b 41 1c	 mov	 eax, DWORD PTR [ecx+28]
  00003	c3		 ret	 0
?GetImage@UIEffectAniInfo@RouletteWnd@@QAEPAVioUIRenderImage@@XZ ENDP ; RouletteWnd::UIEffectAniInfo::GetImage
_TEXT	ENDS
PUBLIC	?return1@@YAIXZ					; return1
; Function compile flags: /Ogsp
; File d:\lost saga for developer\youtube\tutorial\source\src\lsclient\stdafx.h
;	COMDAT ?return1@@YAIXZ
_TEXT	SEGMENT
?return1@@YAIXZ PROC					; return1, COMDAT

; 17   : 	__forceinline unsigned int return1() { __asm mov eax, 1 };

  00000	b8 01 00 00 00	 mov	 eax, 1
  00005	c3		 ret	 0
?return1@@YAIXZ ENDP					; return1
_TEXT	ENDS
PUBLIC	?return5@@YAIXZ					; return5
; Function compile flags: /Ogsp
;	COMDAT ?return5@@YAIXZ
_TEXT	SEGMENT
?return5@@YAIXZ PROC					; return5, COMDAT

; 18   : 	__forceinline unsigned int return5() { __asm mov eax, 5 };

  00000	b8 05 00 00 00	 mov	 eax, 5
  00005	c3		 ret	 0
?return5@@YAIXZ ENDP					; return5
_TEXT	ENDS
PUBLIC	?return10@@YAIXZ				; return10
; Function compile flags: /Ogsp
;	COMDAT ?return10@@YAIXZ
_TEXT	SEGMENT
?return10@@YAIXZ PROC					; return10, COMDAT

; 21   : 	__forceinline unsigned int return10() { __asm mov eax, 10 };

  00000	b8 0a 00 00 00	 mov	 eax, 10			; 0000000aH
  00005	c3		 ret	 0
?return10@@YAIXZ ENDP					; return10
_TEXT	ENDS
PUBLIC	?return100@@YAIXZ				; return100
; Function compile flags: /Ogsp
;	COMDAT ?return100@@YAIXZ
_TEXT	SEGMENT
?return100@@YAIXZ PROC					; return100, COMDAT

; 25   : 	__forceinline unsigned int return100() { __asm mov eax, 100 };

  00000	b8 64 00 00 00	 mov	 eax, 100		; 00000064H
  00005	c3		 ret	 0
?return100@@YAIXZ ENDP					; return100
_TEXT	ENDS
PUBLIC	?return500@@YAIXZ				; return500
; Function compile flags: /Ogsp
;	COMDAT ?return500@@YAIXZ
_TEXT	SEGMENT
?return500@@YAIXZ PROC					; return500, COMDAT

; 28   : 	__forceinline unsigned int return500() { __asm mov eax, 500 };

  00000	b8 f4 01 00 00	 mov	 eax, 500		; 000001f4H
  00005	c3		 ret	 0
?return500@@YAIXZ ENDP					; return500
_TEXT	ENDS
PUBLIC	??_7bad_alloc@std@@6B@				; std::bad_alloc::`vftable'
PUBLIC	??0bad_alloc@std@@QAE@PBD@Z			; std::bad_alloc::bad_alloc
PUBLIC	??_R4bad_alloc@std@@6B@				; std::bad_alloc::`RTTI Complete Object Locator'
PUBLIC	??_R0?AVbad_alloc@std@@@8			; std::bad_alloc `RTTI Type Descriptor'
PUBLIC	??_R3bad_alloc@std@@8				; std::bad_alloc::`RTTI Class Hierarchy Descriptor'
PUBLIC	??_R2bad_alloc@std@@8				; std::bad_alloc::`RTTI Base Class Array'
PUBLIC	??_R1A@?0A@EA@bad_alloc@std@@8			; std::bad_alloc::`RTTI Base Class Descriptor at (0,-1,0,64)'
PUBLIC	??_R1A@?0A@EA@exception@std@@8			; std::exception::`RTTI Base Class Descriptor at (0,-1,0,64)'
PUBLIC	??_R0?AVexception@std@@@8			; std::exception `RTTI Type Descriptor'
PUBLIC	??_R3exception@std@@8				; std::exception::`RTTI Class Hierarchy Descriptor'
PUBLIC	??_R2exception@std@@8				; std::exception::`RTTI Base Class Array'
EXTRN	__imp_??0exception@std@@QAE@ABQBD@Z:PROC
EXTRN	??_7type_info@@6B@:QWORD			; type_info::`vftable'
EXTRN	??_Ebad_alloc@std@@UAEPAXI@Z:PROC		; std::bad_alloc::`vector deleting destructor'
EXTRN	?what@exception@std@@UBEPBDXZ:PROC		; std::exception::what
;	COMDAT ??_R2exception@std@@8
; File c:\program files (x86)\microsoft visual studio 10.0\vc\include\exception
rdata$r	SEGMENT
??_R2exception@std@@8 DD FLAT:??_R1A@?0A@EA@exception@std@@8 ; std::exception::`RTTI Base Class Array'
rdata$r	ENDS
;	COMDAT ??_R3exception@std@@8
rdata$r	SEGMENT
??_R3exception@std@@8 DD 00H				; std::exception::`RTTI Class Hierarchy Descriptor'
	DD	00H
	DD	01H
	DD	FLAT:??_R2exception@std@@8
rdata$r	ENDS
;	COMDAT ??_R0?AVexception@std@@@8
_DATA	SEGMENT
??_R0?AVexception@std@@@8 DD FLAT:??_7type_info@@6B@	; std::exception `RTTI Type Descriptor'
	DD	00H
	DB	'.?AVexception@std@@', 00H
_DATA	ENDS
;	COMDAT ??_R1A@?0A@EA@exception@std@@8
rdata$r	SEGMENT
??_R1A@?0A@EA@exception@std@@8 DD FLAT:??_R0?AVexception@std@@@8 ; std::exception::`RTTI Base Class Descriptor at (0,-1,0,64)'
	DD	00H
	DD	00H
	DD	0ffffffffH
	DD	00H
	DD	040H
	DD	FLAT:??_R3exception@std@@8
rdata$r	ENDS
;	COMDAT ??_R1A@?0A@EA@bad_alloc@std@@8
rdata$r	SEGMENT
??_R1A@?0A@EA@bad_alloc@std@@8 DD FLAT:??_R0?AVbad_alloc@std@@@8 ; std::bad_alloc::`RTTI Base Class Descriptor at (0,-1,0,64)'
	DD	01H
	DD	00H
	DD	0ffffffffH
	DD	00H
	DD	040H
	DD	FLAT:??_R3bad_alloc@std@@8
rdata$r	ENDS
;	COMDAT ??_R2bad_alloc@std@@8
rdata$r	SEGMENT
??_R2bad_alloc@std@@8 DD FLAT:??_R1A@?0A@EA@bad_alloc@std@@8 ; std::bad_alloc::`RTTI Base Class Array'
	DD	FLAT:??_R1A@?0A@EA@exception@std@@8
rdata$r	ENDS
;	COMDAT ??_R3bad_alloc@std@@8
rdata$r	SEGMENT
??_R3bad_alloc@std@@8 DD 00H				; std::bad_alloc::`RTTI Class Hierarchy Descriptor'
	DD	00H
	DD	02H
	DD	FLAT:??_R2bad_alloc@std@@8
rdata$r	ENDS
;	COMDAT ??_R0?AVbad_alloc@std@@@8
_DATA	SEGMENT
??_R0?AVbad_alloc@std@@@8 DD FLAT:??_7type_info@@6B@	; std::bad_alloc `RTTI Type Descriptor'
	DD	00H
	DB	'.?AVbad_alloc@std@@', 00H
_DATA	ENDS
;	COMDAT ??_R4bad_alloc@std@@6B@
rdata$r	SEGMENT
??_R4bad_alloc@std@@6B@ DD 00H				; std::bad_alloc::`RTTI Complete Object Locator'
	DD	00H
	DD	00H
	DD	FLAT:??_R0?AVbad_alloc@std@@@8
	DD	FLAT:??_R3bad_alloc@std@@8
rdata$r	ENDS
;	COMDAT ??_7bad_alloc@std@@6B@
CONST	SEGMENT
??_7bad_alloc@std@@6B@ DD FLAT:??_R4bad_alloc@std@@6B@	; std::bad_alloc::`vftable'
	DD	FLAT:??_Ebad_alloc@std@@UAEPAXI@Z
	DD	FLAT:?what@exception@std@@UBEPBDXZ
; Function compile flags: /Ogsp
CONST	ENDS
;	COMDAT ??0bad_alloc@std@@QAE@PBD@Z
_TEXT	SEGMENT
__Message$ = 8						; size = 4
??0bad_alloc@std@@QAE@PBD@Z PROC			; std::bad_alloc::bad_alloc, COMDAT
; _this$ = ecx

; 345  : 		{	// construct from message string

  00000	55		 push	 ebp
  00001	8b ec		 mov	 ebp, esp
  00003	56		 push	 esi
  00004	8d 45 08	 lea	 eax, DWORD PTR __Message$[ebp]
  00007	50		 push	 eax
  00008	8b f1		 mov	 esi, ecx
  0000a	ff 15 00 00 00
	00		 call	 DWORD PTR __imp_??0exception@std@@QAE@ABQBD@Z
  00010	c7 06 00 00 00
	00		 mov	 DWORD PTR [esi], OFFSET ??_7bad_alloc@std@@6B@

; 346  : 		}

  00016	8b c6		 mov	 eax, esi
  00018	5e		 pop	 esi
  00019	5d		 pop	 ebp
  0001a	c2 04 00	 ret	 4
??0bad_alloc@std@@QAE@PBD@Z ENDP			; std::bad_alloc::bad_alloc
_TEXT	ENDS
PUBLIC	??1bad_alloc@std@@UAE@XZ			; std::bad_alloc::~bad_alloc
EXTRN	__imp_??1exception@std@@UAE@XZ:PROC
; Function compile flags: /Ogsp
;	COMDAT ??1bad_alloc@std@@UAE@XZ
_TEXT	SEGMENT
??1bad_alloc@std@@UAE@XZ PROC				; std::bad_alloc::~bad_alloc, COMDAT
; _this$ = ecx

; 354  : 		{	// destroy the object

  00000	c7 01 00 00 00
	00		 mov	 DWORD PTR [ecx], OFFSET ??_7bad_alloc@std@@6B@

; 355  : 		}

  00006	ff 25 00 00 00
	00		 jmp	 DWORD PTR __imp_??1exception@std@@UAE@XZ
??1bad_alloc@std@@UAE@XZ ENDP				; std::bad_alloc::~bad_alloc
_TEXT	ENDS
EXTRN	??3@YAXPAX@Z:PROC				; operator delete
; Function compile flags: /Ogsp
;	COMDAT ??_Gbad_alloc@std@@UAEPAXI@Z
_TEXT	SEGMENT
___flags$ = 8						; size = 4
??_Gbad_alloc@std@@UAEPAXI@Z PROC			; std::bad_alloc::`scalar deleting destructor', COMDAT
; _this$ = ecx
  00000	55		 push	 ebp
  00001	8b ec		 mov	 ebp, esp
  00003	56		 push	 esi
  00004	8b f1		 mov	 esi, ecx
  00006	c7 06 00 00 00
	00		 mov	 DWORD PTR [esi], OFFSET ??_7bad_alloc@std@@6B@
  0000c	ff 15 00 00 00
	00		 call	 DWORD PTR __imp_??1exception@std@@UAE@XZ
  00012	f6 45 08 01	 test	 BYTE PTR ___flags$[ebp], 1
  00016	74 07		 je	 SHORT $LN1@scalar
  00018	56		 push	 esi
  00019	e8 00 00 00 00	 call	 ??3@YAXPAX@Z		; operator delete
  0001e	59		 pop	 ecx
$LN1@scalar:
  0001f	8b c6		 mov	 eax, esi
  00021	5e		 pop	 esi
  00022	5d		 pop	 ebp
  00023	c2 04 00	 ret	 4
??_Gbad_alloc@std@@UAEPAXI@Z ENDP			; std::bad_alloc::`scalar deleting destructor'
_TEXT	ENDS
PUBLIC	__real@4082c00000000000
PUBLIC	__real@4f800000
PUBLIC	__real@4089000000000000
PUBLIC	?SetPositionToDefault@RouletteWnd@@UAEXHH_N0@Z	; RouletteWnd::SetPositionToDefault
EXTRN	__imp_?SetWndPos@ioWnd@@QAEXHH@Z:PROC
EXTRN	__imp_?GetYPos@ioWnd@@QBEHXZ:PROC
EXTRN	__imp_?GetXPos@ioWnd@@QBEHXZ:PROC
EXTRN	__imp_?SetPositionToDefault@ioMovingWnd@@UAEXHH_N0@Z:PROC
EXTRN	?Height@Setting@@SAHXZ:PROC			; Setting::Height
EXTRN	?Width@Setting@@SAHXZ:PROC			; Setting::Width
;	COMDAT __real@4082c00000000000
; File d:\lost saga for developer\youtube\tutorial\source\src\lsclient\stdafx.h
CONST	SEGMENT
__real@4082c00000000000 DQ 04082c00000000000r	; 600
CONST	ENDS
;	COMDAT __real@4f800000
CONST	SEGMENT
__real@4f800000 DD 04f800000r			; 4.29497e+009
CONST	ENDS
;	COMDAT __real@4089000000000000
CONST	SEGMENT
__real@4089000000000000 DQ 04089000000000000r	; 800
; Function compile flags: /Ogsp
; File d:\lost saga for developer\youtube\tutorial\source\src\lsclient\gui\roulettewnd.cpp
CONST	ENDS
;	COMDAT ?SetPositionToDefault@RouletteWnd@@UAEXHH_N0@Z
_TEXT	SEGMENT
tv253 = -8						; size = 4
_fXGap$ = -8						; size = 4
tv257 = -4						; size = 4
tv247 = -4						; size = 4
tv241 = -4						; size = 4
_fYGap$ = -4						; size = 4
_iParentWidth$ = 8					; size = 4
_iParentHeight$ = 12					; size = 4
_bChildMove$ = 16					; size = 1
_bCreate$ = 20						; size = 1
?SetPositionToDefault@RouletteWnd@@UAEXHH_N0@Z PROC	; RouletteWnd::SetPositionToDefault, COMDAT
; _this$ = ecx

; 214  : {

  00000	55		 push	 ebp
  00001	8b ec		 mov	 ebp, esp
  00003	51		 push	 ecx
  00004	51		 push	 ecx
  00005	53		 push	 ebx
  00006	56		 push	 esi
  00007	57		 push	 edi
  00008	8b f1		 mov	 esi, ecx

; 215  : 	float fXGap = ( Setting::Width() - 800.0f ) / FLOAT10;

  0000a	b8 0a 00 00 00	 mov	 eax, 10			; 0000000aH
  0000f	8b f8		 mov	 edi, eax
  00011	e8 00 00 00 00	 call	 ?Width@Setting@@SAHXZ	; Setting::Width
  00016	89 45 fc	 mov	 DWORD PTR tv257[ebp], eax
  00019	db 45 fc	 fild	 DWORD PTR tv257[ebp]
  0001c	89 7d f8	 mov	 DWORD PTR tv253[ebp], edi
  0001f	dc 25 00 00 00
	00		 fsub	 QWORD PTR __real@4089000000000000
  00025	db 45 f8	 fild	 DWORD PTR tv253[ebp]
  00028	85 ff		 test	 edi, edi
  0002a	79 06		 jns	 SHORT $LN8@SetPositio
  0002c	d8 05 00 00 00
	00		 fadd	 DWORD PTR __real@4f800000
$LN8@SetPositio:
  00032	de f9		 fdivp	 ST(1), ST(0)
  00034	d9 5d f8	 fstp	 DWORD PTR _fXGap$[ebp]

; 216  : 	float fYGap = ( Setting::Height() - 600.0f ) / FLOAT10;

  00037	b8 0a 00 00 00	 mov	 eax, 10			; 0000000aH
  0003c	8b f8		 mov	 edi, eax
  0003e	e8 00 00 00 00	 call	 ?Height@Setting@@SAHXZ	; Setting::Height
  00043	89 45 fc	 mov	 DWORD PTR tv247[ebp], eax
  00046	db 45 fc	 fild	 DWORD PTR tv247[ebp]
  00049	89 7d fc	 mov	 DWORD PTR tv241[ebp], edi
  0004c	dc 25 00 00 00
	00		 fsub	 QWORD PTR __real@4082c00000000000
  00052	db 45 fc	 fild	 DWORD PTR tv241[ebp]
  00055	85 ff		 test	 edi, edi
  00057	79 06		 jns	 SHORT $LN9@SetPositio
  00059	d8 05 00 00 00
	00		 fadd	 DWORD PTR __real@4f800000
$LN9@SetPositio:
  0005f	de f9		 fdivp	 ST(1), ST(0)

; 217  : 
; 218  : 	int iTempDefXPos = m_iDefXPos;
; 219  : 	int iTempDefYPos = m_iDefYPos;
; 220  : 
; 221  : 	m_iDefXPos = iTempDefXPos + fXGap;
; 222  : 	m_iDefYPos = iTempDefYPos + fYGap;
; 223  : 
; 224  : 	ioMovingWnd::SetPositionToDefault( iParentWidth, iParentHeight, bChildMove, bCreate );

  00061	ff 75 14	 push	 DWORD PTR _bCreate$[ebp]
  00064	8b be c0 00 00
	00		 mov	 edi, DWORD PTR [esi+192]
  0006a	f3 0f 10 4d f8	 movss	 xmm1, DWORD PTR _fXGap$[ebp]
  0006f	ff 75 10	 push	 DWORD PTR _bChildMove$[ebp]
  00072	8b 9e c4 00 00
	00		 mov	 ebx, DWORD PTR [esi+196]
  00078	ff 75 0c	 push	 DWORD PTR _iParentHeight$[ebp]
  0007b	0f 57 c0	 xorps	 xmm0, xmm0
  0007e	ff 75 08	 push	 DWORD PTR _iParentWidth$[ebp]
  00081	f3 0f 2a c7	 cvtsi2ss xmm0, edi
  00085	0f 5a c0	 cvtps2pd xmm0, xmm0
  00088	0f 5a c9	 cvtps2pd xmm1, xmm1
  0008b	f2 0f 58 c1	 addsd	 xmm0, xmm1
  0008f	f2 0f 2c c0	 cvttsd2si eax, xmm0
  00093	0f 57 c0	 xorps	 xmm0, xmm0
  00096	f3 0f 2a c3	 cvtsi2ss xmm0, ebx
  0009a	0f 5a c0	 cvtps2pd xmm0, xmm0
  0009d	89 86 c0 00 00
	00		 mov	 DWORD PTR [esi+192], eax
  000a3	8b ce		 mov	 ecx, esi
  000a5	d9 5d fc	 fstp	 DWORD PTR _fYGap$[ebp]
  000a8	f3 0f 10 4d fc	 movss	 xmm1, DWORD PTR _fYGap$[ebp]
  000ad	0f 5a c9	 cvtps2pd xmm1, xmm1
  000b0	f2 0f 58 c1	 addsd	 xmm0, xmm1
  000b4	f2 0f 2c c0	 cvttsd2si eax, xmm0
  000b8	89 86 c4 00 00
	00		 mov	 DWORD PTR [esi+196], eax
  000be	ff 15 00 00 00
	00		 call	 DWORD PTR __imp_?SetPositionToDefault@ioMovingWnd@@UAEXHH_N0@Z

; 225  : 
; 226  : 	m_iDefXPos = iTempDefXPos;
; 227  : 	m_iDefYPos = iTempDefYPos;
; 228  : 
; 229  : 	if( !bCreate )

  000c4	80 7d 14 00	 cmp	 BYTE PTR _bCreate$[ebp], 0
  000c8	89 be c0 00 00
	00		 mov	 DWORD PTR [esi+192], edi
  000ce	89 9e c4 00 00
	00		 mov	 DWORD PTR [esi+196], ebx
  000d4	75 2b		 jne	 SHORT $LN1@SetPositio

; 230  : 	{
; 231  : 		m_iDefaultX = GetXPos();

  000d6	8b ce		 mov	 ecx, esi
  000d8	ff 15 00 00 00
	00		 call	 DWORD PTR __imp_?GetXPos@ioWnd@@QBEHXZ

; 232  : 		m_iDefaultY = GetYPos();

  000de	8b ce		 mov	 ecx, esi
  000e0	89 86 30 02 00
	00		 mov	 DWORD PTR [esi+560], eax
  000e6	ff 15 00 00 00
	00		 call	 DWORD PTR __imp_?GetYPos@ioWnd@@QBEHXZ

; 233  : 		SetWndPos( m_iDefaultX, m_iDefaultY );

  000ec	50		 push	 eax
  000ed	ff b6 30 02 00
	00		 push	 DWORD PTR [esi+560]
  000f3	8b ce		 mov	 ecx, esi
  000f5	89 86 34 02 00
	00		 mov	 DWORD PTR [esi+564], eax
  000fb	ff 15 00 00 00
	00		 call	 DWORD PTR __imp_?SetWndPos@ioWnd@@QAEXHH@Z
$LN1@SetPositio:
  00101	5f		 pop	 edi
  00102	5e		 pop	 esi
  00103	5b		 pop	 ebx

; 234  : 	}
; 235  : }

  00104	c9		 leave
  00105	c2 10 00	 ret	 16			; 00000010H
?SetPositionToDefault@RouletteWnd@@UAEXHH_N0@Z ENDP	; RouletteWnd::SetPositionToDefault
_TEXT	ENDS
PUBLIC	?iwm_show@RouletteWnd@@UAEXXZ			; RouletteWnd::iwm_show
EXTRN	__imp_?ShowChildWnd@ioWnd@@QAEXK_N@Z:PROC
; Function compile flags: /Ogsp
;	COMDAT ?iwm_show@RouletteWnd@@UAEXXZ
_TEXT	SEGMENT
?iwm_show@RouletteWnd@@UAEXXZ PROC			; RouletteWnd::iwm_show, COMDAT
; _this$ = ecx

; 252  : 	ShowChildWnd( ID_HELP );

  00000	6a 00		 push	 0
  00002	6a 01		 push	 1
  00004	ff 15 00 00 00
	00		 call	 DWORD PTR __imp_?ShowChildWnd@ioWnd@@QAEXK_N@Z

; 253  : }

  0000a	c3		 ret	 0
?iwm_show@RouletteWnd@@UAEXXZ ENDP			; RouletteWnd::iwm_show
_TEXT	ENDS
PUBLIC	?iwm_hide@RouletteWnd@@UAEXXZ			; RouletteWnd::iwm_hide
EXTRN	__imp_?HideChildWnd@ioWnd@@QAEXK_N@Z:PROC
; Function compile flags: /Ogsp
;	COMDAT ?iwm_hide@RouletteWnd@@UAEXXZ
_TEXT	SEGMENT
?iwm_hide@RouletteWnd@@UAEXXZ PROC			; RouletteWnd::iwm_hide, COMDAT
; _this$ = ecx

; 257  : 	HideChildWnd( ID_HELP );

  00000	6a 00		 push	 0
  00002	6a 01		 push	 1
  00004	ff 15 00 00 00
	00		 call	 DWORD PTR __imp_?HideChildWnd@ioWnd@@QAEXK_N@Z

; 258  : }

  0000a	c3		 ret	 0
?iwm_hide@RouletteWnd@@UAEXXZ ENDP			; RouletteWnd::iwm_hide
_TEXT	ENDS
PUBLIC	?iwm_command@RouletteWnd@@UAEXPAVioWnd@@HK@Z	; RouletteWnd::iwm_command
EXTRN	__imp_?ShowWnd@ioGUIManager@@QAEXK_N@Z:PROC
EXTRN	?GetSingleton@ioSP2GUIManager@@SAAAV1@XZ:PROC	; ioSP2GUIManager::GetSingleton
EXTRN	__imp_?GetID@ioWnd@@QBEKXZ:PROC
; Function compile flags: /Ogsp
;	COMDAT ?iwm_command@RouletteWnd@@UAEXPAVioWnd@@HK@Z
_TEXT	SEGMENT
_pWnd$ = 8						; size = 4
_cmd$ = 12						; size = 4
_param$ = 16						; size = 4
?iwm_command@RouletteWnd@@UAEXPAVioWnd@@HK@Z PROC	; RouletteWnd::iwm_command, COMDAT
; _this$ = ecx

; 261  : {

  00000	55		 push	 ebp
  00001	8b ec		 mov	 ebp, esp

; 262  : 	DWORD dwID = pWnd->GetID();

  00003	8b 4d 08	 mov	 ecx, DWORD PTR _pWnd$[ebp]
  00006	ff 15 00 00 00
	00		 call	 DWORD PTR __imp_?GetID@ioWnd@@QBEKXZ

; 263  : 	switch( dwID )

  0000c	48		 dec	 eax
  0000d	75 19		 jne	 SHORT $LN1@iwm_comman

; 264  : 	{
; 265  : 	case ID_HELP:
; 266  : 		if( cmd == IOBN_BTNUP )

  0000f	83 7d 0c 11	 cmp	 DWORD PTR _cmd$[ebp], 17 ; 00000011H
  00013	75 13		 jne	 SHORT $LN1@iwm_comman

; 267  : 		{
; 268  : 			g_GUIMgr.ShowWnd( ROULETTE_HELP_WND );

  00015	50		 push	 eax
  00016	68 54 18 00 00	 push	 6228			; 00001854H
  0001b	e8 00 00 00 00	 call	 ?GetSingleton@ioSP2GUIManager@@SAAAV1@XZ ; ioSP2GUIManager::GetSingleton
  00020	8b c8		 mov	 ecx, eax
  00022	ff 15 00 00 00
	00		 call	 DWORD PTR __imp_?ShowWnd@ioGUIManager@@QAEXK_N@Z
$LN1@iwm_comman:

; 269  : 		}
; 270  : 		break;
; 271  : 	}
; 272  : }

  00028	5d		 pop	 ebp
  00029	c2 0c 00	 ret	 12			; 0000000cH
?iwm_command@RouletteWnd@@UAEXPAVioWnd@@HK@Z ENDP	; RouletteWnd::iwm_command
_TEXT	ENDS
PUBLIC	??2@YAPAXIPAX@Z					; operator new
; Function compile flags: /Ogsp
; File c:\program files (x86)\microsoft visual studio 10.0\vc\include\new
;	COMDAT ??2@YAPAXIPAX@Z
_TEXT	SEGMENT
___formal$ = 8						; size = 4
__Where$ = 12						; size = 4
??2@YAPAXIPAX@Z PROC					; operator new, COMDAT

; 56   : 	{	// construct array with placement at _Where

  00000	55		 push	 ebp
  00001	8b ec		 mov	 ebp, esp

; 57   : 	return (_Where);

  00003	8b 45 0c	 mov	 eax, DWORD PTR __Where$[ebp]

; 58   : 	}

  00006	5d		 pop	 ebp
  00007	c3		 ret	 0
??2@YAPAXIPAX@Z ENDP					; operator new
_TEXT	ENDS
PUBLIC	??3@YAXPAX0@Z					; operator delete
; Function compile flags: /Ogsp
;	COMDAT ??3@YAXPAX0@Z
_TEXT	SEGMENT
___formal$ = 8						; size = 4
___formal$ = 12						; size = 4
??3@YAXPAX0@Z PROC					; operator delete, COMDAT

; 62   : 	}

  00000	c3		 ret	 0
??3@YAXPAX0@Z ENDP					; operator delete
_TEXT	ENDS
PUBLIC	__real@3f800000
PUBLIC	?RenderUpperInfo@RouletteWnd@@IAEXHH@Z		; RouletteWnd::RenderUpperInfo
EXTRN	__imp_?RenderNum@ioUIRenderImage@@QAEXMMHMMW4UIRenderType@@W4TextureFilterOption@@0W4RenerNumerFormatting@1@@Z:PROC
EXTRN	__imp_?GetWidth@ioUIRenderElement@@QBEHXZ:PROC
EXTRN	__ftol2_sse:PROC
;	COMDAT __real@3f800000
; File d:\lost saga for developer\youtube\tutorial\source\src\lsclient\stdafx.h
CONST	SEGMENT
__real@3f800000 DD 03f800000r			; 1
; Function compile flags: /Ogsp
; File d:\lost saga for developer\youtube\tutorial\source\src\lsclient\gui\roulettewnd.cpp
CONST	ENDS
;	COMDAT ?RenderUpperInfo@RouletteWnd@@IAEXHH@Z
_TEXT	SEGMENT
tv268 = -12						; size = 4
tv296 = -8						; size = 4
tv266 = -8						; size = 4
_iNumWidth$ = -8					; size = 4
_iCount$ = -4						; size = 4
_iXPos$ = 8						; size = 4
_iYPos$ = 12						; size = 4
?RenderUpperInfo@RouletteWnd@@IAEXHH@Z PROC		; RouletteWnd::RenderUpperInfo, COMDAT
; _this$ = ecx

; 577  : {

  00000	55		 push	 ebp
  00001	8b ec		 mov	 ebp, esp
  00003	83 ec 0c	 sub	 esp, 12			; 0000000cH
  00006	53		 push	 ebx
  00007	56		 push	 esi
  00008	8b f1		 mov	 esi, ecx

; 578  : 	if( !m_pUpperCoupon || !m_pUpperCouponNumber )

  0000a	33 db		 xor	 ebx, ebx
  0000c	39 9e e4 01 00
	00		 cmp	 DWORD PTR [esi+484], ebx
  00012	0f 84 14 02 00
	00		 je	 $LN7@RenderUppe
  00018	39 9e e8 01 00
	00		 cmp	 DWORD PTR [esi+488], ebx
  0001e	0f 84 08 02 00
	00		 je	 $LN7@RenderUppe

; 579  : 		return;
; 580  : 	
; 581  : 	enum { CENTER_X = 59, TEXT_Y = 23, NUMBER_Y = 22,
; 582  : 		   TEXT_GAP = -2, NUMBER_GAP = -3 };
; 583  : 	
; 584  : 	int iCount = 1;

  00024	c7 45 fc 01 00
	00 00		 mov	 DWORD PTR _iCount$[ebp], 1

; 585  : 	if( m_iCoin >= FLOAT100 )

  0002b	b8 64 00 00 00	 mov	 eax, 100		; 00000064H
  00030	8b 8e 10 02 00
	00		 mov	 ecx, DWORD PTR [esi+528]
  00036	89 4d f8	 mov	 DWORD PTR tv266[ebp], ecx
  00039	db 45 f8	 fild	 DWORD PTR tv266[ebp]
  0003c	89 45 f8	 mov	 DWORD PTR tv296[ebp], eax
  0003f	db 45 f8	 fild	 DWORD PTR tv296[ebp]
  00042	85 c0		 test	 eax, eax
  00044	79 06		 jns	 SHORT $LN15@RenderUppe
  00046	d8 05 00 00 00
	00		 fadd	 DWORD PTR __real@4f800000
$LN15@RenderUppe:
  0004c	d9 c9		 fxch	 ST(1)
  0004e	df f1		 fcomip	 ST(1)
  00050	dd d8		 fstp	 ST(0)
  00052	72 09		 jb	 SHORT $LN6@RenderUppe

; 586  : 		iCount = 3;

  00054	c7 45 fc 03 00
	00 00		 mov	 DWORD PTR _iCount$[ebp], 3
  0005b	eb 0c		 jmp	 SHORT $LN4@RenderUppe
$LN6@RenderUppe:

; 587  : 	else if( m_iCoin >= 10 )

  0005d	83 f9 0a	 cmp	 ecx, 10			; 0000000aH
  00060	7c 07		 jl	 SHORT $LN4@RenderUppe

; 588  : 		iCount = 2;

  00062	c7 45 fc 02 00
	00 00		 mov	 DWORD PTR _iCount$[ebp], 2
$LN4@RenderUppe:

; 589  : 
; 590  : 	int iNumWidth = m_pUpperCouponNumber->GetWidth() / 10;

  00069	8b 8e e8 01 00
	00		 mov	 ecx, DWORD PTR [esi+488]
  0006f	57		 push	 edi
  00070	ff 15 00 00 00
	00		 call	 DWORD PTR __imp_?GetWidth@ioUIRenderElement@@QBEHXZ
  00076	6a 0a		 push	 10			; 0000000aH
  00078	99		 cdq
  00079	59		 pop	 ecx
  0007a	f7 f9		 idiv	 ecx

; 591  : 	int iWidth = m_pUpperCoupon->GetWidth() + ( iNumWidth * iCount );

  0007c	8b 8e e4 01 00
	00		 mov	 ecx, DWORD PTR [esi+484]
  00082	89 45 f8	 mov	 DWORD PTR _iNumWidth$[ebp], eax
  00085	ff 15 00 00 00
	00		 call	 DWORD PTR __imp_?GetWidth@ioUIRenderElement@@QBEHXZ
  0008b	8b 4d f8	 mov	 ecx, DWORD PTR _iNumWidth$[ebp]
  0008e	0f af 4d fc	 imul	 ecx, DWORD PTR _iCount$[ebp]

; 592  : 	
; 593  : 	int iOffset = CENTER_X - iWidth/2;

  00092	6a 3b		 push	 59			; 0000003bH
  00094	5f		 pop	 edi
  00095	03 c1		 add	 eax, ecx

; 594  : 
; 595  : 	m_pUpperCoupon->Render( iXPos + iOffset, iYPos + TEXT_Y );

  00097	8b 8e e4 01 00
	00		 mov	 ecx, DWORD PTR [esi+484]
  0009d	53		 push	 ebx
  0009e	99		 cdq
  0009f	2b c2		 sub	 eax, edx
  000a1	8b 55 0c	 mov	 edx, DWORD PTR _iYPos$[ebp]
  000a4	53		 push	 ebx
  000a5	53		 push	 ebx
  000a6	53		 push	 ebx
  000a7	83 c2 17	 add	 edx, 23			; 00000017H
  000aa	0f 57 c0	 xorps	 xmm0, xmm0
  000ad	f3 0f 2a c2	 cvtsi2ss xmm0, edx
  000b1	8b 55 08	 mov	 edx, DWORD PTR _iXPos$[ebp]
  000b4	d1 f8		 sar	 eax, 1
  000b6	51		 push	 ecx
  000b7	2b f8		 sub	 edi, eax
  000b9	8b 01		 mov	 eax, DWORD PTR [ecx]
  000bb	51		 push	 ecx
  000bc	f3 0f 11 44 24
	04		 movss	 DWORD PTR [esp+4], xmm0
  000c2	03 d7		 add	 edx, edi
  000c4	0f 57 c0	 xorps	 xmm0, xmm0
  000c7	f3 0f 2a c2	 cvtsi2ss xmm0, edx
  000cb	f3 0f 11 04 24	 movss	 DWORD PTR [esp], xmm0
  000d0	ff 10		 call	 DWORD PTR [eax]

; 596  : 	iOffset += m_pUpperCoupon->GetWidth() + TEXT_GAP;

  000d2	8b 8e e4 01 00
	00		 mov	 ecx, DWORD PTR [esi+484]
  000d8	ff 15 00 00 00
	00		 call	 DWORD PTR __imp_?GetWidth@ioUIRenderElement@@QBEHXZ
  000de	8d 7c 07 fe	 lea	 edi, DWORD PTR [edi+eax-2]

; 597  : 
; 598  : 	int iNumber = m_iCoin/FLOAT100;

  000e2	b8 64 00 00 00	 mov	 eax, 100		; 00000064H
  000e7	db 86 10 02 00
	00		 fild	 DWORD PTR [esi+528]
  000ed	89 45 f4	 mov	 DWORD PTR tv268[ebp], eax
  000f0	db 45 f4	 fild	 DWORD PTR tv268[ebp]
  000f3	85 c0		 test	 eax, eax
  000f5	79 06		 jns	 SHORT $LN16@RenderUppe
  000f7	d8 05 00 00 00
	00		 fadd	 DWORD PTR __real@4f800000
$LN16@RenderUppe:
  000fd	de f9		 fdivp	 ST(1), ST(0)
  000ff	e8 00 00 00 00	 call	 __ftol2_sse

; 599  : 	if( iNumber > 0 )

  00104	3b c3		 cmp	 eax, ebx
  00106	7e 56		 jle	 SHORT $LN3@RenderUppe

; 600  : 	{
; 601  : 		m_pUpperCouponNumber->RenderNum( iXPos + iOffset, iYPos + NUMBER_Y, iNumber );

  00108	f3 0f 10 05 00
	00 00 00	 movss	 xmm0, DWORD PTR __real@3f800000
  00110	53		 push	 ebx
  00111	53		 push	 ebx
  00112	53		 push	 ebx
  00113	53		 push	 ebx
  00114	51		 push	 ecx
  00115	51		 push	 ecx
  00116	f3 0f 11 44 24
	04		 movss	 DWORD PTR [esp+4], xmm0
  0011c	0f 57 c0	 xorps	 xmm0, xmm0
  0011f	f3 0f 11 04 24	 movss	 DWORD PTR [esp], xmm0
  00124	50		 push	 eax
  00125	8b 45 0c	 mov	 eax, DWORD PTR _iYPos$[ebp]
  00128	83 c0 16	 add	 eax, 22			; 00000016H
  0012b	0f 57 c0	 xorps	 xmm0, xmm0
  0012e	f3 0f 2a c0	 cvtsi2ss xmm0, eax
  00132	8b 45 08	 mov	 eax, DWORD PTR _iXPos$[ebp]
  00135	51		 push	 ecx
  00136	51		 push	 ecx
  00137	8b 8e e8 01 00
	00		 mov	 ecx, DWORD PTR [esi+488]
  0013d	f3 0f 11 44 24
	04		 movss	 DWORD PTR [esp+4], xmm0
  00143	03 c7		 add	 eax, edi
  00145	0f 57 c0	 xorps	 xmm0, xmm0
  00148	f3 0f 2a c0	 cvtsi2ss xmm0, eax
  0014c	f3 0f 11 04 24	 movss	 DWORD PTR [esp], xmm0
  00151	ff 15 00 00 00
	00		 call	 DWORD PTR __imp_?RenderNum@ioUIRenderImage@@QAEXMMHMMW4UIRenderType@@W4TextureFilterOption@@0W4RenerNumerFormatting@1@@Z

; 602  : 		iOffset += iNumWidth + NUMBER_GAP;

  00157	8b 45 f8	 mov	 eax, DWORD PTR _iNumWidth$[ebp]
  0015a	8d 7c 07 fd	 lea	 edi, DWORD PTR [edi+eax-3]
$LN3@RenderUppe:

; 603  : 	}
; 604  : 	
; 605  : 	iNumber = (m_iCoin%100)/10;

  0015e	8b 86 10 02 00
	00		 mov	 eax, DWORD PTR [esi+528]
  00164	99		 cdq
  00165	6a 64		 push	 100			; 00000064H
  00167	59		 pop	 ecx
  00168	f7 f9		 idiv	 ecx
  0016a	6a 0a		 push	 10			; 0000000aH
  0016c	59		 pop	 ecx
  0016d	8b c2		 mov	 eax, edx
  0016f	99		 cdq
  00170	f7 f9		 idiv	 ecx

; 606  : 	if( iNumber > 0 || iCount == 3  )

  00172	3b c3		 cmp	 eax, ebx
  00174	7f 06		 jg	 SHORT $LN1@RenderUppe
  00176	83 7d fc 03	 cmp	 DWORD PTR _iCount$[ebp], 3
  0017a	75 56		 jne	 SHORT $LN2@RenderUppe
$LN1@RenderUppe:

; 607  : 	{
; 608  : 		m_pUpperCouponNumber->RenderNum( iXPos + iOffset, iYPos + NUMBER_Y, iNumber );

  0017c	f3 0f 10 05 00
	00 00 00	 movss	 xmm0, DWORD PTR __real@3f800000
  00184	53		 push	 ebx
  00185	53		 push	 ebx
  00186	53		 push	 ebx
  00187	53		 push	 ebx
  00188	51		 push	 ecx
  00189	51		 push	 ecx
  0018a	f3 0f 11 44 24
	04		 movss	 DWORD PTR [esp+4], xmm0
  00190	0f 57 c0	 xorps	 xmm0, xmm0
  00193	f3 0f 11 04 24	 movss	 DWORD PTR [esp], xmm0
  00198	50		 push	 eax
  00199	8b 45 0c	 mov	 eax, DWORD PTR _iYPos$[ebp]
  0019c	83 c0 16	 add	 eax, 22			; 00000016H
  0019f	0f 57 c0	 xorps	 xmm0, xmm0
  001a2	f3 0f 2a c0	 cvtsi2ss xmm0, eax
  001a6	8b 45 08	 mov	 eax, DWORD PTR _iXPos$[ebp]
  001a9	51		 push	 ecx
  001aa	51		 push	 ecx
  001ab	8b 8e e8 01 00
	00		 mov	 ecx, DWORD PTR [esi+488]
  001b1	f3 0f 11 44 24
	04		 movss	 DWORD PTR [esp+4], xmm0
  001b7	03 c7		 add	 eax, edi
  001b9	0f 57 c0	 xorps	 xmm0, xmm0
  001bc	f3 0f 2a c0	 cvtsi2ss xmm0, eax
  001c0	f3 0f 11 04 24	 movss	 DWORD PTR [esp], xmm0
  001c5	ff 15 00 00 00
	00		 call	 DWORD PTR __imp_?RenderNum@ioUIRenderImage@@QAEXMMHMMW4UIRenderType@@W4TextureFilterOption@@0W4RenerNumerFormatting@1@@Z

; 609  : 		iOffset += iNumWidth + NUMBER_GAP;

  001cb	8b 45 f8	 mov	 eax, DWORD PTR _iNumWidth$[ebp]
  001ce	8d 7c 07 fd	 lea	 edi, DWORD PTR [edi+eax-3]
$LN2@RenderUppe:

; 610  : 	}
; 611  : 	
; 612  : 	iNumber = m_iCoin%10;
; 613  : 	m_pUpperCouponNumber->RenderNum( iXPos + iOffset, iYPos + NUMBER_Y, iNumber );

  001d2	f3 0f 10 05 00
	00 00 00	 movss	 xmm0, DWORD PTR __real@3f800000
  001da	8b 86 10 02 00
	00		 mov	 eax, DWORD PTR [esi+528]
  001e0	53		 push	 ebx
  001e1	53		 push	 ebx
  001e2	53		 push	 ebx
  001e3	53		 push	 ebx
  001e4	51		 push	 ecx
  001e5	51		 push	 ecx
  001e6	f3 0f 11 44 24
	04		 movss	 DWORD PTR [esp+4], xmm0
  001ec	0f 57 c0	 xorps	 xmm0, xmm0
  001ef	f3 0f 11 04 24	 movss	 DWORD PTR [esp], xmm0
  001f4	6a 0a		 push	 10			; 0000000aH
  001f6	59		 pop	 ecx
  001f7	99		 cdq
  001f8	f7 f9		 idiv	 ecx
  001fa	8b 45 0c	 mov	 eax, DWORD PTR _iYPos$[ebp]
  001fd	03 7d 08	 add	 edi, DWORD PTR _iXPos$[ebp]
  00200	0f 57 c0	 xorps	 xmm0, xmm0
  00203	83 c0 16	 add	 eax, 22			; 00000016H
  00206	f3 0f 2a c0	 cvtsi2ss xmm0, eax
  0020a	52		 push	 edx
  0020b	51		 push	 ecx
  0020c	51		 push	 ecx
  0020d	8b 8e e8 01 00
	00		 mov	 ecx, DWORD PTR [esi+488]
  00213	f3 0f 11 44 24
	04		 movss	 DWORD PTR [esp+4], xmm0
  00219	0f 57 c0	 xorps	 xmm0, xmm0
  0021c	f3 0f 2a c7	 cvtsi2ss xmm0, edi
  00220	f3 0f 11 04 24	 movss	 DWORD PTR [esp], xmm0
  00225	ff 15 00 00 00
	00		 call	 DWORD PTR __imp_?RenderNum@ioUIRenderImage@@QAEXMMHMMW4UIRenderType@@W4TextureFilterOption@@0W4RenerNumerFormatting@1@@Z
  0022b	5f		 pop	 edi
$LN7@RenderUppe:
  0022c	5e		 pop	 esi
  0022d	5b		 pop	 ebx

; 614  : }

  0022e	c9		 leave
  0022f	c2 08 00	 ret	 8
?RenderUpperInfo@RouletteWnd@@IAEXHH@Z ENDP		; RouletteWnd::RenderUpperInfo
_TEXT	ENDS
PUBLIC	?SetState@RouletteWnd@@QAEXW4UIState@1@@Z	; RouletteWnd::SetState
EXTRN	?GetCurResultGroupArray@ioRouletteManager@@QAEHXZ:PROC ; ioRouletteManager::GetCurResultGroupArray
EXTRN	?GetSingleton@ioRouletteManager@@SAAAV1@XZ:PROC	; ioRouletteManager::GetSingleton
; Function compile flags: /Ogsp
;	COMDAT ?SetState@RouletteWnd@@QAEXW4UIState@1@@Z
_TEXT	SEGMENT
_eState$ = 8						; size = 4
?SetState@RouletteWnd@@QAEXW4UIState@1@@Z PROC		; RouletteWnd::SetState, COMDAT
; _this$ = ecx

; 730  : {

  00000	55		 push	 ebp
  00001	8b ec		 mov	 ebp, esp

; 731  : 	if( m_State == eState )

  00003	8b 45 08	 mov	 eax, DWORD PTR _eState$[ebp]
  00006	56		 push	 esi
  00007	8b f1		 mov	 esi, ecx
  00009	39 86 90 01 00
	00		 cmp	 DWORD PTR [esi+400], eax
  0000f	0f 84 95 00 00
	00		 je	 $LN5@SetState

; 732  : 		return;
; 733  : 
; 734  : 	switch( eState )

  00015	53		 push	 ebx
  00016	33 db		 xor	 ebx, ebx
  00018	2b c3		 sub	 eax, ebx
  0001a	74 5f		 je	 SHORT $LN4@SetState
  0001c	48		 dec	 eax
  0001d	74 3e		 je	 SHORT $LN3@SetState
  0001f	48		 dec	 eax
  00020	74 32		 je	 SHORT $LN2@SetState
  00022	48		 dec	 eax
  00023	0f 85 80 00 00
	00		 jne	 $LN10@SetState

; 761  : 	case US_END:
; 762  : 		{
; 763  : 			m_State = US_END;

  00029	c7 86 90 01 00
	00 03 00 00 00	 mov	 DWORD PTR [esi+400], 3

; 764  : 			m_dwRewardStartTime = FRAMEGETTIME() + 300;

  00033	ff 15 00 00 00
	00		 call	 DWORD PTR __imp_?GetSingleton@ioFrameTimer@@SAAAV1@XZ
  00039	8b c8		 mov	 ecx, eax
  0003b	ff 15 00 00 00
	00		 call	 DWORD PTR __imp_?GetLoopSec@ioFrameTimer@@QBEKXZ
  00041	05 2c 01 00 00	 add	 eax, 300		; 0000012cH
  00046	89 86 28 02 00
	00		 mov	 DWORD PTR [esi+552], eax

; 765  : 			m_bJoinEnd = false;

  0004c	88 9e 2c 02 00
	00		 mov	 BYTE PTR [esi+556], bl

; 766  : 		}
; 767  : 		break;

  00052	eb 55		 jmp	 SHORT $LN10@SetState
$LN2@SetState:

; 754  : 	case US_JOIN_END:
; 755  : 		{
; 756  : 			m_bJoinEnd = true;

  00054	c6 86 2c 02 00
	00 01		 mov	 BYTE PTR [esi+556], 1

; 757  : // 			m_State = US_JOIN_END;
; 758  : // 			m_iInfoAlphaRate = MAX_ALPHA_RATE;
; 759  : 		}
; 760  : 		break;

  0005b	eb 4c		 jmp	 SHORT $LN10@SetState
$LN3@SetState:

; 746  : 		}
; 747  : 		break;
; 748  : 	case US_SPIN:
; 749  : 		{
; 750  : 			m_iCurResultArray = g_RouletteMgr.GetCurResultGroupArray();

  0005d	e8 00 00 00 00	 call	 ?GetSingleton@ioRouletteManager@@SAAAV1@XZ ; ioRouletteManager::GetSingleton
  00062	8b c8		 mov	 ecx, eax
  00064	e8 00 00 00 00	 call	 ?GetCurResultGroupArray@ioRouletteManager@@QAEHXZ ; ioRouletteManager::GetCurResultGroupArray
  00069	89 86 0c 02 00
	00		 mov	 DWORD PTR [esi+524], eax

; 751  : 			m_State = US_SPIN;

  0006f	c7 86 90 01 00
	00 01 00 00 00	 mov	 DWORD PTR [esi+400], 1

; 752  : 		}
; 753  : 		break;

  00079	eb 2e		 jmp	 SHORT $LN10@SetState
$LN4@SetState:

; 735  : 	{
; 736  : 	case US_READY:
; 737  : 		{
; 738  : 			m_State = US_READY;

  0007b	89 9e 90 01 00
	00		 mov	 DWORD PTR [esi+400], ebx

; 739  : 			m_bSetUIEffect = false;

  00081	66 c7 86 18 02
	00 00 00 01	 mov	 WORD PTR [esi+536], 256	; 00000100H

; 740  : 			m_bMainInfo = true;
; 741  : 			m_iInfoAlphaRate = MAX_ALPHA_RATE;

  0008a	c7 86 20 02 00
	00 ff 00 00 00	 mov	 DWORD PTR [esi+544], 255 ; 000000ffH

; 742  : 			m_bFadeIn = true;
; 743  : 			m_dwInfoDelayTime = 0;

  00094	89 9e 1c 02 00
	00		 mov	 DWORD PTR [esi+540], ebx
  0009a	66 c7 86 24 02
	00 00 01 00	 mov	 WORD PTR [esi+548], 1

; 744  : 			m_bSpinEndEffect = false;
; 745  : 			m_dwRewardStartTime = 0;

  000a3	89 9e 28 02 00
	00		 mov	 DWORD PTR [esi+552], ebx
$LN10@SetState:
  000a9	5b		 pop	 ebx
$LN5@SetState:
  000aa	5e		 pop	 esi

; 768  : 	}
; 769  : }

  000ab	5d		 pop	 ebp
  000ac	c2 04 00	 ret	 4
?SetState@RouletteWnd@@QAEXW4UIState@1@@Z ENDP		; RouletteWnd::SetState
_TEXT	ENDS
PUBLIC	?_Adopt@_Iterator_base0@std@@QAEXPBX@Z		; std::_Iterator_base0::_Adopt
; Function compile flags: /Ogsp
; File c:\program files (x86)\microsoft visual studio 10.0\vc\include\xutility
;	COMDAT ?_Adopt@_Iterator_base0@std@@QAEXPBX@Z
_TEXT	SEGMENT
___formal$ = 8						; size = 4
?_Adopt@_Iterator_base0@std@@QAEXPBX@Z PROC		; std::_Iterator_base0::_Adopt, COMDAT
; _this$ = ecx

; 49   : 		}

  00000	c2 04 00	 ret	 4
?_Adopt@_Iterator_base0@std@@QAEXPBX@Z ENDP		; std::_Iterator_base0::_Adopt
_TEXT	ENDS
PUBLIC	?empty@?$vector@UUIEffectAniInfo@RouletteWnd@@V?$allocator@UUIEffectAniInfo@RouletteWnd@@@std@@@std@@QBE_NXZ ; std::vector<RouletteWnd::UIEffectAniInfo,std::allocator<RouletteWnd::UIEffectAniInfo> >::empty
; Function compile flags: /Ogsp
; File c:\program files (x86)\microsoft visual studio 10.0\vc\include\vector
;	COMDAT ?empty@?$vector@UUIEffectAniInfo@RouletteWnd@@V?$allocator@UUIEffectAniInfo@RouletteWnd@@@std@@@std@@QBE_NXZ
_TEXT	SEGMENT
?empty@?$vector@UUIEffectAniInfo@RouletteWnd@@V?$allocator@UUIEffectAniInfo@RouletteWnd@@@std@@@std@@QBE_NXZ PROC ; std::vector<RouletteWnd::UIEffectAniInfo,std::allocator<RouletteWnd::UIEffectAniInfo> >::empty, COMDAT
; _this$ = ecx

; 889  : 		return (this->_Myfirst == this->_Mylast);

  00000	8b 01		 mov	 eax, DWORD PTR [ecx]
  00002	2b 41 04	 sub	 eax, DWORD PTR [ecx+4]
  00005	f7 d8		 neg	 eax
  00007	1b c0		 sbb	 eax, eax
  00009	40		 inc	 eax

; 890  : 		}

  0000a	c3		 ret	 0
?empty@?$vector@UUIEffectAniInfo@RouletteWnd@@V?$allocator@UUIEffectAniInfo@RouletteWnd@@@std@@@std@@QBE_NXZ ENDP ; std::vector<RouletteWnd::UIEffectAniInfo,std::allocator<RouletteWnd::UIEffectAniInfo> >::empty
_TEXT	ENDS
PUBLIC	?_Inside@?$vector@VioHashString@@V?$allocator@VioHashString@@@std@@@std@@IBE_NPBVioHashString@@@Z ; std::vector<ioHashString,std::allocator<ioHashString> >::_Inside
; Function compile flags: /Ogsp
;	COMDAT ?_Inside@?$vector@VioHashString@@V?$allocator@VioHashString@@@std@@@std@@IBE_NPBVioHashString@@@Z
_TEXT	SEGMENT
__Ptr$ = 8						; size = 4
?_Inside@?$vector@VioHashString@@V?$allocator@VioHashString@@@std@@@std@@IBE_NPBVioHashString@@@Z PROC ; std::vector<ioHashString,std::allocator<ioHashString> >::_Inside, COMDAT
; _this$ = ecx

; 1285 : 		{	// test if _Ptr points inside vector

  00000	55		 push	 ebp
  00001	8b ec		 mov	 ebp, esp

; 1286 : 		return (_Ptr < this->_Mylast && this->_Myfirst <= _Ptr);

  00003	8b 45 08	 mov	 eax, DWORD PTR __Ptr$[ebp]
  00006	3b 41 04	 cmp	 eax, DWORD PTR [ecx+4]
  00009	73 09		 jae	 SHORT $LN3@Inside
  0000b	39 01		 cmp	 DWORD PTR [ecx], eax
  0000d	77 05		 ja	 SHORT $LN3@Inside
  0000f	33 c0		 xor	 eax, eax
  00011	40		 inc	 eax
  00012	eb 02		 jmp	 SHORT $LN4@Inside
$LN3@Inside:
  00014	33 c0		 xor	 eax, eax
$LN4@Inside:

; 1287 : 		}

  00016	5d		 pop	 ebp
  00017	c2 04 00	 ret	 4
?_Inside@?$vector@VioHashString@@V?$allocator@VioHashString@@@std@@@std@@IBE_NPBVioHashString@@@Z ENDP ; std::vector<ioHashString,std::allocator<ioHashString> >::_Inside
_TEXT	ENDS
PUBLIC	?_Orphan_range@?$vector@VioHashString@@V?$allocator@VioHashString@@@std@@@std@@IBEXPAVioHashString@@0@Z ; std::vector<ioHashString,std::allocator<ioHashString> >::_Orphan_range
; Function compile flags: /Ogsp
;	COMDAT ?_Orphan_range@?$vector@VioHashString@@V?$allocator@VioHashString@@@std@@@std@@IBEXPAVioHashString@@0@Z
_TEXT	SEGMENT
___formal$ = 8						; size = 4
___formal$ = 12						; size = 4
?_Orphan_range@?$vector@VioHashString@@V?$allocator@VioHashString@@@std@@@std@@IBEXPAVioHashString@@0@Z PROC ; std::vector<ioHashString,std::allocator<ioHashString> >::_Orphan_range, COMDAT
; _this$ = ecx

; 1454 : 		}

  00000	c2 08 00	 ret	 8
?_Orphan_range@?$vector@VioHashString@@V?$allocator@VioHashString@@@std@@@std@@IBEXPAVioHashString@@0@Z ENDP ; std::vector<ioHashString,std::allocator<ioHashString> >::_Orphan_range
_TEXT	ENDS
PUBLIC	?_Inside@?$vector@UUIEffectAniInfo@RouletteWnd@@V?$allocator@UUIEffectAniInfo@RouletteWnd@@@std@@@std@@IBE_NPBUUIEffectAniInfo@RouletteWnd@@@Z ; std::vector<RouletteWnd::UIEffectAniInfo,std::allocator<RouletteWnd::UIEffectAniInfo> >::_Inside
; Function compile flags: /Ogsp
;	COMDAT ?_Inside@?$vector@UUIEffectAniInfo@RouletteWnd@@V?$allocator@UUIEffectAniInfo@RouletteWnd@@@std@@@std@@IBE_NPBUUIEffectAniInfo@RouletteWnd@@@Z
_TEXT	SEGMENT
__Ptr$ = 8						; size = 4
?_Inside@?$vector@UUIEffectAniInfo@RouletteWnd@@V?$allocator@UUIEffectAniInfo@RouletteWnd@@@std@@@std@@IBE_NPBUUIEffectAniInfo@RouletteWnd@@@Z PROC ; std::vector<RouletteWnd::UIEffectAniInfo,std::allocator<RouletteWnd::UIEffectAniInfo> >::_Inside, COMDAT
; _this$ = ecx

; 1285 : 		{	// test if _Ptr points inside vector

  00000	55		 push	 ebp
  00001	8b ec		 mov	 ebp, esp

; 1286 : 		return (_Ptr < this->_Mylast && this->_Myfirst <= _Ptr);

  00003	8b 45 08	 mov	 eax, DWORD PTR __Ptr$[ebp]
  00006	3b 41 04	 cmp	 eax, DWORD PTR [ecx+4]
  00009	73 09		 jae	 SHORT $LN3@Inside@2
  0000b	39 01		 cmp	 DWORD PTR [ecx], eax
  0000d	77 05		 ja	 SHORT $LN3@Inside@2
  0000f	33 c0		 xor	 eax, eax
  00011	40		 inc	 eax
  00012	eb 02		 jmp	 SHORT $LN4@Inside@2
$LN3@Inside@2:
  00014	33 c0		 xor	 eax, eax
$LN4@Inside@2:

; 1287 : 		}

  00016	5d		 pop	 ebp
  00017	c2 04 00	 ret	 4
?_Inside@?$vector@UUIEffectAniInfo@RouletteWnd@@V?$allocator@UUIEffectAniInfo@RouletteWnd@@@std@@@std@@IBE_NPBUUIEffectAniInfo@RouletteWnd@@@Z ENDP ; std::vector<RouletteWnd::UIEffectAniInfo,std::allocator<RouletteWnd::UIEffectAniInfo> >::_Inside
_TEXT	ENDS
PUBLIC	?_Orphan_range@?$vector@UUIEffectAniInfo@RouletteWnd@@V?$allocator@UUIEffectAniInfo@RouletteWnd@@@std@@@std@@IBEXPAUUIEffectAniInfo@RouletteWnd@@0@Z ; std::vector<RouletteWnd::UIEffectAniInfo,std::allocator<RouletteWnd::UIEffectAniInfo> >::_Orphan_range
; Function compile flags: /Ogsp
;	COMDAT ?_Orphan_range@?$vector@UUIEffectAniInfo@RouletteWnd@@V?$allocator@UUIEffectAniInfo@RouletteWnd@@@std@@@std@@IBEXPAUUIEffectAniInfo@RouletteWnd@@0@Z
_TEXT	SEGMENT
___formal$ = 8						; size = 4
___formal$ = 12						; size = 4
?_Orphan_range@?$vector@UUIEffectAniInfo@RouletteWnd@@V?$allocator@UUIEffectAniInfo@RouletteWnd@@@std@@@std@@IBEXPAUUIEffectAniInfo@RouletteWnd@@0@Z PROC ; std::vector<RouletteWnd::UIEffectAniInfo,std::allocator<RouletteWnd::UIEffectAniInfo> >::_Orphan_range, COMDAT
; _this$ = ecx

; 1454 : 		}

  00000	c2 08 00	 ret	 8
?_Orphan_range@?$vector@UUIEffectAniInfo@RouletteWnd@@V?$allocator@UUIEffectAniInfo@RouletteWnd@@@std@@@std@@IBEXPAUUIEffectAniInfo@RouletteWnd@@0@Z ENDP ; std::vector<RouletteWnd::UIEffectAniInfo,std::allocator<RouletteWnd::UIEffectAniInfo> >::_Orphan_range
_TEXT	ENDS
PUBLIC	??1?$_Vector_val@UUIEffectAniInfo@RouletteWnd@@V?$allocator@UUIEffectAniInfo@RouletteWnd@@@std@@@std@@QAE@XZ ; std::_Vector_val<RouletteWnd::UIEffectAniInfo,std::allocator<RouletteWnd::UIEffectAniInfo> >::~_Vector_val<RouletteWnd::UIEffectAniInfo,std::allocator<RouletteWnd::UIEffectAniInfo> >
; Function compile flags: /Ogsp
;	COMDAT ??1?$_Vector_val@UUIEffectAniInfo@RouletteWnd@@V?$allocator@UUIEffectAniInfo@RouletteWnd@@@std@@@std@@QAE@XZ
_TEXT	SEGMENT
??1?$_Vector_val@UUIEffectAniInfo@RouletteWnd@@V?$allocator@UUIEffectAniInfo@RouletteWnd@@@std@@@std@@QAE@XZ PROC ; std::_Vector_val<RouletteWnd::UIEffectAniInfo,std::allocator<RouletteWnd::UIEffectAniInfo> >::~_Vector_val<RouletteWnd::UIEffectAniInfo,std::allocator<RouletteWnd::UIEffectAniInfo> >, COMDAT
; _this$ = ecx

; 434  : 		}

  00000	c3		 ret	 0
??1?$_Vector_val@UUIEffectAniInfo@RouletteWnd@@V?$allocator@UUIEffectAniInfo@RouletteWnd@@@std@@@std@@QAE@XZ ENDP ; std::_Vector_val<RouletteWnd::UIEffectAniInfo,std::allocator<RouletteWnd::UIEffectAniInfo> >::~_Vector_val<RouletteWnd::UIEffectAniInfo,std::allocator<RouletteWnd::UIEffectAniInfo> >
_TEXT	ENDS
PUBLIC	??0?$allocator@UUIEffectAniInfo@RouletteWnd@@@std@@QAE@XZ ; std::allocator<RouletteWnd::UIEffectAniInfo>::allocator<RouletteWnd::UIEffectAniInfo>
; Function compile flags: /Ogsp
; File c:\program files (x86)\microsoft visual studio 10.0\vc\include\xmemory
;	COMDAT ??0?$allocator@UUIEffectAniInfo@RouletteWnd@@@std@@QAE@XZ
_TEXT	SEGMENT
??0?$allocator@UUIEffectAniInfo@RouletteWnd@@@std@@QAE@XZ PROC ; std::allocator<RouletteWnd::UIEffectAniInfo>::allocator<RouletteWnd::UIEffectAniInfo>, COMDAT
; _this$ = ecx

; 161  : 	_ALLOCATOR() _THROW0()

  00000	8b c1		 mov	 eax, ecx

; 162  : 		{	// construct default allocator (do nothing)
; 163  : 		}

  00002	c3		 ret	 0
??0?$allocator@UUIEffectAniInfo@RouletteWnd@@@std@@QAE@XZ ENDP ; std::allocator<RouletteWnd::UIEffectAniInfo>::allocator<RouletteWnd::UIEffectAniInfo>
_TEXT	ENDS
PUBLIC	??D?$_Vector_const_iterator@V?$_Vector_val@UUIEffectAniInfo@RouletteWnd@@V?$allocator@UUIEffectAniInfo@RouletteWnd@@@std@@@std@@@std@@QBEABUUIEffectAniInfo@RouletteWnd@@XZ ; std::_Vector_const_iterator<std::_Vector_val<RouletteWnd::UIEffectAniInfo,std::allocator<RouletteWnd::UIEffectAniInfo> > >::operator*
; Function compile flags: /Ogsp
; File c:\program files (x86)\microsoft visual studio 10.0\vc\include\vector
;	COMDAT ??D?$_Vector_const_iterator@V?$_Vector_val@UUIEffectAniInfo@RouletteWnd@@V?$allocator@UUIEffectAniInfo@RouletteWnd@@@std@@@std@@@std@@QBEABUUIEffectAniInfo@RouletteWnd@@XZ
_TEXT	SEGMENT
??D?$_Vector_const_iterator@V?$_Vector_val@UUIEffectAniInfo@RouletteWnd@@V?$allocator@UUIEffectAniInfo@RouletteWnd@@@std@@@std@@@std@@QBEABUUIEffectAniInfo@RouletteWnd@@XZ PROC ; std::_Vector_const_iterator<std::_Vector_val<RouletteWnd::UIEffectAniInfo,std::allocator<RouletteWnd::UIEffectAniInfo> > >::operator*, COMDAT
; _this$ = ecx

; 64   :  #if _ITERATOR_DEBUG_LEVEL == 2
; 65   : 		if (this->_Getcont() == 0
; 66   : 			|| this->_Ptr == 0
; 67   : 			|| this->_Ptr < ((_Myvec *)this->_Getcont())->_Myfirst
; 68   : 			|| ((_Myvec *)this->_Getcont())->_Mylast <= this->_Ptr)
; 69   : 			{	// report error
; 70   : 			_DEBUG_ERROR("vector iterator not dereferencable");
; 71   : 			_SCL_SECURE_OUT_OF_RANGE;
; 72   : 			}
; 73   : 
; 74   :  #elif _ITERATOR_DEBUG_LEVEL == 1
; 75   : 		_SCL_SECURE_VALIDATE(this->_Getcont() != 0);
; 76   : 		_SCL_SECURE_VALIDATE_RANGE(
; 77   : 			this->_Ptr != 0
; 78   : 			&& ((_Myvec *)this->_Getcont())->_Myfirst <= this->_Ptr
; 79   : 			&& this->_Ptr < ((_Myvec *)this->_Getcont())->_Mylast);
; 80   :  #endif /* _ITERATOR_DEBUG_LEVEL */
; 81   : 
; 82   : 		__analysis_assume(this->_Ptr != 0);
; 83   : 
; 84   : 		return (*this->_Ptr);

  00000	8b 01		 mov	 eax, DWORD PTR [ecx]

; 85   : 		}

  00002	c3		 ret	 0
??D?$_Vector_const_iterator@V?$_Vector_val@UUIEffectAniInfo@RouletteWnd@@V?$allocator@UUIEffectAniInfo@RouletteWnd@@@std@@@std@@@std@@QBEABUUIEffectAniInfo@RouletteWnd@@XZ ENDP ; std::_Vector_const_iterator<std::_Vector_val<RouletteWnd::UIEffectAniInfo,std::allocator<RouletteWnd::UIEffectAniInfo> > >::operator*
_TEXT	ENDS
PUBLIC	??E?$_Vector_const_iterator@V?$_Vector_val@UUIEffectAniInfo@RouletteWnd@@V?$allocator@UUIEffectAniInfo@RouletteWnd@@@std@@@std@@@std@@QAEAAV01@XZ ; std::_Vector_const_iterator<std::_Vector_val<RouletteWnd::UIEffectAniInfo,std::allocator<RouletteWnd::UIEffectAniInfo> > >::operator++
; Function compile flags: /Ogsp
;	COMDAT ??E?$_Vector_const_iterator@V?$_Vector_val@UUIEffectAniInfo@RouletteWnd@@V?$allocator@UUIEffectAniInfo@RouletteWnd@@@std@@@std@@@std@@QAEAAV01@XZ
_TEXT	SEGMENT
??E?$_Vector_const_iterator@V?$_Vector_val@UUIEffectAniInfo@RouletteWnd@@V?$allocator@UUIEffectAniInfo@RouletteWnd@@@std@@@std@@@std@@QAEAAV01@XZ PROC ; std::_Vector_const_iterator<std::_Vector_val<RouletteWnd::UIEffectAniInfo,std::allocator<RouletteWnd::UIEffectAniInfo> > >::operator++, COMDAT
; _this$ = ecx

; 93   : 		{	// preincrement

  00000	8b c1		 mov	 eax, ecx

; 94   :  #if _ITERATOR_DEBUG_LEVEL == 2
; 95   : 		if (this->_Getcont() == 0
; 96   : 			|| this->_Ptr == 0
; 97   : 			|| ((_Myvec *)this->_Getcont())->_Mylast <= this->_Ptr)
; 98   : 			{	// report error
; 99   : 			_DEBUG_ERROR("vector iterator not incrementable");
; 100  : 			_SCL_SECURE_OUT_OF_RANGE;
; 101  : 			}
; 102  : 
; 103  :  #elif _ITERATOR_DEBUG_LEVEL == 1
; 104  : 		_SCL_SECURE_VALIDATE(this->_Getcont() != 0);
; 105  : 		_SCL_SECURE_VALIDATE_RANGE(
; 106  : 			this->_Ptr != 0
; 107  : 			&& this->_Ptr < ((_Myvec *)this->_Getcont())->_Mylast);
; 108  :  #endif /* _ITERATOR_DEBUG_LEVEL */
; 109  : 
; 110  : 		++this->_Ptr;

  00002	83 00 20	 add	 DWORD PTR [eax], 32	; 00000020H

; 111  : 		return (*this);
; 112  : 		}

  00005	c3		 ret	 0
??E?$_Vector_const_iterator@V?$_Vector_val@UUIEffectAniInfo@RouletteWnd@@V?$allocator@UUIEffectAniInfo@RouletteWnd@@@std@@@std@@@std@@QAEAAV01@XZ ENDP ; std::_Vector_const_iterator<std::_Vector_val<RouletteWnd::UIEffectAniInfo,std::allocator<RouletteWnd::UIEffectAniInfo> > >::operator++
_TEXT	ENDS
PUBLIC	?capacity@?$vector@VioHashString@@V?$allocator@VioHashString@@@std@@@std@@QBEIXZ ; std::vector<ioHashString,std::allocator<ioHashString> >::capacity
; Function compile flags: /Ogsp
;	COMDAT ?capacity@?$vector@VioHashString@@V?$allocator@VioHashString@@@std@@@std@@QBEIXZ
_TEXT	SEGMENT
?capacity@?$vector@VioHashString@@V?$allocator@VioHashString@@@std@@@std@@QBEIXZ PROC ; std::vector<ioHashString,std::allocator<ioHashString> >::capacity, COMDAT
; _this$ = ecx

; 777  : 		return (this->_Myend - this->_Myfirst);

  00000	8b 41 08	 mov	 eax, DWORD PTR [ecx+8]
  00003	2b 01		 sub	 eax, DWORD PTR [ecx]
  00005	c1 f8 04	 sar	 eax, 4

; 778  : 		}

  00008	c3		 ret	 0
?capacity@?$vector@VioHashString@@V?$allocator@VioHashString@@@std@@@std@@QBEIXZ ENDP ; std::vector<ioHashString,std::allocator<ioHashString> >::capacity
_TEXT	ENDS
PUBLIC	?capacity@?$vector@UUIEffectAniInfo@RouletteWnd@@V?$allocator@UUIEffectAniInfo@RouletteWnd@@@std@@@std@@QBEIXZ ; std::vector<RouletteWnd::UIEffectAniInfo,std::allocator<RouletteWnd::UIEffectAniInfo> >::capacity
; Function compile flags: /Ogsp
;	COMDAT ?capacity@?$vector@UUIEffectAniInfo@RouletteWnd@@V?$allocator@UUIEffectAniInfo@RouletteWnd@@@std@@@std@@QBEIXZ
_TEXT	SEGMENT
?capacity@?$vector@UUIEffectAniInfo@RouletteWnd@@V?$allocator@UUIEffectAniInfo@RouletteWnd@@@std@@@std@@QBEIXZ PROC ; std::vector<RouletteWnd::UIEffectAniInfo,std::allocator<RouletteWnd::UIEffectAniInfo> >::capacity, COMDAT
; _this$ = ecx

; 777  : 		return (this->_Myend - this->_Myfirst);

  00000	8b 41 08	 mov	 eax, DWORD PTR [ecx+8]
  00003	2b 01		 sub	 eax, DWORD PTR [ecx]
  00005	c1 f8 05	 sar	 eax, 5

; 778  : 		}

  00008	c3		 ret	 0
?capacity@?$vector@UUIEffectAniInfo@RouletteWnd@@V?$allocator@UUIEffectAniInfo@RouletteWnd@@@std@@@std@@QBEIXZ ENDP ; std::vector<RouletteWnd::UIEffectAniInfo,std::allocator<RouletteWnd::UIEffectAniInfo> >::capacity
_TEXT	ENDS
PUBLIC	?size@?$vector@UUIEffectAniInfo@RouletteWnd@@V?$allocator@UUIEffectAniInfo@RouletteWnd@@@std@@@std@@QBEIXZ ; std::vector<RouletteWnd::UIEffectAniInfo,std::allocator<RouletteWnd::UIEffectAniInfo> >::size
; Function compile flags: /Ogsp
;	COMDAT ?size@?$vector@UUIEffectAniInfo@RouletteWnd@@V?$allocator@UUIEffectAniInfo@RouletteWnd@@@std@@@std@@QBEIXZ
_TEXT	SEGMENT
?size@?$vector@UUIEffectAniInfo@RouletteWnd@@V?$allocator@UUIEffectAniInfo@RouletteWnd@@@std@@@std@@QBEIXZ PROC ; std::vector<RouletteWnd::UIEffectAniInfo,std::allocator<RouletteWnd::UIEffectAniInfo> >::size, COMDAT
; _this$ = ecx

; 879  : 		return (this->_Mylast - this->_Myfirst);

  00000	8b 41 04	 mov	 eax, DWORD PTR [ecx+4]
  00003	2b 01		 sub	 eax, DWORD PTR [ecx]
  00005	c1 f8 05	 sar	 eax, 5

; 880  : 		}

  00008	c3		 ret	 0
?size@?$vector@UUIEffectAniInfo@RouletteWnd@@V?$allocator@UUIEffectAniInfo@RouletteWnd@@@std@@@std@@QBEIXZ ENDP ; std::vector<RouletteWnd::UIEffectAniInfo,std::allocator<RouletteWnd::UIEffectAniInfo> >::size
_TEXT	ENDS
PUBLIC	??_C@_0BD@OLBABOEK@vector?$DMT?$DO?5too?5long?$AA@ ; `string'
PUBLIC	?_Xlen@?$vector@UUIEffectAniInfo@RouletteWnd@@V?$allocator@UUIEffectAniInfo@RouletteWnd@@@std@@@std@@IBEXXZ ; std::vector<RouletteWnd::UIEffectAniInfo,std::allocator<RouletteWnd::UIEffectAniInfo> >::_Xlen
EXTRN	__imp_?_Xlength_error@std@@YAXPBD@Z:PROC
;	COMDAT ??_C@_0BD@OLBABOEK@vector?$DMT?$DO?5too?5long?$AA@
CONST	SEGMENT
??_C@_0BD@OLBABOEK@vector?$DMT?$DO?5too?5long?$AA@ DB 'vector<T> too long'
	DB	00H						; `string'
; Function compile flags: /Ogsp
CONST	ENDS
;	COMDAT ?_Xlen@?$vector@UUIEffectAniInfo@RouletteWnd@@V?$allocator@UUIEffectAniInfo@RouletteWnd@@@std@@@std@@IBEXXZ
_TEXT	SEGMENT
?_Xlen@?$vector@UUIEffectAniInfo@RouletteWnd@@V?$allocator@UUIEffectAniInfo@RouletteWnd@@@std@@@std@@IBEXXZ PROC ; std::vector<RouletteWnd::UIEffectAniInfo,std::allocator<RouletteWnd::UIEffectAniInfo> >::_Xlen, COMDAT
; _this$ = ecx

; 1427 : 		_Xlength_error("vector<T> too long");

  00000	68 00 00 00 00	 push	 OFFSET ??_C@_0BD@OLBABOEK@vector?$DMT?$DO?5too?5long?$AA@
  00005	ff 15 00 00 00
	00		 call	 DWORD PTR __imp_?_Xlength_error@std@@YAXPBD@Z
$LN4@Xlen:
$LN3@Xlen:
  0000b	cc		 int	 3
?_Xlen@?$vector@UUIEffectAniInfo@RouletteWnd@@V?$allocator@UUIEffectAniInfo@RouletteWnd@@@std@@@std@@IBEXXZ ENDP ; std::vector<RouletteWnd::UIEffectAniInfo,std::allocator<RouletteWnd::UIEffectAniInfo> >::_Xlen
_TEXT	ENDS
PUBLIC	??0?$allocator@UUIEffectAniInfo@RouletteWnd@@@std@@QAE@ABV01@@Z ; std::allocator<RouletteWnd::UIEffectAniInfo>::allocator<RouletteWnd::UIEffectAniInfo>
; Function compile flags: /Ogsp
; File c:\program files (x86)\microsoft visual studio 10.0\vc\include\xmemory
;	COMDAT ??0?$allocator@UUIEffectAniInfo@RouletteWnd@@@std@@QAE@ABV01@@Z
_TEXT	SEGMENT
___formal$ = 8						; size = 4
??0?$allocator@UUIEffectAniInfo@RouletteWnd@@@std@@QAE@ABV01@@Z PROC ; std::allocator<RouletteWnd::UIEffectAniInfo>::allocator<RouletteWnd::UIEffectAniInfo>, COMDAT
; _this$ = ecx

; 165  : 	_ALLOCATOR(const _ALLOCATOR<_Ty>&) _THROW0()

  00000	8b c1		 mov	 eax, ecx

; 166  : 		{	// construct by copying (do nothing)
; 167  : 		}

  00002	c2 04 00	 ret	 4
??0?$allocator@UUIEffectAniInfo@RouletteWnd@@@std@@QAE@ABV01@@Z ENDP ; std::allocator<RouletteWnd::UIEffectAniInfo>::allocator<RouletteWnd::UIEffectAniInfo>
_TEXT	ENDS
PUBLIC	?deallocate@?$allocator@UUIEffectAniInfo@RouletteWnd@@@std@@QAEXPAUUIEffectAniInfo@RouletteWnd@@I@Z ; std::allocator<RouletteWnd::UIEffectAniInfo>::deallocate
; Function compile flags: /Ogsp
;	COMDAT ?deallocate@?$allocator@UUIEffectAniInfo@RouletteWnd@@@std@@QAEXPAUUIEffectAniInfo@RouletteWnd@@I@Z
_TEXT	SEGMENT
__Ptr$ = 8						; size = 4
___formal$ = 12						; size = 4
?deallocate@?$allocator@UUIEffectAniInfo@RouletteWnd@@@std@@QAEXPAUUIEffectAniInfo@RouletteWnd@@I@Z PROC ; std::allocator<RouletteWnd::UIEffectAniInfo>::deallocate, COMDAT
; _this$ = ecx

; 181  : 		{	// deallocate object at _Ptr, ignore size

  00000	55		 push	 ebp
  00001	8b ec		 mov	 ebp, esp

; 182  : 		::operator delete(_Ptr);

  00003	ff 75 08	 push	 DWORD PTR __Ptr$[ebp]
  00006	e8 00 00 00 00	 call	 ??3@YAXPAX@Z		; operator delete
  0000b	59		 pop	 ecx

; 183  : 		}

  0000c	5d		 pop	 ebp
  0000d	c2 08 00	 ret	 8
?deallocate@?$allocator@UUIEffectAniInfo@RouletteWnd@@@std@@QAEXPAUUIEffectAniInfo@RouletteWnd@@I@Z ENDP ; std::allocator<RouletteWnd::UIEffectAniInfo>::deallocate
_TEXT	ENDS
PUBLIC	??0?$_Vector_const_iterator@V?$_Vector_val@UUIEffectAniInfo@RouletteWnd@@V?$allocator@UUIEffectAniInfo@RouletteWnd@@@std@@@std@@@std@@QAE@PAUUIEffectAniInfo@RouletteWnd@@PBU_Container_base0@1@@Z ; std::_Vector_const_iterator<std::_Vector_val<RouletteWnd::UIEffectAniInfo,std::allocator<RouletteWnd::UIEffectAniInfo> > >::_Vector_const_iterator<std::_Vector_val<RouletteWnd::UIEffectAniInfo,std::allocator<RouletteWnd::UIEffectAniInfo> > >
; Function compile flags: /Ogsp
; File c:\program files (x86)\microsoft visual studio 10.0\vc\include\vector
;	COMDAT ??0?$_Vector_const_iterator@V?$_Vector_val@UUIEffectAniInfo@RouletteWnd@@V?$allocator@UUIEffectAniInfo@RouletteWnd@@@std@@@std@@@std@@QAE@PAUUIEffectAniInfo@RouletteWnd@@PBU_Container_base0@1@@Z
_TEXT	SEGMENT
__Parg$ = 8						; size = 4
__Pvector$ = 12						; size = 4
??0?$_Vector_const_iterator@V?$_Vector_val@UUIEffectAniInfo@RouletteWnd@@V?$allocator@UUIEffectAniInfo@RouletteWnd@@@std@@@std@@@std@@QAE@PAUUIEffectAniInfo@RouletteWnd@@PBU_Container_base0@1@@Z PROC ; std::_Vector_const_iterator<std::_Vector_val<RouletteWnd::UIEffectAniInfo,std::allocator<RouletteWnd::UIEffectAniInfo> > >::_Vector_const_iterator<std::_Vector_val<RouletteWnd::UIEffectAniInfo,std::allocator<RouletteWnd::UIEffectAniInfo> > >, COMDAT
; _this$ = ecx

; 45   : 		{	// construct with pointer _Parg

  00000	55		 push	 ebp
  00001	8b ec		 mov	 ebp, esp
  00003	8b c1		 mov	 eax, ecx
  00005	8b 4d 08	 mov	 ecx, DWORD PTR __Parg$[ebp]
  00008	89 08		 mov	 DWORD PTR [eax], ecx

; 46   : 		this->_Adopt(_Pvector);
; 47   : 		}

  0000a	5d		 pop	 ebp
  0000b	c2 08 00	 ret	 8
??0?$_Vector_const_iterator@V?$_Vector_val@UUIEffectAniInfo@RouletteWnd@@V?$allocator@UUIEffectAniInfo@RouletteWnd@@@std@@@std@@@std@@QAE@PAUUIEffectAniInfo@RouletteWnd@@PBU_Container_base0@1@@Z ENDP ; std::_Vector_const_iterator<std::_Vector_val<RouletteWnd::UIEffectAniInfo,std::allocator<RouletteWnd::UIEffectAniInfo> > >::_Vector_const_iterator<std::_Vector_val<RouletteWnd::UIEffectAniInfo,std::allocator<RouletteWnd::UIEffectAniInfo> > >
_TEXT	ENDS
PUBLIC	?_Compat@?$_Vector_const_iterator@V?$_Vector_val@UUIEffectAniInfo@RouletteWnd@@V?$allocator@UUIEffectAniInfo@RouletteWnd@@@std@@@std@@@std@@QBEXABV12@@Z ; std::_Vector_const_iterator<std::_Vector_val<RouletteWnd::UIEffectAniInfo,std::allocator<RouletteWnd::UIEffectAniInfo> > >::_Compat
; Function compile flags: /Ogsp
;	COMDAT ?_Compat@?$_Vector_const_iterator@V?$_Vector_val@UUIEffectAniInfo@RouletteWnd@@V?$allocator@UUIEffectAniInfo@RouletteWnd@@@std@@@std@@@std@@QBEXABV12@@Z
_TEXT	SEGMENT
___formal$ = 8						; size = 4
?_Compat@?$_Vector_const_iterator@V?$_Vector_val@UUIEffectAniInfo@RouletteWnd@@V?$allocator@UUIEffectAniInfo@RouletteWnd@@@std@@@std@@@std@@QBEXABV12@@Z PROC ; std::_Vector_const_iterator<std::_Vector_val<RouletteWnd::UIEffectAniInfo,std::allocator<RouletteWnd::UIEffectAniInfo> > >::_Compat, COMDAT
; _this$ = ecx

; 253  : 		}

  00000	c2 04 00	 ret	 4
?_Compat@?$_Vector_const_iterator@V?$_Vector_val@UUIEffectAniInfo@RouletteWnd@@V?$allocator@UUIEffectAniInfo@RouletteWnd@@@std@@@std@@@std@@QBEXABV12@@Z ENDP ; std::_Vector_const_iterator<std::_Vector_val<RouletteWnd::UIEffectAniInfo,std::allocator<RouletteWnd::UIEffectAniInfo> > >::_Compat
_TEXT	ENDS
PUBLIC	?max_size@?$allocator@UUIEffectAniInfo@RouletteWnd@@@std@@QBEIXZ ; std::allocator<RouletteWnd::UIEffectAniInfo>::max_size
; Function compile flags: /Ogsp
; File c:\program files (x86)\microsoft visual studio 10.0\vc\include\xmemory
;	COMDAT ?max_size@?$allocator@UUIEffectAniInfo@RouletteWnd@@@std@@QBEIXZ
_TEXT	SEGMENT
?max_size@?$allocator@UUIEffectAniInfo@RouletteWnd@@@std@@QBEIXZ PROC ; std::allocator<RouletteWnd::UIEffectAniInfo>::max_size, COMDAT
; _this$ = ecx

; 218  : 		_SIZT _Count = (_SIZT)(-1) / sizeof (_Ty);
; 219  : 		return (0 < _Count ? _Count : 1);

  00000	b8 ff ff ff 07	 mov	 eax, 134217727		; 07ffffffH

; 220  : 		}

  00005	c3		 ret	 0
?max_size@?$allocator@UUIEffectAniInfo@RouletteWnd@@@std@@QBEIXZ ENDP ; std::allocator<RouletteWnd::UIEffectAniInfo>::max_size
_TEXT	ENDS
PUBLIC	??$addressof@$$CBVioHashString@@@std@@YAPBVioHashString@@ABV1@@Z ; std::addressof<ioHashString const >
; Function compile flags: /Ogsp
;	COMDAT ??$addressof@$$CBVioHashString@@@std@@YAPBVioHashString@@ABV1@@Z
_TEXT	SEGMENT
__Val$ = 8						; size = 4
??$addressof@$$CBVioHashString@@@std@@YAPBVioHashString@@ABV1@@Z PROC ; std::addressof<ioHashString const >, COMDAT

; 110  : 	{	// return address of _Val

  00000	55		 push	 ebp
  00001	8b ec		 mov	 ebp, esp

; 111  : 	return ((_Ty *) &(char&)_Val);

  00003	8b 45 08	 mov	 eax, DWORD PTR __Val$[ebp]

; 112  : 	}

  00006	5d		 pop	 ebp
  00007	c3		 ret	 0
??$addressof@$$CBVioHashString@@@std@@YAPBVioHashString@@ABV1@@Z ENDP ; std::addressof<ioHashString const >
_TEXT	ENDS
PUBLIC	??$addressof@$$CBUUIEffectAniInfo@RouletteWnd@@@std@@YAPBUUIEffectAniInfo@RouletteWnd@@ABU12@@Z ; std::addressof<RouletteWnd::UIEffectAniInfo const >
; Function compile flags: /Ogsp
;	COMDAT ??$addressof@$$CBUUIEffectAniInfo@RouletteWnd@@@std@@YAPBUUIEffectAniInfo@RouletteWnd@@ABU12@@Z
_TEXT	SEGMENT
__Val$ = 8						; size = 4
??$addressof@$$CBUUIEffectAniInfo@RouletteWnd@@@std@@YAPBUUIEffectAniInfo@RouletteWnd@@ABU12@@Z PROC ; std::addressof<RouletteWnd::UIEffectAniInfo const >, COMDAT

; 110  : 	{	// return address of _Val

  00000	55		 push	 ebp
  00001	8b ec		 mov	 ebp, esp

; 111  : 	return ((_Ty *) &(char&)_Val);

  00003	8b 45 08	 mov	 eax, DWORD PTR __Val$[ebp]

; 112  : 	}

  00006	5d		 pop	 ebp
  00007	c3		 ret	 0
??$addressof@$$CBUUIEffectAniInfo@RouletteWnd@@@std@@YAPBUUIEffectAniInfo@RouletteWnd@@ABU12@@Z ENDP ; std::addressof<RouletteWnd::UIEffectAniInfo const >
_TEXT	ENDS
PUBLIC	__TI2?AVbad_alloc@std@@
PUBLIC	??$_Allocate@UUIEffectAniInfo@RouletteWnd@@@std@@YAPAUUIEffectAniInfo@RouletteWnd@@IPAU12@@Z ; std::_Allocate<RouletteWnd::UIEffectAniInfo>
PUBLIC	__CTA2?AVbad_alloc@std@@
PUBLIC	__CT??_R0?AVbad_alloc@std@@@8??0bad_alloc@std@@QAE@ABV01@@Z12
PUBLIC	??0bad_alloc@std@@QAE@ABV01@@Z			; std::bad_alloc::bad_alloc
PUBLIC	__CT??_R0?AVexception@std@@@8??0exception@std@@QAE@ABV01@@Z12
EXTRN	??2@YAPAXI@Z:PROC				; operator new
EXTRN	__CxxThrowException@8:PROC
EXTRN	??0exception@std@@QAE@ABV01@@Z:PROC		; std::exception::exception
;	COMDAT __CT??_R0?AVexception@std@@@8??0exception@std@@QAE@ABV01@@Z12
; File c:\program files (x86)\microsoft visual studio 10.0\vc\include\exception
xdata$x	SEGMENT
__CT??_R0?AVexception@std@@@8??0exception@std@@QAE@ABV01@@Z12 DD 00H
	DD	FLAT:??_R0?AVexception@std@@@8
	DD	00H
	DD	0ffffffffH
	ORG $+4
	DD	0cH
	DD	FLAT:??0exception@std@@QAE@ABV01@@Z
xdata$x	ENDS
;	COMDAT __CT??_R0?AVbad_alloc@std@@@8??0bad_alloc@std@@QAE@ABV01@@Z12
xdata$x	SEGMENT
__CT??_R0?AVbad_alloc@std@@@8??0bad_alloc@std@@QAE@ABV01@@Z12 DD 00H
	DD	FLAT:??_R0?AVbad_alloc@std@@@8
	DD	00H
	DD	0ffffffffH
	ORG $+4
	DD	0cH
	DD	FLAT:??0bad_alloc@std@@QAE@ABV01@@Z
xdata$x	ENDS
;	COMDAT __CTA2?AVbad_alloc@std@@
xdata$x	SEGMENT
__CTA2?AVbad_alloc@std@@ DD 02H
	DD	FLAT:__CT??_R0?AVbad_alloc@std@@@8??0bad_alloc@std@@QAE@ABV01@@Z12
	DD	FLAT:__CT??_R0?AVexception@std@@@8??0exception@std@@QAE@ABV01@@Z12
xdata$x	ENDS
;	COMDAT __TI2?AVbad_alloc@std@@
xdata$x	SEGMENT
__TI2?AVbad_alloc@std@@ DD 00H
	DD	FLAT:??1bad_alloc@std@@UAE@XZ
	DD	00H
	DD	FLAT:__CTA2?AVbad_alloc@std@@
; Function compile flags: /Ogsp
; File c:\program files (x86)\microsoft visual studio 10.0\vc\include\xmemory
xdata$x	ENDS
;	COMDAT ??$_Allocate@UUIEffectAniInfo@RouletteWnd@@@std@@YAPAUUIEffectAniInfo@RouletteWnd@@IPAU12@@Z
_TEXT	SEGMENT
$T509482 = -12						; size = 12
$T509487 = 8						; size = 4
__Count$ = 8						; size = 4
___formal$ = 12						; size = 4
??$_Allocate@UUIEffectAniInfo@RouletteWnd@@@std@@YAPAUUIEffectAniInfo@RouletteWnd@@IPAU12@@Z PROC ; std::_Allocate<RouletteWnd::UIEffectAniInfo>, COMDAT

; 30   : 	{	// allocate storage for _Count elements of type _Ty

  00000	55		 push	 ebp
  00001	8b ec		 mov	 ebp, esp

; 31   : 	void *_Ptr = 0;
; 32   : 
; 33   : 	if (_Count <= 0)

  00003	8b 4d 08	 mov	 ecx, DWORD PTR __Count$[ebp]
  00006	83 ec 0c	 sub	 esp, 12			; 0000000cH
  00009	33 c0		 xor	 eax, eax
  0000b	85 c9		 test	 ecx, ecx

; 34   : 		_Count = 0;
; 35   : 	else if (((_SIZT)(-1) / sizeof (_Ty) < _Count)

  0000d	74 3c		 je	 SHORT $LN5@Allocate

; 36   : 		|| (_Ptr = ::operator new(_Count * sizeof (_Ty))) == 0)

  0000f	81 f9 ff ff ff
	07		 cmp	 ecx, 134217727		; 07ffffffH
  00015	77 0e		 ja	 SHORT $LN1@Allocate
  00017	c1 e1 05	 shl	 ecx, 5
  0001a	51		 push	 ecx
  0001b	e8 00 00 00 00	 call	 ??2@YAPAXI@Z		; operator new
  00020	59		 pop	 ecx
  00021	85 c0		 test	 eax, eax

; 38   : 
; 39   : 	return ((_Ty _FARQ *)_Ptr);

  00023	75 26		 jne	 SHORT $LN5@Allocate
$LN1@Allocate:

; 37   : 		_THROW_NCEE(bad_alloc, 0);

  00025	83 65 08 00	 and	 DWORD PTR $T509487[ebp], 0
  00029	8d 45 08	 lea	 eax, DWORD PTR $T509487[ebp]
  0002c	50		 push	 eax
  0002d	8d 4d f4	 lea	 ecx, DWORD PTR $T509482[ebp]
  00030	ff 15 00 00 00
	00		 call	 DWORD PTR __imp_??0exception@std@@QAE@ABQBD@Z
  00036	68 00 00 00 00	 push	 OFFSET __TI2?AVbad_alloc@std@@
  0003b	8d 45 f4	 lea	 eax, DWORD PTR $T509482[ebp]
  0003e	50		 push	 eax
  0003f	c7 45 f4 00 00
	00 00		 mov	 DWORD PTR $T509482[ebp], OFFSET ??_7bad_alloc@std@@6B@
  00046	e8 00 00 00 00	 call	 __CxxThrowException@8
$LN10@Allocate:
$LN5@Allocate:

; 40   : 	}

  0004b	c9		 leave
  0004c	c3		 ret	 0
$LN9@Allocate:
??$_Allocate@UUIEffectAniInfo@RouletteWnd@@@std@@YAPAUUIEffectAniInfo@RouletteWnd@@IPAU12@@Z ENDP ; std::_Allocate<RouletteWnd::UIEffectAniInfo>
_TEXT	ENDS
PUBLIC	??$forward@AAUUIEffectAniInfo@RouletteWnd@@@std@@YAAAUUIEffectAniInfo@RouletteWnd@@AAU12@@Z ; std::forward<RouletteWnd::UIEffectAniInfo &>
; Function compile flags: /Ogsp
; File c:\program files (x86)\microsoft visual studio 10.0\vc\include\utility
;	COMDAT ??$forward@AAUUIEffectAniInfo@RouletteWnd@@@std@@YAAAUUIEffectAniInfo@RouletteWnd@@AAU12@@Z
_TEXT	SEGMENT
__Arg$ = 8						; size = 4
??$forward@AAUUIEffectAniInfo@RouletteWnd@@@std@@YAAAUUIEffectAniInfo@RouletteWnd@@AAU12@@Z PROC ; std::forward<RouletteWnd::UIEffectAniInfo &>, COMDAT

; 78   : 	{	// forward _Arg, given explicitly specified type parameter

  00000	55		 push	 ebp
  00001	8b ec		 mov	 ebp, esp

; 79   : 	return ((_Ty&&)_Arg);

  00003	8b 45 08	 mov	 eax, DWORD PTR __Arg$[ebp]

; 80   : 	}

  00006	5d		 pop	 ebp
  00007	c3		 ret	 0
??$forward@AAUUIEffectAniInfo@RouletteWnd@@@std@@YAAAUUIEffectAniInfo@RouletteWnd@@AAU12@@Z ENDP ; std::forward<RouletteWnd::UIEffectAniInfo &>
_TEXT	ENDS
PUBLIC	??$construct@AAUUIEffectAniInfo@RouletteWnd@@@?$allocator@UUIEffectAniInfo@RouletteWnd@@@std@@QAEXPAUUIEffectAniInfo@RouletteWnd@@AAU23@@Z ; std::allocator<RouletteWnd::UIEffectAniInfo>::construct<RouletteWnd::UIEffectAniInfo &>
; Function compile flags: /Ogsp
; File c:\program files (x86)\microsoft visual studio 10.0\vc\include\xmemory
;	COMDAT ??$construct@AAUUIEffectAniInfo@RouletteWnd@@@?$allocator@UUIEffectAniInfo@RouletteWnd@@@std@@QAEXPAUUIEffectAniInfo@RouletteWnd@@AAU23@@Z
_TEXT	SEGMENT
__Ptr$ = 8						; size = 4
__Val$ = 12						; size = 4
??$construct@AAUUIEffectAniInfo@RouletteWnd@@@?$allocator@UUIEffectAniInfo@RouletteWnd@@@std@@QAEXPAUUIEffectAniInfo@RouletteWnd@@AAU23@@Z PROC ; std::allocator<RouletteWnd::UIEffectAniInfo>::construct<RouletteWnd::UIEffectAniInfo &>, COMDAT
; _this$ = ecx

; 206  : 		void construct(pointer _Ptr, _Other&& _Val)

  00000	55		 push	 ebp
  00001	8b ec		 mov	 ebp, esp
  00003	57		 push	 edi

; 207  : 		{	// construct object at _Ptr with value _Val
; 208  : 		::new ((void _FARQ *)_Ptr) _Ty(_STD forward<_Other>(_Val));

  00004	8b 7d 08	 mov	 edi, DWORD PTR __Ptr$[ebp]
  00007	85 ff		 test	 edi, edi
  00009	74 0a		 je	 SHORT $LN3@construct
  0000b	56		 push	 esi
  0000c	8b 75 0c	 mov	 esi, DWORD PTR __Val$[ebp]
  0000f	6a 08		 push	 8
  00011	59		 pop	 ecx
  00012	f3 a5		 rep movsd
  00014	5e		 pop	 esi
$LN3@construct:
  00015	5f		 pop	 edi

; 209  : 		}

  00016	5d		 pop	 ebp
  00017	c2 08 00	 ret	 8
??$construct@AAUUIEffectAniInfo@RouletteWnd@@@?$allocator@UUIEffectAniInfo@RouletteWnd@@@std@@QAEXPAUUIEffectAniInfo@RouletteWnd@@AAU23@@Z ENDP ; std::allocator<RouletteWnd::UIEffectAniInfo>::construct<RouletteWnd::UIEffectAniInfo &>
_TEXT	ENDS
PUBLIC	??$forward@ABUUIEffectAniInfo@RouletteWnd@@@std@@YAABUUIEffectAniInfo@RouletteWnd@@ABU12@@Z ; std::forward<RouletteWnd::UIEffectAniInfo const &>
; Function compile flags: /Ogsp
; File c:\program files (x86)\microsoft visual studio 10.0\vc\include\utility
;	COMDAT ??$forward@ABUUIEffectAniInfo@RouletteWnd@@@std@@YAABUUIEffectAniInfo@RouletteWnd@@ABU12@@Z
_TEXT	SEGMENT
__Arg$ = 8						; size = 4
??$forward@ABUUIEffectAniInfo@RouletteWnd@@@std@@YAABUUIEffectAniInfo@RouletteWnd@@ABU12@@Z PROC ; std::forward<RouletteWnd::UIEffectAniInfo const &>, COMDAT

; 78   : 	{	// forward _Arg, given explicitly specified type parameter

  00000	55		 push	 ebp
  00001	8b ec		 mov	 ebp, esp

; 79   : 	return ((_Ty&&)_Arg);

  00003	8b 45 08	 mov	 eax, DWORD PTR __Arg$[ebp]

; 80   : 	}

  00006	5d		 pop	 ebp
  00007	c3		 ret	 0
??$forward@ABUUIEffectAniInfo@RouletteWnd@@@std@@YAABUUIEffectAniInfo@RouletteWnd@@ABU12@@Z ENDP ; std::forward<RouletteWnd::UIEffectAniInfo const &>
_TEXT	ENDS
PUBLIC	??$_Ptr_cat@UUIEffectAniInfo@RouletteWnd@@U12@@std@@YA?AU_Nonscalar_ptr_iterator_tag@0@PAUUIEffectAniInfo@RouletteWnd@@0@Z ; std::_Ptr_cat<RouletteWnd::UIEffectAniInfo,RouletteWnd::UIEffectAniInfo>
; Function compile flags: /Ogsp
; File c:\program files (x86)\microsoft visual studio 10.0\vc\include\xutility
;	COMDAT ??$_Ptr_cat@UUIEffectAniInfo@RouletteWnd@@U12@@std@@YA?AU_Nonscalar_ptr_iterator_tag@0@PAUUIEffectAniInfo@RouletteWnd@@0@Z
_TEXT	SEGMENT
__Cat$ = -1						; size = 1
___formal$ = 8						; size = 4
___formal$ = 12						; size = 4
??$_Ptr_cat@UUIEffectAniInfo@RouletteWnd@@U12@@std@@YA?AU_Nonscalar_ptr_iterator_tag@0@PAUUIEffectAniInfo@RouletteWnd@@0@Z PROC ; std::_Ptr_cat<RouletteWnd::UIEffectAniInfo,RouletteWnd::UIEffectAniInfo>, COMDAT

; 516  : 	{	// return pointer category from pointers

  00000	55		 push	 ebp
  00001	8b ec		 mov	 ebp, esp
  00003	51		 push	 ecx

; 517  : 	typename _Ptr_cat_helper<_Elem1, _Elem2>::_Type _Cat;
; 518  : 	return (_Cat);

  00004	8a 45 ff	 mov	 al, BYTE PTR __Cat$[ebp]

; 519  : 	}

  00007	c9		 leave
  00008	c3		 ret	 0
??$_Ptr_cat@UUIEffectAniInfo@RouletteWnd@@U12@@std@@YA?AU_Nonscalar_ptr_iterator_tag@0@PAUUIEffectAniInfo@RouletteWnd@@0@Z ENDP ; std::_Ptr_cat<RouletteWnd::UIEffectAniInfo,RouletteWnd::UIEffectAniInfo>
_TEXT	ENDS
PUBLIC	??$_Construct@UUIEffectAniInfo@RouletteWnd@@ABU12@@std@@YAXPAUUIEffectAniInfo@RouletteWnd@@ABU12@@Z ; std::_Construct<RouletteWnd::UIEffectAniInfo,RouletteWnd::UIEffectAniInfo const &>
; Function compile flags: /Ogsp
; File c:\program files (x86)\microsoft visual studio 10.0\vc\include\xmemory
;	COMDAT ??$_Construct@UUIEffectAniInfo@RouletteWnd@@ABU12@@std@@YAXPAUUIEffectAniInfo@RouletteWnd@@ABU12@@Z
_TEXT	SEGMENT
__Ptr$ = 8						; size = 4
__Val$ = 12						; size = 4
??$_Construct@UUIEffectAniInfo@RouletteWnd@@ABU12@@std@@YAXPAUUIEffectAniInfo@RouletteWnd@@ABU12@@Z PROC ; std::_Construct<RouletteWnd::UIEffectAniInfo,RouletteWnd::UIEffectAniInfo const &>, COMDAT

; 46   : 	{	// construct object at _Ptr with value _Val

  00000	55		 push	 ebp
  00001	8b ec		 mov	 ebp, esp
  00003	57		 push	 edi

; 47   : 	void _FARQ *_Vptr = _Ptr;
; 48   : 	::new (_Vptr) _Ty1(_STD forward<_Ty2>(_Val));

  00004	8b 7d 08	 mov	 edi, DWORD PTR __Ptr$[ebp]
  00007	85 ff		 test	 edi, edi
  00009	74 0a		 je	 SHORT $LN3@Construct
  0000b	56		 push	 esi
  0000c	8b 75 0c	 mov	 esi, DWORD PTR __Val$[ebp]
  0000f	6a 08		 push	 8
  00011	59		 pop	 ecx
  00012	f3 a5		 rep movsd
  00014	5e		 pop	 esi
$LN3@Construct:
  00015	5f		 pop	 edi

; 49   : 	}

  00016	5d		 pop	 ebp
  00017	c3		 ret	 0
??$_Construct@UUIEffectAniInfo@RouletteWnd@@ABU12@@std@@YAXPAUUIEffectAniInfo@RouletteWnd@@ABU12@@Z ENDP ; std::_Construct<RouletteWnd::UIEffectAniInfo,RouletteWnd::UIEffectAniInfo const &>
_TEXT	ENDS
PUBLIC	??$move@AAUUIEffectAniInfo@RouletteWnd@@@std@@YA$$QAUUIEffectAniInfo@RouletteWnd@@AAU12@@Z ; std::move<RouletteWnd::UIEffectAniInfo &>
; Function compile flags: /Ogsp
; File c:\program files (x86)\microsoft visual studio 10.0\vc\include\utility
;	COMDAT ??$move@AAUUIEffectAniInfo@RouletteWnd@@@std@@YA$$QAUUIEffectAniInfo@RouletteWnd@@AAU12@@Z
_TEXT	SEGMENT
__Arg$ = 8						; size = 4
??$move@AAUUIEffectAniInfo@RouletteWnd@@@std@@YA$$QAUUIEffectAniInfo@RouletteWnd@@AAU12@@Z PROC ; std::move<RouletteWnd::UIEffectAniInfo &>, COMDAT

; 86   : 	{	// forward _Arg as movable

  00000	55		 push	 ebp
  00001	8b ec		 mov	 ebp, esp

; 87   : 	return ((typename tr1::_Remove_reference<_Ty>::_Type&&)_Arg);

  00003	8b 45 08	 mov	 eax, DWORD PTR __Arg$[ebp]

; 88   : 	}

  00006	5d		 pop	 ebp
  00007	c3		 ret	 0
??$move@AAUUIEffectAniInfo@RouletteWnd@@@std@@YA$$QAUUIEffectAniInfo@RouletteWnd@@AAU12@@Z ENDP ; std::move<RouletteWnd::UIEffectAniInfo &>
_TEXT	ENDS
PUBLIC	??$_Val_type@PAVioHashString@@@std@@YAPAVioHashString@@PAV1@@Z ; std::_Val_type<ioHashString *>
; Function compile flags: /Ogsp
; File c:\program files (x86)\microsoft visual studio 10.0\vc\include\xutility
;	COMDAT ??$_Val_type@PAVioHashString@@@std@@YAPAVioHashString@@PAV1@@Z
_TEXT	SEGMENT
___formal$ = 8						; size = 4
??$_Val_type@PAVioHashString@@@std@@YAPAVioHashString@@PAV1@@Z PROC ; std::_Val_type<ioHashString *>, COMDAT

; 790  : 	return (0);

  00000	33 c0		 xor	 eax, eax

; 791  : 	}

  00002	c3		 ret	 0
??$_Val_type@PAVioHashString@@@std@@YAPAVioHashString@@PAV1@@Z ENDP ; std::_Val_type<ioHashString *>
_TEXT	ENDS
PUBLIC	??$_Val_type@PAUUIEffectAniInfo@RouletteWnd@@@std@@YAPAUUIEffectAniInfo@RouletteWnd@@PAU12@@Z ; std::_Val_type<RouletteWnd::UIEffectAniInfo *>
; Function compile flags: /Ogsp
;	COMDAT ??$_Val_type@PAUUIEffectAniInfo@RouletteWnd@@@std@@YAPAUUIEffectAniInfo@RouletteWnd@@PAU12@@Z
_TEXT	SEGMENT
___formal$ = 8						; size = 4
??$_Val_type@PAUUIEffectAniInfo@RouletteWnd@@@std@@YAPAUUIEffectAniInfo@RouletteWnd@@PAU12@@Z PROC ; std::_Val_type<RouletteWnd::UIEffectAniInfo *>, COMDAT

; 790  : 	return (0);

  00000	33 c0		 xor	 eax, eax

; 791  : 	}

  00002	c3		 ret	 0
??$_Val_type@PAUUIEffectAniInfo@RouletteWnd@@@std@@YAPAUUIEffectAniInfo@RouletteWnd@@PAU12@@Z ENDP ; std::_Val_type<RouletteWnd::UIEffectAniInfo *>
_TEXT	ENDS
PUBLIC	??$_Destroy@UUIEffectAniInfo@RouletteWnd@@@std@@YAXPAUUIEffectAniInfo@RouletteWnd@@@Z ; std::_Destroy<RouletteWnd::UIEffectAniInfo>
; Function compile flags: /Ogsp
; File c:\program files (x86)\microsoft visual studio 10.0\vc\include\xmemory
;	COMDAT ??$_Destroy@UUIEffectAniInfo@RouletteWnd@@@std@@YAXPAUUIEffectAniInfo@RouletteWnd@@@Z
_TEXT	SEGMENT
__Ptr$ = 8						; size = 4
??$_Destroy@UUIEffectAniInfo@RouletteWnd@@@std@@YAXPAUUIEffectAniInfo@RouletteWnd@@@Z PROC ; std::_Destroy<RouletteWnd::UIEffectAniInfo>, COMDAT

; 63   : 	_Ptr->~_Ty();
; 64   : 	}

  00000	c3		 ret	 0
??$_Destroy@UUIEffectAniInfo@RouletteWnd@@@std@@YAXPAUUIEffectAniInfo@RouletteWnd@@@Z ENDP ; std::_Destroy<RouletteWnd::UIEffectAniInfo>
_TEXT	ENDS
PUBLIC	??$forward@VioHashString@@@std@@YA$$QAVioHashString@@AAV1@@Z ; std::forward<ioHashString>
; Function compile flags: /Ogsp
; File c:\program files (x86)\microsoft visual studio 10.0\vc\include\utility
;	COMDAT ??$forward@VioHashString@@@std@@YA$$QAVioHashString@@AAV1@@Z
_TEXT	SEGMENT
__Arg$ = 8						; size = 4
??$forward@VioHashString@@@std@@YA$$QAVioHashString@@AAV1@@Z PROC ; std::forward<ioHashString>, COMDAT

; 78   : 	{	// forward _Arg, given explicitly specified type parameter

  00000	55		 push	 ebp
  00001	8b ec		 mov	 ebp, esp

; 79   : 	return ((_Ty&&)_Arg);

  00003	8b 45 08	 mov	 eax, DWORD PTR __Arg$[ebp]

; 80   : 	}

  00006	5d		 pop	 ebp
  00007	c3		 ret	 0
??$forward@VioHashString@@@std@@YA$$QAVioHashString@@AAV1@@Z ENDP ; std::forward<ioHashString>
_TEXT	ENDS
PUBLIC	??$forward@UUIEffectAniInfo@RouletteWnd@@@std@@YA$$QAUUIEffectAniInfo@RouletteWnd@@AAU12@@Z ; std::forward<RouletteWnd::UIEffectAniInfo>
; Function compile flags: /Ogsp
;	COMDAT ??$forward@UUIEffectAniInfo@RouletteWnd@@@std@@YA$$QAUUIEffectAniInfo@RouletteWnd@@AAU12@@Z
_TEXT	SEGMENT
__Arg$ = 8						; size = 4
??$forward@UUIEffectAniInfo@RouletteWnd@@@std@@YA$$QAUUIEffectAniInfo@RouletteWnd@@AAU12@@Z PROC ; std::forward<RouletteWnd::UIEffectAniInfo>, COMDAT

; 78   : 	{	// forward _Arg, given explicitly specified type parameter

  00000	55		 push	 ebp
  00001	8b ec		 mov	 ebp, esp

; 79   : 	return ((_Ty&&)_Arg);

  00003	8b 45 08	 mov	 eax, DWORD PTR __Arg$[ebp]

; 80   : 	}

  00006	5d		 pop	 ebp
  00007	c3		 ret	 0
??$forward@UUIEffectAniInfo@RouletteWnd@@@std@@YA$$QAUUIEffectAniInfo@RouletteWnd@@AAU12@@Z ENDP ; std::forward<RouletteWnd::UIEffectAniInfo>
_TEXT	ENDS
PUBLIC	?_DECSTR@@YAXPADH@Z				; _DECSTR
; Function compile flags: /Ogsp
; File d:\lost saga for developer\youtube\tutorial\source\src\lsclient\stringprotect.h
;	COMDAT ?_DECSTR@@YAXPADH@Z
_TEXT	SEGMENT
_s$ = 8							; size = 4
_l$ = 12						; size = 4
?_DECSTR@@YAXPADH@Z PROC				; _DECSTR, COMDAT

; 40   : __forceinline void _DECSTR(char* s, int l){int i=0,l4=(l-1)/4,*p=(int*)s;s[l-1]=0;for(;i<l4;++i)*(p++)^=0xEAEBECED;for(i=l4*4;i<l-1;++i)s[i]^=0xED-i%4;}

  00000	55		 push	 ebp
  00001	8b ec		 mov	 ebp, esp
  00003	8b 4d 0c	 mov	 ecx, DWORD PTR _l$[ebp]
  00006	56		 push	 esi
  00007	8b 75 08	 mov	 esi, DWORD PTR _s$[ebp]
  0000a	57		 push	 edi
  0000b	8d 79 ff	 lea	 edi, DWORD PTR [ecx-1]
  0000e	8b c7		 mov	 eax, edi
  00010	99		 cdq
  00011	83 e2 03	 and	 edx, 3
  00014	03 c2		 add	 eax, edx
  00016	c1 f8 02	 sar	 eax, 2
  00019	8b d6		 mov	 edx, esi
  0001b	c6 44 0e ff 00	 mov	 BYTE PTR [esi+ecx-1], 0
  00020	85 c0		 test	 eax, eax
  00022	7e 0e		 jle	 SHORT $LN4@DECSTR
  00024	8b c8		 mov	 ecx, eax
$LL6@DECSTR:
  00026	81 32 ed ec eb
	ea		 xor	 DWORD PTR [edx], -353637139 ; eaebecedH
  0002c	83 c2 04	 add	 edx, 4
  0002f	49		 dec	 ecx
  00030	75 f4		 jne	 SHORT $LL6@DECSTR
$LN4@DECSTR:
  00032	c1 e0 02	 shl	 eax, 2
  00035	eb 17		 jmp	 SHORT $LN14@DECSTR
$LL3@DECSTR:
  00037	8b c8		 mov	 ecx, eax
  00039	81 e1 03 00 00
	80		 and	 ecx, -2147483645	; 80000003H
  0003f	79 05		 jns	 SHORT $LN13@DECSTR
  00041	49		 dec	 ecx
  00042	83 c9 fc	 or	 ecx, -4			; fffffffcH
  00045	41		 inc	 ecx
$LN13@DECSTR:
  00046	b2 ed		 mov	 dl, -19			; ffffffedH
  00048	2a d1		 sub	 dl, cl
  0004a	30 14 30	 xor	 BYTE PTR [eax+esi], dl
  0004d	40		 inc	 eax
$LN14@DECSTR:
  0004e	3b c7		 cmp	 eax, edi
  00050	7c e5		 jl	 SHORT $LL3@DECSTR
  00052	5f		 pop	 edi
  00053	5e		 pop	 esi
  00054	5d		 pop	 ebp
  00055	c3		 ret	 0
?_DECSTR@@YAXPADH@Z ENDP				; _DECSTR
_TEXT	ENDS
PUBLIC	?GetPublicID@ioMyInfo@@QBEABVioHashString@@XZ	; ioMyInfo::GetPublicID
; Function compile flags: /Ogsp
; File d:\lost saga for developer\youtube\tutorial\source\src\lsclient\iomyinfo.h
;	COMDAT ?GetPublicID@ioMyInfo@@QBEABVioHashString@@XZ
_TEXT	SEGMENT
?GetPublicID@ioMyInfo@@QBEABVioHashString@@XZ PROC	; ioMyInfo::GetPublicID, COMDAT
; _this$ = ecx

; 517  : 	const ioHashString& GetPublicID() const { return m_user_data.m_public_id; }    

  00000	8d 41 1c	 lea	 eax, DWORD PTR [ecx+28]
  00003	c3		 ret	 0
?GetPublicID@ioMyInfo@@QBEABVioHashString@@XZ ENDP	; ioMyInfo::GetPublicID
_TEXT	ENDS
PUBLIC	?GetState@ioRouletteManager@@QAEHXZ		; ioRouletteManager::GetState
; Function compile flags: /Ogsp
; File d:\lost saga for developer\youtube\tutorial\source\src\lsclient\ioroulettemanager.h
;	COMDAT ?GetState@ioRouletteManager@@QAEHXZ
_TEXT	SEGMENT
?GetState@ioRouletteManager@@QAEHXZ PROC		; ioRouletteManager::GetState, COMDAT
; _this$ = ecx

; 214  : 	int GetState() { return (int)m_RouletteState; }

  00000	8b 41 28	 mov	 eax, DWORD PTR [ecx+40]
  00003	c3		 ret	 0
?GetState@ioRouletteManager@@QAEHXZ ENDP		; ioRouletteManager::GetState
_TEXT	ENDS
PUBLIC	?GetCurAngle@ioRouletteManager@@QAEABMXZ	; ioRouletteManager::GetCurAngle
; Function compile flags: /Ogsp
;	COMDAT ?GetCurAngle@ioRouletteManager@@QAEABMXZ
_TEXT	SEGMENT
?GetCurAngle@ioRouletteManager@@QAEABMXZ PROC		; ioRouletteManager::GetCurAngle, COMDAT
; _this$ = ecx

; 222  : 	const float &GetCurAngle() { return m_fCurAngle; }

  00000	8d 81 78 02 00
	00		 lea	 eax, DWORD PTR [ecx+632]
  00006	c3		 ret	 0
?GetCurAngle@ioRouletteManager@@QAEABMXZ ENDP		; ioRouletteManager::GetCurAngle
_TEXT	ENDS
PUBLIC	?size@?$vector@VioHashString@@V?$allocator@VioHashString@@@std@@@std@@QBEIXZ ; std::vector<ioHashString,std::allocator<ioHashString> >::size
; Function compile flags: /Ogsp
; File c:\program files (x86)\microsoft visual studio 10.0\vc\include\vector
;	COMDAT ?size@?$vector@VioHashString@@V?$allocator@VioHashString@@@std@@@std@@QBEIXZ
_TEXT	SEGMENT
?size@?$vector@VioHashString@@V?$allocator@VioHashString@@@std@@@std@@QBEIXZ PROC ; std::vector<ioHashString,std::allocator<ioHashString> >::size, COMDAT
; _this$ = ecx

; 879  : 		return (this->_Mylast - this->_Myfirst);

  00000	8b 41 04	 mov	 eax, DWORD PTR [ecx+4]
  00003	2b 01		 sub	 eax, DWORD PTR [ecx]
  00005	c1 f8 04	 sar	 eax, 4

; 880  : 		}

  00008	c3		 ret	 0
?size@?$vector@VioHashString@@V?$allocator@VioHashString@@@std@@@std@@QBEIXZ ENDP ; std::vector<ioHashString,std::allocator<ioHashString> >::size
_TEXT	ENDS
PUBLIC	??1?$_Vector_val@VioHashString@@V?$allocator@VioHashString@@@std@@@std@@QAE@XZ ; std::_Vector_val<ioHashString,std::allocator<ioHashString> >::~_Vector_val<ioHashString,std::allocator<ioHashString> >
; Function compile flags: /Ogsp
;	COMDAT ??1?$_Vector_val@VioHashString@@V?$allocator@VioHashString@@@std@@@std@@QAE@XZ
_TEXT	SEGMENT
??1?$_Vector_val@VioHashString@@V?$allocator@VioHashString@@@std@@@std@@QAE@XZ PROC ; std::_Vector_val<ioHashString,std::allocator<ioHashString> >::~_Vector_val<ioHashString,std::allocator<ioHashString> >, COMDAT
; _this$ = ecx

; 434  : 		}

  00000	c3		 ret	 0
??1?$_Vector_val@VioHashString@@V?$allocator@VioHashString@@@std@@@std@@QAE@XZ ENDP ; std::_Vector_val<ioHashString,std::allocator<ioHashString> >::~_Vector_val<ioHashString,std::allocator<ioHashString> >
_TEXT	ENDS
PUBLIC	??0?$allocator@VioHashString@@@std@@QAE@XZ	; std::allocator<ioHashString>::allocator<ioHashString>
; Function compile flags: /Ogsp
; File c:\program files (x86)\microsoft visual studio 10.0\vc\include\xmemory
;	COMDAT ??0?$allocator@VioHashString@@@std@@QAE@XZ
_TEXT	SEGMENT
??0?$allocator@VioHashString@@@std@@QAE@XZ PROC		; std::allocator<ioHashString>::allocator<ioHashString>, COMDAT
; _this$ = ecx

; 161  : 	_ALLOCATOR() _THROW0()

  00000	8b c1		 mov	 eax, ecx

; 162  : 		{	// construct default allocator (do nothing)
; 163  : 		}

  00002	c3		 ret	 0
??0?$allocator@VioHashString@@@std@@QAE@XZ ENDP		; std::allocator<ioHashString>::allocator<ioHashString>
_TEXT	ENDS
PUBLIC	??0?$allocator@VioHashString@@@std@@QAE@ABV01@@Z ; std::allocator<ioHashString>::allocator<ioHashString>
; Function compile flags: /Ogsp
;	COMDAT ??0?$allocator@VioHashString@@@std@@QAE@ABV01@@Z
_TEXT	SEGMENT
___formal$ = 8						; size = 4
??0?$allocator@VioHashString@@@std@@QAE@ABV01@@Z PROC	; std::allocator<ioHashString>::allocator<ioHashString>, COMDAT
; _this$ = ecx

; 165  : 	_ALLOCATOR(const _ALLOCATOR<_Ty>&) _THROW0()

  00000	8b c1		 mov	 eax, ecx

; 166  : 		{	// construct by copying (do nothing)
; 167  : 		}

  00002	c2 04 00	 ret	 4
??0?$allocator@VioHashString@@@std@@QAE@ABV01@@Z ENDP	; std::allocator<ioHashString>::allocator<ioHashString>
_TEXT	ENDS
PUBLIC	?DecryptValueToPool@?$CEncrypt@K@@QAEXPAK@Z	; CEncrypt<unsigned long>::DecryptValueToPool
EXTRN	?DecryptByte@ccddaabb@@QBEXPBDPADH@Z:PROC	; ccddaabb::DecryptByte
; Function compile flags: /Ogsp
; File d:\lost saga for developer\youtube\tutorial\source\src\lsclient\encryptvalue.h
;	COMDAT ?DecryptValueToPool@?$CEncrypt@K@@QAEXPAK@Z
_TEXT	SEGMENT
_value$ = 8						; size = 4
?DecryptValueToPool@?$CEncrypt@K@@QAEXPAK@Z PROC	; CEncrypt<unsigned long>::DecryptValueToPool, COMDAT
; _this$ = ecx

; 1256 : 	{

  00000	55		 push	 ebp
  00001	8b ec		 mov	 ebp, esp
  00003	56		 push	 esi

; 1257 : 		m_RC5.DecryptByte( m_MemPool, m_TempMem, 4 );

  00004	8d 71 28	 lea	 esi, DWORD PTR [ecx+40]
  00007	6a 04		 push	 4
  00009	8d 41 1c	 lea	 eax, DWORD PTR [ecx+28]
  0000c	56		 push	 esi
  0000d	50		 push	 eax
  0000e	83 c1 0c	 add	 ecx, 12			; 0000000cH
  00011	e8 00 00 00 00	 call	 ?DecryptByte@ccddaabb@@QBEXPBDPADH@Z ; ccddaabb::DecryptByte

; 1258 : 		*value = *((DWORD*)m_TempMem);

  00016	8b 06		 mov	 eax, DWORD PTR [esi]
  00018	8b 4d 08	 mov	 ecx, DWORD PTR _value$[ebp]
  0001b	89 01		 mov	 DWORD PTR [ecx], eax
  0001d	5e		 pop	 esi

; 1259 : 	}

  0001e	5d		 pop	 ebp
  0001f	c2 04 00	 ret	 4
?DecryptValueToPool@?$CEncrypt@K@@QAEXPAK@Z ENDP	; CEncrypt<unsigned long>::DecryptValueToPool
_TEXT	ENDS
PUBLIC	?_Xlen@?$vector@VioHashString@@V?$allocator@VioHashString@@@std@@@std@@IBEXXZ ; std::vector<ioHashString,std::allocator<ioHashString> >::_Xlen
; Function compile flags: /Ogsp
; File c:\program files (x86)\microsoft visual studio 10.0\vc\include\vector
;	COMDAT ?_Xlen@?$vector@VioHashString@@V?$allocator@VioHashString@@@std@@@std@@IBEXXZ
_TEXT	SEGMENT
?_Xlen@?$vector@VioHashString@@V?$allocator@VioHashString@@@std@@@std@@IBEXXZ PROC ; std::vector<ioHashString,std::allocator<ioHashString> >::_Xlen, COMDAT
; _this$ = ecx

; 1427 : 		_Xlength_error("vector<T> too long");

  00000	68 00 00 00 00	 push	 OFFSET ??_C@_0BD@OLBABOEK@vector?$DMT?$DO?5too?5long?$AA@
  00005	ff 15 00 00 00
	00		 call	 DWORD PTR __imp_?_Xlength_error@std@@YAXPBD@Z
$LN4@Xlen@2:
$LN3@Xlen@2:
  0000b	cc		 int	 3
?_Xlen@?$vector@VioHashString@@V?$allocator@VioHashString@@@std@@@std@@IBEXXZ ENDP ; std::vector<ioHashString,std::allocator<ioHashString> >::_Xlen
_TEXT	ENDS
PUBLIC	?deallocate@?$allocator@VioHashString@@@std@@QAEXPAVioHashString@@I@Z ; std::allocator<ioHashString>::deallocate
; Function compile flags: /Ogsp
; File c:\program files (x86)\microsoft visual studio 10.0\vc\include\xmemory
;	COMDAT ?deallocate@?$allocator@VioHashString@@@std@@QAEXPAVioHashString@@I@Z
_TEXT	SEGMENT
__Ptr$ = 8						; size = 4
___formal$ = 12						; size = 4
?deallocate@?$allocator@VioHashString@@@std@@QAEXPAVioHashString@@I@Z PROC ; std::allocator<ioHashString>::deallocate, COMDAT
; _this$ = ecx

; 181  : 		{	// deallocate object at _Ptr, ignore size

  00000	55		 push	 ebp
  00001	8b ec		 mov	 ebp, esp

; 182  : 		::operator delete(_Ptr);

  00003	ff 75 08	 push	 DWORD PTR __Ptr$[ebp]
  00006	e8 00 00 00 00	 call	 ??3@YAXPAX@Z		; operator delete
  0000b	59		 pop	 ecx

; 183  : 		}

  0000c	5d		 pop	 ebp
  0000d	c2 08 00	 ret	 8
?deallocate@?$allocator@VioHashString@@@std@@QAEXPAVioHashString@@I@Z ENDP ; std::allocator<ioHashString>::deallocate
_TEXT	ENDS
PUBLIC	??0?$_Vector_const_iterator@V?$_Vector_val@VioHashString@@V?$allocator@VioHashString@@@std@@@std@@@std@@QAE@PAVioHashString@@PBU_Container_base0@1@@Z ; std::_Vector_const_iterator<std::_Vector_val<ioHashString,std::allocator<ioHashString> > >::_Vector_const_iterator<std::_Vector_val<ioHashString,std::allocator<ioHashString> > >
; Function compile flags: /Ogsp
; File c:\program files (x86)\microsoft visual studio 10.0\vc\include\vector
;	COMDAT ??0?$_Vector_const_iterator@V?$_Vector_val@VioHashString@@V?$allocator@VioHashString@@@std@@@std@@@std@@QAE@PAVioHashString@@PBU_Container_base0@1@@Z
_TEXT	SEGMENT
__Parg$ = 8						; size = 4
__Pvector$ = 12						; size = 4
??0?$_Vector_const_iterator@V?$_Vector_val@VioHashString@@V?$allocator@VioHashString@@@std@@@std@@@std@@QAE@PAVioHashString@@PBU_Container_base0@1@@Z PROC ; std::_Vector_const_iterator<std::_Vector_val<ioHashString,std::allocator<ioHashString> > >::_Vector_const_iterator<std::_Vector_val<ioHashString,std::allocator<ioHashString> > >, COMDAT
; _this$ = ecx

; 45   : 		{	// construct with pointer _Parg

  00000	55		 push	 ebp
  00001	8b ec		 mov	 ebp, esp
  00003	8b c1		 mov	 eax, ecx
  00005	8b 4d 08	 mov	 ecx, DWORD PTR __Parg$[ebp]
  00008	89 08		 mov	 DWORD PTR [eax], ecx

; 46   : 		this->_Adopt(_Pvector);
; 47   : 		}

  0000a	5d		 pop	 ebp
  0000b	c2 08 00	 ret	 8
??0?$_Vector_const_iterator@V?$_Vector_val@VioHashString@@V?$allocator@VioHashString@@@std@@@std@@@std@@QAE@PAVioHashString@@PBU_Container_base0@1@@Z ENDP ; std::_Vector_const_iterator<std::_Vector_val<ioHashString,std::allocator<ioHashString> > >::_Vector_const_iterator<std::_Vector_val<ioHashString,std::allocator<ioHashString> > >
_TEXT	ENDS
PUBLIC	?max_size@?$allocator@VioHashString@@@std@@QBEIXZ ; std::allocator<ioHashString>::max_size
; Function compile flags: /Ogsp
; File c:\program files (x86)\microsoft visual studio 10.0\vc\include\xmemory
;	COMDAT ?max_size@?$allocator@VioHashString@@@std@@QBEIXZ
_TEXT	SEGMENT
?max_size@?$allocator@VioHashString@@@std@@QBEIXZ PROC	; std::allocator<ioHashString>::max_size, COMDAT
; _this$ = ecx

; 218  : 		_SIZT _Count = (_SIZT)(-1) / sizeof (_Ty);
; 219  : 		return (0 < _Count ? _Count : 1);

  00000	b8 ff ff ff 0f	 mov	 eax, 268435455		; 0fffffffH

; 220  : 		}

  00005	c3		 ret	 0
?max_size@?$allocator@VioHashString@@@std@@QBEIXZ ENDP	; std::allocator<ioHashString>::max_size
_TEXT	ENDS
PUBLIC	?_Compat@?$_Vector_const_iterator@V?$_Vector_val@VioHashString@@V?$allocator@VioHashString@@@std@@@std@@@std@@QBEXABV12@@Z ; std::_Vector_const_iterator<std::_Vector_val<ioHashString,std::allocator<ioHashString> > >::_Compat
; Function compile flags: /Ogsp
; File c:\program files (x86)\microsoft visual studio 10.0\vc\include\vector
;	COMDAT ?_Compat@?$_Vector_const_iterator@V?$_Vector_val@VioHashString@@V?$allocator@VioHashString@@@std@@@std@@@std@@QBEXABV12@@Z
_TEXT	SEGMENT
___formal$ = 8						; size = 4
?_Compat@?$_Vector_const_iterator@V?$_Vector_val@VioHashString@@V?$allocator@VioHashString@@@std@@@std@@@std@@QBEXABV12@@Z PROC ; std::_Vector_const_iterator<std::_Vector_val<ioHashString,std::allocator<ioHashString> > >::_Compat, COMDAT
; _this$ = ecx

; 253  : 		}

  00000	c2 04 00	 ret	 4
?_Compat@?$_Vector_const_iterator@V?$_Vector_val@VioHashString@@V?$allocator@VioHashString@@@std@@@std@@@std@@QBEXABV12@@Z ENDP ; std::_Vector_const_iterator<std::_Vector_val<ioHashString,std::allocator<ioHashString> > >::_Compat
_TEXT	ENDS
PUBLIC	??$_Allocate@VioHashString@@@std@@YAPAVioHashString@@IPAV1@@Z ; std::_Allocate<ioHashString>
; Function compile flags: /Ogsp
; File c:\program files (x86)\microsoft visual studio 10.0\vc\include\xmemory
;	COMDAT ??$_Allocate@VioHashString@@@std@@YAPAVioHashString@@IPAV1@@Z
_TEXT	SEGMENT
$T509590 = -12						; size = 12
$T509594 = 8						; size = 4
__Count$ = 8						; size = 4
___formal$ = 12						; size = 4
??$_Allocate@VioHashString@@@std@@YAPAVioHashString@@IPAV1@@Z PROC ; std::_Allocate<ioHashString>, COMDAT

; 30   : 	{	// allocate storage for _Count elements of type _Ty

  00000	55		 push	 ebp
  00001	8b ec		 mov	 ebp, esp

; 31   : 	void *_Ptr = 0;
; 32   : 
; 33   : 	if (_Count <= 0)

  00003	8b 4d 08	 mov	 ecx, DWORD PTR __Count$[ebp]
  00006	83 ec 0c	 sub	 esp, 12			; 0000000cH
  00009	33 c0		 xor	 eax, eax
  0000b	85 c9		 test	 ecx, ecx

; 34   : 		_Count = 0;
; 35   : 	else if (((_SIZT)(-1) / sizeof (_Ty) < _Count)

  0000d	74 3c		 je	 SHORT $LN5@Allocate@2

; 36   : 		|| (_Ptr = ::operator new(_Count * sizeof (_Ty))) == 0)

  0000f	81 f9 ff ff ff
	0f		 cmp	 ecx, 268435455		; 0fffffffH
  00015	77 0e		 ja	 SHORT $LN1@Allocate@2
  00017	c1 e1 04	 shl	 ecx, 4
  0001a	51		 push	 ecx
  0001b	e8 00 00 00 00	 call	 ??2@YAPAXI@Z		; operator new
  00020	59		 pop	 ecx
  00021	85 c0		 test	 eax, eax

; 38   : 
; 39   : 	return ((_Ty _FARQ *)_Ptr);

  00023	75 26		 jne	 SHORT $LN5@Allocate@2
$LN1@Allocate@2:

; 37   : 		_THROW_NCEE(bad_alloc, 0);

  00025	83 65 08 00	 and	 DWORD PTR $T509594[ebp], 0
  00029	8d 45 08	 lea	 eax, DWORD PTR $T509594[ebp]
  0002c	50		 push	 eax
  0002d	8d 4d f4	 lea	 ecx, DWORD PTR $T509590[ebp]
  00030	ff 15 00 00 00
	00		 call	 DWORD PTR __imp_??0exception@std@@QAE@ABQBD@Z
  00036	68 00 00 00 00	 push	 OFFSET __TI2?AVbad_alloc@std@@
  0003b	8d 45 f4	 lea	 eax, DWORD PTR $T509590[ebp]
  0003e	50		 push	 eax
  0003f	c7 45 f4 00 00
	00 00		 mov	 DWORD PTR $T509590[ebp], OFFSET ??_7bad_alloc@std@@6B@
  00046	e8 00 00 00 00	 call	 __CxxThrowException@8
$LN10@Allocate@2:
$LN5@Allocate@2:

; 40   : 	}

  0004b	c9		 leave
  0004c	c3		 ret	 0
$LN9@Allocate@2:
??$_Allocate@VioHashString@@@std@@YAPAVioHashString@@IPAV1@@Z ENDP ; std::_Allocate<ioHashString>
_TEXT	ENDS
EXTRN	__imp_??0exception@std@@QAE@ABV01@@Z:PROC
; Function compile flags: /Ogsp
;	COMDAT ??0bad_alloc@std@@QAE@ABV01@@Z
_TEXT	SEGMENT
___that$ = 8						; size = 4
??0bad_alloc@std@@QAE@ABV01@@Z PROC			; std::bad_alloc::bad_alloc, COMDAT
; _this$ = ecx
  00000	55		 push	 ebp
  00001	8b ec		 mov	 ebp, esp
  00003	56		 push	 esi
  00004	ff 75 08	 push	 DWORD PTR ___that$[ebp]
  00007	8b f1		 mov	 esi, ecx
  00009	ff 15 00 00 00
	00		 call	 DWORD PTR __imp_??0exception@std@@QAE@ABV01@@Z
  0000f	c7 06 00 00 00
	00		 mov	 DWORD PTR [esi], OFFSET ??_7bad_alloc@std@@6B@
  00015	8b c6		 mov	 eax, esi
  00017	5e		 pop	 esi
  00018	5d		 pop	 ebp
  00019	c2 04 00	 ret	 4
??0bad_alloc@std@@QAE@ABV01@@Z ENDP			; std::bad_alloc::bad_alloc
_TEXT	ENDS
PUBLIC	??$forward@ABVioHashString@@@std@@YAABVioHashString@@ABV1@@Z ; std::forward<ioHashString const &>
; Function compile flags: /Ogsp
; File c:\program files (x86)\microsoft visual studio 10.0\vc\include\utility
;	COMDAT ??$forward@ABVioHashString@@@std@@YAABVioHashString@@ABV1@@Z
_TEXT	SEGMENT
__Arg$ = 8						; size = 4
??$forward@ABVioHashString@@@std@@YAABVioHashString@@ABV1@@Z PROC ; std::forward<ioHashString const &>, COMDAT

; 78   : 	{	// forward _Arg, given explicitly specified type parameter

  00000	55		 push	 ebp
  00001	8b ec		 mov	 ebp, esp

; 79   : 	return ((_Ty&&)_Arg);

  00003	8b 45 08	 mov	 eax, DWORD PTR __Arg$[ebp]

; 80   : 	}

  00006	5d		 pop	 ebp
  00007	c3		 ret	 0
??$forward@ABVioHashString@@@std@@YAABVioHashString@@ABV1@@Z ENDP ; std::forward<ioHashString const &>
_TEXT	ENDS
PUBLIC	??$forward@AAVioHashString@@@std@@YAAAVioHashString@@AAV1@@Z ; std::forward<ioHashString &>
; Function compile flags: /Ogsp
;	COMDAT ??$forward@AAVioHashString@@@std@@YAAAVioHashString@@AAV1@@Z
_TEXT	SEGMENT
__Arg$ = 8						; size = 4
??$forward@AAVioHashString@@@std@@YAAAVioHashString@@AAV1@@Z PROC ; std::forward<ioHashString &>, COMDAT

; 78   : 	{	// forward _Arg, given explicitly specified type parameter

  00000	55		 push	 ebp
  00001	8b ec		 mov	 ebp, esp

; 79   : 	return ((_Ty&&)_Arg);

  00003	8b 45 08	 mov	 eax, DWORD PTR __Arg$[ebp]

; 80   : 	}

  00006	5d		 pop	 ebp
  00007	c3		 ret	 0
??$forward@AAVioHashString@@@std@@YAAAVioHashString@@AAV1@@Z ENDP ; std::forward<ioHashString &>
_TEXT	ENDS
PUBLIC	??$_Ptr_cat@VioHashString@@V1@@std@@YA?AU_Nonscalar_ptr_iterator_tag@0@PAVioHashString@@0@Z ; std::_Ptr_cat<ioHashString,ioHashString>
; Function compile flags: /Ogsp
; File c:\program files (x86)\microsoft visual studio 10.0\vc\include\xutility
;	COMDAT ??$_Ptr_cat@VioHashString@@V1@@std@@YA?AU_Nonscalar_ptr_iterator_tag@0@PAVioHashString@@0@Z
_TEXT	SEGMENT
__Cat$ = -1						; size = 1
___formal$ = 8						; size = 4
___formal$ = 12						; size = 4
??$_Ptr_cat@VioHashString@@V1@@std@@YA?AU_Nonscalar_ptr_iterator_tag@0@PAVioHashString@@0@Z PROC ; std::_Ptr_cat<ioHashString,ioHashString>, COMDAT

; 516  : 	{	// return pointer category from pointers

  00000	55		 push	 ebp
  00001	8b ec		 mov	 ebp, esp
  00003	51		 push	 ecx

; 517  : 	typename _Ptr_cat_helper<_Elem1, _Elem2>::_Type _Cat;
; 518  : 	return (_Cat);

  00004	8a 45 ff	 mov	 al, BYTE PTR __Cat$[ebp]

; 519  : 	}

  00007	c9		 leave
  00008	c3		 ret	 0
??$_Ptr_cat@VioHashString@@V1@@std@@YA?AU_Nonscalar_ptr_iterator_tag@0@PAVioHashString@@0@Z ENDP ; std::_Ptr_cat<ioHashString,ioHashString>
_TEXT	ENDS
PUBLIC	??$_Ptr_cat@V?$_Vector_const_iterator@V?$_Vector_val@VioHashString@@V?$allocator@VioHashString@@@std@@@std@@@std@@PAVioHashString@@@std@@YA?AU_Nonscalar_ptr_iterator_tag@0@AAV?$_Vector_const_iterator@V?$_Vector_val@VioHashString@@V?$allocator@VioHashString@@@std@@@std@@@0@AAPAVioHashString@@@Z ; std::_Ptr_cat<std::_Vector_const_iterator<std::_Vector_val<ioHashString,std::allocator<ioHashString> > >,ioHashString *>
; Function compile flags: /Ogsp
;	COMDAT ??$_Ptr_cat@V?$_Vector_const_iterator@V?$_Vector_val@VioHashString@@V?$allocator@VioHashString@@@std@@@std@@@std@@PAVioHashString@@@std@@YA?AU_Nonscalar_ptr_iterator_tag@0@AAV?$_Vector_const_iterator@V?$_Vector_val@VioHashString@@V?$allocator@VioHashString@@@std@@@std@@@0@AAPAVioHashString@@@Z
_TEXT	SEGMENT
__Cat$ = -1						; size = 1
___formal$ = 8						; size = 4
___formal$ = 12						; size = 4
??$_Ptr_cat@V?$_Vector_const_iterator@V?$_Vector_val@VioHashString@@V?$allocator@VioHashString@@@std@@@std@@@std@@PAVioHashString@@@std@@YA?AU_Nonscalar_ptr_iterator_tag@0@AAV?$_Vector_const_iterator@V?$_Vector_val@VioHashString@@V?$allocator@VioHashString@@@std@@@std@@@0@AAPAVioHashString@@@Z PROC ; std::_Ptr_cat<std::_Vector_const_iterator<std::_Vector_val<ioHashString,std::allocator<ioHashString> > >,ioHashString *>, COMDAT

; 485  : 	{	// return pointer category from arbitrary arguments

  00000	55		 push	 ebp
  00001	8b ec		 mov	 ebp, esp
  00003	51		 push	 ecx

; 486  : 	_Nonscalar_ptr_iterator_tag _Cat;
; 487  : 	return (_Cat);

  00004	8a 45 ff	 mov	 al, BYTE PTR __Cat$[ebp]

; 488  : 	}

  00007	c9		 leave
  00008	c3		 ret	 0
??$_Ptr_cat@V?$_Vector_const_iterator@V?$_Vector_val@VioHashString@@V?$allocator@VioHashString@@@std@@@std@@@std@@PAVioHashString@@@std@@YA?AU_Nonscalar_ptr_iterator_tag@0@AAV?$_Vector_const_iterator@V?$_Vector_val@VioHashString@@V?$allocator@VioHashString@@@std@@@std@@@0@AAPAVioHashString@@@Z ENDP ; std::_Ptr_cat<std::_Vector_const_iterator<std::_Vector_val<ioHashString,std::allocator<ioHashString> > >,ioHashString *>
_TEXT	ENDS
PUBLIC	??D?$_Vector_const_iterator@V?$_Vector_val@VioHashString@@V?$allocator@VioHashString@@@std@@@std@@@std@@QBEABVioHashString@@XZ ; std::_Vector_const_iterator<std::_Vector_val<ioHashString,std::allocator<ioHashString> > >::operator*
; Function compile flags: /Ogsp
; File c:\program files (x86)\microsoft visual studio 10.0\vc\include\vector
;	COMDAT ??D?$_Vector_const_iterator@V?$_Vector_val@VioHashString@@V?$allocator@VioHashString@@@std@@@std@@@std@@QBEABVioHashString@@XZ
_TEXT	SEGMENT
??D?$_Vector_const_iterator@V?$_Vector_val@VioHashString@@V?$allocator@VioHashString@@@std@@@std@@@std@@QBEABVioHashString@@XZ PROC ; std::_Vector_const_iterator<std::_Vector_val<ioHashString,std::allocator<ioHashString> > >::operator*, COMDAT
; _this$ = ecx

; 64   :  #if _ITERATOR_DEBUG_LEVEL == 2
; 65   : 		if (this->_Getcont() == 0
; 66   : 			|| this->_Ptr == 0
; 67   : 			|| this->_Ptr < ((_Myvec *)this->_Getcont())->_Myfirst
; 68   : 			|| ((_Myvec *)this->_Getcont())->_Mylast <= this->_Ptr)
; 69   : 			{	// report error
; 70   : 			_DEBUG_ERROR("vector iterator not dereferencable");
; 71   : 			_SCL_SECURE_OUT_OF_RANGE;
; 72   : 			}
; 73   : 
; 74   :  #elif _ITERATOR_DEBUG_LEVEL == 1
; 75   : 		_SCL_SECURE_VALIDATE(this->_Getcont() != 0);
; 76   : 		_SCL_SECURE_VALIDATE_RANGE(
; 77   : 			this->_Ptr != 0
; 78   : 			&& ((_Myvec *)this->_Getcont())->_Myfirst <= this->_Ptr
; 79   : 			&& this->_Ptr < ((_Myvec *)this->_Getcont())->_Mylast);
; 80   :  #endif /* _ITERATOR_DEBUG_LEVEL */
; 81   : 
; 82   : 		__analysis_assume(this->_Ptr != 0);
; 83   : 
; 84   : 		return (*this->_Ptr);

  00000	8b 01		 mov	 eax, DWORD PTR [ecx]

; 85   : 		}

  00002	c3		 ret	 0
??D?$_Vector_const_iterator@V?$_Vector_val@VioHashString@@V?$allocator@VioHashString@@@std@@@std@@@std@@QBEABVioHashString@@XZ ENDP ; std::_Vector_const_iterator<std::_Vector_val<ioHashString,std::allocator<ioHashString> > >::operator*
_TEXT	ENDS
PUBLIC	??E?$_Vector_const_iterator@V?$_Vector_val@VioHashString@@V?$allocator@VioHashString@@@std@@@std@@@std@@QAEAAV01@XZ ; std::_Vector_const_iterator<std::_Vector_val<ioHashString,std::allocator<ioHashString> > >::operator++
; Function compile flags: /Ogsp
;	COMDAT ??E?$_Vector_const_iterator@V?$_Vector_val@VioHashString@@V?$allocator@VioHashString@@@std@@@std@@@std@@QAEAAV01@XZ
_TEXT	SEGMENT
??E?$_Vector_const_iterator@V?$_Vector_val@VioHashString@@V?$allocator@VioHashString@@@std@@@std@@@std@@QAEAAV01@XZ PROC ; std::_Vector_const_iterator<std::_Vector_val<ioHashString,std::allocator<ioHashString> > >::operator++, COMDAT
; _this$ = ecx

; 93   : 		{	// preincrement

  00000	8b c1		 mov	 eax, ecx

; 94   :  #if _ITERATOR_DEBUG_LEVEL == 2
; 95   : 		if (this->_Getcont() == 0
; 96   : 			|| this->_Ptr == 0
; 97   : 			|| ((_Myvec *)this->_Getcont())->_Mylast <= this->_Ptr)
; 98   : 			{	// report error
; 99   : 			_DEBUG_ERROR("vector iterator not incrementable");
; 100  : 			_SCL_SECURE_OUT_OF_RANGE;
; 101  : 			}
; 102  : 
; 103  :  #elif _ITERATOR_DEBUG_LEVEL == 1
; 104  : 		_SCL_SECURE_VALIDATE(this->_Getcont() != 0);
; 105  : 		_SCL_SECURE_VALIDATE_RANGE(
; 106  : 			this->_Ptr != 0
; 107  : 			&& this->_Ptr < ((_Myvec *)this->_Getcont())->_Mylast);
; 108  :  #endif /* _ITERATOR_DEBUG_LEVEL */
; 109  : 
; 110  : 		++this->_Ptr;

  00002	83 00 10	 add	 DWORD PTR [eax], 16	; 00000010H

; 111  : 		return (*this);
; 112  : 		}

  00005	c3		 ret	 0
??E?$_Vector_const_iterator@V?$_Vector_val@VioHashString@@V?$allocator@VioHashString@@@std@@@std@@@std@@QAEAAV01@XZ ENDP ; std::_Vector_const_iterator<std::_Vector_val<ioHashString,std::allocator<ioHashString> > >::operator++
_TEXT	ENDS
PUBLIC	??_GioHashString@@QAEPAXI@Z			; ioHashString::`scalar deleting destructor'
EXTRN	__imp_??1ioHashString@@QAE@XZ:PROC
; Function compile flags: /Ogsp
;	COMDAT ??_GioHashString@@QAEPAXI@Z
_TEXT	SEGMENT
___flags$ = 8						; size = 4
??_GioHashString@@QAEPAXI@Z PROC			; ioHashString::`scalar deleting destructor', COMDAT
; _this$ = ecx
  00000	55		 push	 ebp
  00001	8b ec		 mov	 ebp, esp
  00003	56		 push	 esi
  00004	8b f1		 mov	 esi, ecx
  00006	ff 15 00 00 00
	00		 call	 DWORD PTR __imp_??1ioHashString@@QAE@XZ
  0000c	f6 45 08 01	 test	 BYTE PTR ___flags$[ebp], 1
  00010	74 07		 je	 SHORT $LN1@scalar@2
  00012	56		 push	 esi
  00013	e8 00 00 00 00	 call	 ??3@YAXPAX@Z		; operator delete
  00018	59		 pop	 ecx
$LN1@scalar@2:
  00019	8b c6		 mov	 eax, esi
  0001b	5e		 pop	 esi
  0001c	5d		 pop	 ebp
  0001d	c2 04 00	 ret	 4
??_GioHashString@@QAEPAXI@Z ENDP			; ioHashString::`scalar deleting destructor'
_TEXT	ENDS
PUBLIC	??$_Construct@VioHashString@@ABV1@@std@@YAXPAVioHashString@@ABV1@@Z ; std::_Construct<ioHashString,ioHashString const &>
EXTRN	__imp_??0ioHashString@@QAE@ABV0@@Z:PROC
EXTRN	___CxxFrameHandler3:PROC
EXTRN	@__security_check_cookie@4:PROC
EXTRN	__EH_epilog3:PROC
EXTRN	__EH_prolog3:PROC
;	COMDAT xdata$x
; File c:\program files (x86)\microsoft visual studio 10.0\vc\include\utility
xdata$x	SEGMENT
__unwindtable$??$_Construct@VioHashString@@ABV1@@std@@YAXPAVioHashString@@ABV1@@Z DD 0ffffffffH
	DD	FLAT:__unwindfunclet$??$_Construct@VioHashString@@ABV1@@std@@YAXPAVioHashString@@ABV1@@Z$0
__ehfuncinfo$??$_Construct@VioHashString@@ABV1@@std@@YAXPAVioHashString@@ABV1@@Z DD 019930522H
	DD	01H
	DD	FLAT:__unwindtable$??$_Construct@VioHashString@@ABV1@@std@@YAXPAVioHashString@@ABV1@@Z
	DD	2 DUP(00H)
	DD	2 DUP(00H)
	DD	00H
	DD	01H
; Function compile flags: /Ogsp
; File c:\program files (x86)\microsoft visual studio 10.0\vc\include\xmemory
xdata$x	ENDS
;	COMDAT ??$_Construct@VioHashString@@ABV1@@std@@YAXPAVioHashString@@ABV1@@Z
_TEXT	SEGMENT
$T509619 = -16						; size = 4
__$EHRec$ = -12						; size = 12
__Vptr$ = 8						; size = 4
__Ptr$ = 8						; size = 4
__Val$ = 12						; size = 4
??$_Construct@VioHashString@@ABV1@@std@@YAXPAVioHashString@@ABV1@@Z PROC ; std::_Construct<ioHashString,ioHashString const &>, COMDAT

; 46   : 	{	// construct object at _Ptr with value _Val

  00000	6a 04		 push	 4
  00002	b8 00 00 00 00	 mov	 eax, __ehhandler$??$_Construct@VioHashString@@ABV1@@std@@YAXPAVioHashString@@ABV1@@Z
  00007	e8 00 00 00 00	 call	 __EH_prolog3

; 47   : 	void _FARQ *_Vptr = _Ptr;

  0000c	8b 4d 08	 mov	 ecx, DWORD PTR __Ptr$[ebp]
  0000f	89 4d 08	 mov	 DWORD PTR __Vptr$[ebp], ecx

; 48   : 	::new (_Vptr) _Ty1(_STD forward<_Ty2>(_Val));

  00012	89 4d f0	 mov	 DWORD PTR $T509619[ebp], ecx
  00015	83 65 fc 00	 and	 DWORD PTR __$EHRec$[ebp+8], 0
  00019	85 c9		 test	 ecx, ecx
  0001b	74 09		 je	 SHORT $LN3@Construct@2
  0001d	ff 75 0c	 push	 DWORD PTR __Val$[ebp]
  00020	ff 15 00 00 00
	00		 call	 DWORD PTR __imp_??0ioHashString@@QAE@ABV0@@Z
$LN3@Construct@2:

; 49   : 	}

  00026	e8 00 00 00 00	 call	 __EH_epilog3
  0002b	c3		 ret	 0
_TEXT	ENDS
;	COMDAT text$x
text$x	SEGMENT
__unwindfunclet$??$_Construct@VioHashString@@ABV1@@std@@YAXPAVioHashString@@ABV1@@Z$0:
  00000	ff 75 08	 push	 DWORD PTR __Vptr$[ebp]
  00003	ff 75 f0	 push	 DWORD PTR $T509619[ebp]
  00006	e8 00 00 00 00	 call	 ??3@YAXPAX0@Z		; operator delete
  0000b	59		 pop	 ecx
  0000c	59		 pop	 ecx
  0000d	c3		 ret	 0
__ehhandler$??$_Construct@VioHashString@@ABV1@@std@@YAXPAVioHashString@@ABV1@@Z:
  0000e	8b 54 24 08	 mov	 edx, DWORD PTR [esp+8]
  00012	8d 42 0c	 lea	 eax, DWORD PTR [edx+12]
  00015	8b 4a ec	 mov	 ecx, DWORD PTR [edx-20]
  00018	33 c8		 xor	 ecx, eax
  0001a	e8 00 00 00 00	 call	 @__security_check_cookie@4
  0001f	b8 00 00 00 00	 mov	 eax, OFFSET __ehfuncinfo$??$_Construct@VioHashString@@ABV1@@std@@YAXPAVioHashString@@ABV1@@Z
  00024	e9 00 00 00 00	 jmp	 ___CxxFrameHandler3
text$x	ENDS
??$_Construct@VioHashString@@ABV1@@std@@YAXPAVioHashString@@ABV1@@Z ENDP ; std::_Construct<ioHashString,ioHashString const &>
PUBLIC	??D?$_Vector_iterator@V?$_Vector_val@UUIEffectAniInfo@RouletteWnd@@V?$allocator@UUIEffectAniInfo@RouletteWnd@@@std@@@std@@@std@@QBEAAUUIEffectAniInfo@RouletteWnd@@XZ ; std::_Vector_iterator<std::_Vector_val<RouletteWnd::UIEffectAniInfo,std::allocator<RouletteWnd::UIEffectAniInfo> > >::operator*
; Function compile flags: /Ogsp
; File c:\program files (x86)\microsoft visual studio 10.0\vc\include\vector
;	COMDAT ??D?$_Vector_iterator@V?$_Vector_val@UUIEffectAniInfo@RouletteWnd@@V?$allocator@UUIEffectAniInfo@RouletteWnd@@@std@@@std@@@std@@QBEAAUUIEffectAniInfo@RouletteWnd@@XZ
_TEXT	SEGMENT
??D?$_Vector_iterator@V?$_Vector_val@UUIEffectAniInfo@RouletteWnd@@V?$allocator@UUIEffectAniInfo@RouletteWnd@@@std@@@std@@@std@@QBEAAUUIEffectAniInfo@RouletteWnd@@XZ PROC ; std::_Vector_iterator<std::_Vector_val<RouletteWnd::UIEffectAniInfo,std::allocator<RouletteWnd::UIEffectAniInfo> > >::operator*, COMDAT
; _this$ = ecx

; 322  : 		return ((reference)**(_Mybase *)this);

  00000	8b 01		 mov	 eax, DWORD PTR [ecx]

; 323  : 		}

  00002	c3		 ret	 0
??D?$_Vector_iterator@V?$_Vector_val@UUIEffectAniInfo@RouletteWnd@@V?$allocator@UUIEffectAniInfo@RouletteWnd@@@std@@@std@@@std@@QBEAAUUIEffectAniInfo@RouletteWnd@@XZ ENDP ; std::_Vector_iterator<std::_Vector_val<RouletteWnd::UIEffectAniInfo,std::allocator<RouletteWnd::UIEffectAniInfo> > >::operator*
_TEXT	ENDS
PUBLIC	??E?$_Vector_iterator@V?$_Vector_val@UUIEffectAniInfo@RouletteWnd@@V?$allocator@UUIEffectAniInfo@RouletteWnd@@@std@@@std@@@std@@QAEAAV01@XZ ; std::_Vector_iterator<std::_Vector_val<RouletteWnd::UIEffectAniInfo,std::allocator<RouletteWnd::UIEffectAniInfo> > >::operator++
; Function compile flags: /Ogsp
;	COMDAT ??E?$_Vector_iterator@V?$_Vector_val@UUIEffectAniInfo@RouletteWnd@@V?$allocator@UUIEffectAniInfo@RouletteWnd@@@std@@@std@@@std@@QAEAAV01@XZ
_TEXT	SEGMENT
??E?$_Vector_iterator@V?$_Vector_val@UUIEffectAniInfo@RouletteWnd@@V?$allocator@UUIEffectAniInfo@RouletteWnd@@@std@@@std@@@std@@QAEAAV01@XZ PROC ; std::_Vector_iterator<std::_Vector_val<RouletteWnd::UIEffectAniInfo,std::allocator<RouletteWnd::UIEffectAniInfo> > >::operator++, COMDAT
; _this$ = ecx

; 331  : 		{	// preincrement

  00000	8b c1		 mov	 eax, ecx

; 332  : 		++*(_Mybase *)this;

  00002	83 00 20	 add	 DWORD PTR [eax], 32	; 00000020H

; 333  : 		return (*this);
; 334  : 		}

  00005	c3		 ret	 0
??E?$_Vector_iterator@V?$_Vector_val@UUIEffectAniInfo@RouletteWnd@@V?$allocator@UUIEffectAniInfo@RouletteWnd@@@std@@@std@@@std@@QAEAAV01@XZ ENDP ; std::_Vector_iterator<std::_Vector_val<RouletteWnd::UIEffectAniInfo,std::allocator<RouletteWnd::UIEffectAniInfo> > >::operator++
_TEXT	ENDS
PUBLIC	??0?$_Vector_val@UUIEffectAniInfo@RouletteWnd@@V?$allocator@UUIEffectAniInfo@RouletteWnd@@@std@@@std@@QAE@V?$allocator@UUIEffectAniInfo@RouletteWnd@@@1@@Z ; std::_Vector_val<RouletteWnd::UIEffectAniInfo,std::allocator<RouletteWnd::UIEffectAniInfo> >::_Vector_val<RouletteWnd::UIEffectAniInfo,std::allocator<RouletteWnd::UIEffectAniInfo> >
; Function compile flags: /Ogsp
;	COMDAT ??0?$_Vector_val@UUIEffectAniInfo@RouletteWnd@@V?$allocator@UUIEffectAniInfo@RouletteWnd@@@std@@@std@@QAE@V?$allocator@UUIEffectAniInfo@RouletteWnd@@@1@@Z
_TEXT	SEGMENT
__Al$ = 8						; size = 1
??0?$_Vector_val@UUIEffectAniInfo@RouletteWnd@@V?$allocator@UUIEffectAniInfo@RouletteWnd@@@std@@@std@@QAE@V?$allocator@UUIEffectAniInfo@RouletteWnd@@@1@@Z PROC ; std::_Vector_val<RouletteWnd::UIEffectAniInfo,std::allocator<RouletteWnd::UIEffectAniInfo> >::_Vector_val<RouletteWnd::UIEffectAniInfo,std::allocator<RouletteWnd::UIEffectAniInfo> >, COMDAT
; _this$ = ecx

; 426  : 		{	// construct allocator from _Al

  00000	8b c1		 mov	 eax, ecx

; 427  : 		_Myfirst = 0;

  00002	33 c9		 xor	 ecx, ecx
  00004	89 08		 mov	 DWORD PTR [eax], ecx

; 428  : 		_Mylast = 0;

  00006	89 48 04	 mov	 DWORD PTR [eax+4], ecx

; 429  : 		_Myend = 0;

  00009	89 48 08	 mov	 DWORD PTR [eax+8], ecx

; 430  : 		}

  0000c	c2 04 00	 ret	 4
??0?$_Vector_val@UUIEffectAniInfo@RouletteWnd@@V?$allocator@UUIEffectAniInfo@RouletteWnd@@@std@@@std@@QAE@V?$allocator@UUIEffectAniInfo@RouletteWnd@@@1@@Z ENDP ; std::_Vector_val<RouletteWnd::UIEffectAniInfo,std::allocator<RouletteWnd::UIEffectAniInfo> >::_Vector_val<RouletteWnd::UIEffectAniInfo,std::allocator<RouletteWnd::UIEffectAniInfo> >
_TEXT	ENDS
PUBLIC	??0?$_Vector_iterator@V?$_Vector_val@UUIEffectAniInfo@RouletteWnd@@V?$allocator@UUIEffectAniInfo@RouletteWnd@@@std@@@std@@@std@@QAE@PAUUIEffectAniInfo@RouletteWnd@@PBU_Container_base0@1@@Z ; std::_Vector_iterator<std::_Vector_val<RouletteWnd::UIEffectAniInfo,std::allocator<RouletteWnd::UIEffectAniInfo> > >::_Vector_iterator<std::_Vector_val<RouletteWnd::UIEffectAniInfo,std::allocator<RouletteWnd::UIEffectAniInfo> > >
; Function compile flags: /Ogsp
;	COMDAT ??0?$_Vector_iterator@V?$_Vector_val@UUIEffectAniInfo@RouletteWnd@@V?$allocator@UUIEffectAniInfo@RouletteWnd@@@std@@@std@@@std@@QAE@PAUUIEffectAniInfo@RouletteWnd@@PBU_Container_base0@1@@Z
_TEXT	SEGMENT
__Parg$ = 8						; size = 4
__Pvector$ = 12						; size = 4
??0?$_Vector_iterator@V?$_Vector_val@UUIEffectAniInfo@RouletteWnd@@V?$allocator@UUIEffectAniInfo@RouletteWnd@@@std@@@std@@@std@@QAE@PAUUIEffectAniInfo@RouletteWnd@@PBU_Container_base0@1@@Z PROC ; std::_Vector_iterator<std::_Vector_val<RouletteWnd::UIEffectAniInfo,std::allocator<RouletteWnd::UIEffectAniInfo> > >::_Vector_iterator<std::_Vector_val<RouletteWnd::UIEffectAniInfo,std::allocator<RouletteWnd::UIEffectAniInfo> > >, COMDAT
; _this$ = ecx

; 304  : 		{	// construct with pointer _Parg

  00000	55		 push	 ebp
  00001	8b ec		 mov	 ebp, esp
  00003	8b c1		 mov	 eax, ecx
  00005	8b 4d 08	 mov	 ecx, DWORD PTR __Parg$[ebp]
  00008	89 08		 mov	 DWORD PTR [eax], ecx

; 305  : 		}

  0000a	5d		 pop	 ebp
  0000b	c2 08 00	 ret	 8
??0?$_Vector_iterator@V?$_Vector_val@UUIEffectAniInfo@RouletteWnd@@V?$allocator@UUIEffectAniInfo@RouletteWnd@@@std@@@std@@@std@@QAE@PAUUIEffectAniInfo@RouletteWnd@@PBU_Container_base0@1@@Z ENDP ; std::_Vector_iterator<std::_Vector_val<RouletteWnd::UIEffectAniInfo,std::allocator<RouletteWnd::UIEffectAniInfo> > >::_Vector_iterator<std::_Vector_val<RouletteWnd::UIEffectAniInfo,std::allocator<RouletteWnd::UIEffectAniInfo> > >
_TEXT	ENDS
PUBLIC	??8?$_Vector_const_iterator@V?$_Vector_val@UUIEffectAniInfo@RouletteWnd@@V?$allocator@UUIEffectAniInfo@RouletteWnd@@@std@@@std@@@std@@QBE_NABV01@@Z ; std::_Vector_const_iterator<std::_Vector_val<RouletteWnd::UIEffectAniInfo,std::allocator<RouletteWnd::UIEffectAniInfo> > >::operator==
; Function compile flags: /Ogsp
;	COMDAT ??8?$_Vector_const_iterator@V?$_Vector_val@UUIEffectAniInfo@RouletteWnd@@V?$allocator@UUIEffectAniInfo@RouletteWnd@@@std@@@std@@@std@@QBE_NABV01@@Z
_TEXT	SEGMENT
__Right$ = 8						; size = 4
??8?$_Vector_const_iterator@V?$_Vector_val@UUIEffectAniInfo@RouletteWnd@@V?$allocator@UUIEffectAniInfo@RouletteWnd@@@std@@@std@@@std@@QBE_NABV01@@Z PROC ; std::_Vector_const_iterator<std::_Vector_val<RouletteWnd::UIEffectAniInfo,std::allocator<RouletteWnd::UIEffectAniInfo> > >::operator==, COMDAT
; _this$ = ecx

; 201  : 		{	// test for iterator equality

  00000	55		 push	 ebp
  00001	8b ec		 mov	 ebp, esp

; 202  : 		_Compat(_Right);
; 203  : 		return (this->_Ptr == _Right._Ptr);

  00003	8b 01		 mov	 eax, DWORD PTR [ecx]
  00005	8b 4d 08	 mov	 ecx, DWORD PTR __Right$[ebp]
  00008	2b 01		 sub	 eax, DWORD PTR [ecx]
  0000a	f7 d8		 neg	 eax
  0000c	1b c0		 sbb	 eax, eax
  0000e	40		 inc	 eax

; 204  : 		}

  0000f	5d		 pop	 ebp
  00010	c2 04 00	 ret	 4
??8?$_Vector_const_iterator@V?$_Vector_val@UUIEffectAniInfo@RouletteWnd@@V?$allocator@UUIEffectAniInfo@RouletteWnd@@@std@@@std@@@std@@QBE_NABV01@@Z ENDP ; std::_Vector_const_iterator<std::_Vector_val<RouletteWnd::UIEffectAniInfo,std::allocator<RouletteWnd::UIEffectAniInfo> > >::operator==
_TEXT	ENDS
PUBLIC	?max_size@?$vector@UUIEffectAniInfo@RouletteWnd@@V?$allocator@UUIEffectAniInfo@RouletteWnd@@@std@@@std@@QBEIXZ ; std::vector<RouletteWnd::UIEffectAniInfo,std::allocator<RouletteWnd::UIEffectAniInfo> >::max_size
; Function compile flags: /Ogsp
;	COMDAT ?max_size@?$vector@UUIEffectAniInfo@RouletteWnd@@V?$allocator@UUIEffectAniInfo@RouletteWnd@@@std@@@std@@QBEIXZ
_TEXT	SEGMENT
?max_size@?$vector@UUIEffectAniInfo@RouletteWnd@@V?$allocator@UUIEffectAniInfo@RouletteWnd@@@std@@@std@@QBEIXZ PROC ; std::vector<RouletteWnd::UIEffectAniInfo,std::allocator<RouletteWnd::UIEffectAniInfo> >::max_size, COMDAT
; _this$ = ecx

; 884  : 		return (this->_Alval.max_size());

  00000	b8 ff ff ff 07	 mov	 eax, 134217727		; 07ffffffH

; 885  : 		}

  00005	c3		 ret	 0
?max_size@?$vector@UUIEffectAniInfo@RouletteWnd@@V?$allocator@UUIEffectAniInfo@RouletteWnd@@@std@@@std@@QBEIXZ ENDP ; std::vector<RouletteWnd::UIEffectAniInfo,std::allocator<RouletteWnd::UIEffectAniInfo> >::max_size
_TEXT	ENDS
PUBLIC	?_Grow_to@?$vector@UUIEffectAniInfo@RouletteWnd@@V?$allocator@UUIEffectAniInfo@RouletteWnd@@@std@@@std@@IBEII@Z ; std::vector<RouletteWnd::UIEffectAniInfo,std::allocator<RouletteWnd::UIEffectAniInfo> >::_Grow_to
; Function compile flags: /Ogsp
;	COMDAT ?_Grow_to@?$vector@UUIEffectAniInfo@RouletteWnd@@V?$allocator@UUIEffectAniInfo@RouletteWnd@@@std@@@std@@IBEII@Z
_TEXT	SEGMENT
__Count$ = 8						; size = 4
?_Grow_to@?$vector@UUIEffectAniInfo@RouletteWnd@@V?$allocator@UUIEffectAniInfo@RouletteWnd@@@std@@@std@@IBEII@Z PROC ; std::vector<RouletteWnd::UIEffectAniInfo,std::allocator<RouletteWnd::UIEffectAniInfo> >::_Grow_to, COMDAT
; _this$ = ecx

; 1274 : 		{	// grow by 50% or at least to _Count

  00000	55		 push	 ebp
  00001	8b ec		 mov	 ebp, esp

; 1275 : 		size_type _Capacity = capacity();

  00003	8b 41 08	 mov	 eax, DWORD PTR [ecx+8]
  00006	2b 01		 sub	 eax, DWORD PTR [ecx]

; 1276 : 
; 1277 : 		_Capacity = max_size() - _Capacity / 2 < _Capacity
; 1278 : 			? 0 : _Capacity + _Capacity / 2;	// try to grow by 50%

  00008	ba ff ff ff 07	 mov	 edx, 134217727		; 07ffffffH
  0000d	c1 f8 05	 sar	 eax, 5
  00010	8b c8		 mov	 ecx, eax
  00012	d1 e9		 shr	 ecx, 1
  00014	2b d1		 sub	 edx, ecx
  00016	3b d0		 cmp	 edx, eax
  00018	73 04		 jae	 SHORT $LN4@Grow_to
  0001a	33 c0		 xor	 eax, eax
  0001c	eb 02		 jmp	 SHORT $LN5@Grow_to
$LN4@Grow_to:
  0001e	03 c1		 add	 eax, ecx
$LN5@Grow_to:

; 1279 : 		if (_Capacity < _Count)

  00020	3b 45 08	 cmp	 eax, DWORD PTR __Count$[ebp]

; 1280 : 			_Capacity = _Count;

  00023	0f 42 45 08	 cmovb	 eax, DWORD PTR __Count$[ebp]

; 1281 : 		return (_Capacity);
; 1282 : 		}

  00027	5d		 pop	 ebp
  00028	c2 04 00	 ret	 4
?_Grow_to@?$vector@UUIEffectAniInfo@RouletteWnd@@V?$allocator@UUIEffectAniInfo@RouletteWnd@@@std@@@std@@IBEII@Z ENDP ; std::vector<RouletteWnd::UIEffectAniInfo,std::allocator<RouletteWnd::UIEffectAniInfo> >::_Grow_to
_TEXT	ENDS
PUBLIC	?allocate@?$allocator@UUIEffectAniInfo@RouletteWnd@@@std@@QAEPAUUIEffectAniInfo@RouletteWnd@@I@Z ; std::allocator<RouletteWnd::UIEffectAniInfo>::allocate
; Function compile flags: /Ogsp
; File c:\program files (x86)\microsoft visual studio 10.0\vc\include\xmemory
;	COMDAT ?allocate@?$allocator@UUIEffectAniInfo@RouletteWnd@@@std@@QAEPAUUIEffectAniInfo@RouletteWnd@@I@Z
_TEXT	SEGMENT
__Count$ = 8						; size = 4
?allocate@?$allocator@UUIEffectAniInfo@RouletteWnd@@@std@@QAEPAUUIEffectAniInfo@RouletteWnd@@I@Z PROC ; std::allocator<RouletteWnd::UIEffectAniInfo>::allocate, COMDAT
; _this$ = ecx

; 186  : 		{	// allocate array of _Count elements

  00000	55		 push	 ebp
  00001	8b ec		 mov	 ebp, esp

; 187  : 		return (_Allocate(_Count, (pointer)0));

  00003	6a 00		 push	 0
  00005	ff 75 08	 push	 DWORD PTR __Count$[ebp]
  00008	e8 00 00 00 00	 call	 ??$_Allocate@UUIEffectAniInfo@RouletteWnd@@@std@@YAPAUUIEffectAniInfo@RouletteWnd@@IPAU12@@Z ; std::_Allocate<RouletteWnd::UIEffectAniInfo>
  0000d	59		 pop	 ecx
  0000e	59		 pop	 ecx

; 188  : 		}

  0000f	5d		 pop	 ebp
  00010	c2 04 00	 ret	 4
?allocate@?$allocator@UUIEffectAniInfo@RouletteWnd@@@std@@QAEPAUUIEffectAniInfo@RouletteWnd@@I@Z ENDP ; std::allocator<RouletteWnd::UIEffectAniInfo>::allocate
_TEXT	ENDS
PUBLIC	__$ArrayPad$
PUBLIC	??$?8$0BB@@@YA_NABVioHashString@@AAY0BB@$$CBD@Z	; operator==<17>
EXTRN	__imp_?c_str@ioHashString@@QBEPBDXZ:PROC
EXTRN	___security_cookie:DWORD
; Function compile flags: /Ogsp
; File d:\lost saga for developer\youtube\tutorial\source\src\io3dengine\iohashstring.h
;	COMDAT ??$?8$0BB@@@YA_NABVioHashString@@AAY0BB@$$CBD@Z
_TEXT	SEGMENT
__t$ = -28						; size = 17
__$ArrayPad$ = -4					; size = 4
_lhs$ = 8						; size = 4
_t$ = 12						; size = 4
??$?8$0BB@@@YA_NABVioHashString@@AAY0BB@$$CBD@Z PROC	; operator==<17>, COMDAT

; 146  : {

  00000	55		 push	 ebp
  00001	8b ec		 mov	 ebp, esp
  00003	83 ec 1c	 sub	 esp, 28			; 0000001cH
  00006	a1 00 00 00 00	 mov	 eax, DWORD PTR ___security_cookie
  0000b	33 c5		 xor	 eax, ebp
  0000d	89 45 fc	 mov	 DWORD PTR __$ArrayPad$[ebp], eax
  00010	8b 45 0c	 mov	 eax, DWORD PTR _t$[ebp]

; 147  : 	_ENCSTR(t, _t); return ( strcmp( lhs.c_str(), _t ) == 0 );

  00013	8a 10		 mov	 dl, BYTE PTR [eax]
  00015	56		 push	 esi
  00016	57		 push	 edi
  00017	8b 7d 08	 mov	 edi, DWORD PTR _lhs$[ebp]
  0001a	84 d2		 test	 dl, dl
  0001c	0f 84 a7 01 00
	00		 je	 $LN96@operator
  00022	80 f2 ed	 xor	 dl, -19			; ffffffedH
  00025	88 55 e4	 mov	 BYTE PTR __t$[ebp], dl
  00028	8a 50 01	 mov	 dl, BYTE PTR [eax+1]
  0002b	84 d2		 test	 dl, dl
  0002d	0f 84 90 01 00
	00		 je	 $LN95@operator
  00033	b1 ec		 mov	 cl, -20			; ffffffecH
  00035	32 d1		 xor	 dl, cl
  00037	88 55 e5	 mov	 BYTE PTR __t$[ebp+1], dl
  0003a	8a 50 02	 mov	 dl, BYTE PTR [eax+2]
  0003d	84 d2		 test	 dl, dl
  0003f	0f 84 78 01 00
	00		 je	 $LN94@operator
  00045	80 f2 eb	 xor	 dl, -21			; ffffffebH
  00048	88 55 e6	 mov	 BYTE PTR __t$[ebp+2], dl
  0004b	8a 50 03	 mov	 dl, BYTE PTR [eax+3]
  0004e	84 d2		 test	 dl, dl
  00050	0f 84 61 01 00
	00		 je	 $LN93@operator
  00056	80 f2 ea	 xor	 dl, -22			; ffffffeaH
  00059	88 55 e7	 mov	 BYTE PTR __t$[ebp+3], dl
  0005c	8a 50 04	 mov	 dl, BYTE PTR [eax+4]
  0005f	84 d2		 test	 dl, dl
  00061	0f 84 4a 01 00
	00		 je	 $LN92@operator
  00067	80 f2 ed	 xor	 dl, -19			; ffffffedH
  0006a	88 55 e8	 mov	 BYTE PTR __t$[ebp+4], dl
  0006d	8a 50 05	 mov	 dl, BYTE PTR [eax+5]
  00070	84 d2		 test	 dl, dl
  00072	0f 84 34 01 00
	00		 je	 $LN91@operator
  00078	32 d1		 xor	 dl, cl
  0007a	88 55 e9	 mov	 BYTE PTR __t$[ebp+5], dl
  0007d	8a 50 06	 mov	 dl, BYTE PTR [eax+6]
  00080	84 d2		 test	 dl, dl
  00082	0f 84 1e 01 00
	00		 je	 $LN90@operator
  00088	80 f2 eb	 xor	 dl, -21			; ffffffebH
  0008b	88 55 ea	 mov	 BYTE PTR __t$[ebp+6], dl
  0008e	8a 50 07	 mov	 dl, BYTE PTR [eax+7]
  00091	84 d2		 test	 dl, dl
  00093	0f 84 07 01 00
	00		 je	 $LN89@operator
  00099	80 f2 ea	 xor	 dl, -22			; ffffffeaH
  0009c	88 55 eb	 mov	 BYTE PTR __t$[ebp+7], dl
  0009f	8a 50 08	 mov	 dl, BYTE PTR [eax+8]
  000a2	84 d2		 test	 dl, dl
  000a4	0f 84 f0 00 00
	00		 je	 $LN88@operator
  000aa	80 f2 ed	 xor	 dl, -19			; ffffffedH
  000ad	88 55 ec	 mov	 BYTE PTR __t$[ebp+8], dl
  000b0	8a 50 09	 mov	 dl, BYTE PTR [eax+9]
  000b3	84 d2		 test	 dl, dl
  000b5	0f 84 da 00 00
	00		 je	 $LN87@operator
  000bb	32 d1		 xor	 dl, cl
  000bd	88 55 ed	 mov	 BYTE PTR __t$[ebp+9], dl
  000c0	8a 50 0a	 mov	 dl, BYTE PTR [eax+10]
  000c3	84 d2		 test	 dl, dl
  000c5	0f 84 c4 00 00
	00		 je	 $LN86@operator
  000cb	80 f2 eb	 xor	 dl, -21			; ffffffebH
  000ce	88 55 ee	 mov	 BYTE PTR __t$[ebp+10], dl
  000d1	8a 50 0b	 mov	 dl, BYTE PTR [eax+11]
  000d4	84 d2		 test	 dl, dl
  000d6	0f 84 ad 00 00
	00		 je	 $LN85@operator
  000dc	80 f2 ea	 xor	 dl, -22			; ffffffeaH
  000df	88 55 ef	 mov	 BYTE PTR __t$[ebp+11], dl
  000e2	8a 50 0c	 mov	 dl, BYTE PTR [eax+12]
  000e5	84 d2		 test	 dl, dl
  000e7	0f 84 96 00 00
	00		 je	 $LN84@operator
  000ed	80 f2 ed	 xor	 dl, -19			; ffffffedH
  000f0	88 55 f0	 mov	 BYTE PTR __t$[ebp+12], dl
  000f3	8a 50 0d	 mov	 dl, BYTE PTR [eax+13]
  000f6	84 d2		 test	 dl, dl
  000f8	0f 84 80 00 00
	00		 je	 $LN83@operator
  000fe	32 d1		 xor	 dl, cl
  00100	88 55 f1	 mov	 BYTE PTR __t$[ebp+13], dl
  00103	8a 50 0e	 mov	 dl, BYTE PTR [eax+14]
  00106	84 d2		 test	 dl, dl
  00108	74 6e		 je	 SHORT $LN82@operator
  0010a	80 f2 eb	 xor	 dl, -21			; ffffffebH
  0010d	88 55 f2	 mov	 BYTE PTR __t$[ebp+14], dl
  00110	8a 50 0f	 mov	 dl, BYTE PTR [eax+15]
  00113	84 d2		 test	 dl, dl
  00115	74 5b		 je	 SHORT $LN81@operator
  00117	80 f2 ea	 xor	 dl, -22			; ffffffeaH
  0011a	80 78 10 00	 cmp	 BYTE PTR [eax+16], 0
  0011e	88 55 f3	 mov	 BYTE PTR __t$[ebp+15], dl
  00121	0f 84 a6 00 00
	00		 je	 $LN1@operator
  00127	8a 50 11	 mov	 dl, BYTE PTR [eax+17]
  0012a	84 d2		 test	 dl, dl
  0012c	74 3f		 je	 SHORT $LN79@operator
  0012e	32 d1		 xor	 dl, cl
  00130	88 55 f5	 mov	 BYTE PTR __t$[ebp+17], dl
  00133	8a 50 12	 mov	 dl, BYTE PTR [eax+18]
  00136	84 d2		 test	 dl, dl
  00138	74 2d		 je	 SHORT $LN78@operator
  0013a	80 f2 eb	 xor	 dl, -21			; ffffffebH
  0013d	88 55 f6	 mov	 BYTE PTR __t$[ebp+18], dl
  00140	8a 50 13	 mov	 dl, BYTE PTR [eax+19]
  00143	84 d2		 test	 dl, dl
  00145	74 1a		 je	 SHORT $LN77@operator
  00147	8a 40 14	 mov	 al, BYTE PTR [eax+20]
  0014a	80 f2 ea	 xor	 dl, -22			; ffffffeaH
  0014d	88 55 f7	 mov	 BYTE PTR __t$[ebp+19], dl
  00150	84 c0		 test	 al, al
  00152	74 07		 je	 SHORT $LN76@operator
  00154	34 ed		 xor	 al, -19			; ffffffedH
  00156	88 45 f8	 mov	 BYTE PTR __t$[ebp+20], al
  00159	eb 72		 jmp	 SHORT $LN1@operator
$LN76@operator:
  0015b	c6 45 f8 ed	 mov	 BYTE PTR __t$[ebp+20], -19 ; ffffffedH
  0015f	eb 6c		 jmp	 SHORT $LN1@operator
$LN77@operator:
  00161	c6 45 f7 ea	 mov	 BYTE PTR __t$[ebp+19], -22 ; ffffffeaH
  00165	eb 66		 jmp	 SHORT $LN1@operator
$LN78@operator:
  00167	c6 45 f6 eb	 mov	 BYTE PTR __t$[ebp+18], -21 ; ffffffebH
  0016b	eb 60		 jmp	 SHORT $LN1@operator
$LN79@operator:
  0016d	88 4d f5	 mov	 BYTE PTR __t$[ebp+17], cl
  00170	eb 5b		 jmp	 SHORT $LN1@operator
$LN81@operator:
  00172	c6 45 f3 ea	 mov	 BYTE PTR __t$[ebp+15], -22 ; ffffffeaH
  00176	eb 55		 jmp	 SHORT $LN1@operator
$LN82@operator:
  00178	c6 45 f2 eb	 mov	 BYTE PTR __t$[ebp+14], -21 ; ffffffebH
  0017c	eb 4f		 jmp	 SHORT $LN1@operator
$LN83@operator:
  0017e	88 4d f1	 mov	 BYTE PTR __t$[ebp+13], cl
  00181	eb 4a		 jmp	 SHORT $LN1@operator
$LN84@operator:
  00183	c6 45 f0 ed	 mov	 BYTE PTR __t$[ebp+12], -19 ; ffffffedH
  00187	eb 44		 jmp	 SHORT $LN1@operator
$LN85@operator:
  00189	c6 45 ef ea	 mov	 BYTE PTR __t$[ebp+11], -22 ; ffffffeaH
  0018d	eb 3e		 jmp	 SHORT $LN1@operator
$LN86@operator:
  0018f	c6 45 ee eb	 mov	 BYTE PTR __t$[ebp+10], -21 ; ffffffebH
  00193	eb 38		 jmp	 SHORT $LN1@operator
$LN87@operator:
  00195	88 4d ed	 mov	 BYTE PTR __t$[ebp+9], cl
  00198	eb 33		 jmp	 SHORT $LN1@operator
$LN88@operator:
  0019a	c6 45 ec ed	 mov	 BYTE PTR __t$[ebp+8], -19 ; ffffffedH
  0019e	eb 2d		 jmp	 SHORT $LN1@operator
$LN89@operator:
  001a0	c6 45 eb ea	 mov	 BYTE PTR __t$[ebp+7], -22 ; ffffffeaH
  001a4	eb 27		 jmp	 SHORT $LN1@operator
$LN90@operator:
  001a6	c6 45 ea eb	 mov	 BYTE PTR __t$[ebp+6], -21 ; ffffffebH
  001aa	eb 21		 jmp	 SHORT $LN1@operator
$LN91@operator:
  001ac	88 4d e9	 mov	 BYTE PTR __t$[ebp+5], cl
  001af	eb 1c		 jmp	 SHORT $LN1@operator
$LN92@operator:
  001b1	c6 45 e8 ed	 mov	 BYTE PTR __t$[ebp+4], -19 ; ffffffedH
  001b5	eb 16		 jmp	 SHORT $LN1@operator
$LN93@operator:
  001b7	c6 45 e7 ea	 mov	 BYTE PTR __t$[ebp+3], -22 ; ffffffeaH
  001bb	eb 10		 jmp	 SHORT $LN1@operator
$LN94@operator:
  001bd	c6 45 e6 eb	 mov	 BYTE PTR __t$[ebp+2], -21 ; ffffffebH
  001c1	eb 0a		 jmp	 SHORT $LN1@operator
$LN95@operator:
  001c3	c6 45 e5 ec	 mov	 BYTE PTR __t$[ebp+1], -20 ; ffffffecH
  001c7	eb 04		 jmp	 SHORT $LN1@operator
$LN96@operator:
  001c9	c6 45 e4 ed	 mov	 BYTE PTR __t$[ebp], -19	; ffffffedH
$LN1@operator:
  001cd	6a 04		 push	 4
  001cf	8d 45 e4	 lea	 eax, DWORD PTR __t$[ebp]
  001d2	c6 45 f4 00	 mov	 BYTE PTR __t$[ebp+16], 0
  001d6	5a		 pop	 edx
$LL104@operator:
  001d7	81 30 ed ec eb
	ea		 xor	 DWORD PTR [eax], -353637139 ; eaebecedH
  001dd	83 c0 04	 add	 eax, 4
  001e0	4a		 dec	 edx
  001e1	75 f4		 jne	 SHORT $LL104@operator
  001e3	8b cf		 mov	 ecx, edi
  001e5	8d 75 e4	 lea	 esi, DWORD PTR __t$[ebp]
  001e8	ff 15 00 00 00
	00		 call	 DWORD PTR __imp_?c_str@ioHashString@@QBEPBDXZ
$LL111@operator:
  001ee	8a 08		 mov	 cl, BYTE PTR [eax]
  001f0	3a 0e		 cmp	 cl, BYTE PTR [esi]
  001f2	75 1a		 jne	 SHORT $LN112@operator
  001f4	84 c9		 test	 cl, cl
  001f6	74 12		 je	 SHORT $LN113@operator
  001f8	8a 48 01	 mov	 cl, BYTE PTR [eax+1]
  001fb	3a 4e 01	 cmp	 cl, BYTE PTR [esi+1]
  001fe	75 0e		 jne	 SHORT $LN112@operator
  00200	83 c0 02	 add	 eax, 2
  00203	83 c6 02	 add	 esi, 2
  00206	84 c9		 test	 cl, cl
  00208	75 e4		 jne	 SHORT $LL111@operator
$LN113@operator:
  0020a	33 c0		 xor	 eax, eax
  0020c	eb 05		 jmp	 SHORT $LN114@operator
$LN112@operator:
  0020e	1b c0		 sbb	 eax, eax
  00210	83 d8 ff	 sbb	 eax, -1
$LN114@operator:
  00213	33 c9		 xor	 ecx, ecx
  00215	85 c0		 test	 eax, eax
  00217	0f 94 c0	 sete	 al

; 148  : }

  0021a	8b 4d fc	 mov	 ecx, DWORD PTR __$ArrayPad$[ebp]
  0021d	5f		 pop	 edi
  0021e	33 cd		 xor	 ecx, ebp
  00220	5e		 pop	 esi
  00221	e8 00 00 00 00	 call	 @__security_check_cookie@4
  00226	c9		 leave
  00227	c3		 ret	 0
??$?8$0BB@@@YA_NABVioHashString@@AAY0BB@$$CBD@Z ENDP	; operator==<17>
_TEXT	ENDS
PUBLIC	__$ArrayPad$
PUBLIC	??$?8$0L@@@YA_NABVioHashString@@AAY0L@$$CBD@Z	; operator==<11>
; Function compile flags: /Ogsp
;	COMDAT ??$?8$0L@@@YA_NABVioHashString@@AAY0L@$$CBD@Z
_TEXT	SEGMENT
__t$ = -20						; size = 11
__$ArrayPad$ = -4					; size = 4
_lhs$ = 8						; size = 4
_t$ = 12						; size = 4
??$?8$0L@@@YA_NABVioHashString@@AAY0L@$$CBD@Z PROC	; operator==<11>, COMDAT

; 146  : {

  00000	55		 push	 ebp
  00001	8b ec		 mov	 ebp, esp
  00003	83 ec 14	 sub	 esp, 20			; 00000014H
  00006	a1 00 00 00 00	 mov	 eax, DWORD PTR ___security_cookie
  0000b	33 c5		 xor	 eax, ebp
  0000d	89 45 fc	 mov	 DWORD PTR __$ArrayPad$[ebp], eax
  00010	8b 45 0c	 mov	 eax, DWORD PTR _t$[ebp]

; 147  : 	_ENCSTR(t, _t); return ( strcmp( lhs.c_str(), _t ) == 0 );

  00013	8a 10		 mov	 dl, BYTE PTR [eax]
  00015	56		 push	 esi
  00016	57		 push	 edi
  00017	8b 7d 08	 mov	 edi, DWORD PTR _lhs$[ebp]
  0001a	84 d2		 test	 dl, dl
  0001c	0f 84 24 01 00
	00		 je	 $LN96@operator@2
  00022	80 f2 ed	 xor	 dl, -19			; ffffffedH
  00025	88 55 ec	 mov	 BYTE PTR __t$[ebp], dl
  00028	8a 50 01	 mov	 dl, BYTE PTR [eax+1]
  0002b	84 d2		 test	 dl, dl
  0002d	0f 84 0d 01 00
	00		 je	 $LN95@operator@2
  00033	80 f2 ec	 xor	 dl, -20			; ffffffecH
  00036	88 55 ed	 mov	 BYTE PTR __t$[ebp+1], dl
  00039	8a 50 02	 mov	 dl, BYTE PTR [eax+2]
  0003c	84 d2		 test	 dl, dl
  0003e	0f 84 f6 00 00
	00		 je	 $LN94@operator@2
  00044	80 f2 eb	 xor	 dl, -21			; ffffffebH
  00047	88 55 ee	 mov	 BYTE PTR __t$[ebp+2], dl
  0004a	8a 50 03	 mov	 dl, BYTE PTR [eax+3]
  0004d	84 d2		 test	 dl, dl
  0004f	0f 84 df 00 00
	00		 je	 $LN93@operator@2
  00055	80 f2 ea	 xor	 dl, -22			; ffffffeaH
  00058	88 55 ef	 mov	 BYTE PTR __t$[ebp+3], dl
  0005b	8a 50 04	 mov	 dl, BYTE PTR [eax+4]
  0005e	84 d2		 test	 dl, dl
  00060	0f 84 c8 00 00
	00		 je	 $LN92@operator@2
  00066	80 f2 ed	 xor	 dl, -19			; ffffffedH
  00069	88 55 f0	 mov	 BYTE PTR __t$[ebp+4], dl
  0006c	8a 50 05	 mov	 dl, BYTE PTR [eax+5]
  0006f	84 d2		 test	 dl, dl
  00071	0f 84 b1 00 00
	00		 je	 $LN91@operator@2
  00077	80 f2 ec	 xor	 dl, -20			; ffffffecH
  0007a	88 55 f1	 mov	 BYTE PTR __t$[ebp+5], dl
  0007d	8a 50 06	 mov	 dl, BYTE PTR [eax+6]
  00080	84 d2		 test	 dl, dl
  00082	0f 84 9a 00 00
	00		 je	 $LN90@operator@2
  00088	80 f2 eb	 xor	 dl, -21			; ffffffebH
  0008b	88 55 f2	 mov	 BYTE PTR __t$[ebp+6], dl
  0008e	8a 50 07	 mov	 dl, BYTE PTR [eax+7]
  00091	84 d2		 test	 dl, dl
  00093	0f 84 83 00 00
	00		 je	 $LN89@operator@2
  00099	80 f2 ea	 xor	 dl, -22			; ffffffeaH
  0009c	88 55 f3	 mov	 BYTE PTR __t$[ebp+7], dl
  0009f	8a 50 08	 mov	 dl, BYTE PTR [eax+8]
  000a2	84 d2		 test	 dl, dl
  000a4	74 70		 je	 SHORT $LN88@operator@2
  000a6	80 f2 ed	 xor	 dl, -19			; ffffffedH
  000a9	88 55 f4	 mov	 BYTE PTR __t$[ebp+8], dl
  000ac	8a 50 09	 mov	 dl, BYTE PTR [eax+9]
  000af	84 d2		 test	 dl, dl
  000b1	74 5d		 je	 SHORT $LN87@operator@2
  000b3	80 f2 ec	 xor	 dl, -20			; ffffffecH
  000b6	80 78 0a 00	 cmp	 BYTE PTR [eax+10], 0
  000ba	88 55 f5	 mov	 BYTE PTR __t$[ebp+9], dl
  000bd	0f 84 87 00 00
	00		 je	 $LN1@operator@2
  000c3	8a 50 0b	 mov	 dl, BYTE PTR [eax+11]
  000c6	84 d2		 test	 dl, dl
  000c8	74 40		 je	 SHORT $LN85@operator@2
  000ca	80 f2 ea	 xor	 dl, -22			; ffffffeaH
  000cd	88 55 f7	 mov	 BYTE PTR __t$[ebp+11], dl
  000d0	8a 50 0c	 mov	 dl, BYTE PTR [eax+12]
  000d3	84 d2		 test	 dl, dl
  000d5	74 2d		 je	 SHORT $LN84@operator@2
  000d7	80 f2 ed	 xor	 dl, -19			; ffffffedH
  000da	88 55 f8	 mov	 BYTE PTR __t$[ebp+12], dl
  000dd	8a 50 0d	 mov	 dl, BYTE PTR [eax+13]
  000e0	84 d2		 test	 dl, dl
  000e2	74 1a		 je	 SHORT $LN83@operator@2
  000e4	8a 40 0e	 mov	 al, BYTE PTR [eax+14]
  000e7	80 f2 ec	 xor	 dl, -20			; ffffffecH
  000ea	88 55 f9	 mov	 BYTE PTR __t$[ebp+13], dl
  000ed	84 c0		 test	 al, al
  000ef	74 07		 je	 SHORT $LN82@operator@2
  000f1	34 eb		 xor	 al, -21			; ffffffebH
  000f3	88 45 fa	 mov	 BYTE PTR __t$[ebp+14], al
  000f6	eb 52		 jmp	 SHORT $LN1@operator@2
$LN82@operator@2:
  000f8	c6 45 fa eb	 mov	 BYTE PTR __t$[ebp+14], -21 ; ffffffebH
  000fc	eb 4c		 jmp	 SHORT $LN1@operator@2
$LN83@operator@2:
  000fe	c6 45 f9 ec	 mov	 BYTE PTR __t$[ebp+13], -20 ; ffffffecH
  00102	eb 46		 jmp	 SHORT $LN1@operator@2
$LN84@operator@2:
  00104	c6 45 f8 ed	 mov	 BYTE PTR __t$[ebp+12], -19 ; ffffffedH
  00108	eb 40		 jmp	 SHORT $LN1@operator@2
$LN85@operator@2:
  0010a	c6 45 f7 ea	 mov	 BYTE PTR __t$[ebp+11], -22 ; ffffffeaH
  0010e	eb 3a		 jmp	 SHORT $LN1@operator@2
$LN87@operator@2:
  00110	c6 45 f5 ec	 mov	 BYTE PTR __t$[ebp+9], -20 ; ffffffecH
  00114	eb 34		 jmp	 SHORT $LN1@operator@2
$LN88@operator@2:
  00116	c6 45 f4 ed	 mov	 BYTE PTR __t$[ebp+8], -19 ; ffffffedH
  0011a	eb 2e		 jmp	 SHORT $LN1@operator@2
$LN89@operator@2:
  0011c	c6 45 f3 ea	 mov	 BYTE PTR __t$[ebp+7], -22 ; ffffffeaH
  00120	eb 28		 jmp	 SHORT $LN1@operator@2
$LN90@operator@2:
  00122	c6 45 f2 eb	 mov	 BYTE PTR __t$[ebp+6], -21 ; ffffffebH
  00126	eb 22		 jmp	 SHORT $LN1@operator@2
$LN91@operator@2:
  00128	c6 45 f1 ec	 mov	 BYTE PTR __t$[ebp+5], -20 ; ffffffecH
  0012c	eb 1c		 jmp	 SHORT $LN1@operator@2
$LN92@operator@2:
  0012e	c6 45 f0 ed	 mov	 BYTE PTR __t$[ebp+4], -19 ; ffffffedH
  00132	eb 16		 jmp	 SHORT $LN1@operator@2
$LN93@operator@2:
  00134	c6 45 ef ea	 mov	 BYTE PTR __t$[ebp+3], -22 ; ffffffeaH
  00138	eb 10		 jmp	 SHORT $LN1@operator@2
$LN94@operator@2:
  0013a	c6 45 ee eb	 mov	 BYTE PTR __t$[ebp+2], -21 ; ffffffebH
  0013e	eb 0a		 jmp	 SHORT $LN1@operator@2
$LN95@operator@2:
  00140	c6 45 ed ec	 mov	 BYTE PTR __t$[ebp+1], -20 ; ffffffecH
  00144	eb 04		 jmp	 SHORT $LN1@operator@2
$LN96@operator@2:
  00146	c6 45 ec ed	 mov	 BYTE PTR __t$[ebp], -19	; ffffffedH
$LN1@operator@2:
  0014a	6a 02		 push	 2
  0014c	8d 45 ec	 lea	 eax, DWORD PTR __t$[ebp]
  0014f	c6 45 f6 00	 mov	 BYTE PTR __t$[ebp+10], 0
  00153	5a		 pop	 edx
$LL104@operator@2:
  00154	81 30 ed ec eb
	ea		 xor	 DWORD PTR [eax], -353637139 ; eaebecedH
  0015a	83 c0 04	 add	 eax, 4
  0015d	4a		 dec	 edx
  0015e	75 f4		 jne	 SHORT $LL104@operator@2
  00160	6a 08		 push	 8
  00162	58		 pop	 eax
$LL101@operator@2:
  00163	8b c8		 mov	 ecx, eax
  00165	81 e1 03 00 00
	80		 and	 ecx, -2147483645	; 80000003H
  0016b	79 05		 jns	 SHORT $LN115@operator@2
  0016d	49		 dec	 ecx
  0016e	83 c9 fc	 or	 ecx, -4			; fffffffcH
  00171	41		 inc	 ecx
$LN115@operator@2:
  00172	b2 ed		 mov	 dl, -19			; ffffffedH
  00174	2a d1		 sub	 dl, cl
  00176	30 54 05 ec	 xor	 BYTE PTR __t$[ebp+eax], dl
  0017a	40		 inc	 eax
  0017b	83 f8 0a	 cmp	 eax, 10			; 0000000aH
  0017e	7c e3		 jl	 SHORT $LL101@operator@2
  00180	8b cf		 mov	 ecx, edi
  00182	8d 75 ec	 lea	 esi, DWORD PTR __t$[ebp]
  00185	ff 15 00 00 00
	00		 call	 DWORD PTR __imp_?c_str@ioHashString@@QBEPBDXZ
$LL111@operator@2:
  0018b	8a 08		 mov	 cl, BYTE PTR [eax]
  0018d	3a 0e		 cmp	 cl, BYTE PTR [esi]
  0018f	75 1a		 jne	 SHORT $LN112@operator@2
  00191	84 c9		 test	 cl, cl
  00193	74 12		 je	 SHORT $LN113@operator@2
  00195	8a 48 01	 mov	 cl, BYTE PTR [eax+1]
  00198	3a 4e 01	 cmp	 cl, BYTE PTR [esi+1]
  0019b	75 0e		 jne	 SHORT $LN112@operator@2
  0019d	83 c0 02	 add	 eax, 2
  001a0	83 c6 02	 add	 esi, 2
  001a3	84 c9		 test	 cl, cl
  001a5	75 e4		 jne	 SHORT $LL111@operator@2
$LN113@operator@2:
  001a7	33 c0		 xor	 eax, eax
  001a9	eb 05		 jmp	 SHORT $LN114@operator@2
$LN112@operator@2:
  001ab	1b c0		 sbb	 eax, eax
  001ad	83 d8 ff	 sbb	 eax, -1
$LN114@operator@2:
  001b0	33 c9		 xor	 ecx, ecx
  001b2	85 c0		 test	 eax, eax
  001b4	0f 94 c0	 sete	 al

; 148  : }

  001b7	8b 4d fc	 mov	 ecx, DWORD PTR __$ArrayPad$[ebp]
  001ba	5f		 pop	 edi
  001bb	33 cd		 xor	 ecx, ebp
  001bd	5e		 pop	 esi
  001be	e8 00 00 00 00	 call	 @__security_check_cookie@4
  001c3	c9		 leave
  001c4	c3		 ret	 0
??$?8$0L@@@YA_NABVioHashString@@AAY0L@$$CBD@Z ENDP	; operator==<11>
_TEXT	ENDS
PUBLIC	__$ArrayPad$
PUBLIC	??$?8$09@@YA_NABVioHashString@@AAY09$$CBD@Z	; operator==<10>
; Function compile flags: /Ogsp
;	COMDAT ??$?8$09@@YA_NABVioHashString@@AAY09$$CBD@Z
_TEXT	SEGMENT
__t$ = -20						; size = 10
__$ArrayPad$ = -4					; size = 4
_lhs$ = 8						; size = 4
_t$ = 12						; size = 4
??$?8$09@@YA_NABVioHashString@@AAY09$$CBD@Z PROC	; operator==<10>, COMDAT

; 146  : {

  00000	55		 push	 ebp
  00001	8b ec		 mov	 ebp, esp
  00003	83 ec 14	 sub	 esp, 20			; 00000014H
  00006	a1 00 00 00 00	 mov	 eax, DWORD PTR ___security_cookie
  0000b	33 c5		 xor	 eax, ebp
  0000d	89 45 fc	 mov	 DWORD PTR __$ArrayPad$[ebp], eax
  00010	8b 45 0c	 mov	 eax, DWORD PTR _t$[ebp]

; 147  : 	_ENCSTR(t, _t); return ( strcmp( lhs.c_str(), _t ) == 0 );

  00013	8a 10		 mov	 dl, BYTE PTR [eax]
  00015	8b 4d 08	 mov	 ecx, DWORD PTR _lhs$[ebp]
  00018	84 d2		 test	 dl, dl
  0001a	0f 84 0d 01 00
	00		 je	 $LN96@operator@3
  00020	80 f2 ed	 xor	 dl, -19			; ffffffedH
  00023	88 55 ec	 mov	 BYTE PTR __t$[ebp], dl
  00026	8a 50 01	 mov	 dl, BYTE PTR [eax+1]
  00029	84 d2		 test	 dl, dl
  0002b	0f 84 f6 00 00
	00		 je	 $LN95@operator@3
  00031	80 f2 ec	 xor	 dl, -20			; ffffffecH
  00034	88 55 ed	 mov	 BYTE PTR __t$[ebp+1], dl
  00037	8a 50 02	 mov	 dl, BYTE PTR [eax+2]
  0003a	84 d2		 test	 dl, dl
  0003c	0f 84 df 00 00
	00		 je	 $LN94@operator@3
  00042	80 f2 eb	 xor	 dl, -21			; ffffffebH
  00045	88 55 ee	 mov	 BYTE PTR __t$[ebp+2], dl
  00048	8a 50 03	 mov	 dl, BYTE PTR [eax+3]
  0004b	84 d2		 test	 dl, dl
  0004d	0f 84 c8 00 00
	00		 je	 $LN93@operator@3
  00053	80 f2 ea	 xor	 dl, -22			; ffffffeaH
  00056	88 55 ef	 mov	 BYTE PTR __t$[ebp+3], dl
  00059	8a 50 04	 mov	 dl, BYTE PTR [eax+4]
  0005c	84 d2		 test	 dl, dl
  0005e	0f 84 b1 00 00
	00		 je	 $LN92@operator@3
  00064	80 f2 ed	 xor	 dl, -19			; ffffffedH
  00067	88 55 f0	 mov	 BYTE PTR __t$[ebp+4], dl
  0006a	8a 50 05	 mov	 dl, BYTE PTR [eax+5]
  0006d	84 d2		 test	 dl, dl
  0006f	0f 84 9a 00 00
	00		 je	 $LN91@operator@3
  00075	80 f2 ec	 xor	 dl, -20			; ffffffecH
  00078	88 55 f1	 mov	 BYTE PTR __t$[ebp+5], dl
  0007b	8a 50 06	 mov	 dl, BYTE PTR [eax+6]
  0007e	84 d2		 test	 dl, dl
  00080	0f 84 83 00 00
	00		 je	 $LN90@operator@3
  00086	80 f2 eb	 xor	 dl, -21			; ffffffebH
  00089	88 55 f2	 mov	 BYTE PTR __t$[ebp+6], dl
  0008c	8a 50 07	 mov	 dl, BYTE PTR [eax+7]
  0008f	84 d2		 test	 dl, dl
  00091	74 70		 je	 SHORT $LN89@operator@3
  00093	80 f2 ea	 xor	 dl, -22			; ffffffeaH
  00096	88 55 f3	 mov	 BYTE PTR __t$[ebp+7], dl
  00099	8a 50 08	 mov	 dl, BYTE PTR [eax+8]
  0009c	84 d2		 test	 dl, dl
  0009e	74 5d		 je	 SHORT $LN88@operator@3
  000a0	80 f2 ed	 xor	 dl, -19			; ffffffedH
  000a3	80 78 09 00	 cmp	 BYTE PTR [eax+9], 0
  000a7	88 55 f4	 mov	 BYTE PTR __t$[ebp+8], dl
  000aa	0f 84 81 00 00
	00		 je	 $LN1@operator@3
  000b0	8a 50 0a	 mov	 dl, BYTE PTR [eax+10]
  000b3	84 d2		 test	 dl, dl
  000b5	74 40		 je	 SHORT $LN86@operator@3
  000b7	80 f2 eb	 xor	 dl, -21			; ffffffebH
  000ba	88 55 f6	 mov	 BYTE PTR __t$[ebp+10], dl
  000bd	8a 50 0b	 mov	 dl, BYTE PTR [eax+11]
  000c0	84 d2		 test	 dl, dl
  000c2	74 2d		 je	 SHORT $LN85@operator@3
  000c4	80 f2 ea	 xor	 dl, -22			; ffffffeaH
  000c7	88 55 f7	 mov	 BYTE PTR __t$[ebp+11], dl
  000ca	8a 50 0c	 mov	 dl, BYTE PTR [eax+12]
  000cd	84 d2		 test	 dl, dl
  000cf	74 1a		 je	 SHORT $LN84@operator@3
  000d1	8a 40 0d	 mov	 al, BYTE PTR [eax+13]
  000d4	80 f2 ed	 xor	 dl, -19			; ffffffedH
  000d7	88 55 f8	 mov	 BYTE PTR __t$[ebp+12], dl
  000da	84 c0		 test	 al, al
  000dc	74 07		 je	 SHORT $LN83@operator@3
  000de	34 ec		 xor	 al, -20			; ffffffecH
  000e0	88 45 f9	 mov	 BYTE PTR __t$[ebp+13], al
  000e3	eb 4c		 jmp	 SHORT $LN1@operator@3
$LN83@operator@3:
  000e5	c6 45 f9 ec	 mov	 BYTE PTR __t$[ebp+13], -20 ; ffffffecH
  000e9	eb 46		 jmp	 SHORT $LN1@operator@3
$LN84@operator@3:
  000eb	c6 45 f8 ed	 mov	 BYTE PTR __t$[ebp+12], -19 ; ffffffedH
  000ef	eb 40		 jmp	 SHORT $LN1@operator@3
$LN85@operator@3:
  000f1	c6 45 f7 ea	 mov	 BYTE PTR __t$[ebp+11], -22 ; ffffffeaH
  000f5	eb 3a		 jmp	 SHORT $LN1@operator@3
$LN86@operator@3:
  000f7	c6 45 f6 eb	 mov	 BYTE PTR __t$[ebp+10], -21 ; ffffffebH
  000fb	eb 34		 jmp	 SHORT $LN1@operator@3
$LN88@operator@3:
  000fd	c6 45 f4 ed	 mov	 BYTE PTR __t$[ebp+8], -19 ; ffffffedH
  00101	eb 2e		 jmp	 SHORT $LN1@operator@3
$LN89@operator@3:
  00103	c6 45 f3 ea	 mov	 BYTE PTR __t$[ebp+7], -22 ; ffffffeaH
  00107	eb 28		 jmp	 SHORT $LN1@operator@3
$LN90@operator@3:
  00109	c6 45 f2 eb	 mov	 BYTE PTR __t$[ebp+6], -21 ; ffffffebH
  0010d	eb 22		 jmp	 SHORT $LN1@operator@3
$LN91@operator@3:
  0010f	c6 45 f1 ec	 mov	 BYTE PTR __t$[ebp+5], -20 ; ffffffecH
  00113	eb 1c		 jmp	 SHORT $LN1@operator@3
$LN92@operator@3:
  00115	c6 45 f0 ed	 mov	 BYTE PTR __t$[ebp+4], -19 ; ffffffedH
  00119	eb 16		 jmp	 SHORT $LN1@operator@3
$LN93@operator@3:
  0011b	c6 45 ef ea	 mov	 BYTE PTR __t$[ebp+3], -22 ; ffffffeaH
  0011f	eb 10		 jmp	 SHORT $LN1@operator@3
$LN94@operator@3:
  00121	c6 45 ee eb	 mov	 BYTE PTR __t$[ebp+2], -21 ; ffffffebH
  00125	eb 0a		 jmp	 SHORT $LN1@operator@3
$LN95@operator@3:
  00127	c6 45 ed ec	 mov	 BYTE PTR __t$[ebp+1], -20 ; ffffffecH
  0012b	eb 04		 jmp	 SHORT $LN1@operator@3
$LN96@operator@3:
  0012d	c6 45 ec ed	 mov	 BYTE PTR __t$[ebp], -19	; ffffffedH
$LN1@operator@3:
  00131	6a 02		 push	 2
  00133	8d 45 ec	 lea	 eax, DWORD PTR __t$[ebp]
  00136	c6 45 f5 00	 mov	 BYTE PTR __t$[ebp+9], 0
  0013a	5a		 pop	 edx
$LL104@operator@3:
  0013b	81 30 ed ec eb
	ea		 xor	 DWORD PTR [eax], -353637139 ; eaebecedH
  00141	83 c0 04	 add	 eax, 4
  00144	4a		 dec	 edx
  00145	75 f4		 jne	 SHORT $LL104@operator@3
  00147	80 75 f4 ed	 xor	 BYTE PTR __t$[ebp+8], -19 ; ffffffedH
  0014b	56		 push	 esi
  0014c	8d 75 ec	 lea	 esi, DWORD PTR __t$[ebp]
  0014f	ff 15 00 00 00
	00		 call	 DWORD PTR __imp_?c_str@ioHashString@@QBEPBDXZ
$LL111@operator@3:
  00155	8a 08		 mov	 cl, BYTE PTR [eax]
  00157	3a 0e		 cmp	 cl, BYTE PTR [esi]
  00159	75 1a		 jne	 SHORT $LN112@operator@3
  0015b	84 c9		 test	 cl, cl
  0015d	74 12		 je	 SHORT $LN113@operator@3
  0015f	8a 48 01	 mov	 cl, BYTE PTR [eax+1]
  00162	3a 4e 01	 cmp	 cl, BYTE PTR [esi+1]
  00165	75 0e		 jne	 SHORT $LN112@operator@3
  00167	83 c0 02	 add	 eax, 2
  0016a	83 c6 02	 add	 esi, 2
  0016d	84 c9		 test	 cl, cl
  0016f	75 e4		 jne	 SHORT $LL111@operator@3
$LN113@operator@3:
  00171	33 c0		 xor	 eax, eax
  00173	eb 05		 jmp	 SHORT $LN114@operator@3
$LN112@operator@3:
  00175	1b c0		 sbb	 eax, eax
  00177	83 d8 ff	 sbb	 eax, -1
$LN114@operator@3:
  0017a	33 c9		 xor	 ecx, ecx
  0017c	85 c0		 test	 eax, eax
  0017e	0f 94 c0	 sete	 al

; 148  : }

  00181	8b 4d fc	 mov	 ecx, DWORD PTR __$ArrayPad$[ebp]
  00184	33 cd		 xor	 ecx, ebp
  00186	5e		 pop	 esi
  00187	e8 00 00 00 00	 call	 @__security_check_cookie@4
  0018c	c9		 leave
  0018d	c3		 ret	 0
??$?8$09@@YA_NABVioHashString@@AAY09$$CBD@Z ENDP	; operator==<10>
_TEXT	ENDS
PUBLIC	__$ArrayPad$
PUBLIC	??$?8$08@@YA_NABVioHashString@@AAY08$$CBD@Z	; operator==<9>
; Function compile flags: /Ogsp
;	COMDAT ??$?8$08@@YA_NABVioHashString@@AAY08$$CBD@Z
_TEXT	SEGMENT
__t$ = -20						; size = 9
__$ArrayPad$ = -4					; size = 4
_lhs$ = 8						; size = 4
_t$ = 12						; size = 4
??$?8$08@@YA_NABVioHashString@@AAY08$$CBD@Z PROC	; operator==<9>, COMDAT

; 146  : {

  00000	55		 push	 ebp
  00001	8b ec		 mov	 ebp, esp
  00003	83 ec 14	 sub	 esp, 20			; 00000014H
  00006	a1 00 00 00 00	 mov	 eax, DWORD PTR ___security_cookie
  0000b	33 c5		 xor	 eax, ebp
  0000d	89 45 fc	 mov	 DWORD PTR __$ArrayPad$[ebp], eax
  00010	8b 45 0c	 mov	 eax, DWORD PTR _t$[ebp]

; 147  : 	_ENCSTR(t, _t); return ( strcmp( lhs.c_str(), _t ) == 0 );

  00013	8a 10		 mov	 dl, BYTE PTR [eax]
  00015	8b 4d 08	 mov	 ecx, DWORD PTR _lhs$[ebp]
  00018	84 d2		 test	 dl, dl
  0001a	0f 84 ee 00 00
	00		 je	 $LN96@operator@4
  00020	80 f2 ed	 xor	 dl, -19			; ffffffedH
  00023	88 55 ec	 mov	 BYTE PTR __t$[ebp], dl
  00026	8a 50 01	 mov	 dl, BYTE PTR [eax+1]
  00029	84 d2		 test	 dl, dl
  0002b	0f 84 d7 00 00
	00		 je	 $LN95@operator@4
  00031	80 f2 ec	 xor	 dl, -20			; ffffffecH
  00034	88 55 ed	 mov	 BYTE PTR __t$[ebp+1], dl
  00037	8a 50 02	 mov	 dl, BYTE PTR [eax+2]
  0003a	84 d2		 test	 dl, dl
  0003c	0f 84 c0 00 00
	00		 je	 $LN94@operator@4
  00042	80 f2 eb	 xor	 dl, -21			; ffffffebH
  00045	88 55 ee	 mov	 BYTE PTR __t$[ebp+2], dl
  00048	8a 50 03	 mov	 dl, BYTE PTR [eax+3]
  0004b	84 d2		 test	 dl, dl
  0004d	0f 84 a9 00 00
	00		 je	 $LN93@operator@4
  00053	80 f2 ea	 xor	 dl, -22			; ffffffeaH
  00056	88 55 ef	 mov	 BYTE PTR __t$[ebp+3], dl
  00059	8a 50 04	 mov	 dl, BYTE PTR [eax+4]
  0005c	84 d2		 test	 dl, dl
  0005e	0f 84 92 00 00
	00		 je	 $LN92@operator@4
  00064	80 f2 ed	 xor	 dl, -19			; ffffffedH
  00067	88 55 f0	 mov	 BYTE PTR __t$[ebp+4], dl
  0006a	8a 50 05	 mov	 dl, BYTE PTR [eax+5]
  0006d	84 d2		 test	 dl, dl
  0006f	74 7f		 je	 SHORT $LN91@operator@4
  00071	80 f2 ec	 xor	 dl, -20			; ffffffecH
  00074	88 55 f1	 mov	 BYTE PTR __t$[ebp+5], dl
  00077	8a 50 06	 mov	 dl, BYTE PTR [eax+6]
  0007a	84 d2		 test	 dl, dl
  0007c	74 6c		 je	 SHORT $LN90@operator@4
  0007e	80 f2 eb	 xor	 dl, -21			; ffffffebH
  00081	88 55 f2	 mov	 BYTE PTR __t$[ebp+6], dl
  00084	8a 50 07	 mov	 dl, BYTE PTR [eax+7]
  00087	84 d2		 test	 dl, dl
  00089	74 59		 je	 SHORT $LN89@operator@4
  0008b	80 f2 ea	 xor	 dl, -22			; ffffffeaH
  0008e	80 78 08 00	 cmp	 BYTE PTR [eax+8], 0
  00092	88 55 f3	 mov	 BYTE PTR __t$[ebp+7], dl
  00095	74 7b		 je	 SHORT $LN1@operator@4
  00097	8a 50 09	 mov	 dl, BYTE PTR [eax+9]
  0009a	84 d2		 test	 dl, dl
  0009c	74 40		 je	 SHORT $LN87@operator@4
  0009e	80 f2 ec	 xor	 dl, -20			; ffffffecH
  000a1	88 55 f5	 mov	 BYTE PTR __t$[ebp+9], dl
  000a4	8a 50 0a	 mov	 dl, BYTE PTR [eax+10]
  000a7	84 d2		 test	 dl, dl
  000a9	74 2d		 je	 SHORT $LN86@operator@4
  000ab	80 f2 eb	 xor	 dl, -21			; ffffffebH
  000ae	88 55 f6	 mov	 BYTE PTR __t$[ebp+10], dl
  000b1	8a 50 0b	 mov	 dl, BYTE PTR [eax+11]
  000b4	84 d2		 test	 dl, dl
  000b6	74 1a		 je	 SHORT $LN85@operator@4
  000b8	8a 40 0c	 mov	 al, BYTE PTR [eax+12]
  000bb	80 f2 ea	 xor	 dl, -22			; ffffffeaH
  000be	88 55 f7	 mov	 BYTE PTR __t$[ebp+11], dl
  000c1	84 c0		 test	 al, al
  000c3	74 07		 je	 SHORT $LN84@operator@4
  000c5	34 ed		 xor	 al, -19			; ffffffedH
  000c7	88 45 f8	 mov	 BYTE PTR __t$[ebp+12], al
  000ca	eb 46		 jmp	 SHORT $LN1@operator@4
$LN84@operator@4:
  000cc	c6 45 f8 ed	 mov	 BYTE PTR __t$[ebp+12], -19 ; ffffffedH
  000d0	eb 40		 jmp	 SHORT $LN1@operator@4
$LN85@operator@4:
  000d2	c6 45 f7 ea	 mov	 BYTE PTR __t$[ebp+11], -22 ; ffffffeaH
  000d6	eb 3a		 jmp	 SHORT $LN1@operator@4
$LN86@operator@4:
  000d8	c6 45 f6 eb	 mov	 BYTE PTR __t$[ebp+10], -21 ; ffffffebH
  000dc	eb 34		 jmp	 SHORT $LN1@operator@4
$LN87@operator@4:
  000de	c6 45 f5 ec	 mov	 BYTE PTR __t$[ebp+9], -20 ; ffffffecH
  000e2	eb 2e		 jmp	 SHORT $LN1@operator@4
$LN89@operator@4:
  000e4	c6 45 f3 ea	 mov	 BYTE PTR __t$[ebp+7], -22 ; ffffffeaH
  000e8	eb 28		 jmp	 SHORT $LN1@operator@4
$LN90@operator@4:
  000ea	c6 45 f2 eb	 mov	 BYTE PTR __t$[ebp+6], -21 ; ffffffebH
  000ee	eb 22		 jmp	 SHORT $LN1@operator@4
$LN91@operator@4:
  000f0	c6 45 f1 ec	 mov	 BYTE PTR __t$[ebp+5], -20 ; ffffffecH
  000f4	eb 1c		 jmp	 SHORT $LN1@operator@4
$LN92@operator@4:
  000f6	c6 45 f0 ed	 mov	 BYTE PTR __t$[ebp+4], -19 ; ffffffedH
  000fa	eb 16		 jmp	 SHORT $LN1@operator@4
$LN93@operator@4:
  000fc	c6 45 ef ea	 mov	 BYTE PTR __t$[ebp+3], -22 ; ffffffeaH
  00100	eb 10		 jmp	 SHORT $LN1@operator@4
$LN94@operator@4:
  00102	c6 45 ee eb	 mov	 BYTE PTR __t$[ebp+2], -21 ; ffffffebH
  00106	eb 0a		 jmp	 SHORT $LN1@operator@4
$LN95@operator@4:
  00108	c6 45 ed ec	 mov	 BYTE PTR __t$[ebp+1], -20 ; ffffffecH
  0010c	eb 04		 jmp	 SHORT $LN1@operator@4
$LN96@operator@4:
  0010e	c6 45 ec ed	 mov	 BYTE PTR __t$[ebp], -19	; ffffffedH
$LN1@operator@4:
  00112	6a 02		 push	 2
  00114	8d 45 ec	 lea	 eax, DWORD PTR __t$[ebp]
  00117	c6 45 f4 00	 mov	 BYTE PTR __t$[ebp+8], 0
  0011b	5a		 pop	 edx
$LL104@operator@4:
  0011c	81 30 ed ec eb
	ea		 xor	 DWORD PTR [eax], -353637139 ; eaebecedH
  00122	83 c0 04	 add	 eax, 4
  00125	4a		 dec	 edx
  00126	75 f4		 jne	 SHORT $LL104@operator@4
  00128	56		 push	 esi
  00129	8d 75 ec	 lea	 esi, DWORD PTR __t$[ebp]
  0012c	ff 15 00 00 00
	00		 call	 DWORD PTR __imp_?c_str@ioHashString@@QBEPBDXZ
$LL111@operator@4:
  00132	8a 08		 mov	 cl, BYTE PTR [eax]
  00134	3a 0e		 cmp	 cl, BYTE PTR [esi]
  00136	75 1a		 jne	 SHORT $LN112@operator@4
  00138	84 c9		 test	 cl, cl
  0013a	74 12		 je	 SHORT $LN113@operator@4
  0013c	8a 48 01	 mov	 cl, BYTE PTR [eax+1]
  0013f	3a 4e 01	 cmp	 cl, BYTE PTR [esi+1]
  00142	75 0e		 jne	 SHORT $LN112@operator@4
  00144	83 c0 02	 add	 eax, 2
  00147	83 c6 02	 add	 esi, 2
  0014a	84 c9		 test	 cl, cl
  0014c	75 e4		 jne	 SHORT $LL111@operator@4
$LN113@operator@4:
  0014e	33 c0		 xor	 eax, eax
  00150	eb 05		 jmp	 SHORT $LN114@operator@4
$LN112@operator@4:
  00152	1b c0		 sbb	 eax, eax
  00154	83 d8 ff	 sbb	 eax, -1
$LN114@operator@4:
  00157	33 c9		 xor	 ecx, ecx
  00159	85 c0		 test	 eax, eax
  0015b	0f 94 c0	 sete	 al

; 148  : }

  0015e	8b 4d fc	 mov	 ecx, DWORD PTR __$ArrayPad$[ebp]
  00161	33 cd		 xor	 ecx, ebp
  00163	5e		 pop	 esi
  00164	e8 00 00 00 00	 call	 @__security_check_cookie@4
  00169	c9		 leave
  0016a	c3		 ret	 0
??$?8$08@@YA_NABVioHashString@@AAY08$$CBD@Z ENDP	; operator==<9>
_TEXT	ENDS
PUBLIC	__$ArrayPad$
PUBLIC	??$?8$0N@@@YA_NABVioHashString@@AAY0N@$$CBD@Z	; operator==<13>
; Function compile flags: /Ogsp
;	COMDAT ??$?8$0N@@@YA_NABVioHashString@@AAY0N@$$CBD@Z
_TEXT	SEGMENT
__t$ = -24						; size = 13
__$ArrayPad$ = -4					; size = 4
_lhs$ = 8						; size = 4
_t$ = 12						; size = 4
??$?8$0N@@@YA_NABVioHashString@@AAY0N@$$CBD@Z PROC	; operator==<13>, COMDAT

; 146  : {

  00000	55		 push	 ebp
  00001	8b ec		 mov	 ebp, esp
  00003	83 ec 18	 sub	 esp, 24			; 00000018H
  00006	a1 00 00 00 00	 mov	 eax, DWORD PTR ___security_cookie
  0000b	33 c5		 xor	 eax, ebp
  0000d	89 45 fc	 mov	 DWORD PTR __$ArrayPad$[ebp], eax
  00010	8b 45 0c	 mov	 eax, DWORD PTR _t$[ebp]

; 147  : 	_ENCSTR(t, _t); return ( strcmp( lhs.c_str(), _t ) == 0 );

  00013	8a 10		 mov	 dl, BYTE PTR [eax]
  00015	56		 push	 esi
  00016	57		 push	 edi
  00017	8b 7d 08	 mov	 edi, DWORD PTR _lhs$[ebp]
  0001a	84 d2		 test	 dl, dl
  0001c	0f 84 4d 01 00
	00		 je	 $LN96@operator@5
  00022	80 f2 ed	 xor	 dl, -19			; ffffffedH
  00025	88 55 e8	 mov	 BYTE PTR __t$[ebp], dl
  00028	8a 50 01	 mov	 dl, BYTE PTR [eax+1]
  0002b	84 d2		 test	 dl, dl
  0002d	0f 84 36 01 00
	00		 je	 $LN95@operator@5
  00033	b1 ec		 mov	 cl, -20			; ffffffecH
  00035	32 d1		 xor	 dl, cl
  00037	88 55 e9	 mov	 BYTE PTR __t$[ebp+1], dl
  0003a	8a 50 02	 mov	 dl, BYTE PTR [eax+2]
  0003d	84 d2		 test	 dl, dl
  0003f	0f 84 1e 01 00
	00		 je	 $LN94@operator@5
  00045	80 f2 eb	 xor	 dl, -21			; ffffffebH
  00048	88 55 ea	 mov	 BYTE PTR __t$[ebp+2], dl
  0004b	8a 50 03	 mov	 dl, BYTE PTR [eax+3]
  0004e	84 d2		 test	 dl, dl
  00050	0f 84 07 01 00
	00		 je	 $LN93@operator@5
  00056	80 f2 ea	 xor	 dl, -22			; ffffffeaH
  00059	88 55 eb	 mov	 BYTE PTR __t$[ebp+3], dl
  0005c	8a 50 04	 mov	 dl, BYTE PTR [eax+4]
  0005f	84 d2		 test	 dl, dl
  00061	0f 84 f0 00 00
	00		 je	 $LN92@operator@5
  00067	80 f2 ed	 xor	 dl, -19			; ffffffedH
  0006a	88 55 ec	 mov	 BYTE PTR __t$[ebp+4], dl
  0006d	8a 50 05	 mov	 dl, BYTE PTR [eax+5]
  00070	84 d2		 test	 dl, dl
  00072	0f 84 da 00 00
	00		 je	 $LN91@operator@5
  00078	32 d1		 xor	 dl, cl
  0007a	88 55 ed	 mov	 BYTE PTR __t$[ebp+5], dl
  0007d	8a 50 06	 mov	 dl, BYTE PTR [eax+6]
  00080	84 d2		 test	 dl, dl
  00082	0f 84 c4 00 00
	00		 je	 $LN90@operator@5
  00088	80 f2 eb	 xor	 dl, -21			; ffffffebH
  0008b	88 55 ee	 mov	 BYTE PTR __t$[ebp+6], dl
  0008e	8a 50 07	 mov	 dl, BYTE PTR [eax+7]
  00091	84 d2		 test	 dl, dl
  00093	0f 84 ad 00 00
	00		 je	 $LN89@operator@5
  00099	80 f2 ea	 xor	 dl, -22			; ffffffeaH
  0009c	88 55 ef	 mov	 BYTE PTR __t$[ebp+7], dl
  0009f	8a 50 08	 mov	 dl, BYTE PTR [eax+8]
  000a2	84 d2		 test	 dl, dl
  000a4	0f 84 96 00 00
	00		 je	 $LN88@operator@5
  000aa	80 f2 ed	 xor	 dl, -19			; ffffffedH
  000ad	88 55 f0	 mov	 BYTE PTR __t$[ebp+8], dl
  000b0	8a 50 09	 mov	 dl, BYTE PTR [eax+9]
  000b3	84 d2		 test	 dl, dl
  000b5	0f 84 80 00 00
	00		 je	 $LN87@operator@5
  000bb	32 d1		 xor	 dl, cl
  000bd	88 55 f1	 mov	 BYTE PTR __t$[ebp+9], dl
  000c0	8a 50 0a	 mov	 dl, BYTE PTR [eax+10]
  000c3	84 d2		 test	 dl, dl
  000c5	74 6e		 je	 SHORT $LN86@operator@5
  000c7	80 f2 eb	 xor	 dl, -21			; ffffffebH
  000ca	88 55 f2	 mov	 BYTE PTR __t$[ebp+10], dl
  000cd	8a 50 0b	 mov	 dl, BYTE PTR [eax+11]
  000d0	84 d2		 test	 dl, dl
  000d2	74 5b		 je	 SHORT $LN85@operator@5
  000d4	80 f2 ea	 xor	 dl, -22			; ffffffeaH
  000d7	80 78 0c 00	 cmp	 BYTE PTR [eax+12], 0
  000db	88 55 f3	 mov	 BYTE PTR __t$[ebp+11], dl
  000de	0f 84 8f 00 00
	00		 je	 $LN1@operator@5
  000e4	8a 50 0d	 mov	 dl, BYTE PTR [eax+13]
  000e7	84 d2		 test	 dl, dl
  000e9	74 3f		 je	 SHORT $LN83@operator@5
  000eb	32 d1		 xor	 dl, cl
  000ed	88 55 f5	 mov	 BYTE PTR __t$[ebp+13], dl
  000f0	8a 50 0e	 mov	 dl, BYTE PTR [eax+14]
  000f3	84 d2		 test	 dl, dl
  000f5	74 2d		 je	 SHORT $LN82@operator@5
  000f7	80 f2 eb	 xor	 dl, -21			; ffffffebH
  000fa	88 55 f6	 mov	 BYTE PTR __t$[ebp+14], dl
  000fd	8a 50 0f	 mov	 dl, BYTE PTR [eax+15]
  00100	84 d2		 test	 dl, dl
  00102	74 1a		 je	 SHORT $LN81@operator@5
  00104	8a 40 10	 mov	 al, BYTE PTR [eax+16]
  00107	80 f2 ea	 xor	 dl, -22			; ffffffeaH
  0010a	88 55 f7	 mov	 BYTE PTR __t$[ebp+15], dl
  0010d	84 c0		 test	 al, al
  0010f	74 07		 je	 SHORT $LN80@operator@5
  00111	34 ed		 xor	 al, -19			; ffffffedH
  00113	88 45 f8	 mov	 BYTE PTR __t$[ebp+16], al
  00116	eb 5b		 jmp	 SHORT $LN1@operator@5
$LN80@operator@5:
  00118	c6 45 f8 ed	 mov	 BYTE PTR __t$[ebp+16], -19 ; ffffffedH
  0011c	eb 55		 jmp	 SHORT $LN1@operator@5
$LN81@operator@5:
  0011e	c6 45 f7 ea	 mov	 BYTE PTR __t$[ebp+15], -22 ; ffffffeaH
  00122	eb 4f		 jmp	 SHORT $LN1@operator@5
$LN82@operator@5:
  00124	c6 45 f6 eb	 mov	 BYTE PTR __t$[ebp+14], -21 ; ffffffebH
  00128	eb 49		 jmp	 SHORT $LN1@operator@5
$LN83@operator@5:
  0012a	88 4d f5	 mov	 BYTE PTR __t$[ebp+13], cl
  0012d	eb 44		 jmp	 SHORT $LN1@operator@5
$LN85@operator@5:
  0012f	c6 45 f3 ea	 mov	 BYTE PTR __t$[ebp+11], -22 ; ffffffeaH
  00133	eb 3e		 jmp	 SHORT $LN1@operator@5
$LN86@operator@5:
  00135	c6 45 f2 eb	 mov	 BYTE PTR __t$[ebp+10], -21 ; ffffffebH
  00139	eb 38		 jmp	 SHORT $LN1@operator@5
$LN87@operator@5:
  0013b	88 4d f1	 mov	 BYTE PTR __t$[ebp+9], cl
  0013e	eb 33		 jmp	 SHORT $LN1@operator@5
$LN88@operator@5:
  00140	c6 45 f0 ed	 mov	 BYTE PTR __t$[ebp+8], -19 ; ffffffedH
  00144	eb 2d		 jmp	 SHORT $LN1@operator@5
$LN89@operator@5:
  00146	c6 45 ef ea	 mov	 BYTE PTR __t$[ebp+7], -22 ; ffffffeaH
  0014a	eb 27		 jmp	 SHORT $LN1@operator@5
$LN90@operator@5:
  0014c	c6 45 ee eb	 mov	 BYTE PTR __t$[ebp+6], -21 ; ffffffebH
  00150	eb 21		 jmp	 SHORT $LN1@operator@5
$LN91@operator@5:
  00152	88 4d ed	 mov	 BYTE PTR __t$[ebp+5], cl
  00155	eb 1c		 jmp	 SHORT $LN1@operator@5
$LN92@operator@5:
  00157	c6 45 ec ed	 mov	 BYTE PTR __t$[ebp+4], -19 ; ffffffedH
  0015b	eb 16		 jmp	 SHORT $LN1@operator@5
$LN93@operator@5:
  0015d	c6 45 eb ea	 mov	 BYTE PTR __t$[ebp+3], -22 ; ffffffeaH
  00161	eb 10		 jmp	 SHORT $LN1@operator@5
$LN94@operator@5:
  00163	c6 45 ea eb	 mov	 BYTE PTR __t$[ebp+2], -21 ; ffffffebH
  00167	eb 0a		 jmp	 SHORT $LN1@operator@5
$LN95@operator@5:
  00169	c6 45 e9 ec	 mov	 BYTE PTR __t$[ebp+1], -20 ; ffffffecH
  0016d	eb 04		 jmp	 SHORT $LN1@operator@5
$LN96@operator@5:
  0016f	c6 45 e8 ed	 mov	 BYTE PTR __t$[ebp], -19	; ffffffedH
$LN1@operator@5:
  00173	6a 03		 push	 3
  00175	8d 45 e8	 lea	 eax, DWORD PTR __t$[ebp]
  00178	c6 45 f4 00	 mov	 BYTE PTR __t$[ebp+12], 0
  0017c	5a		 pop	 edx
$LL104@operator@5:
  0017d	81 30 ed ec eb
	ea		 xor	 DWORD PTR [eax], -353637139 ; eaebecedH
  00183	83 c0 04	 add	 eax, 4
  00186	4a		 dec	 edx
  00187	75 f4		 jne	 SHORT $LL104@operator@5
  00189	8b cf		 mov	 ecx, edi
  0018b	8d 75 e8	 lea	 esi, DWORD PTR __t$[ebp]
  0018e	ff 15 00 00 00
	00		 call	 DWORD PTR __imp_?c_str@ioHashString@@QBEPBDXZ
$LL111@operator@5:
  00194	8a 08		 mov	 cl, BYTE PTR [eax]
  00196	3a 0e		 cmp	 cl, BYTE PTR [esi]
  00198	75 1a		 jne	 SHORT $LN112@operator@5
  0019a	84 c9		 test	 cl, cl
  0019c	74 12		 je	 SHORT $LN113@operator@5
  0019e	8a 48 01	 mov	 cl, BYTE PTR [eax+1]
  001a1	3a 4e 01	 cmp	 cl, BYTE PTR [esi+1]
  001a4	75 0e		 jne	 SHORT $LN112@operator@5
  001a6	83 c0 02	 add	 eax, 2
  001a9	83 c6 02	 add	 esi, 2
  001ac	84 c9		 test	 cl, cl
  001ae	75 e4		 jne	 SHORT $LL111@operator@5
$LN113@operator@5:
  001b0	33 c0		 xor	 eax, eax
  001b2	eb 05		 jmp	 SHORT $LN114@operator@5
$LN112@operator@5:
  001b4	1b c0		 sbb	 eax, eax
  001b6	83 d8 ff	 sbb	 eax, -1
$LN114@operator@5:
  001b9	33 c9		 xor	 ecx, ecx
  001bb	85 c0		 test	 eax, eax
  001bd	0f 94 c0	 sete	 al

; 148  : }

  001c0	8b 4d fc	 mov	 ecx, DWORD PTR __$ArrayPad$[ebp]
  001c3	5f		 pop	 edi
  001c4	33 cd		 xor	 ecx, ebp
  001c6	5e		 pop	 esi
  001c7	e8 00 00 00 00	 call	 @__security_check_cookie@4
  001cc	c9		 leave
  001cd	c3		 ret	 0
??$?8$0N@@@YA_NABVioHashString@@AAY0N@$$CBD@Z ENDP	; operator==<13>
_TEXT	ENDS
PUBLIC	__$ArrayPad$
PUBLIC	??$?8$0O@@@YA_NABVioHashString@@AAY0O@$$CBD@Z	; operator==<14>
; Function compile flags: /Ogsp
;	COMDAT ??$?8$0O@@@YA_NABVioHashString@@AAY0O@$$CBD@Z
_TEXT	SEGMENT
__t$ = -24						; size = 14
__$ArrayPad$ = -4					; size = 4
_lhs$ = 8						; size = 4
_t$ = 12						; size = 4
??$?8$0O@@@YA_NABVioHashString@@AAY0O@$$CBD@Z PROC	; operator==<14>, COMDAT

; 146  : {

  00000	55		 push	 ebp
  00001	8b ec		 mov	 ebp, esp
  00003	83 ec 18	 sub	 esp, 24			; 00000018H
  00006	a1 00 00 00 00	 mov	 eax, DWORD PTR ___security_cookie
  0000b	33 c5		 xor	 eax, ebp
  0000d	89 45 fc	 mov	 DWORD PTR __$ArrayPad$[ebp], eax
  00010	8b 45 0c	 mov	 eax, DWORD PTR _t$[ebp]

; 147  : 	_ENCSTR(t, _t); return ( strcmp( lhs.c_str(), _t ) == 0 );

  00013	8a 10		 mov	 dl, BYTE PTR [eax]
  00015	56		 push	 esi
  00016	57		 push	 edi
  00017	8b 7d 08	 mov	 edi, DWORD PTR _lhs$[ebp]
  0001a	84 d2		 test	 dl, dl
  0001c	0f 84 64 01 00
	00		 je	 $LN96@operator@6
  00022	80 f2 ed	 xor	 dl, -19			; ffffffedH
  00025	88 55 e8	 mov	 BYTE PTR __t$[ebp], dl
  00028	8a 50 01	 mov	 dl, BYTE PTR [eax+1]
  0002b	84 d2		 test	 dl, dl
  0002d	0f 84 4d 01 00
	00		 je	 $LN95@operator@6
  00033	80 f2 ec	 xor	 dl, -20			; ffffffecH
  00036	88 55 e9	 mov	 BYTE PTR __t$[ebp+1], dl
  00039	8a 50 02	 mov	 dl, BYTE PTR [eax+2]
  0003c	84 d2		 test	 dl, dl
  0003e	0f 84 36 01 00
	00		 je	 $LN94@operator@6
  00044	b1 eb		 mov	 cl, -21			; ffffffebH
  00046	32 d1		 xor	 dl, cl
  00048	88 55 ea	 mov	 BYTE PTR __t$[ebp+2], dl
  0004b	8a 50 03	 mov	 dl, BYTE PTR [eax+3]
  0004e	84 d2		 test	 dl, dl
  00050	0f 84 1e 01 00
	00		 je	 $LN93@operator@6
  00056	80 f2 ea	 xor	 dl, -22			; ffffffeaH
  00059	88 55 eb	 mov	 BYTE PTR __t$[ebp+3], dl
  0005c	8a 50 04	 mov	 dl, BYTE PTR [eax+4]
  0005f	84 d2		 test	 dl, dl
  00061	0f 84 07 01 00
	00		 je	 $LN92@operator@6
  00067	80 f2 ed	 xor	 dl, -19			; ffffffedH
  0006a	88 55 ec	 mov	 BYTE PTR __t$[ebp+4], dl
  0006d	8a 50 05	 mov	 dl, BYTE PTR [eax+5]
  00070	84 d2		 test	 dl, dl
  00072	0f 84 f0 00 00
	00		 je	 $LN91@operator@6
  00078	80 f2 ec	 xor	 dl, -20			; ffffffecH
  0007b	88 55 ed	 mov	 BYTE PTR __t$[ebp+5], dl
  0007e	8a 50 06	 mov	 dl, BYTE PTR [eax+6]
  00081	84 d2		 test	 dl, dl
  00083	0f 84 da 00 00
	00		 je	 $LN90@operator@6
  00089	32 d1		 xor	 dl, cl
  0008b	88 55 ee	 mov	 BYTE PTR __t$[ebp+6], dl
  0008e	8a 50 07	 mov	 dl, BYTE PTR [eax+7]
  00091	84 d2		 test	 dl, dl
  00093	0f 84 c4 00 00
	00		 je	 $LN89@operator@6
  00099	80 f2 ea	 xor	 dl, -22			; ffffffeaH
  0009c	88 55 ef	 mov	 BYTE PTR __t$[ebp+7], dl
  0009f	8a 50 08	 mov	 dl, BYTE PTR [eax+8]
  000a2	84 d2		 test	 dl, dl
  000a4	0f 84 ad 00 00
	00		 je	 $LN88@operator@6
  000aa	80 f2 ed	 xor	 dl, -19			; ffffffedH
  000ad	88 55 f0	 mov	 BYTE PTR __t$[ebp+8], dl
  000b0	8a 50 09	 mov	 dl, BYTE PTR [eax+9]
  000b3	84 d2		 test	 dl, dl
  000b5	0f 84 96 00 00
	00		 je	 $LN87@operator@6
  000bb	80 f2 ec	 xor	 dl, -20			; ffffffecH
  000be	88 55 f1	 mov	 BYTE PTR __t$[ebp+9], dl
  000c1	8a 50 0a	 mov	 dl, BYTE PTR [eax+10]
  000c4	84 d2		 test	 dl, dl
  000c6	0f 84 80 00 00
	00		 je	 $LN86@operator@6
  000cc	32 d1		 xor	 dl, cl
  000ce	88 55 f2	 mov	 BYTE PTR __t$[ebp+10], dl
  000d1	8a 50 0b	 mov	 dl, BYTE PTR [eax+11]
  000d4	84 d2		 test	 dl, dl
  000d6	74 6e		 je	 SHORT $LN85@operator@6
  000d8	80 f2 ea	 xor	 dl, -22			; ffffffeaH
  000db	88 55 f3	 mov	 BYTE PTR __t$[ebp+11], dl
  000de	8a 50 0c	 mov	 dl, BYTE PTR [eax+12]
  000e1	84 d2		 test	 dl, dl
  000e3	74 5b		 je	 SHORT $LN84@operator@6
  000e5	80 f2 ed	 xor	 dl, -19			; ffffffedH
  000e8	80 78 0d 00	 cmp	 BYTE PTR [eax+13], 0
  000ec	88 55 f4	 mov	 BYTE PTR __t$[ebp+12], dl
  000ef	0f 84 95 00 00
	00		 je	 $LN1@operator@6
  000f5	8a 50 0e	 mov	 dl, BYTE PTR [eax+14]
  000f8	84 d2		 test	 dl, dl
  000fa	74 3f		 je	 SHORT $LN82@operator@6
  000fc	32 d1		 xor	 dl, cl
  000fe	88 55 f6	 mov	 BYTE PTR __t$[ebp+14], dl
  00101	8a 50 0f	 mov	 dl, BYTE PTR [eax+15]
  00104	84 d2		 test	 dl, dl
  00106	74 2d		 je	 SHORT $LN81@operator@6
  00108	80 f2 ea	 xor	 dl, -22			; ffffffeaH
  0010b	88 55 f7	 mov	 BYTE PTR __t$[ebp+15], dl
  0010e	8a 50 10	 mov	 dl, BYTE PTR [eax+16]
  00111	84 d2		 test	 dl, dl
  00113	74 1a		 je	 SHORT $LN80@operator@6
  00115	8a 40 11	 mov	 al, BYTE PTR [eax+17]
  00118	80 f2 ed	 xor	 dl, -19			; ffffffedH
  0011b	88 55 f8	 mov	 BYTE PTR __t$[ebp+16], dl
  0011e	84 c0		 test	 al, al
  00120	74 07		 je	 SHORT $LN79@operator@6
  00122	34 ec		 xor	 al, -20			; ffffffecH
  00124	88 45 f9	 mov	 BYTE PTR __t$[ebp+17], al
  00127	eb 61		 jmp	 SHORT $LN1@operator@6
$LN79@operator@6:
  00129	c6 45 f9 ec	 mov	 BYTE PTR __t$[ebp+17], -20 ; ffffffecH
  0012d	eb 5b		 jmp	 SHORT $LN1@operator@6
$LN80@operator@6:
  0012f	c6 45 f8 ed	 mov	 BYTE PTR __t$[ebp+16], -19 ; ffffffedH
  00133	eb 55		 jmp	 SHORT $LN1@operator@6
$LN81@operator@6:
  00135	c6 45 f7 ea	 mov	 BYTE PTR __t$[ebp+15], -22 ; ffffffeaH
  00139	eb 4f		 jmp	 SHORT $LN1@operator@6
$LN82@operator@6:
  0013b	88 4d f6	 mov	 BYTE PTR __t$[ebp+14], cl
  0013e	eb 4a		 jmp	 SHORT $LN1@operator@6
$LN84@operator@6:
  00140	c6 45 f4 ed	 mov	 BYTE PTR __t$[ebp+12], -19 ; ffffffedH
  00144	eb 44		 jmp	 SHORT $LN1@operator@6
$LN85@operator@6:
  00146	c6 45 f3 ea	 mov	 BYTE PTR __t$[ebp+11], -22 ; ffffffeaH
  0014a	eb 3e		 jmp	 SHORT $LN1@operator@6
$LN86@operator@6:
  0014c	88 4d f2	 mov	 BYTE PTR __t$[ebp+10], cl
  0014f	eb 39		 jmp	 SHORT $LN1@operator@6
$LN87@operator@6:
  00151	c6 45 f1 ec	 mov	 BYTE PTR __t$[ebp+9], -20 ; ffffffecH
  00155	eb 33		 jmp	 SHORT $LN1@operator@6
$LN88@operator@6:
  00157	c6 45 f0 ed	 mov	 BYTE PTR __t$[ebp+8], -19 ; ffffffedH
  0015b	eb 2d		 jmp	 SHORT $LN1@operator@6
$LN89@operator@6:
  0015d	c6 45 ef ea	 mov	 BYTE PTR __t$[ebp+7], -22 ; ffffffeaH
  00161	eb 27		 jmp	 SHORT $LN1@operator@6
$LN90@operator@6:
  00163	88 4d ee	 mov	 BYTE PTR __t$[ebp+6], cl
  00166	eb 22		 jmp	 SHORT $LN1@operator@6
$LN91@operator@6:
  00168	c6 45 ed ec	 mov	 BYTE PTR __t$[ebp+5], -20 ; ffffffecH
  0016c	eb 1c		 jmp	 SHORT $LN1@operator@6
$LN92@operator@6:
  0016e	c6 45 ec ed	 mov	 BYTE PTR __t$[ebp+4], -19 ; ffffffedH
  00172	eb 16		 jmp	 SHORT $LN1@operator@6
$LN93@operator@6:
  00174	c6 45 eb ea	 mov	 BYTE PTR __t$[ebp+3], -22 ; ffffffeaH
  00178	eb 10		 jmp	 SHORT $LN1@operator@6
$LN94@operator@6:
  0017a	c6 45 ea eb	 mov	 BYTE PTR __t$[ebp+2], -21 ; ffffffebH
  0017e	eb 0a		 jmp	 SHORT $LN1@operator@6
$LN95@operator@6:
  00180	c6 45 e9 ec	 mov	 BYTE PTR __t$[ebp+1], -20 ; ffffffecH
  00184	eb 04		 jmp	 SHORT $LN1@operator@6
$LN96@operator@6:
  00186	c6 45 e8 ed	 mov	 BYTE PTR __t$[ebp], -19	; ffffffedH
$LN1@operator@6:
  0018a	6a 03		 push	 3
  0018c	8d 45 e8	 lea	 eax, DWORD PTR __t$[ebp]
  0018f	c6 45 f5 00	 mov	 BYTE PTR __t$[ebp+13], 0
  00193	5a		 pop	 edx
$LL104@operator@6:
  00194	81 30 ed ec eb
	ea		 xor	 DWORD PTR [eax], -353637139 ; eaebecedH
  0019a	83 c0 04	 add	 eax, 4
  0019d	4a		 dec	 edx
  0019e	75 f4		 jne	 SHORT $LL104@operator@6
  001a0	80 75 f4 ed	 xor	 BYTE PTR __t$[ebp+12], -19 ; ffffffedH
  001a4	8b cf		 mov	 ecx, edi
  001a6	8d 75 e8	 lea	 esi, DWORD PTR __t$[ebp]
  001a9	ff 15 00 00 00
	00		 call	 DWORD PTR __imp_?c_str@ioHashString@@QBEPBDXZ
$LL111@operator@6:
  001af	8a 08		 mov	 cl, BYTE PTR [eax]
  001b1	3a 0e		 cmp	 cl, BYTE PTR [esi]
  001b3	75 1a		 jne	 SHORT $LN112@operator@6
  001b5	84 c9		 test	 cl, cl
  001b7	74 12		 je	 SHORT $LN113@operator@6
  001b9	8a 48 01	 mov	 cl, BYTE PTR [eax+1]
  001bc	3a 4e 01	 cmp	 cl, BYTE PTR [esi+1]
  001bf	75 0e		 jne	 SHORT $LN112@operator@6
  001c1	83 c0 02	 add	 eax, 2
  001c4	83 c6 02	 add	 esi, 2
  001c7	84 c9		 test	 cl, cl
  001c9	75 e4		 jne	 SHORT $LL111@operator@6
$LN113@operator@6:
  001cb	33 c0		 xor	 eax, eax
  001cd	eb 05		 jmp	 SHORT $LN114@operator@6
$LN112@operator@6:
  001cf	1b c0		 sbb	 eax, eax
  001d1	83 d8 ff	 sbb	 eax, -1
$LN114@operator@6:
  001d4	33 c9		 xor	 ecx, ecx
  001d6	85 c0		 test	 eax, eax
  001d8	0f 94 c0	 sete	 al

; 148  : }

  001db	8b 4d fc	 mov	 ecx, DWORD PTR __$ArrayPad$[ebp]
  001de	5f		 pop	 edi
  001df	33 cd		 xor	 ecx, ebp
  001e1	5e		 pop	 esi
  001e2	e8 00 00 00 00	 call	 @__security_check_cookie@4
  001e7	c9		 leave
  001e8	c3		 ret	 0
??$?8$0O@@@YA_NABVioHashString@@AAY0O@$$CBD@Z ENDP	; operator==<14>
_TEXT	ENDS
PUBLIC	__$ArrayPad$
PUBLIC	??$?8$0M@@@YA_NABVioHashString@@AAY0M@$$CBD@Z	; operator==<12>
; Function compile flags: /Ogsp
;	COMDAT ??$?8$0M@@@YA_NABVioHashString@@AAY0M@$$CBD@Z
_TEXT	SEGMENT
__t$ = -20						; size = 12
__$ArrayPad$ = -4					; size = 4
_lhs$ = 8						; size = 4
_t$ = 12						; size = 4
??$?8$0M@@@YA_NABVioHashString@@AAY0M@$$CBD@Z PROC	; operator==<12>, COMDAT

; 146  : {

  00000	55		 push	 ebp
  00001	8b ec		 mov	 ebp, esp
  00003	83 ec 14	 sub	 esp, 20			; 00000014H
  00006	a1 00 00 00 00	 mov	 eax, DWORD PTR ___security_cookie
  0000b	33 c5		 xor	 eax, ebp
  0000d	89 45 fc	 mov	 DWORD PTR __$ArrayPad$[ebp], eax
  00010	8b 45 0c	 mov	 eax, DWORD PTR _t$[ebp]

; 147  : 	_ENCSTR(t, _t); return ( strcmp( lhs.c_str(), _t ) == 0 );

  00013	8a 10		 mov	 dl, BYTE PTR [eax]
  00015	56		 push	 esi
  00016	57		 push	 edi
  00017	8b 7d 08	 mov	 edi, DWORD PTR _lhs$[ebp]
  0001a	84 d2		 test	 dl, dl
  0001c	0f 84 32 01 00
	00		 je	 $LN96@operator@7
  00022	80 f2 ed	 xor	 dl, -19			; ffffffedH
  00025	88 55 ec	 mov	 BYTE PTR __t$[ebp], dl
  00028	8a 50 01	 mov	 dl, BYTE PTR [eax+1]
  0002b	84 d2		 test	 dl, dl
  0002d	0f 84 1b 01 00
	00		 je	 $LN95@operator@7
  00033	80 f2 ec	 xor	 dl, -20			; ffffffecH
  00036	88 55 ed	 mov	 BYTE PTR __t$[ebp+1], dl
  00039	8a 50 02	 mov	 dl, BYTE PTR [eax+2]
  0003c	84 d2		 test	 dl, dl
  0003e	0f 84 04 01 00
	00		 je	 $LN94@operator@7
  00044	b1 eb		 mov	 cl, -21			; ffffffebH
  00046	32 d1		 xor	 dl, cl
  00048	88 55 ee	 mov	 BYTE PTR __t$[ebp+2], dl
  0004b	8a 50 03	 mov	 dl, BYTE PTR [eax+3]
  0004e	84 d2		 test	 dl, dl
  00050	0f 84 ec 00 00
	00		 je	 $LN93@operator@7
  00056	80 f2 ea	 xor	 dl, -22			; ffffffeaH
  00059	88 55 ef	 mov	 BYTE PTR __t$[ebp+3], dl
  0005c	8a 50 04	 mov	 dl, BYTE PTR [eax+4]
  0005f	84 d2		 test	 dl, dl
  00061	0f 84 d5 00 00
	00		 je	 $LN92@operator@7
  00067	80 f2 ed	 xor	 dl, -19			; ffffffedH
  0006a	88 55 f0	 mov	 BYTE PTR __t$[ebp+4], dl
  0006d	8a 50 05	 mov	 dl, BYTE PTR [eax+5]
  00070	84 d2		 test	 dl, dl
  00072	0f 84 be 00 00
	00		 je	 $LN91@operator@7
  00078	80 f2 ec	 xor	 dl, -20			; ffffffecH
  0007b	88 55 f1	 mov	 BYTE PTR __t$[ebp+5], dl
  0007e	8a 50 06	 mov	 dl, BYTE PTR [eax+6]
  00081	84 d2		 test	 dl, dl
  00083	0f 84 a8 00 00
	00		 je	 $LN90@operator@7
  00089	32 d1		 xor	 dl, cl
  0008b	88 55 f2	 mov	 BYTE PTR __t$[ebp+6], dl
  0008e	8a 50 07	 mov	 dl, BYTE PTR [eax+7]
  00091	84 d2		 test	 dl, dl
  00093	0f 84 92 00 00
	00		 je	 $LN89@operator@7
  00099	80 f2 ea	 xor	 dl, -22			; ffffffeaH
  0009c	88 55 f3	 mov	 BYTE PTR __t$[ebp+7], dl
  0009f	8a 50 08	 mov	 dl, BYTE PTR [eax+8]
  000a2	84 d2		 test	 dl, dl
  000a4	74 7f		 je	 SHORT $LN88@operator@7
  000a6	80 f2 ed	 xor	 dl, -19			; ffffffedH
  000a9	88 55 f4	 mov	 BYTE PTR __t$[ebp+8], dl
  000ac	8a 50 09	 mov	 dl, BYTE PTR [eax+9]
  000af	84 d2		 test	 dl, dl
  000b1	74 6c		 je	 SHORT $LN87@operator@7
  000b3	80 f2 ec	 xor	 dl, -20			; ffffffecH
  000b6	88 55 f5	 mov	 BYTE PTR __t$[ebp+9], dl
  000b9	8a 50 0a	 mov	 dl, BYTE PTR [eax+10]
  000bc	84 d2		 test	 dl, dl
  000be	74 5a		 je	 SHORT $LN86@operator@7
  000c0	32 d1		 xor	 dl, cl
  000c2	80 78 0b 00	 cmp	 BYTE PTR [eax+11], 0
  000c6	88 55 f6	 mov	 BYTE PTR __t$[ebp+10], dl
  000c9	0f 84 89 00 00
	00		 je	 $LN1@operator@7
  000cf	8a 50 0c	 mov	 dl, BYTE PTR [eax+12]
  000d2	84 d2		 test	 dl, dl
  000d4	74 3e		 je	 SHORT $LN84@operator@7
  000d6	80 f2 ed	 xor	 dl, -19			; ffffffedH
  000d9	88 55 f8	 mov	 BYTE PTR __t$[ebp+12], dl
  000dc	8a 50 0d	 mov	 dl, BYTE PTR [eax+13]
  000df	84 d2		 test	 dl, dl
  000e1	74 2b		 je	 SHORT $LN83@operator@7
  000e3	80 f2 ec	 xor	 dl, -20			; ffffffecH
  000e6	88 55 f9	 mov	 BYTE PTR __t$[ebp+13], dl
  000e9	8a 50 0e	 mov	 dl, BYTE PTR [eax+14]
  000ec	84 d2		 test	 dl, dl
  000ee	74 19		 je	 SHORT $LN82@operator@7
  000f0	8a 40 0f	 mov	 al, BYTE PTR [eax+15]
  000f3	32 d1		 xor	 dl, cl
  000f5	88 55 fa	 mov	 BYTE PTR __t$[ebp+14], dl
  000f8	84 c0		 test	 al, al
  000fa	74 07		 je	 SHORT $LN81@operator@7
  000fc	34 ea		 xor	 al, -22			; ffffffeaH
  000fe	88 45 fb	 mov	 BYTE PTR __t$[ebp+15], al
  00101	eb 55		 jmp	 SHORT $LN1@operator@7
$LN81@operator@7:
  00103	c6 45 fb ea	 mov	 BYTE PTR __t$[ebp+15], -22 ; ffffffeaH
  00107	eb 4f		 jmp	 SHORT $LN1@operator@7
$LN82@operator@7:
  00109	88 4d fa	 mov	 BYTE PTR __t$[ebp+14], cl
  0010c	eb 4a		 jmp	 SHORT $LN1@operator@7
$LN83@operator@7:
  0010e	c6 45 f9 ec	 mov	 BYTE PTR __t$[ebp+13], -20 ; ffffffecH
  00112	eb 44		 jmp	 SHORT $LN1@operator@7
$LN84@operator@7:
  00114	c6 45 f8 ed	 mov	 BYTE PTR __t$[ebp+12], -19 ; ffffffedH
  00118	eb 3e		 jmp	 SHORT $LN1@operator@7
$LN86@operator@7:
  0011a	88 4d f6	 mov	 BYTE PTR __t$[ebp+10], cl
  0011d	eb 39		 jmp	 SHORT $LN1@operator@7
$LN87@operator@7:
  0011f	c6 45 f5 ec	 mov	 BYTE PTR __t$[ebp+9], -20 ; ffffffecH
  00123	eb 33		 jmp	 SHORT $LN1@operator@7
$LN88@operator@7:
  00125	c6 45 f4 ed	 mov	 BYTE PTR __t$[ebp+8], -19 ; ffffffedH
  00129	eb 2d		 jmp	 SHORT $LN1@operator@7
$LN89@operator@7:
  0012b	c6 45 f3 ea	 mov	 BYTE PTR __t$[ebp+7], -22 ; ffffffeaH
  0012f	eb 27		 jmp	 SHORT $LN1@operator@7
$LN90@operator@7:
  00131	88 4d f2	 mov	 BYTE PTR __t$[ebp+6], cl
  00134	eb 22		 jmp	 SHORT $LN1@operator@7
$LN91@operator@7:
  00136	c6 45 f1 ec	 mov	 BYTE PTR __t$[ebp+5], -20 ; ffffffecH
  0013a	eb 1c		 jmp	 SHORT $LN1@operator@7
$LN92@operator@7:
  0013c	c6 45 f0 ed	 mov	 BYTE PTR __t$[ebp+4], -19 ; ffffffedH
  00140	eb 16		 jmp	 SHORT $LN1@operator@7
$LN93@operator@7:
  00142	c6 45 ef ea	 mov	 BYTE PTR __t$[ebp+3], -22 ; ffffffeaH
  00146	eb 10		 jmp	 SHORT $LN1@operator@7
$LN94@operator@7:
  00148	c6 45 ee eb	 mov	 BYTE PTR __t$[ebp+2], -21 ; ffffffebH
  0014c	eb 0a		 jmp	 SHORT $LN1@operator@7
$LN95@operator@7:
  0014e	c6 45 ed ec	 mov	 BYTE PTR __t$[ebp+1], -20 ; ffffffecH
  00152	eb 04		 jmp	 SHORT $LN1@operator@7
$LN96@operator@7:
  00154	c6 45 ec ed	 mov	 BYTE PTR __t$[ebp], -19	; ffffffedH
$LN1@operator@7:
  00158	6a 02		 push	 2
  0015a	8d 45 ec	 lea	 eax, DWORD PTR __t$[ebp]
  0015d	c6 45 f7 00	 mov	 BYTE PTR __t$[ebp+11], 0
  00161	5a		 pop	 edx
$LL104@operator@7:
  00162	81 30 ed ec eb
	ea		 xor	 DWORD PTR [eax], -353637139 ; eaebecedH
  00168	83 c0 04	 add	 eax, 4
  0016b	4a		 dec	 edx
  0016c	75 f4		 jne	 SHORT $LL104@operator@7
  0016e	6a 08		 push	 8
  00170	58		 pop	 eax
$LL101@operator@7:
  00171	8b c8		 mov	 ecx, eax
  00173	81 e1 03 00 00
	80		 and	 ecx, -2147483645	; 80000003H
  00179	79 05		 jns	 SHORT $LN115@operator@7
  0017b	49		 dec	 ecx
  0017c	83 c9 fc	 or	 ecx, -4			; fffffffcH
  0017f	41		 inc	 ecx
$LN115@operator@7:
  00180	b2 ed		 mov	 dl, -19			; ffffffedH
  00182	2a d1		 sub	 dl, cl
  00184	30 54 05 ec	 xor	 BYTE PTR __t$[ebp+eax], dl
  00188	40		 inc	 eax
  00189	83 f8 0b	 cmp	 eax, 11			; 0000000bH
  0018c	7c e3		 jl	 SHORT $LL101@operator@7
  0018e	8b cf		 mov	 ecx, edi
  00190	8d 75 ec	 lea	 esi, DWORD PTR __t$[ebp]
  00193	ff 15 00 00 00
	00		 call	 DWORD PTR __imp_?c_str@ioHashString@@QBEPBDXZ
$LL111@operator@7:
  00199	8a 08		 mov	 cl, BYTE PTR [eax]
  0019b	3a 0e		 cmp	 cl, BYTE PTR [esi]
  0019d	75 1a		 jne	 SHORT $LN112@operator@7
  0019f	84 c9		 test	 cl, cl
  001a1	74 12		 je	 SHORT $LN113@operator@7
  001a3	8a 48 01	 mov	 cl, BYTE PTR [eax+1]
  001a6	3a 4e 01	 cmp	 cl, BYTE PTR [esi+1]
  001a9	75 0e		 jne	 SHORT $LN112@operator@7
  001ab	83 c0 02	 add	 eax, 2
  001ae	83 c6 02	 add	 esi, 2
  001b1	84 c9		 test	 cl, cl
  001b3	75 e4		 jne	 SHORT $LL111@operator@7
$LN113@operator@7:
  001b5	33 c0		 xor	 eax, eax
  001b7	eb 05		 jmp	 SHORT $LN114@operator@7
$LN112@operator@7:
  001b9	1b c0		 sbb	 eax, eax
  001bb	83 d8 ff	 sbb	 eax, -1
$LN114@operator@7:
  001be	33 c9		 xor	 ecx, ecx
  001c0	85 c0		 test	 eax, eax
  001c2	0f 94 c0	 sete	 al

; 148  : }

  001c5	8b 4d fc	 mov	 ecx, DWORD PTR __$ArrayPad$[ebp]
  001c8	5f		 pop	 edi
  001c9	33 cd		 xor	 ecx, ebp
  001cb	5e		 pop	 esi
  001cc	e8 00 00 00 00	 call	 @__security_check_cookie@4
  001d1	c9		 leave
  001d2	c3		 ret	 0
??$?8$0M@@@YA_NABVioHashString@@AAY0M@$$CBD@Z ENDP	; operator==<12>
_TEXT	ENDS
PUBLIC	__$ArrayPad$
PUBLIC	??$?8$05@@YA_NABVioHashString@@AAY05$$CBD@Z	; operator==<6>
; Function compile flags: /Ogsp
;	COMDAT ??$?8$05@@YA_NABVioHashString@@AAY05$$CBD@Z
_TEXT	SEGMENT
__t$ = -16						; size = 6
__$ArrayPad$ = -4					; size = 4
_lhs$ = 8						; size = 4
_t$ = 12						; size = 4
??$?8$05@@YA_NABVioHashString@@AAY05$$CBD@Z PROC	; operator==<6>, COMDAT

; 146  : {

  00000	55		 push	 ebp
  00001	8b ec		 mov	 ebp, esp
  00003	83 ec 10	 sub	 esp, 16			; 00000010H
  00006	a1 00 00 00 00	 mov	 eax, DWORD PTR ___security_cookie
  0000b	33 c5		 xor	 eax, ebp
  0000d	89 45 fc	 mov	 DWORD PTR __$ArrayPad$[ebp], eax
  00010	8b 45 0c	 mov	 eax, DWORD PTR _t$[ebp]

; 147  : 	_ENCSTR(t, _t); return ( strcmp( lhs.c_str(), _t ) == 0 );

  00013	8a 10		 mov	 dl, BYTE PTR [eax]
  00015	8b 4d 08	 mov	 ecx, DWORD PTR _lhs$[ebp]
  00018	84 d2		 test	 dl, dl
  0001a	0f 84 a9 00 00
	00		 je	 $LN96@operator@8
  00020	80 f2 ed	 xor	 dl, -19			; ffffffedH
  00023	88 55 f0	 mov	 BYTE PTR __t$[ebp], dl
  00026	8a 50 01	 mov	 dl, BYTE PTR [eax+1]
  00029	84 d2		 test	 dl, dl
  0002b	0f 84 92 00 00
	00		 je	 $LN95@operator@8
  00031	80 f2 ec	 xor	 dl, -20			; ffffffecH
  00034	88 55 f1	 mov	 BYTE PTR __t$[ebp+1], dl
  00037	8a 50 02	 mov	 dl, BYTE PTR [eax+2]
  0003a	84 d2		 test	 dl, dl
  0003c	74 7f		 je	 SHORT $LN94@operator@8
  0003e	80 f2 eb	 xor	 dl, -21			; ffffffebH
  00041	88 55 f2	 mov	 BYTE PTR __t$[ebp+2], dl
  00044	8a 50 03	 mov	 dl, BYTE PTR [eax+3]
  00047	84 d2		 test	 dl, dl
  00049	74 6c		 je	 SHORT $LN93@operator@8
  0004b	80 f2 ea	 xor	 dl, -22			; ffffffeaH
  0004e	88 55 f3	 mov	 BYTE PTR __t$[ebp+3], dl
  00051	8a 50 04	 mov	 dl, BYTE PTR [eax+4]
  00054	84 d2		 test	 dl, dl
  00056	74 59		 je	 SHORT $LN92@operator@8
  00058	80 f2 ed	 xor	 dl, -19			; ffffffedH
  0005b	80 78 05 00	 cmp	 BYTE PTR [eax+5], 0
  0005f	88 55 f4	 mov	 BYTE PTR __t$[ebp+4], dl
  00062	74 69		 je	 SHORT $LN1@operator@8
  00064	8a 50 06	 mov	 dl, BYTE PTR [eax+6]
  00067	84 d2		 test	 dl, dl
  00069	74 40		 je	 SHORT $LN90@operator@8
  0006b	80 f2 eb	 xor	 dl, -21			; ffffffebH
  0006e	88 55 f6	 mov	 BYTE PTR __t$[ebp+6], dl
  00071	8a 50 07	 mov	 dl, BYTE PTR [eax+7]
  00074	84 d2		 test	 dl, dl
  00076	74 2d		 je	 SHORT $LN89@operator@8
  00078	80 f2 ea	 xor	 dl, -22			; ffffffeaH
  0007b	88 55 f7	 mov	 BYTE PTR __t$[ebp+7], dl
  0007e	8a 50 08	 mov	 dl, BYTE PTR [eax+8]
  00081	84 d2		 test	 dl, dl
  00083	74 1a		 je	 SHORT $LN88@operator@8
  00085	8a 40 09	 mov	 al, BYTE PTR [eax+9]
  00088	80 f2 ed	 xor	 dl, -19			; ffffffedH
  0008b	88 55 f8	 mov	 BYTE PTR __t$[ebp+8], dl
  0008e	84 c0		 test	 al, al
  00090	74 07		 je	 SHORT $LN87@operator@8
  00092	34 ec		 xor	 al, -20			; ffffffecH
  00094	88 45 f9	 mov	 BYTE PTR __t$[ebp+9], al
  00097	eb 34		 jmp	 SHORT $LN1@operator@8
$LN87@operator@8:
  00099	c6 45 f9 ec	 mov	 BYTE PTR __t$[ebp+9], -20 ; ffffffecH
  0009d	eb 2e		 jmp	 SHORT $LN1@operator@8
$LN88@operator@8:
  0009f	c6 45 f8 ed	 mov	 BYTE PTR __t$[ebp+8], -19 ; ffffffedH
  000a3	eb 28		 jmp	 SHORT $LN1@operator@8
$LN89@operator@8:
  000a5	c6 45 f7 ea	 mov	 BYTE PTR __t$[ebp+7], -22 ; ffffffeaH
  000a9	eb 22		 jmp	 SHORT $LN1@operator@8
$LN90@operator@8:
  000ab	c6 45 f6 eb	 mov	 BYTE PTR __t$[ebp+6], -21 ; ffffffebH
  000af	eb 1c		 jmp	 SHORT $LN1@operator@8
$LN92@operator@8:
  000b1	c6 45 f4 ed	 mov	 BYTE PTR __t$[ebp+4], -19 ; ffffffedH
  000b5	eb 16		 jmp	 SHORT $LN1@operator@8
$LN93@operator@8:
  000b7	c6 45 f3 ea	 mov	 BYTE PTR __t$[ebp+3], -22 ; ffffffeaH
  000bb	eb 10		 jmp	 SHORT $LN1@operator@8
$LN94@operator@8:
  000bd	c6 45 f2 eb	 mov	 BYTE PTR __t$[ebp+2], -21 ; ffffffebH
  000c1	eb 0a		 jmp	 SHORT $LN1@operator@8
$LN95@operator@8:
  000c3	c6 45 f1 ec	 mov	 BYTE PTR __t$[ebp+1], -20 ; ffffffecH
  000c7	eb 04		 jmp	 SHORT $LN1@operator@8
$LN96@operator@8:
  000c9	c6 45 f0 ed	 mov	 BYTE PTR __t$[ebp], -19	; ffffffedH
$LN1@operator@8:
  000cd	81 75 f0 ed ec
	eb ea		 xor	 DWORD PTR __t$[ebp], -353637139 ; eaebecedH
  000d4	80 75 f4 ed	 xor	 BYTE PTR __t$[ebp+4], -19 ; ffffffedH
  000d8	56		 push	 esi
  000d9	c6 45 f5 00	 mov	 BYTE PTR __t$[ebp+5], 0
  000dd	8d 75 f0	 lea	 esi, DWORD PTR __t$[ebp]
  000e0	ff 15 00 00 00
	00		 call	 DWORD PTR __imp_?c_str@ioHashString@@QBEPBDXZ
$LL111@operator@8:
  000e6	8a 08		 mov	 cl, BYTE PTR [eax]
  000e8	3a 0e		 cmp	 cl, BYTE PTR [esi]
  000ea	75 1a		 jne	 SHORT $LN112@operator@8
  000ec	84 c9		 test	 cl, cl
  000ee	74 12		 je	 SHORT $LN113@operator@8
  000f0	8a 48 01	 mov	 cl, BYTE PTR [eax+1]
  000f3	3a 4e 01	 cmp	 cl, BYTE PTR [esi+1]
  000f6	75 0e		 jne	 SHORT $LN112@operator@8
  000f8	83 c0 02	 add	 eax, 2
  000fb	83 c6 02	 add	 esi, 2
  000fe	84 c9		 test	 cl, cl
  00100	75 e4		 jne	 SHORT $LL111@operator@8
$LN113@operator@8:
  00102	33 c0		 xor	 eax, eax
  00104	eb 05		 jmp	 SHORT $LN114@operator@8
$LN112@operator@8:
  00106	1b c0		 sbb	 eax, eax
  00108	83 d8 ff	 sbb	 eax, -1
$LN114@operator@8:
  0010b	33 c9		 xor	 ecx, ecx
  0010d	85 c0		 test	 eax, eax
  0010f	0f 94 c0	 sete	 al

; 148  : }

  00112	8b 4d fc	 mov	 ecx, DWORD PTR __$ArrayPad$[ebp]
  00115	33 cd		 xor	 ecx, ebp
  00117	5e		 pop	 esi
  00118	e8 00 00 00 00	 call	 @__security_check_cookie@4
  0011d	c9		 leave
  0011e	c3		 ret	 0
??$?8$05@@YA_NABVioHashString@@AAY05$$CBD@Z ENDP	; operator==<6>
_TEXT	ENDS
PUBLIC	__$ArrayPad$
PUBLIC	??$GetIntAttribute_e@$0P@@ioXMLElement@@QBEHAAY0P@$$CBD@Z ; ioXMLElement::GetIntAttribute_e<15>
EXTRN	__imp_?GetIntAttribute@ioXMLElement@@QBEHPBD@Z:PROC
; Function compile flags: /Ogsp
; File d:\lost saga for developer\youtube\tutorial\source\src\io3dengine\ioxmlelement.h
;	COMDAT ??$GetIntAttribute_e@$0P@@ioXMLElement@@QBEHAAY0P@$$CBD@Z
_TEXT	SEGMENT
__k$ = -24						; size = 15
__$ArrayPad$ = -4					; size = 4
_k$ = 8							; size = 4
??$GetIntAttribute_e@$0P@@ioXMLElement@@QBEHAAY0P@$$CBD@Z PROC ; ioXMLElement::GetIntAttribute_e<15>, COMDAT
; _this$ = ecx

; 86   : 	{

  00000	55		 push	 ebp
  00001	8b ec		 mov	 ebp, esp
  00003	83 ec 18	 sub	 esp, 24			; 00000018H
  00006	a1 00 00 00 00	 mov	 eax, DWORD PTR ___security_cookie
  0000b	33 c5		 xor	 eax, ebp
  0000d	89 45 fc	 mov	 DWORD PTR __$ArrayPad$[ebp], eax
  00010	8b 45 08	 mov	 eax, DWORD PTR _k$[ebp]

; 87   : 		_ENCSTR(k, _k);

  00013	8a 10		 mov	 dl, BYTE PTR [eax]
  00015	56		 push	 esi
  00016	8b f1		 mov	 esi, ecx
  00018	84 d2		 test	 dl, dl
  0001a	0f 84 75 01 00
	00		 je	 $LN96@GetIntAttr
  00020	80 f2 ed	 xor	 dl, -19			; ffffffedH
  00023	88 55 e8	 mov	 BYTE PTR __k$[ebp], dl
  00026	8a 50 01	 mov	 dl, BYTE PTR [eax+1]
  00029	84 d2		 test	 dl, dl
  0002b	0f 84 5e 01 00
	00		 je	 $LN95@GetIntAttr
  00031	b1 ec		 mov	 cl, -20			; ffffffecH
  00033	32 d1		 xor	 dl, cl
  00035	88 55 e9	 mov	 BYTE PTR __k$[ebp+1], dl
  00038	8a 50 02	 mov	 dl, BYTE PTR [eax+2]
  0003b	84 d2		 test	 dl, dl
  0003d	0f 84 46 01 00
	00		 je	 $LN94@GetIntAttr
  00043	80 f2 eb	 xor	 dl, -21			; ffffffebH
  00046	88 55 ea	 mov	 BYTE PTR __k$[ebp+2], dl
  00049	8a 50 03	 mov	 dl, BYTE PTR [eax+3]
  0004c	84 d2		 test	 dl, dl
  0004e	0f 84 2f 01 00
	00		 je	 $LN93@GetIntAttr
  00054	80 f2 ea	 xor	 dl, -22			; ffffffeaH
  00057	88 55 eb	 mov	 BYTE PTR __k$[ebp+3], dl
  0005a	8a 50 04	 mov	 dl, BYTE PTR [eax+4]
  0005d	84 d2		 test	 dl, dl
  0005f	0f 84 18 01 00
	00		 je	 $LN92@GetIntAttr
  00065	80 f2 ed	 xor	 dl, -19			; ffffffedH
  00068	88 55 ec	 mov	 BYTE PTR __k$[ebp+4], dl
  0006b	8a 50 05	 mov	 dl, BYTE PTR [eax+5]
  0006e	84 d2		 test	 dl, dl
  00070	0f 84 02 01 00
	00		 je	 $LN91@GetIntAttr
  00076	32 d1		 xor	 dl, cl
  00078	88 55 ed	 mov	 BYTE PTR __k$[ebp+5], dl
  0007b	8a 50 06	 mov	 dl, BYTE PTR [eax+6]
  0007e	84 d2		 test	 dl, dl
  00080	0f 84 ec 00 00
	00		 je	 $LN90@GetIntAttr
  00086	80 f2 eb	 xor	 dl, -21			; ffffffebH
  00089	88 55 ee	 mov	 BYTE PTR __k$[ebp+6], dl
  0008c	8a 50 07	 mov	 dl, BYTE PTR [eax+7]
  0008f	84 d2		 test	 dl, dl
  00091	0f 84 d5 00 00
	00		 je	 $LN89@GetIntAttr
  00097	80 f2 ea	 xor	 dl, -22			; ffffffeaH
  0009a	88 55 ef	 mov	 BYTE PTR __k$[ebp+7], dl
  0009d	8a 50 08	 mov	 dl, BYTE PTR [eax+8]
  000a0	84 d2		 test	 dl, dl
  000a2	0f 84 be 00 00
	00		 je	 $LN88@GetIntAttr
  000a8	80 f2 ed	 xor	 dl, -19			; ffffffedH
  000ab	88 55 f0	 mov	 BYTE PTR __k$[ebp+8], dl
  000ae	8a 50 09	 mov	 dl, BYTE PTR [eax+9]
  000b1	84 d2		 test	 dl, dl
  000b3	0f 84 a8 00 00
	00		 je	 $LN87@GetIntAttr
  000b9	32 d1		 xor	 dl, cl
  000bb	88 55 f1	 mov	 BYTE PTR __k$[ebp+9], dl
  000be	8a 50 0a	 mov	 dl, BYTE PTR [eax+10]
  000c1	84 d2		 test	 dl, dl
  000c3	0f 84 92 00 00
	00		 je	 $LN86@GetIntAttr
  000c9	80 f2 eb	 xor	 dl, -21			; ffffffebH
  000cc	88 55 f2	 mov	 BYTE PTR __k$[ebp+10], dl
  000cf	8a 50 0b	 mov	 dl, BYTE PTR [eax+11]
  000d2	84 d2		 test	 dl, dl
  000d4	74 7f		 je	 SHORT $LN85@GetIntAttr
  000d6	80 f2 ea	 xor	 dl, -22			; ffffffeaH
  000d9	88 55 f3	 mov	 BYTE PTR __k$[ebp+11], dl
  000dc	8a 50 0c	 mov	 dl, BYTE PTR [eax+12]
  000df	84 d2		 test	 dl, dl
  000e1	74 6c		 je	 SHORT $LN84@GetIntAttr
  000e3	80 f2 ed	 xor	 dl, -19			; ffffffedH
  000e6	88 55 f4	 mov	 BYTE PTR __k$[ebp+12], dl
  000e9	8a 50 0d	 mov	 dl, BYTE PTR [eax+13]
  000ec	84 d2		 test	 dl, dl
  000ee	74 5a		 je	 SHORT $LN83@GetIntAttr
  000f0	32 d1		 xor	 dl, cl
  000f2	80 78 0e 00	 cmp	 BYTE PTR [eax+14], 0
  000f6	88 55 f5	 mov	 BYTE PTR __k$[ebp+13], dl
  000f9	0f 84 9a 00 00
	00		 je	 $LN1@GetIntAttr
  000ff	8a 50 0f	 mov	 dl, BYTE PTR [eax+15]
  00102	84 d2		 test	 dl, dl
  00104	74 3e		 je	 SHORT $LN81@GetIntAttr
  00106	80 f2 ea	 xor	 dl, -22			; ffffffeaH
  00109	88 55 f7	 mov	 BYTE PTR __k$[ebp+15], dl
  0010c	8a 50 10	 mov	 dl, BYTE PTR [eax+16]
  0010f	84 d2		 test	 dl, dl
  00111	74 2b		 je	 SHORT $LN80@GetIntAttr
  00113	80 f2 ed	 xor	 dl, -19			; ffffffedH
  00116	88 55 f8	 mov	 BYTE PTR __k$[ebp+16], dl
  00119	8a 50 11	 mov	 dl, BYTE PTR [eax+17]
  0011c	84 d2		 test	 dl, dl
  0011e	74 19		 je	 SHORT $LN79@GetIntAttr
  00120	8a 40 12	 mov	 al, BYTE PTR [eax+18]
  00123	32 d1		 xor	 dl, cl
  00125	88 55 f9	 mov	 BYTE PTR __k$[ebp+17], dl
  00128	84 c0		 test	 al, al
  0012a	74 07		 je	 SHORT $LN78@GetIntAttr
  0012c	34 eb		 xor	 al, -21			; ffffffebH
  0012e	88 45 fa	 mov	 BYTE PTR __k$[ebp+18], al
  00131	eb 66		 jmp	 SHORT $LN1@GetIntAttr
$LN78@GetIntAttr:
  00133	c6 45 fa eb	 mov	 BYTE PTR __k$[ebp+18], -21 ; ffffffebH
  00137	eb 60		 jmp	 SHORT $LN1@GetIntAttr
$LN79@GetIntAttr:
  00139	88 4d f9	 mov	 BYTE PTR __k$[ebp+17], cl
  0013c	eb 5b		 jmp	 SHORT $LN1@GetIntAttr
$LN80@GetIntAttr:
  0013e	c6 45 f8 ed	 mov	 BYTE PTR __k$[ebp+16], -19 ; ffffffedH
  00142	eb 55		 jmp	 SHORT $LN1@GetIntAttr
$LN81@GetIntAttr:
  00144	c6 45 f7 ea	 mov	 BYTE PTR __k$[ebp+15], -22 ; ffffffeaH
  00148	eb 4f		 jmp	 SHORT $LN1@GetIntAttr
$LN83@GetIntAttr:
  0014a	88 4d f5	 mov	 BYTE PTR __k$[ebp+13], cl
  0014d	eb 4a		 jmp	 SHORT $LN1@GetIntAttr
$LN84@GetIntAttr:
  0014f	c6 45 f4 ed	 mov	 BYTE PTR __k$[ebp+12], -19 ; ffffffedH
  00153	eb 44		 jmp	 SHORT $LN1@GetIntAttr
$LN85@GetIntAttr:
  00155	c6 45 f3 ea	 mov	 BYTE PTR __k$[ebp+11], -22 ; ffffffeaH
  00159	eb 3e		 jmp	 SHORT $LN1@GetIntAttr
$LN86@GetIntAttr:
  0015b	c6 45 f2 eb	 mov	 BYTE PTR __k$[ebp+10], -21 ; ffffffebH
  0015f	eb 38		 jmp	 SHORT $LN1@GetIntAttr
$LN87@GetIntAttr:
  00161	88 4d f1	 mov	 BYTE PTR __k$[ebp+9], cl
  00164	eb 33		 jmp	 SHORT $LN1@GetIntAttr
$LN88@GetIntAttr:
  00166	c6 45 f0 ed	 mov	 BYTE PTR __k$[ebp+8], -19 ; ffffffedH
  0016a	eb 2d		 jmp	 SHORT $LN1@GetIntAttr
$LN89@GetIntAttr:
  0016c	c6 45 ef ea	 mov	 BYTE PTR __k$[ebp+7], -22 ; ffffffeaH
  00170	eb 27		 jmp	 SHORT $LN1@GetIntAttr
$LN90@GetIntAttr:
  00172	c6 45 ee eb	 mov	 BYTE PTR __k$[ebp+6], -21 ; ffffffebH
  00176	eb 21		 jmp	 SHORT $LN1@GetIntAttr
$LN91@GetIntAttr:
  00178	88 4d ed	 mov	 BYTE PTR __k$[ebp+5], cl
  0017b	eb 1c		 jmp	 SHORT $LN1@GetIntAttr
$LN92@GetIntAttr:
  0017d	c6 45 ec ed	 mov	 BYTE PTR __k$[ebp+4], -19 ; ffffffedH
  00181	eb 16		 jmp	 SHORT $LN1@GetIntAttr
$LN93@GetIntAttr:
  00183	c6 45 eb ea	 mov	 BYTE PTR __k$[ebp+3], -22 ; ffffffeaH
  00187	eb 10		 jmp	 SHORT $LN1@GetIntAttr
$LN94@GetIntAttr:
  00189	c6 45 ea eb	 mov	 BYTE PTR __k$[ebp+2], -21 ; ffffffebH
  0018d	eb 0a		 jmp	 SHORT $LN1@GetIntAttr
$LN95@GetIntAttr:
  0018f	c6 45 e9 ec	 mov	 BYTE PTR __k$[ebp+1], -20 ; ffffffecH
  00193	eb 04		 jmp	 SHORT $LN1@GetIntAttr
$LN96@GetIntAttr:
  00195	c6 45 e8 ed	 mov	 BYTE PTR __k$[ebp], -19	; ffffffedH
$LN1@GetIntAttr:
  00199	6a 03		 push	 3
  0019b	8d 45 e8	 lea	 eax, DWORD PTR __k$[ebp]
  0019e	c6 45 f6 00	 mov	 BYTE PTR __k$[ebp+14], 0
  001a2	5a		 pop	 edx
$LL104@GetIntAttr:
  001a3	81 30 ed ec eb
	ea		 xor	 DWORD PTR [eax], -353637139 ; eaebecedH
  001a9	83 c0 04	 add	 eax, 4
  001ac	4a		 dec	 edx
  001ad	75 f4		 jne	 SHORT $LL104@GetIntAttr
  001af	6a 0c		 push	 12			; 0000000cH
  001b1	58		 pop	 eax
$LL101@GetIntAttr:
  001b2	8b c8		 mov	 ecx, eax
  001b4	81 e1 03 00 00
	80		 and	 ecx, -2147483645	; 80000003H
  001ba	79 05		 jns	 SHORT $LN111@GetIntAttr
  001bc	49		 dec	 ecx
  001bd	83 c9 fc	 or	 ecx, -4			; fffffffcH
  001c0	41		 inc	 ecx
$LN111@GetIntAttr:
  001c1	b2 ed		 mov	 dl, -19			; ffffffedH
  001c3	2a d1		 sub	 dl, cl
  001c5	30 54 05 e8	 xor	 BYTE PTR __k$[ebp+eax], dl
  001c9	40		 inc	 eax
  001ca	83 f8 0e	 cmp	 eax, 14			; 0000000eH
  001cd	7c e3		 jl	 SHORT $LL101@GetIntAttr

; 88   : 		return GetIntAttribute(_k);

  001cf	8d 45 e8	 lea	 eax, DWORD PTR __k$[ebp]
  001d2	50		 push	 eax
  001d3	8b ce		 mov	 ecx, esi
  001d5	ff 15 00 00 00
	00		 call	 DWORD PTR __imp_?GetIntAttribute@ioXMLElement@@QBEHPBD@Z

; 89   : 	}

  001db	8b 4d fc	 mov	 ecx, DWORD PTR __$ArrayPad$[ebp]
  001de	33 cd		 xor	 ecx, ebp
  001e0	5e		 pop	 esi
  001e1	e8 00 00 00 00	 call	 @__security_check_cookie@4
  001e6	c9		 leave
  001e7	c2 04 00	 ret	 4
??$GetIntAttribute_e@$0P@@ioXMLElement@@QBEHAAY0P@$$CBD@Z ENDP ; ioXMLElement::GetIntAttribute_e<15>
_TEXT	ENDS
PUBLIC	??$_Cons_val@V?$allocator@UUIEffectAniInfo@RouletteWnd@@@std@@UUIEffectAniInfo@RouletteWnd@@AAU34@@std@@YAXAAV?$allocator@UUIEffectAniInfo@RouletteWnd@@@0@PAUUIEffectAniInfo@RouletteWnd@@AAU23@@Z ; std::_Cons_val<std::allocator<RouletteWnd::UIEffectAniInfo>,RouletteWnd::UIEffectAniInfo,RouletteWnd::UIEffectAniInfo &>
; Function compile flags: /Ogsp
; File c:\program files (x86)\microsoft visual studio 10.0\vc\include\xmemory
;	COMDAT ??$_Cons_val@V?$allocator@UUIEffectAniInfo@RouletteWnd@@@std@@UUIEffectAniInfo@RouletteWnd@@AAU34@@std@@YAXAAV?$allocator@UUIEffectAniInfo@RouletteWnd@@@0@PAUUIEffectAniInfo@RouletteWnd@@AAU23@@Z
_TEXT	SEGMENT
__Alval$ = 8						; size = 4
__Pdest$ = 12						; size = 4
__Src$ = 16						; size = 4
??$_Cons_val@V?$allocator@UUIEffectAniInfo@RouletteWnd@@@std@@UUIEffectAniInfo@RouletteWnd@@AAU34@@std@@YAXAAV?$allocator@UUIEffectAniInfo@RouletteWnd@@@0@PAUUIEffectAniInfo@RouletteWnd@@AAU23@@Z PROC ; std::_Cons_val<std::allocator<RouletteWnd::UIEffectAniInfo>,RouletteWnd::UIEffectAniInfo,RouletteWnd::UIEffectAniInfo &>, COMDAT

; 279  : 	{	// construct using allocator

  00000	55		 push	 ebp
  00001	8b ec		 mov	 ebp, esp
  00003	57		 push	 edi

; 280  : 	_Alval.construct(_Pdest, _STD forward<_Ty2>(_Src));

  00004	8b 7d 0c	 mov	 edi, DWORD PTR __Pdest$[ebp]
  00007	85 ff		 test	 edi, edi
  00009	74 0a		 je	 SHORT $LN7@Cons_val
  0000b	56		 push	 esi
  0000c	8b 75 10	 mov	 esi, DWORD PTR __Src$[ebp]
  0000f	6a 08		 push	 8
  00011	59		 pop	 ecx
  00012	f3 a5		 rep movsd
  00014	5e		 pop	 esi
$LN7@Cons_val:
  00015	5f		 pop	 edi

; 281  : 	}

  00016	5d		 pop	 ebp
  00017	c3		 ret	 0
??$_Cons_val@V?$allocator@UUIEffectAniInfo@RouletteWnd@@@std@@UUIEffectAniInfo@RouletteWnd@@AAU34@@std@@YAXAAV?$allocator@UUIEffectAniInfo@RouletteWnd@@@0@PAUUIEffectAniInfo@RouletteWnd@@AAU23@@Z ENDP ; std::_Cons_val<std::allocator<RouletteWnd::UIEffectAniInfo>,RouletteWnd::UIEffectAniInfo,RouletteWnd::UIEffectAniInfo &>
_TEXT	ENDS
PUBLIC	?construct@?$allocator@UUIEffectAniInfo@RouletteWnd@@@std@@QAEXPAUUIEffectAniInfo@RouletteWnd@@ABU34@@Z ; std::allocator<RouletteWnd::UIEffectAniInfo>::construct
; Function compile flags: /Ogsp
;	COMDAT ?construct@?$allocator@UUIEffectAniInfo@RouletteWnd@@@std@@QAEXPAUUIEffectAniInfo@RouletteWnd@@ABU34@@Z
_TEXT	SEGMENT
__Ptr$ = 8						; size = 4
__Val$ = 12						; size = 4
?construct@?$allocator@UUIEffectAniInfo@RouletteWnd@@@std@@QAEXPAUUIEffectAniInfo@RouletteWnd@@ABU34@@Z PROC ; std::allocator<RouletteWnd::UIEffectAniInfo>::construct, COMDAT
; _this$ = ecx

; 196  : 		{	// construct object at _Ptr with value _Val

  00000	55		 push	 ebp
  00001	8b ec		 mov	 ebp, esp
  00003	57		 push	 edi

; 197  : 		_Construct(_Ptr, _Val);

  00004	8b 7d 08	 mov	 edi, DWORD PTR __Ptr$[ebp]
  00007	85 ff		 test	 edi, edi
  00009	74 0a		 je	 SHORT $LN5@construct@2
  0000b	56		 push	 esi
  0000c	8b 75 0c	 mov	 esi, DWORD PTR __Val$[ebp]
  0000f	6a 08		 push	 8
  00011	59		 pop	 ecx
  00012	f3 a5		 rep movsd
  00014	5e		 pop	 esi
$LN5@construct@2:
  00015	5f		 pop	 edi

; 198  : 		}

  00016	5d		 pop	 ebp
  00017	c2 08 00	 ret	 8
?construct@?$allocator@UUIEffectAniInfo@RouletteWnd@@@std@@QAEXPAUUIEffectAniInfo@RouletteWnd@@ABU34@@Z ENDP ; std::allocator<RouletteWnd::UIEffectAniInfo>::construct
_TEXT	ENDS
PUBLIC	??$construct@AAVioHashString@@@?$allocator@VioHashString@@@std@@QAEXPAVioHashString@@AAV2@@Z ; std::allocator<ioHashString>::construct<ioHashString &>
;	COMDAT xdata$x
; File c:\program files (x86)\microsoft visual studio 10.0\vc\include\utility
xdata$x	SEGMENT
__unwindtable$??$construct@AAVioHashString@@@?$allocator@VioHashString@@@std@@QAEXPAVioHashString@@AAV2@@Z DD 0ffffffffH
	DD	FLAT:__unwindfunclet$??$construct@AAVioHashString@@@?$allocator@VioHashString@@@std@@QAEXPAVioHashString@@AAV2@@Z$0
__ehfuncinfo$??$construct@AAVioHashString@@@?$allocator@VioHashString@@@std@@QAEXPAVioHashString@@AAV2@@Z DD 019930522H
	DD	01H
	DD	FLAT:__unwindtable$??$construct@AAVioHashString@@@?$allocator@VioHashString@@@std@@QAEXPAVioHashString@@AAV2@@Z
	DD	2 DUP(00H)
	DD	2 DUP(00H)
	DD	00H
	DD	01H
; Function compile flags: /Ogsp
; File c:\program files (x86)\microsoft visual studio 10.0\vc\include\xmemory
xdata$x	ENDS
;	COMDAT ??$construct@AAVioHashString@@@?$allocator@VioHashString@@@std@@QAEXPAVioHashString@@AAV2@@Z
_TEXT	SEGMENT
$T509989 = -16						; size = 4
__$EHRec$ = -12						; size = 12
__Ptr$ = 8						; size = 4
__Val$ = 12						; size = 4
??$construct@AAVioHashString@@@?$allocator@VioHashString@@@std@@QAEXPAVioHashString@@AAV2@@Z PROC ; std::allocator<ioHashString>::construct<ioHashString &>, COMDAT
; _this$ = ecx

; 206  : 		void construct(pointer _Ptr, _Other&& _Val)

  00000	6a 04		 push	 4
  00002	b8 00 00 00 00	 mov	 eax, __ehhandler$??$construct@AAVioHashString@@@?$allocator@VioHashString@@@std@@QAEXPAVioHashString@@AAV2@@Z
  00007	e8 00 00 00 00	 call	 __EH_prolog3

; 207  : 		{	// construct object at _Ptr with value _Val
; 208  : 		::new ((void _FARQ *)_Ptr) _Ty(_STD forward<_Other>(_Val));

  0000c	8b 4d 08	 mov	 ecx, DWORD PTR __Ptr$[ebp]
  0000f	89 4d f0	 mov	 DWORD PTR $T509989[ebp], ecx
  00012	83 65 fc 00	 and	 DWORD PTR __$EHRec$[ebp+8], 0
  00016	85 c9		 test	 ecx, ecx
  00018	74 09		 je	 SHORT $LN3@construct@3
  0001a	ff 75 0c	 push	 DWORD PTR __Val$[ebp]
  0001d	ff 15 00 00 00
	00		 call	 DWORD PTR __imp_??0ioHashString@@QAE@ABV0@@Z
$LN3@construct@3:

; 209  : 		}

  00023	e8 00 00 00 00	 call	 __EH_epilog3
  00028	c2 08 00	 ret	 8
_TEXT	ENDS
;	COMDAT text$x
text$x	SEGMENT
__unwindfunclet$??$construct@AAVioHashString@@@?$allocator@VioHashString@@@std@@QAEXPAVioHashString@@AAV2@@Z$0:
  00000	ff 75 08	 push	 DWORD PTR __Ptr$[ebp]
  00003	ff 75 f0	 push	 DWORD PTR $T509989[ebp]
  00006	e8 00 00 00 00	 call	 ??3@YAXPAX0@Z		; operator delete
  0000b	59		 pop	 ecx
  0000c	59		 pop	 ecx
  0000d	c3		 ret	 0
__ehhandler$??$construct@AAVioHashString@@@?$allocator@VioHashString@@@std@@QAEXPAVioHashString@@AAV2@@Z:
  0000e	8b 54 24 08	 mov	 edx, DWORD PTR [esp+8]
  00012	8d 42 0c	 lea	 eax, DWORD PTR [edx+12]
  00015	8b 4a ec	 mov	 ecx, DWORD PTR [edx-20]
  00018	33 c8		 xor	 ecx, eax
  0001a	e8 00 00 00 00	 call	 @__security_check_cookie@4
  0001f	b8 00 00 00 00	 mov	 eax, OFFSET __ehfuncinfo$??$construct@AAVioHashString@@@?$allocator@VioHashString@@@std@@QAEXPAVioHashString@@AAV2@@Z
  00024	e9 00 00 00 00	 jmp	 ___CxxFrameHandler3
text$x	ENDS
??$construct@AAVioHashString@@@?$allocator@VioHashString@@@std@@QAEXPAVioHashString@@AAV2@@Z ENDP ; std::allocator<ioHashString>::construct<ioHashString &>
PUBLIC	??$_Move@PAUUIEffectAniInfo@RouletteWnd@@PAU12@@std@@YAPAUUIEffectAniInfo@RouletteWnd@@PAU12@00U_Nonscalar_ptr_iterator_tag@0@@Z ; std::_Move<RouletteWnd::UIEffectAniInfo *,RouletteWnd::UIEffectAniInfo *>
; Function compile flags: /Ogsp
; File c:\program files (x86)\microsoft visual studio 10.0\vc\include\xutility
;	COMDAT ??$_Move@PAUUIEffectAniInfo@RouletteWnd@@PAU12@@std@@YAPAUUIEffectAniInfo@RouletteWnd@@PAU12@00U_Nonscalar_ptr_iterator_tag@0@@Z
_TEXT	SEGMENT
__First$ = 8						; size = 4
__Last$ = 12						; size = 4
__Dest$ = 16						; size = 4
___formal$ = 20						; size = 1
??$_Move@PAUUIEffectAniInfo@RouletteWnd@@PAU12@@std@@YAPAUUIEffectAniInfo@RouletteWnd@@PAU12@00U_Nonscalar_ptr_iterator_tag@0@@Z PROC ; std::_Move<RouletteWnd::UIEffectAniInfo *,RouletteWnd::UIEffectAniInfo *>, COMDAT

; 2512 : 	{	// move [_First, _Last) to [_Dest, ...), arbitrary iterators

  00000	55		 push	 ebp
  00001	8b ec		 mov	 ebp, esp

; 2513 : 	for (; _First != _Last; ++_Dest, ++_First)

  00003	8b 45 08	 mov	 eax, DWORD PTR __First$[ebp]
  00006	3b 45 0c	 cmp	 eax, DWORD PTR __Last$[ebp]
  00009	74 1a		 je	 SHORT $LN10@Move
  0000b	56		 push	 esi
  0000c	57		 push	 edi
$LL3@Move:

; 2514 : 		*_Dest = _STD move(*_First);

  0000d	8b 7d 10	 mov	 edi, DWORD PTR __Dest$[ebp]
  00010	83 45 10 20	 add	 DWORD PTR __Dest$[ebp], 32 ; 00000020H
  00014	8b f0		 mov	 esi, eax
  00016	6a 08		 push	 8
  00018	83 c0 20	 add	 eax, 32			; 00000020H
  0001b	59		 pop	 ecx
  0001c	f3 a5		 rep movsd
  0001e	3b 45 0c	 cmp	 eax, DWORD PTR __Last$[ebp]
  00021	75 ea		 jne	 SHORT $LL3@Move
  00023	5f		 pop	 edi
  00024	5e		 pop	 esi
$LN10@Move:

; 2515 : 	return (_Dest);

  00025	8b 45 10	 mov	 eax, DWORD PTR __Dest$[ebp]

; 2516 : 	}

  00028	5d		 pop	 ebp
  00029	c3		 ret	 0
??$_Move@PAUUIEffectAniInfo@RouletteWnd@@PAU12@@std@@YAPAUUIEffectAniInfo@RouletteWnd@@PAU12@00U_Nonscalar_ptr_iterator_tag@0@@Z ENDP ; std::_Move<RouletteWnd::UIEffectAniInfo *,RouletteWnd::UIEffectAniInfo *>
_TEXT	ENDS
PUBLIC	?destroy@?$allocator@UUIEffectAniInfo@RouletteWnd@@@std@@QAEXPAUUIEffectAniInfo@RouletteWnd@@@Z ; std::allocator<RouletteWnd::UIEffectAniInfo>::destroy
; Function compile flags: /Ogsp
; File c:\program files (x86)\microsoft visual studio 10.0\vc\include\xmemory
;	COMDAT ?destroy@?$allocator@UUIEffectAniInfo@RouletteWnd@@@std@@QAEXPAUUIEffectAniInfo@RouletteWnd@@@Z
_TEXT	SEGMENT
__Ptr$ = 8						; size = 4
?destroy@?$allocator@UUIEffectAniInfo@RouletteWnd@@@std@@QAEXPAUUIEffectAniInfo@RouletteWnd@@@Z PROC ; std::allocator<RouletteWnd::UIEffectAniInfo>::destroy, COMDAT
; _this$ = ecx

; 213  : 		_Destroy(_Ptr);
; 214  : 		}

  00000	c2 04 00	 ret	 4
?destroy@?$allocator@UUIEffectAniInfo@RouletteWnd@@@std@@QAEXPAUUIEffectAniInfo@RouletteWnd@@@Z ENDP ; std::allocator<RouletteWnd::UIEffectAniInfo>::destroy
_TEXT	ENDS
PUBLIC	?construct@?$allocator@VioHashString@@@std@@QAEXPAVioHashString@@$$QAV3@@Z ; std::allocator<ioHashString>::construct
;	COMDAT xdata$x
; File c:\program files (x86)\microsoft visual studio 10.0\vc\include\utility
xdata$x	SEGMENT
__unwindtable$?construct@?$allocator@VioHashString@@@std@@QAEXPAVioHashString@@$$QAV3@@Z DD 0ffffffffH
	DD	FLAT:__unwindfunclet$?construct@?$allocator@VioHashString@@@std@@QAEXPAVioHashString@@$$QAV3@@Z$0
__ehfuncinfo$?construct@?$allocator@VioHashString@@@std@@QAEXPAVioHashString@@$$QAV3@@Z DD 019930522H
	DD	01H
	DD	FLAT:__unwindtable$?construct@?$allocator@VioHashString@@@std@@QAEXPAVioHashString@@$$QAV3@@Z
	DD	2 DUP(00H)
	DD	2 DUP(00H)
	DD	00H
	DD	01H
; Function compile flags: /Ogsp
; File c:\program files (x86)\microsoft visual studio 10.0\vc\include\xmemory
xdata$x	ENDS
;	COMDAT ?construct@?$allocator@VioHashString@@@std@@QAEXPAVioHashString@@$$QAV3@@Z
_TEXT	SEGMENT
$T510022 = -16						; size = 4
__$EHRec$ = -12						; size = 12
__Ptr$ = 8						; size = 4
__Val$ = 12						; size = 4
?construct@?$allocator@VioHashString@@@std@@QAEXPAVioHashString@@$$QAV3@@Z PROC ; std::allocator<ioHashString>::construct, COMDAT
; _this$ = ecx

; 201  : 		{	// construct object at _Ptr with value _Val

  00000	6a 04		 push	 4
  00002	b8 00 00 00 00	 mov	 eax, __ehhandler$?construct@?$allocator@VioHashString@@@std@@QAEXPAVioHashString@@$$QAV3@@Z
  00007	e8 00 00 00 00	 call	 __EH_prolog3

; 202  : 		::new ((void _FARQ *)_Ptr) _Ty(_STD forward<_Ty>(_Val));

  0000c	8b 4d 08	 mov	 ecx, DWORD PTR __Ptr$[ebp]
  0000f	89 4d f0	 mov	 DWORD PTR $T510022[ebp], ecx
  00012	83 65 fc 00	 and	 DWORD PTR __$EHRec$[ebp+8], 0
  00016	85 c9		 test	 ecx, ecx
  00018	74 09		 je	 SHORT $LN3@construct@4
  0001a	ff 75 0c	 push	 DWORD PTR __Val$[ebp]
  0001d	ff 15 00 00 00
	00		 call	 DWORD PTR __imp_??0ioHashString@@QAE@ABV0@@Z
$LN3@construct@4:

; 203  : 		}

  00023	e8 00 00 00 00	 call	 __EH_epilog3
  00028	c2 08 00	 ret	 8
_TEXT	ENDS
;	COMDAT text$x
text$x	SEGMENT
__unwindfunclet$?construct@?$allocator@VioHashString@@@std@@QAEXPAVioHashString@@$$QAV3@@Z$0:
  00000	ff 75 08	 push	 DWORD PTR __Ptr$[ebp]
  00003	ff 75 f0	 push	 DWORD PTR $T510022[ebp]
  00006	e8 00 00 00 00	 call	 ??3@YAXPAX0@Z		; operator delete
  0000b	59		 pop	 ecx
  0000c	59		 pop	 ecx
  0000d	c3		 ret	 0
__ehhandler$?construct@?$allocator@VioHashString@@@std@@QAEXPAVioHashString@@$$QAV3@@Z:
  0000e	8b 54 24 08	 mov	 edx, DWORD PTR [esp+8]
  00012	8d 42 0c	 lea	 eax, DWORD PTR [edx+12]
  00015	8b 4a ec	 mov	 ecx, DWORD PTR [edx-20]
  00018	33 c8		 xor	 ecx, eax
  0001a	e8 00 00 00 00	 call	 @__security_check_cookie@4
  0001f	b8 00 00 00 00	 mov	 eax, OFFSET __ehfuncinfo$?construct@?$allocator@VioHashString@@@std@@QAEXPAVioHashString@@$$QAV3@@Z
  00024	e9 00 00 00 00	 jmp	 ___CxxFrameHandler3
text$x	ENDS
?construct@?$allocator@VioHashString@@@std@@QAEXPAVioHashString@@$$QAV3@@Z ENDP ; std::allocator<ioHashString>::construct
PUBLIC	?construct@?$allocator@UUIEffectAniInfo@RouletteWnd@@@std@@QAEXPAUUIEffectAniInfo@RouletteWnd@@$$QAU34@@Z ; std::allocator<RouletteWnd::UIEffectAniInfo>::construct
; Function compile flags: /Ogsp
;	COMDAT ?construct@?$allocator@UUIEffectAniInfo@RouletteWnd@@@std@@QAEXPAUUIEffectAniInfo@RouletteWnd@@$$QAU34@@Z
_TEXT	SEGMENT
__Ptr$ = 8						; size = 4
__Val$ = 12						; size = 4
?construct@?$allocator@UUIEffectAniInfo@RouletteWnd@@@std@@QAEXPAUUIEffectAniInfo@RouletteWnd@@$$QAU34@@Z PROC ; std::allocator<RouletteWnd::UIEffectAniInfo>::construct, COMDAT
; _this$ = ecx

; 201  : 		{	// construct object at _Ptr with value _Val

  00000	55		 push	 ebp
  00001	8b ec		 mov	 ebp, esp
  00003	57		 push	 edi

; 202  : 		::new ((void _FARQ *)_Ptr) _Ty(_STD forward<_Ty>(_Val));

  00004	8b 7d 08	 mov	 edi, DWORD PTR __Ptr$[ebp]
  00007	85 ff		 test	 edi, edi
  00009	74 0a		 je	 SHORT $LN3@construct@5
  0000b	56		 push	 esi
  0000c	8b 75 0c	 mov	 esi, DWORD PTR __Val$[ebp]
  0000f	6a 08		 push	 8
  00011	59		 pop	 ecx
  00012	f3 a5		 rep movsd
  00014	5e		 pop	 esi
$LN3@construct@5:
  00015	5f		 pop	 edi

; 203  : 		}

  00016	5d		 pop	 ebp
  00017	c2 08 00	 ret	 8
?construct@?$allocator@UUIEffectAniInfo@RouletteWnd@@@std@@QAEXPAUUIEffectAniInfo@RouletteWnd@@$$QAU34@@Z ENDP ; std::allocator<RouletteWnd::UIEffectAniInfo>::construct
_TEXT	ENDS
PUBLIC	?GetJoinCount@ioRouletteManager@@QAEHXZ		; ioRouletteManager::GetJoinCount
; Function compile flags: /Ogsp
; File d:\lost saga for developer\youtube\tutorial\source\src\lsclient\ioroulettemanager.h
;	COMDAT ?GetJoinCount@ioRouletteManager@@QAEHXZ
_TEXT	SEGMENT
?GetJoinCount@ioRouletteManager@@QAEHXZ PROC		; ioRouletteManager::GetJoinCount, COMDAT
; _this$ = ecx

; 210  : 	int GetJoinCount() { return m_vJoinUser.size(); }

  00000	8b 81 b0 00 00
	00		 mov	 eax, DWORD PTR [ecx+176]
  00006	2b 81 ac 00 00
	00		 sub	 eax, DWORD PTR [ecx+172]
  0000c	c1 f8 04	 sar	 eax, 4
  0000f	c3		 ret	 0
?GetJoinCount@ioRouletteManager@@QAEHXZ ENDP		; ioRouletteManager::GetJoinCount
_TEXT	ENDS
PUBLIC	??B?$CEncrypt@K@@QAEKXZ				; CEncrypt<unsigned long>::operator unsigned long
; Function compile flags: /Ogsp
; File d:\lost saga for developer\youtube\tutorial\source\src\lsclient\encryptvalue.h
;	COMDAT ??B?$CEncrypt@K@@QAEKXZ
_TEXT	SEGMENT
_value$ = -4						; size = 4
??B?$CEncrypt@K@@QAEKXZ PROC				; CEncrypt<unsigned long>::operator unsigned long, COMDAT
; _this$ = ecx

; 134  : 	{

  00000	55		 push	 ebp
  00001	8b ec		 mov	 ebp, esp
  00003	51		 push	 ecx

; 135  : 		type value;
; 136  : 		DecryptValueToPool(&value);

  00004	8d 45 fc	 lea	 eax, DWORD PTR _value$[ebp]
  00007	50		 push	 eax
  00008	e8 00 00 00 00	 call	 ?DecryptValueToPool@?$CEncrypt@K@@QAEXPAK@Z ; CEncrypt<unsigned long>::DecryptValueToPool

; 137  : 
; 138  : #ifdef _NOTUSE
; 139  : 		Debug();
; 140  : #endif
; 141  : 		return value;

  0000d	8b 45 fc	 mov	 eax, DWORD PTR _value$[ebp]

; 142  : 	}

  00010	c9		 leave
  00011	c3		 ret	 0
??B?$CEncrypt@K@@QAEKXZ ENDP				; CEncrypt<unsigned long>::operator unsigned long
_TEXT	ENDS
PUBLIC	?begin@?$vector@VioHashString@@V?$allocator@VioHashString@@@std@@@std@@QBE?AV?$_Vector_const_iterator@V?$_Vector_val@VioHashString@@V?$allocator@VioHashString@@@std@@@std@@@2@XZ ; std::vector<ioHashString,std::allocator<ioHashString> >::begin
; Function compile flags: /Ogsp
; File c:\program files (x86)\microsoft visual studio 10.0\vc\include\vector
;	COMDAT ?begin@?$vector@VioHashString@@V?$allocator@VioHashString@@@std@@@std@@QBE?AV?$_Vector_const_iterator@V?$_Vector_val@VioHashString@@V?$allocator@VioHashString@@@std@@@std@@@2@XZ
_TEXT	SEGMENT
___$ReturnUdt$ = 8					; size = 4
?begin@?$vector@VioHashString@@V?$allocator@VioHashString@@@std@@@std@@QBE?AV?$_Vector_const_iterator@V?$_Vector_val@VioHashString@@V?$allocator@VioHashString@@@std@@@std@@@2@XZ PROC ; std::vector<ioHashString,std::allocator<ioHashString> >::begin, COMDAT
; _this$ = ecx

; 786  : 		{	// return iterator for beginning of nonmutable sequence

  00000	55		 push	 ebp
  00001	8b ec		 mov	 ebp, esp

; 787  : 		return (const_iterator(this->_Myfirst, this));

  00003	8b 09		 mov	 ecx, DWORD PTR [ecx]
  00005	8b 45 08	 mov	 eax, DWORD PTR ___$ReturnUdt$[ebp]
  00008	89 08		 mov	 DWORD PTR [eax], ecx

; 788  : 		}

  0000a	5d		 pop	 ebp
  0000b	c2 04 00	 ret	 4
?begin@?$vector@VioHashString@@V?$allocator@VioHashString@@@std@@@std@@QBE?AV?$_Vector_const_iterator@V?$_Vector_val@VioHashString@@V?$allocator@VioHashString@@@std@@@std@@@2@XZ ENDP ; std::vector<ioHashString,std::allocator<ioHashString> >::begin
_TEXT	ENDS
PUBLIC	?end@?$vector@VioHashString@@V?$allocator@VioHashString@@@std@@@std@@QBE?AV?$_Vector_const_iterator@V?$_Vector_val@VioHashString@@V?$allocator@VioHashString@@@std@@@std@@@2@XZ ; std::vector<ioHashString,std::allocator<ioHashString> >::end
; Function compile flags: /Ogsp
;	COMDAT ?end@?$vector@VioHashString@@V?$allocator@VioHashString@@@std@@@std@@QBE?AV?$_Vector_const_iterator@V?$_Vector_val@VioHashString@@V?$allocator@VioHashString@@@std@@@std@@@2@XZ
_TEXT	SEGMENT
___$ReturnUdt$ = 8					; size = 4
?end@?$vector@VioHashString@@V?$allocator@VioHashString@@@std@@@std@@QBE?AV?$_Vector_const_iterator@V?$_Vector_val@VioHashString@@V?$allocator@VioHashString@@@std@@@std@@@2@XZ PROC ; std::vector<ioHashString,std::allocator<ioHashString> >::end, COMDAT
; _this$ = ecx

; 796  : 		{	// return iterator for end of nonmutable sequence

  00000	55		 push	 ebp
  00001	8b ec		 mov	 ebp, esp

; 797  : 		return (const_iterator(this->_Mylast, this));

  00003	8b 49 04	 mov	 ecx, DWORD PTR [ecx+4]
  00006	8b 45 08	 mov	 eax, DWORD PTR ___$ReturnUdt$[ebp]
  00009	89 08		 mov	 DWORD PTR [eax], ecx

; 798  : 		}

  0000b	5d		 pop	 ebp
  0000c	c2 04 00	 ret	 4
?end@?$vector@VioHashString@@V?$allocator@VioHashString@@@std@@@std@@QBE?AV?$_Vector_const_iterator@V?$_Vector_val@VioHashString@@V?$allocator@VioHashString@@@std@@@std@@@2@XZ ENDP ; std::vector<ioHashString,std::allocator<ioHashString> >::end
_TEXT	ENDS
PUBLIC	??0?$_Vector_val@VioHashString@@V?$allocator@VioHashString@@@std@@@std@@QAE@V?$allocator@VioHashString@@@1@@Z ; std::_Vector_val<ioHashString,std::allocator<ioHashString> >::_Vector_val<ioHashString,std::allocator<ioHashString> >
; Function compile flags: /Ogsp
;	COMDAT ??0?$_Vector_val@VioHashString@@V?$allocator@VioHashString@@@std@@@std@@QAE@V?$allocator@VioHashString@@@1@@Z
_TEXT	SEGMENT
__Al$ = 8						; size = 1
??0?$_Vector_val@VioHashString@@V?$allocator@VioHashString@@@std@@@std@@QAE@V?$allocator@VioHashString@@@1@@Z PROC ; std::_Vector_val<ioHashString,std::allocator<ioHashString> >::_Vector_val<ioHashString,std::allocator<ioHashString> >, COMDAT
; _this$ = ecx

; 426  : 		{	// construct allocator from _Al

  00000	8b c1		 mov	 eax, ecx

; 427  : 		_Myfirst = 0;

  00002	33 c9		 xor	 ecx, ecx
  00004	89 08		 mov	 DWORD PTR [eax], ecx

; 428  : 		_Mylast = 0;

  00006	89 48 04	 mov	 DWORD PTR [eax+4], ecx

; 429  : 		_Myend = 0;

  00009	89 48 08	 mov	 DWORD PTR [eax+8], ecx

; 430  : 		}

  0000c	c2 04 00	 ret	 4
??0?$_Vector_val@VioHashString@@V?$allocator@VioHashString@@@std@@@std@@QAE@V?$allocator@VioHashString@@@1@@Z ENDP ; std::_Vector_val<ioHashString,std::allocator<ioHashString> >::_Vector_val<ioHashString,std::allocator<ioHashString> >
_TEXT	ENDS
PUBLIC	?max_size@?$vector@VioHashString@@V?$allocator@VioHashString@@@std@@@std@@QBEIXZ ; std::vector<ioHashString,std::allocator<ioHashString> >::max_size
; Function compile flags: /Ogsp
;	COMDAT ?max_size@?$vector@VioHashString@@V?$allocator@VioHashString@@@std@@@std@@QBEIXZ
_TEXT	SEGMENT
?max_size@?$vector@VioHashString@@V?$allocator@VioHashString@@@std@@@std@@QBEIXZ PROC ; std::vector<ioHashString,std::allocator<ioHashString> >::max_size, COMDAT
; _this$ = ecx

; 884  : 		return (this->_Alval.max_size());

  00000	b8 ff ff ff 0f	 mov	 eax, 268435455		; 0fffffffH

; 885  : 		}

  00005	c3		 ret	 0
?max_size@?$vector@VioHashString@@V?$allocator@VioHashString@@@std@@@std@@QBEIXZ ENDP ; std::vector<ioHashString,std::allocator<ioHashString> >::max_size
_TEXT	ENDS
PUBLIC	?allocate@?$allocator@VioHashString@@@std@@QAEPAVioHashString@@I@Z ; std::allocator<ioHashString>::allocate
; Function compile flags: /Ogsp
; File c:\program files (x86)\microsoft visual studio 10.0\vc\include\xmemory
;	COMDAT ?allocate@?$allocator@VioHashString@@@std@@QAEPAVioHashString@@I@Z
_TEXT	SEGMENT
__Count$ = 8						; size = 4
?allocate@?$allocator@VioHashString@@@std@@QAEPAVioHashString@@I@Z PROC ; std::allocator<ioHashString>::allocate, COMDAT
; _this$ = ecx

; 186  : 		{	// allocate array of _Count elements

  00000	55		 push	 ebp
  00001	8b ec		 mov	 ebp, esp

; 187  : 		return (_Allocate(_Count, (pointer)0));

  00003	6a 00		 push	 0
  00005	ff 75 08	 push	 DWORD PTR __Count$[ebp]
  00008	e8 00 00 00 00	 call	 ??$_Allocate@VioHashString@@@std@@YAPAVioHashString@@IPAV1@@Z ; std::_Allocate<ioHashString>
  0000d	59		 pop	 ecx
  0000e	59		 pop	 ecx

; 188  : 		}

  0000f	5d		 pop	 ebp
  00010	c2 04 00	 ret	 4
?allocate@?$allocator@VioHashString@@@std@@QAEPAVioHashString@@I@Z ENDP ; std::allocator<ioHashString>::allocate
_TEXT	ENDS
PUBLIC	??8?$_Vector_const_iterator@V?$_Vector_val@VioHashString@@V?$allocator@VioHashString@@@std@@@std@@@std@@QBE_NABV01@@Z ; std::_Vector_const_iterator<std::_Vector_val<ioHashString,std::allocator<ioHashString> > >::operator==
; Function compile flags: /Ogsp
; File c:\program files (x86)\microsoft visual studio 10.0\vc\include\vector
;	COMDAT ??8?$_Vector_const_iterator@V?$_Vector_val@VioHashString@@V?$allocator@VioHashString@@@std@@@std@@@std@@QBE_NABV01@@Z
_TEXT	SEGMENT
__Right$ = 8						; size = 4
??8?$_Vector_const_iterator@V?$_Vector_val@VioHashString@@V?$allocator@VioHashString@@@std@@@std@@@std@@QBE_NABV01@@Z PROC ; std::_Vector_const_iterator<std::_Vector_val<ioHashString,std::allocator<ioHashString> > >::operator==, COMDAT
; _this$ = ecx

; 201  : 		{	// test for iterator equality

  00000	55		 push	 ebp
  00001	8b ec		 mov	 ebp, esp

; 202  : 		_Compat(_Right);
; 203  : 		return (this->_Ptr == _Right._Ptr);

  00003	8b 01		 mov	 eax, DWORD PTR [ecx]
  00005	8b 4d 08	 mov	 ecx, DWORD PTR __Right$[ebp]
  00008	2b 01		 sub	 eax, DWORD PTR [ecx]
  0000a	f7 d8		 neg	 eax
  0000c	1b c0		 sbb	 eax, eax
  0000e	40		 inc	 eax

; 204  : 		}

  0000f	5d		 pop	 ebp
  00010	c2 04 00	 ret	 4
??8?$_Vector_const_iterator@V?$_Vector_val@VioHashString@@V?$allocator@VioHashString@@@std@@@std@@@std@@QBE_NABV01@@Z ENDP ; std::_Vector_const_iterator<std::_Vector_val<ioHashString,std::allocator<ioHashString> > >::operator==
_TEXT	ENDS
PUBLIC	??$_Destroy@VioHashString@@@std@@YAXPAVioHashString@@@Z ; std::_Destroy<ioHashString>
; Function compile flags: /Ogsp
; File c:\program files (x86)\microsoft visual studio 10.0\vc\include\xmemory
;	COMDAT ??$_Destroy@VioHashString@@@std@@YAXPAVioHashString@@@Z
_TEXT	SEGMENT
__Ptr$ = 8						; size = 4
??$_Destroy@VioHashString@@@std@@YAXPAVioHashString@@@Z PROC ; std::_Destroy<ioHashString>, COMDAT

; 62   : 	{	// destroy object at _Ptr

  00000	55		 push	 ebp
  00001	8b ec		 mov	 ebp, esp

; 63   : 	_Ptr->~_Ty();

  00003	8b 4d 08	 mov	 ecx, DWORD PTR __Ptr$[ebp]

; 64   : 	}

  00006	5d		 pop	 ebp

; 63   : 	_Ptr->~_Ty();

  00007	ff 25 00 00 00
	00		 jmp	 DWORD PTR __imp_??1ioHashString@@QAE@XZ
??$_Destroy@VioHashString@@@std@@YAXPAVioHashString@@@Z ENDP ; std::_Destroy<ioHashString>
_TEXT	ENDS
PUBLIC	?construct@?$allocator@VioHashString@@@std@@QAEXPAVioHashString@@ABV3@@Z ; std::allocator<ioHashString>::construct
; Function compile flags: /Ogsp
;	COMDAT ?construct@?$allocator@VioHashString@@@std@@QAEXPAVioHashString@@ABV3@@Z
_TEXT	SEGMENT
__Ptr$ = 8						; size = 4
__Val$ = 12						; size = 4
?construct@?$allocator@VioHashString@@@std@@QAEXPAVioHashString@@ABV3@@Z PROC ; std::allocator<ioHashString>::construct, COMDAT
; _this$ = ecx

; 196  : 		{	// construct object at _Ptr with value _Val

  00000	55		 push	 ebp
  00001	8b ec		 mov	 ebp, esp

; 197  : 		_Construct(_Ptr, _Val);

  00003	ff 75 0c	 push	 DWORD PTR __Val$[ebp]
  00006	ff 75 08	 push	 DWORD PTR __Ptr$[ebp]
  00009	e8 00 00 00 00	 call	 ??$_Construct@VioHashString@@ABV1@@std@@YAXPAVioHashString@@ABV1@@Z ; std::_Construct<ioHashString,ioHashString const &>
  0000e	59		 pop	 ecx
  0000f	59		 pop	 ecx

; 198  : 		}

  00010	5d		 pop	 ebp
  00011	c2 08 00	 ret	 8
?construct@?$allocator@VioHashString@@@std@@QAEXPAVioHashString@@ABV3@@Z ENDP ; std::allocator<ioHashString>::construct
_TEXT	ENDS
PUBLIC	_pImage$GSCopy$
PUBLIC	_szType$GSCopy$
PUBLIC	__$ArrayPad$
PUBLIC	?AddRenderImage@RouletteWnd@@UAEXABVioHashString@@PAVioUIRenderImage@@@Z ; RouletteWnd::AddRenderImage
EXTRN	__imp_?AddRenderImage@ioWnd@@UAEXABVioHashString@@PAVioUIRenderImage@@@Z:PROC
; Function compile flags: /Ogsp
; File d:\lost saga for developer\youtube\tutorial\source\src\lsclient\gui\roulettewnd.cpp
;	COMDAT ?AddRenderImage@RouletteWnd@@UAEXABVioHashString@@PAVioUIRenderImage@@@Z
_TEXT	SEGMENT
_pImage$GSCopy$ = -416					; size = 4
_szType$GSCopy$ = -412					; size = 4
__t$510837 = -408					; size = 9
__t$511225 = -392					; size = 13
__t$510962 = -372					; size = 13
__t$511100 = -352					; size = 13
__t$512350 = -332					; size = 13
__t$512100 = -312					; size = 13
__t$512587 = -292					; size = 6
__t$511837 = -280					; size = 17
__t$512212 = -256					; size = 17
__t$511712 = -232					; size = 17
__t$510212 = -208					; size = 17
__t$510587 = -184					; size = 17
__t$510337 = -160					; size = 17
__t$511962 = -136					; size = 17
__t$511350 = -112					; size = 14
__t$510462 = -92					; size = 11
__t$512553 = -76					; size = 12
__t$510712 = -60					; size = 10
__t$511600 = -44					; size = 14
__t$511475 = -24					; size = 14
__$ArrayPad$ = -4					; size = 4
_szType$ = 8						; size = 4
_pImage$ = 12						; size = 4
?AddRenderImage@RouletteWnd@@UAEXABVioHashString@@PAVioUIRenderImage@@@Z PROC ; RouletteWnd::AddRenderImage, COMDAT
; _this$ = ecx

; 96   : {

  00000	55		 push	 ebp
  00001	8b ec		 mov	 ebp, esp
  00003	81 ec a0 01 00
	00		 sub	 esp, 416		; 000001a0H
  00009	a1 00 00 00 00	 mov	 eax, DWORD PTR ___security_cookie
  0000e	33 c5		 xor	 eax, ebp
  00010	89 45 fc	 mov	 DWORD PTR __$ArrayPad$[ebp], eax
  00013	8b 45 08	 mov	 eax, DWORD PTR _szType$[ebp]
  00016	53		 push	 ebx
  00017	56		 push	 esi
  00018	57		 push	 edi

; 198  : 		ioWnd::AddRenderImage( szType, pImage );

  00019	89 85 64 fe ff
	ff		 mov	 DWORD PTR _szType$GSCopy$[ebp], eax
  0001f	8b 45 0c	 mov	 eax, DWORD PTR _pImage$[ebp]
  00022	33 db		 xor	 ebx, ebx
  00024	6a 04		 push	 4
  00026	8b f9		 mov	 edi, ecx
  00028	89 85 60 fe ff
	ff		 mov	 DWORD PTR _pImage$GSCopy$[ebp], eax
  0002e	c7 85 30 ff ff
	ff 9f 83 9e 86	 mov	 DWORD PTR __t$510212[ebp], -2036431969 ; 869e839fH
  00038	c7 85 34 ff ff
	ff 88 98 9f 8f	 mov	 DWORD PTR __t$510212[ebp+4], -1885366136 ; 8f9f9888H
  00042	c7 85 38 ff ff
	ff b2 84 8e 86	 mov	 DWORD PTR __t$510212[ebp+8], -2037480270 ; 868e84b2H
  0004c	c7 85 3c ff ff
	ff 9d b3 89 8d	 mov	 DWORD PTR __t$510212[ebp+12], -1920355427 ; 8d89b39dH
  00056	8d 85 30 ff ff
	ff		 lea	 eax, DWORD PTR __t$510212[ebp]
  0005c	88 9d 40 ff ff
	ff		 mov	 BYTE PTR __t$510212[ebp+16], bl
  00062	59		 pop	 ecx
$LL206@AddRenderI:

; 97   : 	if( szType == "roulette_help_bg" )

  00063	81 30 ed ec eb
	ea		 xor	 DWORD PTR [eax], -353637139 ; eaebecedH
  00069	83 c0 04	 add	 eax, 4
  0006c	49		 dec	 ecx
  0006d	75 f4		 jne	 SHORT $LL206@AddRenderI
  0006f	8b 8d 64 fe ff
	ff		 mov	 ecx, DWORD PTR _szType$GSCopy$[ebp]
  00075	8d b5 30 ff ff
	ff		 lea	 esi, DWORD PTR __t$510212[ebp]
  0007b	ff 15 00 00 00
	00		 call	 DWORD PTR __imp_?c_str@ioHashString@@QBEPBDXZ
$LL2322@AddRenderI:
  00081	8a 08		 mov	 cl, BYTE PTR [eax]
  00083	3a 0e		 cmp	 cl, BYTE PTR [esi]
  00085	75 1a		 jne	 SHORT $LN2323@AddRenderI
  00087	3a cb		 cmp	 cl, bl
  00089	74 12		 je	 SHORT $LN2324@AddRenderI
  0008b	8a 48 01	 mov	 cl, BYTE PTR [eax+1]
  0008e	3a 4e 01	 cmp	 cl, BYTE PTR [esi+1]
  00091	75 0e		 jne	 SHORT $LN2323@AddRenderI
  00093	83 c0 02	 add	 eax, 2
  00096	83 c6 02	 add	 esi, 2
  00099	3a cb		 cmp	 cl, bl
  0009b	75 e4		 jne	 SHORT $LL2322@AddRenderI
$LN2324@AddRenderI:
  0009d	33 c0		 xor	 eax, eax
  0009f	eb 05		 jmp	 SHORT $LN2325@AddRenderI
$LN2323@AddRenderI:
  000a1	1b c0		 sbb	 eax, eax
  000a3	83 d8 ff	 sbb	 eax, -1
$LN2325@AddRenderI:
  000a6	3b c3		 cmp	 eax, ebx
  000a8	75 30		 jne	 SHORT $LN2303@AddRenderI

; 98   : 	{
; 99   : 		SAFEDELETE( m_pRouletteHelpBg );

  000aa	39 9f a4 01 00
	00		 cmp	 DWORD PTR [edi+420], ebx
  000b0	74 17		 je	 SHORT $LN59@AddRenderI
  000b2	8b 8f a4 01 00
	00		 mov	 ecx, DWORD PTR [edi+420]
  000b8	3b cb		 cmp	 ecx, ebx
  000ba	74 07		 je	 SHORT $LN63@AddRenderI
  000bc	8b 01		 mov	 eax, DWORD PTR [ecx]
  000be	6a 01		 push	 1
  000c0	ff 50 40	 call	 DWORD PTR [eax+64]
$LN63@AddRenderI:
  000c3	89 9f a4 01 00
	00		 mov	 DWORD PTR [edi+420], ebx
$LN59@AddRenderI:

; 100  : 		m_pRouletteHelpBg = pImage;

  000c9	8b 85 60 fe ff
	ff		 mov	 eax, DWORD PTR _pImage$GSCopy$[ebp]
  000cf	89 87 a4 01 00
	00		 mov	 DWORD PTR [edi+420], eax
  000d5	e9 2d 0c 00 00	 jmp	 $LN1@AddRenderI
$LN2303@AddRenderI:

; 101  : 	}
; 102  : 	else if( szType == "roulette_text_bg" )

  000da	6a 04		 push	 4
  000dc	c7 85 60 ff ff
	ff 9f 83 9e 86	 mov	 DWORD PTR __t$510337[ebp], -2036431969 ; 869e839fH
  000e6	c7 85 64 ff ff
	ff 88 98 9f 8f	 mov	 DWORD PTR __t$510337[ebp+4], -1885366136 ; 8f9f9888H
  000f0	c7 85 68 ff ff
	ff b2 98 8e 92	 mov	 DWORD PTR __t$510337[ebp+8], -1836148558 ; 928e98b2H
  000fa	c7 85 6c ff ff
	ff 99 b3 89 8d	 mov	 DWORD PTR __t$510337[ebp+12], -1920355431 ; 8d89b399H
  00104	8d 85 60 ff ff
	ff		 lea	 eax, DWORD PTR __t$510337[ebp]
  0010a	88 9d 70 ff ff
	ff		 mov	 BYTE PTR __t$510337[ebp+16], bl
  00110	59		 pop	 ecx
$LL312@AddRenderI:
  00111	81 30 ed ec eb
	ea		 xor	 DWORD PTR [eax], -353637139 ; eaebecedH
  00117	83 c0 04	 add	 eax, 4
  0011a	49		 dec	 ecx
  0011b	75 f4		 jne	 SHORT $LL312@AddRenderI
  0011d	8b 8d 64 fe ff
	ff		 mov	 ecx, DWORD PTR _szType$GSCopy$[ebp]
  00123	8d b5 60 ff ff
	ff		 lea	 esi, DWORD PTR __t$510337[ebp]
  00129	ff 15 00 00 00
	00		 call	 DWORD PTR __imp_?c_str@ioHashString@@QBEPBDXZ
$LL2326@AddRenderI:
  0012f	8a 08		 mov	 cl, BYTE PTR [eax]
  00131	3a 0e		 cmp	 cl, BYTE PTR [esi]
  00133	75 1a		 jne	 SHORT $LN2327@AddRenderI
  00135	3a cb		 cmp	 cl, bl
  00137	74 12		 je	 SHORT $LN2402@AddRenderI
  00139	8a 48 01	 mov	 cl, BYTE PTR [eax+1]
  0013c	3a 4e 01	 cmp	 cl, BYTE PTR [esi+1]
  0013f	75 0e		 jne	 SHORT $LN2327@AddRenderI
  00141	83 c0 02	 add	 eax, 2
  00144	83 c6 02	 add	 esi, 2
  00147	3a cb		 cmp	 cl, bl
  00149	75 e4		 jne	 SHORT $LL2326@AddRenderI
$LN2402@AddRenderI:
  0014b	33 c0		 xor	 eax, eax
  0014d	eb 05		 jmp	 SHORT $LN2329@AddRenderI
$LN2327@AddRenderI:
  0014f	1b c0		 sbb	 eax, eax
  00151	83 d8 ff	 sbb	 eax, -1
$LN2329@AddRenderI:
  00154	3b c3		 cmp	 eax, ebx
  00156	75 30		 jne	 SHORT $LN2304@AddRenderI

; 103  : 	{
; 104  : 		SAFEDELETE( m_pTextBg );

  00158	39 9f a8 01 00
	00		 cmp	 DWORD PTR [edi+424], ebx
  0015e	74 17		 je	 SHORT $LN56@AddRenderI
  00160	8b 8f a8 01 00
	00		 mov	 ecx, DWORD PTR [edi+424]
  00166	3b cb		 cmp	 ecx, ebx
  00168	74 07		 je	 SHORT $LN65@AddRenderI
  0016a	8b 01		 mov	 eax, DWORD PTR [ecx]
  0016c	6a 01		 push	 1
  0016e	ff 50 40	 call	 DWORD PTR [eax+64]
$LN65@AddRenderI:
  00171	89 9f a8 01 00
	00		 mov	 DWORD PTR [edi+424], ebx
$LN56@AddRenderI:

; 105  : 		m_pTextBg = pImage;

  00177	8b 85 60 fe ff
	ff		 mov	 eax, DWORD PTR _pImage$GSCopy$[ebp]
  0017d	89 87 a8 01 00
	00		 mov	 DWORD PTR [edi+424], eax
  00183	e9 7f 0b 00 00	 jmp	 $LN1@AddRenderI
$LN2304@AddRenderI:

; 106  : 	}
; 107  : 	else if( szType == "text_title" )

  00188	6a 02		 push	 2
  0018a	c7 45 a4 99 89
	93 9e		 mov	 DWORD PTR __t$510462[ebp], -1634498151 ; 9e938999H
  00191	c7 45 a8 b2 98
	82 9e		 mov	 DWORD PTR __t$510462[ebp+4], -1635608398 ; 9e8298b2H
  00198	66 c7 45 ac 81
	89		 mov	 WORD PTR __t$510462[ebp+8], 35201 ; 00008981H
  0019e	8d 45 a4	 lea	 eax, DWORD PTR __t$510462[ebp]
  001a1	88 5d ae	 mov	 BYTE PTR __t$510462[ebp+10], bl
  001a4	59		 pop	 ecx
$LL418@AddRenderI:
  001a5	81 30 ed ec eb
	ea		 xor	 DWORD PTR [eax], -353637139 ; eaebecedH
  001ab	83 c0 04	 add	 eax, 4
  001ae	49		 dec	 ecx
  001af	75 f4		 jne	 SHORT $LL418@AddRenderI
  001b1	6a 08		 push	 8
  001b3	5e		 pop	 esi
$LL415@AddRenderI:
  001b4	8b c6		 mov	 eax, esi
  001b6	25 03 00 00 80	 and	 eax, -2147483645	; 80000003H
  001bb	79 05		 jns	 SHORT $LN2406@AddRenderI
  001bd	48		 dec	 eax
  001be	83 c8 fc	 or	 eax, -4			; fffffffcH
  001c1	40		 inc	 eax
$LN2406@AddRenderI:
  001c2	b1 ed		 mov	 cl, -19			; ffffffedH
  001c4	2a c8		 sub	 cl, al
  001c6	30 4c 35 a4	 xor	 BYTE PTR __t$510462[ebp+esi], cl
  001ca	46		 inc	 esi
  001cb	83 fe 0a	 cmp	 esi, 10			; 0000000aH
  001ce	7c e4		 jl	 SHORT $LL415@AddRenderI
  001d0	8b 8d 64 fe ff
	ff		 mov	 ecx, DWORD PTR _szType$GSCopy$[ebp]
  001d6	8d 75 a4	 lea	 esi, DWORD PTR __t$510462[ebp]
  001d9	ff 15 00 00 00
	00		 call	 DWORD PTR __imp_?c_str@ioHashString@@QBEPBDXZ
$LL2330@AddRenderI:
  001df	8a 08		 mov	 cl, BYTE PTR [eax]
  001e1	3a 0e		 cmp	 cl, BYTE PTR [esi]
  001e3	75 1a		 jne	 SHORT $LN2331@AddRenderI
  001e5	3a cb		 cmp	 cl, bl
  001e7	74 12		 je	 SHORT $LN2332@AddRenderI
  001e9	8a 48 01	 mov	 cl, BYTE PTR [eax+1]
  001ec	3a 4e 01	 cmp	 cl, BYTE PTR [esi+1]
  001ef	75 0e		 jne	 SHORT $LN2331@AddRenderI
  001f1	83 c0 02	 add	 eax, 2
  001f4	83 c6 02	 add	 esi, 2
  001f7	3a cb		 cmp	 cl, bl
  001f9	75 e4		 jne	 SHORT $LL2330@AddRenderI
$LN2332@AddRenderI:
  001fb	33 c0		 xor	 eax, eax
  001fd	eb 05		 jmp	 SHORT $LN2333@AddRenderI
$LN2331@AddRenderI:
  001ff	1b c0		 sbb	 eax, eax
  00201	83 d8 ff	 sbb	 eax, -1
$LN2333@AddRenderI:
  00204	3b c3		 cmp	 eax, ebx
  00206	75 30		 jne	 SHORT $LN2305@AddRenderI

; 108  : 	{
; 109  : 		SAFEDELETE( m_pTextTitle );

  00208	39 9f b0 01 00
	00		 cmp	 DWORD PTR [edi+432], ebx
  0020e	74 17		 je	 SHORT $LN53@AddRenderI
  00210	8b 8f b0 01 00
	00		 mov	 ecx, DWORD PTR [edi+432]
  00216	3b cb		 cmp	 ecx, ebx
  00218	74 07		 je	 SHORT $LN67@AddRenderI
  0021a	8b 01		 mov	 eax, DWORD PTR [ecx]
  0021c	6a 01		 push	 1
  0021e	ff 50 40	 call	 DWORD PTR [eax+64]
$LN67@AddRenderI:
  00221	89 9f b0 01 00
	00		 mov	 DWORD PTR [edi+432], ebx
$LN53@AddRenderI:

; 110  : 		m_pTextTitle = pImage;

  00227	8b 85 60 fe ff
	ff		 mov	 eax, DWORD PTR _pImage$GSCopy$[ebp]
  0022d	89 87 b0 01 00
	00		 mov	 DWORD PTR [edi+432], eax
  00233	e9 cf 0a 00 00	 jmp	 $LN1@AddRenderI
$LN2305@AddRenderI:

; 111  : 	}
; 112  : 	else if( szType == "text_enable_join" )

  00238	6a 04		 push	 4
  0023a	c7 85 48 ff ff
	ff 99 89 93 9e	 mov	 DWORD PTR __t$510587[ebp], -1634498151 ; 9e938999H
  00244	c7 85 4c ff ff
	ff b2 89 85 8b	 mov	 DWORD PTR __t$510587[ebp+4], -1954182734 ; 8b8589b2H
  0024e	c7 85 50 ff ff
	ff 8f 80 8e b5	 mov	 DWORD PTR __t$510587[ebp+8], -1248952177 ; b58e808fH
  00258	c7 85 54 ff ff
	ff 87 83 82 84	 mov	 DWORD PTR __t$510587[ebp+12], -2071821433 ; 84828387H
  00262	8d 85 48 ff ff
	ff		 lea	 eax, DWORD PTR __t$510587[ebp]
  00268	88 9d 58 ff ff
	ff		 mov	 BYTE PTR __t$510587[ebp+16], bl
  0026e	59		 pop	 ecx
$LL524@AddRenderI:
  0026f	81 30 ed ec eb
	ea		 xor	 DWORD PTR [eax], -353637139 ; eaebecedH
  00275	83 c0 04	 add	 eax, 4
  00278	49		 dec	 ecx
  00279	75 f4		 jne	 SHORT $LL524@AddRenderI
  0027b	8b 8d 64 fe ff
	ff		 mov	 ecx, DWORD PTR _szType$GSCopy$[ebp]
  00281	8d b5 48 ff ff
	ff		 lea	 esi, DWORD PTR __t$510587[ebp]
  00287	ff 15 00 00 00
	00		 call	 DWORD PTR __imp_?c_str@ioHashString@@QBEPBDXZ
$LL2334@AddRenderI:
  0028d	8a 08		 mov	 cl, BYTE PTR [eax]
  0028f	3a 0e		 cmp	 cl, BYTE PTR [esi]
  00291	75 1a		 jne	 SHORT $LN2335@AddRenderI
  00293	3a cb		 cmp	 cl, bl
  00295	74 12		 je	 SHORT $LN2403@AddRenderI
  00297	8a 48 01	 mov	 cl, BYTE PTR [eax+1]
  0029a	3a 4e 01	 cmp	 cl, BYTE PTR [esi+1]
  0029d	75 0e		 jne	 SHORT $LN2335@AddRenderI
  0029f	83 c0 02	 add	 eax, 2
  002a2	83 c6 02	 add	 esi, 2
  002a5	3a cb		 cmp	 cl, bl
  002a7	75 e4		 jne	 SHORT $LL2334@AddRenderI
$LN2403@AddRenderI:
  002a9	33 c0		 xor	 eax, eax
  002ab	eb 05		 jmp	 SHORT $LN2337@AddRenderI
$LN2335@AddRenderI:
  002ad	1b c0		 sbb	 eax, eax
  002af	83 d8 ff	 sbb	 eax, -1
$LN2337@AddRenderI:
  002b2	3b c3		 cmp	 eax, ebx
  002b4	75 30		 jne	 SHORT $LN2306@AddRenderI

; 113  : 	{
; 114  : 		SAFEDELETE( m_pTextEnableJoin );

  002b6	39 9f b4 01 00
	00		 cmp	 DWORD PTR [edi+436], ebx
  002bc	74 17		 je	 SHORT $LN50@AddRenderI
  002be	8b 8f b4 01 00
	00		 mov	 ecx, DWORD PTR [edi+436]
  002c4	3b cb		 cmp	 ecx, ebx
  002c6	74 07		 je	 SHORT $LN69@AddRenderI
  002c8	8b 01		 mov	 eax, DWORD PTR [ecx]
  002ca	6a 01		 push	 1
  002cc	ff 50 40	 call	 DWORD PTR [eax+64]
$LN69@AddRenderI:
  002cf	89 9f b4 01 00
	00		 mov	 DWORD PTR [edi+436], ebx
$LN50@AddRenderI:

; 115  : 		m_pTextEnableJoin = pImage;

  002d5	8b 85 60 fe ff
	ff		 mov	 eax, DWORD PTR _pImage$GSCopy$[ebp]
  002db	89 87 b4 01 00
	00		 mov	 DWORD PTR [edi+436], eax
  002e1	e9 21 0a 00 00	 jmp	 $LN1@AddRenderI
$LN2306@AddRenderI:

; 116  : 	}
; 117  : 	else if( szType == "text_join" )

  002e6	6a 02		 push	 2
  002e8	c7 45 c4 99 89
	93 9e		 mov	 DWORD PTR __t$510712[ebp], -1634498151 ; 9e938999H
  002ef	c7 45 c8 b2 86
	84 83		 mov	 DWORD PTR __t$510712[ebp+4], -2088466766 ; 838486b2H
  002f6	8d 45 c4	 lea	 eax, DWORD PTR __t$510712[ebp]
  002f9	66 c7 45 cc 83
	00		 mov	 WORD PTR __t$510712[ebp+8], 131 ; 00000083H
  002ff	59		 pop	 ecx
$LL630@AddRenderI:
  00300	81 30 ed ec eb
	ea		 xor	 DWORD PTR [eax], -353637139 ; eaebecedH
  00306	83 c0 04	 add	 eax, 4
  00309	49		 dec	 ecx
  0030a	75 f4		 jne	 SHORT $LL630@AddRenderI
  0030c	8b 8d 64 fe ff
	ff		 mov	 ecx, DWORD PTR _szType$GSCopy$[ebp]
  00312	80 75 cc ed	 xor	 BYTE PTR __t$510712[ebp+8], -19 ; ffffffedH
  00316	8d 75 c4	 lea	 esi, DWORD PTR __t$510712[ebp]
  00319	ff 15 00 00 00
	00		 call	 DWORD PTR __imp_?c_str@ioHashString@@QBEPBDXZ
$LL2338@AddRenderI:
  0031f	8a 08		 mov	 cl, BYTE PTR [eax]
  00321	3a 0e		 cmp	 cl, BYTE PTR [esi]
  00323	75 1a		 jne	 SHORT $LN2339@AddRenderI
  00325	3a cb		 cmp	 cl, bl
  00327	74 12		 je	 SHORT $LN2404@AddRenderI
  00329	8a 48 01	 mov	 cl, BYTE PTR [eax+1]
  0032c	3a 4e 01	 cmp	 cl, BYTE PTR [esi+1]
  0032f	75 0e		 jne	 SHORT $LN2339@AddRenderI
  00331	83 c0 02	 add	 eax, 2
  00334	83 c6 02	 add	 esi, 2
  00337	3a cb		 cmp	 cl, bl
  00339	75 e4		 jne	 SHORT $LL2338@AddRenderI
$LN2404@AddRenderI:
  0033b	33 c0		 xor	 eax, eax
  0033d	eb 05		 jmp	 SHORT $LN2341@AddRenderI
$LN2339@AddRenderI:
  0033f	1b c0		 sbb	 eax, eax
  00341	83 d8 ff	 sbb	 eax, -1
$LN2341@AddRenderI:
  00344	3b c3		 cmp	 eax, ebx
  00346	75 30		 jne	 SHORT $LN2307@AddRenderI

; 118  : 	{
; 119  : 		SAFEDELETE( m_pTextJoin );

  00348	39 9f b8 01 00
	00		 cmp	 DWORD PTR [edi+440], ebx
  0034e	74 17		 je	 SHORT $LN47@AddRenderI
  00350	8b 8f b8 01 00
	00		 mov	 ecx, DWORD PTR [edi+440]
  00356	3b cb		 cmp	 ecx, ebx
  00358	74 07		 je	 SHORT $LN71@AddRenderI
  0035a	8b 01		 mov	 eax, DWORD PTR [ecx]
  0035c	6a 01		 push	 1
  0035e	ff 50 40	 call	 DWORD PTR [eax+64]
$LN71@AddRenderI:
  00361	89 9f b8 01 00
	00		 mov	 DWORD PTR [edi+440], ebx
$LN47@AddRenderI:

; 120  : 		m_pTextJoin = pImage;

  00367	8b 85 60 fe ff
	ff		 mov	 eax, DWORD PTR _pImage$GSCopy$[ebp]
  0036d	89 87 b8 01 00
	00		 mov	 DWORD PTR [edi+440], eax
  00373	e9 8f 09 00 00	 jmp	 $LN1@AddRenderI
$LN2307@AddRenderI:

; 121  : 	}
; 122  : 	else if( szType == "text_end" )

  00378	6a 02		 push	 2
  0037a	c7 85 68 fe ff
	ff 99 89 93 9e	 mov	 DWORD PTR __t$510837[ebp], -1634498151 ; 9e938999H
  00384	c7 85 6c fe ff
	ff b2 89 85 8e	 mov	 DWORD PTR __t$510837[ebp+4], -1903851086 ; 8e8589b2H
  0038e	8d 85 68 fe ff
	ff		 lea	 eax, DWORD PTR __t$510837[ebp]
  00394	88 9d 70 fe ff
	ff		 mov	 BYTE PTR __t$510837[ebp+8], bl
  0039a	59		 pop	 ecx
$LL736@AddRenderI:
  0039b	81 30 ed ec eb
	ea		 xor	 DWORD PTR [eax], -353637139 ; eaebecedH
  003a1	83 c0 04	 add	 eax, 4
  003a4	49		 dec	 ecx
  003a5	75 f4		 jne	 SHORT $LL736@AddRenderI
  003a7	8b 8d 64 fe ff
	ff		 mov	 ecx, DWORD PTR _szType$GSCopy$[ebp]
  003ad	8d b5 68 fe ff
	ff		 lea	 esi, DWORD PTR __t$510837[ebp]
  003b3	ff 15 00 00 00
	00		 call	 DWORD PTR __imp_?c_str@ioHashString@@QBEPBDXZ
$LL2342@AddRenderI:
  003b9	8a 08		 mov	 cl, BYTE PTR [eax]
  003bb	3a 0e		 cmp	 cl, BYTE PTR [esi]
  003bd	75 1a		 jne	 SHORT $LN2343@AddRenderI
  003bf	3a cb		 cmp	 cl, bl
  003c1	74 12		 je	 SHORT $LN2344@AddRenderI
  003c3	8a 48 01	 mov	 cl, BYTE PTR [eax+1]
  003c6	3a 4e 01	 cmp	 cl, BYTE PTR [esi+1]
  003c9	75 0e		 jne	 SHORT $LN2343@AddRenderI
  003cb	83 c0 02	 add	 eax, 2
  003ce	83 c6 02	 add	 esi, 2
  003d1	3a cb		 cmp	 cl, bl
  003d3	75 e4		 jne	 SHORT $LL2342@AddRenderI
$LN2344@AddRenderI:
  003d5	33 c0		 xor	 eax, eax
  003d7	eb 05		 jmp	 SHORT $LN2345@AddRenderI
$LN2343@AddRenderI:
  003d9	1b c0		 sbb	 eax, eax
  003db	83 d8 ff	 sbb	 eax, -1
$LN2345@AddRenderI:
  003de	3b c3		 cmp	 eax, ebx
  003e0	75 30		 jne	 SHORT $LN2308@AddRenderI

; 123  : 	{
; 124  : 		SAFEDELETE( m_pTextEnd );

  003e2	39 9f bc 01 00
	00		 cmp	 DWORD PTR [edi+444], ebx
  003e8	74 17		 je	 SHORT $LN44@AddRenderI
  003ea	8b 8f bc 01 00
	00		 mov	 ecx, DWORD PTR [edi+444]
  003f0	3b cb		 cmp	 ecx, ebx
  003f2	74 07		 je	 SHORT $LN73@AddRenderI
  003f4	8b 01		 mov	 eax, DWORD PTR [ecx]
  003f6	6a 01		 push	 1
  003f8	ff 50 40	 call	 DWORD PTR [eax+64]
$LN73@AddRenderI:
  003fb	89 9f bc 01 00
	00		 mov	 DWORD PTR [edi+444], ebx
$LN44@AddRenderI:

; 125  : 		m_pTextEnd = pImage;

  00401	8b 85 60 fe ff
	ff		 mov	 eax, DWORD PTR _pImage$GSCopy$[ebp]
  00407	89 87 bc 01 00
	00		 mov	 DWORD PTR [edi+444], eax
  0040d	e9 f5 08 00 00	 jmp	 $LN1@AddRenderI
$LN2308@AddRenderI:

; 126  : 	}
; 127  : 	else if( szType == "text_end_sec" )

  00412	6a 03		 push	 3
  00414	c7 85 8c fe ff
	ff 99 89 93 9e	 mov	 DWORD PTR __t$510962[ebp], -1634498151 ; 9e938999H
  0041e	c7 85 90 fe ff
	ff b2 89 85 8e	 mov	 DWORD PTR __t$510962[ebp+4], -1903851086 ; 8e8589b2H
  00428	c7 85 94 fe ff
	ff b2 9f 8e 89	 mov	 DWORD PTR __t$510962[ebp+8], -1987141710 ; 898e9fb2H
  00432	8d 85 8c fe ff
	ff		 lea	 eax, DWORD PTR __t$510962[ebp]
  00438	88 9d 98 fe ff
	ff		 mov	 BYTE PTR __t$510962[ebp+12], bl
  0043e	59		 pop	 ecx
$LL842@AddRenderI:
  0043f	81 30 ed ec eb
	ea		 xor	 DWORD PTR [eax], -353637139 ; eaebecedH
  00445	83 c0 04	 add	 eax, 4
  00448	49		 dec	 ecx
  00449	75 f4		 jne	 SHORT $LL842@AddRenderI
  0044b	8b 8d 64 fe ff
	ff		 mov	 ecx, DWORD PTR _szType$GSCopy$[ebp]
  00451	8d b5 8c fe ff
	ff		 lea	 esi, DWORD PTR __t$510962[ebp]
  00457	ff 15 00 00 00
	00		 call	 DWORD PTR __imp_?c_str@ioHashString@@QBEPBDXZ
$LL2346@AddRenderI:
  0045d	8a 08		 mov	 cl, BYTE PTR [eax]
  0045f	3a 0e		 cmp	 cl, BYTE PTR [esi]
  00461	75 1a		 jne	 SHORT $LN2347@AddRenderI
  00463	3a cb		 cmp	 cl, bl
  00465	74 12		 je	 SHORT $LN2348@AddRenderI
  00467	8a 48 01	 mov	 cl, BYTE PTR [eax+1]
  0046a	3a 4e 01	 cmp	 cl, BYTE PTR [esi+1]
  0046d	75 0e		 jne	 SHORT $LN2347@AddRenderI
  0046f	83 c0 02	 add	 eax, 2
  00472	83 c6 02	 add	 esi, 2
  00475	3a cb		 cmp	 cl, bl
  00477	75 e4		 jne	 SHORT $LL2346@AddRenderI
$LN2348@AddRenderI:
  00479	33 c0		 xor	 eax, eax
  0047b	eb 05		 jmp	 SHORT $LN2349@AddRenderI
$LN2347@AddRenderI:
  0047d	1b c0		 sbb	 eax, eax
  0047f	83 d8 ff	 sbb	 eax, -1
$LN2349@AddRenderI:
  00482	3b c3		 cmp	 eax, ebx
  00484	75 30		 jne	 SHORT $LN2309@AddRenderI

; 128  : 	{
; 129  : 		SAFEDELETE( m_pTextEndSec );

  00486	39 9f c0 01 00
	00		 cmp	 DWORD PTR [edi+448], ebx
  0048c	74 17		 je	 SHORT $LN41@AddRenderI
  0048e	8b 8f c0 01 00
	00		 mov	 ecx, DWORD PTR [edi+448]
  00494	3b cb		 cmp	 ecx, ebx
  00496	74 07		 je	 SHORT $LN75@AddRenderI
  00498	8b 01		 mov	 eax, DWORD PTR [ecx]
  0049a	6a 01		 push	 1
  0049c	ff 50 40	 call	 DWORD PTR [eax+64]
$LN75@AddRenderI:
  0049f	89 9f c0 01 00
	00		 mov	 DWORD PTR [edi+448], ebx
$LN41@AddRenderI:

; 130  : 		m_pTextEndSec = pImage;

  004a5	8b 85 60 fe ff
	ff		 mov	 eax, DWORD PTR _pImage$GSCopy$[ebp]
  004ab	89 87 c0 01 00
	00		 mov	 DWORD PTR [edi+448], eax
  004b1	e9 51 08 00 00	 jmp	 $LN1@AddRenderI
$LN2309@AddRenderI:

; 131  : 	}
; 132  : 	else if( szType == "text_end_num" )

  004b6	6a 03		 push	 3
  004b8	c7 85 a0 fe ff
	ff 99 89 93 9e	 mov	 DWORD PTR __t$511100[ebp], -1634498151 ; 9e938999H
  004c2	c7 85 a4 fe ff
	ff b2 89 85 8e	 mov	 DWORD PTR __t$511100[ebp+4], -1903851086 ; 8e8589b2H
  004cc	c7 85 a8 fe ff
	ff b2 82 9e 87	 mov	 DWORD PTR __t$511100[ebp+8], -2019654990 ; 879e82b2H
  004d6	8d 85 a0 fe ff
	ff		 lea	 eax, DWORD PTR __t$511100[ebp]
  004dc	88 9d ac fe ff
	ff		 mov	 BYTE PTR __t$511100[ebp+12], bl
  004e2	59		 pop	 ecx
$LL948@AddRenderI:
  004e3	81 30 ed ec eb
	ea		 xor	 DWORD PTR [eax], -353637139 ; eaebecedH
  004e9	83 c0 04	 add	 eax, 4
  004ec	49		 dec	 ecx
  004ed	75 f4		 jne	 SHORT $LL948@AddRenderI
  004ef	8b 8d 64 fe ff
	ff		 mov	 ecx, DWORD PTR _szType$GSCopy$[ebp]
  004f5	8d b5 a0 fe ff
	ff		 lea	 esi, DWORD PTR __t$511100[ebp]
  004fb	ff 15 00 00 00
	00		 call	 DWORD PTR __imp_?c_str@ioHashString@@QBEPBDXZ
$LL2350@AddRenderI:
  00501	8a 08		 mov	 cl, BYTE PTR [eax]
  00503	3a 0e		 cmp	 cl, BYTE PTR [esi]
  00505	75 1a		 jne	 SHORT $LN2351@AddRenderI
  00507	3a cb		 cmp	 cl, bl
  00509	74 12		 je	 SHORT $LN2352@AddRenderI
  0050b	8a 48 01	 mov	 cl, BYTE PTR [eax+1]
  0050e	3a 4e 01	 cmp	 cl, BYTE PTR [esi+1]
  00511	75 0e		 jne	 SHORT $LN2351@AddRenderI
  00513	83 c0 02	 add	 eax, 2
  00516	83 c6 02	 add	 esi, 2
  00519	3a cb		 cmp	 cl, bl
  0051b	75 e4		 jne	 SHORT $LL2350@AddRenderI
$LN2352@AddRenderI:
  0051d	33 c0		 xor	 eax, eax
  0051f	eb 05		 jmp	 SHORT $LN2353@AddRenderI
$LN2351@AddRenderI:
  00521	1b c0		 sbb	 eax, eax
  00523	83 d8 ff	 sbb	 eax, -1
$LN2353@AddRenderI:
  00526	3b c3		 cmp	 eax, ebx
  00528	75 30		 jne	 SHORT $LN2310@AddRenderI

; 133  : 	{
; 134  : 		SAFEDELETE( m_pTextEndNum );

  0052a	39 9f c4 01 00
	00		 cmp	 DWORD PTR [edi+452], ebx
  00530	74 17		 je	 SHORT $LN38@AddRenderI
  00532	8b 8f c4 01 00
	00		 mov	 ecx, DWORD PTR [edi+452]
  00538	3b cb		 cmp	 ecx, ebx
  0053a	74 07		 je	 SHORT $LN77@AddRenderI
  0053c	8b 01		 mov	 eax, DWORD PTR [ecx]
  0053e	6a 01		 push	 1
  00540	ff 50 40	 call	 DWORD PTR [eax+64]
$LN77@AddRenderI:
  00543	89 9f c4 01 00
	00		 mov	 DWORD PTR [edi+452], ebx
$LN38@AddRenderI:

; 135  : 		m_pTextEndNum = pImage;

  00549	8b 85 60 fe ff
	ff		 mov	 eax, DWORD PTR _pImage$GSCopy$[ebp]
  0054f	89 87 c4 01 00
	00		 mov	 DWORD PTR [edi+452], eax
  00555	e9 ad 07 00 00	 jmp	 $LN1@AddRenderI
$LN2310@AddRenderI:

; 136  : 	}
; 137  : 	else if( szType == "text_present" )

  0055a	6a 03		 push	 3
  0055c	c7 85 78 fe ff
	ff 99 89 93 9e	 mov	 DWORD PTR __t$511225[ebp], -1634498151 ; 9e938999H
  00566	c7 85 7c fe ff
	ff b2 9c 99 8f	 mov	 DWORD PTR __t$511225[ebp+4], -1885758286 ; 8f999cb2H
  00570	c7 85 80 fe ff
	ff 9e 89 85 9e	 mov	 DWORD PTR __t$511225[ebp+8], -1635415650 ; 9e85899eH
  0057a	8d 85 78 fe ff
	ff		 lea	 eax, DWORD PTR __t$511225[ebp]
  00580	88 9d 84 fe ff
	ff		 mov	 BYTE PTR __t$511225[ebp+12], bl
  00586	59		 pop	 ecx
$LL1054@AddRenderI:
  00587	81 30 ed ec eb
	ea		 xor	 DWORD PTR [eax], -353637139 ; eaebecedH
  0058d	83 c0 04	 add	 eax, 4
  00590	49		 dec	 ecx
  00591	75 f4		 jne	 SHORT $LL1054@AddRenderI
  00593	8b 8d 64 fe ff
	ff		 mov	 ecx, DWORD PTR _szType$GSCopy$[ebp]
  00599	8d b5 78 fe ff
	ff		 lea	 esi, DWORD PTR __t$511225[ebp]
  0059f	ff 15 00 00 00
	00		 call	 DWORD PTR __imp_?c_str@ioHashString@@QBEPBDXZ
$LL2354@AddRenderI:
  005a5	8a 08		 mov	 cl, BYTE PTR [eax]
  005a7	3a 0e		 cmp	 cl, BYTE PTR [esi]
  005a9	75 1a		 jne	 SHORT $LN2355@AddRenderI
  005ab	3a cb		 cmp	 cl, bl
  005ad	74 12		 je	 SHORT $LN2356@AddRenderI
  005af	8a 48 01	 mov	 cl, BYTE PTR [eax+1]
  005b2	3a 4e 01	 cmp	 cl, BYTE PTR [esi+1]
  005b5	75 0e		 jne	 SHORT $LN2355@AddRenderI
  005b7	83 c0 02	 add	 eax, 2
  005ba	83 c6 02	 add	 esi, 2
  005bd	3a cb		 cmp	 cl, bl
  005bf	75 e4		 jne	 SHORT $LL2354@AddRenderI
$LN2356@AddRenderI:
  005c1	33 c0		 xor	 eax, eax
  005c3	eb 05		 jmp	 SHORT $LN2357@AddRenderI
$LN2355@AddRenderI:
  005c5	1b c0		 sbb	 eax, eax
  005c7	83 d8 ff	 sbb	 eax, -1
$LN2357@AddRenderI:
  005ca	3b c3		 cmp	 eax, ebx
  005cc	75 30		 jne	 SHORT $LN2311@AddRenderI

; 138  : 	{
; 139  : 		SAFEDELETE( m_pTextPresent );

  005ce	39 9f c8 01 00
	00		 cmp	 DWORD PTR [edi+456], ebx
  005d4	74 17		 je	 SHORT $LN35@AddRenderI
  005d6	8b 8f c8 01 00
	00		 mov	 ecx, DWORD PTR [edi+456]
  005dc	3b cb		 cmp	 ecx, ebx
  005de	74 07		 je	 SHORT $LN79@AddRenderI
  005e0	8b 01		 mov	 eax, DWORD PTR [ecx]
  005e2	6a 01		 push	 1
  005e4	ff 50 40	 call	 DWORD PTR [eax+64]
$LN79@AddRenderI:
  005e7	89 9f c8 01 00
	00		 mov	 DWORD PTR [edi+456], ebx
$LN35@AddRenderI:

; 140  : 		m_pTextPresent = pImage;

  005ed	8b 85 60 fe ff
	ff		 mov	 eax, DWORD PTR _pImage$GSCopy$[ebp]
  005f3	89 87 c8 01 00
	00		 mov	 DWORD PTR [edi+456], eax
  005f9	e9 09 07 00 00	 jmp	 $LN1@AddRenderI
$LN2311@AddRenderI:

; 141  : 	}
; 142  : 	else if( szType == "text_reward_1" )

  005fe	6a 03		 push	 3
  00600	c7 45 90 99 89
	93 9e		 mov	 DWORD PTR __t$511350[ebp], -1634498151 ; 9e938999H
  00607	c7 45 94 b2 9e
	8e 9d		 mov	 DWORD PTR __t$511350[ebp+4], -1651597646 ; 9d8e9eb2H
  0060e	c7 45 98 8c 9e
	8f b5		 mov	 DWORD PTR __t$511350[ebp+8], -1248878964 ; b58f9e8cH
  00615	8d 45 90	 lea	 eax, DWORD PTR __t$511350[ebp]
  00618	66 c7 45 9c dc
	00		 mov	 WORD PTR __t$511350[ebp+12], 220 ; 000000dcH
  0061e	59		 pop	 ecx
$LL1160@AddRenderI:
  0061f	81 30 ed ec eb
	ea		 xor	 DWORD PTR [eax], -353637139 ; eaebecedH
  00625	83 c0 04	 add	 eax, 4
  00628	49		 dec	 ecx
  00629	75 f4		 jne	 SHORT $LL1160@AddRenderI
  0062b	8b 8d 64 fe ff
	ff		 mov	 ecx, DWORD PTR _szType$GSCopy$[ebp]
  00631	80 75 9c ed	 xor	 BYTE PTR __t$511350[ebp+12], -19 ; ffffffedH
  00635	8d 75 90	 lea	 esi, DWORD PTR __t$511350[ebp]
  00638	ff 15 00 00 00
	00		 call	 DWORD PTR __imp_?c_str@ioHashString@@QBEPBDXZ
$LL2358@AddRenderI:
  0063e	8a 08		 mov	 cl, BYTE PTR [eax]
  00640	3a 0e		 cmp	 cl, BYTE PTR [esi]
  00642	75 1a		 jne	 SHORT $LN2359@AddRenderI
  00644	3a cb		 cmp	 cl, bl
  00646	74 12		 je	 SHORT $LN2360@AddRenderI
  00648	8a 48 01	 mov	 cl, BYTE PTR [eax+1]
  0064b	3a 4e 01	 cmp	 cl, BYTE PTR [esi+1]
  0064e	75 0e		 jne	 SHORT $LN2359@AddRenderI
  00650	83 c0 02	 add	 eax, 2
  00653	83 c6 02	 add	 esi, 2
  00656	3a cb		 cmp	 cl, bl
  00658	75 e4		 jne	 SHORT $LL2358@AddRenderI
$LN2360@AddRenderI:
  0065a	33 c0		 xor	 eax, eax
  0065c	eb 05		 jmp	 SHORT $LN2361@AddRenderI
$LN2359@AddRenderI:
  0065e	1b c0		 sbb	 eax, eax
  00660	83 d8 ff	 sbb	 eax, -1
$LN2361@AddRenderI:
  00663	3b c3		 cmp	 eax, ebx
  00665	75 30		 jne	 SHORT $LN2312@AddRenderI

; 143  : 	{
; 144  : 		SAFEDELETE( m_pTextReward[0] );

  00667	39 9f cc 01 00
	00		 cmp	 DWORD PTR [edi+460], ebx
  0066d	74 17		 je	 SHORT $LN32@AddRenderI
  0066f	8b 8f cc 01 00
	00		 mov	 ecx, DWORD PTR [edi+460]
  00675	3b cb		 cmp	 ecx, ebx
  00677	74 07		 je	 SHORT $LN81@AddRenderI
  00679	8b 01		 mov	 eax, DWORD PTR [ecx]
  0067b	6a 01		 push	 1
  0067d	ff 50 40	 call	 DWORD PTR [eax+64]
$LN81@AddRenderI:
  00680	89 9f cc 01 00
	00		 mov	 DWORD PTR [edi+460], ebx
$LN32@AddRenderI:

; 145  : 		m_pTextReward[0] = pImage;

  00686	8b 85 60 fe ff
	ff		 mov	 eax, DWORD PTR _pImage$GSCopy$[ebp]
  0068c	89 87 cc 01 00
	00		 mov	 DWORD PTR [edi+460], eax
  00692	e9 70 06 00 00	 jmp	 $LN1@AddRenderI
$LN2312@AddRenderI:

; 146  : 	}
; 147  : 	else if( szType == "text_reward_2" )

  00697	6a 03		 push	 3
  00699	c7 45 e8 99 89
	93 9e		 mov	 DWORD PTR __t$511475[ebp], -1634498151 ; 9e938999H
  006a0	c7 45 ec b2 9e
	8e 9d		 mov	 DWORD PTR __t$511475[ebp+4], -1651597646 ; 9d8e9eb2H
  006a7	c7 45 f0 8c 9e
	8f b5		 mov	 DWORD PTR __t$511475[ebp+8], -1248878964 ; b58f9e8cH
  006ae	8d 45 e8	 lea	 eax, DWORD PTR __t$511475[ebp]
  006b1	66 c7 45 f4 df
	00		 mov	 WORD PTR __t$511475[ebp+12], 223 ; 000000dfH
  006b7	59		 pop	 ecx
$LL1266@AddRenderI:
  006b8	81 30 ed ec eb
	ea		 xor	 DWORD PTR [eax], -353637139 ; eaebecedH
  006be	83 c0 04	 add	 eax, 4
  006c1	49		 dec	 ecx
  006c2	75 f4		 jne	 SHORT $LL1266@AddRenderI
  006c4	8b 8d 64 fe ff
	ff		 mov	 ecx, DWORD PTR _szType$GSCopy$[ebp]
  006ca	80 75 f4 ed	 xor	 BYTE PTR __t$511475[ebp+12], -19 ; ffffffedH
  006ce	8d 75 e8	 lea	 esi, DWORD PTR __t$511475[ebp]
  006d1	ff 15 00 00 00
	00		 call	 DWORD PTR __imp_?c_str@ioHashString@@QBEPBDXZ
$LL2362@AddRenderI:
  006d7	8a 08		 mov	 cl, BYTE PTR [eax]
  006d9	3a 0e		 cmp	 cl, BYTE PTR [esi]
  006db	75 1a		 jne	 SHORT $LN2363@AddRenderI
  006dd	3a cb		 cmp	 cl, bl
  006df	74 12		 je	 SHORT $LN2364@AddRenderI
  006e1	8a 48 01	 mov	 cl, BYTE PTR [eax+1]
  006e4	3a 4e 01	 cmp	 cl, BYTE PTR [esi+1]
  006e7	75 0e		 jne	 SHORT $LN2363@AddRenderI
  006e9	83 c0 02	 add	 eax, 2
  006ec	83 c6 02	 add	 esi, 2
  006ef	3a cb		 cmp	 cl, bl
  006f1	75 e4		 jne	 SHORT $LL2362@AddRenderI
$LN2364@AddRenderI:
  006f3	33 c0		 xor	 eax, eax
  006f5	eb 05		 jmp	 SHORT $LN2365@AddRenderI
$LN2363@AddRenderI:
  006f7	1b c0		 sbb	 eax, eax
  006f9	83 d8 ff	 sbb	 eax, -1
$LN2365@AddRenderI:
  006fc	3b c3		 cmp	 eax, ebx
  006fe	75 30		 jne	 SHORT $LN2313@AddRenderI

; 148  : 	{
; 149  : 		SAFEDELETE( m_pTextReward[1] );

  00700	39 9f d0 01 00
	00		 cmp	 DWORD PTR [edi+464], ebx
  00706	74 17		 je	 SHORT $LN29@AddRenderI
  00708	8b 8f d0 01 00
	00		 mov	 ecx, DWORD PTR [edi+464]
  0070e	3b cb		 cmp	 ecx, ebx
  00710	74 07		 je	 SHORT $LN83@AddRenderI
  00712	8b 01		 mov	 eax, DWORD PTR [ecx]
  00714	6a 01		 push	 1
  00716	ff 50 40	 call	 DWORD PTR [eax+64]
$LN83@AddRenderI:
  00719	89 9f d0 01 00
	00		 mov	 DWORD PTR [edi+464], ebx
$LN29@AddRenderI:

; 150  : 		m_pTextReward[1] = pImage;

  0071f	8b 85 60 fe ff
	ff		 mov	 eax, DWORD PTR _pImage$GSCopy$[ebp]
  00725	89 87 d0 01 00
	00		 mov	 DWORD PTR [edi+464], eax
  0072b	e9 d7 05 00 00	 jmp	 $LN1@AddRenderI
$LN2313@AddRenderI:

; 151  : 	}
; 152  : 	else if( szType == "text_reward_3" )

  00730	6a 03		 push	 3
  00732	c7 45 d4 99 89
	93 9e		 mov	 DWORD PTR __t$511600[ebp], -1634498151 ; 9e938999H
  00739	c7 45 d8 b2 9e
	8e 9d		 mov	 DWORD PTR __t$511600[ebp+4], -1651597646 ; 9d8e9eb2H
  00740	c7 45 dc 8c 9e
	8f b5		 mov	 DWORD PTR __t$511600[ebp+8], -1248878964 ; b58f9e8cH
  00747	8d 45 d4	 lea	 eax, DWORD PTR __t$511600[ebp]
  0074a	66 c7 45 e0 de
	00		 mov	 WORD PTR __t$511600[ebp+12], 222 ; 000000deH
  00750	59		 pop	 ecx
$LL1372@AddRenderI:
  00751	81 30 ed ec eb
	ea		 xor	 DWORD PTR [eax], -353637139 ; eaebecedH
  00757	83 c0 04	 add	 eax, 4
  0075a	49		 dec	 ecx
  0075b	75 f4		 jne	 SHORT $LL1372@AddRenderI
  0075d	8b 8d 64 fe ff
	ff		 mov	 ecx, DWORD PTR _szType$GSCopy$[ebp]
  00763	80 75 e0 ed	 xor	 BYTE PTR __t$511600[ebp+12], -19 ; ffffffedH
  00767	8d 75 d4	 lea	 esi, DWORD PTR __t$511600[ebp]
  0076a	ff 15 00 00 00
	00		 call	 DWORD PTR __imp_?c_str@ioHashString@@QBEPBDXZ
$LL2366@AddRenderI:
  00770	8a 08		 mov	 cl, BYTE PTR [eax]
  00772	3a 0e		 cmp	 cl, BYTE PTR [esi]
  00774	75 1a		 jne	 SHORT $LN2367@AddRenderI
  00776	3a cb		 cmp	 cl, bl
  00778	74 12		 je	 SHORT $LN2368@AddRenderI
  0077a	8a 48 01	 mov	 cl, BYTE PTR [eax+1]
  0077d	3a 4e 01	 cmp	 cl, BYTE PTR [esi+1]
  00780	75 0e		 jne	 SHORT $LN2367@AddRenderI
  00782	83 c0 02	 add	 eax, 2
  00785	83 c6 02	 add	 esi, 2
  00788	3a cb		 cmp	 cl, bl
  0078a	75 e4		 jne	 SHORT $LL2366@AddRenderI
$LN2368@AddRenderI:
  0078c	33 c0		 xor	 eax, eax
  0078e	eb 05		 jmp	 SHORT $LN2369@AddRenderI
$LN2367@AddRenderI:
  00790	1b c0		 sbb	 eax, eax
  00792	83 d8 ff	 sbb	 eax, -1
$LN2369@AddRenderI:
  00795	3b c3		 cmp	 eax, ebx
  00797	75 30		 jne	 SHORT $LN2314@AddRenderI

; 153  : 	{
; 154  : 		SAFEDELETE( m_pTextReward[2] );

  00799	39 9f d4 01 00
	00		 cmp	 DWORD PTR [edi+468], ebx
  0079f	74 17		 je	 SHORT $LN26@AddRenderI
  007a1	8b 8f d4 01 00
	00		 mov	 ecx, DWORD PTR [edi+468]
  007a7	3b cb		 cmp	 ecx, ebx
  007a9	74 07		 je	 SHORT $LN85@AddRenderI
  007ab	8b 01		 mov	 eax, DWORD PTR [ecx]
  007ad	6a 01		 push	 1
  007af	ff 50 40	 call	 DWORD PTR [eax+64]
$LN85@AddRenderI:
  007b2	89 9f d4 01 00
	00		 mov	 DWORD PTR [edi+468], ebx
$LN26@AddRenderI:

; 155  : 		m_pTextReward[2] = pImage;

  007b8	8b 85 60 fe ff
	ff		 mov	 eax, DWORD PTR _pImage$GSCopy$[ebp]
  007be	89 87 d4 01 00
	00		 mov	 DWORD PTR [edi+468], eax
  007c4	e9 3e 05 00 00	 jmp	 $LN1@AddRenderI
$LN2314@AddRenderI:

; 156  : 	}
; 157  : 	else if( szType == "text_reward_bg_1" )

  007c9	6a 04		 push	 4
  007cb	c7 85 18 ff ff
	ff 99 89 93 9e	 mov	 DWORD PTR __t$511712[ebp], -1634498151 ; 9e938999H
  007d5	c7 85 1c ff ff
	ff b2 9e 8e 9d	 mov	 DWORD PTR __t$511712[ebp+4], -1651597646 ; 9d8e9eb2H
  007df	c7 85 20 ff ff
	ff 8c 9e 8f b5	 mov	 DWORD PTR __t$511712[ebp+8], -1248878964 ; b58f9e8cH
  007e9	c7 85 24 ff ff
	ff 8f 8b b4 db	 mov	 DWORD PTR __t$511712[ebp+12], -608924785 ; dbb48b8fH
  007f3	8d 85 18 ff ff
	ff		 lea	 eax, DWORD PTR __t$511712[ebp]
  007f9	88 9d 28 ff ff
	ff		 mov	 BYTE PTR __t$511712[ebp+16], bl
  007ff	59		 pop	 ecx
$LL1478@AddRenderI:
  00800	81 30 ed ec eb
	ea		 xor	 DWORD PTR [eax], -353637139 ; eaebecedH
  00806	83 c0 04	 add	 eax, 4
  00809	49		 dec	 ecx
  0080a	75 f4		 jne	 SHORT $LL1478@AddRenderI
  0080c	8b 8d 64 fe ff
	ff		 mov	 ecx, DWORD PTR _szType$GSCopy$[ebp]
  00812	8d b5 18 ff ff
	ff		 lea	 esi, DWORD PTR __t$511712[ebp]
  00818	ff 15 00 00 00
	00		 call	 DWORD PTR __imp_?c_str@ioHashString@@QBEPBDXZ
$LL2370@AddRenderI:
  0081e	8a 08		 mov	 cl, BYTE PTR [eax]
  00820	3a 0e		 cmp	 cl, BYTE PTR [esi]
  00822	75 1a		 jne	 SHORT $LN2371@AddRenderI
  00824	3a cb		 cmp	 cl, bl
  00826	74 12		 je	 SHORT $LN2372@AddRenderI
  00828	8a 48 01	 mov	 cl, BYTE PTR [eax+1]
  0082b	3a 4e 01	 cmp	 cl, BYTE PTR [esi+1]
  0082e	75 0e		 jne	 SHORT $LN2371@AddRenderI
  00830	83 c0 02	 add	 eax, 2
  00833	83 c6 02	 add	 esi, 2
  00836	3a cb		 cmp	 cl, bl
  00838	75 e4		 jne	 SHORT $LL2370@AddRenderI
$LN2372@AddRenderI:
  0083a	33 c0		 xor	 eax, eax
  0083c	eb 05		 jmp	 SHORT $LN2373@AddRenderI
$LN2371@AddRenderI:
  0083e	1b c0		 sbb	 eax, eax
  00840	83 d8 ff	 sbb	 eax, -1
$LN2373@AddRenderI:
  00843	3b c3		 cmp	 eax, ebx
  00845	75 30		 jne	 SHORT $LN2315@AddRenderI

; 158  : 	{
; 159  : 		SAFEDELETE( m_pTextRewardBg[0] );

  00847	39 9f d8 01 00
	00		 cmp	 DWORD PTR [edi+472], ebx
  0084d	74 17		 je	 SHORT $LN23@AddRenderI
  0084f	8b 8f d8 01 00
	00		 mov	 ecx, DWORD PTR [edi+472]
  00855	3b cb		 cmp	 ecx, ebx
  00857	74 07		 je	 SHORT $LN87@AddRenderI
  00859	8b 01		 mov	 eax, DWORD PTR [ecx]
  0085b	6a 01		 push	 1
  0085d	ff 50 40	 call	 DWORD PTR [eax+64]
$LN87@AddRenderI:
  00860	89 9f d8 01 00
	00		 mov	 DWORD PTR [edi+472], ebx
$LN23@AddRenderI:

; 160  : 		m_pTextRewardBg[0] = pImage;

  00866	8b 85 60 fe ff
	ff		 mov	 eax, DWORD PTR _pImage$GSCopy$[ebp]
  0086c	89 87 d8 01 00
	00		 mov	 DWORD PTR [edi+472], eax
  00872	e9 90 04 00 00	 jmp	 $LN1@AddRenderI
$LN2315@AddRenderI:

; 161  : 	}
; 162  : 	else if( szType == "text_reward_bg_2" )

  00877	6a 04		 push	 4
  00879	c7 85 e8 fe ff
	ff 99 89 93 9e	 mov	 DWORD PTR __t$511837[ebp], -1634498151 ; 9e938999H
  00883	c7 85 ec fe ff
	ff b2 9e 8e 9d	 mov	 DWORD PTR __t$511837[ebp+4], -1651597646 ; 9d8e9eb2H
  0088d	c7 85 f0 fe ff
	ff 8c 9e 8f b5	 mov	 DWORD PTR __t$511837[ebp+8], -1248878964 ; b58f9e8cH
  00897	c7 85 f4 fe ff
	ff 8f 8b b4 d8	 mov	 DWORD PTR __t$511837[ebp+12], -659256433 ; d8b48b8fH
  008a1	8d 85 e8 fe ff
	ff		 lea	 eax, DWORD PTR __t$511837[ebp]
  008a7	88 9d f8 fe ff
	ff		 mov	 BYTE PTR __t$511837[ebp+16], bl
  008ad	59		 pop	 ecx
$LL1584@AddRenderI:
  008ae	81 30 ed ec eb
	ea		 xor	 DWORD PTR [eax], -353637139 ; eaebecedH
  008b4	83 c0 04	 add	 eax, 4
  008b7	49		 dec	 ecx
  008b8	75 f4		 jne	 SHORT $LL1584@AddRenderI
  008ba	8b 8d 64 fe ff
	ff		 mov	 ecx, DWORD PTR _szType$GSCopy$[ebp]
  008c0	8d b5 e8 fe ff
	ff		 lea	 esi, DWORD PTR __t$511837[ebp]
  008c6	ff 15 00 00 00
	00		 call	 DWORD PTR __imp_?c_str@ioHashString@@QBEPBDXZ
$LL2374@AddRenderI:
  008cc	8a 08		 mov	 cl, BYTE PTR [eax]
  008ce	3a 0e		 cmp	 cl, BYTE PTR [esi]
  008d0	75 1a		 jne	 SHORT $LN2375@AddRenderI
  008d2	3a cb		 cmp	 cl, bl
  008d4	74 12		 je	 SHORT $LN2376@AddRenderI
  008d6	8a 48 01	 mov	 cl, BYTE PTR [eax+1]
  008d9	3a 4e 01	 cmp	 cl, BYTE PTR [esi+1]
  008dc	75 0e		 jne	 SHORT $LN2375@AddRenderI
  008de	83 c0 02	 add	 eax, 2
  008e1	83 c6 02	 add	 esi, 2
  008e4	3a cb		 cmp	 cl, bl
  008e6	75 e4		 jne	 SHORT $LL2374@AddRenderI
$LN2376@AddRenderI:
  008e8	33 c0		 xor	 eax, eax
  008ea	eb 05		 jmp	 SHORT $LN2377@AddRenderI
$LN2375@AddRenderI:
  008ec	1b c0		 sbb	 eax, eax
  008ee	83 d8 ff	 sbb	 eax, -1
$LN2377@AddRenderI:
  008f1	3b c3		 cmp	 eax, ebx
  008f3	75 30		 jne	 SHORT $LN2316@AddRenderI

; 163  : 	{
; 164  : 		SAFEDELETE( m_pTextRewardBg[1] );

  008f5	39 9f dc 01 00
	00		 cmp	 DWORD PTR [edi+476], ebx
  008fb	74 17		 je	 SHORT $LN20@AddRenderI
  008fd	8b 8f dc 01 00
	00		 mov	 ecx, DWORD PTR [edi+476]
  00903	3b cb		 cmp	 ecx, ebx
  00905	74 07		 je	 SHORT $LN89@AddRenderI
  00907	8b 01		 mov	 eax, DWORD PTR [ecx]
  00909	6a 01		 push	 1
  0090b	ff 50 40	 call	 DWORD PTR [eax+64]
$LN89@AddRenderI:
  0090e	89 9f dc 01 00
	00		 mov	 DWORD PTR [edi+476], ebx
$LN20@AddRenderI:

; 165  : 		m_pTextRewardBg[1] = pImage;

  00914	8b 85 60 fe ff
	ff		 mov	 eax, DWORD PTR _pImage$GSCopy$[ebp]
  0091a	89 87 dc 01 00
	00		 mov	 DWORD PTR [edi+476], eax
  00920	e9 e2 03 00 00	 jmp	 $LN1@AddRenderI
$LN2316@AddRenderI:

; 166  : 	}
; 167  : 	else if( szType == "text_reward_bg_3" )

  00925	6a 04		 push	 4
  00927	c7 85 78 ff ff
	ff 99 89 93 9e	 mov	 DWORD PTR __t$511962[ebp], -1634498151 ; 9e938999H
  00931	c7 85 7c ff ff
	ff b2 9e 8e 9d	 mov	 DWORD PTR __t$511962[ebp+4], -1651597646 ; 9d8e9eb2H
  0093b	c7 45 80 8c 9e
	8f b5		 mov	 DWORD PTR __t$511962[ebp+8], -1248878964 ; b58f9e8cH
  00942	c7 45 84 8f 8b
	b4 d9		 mov	 DWORD PTR __t$511962[ebp+12], -642479217 ; d9b48b8fH
  00949	8d 85 78 ff ff
	ff		 lea	 eax, DWORD PTR __t$511962[ebp]
  0094f	88 5d 88	 mov	 BYTE PTR __t$511962[ebp+16], bl
  00952	59		 pop	 ecx
$LL1690@AddRenderI:
  00953	81 30 ed ec eb
	ea		 xor	 DWORD PTR [eax], -353637139 ; eaebecedH
  00959	83 c0 04	 add	 eax, 4
  0095c	49		 dec	 ecx
  0095d	75 f4		 jne	 SHORT $LL1690@AddRenderI
  0095f	8b 8d 64 fe ff
	ff		 mov	 ecx, DWORD PTR _szType$GSCopy$[ebp]
  00965	8d b5 78 ff ff
	ff		 lea	 esi, DWORD PTR __t$511962[ebp]
  0096b	ff 15 00 00 00
	00		 call	 DWORD PTR __imp_?c_str@ioHashString@@QBEPBDXZ
$LL2378@AddRenderI:
  00971	8a 08		 mov	 cl, BYTE PTR [eax]
  00973	3a 0e		 cmp	 cl, BYTE PTR [esi]
  00975	75 1a		 jne	 SHORT $LN2379@AddRenderI
  00977	3a cb		 cmp	 cl, bl
  00979	74 12		 je	 SHORT $LN2380@AddRenderI
  0097b	8a 48 01	 mov	 cl, BYTE PTR [eax+1]
  0097e	3a 4e 01	 cmp	 cl, BYTE PTR [esi+1]
  00981	75 0e		 jne	 SHORT $LN2379@AddRenderI
  00983	83 c0 02	 add	 eax, 2
  00986	83 c6 02	 add	 esi, 2
  00989	3a cb		 cmp	 cl, bl
  0098b	75 e4		 jne	 SHORT $LL2378@AddRenderI
$LN2380@AddRenderI:
  0098d	33 c0		 xor	 eax, eax
  0098f	eb 05		 jmp	 SHORT $LN2381@AddRenderI
$LN2379@AddRenderI:
  00991	1b c0		 sbb	 eax, eax
  00993	83 d8 ff	 sbb	 eax, -1
$LN2381@AddRenderI:
  00996	3b c3		 cmp	 eax, ebx
  00998	75 30		 jne	 SHORT $LN2317@AddRenderI

; 168  : 	{
; 169  : 		SAFEDELETE( m_pTextRewardBg[2] );

  0099a	39 9f e0 01 00
	00		 cmp	 DWORD PTR [edi+480], ebx
  009a0	74 17		 je	 SHORT $LN17@AddRenderI
  009a2	8b 8f e0 01 00
	00		 mov	 ecx, DWORD PTR [edi+480]
  009a8	3b cb		 cmp	 ecx, ebx
  009aa	74 07		 je	 SHORT $LN91@AddRenderI
  009ac	8b 01		 mov	 eax, DWORD PTR [ecx]
  009ae	6a 01		 push	 1
  009b0	ff 50 40	 call	 DWORD PTR [eax+64]
$LN91@AddRenderI:
  009b3	89 9f e0 01 00
	00		 mov	 DWORD PTR [edi+480], ebx
$LN17@AddRenderI:

; 170  : 		m_pTextRewardBg[2] = pImage;

  009b9	8b 85 60 fe ff
	ff		 mov	 eax, DWORD PTR _pImage$GSCopy$[ebp]
  009bf	89 87 e0 01 00
	00		 mov	 DWORD PTR [edi+480], eax
  009c5	e9 3d 03 00 00	 jmp	 $LN1@AddRenderI
$LN2317@AddRenderI:

; 171  : 	}
; 172  : 	else if( szType == "upper_coupon" )

  009ca	6a 03		 push	 3
  009cc	c7 85 c8 fe ff
	ff 98 9c 9b 8f	 mov	 DWORD PTR __t$512100[ebp], -1885627240 ; 8f9b9c98H
  009d6	c7 85 cc fe ff
	ff 9f b3 88 85	 mov	 DWORD PTR __t$512100[ebp+4], -2054638689 ; 8588b39fH
  009e0	c7 85 d0 fe ff
	ff 98 9c 84 84	 mov	 DWORD PTR __t$512100[ebp+8], -2071683944 ; 84849c98H
  009ea	8d 85 c8 fe ff
	ff		 lea	 eax, DWORD PTR __t$512100[ebp]
  009f0	88 9d d4 fe ff
	ff		 mov	 BYTE PTR __t$512100[ebp+12], bl
  009f6	59		 pop	 ecx
$LL1796@AddRenderI:
  009f7	81 30 ed ec eb
	ea		 xor	 DWORD PTR [eax], -353637139 ; eaebecedH
  009fd	83 c0 04	 add	 eax, 4
  00a00	49		 dec	 ecx
  00a01	75 f4		 jne	 SHORT $LL1796@AddRenderI
  00a03	8b 8d 64 fe ff
	ff		 mov	 ecx, DWORD PTR _szType$GSCopy$[ebp]
  00a09	8d b5 c8 fe ff
	ff		 lea	 esi, DWORD PTR __t$512100[ebp]
  00a0f	ff 15 00 00 00
	00		 call	 DWORD PTR __imp_?c_str@ioHashString@@QBEPBDXZ
$LL2382@AddRenderI:
  00a15	8a 08		 mov	 cl, BYTE PTR [eax]
  00a17	3a 0e		 cmp	 cl, BYTE PTR [esi]
  00a19	75 1a		 jne	 SHORT $LN2383@AddRenderI
  00a1b	3a cb		 cmp	 cl, bl
  00a1d	74 12		 je	 SHORT $LN2384@AddRenderI
  00a1f	8a 48 01	 mov	 cl, BYTE PTR [eax+1]
  00a22	3a 4e 01	 cmp	 cl, BYTE PTR [esi+1]
  00a25	75 0e		 jne	 SHORT $LN2383@AddRenderI
  00a27	83 c0 02	 add	 eax, 2
  00a2a	83 c6 02	 add	 esi, 2
  00a2d	3a cb		 cmp	 cl, bl
  00a2f	75 e4		 jne	 SHORT $LL2382@AddRenderI
$LN2384@AddRenderI:
  00a31	33 c0		 xor	 eax, eax
  00a33	eb 05		 jmp	 SHORT $LN2385@AddRenderI
$LN2383@AddRenderI:
  00a35	1b c0		 sbb	 eax, eax
  00a37	83 d8 ff	 sbb	 eax, -1
$LN2385@AddRenderI:
  00a3a	3b c3		 cmp	 eax, ebx
  00a3c	75 30		 jne	 SHORT $LN2318@AddRenderI

; 173  : 	{
; 174  : 		SAFEDELETE( m_pUpperCoupon );

  00a3e	39 9f e4 01 00
	00		 cmp	 DWORD PTR [edi+484], ebx
  00a44	74 17		 je	 SHORT $LN14@AddRenderI
  00a46	8b 8f e4 01 00
	00		 mov	 ecx, DWORD PTR [edi+484]
  00a4c	3b cb		 cmp	 ecx, ebx
  00a4e	74 07		 je	 SHORT $LN93@AddRenderI
  00a50	8b 01		 mov	 eax, DWORD PTR [ecx]
  00a52	6a 01		 push	 1
  00a54	ff 50 40	 call	 DWORD PTR [eax+64]
$LN93@AddRenderI:
  00a57	89 9f e4 01 00
	00		 mov	 DWORD PTR [edi+484], ebx
$LN14@AddRenderI:

; 175  : 		m_pUpperCoupon = pImage;

  00a5d	8b 85 60 fe ff
	ff		 mov	 eax, DWORD PTR _pImage$GSCopy$[ebp]
  00a63	89 87 e4 01 00
	00		 mov	 DWORD PTR [edi+484], eax
  00a69	e9 99 02 00 00	 jmp	 $LN1@AddRenderI
$LN2318@AddRenderI:

; 176  : 	}
; 177  : 	else if( szType == "upper_coupon_num" )

  00a6e	6a 04		 push	 4
  00a70	c7 85 00 ff ff
	ff 98 9c 9b 8f	 mov	 DWORD PTR __t$512212[ebp], -1885627240 ; 8f9b9c98H
  00a7a	c7 85 04 ff ff
	ff 9f b3 88 85	 mov	 DWORD PTR __t$512212[ebp+4], -2054638689 ; 8588b39fH
  00a84	c7 85 08 ff ff
	ff 98 9c 84 84	 mov	 DWORD PTR __t$512212[ebp+8], -2071683944 ; 84849c98H
  00a8e	c7 85 0c ff ff
	ff b2 82 9e 87	 mov	 DWORD PTR __t$512212[ebp+12], -2019654990 ; 879e82b2H
  00a98	8d 85 00 ff ff
	ff		 lea	 eax, DWORD PTR __t$512212[ebp]
  00a9e	88 9d 10 ff ff
	ff		 mov	 BYTE PTR __t$512212[ebp+16], bl
  00aa4	59		 pop	 ecx
$LL1902@AddRenderI:
  00aa5	81 30 ed ec eb
	ea		 xor	 DWORD PTR [eax], -353637139 ; eaebecedH
  00aab	83 c0 04	 add	 eax, 4
  00aae	49		 dec	 ecx
  00aaf	75 f4		 jne	 SHORT $LL1902@AddRenderI
  00ab1	8b 8d 64 fe ff
	ff		 mov	 ecx, DWORD PTR _szType$GSCopy$[ebp]
  00ab7	8d b5 00 ff ff
	ff		 lea	 esi, DWORD PTR __t$512212[ebp]
  00abd	ff 15 00 00 00
	00		 call	 DWORD PTR __imp_?c_str@ioHashString@@QBEPBDXZ
$LL2386@AddRenderI:
  00ac3	8a 08		 mov	 cl, BYTE PTR [eax]
  00ac5	3a 0e		 cmp	 cl, BYTE PTR [esi]
  00ac7	75 1a		 jne	 SHORT $LN2387@AddRenderI
  00ac9	3a cb		 cmp	 cl, bl
  00acb	74 12		 je	 SHORT $LN2388@AddRenderI
  00acd	8a 48 01	 mov	 cl, BYTE PTR [eax+1]
  00ad0	3a 4e 01	 cmp	 cl, BYTE PTR [esi+1]
  00ad3	75 0e		 jne	 SHORT $LN2387@AddRenderI
  00ad5	83 c0 02	 add	 eax, 2
  00ad8	83 c6 02	 add	 esi, 2
  00adb	3a cb		 cmp	 cl, bl
  00add	75 e4		 jne	 SHORT $LL2386@AddRenderI
$LN2388@AddRenderI:
  00adf	33 c0		 xor	 eax, eax
  00ae1	eb 05		 jmp	 SHORT $LN2389@AddRenderI
$LN2387@AddRenderI:
  00ae3	1b c0		 sbb	 eax, eax
  00ae5	83 d8 ff	 sbb	 eax, -1
$LN2389@AddRenderI:
  00ae8	3b c3		 cmp	 eax, ebx
  00aea	75 30		 jne	 SHORT $LN2319@AddRenderI

; 178  : 	{
; 179  : 		SAFEDELETE( m_pUpperCouponNumber );

  00aec	39 9f e8 01 00
	00		 cmp	 DWORD PTR [edi+488], ebx
  00af2	74 17		 je	 SHORT $LN11@AddRenderI
  00af4	8b 8f e8 01 00
	00		 mov	 ecx, DWORD PTR [edi+488]
  00afa	3b cb		 cmp	 ecx, ebx
  00afc	74 07		 je	 SHORT $LN95@AddRenderI
  00afe	8b 01		 mov	 eax, DWORD PTR [ecx]
  00b00	6a 01		 push	 1
  00b02	ff 50 40	 call	 DWORD PTR [eax+64]
$LN95@AddRenderI:
  00b05	89 9f e8 01 00
	00		 mov	 DWORD PTR [edi+488], ebx
$LN11@AddRenderI:

; 180  : 		m_pUpperCouponNumber = pImage;

  00b0b	8b 85 60 fe ff
	ff		 mov	 eax, DWORD PTR _pImage$GSCopy$[ebp]
  00b11	89 87 e8 01 00
	00		 mov	 DWORD PTR [edi+488], eax
  00b17	e9 eb 01 00 00	 jmp	 $LN1@AddRenderI
$LN2319@AddRenderI:

; 181  : 	}
; 182  : 	else if( szType == "under_coupon" )

  00b1c	6a 03		 push	 3
  00b1e	c7 85 b4 fe ff
	ff 98 82 8f 8f	 mov	 DWORD PTR __t$512350[ebp], -1886420328 ; 8f8f8298H
  00b28	c7 85 b8 fe ff
	ff 9f b3 88 85	 mov	 DWORD PTR __t$512350[ebp+4], -2054638689 ; 8588b39fH
  00b32	c7 85 bc fe ff
	ff 98 9c 84 84	 mov	 DWORD PTR __t$512350[ebp+8], -2071683944 ; 84849c98H
  00b3c	8d 85 b4 fe ff
	ff		 lea	 eax, DWORD PTR __t$512350[ebp]
  00b42	88 9d c0 fe ff
	ff		 mov	 BYTE PTR __t$512350[ebp+12], bl
  00b48	59		 pop	 ecx
$LL2008@AddRenderI:
  00b49	81 30 ed ec eb
	ea		 xor	 DWORD PTR [eax], -353637139 ; eaebecedH
  00b4f	83 c0 04	 add	 eax, 4
  00b52	49		 dec	 ecx
  00b53	75 f4		 jne	 SHORT $LL2008@AddRenderI
  00b55	8b 8d 64 fe ff
	ff		 mov	 ecx, DWORD PTR _szType$GSCopy$[ebp]
  00b5b	8d b5 b4 fe ff
	ff		 lea	 esi, DWORD PTR __t$512350[ebp]
  00b61	ff 15 00 00 00
	00		 call	 DWORD PTR __imp_?c_str@ioHashString@@QBEPBDXZ
$LL2390@AddRenderI:
  00b67	8a 08		 mov	 cl, BYTE PTR [eax]
  00b69	3a 0e		 cmp	 cl, BYTE PTR [esi]
  00b6b	75 1a		 jne	 SHORT $LN2391@AddRenderI
  00b6d	3a cb		 cmp	 cl, bl
  00b6f	74 12		 je	 SHORT $LN2405@AddRenderI
  00b71	8a 48 01	 mov	 cl, BYTE PTR [eax+1]
  00b74	3a 4e 01	 cmp	 cl, BYTE PTR [esi+1]
  00b77	75 0e		 jne	 SHORT $LN2391@AddRenderI
  00b79	83 c0 02	 add	 eax, 2
  00b7c	83 c6 02	 add	 esi, 2
  00b7f	3a cb		 cmp	 cl, bl
  00b81	75 e4		 jne	 SHORT $LL2390@AddRenderI
$LN2405@AddRenderI:
  00b83	33 c0		 xor	 eax, eax
  00b85	eb 05		 jmp	 SHORT $LN2393@AddRenderI
$LN2391@AddRenderI:
  00b87	1b c0		 sbb	 eax, eax
  00b89	83 d8 ff	 sbb	 eax, -1
$LN2393@AddRenderI:
  00b8c	3b c3		 cmp	 eax, ebx
  00b8e	75 30		 jne	 SHORT $LN2320@AddRenderI

; 183  : 	{
; 184  : 		SAFEDELETE( m_pUnderJoin );

  00b90	39 9f ec 01 00
	00		 cmp	 DWORD PTR [edi+492], ebx
  00b96	74 17		 je	 SHORT $LN8@AddRenderI
  00b98	8b 8f ec 01 00
	00		 mov	 ecx, DWORD PTR [edi+492]
  00b9e	3b cb		 cmp	 ecx, ebx
  00ba0	74 07		 je	 SHORT $LN97@AddRenderI
  00ba2	8b 01		 mov	 eax, DWORD PTR [ecx]
  00ba4	6a 01		 push	 1
  00ba6	ff 50 40	 call	 DWORD PTR [eax+64]
$LN97@AddRenderI:
  00ba9	89 9f ec 01 00
	00		 mov	 DWORD PTR [edi+492], ebx
$LN8@AddRenderI:

; 185  : 		m_pUnderJoin = pImage;

  00baf	8b 85 60 fe ff
	ff		 mov	 eax, DWORD PTR _pImage$GSCopy$[ebp]
  00bb5	89 87 ec 01 00
	00		 mov	 DWORD PTR [edi+492], eax
  00bbb	e9 47 01 00 00	 jmp	 $LN1@AddRenderI
$LN2320@AddRenderI:

; 186  : 	}
; 187  : 	else if( szType == "under_count" )

  00bc0	6a 02		 push	 2
  00bc2	c7 45 b4 98 82
	8f 8f		 mov	 DWORD PTR __t$512553[ebp], -1886420328 ; 8f8f8298H
  00bc9	c7 45 b8 9f b3
	88 85		 mov	 DWORD PTR __t$512553[ebp+4], -2054638689 ; 8588b39fH
  00bd0	8d 45 b4	 lea	 eax, DWORD PTR __t$512553[ebp]
  00bd3	c7 45 bc 98 82
	9f 00		 mov	 DWORD PTR __t$512553[ebp+8], 10453656 ; 009f8298H
  00bda	59		 pop	 ecx
$LL2114@AddRenderI:
  00bdb	81 30 ed ec eb
	ea		 xor	 DWORD PTR [eax], -353637139 ; eaebecedH
  00be1	83 c0 04	 add	 eax, 4
  00be4	49		 dec	 ecx
  00be5	75 f4		 jne	 SHORT $LL2114@AddRenderI
  00be7	6a 08		 push	 8
  00be9	5e		 pop	 esi
$LL2111@AddRenderI:
  00bea	8b c6		 mov	 eax, esi
  00bec	25 03 00 00 80	 and	 eax, -2147483645	; 80000003H
  00bf1	79 05		 jns	 SHORT $LN2407@AddRenderI
  00bf3	48		 dec	 eax
  00bf4	83 c8 fc	 or	 eax, -4			; fffffffcH
  00bf7	40		 inc	 eax
$LN2407@AddRenderI:
  00bf8	b1 ed		 mov	 cl, -19			; ffffffedH
  00bfa	2a c8		 sub	 cl, al
  00bfc	30 4c 35 b4	 xor	 BYTE PTR __t$512553[ebp+esi], cl
  00c00	46		 inc	 esi
  00c01	83 fe 0b	 cmp	 esi, 11			; 0000000bH
  00c04	7c e4		 jl	 SHORT $LL2111@AddRenderI
  00c06	8b 8d 64 fe ff
	ff		 mov	 ecx, DWORD PTR _szType$GSCopy$[ebp]
  00c0c	8d 75 b4	 lea	 esi, DWORD PTR __t$512553[ebp]
  00c0f	ff 15 00 00 00
	00		 call	 DWORD PTR __imp_?c_str@ioHashString@@QBEPBDXZ
$LL2394@AddRenderI:
  00c15	8a 08		 mov	 cl, BYTE PTR [eax]
  00c17	3a 0e		 cmp	 cl, BYTE PTR [esi]
  00c19	75 1a		 jne	 SHORT $LN2395@AddRenderI
  00c1b	3a cb		 cmp	 cl, bl
  00c1d	74 12		 je	 SHORT $LN2396@AddRenderI
  00c1f	8a 48 01	 mov	 cl, BYTE PTR [eax+1]
  00c22	3a 4e 01	 cmp	 cl, BYTE PTR [esi+1]
  00c25	75 0e		 jne	 SHORT $LN2395@AddRenderI
  00c27	83 c0 02	 add	 eax, 2
  00c2a	83 c6 02	 add	 esi, 2
  00c2d	3a cb		 cmp	 cl, bl
  00c2f	75 e4		 jne	 SHORT $LL2394@AddRenderI
$LN2396@AddRenderI:
  00c31	33 c0		 xor	 eax, eax
  00c33	eb 05		 jmp	 SHORT $LN2397@AddRenderI
$LN2395@AddRenderI:
  00c35	1b c0		 sbb	 eax, eax
  00c37	83 d8 ff	 sbb	 eax, -1
$LN2397@AddRenderI:
  00c3a	3b c3		 cmp	 eax, ebx
  00c3c	75 30		 jne	 SHORT $LN2321@AddRenderI

; 188  : 	{
; 189  : 		SAFEDELETE( m_pUnderCount );

  00c3e	39 9f f0 01 00
	00		 cmp	 DWORD PTR [edi+496], ebx
  00c44	74 17		 je	 SHORT $LN5@AddRenderI
  00c46	8b 8f f0 01 00
	00		 mov	 ecx, DWORD PTR [edi+496]
  00c4c	3b cb		 cmp	 ecx, ebx
  00c4e	74 07		 je	 SHORT $LN99@AddRenderI
  00c50	8b 01		 mov	 eax, DWORD PTR [ecx]
  00c52	6a 01		 push	 1
  00c54	ff 50 40	 call	 DWORD PTR [eax+64]
$LN99@AddRenderI:
  00c57	89 9f f0 01 00
	00		 mov	 DWORD PTR [edi+496], ebx
$LN5@AddRenderI:

; 190  : 		m_pUnderCount = pImage;

  00c5d	8b 85 60 fe ff
	ff		 mov	 eax, DWORD PTR _pImage$GSCopy$[ebp]
  00c63	89 87 f0 01 00
	00		 mov	 DWORD PTR [edi+496], eax
  00c69	e9 99 00 00 00	 jmp	 $LN1@AddRenderI
$LN2321@AddRenderI:

; 191  : 	}
; 192  : 	else if( szType == "arrow" )

  00c6e	8b 8d 64 fe ff
	ff		 mov	 ecx, DWORD PTR _szType$GSCopy$[ebp]
  00c74	c7 85 dc fe ff
	ff 8c 9e 99 85	 mov	 DWORD PTR __t$512587[ebp], -2053529972 ; 85999e8cH
  00c7e	81 b5 dc fe ff
	ff ed ec eb ea	 xor	 DWORD PTR __t$512587[ebp], -353637139 ; eaebecedH
  00c88	66 c7 85 e0 fe
	ff ff 77 00	 mov	 WORD PTR __t$512587[ebp+4], 119 ; 00000077H
  00c91	8d b5 dc fe ff
	ff		 lea	 esi, DWORD PTR __t$512587[ebp]
  00c97	ff 15 00 00 00
	00		 call	 DWORD PTR __imp_?c_str@ioHashString@@QBEPBDXZ
$LL2398@AddRenderI:
  00c9d	8a 08		 mov	 cl, BYTE PTR [eax]
  00c9f	3a 0e		 cmp	 cl, BYTE PTR [esi]
  00ca1	75 1a		 jne	 SHORT $LN2399@AddRenderI
  00ca3	3a cb		 cmp	 cl, bl
  00ca5	74 12		 je	 SHORT $LN2400@AddRenderI
  00ca7	8a 48 01	 mov	 cl, BYTE PTR [eax+1]
  00caa	3a 4e 01	 cmp	 cl, BYTE PTR [esi+1]
  00cad	75 0e		 jne	 SHORT $LN2399@AddRenderI
  00caf	83 c0 02	 add	 eax, 2
  00cb2	83 c6 02	 add	 esi, 2
  00cb5	3a cb		 cmp	 cl, bl
  00cb7	75 e4		 jne	 SHORT $LL2398@AddRenderI
$LN2400@AddRenderI:
  00cb9	33 c0		 xor	 eax, eax
  00cbb	eb 05		 jmp	 SHORT $LN2401@AddRenderI
$LN2399@AddRenderI:
  00cbd	1b c0		 sbb	 eax, eax
  00cbf	83 d8 ff	 sbb	 eax, -1
$LN2401@AddRenderI:
  00cc2	3b c3		 cmp	 eax, ebx
  00cc4	75 2d		 jne	 SHORT $LN3@AddRenderI

; 193  : 	{
; 194  : 		SAFEDELETE( m_pArrow );

  00cc6	39 9f f4 01 00
	00		 cmp	 DWORD PTR [edi+500], ebx
  00ccc	74 17		 je	 SHORT $LN2@AddRenderI
  00cce	8b 8f f4 01 00
	00		 mov	 ecx, DWORD PTR [edi+500]
  00cd4	3b cb		 cmp	 ecx, ebx
  00cd6	74 07		 je	 SHORT $LN101@AddRenderI
  00cd8	8b 01		 mov	 eax, DWORD PTR [ecx]
  00cda	6a 01		 push	 1
  00cdc	ff 50 40	 call	 DWORD PTR [eax+64]
$LN101@AddRenderI:
  00cdf	89 9f f4 01 00
	00		 mov	 DWORD PTR [edi+500], ebx
$LN2@AddRenderI:

; 195  : 		m_pArrow = pImage;

  00ce5	8b 85 60 fe ff
	ff		 mov	 eax, DWORD PTR _pImage$GSCopy$[ebp]
  00ceb	89 87 f4 01 00
	00		 mov	 DWORD PTR [edi+500], eax

; 196  : 	}
; 197  : 	else

  00cf1	eb 14		 jmp	 SHORT $LN1@AddRenderI
$LN3@AddRenderI:

; 198  : 		ioWnd::AddRenderImage( szType, pImage );

  00cf3	ff b5 60 fe ff
	ff		 push	 DWORD PTR _pImage$GSCopy$[ebp]
  00cf9	8b cf		 mov	 ecx, edi
  00cfb	ff b5 64 fe ff
	ff		 push	 DWORD PTR _szType$GSCopy$[ebp]
  00d01	ff 15 00 00 00
	00		 call	 DWORD PTR __imp_?AddRenderImage@ioWnd@@UAEXABVioHashString@@PAVioUIRenderImage@@@Z
$LN1@AddRenderI:

; 199  : }

  00d07	8b 4d fc	 mov	 ecx, DWORD PTR __$ArrayPad$[ebp]
  00d0a	5f		 pop	 edi
  00d0b	5e		 pop	 esi
  00d0c	33 cd		 xor	 ecx, ebp
  00d0e	5b		 pop	 ebx
  00d0f	e8 00 00 00 00	 call	 @__security_check_cookie@4
  00d14	c9		 leave
  00d15	c2 08 00	 ret	 8
?AddRenderImage@RouletteWnd@@UAEXABVioHashString@@PAVioUIRenderImage@@@Z ENDP ; RouletteWnd::AddRenderImage
_TEXT	ENDS
PUBLIC	?OnProcess@RouletteWnd@@MAEXM@Z			; RouletteWnd::OnProcess
EXTRN	__imp_?OnProcess@ioWnd@@MAEXM@Z:PROC
EXTRN	?Update@io2DRotateQuad@@QAEXHHMH@Z:PROC		; io2DRotateQuad::Update
EXTRN	__imp_?GetDerivedPosX@ioWnd@@QBEHXZ:PROC
EXTRN	__imp_?GetDerivedPosY@ioWnd@@QBEHXZ:PROC
EXTRN	?GetHeight@io2DRotateQuad@@QAEHXZ:PROC		; io2DRotateQuad::GetHeight
EXTRN	?GetWidth@io2DRotateQuad@@QAEHXZ:PROC		; io2DRotateQuad::GetWidth
EXTRN	?GetEtcCoinMoney@ioMyInfo@@QAEHK@Z:PROC		; ioMyInfo::GetEtcCoinMoney
EXTRN	?GetSingleton@ioMyInfo@@SAAAV1@XZ:PROC		; ioMyInfo::GetSingleton
EXTRN	?IsRouletteEvent@ioRouletteManager@@QAE_NXZ:PROC ; ioRouletteManager::IsRouletteEvent
; Function compile flags: /Ogsp
;	COMDAT ?OnProcess@RouletteWnd@@MAEXM@Z
_TEXT	SEGMENT
_fTimePerSec$ = 8					; size = 4
?OnProcess@RouletteWnd@@MAEXM@Z PROC			; RouletteWnd::OnProcess, COMDAT
; _this$ = ecx

; 275  : {

  00000	55		 push	 ebp
  00001	8b ec		 mov	 ebp, esp
  00003	56		 push	 esi
  00004	8b f1		 mov	 esi, ecx

; 276  : 	if( !g_RouletteMgr.IsRouletteEvent() )

  00006	e8 00 00 00 00	 call	 ?GetSingleton@ioRouletteManager@@SAAAV1@XZ ; ioRouletteManager::GetSingleton
  0000b	8b c8		 mov	 ecx, eax
  0000d	e8 00 00 00 00	 call	 ?IsRouletteEvent@ioRouletteManager@@QAE_NXZ ; ioRouletteManager::IsRouletteEvent
  00012	84 c0		 test	 al, al
  00014	0f 84 02 01 00
	00		 je	 $LN4@OnProcess

; 277  : 		return;
; 278  : 
; 279  : 	m_iCurResultArray = max( m_iCurResultArray, g_RouletteMgr.GetCurResultGroupArray() );

  0001a	57		 push	 edi
  0001b	8b be 0c 02 00
	00		 mov	 edi, DWORD PTR [esi+524]
  00021	e8 00 00 00 00	 call	 ?GetSingleton@ioRouletteManager@@SAAAV1@XZ ; ioRouletteManager::GetSingleton
  00026	8b c8		 mov	 ecx, eax
  00028	e8 00 00 00 00	 call	 ?GetCurResultGroupArray@ioRouletteManager@@QAEHXZ ; ioRouletteManager::GetCurResultGroupArray
  0002d	3b f8		 cmp	 edi, eax
  0002f	7e 04		 jle	 SHORT $LN6@OnProcess
  00031	8b c7		 mov	 eax, edi
  00033	eb 0c		 jmp	 SHORT $LN7@OnProcess
$LN6@OnProcess:
  00035	e8 00 00 00 00	 call	 ?GetSingleton@ioRouletteManager@@SAAAV1@XZ ; ioRouletteManager::GetSingleton
  0003a	8b c8		 mov	 ecx, eax
  0003c	e8 00 00 00 00	 call	 ?GetCurResultGroupArray@ioRouletteManager@@QAEHXZ ; ioRouletteManager::GetCurResultGroupArray
$LN7@OnProcess:
  00041	89 86 0c 02 00
	00		 mov	 DWORD PTR [esi+524], eax

; 280  : 	
; 281  : 	if( m_iJoinUser < g_RouletteMgr.GetJoinCount() )

  00047	e8 00 00 00 00	 call	 ?GetSingleton@ioRouletteManager@@SAAAV1@XZ ; ioRouletteManager::GetSingleton
  0004c	bf ac 00 00 00	 mov	 edi, 172		; 000000acH
  00051	8b 4c 38 04	 mov	 ecx, DWORD PTR [eax+edi+4]
  00055	2b 0c 38	 sub	 ecx, DWORD PTR [eax+edi]
  00058	c1 f9 04	 sar	 ecx, 4
  0005b	39 8e 14 02 00
	00		 cmp	 DWORD PTR [esi+532], ecx
  00061	7d 07		 jge	 SHORT $LN2@OnProcess

; 282  : 		m_bSetUIEffect = true;

  00063	c6 86 18 02 00
	00 01		 mov	 BYTE PTR [esi+536], 1
$LN2@OnProcess:

; 283  : 
; 284  : 	m_iJoinUser = g_RouletteMgr.GetJoinCount();

  0006a	e8 00 00 00 00	 call	 ?GetSingleton@ioRouletteManager@@SAAAV1@XZ ; ioRouletteManager::GetSingleton
  0006f	8b 4c 38 04	 mov	 ecx, DWORD PTR [eax+edi+4]
  00073	2b 0c 38	 sub	 ecx, DWORD PTR [eax+edi]

; 285  : 	m_iCoin = g_MyInfo.GetEtcCoinMoney( ioEtcItem::EIT_ETC_ROULETTE_COIN );

  00076	68 96 4a 0f 00	 push	 1002134			; 000f4a96H
  0007b	c1 f9 04	 sar	 ecx, 4
  0007e	89 8e 14 02 00
	00		 mov	 DWORD PTR [esi+532], ecx
  00084	e8 00 00 00 00	 call	 ?GetSingleton@ioMyInfo@@SAAAV1@XZ ; ioMyInfo::GetSingleton
  00089	8b c8		 mov	 ecx, eax
  0008b	e8 00 00 00 00	 call	 ?GetEtcCoinMoney@ioMyInfo@@QAEHK@Z ; ioMyInfo::GetEtcCoinMoney

; 286  : 	m_iCoin = min( 999, m_iCoin );
; 287  : 
; 288  : 	if( m_pWheelQuad )

  00090	8b 8e f8 01 00
	00		 mov	 ecx, DWORD PTR [esi+504]
  00096	ba e7 03 00 00	 mov	 edx, 999		; 000003e7H
  0009b	3b c2		 cmp	 eax, edx
  0009d	0f 4f c2	 cmovg	 eax, edx
  000a0	89 86 10 02 00
	00		 mov	 DWORD PTR [esi+528], eax
  000a6	85 c9		 test	 ecx, ecx
  000a8	74 5e		 je	 SHORT $LN1@OnProcess

; 289  : 	{
; 290  : 		int iXOffset = m_pWheelQuad->GetWidth() / 2;

  000aa	53		 push	 ebx
  000ab	e8 00 00 00 00	 call	 ?GetWidth@io2DRotateQuad@@QAEHXZ ; io2DRotateQuad::GetWidth

; 291  : 		int iYOffset = m_pWheelQuad->GetHeight() / 2;

  000b0	8b 8e f8 01 00
	00		 mov	 ecx, DWORD PTR [esi+504]
  000b6	99		 cdq
  000b7	2b c2		 sub	 eax, edx
  000b9	8b f8		 mov	 edi, eax
  000bb	d1 ff		 sar	 edi, 1
  000bd	e8 00 00 00 00	 call	 ?GetHeight@io2DRotateQuad@@QAEHXZ ; io2DRotateQuad::GetHeight
  000c2	99		 cdq
  000c3	2b c2		 sub	 eax, edx
  000c5	8b d8		 mov	 ebx, eax
  000c7	d1 fb		 sar	 ebx, 1

; 292  : 		m_pWheelQuad->Update( GetDerivedPosX() + iXOffset - 5, GetDerivedPosY() + iYOffset - 5, g_RouletteMgr.GetCurAngle(), m_iCurResultArray );

  000c9	e8 00 00 00 00	 call	 ?GetSingleton@ioRouletteManager@@SAAAV1@XZ ; ioRouletteManager::GetSingleton
  000ce	ff b6 0c 02 00
	00		 push	 DWORD PTR [esi+524]
  000d4	f3 0f 10 80 78
	02 00 00	 movss	 xmm0, DWORD PTR [eax+632]
  000dc	51		 push	 ecx
  000dd	8b ce		 mov	 ecx, esi
  000df	f3 0f 11 04 24	 movss	 DWORD PTR [esp], xmm0
  000e4	ff 15 00 00 00
	00		 call	 DWORD PTR __imp_?GetDerivedPosY@ioWnd@@QBEHXZ
  000ea	8d 44 18 fb	 lea	 eax, DWORD PTR [eax+ebx-5]
  000ee	50		 push	 eax
  000ef	8b ce		 mov	 ecx, esi
  000f1	ff 15 00 00 00
	00		 call	 DWORD PTR __imp_?GetDerivedPosX@ioWnd@@QBEHXZ
  000f7	8b 8e f8 01 00
	00		 mov	 ecx, DWORD PTR [esi+504]
  000fd	8d 44 38 fb	 lea	 eax, DWORD PTR [eax+edi-5]
  00101	50		 push	 eax
  00102	e8 00 00 00 00	 call	 ?Update@io2DRotateQuad@@QAEXHHMH@Z ; io2DRotateQuad::Update
  00107	5b		 pop	 ebx
$LN1@OnProcess:

; 293  : 	}
; 294  : 
; 295  : 	ioMovingWnd::OnProcess( fTimePerSec );

  00108	f3 0f 10 45 08	 movss	 xmm0, DWORD PTR _fTimePerSec$[ebp]
  0010d	51		 push	 ecx
  0010e	8b ce		 mov	 ecx, esi
  00110	f3 0f 11 04 24	 movss	 DWORD PTR [esp], xmm0
  00115	ff 15 00 00 00
	00		 call	 DWORD PTR __imp_?OnProcess@ioWnd@@MAEXM@Z
  0011b	5f		 pop	 edi
$LN4@OnProcess:
  0011c	5e		 pop	 esi

; 296  : }

  0011d	5d		 pop	 ebp
  0011e	c2 04 00	 ret	 4
?OnProcess@RouletteWnd@@MAEXM@Z ENDP			; RouletteWnd::OnProcess
_TEXT	ENDS
PUBLIC	??0?$vector@UUIEffectAniInfo@RouletteWnd@@V?$allocator@UUIEffectAniInfo@RouletteWnd@@@std@@@std@@QAE@XZ ; std::vector<RouletteWnd::UIEffectAniInfo,std::allocator<RouletteWnd::UIEffectAniInfo> >::vector<RouletteWnd::UIEffectAniInfo,std::allocator<RouletteWnd::UIEffectAniInfo> >
; Function compile flags: /Ogsp
; File c:\program files (x86)\microsoft visual studio 10.0\vc\include\vector
;	COMDAT ??0?$vector@UUIEffectAniInfo@RouletteWnd@@V?$allocator@UUIEffectAniInfo@RouletteWnd@@@std@@@std@@QAE@XZ
_TEXT	SEGMENT
??0?$vector@UUIEffectAniInfo@RouletteWnd@@V?$allocator@UUIEffectAniInfo@RouletteWnd@@@std@@@std@@QAE@XZ PROC ; std::vector<RouletteWnd::UIEffectAniInfo,std::allocator<RouletteWnd::UIEffectAniInfo> >::vector<RouletteWnd::UIEffectAniInfo,std::allocator<RouletteWnd::UIEffectAniInfo> >, COMDAT
; _this$ = ecx

; 507  : 		{	// construct empty vector

  00000	8b c1		 mov	 eax, ecx
  00002	33 c9		 xor	 ecx, ecx
  00004	89 08		 mov	 DWORD PTR [eax], ecx
  00006	89 48 04	 mov	 DWORD PTR [eax+4], ecx
  00009	89 48 08	 mov	 DWORD PTR [eax+8], ecx

; 508  : 		}

  0000c	c3		 ret	 0
??0?$vector@UUIEffectAniInfo@RouletteWnd@@V?$allocator@UUIEffectAniInfo@RouletteWnd@@@std@@@std@@QAE@XZ ENDP ; std::vector<RouletteWnd::UIEffectAniInfo,std::allocator<RouletteWnd::UIEffectAniInfo> >::vector<RouletteWnd::UIEffectAniInfo,std::allocator<RouletteWnd::UIEffectAniInfo> >
_TEXT	ENDS
PUBLIC	?begin@?$vector@UUIEffectAniInfo@RouletteWnd@@V?$allocator@UUIEffectAniInfo@RouletteWnd@@@std@@@std@@QAE?AV?$_Vector_iterator@V?$_Vector_val@UUIEffectAniInfo@RouletteWnd@@V?$allocator@UUIEffectAniInfo@RouletteWnd@@@std@@@std@@@2@XZ ; std::vector<RouletteWnd::UIEffectAniInfo,std::allocator<RouletteWnd::UIEffectAniInfo> >::begin
; Function compile flags: /Ogsp
;	COMDAT ?begin@?$vector@UUIEffectAniInfo@RouletteWnd@@V?$allocator@UUIEffectAniInfo@RouletteWnd@@@std@@@std@@QAE?AV?$_Vector_iterator@V?$_Vector_val@UUIEffectAniInfo@RouletteWnd@@V?$allocator@UUIEffectAniInfo@RouletteWnd@@@std@@@std@@@2@XZ
_TEXT	SEGMENT
___$ReturnUdt$ = 8					; size = 4
?begin@?$vector@UUIEffectAniInfo@RouletteWnd@@V?$allocator@UUIEffectAniInfo@RouletteWnd@@@std@@@std@@QAE?AV?$_Vector_iterator@V?$_Vector_val@UUIEffectAniInfo@RouletteWnd@@V?$allocator@UUIEffectAniInfo@RouletteWnd@@@std@@@std@@@2@XZ PROC ; std::vector<RouletteWnd::UIEffectAniInfo,std::allocator<RouletteWnd::UIEffectAniInfo> >::begin, COMDAT
; _this$ = ecx

; 781  : 		{	// return iterator for beginning of mutable sequence

  00000	55		 push	 ebp
  00001	8b ec		 mov	 ebp, esp

; 782  : 		return (iterator(this->_Myfirst, this));

  00003	8b 09		 mov	 ecx, DWORD PTR [ecx]
  00005	8b 45 08	 mov	 eax, DWORD PTR ___$ReturnUdt$[ebp]
  00008	89 08		 mov	 DWORD PTR [eax], ecx

; 783  : 		}

  0000a	5d		 pop	 ebp
  0000b	c2 04 00	 ret	 4
?begin@?$vector@UUIEffectAniInfo@RouletteWnd@@V?$allocator@UUIEffectAniInfo@RouletteWnd@@@std@@@std@@QAE?AV?$_Vector_iterator@V?$_Vector_val@UUIEffectAniInfo@RouletteWnd@@V?$allocator@UUIEffectAniInfo@RouletteWnd@@@std@@@std@@@2@XZ ENDP ; std::vector<RouletteWnd::UIEffectAniInfo,std::allocator<RouletteWnd::UIEffectAniInfo> >::begin
_TEXT	ENDS
PUBLIC	?end@?$vector@UUIEffectAniInfo@RouletteWnd@@V?$allocator@UUIEffectAniInfo@RouletteWnd@@@std@@@std@@QAE?AV?$_Vector_iterator@V?$_Vector_val@UUIEffectAniInfo@RouletteWnd@@V?$allocator@UUIEffectAniInfo@RouletteWnd@@@std@@@std@@@2@XZ ; std::vector<RouletteWnd::UIEffectAniInfo,std::allocator<RouletteWnd::UIEffectAniInfo> >::end
; Function compile flags: /Ogsp
;	COMDAT ?end@?$vector@UUIEffectAniInfo@RouletteWnd@@V?$allocator@UUIEffectAniInfo@RouletteWnd@@@std@@@std@@QAE?AV?$_Vector_iterator@V?$_Vector_val@UUIEffectAniInfo@RouletteWnd@@V?$allocator@UUIEffectAniInfo@RouletteWnd@@@std@@@std@@@2@XZ
_TEXT	SEGMENT
___$ReturnUdt$ = 8					; size = 4
?end@?$vector@UUIEffectAniInfo@RouletteWnd@@V?$allocator@UUIEffectAniInfo@RouletteWnd@@@std@@@std@@QAE?AV?$_Vector_iterator@V?$_Vector_val@UUIEffectAniInfo@RouletteWnd@@V?$allocator@UUIEffectAniInfo@RouletteWnd@@@std@@@std@@@2@XZ PROC ; std::vector<RouletteWnd::UIEffectAniInfo,std::allocator<RouletteWnd::UIEffectAniInfo> >::end, COMDAT
; _this$ = ecx

; 791  : 		{	// return iterator for end of mutable sequence

  00000	55		 push	 ebp
  00001	8b ec		 mov	 ebp, esp

; 792  : 		return (iterator(this->_Mylast, this));

  00003	8b 49 04	 mov	 ecx, DWORD PTR [ecx+4]
  00006	8b 45 08	 mov	 eax, DWORD PTR ___$ReturnUdt$[ebp]
  00009	89 08		 mov	 DWORD PTR [eax], ecx

; 793  : 		}

  0000b	5d		 pop	 ebp
  0000c	c2 04 00	 ret	 4
?end@?$vector@UUIEffectAniInfo@RouletteWnd@@V?$allocator@UUIEffectAniInfo@RouletteWnd@@@std@@@std@@QAE?AV?$_Vector_iterator@V?$_Vector_val@UUIEffectAniInfo@RouletteWnd@@V?$allocator@UUIEffectAniInfo@RouletteWnd@@@std@@@std@@@2@XZ ENDP ; std::vector<RouletteWnd::UIEffectAniInfo,std::allocator<RouletteWnd::UIEffectAniInfo> >::end
_TEXT	ENDS
PUBLIC	??9?$_Vector_const_iterator@V?$_Vector_val@UUIEffectAniInfo@RouletteWnd@@V?$allocator@UUIEffectAniInfo@RouletteWnd@@@std@@@std@@@std@@QBE_NABV01@@Z ; std::_Vector_const_iterator<std::_Vector_val<RouletteWnd::UIEffectAniInfo,std::allocator<RouletteWnd::UIEffectAniInfo> > >::operator!=
; Function compile flags: /Ogsp
;	COMDAT ??9?$_Vector_const_iterator@V?$_Vector_val@UUIEffectAniInfo@RouletteWnd@@V?$allocator@UUIEffectAniInfo@RouletteWnd@@@std@@@std@@@std@@QBE_NABV01@@Z
_TEXT	SEGMENT
__Right$ = 8						; size = 4
??9?$_Vector_const_iterator@V?$_Vector_val@UUIEffectAniInfo@RouletteWnd@@V?$allocator@UUIEffectAniInfo@RouletteWnd@@@std@@@std@@@std@@QBE_NABV01@@Z PROC ; std::_Vector_const_iterator<std::_Vector_val<RouletteWnd::UIEffectAniInfo,std::allocator<RouletteWnd::UIEffectAniInfo> > >::operator!=, COMDAT
; _this$ = ecx

; 207  : 		{	// test for iterator inequality

  00000	55		 push	 ebp
  00001	8b ec		 mov	 ebp, esp

; 208  : 		return (!(*this == _Right));

  00003	8b 01		 mov	 eax, DWORD PTR [ecx]
  00005	8b 55 08	 mov	 edx, DWORD PTR __Right$[ebp]
  00008	33 c9		 xor	 ecx, ecx
  0000a	3b 02		 cmp	 eax, DWORD PTR [edx]
  0000c	0f 95 c0	 setne	 al

; 209  : 		}

  0000f	5d		 pop	 ebp
  00010	c2 04 00	 ret	 4
??9?$_Vector_const_iterator@V?$_Vector_val@UUIEffectAniInfo@RouletteWnd@@V?$allocator@UUIEffectAniInfo@RouletteWnd@@@std@@@std@@@std@@QBE_NABV01@@Z ENDP ; std::_Vector_const_iterator<std::_Vector_val<RouletteWnd::UIEffectAniInfo,std::allocator<RouletteWnd::UIEffectAniInfo> > >::operator!=
_TEXT	ENDS
PUBLIC	?_Make_iter@?$vector@UUIEffectAniInfo@RouletteWnd@@V?$allocator@UUIEffectAniInfo@RouletteWnd@@@std@@@std@@QBE?AV?$_Vector_iterator@V?$_Vector_val@UUIEffectAniInfo@RouletteWnd@@V?$allocator@UUIEffectAniInfo@RouletteWnd@@@std@@@std@@@2@V?$_Vector_const_iterator@V?$_Vector_val@UUIEffectAniInfo@RouletteWnd@@V?$allocator@UUIEffectAniInfo@RouletteWnd@@@std@@@std@@@2@@Z ; std::vector<RouletteWnd::UIEffectAniInfo,std::allocator<RouletteWnd::UIEffectAniInfo> >::_Make_iter
; Function compile flags: /Ogsp
;	COMDAT ?_Make_iter@?$vector@UUIEffectAniInfo@RouletteWnd@@V?$allocator@UUIEffectAniInfo@RouletteWnd@@@std@@@std@@QBE?AV?$_Vector_iterator@V?$_Vector_val@UUIEffectAniInfo@RouletteWnd@@V?$allocator@UUIEffectAniInfo@RouletteWnd@@@std@@@std@@@2@V?$_Vector_const_iterator@V?$_Vector_val@UUIEffectAniInfo@RouletteWnd@@V?$allocator@UUIEffectAniInfo@RouletteWnd@@@std@@@std@@@2@@Z
_TEXT	SEGMENT
___$ReturnUdt$ = 8					; size = 4
__Where$ = 12						; size = 4
?_Make_iter@?$vector@UUIEffectAniInfo@RouletteWnd@@V?$allocator@UUIEffectAniInfo@RouletteWnd@@@std@@@std@@QBE?AV?$_Vector_iterator@V?$_Vector_val@UUIEffectAniInfo@RouletteWnd@@V?$allocator@UUIEffectAniInfo@RouletteWnd@@@std@@@std@@@2@V?$_Vector_const_iterator@V?$_Vector_val@UUIEffectAniInfo@RouletteWnd@@V?$allocator@UUIEffectAniInfo@RouletteWnd@@@std@@@std@@@2@@Z PROC ; std::vector<RouletteWnd::UIEffectAniInfo,std::allocator<RouletteWnd::UIEffectAniInfo> >::_Make_iter, COMDAT
; _this$ = ecx

; 801  : 		{	// make iterator from const_iterator

  00000	55		 push	 ebp
  00001	8b ec		 mov	 ebp, esp

; 802  : 		return (iterator(_Where._Ptr, this));

  00003	8b 45 08	 mov	 eax, DWORD PTR ___$ReturnUdt$[ebp]
  00006	8b 4d 0c	 mov	 ecx, DWORD PTR __Where$[ebp]
  00009	89 08		 mov	 DWORD PTR [eax], ecx

; 803  : 		}

  0000b	5d		 pop	 ebp
  0000c	c2 08 00	 ret	 8
?_Make_iter@?$vector@UUIEffectAniInfo@RouletteWnd@@V?$allocator@UUIEffectAniInfo@RouletteWnd@@@std@@@std@@QBE?AV?$_Vector_iterator@V?$_Vector_val@UUIEffectAniInfo@RouletteWnd@@V?$allocator@UUIEffectAniInfo@RouletteWnd@@@std@@@std@@@2@V?$_Vector_const_iterator@V?$_Vector_val@UUIEffectAniInfo@RouletteWnd@@V?$allocator@UUIEffectAniInfo@RouletteWnd@@@std@@@std@@@2@@Z ENDP ; std::vector<RouletteWnd::UIEffectAniInfo,std::allocator<RouletteWnd::UIEffectAniInfo> >::_Make_iter
_TEXT	ENDS
PUBLIC	?_Grow_to@?$vector@VioHashString@@V?$allocator@VioHashString@@@std@@@std@@IBEII@Z ; std::vector<ioHashString,std::allocator<ioHashString> >::_Grow_to
; Function compile flags: /Ogsp
;	COMDAT ?_Grow_to@?$vector@VioHashString@@V?$allocator@VioHashString@@@std@@@std@@IBEII@Z
_TEXT	SEGMENT
__Count$ = 8						; size = 4
?_Grow_to@?$vector@VioHashString@@V?$allocator@VioHashString@@@std@@@std@@IBEII@Z PROC ; std::vector<ioHashString,std::allocator<ioHashString> >::_Grow_to, COMDAT
; _this$ = ecx

; 1274 : 		{	// grow by 50% or at least to _Count

  00000	55		 push	 ebp
  00001	8b ec		 mov	 ebp, esp

; 1275 : 		size_type _Capacity = capacity();

  00003	8b 41 08	 mov	 eax, DWORD PTR [ecx+8]
  00006	2b 01		 sub	 eax, DWORD PTR [ecx]

; 1276 : 
; 1277 : 		_Capacity = max_size() - _Capacity / 2 < _Capacity
; 1278 : 			? 0 : _Capacity + _Capacity / 2;	// try to grow by 50%

  00008	ba ff ff ff 0f	 mov	 edx, 268435455		; 0fffffffH
  0000d	c1 f8 04	 sar	 eax, 4
  00010	8b c8		 mov	 ecx, eax
  00012	d1 e9		 shr	 ecx, 1
  00014	2b d1		 sub	 edx, ecx
  00016	3b d0		 cmp	 edx, eax
  00018	73 04		 jae	 SHORT $LN4@Grow_to@2
  0001a	33 c0		 xor	 eax, eax
  0001c	eb 02		 jmp	 SHORT $LN5@Grow_to@2
$LN4@Grow_to@2:
  0001e	03 c1		 add	 eax, ecx
$LN5@Grow_to@2:

; 1279 : 		if (_Capacity < _Count)

  00020	3b 45 08	 cmp	 eax, DWORD PTR __Count$[ebp]

; 1280 : 			_Capacity = _Count;

  00023	0f 42 45 08	 cmovb	 eax, DWORD PTR __Count$[ebp]

; 1281 : 		return (_Capacity);
; 1282 : 		}

  00027	5d		 pop	 ebp
  00028	c2 04 00	 ret	 4
?_Grow_to@?$vector@VioHashString@@V?$allocator@VioHashString@@@std@@@std@@IBEII@Z ENDP ; std::vector<ioHashString,std::allocator<ioHashString> >::_Grow_to
_TEXT	ENDS
PUBLIC	??$_Cons_val@V?$allocator@VioHashString@@@std@@VioHashString@@AAV3@@std@@YAXAAV?$allocator@VioHashString@@@0@PAVioHashString@@AAV2@@Z ; std::_Cons_val<std::allocator<ioHashString>,ioHashString,ioHashString &>
; Function compile flags: /Ogsp
; File c:\program files (x86)\microsoft visual studio 10.0\vc\include\xmemory
;	COMDAT ??$_Cons_val@V?$allocator@VioHashString@@@std@@VioHashString@@AAV3@@std@@YAXAAV?$allocator@VioHashString@@@0@PAVioHashString@@AAV2@@Z
_TEXT	SEGMENT
__Alval$ = 8						; size = 4
__Pdest$ = 12						; size = 4
__Src$ = 16						; size = 4
??$_Cons_val@V?$allocator@VioHashString@@@std@@VioHashString@@AAV3@@std@@YAXAAV?$allocator@VioHashString@@@0@PAVioHashString@@AAV2@@Z PROC ; std::_Cons_val<std::allocator<ioHashString>,ioHashString,ioHashString &>, COMDAT

; 279  : 	{	// construct using allocator

  00000	55		 push	 ebp
  00001	8b ec		 mov	 ebp, esp

; 280  : 	_Alval.construct(_Pdest, _STD forward<_Ty2>(_Src));

  00003	ff 75 10	 push	 DWORD PTR __Src$[ebp]
  00006	8b 4d 08	 mov	 ecx, DWORD PTR __Alval$[ebp]
  00009	ff 75 0c	 push	 DWORD PTR __Pdest$[ebp]
  0000c	e8 00 00 00 00	 call	 ??$construct@AAVioHashString@@@?$allocator@VioHashString@@@std@@QAEXPAVioHashString@@AAV2@@Z ; std::allocator<ioHashString>::construct<ioHashString &>

; 281  : 	}

  00011	5d		 pop	 ebp
  00012	c3		 ret	 0
??$_Cons_val@V?$allocator@VioHashString@@@std@@VioHashString@@AAV3@@std@@YAXAAV?$allocator@VioHashString@@@0@PAVioHashString@@AAV2@@Z ENDP ; std::_Cons_val<std::allocator<ioHashString>,ioHashString,ioHashString &>
_TEXT	ENDS
PUBLIC	??$_Cons_val@V?$allocator@UUIEffectAniInfo@RouletteWnd@@@std@@UUIEffectAniInfo@RouletteWnd@@ABU34@@std@@YAXAAV?$allocator@UUIEffectAniInfo@RouletteWnd@@@0@PAUUIEffectAniInfo@RouletteWnd@@ABU23@@Z ; std::_Cons_val<std::allocator<RouletteWnd::UIEffectAniInfo>,RouletteWnd::UIEffectAniInfo,RouletteWnd::UIEffectAniInfo const &>
; Function compile flags: /Ogsp
;	COMDAT ??$_Cons_val@V?$allocator@UUIEffectAniInfo@RouletteWnd@@@std@@UUIEffectAniInfo@RouletteWnd@@ABU34@@std@@YAXAAV?$allocator@UUIEffectAniInfo@RouletteWnd@@@0@PAUUIEffectAniInfo@RouletteWnd@@ABU23@@Z
_TEXT	SEGMENT
__Alval$ = 8						; size = 4
__Pdest$ = 12						; size = 4
__Src$ = 16						; size = 4
??$_Cons_val@V?$allocator@UUIEffectAniInfo@RouletteWnd@@@std@@UUIEffectAniInfo@RouletteWnd@@ABU34@@std@@YAXAAV?$allocator@UUIEffectAniInfo@RouletteWnd@@@0@PAUUIEffectAniInfo@RouletteWnd@@ABU23@@Z PROC ; std::_Cons_val<std::allocator<RouletteWnd::UIEffectAniInfo>,RouletteWnd::UIEffectAniInfo,RouletteWnd::UIEffectAniInfo const &>, COMDAT

; 279  : 	{	// construct using allocator

  00000	55		 push	 ebp
  00001	8b ec		 mov	 ebp, esp
  00003	57		 push	 edi

; 280  : 	_Alval.construct(_Pdest, _STD forward<_Ty2>(_Src));

  00004	8b 7d 0c	 mov	 edi, DWORD PTR __Pdest$[ebp]
  00007	85 ff		 test	 edi, edi
  00009	74 0a		 je	 SHORT $LN9@Cons_val@2
  0000b	56		 push	 esi
  0000c	8b 75 10	 mov	 esi, DWORD PTR __Src$[ebp]
  0000f	6a 08		 push	 8
  00011	59		 pop	 ecx
  00012	f3 a5		 rep movsd
  00014	5e		 pop	 esi
$LN9@Cons_val@2:
  00015	5f		 pop	 edi

; 281  : 	}

  00016	5d		 pop	 ebp
  00017	c3		 ret	 0
??$_Cons_val@V?$allocator@UUIEffectAniInfo@RouletteWnd@@@std@@UUIEffectAniInfo@RouletteWnd@@ABU34@@std@@YAXAAV?$allocator@UUIEffectAniInfo@RouletteWnd@@@0@PAUUIEffectAniInfo@RouletteWnd@@ABU23@@Z ENDP ; std::_Cons_val<std::allocator<RouletteWnd::UIEffectAniInfo>,RouletteWnd::UIEffectAniInfo,RouletteWnd::UIEffectAniInfo const &>
_TEXT	ENDS
PUBLIC	??$_Move@PAUUIEffectAniInfo@RouletteWnd@@PAU12@@std@@YAPAUUIEffectAniInfo@RouletteWnd@@PAU12@00@Z ; std::_Move<RouletteWnd::UIEffectAniInfo *,RouletteWnd::UIEffectAniInfo *>
; Function compile flags: /Ogsp
; File c:\program files (x86)\microsoft visual studio 10.0\vc\include\xutility
;	COMDAT ??$_Move@PAUUIEffectAniInfo@RouletteWnd@@PAU12@@std@@YAPAUUIEffectAniInfo@RouletteWnd@@PAU12@00@Z
_TEXT	SEGMENT
__Cat$513070 = -4					; size = 1
__First$ = 8						; size = 4
__Last$ = 12						; size = 4
__Dest$ = 16						; size = 4
??$_Move@PAUUIEffectAniInfo@RouletteWnd@@PAU12@@std@@YAPAUUIEffectAniInfo@RouletteWnd@@PAU12@00@Z PROC ; std::_Move<RouletteWnd::UIEffectAniInfo *,RouletteWnd::UIEffectAniInfo *>, COMDAT

; 2533 : 	{	// move [_First, _Last) to [_Dest, ...), unchecked

  00000	55		 push	 ebp
  00001	8b ec		 mov	 ebp, esp
  00003	51		 push	 ecx

; 2534 : 	return (_Move(_First, _Last,
; 2535 : 		_Dest, _Ptr_cat(_First, _Dest)));

  00004	ff 75 fc	 push	 DWORD PTR __Cat$513070[ebp]
  00007	ff 75 10	 push	 DWORD PTR __Dest$[ebp]
  0000a	ff 75 0c	 push	 DWORD PTR __Last$[ebp]
  0000d	ff 75 08	 push	 DWORD PTR __First$[ebp]
  00010	e8 00 00 00 00	 call	 ??$_Move@PAUUIEffectAniInfo@RouletteWnd@@PAU12@@std@@YAPAUUIEffectAniInfo@RouletteWnd@@PAU12@00U_Nonscalar_ptr_iterator_tag@0@@Z ; std::_Move<RouletteWnd::UIEffectAniInfo *,RouletteWnd::UIEffectAniInfo *>
  00015	83 c4 10	 add	 esp, 16			; 00000010H

; 2536 : 	}

  00018	c9		 leave
  00019	c3		 ret	 0
??$_Move@PAUUIEffectAniInfo@RouletteWnd@@PAU12@@std@@YAPAUUIEffectAniInfo@RouletteWnd@@PAU12@00@Z ENDP ; std::_Move<RouletteWnd::UIEffectAniInfo *,RouletteWnd::UIEffectAniInfo *>
_TEXT	ENDS
PUBLIC	??$_Dest_val@V?$allocator@UUIEffectAniInfo@RouletteWnd@@@std@@UUIEffectAniInfo@RouletteWnd@@@std@@YAXAAV?$allocator@UUIEffectAniInfo@RouletteWnd@@@0@PAUUIEffectAniInfo@RouletteWnd@@@Z ; std::_Dest_val<std::allocator<RouletteWnd::UIEffectAniInfo>,RouletteWnd::UIEffectAniInfo>
; Function compile flags: /Ogsp
; File c:\program files (x86)\microsoft visual studio 10.0\vc\include\xmemory
;	COMDAT ??$_Dest_val@V?$allocator@UUIEffectAniInfo@RouletteWnd@@@std@@UUIEffectAniInfo@RouletteWnd@@@std@@YAXAAV?$allocator@UUIEffectAniInfo@RouletteWnd@@@0@PAUUIEffectAniInfo@RouletteWnd@@@Z
_TEXT	SEGMENT
__Alval$ = 8						; size = 4
__Pdest$ = 12						; size = 4
??$_Dest_val@V?$allocator@UUIEffectAniInfo@RouletteWnd@@@std@@UUIEffectAniInfo@RouletteWnd@@@std@@YAXAAV?$allocator@UUIEffectAniInfo@RouletteWnd@@@0@PAUUIEffectAniInfo@RouletteWnd@@@Z PROC ; std::_Dest_val<std::allocator<RouletteWnd::UIEffectAniInfo>,RouletteWnd::UIEffectAniInfo>, COMDAT

; 287  : 	_Alval.destroy(_Pdest);
; 288  : 	}

  00000	c3		 ret	 0
??$_Dest_val@V?$allocator@UUIEffectAniInfo@RouletteWnd@@@std@@UUIEffectAniInfo@RouletteWnd@@@std@@YAXAAV?$allocator@UUIEffectAniInfo@RouletteWnd@@@0@PAUUIEffectAniInfo@RouletteWnd@@@Z ENDP ; std::_Dest_val<std::allocator<RouletteWnd::UIEffectAniInfo>,RouletteWnd::UIEffectAniInfo>
_TEXT	ENDS
PUBLIC	??$_Cons_val@V?$allocator@VioHashString@@@std@@VioHashString@@V3@@std@@YAXAAV?$allocator@VioHashString@@@0@PAVioHashString@@$$QAV2@@Z ; std::_Cons_val<std::allocator<ioHashString>,ioHashString,ioHashString>
; Function compile flags: /Ogsp
;	COMDAT ??$_Cons_val@V?$allocator@VioHashString@@@std@@VioHashString@@V3@@std@@YAXAAV?$allocator@VioHashString@@@0@PAVioHashString@@$$QAV2@@Z
_TEXT	SEGMENT
__Alval$ = 8						; size = 4
__Pdest$ = 12						; size = 4
__Src$ = 16						; size = 4
??$_Cons_val@V?$allocator@VioHashString@@@std@@VioHashString@@V3@@std@@YAXAAV?$allocator@VioHashString@@@0@PAVioHashString@@$$QAV2@@Z PROC ; std::_Cons_val<std::allocator<ioHashString>,ioHashString,ioHashString>, COMDAT

; 279  : 	{	// construct using allocator

  00000	55		 push	 ebp
  00001	8b ec		 mov	 ebp, esp

; 280  : 	_Alval.construct(_Pdest, _STD forward<_Ty2>(_Src));

  00003	ff 75 10	 push	 DWORD PTR __Src$[ebp]
  00006	8b 4d 08	 mov	 ecx, DWORD PTR __Alval$[ebp]
  00009	ff 75 0c	 push	 DWORD PTR __Pdest$[ebp]
  0000c	e8 00 00 00 00	 call	 ?construct@?$allocator@VioHashString@@@std@@QAEXPAVioHashString@@$$QAV3@@Z ; std::allocator<ioHashString>::construct

; 281  : 	}

  00011	5d		 pop	 ebp
  00012	c3		 ret	 0
??$_Cons_val@V?$allocator@VioHashString@@@std@@VioHashString@@V3@@std@@YAXAAV?$allocator@VioHashString@@@0@PAVioHashString@@$$QAV2@@Z ENDP ; std::_Cons_val<std::allocator<ioHashString>,ioHashString,ioHashString>
_TEXT	ENDS
PUBLIC	??$_Cons_val@V?$allocator@UUIEffectAniInfo@RouletteWnd@@@std@@UUIEffectAniInfo@RouletteWnd@@U34@@std@@YAXAAV?$allocator@UUIEffectAniInfo@RouletteWnd@@@0@PAUUIEffectAniInfo@RouletteWnd@@$$QAU23@@Z ; std::_Cons_val<std::allocator<RouletteWnd::UIEffectAniInfo>,RouletteWnd::UIEffectAniInfo,RouletteWnd::UIEffectAniInfo>
; Function compile flags: /Ogsp
;	COMDAT ??$_Cons_val@V?$allocator@UUIEffectAniInfo@RouletteWnd@@@std@@UUIEffectAniInfo@RouletteWnd@@U34@@std@@YAXAAV?$allocator@UUIEffectAniInfo@RouletteWnd@@@0@PAUUIEffectAniInfo@RouletteWnd@@$$QAU23@@Z
_TEXT	SEGMENT
__Alval$ = 8						; size = 4
__Pdest$ = 12						; size = 4
__Src$ = 16						; size = 4
??$_Cons_val@V?$allocator@UUIEffectAniInfo@RouletteWnd@@@std@@UUIEffectAniInfo@RouletteWnd@@U34@@std@@YAXAAV?$allocator@UUIEffectAniInfo@RouletteWnd@@@0@PAUUIEffectAniInfo@RouletteWnd@@$$QAU23@@Z PROC ; std::_Cons_val<std::allocator<RouletteWnd::UIEffectAniInfo>,RouletteWnd::UIEffectAniInfo,RouletteWnd::UIEffectAniInfo>, COMDAT

; 279  : 	{	// construct using allocator

  00000	55		 push	 ebp
  00001	8b ec		 mov	 ebp, esp
  00003	57		 push	 edi

; 280  : 	_Alval.construct(_Pdest, _STD forward<_Ty2>(_Src));

  00004	8b 7d 0c	 mov	 edi, DWORD PTR __Pdest$[ebp]
  00007	85 ff		 test	 edi, edi
  00009	74 0a		 je	 SHORT $LN7@Cons_val@3
  0000b	56		 push	 esi
  0000c	8b 75 10	 mov	 esi, DWORD PTR __Src$[ebp]
  0000f	6a 08		 push	 8
  00011	59		 pop	 ecx
  00012	f3 a5		 rep movsd
  00014	5e		 pop	 esi
$LN7@Cons_val@3:
  00015	5f		 pop	 edi

; 281  : 	}

  00016	5d		 pop	 ebp
  00017	c3		 ret	 0
??$_Cons_val@V?$allocator@UUIEffectAniInfo@RouletteWnd@@@std@@UUIEffectAniInfo@RouletteWnd@@U34@@std@@YAXAAV?$allocator@UUIEffectAniInfo@RouletteWnd@@@0@PAUUIEffectAniInfo@RouletteWnd@@$$QAU23@@Z ENDP ; std::_Cons_val<std::allocator<RouletteWnd::UIEffectAniInfo>,RouletteWnd::UIEffectAniInfo,RouletteWnd::UIEffectAniInfo>
_TEXT	ENDS
PUBLIC	?GetJoinEndTime@ioRouletteManager@@QAEKXZ	; ioRouletteManager::GetJoinEndTime
; Function compile flags: /Ogsp
; File d:\lost saga for developer\youtube\tutorial\source\src\lsclient\ioroulettemanager.h
;	COMDAT ?GetJoinEndTime@ioRouletteManager@@QAEKXZ
_TEXT	SEGMENT
_value$513118 = -4					; size = 4
?GetJoinEndTime@ioRouletteManager@@QAEKXZ PROC		; ioRouletteManager::GetJoinEndTime, COMDAT
; _this$ = ecx

; 217  : 	DWORD GetJoinEndTime() { return m_dwSpinStartTime+m_dwJoinEndTime; }

  00000	55		 push	 ebp
  00001	8b ec		 mov	 ebp, esp
  00003	51		 push	 ecx
  00004	56		 push	 esi
  00005	8b f1		 mov	 esi, ecx
  00007	8d 45 fc	 lea	 eax, DWORD PTR _value$513118[ebp]
  0000a	50		 push	 eax
  0000b	8d 8e 28 01 00
	00		 lea	 ecx, DWORD PTR [esi+296]
  00011	e8 00 00 00 00	 call	 ?DecryptValueToPool@?$CEncrypt@K@@QAEXPAK@Z ; CEncrypt<unsigned long>::DecryptValueToPool
  00016	8b 86 c0 00 00
	00		 mov	 eax, DWORD PTR [esi+192]
  0001c	03 45 fc	 add	 eax, DWORD PTR _value$513118[ebp]
  0001f	5e		 pop	 esi
  00020	c9		 leave
  00021	c3		 ret	 0
?GetJoinEndTime@ioRouletteManager@@QAEKXZ ENDP		; ioRouletteManager::GetJoinEndTime
_TEXT	ENDS
PUBLIC	??0?$vector@VioHashString@@V?$allocator@VioHashString@@@std@@@std@@QAE@XZ ; std::vector<ioHashString,std::allocator<ioHashString> >::vector<ioHashString,std::allocator<ioHashString> >
; Function compile flags: /Ogsp
; File c:\program files (x86)\microsoft visual studio 10.0\vc\include\vector
;	COMDAT ??0?$vector@VioHashString@@V?$allocator@VioHashString@@@std@@@std@@QAE@XZ
_TEXT	SEGMENT
??0?$vector@VioHashString@@V?$allocator@VioHashString@@@std@@@std@@QAE@XZ PROC ; std::vector<ioHashString,std::allocator<ioHashString> >::vector<ioHashString,std::allocator<ioHashString> >, COMDAT
; _this$ = ecx

; 507  : 		{	// construct empty vector

  00000	8b c1		 mov	 eax, ecx
  00002	33 c9		 xor	 ecx, ecx
  00004	89 08		 mov	 DWORD PTR [eax], ecx
  00006	89 48 04	 mov	 DWORD PTR [eax+4], ecx
  00009	89 48 08	 mov	 DWORD PTR [eax+8], ecx

; 508  : 		}

  0000c	c3		 ret	 0
??0?$vector@VioHashString@@V?$allocator@VioHashString@@@std@@@std@@QAE@XZ ENDP ; std::vector<ioHashString,std::allocator<ioHashString> >::vector<ioHashString,std::allocator<ioHashString> >
_TEXT	ENDS
PUBLIC	?_Buy@?$vector@VioHashString@@V?$allocator@VioHashString@@@std@@@std@@IAE_NI@Z ; std::vector<ioHashString,std::allocator<ioHashString> >::_Buy
; Function compile flags: /Ogsp
;	COMDAT ?_Buy@?$vector@VioHashString@@V?$allocator@VioHashString@@@std@@@std@@IAE_NI@Z
_TEXT	SEGMENT
__Capacity$ = 8						; size = 4
?_Buy@?$vector@VioHashString@@V?$allocator@VioHashString@@@std@@@std@@IAE_NI@Z PROC ; std::vector<ioHashString,std::allocator<ioHashString> >::_Buy, COMDAT
; _this$ = ecx

; 1250 : 		{	// allocate array with _Capacity elements

  00000	55		 push	 ebp
  00001	8b ec		 mov	 ebp, esp
  00003	56		 push	 esi

; 1251 : 		this->_Myfirst = 0;

  00004	33 c0		 xor	 eax, eax
  00006	57		 push	 edi

; 1252 : 		this->_Mylast = 0;
; 1253 : 		this->_Myend = 0;
; 1254 : 
; 1255 : 		if (_Capacity == 0)

  00007	8b 7d 08	 mov	 edi, DWORD PTR __Capacity$[ebp]
  0000a	8b f1		 mov	 esi, ecx
  0000c	89 06		 mov	 DWORD PTR [esi], eax
  0000e	89 46 04	 mov	 DWORD PTR [esi+4], eax
  00011	89 46 08	 mov	 DWORD PTR [esi+8], eax
  00014	3b f8		 cmp	 edi, eax
  00016	75 04		 jne	 SHORT $LN4@Buy

; 1256 : 			return (false);

  00018	32 c0		 xor	 al, al
  0001a	eb 2b		 jmp	 SHORT $LN5@Buy
$LN4@Buy:

; 1257 : 		else if (max_size() < _Capacity)

  0001c	81 ff ff ff ff
	0f		 cmp	 edi, 268435455		; 0fffffffH
  00022	76 0b		 jbe	 SHORT $LN2@Buy

; 1258 : 			_Xlen();	// result too long

  00024	68 00 00 00 00	 push	 OFFSET ??_C@_0BD@OLBABOEK@vector?$DMT?$DO?5too?5long?$AA@
  00029	ff 15 00 00 00
	00		 call	 DWORD PTR __imp_?_Xlength_error@std@@YAXPBD@Z
$LN19@Buy:
$LN2@Buy:

; 1259 : 		else
; 1260 : 			{	// nonempty array, allocate storage
; 1261 : 			this->_Myfirst = this->_Alval.allocate(_Capacity);

  0002f	50		 push	 eax
  00030	57		 push	 edi
  00031	e8 00 00 00 00	 call	 ??$_Allocate@VioHashString@@@std@@YAPAVioHashString@@IPAV1@@Z ; std::_Allocate<ioHashString>

; 1262 : 			this->_Mylast = this->_Myfirst;
; 1263 : 			this->_Myend = this->_Myfirst + _Capacity;

  00036	c1 e7 04	 shl	 edi, 4
  00039	03 f8		 add	 edi, eax
  0003b	59		 pop	 ecx
  0003c	89 06		 mov	 DWORD PTR [esi], eax
  0003e	89 46 04	 mov	 DWORD PTR [esi+4], eax
  00041	59		 pop	 ecx
  00042	89 7e 08	 mov	 DWORD PTR [esi+8], edi

; 1264 : 			}
; 1265 : 		return (true);

  00045	b0 01		 mov	 al, 1
$LN5@Buy:
  00047	5f		 pop	 edi
  00048	5e		 pop	 esi

; 1266 : 		}

  00049	5d		 pop	 ebp
  0004a	c2 04 00	 ret	 4
$LN18@Buy:
?_Buy@?$vector@VioHashString@@V?$allocator@VioHashString@@@std@@@std@@IAE_NI@Z ENDP ; std::vector<ioHashString,std::allocator<ioHashString> >::_Buy
_TEXT	ENDS
PUBLIC	??9?$_Vector_const_iterator@V?$_Vector_val@VioHashString@@V?$allocator@VioHashString@@@std@@@std@@@std@@QBE_NABV01@@Z ; std::_Vector_const_iterator<std::_Vector_val<ioHashString,std::allocator<ioHashString> > >::operator!=
; Function compile flags: /Ogsp
;	COMDAT ??9?$_Vector_const_iterator@V?$_Vector_val@VioHashString@@V?$allocator@VioHashString@@@std@@@std@@@std@@QBE_NABV01@@Z
_TEXT	SEGMENT
__Right$ = 8						; size = 4
??9?$_Vector_const_iterator@V?$_Vector_val@VioHashString@@V?$allocator@VioHashString@@@std@@@std@@@std@@QBE_NABV01@@Z PROC ; std::_Vector_const_iterator<std::_Vector_val<ioHashString,std::allocator<ioHashString> > >::operator!=, COMDAT
; _this$ = ecx

; 207  : 		{	// test for iterator inequality

  00000	55		 push	 ebp
  00001	8b ec		 mov	 ebp, esp

; 208  : 		return (!(*this == _Right));

  00003	8b 01		 mov	 eax, DWORD PTR [ecx]
  00005	8b 55 08	 mov	 edx, DWORD PTR __Right$[ebp]
  00008	33 c9		 xor	 ecx, ecx
  0000a	3b 02		 cmp	 eax, DWORD PTR [edx]
  0000c	0f 95 c0	 setne	 al

; 209  : 		}

  0000f	5d		 pop	 ebp
  00010	c2 04 00	 ret	 4
??9?$_Vector_const_iterator@V?$_Vector_val@VioHashString@@V?$allocator@VioHashString@@@std@@@std@@@std@@QBE_NABV01@@Z ENDP ; std::_Vector_const_iterator<std::_Vector_val<ioHashString,std::allocator<ioHashString> > >::operator!=
_TEXT	ENDS
PUBLIC	?destroy@?$allocator@VioHashString@@@std@@QAEXPAVioHashString@@@Z ; std::allocator<ioHashString>::destroy
; Function compile flags: /Ogsp
; File c:\program files (x86)\microsoft visual studio 10.0\vc\include\xmemory
;	COMDAT ?destroy@?$allocator@VioHashString@@@std@@QAEXPAVioHashString@@@Z
_TEXT	SEGMENT
__Ptr$ = 8						; size = 4
?destroy@?$allocator@VioHashString@@@std@@QAEXPAVioHashString@@@Z PROC ; std::allocator<ioHashString>::destroy, COMDAT
; _this$ = ecx

; 212  : 		{	// destroy object at _Ptr

  00000	55		 push	 ebp
  00001	8b ec		 mov	 ebp, esp

; 213  : 		_Destroy(_Ptr);

  00003	8b 4d 08	 mov	 ecx, DWORD PTR __Ptr$[ebp]
  00006	ff 15 00 00 00
	00		 call	 DWORD PTR __imp_??1ioHashString@@QAE@XZ

; 214  : 		}

  0000c	5d		 pop	 ebp
  0000d	c2 04 00	 ret	 4
?destroy@?$allocator@VioHashString@@@std@@QAEXPAVioHashString@@@Z ENDP ; std::allocator<ioHashString>::destroy
_TEXT	ENDS
PUBLIC	??$_Cons_val@V?$allocator@VioHashString@@@std@@VioHashString@@ABV3@@std@@YAXAAV?$allocator@VioHashString@@@0@PAVioHashString@@ABV2@@Z ; std::_Cons_val<std::allocator<ioHashString>,ioHashString,ioHashString const &>
; Function compile flags: /Ogsp
;	COMDAT ??$_Cons_val@V?$allocator@VioHashString@@@std@@VioHashString@@ABV3@@std@@YAXAAV?$allocator@VioHashString@@@0@PAVioHashString@@ABV2@@Z
_TEXT	SEGMENT
__Alval$ = 8						; size = 4
__Pdest$ = 12						; size = 4
__Src$ = 16						; size = 4
??$_Cons_val@V?$allocator@VioHashString@@@std@@VioHashString@@ABV3@@std@@YAXAAV?$allocator@VioHashString@@@0@PAVioHashString@@ABV2@@Z PROC ; std::_Cons_val<std::allocator<ioHashString>,ioHashString,ioHashString const &>, COMDAT

; 279  : 	{	// construct using allocator

  00000	55		 push	 ebp
  00001	8b ec		 mov	 ebp, esp

; 280  : 	_Alval.construct(_Pdest, _STD forward<_Ty2>(_Src));

  00003	ff 75 10	 push	 DWORD PTR __Src$[ebp]
  00006	ff 75 0c	 push	 DWORD PTR __Pdest$[ebp]
  00009	e8 00 00 00 00	 call	 ??$_Construct@VioHashString@@ABV1@@std@@YAXPAVioHashString@@ABV1@@Z ; std::_Construct<ioHashString,ioHashString const &>
  0000e	59		 pop	 ecx
  0000f	59		 pop	 ecx

; 281  : 	}

  00010	5d		 pop	 ebp
  00011	c3		 ret	 0
??$_Cons_val@V?$allocator@VioHashString@@@std@@VioHashString@@ABV3@@std@@YAXAAV?$allocator@VioHashString@@@0@PAVioHashString@@ABV2@@Z ENDP ; std::_Cons_val<std::allocator<ioHashString>,ioHashString,ioHashString const &>
_TEXT	ENDS
PUBLIC	__real@406fe00000000000
PUBLIC	__real@4062c00000000000
PUBLIC	__real@408f400000000000
PUBLIC	?RenderCenterInfo@RouletteWnd@@IAEXHH@Z		; RouletteWnd::RenderCenterInfo
EXTRN	?EnableRouletteSpin@ioRouletteManager@@QAE_NABVioHashString@@@Z:PROC ; ioRouletteManager::EnableRouletteSpin
EXTRN	?IsJoinRoulette@ioRouletteManager@@QAE_NABVioHashString@@@Z:PROC ; ioRouletteManager::IsJoinRoulette
EXTRN	__imp_?GetSecPerFrame@ioFrameTimer@@QBEMXZ:PROC
;	COMDAT __real@406fe00000000000
; File d:\lost saga for developer\youtube\tutorial\source\src\lsclient\ioroulettemanager.h
CONST	SEGMENT
__real@406fe00000000000 DQ 0406fe00000000000r	; 255
CONST	ENDS
;	COMDAT __real@4062c00000000000
CONST	SEGMENT
__real@4062c00000000000 DQ 04062c00000000000r	; 150
CONST	ENDS
;	COMDAT __real@408f400000000000
CONST	SEGMENT
__real@408f400000000000 DQ 0408f400000000000r	; 1000
; Function compile flags: /Ogsp
; File d:\lost saga for developer\youtube\tutorial\source\src\lsclient\gui\roulettewnd.cpp
CONST	ENDS
;	COMDAT ?RenderCenterInfo@RouletteWnd@@IAEXHH@Z
_TEXT	SEGMENT
tv605 = -16						; size = 4
_iRemainSec$506476 = -16				; size = 4
tv987 = -12						; size = 4
_iCount$506477 = -12					; size = 4
_iXOffset$506464 = -12					; size = 4
_iXOffset$506462 = -12					; size = 4
_iXOffset$506459 = -12					; size = 4
_iNumWidth$506479 = -8					; size = 4
_dwCurTime$ = -8					; size = 4
_fRate$ = -4						; size = 4
_iXPos$ = 8						; size = 4
tv984 = 12						; size = 4
_iYPos$ = 12						; size = 4
?RenderCenterInfo@RouletteWnd@@IAEXHH@Z PROC		; RouletteWnd::RenderCenterInfo, COMDAT
; _this$ = ecx

; 393  : {

  00000	55		 push	 ebp
  00001	8b ec		 mov	 ebp, esp
  00003	83 ec 10	 sub	 esp, 16			; 00000010H
  00006	53		 push	 ebx
  00007	56		 push	 esi
  00008	8b f1		 mov	 esi, ecx

; 394  : 	enum { CENTER_X = 59, CENTER_Y = 47 };
; 395  : 
; 396  : 	if( !m_pTextTitle || !m_pTextJoin || !m_pTextEnableJoin || !m_pTextEnd || !m_pTextEndNum || !m_pTextEndSec )

  0000a	33 db		 xor	 ebx, ebx
  0000c	39 9e b0 01 00
	00		 cmp	 DWORD PTR [esi+432], ebx
  00012	0f 84 bb 06 00
	00		 je	 $LN33@RenderCent
  00018	39 9e b8 01 00
	00		 cmp	 DWORD PTR [esi+440], ebx
  0001e	0f 84 af 06 00
	00		 je	 $LN33@RenderCent
  00024	39 9e b4 01 00
	00		 cmp	 DWORD PTR [esi+436], ebx
  0002a	0f 84 a3 06 00
	00		 je	 $LN33@RenderCent
  00030	39 9e bc 01 00
	00		 cmp	 DWORD PTR [esi+444], ebx
  00036	0f 84 97 06 00
	00		 je	 $LN33@RenderCent
  0003c	39 9e c4 01 00
	00		 cmp	 DWORD PTR [esi+452], ebx
  00042	0f 84 8b 06 00
	00		 je	 $LN33@RenderCent
  00048	39 9e c0 01 00
	00		 cmp	 DWORD PTR [esi+448], ebx
  0004e	0f 84 7f 06 00
	00		 je	 $LN33@RenderCent

; 397  : 		return;
; 398  : 
; 399  : 	DWORD dwCurTime = FRAMEGETTIME();

  00054	57		 push	 edi
  00055	8b 3d 00 00 00
	00		 mov	 edi, DWORD PTR __imp_?GetSingleton@ioFrameTimer@@SAAAV1@XZ
  0005b	ff d7		 call	 edi
  0005d	8b c8		 mov	 ecx, eax
  0005f	ff 15 00 00 00
	00		 call	 DWORD PTR __imp_?GetLoopSec@ioFrameTimer@@QBEKXZ
  00065	89 45 f8	 mov	 DWORD PTR _dwCurTime$[ebp], eax

; 400  : 
; 401  : 	float fTimePerSec = g_FrameTimer.GetSecPerFrame();

  00068	ff d7		 call	 edi
  0006a	8b c8		 mov	 ecx, eax
  0006c	ff 15 00 00 00
	00		 call	 DWORD PTR __imp_?GetSecPerFrame@ioFrameTimer@@QBEMXZ

; 402  : 	float fRate = (float)( (fTimePerSec*1000) / 150.0f );

  00072	dc 0d 00 00 00
	00		 fmul	 QWORD PTR __real@408f400000000000

; 403  : 
; 404  : 	switch( m_State )

  00078	8b 86 90 01 00
	00		 mov	 eax, DWORD PTR [esi+400]
  0007e	2b c3		 sub	 eax, ebx
  00080	dc 35 00 00 00
	00		 fdiv	 QWORD PTR __real@4062c00000000000
  00086	d9 5d fc	 fstp	 DWORD PTR _fRate$[ebp]
  00089	0f 84 97 05 00
	00		 je	 $LN35@RenderCent
  0008f	48		 dec	 eax
  00090	74 7c		 je	 SHORT $LN32@RenderCent
  00092	48		 dec	 eax
  00093	74 07		 je	 SHORT $LN6@RenderCent
  00095	48		 dec	 eax
  00096	0f 85 36 06 00
	00		 jne	 $LN60@RenderCent
$LN6@RenderCent:

; 545  : 	case US_JOIN_END:
; 546  : 		if( m_pTextEnd )
; 547  : 		{
; 548  : 			if( m_iInfoAlphaRate < MAX_ALPHA_RATE )
; 549  : 			{
; 550  : 				m_iInfoAlphaRate += MAX_ALPHA_RATE*fRate;
; 551  : 				m_iInfoAlphaRate = min( m_iInfoAlphaRate, MAX_ALPHA_RATE );
; 552  : 			}
; 553  : 
; 554  : 			int iXOffset = m_pTextEnd->GetWidth() / 2;
; 555  : 			m_pTextEnd->SetAlpha( m_iInfoAlphaRate );
; 556  : 			m_pTextEnd->Render( iXPos + CENTER_X - iXOffset, iYPos + CENTER_Y );
; 557  : 		}
; 558  : 		break;
; 559  : 	case US_END:
; 560  : 		if( m_pTextEnd )

  0009c	8b 8e bc 01 00
	00		 mov	 ecx, DWORD PTR [esi+444]
  000a2	3b cb		 cmp	 ecx, ebx
  000a4	0f 84 28 06 00
	00		 je	 $LN60@RenderCent

; 561  : 		{
; 562  : 			if( m_iInfoAlphaRate < MAX_ALPHA_RATE )

  000aa	8b 96 20 02 00
	00		 mov	 edx, DWORD PTR [esi+544]
  000b0	b8 ff 00 00 00	 mov	 eax, 255		; 000000ffH
  000b5	3b d0		 cmp	 edx, eax
  000b7	7d 2a		 jge	 SHORT $LN1@RenderCent

; 563  : 			{
; 564  : 				m_iInfoAlphaRate += MAX_ALPHA_RATE*fRate;

  000b9	f3 0f 10 45 fc	 movss	 xmm0, DWORD PTR _fRate$[ebp]
  000be	0f 5a c0	 cvtps2pd xmm0, xmm0
  000c1	f2 0f 59 05 00
	00 00 00	 mulsd	 xmm0, QWORD PTR __real@406fe00000000000
  000c9	0f 57 c9	 xorps	 xmm1, xmm1
  000cc	f2 0f 2a ca	 cvtsi2sd xmm1, edx
  000d0	f2 0f 58 c1	 addsd	 xmm0, xmm1
  000d4	f2 0f 2c d0	 cvttsd2si edx, xmm0

; 565  : 				m_iInfoAlphaRate = min( m_iInfoAlphaRate, MAX_ALPHA_RATE );

  000d8	3b d0		 cmp	 edx, eax
  000da	0f 4c c2	 cmovl	 eax, edx
  000dd	89 86 20 02 00
	00		 mov	 DWORD PTR [esi+544], eax
$LN1@RenderCent:

; 566  : 			}
; 567  : 
; 568  : 			int iXOffset = m_pTextEnd->GetWidth() / 2;

  000e3	ff 15 00 00 00
	00		 call	 DWORD PTR __imp_?GetWidth@ioUIRenderElement@@QBEHXZ

; 569  : 			m_pTextEnd->SetAlpha( m_iInfoAlphaRate );

  000e9	8b 8e bc 01 00
	00		 mov	 ecx, DWORD PTR [esi+444]
  000ef	99		 cdq
  000f0	2b c2		 sub	 eax, edx
  000f2	0f b6 96 20 02
	00 00		 movzx	 edx, BYTE PTR [esi+544]
  000f9	8b f8		 mov	 edi, eax
  000fb	8b 01		 mov	 eax, DWORD PTR [ecx]
  000fd	52		 push	 edx
  000fe	d1 ff		 sar	 edi, 1
  00100	ff 50 30	 call	 DWORD PTR [eax+48]

; 570  : 			m_pTextEnd->Render( iXPos + CENTER_X - iXOffset, iYPos + CENTER_Y );

  00103	8b 8e bc 01 00
	00		 mov	 ecx, DWORD PTR [esi+444]

; 571  : 		}
; 572  : 		break;

  00109	e9 93 05 00 00	 jmp	 $LN61@RenderCent
$LN32@RenderCent:

; 418  : 			}
; 419  : 		}
; 420  : 		break;
; 421  : 	case US_SPIN:
; 422  : 		{
; 423  : 			if( m_bMainInfo )

  0010e	38 9e 19 02 00
	00		 cmp	 BYTE PTR [esi+537], bl
  00114	0f 84 18 02 00
	00		 je	 $LN31@RenderCent

; 424  : 			{
; 425  : 				if( g_RouletteMgr.IsJoinRoulette( g_MyInfo.GetPublicID() ) )

  0011a	e8 00 00 00 00	 call	 ?GetSingleton@ioMyInfo@@SAAAV1@XZ ; ioMyInfo::GetSingleton
  0011f	83 c0 1c	 add	 eax, 28			; 0000001cH
  00122	50		 push	 eax
  00123	e8 00 00 00 00	 call	 ?GetSingleton@ioRouletteManager@@SAAAV1@XZ ; ioRouletteManager::GetSingleton
  00128	8b c8		 mov	 ecx, eax
  0012a	e8 00 00 00 00	 call	 ?IsJoinRoulette@ioRouletteManager@@QAE_NABVioHashString@@@Z ; ioRouletteManager::IsJoinRoulette
  0012f	84 c0		 test	 al, al
  00131	74 5f		 je	 SHORT $LN30@RenderCent

; 426  : 				{
; 427  : 					int iXOffset = m_pTextJoin->GetWidth() / 2;

  00133	8b 8e b8 01 00
	00		 mov	 ecx, DWORD PTR [esi+440]
  00139	ff 15 00 00 00
	00		 call	 DWORD PTR __imp_?GetWidth@ioUIRenderElement@@QBEHXZ

; 428  : 					m_pTextJoin->SetAlpha( m_iInfoAlphaRate );

  0013f	8b 8e b8 01 00
	00		 mov	 ecx, DWORD PTR [esi+440]
  00145	99		 cdq
  00146	2b c2		 sub	 eax, edx
  00148	8d be 20 02 00
	00		 lea	 edi, DWORD PTR [esi+544]
  0014e	0f b6 17	 movzx	 edx, BYTE PTR [edi]
  00151	d1 f8		 sar	 eax, 1
  00153	89 45 f4	 mov	 DWORD PTR _iXOffset$506459[ebp], eax
  00156	8b 01		 mov	 eax, DWORD PTR [ecx]
  00158	52		 push	 edx
  00159	ff 50 30	 call	 DWORD PTR [eax+48]

; 429  : 					m_pTextJoin->Render( iXPos + CENTER_X - iXOffset, iYPos + CENTER_Y );

  0015c	8b 4d 0c	 mov	 ecx, DWORD PTR _iYPos$[ebp]
  0015f	8b 86 b8 01 00
	00		 mov	 eax, DWORD PTR [esi+440]
  00165	53		 push	 ebx
  00166	53		 push	 ebx
  00167	83 c1 2f	 add	 ecx, 47			; 0000002fH
  0016a	53		 push	 ebx
  0016b	53		 push	 ebx
  0016c	51		 push	 ecx
  0016d	51		 push	 ecx
  0016e	0f 57 c0	 xorps	 xmm0, xmm0
  00171	f3 0f 2a c1	 cvtsi2ss xmm0, ecx
  00175	8b 4d 08	 mov	 ecx, DWORD PTR _iXPos$[ebp]
  00178	2b 4d f4	 sub	 ecx, DWORD PTR _iXOffset$506459[ebp]
  0017b	f3 0f 11 44 24
	04		 movss	 DWORD PTR [esp+4], xmm0
  00181	83 c1 3b	 add	 ecx, 59			; 0000003bH
  00184	0f 57 c0	 xorps	 xmm0, xmm0
  00187	f3 0f 2a c1	 cvtsi2ss xmm0, ecx
  0018b	8b c8		 mov	 ecx, eax
  0018d	e9 cf 00 00 00	 jmp	 $LN62@RenderCent
$LN30@RenderCent:

; 430  : 				}
; 431  : 				else if( g_RouletteMgr.EnableRouletteSpin( g_MyInfo.GetPublicID() ) )

  00192	e8 00 00 00 00	 call	 ?GetSingleton@ioMyInfo@@SAAAV1@XZ ; ioMyInfo::GetSingleton
  00197	83 c0 1c	 add	 eax, 28			; 0000001cH
  0019a	50		 push	 eax
  0019b	e8 00 00 00 00	 call	 ?GetSingleton@ioRouletteManager@@SAAAV1@XZ ; ioRouletteManager::GetSingleton
  001a0	8b c8		 mov	 ecx, eax
  001a2	e8 00 00 00 00	 call	 ?EnableRouletteSpin@ioRouletteManager@@QAE_NABVioHashString@@@Z ; ioRouletteManager::EnableRouletteSpin
  001a7	84 c0		 test	 al, al
  001a9	74 5c		 je	 SHORT $LN28@RenderCent

; 432  : 				{
; 433  : 					int iXOffset = m_pTextEnableJoin->GetWidth() / 2;

  001ab	8b 8e b4 01 00
	00		 mov	 ecx, DWORD PTR [esi+436]
  001b1	ff 15 00 00 00
	00		 call	 DWORD PTR __imp_?GetWidth@ioUIRenderElement@@QBEHXZ

; 434  : 					m_pTextEnableJoin->SetAlpha( m_iInfoAlphaRate );

  001b7	8b 8e b4 01 00
	00		 mov	 ecx, DWORD PTR [esi+436]
  001bd	99		 cdq
  001be	2b c2		 sub	 eax, edx
  001c0	8d be 20 02 00
	00		 lea	 edi, DWORD PTR [esi+544]
  001c6	0f b6 17	 movzx	 edx, BYTE PTR [edi]
  001c9	d1 f8		 sar	 eax, 1
  001cb	89 45 f4	 mov	 DWORD PTR _iXOffset$506462[ebp], eax
  001ce	8b 01		 mov	 eax, DWORD PTR [ecx]
  001d0	52		 push	 edx
  001d1	ff 50 30	 call	 DWORD PTR [eax+48]

; 435  : 					m_pTextEnableJoin->Render( iXPos + CENTER_X - iXOffset, iYPos + CENTER_Y );

  001d4	8b 4d 0c	 mov	 ecx, DWORD PTR _iYPos$[ebp]
  001d7	8b 86 b4 01 00
	00		 mov	 eax, DWORD PTR [esi+436]
  001dd	53		 push	 ebx
  001de	53		 push	 ebx
  001df	83 c1 2f	 add	 ecx, 47			; 0000002fH
  001e2	53		 push	 ebx
  001e3	53		 push	 ebx
  001e4	51		 push	 ecx
  001e5	51		 push	 ecx
  001e6	0f 57 c0	 xorps	 xmm0, xmm0
  001e9	f3 0f 2a c1	 cvtsi2ss xmm0, ecx
  001ed	8b 4d 08	 mov	 ecx, DWORD PTR _iXPos$[ebp]
  001f0	2b 4d f4	 sub	 ecx, DWORD PTR _iXOffset$506462[ebp]
  001f3	f3 0f 11 44 24
	04		 movss	 DWORD PTR [esp+4], xmm0
  001f9	83 c1 3b	 add	 ecx, 59			; 0000003bH
  001fc	0f 57 c0	 xorps	 xmm0, xmm0
  001ff	f3 0f 2a c1	 cvtsi2ss xmm0, ecx
  00203	8b c8		 mov	 ecx, eax

; 436  : 				}
; 437  : 				else

  00205	eb 5a		 jmp	 SHORT $LN62@RenderCent
$LN28@RenderCent:

; 438  : 				{
; 439  : 					int iXOffset = m_pTextJoin->GetWidth() / 2;

  00207	8b 8e b8 01 00
	00		 mov	 ecx, DWORD PTR [esi+440]
  0020d	ff 15 00 00 00
	00		 call	 DWORD PTR __imp_?GetWidth@ioUIRenderElement@@QBEHXZ

; 440  : 					m_pTextTitle->SetAlpha( m_iInfoAlphaRate );

  00213	8b 8e b0 01 00
	00		 mov	 ecx, DWORD PTR [esi+432]
  00219	99		 cdq
  0021a	2b c2		 sub	 eax, edx
  0021c	8d be 20 02 00
	00		 lea	 edi, DWORD PTR [esi+544]
  00222	0f b6 17	 movzx	 edx, BYTE PTR [edi]
  00225	d1 f8		 sar	 eax, 1
  00227	89 45 f4	 mov	 DWORD PTR _iXOffset$506464[ebp], eax
  0022a	8b 01		 mov	 eax, DWORD PTR [ecx]
  0022c	52		 push	 edx
  0022d	ff 50 30	 call	 DWORD PTR [eax+48]

; 441  : 					m_pTextTitle->Render( iXPos + CENTER_X - iXOffset - 3, iYPos + CENTER_Y + 1 );

  00230	8b 4d 0c	 mov	 ecx, DWORD PTR _iYPos$[ebp]
  00233	8b 86 b0 01 00
	00		 mov	 eax, DWORD PTR [esi+432]
  00239	53		 push	 ebx
  0023a	53		 push	 ebx
  0023b	83 c1 30	 add	 ecx, 48			; 00000030H
  0023e	53		 push	 ebx
  0023f	53		 push	 ebx
  00240	51		 push	 ecx
  00241	51		 push	 ecx
  00242	0f 57 c0	 xorps	 xmm0, xmm0
  00245	f3 0f 2a c1	 cvtsi2ss xmm0, ecx
  00249	8b 4d 08	 mov	 ecx, DWORD PTR _iXPos$[ebp]
  0024c	2b 4d f4	 sub	 ecx, DWORD PTR _iXOffset$506464[ebp]
  0024f	f3 0f 11 44 24
	04		 movss	 DWORD PTR [esp+4], xmm0
  00255	83 c1 38	 add	 ecx, 56			; 00000038H
  00258	0f 57 c0	 xorps	 xmm0, xmm0
  0025b	f3 0f 2a c1	 cvtsi2ss xmm0, ecx
  0025f	8b c8		 mov	 ecx, eax
$LN62@RenderCent:
  00261	8b 00		 mov	 eax, DWORD PTR [eax]
  00263	f3 0f 11 04 24	 movss	 DWORD PTR [esp], xmm0
  00268	ff 10		 call	 DWORD PTR [eax]

; 442  : 				}
; 443  : 
; 444  : 				if( g_RouletteMgr.GetState() == ioRouletteManager::RS_SPIN )

  0026a	e8 00 00 00 00	 call	 ?GetSingleton@ioRouletteManager@@SAAAV1@XZ ; ioRouletteManager::GetSingleton
  0026f	83 78 28 01	 cmp	 DWORD PTR [eax+40], 1
  00273	0f 85 59 04 00
	00		 jne	 $LN60@RenderCent

; 445  : 				{
; 446  : 					if( m_bFadeIn )

  00279	38 9e 24 02 00
	00		 cmp	 BYTE PTR [esi+548], bl
  0027f	74 5a		 je	 SHORT $LN25@RenderCent

; 447  : 					{
; 448  : 						m_iInfoAlphaRate += MAX_ALPHA_RATE*fRate;

  00281	f3 0f 10 45 fc	 movss	 xmm0, DWORD PTR _fRate$[ebp]
  00286	66 0f 6e 0f	 movd	 xmm1, DWORD PTR [edi]
  0028a	0f 5a c0	 cvtps2pd xmm0, xmm0
  0028d	f2 0f 59 05 00
	00 00 00	 mulsd	 xmm0, QWORD PTR __real@406fe00000000000

; 449  : 						m_iInfoAlphaRate = min( m_iInfoAlphaRate, MAX_ALPHA_RATE );

  00295	b8 ff 00 00 00	 mov	 eax, 255		; 000000ffH
  0029a	f3 0f e6 c9	 cvtdq2pd xmm1, xmm1
  0029e	f2 0f 58 c1	 addsd	 xmm0, xmm1
  002a2	f2 0f 2c c8	 cvttsd2si ecx, xmm0
  002a6	3b c8		 cmp	 ecx, eax
  002a8	0f 4d c8	 cmovge	 ecx, eax
  002ab	89 0f		 mov	 DWORD PTR [edi], ecx

; 450  : 						if( m_iInfoAlphaRate >= MAX_ALPHA_RATE )

  002ad	3b c8		 cmp	 ecx, eax
  002af	0f 8c 1d 04 00
	00		 jl	 $LN60@RenderCent

; 451  : 						{
; 452  : 							if( m_dwInfoDelayTime == 0 )

  002b5	8b 86 1c 02 00
	00		 mov	 eax, DWORD PTR [esi+540]
  002bb	3b c3		 cmp	 eax, ebx
  002bd	75 0b		 jne	 SHORT $LN63@RenderCent

; 453  : 							{
; 454  : 								m_dwInfoDelayTime = FRAMEGETTIME() + 300;

  002bf	ff 15 00 00 00
	00		 call	 DWORD PTR __imp_?GetSingleton@ioFrameTimer@@SAAAV1@XZ
  002c5	e9 cd 02 00 00	 jmp	 $LN67@RenderCent
$LN63@RenderCent:

; 455  : 							}
; 456  : 							else if( m_dwInfoDelayTime > 0 && m_dwInfoDelayTime < FRAMEGETTIME() )

  002ca	0f 86 02 04 00
	00		 jbe	 $LN60@RenderCent
  002d0	ff 15 00 00 00
	00		 call	 DWORD PTR __imp_?GetSingleton@ioFrameTimer@@SAAAV1@XZ

; 457  : 							{
; 458  : 								m_dwInfoDelayTime = 0;
; 459  : 								m_bFadeIn = false;
; 460  : 							}
; 461  : 						}
; 462  : 					}
; 463  : 					else

  002d6	e9 dc 02 00 00	 jmp	 $LN66@RenderCent
$LN25@RenderCent:

; 464  : 					{
; 465  : 						m_iInfoAlphaRate -= MAX_ALPHA_RATE*fRate;

  002db	66 0f 6e 07	 movd	 xmm0, DWORD PTR [edi]
  002df	f3 0f 10 4d fc	 movss	 xmm1, DWORD PTR _fRate$[ebp]
  002e4	0f 5a c9	 cvtps2pd xmm1, xmm1
  002e7	f2 0f 59 0d 00
	00 00 00	 mulsd	 xmm1, QWORD PTR __real@406fe00000000000
  002ef	f3 0f e6 c0	 cvtdq2pd xmm0, xmm0
  002f3	f2 0f 5c c1	 subsd	 xmm0, xmm1
  002f7	f2 0f 2c c0	 cvttsd2si eax, xmm0

; 466  : 						m_iInfoAlphaRate = max( m_iInfoAlphaRate, 0 );

  002fb	3b c3		 cmp	 eax, ebx
  002fd	0f 4e c3	 cmovle	 eax, ebx
  00300	89 07		 mov	 DWORD PTR [edi], eax

; 467  : 						if( m_iInfoAlphaRate <= 0 )

  00302	3b c3		 cmp	 eax, ebx
  00304	0f 8f c8 03 00
	00		 jg	 $LN60@RenderCent

; 468  : 						{
; 469  : 							m_bFadeIn = true;

  0030a	c6 86 24 02 00
	00 01		 mov	 BYTE PTR [esi+548], 1

; 470  : 							m_bMainInfo = false;

  00311	88 9e 19 02 00
	00		 mov	 BYTE PTR [esi+537], bl

; 471  : 							if( m_bJoinEnd )

  00317	38 9e 2c 02 00
	00		 cmp	 BYTE PTR [esi+556], bl
  0031d	0f 84 af 03 00
	00		 je	 $LN60@RenderCent

; 472  : 								m_State = US_JOIN_END;

  00323	c7 86 90 01 00
	00 02 00 00 00	 mov	 DWORD PTR [esi+400], 2

; 473  : 						}
; 474  : 					}
; 475  : 				}
; 476  : 			}
; 477  : 			else

  0032d	e9 a0 03 00 00	 jmp	 $LN60@RenderCent
$LN31@RenderCent:

; 478  : 			{
; 479  : 				if( dwCurTime <= g_RouletteMgr.GetJoinEndTime() )

  00332	e8 00 00 00 00	 call	 ?GetSingleton@ioRouletteManager@@SAAAV1@XZ ; ioRouletteManager::GetSingleton
  00337	8b c8		 mov	 ecx, eax
  00339	e8 00 00 00 00	 call	 ?GetJoinEndTime@ioRouletteManager@@QAEKXZ ; ioRouletteManager::GetJoinEndTime
  0033e	39 45 f8	 cmp	 DWORD PTR _dwCurTime$[ebp], eax
  00341	0f 87 fc 01 00
	00		 ja	 $LN16@RenderCent

; 480  : 				{
; 481  : 					int iRemainSec = g_RouletteMgr.GetJoinEndTime() - dwCurTime;

  00347	e8 00 00 00 00	 call	 ?GetSingleton@ioRouletteManager@@SAAAV1@XZ ; ioRouletteManager::GetSingleton
  0034c	8b c8		 mov	 ecx, eax
  0034e	e8 00 00 00 00	 call	 ?GetJoinEndTime@ioRouletteManager@@QAEKXZ ; ioRouletteManager::GetJoinEndTime
  00353	2b 45 f8	 sub	 eax, DWORD PTR _dwCurTime$[ebp]

; 482  : 					iRemainSec /= 1000;

  00356	b9 e8 03 00 00	 mov	 ecx, 1000		; 000003e8H
  0035b	99		 cdq
  0035c	f7 f9		 idiv	 ecx

; 483  : 
; 484  : 					int iCount = 1;

  0035e	c7 45 f4 01 00
	00 00		 mov	 DWORD PTR _iCount$506477[ebp], 1
  00365	89 45 f0	 mov	 DWORD PTR _iRemainSec$506476[ebp], eax

; 485  : 					if( iRemainSec >= 10 )

  00368	83 f8 0a	 cmp	 eax, 10			; 0000000aH
  0036b	7c 07		 jl	 SHORT $LN15@RenderCent

; 486  : 						iCount = 2;

  0036d	c7 45 f4 02 00
	00 00		 mov	 DWORD PTR _iCount$506477[ebp], 2
$LN15@RenderCent:

; 487  : 
; 488  : 					int iNumWidth = m_pTextEndNum->GetWidth() / 10;

  00374	8b 8e c4 01 00
	00		 mov	 ecx, DWORD PTR [esi+452]
  0037a	ff 15 00 00 00
	00		 call	 DWORD PTR __imp_?GetWidth@ioUIRenderElement@@QBEHXZ
  00380	6a 0a		 push	 10			; 0000000aH
  00382	99		 cdq
  00383	59		 pop	 ecx
  00384	f7 f9		 idiv	 ecx

; 489  : 					int iWidth = m_pTextEnd->GetWidth() + 1 +
; 490  : 						( iNumWidth * iCount ) - ( 5 * iCount ) - 5 +
; 491  : 						m_pTextEndSec->GetWidth();

  00386	8b 8e c0 01 00
	00		 mov	 ecx, DWORD PTR [esi+448]
  0038c	89 45 f8	 mov	 DWORD PTR _iNumWidth$506479[ebp], eax
  0038f	ff 15 00 00 00
	00		 call	 DWORD PTR __imp_?GetWidth@ioUIRenderElement@@QBEHXZ
  00395	8b 8e bc 01 00
	00		 mov	 ecx, DWORD PTR [esi+444]
  0039b	8b f8		 mov	 edi, eax
  0039d	ff 15 00 00 00
	00		 call	 DWORD PTR __imp_?GetWidth@ioUIRenderElement@@QBEHXZ
  003a3	03 f8		 add	 edi, eax
  003a5	8b 45 f8	 mov	 eax, DWORD PTR _iNumWidth$506479[ebp]

; 492  : 					int iOffset = CENTER_X - iWidth/2;
; 493  : 
; 494  : 					m_pTextEnd->SetAlpha( m_iInfoAlphaRate );

  003a8	8b 8e bc 01 00
	00		 mov	 ecx, DWORD PTR [esi+444]
  003ae	83 c0 fb	 add	 eax, -5			; fffffffbH
  003b1	0f af 45 f4	 imul	 eax, DWORD PTR _iCount$506477[ebp]
  003b5	8d 44 07 fc	 lea	 eax, DWORD PTR [edi+eax-4]
  003b9	99		 cdq
  003ba	2b c2		 sub	 eax, edx
  003bc	0f b6 96 20 02
	00 00		 movzx	 edx, BYTE PTR [esi+544]
  003c3	6a 3b		 push	 59			; 0000003bH
  003c5	d1 f8		 sar	 eax, 1
  003c7	5f		 pop	 edi
  003c8	2b f8		 sub	 edi, eax
  003ca	8b 01		 mov	 eax, DWORD PTR [ecx]
  003cc	52		 push	 edx
  003cd	ff 50 30	 call	 DWORD PTR [eax+48]

; 495  : 					m_pTextEnd->Render( iXPos + iOffset, iYPos + CENTER_Y );

  003d0	8b 8e bc 01 00
	00		 mov	 ecx, DWORD PTR [esi+444]
  003d6	8b 55 0c	 mov	 edx, DWORD PTR _iYPos$[ebp]
  003d9	8b 01		 mov	 eax, DWORD PTR [ecx]
  003db	53		 push	 ebx
  003dc	53		 push	 ebx
  003dd	53		 push	 ebx
  003de	53		 push	 ebx
  003df	83 c2 2f	 add	 edx, 47			; 0000002fH
  003e2	0f 57 c0	 xorps	 xmm0, xmm0
  003e5	f3 0f 2a c2	 cvtsi2ss xmm0, edx
  003e9	8b 55 08	 mov	 edx, DWORD PTR _iXPos$[ebp]
  003ec	51		 push	 ecx
  003ed	51		 push	 ecx
  003ee	f3 0f 11 44 24
	04		 movss	 DWORD PTR [esp+4], xmm0
  003f4	03 d7		 add	 edx, edi
  003f6	0f 57 c0	 xorps	 xmm0, xmm0
  003f9	f3 0f 2a c2	 cvtsi2ss xmm0, edx
  003fd	f3 0f 11 04 24	 movss	 DWORD PTR [esp], xmm0
  00402	ff 10		 call	 DWORD PTR [eax]

; 496  : 					iOffset += m_pTextEnd->GetWidth();

  00404	8b 8e bc 01 00
	00		 mov	 ecx, DWORD PTR [esi+444]
  0040a	ff 15 00 00 00
	00		 call	 DWORD PTR __imp_?GetWidth@ioUIRenderElement@@QBEHXZ
  00410	03 f8		 add	 edi, eax

; 497  : 
; 498  : 					int iNumber = iRemainSec/10;

  00412	8b 45 f0	 mov	 eax, DWORD PTR _iRemainSec$506476[ebp]
  00415	6a 0a		 push	 10			; 0000000aH
  00417	99		 cdq
  00418	59		 pop	 ecx
  00419	f7 f9		 idiv	 ecx
  0041b	89 55 f4	 mov	 DWORD PTR tv987[ebp], edx
  0041e	89 45 f0	 mov	 DWORD PTR tv605[ebp], eax

; 499  : 					if( iNumber > 0 )

  00421	3b c3		 cmp	 eax, ebx
  00423	7e 6b		 jle	 SHORT $LN14@RenderCent

; 500  : 					{
; 501  : 						m_pTextEndNum->SetAlpha( m_iInfoAlphaRate );

  00425	0f b6 96 20 02
	00 00		 movzx	 edx, BYTE PTR [esi+544]
  0042c	8b 8e c4 01 00
	00		 mov	 ecx, DWORD PTR [esi+452]
  00432	8b 01		 mov	 eax, DWORD PTR [ecx]
  00434	52		 push	 edx
  00435	ff 50 30	 call	 DWORD PTR [eax+48]

; 502  : 						m_pTextEndNum->RenderNum( iXPos + iOffset, iYPos + CENTER_Y - 1, iNumber );

  00438	f3 0f 10 05 00
	00 00 00	 movss	 xmm0, DWORD PTR __real@3f800000
  00440	8b 45 0c	 mov	 eax, DWORD PTR _iYPos$[ebp]
  00443	53		 push	 ebx
  00444	53		 push	 ebx
  00445	53		 push	 ebx
  00446	53		 push	 ebx
  00447	51		 push	 ecx
  00448	51		 push	 ecx
  00449	f3 0f 11 44 24
	04		 movss	 DWORD PTR [esp+4], xmm0
  0044f	0f 57 c0	 xorps	 xmm0, xmm0
  00452	f3 0f 11 04 24	 movss	 DWORD PTR [esp], xmm0
  00457	ff 75 f0	 push	 DWORD PTR tv605[ebp]
  0045a	83 c0 2e	 add	 eax, 46			; 0000002eH
  0045d	0f 57 c0	 xorps	 xmm0, xmm0
  00460	f3 0f 2a c0	 cvtsi2ss xmm0, eax
  00464	8b 45 08	 mov	 eax, DWORD PTR _iXPos$[ebp]
  00467	51		 push	 ecx
  00468	51		 push	 ecx
  00469	8b 8e c4 01 00
	00		 mov	 ecx, DWORD PTR [esi+452]
  0046f	f3 0f 11 44 24
	04		 movss	 DWORD PTR [esp+4], xmm0
  00475	03 c7		 add	 eax, edi
  00477	0f 57 c0	 xorps	 xmm0, xmm0
  0047a	f3 0f 2a c0	 cvtsi2ss xmm0, eax
  0047e	f3 0f 11 04 24	 movss	 DWORD PTR [esp], xmm0
  00483	ff 15 00 00 00
	00		 call	 DWORD PTR __imp_?RenderNum@ioUIRenderImage@@QAEXMMHMMW4UIRenderType@@W4TextureFilterOption@@0W4RenerNumerFormatting@1@@Z

; 503  : 						iOffset += iNumWidth - 5;

  00489	8b 45 f8	 mov	 eax, DWORD PTR _iNumWidth$506479[ebp]
  0048c	8d 7c 07 fb	 lea	 edi, DWORD PTR [edi+eax-5]
$LN14@RenderCent:

; 504  : 					}
; 505  : 
; 506  : 					iNumber = iRemainSec%10;
; 507  : 					m_pTextEndNum->SetAlpha( m_iInfoAlphaRate );

  00490	0f b6 96 20 02
	00 00		 movzx	 edx, BYTE PTR [esi+544]
  00497	8b 8e c4 01 00
	00		 mov	 ecx, DWORD PTR [esi+452]
  0049d	8b 01		 mov	 eax, DWORD PTR [ecx]
  0049f	52		 push	 edx
  004a0	ff 50 30	 call	 DWORD PTR [eax+48]

; 508  : 					m_pTextEndNum->RenderNum( iXPos + iOffset, iYPos + CENTER_Y - 1, iNumber );

  004a3	f3 0f 10 0d 00
	00 00 00	 movss	 xmm1, DWORD PTR __real@3f800000
  004ab	8b 45 0c	 mov	 eax, DWORD PTR _iYPos$[ebp]
  004ae	53		 push	 ebx
  004af	53		 push	 ebx
  004b0	53		 push	 ebx
  004b1	53		 push	 ebx
  004b2	51		 push	 ecx
  004b3	51		 push	 ecx
  004b4	f3 0f 11 4c 24
	04		 movss	 DWORD PTR [esp+4], xmm1
  004ba	0f 57 c9	 xorps	 xmm1, xmm1
  004bd	f3 0f 11 0c 24	 movss	 DWORD PTR [esp], xmm1
  004c2	ff 75 f4	 push	 DWORD PTR tv987[ebp]
  004c5	83 c0 2e	 add	 eax, 46			; 0000002eH
  004c8	0f 57 c0	 xorps	 xmm0, xmm0
  004cb	f3 0f 2a c0	 cvtsi2ss xmm0, eax
  004cf	8b 45 08	 mov	 eax, DWORD PTR _iXPos$[ebp]
  004d2	51		 push	 ecx
  004d3	51		 push	 ecx
  004d4	8b 8e c4 01 00
	00		 mov	 ecx, DWORD PTR [esi+452]
  004da	f3 0f 11 44 24
	04		 movss	 DWORD PTR [esp+4], xmm0
  004e0	f3 0f 11 45 0c	 movss	 DWORD PTR tv984[ebp], xmm0
  004e5	03 c7		 add	 eax, edi
  004e7	0f 57 c0	 xorps	 xmm0, xmm0
  004ea	f3 0f 2a c0	 cvtsi2ss xmm0, eax
  004ee	f3 0f 11 04 24	 movss	 DWORD PTR [esp], xmm0
  004f3	ff 15 00 00 00
	00		 call	 DWORD PTR __imp_?RenderNum@ioUIRenderImage@@QAEXMMHMMW4UIRenderType@@W4TextureFilterOption@@0W4RenerNumerFormatting@1@@Z

; 509  : 					iOffset += iNumWidth - 5;
; 510  : 
; 511  : 					m_pTextEndSec->SetAlpha( m_iInfoAlphaRate );

  004f9	0f b6 96 20 02
	00 00		 movzx	 edx, BYTE PTR [esi+544]
  00500	8b 8e c0 01 00
	00		 mov	 ecx, DWORD PTR [esi+448]
  00506	8b 01		 mov	 eax, DWORD PTR [ecx]
  00508	52		 push	 edx
  00509	ff 50 30	 call	 DWORD PTR [eax+48]

; 512  : 					m_pTextEndSec->Render( iXPos + iOffset, iYPos + CENTER_Y - 1 );

  0050c	8b 8e c0 01 00
	00		 mov	 ecx, DWORD PTR [esi+448]
  00512	03 7d f8	 add	 edi, DWORD PTR _iNumWidth$506479[ebp]
  00515	f3 0f 10 45 0c	 movss	 xmm0, DWORD PTR tv984[ebp]
  0051a	8b 55 08	 mov	 edx, DWORD PTR _iXPos$[ebp]
  0051d	8b 01		 mov	 eax, DWORD PTR [ecx]
  0051f	53		 push	 ebx
  00520	53		 push	 ebx
  00521	53		 push	 ebx
  00522	53		 push	 ebx
  00523	51		 push	 ecx
  00524	51		 push	 ecx
  00525	f3 0f 11 44 24
	04		 movss	 DWORD PTR [esp+4], xmm0
  0052b	8d 54 17 fb	 lea	 edx, DWORD PTR [edi+edx-5]
  0052f	0f 57 c0	 xorps	 xmm0, xmm0
  00532	f3 0f 2a c2	 cvtsi2ss xmm0, edx
  00536	f3 0f 11 04 24	 movss	 DWORD PTR [esp], xmm0
  0053b	ff 10		 call	 DWORD PTR [eax]
  0053d	8b 3d 00 00 00
	00		 mov	 edi, DWORD PTR __imp_?GetSingleton@ioFrameTimer@@SAAAV1@XZ
$LN16@RenderCent:

; 513  : 				}
; 514  : 
; 515  : 				if( m_bFadeIn )

  00543	38 9e 24 02 00
	00		 cmp	 BYTE PTR [esi+548], bl
  00549	0f 84 8d 00 00
	00		 je	 $LN13@RenderCent

; 516  : 				{
; 517  : 					m_iInfoAlphaRate += MAX_ALPHA_RATE*fRate;

  0054f	f3 0f 10 45 fc	 movss	 xmm0, DWORD PTR _fRate$[ebp]
  00554	66 0f 6e 8e 20
	02 00 00	 movd	 xmm1, DWORD PTR [esi+544]
  0055c	0f 5a c0	 cvtps2pd xmm0, xmm0
  0055f	f2 0f 59 05 00
	00 00 00	 mulsd	 xmm0, QWORD PTR __real@406fe00000000000

; 518  : 					m_iInfoAlphaRate = min( m_iInfoAlphaRate, MAX_ALPHA_RATE );

  00567	b8 ff 00 00 00	 mov	 eax, 255		; 000000ffH
  0056c	f3 0f e6 c9	 cvtdq2pd xmm1, xmm1
  00570	f2 0f 58 c1	 addsd	 xmm0, xmm1
  00574	f2 0f 2c d0	 cvttsd2si edx, xmm0
  00578	3b d0		 cmp	 edx, eax
  0057a	0f 4d d0	 cmovge	 edx, eax
  0057d	89 96 20 02 00
	00		 mov	 DWORD PTR [esi+544], edx

; 519  : 					if( m_iInfoAlphaRate >= MAX_ALPHA_RATE )

  00583	3b d0		 cmp	 edx, eax
  00585	0f 8c 47 01 00
	00		 jl	 $LN60@RenderCent

; 520  : 					{
; 521  : 						if( m_dwInfoDelayTime == 0 )

  0058b	8b 86 1c 02 00
	00		 mov	 eax, DWORD PTR [esi+540]
  00591	3b c3		 cmp	 eax, ebx
  00593	75 1a		 jne	 SHORT $LN64@RenderCent

; 522  : 						{
; 523  : 							m_dwInfoDelayTime = FRAMEGETTIME() + 300;

  00595	ff d7		 call	 edi
$LN67@RenderCent:
  00597	8b c8		 mov	 ecx, eax
  00599	ff 15 00 00 00
	00		 call	 DWORD PTR __imp_?GetLoopSec@ioFrameTimer@@QBEKXZ
  0059f	05 2c 01 00 00	 add	 eax, 300		; 0000012cH
  005a4	89 86 1c 02 00
	00		 mov	 DWORD PTR [esi+540], eax
  005aa	e9 23 01 00 00	 jmp	 $LN60@RenderCent
$LN64@RenderCent:

; 524  : 						}
; 525  : 						else if( m_dwInfoDelayTime > 0 && m_dwInfoDelayTime < FRAMEGETTIME() )

  005af	0f 86 1d 01 00
	00		 jbe	 $LN60@RenderCent
  005b5	ff d7		 call	 edi
$LN66@RenderCent:
  005b7	8b c8		 mov	 ecx, eax
  005b9	ff 15 00 00 00
	00		 call	 DWORD PTR __imp_?GetLoopSec@ioFrameTimer@@QBEKXZ
  005bf	39 86 1c 02 00
	00		 cmp	 DWORD PTR [esi+540], eax
  005c5	0f 83 07 01 00
	00		 jae	 $LN60@RenderCent

; 526  : 						{
; 527  : 							m_dwInfoDelayTime = 0;

  005cb	89 9e 1c 02 00
	00		 mov	 DWORD PTR [esi+540], ebx

; 528  : 							m_bFadeIn = false;

  005d1	88 9e 24 02 00
	00		 mov	 BYTE PTR [esi+548], bl

; 529  : 						}
; 530  : 					}
; 531  : 				}
; 532  : 				else

  005d7	e9 f6 00 00 00	 jmp	 $LN60@RenderCent
$LN13@RenderCent:

; 533  : 				{
; 534  : 					m_iInfoAlphaRate -= MAX_ALPHA_RATE*fRate;

  005dc	66 0f 6e 86 20
	02 00 00	 movd	 xmm0, DWORD PTR [esi+544]
  005e4	f3 0f 10 4d fc	 movss	 xmm1, DWORD PTR _fRate$[ebp]
  005e9	0f 5a c9	 cvtps2pd xmm1, xmm1
  005ec	f2 0f 59 0d 00
	00 00 00	 mulsd	 xmm1, QWORD PTR __real@406fe00000000000
  005f4	f3 0f e6 c0	 cvtdq2pd xmm0, xmm0
  005f8	f2 0f 5c c1	 subsd	 xmm0, xmm1
  005fc	f2 0f 2c c8	 cvttsd2si ecx, xmm0

; 535  : 					m_iInfoAlphaRate = max( m_iInfoAlphaRate, 0 );

  00600	3b cb		 cmp	 ecx, ebx
  00602	0f 4e cb	 cmovle	 ecx, ebx
  00605	89 8e 20 02 00
	00		 mov	 DWORD PTR [esi+544], ecx

; 536  : 					if( m_iInfoAlphaRate <= 0 )

  0060b	3b cb		 cmp	 ecx, ebx
  0060d	0f 8f bf 00 00
	00		 jg	 $LN60@RenderCent

; 537  : 					{
; 538  : 						m_bFadeIn = true;

  00613	c6 86 24 02 00
	00 01		 mov	 BYTE PTR [esi+548], 1

; 539  : 						m_bMainInfo = true;

  0061a	c6 86 19 02 00
	00 01		 mov	 BYTE PTR [esi+537], 1

; 540  : 					}
; 541  : 				}
; 542  : 			}
; 543  : 		}
; 544  : 		break;

  00621	e9 ac 00 00 00	 jmp	 $LN60@RenderCent
$LN35@RenderCent:

; 405  : 	{
; 406  : 	case US_READY:
; 407  : 		{
; 408  : 			if( m_iCoin <= 0 )

  00626	39 9e 10 02 00
	00		 cmp	 DWORD PTR [esi+528], ebx
  0062c	7f 4a		 jg	 SHORT $LN34@RenderCent

; 409  : 			{
; 410  : 				int iXOffset = m_pTextJoin->GetWidth() / 2;

  0062e	8b 8e b8 01 00
	00		 mov	 ecx, DWORD PTR [esi+440]
  00634	ff 15 00 00 00
	00		 call	 DWORD PTR __imp_?GetWidth@ioUIRenderElement@@QBEHXZ

; 411  : 				m_pTextTitle->Render( iXPos + CENTER_X - iXOffset - 3, iYPos + CENTER_Y + 1 );

  0063a	8b 8e b0 01 00
	00		 mov	 ecx, DWORD PTR [esi+432]
  00640	8b 75 0c	 mov	 esi, DWORD PTR _iYPos$[ebp]
  00643	53		 push	 ebx
  00644	53		 push	 ebx
  00645	99		 cdq
  00646	53		 push	 ebx
  00647	83 c6 30	 add	 esi, 48			; 00000030H
  0064a	0f 57 c0	 xorps	 xmm0, xmm0
  0064d	f3 0f 2a c6	 cvtsi2ss xmm0, esi
  00651	8b 75 08	 mov	 esi, DWORD PTR _iXPos$[ebp]
  00654	2b c2		 sub	 eax, edx
  00656	8b 11		 mov	 edx, DWORD PTR [ecx]
  00658	53		 push	 ebx
  00659	d1 f8		 sar	 eax, 1
  0065b	51		 push	 ecx
  0065c	51		 push	 ecx
  0065d	f3 0f 11 44 24
	04		 movss	 DWORD PTR [esp+4], xmm0
  00663	2b f0		 sub	 esi, eax
  00665	83 c6 38	 add	 esi, 56			; 00000038H
  00668	0f 57 c0	 xorps	 xmm0, xmm0
  0066b	f3 0f 2a c6	 cvtsi2ss xmm0, esi
  0066f	f3 0f 11 04 24	 movss	 DWORD PTR [esp], xmm0
  00674	ff 12		 call	 DWORD PTR [edx]

; 412  : 			}
; 413  : 			else

  00676	eb 5a		 jmp	 SHORT $LN60@RenderCent
$LN34@RenderCent:

; 414  : 			{
; 415  : 				int iXOffset = m_pTextEnableJoin->GetWidth() / 2;

  00678	8b 8e b4 01 00
	00		 mov	 ecx, DWORD PTR [esi+436]
  0067e	ff 15 00 00 00
	00		 call	 DWORD PTR __imp_?GetWidth@ioUIRenderElement@@QBEHXZ

; 416  : 				m_pTextEnableJoin->SetAlpha( MAX_ALPHA_RATE );

  00684	8b 8e b4 01 00
	00		 mov	 ecx, DWORD PTR [esi+436]
  0068a	99		 cdq
  0068b	2b c2		 sub	 eax, edx
  0068d	8b f8		 mov	 edi, eax
  0068f	8b 01		 mov	 eax, DWORD PTR [ecx]
  00691	68 ff 00 00 00	 push	 255			; 000000ffH
  00696	d1 ff		 sar	 edi, 1
  00698	ff 50 30	 call	 DWORD PTR [eax+48]

; 417  : 				m_pTextEnableJoin->Render( iXPos + CENTER_X - iXOffset, iYPos + CENTER_Y );

  0069b	8b 8e b4 01 00
	00		 mov	 ecx, DWORD PTR [esi+436]
$LN61@RenderCent:
  006a1	8b 55 0c	 mov	 edx, DWORD PTR _iYPos$[ebp]
  006a4	8b 01		 mov	 eax, DWORD PTR [ecx]
  006a6	53		 push	 ebx
  006a7	53		 push	 ebx
  006a8	53		 push	 ebx
  006a9	83 c2 2f	 add	 edx, 47			; 0000002fH
  006ac	0f 57 c0	 xorps	 xmm0, xmm0
  006af	f3 0f 2a c2	 cvtsi2ss xmm0, edx
  006b3	8b 55 08	 mov	 edx, DWORD PTR _iXPos$[ebp]
  006b6	53		 push	 ebx
  006b7	51		 push	 ecx
  006b8	51		 push	 ecx
  006b9	f3 0f 11 44 24
	04		 movss	 DWORD PTR [esp+4], xmm0
  006bf	2b d7		 sub	 edx, edi
  006c1	83 c2 3b	 add	 edx, 59			; 0000003bH
  006c4	0f 57 c0	 xorps	 xmm0, xmm0
  006c7	f3 0f 2a c2	 cvtsi2ss xmm0, edx
  006cb	f3 0f 11 04 24	 movss	 DWORD PTR [esp], xmm0
  006d0	ff 10		 call	 DWORD PTR [eax]
$LN60@RenderCent:
  006d2	5f		 pop	 edi
$LN33@RenderCent:
  006d3	5e		 pop	 esi
  006d4	5b		 pop	 ebx

; 573  : 	}
; 574  : }

  006d5	c9		 leave
  006d6	c2 08 00	 ret	 8
?RenderCenterInfo@RouletteWnd@@IAEXHH@Z ENDP		; RouletteWnd::RenderCenterInfo
_TEXT	ENDS
PUBLIC	??$_Destroy_range@V?$allocator@UUIEffectAniInfo@RouletteWnd@@@std@@@std@@YAXPAUUIEffectAniInfo@RouletteWnd@@0AAV?$allocator@UUIEffectAniInfo@RouletteWnd@@@0@U_Nonscalar_ptr_iterator_tag@0@@Z ; std::_Destroy_range<std::allocator<RouletteWnd::UIEffectAniInfo> >
; Function compile flags: /Ogsp
; File c:\program files (x86)\microsoft visual studio 10.0\vc\include\xmemory
;	COMDAT ??$_Destroy_range@V?$allocator@UUIEffectAniInfo@RouletteWnd@@@std@@@std@@YAXPAUUIEffectAniInfo@RouletteWnd@@0AAV?$allocator@UUIEffectAniInfo@RouletteWnd@@@0@U_Nonscalar_ptr_iterator_tag@0@@Z
_TEXT	SEGMENT
__First$ = 8						; size = 4
__Last$ = 12						; size = 4
__Al$ = 16						; size = 4
___formal$ = 20						; size = 1
??$_Destroy_range@V?$allocator@UUIEffectAniInfo@RouletteWnd@@@std@@@std@@YAXPAUUIEffectAniInfo@RouletteWnd@@0AAV?$allocator@UUIEffectAniInfo@RouletteWnd@@@0@U_Nonscalar_ptr_iterator_tag@0@@Z PROC ; std::_Destroy_range<std::allocator<RouletteWnd::UIEffectAniInfo> >, COMDAT

; 96   : 	for (; _First != _Last; ++_First)
; 97   : 		_Dest_val(_Al, _First);
; 98   : 	}

  00000	c3		 ret	 0
??$_Destroy_range@V?$allocator@UUIEffectAniInfo@RouletteWnd@@@std@@@std@@YAXPAUUIEffectAniInfo@RouletteWnd@@0AAV?$allocator@UUIEffectAniInfo@RouletteWnd@@@0@U_Nonscalar_ptr_iterator_tag@0@@Z ENDP ; std::_Destroy_range<std::allocator<RouletteWnd::UIEffectAniInfo> >
_TEXT	ENDS
PUBLIC	??$_Uninit_move@PAUUIEffectAniInfo@RouletteWnd@@PAU12@V?$allocator@UUIEffectAniInfo@RouletteWnd@@@std@@U12@@std@@YAPAUUIEffectAniInfo@RouletteWnd@@PAU12@00AAV?$allocator@UUIEffectAniInfo@RouletteWnd@@@0@0U_Nonscalar_ptr_iterator_tag@0@@Z ; std::_Uninit_move<RouletteWnd::UIEffectAniInfo *,RouletteWnd::UIEffectAniInfo *,std::allocator<RouletteWnd::UIEffectAniInfo>,RouletteWnd::UIEffectAniInfo>
; Function compile flags: /Ogsp
; File c:\program files (x86)\microsoft visual studio 10.0\vc\include\memory
;	COMDAT ??$_Uninit_move@PAUUIEffectAniInfo@RouletteWnd@@PAU12@V?$allocator@UUIEffectAniInfo@RouletteWnd@@@std@@U12@@std@@YAPAUUIEffectAniInfo@RouletteWnd@@PAU12@00AAV?$allocator@UUIEffectAniInfo@RouletteWnd@@@0@0U_Nonscalar_ptr_iterator_tag@0@@Z
_TEXT	SEGMENT
__First$ = 8						; size = 4
__Last$ = 12						; size = 4
__Dest$ = 16						; size = 4
__Al$ = 20						; size = 4
___formal$ = 24						; size = 4
___formal$ = 28						; size = 1
??$_Uninit_move@PAUUIEffectAniInfo@RouletteWnd@@PAU12@V?$allocator@UUIEffectAniInfo@RouletteWnd@@@std@@U12@@std@@YAPAUUIEffectAniInfo@RouletteWnd@@PAU12@00AAV?$allocator@UUIEffectAniInfo@RouletteWnd@@@0@0U_Nonscalar_ptr_iterator_tag@0@@Z PROC ; std::_Uninit_move<RouletteWnd::UIEffectAniInfo *,RouletteWnd::UIEffectAniInfo *,std::allocator<RouletteWnd::UIEffectAniInfo>,RouletteWnd::UIEffectAniInfo>, COMDAT

; 424  : 	{	// move [_First, _Last) to raw _Dest, using _Al, arbitrary type

  00000	55		 push	 ebp
  00001	8b ec		 mov	 ebp, esp
  00003	56		 push	 esi

; 425  : 	_DEBUG_RANGE(_First, _Last);
; 426  : 	_DEBUG_POINTER(_Dest);
; 427  : 	_FwdIt _Next = _Dest;
; 428  : 
; 429  : 	_TRY_BEGIN
; 430  : 	for (; _First != _Last; ++_Dest, ++_First)

  00004	8b 75 08	 mov	 esi, DWORD PTR __First$[ebp]
  00007	eb 16		 jmp	 SHORT $LN24@Uninit_mov
$LL6@Uninit_mov:

; 431  : 		_Cons_val(_Al, _Dest, (_Valty &&)*_First);

  00009	56		 push	 esi
  0000a	ff 75 10	 push	 DWORD PTR __Dest$[ebp]
  0000d	ff 75 14	 push	 DWORD PTR __Al$[ebp]
  00010	e8 00 00 00 00	 call	 ??$_Cons_val@V?$allocator@UUIEffectAniInfo@RouletteWnd@@@std@@UUIEffectAniInfo@RouletteWnd@@U34@@std@@YAXAAV?$allocator@UUIEffectAniInfo@RouletteWnd@@@0@PAUUIEffectAniInfo@RouletteWnd@@$$QAU23@@Z ; std::_Cons_val<std::allocator<RouletteWnd::UIEffectAniInfo>,RouletteWnd::UIEffectAniInfo,RouletteWnd::UIEffectAniInfo>
  00015	83 45 10 20	 add	 DWORD PTR __Dest$[ebp], 32 ; 00000020H
  00019	83 c4 0c	 add	 esp, 12			; 0000000cH
  0001c	83 c6 20	 add	 esi, 32			; 00000020H
$LN24@Uninit_mov:

; 425  : 	_DEBUG_RANGE(_First, _Last);
; 426  : 	_DEBUG_POINTER(_Dest);
; 427  : 	_FwdIt _Next = _Dest;
; 428  : 
; 429  : 	_TRY_BEGIN
; 430  : 	for (; _First != _Last; ++_Dest, ++_First)

  0001f	3b 75 0c	 cmp	 esi, DWORD PTR __Last$[ebp]
  00022	75 e5		 jne	 SHORT $LL6@Uninit_mov

; 432  : 	_CATCH_ALL
; 433  : 	for (; _Next != _Dest; ++_Next)
; 434  : 		_Dest_val(_Al, _Next);
; 435  : 	_RERAISE;
; 436  : 	_CATCH_END
; 437  : 	return (_Dest);

  00024	8b 45 10	 mov	 eax, DWORD PTR __Dest$[ebp]
  00027	5e		 pop	 esi

; 438  : 	}

  00028	5d		 pop	 ebp
  00029	c3		 ret	 0
??$_Uninit_move@PAUUIEffectAniInfo@RouletteWnd@@PAU12@V?$allocator@UUIEffectAniInfo@RouletteWnd@@@std@@U12@@std@@YAPAUUIEffectAniInfo@RouletteWnd@@PAU12@00AAV?$allocator@UUIEffectAniInfo@RouletteWnd@@@0@0U_Nonscalar_ptr_iterator_tag@0@@Z ENDP ; std::_Uninit_move<RouletteWnd::UIEffectAniInfo *,RouletteWnd::UIEffectAniInfo *,std::allocator<RouletteWnd::UIEffectAniInfo>,RouletteWnd::UIEffectAniInfo>
_TEXT	ENDS
PUBLIC	??$_Dest_val@V?$allocator@VioHashString@@@std@@VioHashString@@@std@@YAXAAV?$allocator@VioHashString@@@0@PAVioHashString@@@Z ; std::_Dest_val<std::allocator<ioHashString>,ioHashString>
; Function compile flags: /Ogsp
; File c:\program files (x86)\microsoft visual studio 10.0\vc\include\xmemory
;	COMDAT ??$_Dest_val@V?$allocator@VioHashString@@@std@@VioHashString@@@std@@YAXAAV?$allocator@VioHashString@@@0@PAVioHashString@@@Z
_TEXT	SEGMENT
__Alval$ = 8						; size = 4
__Pdest$ = 12						; size = 4
??$_Dest_val@V?$allocator@VioHashString@@@std@@VioHashString@@@std@@YAXAAV?$allocator@VioHashString@@@0@PAVioHashString@@@Z PROC ; std::_Dest_val<std::allocator<ioHashString>,ioHashString>, COMDAT

; 286  : 	{	// destroy using allocator

  00000	55		 push	 ebp
  00001	8b ec		 mov	 ebp, esp

; 287  : 	_Alval.destroy(_Pdest);

  00003	8b 4d 0c	 mov	 ecx, DWORD PTR __Pdest$[ebp]

; 288  : 	}

  00006	5d		 pop	 ebp

; 287  : 	_Alval.destroy(_Pdest);

  00007	ff 25 00 00 00
	00		 jmp	 DWORD PTR __imp_??1ioHashString@@QAE@XZ
??$_Dest_val@V?$allocator@VioHashString@@@std@@VioHashString@@@std@@YAXAAV?$allocator@VioHashString@@@0@PAVioHashString@@@Z ENDP ; std::_Dest_val<std::allocator<ioHashString>,ioHashString>
_TEXT	ENDS
PUBLIC	??$_Destroy_range@V?$allocator@UUIEffectAniInfo@RouletteWnd@@@std@@@std@@YAXPAUUIEffectAniInfo@RouletteWnd@@0AAV?$allocator@UUIEffectAniInfo@RouletteWnd@@@0@@Z ; std::_Destroy_range<std::allocator<RouletteWnd::UIEffectAniInfo> >
; Function compile flags: /Ogsp
;	COMDAT ??$_Destroy_range@V?$allocator@UUIEffectAniInfo@RouletteWnd@@@std@@@std@@YAXPAUUIEffectAniInfo@RouletteWnd@@0AAV?$allocator@UUIEffectAniInfo@RouletteWnd@@@0@@Z
_TEXT	SEGMENT
__First$ = 8						; size = 4
__Last$ = 12						; size = 4
__Al$ = 16						; size = 4
??$_Destroy_range@V?$allocator@UUIEffectAniInfo@RouletteWnd@@@std@@@std@@YAXPAUUIEffectAniInfo@RouletteWnd@@0AAV?$allocator@UUIEffectAniInfo@RouletteWnd@@@0@@Z PROC ; std::_Destroy_range<std::allocator<RouletteWnd::UIEffectAniInfo> >, COMDAT

; 88   : 	_Destroy_range(_First, _Last, _Al, _Ptr_cat(_First, _Last));
; 89   : 	}

  00000	c3		 ret	 0
??$_Destroy_range@V?$allocator@UUIEffectAniInfo@RouletteWnd@@@std@@@std@@YAXPAUUIEffectAniInfo@RouletteWnd@@0AAV?$allocator@UUIEffectAniInfo@RouletteWnd@@@0@@Z ENDP ; std::_Destroy_range<std::allocator<RouletteWnd::UIEffectAniInfo> >
_TEXT	ENDS
PUBLIC	??$_Uninitialized_move@PAUUIEffectAniInfo@RouletteWnd@@PAU12@V?$allocator@UUIEffectAniInfo@RouletteWnd@@@std@@@std@@YAPAUUIEffectAniInfo@RouletteWnd@@PAU12@00AAV?$allocator@UUIEffectAniInfo@RouletteWnd@@@0@@Z ; std::_Uninitialized_move<RouletteWnd::UIEffectAniInfo *,RouletteWnd::UIEffectAniInfo *,std::allocator<RouletteWnd::UIEffectAniInfo> >
; Function compile flags: /Ogsp
; File c:\program files (x86)\microsoft visual studio 10.0\vc\include\memory
;	COMDAT ??$_Uninitialized_move@PAUUIEffectAniInfo@RouletteWnd@@PAU12@V?$allocator@UUIEffectAniInfo@RouletteWnd@@@std@@@std@@YAPAUUIEffectAniInfo@RouletteWnd@@PAU12@00AAV?$allocator@UUIEffectAniInfo@RouletteWnd@@@0@@Z
_TEXT	SEGMENT
__Cat$513347 = -4					; size = 1
__First$ = 8						; size = 4
__Last$ = 12						; size = 4
__Dest$ = 16						; size = 4
__Al$ = 20						; size = 4
??$_Uninitialized_move@PAUUIEffectAniInfo@RouletteWnd@@PAU12@V?$allocator@UUIEffectAniInfo@RouletteWnd@@@std@@@std@@YAPAUUIEffectAniInfo@RouletteWnd@@PAU12@00AAV?$allocator@UUIEffectAniInfo@RouletteWnd@@@0@@Z PROC ; std::_Uninitialized_move<RouletteWnd::UIEffectAniInfo *,RouletteWnd::UIEffectAniInfo *,std::allocator<RouletteWnd::UIEffectAniInfo> >, COMDAT

; 469  : 	{	// move [_First, _Last) to raw _Dest, using _Al

  00000	55		 push	 ebp
  00001	8b ec		 mov	 ebp, esp
  00003	51		 push	 ecx

; 470  : 	return (_Uninit_move(_First, _Last, _Dest, _Al,
; 471  : 		_Val_type(_First), _Ptr_cat(_First, _Dest)));

  00004	ff 75 fc	 push	 DWORD PTR __Cat$513347[ebp]
  00007	6a 00		 push	 0
  00009	ff 75 14	 push	 DWORD PTR __Al$[ebp]
  0000c	ff 75 10	 push	 DWORD PTR __Dest$[ebp]
  0000f	ff 75 0c	 push	 DWORD PTR __Last$[ebp]
  00012	ff 75 08	 push	 DWORD PTR __First$[ebp]
  00015	e8 00 00 00 00	 call	 ??$_Uninit_move@PAUUIEffectAniInfo@RouletteWnd@@PAU12@V?$allocator@UUIEffectAniInfo@RouletteWnd@@@std@@U12@@std@@YAPAUUIEffectAniInfo@RouletteWnd@@PAU12@00AAV?$allocator@UUIEffectAniInfo@RouletteWnd@@@0@0U_Nonscalar_ptr_iterator_tag@0@@Z ; std::_Uninit_move<RouletteWnd::UIEffectAniInfo *,RouletteWnd::UIEffectAniInfo *,std::allocator<RouletteWnd::UIEffectAniInfo>,RouletteWnd::UIEffectAniInfo>
  0001a	83 c4 18	 add	 esp, 24			; 00000018H

; 472  : 	}

  0001d	c9		 leave
  0001e	c3		 ret	 0
??$_Uninitialized_move@PAUUIEffectAniInfo@RouletteWnd@@PAU12@V?$allocator@UUIEffectAniInfo@RouletteWnd@@@std@@@std@@YAPAUUIEffectAniInfo@RouletteWnd@@PAU12@00AAV?$allocator@UUIEffectAniInfo@RouletteWnd@@@0@@Z ENDP ; std::_Uninitialized_move<RouletteWnd::UIEffectAniInfo *,RouletteWnd::UIEffectAniInfo *,std::allocator<RouletteWnd::UIEffectAniInfo> >
_TEXT	ENDS
PUBLIC	??$_Uninit_move@PAVioHashString@@PAV1@V?$allocator@VioHashString@@@std@@V1@@std@@YAPAVioHashString@@PAV1@00AAV?$allocator@VioHashString@@@0@0U_Nonscalar_ptr_iterator_tag@0@@Z ; std::_Uninit_move<ioHashString *,ioHashString *,std::allocator<ioHashString>,ioHashString>
EXTRN	__EH_prolog3_catch:PROC
;	COMDAT xdata$x
; File c:\program files (x86)\microsoft visual studio 10.0\vc\include\vector
xdata$x	SEGMENT
__catchsym$??$_Uninit_move@PAVioHashString@@PAV1@V?$allocator@VioHashString@@@std@@V1@@std@@YAPAVioHashString@@PAV1@00AAV?$allocator@VioHashString@@@0@0U_Nonscalar_ptr_iterator_tag@0@@Z$2 DD 040H
	DD	00H
	DD	00H
	DD	FLAT:__catch$??$_Uninit_move@PAVioHashString@@PAV1@V?$allocator@VioHashString@@@std@@V1@@std@@YAPAVioHashString@@PAV1@00AAV?$allocator@VioHashString@@@0@0U_Nonscalar_ptr_iterator_tag@0@@Z$0
__unwindtable$??$_Uninit_move@PAVioHashString@@PAV1@V?$allocator@VioHashString@@@std@@V1@@std@@YAPAVioHashString@@PAV1@00AAV?$allocator@VioHashString@@@0@0U_Nonscalar_ptr_iterator_tag@0@@Z DD 0ffffffffH
	DD	00H
	DD	0ffffffffH
	DD	00H
__tryblocktable$??$_Uninit_move@PAVioHashString@@PAV1@V?$allocator@VioHashString@@@std@@V1@@std@@YAPAVioHashString@@PAV1@00AAV?$allocator@VioHashString@@@0@0U_Nonscalar_ptr_iterator_tag@0@@Z DD 00H
	DD	00H
	DD	01H
	DD	01H
	DD	FLAT:__catchsym$??$_Uninit_move@PAVioHashString@@PAV1@V?$allocator@VioHashString@@@std@@V1@@std@@YAPAVioHashString@@PAV1@00AAV?$allocator@VioHashString@@@0@0U_Nonscalar_ptr_iterator_tag@0@@Z$2
__ehfuncinfo$??$_Uninit_move@PAVioHashString@@PAV1@V?$allocator@VioHashString@@@std@@V1@@std@@YAPAVioHashString@@PAV1@00AAV?$allocator@VioHashString@@@0@0U_Nonscalar_ptr_iterator_tag@0@@Z DD 019930522H
	DD	02H
	DD	FLAT:__unwindtable$??$_Uninit_move@PAVioHashString@@PAV1@V?$allocator@VioHashString@@@std@@V1@@std@@YAPAVioHashString@@PAV1@00AAV?$allocator@VioHashString@@@0@0U_Nonscalar_ptr_iterator_tag@0@@Z
	DD	01H
	DD	FLAT:__tryblocktable$??$_Uninit_move@PAVioHashString@@PAV1@V?$allocator@VioHashString@@@std@@V1@@std@@YAPAVioHashString@@PAV1@00AAV?$allocator@VioHashString@@@0@0U_Nonscalar_ptr_iterator_tag@0@@Z
	DD	2 DUP(00H)
	DD	00H
	DD	01H
; Function compile flags: /Ogsp
; File c:\program files (x86)\microsoft visual studio 10.0\vc\include\memory
xdata$x	ENDS
;	COMDAT ??$_Uninit_move@PAVioHashString@@PAV1@V?$allocator@VioHashString@@@std@@V1@@std@@YAPAVioHashString@@PAV1@00AAV?$allocator@VioHashString@@@0@0U_Nonscalar_ptr_iterator_tag@0@@Z
_TEXT	SEGMENT
__Next$ = -20						; size = 4
__$EHRec$ = -16						; size = 16
__First$ = 8						; size = 4
__Last$ = 12						; size = 4
__Dest$ = 16						; size = 4
__Al$ = 20						; size = 4
___formal$ = 24						; size = 4
___formal$ = 28						; size = 1
??$_Uninit_move@PAVioHashString@@PAV1@V?$allocator@VioHashString@@@std@@V1@@std@@YAPAVioHashString@@PAV1@00AAV?$allocator@VioHashString@@@0@0U_Nonscalar_ptr_iterator_tag@0@@Z PROC ; std::_Uninit_move<ioHashString *,ioHashString *,std::allocator<ioHashString>,ioHashString>, COMDAT

; 424  : 	{	// move [_First, _Last) to raw _Dest, using _Al, arbitrary type

  00000	6a 08		 push	 8
  00002	b8 00 00 00 00	 mov	 eax, __ehhandler$??$_Uninit_move@PAVioHashString@@PAV1@V?$allocator@VioHashString@@@std@@V1@@std@@YAPAVioHashString@@PAV1@00AAV?$allocator@VioHashString@@@0@0U_Nonscalar_ptr_iterator_tag@0@@Z
  00007	e8 00 00 00 00	 call	 __EH_prolog3_catch

; 425  : 	_DEBUG_RANGE(_First, _Last);
; 426  : 	_DEBUG_POINTER(_Dest);
; 427  : 	_FwdIt _Next = _Dest;

  0000c	8b 45 10	 mov	 eax, DWORD PTR __Dest$[ebp]

; 428  : 
; 429  : 	_TRY_BEGIN

  0000f	83 65 fc 00	 and	 DWORD PTR __$EHRec$[ebp+12], 0
  00013	8b 75 08	 mov	 esi, DWORD PTR __First$[ebp]
  00016	89 45 ec	 mov	 DWORD PTR __Next$[ebp], eax
$LL6@Uninit_mov@2:

; 430  : 	for (; _First != _Last; ++_Dest, ++_First)

  00019	3b 75 0c	 cmp	 esi, DWORD PTR __Last$[ebp]
  0001c	74 33		 je	 SHORT $LN4@Uninit_mov@2

; 431  : 		_Cons_val(_Al, _Dest, (_Valty &&)*_First);

  0001e	8b 4d 14	 mov	 ecx, DWORD PTR __Al$[ebp]
  00021	56		 push	 esi
  00022	ff 75 10	 push	 DWORD PTR __Dest$[ebp]
  00025	e8 00 00 00 00	 call	 ?construct@?$allocator@VioHashString@@@std@@QAEXPAVioHashString@@$$QAV3@@Z ; std::allocator<ioHashString>::construct
  0002a	83 45 10 10	 add	 DWORD PTR __Dest$[ebp], 16 ; 00000010H
  0002e	83 c6 10	 add	 esi, 16			; 00000010H
  00031	eb e6		 jmp	 SHORT $LL6@Uninit_mov@2
__catch$??$_Uninit_move@PAVioHashString@@PAV1@V?$allocator@VioHashString@@@std@@V1@@std@@YAPAVioHashString@@PAV1@00AAV?$allocator@VioHashString@@@0@0U_Nonscalar_ptr_iterator_tag@0@@Z$0:

; 432  : 	_CATCH_ALL
; 433  : 	for (; _Next != _Dest; ++_Next)

  00033	8b 75 ec	 mov	 esi, DWORD PTR __Next$[ebp]
  00036	eb 0b		 jmp	 SHORT $LN33@Uninit_mov@2
$LL3@Uninit_mov@2:

; 434  : 		_Dest_val(_Al, _Next);

  00038	8b ce		 mov	 ecx, esi
  0003a	ff 15 00 00 00
	00		 call	 DWORD PTR __imp_??1ioHashString@@QAE@XZ
  00040	83 c6 10	 add	 esi, 16			; 00000010H
$LN33@Uninit_mov@2:

; 432  : 	_CATCH_ALL
; 433  : 	for (; _Next != _Dest; ++_Next)

  00043	3b 75 10	 cmp	 esi, DWORD PTR __Dest$[ebp]
  00046	75 f0		 jne	 SHORT $LL3@Uninit_mov@2

; 435  : 	_RERAISE;

  00048	6a 00		 push	 0
  0004a	6a 00		 push	 0
  0004c	e8 00 00 00 00	 call	 __CxxThrowException@8
$LN34@Uninit_mov@2:
$LN4@Uninit_mov@2:

; 436  : 	_CATCH_END
; 437  : 	return (_Dest);

  00051	8b 45 10	 mov	 eax, DWORD PTR __Dest$[ebp]

; 438  : 	}

  00054	e8 00 00 00 00	 call	 __EH_epilog3
  00059	c3		 ret	 0
$LN32@Uninit_mov@2:
_TEXT	ENDS
;	COMDAT text$x
text$x	SEGMENT
__ehhandler$??$_Uninit_move@PAVioHashString@@PAV1@V?$allocator@VioHashString@@@std@@V1@@std@@YAPAVioHashString@@PAV1@00AAV?$allocator@VioHashString@@@0@0U_Nonscalar_ptr_iterator_tag@0@@Z:
  00000	8b 54 24 08	 mov	 edx, DWORD PTR [esp+8]
  00004	8d 42 0c	 lea	 eax, DWORD PTR [edx+12]
  00007	8b 4a e8	 mov	 ecx, DWORD PTR [edx-24]
  0000a	33 c8		 xor	 ecx, eax
  0000c	e8 00 00 00 00	 call	 @__security_check_cookie@4
  00011	b8 00 00 00 00	 mov	 eax, OFFSET __ehfuncinfo$??$_Uninit_move@PAVioHashString@@PAV1@V?$allocator@VioHashString@@@std@@V1@@std@@YAPAVioHashString@@PAV1@00AAV?$allocator@VioHashString@@@0@0U_Nonscalar_ptr_iterator_tag@0@@Z
  00016	e9 00 00 00 00	 jmp	 ___CxxFrameHandler3
text$x	ENDS
??$_Uninit_move@PAVioHashString@@PAV1@V?$allocator@VioHashString@@@std@@V1@@std@@YAPAVioHashString@@PAV1@00AAV?$allocator@VioHashString@@@0@0U_Nonscalar_ptr_iterator_tag@0@@Z ENDP ; std::_Uninit_move<ioHashString *,ioHashString *,std::allocator<ioHashString>,ioHashString>
PUBLIC	??$_Destroy_range@V?$allocator@VioHashString@@@std@@@std@@YAXPAVioHashString@@0AAV?$allocator@VioHashString@@@0@U_Nonscalar_ptr_iterator_tag@0@@Z ; std::_Destroy_range<std::allocator<ioHashString> >
; Function compile flags: /Ogsp
; File c:\program files (x86)\microsoft visual studio 10.0\vc\include\xmemory
;	COMDAT ??$_Destroy_range@V?$allocator@VioHashString@@@std@@@std@@YAXPAVioHashString@@0AAV?$allocator@VioHashString@@@0@U_Nonscalar_ptr_iterator_tag@0@@Z
_TEXT	SEGMENT
__First$ = 8						; size = 4
__Last$ = 12						; size = 4
__Al$ = 16						; size = 4
___formal$ = 20						; size = 1
??$_Destroy_range@V?$allocator@VioHashString@@@std@@@std@@YAXPAVioHashString@@0AAV?$allocator@VioHashString@@@0@U_Nonscalar_ptr_iterator_tag@0@@Z PROC ; std::_Destroy_range<std::allocator<ioHashString> >, COMDAT

; 95   : 	{	// destroy [_First, _Last), arbitrary type

  00000	55		 push	 ebp
  00001	8b ec		 mov	 ebp, esp
  00003	56		 push	 esi

; 96   : 	for (; _First != _Last; ++_First)

  00004	8b 75 08	 mov	 esi, DWORD PTR __First$[ebp]
  00007	eb 0b		 jmp	 SHORT $LN17@Destroy_ra
$LL3@Destroy_ra:

; 97   : 		_Dest_val(_Al, _First);

  00009	8b ce		 mov	 ecx, esi
  0000b	ff 15 00 00 00
	00		 call	 DWORD PTR __imp_??1ioHashString@@QAE@XZ
  00011	83 c6 10	 add	 esi, 16			; 00000010H
$LN17@Destroy_ra:

; 96   : 	for (; _First != _Last; ++_First)

  00014	3b 75 0c	 cmp	 esi, DWORD PTR __Last$[ebp]
  00017	75 f0		 jne	 SHORT $LL3@Destroy_ra
  00019	5e		 pop	 esi

; 98   : 	}

  0001a	5d		 pop	 ebp
  0001b	c3		 ret	 0
??$_Destroy_range@V?$allocator@VioHashString@@@std@@@std@@YAXPAVioHashString@@0AAV?$allocator@VioHashString@@@0@U_Nonscalar_ptr_iterator_tag@0@@Z ENDP ; std::_Destroy_range<std::allocator<ioHashString> >
_TEXT	ENDS
PUBLIC	??$_Uninit_copy@V?$_Vector_const_iterator@V?$_Vector_val@VioHashString@@V?$allocator@VioHashString@@@std@@@std@@@std@@PAVioHashString@@V?$allocator@VioHashString@@@2@@std@@YAPAVioHashString@@V?$_Vector_const_iterator@V?$_Vector_val@VioHashString@@V?$allocator@VioHashString@@@std@@@std@@@0@0PAV1@AAV?$allocator@VioHashString@@@0@U_Nonscalar_ptr_iterator_tag@0@@Z ; std::_Uninit_copy<std::_Vector_const_iterator<std::_Vector_val<ioHashString,std::allocator<ioHashString> > >,ioHashString *,std::allocator<ioHashString> >
;	COMDAT xdata$x
; File c:\program files (x86)\microsoft visual studio 10.0\vc\include\vector
xdata$x	SEGMENT
__catchsym$??$_Uninit_copy@V?$_Vector_const_iterator@V?$_Vector_val@VioHashString@@V?$allocator@VioHashString@@@std@@@std@@@std@@PAVioHashString@@V?$allocator@VioHashString@@@2@@std@@YAPAVioHashString@@V?$_Vector_const_iterator@V?$_Vector_val@VioHashString@@V?$allocator@VioHashString@@@std@@@std@@@0@0PAV1@AAV?$allocator@VioHashString@@@0@U_Nonscalar_ptr_iterator_tag@0@@Z$2 DD 040H
	DD	00H
	DD	00H
	DD	FLAT:__catch$??$_Uninit_copy@V?$_Vector_const_iterator@V?$_Vector_val@VioHashString@@V?$allocator@VioHashString@@@std@@@std@@@std@@PAVioHashString@@V?$allocator@VioHashString@@@2@@std@@YAPAVioHashString@@V?$_Vector_const_iterator@V?$_Vector_val@VioHashString@@V?$allocator@VioHashString@@@std@@@std@@@0@0PAV1@AAV?$allocator@VioHashString@@@0@U_Nonscalar_ptr_iterator_tag@0@@Z$0
__unwindtable$??$_Uninit_copy@V?$_Vector_const_iterator@V?$_Vector_val@VioHashString@@V?$allocator@VioHashString@@@std@@@std@@@std@@PAVioHashString@@V?$allocator@VioHashString@@@2@@std@@YAPAVioHashString@@V?$_Vector_const_iterator@V?$_Vector_val@VioHashString@@V?$allocator@VioHashString@@@std@@@std@@@0@0PAV1@AAV?$allocator@VioHashString@@@0@U_Nonscalar_ptr_iterator_tag@0@@Z DD 0ffffffffH
	DD	00H
	DD	0ffffffffH
	DD	00H
__tryblocktable$??$_Uninit_copy@V?$_Vector_const_iterator@V?$_Vector_val@VioHashString@@V?$allocator@VioHashString@@@std@@@std@@@std@@PAVioHashString@@V?$allocator@VioHashString@@@2@@std@@YAPAVioHashString@@V?$_Vector_const_iterator@V?$_Vector_val@VioHashString@@V?$allocator@VioHashString@@@std@@@std@@@0@0PAV1@AAV?$allocator@VioHashString@@@0@U_Nonscalar_ptr_iterator_tag@0@@Z DD 00H
	DD	00H
	DD	01H
	DD	01H
	DD	FLAT:__catchsym$??$_Uninit_copy@V?$_Vector_const_iterator@V?$_Vector_val@VioHashString@@V?$allocator@VioHashString@@@std@@@std@@@std@@PAVioHashString@@V?$allocator@VioHashString@@@2@@std@@YAPAVioHashString@@V?$_Vector_const_iterator@V?$_Vector_val@VioHashString@@V?$allocator@VioHashString@@@std@@@std@@@0@0PAV1@AAV?$allocator@VioHashString@@@0@U_Nonscalar_ptr_iterator_tag@0@@Z$2
__ehfuncinfo$??$_Uninit_copy@V?$_Vector_const_iterator@V?$_Vector_val@VioHashString@@V?$allocator@VioHashString@@@std@@@std@@@std@@PAVioHashString@@V?$allocator@VioHashString@@@2@@std@@YAPAVioHashString@@V?$_Vector_const_iterator@V?$_Vector_val@VioHashString@@V?$allocator@VioHashString@@@std@@@std@@@0@0PAV1@AAV?$allocator@VioHashString@@@0@U_Nonscalar_ptr_iterator_tag@0@@Z DD 019930522H
	DD	02H
	DD	FLAT:__unwindtable$??$_Uninit_copy@V?$_Vector_const_iterator@V?$_Vector_val@VioHashString@@V?$allocator@VioHashString@@@std@@@std@@@std@@PAVioHashString@@V?$allocator@VioHashString@@@2@@std@@YAPAVioHashString@@V?$_Vector_const_iterator@V?$_Vector_val@VioHashString@@V?$allocator@VioHashString@@@std@@@std@@@0@0PAV1@AAV?$allocator@VioHashString@@@0@U_Nonscalar_ptr_iterator_tag@0@@Z
	DD	01H
	DD	FLAT:__tryblocktable$??$_Uninit_copy@V?$_Vector_const_iterator@V?$_Vector_val@VioHashString@@V?$allocator@VioHashString@@@std@@@std@@@std@@PAVioHashString@@V?$allocator@VioHashString@@@2@@std@@YAPAVioHashString@@V?$_Vector_const_iterator@V?$_Vector_val@VioHashString@@V?$allocator@VioHashString@@@std@@@std@@@0@0PAV1@AAV?$allocator@VioHashString@@@0@U_Nonscalar_ptr_iterator_tag@0@@Z
	DD	2 DUP(00H)
	DD	00H
	DD	01H
; Function compile flags: /Ogsp
; File c:\program files (x86)\microsoft visual studio 10.0\vc\include\memory
xdata$x	ENDS
;	COMDAT ??$_Uninit_copy@V?$_Vector_const_iterator@V?$_Vector_val@VioHashString@@V?$allocator@VioHashString@@@std@@@std@@@std@@PAVioHashString@@V?$allocator@VioHashString@@@2@@std@@YAPAVioHashString@@V?$_Vector_const_iterator@V?$_Vector_val@VioHashString@@V?$allocator@VioHashString@@@std@@@std@@@0@0PAV1@AAV?$allocator@VioHashString@@@0@U_Nonscalar_ptr_iterator_tag@0@@Z
_TEXT	SEGMENT
__Next$ = -20						; size = 4
__$EHRec$ = -16						; size = 16
__First$ = 8						; size = 4
__Last$ = 12						; size = 4
__Dest$ = 16						; size = 4
__Al$ = 20						; size = 4
___formal$ = 24						; size = 1
??$_Uninit_copy@V?$_Vector_const_iterator@V?$_Vector_val@VioHashString@@V?$allocator@VioHashString@@@std@@@std@@@std@@PAVioHashString@@V?$allocator@VioHashString@@@2@@std@@YAPAVioHashString@@V?$_Vector_const_iterator@V?$_Vector_val@VioHashString@@V?$allocator@VioHashString@@@std@@@std@@@0@0PAV1@AAV?$allocator@VioHashString@@@0@U_Nonscalar_ptr_iterator_tag@0@@Z PROC ; std::_Uninit_copy<std::_Vector_const_iterator<std::_Vector_val<ioHashString,std::allocator<ioHashString> > >,ioHashString *,std::allocator<ioHashString> >, COMDAT

; 369  : 	{	// copy [_First, _Last) to raw _Dest, using _Al, arbitrary type

  00000	6a 08		 push	 8
  00002	b8 00 00 00 00	 mov	 eax, __ehhandler$??$_Uninit_copy@V?$_Vector_const_iterator@V?$_Vector_val@VioHashString@@V?$allocator@VioHashString@@@std@@@std@@@std@@PAVioHashString@@V?$allocator@VioHashString@@@2@@std@@YAPAVioHashString@@V?$_Vector_const_iterator@V?$_Vector_val@VioHashString@@V?$allocator@VioHashString@@@std@@@std@@@0@0PAV1@AAV?$allocator@VioHashString@@@0@U_Nonscalar_ptr_iterator_tag@0@@Z
  00007	e8 00 00 00 00	 call	 __EH_prolog3_catch

; 370  : 	_DEBUG_RANGE(_First, _Last);
; 371  : 	_DEBUG_POINTER(_Dest);
; 372  : 	_FwdIt _Next = _Dest;

  0000c	8b 45 10	 mov	 eax, DWORD PTR __Dest$[ebp]

; 373  : 
; 374  : 	_TRY_BEGIN

  0000f	83 65 fc 00	 and	 DWORD PTR __$EHRec$[ebp+12], 0
  00013	89 45 ec	 mov	 DWORD PTR __Next$[ebp], eax

; 375  : 	for (; _First != _Last; ++_Dest, ++_First)

$LL14@Uninit_cop:
  00016	8b 45 08	 mov	 eax, DWORD PTR __First$[ebp]
  00019	3b 45 0c	 cmp	 eax, DWORD PTR __Last$[ebp]
  0001c	74 33		 je	 SHORT $LN4@Uninit_cop

; 376  : 		_Cons_val(_Al, _Dest, *_First);

  0001e	50		 push	 eax
  0001f	ff 75 10	 push	 DWORD PTR __Dest$[ebp]
  00022	e8 00 00 00 00	 call	 ??$_Construct@VioHashString@@ABV1@@std@@YAXPAVioHashString@@ABV1@@Z ; std::_Construct<ioHashString,ioHashString const &>
  00027	83 45 10 10	 add	 DWORD PTR __Dest$[ebp], 16 ; 00000010H
  0002b	83 45 08 10	 add	 DWORD PTR __First$[ebp], 16 ; 00000010H
  0002f	59		 pop	 ecx
  00030	59		 pop	 ecx
  00031	eb e3		 jmp	 SHORT $LL14@Uninit_cop
__catch$??$_Uninit_copy@V?$_Vector_const_iterator@V?$_Vector_val@VioHashString@@V?$allocator@VioHashString@@@std@@@std@@@std@@PAVioHashString@@V?$allocator@VioHashString@@@2@@std@@YAPAVioHashString@@V?$_Vector_const_iterator@V?$_Vector_val@VioHashString@@V?$allocator@VioHashString@@@std@@@std@@@0@0PAV1@AAV?$allocator@VioHashString@@@0@U_Nonscalar_ptr_iterator_tag@0@@Z$0:

; 377  : 	_CATCH_ALL
; 378  : 	for (; _Next != _Dest; ++_Next)

  00033	8b 75 ec	 mov	 esi, DWORD PTR __Next$[ebp]
  00036	eb 0b		 jmp	 SHORT $LN45@Uninit_cop
$LL3@Uninit_cop:

; 379  : 		_Dest_val(_Al, _Next);

  00038	8b ce		 mov	 ecx, esi
  0003a	ff 15 00 00 00
	00		 call	 DWORD PTR __imp_??1ioHashString@@QAE@XZ
  00040	83 c6 10	 add	 esi, 16			; 00000010H
$LN45@Uninit_cop:

; 377  : 	_CATCH_ALL
; 378  : 	for (; _Next != _Dest; ++_Next)

  00043	3b 75 10	 cmp	 esi, DWORD PTR __Dest$[ebp]
  00046	75 f0		 jne	 SHORT $LL3@Uninit_cop

; 380  : 	_RERAISE;

  00048	6a 00		 push	 0
  0004a	6a 00		 push	 0
  0004c	e8 00 00 00 00	 call	 __CxxThrowException@8
$LN46@Uninit_cop:
$LN4@Uninit_cop:

; 381  : 	_CATCH_END
; 382  : 	return (_Dest);

  00051	8b 45 10	 mov	 eax, DWORD PTR __Dest$[ebp]

; 383  : 	}

  00054	e8 00 00 00 00	 call	 __EH_epilog3
  00059	c3		 ret	 0
$LN44@Uninit_cop:
_TEXT	ENDS
;	COMDAT text$x
text$x	SEGMENT
__ehhandler$??$_Uninit_copy@V?$_Vector_const_iterator@V?$_Vector_val@VioHashString@@V?$allocator@VioHashString@@@std@@@std@@@std@@PAVioHashString@@V?$allocator@VioHashString@@@2@@std@@YAPAVioHashString@@V?$_Vector_const_iterator@V?$_Vector_val@VioHashString@@V?$allocator@VioHashString@@@std@@@std@@@0@0PAV1@AAV?$allocator@VioHashString@@@0@U_Nonscalar_ptr_iterator_tag@0@@Z:
  00000	8b 54 24 08	 mov	 edx, DWORD PTR [esp+8]
  00004	8d 42 0c	 lea	 eax, DWORD PTR [edx+12]
  00007	8b 4a e8	 mov	 ecx, DWORD PTR [edx-24]
  0000a	33 c8		 xor	 ecx, eax
  0000c	e8 00 00 00 00	 call	 @__security_check_cookie@4
  00011	b8 00 00 00 00	 mov	 eax, OFFSET __ehfuncinfo$??$_Uninit_copy@V?$_Vector_const_iterator@V?$_Vector_val@VioHashString@@V?$allocator@VioHashString@@@std@@@std@@@std@@PAVioHashString@@V?$allocator@VioHashString@@@2@@std@@YAPAVioHashString@@V?$_Vector_const_iterator@V?$_Vector_val@VioHashString@@V?$allocator@VioHashString@@@std@@@std@@@0@0PAV1@AAV?$allocator@VioHashString@@@0@U_Nonscalar_ptr_iterator_tag@0@@Z
  00016	e9 00 00 00 00	 jmp	 ___CxxFrameHandler3
text$x	ENDS
??$_Uninit_copy@V?$_Vector_const_iterator@V?$_Vector_val@VioHashString@@V?$allocator@VioHashString@@@std@@@std@@@std@@PAVioHashString@@V?$allocator@VioHashString@@@2@@std@@YAPAVioHashString@@V?$_Vector_const_iterator@V?$_Vector_val@VioHashString@@V?$allocator@VioHashString@@@std@@@std@@@0@0PAV1@AAV?$allocator@VioHashString@@@0@U_Nonscalar_ptr_iterator_tag@0@@Z ENDP ; std::_Uninit_copy<std::_Vector_const_iterator<std::_Vector_val<ioHashString,std::allocator<ioHashString> > >,ioHashString *,std::allocator<ioHashString> >
PUBLIC	?_Destroy@?$vector@UUIEffectAniInfo@RouletteWnd@@V?$allocator@UUIEffectAniInfo@RouletteWnd@@@std@@@std@@IAEXPAUUIEffectAniInfo@RouletteWnd@@0@Z ; std::vector<RouletteWnd::UIEffectAniInfo,std::allocator<RouletteWnd::UIEffectAniInfo> >::_Destroy
; Function compile flags: /Ogsp
; File c:\program files (x86)\microsoft visual studio 10.0\vc\include\vector
;	COMDAT ?_Destroy@?$vector@UUIEffectAniInfo@RouletteWnd@@V?$allocator@UUIEffectAniInfo@RouletteWnd@@@std@@@std@@IAEXPAUUIEffectAniInfo@RouletteWnd@@0@Z
_TEXT	SEGMENT
__First$ = 8						; size = 4
__Last$ = 12						; size = 4
?_Destroy@?$vector@UUIEffectAniInfo@RouletteWnd@@V?$allocator@UUIEffectAniInfo@RouletteWnd@@@std@@@std@@IAEXPAUUIEffectAniInfo@RouletteWnd@@0@Z PROC ; std::vector<RouletteWnd::UIEffectAniInfo,std::allocator<RouletteWnd::UIEffectAniInfo> >::_Destroy, COMDAT
; _this$ = ecx

; 1270 : 		_Destroy_range(_First, _Last, this->_Alval);
; 1271 : 		}

  00000	c2 08 00	 ret	 8
?_Destroy@?$vector@UUIEffectAniInfo@RouletteWnd@@V?$allocator@UUIEffectAniInfo@RouletteWnd@@@std@@@std@@IAEXPAUUIEffectAniInfo@RouletteWnd@@0@Z ENDP ; std::vector<RouletteWnd::UIEffectAniInfo,std::allocator<RouletteWnd::UIEffectAniInfo> >::_Destroy
_TEXT	ENDS
PUBLIC	?_Tidy@?$vector@UUIEffectAniInfo@RouletteWnd@@V?$allocator@UUIEffectAniInfo@RouletteWnd@@@std@@@std@@IAEXXZ ; std::vector<RouletteWnd::UIEffectAniInfo,std::allocator<RouletteWnd::UIEffectAniInfo> >::_Tidy
EXTRN	__imp_?_Orphan_all@_Container_base0@std@@QAEXXZ:PROC
; Function compile flags: /Ogsp
;	COMDAT ?_Tidy@?$vector@UUIEffectAniInfo@RouletteWnd@@V?$allocator@UUIEffectAniInfo@RouletteWnd@@@std@@@std@@IAEXXZ
_TEXT	SEGMENT
?_Tidy@?$vector@UUIEffectAniInfo@RouletteWnd@@V?$allocator@UUIEffectAniInfo@RouletteWnd@@@std@@@std@@IAEXXZ PROC ; std::vector<RouletteWnd::UIEffectAniInfo,std::allocator<RouletteWnd::UIEffectAniInfo> >::_Tidy, COMDAT
; _this$ = ecx

; 1301 : 		{	// free all storage

  00000	56		 push	 esi
  00001	8b f1		 mov	 esi, ecx

; 1302 : 		if (this->_Myfirst != 0)

  00003	83 3e 00	 cmp	 DWORD PTR [esi], 0
  00006	74 0e		 je	 SHORT $LN21@Tidy

; 1303 : 			{	// something to free, destroy and deallocate it
; 1304 : 			this->_Orphan_all();

  00008	ff 15 00 00 00
	00		 call	 DWORD PTR __imp_?_Orphan_all@_Container_base0@std@@QAEXXZ

; 1305 : 			_Destroy(this->_Myfirst, this->_Mylast);
; 1306 : 			this->_Alval.deallocate(this->_Myfirst,
; 1307 : 				this->_Myend - this->_Myfirst);

  0000e	ff 36		 push	 DWORD PTR [esi]
  00010	e8 00 00 00 00	 call	 ??3@YAXPAX@Z		; operator delete
  00015	59		 pop	 ecx
$LN21@Tidy:

; 1308 : 			}
; 1309 : 		this->_Myfirst = 0;

  00016	83 26 00	 and	 DWORD PTR [esi], 0

; 1310 : 		this->_Mylast = 0;

  00019	83 66 04 00	 and	 DWORD PTR [esi+4], 0

; 1311 : 		this->_Myend = 0;

  0001d	83 66 08 00	 and	 DWORD PTR [esi+8], 0
  00021	5e		 pop	 esi

; 1312 : 		}

  00022	c3		 ret	 0
?_Tidy@?$vector@UUIEffectAniInfo@RouletteWnd@@V?$allocator@UUIEffectAniInfo@RouletteWnd@@@std@@@std@@IAEXXZ ENDP ; std::vector<RouletteWnd::UIEffectAniInfo,std::allocator<RouletteWnd::UIEffectAniInfo> >::_Tidy
_TEXT	ENDS
PUBLIC	??$_Umove@PAUUIEffectAniInfo@RouletteWnd@@@?$vector@UUIEffectAniInfo@RouletteWnd@@V?$allocator@UUIEffectAniInfo@RouletteWnd@@@std@@@std@@IAEPAUUIEffectAniInfo@RouletteWnd@@PAU23@00@Z ; std::vector<RouletteWnd::UIEffectAniInfo,std::allocator<RouletteWnd::UIEffectAniInfo> >::_Umove<RouletteWnd::UIEffectAniInfo *>
; Function compile flags: /Ogsp
;	COMDAT ??$_Umove@PAUUIEffectAniInfo@RouletteWnd@@@?$vector@UUIEffectAniInfo@RouletteWnd@@V?$allocator@UUIEffectAniInfo@RouletteWnd@@@std@@@std@@IAEPAUUIEffectAniInfo@RouletteWnd@@PAU23@00@Z
_TEXT	SEGMENT
__First$ = 8						; size = 4
__Last$ = 12						; size = 4
__Ptr$ = 16						; size = 4
??$_Umove@PAUUIEffectAniInfo@RouletteWnd@@@?$vector@UUIEffectAniInfo@RouletteWnd@@V?$allocator@UUIEffectAniInfo@RouletteWnd@@@std@@@std@@IAEPAUUIEffectAniInfo@RouletteWnd@@PAU23@00@Z PROC ; std::vector<RouletteWnd::UIEffectAniInfo,std::allocator<RouletteWnd::UIEffectAniInfo> >::_Umove<RouletteWnd::UIEffectAniInfo *>, COMDAT
; _this$ = ecx

; 1322 : 		pointer _Umove(_Iter _First, _Iter _Last, pointer _Ptr)

  00000	55		 push	 ebp
  00001	8b ec		 mov	 ebp, esp

; 1323 : 		{	// move initializing [_First, _Last), using allocator
; 1324 : 		return (_Uninitialized_move(_First, _Last,
; 1325 : 			_Ptr, this->_Alval));

  00003	83 c1 0c	 add	 ecx, 12			; 0000000cH
  00006	51		 push	 ecx
  00007	ff 75 10	 push	 DWORD PTR __Ptr$[ebp]
  0000a	ff 75 0c	 push	 DWORD PTR __Last$[ebp]
  0000d	ff 75 08	 push	 DWORD PTR __First$[ebp]
  00010	e8 00 00 00 00	 call	 ??$_Uninitialized_move@PAUUIEffectAniInfo@RouletteWnd@@PAU12@V?$allocator@UUIEffectAniInfo@RouletteWnd@@@std@@@std@@YAPAUUIEffectAniInfo@RouletteWnd@@PAU12@00AAV?$allocator@UUIEffectAniInfo@RouletteWnd@@@0@@Z ; std::_Uninitialized_move<RouletteWnd::UIEffectAniInfo *,RouletteWnd::UIEffectAniInfo *,std::allocator<RouletteWnd::UIEffectAniInfo> >
  00015	83 c4 10	 add	 esp, 16			; 00000010H

; 1326 : 		}

  00018	5d		 pop	 ebp
  00019	c2 0c 00	 ret	 12			; 0000000cH
??$_Umove@PAUUIEffectAniInfo@RouletteWnd@@@?$vector@UUIEffectAniInfo@RouletteWnd@@V?$allocator@UUIEffectAniInfo@RouletteWnd@@@std@@@std@@IAEPAUUIEffectAniInfo@RouletteWnd@@PAU23@00@Z ENDP ; std::vector<RouletteWnd::UIEffectAniInfo,std::allocator<RouletteWnd::UIEffectAniInfo> >::_Umove<RouletteWnd::UIEffectAniInfo *>
_TEXT	ENDS
PUBLIC	??$_Uninitialized_move@PAVioHashString@@PAV1@V?$allocator@VioHashString@@@std@@@std@@YAPAVioHashString@@PAV1@00AAV?$allocator@VioHashString@@@0@@Z ; std::_Uninitialized_move<ioHashString *,ioHashString *,std::allocator<ioHashString> >
; Function compile flags: /Ogsp
; File c:\program files (x86)\microsoft visual studio 10.0\vc\include\memory
;	COMDAT ??$_Uninitialized_move@PAVioHashString@@PAV1@V?$allocator@VioHashString@@@std@@@std@@YAPAVioHashString@@PAV1@00AAV?$allocator@VioHashString@@@0@@Z
_TEXT	SEGMENT
__Cat$513670 = -4					; size = 1
__First$ = 8						; size = 4
__Last$ = 12						; size = 4
__Dest$ = 16						; size = 4
__Al$ = 20						; size = 4
??$_Uninitialized_move@PAVioHashString@@PAV1@V?$allocator@VioHashString@@@std@@@std@@YAPAVioHashString@@PAV1@00AAV?$allocator@VioHashString@@@0@@Z PROC ; std::_Uninitialized_move<ioHashString *,ioHashString *,std::allocator<ioHashString> >, COMDAT

; 469  : 	{	// move [_First, _Last) to raw _Dest, using _Al

  00000	55		 push	 ebp
  00001	8b ec		 mov	 ebp, esp
  00003	51		 push	 ecx

; 470  : 	return (_Uninit_move(_First, _Last, _Dest, _Al,
; 471  : 		_Val_type(_First), _Ptr_cat(_First, _Dest)));

  00004	ff 75 fc	 push	 DWORD PTR __Cat$513670[ebp]
  00007	6a 00		 push	 0
  00009	ff 75 14	 push	 DWORD PTR __Al$[ebp]
  0000c	ff 75 10	 push	 DWORD PTR __Dest$[ebp]
  0000f	ff 75 0c	 push	 DWORD PTR __Last$[ebp]
  00012	ff 75 08	 push	 DWORD PTR __First$[ebp]
  00015	e8 00 00 00 00	 call	 ??$_Uninit_move@PAVioHashString@@PAV1@V?$allocator@VioHashString@@@std@@V1@@std@@YAPAVioHashString@@PAV1@00AAV?$allocator@VioHashString@@@0@0U_Nonscalar_ptr_iterator_tag@0@@Z ; std::_Uninit_move<ioHashString *,ioHashString *,std::allocator<ioHashString>,ioHashString>
  0001a	83 c4 18	 add	 esp, 24			; 00000018H

; 472  : 	}

  0001d	c9		 leave
  0001e	c3		 ret	 0
??$_Uninitialized_move@PAVioHashString@@PAV1@V?$allocator@VioHashString@@@std@@@std@@YAPAVioHashString@@PAV1@00AAV?$allocator@VioHashString@@@0@@Z ENDP ; std::_Uninitialized_move<ioHashString *,ioHashString *,std::allocator<ioHashString> >
_TEXT	ENDS
PUBLIC	??$_Destroy_range@V?$allocator@VioHashString@@@std@@@std@@YAXPAVioHashString@@0AAV?$allocator@VioHashString@@@0@@Z ; std::_Destroy_range<std::allocator<ioHashString> >
; Function compile flags: /Ogsp
; File c:\program files (x86)\microsoft visual studio 10.0\vc\include\xmemory
;	COMDAT ??$_Destroy_range@V?$allocator@VioHashString@@@std@@@std@@YAXPAVioHashString@@0AAV?$allocator@VioHashString@@@0@@Z
_TEXT	SEGMENT
__First$ = 8						; size = 4
__Last$ = 12						; size = 4
__Al$ = 16						; size = 4
??$_Destroy_range@V?$allocator@VioHashString@@@std@@@std@@YAXPAVioHashString@@0AAV?$allocator@VioHashString@@@0@@Z PROC ; std::_Destroy_range<std::allocator<ioHashString> >, COMDAT

; 87   : 	{	// destroy [_First, _Last)

  00000	55		 push	 ebp
  00001	8b ec		 mov	 ebp, esp
  00003	56		 push	 esi

; 88   : 	_Destroy_range(_First, _Last, _Al, _Ptr_cat(_First, _Last));

  00004	8b 75 08	 mov	 esi, DWORD PTR __First$[ebp]
  00007	eb 0b		 jmp	 SHORT $LN21@Destroy_ra@2
$LL7@Destroy_ra@2:
  00009	8b ce		 mov	 ecx, esi
  0000b	ff 15 00 00 00
	00		 call	 DWORD PTR __imp_??1ioHashString@@QAE@XZ
  00011	83 c6 10	 add	 esi, 16			; 00000010H
$LN21@Destroy_ra@2:
  00014	3b 75 0c	 cmp	 esi, DWORD PTR __Last$[ebp]
  00017	75 f0		 jne	 SHORT $LL7@Destroy_ra@2
  00019	5e		 pop	 esi

; 89   : 	}

  0001a	5d		 pop	 ebp
  0001b	c3		 ret	 0
??$_Destroy_range@V?$allocator@VioHashString@@@std@@@std@@YAXPAVioHashString@@0AAV?$allocator@VioHashString@@@0@@Z ENDP ; std::_Destroy_range<std::allocator<ioHashString> >
_TEXT	ENDS
PUBLIC	??$_Uninitialized_copy@V?$_Vector_const_iterator@V?$_Vector_val@VioHashString@@V?$allocator@VioHashString@@@std@@@std@@@std@@PAVioHashString@@V?$allocator@VioHashString@@@2@@std@@YAPAVioHashString@@V?$_Vector_const_iterator@V?$_Vector_val@VioHashString@@V?$allocator@VioHashString@@@std@@@std@@@0@0PAV1@AAV?$allocator@VioHashString@@@0@@Z ; std::_Uninitialized_copy<std::_Vector_const_iterator<std::_Vector_val<ioHashString,std::allocator<ioHashString> > >,ioHashString *,std::allocator<ioHashString> >
; Function compile flags: /Ogsp
; File c:\program files (x86)\microsoft visual studio 10.0\vc\include\memory
;	COMDAT ??$_Uninitialized_copy@V?$_Vector_const_iterator@V?$_Vector_val@VioHashString@@V?$allocator@VioHashString@@@std@@@std@@@std@@PAVioHashString@@V?$allocator@VioHashString@@@2@@std@@YAPAVioHashString@@V?$_Vector_const_iterator@V?$_Vector_val@VioHashString@@V?$allocator@VioHashString@@@std@@@std@@@0@0PAV1@AAV?$allocator@VioHashString@@@0@@Z
_TEXT	SEGMENT
__Cat$513734 = -4					; size = 1
__First$ = 8						; size = 4
__Last$ = 12						; size = 4
__Dest$ = 16						; size = 4
__Al$ = 20						; size = 4
??$_Uninitialized_copy@V?$_Vector_const_iterator@V?$_Vector_val@VioHashString@@V?$allocator@VioHashString@@@std@@@std@@@std@@PAVioHashString@@V?$allocator@VioHashString@@@2@@std@@YAPAVioHashString@@V?$_Vector_const_iterator@V?$_Vector_val@VioHashString@@V?$allocator@VioHashString@@@std@@@std@@@0@0PAV1@AAV?$allocator@VioHashString@@@0@@Z PROC ; std::_Uninitialized_copy<std::_Vector_const_iterator<std::_Vector_val<ioHashString,std::allocator<ioHashString> > >,ioHashString *,std::allocator<ioHashString> >, COMDAT

; 412  : 	{	// copy [_First, _Last) to raw _Dest, using _Al

  00000	55		 push	 ebp
  00001	8b ec		 mov	 ebp, esp
  00003	51		 push	 ecx

; 413  : 	return (_Uninit_copy(_First, _Last, _Dest, _Al,
; 414  : 		_Ptr_cat(_First, _Dest)));

  00004	ff 75 fc	 push	 DWORD PTR __Cat$513734[ebp]
  00007	ff 75 14	 push	 DWORD PTR __Al$[ebp]
  0000a	ff 75 10	 push	 DWORD PTR __Dest$[ebp]
  0000d	ff 75 0c	 push	 DWORD PTR __Last$[ebp]
  00010	ff 75 08	 push	 DWORD PTR __First$[ebp]
  00013	e8 00 00 00 00	 call	 ??$_Uninit_copy@V?$_Vector_const_iterator@V?$_Vector_val@VioHashString@@V?$allocator@VioHashString@@@std@@@std@@@std@@PAVioHashString@@V?$allocator@VioHashString@@@2@@std@@YAPAVioHashString@@V?$_Vector_const_iterator@V?$_Vector_val@VioHashString@@V?$allocator@VioHashString@@@std@@@std@@@0@0PAV1@AAV?$allocator@VioHashString@@@0@U_Nonscalar_ptr_iterator_tag@0@@Z ; std::_Uninit_copy<std::_Vector_const_iterator<std::_Vector_val<ioHashString,std::allocator<ioHashString> > >,ioHashString *,std::allocator<ioHashString> >
  00018	83 c4 14	 add	 esp, 20			; 00000014H

; 415  : 	}

  0001b	c9		 leave
  0001c	c3		 ret	 0
??$_Uninitialized_copy@V?$_Vector_const_iterator@V?$_Vector_val@VioHashString@@V?$allocator@VioHashString@@@std@@@std@@@std@@PAVioHashString@@V?$allocator@VioHashString@@@2@@std@@YAPAVioHashString@@V?$_Vector_const_iterator@V?$_Vector_val@VioHashString@@V?$allocator@VioHashString@@@std@@@std@@@0@0PAV1@AAV?$allocator@VioHashString@@@0@@Z ENDP ; std::_Uninitialized_copy<std::_Vector_const_iterator<std::_Vector_val<ioHashString,std::allocator<ioHashString> > >,ioHashString *,std::allocator<ioHashString> >
_TEXT	ENDS
PUBLIC	??1?$vector@UUIEffectAniInfo@RouletteWnd@@V?$allocator@UUIEffectAniInfo@RouletteWnd@@@std@@@std@@QAE@XZ ; std::vector<RouletteWnd::UIEffectAniInfo,std::allocator<RouletteWnd::UIEffectAniInfo> >::~vector<RouletteWnd::UIEffectAniInfo,std::allocator<RouletteWnd::UIEffectAniInfo> >
; Function compile flags: /Ogsp
; File c:\program files (x86)\microsoft visual studio 10.0\vc\include\vector
;	COMDAT ??1?$vector@UUIEffectAniInfo@RouletteWnd@@V?$allocator@UUIEffectAniInfo@RouletteWnd@@@std@@@std@@QAE@XZ
_TEXT	SEGMENT
??1?$vector@UUIEffectAniInfo@RouletteWnd@@V?$allocator@UUIEffectAniInfo@RouletteWnd@@@std@@@std@@QAE@XZ PROC ; std::vector<RouletteWnd::UIEffectAniInfo,std::allocator<RouletteWnd::UIEffectAniInfo> >::~vector<RouletteWnd::UIEffectAniInfo,std::allocator<RouletteWnd::UIEffectAniInfo> >, COMDAT
; _this$ = ecx

; 705  : 		_Tidy();

  00000	e9 00 00 00 00	 jmp	 ?_Tidy@?$vector@UUIEffectAniInfo@RouletteWnd@@V?$allocator@UUIEffectAniInfo@RouletteWnd@@@std@@@std@@IAEXXZ ; std::vector<RouletteWnd::UIEffectAniInfo,std::allocator<RouletteWnd::UIEffectAniInfo> >::_Tidy
??1?$vector@UUIEffectAniInfo@RouletteWnd@@V?$allocator@UUIEffectAniInfo@RouletteWnd@@@std@@@std@@QAE@XZ ENDP ; std::vector<RouletteWnd::UIEffectAniInfo,std::allocator<RouletteWnd::UIEffectAniInfo> >::~vector<RouletteWnd::UIEffectAniInfo,std::allocator<RouletteWnd::UIEffectAniInfo> >
_TEXT	ENDS
PUBLIC	?erase@?$vector@UUIEffectAniInfo@RouletteWnd@@V?$allocator@UUIEffectAniInfo@RouletteWnd@@@std@@@std@@QAE?AV?$_Vector_iterator@V?$_Vector_val@UUIEffectAniInfo@RouletteWnd@@V?$allocator@UUIEffectAniInfo@RouletteWnd@@@std@@@std@@@2@V?$_Vector_const_iterator@V?$_Vector_val@UUIEffectAniInfo@RouletteWnd@@V?$allocator@UUIEffectAniInfo@RouletteWnd@@@std@@@std@@@2@@Z ; std::vector<RouletteWnd::UIEffectAniInfo,std::allocator<RouletteWnd::UIEffectAniInfo> >::erase
; Function compile flags: /Ogsp
;	COMDAT ?erase@?$vector@UUIEffectAniInfo@RouletteWnd@@V?$allocator@UUIEffectAniInfo@RouletteWnd@@@std@@@std@@QAE?AV?$_Vector_iterator@V?$_Vector_val@UUIEffectAniInfo@RouletteWnd@@V?$allocator@UUIEffectAniInfo@RouletteWnd@@@std@@@std@@@2@V?$_Vector_const_iterator@V?$_Vector_val@UUIEffectAniInfo@RouletteWnd@@V?$allocator@UUIEffectAniInfo@RouletteWnd@@@std@@@std@@@2@@Z
_TEXT	SEGMENT
___$ReturnUdt$ = 8					; size = 4
__Cat$513756 = 12					; size = 1
__Where$ = 12						; size = 4
?erase@?$vector@UUIEffectAniInfo@RouletteWnd@@V?$allocator@UUIEffectAniInfo@RouletteWnd@@@std@@@std@@QAE?AV?$_Vector_iterator@V?$_Vector_val@UUIEffectAniInfo@RouletteWnd@@V?$allocator@UUIEffectAniInfo@RouletteWnd@@@std@@@std@@@2@V?$_Vector_const_iterator@V?$_Vector_val@UUIEffectAniInfo@RouletteWnd@@V?$allocator@UUIEffectAniInfo@RouletteWnd@@@std@@@std@@@2@@Z PROC ; std::vector<RouletteWnd::UIEffectAniInfo,std::allocator<RouletteWnd::UIEffectAniInfo> >::erase, COMDAT
; _this$ = ecx

; 1179 : 		{	// erase element at where

  00000	55		 push	 ebp
  00001	8b ec		 mov	 ebp, esp

; 1180 : 		_Move(_VIPTR(_Where) + 1, this->_Mylast,
; 1181 : 			_VIPTR(_Where));

  00003	8b 45 0c	 mov	 eax, DWORD PTR __Where$[ebp]
  00006	56		 push	 esi
  00007	ff 75 0c	 push	 DWORD PTR __Cat$513756[ebp]
  0000a	8b f1		 mov	 esi, ecx
  0000c	50		 push	 eax
  0000d	ff 76 04	 push	 DWORD PTR [esi+4]
  00010	83 c0 20	 add	 eax, 32			; 00000020H
  00013	50		 push	 eax
  00014	e8 00 00 00 00	 call	 ??$_Move@PAUUIEffectAniInfo@RouletteWnd@@PAU12@@std@@YAPAUUIEffectAniInfo@RouletteWnd@@PAU12@00U_Nonscalar_ptr_iterator_tag@0@@Z ; std::_Move<RouletteWnd::UIEffectAniInfo *,RouletteWnd::UIEffectAniInfo *>

; 1182 : 		_Destroy(this->_Mylast - 1, this->_Mylast);
; 1183 : 		--this->_Mylast;
; 1184 : 		return (_Make_iter(_Where));

  00019	8b 45 08	 mov	 eax, DWORD PTR ___$ReturnUdt$[ebp]
  0001c	8b 4d 0c	 mov	 ecx, DWORD PTR __Where$[ebp]
  0001f	83 c4 10	 add	 esp, 16			; 00000010H
  00022	83 46 04 e0	 add	 DWORD PTR [esi+4], -32	; ffffffe0H
  00026	89 08		 mov	 DWORD PTR [eax], ecx
  00028	5e		 pop	 esi

; 1185 : 		}

  00029	5d		 pop	 ebp
  0002a	c2 08 00	 ret	 8
?erase@?$vector@UUIEffectAniInfo@RouletteWnd@@V?$allocator@UUIEffectAniInfo@RouletteWnd@@@std@@@std@@QAE?AV?$_Vector_iterator@V?$_Vector_val@UUIEffectAniInfo@RouletteWnd@@V?$allocator@UUIEffectAniInfo@RouletteWnd@@@std@@@std@@@2@V?$_Vector_const_iterator@V?$_Vector_val@UUIEffectAniInfo@RouletteWnd@@V?$allocator@UUIEffectAniInfo@RouletteWnd@@@std@@@std@@@2@@Z ENDP ; std::vector<RouletteWnd::UIEffectAniInfo,std::allocator<RouletteWnd::UIEffectAniInfo> >::erase
_TEXT	ENDS
PUBLIC	?erase@?$vector@UUIEffectAniInfo@RouletteWnd@@V?$allocator@UUIEffectAniInfo@RouletteWnd@@@std@@@std@@QAE?AV?$_Vector_iterator@V?$_Vector_val@UUIEffectAniInfo@RouletteWnd@@V?$allocator@UUIEffectAniInfo@RouletteWnd@@@std@@@std@@@2@V?$_Vector_const_iterator@V?$_Vector_val@UUIEffectAniInfo@RouletteWnd@@V?$allocator@UUIEffectAniInfo@RouletteWnd@@@std@@@std@@@2@0@Z ; std::vector<RouletteWnd::UIEffectAniInfo,std::allocator<RouletteWnd::UIEffectAniInfo> >::erase
; Function compile flags: /Ogsp
;	COMDAT ?erase@?$vector@UUIEffectAniInfo@RouletteWnd@@V?$allocator@UUIEffectAniInfo@RouletteWnd@@@std@@@std@@QAE?AV?$_Vector_iterator@V?$_Vector_val@UUIEffectAniInfo@RouletteWnd@@V?$allocator@UUIEffectAniInfo@RouletteWnd@@@std@@@std@@@2@V?$_Vector_const_iterator@V?$_Vector_val@UUIEffectAniInfo@RouletteWnd@@V?$allocator@UUIEffectAniInfo@RouletteWnd@@@std@@@std@@@2@0@Z
_TEXT	SEGMENT
___$ReturnUdt$ = 8					; size = 4
__First_arg$ = 12					; size = 4
__Cat$513930 = 16					; size = 1
__Last_arg$ = 16					; size = 4
?erase@?$vector@UUIEffectAniInfo@RouletteWnd@@V?$allocator@UUIEffectAniInfo@RouletteWnd@@@std@@@std@@QAE?AV?$_Vector_iterator@V?$_Vector_val@UUIEffectAniInfo@RouletteWnd@@V?$allocator@UUIEffectAniInfo@RouletteWnd@@@std@@@std@@@2@V?$_Vector_const_iterator@V?$_Vector_val@UUIEffectAniInfo@RouletteWnd@@V?$allocator@UUIEffectAniInfo@RouletteWnd@@@std@@@std@@@2@0@Z PROC ; std::vector<RouletteWnd::UIEffectAniInfo,std::allocator<RouletteWnd::UIEffectAniInfo> >::erase, COMDAT
; _this$ = ecx

; 1190 : 		{	// erase [_First, _Last)

  00000	55		 push	 ebp
  00001	8b ec		 mov	 ebp, esp

; 1191 : 		iterator _First = _Make_iter(_First_arg);

  00003	8b 45 0c	 mov	 eax, DWORD PTR __First_arg$[ebp]
  00006	56		 push	 esi
  00007	57		 push	 edi
  00008	8b 7d 08	 mov	 edi, DWORD PTR ___$ReturnUdt$[ebp]
  0000b	8b f1		 mov	 esi, ecx
  0000d	89 07		 mov	 DWORD PTR [edi], eax

; 1192 : 		iterator _Last = _Make_iter(_Last_arg);
; 1193 : 
; 1194 : 		if (_First != _Last)

  0000f	3b 45 10	 cmp	 eax, DWORD PTR __Last_arg$[ebp]
  00012	74 16		 je	 SHORT $LN1@erase

; 1195 : 			{	// worth doing, copy down over hole
; 1196 :  #if _ITERATOR_DEBUG_LEVEL == 2
; 1197 : 			if (_Last < _First || _VICONT(_First) != this
; 1198 : 				|| _VIPTR(_First) < this->_Myfirst
; 1199 : 				|| this->_Mylast < _VIPTR(_Last))
; 1200 : 				_DEBUG_ERROR("vector erase iterator outside range");
; 1201 : 			pointer _Ptr = _Move(_VIPTR(_Last), this->_Mylast,
; 1202 : 				_VIPTR(_First));
; 1203 : 			_Orphan_range(_VIPTR(_First), this->_Mylast);
; 1204 : 
; 1205 :  #else /* _ITERATOR_DEBUG_LEVEL == 2 */
; 1206 : 			pointer _Ptr = _Move(_VIPTR(_Last), this->_Mylast,
; 1207 : 				_VIPTR(_First));

  00014	ff 75 10	 push	 DWORD PTR __Cat$513930[ebp]
  00017	8b 4e 04	 mov	 ecx, DWORD PTR [esi+4]
  0001a	50		 push	 eax
  0001b	51		 push	 ecx
  0001c	ff 75 10	 push	 DWORD PTR __Last_arg$[ebp]
  0001f	e8 00 00 00 00	 call	 ??$_Move@PAUUIEffectAniInfo@RouletteWnd@@PAU12@@std@@YAPAUUIEffectAniInfo@RouletteWnd@@PAU12@00U_Nonscalar_ptr_iterator_tag@0@@Z ; std::_Move<RouletteWnd::UIEffectAniInfo *,RouletteWnd::UIEffectAniInfo *>
  00024	83 c4 10	 add	 esp, 16			; 00000010H

; 1208 :  #endif /* _ITERATOR_DEBUG_LEVEL == 2 */
; 1209 : 
; 1210 : 			_Destroy(_Ptr, this->_Mylast);
; 1211 : 			this->_Mylast = _Ptr;

  00027	89 46 04	 mov	 DWORD PTR [esi+4], eax
$LN1@erase:

; 1212 : 			}
; 1213 : 		return (_First);

  0002a	8b c7		 mov	 eax, edi
  0002c	5f		 pop	 edi
  0002d	5e		 pop	 esi

; 1214 : 		}

  0002e	5d		 pop	 ebp
  0002f	c2 0c 00	 ret	 12			; 0000000cH
?erase@?$vector@UUIEffectAniInfo@RouletteWnd@@V?$allocator@UUIEffectAniInfo@RouletteWnd@@@std@@@std@@QAE?AV?$_Vector_iterator@V?$_Vector_val@UUIEffectAniInfo@RouletteWnd@@V?$allocator@UUIEffectAniInfo@RouletteWnd@@@std@@@std@@@2@V?$_Vector_const_iterator@V?$_Vector_val@UUIEffectAniInfo@RouletteWnd@@V?$allocator@UUIEffectAniInfo@RouletteWnd@@@std@@@std@@@2@0@Z ENDP ; std::vector<RouletteWnd::UIEffectAniInfo,std::allocator<RouletteWnd::UIEffectAniInfo> >::erase
_TEXT	ENDS
PUBLIC	?reserve@?$vector@UUIEffectAniInfo@RouletteWnd@@V?$allocator@UUIEffectAniInfo@RouletteWnd@@@std@@@std@@QAEXI@Z ; std::vector<RouletteWnd::UIEffectAniInfo,std::allocator<RouletteWnd::UIEffectAniInfo> >::reserve
;	COMDAT xdata$x
; File c:\program files (x86)\microsoft visual studio 10.0\vc\include\xmemory
xdata$x	SEGMENT
__catchsym$?reserve@?$vector@UUIEffectAniInfo@RouletteWnd@@V?$allocator@UUIEffectAniInfo@RouletteWnd@@@std@@@std@@QAEXI@Z$2 DD 040H
	DD	00H
	DD	00H
	DD	FLAT:__catch$?reserve@?$vector@UUIEffectAniInfo@RouletteWnd@@V?$allocator@UUIEffectAniInfo@RouletteWnd@@@std@@@std@@QAEXI@Z$0
__unwindtable$?reserve@?$vector@UUIEffectAniInfo@RouletteWnd@@V?$allocator@UUIEffectAniInfo@RouletteWnd@@@std@@@std@@QAEXI@Z DD 0ffffffffH
	DD	00H
	DD	0ffffffffH
	DD	00H
__tryblocktable$?reserve@?$vector@UUIEffectAniInfo@RouletteWnd@@V?$allocator@UUIEffectAniInfo@RouletteWnd@@@std@@@std@@QAEXI@Z DD 00H
	DD	00H
	DD	01H
	DD	01H
	DD	FLAT:__catchsym$?reserve@?$vector@UUIEffectAniInfo@RouletteWnd@@V?$allocator@UUIEffectAniInfo@RouletteWnd@@@std@@@std@@QAEXI@Z$2
__ehfuncinfo$?reserve@?$vector@UUIEffectAniInfo@RouletteWnd@@V?$allocator@UUIEffectAniInfo@RouletteWnd@@@std@@@std@@QAEXI@Z DD 019930522H
	DD	02H
	DD	FLAT:__unwindtable$?reserve@?$vector@UUIEffectAniInfo@RouletteWnd@@V?$allocator@UUIEffectAniInfo@RouletteWnd@@@std@@@std@@QAEXI@Z
	DD	01H
	DD	FLAT:__tryblocktable$?reserve@?$vector@UUIEffectAniInfo@RouletteWnd@@V?$allocator@UUIEffectAniInfo@RouletteWnd@@@std@@@std@@QAEXI@Z
	DD	2 DUP(00H)
	DD	00H
	DD	01H
; Function compile flags: /Ogsp
; File c:\program files (x86)\microsoft visual studio 10.0\vc\include\vector
xdata$x	ENDS
;	COMDAT ?reserve@?$vector@UUIEffectAniInfo@RouletteWnd@@V?$allocator@UUIEffectAniInfo@RouletteWnd@@@std@@@std@@QAEXI@Z
_TEXT	SEGMENT
__$EHRec$ = -16						; size = 16
__Ptr$506945 = 8					; size = 4
__Count$ = 8						; size = 4
?reserve@?$vector@UUIEffectAniInfo@RouletteWnd@@V?$allocator@UUIEffectAniInfo@RouletteWnd@@@std@@@std@@QAEXI@Z PROC ; std::vector<RouletteWnd::UIEffectAniInfo,std::allocator<RouletteWnd::UIEffectAniInfo> >::reserve, COMDAT
; _this$ = ecx

; 746  : 		{	// determine new minimum length of allocated storage

  00000	6a 04		 push	 4
  00002	b8 00 00 00 00	 mov	 eax, __ehhandler$?reserve@?$vector@UUIEffectAniInfo@RouletteWnd@@V?$allocator@UUIEffectAniInfo@RouletteWnd@@@std@@@std@@QAEXI@Z
  00007	e8 00 00 00 00	 call	 __EH_prolog3_catch
  0000c	8b f1		 mov	 esi, ecx

; 747  : 		if (max_size() < _Count)

  0000e	8b 5d 08	 mov	 ebx, DWORD PTR __Count$[ebp]
  00011	81 fb ff ff ff
	07		 cmp	 ebx, 134217727		; 07ffffffH
  00017	76 0b		 jbe	 SHORT $LN5@reserve

; 748  : 			_Xlen();	// result too long

  00019	68 00 00 00 00	 push	 OFFSET ??_C@_0BD@OLBABOEK@vector?$DMT?$DO?5too?5long?$AA@
  0001e	ff 15 00 00 00
	00		 call	 DWORD PTR __imp_?_Xlength_error@std@@YAXPBD@Z
$LN56@reserve:
$LN5@reserve:

; 749  : 		else if (capacity() < _Count)

  00024	8b 46 08	 mov	 eax, DWORD PTR [esi+8]
  00027	2b 06		 sub	 eax, DWORD PTR [esi]
  00029	c1 f8 05	 sar	 eax, 5
  0002c	3b c3		 cmp	 eax, ebx
  0002e	73 64		 jae	 SHORT $LN3@reserve

; 750  : 			{	// not enough room, reallocate
; 751  : 			pointer _Ptr = this->_Alval.allocate(_Count);

  00030	6a 00		 push	 0
  00032	53		 push	 ebx
  00033	e8 00 00 00 00	 call	 ??$_Allocate@UUIEffectAniInfo@RouletteWnd@@@std@@YAPAUUIEffectAniInfo@RouletteWnd@@IPAU12@@Z ; std::_Allocate<RouletteWnd::UIEffectAniInfo>

; 752  : 
; 753  : 			_TRY_BEGIN
; 754  : 			_Umove(this->_Myfirst, this->_Mylast, _Ptr);

  00038	8b 0e		 mov	 ecx, DWORD PTR [esi]
  0003a	83 65 fc 00	 and	 DWORD PTR __$EHRec$[ebp+12], 0
  0003e	8d 56 0c	 lea	 edx, DWORD PTR [esi+12]
  00041	52		 push	 edx
  00042	89 45 08	 mov	 DWORD PTR __Ptr$506945[ebp], eax
  00045	ff 75 08	 push	 DWORD PTR __Ptr$506945[ebp]
  00048	8b 46 04	 mov	 eax, DWORD PTR [esi+4]
  0004b	50		 push	 eax
  0004c	51		 push	 ecx
  0004d	e8 00 00 00 00	 call	 ??$_Uninitialized_move@PAUUIEffectAniInfo@RouletteWnd@@PAU12@V?$allocator@UUIEffectAniInfo@RouletteWnd@@@std@@@std@@YAPAUUIEffectAniInfo@RouletteWnd@@PAU12@00AAV?$allocator@UUIEffectAniInfo@RouletteWnd@@@0@@Z ; std::_Uninitialized_move<RouletteWnd::UIEffectAniInfo *,RouletteWnd::UIEffectAniInfo *,std::allocator<RouletteWnd::UIEffectAniInfo> >

; 758  : 			_CATCH_END
; 759  : 
; 760  : 			size_type _Size = size();

  00052	8b 4e 04	 mov	 ecx, DWORD PTR [esi+4]
  00055	8b 06		 mov	 eax, DWORD PTR [esi]
  00057	83 4d fc ff	 or	 DWORD PTR __$EHRec$[ebp+12], -1
  0005b	8b f9		 mov	 edi, ecx
  0005d	83 c4 18	 add	 esp, 24			; 00000018H
  00060	2b f8		 sub	 edi, eax
  00062	85 c0		 test	 eax, eax
  00064	74 11		 je	 SHORT $LN48@reserve

; 761  : 			if (this->_Myfirst != 0)

  00066	eb 03		 jmp	 SHORT $LN55@reserve

; 762  : 				{	// destroy and deallocate old array
; 763  : 				_Destroy(this->_Myfirst, this->_Mylast);

$LL39@reserve:
  00068	83 c0 20	 add	 eax, 32			; 00000020H
$LN55@reserve:
  0006b	3b c1		 cmp	 eax, ecx
  0006d	75 f9		 jne	 SHORT $LL39@reserve

; 764  : 				this->_Alval.deallocate(this->_Myfirst,
; 765  : 					this->_Myend - this->_Myfirst);

  0006f	ff 36		 push	 DWORD PTR [esi]
  00071	e8 00 00 00 00	 call	 ??3@YAXPAX@Z		; operator delete
  00076	59		 pop	 ecx
$LN48@reserve:

; 766  : 				}
; 767  : 
; 768  : 			this->_Orphan_all();

  00077	8b ce		 mov	 ecx, esi
  00079	ff 15 00 00 00
	00		 call	 DWORD PTR __imp_?_Orphan_all@_Container_base0@std@@QAEXXZ

; 769  : 			this->_Myend = _Ptr + _Count;

  0007f	8b 45 08	 mov	 eax, DWORD PTR __Ptr$506945[ebp]
  00082	c1 e3 05	 shl	 ebx, 5
  00085	03 d8		 add	 ebx, eax

; 770  : 			this->_Mylast = _Ptr + _Size;

  00087	83 e7 e0	 and	 edi, -32		; ffffffe0H
  0008a	03 f8		 add	 edi, eax
  0008c	89 5e 08	 mov	 DWORD PTR [esi+8], ebx
  0008f	89 7e 04	 mov	 DWORD PTR [esi+4], edi

; 771  : 			this->_Myfirst = _Ptr;

  00092	89 06		 mov	 DWORD PTR [esi], eax
$LN3@reserve:

; 772  : 			}
; 773  : 		}

  00094	e8 00 00 00 00	 call	 __EH_epilog3
  00099	c2 04 00	 ret	 4
__catch$?reserve@?$vector@UUIEffectAniInfo@RouletteWnd@@V?$allocator@UUIEffectAniInfo@RouletteWnd@@@std@@@std@@QAEXI@Z$0:

; 755  : 			_CATCH_ALL
; 756  : 			this->_Alval.deallocate(_Ptr, _Count);

  0009c	ff 75 08	 push	 DWORD PTR __Ptr$506945[ebp]
  0009f	e8 00 00 00 00	 call	 ??3@YAXPAX@Z		; operator delete
  000a4	59		 pop	 ecx

; 757  : 			_RERAISE;

  000a5	6a 00		 push	 0
  000a7	6a 00		 push	 0
  000a9	e8 00 00 00 00	 call	 __CxxThrowException@8
$LN57@reserve:
$LN54@reserve:
  000ae	cc		 int	 3
_TEXT	ENDS
;	COMDAT text$x
text$x	SEGMENT
__ehhandler$?reserve@?$vector@UUIEffectAniInfo@RouletteWnd@@V?$allocator@UUIEffectAniInfo@RouletteWnd@@@std@@@std@@QAEXI@Z:
  00000	8b 54 24 08	 mov	 edx, DWORD PTR [esp+8]
  00004	8d 42 0c	 lea	 eax, DWORD PTR [edx+12]
  00007	8b 4a ec	 mov	 ecx, DWORD PTR [edx-20]
  0000a	33 c8		 xor	 ecx, eax
  0000c	e8 00 00 00 00	 call	 @__security_check_cookie@4
  00011	b8 00 00 00 00	 mov	 eax, OFFSET __ehfuncinfo$?reserve@?$vector@UUIEffectAniInfo@RouletteWnd@@V?$allocator@UUIEffectAniInfo@RouletteWnd@@@std@@@std@@QAEXI@Z
  00016	e9 00 00 00 00	 jmp	 ___CxxFrameHandler3
text$x	ENDS
?reserve@?$vector@UUIEffectAniInfo@RouletteWnd@@V?$allocator@UUIEffectAniInfo@RouletteWnd@@@std@@@std@@QAEXI@Z ENDP ; std::vector<RouletteWnd::UIEffectAniInfo,std::allocator<RouletteWnd::UIEffectAniInfo> >::reserve
PUBLIC	??$_Umove@PAVioHashString@@@?$vector@VioHashString@@V?$allocator@VioHashString@@@std@@@std@@IAEPAVioHashString@@PAV2@00@Z ; std::vector<ioHashString,std::allocator<ioHashString> >::_Umove<ioHashString *>
; Function compile flags: /Ogsp
;	COMDAT ??$_Umove@PAVioHashString@@@?$vector@VioHashString@@V?$allocator@VioHashString@@@std@@@std@@IAEPAVioHashString@@PAV2@00@Z
_TEXT	SEGMENT
__First$ = 8						; size = 4
__Last$ = 12						; size = 4
__Ptr$ = 16						; size = 4
??$_Umove@PAVioHashString@@@?$vector@VioHashString@@V?$allocator@VioHashString@@@std@@@std@@IAEPAVioHashString@@PAV2@00@Z PROC ; std::vector<ioHashString,std::allocator<ioHashString> >::_Umove<ioHashString *>, COMDAT
; _this$ = ecx

; 1322 : 		pointer _Umove(_Iter _First, _Iter _Last, pointer _Ptr)

  00000	55		 push	 ebp
  00001	8b ec		 mov	 ebp, esp

; 1323 : 		{	// move initializing [_First, _Last), using allocator
; 1324 : 		return (_Uninitialized_move(_First, _Last,
; 1325 : 			_Ptr, this->_Alval));

  00003	83 c1 0c	 add	 ecx, 12			; 0000000cH
  00006	51		 push	 ecx
  00007	ff 75 10	 push	 DWORD PTR __Ptr$[ebp]
  0000a	ff 75 0c	 push	 DWORD PTR __Last$[ebp]
  0000d	ff 75 08	 push	 DWORD PTR __First$[ebp]
  00010	e8 00 00 00 00	 call	 ??$_Uninitialized_move@PAVioHashString@@PAV1@V?$allocator@VioHashString@@@std@@@std@@YAPAVioHashString@@PAV1@00AAV?$allocator@VioHashString@@@0@@Z ; std::_Uninitialized_move<ioHashString *,ioHashString *,std::allocator<ioHashString> >
  00015	83 c4 10	 add	 esp, 16			; 00000010H

; 1326 : 		}

  00018	5d		 pop	 ebp
  00019	c2 0c 00	 ret	 12			; 0000000cH
??$_Umove@PAVioHashString@@@?$vector@VioHashString@@V?$allocator@VioHashString@@@std@@@std@@IAEPAVioHashString@@PAV2@00@Z ENDP ; std::vector<ioHashString,std::allocator<ioHashString> >::_Umove<ioHashString *>
_TEXT	ENDS
PUBLIC	?_Destroy@?$vector@VioHashString@@V?$allocator@VioHashString@@@std@@@std@@IAEXPAVioHashString@@0@Z ; std::vector<ioHashString,std::allocator<ioHashString> >::_Destroy
; Function compile flags: /Ogsp
;	COMDAT ?_Destroy@?$vector@VioHashString@@V?$allocator@VioHashString@@@std@@@std@@IAEXPAVioHashString@@0@Z
_TEXT	SEGMENT
__First$ = 8						; size = 4
__Last$ = 12						; size = 4
?_Destroy@?$vector@VioHashString@@V?$allocator@VioHashString@@@std@@@std@@IAEXPAVioHashString@@0@Z PROC ; std::vector<ioHashString,std::allocator<ioHashString> >::_Destroy, COMDAT
; _this$ = ecx

; 1269 : 		{	// destroy [_First, _Last) using allocator

  00000	55		 push	 ebp
  00001	8b ec		 mov	 ebp, esp
  00003	56		 push	 esi

; 1270 : 		_Destroy_range(_First, _Last, this->_Alval);

  00004	8b 75 08	 mov	 esi, DWORD PTR __First$[ebp]
  00007	eb 0b		 jmp	 SHORT $LN23@Destroy
$LL9@Destroy:
  00009	8b ce		 mov	 ecx, esi
  0000b	ff 15 00 00 00
	00		 call	 DWORD PTR __imp_??1ioHashString@@QAE@XZ
  00011	83 c6 10	 add	 esi, 16			; 00000010H
$LN23@Destroy:
  00014	3b 75 0c	 cmp	 esi, DWORD PTR __Last$[ebp]
  00017	75 f0		 jne	 SHORT $LL9@Destroy
  00019	5e		 pop	 esi

; 1271 : 		}

  0001a	5d		 pop	 ebp
  0001b	c2 08 00	 ret	 8
?_Destroy@?$vector@VioHashString@@V?$allocator@VioHashString@@@std@@@std@@IAEXPAVioHashString@@0@Z ENDP ; std::vector<ioHashString,std::allocator<ioHashString> >::_Destroy
_TEXT	ENDS
PUBLIC	??$_Ucopy@V?$_Vector_const_iterator@V?$_Vector_val@VioHashString@@V?$allocator@VioHashString@@@std@@@std@@@std@@@?$vector@VioHashString@@V?$allocator@VioHashString@@@std@@@std@@IAEPAVioHashString@@V?$_Vector_const_iterator@V?$_Vector_val@VioHashString@@V?$allocator@VioHashString@@@std@@@std@@@1@0PAV2@@Z ; std::vector<ioHashString,std::allocator<ioHashString> >::_Ucopy<std::_Vector_const_iterator<std::_Vector_val<ioHashString,std::allocator<ioHashString> > > >
; Function compile flags: /Ogsp
;	COMDAT ??$_Ucopy@V?$_Vector_const_iterator@V?$_Vector_val@VioHashString@@V?$allocator@VioHashString@@@std@@@std@@@std@@@?$vector@VioHashString@@V?$allocator@VioHashString@@@std@@@std@@IAEPAVioHashString@@V?$_Vector_const_iterator@V?$_Vector_val@VioHashString@@V?$allocator@VioHashString@@@std@@@std@@@1@0PAV2@@Z
_TEXT	SEGMENT
__First$ = 8						; size = 4
__Last$ = 12						; size = 4
__Cat$514230 = 16					; size = 1
__Ptr$ = 16						; size = 4
??$_Ucopy@V?$_Vector_const_iterator@V?$_Vector_val@VioHashString@@V?$allocator@VioHashString@@@std@@@std@@@std@@@?$vector@VioHashString@@V?$allocator@VioHashString@@@std@@@std@@IAEPAVioHashString@@V?$_Vector_const_iterator@V?$_Vector_val@VioHashString@@V?$allocator@VioHashString@@@std@@@std@@@1@0PAV2@@Z PROC ; std::vector<ioHashString,std::allocator<ioHashString> >::_Ucopy<std::_Vector_const_iterator<std::_Vector_val<ioHashString,std::allocator<ioHashString> > > >, COMDAT
; _this$ = ecx

; 1315 : 		pointer _Ucopy(_Iter _First, _Iter _Last, pointer _Ptr)

  00000	55		 push	 ebp
  00001	8b ec		 mov	 ebp, esp

; 1316 : 		{	// copy initializing [_First, _Last), using allocator
; 1317 : 		return (_Uninitialized_copy(_First, _Last,
; 1318 : 			_Ptr, this->_Alval));

  00003	ff 75 10	 push	 DWORD PTR __Cat$514230[ebp]
  00006	83 c1 0c	 add	 ecx, 12			; 0000000cH
  00009	51		 push	 ecx
  0000a	ff 75 10	 push	 DWORD PTR __Ptr$[ebp]
  0000d	ff 75 0c	 push	 DWORD PTR __Last$[ebp]
  00010	ff 75 08	 push	 DWORD PTR __First$[ebp]
  00013	e8 00 00 00 00	 call	 ??$_Uninit_copy@V?$_Vector_const_iterator@V?$_Vector_val@VioHashString@@V?$allocator@VioHashString@@@std@@@std@@@std@@PAVioHashString@@V?$allocator@VioHashString@@@2@@std@@YAPAVioHashString@@V?$_Vector_const_iterator@V?$_Vector_val@VioHashString@@V?$allocator@VioHashString@@@std@@@std@@@0@0PAV1@AAV?$allocator@VioHashString@@@0@U_Nonscalar_ptr_iterator_tag@0@@Z ; std::_Uninit_copy<std::_Vector_const_iterator<std::_Vector_val<ioHashString,std::allocator<ioHashString> > >,ioHashString *,std::allocator<ioHashString> >
  00018	83 c4 14	 add	 esp, 20			; 00000014H

; 1319 : 		}

  0001b	5d		 pop	 ebp
  0001c	c2 0c 00	 ret	 12			; 0000000cH
??$_Ucopy@V?$_Vector_const_iterator@V?$_Vector_val@VioHashString@@V?$allocator@VioHashString@@@std@@@std@@@std@@@?$vector@VioHashString@@V?$allocator@VioHashString@@@std@@@std@@IAEPAVioHashString@@V?$_Vector_const_iterator@V?$_Vector_val@VioHashString@@V?$allocator@VioHashString@@@std@@@std@@@1@0PAV2@@Z ENDP ; std::vector<ioHashString,std::allocator<ioHashString> >::_Ucopy<std::_Vector_const_iterator<std::_Vector_val<ioHashString,std::allocator<ioHashString> > > >
_TEXT	ENDS
PUBLIC	?RenderUIEffect@RouletteWnd@@IAEXXZ		; RouletteWnd::RenderUIEffect
EXTRN	__imp_?GetHeight@ioUIRenderElement@@QBEHXZ:PROC
; Function compile flags: /Ogsp
; File d:\lost saga for developer\youtube\tutorial\source\src\lsclient\gui\roulettewnd.cpp
;	COMDAT ?RenderUIEffect@RouletteWnd@@IAEXXZ
_TEXT	SEGMENT
tv223 = -40						; size = 8
tv190 = -40						; size = 8
$T514239 = -32						; size = 4
_this$ = -28						; size = 4
tv621 = -24						; size = 4
tv618 = -24						; size = 4
tv610 = -24						; size = 4
tv605 = -24						; size = 4
tv584 = -24						; size = 4
tv580 = -24						; size = 4
tv534 = -24						; size = 4
_iXPos$506711 = -24					; size = 4
tv576 = -20						; size = 4
tv565 = -20						; size = 4
tv561 = -20						; size = 4
tv557 = -20						; size = 4
tv553 = -20						; size = 4
$T514339 = -20						; size = 4
$T514343 = -16						; size = 4
$T514335 = -16						; size = 4
tv588 = -12						; size = 4
$T514347 = -12						; size = 4
_fScale$506714 = -8					; size = 4
_fRate$506707 = -8					; size = 4
_dwCurTime$ = -4					; size = 4
?RenderUIEffect@RouletteWnd@@IAEXXZ PROC		; RouletteWnd::RenderUIEffect, COMDAT
; _this$ = ecx

; 663  : {

  00000	55		 push	 ebp
  00001	8b ec		 mov	 ebp, esp
  00003	83 ec 28	 sub	 esp, 40			; 00000028H
  00006	56		 push	 esi
  00007	57		 push	 edi
  00008	8b f9		 mov	 edi, ecx

; 664  : 	if( m_UIEffectList.empty() )

  0000a	8b 87 94 01 00
	00		 mov	 eax, DWORD PTR [edi+404]
  00010	89 7d e4	 mov	 DWORD PTR _this$[ebp], edi
  00013	3b 87 98 01 00
	00		 cmp	 eax, DWORD PTR [edi+408]
  00019	0f 84 58 02 00
	00		 je	 $LN5@RenderUIEf

; 665  : 		return;
; 666  : 
; 667  : 	DWORD dwCurTime = FRAMEGETTIME();

  0001f	ff 15 00 00 00
	00		 call	 DWORD PTR __imp_?GetSingleton@ioFrameTimer@@SAAAV1@XZ
  00025	8b c8		 mov	 ecx, eax
  00027	ff 15 00 00 00
	00		 call	 DWORD PTR __imp_?GetLoopSec@ioFrameTimer@@QBEKXZ

; 668  : 	UIEffectAniInfoList::iterator iter = m_UIEffectList.begin();

  0002d	8b b7 94 01 00
	00		 mov	 esi, DWORD PTR [edi+404]
  00033	89 45 fc	 mov	 DWORD PTR _dwCurTime$[ebp], eax

; 669  : 	while( iter != m_UIEffectList.end() )

  00036	3b b7 98 01 00
	00		 cmp	 esi, DWORD PTR [edi+408]
  0003c	0f 84 35 02 00
	00		 je	 $LN5@RenderUIEf
  00042	53		 push	 ebx
  00043	33 db		 xor	 ebx, ebx
$LL6@RenderUIEf:

; 670  : 	{
; 671  : 		UIEffectAniInfo &kInfo = *iter;
; 672  : 
; 673  : 		if( kInfo.m_dwEndTime < dwCurTime )

  00045	8b 45 fc	 mov	 eax, DWORD PTR _dwCurTime$[ebp]
  00048	39 46 18	 cmp	 DWORD PTR [esi+24], eax
  0004b	73 17		 jae	 SHORT $LN4@RenderUIEf

; 674  : 		{
; 675  : 			iter = m_UIEffectList.erase( iter );

  0004d	56		 push	 esi
  0004e	8d 45 e0	 lea	 eax, DWORD PTR $T514239[ebp]
  00051	50		 push	 eax
  00052	8d 8f 94 01 00
	00		 lea	 ecx, DWORD PTR [edi+404]
  00058	e8 00 00 00 00	 call	 ?erase@?$vector@UUIEffectAniInfo@RouletteWnd@@V?$allocator@UUIEffectAniInfo@RouletteWnd@@@std@@@std@@QAE?AV?$_Vector_iterator@V?$_Vector_val@UUIEffectAniInfo@RouletteWnd@@V?$allocator@UUIEffectAniInfo@RouletteWnd@@@std@@@std@@@2@V?$_Vector_const_iterator@V?$_Vector_val@UUIEffectAniInfo@RouletteWnd@@V?$allocator@UUIEffectAniInfo@RouletteWnd@@@std@@@std@@@2@@Z ; std::vector<RouletteWnd::UIEffectAniInfo,std::allocator<RouletteWnd::UIEffectAniInfo> >::erase
  0005d	8b 30		 mov	 esi, DWORD PTR [eax]

; 676  : 			continue;

  0005f	e9 06 02 00 00	 jmp	 $LN62@RenderUIEf
$LN4@RenderUIEf:

; 677  : 		}
; 678  : 
; 679  : 		ioUIRenderImage *pImage = kInfo.GetImage();

  00064	8b 7e 1c	 mov	 edi, DWORD PTR [esi+28]

; 680  : 		if( pImage )

  00067	3b fb		 cmp	 edi, ebx
  00069	0f 84 f5 01 00
	00		 je	 $LN3@RenderUIEf

; 681  : 		{
; 682  : 			float fRate = float( ( kInfo.m_dwEndTime - dwCurTime ) / FLOAT500 );

  0006f	b8 f4 01 00 00	 mov	 eax, 500		; 000001f4H
  00074	8b 4e 18	 mov	 ecx, DWORD PTR [esi+24]
  00077	2b 4d fc	 sub	 ecx, DWORD PTR _dwCurTime$[ebp]
  0007a	89 4d e8	 mov	 DWORD PTR tv621[ebp], ecx
  0007d	db 45 e8	 fild	 DWORD PTR tv621[ebp]
  00080	79 06		 jns	 SHORT $LN64@RenderUIEf
  00082	d8 05 00 00 00
	00		 fadd	 DWORD PTR __real@4f800000
$LN64@RenderUIEf:
  00088	89 45 e8	 mov	 DWORD PTR tv618[ebp], eax
  0008b	db 45 e8	 fild	 DWORD PTR tv618[ebp]
  0008e	85 c0		 test	 eax, eax
  00090	79 06		 jns	 SHORT $LN65@RenderUIEf
  00092	d8 05 00 00 00
	00		 fadd	 DWORD PTR __real@4f800000
$LN65@RenderUIEf:
  00098	de f9		 fdivp	 ST(1), ST(0)
  0009a	d9 5d f8	 fstp	 DWORD PTR _fRate$506707[ebp]

; 683  : 			kInfo.m_iAlpha = MAX_ALPHA_RATE*fRate;

  0009d	f3 0f 10 45 f8	 movss	 xmm0, DWORD PTR _fRate$506707[ebp]
  000a2	0f 5a c0	 cvtps2pd xmm0, xmm0
  000a5	f2 0f 59 05 00
	00 00 00	 mulsd	 xmm0, QWORD PTR __real@406fe00000000000
  000ad	f2 0f 2c c0	 cvttsd2si eax, xmm0
  000b1	89 46 0c	 mov	 DWORD PTR [esi+12], eax

; 684  : 			kInfo.m_fScale = FLOAT1 + ( FLOAT1 - fRate );

  000b4	b8 01 00 00 00	 mov	 eax, 1
  000b9	8b c8		 mov	 ecx, eax
  000bb	b8 01 00 00 00	 mov	 eax, 1
  000c0	89 45 e8	 mov	 DWORD PTR tv610[ebp], eax
  000c3	db 45 e8	 fild	 DWORD PTR tv610[ebp]
  000c6	85 c0		 test	 eax, eax
  000c8	79 06		 jns	 SHORT $LN66@RenderUIEf
  000ca	d8 05 00 00 00
	00		 fadd	 DWORD PTR __real@4f800000
$LN66@RenderUIEf:
  000d0	d8 65 f8	 fsub	 DWORD PTR _fRate$506707[ebp]
  000d3	89 4d e8	 mov	 DWORD PTR tv605[ebp], ecx
  000d6	db 45 e8	 fild	 DWORD PTR tv605[ebp]
  000d9	85 c9		 test	 ecx, ecx
  000db	79 06		 jns	 SHORT $LN67@RenderUIEf
  000dd	d8 05 00 00 00
	00		 fadd	 DWORD PTR __real@4f800000
$LN67@RenderUIEf:

; 685  : 
; 686  : 			pImage->SetAlpha( kInfo.m_iAlpha );

  000e3	0f b6 4e 0c	 movzx	 ecx, BYTE PTR [esi+12]
  000e7	de c1		 faddp	 ST(1), ST(0)
  000e9	51		 push	 ecx
  000ea	8b cf		 mov	 ecx, edi
  000ec	d9 5e 10	 fstp	 DWORD PTR [esi+16]
  000ef	8b 07		 mov	 eax, DWORD PTR [edi]
  000f1	ff 50 30	 call	 DWORD PTR [eax+48]

; 687  : 
; 688  : 			int iXPos, iYPos;
; 689  : 			if( kInfo.m_iNum != -1 )

  000f4	83 7e 14 ff	 cmp	 DWORD PTR [esi+20], -1
  000f8	0f 84 00 01 00
	00		 je	 $LN2@RenderUIEf

; 690  : 			{
; 691  : 				float fScale = kInfo.m_fScale;

  000fe	d9 46 10	 fld	 DWORD PTR [esi+16]
  00101	d9 5d f8	 fstp	 DWORD PTR _fScale$506714[ebp]

; 692  : 				// /2 * FLOAT05 
; 693  : 				iXPos = kInfo.m_iXPos - ( pImage->GetWidth()/10 * fScale ) * FLOAT05;

  00104	b8 05 00 00 00	 mov	 eax, 5
  00109	89 45 f0	 mov	 DWORD PTR $T514335[ebp], eax
  0010c	b8 0a 00 00 00	 mov	 eax, 10			; 0000000aH
  00111	db 46 04	 fild	 DWORD PTR [esi+4]
  00114	8b cf		 mov	 ecx, edi
  00116	89 45 ec	 mov	 DWORD PTR $T514339[ebp], eax
  00119	dd 5d d8	 fstp	 QWORD PTR tv190[ebp]
  0011c	ff 15 00 00 00
	00		 call	 DWORD PTR __imp_?GetWidth@ioUIRenderElement@@QBEHXZ
  00122	99		 cdq
  00123	6a 0a		 push	 10			; 0000000aH
  00125	59		 pop	 ecx
  00126	f7 f9		 idiv	 ecx
  00128	89 45 f4	 mov	 DWORD PTR tv588[ebp], eax
  0012b	db 45 f4	 fild	 DWORD PTR tv588[ebp]
  0012e	8b 45 f0	 mov	 eax, DWORD PTR $T514335[ebp]
  00131	d8 4d f8	 fmul	 DWORD PTR _fScale$506714[ebp]
  00134	db 45 f0	 fild	 DWORD PTR $T514335[ebp]
  00137	85 c0		 test	 eax, eax
  00139	79 06		 jns	 SHORT $LN68@RenderUIEf
  0013b	d8 05 00 00 00
	00		 fadd	 DWORD PTR __real@4f800000
$LN68@RenderUIEf:
  00141	8b 45 ec	 mov	 eax, DWORD PTR $T514339[ebp]
  00144	db 45 ec	 fild	 DWORD PTR $T514339[ebp]
  00147	85 c0		 test	 eax, eax
  00149	79 06		 jns	 SHORT $LN69@RenderUIEf
  0014b	d8 05 00 00 00
	00		 fadd	 DWORD PTR __real@4f800000
$LN69@RenderUIEf:
  00151	de f9		 fdivp	 ST(1), ST(0)
  00153	d9 5d ec	 fstp	 DWORD PTR tv576[ebp]
  00156	d8 4d ec	 fmul	 DWORD PTR tv576[ebp]
  00159	dc 6d d8	 fsubr	 QWORD PTR tv190[ebp]
  0015c	e8 00 00 00 00	 call	 __ftol2_sse
  00161	89 45 e8	 mov	 DWORD PTR _iXPos$506711[ebp], eax

; 694  : 				iYPos = kInfo.m_iYPos - ( pImage->GetHeight() * fScale )   * FLOAT05;

  00164	b8 05 00 00 00	 mov	 eax, 5
  00169	89 45 f0	 mov	 DWORD PTR $T514343[ebp], eax
  0016c	b8 0a 00 00 00	 mov	 eax, 10			; 0000000aH
  00171	db 46 08	 fild	 DWORD PTR [esi+8]
  00174	8b cf		 mov	 ecx, edi
  00176	89 45 f4	 mov	 DWORD PTR $T514347[ebp], eax
  00179	dd 5d d8	 fstp	 QWORD PTR tv223[ebp]
  0017c	ff 15 00 00 00
	00		 call	 DWORD PTR __imp_?GetHeight@ioUIRenderElement@@QBEHXZ
  00182	89 45 ec	 mov	 DWORD PTR tv565[ebp], eax
  00185	db 45 ec	 fild	 DWORD PTR tv565[ebp]
  00188	8b 45 f0	 mov	 eax, DWORD PTR $T514343[ebp]
  0018b	d8 4d f8	 fmul	 DWORD PTR _fScale$506714[ebp]
  0018e	db 45 f0	 fild	 DWORD PTR $T514343[ebp]
  00191	85 c0		 test	 eax, eax
  00193	79 06		 jns	 SHORT $LN70@RenderUIEf
  00195	d8 05 00 00 00
	00		 fadd	 DWORD PTR __real@4f800000
$LN70@RenderUIEf:
  0019b	8b 45 f4	 mov	 eax, DWORD PTR $T514347[ebp]
  0019e	db 45 f4	 fild	 DWORD PTR $T514347[ebp]
  001a1	85 c0		 test	 eax, eax
  001a3	79 06		 jns	 SHORT $LN71@RenderUIEf
  001a5	d8 05 00 00 00
	00		 fadd	 DWORD PTR __real@4f800000
$LN71@RenderUIEf:
  001ab	de f9		 fdivp	 ST(1), ST(0)
  001ad	d9 5d ec	 fstp	 DWORD PTR tv553[ebp]
  001b0	d8 4d ec	 fmul	 DWORD PTR tv553[ebp]
  001b3	dc 6d d8	 fsubr	 QWORD PTR tv223[ebp]
  001b6	e8 00 00 00 00	 call	 __ftol2_sse

; 695  : 				pImage->RenderNum( iXPos, iYPos, kInfo.m_iNum, 0.0f, kInfo.m_fScale, UI_RENDER_NORMAL, TFO_BILINEAR );

  001bb	f3 0f 10 46 10	 movss	 xmm0, DWORD PTR [esi+16]
  001c0	53		 push	 ebx
  001c1	53		 push	 ebx
  001c2	6a 01		 push	 1
  001c4	53		 push	 ebx
  001c5	51		 push	 ecx
  001c6	51		 push	 ecx
  001c7	f3 0f 11 44 24
	04		 movss	 DWORD PTR [esp+4], xmm0
  001cd	0f 57 c0	 xorps	 xmm0, xmm0
  001d0	f3 0f 11 04 24	 movss	 DWORD PTR [esp], xmm0
  001d5	ff 76 14	 push	 DWORD PTR [esi+20]
  001d8	0f 57 c0	 xorps	 xmm0, xmm0
  001db	51		 push	 ecx
  001dc	51		 push	 ecx
  001dd	f3 0f 2a c0	 cvtsi2ss xmm0, eax
  001e1	f3 0f 11 44 24
	04		 movss	 DWORD PTR [esp+4], xmm0
  001e7	66 0f 6e 45 e8	 movd	 xmm0, DWORD PTR _iXPos$506711[ebp]
  001ec	0f 5b c0	 cvtdq2ps xmm0, xmm0
  001ef	8b cf		 mov	 ecx, edi
  001f1	f3 0f 11 04 24	 movss	 DWORD PTR [esp], xmm0
  001f6	ff 15 00 00 00
	00		 call	 DWORD PTR __imp_?RenderNum@ioUIRenderImage@@QAEXMMHMMW4UIRenderType@@W4TextureFilterOption@@0W4RenerNumerFormatting@1@@Z

; 696  : 			}
; 697  : 			else

  001fc	eb 3a		 jmp	 SHORT $LN1@RenderUIEf
$LN2@RenderUIEf:

; 698  : 			{
; 699  : 				float fScale = kInfo.m_fScale;
; 700  : 				pImage->SetScale( kInfo.m_fScale );

  001fe	f3 0f 10 46 10	 movss	 xmm0, DWORD PTR [esi+16]
  00203	8b 07		 mov	 eax, DWORD PTR [edi]
  00205	51		 push	 ecx
  00206	8b cf		 mov	 ecx, edi
  00208	f3 0f 11 04 24	 movss	 DWORD PTR [esp], xmm0
  0020d	ff 50 1c	 call	 DWORD PTR [eax+28]

; 701  : 				pImage->Render( kInfo.m_iXPos, kInfo.m_iYPos, UI_RENDER_NORMAL, TFO_BILINEAR );

  00210	66 0f 6e 46 08	 movd	 xmm0, DWORD PTR [esi+8]
  00215	8b 07		 mov	 eax, DWORD PTR [edi]
  00217	53		 push	 ebx
  00218	53		 push	 ebx
  00219	6a 01		 push	 1
  0021b	53		 push	 ebx
  0021c	51		 push	 ecx
  0021d	51		 push	 ecx
  0021e	0f 5b c0	 cvtdq2ps xmm0, xmm0
  00221	f3 0f 11 44 24
	04		 movss	 DWORD PTR [esp+4], xmm0
  00227	66 0f 6e 46 04	 movd	 xmm0, DWORD PTR [esi+4]
  0022c	0f 5b c0	 cvtdq2ps xmm0, xmm0
  0022f	8b cf		 mov	 ecx, edi
  00231	f3 0f 11 04 24	 movss	 DWORD PTR [esp], xmm0
  00236	ff 10		 call	 DWORD PTR [eax]
$LN1@RenderUIEf:

; 702  : 			}
; 703  : 
; 704  : 			pImage->SetScale( FLOAT1 );

  00238	b8 01 00 00 00	 mov	 eax, 1
  0023d	8b 17		 mov	 edx, DWORD PTR [edi]
  0023f	89 45 e8	 mov	 DWORD PTR tv534[ebp], eax
  00242	db 45 e8	 fild	 DWORD PTR tv534[ebp]
  00245	85 c0		 test	 eax, eax
  00247	79 06		 jns	 SHORT $LN72@RenderUIEf
  00249	d8 05 00 00 00
	00		 fadd	 DWORD PTR __real@4f800000
$LN72@RenderUIEf:
  0024f	51		 push	 ecx
  00250	8b cf		 mov	 ecx, edi
  00252	d9 1c 24	 fstp	 DWORD PTR [esp]
  00255	ff 52 1c	 call	 DWORD PTR [edx+28]

; 705  : 			pImage->SetAlpha( MAX_ALPHA_RATE );

  00258	8b 07		 mov	 eax, DWORD PTR [edi]
  0025a	68 ff 00 00 00	 push	 255			; 000000ffH
  0025f	8b cf		 mov	 ecx, edi
  00261	ff 50 30	 call	 DWORD PTR [eax+48]
$LN3@RenderUIEf:

; 706  : 		}
; 707  : 
; 708  : 		++iter;

  00264	8b 7d e4	 mov	 edi, DWORD PTR _this$[ebp]
  00267	83 c6 20	 add	 esi, 32			; 00000020H
$LN62@RenderUIEf:

; 669  : 	while( iter != m_UIEffectList.end() )

  0026a	3b b7 98 01 00
	00		 cmp	 esi, DWORD PTR [edi+408]
  00270	0f 85 cf fd ff
	ff		 jne	 $LL6@RenderUIEf
  00276	5b		 pop	 ebx
$LN5@RenderUIEf:
  00277	5f		 pop	 edi
  00278	5e		 pop	 esi

; 709  : 	}
; 710  : }

  00279	c9		 leave
  0027a	c3		 ret	 0
?RenderUIEffect@RouletteWnd@@IAEXXZ ENDP		; RouletteWnd::RenderUIEffect
_TEXT	ENDS
PUBLIC	?clear@?$vector@UUIEffectAniInfo@RouletteWnd@@V?$allocator@UUIEffectAniInfo@RouletteWnd@@@std@@@std@@QAEXXZ ; std::vector<RouletteWnd::UIEffectAniInfo,std::allocator<RouletteWnd::UIEffectAniInfo> >::clear
; Function compile flags: /Ogsp
; File c:\program files (x86)\microsoft visual studio 10.0\vc\include\vector
;	COMDAT ?clear@?$vector@UUIEffectAniInfo@RouletteWnd@@V?$allocator@UUIEffectAniInfo@RouletteWnd@@@std@@@std@@QAEXXZ
_TEXT	SEGMENT
$T514379 = -4						; size = 4
?clear@?$vector@UUIEffectAniInfo@RouletteWnd@@V?$allocator@UUIEffectAniInfo@RouletteWnd@@@std@@@std@@QAEXXZ PROC ; std::vector<RouletteWnd::UIEffectAniInfo,std::allocator<RouletteWnd::UIEffectAniInfo> >::clear, COMDAT
; _this$ = ecx

; 1217 : 		{	// erase all

  00000	55		 push	 ebp
  00001	8b ec		 mov	 ebp, esp
  00003	51		 push	 ecx

; 1218 : 		erase(begin(), end());

  00004	8b 41 04	 mov	 eax, DWORD PTR [ecx+4]
  00007	8b 11		 mov	 edx, DWORD PTR [ecx]
  00009	50		 push	 eax
  0000a	52		 push	 edx
  0000b	8d 45 fc	 lea	 eax, DWORD PTR $T514379[ebp]
  0000e	50		 push	 eax
  0000f	e8 00 00 00 00	 call	 ?erase@?$vector@UUIEffectAniInfo@RouletteWnd@@V?$allocator@UUIEffectAniInfo@RouletteWnd@@@std@@@std@@QAE?AV?$_Vector_iterator@V?$_Vector_val@UUIEffectAniInfo@RouletteWnd@@V?$allocator@UUIEffectAniInfo@RouletteWnd@@@std@@@std@@@2@V?$_Vector_const_iterator@V?$_Vector_val@UUIEffectAniInfo@RouletteWnd@@V?$allocator@UUIEffectAniInfo@RouletteWnd@@@std@@@std@@@2@0@Z ; std::vector<RouletteWnd::UIEffectAniInfo,std::allocator<RouletteWnd::UIEffectAniInfo> >::erase

; 1219 : 		}

  00014	c9		 leave
  00015	c3		 ret	 0
?clear@?$vector@UUIEffectAniInfo@RouletteWnd@@V?$allocator@UUIEffectAniInfo@RouletteWnd@@@std@@@std@@QAEXXZ ENDP ; std::vector<RouletteWnd::UIEffectAniInfo,std::allocator<RouletteWnd::UIEffectAniInfo> >::clear
_TEXT	ENDS
PUBLIC	?_Reserve@?$vector@UUIEffectAniInfo@RouletteWnd@@V?$allocator@UUIEffectAniInfo@RouletteWnd@@@std@@@std@@IAEXI@Z ; std::vector<RouletteWnd::UIEffectAniInfo,std::allocator<RouletteWnd::UIEffectAniInfo> >::_Reserve
; Function compile flags: /Ogsp
;	COMDAT ?_Reserve@?$vector@UUIEffectAniInfo@RouletteWnd@@V?$allocator@UUIEffectAniInfo@RouletteWnd@@@std@@@std@@IAEXI@Z
_TEXT	SEGMENT
__Count$ = 8						; size = 4
?_Reserve@?$vector@UUIEffectAniInfo@RouletteWnd@@V?$allocator@UUIEffectAniInfo@RouletteWnd@@@std@@@std@@IAEXI@Z PROC ; std::vector<RouletteWnd::UIEffectAniInfo,std::allocator<RouletteWnd::UIEffectAniInfo> >::_Reserve, COMDAT
; _this$ = ecx

; 1290 : 		{	// ensure room for _Count new elements, grow exponentially

  00000	55		 push	 ebp
  00001	8b ec		 mov	 ebp, esp
  00003	56		 push	 esi
  00004	8b f1		 mov	 esi, ecx

; 1291 : 		size_type _Size = size();

  00006	8b 0e		 mov	 ecx, DWORD PTR [esi]
  00008	8b 46 04	 mov	 eax, DWORD PTR [esi+4]
  0000b	2b c1		 sub	 eax, ecx

; 1292 : 		if (max_size() - _Count < _Size)

  0000d	ba ff ff ff 07	 mov	 edx, 134217727		; 07ffffffH
  00012	2b 55 08	 sub	 edx, DWORD PTR __Count$[ebp]
  00015	c1 f8 05	 sar	 eax, 5
  00018	3b d0		 cmp	 edx, eax
  0001a	73 0b		 jae	 SHORT $LN4@Reserve

; 1293 : 			_Xlen();

  0001c	68 00 00 00 00	 push	 OFFSET ??_C@_0BD@OLBABOEK@vector?$DMT?$DO?5too?5long?$AA@
  00021	ff 15 00 00 00
	00		 call	 DWORD PTR __imp_?_Xlength_error@std@@YAXPBD@Z
$LN21@Reserve:
$LN4@Reserve:

; 1294 : 		else if ((_Size += _Count) <= capacity())

  00027	8b 56 08	 mov	 edx, DWORD PTR [esi+8]
  0002a	03 45 08	 add	 eax, DWORD PTR __Count$[ebp]
  0002d	2b d1		 sub	 edx, ecx
  0002f	c1 fa 05	 sar	 edx, 5
  00032	3b c2		 cmp	 eax, edx
  00034	76 10		 jbe	 SHORT $LN1@Reserve

; 1295 : 			;
; 1296 : 		else
; 1297 : 			reserve(_Grow_to(_Size));

  00036	50		 push	 eax
  00037	8b ce		 mov	 ecx, esi
  00039	e8 00 00 00 00	 call	 ?_Grow_to@?$vector@UUIEffectAniInfo@RouletteWnd@@V?$allocator@UUIEffectAniInfo@RouletteWnd@@@std@@@std@@IBEII@Z ; std::vector<RouletteWnd::UIEffectAniInfo,std::allocator<RouletteWnd::UIEffectAniInfo> >::_Grow_to
  0003e	50		 push	 eax
  0003f	8b ce		 mov	 ecx, esi
  00041	e8 00 00 00 00	 call	 ?reserve@?$vector@UUIEffectAniInfo@RouletteWnd@@V?$allocator@UUIEffectAniInfo@RouletteWnd@@@std@@@std@@QAEXI@Z ; std::vector<RouletteWnd::UIEffectAniInfo,std::allocator<RouletteWnd::UIEffectAniInfo> >::reserve
$LN1@Reserve:
  00046	5e		 pop	 esi

; 1298 : 		}

  00047	5d		 pop	 ebp
  00048	c2 04 00	 ret	 4
$LN20@Reserve:
?_Reserve@?$vector@UUIEffectAniInfo@RouletteWnd@@V?$allocator@UUIEffectAniInfo@RouletteWnd@@@std@@@std@@IAEXI@Z ENDP ; std::vector<RouletteWnd::UIEffectAniInfo,std::allocator<RouletteWnd::UIEffectAniInfo> >::_Reserve
_TEXT	ENDS
PUBLIC	?reserve@?$vector@VioHashString@@V?$allocator@VioHashString@@@std@@@std@@QAEXI@Z ; std::vector<ioHashString,std::allocator<ioHashString> >::reserve
;	COMDAT xdata$x
; File c:\program files (x86)\microsoft visual studio 10.0\vc\include\xmemory
xdata$x	SEGMENT
__catchsym$?reserve@?$vector@VioHashString@@V?$allocator@VioHashString@@@std@@@std@@QAEXI@Z$2 DD 040H
	DD	00H
	DD	00H
	DD	FLAT:__catch$?reserve@?$vector@VioHashString@@V?$allocator@VioHashString@@@std@@@std@@QAEXI@Z$0
__unwindtable$?reserve@?$vector@VioHashString@@V?$allocator@VioHashString@@@std@@@std@@QAEXI@Z DD 0ffffffffH
	DD	00H
	DD	0ffffffffH
	DD	00H
__tryblocktable$?reserve@?$vector@VioHashString@@V?$allocator@VioHashString@@@std@@@std@@QAEXI@Z DD 00H
	DD	00H
	DD	01H
	DD	01H
	DD	FLAT:__catchsym$?reserve@?$vector@VioHashString@@V?$allocator@VioHashString@@@std@@@std@@QAEXI@Z$2
__ehfuncinfo$?reserve@?$vector@VioHashString@@V?$allocator@VioHashString@@@std@@@std@@QAEXI@Z DD 019930522H
	DD	02H
	DD	FLAT:__unwindtable$?reserve@?$vector@VioHashString@@V?$allocator@VioHashString@@@std@@@std@@QAEXI@Z
	DD	01H
	DD	FLAT:__tryblocktable$?reserve@?$vector@VioHashString@@V?$allocator@VioHashString@@@std@@@std@@QAEXI@Z
	DD	2 DUP(00H)
	DD	00H
	DD	01H
; Function compile flags: /Ogsp
; File c:\program files (x86)\microsoft visual studio 10.0\vc\include\vector
xdata$x	ENDS
;	COMDAT ?reserve@?$vector@VioHashString@@V?$allocator@VioHashString@@@std@@@std@@QAEXI@Z
_TEXT	SEGMENT
tv300 = -24						; size = 4
__Ptr$506925 = -20					; size = 4
__$EHRec$ = -16						; size = 16
$T514553 = 8						; size = 4
__Count$ = 8						; size = 4
?reserve@?$vector@VioHashString@@V?$allocator@VioHashString@@@std@@@std@@QAEXI@Z PROC ; std::vector<ioHashString,std::allocator<ioHashString> >::reserve, COMDAT
; _this$ = ecx

; 746  : 		{	// determine new minimum length of allocated storage

  00000	6a 0c		 push	 12			; 0000000cH
  00002	b8 00 00 00 00	 mov	 eax, __ehhandler$?reserve@?$vector@VioHashString@@V?$allocator@VioHashString@@@std@@@std@@QAEXI@Z
  00007	e8 00 00 00 00	 call	 __EH_prolog3_catch
  0000c	8b f1		 mov	 esi, ecx

; 747  : 		if (max_size() < _Count)

  0000e	8b 5d 08	 mov	 ebx, DWORD PTR __Count$[ebp]
  00011	81 fb ff ff ff
	0f		 cmp	 ebx, 268435455		; 0fffffffH
  00017	76 0b		 jbe	 SHORT $LN5@reserve@2

; 748  : 			_Xlen();	// result too long

  00019	68 00 00 00 00	 push	 OFFSET ??_C@_0BD@OLBABOEK@vector?$DMT?$DO?5too?5long?$AA@
  0001e	ff 15 00 00 00
	00		 call	 DWORD PTR __imp_?_Xlength_error@std@@YAXPBD@Z
$LN59@reserve@2:
$LN5@reserve@2:

; 749  : 		else if (capacity() < _Count)

  00024	8b 46 08	 mov	 eax, DWORD PTR [esi+8]
  00027	2b 06		 sub	 eax, DWORD PTR [esi]
  00029	c1 f8 04	 sar	 eax, 4
  0002c	3b c3		 cmp	 eax, ebx
  0002e	73 7a		 jae	 SHORT $LN3@reserve@2

; 750  : 			{	// not enough room, reallocate
; 751  : 			pointer _Ptr = this->_Alval.allocate(_Count);

  00030	6a 00		 push	 0
  00032	53		 push	 ebx
  00033	e8 00 00 00 00	 call	 ??$_Allocate@VioHashString@@@std@@YAPAVioHashString@@IPAV1@@Z ; std::_Allocate<ioHashString>

; 752  : 
; 753  : 			_TRY_BEGIN
; 754  : 			_Umove(this->_Myfirst, this->_Mylast, _Ptr);

  00038	8b 0e		 mov	 ecx, DWORD PTR [esi]
  0003a	83 65 fc 00	 and	 DWORD PTR __$EHRec$[ebp+12], 0
  0003e	8d 56 0c	 lea	 edx, DWORD PTR [esi+12]
  00041	52		 push	 edx
  00042	89 45 ec	 mov	 DWORD PTR __Ptr$506925[ebp], eax
  00045	ff 75 ec	 push	 DWORD PTR __Ptr$506925[ebp]
  00048	8b 46 04	 mov	 eax, DWORD PTR [esi+4]
  0004b	50		 push	 eax
  0004c	51		 push	 ecx
  0004d	e8 00 00 00 00	 call	 ??$_Uninitialized_move@PAVioHashString@@PAV1@V?$allocator@VioHashString@@@std@@@std@@YAPAVioHashString@@PAV1@00AAV?$allocator@VioHashString@@@0@@Z ; std::_Uninitialized_move<ioHashString *,ioHashString *,std::allocator<ioHashString> >

; 758  : 			_CATCH_END
; 759  : 
; 760  : 			size_type _Size = size();

  00052	8b 4e 04	 mov	 ecx, DWORD PTR [esi+4]
  00055	8b 06		 mov	 eax, DWORD PTR [esi]
  00057	83 4d fc ff	 or	 DWORD PTR __$EHRec$[ebp+12], -1
  0005b	8b f9		 mov	 edi, ecx
  0005d	83 c4 18	 add	 esp, 24			; 00000018H
  00060	2b f8		 sub	 edi, eax
  00062	89 4d e8	 mov	 DWORD PTR tv300[ebp], ecx
  00065	85 c0		 test	 eax, eax
  00067	74 24		 je	 SHORT $LN51@reserve@2

; 761  : 			if (this->_Myfirst != 0)
; 762  : 				{	// destroy and deallocate old array
; 763  : 				_Destroy(this->_Myfirst, this->_Mylast);

  00069	89 45 08	 mov	 DWORD PTR $T514553[ebp], eax
  0006c	3b c1		 cmp	 eax, ecx
  0006e	74 15		 je	 SHORT $LN37@reserve@2
$LN39@reserve@2:
  00070	8b 4d 08	 mov	 ecx, DWORD PTR $T514553[ebp]
  00073	ff 15 00 00 00
	00		 call	 DWORD PTR __imp_??1ioHashString@@QAE@XZ
  00079	83 45 08 10	 add	 DWORD PTR $T514553[ebp], 16 ; 00000010H
  0007d	8b 45 08	 mov	 eax, DWORD PTR $T514553[ebp]
  00080	3b 45 e8	 cmp	 eax, DWORD PTR tv300[ebp]
  00083	75 eb		 jne	 SHORT $LN39@reserve@2
$LN37@reserve@2:

; 764  : 				this->_Alval.deallocate(this->_Myfirst,
; 765  : 					this->_Myend - this->_Myfirst);

  00085	ff 36		 push	 DWORD PTR [esi]
  00087	e8 00 00 00 00	 call	 ??3@YAXPAX@Z		; operator delete
  0008c	59		 pop	 ecx
$LN51@reserve@2:

; 766  : 				}
; 767  : 
; 768  : 			this->_Orphan_all();

  0008d	8b ce		 mov	 ecx, esi
  0008f	ff 15 00 00 00
	00		 call	 DWORD PTR __imp_?_Orphan_all@_Container_base0@std@@QAEXXZ

; 769  : 			this->_Myend = _Ptr + _Count;

  00095	8b 45 ec	 mov	 eax, DWORD PTR __Ptr$506925[ebp]
  00098	c1 e3 04	 shl	 ebx, 4
  0009b	03 d8		 add	 ebx, eax

; 770  : 			this->_Mylast = _Ptr + _Size;

  0009d	83 e7 f0	 and	 edi, -16		; fffffff0H
  000a0	03 f8		 add	 edi, eax
  000a2	89 5e 08	 mov	 DWORD PTR [esi+8], ebx
  000a5	89 7e 04	 mov	 DWORD PTR [esi+4], edi

; 771  : 			this->_Myfirst = _Ptr;

  000a8	89 06		 mov	 DWORD PTR [esi], eax
$LN3@reserve@2:

; 772  : 			}
; 773  : 		}

  000aa	e8 00 00 00 00	 call	 __EH_epilog3
  000af	c2 04 00	 ret	 4
__catch$?reserve@?$vector@VioHashString@@V?$allocator@VioHashString@@@std@@@std@@QAEXI@Z$0:

; 755  : 			_CATCH_ALL
; 756  : 			this->_Alval.deallocate(_Ptr, _Count);

  000b2	ff 75 ec	 push	 DWORD PTR __Ptr$506925[ebp]
  000b5	e8 00 00 00 00	 call	 ??3@YAXPAX@Z		; operator delete
  000ba	59		 pop	 ecx

; 757  : 			_RERAISE;

  000bb	6a 00		 push	 0
  000bd	6a 00		 push	 0
  000bf	e8 00 00 00 00	 call	 __CxxThrowException@8
$LN60@reserve@2:
$LN58@reserve@2:
  000c4	cc		 int	 3
_TEXT	ENDS
;	COMDAT text$x
text$x	SEGMENT
__ehhandler$?reserve@?$vector@VioHashString@@V?$allocator@VioHashString@@@std@@@std@@QAEXI@Z:
  00000	8b 54 24 08	 mov	 edx, DWORD PTR [esp+8]
  00004	8d 42 0c	 lea	 eax, DWORD PTR [edx+12]
  00007	8b 4a e4	 mov	 ecx, DWORD PTR [edx-28]
  0000a	33 c8		 xor	 ecx, eax
  0000c	e8 00 00 00 00	 call	 @__security_check_cookie@4
  00011	b8 00 00 00 00	 mov	 eax, OFFSET __ehfuncinfo$?reserve@?$vector@VioHashString@@V?$allocator@VioHashString@@@std@@@std@@QAEXI@Z
  00016	e9 00 00 00 00	 jmp	 ___CxxFrameHandler3
text$x	ENDS
?reserve@?$vector@VioHashString@@V?$allocator@VioHashString@@@std@@@std@@QAEXI@Z ENDP ; std::vector<ioHashString,std::allocator<ioHashString> >::reserve
PUBLIC	?_Tidy@?$vector@VioHashString@@V?$allocator@VioHashString@@@std@@@std@@IAEXXZ ; std::vector<ioHashString,std::allocator<ioHashString> >::_Tidy
; Function compile flags: /Ogsp
;	COMDAT ?_Tidy@?$vector@VioHashString@@V?$allocator@VioHashString@@@std@@@std@@IAEXXZ
_TEXT	SEGMENT
?_Tidy@?$vector@VioHashString@@V?$allocator@VioHashString@@@std@@@std@@IAEXXZ PROC ; std::vector<ioHashString,std::allocator<ioHashString> >::_Tidy, COMDAT
; _this$ = ecx

; 1301 : 		{	// free all storage

  00000	56		 push	 esi
  00001	8b f1		 mov	 esi, ecx

; 1302 : 		if (this->_Myfirst != 0)

  00003	83 3e 00	 cmp	 DWORD PTR [esi], 0
  00006	74 28		 je	 SHORT $LN24@Tidy@2

; 1303 : 			{	// something to free, destroy and deallocate it
; 1304 : 			this->_Orphan_all();

  00008	53		 push	 ebx
  00009	57		 push	 edi
  0000a	ff 15 00 00 00
	00		 call	 DWORD PTR __imp_?_Orphan_all@_Container_base0@std@@QAEXXZ

; 1305 : 			_Destroy(this->_Myfirst, this->_Mylast);

  00010	8b 5e 04	 mov	 ebx, DWORD PTR [esi+4]
  00013	8b 3e		 mov	 edi, DWORD PTR [esi]
  00015	eb 0b		 jmp	 SHORT $LN28@Tidy@2
$LL12@Tidy@2:
  00017	8b cf		 mov	 ecx, edi
  00019	ff 15 00 00 00
	00		 call	 DWORD PTR __imp_??1ioHashString@@QAE@XZ
  0001f	83 c7 10	 add	 edi, 16			; 00000010H
$LN28@Tidy@2:
  00022	3b fb		 cmp	 edi, ebx
  00024	75 f1		 jne	 SHORT $LL12@Tidy@2

; 1306 : 			this->_Alval.deallocate(this->_Myfirst,
; 1307 : 				this->_Myend - this->_Myfirst);

  00026	ff 36		 push	 DWORD PTR [esi]
  00028	e8 00 00 00 00	 call	 ??3@YAXPAX@Z		; operator delete
  0002d	59		 pop	 ecx
  0002e	5f		 pop	 edi
  0002f	5b		 pop	 ebx
$LN24@Tidy@2:

; 1308 : 			}
; 1309 : 		this->_Myfirst = 0;

  00030	33 c0		 xor	 eax, eax
  00032	89 06		 mov	 DWORD PTR [esi], eax

; 1310 : 		this->_Mylast = 0;

  00034	89 46 04	 mov	 DWORD PTR [esi+4], eax

; 1311 : 		this->_Myend = 0;

  00037	89 46 08	 mov	 DWORD PTR [esi+8], eax
  0003a	5e		 pop	 esi

; 1312 : 		}

  0003b	c3		 ret	 0
?_Tidy@?$vector@VioHashString@@V?$allocator@VioHashString@@@std@@@std@@IAEXXZ ENDP ; std::vector<ioHashString,std::allocator<ioHashString> >::_Tidy
_TEXT	ENDS
PUBLIC	?push_back@?$vector@UUIEffectAniInfo@RouletteWnd@@V?$allocator@UUIEffectAniInfo@RouletteWnd@@@std@@@std@@QAEXABUUIEffectAniInfo@RouletteWnd@@@Z ; std::vector<RouletteWnd::UIEffectAniInfo,std::allocator<RouletteWnd::UIEffectAniInfo> >::push_back
; Function compile flags: /Ogsp
;	COMDAT ?push_back@?$vector@UUIEffectAniInfo@RouletteWnd@@V?$allocator@UUIEffectAniInfo@RouletteWnd@@@std@@@std@@QAEXABUUIEffectAniInfo@RouletteWnd@@@Z
_TEXT	SEGMENT
__Val$ = 8						; size = 4
?push_back@?$vector@UUIEffectAniInfo@RouletteWnd@@V?$allocator@UUIEffectAniInfo@RouletteWnd@@@std@@@std@@QAEXABUUIEffectAniInfo@RouletteWnd@@@Z PROC ; std::vector<RouletteWnd::UIEffectAniInfo,std::allocator<RouletteWnd::UIEffectAniInfo> >::push_back, COMDAT
; _this$ = ecx

; 976  : 		{	// insert element at end

  00000	55		 push	 ebp
  00001	8b ec		 mov	 ebp, esp
  00003	56		 push	 esi
  00004	8b f1		 mov	 esi, ecx

; 977  : 		if (_Inside(_STD addressof(_Val)))

  00006	8b 46 04	 mov	 eax, DWORD PTR [esi+4]
  00009	57		 push	 edi
  0000a	8b 7d 08	 mov	 edi, DWORD PTR __Val$[ebp]
  0000d	3b f8		 cmp	 edi, eax
  0000f	73 2a		 jae	 SHORT $LN4@push_back
  00011	8b 0e		 mov	 ecx, DWORD PTR [esi]
  00013	3b cf		 cmp	 ecx, edi
  00015	77 24		 ja	 SHORT $LN4@push_back

; 978  : 			{	// push back an element
; 979  : 			size_type _Idx = _STD addressof(_Val) - this->_Myfirst;

  00017	2b f9		 sub	 edi, ecx

; 980  : 			if (this->_Mylast == this->_Myend)

  00019	3b 46 08	 cmp	 eax, DWORD PTR [esi+8]
  0001c	75 09		 jne	 SHORT $LN3@push_back

; 981  : 				_Reserve(1);

  0001e	6a 01		 push	 1
  00020	8b ce		 mov	 ecx, esi
  00022	e8 00 00 00 00	 call	 ?_Reserve@?$vector@UUIEffectAniInfo@RouletteWnd@@V?$allocator@UUIEffectAniInfo@RouletteWnd@@@std@@@std@@IAEXI@Z ; std::vector<RouletteWnd::UIEffectAniInfo,std::allocator<RouletteWnd::UIEffectAniInfo> >::_Reserve
$LN3@push_back:

; 982  : 			_Orphan_range(this->_Mylast, this->_Mylast);
; 983  : 			_Cons_val(this->_Alval,
; 984  : 				this->_Mylast,
; 985  : 				this->_Myfirst[_Idx]);

  00027	83 e7 e0	 and	 edi, -32		; ffffffe0H
  0002a	03 3e		 add	 edi, DWORD PTR [esi]
  0002c	8d 46 0c	 lea	 eax, DWORD PTR [esi+12]
  0002f	57		 push	 edi
  00030	ff 76 04	 push	 DWORD PTR [esi+4]
  00033	50		 push	 eax
  00034	e8 00 00 00 00	 call	 ??$_Cons_val@V?$allocator@UUIEffectAniInfo@RouletteWnd@@@std@@UUIEffectAniInfo@RouletteWnd@@AAU34@@std@@YAXAAV?$allocator@UUIEffectAniInfo@RouletteWnd@@@0@PAUUIEffectAniInfo@RouletteWnd@@AAU23@@Z ; std::_Cons_val<std::allocator<RouletteWnd::UIEffectAniInfo>,RouletteWnd::UIEffectAniInfo,RouletteWnd::UIEffectAniInfo &>

; 986  : 			++this->_Mylast;
; 987  : 			}
; 988  : 		else

  00039	eb 1b		 jmp	 SHORT $LN20@push_back
$LN4@push_back:

; 989  : 			{	// push back a non-element
; 990  : 			if (this->_Mylast == this->_Myend)

  0003b	3b 46 08	 cmp	 eax, DWORD PTR [esi+8]
  0003e	75 09		 jne	 SHORT $LN1@push_back

; 991  : 				_Reserve(1);

  00040	6a 01		 push	 1
  00042	8b ce		 mov	 ecx, esi
  00044	e8 00 00 00 00	 call	 ?_Reserve@?$vector@UUIEffectAniInfo@RouletteWnd@@V?$allocator@UUIEffectAniInfo@RouletteWnd@@@std@@@std@@IAEXI@Z ; std::vector<RouletteWnd::UIEffectAniInfo,std::allocator<RouletteWnd::UIEffectAniInfo> >::_Reserve
$LN1@push_back:

; 992  : 			_Orphan_range(this->_Mylast, this->_Mylast);
; 993  : 			_Cons_val(this->_Alval,
; 994  : 				this->_Mylast,
; 995  : 				_Val);

  00049	57		 push	 edi
  0004a	ff 76 04	 push	 DWORD PTR [esi+4]
  0004d	8d 46 0c	 lea	 eax, DWORD PTR [esi+12]
  00050	50		 push	 eax
  00051	e8 00 00 00 00	 call	 ??$_Cons_val@V?$allocator@UUIEffectAniInfo@RouletteWnd@@@std@@UUIEffectAniInfo@RouletteWnd@@ABU34@@std@@YAXAAV?$allocator@UUIEffectAniInfo@RouletteWnd@@@0@PAUUIEffectAniInfo@RouletteWnd@@ABU23@@Z ; std::_Cons_val<std::allocator<RouletteWnd::UIEffectAniInfo>,RouletteWnd::UIEffectAniInfo,RouletteWnd::UIEffectAniInfo const &>
$LN20@push_back:
  00056	83 c4 0c	 add	 esp, 12			; 0000000cH

; 996  : 			++this->_Mylast;

  00059	83 46 04 20	 add	 DWORD PTR [esi+4], 32	; 00000020H
  0005d	5f		 pop	 edi
  0005e	5e		 pop	 esi

; 997  : 			}
; 998  : 		}

  0005f	5d		 pop	 ebp
  00060	c2 04 00	 ret	 4
?push_back@?$vector@UUIEffectAniInfo@RouletteWnd@@V?$allocator@UUIEffectAniInfo@RouletteWnd@@@std@@@std@@QAEXABUUIEffectAniInfo@RouletteWnd@@@Z ENDP ; std::vector<RouletteWnd::UIEffectAniInfo,std::allocator<RouletteWnd::UIEffectAniInfo> >::push_back
_TEXT	ENDS
PUBLIC	?_Reserve@?$vector@VioHashString@@V?$allocator@VioHashString@@@std@@@std@@IAEXI@Z ; std::vector<ioHashString,std::allocator<ioHashString> >::_Reserve
; Function compile flags: /Ogsp
;	COMDAT ?_Reserve@?$vector@VioHashString@@V?$allocator@VioHashString@@@std@@@std@@IAEXI@Z
_TEXT	SEGMENT
__Count$ = 8						; size = 4
?_Reserve@?$vector@VioHashString@@V?$allocator@VioHashString@@@std@@@std@@IAEXI@Z PROC ; std::vector<ioHashString,std::allocator<ioHashString> >::_Reserve, COMDAT
; _this$ = ecx

; 1290 : 		{	// ensure room for _Count new elements, grow exponentially

  00000	55		 push	 ebp
  00001	8b ec		 mov	 ebp, esp
  00003	56		 push	 esi
  00004	8b f1		 mov	 esi, ecx

; 1291 : 		size_type _Size = size();

  00006	8b 0e		 mov	 ecx, DWORD PTR [esi]
  00008	8b 46 04	 mov	 eax, DWORD PTR [esi+4]
  0000b	2b c1		 sub	 eax, ecx

; 1292 : 		if (max_size() - _Count < _Size)

  0000d	ba ff ff ff 0f	 mov	 edx, 268435455		; 0fffffffH
  00012	2b 55 08	 sub	 edx, DWORD PTR __Count$[ebp]
  00015	c1 f8 04	 sar	 eax, 4
  00018	3b d0		 cmp	 edx, eax
  0001a	73 0b		 jae	 SHORT $LN4@Reserve@2

; 1293 : 			_Xlen();

  0001c	68 00 00 00 00	 push	 OFFSET ??_C@_0BD@OLBABOEK@vector?$DMT?$DO?5too?5long?$AA@
  00021	ff 15 00 00 00
	00		 call	 DWORD PTR __imp_?_Xlength_error@std@@YAXPBD@Z
$LN21@Reserve@2:
$LN4@Reserve@2:

; 1294 : 		else if ((_Size += _Count) <= capacity())

  00027	8b 56 08	 mov	 edx, DWORD PTR [esi+8]
  0002a	03 45 08	 add	 eax, DWORD PTR __Count$[ebp]
  0002d	2b d1		 sub	 edx, ecx
  0002f	c1 fa 04	 sar	 edx, 4
  00032	3b c2		 cmp	 eax, edx
  00034	76 10		 jbe	 SHORT $LN1@Reserve@2

; 1295 : 			;
; 1296 : 		else
; 1297 : 			reserve(_Grow_to(_Size));

  00036	50		 push	 eax
  00037	8b ce		 mov	 ecx, esi
  00039	e8 00 00 00 00	 call	 ?_Grow_to@?$vector@VioHashString@@V?$allocator@VioHashString@@@std@@@std@@IBEII@Z ; std::vector<ioHashString,std::allocator<ioHashString> >::_Grow_to
  0003e	50		 push	 eax
  0003f	8b ce		 mov	 ecx, esi
  00041	e8 00 00 00 00	 call	 ?reserve@?$vector@VioHashString@@V?$allocator@VioHashString@@@std@@@std@@QAEXI@Z ; std::vector<ioHashString,std::allocator<ioHashString> >::reserve
$LN1@Reserve@2:
  00046	5e		 pop	 esi

; 1298 : 		}

  00047	5d		 pop	 ebp
  00048	c2 04 00	 ret	 4
$LN20@Reserve@2:
?_Reserve@?$vector@VioHashString@@V?$allocator@VioHashString@@@std@@@std@@IAEXI@Z ENDP ; std::vector<ioHashString,std::allocator<ioHashString> >::_Reserve
_TEXT	ENDS
PUBLIC	??0?$vector@VioHashString@@V?$allocator@VioHashString@@@std@@@std@@QAE@ABV01@@Z ; std::vector<ioHashString,std::allocator<ioHashString> >::vector<ioHashString,std::allocator<ioHashString> >
;	COMDAT xdata$x
; File c:\program files (x86)\microsoft visual studio 10.0\vc\include\xutility
xdata$x	SEGMENT
__catchsym$??0?$vector@VioHashString@@V?$allocator@VioHashString@@@std@@@std@@QAE@ABV01@@Z$2 DD 040H
	DD	00H
	DD	00H
	DD	FLAT:__catch$??0?$vector@VioHashString@@V?$allocator@VioHashString@@@std@@@std@@QAE@ABV01@@Z$0
__unwindtable$??0?$vector@VioHashString@@V?$allocator@VioHashString@@@std@@@std@@QAE@ABV01@@Z DD 0ffffffffH
	DD	00H
	DD	0ffffffffH
	DD	00H
__tryblocktable$??0?$vector@VioHashString@@V?$allocator@VioHashString@@@std@@@std@@QAE@ABV01@@Z DD 00H
	DD	00H
	DD	01H
	DD	01H
	DD	FLAT:__catchsym$??0?$vector@VioHashString@@V?$allocator@VioHashString@@@std@@@std@@QAE@ABV01@@Z$2
__ehfuncinfo$??0?$vector@VioHashString@@V?$allocator@VioHashString@@@std@@@std@@QAE@ABV01@@Z DD 019930522H
	DD	02H
	DD	FLAT:__unwindtable$??0?$vector@VioHashString@@V?$allocator@VioHashString@@@std@@@std@@QAE@ABV01@@Z
	DD	01H
	DD	FLAT:__tryblocktable$??0?$vector@VioHashString@@V?$allocator@VioHashString@@@std@@@std@@QAE@ABV01@@Z
	DD	2 DUP(00H)
	DD	00H
	DD	01H
; Function compile flags: /Ogsp
; File c:\program files (x86)\microsoft visual studio 10.0\vc\include\vector
xdata$x	ENDS
;	COMDAT ??0?$vector@VioHashString@@V?$allocator@VioHashString@@@std@@@std@@QAE@ABV01@@Z
_TEXT	SEGMENT
_this$ = -20						; size = 4
__$EHRec$ = -16						; size = 16
__Cat$514855 = 8					; size = 1
__Right$ = 8						; size = 4
??0?$vector@VioHashString@@V?$allocator@VioHashString@@@std@@@std@@QAE@ABV01@@Z PROC ; std::vector<ioHashString,std::allocator<ioHashString> >::vector<ioHashString,std::allocator<ioHashString> >, COMDAT
; _this$ = ecx

; 535  : 		{	// construct by copying _Right

  00000	6a 08		 push	 8
  00002	b8 00 00 00 00	 mov	 eax, __ehhandler$??0?$vector@VioHashString@@V?$allocator@VioHashString@@@std@@@std@@QAE@ABV01@@Z
  00007	e8 00 00 00 00	 call	 __EH_prolog3_catch
  0000c	8b f1		 mov	 esi, ecx
  0000e	89 75 ec	 mov	 DWORD PTR _this$[ebp], esi

; 536  : 		if (_Buy(_Right.size()))

  00011	8b 7d 08	 mov	 edi, DWORD PTR __Right$[ebp]
  00014	33 db		 xor	 ebx, ebx
  00016	89 1e		 mov	 DWORD PTR [esi], ebx
  00018	89 5e 04	 mov	 DWORD PTR [esi+4], ebx
  0001b	89 5e 08	 mov	 DWORD PTR [esi+8], ebx
  0001e	8b 47 04	 mov	 eax, DWORD PTR [edi+4]
  00021	2b 07		 sub	 eax, DWORD PTR [edi]
  00023	c1 f8 04	 sar	 eax, 4
  00026	50		 push	 eax
  00027	e8 00 00 00 00	 call	 ?_Buy@?$vector@VioHashString@@V?$allocator@VioHashString@@@std@@@std@@IAE_NI@Z ; std::vector<ioHashString,std::allocator<ioHashString> >::_Buy
  0002c	84 c0		 test	 al, al
  0002e	74 1f		 je	 SHORT $LN7@vector

; 537  : 			_TRY_BEGIN
; 538  : 			this->_Mylast = _Ucopy(_Right.begin(), _Right.end(),
; 539  : 				this->_Myfirst);

  00030	ff 75 08	 push	 DWORD PTR __Cat$514855[ebp]
  00033	8b 0e		 mov	 ecx, DWORD PTR [esi]
  00035	8b 47 04	 mov	 eax, DWORD PTR [edi+4]
  00038	8b 3f		 mov	 edi, DWORD PTR [edi]
  0003a	8d 56 0c	 lea	 edx, DWORD PTR [esi+12]
  0003d	52		 push	 edx
  0003e	51		 push	 ecx
  0003f	50		 push	 eax
  00040	57		 push	 edi
  00041	89 5d fc	 mov	 DWORD PTR __$EHRec$[ebp+12], ebx
  00044	e8 00 00 00 00	 call	 ??$_Uninit_copy@V?$_Vector_const_iterator@V?$_Vector_val@VioHashString@@V?$allocator@VioHashString@@@std@@@std@@@std@@PAVioHashString@@V?$allocator@VioHashString@@@2@@std@@YAPAVioHashString@@V?$_Vector_const_iterator@V?$_Vector_val@VioHashString@@V?$allocator@VioHashString@@@std@@@std@@@0@0PAV1@AAV?$allocator@VioHashString@@@0@U_Nonscalar_ptr_iterator_tag@0@@Z ; std::_Uninit_copy<std::_Vector_const_iterator<std::_Vector_val<ioHashString,std::allocator<ioHashString> > >,ioHashString *,std::allocator<ioHashString> >
  00049	83 c4 14	 add	 esp, 20			; 00000014H
  0004c	89 46 04	 mov	 DWORD PTR [esi+4], eax
$LN7@vector:

; 543  : 			_CATCH_END
; 544  : 		}

  0004f	8b c6		 mov	 eax, esi
  00051	e8 00 00 00 00	 call	 __EH_epilog3
  00056	c2 04 00	 ret	 4
__catch$??0?$vector@VioHashString@@V?$allocator@VioHashString@@@std@@@std@@QAE@ABV01@@Z$0:

; 540  : 			_CATCH_ALL
; 541  : 			_Tidy();

  00059	8b 4d ec	 mov	 ecx, DWORD PTR _this$[ebp]
  0005c	e8 00 00 00 00	 call	 ?_Tidy@?$vector@VioHashString@@V?$allocator@VioHashString@@@std@@@std@@IAEXXZ ; std::vector<ioHashString,std::allocator<ioHashString> >::_Tidy

; 542  : 			_RERAISE;

  00061	33 db		 xor	 ebx, ebx
  00063	53		 push	 ebx
  00064	53		 push	 ebx
  00065	e8 00 00 00 00	 call	 __CxxThrowException@8
$LN38@vector:
$LN37@vector:
  0006a	cc		 int	 3
_TEXT	ENDS
;	COMDAT text$x
text$x	SEGMENT
__ehhandler$??0?$vector@VioHashString@@V?$allocator@VioHashString@@@std@@@std@@QAE@ABV01@@Z:
  00000	8b 54 24 08	 mov	 edx, DWORD PTR [esp+8]
  00004	8d 42 0c	 lea	 eax, DWORD PTR [edx+12]
  00007	8b 4a e8	 mov	 ecx, DWORD PTR [edx-24]
  0000a	33 c8		 xor	 ecx, eax
  0000c	e8 00 00 00 00	 call	 @__security_check_cookie@4
  00011	b8 00 00 00 00	 mov	 eax, OFFSET __ehfuncinfo$??0?$vector@VioHashString@@V?$allocator@VioHashString@@@std@@@std@@QAE@ABV01@@Z
  00016	e9 00 00 00 00	 jmp	 ___CxxFrameHandler3
text$x	ENDS
??0?$vector@VioHashString@@V?$allocator@VioHashString@@@std@@@std@@QAE@ABV01@@Z ENDP ; std::vector<ioHashString,std::allocator<ioHashString> >::vector<ioHashString,std::allocator<ioHashString> >
PUBLIC	??1?$vector@VioHashString@@V?$allocator@VioHashString@@@std@@@std@@QAE@XZ ; std::vector<ioHashString,std::allocator<ioHashString> >::~vector<ioHashString,std::allocator<ioHashString> >
; Function compile flags: /Ogsp
;	COMDAT ??1?$vector@VioHashString@@V?$allocator@VioHashString@@@std@@@std@@QAE@XZ
_TEXT	SEGMENT
??1?$vector@VioHashString@@V?$allocator@VioHashString@@@std@@@std@@QAE@XZ PROC ; std::vector<ioHashString,std::allocator<ioHashString> >::~vector<ioHashString,std::allocator<ioHashString> >, COMDAT
; _this$ = ecx

; 705  : 		_Tidy();

  00000	e9 00 00 00 00	 jmp	 ?_Tidy@?$vector@VioHashString@@V?$allocator@VioHashString@@@std@@@std@@IAEXXZ ; std::vector<ioHashString,std::allocator<ioHashString> >::_Tidy
??1?$vector@VioHashString@@V?$allocator@VioHashString@@@std@@@std@@QAE@XZ ENDP ; std::vector<ioHashString,std::allocator<ioHashString> >::~vector<ioHashString,std::allocator<ioHashString> >
_TEXT	ENDS
PUBLIC	??_7RouletteWnd@@6B@				; RouletteWnd::`vftable'
PUBLIC	??0RouletteWnd@@QAE@XZ				; RouletteWnd::RouletteWnd
PUBLIC	??_R4RouletteWnd@@6B@				; RouletteWnd::`RTTI Complete Object Locator'
PUBLIC	??_R0?AVRouletteWnd@@@8				; RouletteWnd `RTTI Type Descriptor'
PUBLIC	??_R3RouletteWnd@@8				; RouletteWnd::`RTTI Class Hierarchy Descriptor'
PUBLIC	??_R2RouletteWnd@@8				; RouletteWnd::`RTTI Base Class Array'
PUBLIC	??_R1A@?0A@EA@RouletteWnd@@8			; RouletteWnd::`RTTI Base Class Descriptor at (0,-1,0,64)'
PUBLIC	??_R1A@?0A@EA@ioMovingWnd@@8			; ioMovingWnd::`RTTI Base Class Descriptor at (0,-1,0,64)'
PUBLIC	??_R0?AVioMovingWnd@@@8				; ioMovingWnd `RTTI Type Descriptor'
PUBLIC	??_R3ioMovingWnd@@8				; ioMovingWnd::`RTTI Class Hierarchy Descriptor'
PUBLIC	??_R2ioMovingWnd@@8				; ioMovingWnd::`RTTI Base Class Array'
PUBLIC	??_R1A@?0A@EA@ioWnd@@8				; ioWnd::`RTTI Base Class Descriptor at (0,-1,0,64)'
PUBLIC	??_R0?AVioWnd@@@8				; ioWnd `RTTI Type Descriptor'
PUBLIC	??_R3ioWnd@@8					; ioWnd::`RTTI Class Hierarchy Descriptor'
PUBLIC	??_R2ioWnd@@8					; ioWnd::`RTTI Base Class Array'
PUBLIC	?ParseExtraInfo@RouletteWnd@@UAEXAAVioXMLElement@@@Z ; RouletteWnd::ParseExtraInfo
PUBLIC	?OnRender@RouletteWnd@@MAEXXZ			; RouletteWnd::OnRender
PUBLIC	?iwm_create@RouletteWnd@@UAEXXZ			; RouletteWnd::iwm_create
EXTRN	__imp_??1ioMovingWnd@@UAE@XZ:PROC
EXTRN	__imp_??0ioMovingWnd@@QAE@XZ:PROC
EXTRN	?AddRenderFrame@ioWnd@@UAEXABVioHashString@@PAVioUIRenderFrame@@@Z:PROC ; ioWnd::AddRenderFrame
EXTRN	?AddTooltipHelp@ioWnd@@UAEXABVioHashString@@00@Z:PROC ; ioWnd::AddTooltipHelp
EXTRN	?AddNamedRenderImage@ioWnd@@UAEXABVioHashString@@PAVioUIRenderImage@@@Z:PROC ; ioWnd::AddNamedRenderImage
EXTRN	?RemoveNamedRenderImage@ioWnd@@UAEXABVioHashString@@@Z:PROC ; ioWnd::RemoveNamedRenderImage
EXTRN	?GetNamedRenderImage@ioWnd@@UBEPAVioUIRenderImage@@ABVioHashString@@@Z:PROC ; ioWnd::GetNamedRenderImage
EXTRN	?SetWindowAlpha@ioWnd@@UAEXH@Z:PROC		; ioWnd::SetWindowAlpha
EXTRN	?SetActive@ioWnd@@UAEXXZ:PROC			; ioWnd::SetActive
EXTRN	?SetInActive@ioWnd@@UAEXXZ:PROC			; ioWnd::SetInActive
EXTRN	?ClearElementImageList@ioWnd@@UAEXXZ:PROC	; ioWnd::ClearElementImageList
EXTRN	?SetSize@ioWnd@@UAEXHH@Z:PROC			; ioWnd::SetSize
EXTRN	?IsNeedProcess@ioWnd@@UBE_NXZ:PROC		; ioWnd::IsNeedProcess
EXTRN	?IsCanMouseReaction@ioWnd@@UBE_NXZ:PROC		; ioWnd::IsCanMouseReaction
EXTRN	?AddChild@ioWnd@@UAEXPAV1@@Z:PROC		; ioWnd::AddChild
EXTRN	?DeleteChild@ioWnd@@UAEXK@Z:PROC		; ioWnd::DeleteChild
EXTRN	?DeleteAllChild@ioWnd@@UAEXXZ:PROC		; ioWnd::DeleteAllChild
EXTRN	?OnRenderShowAndHide@ioWnd@@MAE_NXZ:PROC	; ioWnd::OnRenderShowAndHide
EXTRN	?OnRenderShowAndHideByDefault@ioWnd@@MAE_NK@Z:PROC ; ioWnd::OnRenderShowAndHideByDefault
EXTRN	?OnRenderShowAndHideByTop@ioWnd@@MAE_NK@Z:PROC	; ioWnd::OnRenderShowAndHideByTop
EXTRN	?OnRenderShowAndHideByDown@ioWnd@@MAE_NK@Z:PROC	; ioWnd::OnRenderShowAndHideByDown
EXTRN	?OnRenderAfterChild@ioWnd@@MAEXXZ:PROC		; ioWnd::OnRenderAfterChild
EXTRN	?OnMouseProcess@ioMovingWnd@@MAEXABVioMouse@@@Z:PROC ; ioMovingWnd::OnMouseProcess
EXTRN	?CheckFrameReSize@ioWnd@@MAEXHHHH@Z:PROC	; ioWnd::CheckFrameReSize
EXTRN	?RenderImageList@ioWnd@@MAEXHHW4UIRenderType@@@Z:PROC ; ioWnd::RenderImageList
EXTRN	?iwm_destroy@ioWnd@@UAEXXZ:PROC			; ioWnd::iwm_destroy
EXTRN	?iwm_lbuttondown@ioMovingWnd@@UAEXABVioMouse@@@Z:PROC ; ioMovingWnd::iwm_lbuttondown
EXTRN	?iwm_lbuttonup@ioMovingWnd@@UAEXABVioMouse@@@Z:PROC ; ioMovingWnd::iwm_lbuttonup
EXTRN	?iwm_lbuttonDBLCLK@ioWnd@@UAEXABVioMouse@@@Z:PROC ; ioWnd::iwm_lbuttonDBLCLK
EXTRN	?iwm_rbuttondown@ioWnd@@UAEXABVioMouse@@@Z:PROC	; ioWnd::iwm_rbuttondown
EXTRN	?iwm_rbuttonup@ioWnd@@UAEXABVioMouse@@@Z:PROC	; ioWnd::iwm_rbuttonup
EXTRN	?iwm_mouseover@ioWnd@@UAEXABVioMouse@@@Z:PROC	; ioWnd::iwm_mouseover
EXTRN	?iwm_mousemove@ioWnd@@UAEXABVioMouse@@@Z:PROC	; ioWnd::iwm_mousemove
EXTRN	?iwm_mouseleave@ioWnd@@UAEXABVioMouse@@@Z:PROC	; ioWnd::iwm_mouseleave
EXTRN	?iwm_vscroll@ioWnd@@UAEXKH@Z:PROC		; ioWnd::iwm_vscroll
EXTRN	?iwm_wheel@ioWnd@@UAEXH@Z:PROC			; ioWnd::iwm_wheel
EXTRN	?iwm_esc@ioWnd@@UAE_NXZ:PROC			; ioWnd::iwm_esc
EXTRN	?iwm_spacebar@ioWnd@@UAE_NXZ:PROC		; ioWnd::iwm_spacebar
EXTRN	?iwm_gototop@ioWnd@@UAEXXZ:PROC			; ioWnd::iwm_gototop
EXTRN	?iwm_dragenter@ioWnd@@UAE?AW4IWDropEffect@@PAVioDragItem@@ABVioMouse@@@Z:PROC ; ioWnd::iwm_dragenter
EXTRN	?iwm_dragover@ioWnd@@UAE?AW4IWDropEffect@@PAVioDragItem@@ABVioMouse@@@Z:PROC ; ioWnd::iwm_dragover
EXTRN	?iwm_dragleave@ioWnd@@UAEXXZ:PROC		; ioWnd::iwm_dragleave
EXTRN	?iwm_dropitem@ioWnd@@UAE_NPAVioDragItem@@ABVioMouse@@PAV1@@Z:PROC ; ioWnd::iwm_dropitem
EXTRN	?iwm_dropdone@ioWnd@@UAEXPAVioDragItem@@PAV1@_N@Z:PROC ; ioWnd::iwm_dropdone
EXTRN	?IsEXType@ioWnd@@UBE_NXZ:PROC			; ioWnd::IsEXType
EXTRN	?GetWndType@ioWnd@@UBEKXZ:PROC			; ioWnd::GetWndType
EXTRN	?RenderWnd@ioWnd@@UAEXXZ:PROC			; ioWnd::RenderWnd
EXTRN	?SetIDEX@ioWnd@@UAEXAAK_N@Z:PROC		; ioWnd::SetIDEX
EXTRN	?ParseXML@ioWnd@@UAEXAAVioXMLElement@@@Z:PROC	; ioWnd::ParseXML
EXTRN	?GetHeaderFileName@ioWnd@@UAEPBDXZ:PROC		; ioWnd::GetHeaderFileName
EXTRN	?GetTemplateName@ioWnd@@UAEPBDXZ:PROC		; ioWnd::GetTemplateName
EXTRN	?GetDefClassName@ioWnd@@UBEPBDXZ:PROC		; ioWnd::GetDefClassName
EXTRN	?_Clone@ioWnd@@UAEPAV1@XZ:PROC			; ioWnd::_Clone
EXTRN	?Copy@ioWnd@@UAEXPAV1@@Z:PROC			; ioWnd::Copy
EXTRN	?Save@ioWnd@@UAE_NAAVioXMLElement@@@Z:PROC	; ioWnd::Save
EXTRN	?SetSaveData@ioWnd@@UAEXAAVioXMLElement@@@Z:PROC ; ioWnd::SetSaveData
EXTRN	?SetPosX@ioWnd@@UAEXH@Z:PROC			; ioWnd::SetPosX
EXTRN	?SetPosY@ioWnd@@UAEXH@Z:PROC			; ioWnd::SetPosY
EXTRN	?SetWidth@ioWnd@@UAEXH@Z:PROC			; ioWnd::SetWidth
EXTRN	?SetHeight@ioWnd@@UAEXH@Z:PROC			; ioWnd::SetHeight
EXTRN	?GetNumFixedRenderFrame@ioWnd@@UBEHXZ:PROC	; ioWnd::GetNumFixedRenderFrame
EXTRN	?GetFixedRenderFrameType@ioWnd@@UAEPBDH@Z:PROC	; ioWnd::GetFixedRenderFrameType
EXTRN	?GetRenderFrame@ioWnd@@UAEPAPAVioUIRenderElement@@PBD@Z:PROC ; ioWnd::GetRenderFrame
EXTRN	?GetNumFixedRenderImage@ioWnd@@UBEHXZ:PROC	; ioWnd::GetNumFixedRenderImage
EXTRN	?GetFixedRenderImageType@ioWnd@@UAEPBDH@Z:PROC	; ioWnd::GetFixedRenderImageType
EXTRN	?GetRenderImage@ioWnd@@UAEPAPAVioUIRenderElement@@PBD@Z:PROC ; ioWnd::GetRenderImage
EXTRN	?AddEffect@ioWnd@@UAEXABVioHashString@@PAVioUI3DEffectRender@@@Z:PROC ; ioWnd::AddEffect
EXTRN	?GetEffect@ioWnd@@UAEPAVioUI3DEffectRender@@VioHashString@@@Z:PROC ; ioWnd::GetEffect
EXTRN	??_ERouletteWnd@@UAEPAXI@Z:PROC			; RouletteWnd::`vector deleting destructor'
;	COMDAT ??_R2ioWnd@@8
; File c:\program files (x86)\microsoft visual studio 10.0\vc\include\xutility
rdata$r	SEGMENT
??_R2ioWnd@@8 DD FLAT:??_R1A@?0A@EA@ioWnd@@8		; ioWnd::`RTTI Base Class Array'
rdata$r	ENDS
;	COMDAT ??_R3ioWnd@@8
rdata$r	SEGMENT
??_R3ioWnd@@8 DD 00H					; ioWnd::`RTTI Class Hierarchy Descriptor'
	DD	00H
	DD	01H
	DD	FLAT:??_R2ioWnd@@8
rdata$r	ENDS
;	COMDAT ??_R0?AVioWnd@@@8
_DATA	SEGMENT
??_R0?AVioWnd@@@8 DD FLAT:??_7type_info@@6B@		; ioWnd `RTTI Type Descriptor'
	DD	00H
	DB	'.?AVioWnd@@', 00H
_DATA	ENDS
;	COMDAT ??_R1A@?0A@EA@ioWnd@@8
rdata$r	SEGMENT
??_R1A@?0A@EA@ioWnd@@8 DD FLAT:??_R0?AVioWnd@@@8	; ioWnd::`RTTI Base Class Descriptor at (0,-1,0,64)'
	DD	00H
	DD	00H
	DD	0ffffffffH
	DD	00H
	DD	040H
	DD	FLAT:??_R3ioWnd@@8
rdata$r	ENDS
;	COMDAT ??_R2ioMovingWnd@@8
rdata$r	SEGMENT
??_R2ioMovingWnd@@8 DD FLAT:??_R1A@?0A@EA@ioMovingWnd@@8 ; ioMovingWnd::`RTTI Base Class Array'
	DD	FLAT:??_R1A@?0A@EA@ioWnd@@8
rdata$r	ENDS
;	COMDAT ??_R3ioMovingWnd@@8
rdata$r	SEGMENT
??_R3ioMovingWnd@@8 DD 00H				; ioMovingWnd::`RTTI Class Hierarchy Descriptor'
	DD	00H
	DD	02H
	DD	FLAT:??_R2ioMovingWnd@@8
rdata$r	ENDS
;	COMDAT ??_R0?AVioMovingWnd@@@8
_DATA	SEGMENT
??_R0?AVioMovingWnd@@@8 DD FLAT:??_7type_info@@6B@	; ioMovingWnd `RTTI Type Descriptor'
	DD	00H
	DB	'.?AVioMovingWnd@@', 00H
_DATA	ENDS
;	COMDAT ??_R1A@?0A@EA@ioMovingWnd@@8
rdata$r	SEGMENT
??_R1A@?0A@EA@ioMovingWnd@@8 DD FLAT:??_R0?AVioMovingWnd@@@8 ; ioMovingWnd::`RTTI Base Class Descriptor at (0,-1,0,64)'
	DD	01H
	DD	00H
	DD	0ffffffffH
	DD	00H
	DD	040H
	DD	FLAT:??_R3ioMovingWnd@@8
rdata$r	ENDS
;	COMDAT ??_R1A@?0A@EA@RouletteWnd@@8
rdata$r	SEGMENT
??_R1A@?0A@EA@RouletteWnd@@8 DD FLAT:??_R0?AVRouletteWnd@@@8 ; RouletteWnd::`RTTI Base Class Descriptor at (0,-1,0,64)'
	DD	02H
	DD	00H
	DD	0ffffffffH
	DD	00H
	DD	040H
	DD	FLAT:??_R3RouletteWnd@@8
rdata$r	ENDS
;	COMDAT ??_R2RouletteWnd@@8
rdata$r	SEGMENT
??_R2RouletteWnd@@8 DD FLAT:??_R1A@?0A@EA@RouletteWnd@@8 ; RouletteWnd::`RTTI Base Class Array'
	DD	FLAT:??_R1A@?0A@EA@ioMovingWnd@@8
	DD	FLAT:??_R1A@?0A@EA@ioWnd@@8
rdata$r	ENDS
;	COMDAT ??_R3RouletteWnd@@8
rdata$r	SEGMENT
??_R3RouletteWnd@@8 DD 00H				; RouletteWnd::`RTTI Class Hierarchy Descriptor'
	DD	00H
	DD	03H
	DD	FLAT:??_R2RouletteWnd@@8
rdata$r	ENDS
;	COMDAT ??_R0?AVRouletteWnd@@@8
_DATA	SEGMENT
??_R0?AVRouletteWnd@@@8 DD FLAT:??_7type_info@@6B@	; RouletteWnd `RTTI Type Descriptor'
	DD	00H
	DB	'.?AVRouletteWnd@@', 00H
_DATA	ENDS
;	COMDAT ??_R4RouletteWnd@@6B@
rdata$r	SEGMENT
??_R4RouletteWnd@@6B@ DD 00H				; RouletteWnd::`RTTI Complete Object Locator'
	DD	00H
	DD	00H
	DD	FLAT:??_R0?AVRouletteWnd@@@8
	DD	FLAT:??_R3RouletteWnd@@8
rdata$r	ENDS
;	COMDAT ??_7RouletteWnd@@6B@
CONST	SEGMENT
??_7RouletteWnd@@6B@ DD FLAT:??_R4RouletteWnd@@6B@	; RouletteWnd::`vftable'
	DD	FLAT:?AddRenderFrame@ioWnd@@UAEXABVioHashString@@PAVioUIRenderFrame@@@Z
	DD	FLAT:?AddRenderImage@RouletteWnd@@UAEXABVioHashString@@PAVioUIRenderImage@@@Z
	DD	FLAT:?AddTooltipHelp@ioWnd@@UAEXABVioHashString@@00@Z
	DD	FLAT:?ParseExtraInfo@RouletteWnd@@UAEXAAVioXMLElement@@@Z
	DD	FLAT:?AddNamedRenderImage@ioWnd@@UAEXABVioHashString@@PAVioUIRenderImage@@@Z
	DD	FLAT:?RemoveNamedRenderImage@ioWnd@@UAEXABVioHashString@@@Z
	DD	FLAT:?GetNamedRenderImage@ioWnd@@UBEPAVioUIRenderImage@@ABVioHashString@@@Z
	DD	FLAT:?SetWindowAlpha@ioWnd@@UAEXH@Z
	DD	FLAT:?SetActive@ioWnd@@UAEXXZ
	DD	FLAT:?SetInActive@ioWnd@@UAEXXZ
	DD	FLAT:?ClearElementImageList@ioWnd@@UAEXXZ
	DD	FLAT:?SetSize@ioWnd@@UAEXHH@Z
	DD	FLAT:?SetPositionToDefault@RouletteWnd@@UAEXHH_N0@Z
	DD	FLAT:?IsNeedProcess@ioWnd@@UBE_NXZ
	DD	FLAT:?IsCanMouseReaction@ioWnd@@UBE_NXZ
	DD	FLAT:?AddChild@ioWnd@@UAEXPAV1@@Z
	DD	FLAT:?DeleteChild@ioWnd@@UAEXK@Z
	DD	FLAT:?DeleteAllChild@ioWnd@@UAEXXZ
	DD	FLAT:?OnRenderShowAndHide@ioWnd@@MAE_NXZ
	DD	FLAT:?OnRenderShowAndHideByDefault@ioWnd@@MAE_NK@Z
	DD	FLAT:?OnRenderShowAndHideByTop@ioWnd@@MAE_NK@Z
	DD	FLAT:?OnRenderShowAndHideByDown@ioWnd@@MAE_NK@Z
	DD	FLAT:?OnRender@RouletteWnd@@MAEXXZ
	DD	FLAT:?OnRenderAfterChild@ioWnd@@MAEXXZ
	DD	FLAT:?OnProcess@RouletteWnd@@MAEXM@Z
	DD	FLAT:?OnMouseProcess@ioMovingWnd@@MAEXABVioMouse@@@Z
	DD	FLAT:?CheckFrameReSize@ioWnd@@MAEXHHHH@Z
	DD	FLAT:?RenderImageList@ioWnd@@MAEXHHW4UIRenderType@@@Z
	DD	FLAT:?iwm_create@RouletteWnd@@UAEXXZ
	DD	FLAT:?iwm_destroy@ioWnd@@UAEXXZ
	DD	FLAT:?iwm_lbuttondown@ioMovingWnd@@UAEXABVioMouse@@@Z
	DD	FLAT:?iwm_lbuttonup@ioMovingWnd@@UAEXABVioMouse@@@Z
	DD	FLAT:?iwm_lbuttonDBLCLK@ioWnd@@UAEXABVioMouse@@@Z
	DD	FLAT:?iwm_rbuttondown@ioWnd@@UAEXABVioMouse@@@Z
	DD	FLAT:?iwm_rbuttonup@ioWnd@@UAEXABVioMouse@@@Z
	DD	FLAT:?iwm_command@RouletteWnd@@UAEXPAVioWnd@@HK@Z
	DD	FLAT:?iwm_mouseover@ioWnd@@UAEXABVioMouse@@@Z
	DD	FLAT:?iwm_mousemove@ioWnd@@UAEXABVioMouse@@@Z
	DD	FLAT:?iwm_mouseleave@ioWnd@@UAEXABVioMouse@@@Z
	DD	FLAT:?iwm_vscroll@ioWnd@@UAEXKH@Z
	DD	FLAT:?iwm_wheel@ioWnd@@UAEXH@Z
	DD	FLAT:?iwm_show@RouletteWnd@@UAEXXZ
	DD	FLAT:?iwm_hide@RouletteWnd@@UAEXXZ
	DD	FLAT:?iwm_esc@ioWnd@@UAE_NXZ
	DD	FLAT:?iwm_spacebar@ioWnd@@UAE_NXZ
	DD	FLAT:?iwm_gototop@ioWnd@@UAEXXZ
	DD	FLAT:?iwm_dragenter@ioWnd@@UAE?AW4IWDropEffect@@PAVioDragItem@@ABVioMouse@@@Z
	DD	FLAT:?iwm_dragover@ioWnd@@UAE?AW4IWDropEffect@@PAVioDragItem@@ABVioMouse@@@Z
	DD	FLAT:?iwm_dragleave@ioWnd@@UAEXXZ
	DD	FLAT:?iwm_dropitem@ioWnd@@UAE_NPAVioDragItem@@ABVioMouse@@PAV1@@Z
	DD	FLAT:?iwm_dropdone@ioWnd@@UAEXPAVioDragItem@@PAV1@_N@Z
	DD	FLAT:?IsEXType@ioWnd@@UBE_NXZ
	DD	FLAT:?GetWndType@ioWnd@@UBEKXZ
	DD	FLAT:?RenderWnd@ioWnd@@UAEXXZ
	DD	FLAT:?SetIDEX@ioWnd@@UAEXAAK_N@Z
	DD	FLAT:?ParseXML@ioWnd@@UAEXAAVioXMLElement@@@Z
	DD	FLAT:?GetHeaderFileName@ioWnd@@UAEPBDXZ
	DD	FLAT:?GetTemplateName@ioWnd@@UAEPBDXZ
	DD	FLAT:?GetDefClassName@ioWnd@@UBEPBDXZ
	DD	FLAT:?_Clone@ioWnd@@UAEPAV1@XZ
	DD	FLAT:?Copy@ioWnd@@UAEXPAV1@@Z
	DD	FLAT:?Save@ioWnd@@UAE_NAAVioXMLElement@@@Z
	DD	FLAT:?SetSaveData@ioWnd@@UAEXAAVioXMLElement@@@Z
	DD	FLAT:?SetPosX@ioWnd@@UAEXH@Z
	DD	FLAT:?SetPosY@ioWnd@@UAEXH@Z
	DD	FLAT:?SetWidth@ioWnd@@UAEXH@Z
	DD	FLAT:?SetHeight@ioWnd@@UAEXH@Z
	DD	FLAT:?GetNumFixedRenderFrame@ioWnd@@UBEHXZ
	DD	FLAT:?GetFixedRenderFrameType@ioWnd@@UAEPBDH@Z
	DD	FLAT:?GetRenderFrame@ioWnd@@UAEPAPAVioUIRenderElement@@PBD@Z
	DD	FLAT:?GetNumFixedRenderImage@ioWnd@@UBEHXZ
	DD	FLAT:?GetFixedRenderImageType@ioWnd@@UAEPBDH@Z
	DD	FLAT:?GetRenderImage@ioWnd@@UAEPAPAVioUIRenderElement@@PBD@Z
	DD	FLAT:?AddEffect@ioWnd@@UAEXABVioHashString@@PAVioUI3DEffectRender@@@Z
	DD	FLAT:?GetEffect@ioWnd@@UAEPAVioUI3DEffectRender@@VioHashString@@@Z
	DD	FLAT:??_ERouletteWnd@@UAEPAXI@Z
CONST	ENDS
;	COMDAT xdata$x
xdata$x	SEGMENT
__unwindtable$??0RouletteWnd@@QAE@XZ DD 0ffffffffH
	DD	FLAT:__unwindfunclet$??0RouletteWnd@@QAE@XZ$0
	DD	00H
	DD	FLAT:__unwindfunclet$??0RouletteWnd@@QAE@XZ$1
	DD	01H
	DD	FLAT:__unwindfunclet$??0RouletteWnd@@QAE@XZ$2
__ehfuncinfo$??0RouletteWnd@@QAE@XZ DD 019930522H
	DD	03H
	DD	FLAT:__unwindtable$??0RouletteWnd@@QAE@XZ
	DD	2 DUP(00H)
	DD	2 DUP(00H)
	DD	00H
	DD	01H
; Function compile flags: /Ogsp
; File d:\lost saga for developer\youtube\tutorial\source\src\lsclient\gui\roulettewnd.cpp
xdata$x	ENDS
;	COMDAT ??0RouletteWnd@@QAE@XZ
_TEXT	SEGMENT
$T514995 = -20						; size = 4
_this$ = -16						; size = 4
__$EHRec$ = -12						; size = 12
??0RouletteWnd@@QAE@XZ PROC				; RouletteWnd::RouletteWnd, COMDAT
; _this$ = ecx

; 13   : {

  00000	6a 08		 push	 8
  00002	b8 00 00 00 00	 mov	 eax, __ehhandler$??0RouletteWnd@@QAE@XZ
  00007	e8 00 00 00 00	 call	 __EH_prolog3
  0000c	8b f1		 mov	 esi, ecx
  0000e	89 75 f0	 mov	 DWORD PTR _this$[ebp], esi
  00011	ff 15 00 00 00
	00		 call	 DWORD PTR __imp_??0ioMovingWnd@@QAE@XZ
  00017	33 db		 xor	 ebx, ebx
  00019	8d 8e 94 01 00
	00		 lea	 ecx, DWORD PTR [esi+404]
  0001f	c7 06 00 00 00
	00		 mov	 DWORD PTR [esi], OFFSET ??_7RouletteWnd@@6B@
  00025	89 5d fc	 mov	 DWORD PTR __$EHRec$[ebp+8], ebx
  00028	89 19		 mov	 DWORD PTR [ecx], ebx
  0002a	89 59 04	 mov	 DWORD PTR [ecx+4], ebx
  0002d	89 59 08	 mov	 DWORD PTR [ecx+8], ebx
  00030	89 9e fc 01 00
	00		 mov	 DWORD PTR [esi+508], ebx
  00036	89 9e 00 02 00
	00		 mov	 DWORD PTR [esi+512], ebx
  0003c	89 9e 04 02 00
	00		 mov	 DWORD PTR [esi+516], ebx
  00042	6a 03		 push	 3
  00044	c6 45 fc 02	 mov	 BYTE PTR __$EHRec$[ebp+8], 2

; 14   : 	m_pRouletteHelpBg = NULL;

  00048	89 9e a4 01 00
	00		 mov	 DWORD PTR [esi+420], ebx

; 15   : 	m_pTextBg         = NULL;

  0004e	89 9e a8 01 00
	00		 mov	 DWORD PTR [esi+424], ebx

; 16   : 
; 17   : 	m_pTextTitle      = NULL;

  00054	89 9e b0 01 00
	00		 mov	 DWORD PTR [esi+432], ebx

; 18   : 	m_pTextEnableJoin = NULL;

  0005a	89 9e b4 01 00
	00		 mov	 DWORD PTR [esi+436], ebx

; 19   : 	m_pTextJoin       = NULL;

  00060	89 9e b8 01 00
	00		 mov	 DWORD PTR [esi+440], ebx

; 20   : 	m_pTextEnd        = NULL;

  00066	89 9e bc 01 00
	00		 mov	 DWORD PTR [esi+444], ebx

; 21   : 	m_pTextEndSec     = NULL;

  0006c	89 9e c0 01 00
	00		 mov	 DWORD PTR [esi+448], ebx

; 22   : 	m_pTextEndNum     = NULL;

  00072	89 9e c4 01 00
	00		 mov	 DWORD PTR [esi+452], ebx

; 23   : 	m_pTextPresent    = NULL;

  00078	89 9e c8 01 00
	00		 mov	 DWORD PTR [esi+456], ebx
  0007e	8d 86 d8 01 00
	00		 lea	 eax, DWORD PTR [esi+472]
  00084	5a		 pop	 edx
$LL3@RouletteWn:

; 24   : 	
; 25   : 	for( int i=0; i<3; ++i )
; 26   : 	{
; 27   : 		m_pTextReward[i]    = NULL;

  00085	89 58 f4	 mov	 DWORD PTR [eax-12], ebx

; 28   : 		m_pTextRewardBg[i]  = NULL;

  00088	89 18		 mov	 DWORD PTR [eax], ebx
  0008a	83 c0 04	 add	 eax, 4
  0008d	4a		 dec	 edx
  0008e	75 f5		 jne	 SHORT $LL3@RouletteWn

; 29   : 	}
; 30   : 
; 31   : 	m_pUpperCoupon       = NULL;

  00090	89 9e e4 01 00
	00		 mov	 DWORD PTR [esi+484], ebx

; 32   : 	m_pUpperCouponNumber = NULL;

  00096	89 9e e8 01 00
	00		 mov	 DWORD PTR [esi+488], ebx

; 33   : 
; 34   : 	m_pUnderJoin = NULL;

  0009c	89 9e ec 01 00
	00		 mov	 DWORD PTR [esi+492], ebx

; 35   : 	m_pUnderCount = NULL;

  000a2	89 9e f0 01 00
	00		 mov	 DWORD PTR [esi+496], ebx

; 36   : 
; 37   : 	m_pArrow = NULL;

  000a8	89 9e f4 01 00
	00		 mov	 DWORD PTR [esi+500], ebx

; 38   : 
; 39   : 	m_pWheelQuad = NULL;

  000ae	89 9e f8 01 00
	00		 mov	 DWORD PTR [esi+504], ebx

; 40   : 
; 41   : 	m_iCurResultArray = 0;

  000b4	89 9e 0c 02 00
	00		 mov	 DWORD PTR [esi+524], ebx

; 42   : 	m_UIEffectList.clear();

  000ba	8b 41 04	 mov	 eax, DWORD PTR [ecx+4]
  000bd	8b 11		 mov	 edx, DWORD PTR [ecx]
  000bf	50		 push	 eax
  000c0	52		 push	 edx
  000c1	8d 45 ec	 lea	 eax, DWORD PTR $T514995[ebp]
  000c4	50		 push	 eax
  000c5	e8 00 00 00 00	 call	 ?erase@?$vector@UUIEffectAniInfo@RouletteWnd@@V?$allocator@UUIEffectAniInfo@RouletteWnd@@@std@@@std@@QAE?AV?$_Vector_iterator@V?$_Vector_val@UUIEffectAniInfo@RouletteWnd@@V?$allocator@UUIEffectAniInfo@RouletteWnd@@@std@@@std@@@2@V?$_Vector_const_iterator@V?$_Vector_val@UUIEffectAniInfo@RouletteWnd@@V?$allocator@UUIEffectAniInfo@RouletteWnd@@@std@@@std@@@2@0@Z ; std::vector<RouletteWnd::UIEffectAniInfo,std::allocator<RouletteWnd::UIEffectAniInfo> >::erase

; 43   : 
; 44   : 	m_iCoin = 0;
; 45   : 	m_iJoinUser = 0;
; 46   : 
; 47   : 	m_bSetUIEffect = false;
; 48   : 
; 49   : 	m_bMainInfo = true;
; 50   : 	m_iInfoAlphaRate = MAX_ALPHA_RATE;
; 51   : 	m_bFadeIn = true;
; 52   : 
; 53   : 	m_dwInfoDelayTime = 0;
; 54   : 	m_bSpinEndEffect = false;
; 55   : 
; 56   : 	m_dwRewardStartTime = 0;
; 57   : 
; 58   : 	m_State = US_READY;
; 59   : 
; 60   : 	m_bJoinEnd = false;
; 61   : 
; 62   : 	HideChildWnd( ID_HELP );

  000ca	53		 push	 ebx
  000cb	6a 01		 push	 1
  000cd	8b ce		 mov	 ecx, esi
  000cf	89 9e 10 02 00
	00		 mov	 DWORD PTR [esi+528], ebx
  000d5	89 9e 14 02 00
	00		 mov	 DWORD PTR [esi+532], ebx
  000db	66 c7 86 18 02
	00 00 00 01	 mov	 WORD PTR [esi+536], 256	; 00000100H
  000e4	c7 86 20 02 00
	00 ff 00 00 00	 mov	 DWORD PTR [esi+544], 255 ; 000000ffH
  000ee	89 9e 1c 02 00
	00		 mov	 DWORD PTR [esi+540], ebx
  000f4	66 c7 86 24 02
	00 00 01 00	 mov	 WORD PTR [esi+548], 1
  000fd	89 9e 28 02 00
	00		 mov	 DWORD PTR [esi+552], ebx
  00103	89 9e 90 01 00
	00		 mov	 DWORD PTR [esi+400], ebx
  00109	88 9e 2c 02 00
	00		 mov	 BYTE PTR [esi+556], bl
  0010f	ff 15 00 00 00
	00		 call	 DWORD PTR __imp_?HideChildWnd@ioWnd@@QAEXK_N@Z

; 63   : }

  00115	8b c6		 mov	 eax, esi
  00117	e8 00 00 00 00	 call	 __EH_epilog3
  0011c	c3		 ret	 0
_TEXT	ENDS
;	COMDAT text$x
text$x	SEGMENT
__unwindfunclet$??0RouletteWnd@@QAE@XZ$0:
  00000	8b 4d f0	 mov	 ecx, DWORD PTR _this$[ebp]
  00003	ff 25 00 00 00
	00		 jmp	 DWORD PTR __imp_??1ioMovingWnd@@UAE@XZ
__unwindfunclet$??0RouletteWnd@@QAE@XZ$1:
  00009	8b 4d f0	 mov	 ecx, DWORD PTR _this$[ebp]
  0000c	81 c1 94 01 00
	00		 add	 ecx, 404		; 00000194H
  00012	e9 00 00 00 00	 jmp	 ??1?$vector@UUIEffectAniInfo@RouletteWnd@@V?$allocator@UUIEffectAniInfo@RouletteWnd@@@std@@@std@@QAE@XZ ; std::vector<RouletteWnd::UIEffectAniInfo,std::allocator<RouletteWnd::UIEffectAniInfo> >::~vector<RouletteWnd::UIEffectAniInfo,std::allocator<RouletteWnd::UIEffectAniInfo> >
__unwindfunclet$??0RouletteWnd@@QAE@XZ$2:
  00017	8b 4d f0	 mov	 ecx, DWORD PTR _this$[ebp]
  0001a	81 c1 fc 01 00
	00		 add	 ecx, 508		; 000001fcH
  00020	e9 00 00 00 00	 jmp	 ??1?$vector@VioHashString@@V?$allocator@VioHashString@@@std@@@std@@QAE@XZ ; std::vector<ioHashString,std::allocator<ioHashString> >::~vector<ioHashString,std::allocator<ioHashString> >
__ehhandler$??0RouletteWnd@@QAE@XZ:
  00025	8b 54 24 08	 mov	 edx, DWORD PTR [esp+8]
  00029	8d 42 0c	 lea	 eax, DWORD PTR [edx+12]
  0002c	8b 4a e8	 mov	 ecx, DWORD PTR [edx-24]
  0002f	33 c8		 xor	 ecx, eax
  00031	e8 00 00 00 00	 call	 @__security_check_cookie@4
  00036	b8 00 00 00 00	 mov	 eax, OFFSET __ehfuncinfo$??0RouletteWnd@@QAE@XZ
  0003b	e9 00 00 00 00	 jmp	 ___CxxFrameHandler3
text$x	ENDS
??0RouletteWnd@@QAE@XZ ENDP				; RouletteWnd::RouletteWnd
PUBLIC	??1RouletteWnd@@UAE@XZ				; RouletteWnd::~RouletteWnd
;	COMDAT xdata$x
; File c:\program files (x86)\microsoft visual studio 10.0\vc\include\vector
xdata$x	SEGMENT
__unwindtable$??1RouletteWnd@@UAE@XZ DD 0ffffffffH
	DD	FLAT:__unwindfunclet$??1RouletteWnd@@UAE@XZ$0
	DD	00H
	DD	FLAT:__unwindfunclet$??1RouletteWnd@@UAE@XZ$1
	DD	01H
	DD	FLAT:__unwindfunclet$??1RouletteWnd@@UAE@XZ$2
__ehfuncinfo$??1RouletteWnd@@UAE@XZ DD 019930522H
	DD	03H
	DD	FLAT:__unwindtable$??1RouletteWnd@@UAE@XZ
	DD	2 DUP(00H)
	DD	2 DUP(00H)
	DD	00H
	DD	01H
; Function compile flags: /Ogsp
; File d:\lost saga for developer\youtube\tutorial\source\src\lsclient\gui\roulettewnd.cpp
xdata$x	ENDS
;	COMDAT ??1RouletteWnd@@UAE@XZ
_TEXT	SEGMENT
_this$ = -20						; size = 4
tv237 = -16						; size = 4
__$EHRec$ = -12						; size = 12
??1RouletteWnd@@UAE@XZ PROC				; RouletteWnd::~RouletteWnd, COMDAT
; _this$ = ecx

; 66   : {

  00000	6a 08		 push	 8
  00002	b8 00 00 00 00	 mov	 eax, __ehhandler$??1RouletteWnd@@UAE@XZ
  00007	e8 00 00 00 00	 call	 __EH_prolog3
  0000c	8b f1		 mov	 esi, ecx
  0000e	89 75 ec	 mov	 DWORD PTR _this$[ebp], esi
  00011	c7 06 00 00 00
	00		 mov	 DWORD PTR [esi], OFFSET ??_7RouletteWnd@@6B@

; 67   : 	SAFEDELETE( m_pRouletteHelpBg );

  00017	8b 8e a4 01 00
	00		 mov	 ecx, DWORD PTR [esi+420]
  0001d	33 db		 xor	 ebx, ebx
  0001f	c7 45 fc 02 00
	00 00		 mov	 DWORD PTR __$EHRec$[ebp+8], 2
  00026	3b cb		 cmp	 ecx, ebx
  00028	74 0d		 je	 SHORT $LN20@RouletteWn@2
  0002a	8b 01		 mov	 eax, DWORD PTR [ecx]
  0002c	6a 01		 push	 1
  0002e	ff 50 40	 call	 DWORD PTR [eax+64]
  00031	89 9e a4 01 00
	00		 mov	 DWORD PTR [esi+420], ebx
$LN20@RouletteWn@2:

; 68   : 	SAFEDELETE( m_pTextBg );

  00037	8b 8e a8 01 00
	00		 mov	 ecx, DWORD PTR [esi+424]
  0003d	3b cb		 cmp	 ecx, ebx
  0003f	74 0d		 je	 SHORT $LN19@RouletteWn@2
  00041	8b 01		 mov	 eax, DWORD PTR [ecx]
  00043	6a 01		 push	 1
  00045	ff 50 40	 call	 DWORD PTR [eax+64]
  00048	89 9e a8 01 00
	00		 mov	 DWORD PTR [esi+424], ebx
$LN19@RouletteWn@2:

; 69   : 
; 70   : 	SAFEDELETE( m_pTextTitle );

  0004e	8b 8e b0 01 00
	00		 mov	 ecx, DWORD PTR [esi+432]
  00054	3b cb		 cmp	 ecx, ebx
  00056	74 0d		 je	 SHORT $LN18@RouletteWn@2
  00058	8b 01		 mov	 eax, DWORD PTR [ecx]
  0005a	6a 01		 push	 1
  0005c	ff 50 40	 call	 DWORD PTR [eax+64]
  0005f	89 9e b0 01 00
	00		 mov	 DWORD PTR [esi+432], ebx
$LN18@RouletteWn@2:

; 71   : 	SAFEDELETE( m_pTextEnableJoin );

  00065	8b 8e b4 01 00
	00		 mov	 ecx, DWORD PTR [esi+436]
  0006b	3b cb		 cmp	 ecx, ebx
  0006d	74 0d		 je	 SHORT $LN17@RouletteWn@2
  0006f	8b 01		 mov	 eax, DWORD PTR [ecx]
  00071	6a 01		 push	 1
  00073	ff 50 40	 call	 DWORD PTR [eax+64]
  00076	89 9e b4 01 00
	00		 mov	 DWORD PTR [esi+436], ebx
$LN17@RouletteWn@2:

; 72   : 	SAFEDELETE( m_pTextJoin );

  0007c	8b 8e b8 01 00
	00		 mov	 ecx, DWORD PTR [esi+440]
  00082	3b cb		 cmp	 ecx, ebx
  00084	74 0d		 je	 SHORT $LN16@RouletteWn@2
  00086	8b 01		 mov	 eax, DWORD PTR [ecx]
  00088	6a 01		 push	 1
  0008a	ff 50 40	 call	 DWORD PTR [eax+64]
  0008d	89 9e b8 01 00
	00		 mov	 DWORD PTR [esi+440], ebx
$LN16@RouletteWn@2:

; 73   : 	SAFEDELETE( m_pTextEnd );

  00093	8b 8e bc 01 00
	00		 mov	 ecx, DWORD PTR [esi+444]
  00099	3b cb		 cmp	 ecx, ebx
  0009b	74 0d		 je	 SHORT $LN15@RouletteWn@2
  0009d	8b 01		 mov	 eax, DWORD PTR [ecx]
  0009f	6a 01		 push	 1
  000a1	ff 50 40	 call	 DWORD PTR [eax+64]
  000a4	89 9e bc 01 00
	00		 mov	 DWORD PTR [esi+444], ebx
$LN15@RouletteWn@2:

; 74   : 	SAFEDELETE( m_pTextEndSec );

  000aa	8b 8e c0 01 00
	00		 mov	 ecx, DWORD PTR [esi+448]
  000b0	3b cb		 cmp	 ecx, ebx
  000b2	74 0d		 je	 SHORT $LN14@RouletteWn@2
  000b4	8b 01		 mov	 eax, DWORD PTR [ecx]
  000b6	6a 01		 push	 1
  000b8	ff 50 40	 call	 DWORD PTR [eax+64]
  000bb	89 9e c0 01 00
	00		 mov	 DWORD PTR [esi+448], ebx
$LN14@RouletteWn@2:

; 75   : 	SAFEDELETE( m_pTextEndNum );

  000c1	8b 8e c4 01 00
	00		 mov	 ecx, DWORD PTR [esi+452]
  000c7	3b cb		 cmp	 ecx, ebx
  000c9	74 0d		 je	 SHORT $LN13@RouletteWn@2
  000cb	8b 01		 mov	 eax, DWORD PTR [ecx]
  000cd	6a 01		 push	 1
  000cf	ff 50 40	 call	 DWORD PTR [eax+64]
  000d2	89 9e c4 01 00
	00		 mov	 DWORD PTR [esi+452], ebx
$LN13@RouletteWn@2:

; 76   : 	SAFEDELETE( m_pTextPresent );

  000d8	8b 8e c8 01 00
	00		 mov	 ecx, DWORD PTR [esi+456]
  000de	3b cb		 cmp	 ecx, ebx
  000e0	74 0d		 je	 SHORT $LN12@RouletteWn@2
  000e2	8b 01		 mov	 eax, DWORD PTR [ecx]
  000e4	6a 01		 push	 1
  000e6	ff 50 40	 call	 DWORD PTR [eax+64]
  000e9	89 9e c8 01 00
	00		 mov	 DWORD PTR [esi+456], ebx
$LN12@RouletteWn@2:

; 77   : 
; 78   : 	for( int i=0; i<3; ++i )

  000ef	8d be d8 01 00
	00		 lea	 edi, DWORD PTR [esi+472]
  000f5	c7 45 f0 03 00
	00 00		 mov	 DWORD PTR tv237[ebp], 3
$LL11@RouletteWn@2:

; 79   : 	{
; 80   : 		SAFEDELETE( m_pTextReward[i] );

  000fc	8b 4f f4	 mov	 ecx, DWORD PTR [edi-12]
  000ff	3b cb		 cmp	 ecx, ebx
  00101	74 0a		 je	 SHORT $LN8@RouletteWn@2
  00103	8b 01		 mov	 eax, DWORD PTR [ecx]
  00105	6a 01		 push	 1
  00107	ff 50 40	 call	 DWORD PTR [eax+64]
  0010a	89 5f f4	 mov	 DWORD PTR [edi-12], ebx
$LN8@RouletteWn@2:

; 81   : 		SAFEDELETE( m_pTextRewardBg[i] );

  0010d	8b 0f		 mov	 ecx, DWORD PTR [edi]
  0010f	3b cb		 cmp	 ecx, ebx
  00111	74 09		 je	 SHORT $LN10@RouletteWn@2
  00113	8b 01		 mov	 eax, DWORD PTR [ecx]
  00115	6a 01		 push	 1
  00117	ff 50 40	 call	 DWORD PTR [eax+64]
  0011a	89 1f		 mov	 DWORD PTR [edi], ebx
$LN10@RouletteWn@2:

; 77   : 
; 78   : 	for( int i=0; i<3; ++i )

  0011c	83 c7 04	 add	 edi, 4
  0011f	ff 4d f0	 dec	 DWORD PTR tv237[ebp]
  00122	75 d8		 jne	 SHORT $LL11@RouletteWn@2

; 82   : 	}
; 83   : 
; 84   : 	SAFEDELETE( m_pUpperCoupon );

  00124	8b 8e e4 01 00
	00		 mov	 ecx, DWORD PTR [esi+484]
  0012a	3b cb		 cmp	 ecx, ebx
  0012c	74 0d		 je	 SHORT $LN6@RouletteWn@2
  0012e	8b 01		 mov	 eax, DWORD PTR [ecx]
  00130	6a 01		 push	 1
  00132	ff 50 40	 call	 DWORD PTR [eax+64]
  00135	89 9e e4 01 00
	00		 mov	 DWORD PTR [esi+484], ebx
$LN6@RouletteWn@2:

; 85   : 	SAFEDELETE( m_pUpperCouponNumber );

  0013b	8b 8e e8 01 00
	00		 mov	 ecx, DWORD PTR [esi+488]
  00141	3b cb		 cmp	 ecx, ebx
  00143	74 0d		 je	 SHORT $LN5@RouletteWn@2
  00145	8b 01		 mov	 eax, DWORD PTR [ecx]
  00147	6a 01		 push	 1
  00149	ff 50 40	 call	 DWORD PTR [eax+64]
  0014c	89 9e e8 01 00
	00		 mov	 DWORD PTR [esi+488], ebx
$LN5@RouletteWn@2:

; 86   : 
; 87   : 	SAFEDELETE( m_pUnderJoin );

  00152	8b 8e ec 01 00
	00		 mov	 ecx, DWORD PTR [esi+492]
  00158	3b cb		 cmp	 ecx, ebx
  0015a	74 0d		 je	 SHORT $LN4@RouletteWn@2
  0015c	8b 01		 mov	 eax, DWORD PTR [ecx]
  0015e	6a 01		 push	 1
  00160	ff 50 40	 call	 DWORD PTR [eax+64]
  00163	89 9e ec 01 00
	00		 mov	 DWORD PTR [esi+492], ebx
$LN4@RouletteWn@2:

; 88   : 	SAFEDELETE( m_pUnderCount );

  00169	8b 8e f0 01 00
	00		 mov	 ecx, DWORD PTR [esi+496]
  0016f	3b cb		 cmp	 ecx, ebx
  00171	74 0d		 je	 SHORT $LN3@RouletteWn@2
  00173	8b 01		 mov	 eax, DWORD PTR [ecx]
  00175	6a 01		 push	 1
  00177	ff 50 40	 call	 DWORD PTR [eax+64]
  0017a	89 9e f0 01 00
	00		 mov	 DWORD PTR [esi+496], ebx
$LN3@RouletteWn@2:

; 89   : 
; 90   : 	SAFEDELETE( m_pArrow );

  00180	8b 8e f4 01 00
	00		 mov	 ecx, DWORD PTR [esi+500]
  00186	3b cb		 cmp	 ecx, ebx
  00188	74 0d		 je	 SHORT $LN2@RouletteWn@2
  0018a	8b 01		 mov	 eax, DWORD PTR [ecx]
  0018c	6a 01		 push	 1
  0018e	ff 50 40	 call	 DWORD PTR [eax+64]
  00191	89 9e f4 01 00
	00		 mov	 DWORD PTR [esi+500], ebx
$LN2@RouletteWn@2:

; 91   : 
; 92   : 	SAFEDELETE( m_pWheelQuad );

  00197	8b 8e f8 01 00
	00		 mov	 ecx, DWORD PTR [esi+504]
  0019d	3b cb		 cmp	 ecx, ebx
  0019f	74 0c		 je	 SHORT $LN1@RouletteWn@2
  001a1	8b 01		 mov	 eax, DWORD PTR [ecx]
  001a3	6a 01		 push	 1
  001a5	ff 10		 call	 DWORD PTR [eax]
  001a7	89 9e f8 01 00
	00		 mov	 DWORD PTR [esi+504], ebx
$LN1@RouletteWn@2:

; 93   : }

  001ad	8d 8e fc 01 00
	00		 lea	 ecx, DWORD PTR [esi+508]
  001b3	c6 45 fc 01	 mov	 BYTE PTR __$EHRec$[ebp+8], 1
  001b7	e8 00 00 00 00	 call	 ?_Tidy@?$vector@VioHashString@@V?$allocator@VioHashString@@@std@@@std@@IAEXXZ ; std::vector<ioHashString,std::allocator<ioHashString> >::_Tidy
  001bc	8d 8e 94 01 00
	00		 lea	 ecx, DWORD PTR [esi+404]
  001c2	88 5d fc	 mov	 BYTE PTR __$EHRec$[ebp+8], bl
  001c5	e8 00 00 00 00	 call	 ?_Tidy@?$vector@UUIEffectAniInfo@RouletteWnd@@V?$allocator@UUIEffectAniInfo@RouletteWnd@@@std@@@std@@IAEXXZ ; std::vector<RouletteWnd::UIEffectAniInfo,std::allocator<RouletteWnd::UIEffectAniInfo> >::_Tidy
  001ca	83 4d fc ff	 or	 DWORD PTR __$EHRec$[ebp+8], -1
  001ce	8b ce		 mov	 ecx, esi
  001d0	ff 15 00 00 00
	00		 call	 DWORD PTR __imp_??1ioMovingWnd@@UAE@XZ
  001d6	e8 00 00 00 00	 call	 __EH_epilog3
  001db	c3		 ret	 0
_TEXT	ENDS
;	COMDAT text$x
text$x	SEGMENT
__unwindfunclet$??1RouletteWnd@@UAE@XZ$0:
  00000	8b 4d ec	 mov	 ecx, DWORD PTR _this$[ebp]
  00003	ff 25 00 00 00
	00		 jmp	 DWORD PTR __imp_??1ioMovingWnd@@UAE@XZ
__unwindfunclet$??1RouletteWnd@@UAE@XZ$1:
  00009	8b 4d ec	 mov	 ecx, DWORD PTR _this$[ebp]
  0000c	81 c1 94 01 00
	00		 add	 ecx, 404		; 00000194H
  00012	e9 00 00 00 00	 jmp	 ??1?$vector@UUIEffectAniInfo@RouletteWnd@@V?$allocator@UUIEffectAniInfo@RouletteWnd@@@std@@@std@@QAE@XZ ; std::vector<RouletteWnd::UIEffectAniInfo,std::allocator<RouletteWnd::UIEffectAniInfo> >::~vector<RouletteWnd::UIEffectAniInfo,std::allocator<RouletteWnd::UIEffectAniInfo> >
__unwindfunclet$??1RouletteWnd@@UAE@XZ$2:
  00017	8b 4d ec	 mov	 ecx, DWORD PTR _this$[ebp]
  0001a	81 c1 fc 01 00
	00		 add	 ecx, 508		; 000001fcH
  00020	e9 00 00 00 00	 jmp	 ??1?$vector@VioHashString@@V?$allocator@VioHashString@@@std@@@std@@QAE@XZ ; std::vector<ioHashString,std::allocator<ioHashString> >::~vector<ioHashString,std::allocator<ioHashString> >
__ehhandler$??1RouletteWnd@@UAE@XZ:
  00025	8b 54 24 08	 mov	 edx, DWORD PTR [esp+8]
  00029	8d 42 0c	 lea	 eax, DWORD PTR [edx+12]
  0002c	8b 4a e8	 mov	 ecx, DWORD PTR [edx-24]
  0002f	33 c8		 xor	 ecx, eax
  00031	e8 00 00 00 00	 call	 @__security_check_cookie@4
  00036	b8 00 00 00 00	 mov	 eax, OFFSET __ehfuncinfo$??1RouletteWnd@@UAE@XZ
  0003b	e9 00 00 00 00	 jmp	 ___CxxFrameHandler3
text$x	ENDS
??1RouletteWnd@@UAE@XZ ENDP				; RouletteWnd::~RouletteWnd
EXTRN	?InitResource@io2DRotateQuad@@QAEXV?$vector@VioHashString@@V?$allocator@VioHashString@@@std@@@std@@@Z:PROC ; io2DRotateQuad::InitResource
EXTRN	??0io2DRotateQuad@@QAE@XZ:PROC			; io2DRotateQuad::io2DRotateQuad
;	COMDAT xdata$x
xdata$x	SEGMENT
__unwindtable$?iwm_create@RouletteWnd@@UAEXXZ DD 0ffffffffH
	DD	FLAT:__unwindfunclet$?iwm_create@RouletteWnd@@UAEXXZ$0
__ehfuncinfo$?iwm_create@RouletteWnd@@UAEXXZ DD 019930522H
	DD	01H
	DD	FLAT:__unwindtable$?iwm_create@RouletteWnd@@UAEXXZ
	DD	2 DUP(00H)
	DD	2 DUP(00H)
	DD	00H
	DD	01H
; Function compile flags: /Ogsp
xdata$x	ENDS
;	COMDAT ?iwm_create@RouletteWnd@@UAEXXZ
_TEXT	SEGMENT
$T515128 = -16						; size = 4
$T515125 = -16						; size = 4
__$EHRec$ = -12						; size = 12
?iwm_create@RouletteWnd@@UAEXXZ PROC			; RouletteWnd::iwm_create, COMDAT
; _this$ = ecx

; 238  : {

  00000	6a 04		 push	 4
  00002	b8 00 00 00 00	 mov	 eax, __ehhandler$?iwm_create@RouletteWnd@@UAEXXZ
  00007	e8 00 00 00 00	 call	 __EH_prolog3
  0000c	8b f1		 mov	 esi, ecx

; 239  : 	m_pWheelQuad = new io2DRotateQuad;

  0000e	6a 34		 push	 52			; 00000034H
  00010	e8 00 00 00 00	 call	 ??2@YAPAXI@Z		; operator new
  00015	59		 pop	 ecx
  00016	8b c8		 mov	 ecx, eax
  00018	89 4d f0	 mov	 DWORD PTR $T515125[ebp], ecx
  0001b	83 65 fc 00	 and	 DWORD PTR __$EHRec$[ebp+8], 0
  0001f	85 c9		 test	 ecx, ecx
  00021	74 07		 je	 SHORT $LN5@iwm_create
  00023	e8 00 00 00 00	 call	 ??0io2DRotateQuad@@QAE@XZ ; io2DRotateQuad::io2DRotateQuad
  00028	eb 02		 jmp	 SHORT $LN6@iwm_create
$LN5@iwm_create:
  0002a	33 c0		 xor	 eax, eax
$LN6@iwm_create:
  0002c	83 4d fc ff	 or	 DWORD PTR __$EHRec$[ebp+8], -1
  00030	89 86 f8 01 00
	00		 mov	 DWORD PTR [esi+504], eax

; 240  : 	if( m_pWheelQuad )

  00036	85 c0		 test	 eax, eax
  00038	74 1f		 je	 SHORT $LN2@iwm_create

; 241  : 		m_pWheelQuad->InitResource( m_vRouletteTexName );

  0003a	83 ec 10	 sub	 esp, 16			; 00000010H
  0003d	8d 86 fc 01 00
	00		 lea	 eax, DWORD PTR [esi+508]
  00043	8b cc		 mov	 ecx, esp
  00045	89 65 f0	 mov	 DWORD PTR $T515128[ebp], esp
  00048	50		 push	 eax
  00049	e8 00 00 00 00	 call	 ??0?$vector@VioHashString@@V?$allocator@VioHashString@@@std@@@std@@QAE@ABV01@@Z ; std::vector<ioHashString,std::allocator<ioHashString> >::vector<ioHashString,std::allocator<ioHashString> >
  0004e	8b 8e f8 01 00
	00		 mov	 ecx, DWORD PTR [esi+504]
  00054	e8 00 00 00 00	 call	 ?InitResource@io2DRotateQuad@@QAEXV?$vector@VioHashString@@V?$allocator@VioHashString@@@std@@@std@@@Z ; io2DRotateQuad::InitResource
$LN2@iwm_create:

; 242  : 
; 243  : 	if( m_bPosToDefualt )

  00059	80 3d 00 00 00
	00 00		 cmp	 BYTE PTR ?m_bPosToDefualt@RouletteWnd@@1_NA, 0 ; RouletteWnd::m_bPosToDefualt
  00060	74 1e		 je	 SHORT $LN1@iwm_create

; 244  : 	{
; 245  : 		m_bPosToDefualt = false;
; 246  : 		SetPositionToDefault( Setting::Width(), Setting::Height(), true );

  00062	6a 00		 push	 0
  00064	c6 05 00 00 00
	00 00		 mov	 BYTE PTR ?m_bPosToDefualt@RouletteWnd@@1_NA, 0 ; RouletteWnd::m_bPosToDefualt
  0006b	8b 3e		 mov	 edi, DWORD PTR [esi]
  0006d	6a 01		 push	 1
  0006f	e8 00 00 00 00	 call	 ?Height@Setting@@SAHXZ	; Setting::Height
  00074	50		 push	 eax
  00075	e8 00 00 00 00	 call	 ?Width@Setting@@SAHXZ	; Setting::Width
  0007a	50		 push	 eax
  0007b	8b ce		 mov	 ecx, esi
  0007d	ff 57 30	 call	 DWORD PTR [edi+48]
$LN1@iwm_create:

; 247  : 	}
; 248  : }

  00080	e8 00 00 00 00	 call	 __EH_epilog3
  00085	c3		 ret	 0
_TEXT	ENDS
;	COMDAT text$x
text$x	SEGMENT
__unwindfunclet$?iwm_create@RouletteWnd@@UAEXXZ$0:
  00000	ff 75 f0	 push	 DWORD PTR $T515125[ebp]
  00003	e8 00 00 00 00	 call	 ??3@YAXPAX@Z		; operator delete
  00008	59		 pop	 ecx
  00009	c3		 ret	 0
__ehhandler$?iwm_create@RouletteWnd@@UAEXXZ:
  0000a	8b 54 24 08	 mov	 edx, DWORD PTR [esp+8]
  0000e	8d 42 0c	 lea	 eax, DWORD PTR [edx+12]
  00011	8b 4a ec	 mov	 ecx, DWORD PTR [edx-20]
  00014	33 c8		 xor	 ecx, eax
  00016	e8 00 00 00 00	 call	 @__security_check_cookie@4
  0001b	b8 00 00 00 00	 mov	 eax, OFFSET __ehfuncinfo$?iwm_create@RouletteWnd@@UAEXXZ
  00020	e9 00 00 00 00	 jmp	 ___CxxFrameHandler3
text$x	ENDS
?iwm_create@RouletteWnd@@UAEXXZ ENDP			; RouletteWnd::iwm_create
PUBLIC	__real@40000000
PUBLIC	?SetUIEffect@RouletteWnd@@IAEXPAVioUIRenderImage@@HHH@Z ; RouletteWnd::SetUIEffect
;	COMDAT __real@40000000
CONST	SEGMENT
__real@40000000 DD 040000000r			; 2
; Function compile flags: /Ogsp
CONST	ENDS
;	COMDAT ?SetUIEffect@RouletteWnd@@IAEXPAVioUIRenderImage@@HHH@Z
_TEXT	SEGMENT
_kInfo$ = -32						; size = 32
_pImage$ = 8						; size = 4
_x$ = 12						; size = 4
_y$ = 16						; size = 4
_iNum$ = 20						; size = 4
?SetUIEffect@RouletteWnd@@IAEXPAVioUIRenderImage@@HHH@Z PROC ; RouletteWnd::SetUIEffect, COMDAT
; _this$ = ecx

; 713  : {

  00000	55		 push	 ebp
  00001	8b ec		 mov	 ebp, esp
  00003	83 ec 20	 sub	 esp, 32			; 00000020H
  00006	53		 push	 ebx

; 714  : 	if( !pImage )

  00007	8b 5d 08	 mov	 ebx, DWORD PTR _pImage$[ebp]
  0000a	57		 push	 edi
  0000b	8b f9		 mov	 edi, ecx
  0000d	85 db		 test	 ebx, ebx
  0000f	74 61		 je	 SHORT $LN3@SetUIEffec

; 715  : 		return;
; 716  : 
; 717  : 	int iXPos = 0;

  00011	56		 push	 esi
  00012	33 f6		 xor	 esi, esi

; 718  : 	int iYPos = 0;

  00014	33 c0		 xor	 eax, eax

; 719  : 	if( iNum != -1 )

  00016	83 7d 14 ff	 cmp	 DWORD PTR _iNum$[ebp], -1
  0001a	74 22		 je	 SHORT $LN1@SetUIEffec

; 720  : 	{
; 721  : 		iXPos = pImage->GetWidth() / 10 / 2;

  0001c	8b cb		 mov	 ecx, ebx
  0001e	ff 15 00 00 00
	00		 call	 DWORD PTR __imp_?GetWidth@ioUIRenderElement@@QBEHXZ
  00024	99		 cdq
  00025	6a 0a		 push	 10			; 0000000aH
  00027	59		 pop	 ecx
  00028	f7 f9		 idiv	 ecx

; 722  : 		iYPos = pImage->GetHeight() / 2;

  0002a	8b cb		 mov	 ecx, ebx
  0002c	99		 cdq
  0002d	2b c2		 sub	 eax, edx
  0002f	8b f0		 mov	 esi, eax
  00031	d1 fe		 sar	 esi, 1
  00033	ff 15 00 00 00
	00		 call	 DWORD PTR __imp_?GetHeight@ioUIRenderElement@@QBEHXZ
  00039	99		 cdq
  0003a	2b c2		 sub	 eax, edx
  0003c	d1 f8		 sar	 eax, 1
$LN1@SetUIEffec:

; 723  : 	}
; 724  : 
; 725  : 	UIEffectAniInfo kInfo( pImage, x + iXPos, y + iYPos, iNum );

  0003e	f3 0f 10 05 00
	00 00 00	 movss	 xmm0, DWORD PTR __real@40000000
  00046	03 45 10	 add	 eax, DWORD PTR _y$[ebp]
  00049	03 75 0c	 add	 esi, DWORD PTR _x$[ebp]
  0004c	51		 push	 ecx
  0004d	f3 0f 11 04 24	 movss	 DWORD PTR [esp], xmm0
  00052	6a 00		 push	 0
  00054	ff 75 14	 push	 DWORD PTR _iNum$[ebp]
  00057	8d 4d e0	 lea	 ecx, DWORD PTR _kInfo$[ebp]
  0005a	50		 push	 eax
  0005b	56		 push	 esi
  0005c	53		 push	 ebx
  0005d	e8 00 00 00 00	 call	 ??0UIEffectAniInfo@RouletteWnd@@QAE@PAVioUIRenderImage@@HHHHM@Z ; RouletteWnd::UIEffectAniInfo::UIEffectAniInfo

; 726  : 	m_UIEffectList.push_back( kInfo );

  00062	8d 45 e0	 lea	 eax, DWORD PTR _kInfo$[ebp]
  00065	50		 push	 eax
  00066	8d 8f 94 01 00
	00		 lea	 ecx, DWORD PTR [edi+404]
  0006c	e8 00 00 00 00	 call	 ?push_back@?$vector@UUIEffectAniInfo@RouletteWnd@@V?$allocator@UUIEffectAniInfo@RouletteWnd@@@std@@@std@@QAEXABUUIEffectAniInfo@RouletteWnd@@@Z ; std::vector<RouletteWnd::UIEffectAniInfo,std::allocator<RouletteWnd::UIEffectAniInfo> >::push_back
  00071	5e		 pop	 esi
$LN3@SetUIEffec:
  00072	5f		 pop	 edi
  00073	5b		 pop	 ebx

; 727  : }

  00074	c9		 leave
  00075	c2 10 00	 ret	 16			; 00000010H
?SetUIEffect@RouletteWnd@@IAEXPAVioUIRenderImage@@HHH@Z ENDP ; RouletteWnd::SetUIEffect
_TEXT	ENDS
PUBLIC	?push_back@?$vector@VioHashString@@V?$allocator@VioHashString@@@std@@@std@@QAEXABVioHashString@@@Z ; std::vector<ioHashString,std::allocator<ioHashString> >::push_back
; Function compile flags: /Ogsp
; File c:\program files (x86)\microsoft visual studio 10.0\vc\include\vector
;	COMDAT ?push_back@?$vector@VioHashString@@V?$allocator@VioHashString@@@std@@@std@@QAEXABVioHashString@@@Z
_TEXT	SEGMENT
__Val$ = 8						; size = 4
?push_back@?$vector@VioHashString@@V?$allocator@VioHashString@@@std@@@std@@QAEXABVioHashString@@@Z PROC ; std::vector<ioHashString,std::allocator<ioHashString> >::push_back, COMDAT
; _this$ = ecx

; 976  : 		{	// insert element at end

  00000	55		 push	 ebp
  00001	8b ec		 mov	 ebp, esp
  00003	56		 push	 esi
  00004	8b f1		 mov	 esi, ecx

; 977  : 		if (_Inside(_STD addressof(_Val)))

  00006	8b 46 04	 mov	 eax, DWORD PTR [esi+4]
  00009	57		 push	 edi
  0000a	8b 7d 08	 mov	 edi, DWORD PTR __Val$[ebp]
  0000d	3b f8		 cmp	 edi, eax
  0000f	73 29		 jae	 SHORT $LN4@push_back@2
  00011	8b 0e		 mov	 ecx, DWORD PTR [esi]
  00013	3b cf		 cmp	 ecx, edi
  00015	77 23		 ja	 SHORT $LN4@push_back@2

; 978  : 			{	// push back an element
; 979  : 			size_type _Idx = _STD addressof(_Val) - this->_Myfirst;

  00017	2b f9		 sub	 edi, ecx

; 980  : 			if (this->_Mylast == this->_Myend)

  00019	3b 46 08	 cmp	 eax, DWORD PTR [esi+8]
  0001c	75 09		 jne	 SHORT $LN3@push_back@2

; 981  : 				_Reserve(1);

  0001e	6a 01		 push	 1
  00020	8b ce		 mov	 ecx, esi
  00022	e8 00 00 00 00	 call	 ?_Reserve@?$vector@VioHashString@@V?$allocator@VioHashString@@@std@@@std@@IAEXI@Z ; std::vector<ioHashString,std::allocator<ioHashString> >::_Reserve
$LN3@push_back@2:

; 982  : 			_Orphan_range(this->_Mylast, this->_Mylast);
; 983  : 			_Cons_val(this->_Alval,
; 984  : 				this->_Mylast,
; 985  : 				this->_Myfirst[_Idx]);

  00027	83 e7 f0	 and	 edi, -16		; fffffff0H
  0002a	03 3e		 add	 edi, DWORD PTR [esi]
  0002c	8d 4e 0c	 lea	 ecx, DWORD PTR [esi+12]
  0002f	57		 push	 edi
  00030	ff 76 04	 push	 DWORD PTR [esi+4]
  00033	e8 00 00 00 00	 call	 ??$construct@AAVioHashString@@@?$allocator@VioHashString@@@std@@QAEXPAVioHashString@@AAV2@@Z ; std::allocator<ioHashString>::construct<ioHashString &>

; 986  : 			++this->_Mylast;
; 987  : 			}
; 988  : 		else

  00038	eb 19		 jmp	 SHORT $LN30@push_back@2
$LN4@push_back@2:

; 989  : 			{	// push back a non-element
; 990  : 			if (this->_Mylast == this->_Myend)

  0003a	3b 46 08	 cmp	 eax, DWORD PTR [esi+8]
  0003d	75 09		 jne	 SHORT $LN1@push_back@2

; 991  : 				_Reserve(1);

  0003f	6a 01		 push	 1
  00041	8b ce		 mov	 ecx, esi
  00043	e8 00 00 00 00	 call	 ?_Reserve@?$vector@VioHashString@@V?$allocator@VioHashString@@@std@@@std@@IAEXI@Z ; std::vector<ioHashString,std::allocator<ioHashString> >::_Reserve
$LN1@push_back@2:

; 992  : 			_Orphan_range(this->_Mylast, this->_Mylast);
; 993  : 			_Cons_val(this->_Alval,
; 994  : 				this->_Mylast,
; 995  : 				_Val);

  00048	57		 push	 edi
  00049	ff 76 04	 push	 DWORD PTR [esi+4]
  0004c	e8 00 00 00 00	 call	 ??$_Construct@VioHashString@@ABV1@@std@@YAXPAVioHashString@@ABV1@@Z ; std::_Construct<ioHashString,ioHashString const &>
  00051	59		 pop	 ecx
  00052	59		 pop	 ecx
$LN30@push_back@2:

; 996  : 			++this->_Mylast;

  00053	83 46 04 10	 add	 DWORD PTR [esi+4], 16	; 00000010H
  00057	5f		 pop	 edi
  00058	5e		 pop	 esi

; 997  : 			}
; 998  : 		}

  00059	5d		 pop	 ebp
  0005a	c2 04 00	 ret	 4
?push_back@?$vector@VioHashString@@V?$allocator@VioHashString@@@std@@@std@@QAEXABVioHashString@@@Z ENDP ; std::vector<ioHashString,std::allocator<ioHashString> >::push_back
; Function compile flags: /Ogsp
_TEXT	ENDS
;	COMDAT ??_GRouletteWnd@@UAEPAXI@Z
_TEXT	SEGMENT
___flags$ = 8						; size = 4
??_GRouletteWnd@@UAEPAXI@Z PROC				; RouletteWnd::`scalar deleting destructor', COMDAT
; _this$ = ecx
  00000	55		 push	 ebp
  00001	8b ec		 mov	 ebp, esp
  00003	56		 push	 esi
  00004	8b f1		 mov	 esi, ecx
  00006	e8 00 00 00 00	 call	 ??1RouletteWnd@@UAE@XZ	; RouletteWnd::~RouletteWnd
  0000b	f6 45 08 01	 test	 BYTE PTR ___flags$[ebp], 1
  0000f	74 07		 je	 SHORT $LN1@scalar@3
  00011	56		 push	 esi
  00012	e8 00 00 00 00	 call	 ??3@YAXPAX@Z		; operator delete
  00017	59		 pop	 ecx
$LN1@scalar@3:
  00018	8b c6		 mov	 eax, esi
  0001a	5e		 pop	 esi
  0001b	5d		 pop	 ebp
  0001c	c2 04 00	 ret	 4
??_GRouletteWnd@@UAEPAXI@Z ENDP				; RouletteWnd::`scalar deleting destructor'
_TEXT	ENDS
PUBLIC	_this$GSCopy$
EXTRN	__imp_??0ioHashString@@QAE@PBD@Z:PROC
EXTRN	__imp_?GetStringAttribute@ioXMLElement@@QBEPBDPBD@Z:PROC
EXTRN	__imp__wsprintfA:PROC
EXTRN	__EH_epilog3_GS:PROC
EXTRN	__EH_prolog3_GS:PROC
EXTRN	_memset:PROC
;	COMDAT xdata$x
; File d:\lost saga for developer\youtube\tutorial\source\src\lsclient\stringprotect.h
xdata$x	SEGMENT
__unwindtable$?ParseExtraInfo@RouletteWnd@@UAEXAAVioXMLElement@@@Z DD 0ffffffffH
	DD	FLAT:__unwindfunclet$?ParseExtraInfo@RouletteWnd@@UAEXAAVioXMLElement@@@Z$0
__ehfuncinfo$?ParseExtraInfo@RouletteWnd@@UAEXAAVioXMLElement@@@Z DD 019930522H
	DD	01H
	DD	FLAT:__unwindtable$?ParseExtraInfo@RouletteWnd@@UAEXAAVioXMLElement@@@Z
	DD	2 DUP(00H)
	DD	2 DUP(00H)
	DD	00H
	DD	01H
; Function compile flags: /Ogsp
; File d:\lost saga for developer\youtube\tutorial\source\src\lsclient\gui\roulettewnd.cpp
xdata$x	ENDS
;	COMDAT ?ParseExtraInfo@RouletteWnd@@UAEXAAVioXMLElement@@@Z
_TEXT	SEGMENT
_szRoulette$506334 = -336				; size = 16
_iSize$ = -320						; size = 4
tv1592 = -316						; size = 4
_this$GSCopy$ = -316					; size = 4
_szKey$ = -312						; size = 260
__k$515222 = -52					; size = 15
___encStr$506184 = -32					; size = 11
__$EHRec$ = -12						; size = 12
_xElement$ = 8						; size = 4
?ParseExtraInfo@RouletteWnd@@UAEXAAVioXMLElement@@@Z PROC ; RouletteWnd::ParseExtraInfo, COMDAT
; _this$ = ecx

; 202  : {

  00000	68 44 01 00 00	 push	 324			; 00000144H
  00005	b8 00 00 00 00	 mov	 eax, __ehhandler$?ParseExtraInfo@RouletteWnd@@UAEXAAVioXMLElement@@@Z
  0000a	e8 00 00 00 00	 call	 __EH_prolog3_GS
  0000f	8b 7d 08	 mov	 edi, DWORD PTR _xElement$[ebp]

; 203  : 	int iSize = xElement.GetIntAttribute_e( "Roulette_Count" );

  00012	33 db		 xor	 ebx, ebx
  00014	6a 03		 push	 3
  00016	89 8d c4 fe ff
	ff		 mov	 DWORD PTR _this$GSCopy$[ebp], ecx
  0001c	c7 45 cc bf 83
	9e 86		 mov	 DWORD PTR __k$515222[ebp], -2036431937 ; 869e83bfH
  00023	c7 45 d0 88 98
	9f 8f		 mov	 DWORD PTR __k$515222[ebp+4], -1885366136 ; 8f9f9888H
  0002a	c7 45 d4 b2 af
	84 9f		 mov	 DWORD PTR __k$515222[ebp+8], -1618694222 ; 9f84afb2H
  00031	66 c7 45 d8 83
	98		 mov	 WORD PTR __k$515222[ebp+12], 39043 ; 00009883H
  00037	8d 45 cc	 lea	 eax, DWORD PTR __k$515222[ebp]
  0003a	88 5d da	 mov	 BYTE PTR __k$515222[ebp+14], bl
  0003d	59		 pop	 ecx
$LL209@ParseExtra:
  0003e	81 30 ed ec eb
	ea		 xor	 DWORD PTR [eax], -353637139 ; eaebecedH
  00044	83 c0 04	 add	 eax, 4
  00047	49		 dec	 ecx
  00048	75 f4		 jne	 SHORT $LL209@ParseExtra
  0004a	6a 0c		 push	 12			; 0000000cH
  0004c	58		 pop	 eax
$LL206@ParseExtra:
  0004d	8b c8		 mov	 ecx, eax
  0004f	81 e1 03 00 00
	80		 and	 ecx, -2147483645	; 80000003H
  00055	79 05		 jns	 SHORT $LN231@ParseExtra
  00057	49		 dec	 ecx
  00058	83 c9 fc	 or	 ecx, -4			; fffffffcH
  0005b	41		 inc	 ecx
$LN231@ParseExtra:
  0005c	b2 ed		 mov	 dl, -19			; ffffffedH
  0005e	2a d1		 sub	 dl, cl
  00060	30 54 05 cc	 xor	 BYTE PTR __k$515222[ebp+eax], dl
  00064	40		 inc	 eax
  00065	83 f8 0e	 cmp	 eax, 14			; 0000000eH
  00068	7c e3		 jl	 SHORT $LL206@ParseExtra
  0006a	8d 45 cc	 lea	 eax, DWORD PTR __k$515222[ebp]
  0006d	50		 push	 eax
  0006e	8b cf		 mov	 ecx, edi
  00070	ff 15 00 00 00
	00		 call	 DWORD PTR __imp_?GetIntAttribute@ioXMLElement@@QBEHPBD@Z

; 204  : 	char szKey[MAX_PATH] = "";

  00076	68 03 01 00 00	 push	 259			; 00000103H
  0007b	89 85 c0 fe ff
	ff		 mov	 DWORD PTR _iSize$[ebp], eax
  00081	8d 85 c9 fe ff
	ff		 lea	 eax, DWORD PTR _szKey$[ebp+1]
  00087	53		 push	 ebx
  00088	50		 push	 eax
  00089	88 9d c8 fe ff
	ff		 mov	 BYTE PTR _szKey$[ebp], bl
  0008f	e8 00 00 00 00	 call	 _memset
  00094	83 c4 0c	 add	 esp, 12			; 0000000cH

; 205  : 	for( int i=0; i<iSize; ++i )

  00097	33 f6		 xor	 esi, esi
  00099	39 9d c0 fe ff
	ff		 cmp	 DWORD PTR _iSize$[ebp], ebx
  0009f	0f 8e bd 00 00
	00		 jle	 $LN100@ParseExtra
  000a5	8b 85 c4 fe ff
	ff		 mov	 eax, DWORD PTR _this$GSCopy$[ebp]
  000ab	05 fc 01 00 00	 add	 eax, 508		; 000001fcH
  000b0	89 85 c4 fe ff
	ff		 mov	 DWORD PTR tv1592[ebp], eax
$LL102@ParseExtra:

; 206  : 	{
; 207  : 		wsprintf_e( szKey, "Roulette%d", i+1 );

  000b6	6a 02		 push	 2
  000b8	c7 45 e0 bf 83
	9e 86		 mov	 DWORD PTR ___encStr$506184[ebp], -2036431937 ; 869e83bfH
  000bf	c7 45 e4 88 98
	9f 8f		 mov	 DWORD PTR ___encStr$506184[ebp+4], -1885366136 ; 8f9f9888H
  000c6	66 c7 45 e8 c8
	88		 mov	 WORD PTR ___encStr$506184[ebp+8], 35016 ; 000088c8H
  000cc	8d 45 e0	 lea	 eax, DWORD PTR ___encStr$506184[ebp]
  000cf	88 5d ea	 mov	 BYTE PTR ___encStr$506184[ebp+10], bl
  000d2	59		 pop	 ecx
$LL217@ParseExtra:
  000d3	81 30 ed ec eb
	ea		 xor	 DWORD PTR [eax], -353637139 ; eaebecedH
  000d9	83 c0 04	 add	 eax, 4
  000dc	49		 dec	 ecx
  000dd	75 f4		 jne	 SHORT $LL217@ParseExtra
  000df	6a 08		 push	 8
  000e1	58		 pop	 eax
$LL214@ParseExtra:
  000e2	8b c8		 mov	 ecx, eax
  000e4	81 e1 03 00 00
	80		 and	 ecx, -2147483645	; 80000003H
  000ea	79 05		 jns	 SHORT $LN232@ParseExtra
  000ec	49		 dec	 ecx
  000ed	83 c9 fc	 or	 ecx, -4			; fffffffcH
  000f0	41		 inc	 ecx
$LN232@ParseExtra:
  000f1	b2 ed		 mov	 dl, -19			; ffffffedH
  000f3	2a d1		 sub	 dl, cl
  000f5	30 54 05 e0	 xor	 BYTE PTR ___encStr$506184[ebp+eax], dl
  000f9	40		 inc	 eax
  000fa	83 f8 0a	 cmp	 eax, 10			; 0000000aH
  000fd	7c e3		 jl	 SHORT $LL214@ParseExtra
  000ff	46		 inc	 esi
  00100	56		 push	 esi
  00101	8d 45 e0	 lea	 eax, DWORD PTR ___encStr$506184[ebp]
  00104	50		 push	 eax
  00105	8d 85 c8 fe ff
	ff		 lea	 eax, DWORD PTR _szKey$[ebp]
  0010b	50		 push	 eax
  0010c	ff 15 00 00 00
	00		 call	 DWORD PTR __imp__wsprintfA
  00112	83 c4 0c	 add	 esp, 12			; 0000000cH

; 208  : 		ioHashString szRoulette = xElement.GetStringAttribute( szKey );

  00115	8d 85 c8 fe ff
	ff		 lea	 eax, DWORD PTR _szKey$[ebp]
  0011b	50		 push	 eax
  0011c	8b cf		 mov	 ecx, edi
  0011e	ff 15 00 00 00
	00		 call	 DWORD PTR __imp_?GetStringAttribute@ioXMLElement@@QBEPBDPBD@Z
  00124	50		 push	 eax
  00125	8d 8d b0 fe ff
	ff		 lea	 ecx, DWORD PTR _szRoulette$506334[ebp]
  0012b	ff 15 00 00 00
	00		 call	 DWORD PTR __imp_??0ioHashString@@QAE@PBD@Z

; 209  : 		m_vRouletteTexName.push_back( szRoulette );

  00131	8b 8d c4 fe ff
	ff		 mov	 ecx, DWORD PTR tv1592[ebp]
  00137	8d 85 b0 fe ff
	ff		 lea	 eax, DWORD PTR _szRoulette$506334[ebp]
  0013d	50		 push	 eax
  0013e	89 5d fc	 mov	 DWORD PTR __$EHRec$[ebp+8], ebx
  00141	e8 00 00 00 00	 call	 ?push_back@?$vector@VioHashString@@V?$allocator@VioHashString@@@std@@@std@@QAEXABVioHashString@@@Z ; std::vector<ioHashString,std::allocator<ioHashString> >::push_back

; 210  : 	}

  00146	83 4d fc ff	 or	 DWORD PTR __$EHRec$[ebp+8], -1
  0014a	8d 8d b0 fe ff
	ff		 lea	 ecx, DWORD PTR _szRoulette$506334[ebp]
  00150	ff 15 00 00 00
	00		 call	 DWORD PTR __imp_??1ioHashString@@QAE@XZ
  00156	3b b5 c0 fe ff
	ff		 cmp	 esi, DWORD PTR _iSize$[ebp]
  0015c	0f 8c 54 ff ff
	ff		 jl	 $LL102@ParseExtra
$LN100@ParseExtra:

; 211  : }

  00162	e8 00 00 00 00	 call	 __EH_epilog3_GS
  00167	c2 04 00	 ret	 4
_TEXT	ENDS
;	COMDAT text$x
text$x	SEGMENT
__unwindfunclet$?ParseExtraInfo@RouletteWnd@@UAEXAAVioXMLElement@@@Z$0:
  00000	8d 8d b0 fe ff
	ff		 lea	 ecx, DWORD PTR _szRoulette$506334[ebp]
  00006	ff 25 00 00 00
	00		 jmp	 DWORD PTR __imp_??1ioHashString@@QAE@XZ
__ehhandler$?ParseExtraInfo@RouletteWnd@@UAEXAAVioXMLElement@@@Z:
  0000c	8b 54 24 08	 mov	 edx, DWORD PTR [esp+8]
  00010	8d 42 0c	 lea	 eax, DWORD PTR [edx+12]
  00013	8b 8a ac fe ff
	ff		 mov	 ecx, DWORD PTR [edx-340]
  00019	33 c8		 xor	 ecx, eax
  0001b	e8 00 00 00 00	 call	 @__security_check_cookie@4
  00020	8b 4a fc	 mov	 ecx, DWORD PTR [edx-4]
  00023	33 c8		 xor	 ecx, eax
  00025	e8 00 00 00 00	 call	 @__security_check_cookie@4
  0002a	b8 00 00 00 00	 mov	 eax, OFFSET __ehfuncinfo$?ParseExtraInfo@RouletteWnd@@UAEXAAVioXMLElement@@@Z
  0002f	e9 00 00 00 00	 jmp	 ___CxxFrameHandler3
text$x	ENDS
?ParseExtraInfo@RouletteWnd@@UAEXAAVioXMLElement@@@Z ENDP ; RouletteWnd::ParseExtraInfo
PUBLIC	?RenderReward@RouletteWnd@@IAEXHH@Z		; RouletteWnd::RenderReward
EXTRN	?GetRewardRank@ioRouletteManager@@QAEHXZ:PROC	; ioRouletteManager::GetRewardRank
; Function compile flags: /Ogsp
;	COMDAT ?RenderReward@RouletteWnd@@IAEXHH@Z
_TEXT	SEGMENT
tv372 = -8						; size = 4
tv325 = -8						; size = 4
tv321 = -8						; size = 4
tv270 = -8						; size = 4
_iXOffset$ = -8						; size = 4
tv341 = -4						; size = 4
_pBgImage$ = -4						; size = 4
tv338 = 8						; size = 4
_iXPos$ = 8						; size = 4
tv368 = 12						; size = 4
_iYPos$ = 12						; size = 4
?RenderReward@RouletteWnd@@IAEXHH@Z PROC		; RouletteWnd::RenderReward, COMDAT
; _this$ = ecx

; 345  : {

  00000	55		 push	 ebp
  00001	8b ec		 mov	 ebp, esp
  00003	51		 push	 ecx
  00004	51		 push	 ecx
  00005	53		 push	 ebx
  00006	57		 push	 edi
  00007	8b f9		 mov	 edi, ecx

; 346  : 	enum { CENTER_X = 59 };
; 347  : 
; 348  : 	int iRank = g_RouletteMgr.GetRewardRank();

  00009	e8 00 00 00 00	 call	 ?GetSingleton@ioRouletteManager@@SAAAV1@XZ ; ioRouletteManager::GetSingleton
  0000e	8b c8		 mov	 ecx, eax
  00010	e8 00 00 00 00	 call	 ?GetRewardRank@ioRouletteManager@@QAEHXZ ; ioRouletteManager::GetRewardRank

; 349  : 	if( iRank == 0 )

  00015	33 db		 xor	 ebx, ebx
  00017	3b c3		 cmp	 eax, ebx
  00019	0f 84 05 02 00
	00		 je	 $LN1@RenderRewa

; 350  : 		return;
; 351  : 
; 352  : 	ioUIRenderImage *pTextImage = m_pTextReward[iRank-1];

  0001f	56		 push	 esi
  00020	8b b4 87 c8 01
	00 00		 mov	 esi, DWORD PTR [edi+eax*4+456]

; 353  : 	ioUIRenderImage *pBgImage = m_pTextRewardBg[iRank-1];

  00027	8b 84 87 d4 01
	00 00		 mov	 eax, DWORD PTR [edi+eax*4+468]
  0002e	89 45 fc	 mov	 DWORD PTR _pBgImage$[ebp], eax

; 354  : 
; 355  : 	int iXOffset = 0, iYOffset = 0;
; 356  : 	if( pBgImage )

  00031	3b c3		 cmp	 eax, ebx
  00033	74 52		 je	 SHORT $LN6@RenderRewa

; 357  : 	{
; 358  : 		iXOffset = pBgImage->GetWidth() / 2;

  00035	8b c8		 mov	 ecx, eax
  00037	ff 15 00 00 00
	00		 call	 DWORD PTR __imp_?GetWidth@ioUIRenderElement@@QBEHXZ

; 359  : 		iYOffset = pBgImage->GetHeight() / 2;

  0003d	8b 4d fc	 mov	 ecx, DWORD PTR _pBgImage$[ebp]
  00040	99		 cdq
  00041	2b c2		 sub	 eax, edx
  00043	d1 f8		 sar	 eax, 1
  00045	89 45 f8	 mov	 DWORD PTR _iXOffset$[ebp], eax
  00048	ff 15 00 00 00
	00		 call	 DWORD PTR __imp_?GetHeight@ioUIRenderElement@@QBEHXZ

; 360  : 		pBgImage->Render( iXPos + iXOffset, iYPos + iYOffset );

  0004e	8b 4d fc	 mov	 ecx, DWORD PTR _pBgImage$[ebp]
  00051	99		 cdq
  00052	53		 push	 ebx
  00053	2b c2		 sub	 eax, edx
  00055	8b 11		 mov	 edx, DWORD PTR [ecx]
  00057	8b 4d 0c	 mov	 ecx, DWORD PTR _iYPos$[ebp]
  0005a	53		 push	 ebx
  0005b	d1 f8		 sar	 eax, 1
  0005d	53		 push	 ebx
  0005e	03 c1		 add	 eax, ecx
  00060	53		 push	 ebx
  00061	0f 57 c0	 xorps	 xmm0, xmm0
  00064	f3 0f 2a c0	 cvtsi2ss xmm0, eax
  00068	8b 45 f8	 mov	 eax, DWORD PTR _iXOffset$[ebp]
  0006b	03 45 08	 add	 eax, DWORD PTR _iXPos$[ebp]
  0006e	51		 push	 ecx
  0006f	51		 push	 ecx
  00070	8b 4d fc	 mov	 ecx, DWORD PTR _pBgImage$[ebp]
  00073	f3 0f 11 44 24
	04		 movss	 DWORD PTR [esp+4], xmm0
  00079	0f 57 c0	 xorps	 xmm0, xmm0
  0007c	f3 0f 2a c0	 cvtsi2ss xmm0, eax
  00080	f3 0f 11 04 24	 movss	 DWORD PTR [esp], xmm0
  00085	ff 12		 call	 DWORD PTR [edx]
$LN6@RenderRewa:

; 361  : 	}
; 362  : 
; 363  : 	if( m_pTextPresent )

  00087	8b 8f c8 01 00
	00		 mov	 ecx, DWORD PTR [edi+456]
  0008d	3b cb		 cmp	 ecx, ebx
  0008f	74 4a		 je	 SHORT $LN5@RenderRewa

; 364  : 	{
; 365  : 		iXOffset = CENTER_X - ( m_pTextPresent->GetWidth() / 2 );

  00091	ff 15 00 00 00
	00		 call	 DWORD PTR __imp_?GetWidth@ioUIRenderElement@@QBEHXZ
  00097	99		 cdq
  00098	2b c2		 sub	 eax, edx
  0009a	6a 3b		 push	 59			; 0000003bH
  0009c	8b c8		 mov	 ecx, eax
  0009e	58		 pop	 eax
  0009f	d1 f9		 sar	 ecx, 1
  000a1	2b c1		 sub	 eax, ecx

; 366  : 		m_pTextPresent->Render( iXPos + iXOffset, iYPos + 74 );

  000a3	8b 8f c8 01 00
	00		 mov	 ecx, DWORD PTR [edi+456]
  000a9	8b 11		 mov	 edx, DWORD PTR [ecx]
  000ab	8b 4d 0c	 mov	 ecx, DWORD PTR _iYPos$[ebp]
  000ae	03 45 08	 add	 eax, DWORD PTR _iXPos$[ebp]
  000b1	53		 push	 ebx
  000b2	53		 push	 ebx
  000b3	53		 push	 ebx
  000b4	83 c1 4a	 add	 ecx, 74			; 0000004aH
  000b7	53		 push	 ebx
  000b8	51		 push	 ecx
  000b9	0f 57 c0	 xorps	 xmm0, xmm0
  000bc	f3 0f 2a c1	 cvtsi2ss xmm0, ecx
  000c0	51		 push	 ecx
  000c1	8b 8f c8 01 00
	00		 mov	 ecx, DWORD PTR [edi+456]
  000c7	f3 0f 11 44 24
	04		 movss	 DWORD PTR [esp+4], xmm0
  000cd	0f 57 c0	 xorps	 xmm0, xmm0
  000d0	f3 0f 2a c0	 cvtsi2ss xmm0, eax
  000d4	f3 0f 11 04 24	 movss	 DWORD PTR [esp], xmm0
  000d9	ff 12		 call	 DWORD PTR [edx]
$LN5@RenderRewa:

; 367  : 	}
; 368  : 
; 369  : 	if( pTextImage )

  000db	3b f3		 cmp	 esi, ebx
  000dd	0f 84 40 01 00
	00		 je	 $LN16@RenderRewa

; 370  : 	{
; 371  : 		if( m_dwRewardStartTime > 0 && m_dwRewardStartTime < FRAMEGETTIME() )

  000e3	39 9f 28 02 00
	00		 cmp	 DWORD PTR [edi+552], ebx
  000e9	0f 86 b4 00 00
	00		 jbe	 $LN3@RenderRewa
  000ef	ff 15 00 00 00
	00		 call	 DWORD PTR __imp_?GetSingleton@ioFrameTimer@@SAAAV1@XZ
  000f5	8b c8		 mov	 ecx, eax
  000f7	ff 15 00 00 00
	00		 call	 DWORD PTR __imp_?GetLoopSec@ioFrameTimer@@QBEKXZ
  000fd	39 87 28 02 00
	00		 cmp	 DWORD PTR [edi+552], eax
  00103	0f 83 9a 00 00
	00		 jae	 $LN3@RenderRewa

; 372  : 		{
; 373  : 			iXOffset = CENTER_X - pTextImage->GetWidth() / 2;

  00109	8b ce		 mov	 ecx, esi
  0010b	ff 15 00 00 00
	00		 call	 DWORD PTR __imp_?GetWidth@ioUIRenderElement@@QBEHXZ
  00111	99		 cdq
  00112	2b c2		 sub	 eax, edx
  00114	8b c8		 mov	 ecx, eax
  00116	6a 3b		 push	 59			; 0000003bH
  00118	d1 f9		 sar	 ecx, 1
  0011a	58		 pop	 eax
  0011b	2b c1		 sub	 eax, ecx
  0011d	89 45 f8	 mov	 DWORD PTR _iXOffset$[ebp], eax

; 374  : 			pTextImage->SetScale( FLOAT1 );

  00120	b8 01 00 00 00	 mov	 eax, 1
  00125	8b 16		 mov	 edx, DWORD PTR [esi]
  00127	89 45 fc	 mov	 DWORD PTR tv341[ebp], eax
  0012a	db 45 fc	 fild	 DWORD PTR tv341[ebp]
  0012d	85 c0		 test	 eax, eax
  0012f	79 06		 jns	 SHORT $LN17@RenderRewa
  00131	d8 05 00 00 00
	00		 fadd	 DWORD PTR __real@4f800000
$LN17@RenderRewa:
  00137	51		 push	 ecx
  00138	8b ce		 mov	 ecx, esi
  0013a	d9 1c 24	 fstp	 DWORD PTR [esp]
  0013d	ff 52 1c	 call	 DWORD PTR [edx+28]

; 375  : 			pTextImage->Render( iXPos + iXOffset, iYPos + 37 );

  00140	8b 4d f8	 mov	 ecx, DWORD PTR _iXOffset$[ebp]
  00143	03 4d 08	 add	 ecx, DWORD PTR _iXPos$[ebp]
  00146	8b 45 0c	 mov	 eax, DWORD PTR _iYPos$[ebp]
  00149	8b 16		 mov	 edx, DWORD PTR [esi]
  0014b	53		 push	 ebx
  0014c	53		 push	 ebx
  0014d	53		 push	 ebx
  0014e	53		 push	 ebx
  0014f	51		 push	 ecx
  00150	83 c0 25	 add	 eax, 37			; 00000025H
  00153	0f 57 c0	 xorps	 xmm0, xmm0
  00156	51		 push	 ecx
  00157	f3 0f 2a c0	 cvtsi2ss xmm0, eax
  0015b	f3 0f 11 44 24
	04		 movss	 DWORD PTR [esp+4], xmm0
  00161	0f 57 c0	 xorps	 xmm0, xmm0
  00164	f3 0f 2a c1	 cvtsi2ss xmm0, ecx
  00168	89 4d 08	 mov	 DWORD PTR tv338[ebp], ecx
  0016b	8b ce		 mov	 ecx, esi
  0016d	89 45 0c	 mov	 DWORD PTR tv368[ebp], eax
  00170	f3 0f 11 04 24	 movss	 DWORD PTR [esp], xmm0
  00175	ff 12		 call	 DWORD PTR [edx]

; 376  : 
; 377  : 			if( !m_bSpinEndEffect )

  00177	8d 87 25 02 00
	00		 lea	 eax, DWORD PTR [edi+549]
  0017d	89 45 f8	 mov	 DWORD PTR tv372[ebp], eax
  00180	38 18		 cmp	 BYTE PTR [eax], bl
  00182	0f 85 9b 00 00
	00		 jne	 $LN16@RenderRewa

; 378  : 			{
; 379  : 				SetUIEffect( pTextImage, iXPos + iXOffset, iYPos + 37 );

  00188	6a ff		 push	 -1
  0018a	ff 75 0c	 push	 DWORD PTR tv368[ebp]
  0018d	8b cf		 mov	 ecx, edi
  0018f	ff 75 08	 push	 DWORD PTR tv338[ebp]
  00192	56		 push	 esi
  00193	e8 00 00 00 00	 call	 ?SetUIEffect@RouletteWnd@@IAEXPAVioUIRenderImage@@HHH@Z ; RouletteWnd::SetUIEffect

; 380  : 				m_bSpinEndEffect = true;

  00198	8b 45 f8	 mov	 eax, DWORD PTR tv372[ebp]
  0019b	c6 00 01	 mov	 BYTE PTR [eax], 1

; 381  : 			}
; 382  : 		}
; 383  : 		else

  0019e	e9 80 00 00 00	 jmp	 $LN16@RenderRewa
$LN3@RenderRewa:

; 384  : 		{
; 385  : 			iXOffset = CENTER_X - pTextImage->GetWidth() / 2;

  001a3	8b ce		 mov	 ecx, esi
  001a5	ff 15 00 00 00
	00		 call	 DWORD PTR __imp_?GetWidth@ioUIRenderElement@@QBEHXZ
  001ab	99		 cdq
  001ac	2b c2		 sub	 eax, edx
  001ae	6a 3b		 push	 59			; 0000003bH
  001b0	d1 f8		 sar	 eax, 1
  001b2	5f		 pop	 edi
  001b3	2b f8		 sub	 edi, eax

; 386  : 			pTextImage->SetScale( FLOAT05 );

  001b5	b8 05 00 00 00	 mov	 eax, 5
  001ba	8b c8		 mov	 ecx, eax
  001bc	b8 0a 00 00 00	 mov	 eax, 10			; 0000000aH
  001c1	8b 16		 mov	 edx, DWORD PTR [esi]
  001c3	89 4d f8	 mov	 DWORD PTR tv325[ebp], ecx
  001c6	db 45 f8	 fild	 DWORD PTR tv325[ebp]
  001c9	85 c9		 test	 ecx, ecx
  001cb	79 06		 jns	 SHORT $LN18@RenderRewa
  001cd	d8 05 00 00 00
	00		 fadd	 DWORD PTR __real@4f800000
$LN18@RenderRewa:
  001d3	89 45 f8	 mov	 DWORD PTR tv321[ebp], eax
  001d6	db 45 f8	 fild	 DWORD PTR tv321[ebp]
  001d9	85 c0		 test	 eax, eax
  001db	79 06		 jns	 SHORT $LN19@RenderRewa
  001dd	d8 05 00 00 00
	00		 fadd	 DWORD PTR __real@4f800000
$LN19@RenderRewa:
  001e3	de f9		 fdivp	 ST(1), ST(0)
  001e5	51		 push	 ecx
  001e6	8b ce		 mov	 ecx, esi
  001e8	d9 5d f8	 fstp	 DWORD PTR tv270[ebp]
  001eb	d9 45 f8	 fld	 DWORD PTR tv270[ebp]
  001ee	d9 1c 24	 fstp	 DWORD PTR [esp]
  001f1	ff 52 1c	 call	 DWORD PTR [edx+28]

; 387  : 			pTextImage->Render( iXPos + iXOffset, iYPos + 37, UI_RENDER_NORMAL, TFO_BILINEAR );

  001f4	8b 4d 0c	 mov	 ecx, DWORD PTR _iYPos$[ebp]
  001f7	03 7d 08	 add	 edi, DWORD PTR _iXPos$[ebp]
  001fa	8b 06		 mov	 eax, DWORD PTR [esi]
  001fc	53		 push	 ebx
  001fd	53		 push	 ebx
  001fe	6a 01		 push	 1
  00200	83 c1 25	 add	 ecx, 37			; 00000025H
  00203	53		 push	 ebx
  00204	51		 push	 ecx
  00205	0f 57 c0	 xorps	 xmm0, xmm0
  00208	f3 0f 2a c1	 cvtsi2ss xmm0, ecx
  0020c	51		 push	 ecx
  0020d	f3 0f 11 44 24
	04		 movss	 DWORD PTR [esp+4], xmm0
  00213	0f 57 c0	 xorps	 xmm0, xmm0
  00216	f3 0f 2a c7	 cvtsi2ss xmm0, edi
  0021a	8b ce		 mov	 ecx, esi
  0021c	f3 0f 11 04 24	 movss	 DWORD PTR [esp], xmm0
  00221	ff 10		 call	 DWORD PTR [eax]
$LN16@RenderRewa:
  00223	5e		 pop	 esi
$LN1@RenderRewa:
  00224	5f		 pop	 edi
  00225	5b		 pop	 ebx

; 388  : 		}
; 389  : 	}
; 390  : }

  00226	c9		 leave
  00227	c2 08 00	 ret	 8
?RenderReward@RouletteWnd@@IAEXHH@Z ENDP		; RouletteWnd::RenderReward
_TEXT	ENDS
PUBLIC	?RenderUnderInfo@RouletteWnd@@IAEXHH@Z		; RouletteWnd::RenderUnderInfo
; Function compile flags: /Ogsp
;	COMDAT ?RenderUnderInfo@RouletteWnd@@IAEXHH@Z
_TEXT	SEGMENT
tv312 = -12						; size = 4
_iNumWidth$ = -8					; size = 4
tv313 = -4						; size = 4
_iCount$ = -4						; size = 4
_iXPos$ = 8						; size = 4
_iNumber$ = 12						; size = 4
_iYPos$ = 12						; size = 4
?RenderUnderInfo@RouletteWnd@@IAEXHH@Z PROC		; RouletteWnd::RenderUnderInfo, COMDAT
; _this$ = ecx

; 617  : {

  00000	55		 push	 ebp
  00001	8b ec		 mov	 ebp, esp
  00003	83 ec 0c	 sub	 esp, 12			; 0000000cH
  00006	53		 push	 ebx
  00007	56		 push	 esi
  00008	8b f1		 mov	 esi, ecx

; 618  : 	if( !m_pUnderJoin || !m_pUpperCouponNumber || !m_pUnderCount )

  0000a	33 db		 xor	 ebx, ebx
  0000c	39 9e ec 01 00
	00		 cmp	 DWORD PTR [esi+492], ebx
  00012	0f 84 f1 01 00
	00		 je	 $LN6@RenderUnde
  00018	8b 8e e8 01 00
	00		 mov	 ecx, DWORD PTR [esi+488]
  0001e	3b cb		 cmp	 ecx, ebx
  00020	0f 84 e3 01 00
	00		 je	 $LN6@RenderUnde
  00026	39 9e f0 01 00
	00		 cmp	 DWORD PTR [esi+496], ebx
  0002c	0f 84 d7 01 00
	00		 je	 $LN6@RenderUnde

; 619  : 		return;
; 620  : 
; 621  : 	enum { CENTER_X = 59, TEXT_Y = 79, NUMBER_Y = 79,
; 622  : 		   TEXT_GAP = 3, NUMBER_GAP = -3 };
; 623  : 
; 624  : 	int iCount = 1;
; 625  : 	if( m_iJoinUser >= 10 )

  00032	83 be 14 02 00
	00 0a		 cmp	 DWORD PTR [esi+532], 10	; 0000000aH
  00039	c7 45 fc 01 00
	00 00		 mov	 DWORD PTR _iCount$[ebp], 1
  00040	7c 07		 jl	 SHORT $LN5@RenderUnde

; 626  : 		iCount = 2;

  00042	c7 45 fc 02 00
	00 00		 mov	 DWORD PTR _iCount$[ebp], 2
$LN5@RenderUnde:
  00049	57		 push	 edi

; 627  : 
; 628  : 	int iNumWidth = m_pUpperCouponNumber->GetWidth() / 10;

  0004a	ff 15 00 00 00
	00		 call	 DWORD PTR __imp_?GetWidth@ioUIRenderElement@@QBEHXZ
  00050	6a 0a		 push	 10			; 0000000aH
  00052	99		 cdq
  00053	59		 pop	 ecx
  00054	f7 f9		 idiv	 ecx

; 629  : 	int iWidth = m_pUnderJoin->GetWidth() + ( iNumWidth * iCount ) + m_pUnderCount->GetWidth();

  00056	8b 8e f0 01 00
	00		 mov	 ecx, DWORD PTR [esi+496]
  0005c	89 45 f8	 mov	 DWORD PTR _iNumWidth$[ebp], eax
  0005f	ff 15 00 00 00
	00		 call	 DWORD PTR __imp_?GetWidth@ioUIRenderElement@@QBEHXZ
  00065	8b 8e ec 01 00
	00		 mov	 ecx, DWORD PTR [esi+492]
  0006b	8b f8		 mov	 edi, eax
  0006d	ff 15 00 00 00
	00		 call	 DWORD PTR __imp_?GetWidth@ioUIRenderElement@@QBEHXZ

; 630  : 	int iOffset = CENTER_X - iWidth/2;
; 631  : 
; 632  : 	m_pUnderJoin->Render( iXPos + iOffset, iYPos + TEXT_Y );

  00073	8b 8e ec 01 00
	00		 mov	 ecx, DWORD PTR [esi+492]
  00079	03 f8		 add	 edi, eax
  0007b	8b 45 f8	 mov	 eax, DWORD PTR _iNumWidth$[ebp]
  0007e	0f af 45 fc	 imul	 eax, DWORD PTR _iCount$[ebp]
  00082	03 c7		 add	 eax, edi
  00084	6a 3b		 push	 59			; 0000003bH
  00086	5f		 pop	 edi
  00087	99		 cdq
  00088	53		 push	 ebx
  00089	2b c2		 sub	 eax, edx
  0008b	8b 55 08	 mov	 edx, DWORD PTR _iXPos$[ebp]
  0008e	53		 push	 ebx
  0008f	d1 f8		 sar	 eax, 1
  00091	53		 push	 ebx
  00092	2b f8		 sub	 edi, eax
  00094	8b 45 0c	 mov	 eax, DWORD PTR _iYPos$[ebp]
  00097	53		 push	 ebx
  00098	83 c0 4f	 add	 eax, 79			; 0000004fH
  0009b	0f 57 c0	 xorps	 xmm0, xmm0
  0009e	f3 0f 2a c0	 cvtsi2ss xmm0, eax
  000a2	51		 push	 ecx
  000a3	51		 push	 ecx
  000a4	f3 0f 11 44 24
	04		 movss	 DWORD PTR [esp+4], xmm0
  000aa	f3 0f 11 45 fc	 movss	 DWORD PTR tv313[ebp], xmm0
  000af	03 d7		 add	 edx, edi
  000b1	89 45 f4	 mov	 DWORD PTR tv312[ebp], eax
  000b4	8b 01		 mov	 eax, DWORD PTR [ecx]
  000b6	0f 57 c0	 xorps	 xmm0, xmm0
  000b9	f3 0f 2a c2	 cvtsi2ss xmm0, edx
  000bd	f3 0f 11 04 24	 movss	 DWORD PTR [esp], xmm0
  000c2	ff 10		 call	 DWORD PTR [eax]

; 633  : 	iOffset += m_pUnderJoin->GetWidth() + TEXT_GAP;

  000c4	8b 8e ec 01 00
	00		 mov	 ecx, DWORD PTR [esi+492]
  000ca	ff 15 00 00 00
	00		 call	 DWORD PTR __imp_?GetWidth@ioUIRenderElement@@QBEHXZ
  000d0	8d 7c 07 03	 lea	 edi, DWORD PTR [edi+eax+3]

; 634  : 
; 635  : 	int iNumber = m_iJoinUser/10;

  000d4	8b 86 14 02 00
	00		 mov	 eax, DWORD PTR [esi+532]
  000da	6a 0a		 push	 10			; 0000000aH
  000dc	99		 cdq
  000dd	59		 pop	 ecx
  000de	f7 f9		 idiv	 ecx
  000e0	89 45 0c	 mov	 DWORD PTR _iNumber$[ebp], eax

; 636  : 	if( iNumber > 0 )

  000e3	3b c3		 cmp	 eax, ebx
  000e5	7e 6f		 jle	 SHORT $LN11@RenderUnde

; 637  : 	{
; 638  : 		m_pUpperCouponNumber->RenderNum( iXPos + iOffset, iYPos + NUMBER_Y, iNumber );

  000e7	8b 4d 08	 mov	 ecx, DWORD PTR _iXPos$[ebp]
  000ea	f3 0f 10 05 00
	00 00 00	 movss	 xmm0, DWORD PTR __real@3f800000
  000f2	53		 push	 ebx
  000f3	53		 push	 ebx
  000f4	53		 push	 ebx
  000f5	03 cf		 add	 ecx, edi
  000f7	53		 push	 ebx
  000f8	51		 push	 ecx
  000f9	51		 push	 ecx
  000fa	f3 0f 11 44 24
	04		 movss	 DWORD PTR [esp+4], xmm0
  00100	0f 57 c0	 xorps	 xmm0, xmm0
  00103	f3 0f 11 04 24	 movss	 DWORD PTR [esp], xmm0
  00108	f3 0f 10 45 fc	 movss	 xmm0, DWORD PTR tv313[ebp]
  0010d	50		 push	 eax
  0010e	51		 push	 ecx
  0010f	51		 push	 ecx
  00110	f3 0f 11 44 24
	04		 movss	 DWORD PTR [esp+4], xmm0
  00116	0f 57 c0	 xorps	 xmm0, xmm0
  00119	f3 0f 2a c1	 cvtsi2ss xmm0, ecx
  0011d	8b 8e e8 01 00
	00		 mov	 ecx, DWORD PTR [esi+488]
  00123	f3 0f 11 04 24	 movss	 DWORD PTR [esp], xmm0
  00128	ff 15 00 00 00
	00		 call	 DWORD PTR __imp_?RenderNum@ioUIRenderImage@@QAEXMMHMMW4UIRenderType@@W4TextureFilterOption@@0W4RenerNumerFormatting@1@@Z

; 639  : 		
; 640  : 		if( m_bSetUIEffect )

  0012e	38 9e 18 02 00
	00		 cmp	 BYTE PTR [esi+536], bl
  00134	74 19		 je	 SHORT $LN10@RenderUnde

; 641  : 		{
; 642  : 			SetUIEffect( m_pUpperCouponNumber, iXPos + iOffset, iYPos + NUMBER_Y, iNumber );

  00136	ff 75 0c	 push	 DWORD PTR _iNumber$[ebp]
  00139	8b 45 08	 mov	 eax, DWORD PTR _iXPos$[ebp]
  0013c	ff 75 f4	 push	 DWORD PTR tv312[ebp]
  0013f	03 c7		 add	 eax, edi
  00141	50		 push	 eax
  00142	ff b6 e8 01 00
	00		 push	 DWORD PTR [esi+488]
  00148	8b ce		 mov	 ecx, esi
  0014a	e8 00 00 00 00	 call	 ?SetUIEffect@RouletteWnd@@IAEXPAVioUIRenderImage@@HHH@Z ; RouletteWnd::SetUIEffect
$LN10@RenderUnde:

; 643  : 		}
; 644  : 
; 645  : 		iOffset += iNumWidth + NUMBER_GAP;

  0014f	8b 45 f8	 mov	 eax, DWORD PTR _iNumWidth$[ebp]
  00152	8d 7c 07 fd	 lea	 edi, DWORD PTR [edi+eax-3]
$LN11@RenderUnde:

; 646  : 	}
; 647  : 
; 648  : 	iNumber = m_iJoinUser%10;

  00156	8b 86 14 02 00
	00		 mov	 eax, DWORD PTR [esi+532]
  0015c	6a 0a		 push	 10			; 0000000aH
  0015e	59		 pop	 ecx
  0015f	99		 cdq
  00160	f7 f9		 idiv	 ecx

; 649  : 	m_pUpperCouponNumber->RenderNum( iXPos + iOffset, iYPos + NUMBER_Y, iNumber );

  00162	f3 0f 10 05 00
	00 00 00	 movss	 xmm0, DWORD PTR __real@3f800000
  0016a	8b 45 08	 mov	 eax, DWORD PTR _iXPos$[ebp]
  0016d	53		 push	 ebx
  0016e	53		 push	 ebx
  0016f	53		 push	 ebx
  00170	53		 push	 ebx
  00171	51		 push	 ecx
  00172	51		 push	 ecx
  00173	f3 0f 11 44 24
	04		 movss	 DWORD PTR [esp+4], xmm0
  00179	0f 57 c0	 xorps	 xmm0, xmm0
  0017c	f3 0f 11 04 24	 movss	 DWORD PTR [esp], xmm0
  00181	f3 0f 10 45 fc	 movss	 xmm0, DWORD PTR tv313[ebp]
  00186	03 c7		 add	 eax, edi
  00188	52		 push	 edx
  00189	51		 push	 ecx
  0018a	51		 push	 ecx
  0018b	8b 8e e8 01 00
	00		 mov	 ecx, DWORD PTR [esi+488]
  00191	f3 0f 11 44 24
	04		 movss	 DWORD PTR [esp+4], xmm0
  00197	0f 57 c0	 xorps	 xmm0, xmm0
  0019a	f3 0f 2a c0	 cvtsi2ss xmm0, eax
  0019e	89 55 0c	 mov	 DWORD PTR _iNumber$[ebp], edx
  001a1	f3 0f 11 04 24	 movss	 DWORD PTR [esp], xmm0
  001a6	ff 15 00 00 00
	00		 call	 DWORD PTR __imp_?RenderNum@ioUIRenderImage@@QAEXMMHMMW4UIRenderType@@W4TextureFilterOption@@0W4RenerNumerFormatting@1@@Z

; 650  : 	if( m_bSetUIEffect )

  001ac	38 9e 18 02 00
	00		 cmp	 BYTE PTR [esi+536], bl
  001b2	74 19		 je	 SHORT $LN2@RenderUnde

; 651  : 	{
; 652  : 		SetUIEffect( m_pUpperCouponNumber, iXPos + iOffset, iYPos + NUMBER_Y, iNumber );

  001b4	ff 75 0c	 push	 DWORD PTR _iNumber$[ebp]
  001b7	8b 45 08	 mov	 eax, DWORD PTR _iXPos$[ebp]
  001ba	ff 75 f4	 push	 DWORD PTR tv312[ebp]
  001bd	03 c7		 add	 eax, edi
  001bf	50		 push	 eax
  001c0	ff b6 e8 01 00
	00		 push	 DWORD PTR [esi+488]
  001c6	8b ce		 mov	 ecx, esi
  001c8	e8 00 00 00 00	 call	 ?SetUIEffect@RouletteWnd@@IAEXPAVioUIRenderImage@@HHH@Z ; RouletteWnd::SetUIEffect
$LN2@RenderUnde:

; 653  : 	}
; 654  : 	iOffset += iNumWidth;
; 655  : 
; 656  : 	m_pUnderCount->Render( iXPos + iOffset, iYPos + NUMBER_Y );

  001cd	8b 8e f0 01 00
	00		 mov	 ecx, DWORD PTR [esi+496]
  001d3	03 7d f8	 add	 edi, DWORD PTR _iNumWidth$[ebp]
  001d6	f3 0f 10 45 fc	 movss	 xmm0, DWORD PTR tv313[ebp]
  001db	03 7d 08	 add	 edi, DWORD PTR _iXPos$[ebp]
  001de	8b 01		 mov	 eax, DWORD PTR [ecx]
  001e0	53		 push	 ebx
  001e1	53		 push	 ebx
  001e2	53		 push	 ebx
  001e3	53		 push	 ebx
  001e4	51		 push	 ecx
  001e5	51		 push	 ecx
  001e6	f3 0f 11 44 24
	04		 movss	 DWORD PTR [esp+4], xmm0
  001ec	0f 57 c0	 xorps	 xmm0, xmm0
  001ef	f3 0f 2a c7	 cvtsi2ss xmm0, edi
  001f3	f3 0f 11 04 24	 movss	 DWORD PTR [esp], xmm0
  001f8	ff 10		 call	 DWORD PTR [eax]
  001fa	5f		 pop	 edi

; 657  : 
; 658  : 	if( m_bSetUIEffect )

  001fb	38 9e 18 02 00
	00		 cmp	 BYTE PTR [esi+536], bl
  00201	74 06		 je	 SHORT $LN6@RenderUnde

; 659  : 		m_bSetUIEffect = false;

  00203	88 9e 18 02 00
	00		 mov	 BYTE PTR [esi+536], bl
$LN6@RenderUnde:
  00209	5e		 pop	 esi
  0020a	5b		 pop	 ebx

; 660  : }

  0020b	c9		 leave
  0020c	c2 08 00	 ret	 8
?RenderUnderInfo@RouletteWnd@@IAEXHH@Z ENDP		; RouletteWnd::RenderUnderInfo
_TEXT	ENDS
EXTRN	__imp_?AddUIQuad@ioUIRenderer@@QAEXPAVIUIQuad@@@Z:PROC
EXTRN	__imp_?GetSingleton@ioUIRenderer@@SAAAV1@XZ:PROC
EXTRN	??0ioRotateQuad@@QAE@PAVio2DRotateQuad@@@Z:PROC	; ioRotateQuad::ioRotateQuad
EXTRN	?IsNeedRender@io2DRotateQuad@@QBE_NXZ:PROC	; io2DRotateQuad::IsNeedRender
;	COMDAT xdata$x
; File d:\lost saga for developer\youtube\tutorial\source\src\lsclient\iomyinfo.h
xdata$x	SEGMENT
__unwindtable$?OnRender@RouletteWnd@@MAEXXZ DD 0ffffffffH
	DD	FLAT:__unwindfunclet$?OnRender@RouletteWnd@@MAEXXZ$0
__ehfuncinfo$?OnRender@RouletteWnd@@MAEXXZ DD 019930522H
	DD	01H
	DD	FLAT:__unwindtable$?OnRender@RouletteWnd@@MAEXXZ
	DD	2 DUP(00H)
	DD	2 DUP(00H)
	DD	00H
	DD	01H
; Function compile flags: /Ogsp
; File d:\lost saga for developer\youtube\tutorial\source\src\lsclient\gui\roulettewnd.cpp
xdata$x	ENDS
;	COMDAT ?OnRender@RouletteWnd@@MAEXXZ
_TEXT	SEGMENT
tv277 = -24						; size = 4
$T515379 = -24						; size = 4
tv276 = -20						; size = 4
_iYPos$ = -16						; size = 4
__$EHRec$ = -12						; size = 12
?OnRender@RouletteWnd@@MAEXXZ PROC			; RouletteWnd::OnRender, COMDAT
; _this$ = ecx

; 299  : {

  00000	6a 0c		 push	 12			; 0000000cH
  00002	b8 00 00 00 00	 mov	 eax, __ehhandler$?OnRender@RouletteWnd@@MAEXXZ
  00007	e8 00 00 00 00	 call	 __EH_prolog3
  0000c	8b f1		 mov	 esi, ecx

; 300  : 	if( !g_RouletteMgr.IsRouletteEvent() )

  0000e	e8 00 00 00 00	 call	 ?GetSingleton@ioRouletteManager@@SAAAV1@XZ ; ioRouletteManager::GetSingleton
  00013	8b c8		 mov	 ecx, eax
  00015	e8 00 00 00 00	 call	 ?IsRouletteEvent@ioRouletteManager@@QAE_NXZ ; ioRouletteManager::IsRouletteEvent
  0001a	84 c0		 test	 al, al
  0001c	0f 84 64 01 00
	00		 je	 $LN6@OnRender

; 301  : 		return;
; 302  : 
; 303  : 	if( !m_pRouletteHelpBg || !m_pTextBg )

  00022	33 ff		 xor	 edi, edi
  00024	39 be a4 01 00
	00		 cmp	 DWORD PTR [esi+420], edi
  0002a	0f 84 56 01 00
	00		 je	 $LN6@OnRender
  00030	39 be a8 01 00
	00		 cmp	 DWORD PTR [esi+424], edi
  00036	0f 84 4a 01 00
	00		 je	 $LN6@OnRender

; 304  : 		return;
; 305  : 
; 306  : 	enum { CENTER_X = 59, CENTER_Y = 47 };
; 307  : 
; 308  : 	int iXPos = GetDerivedPosX();

  0003c	8b ce		 mov	 ecx, esi
  0003e	ff 15 00 00 00
	00		 call	 DWORD PTR __imp_?GetDerivedPosX@ioWnd@@QBEHXZ

; 309  : 	int iYPos = GetDerivedPosY();

  00044	8b ce		 mov	 ecx, esi
  00046	8b d8		 mov	 ebx, eax
  00048	ff 15 00 00 00
	00		 call	 DWORD PTR __imp_?GetDerivedPosY@ioWnd@@QBEHXZ

; 310  : 	
; 311  : 	int iXOffset = 0;
; 312  : 	int iYOffset = 0;
; 313  : 
; 314  : 	if( m_pWheelQuad && m_pWheelQuad->IsNeedRender() )

  0004e	8b 8e f8 01 00
	00		 mov	 ecx, DWORD PTR [esi+504]
  00054	89 45 f0	 mov	 DWORD PTR _iYPos$[ebp], eax
  00057	3b cf		 cmp	 ecx, edi
  00059	74 43		 je	 SHORT $LN4@OnRender
  0005b	e8 00 00 00 00	 call	 ?IsNeedRender@io2DRotateQuad@@QBE_NXZ ; io2DRotateQuad::IsNeedRender
  00060	84 c0		 test	 al, al
  00062	74 3a		 je	 SHORT $LN4@OnRender

; 315  : 	{
; 316  : 		//  g_UIRenderer .
; 317  : 		ioRotateQuad *pQuad = new ioRotateQuad( m_pWheelQuad );

  00064	6a 08		 push	 8
  00066	e8 00 00 00 00	 call	 ??2@YAPAXI@Z		; operator new
  0006b	59		 pop	 ecx
  0006c	8b c8		 mov	 ecx, eax
  0006e	89 4d e8	 mov	 DWORD PTR $T515379[ebp], ecx
  00071	89 7d fc	 mov	 DWORD PTR __$EHRec$[ebp+8], edi
  00074	3b cf		 cmp	 ecx, edi
  00076	74 0d		 je	 SHORT $LN11@OnRender
  00078	ff b6 f8 01 00
	00		 push	 DWORD PTR [esi+504]
  0007e	e8 00 00 00 00	 call	 ??0ioRotateQuad@@QAE@PAVio2DRotateQuad@@@Z ; ioRotateQuad::ioRotateQuad
  00083	eb 02		 jmp	 SHORT $LN12@OnRender
$LN11@OnRender:
  00085	33 c0		 xor	 eax, eax
$LN12@OnRender:
  00087	83 4d fc ff	 or	 DWORD PTR __$EHRec$[ebp+8], -1

; 318  : 		if( pQuad )

  0008b	3b c7		 cmp	 eax, edi
  0008d	74 0f		 je	 SHORT $LN4@OnRender

; 319  : 		{
; 320  : 			g_UIRenderer.AddUIQuad( pQuad );

  0008f	50		 push	 eax
  00090	ff 15 00 00 00
	00		 call	 DWORD PTR __imp_?GetSingleton@ioUIRenderer@@SAAAV1@XZ
  00096	8b c8		 mov	 ecx, eax
  00098	ff 15 00 00 00
	00		 call	 DWORD PTR __imp_?AddUIQuad@ioUIRenderer@@QAEXPAVIUIQuad@@@Z
$LN4@OnRender:

; 321  : 		}
; 322  : 	}
; 323  : 
; 324  : 	m_pRouletteHelpBg->Render( iXPos, iYPos );

  0009e	8b 8e a4 01 00
	00		 mov	 ecx, DWORD PTR [esi+420]
  000a4	66 0f 6e 45 f0	 movd	 xmm0, DWORD PTR _iYPos$[ebp]
  000a9	8b 01		 mov	 eax, DWORD PTR [ecx]
  000ab	57		 push	 edi
  000ac	57		 push	 edi
  000ad	57		 push	 edi
  000ae	57		 push	 edi
  000af	51		 push	 ecx
  000b0	51		 push	 ecx
  000b1	0f 5b c0	 cvtdq2ps xmm0, xmm0
  000b4	0f 57 c9	 xorps	 xmm1, xmm1
  000b7	f3 0f 2a cb	 cvtsi2ss xmm1, ebx
  000bb	f3 0f 11 44 24
	04		 movss	 DWORD PTR [esp+4], xmm0
  000c1	f3 0f 11 45 ec	 movss	 DWORD PTR tv276[ebp], xmm0
  000c6	f3 0f 11 4d e8	 movss	 DWORD PTR tv277[ebp], xmm1
  000cb	f3 0f 11 0c 24	 movss	 DWORD PTR [esp], xmm1
  000d0	ff 10		 call	 DWORD PTR [eax]

; 325  : 	m_pTextBg->Render( iXPos, iYPos );

  000d2	8b 8e a8 01 00
	00		 mov	 ecx, DWORD PTR [esi+424]
  000d8	f3 0f 10 45 ec	 movss	 xmm0, DWORD PTR tv276[ebp]
  000dd	8b 01		 mov	 eax, DWORD PTR [ecx]
  000df	57		 push	 edi
  000e0	57		 push	 edi
  000e1	57		 push	 edi
  000e2	57		 push	 edi
  000e3	51		 push	 ecx
  000e4	51		 push	 ecx
  000e5	f3 0f 11 44 24
	04		 movss	 DWORD PTR [esp+4], xmm0
  000eb	f3 0f 10 45 e8	 movss	 xmm0, DWORD PTR tv277[ebp]
  000f0	f3 0f 11 04 24	 movss	 DWORD PTR [esp], xmm0
  000f5	ff 10		 call	 DWORD PTR [eax]

; 326  : 
; 327  : 	if( m_State == US_END && g_RouletteMgr.IsJoinRoulette( g_MyInfo.GetPublicID() ) )

  000f7	83 be 90 01 00
	00 03		 cmp	 DWORD PTR [esi+400], 3
  000fe	75 26		 jne	 SHORT $LN3@OnRender
  00100	e8 00 00 00 00	 call	 ?GetSingleton@ioMyInfo@@SAAAV1@XZ ; ioMyInfo::GetSingleton
  00105	83 c0 1c	 add	 eax, 28			; 0000001cH
  00108	50		 push	 eax
  00109	e8 00 00 00 00	 call	 ?GetSingleton@ioRouletteManager@@SAAAV1@XZ ; ioRouletteManager::GetSingleton
  0010e	8b c8		 mov	 ecx, eax
  00110	e8 00 00 00 00	 call	 ?IsJoinRoulette@ioRouletteManager@@QAE_NABVioHashString@@@Z ; ioRouletteManager::IsJoinRoulette
  00115	84 c0		 test	 al, al
  00117	74 0d		 je	 SHORT $LN3@OnRender

; 328  : 	{
; 329  : 		RenderReward( iXPos, iYPos );

  00119	ff 75 f0	 push	 DWORD PTR _iYPos$[ebp]
  0011c	8b ce		 mov	 ecx, esi
  0011e	53		 push	 ebx
  0011f	e8 00 00 00 00	 call	 ?RenderReward@RouletteWnd@@IAEXHH@Z ; RouletteWnd::RenderReward

; 330  : 	}
; 331  : 	else

  00124	eb 21		 jmp	 SHORT $LN2@OnRender
$LN3@OnRender:

; 332  : 	{
; 333  : 		RenderCenterInfo( iXPos, iYPos );

  00126	ff 75 f0	 push	 DWORD PTR _iYPos$[ebp]
  00129	8b ce		 mov	 ecx, esi
  0012b	53		 push	 ebx
  0012c	e8 00 00 00 00	 call	 ?RenderCenterInfo@RouletteWnd@@IAEXHH@Z ; RouletteWnd::RenderCenterInfo

; 334  : 		RenderUpperInfo( iXPos, iYPos );

  00131	ff 75 f0	 push	 DWORD PTR _iYPos$[ebp]
  00134	8b ce		 mov	 ecx, esi
  00136	53		 push	 ebx
  00137	e8 00 00 00 00	 call	 ?RenderUpperInfo@RouletteWnd@@IAEXHH@Z ; RouletteWnd::RenderUpperInfo

; 335  : 		RenderUnderInfo( iXPos, iYPos );

  0013c	ff 75 f0	 push	 DWORD PTR _iYPos$[ebp]
  0013f	8b ce		 mov	 ecx, esi
  00141	53		 push	 ebx
  00142	e8 00 00 00 00	 call	 ?RenderUnderInfo@RouletteWnd@@IAEXHH@Z ; RouletteWnd::RenderUnderInfo
$LN2@OnRender:

; 336  : 	}
; 337  : 
; 338  : 	if( m_pArrow )

  00147	39 be f4 01 00
	00		 cmp	 DWORD PTR [esi+500], edi
  0014d	74 30		 je	 SHORT $LN1@OnRender

; 339  : 		m_pArrow->Render( iXPos + 53, iYPos + 1 );

  0014f	8b 8e f4 01 00
	00		 mov	 ecx, DWORD PTR [esi+500]
  00155	8b 55 f0	 mov	 edx, DWORD PTR _iYPos$[ebp]
  00158	8b 01		 mov	 eax, DWORD PTR [ecx]
  0015a	57		 push	 edi
  0015b	57		 push	 edi
  0015c	57		 push	 edi
  0015d	57		 push	 edi
  0015e	0f 57 c0	 xorps	 xmm0, xmm0
  00161	51		 push	 ecx
  00162	42		 inc	 edx
  00163	f3 0f 2a c2	 cvtsi2ss xmm0, edx
  00167	51		 push	 ecx
  00168	f3 0f 11 44 24
	04		 movss	 DWORD PTR [esp+4], xmm0
  0016e	83 c3 35	 add	 ebx, 53			; 00000035H
  00171	0f 57 c0	 xorps	 xmm0, xmm0
  00174	f3 0f 2a c3	 cvtsi2ss xmm0, ebx
  00178	f3 0f 11 04 24	 movss	 DWORD PTR [esp], xmm0
  0017d	ff 10		 call	 DWORD PTR [eax]
$LN1@OnRender:

; 340  : 
; 341  : 	RenderUIEffect();

  0017f	8b ce		 mov	 ecx, esi
  00181	e8 00 00 00 00	 call	 ?RenderUIEffect@RouletteWnd@@IAEXXZ ; RouletteWnd::RenderUIEffect
$LN6@OnRender:

; 342  : }

  00186	e8 00 00 00 00	 call	 __EH_epilog3
  0018b	c3		 ret	 0
_TEXT	ENDS
;	COMDAT text$x
text$x	SEGMENT
__unwindfunclet$?OnRender@RouletteWnd@@MAEXXZ$0:
  00000	ff 75 e8	 push	 DWORD PTR $T515379[ebp]
  00003	e8 00 00 00 00	 call	 ??3@YAXPAX@Z		; operator delete
  00008	59		 pop	 ecx
  00009	c3		 ret	 0
__ehhandler$?OnRender@RouletteWnd@@MAEXXZ:
  0000a	8b 54 24 08	 mov	 edx, DWORD PTR [esp+8]
  0000e	8d 42 0c	 lea	 eax, DWORD PTR [edx+12]
  00011	8b 4a e4	 mov	 ecx, DWORD PTR [edx-28]
  00014	33 c8		 xor	 ecx, eax
  00016	e8 00 00 00 00	 call	 @__security_check_cookie@4
  0001b	b8 00 00 00 00	 mov	 eax, OFFSET __ehfuncinfo$?OnRender@RouletteWnd@@MAEXXZ
  00020	e9 00 00 00 00	 jmp	 ___CxxFrameHandler3
text$x	ENDS
?OnRender@RouletteWnd@@MAEXXZ ENDP			; RouletteWnd::OnRender
END
