; Listing generated by Microsoft (R) Optimizing Compiler Version 16.00.30319.01 

	TITLE	D:\Lost Saga For Developer\Youtube\Tutorial\Source\src\LSClient\Gui\RunningManNameWnd.cpp
	.686P
	.XMM
	include listing.inc
	.model	flat

INCLUDELIB MSVCRT
INCLUDELIB OLDNAMES

PUBLIC	??_7RunningManNameWnd@@6B@			; RunningManNameWnd::`vftable'
PUBLIC	??0RunningManNameWnd@@QAE@XZ			; RunningManNameWnd::RunningManNameWnd
PUBLIC	??_R4RunningManNameWnd@@6B@			; RunningManNameWnd::`RTTI Complete Object Locator'
PUBLIC	??_R0?AVRunningManNameWnd@@@8			; RunningManNameWnd `RTTI Type Descriptor'
PUBLIC	??_R3RunningManNameWnd@@8			; RunningManNameWnd::`RTTI Class Hierarchy Descriptor'
PUBLIC	??_R2RunningManNameWnd@@8			; RunningManNameWnd::`RTTI Base Class Array'
PUBLIC	??_R1A@?0A@EA@RunningManNameWnd@@8		; RunningManNameWnd::`RTTI Base Class Descriptor at (0,-1,0,64)'
PUBLIC	??_R1A@?0A@EA@ioWnd@@8				; ioWnd::`RTTI Base Class Descriptor at (0,-1,0,64)'
PUBLIC	??_R0?AVioWnd@@@8				; ioWnd `RTTI Type Descriptor'
PUBLIC	??_R3ioWnd@@8					; ioWnd::`RTTI Class Hierarchy Descriptor'
PUBLIC	??_R2ioWnd@@8					; ioWnd::`RTTI Base Class Array'
PUBLIC	?OnRender@RunningManNameWnd@@MAEXXZ		; RunningManNameWnd::OnRender
PUBLIC	?OnProcess@RunningManNameWnd@@MAEXM@Z		; RunningManNameWnd::OnProcess
PUBLIC	?iwm_command@RunningManNameWnd@@UAEXPAVioWnd@@HK@Z ; RunningManNameWnd::iwm_command
PUBLIC	?iwm_show@RunningManNameWnd@@UAEXXZ		; RunningManNameWnd::iwm_show
PUBLIC	?iwm_hide@RunningManNameWnd@@UAEXXZ		; RunningManNameWnd::iwm_hide
EXTRN	__imp_??0ioWnd@@QAE@XZ:PROC
EXTRN	??_7type_info@@6B@:QWORD			; type_info::`vftable'
EXTRN	?AddRenderFrame@ioWnd@@UAEXABVioHashString@@PAVioUIRenderFrame@@@Z:PROC ; ioWnd::AddRenderFrame
EXTRN	?AddRenderImage@ioWnd@@UAEXABVioHashString@@PAVioUIRenderImage@@@Z:PROC ; ioWnd::AddRenderImage
EXTRN	?AddTooltipHelp@ioWnd@@UAEXABVioHashString@@00@Z:PROC ; ioWnd::AddTooltipHelp
EXTRN	?ParseExtraInfo@ioWnd@@UAEXAAVioXMLElement@@@Z:PROC ; ioWnd::ParseExtraInfo
EXTRN	?AddNamedRenderImage@ioWnd@@UAEXABVioHashString@@PAVioUIRenderImage@@@Z:PROC ; ioWnd::AddNamedRenderImage
EXTRN	?RemoveNamedRenderImage@ioWnd@@UAEXABVioHashString@@@Z:PROC ; ioWnd::RemoveNamedRenderImage
EXTRN	?GetNamedRenderImage@ioWnd@@UBEPAVioUIRenderImage@@ABVioHashString@@@Z:PROC ; ioWnd::GetNamedRenderImage
EXTRN	?SetWindowAlpha@ioWnd@@UAEXH@Z:PROC		; ioWnd::SetWindowAlpha
EXTRN	?SetActive@ioWnd@@UAEXXZ:PROC			; ioWnd::SetActive
EXTRN	?SetInActive@ioWnd@@UAEXXZ:PROC			; ioWnd::SetInActive
EXTRN	?ClearElementImageList@ioWnd@@UAEXXZ:PROC	; ioWnd::ClearElementImageList
EXTRN	?SetSize@ioWnd@@UAEXHH@Z:PROC			; ioWnd::SetSize
EXTRN	?SetPositionToDefault@ioWnd@@UAEXHH_N0@Z:PROC	; ioWnd::SetPositionToDefault
EXTRN	?IsNeedProcess@ioWnd@@UBE_NXZ:PROC		; ioWnd::IsNeedProcess
EXTRN	?IsCanMouseReaction@ioWnd@@UBE_NXZ:PROC		; ioWnd::IsCanMouseReaction
EXTRN	?AddChild@ioWnd@@UAEXPAV1@@Z:PROC		; ioWnd::AddChild
EXTRN	?DeleteChild@ioWnd@@UAEXK@Z:PROC		; ioWnd::DeleteChild
EXTRN	?DeleteAllChild@ioWnd@@UAEXXZ:PROC		; ioWnd::DeleteAllChild
EXTRN	?OnRenderShowAndHide@ioWnd@@MAE_NXZ:PROC	; ioWnd::OnRenderShowAndHide
EXTRN	?OnRenderShowAndHideByDefault@ioWnd@@MAE_NK@Z:PROC ; ioWnd::OnRenderShowAndHideByDefault
EXTRN	?OnRenderShowAndHideByTop@ioWnd@@MAE_NK@Z:PROC	; ioWnd::OnRenderShowAndHideByTop
EXTRN	?OnRenderShowAndHideByDown@ioWnd@@MAE_NK@Z:PROC	; ioWnd::OnRenderShowAndHideByDown
EXTRN	?OnRenderAfterChild@ioWnd@@MAEXXZ:PROC		; ioWnd::OnRenderAfterChild
EXTRN	?OnMouseProcess@ioWnd@@MAEXABVioMouse@@@Z:PROC	; ioWnd::OnMouseProcess
EXTRN	?CheckFrameReSize@ioWnd@@MAEXHHHH@Z:PROC	; ioWnd::CheckFrameReSize
EXTRN	?RenderImageList@ioWnd@@MAEXHHW4UIRenderType@@@Z:PROC ; ioWnd::RenderImageList
EXTRN	?iwm_create@ioWnd@@UAEXXZ:PROC			; ioWnd::iwm_create
EXTRN	?iwm_destroy@ioWnd@@UAEXXZ:PROC			; ioWnd::iwm_destroy
EXTRN	?iwm_lbuttondown@ioWnd@@UAEXABVioMouse@@@Z:PROC	; ioWnd::iwm_lbuttondown
EXTRN	?iwm_lbuttonup@ioWnd@@UAEXABVioMouse@@@Z:PROC	; ioWnd::iwm_lbuttonup
EXTRN	?iwm_lbuttonDBLCLK@ioWnd@@UAEXABVioMouse@@@Z:PROC ; ioWnd::iwm_lbuttonDBLCLK
EXTRN	?iwm_rbuttondown@ioWnd@@UAEXABVioMouse@@@Z:PROC	; ioWnd::iwm_rbuttondown
EXTRN	?iwm_rbuttonup@ioWnd@@UAEXABVioMouse@@@Z:PROC	; ioWnd::iwm_rbuttonup
EXTRN	?iwm_mouseover@ioWnd@@UAEXABVioMouse@@@Z:PROC	; ioWnd::iwm_mouseover
EXTRN	?iwm_mousemove@ioWnd@@UAEXABVioMouse@@@Z:PROC	; ioWnd::iwm_mousemove
EXTRN	?iwm_mouseleave@ioWnd@@UAEXABVioMouse@@@Z:PROC	; ioWnd::iwm_mouseleave
EXTRN	?iwm_vscroll@ioWnd@@UAEXKH@Z:PROC		; ioWnd::iwm_vscroll
EXTRN	?iwm_wheel@ioWnd@@UAEXH@Z:PROC			; ioWnd::iwm_wheel
EXTRN	?iwm_esc@ioWnd@@UAE_NXZ:PROC			; ioWnd::iwm_esc
EXTRN	?iwm_spacebar@ioWnd@@UAE_NXZ:PROC		; ioWnd::iwm_spacebar
EXTRN	?iwm_gototop@ioWnd@@UAEXXZ:PROC			; ioWnd::iwm_gototop
EXTRN	?iwm_dragenter@ioWnd@@UAE?AW4IWDropEffect@@PAVioDragItem@@ABVioMouse@@@Z:PROC ; ioWnd::iwm_dragenter
EXTRN	?iwm_dragover@ioWnd@@UAE?AW4IWDropEffect@@PAVioDragItem@@ABVioMouse@@@Z:PROC ; ioWnd::iwm_dragover
EXTRN	?iwm_dragleave@ioWnd@@UAEXXZ:PROC		; ioWnd::iwm_dragleave
EXTRN	?iwm_dropitem@ioWnd@@UAE_NPAVioDragItem@@ABVioMouse@@PAV1@@Z:PROC ; ioWnd::iwm_dropitem
EXTRN	?iwm_dropdone@ioWnd@@UAEXPAVioDragItem@@PAV1@_N@Z:PROC ; ioWnd::iwm_dropdone
EXTRN	?IsEXType@ioWnd@@UBE_NXZ:PROC			; ioWnd::IsEXType
EXTRN	?GetWndType@ioWnd@@UBEKXZ:PROC			; ioWnd::GetWndType
EXTRN	?RenderWnd@ioWnd@@UAEXXZ:PROC			; ioWnd::RenderWnd
EXTRN	?SetIDEX@ioWnd@@UAEXAAK_N@Z:PROC		; ioWnd::SetIDEX
EXTRN	?ParseXML@ioWnd@@UAEXAAVioXMLElement@@@Z:PROC	; ioWnd::ParseXML
EXTRN	?GetHeaderFileName@ioWnd@@UAEPBDXZ:PROC		; ioWnd::GetHeaderFileName
EXTRN	?GetTemplateName@ioWnd@@UAEPBDXZ:PROC		; ioWnd::GetTemplateName
EXTRN	?GetDefClassName@ioWnd@@UBEPBDXZ:PROC		; ioWnd::GetDefClassName
EXTRN	?_Clone@ioWnd@@UAEPAV1@XZ:PROC			; ioWnd::_Clone
EXTRN	?Copy@ioWnd@@UAEXPAV1@@Z:PROC			; ioWnd::Copy
EXTRN	?Save@ioWnd@@UAE_NAAVioXMLElement@@@Z:PROC	; ioWnd::Save
EXTRN	?SetSaveData@ioWnd@@UAEXAAVioXMLElement@@@Z:PROC ; ioWnd::SetSaveData
EXTRN	?SetPosX@ioWnd@@UAEXH@Z:PROC			; ioWnd::SetPosX
EXTRN	?SetPosY@ioWnd@@UAEXH@Z:PROC			; ioWnd::SetPosY
EXTRN	?SetWidth@ioWnd@@UAEXH@Z:PROC			; ioWnd::SetWidth
EXTRN	?SetHeight@ioWnd@@UAEXH@Z:PROC			; ioWnd::SetHeight
EXTRN	?GetNumFixedRenderFrame@ioWnd@@UBEHXZ:PROC	; ioWnd::GetNumFixedRenderFrame
EXTRN	?GetFixedRenderFrameType@ioWnd@@UAEPBDH@Z:PROC	; ioWnd::GetFixedRenderFrameType
EXTRN	?GetRenderFrame@ioWnd@@UAEPAPAVioUIRenderElement@@PBD@Z:PROC ; ioWnd::GetRenderFrame
EXTRN	?GetNumFixedRenderImage@ioWnd@@UBEHXZ:PROC	; ioWnd::GetNumFixedRenderImage
EXTRN	?GetFixedRenderImageType@ioWnd@@UAEPBDH@Z:PROC	; ioWnd::GetFixedRenderImageType
EXTRN	?GetRenderImage@ioWnd@@UAEPAPAVioUIRenderElement@@PBD@Z:PROC ; ioWnd::GetRenderImage
EXTRN	?AddEffect@ioWnd@@UAEXABVioHashString@@PAVioUI3DEffectRender@@@Z:PROC ; ioWnd::AddEffect
EXTRN	?GetEffect@ioWnd@@UAEPAVioUI3DEffectRender@@VioHashString@@@Z:PROC ; ioWnd::GetEffect
EXTRN	??_ERunningManNameWnd@@UAEPAXI@Z:PROC		; RunningManNameWnd::`vector deleting destructor'
;	COMDAT ??_R2ioWnd@@8
; File d:\lost saga for developer\youtube\tutorial\source\src\lsclient\gui\runningmannamewnd.cpp
rdata$r	SEGMENT
??_R2ioWnd@@8 DD FLAT:??_R1A@?0A@EA@ioWnd@@8		; ioWnd::`RTTI Base Class Array'
rdata$r	ENDS
;	COMDAT ??_R3ioWnd@@8
rdata$r	SEGMENT
??_R3ioWnd@@8 DD 00H					; ioWnd::`RTTI Class Hierarchy Descriptor'
	DD	00H
	DD	01H
	DD	FLAT:??_R2ioWnd@@8
rdata$r	ENDS
;	COMDAT ??_R0?AVioWnd@@@8
_DATA	SEGMENT
??_R0?AVioWnd@@@8 DD FLAT:??_7type_info@@6B@		; ioWnd `RTTI Type Descriptor'
	DD	00H
	DB	'.?AVioWnd@@', 00H
_DATA	ENDS
;	COMDAT ??_R1A@?0A@EA@ioWnd@@8
rdata$r	SEGMENT
??_R1A@?0A@EA@ioWnd@@8 DD FLAT:??_R0?AVioWnd@@@8	; ioWnd::`RTTI Base Class Descriptor at (0,-1,0,64)'
	DD	00H
	DD	00H
	DD	0ffffffffH
	DD	00H
	DD	040H
	DD	FLAT:??_R3ioWnd@@8
rdata$r	ENDS
;	COMDAT ??_R1A@?0A@EA@RunningManNameWnd@@8
rdata$r	SEGMENT
??_R1A@?0A@EA@RunningManNameWnd@@8 DD FLAT:??_R0?AVRunningManNameWnd@@@8 ; RunningManNameWnd::`RTTI Base Class Descriptor at (0,-1,0,64)'
	DD	01H
	DD	00H
	DD	0ffffffffH
	DD	00H
	DD	040H
	DD	FLAT:??_R3RunningManNameWnd@@8
rdata$r	ENDS
;	COMDAT ??_R2RunningManNameWnd@@8
rdata$r	SEGMENT
??_R2RunningManNameWnd@@8 DD FLAT:??_R1A@?0A@EA@RunningManNameWnd@@8 ; RunningManNameWnd::`RTTI Base Class Array'
	DD	FLAT:??_R1A@?0A@EA@ioWnd@@8
rdata$r	ENDS
;	COMDAT ??_R3RunningManNameWnd@@8
rdata$r	SEGMENT
??_R3RunningManNameWnd@@8 DD 00H			; RunningManNameWnd::`RTTI Class Hierarchy Descriptor'
	DD	00H
	DD	02H
	DD	FLAT:??_R2RunningManNameWnd@@8
rdata$r	ENDS
;	COMDAT ??_R0?AVRunningManNameWnd@@@8
_DATA	SEGMENT
??_R0?AVRunningManNameWnd@@@8 DD FLAT:??_7type_info@@6B@ ; RunningManNameWnd `RTTI Type Descriptor'
	DD	00H
	DB	'.?AVRunningManNameWnd@@', 00H
_DATA	ENDS
;	COMDAT ??_R4RunningManNameWnd@@6B@
rdata$r	SEGMENT
??_R4RunningManNameWnd@@6B@ DD 00H			; RunningManNameWnd::`RTTI Complete Object Locator'
	DD	00H
	DD	00H
	DD	FLAT:??_R0?AVRunningManNameWnd@@@8
	DD	FLAT:??_R3RunningManNameWnd@@8
rdata$r	ENDS
;	COMDAT ??_7RunningManNameWnd@@6B@
CONST	SEGMENT
??_7RunningManNameWnd@@6B@ DD FLAT:??_R4RunningManNameWnd@@6B@ ; RunningManNameWnd::`vftable'
	DD	FLAT:?AddRenderFrame@ioWnd@@UAEXABVioHashString@@PAVioUIRenderFrame@@@Z
	DD	FLAT:?AddRenderImage@ioWnd@@UAEXABVioHashString@@PAVioUIRenderImage@@@Z
	DD	FLAT:?AddTooltipHelp@ioWnd@@UAEXABVioHashString@@00@Z
	DD	FLAT:?ParseExtraInfo@ioWnd@@UAEXAAVioXMLElement@@@Z
	DD	FLAT:?AddNamedRenderImage@ioWnd@@UAEXABVioHashString@@PAVioUIRenderImage@@@Z
	DD	FLAT:?RemoveNamedRenderImage@ioWnd@@UAEXABVioHashString@@@Z
	DD	FLAT:?GetNamedRenderImage@ioWnd@@UBEPAVioUIRenderImage@@ABVioHashString@@@Z
	DD	FLAT:?SetWindowAlpha@ioWnd@@UAEXH@Z
	DD	FLAT:?SetActive@ioWnd@@UAEXXZ
	DD	FLAT:?SetInActive@ioWnd@@UAEXXZ
	DD	FLAT:?ClearElementImageList@ioWnd@@UAEXXZ
	DD	FLAT:?SetSize@ioWnd@@UAEXHH@Z
	DD	FLAT:?SetPositionToDefault@ioWnd@@UAEXHH_N0@Z
	DD	FLAT:?IsNeedProcess@ioWnd@@UBE_NXZ
	DD	FLAT:?IsCanMouseReaction@ioWnd@@UBE_NXZ
	DD	FLAT:?AddChild@ioWnd@@UAEXPAV1@@Z
	DD	FLAT:?DeleteChild@ioWnd@@UAEXK@Z
	DD	FLAT:?DeleteAllChild@ioWnd@@UAEXXZ
	DD	FLAT:?OnRenderShowAndHide@ioWnd@@MAE_NXZ
	DD	FLAT:?OnRenderShowAndHideByDefault@ioWnd@@MAE_NK@Z
	DD	FLAT:?OnRenderShowAndHideByTop@ioWnd@@MAE_NK@Z
	DD	FLAT:?OnRenderShowAndHideByDown@ioWnd@@MAE_NK@Z
	DD	FLAT:?OnRender@RunningManNameWnd@@MAEXXZ
	DD	FLAT:?OnRenderAfterChild@ioWnd@@MAEXXZ
	DD	FLAT:?OnProcess@RunningManNameWnd@@MAEXM@Z
	DD	FLAT:?OnMouseProcess@ioWnd@@MAEXABVioMouse@@@Z
	DD	FLAT:?CheckFrameReSize@ioWnd@@MAEXHHHH@Z
	DD	FLAT:?RenderImageList@ioWnd@@MAEXHHW4UIRenderType@@@Z
	DD	FLAT:?iwm_create@ioWnd@@UAEXXZ
	DD	FLAT:?iwm_destroy@ioWnd@@UAEXXZ
	DD	FLAT:?iwm_lbuttondown@ioWnd@@UAEXABVioMouse@@@Z
	DD	FLAT:?iwm_lbuttonup@ioWnd@@UAEXABVioMouse@@@Z
	DD	FLAT:?iwm_lbuttonDBLCLK@ioWnd@@UAEXABVioMouse@@@Z
	DD	FLAT:?iwm_rbuttondown@ioWnd@@UAEXABVioMouse@@@Z
	DD	FLAT:?iwm_rbuttonup@ioWnd@@UAEXABVioMouse@@@Z
	DD	FLAT:?iwm_command@RunningManNameWnd@@UAEXPAVioWnd@@HK@Z
	DD	FLAT:?iwm_mouseover@ioWnd@@UAEXABVioMouse@@@Z
	DD	FLAT:?iwm_mousemove@ioWnd@@UAEXABVioMouse@@@Z
	DD	FLAT:?iwm_mouseleave@ioWnd@@UAEXABVioMouse@@@Z
	DD	FLAT:?iwm_vscroll@ioWnd@@UAEXKH@Z
	DD	FLAT:?iwm_wheel@ioWnd@@UAEXH@Z
	DD	FLAT:?iwm_show@RunningManNameWnd@@UAEXXZ
	DD	FLAT:?iwm_hide@RunningManNameWnd@@UAEXXZ
	DD	FLAT:?iwm_esc@ioWnd@@UAE_NXZ
	DD	FLAT:?iwm_spacebar@ioWnd@@UAE_NXZ
	DD	FLAT:?iwm_gototop@ioWnd@@UAEXXZ
	DD	FLAT:?iwm_dragenter@ioWnd@@UAE?AW4IWDropEffect@@PAVioDragItem@@ABVioMouse@@@Z
	DD	FLAT:?iwm_dragover@ioWnd@@UAE?AW4IWDropEffect@@PAVioDragItem@@ABVioMouse@@@Z
	DD	FLAT:?iwm_dragleave@ioWnd@@UAEXXZ
	DD	FLAT:?iwm_dropitem@ioWnd@@UAE_NPAVioDragItem@@ABVioMouse@@PAV1@@Z
	DD	FLAT:?iwm_dropdone@ioWnd@@UAEXPAVioDragItem@@PAV1@_N@Z
	DD	FLAT:?IsEXType@ioWnd@@UBE_NXZ
	DD	FLAT:?GetWndType@ioWnd@@UBEKXZ
	DD	FLAT:?RenderWnd@ioWnd@@UAEXXZ
	DD	FLAT:?SetIDEX@ioWnd@@UAEXAAK_N@Z
	DD	FLAT:?ParseXML@ioWnd@@UAEXAAVioXMLElement@@@Z
	DD	FLAT:?GetHeaderFileName@ioWnd@@UAEPBDXZ
	DD	FLAT:?GetTemplateName@ioWnd@@UAEPBDXZ
	DD	FLAT:?GetDefClassName@ioWnd@@UBEPBDXZ
	DD	FLAT:?_Clone@ioWnd@@UAEPAV1@XZ
	DD	FLAT:?Copy@ioWnd@@UAEXPAV1@@Z
	DD	FLAT:?Save@ioWnd@@UAE_NAAVioXMLElement@@@Z
	DD	FLAT:?SetSaveData@ioWnd@@UAEXAAVioXMLElement@@@Z
	DD	FLAT:?SetPosX@ioWnd@@UAEXH@Z
	DD	FLAT:?SetPosY@ioWnd@@UAEXH@Z
	DD	FLAT:?SetWidth@ioWnd@@UAEXH@Z
	DD	FLAT:?SetHeight@ioWnd@@UAEXH@Z
	DD	FLAT:?GetNumFixedRenderFrame@ioWnd@@UBEHXZ
	DD	FLAT:?GetFixedRenderFrameType@ioWnd@@UAEPBDH@Z
	DD	FLAT:?GetRenderFrame@ioWnd@@UAEPAPAVioUIRenderElement@@PBD@Z
	DD	FLAT:?GetNumFixedRenderImage@ioWnd@@UBEHXZ
	DD	FLAT:?GetFixedRenderImageType@ioWnd@@UAEPBDH@Z
	DD	FLAT:?GetRenderImage@ioWnd@@UAEPAPAVioUIRenderElement@@PBD@Z
	DD	FLAT:?AddEffect@ioWnd@@UAEXABVioHashString@@PAVioUI3DEffectRender@@@Z
	DD	FLAT:?GetEffect@ioWnd@@UAEPAVioUI3DEffectRender@@VioHashString@@@Z
	DD	FLAT:??_ERunningManNameWnd@@UAEPAXI@Z
; Function compile flags: /Ogsp
CONST	ENDS
;	COMDAT ??0RunningManNameWnd@@QAE@XZ
_TEXT	SEGMENT
??0RunningManNameWnd@@QAE@XZ PROC			; RunningManNameWnd::RunningManNameWnd, COMDAT
; _this$ = ecx

; 32   : {

  00000	56		 push	 esi
  00001	8b f1		 mov	 esi, ecx
  00003	ff 15 00 00 00
	00		 call	 DWORD PTR __imp_??0ioWnd@@QAE@XZ

; 33   : 	m_dwEditStartTime = 0;

  00009	83 a6 60 01 00
	00 00		 and	 DWORD PTR [esi+352], 0

; 34   : 	m_dwEditLimitTime = 15000;
; 35   : 	m_bSelectName	  = true;
; 36   : 	m_pPreEdit		  = NULL;

  00010	83 a6 6c 01 00
	00 00		 and	 DWORD PTR [esi+364], 0
  00017	c7 06 00 00 00
	00		 mov	 DWORD PTR [esi], OFFSET ??_7RunningManNameWnd@@6B@
  0001d	c7 86 64 01 00
	00 98 3a 00 00	 mov	 DWORD PTR [esi+356], 15000 ; 00003a98H
  00027	c6 86 68 01 00
	00 01		 mov	 BYTE PTR [esi+360], 1

; 37   : }

  0002e	8b c6		 mov	 eax, esi
  00030	5e		 pop	 esi
  00031	c3		 ret	 0
??0RunningManNameWnd@@QAE@XZ ENDP			; RunningManNameWnd::RunningManNameWnd
_TEXT	ENDS
PUBLIC	??1RunningManNameWnd@@UAE@XZ			; RunningManNameWnd::~RunningManNameWnd
EXTRN	__imp_??1ioWnd@@UAE@XZ:PROC
; Function compile flags: /Ogsp
;	COMDAT ??1RunningManNameWnd@@UAE@XZ
_TEXT	SEGMENT
??1RunningManNameWnd@@UAE@XZ PROC			; RunningManNameWnd::~RunningManNameWnd, COMDAT
; _this$ = ecx

; 40   : {

  00000	c7 01 00 00 00
	00		 mov	 DWORD PTR [ecx], OFFSET ??_7RunningManNameWnd@@6B@

; 41   : }

  00006	ff 25 00 00 00
	00		 jmp	 DWORD PTR __imp_??1ioWnd@@UAE@XZ
??1RunningManNameWnd@@UAE@XZ ENDP			; RunningManNameWnd::~RunningManNameWnd
_TEXT	ENDS
PUBLIC	?SetEditFocus@RunningManNameWnd@@IAEXXZ		; RunningManNameWnd::SetEditFocus
EXTRN	__imp_?SetString@ioInputBox@@QAEXPBD@Z:PROC
EXTRN	__imp_?GetSingleton@ioInputBox@@SAAAV1@XZ:PROC
EXTRN	__imp_?c_str@ioHashString@@QBEPBDXZ:PROC
EXTRN	__imp_?ClearString@ioEdit@@QAEXXZ:PROC
EXTRN	__imp_?FindChildWnd@ioWnd@@QAEPAV1@K@Z:PROC
; Function compile flags: /Ogsp
;	COMDAT ?SetEditFocus@RunningManNameWnd@@IAEXXZ
_TEXT	SEGMENT
?SetEditFocus@RunningManNameWnd@@IAEXXZ PROC		; RunningManNameWnd::SetEditFocus, COMDAT
; _this$ = ecx

; 44   : {

  00000	56		 push	 esi

; 45   : 	ioEdit *pEdit = (ioEdit*)FindChildWnd( ID_NAME_EDIT );

  00001	6a 02		 push	 2
  00003	ff 15 00 00 00
	00		 call	 DWORD PTR __imp_?FindChildWnd@ioWnd@@QAEPAV1@K@Z
  00009	8b f0		 mov	 esi, eax

; 46   : 	if( pEdit )

  0000b	85 f6		 test	 esi, esi
  0000d	74 2c		 je	 SHORT $LN1@SetEditFoc

; 47   : 	{
; 48   : 		pEdit->ClearString();

  0000f	8b ce		 mov	 ecx, esi
  00011	ff 15 00 00 00
	00		 call	 DWORD PTR __imp_?ClearString@ioEdit@@QAEXXZ

; 49   : 		pEdit->SetKeyFocus();

  00017	8b 06		 mov	 eax, DWORD PTR [esi]
  00019	8b ce		 mov	 ecx, esi
  0001b	ff 90 30 01 00
	00		 call	 DWORD PTR [eax+304]

; 50   : 		g_InputBox.SetString( m_szSaveName.c_str() );

  00021	b9 00 00 00 00	 mov	 ecx, OFFSET ?m_szSaveName@RunningManNameWnd@@1VioHashString@@A ; RunningManNameWnd::m_szSaveName
  00026	ff 15 00 00 00
	00		 call	 DWORD PTR __imp_?c_str@ioHashString@@QBEPBDXZ
  0002c	50		 push	 eax
  0002d	ff 15 00 00 00
	00		 call	 DWORD PTR __imp_?GetSingleton@ioInputBox@@SAAAV1@XZ
  00033	8b c8		 mov	 ecx, eax
  00035	ff 15 00 00 00
	00		 call	 DWORD PTR __imp_?SetString@ioInputBox@@QAEXPBD@Z
$LN1@SetEditFoc:
  0003b	5e		 pop	 esi

; 51   : 	}
; 52   : }

  0003c	c3		 ret	 0
?SetEditFocus@RunningManNameWnd@@IAEXXZ ENDP		; RunningManNameWnd::SetEditFocus
_TEXT	ENDS
PUBLIC	??_C@_0BM@BOOOIOLE@RunningManNameWnd?3?3SendName?$AA@ ; `string'
PUBLIC	??_C@_00CNPNBAHC@?$AA@				; `string'
PUBLIC	__$ArrayPad$
PUBLIC	?SendName@RunningManNameWnd@@IAEXXZ		; RunningManNameWnd::SendName
EXTRN	__imp_?HideWnd@ioWnd@@QAEXXZ:PROC
EXTRN	??1SP2Packet@@UAE@XZ:PROC			; SP2Packet::~SP2Packet
EXTRN	?SendToServer@TCPNetwork@@YAXAAVSP2Packet@@@Z:PROC ; TCPNetwork::SendToServer
EXTRN	??6SP2Packet@@QAEAAV0@ABVioHashString@@@Z:PROC	; SP2Packet::operator<<
EXTRN	??0SP2Packet@@QAE@K@Z:PROC			; SP2Packet::SP2Packet
EXTRN	__imp_?IsEmpty@ioHashString@@QBE_NXZ:PROC
EXTRN	__imp_??4ioHashString@@QAEAAV0@PBD@Z:PROC
EXTRN	?SetMsgBox@ioSP2GUIManager@@QAAXHPAVioWnd@@PBDZZ:PROC ; ioSP2GUIManager::SetMsgBox
EXTRN	?GetSingleton@ioSP2GUIManager@@SAAAV1@XZ:PROC	; ioSP2GUIManager::GetSingleton
EXTRN	__imp_?GetString@ioStringManager@@QAEPADPBD0HW4FileNamePrefix@1@@Z:PROC
EXTRN	__imp_?GetSingleton@ioStringManager@@SAAAV1@XZ:PROC
EXTRN	?IsLimitedGuildName@CSlangUtil@@QAE_NPBD@Z:PROC	; CSlangUtil::IsLimitedGuildName
EXTRN	?GetSingleton@CSlangUtil@@SAAAV1@XZ:PROC	; CSlangUtil::GetSingleton
EXTRN	__imp_?GetText@ioEdit@@QBEPBDXZ:PROC
EXTRN	___security_cookie:DWORD
EXTRN	___CxxFrameHandler3:PROC
EXTRN	@__security_check_cookie@4:PROC
EXTRN	__chkstk:PROC
;	COMDAT ??_C@_0BM@BOOOIOLE@RunningManNameWnd?3?3SendName?$AA@
CONST	SEGMENT
??_C@_0BM@BOOOIOLE@RunningManNameWnd?3?3SendName?$AA@ DB 'RunningManNameW'
	DB	'nd::SendName', 00H				; `string'
CONST	ENDS
;	COMDAT ??_C@_00CNPNBAHC@?$AA@
CONST	SEGMENT
??_C@_00CNPNBAHC@?$AA@ DB 00H				; `string'
CONST	ENDS
;	COMDAT xdata$x
xdata$x	SEGMENT
__unwindtable$?SendName@RunningManNameWnd@@IAEXXZ DD 0ffffffffH
	DD	FLAT:__unwindfunclet$?SendName@RunningManNameWnd@@IAEXXZ$0
__ehfuncinfo$?SendName@RunningManNameWnd@@IAEXXZ DD 019930522H
	DD	01H
	DD	FLAT:__unwindtable$?SendName@RunningManNameWnd@@IAEXXZ
	DD	2 DUP(00H)
	DD	2 DUP(00H)
	DD	00H
	DD	01H
; Function compile flags: /Ogsp
xdata$x	ENDS
;	COMDAT ?SendName@RunningManNameWnd@@IAEXXZ
_TEXT	SEGMENT
_kPacket$505138 = -32808				; size = 32792
__$ArrayPad$ = -16					; size = 4
__$EHRec$ = -12						; size = 12
?SendName@RunningManNameWnd@@IAEXXZ PROC		; RunningManNameWnd::SendName, COMDAT
; _this$ = ecx

; 55   : {

  00000	55		 push	 ebp
  00001	8b ec		 mov	 ebp, esp
  00003	6a ff		 push	 -1
  00005	68 00 00 00 00	 push	 __ehhandler$?SendName@RunningManNameWnd@@IAEXXZ
  0000a	64 a1 00 00 00
	00		 mov	 eax, DWORD PTR fs:0
  00010	50		 push	 eax
  00011	b8 1c 80 00 00	 mov	 eax, 32796		; 0000801cH
  00016	e8 00 00 00 00	 call	 __chkstk
  0001b	a1 00 00 00 00	 mov	 eax, DWORD PTR ___security_cookie
  00020	33 c5		 xor	 eax, ebp
  00022	89 45 f0	 mov	 DWORD PTR __$ArrayPad$[ebp], eax
  00025	53		 push	 ebx
  00026	56		 push	 esi
  00027	57		 push	 edi
  00028	50		 push	 eax
  00029	8d 45 f4	 lea	 eax, DWORD PTR __$EHRec$[ebp]
  0002c	64 a3 00 00 00
	00		 mov	 DWORD PTR fs:0, eax

; 56   : 	ioEdit *pEdit = (ioEdit*)FindChildWnd( ID_NAME_EDIT );

  00032	6a 02		 push	 2
  00034	8b d9		 mov	 ebx, ecx
  00036	ff 15 00 00 00
	00		 call	 DWORD PTR __imp_?FindChildWnd@ioWnd@@QAEPAV1@K@Z
  0003c	8b f8		 mov	 edi, eax

; 57   : 	if( pEdit )

  0003e	85 ff		 test	 edi, edi
  00040	0f 84 d9 00 00
	00		 je	 $LN3@SendName

; 58   : 	{
; 59   : 		if( g_SlangUtil.IsLimitedGuildName( pEdit->GetText() ) )

  00046	8b 35 00 00 00
	00		 mov	 esi, DWORD PTR __imp_?GetText@ioEdit@@QBEPBDXZ
  0004c	8b cf		 mov	 ecx, edi
  0004e	ff d6		 call	 esi
  00050	50		 push	 eax
  00051	e8 00 00 00 00	 call	 ?GetSingleton@CSlangUtil@@SAAAV1@XZ ; CSlangUtil::GetSingleton
  00056	8b c8		 mov	 ecx, eax
  00058	e8 00 00 00 00	 call	 ?IsLimitedGuildName@CSlangUtil@@QAE_NPBD@Z ; CSlangUtil::IsLimitedGuildName
  0005d	84 c0		 test	 al, al
  0005f	74 3a		 je	 SHORT $LN2@SendName

; 60   : 		{
; 61   : 			//
; 62   : 			g_GUIMgr.SetMsgBox( MB_OK, NULL, STR(1) );

  00061	33 f6		 xor	 esi, esi
  00063	56		 push	 esi
  00064	6a 01		 push	 1
  00066	68 00 00 00 00	 push	 OFFSET ??_C@_00CNPNBAHC@?$AA@
  0006b	68 00 00 00 00	 push	 OFFSET ??_C@_0BM@BOOOIOLE@RunningManNameWnd?3?3SendName?$AA@
  00070	ff 15 00 00 00
	00		 call	 DWORD PTR __imp_?GetSingleton@ioStringManager@@SAAAV1@XZ
  00076	8b c8		 mov	 ecx, eax
  00078	ff 15 00 00 00
	00		 call	 DWORD PTR __imp_?GetString@ioStringManager@@QAEPADPBD0HW4FileNamePrefix@1@@Z
  0007e	50		 push	 eax
  0007f	56		 push	 esi
  00080	56		 push	 esi
  00081	e8 00 00 00 00	 call	 ?GetSingleton@ioSP2GUIManager@@SAAAV1@XZ ; ioSP2GUIManager::GetSingleton
  00086	50		 push	 eax
  00087	e8 00 00 00 00	 call	 ?SetMsgBox@ioSP2GUIManager@@QAAXHPAVioWnd@@PBDZZ ; ioSP2GUIManager::SetMsgBox
  0008c	83 c4 10	 add	 esp, 16			; 00000010H

; 63   : 			SetEditFocus();

  0008f	8b cb		 mov	 ecx, ebx
  00091	e8 00 00 00 00	 call	 ?SetEditFocus@RunningManNameWnd@@IAEXXZ ; RunningManNameWnd::SetEditFocus

; 64   : 			return;

  00096	e9 8c 00 00 00	 jmp	 $LN4@SendName
$LN2@SendName:

; 65   : 		}
; 66   : 
; 67   : 		// 동기화 처리
; 68   : 		m_szSaveName = pEdit->GetText();

  0009b	8b cf		 mov	 ecx, edi
  0009d	ff d6		 call	 esi
  0009f	8b 3d 00 00 00
	00		 mov	 edi, DWORD PTR __imp_??4ioHashString@@QAEAAV0@PBD@Z
  000a5	be 00 00 00 00	 mov	 esi, OFFSET ?m_szSaveName@RunningManNameWnd@@1VioHashString@@A ; RunningManNameWnd::m_szSaveName
  000aa	50		 push	 eax
  000ab	8b ce		 mov	 ecx, esi
  000ad	ff d7		 call	 edi

; 69   : 		if( m_szSaveName.IsEmpty() )

  000af	8b ce		 mov	 ecx, esi
  000b1	ff 15 00 00 00
	00		 call	 DWORD PTR __imp_?IsEmpty@ioHashString@@QBE_NXZ
  000b7	84 c0		 test	 al, al
  000b9	74 21		 je	 SHORT $LN1@SendName

; 70   : 			m_szSaveName = STR(2);

  000bb	6a 00		 push	 0
  000bd	6a 02		 push	 2
  000bf	68 00 00 00 00	 push	 OFFSET ??_C@_00CNPNBAHC@?$AA@
  000c4	68 00 00 00 00	 push	 OFFSET ??_C@_0BM@BOOOIOLE@RunningManNameWnd?3?3SendName?$AA@
  000c9	ff 15 00 00 00
	00		 call	 DWORD PTR __imp_?GetSingleton@ioStringManager@@SAAAV1@XZ
  000cf	8b c8		 mov	 ecx, eax
  000d1	ff 15 00 00 00
	00		 call	 DWORD PTR __imp_?GetString@ioStringManager@@QAEPADPBD0HW4FileNamePrefix@1@@Z
  000d7	50		 push	 eax
  000d8	8b ce		 mov	 ecx, esi
  000da	ff d7		 call	 edi
$LN1@SendName:

; 71   : 
; 72   : 		SP2Packet kPacket( CTPK_RUNNINGMAN_NAME_SYNC );

  000dc	68 56 02 00 00	 push	 598			; 00000256H
  000e1	8d 8d d8 7f ff
	ff		 lea	 ecx, DWORD PTR _kPacket$505138[ebp]
  000e7	e8 00 00 00 00	 call	 ??0SP2Packet@@QAE@K@Z	; SP2Packet::SP2Packet
  000ec	83 65 fc 00	 and	 DWORD PTR __$EHRec$[ebp+8], 0

; 73   : 		kPacket << m_szSaveName;

  000f0	56		 push	 esi
  000f1	8d 8d d8 7f ff
	ff		 lea	 ecx, DWORD PTR _kPacket$505138[ebp]
  000f7	e8 00 00 00 00	 call	 ??6SP2Packet@@QAEAAV0@ABVioHashString@@@Z ; SP2Packet::operator<<

; 74   : 		TCPNetwork::SendToServer( kPacket );

  000fc	8d 85 d8 7f ff
	ff		 lea	 eax, DWORD PTR _kPacket$505138[ebp]
  00102	50		 push	 eax
  00103	e8 00 00 00 00	 call	 ?SendToServer@TCPNetwork@@YAXAAVSP2Packet@@@Z ; TCPNetwork::SendToServer

; 75   : 
; 76   : 		m_bSelectName= false;
; 77   : 	}

  00108	83 4d fc ff	 or	 DWORD PTR __$EHRec$[ebp+8], -1
  0010c	59		 pop	 ecx
  0010d	8d 8d d8 7f ff
	ff		 lea	 ecx, DWORD PTR _kPacket$505138[ebp]
  00113	c6 83 68 01 00
	00 00		 mov	 BYTE PTR [ebx+360], 0
  0011a	e8 00 00 00 00	 call	 ??1SP2Packet@@UAE@XZ	; SP2Packet::~SP2Packet
$LN3@SendName:

; 78   : 
; 79   : 	HideWnd();

  0011f	8b cb		 mov	 ecx, ebx
  00121	ff 15 00 00 00
	00		 call	 DWORD PTR __imp_?HideWnd@ioWnd@@QAEXXZ
$LN4@SendName:

; 80   : }

  00127	8b 4d f4	 mov	 ecx, DWORD PTR __$EHRec$[ebp]
  0012a	64 89 0d 00 00
	00 00		 mov	 DWORD PTR fs:0, ecx
  00131	59		 pop	 ecx
  00132	5f		 pop	 edi
  00133	5e		 pop	 esi
  00134	5b		 pop	 ebx
  00135	8b 4d f0	 mov	 ecx, DWORD PTR __$ArrayPad$[ebp]
  00138	33 cd		 xor	 ecx, ebp
  0013a	e8 00 00 00 00	 call	 @__security_check_cookie@4
  0013f	c9		 leave
  00140	c3		 ret	 0
_TEXT	ENDS
;	COMDAT text$x
text$x	SEGMENT
__unwindfunclet$?SendName@RunningManNameWnd@@IAEXXZ$0:
  00000	8d 8d d8 7f ff
	ff		 lea	 ecx, DWORD PTR _kPacket$505138[ebp]
  00006	e9 00 00 00 00	 jmp	 ??1SP2Packet@@UAE@XZ	; SP2Packet::~SP2Packet
__ehhandler$?SendName@RunningManNameWnd@@IAEXXZ:
  0000b	8b 54 24 08	 mov	 edx, DWORD PTR [esp+8]
  0000f	8d 42 0c	 lea	 eax, DWORD PTR [edx+12]
  00012	8b 8a d4 7f ff
	ff		 mov	 ecx, DWORD PTR [edx-32812]
  00018	33 c8		 xor	 ecx, eax
  0001a	e8 00 00 00 00	 call	 @__security_check_cookie@4
  0001f	8b 4a fc	 mov	 ecx, DWORD PTR [edx-4]
  00022	33 c8		 xor	 ecx, eax
  00024	e8 00 00 00 00	 call	 @__security_check_cookie@4
  00029	b8 00 00 00 00	 mov	 eax, OFFSET __ehfuncinfo$?SendName@RunningManNameWnd@@IAEXXZ
  0002e	e9 00 00 00 00	 jmp	 ___CxxFrameHandler3
text$x	ENDS
?SendName@RunningManNameWnd@@IAEXXZ ENDP		; RunningManNameWnd::SendName
EXTRN	__imp_?GetID@ioWnd@@QBEKXZ:PROC
; Function compile flags: /Ogsp
;	COMDAT ?iwm_command@RunningManNameWnd@@UAEXPAVioWnd@@HK@Z
_TEXT	SEGMENT
_pWnd$ = 8						; size = 4
_cmd$ = 12						; size = 4
_param$ = 16						; size = 4
?iwm_command@RunningManNameWnd@@UAEXPAVioWnd@@HK@Z PROC	; RunningManNameWnd::iwm_command, COMDAT
; _this$ = ecx

; 83   : {

  00000	55		 push	 ebp
  00001	8b ec		 mov	 ebp, esp
  00003	56		 push	 esi
  00004	8b f1		 mov	 esi, ecx

; 84   : 	DWORD dwID = pWnd->GetID();

  00006	8b 4d 08	 mov	 ecx, DWORD PTR _pWnd$[ebp]
  00009	ff 15 00 00 00
	00		 call	 DWORD PTR __imp_?GetID@ioWnd@@QBEKXZ

; 85   : 
; 86   : 	switch( dwID )

  0000f	48		 dec	 eax
  00010	74 0f		 je	 SHORT $LN4@iwm_comman
  00012	48		 dec	 eax
  00013	75 19		 jne	 SHORT $LN3@iwm_comman

; 92   : 		}
; 93   : 		break;
; 94   : 	case ID_NAME_EDIT:
; 95   : 		if( cmd == IOED_INPUT && param == 1 )

  00015	83 7d 0c 22	 cmp	 DWORD PTR _cmd$[ebp], 34 ; 00000022H
  00019	75 13		 jne	 SHORT $LN3@iwm_comman
  0001b	83 7d 10 01	 cmp	 DWORD PTR _param$[ebp], 1

; 96   : 		{
; 97   : 			SendName();
; 98   : 		}
; 99   : 		break;

  0001f	eb 04		 jmp	 SHORT $LN9@iwm_comman
$LN4@iwm_comman:

; 87   : 	{
; 88   : 	case ID_OK:
; 89   : 		if( cmd == IOBN_BTNUP )

  00021	83 7d 0c 11	 cmp	 DWORD PTR _cmd$[ebp], 17 ; 00000011H
$LN9@iwm_comman:
  00025	75 07		 jne	 SHORT $LN3@iwm_comman

; 90   : 		{
; 91   : 			SendName();

  00027	8b ce		 mov	 ecx, esi
  00029	e8 00 00 00 00	 call	 ?SendName@RunningManNameWnd@@IAEXXZ ; RunningManNameWnd::SendName
$LN3@iwm_comman:
  0002e	5e		 pop	 esi

; 100  : 	}
; 101  : }

  0002f	5d		 pop	 ebp
  00030	c2 0c 00	 ret	 12			; 0000000cH
?iwm_command@RunningManNameWnd@@UAEXPAVioWnd@@HK@Z ENDP	; RunningManNameWnd::iwm_command
_TEXT	ENDS
PUBLIC	?return1000@@YAIXZ				; return1000
; Function compile flags: /Ogsp
; File d:\lost saga for developer\youtube\tutorial\source\src\lsclient\stdafx.h
;	COMDAT ?return1000@@YAIXZ
_TEXT	SEGMENT
?return1000@@YAIXZ PROC					; return1000, COMDAT

; 29   : 	__forceinline unsigned int return1000() { __asm mov eax, 1000 };

  00000	b8 e8 03 00 00	 mov	 eax, 1000		; 000003e8H
  00005	c3		 ret	 0
?return1000@@YAIXZ ENDP					; return1000
_TEXT	ENDS
PUBLIC	__real@3f266666
PUBLIC	??_C@_0BM@FAGADFBM@RunningManNameWnd?3?3OnRender?$AA@ ; `string'
EXTRN	__imp_?PrintText@ioFontManager@@QAAXMMMPBDZZ:PROC
EXTRN	__imp_?SetTextColor@ioFontManager@@QAEXK@Z:PROC
EXTRN	__imp_?SetBkColor@ioFontManager@@QAEXHHH@Z:PROC
EXTRN	__imp_?SetTextStyle@ioFontManager@@QAEXW4TextStyle@@@Z:PROC
EXTRN	__imp_?SetAlignType@ioFontManager@@QAEXW4TextAlignType@@@Z:PROC
EXTRN	__imp_?GetSingleton@ioFontManager@@SAAAV1@XZ:PROC
EXTRN	__imp_?GetDerivedPosY@ioWnd@@QBEHXZ:PROC
EXTRN	__imp_?GetDerivedPosX@ioWnd@@QBEHXZ:PROC
EXTRN	__imp_?OnRender@ioWnd@@MAEXXZ:PROC
EXTRN	__fltused:DWORD
;	COMDAT __real@3f266666
; File d:\lost saga for developer\youtube\tutorial\source\src\lsclient\gui\runningmannamewnd.cpp
CONST	SEGMENT
__real@3f266666 DD 03f266666r			; 0.65
CONST	ENDS
;	COMDAT ??_C@_0BM@FAGADFBM@RunningManNameWnd?3?3OnRender?$AA@
CONST	SEGMENT
??_C@_0BM@FAGADFBM@RunningManNameWnd?3?3OnRender?$AA@ DB 'RunningManNameW'
	DB	'nd::OnRender', 00H				; `string'
; Function compile flags: /Ogsp
CONST	ENDS
;	COMDAT ?OnRender@RunningManNameWnd@@MAEXXZ
_TEXT	SEGMENT
_yPos$ = -4						; size = 4
?OnRender@RunningManNameWnd@@MAEXXZ PROC		; RunningManNameWnd::OnRender, COMDAT
; _this$ = ecx

; 127  : {

  00000	55		 push	 ebp
  00001	8b ec		 mov	 ebp, esp
  00003	51		 push	 ecx
  00004	53		 push	 ebx
  00005	56		 push	 esi
  00006	57		 push	 edi
  00007	8b f1		 mov	 esi, ecx

; 128  : 	ioWnd::OnRender();

  00009	ff 15 00 00 00
	00		 call	 DWORD PTR __imp_?OnRender@ioWnd@@MAEXXZ

; 129  : 
; 130  : 	int xPos = GetDerivedPosX();

  0000f	8b ce		 mov	 ecx, esi
  00011	ff 15 00 00 00
	00		 call	 DWORD PTR __imp_?GetDerivedPosX@ioWnd@@QBEHXZ

; 131  : 	int yPos = GetDerivedPosY();

  00017	8b ce		 mov	 ecx, esi
  00019	8b d8		 mov	 ebx, eax
  0001b	ff 15 00 00 00
	00		 call	 DWORD PTR __imp_?GetDerivedPosY@ioWnd@@QBEHXZ

; 132  : 
; 133  : 	g_FontMgr.SetAlignType( TAT_CENTER );

  00021	8b 35 00 00 00
	00		 mov	 esi, DWORD PTR __imp_?GetSingleton@ioFontManager@@SAAAV1@XZ
  00027	6a 01		 push	 1
  00029	89 45 fc	 mov	 DWORD PTR _yPos$[ebp], eax
  0002c	ff d6		 call	 esi
  0002e	8b c8		 mov	 ecx, eax
  00030	ff 15 00 00 00
	00		 call	 DWORD PTR __imp_?SetAlignType@ioFontManager@@QAEXW4TextAlignType@@@Z

; 134  : 	g_FontMgr.SetTextStyle( TS_NORMAL );

  00036	33 ff		 xor	 edi, edi
  00038	57		 push	 edi
  00039	ff d6		 call	 esi
  0003b	8b c8		 mov	 ecx, eax
  0003d	ff 15 00 00 00
	00		 call	 DWORD PTR __imp_?SetTextStyle@ioFontManager@@QAEXW4TextStyle@@@Z

; 135  : 	g_FontMgr.SetBkColor( 0, 0, 0 );

  00043	57		 push	 edi
  00044	57		 push	 edi
  00045	57		 push	 edi
  00046	ff d6		 call	 esi
  00048	8b c8		 mov	 ecx, eax
  0004a	ff 15 00 00 00
	00		 call	 DWORD PTR __imp_?SetBkColor@ioFontManager@@QAEXHHH@Z

; 136  : 	g_FontMgr.SetTextColor( TCT_DEFAULT_GRAY );

  00050	68 6e 6e 6e ff	 push	 -9539986		; ff6e6e6eH
  00055	ff d6		 call	 esi
  00057	8b c8		 mov	 ecx, eax
  00059	ff 15 00 00 00
	00		 call	 DWORD PTR __imp_?SetTextColor@ioFontManager@@QAEXK@Z

; 137  :     g_FontMgr.PrintText( xPos + 127, yPos + 41, FONT_SIZE_13, STR(1) );

  0005f	57		 push	 edi
  00060	6a 01		 push	 1
  00062	68 00 00 00 00	 push	 OFFSET ??_C@_00CNPNBAHC@?$AA@
  00067	68 00 00 00 00	 push	 OFFSET ??_C@_0BM@FAGADFBM@RunningManNameWnd?3?3OnRender?$AA@
  0006c	ff 15 00 00 00
	00		 call	 DWORD PTR __imp_?GetSingleton@ioStringManager@@SAAAV1@XZ
  00072	8b c8		 mov	 ecx, eax
  00074	ff 15 00 00 00
	00		 call	 DWORD PTR __imp_?GetString@ioStringManager@@QAEPADPBD0HW4FileNamePrefix@1@@Z
  0007a	f3 0f 10 05 00
	00 00 00	 movss	 xmm0, DWORD PTR __real@3f266666
  00082	50		 push	 eax
  00083	8b 45 fc	 mov	 eax, DWORD PTR _yPos$[ebp]
  00086	83 ec 0c	 sub	 esp, 12			; 0000000cH
  00089	f3 0f 11 44 24
	08		 movss	 DWORD PTR [esp+8], xmm0
  0008f	0f 57 c0	 xorps	 xmm0, xmm0
  00092	83 c0 29	 add	 eax, 41			; 00000029H
  00095	f3 0f 2a c0	 cvtsi2ss xmm0, eax
  00099	f3 0f 11 44 24
	04		 movss	 DWORD PTR [esp+4], xmm0
  0009f	83 c3 7f	 add	 ebx, 127		; 0000007fH
  000a2	0f 57 c0	 xorps	 xmm0, xmm0
  000a5	f3 0f 2a c3	 cvtsi2ss xmm0, ebx
  000a9	f3 0f 11 04 24	 movss	 DWORD PTR [esp], xmm0
  000ae	ff d6		 call	 esi
  000b0	50		 push	 eax
  000b1	ff 15 00 00 00
	00		 call	 DWORD PTR __imp_?PrintText@ioFontManager@@QAAXMMMPBDZZ
  000b7	83 c4 14	 add	 esp, 20			; 00000014H
  000ba	5f		 pop	 edi
  000bb	5e		 pop	 esi
  000bc	5b		 pop	 ebx

; 138  : }

  000bd	c9		 leave
  000be	c3		 ret	 0
?OnRender@RunningManNameWnd@@MAEXXZ ENDP		; RunningManNameWnd::OnRender
_TEXT	ENDS
EXTRN	__imp_?GetTotalSec@ioFrameTimer@@QAEKXZ:PROC
EXTRN	__imp_?GetSingleton@ioFrameTimer@@SAAAV1@XZ:PROC
EXTRN	__imp_?m_pKeyFocusEdit@ioEdit@@2PAV1@A:DWORD
; Function compile flags: /Ogsp
;	COMDAT ?iwm_show@RunningManNameWnd@@UAEXXZ
_TEXT	SEGMENT
?iwm_show@RunningManNameWnd@@UAEXXZ PROC		; RunningManNameWnd::iwm_show, COMDAT
; _this$ = ecx

; 142  : 	m_pPreEdit = ioEdit::m_pKeyFocusEdit;

  00000	a1 00 00 00 00	 mov	 eax, DWORD PTR __imp_?m_pKeyFocusEdit@ioEdit@@2PAV1@A
  00005	8b 00		 mov	 eax, DWORD PTR [eax]
  00007	56		 push	 esi
  00008	8b f1		 mov	 esi, ecx
  0000a	89 86 6c 01 00
	00		 mov	 DWORD PTR [esi+364], eax

; 143  : 
; 144  : 	SetEditFocus();

  00010	e8 00 00 00 00	 call	 ?SetEditFocus@RunningManNameWnd@@IAEXXZ ; RunningManNameWnd::SetEditFocus

; 145  : 	m_dwEditStartTime = REALGETTIME();

  00015	ff 15 00 00 00
	00		 call	 DWORD PTR __imp_?GetSingleton@ioFrameTimer@@SAAAV1@XZ
  0001b	8b c8		 mov	 ecx, eax
  0001d	ff 15 00 00 00
	00		 call	 DWORD PTR __imp_?GetTotalSec@ioFrameTimer@@QAEKXZ
  00023	89 86 60 01 00
	00		 mov	 DWORD PTR [esi+352], eax
  00029	5e		 pop	 esi

; 146  : }

  0002a	c3		 ret	 0
?iwm_show@RunningManNameWnd@@UAEXXZ ENDP		; RunningManNameWnd::iwm_show
_TEXT	ENDS
PUBLIC	??_R0?AVioEdit@@@8				; ioEdit `RTTI Type Descriptor'
EXTRN	__imp_?IsShow@ioWnd@@QBE_NXZ:PROC
EXTRN	__imp_?GetParent@ioWnd@@QAEPAV1@XZ:PROC
EXTRN	___RTDynamicCast:PROC
;	COMDAT ??_R0?AVioEdit@@@8
_DATA	SEGMENT
??_R0?AVioEdit@@@8 DD FLAT:??_7type_info@@6B@		; ioEdit `RTTI Type Descriptor'
	DD	00H
	DB	'.?AVioEdit@@', 00H
; Function compile flags: /Ogsp
_DATA	ENDS
;	COMDAT ?iwm_hide@RunningManNameWnd@@UAEXXZ
_TEXT	SEGMENT
?iwm_hide@RunningManNameWnd@@UAEXXZ PROC		; RunningManNameWnd::iwm_hide, COMDAT
; _this$ = ecx

; 149  : {

  00000	56		 push	 esi
  00001	57		 push	 edi

; 150  : 	ioEdit *pEdit = (ioEdit*)FindChildWnd( ID_NAME_EDIT );

  00002	6a 02		 push	 2
  00004	8b f1		 mov	 esi, ecx
  00006	ff 15 00 00 00
	00		 call	 DWORD PTR __imp_?FindChildWnd@ioWnd@@QAEPAV1@K@Z

; 151  : 	if( pEdit )

  0000c	85 c0		 test	 eax, eax
  0000e	74 0a		 je	 SHORT $LN3@iwm_hide

; 152  : 	{
; 153  : 		pEdit->KillKeyFocus();

  00010	8b 10		 mov	 edx, DWORD PTR [eax]
  00012	8b c8		 mov	 ecx, eax
  00014	ff 92 34 01 00
	00		 call	 DWORD PTR [edx+308]
$LN3@iwm_hide:

; 154  : 	}
; 155  : 
; 156  : 	ioEdit *pPreEdit = dynamic_cast< ioEdit * >( m_pPreEdit );

  0001a	6a 00		 push	 0
  0001c	68 00 00 00 00	 push	 OFFSET ??_R0?AVioEdit@@@8
  00021	68 00 00 00 00	 push	 OFFSET ??_R0?AVioWnd@@@8
  00026	6a 00		 push	 0
  00028	ff b6 6c 01 00
	00		 push	 DWORD PTR [esi+364]
  0002e	e8 00 00 00 00	 call	 ___RTDynamicCast
  00033	8b f8		 mov	 edi, eax
  00035	83 c4 14	 add	 esp, 20			; 00000014H

; 157  : 	if( pPreEdit )	

  00038	85 ff		 test	 edi, edi
  0003a	74 29		 je	 SHORT $LN2@iwm_hide

; 158  : 	{
; 159  : 		ioWnd *pParent = pPreEdit->GetParent();

  0003c	8b cf		 mov	 ecx, edi
  0003e	ff 15 00 00 00
	00		 call	 DWORD PTR __imp_?GetParent@ioWnd@@QAEPAV1@XZ

; 160  : 		if( pParent && pParent->IsShow() )

  00044	85 c0		 test	 eax, eax
  00046	74 16		 je	 SHORT $LN1@iwm_hide
  00048	8b c8		 mov	 ecx, eax
  0004a	ff 15 00 00 00
	00		 call	 DWORD PTR __imp_?IsShow@ioWnd@@QBE_NXZ
  00050	84 c0		 test	 al, al
  00052	74 0a		 je	 SHORT $LN1@iwm_hide

; 161  : 		{
; 162  : 			pPreEdit->SetKeyFocus();

  00054	8b 07		 mov	 eax, DWORD PTR [edi]
  00056	8b cf		 mov	 ecx, edi
  00058	ff 90 30 01 00
	00		 call	 DWORD PTR [eax+304]
$LN1@iwm_hide:

; 163  : 		}
; 164  : 		m_pPreEdit = NULL;

  0005e	83 a6 6c 01 00
	00 00		 and	 DWORD PTR [esi+364], 0
$LN2@iwm_hide:

; 165  : 	}
; 166  : 	m_dwEditStartTime = 0;

  00065	83 a6 60 01 00
	00 00		 and	 DWORD PTR [esi+352], 0
  0006c	5f		 pop	 edi
  0006d	5e		 pop	 esi

; 167  : }

  0006e	c3		 ret	 0
?iwm_hide@RunningManNameWnd@@UAEXXZ ENDP		; RunningManNameWnd::iwm_hide
_TEXT	ENDS
EXTRN	??3@YAXPAX@Z:PROC				; operator delete
; Function compile flags: /Ogsp
;	COMDAT ??_GRunningManNameWnd@@UAEPAXI@Z
_TEXT	SEGMENT
___flags$ = 8						; size = 4
??_GRunningManNameWnd@@UAEPAXI@Z PROC			; RunningManNameWnd::`scalar deleting destructor', COMDAT
; _this$ = ecx
  00000	55		 push	 ebp
  00001	8b ec		 mov	 ebp, esp
  00003	56		 push	 esi
  00004	8b f1		 mov	 esi, ecx
  00006	e8 00 00 00 00	 call	 ??1RunningManNameWnd@@UAE@XZ ; RunningManNameWnd::~RunningManNameWnd
  0000b	f6 45 08 01	 test	 BYTE PTR ___flags$[ebp], 1
  0000f	74 07		 je	 SHORT $LN1@scalar
  00011	56		 push	 esi
  00012	e8 00 00 00 00	 call	 ??3@YAXPAX@Z		; operator delete
  00017	59		 pop	 ecx
$LN1@scalar:
  00018	8b c6		 mov	 eax, esi
  0001a	5e		 pop	 esi
  0001b	5d		 pop	 ebp
  0001c	c2 04 00	 ret	 4
??_GRunningManNameWnd@@UAEPAXI@Z ENDP			; RunningManNameWnd::`scalar deleting destructor'
_TEXT	ENDS
PUBLIC	??_C@_0BN@IIKBNGPA@RunningManNameWnd?3?3OnProcess?$AA@ ; `string'
PUBLIC	__real@4f800000
PUBLIC	__$ArrayPad$
EXTRN	__imp_?SetTitleText@ioWnd@@QAEXPBD0H@Z:PROC
EXTRN	__imp_?SafeSprintf@@YAXPADHPBDH@Z:PROC
EXTRN	__ftol2_sse:PROC
;	COMDAT ??_C@_0BN@IIKBNGPA@RunningManNameWnd?3?3OnProcess?$AA@
; File d:\lost saga for developer\youtube\tutorial\source\src\lsclient\stdafx.h
CONST	SEGMENT
??_C@_0BN@IIKBNGPA@RunningManNameWnd?3?3OnProcess?$AA@ DB 'RunningManName'
	DB	'Wnd::OnProcess', 00H			; `string'
CONST	ENDS
;	COMDAT __real@4f800000
CONST	SEGMENT
__real@4f800000 DD 04f800000r			; 4.29497e+009
; Function compile flags: /Ogsp
; File d:\lost saga for developer\youtube\tutorial\source\src\lsclient\gui\runningmannamewnd.cpp
CONST	ENDS
;	COMDAT ?OnProcess@RunningManNameWnd@@MAEXM@Z
_TEXT	SEGMENT
tv171 = -268						; size = 4
tv168 = -268						; size = 4
_szBuf$505162 = -264					; size = 260
__$ArrayPad$ = -4					; size = 4
_fTimePerSec$ = 8					; size = 4
?OnProcess@RunningManNameWnd@@MAEXM@Z PROC		; RunningManNameWnd::OnProcess, COMDAT
; _this$ = ecx

; 104  : {

  00000	55		 push	 ebp
  00001	8b ec		 mov	 ebp, esp
  00003	81 ec 0c 01 00
	00		 sub	 esp, 268		; 0000010cH
  00009	a1 00 00 00 00	 mov	 eax, DWORD PTR ___security_cookie
  0000e	33 c5		 xor	 eax, ebp
  00010	89 45 fc	 mov	 DWORD PTR __$ArrayPad$[ebp], eax
  00013	57		 push	 edi
  00014	8b f9		 mov	 edi, ecx

; 105  : 	if( !IsShow() )

  00016	ff 15 00 00 00
	00		 call	 DWORD PTR __imp_?IsShow@ioWnd@@QBE_NXZ
  0001c	84 c0		 test	 al, al
  0001e	0f 84 c5 00 00
	00		 je	 $LN1@OnProcess

; 106  : 		return;
; 107  : 
; 108  : 	if( m_dwEditStartTime == 0 )

  00024	83 bf 60 01 00
	00 00		 cmp	 DWORD PTR [edi+352], 0
  0002b	56		 push	 esi
  0002c	0f 84 b6 00 00
	00		 je	 $LN9@OnProcess

; 109  : 		return;
; 110  : 
; 111  : 	DWORD dwPastTime = REALGETTIME() - m_dwEditStartTime;

  00032	ff 15 00 00 00
	00		 call	 DWORD PTR __imp_?GetSingleton@ioFrameTimer@@SAAAV1@XZ
  00038	8b c8		 mov	 ecx, eax
  0003a	ff 15 00 00 00
	00		 call	 DWORD PTR __imp_?GetTotalSec@ioFrameTimer@@QAEKXZ
  00040	8b c8		 mov	 ecx, eax
  00042	2b 8f 60 01 00
	00		 sub	 ecx, DWORD PTR [edi+352]

; 112  : 	if( dwPastTime < m_dwEditLimitTime )

  00048	3b 8f 64 01 00
	00		 cmp	 ecx, DWORD PTR [edi+356]
  0004e	0f 83 86 00 00
	00		 jae	 $LN2@OnProcess

; 113  : 	{
; 114  : 		char szBuf[MAX_PATH];
; 115  : 		int iRemainSecond = ( m_dwEditLimitTime - dwPastTime ) / FLOAT1000;

  00054	b8 e8 03 00 00	 mov	 eax, 1000		; 000003e8H
  00059	8b 97 64 01 00
	00		 mov	 edx, DWORD PTR [edi+356]
  0005f	2b d1		 sub	 edx, ecx
  00061	89 95 f4 fe ff
	ff		 mov	 DWORD PTR tv171[ebp], edx
  00067	db 85 f4 fe ff
	ff		 fild	 DWORD PTR tv171[ebp]
  0006d	79 06		 jns	 SHORT $LN10@OnProcess
  0006f	d8 05 00 00 00
	00		 fadd	 DWORD PTR __real@4f800000
$LN10@OnProcess:
  00075	89 85 f4 fe ff
	ff		 mov	 DWORD PTR tv168[ebp], eax
  0007b	db 85 f4 fe ff
	ff		 fild	 DWORD PTR tv168[ebp]
  00081	85 c0		 test	 eax, eax
  00083	79 06		 jns	 SHORT $LN11@OnProcess
  00085	d8 05 00 00 00
	00		 fadd	 DWORD PTR __real@4f800000
$LN11@OnProcess:
  0008b	de f9		 fdivp	 ST(1), ST(0)
  0008d	e8 00 00 00 00	 call	 __ftol2_sse

; 116  : 		SafeSprintf( szBuf, sizeof( szBuf ), STR(1), iRemainSecond );

  00092	50		 push	 eax
  00093	6a 00		 push	 0
  00095	6a 01		 push	 1
  00097	be 00 00 00 00	 mov	 esi, OFFSET ??_C@_00CNPNBAHC@?$AA@
  0009c	56		 push	 esi
  0009d	68 00 00 00 00	 push	 OFFSET ??_C@_0BN@IIKBNGPA@RunningManNameWnd?3?3OnProcess?$AA@
  000a2	ff 15 00 00 00
	00		 call	 DWORD PTR __imp_?GetSingleton@ioStringManager@@SAAAV1@XZ
  000a8	8b c8		 mov	 ecx, eax
  000aa	ff 15 00 00 00
	00		 call	 DWORD PTR __imp_?GetString@ioStringManager@@QAEPADPBD0HW4FileNamePrefix@1@@Z
  000b0	50		 push	 eax
  000b1	8d 85 f8 fe ff
	ff		 lea	 eax, DWORD PTR _szBuf$505162[ebp]
  000b7	68 04 01 00 00	 push	 260			; 00000104H
  000bc	50		 push	 eax
  000bd	ff 15 00 00 00
	00		 call	 DWORD PTR __imp_?SafeSprintf@@YAXPADHPBDH@Z
  000c3	83 c4 10	 add	 esp, 16			; 00000010H

; 117  : 		SetTitleText( szBuf );

  000c6	6a 00		 push	 0
  000c8	56		 push	 esi
  000c9	8d 85 f8 fe ff
	ff		 lea	 eax, DWORD PTR _szBuf$505162[ebp]
  000cf	50		 push	 eax
  000d0	8b cf		 mov	 ecx, edi
  000d2	ff 15 00 00 00
	00		 call	 DWORD PTR __imp_?SetTitleText@ioWnd@@QAEXPBD0H@Z

; 118  : 	}
; 119  : 	else

  000d8	eb 0e		 jmp	 SHORT $LN9@OnProcess
$LN2@OnProcess:

; 120  : 	{
; 121  : 		SetEditFocus();    // 디폴트 이름 지정

  000da	8b cf		 mov	 ecx, edi
  000dc	e8 00 00 00 00	 call	 ?SetEditFocus@RunningManNameWnd@@IAEXXZ ; RunningManNameWnd::SetEditFocus

; 122  : 		SendName();

  000e1	8b cf		 mov	 ecx, edi
  000e3	e8 00 00 00 00	 call	 ?SendName@RunningManNameWnd@@IAEXXZ ; RunningManNameWnd::SendName
$LN9@OnProcess:
  000e8	5e		 pop	 esi
$LN1@OnProcess:

; 123  : 	}
; 124  : }

  000e9	8b 4d fc	 mov	 ecx, DWORD PTR __$ArrayPad$[ebp]
  000ec	33 cd		 xor	 ecx, ebp
  000ee	5f		 pop	 edi
  000ef	e8 00 00 00 00	 call	 @__security_check_cookie@4
  000f4	c9		 leave
  000f5	c2 04 00	 ret	 4
?OnProcess@RunningManNameWnd@@MAEXM@Z ENDP		; RunningManNameWnd::OnProcess
_TEXT	ENDS
EXTRN	_atexit:PROC
EXTRN	__imp_??0ioHashString@@QAE@XZ:PROC
; Function compile flags: /Ogsp
;	COMDAT ??__E?m_szSaveName@RunningManNameWnd@@1VioHashString@@A@@YAXXZ
text$yc	SEGMENT
??__E?m_szSaveName@RunningManNameWnd@@1VioHashString@@A@@YAXXZ PROC ; `dynamic initializer for 'RunningManNameWnd::m_szSaveName'', COMDAT

; 29   : ioHashString RunningManNameWnd::m_szSaveName;

  00000	b9 00 00 00 00	 mov	 ecx, OFFSET ?m_szSaveName@RunningManNameWnd@@1VioHashString@@A ; RunningManNameWnd::m_szSaveName
  00005	ff 15 00 00 00
	00		 call	 DWORD PTR __imp_??0ioHashString@@QAE@XZ
  0000b	68 00 00 00 00	 push	 OFFSET ??__F?m_szSaveName@RunningManNameWnd@@1VioHashString@@A@@YAXXZ ; `dynamic atexit destructor for 'RunningManNameWnd::m_szSaveName''
  00010	e8 00 00 00 00	 call	 _atexit
  00015	59		 pop	 ecx
  00016	c3		 ret	 0
??__E?m_szSaveName@RunningManNameWnd@@1VioHashString@@A@@YAXXZ ENDP ; `dynamic initializer for 'RunningManNameWnd::m_szSaveName''
text$yc	ENDS
EXTRN	__imp_??1ioHashString@@QAE@XZ:PROC
; Function compile flags: /Ogsp
;	COMDAT ??__F?m_szSaveName@RunningManNameWnd@@1VioHashString@@A@@YAXXZ
text$yd	SEGMENT
??__F?m_szSaveName@RunningManNameWnd@@1VioHashString@@A@@YAXXZ PROC ; `dynamic atexit destructor for 'RunningManNameWnd::m_szSaveName'', COMDAT
  00000	b9 00 00 00 00	 mov	 ecx, OFFSET ?m_szSaveName@RunningManNameWnd@@1VioHashString@@A ; RunningManNameWnd::m_szSaveName
  00005	ff 25 00 00 00
	00		 jmp	 DWORD PTR __imp_??1ioHashString@@QAE@XZ
??__F?m_szSaveName@RunningManNameWnd@@1VioHashString@@A@@YAXXZ ENDP ; `dynamic atexit destructor for 'RunningManNameWnd::m_szSaveName''
text$yd	ENDS
PUBLIC	?m_szSaveName@RunningManNameWnd@@1VioHashString@@A ; RunningManNameWnd::m_szSaveName
_BSS	SEGMENT
?m_szSaveName@RunningManNameWnd@@1VioHashString@@A DB 010H DUP (?) ; RunningManNameWnd::m_szSaveName
_BSS	ENDS
CRT$XCU	SEGMENT
?m_szSaveName$initializer$@RunningManNameWnd@@1P6AXXZA DD FLAT:??__E?m_szSaveName@RunningManNameWnd@@1VioHashString@@A@@YAXXZ ; RunningManNameWnd::m_szSaveName$initializer$
CRT$XCU	ENDS
END
