; Listing generated by Microsoft (R) Optimizing Compiler Version 16.00.30319.01 

	TITLE	D:\Lost Saga For Developer\Youtube\Tutorial\Source\src\LSClient\GUI\SelectPetTargetBtn.cpp
	.686P
	.XMM
	include listing.inc
	.model	flat

INCLUDELIB MSVCRT
INCLUDELIB OLDNAMES

PUBLIC	??_7SelectPetTargetBtn@@6B@			; SelectPetTargetBtn::`vftable'
PUBLIC	??0SelectPetTargetBtn@@QAE@XZ			; SelectPetTargetBtn::SelectPetTargetBtn
PUBLIC	??_R4SelectPetTargetBtn@@6B@			; SelectPetTargetBtn::`RTTI Complete Object Locator'
PUBLIC	??_R0?AVSelectPetTargetBtn@@@8			; SelectPetTargetBtn `RTTI Type Descriptor'
PUBLIC	??_R3SelectPetTargetBtn@@8			; SelectPetTargetBtn::`RTTI Class Hierarchy Descriptor'
PUBLIC	??_R2SelectPetTargetBtn@@8			; SelectPetTargetBtn::`RTTI Base Class Array'
PUBLIC	??_R1A@?0A@EA@SelectPetTargetBtn@@8		; SelectPetTargetBtn::`RTTI Base Class Descriptor at (0,-1,0,64)'
PUBLIC	??_R1A@?0A@EA@ioButton@@8			; ioButton::`RTTI Base Class Descriptor at (0,-1,0,64)'
PUBLIC	??_R0?AVioButton@@@8				; ioButton `RTTI Type Descriptor'
PUBLIC	??_R3ioButton@@8				; ioButton::`RTTI Class Hierarchy Descriptor'
PUBLIC	??_R2ioButton@@8				; ioButton::`RTTI Base Class Array'
PUBLIC	??_R1A@?0A@EA@ioWnd@@8				; ioWnd::`RTTI Base Class Descriptor at (0,-1,0,64)'
PUBLIC	??_R0?AVioWnd@@@8				; ioWnd `RTTI Type Descriptor'
PUBLIC	??_R3ioWnd@@8					; ioWnd::`RTTI Class Hierarchy Descriptor'
PUBLIC	??_R2ioWnd@@8					; ioWnd::`RTTI Base Class Array'
PUBLIC	?ParseExtraInfo@SelectPetTargetBtn@@UAEXAAVioXMLElement@@@Z ; SelectPetTargetBtn::ParseExtraInfo
PUBLIC	?OnRender@SelectPetTargetBtn@@MAEXXZ		; SelectPetTargetBtn::OnRender
PUBLIC	?iwm_show@SelectPetTargetBtn@@UAEXXZ		; SelectPetTargetBtn::iwm_show
EXTRN	__imp_??1ioHashString@@QAE@XZ:PROC
EXTRN	__imp_??1ioButton@@UAE@XZ:PROC
EXTRN	__imp_?Clear@ioHashString@@QAEXXZ:PROC
EXTRN	__imp_??0ioHashString@@QAE@XZ:PROC
EXTRN	__imp_??0ioButton@@QAE@XZ:PROC
EXTRN	___CxxFrameHandler3:PROC
EXTRN	@__security_check_cookie@4:PROC
EXTRN	__EH_epilog3:PROC
EXTRN	__EH_prolog3:PROC
EXTRN	??_7type_info@@6B@:QWORD			; type_info::`vftable'
EXTRN	?AddRenderFrame@ioButton@@UAEXABVioHashString@@PAVioUIRenderFrame@@@Z:PROC ; ioButton::AddRenderFrame
EXTRN	?AddRenderImage@ioButton@@UAEXABVioHashString@@PAVioUIRenderImage@@@Z:PROC ; ioButton::AddRenderImage
EXTRN	?AddTooltipHelp@ioWnd@@UAEXABVioHashString@@00@Z:PROC ; ioWnd::AddTooltipHelp
EXTRN	?AddNamedRenderImage@ioWnd@@UAEXABVioHashString@@PAVioUIRenderImage@@@Z:PROC ; ioWnd::AddNamedRenderImage
EXTRN	?RemoveNamedRenderImage@ioWnd@@UAEXABVioHashString@@@Z:PROC ; ioWnd::RemoveNamedRenderImage
EXTRN	?GetNamedRenderImage@ioWnd@@UBEPAVioUIRenderImage@@ABVioHashString@@@Z:PROC ; ioWnd::GetNamedRenderImage
EXTRN	?SetWindowAlpha@ioButton@@UAEXH@Z:PROC		; ioButton::SetWindowAlpha
EXTRN	?SetActive@ioWnd@@UAEXXZ:PROC			; ioWnd::SetActive
EXTRN	?SetInActive@ioWnd@@UAEXXZ:PROC			; ioWnd::SetInActive
EXTRN	?ClearElementImageList@ioWnd@@UAEXXZ:PROC	; ioWnd::ClearElementImageList
EXTRN	?SetSize@ioWnd@@UAEXHH@Z:PROC			; ioWnd::SetSize
EXTRN	?SetPositionToDefault@ioWnd@@UAEXHH_N0@Z:PROC	; ioWnd::SetPositionToDefault
EXTRN	?IsNeedProcess@ioWnd@@UBE_NXZ:PROC		; ioWnd::IsNeedProcess
EXTRN	?IsCanMouseReaction@ioWnd@@UBE_NXZ:PROC		; ioWnd::IsCanMouseReaction
EXTRN	?AddChild@ioWnd@@UAEXPAV1@@Z:PROC		; ioWnd::AddChild
EXTRN	?DeleteChild@ioWnd@@UAEXK@Z:PROC		; ioWnd::DeleteChild
EXTRN	?DeleteAllChild@ioWnd@@UAEXXZ:PROC		; ioWnd::DeleteAllChild
EXTRN	?OnRenderShowAndHide@ioWnd@@MAE_NXZ:PROC	; ioWnd::OnRenderShowAndHide
EXTRN	?OnRenderShowAndHideByDefault@ioWnd@@MAE_NK@Z:PROC ; ioWnd::OnRenderShowAndHideByDefault
EXTRN	?OnRenderShowAndHideByTop@ioWnd@@MAE_NK@Z:PROC	; ioWnd::OnRenderShowAndHideByTop
EXTRN	?OnRenderShowAndHideByDown@ioWnd@@MAE_NK@Z:PROC	; ioWnd::OnRenderShowAndHideByDown
EXTRN	?OnRenderAfterChild@ioWnd@@MAEXXZ:PROC		; ioWnd::OnRenderAfterChild
EXTRN	?OnProcess@ioWnd@@MAEXM@Z:PROC			; ioWnd::OnProcess
EXTRN	?OnMouseProcess@ioWnd@@MAEXABVioMouse@@@Z:PROC	; ioWnd::OnMouseProcess
EXTRN	?CheckFrameReSize@ioButton@@MAEXHHHH@Z:PROC	; ioButton::CheckFrameReSize
EXTRN	?RenderImageList@ioWnd@@MAEXHHW4UIRenderType@@@Z:PROC ; ioWnd::RenderImageList
EXTRN	?iwm_create@ioWnd@@UAEXXZ:PROC			; ioWnd::iwm_create
EXTRN	?iwm_destroy@ioWnd@@UAEXXZ:PROC			; ioWnd::iwm_destroy
EXTRN	?iwm_lbuttondown@ioButton@@UAEXABVioMouse@@@Z:PROC ; ioButton::iwm_lbuttondown
EXTRN	?iwm_lbuttonup@ioButton@@UAEXABVioMouse@@@Z:PROC ; ioButton::iwm_lbuttonup
EXTRN	?iwm_lbuttonDBLCLK@ioButton@@UAEXABVioMouse@@@Z:PROC ; ioButton::iwm_lbuttonDBLCLK
EXTRN	?iwm_rbuttondown@ioButton@@UAEXABVioMouse@@@Z:PROC ; ioButton::iwm_rbuttondown
EXTRN	?iwm_rbuttonup@ioButton@@UAEXABVioMouse@@@Z:PROC ; ioButton::iwm_rbuttonup
EXTRN	?iwm_command@ioWnd@@UAEXPAV1@HK@Z:PROC		; ioWnd::iwm_command
EXTRN	?iwm_mouseover@ioButton@@UAEXABVioMouse@@@Z:PROC ; ioButton::iwm_mouseover
EXTRN	?iwm_mousemove@ioWnd@@UAEXABVioMouse@@@Z:PROC	; ioWnd::iwm_mousemove
EXTRN	?iwm_mouseleave@ioWnd@@UAEXABVioMouse@@@Z:PROC	; ioWnd::iwm_mouseleave
EXTRN	?iwm_vscroll@ioWnd@@UAEXKH@Z:PROC		; ioWnd::iwm_vscroll
EXTRN	?iwm_wheel@ioWnd@@UAEXH@Z:PROC			; ioWnd::iwm_wheel
EXTRN	?iwm_hide@ioWnd@@UAEXXZ:PROC			; ioWnd::iwm_hide
EXTRN	?iwm_esc@ioWnd@@UAE_NXZ:PROC			; ioWnd::iwm_esc
EXTRN	?iwm_spacebar@ioWnd@@UAE_NXZ:PROC		; ioWnd::iwm_spacebar
EXTRN	?iwm_gototop@ioWnd@@UAEXXZ:PROC			; ioWnd::iwm_gototop
EXTRN	?iwm_dragenter@ioWnd@@UAE?AW4IWDropEffect@@PAVioDragItem@@ABVioMouse@@@Z:PROC ; ioWnd::iwm_dragenter
EXTRN	?iwm_dragover@ioWnd@@UAE?AW4IWDropEffect@@PAVioDragItem@@ABVioMouse@@@Z:PROC ; ioWnd::iwm_dragover
EXTRN	?iwm_dragleave@ioWnd@@UAEXXZ:PROC		; ioWnd::iwm_dragleave
EXTRN	?iwm_dropitem@ioWnd@@UAE_NPAVioDragItem@@ABVioMouse@@PAV1@@Z:PROC ; ioWnd::iwm_dropitem
EXTRN	?iwm_dropdone@ioWnd@@UAEXPAVioDragItem@@PAV1@_N@Z:PROC ; ioWnd::iwm_dropdone
EXTRN	?IsEXType@ioWnd@@UBE_NXZ:PROC			; ioWnd::IsEXType
EXTRN	?GetWndType@ioButton@@UBEKXZ:PROC		; ioButton::GetWndType
EXTRN	?RenderWnd@ioWnd@@UAEXXZ:PROC			; ioWnd::RenderWnd
EXTRN	?SetIDEX@ioWnd@@UAEXAAK_N@Z:PROC		; ioWnd::SetIDEX
EXTRN	?ParseXML@ioWnd@@UAEXAAVioXMLElement@@@Z:PROC	; ioWnd::ParseXML
EXTRN	?GetHeaderFileName@ioButton@@UAEPBDXZ:PROC	; ioButton::GetHeaderFileName
EXTRN	?GetTemplateName@ioButton@@UAEPBDXZ:PROC	; ioButton::GetTemplateName
EXTRN	?GetDefClassName@ioButton@@UBEPBDXZ:PROC	; ioButton::GetDefClassName
EXTRN	?_Clone@ioButton@@UAEPAVioWnd@@XZ:PROC		; ioButton::_Clone
EXTRN	?Copy@ioButton@@UAEXPAVioWnd@@@Z:PROC		; ioButton::Copy
EXTRN	?Save@ioWnd@@UAE_NAAVioXMLElement@@@Z:PROC	; ioWnd::Save
EXTRN	?SetSaveData@ioButton@@UAEXAAVioXMLElement@@@Z:PROC ; ioButton::SetSaveData
EXTRN	?SetPosX@ioWnd@@UAEXH@Z:PROC			; ioWnd::SetPosX
EXTRN	?SetPosY@ioWnd@@UAEXH@Z:PROC			; ioWnd::SetPosY
EXTRN	?SetWidth@ioWnd@@UAEXH@Z:PROC			; ioWnd::SetWidth
EXTRN	?SetHeight@ioWnd@@UAEXH@Z:PROC			; ioWnd::SetHeight
EXTRN	?GetNumFixedRenderFrame@ioButton@@UBEHXZ:PROC	; ioButton::GetNumFixedRenderFrame
EXTRN	?GetFixedRenderFrameType@ioButton@@UAEPBDH@Z:PROC ; ioButton::GetFixedRenderFrameType
EXTRN	?GetRenderFrame@ioButton@@UAEPAPAVioUIRenderElement@@PBD@Z:PROC ; ioButton::GetRenderFrame
EXTRN	?GetNumFixedRenderImage@ioButton@@UBEHXZ:PROC	; ioButton::GetNumFixedRenderImage
EXTRN	?GetFixedRenderImageType@ioButton@@UAEPBDH@Z:PROC ; ioButton::GetFixedRenderImageType
EXTRN	?GetRenderImage@ioButton@@UAEPAPAVioUIRenderElement@@PBD@Z:PROC ; ioButton::GetRenderImage
EXTRN	?AddEffect@ioWnd@@UAEXABVioHashString@@PAVioUI3DEffectRender@@@Z:PROC ; ioWnd::AddEffect
EXTRN	?GetEffect@ioWnd@@UAEPAVioUI3DEffectRender@@VioHashString@@@Z:PROC ; ioWnd::GetEffect
EXTRN	??_ESelectPetTargetBtn@@UAEPAXI@Z:PROC		; SelectPetTargetBtn::`vector deleting destructor'
EXTRN	?OnDrawNormal@ioButton@@MAEXHH@Z:PROC		; ioButton::OnDrawNormal
EXTRN	?OnDrawOvered@ioButton@@MAEXHH@Z:PROC		; ioButton::OnDrawOvered
EXTRN	?OnDrawOveredAdd@ioButton@@MAEXHH@Z:PROC	; ioButton::OnDrawOveredAdd
EXTRN	?OnDrawPushed@ioButton@@MAEXHH@Z:PROC		; ioButton::OnDrawPushed
EXTRN	?OnDrawDisabled@ioButton@@MAEXHH@Z:PROC		; ioButton::OnDrawDisabled
EXTRN	?OnDrawExDisabledNormal@ioButton@@MAEXHH@Z:PROC	; ioButton::OnDrawExDisabledNormal
EXTRN	?OnDrawExDisabledOvered@ioButton@@MAEXHH@Z:PROC	; ioButton::OnDrawExDisabledOvered
EXTRN	?OnDrawExDisabledPushed@ioButton@@MAEXHH@Z:PROC	; ioButton::OnDrawExDisabledPushed
EXTRN	?OnDrawBack@ioButton@@MAEXHH@Z:PROC		; ioButton::OnDrawBack
EXTRN	?OnDrawNormalList@ioButton@@MAEXHH@Z:PROC	; ioButton::OnDrawNormalList
EXTRN	?OnDrawDisableList@ioButton@@MAEXHH@Z:PROC	; ioButton::OnDrawDisableList
;	COMDAT ??_R2ioWnd@@8
; File d:\lost saga for developer\youtube\tutorial\source\src\lsclient\gui\selectpettargetbtn.cpp
rdata$r	SEGMENT
??_R2ioWnd@@8 DD FLAT:??_R1A@?0A@EA@ioWnd@@8		; ioWnd::`RTTI Base Class Array'
rdata$r	ENDS
;	COMDAT ??_R3ioWnd@@8
rdata$r	SEGMENT
??_R3ioWnd@@8 DD 00H					; ioWnd::`RTTI Class Hierarchy Descriptor'
	DD	00H
	DD	01H
	DD	FLAT:??_R2ioWnd@@8
rdata$r	ENDS
;	COMDAT ??_R0?AVioWnd@@@8
_DATA	SEGMENT
??_R0?AVioWnd@@@8 DD FLAT:??_7type_info@@6B@		; ioWnd `RTTI Type Descriptor'
	DD	00H
	DB	'.?AVioWnd@@', 00H
_DATA	ENDS
;	COMDAT ??_R1A@?0A@EA@ioWnd@@8
rdata$r	SEGMENT
??_R1A@?0A@EA@ioWnd@@8 DD FLAT:??_R0?AVioWnd@@@8	; ioWnd::`RTTI Base Class Descriptor at (0,-1,0,64)'
	DD	00H
	DD	00H
	DD	0ffffffffH
	DD	00H
	DD	040H
	DD	FLAT:??_R3ioWnd@@8
rdata$r	ENDS
;	COMDAT ??_R2ioButton@@8
rdata$r	SEGMENT
??_R2ioButton@@8 DD FLAT:??_R1A@?0A@EA@ioButton@@8	; ioButton::`RTTI Base Class Array'
	DD	FLAT:??_R1A@?0A@EA@ioWnd@@8
rdata$r	ENDS
;	COMDAT ??_R3ioButton@@8
rdata$r	SEGMENT
??_R3ioButton@@8 DD 00H					; ioButton::`RTTI Class Hierarchy Descriptor'
	DD	00H
	DD	02H
	DD	FLAT:??_R2ioButton@@8
rdata$r	ENDS
;	COMDAT ??_R0?AVioButton@@@8
_DATA	SEGMENT
??_R0?AVioButton@@@8 DD FLAT:??_7type_info@@6B@		; ioButton `RTTI Type Descriptor'
	DD	00H
	DB	'.?AVioButton@@', 00H
_DATA	ENDS
;	COMDAT ??_R1A@?0A@EA@ioButton@@8
rdata$r	SEGMENT
??_R1A@?0A@EA@ioButton@@8 DD FLAT:??_R0?AVioButton@@@8	; ioButton::`RTTI Base Class Descriptor at (0,-1,0,64)'
	DD	01H
	DD	00H
	DD	0ffffffffH
	DD	00H
	DD	040H
	DD	FLAT:??_R3ioButton@@8
rdata$r	ENDS
;	COMDAT ??_R1A@?0A@EA@SelectPetTargetBtn@@8
rdata$r	SEGMENT
??_R1A@?0A@EA@SelectPetTargetBtn@@8 DD FLAT:??_R0?AVSelectPetTargetBtn@@@8 ; SelectPetTargetBtn::`RTTI Base Class Descriptor at (0,-1,0,64)'
	DD	02H
	DD	00H
	DD	0ffffffffH
	DD	00H
	DD	040H
	DD	FLAT:??_R3SelectPetTargetBtn@@8
rdata$r	ENDS
;	COMDAT ??_R2SelectPetTargetBtn@@8
rdata$r	SEGMENT
??_R2SelectPetTargetBtn@@8 DD FLAT:??_R1A@?0A@EA@SelectPetTargetBtn@@8 ; SelectPetTargetBtn::`RTTI Base Class Array'
	DD	FLAT:??_R1A@?0A@EA@ioButton@@8
	DD	FLAT:??_R1A@?0A@EA@ioWnd@@8
rdata$r	ENDS
;	COMDAT ??_R3SelectPetTargetBtn@@8
rdata$r	SEGMENT
??_R3SelectPetTargetBtn@@8 DD 00H			; SelectPetTargetBtn::`RTTI Class Hierarchy Descriptor'
	DD	00H
	DD	03H
	DD	FLAT:??_R2SelectPetTargetBtn@@8
rdata$r	ENDS
;	COMDAT ??_R0?AVSelectPetTargetBtn@@@8
_DATA	SEGMENT
??_R0?AVSelectPetTargetBtn@@@8 DD FLAT:??_7type_info@@6B@ ; SelectPetTargetBtn `RTTI Type Descriptor'
	DD	00H
	DB	'.?AVSelectPetTargetBtn@@', 00H
_DATA	ENDS
;	COMDAT ??_R4SelectPetTargetBtn@@6B@
rdata$r	SEGMENT
??_R4SelectPetTargetBtn@@6B@ DD 00H			; SelectPetTargetBtn::`RTTI Complete Object Locator'
	DD	00H
	DD	00H
	DD	FLAT:??_R0?AVSelectPetTargetBtn@@@8
	DD	FLAT:??_R3SelectPetTargetBtn@@8
rdata$r	ENDS
;	COMDAT ??_7SelectPetTargetBtn@@6B@
CONST	SEGMENT
??_7SelectPetTargetBtn@@6B@ DD FLAT:??_R4SelectPetTargetBtn@@6B@ ; SelectPetTargetBtn::`vftable'
	DD	FLAT:?AddRenderFrame@ioButton@@UAEXABVioHashString@@PAVioUIRenderFrame@@@Z
	DD	FLAT:?AddRenderImage@ioButton@@UAEXABVioHashString@@PAVioUIRenderImage@@@Z
	DD	FLAT:?AddTooltipHelp@ioWnd@@UAEXABVioHashString@@00@Z
	DD	FLAT:?ParseExtraInfo@SelectPetTargetBtn@@UAEXAAVioXMLElement@@@Z
	DD	FLAT:?AddNamedRenderImage@ioWnd@@UAEXABVioHashString@@PAVioUIRenderImage@@@Z
	DD	FLAT:?RemoveNamedRenderImage@ioWnd@@UAEXABVioHashString@@@Z
	DD	FLAT:?GetNamedRenderImage@ioWnd@@UBEPAVioUIRenderImage@@ABVioHashString@@@Z
	DD	FLAT:?SetWindowAlpha@ioButton@@UAEXH@Z
	DD	FLAT:?SetActive@ioWnd@@UAEXXZ
	DD	FLAT:?SetInActive@ioWnd@@UAEXXZ
	DD	FLAT:?ClearElementImageList@ioWnd@@UAEXXZ
	DD	FLAT:?SetSize@ioWnd@@UAEXHH@Z
	DD	FLAT:?SetPositionToDefault@ioWnd@@UAEXHH_N0@Z
	DD	FLAT:?IsNeedProcess@ioWnd@@UBE_NXZ
	DD	FLAT:?IsCanMouseReaction@ioWnd@@UBE_NXZ
	DD	FLAT:?AddChild@ioWnd@@UAEXPAV1@@Z
	DD	FLAT:?DeleteChild@ioWnd@@UAEXK@Z
	DD	FLAT:?DeleteAllChild@ioWnd@@UAEXXZ
	DD	FLAT:?OnRenderShowAndHide@ioWnd@@MAE_NXZ
	DD	FLAT:?OnRenderShowAndHideByDefault@ioWnd@@MAE_NK@Z
	DD	FLAT:?OnRenderShowAndHideByTop@ioWnd@@MAE_NK@Z
	DD	FLAT:?OnRenderShowAndHideByDown@ioWnd@@MAE_NK@Z
	DD	FLAT:?OnRender@SelectPetTargetBtn@@MAEXXZ
	DD	FLAT:?OnRenderAfterChild@ioWnd@@MAEXXZ
	DD	FLAT:?OnProcess@ioWnd@@MAEXM@Z
	DD	FLAT:?OnMouseProcess@ioWnd@@MAEXABVioMouse@@@Z
	DD	FLAT:?CheckFrameReSize@ioButton@@MAEXHHHH@Z
	DD	FLAT:?RenderImageList@ioWnd@@MAEXHHW4UIRenderType@@@Z
	DD	FLAT:?iwm_create@ioWnd@@UAEXXZ
	DD	FLAT:?iwm_destroy@ioWnd@@UAEXXZ
	DD	FLAT:?iwm_lbuttondown@ioButton@@UAEXABVioMouse@@@Z
	DD	FLAT:?iwm_lbuttonup@ioButton@@UAEXABVioMouse@@@Z
	DD	FLAT:?iwm_lbuttonDBLCLK@ioButton@@UAEXABVioMouse@@@Z
	DD	FLAT:?iwm_rbuttondown@ioButton@@UAEXABVioMouse@@@Z
	DD	FLAT:?iwm_rbuttonup@ioButton@@UAEXABVioMouse@@@Z
	DD	FLAT:?iwm_command@ioWnd@@UAEXPAV1@HK@Z
	DD	FLAT:?iwm_mouseover@ioButton@@UAEXABVioMouse@@@Z
	DD	FLAT:?iwm_mousemove@ioWnd@@UAEXABVioMouse@@@Z
	DD	FLAT:?iwm_mouseleave@ioWnd@@UAEXABVioMouse@@@Z
	DD	FLAT:?iwm_vscroll@ioWnd@@UAEXKH@Z
	DD	FLAT:?iwm_wheel@ioWnd@@UAEXH@Z
	DD	FLAT:?iwm_show@SelectPetTargetBtn@@UAEXXZ
	DD	FLAT:?iwm_hide@ioWnd@@UAEXXZ
	DD	FLAT:?iwm_esc@ioWnd@@UAE_NXZ
	DD	FLAT:?iwm_spacebar@ioWnd@@UAE_NXZ
	DD	FLAT:?iwm_gototop@ioWnd@@UAEXXZ
	DD	FLAT:?iwm_dragenter@ioWnd@@UAE?AW4IWDropEffect@@PAVioDragItem@@ABVioMouse@@@Z
	DD	FLAT:?iwm_dragover@ioWnd@@UAE?AW4IWDropEffect@@PAVioDragItem@@ABVioMouse@@@Z
	DD	FLAT:?iwm_dragleave@ioWnd@@UAEXXZ
	DD	FLAT:?iwm_dropitem@ioWnd@@UAE_NPAVioDragItem@@ABVioMouse@@PAV1@@Z
	DD	FLAT:?iwm_dropdone@ioWnd@@UAEXPAVioDragItem@@PAV1@_N@Z
	DD	FLAT:?IsEXType@ioWnd@@UBE_NXZ
	DD	FLAT:?GetWndType@ioButton@@UBEKXZ
	DD	FLAT:?RenderWnd@ioWnd@@UAEXXZ
	DD	FLAT:?SetIDEX@ioWnd@@UAEXAAK_N@Z
	DD	FLAT:?ParseXML@ioWnd@@UAEXAAVioXMLElement@@@Z
	DD	FLAT:?GetHeaderFileName@ioButton@@UAEPBDXZ
	DD	FLAT:?GetTemplateName@ioButton@@UAEPBDXZ
	DD	FLAT:?GetDefClassName@ioButton@@UBEPBDXZ
	DD	FLAT:?_Clone@ioButton@@UAEPAVioWnd@@XZ
	DD	FLAT:?Copy@ioButton@@UAEXPAVioWnd@@@Z
	DD	FLAT:?Save@ioWnd@@UAE_NAAVioXMLElement@@@Z
	DD	FLAT:?SetSaveData@ioButton@@UAEXAAVioXMLElement@@@Z
	DD	FLAT:?SetPosX@ioWnd@@UAEXH@Z
	DD	FLAT:?SetPosY@ioWnd@@UAEXH@Z
	DD	FLAT:?SetWidth@ioWnd@@UAEXH@Z
	DD	FLAT:?SetHeight@ioWnd@@UAEXH@Z
	DD	FLAT:?GetNumFixedRenderFrame@ioButton@@UBEHXZ
	DD	FLAT:?GetFixedRenderFrameType@ioButton@@UAEPBDH@Z
	DD	FLAT:?GetRenderFrame@ioButton@@UAEPAPAVioUIRenderElement@@PBD@Z
	DD	FLAT:?GetNumFixedRenderImage@ioButton@@UBEHXZ
	DD	FLAT:?GetFixedRenderImageType@ioButton@@UAEPBDH@Z
	DD	FLAT:?GetRenderImage@ioButton@@UAEPAPAVioUIRenderElement@@PBD@Z
	DD	FLAT:?AddEffect@ioWnd@@UAEXABVioHashString@@PAVioUI3DEffectRender@@@Z
	DD	FLAT:?GetEffect@ioWnd@@UAEPAVioUI3DEffectRender@@VioHashString@@@Z
	DD	FLAT:??_ESelectPetTargetBtn@@UAEPAXI@Z
	DD	FLAT:?OnDrawNormal@ioButton@@MAEXHH@Z
	DD	FLAT:?OnDrawOvered@ioButton@@MAEXHH@Z
	DD	FLAT:?OnDrawOveredAdd@ioButton@@MAEXHH@Z
	DD	FLAT:?OnDrawPushed@ioButton@@MAEXHH@Z
	DD	FLAT:?OnDrawDisabled@ioButton@@MAEXHH@Z
	DD	FLAT:?OnDrawExDisabledNormal@ioButton@@MAEXHH@Z
	DD	FLAT:?OnDrawExDisabledOvered@ioButton@@MAEXHH@Z
	DD	FLAT:?OnDrawExDisabledPushed@ioButton@@MAEXHH@Z
	DD	FLAT:?OnDrawBack@ioButton@@MAEXHH@Z
	DD	FLAT:?OnDrawNormalList@ioButton@@MAEXHH@Z
	DD	FLAT:?OnDrawDisableList@ioButton@@MAEXHH@Z
CONST	ENDS
;	COMDAT xdata$x
xdata$x	SEGMENT
__unwindtable$??0SelectPetTargetBtn@@QAE@XZ DD 0ffffffffH
	DD	FLAT:__unwindfunclet$??0SelectPetTargetBtn@@QAE@XZ$0
	DD	00H
	DD	FLAT:__unwindfunclet$??0SelectPetTargetBtn@@QAE@XZ$1
	DD	01H
	DD	FLAT:__unwindfunclet$??0SelectPetTargetBtn@@QAE@XZ$2
__ehfuncinfo$??0SelectPetTargetBtn@@QAE@XZ DD 019930522H
	DD	03H
	DD	FLAT:__unwindtable$??0SelectPetTargetBtn@@QAE@XZ
	DD	2 DUP(00H)
	DD	2 DUP(00H)
	DD	00H
	DD	01H
; Function compile flags: /Ogsp
xdata$x	ENDS
;	COMDAT ??0SelectPetTargetBtn@@QAE@XZ
_TEXT	SEGMENT
_this$ = -16						; size = 4
__$EHRec$ = -12						; size = 12
??0SelectPetTargetBtn@@QAE@XZ PROC			; SelectPetTargetBtn::SelectPetTargetBtn, COMDAT
; _this$ = ecx

; 9    : {

  00000	6a 04		 push	 4
  00002	b8 00 00 00 00	 mov	 eax, __ehhandler$??0SelectPetTargetBtn@@QAE@XZ
  00007	e8 00 00 00 00	 call	 __EH_prolog3
  0000c	8b f1		 mov	 esi, ecx
  0000e	89 75 f0	 mov	 DWORD PTR _this$[ebp], esi
  00011	ff 15 00 00 00
	00		 call	 DWORD PTR __imp_??0ioButton@@QAE@XZ
  00017	8b 3d 00 00 00
	00		 mov	 edi, DWORD PTR __imp_??0ioHashString@@QAE@XZ
  0001d	83 65 fc 00	 and	 DWORD PTR __$EHRec$[ebp+8], 0
  00021	8d 8e 04 02 00
	00		 lea	 ecx, DWORD PTR [esi+516]
  00027	c7 06 00 00 00
	00		 mov	 DWORD PTR [esi], OFFSET ??_7SelectPetTargetBtn@@6B@
  0002d	ff d7		 call	 edi
  0002f	8d 8e 14 02 00
	00		 lea	 ecx, DWORD PTR [esi+532]
  00035	c6 45 fc 01	 mov	 BYTE PTR __$EHRec$[ebp+8], 1
  00039	ff d7		 call	 edi

; 10   : 	m_nCurSelectSlot = 0;

  0003b	83 a6 fc 01 00
	00 00		 and	 DWORD PTR [esi+508], 0

; 11   : 	m_szSelectText.Clear();

  00042	8d 8e 14 02 00
	00		 lea	 ecx, DWORD PTR [esi+532]
  00048	c6 45 fc 02	 mov	 BYTE PTR __$EHRec$[ebp+8], 2
  0004c	ff 15 00 00 00
	00		 call	 DWORD PTR __imp_?Clear@ioHashString@@QAEXXZ

; 12   : }

  00052	8b c6		 mov	 eax, esi
  00054	e8 00 00 00 00	 call	 __EH_epilog3
  00059	c3		 ret	 0
_TEXT	ENDS
;	COMDAT text$x
text$x	SEGMENT
__unwindfunclet$??0SelectPetTargetBtn@@QAE@XZ$0:
  00000	8b 4d f0	 mov	 ecx, DWORD PTR _this$[ebp]
  00003	ff 25 00 00 00
	00		 jmp	 DWORD PTR __imp_??1ioButton@@UAE@XZ
__unwindfunclet$??0SelectPetTargetBtn@@QAE@XZ$1:
  00009	8b 4d f0	 mov	 ecx, DWORD PTR _this$[ebp]
  0000c	81 c1 04 02 00
	00		 add	 ecx, 516		; 00000204H
  00012	ff 25 00 00 00
	00		 jmp	 DWORD PTR __imp_??1ioHashString@@QAE@XZ
__unwindfunclet$??0SelectPetTargetBtn@@QAE@XZ$2:
  00018	8b 4d f0	 mov	 ecx, DWORD PTR _this$[ebp]
  0001b	81 c1 14 02 00
	00		 add	 ecx, 532		; 00000214H
  00021	ff 25 00 00 00
	00		 jmp	 DWORD PTR __imp_??1ioHashString@@QAE@XZ
__ehhandler$??0SelectPetTargetBtn@@QAE@XZ:
  00027	8b 54 24 08	 mov	 edx, DWORD PTR [esp+8]
  0002b	8d 42 0c	 lea	 eax, DWORD PTR [edx+12]
  0002e	8b 4a ec	 mov	 ecx, DWORD PTR [edx-20]
  00031	33 c8		 xor	 ecx, eax
  00033	e8 00 00 00 00	 call	 @__security_check_cookie@4
  00038	b8 00 00 00 00	 mov	 eax, OFFSET __ehfuncinfo$??0SelectPetTargetBtn@@QAE@XZ
  0003d	e9 00 00 00 00	 jmp	 ___CxxFrameHandler3
text$x	ENDS
??0SelectPetTargetBtn@@QAE@XZ ENDP			; SelectPetTargetBtn::SelectPetTargetBtn
PUBLIC	??1SelectPetTargetBtn@@UAE@XZ			; SelectPetTargetBtn::~SelectPetTargetBtn
;	COMDAT xdata$x
xdata$x	SEGMENT
__unwindtable$??1SelectPetTargetBtn@@UAE@XZ DD 0ffffffffH
	DD	FLAT:__unwindfunclet$??1SelectPetTargetBtn@@UAE@XZ$0
	DD	00H
	DD	FLAT:__unwindfunclet$??1SelectPetTargetBtn@@UAE@XZ$1
__ehfuncinfo$??1SelectPetTargetBtn@@UAE@XZ DD 019930522H
	DD	02H
	DD	FLAT:__unwindtable$??1SelectPetTargetBtn@@UAE@XZ
	DD	2 DUP(00H)
	DD	2 DUP(00H)
	DD	00H
	DD	01H
; Function compile flags: /Ogsp
xdata$x	ENDS
;	COMDAT ??1SelectPetTargetBtn@@UAE@XZ
_TEXT	SEGMENT
_this$ = -16						; size = 4
__$EHRec$ = -12						; size = 12
??1SelectPetTargetBtn@@UAE@XZ PROC			; SelectPetTargetBtn::~SelectPetTargetBtn, COMDAT
; _this$ = ecx

; 15   : {

  00000	6a 04		 push	 4
  00002	b8 00 00 00 00	 mov	 eax, __ehhandler$??1SelectPetTargetBtn@@UAE@XZ
  00007	e8 00 00 00 00	 call	 __EH_prolog3
  0000c	8b f1		 mov	 esi, ecx
  0000e	89 75 f0	 mov	 DWORD PTR _this$[ebp], esi
  00011	c7 06 00 00 00
	00		 mov	 DWORD PTR [esi], OFFSET ??_7SelectPetTargetBtn@@6B@

; 16   : }

  00017	8b 3d 00 00 00
	00		 mov	 edi, DWORD PTR __imp_??1ioHashString@@QAE@XZ
  0001d	8d 8e 14 02 00
	00		 lea	 ecx, DWORD PTR [esi+532]
  00023	c7 45 fc 01 00
	00 00		 mov	 DWORD PTR __$EHRec$[ebp+8], 1
  0002a	ff d7		 call	 edi
  0002c	8d 8e 04 02 00
	00		 lea	 ecx, DWORD PTR [esi+516]
  00032	c6 45 fc 00	 mov	 BYTE PTR __$EHRec$[ebp+8], 0
  00036	ff d7		 call	 edi
  00038	83 4d fc ff	 or	 DWORD PTR __$EHRec$[ebp+8], -1
  0003c	8b ce		 mov	 ecx, esi
  0003e	ff 15 00 00 00
	00		 call	 DWORD PTR __imp_??1ioButton@@UAE@XZ
  00044	e8 00 00 00 00	 call	 __EH_epilog3
  00049	c3		 ret	 0
_TEXT	ENDS
;	COMDAT text$x
text$x	SEGMENT
__unwindfunclet$??1SelectPetTargetBtn@@UAE@XZ$0:
  00000	8b 4d f0	 mov	 ecx, DWORD PTR _this$[ebp]
  00003	ff 25 00 00 00
	00		 jmp	 DWORD PTR __imp_??1ioButton@@UAE@XZ
__unwindfunclet$??1SelectPetTargetBtn@@UAE@XZ$1:
  00009	8b 4d f0	 mov	 ecx, DWORD PTR _this$[ebp]
  0000c	81 c1 04 02 00
	00		 add	 ecx, 516		; 00000204H
  00012	ff 25 00 00 00
	00		 jmp	 DWORD PTR __imp_??1ioHashString@@QAE@XZ
__ehhandler$??1SelectPetTargetBtn@@UAE@XZ:
  00018	8b 54 24 08	 mov	 edx, DWORD PTR [esp+8]
  0001c	8d 42 0c	 lea	 eax, DWORD PTR [edx+12]
  0001f	8b 4a ec	 mov	 ecx, DWORD PTR [edx-20]
  00022	33 c8		 xor	 ecx, eax
  00024	e8 00 00 00 00	 call	 @__security_check_cookie@4
  00029	b8 00 00 00 00	 mov	 eax, OFFSET __ehfuncinfo$??1SelectPetTargetBtn@@UAE@XZ
  0002e	e9 00 00 00 00	 jmp	 ___CxxFrameHandler3
text$x	ENDS
??1SelectPetTargetBtn@@UAE@XZ ENDP			; SelectPetTargetBtn::~SelectPetTargetBtn
; Function compile flags: /Ogsp
;	COMDAT ?iwm_show@SelectPetTargetBtn@@UAEXXZ
_TEXT	SEGMENT
?iwm_show@SelectPetTargetBtn@@UAEXXZ PROC		; SelectPetTargetBtn::iwm_show, COMDAT
; _this$ = ecx

; 20   : 	m_nCurSelectSlot = 0;

  00000	83 a1 fc 01 00
	00 00		 and	 DWORD PTR [ecx+508], 0

; 21   : 	m_dwCurTitleColor = TCT_DEFAULT_DARKGRAY;

  00007	c7 81 00 02 00
	00 3a 3a 3a ff	 mov	 DWORD PTR [ecx+512], -12961222 ; ff3a3a3aH

; 22   : 	m_szSelectText.Clear();

  00011	81 c1 14 02 00
	00		 add	 ecx, 532		; 00000214H
  00017	ff 25 00 00 00
	00		 jmp	 DWORD PTR __imp_?Clear@ioHashString@@QAEXXZ
?iwm_show@SelectPetTargetBtn@@UAEXXZ ENDP		; SelectPetTargetBtn::iwm_show
_TEXT	ENDS
PUBLIC	??_C@_00CNPNBAHC@?$AA@				; `string'
PUBLIC	??_C@_04KGLMKACB@Push?$AA@			; `string'
PUBLIC	??_C@_04PODPCKIF@Over?$AA@			; `string'
PUBLIC	??_C@_06EFAGIKOH@Normal?$AA@			; `string'
EXTRN	__imp_?SetTitleText@ioWnd@@QAEXPBD0H@Z:PROC
EXTRN	__imp_?c_str@ioHashString@@QBEPBDXZ:PROC
EXTRN	__imp_?SetColor@ioUITitle@@QAEXABVioHashString@@KK@Z:PROC
EXTRN	__imp_??0ioHashString@@QAE@PBD@Z:PROC
EXTRN	__imp_?GetTitle@ioWnd@@QBEPAVioUITitle@@XZ:PROC
EXTRN	__imp_?OnRender@ioButton@@MAEXXZ:PROC
;	COMDAT ??_C@_00CNPNBAHC@?$AA@
CONST	SEGMENT
??_C@_00CNPNBAHC@?$AA@ DB 00H				; `string'
CONST	ENDS
;	COMDAT ??_C@_04KGLMKACB@Push?$AA@
CONST	SEGMENT
??_C@_04KGLMKACB@Push?$AA@ DB 'Push', 00H		; `string'
CONST	ENDS
;	COMDAT ??_C@_04PODPCKIF@Over?$AA@
CONST	SEGMENT
??_C@_04PODPCKIF@Over?$AA@ DB 'Over', 00H		; `string'
CONST	ENDS
;	COMDAT ??_C@_06EFAGIKOH@Normal?$AA@
CONST	SEGMENT
??_C@_06EFAGIKOH@Normal?$AA@ DB 'Normal', 00H		; `string'
CONST	ENDS
;	COMDAT xdata$x
xdata$x	SEGMENT
__unwindtable$?OnRender@SelectPetTargetBtn@@MAEXXZ DD 0ffffffffH
	DD	FLAT:__unwindfunclet$?OnRender@SelectPetTargetBtn@@MAEXXZ$0
	DD	0ffffffffH
	DD	FLAT:__unwindfunclet$?OnRender@SelectPetTargetBtn@@MAEXXZ$1
	DD	0ffffffffH
	DD	FLAT:__unwindfunclet$?OnRender@SelectPetTargetBtn@@MAEXXZ$2
__ehfuncinfo$?OnRender@SelectPetTargetBtn@@MAEXXZ DD 019930522H
	DD	03H
	DD	FLAT:__unwindtable$?OnRender@SelectPetTargetBtn@@MAEXXZ
	DD	2 DUP(00H)
	DD	2 DUP(00H)
	DD	00H
	DD	01H
; Function compile flags: /Ogsp
xdata$x	ENDS
;	COMDAT ?OnRender@SelectPetTargetBtn@@MAEXXZ
_TEXT	SEGMENT
$T505528 = -48						; size = 16
$T505527 = -32						; size = 16
$T505526 = -32						; size = 16
_pTitle$ = -16						; size = 4
__$EHRec$ = -12						; size = 12
?OnRender@SelectPetTargetBtn@@MAEXXZ PROC		; SelectPetTargetBtn::OnRender, COMDAT
; _this$ = ecx

; 28   : {

  00000	6a 24		 push	 36			; 00000024H
  00002	b8 00 00 00 00	 mov	 eax, __ehhandler$?OnRender@SelectPetTargetBtn@@MAEXXZ
  00007	e8 00 00 00 00	 call	 __EH_prolog3
  0000c	8b f1		 mov	 esi, ecx

; 29   : 	ioButton::OnRender();

  0000e	ff 15 00 00 00
	00		 call	 DWORD PTR __imp_?OnRender@ioButton@@MAEXXZ

; 30   : 
; 31   : 	ioUITitle *pTitle =  GetTitle();

  00014	8b ce		 mov	 ecx, esi
  00016	ff 15 00 00 00
	00		 call	 DWORD PTR __imp_?GetTitle@ioWnd@@QBEPAVioUITitle@@XZ
  0001c	89 45 f0	 mov	 DWORD PTR _pTitle$[ebp], eax

; 32   : 	if( pTitle )

  0001f	85 c0		 test	 eax, eax
  00021	0f 84 9f 00 00
	00		 je	 $LN3@OnRender

; 33   : 	{
; 34   : 		pTitle->SetColor( "Normal", m_dwCurTitleColor, 0xFF000000 );

  00027	8b 3d 00 00 00
	00		 mov	 edi, DWORD PTR __imp_??0ioHashString@@QAE@PBD@Z
  0002d	68 00 00 00 00	 push	 OFFSET ??_C@_06EFAGIKOH@Normal?$AA@
  00032	8d 4d e0	 lea	 ecx, DWORD PTR $T505526[ebp]
  00035	ff d7		 call	 edi
  00037	8b 4d f0	 mov	 ecx, DWORD PTR _pTitle$[ebp]
  0003a	8b 1d 00 00 00
	00		 mov	 ebx, DWORD PTR __imp_?SetColor@ioUITitle@@QAEXABVioHashString@@KK@Z
  00040	83 65 fc 00	 and	 DWORD PTR __$EHRec$[ebp+8], 0
  00044	68 00 00 00 ff	 push	 -16777216		; ff000000H
  00049	ff b6 00 02 00
	00		 push	 DWORD PTR [esi+512]
  0004f	8d 45 e0	 lea	 eax, DWORD PTR $T505526[ebp]
  00052	50		 push	 eax
  00053	ff d3		 call	 ebx
  00055	83 4d fc ff	 or	 DWORD PTR __$EHRec$[ebp+8], -1
  00059	8d 4d e0	 lea	 ecx, DWORD PTR $T505526[ebp]
  0005c	ff 15 00 00 00
	00		 call	 DWORD PTR __imp_??1ioHashString@@QAE@XZ

; 35   : 		pTitle->SetColor( "Over", m_dwCurTitleColor, 0xFF000000 );

  00062	68 00 00 00 00	 push	 OFFSET ??_C@_04PODPCKIF@Over?$AA@
  00067	8d 4d e0	 lea	 ecx, DWORD PTR $T505527[ebp]
  0006a	ff d7		 call	 edi
  0006c	8b 4d f0	 mov	 ecx, DWORD PTR _pTitle$[ebp]
  0006f	68 00 00 00 ff	 push	 -16777216		; ff000000H
  00074	ff b6 00 02 00
	00		 push	 DWORD PTR [esi+512]
  0007a	8d 45 e0	 lea	 eax, DWORD PTR $T505527[ebp]
  0007d	50		 push	 eax
  0007e	c7 45 fc 01 00
	00 00		 mov	 DWORD PTR __$EHRec$[ebp+8], 1
  00085	ff d3		 call	 ebx
  00087	83 4d fc ff	 or	 DWORD PTR __$EHRec$[ebp+8], -1
  0008b	8d 4d e0	 lea	 ecx, DWORD PTR $T505527[ebp]
  0008e	ff 15 00 00 00
	00		 call	 DWORD PTR __imp_??1ioHashString@@QAE@XZ

; 36   : 		pTitle->SetColor( "Push", m_dwCurTitleColor, 0xFF000000 );

  00094	68 00 00 00 00	 push	 OFFSET ??_C@_04KGLMKACB@Push?$AA@
  00099	8d 4d d0	 lea	 ecx, DWORD PTR $T505528[ebp]
  0009c	ff d7		 call	 edi
  0009e	8b 4d f0	 mov	 ecx, DWORD PTR _pTitle$[ebp]
  000a1	68 00 00 00 ff	 push	 -16777216		; ff000000H
  000a6	ff b6 00 02 00
	00		 push	 DWORD PTR [esi+512]
  000ac	8d 45 d0	 lea	 eax, DWORD PTR $T505528[ebp]
  000af	50		 push	 eax
  000b0	c7 45 fc 02 00
	00 00		 mov	 DWORD PTR __$EHRec$[ebp+8], 2
  000b7	ff d3		 call	 ebx
  000b9	83 4d fc ff	 or	 DWORD PTR __$EHRec$[ebp+8], -1
  000bd	8d 4d d0	 lea	 ecx, DWORD PTR $T505528[ebp]
  000c0	ff 15 00 00 00
	00		 call	 DWORD PTR __imp_??1ioHashString@@QAE@XZ
$LN3@OnRender:

; 37   : 	}
; 38   : 
; 39   : 	if( m_nCurSelectSlot > 0 )

  000c6	33 c0		 xor	 eax, eax

; 40   : 		SetTitleText( m_szSelectText.c_str() );

  000c8	50		 push	 eax
  000c9	68 00 00 00 00	 push	 OFFSET ??_C@_00CNPNBAHC@?$AA@
  000ce	8d 8e 14 02 00
	00		 lea	 ecx, DWORD PTR [esi+532]
  000d4	39 86 fc 01 00
	00		 cmp	 DWORD PTR [esi+508], eax
  000da	7f 06		 jg	 SHORT $LN10@OnRender

; 41   : 	else
; 42   : 		SetTitleText( m_szDefaultText.c_str() );

  000dc	8d 8e 04 02 00
	00		 lea	 ecx, DWORD PTR [esi+516]
$LN10@OnRender:
  000e2	ff 15 00 00 00
	00		 call	 DWORD PTR __imp_?c_str@ioHashString@@QBEPBDXZ
  000e8	50		 push	 eax
  000e9	8b ce		 mov	 ecx, esi
  000eb	ff 15 00 00 00
	00		 call	 DWORD PTR __imp_?SetTitleText@ioWnd@@QAEXPBD0H@Z

; 43   : }

  000f1	e8 00 00 00 00	 call	 __EH_epilog3
  000f6	c3		 ret	 0
_TEXT	ENDS
;	COMDAT text$x
text$x	SEGMENT
__unwindfunclet$?OnRender@SelectPetTargetBtn@@MAEXXZ$0:
  00000	8d 4d e0	 lea	 ecx, DWORD PTR $T505526[ebp]
  00003	ff 25 00 00 00
	00		 jmp	 DWORD PTR __imp_??1ioHashString@@QAE@XZ
__unwindfunclet$?OnRender@SelectPetTargetBtn@@MAEXXZ$1:
  00009	8d 4d e0	 lea	 ecx, DWORD PTR $T505527[ebp]
  0000c	ff 25 00 00 00
	00		 jmp	 DWORD PTR __imp_??1ioHashString@@QAE@XZ
__unwindfunclet$?OnRender@SelectPetTargetBtn@@MAEXXZ$2:
  00012	8d 4d d0	 lea	 ecx, DWORD PTR $T505528[ebp]
  00015	ff 25 00 00 00
	00		 jmp	 DWORD PTR __imp_??1ioHashString@@QAE@XZ
__ehhandler$?OnRender@SelectPetTargetBtn@@MAEXXZ:
  0001b	8b 54 24 08	 mov	 edx, DWORD PTR [esp+8]
  0001f	8d 42 0c	 lea	 eax, DWORD PTR [edx+12]
  00022	8b 4a cc	 mov	 ecx, DWORD PTR [edx-52]
  00025	33 c8		 xor	 ecx, eax
  00027	e8 00 00 00 00	 call	 @__security_check_cookie@4
  0002c	b8 00 00 00 00	 mov	 eax, OFFSET __ehfuncinfo$?OnRender@SelectPetTargetBtn@@MAEXXZ
  00031	e9 00 00 00 00	 jmp	 ___CxxFrameHandler3
text$x	ENDS
?OnRender@SelectPetTargetBtn@@MAEXXZ ENDP		; SelectPetTargetBtn::OnRender
PUBLIC	?InitData@SelectPetTargetBtn@@QAEXXZ		; SelectPetTargetBtn::InitData
; Function compile flags: /Ogsp
;	COMDAT ?InitData@SelectPetTargetBtn@@QAEXXZ
_TEXT	SEGMENT
?InitData@SelectPetTargetBtn@@QAEXXZ PROC		; SelectPetTargetBtn::InitData, COMDAT
; _this$ = ecx

; 59   : 	m_nCurSelectSlot = 0;

  00000	83 a1 fc 01 00
	00 00		 and	 DWORD PTR [ecx+508], 0

; 60   : 	m_dwCurTitleColor = TCT_DEFAULT_DARKGRAY;

  00007	c7 81 00 02 00
	00 3a 3a 3a ff	 mov	 DWORD PTR [ecx+512], -12961222 ; ff3a3a3aH

; 61   : 	m_szSelectText.Clear();

  00011	81 c1 14 02 00
	00		 add	 ecx, 532		; 00000214H
  00017	ff 25 00 00 00
	00		 jmp	 DWORD PTR __imp_?Clear@ioHashString@@QAEXXZ
?InitData@SelectPetTargetBtn@@QAEXXZ ENDP		; SelectPetTargetBtn::InitData
_TEXT	ENDS
PUBLIC	??1tagPetSlot@@QAE@XZ				; tagPetSlot::~tagPetSlot
;	COMDAT xdata$x
xdata$x	SEGMENT
__unwindtable$??1tagPetSlot@@QAE@XZ DD 0ffffffffH
	DD	FLAT:__unwindfunclet$??1tagPetSlot@@QAE@XZ$0
__ehfuncinfo$??1tagPetSlot@@QAE@XZ DD 019930522H
	DD	01H
	DD	FLAT:__unwindtable$??1tagPetSlot@@QAE@XZ
	DD	2 DUP(00H)
	DD	2 DUP(00H)
	DD	00H
	DD	01H
; Function compile flags: /Ogsp
xdata$x	ENDS
;	COMDAT ??1tagPetSlot@@QAE@XZ
_TEXT	SEGMENT
_this$ = -16						; size = 4
__$EHRec$ = -12						; size = 12
??1tagPetSlot@@QAE@XZ PROC				; tagPetSlot::~tagPetSlot, COMDAT
; _this$ = ecx
  00000	6a 04		 push	 4
  00002	b8 00 00 00 00	 mov	 eax, __ehhandler$??1tagPetSlot@@QAE@XZ
  00007	e8 00 00 00 00	 call	 __EH_prolog3
  0000c	8b f9		 mov	 edi, ecx
  0000e	89 7d f0	 mov	 DWORD PTR _this$[ebp], edi
  00011	8b 35 00 00 00
	00		 mov	 esi, DWORD PTR __imp_??1ioHashString@@QAE@XZ
  00017	83 65 fc 00	 and	 DWORD PTR __$EHRec$[ebp+8], 0
  0001b	8d 4f 28	 lea	 ecx, DWORD PTR [edi+40]
  0001e	ff d6		 call	 esi
  00020	83 4d fc ff	 or	 DWORD PTR __$EHRec$[ebp+8], -1
  00024	8d 4f 18	 lea	 ecx, DWORD PTR [edi+24]
  00027	ff d6		 call	 esi
  00029	e8 00 00 00 00	 call	 __EH_epilog3
  0002e	c3		 ret	 0
_TEXT	ENDS
;	COMDAT text$x
text$x	SEGMENT
__unwindfunclet$??1tagPetSlot@@QAE@XZ$0:
  00000	8b 4d f0	 mov	 ecx, DWORD PTR _this$[ebp]
  00003	83 c1 18	 add	 ecx, 24			; 00000018H
  00006	ff 25 00 00 00
	00		 jmp	 DWORD PTR __imp_??1ioHashString@@QAE@XZ
__ehhandler$??1tagPetSlot@@QAE@XZ:
  0000c	8b 54 24 08	 mov	 edx, DWORD PTR [esp+8]
  00010	8d 42 0c	 lea	 eax, DWORD PTR [edx+12]
  00013	8b 4a ec	 mov	 ecx, DWORD PTR [edx-20]
  00016	33 c8		 xor	 ecx, eax
  00018	e8 00 00 00 00	 call	 @__security_check_cookie@4
  0001d	b8 00 00 00 00	 mov	 eax, OFFSET __ehfuncinfo$??1tagPetSlot@@QAE@XZ
  00022	e9 00 00 00 00	 jmp	 ___CxxFrameHandler3
text$x	ENDS
??1tagPetSlot@@QAE@XZ ENDP				; tagPetSlot::~tagPetSlot
PUBLIC	?SetSelectMaterial@SelectPetTargetBtn@@QAEXHVioHashString@@@Z ; SelectPetTargetBtn::SetSelectMaterial
EXTRN	__imp_??4ioHashString@@QAEAAV0@ABV0@@Z:PROC
;	COMDAT xdata$x
xdata$x	SEGMENT
__unwindtable$?SetSelectMaterial@SelectPetTargetBtn@@QAEXHVioHashString@@@Z DD 0ffffffffH
	DD	FLAT:__unwindfunclet$?SetSelectMaterial@SelectPetTargetBtn@@QAEXHVioHashString@@@Z$0
__ehfuncinfo$?SetSelectMaterial@SelectPetTargetBtn@@QAEXHVioHashString@@@Z DD 019930522H
	DD	01H
	DD	FLAT:__unwindtable$?SetSelectMaterial@SelectPetTargetBtn@@QAEXHVioHashString@@@Z
	DD	2 DUP(00H)
	DD	2 DUP(00H)
	DD	00H
	DD	01H
; Function compile flags: /Ogsp
xdata$x	ENDS
;	COMDAT ?SetSelectMaterial@SelectPetTargetBtn@@QAEXHVioHashString@@@Z
_TEXT	SEGMENT
__$EHRec$ = -12						; size = 12
_nSelectMaterial$ = 8					; size = 4
_szTitle$ = 12						; size = 16
?SetSelectMaterial@SelectPetTargetBtn@@QAEXHVioHashString@@@Z PROC ; SelectPetTargetBtn::SetSelectMaterial, COMDAT
; _this$ = ecx

; 89   : {

  00000	6a 00		 push	 0
  00002	b8 00 00 00 00	 mov	 eax, __ehhandler$?SetSelectMaterial@SelectPetTargetBtn@@QAEXHVioHashString@@@Z
  00007	e8 00 00 00 00	 call	 __EH_prolog3

; 90   : 	m_nCurSelectSlot = nSelectMaterial;	

  0000c	8b 45 08	 mov	 eax, DWORD PTR _nSelectMaterial$[ebp]
  0000f	83 65 fc 00	 and	 DWORD PTR __$EHRec$[ebp+8], 0
  00013	89 81 fc 01 00
	00		 mov	 DWORD PTR [ecx+508], eax

; 91   : 	m_szSelectText = szTitle;

  00019	8d 45 0c	 lea	 eax, DWORD PTR _szTitle$[ebp]
  0001c	50		 push	 eax
  0001d	81 c1 14 02 00
	00		 add	 ecx, 532		; 00000214H
  00023	ff 15 00 00 00
	00		 call	 DWORD PTR __imp_??4ioHashString@@QAEAAV0@ABV0@@Z

; 92   : }

  00029	83 4d fc ff	 or	 DWORD PTR __$EHRec$[ebp+8], -1
  0002d	8d 4d 0c	 lea	 ecx, DWORD PTR _szTitle$[ebp]
  00030	ff 15 00 00 00
	00		 call	 DWORD PTR __imp_??1ioHashString@@QAE@XZ
  00036	e8 00 00 00 00	 call	 __EH_epilog3
  0003b	c2 14 00	 ret	 20			; 00000014H
_TEXT	ENDS
;	COMDAT text$x
text$x	SEGMENT
__unwindfunclet$?SetSelectMaterial@SelectPetTargetBtn@@QAEXHVioHashString@@@Z$0:
  00000	8d 4d 0c	 lea	 ecx, DWORD PTR _szTitle$[ebp]
  00003	ff 25 00 00 00
	00		 jmp	 DWORD PTR __imp_??1ioHashString@@QAE@XZ
__ehhandler$?SetSelectMaterial@SelectPetTargetBtn@@QAEXHVioHashString@@@Z:
  00009	8b 54 24 08	 mov	 edx, DWORD PTR [esp+8]
  0000d	8d 42 0c	 lea	 eax, DWORD PTR [edx+12]
  00010	8b 4a f0	 mov	 ecx, DWORD PTR [edx-16]
  00013	33 c8		 xor	 ecx, eax
  00015	e8 00 00 00 00	 call	 @__security_check_cookie@4
  0001a	b8 00 00 00 00	 mov	 eax, OFFSET __ehfuncinfo$?SetSelectMaterial@SelectPetTargetBtn@@QAEXHVioHashString@@@Z
  0001f	e9 00 00 00 00	 jmp	 ___CxxFrameHandler3
text$x	ENDS
?SetSelectMaterial@SelectPetTargetBtn@@QAEXHVioHashString@@@Z ENDP ; SelectPetTargetBtn::SetSelectMaterial
PUBLIC	?SetCurTitleColor@SelectPetTargetBtn@@QAEXK@Z	; SelectPetTargetBtn::SetCurTitleColor
; Function compile flags: /Ogsp
;	COMDAT ?SetCurTitleColor@SelectPetTargetBtn@@QAEXK@Z
_TEXT	SEGMENT
_dwTitleColor$ = 8					; size = 4
?SetCurTitleColor@SelectPetTargetBtn@@QAEXK@Z PROC	; SelectPetTargetBtn::SetCurTitleColor, COMDAT
; _this$ = ecx

; 96   : {

  00000	55		 push	 ebp
  00001	8b ec		 mov	 ebp, esp

; 97   : 	m_dwCurTitleColor = dwTitleColor;

  00003	8b 45 08	 mov	 eax, DWORD PTR _dwTitleColor$[ebp]
  00006	89 81 00 02 00
	00		 mov	 DWORD PTR [ecx+512], eax

; 98   : }

  0000c	5d		 pop	 ebp
  0000d	c2 04 00	 ret	 4
?SetCurTitleColor@SelectPetTargetBtn@@QAEXK@Z ENDP	; SelectPetTargetBtn::SetCurTitleColor
_TEXT	ENDS
PUBLIC	?_DECSTR@@YAXPADH@Z				; _DECSTR
; Function compile flags: /Ogsp
; File d:\lost saga for developer\youtube\tutorial\source\src\lsclient\stringprotect.h
;	COMDAT ?_DECSTR@@YAXPADH@Z
_TEXT	SEGMENT
_s$ = 8							; size = 4
_l$ = 12						; size = 4
?_DECSTR@@YAXPADH@Z PROC				; _DECSTR, COMDAT

; 40   : __forceinline void _DECSTR(char* s, int l){int i=0,l4=(l-1)/4,*p=(int*)s;s[l-1]=0;for(;i<l4;++i)*(p++)^=0xEAEBECED;for(i=l4*4;i<l-1;++i)s[i]^=0xED-i%4;}

  00000	55		 push	 ebp
  00001	8b ec		 mov	 ebp, esp
  00003	8b 4d 0c	 mov	 ecx, DWORD PTR _l$[ebp]
  00006	56		 push	 esi
  00007	8b 75 08	 mov	 esi, DWORD PTR _s$[ebp]
  0000a	57		 push	 edi
  0000b	8d 79 ff	 lea	 edi, DWORD PTR [ecx-1]
  0000e	8b c7		 mov	 eax, edi
  00010	99		 cdq
  00011	83 e2 03	 and	 edx, 3
  00014	03 c2		 add	 eax, edx
  00016	c1 f8 02	 sar	 eax, 2
  00019	8b d6		 mov	 edx, esi
  0001b	c6 44 0e ff 00	 mov	 BYTE PTR [esi+ecx-1], 0
  00020	85 c0		 test	 eax, eax
  00022	7e 0e		 jle	 SHORT $LN4@DECSTR
  00024	8b c8		 mov	 ecx, eax
$LL6@DECSTR:
  00026	81 32 ed ec eb
	ea		 xor	 DWORD PTR [edx], -353637139 ; eaebecedH
  0002c	83 c2 04	 add	 edx, 4
  0002f	49		 dec	 ecx
  00030	75 f4		 jne	 SHORT $LL6@DECSTR
$LN4@DECSTR:
  00032	c1 e0 02	 shl	 eax, 2
  00035	eb 17		 jmp	 SHORT $LN14@DECSTR
$LL3@DECSTR:
  00037	8b c8		 mov	 ecx, eax
  00039	81 e1 03 00 00
	80		 and	 ecx, -2147483645	; 80000003H
  0003f	79 05		 jns	 SHORT $LN13@DECSTR
  00041	49		 dec	 ecx
  00042	83 c9 fc	 or	 ecx, -4			; fffffffcH
  00045	41		 inc	 ecx
$LN13@DECSTR:
  00046	b2 ed		 mov	 dl, -19			; ffffffedH
  00048	2a d1		 sub	 dl, cl
  0004a	30 14 30	 xor	 BYTE PTR [eax+esi], dl
  0004d	40		 inc	 eax
$LN14@DECSTR:
  0004e	3b c7		 cmp	 eax, edi
  00050	7c e5		 jl	 SHORT $LL3@DECSTR
  00052	5f		 pop	 edi
  00053	5e		 pop	 esi
  00054	5d		 pop	 ebp
  00055	c3		 ret	 0
?_DECSTR@@YAXPADH@Z ENDP				; _DECSTR
_TEXT	ENDS
PUBLIC	??0tagPetSlot@@QAE@XZ				; tagPetSlot::tagPetSlot
;	COMDAT xdata$x
; File d:\lost saga for developer\youtube\tutorial\source\src\lsclient\petenumtype.h
xdata$x	SEGMENT
__unwindtable$??0tagPetSlot@@QAE@XZ DD 0ffffffffH
	DD	FLAT:__unwindfunclet$??0tagPetSlot@@QAE@XZ$0
	DD	00H
	DD	FLAT:__unwindfunclet$??0tagPetSlot@@QAE@XZ$1
__ehfuncinfo$??0tagPetSlot@@QAE@XZ DD 019930522H
	DD	02H
	DD	FLAT:__unwindtable$??0tagPetSlot@@QAE@XZ
	DD	2 DUP(00H)
	DD	2 DUP(00H)
	DD	00H
	DD	01H
; Function compile flags: /Ogsp
xdata$x	ENDS
;	COMDAT ??0tagPetSlot@@QAE@XZ
_TEXT	SEGMENT
_this$ = -16						; size = 4
__$EHRec$ = -12						; size = 12
??0tagPetSlot@@QAE@XZ PROC				; tagPetSlot::tagPetSlot, COMDAT
; _this$ = ecx

; 218  : 	tagPetSlot()

  00000	6a 04		 push	 4
  00002	b8 00 00 00 00	 mov	 eax, __ehhandler$??0tagPetSlot@@QAE@XZ
  00007	e8 00 00 00 00	 call	 __EH_prolog3
  0000c	8b f1		 mov	 esi, ecx
  0000e	89 75 f0	 mov	 DWORD PTR _this$[ebp], esi
  00011	8b 3d 00 00 00
	00		 mov	 edi, DWORD PTR __imp_??0ioHashString@@QAE@XZ
  00017	8d 4e 18	 lea	 ecx, DWORD PTR [esi+24]
  0001a	ff d7		 call	 edi
  0001c	33 db		 xor	 ebx, ebx
  0001e	8d 4e 28	 lea	 ecx, DWORD PTR [esi+40]
  00021	89 5d fc	 mov	 DWORD PTR __$EHRec$[ebp+8], ebx
  00024	ff d7		 call	 edi

; 219  : 	{
; 220  : 		m_nPetCode = 0;
; 221  : 		m_PetRankType = 0;
; 222  : 		m_nIndex = 0;
; 223  : 		m_nCurLevel = 0;
; 224  : 		m_CurExp = 0;
; 225  : 		m_bEquip = false;
; 226  : 		m_Name.Clear();

  00026	8b 3d 00 00 00
	00		 mov	 edi, DWORD PTR __imp_?Clear@ioHashString@@QAEXXZ
  0002c	8d 4e 18	 lea	 ecx, DWORD PTR [esi+24]
  0002f	c6 45 fc 01	 mov	 BYTE PTR __$EHRec$[ebp+8], 1
  00033	89 1e		 mov	 DWORD PTR [esi], ebx
  00035	89 5e 04	 mov	 DWORD PTR [esi+4], ebx
  00038	89 5e 08	 mov	 DWORD PTR [esi+8], ebx
  0003b	89 5e 0c	 mov	 DWORD PTR [esi+12], ebx
  0003e	89 5e 10	 mov	 DWORD PTR [esi+16], ebx
  00041	88 5e 14	 mov	 BYTE PTR [esi+20], bl
  00044	ff d7		 call	 edi

; 227  : 		m_IconName.Clear();

  00046	8d 4e 28	 lea	 ecx, DWORD PTR [esi+40]
  00049	ff d7		 call	 edi

; 228  : 	}

  0004b	8b c6		 mov	 eax, esi
  0004d	e8 00 00 00 00	 call	 __EH_epilog3
  00052	c3		 ret	 0
_TEXT	ENDS
;	COMDAT text$x
text$x	SEGMENT
__unwindfunclet$??0tagPetSlot@@QAE@XZ$0:
  00000	8b 4d f0	 mov	 ecx, DWORD PTR _this$[ebp]
  00003	83 c1 18	 add	 ecx, 24			; 00000018H
  00006	ff 25 00 00 00
	00		 jmp	 DWORD PTR __imp_??1ioHashString@@QAE@XZ
__unwindfunclet$??0tagPetSlot@@QAE@XZ$1:
  0000c	8b 4d f0	 mov	 ecx, DWORD PTR _this$[ebp]
  0000f	83 c1 28	 add	 ecx, 40			; 00000028H
  00012	ff 25 00 00 00
	00		 jmp	 DWORD PTR __imp_??1ioHashString@@QAE@XZ
__ehhandler$??0tagPetSlot@@QAE@XZ:
  00018	8b 54 24 08	 mov	 edx, DWORD PTR [esp+8]
  0001c	8d 42 0c	 lea	 eax, DWORD PTR [edx+12]
  0001f	8b 4a ec	 mov	 ecx, DWORD PTR [edx-20]
  00022	33 c8		 xor	 ecx, eax
  00024	e8 00 00 00 00	 call	 @__security_check_cookie@4
  00029	b8 00 00 00 00	 mov	 eax, OFFSET __ehfuncinfo$??0tagPetSlot@@QAE@XZ
  0002e	e9 00 00 00 00	 jmp	 ___CxxFrameHandler3
text$x	ENDS
??0tagPetSlot@@QAE@XZ ENDP				; tagPetSlot::tagPetSlot
PUBLIC	?GetUserPet@ioMyInfo@@QAEPAVioUserPet@@XZ	; ioMyInfo::GetUserPet
; Function compile flags: /Ogsp
; File d:\lost saga for developer\youtube\tutorial\source\src\lsclient\iomyinfo.h
;	COMDAT ?GetUserPet@ioMyInfo@@QAEPAVioUserPet@@XZ
_TEXT	SEGMENT
?GetUserPet@ioMyInfo@@QAEPAVioUserPet@@XZ PROC		; ioMyInfo::GetUserPet, COMDAT
; _this$ = ecx

; 644  : 	ioUserPet* GetUserPet() { return &m_UserPet; }

  00000	8d 81 c0 02 00
	00		 lea	 eax, DWORD PTR [ecx+704]
  00006	c3		 ret	 0
?GetUserPet@ioMyInfo@@QAEPAVioUserPet@@XZ ENDP		; ioMyInfo::GetUserPet
_TEXT	ENDS
EXTRN	??3@YAXPAX@Z:PROC				; operator delete
; Function compile flags: /Ogsp
;	COMDAT ??_GSelectPetTargetBtn@@UAEPAXI@Z
_TEXT	SEGMENT
___flags$ = 8						; size = 4
??_GSelectPetTargetBtn@@UAEPAXI@Z PROC			; SelectPetTargetBtn::`scalar deleting destructor', COMDAT
; _this$ = ecx
  00000	55		 push	 ebp
  00001	8b ec		 mov	 ebp, esp
  00003	56		 push	 esi
  00004	8b f1		 mov	 esi, ecx
  00006	e8 00 00 00 00	 call	 ??1SelectPetTargetBtn@@UAE@XZ ; SelectPetTargetBtn::~SelectPetTargetBtn
  0000b	f6 45 08 01	 test	 BYTE PTR ___flags$[ebp], 1
  0000f	74 07		 je	 SHORT $LN1@scalar
  00011	56		 push	 esi
  00012	e8 00 00 00 00	 call	 ??3@YAXPAX@Z		; operator delete
  00017	59		 pop	 ecx
$LN1@scalar:
  00018	8b c6		 mov	 eax, esi
  0001a	5e		 pop	 esi
  0001b	5d		 pop	 ebp
  0001c	c2 04 00	 ret	 4
??_GSelectPetTargetBtn@@UAEPAXI@Z ENDP			; SelectPetTargetBtn::`scalar deleting destructor'
_TEXT	ENDS
PUBLIC	??_C@_0CF@NJOFFMPD@SelectPetTargetBtn?3?3SetSelectPet@ ; `string'
PUBLIC	?SetSelectPetSlot@SelectPetTargetBtn@@QAEXH@Z	; SelectPetTargetBtn::SetSelectPetSlot
EXTRN	__imp_??4ioHashString@@QAEAAV0@PBD@Z:PROC
EXTRN	__imp_?SafeSprintf@@YAXPADHPBD1@Z:PROC
EXTRN	__imp_?GetString@ioStringManager@@QAEPADPBD0HW4FileNamePrefix@1@@Z:PROC
EXTRN	__imp_?GetSingleton@ioStringManager@@SAAAV1@XZ:PROC
EXTRN	?GetPetSlot@ioUserPet@@QAE_NHAAUtagPetSlot@@@Z:PROC ; ioUserPet::GetPetSlot
EXTRN	?GetSingleton@ioMyInfo@@SAAAV1@XZ:PROC		; ioMyInfo::GetSingleton
EXTRN	__EH_epilog3_GS:PROC
EXTRN	__EH_prolog3_GS:PROC
EXTRN	_memset:PROC
;	COMDAT ??_C@_0CF@NJOFFMPD@SelectPetTargetBtn?3?3SetSelectPet@
CONST	SEGMENT
??_C@_0CF@NJOFFMPD@SelectPetTargetBtn?3?3SetSelectPet@ DB 'SelectPetTarge'
	DB	'tBtn::SetSelectPetSlot', 00H		; `string'
CONST	ENDS
;	COMDAT xdata$x
xdata$x	SEGMENT
__unwindtable$?SetSelectPetSlot@SelectPetTargetBtn@@QAEXH@Z DD 0ffffffffH
	DD	FLAT:__unwindfunclet$?SetSelectPetSlot@SelectPetTargetBtn@@QAEXH@Z$0
__ehfuncinfo$?SetSelectPetSlot@SelectPetTargetBtn@@QAEXH@Z DD 019930522H
	DD	01H
	DD	FLAT:__unwindtable$?SetSelectPetSlot@SelectPetTargetBtn@@QAEXH@Z
	DD	2 DUP(00H)
	DD	2 DUP(00H)
	DD	00H
	DD	01H
; Function compile flags: /Ogsp
; File d:\lost saga for developer\youtube\tutorial\source\src\lsclient\gui\selectpettargetbtn.cpp
xdata$x	ENDS
;	COMDAT ?SetSelectPetSlot@SelectPetTargetBtn@@QAEXH@Z
_TEXT	SEGMENT
_sPetSlot$505149 = -332					; size = 56
_szBuf$505151 = -276					; size = 260
__$EHRec$ = -12						; size = 12
_nSelectSlot$ = 8					; size = 4
?SetSelectPetSlot@SelectPetTargetBtn@@QAEXH@Z PROC	; SelectPetTargetBtn::SetSelectPetSlot, COMDAT
; _this$ = ecx

; 66   : {

  00000	68 40 01 00 00	 push	 320			; 00000140H
  00005	b8 00 00 00 00	 mov	 eax, __ehhandler$?SetSelectPetSlot@SelectPetTargetBtn@@QAEXH@Z
  0000a	e8 00 00 00 00	 call	 __EH_prolog3_GS
  0000f	8b f1		 mov	 esi, ecx

; 67   : 	m_nCurSelectSlot = 0;

  00011	33 db		 xor	 ebx, ebx
  00013	89 9e fc 01 00
	00		 mov	 DWORD PTR [esi+508], ebx

; 68   : 	m_dwCurTitleColor = TCT_DEFAULT_DARKGRAY;

  00019	c7 86 00 02 00
	00 3a 3a 3a ff	 mov	 DWORD PTR [esi+512], -12961222 ; ff3a3a3aH

; 69   : 
; 70   : 	ioUserPet *pUserPet = g_MyInfo.GetUserPet();

  00023	e8 00 00 00 00	 call	 ?GetSingleton@ioMyInfo@@SAAAV1@XZ ; ioMyInfo::GetSingleton
  00028	8d b8 c0 02 00
	00		 lea	 edi, DWORD PTR [eax+704]

; 71   : 	if( pUserPet )

  0002e	3b fb		 cmp	 edi, ebx
  00030	0f 84 a7 00 00
	00		 je	 $LN2@SetSelectP

; 72   : 	{
; 73   : 		PetSlot sPetSlot;

  00036	8d 8d b4 fe ff
	ff		 lea	 ecx, DWORD PTR _sPetSlot$505149[ebp]
  0003c	e8 00 00 00 00	 call	 ??0tagPetSlot@@QAE@XZ	; tagPetSlot::tagPetSlot

; 74   : 
; 75   : 		if( pUserPet->GetPetSlot( nSelectSlot, sPetSlot ) )

  00041	8d 85 b4 fe ff
	ff		 lea	 eax, DWORD PTR _sPetSlot$505149[ebp]
  00047	50		 push	 eax
  00048	ff 75 08	 push	 DWORD PTR _nSelectSlot$[ebp]
  0004b	8b cf		 mov	 ecx, edi
  0004d	89 5d fc	 mov	 DWORD PTR __$EHRec$[ebp+8], ebx
  00050	e8 00 00 00 00	 call	 ?GetPetSlot@ioUserPet@@QAE_NHAAUtagPetSlot@@@Z ; ioUserPet::GetPetSlot
  00055	84 c0		 test	 al, al
  00057	74 75		 je	 SHORT $LN1@SetSelectP

; 76   : 		{
; 77   : 			m_nCurSelectSlot = nSelectSlot;

  00059	8b 45 08	 mov	 eax, DWORD PTR _nSelectSlot$[ebp]

; 78   : 
; 79   : 			char szBuf[MAX_PATH] = "";

  0005c	68 03 01 00 00	 push	 259			; 00000103H
  00061	89 86 fc 01 00
	00		 mov	 DWORD PTR [esi+508], eax
  00067	8d 85 ed fe ff
	ff		 lea	 eax, DWORD PTR _szBuf$505151[ebp+1]
  0006d	53		 push	 ebx
  0006e	50		 push	 eax
  0006f	88 9d ec fe ff
	ff		 mov	 BYTE PTR _szBuf$505151[ebp], bl
  00075	e8 00 00 00 00	 call	 _memset
  0007a	83 c4 0c	 add	 esp, 12			; 0000000cH

; 80   : 			SafeSprintf( szBuf, sizeof( szBuf ), STR(1), sPetSlot.m_Name.c_str() );

  0007d	8d 8d cc fe ff
	ff		 lea	 ecx, DWORD PTR _sPetSlot$505149[ebp+24]
  00083	ff 15 00 00 00
	00		 call	 DWORD PTR __imp_?c_str@ioHashString@@QBEPBDXZ
  00089	50		 push	 eax
  0008a	53		 push	 ebx
  0008b	6a 01		 push	 1
  0008d	68 00 00 00 00	 push	 OFFSET ??_C@_00CNPNBAHC@?$AA@
  00092	68 00 00 00 00	 push	 OFFSET ??_C@_0CF@NJOFFMPD@SelectPetTargetBtn?3?3SetSelectPet@
  00097	ff 15 00 00 00
	00		 call	 DWORD PTR __imp_?GetSingleton@ioStringManager@@SAAAV1@XZ
  0009d	8b c8		 mov	 ecx, eax
  0009f	ff 15 00 00 00
	00		 call	 DWORD PTR __imp_?GetString@ioStringManager@@QAEPADPBD0HW4FileNamePrefix@1@@Z
  000a5	50		 push	 eax
  000a6	8d 85 ec fe ff
	ff		 lea	 eax, DWORD PTR _szBuf$505151[ebp]
  000ac	68 04 01 00 00	 push	 260			; 00000104H
  000b1	50		 push	 eax
  000b2	ff 15 00 00 00
	00		 call	 DWORD PTR __imp_?SafeSprintf@@YAXPADHPBD1@Z
  000b8	83 c4 10	 add	 esp, 16			; 00000010H

; 81   : 
; 82   : 			m_szSelectText = szBuf;

  000bb	8d 85 ec fe ff
	ff		 lea	 eax, DWORD PTR _szBuf$505151[ebp]
  000c1	50		 push	 eax
  000c2	8d 8e 14 02 00
	00		 lea	 ecx, DWORD PTR [esi+532]
  000c8	ff 15 00 00 00
	00		 call	 DWORD PTR __imp_??4ioHashString@@QAEAAV0@PBD@Z
$LN1@SetSelectP:

; 83   : 		}
; 84   : 	}

  000ce	83 4d fc ff	 or	 DWORD PTR __$EHRec$[ebp+8], -1
  000d2	8d 8d b4 fe ff
	ff		 lea	 ecx, DWORD PTR _sPetSlot$505149[ebp]
  000d8	e8 00 00 00 00	 call	 ??1tagPetSlot@@QAE@XZ
$LN2@SetSelectP:

; 85   : }

  000dd	e8 00 00 00 00	 call	 __EH_epilog3_GS
  000e2	c2 04 00	 ret	 4
_TEXT	ENDS
;	COMDAT text$x
text$x	SEGMENT
__unwindfunclet$?SetSelectPetSlot@SelectPetTargetBtn@@QAEXH@Z$0:
  00000	8d 8d b4 fe ff
	ff		 lea	 ecx, DWORD PTR _sPetSlot$505149[ebp]
  00006	e9 00 00 00 00	 jmp	 ??1tagPetSlot@@QAE@XZ
__ehhandler$?SetSelectPetSlot@SelectPetTargetBtn@@QAEXH@Z:
  0000b	8b 54 24 08	 mov	 edx, DWORD PTR [esp+8]
  0000f	8d 42 0c	 lea	 eax, DWORD PTR [edx+12]
  00012	8b 8a b0 fe ff
	ff		 mov	 ecx, DWORD PTR [edx-336]
  00018	33 c8		 xor	 ecx, eax
  0001a	e8 00 00 00 00	 call	 @__security_check_cookie@4
  0001f	8b 4a fc	 mov	 ecx, DWORD PTR [edx-4]
  00022	33 c8		 xor	 ecx, eax
  00024	e8 00 00 00 00	 call	 @__security_check_cookie@4
  00029	b8 00 00 00 00	 mov	 eax, OFFSET __ehfuncinfo$?SetSelectPetSlot@SelectPetTargetBtn@@QAEXH@Z
  0002e	e9 00 00 00 00	 jmp	 ___CxxFrameHandler3
text$x	ENDS
?SetSelectPetSlot@SelectPetTargetBtn@@QAEXH@Z ENDP	; SelectPetTargetBtn::SetSelectPetSlot
PUBLIC	__$ArrayPad$
PUBLIC	??$GetStringAttribute_e@$08@ioXMLElement@@QBEPBDAAY08$$CBD@Z ; ioXMLElement::GetStringAttribute_e<9>
EXTRN	__imp_?GetStringAttribute@ioXMLElement@@QBEPBDPBD@Z:PROC
EXTRN	___security_cookie:DWORD
; Function compile flags: /Ogsp
; File d:\lost saga for developer\youtube\tutorial\source\src\io3dengine\ioxmlelement.h
;	COMDAT ??$GetStringAttribute_e@$08@ioXMLElement@@QBEPBDAAY08$$CBD@Z
_TEXT	SEGMENT
__k$ = -20						; size = 9
__$ArrayPad$ = -4					; size = 4
_k$ = 8							; size = 4
??$GetStringAttribute_e@$08@ioXMLElement@@QBEPBDAAY08$$CBD@Z PROC ; ioXMLElement::GetStringAttribute_e<9>, COMDAT
; _this$ = ecx

; 107  : 	{

  00000	55		 push	 ebp
  00001	8b ec		 mov	 ebp, esp
  00003	83 ec 14	 sub	 esp, 20			; 00000014H
  00006	a1 00 00 00 00	 mov	 eax, DWORD PTR ___security_cookie
  0000b	33 c5		 xor	 eax, ebp
  0000d	89 45 fc	 mov	 DWORD PTR __$ArrayPad$[ebp], eax
  00010	8b 45 08	 mov	 eax, DWORD PTR _k$[ebp]

; 108  : 		_ENCSTR(k, _k);

  00013	8a 10		 mov	 dl, BYTE PTR [eax]
  00015	84 d2		 test	 dl, dl
  00017	0f 84 ee 00 00
	00		 je	 $LN96@GetStringA
  0001d	80 f2 ed	 xor	 dl, -19			; ffffffedH
  00020	88 55 ec	 mov	 BYTE PTR __k$[ebp], dl
  00023	8a 50 01	 mov	 dl, BYTE PTR [eax+1]
  00026	84 d2		 test	 dl, dl
  00028	0f 84 d7 00 00
	00		 je	 $LN95@GetStringA
  0002e	80 f2 ec	 xor	 dl, -20			; ffffffecH
  00031	88 55 ed	 mov	 BYTE PTR __k$[ebp+1], dl
  00034	8a 50 02	 mov	 dl, BYTE PTR [eax+2]
  00037	84 d2		 test	 dl, dl
  00039	0f 84 c0 00 00
	00		 je	 $LN94@GetStringA
  0003f	80 f2 eb	 xor	 dl, -21			; ffffffebH
  00042	88 55 ee	 mov	 BYTE PTR __k$[ebp+2], dl
  00045	8a 50 03	 mov	 dl, BYTE PTR [eax+3]
  00048	84 d2		 test	 dl, dl
  0004a	0f 84 a9 00 00
	00		 je	 $LN93@GetStringA
  00050	80 f2 ea	 xor	 dl, -22			; ffffffeaH
  00053	88 55 ef	 mov	 BYTE PTR __k$[ebp+3], dl
  00056	8a 50 04	 mov	 dl, BYTE PTR [eax+4]
  00059	84 d2		 test	 dl, dl
  0005b	0f 84 92 00 00
	00		 je	 $LN92@GetStringA
  00061	80 f2 ed	 xor	 dl, -19			; ffffffedH
  00064	88 55 f0	 mov	 BYTE PTR __k$[ebp+4], dl
  00067	8a 50 05	 mov	 dl, BYTE PTR [eax+5]
  0006a	84 d2		 test	 dl, dl
  0006c	74 7f		 je	 SHORT $LN91@GetStringA
  0006e	80 f2 ec	 xor	 dl, -20			; ffffffecH
  00071	88 55 f1	 mov	 BYTE PTR __k$[ebp+5], dl
  00074	8a 50 06	 mov	 dl, BYTE PTR [eax+6]
  00077	84 d2		 test	 dl, dl
  00079	74 6c		 je	 SHORT $LN90@GetStringA
  0007b	80 f2 eb	 xor	 dl, -21			; ffffffebH
  0007e	88 55 f2	 mov	 BYTE PTR __k$[ebp+6], dl
  00081	8a 50 07	 mov	 dl, BYTE PTR [eax+7]
  00084	84 d2		 test	 dl, dl
  00086	74 59		 je	 SHORT $LN89@GetStringA
  00088	80 f2 ea	 xor	 dl, -22			; ffffffeaH
  0008b	80 78 08 00	 cmp	 BYTE PTR [eax+8], 0
  0008f	88 55 f3	 mov	 BYTE PTR __k$[ebp+7], dl
  00092	74 7b		 je	 SHORT $LN1@GetStringA
  00094	8a 50 09	 mov	 dl, BYTE PTR [eax+9]
  00097	84 d2		 test	 dl, dl
  00099	74 40		 je	 SHORT $LN87@GetStringA
  0009b	80 f2 ec	 xor	 dl, -20			; ffffffecH
  0009e	88 55 f5	 mov	 BYTE PTR __k$[ebp+9], dl
  000a1	8a 50 0a	 mov	 dl, BYTE PTR [eax+10]
  000a4	84 d2		 test	 dl, dl
  000a6	74 2d		 je	 SHORT $LN86@GetStringA
  000a8	80 f2 eb	 xor	 dl, -21			; ffffffebH
  000ab	88 55 f6	 mov	 BYTE PTR __k$[ebp+10], dl
  000ae	8a 50 0b	 mov	 dl, BYTE PTR [eax+11]
  000b1	84 d2		 test	 dl, dl
  000b3	74 1a		 je	 SHORT $LN85@GetStringA
  000b5	8a 40 0c	 mov	 al, BYTE PTR [eax+12]
  000b8	80 f2 ea	 xor	 dl, -22			; ffffffeaH
  000bb	88 55 f7	 mov	 BYTE PTR __k$[ebp+11], dl
  000be	84 c0		 test	 al, al
  000c0	74 07		 je	 SHORT $LN84@GetStringA
  000c2	34 ed		 xor	 al, -19			; ffffffedH
  000c4	88 45 f8	 mov	 BYTE PTR __k$[ebp+12], al
  000c7	eb 46		 jmp	 SHORT $LN1@GetStringA
$LN84@GetStringA:
  000c9	c6 45 f8 ed	 mov	 BYTE PTR __k$[ebp+12], -19 ; ffffffedH
  000cd	eb 40		 jmp	 SHORT $LN1@GetStringA
$LN85@GetStringA:
  000cf	c6 45 f7 ea	 mov	 BYTE PTR __k$[ebp+11], -22 ; ffffffeaH
  000d3	eb 3a		 jmp	 SHORT $LN1@GetStringA
$LN86@GetStringA:
  000d5	c6 45 f6 eb	 mov	 BYTE PTR __k$[ebp+10], -21 ; ffffffebH
  000d9	eb 34		 jmp	 SHORT $LN1@GetStringA
$LN87@GetStringA:
  000db	c6 45 f5 ec	 mov	 BYTE PTR __k$[ebp+9], -20 ; ffffffecH
  000df	eb 2e		 jmp	 SHORT $LN1@GetStringA
$LN89@GetStringA:
  000e1	c6 45 f3 ea	 mov	 BYTE PTR __k$[ebp+7], -22 ; ffffffeaH
  000e5	eb 28		 jmp	 SHORT $LN1@GetStringA
$LN90@GetStringA:
  000e7	c6 45 f2 eb	 mov	 BYTE PTR __k$[ebp+6], -21 ; ffffffebH
  000eb	eb 22		 jmp	 SHORT $LN1@GetStringA
$LN91@GetStringA:
  000ed	c6 45 f1 ec	 mov	 BYTE PTR __k$[ebp+5], -20 ; ffffffecH
  000f1	eb 1c		 jmp	 SHORT $LN1@GetStringA
$LN92@GetStringA:
  000f3	c6 45 f0 ed	 mov	 BYTE PTR __k$[ebp+4], -19 ; ffffffedH
  000f7	eb 16		 jmp	 SHORT $LN1@GetStringA
$LN93@GetStringA:
  000f9	c6 45 ef ea	 mov	 BYTE PTR __k$[ebp+3], -22 ; ffffffeaH
  000fd	eb 10		 jmp	 SHORT $LN1@GetStringA
$LN94@GetStringA:
  000ff	c6 45 ee eb	 mov	 BYTE PTR __k$[ebp+2], -21 ; ffffffebH
  00103	eb 0a		 jmp	 SHORT $LN1@GetStringA
$LN95@GetStringA:
  00105	c6 45 ed ec	 mov	 BYTE PTR __k$[ebp+1], -20 ; ffffffecH
  00109	eb 04		 jmp	 SHORT $LN1@GetStringA
$LN96@GetStringA:
  0010b	c6 45 ec ed	 mov	 BYTE PTR __k$[ebp], -19	; ffffffedH
$LN1@GetStringA:
  0010f	6a 02		 push	 2
  00111	8d 45 ec	 lea	 eax, DWORD PTR __k$[ebp]
  00114	c6 45 f4 00	 mov	 BYTE PTR __k$[ebp+8], 0
  00118	5a		 pop	 edx
$LL104@GetStringA:
  00119	81 30 ed ec eb
	ea		 xor	 DWORD PTR [eax], -353637139 ; eaebecedH
  0011f	83 c0 04	 add	 eax, 4
  00122	4a		 dec	 edx
  00123	75 f4		 jne	 SHORT $LL104@GetStringA

; 109  : 		return GetStringAttribute(_k);

  00125	8d 45 ec	 lea	 eax, DWORD PTR __k$[ebp]
  00128	50		 push	 eax
  00129	ff 15 00 00 00
	00		 call	 DWORD PTR __imp_?GetStringAttribute@ioXMLElement@@QBEPBDPBD@Z

; 110  : 	}

  0012f	8b 4d fc	 mov	 ecx, DWORD PTR __$ArrayPad$[ebp]
  00132	33 cd		 xor	 ecx, ebp
  00134	e8 00 00 00 00	 call	 @__security_check_cookie@4
  00139	c9		 leave
  0013a	c2 04 00	 ret	 4
??$GetStringAttribute_e@$08@ioXMLElement@@QBEPBDAAY08$$CBD@Z ENDP ; ioXMLElement::GetStringAttribute_e<9>
_TEXT	ENDS
PUBLIC	__$ArrayPad$
EXTRN	__imp_?ParseExtraInfo@ioButton@@UAEXAAVioXMLElement@@@Z:PROC
; Function compile flags: /Ogsp
; File d:\lost saga for developer\youtube\tutorial\source\src\lsclient\gui\selectpettargetbtn.cpp
;	COMDAT ?ParseExtraInfo@SelectPetTargetBtn@@UAEXAAVioXMLElement@@@Z
_TEXT	SEGMENT
__k$505643 = -20					; size = 9
__$ArrayPad$ = -4					; size = 4
_xElement$ = 8						; size = 4
?ParseExtraInfo@SelectPetTargetBtn@@UAEXAAVioXMLElement@@@Z PROC ; SelectPetTargetBtn::ParseExtraInfo, COMDAT
; _this$ = ecx

; 48   : {

  00000	55		 push	 ebp
  00001	8b ec		 mov	 ebp, esp
  00003	83 ec 14	 sub	 esp, 20			; 00000014H
  00006	a1 00 00 00 00	 mov	 eax, DWORD PTR ___security_cookie
  0000b	33 c5		 xor	 eax, ebp
  0000d	89 45 fc	 mov	 DWORD PTR __$ArrayPad$[ebp], eax
  00010	56		 push	 esi
  00011	8b 75 08	 mov	 esi, DWORD PTR _xElement$[ebp]
  00014	57		 push	 edi

; 49   : 	ioButton::ParseExtraInfo( xElement );

  00015	56		 push	 esi
  00016	8b f9		 mov	 edi, ecx
  00018	ff 15 00 00 00
	00		 call	 DWORD PTR __imp_?ParseExtraInfo@ioButton@@UAEXAAVioXMLElement@@@Z

; 50   : 
; 51   : 	m_szDefaultText = xElement.GetStringAttribute_e( "DescText" );

  0001e	6a 02		 push	 2
  00020	c7 45 ec a9 89
	98 89		 mov	 DWORD PTR __k$505643[ebp], -1986491991 ; 899889a9H
  00027	c7 45 f0 b9 89
	93 9e		 mov	 DWORD PTR __k$505643[ebp+4], -1634498119 ; 9e9389b9H
  0002e	8d 45 ec	 lea	 eax, DWORD PTR __k$505643[ebp]
  00031	c6 45 f4 00	 mov	 BYTE PTR __k$505643[ebp+8], 0
  00035	59		 pop	 ecx
$LL106@ParseExtra:
  00036	81 30 ed ec eb
	ea		 xor	 DWORD PTR [eax], -353637139 ; eaebecedH
  0003c	83 c0 04	 add	 eax, 4
  0003f	49		 dec	 ecx
  00040	75 f4		 jne	 SHORT $LL106@ParseExtra
  00042	8d 45 ec	 lea	 eax, DWORD PTR __k$505643[ebp]
  00045	50		 push	 eax
  00046	8b ce		 mov	 ecx, esi
  00048	ff 15 00 00 00
	00		 call	 DWORD PTR __imp_?GetStringAttribute@ioXMLElement@@QBEPBDPBD@Z
  0004e	50		 push	 eax
  0004f	8d 8f 04 02 00
	00		 lea	 ecx, DWORD PTR [edi+516]
  00055	ff 15 00 00 00
	00		 call	 DWORD PTR __imp_??4ioHashString@@QAEAAV0@PBD@Z

; 52   : }

  0005b	8b 4d fc	 mov	 ecx, DWORD PTR __$ArrayPad$[ebp]
  0005e	5f		 pop	 edi
  0005f	33 cd		 xor	 ecx, ebp
  00061	5e		 pop	 esi
  00062	e8 00 00 00 00	 call	 @__security_check_cookie@4
  00067	c9		 leave
  00068	c2 04 00	 ret	 4
?ParseExtraInfo@SelectPetTargetBtn@@UAEXAAVioXMLElement@@@Z ENDP ; SelectPetTargetBtn::ParseExtraInfo
_TEXT	ENDS
END
