; Listing generated by Microsoft (R) Optimizing Compiler Version 16.00.30319.01 

	TITLE	D:\Lost Saga For Developer\Youtube\Tutorial\Source\src\LSClient\GUI\SendPresentWnd.cpp
	.686P
	.XMM
	include listing.inc
	.model	flat

INCLUDELIB MSVCRT
INCLUDELIB OLDNAMES

PUBLIC	?return1000@@YAIXZ				; return1000
; Function compile flags: /Ogsp
; File d:\lost saga for developer\youtube\tutorial\source\src\lsclient\stdafx.h
;	COMDAT ?return1000@@YAIXZ
_TEXT	SEGMENT
?return1000@@YAIXZ PROC					; return1000, COMDAT

; 29   : 	__forceinline unsigned int return1000() { __asm mov eax, 1000 };

  00000	b8 e8 03 00 00	 mov	 eax, 1000		; 000003e8H
  00005	c3		 ret	 0
?return1000@@YAIXZ ENDP					; return1000
_TEXT	ENDS
PUBLIC	?GetPushUser@SendPresentFriendListWnd@@QAEABVioHashString@@XZ ; SendPresentFriendListWnd::GetPushUser
; Function compile flags: /Ogsp
; File d:\lost saga for developer\youtube\tutorial\source\src\lsclient\gui\sendpresentwnd.h
;	COMDAT ?GetPushUser@SendPresentFriendListWnd@@QAEABVioHashString@@XZ
_TEXT	SEGMENT
?GetPushUser@SendPresentFriendListWnd@@QAEABVioHashString@@XZ PROC ; SendPresentFriendListWnd::GetPushUser, COMDAT
; _this$ = ecx

; 95   : 	const ioHashString &GetPushUser(){ return m_szPushListUser; }

  00000	8d 81 ac 01 00
	00		 lea	 eax, DWORD PTR [ecx+428]
  00006	c3		 ret	 0
?GetPushUser@SendPresentFriendListWnd@@QAEABVioHashString@@XZ ENDP ; SendPresentFriendListWnd::GetPushUser
_TEXT	ENDS
PUBLIC	??_7SendPresentIdWnd@@6B@			; SendPresentIdWnd::`vftable'
PUBLIC	??0SendPresentIdWnd@@QAE@XZ			; SendPresentIdWnd::SendPresentIdWnd
PUBLIC	??_R4SendPresentIdWnd@@6B@			; SendPresentIdWnd::`RTTI Complete Object Locator'
PUBLIC	??_R0?AVSendPresentIdWnd@@@8			; SendPresentIdWnd `RTTI Type Descriptor'
PUBLIC	??_R3SendPresentIdWnd@@8			; SendPresentIdWnd::`RTTI Class Hierarchy Descriptor'
PUBLIC	??_R2SendPresentIdWnd@@8			; SendPresentIdWnd::`RTTI Base Class Array'
PUBLIC	??_R1A@?0A@EA@SendPresentIdWnd@@8		; SendPresentIdWnd::`RTTI Base Class Descriptor at (0,-1,0,64)'
PUBLIC	??_R1A@?0A@EA@ioWnd@@8				; ioWnd::`RTTI Base Class Descriptor at (0,-1,0,64)'
PUBLIC	??_R0?AVioWnd@@@8				; ioWnd `RTTI Type Descriptor'
PUBLIC	??_R3ioWnd@@8					; ioWnd::`RTTI Class Hierarchy Descriptor'
PUBLIC	??_R2ioWnd@@8					; ioWnd::`RTTI Base Class Array'
PUBLIC	?OnRender@SendPresentIdWnd@@MAEXXZ		; SendPresentIdWnd::OnRender
PUBLIC	?iwm_command@SendPresentIdWnd@@UAEXPAVioWnd@@HK@Z ; SendPresentIdWnd::iwm_command
PUBLIC	?iwm_show@SendPresentIdWnd@@UAEXXZ		; SendPresentIdWnd::iwm_show
PUBLIC	?iwm_hide@SendPresentIdWnd@@UAEXXZ		; SendPresentIdWnd::iwm_hide
EXTRN	__imp_??1ioWnd@@UAE@XZ:PROC
EXTRN	__imp_??0ioHashString@@QAE@XZ:PROC
EXTRN	__imp_??0ioWnd@@QAE@XZ:PROC
EXTRN	___CxxFrameHandler3:PROC
EXTRN	@__security_check_cookie@4:PROC
EXTRN	__EH_epilog3:PROC
EXTRN	__EH_prolog3:PROC
EXTRN	??_7type_info@@6B@:QWORD			; type_info::`vftable'
EXTRN	?AddRenderFrame@ioWnd@@UAEXABVioHashString@@PAVioUIRenderFrame@@@Z:PROC ; ioWnd::AddRenderFrame
EXTRN	?AddRenderImage@ioWnd@@UAEXABVioHashString@@PAVioUIRenderImage@@@Z:PROC ; ioWnd::AddRenderImage
EXTRN	?AddTooltipHelp@ioWnd@@UAEXABVioHashString@@00@Z:PROC ; ioWnd::AddTooltipHelp
EXTRN	?ParseExtraInfo@ioWnd@@UAEXAAVioXMLElement@@@Z:PROC ; ioWnd::ParseExtraInfo
EXTRN	?AddNamedRenderImage@ioWnd@@UAEXABVioHashString@@PAVioUIRenderImage@@@Z:PROC ; ioWnd::AddNamedRenderImage
EXTRN	?RemoveNamedRenderImage@ioWnd@@UAEXABVioHashString@@@Z:PROC ; ioWnd::RemoveNamedRenderImage
EXTRN	?GetNamedRenderImage@ioWnd@@UBEPAVioUIRenderImage@@ABVioHashString@@@Z:PROC ; ioWnd::GetNamedRenderImage
EXTRN	?SetWindowAlpha@ioWnd@@UAEXH@Z:PROC		; ioWnd::SetWindowAlpha
EXTRN	?SetActive@ioWnd@@UAEXXZ:PROC			; ioWnd::SetActive
EXTRN	?SetInActive@ioWnd@@UAEXXZ:PROC			; ioWnd::SetInActive
EXTRN	?ClearElementImageList@ioWnd@@UAEXXZ:PROC	; ioWnd::ClearElementImageList
EXTRN	?SetSize@ioWnd@@UAEXHH@Z:PROC			; ioWnd::SetSize
EXTRN	?SetPositionToDefault@ioWnd@@UAEXHH_N0@Z:PROC	; ioWnd::SetPositionToDefault
EXTRN	?IsNeedProcess@ioWnd@@UBE_NXZ:PROC		; ioWnd::IsNeedProcess
EXTRN	?IsCanMouseReaction@ioWnd@@UBE_NXZ:PROC		; ioWnd::IsCanMouseReaction
EXTRN	?AddChild@ioWnd@@UAEXPAV1@@Z:PROC		; ioWnd::AddChild
EXTRN	?DeleteChild@ioWnd@@UAEXK@Z:PROC		; ioWnd::DeleteChild
EXTRN	?DeleteAllChild@ioWnd@@UAEXXZ:PROC		; ioWnd::DeleteAllChild
EXTRN	?OnRenderShowAndHide@ioWnd@@MAE_NXZ:PROC	; ioWnd::OnRenderShowAndHide
EXTRN	?OnRenderShowAndHideByDefault@ioWnd@@MAE_NK@Z:PROC ; ioWnd::OnRenderShowAndHideByDefault
EXTRN	?OnRenderShowAndHideByTop@ioWnd@@MAE_NK@Z:PROC	; ioWnd::OnRenderShowAndHideByTop
EXTRN	?OnRenderShowAndHideByDown@ioWnd@@MAE_NK@Z:PROC	; ioWnd::OnRenderShowAndHideByDown
EXTRN	?OnRenderAfterChild@ioWnd@@MAEXXZ:PROC		; ioWnd::OnRenderAfterChild
EXTRN	?OnProcess@ioWnd@@MAEXM@Z:PROC			; ioWnd::OnProcess
EXTRN	?OnMouseProcess@ioWnd@@MAEXABVioMouse@@@Z:PROC	; ioWnd::OnMouseProcess
EXTRN	?CheckFrameReSize@ioWnd@@MAEXHHHH@Z:PROC	; ioWnd::CheckFrameReSize
EXTRN	?RenderImageList@ioWnd@@MAEXHHW4UIRenderType@@@Z:PROC ; ioWnd::RenderImageList
EXTRN	?iwm_create@ioWnd@@UAEXXZ:PROC			; ioWnd::iwm_create
EXTRN	?iwm_destroy@ioWnd@@UAEXXZ:PROC			; ioWnd::iwm_destroy
EXTRN	?iwm_lbuttondown@ioWnd@@UAEXABVioMouse@@@Z:PROC	; ioWnd::iwm_lbuttondown
EXTRN	?iwm_lbuttonup@ioWnd@@UAEXABVioMouse@@@Z:PROC	; ioWnd::iwm_lbuttonup
EXTRN	?iwm_lbuttonDBLCLK@ioWnd@@UAEXABVioMouse@@@Z:PROC ; ioWnd::iwm_lbuttonDBLCLK
EXTRN	?iwm_rbuttondown@ioWnd@@UAEXABVioMouse@@@Z:PROC	; ioWnd::iwm_rbuttondown
EXTRN	?iwm_rbuttonup@ioWnd@@UAEXABVioMouse@@@Z:PROC	; ioWnd::iwm_rbuttonup
EXTRN	?iwm_mouseover@ioWnd@@UAEXABVioMouse@@@Z:PROC	; ioWnd::iwm_mouseover
EXTRN	?iwm_mousemove@ioWnd@@UAEXABVioMouse@@@Z:PROC	; ioWnd::iwm_mousemove
EXTRN	?iwm_mouseleave@ioWnd@@UAEXABVioMouse@@@Z:PROC	; ioWnd::iwm_mouseleave
EXTRN	?iwm_vscroll@ioWnd@@UAEXKH@Z:PROC		; ioWnd::iwm_vscroll
EXTRN	?iwm_wheel@ioWnd@@UAEXH@Z:PROC			; ioWnd::iwm_wheel
EXTRN	?iwm_esc@ioWnd@@UAE_NXZ:PROC			; ioWnd::iwm_esc
EXTRN	?iwm_spacebar@ioWnd@@UAE_NXZ:PROC		; ioWnd::iwm_spacebar
EXTRN	?iwm_gototop@ioWnd@@UAEXXZ:PROC			; ioWnd::iwm_gototop
EXTRN	?iwm_dragenter@ioWnd@@UAE?AW4IWDropEffect@@PAVioDragItem@@ABVioMouse@@@Z:PROC ; ioWnd::iwm_dragenter
EXTRN	?iwm_dragover@ioWnd@@UAE?AW4IWDropEffect@@PAVioDragItem@@ABVioMouse@@@Z:PROC ; ioWnd::iwm_dragover
EXTRN	?iwm_dragleave@ioWnd@@UAEXXZ:PROC		; ioWnd::iwm_dragleave
EXTRN	?iwm_dropitem@ioWnd@@UAE_NPAVioDragItem@@ABVioMouse@@PAV1@@Z:PROC ; ioWnd::iwm_dropitem
EXTRN	?iwm_dropdone@ioWnd@@UAEXPAVioDragItem@@PAV1@_N@Z:PROC ; ioWnd::iwm_dropdone
EXTRN	?IsEXType@ioWnd@@UBE_NXZ:PROC			; ioWnd::IsEXType
EXTRN	?GetWndType@ioWnd@@UBEKXZ:PROC			; ioWnd::GetWndType
EXTRN	?RenderWnd@ioWnd@@UAEXXZ:PROC			; ioWnd::RenderWnd
EXTRN	?SetIDEX@ioWnd@@UAEXAAK_N@Z:PROC		; ioWnd::SetIDEX
EXTRN	?ParseXML@ioWnd@@UAEXAAVioXMLElement@@@Z:PROC	; ioWnd::ParseXML
EXTRN	?GetHeaderFileName@ioWnd@@UAEPBDXZ:PROC		; ioWnd::GetHeaderFileName
EXTRN	?GetTemplateName@ioWnd@@UAEPBDXZ:PROC		; ioWnd::GetTemplateName
EXTRN	?GetDefClassName@ioWnd@@UBEPBDXZ:PROC		; ioWnd::GetDefClassName
EXTRN	?_Clone@ioWnd@@UAEPAV1@XZ:PROC			; ioWnd::_Clone
EXTRN	?Copy@ioWnd@@UAEXPAV1@@Z:PROC			; ioWnd::Copy
EXTRN	?Save@ioWnd@@UAE_NAAVioXMLElement@@@Z:PROC	; ioWnd::Save
EXTRN	?SetSaveData@ioWnd@@UAEXAAVioXMLElement@@@Z:PROC ; ioWnd::SetSaveData
EXTRN	?SetPosX@ioWnd@@UAEXH@Z:PROC			; ioWnd::SetPosX
EXTRN	?SetPosY@ioWnd@@UAEXH@Z:PROC			; ioWnd::SetPosY
EXTRN	?SetWidth@ioWnd@@UAEXH@Z:PROC			; ioWnd::SetWidth
EXTRN	?SetHeight@ioWnd@@UAEXH@Z:PROC			; ioWnd::SetHeight
EXTRN	?GetNumFixedRenderFrame@ioWnd@@UBEHXZ:PROC	; ioWnd::GetNumFixedRenderFrame
EXTRN	?GetFixedRenderFrameType@ioWnd@@UAEPBDH@Z:PROC	; ioWnd::GetFixedRenderFrameType
EXTRN	?GetRenderFrame@ioWnd@@UAEPAPAVioUIRenderElement@@PBD@Z:PROC ; ioWnd::GetRenderFrame
EXTRN	?GetNumFixedRenderImage@ioWnd@@UBEHXZ:PROC	; ioWnd::GetNumFixedRenderImage
EXTRN	?GetFixedRenderImageType@ioWnd@@UAEPBDH@Z:PROC	; ioWnd::GetFixedRenderImageType
EXTRN	?GetRenderImage@ioWnd@@UAEPAPAVioUIRenderElement@@PBD@Z:PROC ; ioWnd::GetRenderImage
EXTRN	?AddEffect@ioWnd@@UAEXABVioHashString@@PAVioUI3DEffectRender@@@Z:PROC ; ioWnd::AddEffect
EXTRN	?GetEffect@ioWnd@@UAEPAVioUI3DEffectRender@@VioHashString@@@Z:PROC ; ioWnd::GetEffect
EXTRN	??_ESendPresentIdWnd@@UAEPAXI@Z:PROC		; SendPresentIdWnd::`vector deleting destructor'
;	COMDAT ??_R2ioWnd@@8
; File d:\lost saga for developer\youtube\tutorial\source\src\lsclient\gui\sendpresentwnd.cpp
rdata$r	SEGMENT
??_R2ioWnd@@8 DD FLAT:??_R1A@?0A@EA@ioWnd@@8		; ioWnd::`RTTI Base Class Array'
rdata$r	ENDS
;	COMDAT ??_R3ioWnd@@8
rdata$r	SEGMENT
??_R3ioWnd@@8 DD 00H					; ioWnd::`RTTI Class Hierarchy Descriptor'
	DD	00H
	DD	01H
	DD	FLAT:??_R2ioWnd@@8
rdata$r	ENDS
;	COMDAT ??_R0?AVioWnd@@@8
_DATA	SEGMENT
??_R0?AVioWnd@@@8 DD FLAT:??_7type_info@@6B@		; ioWnd `RTTI Type Descriptor'
	DD	00H
	DB	'.?AVioWnd@@', 00H
_DATA	ENDS
;	COMDAT ??_R1A@?0A@EA@ioWnd@@8
rdata$r	SEGMENT
??_R1A@?0A@EA@ioWnd@@8 DD FLAT:??_R0?AVioWnd@@@8	; ioWnd::`RTTI Base Class Descriptor at (0,-1,0,64)'
	DD	00H
	DD	00H
	DD	0ffffffffH
	DD	00H
	DD	040H
	DD	FLAT:??_R3ioWnd@@8
rdata$r	ENDS
;	COMDAT ??_R1A@?0A@EA@SendPresentIdWnd@@8
rdata$r	SEGMENT
??_R1A@?0A@EA@SendPresentIdWnd@@8 DD FLAT:??_R0?AVSendPresentIdWnd@@@8 ; SendPresentIdWnd::`RTTI Base Class Descriptor at (0,-1,0,64)'
	DD	01H
	DD	00H
	DD	0ffffffffH
	DD	00H
	DD	040H
	DD	FLAT:??_R3SendPresentIdWnd@@8
rdata$r	ENDS
;	COMDAT ??_R2SendPresentIdWnd@@8
rdata$r	SEGMENT
??_R2SendPresentIdWnd@@8 DD FLAT:??_R1A@?0A@EA@SendPresentIdWnd@@8 ; SendPresentIdWnd::`RTTI Base Class Array'
	DD	FLAT:??_R1A@?0A@EA@ioWnd@@8
rdata$r	ENDS
;	COMDAT ??_R3SendPresentIdWnd@@8
rdata$r	SEGMENT
??_R3SendPresentIdWnd@@8 DD 00H				; SendPresentIdWnd::`RTTI Class Hierarchy Descriptor'
	DD	00H
	DD	02H
	DD	FLAT:??_R2SendPresentIdWnd@@8
rdata$r	ENDS
;	COMDAT ??_R0?AVSendPresentIdWnd@@@8
_DATA	SEGMENT
??_R0?AVSendPresentIdWnd@@@8 DD FLAT:??_7type_info@@6B@	; SendPresentIdWnd `RTTI Type Descriptor'
	DD	00H
	DB	'.?AVSendPresentIdWnd@@', 00H
_DATA	ENDS
;	COMDAT ??_R4SendPresentIdWnd@@6B@
rdata$r	SEGMENT
??_R4SendPresentIdWnd@@6B@ DD 00H			; SendPresentIdWnd::`RTTI Complete Object Locator'
	DD	00H
	DD	00H
	DD	FLAT:??_R0?AVSendPresentIdWnd@@@8
	DD	FLAT:??_R3SendPresentIdWnd@@8
rdata$r	ENDS
;	COMDAT ??_7SendPresentIdWnd@@6B@
CONST	SEGMENT
??_7SendPresentIdWnd@@6B@ DD FLAT:??_R4SendPresentIdWnd@@6B@ ; SendPresentIdWnd::`vftable'
	DD	FLAT:?AddRenderFrame@ioWnd@@UAEXABVioHashString@@PAVioUIRenderFrame@@@Z
	DD	FLAT:?AddRenderImage@ioWnd@@UAEXABVioHashString@@PAVioUIRenderImage@@@Z
	DD	FLAT:?AddTooltipHelp@ioWnd@@UAEXABVioHashString@@00@Z
	DD	FLAT:?ParseExtraInfo@ioWnd@@UAEXAAVioXMLElement@@@Z
	DD	FLAT:?AddNamedRenderImage@ioWnd@@UAEXABVioHashString@@PAVioUIRenderImage@@@Z
	DD	FLAT:?RemoveNamedRenderImage@ioWnd@@UAEXABVioHashString@@@Z
	DD	FLAT:?GetNamedRenderImage@ioWnd@@UBEPAVioUIRenderImage@@ABVioHashString@@@Z
	DD	FLAT:?SetWindowAlpha@ioWnd@@UAEXH@Z
	DD	FLAT:?SetActive@ioWnd@@UAEXXZ
	DD	FLAT:?SetInActive@ioWnd@@UAEXXZ
	DD	FLAT:?ClearElementImageList@ioWnd@@UAEXXZ
	DD	FLAT:?SetSize@ioWnd@@UAEXHH@Z
	DD	FLAT:?SetPositionToDefault@ioWnd@@UAEXHH_N0@Z
	DD	FLAT:?IsNeedProcess@ioWnd@@UBE_NXZ
	DD	FLAT:?IsCanMouseReaction@ioWnd@@UBE_NXZ
	DD	FLAT:?AddChild@ioWnd@@UAEXPAV1@@Z
	DD	FLAT:?DeleteChild@ioWnd@@UAEXK@Z
	DD	FLAT:?DeleteAllChild@ioWnd@@UAEXXZ
	DD	FLAT:?OnRenderShowAndHide@ioWnd@@MAE_NXZ
	DD	FLAT:?OnRenderShowAndHideByDefault@ioWnd@@MAE_NK@Z
	DD	FLAT:?OnRenderShowAndHideByTop@ioWnd@@MAE_NK@Z
	DD	FLAT:?OnRenderShowAndHideByDown@ioWnd@@MAE_NK@Z
	DD	FLAT:?OnRender@SendPresentIdWnd@@MAEXXZ
	DD	FLAT:?OnRenderAfterChild@ioWnd@@MAEXXZ
	DD	FLAT:?OnProcess@ioWnd@@MAEXM@Z
	DD	FLAT:?OnMouseProcess@ioWnd@@MAEXABVioMouse@@@Z
	DD	FLAT:?CheckFrameReSize@ioWnd@@MAEXHHHH@Z
	DD	FLAT:?RenderImageList@ioWnd@@MAEXHHW4UIRenderType@@@Z
	DD	FLAT:?iwm_create@ioWnd@@UAEXXZ
	DD	FLAT:?iwm_destroy@ioWnd@@UAEXXZ
	DD	FLAT:?iwm_lbuttondown@ioWnd@@UAEXABVioMouse@@@Z
	DD	FLAT:?iwm_lbuttonup@ioWnd@@UAEXABVioMouse@@@Z
	DD	FLAT:?iwm_lbuttonDBLCLK@ioWnd@@UAEXABVioMouse@@@Z
	DD	FLAT:?iwm_rbuttondown@ioWnd@@UAEXABVioMouse@@@Z
	DD	FLAT:?iwm_rbuttonup@ioWnd@@UAEXABVioMouse@@@Z
	DD	FLAT:?iwm_command@SendPresentIdWnd@@UAEXPAVioWnd@@HK@Z
	DD	FLAT:?iwm_mouseover@ioWnd@@UAEXABVioMouse@@@Z
	DD	FLAT:?iwm_mousemove@ioWnd@@UAEXABVioMouse@@@Z
	DD	FLAT:?iwm_mouseleave@ioWnd@@UAEXABVioMouse@@@Z
	DD	FLAT:?iwm_vscroll@ioWnd@@UAEXKH@Z
	DD	FLAT:?iwm_wheel@ioWnd@@UAEXH@Z
	DD	FLAT:?iwm_show@SendPresentIdWnd@@UAEXXZ
	DD	FLAT:?iwm_hide@SendPresentIdWnd@@UAEXXZ
	DD	FLAT:?iwm_esc@ioWnd@@UAE_NXZ
	DD	FLAT:?iwm_spacebar@ioWnd@@UAE_NXZ
	DD	FLAT:?iwm_gototop@ioWnd@@UAEXXZ
	DD	FLAT:?iwm_dragenter@ioWnd@@UAE?AW4IWDropEffect@@PAVioDragItem@@ABVioMouse@@@Z
	DD	FLAT:?iwm_dragover@ioWnd@@UAE?AW4IWDropEffect@@PAVioDragItem@@ABVioMouse@@@Z
	DD	FLAT:?iwm_dragleave@ioWnd@@UAEXXZ
	DD	FLAT:?iwm_dropitem@ioWnd@@UAE_NPAVioDragItem@@ABVioMouse@@PAV1@@Z
	DD	FLAT:?iwm_dropdone@ioWnd@@UAEXPAVioDragItem@@PAV1@_N@Z
	DD	FLAT:?IsEXType@ioWnd@@UBE_NXZ
	DD	FLAT:?GetWndType@ioWnd@@UBEKXZ
	DD	FLAT:?RenderWnd@ioWnd@@UAEXXZ
	DD	FLAT:?SetIDEX@ioWnd@@UAEXAAK_N@Z
	DD	FLAT:?ParseXML@ioWnd@@UAEXAAVioXMLElement@@@Z
	DD	FLAT:?GetHeaderFileName@ioWnd@@UAEPBDXZ
	DD	FLAT:?GetTemplateName@ioWnd@@UAEPBDXZ
	DD	FLAT:?GetDefClassName@ioWnd@@UBEPBDXZ
	DD	FLAT:?_Clone@ioWnd@@UAEPAV1@XZ
	DD	FLAT:?Copy@ioWnd@@UAEXPAV1@@Z
	DD	FLAT:?Save@ioWnd@@UAE_NAAVioXMLElement@@@Z
	DD	FLAT:?SetSaveData@ioWnd@@UAEXAAVioXMLElement@@@Z
	DD	FLAT:?SetPosX@ioWnd@@UAEXH@Z
	DD	FLAT:?SetPosY@ioWnd@@UAEXH@Z
	DD	FLAT:?SetWidth@ioWnd@@UAEXH@Z
	DD	FLAT:?SetHeight@ioWnd@@UAEXH@Z
	DD	FLAT:?GetNumFixedRenderFrame@ioWnd@@UBEHXZ
	DD	FLAT:?GetFixedRenderFrameType@ioWnd@@UAEPBDH@Z
	DD	FLAT:?GetRenderFrame@ioWnd@@UAEPAPAVioUIRenderElement@@PBD@Z
	DD	FLAT:?GetNumFixedRenderImage@ioWnd@@UBEHXZ
	DD	FLAT:?GetFixedRenderImageType@ioWnd@@UAEPBDH@Z
	DD	FLAT:?GetRenderImage@ioWnd@@UAEPAPAVioUIRenderElement@@PBD@Z
	DD	FLAT:?AddEffect@ioWnd@@UAEXABVioHashString@@PAVioUI3DEffectRender@@@Z
	DD	FLAT:?GetEffect@ioWnd@@UAEPAVioUI3DEffectRender@@VioHashString@@@Z
	DD	FLAT:??_ESendPresentIdWnd@@UAEPAXI@Z
CONST	ENDS
;	COMDAT xdata$x
xdata$x	SEGMENT
__unwindtable$??0SendPresentIdWnd@@QAE@XZ DD 0ffffffffH
	DD	FLAT:__unwindfunclet$??0SendPresentIdWnd@@QAE@XZ$0
__ehfuncinfo$??0SendPresentIdWnd@@QAE@XZ DD 019930522H
	DD	01H
	DD	FLAT:__unwindtable$??0SendPresentIdWnd@@QAE@XZ
	DD	2 DUP(00H)
	DD	2 DUP(00H)
	DD	00H
	DD	01H
; Function compile flags: /Ogsp
xdata$x	ENDS
;	COMDAT ??0SendPresentIdWnd@@QAE@XZ
_TEXT	SEGMENT
_this$ = -16						; size = 4
__$EHRec$ = -12						; size = 12
??0SendPresentIdWnd@@QAE@XZ PROC			; SendPresentIdWnd::SendPresentIdWnd, COMDAT
; _this$ = ecx

; 41   : {

  00000	6a 04		 push	 4
  00002	b8 00 00 00 00	 mov	 eax, __ehhandler$??0SendPresentIdWnd@@QAE@XZ
  00007	e8 00 00 00 00	 call	 __EH_prolog3
  0000c	8b f1		 mov	 esi, ecx
  0000e	89 75 f0	 mov	 DWORD PTR _this$[ebp], esi
  00011	ff 15 00 00 00
	00		 call	 DWORD PTR __imp_??0ioWnd@@QAE@XZ
  00017	83 65 fc 00	 and	 DWORD PTR __$EHRec$[ebp+8], 0
  0001b	8d 8e 70 01 00
	00		 lea	 ecx, DWORD PTR [esi+368]
  00021	c7 06 00 00 00
	00		 mov	 DWORD PTR [esi], OFFSET ??_7SendPresentIdWnd@@6B@
  00027	ff 15 00 00 00
	00		 call	 DWORD PTR __imp_??0ioHashString@@QAE@XZ

; 42   : 	m_pReturnWnd     = NULL;

  0002d	83 a6 60 01 00
	00 00		 and	 DWORD PTR [esi+352], 0

; 43   : 	m_iPresentType   = 0;

  00034	33 c0		 xor	 eax, eax

; 44   : 	m_iPresentValue1 = 0;

  00036	21 86 68 01 00
	00		 and	 DWORD PTR [esi+360], eax

; 45   : 	m_iPresentValue2 = 0;

  0003c	21 86 6c 01 00
	00		 and	 DWORD PTR [esi+364], eax
  00042	66 89 86 64 01
	00 00		 mov	 WORD PTR [esi+356], ax

; 46   : }

  00049	8b c6		 mov	 eax, esi
  0004b	e8 00 00 00 00	 call	 __EH_epilog3
  00050	c3		 ret	 0
_TEXT	ENDS
;	COMDAT text$x
text$x	SEGMENT
__unwindfunclet$??0SendPresentIdWnd@@QAE@XZ$0:
  00000	8b 4d f0	 mov	 ecx, DWORD PTR _this$[ebp]
  00003	ff 25 00 00 00
	00		 jmp	 DWORD PTR __imp_??1ioWnd@@UAE@XZ
__ehhandler$??0SendPresentIdWnd@@QAE@XZ:
  00009	8b 54 24 08	 mov	 edx, DWORD PTR [esp+8]
  0000d	8d 42 0c	 lea	 eax, DWORD PTR [edx+12]
  00010	8b 4a ec	 mov	 ecx, DWORD PTR [edx-20]
  00013	33 c8		 xor	 ecx, eax
  00015	e8 00 00 00 00	 call	 @__security_check_cookie@4
  0001a	b8 00 00 00 00	 mov	 eax, OFFSET __ehfuncinfo$??0SendPresentIdWnd@@QAE@XZ
  0001f	e9 00 00 00 00	 jmp	 ___CxxFrameHandler3
text$x	ENDS
??0SendPresentIdWnd@@QAE@XZ ENDP			; SendPresentIdWnd::SendPresentIdWnd
PUBLIC	??1SendPresentIdWnd@@UAE@XZ			; SendPresentIdWnd::~SendPresentIdWnd
EXTRN	__imp_??1ioHashString@@QAE@XZ:PROC
;	COMDAT xdata$x
xdata$x	SEGMENT
__unwindtable$??1SendPresentIdWnd@@UAE@XZ DD 0ffffffffH
	DD	FLAT:__unwindfunclet$??1SendPresentIdWnd@@UAE@XZ$0
__ehfuncinfo$??1SendPresentIdWnd@@UAE@XZ DD 019930522H
	DD	01H
	DD	FLAT:__unwindtable$??1SendPresentIdWnd@@UAE@XZ
	DD	2 DUP(00H)
	DD	2 DUP(00H)
	DD	00H
	DD	01H
; Function compile flags: /Ogsp
xdata$x	ENDS
;	COMDAT ??1SendPresentIdWnd@@UAE@XZ
_TEXT	SEGMENT
_this$ = -16						; size = 4
__$EHRec$ = -12						; size = 12
??1SendPresentIdWnd@@UAE@XZ PROC			; SendPresentIdWnd::~SendPresentIdWnd, COMDAT
; _this$ = ecx

; 49   : {

  00000	6a 04		 push	 4
  00002	b8 00 00 00 00	 mov	 eax, __ehhandler$??1SendPresentIdWnd@@UAE@XZ
  00007	e8 00 00 00 00	 call	 __EH_prolog3
  0000c	8b f1		 mov	 esi, ecx
  0000e	89 75 f0	 mov	 DWORD PTR _this$[ebp], esi
  00011	c7 06 00 00 00
	00		 mov	 DWORD PTR [esi], OFFSET ??_7SendPresentIdWnd@@6B@
  00017	83 65 fc 00	 and	 DWORD PTR __$EHRec$[ebp+8], 0

; 50   : 
; 51   : }

  0001b	8d 8e 70 01 00
	00		 lea	 ecx, DWORD PTR [esi+368]
  00021	ff 15 00 00 00
	00		 call	 DWORD PTR __imp_??1ioHashString@@QAE@XZ
  00027	83 4d fc ff	 or	 DWORD PTR __$EHRec$[ebp+8], -1
  0002b	8b ce		 mov	 ecx, esi
  0002d	ff 15 00 00 00
	00		 call	 DWORD PTR __imp_??1ioWnd@@UAE@XZ
  00033	e8 00 00 00 00	 call	 __EH_epilog3
  00038	c3		 ret	 0
_TEXT	ENDS
;	COMDAT text$x
text$x	SEGMENT
__unwindfunclet$??1SendPresentIdWnd@@UAE@XZ$0:
  00000	8b 4d f0	 mov	 ecx, DWORD PTR _this$[ebp]
  00003	ff 25 00 00 00
	00		 jmp	 DWORD PTR __imp_??1ioWnd@@UAE@XZ
__ehhandler$??1SendPresentIdWnd@@UAE@XZ:
  00009	8b 54 24 08	 mov	 edx, DWORD PTR [esp+8]
  0000d	8d 42 0c	 lea	 eax, DWORD PTR [edx+12]
  00010	8b 4a ec	 mov	 ecx, DWORD PTR [edx-20]
  00013	33 c8		 xor	 ecx, eax
  00015	e8 00 00 00 00	 call	 @__security_check_cookie@4
  0001a	b8 00 00 00 00	 mov	 eax, OFFSET __ehfuncinfo$??1SendPresentIdWnd@@UAE@XZ
  0001f	e9 00 00 00 00	 jmp	 ___CxxFrameHandler3
text$x	ENDS
??1SendPresentIdWnd@@UAE@XZ ENDP			; SendPresentIdWnd::~SendPresentIdWnd
PUBLIC	??_C@_00CNPNBAHC@?$AA@				; `string'
PUBLIC	??_C@_0BI@HGHJBLML@?$CFs?5pReturnWnd?5?$DN?$DN?5NULL?4?5?$AA@ ; `string'
PUBLIC	??_C@_0CH@MMNGLBLB@SendPresentIdWnd?3?3ShowSendPresen@ ; `string'
PUBLIC	?ShowSendPresentIdWnd@SendPresentIdWnd@@QAEXPAVNewShopBuyWnd@@FHH@Z ; SendPresentIdWnd::ShowSendPresentIdWnd
EXTRN	__imp_?ShowWnd@ioWnd@@QAEXXZ:PROC
EXTRN	__imp_?SetTitleText@ioWnd@@QAEXPBD0H@Z:PROC
EXTRN	__imp_?GetString@ioStringManager@@QAEPADPBD0HW4FileNamePrefix@1@@Z:PROC
EXTRN	__imp_?GetSingleton@ioStringManager@@SAAAV1@XZ:PROC
EXTRN	__imp_?FindChildWnd@ioWnd@@QAEPAV1@K@Z:PROC
EXTRN	__imp_?SetChildWndStyleAdd@ioWnd@@QAEXKK@Z:PROC
EXTRN	__imp_?Clear@ioHashString@@QAEXXZ:PROC
EXTRN	__imp_?PrintTimeAndLog@CLog@@QAAXHPADZZ:PROC
EXTRN	__imp_?LOG@@3VCLog@@A:BYTE
;	COMDAT ??_C@_00CNPNBAHC@?$AA@
CONST	SEGMENT
??_C@_00CNPNBAHC@?$AA@ DB 00H				; `string'
CONST	ENDS
;	COMDAT ??_C@_0BI@HGHJBLML@?$CFs?5pReturnWnd?5?$DN?$DN?5NULL?4?5?$AA@
CONST	SEGMENT
??_C@_0BI@HGHJBLML@?$CFs?5pReturnWnd?5?$DN?$DN?5NULL?4?5?$AA@ DB '%s pRet'
	DB	'urnWnd == NULL. ', 00H			; `string'
CONST	ENDS
;	COMDAT ??_C@_0CH@MMNGLBLB@SendPresentIdWnd?3?3ShowSendPresen@
CONST	SEGMENT
??_C@_0CH@MMNGLBLB@SendPresentIdWnd?3?3ShowSendPresen@ DB 'SendPresentIdW'
	DB	'nd::ShowSendPresentIdWnd', 00H		; `string'
; Function compile flags: /Ogsp
CONST	ENDS
;	COMDAT ?ShowSendPresentIdWnd@SendPresentIdWnd@@QAEXPAVNewShopBuyWnd@@FHH@Z
_TEXT	SEGMENT
_pReturnWnd$ = 8					; size = 4
_iPresentType$ = 12					; size = 2
_iPresentValue1$ = 16					; size = 4
_iPresentValue2$ = 20					; size = 4
?ShowSendPresentIdWnd@SendPresentIdWnd@@QAEXPAVNewShopBuyWnd@@FHH@Z PROC ; SendPresentIdWnd::ShowSendPresentIdWnd, COMDAT
; _this$ = ecx

; 54   : {

  00000	55		 push	 ebp
  00001	8b ec		 mov	 ebp, esp

; 55   : 	if( !pReturnWnd )

  00003	8b 45 08	 mov	 eax, DWORD PTR _pReturnWnd$[ebp]
  00006	56		 push	 esi
  00007	8b f1		 mov	 esi, ecx
  00009	85 c0		 test	 eax, eax
  0000b	75 1f		 jne	 SHORT $LN2@ShowSendPr

; 56   : 	{
; 57   : 		LOG.PrintTimeAndLog( 0, "%s pReturnWnd == NULL. ", __FUNCTION__ );

  0000d	68 00 00 00 00	 push	 OFFSET ??_C@_0CH@MMNGLBLB@SendPresentIdWnd?3?3ShowSendPresen@
  00012	68 00 00 00 00	 push	 OFFSET ??_C@_0BI@HGHJBLML@?$CFs?5pReturnWnd?5?$DN?$DN?5NULL?4?5?$AA@
  00017	50		 push	 eax
  00018	ff 35 00 00 00
	00		 push	 DWORD PTR __imp_?LOG@@3VCLog@@A
  0001e	ff 15 00 00 00
	00		 call	 DWORD PTR __imp_?PrintTimeAndLog@CLog@@QAAXHPADZZ
  00024	83 c4 10	 add	 esp, 16			; 00000010H

; 58   : 		return;

  00027	e9 81 00 00 00	 jmp	 $LN3@ShowSendPr
$LN2@ShowSendPr:

; 59   : 	}
; 60   : 
; 61   : 	m_pReturnWnd     = pReturnWnd;

  0002c	89 86 60 01 00
	00		 mov	 DWORD PTR [esi+352], eax

; 62   : 	m_iPresentType   = iPresentType;

  00032	66 8b 45 0c	 mov	 ax, WORD PTR _iPresentType$[ebp]
  00036	66 89 86 64 01
	00 00		 mov	 WORD PTR [esi+356], ax

; 63   : 	m_iPresentValue1 = iPresentValue1;

  0003d	8b 45 10	 mov	 eax, DWORD PTR _iPresentValue1$[ebp]
  00040	89 86 68 01 00
	00		 mov	 DWORD PTR [esi+360], eax

; 64   : 	m_iPresentValue2 = iPresentValue2;

  00046	8b 45 14	 mov	 eax, DWORD PTR _iPresentValue2$[ebp]
  00049	57		 push	 edi

; 65   : 
; 66   : 	m_szFriend.Clear();

  0004a	8d 8e 70 01 00
	00		 lea	 ecx, DWORD PTR [esi+368]
  00050	89 86 6c 01 00
	00		 mov	 DWORD PTR [esi+364], eax
  00056	ff 15 00 00 00
	00		 call	 DWORD PTR __imp_?Clear@ioHashString@@QAEXXZ

; 67   : 	SetChildWndStyleAdd( ID_NEXT, IWS_EXACTIVE );

  0005c	68 00 10 00 00	 push	 4096			; 00001000H
  00061	6a 02		 push	 2
  00063	8b ce		 mov	 ecx, esi
  00065	ff 15 00 00 00
	00		 call	 DWORD PTR __imp_?SetChildWndStyleAdd@ioWnd@@QAEXKK@Z

; 68   : 	
; 69   : 	ioWnd *pFriendListBtn = FindChildWnd( ID_FRIEND_BTN );

  0006b	6a 04		 push	 4
  0006d	8b ce		 mov	 ecx, esi
  0006f	ff 15 00 00 00
	00		 call	 DWORD PTR __imp_?FindChildWnd@ioWnd@@QAEPAV1@K@Z
  00075	8b f8		 mov	 edi, eax

; 70   : 	if( pFriendListBtn )

  00077	85 ff		 test	 edi, edi
  00079	74 29		 je	 SHORT $LN1@ShowSendPr

; 71   : 		pFriendListBtn->SetTitleText( STR(1) );

  0007b	6a 00		 push	 0
  0007d	b8 00 00 00 00	 mov	 eax, OFFSET ??_C@_00CNPNBAHC@?$AA@
  00082	50		 push	 eax
  00083	6a 00		 push	 0
  00085	6a 01		 push	 1
  00087	50		 push	 eax
  00088	68 00 00 00 00	 push	 OFFSET ??_C@_0CH@MMNGLBLB@SendPresentIdWnd?3?3ShowSendPresen@
  0008d	ff 15 00 00 00
	00		 call	 DWORD PTR __imp_?GetSingleton@ioStringManager@@SAAAV1@XZ
  00093	8b c8		 mov	 ecx, eax
  00095	ff 15 00 00 00
	00		 call	 DWORD PTR __imp_?GetString@ioStringManager@@QAEPADPBD0HW4FileNamePrefix@1@@Z
  0009b	50		 push	 eax
  0009c	8b cf		 mov	 ecx, edi
  0009e	ff 15 00 00 00
	00		 call	 DWORD PTR __imp_?SetTitleText@ioWnd@@QAEXPBD0H@Z
$LN1@ShowSendPr:

; 72   : 
; 73   : 	ShowWnd();

  000a4	8b ce		 mov	 ecx, esi
  000a6	ff 15 00 00 00
	00		 call	 DWORD PTR __imp_?ShowWnd@ioWnd@@QAEXXZ
  000ac	5f		 pop	 edi
$LN3@ShowSendPr:
  000ad	5e		 pop	 esi

; 74   : }

  000ae	5d		 pop	 ebp
  000af	c2 10 00	 ret	 16			; 00000010H
?ShowSendPresentIdWnd@SendPresentIdWnd@@QAEXPAVNewShopBuyWnd@@FHH@Z ENDP ; SendPresentIdWnd::ShowSendPresentIdWnd
; Function compile flags: /Ogsp
_TEXT	ENDS
;	COMDAT ?iwm_show@SendPresentIdWnd@@UAEXXZ
_TEXT	SEGMENT
?iwm_show@SendPresentIdWnd@@UAEXXZ PROC			; SendPresentIdWnd::iwm_show, COMDAT
; _this$ = ecx

; 178  : 	SetChildWndStyleAdd( ID_NEXT, IWS_EXACTIVE );

  00000	68 00 10 00 00	 push	 4096			; 00001000H
  00005	6a 02		 push	 2
  00007	ff 15 00 00 00
	00		 call	 DWORD PTR __imp_?SetChildWndStyleAdd@ioWnd@@QAEXKK@Z

; 179  : }

  0000d	c3		 ret	 0
?iwm_show@SendPresentIdWnd@@UAEXXZ ENDP			; SendPresentIdWnd::iwm_show
; Function compile flags: /Ogsp
_TEXT	ENDS
;	COMDAT ?iwm_hide@SendPresentIdWnd@@UAEXXZ
_TEXT	SEGMENT
?iwm_hide@SendPresentIdWnd@@UAEXXZ PROC			; SendPresentIdWnd::iwm_hide, COMDAT
; _this$ = ecx

; 183  : }

  00000	c3		 ret	 0
?iwm_hide@SendPresentIdWnd@@UAEXXZ ENDP			; SendPresentIdWnd::iwm_hide
_TEXT	ENDS
PUBLIC	__real@3f266666
PUBLIC	??_C@_0BL@NINCDNPC@SendPresentIdWnd?3?3OnRender?$AA@ ; `string'
EXTRN	__imp_?PrintText@ioFontManager@@QAAXMMMPBDZZ:PROC
EXTRN	__imp_?SetTextColor@ioFontManager@@QAEXK@Z:PROC
EXTRN	__imp_?SetBkColor@ioFontManager@@QAEXHHH@Z:PROC
EXTRN	__imp_?SetTextStyle@ioFontManager@@QAEXW4TextStyle@@@Z:PROC
EXTRN	__imp_?SetAlignType@ioFontManager@@QAEXW4TextAlignType@@@Z:PROC
EXTRN	__imp_?GetSingleton@ioFontManager@@SAAAV1@XZ:PROC
EXTRN	__imp_?GetDerivedPosY@ioWnd@@QBEHXZ:PROC
EXTRN	__imp_?GetDerivedPosX@ioWnd@@QBEHXZ:PROC
EXTRN	__imp_?OnRender@ioWnd@@MAEXXZ:PROC
EXTRN	__fltused:DWORD
;	COMDAT __real@3f266666
CONST	SEGMENT
__real@3f266666 DD 03f266666r			; 0.65
CONST	ENDS
;	COMDAT ??_C@_0BL@NINCDNPC@SendPresentIdWnd?3?3OnRender?$AA@
CONST	SEGMENT
??_C@_0BL@NINCDNPC@SendPresentIdWnd?3?3OnRender?$AA@ DB 'SendPresentIdWnd'
	DB	'::OnRender', 00H				; `string'
; Function compile flags: /Ogsp
CONST	ENDS
;	COMDAT ?OnRender@SendPresentIdWnd@@MAEXXZ
_TEXT	SEGMENT
_iYPos$ = -4						; size = 4
?OnRender@SendPresentIdWnd@@MAEXXZ PROC			; SendPresentIdWnd::OnRender, COMDAT
; _this$ = ecx

; 186  : {

  00000	55		 push	 ebp
  00001	8b ec		 mov	 ebp, esp
  00003	51		 push	 ecx
  00004	53		 push	 ebx
  00005	56		 push	 esi
  00006	57		 push	 edi
  00007	8b f1		 mov	 esi, ecx

; 187  : 	ioWnd::OnRender();

  00009	ff 15 00 00 00
	00		 call	 DWORD PTR __imp_?OnRender@ioWnd@@MAEXXZ

; 188  : 
; 189  : 	int iXPos = GetDerivedPosX();

  0000f	8b ce		 mov	 ecx, esi
  00011	ff 15 00 00 00
	00		 call	 DWORD PTR __imp_?GetDerivedPosX@ioWnd@@QBEHXZ

; 190  : 	int iYPos = GetDerivedPosY();

  00017	8b ce		 mov	 ecx, esi
  00019	8b d8		 mov	 ebx, eax
  0001b	ff 15 00 00 00
	00		 call	 DWORD PTR __imp_?GetDerivedPosY@ioWnd@@QBEHXZ

; 191  : 
; 192  : 	g_FontMgr.SetAlignType( TAT_CENTER );

  00021	8b 35 00 00 00
	00		 mov	 esi, DWORD PTR __imp_?GetSingleton@ioFontManager@@SAAAV1@XZ
  00027	6a 01		 push	 1
  00029	89 45 fc	 mov	 DWORD PTR _iYPos$[ebp], eax
  0002c	ff d6		 call	 esi
  0002e	8b c8		 mov	 ecx, eax
  00030	ff 15 00 00 00
	00		 call	 DWORD PTR __imp_?SetAlignType@ioFontManager@@QAEXW4TextAlignType@@@Z

; 193  : 	g_FontMgr.SetTextStyle( TS_NORMAL );

  00036	33 ff		 xor	 edi, edi
  00038	57		 push	 edi
  00039	ff d6		 call	 esi
  0003b	8b c8		 mov	 ecx, eax
  0003d	ff 15 00 00 00
	00		 call	 DWORD PTR __imp_?SetTextStyle@ioFontManager@@QAEXW4TextStyle@@@Z

; 194  : 	g_FontMgr.SetBkColor( 0, 0, 0 );

  00043	57		 push	 edi
  00044	57		 push	 edi
  00045	57		 push	 edi
  00046	ff d6		 call	 esi
  00048	8b c8		 mov	 ecx, eax
  0004a	ff 15 00 00 00
	00		 call	 DWORD PTR __imp_?SetBkColor@ioFontManager@@QAEXHHH@Z

; 195  : 	g_FontMgr.SetTextColor( TCT_DEFAULT_GRAY );

  00050	68 6e 6e 6e ff	 push	 -9539986		; ff6e6e6eH
  00055	ff d6		 call	 esi
  00057	8b c8		 mov	 ecx, eax
  00059	ff 15 00 00 00
	00		 call	 DWORD PTR __imp_?SetTextColor@ioFontManager@@QAEXK@Z

; 196  : 	g_FontMgr.PrintText( iXPos + 151, iYPos + 53, FONT_SIZE_13, STR(1) );

  0005f	57		 push	 edi
  00060	6a 01		 push	 1
  00062	68 00 00 00 00	 push	 OFFSET ??_C@_00CNPNBAHC@?$AA@
  00067	68 00 00 00 00	 push	 OFFSET ??_C@_0BL@NINCDNPC@SendPresentIdWnd?3?3OnRender?$AA@
  0006c	ff 15 00 00 00
	00		 call	 DWORD PTR __imp_?GetSingleton@ioStringManager@@SAAAV1@XZ
  00072	8b c8		 mov	 ecx, eax
  00074	ff 15 00 00 00
	00		 call	 DWORD PTR __imp_?GetString@ioStringManager@@QAEPADPBD0HW4FileNamePrefix@1@@Z
  0007a	f3 0f 10 05 00
	00 00 00	 movss	 xmm0, DWORD PTR __real@3f266666
  00082	50		 push	 eax
  00083	8b 45 fc	 mov	 eax, DWORD PTR _iYPos$[ebp]
  00086	83 ec 0c	 sub	 esp, 12			; 0000000cH
  00089	f3 0f 11 44 24
	08		 movss	 DWORD PTR [esp+8], xmm0
  0008f	0f 57 c0	 xorps	 xmm0, xmm0
  00092	83 c0 35	 add	 eax, 53			; 00000035H
  00095	f3 0f 2a c0	 cvtsi2ss xmm0, eax
  00099	f3 0f 11 44 24
	04		 movss	 DWORD PTR [esp+4], xmm0
  0009f	81 c3 97 00 00
	00		 add	 ebx, 151		; 00000097H
  000a5	0f 57 c0	 xorps	 xmm0, xmm0
  000a8	f3 0f 2a c3	 cvtsi2ss xmm0, ebx
  000ac	f3 0f 11 04 24	 movss	 DWORD PTR [esp], xmm0
  000b1	ff d6		 call	 esi
  000b3	50		 push	 eax
  000b4	ff 15 00 00 00
	00		 call	 DWORD PTR __imp_?PrintText@ioFontManager@@QAAXMMMPBDZZ
  000ba	83 c4 14	 add	 esp, 20			; 00000014H
  000bd	5f		 pop	 edi
  000be	5e		 pop	 esi
  000bf	5b		 pop	 ebx

; 197  : }

  000c0	c9		 leave
  000c1	c3		 ret	 0
?OnRender@SendPresentIdWnd@@MAEXXZ ENDP			; SendPresentIdWnd::OnRender
_TEXT	ENDS
PUBLIC	?iwm_hide@SendPresentFriendListWnd@@UAEXXZ	; SendPresentFriendListWnd::iwm_hide
EXTRN	__imp_?SetCheckParentOutSide@ioWnd@@QAEX_N@Z:PROC
; Function compile flags: /Ogsp
;	COMDAT ?iwm_hide@SendPresentFriendListWnd@@UAEXXZ
_TEXT	SEGMENT
?iwm_hide@SendPresentFriendListWnd@@UAEXXZ PROC		; SendPresentFriendListWnd::iwm_hide, COMDAT
; _this$ = ecx

; 298  : 	SetCheckParentOutSide( false );

  00000	6a 00		 push	 0
  00002	ff 15 00 00 00
	00		 call	 DWORD PTR __imp_?SetCheckParentOutSide@ioWnd@@QAEX_N@Z

; 299  : }

  00008	c3		 ret	 0
?iwm_hide@SendPresentFriendListWnd@@UAEXXZ ENDP		; SendPresentFriendListWnd::iwm_hide
_TEXT	ENDS
PUBLIC	??_7bad_alloc@std@@6B@				; std::bad_alloc::`vftable'
PUBLIC	??0bad_alloc@std@@QAE@PBD@Z			; std::bad_alloc::bad_alloc
PUBLIC	??_R4bad_alloc@std@@6B@				; std::bad_alloc::`RTTI Complete Object Locator'
PUBLIC	??_R0?AVbad_alloc@std@@@8			; std::bad_alloc `RTTI Type Descriptor'
PUBLIC	??_R3bad_alloc@std@@8				; std::bad_alloc::`RTTI Class Hierarchy Descriptor'
PUBLIC	??_R2bad_alloc@std@@8				; std::bad_alloc::`RTTI Base Class Array'
PUBLIC	??_R1A@?0A@EA@bad_alloc@std@@8			; std::bad_alloc::`RTTI Base Class Descriptor at (0,-1,0,64)'
PUBLIC	??_R1A@?0A@EA@exception@std@@8			; std::exception::`RTTI Base Class Descriptor at (0,-1,0,64)'
PUBLIC	??_R0?AVexception@std@@@8			; std::exception `RTTI Type Descriptor'
PUBLIC	??_R3exception@std@@8				; std::exception::`RTTI Class Hierarchy Descriptor'
PUBLIC	??_R2exception@std@@8				; std::exception::`RTTI Base Class Array'
EXTRN	__imp_??0exception@std@@QAE@ABQBD@Z:PROC
EXTRN	??_Ebad_alloc@std@@UAEPAXI@Z:PROC		; std::bad_alloc::`vector deleting destructor'
EXTRN	?what@exception@std@@UBEPBDXZ:PROC		; std::exception::what
;	COMDAT ??_R2exception@std@@8
; File c:\program files (x86)\microsoft visual studio 10.0\vc\include\exception
rdata$r	SEGMENT
??_R2exception@std@@8 DD FLAT:??_R1A@?0A@EA@exception@std@@8 ; std::exception::`RTTI Base Class Array'
rdata$r	ENDS
;	COMDAT ??_R3exception@std@@8
rdata$r	SEGMENT
??_R3exception@std@@8 DD 00H				; std::exception::`RTTI Class Hierarchy Descriptor'
	DD	00H
	DD	01H
	DD	FLAT:??_R2exception@std@@8
rdata$r	ENDS
;	COMDAT ??_R0?AVexception@std@@@8
_DATA	SEGMENT
??_R0?AVexception@std@@@8 DD FLAT:??_7type_info@@6B@	; std::exception `RTTI Type Descriptor'
	DD	00H
	DB	'.?AVexception@std@@', 00H
_DATA	ENDS
;	COMDAT ??_R1A@?0A@EA@exception@std@@8
rdata$r	SEGMENT
??_R1A@?0A@EA@exception@std@@8 DD FLAT:??_R0?AVexception@std@@@8 ; std::exception::`RTTI Base Class Descriptor at (0,-1,0,64)'
	DD	00H
	DD	00H
	DD	0ffffffffH
	DD	00H
	DD	040H
	DD	FLAT:??_R3exception@std@@8
rdata$r	ENDS
;	COMDAT ??_R1A@?0A@EA@bad_alloc@std@@8
rdata$r	SEGMENT
??_R1A@?0A@EA@bad_alloc@std@@8 DD FLAT:??_R0?AVbad_alloc@std@@@8 ; std::bad_alloc::`RTTI Base Class Descriptor at (0,-1,0,64)'
	DD	01H
	DD	00H
	DD	0ffffffffH
	DD	00H
	DD	040H
	DD	FLAT:??_R3bad_alloc@std@@8
rdata$r	ENDS
;	COMDAT ??_R2bad_alloc@std@@8
rdata$r	SEGMENT
??_R2bad_alloc@std@@8 DD FLAT:??_R1A@?0A@EA@bad_alloc@std@@8 ; std::bad_alloc::`RTTI Base Class Array'
	DD	FLAT:??_R1A@?0A@EA@exception@std@@8
rdata$r	ENDS
;	COMDAT ??_R3bad_alloc@std@@8
rdata$r	SEGMENT
??_R3bad_alloc@std@@8 DD 00H				; std::bad_alloc::`RTTI Class Hierarchy Descriptor'
	DD	00H
	DD	02H
	DD	FLAT:??_R2bad_alloc@std@@8
rdata$r	ENDS
;	COMDAT ??_R0?AVbad_alloc@std@@@8
_DATA	SEGMENT
??_R0?AVbad_alloc@std@@@8 DD FLAT:??_7type_info@@6B@	; std::bad_alloc `RTTI Type Descriptor'
	DD	00H
	DB	'.?AVbad_alloc@std@@', 00H
_DATA	ENDS
;	COMDAT ??_R4bad_alloc@std@@6B@
rdata$r	SEGMENT
??_R4bad_alloc@std@@6B@ DD 00H				; std::bad_alloc::`RTTI Complete Object Locator'
	DD	00H
	DD	00H
	DD	FLAT:??_R0?AVbad_alloc@std@@@8
	DD	FLAT:??_R3bad_alloc@std@@8
rdata$r	ENDS
;	COMDAT ??_7bad_alloc@std@@6B@
CONST	SEGMENT
??_7bad_alloc@std@@6B@ DD FLAT:??_R4bad_alloc@std@@6B@	; std::bad_alloc::`vftable'
	DD	FLAT:??_Ebad_alloc@std@@UAEPAXI@Z
	DD	FLAT:?what@exception@std@@UBEPBDXZ
; Function compile flags: /Ogsp
CONST	ENDS
;	COMDAT ??0bad_alloc@std@@QAE@PBD@Z
_TEXT	SEGMENT
__Message$ = 8						; size = 4
??0bad_alloc@std@@QAE@PBD@Z PROC			; std::bad_alloc::bad_alloc, COMDAT
; _this$ = ecx

; 345  : 		{	// construct from message string

  00000	55		 push	 ebp
  00001	8b ec		 mov	 ebp, esp
  00003	56		 push	 esi
  00004	8d 45 08	 lea	 eax, DWORD PTR __Message$[ebp]
  00007	50		 push	 eax
  00008	8b f1		 mov	 esi, ecx
  0000a	ff 15 00 00 00
	00		 call	 DWORD PTR __imp_??0exception@std@@QAE@ABQBD@Z
  00010	c7 06 00 00 00
	00		 mov	 DWORD PTR [esi], OFFSET ??_7bad_alloc@std@@6B@

; 346  : 		}

  00016	8b c6		 mov	 eax, esi
  00018	5e		 pop	 esi
  00019	5d		 pop	 ebp
  0001a	c2 04 00	 ret	 4
??0bad_alloc@std@@QAE@PBD@Z ENDP			; std::bad_alloc::bad_alloc
_TEXT	ENDS
PUBLIC	?iwm_wheel@SendPresentFriendListWnd@@UAEXH@Z	; SendPresentFriendListWnd::iwm_wheel
EXTRN	?IsMouseBusy@ioApplication@@QAE_NXZ:PROC	; ioApplication::IsMouseBusy
EXTRN	?GetSingleton@ioApplication@@SAAAV1@XZ:PROC	; ioApplication::GetSingleton
EXTRN	__imp_?iwm_wheel@ioWnd@@UAEXH@Z:PROC
EXTRN	__imp_?IsShow@ioWnd@@QBE_NXZ:PROC
; Function compile flags: /Ogsp
; File d:\lost saga for developer\youtube\tutorial\source\src\lsclient\gui\sendpresentwnd.cpp
;	COMDAT ?iwm_wheel@SendPresentFriendListWnd@@UAEXH@Z
_TEXT	SEGMENT
_zDelta$ = 8						; size = 4
?iwm_wheel@SendPresentFriendListWnd@@UAEXH@Z PROC	; SendPresentFriendListWnd::iwm_wheel, COMDAT
; _this$ = ecx

; 302  : {

  00000	55		 push	 ebp
  00001	8b ec		 mov	 ebp, esp
  00003	57		 push	 edi
  00004	8b f9		 mov	 edi, ecx

; 303  : 	if( !IsShow() )

  00006	ff 15 00 00 00
	00		 call	 DWORD PTR __imp_?IsShow@ioWnd@@QBE_NXZ
  0000c	84 c0		 test	 al, al
  0000e	75 0d		 jne	 SHORT $LN8@iwm_wheel

; 304  : 		ioWnd::iwm_wheel( zDelta );

  00010	ff 75 08	 push	 DWORD PTR _zDelta$[ebp]
  00013	8b cf		 mov	 ecx, edi
  00015	ff 15 00 00 00
	00		 call	 DWORD PTR __imp_?iwm_wheel@ioWnd@@UAEXH@Z

; 305  : 	else

  0001b	eb 58		 jmp	 SHORT $LN1@iwm_wheel
$LN8@iwm_wheel:

; 306  : 	{
; 307  : 		if( g_App.IsMouseBusy() ) return;

  0001d	e8 00 00 00 00	 call	 ?GetSingleton@ioApplication@@SAAAV1@XZ ; ioApplication::GetSingleton
  00022	8b c8		 mov	 ecx, eax
  00024	e8 00 00 00 00	 call	 ?IsMouseBusy@ioApplication@@QAE_NXZ ; ioApplication::IsMouseBusy
  00029	84 c0		 test	 al, al
  0002b	75 48		 jne	 SHORT $LN1@iwm_wheel

; 308  : 
; 309  : 		ioScroll *pScroll = (ioScroll*)FindChildWnd( ID_VERT_SCROLL );

  0002d	56		 push	 esi
  0002e	68 e8 03 00 00	 push	 1000			; 000003e8H
  00033	8b cf		 mov	 ecx, edi
  00035	ff 15 00 00 00
	00		 call	 DWORD PTR __imp_?FindChildWnd@ioWnd@@QAEPAV1@K@Z
  0003b	8b f0		 mov	 esi, eax

; 310  : 		if( pScroll == NULL ) return;

  0003d	85 f6		 test	 esi, esi
  0003f	74 33		 je	 SHORT $LN11@iwm_wheel

; 311  : 		if( !pScroll->IsShow() ) return;

  00041	8b ce		 mov	 ecx, esi
  00043	ff 15 00 00 00
	00		 call	 DWORD PTR __imp_?IsShow@ioWnd@@QBE_NXZ
  00049	84 c0		 test	 al, al
  0004b	74 27		 je	 SHORT $LN11@iwm_wheel

; 312  : 
; 313  : 		if( zDelta == WHEEL_DELTA )

  0004d	83 7d 08 78	 cmp	 DWORD PTR _zDelta$[ebp], 120 ; 00000078H
  00051	75 09		 jne	 SHORT $LN3@iwm_wheel

; 314  : 			pScroll->SetScrollPos( m_iCurPos - 1 );

  00053	8b 8f bc 01 00
	00		 mov	 ecx, DWORD PTR [edi+444]
  00059	49		 dec	 ecx
  0005a	eb 0d		 jmp	 SHORT $LN12@iwm_wheel
$LN3@iwm_wheel:

; 315  : 		else if( zDelta == -WHEEL_DELTA )

  0005c	83 7d 08 88	 cmp	 DWORD PTR _zDelta$[ebp], -120 ; ffffff88H
  00060	75 12		 jne	 SHORT $LN11@iwm_wheel

; 316  : 			pScroll->SetScrollPos( m_iCurPos + 1 );

  00062	8b 8f bc 01 00
	00		 mov	 ecx, DWORD PTR [edi+444]
  00068	41		 inc	 ecx
$LN12@iwm_wheel:
  00069	8b 06		 mov	 eax, DWORD PTR [esi]
  0006b	51		 push	 ecx
  0006c	8b ce		 mov	 ecx, esi
  0006e	ff 90 38 01 00
	00		 call	 DWORD PTR [eax+312]
$LN11@iwm_wheel:
  00074	5e		 pop	 esi
$LN1@iwm_wheel:
  00075	5f		 pop	 edi

; 317  : 	}
; 318  : }

  00076	5d		 pop	 ebp
  00077	c2 04 00	 ret	 4
?iwm_wheel@SendPresentFriendListWnd@@UAEXH@Z ENDP	; SendPresentFriendListWnd::iwm_wheel
_TEXT	ENDS
PUBLIC	??1bad_alloc@std@@UAE@XZ			; std::bad_alloc::~bad_alloc
EXTRN	__imp_??1exception@std@@UAE@XZ:PROC
; Function compile flags: /Ogsp
; File c:\program files (x86)\microsoft visual studio 10.0\vc\include\exception
;	COMDAT ??1bad_alloc@std@@UAE@XZ
_TEXT	SEGMENT
??1bad_alloc@std@@UAE@XZ PROC				; std::bad_alloc::~bad_alloc, COMDAT
; _this$ = ecx

; 354  : 		{	// destroy the object

  00000	c7 01 00 00 00
	00		 mov	 DWORD PTR [ecx], OFFSET ??_7bad_alloc@std@@6B@

; 355  : 		}

  00006	ff 25 00 00 00
	00		 jmp	 DWORD PTR __imp_??1exception@std@@UAE@XZ
??1bad_alloc@std@@UAE@XZ ENDP				; std::bad_alloc::~bad_alloc
_TEXT	ENDS
PUBLIC	?iwm_vscroll@SendPresentFriendListWnd@@UAEXKH@Z	; SendPresentFriendListWnd::iwm_vscroll
; Function compile flags: /Ogsp
; File d:\lost saga for developer\youtube\tutorial\source\src\lsclient\gui\sendpresentwnd.cpp
;	COMDAT ?iwm_vscroll@SendPresentFriendListWnd@@UAEXKH@Z
_TEXT	SEGMENT
_dwID$ = 8						; size = 4
_curPos$ = 12						; size = 4
?iwm_vscroll@SendPresentFriendListWnd@@UAEXKH@Z PROC	; SendPresentFriendListWnd::iwm_vscroll, COMDAT
; _this$ = ecx

; 321  : {

  00000	55		 push	 ebp
  00001	8b ec		 mov	 ebp, esp
  00003	56		 push	 esi

; 322  : 	ioScroll *pScroll = (ioScroll*)FindChildWnd( ID_VERT_SCROLL );

  00004	68 e8 03 00 00	 push	 1000			; 000003e8H
  00009	8b f1		 mov	 esi, ecx
  0000b	ff 15 00 00 00
	00		 call	 DWORD PTR __imp_?FindChildWnd@ioWnd@@QAEPAV1@K@Z

; 323  : 	if( pScroll == NULL ) return;

  00011	85 c0		 test	 eax, eax
  00013	74 15		 je	 SHORT $LN3@iwm_vscrol

; 324  : 	if( !pScroll->IsShow() ) return;

  00015	8b c8		 mov	 ecx, eax
  00017	ff 15 00 00 00
	00		 call	 DWORD PTR __imp_?IsShow@ioWnd@@QBE_NXZ
  0001d	84 c0		 test	 al, al
  0001f	74 09		 je	 SHORT $LN3@iwm_vscrol

; 325  : 
; 326  : 	m_iCurPos = curPos;

  00021	8b 45 0c	 mov	 eax, DWORD PTR _curPos$[ebp]
  00024	89 86 bc 01 00
	00		 mov	 DWORD PTR [esi+444], eax
$LN3@iwm_vscrol:
  0002a	5e		 pop	 esi

; 327  : }

  0002b	5d		 pop	 ebp
  0002c	c2 08 00	 ret	 8
?iwm_vscroll@SendPresentFriendListWnd@@UAEXKH@Z ENDP	; SendPresentFriendListWnd::iwm_vscroll
_TEXT	ENDS
EXTRN	??3@YAXPAX@Z:PROC				; operator delete
; Function compile flags: /Ogsp
;	COMDAT ??_Gbad_alloc@std@@UAEPAXI@Z
_TEXT	SEGMENT
___flags$ = 8						; size = 4
??_Gbad_alloc@std@@UAEPAXI@Z PROC			; std::bad_alloc::`scalar deleting destructor', COMDAT
; _this$ = ecx
  00000	55		 push	 ebp
  00001	8b ec		 mov	 ebp, esp
  00003	56		 push	 esi
  00004	8b f1		 mov	 esi, ecx
  00006	c7 06 00 00 00
	00		 mov	 DWORD PTR [esi], OFFSET ??_7bad_alloc@std@@6B@
  0000c	ff 15 00 00 00
	00		 call	 DWORD PTR __imp_??1exception@std@@UAE@XZ
  00012	f6 45 08 01	 test	 BYTE PTR ___flags$[ebp], 1
  00016	74 07		 je	 SHORT $LN1@scalar
  00018	56		 push	 esi
  00019	e8 00 00 00 00	 call	 ??3@YAXPAX@Z		; operator delete
  0001e	59		 pop	 ecx
$LN1@scalar:
  0001f	8b c6		 mov	 eax, esi
  00021	5e		 pop	 esi
  00022	5d		 pop	 ebp
  00023	c2 04 00	 ret	 4
??_Gbad_alloc@std@@UAEPAXI@Z ENDP			; std::bad_alloc::`scalar deleting destructor'
_TEXT	ENDS
PUBLIC	??2@YAPAXIPAX@Z					; operator new
; Function compile flags: /Ogsp
; File c:\program files (x86)\microsoft visual studio 10.0\vc\include\new
;	COMDAT ??2@YAPAXIPAX@Z
_TEXT	SEGMENT
___formal$ = 8						; size = 4
__Where$ = 12						; size = 4
??2@YAPAXIPAX@Z PROC					; operator new, COMDAT

; 56   : 	{	// construct array with placement at _Where

  00000	55		 push	 ebp
  00001	8b ec		 mov	 ebp, esp

; 57   : 	return (_Where);

  00003	8b 45 0c	 mov	 eax, DWORD PTR __Where$[ebp]

; 58   : 	}

  00006	5d		 pop	 ebp
  00007	c3		 ret	 0
??2@YAPAXIPAX@Z ENDP					; operator new
_TEXT	ENDS
PUBLIC	??3@YAXPAX0@Z					; operator delete
; Function compile flags: /Ogsp
;	COMDAT ??3@YAXPAX0@Z
_TEXT	SEGMENT
___formal$ = 8						; size = 4
___formal$ = 12						; size = 4
??3@YAXPAX0@Z PROC					; operator delete, COMDAT

; 62   : 	}

  00000	c3		 ret	 0
??3@YAXPAX0@Z ENDP					; operator delete
_TEXT	ENDS
PUBLIC	??_7SendPresentConfirmWnd@@6B@			; SendPresentConfirmWnd::`vftable'
PUBLIC	??0SendPresentConfirmWnd@@QAE@XZ		; SendPresentConfirmWnd::SendPresentConfirmWnd
PUBLIC	??_R4SendPresentConfirmWnd@@6B@			; SendPresentConfirmWnd::`RTTI Complete Object Locator'
PUBLIC	??_R0?AVSendPresentConfirmWnd@@@8		; SendPresentConfirmWnd `RTTI Type Descriptor'
PUBLIC	??_R3SendPresentConfirmWnd@@8			; SendPresentConfirmWnd::`RTTI Class Hierarchy Descriptor'
PUBLIC	??_R2SendPresentConfirmWnd@@8			; SendPresentConfirmWnd::`RTTI Base Class Array'
PUBLIC	??_R1A@?0A@EA@SendPresentConfirmWnd@@8		; SendPresentConfirmWnd::`RTTI Base Class Descriptor at (0,-1,0,64)'
PUBLIC	?AddRenderImage@SendPresentConfirmWnd@@UAEXABVioHashString@@PAVioUIRenderImage@@@Z ; SendPresentConfirmWnd::AddRenderImage
PUBLIC	?OnRender@SendPresentConfirmWnd@@MAEXXZ		; SendPresentConfirmWnd::OnRender
PUBLIC	?iwm_command@SendPresentConfirmWnd@@UAEXPAVioWnd@@HK@Z ; SendPresentConfirmWnd::iwm_command
PUBLIC	?iwm_show@SendPresentConfirmWnd@@UAEXXZ		; SendPresentConfirmWnd::iwm_show
EXTRN	?iwm_hide@ioWnd@@UAEXXZ:PROC			; ioWnd::iwm_hide
EXTRN	??_ESendPresentConfirmWnd@@UAEPAXI@Z:PROC	; SendPresentConfirmWnd::`vector deleting destructor'
;	COMDAT ??_R1A@?0A@EA@SendPresentConfirmWnd@@8
; File d:\lost saga for developer\youtube\tutorial\source\src\lsclient\gui\sendpresentwnd.cpp
rdata$r	SEGMENT
??_R1A@?0A@EA@SendPresentConfirmWnd@@8 DD FLAT:??_R0?AVSendPresentConfirmWnd@@@8 ; SendPresentConfirmWnd::`RTTI Base Class Descriptor at (0,-1,0,64)'
	DD	01H
	DD	00H
	DD	0ffffffffH
	DD	00H
	DD	040H
	DD	FLAT:??_R3SendPresentConfirmWnd@@8
rdata$r	ENDS
;	COMDAT ??_R2SendPresentConfirmWnd@@8
rdata$r	SEGMENT
??_R2SendPresentConfirmWnd@@8 DD FLAT:??_R1A@?0A@EA@SendPresentConfirmWnd@@8 ; SendPresentConfirmWnd::`RTTI Base Class Array'
	DD	FLAT:??_R1A@?0A@EA@ioWnd@@8
rdata$r	ENDS
;	COMDAT ??_R3SendPresentConfirmWnd@@8
rdata$r	SEGMENT
??_R3SendPresentConfirmWnd@@8 DD 00H			; SendPresentConfirmWnd::`RTTI Class Hierarchy Descriptor'
	DD	00H
	DD	02H
	DD	FLAT:??_R2SendPresentConfirmWnd@@8
rdata$r	ENDS
;	COMDAT ??_R0?AVSendPresentConfirmWnd@@@8
_DATA	SEGMENT
??_R0?AVSendPresentConfirmWnd@@@8 DD FLAT:??_7type_info@@6B@ ; SendPresentConfirmWnd `RTTI Type Descriptor'
	DD	00H
	DB	'.?AVSendPresentConfirmWnd@@', 00H
_DATA	ENDS
;	COMDAT ??_R4SendPresentConfirmWnd@@6B@
rdata$r	SEGMENT
??_R4SendPresentConfirmWnd@@6B@ DD 00H			; SendPresentConfirmWnd::`RTTI Complete Object Locator'
	DD	00H
	DD	00H
	DD	FLAT:??_R0?AVSendPresentConfirmWnd@@@8
	DD	FLAT:??_R3SendPresentConfirmWnd@@8
rdata$r	ENDS
;	COMDAT ??_7SendPresentConfirmWnd@@6B@
CONST	SEGMENT
??_7SendPresentConfirmWnd@@6B@ DD FLAT:??_R4SendPresentConfirmWnd@@6B@ ; SendPresentConfirmWnd::`vftable'
	DD	FLAT:?AddRenderFrame@ioWnd@@UAEXABVioHashString@@PAVioUIRenderFrame@@@Z
	DD	FLAT:?AddRenderImage@SendPresentConfirmWnd@@UAEXABVioHashString@@PAVioUIRenderImage@@@Z
	DD	FLAT:?AddTooltipHelp@ioWnd@@UAEXABVioHashString@@00@Z
	DD	FLAT:?ParseExtraInfo@ioWnd@@UAEXAAVioXMLElement@@@Z
	DD	FLAT:?AddNamedRenderImage@ioWnd@@UAEXABVioHashString@@PAVioUIRenderImage@@@Z
	DD	FLAT:?RemoveNamedRenderImage@ioWnd@@UAEXABVioHashString@@@Z
	DD	FLAT:?GetNamedRenderImage@ioWnd@@UBEPAVioUIRenderImage@@ABVioHashString@@@Z
	DD	FLAT:?SetWindowAlpha@ioWnd@@UAEXH@Z
	DD	FLAT:?SetActive@ioWnd@@UAEXXZ
	DD	FLAT:?SetInActive@ioWnd@@UAEXXZ
	DD	FLAT:?ClearElementImageList@ioWnd@@UAEXXZ
	DD	FLAT:?SetSize@ioWnd@@UAEXHH@Z
	DD	FLAT:?SetPositionToDefault@ioWnd@@UAEXHH_N0@Z
	DD	FLAT:?IsNeedProcess@ioWnd@@UBE_NXZ
	DD	FLAT:?IsCanMouseReaction@ioWnd@@UBE_NXZ
	DD	FLAT:?AddChild@ioWnd@@UAEXPAV1@@Z
	DD	FLAT:?DeleteChild@ioWnd@@UAEXK@Z
	DD	FLAT:?DeleteAllChild@ioWnd@@UAEXXZ
	DD	FLAT:?OnRenderShowAndHide@ioWnd@@MAE_NXZ
	DD	FLAT:?OnRenderShowAndHideByDefault@ioWnd@@MAE_NK@Z
	DD	FLAT:?OnRenderShowAndHideByTop@ioWnd@@MAE_NK@Z
	DD	FLAT:?OnRenderShowAndHideByDown@ioWnd@@MAE_NK@Z
	DD	FLAT:?OnRender@SendPresentConfirmWnd@@MAEXXZ
	DD	FLAT:?OnRenderAfterChild@ioWnd@@MAEXXZ
	DD	FLAT:?OnProcess@ioWnd@@MAEXM@Z
	DD	FLAT:?OnMouseProcess@ioWnd@@MAEXABVioMouse@@@Z
	DD	FLAT:?CheckFrameReSize@ioWnd@@MAEXHHHH@Z
	DD	FLAT:?RenderImageList@ioWnd@@MAEXHHW4UIRenderType@@@Z
	DD	FLAT:?iwm_create@ioWnd@@UAEXXZ
	DD	FLAT:?iwm_destroy@ioWnd@@UAEXXZ
	DD	FLAT:?iwm_lbuttondown@ioWnd@@UAEXABVioMouse@@@Z
	DD	FLAT:?iwm_lbuttonup@ioWnd@@UAEXABVioMouse@@@Z
	DD	FLAT:?iwm_lbuttonDBLCLK@ioWnd@@UAEXABVioMouse@@@Z
	DD	FLAT:?iwm_rbuttondown@ioWnd@@UAEXABVioMouse@@@Z
	DD	FLAT:?iwm_rbuttonup@ioWnd@@UAEXABVioMouse@@@Z
	DD	FLAT:?iwm_command@SendPresentConfirmWnd@@UAEXPAVioWnd@@HK@Z
	DD	FLAT:?iwm_mouseover@ioWnd@@UAEXABVioMouse@@@Z
	DD	FLAT:?iwm_mousemove@ioWnd@@UAEXABVioMouse@@@Z
	DD	FLAT:?iwm_mouseleave@ioWnd@@UAEXABVioMouse@@@Z
	DD	FLAT:?iwm_vscroll@ioWnd@@UAEXKH@Z
	DD	FLAT:?iwm_wheel@ioWnd@@UAEXH@Z
	DD	FLAT:?iwm_show@SendPresentConfirmWnd@@UAEXXZ
	DD	FLAT:?iwm_hide@ioWnd@@UAEXXZ
	DD	FLAT:?iwm_esc@ioWnd@@UAE_NXZ
	DD	FLAT:?iwm_spacebar@ioWnd@@UAE_NXZ
	DD	FLAT:?iwm_gototop@ioWnd@@UAEXXZ
	DD	FLAT:?iwm_dragenter@ioWnd@@UAE?AW4IWDropEffect@@PAVioDragItem@@ABVioMouse@@@Z
	DD	FLAT:?iwm_dragover@ioWnd@@UAE?AW4IWDropEffect@@PAVioDragItem@@ABVioMouse@@@Z
	DD	FLAT:?iwm_dragleave@ioWnd@@UAEXXZ
	DD	FLAT:?iwm_dropitem@ioWnd@@UAE_NPAVioDragItem@@ABVioMouse@@PAV1@@Z
	DD	FLAT:?iwm_dropdone@ioWnd@@UAEXPAVioDragItem@@PAV1@_N@Z
	DD	FLAT:?IsEXType@ioWnd@@UBE_NXZ
	DD	FLAT:?GetWndType@ioWnd@@UBEKXZ
	DD	FLAT:?RenderWnd@ioWnd@@UAEXXZ
	DD	FLAT:?SetIDEX@ioWnd@@UAEXAAK_N@Z
	DD	FLAT:?ParseXML@ioWnd@@UAEXAAVioXMLElement@@@Z
	DD	FLAT:?GetHeaderFileName@ioWnd@@UAEPBDXZ
	DD	FLAT:?GetTemplateName@ioWnd@@UAEPBDXZ
	DD	FLAT:?GetDefClassName@ioWnd@@UBEPBDXZ
	DD	FLAT:?_Clone@ioWnd@@UAEPAV1@XZ
	DD	FLAT:?Copy@ioWnd@@UAEXPAV1@@Z
	DD	FLAT:?Save@ioWnd@@UAE_NAAVioXMLElement@@@Z
	DD	FLAT:?SetSaveData@ioWnd@@UAEXAAVioXMLElement@@@Z
	DD	FLAT:?SetPosX@ioWnd@@UAEXH@Z
	DD	FLAT:?SetPosY@ioWnd@@UAEXH@Z
	DD	FLAT:?SetWidth@ioWnd@@UAEXH@Z
	DD	FLAT:?SetHeight@ioWnd@@UAEXH@Z
	DD	FLAT:?GetNumFixedRenderFrame@ioWnd@@UBEHXZ
	DD	FLAT:?GetFixedRenderFrameType@ioWnd@@UAEPBDH@Z
	DD	FLAT:?GetRenderFrame@ioWnd@@UAEPAPAVioUIRenderElement@@PBD@Z
	DD	FLAT:?GetNumFixedRenderImage@ioWnd@@UBEHXZ
	DD	FLAT:?GetFixedRenderImageType@ioWnd@@UAEPBDH@Z
	DD	FLAT:?GetRenderImage@ioWnd@@UAEPAPAVioUIRenderElement@@PBD@Z
	DD	FLAT:?AddEffect@ioWnd@@UAEXABVioHashString@@PAVioUI3DEffectRender@@@Z
	DD	FLAT:?GetEffect@ioWnd@@UAEPAVioUI3DEffectRender@@VioHashString@@@Z
	DD	FLAT:??_ESendPresentConfirmWnd@@UAEPAXI@Z
CONST	ENDS
;	COMDAT xdata$x
xdata$x	SEGMENT
__unwindtable$??0SendPresentConfirmWnd@@QAE@XZ DD 0ffffffffH
	DD	FLAT:__unwindfunclet$??0SendPresentConfirmWnd@@QAE@XZ$0
__ehfuncinfo$??0SendPresentConfirmWnd@@QAE@XZ DD 019930522H
	DD	01H
	DD	FLAT:__unwindtable$??0SendPresentConfirmWnd@@QAE@XZ
	DD	2 DUP(00H)
	DD	2 DUP(00H)
	DD	00H
	DD	01H
; Function compile flags: /Ogsp
xdata$x	ENDS
;	COMDAT ??0SendPresentConfirmWnd@@QAE@XZ
_TEXT	SEGMENT
_this$ = -16						; size = 4
__$EHRec$ = -12						; size = 12
??0SendPresentConfirmWnd@@QAE@XZ PROC			; SendPresentConfirmWnd::SendPresentConfirmWnd, COMDAT
; _this$ = ecx

; 451  : {

  00000	6a 04		 push	 4
  00002	b8 00 00 00 00	 mov	 eax, __ehhandler$??0SendPresentConfirmWnd@@QAE@XZ
  00007	e8 00 00 00 00	 call	 __EH_prolog3
  0000c	8b f1		 mov	 esi, ecx
  0000e	89 75 f0	 mov	 DWORD PTR _this$[ebp], esi
  00011	ff 15 00 00 00
	00		 call	 DWORD PTR __imp_??0ioWnd@@QAE@XZ
  00017	33 db		 xor	 ebx, ebx
  00019	8d 8e 78 01 00
	00		 lea	 ecx, DWORD PTR [esi+376]
  0001f	89 5d fc	 mov	 DWORD PTR __$EHRec$[ebp+8], ebx
  00022	c7 06 00 00 00
	00		 mov	 DWORD PTR [esi], OFFSET ??_7SendPresentConfirmWnd@@6B@
  00028	ff 15 00 00 00
	00		 call	 DWORD PTR __imp_??0ioHashString@@QAE@XZ

; 452  : 	m_pPresentIcon    = NULL;
; 453  : 	m_pCostumeMark = NULL;
; 454  : 
; 455  : 	m_pReturnWnd      = NULL;
; 456  : 
; 457  : 	m_iPresentType    = 0;

  0002e	33 c0		 xor	 eax, eax
  00030	66 89 86 6c 01
	00 00		 mov	 WORD PTR [esi+364], ax
  00037	89 9e 60 01 00
	00		 mov	 DWORD PTR [esi+352], ebx
  0003d	89 9e 64 01 00
	00		 mov	 DWORD PTR [esi+356], ebx
  00043	89 9e 68 01 00
	00		 mov	 DWORD PTR [esi+360], ebx

; 458  : 	m_iPresentValue1  = 0;

  00049	89 9e 70 01 00
	00		 mov	 DWORD PTR [esi+368], ebx

; 459  : 	m_iPresentValue2  = 0;

  0004f	89 9e 74 01 00
	00		 mov	 DWORD PTR [esi+372], ebx

; 460  : 
; 461  : 	m_iBonusPeso      = 0;

  00055	89 9e 88 01 00
	00		 mov	 DWORD PTR [esi+392], ebx

; 462  : 	m_iCash           = 0;

  0005b	89 9e 8c 01 00
	00		 mov	 DWORD PTR [esi+396], ebx

; 463  : 
; 464  : 	m_bIsUnableBonus = false;

  00061	66 89 9e 90 01
	00 00		 mov	 WORD PTR [esi+400], bx

; 465  : 	m_bIsEnableBonus = false;
; 466  : }

  00068	8b c6		 mov	 eax, esi
  0006a	e8 00 00 00 00	 call	 __EH_epilog3
  0006f	c3		 ret	 0
_TEXT	ENDS
;	COMDAT text$x
text$x	SEGMENT
__unwindfunclet$??0SendPresentConfirmWnd@@QAE@XZ$0:
  00000	8b 4d f0	 mov	 ecx, DWORD PTR _this$[ebp]
  00003	ff 25 00 00 00
	00		 jmp	 DWORD PTR __imp_??1ioWnd@@UAE@XZ
__ehhandler$??0SendPresentConfirmWnd@@QAE@XZ:
  00009	8b 54 24 08	 mov	 edx, DWORD PTR [esp+8]
  0000d	8d 42 0c	 lea	 eax, DWORD PTR [edx+12]
  00010	8b 4a ec	 mov	 ecx, DWORD PTR [edx-20]
  00013	33 c8		 xor	 ecx, eax
  00015	e8 00 00 00 00	 call	 @__security_check_cookie@4
  0001a	b8 00 00 00 00	 mov	 eax, OFFSET __ehfuncinfo$??0SendPresentConfirmWnd@@QAE@XZ
  0001f	e9 00 00 00 00	 jmp	 ___CxxFrameHandler3
text$x	ENDS
??0SendPresentConfirmWnd@@QAE@XZ ENDP			; SendPresentConfirmWnd::SendPresentConfirmWnd
PUBLIC	??1SendPresentConfirmWnd@@UAE@XZ		; SendPresentConfirmWnd::~SendPresentConfirmWnd
;	COMDAT xdata$x
xdata$x	SEGMENT
__unwindtable$??1SendPresentConfirmWnd@@UAE@XZ DD 0ffffffffH
	DD	FLAT:__unwindfunclet$??1SendPresentConfirmWnd@@UAE@XZ$0
	DD	00H
	DD	FLAT:__unwindfunclet$??1SendPresentConfirmWnd@@UAE@XZ$1
__ehfuncinfo$??1SendPresentConfirmWnd@@UAE@XZ DD 019930522H
	DD	02H
	DD	FLAT:__unwindtable$??1SendPresentConfirmWnd@@UAE@XZ
	DD	2 DUP(00H)
	DD	2 DUP(00H)
	DD	00H
	DD	01H
; Function compile flags: /Ogsp
xdata$x	ENDS
;	COMDAT ??1SendPresentConfirmWnd@@UAE@XZ
_TEXT	SEGMENT
_this$ = -16						; size = 4
__$EHRec$ = -12						; size = 12
??1SendPresentConfirmWnd@@UAE@XZ PROC			; SendPresentConfirmWnd::~SendPresentConfirmWnd, COMDAT
; _this$ = ecx

; 469  : {

  00000	6a 04		 push	 4
  00002	b8 00 00 00 00	 mov	 eax, __ehhandler$??1SendPresentConfirmWnd@@UAE@XZ
  00007	e8 00 00 00 00	 call	 __EH_prolog3
  0000c	8b f1		 mov	 esi, ecx
  0000e	89 75 f0	 mov	 DWORD PTR _this$[ebp], esi
  00011	c7 06 00 00 00
	00		 mov	 DWORD PTR [esi], OFFSET ??_7SendPresentConfirmWnd@@6B@

; 470  : 	SAFEDELETE( m_pPresentIcon );

  00017	8b 8e 60 01 00
	00		 mov	 ecx, DWORD PTR [esi+352]
  0001d	c7 45 fc 01 00
	00 00		 mov	 DWORD PTR __$EHRec$[ebp+8], 1
  00024	85 c9		 test	 ecx, ecx
  00026	74 0e		 je	 SHORT $LN2@SendPresen
  00028	8b 01		 mov	 eax, DWORD PTR [ecx]
  0002a	6a 01		 push	 1
  0002c	ff 50 40	 call	 DWORD PTR [eax+64]
  0002f	83 a6 60 01 00
	00 00		 and	 DWORD PTR [esi+352], 0
$LN2@SendPresen:

; 471  : 	SAFEDELETE( m_pCostumeMark );

  00036	8b 8e 64 01 00
	00		 mov	 ecx, DWORD PTR [esi+356]
  0003c	85 c9		 test	 ecx, ecx
  0003e	74 0e		 je	 SHORT $LN1@SendPresen
  00040	8b 01		 mov	 eax, DWORD PTR [ecx]
  00042	6a 01		 push	 1
  00044	ff 50 40	 call	 DWORD PTR [eax+64]
  00047	83 a6 64 01 00
	00 00		 and	 DWORD PTR [esi+356], 0
$LN1@SendPresen:

; 472  : }

  0004e	8d 8e 78 01 00
	00		 lea	 ecx, DWORD PTR [esi+376]
  00054	c6 45 fc 00	 mov	 BYTE PTR __$EHRec$[ebp+8], 0
  00058	ff 15 00 00 00
	00		 call	 DWORD PTR __imp_??1ioHashString@@QAE@XZ
  0005e	83 4d fc ff	 or	 DWORD PTR __$EHRec$[ebp+8], -1
  00062	8b ce		 mov	 ecx, esi
  00064	ff 15 00 00 00
	00		 call	 DWORD PTR __imp_??1ioWnd@@UAE@XZ
  0006a	e8 00 00 00 00	 call	 __EH_epilog3
  0006f	c3		 ret	 0
_TEXT	ENDS
;	COMDAT text$x
text$x	SEGMENT
__unwindfunclet$??1SendPresentConfirmWnd@@UAE@XZ$0:
  00000	8b 4d f0	 mov	 ecx, DWORD PTR _this$[ebp]
  00003	ff 25 00 00 00
	00		 jmp	 DWORD PTR __imp_??1ioWnd@@UAE@XZ
__unwindfunclet$??1SendPresentConfirmWnd@@UAE@XZ$1:
  00009	8b 4d f0	 mov	 ecx, DWORD PTR _this$[ebp]
  0000c	81 c1 78 01 00
	00		 add	 ecx, 376		; 00000178H
  00012	ff 25 00 00 00
	00		 jmp	 DWORD PTR __imp_??1ioHashString@@QAE@XZ
__ehhandler$??1SendPresentConfirmWnd@@UAE@XZ:
  00018	8b 54 24 08	 mov	 edx, DWORD PTR [esp+8]
  0001c	8d 42 0c	 lea	 eax, DWORD PTR [edx+12]
  0001f	8b 4a ec	 mov	 ecx, DWORD PTR [edx-20]
  00022	33 c8		 xor	 ecx, eax
  00024	e8 00 00 00 00	 call	 @__security_check_cookie@4
  00029	b8 00 00 00 00	 mov	 eax, OFFSET __ehfuncinfo$??1SendPresentConfirmWnd@@UAE@XZ
  0002e	e9 00 00 00 00	 jmp	 ___CxxFrameHandler3
text$x	ENDS
??1SendPresentConfirmWnd@@UAE@XZ ENDP			; SendPresentConfirmWnd::~SendPresentConfirmWnd
EXTRN	__imp_?GetXPos@ioWnd@@QBEHXZ:PROC
EXTRN	__imp_?SetWndPos@ioWnd@@QAEXHH@Z:PROC
EXTRN	__imp_?GetHeight@ioWnd@@QBEHXZ:PROC
EXTRN	__imp_?GetHeight@ioUIRenderElement@@QBEHXZ:PROC
EXTRN	__imp_?GetWidth@ioWnd@@QBEHXZ:PROC
EXTRN	__imp_?ShowChildWnd@ioWnd@@QAEXK_N@Z:PROC
; Function compile flags: /Ogsp
;	COMDAT ?iwm_show@SendPresentConfirmWnd@@UAEXXZ
_TEXT	SEGMENT
_pOkBtn$ = -4						; size = 4
?iwm_show@SendPresentConfirmWnd@@UAEXXZ PROC		; SendPresentConfirmWnd::iwm_show, COMDAT
; _this$ = ecx

; 510  : {

  00000	55		 push	 ebp
  00001	8b ec		 mov	 ebp, esp
  00003	51		 push	 ecx
  00004	53		 push	 ebx
  00005	56		 push	 esi
  00006	57		 push	 edi

; 511  : 	ShowChildWnd( ID_CLAUSE_VIEW_BTN );

  00007	6a 00		 push	 0
  00009	6a 05		 push	 5
  0000b	8b f1		 mov	 esi, ecx
  0000d	ff 15 00 00 00
	00		 call	 DWORD PTR __imp_?ShowChildWnd@ioWnd@@QAEXK_N@Z

; 512  : 	SetSize( GetWidth(), NORMAL_HEIGHT );

  00013	8b 3e		 mov	 edi, DWORD PTR [esi]
  00015	68 8e 01 00 00	 push	 398			; 0000018eH
  0001a	8b ce		 mov	 ecx, esi
  0001c	ff 15 00 00 00
	00		 call	 DWORD PTR __imp_?GetWidth@ioWnd@@QBEHXZ
  00022	50		 push	 eax
  00023	8b ce		 mov	 ecx, esi
  00025	ff 57 2c	 call	 DWORD PTR [edi+44]

; 513  : 
; 514  : 	/*
; 515  : 	if( g_MyInfo.GetChannelingType() == CNT_MGAME )
; 516  : 	{
; 517  : 		//     
; 518  : 		ShowChildWnd( ID_CLAUSE_VIEW_BTN );
; 519  : 
; 520  : 		SetSize( GetWidth(), MGAME_HEIGHT );
; 521  : 	}
; 522  : 	else
; 523  : 	{
; 524  : 		HideChildWnd( ID_CLAUSE_VIEW_BTN );
; 525  : 
; 526  : 		SetSize( GetWidth(), NORMAL_HEIGHT );
; 527  : 	}
; 528  : 	*/
; 529  : 
; 530  : 	// 
; 531  : 	if( m_pMultiplyFrm )

  00028	83 be b0 00 00
	00 00		 cmp	 DWORD PTR [esi+176], 0
  0002f	74 44		 je	 SHORT $LN3@iwm_show

; 532  : 	{
; 533  : 		m_pMultiplyFrm->SetSize( GetWidth(), 65 );

  00031	8b 86 b0 00 00
	00		 mov	 eax, DWORD PTR [esi+176]
  00037	8b 38		 mov	 edi, DWORD PTR [eax]
  00039	6a 41		 push	 65			; 00000041H
  0003b	8b ce		 mov	 ecx, esi
  0003d	ff 15 00 00 00
	00		 call	 DWORD PTR __imp_?GetWidth@ioWnd@@QBEHXZ
  00043	8b 8e b0 00 00
	00		 mov	 ecx, DWORD PTR [esi+176]
  00049	50		 push	 eax
  0004a	ff 57 10	 call	 DWORD PTR [edi+16]

; 534  : 		m_pMultiplyFrm->SetPosition( 0, GetHeight() - m_pMultiplyFrm->GetHeight() );

  0004d	8b 86 b0 00 00
	00		 mov	 eax, DWORD PTR [esi+176]
  00053	8b 38		 mov	 edi, DWORD PTR [eax]
  00055	8b c8		 mov	 ecx, eax
  00057	ff 15 00 00 00
	00		 call	 DWORD PTR __imp_?GetHeight@ioUIRenderElement@@QBEHXZ
  0005d	8b ce		 mov	 ecx, esi
  0005f	8b d8		 mov	 ebx, eax
  00061	ff 15 00 00 00
	00		 call	 DWORD PTR __imp_?GetHeight@ioWnd@@QBEHXZ
  00067	8b 8e b0 00 00
	00		 mov	 ecx, DWORD PTR [esi+176]
  0006d	2b c3		 sub	 eax, ebx
  0006f	50		 push	 eax
  00070	6a 00		 push	 0
  00072	ff 57 0c	 call	 DWORD PTR [edi+12]
$LN3@iwm_show:

; 535  : 	}
; 536  : 
; 537  : 	//  
; 538  : 	ioWnd *pOkBtn = FindChildWnd( ID_OK_BTN );

  00075	8b 3d 00 00 00
	00		 mov	 edi, DWORD PTR __imp_?FindChildWnd@ioWnd@@QAEPAV1@K@Z
  0007b	6a 02		 push	 2
  0007d	8b ce		 mov	 ecx, esi
  0007f	ff d7		 call	 edi

; 539  : 	if( pOkBtn )

  00081	8b 1d 00 00 00
	00		 mov	 ebx, DWORD PTR __imp_?SetWndPos@ioWnd@@QAEXHH@Z
  00087	89 45 fc	 mov	 DWORD PTR _pOkBtn$[ebp], eax
  0008a	85 c0		 test	 eax, eax
  0008c	74 1b		 je	 SHORT $LN2@iwm_show

; 540  : 	{
; 541  : 		pOkBtn->SetWndPos( pOkBtn->GetXPos(), GetHeight() - 48 );

  0008e	8b ce		 mov	 ecx, esi
  00090	ff 15 00 00 00
	00		 call	 DWORD PTR __imp_?GetHeight@ioWnd@@QBEHXZ
  00096	8b 4d fc	 mov	 ecx, DWORD PTR _pOkBtn$[ebp]
  00099	83 e8 30	 sub	 eax, 48			; 00000030H
  0009c	50		 push	 eax
  0009d	ff 15 00 00 00
	00		 call	 DWORD PTR __imp_?GetXPos@ioWnd@@QBEHXZ
  000a3	8b 4d fc	 mov	 ecx, DWORD PTR _pOkBtn$[ebp]
  000a6	50		 push	 eax
  000a7	ff d3		 call	 ebx
$LN2@iwm_show:

; 542  : 	}
; 543  : 
; 544  : 	ioWnd *pCancelBtn = FindChildWnd( ID_CANCEL_BTN );

  000a9	6a 03		 push	 3
  000ab	8b ce		 mov	 ecx, esi
  000ad	ff d7		 call	 edi
  000af	8b f8		 mov	 edi, eax

; 545  : 	if( pCancelBtn )

  000b1	85 ff		 test	 edi, edi
  000b3	74 19		 je	 SHORT $LN1@iwm_show

; 546  : 	{
; 547  : 		pCancelBtn->SetWndPos( pCancelBtn->GetXPos(), GetHeight() - 48 );

  000b5	8b ce		 mov	 ecx, esi
  000b7	ff 15 00 00 00
	00		 call	 DWORD PTR __imp_?GetHeight@ioWnd@@QBEHXZ
  000bd	83 e8 30	 sub	 eax, 48			; 00000030H
  000c0	50		 push	 eax
  000c1	8b cf		 mov	 ecx, edi
  000c3	ff 15 00 00 00
	00		 call	 DWORD PTR __imp_?GetXPos@ioWnd@@QBEHXZ
  000c9	50		 push	 eax
  000ca	8b cf		 mov	 ecx, edi
  000cc	ff d3		 call	 ebx
$LN1@iwm_show:
  000ce	5f		 pop	 edi
  000cf	5e		 pop	 esi
  000d0	5b		 pop	 ebx

; 548  : 	}
; 549  : }

  000d1	c9		 leave
  000d2	c3		 ret	 0
?iwm_show@SendPresentConfirmWnd@@UAEXXZ ENDP		; SendPresentConfirmWnd::iwm_show
_TEXT	ENDS
PUBLIC	??_C@_0CM@MFCMFKLI@SendPresentConfirmWnd?3?3SendBuyFr@ ; `string'
PUBLIC	?SendBuyFromReturnWnd@SendPresentConfirmWnd@@IAEXXZ ; SendPresentConfirmWnd::SendBuyFromReturnWnd
EXTRN	?SendBuy@NewShopBuyWnd@@QAE_NXZ:PROC		; NewShopBuyWnd::SendBuy
;	COMDAT ??_C@_0CM@MFCMFKLI@SendPresentConfirmWnd?3?3SendBuyFr@
CONST	SEGMENT
??_C@_0CM@MFCMFKLI@SendPresentConfirmWnd?3?3SendBuyFr@ DB 'SendPresentCon'
	DB	'firmWnd::SendBuyFromReturnWnd', 00H		; `string'
; Function compile flags: /Ogsp
CONST	ENDS
;	COMDAT ?SendBuyFromReturnWnd@SendPresentConfirmWnd@@IAEXXZ
_TEXT	SEGMENT
?SendBuyFromReturnWnd@SendPresentConfirmWnd@@IAEXXZ PROC ; SendPresentConfirmWnd::SendBuyFromReturnWnd, COMDAT
; _this$ = ecx

; 581  : 	if( !m_pReturnWnd )

  00000	8b 89 68 01 00
	00		 mov	 ecx, DWORD PTR [ecx+360]
  00006	85 c9		 test	 ecx, ecx
  00008	75 1b		 jne	 SHORT $LN1@SendBuyFro

; 582  : 	{
; 583  : 		LOG.PrintTimeAndLog( 0, "%s pReturnWnd == NULL. ", __FUNCTION__ );

  0000a	68 00 00 00 00	 push	 OFFSET ??_C@_0CM@MFCMFKLI@SendPresentConfirmWnd?3?3SendBuyFr@
  0000f	68 00 00 00 00	 push	 OFFSET ??_C@_0BI@HGHJBLML@?$CFs?5pReturnWnd?5?$DN?$DN?5NULL?4?5?$AA@
  00014	51		 push	 ecx
  00015	ff 35 00 00 00
	00		 push	 DWORD PTR __imp_?LOG@@3VCLog@@A
  0001b	ff 15 00 00 00
	00		 call	 DWORD PTR __imp_?PrintTimeAndLog@CLog@@QAAXHPADZZ
  00021	83 c4 10	 add	 esp, 16			; 00000010H

; 588  : }

  00024	c3		 ret	 0
$LN1@SendBuyFro:

; 584  : 		return;
; 585  : 	}
; 586  : 
; 587  : 	m_pReturnWnd->SendBuy();

  00025	e9 00 00 00 00	 jmp	 ?SendBuy@NewShopBuyWnd@@QAE_NXZ ; NewShopBuyWnd::SendBuy
?SendBuyFromReturnWnd@SendPresentConfirmWnd@@IAEXXZ ENDP ; SendPresentConfirmWnd::SendBuyFromReturnWnd
_TEXT	ENDS
PUBLIC	??_C@_0CL@ELECLIDG@SendPresentConfirmWnd?3?3SendPrese@ ; `string'
PUBLIC	?SendPresentComplete@SendPresentConfirmWnd@@QAEXXZ ; SendPresentConfirmWnd::SendPresentComplete
EXTRN	??_M@YGXPAXIHP6EX0@Z@Z:PROC			; `eh vector destructor iterator'
EXTRN	?SetPrevMsgListPinkBoxWithTitle@ioSP2GUIManager@@QAEXPAVioWnd@@H0PAVioComplexStringPrinter@@PBD222W4TextAlignType@@@Z:PROC ; ioSP2GUIManager::SetPrevMsgListPinkBoxWithTitle
EXTRN	?GetSingleton@ioSP2GUIManager@@SAAAV1@XZ:PROC	; ioSP2GUIManager::GetSingleton
EXTRN	?AddTextPiece@ioComplexStringPrinter@@QAAXMPBDZZ:PROC ; ioComplexStringPrinter::AddTextPiece
EXTRN	__imp_?c_str@ioHashString@@QBEPBDXZ:PROC
EXTRN	?SetTextColor@ioComplexStringPrinter@@QAEXK@Z:PROC ; ioComplexStringPrinter::SetTextColor
EXTRN	?SetBkColor@ioComplexStringPrinter@@QAEXHHH@Z:PROC ; ioComplexStringPrinter::SetBkColor
EXTRN	?SetTextStyle@ioComplexStringPrinter@@QAEXW4TextStyle@@@Z:PROC ; ioComplexStringPrinter::SetTextStyle
EXTRN	??_L@YGXPAXIHP6EX0@Z1@Z:PROC			; `eh vector constructor iterator'
EXTRN	??0ioComplexStringPrinter@@QAE@XZ:PROC		; ioComplexStringPrinter::ioComplexStringPrinter
EXTRN	??1ioComplexStringPrinter@@QAE@XZ:PROC		; ioComplexStringPrinter::~ioComplexStringPrinter
EXTRN	__EH_epilog3_GS:PROC
EXTRN	__EH_prolog3_GS:PROC
;	COMDAT ??_C@_0CL@ELECLIDG@SendPresentConfirmWnd?3?3SendPrese@
CONST	SEGMENT
??_C@_0CL@ELECLIDG@SendPresentConfirmWnd?3?3SendPrese@ DB 'SendPresentCon'
	DB	'firmWnd::SendPresentComplete', 00H		; `string'
CONST	ENDS
;	COMDAT xdata$x
xdata$x	SEGMENT
__unwindtable$?SendPresentComplete@SendPresentConfirmWnd@@QAEXXZ DD 0ffffffffH
	DD	FLAT:__unwindfunclet$?SendPresentComplete@SendPresentConfirmWnd@@QAEXXZ$0
__ehfuncinfo$?SendPresentComplete@SendPresentConfirmWnd@@QAEXXZ DD 019930522H
	DD	01H
	DD	FLAT:__unwindtable$?SendPresentComplete@SendPresentConfirmWnd@@QAEXXZ
	DD	2 DUP(00H)
	DD	2 DUP(00H)
	DD	00H
	DD	01H
; Function compile flags: /Ogsp
xdata$x	ENDS
;	COMDAT ?SendPresentComplete@SendPresentConfirmWnd@@QAEXXZ
_TEXT	SEGMENT
_kPrinter$ = -400					; size = 384
__$EHRec$ = -12						; size = 12
?SendPresentComplete@SendPresentConfirmWnd@@QAEXXZ PROC	; SendPresentConfirmWnd::SendPresentComplete, COMDAT
; _this$ = ecx

; 591  : {

  00000	68 84 01 00 00	 push	 388			; 00000184H
  00005	b8 00 00 00 00	 mov	 eax, __ehhandler$?SendPresentComplete@SendPresentConfirmWnd@@QAEXXZ
  0000a	e8 00 00 00 00	 call	 __EH_prolog3_GS

; 592  : 	ioComplexStringPrinter kPrinter[MAX_MSG_LIST_SIZE];

  0000f	68 00 00 00 00	 push	 OFFSET ??1ioComplexStringPrinter@@QAE@XZ ; ioComplexStringPrinter::~ioComplexStringPrinter
  00014	68 00 00 00 00	 push	 OFFSET ??0ioComplexStringPrinter@@QAE@XZ ; ioComplexStringPrinter::ioComplexStringPrinter
  00019	6a 0c		 push	 12			; 0000000cH
  0001b	6a 20		 push	 32			; 00000020H
  0001d	8d 85 70 fe ff
	ff		 lea	 eax, DWORD PTR _kPrinter$[ebp]
  00023	50		 push	 eax
  00024	8b f1		 mov	 esi, ecx
  00026	e8 00 00 00 00	 call	 ??_L@YGXPAXIHP6EX0@Z1@Z
  0002b	33 ff		 xor	 edi, edi

; 593  : 	kPrinter[0].SetTextStyle( TS_NORMAL );

  0002d	57		 push	 edi
  0002e	8d 8d 70 fe ff
	ff		 lea	 ecx, DWORD PTR _kPrinter$[ebp]
  00034	89 7d fc	 mov	 DWORD PTR __$EHRec$[ebp+8], edi
  00037	e8 00 00 00 00	 call	 ?SetTextStyle@ioComplexStringPrinter@@QAEXW4TextStyle@@@Z ; ioComplexStringPrinter::SetTextStyle

; 594  : 	kPrinter[0].SetBkColor( 0, 0, 0 );	

  0003c	57		 push	 edi
  0003d	57		 push	 edi
  0003e	57		 push	 edi
  0003f	8d 8d 70 fe ff
	ff		 lea	 ecx, DWORD PTR _kPrinter$[ebp]
  00045	e8 00 00 00 00	 call	 ?SetBkColor@ioComplexStringPrinter@@QAEXHHH@Z ; ioComplexStringPrinter::SetBkColor

; 595  : 	kPrinter[0].SetTextColor( TCT_DEFAULT_GREEN );

  0004a	68 22 72 11 ff	 push	 -15633886		; ff117222H
  0004f	8d 8d 70 fe ff
	ff		 lea	 ecx, DWORD PTR _kPrinter$[ebp]
  00055	e8 00 00 00 00	 call	 ?SetTextColor@ioComplexStringPrinter@@QAEXK@Z ; ioComplexStringPrinter::SetTextColor

; 596  : 	kPrinter[0].AddTextPiece( FONT_SIZE_13, m_szRecvPublicID.c_str() );

  0005a	8d 8e 78 01 00
	00		 lea	 ecx, DWORD PTR [esi+376]
  00060	ff 15 00 00 00
	00		 call	 DWORD PTR __imp_?c_str@ioHashString@@QBEPBDXZ
  00066	f3 0f 10 05 00
	00 00 00	 movss	 xmm0, DWORD PTR __real@3f266666
  0006e	50		 push	 eax
  0006f	51		 push	 ecx
  00070	8d 85 70 fe ff
	ff		 lea	 eax, DWORD PTR _kPrinter$[ebp]
  00076	f3 0f 11 04 24	 movss	 DWORD PTR [esp], xmm0
  0007b	50		 push	 eax
  0007c	e8 00 00 00 00	 call	 ?AddTextPiece@ioComplexStringPrinter@@QAAXMPBDZZ ; ioComplexStringPrinter::AddTextPiece
  00081	83 c4 0c	 add	 esp, 12			; 0000000cH

; 597  : 	kPrinter[0].SetTextColor( TCT_DEFAULT_DARKGRAY );

  00084	68 3a 3a 3a ff	 push	 -12961222		; ff3a3a3aH
  00089	8d 8d 70 fe ff
	ff		 lea	 ecx, DWORD PTR _kPrinter$[ebp]
  0008f	e8 00 00 00 00	 call	 ?SetTextColor@ioComplexStringPrinter@@QAEXK@Z ; ioComplexStringPrinter::SetTextColor

; 598  : 	kPrinter[0].AddTextPiece( FONT_SIZE_13, STR(1) );

  00094	8b 35 00 00 00
	00		 mov	 esi, DWORD PTR __imp_?GetSingleton@ioStringManager@@SAAAV1@XZ
  0009a	57		 push	 edi
  0009b	6a 01		 push	 1
  0009d	68 00 00 00 00	 push	 OFFSET ??_C@_00CNPNBAHC@?$AA@
  000a2	bb 00 00 00 00	 mov	 ebx, OFFSET ??_C@_0CL@ELECLIDG@SendPresentConfirmWnd?3?3SendPrese@
  000a7	53		 push	 ebx
  000a8	ff d6		 call	 esi
  000aa	8b 3d 00 00 00
	00		 mov	 edi, DWORD PTR __imp_?GetString@ioStringManager@@QAEPADPBD0HW4FileNamePrefix@1@@Z
  000b0	8b c8		 mov	 ecx, eax
  000b2	ff d7		 call	 edi
  000b4	f3 0f 10 05 00
	00 00 00	 movss	 xmm0, DWORD PTR __real@3f266666
  000bc	50		 push	 eax
  000bd	51		 push	 ecx
  000be	8d 85 70 fe ff
	ff		 lea	 eax, DWORD PTR _kPrinter$[ebp]
  000c4	f3 0f 11 04 24	 movss	 DWORD PTR [esp], xmm0
  000c9	50		 push	 eax
  000ca	e8 00 00 00 00	 call	 ?AddTextPiece@ioComplexStringPrinter@@QAAXMPBDZZ ; ioComplexStringPrinter::AddTextPiece
  000cf	83 c4 0c	 add	 esp, 12			; 0000000cH

; 599  : 
; 600  : 	kPrinter[1].SetTextStyle( TS_NORMAL );

  000d2	6a 00		 push	 0
  000d4	8d 8d 90 fe ff
	ff		 lea	 ecx, DWORD PTR _kPrinter$[ebp+32]
  000da	e8 00 00 00 00	 call	 ?SetTextStyle@ioComplexStringPrinter@@QAEXW4TextStyle@@@Z ; ioComplexStringPrinter::SetTextStyle

; 601  : 	kPrinter[1].SetBkColor( 0, 0, 0 );	

  000df	33 c0		 xor	 eax, eax
  000e1	50		 push	 eax
  000e2	50		 push	 eax
  000e3	50		 push	 eax
  000e4	8d 8d 90 fe ff
	ff		 lea	 ecx, DWORD PTR _kPrinter$[ebp+32]
  000ea	e8 00 00 00 00	 call	 ?SetBkColor@ioComplexStringPrinter@@QAEXHHH@Z ; ioComplexStringPrinter::SetBkColor

; 602  : 	kPrinter[1].SetTextColor( TCT_DEFAULT_DARKGRAY );

  000ef	68 3a 3a 3a ff	 push	 -12961222		; ff3a3a3aH
  000f4	8d 8d 90 fe ff
	ff		 lea	 ecx, DWORD PTR _kPrinter$[ebp+32]
  000fa	e8 00 00 00 00	 call	 ?SetTextColor@ioComplexStringPrinter@@QAEXK@Z ; ioComplexStringPrinter::SetTextColor

; 603  : 	kPrinter[1].AddTextPiece( FONT_SIZE_13, STR(2) );

  000ff	6a 00		 push	 0
  00101	6a 02		 push	 2
  00103	68 00 00 00 00	 push	 OFFSET ??_C@_00CNPNBAHC@?$AA@
  00108	53		 push	 ebx
  00109	ff d6		 call	 esi
  0010b	8b c8		 mov	 ecx, eax
  0010d	ff d7		 call	 edi
  0010f	f3 0f 10 05 00
	00 00 00	 movss	 xmm0, DWORD PTR __real@3f266666
  00117	50		 push	 eax
  00118	51		 push	 ecx
  00119	8d 85 90 fe ff
	ff		 lea	 eax, DWORD PTR _kPrinter$[ebp+32]
  0011f	f3 0f 11 04 24	 movss	 DWORD PTR [esp], xmm0
  00124	50		 push	 eax
  00125	e8 00 00 00 00	 call	 ?AddTextPiece@ioComplexStringPrinter@@QAAXMPBDZZ ; ioComplexStringPrinter::AddTextPiece
  0012a	83 c4 0c	 add	 esp, 12			; 0000000cH

; 604  : 
; 605  : 	g_GUIMgr.SetPrevMsgListPinkBoxWithTitle( NULL, MB_OK, NULL, kPrinter, STR(3), STR(4), STR(5), STR(6) );

  0012d	6a 01		 push	 1
  0012f	6a 00		 push	 0
  00131	6a 06		 push	 6
  00133	68 00 00 00 00	 push	 OFFSET ??_C@_00CNPNBAHC@?$AA@
  00138	53		 push	 ebx
  00139	ff d6		 call	 esi
  0013b	8b c8		 mov	 ecx, eax
  0013d	ff d7		 call	 edi
  0013f	50		 push	 eax
  00140	6a 00		 push	 0
  00142	6a 05		 push	 5
  00144	68 00 00 00 00	 push	 OFFSET ??_C@_00CNPNBAHC@?$AA@
  00149	53		 push	 ebx
  0014a	ff d6		 call	 esi
  0014c	8b c8		 mov	 ecx, eax
  0014e	ff d7		 call	 edi
  00150	50		 push	 eax
  00151	6a 00		 push	 0
  00153	6a 04		 push	 4
  00155	68 00 00 00 00	 push	 OFFSET ??_C@_00CNPNBAHC@?$AA@
  0015a	53		 push	 ebx
  0015b	ff d6		 call	 esi
  0015d	8b c8		 mov	 ecx, eax
  0015f	ff d7		 call	 edi
  00161	50		 push	 eax
  00162	6a 00		 push	 0
  00164	6a 03		 push	 3
  00166	68 00 00 00 00	 push	 OFFSET ??_C@_00CNPNBAHC@?$AA@
  0016b	53		 push	 ebx
  0016c	ff d6		 call	 esi
  0016e	8b c8		 mov	 ecx, eax
  00170	ff d7		 call	 edi
  00172	50		 push	 eax
  00173	8d 85 70 fe ff
	ff		 lea	 eax, DWORD PTR _kPrinter$[ebp]
  00179	50		 push	 eax
  0017a	33 c0		 xor	 eax, eax
  0017c	50		 push	 eax
  0017d	50		 push	 eax
  0017e	50		 push	 eax
  0017f	e8 00 00 00 00	 call	 ?GetSingleton@ioSP2GUIManager@@SAAAV1@XZ ; ioSP2GUIManager::GetSingleton
  00184	8b c8		 mov	 ecx, eax
  00186	e8 00 00 00 00	 call	 ?SetPrevMsgListPinkBoxWithTitle@ioSP2GUIManager@@QAEXPAVioWnd@@H0PAVioComplexStringPrinter@@PBD222W4TextAlignType@@@Z ; ioSP2GUIManager::SetPrevMsgListPinkBoxWithTitle

; 606  : }

  0018b	83 4d fc ff	 or	 DWORD PTR __$EHRec$[ebp+8], -1
  0018f	68 00 00 00 00	 push	 OFFSET ??1ioComplexStringPrinter@@QAE@XZ ; ioComplexStringPrinter::~ioComplexStringPrinter
  00194	6a 0c		 push	 12			; 0000000cH
  00196	6a 20		 push	 32			; 00000020H
  00198	8d 85 70 fe ff
	ff		 lea	 eax, DWORD PTR _kPrinter$[ebp]
  0019e	50		 push	 eax
  0019f	e8 00 00 00 00	 call	 ??_M@YGXPAXIHP6EX0@Z@Z
  001a4	e8 00 00 00 00	 call	 __EH_epilog3_GS
  001a9	c3		 ret	 0
_TEXT	ENDS
;	COMDAT text$x
text$x	SEGMENT
__unwindfunclet$?SendPresentComplete@SendPresentConfirmWnd@@QAEXXZ$0:
  00000	68 00 00 00 00	 push	 OFFSET ??1ioComplexStringPrinter@@QAE@XZ ; ioComplexStringPrinter::~ioComplexStringPrinter
  00005	6a 0c		 push	 12			; 0000000cH
  00007	6a 20		 push	 32			; 00000020H
  00009	8d 85 70 fe ff
	ff		 lea	 eax, DWORD PTR _kPrinter$[ebp]
  0000f	50		 push	 eax
  00010	e8 00 00 00 00	 call	 ??_M@YGXPAXIHP6EX0@Z@Z
  00015	c3		 ret	 0
__ehhandler$?SendPresentComplete@SendPresentConfirmWnd@@QAEXXZ:
  00016	8b 54 24 08	 mov	 edx, DWORD PTR [esp+8]
  0001a	8d 42 0c	 lea	 eax, DWORD PTR [edx+12]
  0001d	8b 8a 6c fe ff
	ff		 mov	 ecx, DWORD PTR [edx-404]
  00023	33 c8		 xor	 ecx, eax
  00025	e8 00 00 00 00	 call	 @__security_check_cookie@4
  0002a	8b 4a fc	 mov	 ecx, DWORD PTR [edx-4]
  0002d	33 c8		 xor	 ecx, eax
  0002f	e8 00 00 00 00	 call	 @__security_check_cookie@4
  00034	b8 00 00 00 00	 mov	 eax, OFFSET __ehfuncinfo$?SendPresentComplete@SendPresentConfirmWnd@@QAEXXZ
  00039	e9 00 00 00 00	 jmp	 ___CxxFrameHandler3
text$x	ENDS
?SendPresentComplete@SendPresentConfirmWnd@@QAEXXZ ENDP	; SendPresentConfirmWnd::SendPresentComplete
PUBLIC	??_C@_0CA@FMNNODMP@SendPresentConfirmWnd?3?3OnRender?$AA@ ; `string'
PUBLIC	__real@43580000
PUBLIC	_this$GSCopy$
EXTRN	?AddTextPiece@ioComplexStringPrinter@@QAEXMPBD0@Z:PROC ; ioComplexStringPrinter::AddTextPiece
EXTRN	?SetTextColor@ioComplexStringPrinter@@QAEXHHH@Z:PROC ; ioComplexStringPrinter::SetTextColor
EXTRN	?ConvertNumToStrComma@Help@@YAXHPADH@Z:PROC	; Help::ConvertNumToStrComma
EXTRN	?ClearList@ioComplexStringPrinter@@QAEXXZ:PROC	; ioComplexStringPrinter::ClearList
EXTRN	?PrintFullTextWidthCut@ioComplexStringPrinter@@QAEXMMW4TextAlignType@@ME@Z:PROC ; ioComplexStringPrinter::PrintFullTextWidthCut
EXTRN	?IsEnablePresentBonus@ioShopManager@@QAE_NXZ:PROC ; ioShopManager::IsEnablePresentBonus
EXTRN	?IsUnablePresentBonus@ioShopManager@@QAE_NXZ:PROC ; ioShopManager::IsUnablePresentBonus
EXTRN	?GetSingleton@ioShopManager@@SAAAV1@XZ:PROC	; ioShopManager::GetSingleton
EXTRN	?IsUnablePresentBonus@ioEventManager@@QAE_NXZ:PROC ; ioEventManager::IsUnablePresentBonus
EXTRN	?GetSingleton@ioEventManager@@SAAAV1@XZ:PROC	; ioEventManager::GetSingleton
EXTRN	?GetPresentValue2Text@ioPresentMgr@@QAEABVioHashString@@FHH@Z:PROC ; ioPresentMgr::GetPresentValue2Text
EXTRN	__imp_?PrintTextWidthCut@ioFontManager@@QAAXMMMMPBDZZ:PROC
EXTRN	?GetPresentValue1Text@ioPresentMgr@@QAEABVioHashString@@FHH@Z:PROC ; ioPresentMgr::GetPresentValue1Text
EXTRN	?GetSingleton@ioPresentMgr@@SAAAV1@XZ:PROC	; ioPresentMgr::GetSingleton
EXTRN	_memset:PROC
;	COMDAT ??_C@_0CA@FMNNODMP@SendPresentConfirmWnd?3?3OnRender?$AA@
CONST	SEGMENT
??_C@_0CA@FMNNODMP@SendPresentConfirmWnd?3?3OnRender?$AA@ DB 'SendPresent'
	DB	'ConfirmWnd::OnRender', 00H			; `string'
CONST	ENDS
;	COMDAT __real@43580000
CONST	SEGMENT
__real@43580000 DD 043580000r			; 216
CONST	ENDS
;	COMDAT xdata$x
xdata$x	SEGMENT
__unwindtable$?OnRender@SendPresentConfirmWnd@@MAEXXZ DD 0ffffffffH
	DD	FLAT:__unwindfunclet$?OnRender@SendPresentConfirmWnd@@MAEXXZ$0
__ehfuncinfo$?OnRender@SendPresentConfirmWnd@@MAEXXZ DD 019930522H
	DD	01H
	DD	FLAT:__unwindtable$?OnRender@SendPresentConfirmWnd@@MAEXXZ
	DD	2 DUP(00H)
	DD	2 DUP(00H)
	DD	00H
	DD	01H
; Function compile flags: /Ogsp
xdata$x	ENDS
;	COMDAT ?OnRender@SendPresentConfirmWnd@@MAEXXZ
_TEXT	SEGMENT
_iXPos$ = -324						; size = 4
_kPrinter$ = -320					; size = 32
_this$GSCopy$ = -288					; size = 4
_iYPos$ = -284						; size = 4
tv587 = -280						; size = 4
tv491 = -280						; size = 4
_szConvertNum$ = -276					; size = 260
__$EHRec$ = -12						; size = 12
?OnRender@SendPresentConfirmWnd@@MAEXXZ PROC		; SendPresentConfirmWnd::OnRender, COMDAT
; _this$ = ecx

; 849  : {

  00000	68 38 01 00 00	 push	 312			; 00000138H
  00005	b8 00 00 00 00	 mov	 eax, __ehhandler$?OnRender@SendPresentConfirmWnd@@MAEXXZ
  0000a	e8 00 00 00 00	 call	 __EH_prolog3_GS
  0000f	8b f9		 mov	 edi, ecx

; 850  : 	ioWnd::OnRender();
; 851  : 
; 852  : 	int iXPos = GetDerivedPosX();
; 853  : 	int iYPos = GetDerivedPosY();

  00011	89 bd e0 fe ff
	ff		 mov	 DWORD PTR _this$GSCopy$[ebp], edi
  00017	ff 15 00 00 00
	00		 call	 DWORD PTR __imp_?OnRender@ioWnd@@MAEXXZ
  0001d	8b cf		 mov	 ecx, edi
  0001f	ff 15 00 00 00
	00		 call	 DWORD PTR __imp_?GetDerivedPosX@ioWnd@@QBEHXZ
  00025	8b f0		 mov	 esi, eax
  00027	8b cf		 mov	 ecx, edi
  00029	89 b5 bc fe ff
	ff		 mov	 DWORD PTR _iXPos$[ebp], esi
  0002f	ff 15 00 00 00
	00		 call	 DWORD PTR __imp_?GetDerivedPosY@ioWnd@@QBEHXZ

; 854  : 
; 855  : 	if( m_pPresentIcon )

  00035	33 db		 xor	 ebx, ebx
  00037	8b d0		 mov	 edx, eax
  00039	89 95 e4 fe ff
	ff		 mov	 DWORD PTR _iYPos$[ebp], edx
  0003f	39 9f 60 01 00
	00		 cmp	 DWORD PTR [edi+352], ebx
  00045	74 39		 je	 SHORT $LN7@OnRender

; 856  : 		m_pPresentIcon->Render( iXPos + 125, iYPos + 98 );

  00047	8b 87 60 01 00
	00		 mov	 eax, DWORD PTR [edi+352]
  0004d	8b 08		 mov	 ecx, DWORD PTR [eax]
  0004f	53		 push	 ebx
  00050	53		 push	 ebx
  00051	53		 push	 ebx
  00052	53		 push	 ebx
  00053	51		 push	 ecx
  00054	83 c2 62	 add	 edx, 98			; 00000062H
  00057	0f 57 c0	 xorps	 xmm0, xmm0
  0005a	f3 0f 2a c2	 cvtsi2ss xmm0, edx
  0005e	51		 push	 ecx
  0005f	f3 0f 11 44 24
	04		 movss	 DWORD PTR [esp+4], xmm0
  00065	8d 56 7d	 lea	 edx, DWORD PTR [esi+125]
  00068	0f 57 c0	 xorps	 xmm0, xmm0
  0006b	8b c8		 mov	 ecx, eax
  0006d	8b 00		 mov	 eax, DWORD PTR [eax]
  0006f	f3 0f 2a c2	 cvtsi2ss xmm0, edx
  00073	f3 0f 11 04 24	 movss	 DWORD PTR [esp], xmm0
  00078	ff 10		 call	 DWORD PTR [eax]
  0007a	8b 95 e4 fe ff
	ff		 mov	 edx, DWORD PTR _iYPos$[ebp]
$LN7@OnRender:

; 857  : 
; 858  : 	// UI  ( )
; 859  : 	if ( ( m_iPresentType == PRESENT_COSTUME || m_iPresentType == PRESENT_COSTUME_BOX ) && m_pCostumeMark )

  00080	0f b7 87 6c 01
	00 00		 movzx	 eax, WORD PTR [edi+364]
  00087	66 83 f8 0c	 cmp	 ax, 12			; 0000000cH
  0008b	74 06		 je	 SHORT $LN5@OnRender
  0008d	66 83 f8 0f	 cmp	 ax, 15			; 0000000fH
  00091	75 37		 jne	 SHORT $LN6@OnRender
$LN5@OnRender:
  00093	39 9f 64 01 00
	00		 cmp	 DWORD PTR [edi+356], ebx
  00099	74 2f		 je	 SHORT $LN6@OnRender

; 860  : 		m_pCostumeMark->Render( iXPos + 125, iYPos + 98 );

  0009b	8b 8f 64 01 00
	00		 mov	 ecx, DWORD PTR [edi+356]
  000a1	8b 01		 mov	 eax, DWORD PTR [ecx]
  000a3	53		 push	 ebx
  000a4	53		 push	 ebx
  000a5	53		 push	 ebx
  000a6	53		 push	 ebx
  000a7	0f 57 c0	 xorps	 xmm0, xmm0
  000aa	51		 push	 ecx
  000ab	83 c2 62	 add	 edx, 98			; 00000062H
  000ae	f3 0f 2a c2	 cvtsi2ss xmm0, edx
  000b2	51		 push	 ecx
  000b3	f3 0f 11 44 24
	04		 movss	 DWORD PTR [esp+4], xmm0
  000b9	83 c6 7d	 add	 esi, 125		; 0000007dH
  000bc	0f 57 c0	 xorps	 xmm0, xmm0
  000bf	f3 0f 2a c6	 cvtsi2ss xmm0, esi
  000c3	f3 0f 11 04 24	 movss	 DWORD PTR [esp], xmm0
  000c8	ff 10		 call	 DWORD PTR [eax]
$LN6@OnRender:

; 861  : 
; 862  : 	g_FontMgr.SetAlignType( TAT_CENTER );

  000ca	8b 35 00 00 00
	00		 mov	 esi, DWORD PTR __imp_?GetSingleton@ioFontManager@@SAAAV1@XZ
  000d0	6a 01		 push	 1
  000d2	ff d6		 call	 esi
  000d4	8b c8		 mov	 ecx, eax
  000d6	ff 15 00 00 00
	00		 call	 DWORD PTR __imp_?SetAlignType@ioFontManager@@QAEXW4TextAlignType@@@Z

; 863  : 	g_FontMgr.SetTextStyle( TS_NORMAL );

  000dc	53		 push	 ebx
  000dd	ff d6		 call	 esi
  000df	8b c8		 mov	 ecx, eax
  000e1	ff 15 00 00 00
	00		 call	 DWORD PTR __imp_?SetTextStyle@ioFontManager@@QAEXW4TextStyle@@@Z

; 864  : 	g_FontMgr.SetBkColor( 0, 0, 0 );

  000e7	53		 push	 ebx
  000e8	53		 push	 ebx
  000e9	53		 push	 ebx
  000ea	ff d6		 call	 esi
  000ec	8b c8		 mov	 ecx, eax
  000ee	ff 15 00 00 00
	00		 call	 DWORD PTR __imp_?SetBkColor@ioFontManager@@QAEXHHH@Z

; 865  : 	g_FontMgr.SetTextColor( TCT_DEFAULT_DARKGRAY );

  000f4	68 3a 3a 3a ff	 push	 -12961222		; ff3a3a3aH
  000f9	ff d6		 call	 esi
  000fb	8b c8		 mov	 ecx, eax
  000fd	ff 15 00 00 00
	00		 call	 DWORD PTR __imp_?SetTextColor@ioFontManager@@QAEXK@Z

; 866  : 	g_FontMgr.PrintTextWidthCut( iXPos + 125, iYPos + 144, FONT_SIZE_13, 216.0f, g_PresentMgr.GetPresentValue1Text( m_iPresentType, m_iPresentValue1, m_iPresentValue2 ).c_str() );

  00103	8b 85 bc fe ff
	ff		 mov	 eax, DWORD PTR _iXPos$[ebp]
  00109	ff b7 74 01 00
	00		 push	 DWORD PTR [edi+372]
  0010f	83 c0 7d	 add	 eax, 125		; 0000007dH
  00112	ff b7 70 01 00
	00		 push	 DWORD PTR [edi+368]
  00118	0f 57 c0	 xorps	 xmm0, xmm0
  0011b	f3 0f 2a c0	 cvtsi2ss xmm0, eax
  0011f	0f b7 87 6c 01
	00 00		 movzx	 eax, WORD PTR [edi+364]
  00126	50		 push	 eax
  00127	f3 0f 11 85 e8
	fe ff ff	 movss	 DWORD PTR tv491[ebp], xmm0
  0012f	e8 00 00 00 00	 call	 ?GetSingleton@ioPresentMgr@@SAAAV1@XZ ; ioPresentMgr::GetSingleton
  00134	8b c8		 mov	 ecx, eax
  00136	e8 00 00 00 00	 call	 ?GetPresentValue1Text@ioPresentMgr@@QAEABVioHashString@@FHH@Z ; ioPresentMgr::GetPresentValue1Text
  0013b	8b c8		 mov	 ecx, eax
  0013d	ff 15 00 00 00
	00		 call	 DWORD PTR __imp_?c_str@ioHashString@@QBEPBDXZ
  00143	f3 0f 10 05 00
	00 00 00	 movss	 xmm0, DWORD PTR __real@43580000
  0014b	50		 push	 eax
  0014c	8b 85 e4 fe ff
	ff		 mov	 eax, DWORD PTR _iYPos$[ebp]
  00152	83 ec 10	 sub	 esp, 16			; 00000010H
  00155	f3 0f 11 44 24
	0c		 movss	 DWORD PTR [esp+12], xmm0
  0015b	f3 0f 10 05 00
	00 00 00	 movss	 xmm0, DWORD PTR __real@3f266666
  00163	f3 0f 11 44 24
	08		 movss	 DWORD PTR [esp+8], xmm0
  00169	05 90 00 00 00	 add	 eax, 144		; 00000090H
  0016e	0f 57 c0	 xorps	 xmm0, xmm0
  00171	f3 0f 2a c0	 cvtsi2ss xmm0, eax
  00175	f3 0f 11 44 24
	04		 movss	 DWORD PTR [esp+4], xmm0
  0017b	f3 0f 10 85 e8
	fe ff ff	 movss	 xmm0, DWORD PTR tv491[ebp]
  00183	f3 0f 11 04 24	 movss	 DWORD PTR [esp], xmm0
  00188	ff d6		 call	 esi
  0018a	50		 push	 eax
  0018b	ff 15 00 00 00
	00		 call	 DWORD PTR __imp_?PrintTextWidthCut@ioFontManager@@QAAXMMMMPBDZZ

; 867  : 	g_FontMgr.PrintTextWidthCut( iXPos + 125, iYPos + 164, FONT_SIZE_13, 216.0f, g_PresentMgr.GetPresentValue2Text( m_iPresentType, m_iPresentValue1, m_iPresentValue2 ).c_str() );

  00191	0f b7 87 6c 01
	00 00		 movzx	 eax, WORD PTR [edi+364]
  00198	83 c4 18	 add	 esp, 24			; 00000018H
  0019b	ff b7 74 01 00
	00		 push	 DWORD PTR [edi+372]
  001a1	ff b7 70 01 00
	00		 push	 DWORD PTR [edi+368]
  001a7	50		 push	 eax
  001a8	e8 00 00 00 00	 call	 ?GetSingleton@ioPresentMgr@@SAAAV1@XZ ; ioPresentMgr::GetSingleton
  001ad	8b c8		 mov	 ecx, eax
  001af	e8 00 00 00 00	 call	 ?GetPresentValue2Text@ioPresentMgr@@QAEABVioHashString@@FHH@Z ; ioPresentMgr::GetPresentValue2Text
  001b4	8b c8		 mov	 ecx, eax
  001b6	ff 15 00 00 00
	00		 call	 DWORD PTR __imp_?c_str@ioHashString@@QBEPBDXZ
  001bc	f3 0f 10 05 00
	00 00 00	 movss	 xmm0, DWORD PTR __real@43580000
  001c4	50		 push	 eax
  001c5	8b 85 e4 fe ff
	ff		 mov	 eax, DWORD PTR _iYPos$[ebp]
  001cb	83 ec 10	 sub	 esp, 16			; 00000010H
  001ce	f3 0f 11 44 24
	0c		 movss	 DWORD PTR [esp+12], xmm0
  001d4	f3 0f 10 05 00
	00 00 00	 movss	 xmm0, DWORD PTR __real@3f266666
  001dc	f3 0f 11 44 24
	08		 movss	 DWORD PTR [esp+8], xmm0
  001e2	05 a4 00 00 00	 add	 eax, 164		; 000000a4H
  001e7	0f 57 c0	 xorps	 xmm0, xmm0
  001ea	f3 0f 2a c0	 cvtsi2ss xmm0, eax
  001ee	f3 0f 11 44 24
	04		 movss	 DWORD PTR [esp+4], xmm0
  001f4	f3 0f 10 85 e8
	fe ff ff	 movss	 xmm0, DWORD PTR tv491[ebp]
  001fc	f3 0f 11 04 24	 movss	 DWORD PTR [esp], xmm0
  00201	ff d6		 call	 esi
  00203	50		 push	 eax
  00204	ff 15 00 00 00
	00		 call	 DWORD PTR __imp_?PrintTextWidthCut@ioFontManager@@QAAXMMMMPBDZZ
  0020a	83 c4 18	 add	 esp, 24			; 00000018H

; 868  : 
; 869  : 	g_FontMgr.SetTextColor( TCT_DEFAULT_GRAY );

  0020d	68 6e 6e 6e ff	 push	 -9539986		; ff6e6e6eH
  00212	ff d6		 call	 esi
  00214	8b c8		 mov	 ecx, eax
  00216	ff 15 00 00 00
	00		 call	 DWORD PTR __imp_?SetTextColor@ioFontManager@@QAEXK@Z

; 870  : 
; 871  : 	if ( g_EventMgr.IsUnablePresentBonus() && ( ( g_ShopManager.IsUnablePresentBonus() && m_bIsUnableBonus ) || ( g_ShopManager.IsEnablePresentBonus() && !m_bIsEnableBonus ) ) )

  0021c	e8 00 00 00 00	 call	 ?GetSingleton@ioEventManager@@SAAAV1@XZ ; ioEventManager::GetSingleton
  00221	8b c8		 mov	 ecx, eax
  00223	e8 00 00 00 00	 call	 ?IsUnablePresentBonus@ioEventManager@@QAE_NXZ ; ioEventManager::IsUnablePresentBonus
  00228	84 c0		 test	 al, al
  0022a	0f 84 98 00 00
	00		 je	 $LN4@OnRender
  00230	e8 00 00 00 00	 call	 ?GetSingleton@ioShopManager@@SAAAV1@XZ ; ioShopManager::GetSingleton
  00235	8b c8		 mov	 ecx, eax
  00237	e8 00 00 00 00	 call	 ?IsUnablePresentBonus@ioShopManager@@QAE_NXZ ; ioShopManager::IsUnablePresentBonus
  0023c	84 c0		 test	 al, al
  0023e	74 08		 je	 SHORT $LN2@OnRender
  00240	38 9f 90 01 00
	00		 cmp	 BYTE PTR [edi+400], bl
  00246	75 18		 jne	 SHORT $LN3@OnRender
$LN2@OnRender:
  00248	e8 00 00 00 00	 call	 ?GetSingleton@ioShopManager@@SAAAV1@XZ ; ioShopManager::GetSingleton
  0024d	8b c8		 mov	 ecx, eax
  0024f	e8 00 00 00 00	 call	 ?IsEnablePresentBonus@ioShopManager@@QAE_NXZ ; ioShopManager::IsEnablePresentBonus
  00254	84 c0		 test	 al, al
  00256	74 70		 je	 SHORT $LN4@OnRender
  00258	38 9f 91 01 00
	00		 cmp	 BYTE PTR [edi+401], bl
  0025e	75 68		 jne	 SHORT $LN4@OnRender
$LN3@OnRender:

; 872  : 	{
; 873  : 		g_FontMgr.PrintText( iXPos + 125, iYPos + 234, FONT_SIZE_13, STR(11) );

  00260	8b 3d 00 00 00
	00		 mov	 edi, DWORD PTR __imp_?GetSingleton@ioStringManager@@SAAAV1@XZ
  00266	53		 push	 ebx
  00267	6a 0b		 push	 11			; 0000000bH
  00269	68 00 00 00 00	 push	 OFFSET ??_C@_00CNPNBAHC@?$AA@
  0026e	68 00 00 00 00	 push	 OFFSET ??_C@_0CA@FMNNODMP@SendPresentConfirmWnd?3?3OnRender?$AA@
  00273	ff d7		 call	 edi
  00275	8b 1d 00 00 00
	00		 mov	 ebx, DWORD PTR __imp_?GetString@ioStringManager@@QAEPADPBD0HW4FileNamePrefix@1@@Z
  0027b	8b c8		 mov	 ecx, eax
  0027d	ff d3		 call	 ebx
  0027f	f3 0f 10 05 00
	00 00 00	 movss	 xmm0, DWORD PTR __real@3f266666
  00287	50		 push	 eax
  00288	8b 85 e4 fe ff
	ff		 mov	 eax, DWORD PTR _iYPos$[ebp]
  0028e	83 ec 0c	 sub	 esp, 12			; 0000000cH
  00291	f3 0f 11 44 24
	08		 movss	 DWORD PTR [esp+8], xmm0
  00297	05 ea 00 00 00	 add	 eax, 234		; 000000eaH
  0029c	0f 57 c0	 xorps	 xmm0, xmm0
  0029f	f3 0f 2a c0	 cvtsi2ss xmm0, eax
  002a3	f3 0f 11 44 24
	04		 movss	 DWORD PTR [esp+4], xmm0
  002a9	f3 0f 10 85 e8
	fe ff ff	 movss	 xmm0, DWORD PTR tv491[ebp]
  002b1	f3 0f 11 04 24	 movss	 DWORD PTR [esp], xmm0
  002b6	ff d6		 call	 esi
  002b8	50		 push	 eax
  002b9	ff 15 00 00 00
	00		 call	 DWORD PTR __imp_?PrintText@ioFontManager@@QAAXMMMPBDZZ
  002bf	83 c4 14	 add	 esp, 20			; 00000014H

; 874  : 		g_FontMgr.PrintText( iXPos + 125, iYPos + 254, FONT_SIZE_13, STR(12) );

  002c2	6a 00		 push	 0
  002c4	6a 0c		 push	 12			; 0000000cH

; 875  : 	}
; 876  : 	else

  002c6	eb 66		 jmp	 SHORT $LN12@OnRender
$LN4@OnRender:

; 877  : 	{
; 878  : 		g_FontMgr.PrintText( iXPos + 125, iYPos + 234, FONT_SIZE_13, STR(1) );

  002c8	8b 3d 00 00 00
	00		 mov	 edi, DWORD PTR __imp_?GetSingleton@ioStringManager@@SAAAV1@XZ
  002ce	53		 push	 ebx
  002cf	6a 01		 push	 1
  002d1	68 00 00 00 00	 push	 OFFSET ??_C@_00CNPNBAHC@?$AA@
  002d6	68 00 00 00 00	 push	 OFFSET ??_C@_0CA@FMNNODMP@SendPresentConfirmWnd?3?3OnRender?$AA@
  002db	ff d7		 call	 edi
  002dd	8b 1d 00 00 00
	00		 mov	 ebx, DWORD PTR __imp_?GetString@ioStringManager@@QAEPADPBD0HW4FileNamePrefix@1@@Z
  002e3	8b c8		 mov	 ecx, eax
  002e5	ff d3		 call	 ebx
  002e7	f3 0f 10 05 00
	00 00 00	 movss	 xmm0, DWORD PTR __real@3f266666
  002ef	50		 push	 eax
  002f0	8b 85 e4 fe ff
	ff		 mov	 eax, DWORD PTR _iYPos$[ebp]
  002f6	83 ec 0c	 sub	 esp, 12			; 0000000cH
  002f9	f3 0f 11 44 24
	08		 movss	 DWORD PTR [esp+8], xmm0
  002ff	05 ea 00 00 00	 add	 eax, 234		; 000000eaH
  00304	0f 57 c0	 xorps	 xmm0, xmm0
  00307	f3 0f 2a c0	 cvtsi2ss xmm0, eax
  0030b	f3 0f 11 44 24
	04		 movss	 DWORD PTR [esp+4], xmm0
  00311	f3 0f 10 85 e8
	fe ff ff	 movss	 xmm0, DWORD PTR tv491[ebp]
  00319	f3 0f 11 04 24	 movss	 DWORD PTR [esp], xmm0
  0031e	ff d6		 call	 esi
  00320	50		 push	 eax
  00321	ff 15 00 00 00
	00		 call	 DWORD PTR __imp_?PrintText@ioFontManager@@QAAXMMMPBDZZ
  00327	83 c4 14	 add	 esp, 20			; 00000014H

; 879  : 		g_FontMgr.PrintText( iXPos + 125, iYPos + 254, FONT_SIZE_13, STR(2) );

  0032a	6a 00		 push	 0
  0032c	6a 02		 push	 2
$LN12@OnRender:
  0032e	68 00 00 00 00	 push	 OFFSET ??_C@_00CNPNBAHC@?$AA@
  00333	68 00 00 00 00	 push	 OFFSET ??_C@_0CA@FMNNODMP@SendPresentConfirmWnd?3?3OnRender?$AA@
  00338	ff d7		 call	 edi
  0033a	8b c8		 mov	 ecx, eax
  0033c	ff d3		 call	 ebx
  0033e	f3 0f 10 05 00
	00 00 00	 movss	 xmm0, DWORD PTR __real@3f266666
  00346	50		 push	 eax
  00347	8b 85 e4 fe ff
	ff		 mov	 eax, DWORD PTR _iYPos$[ebp]
  0034d	83 ec 0c	 sub	 esp, 12			; 0000000cH
  00350	f3 0f 11 44 24
	08		 movss	 DWORD PTR [esp+8], xmm0
  00356	0f 57 c0	 xorps	 xmm0, xmm0
  00359	05 fe 00 00 00	 add	 eax, 254		; 000000feH
  0035e	f3 0f 2a c0	 cvtsi2ss xmm0, eax
  00362	f3 0f 11 44 24
	04		 movss	 DWORD PTR [esp+4], xmm0
  00368	f3 0f 10 85 e8
	fe ff ff	 movss	 xmm0, DWORD PTR tv491[ebp]
  00370	f3 0f 11 04 24	 movss	 DWORD PTR [esp], xmm0
  00375	ff d6		 call	 esi
  00377	50		 push	 eax
  00378	ff 15 00 00 00
	00		 call	 DWORD PTR __imp_?PrintText@ioFontManager@@QAAXMMMPBDZZ
  0037e	83 c4 14	 add	 esp, 20			; 00000014H

; 880  : 	}
; 881  : 
; 882  : 	g_FontMgr.PrintText( iXPos + 125, iYPos + 284, FONT_SIZE_13, STR(8) );

  00381	6a 00		 push	 0
  00383	6a 08		 push	 8
  00385	68 00 00 00 00	 push	 OFFSET ??_C@_00CNPNBAHC@?$AA@
  0038a	68 00 00 00 00	 push	 OFFSET ??_C@_0CA@FMNNODMP@SendPresentConfirmWnd?3?3OnRender?$AA@
  0038f	ff d7		 call	 edi
  00391	8b c8		 mov	 ecx, eax
  00393	ff d3		 call	 ebx
  00395	f3 0f 10 05 00
	00 00 00	 movss	 xmm0, DWORD PTR __real@3f266666
  0039d	50		 push	 eax
  0039e	8b 85 e4 fe ff
	ff		 mov	 eax, DWORD PTR _iYPos$[ebp]
  003a4	83 ec 0c	 sub	 esp, 12			; 0000000cH
  003a7	f3 0f 11 44 24
	08		 movss	 DWORD PTR [esp+8], xmm0
  003ad	05 1c 01 00 00	 add	 eax, 284		; 0000011cH
  003b2	0f 57 c0	 xorps	 xmm0, xmm0
  003b5	f3 0f 2a c0	 cvtsi2ss xmm0, eax
  003b9	f3 0f 11 44 24
	04		 movss	 DWORD PTR [esp+4], xmm0
  003bf	f3 0f 10 85 e8
	fe ff ff	 movss	 xmm0, DWORD PTR tv491[ebp]
  003c7	f3 0f 11 04 24	 movss	 DWORD PTR [esp], xmm0
  003cc	ff d6		 call	 esi
  003ce	50		 push	 eax
  003cf	ff 15 00 00 00
	00		 call	 DWORD PTR __imp_?PrintText@ioFontManager@@QAAXMMMPBDZZ
  003d5	83 c4 14	 add	 esp, 20			; 00000014H

; 883  : 	g_FontMgr.PrintText( iXPos + 125, iYPos + 304, FONT_SIZE_13, STR(9) );

  003d8	6a 00		 push	 0
  003da	6a 09		 push	 9
  003dc	68 00 00 00 00	 push	 OFFSET ??_C@_00CNPNBAHC@?$AA@
  003e1	68 00 00 00 00	 push	 OFFSET ??_C@_0CA@FMNNODMP@SendPresentConfirmWnd?3?3OnRender?$AA@
  003e6	ff d7		 call	 edi
  003e8	8b c8		 mov	 ecx, eax
  003ea	ff d3		 call	 ebx
  003ec	f3 0f 10 05 00
	00 00 00	 movss	 xmm0, DWORD PTR __real@3f266666
  003f4	50		 push	 eax
  003f5	8b 85 e4 fe ff
	ff		 mov	 eax, DWORD PTR _iYPos$[ebp]
  003fb	83 ec 0c	 sub	 esp, 12			; 0000000cH
  003fe	f3 0f 11 44 24
	08		 movss	 DWORD PTR [esp+8], xmm0
  00404	05 30 01 00 00	 add	 eax, 304		; 00000130H
  00409	0f 57 c0	 xorps	 xmm0, xmm0
  0040c	f3 0f 2a c0	 cvtsi2ss xmm0, eax
  00410	f3 0f 11 44 24
	04		 movss	 DWORD PTR [esp+4], xmm0
  00416	f3 0f 10 85 e8
	fe ff ff	 movss	 xmm0, DWORD PTR tv491[ebp]
  0041e	f3 0f 11 04 24	 movss	 DWORD PTR [esp], xmm0
  00423	ff d6		 call	 esi
  00425	50		 push	 eax
  00426	ff 15 00 00 00
	00		 call	 DWORD PTR __imp_?PrintText@ioFontManager@@QAAXMMMPBDZZ
  0042c	83 c4 14	 add	 esp, 20			; 00000014H

; 884  : 
; 885  : 	ioComplexStringPrinter kPrinter;

  0042f	8d 8d c0 fe ff
	ff		 lea	 ecx, DWORD PTR _kPrinter$[ebp]
  00435	e8 00 00 00 00	 call	 ??0ioComplexStringPrinter@@QAE@XZ ; ioComplexStringPrinter::ioComplexStringPrinter
  0043a	33 f6		 xor	 esi, esi

; 886  : 	kPrinter.SetBkColor( 0, 0, 0 );

  0043c	56		 push	 esi
  0043d	56		 push	 esi
  0043e	56		 push	 esi
  0043f	8d 8d c0 fe ff
	ff		 lea	 ecx, DWORD PTR _kPrinter$[ebp]
  00445	89 75 fc	 mov	 DWORD PTR __$EHRec$[ebp+8], esi
  00448	e8 00 00 00 00	 call	 ?SetBkColor@ioComplexStringPrinter@@QAEXHHH@Z ; ioComplexStringPrinter::SetBkColor

; 887  : 	kPrinter.SetTextStyle( TS_NORMAL );

  0044d	56		 push	 esi
  0044e	8d 8d c0 fe ff
	ff		 lea	 ecx, DWORD PTR _kPrinter$[ebp]
  00454	e8 00 00 00 00	 call	 ?SetTextStyle@ioComplexStringPrinter@@QAEXW4TextStyle@@@Z ; ioComplexStringPrinter::SetTextStyle

; 888  : 	kPrinter.SetTextColor( TCT_DEFAULT_GRAY );

  00459	68 6e 6e 6e ff	 push	 -9539986		; ff6e6e6eH
  0045e	8d 8d c0 fe ff
	ff		 lea	 ecx, DWORD PTR _kPrinter$[ebp]
  00464	e8 00 00 00 00	 call	 ?SetTextColor@ioComplexStringPrinter@@QAEXK@Z ; ioComplexStringPrinter::SetTextColor

; 889  : 	kPrinter.AddTextPiece( FONT_SIZE_13, STR(5) );

  00469	56		 push	 esi
  0046a	6a 05		 push	 5
  0046c	68 00 00 00 00	 push	 OFFSET ??_C@_00CNPNBAHC@?$AA@
  00471	68 00 00 00 00	 push	 OFFSET ??_C@_0CA@FMNNODMP@SendPresentConfirmWnd?3?3OnRender?$AA@
  00476	ff d7		 call	 edi
  00478	8b c8		 mov	 ecx, eax
  0047a	ff d3		 call	 ebx
  0047c	f3 0f 10 05 00
	00 00 00	 movss	 xmm0, DWORD PTR __real@3f266666
  00484	50		 push	 eax
  00485	51		 push	 ecx
  00486	8d 85 c0 fe ff
	ff		 lea	 eax, DWORD PTR _kPrinter$[ebp]
  0048c	f3 0f 11 04 24	 movss	 DWORD PTR [esp], xmm0
  00491	50		 push	 eax
  00492	e8 00 00 00 00	 call	 ?AddTextPiece@ioComplexStringPrinter@@QAAXMPBDZZ ; ioComplexStringPrinter::AddTextPiece
  00497	83 c4 0c	 add	 esp, 12			; 0000000cH

; 890  : 	kPrinter.SetTextColor( TCT_DEFAULT_GREEN );

  0049a	68 22 72 11 ff	 push	 -15633886		; ff117222H
  0049f	8d 8d c0 fe ff
	ff		 lea	 ecx, DWORD PTR _kPrinter$[ebp]
  004a5	e8 00 00 00 00	 call	 ?SetTextColor@ioComplexStringPrinter@@QAEXK@Z ; ioComplexStringPrinter::SetTextColor

; 891  : 	kPrinter.AddTextPiece( FONT_SIZE_13, m_szRecvPublicID.c_str() );

  004aa	8b 8d e0 fe ff
	ff		 mov	 ecx, DWORD PTR _this$GSCopy$[ebp]
  004b0	81 c1 78 01 00
	00		 add	 ecx, 376		; 00000178H
  004b6	ff 15 00 00 00
	00		 call	 DWORD PTR __imp_?c_str@ioHashString@@QBEPBDXZ
  004bc	f3 0f 10 05 00
	00 00 00	 movss	 xmm0, DWORD PTR __real@3f266666
  004c4	50		 push	 eax
  004c5	51		 push	 ecx
  004c6	8d 85 c0 fe ff
	ff		 lea	 eax, DWORD PTR _kPrinter$[ebp]
  004cc	f3 0f 11 04 24	 movss	 DWORD PTR [esp], xmm0
  004d1	50		 push	 eax
  004d2	e8 00 00 00 00	 call	 ?AddTextPiece@ioComplexStringPrinter@@QAAXMPBDZZ ; ioComplexStringPrinter::AddTextPiece

; 892  : 	kPrinter.PrintFullTextWidthCut( iXPos + 125, iYPos + 184, TAT_CENTER, 216.0f );

  004d7	f3 0f 10 05 00
	00 00 00	 movss	 xmm0, DWORD PTR __real@43580000
  004df	8b 85 e4 fe ff
	ff		 mov	 eax, DWORD PTR _iYPos$[ebp]
  004e5	83 c4 0c	 add	 esp, 12			; 0000000cH
  004e8	68 ff 00 00 00	 push	 255			; 000000ffH
  004ed	51		 push	 ecx
  004ee	f3 0f 11 04 24	 movss	 DWORD PTR [esp], xmm0
  004f3	6a 01		 push	 1
  004f5	51		 push	 ecx
  004f6	51		 push	 ecx
  004f7	05 b8 00 00 00	 add	 eax, 184		; 000000b8H
  004fc	0f 57 c0	 xorps	 xmm0, xmm0
  004ff	f3 0f 2a c0	 cvtsi2ss xmm0, eax
  00503	f3 0f 11 44 24
	04		 movss	 DWORD PTR [esp+4], xmm0
  00509	f3 0f 10 85 e8
	fe ff ff	 movss	 xmm0, DWORD PTR tv491[ebp]
  00511	8d 8d c0 fe ff
	ff		 lea	 ecx, DWORD PTR _kPrinter$[ebp]
  00517	f3 0f 11 04 24	 movss	 DWORD PTR [esp], xmm0
  0051c	e8 00 00 00 00	 call	 ?PrintFullTextWidthCut@ioComplexStringPrinter@@QAEXMMW4TextAlignType@@ME@Z ; ioComplexStringPrinter::PrintFullTextWidthCut

; 893  : 	kPrinter.ClearList();

  00521	8d 8d c0 fe ff
	ff		 lea	 ecx, DWORD PTR _kPrinter$[ebp]
  00527	e8 00 00 00 00	 call	 ?ClearList@ioComplexStringPrinter@@QAEXXZ ; ioComplexStringPrinter::ClearList

; 894  : 
; 895  : 	kPrinter.SetBkColor( 0, 0, 0 );

  0052c	56		 push	 esi
  0052d	56		 push	 esi
  0052e	56		 push	 esi
  0052f	8d 8d c0 fe ff
	ff		 lea	 ecx, DWORD PTR _kPrinter$[ebp]
  00535	e8 00 00 00 00	 call	 ?SetBkColor@ioComplexStringPrinter@@QAEXHHH@Z ; ioComplexStringPrinter::SetBkColor

; 896  : 	kPrinter.SetTextStyle( TS_NORMAL );

  0053a	56		 push	 esi
  0053b	8d 8d c0 fe ff
	ff		 lea	 ecx, DWORD PTR _kPrinter$[ebp]
  00541	e8 00 00 00 00	 call	 ?SetTextStyle@ioComplexStringPrinter@@QAEXW4TextStyle@@@Z ; ioComplexStringPrinter::SetTextStyle

; 897  : 	kPrinter.SetTextColor( TCT_DEFAULT_GRAY );

  00546	68 6e 6e 6e ff	 push	 -9539986		; ff6e6e6eH
  0054b	8d 8d c0 fe ff
	ff		 lea	 ecx, DWORD PTR _kPrinter$[ebp]
  00551	e8 00 00 00 00	 call	 ?SetTextColor@ioComplexStringPrinter@@QAEXK@Z ; ioComplexStringPrinter::SetTextColor

; 898  : 	kPrinter.AddTextPiece( FONT_SIZE_13, STR(6) );

  00556	56		 push	 esi
  00557	6a 06		 push	 6
  00559	68 00 00 00 00	 push	 OFFSET ??_C@_00CNPNBAHC@?$AA@
  0055e	68 00 00 00 00	 push	 OFFSET ??_C@_0CA@FMNNODMP@SendPresentConfirmWnd?3?3OnRender?$AA@
  00563	ff d7		 call	 edi
  00565	8b c8		 mov	 ecx, eax
  00567	ff d3		 call	 ebx
  00569	f3 0f 10 05 00
	00 00 00	 movss	 xmm0, DWORD PTR __real@3f266666
  00571	50		 push	 eax
  00572	51		 push	 ecx
  00573	8d 85 c0 fe ff
	ff		 lea	 eax, DWORD PTR _kPrinter$[ebp]
  00579	f3 0f 11 04 24	 movss	 DWORD PTR [esp], xmm0
  0057e	50		 push	 eax
  0057f	e8 00 00 00 00	 call	 ?AddTextPiece@ioComplexStringPrinter@@QAAXMPBDZZ ; ioComplexStringPrinter::AddTextPiece

; 899  : 
; 900  : 	char szConvertNum[MAX_PATH] = "";

  00584	68 03 01 00 00	 push	 259			; 00000103H
  00589	8d 85 ed fe ff
	ff		 lea	 eax, DWORD PTR _szConvertNum$[ebp+1]
  0058f	56		 push	 esi
  00590	50		 push	 eax
  00591	c6 85 ec fe ff
	ff 00		 mov	 BYTE PTR _szConvertNum$[ebp], 0
  00598	e8 00 00 00 00	 call	 _memset

; 901  : 	Help::ConvertNumToStrComma( m_iCash, szConvertNum, sizeof( szConvertNum ) );

  0059d	8d 85 ec fe ff
	ff		 lea	 eax, DWORD PTR _szConvertNum$[ebp]
  005a3	68 04 01 00 00	 push	 260			; 00000104H
  005a8	50		 push	 eax
  005a9	8b 85 e0 fe ff
	ff		 mov	 eax, DWORD PTR _this$GSCopy$[ebp]
  005af	ff b0 8c 01 00
	00		 push	 DWORD PTR [eax+396]
  005b5	e8 00 00 00 00	 call	 ?ConvertNumToStrComma@Help@@YAXHPADH@Z ; Help::ConvertNumToStrComma
  005ba	83 c4 24	 add	 esp, 36			; 00000024H

; 902  : 	kPrinter.SetTextColor( 141, 87, 4 );

  005bd	6a 04		 push	 4
  005bf	6a 57		 push	 87			; 00000057H
  005c1	68 8d 00 00 00	 push	 141			; 0000008dH
  005c6	8d 8d c0 fe ff
	ff		 lea	 ecx, DWORD PTR _kPrinter$[ebp]
  005cc	e8 00 00 00 00	 call	 ?SetTextColor@ioComplexStringPrinter@@QAEXHHH@Z ; ioComplexStringPrinter::SetTextColor

; 903  : 	kPrinter.AddTextPiece( FONT_SIZE_13, STR(7), szConvertNum );

  005d1	8d 85 ec fe ff
	ff		 lea	 eax, DWORD PTR _szConvertNum$[ebp]
  005d7	50		 push	 eax
  005d8	56		 push	 esi
  005d9	6a 07		 push	 7
  005db	68 00 00 00 00	 push	 OFFSET ??_C@_00CNPNBAHC@?$AA@
  005e0	68 00 00 00 00	 push	 OFFSET ??_C@_0CA@FMNNODMP@SendPresentConfirmWnd?3?3OnRender?$AA@
  005e5	ff d7		 call	 edi
  005e7	8b c8		 mov	 ecx, eax
  005e9	ff d3		 call	 ebx
  005eb	f3 0f 10 05 00
	00 00 00	 movss	 xmm0, DWORD PTR __real@3f266666
  005f3	50		 push	 eax
  005f4	51		 push	 ecx
  005f5	8d 8d c0 fe ff
	ff		 lea	 ecx, DWORD PTR _kPrinter$[ebp]
  005fb	f3 0f 11 04 24	 movss	 DWORD PTR [esp], xmm0
  00600	e8 00 00 00 00	 call	 ?AddTextPiece@ioComplexStringPrinter@@QAEXMPBD0@Z ; ioComplexStringPrinter::AddTextPiece

; 904  : 	kPrinter.PrintFullTextWidthCut( iXPos + 125, iYPos + 204, TAT_CENTER, 216.0f );

  00605	f3 0f 10 05 00
	00 00 00	 movss	 xmm0, DWORD PTR __real@43580000
  0060d	8b 85 e4 fe ff
	ff		 mov	 eax, DWORD PTR _iYPos$[ebp]
  00613	68 ff 00 00 00	 push	 255			; 000000ffH
  00618	51		 push	 ecx
  00619	f3 0f 11 04 24	 movss	 DWORD PTR [esp], xmm0
  0061e	6a 01		 push	 1
  00620	51		 push	 ecx
  00621	51		 push	 ecx
  00622	05 cc 00 00 00	 add	 eax, 204		; 000000ccH
  00627	0f 57 c0	 xorps	 xmm0, xmm0
  0062a	f3 0f 2a c0	 cvtsi2ss xmm0, eax
  0062e	f3 0f 11 44 24
	04		 movss	 DWORD PTR [esp+4], xmm0
  00634	f3 0f 10 85 e8
	fe ff ff	 movss	 xmm0, DWORD PTR tv491[ebp]
  0063c	8d 8d c0 fe ff
	ff		 lea	 ecx, DWORD PTR _kPrinter$[ebp]
  00642	f3 0f 11 04 24	 movss	 DWORD PTR [esp], xmm0
  00647	e8 00 00 00 00	 call	 ?PrintFullTextWidthCut@ioComplexStringPrinter@@QAEXMMW4TextAlignType@@ME@Z ; ioComplexStringPrinter::PrintFullTextWidthCut

; 905  : 	kPrinter.ClearList();

  0064c	8d 8d c0 fe ff
	ff		 lea	 ecx, DWORD PTR _kPrinter$[ebp]
  00652	e8 00 00 00 00	 call	 ?ClearList@ioComplexStringPrinter@@QAEXXZ ; ioComplexStringPrinter::ClearList

; 906  : }

  00657	83 4d fc ff	 or	 DWORD PTR __$EHRec$[ebp+8], -1
  0065b	8d 8d c0 fe ff
	ff		 lea	 ecx, DWORD PTR _kPrinter$[ebp]
  00661	e8 00 00 00 00	 call	 ??1ioComplexStringPrinter@@QAE@XZ ; ioComplexStringPrinter::~ioComplexStringPrinter
  00666	e8 00 00 00 00	 call	 __EH_epilog3_GS
  0066b	c3		 ret	 0
_TEXT	ENDS
;	COMDAT text$x
text$x	SEGMENT
__unwindfunclet$?OnRender@SendPresentConfirmWnd@@MAEXXZ$0:
  00000	8d 8d c0 fe ff
	ff		 lea	 ecx, DWORD PTR _kPrinter$[ebp]
  00006	e9 00 00 00 00	 jmp	 ??1ioComplexStringPrinter@@QAE@XZ ; ioComplexStringPrinter::~ioComplexStringPrinter
__ehhandler$?OnRender@SendPresentConfirmWnd@@MAEXXZ:
  0000b	8b 54 24 08	 mov	 edx, DWORD PTR [esp+8]
  0000f	8d 42 0c	 lea	 eax, DWORD PTR [edx+12]
  00012	8b 8a b8 fe ff
	ff		 mov	 ecx, DWORD PTR [edx-328]
  00018	33 c8		 xor	 ecx, eax
  0001a	e8 00 00 00 00	 call	 @__security_check_cookie@4
  0001f	8b 4a fc	 mov	 ecx, DWORD PTR [edx-4]
  00022	33 c8		 xor	 ecx, eax
  00024	e8 00 00 00 00	 call	 @__security_check_cookie@4
  00029	b8 00 00 00 00	 mov	 eax, OFFSET __ehfuncinfo$?OnRender@SendPresentConfirmWnd@@MAEXXZ
  0002e	e9 00 00 00 00	 jmp	 ___CxxFrameHandler3
text$x	ENDS
?OnRender@SendPresentConfirmWnd@@MAEXXZ ENDP		; SendPresentConfirmWnd::OnRender
PUBLIC	?_Adopt@_Iterator_base0@std@@QAEXPBX@Z		; std::_Iterator_base0::_Adopt
; Function compile flags: /Ogsp
; File c:\program files (x86)\microsoft visual studio 10.0\vc\include\xutility
;	COMDAT ?_Adopt@_Iterator_base0@std@@QAEXPBX@Z
_TEXT	SEGMENT
___formal$ = 8						; size = 4
?_Adopt@_Iterator_base0@std@@QAEXPBX@Z PROC		; std::_Iterator_base0::_Adopt, COMDAT
; _this$ = ecx

; 49   : 		}

  00000	c2 04 00	 ret	 4
?_Adopt@_Iterator_base0@std@@QAEXPBX@Z ENDP		; std::_Iterator_base0::_Adopt
_TEXT	ENDS
PUBLIC	?empty@?$vector@VioHashString@@V?$allocator@VioHashString@@@std@@@std@@QBE_NXZ ; std::vector<ioHashString,std::allocator<ioHashString> >::empty
; Function compile flags: /Ogsp
; File c:\program files (x86)\microsoft visual studio 10.0\vc\include\vector
;	COMDAT ?empty@?$vector@VioHashString@@V?$allocator@VioHashString@@@std@@@std@@QBE_NXZ
_TEXT	SEGMENT
?empty@?$vector@VioHashString@@V?$allocator@VioHashString@@@std@@@std@@QBE_NXZ PROC ; std::vector<ioHashString,std::allocator<ioHashString> >::empty, COMDAT
; _this$ = ecx

; 889  : 		return (this->_Myfirst == this->_Mylast);

  00000	8b 01		 mov	 eax, DWORD PTR [ecx]
  00002	2b 41 04	 sub	 eax, DWORD PTR [ecx+4]
  00005	f7 d8		 neg	 eax
  00007	1b c0		 sbb	 eax, eax
  00009	40		 inc	 eax

; 890  : 		}

  0000a	c3		 ret	 0
?empty@?$vector@VioHashString@@V?$allocator@VioHashString@@@std@@@std@@QBE_NXZ ENDP ; std::vector<ioHashString,std::allocator<ioHashString> >::empty
_TEXT	ENDS
PUBLIC	??A?$vector@VioHashString@@V?$allocator@VioHashString@@@std@@@std@@QAEAAVioHashString@@I@Z ; std::vector<ioHashString,std::allocator<ioHashString> >::operator[]
; Function compile flags: /Ogsp
;	COMDAT ??A?$vector@VioHashString@@V?$allocator@VioHashString@@@std@@@std@@QAEAAVioHashString@@I@Z
_TEXT	SEGMENT
__Pos$ = 8						; size = 4
??A?$vector@VioHashString@@V?$allocator@VioHashString@@@std@@@std@@QAEAAVioHashString@@I@Z PROC ; std::vector<ioHashString,std::allocator<ioHashString> >::operator[], COMDAT
; _this$ = ecx

; 928  : 		{	// subscript mutable sequence

  00000	55		 push	 ebp
  00001	8b ec		 mov	 ebp, esp

; 929  :  #if _ITERATOR_DEBUG_LEVEL == 2
; 930  : 		if (size() <= _Pos)
; 931  : 			{	// report error
; 932  : 			_DEBUG_ERROR("vector subscript out of range");
; 933  : 			_SCL_SECURE_OUT_OF_RANGE;
; 934  : 			}
; 935  : 
; 936  :  #elif _ITERATOR_DEBUG_LEVEL == 1
; 937  : 		_SCL_SECURE_VALIDATE_RANGE(_Pos < size());
; 938  :  #endif /* _ITERATOR_DEBUG_LEVEL */
; 939  : 
; 940  : 		return (*(this->_Myfirst + _Pos));

  00003	8b 45 08	 mov	 eax, DWORD PTR __Pos$[ebp]
  00006	c1 e0 04	 shl	 eax, 4
  00009	03 01		 add	 eax, DWORD PTR [ecx]

; 941  : 		}

  0000b	5d		 pop	 ebp
  0000c	c2 04 00	 ret	 4
??A?$vector@VioHashString@@V?$allocator@VioHashString@@@std@@@std@@QAEAAVioHashString@@I@Z ENDP ; std::vector<ioHashString,std::allocator<ioHashString> >::operator[]
_TEXT	ENDS
PUBLIC	?GetSingleton@?$Singleton@VioEtcItemManager@@@@SAAAVioEtcItemManager@@XZ ; Singleton<ioEtcItemManager>::GetSingleton
EXTRN	?ms_Singleton@?$Singleton@VioEtcItemManager@@@@1PAVioEtcItemManager@@A:DWORD ; Singleton<ioEtcItemManager>::ms_Singleton
; Function compile flags: /Ogsp
; File d:\lost saga for developer\youtube\tutorial\source\src\io3dengine\iosingleton.h
;	COMDAT ?GetSingleton@?$Singleton@VioEtcItemManager@@@@SAAAVioEtcItemManager@@XZ
_TEXT	SEGMENT
?GetSingleton@?$Singleton@VioEtcItemManager@@@@SAAAVioEtcItemManager@@XZ PROC ; Singleton<ioEtcItemManager>::GetSingleton, COMDAT

; 42   : 		assert( ms_Singleton );
; 43   : 		return (*ms_Singleton);

  00000	a1 00 00 00 00	 mov	 eax, DWORD PTR ?ms_Singleton@?$Singleton@VioEtcItemManager@@@@1PAVioEtcItemManager@@A ; Singleton<ioEtcItemManager>::ms_Singleton

; 44   : 	}

  00005	c3		 ret	 0
?GetSingleton@?$Singleton@VioEtcItemManager@@@@SAAAVioEtcItemManager@@XZ ENDP ; Singleton<ioEtcItemManager>::GetSingleton
_TEXT	ENDS
PUBLIC	?_Inside@?$vector@VioHashString@@V?$allocator@VioHashString@@@std@@@std@@IBE_NPBVioHashString@@@Z ; std::vector<ioHashString,std::allocator<ioHashString> >::_Inside
; Function compile flags: /Ogsp
; File c:\program files (x86)\microsoft visual studio 10.0\vc\include\vector
;	COMDAT ?_Inside@?$vector@VioHashString@@V?$allocator@VioHashString@@@std@@@std@@IBE_NPBVioHashString@@@Z
_TEXT	SEGMENT
__Ptr$ = 8						; size = 4
?_Inside@?$vector@VioHashString@@V?$allocator@VioHashString@@@std@@@std@@IBE_NPBVioHashString@@@Z PROC ; std::vector<ioHashString,std::allocator<ioHashString> >::_Inside, COMDAT
; _this$ = ecx

; 1285 : 		{	// test if _Ptr points inside vector

  00000	55		 push	 ebp
  00001	8b ec		 mov	 ebp, esp

; 1286 : 		return (_Ptr < this->_Mylast && this->_Myfirst <= _Ptr);

  00003	8b 45 08	 mov	 eax, DWORD PTR __Ptr$[ebp]
  00006	3b 41 04	 cmp	 eax, DWORD PTR [ecx+4]
  00009	73 09		 jae	 SHORT $LN3@Inside
  0000b	39 01		 cmp	 DWORD PTR [ecx], eax
  0000d	77 05		 ja	 SHORT $LN3@Inside
  0000f	33 c0		 xor	 eax, eax
  00011	40		 inc	 eax
  00012	eb 02		 jmp	 SHORT $LN4@Inside
$LN3@Inside:
  00014	33 c0		 xor	 eax, eax
$LN4@Inside:

; 1287 : 		}

  00016	5d		 pop	 ebp
  00017	c2 04 00	 ret	 4
?_Inside@?$vector@VioHashString@@V?$allocator@VioHashString@@@std@@@std@@IBE_NPBVioHashString@@@Z ENDP ; std::vector<ioHashString,std::allocator<ioHashString> >::_Inside
_TEXT	ENDS
PUBLIC	?_Orphan_range@?$vector@VioHashString@@V?$allocator@VioHashString@@@std@@@std@@IBEXPAVioHashString@@0@Z ; std::vector<ioHashString,std::allocator<ioHashString> >::_Orphan_range
; Function compile flags: /Ogsp
;	COMDAT ?_Orphan_range@?$vector@VioHashString@@V?$allocator@VioHashString@@@std@@@std@@IBEXPAVioHashString@@0@Z
_TEXT	SEGMENT
___formal$ = 8						; size = 4
___formal$ = 12						; size = 4
?_Orphan_range@?$vector@VioHashString@@V?$allocator@VioHashString@@@std@@@std@@IBEXPAVioHashString@@0@Z PROC ; std::vector<ioHashString,std::allocator<ioHashString> >::_Orphan_range, COMDAT
; _this$ = ecx

; 1454 : 		}

  00000	c2 08 00	 ret	 8
?_Orphan_range@?$vector@VioHashString@@V?$allocator@VioHashString@@@std@@@std@@IBEXPAVioHashString@@0@Z ENDP ; std::vector<ioHashString,std::allocator<ioHashString> >::_Orphan_range
_TEXT	ENDS
PUBLIC	?capacity@?$vector@VioHashString@@V?$allocator@VioHashString@@@std@@@std@@QBEIXZ ; std::vector<ioHashString,std::allocator<ioHashString> >::capacity
; Function compile flags: /Ogsp
;	COMDAT ?capacity@?$vector@VioHashString@@V?$allocator@VioHashString@@@std@@@std@@QBEIXZ
_TEXT	SEGMENT
?capacity@?$vector@VioHashString@@V?$allocator@VioHashString@@@std@@@std@@QBEIXZ PROC ; std::vector<ioHashString,std::allocator<ioHashString> >::capacity, COMDAT
; _this$ = ecx

; 777  : 		return (this->_Myend - this->_Myfirst);

  00000	8b 41 08	 mov	 eax, DWORD PTR [ecx+8]
  00003	2b 01		 sub	 eax, DWORD PTR [ecx]
  00005	c1 f8 04	 sar	 eax, 4

; 778  : 		}

  00008	c3		 ret	 0
?capacity@?$vector@VioHashString@@V?$allocator@VioHashString@@@std@@@std@@QBEIXZ ENDP ; std::vector<ioHashString,std::allocator<ioHashString> >::capacity
_TEXT	ENDS
PUBLIC	??$addressof@$$CBVioHashString@@@std@@YAPBVioHashString@@ABV1@@Z ; std::addressof<ioHashString const >
; Function compile flags: /Ogsp
; File c:\program files (x86)\microsoft visual studio 10.0\vc\include\xmemory
;	COMDAT ??$addressof@$$CBVioHashString@@@std@@YAPBVioHashString@@ABV1@@Z
_TEXT	SEGMENT
__Val$ = 8						; size = 4
??$addressof@$$CBVioHashString@@@std@@YAPBVioHashString@@ABV1@@Z PROC ; std::addressof<ioHashString const >, COMDAT

; 110  : 	{	// return address of _Val

  00000	55		 push	 ebp
  00001	8b ec		 mov	 ebp, esp

; 111  : 	return ((_Ty *) &(char&)_Val);

  00003	8b 45 08	 mov	 eax, DWORD PTR __Val$[ebp]

; 112  : 	}

  00006	5d		 pop	 ebp
  00007	c3		 ret	 0
??$addressof@$$CBVioHashString@@@std@@YAPBVioHashString@@ABV1@@Z ENDP ; std::addressof<ioHashString const >
_TEXT	ENDS
PUBLIC	??$_Val_type@PAVioHashString@@@std@@YAPAVioHashString@@PAV1@@Z ; std::_Val_type<ioHashString *>
; Function compile flags: /Ogsp
; File c:\program files (x86)\microsoft visual studio 10.0\vc\include\xutility
;	COMDAT ??$_Val_type@PAVioHashString@@@std@@YAPAVioHashString@@PAV1@@Z
_TEXT	SEGMENT
___formal$ = 8						; size = 4
??$_Val_type@PAVioHashString@@@std@@YAPAVioHashString@@PAV1@@Z PROC ; std::_Val_type<ioHashString *>, COMDAT

; 790  : 	return (0);

  00000	33 c0		 xor	 eax, eax

; 791  : 	}

  00002	c3		 ret	 0
??$_Val_type@PAVioHashString@@@std@@YAPAVioHashString@@PAV1@@Z ENDP ; std::_Val_type<ioHashString *>
_TEXT	ENDS
PUBLIC	??$forward@VioHashString@@@std@@YA$$QAVioHashString@@AAV1@@Z ; std::forward<ioHashString>
; Function compile flags: /Ogsp
; File c:\program files (x86)\microsoft visual studio 10.0\vc\include\utility
;	COMDAT ??$forward@VioHashString@@@std@@YA$$QAVioHashString@@AAV1@@Z
_TEXT	SEGMENT
__Arg$ = 8						; size = 4
??$forward@VioHashString@@@std@@YA$$QAVioHashString@@AAV1@@Z PROC ; std::forward<ioHashString>, COMDAT

; 78   : 	{	// forward _Arg, given explicitly specified type parameter

  00000	55		 push	 ebp
  00001	8b ec		 mov	 ebp, esp

; 79   : 	return ((_Ty&&)_Arg);

  00003	8b 45 08	 mov	 eax, DWORD PTR __Arg$[ebp]

; 80   : 	}

  00006	5d		 pop	 ebp
  00007	c3		 ret	 0
??$forward@VioHashString@@@std@@YA$$QAVioHashString@@AAV1@@Z ENDP ; std::forward<ioHashString>
_TEXT	ENDS
PUBLIC	?_DECSTR@@YAXPADH@Z				; _DECSTR
; Function compile flags: /Ogsp
; File d:\lost saga for developer\youtube\tutorial\source\src\lsclient\stringprotect.h
;	COMDAT ?_DECSTR@@YAXPADH@Z
_TEXT	SEGMENT
_s$ = 8							; size = 4
_l$ = 12						; size = 4
?_DECSTR@@YAXPADH@Z PROC				; _DECSTR, COMDAT

; 40   : __forceinline void _DECSTR(char* s, int l){int i=0,l4=(l-1)/4,*p=(int*)s;s[l-1]=0;for(;i<l4;++i)*(p++)^=0xEAEBECED;for(i=l4*4;i<l-1;++i)s[i]^=0xED-i%4;}

  00000	55		 push	 ebp
  00001	8b ec		 mov	 ebp, esp
  00003	8b 4d 0c	 mov	 ecx, DWORD PTR _l$[ebp]
  00006	56		 push	 esi
  00007	8b 75 08	 mov	 esi, DWORD PTR _s$[ebp]
  0000a	57		 push	 edi
  0000b	8d 79 ff	 lea	 edi, DWORD PTR [ecx-1]
  0000e	8b c7		 mov	 eax, edi
  00010	99		 cdq
  00011	83 e2 03	 and	 edx, 3
  00014	03 c2		 add	 eax, edx
  00016	c1 f8 02	 sar	 eax, 2
  00019	8b d6		 mov	 edx, esi
  0001b	c6 44 0e ff 00	 mov	 BYTE PTR [esi+ecx-1], 0
  00020	85 c0		 test	 eax, eax
  00022	7e 0e		 jle	 SHORT $LN4@DECSTR
  00024	8b c8		 mov	 ecx, eax
$LL6@DECSTR:
  00026	81 32 ed ec eb
	ea		 xor	 DWORD PTR [edx], -353637139 ; eaebecedH
  0002c	83 c2 04	 add	 edx, 4
  0002f	49		 dec	 ecx
  00030	75 f4		 jne	 SHORT $LL6@DECSTR
$LN4@DECSTR:
  00032	c1 e0 02	 shl	 eax, 2
  00035	eb 17		 jmp	 SHORT $LN14@DECSTR
$LL3@DECSTR:
  00037	8b c8		 mov	 ecx, eax
  00039	81 e1 03 00 00
	80		 and	 ecx, -2147483645	; 80000003H
  0003f	79 05		 jns	 SHORT $LN13@DECSTR
  00041	49		 dec	 ecx
  00042	83 c9 fc	 or	 ecx, -4			; fffffffcH
  00045	41		 inc	 ecx
$LN13@DECSTR:
  00046	b2 ed		 mov	 dl, -19			; ffffffedH
  00048	2a d1		 sub	 dl, cl
  0004a	30 14 30	 xor	 BYTE PTR [eax+esi], dl
  0004d	40		 inc	 eax
$LN14@DECSTR:
  0004e	3b c7		 cmp	 eax, edi
  00050	7c e5		 jl	 SHORT $LL3@DECSTR
  00052	5f		 pop	 edi
  00053	5e		 pop	 esi
  00054	5d		 pop	 ebp
  00055	c3		 ret	 0
?_DECSTR@@YAXPADH@Z ENDP				; _DECSTR
_TEXT	ENDS
PUBLIC	?GetIconName@CostumeShopInfo@@QAEAAVioHashString@@XZ ; CostumeShopInfo::GetIconName
; Function compile flags: /Ogsp
; File d:\lost saga for developer\youtube\tutorial\source\src\lsclient\iocostumeshopinfomanager.h
;	COMDAT ?GetIconName@CostumeShopInfo@@QAEAAVioHashString@@XZ
_TEXT	SEGMENT
?GetIconName@CostumeShopInfo@@QAEAAVioHashString@@XZ PROC ; CostumeShopInfo::GetIconName, COMDAT
; _this$ = ecx

; 64   : 	inline ioHashString &GetIconName() { return m_szIconName; }

  00000	8d 41 50	 lea	 eax, DWORD PTR [ecx+80]
  00003	c3		 ret	 0
?GetIconName@CostumeShopInfo@@QAEAAVioHashString@@XZ ENDP ; CostumeShopInfo::GetIconName
_TEXT	ENDS
PUBLIC	?GetNeedCash@CostumeShopInfo@@QBEHXZ		; CostumeShopInfo::GetNeedCash
; Function compile flags: /Ogsp
;	COMDAT ?GetNeedCash@CostumeShopInfo@@QBEHXZ
_TEXT	SEGMENT
?GetNeedCash@CostumeShopInfo@@QBEHXZ PROC		; CostumeShopInfo::GetNeedCash, COMDAT
; _this$ = ecx

; 66   : 	inline int GetNeedCash() const { return m_nNeedCash; }

  00000	8b 41 14	 mov	 eax, DWORD PTR [ecx+20]
  00003	c3		 ret	 0
?GetNeedCash@CostumeShopInfo@@QBEHXZ ENDP		; CostumeShopInfo::GetNeedCash
_TEXT	ENDS
PUBLIC	?GetItemLargeIconName@ioItem@@QBEABVioHashString@@XZ ; ioItem::GetItemLargeIconName
; Function compile flags: /Ogsp
; File d:\lost saga for developer\youtube\tutorial\source\src\lsclient\ioitem.h
;	COMDAT ?GetItemLargeIconName@ioItem@@QBEABVioHashString@@XZ
_TEXT	SEGMENT
?GetItemLargeIconName@ioItem@@QBEABVioHashString@@XZ PROC ; ioItem::GetItemLargeIconName, COMDAT
; _this$ = ecx

; 288  : 	inline const ioHashString& GetItemLargeIconName() const { return m_ItemLargeIconFile; }

  00000	8d 81 14 02 00
	00		 lea	 eax, DWORD PTR [ecx+532]
  00006	c3		 ret	 0
?GetItemLargeIconName@ioItem@@QBEABVioHashString@@XZ ENDP ; ioItem::GetItemLargeIconName
_TEXT	ENDS
PUBLIC	?GetMouse@ioApplication@@QAEPAVioLSMouse@@XZ	; ioApplication::GetMouse
; Function compile flags: /Ogsp
; File d:\lost saga for developer\youtube\tutorial\source\src\lsclient\ioapplication.h
;	COMDAT ?GetMouse@ioApplication@@QAEPAVioLSMouse@@XZ
_TEXT	SEGMENT
?GetMouse@ioApplication@@QAEPAVioLSMouse@@XZ PROC	; ioApplication::GetMouse, COMDAT
; _this$ = ecx

; 796  : 	inline ioLSMouse* GetMouse(){ return &m_Mouse;	}

  00000	8d 81 90 00 00
	00		 lea	 eax, DWORD PTR [ecx+144]
  00006	c3		 ret	 0
?GetMouse@ioApplication@@QAEPAVioLSMouse@@XZ ENDP	; ioApplication::GetMouse
_TEXT	ENDS
PUBLIC	?GetIconName@ioEtcItem@@QBEABVioHashString@@XZ	; ioEtcItem::GetIconName
; Function compile flags: /Ogsp
; File d:\lost saga for developer\youtube\tutorial\source\src\lsclient\ioetcitem.h
;	COMDAT ?GetIconName@ioEtcItem@@QBEABVioHashString@@XZ
_TEXT	SEGMENT
?GetIconName@ioEtcItem@@QBEABVioHashString@@XZ PROC	; ioEtcItem::GetIconName, COMDAT
; _this$ = ecx

; 467  : 	inline const ioHashString& GetIconName() const { return m_IconName; }

  00000	8d 81 60 01 00
	00		 lea	 eax, DWORD PTR [ecx+352]
  00006	c3		 ret	 0
?GetIconName@ioEtcItem@@QBEABVioHashString@@XZ ENDP	; ioEtcItem::GetIconName
_TEXT	ENDS
PUBLIC	?GetIconName@RandomMachineInfo@@QBEABVioHashString@@XZ ; RandomMachineInfo::GetIconName
; Function compile flags: /Ogsp
; File d:\lost saga for developer\youtube\tutorial\source\src\lsclient\ioextraiteminfomanager.h
;	COMDAT ?GetIconName@RandomMachineInfo@@QBEABVioHashString@@XZ
_TEXT	SEGMENT
?GetIconName@RandomMachineInfo@@QBEABVioHashString@@XZ PROC ; RandomMachineInfo::GetIconName, COMDAT
; _this$ = ecx

; 117  : 	inline const ioHashString& GetIconName() const { return m_IconName; }

  00000	8d 41 18	 lea	 eax, DWORD PTR [ecx+24]
  00003	c3		 ret	 0
?GetIconName@RandomMachineInfo@@QBEABVioHashString@@XZ ENDP ; RandomMachineInfo::GetIconName
_TEXT	ENDS
PUBLIC	?GetNeedCash@RandomMachineInfo@@QBEHXZ		; RandomMachineInfo::GetNeedCash
; Function compile flags: /Ogsp
;	COMDAT ?GetNeedCash@RandomMachineInfo@@QBEHXZ
_TEXT	SEGMENT
?GetNeedCash@RandomMachineInfo@@QBEHXZ PROC		; RandomMachineInfo::GetNeedCash, COMDAT
; _this$ = ecx

; 119  : 	inline int GetNeedCash() const { return m_iNeedCash; }

  00000	8b 41 50	 mov	 eax, DWORD PTR [ecx+80]
  00003	c3		 ret	 0
?GetNeedCash@RandomMachineInfo@@QBEHXZ ENDP		; RandomMachineInfo::GetNeedCash
_TEXT	ENDS
PUBLIC	?GetPublicID@ioMyInfo@@QBEABVioHashString@@XZ	; ioMyInfo::GetPublicID
; Function compile flags: /Ogsp
; File d:\lost saga for developer\youtube\tutorial\source\src\lsclient\iomyinfo.h
;	COMDAT ?GetPublicID@ioMyInfo@@QBEABVioHashString@@XZ
_TEXT	SEGMENT
?GetPublicID@ioMyInfo@@QBEABVioHashString@@XZ PROC	; ioMyInfo::GetPublicID, COMDAT
; _this$ = ecx

; 517  : 	const ioHashString& GetPublicID() const { return m_user_data.m_public_id; }    

  00000	8d 41 1c	 lea	 eax, DWORD PTR [ecx+28]
  00003	c3		 ret	 0
?GetPublicID@ioMyInfo@@QBEABVioHashString@@XZ ENDP	; ioMyInfo::GetPublicID
_TEXT	ENDS
PUBLIC	?GetPreClickWnd@ioSP2GUIManager@@QAEPAVioWnd@@XZ ; ioSP2GUIManager::GetPreClickWnd
; Function compile flags: /Ogsp
; File d:\lost saga for developer\youtube\tutorial\source\src\lsclient\gui\iosp2guimanager.h
;	COMDAT ?GetPreClickWnd@ioSP2GUIManager@@QAEPAVioWnd@@XZ
_TEXT	SEGMENT
?GetPreClickWnd@ioSP2GUIManager@@QAEPAVioWnd@@XZ PROC	; ioSP2GUIManager::GetPreClickWnd, COMDAT
; _this$ = ecx

; 221  : 	ioWnd *GetPreClickWnd(){ return m_pPreClickWnd; }

  00000	8b 41 14	 mov	 eax, DWORD PTR [ecx+20]
  00003	c3		 ret	 0
?GetPreClickWnd@ioSP2GUIManager@@QAEPAVioWnd@@XZ ENDP	; ioSP2GUIManager::GetPreClickWnd
_TEXT	ENDS
PUBLIC	?GetName@FriendNode@@QAEABVioHashString@@XZ	; FriendNode::GetName
; Function compile flags: /Ogsp
; File d:\lost saga for developer\youtube\tutorial\source\src\lsclient\gui\iofriendmanager.h
;	COMDAT ?GetName@FriendNode@@QAEABVioHashString@@XZ
_TEXT	SEGMENT
?GetName@FriendNode@@QAEABVioHashString@@XZ PROC	; FriendNode::GetName, COMDAT
; _this$ = ecx

; 44   : 	const ioHashString &GetName(){ return m_FriendID; }

  00000	8d 41 0c	 lea	 eax, DWORD PTR [ecx+12]
  00003	c3		 ret	 0
?GetName@FriendNode@@QAEABVioHashString@@XZ ENDP	; FriendNode::GetName
_TEXT	ENDS
PUBLIC	?size@?$vector@VioHashString@@V?$allocator@VioHashString@@@std@@@std@@QBEIXZ ; std::vector<ioHashString,std::allocator<ioHashString> >::size
; Function compile flags: /Ogsp
; File c:\program files (x86)\microsoft visual studio 10.0\vc\include\vector
;	COMDAT ?size@?$vector@VioHashString@@V?$allocator@VioHashString@@@std@@@std@@QBEIXZ
_TEXT	SEGMENT
?size@?$vector@VioHashString@@V?$allocator@VioHashString@@@std@@@std@@QBEIXZ PROC ; std::vector<ioHashString,std::allocator<ioHashString> >::size, COMDAT
; _this$ = ecx

; 879  : 		return (this->_Mylast - this->_Myfirst);

  00000	8b 41 04	 mov	 eax, DWORD PTR [ecx+4]
  00003	2b 01		 sub	 eax, DWORD PTR [ecx]
  00005	c1 f8 04	 sar	 eax, 4

; 880  : 		}

  00008	c3		 ret	 0
?size@?$vector@VioHashString@@V?$allocator@VioHashString@@@std@@@std@@QBEIXZ ENDP ; std::vector<ioHashString,std::allocator<ioHashString> >::size
_TEXT	ENDS
PUBLIC	?size@?$vector@HV?$allocator@H@std@@@std@@QBEIXZ ; std::vector<int,std::allocator<int> >::size
; Function compile flags: /Ogsp
;	COMDAT ?size@?$vector@HV?$allocator@H@std@@@std@@QBEIXZ
_TEXT	SEGMENT
?size@?$vector@HV?$allocator@H@std@@@std@@QBEIXZ PROC	; std::vector<int,std::allocator<int> >::size, COMDAT
; _this$ = ecx

; 879  : 		return (this->_Mylast - this->_Myfirst);

  00000	8b 41 04	 mov	 eax, DWORD PTR [ecx+4]
  00003	2b 01		 sub	 eax, DWORD PTR [ecx]
  00005	c1 f8 02	 sar	 eax, 2

; 880  : 		}

  00008	c3		 ret	 0
?size@?$vector@HV?$allocator@H@std@@@std@@QBEIXZ ENDP	; std::vector<int,std::allocator<int> >::size
_TEXT	ENDS
PUBLIC	?size@?$vector@PAVFriendNode@@V?$allocator@PAVFriendNode@@@std@@@std@@QBEIXZ ; std::vector<FriendNode *,std::allocator<FriendNode *> >::size
; Function compile flags: /Ogsp
;	COMDAT ?size@?$vector@PAVFriendNode@@V?$allocator@PAVFriendNode@@@std@@@std@@QBEIXZ
_TEXT	SEGMENT
?size@?$vector@PAVFriendNode@@V?$allocator@PAVFriendNode@@@std@@@std@@QBEIXZ PROC ; std::vector<FriendNode *,std::allocator<FriendNode *> >::size, COMDAT
; _this$ = ecx

; 879  : 		return (this->_Mylast - this->_Myfirst);

  00000	8b 41 04	 mov	 eax, DWORD PTR [ecx+4]
  00003	2b 01		 sub	 eax, DWORD PTR [ecx]
  00005	c1 f8 02	 sar	 eax, 2

; 880  : 		}

  00008	c3		 ret	 0
?size@?$vector@PAVFriendNode@@V?$allocator@PAVFriendNode@@@std@@@std@@QBEIXZ ENDP ; std::vector<FriendNode *,std::allocator<FriendNode *> >::size
_TEXT	ENDS
PUBLIC	??1?$_Vector_val@VioHashString@@V?$allocator@VioHashString@@@std@@@std@@QAE@XZ ; std::_Vector_val<ioHashString,std::allocator<ioHashString> >::~_Vector_val<ioHashString,std::allocator<ioHashString> >
; Function compile flags: /Ogsp
;	COMDAT ??1?$_Vector_val@VioHashString@@V?$allocator@VioHashString@@@std@@@std@@QAE@XZ
_TEXT	SEGMENT
??1?$_Vector_val@VioHashString@@V?$allocator@VioHashString@@@std@@@std@@QAE@XZ PROC ; std::_Vector_val<ioHashString,std::allocator<ioHashString> >::~_Vector_val<ioHashString,std::allocator<ioHashString> >, COMDAT
; _this$ = ecx

; 434  : 		}

  00000	c3		 ret	 0
??1?$_Vector_val@VioHashString@@V?$allocator@VioHashString@@@std@@@std@@QAE@XZ ENDP ; std::_Vector_val<ioHashString,std::allocator<ioHashString> >::~_Vector_val<ioHashString,std::allocator<ioHashString> >
_TEXT	ENDS
PUBLIC	??0?$allocator@VioHashString@@@std@@QAE@XZ	; std::allocator<ioHashString>::allocator<ioHashString>
; Function compile flags: /Ogsp
; File c:\program files (x86)\microsoft visual studio 10.0\vc\include\xmemory
;	COMDAT ??0?$allocator@VioHashString@@@std@@QAE@XZ
_TEXT	SEGMENT
??0?$allocator@VioHashString@@@std@@QAE@XZ PROC		; std::allocator<ioHashString>::allocator<ioHashString>, COMDAT
; _this$ = ecx

; 161  : 	_ALLOCATOR() _THROW0()

  00000	8b c1		 mov	 eax, ecx

; 162  : 		{	// construct default allocator (do nothing)
; 163  : 		}

  00002	c3		 ret	 0
??0?$allocator@VioHashString@@@std@@QAE@XZ ENDP		; std::allocator<ioHashString>::allocator<ioHashString>
_TEXT	ENDS
PUBLIC	??0?$allocator@VioHashString@@@std@@QAE@ABV01@@Z ; std::allocator<ioHashString>::allocator<ioHashString>
; Function compile flags: /Ogsp
;	COMDAT ??0?$allocator@VioHashString@@@std@@QAE@ABV01@@Z
_TEXT	SEGMENT
___formal$ = 8						; size = 4
??0?$allocator@VioHashString@@@std@@QAE@ABV01@@Z PROC	; std::allocator<ioHashString>::allocator<ioHashString>, COMDAT
; _this$ = ecx

; 165  : 	_ALLOCATOR(const _ALLOCATOR<_Ty>&) _THROW0()

  00000	8b c1		 mov	 eax, ecx

; 166  : 		{	// construct by copying (do nothing)
; 167  : 		}

  00002	c2 04 00	 ret	 4
??0?$allocator@VioHashString@@@std@@QAE@ABV01@@Z ENDP	; std::allocator<ioHashString>::allocator<ioHashString>
_TEXT	ENDS
PUBLIC	??_C@_0BD@OLBABOEK@vector?$DMT?$DO?5too?5long?$AA@ ; `string'
PUBLIC	?_Xlen@?$vector@VioHashString@@V?$allocator@VioHashString@@@std@@@std@@IBEXXZ ; std::vector<ioHashString,std::allocator<ioHashString> >::_Xlen
EXTRN	__imp_?_Xlength_error@std@@YAXPBD@Z:PROC
;	COMDAT ??_C@_0BD@OLBABOEK@vector?$DMT?$DO?5too?5long?$AA@
; File c:\program files (x86)\microsoft visual studio 10.0\vc\include\vector
CONST	SEGMENT
??_C@_0BD@OLBABOEK@vector?$DMT?$DO?5too?5long?$AA@ DB 'vector<T> too long'
	DB	00H						; `string'
; Function compile flags: /Ogsp
CONST	ENDS
;	COMDAT ?_Xlen@?$vector@VioHashString@@V?$allocator@VioHashString@@@std@@@std@@IBEXXZ
_TEXT	SEGMENT
?_Xlen@?$vector@VioHashString@@V?$allocator@VioHashString@@@std@@@std@@IBEXXZ PROC ; std::vector<ioHashString,std::allocator<ioHashString> >::_Xlen, COMDAT
; _this$ = ecx

; 1427 : 		_Xlength_error("vector<T> too long");

  00000	68 00 00 00 00	 push	 OFFSET ??_C@_0BD@OLBABOEK@vector?$DMT?$DO?5too?5long?$AA@
  00005	ff 15 00 00 00
	00		 call	 DWORD PTR __imp_?_Xlength_error@std@@YAXPBD@Z
$LN4@Xlen:
$LN3@Xlen:
  0000b	cc		 int	 3
?_Xlen@?$vector@VioHashString@@V?$allocator@VioHashString@@@std@@@std@@IBEXXZ ENDP ; std::vector<ioHashString,std::allocator<ioHashString> >::_Xlen
_TEXT	ENDS
PUBLIC	?deallocate@?$allocator@VioHashString@@@std@@QAEXPAVioHashString@@I@Z ; std::allocator<ioHashString>::deallocate
; Function compile flags: /Ogsp
; File c:\program files (x86)\microsoft visual studio 10.0\vc\include\xmemory
;	COMDAT ?deallocate@?$allocator@VioHashString@@@std@@QAEXPAVioHashString@@I@Z
_TEXT	SEGMENT
__Ptr$ = 8						; size = 4
___formal$ = 12						; size = 4
?deallocate@?$allocator@VioHashString@@@std@@QAEXPAVioHashString@@I@Z PROC ; std::allocator<ioHashString>::deallocate, COMDAT
; _this$ = ecx

; 181  : 		{	// deallocate object at _Ptr, ignore size

  00000	55		 push	 ebp
  00001	8b ec		 mov	 ebp, esp

; 182  : 		::operator delete(_Ptr);

  00003	ff 75 08	 push	 DWORD PTR __Ptr$[ebp]
  00006	e8 00 00 00 00	 call	 ??3@YAXPAX@Z		; operator delete
  0000b	59		 pop	 ecx

; 183  : 		}

  0000c	5d		 pop	 ebp
  0000d	c2 08 00	 ret	 8
?deallocate@?$allocator@VioHashString@@@std@@QAEXPAVioHashString@@I@Z ENDP ; std::allocator<ioHashString>::deallocate
_TEXT	ENDS
PUBLIC	??0?$_Vector_const_iterator@V?$_Vector_val@VioHashString@@V?$allocator@VioHashString@@@std@@@std@@@std@@QAE@PAVioHashString@@PBU_Container_base0@1@@Z ; std::_Vector_const_iterator<std::_Vector_val<ioHashString,std::allocator<ioHashString> > >::_Vector_const_iterator<std::_Vector_val<ioHashString,std::allocator<ioHashString> > >
; Function compile flags: /Ogsp
; File c:\program files (x86)\microsoft visual studio 10.0\vc\include\vector
;	COMDAT ??0?$_Vector_const_iterator@V?$_Vector_val@VioHashString@@V?$allocator@VioHashString@@@std@@@std@@@std@@QAE@PAVioHashString@@PBU_Container_base0@1@@Z
_TEXT	SEGMENT
__Parg$ = 8						; size = 4
__Pvector$ = 12						; size = 4
??0?$_Vector_const_iterator@V?$_Vector_val@VioHashString@@V?$allocator@VioHashString@@@std@@@std@@@std@@QAE@PAVioHashString@@PBU_Container_base0@1@@Z PROC ; std::_Vector_const_iterator<std::_Vector_val<ioHashString,std::allocator<ioHashString> > >::_Vector_const_iterator<std::_Vector_val<ioHashString,std::allocator<ioHashString> > >, COMDAT
; _this$ = ecx

; 45   : 		{	// construct with pointer _Parg

  00000	55		 push	 ebp
  00001	8b ec		 mov	 ebp, esp
  00003	8b c1		 mov	 eax, ecx
  00005	8b 4d 08	 mov	 ecx, DWORD PTR __Parg$[ebp]
  00008	89 08		 mov	 DWORD PTR [eax], ecx

; 46   : 		this->_Adopt(_Pvector);
; 47   : 		}

  0000a	5d		 pop	 ebp
  0000b	c2 08 00	 ret	 8
??0?$_Vector_const_iterator@V?$_Vector_val@VioHashString@@V?$allocator@VioHashString@@@std@@@std@@@std@@QAE@PAVioHashString@@PBU_Container_base0@1@@Z ENDP ; std::_Vector_const_iterator<std::_Vector_val<ioHashString,std::allocator<ioHashString> > >::_Vector_const_iterator<std::_Vector_val<ioHashString,std::allocator<ioHashString> > >
_TEXT	ENDS
PUBLIC	??0?$_Vector_iterator@V?$_Vector_val@VioHashString@@V?$allocator@VioHashString@@@std@@@std@@@std@@QAE@PAVioHashString@@PBU_Container_base0@1@@Z ; std::_Vector_iterator<std::_Vector_val<ioHashString,std::allocator<ioHashString> > >::_Vector_iterator<std::_Vector_val<ioHashString,std::allocator<ioHashString> > >
; Function compile flags: /Ogsp
;	COMDAT ??0?$_Vector_iterator@V?$_Vector_val@VioHashString@@V?$allocator@VioHashString@@@std@@@std@@@std@@QAE@PAVioHashString@@PBU_Container_base0@1@@Z
_TEXT	SEGMENT
__Parg$ = 8						; size = 4
__Pvector$ = 12						; size = 4
??0?$_Vector_iterator@V?$_Vector_val@VioHashString@@V?$allocator@VioHashString@@@std@@@std@@@std@@QAE@PAVioHashString@@PBU_Container_base0@1@@Z PROC ; std::_Vector_iterator<std::_Vector_val<ioHashString,std::allocator<ioHashString> > >::_Vector_iterator<std::_Vector_val<ioHashString,std::allocator<ioHashString> > >, COMDAT
; _this$ = ecx

; 304  : 		{	// construct with pointer _Parg

  00000	55		 push	 ebp
  00001	8b ec		 mov	 ebp, esp
  00003	8b c1		 mov	 eax, ecx
  00005	8b 4d 08	 mov	 ecx, DWORD PTR __Parg$[ebp]
  00008	89 08		 mov	 DWORD PTR [eax], ecx

; 305  : 		}

  0000a	5d		 pop	 ebp
  0000b	c2 08 00	 ret	 8
??0?$_Vector_iterator@V?$_Vector_val@VioHashString@@V?$allocator@VioHashString@@@std@@@std@@@std@@QAE@PAVioHashString@@PBU_Container_base0@1@@Z ENDP ; std::_Vector_iterator<std::_Vector_val<ioHashString,std::allocator<ioHashString> > >::_Vector_iterator<std::_Vector_val<ioHashString,std::allocator<ioHashString> > >
_TEXT	ENDS
PUBLIC	?max_size@?$allocator@VioHashString@@@std@@QBEIXZ ; std::allocator<ioHashString>::max_size
; Function compile flags: /Ogsp
; File c:\program files (x86)\microsoft visual studio 10.0\vc\include\xmemory
;	COMDAT ?max_size@?$allocator@VioHashString@@@std@@QBEIXZ
_TEXT	SEGMENT
?max_size@?$allocator@VioHashString@@@std@@QBEIXZ PROC	; std::allocator<ioHashString>::max_size, COMDAT
; _this$ = ecx

; 218  : 		_SIZT _Count = (_SIZT)(-1) / sizeof (_Ty);
; 219  : 		return (0 < _Count ? _Count : 1);

  00000	b8 ff ff ff 0f	 mov	 eax, 268435455		; 0fffffffH

; 220  : 		}

  00005	c3		 ret	 0
?max_size@?$allocator@VioHashString@@@std@@QBEIXZ ENDP	; std::allocator<ioHashString>::max_size
_TEXT	ENDS
PUBLIC	?_Compat@?$_Vector_const_iterator@V?$_Vector_val@VioHashString@@V?$allocator@VioHashString@@@std@@@std@@@std@@QBEXABV12@@Z ; std::_Vector_const_iterator<std::_Vector_val<ioHashString,std::allocator<ioHashString> > >::_Compat
; Function compile flags: /Ogsp
; File c:\program files (x86)\microsoft visual studio 10.0\vc\include\vector
;	COMDAT ?_Compat@?$_Vector_const_iterator@V?$_Vector_val@VioHashString@@V?$allocator@VioHashString@@@std@@@std@@@std@@QBEXABV12@@Z
_TEXT	SEGMENT
___formal$ = 8						; size = 4
?_Compat@?$_Vector_const_iterator@V?$_Vector_val@VioHashString@@V?$allocator@VioHashString@@@std@@@std@@@std@@QBEXABV12@@Z PROC ; std::_Vector_const_iterator<std::_Vector_val<ioHashString,std::allocator<ioHashString> > >::_Compat, COMDAT
; _this$ = ecx

; 253  : 		}

  00000	c2 04 00	 ret	 4
?_Compat@?$_Vector_const_iterator@V?$_Vector_val@VioHashString@@V?$allocator@VioHashString@@@std@@@std@@@std@@QBEXABV12@@Z ENDP ; std::_Vector_const_iterator<std::_Vector_val<ioHashString,std::allocator<ioHashString> > >::_Compat
_TEXT	ENDS
PUBLIC	__TI2?AVbad_alloc@std@@
PUBLIC	??$_Allocate@VioHashString@@@std@@YAPAVioHashString@@IPAV1@@Z ; std::_Allocate<ioHashString>
PUBLIC	__CTA2?AVbad_alloc@std@@
PUBLIC	__CT??_R0?AVbad_alloc@std@@@8??0bad_alloc@std@@QAE@ABV01@@Z12
PUBLIC	??0bad_alloc@std@@QAE@ABV01@@Z			; std::bad_alloc::bad_alloc
PUBLIC	__CT??_R0?AVexception@std@@@8??0exception@std@@QAE@ABV01@@Z12
EXTRN	??2@YAPAXI@Z:PROC				; operator new
EXTRN	__CxxThrowException@8:PROC
EXTRN	??0exception@std@@QAE@ABV01@@Z:PROC		; std::exception::exception
;	COMDAT __CT??_R0?AVexception@std@@@8??0exception@std@@QAE@ABV01@@Z12
; File c:\program files (x86)\microsoft visual studio 10.0\vc\include\exception
xdata$x	SEGMENT
__CT??_R0?AVexception@std@@@8??0exception@std@@QAE@ABV01@@Z12 DD 00H
	DD	FLAT:??_R0?AVexception@std@@@8
	DD	00H
	DD	0ffffffffH
	ORG $+4
	DD	0cH
	DD	FLAT:??0exception@std@@QAE@ABV01@@Z
xdata$x	ENDS
;	COMDAT __CT??_R0?AVbad_alloc@std@@@8??0bad_alloc@std@@QAE@ABV01@@Z12
xdata$x	SEGMENT
__CT??_R0?AVbad_alloc@std@@@8??0bad_alloc@std@@QAE@ABV01@@Z12 DD 00H
	DD	FLAT:??_R0?AVbad_alloc@std@@@8
	DD	00H
	DD	0ffffffffH
	ORG $+4
	DD	0cH
	DD	FLAT:??0bad_alloc@std@@QAE@ABV01@@Z
xdata$x	ENDS
;	COMDAT __CTA2?AVbad_alloc@std@@
xdata$x	SEGMENT
__CTA2?AVbad_alloc@std@@ DD 02H
	DD	FLAT:__CT??_R0?AVbad_alloc@std@@@8??0bad_alloc@std@@QAE@ABV01@@Z12
	DD	FLAT:__CT??_R0?AVexception@std@@@8??0exception@std@@QAE@ABV01@@Z12
xdata$x	ENDS
;	COMDAT __TI2?AVbad_alloc@std@@
xdata$x	SEGMENT
__TI2?AVbad_alloc@std@@ DD 00H
	DD	FLAT:??1bad_alloc@std@@UAE@XZ
	DD	00H
	DD	FLAT:__CTA2?AVbad_alloc@std@@
; Function compile flags: /Ogsp
; File c:\program files (x86)\microsoft visual studio 10.0\vc\include\xmemory
xdata$x	ENDS
;	COMDAT ??$_Allocate@VioHashString@@@std@@YAPAVioHashString@@IPAV1@@Z
_TEXT	SEGMENT
$T513190 = -12						; size = 12
$T513195 = 8						; size = 4
__Count$ = 8						; size = 4
___formal$ = 12						; size = 4
??$_Allocate@VioHashString@@@std@@YAPAVioHashString@@IPAV1@@Z PROC ; std::_Allocate<ioHashString>, COMDAT

; 30   : 	{	// allocate storage for _Count elements of type _Ty

  00000	55		 push	 ebp
  00001	8b ec		 mov	 ebp, esp

; 31   : 	void *_Ptr = 0;
; 32   : 
; 33   : 	if (_Count <= 0)

  00003	8b 4d 08	 mov	 ecx, DWORD PTR __Count$[ebp]
  00006	83 ec 0c	 sub	 esp, 12			; 0000000cH
  00009	33 c0		 xor	 eax, eax
  0000b	85 c9		 test	 ecx, ecx

; 34   : 		_Count = 0;
; 35   : 	else if (((_SIZT)(-1) / sizeof (_Ty) < _Count)

  0000d	74 3c		 je	 SHORT $LN5@Allocate

; 36   : 		|| (_Ptr = ::operator new(_Count * sizeof (_Ty))) == 0)

  0000f	81 f9 ff ff ff
	0f		 cmp	 ecx, 268435455		; 0fffffffH
  00015	77 0e		 ja	 SHORT $LN1@Allocate
  00017	c1 e1 04	 shl	 ecx, 4
  0001a	51		 push	 ecx
  0001b	e8 00 00 00 00	 call	 ??2@YAPAXI@Z		; operator new
  00020	59		 pop	 ecx
  00021	85 c0		 test	 eax, eax

; 38   : 
; 39   : 	return ((_Ty _FARQ *)_Ptr);

  00023	75 26		 jne	 SHORT $LN5@Allocate
$LN1@Allocate:

; 37   : 		_THROW_NCEE(bad_alloc, 0);

  00025	83 65 08 00	 and	 DWORD PTR $T513195[ebp], 0
  00029	8d 45 08	 lea	 eax, DWORD PTR $T513195[ebp]
  0002c	50		 push	 eax
  0002d	8d 4d f4	 lea	 ecx, DWORD PTR $T513190[ebp]
  00030	ff 15 00 00 00
	00		 call	 DWORD PTR __imp_??0exception@std@@QAE@ABQBD@Z
  00036	68 00 00 00 00	 push	 OFFSET __TI2?AVbad_alloc@std@@
  0003b	8d 45 f4	 lea	 eax, DWORD PTR $T513190[ebp]
  0003e	50		 push	 eax
  0003f	c7 45 f4 00 00
	00 00		 mov	 DWORD PTR $T513190[ebp], OFFSET ??_7bad_alloc@std@@6B@
  00046	e8 00 00 00 00	 call	 __CxxThrowException@8
$LN10@Allocate:
$LN5@Allocate:

; 40   : 	}

  0004b	c9		 leave
  0004c	c3		 ret	 0
$LN9@Allocate:
??$_Allocate@VioHashString@@@std@@YAPAVioHashString@@IPAV1@@Z ENDP ; std::_Allocate<ioHashString>
_TEXT	ENDS
EXTRN	__imp_??0exception@std@@QAE@ABV01@@Z:PROC
; Function compile flags: /Ogsp
;	COMDAT ??0bad_alloc@std@@QAE@ABV01@@Z
_TEXT	SEGMENT
___that$ = 8						; size = 4
??0bad_alloc@std@@QAE@ABV01@@Z PROC			; std::bad_alloc::bad_alloc, COMDAT
; _this$ = ecx
  00000	55		 push	 ebp
  00001	8b ec		 mov	 ebp, esp
  00003	56		 push	 esi
  00004	ff 75 08	 push	 DWORD PTR ___that$[ebp]
  00007	8b f1		 mov	 esi, ecx
  00009	ff 15 00 00 00
	00		 call	 DWORD PTR __imp_??0exception@std@@QAE@ABV01@@Z
  0000f	c7 06 00 00 00
	00		 mov	 DWORD PTR [esi], OFFSET ??_7bad_alloc@std@@6B@
  00015	8b c6		 mov	 eax, esi
  00017	5e		 pop	 esi
  00018	5d		 pop	 ebp
  00019	c2 04 00	 ret	 4
??0bad_alloc@std@@QAE@ABV01@@Z ENDP			; std::bad_alloc::bad_alloc
_TEXT	ENDS
PUBLIC	??$forward@ABVioHashString@@@std@@YAABVioHashString@@ABV1@@Z ; std::forward<ioHashString const &>
; Function compile flags: /Ogsp
; File c:\program files (x86)\microsoft visual studio 10.0\vc\include\utility
;	COMDAT ??$forward@ABVioHashString@@@std@@YAABVioHashString@@ABV1@@Z
_TEXT	SEGMENT
__Arg$ = 8						; size = 4
??$forward@ABVioHashString@@@std@@YAABVioHashString@@ABV1@@Z PROC ; std::forward<ioHashString const &>, COMDAT

; 78   : 	{	// forward _Arg, given explicitly specified type parameter

  00000	55		 push	 ebp
  00001	8b ec		 mov	 ebp, esp

; 79   : 	return ((_Ty&&)_Arg);

  00003	8b 45 08	 mov	 eax, DWORD PTR __Arg$[ebp]

; 80   : 	}

  00006	5d		 pop	 ebp
  00007	c3		 ret	 0
??$forward@ABVioHashString@@@std@@YAABVioHashString@@ABV1@@Z ENDP ; std::forward<ioHashString const &>
_TEXT	ENDS
PUBLIC	??$forward@AAVioHashString@@@std@@YAAAVioHashString@@AAV1@@Z ; std::forward<ioHashString &>
; Function compile flags: /Ogsp
;	COMDAT ??$forward@AAVioHashString@@@std@@YAAAVioHashString@@AAV1@@Z
_TEXT	SEGMENT
__Arg$ = 8						; size = 4
??$forward@AAVioHashString@@@std@@YAAAVioHashString@@AAV1@@Z PROC ; std::forward<ioHashString &>, COMDAT

; 78   : 	{	// forward _Arg, given explicitly specified type parameter

  00000	55		 push	 ebp
  00001	8b ec		 mov	 ebp, esp

; 79   : 	return ((_Ty&&)_Arg);

  00003	8b 45 08	 mov	 eax, DWORD PTR __Arg$[ebp]

; 80   : 	}

  00006	5d		 pop	 ebp
  00007	c3		 ret	 0
??$forward@AAVioHashString@@@std@@YAAAVioHashString@@AAV1@@Z ENDP ; std::forward<ioHashString &>
_TEXT	ENDS
PUBLIC	??$_Ptr_cat@VioHashString@@V1@@std@@YA?AU_Nonscalar_ptr_iterator_tag@0@PAVioHashString@@0@Z ; std::_Ptr_cat<ioHashString,ioHashString>
; Function compile flags: /Ogsp
; File c:\program files (x86)\microsoft visual studio 10.0\vc\include\xutility
;	COMDAT ??$_Ptr_cat@VioHashString@@V1@@std@@YA?AU_Nonscalar_ptr_iterator_tag@0@PAVioHashString@@0@Z
_TEXT	SEGMENT
__Cat$ = -1						; size = 1
___formal$ = 8						; size = 4
___formal$ = 12						; size = 4
??$_Ptr_cat@VioHashString@@V1@@std@@YA?AU_Nonscalar_ptr_iterator_tag@0@PAVioHashString@@0@Z PROC ; std::_Ptr_cat<ioHashString,ioHashString>, COMDAT

; 516  : 	{	// return pointer category from pointers

  00000	55		 push	 ebp
  00001	8b ec		 mov	 ebp, esp
  00003	51		 push	 ecx

; 517  : 	typename _Ptr_cat_helper<_Elem1, _Elem2>::_Type _Cat;
; 518  : 	return (_Cat);

  00004	8a 45 ff	 mov	 al, BYTE PTR __Cat$[ebp]

; 519  : 	}

  00007	c9		 leave
  00008	c3		 ret	 0
??$_Ptr_cat@VioHashString@@V1@@std@@YA?AU_Nonscalar_ptr_iterator_tag@0@PAVioHashString@@0@Z ENDP ; std::_Ptr_cat<ioHashString,ioHashString>
_TEXT	ENDS
PUBLIC	??$move@AAVioHashString@@@std@@YA$$QAVioHashString@@AAV1@@Z ; std::move<ioHashString &>
; Function compile flags: /Ogsp
; File c:\program files (x86)\microsoft visual studio 10.0\vc\include\utility
;	COMDAT ??$move@AAVioHashString@@@std@@YA$$QAVioHashString@@AAV1@@Z
_TEXT	SEGMENT
__Arg$ = 8						; size = 4
??$move@AAVioHashString@@@std@@YA$$QAVioHashString@@AAV1@@Z PROC ; std::move<ioHashString &>, COMDAT

; 86   : 	{	// forward _Arg as movable

  00000	55		 push	 ebp
  00001	8b ec		 mov	 ebp, esp

; 87   : 	return ((typename tr1::_Remove_reference<_Ty>::_Type&&)_Arg);

  00003	8b 45 08	 mov	 eax, DWORD PTR __Arg$[ebp]

; 88   : 	}

  00006	5d		 pop	 ebp
  00007	c3		 ret	 0
??$move@AAVioHashString@@@std@@YA$$QAVioHashString@@AAV1@@Z ENDP ; std::move<ioHashString &>
_TEXT	ENDS
PUBLIC	??_GioHashString@@QAEPAXI@Z			; ioHashString::`scalar deleting destructor'
; Function compile flags: /Ogsp
;	COMDAT ??_GioHashString@@QAEPAXI@Z
_TEXT	SEGMENT
___flags$ = 8						; size = 4
??_GioHashString@@QAEPAXI@Z PROC			; ioHashString::`scalar deleting destructor', COMDAT
; _this$ = ecx
  00000	55		 push	 ebp
  00001	8b ec		 mov	 ebp, esp
  00003	56		 push	 esi
  00004	8b f1		 mov	 esi, ecx
  00006	ff 15 00 00 00
	00		 call	 DWORD PTR __imp_??1ioHashString@@QAE@XZ
  0000c	f6 45 08 01	 test	 BYTE PTR ___flags$[ebp], 1
  00010	74 07		 je	 SHORT $LN1@scalar@2
  00012	56		 push	 esi
  00013	e8 00 00 00 00	 call	 ??3@YAXPAX@Z		; operator delete
  00018	59		 pop	 ecx
$LN1@scalar@2:
  00019	8b c6		 mov	 eax, esi
  0001b	5e		 pop	 esi
  0001c	5d		 pop	 ebp
  0001d	c2 04 00	 ret	 4
??_GioHashString@@QAEPAXI@Z ENDP			; ioHashString::`scalar deleting destructor'
_TEXT	ENDS
PUBLIC	??$_Construct@VioHashString@@ABV1@@std@@YAXPAVioHashString@@ABV1@@Z ; std::_Construct<ioHashString,ioHashString const &>
EXTRN	__imp_??0ioHashString@@QAE@ABV0@@Z:PROC
;	COMDAT xdata$x
xdata$x	SEGMENT
__unwindtable$??$_Construct@VioHashString@@ABV1@@std@@YAXPAVioHashString@@ABV1@@Z DD 0ffffffffH
	DD	FLAT:__unwindfunclet$??$_Construct@VioHashString@@ABV1@@std@@YAXPAVioHashString@@ABV1@@Z$0
__ehfuncinfo$??$_Construct@VioHashString@@ABV1@@std@@YAXPAVioHashString@@ABV1@@Z DD 019930522H
	DD	01H
	DD	FLAT:__unwindtable$??$_Construct@VioHashString@@ABV1@@std@@YAXPAVioHashString@@ABV1@@Z
	DD	2 DUP(00H)
	DD	2 DUP(00H)
	DD	00H
	DD	01H
; Function compile flags: /Ogsp
; File c:\program files (x86)\microsoft visual studio 10.0\vc\include\xmemory
xdata$x	ENDS
;	COMDAT ??$_Construct@VioHashString@@ABV1@@std@@YAXPAVioHashString@@ABV1@@Z
_TEXT	SEGMENT
$T513214 = -16						; size = 4
__$EHRec$ = -12						; size = 12
__Vptr$ = 8						; size = 4
__Ptr$ = 8						; size = 4
__Val$ = 12						; size = 4
??$_Construct@VioHashString@@ABV1@@std@@YAXPAVioHashString@@ABV1@@Z PROC ; std::_Construct<ioHashString,ioHashString const &>, COMDAT

; 46   : 	{	// construct object at _Ptr with value _Val

  00000	6a 04		 push	 4
  00002	b8 00 00 00 00	 mov	 eax, __ehhandler$??$_Construct@VioHashString@@ABV1@@std@@YAXPAVioHashString@@ABV1@@Z
  00007	e8 00 00 00 00	 call	 __EH_prolog3

; 47   : 	void _FARQ *_Vptr = _Ptr;

  0000c	8b 4d 08	 mov	 ecx, DWORD PTR __Ptr$[ebp]
  0000f	89 4d 08	 mov	 DWORD PTR __Vptr$[ebp], ecx

; 48   : 	::new (_Vptr) _Ty1(_STD forward<_Ty2>(_Val));

  00012	89 4d f0	 mov	 DWORD PTR $T513214[ebp], ecx
  00015	83 65 fc 00	 and	 DWORD PTR __$EHRec$[ebp+8], 0
  00019	85 c9		 test	 ecx, ecx
  0001b	74 09		 je	 SHORT $LN3@Construct
  0001d	ff 75 0c	 push	 DWORD PTR __Val$[ebp]
  00020	ff 15 00 00 00
	00		 call	 DWORD PTR __imp_??0ioHashString@@QAE@ABV0@@Z
$LN3@Construct:

; 49   : 	}

  00026	e8 00 00 00 00	 call	 __EH_epilog3
  0002b	c3		 ret	 0
_TEXT	ENDS
;	COMDAT text$x
text$x	SEGMENT
__unwindfunclet$??$_Construct@VioHashString@@ABV1@@std@@YAXPAVioHashString@@ABV1@@Z$0:
  00000	ff 75 08	 push	 DWORD PTR __Vptr$[ebp]
  00003	ff 75 f0	 push	 DWORD PTR $T513214[ebp]
  00006	e8 00 00 00 00	 call	 ??3@YAXPAX0@Z		; operator delete
  0000b	59		 pop	 ecx
  0000c	59		 pop	 ecx
  0000d	c3		 ret	 0
__ehhandler$??$_Construct@VioHashString@@ABV1@@std@@YAXPAVioHashString@@ABV1@@Z:
  0000e	8b 54 24 08	 mov	 edx, DWORD PTR [esp+8]
  00012	8d 42 0c	 lea	 eax, DWORD PTR [edx+12]
  00015	8b 4a ec	 mov	 ecx, DWORD PTR [edx-20]
  00018	33 c8		 xor	 ecx, eax
  0001a	e8 00 00 00 00	 call	 @__security_check_cookie@4
  0001f	b8 00 00 00 00	 mov	 eax, OFFSET __ehfuncinfo$??$_Construct@VioHashString@@ABV1@@std@@YAXPAVioHashString@@ABV1@@Z
  00024	e9 00 00 00 00	 jmp	 ___CxxFrameHandler3
text$x	ENDS
??$_Construct@VioHashString@@ABV1@@std@@YAXPAVioHashString@@ABV1@@Z ENDP ; std::_Construct<ioHashString,ioHashString const &>
; Function compile flags: /Ogsp
;	COMDAT ??_GSendPresentIdWnd@@UAEPAXI@Z
_TEXT	SEGMENT
___flags$ = 8						; size = 4
??_GSendPresentIdWnd@@UAEPAXI@Z PROC			; SendPresentIdWnd::`scalar deleting destructor', COMDAT
; _this$ = ecx
  00000	55		 push	 ebp
  00001	8b ec		 mov	 ebp, esp
  00003	56		 push	 esi
  00004	8b f1		 mov	 esi, ecx
  00006	e8 00 00 00 00	 call	 ??1SendPresentIdWnd@@UAE@XZ ; SendPresentIdWnd::~SendPresentIdWnd
  0000b	f6 45 08 01	 test	 BYTE PTR ___flags$[ebp], 1
  0000f	74 07		 je	 SHORT $LN1@scalar@3
  00011	56		 push	 esi
  00012	e8 00 00 00 00	 call	 ??3@YAXPAX@Z		; operator delete
  00017	59		 pop	 ecx
$LN1@scalar@3:
  00018	8b c6		 mov	 eax, esi
  0001a	5e		 pop	 esi
  0001b	5d		 pop	 ebp
  0001c	c2 04 00	 ret	 4
??_GSendPresentIdWnd@@UAEPAXI@Z ENDP			; SendPresentIdWnd::`scalar deleting destructor'
_TEXT	ENDS
PUBLIC	__$ArrayPad$
PUBLIC	?OnProcess@SendPresentFriendListWnd@@MAEXM@Z	; SendPresentFriendListWnd::OnProcess
EXTRN	__imp_?HideWnd@ioWnd@@QAEXXZ:PROC
EXTRN	__imp_?IsLBtnUp@ioMouse@@QBE_NXZ:PROC
EXTRN	__imp_??4ioHashString@@QAEAAV0@ABV0@@Z:PROC
EXTRN	__imp__PtInRect@12:PROC
EXTRN	__imp_?GetMousePos@ioMouse@@QBEABUtagPOINT@@XZ:PROC
EXTRN	__imp_?GetParent@ioWnd@@QAEPAV1@XZ:PROC
EXTRN	___security_cookie:DWORD
; Function compile flags: /Ogsp
; File d:\lost saga for developer\youtube\tutorial\source\src\lsclient\gui\sendpresentwnd.cpp
;	COMDAT ?OnProcess@SendPresentFriendListWnd@@MAEXM@Z
_TEXT	SEGMENT
_iYPos$ = -40						; size = 4
_iXPos$ = -36						; size = 4
_iCutWidth$ = -32					; size = 4
tv383 = -28						; size = 4
_iListPos$511148 = -28					; size = 4
_iIndex$511143 = -24					; size = 4
_rcNameRect$511150 = -20				; size = 16
__$ArrayPad$ = -4					; size = 4
_fTimePerSec$ = 8					; size = 4
?OnProcess@SendPresentFriendListWnd@@MAEXM@Z PROC	; SendPresentFriendListWnd::OnProcess, COMDAT
; _this$ = ecx

; 330  : {

  00000	55		 push	 ebp
  00001	8b ec		 mov	 ebp, esp
  00003	83 ec 28	 sub	 esp, 40			; 00000028H
  00006	a1 00 00 00 00	 mov	 eax, DWORD PTR ___security_cookie
  0000b	33 c5		 xor	 eax, ebp
  0000d	89 45 fc	 mov	 DWORD PTR __$ArrayPad$[ebp], eax
  00010	56		 push	 esi
  00011	8b f1		 mov	 esi, ecx

; 331  : 	if( !IsShow() )	return;

  00013	ff 15 00 00 00
	00		 call	 DWORD PTR __imp_?IsShow@ioWnd@@QBE_NXZ
  00019	84 c0		 test	 al, al
  0001b	0f 84 ce 01 00
	00		 je	 $LN2@OnProcess

; 332  : 
; 333  : 	m_szOverListUser.Clear();

  00021	53		 push	 ebx
  00022	57		 push	 edi
  00023	8b 3d 00 00 00
	00		 mov	 edi, DWORD PTR __imp_?Clear@ioHashString@@QAEXXZ
  00029	8d 8e 9c 01 00
	00		 lea	 ecx, DWORD PTR [esi+412]
  0002f	ff d7		 call	 edi

; 334  : 	m_szPushListUser.Clear();

  00031	8d 8e ac 01 00
	00		 lea	 ecx, DWORD PTR [esi+428]
  00037	ff d7		 call	 edi

; 335  : 
; 336  : 	//     
; 337  : 	ioWnd *pPreClick = g_GUIMgr.GetPreClickWnd();

  00039	e8 00 00 00 00	 call	 ?GetSingleton@ioSP2GUIManager@@SAAAV1@XZ ; ioSP2GUIManager::GetSingleton
  0003e	8b 58 14	 mov	 ebx, DWORD PTR [eax+20]

; 338  : 	if( pPreClick && GetParent() )

  00041	85 db		 test	 ebx, ebx
  00043	74 50		 je	 SHORT $LN33@OnProcess
  00045	8b ce		 mov	 ecx, esi
  00047	ff 15 00 00 00
	00		 call	 DWORD PTR __imp_?GetParent@ioWnd@@QAEPAV1@XZ
  0004d	85 c0		 test	 eax, eax
  0004f	74 44		 je	 SHORT $LN33@OnProcess

; 339  : 	{
; 340  : 		if( pPreClick != this && 
; 341  : 			pPreClick != GetParent()->FindChildWnd( SendPresentIdWnd::ID_FRIEND_BTN ) &&
; 342  : 			pPreClick != FindChildWnd( ID_VERT_SCROLL ) &&
; 343  : 			pPreClick->GetParent() != FindChildWnd( ID_VERT_SCROLL ) )

  00051	3b de		 cmp	 ebx, esi
  00053	74 40		 je	 SHORT $LN33@OnProcess
  00055	6a 04		 push	 4
  00057	8b ce		 mov	 ecx, esi
  00059	ff 15 00 00 00
	00		 call	 DWORD PTR __imp_?GetParent@ioWnd@@QAEPAV1@XZ
  0005f	8b 3d 00 00 00
	00		 mov	 edi, DWORD PTR __imp_?FindChildWnd@ioWnd@@QAEPAV1@K@Z
  00065	8b c8		 mov	 ecx, eax
  00067	ff d7		 call	 edi
  00069	3b d8		 cmp	 ebx, eax
  0006b	74 28		 je	 SHORT $LN33@OnProcess
  0006d	68 e8 03 00 00	 push	 1000			; 000003e8H
  00072	8b ce		 mov	 ecx, esi
  00074	ff d7		 call	 edi
  00076	3b d8		 cmp	 ebx, eax
  00078	74 1b		 je	 SHORT $LN33@OnProcess
  0007a	68 e8 03 00 00	 push	 1000			; 000003e8H
  0007f	8b ce		 mov	 ecx, esi
  00081	ff d7		 call	 edi
  00083	8b cb		 mov	 ecx, ebx
  00085	8b f8		 mov	 edi, eax
  00087	ff 15 00 00 00
	00		 call	 DWORD PTR __imp_?GetParent@ioWnd@@QAEPAV1@XZ
  0008d	3b c7		 cmp	 eax, edi

; 344  : 		{
; 345  : 			HideWnd();
; 346  : 			return;

  0008f	0f 85 50 01 00
	00		 jne	 $LN1@OnProcess
$LN33@OnProcess:

; 347  : 		}
; 348  : 	}
; 349  : 
; 350  : 	int iXPos, iYPos;
; 351  : 	iXPos = GetDerivedPosX();

  00095	8b ce		 mov	 ecx, esi
  00097	ff 15 00 00 00
	00		 call	 DWORD PTR __imp_?GetDerivedPosX@ioWnd@@QBEHXZ

; 352  : 	iYPos = GetDerivedPosY();

  0009d	8b ce		 mov	 ecx, esi
  0009f	89 45 dc	 mov	 DWORD PTR _iXPos$[ebp], eax
  000a2	ff 15 00 00 00
	00		 call	 DWORD PTR __imp_?GetDerivedPosY@ioWnd@@QBEHXZ

; 353  : 
; 354  : 	int iCutWidth = 0;

  000a8	83 65 e0 00	 and	 DWORD PTR _iCutWidth$[ebp], 0
  000ac	89 45 d8	 mov	 DWORD PTR _iYPos$[ebp], eax

; 355  : 	if( (int)m_FriendUserList.size() > MAX_PAGE_LIST )

  000af	8b 86 90 01 00
	00		 mov	 eax, DWORD PTR [esi+400]
  000b5	2b 86 8c 01 00
	00		 sub	 eax, DWORD PTR [esi+396]
  000bb	83 e0 f0	 and	 eax, -16		; fffffff0H
  000be	83 f8 50	 cmp	 eax, 80			; 00000050H
  000c1	7e 09		 jle	 SHORT $LN9@OnProcess

; 356  : 		iCutWidth = m_iCutWidth;

  000c3	8b 86 80 01 00
	00		 mov	 eax, DWORD PTR [esi+384]
  000c9	89 45 e0	 mov	 DWORD PTR _iCutWidth$[ebp], eax
$LN9@OnProcess:

; 357  : 
; 358  : 	ioLSMouse *pMouse = g_App.GetMouse();

  000cc	e8 00 00 00 00	 call	 ?GetSingleton@ioApplication@@SAAAV1@XZ ; ioApplication::GetSingleton

; 359  : 	int iListSize = m_FriendUserList.size();

  000d1	8b be 90 01 00
	00		 mov	 edi, DWORD PTR [esi+400]
  000d7	2b be 8c 01 00
	00		 sub	 edi, DWORD PTR [esi+396]

; 360  : 	for(int iIndex = 0 ; iIndex < iListSize ; ++iIndex )

  000dd	83 65 e8 00	 and	 DWORD PTR _iIndex$511143[ebp], 0
  000e1	c1 ff 04	 sar	 edi, 4
  000e4	8b d8		 mov	 ebx, eax
  000e6	85 ff		 test	 edi, edi
  000e8	0f 8e ff 00 00
	00		 jle	 $LN34@OnProcess
$LL32@OnProcess:

; 361  : 	{
; 362  : 		if( iIndex >= MAX_PAGE_LIST )

  000ee	83 7d e8 05	 cmp	 DWORD PTR _iIndex$511143[ebp], 5
  000f2	0f 8d f5 00 00
	00		 jge	 $LN34@OnProcess

; 363  : 			break;
; 364  : 
; 365  : 		int iListPos = m_iCurPos + iIndex;

  000f8	8b 86 bc 01 00
	00		 mov	 eax, DWORD PTR [esi+444]
  000fe	03 45 e8	 add	 eax, DWORD PTR _iIndex$511143[ebp]
  00101	89 45 e4	 mov	 DWORD PTR _iListPos$511148[ebp], eax

; 366  : 		if( iListPos >= iListSize )

  00104	3b c7		 cmp	 eax, edi
  00106	0f 8d e1 00 00
	00		 jge	 $LN34@OnProcess

; 367  : 			break;
; 368  : 
; 369  : 		RECT rcNameRect;
; 370  : 		rcNameRect.left = iXPos + m_iListXPos;

  0010c	8b 86 74 01 00
	00		 mov	 eax, DWORD PTR [esi+372]
  00112	03 45 dc	 add	 eax, DWORD PTR _iXPos$[ebp]

; 371  : 		rcNameRect.top  = iYPos + m_iListYPos + iIndex * m_iHeightGap;
; 372  : 		rcNameRect.right  = rcNameRect.left + ( ( GetWidth() - m_iAddWidth ) - iCutWidth );

  00115	8b ce		 mov	 ecx, esi
  00117	89 45 ec	 mov	 DWORD PTR _rcNameRect$511150[ebp], eax
  0011a	8b 86 7c 01 00
	00		 mov	 eax, DWORD PTR [esi+380]
  00120	0f af 45 e8	 imul	 eax, DWORD PTR _iIndex$511143[ebp]
  00124	03 86 78 01 00
	00		 add	 eax, DWORD PTR [esi+376]
  0012a	03 45 d8	 add	 eax, DWORD PTR _iYPos$[ebp]
  0012d	89 45 f0	 mov	 DWORD PTR _rcNameRect$511150[ebp+4], eax
  00130	ff 15 00 00 00
	00		 call	 DWORD PTR __imp_?GetWidth@ioWnd@@QBEHXZ
  00136	8b 4d ec	 mov	 ecx, DWORD PTR _rcNameRect$511150[ebp]
  00139	2b 8e 6c 01 00
	00		 sub	 ecx, DWORD PTR [esi+364]
  0013f	2b 4d e0	 sub	 ecx, DWORD PTR _iCutWidth$[ebp]
  00142	03 c1		 add	 eax, ecx
  00144	89 45 f4	 mov	 DWORD PTR _rcNameRect$511150[ebp+8], eax

; 373  : 		rcNameRect.bottom = rcNameRect.top + m_iHeightGap;

  00147	8b 86 7c 01 00
	00		 mov	 eax, DWORD PTR [esi+380]
  0014d	03 45 f0	 add	 eax, DWORD PTR _rcNameRect$511150[ebp+4]

; 374  : 
; 375  : 		if( ::PtInRect( &rcNameRect, pMouse->GetMousePos() ) )

  00150	8d 8b 90 00 00
	00		 lea	 ecx, DWORD PTR [ebx+144]
  00156	89 45 f8	 mov	 DWORD PTR _rcNameRect$511150[ebp+12], eax
  00159	ff 15 00 00 00
	00		 call	 DWORD PTR __imp_?GetMousePos@ioMouse@@QBEABUtagPOINT@@XZ
  0015f	ff 70 04	 push	 DWORD PTR [eax+4]
  00162	ff 30		 push	 DWORD PTR [eax]
  00164	8d 45 ec	 lea	 eax, DWORD PTR _rcNameRect$511150[ebp]
  00167	50		 push	 eax
  00168	ff 15 00 00 00
	00		 call	 DWORD PTR __imp__PtInRect@12
  0016e	85 c0		 test	 eax, eax
  00170	75 0e		 jne	 SHORT $LN30@OnProcess

; 360  : 	for(int iIndex = 0 ; iIndex < iListSize ; ++iIndex )

  00172	ff 45 e8	 inc	 DWORD PTR _iIndex$511143[ebp]
  00175	39 7d e8	 cmp	 DWORD PTR _iIndex$511143[ebp], edi
  00178	0f 8c 70 ff ff
	ff		 jl	 $LL32@OnProcess

; 374  : 
; 375  : 		if( ::PtInRect( &rcNameRect, pMouse->GetMousePos() ) )

  0017e	eb 6d		 jmp	 SHORT $LN34@OnProcess
$LN30@OnProcess:

; 376  : 		{
; 377  : 			m_szOverListUser  = m_FriendUserList[iListPos];

  00180	8b 45 e4	 mov	 eax, DWORD PTR _iListPos$511148[ebp]
  00183	8b 8e 8c 01 00
	00		 mov	 ecx, DWORD PTR [esi+396]
  00189	8b 3d 00 00 00
	00		 mov	 edi, DWORD PTR __imp_??4ioHashString@@QAEAAV0@ABV0@@Z
  0018f	c1 e0 04	 shl	 eax, 4
  00192	03 c8		 add	 ecx, eax
  00194	51		 push	 ecx
  00195	8d 8e 9c 01 00
	00		 lea	 ecx, DWORD PTR [esi+412]
  0019b	89 45 e4	 mov	 DWORD PTR tv383[ebp], eax
  0019e	ff d7		 call	 edi

; 378  : 			if( pMouse->IsLBtnUp() )

  001a0	8d 8b 90 00 00
	00		 lea	 ecx, DWORD PTR [ebx+144]
  001a6	ff 15 00 00 00
	00		 call	 DWORD PTR __imp_?IsLBtnUp@ioMouse@@QBE_NXZ
  001ac	84 c0		 test	 al, al
  001ae	74 3d		 je	 SHORT $LN34@OnProcess

; 379  : 			{
; 380  : 				m_szPushListUser = m_FriendUserList[iListPos];

  001b0	8b 86 8c 01 00
	00		 mov	 eax, DWORD PTR [esi+396]
  001b6	03 45 e4	 add	 eax, DWORD PTR tv383[ebp]
  001b9	8d 8e ac 01 00
	00		 lea	 ecx, DWORD PTR [esi+428]
  001bf	50		 push	 eax
  001c0	ff d7		 call	 edi

; 381  : 				if( GetParent() )

  001c2	8b ce		 mov	 ecx, esi
  001c4	ff 15 00 00 00
	00		 call	 DWORD PTR __imp_?GetParent@ioWnd@@QAEPAV1@XZ
  001ca	85 c0		 test	 eax, eax
  001cc	74 17		 je	 SHORT $LN1@OnProcess

; 382  : 					GetParent()->iwm_command( this, IOBN_BTNUP, 0 );

  001ce	8b ce		 mov	 ecx, esi
  001d0	ff 15 00 00 00
	00		 call	 DWORD PTR __imp_?GetParent@ioWnd@@QAEPAV1@XZ
  001d6	8b 10		 mov	 edx, DWORD PTR [eax]
  001d8	6a 00		 push	 0
  001da	6a 11		 push	 17			; 00000011H
  001dc	56		 push	 esi
  001dd	8b c8		 mov	 ecx, eax
  001df	ff 92 8c 00 00
	00		 call	 DWORD PTR [edx+140]
$LN1@OnProcess:

; 383  : 				HideWnd();

  001e5	8b ce		 mov	 ecx, esi
  001e7	ff 15 00 00 00
	00		 call	 DWORD PTR __imp_?HideWnd@ioWnd@@QAEXXZ
$LN34@OnProcess:
  001ed	5f		 pop	 edi
  001ee	5b		 pop	 ebx
$LN2@OnProcess:

; 384  : 			}
; 385  : 			break;
; 386  : 		}
; 387  : 	}
; 388  : }

  001ef	8b 4d fc	 mov	 ecx, DWORD PTR __$ArrayPad$[ebp]
  001f2	33 cd		 xor	 ecx, ebp
  001f4	5e		 pop	 esi
  001f5	e8 00 00 00 00	 call	 @__security_check_cookie@4
  001fa	c9		 leave
  001fb	c2 04 00	 ret	 4
?OnProcess@SendPresentFriendListWnd@@MAEXM@Z ENDP	; SendPresentFriendListWnd::OnProcess
_TEXT	ENDS
PUBLIC	__real@3f19999a
PUBLIC	__real@406e800000000000
PUBLIC	?OnRender@SendPresentFriendListWnd@@MAEXXZ	; SendPresentFriendListWnd::OnRender
EXTRN	__imp_?SetTextColor@ioFontManager@@QAEXHHH@Z:PROC
EXTRN	__imp_?SetVertFormatting@ioUIRenderImage@@QAEXW4VertFormatting@1@@Z:PROC
EXTRN	__imp_?SetHorzFormatting@ioUIRenderImage@@QAEXW4HorzFormatting@1@@Z:PROC
EXTRN	__imp_??8ioHashString@@QBE_NABV0@@Z:PROC
;	COMDAT __real@3f19999a
; File c:\program files (x86)\microsoft visual studio 10.0\vc\include\vector
CONST	SEGMENT
__real@3f19999a DD 03f19999ar			; 0.6
CONST	ENDS
;	COMDAT __real@406e800000000000
CONST	SEGMENT
__real@406e800000000000 DQ 0406e800000000000r	; 244
; Function compile flags: /Ogsp
; File d:\lost saga for developer\youtube\tutorial\source\src\lsclient\gui\sendpresentwnd.cpp
CONST	ENDS
;	COMDAT ?OnRender@SendPresentFriendListWnd@@MAEXXZ
_TEXT	SEGMENT
tv487 = -32						; size = 4
tv309 = -28						; size = 4
tv267 = -28						; size = 4
tv224 = -28						; size = 4
tv601 = -24						; size = 4
_iXPos$ = -20						; size = 4
_iYPos$ = -16						; size = 4
_iCutWidth$ = -12					; size = 4
_iIndex$511166 = -8					; size = 4
_bDarkRender$ = -1					; size = 1
?OnRender@SendPresentFriendListWnd@@MAEXXZ PROC		; SendPresentFriendListWnd::OnRender, COMDAT
; _this$ = ecx

; 391  : {

  00000	55		 push	 ebp
  00001	8b ec		 mov	 ebp, esp
  00003	83 ec 20	 sub	 esp, 32			; 00000020H
  00006	53		 push	 ebx
  00007	56		 push	 esi
  00008	8b f1		 mov	 esi, ecx

; 392  : 	ioWnd::OnRender();

  0000a	ff 15 00 00 00
	00		 call	 DWORD PTR __imp_?OnRender@ioWnd@@MAEXXZ

; 393  : 
; 394  : 	if( !m_pDarkLine || !m_pLightLine || !m_pOverLine ) 

  00010	33 db		 xor	 ebx, ebx
  00012	39 9e 60 01 00
	00		 cmp	 DWORD PTR [esi+352], ebx
  00018	0f 84 48 03 00
	00		 je	 $LN24@OnRender@2
  0001e	39 9e 64 01 00
	00		 cmp	 DWORD PTR [esi+356], ebx
  00024	0f 84 3c 03 00
	00		 je	 $LN24@OnRender@2
  0002a	39 9e 68 01 00
	00		 cmp	 DWORD PTR [esi+360], ebx
  00030	0f 84 30 03 00
	00		 je	 $LN24@OnRender@2

; 395  : 		return;
; 396  : 
; 397  : 	g_FontMgr.SetAlignType( TAT_LEFT );

  00036	57		 push	 edi
  00037	8b 3d 00 00 00
	00		 mov	 edi, DWORD PTR __imp_?GetSingleton@ioFontManager@@SAAAV1@XZ
  0003d	53		 push	 ebx
  0003e	ff d7		 call	 edi
  00040	8b c8		 mov	 ecx, eax
  00042	ff 15 00 00 00
	00		 call	 DWORD PTR __imp_?SetAlignType@ioFontManager@@QAEXW4TextAlignType@@@Z

; 398  : 	g_FontMgr.SetTextStyle( TS_NORMAL );

  00048	53		 push	 ebx
  00049	ff d7		 call	 edi
  0004b	8b c8		 mov	 ecx, eax
  0004d	ff 15 00 00 00
	00		 call	 DWORD PTR __imp_?SetTextStyle@ioFontManager@@QAEXW4TextStyle@@@Z

; 399  : 	g_FontMgr.SetBkColor( 0, 0, 0 );

  00053	53		 push	 ebx
  00054	53		 push	 ebx
  00055	53		 push	 ebx
  00056	ff d7		 call	 edi
  00058	8b c8		 mov	 ecx, eax
  0005a	ff 15 00 00 00
	00		 call	 DWORD PTR __imp_?SetBkColor@ioFontManager@@QAEXHHH@Z

; 400  : 
; 401  : 	int iXPos = GetDerivedPosX();

  00060	8b ce		 mov	 ecx, esi
  00062	ff 15 00 00 00
	00		 call	 DWORD PTR __imp_?GetDerivedPosX@ioWnd@@QBEHXZ

; 402  : 	int iYPos = GetDerivedPosY();

  00068	8b ce		 mov	 ecx, esi
  0006a	89 45 ec	 mov	 DWORD PTR _iXPos$[ebp], eax
  0006d	ff 15 00 00 00
	00		 call	 DWORD PTR __imp_?GetDerivedPosY@ioWnd@@QBEHXZ
  00073	89 45 f0	 mov	 DWORD PTR _iYPos$[ebp], eax

; 403  : 
; 404  : 	int iCutWidth = 0;
; 405  : 	if( (int)m_FriendUserList.size() > MAX_PAGE_LIST )

  00076	8b 86 90 01 00
	00		 mov	 eax, DWORD PTR [esi+400]
  0007c	2b 86 8c 01 00
	00		 sub	 eax, DWORD PTR [esi+396]
  00082	89 5d f4	 mov	 DWORD PTR _iCutWidth$[ebp], ebx
  00085	c1 f8 04	 sar	 eax, 4
  00088	89 45 e8	 mov	 DWORD PTR tv601[ebp], eax
  0008b	83 f8 05	 cmp	 eax, 5
  0008e	7e 09		 jle	 SHORT $LN10@OnRender@2

; 406  : 		iCutWidth = m_iCutWidth;

  00090	8b 8e 80 01 00
	00		 mov	 ecx, DWORD PTR [esi+384]
  00096	89 4d f4	 mov	 DWORD PTR _iCutWidth$[ebp], ecx
$LN10@OnRender@2:

; 407  : 
; 408  : 	bool bDarkRender = false;

  00099	88 5d ff	 mov	 BYTE PTR _bDarkRender$[ebp], bl

; 409  : 	int iListSize = m_FriendUserList.size();
; 410  : 	for(int iIndex = 0 ; iIndex < iListSize ; ++iIndex )

  0009c	89 5d f8	 mov	 DWORD PTR _iIndex$511166[ebp], ebx
  0009f	3b c3		 cmp	 eax, ebx
  000a1	0f 8e be 02 00
	00		 jle	 $LN28@OnRender@2
  000a7	eb 03		 jmp	 SHORT $LN9@OnRender@2
$LL27@OnRender@2:
  000a9	8b 45 e8	 mov	 eax, DWORD PTR tv601[ebp]
$LN9@OnRender@2:

; 411  : 	{
; 412  : 		if( iIndex >= MAX_PAGE_LIST )

  000ac	83 7d f8 05	 cmp	 DWORD PTR _iIndex$511166[ebp], 5
  000b0	0f 8d af 02 00
	00		 jge	 $LN28@OnRender@2

; 413  : 			break;
; 414  : 
; 415  : 		int iListPos = m_iCurPos + iIndex;

  000b6	8b 8e bc 01 00
	00		 mov	 ecx, DWORD PTR [esi+444]
  000bc	03 4d f8	 add	 ecx, DWORD PTR _iIndex$511166[ebp]

; 416  : 		if( iListPos >= iListSize )

  000bf	3b c8		 cmp	 ecx, eax
  000c1	0f 8d 9e 02 00
	00		 jge	 $LN28@OnRender@2

; 417  : 			break;
; 418  : 
; 419  : 		bDarkRender = !bDarkRender;

  000c7	38 5d ff	 cmp	 BYTE PTR _bDarkRender$[ebp], bl
  000ca	0f 94 c0	 sete	 al
  000cd	88 45 ff	 mov	 BYTE PTR _bDarkRender$[ebp], al

; 420  : 		if( m_szOverListUser == m_FriendUserList[iListPos] )

  000d0	8b 86 8c 01 00
	00		 mov	 eax, DWORD PTR [esi+396]
  000d6	c1 e1 04	 shl	 ecx, 4
  000d9	03 c1		 add	 eax, ecx
  000db	89 4d e0	 mov	 DWORD PTR tv487[ebp], ecx
  000de	50		 push	 eax
  000df	8d 8e 9c 01 00
	00		 lea	 ecx, DWORD PTR [esi+412]
  000e5	ff 15 00 00 00
	00		 call	 DWORD PTR __imp_??8ioHashString@@QBE_NABV0@@Z

; 421  : 		{
; 422  : 			m_pOverLine->SetSize( ( GetWidth() - m_iAddWidth ) - iCutWidth, 21 );

  000eb	6a 15		 push	 21			; 00000015H
  000ed	8b ce		 mov	 ecx, esi
  000ef	84 c0		 test	 al, al
  000f1	0f 84 a7 00 00
	00		 je	 $LN4@OnRender@2
  000f7	8b 86 68 01 00
	00		 mov	 eax, DWORD PTR [esi+360]
  000fd	8b 00		 mov	 eax, DWORD PTR [eax]
  000ff	83 c0 10	 add	 eax, 16			; 00000010H
  00102	89 45 e4	 mov	 DWORD PTR tv224[ebp], eax
  00105	ff 15 00 00 00
	00		 call	 DWORD PTR __imp_?GetWidth@ioWnd@@QBEHXZ
  0010b	2b 86 6c 01 00
	00		 sub	 eax, DWORD PTR [esi+364]
  00111	8b 8e 68 01 00
	00		 mov	 ecx, DWORD PTR [esi+360]
  00117	2b 45 f4	 sub	 eax, DWORD PTR _iCutWidth$[ebp]
  0011a	50		 push	 eax
  0011b	8b 45 e4	 mov	 eax, DWORD PTR tv224[ebp]
  0011e	ff 10		 call	 DWORD PTR [eax]

; 423  : 			m_pOverLine->SetHorzFormatting( ioUIRenderImage::HF_STRETCH );

  00120	8b 8e 68 01 00
	00		 mov	 ecx, DWORD PTR [esi+360]
  00126	6a 03		 push	 3
  00128	ff 15 00 00 00
	00		 call	 DWORD PTR __imp_?SetHorzFormatting@ioUIRenderImage@@QAEXW4HorzFormatting@1@@Z

; 424  : 			m_pOverLine->SetVertFormatting( ioUIRenderImage::VF_STRETCH );

  0012e	8b 8e 68 01 00
	00		 mov	 ecx, DWORD PTR [esi+360]
  00134	6a 03		 push	 3
  00136	ff 15 00 00 00
	00		 call	 DWORD PTR __imp_?SetVertFormatting@ioUIRenderImage@@QAEXW4VertFormatting@1@@Z

; 425  : 			m_pOverLine->Render( iXPos + m_iListXPos, iYPos + m_iListYPos + ( iIndex * m_iHeightGap ) );

  0013c	8b 8e 7c 01 00
	00		 mov	 ecx, DWORD PTR [esi+380]
  00142	0f af 4d f8	 imul	 ecx, DWORD PTR _iIndex$511166[ebp]
  00146	03 8e 78 01 00
	00		 add	 ecx, DWORD PTR [esi+376]
  0014c	8b 86 68 01 00
	00		 mov	 eax, DWORD PTR [esi+360]
  00152	03 4d f0	 add	 ecx, DWORD PTR _iYPos$[ebp]
  00155	8b 00		 mov	 eax, DWORD PTR [eax]
  00157	53		 push	 ebx
  00158	53		 push	 ebx
  00159	53		 push	 ebx
  0015a	53		 push	 ebx
  0015b	51		 push	 ecx
  0015c	51		 push	 ecx
  0015d	0f 57 c0	 xorps	 xmm0, xmm0
  00160	f3 0f 2a c1	 cvtsi2ss xmm0, ecx
  00164	8b 8e 74 01 00
	00		 mov	 ecx, DWORD PTR [esi+372]
  0016a	03 4d ec	 add	 ecx, DWORD PTR _iXPos$[ebp]
  0016d	f3 0f 11 44 24
	04		 movss	 DWORD PTR [esp+4], xmm0
  00173	0f 57 c0	 xorps	 xmm0, xmm0
  00176	f3 0f 2a c1	 cvtsi2ss xmm0, ecx
  0017a	8b 8e 68 01 00
	00		 mov	 ecx, DWORD PTR [esi+360]
  00180	f3 0f 11 04 24	 movss	 DWORD PTR [esp], xmm0
  00185	ff 10		 call	 DWORD PTR [eax]

; 426  : 			g_FontMgr.SetTextColor( 255, 255, 255 );

  00187	b8 ff 00 00 00	 mov	 eax, 255		; 000000ffH
  0018c	50		 push	 eax
  0018d	50		 push	 eax
  0018e	50		 push	 eax
  0018f	ff d7		 call	 edi
  00191	8b c8		 mov	 ecx, eax
  00193	ff 15 00 00 00
	00		 call	 DWORD PTR __imp_?SetTextColor@ioFontManager@@QAEXHHH@Z
  00199	e9 2c 01 00 00	 jmp	 $LN1@OnRender@2
$LN4@OnRender@2:

; 427  : 		}
; 428  : 		else if( bDarkRender )

  0019e	38 5d ff	 cmp	 BYTE PTR _bDarkRender$[ebp], bl
  001a1	0f 84 88 00 00
	00		 je	 $LN2@OnRender@2

; 429  : 		{
; 430  : 			m_pDarkLine->SetSize( ( GetWidth() - m_iAddWidth ) - iCutWidth, 21 );

  001a7	8b 86 60 01 00
	00		 mov	 eax, DWORD PTR [esi+352]
  001ad	8b 00		 mov	 eax, DWORD PTR [eax]
  001af	83 c0 10	 add	 eax, 16			; 00000010H
  001b2	89 45 e4	 mov	 DWORD PTR tv267[ebp], eax
  001b5	ff 15 00 00 00
	00		 call	 DWORD PTR __imp_?GetWidth@ioWnd@@QBEHXZ
  001bb	2b 86 6c 01 00
	00		 sub	 eax, DWORD PTR [esi+364]
  001c1	8b 8e 60 01 00
	00		 mov	 ecx, DWORD PTR [esi+352]
  001c7	2b 45 f4	 sub	 eax, DWORD PTR _iCutWidth$[ebp]
  001ca	50		 push	 eax
  001cb	8b 45 e4	 mov	 eax, DWORD PTR tv267[ebp]
  001ce	ff 10		 call	 DWORD PTR [eax]

; 431  : 			m_pDarkLine->SetHorzFormatting( ioUIRenderImage::HF_STRETCH );

  001d0	8b 8e 60 01 00
	00		 mov	 ecx, DWORD PTR [esi+352]
  001d6	6a 03		 push	 3
  001d8	ff 15 00 00 00
	00		 call	 DWORD PTR __imp_?SetHorzFormatting@ioUIRenderImage@@QAEXW4HorzFormatting@1@@Z

; 432  : 			m_pDarkLine->SetVertFormatting( ioUIRenderImage::VF_STRETCH );

  001de	8b 8e 60 01 00
	00		 mov	 ecx, DWORD PTR [esi+352]
  001e4	6a 03		 push	 3
  001e6	ff 15 00 00 00
	00		 call	 DWORD PTR __imp_?SetVertFormatting@ioUIRenderImage@@QAEXW4VertFormatting@1@@Z

; 433  : 			m_pDarkLine->Render( iXPos + m_iListXPos, iYPos + m_iListYPos + ( iIndex * m_iHeightGap ) );

  001ec	8b 8e 7c 01 00
	00		 mov	 ecx, DWORD PTR [esi+380]
  001f2	0f af 4d f8	 imul	 ecx, DWORD PTR _iIndex$511166[ebp]
  001f6	03 8e 78 01 00
	00		 add	 ecx, DWORD PTR [esi+376]
  001fc	8b 86 60 01 00
	00		 mov	 eax, DWORD PTR [esi+352]
  00202	03 4d f0	 add	 ecx, DWORD PTR _iYPos$[ebp]
  00205	53		 push	 ebx
  00206	53		 push	 ebx
  00207	53		 push	 ebx
  00208	53		 push	 ebx
  00209	51		 push	 ecx
  0020a	0f 57 c0	 xorps	 xmm0, xmm0
  0020d	f3 0f 2a c1	 cvtsi2ss xmm0, ecx
  00211	51		 push	 ecx
  00212	8b 8e 74 01 00
	00		 mov	 ecx, DWORD PTR [esi+372]
  00218	03 4d ec	 add	 ecx, DWORD PTR _iXPos$[ebp]
  0021b	f3 0f 11 44 24
	04		 movss	 DWORD PTR [esp+4], xmm0
  00221	0f 57 c0	 xorps	 xmm0, xmm0
  00224	f3 0f 2a c1	 cvtsi2ss xmm0, ecx
  00228	8b c8		 mov	 ecx, eax

; 434  : 			g_FontMgr.SetTextColor( TCT_DEFAULT_DARKGRAY );
; 435  : 		}
; 436  : 		else

  0022a	e9 83 00 00 00	 jmp	 $LN29@OnRender@2
$LN2@OnRender@2:

; 437  : 		{
; 438  : 			m_pLightLine->SetSize( ( GetWidth() - m_iAddWidth ) - iCutWidth, 21 );

  0022f	8b 86 64 01 00
	00		 mov	 eax, DWORD PTR [esi+356]
  00235	8b 00		 mov	 eax, DWORD PTR [eax]
  00237	83 c0 10	 add	 eax, 16			; 00000010H
  0023a	89 45 e4	 mov	 DWORD PTR tv309[ebp], eax
  0023d	ff 15 00 00 00
	00		 call	 DWORD PTR __imp_?GetWidth@ioWnd@@QBEHXZ
  00243	2b 86 6c 01 00
	00		 sub	 eax, DWORD PTR [esi+364]
  00249	8b 8e 64 01 00
	00		 mov	 ecx, DWORD PTR [esi+356]
  0024f	2b 45 f4	 sub	 eax, DWORD PTR _iCutWidth$[ebp]
  00252	50		 push	 eax
  00253	8b 45 e4	 mov	 eax, DWORD PTR tv309[ebp]
  00256	ff 10		 call	 DWORD PTR [eax]

; 439  : 			m_pLightLine->SetHorzFormatting( ioUIRenderImage::HF_STRETCH );

  00258	8b 8e 64 01 00
	00		 mov	 ecx, DWORD PTR [esi+356]
  0025e	6a 03		 push	 3
  00260	ff 15 00 00 00
	00		 call	 DWORD PTR __imp_?SetHorzFormatting@ioUIRenderImage@@QAEXW4HorzFormatting@1@@Z

; 440  : 			m_pLightLine->SetVertFormatting( ioUIRenderImage::VF_STRETCH );

  00266	8b 8e 64 01 00
	00		 mov	 ecx, DWORD PTR [esi+356]
  0026c	6a 03		 push	 3
  0026e	ff 15 00 00 00
	00		 call	 DWORD PTR __imp_?SetVertFormatting@ioUIRenderImage@@QAEXW4VertFormatting@1@@Z

; 441  : 			m_pLightLine->Render( iXPos + m_iListXPos, iYPos + m_iListYPos + ( iIndex * m_iHeightGap ) );

  00274	8b 8e 7c 01 00
	00		 mov	 ecx, DWORD PTR [esi+380]
  0027a	0f af 4d f8	 imul	 ecx, DWORD PTR _iIndex$511166[ebp]
  0027e	03 8e 78 01 00
	00		 add	 ecx, DWORD PTR [esi+376]
  00284	8b 86 64 01 00
	00		 mov	 eax, DWORD PTR [esi+356]
  0028a	03 4d f0	 add	 ecx, DWORD PTR _iYPos$[ebp]
  0028d	53		 push	 ebx
  0028e	53		 push	 ebx
  0028f	53		 push	 ebx
  00290	53		 push	 ebx
  00291	51		 push	 ecx
  00292	0f 57 c0	 xorps	 xmm0, xmm0
  00295	f3 0f 2a c1	 cvtsi2ss xmm0, ecx
  00299	51		 push	 ecx
  0029a	8b 8e 74 01 00
	00		 mov	 ecx, DWORD PTR [esi+372]
  002a0	03 4d ec	 add	 ecx, DWORD PTR _iXPos$[ebp]
  002a3	f3 0f 11 44 24
	04		 movss	 DWORD PTR [esp+4], xmm0
  002a9	0f 57 c0	 xorps	 xmm0, xmm0
  002ac	f3 0f 2a c1	 cvtsi2ss xmm0, ecx
  002b0	8b c8		 mov	 ecx, eax
$LN29@OnRender@2:
  002b2	8b 00		 mov	 eax, DWORD PTR [eax]
  002b4	f3 0f 11 04 24	 movss	 DWORD PTR [esp], xmm0
  002b9	ff 10		 call	 DWORD PTR [eax]

; 442  : 			g_FontMgr.SetTextColor( TCT_DEFAULT_DARKGRAY );

  002bb	68 3a 3a 3a ff	 push	 -12961222		; ff3a3a3aH
  002c0	ff d7		 call	 edi
  002c2	8b c8		 mov	 ecx, eax
  002c4	ff 15 00 00 00
	00		 call	 DWORD PTR __imp_?SetTextColor@ioFontManager@@QAEXK@Z
$LN1@OnRender@2:

; 443  : 		}
; 444  : 
; 445  : 		g_FontMgr.PrintTextWidthCut( iXPos + m_iListXPos + 5, iYPos + m_iListYPos + ( iIndex * m_iHeightGap ) + 3, FONT_SIZE_12, 244.0f - iCutWidth, 
; 446  : 									 m_FriendUserList[iListPos].c_str() );

  002ca	8b 8e 8c 01 00
	00		 mov	 ecx, DWORD PTR [esi+396]
  002d0	03 4d e0	 add	 ecx, DWORD PTR tv487[ebp]
  002d3	ff 15 00 00 00
	00		 call	 DWORD PTR __imp_?c_str@ioHashString@@QBEPBDXZ
  002d9	66 0f 6e 45 f4	 movd	 xmm0, DWORD PTR _iCutWidth$[ebp]
  002de	f2 0f 10 0d 00
	00 00 00	 movsd	 xmm1, QWORD PTR __real@406e800000000000
  002e6	8b 4d f0	 mov	 ecx, DWORD PTR _iYPos$[ebp]
  002e9	50		 push	 eax
  002ea	8b 86 7c 01 00
	00		 mov	 eax, DWORD PTR [esi+380]
  002f0	0f af 45 f8	 imul	 eax, DWORD PTR _iIndex$511166[ebp]
  002f4	03 86 78 01 00
	00		 add	 eax, DWORD PTR [esi+376]
  002fa	0f 5b c0	 cvtdq2ps xmm0, xmm0
  002fd	f3 0f 5a c0	 cvtss2sd xmm0, xmm0
  00301	f2 0f 5c c8	 subsd	 xmm1, xmm0
  00305	83 ec 10	 sub	 esp, 16			; 00000010H
  00308	8d 44 08 03	 lea	 eax, DWORD PTR [eax+ecx+3]
  0030c	8b 4d ec	 mov	 ecx, DWORD PTR _iXPos$[ebp]
  0030f	66 0f 5a c1	 cvtpd2ps xmm0, xmm1
  00313	f3 0f 11 44 24
	0c		 movss	 DWORD PTR [esp+12], xmm0
  00319	f3 0f 10 05 00
	00 00 00	 movss	 xmm0, DWORD PTR __real@3f19999a
  00321	f3 0f 11 44 24
	08		 movss	 DWORD PTR [esp+8], xmm0
  00327	0f 57 c0	 xorps	 xmm0, xmm0
  0032a	f3 0f 2a c0	 cvtsi2ss xmm0, eax
  0032e	8b 86 74 01 00
	00		 mov	 eax, DWORD PTR [esi+372]
  00334	f3 0f 11 44 24
	04		 movss	 DWORD PTR [esp+4], xmm0
  0033a	8d 44 08 05	 lea	 eax, DWORD PTR [eax+ecx+5]
  0033e	0f 57 c0	 xorps	 xmm0, xmm0
  00341	f3 0f 2a c0	 cvtsi2ss xmm0, eax
  00345	f3 0f 11 04 24	 movss	 DWORD PTR [esp], xmm0
  0034a	ff d7		 call	 edi
  0034c	50		 push	 eax
  0034d	ff 15 00 00 00
	00		 call	 DWORD PTR __imp_?PrintTextWidthCut@ioFontManager@@QAAXMMMMPBDZZ
  00353	83 c4 18	 add	 esp, 24			; 00000018H
  00356	ff 45 f8	 inc	 DWORD PTR _iIndex$511166[ebp]
  00359	8b 45 f8	 mov	 eax, DWORD PTR _iIndex$511166[ebp]
  0035c	3b 45 e8	 cmp	 eax, DWORD PTR tv601[ebp]
  0035f	0f 8c 44 fd ff
	ff		 jl	 $LL27@OnRender@2
$LN28@OnRender@2:
  00365	5f		 pop	 edi
$LN24@OnRender@2:
  00366	5e		 pop	 esi
  00367	5b		 pop	 ebx

; 447  : 	}
; 448  : }

  00368	c9		 leave
  00369	c3		 ret	 0
?OnRender@SendPresentFriendListWnd@@MAEXXZ ENDP		; SendPresentFriendListWnd::OnRender
; Function compile flags: /Ogsp
_TEXT	ENDS
;	COMDAT ??_GSendPresentConfirmWnd@@UAEPAXI@Z
_TEXT	SEGMENT
___flags$ = 8						; size = 4
??_GSendPresentConfirmWnd@@UAEPAXI@Z PROC		; SendPresentConfirmWnd::`scalar deleting destructor', COMDAT
; _this$ = ecx
  00000	55		 push	 ebp
  00001	8b ec		 mov	 ebp, esp
  00003	56		 push	 esi
  00004	8b f1		 mov	 esi, ecx
  00006	e8 00 00 00 00	 call	 ??1SendPresentConfirmWnd@@UAE@XZ ; SendPresentConfirmWnd::~SendPresentConfirmWnd
  0000b	f6 45 08 01	 test	 BYTE PTR ___flags$[ebp], 1
  0000f	74 07		 je	 SHORT $LN1@scalar@4
  00011	56		 push	 esi
  00012	e8 00 00 00 00	 call	 ??3@YAXPAX@Z		; operator delete
  00017	59		 pop	 ecx
$LN1@scalar@4:
  00018	8b c6		 mov	 eax, esi
  0001a	5e		 pop	 esi
  0001b	5d		 pop	 ebp
  0001c	c2 04 00	 ret	 4
??_GSendPresentConfirmWnd@@UAEPAXI@Z ENDP		; SendPresentConfirmWnd::`scalar deleting destructor'
_TEXT	ENDS
EXTRN	__imp_?ShowWnd@ioGUIManager@@QAEXK_N@Z:PROC
EXTRN	__imp_?GetID@ioWnd@@QBEKXZ:PROC
; Function compile flags: /Ogsp
;	COMDAT ?iwm_command@SendPresentConfirmWnd@@UAEXPAVioWnd@@HK@Z
_TEXT	SEGMENT
_pWnd$ = 8						; size = 4
_cmd$ = 12						; size = 4
_param$ = 16						; size = 4
?iwm_command@SendPresentConfirmWnd@@UAEXPAVioWnd@@HK@Z PROC ; SendPresentConfirmWnd::iwm_command, COMDAT
; _this$ = ecx

; 552  : {

  00000	55		 push	 ebp
  00001	8b ec		 mov	 ebp, esp
  00003	56		 push	 esi
  00004	8b f1		 mov	 esi, ecx

; 553  : 	DWORD dwID = pWnd->GetID();

  00006	8b 4d 08	 mov	 ecx, DWORD PTR _pWnd$[ebp]
  00009	ff 15 00 00 00
	00		 call	 DWORD PTR __imp_?GetID@ioWnd@@QBEKXZ

; 554  : 	switch( dwID )

  0000f	48		 dec	 eax
  00010	74 34		 je	 SHORT $LN6@iwm_comman
  00012	48		 dec	 eax
  00013	74 22		 je	 SHORT $LN4@iwm_comman
  00015	48		 dec	 eax
  00016	74 2e		 je	 SHORT $LN6@iwm_comman
  00018	48		 dec	 eax
  00019	48		 dec	 eax
  0001a	75 38		 jne	 SHORT $LN5@iwm_comman

; 570  : 	case ID_CLAUSE_VIEW_BTN:
; 571  : 		if( cmd == IOBN_BTNUP )

  0001c	83 7d 0c 11	 cmp	 DWORD PTR _cmd$[ebp], 17 ; 00000011H
  00020	75 32		 jne	 SHORT $LN5@iwm_comman

; 572  : 		{
; 573  : 			g_GUIMgr.ShowWnd( CLAUSE_VIEW_WND );

  00022	50		 push	 eax
  00023	68 b0 17 00 00	 push	 6064			; 000017b0H
  00028	e8 00 00 00 00	 call	 ?GetSingleton@ioSP2GUIManager@@SAAAV1@XZ ; ioSP2GUIManager::GetSingleton
  0002d	8b c8		 mov	 ecx, eax
  0002f	ff 15 00 00 00
	00		 call	 DWORD PTR __imp_?ShowWnd@ioGUIManager@@QAEXK_N@Z

; 574  : 		}
; 575  : 		break;

  00035	eb 1d		 jmp	 SHORT $LN5@iwm_comman
$LN4@iwm_comman:

; 561  : 		}
; 562  : 		break;
; 563  : 	case ID_OK_BTN:
; 564  : 		if( cmd == IOBN_BTNUP )

  00037	83 7d 0c 11	 cmp	 DWORD PTR _cmd$[ebp], 17 ; 00000011H
  0003b	75 17		 jne	 SHORT $LN5@iwm_comman

; 565  : 		{
; 566  : 			SendBuyFromReturnWnd();

  0003d	8b ce		 mov	 ecx, esi
  0003f	e8 00 00 00 00	 call	 ?SendBuyFromReturnWnd@SendPresentConfirmWnd@@IAEXXZ ; SendPresentConfirmWnd::SendBuyFromReturnWnd

; 567  : 			HideWnd();
; 568  : 		}
; 569  : 		break;

  00044	eb 06		 jmp	 SHORT $LN11@iwm_comman
$LN6@iwm_comman:

; 555  : 	{
; 556  : 	case ID_EXIT_BTN:
; 557  : 	case ID_CANCEL_BTN:
; 558  : 		if( cmd == IOBN_BTNUP )

  00046	83 7d 0c 11	 cmp	 DWORD PTR _cmd$[ebp], 17 ; 00000011H
  0004a	75 08		 jne	 SHORT $LN5@iwm_comman
$LN11@iwm_comman:

; 559  : 		{
; 560  : 			HideWnd();

  0004c	8b ce		 mov	 ecx, esi
  0004e	ff 15 00 00 00
	00		 call	 DWORD PTR __imp_?HideWnd@ioWnd@@QAEXXZ
$LN5@iwm_comman:
  00054	5e		 pop	 esi

; 576  : 	}
; 577  : }

  00055	5d		 pop	 ebp
  00056	c2 0c 00	 ret	 12			; 0000000cH
?iwm_command@SendPresentConfirmWnd@@UAEXPAVioWnd@@HK@Z ENDP ; SendPresentConfirmWnd::iwm_command
_TEXT	ENDS
PUBLIC	??_C@_0BD@HEINEDGN@UIIconPack101?$CDCash?$AA@	; `string'
PUBLIC	??_C@_0BH@FLBLIBDA@UIIconPack13?$CDquest_001?$AA@ ; `string'
PUBLIC	??_C@_0CG@ICNJJBPB@SendPresentConfirmWnd?3?3SetPresen@ ; `string'
PUBLIC	??_C@_0BH@HADGNCPD@UIIconPack13?$CDquest_002?$AA@ ; `string'
PUBLIC	__real@4f800000
PUBLIC	?SetPresentIcon@SendPresentConfirmWnd@@IAEXXZ	; SendPresentConfirmWnd::SetPresentIcon
EXTRN	?GetCostumeMachineInfo@ioCostumeShopInfoManager@@QAEPAVCostumeShopInfo@@H@Z:PROC ; ioCostumeShopInfoManager::GetCostumeMachineInfo
EXTRN	?GetSingleton@ioCostumeShopInfoManager@@SAAAV1@XZ:PROC ; ioCostumeShopInfoManager::GetSingleton
EXTRN	?GetCostumeIcon@ioCostumeInfoManager@@QAE?AVioHashString@@H@Z:PROC ; ioCostumeInfoManager::GetCostumeIcon
EXTRN	?GetSingleton@ioCostumeInfoManager@@SAAAV1@XZ:PROC ; ioCostumeInfoManager::GetSingleton
EXTRN	?GetPetIcon@ioPetInfoManager@@QAE?AVioHashString@@HW4PetRankType@@@Z:PROC ; ioPetInfoManager::GetPetIcon
EXTRN	?GetSingleton@ioPetInfoManager@@SAAAV1@XZ:PROC	; ioPetInfoManager::GetSingleton
EXTRN	?GetAlchemicItemIcon@ioAlchemicMgr@@QAE?AVioHashString@@H@Z:PROC ; ioAlchemicMgr::GetAlchemicItemIcon
EXTRN	?GetSingleton@ioAlchemicMgr@@SAAAV1@XZ:PROC	; ioAlchemicMgr::GetSingleton
EXTRN	?GetItemInfo@ioMedalItemInfoManager@@QAEPBUItemInfo@1@H@Z:PROC ; ioMedalItemInfoManager::GetItemInfo
EXTRN	?GetSingleton@ioMedalItemInfoManager@@SAAAV1@XZ:PROC ; ioMedalItemInfoManager::GetSingleton
EXTRN	?GetRandomMachineInfo@ioExtraItemInfoManager@@QAEPAVRandomMachineInfo@@H@Z:PROC ; ioExtraItemInfoManager::GetRandomMachineInfo
EXTRN	?GetSingleton@ioExtraItemInfoManager@@SAAAV1@XZ:PROC ; ioExtraItemInfoManager::GetSingleton
EXTRN	__imp_?IsEmpty@ioHashString@@QBE_NXZ:PROC
EXTRN	?GetItemConst@ioItemMaker@@QBEPBVioItem@@KABVioHashString@@@Z:PROC ; ioItemMaker::GetItemConst
EXTRN	?GetSingleton@ioItemMaker@@SAAAV1@XZ:PROC	; ioItemMaker::GetSingleton
EXTRN	__imp_??0ioHashString@@QAE@PBD@Z:PROC
EXTRN	?FindEtcItem@ioEtcItemManager@@QAEPAVioEtcItem@@K@Z:PROC ; ioEtcItemManager::FindEtcItem
EXTRN	?GetDecoData@ioDecorationPrice@@QAEABUtagDecoData@@HHH@Z:PROC ; ioDecorationPrice::GetDecoData
EXTRN	?GetSingleton@ioDecorationPrice@@SAAAV1@XZ:PROC	; ioDecorationPrice::GetSingleton
EXTRN	__imp_?CreateImageByFullName@ioUIImageSetManager@@QAEPAVioUIRenderImage@@ABVioHashString@@_N@Z:PROC
EXTRN	__imp_?GetSingleton@ioUIImageSetManager@@SAAAV1@XZ:PROC
EXTRN	?GetMySoldierIconName@ioMyInfo@@QAEAAVioHashString@@H@Z:PROC ; ioMyInfo::GetMySoldierIconName
EXTRN	?GetSingleton@ioMyInfo@@SAAAV1@XZ:PROC		; ioMyInfo::GetSingleton
EXTRN	__ftol2_sse:PROC
;	COMDAT ??_C@_0BD@HEINEDGN@UIIconPack101?$CDCash?$AA@
; File d:\lost saga for developer\youtube\tutorial\source\src\lsclient\iocostumeshopinfomanager.h
CONST	SEGMENT
??_C@_0BD@HEINEDGN@UIIconPack101?$CDCash?$AA@ DB 'UIIconPack101#Cash', 00H ; `string'
CONST	ENDS
;	COMDAT ??_C@_0BH@FLBLIBDA@UIIconPack13?$CDquest_001?$AA@
CONST	SEGMENT
??_C@_0BH@FLBLIBDA@UIIconPack13?$CDquest_001?$AA@ DB 'UIIconPack13#quest_'
	DB	'001', 00H					; `string'
CONST	ENDS
;	COMDAT ??_C@_0CG@ICNJJBPB@SendPresentConfirmWnd?3?3SetPresen@
CONST	SEGMENT
??_C@_0CG@ICNJJBPB@SendPresentConfirmWnd?3?3SetPresen@ DB 'SendPresentCon'
	DB	'firmWnd::SetPresentIcon', 00H		; `string'
CONST	ENDS
;	COMDAT ??_C@_0BH@HADGNCPD@UIIconPack13?$CDquest_002?$AA@
CONST	SEGMENT
??_C@_0BH@HADGNCPD@UIIconPack13?$CDquest_002?$AA@ DB 'UIIconPack13#quest_'
	DB	'002', 00H					; `string'
CONST	ENDS
;	COMDAT __real@4f800000
CONST	SEGMENT
__real@4f800000 DD 04f800000r			; 4.29497e+009
CONST	ENDS
;	COMDAT xdata$x
xdata$x	SEGMENT
__ehfuncinfo$?SetPresentIcon@SendPresentConfirmWnd@@IAEXXZ DD 019930522H
	DD	0bH
	DD	FLAT:__unwindtable$?SetPresentIcon@SendPresentConfirmWnd@@IAEXXZ
	DD	2 DUP(00H)
	DD	2 DUP(00H)
	DD	00H
	DD	01H
__unwindtable$?SetPresentIcon@SendPresentConfirmWnd@@IAEXXZ DD 0ffffffffH
	DD	FLAT:__unwindfunclet$?SetPresentIcon@SendPresentConfirmWnd@@IAEXXZ$0
	DD	0ffffffffH
	DD	FLAT:__unwindfunclet$?SetPresentIcon@SendPresentConfirmWnd@@IAEXXZ$1
	DD	0ffffffffH
	DD	FLAT:__unwindfunclet$?SetPresentIcon@SendPresentConfirmWnd@@IAEXXZ$2
	DD	0ffffffffH
	DD	FLAT:__unwindfunclet$?SetPresentIcon@SendPresentConfirmWnd@@IAEXXZ$3
	DD	0ffffffffH
	DD	FLAT:__unwindfunclet$?SetPresentIcon@SendPresentConfirmWnd@@IAEXXZ$4
	DD	0ffffffffH
	DD	FLAT:__unwindfunclet$?SetPresentIcon@SendPresentConfirmWnd@@IAEXXZ$5
	DD	0ffffffffH
	DD	FLAT:__unwindfunclet$?SetPresentIcon@SendPresentConfirmWnd@@IAEXXZ$6
	DD	0ffffffffH
	DD	FLAT:__unwindfunclet$?SetPresentIcon@SendPresentConfirmWnd@@IAEXXZ$7
	DD	0ffffffffH
	DD	FLAT:__unwindfunclet$?SetPresentIcon@SendPresentConfirmWnd@@IAEXXZ$8
	DD	0ffffffffH
	DD	FLAT:__unwindfunclet$?SetPresentIcon@SendPresentConfirmWnd@@IAEXXZ$9
	DD	0ffffffffH
	DD	FLAT:__unwindfunclet$?SetPresentIcon@SendPresentConfirmWnd@@IAEXXZ$10
; Function compile flags: /Ogsp
; File d:\lost saga for developer\youtube\tutorial\source\src\lsclient\gui\sendpresentwnd.cpp
xdata$x	ENDS
;	COMDAT ?SetPresentIcon@SendPresentConfirmWnd@@IAEXXZ
_TEXT	SEGMENT
_szIcon$511331 = -116					; size = 16
_szIcon$511325 = -100					; size = 16
_szIcon$511320 = -100					; size = 16
_szIcon$511315 = -100					; size = 16
_szIcon$511312 = -100					; size = 16
_szIcon$511298 = -100					; size = 16
_szIcon$511293 = -100					; size = 16
$T513311 = -84						; size = 16
$T513310 = -68						; size = 16
$T513308 = -52						; size = 16
$T513309 = -36						; size = 16
tv557 = -20						; size = 4
tv517 = -20						; size = 4
tv514 = -20						; size = 4
$T513326 = -20						; size = 4
_pItem$511289 = -20					; size = 4
tv561 = -16						; size = 4
$T513343 = -16						; size = 4
__$EHRec$ = -12						; size = 12
?SetPresentIcon@SendPresentConfirmWnd@@IAEXXZ PROC	; SendPresentConfirmWnd::SetPresentIcon, COMDAT
; _this$ = ecx

; 609  : {

  00000	6a 68		 push	 104			; 00000068H
  00002	b8 00 00 00 00	 mov	 eax, __ehhandler$?SetPresentIcon@SendPresentConfirmWnd@@IAEXXZ
  00007	e8 00 00 00 00	 call	 __EH_prolog3
  0000c	8b f1		 mov	 esi, ecx

; 610  : 	SAFEDELETE( m_pPresentIcon );

  0000e	8b 8e 60 01 00
	00		 mov	 ecx, DWORD PTR [esi+352]
  00014	33 db		 xor	 ebx, ebx
  00016	33 ff		 xor	 edi, edi
  00018	43		 inc	 ebx
  00019	3b cf		 cmp	 ecx, edi
  0001b	74 0c		 je	 SHORT $LN29@SetPresent
  0001d	8b 01		 mov	 eax, DWORD PTR [ecx]
  0001f	53		 push	 ebx
  00020	ff 50 40	 call	 DWORD PTR [eax+64]
  00023	89 be 60 01 00
	00		 mov	 DWORD PTR [esi+352], edi
$LN29@SetPresent:

; 611  : 	switch( m_iPresentType )

  00029	0f bf 86 6c 01
	00 00		 movsx	 eax, WORD PTR [esi+364]
  00030	48		 dec	 eax
  00031	83 f8 0e	 cmp	 eax, 14			; 0000000eH
  00034	0f 87 53 03 00
	00		 ja	 $LN27@SetPresent
  0003a	ff 24 85 00 00
	00 00		 jmp	 DWORD PTR $LN68@SetPresent[eax*4]
$LN26@SetPresent:

; 612  : 	{
; 613  : 	case PRESENT_SOLDIER:
; 614  : 		{
; 615  : 			m_pPresentIcon = g_UIImageSetMgr.CreateImageByFullName( g_MyInfo.GetMySoldierIconName( m_iPresentValue1 ) );

  00041	57		 push	 edi
  00042	ff b6 70 01 00
	00		 push	 DWORD PTR [esi+368]
  00048	e8 00 00 00 00	 call	 ?GetSingleton@ioMyInfo@@SAAAV1@XZ ; ioMyInfo::GetSingleton
  0004d	8b c8		 mov	 ecx, eax
  0004f	e8 00 00 00 00	 call	 ?GetMySoldierIconName@ioMyInfo@@QAEAAVioHashString@@H@Z ; ioMyInfo::GetMySoldierIconName
$LN65@SetPresent:
  00054	50		 push	 eax
  00055	ff 15 00 00 00
	00		 call	 DWORD PTR __imp_?GetSingleton@ioUIImageSetManager@@SAAAV1@XZ
  0005b	8b c8		 mov	 ecx, eax
  0005d	ff 15 00 00 00
	00		 call	 DWORD PTR __imp_?CreateImageByFullName@ioUIImageSetManager@@QAEPAVioUIRenderImage@@ABVioHashString@@_N@Z
  00063	89 86 60 01 00
	00		 mov	 DWORD PTR [esi+352], eax

; 616  : 		}
; 617  : 		break;

  00069	e9 1f 03 00 00	 jmp	 $LN27@SetPresent
$LN25@SetPresent:

; 618  : 	case PRESENT_DECORATION:
; 619  : 		{
; 620  : 			int iClassType = m_iPresentValue1 / 100000;
; 621  : 			int iSexType   = (m_iPresentValue1 % 100000) / FLOAT1000;

  0006e	b8 e8 03 00 00	 mov	 eax, 1000		; 000003e8H
  00073	8b 9e 70 01 00
	00		 mov	 ebx, DWORD PTR [esi+368]
  00079	89 45 ec	 mov	 DWORD PTR $T513326[ebp], eax
  0007c	8b c3		 mov	 eax, ebx
  0007e	99		 cdq
  0007f	b9 a0 86 01 00	 mov	 ecx, 100000		; 000186a0H
  00084	f7 f9		 idiv	 ecx
  00086	8b 45 ec	 mov	 eax, DWORD PTR $T513326[ebp]
  00089	89 55 f0	 mov	 DWORD PTR tv561[ebp], edx
  0008c	db 45 f0	 fild	 DWORD PTR tv561[ebp]
  0008f	db 45 ec	 fild	 DWORD PTR $T513326[ebp]
$LN67@SetPresent:
  00092	85 c0		 test	 eax, eax
  00094	79 06		 jns	 SHORT $LN60@SetPresent
  00096	d8 05 00 00 00
	00		 fadd	 DWORD PTR __real@4f800000
$LN60@SetPresent:
  0009c	de f9		 fdivp	 ST(1), ST(0)
  0009e	e8 00 00 00 00	 call	 __ftol2_sse
  000a3	8b c8		 mov	 ecx, eax

; 622  : 			int iDecoType  = m_iPresentValue1 % 1000;

  000a5	8b c3		 mov	 eax, ebx
  000a7	99		 cdq
  000a8	bb e8 03 00 00	 mov	 ebx, 1000		; 000003e8H
  000ad	f7 fb		 idiv	 ebx

; 623  : 			const DecoData &kData = g_DecorationPrice.GetDecoData( iSexType, iDecoType, m_iPresentValue2 );

  000af	ff b6 74 01 00
	00		 push	 DWORD PTR [esi+372]
  000b5	52		 push	 edx
  000b6	51		 push	 ecx
  000b7	e8 00 00 00 00	 call	 ?GetSingleton@ioDecorationPrice@@SAAAV1@XZ ; ioDecorationPrice::GetSingleton
  000bc	8b c8		 mov	 ecx, eax
  000be	e8 00 00 00 00	 call	 ?GetDecoData@ioDecorationPrice@@QAEABUtagDecoData@@HHH@Z ; ioDecorationPrice::GetDecoData

; 624  : 			m_pPresentIcon = g_UIImageSetMgr.CreateImageByFullName( kData.m_szIcon );

  000c3	57		 push	 edi
  000c4	83 c0 10	 add	 eax, 16			; 00000010H

; 625  : 		}
; 626  : 		break;

  000c7	eb 8b		 jmp	 SHORT $LN65@SetPresent
$LN24@SetPresent:

; 627  : 	case PRESENT_ETC_ITEM:
; 628  : 		{
; 629  : 			ioEtcItem *pEtcItem = g_EtcItemMgr.FindEtcItem( m_iPresentValue1 );

  000c9	ff b6 70 01 00
	00		 push	 DWORD PTR [esi+368]
  000cf	8b 0d 00 00 00
	00		 mov	 ecx, DWORD PTR ?ms_Singleton@?$Singleton@VioEtcItemManager@@@@1PAVioEtcItemManager@@A ; Singleton<ioEtcItemManager>::ms_Singleton
  000d5	e8 00 00 00 00	 call	 ?FindEtcItem@ioEtcItemManager@@QAEPAVioEtcItem@@K@Z ; ioEtcItemManager::FindEtcItem

; 630  : 			if( pEtcItem )

  000da	3b c7		 cmp	 eax, edi
  000dc	0f 84 ab 02 00
	00		 je	 $LN27@SetPresent

; 631  : 			{
; 632  : 				m_pPresentIcon = g_UIImageSetMgr.CreateImageByFullName( pEtcItem->GetIconName() );

  000e2	57		 push	 edi
  000e3	05 60 01 00 00	 add	 eax, 352		; 00000160H

; 633  : 			}			
; 634  : 		}
; 635  : 		break;

  000e8	e9 67 ff ff ff	 jmp	 $LN65@SetPresent
$LN22@SetPresent:

; 636  : 	case PRESENT_PESO:
; 637  : 		{
; 638  : 			m_pPresentIcon = g_UIImageSetMgr.CreateImageByFullName( ioHashString( "UIIconPack13#quest_002" ) );

  000ed	68 00 00 00 00	 push	 OFFSET ??_C@_0BH@HADGNCPD@UIIconPack13?$CDquest_002?$AA@
  000f2	8d 4d cc	 lea	 ecx, DWORD PTR $T513308[ebp]
  000f5	ff 15 00 00 00
	00		 call	 DWORD PTR __imp_??0ioHashString@@QAE@PBD@Z
  000fb	57		 push	 edi
  000fc	50		 push	 eax
  000fd	89 7d fc	 mov	 DWORD PTR __$EHRec$[ebp+8], edi
  00100	ff 15 00 00 00
	00		 call	 DWORD PTR __imp_?GetSingleton@ioUIImageSetManager@@SAAAV1@XZ
  00106	8b c8		 mov	 ecx, eax
  00108	ff 15 00 00 00
	00		 call	 DWORD PTR __imp_?CreateImageByFullName@ioUIImageSetManager@@QAEPAVioUIRenderImage@@ABVioHashString@@_N@Z
  0010e	8d 4d cc	 lea	 ecx, DWORD PTR $T513308[ebp]

; 639  : 		}
; 640  : 		break;

  00111	e9 67 02 00 00	 jmp	 $LN62@SetPresent
$LN21@SetPresent:

; 641  : 	case PRESENT_EXTRAITEM:
; 642  : 	case PRESENT_ACCESSORY:
; 643  : 		{
; 644  : 			const ioItem *pItem = g_ItemMaker.GetItemConst( m_iPresentValue1, __FUNCTION__ );

  00116	68 00 00 00 00	 push	 OFFSET ??_C@_0CG@ICNJJBPB@SendPresentConfirmWnd?3?3SetPresen@
  0011b	8d 4d dc	 lea	 ecx, DWORD PTR $T513309[ebp]
  0011e	ff 15 00 00 00
	00		 call	 DWORD PTR __imp_??0ioHashString@@QAE@PBD@Z
  00124	8d 45 dc	 lea	 eax, DWORD PTR $T513309[ebp]
  00127	50		 push	 eax
  00128	ff b6 70 01 00
	00		 push	 DWORD PTR [esi+368]
  0012e	89 5d fc	 mov	 DWORD PTR __$EHRec$[ebp+8], ebx
  00131	e8 00 00 00 00	 call	 ?GetSingleton@ioItemMaker@@SAAAV1@XZ ; ioItemMaker::GetSingleton
  00136	8b c8		 mov	 ecx, eax
  00138	e8 00 00 00 00	 call	 ?GetItemConst@ioItemMaker@@QBEPBVioItem@@KABVioHashString@@@Z ; ioItemMaker::GetItemConst
  0013d	8b 1d 00 00 00
	00		 mov	 ebx, DWORD PTR __imp_??1ioHashString@@QAE@XZ
  00143	83 4d fc ff	 or	 DWORD PTR __$EHRec$[ebp+8], -1
  00147	8d 4d dc	 lea	 ecx, DWORD PTR $T513309[ebp]
  0014a	89 45 ec	 mov	 DWORD PTR _pItem$511289[ebp], eax
  0014d	ff d3		 call	 ebx

; 645  : 			if( pItem )

  0014f	8b 45 ec	 mov	 eax, DWORD PTR _pItem$511289[ebp]
  00152	3b c7		 cmp	 eax, edi
  00154	0f 84 33 02 00
	00		 je	 $LN27@SetPresent

; 646  : 			{
; 647  : 				ioHashString szIcon = pItem->GetItemLargeIconName();

  0015a	05 14 02 00 00	 add	 eax, 532		; 00000214H
  0015f	50		 push	 eax
  00160	8d 4d 9c	 lea	 ecx, DWORD PTR _szIcon$511293[ebp]
  00163	ff 15 00 00 00
	00		 call	 DWORD PTR __imp_??0ioHashString@@QAE@ABV0@@Z

; 648  : 				if( !szIcon.IsEmpty() )

  00169	8d 4d 9c	 lea	 ecx, DWORD PTR _szIcon$511293[ebp]
  0016c	c7 45 fc 02 00
	00 00		 mov	 DWORD PTR __$EHRec$[ebp+8], 2
  00173	ff 15 00 00 00
	00		 call	 DWORD PTR __imp_?IsEmpty@ioHashString@@QBE_NXZ
  00179	84 c0		 test	 al, al
  0017b	75 19		 jne	 SHORT $LN19@SetPresent

; 649  : 				{
; 650  : 					m_pPresentIcon = g_UIImageSetMgr.CreateImageByFullName( szIcon );

  0017d	8d 45 9c	 lea	 eax, DWORD PTR _szIcon$511293[ebp]
  00180	57		 push	 edi
  00181	50		 push	 eax
  00182	ff 15 00 00 00
	00		 call	 DWORD PTR __imp_?GetSingleton@ioUIImageSetManager@@SAAAV1@XZ
  00188	8b c8		 mov	 ecx, eax
  0018a	ff 15 00 00 00
	00		 call	 DWORD PTR __imp_?CreateImageByFullName@ioUIImageSetManager@@QAEPAVioUIRenderImage@@ABVioHashString@@_N@Z
  00190	89 86 60 01 00
	00		 mov	 DWORD PTR [esi+352], eax
$LN19@SetPresent:

; 651  : 				}
; 652  : 			}

  00196	83 4d fc ff	 or	 DWORD PTR __$EHRec$[ebp+8], -1
  0019a	8d 4d 9c	 lea	 ecx, DWORD PTR _szIcon$511293[ebp]
  0019d	ff d3		 call	 ebx

; 653  : 		}
; 654  : 		break;

  0019f	e9 e9 01 00 00	 jmp	 $LN27@SetPresent
$LN18@SetPresent:

; 655  : 	case PRESENT_EXTRAITEM_BOX:
; 656  : 		{
; 657  : 			RandomMachineInfo *pInfo = g_ExtraItemInfoMgr.GetRandomMachineInfo( m_iPresentValue1 );

  001a4	ff b6 70 01 00
	00		 push	 DWORD PTR [esi+368]
  001aa	e8 00 00 00 00	 call	 ?GetSingleton@ioExtraItemInfoManager@@SAAAV1@XZ ; ioExtraItemInfoManager::GetSingleton
  001af	8b c8		 mov	 ecx, eax
  001b1	e8 00 00 00 00	 call	 ?GetRandomMachineInfo@ioExtraItemInfoManager@@QAEPAVRandomMachineInfo@@H@Z ; ioExtraItemInfoManager::GetRandomMachineInfo

; 658  : 			if( pInfo )

  001b6	3b c7		 cmp	 eax, edi
  001b8	0f 84 cf 01 00
	00		 je	 $LN27@SetPresent

; 659  : 			{
; 660  : 				ioHashString szIcon = pInfo->GetIconName();

  001be	83 c0 18	 add	 eax, 24			; 00000018H
  001c1	50		 push	 eax
  001c2	8d 4d 9c	 lea	 ecx, DWORD PTR _szIcon$511298[ebp]
  001c5	ff 15 00 00 00
	00		 call	 DWORD PTR __imp_??0ioHashString@@QAE@ABV0@@Z
  001cb	c7 45 fc 03 00
	00 00		 mov	 DWORD PTR __$EHRec$[ebp+8], 3
$LN64@SetPresent:

; 661  : 				if( !szIcon.IsEmpty() )

  001d2	8d 4d 9c	 lea	 ecx, DWORD PTR _szIcon$511298[ebp]
  001d5	ff 15 00 00 00
	00		 call	 DWORD PTR __imp_?IsEmpty@ioHashString@@QBE_NXZ
  001db	84 c0		 test	 al, al
  001dd	75 19		 jne	 SHORT $LN16@SetPresent

; 662  : 				{
; 663  : 					m_pPresentIcon = g_UIImageSetMgr.CreateImageByFullName( szIcon );

  001df	8d 45 9c	 lea	 eax, DWORD PTR _szIcon$511298[ebp]
  001e2	57		 push	 edi
  001e3	50		 push	 eax
  001e4	ff 15 00 00 00
	00		 call	 DWORD PTR __imp_?GetSingleton@ioUIImageSetManager@@SAAAV1@XZ
  001ea	8b c8		 mov	 ecx, eax
  001ec	ff 15 00 00 00
	00		 call	 DWORD PTR __imp_?CreateImageByFullName@ioUIImageSetManager@@QAEPAVioUIRenderImage@@ABVioHashString@@_N@Z
  001f2	89 86 60 01 00
	00		 mov	 DWORD PTR [esi+352], eax
$LN16@SetPresent:

; 664  : 				}
; 665  : 			}

  001f8	8d 4d 9c	 lea	 ecx, DWORD PTR _szIcon$511298[ebp]

; 666  : 		}
; 667  : 		break;

  001fb	e9 83 01 00 00	 jmp	 $LN63@SetPresent
$LN15@SetPresent:

; 668  : 	case PRESENT_RANDOM_DECO:
; 669  : 		{
; 670  : 			int iClassType = m_iPresentValue1 / 100000;
; 671  : 			int iSexType   = (m_iPresentValue1 % 100000) / FLOAT1000;

  00200	b8 e8 03 00 00	 mov	 eax, 1000		; 000003e8H
  00205	8b 9e 70 01 00
	00		 mov	 ebx, DWORD PTR [esi+368]
  0020b	89 45 f0	 mov	 DWORD PTR $T513343[ebp], eax
  0020e	8b c3		 mov	 eax, ebx
  00210	99		 cdq
  00211	b9 a0 86 01 00	 mov	 ecx, 100000		; 000186a0H
  00216	f7 f9		 idiv	 ecx
  00218	8b 45 f0	 mov	 eax, DWORD PTR $T513343[ebp]
  0021b	89 55 ec	 mov	 DWORD PTR tv517[ebp], edx
  0021e	db 45 ec	 fild	 DWORD PTR tv517[ebp]
  00221	db 45 f0	 fild	 DWORD PTR $T513343[ebp]

; 672  : 			int iDecoType  = m_iPresentValue1 % 1000;
; 673  : 			const DecoData &kData = g_DecorationPrice.GetDecoData( iSexType, iDecoType, m_iPresentValue2 );
; 674  : 			m_pPresentIcon = g_UIImageSetMgr.CreateImageByFullName( kData.m_szIcon );
; 675  : 		}
; 676  : 		break;

  00224	e9 69 fe ff ff	 jmp	 $LN67@SetPresent
$LN14@SetPresent:

; 677  : 	case PRESENT_GRADE_EXP:
; 678  : 		{
; 679  : 			m_pPresentIcon = g_UIImageSetMgr.CreateImageByFullName( ioHashString( "UIIconPack13#quest_001" ) );

  00229	68 00 00 00 00	 push	 OFFSET ??_C@_0BH@FLBLIBDA@UIIconPack13?$CDquest_001?$AA@
  0022e	8d 4d bc	 lea	 ecx, DWORD PTR $T513310[ebp]
  00231	ff 15 00 00 00
	00		 call	 DWORD PTR __imp_??0ioHashString@@QAE@PBD@Z
  00237	57		 push	 edi
  00238	50		 push	 eax
  00239	c7 45 fc 04 00
	00 00		 mov	 DWORD PTR __$EHRec$[ebp+8], 4
  00240	ff 15 00 00 00
	00		 call	 DWORD PTR __imp_?GetSingleton@ioUIImageSetManager@@SAAAV1@XZ
  00246	8b c8		 mov	 ecx, eax
  00248	ff 15 00 00 00
	00		 call	 DWORD PTR __imp_?CreateImageByFullName@ioUIImageSetManager@@QAEPAVioUIRenderImage@@ABVioHashString@@_N@Z
  0024e	8d 4d bc	 lea	 ecx, DWORD PTR $T513310[ebp]

; 680  : 		}
; 681  : 		break;

  00251	e9 27 01 00 00	 jmp	 $LN62@SetPresent
$LN13@SetPresent:

; 682  : 	case PRESENT_MEDALITEM:
; 683  : 		{
; 684  : 			const ioMedalItemInfoManager::ItemInfo *pItem = g_MedalItemMgr.GetItemInfo( m_iPresentValue1 );

  00256	ff b6 70 01 00
	00		 push	 DWORD PTR [esi+368]
  0025c	e8 00 00 00 00	 call	 ?GetSingleton@ioMedalItemInfoManager@@SAAAV1@XZ ; ioMedalItemInfoManager::GetSingleton
  00261	8b c8		 mov	 ecx, eax
  00263	e8 00 00 00 00	 call	 ?GetItemInfo@ioMedalItemInfoManager@@QAEPBUItemInfo@1@H@Z ; ioMedalItemInfoManager::GetItemInfo

; 685  : 			if( pItem )	

  00268	3b c7		 cmp	 eax, edi
  0026a	0f 84 1d 01 00
	00		 je	 $LN27@SetPresent

; 686  : 			{
; 687  : 				ioHashString szIcon = pItem->m_sIcon;

  00270	05 a8 01 00 00	 add	 eax, 424		; 000001a8H
  00275	50		 push	 eax
  00276	8d 4d 9c	 lea	 ecx, DWORD PTR _szIcon$511312[ebp]
  00279	ff 15 00 00 00
	00		 call	 DWORD PTR __imp_??0ioHashString@@QAE@ABV0@@Z
  0027f	c7 45 fc 05 00
	00 00		 mov	 DWORD PTR __$EHRec$[ebp+8], 5

; 688  : 				if( !szIcon.IsEmpty() )
; 689  : 				{
; 690  : 					m_pPresentIcon = g_UIImageSetMgr.CreateImageByFullName( szIcon );
; 691  : 				}
; 692  : 			}
; 693  : 		}
; 694  : 		break;

  00286	e9 47 ff ff ff	 jmp	 $LN64@SetPresent
$LN10@SetPresent:

; 695  : 	case PRESENT_ALCHEMIC_ITEM:
; 696  : 		{
; 697  : 			ioHashString szIcon = g_AlchemicMgr.GetAlchemicItemIcon( m_iPresentValue1 );

  0028b	ff b6 70 01 00
	00		 push	 DWORD PTR [esi+368]
  00291	8d 45 9c	 lea	 eax, DWORD PTR _szIcon$511315[ebp]
  00294	50		 push	 eax
  00295	e8 00 00 00 00	 call	 ?GetSingleton@ioAlchemicMgr@@SAAAV1@XZ ; ioAlchemicMgr::GetSingleton
  0029a	8b c8		 mov	 ecx, eax
  0029c	e8 00 00 00 00	 call	 ?GetAlchemicItemIcon@ioAlchemicMgr@@QAE?AVioHashString@@H@Z ; ioAlchemicMgr::GetAlchemicItemIcon
  002a1	c7 45 fc 06 00
	00 00		 mov	 DWORD PTR __$EHRec$[ebp+8], 6

; 698  : 			if( !szIcon.IsEmpty() )
; 699  : 			{
; 700  : 				m_pPresentIcon = g_UIImageSetMgr.CreateImageByFullName( szIcon );
; 701  : 			}
; 702  : 		}
; 703  : 		break;

  002a8	e9 25 ff ff ff	 jmp	 $LN64@SetPresent
$LN8@SetPresent:

; 704  : 	case PRESENT_PET:
; 705  : 		{
; 706  : 			int nPetRank = m_iPresentValue2%10000;

  002ad	8b 86 74 01 00
	00		 mov	 eax, DWORD PTR [esi+372]
  002b3	99		 cdq
  002b4	b9 10 27 00 00	 mov	 ecx, 10000		; 00002710H
  002b9	f7 f9		 idiv	 ecx

; 707  : 			ioHashString szIcon = g_PetInfoMgr.GetPetIcon( m_iPresentValue1, (PetRankType)nPetRank );

  002bb	8d 45 9c	 lea	 eax, DWORD PTR _szIcon$511320[ebp]
  002be	52		 push	 edx
  002bf	ff b6 70 01 00
	00		 push	 DWORD PTR [esi+368]
  002c5	50		 push	 eax
  002c6	e8 00 00 00 00	 call	 ?GetSingleton@ioPetInfoManager@@SAAAV1@XZ ; ioPetInfoManager::GetSingleton
  002cb	8b c8		 mov	 ecx, eax
  002cd	e8 00 00 00 00	 call	 ?GetPetIcon@ioPetInfoManager@@QAE?AVioHashString@@HW4PetRankType@@@Z ; ioPetInfoManager::GetPetIcon
  002d2	c7 45 fc 07 00
	00 00		 mov	 DWORD PTR __$EHRec$[ebp+8], 7

; 708  : 			if( !szIcon.IsEmpty() )
; 709  : 				m_pPresentIcon = g_UIImageSetMgr.CreateImageByFullName( szIcon );
; 710  : 		}
; 711  : 		break;

  002d9	e9 f4 fe ff ff	 jmp	 $LN64@SetPresent
$LN6@SetPresent:

; 712  : 	case PRESENT_COSTUME:
; 713  : 		{
; 714  : 			// UI  (  )
; 715  : 			ioHashString szIcon = g_CostumeInfoMgr.GetCostumeIcon( m_iPresentValue1 );

  002de	ff b6 70 01 00
	00		 push	 DWORD PTR [esi+368]
  002e4	8d 45 9c	 lea	 eax, DWORD PTR _szIcon$511325[ebp]
  002e7	50		 push	 eax
  002e8	e8 00 00 00 00	 call	 ?GetSingleton@ioCostumeInfoManager@@SAAAV1@XZ ; ioCostumeInfoManager::GetSingleton
  002ed	8b c8		 mov	 ecx, eax
  002ef	e8 00 00 00 00	 call	 ?GetCostumeIcon@ioCostumeInfoManager@@QAE?AVioHashString@@H@Z ; ioCostumeInfoManager::GetCostumeIcon
  002f4	c7 45 fc 08 00
	00 00		 mov	 DWORD PTR __$EHRec$[ebp+8], 8

; 716  : 			if( !szIcon.IsEmpty() )
; 717  : 				m_pPresentIcon = g_UIImageSetMgr.CreateImageByFullName( szIcon );
; 718  : 		}
; 719  : 		break;

  002fb	e9 d2 fe ff ff	 jmp	 $LN64@SetPresent
$LN4@SetPresent:

; 720  : 	case PRESENT_COSTUME_BOX:
; 721  : 		{
; 722  : 			CostumeShopInfo *pInfo = g_CostumeShopInfoMgr.GetCostumeMachineInfo( m_iPresentValue1 );

  00300	ff b6 70 01 00
	00		 push	 DWORD PTR [esi+368]
  00306	e8 00 00 00 00	 call	 ?GetSingleton@ioCostumeShopInfoManager@@SAAAV1@XZ ; ioCostumeShopInfoManager::GetSingleton
  0030b	8b c8		 mov	 ecx, eax
  0030d	e8 00 00 00 00	 call	 ?GetCostumeMachineInfo@ioCostumeShopInfoManager@@QAEPAVCostumeShopInfo@@H@Z ; ioCostumeShopInfoManager::GetCostumeMachineInfo

; 723  : 			if( pInfo )

  00312	3b c7		 cmp	 eax, edi
  00314	74 77		 je	 SHORT $LN27@SetPresent

; 724  : 			{
; 725  : 				ioHashString szIcon = pInfo->GetIconName();

  00316	83 c0 50	 add	 eax, 80			; 00000050H
  00319	50		 push	 eax
  0031a	8d 4d 8c	 lea	 ecx, DWORD PTR _szIcon$511331[ebp]
  0031d	ff 15 00 00 00
	00		 call	 DWORD PTR __imp_??0ioHashString@@QAE@ABV0@@Z

; 726  : 				if( !szIcon.IsEmpty() )

  00323	8d 4d 8c	 lea	 ecx, DWORD PTR _szIcon$511331[ebp]
  00326	c7 45 fc 09 00
	00 00		 mov	 DWORD PTR __$EHRec$[ebp+8], 9
  0032d	ff 15 00 00 00
	00		 call	 DWORD PTR __imp_?IsEmpty@ioHashString@@QBE_NXZ
  00333	84 c0		 test	 al, al
  00335	75 19		 jne	 SHORT $LN2@SetPresent

; 727  : 					m_pPresentIcon = g_UIImageSetMgr.CreateImageByFullName( szIcon );

  00337	8d 45 8c	 lea	 eax, DWORD PTR _szIcon$511331[ebp]
  0033a	57		 push	 edi
  0033b	50		 push	 eax
  0033c	ff 15 00 00 00
	00		 call	 DWORD PTR __imp_?GetSingleton@ioUIImageSetManager@@SAAAV1@XZ
  00342	8b c8		 mov	 ecx, eax
  00344	ff 15 00 00 00
	00		 call	 DWORD PTR __imp_?CreateImageByFullName@ioUIImageSetManager@@QAEPAVioUIRenderImage@@ABVioHashString@@_N@Z
  0034a	89 86 60 01 00
	00		 mov	 DWORD PTR [esi+352], eax
$LN2@SetPresent:

; 728  : 			}

  00350	8d 4d 8c	 lea	 ecx, DWORD PTR _szIcon$511331[ebp]

; 729  : 		}
; 730  : 		break;

  00353	eb 2e		 jmp	 SHORT $LN63@SetPresent
$LN1@SetPresent:

; 731  : 	case PRESENT_BONUS_CASH:
; 732  : 		{
; 733  : 			m_pPresentIcon = g_UIImageSetMgr.CreateImageByFullName( ioHashString( "UIIconPack101#Cash" ) );

  00355	68 00 00 00 00	 push	 OFFSET ??_C@_0BD@HEINEDGN@UIIconPack101?$CDCash?$AA@
  0035a	8d 4d ac	 lea	 ecx, DWORD PTR $T513311[ebp]
  0035d	ff 15 00 00 00
	00		 call	 DWORD PTR __imp_??0ioHashString@@QAE@PBD@Z
  00363	57		 push	 edi
  00364	50		 push	 eax
  00365	c7 45 fc 0a 00
	00 00		 mov	 DWORD PTR __$EHRec$[ebp+8], 10 ; 0000000aH
  0036c	ff 15 00 00 00
	00		 call	 DWORD PTR __imp_?GetSingleton@ioUIImageSetManager@@SAAAV1@XZ
  00372	8b c8		 mov	 ecx, eax
  00374	ff 15 00 00 00
	00		 call	 DWORD PTR __imp_?CreateImageByFullName@ioUIImageSetManager@@QAEPAVioUIRenderImage@@ABVioHashString@@_N@Z
  0037a	8d 4d ac	 lea	 ecx, DWORD PTR $T513311[ebp]
$LN62@SetPresent:
  0037d	89 86 60 01 00
	00		 mov	 DWORD PTR [esi+352], eax
$LN63@SetPresent:
  00383	83 4d fc ff	 or	 DWORD PTR __$EHRec$[ebp+8], -1
  00387	ff 15 00 00 00
	00		 call	 DWORD PTR __imp_??1ioHashString@@QAE@XZ
$LN27@SetPresent:

; 734  : 		}
; 735  : 		break;
; 736  : 	}
; 737  : }

  0038d	e8 00 00 00 00	 call	 __EH_epilog3
  00392	c3		 ret	 0
  00393	90		 npad	 1
$LN68@SetPresent:
  00394	00 00 00 00	 DD	 $LN26@SetPresent
  00398	00 00 00 00	 DD	 $LN25@SetPresent
  0039c	00 00 00 00	 DD	 $LN24@SetPresent
  003a0	00 00 00 00	 DD	 $LN22@SetPresent
  003a4	00 00 00 00	 DD	 $LN21@SetPresent
  003a8	00 00 00 00	 DD	 $LN18@SetPresent
  003ac	00 00 00 00	 DD	 $LN15@SetPresent
  003b0	00 00 00 00	 DD	 $LN14@SetPresent
  003b4	00 00 00 00	 DD	 $LN13@SetPresent
  003b8	00 00 00 00	 DD	 $LN10@SetPresent
  003bc	00 00 00 00	 DD	 $LN8@SetPresent
  003c0	00 00 00 00	 DD	 $LN6@SetPresent
  003c4	00 00 00 00	 DD	 $LN1@SetPresent
  003c8	00 00 00 00	 DD	 $LN21@SetPresent
  003cc	00 00 00 00	 DD	 $LN4@SetPresent
_TEXT	ENDS
;	COMDAT text$x
text$x	SEGMENT
__unwindfunclet$?SetPresentIcon@SendPresentConfirmWnd@@IAEXXZ$0:
  00000	8d 4d cc	 lea	 ecx, DWORD PTR $T513308[ebp]
  00003	ff 25 00 00 00
	00		 jmp	 DWORD PTR __imp_??1ioHashString@@QAE@XZ
__unwindfunclet$?SetPresentIcon@SendPresentConfirmWnd@@IAEXXZ$1:
  00009	8d 4d dc	 lea	 ecx, DWORD PTR $T513309[ebp]
  0000c	ff 25 00 00 00
	00		 jmp	 DWORD PTR __imp_??1ioHashString@@QAE@XZ
__unwindfunclet$?SetPresentIcon@SendPresentConfirmWnd@@IAEXXZ$2:
  00012	8d 4d 9c	 lea	 ecx, DWORD PTR _szIcon$511293[ebp]
  00015	ff 25 00 00 00
	00		 jmp	 DWORD PTR __imp_??1ioHashString@@QAE@XZ
__unwindfunclet$?SetPresentIcon@SendPresentConfirmWnd@@IAEXXZ$3:
  0001b	8d 4d 9c	 lea	 ecx, DWORD PTR _szIcon$511298[ebp]
  0001e	ff 25 00 00 00
	00		 jmp	 DWORD PTR __imp_??1ioHashString@@QAE@XZ
__unwindfunclet$?SetPresentIcon@SendPresentConfirmWnd@@IAEXXZ$4:
  00024	8d 4d bc	 lea	 ecx, DWORD PTR $T513310[ebp]
  00027	ff 25 00 00 00
	00		 jmp	 DWORD PTR __imp_??1ioHashString@@QAE@XZ
__unwindfunclet$?SetPresentIcon@SendPresentConfirmWnd@@IAEXXZ$5:
  0002d	8d 4d 9c	 lea	 ecx, DWORD PTR _szIcon$511312[ebp]
  00030	ff 25 00 00 00
	00		 jmp	 DWORD PTR __imp_??1ioHashString@@QAE@XZ
__unwindfunclet$?SetPresentIcon@SendPresentConfirmWnd@@IAEXXZ$6:
  00036	8d 4d 9c	 lea	 ecx, DWORD PTR _szIcon$511315[ebp]
  00039	ff 25 00 00 00
	00		 jmp	 DWORD PTR __imp_??1ioHashString@@QAE@XZ
__unwindfunclet$?SetPresentIcon@SendPresentConfirmWnd@@IAEXXZ$7:
  0003f	8d 4d 9c	 lea	 ecx, DWORD PTR _szIcon$511320[ebp]
  00042	ff 25 00 00 00
	00		 jmp	 DWORD PTR __imp_??1ioHashString@@QAE@XZ
__unwindfunclet$?SetPresentIcon@SendPresentConfirmWnd@@IAEXXZ$8:
  00048	8d 4d 9c	 lea	 ecx, DWORD PTR _szIcon$511325[ebp]
  0004b	ff 25 00 00 00
	00		 jmp	 DWORD PTR __imp_??1ioHashString@@QAE@XZ
__unwindfunclet$?SetPresentIcon@SendPresentConfirmWnd@@IAEXXZ$9:
  00051	8d 4d 8c	 lea	 ecx, DWORD PTR _szIcon$511331[ebp]
  00054	ff 25 00 00 00
	00		 jmp	 DWORD PTR __imp_??1ioHashString@@QAE@XZ
__unwindfunclet$?SetPresentIcon@SendPresentConfirmWnd@@IAEXXZ$10:
  0005a	8d 4d ac	 lea	 ecx, DWORD PTR $T513311[ebp]
  0005d	ff 25 00 00 00
	00		 jmp	 DWORD PTR __imp_??1ioHashString@@QAE@XZ
__ehhandler$?SetPresentIcon@SendPresentConfirmWnd@@IAEXXZ:
  00063	8b 54 24 08	 mov	 edx, DWORD PTR [esp+8]
  00067	8d 42 0c	 lea	 eax, DWORD PTR [edx+12]
  0006a	8b 4a 88	 mov	 ecx, DWORD PTR [edx-120]
  0006d	33 c8		 xor	 ecx, eax
  0006f	e8 00 00 00 00	 call	 @__security_check_cookie@4
  00074	b8 00 00 00 00	 mov	 eax, OFFSET __ehfuncinfo$?SetPresentIcon@SendPresentConfirmWnd@@IAEXXZ
  00079	e9 00 00 00 00	 jmp	 ___CxxFrameHandler3
text$x	ENDS
?SetPresentIcon@SendPresentConfirmWnd@@IAEXXZ ENDP	; SendPresentConfirmWnd::SetPresentIcon
PUBLIC	__$ArrayPad$
PUBLIC	??$GetIntAttribute_e@$08@ioXMLElement@@QBEHAAY08$$CBD@Z ; ioXMLElement::GetIntAttribute_e<9>
EXTRN	__imp_?GetIntAttribute@ioXMLElement@@QBEHPBD@Z:PROC
; Function compile flags: /Ogsp
; File d:\lost saga for developer\youtube\tutorial\source\src\io3dengine\ioxmlelement.h
;	COMDAT ??$GetIntAttribute_e@$08@ioXMLElement@@QBEHAAY08$$CBD@Z
_TEXT	SEGMENT
__k$ = -20						; size = 9
__$ArrayPad$ = -4					; size = 4
_k$ = 8							; size = 4
??$GetIntAttribute_e@$08@ioXMLElement@@QBEHAAY08$$CBD@Z PROC ; ioXMLElement::GetIntAttribute_e<9>, COMDAT
; _this$ = ecx

; 86   : 	{

  00000	55		 push	 ebp
  00001	8b ec		 mov	 ebp, esp
  00003	83 ec 14	 sub	 esp, 20			; 00000014H
  00006	a1 00 00 00 00	 mov	 eax, DWORD PTR ___security_cookie
  0000b	33 c5		 xor	 eax, ebp
  0000d	89 45 fc	 mov	 DWORD PTR __$ArrayPad$[ebp], eax
  00010	8b 45 08	 mov	 eax, DWORD PTR _k$[ebp]

; 87   : 		_ENCSTR(k, _k);

  00013	8a 10		 mov	 dl, BYTE PTR [eax]
  00015	84 d2		 test	 dl, dl
  00017	0f 84 ee 00 00
	00		 je	 $LN96@GetIntAttr
  0001d	80 f2 ed	 xor	 dl, -19			; ffffffedH
  00020	88 55 ec	 mov	 BYTE PTR __k$[ebp], dl
  00023	8a 50 01	 mov	 dl, BYTE PTR [eax+1]
  00026	84 d2		 test	 dl, dl
  00028	0f 84 d7 00 00
	00		 je	 $LN95@GetIntAttr
  0002e	80 f2 ec	 xor	 dl, -20			; ffffffecH
  00031	88 55 ed	 mov	 BYTE PTR __k$[ebp+1], dl
  00034	8a 50 02	 mov	 dl, BYTE PTR [eax+2]
  00037	84 d2		 test	 dl, dl
  00039	0f 84 c0 00 00
	00		 je	 $LN94@GetIntAttr
  0003f	80 f2 eb	 xor	 dl, -21			; ffffffebH
  00042	88 55 ee	 mov	 BYTE PTR __k$[ebp+2], dl
  00045	8a 50 03	 mov	 dl, BYTE PTR [eax+3]
  00048	84 d2		 test	 dl, dl
  0004a	0f 84 a9 00 00
	00		 je	 $LN93@GetIntAttr
  00050	80 f2 ea	 xor	 dl, -22			; ffffffeaH
  00053	88 55 ef	 mov	 BYTE PTR __k$[ebp+3], dl
  00056	8a 50 04	 mov	 dl, BYTE PTR [eax+4]
  00059	84 d2		 test	 dl, dl
  0005b	0f 84 92 00 00
	00		 je	 $LN92@GetIntAttr
  00061	80 f2 ed	 xor	 dl, -19			; ffffffedH
  00064	88 55 f0	 mov	 BYTE PTR __k$[ebp+4], dl
  00067	8a 50 05	 mov	 dl, BYTE PTR [eax+5]
  0006a	84 d2		 test	 dl, dl
  0006c	74 7f		 je	 SHORT $LN91@GetIntAttr
  0006e	80 f2 ec	 xor	 dl, -20			; ffffffecH
  00071	88 55 f1	 mov	 BYTE PTR __k$[ebp+5], dl
  00074	8a 50 06	 mov	 dl, BYTE PTR [eax+6]
  00077	84 d2		 test	 dl, dl
  00079	74 6c		 je	 SHORT $LN90@GetIntAttr
  0007b	80 f2 eb	 xor	 dl, -21			; ffffffebH
  0007e	88 55 f2	 mov	 BYTE PTR __k$[ebp+6], dl
  00081	8a 50 07	 mov	 dl, BYTE PTR [eax+7]
  00084	84 d2		 test	 dl, dl
  00086	74 59		 je	 SHORT $LN89@GetIntAttr
  00088	80 f2 ea	 xor	 dl, -22			; ffffffeaH
  0008b	80 78 08 00	 cmp	 BYTE PTR [eax+8], 0
  0008f	88 55 f3	 mov	 BYTE PTR __k$[ebp+7], dl
  00092	74 7b		 je	 SHORT $LN1@GetIntAttr
  00094	8a 50 09	 mov	 dl, BYTE PTR [eax+9]
  00097	84 d2		 test	 dl, dl
  00099	74 40		 je	 SHORT $LN87@GetIntAttr
  0009b	80 f2 ec	 xor	 dl, -20			; ffffffecH
  0009e	88 55 f5	 mov	 BYTE PTR __k$[ebp+9], dl
  000a1	8a 50 0a	 mov	 dl, BYTE PTR [eax+10]
  000a4	84 d2		 test	 dl, dl
  000a6	74 2d		 je	 SHORT $LN86@GetIntAttr
  000a8	80 f2 eb	 xor	 dl, -21			; ffffffebH
  000ab	88 55 f6	 mov	 BYTE PTR __k$[ebp+10], dl
  000ae	8a 50 0b	 mov	 dl, BYTE PTR [eax+11]
  000b1	84 d2		 test	 dl, dl
  000b3	74 1a		 je	 SHORT $LN85@GetIntAttr
  000b5	8a 40 0c	 mov	 al, BYTE PTR [eax+12]
  000b8	80 f2 ea	 xor	 dl, -22			; ffffffeaH
  000bb	88 55 f7	 mov	 BYTE PTR __k$[ebp+11], dl
  000be	84 c0		 test	 al, al
  000c0	74 07		 je	 SHORT $LN84@GetIntAttr
  000c2	34 ed		 xor	 al, -19			; ffffffedH
  000c4	88 45 f8	 mov	 BYTE PTR __k$[ebp+12], al
  000c7	eb 46		 jmp	 SHORT $LN1@GetIntAttr
$LN84@GetIntAttr:
  000c9	c6 45 f8 ed	 mov	 BYTE PTR __k$[ebp+12], -19 ; ffffffedH
  000cd	eb 40		 jmp	 SHORT $LN1@GetIntAttr
$LN85@GetIntAttr:
  000cf	c6 45 f7 ea	 mov	 BYTE PTR __k$[ebp+11], -22 ; ffffffeaH
  000d3	eb 3a		 jmp	 SHORT $LN1@GetIntAttr
$LN86@GetIntAttr:
  000d5	c6 45 f6 eb	 mov	 BYTE PTR __k$[ebp+10], -21 ; ffffffebH
  000d9	eb 34		 jmp	 SHORT $LN1@GetIntAttr
$LN87@GetIntAttr:
  000db	c6 45 f5 ec	 mov	 BYTE PTR __k$[ebp+9], -20 ; ffffffecH
  000df	eb 2e		 jmp	 SHORT $LN1@GetIntAttr
$LN89@GetIntAttr:
  000e1	c6 45 f3 ea	 mov	 BYTE PTR __k$[ebp+7], -22 ; ffffffeaH
  000e5	eb 28		 jmp	 SHORT $LN1@GetIntAttr
$LN90@GetIntAttr:
  000e7	c6 45 f2 eb	 mov	 BYTE PTR __k$[ebp+6], -21 ; ffffffebH
  000eb	eb 22		 jmp	 SHORT $LN1@GetIntAttr
$LN91@GetIntAttr:
  000ed	c6 45 f1 ec	 mov	 BYTE PTR __k$[ebp+5], -20 ; ffffffecH
  000f1	eb 1c		 jmp	 SHORT $LN1@GetIntAttr
$LN92@GetIntAttr:
  000f3	c6 45 f0 ed	 mov	 BYTE PTR __k$[ebp+4], -19 ; ffffffedH
  000f7	eb 16		 jmp	 SHORT $LN1@GetIntAttr
$LN93@GetIntAttr:
  000f9	c6 45 ef ea	 mov	 BYTE PTR __k$[ebp+3], -22 ; ffffffeaH
  000fd	eb 10		 jmp	 SHORT $LN1@GetIntAttr
$LN94@GetIntAttr:
  000ff	c6 45 ee eb	 mov	 BYTE PTR __k$[ebp+2], -21 ; ffffffebH
  00103	eb 0a		 jmp	 SHORT $LN1@GetIntAttr
$LN95@GetIntAttr:
  00105	c6 45 ed ec	 mov	 BYTE PTR __k$[ebp+1], -20 ; ffffffecH
  00109	eb 04		 jmp	 SHORT $LN1@GetIntAttr
$LN96@GetIntAttr:
  0010b	c6 45 ec ed	 mov	 BYTE PTR __k$[ebp], -19	; ffffffedH
$LN1@GetIntAttr:
  0010f	6a 02		 push	 2
  00111	8d 45 ec	 lea	 eax, DWORD PTR __k$[ebp]
  00114	c6 45 f4 00	 mov	 BYTE PTR __k$[ebp+8], 0
  00118	5a		 pop	 edx
$LL104@GetIntAttr:
  00119	81 30 ed ec eb
	ea		 xor	 DWORD PTR [eax], -353637139 ; eaebecedH
  0011f	83 c0 04	 add	 eax, 4
  00122	4a		 dec	 edx
  00123	75 f4		 jne	 SHORT $LL104@GetIntAttr

; 88   : 		return GetIntAttribute(_k);

  00125	8d 45 ec	 lea	 eax, DWORD PTR __k$[ebp]
  00128	50		 push	 eax
  00129	ff 15 00 00 00
	00		 call	 DWORD PTR __imp_?GetIntAttribute@ioXMLElement@@QBEHPBD@Z

; 89   : 	}

  0012f	8b 4d fc	 mov	 ecx, DWORD PTR __$ArrayPad$[ebp]
  00132	33 cd		 xor	 ecx, ebp
  00134	e8 00 00 00 00	 call	 @__security_check_cookie@4
  00139	c9		 leave
  0013a	c2 04 00	 ret	 4
??$GetIntAttribute_e@$08@ioXMLElement@@QBEHAAY08$$CBD@Z ENDP ; ioXMLElement::GetIntAttribute_e<9>
_TEXT	ENDS
PUBLIC	__$ArrayPad$
PUBLIC	??$GetIntAttribute_e@$09@ioXMLElement@@QBEHAAY09$$CBD@Z ; ioXMLElement::GetIntAttribute_e<10>
; Function compile flags: /Ogsp
;	COMDAT ??$GetIntAttribute_e@$09@ioXMLElement@@QBEHAAY09$$CBD@Z
_TEXT	SEGMENT
__k$ = -20						; size = 10
__$ArrayPad$ = -4					; size = 4
_k$ = 8							; size = 4
??$GetIntAttribute_e@$09@ioXMLElement@@QBEHAAY09$$CBD@Z PROC ; ioXMLElement::GetIntAttribute_e<10>, COMDAT
; _this$ = ecx

; 86   : 	{

  00000	55		 push	 ebp
  00001	8b ec		 mov	 ebp, esp
  00003	83 ec 14	 sub	 esp, 20			; 00000014H
  00006	a1 00 00 00 00	 mov	 eax, DWORD PTR ___security_cookie
  0000b	33 c5		 xor	 eax, ebp
  0000d	89 45 fc	 mov	 DWORD PTR __$ArrayPad$[ebp], eax
  00010	8b 45 08	 mov	 eax, DWORD PTR _k$[ebp]

; 87   : 		_ENCSTR(k, _k);

  00013	8a 10		 mov	 dl, BYTE PTR [eax]
  00015	84 d2		 test	 dl, dl
  00017	0f 84 0d 01 00
	00		 je	 $LN96@GetIntAttr@2
  0001d	80 f2 ed	 xor	 dl, -19			; ffffffedH
  00020	88 55 ec	 mov	 BYTE PTR __k$[ebp], dl
  00023	8a 50 01	 mov	 dl, BYTE PTR [eax+1]
  00026	84 d2		 test	 dl, dl
  00028	0f 84 f6 00 00
	00		 je	 $LN95@GetIntAttr@2
  0002e	80 f2 ec	 xor	 dl, -20			; ffffffecH
  00031	88 55 ed	 mov	 BYTE PTR __k$[ebp+1], dl
  00034	8a 50 02	 mov	 dl, BYTE PTR [eax+2]
  00037	84 d2		 test	 dl, dl
  00039	0f 84 df 00 00
	00		 je	 $LN94@GetIntAttr@2
  0003f	80 f2 eb	 xor	 dl, -21			; ffffffebH
  00042	88 55 ee	 mov	 BYTE PTR __k$[ebp+2], dl
  00045	8a 50 03	 mov	 dl, BYTE PTR [eax+3]
  00048	84 d2		 test	 dl, dl
  0004a	0f 84 c8 00 00
	00		 je	 $LN93@GetIntAttr@2
  00050	80 f2 ea	 xor	 dl, -22			; ffffffeaH
  00053	88 55 ef	 mov	 BYTE PTR __k$[ebp+3], dl
  00056	8a 50 04	 mov	 dl, BYTE PTR [eax+4]
  00059	84 d2		 test	 dl, dl
  0005b	0f 84 b1 00 00
	00		 je	 $LN92@GetIntAttr@2
  00061	80 f2 ed	 xor	 dl, -19			; ffffffedH
  00064	88 55 f0	 mov	 BYTE PTR __k$[ebp+4], dl
  00067	8a 50 05	 mov	 dl, BYTE PTR [eax+5]
  0006a	84 d2		 test	 dl, dl
  0006c	0f 84 9a 00 00
	00		 je	 $LN91@GetIntAttr@2
  00072	80 f2 ec	 xor	 dl, -20			; ffffffecH
  00075	88 55 f1	 mov	 BYTE PTR __k$[ebp+5], dl
  00078	8a 50 06	 mov	 dl, BYTE PTR [eax+6]
  0007b	84 d2		 test	 dl, dl
  0007d	0f 84 83 00 00
	00		 je	 $LN90@GetIntAttr@2
  00083	80 f2 eb	 xor	 dl, -21			; ffffffebH
  00086	88 55 f2	 mov	 BYTE PTR __k$[ebp+6], dl
  00089	8a 50 07	 mov	 dl, BYTE PTR [eax+7]
  0008c	84 d2		 test	 dl, dl
  0008e	74 70		 je	 SHORT $LN89@GetIntAttr@2
  00090	80 f2 ea	 xor	 dl, -22			; ffffffeaH
  00093	88 55 f3	 mov	 BYTE PTR __k$[ebp+7], dl
  00096	8a 50 08	 mov	 dl, BYTE PTR [eax+8]
  00099	84 d2		 test	 dl, dl
  0009b	74 5d		 je	 SHORT $LN88@GetIntAttr@2
  0009d	80 f2 ed	 xor	 dl, -19			; ffffffedH
  000a0	80 78 09 00	 cmp	 BYTE PTR [eax+9], 0
  000a4	88 55 f4	 mov	 BYTE PTR __k$[ebp+8], dl
  000a7	0f 84 81 00 00
	00		 je	 $LN1@GetIntAttr@2
  000ad	8a 50 0a	 mov	 dl, BYTE PTR [eax+10]
  000b0	84 d2		 test	 dl, dl
  000b2	74 40		 je	 SHORT $LN86@GetIntAttr@2
  000b4	80 f2 eb	 xor	 dl, -21			; ffffffebH
  000b7	88 55 f6	 mov	 BYTE PTR __k$[ebp+10], dl
  000ba	8a 50 0b	 mov	 dl, BYTE PTR [eax+11]
  000bd	84 d2		 test	 dl, dl
  000bf	74 2d		 je	 SHORT $LN85@GetIntAttr@2
  000c1	80 f2 ea	 xor	 dl, -22			; ffffffeaH
  000c4	88 55 f7	 mov	 BYTE PTR __k$[ebp+11], dl
  000c7	8a 50 0c	 mov	 dl, BYTE PTR [eax+12]
  000ca	84 d2		 test	 dl, dl
  000cc	74 1a		 je	 SHORT $LN84@GetIntAttr@2
  000ce	8a 40 0d	 mov	 al, BYTE PTR [eax+13]
  000d1	80 f2 ed	 xor	 dl, -19			; ffffffedH
  000d4	88 55 f8	 mov	 BYTE PTR __k$[ebp+12], dl
  000d7	84 c0		 test	 al, al
  000d9	74 07		 je	 SHORT $LN83@GetIntAttr@2
  000db	34 ec		 xor	 al, -20			; ffffffecH
  000dd	88 45 f9	 mov	 BYTE PTR __k$[ebp+13], al
  000e0	eb 4c		 jmp	 SHORT $LN1@GetIntAttr@2
$LN83@GetIntAttr@2:
  000e2	c6 45 f9 ec	 mov	 BYTE PTR __k$[ebp+13], -20 ; ffffffecH
  000e6	eb 46		 jmp	 SHORT $LN1@GetIntAttr@2
$LN84@GetIntAttr@2:
  000e8	c6 45 f8 ed	 mov	 BYTE PTR __k$[ebp+12], -19 ; ffffffedH
  000ec	eb 40		 jmp	 SHORT $LN1@GetIntAttr@2
$LN85@GetIntAttr@2:
  000ee	c6 45 f7 ea	 mov	 BYTE PTR __k$[ebp+11], -22 ; ffffffeaH
  000f2	eb 3a		 jmp	 SHORT $LN1@GetIntAttr@2
$LN86@GetIntAttr@2:
  000f4	c6 45 f6 eb	 mov	 BYTE PTR __k$[ebp+10], -21 ; ffffffebH
  000f8	eb 34		 jmp	 SHORT $LN1@GetIntAttr@2
$LN88@GetIntAttr@2:
  000fa	c6 45 f4 ed	 mov	 BYTE PTR __k$[ebp+8], -19 ; ffffffedH
  000fe	eb 2e		 jmp	 SHORT $LN1@GetIntAttr@2
$LN89@GetIntAttr@2:
  00100	c6 45 f3 ea	 mov	 BYTE PTR __k$[ebp+7], -22 ; ffffffeaH
  00104	eb 28		 jmp	 SHORT $LN1@GetIntAttr@2
$LN90@GetIntAttr@2:
  00106	c6 45 f2 eb	 mov	 BYTE PTR __k$[ebp+6], -21 ; ffffffebH
  0010a	eb 22		 jmp	 SHORT $LN1@GetIntAttr@2
$LN91@GetIntAttr@2:
  0010c	c6 45 f1 ec	 mov	 BYTE PTR __k$[ebp+5], -20 ; ffffffecH
  00110	eb 1c		 jmp	 SHORT $LN1@GetIntAttr@2
$LN92@GetIntAttr@2:
  00112	c6 45 f0 ed	 mov	 BYTE PTR __k$[ebp+4], -19 ; ffffffedH
  00116	eb 16		 jmp	 SHORT $LN1@GetIntAttr@2
$LN93@GetIntAttr@2:
  00118	c6 45 ef ea	 mov	 BYTE PTR __k$[ebp+3], -22 ; ffffffeaH
  0011c	eb 10		 jmp	 SHORT $LN1@GetIntAttr@2
$LN94@GetIntAttr@2:
  0011e	c6 45 ee eb	 mov	 BYTE PTR __k$[ebp+2], -21 ; ffffffebH
  00122	eb 0a		 jmp	 SHORT $LN1@GetIntAttr@2
$LN95@GetIntAttr@2:
  00124	c6 45 ed ec	 mov	 BYTE PTR __k$[ebp+1], -20 ; ffffffecH
  00128	eb 04		 jmp	 SHORT $LN1@GetIntAttr@2
$LN96@GetIntAttr@2:
  0012a	c6 45 ec ed	 mov	 BYTE PTR __k$[ebp], -19	; ffffffedH
$LN1@GetIntAttr@2:
  0012e	6a 02		 push	 2
  00130	8d 45 ec	 lea	 eax, DWORD PTR __k$[ebp]
  00133	c6 45 f5 00	 mov	 BYTE PTR __k$[ebp+9], 0
  00137	5a		 pop	 edx
$LL104@GetIntAttr@2:
  00138	81 30 ed ec eb
	ea		 xor	 DWORD PTR [eax], -353637139 ; eaebecedH
  0013e	83 c0 04	 add	 eax, 4
  00141	4a		 dec	 edx
  00142	75 f4		 jne	 SHORT $LL104@GetIntAttr@2
  00144	80 75 f4 ed	 xor	 BYTE PTR __k$[ebp+8], -19 ; ffffffedH

; 88   : 		return GetIntAttribute(_k);

  00148	8d 45 ec	 lea	 eax, DWORD PTR __k$[ebp]
  0014b	50		 push	 eax
  0014c	ff 15 00 00 00
	00		 call	 DWORD PTR __imp_?GetIntAttribute@ioXMLElement@@QBEHPBD@Z

; 89   : 	}

  00152	8b 4d fc	 mov	 ecx, DWORD PTR __$ArrayPad$[ebp]
  00155	33 cd		 xor	 ecx, ebp
  00157	e8 00 00 00 00	 call	 @__security_check_cookie@4
  0015c	c9		 leave
  0015d	c2 04 00	 ret	 4
??$GetIntAttribute_e@$09@ioXMLElement@@QBEHAAY09$$CBD@Z ENDP ; ioXMLElement::GetIntAttribute_e<10>
_TEXT	ENDS
PUBLIC	__$ArrayPad$
PUBLIC	??$GetIntAttribute_e@$05@ioXMLElement@@QBEHAAY05$$CBD@Z ; ioXMLElement::GetIntAttribute_e<6>
; Function compile flags: /Ogsp
;	COMDAT ??$GetIntAttribute_e@$05@ioXMLElement@@QBEHAAY05$$CBD@Z
_TEXT	SEGMENT
__k$ = -16						; size = 6
__$ArrayPad$ = -4					; size = 4
_k$ = 8							; size = 4
??$GetIntAttribute_e@$05@ioXMLElement@@QBEHAAY05$$CBD@Z PROC ; ioXMLElement::GetIntAttribute_e<6>, COMDAT
; _this$ = ecx

; 86   : 	{

  00000	55		 push	 ebp
  00001	8b ec		 mov	 ebp, esp
  00003	83 ec 10	 sub	 esp, 16			; 00000010H
  00006	a1 00 00 00 00	 mov	 eax, DWORD PTR ___security_cookie
  0000b	33 c5		 xor	 eax, ebp
  0000d	89 45 fc	 mov	 DWORD PTR __$ArrayPad$[ebp], eax
  00010	8b 45 08	 mov	 eax, DWORD PTR _k$[ebp]

; 87   : 		_ENCSTR(k, _k);

  00013	8a 10		 mov	 dl, BYTE PTR [eax]
  00015	84 d2		 test	 dl, dl
  00017	0f 84 a9 00 00
	00		 je	 $LN96@GetIntAttr@3
  0001d	80 f2 ed	 xor	 dl, -19			; ffffffedH
  00020	88 55 f0	 mov	 BYTE PTR __k$[ebp], dl
  00023	8a 50 01	 mov	 dl, BYTE PTR [eax+1]
  00026	84 d2		 test	 dl, dl
  00028	0f 84 92 00 00
	00		 je	 $LN95@GetIntAttr@3
  0002e	80 f2 ec	 xor	 dl, -20			; ffffffecH
  00031	88 55 f1	 mov	 BYTE PTR __k$[ebp+1], dl
  00034	8a 50 02	 mov	 dl, BYTE PTR [eax+2]
  00037	84 d2		 test	 dl, dl
  00039	74 7f		 je	 SHORT $LN94@GetIntAttr@3
  0003b	80 f2 eb	 xor	 dl, -21			; ffffffebH
  0003e	88 55 f2	 mov	 BYTE PTR __k$[ebp+2], dl
  00041	8a 50 03	 mov	 dl, BYTE PTR [eax+3]
  00044	84 d2		 test	 dl, dl
  00046	74 6c		 je	 SHORT $LN93@GetIntAttr@3
  00048	80 f2 ea	 xor	 dl, -22			; ffffffeaH
  0004b	88 55 f3	 mov	 BYTE PTR __k$[ebp+3], dl
  0004e	8a 50 04	 mov	 dl, BYTE PTR [eax+4]
  00051	84 d2		 test	 dl, dl
  00053	74 59		 je	 SHORT $LN92@GetIntAttr@3
  00055	80 f2 ed	 xor	 dl, -19			; ffffffedH
  00058	80 78 05 00	 cmp	 BYTE PTR [eax+5], 0
  0005c	88 55 f4	 mov	 BYTE PTR __k$[ebp+4], dl
  0005f	74 69		 je	 SHORT $LN1@GetIntAttr@3
  00061	8a 50 06	 mov	 dl, BYTE PTR [eax+6]
  00064	84 d2		 test	 dl, dl
  00066	74 40		 je	 SHORT $LN90@GetIntAttr@3
  00068	80 f2 eb	 xor	 dl, -21			; ffffffebH
  0006b	88 55 f6	 mov	 BYTE PTR __k$[ebp+6], dl
  0006e	8a 50 07	 mov	 dl, BYTE PTR [eax+7]
  00071	84 d2		 test	 dl, dl
  00073	74 2d		 je	 SHORT $LN89@GetIntAttr@3
  00075	80 f2 ea	 xor	 dl, -22			; ffffffeaH
  00078	88 55 f7	 mov	 BYTE PTR __k$[ebp+7], dl
  0007b	8a 50 08	 mov	 dl, BYTE PTR [eax+8]
  0007e	84 d2		 test	 dl, dl
  00080	74 1a		 je	 SHORT $LN88@GetIntAttr@3
  00082	8a 40 09	 mov	 al, BYTE PTR [eax+9]
  00085	80 f2 ed	 xor	 dl, -19			; ffffffedH
  00088	88 55 f8	 mov	 BYTE PTR __k$[ebp+8], dl
  0008b	84 c0		 test	 al, al
  0008d	74 07		 je	 SHORT $LN87@GetIntAttr@3
  0008f	34 ec		 xor	 al, -20			; ffffffecH
  00091	88 45 f9	 mov	 BYTE PTR __k$[ebp+9], al
  00094	eb 34		 jmp	 SHORT $LN1@GetIntAttr@3
$LN87@GetIntAttr@3:
  00096	c6 45 f9 ec	 mov	 BYTE PTR __k$[ebp+9], -20 ; ffffffecH
  0009a	eb 2e		 jmp	 SHORT $LN1@GetIntAttr@3
$LN88@GetIntAttr@3:
  0009c	c6 45 f8 ed	 mov	 BYTE PTR __k$[ebp+8], -19 ; ffffffedH
  000a0	eb 28		 jmp	 SHORT $LN1@GetIntAttr@3
$LN89@GetIntAttr@3:
  000a2	c6 45 f7 ea	 mov	 BYTE PTR __k$[ebp+7], -22 ; ffffffeaH
  000a6	eb 22		 jmp	 SHORT $LN1@GetIntAttr@3
$LN90@GetIntAttr@3:
  000a8	c6 45 f6 eb	 mov	 BYTE PTR __k$[ebp+6], -21 ; ffffffebH
  000ac	eb 1c		 jmp	 SHORT $LN1@GetIntAttr@3
$LN92@GetIntAttr@3:
  000ae	c6 45 f4 ed	 mov	 BYTE PTR __k$[ebp+4], -19 ; ffffffedH
  000b2	eb 16		 jmp	 SHORT $LN1@GetIntAttr@3
$LN93@GetIntAttr@3:
  000b4	c6 45 f3 ea	 mov	 BYTE PTR __k$[ebp+3], -22 ; ffffffeaH
  000b8	eb 10		 jmp	 SHORT $LN1@GetIntAttr@3
$LN94@GetIntAttr@3:
  000ba	c6 45 f2 eb	 mov	 BYTE PTR __k$[ebp+2], -21 ; ffffffebH
  000be	eb 0a		 jmp	 SHORT $LN1@GetIntAttr@3
$LN95@GetIntAttr@3:
  000c0	c6 45 f1 ec	 mov	 BYTE PTR __k$[ebp+1], -20 ; ffffffecH
  000c4	eb 04		 jmp	 SHORT $LN1@GetIntAttr@3
$LN96@GetIntAttr@3:
  000c6	c6 45 f0 ed	 mov	 BYTE PTR __k$[ebp], -19	; ffffffedH
$LN1@GetIntAttr@3:
  000ca	81 75 f0 ed ec
	eb ea		 xor	 DWORD PTR __k$[ebp], -353637139 ; eaebecedH
  000d1	80 75 f4 ed	 xor	 BYTE PTR __k$[ebp+4], -19 ; ffffffedH

; 88   : 		return GetIntAttribute(_k);

  000d5	8d 45 f0	 lea	 eax, DWORD PTR __k$[ebp]
  000d8	50		 push	 eax
  000d9	c6 45 f5 00	 mov	 BYTE PTR __k$[ebp+5], 0
  000dd	ff 15 00 00 00
	00		 call	 DWORD PTR __imp_?GetIntAttribute@ioXMLElement@@QBEHPBD@Z

; 89   : 	}

  000e3	8b 4d fc	 mov	 ecx, DWORD PTR __$ArrayPad$[ebp]
  000e6	33 cd		 xor	 ecx, ebp
  000e8	e8 00 00 00 00	 call	 @__security_check_cookie@4
  000ed	c9		 leave
  000ee	c2 04 00	 ret	 4
??$GetIntAttribute_e@$05@ioXMLElement@@QBEHAAY05$$CBD@Z ENDP ; ioXMLElement::GetIntAttribute_e<6>
_TEXT	ENDS
PUBLIC	__$ArrayPad$
PUBLIC	??$?8$08@@YA_NABVioHashString@@AAY08$$CBD@Z	; operator==<9>
; Function compile flags: /Ogsp
; File d:\lost saga for developer\youtube\tutorial\source\src\io3dengine\iohashstring.h
;	COMDAT ??$?8$08@@YA_NABVioHashString@@AAY08$$CBD@Z
_TEXT	SEGMENT
__t$ = -20						; size = 9
__$ArrayPad$ = -4					; size = 4
_lhs$ = 8						; size = 4
_t$ = 12						; size = 4
??$?8$08@@YA_NABVioHashString@@AAY08$$CBD@Z PROC	; operator==<9>, COMDAT

; 146  : {

  00000	55		 push	 ebp
  00001	8b ec		 mov	 ebp, esp
  00003	83 ec 14	 sub	 esp, 20			; 00000014H
  00006	a1 00 00 00 00	 mov	 eax, DWORD PTR ___security_cookie
  0000b	33 c5		 xor	 eax, ebp
  0000d	89 45 fc	 mov	 DWORD PTR __$ArrayPad$[ebp], eax
  00010	8b 45 0c	 mov	 eax, DWORD PTR _t$[ebp]

; 147  : 	_ENCSTR(t, _t); return ( strcmp( lhs.c_str(), _t ) == 0 );

  00013	8a 10		 mov	 dl, BYTE PTR [eax]
  00015	8b 4d 08	 mov	 ecx, DWORD PTR _lhs$[ebp]
  00018	84 d2		 test	 dl, dl
  0001a	0f 84 ee 00 00
	00		 je	 $LN96@operator
  00020	80 f2 ed	 xor	 dl, -19			; ffffffedH
  00023	88 55 ec	 mov	 BYTE PTR __t$[ebp], dl
  00026	8a 50 01	 mov	 dl, BYTE PTR [eax+1]
  00029	84 d2		 test	 dl, dl
  0002b	0f 84 d7 00 00
	00		 je	 $LN95@operator
  00031	80 f2 ec	 xor	 dl, -20			; ffffffecH
  00034	88 55 ed	 mov	 BYTE PTR __t$[ebp+1], dl
  00037	8a 50 02	 mov	 dl, BYTE PTR [eax+2]
  0003a	84 d2		 test	 dl, dl
  0003c	0f 84 c0 00 00
	00		 je	 $LN94@operator
  00042	80 f2 eb	 xor	 dl, -21			; ffffffebH
  00045	88 55 ee	 mov	 BYTE PTR __t$[ebp+2], dl
  00048	8a 50 03	 mov	 dl, BYTE PTR [eax+3]
  0004b	84 d2		 test	 dl, dl
  0004d	0f 84 a9 00 00
	00		 je	 $LN93@operator
  00053	80 f2 ea	 xor	 dl, -22			; ffffffeaH
  00056	88 55 ef	 mov	 BYTE PTR __t$[ebp+3], dl
  00059	8a 50 04	 mov	 dl, BYTE PTR [eax+4]
  0005c	84 d2		 test	 dl, dl
  0005e	0f 84 92 00 00
	00		 je	 $LN92@operator
  00064	80 f2 ed	 xor	 dl, -19			; ffffffedH
  00067	88 55 f0	 mov	 BYTE PTR __t$[ebp+4], dl
  0006a	8a 50 05	 mov	 dl, BYTE PTR [eax+5]
  0006d	84 d2		 test	 dl, dl
  0006f	74 7f		 je	 SHORT $LN91@operator
  00071	80 f2 ec	 xor	 dl, -20			; ffffffecH
  00074	88 55 f1	 mov	 BYTE PTR __t$[ebp+5], dl
  00077	8a 50 06	 mov	 dl, BYTE PTR [eax+6]
  0007a	84 d2		 test	 dl, dl
  0007c	74 6c		 je	 SHORT $LN90@operator
  0007e	80 f2 eb	 xor	 dl, -21			; ffffffebH
  00081	88 55 f2	 mov	 BYTE PTR __t$[ebp+6], dl
  00084	8a 50 07	 mov	 dl, BYTE PTR [eax+7]
  00087	84 d2		 test	 dl, dl
  00089	74 59		 je	 SHORT $LN89@operator
  0008b	80 f2 ea	 xor	 dl, -22			; ffffffeaH
  0008e	80 78 08 00	 cmp	 BYTE PTR [eax+8], 0
  00092	88 55 f3	 mov	 BYTE PTR __t$[ebp+7], dl
  00095	74 7b		 je	 SHORT $LN1@operator
  00097	8a 50 09	 mov	 dl, BYTE PTR [eax+9]
  0009a	84 d2		 test	 dl, dl
  0009c	74 40		 je	 SHORT $LN87@operator
  0009e	80 f2 ec	 xor	 dl, -20			; ffffffecH
  000a1	88 55 f5	 mov	 BYTE PTR __t$[ebp+9], dl
  000a4	8a 50 0a	 mov	 dl, BYTE PTR [eax+10]
  000a7	84 d2		 test	 dl, dl
  000a9	74 2d		 je	 SHORT $LN86@operator
  000ab	80 f2 eb	 xor	 dl, -21			; ffffffebH
  000ae	88 55 f6	 mov	 BYTE PTR __t$[ebp+10], dl
  000b1	8a 50 0b	 mov	 dl, BYTE PTR [eax+11]
  000b4	84 d2		 test	 dl, dl
  000b6	74 1a		 je	 SHORT $LN85@operator
  000b8	8a 40 0c	 mov	 al, BYTE PTR [eax+12]
  000bb	80 f2 ea	 xor	 dl, -22			; ffffffeaH
  000be	88 55 f7	 mov	 BYTE PTR __t$[ebp+11], dl
  000c1	84 c0		 test	 al, al
  000c3	74 07		 je	 SHORT $LN84@operator
  000c5	34 ed		 xor	 al, -19			; ffffffedH
  000c7	88 45 f8	 mov	 BYTE PTR __t$[ebp+12], al
  000ca	eb 46		 jmp	 SHORT $LN1@operator
$LN84@operator:
  000cc	c6 45 f8 ed	 mov	 BYTE PTR __t$[ebp+12], -19 ; ffffffedH
  000d0	eb 40		 jmp	 SHORT $LN1@operator
$LN85@operator:
  000d2	c6 45 f7 ea	 mov	 BYTE PTR __t$[ebp+11], -22 ; ffffffeaH
  000d6	eb 3a		 jmp	 SHORT $LN1@operator
$LN86@operator:
  000d8	c6 45 f6 eb	 mov	 BYTE PTR __t$[ebp+10], -21 ; ffffffebH
  000dc	eb 34		 jmp	 SHORT $LN1@operator
$LN87@operator:
  000de	c6 45 f5 ec	 mov	 BYTE PTR __t$[ebp+9], -20 ; ffffffecH
  000e2	eb 2e		 jmp	 SHORT $LN1@operator
$LN89@operator:
  000e4	c6 45 f3 ea	 mov	 BYTE PTR __t$[ebp+7], -22 ; ffffffeaH
  000e8	eb 28		 jmp	 SHORT $LN1@operator
$LN90@operator:
  000ea	c6 45 f2 eb	 mov	 BYTE PTR __t$[ebp+6], -21 ; ffffffebH
  000ee	eb 22		 jmp	 SHORT $LN1@operator
$LN91@operator:
  000f0	c6 45 f1 ec	 mov	 BYTE PTR __t$[ebp+5], -20 ; ffffffecH
  000f4	eb 1c		 jmp	 SHORT $LN1@operator
$LN92@operator:
  000f6	c6 45 f0 ed	 mov	 BYTE PTR __t$[ebp+4], -19 ; ffffffedH
  000fa	eb 16		 jmp	 SHORT $LN1@operator
$LN93@operator:
  000fc	c6 45 ef ea	 mov	 BYTE PTR __t$[ebp+3], -22 ; ffffffeaH
  00100	eb 10		 jmp	 SHORT $LN1@operator
$LN94@operator:
  00102	c6 45 ee eb	 mov	 BYTE PTR __t$[ebp+2], -21 ; ffffffebH
  00106	eb 0a		 jmp	 SHORT $LN1@operator
$LN95@operator:
  00108	c6 45 ed ec	 mov	 BYTE PTR __t$[ebp+1], -20 ; ffffffecH
  0010c	eb 04		 jmp	 SHORT $LN1@operator
$LN96@operator:
  0010e	c6 45 ec ed	 mov	 BYTE PTR __t$[ebp], -19	; ffffffedH
$LN1@operator:
  00112	6a 02		 push	 2
  00114	8d 45 ec	 lea	 eax, DWORD PTR __t$[ebp]
  00117	c6 45 f4 00	 mov	 BYTE PTR __t$[ebp+8], 0
  0011b	5a		 pop	 edx
$LL104@operator:
  0011c	81 30 ed ec eb
	ea		 xor	 DWORD PTR [eax], -353637139 ; eaebecedH
  00122	83 c0 04	 add	 eax, 4
  00125	4a		 dec	 edx
  00126	75 f4		 jne	 SHORT $LL104@operator
  00128	56		 push	 esi
  00129	8d 75 ec	 lea	 esi, DWORD PTR __t$[ebp]
  0012c	ff 15 00 00 00
	00		 call	 DWORD PTR __imp_?c_str@ioHashString@@QBEPBDXZ
$LL111@operator:
  00132	8a 08		 mov	 cl, BYTE PTR [eax]
  00134	3a 0e		 cmp	 cl, BYTE PTR [esi]
  00136	75 1a		 jne	 SHORT $LN112@operator
  00138	84 c9		 test	 cl, cl
  0013a	74 12		 je	 SHORT $LN113@operator
  0013c	8a 48 01	 mov	 cl, BYTE PTR [eax+1]
  0013f	3a 4e 01	 cmp	 cl, BYTE PTR [esi+1]
  00142	75 0e		 jne	 SHORT $LN112@operator
  00144	83 c0 02	 add	 eax, 2
  00147	83 c6 02	 add	 esi, 2
  0014a	84 c9		 test	 cl, cl
  0014c	75 e4		 jne	 SHORT $LL111@operator
$LN113@operator:
  0014e	33 c0		 xor	 eax, eax
  00150	eb 05		 jmp	 SHORT $LN114@operator
$LN112@operator:
  00152	1b c0		 sbb	 eax, eax
  00154	83 d8 ff	 sbb	 eax, -1
$LN114@operator:
  00157	33 c9		 xor	 ecx, ecx
  00159	85 c0		 test	 eax, eax
  0015b	0f 94 c0	 sete	 al

; 148  : }

  0015e	8b 4d fc	 mov	 ecx, DWORD PTR __$ArrayPad$[ebp]
  00161	33 cd		 xor	 ecx, ebp
  00163	5e		 pop	 esi
  00164	e8 00 00 00 00	 call	 @__security_check_cookie@4
  00169	c9		 leave
  0016a	c3		 ret	 0
??$?8$08@@YA_NABVioHashString@@AAY08$$CBD@Z ENDP	; operator==<9>
_TEXT	ENDS
PUBLIC	__$ArrayPad$
PUBLIC	??$?8$09@@YA_NABVioHashString@@AAY09$$CBD@Z	; operator==<10>
; Function compile flags: /Ogsp
;	COMDAT ??$?8$09@@YA_NABVioHashString@@AAY09$$CBD@Z
_TEXT	SEGMENT
__t$ = -20						; size = 10
__$ArrayPad$ = -4					; size = 4
_lhs$ = 8						; size = 4
_t$ = 12						; size = 4
??$?8$09@@YA_NABVioHashString@@AAY09$$CBD@Z PROC	; operator==<10>, COMDAT

; 146  : {

  00000	55		 push	 ebp
  00001	8b ec		 mov	 ebp, esp
  00003	83 ec 14	 sub	 esp, 20			; 00000014H
  00006	a1 00 00 00 00	 mov	 eax, DWORD PTR ___security_cookie
  0000b	33 c5		 xor	 eax, ebp
  0000d	89 45 fc	 mov	 DWORD PTR __$ArrayPad$[ebp], eax
  00010	8b 45 0c	 mov	 eax, DWORD PTR _t$[ebp]

; 147  : 	_ENCSTR(t, _t); return ( strcmp( lhs.c_str(), _t ) == 0 );

  00013	8a 10		 mov	 dl, BYTE PTR [eax]
  00015	8b 4d 08	 mov	 ecx, DWORD PTR _lhs$[ebp]
  00018	84 d2		 test	 dl, dl
  0001a	0f 84 0d 01 00
	00		 je	 $LN96@operator@2
  00020	80 f2 ed	 xor	 dl, -19			; ffffffedH
  00023	88 55 ec	 mov	 BYTE PTR __t$[ebp], dl
  00026	8a 50 01	 mov	 dl, BYTE PTR [eax+1]
  00029	84 d2		 test	 dl, dl
  0002b	0f 84 f6 00 00
	00		 je	 $LN95@operator@2
  00031	80 f2 ec	 xor	 dl, -20			; ffffffecH
  00034	88 55 ed	 mov	 BYTE PTR __t$[ebp+1], dl
  00037	8a 50 02	 mov	 dl, BYTE PTR [eax+2]
  0003a	84 d2		 test	 dl, dl
  0003c	0f 84 df 00 00
	00		 je	 $LN94@operator@2
  00042	80 f2 eb	 xor	 dl, -21			; ffffffebH
  00045	88 55 ee	 mov	 BYTE PTR __t$[ebp+2], dl
  00048	8a 50 03	 mov	 dl, BYTE PTR [eax+3]
  0004b	84 d2		 test	 dl, dl
  0004d	0f 84 c8 00 00
	00		 je	 $LN93@operator@2
  00053	80 f2 ea	 xor	 dl, -22			; ffffffeaH
  00056	88 55 ef	 mov	 BYTE PTR __t$[ebp+3], dl
  00059	8a 50 04	 mov	 dl, BYTE PTR [eax+4]
  0005c	84 d2		 test	 dl, dl
  0005e	0f 84 b1 00 00
	00		 je	 $LN92@operator@2
  00064	80 f2 ed	 xor	 dl, -19			; ffffffedH
  00067	88 55 f0	 mov	 BYTE PTR __t$[ebp+4], dl
  0006a	8a 50 05	 mov	 dl, BYTE PTR [eax+5]
  0006d	84 d2		 test	 dl, dl
  0006f	0f 84 9a 00 00
	00		 je	 $LN91@operator@2
  00075	80 f2 ec	 xor	 dl, -20			; ffffffecH
  00078	88 55 f1	 mov	 BYTE PTR __t$[ebp+5], dl
  0007b	8a 50 06	 mov	 dl, BYTE PTR [eax+6]
  0007e	84 d2		 test	 dl, dl
  00080	0f 84 83 00 00
	00		 je	 $LN90@operator@2
  00086	80 f2 eb	 xor	 dl, -21			; ffffffebH
  00089	88 55 f2	 mov	 BYTE PTR __t$[ebp+6], dl
  0008c	8a 50 07	 mov	 dl, BYTE PTR [eax+7]
  0008f	84 d2		 test	 dl, dl
  00091	74 70		 je	 SHORT $LN89@operator@2
  00093	80 f2 ea	 xor	 dl, -22			; ffffffeaH
  00096	88 55 f3	 mov	 BYTE PTR __t$[ebp+7], dl
  00099	8a 50 08	 mov	 dl, BYTE PTR [eax+8]
  0009c	84 d2		 test	 dl, dl
  0009e	74 5d		 je	 SHORT $LN88@operator@2
  000a0	80 f2 ed	 xor	 dl, -19			; ffffffedH
  000a3	80 78 09 00	 cmp	 BYTE PTR [eax+9], 0
  000a7	88 55 f4	 mov	 BYTE PTR __t$[ebp+8], dl
  000aa	0f 84 81 00 00
	00		 je	 $LN1@operator@2
  000b0	8a 50 0a	 mov	 dl, BYTE PTR [eax+10]
  000b3	84 d2		 test	 dl, dl
  000b5	74 40		 je	 SHORT $LN86@operator@2
  000b7	80 f2 eb	 xor	 dl, -21			; ffffffebH
  000ba	88 55 f6	 mov	 BYTE PTR __t$[ebp+10], dl
  000bd	8a 50 0b	 mov	 dl, BYTE PTR [eax+11]
  000c0	84 d2		 test	 dl, dl
  000c2	74 2d		 je	 SHORT $LN85@operator@2
  000c4	80 f2 ea	 xor	 dl, -22			; ffffffeaH
  000c7	88 55 f7	 mov	 BYTE PTR __t$[ebp+11], dl
  000ca	8a 50 0c	 mov	 dl, BYTE PTR [eax+12]
  000cd	84 d2		 test	 dl, dl
  000cf	74 1a		 je	 SHORT $LN84@operator@2
  000d1	8a 40 0d	 mov	 al, BYTE PTR [eax+13]
  000d4	80 f2 ed	 xor	 dl, -19			; ffffffedH
  000d7	88 55 f8	 mov	 BYTE PTR __t$[ebp+12], dl
  000da	84 c0		 test	 al, al
  000dc	74 07		 je	 SHORT $LN83@operator@2
  000de	34 ec		 xor	 al, -20			; ffffffecH
  000e0	88 45 f9	 mov	 BYTE PTR __t$[ebp+13], al
  000e3	eb 4c		 jmp	 SHORT $LN1@operator@2
$LN83@operator@2:
  000e5	c6 45 f9 ec	 mov	 BYTE PTR __t$[ebp+13], -20 ; ffffffecH
  000e9	eb 46		 jmp	 SHORT $LN1@operator@2
$LN84@operator@2:
  000eb	c6 45 f8 ed	 mov	 BYTE PTR __t$[ebp+12], -19 ; ffffffedH
  000ef	eb 40		 jmp	 SHORT $LN1@operator@2
$LN85@operator@2:
  000f1	c6 45 f7 ea	 mov	 BYTE PTR __t$[ebp+11], -22 ; ffffffeaH
  000f5	eb 3a		 jmp	 SHORT $LN1@operator@2
$LN86@operator@2:
  000f7	c6 45 f6 eb	 mov	 BYTE PTR __t$[ebp+10], -21 ; ffffffebH
  000fb	eb 34		 jmp	 SHORT $LN1@operator@2
$LN88@operator@2:
  000fd	c6 45 f4 ed	 mov	 BYTE PTR __t$[ebp+8], -19 ; ffffffedH
  00101	eb 2e		 jmp	 SHORT $LN1@operator@2
$LN89@operator@2:
  00103	c6 45 f3 ea	 mov	 BYTE PTR __t$[ebp+7], -22 ; ffffffeaH
  00107	eb 28		 jmp	 SHORT $LN1@operator@2
$LN90@operator@2:
  00109	c6 45 f2 eb	 mov	 BYTE PTR __t$[ebp+6], -21 ; ffffffebH
  0010d	eb 22		 jmp	 SHORT $LN1@operator@2
$LN91@operator@2:
  0010f	c6 45 f1 ec	 mov	 BYTE PTR __t$[ebp+5], -20 ; ffffffecH
  00113	eb 1c		 jmp	 SHORT $LN1@operator@2
$LN92@operator@2:
  00115	c6 45 f0 ed	 mov	 BYTE PTR __t$[ebp+4], -19 ; ffffffedH
  00119	eb 16		 jmp	 SHORT $LN1@operator@2
$LN93@operator@2:
  0011b	c6 45 ef ea	 mov	 BYTE PTR __t$[ebp+3], -22 ; ffffffeaH
  0011f	eb 10		 jmp	 SHORT $LN1@operator@2
$LN94@operator@2:
  00121	c6 45 ee eb	 mov	 BYTE PTR __t$[ebp+2], -21 ; ffffffebH
  00125	eb 0a		 jmp	 SHORT $LN1@operator@2
$LN95@operator@2:
  00127	c6 45 ed ec	 mov	 BYTE PTR __t$[ebp+1], -20 ; ffffffecH
  0012b	eb 04		 jmp	 SHORT $LN1@operator@2
$LN96@operator@2:
  0012d	c6 45 ec ed	 mov	 BYTE PTR __t$[ebp], -19	; ffffffedH
$LN1@operator@2:
  00131	6a 02		 push	 2
  00133	8d 45 ec	 lea	 eax, DWORD PTR __t$[ebp]
  00136	c6 45 f5 00	 mov	 BYTE PTR __t$[ebp+9], 0
  0013a	5a		 pop	 edx
$LL104@operator@2:
  0013b	81 30 ed ec eb
	ea		 xor	 DWORD PTR [eax], -353637139 ; eaebecedH
  00141	83 c0 04	 add	 eax, 4
  00144	4a		 dec	 edx
  00145	75 f4		 jne	 SHORT $LL104@operator@2
  00147	80 75 f4 ed	 xor	 BYTE PTR __t$[ebp+8], -19 ; ffffffedH
  0014b	56		 push	 esi
  0014c	8d 75 ec	 lea	 esi, DWORD PTR __t$[ebp]
  0014f	ff 15 00 00 00
	00		 call	 DWORD PTR __imp_?c_str@ioHashString@@QBEPBDXZ
$LL111@operator@2:
  00155	8a 08		 mov	 cl, BYTE PTR [eax]
  00157	3a 0e		 cmp	 cl, BYTE PTR [esi]
  00159	75 1a		 jne	 SHORT $LN112@operator@2
  0015b	84 c9		 test	 cl, cl
  0015d	74 12		 je	 SHORT $LN113@operator@2
  0015f	8a 48 01	 mov	 cl, BYTE PTR [eax+1]
  00162	3a 4e 01	 cmp	 cl, BYTE PTR [esi+1]
  00165	75 0e		 jne	 SHORT $LN112@operator@2
  00167	83 c0 02	 add	 eax, 2
  0016a	83 c6 02	 add	 esi, 2
  0016d	84 c9		 test	 cl, cl
  0016f	75 e4		 jne	 SHORT $LL111@operator@2
$LN113@operator@2:
  00171	33 c0		 xor	 eax, eax
  00173	eb 05		 jmp	 SHORT $LN114@operator@2
$LN112@operator@2:
  00175	1b c0		 sbb	 eax, eax
  00177	83 d8 ff	 sbb	 eax, -1
$LN114@operator@2:
  0017a	33 c9		 xor	 ecx, ecx
  0017c	85 c0		 test	 eax, eax
  0017e	0f 94 c0	 sete	 al

; 148  : }

  00181	8b 4d fc	 mov	 ecx, DWORD PTR __$ArrayPad$[ebp]
  00184	33 cd		 xor	 ecx, ebp
  00186	5e		 pop	 esi
  00187	e8 00 00 00 00	 call	 @__security_check_cookie@4
  0018c	c9		 leave
  0018d	c3		 ret	 0
??$?8$09@@YA_NABVioHashString@@AAY09$$CBD@Z ENDP	; operator==<10>
_TEXT	ENDS
PUBLIC	__$ArrayPad$
PUBLIC	??$?8$0O@@@YA_NABVioHashString@@AAY0O@$$CBD@Z	; operator==<14>
; Function compile flags: /Ogsp
;	COMDAT ??$?8$0O@@@YA_NABVioHashString@@AAY0O@$$CBD@Z
_TEXT	SEGMENT
__t$ = -24						; size = 14
__$ArrayPad$ = -4					; size = 4
_lhs$ = 8						; size = 4
_t$ = 12						; size = 4
??$?8$0O@@@YA_NABVioHashString@@AAY0O@$$CBD@Z PROC	; operator==<14>, COMDAT

; 146  : {

  00000	55		 push	 ebp
  00001	8b ec		 mov	 ebp, esp
  00003	83 ec 18	 sub	 esp, 24			; 00000018H
  00006	a1 00 00 00 00	 mov	 eax, DWORD PTR ___security_cookie
  0000b	33 c5		 xor	 eax, ebp
  0000d	89 45 fc	 mov	 DWORD PTR __$ArrayPad$[ebp], eax
  00010	8b 45 0c	 mov	 eax, DWORD PTR _t$[ebp]

; 147  : 	_ENCSTR(t, _t); return ( strcmp( lhs.c_str(), _t ) == 0 );

  00013	8a 10		 mov	 dl, BYTE PTR [eax]
  00015	56		 push	 esi
  00016	57		 push	 edi
  00017	8b 7d 08	 mov	 edi, DWORD PTR _lhs$[ebp]
  0001a	84 d2		 test	 dl, dl
  0001c	0f 84 64 01 00
	00		 je	 $LN96@operator@3
  00022	80 f2 ed	 xor	 dl, -19			; ffffffedH
  00025	88 55 e8	 mov	 BYTE PTR __t$[ebp], dl
  00028	8a 50 01	 mov	 dl, BYTE PTR [eax+1]
  0002b	84 d2		 test	 dl, dl
  0002d	0f 84 4d 01 00
	00		 je	 $LN95@operator@3
  00033	80 f2 ec	 xor	 dl, -20			; ffffffecH
  00036	88 55 e9	 mov	 BYTE PTR __t$[ebp+1], dl
  00039	8a 50 02	 mov	 dl, BYTE PTR [eax+2]
  0003c	84 d2		 test	 dl, dl
  0003e	0f 84 36 01 00
	00		 je	 $LN94@operator@3
  00044	b1 eb		 mov	 cl, -21			; ffffffebH
  00046	32 d1		 xor	 dl, cl
  00048	88 55 ea	 mov	 BYTE PTR __t$[ebp+2], dl
  0004b	8a 50 03	 mov	 dl, BYTE PTR [eax+3]
  0004e	84 d2		 test	 dl, dl
  00050	0f 84 1e 01 00
	00		 je	 $LN93@operator@3
  00056	80 f2 ea	 xor	 dl, -22			; ffffffeaH
  00059	88 55 eb	 mov	 BYTE PTR __t$[ebp+3], dl
  0005c	8a 50 04	 mov	 dl, BYTE PTR [eax+4]
  0005f	84 d2		 test	 dl, dl
  00061	0f 84 07 01 00
	00		 je	 $LN92@operator@3
  00067	80 f2 ed	 xor	 dl, -19			; ffffffedH
  0006a	88 55 ec	 mov	 BYTE PTR __t$[ebp+4], dl
  0006d	8a 50 05	 mov	 dl, BYTE PTR [eax+5]
  00070	84 d2		 test	 dl, dl
  00072	0f 84 f0 00 00
	00		 je	 $LN91@operator@3
  00078	80 f2 ec	 xor	 dl, -20			; ffffffecH
  0007b	88 55 ed	 mov	 BYTE PTR __t$[ebp+5], dl
  0007e	8a 50 06	 mov	 dl, BYTE PTR [eax+6]
  00081	84 d2		 test	 dl, dl
  00083	0f 84 da 00 00
	00		 je	 $LN90@operator@3
  00089	32 d1		 xor	 dl, cl
  0008b	88 55 ee	 mov	 BYTE PTR __t$[ebp+6], dl
  0008e	8a 50 07	 mov	 dl, BYTE PTR [eax+7]
  00091	84 d2		 test	 dl, dl
  00093	0f 84 c4 00 00
	00		 je	 $LN89@operator@3
  00099	80 f2 ea	 xor	 dl, -22			; ffffffeaH
  0009c	88 55 ef	 mov	 BYTE PTR __t$[ebp+7], dl
  0009f	8a 50 08	 mov	 dl, BYTE PTR [eax+8]
  000a2	84 d2		 test	 dl, dl
  000a4	0f 84 ad 00 00
	00		 je	 $LN88@operator@3
  000aa	80 f2 ed	 xor	 dl, -19			; ffffffedH
  000ad	88 55 f0	 mov	 BYTE PTR __t$[ebp+8], dl
  000b0	8a 50 09	 mov	 dl, BYTE PTR [eax+9]
  000b3	84 d2		 test	 dl, dl
  000b5	0f 84 96 00 00
	00		 je	 $LN87@operator@3
  000bb	80 f2 ec	 xor	 dl, -20			; ffffffecH
  000be	88 55 f1	 mov	 BYTE PTR __t$[ebp+9], dl
  000c1	8a 50 0a	 mov	 dl, BYTE PTR [eax+10]
  000c4	84 d2		 test	 dl, dl
  000c6	0f 84 80 00 00
	00		 je	 $LN86@operator@3
  000cc	32 d1		 xor	 dl, cl
  000ce	88 55 f2	 mov	 BYTE PTR __t$[ebp+10], dl
  000d1	8a 50 0b	 mov	 dl, BYTE PTR [eax+11]
  000d4	84 d2		 test	 dl, dl
  000d6	74 6e		 je	 SHORT $LN85@operator@3
  000d8	80 f2 ea	 xor	 dl, -22			; ffffffeaH
  000db	88 55 f3	 mov	 BYTE PTR __t$[ebp+11], dl
  000de	8a 50 0c	 mov	 dl, BYTE PTR [eax+12]
  000e1	84 d2		 test	 dl, dl
  000e3	74 5b		 je	 SHORT $LN84@operator@3
  000e5	80 f2 ed	 xor	 dl, -19			; ffffffedH
  000e8	80 78 0d 00	 cmp	 BYTE PTR [eax+13], 0
  000ec	88 55 f4	 mov	 BYTE PTR __t$[ebp+12], dl
  000ef	0f 84 95 00 00
	00		 je	 $LN1@operator@3
  000f5	8a 50 0e	 mov	 dl, BYTE PTR [eax+14]
  000f8	84 d2		 test	 dl, dl
  000fa	74 3f		 je	 SHORT $LN82@operator@3
  000fc	32 d1		 xor	 dl, cl
  000fe	88 55 f6	 mov	 BYTE PTR __t$[ebp+14], dl
  00101	8a 50 0f	 mov	 dl, BYTE PTR [eax+15]
  00104	84 d2		 test	 dl, dl
  00106	74 2d		 je	 SHORT $LN81@operator@3
  00108	80 f2 ea	 xor	 dl, -22			; ffffffeaH
  0010b	88 55 f7	 mov	 BYTE PTR __t$[ebp+15], dl
  0010e	8a 50 10	 mov	 dl, BYTE PTR [eax+16]
  00111	84 d2		 test	 dl, dl
  00113	74 1a		 je	 SHORT $LN80@operator@3
  00115	8a 40 11	 mov	 al, BYTE PTR [eax+17]
  00118	80 f2 ed	 xor	 dl, -19			; ffffffedH
  0011b	88 55 f8	 mov	 BYTE PTR __t$[ebp+16], dl
  0011e	84 c0		 test	 al, al
  00120	74 07		 je	 SHORT $LN79@operator@3
  00122	34 ec		 xor	 al, -20			; ffffffecH
  00124	88 45 f9	 mov	 BYTE PTR __t$[ebp+17], al
  00127	eb 61		 jmp	 SHORT $LN1@operator@3
$LN79@operator@3:
  00129	c6 45 f9 ec	 mov	 BYTE PTR __t$[ebp+17], -20 ; ffffffecH
  0012d	eb 5b		 jmp	 SHORT $LN1@operator@3
$LN80@operator@3:
  0012f	c6 45 f8 ed	 mov	 BYTE PTR __t$[ebp+16], -19 ; ffffffedH
  00133	eb 55		 jmp	 SHORT $LN1@operator@3
$LN81@operator@3:
  00135	c6 45 f7 ea	 mov	 BYTE PTR __t$[ebp+15], -22 ; ffffffeaH
  00139	eb 4f		 jmp	 SHORT $LN1@operator@3
$LN82@operator@3:
  0013b	88 4d f6	 mov	 BYTE PTR __t$[ebp+14], cl
  0013e	eb 4a		 jmp	 SHORT $LN1@operator@3
$LN84@operator@3:
  00140	c6 45 f4 ed	 mov	 BYTE PTR __t$[ebp+12], -19 ; ffffffedH
  00144	eb 44		 jmp	 SHORT $LN1@operator@3
$LN85@operator@3:
  00146	c6 45 f3 ea	 mov	 BYTE PTR __t$[ebp+11], -22 ; ffffffeaH
  0014a	eb 3e		 jmp	 SHORT $LN1@operator@3
$LN86@operator@3:
  0014c	88 4d f2	 mov	 BYTE PTR __t$[ebp+10], cl
  0014f	eb 39		 jmp	 SHORT $LN1@operator@3
$LN87@operator@3:
  00151	c6 45 f1 ec	 mov	 BYTE PTR __t$[ebp+9], -20 ; ffffffecH
  00155	eb 33		 jmp	 SHORT $LN1@operator@3
$LN88@operator@3:
  00157	c6 45 f0 ed	 mov	 BYTE PTR __t$[ebp+8], -19 ; ffffffedH
  0015b	eb 2d		 jmp	 SHORT $LN1@operator@3
$LN89@operator@3:
  0015d	c6 45 ef ea	 mov	 BYTE PTR __t$[ebp+7], -22 ; ffffffeaH
  00161	eb 27		 jmp	 SHORT $LN1@operator@3
$LN90@operator@3:
  00163	88 4d ee	 mov	 BYTE PTR __t$[ebp+6], cl
  00166	eb 22		 jmp	 SHORT $LN1@operator@3
$LN91@operator@3:
  00168	c6 45 ed ec	 mov	 BYTE PTR __t$[ebp+5], -20 ; ffffffecH
  0016c	eb 1c		 jmp	 SHORT $LN1@operator@3
$LN92@operator@3:
  0016e	c6 45 ec ed	 mov	 BYTE PTR __t$[ebp+4], -19 ; ffffffedH
  00172	eb 16		 jmp	 SHORT $LN1@operator@3
$LN93@operator@3:
  00174	c6 45 eb ea	 mov	 BYTE PTR __t$[ebp+3], -22 ; ffffffeaH
  00178	eb 10		 jmp	 SHORT $LN1@operator@3
$LN94@operator@3:
  0017a	c6 45 ea eb	 mov	 BYTE PTR __t$[ebp+2], -21 ; ffffffebH
  0017e	eb 0a		 jmp	 SHORT $LN1@operator@3
$LN95@operator@3:
  00180	c6 45 e9 ec	 mov	 BYTE PTR __t$[ebp+1], -20 ; ffffffecH
  00184	eb 04		 jmp	 SHORT $LN1@operator@3
$LN96@operator@3:
  00186	c6 45 e8 ed	 mov	 BYTE PTR __t$[ebp], -19	; ffffffedH
$LN1@operator@3:
  0018a	6a 03		 push	 3
  0018c	8d 45 e8	 lea	 eax, DWORD PTR __t$[ebp]
  0018f	c6 45 f5 00	 mov	 BYTE PTR __t$[ebp+13], 0
  00193	5a		 pop	 edx
$LL104@operator@3:
  00194	81 30 ed ec eb
	ea		 xor	 DWORD PTR [eax], -353637139 ; eaebecedH
  0019a	83 c0 04	 add	 eax, 4
  0019d	4a		 dec	 edx
  0019e	75 f4		 jne	 SHORT $LL104@operator@3
  001a0	80 75 f4 ed	 xor	 BYTE PTR __t$[ebp+12], -19 ; ffffffedH
  001a4	8b cf		 mov	 ecx, edi
  001a6	8d 75 e8	 lea	 esi, DWORD PTR __t$[ebp]
  001a9	ff 15 00 00 00
	00		 call	 DWORD PTR __imp_?c_str@ioHashString@@QBEPBDXZ
$LL111@operator@3:
  001af	8a 08		 mov	 cl, BYTE PTR [eax]
  001b1	3a 0e		 cmp	 cl, BYTE PTR [esi]
  001b3	75 1a		 jne	 SHORT $LN112@operator@3
  001b5	84 c9		 test	 cl, cl
  001b7	74 12		 je	 SHORT $LN113@operator@3
  001b9	8a 48 01	 mov	 cl, BYTE PTR [eax+1]
  001bc	3a 4e 01	 cmp	 cl, BYTE PTR [esi+1]
  001bf	75 0e		 jne	 SHORT $LN112@operator@3
  001c1	83 c0 02	 add	 eax, 2
  001c4	83 c6 02	 add	 esi, 2
  001c7	84 c9		 test	 cl, cl
  001c9	75 e4		 jne	 SHORT $LL111@operator@3
$LN113@operator@3:
  001cb	33 c0		 xor	 eax, eax
  001cd	eb 05		 jmp	 SHORT $LN114@operator@3
$LN112@operator@3:
  001cf	1b c0		 sbb	 eax, eax
  001d1	83 d8 ff	 sbb	 eax, -1
$LN114@operator@3:
  001d4	33 c9		 xor	 ecx, ecx
  001d6	85 c0		 test	 eax, eax
  001d8	0f 94 c0	 sete	 al

; 148  : }

  001db	8b 4d fc	 mov	 ecx, DWORD PTR __$ArrayPad$[ebp]
  001de	5f		 pop	 edi
  001df	33 cd		 xor	 ecx, ebp
  001e1	5e		 pop	 esi
  001e2	e8 00 00 00 00	 call	 @__security_check_cookie@4
  001e7	c9		 leave
  001e8	c3		 ret	 0
??$?8$0O@@@YA_NABVioHashString@@AAY0O@$$CBD@Z ENDP	; operator==<14>
_TEXT	ENDS
PUBLIC	??$construct@AAVioHashString@@@?$allocator@VioHashString@@@std@@QAEXPAVioHashString@@AAV2@@Z ; std::allocator<ioHashString>::construct<ioHashString &>
;	COMDAT xdata$x
; File c:\program files (x86)\microsoft visual studio 10.0\vc\include\utility
xdata$x	SEGMENT
__unwindtable$??$construct@AAVioHashString@@@?$allocator@VioHashString@@@std@@QAEXPAVioHashString@@AAV2@@Z DD 0ffffffffH
	DD	FLAT:__unwindfunclet$??$construct@AAVioHashString@@@?$allocator@VioHashString@@@std@@QAEXPAVioHashString@@AAV2@@Z$0
__ehfuncinfo$??$construct@AAVioHashString@@@?$allocator@VioHashString@@@std@@QAEXPAVioHashString@@AAV2@@Z DD 019930522H
	DD	01H
	DD	FLAT:__unwindtable$??$construct@AAVioHashString@@@?$allocator@VioHashString@@@std@@QAEXPAVioHashString@@AAV2@@Z
	DD	2 DUP(00H)
	DD	2 DUP(00H)
	DD	00H
	DD	01H
; Function compile flags: /Ogsp
; File c:\program files (x86)\microsoft visual studio 10.0\vc\include\xmemory
xdata$x	ENDS
;	COMDAT ??$construct@AAVioHashString@@@?$allocator@VioHashString@@@std@@QAEXPAVioHashString@@AAV2@@Z
_TEXT	SEGMENT
$T513506 = -16						; size = 4
__$EHRec$ = -12						; size = 12
__Ptr$ = 8						; size = 4
__Val$ = 12						; size = 4
??$construct@AAVioHashString@@@?$allocator@VioHashString@@@std@@QAEXPAVioHashString@@AAV2@@Z PROC ; std::allocator<ioHashString>::construct<ioHashString &>, COMDAT
; _this$ = ecx

; 206  : 		void construct(pointer _Ptr, _Other&& _Val)

  00000	6a 04		 push	 4
  00002	b8 00 00 00 00	 mov	 eax, __ehhandler$??$construct@AAVioHashString@@@?$allocator@VioHashString@@@std@@QAEXPAVioHashString@@AAV2@@Z
  00007	e8 00 00 00 00	 call	 __EH_prolog3

; 207  : 		{	// construct object at _Ptr with value _Val
; 208  : 		::new ((void _FARQ *)_Ptr) _Ty(_STD forward<_Other>(_Val));

  0000c	8b 4d 08	 mov	 ecx, DWORD PTR __Ptr$[ebp]
  0000f	89 4d f0	 mov	 DWORD PTR $T513506[ebp], ecx
  00012	83 65 fc 00	 and	 DWORD PTR __$EHRec$[ebp+8], 0
  00016	85 c9		 test	 ecx, ecx
  00018	74 09		 je	 SHORT $LN3@construct
  0001a	ff 75 0c	 push	 DWORD PTR __Val$[ebp]
  0001d	ff 15 00 00 00
	00		 call	 DWORD PTR __imp_??0ioHashString@@QAE@ABV0@@Z
$LN3@construct:

; 209  : 		}

  00023	e8 00 00 00 00	 call	 __EH_epilog3
  00028	c2 08 00	 ret	 8
_TEXT	ENDS
;	COMDAT text$x
text$x	SEGMENT
__unwindfunclet$??$construct@AAVioHashString@@@?$allocator@VioHashString@@@std@@QAEXPAVioHashString@@AAV2@@Z$0:
  00000	ff 75 08	 push	 DWORD PTR __Ptr$[ebp]
  00003	ff 75 f0	 push	 DWORD PTR $T513506[ebp]
  00006	e8 00 00 00 00	 call	 ??3@YAXPAX0@Z		; operator delete
  0000b	59		 pop	 ecx
  0000c	59		 pop	 ecx
  0000d	c3		 ret	 0
__ehhandler$??$construct@AAVioHashString@@@?$allocator@VioHashString@@@std@@QAEXPAVioHashString@@AAV2@@Z:
  0000e	8b 54 24 08	 mov	 edx, DWORD PTR [esp+8]
  00012	8d 42 0c	 lea	 eax, DWORD PTR [edx+12]
  00015	8b 4a ec	 mov	 ecx, DWORD PTR [edx-20]
  00018	33 c8		 xor	 ecx, eax
  0001a	e8 00 00 00 00	 call	 @__security_check_cookie@4
  0001f	b8 00 00 00 00	 mov	 eax, OFFSET __ehfuncinfo$??$construct@AAVioHashString@@@?$allocator@VioHashString@@@std@@QAEXPAVioHashString@@AAV2@@Z
  00024	e9 00 00 00 00	 jmp	 ___CxxFrameHandler3
text$x	ENDS
??$construct@AAVioHashString@@@?$allocator@VioHashString@@@std@@QAEXPAVioHashString@@AAV2@@Z ENDP ; std::allocator<ioHashString>::construct<ioHashString &>
PUBLIC	?construct@?$allocator@VioHashString@@@std@@QAEXPAVioHashString@@$$QAV3@@Z ; std::allocator<ioHashString>::construct
;	COMDAT xdata$x
; File c:\program files (x86)\microsoft visual studio 10.0\vc\include\utility
xdata$x	SEGMENT
__unwindtable$?construct@?$allocator@VioHashString@@@std@@QAEXPAVioHashString@@$$QAV3@@Z DD 0ffffffffH
	DD	FLAT:__unwindfunclet$?construct@?$allocator@VioHashString@@@std@@QAEXPAVioHashString@@$$QAV3@@Z$0
__ehfuncinfo$?construct@?$allocator@VioHashString@@@std@@QAEXPAVioHashString@@$$QAV3@@Z DD 019930522H
	DD	01H
	DD	FLAT:__unwindtable$?construct@?$allocator@VioHashString@@@std@@QAEXPAVioHashString@@$$QAV3@@Z
	DD	2 DUP(00H)
	DD	2 DUP(00H)
	DD	00H
	DD	01H
; Function compile flags: /Ogsp
; File c:\program files (x86)\microsoft visual studio 10.0\vc\include\xmemory
xdata$x	ENDS
;	COMDAT ?construct@?$allocator@VioHashString@@@std@@QAEXPAVioHashString@@$$QAV3@@Z
_TEXT	SEGMENT
$T513525 = -16						; size = 4
__$EHRec$ = -12						; size = 12
__Ptr$ = 8						; size = 4
__Val$ = 12						; size = 4
?construct@?$allocator@VioHashString@@@std@@QAEXPAVioHashString@@$$QAV3@@Z PROC ; std::allocator<ioHashString>::construct, COMDAT
; _this$ = ecx

; 201  : 		{	// construct object at _Ptr with value _Val

  00000	6a 04		 push	 4
  00002	b8 00 00 00 00	 mov	 eax, __ehhandler$?construct@?$allocator@VioHashString@@@std@@QAEXPAVioHashString@@$$QAV3@@Z
  00007	e8 00 00 00 00	 call	 __EH_prolog3

; 202  : 		::new ((void _FARQ *)_Ptr) _Ty(_STD forward<_Ty>(_Val));

  0000c	8b 4d 08	 mov	 ecx, DWORD PTR __Ptr$[ebp]
  0000f	89 4d f0	 mov	 DWORD PTR $T513525[ebp], ecx
  00012	83 65 fc 00	 and	 DWORD PTR __$EHRec$[ebp+8], 0
  00016	85 c9		 test	 ecx, ecx
  00018	74 09		 je	 SHORT $LN3@construct@2
  0001a	ff 75 0c	 push	 DWORD PTR __Val$[ebp]
  0001d	ff 15 00 00 00
	00		 call	 DWORD PTR __imp_??0ioHashString@@QAE@ABV0@@Z
$LN3@construct@2:

; 203  : 		}

  00023	e8 00 00 00 00	 call	 __EH_epilog3
  00028	c2 08 00	 ret	 8
_TEXT	ENDS
;	COMDAT text$x
text$x	SEGMENT
__unwindfunclet$?construct@?$allocator@VioHashString@@@std@@QAEXPAVioHashString@@$$QAV3@@Z$0:
  00000	ff 75 08	 push	 DWORD PTR __Ptr$[ebp]
  00003	ff 75 f0	 push	 DWORD PTR $T513525[ebp]
  00006	e8 00 00 00 00	 call	 ??3@YAXPAX0@Z		; operator delete
  0000b	59		 pop	 ecx
  0000c	59		 pop	 ecx
  0000d	c3		 ret	 0
__ehhandler$?construct@?$allocator@VioHashString@@@std@@QAEXPAVioHashString@@$$QAV3@@Z:
  0000e	8b 54 24 08	 mov	 edx, DWORD PTR [esp+8]
  00012	8d 42 0c	 lea	 eax, DWORD PTR [edx+12]
  00015	8b 4a ec	 mov	 ecx, DWORD PTR [edx-20]
  00018	33 c8		 xor	 ecx, eax
  0001a	e8 00 00 00 00	 call	 @__security_check_cookie@4
  0001f	b8 00 00 00 00	 mov	 eax, OFFSET __ehfuncinfo$?construct@?$allocator@VioHashString@@@std@@QAEXPAVioHashString@@$$QAV3@@Z
  00024	e9 00 00 00 00	 jmp	 ___CxxFrameHandler3
text$x	ENDS
?construct@?$allocator@VioHashString@@@std@@QAEXPAVioHashString@@$$QAV3@@Z ENDP ; std::allocator<ioHashString>::construct
PUBLIC	?GetValueSize@ioEtcItem@@QAEHXZ			; ioEtcItem::GetValueSize
; Function compile flags: /Ogsp
; File d:\lost saga for developer\youtube\tutorial\source\src\lsclient\ioetcitem.h
;	COMDAT ?GetValueSize@ioEtcItem@@QAEHXZ
_TEXT	SEGMENT
?GetValueSize@ioEtcItem@@QAEHXZ PROC			; ioEtcItem::GetValueSize, COMDAT
; _this$ = ecx

; 470  : 	inline int     GetValueSize() { return m_vValueList.size(); }

  00000	8b 41 64	 mov	 eax, DWORD PTR [ecx+100]
  00003	2b 41 60	 sub	 eax, DWORD PTR [ecx+96]
  00006	c1 f8 02	 sar	 eax, 2
  00009	c3		 ret	 0
?GetValueSize@ioEtcItem@@QAEHXZ ENDP			; ioEtcItem::GetValueSize
_TEXT	ENDS
PUBLIC	?GetNodeSize@ioFriendManager@@QAEHXZ		; ioFriendManager::GetNodeSize
; Function compile flags: /Ogsp
; File d:\lost saga for developer\youtube\tutorial\source\src\lsclient\gui\iofriendmanager.h
;	COMDAT ?GetNodeSize@ioFriendManager@@QAEHXZ
_TEXT	SEGMENT
?GetNodeSize@ioFriendManager@@QAEHXZ PROC		; ioFriendManager::GetNodeSize, COMDAT
; _this$ = ecx

; 190  : 	int GetNodeSize(){ return m_vFriendNode.size(); }

  00000	8b 41 08	 mov	 eax, DWORD PTR [ecx+8]
  00003	2b 41 04	 sub	 eax, DWORD PTR [ecx+4]
  00006	c1 f8 02	 sar	 eax, 2
  00009	c3		 ret	 0
?GetNodeSize@ioFriendManager@@QAEHXZ ENDP		; ioFriendManager::GetNodeSize
_TEXT	ENDS
PUBLIC	?begin@?$vector@VioHashString@@V?$allocator@VioHashString@@@std@@@std@@QAE?AV?$_Vector_iterator@V?$_Vector_val@VioHashString@@V?$allocator@VioHashString@@@std@@@std@@@2@XZ ; std::vector<ioHashString,std::allocator<ioHashString> >::begin
; Function compile flags: /Ogsp
; File c:\program files (x86)\microsoft visual studio 10.0\vc\include\vector
;	COMDAT ?begin@?$vector@VioHashString@@V?$allocator@VioHashString@@@std@@@std@@QAE?AV?$_Vector_iterator@V?$_Vector_val@VioHashString@@V?$allocator@VioHashString@@@std@@@std@@@2@XZ
_TEXT	SEGMENT
___$ReturnUdt$ = 8					; size = 4
?begin@?$vector@VioHashString@@V?$allocator@VioHashString@@@std@@@std@@QAE?AV?$_Vector_iterator@V?$_Vector_val@VioHashString@@V?$allocator@VioHashString@@@std@@@std@@@2@XZ PROC ; std::vector<ioHashString,std::allocator<ioHashString> >::begin, COMDAT
; _this$ = ecx

; 781  : 		{	// return iterator for beginning of mutable sequence

  00000	55		 push	 ebp
  00001	8b ec		 mov	 ebp, esp

; 782  : 		return (iterator(this->_Myfirst, this));

  00003	8b 09		 mov	 ecx, DWORD PTR [ecx]
  00005	8b 45 08	 mov	 eax, DWORD PTR ___$ReturnUdt$[ebp]
  00008	89 08		 mov	 DWORD PTR [eax], ecx

; 783  : 		}

  0000a	5d		 pop	 ebp
  0000b	c2 04 00	 ret	 4
?begin@?$vector@VioHashString@@V?$allocator@VioHashString@@@std@@@std@@QAE?AV?$_Vector_iterator@V?$_Vector_val@VioHashString@@V?$allocator@VioHashString@@@std@@@std@@@2@XZ ENDP ; std::vector<ioHashString,std::allocator<ioHashString> >::begin
_TEXT	ENDS
PUBLIC	?end@?$vector@VioHashString@@V?$allocator@VioHashString@@@std@@@std@@QAE?AV?$_Vector_iterator@V?$_Vector_val@VioHashString@@V?$allocator@VioHashString@@@std@@@std@@@2@XZ ; std::vector<ioHashString,std::allocator<ioHashString> >::end
; Function compile flags: /Ogsp
;	COMDAT ?end@?$vector@VioHashString@@V?$allocator@VioHashString@@@std@@@std@@QAE?AV?$_Vector_iterator@V?$_Vector_val@VioHashString@@V?$allocator@VioHashString@@@std@@@std@@@2@XZ
_TEXT	SEGMENT
___$ReturnUdt$ = 8					; size = 4
?end@?$vector@VioHashString@@V?$allocator@VioHashString@@@std@@@std@@QAE?AV?$_Vector_iterator@V?$_Vector_val@VioHashString@@V?$allocator@VioHashString@@@std@@@std@@@2@XZ PROC ; std::vector<ioHashString,std::allocator<ioHashString> >::end, COMDAT
; _this$ = ecx

; 791  : 		{	// return iterator for end of mutable sequence

  00000	55		 push	 ebp
  00001	8b ec		 mov	 ebp, esp

; 792  : 		return (iterator(this->_Mylast, this));

  00003	8b 49 04	 mov	 ecx, DWORD PTR [ecx+4]
  00006	8b 45 08	 mov	 eax, DWORD PTR ___$ReturnUdt$[ebp]
  00009	89 08		 mov	 DWORD PTR [eax], ecx

; 793  : 		}

  0000b	5d		 pop	 ebp
  0000c	c2 04 00	 ret	 4
?end@?$vector@VioHashString@@V?$allocator@VioHashString@@@std@@@std@@QAE?AV?$_Vector_iterator@V?$_Vector_val@VioHashString@@V?$allocator@VioHashString@@@std@@@std@@@2@XZ ENDP ; std::vector<ioHashString,std::allocator<ioHashString> >::end
_TEXT	ENDS
PUBLIC	??0?$_Vector_val@VioHashString@@V?$allocator@VioHashString@@@std@@@std@@QAE@V?$allocator@VioHashString@@@1@@Z ; std::_Vector_val<ioHashString,std::allocator<ioHashString> >::_Vector_val<ioHashString,std::allocator<ioHashString> >
; Function compile flags: /Ogsp
;	COMDAT ??0?$_Vector_val@VioHashString@@V?$allocator@VioHashString@@@std@@@std@@QAE@V?$allocator@VioHashString@@@1@@Z
_TEXT	SEGMENT
__Al$ = 8						; size = 1
??0?$_Vector_val@VioHashString@@V?$allocator@VioHashString@@@std@@@std@@QAE@V?$allocator@VioHashString@@@1@@Z PROC ; std::_Vector_val<ioHashString,std::allocator<ioHashString> >::_Vector_val<ioHashString,std::allocator<ioHashString> >, COMDAT
; _this$ = ecx

; 426  : 		{	// construct allocator from _Al

  00000	8b c1		 mov	 eax, ecx

; 427  : 		_Myfirst = 0;

  00002	33 c9		 xor	 ecx, ecx
  00004	89 08		 mov	 DWORD PTR [eax], ecx

; 428  : 		_Mylast = 0;

  00006	89 48 04	 mov	 DWORD PTR [eax+4], ecx

; 429  : 		_Myend = 0;

  00009	89 48 08	 mov	 DWORD PTR [eax+8], ecx

; 430  : 		}

  0000c	c2 04 00	 ret	 4
??0?$_Vector_val@VioHashString@@V?$allocator@VioHashString@@@std@@@std@@QAE@V?$allocator@VioHashString@@@1@@Z ENDP ; std::_Vector_val<ioHashString,std::allocator<ioHashString> >::_Vector_val<ioHashString,std::allocator<ioHashString> >
_TEXT	ENDS
PUBLIC	?_Make_iter@?$vector@VioHashString@@V?$allocator@VioHashString@@@std@@@std@@QBE?AV?$_Vector_iterator@V?$_Vector_val@VioHashString@@V?$allocator@VioHashString@@@std@@@std@@@2@V?$_Vector_const_iterator@V?$_Vector_val@VioHashString@@V?$allocator@VioHashString@@@std@@@std@@@2@@Z ; std::vector<ioHashString,std::allocator<ioHashString> >::_Make_iter
; Function compile flags: /Ogsp
;	COMDAT ?_Make_iter@?$vector@VioHashString@@V?$allocator@VioHashString@@@std@@@std@@QBE?AV?$_Vector_iterator@V?$_Vector_val@VioHashString@@V?$allocator@VioHashString@@@std@@@std@@@2@V?$_Vector_const_iterator@V?$_Vector_val@VioHashString@@V?$allocator@VioHashString@@@std@@@std@@@2@@Z
_TEXT	SEGMENT
___$ReturnUdt$ = 8					; size = 4
__Where$ = 12						; size = 4
?_Make_iter@?$vector@VioHashString@@V?$allocator@VioHashString@@@std@@@std@@QBE?AV?$_Vector_iterator@V?$_Vector_val@VioHashString@@V?$allocator@VioHashString@@@std@@@std@@@2@V?$_Vector_const_iterator@V?$_Vector_val@VioHashString@@V?$allocator@VioHashString@@@std@@@std@@@2@@Z PROC ; std::vector<ioHashString,std::allocator<ioHashString> >::_Make_iter, COMDAT
; _this$ = ecx

; 801  : 		{	// make iterator from const_iterator

  00000	55		 push	 ebp
  00001	8b ec		 mov	 ebp, esp

; 802  : 		return (iterator(_Where._Ptr, this));

  00003	8b 45 08	 mov	 eax, DWORD PTR ___$ReturnUdt$[ebp]
  00006	8b 4d 0c	 mov	 ecx, DWORD PTR __Where$[ebp]
  00009	89 08		 mov	 DWORD PTR [eax], ecx

; 803  : 		}

  0000b	5d		 pop	 ebp
  0000c	c2 08 00	 ret	 8
?_Make_iter@?$vector@VioHashString@@V?$allocator@VioHashString@@@std@@@std@@QBE?AV?$_Vector_iterator@V?$_Vector_val@VioHashString@@V?$allocator@VioHashString@@@std@@@std@@@2@V?$_Vector_const_iterator@V?$_Vector_val@VioHashString@@V?$allocator@VioHashString@@@std@@@std@@@2@@Z ENDP ; std::vector<ioHashString,std::allocator<ioHashString> >::_Make_iter
_TEXT	ENDS
PUBLIC	?max_size@?$vector@VioHashString@@V?$allocator@VioHashString@@@std@@@std@@QBEIXZ ; std::vector<ioHashString,std::allocator<ioHashString> >::max_size
; Function compile flags: /Ogsp
;	COMDAT ?max_size@?$vector@VioHashString@@V?$allocator@VioHashString@@@std@@@std@@QBEIXZ
_TEXT	SEGMENT
?max_size@?$vector@VioHashString@@V?$allocator@VioHashString@@@std@@@std@@QBEIXZ PROC ; std::vector<ioHashString,std::allocator<ioHashString> >::max_size, COMDAT
; _this$ = ecx

; 884  : 		return (this->_Alval.max_size());

  00000	b8 ff ff ff 0f	 mov	 eax, 268435455		; 0fffffffH

; 885  : 		}

  00005	c3		 ret	 0
?max_size@?$vector@VioHashString@@V?$allocator@VioHashString@@@std@@@std@@QBEIXZ ENDP ; std::vector<ioHashString,std::allocator<ioHashString> >::max_size
_TEXT	ENDS
PUBLIC	?allocate@?$allocator@VioHashString@@@std@@QAEPAVioHashString@@I@Z ; std::allocator<ioHashString>::allocate
; Function compile flags: /Ogsp
; File c:\program files (x86)\microsoft visual studio 10.0\vc\include\xmemory
;	COMDAT ?allocate@?$allocator@VioHashString@@@std@@QAEPAVioHashString@@I@Z
_TEXT	SEGMENT
__Count$ = 8						; size = 4
?allocate@?$allocator@VioHashString@@@std@@QAEPAVioHashString@@I@Z PROC ; std::allocator<ioHashString>::allocate, COMDAT
; _this$ = ecx

; 186  : 		{	// allocate array of _Count elements

  00000	55		 push	 ebp
  00001	8b ec		 mov	 ebp, esp

; 187  : 		return (_Allocate(_Count, (pointer)0));

  00003	6a 00		 push	 0
  00005	ff 75 08	 push	 DWORD PTR __Count$[ebp]
  00008	e8 00 00 00 00	 call	 ??$_Allocate@VioHashString@@@std@@YAPAVioHashString@@IPAV1@@Z ; std::_Allocate<ioHashString>
  0000d	59		 pop	 ecx
  0000e	59		 pop	 ecx

; 188  : 		}

  0000f	5d		 pop	 ebp
  00010	c2 04 00	 ret	 4
?allocate@?$allocator@VioHashString@@@std@@QAEPAVioHashString@@I@Z ENDP ; std::allocator<ioHashString>::allocate
_TEXT	ENDS
PUBLIC	??8?$_Vector_const_iterator@V?$_Vector_val@VioHashString@@V?$allocator@VioHashString@@@std@@@std@@@std@@QBE_NABV01@@Z ; std::_Vector_const_iterator<std::_Vector_val<ioHashString,std::allocator<ioHashString> > >::operator==
; Function compile flags: /Ogsp
; File c:\program files (x86)\microsoft visual studio 10.0\vc\include\vector
;	COMDAT ??8?$_Vector_const_iterator@V?$_Vector_val@VioHashString@@V?$allocator@VioHashString@@@std@@@std@@@std@@QBE_NABV01@@Z
_TEXT	SEGMENT
__Right$ = 8						; size = 4
??8?$_Vector_const_iterator@V?$_Vector_val@VioHashString@@V?$allocator@VioHashString@@@std@@@std@@@std@@QBE_NABV01@@Z PROC ; std::_Vector_const_iterator<std::_Vector_val<ioHashString,std::allocator<ioHashString> > >::operator==, COMDAT
; _this$ = ecx

; 201  : 		{	// test for iterator equality

  00000	55		 push	 ebp
  00001	8b ec		 mov	 ebp, esp

; 202  : 		_Compat(_Right);
; 203  : 		return (this->_Ptr == _Right._Ptr);

  00003	8b 01		 mov	 eax, DWORD PTR [ecx]
  00005	8b 4d 08	 mov	 ecx, DWORD PTR __Right$[ebp]
  00008	2b 01		 sub	 eax, DWORD PTR [ecx]
  0000a	f7 d8		 neg	 eax
  0000c	1b c0		 sbb	 eax, eax
  0000e	40		 inc	 eax

; 204  : 		}

  0000f	5d		 pop	 ebp
  00010	c2 04 00	 ret	 4
??8?$_Vector_const_iterator@V?$_Vector_val@VioHashString@@V?$allocator@VioHashString@@@std@@@std@@@std@@QBE_NABV01@@Z ENDP ; std::_Vector_const_iterator<std::_Vector_val<ioHashString,std::allocator<ioHashString> > >::operator==
_TEXT	ENDS
PUBLIC	??$_Move@PAVioHashString@@PAV1@@std@@YAPAVioHashString@@PAV1@00U_Nonscalar_ptr_iterator_tag@0@@Z ; std::_Move<ioHashString *,ioHashString *>
; Function compile flags: /Ogsp
; File c:\program files (x86)\microsoft visual studio 10.0\vc\include\xutility
;	COMDAT ??$_Move@PAVioHashString@@PAV1@@std@@YAPAVioHashString@@PAV1@00U_Nonscalar_ptr_iterator_tag@0@@Z
_TEXT	SEGMENT
__First$ = 8						; size = 4
__Last$ = 12						; size = 4
__Dest$ = 16						; size = 4
___formal$ = 20						; size = 1
??$_Move@PAVioHashString@@PAV1@@std@@YAPAVioHashString@@PAV1@00U_Nonscalar_ptr_iterator_tag@0@@Z PROC ; std::_Move<ioHashString *,ioHashString *>, COMDAT

; 2512 : 	{	// move [_First, _Last) to [_Dest, ...), arbitrary iterators

  00000	55		 push	 ebp
  00001	8b ec		 mov	 ebp, esp
  00003	56		 push	 esi

; 2513 : 	for (; _First != _Last; ++_Dest, ++_First)

  00004	8b 75 08	 mov	 esi, DWORD PTR __First$[ebp]
  00007	eb 11		 jmp	 SHORT $LN11@Move
$LL3@Move:

; 2514 : 		*_Dest = _STD move(*_First);

  00009	8b 4d 10	 mov	 ecx, DWORD PTR __Dest$[ebp]
  0000c	56		 push	 esi
  0000d	ff 15 00 00 00
	00		 call	 DWORD PTR __imp_??4ioHashString@@QAEAAV0@ABV0@@Z
  00013	83 45 10 10	 add	 DWORD PTR __Dest$[ebp], 16 ; 00000010H
  00017	83 c6 10	 add	 esi, 16			; 00000010H
$LN11@Move:

; 2513 : 	for (; _First != _Last; ++_Dest, ++_First)

  0001a	3b 75 0c	 cmp	 esi, DWORD PTR __Last$[ebp]
  0001d	75 ea		 jne	 SHORT $LL3@Move

; 2515 : 	return (_Dest);

  0001f	8b 45 10	 mov	 eax, DWORD PTR __Dest$[ebp]
  00022	5e		 pop	 esi

; 2516 : 	}

  00023	5d		 pop	 ebp
  00024	c3		 ret	 0
??$_Move@PAVioHashString@@PAV1@@std@@YAPAVioHashString@@PAV1@00U_Nonscalar_ptr_iterator_tag@0@@Z ENDP ; std::_Move<ioHashString *,ioHashString *>
_TEXT	ENDS
PUBLIC	??$_Destroy@VioHashString@@@std@@YAXPAVioHashString@@@Z ; std::_Destroy<ioHashString>
; Function compile flags: /Ogsp
; File c:\program files (x86)\microsoft visual studio 10.0\vc\include\xmemory
;	COMDAT ??$_Destroy@VioHashString@@@std@@YAXPAVioHashString@@@Z
_TEXT	SEGMENT
__Ptr$ = 8						; size = 4
??$_Destroy@VioHashString@@@std@@YAXPAVioHashString@@@Z PROC ; std::_Destroy<ioHashString>, COMDAT

; 62   : 	{	// destroy object at _Ptr

  00000	55		 push	 ebp
  00001	8b ec		 mov	 ebp, esp

; 63   : 	_Ptr->~_Ty();

  00003	8b 4d 08	 mov	 ecx, DWORD PTR __Ptr$[ebp]

; 64   : 	}

  00006	5d		 pop	 ebp

; 63   : 	_Ptr->~_Ty();

  00007	ff 25 00 00 00
	00		 jmp	 DWORD PTR __imp_??1ioHashString@@QAE@XZ
??$_Destroy@VioHashString@@@std@@YAXPAVioHashString@@@Z ENDP ; std::_Destroy<ioHashString>
_TEXT	ENDS
PUBLIC	?construct@?$allocator@VioHashString@@@std@@QAEXPAVioHashString@@ABV3@@Z ; std::allocator<ioHashString>::construct
; Function compile flags: /Ogsp
;	COMDAT ?construct@?$allocator@VioHashString@@@std@@QAEXPAVioHashString@@ABV3@@Z
_TEXT	SEGMENT
__Ptr$ = 8						; size = 4
__Val$ = 12						; size = 4
?construct@?$allocator@VioHashString@@@std@@QAEXPAVioHashString@@ABV3@@Z PROC ; std::allocator<ioHashString>::construct, COMDAT
; _this$ = ecx

; 196  : 		{	// construct object at _Ptr with value _Val

  00000	55		 push	 ebp
  00001	8b ec		 mov	 ebp, esp

; 197  : 		_Construct(_Ptr, _Val);

  00003	ff 75 0c	 push	 DWORD PTR __Val$[ebp]
  00006	ff 75 08	 push	 DWORD PTR __Ptr$[ebp]
  00009	e8 00 00 00 00	 call	 ??$_Construct@VioHashString@@ABV1@@std@@YAXPAVioHashString@@ABV1@@Z ; std::_Construct<ioHashString,ioHashString const &>
  0000e	59		 pop	 ecx
  0000f	59		 pop	 ecx

; 198  : 		}

  00010	5d		 pop	 ebp
  00011	c2 08 00	 ret	 8
?construct@?$allocator@VioHashString@@@std@@QAEXPAVioHashString@@ABV3@@Z ENDP ; std::allocator<ioHashString>::construct
_TEXT	ENDS
PUBLIC	_xElement$GSCopy$
PUBLIC	__$ArrayPad$
PUBLIC	?ParseExtraInfo@SendPresentFriendListWnd@@UAEXAAVioXMLElement@@@Z ; SendPresentFriendListWnd::ParseExtraInfo
; Function compile flags: /Ogsp
; File d:\lost saga for developer\youtube\tutorial\source\src\lsclient\gui\sendpresentwnd.cpp
;	COMDAT ?ParseExtraInfo@SendPresentFriendListWnd@@UAEXAAVioXMLElement@@@Z
_TEXT	SEGMENT
_xElement$GSCopy$ = -24					; size = 4
__k$514305 = -20					; size = 9
__k$514180 = -20					; size = 10
__k$513792 = -20					; size = 10
__k$513667 = -20					; size = 9
__k$514042 = -16					; size = 6
__k$513917 = -16					; size = 6
__$ArrayPad$ = -4					; size = 4
_xElement$ = 8						; size = 4
?ParseExtraInfo@SendPresentFriendListWnd@@UAEXAAVioXMLElement@@@Z PROC ; SendPresentFriendListWnd::ParseExtraInfo, COMDAT
; _this$ = ecx

; 224  : {

  00000	55		 push	 ebp
  00001	8b ec		 mov	 ebp, esp
  00003	83 ec 18	 sub	 esp, 24			; 00000018H
  00006	a1 00 00 00 00	 mov	 eax, DWORD PTR ___security_cookie
  0000b	33 c5		 xor	 eax, ebp
  0000d	89 45 fc	 mov	 DWORD PTR __$ArrayPad$[ebp], eax
  00010	53		 push	 ebx
  00011	56		 push	 esi
  00012	57		 push	 edi
  00013	8b f9		 mov	 edi, ecx
  00015	8b 4d 08	 mov	 ecx, DWORD PTR _xElement$[ebp]

; 225  : 	m_iAddWidth	= xElement.GetIntAttribute_e( "AddWidth" );

  00018	6a 02		 push	 2

; 230  : 	m_iCutWidth = xElement.GetIntAttribute_e( "CutWidth" );

  0001a	89 4d e8	 mov	 DWORD PTR _xElement$GSCopy$[ebp], ecx
  0001d	c7 45 ec ac 88
	8f bd		 mov	 DWORD PTR __k$513667[ebp], -1114666836 ; bd8f88acH
  00024	c7 45 f0 84 88
	9f 82		 mov	 DWORD PTR __k$513667[ebp+4], -2103474044 ; 829f8884H
  0002b	8d 45 ec	 lea	 eax, DWORD PTR __k$513667[ebp]
  0002e	c6 45 f4 00	 mov	 BYTE PTR __k$513667[ebp+8], 0
  00032	5a		 pop	 edx
  00033	bb ed ec eb ea	 mov	 ebx, -353637139		; eaebecedH
$LL106@ParseExtra:

; 225  : 	m_iAddWidth	= xElement.GetIntAttribute_e( "AddWidth" );

  00038	31 18		 xor	 DWORD PTR [eax], ebx
  0003a	83 c0 04	 add	 eax, 4
  0003d	4a		 dec	 edx
  0003e	75 f8		 jne	 SHORT $LL106@ParseExtra
  00040	8b 35 00 00 00
	00		 mov	 esi, DWORD PTR __imp_?GetIntAttribute@ioXMLElement@@QBEHPBD@Z
  00046	8d 45 ec	 lea	 eax, DWORD PTR __k$513667[ebp]
  00049	50		 push	 eax
  0004a	ff d6		 call	 esi
  0004c	6a 02		 push	 2
  0004e	89 87 6c 01 00
	00		 mov	 DWORD PTR [edi+364], eax

; 226  : 	m_iAddHeight= xElement.GetIntAttribute_e( "AddHeight" );

  00054	c7 45 ec ac 88
	8f a2		 mov	 DWORD PTR __k$513792[ebp], -1567651668 ; a28f88acH
  0005b	c7 45 f0 88 85
	8c 82		 mov	 DWORD PTR __k$513792[ebp+4], -2104719992 ; 828c8588H
  00062	8d 45 ec	 lea	 eax, DWORD PTR __k$513792[ebp]
  00065	66 c7 45 f4 99
	00		 mov	 WORD PTR __k$513792[ebp+8], 153 ; 00000099H
  0006b	59		 pop	 ecx
$LL212@ParseExtra:
  0006c	31 18		 xor	 DWORD PTR [eax], ebx
  0006e	83 c0 04	 add	 eax, 4
  00071	49		 dec	 ecx
  00072	75 f8		 jne	 SHORT $LL212@ParseExtra
  00074	8b 4d e8	 mov	 ecx, DWORD PTR _xElement$GSCopy$[ebp]
  00077	80 75 f4 ed	 xor	 BYTE PTR __k$513792[ebp+8], -19 ; ffffffedH
  0007b	8d 45 ec	 lea	 eax, DWORD PTR __k$513792[ebp]
  0007e	50		 push	 eax
  0007f	ff d6		 call	 esi

; 227  : 	m_iListXPos = xElement.GetIntAttribute_e( "ListX" );

  00081	8b 4d e8	 mov	 ecx, DWORD PTR _xElement$GSCopy$[ebp]
  00084	89 87 70 01 00
	00		 mov	 DWORD PTR [edi+368], eax
  0008a	8d 45 f0	 lea	 eax, DWORD PTR __k$513917[ebp]
  0008d	c7 45 f0 a1 85
	98 9e		 mov	 DWORD PTR __k$513917[ebp], -1634171487 ; 9e9885a1H
  00094	31 5d f0	 xor	 DWORD PTR __k$513917[ebp], ebx
  00097	50		 push	 eax
  00098	66 c7 45 f4 58
	00		 mov	 WORD PTR __k$513917[ebp+4], 88 ; 00000058H
  0009e	ff d6		 call	 esi

; 228  : 	m_iListYPos = xElement.GetIntAttribute_e( "ListY" );

  000a0	8b 4d e8	 mov	 ecx, DWORD PTR _xElement$GSCopy$[ebp]
  000a3	89 87 74 01 00
	00		 mov	 DWORD PTR [edi+372], eax
  000a9	8d 45 f0	 lea	 eax, DWORD PTR __k$514042[ebp]
  000ac	c7 45 f0 a1 85
	98 9e		 mov	 DWORD PTR __k$514042[ebp], -1634171487 ; 9e9885a1H
  000b3	31 5d f0	 xor	 DWORD PTR __k$514042[ebp], ebx
  000b6	50		 push	 eax
  000b7	66 c7 45 f4 59
	00		 mov	 WORD PTR __k$514042[ebp+4], 89 ; 00000059H
  000bd	ff d6		 call	 esi
  000bf	6a 02		 push	 2
  000c1	89 87 78 01 00
	00		 mov	 DWORD PTR [edi+376], eax

; 229  : 	m_iHeightGap= xElement.GetIntAttribute_e( "HeightGap" );

  000c7	c7 45 ec a5 89
	82 8d		 mov	 DWORD PTR __k$514180[ebp], -1920824923 ; 8d8289a5H
  000ce	c7 45 f0 85 98
	ac 8b		 mov	 DWORD PTR __k$514180[ebp+4], -1951623035 ; 8bac9885H
  000d5	8d 45 ec	 lea	 eax, DWORD PTR __k$514180[ebp]
  000d8	66 c7 45 f4 9d
	00		 mov	 WORD PTR __k$514180[ebp+8], 157 ; 0000009dH
  000de	59		 pop	 ecx
$LL530@ParseExtra:
  000df	31 18		 xor	 DWORD PTR [eax], ebx
  000e1	83 c0 04	 add	 eax, 4
  000e4	49		 dec	 ecx
  000e5	75 f8		 jne	 SHORT $LL530@ParseExtra
  000e7	8b 4d e8	 mov	 ecx, DWORD PTR _xElement$GSCopy$[ebp]
  000ea	80 75 f4 ed	 xor	 BYTE PTR __k$514180[ebp+8], -19 ; ffffffedH
  000ee	8d 45 ec	 lea	 eax, DWORD PTR __k$514180[ebp]
  000f1	50		 push	 eax
  000f2	ff d6		 call	 esi
  000f4	6a 02		 push	 2
  000f6	89 87 7c 01 00
	00		 mov	 DWORD PTR [edi+380], eax

; 230  : 	m_iCutWidth = xElement.GetIntAttribute_e( "CutWidth" );

  000fc	c7 45 ec ae 99
	9f bd		 mov	 DWORD PTR __k$514305[ebp], -1113613906 ; bd9f99aeH
  00103	c7 45 f0 84 88
	9f 82		 mov	 DWORD PTR __k$514305[ebp+4], -2103474044 ; 829f8884H
  0010a	8d 45 ec	 lea	 eax, DWORD PTR __k$514305[ebp]
  0010d	c6 45 f4 00	 mov	 BYTE PTR __k$514305[ebp+8], 0
  00111	59		 pop	 ecx
$LL636@ParseExtra:
  00112	31 18		 xor	 DWORD PTR [eax], ebx
  00114	83 c0 04	 add	 eax, 4
  00117	49		 dec	 ecx
  00118	75 f8		 jne	 SHORT $LL636@ParseExtra
  0011a	8b 4d e8	 mov	 ecx, DWORD PTR _xElement$GSCopy$[ebp]
  0011d	8d 45 ec	 lea	 eax, DWORD PTR __k$514305[ebp]
  00120	50		 push	 eax
  00121	ff d6		 call	 esi

; 231  : }

  00123	8b 4d fc	 mov	 ecx, DWORD PTR __$ArrayPad$[ebp]
  00126	89 87 80 01 00
	00		 mov	 DWORD PTR [edi+384], eax
  0012c	5f		 pop	 edi
  0012d	5e		 pop	 esi
  0012e	33 cd		 xor	 ecx, ebp
  00130	5b		 pop	 ebx
  00131	e8 00 00 00 00	 call	 @__security_check_cookie@4
  00136	c9		 leave
  00137	c2 04 00	 ret	 4
?ParseExtraInfo@SendPresentFriendListWnd@@UAEXAAVioXMLElement@@@Z ENDP ; SendPresentFriendListWnd::ParseExtraInfo
_TEXT	ENDS
PUBLIC	_szType$GSCopy$
PUBLIC	_pImage$GSCopy$
PUBLIC	_this$GSCopy$
PUBLIC	__$ArrayPad$
PUBLIC	?AddRenderImage@SendPresentFriendListWnd@@UAEXABVioHashString@@PAVioUIRenderImage@@@Z ; SendPresentFriendListWnd::AddRenderImage
EXTRN	__imp_?AddRenderImage@ioWnd@@UAEXABVioHashString@@PAVioUIRenderImage@@@Z:PROC
; Function compile flags: /Ogsp
;	COMDAT ?AddRenderImage@SendPresentFriendListWnd@@UAEXABVioHashString@@PAVioUIRenderImage@@@Z
_TEXT	SEGMENT
_szType$GSCopy$ = -32					; size = 4
_pImage$GSCopy$ = -28					; size = 4
_this$GSCopy$ = -24					; size = 4
__t$514764 = -20					; size = 9
__t$514582 = -20					; size = 10
__t$514514 = -20					; size = 9
__$ArrayPad$ = -4					; size = 4
_szType$ = 8						; size = 4
_pImage$ = 12						; size = 4
?AddRenderImage@SendPresentFriendListWnd@@UAEXABVioHashString@@PAVioUIRenderImage@@@Z PROC ; SendPresentFriendListWnd::AddRenderImage, COMDAT
; _this$ = ecx

; 234  : {

  00000	55		 push	 ebp
  00001	8b ec		 mov	 ebp, esp
  00003	83 ec 20	 sub	 esp, 32			; 00000020H
  00006	a1 00 00 00 00	 mov	 eax, DWORD PTR ___security_cookie
  0000b	33 c5		 xor	 eax, ebp
  0000d	89 45 fc	 mov	 DWORD PTR __$ArrayPad$[ebp], eax
  00010	8b 45 0c	 mov	 eax, DWORD PTR _pImage$[ebp]
  00013	8b 55 08	 mov	 edx, DWORD PTR _szType$[ebp]
  00016	53		 push	 ebx
  00017	56		 push	 esi
  00018	57		 push	 edi

; 235  : 	if( szType == "DarkLine" )

  00019	6a 02		 push	 2
  0001b	5f		 pop	 edi
  0001c	89 4d e8	 mov	 DWORD PTR _this$GSCopy$[ebp], ecx

; 244  : 	}
; 245  : 	else if( szType == "OverLine" )

  0001f	89 45 e4	 mov	 DWORD PTR _pImage$GSCopy$[ebp], eax
  00022	89 55 e0	 mov	 DWORD PTR _szType$GSCopy$[ebp], edx
  00025	c7 45 ec a9 8d
	99 81		 mov	 DWORD PTR __t$514514[ebp], -2120643159 ; 81998da9H
  0002c	c7 45 f0 a1 85
	85 8f		 mov	 DWORD PTR __t$514514[ebp+4], -1887074911 ; 8f8585a1H
  00033	8d 45 ec	 lea	 eax, DWORD PTR __t$514514[ebp]
  00036	c6 45 f4 00	 mov	 BYTE PTR __t$514514[ebp+8], 0
  0003a	8b cf		 mov	 ecx, edi
  0003c	bb ed ec eb ea	 mov	 ebx, -353637139		; eaebecedH
$LL121@AddRenderI:

; 235  : 	if( szType == "DarkLine" )

  00041	31 18		 xor	 DWORD PTR [eax], ebx
  00043	83 c0 04	 add	 eax, 4
  00046	49		 dec	 ecx
  00047	75 f8		 jne	 SHORT $LL121@AddRenderI
  00049	8b ca		 mov	 ecx, edx
  0004b	8d 75 ec	 lea	 esi, DWORD PTR __t$514514[ebp]
  0004e	ff 15 00 00 00
	00		 call	 DWORD PTR __imp_?c_str@ioHashString@@QBEPBDXZ
$LL350@AddRenderI:
  00054	8a 08		 mov	 cl, BYTE PTR [eax]
  00056	3a 0e		 cmp	 cl, BYTE PTR [esi]
  00058	75 18		 jne	 SHORT $LN351@AddRenderI
  0005a	84 c9		 test	 cl, cl
  0005c	74 10		 je	 SHORT $LN352@AddRenderI
  0005e	8a 48 01	 mov	 cl, BYTE PTR [eax+1]
  00061	3a 4e 01	 cmp	 cl, BYTE PTR [esi+1]
  00064	75 0c		 jne	 SHORT $LN351@AddRenderI
  00066	03 c7		 add	 eax, edi
  00068	03 f7		 add	 esi, edi
  0006a	84 c9		 test	 cl, cl
  0006c	75 e6		 jne	 SHORT $LL350@AddRenderI
$LN352@AddRenderI:
  0006e	33 c0		 xor	 eax, eax
  00070	eb 05		 jmp	 SHORT $LN353@AddRenderI
$LN351@AddRenderI:
  00072	1b c0		 sbb	 eax, eax
  00074	83 d8 ff	 sbb	 eax, -1
$LN353@AddRenderI:
  00077	85 c0		 test	 eax, eax
  00079	75 29		 jne	 SHORT $LN348@AddRenderI

; 236  : 	{
; 237  : 		SAFEDELETE( m_pDarkLine );

  0007b	8b 75 e8	 mov	 esi, DWORD PTR _this$GSCopy$[ebp]
  0007e	8b 8e 60 01 00
	00		 mov	 ecx, DWORD PTR [esi+352]
  00084	85 c9		 test	 ecx, ecx
  00086	74 0e		 je	 SHORT $LN8@AddRenderI
  00088	8b 01		 mov	 eax, DWORD PTR [ecx]
  0008a	6a 01		 push	 1
  0008c	ff 50 40	 call	 DWORD PTR [eax+64]
  0008f	83 a6 60 01 00
	00 00		 and	 DWORD PTR [esi+352], 0
$LN8@AddRenderI:

; 238  : 		m_pDarkLine = pImage;

  00096	8b 45 e4	 mov	 eax, DWORD PTR _pImage$GSCopy$[ebp]
  00099	89 86 60 01 00
	00		 mov	 DWORD PTR [esi+352], eax
  0009f	e9 08 01 00 00	 jmp	 $LN1@AddRenderI
$LN348@AddRenderI:

; 239  : 	}
; 240  : 	else if( szType == "LightLine" )

  000a4	c7 45 ec a1 85
	8c 82		 mov	 DWORD PTR __t$514582[ebp], -2104719967 ; 828c85a1H
  000ab	c7 45 f0 99 a0
	82 84		 mov	 DWORD PTR __t$514582[ebp+4], -2071813991 ; 8482a099H
  000b2	8d 45 ec	 lea	 eax, DWORD PTR __t$514582[ebp]
  000b5	66 c7 45 f4 88
	00		 mov	 WORD PTR __t$514582[ebp+8], 136 ; 00000088H
  000bb	8b cf		 mov	 ecx, edi
$LL227@AddRenderI:
  000bd	31 18		 xor	 DWORD PTR [eax], ebx
  000bf	83 c0 04	 add	 eax, 4
  000c2	49		 dec	 ecx
  000c3	75 f8		 jne	 SHORT $LL227@AddRenderI
  000c5	8b 4d e0	 mov	 ecx, DWORD PTR _szType$GSCopy$[ebp]
  000c8	80 75 f4 ed	 xor	 BYTE PTR __t$514582[ebp+8], -19 ; ffffffedH
  000cc	8d 75 ec	 lea	 esi, DWORD PTR __t$514582[ebp]
  000cf	ff 15 00 00 00
	00		 call	 DWORD PTR __imp_?c_str@ioHashString@@QBEPBDXZ
$LL354@AddRenderI:
  000d5	8a 08		 mov	 cl, BYTE PTR [eax]
  000d7	3a 0e		 cmp	 cl, BYTE PTR [esi]
  000d9	75 18		 jne	 SHORT $LN355@AddRenderI
  000db	84 c9		 test	 cl, cl
  000dd	74 10		 je	 SHORT $LN356@AddRenderI
  000df	8a 48 01	 mov	 cl, BYTE PTR [eax+1]
  000e2	3a 4e 01	 cmp	 cl, BYTE PTR [esi+1]
  000e5	75 0c		 jne	 SHORT $LN355@AddRenderI
  000e7	03 c7		 add	 eax, edi
  000e9	03 f7		 add	 esi, edi
  000eb	84 c9		 test	 cl, cl
  000ed	75 e6		 jne	 SHORT $LL354@AddRenderI
$LN356@AddRenderI:
  000ef	33 c0		 xor	 eax, eax
  000f1	eb 05		 jmp	 SHORT $LN357@AddRenderI
$LN355@AddRenderI:
  000f3	1b c0		 sbb	 eax, eax
  000f5	83 d8 ff	 sbb	 eax, -1
$LN357@AddRenderI:
  000f8	85 c0		 test	 eax, eax
  000fa	75 29		 jne	 SHORT $LN349@AddRenderI

; 241  : 	{
; 242  : 		SAFEDELETE( m_pLightLine );

  000fc	8b 75 e8	 mov	 esi, DWORD PTR _this$GSCopy$[ebp]
  000ff	8b 8e 64 01 00
	00		 mov	 ecx, DWORD PTR [esi+356]
  00105	85 c9		 test	 ecx, ecx
  00107	74 0e		 je	 SHORT $LN5@AddRenderI
  00109	8b 01		 mov	 eax, DWORD PTR [ecx]
  0010b	6a 01		 push	 1
  0010d	ff 50 40	 call	 DWORD PTR [eax+64]
  00110	83 a6 64 01 00
	00 00		 and	 DWORD PTR [esi+356], 0
$LN5@AddRenderI:

; 243  : 		m_pLightLine = pImage;

  00117	8b 45 e4	 mov	 eax, DWORD PTR _pImage$GSCopy$[ebp]
  0011a	89 86 64 01 00
	00		 mov	 DWORD PTR [esi+356], eax
  00120	e9 87 00 00 00	 jmp	 $LN1@AddRenderI
$LN349@AddRenderI:

; 244  : 	}
; 245  : 	else if( szType == "OverLine" )

  00125	c7 45 ec a2 9a
	8e 98		 mov	 DWORD PTR __t$514764[ebp], -1735484766 ; 988e9aa2H
  0012c	c7 45 f0 a1 85
	85 8f		 mov	 DWORD PTR __t$514764[ebp+4], -1887074911 ; 8f8585a1H
  00133	8d 45 ec	 lea	 eax, DWORD PTR __t$514764[ebp]
  00136	c6 45 f4 00	 mov	 BYTE PTR __t$514764[ebp+8], 0
  0013a	8b cf		 mov	 ecx, edi
$LL333@AddRenderI:
  0013c	31 18		 xor	 DWORD PTR [eax], ebx
  0013e	83 c0 04	 add	 eax, 4
  00141	49		 dec	 ecx
  00142	75 f8		 jne	 SHORT $LL333@AddRenderI
  00144	8b 4d e0	 mov	 ecx, DWORD PTR _szType$GSCopy$[ebp]
  00147	8d 75 ec	 lea	 esi, DWORD PTR __t$514764[ebp]
  0014a	ff 15 00 00 00
	00		 call	 DWORD PTR __imp_?c_str@ioHashString@@QBEPBDXZ
$LL358@AddRenderI:
  00150	8a 08		 mov	 cl, BYTE PTR [eax]
  00152	3a 0e		 cmp	 cl, BYTE PTR [esi]
  00154	75 18		 jne	 SHORT $LN359@AddRenderI
  00156	84 c9		 test	 cl, cl
  00158	74 10		 je	 SHORT $LN360@AddRenderI
  0015a	8a 48 01	 mov	 cl, BYTE PTR [eax+1]
  0015d	3a 4e 01	 cmp	 cl, BYTE PTR [esi+1]
  00160	75 0c		 jne	 SHORT $LN359@AddRenderI
  00162	03 c7		 add	 eax, edi
  00164	03 f7		 add	 esi, edi
  00166	84 c9		 test	 cl, cl
  00168	75 e6		 jne	 SHORT $LL358@AddRenderI
$LN360@AddRenderI:
  0016a	33 c0		 xor	 eax, eax
  0016c	eb 05		 jmp	 SHORT $LN361@AddRenderI
$LN359@AddRenderI:
  0016e	1b c0		 sbb	 eax, eax
  00170	83 d8 ff	 sbb	 eax, -1
$LN361@AddRenderI:
  00173	85 c0		 test	 eax, eax
  00175	75 26		 jne	 SHORT $LN3@AddRenderI

; 246  : 	{
; 247  : 		SAFEDELETE( m_pOverLine );

  00177	8b 75 e8	 mov	 esi, DWORD PTR _this$GSCopy$[ebp]
  0017a	8b 8e 68 01 00
	00		 mov	 ecx, DWORD PTR [esi+360]
  00180	85 c9		 test	 ecx, ecx
  00182	74 0e		 je	 SHORT $LN2@AddRenderI
  00184	8b 01		 mov	 eax, DWORD PTR [ecx]
  00186	6a 01		 push	 1
  00188	ff 50 40	 call	 DWORD PTR [eax+64]
  0018b	83 a6 68 01 00
	00 00		 and	 DWORD PTR [esi+360], 0
$LN2@AddRenderI:

; 248  : 		m_pOverLine = pImage;

  00192	8b 45 e4	 mov	 eax, DWORD PTR _pImage$GSCopy$[ebp]
  00195	89 86 68 01 00
	00		 mov	 DWORD PTR [esi+360], eax

; 249  : 	}
; 250  : 	else

  0019b	eb 0f		 jmp	 SHORT $LN1@AddRenderI
$LN3@AddRenderI:

; 251  : 	{
; 252  : 		ioWnd::AddRenderImage( szType, pImage );

  0019d	ff 75 e4	 push	 DWORD PTR _pImage$GSCopy$[ebp]
  001a0	8b 4d e8	 mov	 ecx, DWORD PTR _this$GSCopy$[ebp]
  001a3	ff 75 e0	 push	 DWORD PTR _szType$GSCopy$[ebp]
  001a6	ff 15 00 00 00
	00		 call	 DWORD PTR __imp_?AddRenderImage@ioWnd@@UAEXABVioHashString@@PAVioUIRenderImage@@@Z
$LN1@AddRenderI:

; 253  : 	}
; 254  : }

  001ac	8b 4d fc	 mov	 ecx, DWORD PTR __$ArrayPad$[ebp]
  001af	5f		 pop	 edi
  001b0	5e		 pop	 esi
  001b1	33 cd		 xor	 ecx, ebp
  001b3	5b		 pop	 ebx
  001b4	e8 00 00 00 00	 call	 @__security_check_cookie@4
  001b9	c9		 leave
  001ba	c2 08 00	 ret	 8
?AddRenderImage@SendPresentFriendListWnd@@UAEXABVioHashString@@PAVioUIRenderImage@@@Z ENDP ; SendPresentFriendListWnd::AddRenderImage
_TEXT	ENDS
PUBLIC	_this$GSCopy$
PUBLIC	__$ArrayPad$
; Function compile flags: /Ogsp
;	COMDAT ?AddRenderImage@SendPresentConfirmWnd@@UAEXABVioHashString@@PAVioUIRenderImage@@@Z
_TEXT	SEGMENT
_this$GSCopy$ = -28					; size = 4
__t$514867 = -24					; size = 14
__$ArrayPad$ = -4					; size = 4
_szType$ = 8						; size = 4
_pImage$ = 12						; size = 4
?AddRenderImage@SendPresentConfirmWnd@@UAEXABVioHashString@@PAVioUIRenderImage@@@Z PROC ; SendPresentConfirmWnd::AddRenderImage, COMDAT
; _this$ = ecx

; 475  : {

  00000	55		 push	 ebp
  00001	8b ec		 mov	 ebp, esp
  00003	83 ec 1c	 sub	 esp, 28			; 0000001cH
  00006	a1 00 00 00 00	 mov	 eax, DWORD PTR ___security_cookie
  0000b	33 c5		 xor	 eax, ebp
  0000d	89 45 fc	 mov	 DWORD PTR __$ArrayPad$[ebp], eax
  00010	53		 push	 ebx
  00011	8b 5d 0c	 mov	 ebx, DWORD PTR _pImage$[ebp]
  00014	56		 push	 esi
  00015	57		 push	 edi
  00016	8b 7d 08	 mov	 edi, DWORD PTR _szType$[ebp]

; 476  : 	if( szType == "costume_image" )

  00019	6a 03		 push	 3
  0001b	89 4d e4	 mov	 DWORD PTR _this$GSCopy$[ebp], ecx
  0001e	c7 45 e8 8e 83
	98 9e		 mov	 DWORD PTR __t$514867[ebp], -1634172018 ; 9e98838eH
  00025	c7 45 ec 98 81
	8e b5		 mov	 DWORD PTR __t$514867[ebp+4], -1248951912 ; b58e8198H
  0002c	c7 45 f0 84 81
	8a 8d		 mov	 DWORD PTR __t$514867[ebp+8], -1920302716 ; 8d8a8184H
  00033	8d 45 e8	 lea	 eax, DWORD PTR __t$514867[ebp]
  00036	66 c7 45 f4 88
	00		 mov	 WORD PTR __t$514867[ebp+12], 136 ; 00000088H
  0003c	59		 pop	 ecx
$LL111@AddRenderI@2:
  0003d	81 30 ed ec eb
	ea		 xor	 DWORD PTR [eax], -353637139 ; eaebecedH
  00043	83 c0 04	 add	 eax, 4
  00046	49		 dec	 ecx
  00047	75 f4		 jne	 SHORT $LL111@AddRenderI@2
  00049	80 75 f4 ed	 xor	 BYTE PTR __t$514867[ebp+12], -19 ; ffffffedH
  0004d	8b cf		 mov	 ecx, edi
  0004f	8d 75 e8	 lea	 esi, DWORD PTR __t$514867[ebp]
  00052	ff 15 00 00 00
	00		 call	 DWORD PTR __imp_?c_str@ioHashString@@QBEPBDXZ
$LL118@AddRenderI@2:
  00058	8a 08		 mov	 cl, BYTE PTR [eax]
  0005a	3a 0e		 cmp	 cl, BYTE PTR [esi]
  0005c	75 1a		 jne	 SHORT $LN119@AddRenderI@2
  0005e	84 c9		 test	 cl, cl
  00060	74 12		 je	 SHORT $LN120@AddRenderI@2
  00062	8a 48 01	 mov	 cl, BYTE PTR [eax+1]
  00065	3a 4e 01	 cmp	 cl, BYTE PTR [esi+1]
  00068	75 0e		 jne	 SHORT $LN119@AddRenderI@2
  0006a	83 c0 02	 add	 eax, 2
  0006d	83 c6 02	 add	 esi, 2
  00070	84 c9		 test	 cl, cl
  00072	75 e4		 jne	 SHORT $LL118@AddRenderI@2
$LN120@AddRenderI@2:
  00074	33 c0		 xor	 eax, eax
  00076	eb 05		 jmp	 SHORT $LN121@AddRenderI@2
$LN119@AddRenderI@2:
  00078	1b c0		 sbb	 eax, eax
  0007a	83 d8 ff	 sbb	 eax, -1
$LN121@AddRenderI@2:
  0007d	85 c0		 test	 eax, eax
  0007f	75 23		 jne	 SHORT $LN3@AddRenderI@2

; 477  : 	{
; 478  : 		SAFEDELETE( m_pCostumeMark );

  00081	8b 75 e4	 mov	 esi, DWORD PTR _this$GSCopy$[ebp]
  00084	8b 8e 64 01 00
	00		 mov	 ecx, DWORD PTR [esi+356]
  0008a	85 c9		 test	 ecx, ecx
  0008c	74 0e		 je	 SHORT $LN2@AddRenderI@2
  0008e	8b 01		 mov	 eax, DWORD PTR [ecx]
  00090	6a 01		 push	 1
  00092	ff 50 40	 call	 DWORD PTR [eax+64]
  00095	83 a6 64 01 00
	00 00		 and	 DWORD PTR [esi+356], 0
$LN2@AddRenderI@2:

; 479  : 		m_pCostumeMark = pImage;

  0009c	89 9e 64 01 00
	00		 mov	 DWORD PTR [esi+356], ebx

; 480  : 	}
; 481  : 	else

  000a2	eb 0b		 jmp	 SHORT $LN1@AddRenderI@2
$LN3@AddRenderI@2:

; 482  : 		ioWnd::AddRenderImage( szType, pImage );

  000a4	8b 4d e4	 mov	 ecx, DWORD PTR _this$GSCopy$[ebp]
  000a7	53		 push	 ebx
  000a8	57		 push	 edi
  000a9	ff 15 00 00 00
	00		 call	 DWORD PTR __imp_?AddRenderImage@ioWnd@@UAEXABVioHashString@@PAVioUIRenderImage@@@Z
$LN1@AddRenderI@2:

; 483  : }

  000af	8b 4d fc	 mov	 ecx, DWORD PTR __$ArrayPad$[ebp]
  000b2	5f		 pop	 edi
  000b3	5e		 pop	 esi
  000b4	33 cd		 xor	 ecx, ebp
  000b6	5b		 pop	 ebx
  000b7	e8 00 00 00 00	 call	 @__security_check_cookie@4
  000bc	c9		 leave
  000bd	c2 08 00	 ret	 8
?AddRenderImage@SendPresentConfirmWnd@@UAEXABVioHashString@@PAVioUIRenderImage@@@Z ENDP ; SendPresentConfirmWnd::AddRenderImage
_TEXT	ENDS
PUBLIC	?GetBonusPeso@SendPresentConfirmWnd@@IAEHFHH@Z	; SendPresentConfirmWnd::GetBonusPeso
EXTRN	?GetBonusPeso@ioEtcItem@@QBEHH@Z:PROC		; ioEtcItem::GetBonusPeso
EXTRN	?GetValue@ioEtcItem@@QBEHH@Z:PROC		; ioEtcItem::GetValue
EXTRN	?GetDecoDataPtr@ioDecorationPrice@@QAEPBUtagDecoData@@HHH@Z:PROC ; ioDecorationPrice::GetDecoDataPtr
EXTRN	?GetBonusPeso@ioClassPrice@@QAEHH@Z:PROC	; ioClassPrice::GetBonusPeso
EXTRN	?GetSingleton@ioClassPrice@@SAAAV1@XZ:PROC	; ioClassPrice::GetSingleton
; Function compile flags: /Ogsp
;	COMDAT ?GetBonusPeso@SendPresentConfirmWnd@@IAEHFHH@Z
_TEXT	SEGMENT
_iBonusPeso$ = -4					; size = 4
tv235 = 8						; size = 4
tv232 = 8						; size = 4
_iPresentType$ = 8					; size = 2
_iPresentValue1$ = 12					; size = 4
_iPresentValue2$ = 16					; size = 4
?GetBonusPeso@SendPresentConfirmWnd@@IAEHFHH@Z PROC	; SendPresentConfirmWnd::GetBonusPeso, COMDAT
; _this$ = ecx

; 740  : {

  00000	55		 push	 ebp
  00001	8b ec		 mov	 ebp, esp
  00003	51		 push	 ecx

; 741  : 	int iBonusPeso = 0;
; 742  : 	if( iPresentType == PRESENT_SOLDIER )

  00004	66 8b 45 08	 mov	 ax, WORD PTR _iPresentType$[ebp]
  00008	53		 push	 ebx
  00009	33 db		 xor	 ebx, ebx
  0000b	57		 push	 edi
  0000c	89 5d fc	 mov	 DWORD PTR _iBonusPeso$[ebp], ebx
  0000f	66 83 f8 01	 cmp	 ax, 1
  00013	75 17		 jne	 SHORT $LN17@GetBonusPe

; 743  : 	{
; 744  : 		iBonusPeso = g_ClassPrice.GetBonusPeso( iPresentValue1 );

  00015	ff 75 0c	 push	 DWORD PTR _iPresentValue1$[ebp]
  00018	e8 00 00 00 00	 call	 ?GetSingleton@ioClassPrice@@SAAAV1@XZ ; ioClassPrice::GetSingleton
  0001d	8b c8		 mov	 ecx, eax
  0001f	e8 00 00 00 00	 call	 ?GetBonusPeso@ioClassPrice@@QAEHH@Z ; ioClassPrice::GetBonusPeso
  00024	89 45 fc	 mov	 DWORD PTR _iBonusPeso$[ebp], eax
  00027	e9 b3 00 00 00	 jmp	 $LN31@GetBonusPe
$LN17@GetBonusPe:
  0002c	56		 push	 esi

; 745  : 	}
; 746  : 	else if( iPresentType == PRESENT_DECORATION )

  0002d	66 83 f8 02	 cmp	 ax, 2
  00031	75 54		 jne	 SHORT $LN15@GetBonusPe

; 747  : 	{
; 748  : 		int iSexType   = ( iPresentValue1 % 100000) / FLOAT1000;

  00033	b8 e8 03 00 00	 mov	 eax, 1000		; 000003e8H
  00038	8b c8		 mov	 ecx, eax

; 749  : 		int iDecoType  = iPresentValue1 % 1000;

  0003a	8b 45 0c	 mov	 eax, DWORD PTR _iPresentValue1$[ebp]
  0003d	99		 cdq
  0003e	be e8 03 00 00	 mov	 esi, 1000		; 000003e8H
  00043	f7 fe		 idiv	 esi

; 750  : 		int iDecoCode  = iPresentValue2;
; 751  : 
; 752  : 		const DecoData *pData = g_DecorationPrice.GetDecoDataPtr( iSexType, iDecoType, iDecoCode );

  00045	ff 75 10	 push	 DWORD PTR _iPresentValue2$[ebp]
  00048	8b 45 0c	 mov	 eax, DWORD PTR _iPresentValue1$[ebp]
  0004b	be a0 86 01 00	 mov	 esi, 100000		; 000186a0H
  00050	52		 push	 edx
  00051	99		 cdq
  00052	f7 fe		 idiv	 esi
  00054	89 55 08	 mov	 DWORD PTR tv235[ebp], edx
  00057	db 45 08	 fild	 DWORD PTR tv235[ebp]
  0005a	89 4d 08	 mov	 DWORD PTR tv232[ebp], ecx
  0005d	db 45 08	 fild	 DWORD PTR tv232[ebp]
  00060	85 c9		 test	 ecx, ecx
  00062	79 06		 jns	 SHORT $LN33@GetBonusPe
  00064	d8 05 00 00 00
	00		 fadd	 DWORD PTR __real@4f800000
$LN33@GetBonusPe:

; 747  : 	{
; 748  : 		int iSexType   = ( iPresentValue1 % 100000) / FLOAT1000;

  0006a	de f9		 fdivp	 ST(1), ST(0)

; 750  : 		int iDecoCode  = iPresentValue2;
; 751  : 
; 752  : 		const DecoData *pData = g_DecorationPrice.GetDecoDataPtr( iSexType, iDecoType, iDecoCode );

  0006c	e8 00 00 00 00	 call	 __ftol2_sse
  00071	50		 push	 eax
  00072	e8 00 00 00 00	 call	 ?GetSingleton@ioDecorationPrice@@SAAAV1@XZ ; ioDecorationPrice::GetSingleton
  00077	8b c8		 mov	 ecx, eax
  00079	e8 00 00 00 00	 call	 ?GetDecoDataPtr@ioDecorationPrice@@QAEPBUtagDecoData@@HHH@Z ; ioDecorationPrice::GetDecoDataPtr

; 753  : 		if( !pData )

  0007e	3b c3		 cmp	 eax, ebx

; 754  : 			iBonusPeso = 0;
; 755  : 		else

  00080	74 59		 je	 SHORT $LN34@GetBonusPe

; 756  : 			iBonusPeso = pData->m_iBonusPeso;

  00082	8b 40 3c	 mov	 eax, DWORD PTR [eax+60]
  00085	eb 43		 jmp	 SHORT $LN35@GetBonusPe
$LN15@GetBonusPe:

; 757  : 	}
; 758  : 	else if( iPresentType == PRESENT_ETC_ITEM )

  00087	66 83 f8 03	 cmp	 ax, 3
  0008b	75 42		 jne	 SHORT $LN11@GetBonusPe

; 759  : 	{
; 760  : 		ioEtcItem* pEtcItem = g_EtcItemMgr.FindEtcItem( iPresentValue1 );

  0008d	ff 75 0c	 push	 DWORD PTR _iPresentValue1$[ebp]
  00090	8b 0d 00 00 00
	00		 mov	 ecx, DWORD PTR ?ms_Singleton@?$Singleton@VioEtcItemManager@@@@1PAVioEtcItemManager@@A ; Singleton<ioEtcItemManager>::ms_Singleton
  00096	e8 00 00 00 00	 call	 ?FindEtcItem@ioEtcItemManager@@QAEPAVioEtcItem@@K@Z ; ioEtcItemManager::FindEtcItem
  0009b	8b f8		 mov	 edi, eax

; 761  : 		if( !pEtcItem )

  0009d	3b fb		 cmp	 edi, ebx

; 762  : 			iBonusPeso = 0;
; 763  : 		else

  0009f	74 3a		 je	 SHORT $LN34@GetBonusPe

; 764  : 		{
; 765  : 			int iSize = pEtcItem->GetValueSize();

  000a1	8b 77 64	 mov	 esi, DWORD PTR [edi+100]
  000a4	2b 77 60	 sub	 esi, DWORD PTR [edi+96]
  000a7	c1 fe 02	 sar	 esi, 2

; 766  : 			for (int i = 0; i < iSize ; i++)

  000aa	3b f3		 cmp	 esi, ebx
  000ac	7e 30		 jle	 SHORT $LN32@GetBonusPe
$LL8@GetBonusPe:

; 767  : 			{
; 768  : 				if( iPresentValue2 == pEtcItem->GetValue( i ) )

  000ae	53		 push	 ebx
  000af	8b cf		 mov	 ecx, edi
  000b1	e8 00 00 00 00	 call	 ?GetValue@ioEtcItem@@QBEHH@Z ; ioEtcItem::GetValue
  000b6	39 45 10	 cmp	 DWORD PTR _iPresentValue2$[ebp], eax
  000b9	74 07		 je	 SHORT $LN29@GetBonusPe

; 766  : 			for (int i = 0; i < iSize ; i++)

  000bb	43		 inc	 ebx
  000bc	3b de		 cmp	 ebx, esi
  000be	7c ee		 jl	 SHORT $LL8@GetBonusPe

; 767  : 			{
; 768  : 				if( iPresentValue2 == pEtcItem->GetValue( i ) )

  000c0	eb 1c		 jmp	 SHORT $LN32@GetBonusPe
$LN29@GetBonusPe:

; 769  : 				{
; 770  : 					iBonusPeso = pEtcItem->GetBonusPeso( i );

  000c2	53		 push	 ebx
  000c3	8b cf		 mov	 ecx, edi
  000c5	e8 00 00 00 00	 call	 ?GetBonusPeso@ioEtcItem@@QBEHH@Z ; ioEtcItem::GetBonusPeso
$LN35@GetBonusPe:
  000ca	89 45 fc	 mov	 DWORD PTR _iBonusPeso$[ebp], eax

; 771  : 					break;
; 772  : 				}
; 773  : 			}

  000cd	eb 0f		 jmp	 SHORT $LN32@GetBonusPe
$LN11@GetBonusPe:

; 774  : 		}
; 775  : 	}
; 776  : 	else if( iPresentType == PRESENT_EXTRAITEM )

  000cf	66 83 f8 05	 cmp	 ax, 5

; 777  : 	{
; 778  : 		iBonusPeso = 0;

  000d3	74 06		 je	 SHORT $LN34@GetBonusPe

; 779  : 	}
; 780  : 	else if( iPresentType == PRESENT_COSTUME )

  000d5	66 83 f8 0c	 cmp	 ax, 12			; 0000000cH
  000d9	75 03		 jne	 SHORT $LN32@GetBonusPe
$LN34@GetBonusPe:

; 781  : 	{
; 782  : 		iBonusPeso = 0;

  000db	89 5d fc	 mov	 DWORD PTR _iBonusPeso$[ebp], ebx
$LN32@GetBonusPe:
  000de	5e		 pop	 esi
$LN31@GetBonusPe:

; 783  : 	}
; 784  : 
; 785  : 	return iBonusPeso;

  000df	8b 45 fc	 mov	 eax, DWORD PTR _iBonusPeso$[ebp]
  000e2	5f		 pop	 edi
  000e3	5b		 pop	 ebx

; 786  : }

  000e4	c9		 leave
  000e5	c2 0c 00	 ret	 12			; 0000000cH
?GetBonusPeso@SendPresentConfirmWnd@@IAEHFHH@Z ENDP	; SendPresentConfirmWnd::GetBonusPeso
_TEXT	ENDS
PUBLIC	?GetCash@SendPresentConfirmWnd@@IAEHFHH@Z	; SendPresentConfirmWnd::GetCash
EXTRN	?GetCash@ioEtcItem@@QBEHH@Z:PROC		; ioEtcItem::GetCash
EXTRN	?GetClassBuyCash@ioClassPrice@@QAEHHH@Z:PROC	; ioClassPrice::GetClassBuyCash
EXTRN	?GetMortmainCharCash@ioClassPrice@@QAEHH@Z:PROC	; ioClassPrice::GetMortmainCharCash
; Function compile flags: /Ogsp
;	COMDAT ?GetCash@SendPresentConfirmWnd@@IAEHFHH@Z
_TEXT	SEGMENT
tv253 = 8						; size = 4
tv250 = 8						; size = 4
_i$511393 = 8						; size = 4
_iPresentType$ = 8					; size = 2
_iPresentValue1$ = 12					; size = 4
_iPresentValue2$ = 16					; size = 4
?GetCash@SendPresentConfirmWnd@@IAEHFHH@Z PROC		; SendPresentConfirmWnd::GetCash, COMDAT
; _this$ = ecx

; 789  : {

  00000	55		 push	 ebp
  00001	8b ec		 mov	 ebp, esp

; 790  : 	int iCash = 0;
; 791  : 	if( iPresentType == PRESENT_SOLDIER )

  00003	66 8b 45 08	 mov	 ax, WORD PTR _iPresentType$[ebp]
  00007	53		 push	 ebx
  00008	33 db		 xor	 ebx, ebx
  0000a	57		 push	 edi
  0000b	66 83 f8 01	 cmp	 ax, 1
  0000f	75 2f		 jne	 SHORT $LN23@GetCash

; 792  : 	{
; 793  : 		if( iPresentValue2 == 0 )

  00011	39 5d 10	 cmp	 DWORD PTR _iPresentValue2$[ebp], ebx
  00014	75 11		 jne	 SHORT $LN22@GetCash

; 794  : 			iCash = g_ClassPrice.GetMortmainCharCash( iPresentValue1 );

  00016	ff 75 0c	 push	 DWORD PTR _iPresentValue1$[ebp]
  00019	e8 00 00 00 00	 call	 ?GetSingleton@ioClassPrice@@SAAAV1@XZ ; ioClassPrice::GetSingleton
  0001e	8b c8		 mov	 ecx, eax
  00020	e8 00 00 00 00	 call	 ?GetMortmainCharCash@ioClassPrice@@QAEHH@Z ; ioClassPrice::GetMortmainCharCash

; 795  : 		else 

  00025	eb 12		 jmp	 SHORT $LN44@GetCash
$LN22@GetCash:

; 796  : 			iCash = g_ClassPrice.GetClassBuyCash( iPresentValue1, iPresentValue2 );

  00027	ff 75 10	 push	 DWORD PTR _iPresentValue2$[ebp]
  0002a	ff 75 0c	 push	 DWORD PTR _iPresentValue1$[ebp]
  0002d	e8 00 00 00 00	 call	 ?GetSingleton@ioClassPrice@@SAAAV1@XZ ; ioClassPrice::GetSingleton
  00032	8b c8		 mov	 ecx, eax
  00034	e8 00 00 00 00	 call	 ?GetClassBuyCash@ioClassPrice@@QAEHHH@Z ; ioClassPrice::GetClassBuyCash
$LN44@GetCash:
  00039	8b d8		 mov	 ebx, eax
  0003b	e9 ee 00 00 00	 jmp	 $LN36@GetCash
$LN23@GetCash:
  00040	56		 push	 esi

; 797  : 	}
; 798  : 	else if( iPresentType == PRESENT_DECORATION )

  00041	66 83 f8 02	 cmp	 ax, 2
  00045	75 5b		 jne	 SHORT $LN19@GetCash

; 799  : 	{
; 800  : 		int iSexType   = ( iPresentValue1 % 100000) / FLOAT1000;

  00047	b8 e8 03 00 00	 mov	 eax, 1000		; 000003e8H
  0004c	8b c8		 mov	 ecx, eax

; 801  : 		int iDecoType  = iPresentValue1 % 1000;

  0004e	8b 45 0c	 mov	 eax, DWORD PTR _iPresentValue1$[ebp]
  00051	99		 cdq
  00052	be e8 03 00 00	 mov	 esi, 1000		; 000003e8H
  00057	f7 fe		 idiv	 esi

; 802  : 		int iDecoCode  = iPresentValue2;
; 803  : 
; 804  : 		const DecoData *pData = g_DecorationPrice.GetDecoDataPtr( iSexType, iDecoType, iDecoCode );

  00059	ff 75 10	 push	 DWORD PTR _iPresentValue2$[ebp]
  0005c	8b 45 0c	 mov	 eax, DWORD PTR _iPresentValue1$[ebp]
  0005f	be a0 86 01 00	 mov	 esi, 100000		; 000186a0H
  00064	52		 push	 edx
  00065	99		 cdq
  00066	f7 fe		 idiv	 esi
  00068	89 55 08	 mov	 DWORD PTR tv253[ebp], edx
  0006b	db 45 08	 fild	 DWORD PTR tv253[ebp]
  0006e	89 4d 08	 mov	 DWORD PTR tv250[ebp], ecx
  00071	db 45 08	 fild	 DWORD PTR tv250[ebp]
  00074	85 c9		 test	 ecx, ecx
  00076	79 06		 jns	 SHORT $LN43@GetCash
  00078	d8 05 00 00 00
	00		 fadd	 DWORD PTR __real@4f800000
$LN43@GetCash:

; 799  : 	{
; 800  : 		int iSexType   = ( iPresentValue1 % 100000) / FLOAT1000;

  0007e	de f9		 fdivp	 ST(1), ST(0)

; 802  : 		int iDecoCode  = iPresentValue2;
; 803  : 
; 804  : 		const DecoData *pData = g_DecorationPrice.GetDecoDataPtr( iSexType, iDecoType, iDecoCode );

  00080	e8 00 00 00 00	 call	 __ftol2_sse
  00085	50		 push	 eax
  00086	e8 00 00 00 00	 call	 ?GetSingleton@ioDecorationPrice@@SAAAV1@XZ ; ioDecorationPrice::GetSingleton
  0008b	8b c8		 mov	 ecx, eax
  0008d	e8 00 00 00 00	 call	 ?GetDecoDataPtr@ioDecorationPrice@@QAEPBUtagDecoData@@HHH@Z ; ioDecorationPrice::GetDecoDataPtr

; 805  : 		if( !pData )

  00092	3b c3		 cmp	 eax, ebx

; 806  : 			iCash = 0;
; 807  : 		else

  00094	0f 84 93 00 00
	00		 je	 $LN42@GetCash

; 808  : 			iCash = pData->m_iCash;

  0009a	8b 58 38	 mov	 ebx, DWORD PTR [eax+56]
  0009d	e9 8b 00 00 00	 jmp	 $LN42@GetCash
$LN19@GetCash:

; 809  : 	}
; 810  : 	else if( iPresentType == PRESENT_ETC_ITEM )

  000a2	66 83 f8 03	 cmp	 ax, 3
  000a6	75 4b		 jne	 SHORT $LN15@GetCash

; 811  : 	{
; 812  : 		ioEtcItem* pEtcItem = g_EtcItemMgr.FindEtcItem( iPresentValue1 );

  000a8	ff 75 0c	 push	 DWORD PTR _iPresentValue1$[ebp]
  000ab	8b 0d 00 00 00
	00		 mov	 ecx, DWORD PTR ?ms_Singleton@?$Singleton@VioEtcItemManager@@@@1PAVioEtcItemManager@@A ; Singleton<ioEtcItemManager>::ms_Singleton
  000b1	e8 00 00 00 00	 call	 ?FindEtcItem@ioEtcItemManager@@QAEPAVioEtcItem@@K@Z ; ioEtcItemManager::FindEtcItem
  000b6	8b f8		 mov	 edi, eax

; 813  : 		if( !pEtcItem )

  000b8	3b fb		 cmp	 edi, ebx

; 814  : 			iCash = 0;
; 815  : 		else

  000ba	74 71		 je	 SHORT $LN42@GetCash

; 816  : 		{
; 817  : 			int iSize = pEtcItem->GetValueSize();

  000bc	8b 77 64	 mov	 esi, DWORD PTR [edi+100]
  000bf	2b 77 60	 sub	 esi, DWORD PTR [edi+96]

; 818  : 			for (int i = 0; i < iSize; i++)

  000c2	89 5d 08	 mov	 DWORD PTR _i$511393[ebp], ebx
  000c5	c1 fe 02	 sar	 esi, 2
  000c8	3b f3		 cmp	 esi, ebx
  000ca	7e 61		 jle	 SHORT $LN42@GetCash
$LL41@GetCash:

; 819  : 			{
; 820  : 				if( iPresentValue2 == pEtcItem->GetValue( i ) )

  000cc	ff 75 08	 push	 DWORD PTR _i$511393[ebp]
  000cf	8b cf		 mov	 ecx, edi
  000d1	e8 00 00 00 00	 call	 ?GetValue@ioEtcItem@@QBEHH@Z ; ioEtcItem::GetValue
  000d6	39 45 10	 cmp	 DWORD PTR _iPresentValue2$[ebp], eax
  000d9	74 0a		 je	 SHORT $LN39@GetCash

; 818  : 			for (int i = 0; i < iSize; i++)

  000db	ff 45 08	 inc	 DWORD PTR _i$511393[ebp]
  000de	39 75 08	 cmp	 DWORD PTR _i$511393[ebp], esi
  000e1	7c e9		 jl	 SHORT $LL41@GetCash

; 819  : 			{
; 820  : 				if( iPresentValue2 == pEtcItem->GetValue( i ) )

  000e3	eb 48		 jmp	 SHORT $LN42@GetCash
$LN39@GetCash:

; 821  : 				{
; 822  : 					iCash = pEtcItem->GetCash( i );

  000e5	ff 75 08	 push	 DWORD PTR _i$511393[ebp]
  000e8	8b cf		 mov	 ecx, edi
  000ea	e8 00 00 00 00	 call	 ?GetCash@ioEtcItem@@QBEHH@Z ; ioEtcItem::GetCash
  000ef	8b d8		 mov	 ebx, eax

; 823  : 					break;
; 824  : 				}
; 825  : 			}

  000f1	eb 3a		 jmp	 SHORT $LN42@GetCash
$LN15@GetCash:

; 826  : 		}
; 827  : 	}
; 828  : 	else if( iPresentType == PRESENT_EXTRAITEM_BOX )

  000f3	66 83 f8 06	 cmp	 ax, 6
  000f7	75 18		 jne	 SHORT $LN7@GetCash

; 829  : 	{
; 830  : 		RandomMachineInfo *pInfo = g_ExtraItemInfoMgr.GetRandomMachineInfo( iPresentValue1 );

  000f9	ff 75 0c	 push	 DWORD PTR _iPresentValue1$[ebp]
  000fc	e8 00 00 00 00	 call	 ?GetSingleton@ioExtraItemInfoManager@@SAAAV1@XZ ; ioExtraItemInfoManager::GetSingleton
  00101	8b c8		 mov	 ecx, eax
  00103	e8 00 00 00 00	 call	 ?GetRandomMachineInfo@ioExtraItemInfoManager@@QAEPAVRandomMachineInfo@@H@Z ; ioExtraItemInfoManager::GetRandomMachineInfo

; 831  : 		if( !pInfo )

  00108	3b c3		 cmp	 eax, ebx

; 832  : 			iCash = 0;
; 833  : 		else

  0010a	74 21		 je	 SHORT $LN42@GetCash

; 834  : 			iCash = pInfo->GetNeedCash(); 

  0010c	8b 58 50	 mov	 ebx, DWORD PTR [eax+80]
  0010f	eb 1c		 jmp	 SHORT $LN42@GetCash
$LN7@GetCash:

; 835  : 	}
; 836  : 	else if( iPresentType == PRESENT_COSTUME_BOX )

  00111	66 83 f8 0f	 cmp	 ax, 15			; 0000000fH
  00115	75 16		 jne	 SHORT $LN42@GetCash

; 837  : 	{
; 838  : 		CostumeShopInfo *pInfo = g_CostumeShopInfoMgr.GetCostumeMachineInfo( iPresentValue1 );

  00117	ff 75 0c	 push	 DWORD PTR _iPresentValue1$[ebp]
  0011a	e8 00 00 00 00	 call	 ?GetSingleton@ioCostumeShopInfoManager@@SAAAV1@XZ ; ioCostumeShopInfoManager::GetSingleton
  0011f	8b c8		 mov	 ecx, eax
  00121	e8 00 00 00 00	 call	 ?GetCostumeMachineInfo@ioCostumeShopInfoManager@@QAEPAVCostumeShopInfo@@H@Z ; ioCostumeShopInfoManager::GetCostumeMachineInfo

; 839  : 		if( !pInfo )

  00126	3b c3		 cmp	 eax, ebx

; 840  : 			iCash = 0;
; 841  : 		else

  00128	74 03		 je	 SHORT $LN42@GetCash

; 842  : 			iCash = pInfo->GetNeedCash(); 

  0012a	8b 58 14	 mov	 ebx, DWORD PTR [eax+20]
$LN42@GetCash:
  0012d	5e		 pop	 esi
$LN36@GetCash:

; 843  : 	}
; 844  : 
; 845  : 	return iCash;

  0012e	5f		 pop	 edi
  0012f	8b c3		 mov	 eax, ebx
  00131	5b		 pop	 ebx

; 846  : }

  00132	5d		 pop	 ebp
  00133	c2 0c 00	 ret	 12			; 0000000cH
?GetCash@SendPresentConfirmWnd@@IAEHFHH@Z ENDP		; SendPresentConfirmWnd::GetCash
_TEXT	ENDS
PUBLIC	?_Grow_to@?$vector@VioHashString@@V?$allocator@VioHashString@@@std@@@std@@IBEII@Z ; std::vector<ioHashString,std::allocator<ioHashString> >::_Grow_to
; Function compile flags: /Ogsp
; File c:\program files (x86)\microsoft visual studio 10.0\vc\include\vector
;	COMDAT ?_Grow_to@?$vector@VioHashString@@V?$allocator@VioHashString@@@std@@@std@@IBEII@Z
_TEXT	SEGMENT
__Count$ = 8						; size = 4
?_Grow_to@?$vector@VioHashString@@V?$allocator@VioHashString@@@std@@@std@@IBEII@Z PROC ; std::vector<ioHashString,std::allocator<ioHashString> >::_Grow_to, COMDAT
; _this$ = ecx

; 1274 : 		{	// grow by 50% or at least to _Count

  00000	55		 push	 ebp
  00001	8b ec		 mov	 ebp, esp

; 1275 : 		size_type _Capacity = capacity();

  00003	8b 41 08	 mov	 eax, DWORD PTR [ecx+8]
  00006	2b 01		 sub	 eax, DWORD PTR [ecx]

; 1276 : 
; 1277 : 		_Capacity = max_size() - _Capacity / 2 < _Capacity
; 1278 : 			? 0 : _Capacity + _Capacity / 2;	// try to grow by 50%

  00008	ba ff ff ff 0f	 mov	 edx, 268435455		; 0fffffffH
  0000d	c1 f8 04	 sar	 eax, 4
  00010	8b c8		 mov	 ecx, eax
  00012	d1 e9		 shr	 ecx, 1
  00014	2b d1		 sub	 edx, ecx
  00016	3b d0		 cmp	 edx, eax
  00018	73 04		 jae	 SHORT $LN4@Grow_to
  0001a	33 c0		 xor	 eax, eax
  0001c	eb 02		 jmp	 SHORT $LN5@Grow_to
$LN4@Grow_to:
  0001e	03 c1		 add	 eax, ecx
$LN5@Grow_to:

; 1279 : 		if (_Capacity < _Count)

  00020	3b 45 08	 cmp	 eax, DWORD PTR __Count$[ebp]

; 1280 : 			_Capacity = _Count;

  00023	0f 42 45 08	 cmovb	 eax, DWORD PTR __Count$[ebp]

; 1281 : 		return (_Capacity);
; 1282 : 		}

  00027	5d		 pop	 ebp
  00028	c2 04 00	 ret	 4
?_Grow_to@?$vector@VioHashString@@V?$allocator@VioHashString@@@std@@@std@@IBEII@Z ENDP ; std::vector<ioHashString,std::allocator<ioHashString> >::_Grow_to
_TEXT	ENDS
PUBLIC	??$_Cons_val@V?$allocator@VioHashString@@@std@@VioHashString@@AAV3@@std@@YAXAAV?$allocator@VioHashString@@@0@PAVioHashString@@AAV2@@Z ; std::_Cons_val<std::allocator<ioHashString>,ioHashString,ioHashString &>
; Function compile flags: /Ogsp
; File c:\program files (x86)\microsoft visual studio 10.0\vc\include\xmemory
;	COMDAT ??$_Cons_val@V?$allocator@VioHashString@@@std@@VioHashString@@AAV3@@std@@YAXAAV?$allocator@VioHashString@@@0@PAVioHashString@@AAV2@@Z
_TEXT	SEGMENT
__Alval$ = 8						; size = 4
__Pdest$ = 12						; size = 4
__Src$ = 16						; size = 4
??$_Cons_val@V?$allocator@VioHashString@@@std@@VioHashString@@AAV3@@std@@YAXAAV?$allocator@VioHashString@@@0@PAVioHashString@@AAV2@@Z PROC ; std::_Cons_val<std::allocator<ioHashString>,ioHashString,ioHashString &>, COMDAT

; 279  : 	{	// construct using allocator

  00000	55		 push	 ebp
  00001	8b ec		 mov	 ebp, esp

; 280  : 	_Alval.construct(_Pdest, _STD forward<_Ty2>(_Src));

  00003	ff 75 10	 push	 DWORD PTR __Src$[ebp]
  00006	8b 4d 08	 mov	 ecx, DWORD PTR __Alval$[ebp]
  00009	ff 75 0c	 push	 DWORD PTR __Pdest$[ebp]
  0000c	e8 00 00 00 00	 call	 ??$construct@AAVioHashString@@@?$allocator@VioHashString@@@std@@QAEXPAVioHashString@@AAV2@@Z ; std::allocator<ioHashString>::construct<ioHashString &>

; 281  : 	}

  00011	5d		 pop	 ebp
  00012	c3		 ret	 0
??$_Cons_val@V?$allocator@VioHashString@@@std@@VioHashString@@AAV3@@std@@YAXAAV?$allocator@VioHashString@@@0@PAVioHashString@@AAV2@@Z ENDP ; std::_Cons_val<std::allocator<ioHashString>,ioHashString,ioHashString &>
_TEXT	ENDS
PUBLIC	??$_Cons_val@V?$allocator@VioHashString@@@std@@VioHashString@@V3@@std@@YAXAAV?$allocator@VioHashString@@@0@PAVioHashString@@$$QAV2@@Z ; std::_Cons_val<std::allocator<ioHashString>,ioHashString,ioHashString>
; Function compile flags: /Ogsp
;	COMDAT ??$_Cons_val@V?$allocator@VioHashString@@@std@@VioHashString@@V3@@std@@YAXAAV?$allocator@VioHashString@@@0@PAVioHashString@@$$QAV2@@Z
_TEXT	SEGMENT
__Alval$ = 8						; size = 4
__Pdest$ = 12						; size = 4
__Src$ = 16						; size = 4
??$_Cons_val@V?$allocator@VioHashString@@@std@@VioHashString@@V3@@std@@YAXAAV?$allocator@VioHashString@@@0@PAVioHashString@@$$QAV2@@Z PROC ; std::_Cons_val<std::allocator<ioHashString>,ioHashString,ioHashString>, COMDAT

; 279  : 	{	// construct using allocator

  00000	55		 push	 ebp
  00001	8b ec		 mov	 ebp, esp

; 280  : 	_Alval.construct(_Pdest, _STD forward<_Ty2>(_Src));

  00003	ff 75 10	 push	 DWORD PTR __Src$[ebp]
  00006	8b 4d 08	 mov	 ecx, DWORD PTR __Alval$[ebp]
  00009	ff 75 0c	 push	 DWORD PTR __Pdest$[ebp]
  0000c	e8 00 00 00 00	 call	 ?construct@?$allocator@VioHashString@@@std@@QAEXPAVioHashString@@$$QAV3@@Z ; std::allocator<ioHashString>::construct

; 281  : 	}

  00011	5d		 pop	 ebp
  00012	c3		 ret	 0
??$_Cons_val@V?$allocator@VioHashString@@@std@@VioHashString@@V3@@std@@YAXAAV?$allocator@VioHashString@@@0@PAVioHashString@@$$QAV2@@Z ENDP ; std::_Cons_val<std::allocator<ioHashString>,ioHashString,ioHashString>
_TEXT	ENDS
PUBLIC	??0?$vector@VioHashString@@V?$allocator@VioHashString@@@std@@@std@@QAE@XZ ; std::vector<ioHashString,std::allocator<ioHashString> >::vector<ioHashString,std::allocator<ioHashString> >
; Function compile flags: /Ogsp
; File c:\program files (x86)\microsoft visual studio 10.0\vc\include\vector
;	COMDAT ??0?$vector@VioHashString@@V?$allocator@VioHashString@@@std@@@std@@QAE@XZ
_TEXT	SEGMENT
??0?$vector@VioHashString@@V?$allocator@VioHashString@@@std@@@std@@QAE@XZ PROC ; std::vector<ioHashString,std::allocator<ioHashString> >::vector<ioHashString,std::allocator<ioHashString> >, COMDAT
; _this$ = ecx

; 507  : 		{	// construct empty vector

  00000	8b c1		 mov	 eax, ecx
  00002	33 c9		 xor	 ecx, ecx
  00004	89 08		 mov	 DWORD PTR [eax], ecx
  00006	89 48 04	 mov	 DWORD PTR [eax+4], ecx
  00009	89 48 08	 mov	 DWORD PTR [eax+8], ecx

; 508  : 		}

  0000c	c3		 ret	 0
??0?$vector@VioHashString@@V?$allocator@VioHashString@@@std@@@std@@QAE@XZ ENDP ; std::vector<ioHashString,std::allocator<ioHashString> >::vector<ioHashString,std::allocator<ioHashString> >
_TEXT	ENDS
PUBLIC	??9?$_Vector_const_iterator@V?$_Vector_val@VioHashString@@V?$allocator@VioHashString@@@std@@@std@@@std@@QBE_NABV01@@Z ; std::_Vector_const_iterator<std::_Vector_val<ioHashString,std::allocator<ioHashString> > >::operator!=
; Function compile flags: /Ogsp
;	COMDAT ??9?$_Vector_const_iterator@V?$_Vector_val@VioHashString@@V?$allocator@VioHashString@@@std@@@std@@@std@@QBE_NABV01@@Z
_TEXT	SEGMENT
__Right$ = 8						; size = 4
??9?$_Vector_const_iterator@V?$_Vector_val@VioHashString@@V?$allocator@VioHashString@@@std@@@std@@@std@@QBE_NABV01@@Z PROC ; std::_Vector_const_iterator<std::_Vector_val<ioHashString,std::allocator<ioHashString> > >::operator!=, COMDAT
; _this$ = ecx

; 207  : 		{	// test for iterator inequality

  00000	55		 push	 ebp
  00001	8b ec		 mov	 ebp, esp

; 208  : 		return (!(*this == _Right));

  00003	8b 01		 mov	 eax, DWORD PTR [ecx]
  00005	8b 55 08	 mov	 edx, DWORD PTR __Right$[ebp]
  00008	33 c9		 xor	 ecx, ecx
  0000a	3b 02		 cmp	 eax, DWORD PTR [edx]
  0000c	0f 95 c0	 setne	 al

; 209  : 		}

  0000f	5d		 pop	 ebp
  00010	c2 04 00	 ret	 4
??9?$_Vector_const_iterator@V?$_Vector_val@VioHashString@@V?$allocator@VioHashString@@@std@@@std@@@std@@QBE_NABV01@@Z ENDP ; std::_Vector_const_iterator<std::_Vector_val<ioHashString,std::allocator<ioHashString> > >::operator!=
_TEXT	ENDS
PUBLIC	??$_Move@PAVioHashString@@PAV1@@std@@YAPAVioHashString@@PAV1@00@Z ; std::_Move<ioHashString *,ioHashString *>
; Function compile flags: /Ogsp
; File c:\program files (x86)\microsoft visual studio 10.0\vc\include\xutility
;	COMDAT ??$_Move@PAVioHashString@@PAV1@@std@@YAPAVioHashString@@PAV1@00@Z
_TEXT	SEGMENT
__Cat$515113 = -4					; size = 1
__First$ = 8						; size = 4
__Last$ = 12						; size = 4
__Dest$ = 16						; size = 4
??$_Move@PAVioHashString@@PAV1@@std@@YAPAVioHashString@@PAV1@00@Z PROC ; std::_Move<ioHashString *,ioHashString *>, COMDAT

; 2533 : 	{	// move [_First, _Last) to [_Dest, ...), unchecked

  00000	55		 push	 ebp
  00001	8b ec		 mov	 ebp, esp
  00003	51		 push	 ecx

; 2534 : 	return (_Move(_First, _Last,
; 2535 : 		_Dest, _Ptr_cat(_First, _Dest)));

  00004	ff 75 fc	 push	 DWORD PTR __Cat$515113[ebp]
  00007	ff 75 10	 push	 DWORD PTR __Dest$[ebp]
  0000a	ff 75 0c	 push	 DWORD PTR __Last$[ebp]
  0000d	ff 75 08	 push	 DWORD PTR __First$[ebp]
  00010	e8 00 00 00 00	 call	 ??$_Move@PAVioHashString@@PAV1@@std@@YAPAVioHashString@@PAV1@00U_Nonscalar_ptr_iterator_tag@0@@Z ; std::_Move<ioHashString *,ioHashString *>
  00015	83 c4 10	 add	 esp, 16			; 00000010H

; 2536 : 	}

  00018	c9		 leave
  00019	c3		 ret	 0
??$_Move@PAVioHashString@@PAV1@@std@@YAPAVioHashString@@PAV1@00@Z ENDP ; std::_Move<ioHashString *,ioHashString *>
_TEXT	ENDS
PUBLIC	?destroy@?$allocator@VioHashString@@@std@@QAEXPAVioHashString@@@Z ; std::allocator<ioHashString>::destroy
; Function compile flags: /Ogsp
; File c:\program files (x86)\microsoft visual studio 10.0\vc\include\xmemory
;	COMDAT ?destroy@?$allocator@VioHashString@@@std@@QAEXPAVioHashString@@@Z
_TEXT	SEGMENT
__Ptr$ = 8						; size = 4
?destroy@?$allocator@VioHashString@@@std@@QAEXPAVioHashString@@@Z PROC ; std::allocator<ioHashString>::destroy, COMDAT
; _this$ = ecx

; 212  : 		{	// destroy object at _Ptr

  00000	55		 push	 ebp
  00001	8b ec		 mov	 ebp, esp

; 213  : 		_Destroy(_Ptr);

  00003	8b 4d 08	 mov	 ecx, DWORD PTR __Ptr$[ebp]
  00006	ff 15 00 00 00
	00		 call	 DWORD PTR __imp_??1ioHashString@@QAE@XZ

; 214  : 		}

  0000c	5d		 pop	 ebp
  0000d	c2 04 00	 ret	 4
?destroy@?$allocator@VioHashString@@@std@@QAEXPAVioHashString@@@Z ENDP ; std::allocator<ioHashString>::destroy
_TEXT	ENDS
PUBLIC	??$_Cons_val@V?$allocator@VioHashString@@@std@@VioHashString@@ABV3@@std@@YAXAAV?$allocator@VioHashString@@@0@PAVioHashString@@ABV2@@Z ; std::_Cons_val<std::allocator<ioHashString>,ioHashString,ioHashString const &>
; Function compile flags: /Ogsp
;	COMDAT ??$_Cons_val@V?$allocator@VioHashString@@@std@@VioHashString@@ABV3@@std@@YAXAAV?$allocator@VioHashString@@@0@PAVioHashString@@ABV2@@Z
_TEXT	SEGMENT
__Alval$ = 8						; size = 4
__Pdest$ = 12						; size = 4
__Src$ = 16						; size = 4
??$_Cons_val@V?$allocator@VioHashString@@@std@@VioHashString@@ABV3@@std@@YAXAAV?$allocator@VioHashString@@@0@PAVioHashString@@ABV2@@Z PROC ; std::_Cons_val<std::allocator<ioHashString>,ioHashString,ioHashString const &>, COMDAT

; 279  : 	{	// construct using allocator

  00000	55		 push	 ebp
  00001	8b ec		 mov	 ebp, esp

; 280  : 	_Alval.construct(_Pdest, _STD forward<_Ty2>(_Src));

  00003	ff 75 10	 push	 DWORD PTR __Src$[ebp]
  00006	ff 75 0c	 push	 DWORD PTR __Pdest$[ebp]
  00009	e8 00 00 00 00	 call	 ??$_Construct@VioHashString@@ABV1@@std@@YAXPAVioHashString@@ABV1@@Z ; std::_Construct<ioHashString,ioHashString const &>
  0000e	59		 pop	 ecx
  0000f	59		 pop	 ecx

; 281  : 	}

  00010	5d		 pop	 ebp
  00011	c3		 ret	 0
??$_Cons_val@V?$allocator@VioHashString@@@std@@VioHashString@@ABV3@@std@@YAXAAV?$allocator@VioHashString@@@0@PAVioHashString@@ABV2@@Z ENDP ; std::_Cons_val<std::allocator<ioHashString>,ioHashString,ioHashString const &>
_TEXT	ENDS
PUBLIC	??_C@_0DB@CPLKGOHK@SendPresentConfirmWnd?3?3ShowSendP@ ; `string'
PUBLIC	?ShowSendPresentConfirmWnd@SendPresentConfirmWnd@@QAEXPAVNewShopBuyWnd@@FHHPBD@Z ; SendPresentConfirmWnd::ShowSendPresentConfirmWnd
EXTRN	?GetEnablePresentBonus@ioShopManager@@QAE_NHH@Z:PROC ; ioShopManager::GetEnablePresentBonus
EXTRN	?GetUnablePresentBonus@ioShopManager@@QAE_NHH@Z:PROC ; ioShopManager::GetUnablePresentBonus
EXTRN	__imp_??4ioHashString@@QAEAAV0@PBD@Z:PROC
;	COMDAT ??_C@_0DB@CPLKGOHK@SendPresentConfirmWnd?3?3ShowSendP@
; File d:\lost saga for developer\youtube\tutorial\source\src\lsclient\gui\sendpresentwnd.cpp
CONST	SEGMENT
??_C@_0DB@CPLKGOHK@SendPresentConfirmWnd?3?3ShowSendP@ DB 'SendPresentCon'
	DB	'firmWnd::ShowSendPresentConfirmWnd', 00H	; `string'
; Function compile flags: /Ogsp
CONST	ENDS
;	COMDAT ?ShowSendPresentConfirmWnd@SendPresentConfirmWnd@@QAEXPAVNewShopBuyWnd@@FHHPBD@Z
_TEXT	SEGMENT
_pReturnWnd$ = 8					; size = 4
_iPresentType$ = 12					; size = 2
_iPresentValue1$ = 16					; size = 4
_iPresentValue2$ = 20					; size = 4
_szRecvPublicID$ = 24					; size = 4
?ShowSendPresentConfirmWnd@SendPresentConfirmWnd@@QAEXPAVNewShopBuyWnd@@FHHPBD@Z PROC ; SendPresentConfirmWnd::ShowSendPresentConfirmWnd, COMDAT
; _this$ = ecx

; 486  : {

  00000	55		 push	 ebp
  00001	8b ec		 mov	 ebp, esp

; 487  : 	if( !pReturnWnd )

  00003	8b 45 08	 mov	 eax, DWORD PTR _pReturnWnd$[ebp]
  00006	56		 push	 esi
  00007	8b f1		 mov	 esi, ecx
  00009	85 c0		 test	 eax, eax
  0000b	75 1f		 jne	 SHORT $LN1@ShowSendPr@2

; 488  : 	{
; 489  : 		LOG.PrintTimeAndLog( 0, "%s pReturnWnd == NULL. ", __FUNCTION__ );

  0000d	68 00 00 00 00	 push	 OFFSET ??_C@_0DB@CPLKGOHK@SendPresentConfirmWnd?3?3ShowSendP@
  00012	68 00 00 00 00	 push	 OFFSET ??_C@_0BI@HGHJBLML@?$CFs?5pReturnWnd?5?$DN?$DN?5NULL?4?5?$AA@
  00017	50		 push	 eax
  00018	ff 35 00 00 00
	00		 push	 DWORD PTR __imp_?LOG@@3VCLog@@A
  0001e	ff 15 00 00 00
	00		 call	 DWORD PTR __imp_?PrintTimeAndLog@CLog@@QAAXHPADZZ
  00024	83 c4 10	 add	 esp, 16			; 00000010H

; 490  : 		return;

  00027	e9 c3 00 00 00	 jmp	 $LN2@ShowSendPr@2
$LN1@ShowSendPr@2:

; 491  : 	}
; 492  : 
; 493  : 	m_pReturnWnd     = pReturnWnd;
; 494  : 	m_iPresentType   = iPresentType;
; 495  : 	m_iPresentValue1 = iPresentValue1;
; 496  : 	m_iPresentValue2 = iPresentValue2;
; 497  : 	m_szRecvPublicID = szRecvPublicID;

  0002c	ff 75 18	 push	 DWORD PTR _szRecvPublicID$[ebp]
  0002f	89 86 68 01 00
	00		 mov	 DWORD PTR [esi+360], eax
  00035	66 8b 45 0c	 mov	 ax, WORD PTR _iPresentType$[ebp]
  00039	66 89 86 6c 01
	00 00		 mov	 WORD PTR [esi+364], ax
  00040	8b 45 10	 mov	 eax, DWORD PTR _iPresentValue1$[ebp]
  00043	89 86 70 01 00
	00		 mov	 DWORD PTR [esi+368], eax
  00049	8b 45 14	 mov	 eax, DWORD PTR _iPresentValue2$[ebp]
  0004c	8d 8e 78 01 00
	00		 lea	 ecx, DWORD PTR [esi+376]
  00052	89 86 74 01 00
	00		 mov	 DWORD PTR [esi+372], eax
  00058	ff 15 00 00 00
	00		 call	 DWORD PTR __imp_??4ioHashString@@QAEAAV0@PBD@Z

; 498  : 
; 499  : 	m_iBonusPeso     = GetBonusPeso( m_iPresentType, m_iPresentValue1, m_iPresentValue2 );

  0005e	ff b6 74 01 00
	00		 push	 DWORD PTR [esi+372]
  00064	0f b7 86 6c 01
	00 00		 movzx	 eax, WORD PTR [esi+364]
  0006b	ff b6 70 01 00
	00		 push	 DWORD PTR [esi+368]
  00071	8b ce		 mov	 ecx, esi
  00073	50		 push	 eax
  00074	e8 00 00 00 00	 call	 ?GetBonusPeso@SendPresentConfirmWnd@@IAEHFHH@Z ; SendPresentConfirmWnd::GetBonusPeso

; 500  : 	m_iCash          = GetCash( m_iPresentType, m_iPresentValue1, m_iPresentValue2 );

  00079	ff b6 74 01 00
	00		 push	 DWORD PTR [esi+372]
  0007f	89 86 88 01 00
	00		 mov	 DWORD PTR [esi+392], eax
  00085	0f b7 86 6c 01
	00 00		 movzx	 eax, WORD PTR [esi+364]
  0008c	ff b6 70 01 00
	00		 push	 DWORD PTR [esi+368]
  00092	8b ce		 mov	 ecx, esi
  00094	50		 push	 eax
  00095	e8 00 00 00 00	 call	 ?GetCash@SendPresentConfirmWnd@@IAEHFHH@Z ; SendPresentConfirmWnd::GetCash

; 501  : 	m_bIsUnableBonus = g_ShopManager.GetUnablePresentBonus( m_iPresentType, m_iPresentValue1 );

  0009a	ff b6 70 01 00
	00		 push	 DWORD PTR [esi+368]
  000a0	89 86 8c 01 00
	00		 mov	 DWORD PTR [esi+396], eax
  000a6	0f bf 86 6c 01
	00 00		 movsx	 eax, WORD PTR [esi+364]
  000ad	50		 push	 eax
  000ae	e8 00 00 00 00	 call	 ?GetSingleton@ioShopManager@@SAAAV1@XZ ; ioShopManager::GetSingleton
  000b3	8b c8		 mov	 ecx, eax
  000b5	e8 00 00 00 00	 call	 ?GetUnablePresentBonus@ioShopManager@@QAE_NHH@Z ; ioShopManager::GetUnablePresentBonus

; 502  : 	m_bIsEnableBonus = g_ShopManager.GetEnablePresentBonus( m_iPresentType, m_iPresentValue1 );

  000ba	ff b6 70 01 00
	00		 push	 DWORD PTR [esi+368]
  000c0	88 86 90 01 00
	00		 mov	 BYTE PTR [esi+400], al
  000c6	0f bf 86 6c 01
	00 00		 movsx	 eax, WORD PTR [esi+364]
  000cd	50		 push	 eax
  000ce	e8 00 00 00 00	 call	 ?GetSingleton@ioShopManager@@SAAAV1@XZ ; ioShopManager::GetSingleton
  000d3	8b c8		 mov	 ecx, eax
  000d5	e8 00 00 00 00	 call	 ?GetEnablePresentBonus@ioShopManager@@QAE_NHH@Z ; ioShopManager::GetEnablePresentBonus

; 503  : 
; 504  : 	SetPresentIcon();

  000da	8b ce		 mov	 ecx, esi
  000dc	88 86 91 01 00
	00		 mov	 BYTE PTR [esi+401], al
  000e2	e8 00 00 00 00	 call	 ?SetPresentIcon@SendPresentConfirmWnd@@IAEXXZ ; SendPresentConfirmWnd::SetPresentIcon

; 505  : 
; 506  : 	ShowWnd();

  000e7	8b ce		 mov	 ecx, esi
  000e9	ff 15 00 00 00
	00		 call	 DWORD PTR __imp_?ShowWnd@ioWnd@@QAEXXZ
$LN2@ShowSendPr@2:
  000ef	5e		 pop	 esi

; 507  : }

  000f0	5d		 pop	 ebp
  000f1	c2 14 00	 ret	 20			; 00000014H
?ShowSendPresentConfirmWnd@SendPresentConfirmWnd@@QAEXPAVNewShopBuyWnd@@FHHPBD@Z ENDP ; SendPresentConfirmWnd::ShowSendPresentConfirmWnd
_TEXT	ENDS
PUBLIC	??$_Dest_val@V?$allocator@VioHashString@@@std@@VioHashString@@@std@@YAXAAV?$allocator@VioHashString@@@0@PAVioHashString@@@Z ; std::_Dest_val<std::allocator<ioHashString>,ioHashString>
; Function compile flags: /Ogsp
; File c:\program files (x86)\microsoft visual studio 10.0\vc\include\xmemory
;	COMDAT ??$_Dest_val@V?$allocator@VioHashString@@@std@@VioHashString@@@std@@YAXAAV?$allocator@VioHashString@@@0@PAVioHashString@@@Z
_TEXT	SEGMENT
__Alval$ = 8						; size = 4
__Pdest$ = 12						; size = 4
??$_Dest_val@V?$allocator@VioHashString@@@std@@VioHashString@@@std@@YAXAAV?$allocator@VioHashString@@@0@PAVioHashString@@@Z PROC ; std::_Dest_val<std::allocator<ioHashString>,ioHashString>, COMDAT

; 286  : 	{	// destroy using allocator

  00000	55		 push	 ebp
  00001	8b ec		 mov	 ebp, esp

; 287  : 	_Alval.destroy(_Pdest);

  00003	8b 4d 0c	 mov	 ecx, DWORD PTR __Pdest$[ebp]

; 288  : 	}

  00006	5d		 pop	 ebp

; 287  : 	_Alval.destroy(_Pdest);

  00007	ff 25 00 00 00
	00		 jmp	 DWORD PTR __imp_??1ioHashString@@QAE@XZ
??$_Dest_val@V?$allocator@VioHashString@@@std@@VioHashString@@@std@@YAXAAV?$allocator@VioHashString@@@0@PAVioHashString@@@Z ENDP ; std::_Dest_val<std::allocator<ioHashString>,ioHashString>
_TEXT	ENDS
PUBLIC	??_C@_0BJ@NDOMCMOE@?$CFs?5pConfirmWnd?5?$DN?$DN?5NULL?4?5?$AA@ ; `string'
PUBLIC	??_C@_0CB@LECHKDCJ@SendPresentIdWnd?3?3ShowConfirmWnd@ ; `string'
PUBLIC	?ShowConfirmWnd@SendPresentIdWnd@@IAE_NXZ	; SendPresentIdWnd::ShowConfirmWnd
EXTRN	__imp_?FindWnd@ioGUIManager@@QAEPAVioWnd@@K@Z:PROC
EXTRN	?SetMsgBox@ioSP2GUIManager@@QAAXHPAVioWnd@@PBDZZ:PROC ; ioSP2GUIManager::SetMsgBox
EXTRN	?IsAdminID@ioApplication@@QAE_NPBD@Z:PROC	; ioApplication::IsAdminID
EXTRN	__imp__stricmp:PROC
EXTRN	?IsRightID@ioApplication@@QAE_NPBD@Z:PROC	; ioApplication::IsRightID
EXTRN	___RTDynamicCast:PROC
;	COMDAT ??_C@_0BJ@NDOMCMOE@?$CFs?5pConfirmWnd?5?$DN?$DN?5NULL?4?5?$AA@
; File d:\lost saga for developer\youtube\tutorial\source\src\lsclient\iomyinfo.h
CONST	SEGMENT
??_C@_0BJ@NDOMCMOE@?$CFs?5pConfirmWnd?5?$DN?$DN?5NULL?4?5?$AA@ DB '%s pCo'
	DB	'nfirmWnd == NULL. ', 00H			; `string'
CONST	ENDS
;	COMDAT ??_C@_0CB@LECHKDCJ@SendPresentIdWnd?3?3ShowConfirmWnd@
CONST	SEGMENT
??_C@_0CB@LECHKDCJ@SendPresentIdWnd?3?3ShowConfirmWnd@ DB 'SendPresentIdW'
	DB	'nd::ShowConfirmWnd', 00H			; `string'
; Function compile flags: /Ogsp
; File d:\lost saga for developer\youtube\tutorial\source\src\lsclient\gui\sendpresentwnd.cpp
CONST	ENDS
;	COMDAT ?ShowConfirmWnd@SendPresentIdWnd@@IAE_NXZ
_TEXT	SEGMENT
_pConfirmWnd$ = -4					; size = 4
?ShowConfirmWnd@SendPresentIdWnd@@IAE_NXZ PROC		; SendPresentIdWnd::ShowConfirmWnd, COMDAT
; _this$ = ecx

; 142  : {

  00000	55		 push	 ebp
  00001	8b ec		 mov	 ebp, esp
  00003	51		 push	 ecx
  00004	53		 push	 ebx
  00005	56		 push	 esi
  00006	8b f1		 mov	 esi, ecx

; 143  : 	if( m_szFriend.IsEmpty() )

  00008	8d 8e 70 01 00
	00		 lea	 ecx, DWORD PTR [esi+368]
  0000e	ff 15 00 00 00
	00		 call	 DWORD PTR __imp_?IsEmpty@ioHashString@@QBE_NXZ
  00014	84 c0		 test	 al, al
  00016	74 07		 je	 SHORT $LN5@ShowConfir

; 144  : 		return false;

  00018	32 c0		 xor	 al, al
  0001a	e9 1d 01 00 00	 jmp	 $LN6@ShowConfir
$LN5@ShowConfir:
  0001f	57		 push	 edi

; 145  : 
; 146  : 	if( !g_App.IsRightID( m_szFriend.c_str() ) )

  00020	8d 8e 70 01 00
	00		 lea	 ecx, DWORD PTR [esi+368]
  00026	ff 15 00 00 00
	00		 call	 DWORD PTR __imp_?c_str@ioHashString@@QBEPBDXZ
  0002c	50		 push	 eax
  0002d	e8 00 00 00 00	 call	 ?GetSingleton@ioApplication@@SAAAV1@XZ ; ioApplication::GetSingleton
  00032	8b c8		 mov	 ecx, eax
  00034	e8 00 00 00 00	 call	 ?IsRightID@ioApplication@@QAE_NPBD@Z ; ioApplication::IsRightID
  00039	84 c0		 test	 al, al
  0003b	75 07		 jne	 SHORT $LN4@ShowConfir

; 147  : 	{
; 148  : 		g_GUIMgr.SetMsgBox( MB_OK, NULL, STR(1) );

  0003d	33 ff		 xor	 edi, edi
  0003f	57		 push	 edi
  00040	6a 01		 push	 1

; 149  : 		return false;

  00042	eb 53		 jmp	 SHORT $LN12@ShowConfir
$LN4@ShowConfir:

; 150  : 	}
; 151  : 
; 152  : 	if( stricmp( g_MyInfo.GetPublicID().c_str(), m_szFriend.c_str() ) == 0 )

  00044	e8 00 00 00 00	 call	 ?GetSingleton@ioMyInfo@@SAAAV1@XZ ; ioMyInfo::GetSingleton
  00049	8d 8e 70 01 00
	00		 lea	 ecx, DWORD PTR [esi+368]
  0004f	8b f8		 mov	 edi, eax
  00051	ff 15 00 00 00
	00		 call	 DWORD PTR __imp_?c_str@ioHashString@@QBEPBDXZ
  00057	50		 push	 eax
  00058	8d 4f 1c	 lea	 ecx, DWORD PTR [edi+28]
  0005b	ff 15 00 00 00
	00		 call	 DWORD PTR __imp_?c_str@ioHashString@@QBEPBDXZ
  00061	50		 push	 eax
  00062	ff 15 00 00 00
	00		 call	 DWORD PTR __imp__stricmp
  00068	59		 pop	 ecx
  00069	59		 pop	 ecx
  0006a	85 c0		 test	 eax, eax
  0006c	75 07		 jne	 SHORT $LN3@ShowConfir

; 153  : 	{
; 154  : 		g_GUIMgr.SetMsgBox( MB_OK, NULL, STR(2) );

  0006e	33 ff		 xor	 edi, edi
  00070	57		 push	 edi
  00071	6a 02		 push	 2

; 155  : 		return false;

  00073	eb 22		 jmp	 SHORT $LN12@ShowConfir
$LN3@ShowConfir:

; 156  : 	}
; 157  : 
; 158  : 	if( g_App.IsAdminID( m_szFriend.c_str() ) )

  00075	8d 8e 70 01 00
	00		 lea	 ecx, DWORD PTR [esi+368]
  0007b	ff 15 00 00 00
	00		 call	 DWORD PTR __imp_?c_str@ioHashString@@QBEPBDXZ
  00081	50		 push	 eax
  00082	e8 00 00 00 00	 call	 ?GetSingleton@ioApplication@@SAAAV1@XZ ; ioApplication::GetSingleton
  00087	8b c8		 mov	 ecx, eax
  00089	e8 00 00 00 00	 call	 ?IsAdminID@ioApplication@@QAE_NPBD@Z ; ioApplication::IsAdminID

; 159  : 	{
; 160  : 		g_GUIMgr.SetMsgBox( MB_OK, NULL, STR(3) );

  0008e	33 ff		 xor	 edi, edi
  00090	57		 push	 edi
  00091	84 c0		 test	 al, al
  00093	74 2a		 je	 SHORT $LN2@ShowConfir
  00095	6a 03		 push	 3
$LN12@ShowConfir:
  00097	68 00 00 00 00	 push	 OFFSET ??_C@_00CNPNBAHC@?$AA@
  0009c	68 00 00 00 00	 push	 OFFSET ??_C@_0CB@LECHKDCJ@SendPresentIdWnd?3?3ShowConfirmWnd@
  000a1	ff 15 00 00 00
	00		 call	 DWORD PTR __imp_?GetSingleton@ioStringManager@@SAAAV1@XZ
  000a7	8b c8		 mov	 ecx, eax
  000a9	ff 15 00 00 00
	00		 call	 DWORD PTR __imp_?GetString@ioStringManager@@QAEPADPBD0HW4FileNamePrefix@1@@Z
  000af	50		 push	 eax
  000b0	57		 push	 edi
  000b1	57		 push	 edi
  000b2	e8 00 00 00 00	 call	 ?GetSingleton@ioSP2GUIManager@@SAAAV1@XZ ; ioSP2GUIManager::GetSingleton
  000b7	50		 push	 eax
  000b8	e8 00 00 00 00	 call	 ?SetMsgBox@ioSP2GUIManager@@QAAXHPAVioWnd@@PBDZZ ; ioSP2GUIManager::SetMsgBox

; 161  : 		return false;

  000bd	eb 44		 jmp	 SHORT $LN11@ShowConfir
$LN2@ShowConfir:

; 162  : 	}
; 163  : 
; 164  : 	SendPresentConfirmWnd *pConfirmWnd = dynamic_cast< SendPresentConfirmWnd* > ( g_GUIMgr.FindWnd( SEND_PRESENT_CONFIRM_WND ) );

  000bf	68 00 00 00 00	 push	 OFFSET ??_R0?AVSendPresentConfirmWnd@@@8
  000c4	68 00 00 00 00	 push	 OFFSET ??_R0?AVioWnd@@@8
  000c9	57		 push	 edi
  000ca	68 e4 17 00 00	 push	 6116			; 000017e4H
  000cf	e8 00 00 00 00	 call	 ?GetSingleton@ioSP2GUIManager@@SAAAV1@XZ ; ioSP2GUIManager::GetSingleton
  000d4	8b c8		 mov	 ecx, eax
  000d6	ff 15 00 00 00
	00		 call	 DWORD PTR __imp_?FindWnd@ioGUIManager@@QAEPAVioWnd@@K@Z
  000dc	50		 push	 eax
  000dd	e8 00 00 00 00	 call	 ___RTDynamicCast
  000e2	83 c4 14	 add	 esp, 20			; 00000014H
  000e5	89 45 fc	 mov	 DWORD PTR _pConfirmWnd$[ebp], eax

; 165  : 	if( !pConfirmWnd )

  000e8	3b c7		 cmp	 eax, edi
  000ea	75 1e		 jne	 SHORT $LN1@ShowConfir

; 166  : 	{
; 167  : 		LOG.PrintTimeAndLog( 0, "%s pConfirmWnd == NULL. ", __FUNCTION__ );

  000ec	68 00 00 00 00	 push	 OFFSET ??_C@_0CB@LECHKDCJ@SendPresentIdWnd?3?3ShowConfirmWnd@
  000f1	68 00 00 00 00	 push	 OFFSET ??_C@_0BJ@NDOMCMOE@?$CFs?5pConfirmWnd?5?$DN?$DN?5NULL?4?5?$AA@
  000f6	57		 push	 edi
  000f7	ff 35 00 00 00
	00		 push	 DWORD PTR __imp_?LOG@@3VCLog@@A
  000fd	ff 15 00 00 00
	00		 call	 DWORD PTR __imp_?PrintTimeAndLog@CLog@@QAAXHPADZZ
$LN11@ShowConfir:
  00103	83 c4 10	 add	 esp, 16			; 00000010H

; 168  : 		return false;

  00106	32 c0		 xor	 al, al
  00108	eb 31		 jmp	 SHORT $LN10@ShowConfir
$LN1@ShowConfir:

; 169  : 	}
; 170  : 
; 171  : 	pConfirmWnd->ShowSendPresentConfirmWnd( m_pReturnWnd, m_iPresentType, m_iPresentValue1, m_iPresentValue2, m_szFriend.c_str() );

  0010a	8d 8e 70 01 00
	00		 lea	 ecx, DWORD PTR [esi+368]
  00110	ff 15 00 00 00
	00		 call	 DWORD PTR __imp_?c_str@ioHashString@@QBEPBDXZ
  00116	8b 4d fc	 mov	 ecx, DWORD PTR _pConfirmWnd$[ebp]
  00119	50		 push	 eax
  0011a	ff b6 6c 01 00
	00		 push	 DWORD PTR [esi+364]
  00120	0f b7 86 64 01
	00 00		 movzx	 eax, WORD PTR [esi+356]
  00127	ff b6 68 01 00
	00		 push	 DWORD PTR [esi+360]
  0012d	50		 push	 eax
  0012e	ff b6 60 01 00
	00		 push	 DWORD PTR [esi+352]
  00134	e8 00 00 00 00	 call	 ?ShowSendPresentConfirmWnd@SendPresentConfirmWnd@@QAEXPAVNewShopBuyWnd@@FHHPBD@Z ; SendPresentConfirmWnd::ShowSendPresentConfirmWnd

; 172  : 
; 173  : 	return true;

  00139	b0 01		 mov	 al, 1
$LN10@ShowConfir:
  0013b	5f		 pop	 edi
$LN6@ShowConfir:
  0013c	5e		 pop	 esi
  0013d	5b		 pop	 ebx

; 174  : }

  0013e	c9		 leave
  0013f	c3		 ret	 0
?ShowConfirmWnd@SendPresentIdWnd@@IAE_NXZ ENDP		; SendPresentIdWnd::ShowConfirmWnd
_TEXT	ENDS
PUBLIC	??$_Uninit_move@PAVioHashString@@PAV1@V?$allocator@VioHashString@@@std@@V1@@std@@YAPAVioHashString@@PAV1@00AAV?$allocator@VioHashString@@@0@0U_Nonscalar_ptr_iterator_tag@0@@Z ; std::_Uninit_move<ioHashString *,ioHashString *,std::allocator<ioHashString>,ioHashString>
EXTRN	__EH_prolog3_catch:PROC
;	COMDAT xdata$x
; File c:\program files (x86)\microsoft visual studio 10.0\vc\include\vector
xdata$x	SEGMENT
__catchsym$??$_Uninit_move@PAVioHashString@@PAV1@V?$allocator@VioHashString@@@std@@V1@@std@@YAPAVioHashString@@PAV1@00AAV?$allocator@VioHashString@@@0@0U_Nonscalar_ptr_iterator_tag@0@@Z$2 DD 040H
	DD	00H
	DD	00H
	DD	FLAT:__catch$??$_Uninit_move@PAVioHashString@@PAV1@V?$allocator@VioHashString@@@std@@V1@@std@@YAPAVioHashString@@PAV1@00AAV?$allocator@VioHashString@@@0@0U_Nonscalar_ptr_iterator_tag@0@@Z$0
__unwindtable$??$_Uninit_move@PAVioHashString@@PAV1@V?$allocator@VioHashString@@@std@@V1@@std@@YAPAVioHashString@@PAV1@00AAV?$allocator@VioHashString@@@0@0U_Nonscalar_ptr_iterator_tag@0@@Z DD 0ffffffffH
	DD	00H
	DD	0ffffffffH
	DD	00H
__tryblocktable$??$_Uninit_move@PAVioHashString@@PAV1@V?$allocator@VioHashString@@@std@@V1@@std@@YAPAVioHashString@@PAV1@00AAV?$allocator@VioHashString@@@0@0U_Nonscalar_ptr_iterator_tag@0@@Z DD 00H
	DD	00H
	DD	01H
	DD	01H
	DD	FLAT:__catchsym$??$_Uninit_move@PAVioHashString@@PAV1@V?$allocator@VioHashString@@@std@@V1@@std@@YAPAVioHashString@@PAV1@00AAV?$allocator@VioHashString@@@0@0U_Nonscalar_ptr_iterator_tag@0@@Z$2
__ehfuncinfo$??$_Uninit_move@PAVioHashString@@PAV1@V?$allocator@VioHashString@@@std@@V1@@std@@YAPAVioHashString@@PAV1@00AAV?$allocator@VioHashString@@@0@0U_Nonscalar_ptr_iterator_tag@0@@Z DD 019930522H
	DD	02H
	DD	FLAT:__unwindtable$??$_Uninit_move@PAVioHashString@@PAV1@V?$allocator@VioHashString@@@std@@V1@@std@@YAPAVioHashString@@PAV1@00AAV?$allocator@VioHashString@@@0@0U_Nonscalar_ptr_iterator_tag@0@@Z
	DD	01H
	DD	FLAT:__tryblocktable$??$_Uninit_move@PAVioHashString@@PAV1@V?$allocator@VioHashString@@@std@@V1@@std@@YAPAVioHashString@@PAV1@00AAV?$allocator@VioHashString@@@0@0U_Nonscalar_ptr_iterator_tag@0@@Z
	DD	2 DUP(00H)
	DD	00H
	DD	01H
; Function compile flags: /Ogsp
; File c:\program files (x86)\microsoft visual studio 10.0\vc\include\memory
xdata$x	ENDS
;	COMDAT ??$_Uninit_move@PAVioHashString@@PAV1@V?$allocator@VioHashString@@@std@@V1@@std@@YAPAVioHashString@@PAV1@00AAV?$allocator@VioHashString@@@0@0U_Nonscalar_ptr_iterator_tag@0@@Z
_TEXT	SEGMENT
__Next$ = -20						; size = 4
__$EHRec$ = -16						; size = 16
__First$ = 8						; size = 4
__Last$ = 12						; size = 4
__Dest$ = 16						; size = 4
__Al$ = 20						; size = 4
___formal$ = 24						; size = 4
___formal$ = 28						; size = 1
??$_Uninit_move@PAVioHashString@@PAV1@V?$allocator@VioHashString@@@std@@V1@@std@@YAPAVioHashString@@PAV1@00AAV?$allocator@VioHashString@@@0@0U_Nonscalar_ptr_iterator_tag@0@@Z PROC ; std::_Uninit_move<ioHashString *,ioHashString *,std::allocator<ioHashString>,ioHashString>, COMDAT

; 424  : 	{	// move [_First, _Last) to raw _Dest, using _Al, arbitrary type

  00000	6a 08		 push	 8
  00002	b8 00 00 00 00	 mov	 eax, __ehhandler$??$_Uninit_move@PAVioHashString@@PAV1@V?$allocator@VioHashString@@@std@@V1@@std@@YAPAVioHashString@@PAV1@00AAV?$allocator@VioHashString@@@0@0U_Nonscalar_ptr_iterator_tag@0@@Z
  00007	e8 00 00 00 00	 call	 __EH_prolog3_catch

; 425  : 	_DEBUG_RANGE(_First, _Last);
; 426  : 	_DEBUG_POINTER(_Dest);
; 427  : 	_FwdIt _Next = _Dest;

  0000c	8b 45 10	 mov	 eax, DWORD PTR __Dest$[ebp]

; 428  : 
; 429  : 	_TRY_BEGIN

  0000f	83 65 fc 00	 and	 DWORD PTR __$EHRec$[ebp+12], 0
  00013	8b 75 08	 mov	 esi, DWORD PTR __First$[ebp]
  00016	89 45 ec	 mov	 DWORD PTR __Next$[ebp], eax
$LL6@Uninit_mov:

; 430  : 	for (; _First != _Last; ++_Dest, ++_First)

  00019	3b 75 0c	 cmp	 esi, DWORD PTR __Last$[ebp]
  0001c	74 33		 je	 SHORT $LN4@Uninit_mov

; 431  : 		_Cons_val(_Al, _Dest, (_Valty &&)*_First);

  0001e	8b 4d 14	 mov	 ecx, DWORD PTR __Al$[ebp]
  00021	56		 push	 esi
  00022	ff 75 10	 push	 DWORD PTR __Dest$[ebp]
  00025	e8 00 00 00 00	 call	 ?construct@?$allocator@VioHashString@@@std@@QAEXPAVioHashString@@$$QAV3@@Z ; std::allocator<ioHashString>::construct
  0002a	83 45 10 10	 add	 DWORD PTR __Dest$[ebp], 16 ; 00000010H
  0002e	83 c6 10	 add	 esi, 16			; 00000010H
  00031	eb e6		 jmp	 SHORT $LL6@Uninit_mov
__catch$??$_Uninit_move@PAVioHashString@@PAV1@V?$allocator@VioHashString@@@std@@V1@@std@@YAPAVioHashString@@PAV1@00AAV?$allocator@VioHashString@@@0@0U_Nonscalar_ptr_iterator_tag@0@@Z$0:

; 432  : 	_CATCH_ALL
; 433  : 	for (; _Next != _Dest; ++_Next)

  00033	8b 75 ec	 mov	 esi, DWORD PTR __Next$[ebp]
  00036	eb 0b		 jmp	 SHORT $LN33@Uninit_mov
$LL3@Uninit_mov:

; 434  : 		_Dest_val(_Al, _Next);

  00038	8b ce		 mov	 ecx, esi
  0003a	ff 15 00 00 00
	00		 call	 DWORD PTR __imp_??1ioHashString@@QAE@XZ
  00040	83 c6 10	 add	 esi, 16			; 00000010H
$LN33@Uninit_mov:

; 432  : 	_CATCH_ALL
; 433  : 	for (; _Next != _Dest; ++_Next)

  00043	3b 75 10	 cmp	 esi, DWORD PTR __Dest$[ebp]
  00046	75 f0		 jne	 SHORT $LL3@Uninit_mov

; 435  : 	_RERAISE;

  00048	6a 00		 push	 0
  0004a	6a 00		 push	 0
  0004c	e8 00 00 00 00	 call	 __CxxThrowException@8
$LN34@Uninit_mov:
$LN4@Uninit_mov:

; 436  : 	_CATCH_END
; 437  : 	return (_Dest);

  00051	8b 45 10	 mov	 eax, DWORD PTR __Dest$[ebp]

; 438  : 	}

  00054	e8 00 00 00 00	 call	 __EH_epilog3
  00059	c3		 ret	 0
$LN32@Uninit_mov:
_TEXT	ENDS
;	COMDAT text$x
text$x	SEGMENT
__ehhandler$??$_Uninit_move@PAVioHashString@@PAV1@V?$allocator@VioHashString@@@std@@V1@@std@@YAPAVioHashString@@PAV1@00AAV?$allocator@VioHashString@@@0@0U_Nonscalar_ptr_iterator_tag@0@@Z:
  00000	8b 54 24 08	 mov	 edx, DWORD PTR [esp+8]
  00004	8d 42 0c	 lea	 eax, DWORD PTR [edx+12]
  00007	8b 4a e8	 mov	 ecx, DWORD PTR [edx-24]
  0000a	33 c8		 xor	 ecx, eax
  0000c	e8 00 00 00 00	 call	 @__security_check_cookie@4
  00011	b8 00 00 00 00	 mov	 eax, OFFSET __ehfuncinfo$??$_Uninit_move@PAVioHashString@@PAV1@V?$allocator@VioHashString@@@std@@V1@@std@@YAPAVioHashString@@PAV1@00AAV?$allocator@VioHashString@@@0@0U_Nonscalar_ptr_iterator_tag@0@@Z
  00016	e9 00 00 00 00	 jmp	 ___CxxFrameHandler3
text$x	ENDS
??$_Uninit_move@PAVioHashString@@PAV1@V?$allocator@VioHashString@@@std@@V1@@std@@YAPAVioHashString@@PAV1@00AAV?$allocator@VioHashString@@@0@0U_Nonscalar_ptr_iterator_tag@0@@Z ENDP ; std::_Uninit_move<ioHashString *,ioHashString *,std::allocator<ioHashString>,ioHashString>
PUBLIC	??$_Destroy_range@V?$allocator@VioHashString@@@std@@@std@@YAXPAVioHashString@@0AAV?$allocator@VioHashString@@@0@U_Nonscalar_ptr_iterator_tag@0@@Z ; std::_Destroy_range<std::allocator<ioHashString> >
; Function compile flags: /Ogsp
; File c:\program files (x86)\microsoft visual studio 10.0\vc\include\xmemory
;	COMDAT ??$_Destroy_range@V?$allocator@VioHashString@@@std@@@std@@YAXPAVioHashString@@0AAV?$allocator@VioHashString@@@0@U_Nonscalar_ptr_iterator_tag@0@@Z
_TEXT	SEGMENT
__First$ = 8						; size = 4
__Last$ = 12						; size = 4
__Al$ = 16						; size = 4
___formal$ = 20						; size = 1
??$_Destroy_range@V?$allocator@VioHashString@@@std@@@std@@YAXPAVioHashString@@0AAV?$allocator@VioHashString@@@0@U_Nonscalar_ptr_iterator_tag@0@@Z PROC ; std::_Destroy_range<std::allocator<ioHashString> >, COMDAT

; 95   : 	{	// destroy [_First, _Last), arbitrary type

  00000	55		 push	 ebp
  00001	8b ec		 mov	 ebp, esp
  00003	56		 push	 esi

; 96   : 	for (; _First != _Last; ++_First)

  00004	8b 75 08	 mov	 esi, DWORD PTR __First$[ebp]
  00007	eb 0b		 jmp	 SHORT $LN17@Destroy_ra
$LL3@Destroy_ra:

; 97   : 		_Dest_val(_Al, _First);

  00009	8b ce		 mov	 ecx, esi
  0000b	ff 15 00 00 00
	00		 call	 DWORD PTR __imp_??1ioHashString@@QAE@XZ
  00011	83 c6 10	 add	 esi, 16			; 00000010H
$LN17@Destroy_ra:

; 96   : 	for (; _First != _Last; ++_First)

  00014	3b 75 0c	 cmp	 esi, DWORD PTR __Last$[ebp]
  00017	75 f0		 jne	 SHORT $LL3@Destroy_ra
  00019	5e		 pop	 esi

; 98   : 	}

  0001a	5d		 pop	 ebp
  0001b	c3		 ret	 0
??$_Destroy_range@V?$allocator@VioHashString@@@std@@@std@@YAXPAVioHashString@@0AAV?$allocator@VioHashString@@@0@U_Nonscalar_ptr_iterator_tag@0@@Z ENDP ; std::_Destroy_range<std::allocator<ioHashString> >
_TEXT	ENDS
PUBLIC	??_C@_0BO@ODIGFAHF@SendPresentIdWnd?3?3iwm_command?$AA@ ; `string'
PUBLIC	??_R0?AVSendPresentFriendListWnd@@@8		; SendPresentFriendListWnd `RTTI Type Descriptor'
EXTRN	__imp_?SetChildWndStyleRemove@ioWnd@@QAEXKK@Z:PROC
;	COMDAT ??_C@_0BO@ODIGFAHF@SendPresentIdWnd?3?3iwm_command?$AA@
; File d:\lost saga for developer\youtube\tutorial\source\src\lsclient\gui\sendpresentwnd.h
CONST	SEGMENT
??_C@_0BO@ODIGFAHF@SendPresentIdWnd?3?3iwm_command?$AA@ DB 'SendPresentId'
	DB	'Wnd::iwm_command', 00H			; `string'
CONST	ENDS
;	COMDAT ??_R0?AVSendPresentFriendListWnd@@@8
_DATA	SEGMENT
??_R0?AVSendPresentFriendListWnd@@@8 DD FLAT:??_7type_info@@6B@ ; SendPresentFriendListWnd `RTTI Type Descriptor'
	DD	00H
	DB	'.?AVSendPresentFriendListWnd@@', 00H
; Function compile flags: /Ogsp
; File d:\lost saga for developer\youtube\tutorial\source\src\lsclient\gui\sendpresentwnd.cpp
_DATA	ENDS
;	COMDAT ?iwm_command@SendPresentIdWnd@@UAEXPAVioWnd@@HK@Z
_TEXT	SEGMENT
_pWnd$ = 8						; size = 4
_cmd$ = 12						; size = 4
_param$ = 16						; size = 4
?iwm_command@SendPresentIdWnd@@UAEXPAVioWnd@@HK@Z PROC	; SendPresentIdWnd::iwm_command, COMDAT
; _this$ = ecx

; 77   : {

  00000	55		 push	 ebp
  00001	8b ec		 mov	 ebp, esp
  00003	53		 push	 ebx
  00004	56		 push	 esi
  00005	8b f1		 mov	 esi, ecx

; 78   : 	DWORD dwID = pWnd->GetID();

  00007	8b 4d 08	 mov	 ecx, DWORD PTR _pWnd$[ebp]
  0000a	57		 push	 edi
  0000b	ff 15 00 00 00
	00		 call	 DWORD PTR __imp_?GetID@ioWnd@@QBEKXZ

; 79   : 	switch( dwID )

  00011	48		 dec	 eax
  00012	0f 84 61 01 00
	00		 je	 $LN19@iwm_comman@2
  00018	48		 dec	 eax
  00019	0f 84 13 01 00
	00		 je	 $LN12@iwm_comman@2
  0001f	48		 dec	 eax
  00020	0f 84 53 01 00
	00		 je	 $LN19@iwm_comman@2
  00026	48		 dec	 eax
  00027	0f 84 d6 00 00
	00		 je	 $LN17@iwm_comman@2
  0002d	2d e4 03 00 00	 sub	 eax, 996		; 000003e4H
  00032	0f 85 4f 01 00
	00		 jne	 $LN18@iwm_comman@2

; 112  : 	case ID_FRIEND_LIST:
; 113  : 		if( cmd == IOBN_BTNUP )

  00038	83 7d 0c 11	 cmp	 DWORD PTR _cmd$[ebp], 17 ; 00000011H
  0003c	0f 85 45 01 00
	00		 jne	 $LN18@iwm_comman@2

; 114  : 		{
; 115  : 			SendPresentFriendListWnd *pFriendWnd = dynamic_cast<SendPresentFriendListWnd*>( pWnd );

  00042	33 ff		 xor	 edi, edi
  00044	57		 push	 edi
  00045	68 00 00 00 00	 push	 OFFSET ??_R0?AVSendPresentFriendListWnd@@@8
  0004a	68 00 00 00 00	 push	 OFFSET ??_R0?AVioWnd@@@8
  0004f	57		 push	 edi
  00050	ff 75 08	 push	 DWORD PTR _pWnd$[ebp]
  00053	e8 00 00 00 00	 call	 ___RTDynamicCast
  00058	83 c4 14	 add	 esp, 20			; 00000014H

; 116  : 			if( pFriendWnd )

  0005b	3b c7		 cmp	 eax, edi
  0005d	0f 84 24 01 00
	00		 je	 $LN18@iwm_comman@2

; 117  : 			{
; 118  : 				m_szFriend = pFriendWnd->GetPushUser().c_str();

  00063	8d 88 ac 01 00
	00		 lea	 ecx, DWORD PTR [eax+428]
  00069	8d 9e 70 01 00
	00		 lea	 ebx, DWORD PTR [esi+368]
  0006f	ff 15 00 00 00
	00		 call	 DWORD PTR __imp_?c_str@ioHashString@@QBEPBDXZ
  00075	50		 push	 eax
  00076	8b cb		 mov	 ecx, ebx
  00078	ff 15 00 00 00
	00		 call	 DWORD PTR __imp_??4ioHashString@@QAEAAV0@PBD@Z

; 119  : 				if( !m_szFriend.IsEmpty() )

  0007e	8b cb		 mov	 ecx, ebx
  00080	ff 15 00 00 00
	00		 call	 DWORD PTR __imp_?IsEmpty@ioHashString@@QBE_NXZ

; 120  : 				{
; 121  : 					SetChildWndStyleRemove( ID_NEXT, IWS_EXACTIVE );

  00086	68 00 10 00 00	 push	 4096			; 00001000H
  0008b	8b ce		 mov	 ecx, esi
  0008d	6a 02		 push	 2
  0008f	84 c0		 test	 al, al
  00091	75 2a		 jne	 SHORT $LN4@iwm_comman@2
  00093	ff 15 00 00 00
	00		 call	 DWORD PTR __imp_?SetChildWndStyleRemove@ioWnd@@QAEXKK@Z

; 122  : 
; 123  : 					ioWnd *pFriendListBtn = FindChildWnd( ID_FRIEND_BTN );

  00099	6a 04		 push	 4
  0009b	8b ce		 mov	 ecx, esi
  0009d	ff 15 00 00 00
	00		 call	 DWORD PTR __imp_?FindChildWnd@ioWnd@@QAEPAV1@K@Z
  000a3	8b f0		 mov	 esi, eax

; 124  : 					if( pFriendListBtn )

  000a5	3b f7		 cmp	 esi, edi
  000a7	0f 84 da 00 00
	00		 je	 $LN18@iwm_comman@2

; 125  : 						pFriendListBtn->SetTitleText( m_szFriend.c_str() );

  000ad	57		 push	 edi
  000ae	68 00 00 00 00	 push	 OFFSET ??_C@_00CNPNBAHC@?$AA@
  000b3	8b cb		 mov	 ecx, ebx
  000b5	ff 15 00 00 00
	00		 call	 DWORD PTR __imp_?c_str@ioHashString@@QBEPBDXZ

; 126  : 				}
; 127  : 				else

  000bb	eb 38		 jmp	 SHORT $LN28@iwm_comman@2
$LN4@iwm_comman@2:

; 128  : 				{
; 129  : 					SetChildWndStyleAdd( ID_NEXT, IWS_EXACTIVE );

  000bd	ff 15 00 00 00
	00		 call	 DWORD PTR __imp_?SetChildWndStyleAdd@ioWnd@@QAEXKK@Z

; 130  : 
; 131  : 					ioWnd *pFriendListBtn = FindChildWnd( ID_FRIEND_BTN );

  000c3	6a 04		 push	 4
  000c5	8b ce		 mov	 ecx, esi
  000c7	ff 15 00 00 00
	00		 call	 DWORD PTR __imp_?FindChildWnd@ioWnd@@QAEPAV1@K@Z
  000cd	8b f0		 mov	 esi, eax

; 132  : 					if( pFriendListBtn )

  000cf	3b f7		 cmp	 esi, edi
  000d1	0f 84 b0 00 00
	00		 je	 $LN18@iwm_comman@2

; 133  : 						pFriendListBtn->SetTitleText( STR(2) );

  000d7	57		 push	 edi
  000d8	b8 00 00 00 00	 mov	 eax, OFFSET ??_C@_00CNPNBAHC@?$AA@
  000dd	50		 push	 eax
  000de	57		 push	 edi
  000df	6a 02		 push	 2
  000e1	50		 push	 eax
  000e2	68 00 00 00 00	 push	 OFFSET ??_C@_0BO@ODIGFAHF@SendPresentIdWnd?3?3iwm_command?$AA@
  000e7	ff 15 00 00 00
	00		 call	 DWORD PTR __imp_?GetSingleton@ioStringManager@@SAAAV1@XZ
  000ed	8b c8		 mov	 ecx, eax
  000ef	ff 15 00 00 00
	00		 call	 DWORD PTR __imp_?GetString@ioStringManager@@QAEPADPBD0HW4FileNamePrefix@1@@Z
$LN28@iwm_comman@2:
  000f5	50		 push	 eax
  000f6	8b ce		 mov	 ecx, esi
  000f8	ff 15 00 00 00
	00		 call	 DWORD PTR __imp_?SetTitleText@ioWnd@@QAEXPBD0H@Z

; 134  : 				}
; 135  : 			}
; 136  : 		}
; 137  : 		break;

  000fe	e9 84 00 00 00	 jmp	 $LN18@iwm_comman@2
$LN17@iwm_comman@2:

; 86   : 		}
; 87   : 		break;
; 88   : 	case ID_FRIEND_BTN:
; 89   : 		if( cmd == IOBN_BTNUP )

  00103	83 7d 0c 11	 cmp	 DWORD PTR _cmd$[ebp], 17 ; 00000011H
  00107	75 7e		 jne	 SHORT $LN18@iwm_comman@2

; 90   : 		{
; 91   : 			ioWnd *pFriendListWnd = FindChildWnd( ID_FRIEND_LIST );

  00109	68 e8 03 00 00	 push	 1000			; 000003e8H
  0010e	8b ce		 mov	 ecx, esi
  00110	ff 15 00 00 00
	00		 call	 DWORD PTR __imp_?FindChildWnd@ioWnd@@QAEPAV1@K@Z
  00116	8b f0		 mov	 esi, eax

; 92   : 			if( pFriendListWnd )

  00118	85 f6		 test	 esi, esi
  0011a	74 6b		 je	 SHORT $LN18@iwm_comman@2

; 93   : 			{
; 94   : 				if( pFriendListWnd->IsShow() )

  0011c	8b ce		 mov	 ecx, esi
  0011e	ff 15 00 00 00
	00		 call	 DWORD PTR __imp_?IsShow@ioWnd@@QBE_NXZ

; 95   : 					pFriendListWnd->HideWnd();

  00124	8b ce		 mov	 ecx, esi
  00126	84 c0		 test	 al, al

; 96   : 				else

  00128	75 57		 jne	 SHORT $LN26@iwm_comman@2

; 97   : 					pFriendListWnd->ShowWnd();

  0012a	ff 15 00 00 00
	00		 call	 DWORD PTR __imp_?ShowWnd@ioWnd@@QAEXXZ

; 98   : 			}
; 99   : 		}
; 100  : 		break;

  00130	eb 55		 jmp	 SHORT $LN18@iwm_comman@2
$LN12@iwm_comman@2:

; 101  : 	case ID_NEXT:
; 102  : 		if( cmd == IOBN_BTNUP || cmd == IOEX_BTNUP )

  00132	83 7d 0c 11	 cmp	 DWORD PTR _cmd$[ebp], 17 ; 00000011H
  00136	74 06		 je	 SHORT $LN10@iwm_comman@2
  00138	83 7d 0c 16	 cmp	 DWORD PTR _cmd$[ebp], 22 ; 00000016H
  0013c	75 49		 jne	 SHORT $LN18@iwm_comman@2
$LN10@iwm_comman@2:

; 103  : 		{
; 104  : 			if( ShowConfirmWnd() )

  0013e	8b ce		 mov	 ecx, esi
  00140	e8 00 00 00 00	 call	 ?ShowConfirmWnd@SendPresentIdWnd@@IAE_NXZ ; SendPresentIdWnd::ShowConfirmWnd
  00145	84 c0		 test	 al, al

; 105  : 				HideWnd();
; 106  : 			else

  00147	75 36		 jne	 SHORT $LN27@iwm_comman@2

; 107  : 			{
; 108  : 				g_GUIMgr.SetMsgBox( MB_OK, NULL, STR(1) );

  00149	33 ff		 xor	 edi, edi
  0014b	57		 push	 edi
  0014c	6a 01		 push	 1
  0014e	68 00 00 00 00	 push	 OFFSET ??_C@_00CNPNBAHC@?$AA@
  00153	68 00 00 00 00	 push	 OFFSET ??_C@_0BO@ODIGFAHF@SendPresentIdWnd?3?3iwm_command?$AA@
  00158	ff 15 00 00 00
	00		 call	 DWORD PTR __imp_?GetSingleton@ioStringManager@@SAAAV1@XZ
  0015e	8b c8		 mov	 ecx, eax
  00160	ff 15 00 00 00
	00		 call	 DWORD PTR __imp_?GetString@ioStringManager@@QAEPADPBD0HW4FileNamePrefix@1@@Z
  00166	50		 push	 eax
  00167	57		 push	 edi
  00168	57		 push	 edi
  00169	e8 00 00 00 00	 call	 ?GetSingleton@ioSP2GUIManager@@SAAAV1@XZ ; ioSP2GUIManager::GetSingleton
  0016e	50		 push	 eax
  0016f	e8 00 00 00 00	 call	 ?SetMsgBox@ioSP2GUIManager@@QAAXHPAVioWnd@@PBDZZ ; ioSP2GUIManager::SetMsgBox
  00174	83 c4 10	 add	 esp, 16			; 00000010H

; 109  : 			}
; 110  : 		}
; 111  : 		break;

  00177	eb 0e		 jmp	 SHORT $LN18@iwm_comman@2
$LN19@iwm_comman@2:

; 80   : 	{
; 81   : 	case ID_EXIT:
; 82   : 	case ID_CANCEL:
; 83   : 		if( cmd == IOBN_BTNUP )

  00179	83 7d 0c 11	 cmp	 DWORD PTR _cmd$[ebp], 17 ; 00000011H
  0017d	75 08		 jne	 SHORT $LN18@iwm_comman@2
$LN27@iwm_comman@2:

; 84   : 		{
; 85   : 			HideWnd();

  0017f	8b ce		 mov	 ecx, esi
$LN26@iwm_comman@2:
  00181	ff 15 00 00 00
	00		 call	 DWORD PTR __imp_?HideWnd@ioWnd@@QAEXXZ
$LN18@iwm_comman@2:
  00187	5f		 pop	 edi
  00188	5e		 pop	 esi
  00189	5b		 pop	 ebx

; 138  : 	}
; 139  : }

  0018a	5d		 pop	 ebp
  0018b	c2 0c 00	 ret	 12			; 0000000cH
?iwm_command@SendPresentIdWnd@@UAEXPAVioWnd@@HK@Z ENDP	; SendPresentIdWnd::iwm_command
_TEXT	ENDS
PUBLIC	??$_Uninitialized_move@PAVioHashString@@PAV1@V?$allocator@VioHashString@@@std@@@std@@YAPAVioHashString@@PAV1@00AAV?$allocator@VioHashString@@@0@@Z ; std::_Uninitialized_move<ioHashString *,ioHashString *,std::allocator<ioHashString> >
; Function compile flags: /Ogsp
; File c:\program files (x86)\microsoft visual studio 10.0\vc\include\memory
;	COMDAT ??$_Uninitialized_move@PAVioHashString@@PAV1@V?$allocator@VioHashString@@@std@@@std@@YAPAVioHashString@@PAV1@00AAV?$allocator@VioHashString@@@0@@Z
_TEXT	SEGMENT
__Cat$515272 = -4					; size = 1
__First$ = 8						; size = 4
__Last$ = 12						; size = 4
__Dest$ = 16						; size = 4
__Al$ = 20						; size = 4
??$_Uninitialized_move@PAVioHashString@@PAV1@V?$allocator@VioHashString@@@std@@@std@@YAPAVioHashString@@PAV1@00AAV?$allocator@VioHashString@@@0@@Z PROC ; std::_Uninitialized_move<ioHashString *,ioHashString *,std::allocator<ioHashString> >, COMDAT

; 469  : 	{	// move [_First, _Last) to raw _Dest, using _Al

  00000	55		 push	 ebp
  00001	8b ec		 mov	 ebp, esp
  00003	51		 push	 ecx

; 470  : 	return (_Uninit_move(_First, _Last, _Dest, _Al,
; 471  : 		_Val_type(_First), _Ptr_cat(_First, _Dest)));

  00004	ff 75 fc	 push	 DWORD PTR __Cat$515272[ebp]
  00007	6a 00		 push	 0
  00009	ff 75 14	 push	 DWORD PTR __Al$[ebp]
  0000c	ff 75 10	 push	 DWORD PTR __Dest$[ebp]
  0000f	ff 75 0c	 push	 DWORD PTR __Last$[ebp]
  00012	ff 75 08	 push	 DWORD PTR __First$[ebp]
  00015	e8 00 00 00 00	 call	 ??$_Uninit_move@PAVioHashString@@PAV1@V?$allocator@VioHashString@@@std@@V1@@std@@YAPAVioHashString@@PAV1@00AAV?$allocator@VioHashString@@@0@0U_Nonscalar_ptr_iterator_tag@0@@Z ; std::_Uninit_move<ioHashString *,ioHashString *,std::allocator<ioHashString>,ioHashString>
  0001a	83 c4 18	 add	 esp, 24			; 00000018H

; 472  : 	}

  0001d	c9		 leave
  0001e	c3		 ret	 0
??$_Uninitialized_move@PAVioHashString@@PAV1@V?$allocator@VioHashString@@@std@@@std@@YAPAVioHashString@@PAV1@00AAV?$allocator@VioHashString@@@0@@Z ENDP ; std::_Uninitialized_move<ioHashString *,ioHashString *,std::allocator<ioHashString> >
_TEXT	ENDS
PUBLIC	??$_Destroy_range@V?$allocator@VioHashString@@@std@@@std@@YAXPAVioHashString@@0AAV?$allocator@VioHashString@@@0@@Z ; std::_Destroy_range<std::allocator<ioHashString> >
; Function compile flags: /Ogsp
; File c:\program files (x86)\microsoft visual studio 10.0\vc\include\xmemory
;	COMDAT ??$_Destroy_range@V?$allocator@VioHashString@@@std@@@std@@YAXPAVioHashString@@0AAV?$allocator@VioHashString@@@0@@Z
_TEXT	SEGMENT
__First$ = 8						; size = 4
__Last$ = 12						; size = 4
__Al$ = 16						; size = 4
??$_Destroy_range@V?$allocator@VioHashString@@@std@@@std@@YAXPAVioHashString@@0AAV?$allocator@VioHashString@@@0@@Z PROC ; std::_Destroy_range<std::allocator<ioHashString> >, COMDAT

; 87   : 	{	// destroy [_First, _Last)

  00000	55		 push	 ebp
  00001	8b ec		 mov	 ebp, esp
  00003	56		 push	 esi

; 88   : 	_Destroy_range(_First, _Last, _Al, _Ptr_cat(_First, _Last));

  00004	8b 75 08	 mov	 esi, DWORD PTR __First$[ebp]
  00007	eb 0b		 jmp	 SHORT $LN21@Destroy_ra@2
$LL7@Destroy_ra@2:
  00009	8b ce		 mov	 ecx, esi
  0000b	ff 15 00 00 00
	00		 call	 DWORD PTR __imp_??1ioHashString@@QAE@XZ
  00011	83 c6 10	 add	 esi, 16			; 00000010H
$LN21@Destroy_ra@2:
  00014	3b 75 0c	 cmp	 esi, DWORD PTR __Last$[ebp]
  00017	75 f0		 jne	 SHORT $LL7@Destroy_ra@2
  00019	5e		 pop	 esi

; 89   : 	}

  0001a	5d		 pop	 ebp
  0001b	c3		 ret	 0
??$_Destroy_range@V?$allocator@VioHashString@@@std@@@std@@YAXPAVioHashString@@0AAV?$allocator@VioHashString@@@0@@Z ENDP ; std::_Destroy_range<std::allocator<ioHashString> >
_TEXT	ENDS
PUBLIC	??$_Umove@PAVioHashString@@@?$vector@VioHashString@@V?$allocator@VioHashString@@@std@@@std@@IAEPAVioHashString@@PAV2@00@Z ; std::vector<ioHashString,std::allocator<ioHashString> >::_Umove<ioHashString *>
; Function compile flags: /Ogsp
; File c:\program files (x86)\microsoft visual studio 10.0\vc\include\vector
;	COMDAT ??$_Umove@PAVioHashString@@@?$vector@VioHashString@@V?$allocator@VioHashString@@@std@@@std@@IAEPAVioHashString@@PAV2@00@Z
_TEXT	SEGMENT
__First$ = 8						; size = 4
__Last$ = 12						; size = 4
__Ptr$ = 16						; size = 4
??$_Umove@PAVioHashString@@@?$vector@VioHashString@@V?$allocator@VioHashString@@@std@@@std@@IAEPAVioHashString@@PAV2@00@Z PROC ; std::vector<ioHashString,std::allocator<ioHashString> >::_Umove<ioHashString *>, COMDAT
; _this$ = ecx

; 1322 : 		pointer _Umove(_Iter _First, _Iter _Last, pointer _Ptr)

  00000	55		 push	 ebp
  00001	8b ec		 mov	 ebp, esp

; 1323 : 		{	// move initializing [_First, _Last), using allocator
; 1324 : 		return (_Uninitialized_move(_First, _Last,
; 1325 : 			_Ptr, this->_Alval));

  00003	83 c1 0c	 add	 ecx, 12			; 0000000cH
  00006	51		 push	 ecx
  00007	ff 75 10	 push	 DWORD PTR __Ptr$[ebp]
  0000a	ff 75 0c	 push	 DWORD PTR __Last$[ebp]
  0000d	ff 75 08	 push	 DWORD PTR __First$[ebp]
  00010	e8 00 00 00 00	 call	 ??$_Uninitialized_move@PAVioHashString@@PAV1@V?$allocator@VioHashString@@@std@@@std@@YAPAVioHashString@@PAV1@00AAV?$allocator@VioHashString@@@0@@Z ; std::_Uninitialized_move<ioHashString *,ioHashString *,std::allocator<ioHashString> >
  00015	83 c4 10	 add	 esp, 16			; 00000010H

; 1326 : 		}

  00018	5d		 pop	 ebp
  00019	c2 0c 00	 ret	 12			; 0000000cH
??$_Umove@PAVioHashString@@@?$vector@VioHashString@@V?$allocator@VioHashString@@@std@@@std@@IAEPAVioHashString@@PAV2@00@Z ENDP ; std::vector<ioHashString,std::allocator<ioHashString> >::_Umove<ioHashString *>
_TEXT	ENDS
PUBLIC	?_Destroy@?$vector@VioHashString@@V?$allocator@VioHashString@@@std@@@std@@IAEXPAVioHashString@@0@Z ; std::vector<ioHashString,std::allocator<ioHashString> >::_Destroy
; Function compile flags: /Ogsp
;	COMDAT ?_Destroy@?$vector@VioHashString@@V?$allocator@VioHashString@@@std@@@std@@IAEXPAVioHashString@@0@Z
_TEXT	SEGMENT
__First$ = 8						; size = 4
__Last$ = 12						; size = 4
?_Destroy@?$vector@VioHashString@@V?$allocator@VioHashString@@@std@@@std@@IAEXPAVioHashString@@0@Z PROC ; std::vector<ioHashString,std::allocator<ioHashString> >::_Destroy, COMDAT
; _this$ = ecx

; 1269 : 		{	// destroy [_First, _Last) using allocator

  00000	55		 push	 ebp
  00001	8b ec		 mov	 ebp, esp
  00003	56		 push	 esi

; 1270 : 		_Destroy_range(_First, _Last, this->_Alval);

  00004	8b 75 08	 mov	 esi, DWORD PTR __First$[ebp]
  00007	eb 0b		 jmp	 SHORT $LN23@Destroy
$LL9@Destroy:
  00009	8b ce		 mov	 ecx, esi
  0000b	ff 15 00 00 00
	00		 call	 DWORD PTR __imp_??1ioHashString@@QAE@XZ
  00011	83 c6 10	 add	 esi, 16			; 00000010H
$LN23@Destroy:
  00014	3b 75 0c	 cmp	 esi, DWORD PTR __Last$[ebp]
  00017	75 f0		 jne	 SHORT $LL9@Destroy
  00019	5e		 pop	 esi

; 1271 : 		}

  0001a	5d		 pop	 ebp
  0001b	c2 08 00	 ret	 8
?_Destroy@?$vector@VioHashString@@V?$allocator@VioHashString@@@std@@@std@@IAEXPAVioHashString@@0@Z ENDP ; std::vector<ioHashString,std::allocator<ioHashString> >::_Destroy
_TEXT	ENDS
PUBLIC	?reserve@?$vector@VioHashString@@V?$allocator@VioHashString@@@std@@@std@@QAEXI@Z ; std::vector<ioHashString,std::allocator<ioHashString> >::reserve
EXTRN	__imp_?_Orphan_all@_Container_base0@std@@QAEXXZ:PROC
;	COMDAT xdata$x
; File c:\program files (x86)\microsoft visual studio 10.0\vc\include\xmemory
xdata$x	SEGMENT
__catchsym$?reserve@?$vector@VioHashString@@V?$allocator@VioHashString@@@std@@@std@@QAEXI@Z$2 DD 040H
	DD	00H
	DD	00H
	DD	FLAT:__catch$?reserve@?$vector@VioHashString@@V?$allocator@VioHashString@@@std@@@std@@QAEXI@Z$0
__unwindtable$?reserve@?$vector@VioHashString@@V?$allocator@VioHashString@@@std@@@std@@QAEXI@Z DD 0ffffffffH
	DD	00H
	DD	0ffffffffH
	DD	00H
__tryblocktable$?reserve@?$vector@VioHashString@@V?$allocator@VioHashString@@@std@@@std@@QAEXI@Z DD 00H
	DD	00H
	DD	01H
	DD	01H
	DD	FLAT:__catchsym$?reserve@?$vector@VioHashString@@V?$allocator@VioHashString@@@std@@@std@@QAEXI@Z$2
__ehfuncinfo$?reserve@?$vector@VioHashString@@V?$allocator@VioHashString@@@std@@@std@@QAEXI@Z DD 019930522H
	DD	02H
	DD	FLAT:__unwindtable$?reserve@?$vector@VioHashString@@V?$allocator@VioHashString@@@std@@@std@@QAEXI@Z
	DD	01H
	DD	FLAT:__tryblocktable$?reserve@?$vector@VioHashString@@V?$allocator@VioHashString@@@std@@@std@@QAEXI@Z
	DD	2 DUP(00H)
	DD	00H
	DD	01H
; Function compile flags: /Ogsp
; File c:\program files (x86)\microsoft visual studio 10.0\vc\include\vector
xdata$x	ENDS
;	COMDAT ?reserve@?$vector@VioHashString@@V?$allocator@VioHashString@@@std@@@std@@QAEXI@Z
_TEXT	SEGMENT
tv300 = -24						; size = 4
__Ptr$511473 = -20					; size = 4
__$EHRec$ = -16						; size = 16
$T515500 = 8						; size = 4
__Count$ = 8						; size = 4
?reserve@?$vector@VioHashString@@V?$allocator@VioHashString@@@std@@@std@@QAEXI@Z PROC ; std::vector<ioHashString,std::allocator<ioHashString> >::reserve, COMDAT
; _this$ = ecx

; 746  : 		{	// determine new minimum length of allocated storage

  00000	6a 0c		 push	 12			; 0000000cH
  00002	b8 00 00 00 00	 mov	 eax, __ehhandler$?reserve@?$vector@VioHashString@@V?$allocator@VioHashString@@@std@@@std@@QAEXI@Z
  00007	e8 00 00 00 00	 call	 __EH_prolog3_catch
  0000c	8b f1		 mov	 esi, ecx

; 747  : 		if (max_size() < _Count)

  0000e	8b 5d 08	 mov	 ebx, DWORD PTR __Count$[ebp]
  00011	81 fb ff ff ff
	0f		 cmp	 ebx, 268435455		; 0fffffffH
  00017	76 0b		 jbe	 SHORT $LN5@reserve

; 748  : 			_Xlen();	// result too long

  00019	68 00 00 00 00	 push	 OFFSET ??_C@_0BD@OLBABOEK@vector?$DMT?$DO?5too?5long?$AA@
  0001e	ff 15 00 00 00
	00		 call	 DWORD PTR __imp_?_Xlength_error@std@@YAXPBD@Z
$LN59@reserve:
$LN5@reserve:

; 749  : 		else if (capacity() < _Count)

  00024	8b 46 08	 mov	 eax, DWORD PTR [esi+8]
  00027	2b 06		 sub	 eax, DWORD PTR [esi]
  00029	c1 f8 04	 sar	 eax, 4
  0002c	3b c3		 cmp	 eax, ebx
  0002e	73 7a		 jae	 SHORT $LN3@reserve

; 750  : 			{	// not enough room, reallocate
; 751  : 			pointer _Ptr = this->_Alval.allocate(_Count);

  00030	6a 00		 push	 0
  00032	53		 push	 ebx
  00033	e8 00 00 00 00	 call	 ??$_Allocate@VioHashString@@@std@@YAPAVioHashString@@IPAV1@@Z ; std::_Allocate<ioHashString>

; 752  : 
; 753  : 			_TRY_BEGIN
; 754  : 			_Umove(this->_Myfirst, this->_Mylast, _Ptr);

  00038	8b 0e		 mov	 ecx, DWORD PTR [esi]
  0003a	83 65 fc 00	 and	 DWORD PTR __$EHRec$[ebp+12], 0
  0003e	8d 56 0c	 lea	 edx, DWORD PTR [esi+12]
  00041	52		 push	 edx
  00042	89 45 ec	 mov	 DWORD PTR __Ptr$511473[ebp], eax
  00045	ff 75 ec	 push	 DWORD PTR __Ptr$511473[ebp]
  00048	8b 46 04	 mov	 eax, DWORD PTR [esi+4]
  0004b	50		 push	 eax
  0004c	51		 push	 ecx
  0004d	e8 00 00 00 00	 call	 ??$_Uninitialized_move@PAVioHashString@@PAV1@V?$allocator@VioHashString@@@std@@@std@@YAPAVioHashString@@PAV1@00AAV?$allocator@VioHashString@@@0@@Z ; std::_Uninitialized_move<ioHashString *,ioHashString *,std::allocator<ioHashString> >

; 758  : 			_CATCH_END
; 759  : 
; 760  : 			size_type _Size = size();

  00052	8b 4e 04	 mov	 ecx, DWORD PTR [esi+4]
  00055	8b 06		 mov	 eax, DWORD PTR [esi]
  00057	83 4d fc ff	 or	 DWORD PTR __$EHRec$[ebp+12], -1
  0005b	8b f9		 mov	 edi, ecx
  0005d	83 c4 18	 add	 esp, 24			; 00000018H
  00060	2b f8		 sub	 edi, eax
  00062	89 4d e8	 mov	 DWORD PTR tv300[ebp], ecx
  00065	85 c0		 test	 eax, eax
  00067	74 24		 je	 SHORT $LN51@reserve

; 761  : 			if (this->_Myfirst != 0)
; 762  : 				{	// destroy and deallocate old array
; 763  : 				_Destroy(this->_Myfirst, this->_Mylast);

  00069	89 45 08	 mov	 DWORD PTR $T515500[ebp], eax
  0006c	3b c1		 cmp	 eax, ecx
  0006e	74 15		 je	 SHORT $LN37@reserve
$LN39@reserve:
  00070	8b 4d 08	 mov	 ecx, DWORD PTR $T515500[ebp]
  00073	ff 15 00 00 00
	00		 call	 DWORD PTR __imp_??1ioHashString@@QAE@XZ
  00079	83 45 08 10	 add	 DWORD PTR $T515500[ebp], 16 ; 00000010H
  0007d	8b 45 08	 mov	 eax, DWORD PTR $T515500[ebp]
  00080	3b 45 e8	 cmp	 eax, DWORD PTR tv300[ebp]
  00083	75 eb		 jne	 SHORT $LN39@reserve
$LN37@reserve:

; 764  : 				this->_Alval.deallocate(this->_Myfirst,
; 765  : 					this->_Myend - this->_Myfirst);

  00085	ff 36		 push	 DWORD PTR [esi]
  00087	e8 00 00 00 00	 call	 ??3@YAXPAX@Z		; operator delete
  0008c	59		 pop	 ecx
$LN51@reserve:

; 766  : 				}
; 767  : 
; 768  : 			this->_Orphan_all();

  0008d	8b ce		 mov	 ecx, esi
  0008f	ff 15 00 00 00
	00		 call	 DWORD PTR __imp_?_Orphan_all@_Container_base0@std@@QAEXXZ

; 769  : 			this->_Myend = _Ptr + _Count;

  00095	8b 45 ec	 mov	 eax, DWORD PTR __Ptr$511473[ebp]
  00098	c1 e3 04	 shl	 ebx, 4
  0009b	03 d8		 add	 ebx, eax

; 770  : 			this->_Mylast = _Ptr + _Size;

  0009d	83 e7 f0	 and	 edi, -16		; fffffff0H
  000a0	03 f8		 add	 edi, eax
  000a2	89 5e 08	 mov	 DWORD PTR [esi+8], ebx
  000a5	89 7e 04	 mov	 DWORD PTR [esi+4], edi

; 771  : 			this->_Myfirst = _Ptr;

  000a8	89 06		 mov	 DWORD PTR [esi], eax
$LN3@reserve:

; 772  : 			}
; 773  : 		}

  000aa	e8 00 00 00 00	 call	 __EH_epilog3
  000af	c2 04 00	 ret	 4
__catch$?reserve@?$vector@VioHashString@@V?$allocator@VioHashString@@@std@@@std@@QAEXI@Z$0:

; 755  : 			_CATCH_ALL
; 756  : 			this->_Alval.deallocate(_Ptr, _Count);

  000b2	ff 75 ec	 push	 DWORD PTR __Ptr$511473[ebp]
  000b5	e8 00 00 00 00	 call	 ??3@YAXPAX@Z		; operator delete
  000ba	59		 pop	 ecx

; 757  : 			_RERAISE;

  000bb	6a 00		 push	 0
  000bd	6a 00		 push	 0
  000bf	e8 00 00 00 00	 call	 __CxxThrowException@8
$LN60@reserve:
$LN58@reserve:
  000c4	cc		 int	 3
_TEXT	ENDS
;	COMDAT text$x
text$x	SEGMENT
__ehhandler$?reserve@?$vector@VioHashString@@V?$allocator@VioHashString@@@std@@@std@@QAEXI@Z:
  00000	8b 54 24 08	 mov	 edx, DWORD PTR [esp+8]
  00004	8d 42 0c	 lea	 eax, DWORD PTR [edx+12]
  00007	8b 4a e4	 mov	 ecx, DWORD PTR [edx-28]
  0000a	33 c8		 xor	 ecx, eax
  0000c	e8 00 00 00 00	 call	 @__security_check_cookie@4
  00011	b8 00 00 00 00	 mov	 eax, OFFSET __ehfuncinfo$?reserve@?$vector@VioHashString@@V?$allocator@VioHashString@@@std@@@std@@QAEXI@Z
  00016	e9 00 00 00 00	 jmp	 ___CxxFrameHandler3
text$x	ENDS
?reserve@?$vector@VioHashString@@V?$allocator@VioHashString@@@std@@@std@@QAEXI@Z ENDP ; std::vector<ioHashString,std::allocator<ioHashString> >::reserve
PUBLIC	?erase@?$vector@VioHashString@@V?$allocator@VioHashString@@@std@@@std@@QAE?AV?$_Vector_iterator@V?$_Vector_val@VioHashString@@V?$allocator@VioHashString@@@std@@@std@@@2@V?$_Vector_const_iterator@V?$_Vector_val@VioHashString@@V?$allocator@VioHashString@@@std@@@std@@@2@0@Z ; std::vector<ioHashString,std::allocator<ioHashString> >::erase
; Function compile flags: /Ogsp
;	COMDAT ?erase@?$vector@VioHashString@@V?$allocator@VioHashString@@@std@@@std@@QAE?AV?$_Vector_iterator@V?$_Vector_val@VioHashString@@V?$allocator@VioHashString@@@std@@@std@@@2@V?$_Vector_const_iterator@V?$_Vector_val@VioHashString@@V?$allocator@VioHashString@@@std@@@std@@@2@0@Z
_TEXT	SEGMENT
$T515695 = -4						; size = 4
___$ReturnUdt$ = 8					; size = 4
__First_arg$ = 12					; size = 4
__Cat$515639 = 16					; size = 1
__Last_arg$ = 16					; size = 4
?erase@?$vector@VioHashString@@V?$allocator@VioHashString@@@std@@@std@@QAE?AV?$_Vector_iterator@V?$_Vector_val@VioHashString@@V?$allocator@VioHashString@@@std@@@std@@@2@V?$_Vector_const_iterator@V?$_Vector_val@VioHashString@@V?$allocator@VioHashString@@@std@@@std@@@2@0@Z PROC ; std::vector<ioHashString,std::allocator<ioHashString> >::erase, COMDAT
; _this$ = ecx

; 1190 : 		{	// erase [_First, _Last)

  00000	55		 push	 ebp
  00001	8b ec		 mov	 ebp, esp
  00003	51		 push	 ecx

; 1191 : 		iterator _First = _Make_iter(_First_arg);

  00004	8b 45 08	 mov	 eax, DWORD PTR ___$ReturnUdt$[ebp]
  00007	56		 push	 esi
  00008	8b f1		 mov	 esi, ecx
  0000a	8b 4d 0c	 mov	 ecx, DWORD PTR __First_arg$[ebp]
  0000d	89 08		 mov	 DWORD PTR [eax], ecx

; 1192 : 		iterator _Last = _Make_iter(_Last_arg);
; 1193 : 
; 1194 : 		if (_First != _Last)

  0000f	3b 4d 10	 cmp	 ecx, DWORD PTR __Last_arg$[ebp]
  00012	74 38		 je	 SHORT $LN1@erase

; 1195 : 			{	// worth doing, copy down over hole
; 1196 :  #if _ITERATOR_DEBUG_LEVEL == 2
; 1197 : 			if (_Last < _First || _VICONT(_First) != this
; 1198 : 				|| _VIPTR(_First) < this->_Myfirst
; 1199 : 				|| this->_Mylast < _VIPTR(_Last))
; 1200 : 				_DEBUG_ERROR("vector erase iterator outside range");
; 1201 : 			pointer _Ptr = _Move(_VIPTR(_Last), this->_Mylast,
; 1202 : 				_VIPTR(_First));
; 1203 : 			_Orphan_range(_VIPTR(_First), this->_Mylast);
; 1204 : 
; 1205 :  #else /* _ITERATOR_DEBUG_LEVEL == 2 */
; 1206 : 			pointer _Ptr = _Move(_VIPTR(_Last), this->_Mylast,
; 1207 : 				_VIPTR(_First));

  00014	8b 46 04	 mov	 eax, DWORD PTR [esi+4]
  00017	53		 push	 ebx
  00018	57		 push	 edi
  00019	ff 75 10	 push	 DWORD PTR __Cat$515639[ebp]
  0001c	51		 push	 ecx
  0001d	50		 push	 eax
  0001e	ff 75 10	 push	 DWORD PTR __Last_arg$[ebp]
  00021	e8 00 00 00 00	 call	 ??$_Move@PAVioHashString@@PAV1@@std@@YAPAVioHashString@@PAV1@00U_Nonscalar_ptr_iterator_tag@0@@Z ; std::_Move<ioHashString *,ioHashString *>

; 1208 :  #endif /* _ITERATOR_DEBUG_LEVEL == 2 */
; 1209 : 
; 1210 : 			_Destroy(_Ptr, this->_Mylast);

  00026	8b 7e 04	 mov	 edi, DWORD PTR [esi+4]
  00029	8b d8		 mov	 ebx, eax
  0002b	83 c4 10	 add	 esp, 16			; 00000010H
  0002e	89 5d fc	 mov	 DWORD PTR $T515695[ebp], ebx
  00031	3b df		 cmp	 ebx, edi
  00033	74 12		 je	 SHORT $LN36@erase
$LL52@erase:
  00035	8b 4d fc	 mov	 ecx, DWORD PTR $T515695[ebp]
  00038	ff 15 00 00 00
	00		 call	 DWORD PTR __imp_??1ioHashString@@QAE@XZ
  0003e	83 45 fc 10	 add	 DWORD PTR $T515695[ebp], 16 ; 00000010H
  00042	39 7d fc	 cmp	 DWORD PTR $T515695[ebp], edi
  00045	75 ee		 jne	 SHORT $LL52@erase
$LN36@erase:

; 1211 : 			this->_Mylast = _Ptr;

  00047	5f		 pop	 edi
  00048	89 5e 04	 mov	 DWORD PTR [esi+4], ebx
  0004b	5b		 pop	 ebx
$LN1@erase:

; 1212 : 			}
; 1213 : 		return (_First);

  0004c	8b 45 08	 mov	 eax, DWORD PTR ___$ReturnUdt$[ebp]
  0004f	5e		 pop	 esi

; 1214 : 		}

  00050	c9		 leave
  00051	c2 0c 00	 ret	 12			; 0000000cH
?erase@?$vector@VioHashString@@V?$allocator@VioHashString@@@std@@@std@@QAE?AV?$_Vector_iterator@V?$_Vector_val@VioHashString@@V?$allocator@VioHashString@@@std@@@std@@@2@V?$_Vector_const_iterator@V?$_Vector_val@VioHashString@@V?$allocator@VioHashString@@@std@@@std@@@2@0@Z ENDP ; std::vector<ioHashString,std::allocator<ioHashString> >::erase
_TEXT	ENDS
PUBLIC	?_Tidy@?$vector@VioHashString@@V?$allocator@VioHashString@@@std@@@std@@IAEXXZ ; std::vector<ioHashString,std::allocator<ioHashString> >::_Tidy
; Function compile flags: /Ogsp
;	COMDAT ?_Tidy@?$vector@VioHashString@@V?$allocator@VioHashString@@@std@@@std@@IAEXXZ
_TEXT	SEGMENT
?_Tidy@?$vector@VioHashString@@V?$allocator@VioHashString@@@std@@@std@@IAEXXZ PROC ; std::vector<ioHashString,std::allocator<ioHashString> >::_Tidy, COMDAT
; _this$ = ecx

; 1301 : 		{	// free all storage

  00000	56		 push	 esi
  00001	8b f1		 mov	 esi, ecx

; 1302 : 		if (this->_Myfirst != 0)

  00003	83 3e 00	 cmp	 DWORD PTR [esi], 0
  00006	74 28		 je	 SHORT $LN24@Tidy

; 1303 : 			{	// something to free, destroy and deallocate it
; 1304 : 			this->_Orphan_all();

  00008	53		 push	 ebx
  00009	57		 push	 edi
  0000a	ff 15 00 00 00
	00		 call	 DWORD PTR __imp_?_Orphan_all@_Container_base0@std@@QAEXXZ

; 1305 : 			_Destroy(this->_Myfirst, this->_Mylast);

  00010	8b 5e 04	 mov	 ebx, DWORD PTR [esi+4]
  00013	8b 3e		 mov	 edi, DWORD PTR [esi]
  00015	eb 0b		 jmp	 SHORT $LN28@Tidy
$LL12@Tidy:
  00017	8b cf		 mov	 ecx, edi
  00019	ff 15 00 00 00
	00		 call	 DWORD PTR __imp_??1ioHashString@@QAE@XZ
  0001f	83 c7 10	 add	 edi, 16			; 00000010H
$LN28@Tidy:
  00022	3b fb		 cmp	 edi, ebx
  00024	75 f1		 jne	 SHORT $LL12@Tidy

; 1306 : 			this->_Alval.deallocate(this->_Myfirst,
; 1307 : 				this->_Myend - this->_Myfirst);

  00026	ff 36		 push	 DWORD PTR [esi]
  00028	e8 00 00 00 00	 call	 ??3@YAXPAX@Z		; operator delete
  0002d	59		 pop	 ecx
  0002e	5f		 pop	 edi
  0002f	5b		 pop	 ebx
$LN24@Tidy:

; 1308 : 			}
; 1309 : 		this->_Myfirst = 0;

  00030	33 c0		 xor	 eax, eax
  00032	89 06		 mov	 DWORD PTR [esi], eax

; 1310 : 		this->_Mylast = 0;

  00034	89 46 04	 mov	 DWORD PTR [esi+4], eax

; 1311 : 		this->_Myend = 0;

  00037	89 46 08	 mov	 DWORD PTR [esi+8], eax
  0003a	5e		 pop	 esi

; 1312 : 		}

  0003b	c3		 ret	 0
?_Tidy@?$vector@VioHashString@@V?$allocator@VioHashString@@@std@@@std@@IAEXXZ ENDP ; std::vector<ioHashString,std::allocator<ioHashString> >::_Tidy
_TEXT	ENDS
PUBLIC	?_Reserve@?$vector@VioHashString@@V?$allocator@VioHashString@@@std@@@std@@IAEXI@Z ; std::vector<ioHashString,std::allocator<ioHashString> >::_Reserve
; Function compile flags: /Ogsp
;	COMDAT ?_Reserve@?$vector@VioHashString@@V?$allocator@VioHashString@@@std@@@std@@IAEXI@Z
_TEXT	SEGMENT
__Count$ = 8						; size = 4
?_Reserve@?$vector@VioHashString@@V?$allocator@VioHashString@@@std@@@std@@IAEXI@Z PROC ; std::vector<ioHashString,std::allocator<ioHashString> >::_Reserve, COMDAT
; _this$ = ecx

; 1290 : 		{	// ensure room for _Count new elements, grow exponentially

  00000	55		 push	 ebp
  00001	8b ec		 mov	 ebp, esp
  00003	56		 push	 esi
  00004	8b f1		 mov	 esi, ecx

; 1291 : 		size_type _Size = size();

  00006	8b 0e		 mov	 ecx, DWORD PTR [esi]
  00008	8b 46 04	 mov	 eax, DWORD PTR [esi+4]
  0000b	2b c1		 sub	 eax, ecx

; 1292 : 		if (max_size() - _Count < _Size)

  0000d	ba ff ff ff 0f	 mov	 edx, 268435455		; 0fffffffH
  00012	2b 55 08	 sub	 edx, DWORD PTR __Count$[ebp]
  00015	c1 f8 04	 sar	 eax, 4
  00018	3b d0		 cmp	 edx, eax
  0001a	73 0b		 jae	 SHORT $LN4@Reserve

; 1293 : 			_Xlen();

  0001c	68 00 00 00 00	 push	 OFFSET ??_C@_0BD@OLBABOEK@vector?$DMT?$DO?5too?5long?$AA@
  00021	ff 15 00 00 00
	00		 call	 DWORD PTR __imp_?_Xlength_error@std@@YAXPBD@Z
$LN21@Reserve:
$LN4@Reserve:

; 1294 : 		else if ((_Size += _Count) <= capacity())

  00027	8b 56 08	 mov	 edx, DWORD PTR [esi+8]
  0002a	03 45 08	 add	 eax, DWORD PTR __Count$[ebp]
  0002d	2b d1		 sub	 edx, ecx
  0002f	c1 fa 04	 sar	 edx, 4
  00032	3b c2		 cmp	 eax, edx
  00034	76 10		 jbe	 SHORT $LN1@Reserve

; 1295 : 			;
; 1296 : 		else
; 1297 : 			reserve(_Grow_to(_Size));

  00036	50		 push	 eax
  00037	8b ce		 mov	 ecx, esi
  00039	e8 00 00 00 00	 call	 ?_Grow_to@?$vector@VioHashString@@V?$allocator@VioHashString@@@std@@@std@@IBEII@Z ; std::vector<ioHashString,std::allocator<ioHashString> >::_Grow_to
  0003e	50		 push	 eax
  0003f	8b ce		 mov	 ecx, esi
  00041	e8 00 00 00 00	 call	 ?reserve@?$vector@VioHashString@@V?$allocator@VioHashString@@@std@@@std@@QAEXI@Z ; std::vector<ioHashString,std::allocator<ioHashString> >::reserve
$LN1@Reserve:
  00046	5e		 pop	 esi

; 1298 : 		}

  00047	5d		 pop	 ebp
  00048	c2 04 00	 ret	 4
$LN20@Reserve:
?_Reserve@?$vector@VioHashString@@V?$allocator@VioHashString@@@std@@@std@@IAEXI@Z ENDP ; std::vector<ioHashString,std::allocator<ioHashString> >::_Reserve
_TEXT	ENDS
PUBLIC	??1?$vector@VioHashString@@V?$allocator@VioHashString@@@std@@@std@@QAE@XZ ; std::vector<ioHashString,std::allocator<ioHashString> >::~vector<ioHashString,std::allocator<ioHashString> >
; Function compile flags: /Ogsp
;	COMDAT ??1?$vector@VioHashString@@V?$allocator@VioHashString@@@std@@@std@@QAE@XZ
_TEXT	SEGMENT
??1?$vector@VioHashString@@V?$allocator@VioHashString@@@std@@@std@@QAE@XZ PROC ; std::vector<ioHashString,std::allocator<ioHashString> >::~vector<ioHashString,std::allocator<ioHashString> >, COMDAT
; _this$ = ecx

; 705  : 		_Tidy();

  00000	e9 00 00 00 00	 jmp	 ?_Tidy@?$vector@VioHashString@@V?$allocator@VioHashString@@@std@@@std@@IAEXXZ ; std::vector<ioHashString,std::allocator<ioHashString> >::_Tidy
??1?$vector@VioHashString@@V?$allocator@VioHashString@@@std@@@std@@QAE@XZ ENDP ; std::vector<ioHashString,std::allocator<ioHashString> >::~vector<ioHashString,std::allocator<ioHashString> >
_TEXT	ENDS
PUBLIC	?clear@?$vector@VioHashString@@V?$allocator@VioHashString@@@std@@@std@@QAEXXZ ; std::vector<ioHashString,std::allocator<ioHashString> >::clear
; Function compile flags: /Ogsp
;	COMDAT ?clear@?$vector@VioHashString@@V?$allocator@VioHashString@@@std@@@std@@QAEXXZ
_TEXT	SEGMENT
$T515891 = -4						; size = 4
?clear@?$vector@VioHashString@@V?$allocator@VioHashString@@@std@@@std@@QAEXXZ PROC ; std::vector<ioHashString,std::allocator<ioHashString> >::clear, COMDAT
; _this$ = ecx

; 1217 : 		{	// erase all

  00000	55		 push	 ebp
  00001	8b ec		 mov	 ebp, esp
  00003	51		 push	 ecx

; 1218 : 		erase(begin(), end());

  00004	8b 41 04	 mov	 eax, DWORD PTR [ecx+4]
  00007	8b 11		 mov	 edx, DWORD PTR [ecx]
  00009	50		 push	 eax
  0000a	52		 push	 edx
  0000b	8d 45 fc	 lea	 eax, DWORD PTR $T515891[ebp]
  0000e	50		 push	 eax
  0000f	e8 00 00 00 00	 call	 ?erase@?$vector@VioHashString@@V?$allocator@VioHashString@@@std@@@std@@QAE?AV?$_Vector_iterator@V?$_Vector_val@VioHashString@@V?$allocator@VioHashString@@@std@@@std@@@2@V?$_Vector_const_iterator@V?$_Vector_val@VioHashString@@V?$allocator@VioHashString@@@std@@@std@@@2@0@Z ; std::vector<ioHashString,std::allocator<ioHashString> >::erase

; 1219 : 		}

  00014	c9		 leave
  00015	c3		 ret	 0
?clear@?$vector@VioHashString@@V?$allocator@VioHashString@@@std@@@std@@QAEXXZ ENDP ; std::vector<ioHashString,std::allocator<ioHashString> >::clear
_TEXT	ENDS
PUBLIC	??_7SendPresentFriendListWnd@@6B@		; SendPresentFriendListWnd::`vftable'
PUBLIC	??0SendPresentFriendListWnd@@QAE@XZ		; SendPresentFriendListWnd::SendPresentFriendListWnd
PUBLIC	??_R4SendPresentFriendListWnd@@6B@		; SendPresentFriendListWnd::`RTTI Complete Object Locator'
PUBLIC	??_R3SendPresentFriendListWnd@@8		; SendPresentFriendListWnd::`RTTI Class Hierarchy Descriptor'
PUBLIC	??_R2SendPresentFriendListWnd@@8		; SendPresentFriendListWnd::`RTTI Base Class Array'
PUBLIC	??_R1A@?0A@EA@SendPresentFriendListWnd@@8	; SendPresentFriendListWnd::`RTTI Base Class Descriptor at (0,-1,0,64)'
PUBLIC	?iwm_show@SendPresentFriendListWnd@@UAEXXZ	; SendPresentFriendListWnd::iwm_show
EXTRN	?iwm_command@ioWnd@@UAEXPAV1@HK@Z:PROC		; ioWnd::iwm_command
EXTRN	??_ESendPresentFriendListWnd@@UAEPAXI@Z:PROC	; SendPresentFriendListWnd::`vector deleting destructor'
;	COMDAT ??_R1A@?0A@EA@SendPresentFriendListWnd@@8
; File c:\program files (x86)\microsoft visual studio 10.0\vc\include\xmemory
rdata$r	SEGMENT
??_R1A@?0A@EA@SendPresentFriendListWnd@@8 DD FLAT:??_R0?AVSendPresentFriendListWnd@@@8 ; SendPresentFriendListWnd::`RTTI Base Class Descriptor at (0,-1,0,64)'
	DD	01H
	DD	00H
	DD	0ffffffffH
	DD	00H
	DD	040H
	DD	FLAT:??_R3SendPresentFriendListWnd@@8
rdata$r	ENDS
;	COMDAT ??_R2SendPresentFriendListWnd@@8
rdata$r	SEGMENT
??_R2SendPresentFriendListWnd@@8 DD FLAT:??_R1A@?0A@EA@SendPresentFriendListWnd@@8 ; SendPresentFriendListWnd::`RTTI Base Class Array'
	DD	FLAT:??_R1A@?0A@EA@ioWnd@@8
rdata$r	ENDS
;	COMDAT ??_R3SendPresentFriendListWnd@@8
rdata$r	SEGMENT
??_R3SendPresentFriendListWnd@@8 DD 00H			; SendPresentFriendListWnd::`RTTI Class Hierarchy Descriptor'
	DD	00H
	DD	02H
	DD	FLAT:??_R2SendPresentFriendListWnd@@8
rdata$r	ENDS
;	COMDAT ??_R4SendPresentFriendListWnd@@6B@
rdata$r	SEGMENT
??_R4SendPresentFriendListWnd@@6B@ DD 00H		; SendPresentFriendListWnd::`RTTI Complete Object Locator'
	DD	00H
	DD	00H
	DD	FLAT:??_R0?AVSendPresentFriendListWnd@@@8
	DD	FLAT:??_R3SendPresentFriendListWnd@@8
rdata$r	ENDS
;	COMDAT ??_7SendPresentFriendListWnd@@6B@
CONST	SEGMENT
??_7SendPresentFriendListWnd@@6B@ DD FLAT:??_R4SendPresentFriendListWnd@@6B@ ; SendPresentFriendListWnd::`vftable'
	DD	FLAT:?AddRenderFrame@ioWnd@@UAEXABVioHashString@@PAVioUIRenderFrame@@@Z
	DD	FLAT:?AddRenderImage@SendPresentFriendListWnd@@UAEXABVioHashString@@PAVioUIRenderImage@@@Z
	DD	FLAT:?AddTooltipHelp@ioWnd@@UAEXABVioHashString@@00@Z
	DD	FLAT:?ParseExtraInfo@SendPresentFriendListWnd@@UAEXAAVioXMLElement@@@Z
	DD	FLAT:?AddNamedRenderImage@ioWnd@@UAEXABVioHashString@@PAVioUIRenderImage@@@Z
	DD	FLAT:?RemoveNamedRenderImage@ioWnd@@UAEXABVioHashString@@@Z
	DD	FLAT:?GetNamedRenderImage@ioWnd@@UBEPAVioUIRenderImage@@ABVioHashString@@@Z
	DD	FLAT:?SetWindowAlpha@ioWnd@@UAEXH@Z
	DD	FLAT:?SetActive@ioWnd@@UAEXXZ
	DD	FLAT:?SetInActive@ioWnd@@UAEXXZ
	DD	FLAT:?ClearElementImageList@ioWnd@@UAEXXZ
	DD	FLAT:?SetSize@ioWnd@@UAEXHH@Z
	DD	FLAT:?SetPositionToDefault@ioWnd@@UAEXHH_N0@Z
	DD	FLAT:?IsNeedProcess@ioWnd@@UBE_NXZ
	DD	FLAT:?IsCanMouseReaction@ioWnd@@UBE_NXZ
	DD	FLAT:?AddChild@ioWnd@@UAEXPAV1@@Z
	DD	FLAT:?DeleteChild@ioWnd@@UAEXK@Z
	DD	FLAT:?DeleteAllChild@ioWnd@@UAEXXZ
	DD	FLAT:?OnRenderShowAndHide@ioWnd@@MAE_NXZ
	DD	FLAT:?OnRenderShowAndHideByDefault@ioWnd@@MAE_NK@Z
	DD	FLAT:?OnRenderShowAndHideByTop@ioWnd@@MAE_NK@Z
	DD	FLAT:?OnRenderShowAndHideByDown@ioWnd@@MAE_NK@Z
	DD	FLAT:?OnRender@SendPresentFriendListWnd@@MAEXXZ
	DD	FLAT:?OnRenderAfterChild@ioWnd@@MAEXXZ
	DD	FLAT:?OnProcess@SendPresentFriendListWnd@@MAEXM@Z
	DD	FLAT:?OnMouseProcess@ioWnd@@MAEXABVioMouse@@@Z
	DD	FLAT:?CheckFrameReSize@ioWnd@@MAEXHHHH@Z
	DD	FLAT:?RenderImageList@ioWnd@@MAEXHHW4UIRenderType@@@Z
	DD	FLAT:?iwm_create@ioWnd@@UAEXXZ
	DD	FLAT:?iwm_destroy@ioWnd@@UAEXXZ
	DD	FLAT:?iwm_lbuttondown@ioWnd@@UAEXABVioMouse@@@Z
	DD	FLAT:?iwm_lbuttonup@ioWnd@@UAEXABVioMouse@@@Z
	DD	FLAT:?iwm_lbuttonDBLCLK@ioWnd@@UAEXABVioMouse@@@Z
	DD	FLAT:?iwm_rbuttondown@ioWnd@@UAEXABVioMouse@@@Z
	DD	FLAT:?iwm_rbuttonup@ioWnd@@UAEXABVioMouse@@@Z
	DD	FLAT:?iwm_command@ioWnd@@UAEXPAV1@HK@Z
	DD	FLAT:?iwm_mouseover@ioWnd@@UAEXABVioMouse@@@Z
	DD	FLAT:?iwm_mousemove@ioWnd@@UAEXABVioMouse@@@Z
	DD	FLAT:?iwm_mouseleave@ioWnd@@UAEXABVioMouse@@@Z
	DD	FLAT:?iwm_vscroll@SendPresentFriendListWnd@@UAEXKH@Z
	DD	FLAT:?iwm_wheel@SendPresentFriendListWnd@@UAEXH@Z
	DD	FLAT:?iwm_show@SendPresentFriendListWnd@@UAEXXZ
	DD	FLAT:?iwm_hide@SendPresentFriendListWnd@@UAEXXZ
	DD	FLAT:?iwm_esc@ioWnd@@UAE_NXZ
	DD	FLAT:?iwm_spacebar@ioWnd@@UAE_NXZ
	DD	FLAT:?iwm_gototop@ioWnd@@UAEXXZ
	DD	FLAT:?iwm_dragenter@ioWnd@@UAE?AW4IWDropEffect@@PAVioDragItem@@ABVioMouse@@@Z
	DD	FLAT:?iwm_dragover@ioWnd@@UAE?AW4IWDropEffect@@PAVioDragItem@@ABVioMouse@@@Z
	DD	FLAT:?iwm_dragleave@ioWnd@@UAEXXZ
	DD	FLAT:?iwm_dropitem@ioWnd@@UAE_NPAVioDragItem@@ABVioMouse@@PAV1@@Z
	DD	FLAT:?iwm_dropdone@ioWnd@@UAEXPAVioDragItem@@PAV1@_N@Z
	DD	FLAT:?IsEXType@ioWnd@@UBE_NXZ
	DD	FLAT:?GetWndType@ioWnd@@UBEKXZ
	DD	FLAT:?RenderWnd@ioWnd@@UAEXXZ
	DD	FLAT:?SetIDEX@ioWnd@@UAEXAAK_N@Z
	DD	FLAT:?ParseXML@ioWnd@@UAEXAAVioXMLElement@@@Z
	DD	FLAT:?GetHeaderFileName@ioWnd@@UAEPBDXZ
	DD	FLAT:?GetTemplateName@ioWnd@@UAEPBDXZ
	DD	FLAT:?GetDefClassName@ioWnd@@UBEPBDXZ
	DD	FLAT:?_Clone@ioWnd@@UAEPAV1@XZ
	DD	FLAT:?Copy@ioWnd@@UAEXPAV1@@Z
	DD	FLAT:?Save@ioWnd@@UAE_NAAVioXMLElement@@@Z
	DD	FLAT:?SetSaveData@ioWnd@@UAEXAAVioXMLElement@@@Z
	DD	FLAT:?SetPosX@ioWnd@@UAEXH@Z
	DD	FLAT:?SetPosY@ioWnd@@UAEXH@Z
	DD	FLAT:?SetWidth@ioWnd@@UAEXH@Z
	DD	FLAT:?SetHeight@ioWnd@@UAEXH@Z
	DD	FLAT:?GetNumFixedRenderFrame@ioWnd@@UBEHXZ
	DD	FLAT:?GetFixedRenderFrameType@ioWnd@@UAEPBDH@Z
	DD	FLAT:?GetRenderFrame@ioWnd@@UAEPAPAVioUIRenderElement@@PBD@Z
	DD	FLAT:?GetNumFixedRenderImage@ioWnd@@UBEHXZ
	DD	FLAT:?GetFixedRenderImageType@ioWnd@@UAEPBDH@Z
	DD	FLAT:?GetRenderImage@ioWnd@@UAEPAPAVioUIRenderElement@@PBD@Z
	DD	FLAT:?AddEffect@ioWnd@@UAEXABVioHashString@@PAVioUI3DEffectRender@@@Z
	DD	FLAT:?GetEffect@ioWnd@@UAEPAVioUI3DEffectRender@@VioHashString@@@Z
	DD	FLAT:??_ESendPresentFriendListWnd@@UAEPAXI@Z
CONST	ENDS
;	COMDAT xdata$x
xdata$x	SEGMENT
__unwindtable$??0SendPresentFriendListWnd@@QAE@XZ DD 0ffffffffH
	DD	FLAT:__unwindfunclet$??0SendPresentFriendListWnd@@QAE@XZ$0
	DD	00H
	DD	FLAT:__unwindfunclet$??0SendPresentFriendListWnd@@QAE@XZ$1
	DD	01H
	DD	FLAT:__unwindfunclet$??0SendPresentFriendListWnd@@QAE@XZ$2
__ehfuncinfo$??0SendPresentFriendListWnd@@QAE@XZ DD 019930522H
	DD	03H
	DD	FLAT:__unwindtable$??0SendPresentFriendListWnd@@QAE@XZ
	DD	2 DUP(00H)
	DD	2 DUP(00H)
	DD	00H
	DD	01H
; Function compile flags: /Ogsp
; File d:\lost saga for developer\youtube\tutorial\source\src\lsclient\gui\sendpresentwnd.cpp
xdata$x	ENDS
;	COMDAT ??0SendPresentFriendListWnd@@QAE@XZ
_TEXT	SEGMENT
_this$ = -16						; size = 4
__$EHRec$ = -12						; size = 12
??0SendPresentFriendListWnd@@QAE@XZ PROC		; SendPresentFriendListWnd::SendPresentFriendListWnd, COMDAT
; _this$ = ecx

; 200  : {

  00000	6a 04		 push	 4
  00002	b8 00 00 00 00	 mov	 eax, __ehhandler$??0SendPresentFriendListWnd@@QAE@XZ
  00007	e8 00 00 00 00	 call	 __EH_prolog3
  0000c	8b f1		 mov	 esi, ecx
  0000e	89 75 f0	 mov	 DWORD PTR _this$[ebp], esi
  00011	ff 15 00 00 00
	00		 call	 DWORD PTR __imp_??0ioWnd@@QAE@XZ
  00017	33 ff		 xor	 edi, edi
  00019	c7 06 00 00 00
	00		 mov	 DWORD PTR [esi], OFFSET ??_7SendPresentFriendListWnd@@6B@
  0001f	89 7d fc	 mov	 DWORD PTR __$EHRec$[ebp+8], edi
  00022	89 be 8c 01 00
	00		 mov	 DWORD PTR [esi+396], edi
  00028	89 be 90 01 00
	00		 mov	 DWORD PTR [esi+400], edi
  0002e	89 be 94 01 00
	00		 mov	 DWORD PTR [esi+404], edi
  00034	8b 1d 00 00 00
	00		 mov	 ebx, DWORD PTR __imp_??0ioHashString@@QAE@XZ
  0003a	8d 8e 9c 01 00
	00		 lea	 ecx, DWORD PTR [esi+412]
  00040	c6 45 fc 01	 mov	 BYTE PTR __$EHRec$[ebp+8], 1
  00044	ff d3		 call	 ebx
  00046	8d 8e ac 01 00
	00		 lea	 ecx, DWORD PTR [esi+428]
  0004c	c6 45 fc 02	 mov	 BYTE PTR __$EHRec$[ebp+8], 2
  00050	ff d3		 call	 ebx

; 201  : 	m_pDarkLine	= NULL;

  00052	89 be 60 01 00
	00		 mov	 DWORD PTR [esi+352], edi

; 202  : 	m_pLightLine= NULL;

  00058	89 be 64 01 00
	00		 mov	 DWORD PTR [esi+356], edi

; 203  : 	m_pOverLine	= NULL;

  0005e	89 be 68 01 00
	00		 mov	 DWORD PTR [esi+360], edi

; 204  : 
; 205  : 	m_iAddWidth	= 0;

  00064	89 be 6c 01 00
	00		 mov	 DWORD PTR [esi+364], edi

; 206  : 	m_iAddHeight= 0;

  0006a	89 be 70 01 00
	00		 mov	 DWORD PTR [esi+368], edi

; 207  : 	m_iListXPos = 0;

  00070	89 be 74 01 00
	00		 mov	 DWORD PTR [esi+372], edi

; 208  : 	m_iListYPos = 0;

  00076	89 be 78 01 00
	00		 mov	 DWORD PTR [esi+376], edi

; 209  : 	m_iStartXPos= 0;

  0007c	89 be 84 01 00
	00		 mov	 DWORD PTR [esi+388], edi

; 210  : 	m_iStartYPos= 0;

  00082	89 be 88 01 00
	00		 mov	 DWORD PTR [esi+392], edi

; 211  : 	m_iHeightGap= 0;

  00088	89 be 7c 01 00
	00		 mov	 DWORD PTR [esi+380], edi

; 212  : 	m_iCutWidth = 0;

  0008e	89 be 80 01 00
	00		 mov	 DWORD PTR [esi+384], edi

; 213  : 	m_iCurPos   = 0;

  00094	89 be bc 01 00
	00		 mov	 DWORD PTR [esi+444], edi

; 214  : }

  0009a	8b c6		 mov	 eax, esi
  0009c	e8 00 00 00 00	 call	 __EH_epilog3
  000a1	c3		 ret	 0
_TEXT	ENDS
;	COMDAT text$x
text$x	SEGMENT
__unwindfunclet$??0SendPresentFriendListWnd@@QAE@XZ$0:
  00000	8b 4d f0	 mov	 ecx, DWORD PTR _this$[ebp]
  00003	ff 25 00 00 00
	00		 jmp	 DWORD PTR __imp_??1ioWnd@@UAE@XZ
__unwindfunclet$??0SendPresentFriendListWnd@@QAE@XZ$1:
  00009	8b 4d f0	 mov	 ecx, DWORD PTR _this$[ebp]
  0000c	81 c1 8c 01 00
	00		 add	 ecx, 396		; 0000018cH
  00012	e9 00 00 00 00	 jmp	 ??1?$vector@VioHashString@@V?$allocator@VioHashString@@@std@@@std@@QAE@XZ ; std::vector<ioHashString,std::allocator<ioHashString> >::~vector<ioHashString,std::allocator<ioHashString> >
__unwindfunclet$??0SendPresentFriendListWnd@@QAE@XZ$2:
  00017	8b 4d f0	 mov	 ecx, DWORD PTR _this$[ebp]
  0001a	81 c1 9c 01 00
	00		 add	 ecx, 412		; 0000019cH
  00020	ff 25 00 00 00
	00		 jmp	 DWORD PTR __imp_??1ioHashString@@QAE@XZ
__ehhandler$??0SendPresentFriendListWnd@@QAE@XZ:
  00026	8b 54 24 08	 mov	 edx, DWORD PTR [esp+8]
  0002a	8d 42 0c	 lea	 eax, DWORD PTR [edx+12]
  0002d	8b 4a ec	 mov	 ecx, DWORD PTR [edx-20]
  00030	33 c8		 xor	 ecx, eax
  00032	e8 00 00 00 00	 call	 @__security_check_cookie@4
  00037	b8 00 00 00 00	 mov	 eax, OFFSET __ehfuncinfo$??0SendPresentFriendListWnd@@QAE@XZ
  0003c	e9 00 00 00 00	 jmp	 ___CxxFrameHandler3
text$x	ENDS
??0SendPresentFriendListWnd@@QAE@XZ ENDP		; SendPresentFriendListWnd::SendPresentFriendListWnd
PUBLIC	??1SendPresentFriendListWnd@@UAE@XZ		; SendPresentFriendListWnd::~SendPresentFriendListWnd
;	COMDAT xdata$x
; File c:\program files (x86)\microsoft visual studio 10.0\vc\include\vector
xdata$x	SEGMENT
__unwindtable$??1SendPresentFriendListWnd@@UAE@XZ DD 0ffffffffH
	DD	FLAT:__unwindfunclet$??1SendPresentFriendListWnd@@UAE@XZ$0
	DD	00H
	DD	FLAT:__unwindfunclet$??1SendPresentFriendListWnd@@UAE@XZ$1
	DD	01H
	DD	FLAT:__unwindfunclet$??1SendPresentFriendListWnd@@UAE@XZ$2
	DD	02H
	DD	FLAT:__unwindfunclet$??1SendPresentFriendListWnd@@UAE@XZ$3
__ehfuncinfo$??1SendPresentFriendListWnd@@UAE@XZ DD 019930522H
	DD	04H
	DD	FLAT:__unwindtable$??1SendPresentFriendListWnd@@UAE@XZ
	DD	2 DUP(00H)
	DD	2 DUP(00H)
	DD	00H
	DD	01H
; Function compile flags: /Ogsp
; File d:\lost saga for developer\youtube\tutorial\source\src\lsclient\gui\sendpresentwnd.cpp
xdata$x	ENDS
;	COMDAT ??1SendPresentFriendListWnd@@UAE@XZ
_TEXT	SEGMENT
_this$ = -16						; size = 4
__$EHRec$ = -12						; size = 12
??1SendPresentFriendListWnd@@UAE@XZ PROC		; SendPresentFriendListWnd::~SendPresentFriendListWnd, COMDAT
; _this$ = ecx

; 217  : {

  00000	6a 04		 push	 4
  00002	b8 00 00 00 00	 mov	 eax, __ehhandler$??1SendPresentFriendListWnd@@UAE@XZ
  00007	e8 00 00 00 00	 call	 __EH_prolog3
  0000c	8b f1		 mov	 esi, ecx
  0000e	89 75 f0	 mov	 DWORD PTR _this$[ebp], esi
  00011	c7 06 00 00 00
	00		 mov	 DWORD PTR [esi], OFFSET ??_7SendPresentFriendListWnd@@6B@

; 218  : 	SAFEDELETE( m_pDarkLine	);

  00017	8b 8e 60 01 00
	00		 mov	 ecx, DWORD PTR [esi+352]
  0001d	c7 45 fc 03 00
	00 00		 mov	 DWORD PTR __$EHRec$[ebp+8], 3
  00024	85 c9		 test	 ecx, ecx
  00026	74 0e		 je	 SHORT $LN3@SendPresen@2
  00028	8b 01		 mov	 eax, DWORD PTR [ecx]
  0002a	6a 01		 push	 1
  0002c	ff 50 40	 call	 DWORD PTR [eax+64]
  0002f	83 a6 60 01 00
	00 00		 and	 DWORD PTR [esi+352], 0
$LN3@SendPresen@2:

; 219  : 	SAFEDELETE( m_pLightLine );

  00036	8b 8e 64 01 00
	00		 mov	 ecx, DWORD PTR [esi+356]
  0003c	85 c9		 test	 ecx, ecx
  0003e	74 0e		 je	 SHORT $LN2@SendPresen@2
  00040	8b 01		 mov	 eax, DWORD PTR [ecx]
  00042	6a 01		 push	 1
  00044	ff 50 40	 call	 DWORD PTR [eax+64]
  00047	83 a6 64 01 00
	00 00		 and	 DWORD PTR [esi+356], 0
$LN2@SendPresen@2:

; 220  : 	SAFEDELETE( m_pOverLine	);

  0004e	8b 8e 68 01 00
	00		 mov	 ecx, DWORD PTR [esi+360]
  00054	85 c9		 test	 ecx, ecx
  00056	74 0e		 je	 SHORT $LN1@SendPresen@2
  00058	8b 01		 mov	 eax, DWORD PTR [ecx]
  0005a	6a 01		 push	 1
  0005c	ff 50 40	 call	 DWORD PTR [eax+64]
  0005f	83 a6 68 01 00
	00 00		 and	 DWORD PTR [esi+360], 0
$LN1@SendPresen@2:

; 221  : }

  00066	8b 3d 00 00 00
	00		 mov	 edi, DWORD PTR __imp_??1ioHashString@@QAE@XZ
  0006c	8d 8e ac 01 00
	00		 lea	 ecx, DWORD PTR [esi+428]
  00072	c6 45 fc 02	 mov	 BYTE PTR __$EHRec$[ebp+8], 2
  00076	ff d7		 call	 edi
  00078	8d 8e 9c 01 00
	00		 lea	 ecx, DWORD PTR [esi+412]
  0007e	c6 45 fc 01	 mov	 BYTE PTR __$EHRec$[ebp+8], 1
  00082	ff d7		 call	 edi
  00084	8d 8e 8c 01 00
	00		 lea	 ecx, DWORD PTR [esi+396]
  0008a	c6 45 fc 00	 mov	 BYTE PTR __$EHRec$[ebp+8], 0
  0008e	e8 00 00 00 00	 call	 ?_Tidy@?$vector@VioHashString@@V?$allocator@VioHashString@@@std@@@std@@IAEXXZ ; std::vector<ioHashString,std::allocator<ioHashString> >::_Tidy
  00093	83 4d fc ff	 or	 DWORD PTR __$EHRec$[ebp+8], -1
  00097	8b ce		 mov	 ecx, esi
  00099	ff 15 00 00 00
	00		 call	 DWORD PTR __imp_??1ioWnd@@UAE@XZ
  0009f	e8 00 00 00 00	 call	 __EH_epilog3
  000a4	c3		 ret	 0
_TEXT	ENDS
;	COMDAT text$x
text$x	SEGMENT
__unwindfunclet$??1SendPresentFriendListWnd@@UAE@XZ$0:
  00000	8b 4d f0	 mov	 ecx, DWORD PTR _this$[ebp]
  00003	ff 25 00 00 00
	00		 jmp	 DWORD PTR __imp_??1ioWnd@@UAE@XZ
__unwindfunclet$??1SendPresentFriendListWnd@@UAE@XZ$1:
  00009	8b 4d f0	 mov	 ecx, DWORD PTR _this$[ebp]
  0000c	81 c1 8c 01 00
	00		 add	 ecx, 396		; 0000018cH
  00012	e9 00 00 00 00	 jmp	 ??1?$vector@VioHashString@@V?$allocator@VioHashString@@@std@@@std@@QAE@XZ ; std::vector<ioHashString,std::allocator<ioHashString> >::~vector<ioHashString,std::allocator<ioHashString> >
__unwindfunclet$??1SendPresentFriendListWnd@@UAE@XZ$2:
  00017	8b 4d f0	 mov	 ecx, DWORD PTR _this$[ebp]
  0001a	81 c1 9c 01 00
	00		 add	 ecx, 412		; 0000019cH
  00020	ff 25 00 00 00
	00		 jmp	 DWORD PTR __imp_??1ioHashString@@QAE@XZ
__unwindfunclet$??1SendPresentFriendListWnd@@UAE@XZ$3:
  00026	8b 4d f0	 mov	 ecx, DWORD PTR _this$[ebp]
  00029	81 c1 ac 01 00
	00		 add	 ecx, 428		; 000001acH
  0002f	ff 25 00 00 00
	00		 jmp	 DWORD PTR __imp_??1ioHashString@@QAE@XZ
__ehhandler$??1SendPresentFriendListWnd@@UAE@XZ:
  00035	8b 54 24 08	 mov	 edx, DWORD PTR [esp+8]
  00039	8d 42 0c	 lea	 eax, DWORD PTR [edx+12]
  0003c	8b 4a ec	 mov	 ecx, DWORD PTR [edx-20]
  0003f	33 c8		 xor	 ecx, eax
  00041	e8 00 00 00 00	 call	 @__security_check_cookie@4
  00046	b8 00 00 00 00	 mov	 eax, OFFSET __ehfuncinfo$??1SendPresentFriendListWnd@@UAE@XZ
  0004b	e9 00 00 00 00	 jmp	 ___CxxFrameHandler3
text$x	ENDS
??1SendPresentFriendListWnd@@UAE@XZ ENDP		; SendPresentFriendListWnd::~SendPresentFriendListWnd
PUBLIC	?push_back@?$vector@VioHashString@@V?$allocator@VioHashString@@@std@@@std@@QAEXABVioHashString@@@Z ; std::vector<ioHashString,std::allocator<ioHashString> >::push_back
; Function compile flags: /Ogsp
; File c:\program files (x86)\microsoft visual studio 10.0\vc\include\vector
;	COMDAT ?push_back@?$vector@VioHashString@@V?$allocator@VioHashString@@@std@@@std@@QAEXABVioHashString@@@Z
_TEXT	SEGMENT
__Val$ = 8						; size = 4
?push_back@?$vector@VioHashString@@V?$allocator@VioHashString@@@std@@@std@@QAEXABVioHashString@@@Z PROC ; std::vector<ioHashString,std::allocator<ioHashString> >::push_back, COMDAT
; _this$ = ecx

; 976  : 		{	// insert element at end

  00000	55		 push	 ebp
  00001	8b ec		 mov	 ebp, esp
  00003	56		 push	 esi
  00004	8b f1		 mov	 esi, ecx

; 977  : 		if (_Inside(_STD addressof(_Val)))

  00006	8b 46 04	 mov	 eax, DWORD PTR [esi+4]
  00009	57		 push	 edi
  0000a	8b 7d 08	 mov	 edi, DWORD PTR __Val$[ebp]
  0000d	3b f8		 cmp	 edi, eax
  0000f	73 29		 jae	 SHORT $LN4@push_back
  00011	8b 0e		 mov	 ecx, DWORD PTR [esi]
  00013	3b cf		 cmp	 ecx, edi
  00015	77 23		 ja	 SHORT $LN4@push_back

; 978  : 			{	// push back an element
; 979  : 			size_type _Idx = _STD addressof(_Val) - this->_Myfirst;

  00017	2b f9		 sub	 edi, ecx

; 980  : 			if (this->_Mylast == this->_Myend)

  00019	3b 46 08	 cmp	 eax, DWORD PTR [esi+8]
  0001c	75 09		 jne	 SHORT $LN3@push_back

; 981  : 				_Reserve(1);

  0001e	6a 01		 push	 1
  00020	8b ce		 mov	 ecx, esi
  00022	e8 00 00 00 00	 call	 ?_Reserve@?$vector@VioHashString@@V?$allocator@VioHashString@@@std@@@std@@IAEXI@Z ; std::vector<ioHashString,std::allocator<ioHashString> >::_Reserve
$LN3@push_back:

; 982  : 			_Orphan_range(this->_Mylast, this->_Mylast);
; 983  : 			_Cons_val(this->_Alval,
; 984  : 				this->_Mylast,
; 985  : 				this->_Myfirst[_Idx]);

  00027	83 e7 f0	 and	 edi, -16		; fffffff0H
  0002a	03 3e		 add	 edi, DWORD PTR [esi]
  0002c	8d 4e 0c	 lea	 ecx, DWORD PTR [esi+12]
  0002f	57		 push	 edi
  00030	ff 76 04	 push	 DWORD PTR [esi+4]
  00033	e8 00 00 00 00	 call	 ??$construct@AAVioHashString@@@?$allocator@VioHashString@@@std@@QAEXPAVioHashString@@AAV2@@Z ; std::allocator<ioHashString>::construct<ioHashString &>

; 986  : 			++this->_Mylast;
; 987  : 			}
; 988  : 		else

  00038	eb 19		 jmp	 SHORT $LN30@push_back
$LN4@push_back:

; 989  : 			{	// push back a non-element
; 990  : 			if (this->_Mylast == this->_Myend)

  0003a	3b 46 08	 cmp	 eax, DWORD PTR [esi+8]
  0003d	75 09		 jne	 SHORT $LN1@push_back

; 991  : 				_Reserve(1);

  0003f	6a 01		 push	 1
  00041	8b ce		 mov	 ecx, esi
  00043	e8 00 00 00 00	 call	 ?_Reserve@?$vector@VioHashString@@V?$allocator@VioHashString@@@std@@@std@@IAEXI@Z ; std::vector<ioHashString,std::allocator<ioHashString> >::_Reserve
$LN1@push_back:

; 992  : 			_Orphan_range(this->_Mylast, this->_Mylast);
; 993  : 			_Cons_val(this->_Alval,
; 994  : 				this->_Mylast,
; 995  : 				_Val);

  00048	57		 push	 edi
  00049	ff 76 04	 push	 DWORD PTR [esi+4]
  0004c	e8 00 00 00 00	 call	 ??$_Construct@VioHashString@@ABV1@@std@@YAXPAVioHashString@@ABV1@@Z ; std::_Construct<ioHashString,ioHashString const &>
  00051	59		 pop	 ecx
  00052	59		 pop	 ecx
$LN30@push_back:

; 996  : 			++this->_Mylast;

  00053	83 46 04 10	 add	 DWORD PTR [esi+4], 16	; 00000010H
  00057	5f		 pop	 edi
  00058	5e		 pop	 esi

; 997  : 			}
; 998  : 		}

  00059	5d		 pop	 ebp
  0005a	c2 04 00	 ret	 4
?push_back@?$vector@VioHashString@@V?$allocator@VioHashString@@@std@@@std@@QAEXABVioHashString@@@Z ENDP ; std::vector<ioHashString,std::allocator<ioHashString> >::push_back
; Function compile flags: /Ogsp
_TEXT	ENDS
;	COMDAT ??_GSendPresentFriendListWnd@@UAEPAXI@Z
_TEXT	SEGMENT
___flags$ = 8						; size = 4
??_GSendPresentFriendListWnd@@UAEPAXI@Z PROC		; SendPresentFriendListWnd::`scalar deleting destructor', COMDAT
; _this$ = ecx
  00000	55		 push	 ebp
  00001	8b ec		 mov	 ebp, esp
  00003	56		 push	 esi
  00004	8b f1		 mov	 esi, ecx
  00006	e8 00 00 00 00	 call	 ??1SendPresentFriendListWnd@@UAE@XZ ; SendPresentFriendListWnd::~SendPresentFriendListWnd
  0000b	f6 45 08 01	 test	 BYTE PTR ___flags$[ebp], 1
  0000f	74 07		 je	 SHORT $LN1@scalar@5
  00011	56		 push	 esi
  00012	e8 00 00 00 00	 call	 ??3@YAXPAX@Z		; operator delete
  00017	59		 pop	 ecx
$LN1@scalar@5:
  00018	8b c6		 mov	 eax, esi
  0001a	5e		 pop	 esi
  0001b	5d		 pop	 ebp
  0001c	c2 04 00	 ret	 4
??_GSendPresentFriendListWnd@@UAEPAXI@Z ENDP		; SendPresentFriendListWnd::`scalar deleting destructor'
_TEXT	ENDS
PUBLIC	??_C@_0CD@LBILCEGO@SendPresentFriendListWnd?3?3iwm_sh@ ; `string'
EXTRN	__imp_?HideChildWnd@ioWnd@@QAEXK_N@Z:PROC
EXTRN	?GetNode@ioFriendManager@@QAEPAVFriendNode@@H@Z:PROC ; ioFriendManager::GetNode
EXTRN	?GetSingleton@ioFriendManager@@SAAAV1@XZ:PROC	; ioFriendManager::GetSingleton
;	COMDAT ??_C@_0CD@LBILCEGO@SendPresentFriendListWnd?3?3iwm_sh@
CONST	SEGMENT
??_C@_0CD@LBILCEGO@SendPresentFriendListWnd?3?3iwm_sh@ DB 'SendPresentFri'
	DB	'endListWnd::iwm_show', 00H			; `string'
; Function compile flags: /Ogsp
; File d:\lost saga for developer\youtube\tutorial\source\src\lsclient\gui\sendpresentwnd.cpp
CONST	ENDS
;	COMDAT ?iwm_show@SendPresentFriendListWnd@@UAEXXZ
_TEXT	SEGMENT
$T516134 = -4						; size = 4
?iwm_show@SendPresentFriendListWnd@@UAEXXZ PROC		; SendPresentFriendListWnd::iwm_show, COMDAT
; _this$ = ecx

; 257  : {

  00000	55		 push	 ebp
  00001	8b ec		 mov	 ebp, esp
  00003	51		 push	 ecx
  00004	53		 push	 ebx
  00005	56		 push	 esi

; 258  : 	m_szOverListUser.Clear();

  00006	8b 35 00 00 00
	00		 mov	 esi, DWORD PTR __imp_?Clear@ioHashString@@QAEXXZ
  0000c	57		 push	 edi
  0000d	8b f9		 mov	 edi, ecx
  0000f	8d 8f 9c 01 00
	00		 lea	 ecx, DWORD PTR [edi+412]
  00015	ff d6		 call	 esi

; 259  : 	m_szPushListUser.Clear();

  00017	8d 8f ac 01 00
	00		 lea	 ecx, DWORD PTR [edi+428]
  0001d	ff d6		 call	 esi

; 260  : 	m_FriendUserList.clear();

  0001f	8b 87 90 01 00
	00		 mov	 eax, DWORD PTR [edi+400]
  00025	8b 8f 8c 01 00
	00		 mov	 ecx, DWORD PTR [edi+396]
  0002b	50		 push	 eax
  0002c	51		 push	 ecx
  0002d	8d 45 fc	 lea	 eax, DWORD PTR $T516134[ebp]
  00030	50		 push	 eax
  00031	8d 8f 8c 01 00
	00		 lea	 ecx, DWORD PTR [edi+396]
  00037	e8 00 00 00 00	 call	 ?erase@?$vector@VioHashString@@V?$allocator@VioHashString@@@std@@@std@@QAE?AV?$_Vector_iterator@V?$_Vector_val@VioHashString@@V?$allocator@VioHashString@@@std@@@std@@@2@V?$_Vector_const_iterator@V?$_Vector_val@VioHashString@@V?$allocator@VioHashString@@@std@@@std@@@2@0@Z ; std::vector<ioHashString,std::allocator<ioHashString> >::erase

; 261  : 	for(int i = 0;i < g_FriendManager.GetNodeSize();i++)

  0003c	33 db		 xor	 ebx, ebx
  0003e	e8 00 00 00 00	 call	 ?GetSingleton@ioFriendManager@@SAAAV1@XZ ; ioFriendManager::GetSingleton
  00043	8b 48 08	 mov	 ecx, DWORD PTR [eax+8]
  00046	2b 48 04	 sub	 ecx, DWORD PTR [eax+4]
  00049	f7 c1 fc ff ff
	ff		 test	 ecx, -4			; fffffffcH
  0004f	7e 33		 jle	 SHORT $LN6@iwm_show@2
$LL8@iwm_show@2:

; 262  : 	{
; 263  : 		FriendNode *pNode = g_FriendManager.GetNode( i );

  00051	53		 push	 ebx
  00052	e8 00 00 00 00	 call	 ?GetSingleton@ioFriendManager@@SAAAV1@XZ ; ioFriendManager::GetSingleton
  00057	8b c8		 mov	 ecx, eax
  00059	e8 00 00 00 00	 call	 ?GetNode@ioFriendManager@@QAEPAVFriendNode@@H@Z ; ioFriendManager::GetNode

; 264  : 		if( !pNode ) continue;

  0005e	85 c0		 test	 eax, eax
  00060	74 0f		 je	 SHORT $LN7@iwm_show@2

; 265  : 
; 266  : 		m_FriendUserList.push_back( pNode->GetName() );

  00062	83 c0 0c	 add	 eax, 12			; 0000000cH
  00065	50		 push	 eax
  00066	8d 8f 8c 01 00
	00		 lea	 ecx, DWORD PTR [edi+396]
  0006c	e8 00 00 00 00	 call	 ?push_back@?$vector@VioHashString@@V?$allocator@VioHashString@@@std@@@std@@QAEXABVioHashString@@@Z ; std::vector<ioHashString,std::allocator<ioHashString> >::push_back
$LN7@iwm_show@2:

; 261  : 	for(int i = 0;i < g_FriendManager.GetNodeSize();i++)

  00071	43		 inc	 ebx
  00072	e8 00 00 00 00	 call	 ?GetSingleton@ioFriendManager@@SAAAV1@XZ ; ioFriendManager::GetSingleton
  00077	8b 48 08	 mov	 ecx, DWORD PTR [eax+8]
  0007a	2b 48 04	 sub	 ecx, DWORD PTR [eax+4]
  0007d	c1 f9 02	 sar	 ecx, 2
  00080	3b d9		 cmp	 ebx, ecx
  00082	7c cd		 jl	 SHORT $LL8@iwm_show@2
$LN6@iwm_show@2:

; 267  : 	}			
; 268  : 
; 269  : 	if( m_FriendUserList.empty() )

  00084	8b 87 8c 01 00
	00		 mov	 eax, DWORD PTR [edi+396]
  0008a	3b 87 90 01 00
	00		 cmp	 eax, DWORD PTR [edi+400]
  00090	75 33		 jne	 SHORT $LN4@iwm_show@2

; 270  : 	{
; 271  : 		g_GUIMgr.SetMsgBox( MB_OK, NULL, STR(1) );

  00092	33 f6		 xor	 esi, esi
  00094	56		 push	 esi
  00095	6a 01		 push	 1
  00097	68 00 00 00 00	 push	 OFFSET ??_C@_00CNPNBAHC@?$AA@
  0009c	68 00 00 00 00	 push	 OFFSET ??_C@_0CD@LBILCEGO@SendPresentFriendListWnd?3?3iwm_sh@
  000a1	ff 15 00 00 00
	00		 call	 DWORD PTR __imp_?GetSingleton@ioStringManager@@SAAAV1@XZ
  000a7	8b c8		 mov	 ecx, eax
  000a9	ff 15 00 00 00
	00		 call	 DWORD PTR __imp_?GetString@ioStringManager@@QAEPADPBD0HW4FileNamePrefix@1@@Z
  000af	50		 push	 eax
  000b0	56		 push	 esi
  000b1	56		 push	 esi
  000b2	e8 00 00 00 00	 call	 ?GetSingleton@ioSP2GUIManager@@SAAAV1@XZ ; ioSP2GUIManager::GetSingleton
  000b7	50		 push	 eax
  000b8	e8 00 00 00 00	 call	 ?SetMsgBox@ioSP2GUIManager@@QAAXHPAVioWnd@@PBDZZ ; ioSP2GUIManager::SetMsgBox
  000bd	83 c4 10	 add	 esp, 16			; 00000010H

; 272  : 		return;

  000c0	e9 b2 00 00 00	 jmp	 $LN9@iwm_show@2
$LN4@iwm_show@2:

; 273  : 	}
; 274  : 
; 275  : 	m_iCurPos = 0;

  000c5	83 a7 bc 01 00
	00 00		 and	 DWORD PTR [edi+444], 0

; 276  : 	if( (int)m_FriendUserList.size() <= MAX_PAGE_LIST )

  000cc	8b 87 90 01 00
	00		 mov	 eax, DWORD PTR [edi+400]
  000d2	2b 87 8c 01 00
	00		 sub	 eax, DWORD PTR [edi+396]

; 277  : 	{
; 278  : 		HideChildWnd( ID_VERT_SCROLL );

  000d8	8b cf		 mov	 ecx, edi
  000da	83 e0 f0	 and	 eax, -16		; fffffff0H
  000dd	83 f8 50	 cmp	 eax, 80			; 00000050H
  000e0	7f 0f		 jg	 SHORT $LN3@iwm_show@2
  000e2	6a 00		 push	 0
  000e4	68 e8 03 00 00	 push	 1000			; 000003e8H
  000e9	ff 15 00 00 00
	00		 call	 DWORD PTR __imp_?HideChildWnd@ioWnd@@QAEXK_N@Z

; 279  : 	}
; 280  : 	else

  000ef	eb 45		 jmp	 SHORT $LN1@iwm_show@2
$LN3@iwm_show@2:

; 281  : 	{
; 282  : 		ioScroll *pScroll = (ioScroll*)FindChildWnd( ID_VERT_SCROLL );

  000f1	68 e8 03 00 00	 push	 1000			; 000003e8H
  000f6	ff 15 00 00 00
	00		 call	 DWORD PTR __imp_?FindChildWnd@ioWnd@@QAEPAV1@K@Z
  000fc	8b d8		 mov	 ebx, eax

; 283  : 		if( pScroll )

  000fe	85 db		 test	 ebx, ebx
  00100	74 34		 je	 SHORT $LN1@iwm_show@2

; 284  : 		{
; 285  : 			pScroll->SetScrollRange( 0, m_FriendUserList.size() );

  00102	8b 8f 90 01 00
	00		 mov	 ecx, DWORD PTR [edi+400]
  00108	2b 8f 8c 01 00
	00		 sub	 ecx, DWORD PTR [edi+396]
  0010e	8b 03		 mov	 eax, DWORD PTR [ebx]
  00110	c1 f9 04	 sar	 ecx, 4
  00113	51		 push	 ecx
  00114	6a 00		 push	 0
  00116	8b cb		 mov	 ecx, ebx
  00118	ff 90 30 01 00
	00		 call	 DWORD PTR [eax+304]

; 286  : 			pScroll->SetScrollPos( m_iCurPos );

  0011e	ff b7 bc 01 00
	00		 push	 DWORD PTR [edi+444]
  00124	8b 03		 mov	 eax, DWORD PTR [ebx]
  00126	8b cb		 mov	 ecx, ebx
  00128	ff 90 38 01 00
	00		 call	 DWORD PTR [eax+312]

; 287  : 			pScroll->ShowWnd();

  0012e	8b cb		 mov	 ecx, ebx
  00130	ff 15 00 00 00
	00		 call	 DWORD PTR __imp_?ShowWnd@ioWnd@@QAEXXZ
$LN1@iwm_show@2:

; 288  : 		}
; 289  : 	}
; 290  : 
; 291  : 	//   	
; 292  : 	SetSize( GetWidth(), ( min( MAX_PAGE_LIST, m_FriendUserList.size() ) * m_iHeightGap) + m_iAddHeight );

  00136	8b 87 90 01 00
	00		 mov	 eax, DWORD PTR [edi+400]
  0013c	2b 87 8c 01 00
	00		 sub	 eax, DWORD PTR [edi+396]
  00142	c1 f8 04	 sar	 eax, 4
  00145	83 f8 05	 cmp	 eax, 5
  00148	76 03		 jbe	 SHORT $LN11@iwm_show@2
  0014a	6a 05		 push	 5
  0014c	58		 pop	 eax
$LN11@iwm_show@2:
  0014d	8b 8f 7c 01 00
	00		 mov	 ecx, DWORD PTR [edi+380]
  00153	8b 37		 mov	 esi, DWORD PTR [edi]
  00155	0f af c8	 imul	 ecx, eax
  00158	03 8f 70 01 00
	00		 add	 ecx, DWORD PTR [edi+368]
  0015e	51		 push	 ecx
  0015f	8b cf		 mov	 ecx, edi
  00161	ff 15 00 00 00
	00		 call	 DWORD PTR __imp_?GetWidth@ioWnd@@QBEHXZ
  00167	50		 push	 eax
  00168	8b cf		 mov	 ecx, edi
  0016a	ff 56 2c	 call	 DWORD PTR [esi+44]

; 293  : 	SetCheckParentOutSide( true );

  0016d	6a 01		 push	 1
  0016f	8b cf		 mov	 ecx, edi
  00171	ff 15 00 00 00
	00		 call	 DWORD PTR __imp_?SetCheckParentOutSide@ioWnd@@QAEX_N@Z
$LN9@iwm_show@2:
  00177	5f		 pop	 edi
  00178	5e		 pop	 esi
  00179	5b		 pop	 ebx

; 294  : }

  0017a	c9		 leave
  0017b	c3		 ret	 0
?iwm_show@SendPresentFriendListWnd@@UAEXXZ ENDP		; SendPresentFriendListWnd::iwm_show
_TEXT	ENDS
END
