; Listing generated by Microsoft (R) Optimizing Compiler Version 16.00.30319.01 

	TITLE	D:\Lost Saga For Developer\Youtube\Tutorial\Source\src\LSClient\GUI\ServiceCharWnd.cpp
	.686P
	.XMM
	include listing.inc
	.model	flat

INCLUDELIB MSVCRT
INCLUDELIB OLDNAMES

PUBLIC	?sg_bWndShow@ServiceCharWnd@@1_NA		; ServiceCharWnd::sg_bWndShow
_BSS	SEGMENT
?sg_bWndShow@ServiceCharWnd@@1_NA DB 01H DUP (?)	; ServiceCharWnd::sg_bWndShow
_BSS	ENDS
PUBLIC	?return1@@YAIXZ					; return1
; Function compile flags: /Ogsp
; File d:\lost saga for developer\youtube\tutorial\source\src\lsclient\stdafx.h
;	COMDAT ?return1@@YAIXZ
_TEXT	SEGMENT
?return1@@YAIXZ PROC					; return1, COMDAT

; 17   : 	__forceinline unsigned int return1() { __asm mov eax, 1 };

  00000	b8 01 00 00 00	 mov	 eax, 1
  00005	c3		 ret	 0
?return1@@YAIXZ ENDP					; return1
_TEXT	ENDS
PUBLIC	?SetServiceChar@ServiceCharWnd@@SAX_NK@Z	; ServiceCharWnd::SetServiceChar
EXTRN	?ConvertSecondTime@DateHelp@@YA_JHHHHHH@Z:PROC	; DateHelp::ConvertSecondTime
EXTRN	?GetLastPCRoomBonusDate@Help@@YAKXZ:PROC	; Help::GetLastPCRoomBonusDate
; Function compile flags: /Ogsp
; File d:\lost saga for developer\youtube\tutorial\source\src\lsclient\gui\servicecharwnd.cpp
;	COMDAT ?SetServiceChar@ServiceCharWnd@@SAX_NK@Z
_TEXT	SEGMENT
tv143 = -12						; size = 4
tv153 = -8						; size = 4
tv140 = -8						; size = 4
tv157 = -4						; size = 4
tv137 = -4						; size = 4
_bShow$ = 8						; size = 1
_dwServerDate$ = 12					; size = 4
?SetServiceChar@ServiceCharWnd@@SAX_NK@Z PROC		; ServiceCharWnd::SetServiceChar, COMDAT

; 52   : {

  00000	55		 push	 ebp
  00001	8b ec		 mov	 ebp, esp
  00003	83 ec 0c	 sub	 esp, 12			; 0000000cH

; 53   : 	if( !bShow ) return;

  00006	80 7d 08 00	 cmp	 BYTE PTR _bShow$[ebp], 0
  0000a	0f 84 e5 00 00
	00		 je	 $LN4@SetService

; 54   : 
; 55   : 	DWORD dwClientDate = Help::GetLastPCRoomBonusDate();

  00010	e8 00 00 00 00	 call	 ?GetLastPCRoomBonusDate@Help@@YAKXZ ; Help::GetLastPCRoomBonusDate
  00015	8b c8		 mov	 ecx, eax

; 56   : 	if( dwClientDate != 0 )

  00017	85 c9		 test	 ecx, ecx
  00019	0f 84 ce 00 00
	00		 je	 $LN1@SetService

; 57   : 	{		
; 58   : 		int iGapSec = DateHelp::ConvertSecondTime( 2000 + ( dwServerDate / 100000000 ), ( dwServerDate % 100000000 ) / 1000000, ( dwServerDate % 1000000 ) / 10000, ( dwServerDate % 10000 ) / 100, dwServerDate % 100, 0 ) - 
; 59   : 					  DateHelp::ConvertSecondTime( 2000 + ( dwClientDate / 100000000 ), ( dwClientDate % 100000000 ) / 1000000, ( dwClientDate % 1000000 ) / 10000, ( dwClientDate % 10000 ) / 100, dwClientDate % 100, 0 );

  0001f	53		 push	 ebx
  00020	56		 push	 esi
  00021	33 d2		 xor	 edx, edx
  00023	bb 00 e1 f5 05	 mov	 ebx, 100000000		; 05f5e100H
  00028	8b f3		 mov	 esi, ebx
  0002a	f7 f6		 div	 esi
  0002c	57		 push	 edi
  0002d	6a 00		 push	 0
  0002f	6a 64		 push	 100			; 00000064H
  00031	5e		 pop	 esi
  00032	bf 10 27 00 00	 mov	 edi, 10000		; 00002710H
  00037	89 45 f8	 mov	 DWORD PTR tv140[ebp], eax
  0003a	89 55 fc	 mov	 DWORD PTR tv137[ebp], edx
  0003d	33 d2		 xor	 edx, edx
  0003f	8b c1		 mov	 eax, ecx
  00041	f7 f6		 div	 esi
  00043	8b c1		 mov	 eax, ecx
  00045	8b f7		 mov	 esi, edi
  00047	52		 push	 edx
  00048	33 d2		 xor	 edx, edx
  0004a	f7 f6		 div	 esi
  0004c	6a 64		 push	 100			; 00000064H
  0004e	5e		 pop	 esi
  0004f	8b c2		 mov	 eax, edx
  00051	33 d2		 xor	 edx, edx
  00053	f7 f6		 div	 esi
  00055	33 d2		 xor	 edx, edx
  00057	be 40 42 0f 00	 mov	 esi, 1000000		; 000f4240H
  0005c	50		 push	 eax
  0005d	8b c1		 mov	 eax, ecx
  0005f	8b ce		 mov	 ecx, esi
  00061	f7 f1		 div	 ecx
  00063	8b cf		 mov	 ecx, edi
  00065	8b c2		 mov	 eax, edx
  00067	33 d2		 xor	 edx, edx
  00069	f7 f1		 div	 ecx
  0006b	33 d2		 xor	 edx, edx
  0006d	8b ce		 mov	 ecx, esi
  0006f	50		 push	 eax
  00070	8b 45 fc	 mov	 eax, DWORD PTR tv137[ebp]
  00073	f7 f1		 div	 ecx
  00075	50		 push	 eax
  00076	8b 45 f8	 mov	 eax, DWORD PTR tv140[ebp]
  00079	05 d0 07 00 00	 add	 eax, 2000		; 000007d0H
  0007e	50		 push	 eax
  0007f	e8 00 00 00 00	 call	 ?ConvertSecondTime@DateHelp@@YA_JHHHHHH@Z ; DateHelp::ConvertSecondTime
  00084	8b 4d 0c	 mov	 ecx, DWORD PTR _dwServerDate$[ebp]
  00087	89 45 f4	 mov	 DWORD PTR tv143[ebp], eax
  0008a	33 d2		 xor	 edx, edx
  0008c	8b c1		 mov	 eax, ecx
  0008e	f7 f3		 div	 ebx
  00090	6a 00		 push	 0
  00092	6a 64		 push	 100			; 00000064H
  00094	5b		 pop	 ebx
  00095	89 55 f8	 mov	 DWORD PTR tv153[ebp], edx
  00098	89 45 fc	 mov	 DWORD PTR tv157[ebp], eax
  0009b	33 d2		 xor	 edx, edx
  0009d	8b c1		 mov	 eax, ecx
  0009f	f7 f3		 div	 ebx
  000a1	8b c1		 mov	 eax, ecx
  000a3	8b df		 mov	 ebx, edi
  000a5	52		 push	 edx
  000a6	33 d2		 xor	 edx, edx
  000a8	f7 f3		 div	 ebx
  000aa	6a 64		 push	 100			; 00000064H
  000ac	5b		 pop	 ebx
  000ad	8b c2		 mov	 eax, edx
  000af	33 d2		 xor	 edx, edx
  000b1	f7 f3		 div	 ebx
  000b3	33 d2		 xor	 edx, edx
  000b5	50		 push	 eax
  000b6	8b c1		 mov	 eax, ecx
  000b8	8b ce		 mov	 ecx, esi
  000ba	f7 f1		 div	 ecx
  000bc	8b c2		 mov	 eax, edx
  000be	33 d2		 xor	 edx, edx
  000c0	f7 f7		 div	 edi
  000c2	33 d2		 xor	 edx, edx
  000c4	50		 push	 eax
  000c5	8b 45 f8	 mov	 eax, DWORD PTR tv153[ebp]
  000c8	f7 f6		 div	 esi
  000ca	50		 push	 eax
  000cb	8b 45 fc	 mov	 eax, DWORD PTR tv157[ebp]
  000ce	05 d0 07 00 00	 add	 eax, 2000		; 000007d0H
  000d3	50		 push	 eax
  000d4	e8 00 00 00 00	 call	 ?ConvertSecondTime@DateHelp@@YA_JHHHHHH@Z ; DateHelp::ConvertSecondTime
  000d9	2b 45 f4	 sub	 eax, DWORD PTR tv143[ebp]
  000dc	83 c4 30	 add	 esp, 48			; 00000030H

; 60   : 
; 61   : 		if( ( iGapSec / 60 ) <= 30 ) // 30분 이내에 두번 이상 못 받음         

  000df	6a 3c		 push	 60			; 0000003cH
  000e1	59		 pop	 ecx
  000e2	99		 cdq
  000e3	f7 f9		 idiv	 ecx
  000e5	5f		 pop	 edi
  000e6	5e		 pop	 esi
  000e7	5b		 pop	 ebx
  000e8	83 f8 1e	 cmp	 eax, 30			; 0000001eH
  000eb	7e 08		 jle	 SHORT $LN4@SetService
$LN1@SetService:

; 62   : 			return;
; 63   : 	}
; 64   : 	sg_bWndShow = bShow;

  000ed	8a 45 08	 mov	 al, BYTE PTR _bShow$[ebp]
  000f0	a2 00 00 00 00	 mov	 BYTE PTR ?sg_bWndShow@ServiceCharWnd@@1_NA, al ; ServiceCharWnd::sg_bWndShow
$LN4@SetService:

; 65   : }

  000f5	c9		 leave
  000f6	c3		 ret	 0
?SetServiceChar@ServiceCharWnd@@SAX_NK@Z ENDP		; ServiceCharWnd::SetServiceChar
_TEXT	ENDS
PUBLIC	??1ioINILoader_e@@QAE@XZ			; ioINILoader_e::~ioINILoader_e
EXTRN	__imp_??1ioINILoader@@QAE@XZ:PROC
; Function compile flags: /Ogsp
;	COMDAT ??1ioINILoader_e@@QAE@XZ
_TEXT	SEGMENT
??1ioINILoader_e@@QAE@XZ PROC				; ioINILoader_e::~ioINILoader_e, COMDAT
; _this$ = ecx
  00000	ff 25 00 00 00
	00		 jmp	 DWORD PTR __imp_??1ioINILoader@@QAE@XZ
??1ioINILoader_e@@QAE@XZ ENDP				; ioINILoader_e::~ioINILoader_e
_TEXT	ENDS
PUBLIC	?iwm_hide@ServiceCharWnd@@UAEXXZ		; ServiceCharWnd::iwm_hide
EXTRN	__imp_?HideChildWnd@ioWnd@@QAEXK_N@Z:PROC
; Function compile flags: /Ogsp
;	COMDAT ?iwm_hide@ServiceCharWnd@@UAEXXZ
_TEXT	SEGMENT
?iwm_hide@ServiceCharWnd@@UAEXXZ PROC			; ServiceCharWnd::iwm_hide, COMDAT
; _this$ = ecx

; 122  : 	HideChildWnd( ID_CHARACTER );

  00000	6a 00		 push	 0
  00002	6a 07		 push	 7
  00004	ff 15 00 00 00
	00		 call	 DWORD PTR __imp_?HideChildWnd@ioWnd@@QAEXK_N@Z

; 123  : }

  0000a	c3		 ret	 0
?iwm_hide@ServiceCharWnd@@UAEXXZ ENDP			; ServiceCharWnd::iwm_hide
_TEXT	ENDS
PUBLIC	?RotateNum@ServiceCharWnd@@IAEHHHH@Z		; ServiceCharWnd::RotateNum
; Function compile flags: /Ogsp
;	COMDAT ?RotateNum@ServiceCharWnd@@IAEHHHH@Z
_TEXT	SEGMENT
_iCurNum$ = 8						; size = 4
_iMinNum$ = 12						; size = 4
_iMaxNum$ = 16						; size = 4
?RotateNum@ServiceCharWnd@@IAEHHHH@Z PROC		; ServiceCharWnd::RotateNum, COMDAT
; _this$ = ecx

; 238  : {

  00000	55		 push	 ebp
  00001	8b ec		 mov	 ebp, esp

; 239  : 	if( iMinNum == iMaxNum )

  00003	8b 4d 10	 mov	 ecx, DWORD PTR _iMaxNum$[ebp]
  00006	39 4d 0c	 cmp	 DWORD PTR _iMinNum$[ebp], ecx
  00009	75 05		 jne	 SHORT $LN4@RotateNum

; 240  : 		return iMinNum;

  0000b	8b 45 0c	 mov	 eax, DWORD PTR _iMinNum$[ebp]
  0000e	eb 15		 jmp	 SHORT $LN5@RotateNum
$LN4@RotateNum:

; 241  : 	if( iCurNum < iMinNum )

  00010	8b 45 08	 mov	 eax, DWORD PTR _iCurNum$[ebp]
  00013	3b 45 0c	 cmp	 eax, DWORD PTR _iMinNum$[ebp]
  00016	7d 04		 jge	 SHORT $LN3@RotateNum

; 242  : 		return iCurNum + iMaxNum;

  00018	03 c1		 add	 eax, ecx
  0001a	eb 09		 jmp	 SHORT $LN5@RotateNum
$LN3@RotateNum:

; 243  : 	else if( iCurNum > iMaxNum )

  0001c	3b c1		 cmp	 eax, ecx
  0001e	7e 05		 jle	 SHORT $LN5@RotateNum

; 244  : 		return iCurNum % iMaxNum;

  00020	99		 cdq
  00021	f7 f9		 idiv	 ecx
  00023	8b c2		 mov	 eax, edx
$LN5@RotateNum:

; 245  : 
; 246  : 	return iCurNum;
; 247  : }

  00025	5d		 pop	 ebp
  00026	c2 0c 00	 ret	 12			; 0000000cH
?RotateNum@ServiceCharWnd@@IAEHHHH@Z ENDP		; ServiceCharWnd::RotateNum
_TEXT	ENDS
PUBLIC	??_7bad_alloc@std@@6B@				; std::bad_alloc::`vftable'
PUBLIC	??0bad_alloc@std@@QAE@PBD@Z			; std::bad_alloc::bad_alloc
PUBLIC	??_R4bad_alloc@std@@6B@				; std::bad_alloc::`RTTI Complete Object Locator'
PUBLIC	??_R0?AVbad_alloc@std@@@8			; std::bad_alloc `RTTI Type Descriptor'
PUBLIC	??_R3bad_alloc@std@@8				; std::bad_alloc::`RTTI Class Hierarchy Descriptor'
PUBLIC	??_R2bad_alloc@std@@8				; std::bad_alloc::`RTTI Base Class Array'
PUBLIC	??_R1A@?0A@EA@bad_alloc@std@@8			; std::bad_alloc::`RTTI Base Class Descriptor at (0,-1,0,64)'
PUBLIC	??_R1A@?0A@EA@exception@std@@8			; std::exception::`RTTI Base Class Descriptor at (0,-1,0,64)'
PUBLIC	??_R0?AVexception@std@@@8			; std::exception `RTTI Type Descriptor'
PUBLIC	??_R3exception@std@@8				; std::exception::`RTTI Class Hierarchy Descriptor'
PUBLIC	??_R2exception@std@@8				; std::exception::`RTTI Base Class Array'
EXTRN	__imp_??0exception@std@@QAE@ABQBD@Z:PROC
EXTRN	??_7type_info@@6B@:QWORD			; type_info::`vftable'
EXTRN	??_Ebad_alloc@std@@UAEPAXI@Z:PROC		; std::bad_alloc::`vector deleting destructor'
EXTRN	?what@exception@std@@UBEPBDXZ:PROC		; std::exception::what
;	COMDAT ??_R2exception@std@@8
; File c:\program files (x86)\microsoft visual studio 10.0\vc\include\exception
rdata$r	SEGMENT
??_R2exception@std@@8 DD FLAT:??_R1A@?0A@EA@exception@std@@8 ; std::exception::`RTTI Base Class Array'
rdata$r	ENDS
;	COMDAT ??_R3exception@std@@8
rdata$r	SEGMENT
??_R3exception@std@@8 DD 00H				; std::exception::`RTTI Class Hierarchy Descriptor'
	DD	00H
	DD	01H
	DD	FLAT:??_R2exception@std@@8
rdata$r	ENDS
;	COMDAT ??_R0?AVexception@std@@@8
_DATA	SEGMENT
??_R0?AVexception@std@@@8 DD FLAT:??_7type_info@@6B@	; std::exception `RTTI Type Descriptor'
	DD	00H
	DB	'.?AVexception@std@@', 00H
_DATA	ENDS
;	COMDAT ??_R1A@?0A@EA@exception@std@@8
rdata$r	SEGMENT
??_R1A@?0A@EA@exception@std@@8 DD FLAT:??_R0?AVexception@std@@@8 ; std::exception::`RTTI Base Class Descriptor at (0,-1,0,64)'
	DD	00H
	DD	00H
	DD	0ffffffffH
	DD	00H
	DD	040H
	DD	FLAT:??_R3exception@std@@8
rdata$r	ENDS
;	COMDAT ??_R1A@?0A@EA@bad_alloc@std@@8
rdata$r	SEGMENT
??_R1A@?0A@EA@bad_alloc@std@@8 DD FLAT:??_R0?AVbad_alloc@std@@@8 ; std::bad_alloc::`RTTI Base Class Descriptor at (0,-1,0,64)'
	DD	01H
	DD	00H
	DD	0ffffffffH
	DD	00H
	DD	040H
	DD	FLAT:??_R3bad_alloc@std@@8
rdata$r	ENDS
;	COMDAT ??_R2bad_alloc@std@@8
rdata$r	SEGMENT
??_R2bad_alloc@std@@8 DD FLAT:??_R1A@?0A@EA@bad_alloc@std@@8 ; std::bad_alloc::`RTTI Base Class Array'
	DD	FLAT:??_R1A@?0A@EA@exception@std@@8
rdata$r	ENDS
;	COMDAT ??_R3bad_alloc@std@@8
rdata$r	SEGMENT
??_R3bad_alloc@std@@8 DD 00H				; std::bad_alloc::`RTTI Class Hierarchy Descriptor'
	DD	00H
	DD	02H
	DD	FLAT:??_R2bad_alloc@std@@8
rdata$r	ENDS
;	COMDAT ??_R0?AVbad_alloc@std@@@8
_DATA	SEGMENT
??_R0?AVbad_alloc@std@@@8 DD FLAT:??_7type_info@@6B@	; std::bad_alloc `RTTI Type Descriptor'
	DD	00H
	DB	'.?AVbad_alloc@std@@', 00H
_DATA	ENDS
;	COMDAT ??_R4bad_alloc@std@@6B@
rdata$r	SEGMENT
??_R4bad_alloc@std@@6B@ DD 00H				; std::bad_alloc::`RTTI Complete Object Locator'
	DD	00H
	DD	00H
	DD	FLAT:??_R0?AVbad_alloc@std@@@8
	DD	FLAT:??_R3bad_alloc@std@@8
rdata$r	ENDS
;	COMDAT ??_7bad_alloc@std@@6B@
CONST	SEGMENT
??_7bad_alloc@std@@6B@ DD FLAT:??_R4bad_alloc@std@@6B@	; std::bad_alloc::`vftable'
	DD	FLAT:??_Ebad_alloc@std@@UAEPAXI@Z
	DD	FLAT:?what@exception@std@@UBEPBDXZ
; Function compile flags: /Ogsp
CONST	ENDS
;	COMDAT ??0bad_alloc@std@@QAE@PBD@Z
_TEXT	SEGMENT
__Message$ = 8						; size = 4
??0bad_alloc@std@@QAE@PBD@Z PROC			; std::bad_alloc::bad_alloc, COMDAT
; _this$ = ecx

; 345  : 		{	// construct from message string

  00000	55		 push	 ebp
  00001	8b ec		 mov	 ebp, esp
  00003	56		 push	 esi
  00004	8d 45 08	 lea	 eax, DWORD PTR __Message$[ebp]
  00007	50		 push	 eax
  00008	8b f1		 mov	 esi, ecx
  0000a	ff 15 00 00 00
	00		 call	 DWORD PTR __imp_??0exception@std@@QAE@ABQBD@Z
  00010	c7 06 00 00 00
	00		 mov	 DWORD PTR [esi], OFFSET ??_7bad_alloc@std@@6B@

; 346  : 		}

  00016	8b c6		 mov	 eax, esi
  00018	5e		 pop	 esi
  00019	5d		 pop	 ebp
  0001a	c2 04 00	 ret	 4
??0bad_alloc@std@@QAE@PBD@Z ENDP			; std::bad_alloc::bad_alloc
_TEXT	ENDS
PUBLIC	??1bad_alloc@std@@UAE@XZ			; std::bad_alloc::~bad_alloc
EXTRN	__imp_??1exception@std@@UAE@XZ:PROC
; Function compile flags: /Ogsp
;	COMDAT ??1bad_alloc@std@@UAE@XZ
_TEXT	SEGMENT
??1bad_alloc@std@@UAE@XZ PROC				; std::bad_alloc::~bad_alloc, COMDAT
; _this$ = ecx

; 354  : 		{	// destroy the object

  00000	c7 01 00 00 00
	00		 mov	 DWORD PTR [ecx], OFFSET ??_7bad_alloc@std@@6B@

; 355  : 		}

  00006	ff 25 00 00 00
	00		 jmp	 DWORD PTR __imp_??1exception@std@@UAE@XZ
??1bad_alloc@std@@UAE@XZ ENDP				; std::bad_alloc::~bad_alloc
_TEXT	ENDS
EXTRN	??3@YAXPAX@Z:PROC				; operator delete
; Function compile flags: /Ogsp
;	COMDAT ??_Gbad_alloc@std@@UAEPAXI@Z
_TEXT	SEGMENT
___flags$ = 8						; size = 4
??_Gbad_alloc@std@@UAEPAXI@Z PROC			; std::bad_alloc::`scalar deleting destructor', COMDAT
; _this$ = ecx
  00000	55		 push	 ebp
  00001	8b ec		 mov	 ebp, esp
  00003	56		 push	 esi
  00004	8b f1		 mov	 esi, ecx
  00006	c7 06 00 00 00
	00		 mov	 DWORD PTR [esi], OFFSET ??_7bad_alloc@std@@6B@
  0000c	ff 15 00 00 00
	00		 call	 DWORD PTR __imp_??1exception@std@@UAE@XZ
  00012	f6 45 08 01	 test	 BYTE PTR ___flags$[ebp], 1
  00016	74 07		 je	 SHORT $LN1@scalar
  00018	56		 push	 esi
  00019	e8 00 00 00 00	 call	 ??3@YAXPAX@Z		; operator delete
  0001e	59		 pop	 ecx
$LN1@scalar:
  0001f	8b c6		 mov	 eax, esi
  00021	5e		 pop	 esi
  00022	5d		 pop	 ebp
  00023	c2 04 00	 ret	 4
??_Gbad_alloc@std@@UAEPAXI@Z ENDP			; std::bad_alloc::`scalar deleting destructor'
_TEXT	ENDS
PUBLIC	?OnProcess@ServiceCharWnd@@MAEXM@Z		; ServiceCharWnd::OnProcess
EXTRN	__imp_?OnProcess@ioWnd@@MAEXM@Z:PROC
EXTRN	__imp_?ShowWnd@ioWnd@@QAEXXZ:PROC
EXTRN	__imp_?IsShow@ioGUIManager@@QAE_NK@Z:PROC
EXTRN	?GetSingleton@ioSP2GUIManager@@SAAAV1@XZ:PROC	; ioSP2GUIManager::GetSingleton
EXTRN	__imp_?IsShow@ioWnd@@QBE_NXZ:PROC
EXTRN	__fltused:DWORD
; Function compile flags: /Ogsp
; File d:\lost saga for developer\youtube\tutorial\source\src\lsclient\gui\servicecharwnd.cpp
;	COMDAT ?OnProcess@ServiceCharWnd@@MAEXM@Z
_TEXT	SEGMENT
_fTimePerSec$ = 8					; size = 4
?OnProcess@ServiceCharWnd@@MAEXM@Z PROC			; ServiceCharWnd::OnProcess, COMDAT
; _this$ = ecx

; 416  : {

  00000	55		 push	 ebp
  00001	8b ec		 mov	 ebp, esp
  00003	56		 push	 esi
  00004	57		 push	 edi
  00005	8b f9		 mov	 edi, ecx

; 417  : 	if( !IsShow() )

  00007	ff 15 00 00 00
	00		 call	 DWORD PTR __imp_?IsShow@ioWnd@@QBE_NXZ
  0000d	84 c0		 test	 al, al
  0000f	75 3c		 jne	 SHORT $LN3@OnProcess

; 418  : 	{
; 419  : 		if( sg_bWndShow )

  00011	38 05 00 00 00
	00		 cmp	 BYTE PTR ?sg_bWndShow@ServiceCharWnd@@1_NA, al ; ServiceCharWnd::sg_bWndShow
  00017	74 47		 je	 SHORT $LN4@OnProcess

; 420  : 		{
; 421  : 			if( !g_GUIMgr.IsShow( TOTAL_RESULT_MAIN_WND ) &&
; 422  : 				!g_GUIMgr.IsShow( BRIEFING_WND ) )

  00019	68 8f 13 00 00	 push	 5007			; 0000138fH
  0001e	e8 00 00 00 00	 call	 ?GetSingleton@ioSP2GUIManager@@SAAAV1@XZ ; ioSP2GUIManager::GetSingleton
  00023	8b 35 00 00 00
	00		 mov	 esi, DWORD PTR __imp_?IsShow@ioGUIManager@@QAE_NK@Z
  00029	8b c8		 mov	 ecx, eax
  0002b	ff d6		 call	 esi
  0002d	84 c0		 test	 al, al
  0002f	75 2f		 jne	 SHORT $LN4@OnProcess
  00031	68 a3 13 00 00	 push	 5027			; 000013a3H
  00036	e8 00 00 00 00	 call	 ?GetSingleton@ioSP2GUIManager@@SAAAV1@XZ ; ioSP2GUIManager::GetSingleton
  0003b	8b c8		 mov	 ecx, eax
  0003d	ff d6		 call	 esi
  0003f	84 c0		 test	 al, al
  00041	75 1d		 jne	 SHORT $LN4@OnProcess

; 423  : 				ShowWnd();

  00043	8b cf		 mov	 ecx, edi
  00045	ff 15 00 00 00
	00		 call	 DWORD PTR __imp_?ShowWnd@ioWnd@@QAEXXZ

; 424  : 		}
; 425  : 		return;

  0004b	eb 13		 jmp	 SHORT $LN4@OnProcess
$LN3@OnProcess:

; 426  : 	}	
; 427  : 
; 428  : 	ioMovingWnd::OnProcess( fTimePerSec );	

  0004d	f3 0f 10 45 08	 movss	 xmm0, DWORD PTR _fTimePerSec$[ebp]
  00052	51		 push	 ecx
  00053	8b cf		 mov	 ecx, edi
  00055	f3 0f 11 04 24	 movss	 DWORD PTR [esp], xmm0
  0005a	ff 15 00 00 00
	00		 call	 DWORD PTR __imp_?OnProcess@ioWnd@@MAEXM@Z
$LN4@OnProcess:
  00060	5f		 pop	 edi
  00061	5e		 pop	 esi

; 429  : }

  00062	5d		 pop	 ebp
  00063	c2 04 00	 ret	 4
?OnProcess@ServiceCharWnd@@MAEXM@Z ENDP			; ServiceCharWnd::OnProcess
_TEXT	ENDS
PUBLIC	??2@YAPAXIPAX@Z					; operator new
; Function compile flags: /Ogsp
; File c:\program files (x86)\microsoft visual studio 10.0\vc\include\new
;	COMDAT ??2@YAPAXIPAX@Z
_TEXT	SEGMENT
___formal$ = 8						; size = 4
__Where$ = 12						; size = 4
??2@YAPAXIPAX@Z PROC					; operator new, COMDAT

; 56   : 	{	// construct array with placement at _Where

  00000	55		 push	 ebp
  00001	8b ec		 mov	 ebp, esp

; 57   : 	return (_Where);

  00003	8b 45 0c	 mov	 eax, DWORD PTR __Where$[ebp]

; 58   : 	}

  00006	5d		 pop	 ebp
  00007	c3		 ret	 0
??2@YAPAXIPAX@Z ENDP					; operator new
_TEXT	ENDS
PUBLIC	??3@YAXPAX0@Z					; operator delete
; Function compile flags: /Ogsp
;	COMDAT ??3@YAXPAX0@Z
_TEXT	SEGMENT
___formal$ = 8						; size = 4
___formal$ = 12						; size = 4
??3@YAXPAX0@Z PROC					; operator delete, COMDAT

; 62   : 	}

  00000	c3		 ret	 0
??3@YAXPAX0@Z ENDP					; operator delete
_TEXT	ENDS
PUBLIC	?empty@?$basic_string@DU?$char_traits@D@std@@V?$allocator@D@2@@std@@QBE_NXZ ; std::basic_string<char,std::char_traits<char>,std::allocator<char> >::empty
; Function compile flags: /Ogsp
; File c:\program files (x86)\microsoft visual studio 10.0\vc\include\xstring
;	COMDAT ?empty@?$basic_string@DU?$char_traits@D@std@@V?$allocator@D@2@@std@@QBE_NXZ
_TEXT	SEGMENT
?empty@?$basic_string@DU?$char_traits@D@std@@V?$allocator@D@2@@std@@QBE_NXZ PROC ; std::basic_string<char,std::char_traits<char>,std::allocator<char> >::empty, COMDAT
; _this$ = ecx

; 1551 : 		return (this->_Mysize == 0);

  00000	33 c0		 xor	 eax, eax
  00002	39 41 10	 cmp	 DWORD PTR [ecx+16], eax
  00005	0f 94 c0	 sete	 al

; 1552 : 		}

  00008	c3		 ret	 0
?empty@?$basic_string@DU?$char_traits@D@std@@V?$allocator@D@2@@std@@QBE_NXZ ENDP ; std::basic_string<char,std::char_traits<char>,std::allocator<char> >::empty
_TEXT	ENDS
PUBLIC	?size@?$vector@V?$basic_string@DU?$char_traits@D@std@@V?$allocator@D@2@@std@@V?$allocator@V?$basic_string@DU?$char_traits@D@std@@V?$allocator@D@2@@std@@@2@@std@@QBEIXZ ; std::vector<std::basic_string<char,std::char_traits<char>,std::allocator<char> >,std::allocator<std::basic_string<char,std::char_traits<char>,std::allocator<char> > > >::size
; Function compile flags: /Ogsp
; File c:\program files (x86)\microsoft visual studio 10.0\vc\include\vector
;	COMDAT ?size@?$vector@V?$basic_string@DU?$char_traits@D@std@@V?$allocator@D@2@@std@@V?$allocator@V?$basic_string@DU?$char_traits@D@std@@V?$allocator@D@2@@std@@@2@@std@@QBEIXZ
_TEXT	SEGMENT
?size@?$vector@V?$basic_string@DU?$char_traits@D@std@@V?$allocator@D@2@@std@@V?$allocator@V?$basic_string@DU?$char_traits@D@std@@V?$allocator@D@2@@std@@@2@@std@@QBEIXZ PROC ; std::vector<std::basic_string<char,std::char_traits<char>,std::allocator<char> >,std::allocator<std::basic_string<char,std::char_traits<char>,std::allocator<char> > > >::size, COMDAT
; _this$ = ecx

; 879  : 		return (this->_Mylast - this->_Myfirst);

  00000	8b 41 04	 mov	 eax, DWORD PTR [ecx+4]
  00003	2b 01		 sub	 eax, DWORD PTR [ecx]
  00005	6a 1c		 push	 28			; 0000001cH
  00007	99		 cdq
  00008	59		 pop	 ecx
  00009	f7 f9		 idiv	 ecx

; 880  : 		}

  0000b	c3		 ret	 0
?size@?$vector@V?$basic_string@DU?$char_traits@D@std@@V?$allocator@D@2@@std@@V?$allocator@V?$basic_string@DU?$char_traits@D@std@@V?$allocator@D@2@@std@@@2@@std@@QBEIXZ ENDP ; std::vector<std::basic_string<char,std::char_traits<char>,std::allocator<char> >,std::allocator<std::basic_string<char,std::char_traits<char>,std::allocator<char> > > >::size
_TEXT	ENDS
PUBLIC	??A?$vector@V?$basic_string@DU?$char_traits@D@std@@V?$allocator@D@2@@std@@V?$allocator@V?$basic_string@DU?$char_traits@D@std@@V?$allocator@D@2@@std@@@2@@std@@QAEAAV?$basic_string@DU?$char_traits@D@std@@V?$allocator@D@2@@1@I@Z ; std::vector<std::basic_string<char,std::char_traits<char>,std::allocator<char> >,std::allocator<std::basic_string<char,std::char_traits<char>,std::allocator<char> > > >::operator[]
; Function compile flags: /Ogsp
;	COMDAT ??A?$vector@V?$basic_string@DU?$char_traits@D@std@@V?$allocator@D@2@@std@@V?$allocator@V?$basic_string@DU?$char_traits@D@std@@V?$allocator@D@2@@std@@@2@@std@@QAEAAV?$basic_string@DU?$char_traits@D@std@@V?$allocator@D@2@@1@I@Z
_TEXT	SEGMENT
__Pos$ = 8						; size = 4
??A?$vector@V?$basic_string@DU?$char_traits@D@std@@V?$allocator@D@2@@std@@V?$allocator@V?$basic_string@DU?$char_traits@D@std@@V?$allocator@D@2@@std@@@2@@std@@QAEAAV?$basic_string@DU?$char_traits@D@std@@V?$allocator@D@2@@1@I@Z PROC ; std::vector<std::basic_string<char,std::char_traits<char>,std::allocator<char> >,std::allocator<std::basic_string<char,std::char_traits<char>,std::allocator<char> > > >::operator[], COMDAT
; _this$ = ecx

; 928  : 		{	// subscript mutable sequence

  00000	55		 push	 ebp
  00001	8b ec		 mov	 ebp, esp

; 929  :  #if _ITERATOR_DEBUG_LEVEL == 2
; 930  : 		if (size() <= _Pos)
; 931  : 			{	// report error
; 932  : 			_DEBUG_ERROR("vector subscript out of range");
; 933  : 			_SCL_SECURE_OUT_OF_RANGE;
; 934  : 			}
; 935  : 
; 936  :  #elif _ITERATOR_DEBUG_LEVEL == 1
; 937  : 		_SCL_SECURE_VALIDATE_RANGE(_Pos < size());
; 938  :  #endif /* _ITERATOR_DEBUG_LEVEL */
; 939  : 
; 940  : 		return (*(this->_Myfirst + _Pos));

  00003	8b 45 08	 mov	 eax, DWORD PTR __Pos$[ebp]
  00006	6b c0 1c	 imul	 eax, 28			; 0000001cH
  00009	03 01		 add	 eax, DWORD PTR [ecx]

; 941  : 		}

  0000b	5d		 pop	 ebp
  0000c	c2 04 00	 ret	 4
??A?$vector@V?$basic_string@DU?$char_traits@D@std@@V?$allocator@D@2@@std@@V?$allocator@V?$basic_string@DU?$char_traits@D@std@@V?$allocator@D@2@@std@@@2@@std@@QAEAAV?$basic_string@DU?$char_traits@D@std@@V?$allocator@D@2@@1@I@Z ENDP ; std::vector<std::basic_string<char,std::char_traits<char>,std::allocator<char> >,std::allocator<std::basic_string<char,std::char_traits<char>,std::allocator<char> > > >::operator[]
_TEXT	ENDS
PUBLIC	?length@?$char_traits@D@std@@SAIPBD@Z		; std::char_traits<char>::length
; Function compile flags: /Ogsp
; File c:\program files (x86)\microsoft visual studio 10.0\vc\include\iosfwd
;	COMDAT ?length@?$char_traits@D@std@@SAIPBD@Z
_TEXT	SEGMENT
__First$ = 8						; size = 4
?length@?$char_traits@D@std@@SAIPBD@Z PROC		; std::char_traits<char>::length, COMDAT

; 490  : 		{	// find length of null-terminated string

  00000	55		 push	 ebp
  00001	8b ec		 mov	 ebp, esp

; 491  : 		return (_CSTD strlen(_First));

  00003	8b 45 08	 mov	 eax, DWORD PTR __First$[ebp]
  00006	8d 50 01	 lea	 edx, DWORD PTR [eax+1]
$LL3@length:
  00009	8a 08		 mov	 cl, BYTE PTR [eax]
  0000b	40		 inc	 eax
  0000c	84 c9		 test	 cl, cl
  0000e	75 f9		 jne	 SHORT $LL3@length
  00010	2b c2		 sub	 eax, edx

; 492  : 		}

  00012	5d		 pop	 ebp
  00013	c3		 ret	 0
?length@?$char_traits@D@std@@SAIPBD@Z ENDP		; std::char_traits<char>::length
_TEXT	ENDS
PUBLIC	?empty@?$vector@KV?$allocator@K@std@@@std@@QBE_NXZ ; std::vector<unsigned long,std::allocator<unsigned long> >::empty
; Function compile flags: /Ogsp
; File c:\program files (x86)\microsoft visual studio 10.0\vc\include\vector
;	COMDAT ?empty@?$vector@KV?$allocator@K@std@@@std@@QBE_NXZ
_TEXT	SEGMENT
?empty@?$vector@KV?$allocator@K@std@@@std@@QBE_NXZ PROC	; std::vector<unsigned long,std::allocator<unsigned long> >::empty, COMDAT
; _this$ = ecx

; 889  : 		return (this->_Myfirst == this->_Mylast);

  00000	8b 01		 mov	 eax, DWORD PTR [ecx]
  00002	2b 41 04	 sub	 eax, DWORD PTR [ecx+4]
  00005	f7 d8		 neg	 eax
  00007	1b c0		 sbb	 eax, eax
  00009	40		 inc	 eax

; 890  : 		}

  0000a	c3		 ret	 0
?empty@?$vector@KV?$allocator@K@std@@@std@@QBE_NXZ ENDP	; std::vector<unsigned long,std::allocator<unsigned long> >::empty
_TEXT	ENDS
PUBLIC	?copy@?$char_traits@D@std@@SAPADPADPBDI@Z	; std::char_traits<char>::copy
EXTRN	_memcpy:PROC
; Function compile flags: /Ogsp
; File c:\program files (x86)\microsoft visual studio 10.0\vc\include\iosfwd
;	COMDAT ?copy@?$char_traits@D@std@@SAPADPADPBDI@Z
_TEXT	SEGMENT
__First1$ = 8						; size = 4
__First2$ = 12						; size = 4
__Count$ = 16						; size = 4
?copy@?$char_traits@D@std@@SAPADPADPBDI@Z PROC		; std::char_traits<char>::copy, COMDAT

; 496  : 		{	// copy [_First1, _First1 + _Count) to [_First2, ...)

  00000	55		 push	 ebp
  00001	8b ec		 mov	 ebp, esp

; 498  : 		}

  00003	5d		 pop	 ebp

; 497  : 		return ((_Elem *)_CSTD memcpy(_First1, _First2, _Count));

  00004	e9 00 00 00 00	 jmp	 _memcpy
?copy@?$char_traits@D@std@@SAPADPADPBDI@Z ENDP		; std::char_traits<char>::copy
_TEXT	ENDS
PUBLIC	?move@?$char_traits@D@std@@SAPADPADPBDI@Z	; std::char_traits<char>::move
EXTRN	__imp__memmove:PROC
; Function compile flags: /Ogsp
;	COMDAT ?move@?$char_traits@D@std@@SAPADPADPBDI@Z
_TEXT	SEGMENT
__First1$ = 8						; size = 4
__First2$ = 12						; size = 4
__Count$ = 16						; size = 4
?move@?$char_traits@D@std@@SAPADPADPBDI@Z PROC		; std::char_traits<char>::move, COMDAT

; 516  : 		{	// copy [_First1, _First1 + _Count) to [_First2, ...)

  00000	55		 push	 ebp
  00001	8b ec		 mov	 ebp, esp

; 518  : 		}

  00003	5d		 pop	 ebp

; 517  : 		return ((_Elem *)_CSTD memmove(_First1, _First2, _Count));

  00004	ff 25 00 00 00
	00		 jmp	 DWORD PTR __imp__memmove
?move@?$char_traits@D@std@@SAPADPADPBDI@Z ENDP		; std::char_traits<char>::move
_TEXT	ENDS
PUBLIC	?assign@?$char_traits@D@std@@SAXAADABD@Z	; std::char_traits<char>::assign
; Function compile flags: /Ogsp
;	COMDAT ?assign@?$char_traits@D@std@@SAXAADABD@Z
_TEXT	SEGMENT
__Left$ = 8						; size = 4
__Right$ = 12						; size = 4
?assign@?$char_traits@D@std@@SAXAADABD@Z PROC		; std::char_traits<char>::assign, COMDAT

; 526  : 		{	// assign an element

  00000	55		 push	 ebp
  00001	8b ec		 mov	 ebp, esp

; 527  : 		_Left = _Right;

  00003	8b 45 0c	 mov	 eax, DWORD PTR __Right$[ebp]
  00006	8a 00		 mov	 al, BYTE PTR [eax]
  00008	8b 4d 08	 mov	 ecx, DWORD PTR __Left$[ebp]
  0000b	88 01		 mov	 BYTE PTR [ecx], al

; 528  : 		}

  0000d	5d		 pop	 ebp
  0000e	c3		 ret	 0
?assign@?$char_traits@D@std@@SAXAADABD@Z ENDP		; std::char_traits<char>::assign
_TEXT	ENDS
PUBLIC	?size@?$vector@W4RaceDetailType@@V?$allocator@W4RaceDetailType@@@std@@@std@@QBEIXZ ; std::vector<enum RaceDetailType,std::allocator<enum RaceDetailType> >::size
; Function compile flags: /Ogsp
; File c:\program files (x86)\microsoft visual studio 10.0\vc\include\vector
;	COMDAT ?size@?$vector@W4RaceDetailType@@V?$allocator@W4RaceDetailType@@@std@@@std@@QBEIXZ
_TEXT	SEGMENT
?size@?$vector@W4RaceDetailType@@V?$allocator@W4RaceDetailType@@@std@@@std@@QBEIXZ PROC ; std::vector<enum RaceDetailType,std::allocator<enum RaceDetailType> >::size, COMDAT
; _this$ = ecx

; 879  : 		return (this->_Mylast - this->_Myfirst);

  00000	8b 41 04	 mov	 eax, DWORD PTR [ecx+4]
  00003	2b 01		 sub	 eax, DWORD PTR [ecx]
  00005	c1 f8 02	 sar	 eax, 2

; 880  : 		}

  00008	c3		 ret	 0
?size@?$vector@W4RaceDetailType@@V?$allocator@W4RaceDetailType@@@std@@@std@@QBEIXZ ENDP ; std::vector<enum RaceDetailType,std::allocator<enum RaceDetailType> >::size
_TEXT	ENDS
PUBLIC	??A?$vector@W4RaceDetailType@@V?$allocator@W4RaceDetailType@@@std@@@std@@QAEAAW4RaceDetailType@@I@Z ; std::vector<enum RaceDetailType,std::allocator<enum RaceDetailType> >::operator[]
; Function compile flags: /Ogsp
;	COMDAT ??A?$vector@W4RaceDetailType@@V?$allocator@W4RaceDetailType@@@std@@@std@@QAEAAW4RaceDetailType@@I@Z
_TEXT	SEGMENT
__Pos$ = 8						; size = 4
??A?$vector@W4RaceDetailType@@V?$allocator@W4RaceDetailType@@@std@@@std@@QAEAAW4RaceDetailType@@I@Z PROC ; std::vector<enum RaceDetailType,std::allocator<enum RaceDetailType> >::operator[], COMDAT
; _this$ = ecx

; 928  : 		{	// subscript mutable sequence

  00000	55		 push	 ebp
  00001	8b ec		 mov	 ebp, esp

; 929  :  #if _ITERATOR_DEBUG_LEVEL == 2
; 930  : 		if (size() <= _Pos)
; 931  : 			{	// report error
; 932  : 			_DEBUG_ERROR("vector subscript out of range");
; 933  : 			_SCL_SECURE_OUT_OF_RANGE;
; 934  : 			}
; 935  : 
; 936  :  #elif _ITERATOR_DEBUG_LEVEL == 1
; 937  : 		_SCL_SECURE_VALIDATE_RANGE(_Pos < size());
; 938  :  #endif /* _ITERATOR_DEBUG_LEVEL */
; 939  : 
; 940  : 		return (*(this->_Myfirst + _Pos));

  00003	8b 01		 mov	 eax, DWORD PTR [ecx]
  00005	8b 4d 08	 mov	 ecx, DWORD PTR __Pos$[ebp]
  00008	8d 04 88	 lea	 eax, DWORD PTR [eax+ecx*4]

; 941  : 		}

  0000b	5d		 pop	 ebp
  0000c	c2 04 00	 ret	 4
??A?$vector@W4RaceDetailType@@V?$allocator@W4RaceDetailType@@@std@@@std@@QAEAAW4RaceDetailType@@I@Z ENDP ; std::vector<enum RaceDetailType,std::allocator<enum RaceDetailType> >::operator[]
_TEXT	ENDS
PUBLIC	?size@?$vector@PBVioItem@@V?$allocator@PBVioItem@@@std@@@std@@QBEIXZ ; std::vector<ioItem const *,std::allocator<ioItem const *> >::size
; Function compile flags: /Ogsp
;	COMDAT ?size@?$vector@PBVioItem@@V?$allocator@PBVioItem@@@std@@@std@@QBEIXZ
_TEXT	SEGMENT
?size@?$vector@PBVioItem@@V?$allocator@PBVioItem@@@std@@@std@@QBEIXZ PROC ; std::vector<ioItem const *,std::allocator<ioItem const *> >::size, COMDAT
; _this$ = ecx

; 879  : 		return (this->_Mylast - this->_Myfirst);

  00000	8b 41 04	 mov	 eax, DWORD PTR [ecx+4]
  00003	2b 01		 sub	 eax, DWORD PTR [ecx]
  00005	c1 f8 02	 sar	 eax, 2

; 880  : 		}

  00008	c3		 ret	 0
?size@?$vector@PBVioItem@@V?$allocator@PBVioItem@@@std@@@std@@QBEIXZ ENDP ; std::vector<ioItem const *,std::allocator<ioItem const *> >::size
_TEXT	ENDS
PUBLIC	??A?$vector@PBVioItem@@V?$allocator@PBVioItem@@@std@@@std@@QAEAAPBVioItem@@I@Z ; std::vector<ioItem const *,std::allocator<ioItem const *> >::operator[]
; Function compile flags: /Ogsp
;	COMDAT ??A?$vector@PBVioItem@@V?$allocator@PBVioItem@@@std@@@std@@QAEAAPBVioItem@@I@Z
_TEXT	SEGMENT
__Pos$ = 8						; size = 4
??A?$vector@PBVioItem@@V?$allocator@PBVioItem@@@std@@@std@@QAEAAPBVioItem@@I@Z PROC ; std::vector<ioItem const *,std::allocator<ioItem const *> >::operator[], COMDAT
; _this$ = ecx

; 928  : 		{	// subscript mutable sequence

  00000	55		 push	 ebp
  00001	8b ec		 mov	 ebp, esp

; 929  :  #if _ITERATOR_DEBUG_LEVEL == 2
; 930  : 		if (size() <= _Pos)
; 931  : 			{	// report error
; 932  : 			_DEBUG_ERROR("vector subscript out of range");
; 933  : 			_SCL_SECURE_OUT_OF_RANGE;
; 934  : 			}
; 935  : 
; 936  :  #elif _ITERATOR_DEBUG_LEVEL == 1
; 937  : 		_SCL_SECURE_VALIDATE_RANGE(_Pos < size());
; 938  :  #endif /* _ITERATOR_DEBUG_LEVEL */
; 939  : 
; 940  : 		return (*(this->_Myfirst + _Pos));

  00003	8b 01		 mov	 eax, DWORD PTR [ecx]
  00005	8b 4d 08	 mov	 ecx, DWORD PTR __Pos$[ebp]
  00008	8d 04 88	 lea	 eax, DWORD PTR [eax+ecx*4]

; 941  : 		}

  0000b	5d		 pop	 ebp
  0000c	c2 04 00	 ret	 4
??A?$vector@PBVioItem@@V?$allocator@PBVioItem@@@std@@@std@@QAEAAPBVioItem@@I@Z ENDP ; std::vector<ioItem const *,std::allocator<ioItem const *> >::operator[]
_TEXT	ENDS
PUBLIC	?capacity@?$vector@V?$basic_string@DU?$char_traits@D@std@@V?$allocator@D@2@@std@@V?$allocator@V?$basic_string@DU?$char_traits@D@std@@V?$allocator@D@2@@std@@@2@@std@@QBEIXZ ; std::vector<std::basic_string<char,std::char_traits<char>,std::allocator<char> >,std::allocator<std::basic_string<char,std::char_traits<char>,std::allocator<char> > > >::capacity
; Function compile flags: /Ogsp
;	COMDAT ?capacity@?$vector@V?$basic_string@DU?$char_traits@D@std@@V?$allocator@D@2@@std@@V?$allocator@V?$basic_string@DU?$char_traits@D@std@@V?$allocator@D@2@@std@@@2@@std@@QBEIXZ
_TEXT	SEGMENT
?capacity@?$vector@V?$basic_string@DU?$char_traits@D@std@@V?$allocator@D@2@@std@@V?$allocator@V?$basic_string@DU?$char_traits@D@std@@V?$allocator@D@2@@std@@@2@@std@@QBEIXZ PROC ; std::vector<std::basic_string<char,std::char_traits<char>,std::allocator<char> >,std::allocator<std::basic_string<char,std::char_traits<char>,std::allocator<char> > > >::capacity, COMDAT
; _this$ = ecx

; 777  : 		return (this->_Myend - this->_Myfirst);

  00000	8b 41 08	 mov	 eax, DWORD PTR [ecx+8]
  00003	2b 01		 sub	 eax, DWORD PTR [ecx]
  00005	6a 1c		 push	 28			; 0000001cH
  00007	99		 cdq
  00008	59		 pop	 ecx
  00009	f7 f9		 idiv	 ecx

; 778  : 		}

  0000b	c3		 ret	 0
?capacity@?$vector@V?$basic_string@DU?$char_traits@D@std@@V?$allocator@D@2@@std@@V?$allocator@V?$basic_string@DU?$char_traits@D@std@@V?$allocator@D@2@@std@@@2@@std@@QBEIXZ ENDP ; std::vector<std::basic_string<char,std::char_traits<char>,std::allocator<char> >,std::allocator<std::basic_string<char,std::char_traits<char>,std::allocator<char> > > >::capacity
_TEXT	ENDS
PUBLIC	??0?$allocator@V?$basic_string@DU?$char_traits@D@std@@V?$allocator@D@2@@std@@@std@@QAE@XZ ; std::allocator<std::basic_string<char,std::char_traits<char>,std::allocator<char> > >::allocator<std::basic_string<char,std::char_traits<char>,std::allocator<char> > >
; Function compile flags: /Ogsp
; File c:\program files (x86)\microsoft visual studio 10.0\vc\include\xmemory
;	COMDAT ??0?$allocator@V?$basic_string@DU?$char_traits@D@std@@V?$allocator@D@2@@std@@@std@@QAE@XZ
_TEXT	SEGMENT
??0?$allocator@V?$basic_string@DU?$char_traits@D@std@@V?$allocator@D@2@@std@@@std@@QAE@XZ PROC ; std::allocator<std::basic_string<char,std::char_traits<char>,std::allocator<char> > >::allocator<std::basic_string<char,std::char_traits<char>,std::allocator<char> > >, COMDAT
; _this$ = ecx

; 161  : 	_ALLOCATOR() _THROW0()

  00000	8b c1		 mov	 eax, ecx

; 162  : 		{	// construct default allocator (do nothing)
; 163  : 		}

  00002	c3		 ret	 0
??0?$allocator@V?$basic_string@DU?$char_traits@D@std@@V?$allocator@D@2@@std@@@std@@QAE@XZ ENDP ; std::allocator<std::basic_string<char,std::char_traits<char>,std::allocator<char> > >::allocator<std::basic_string<char,std::char_traits<char>,std::allocator<char> > >
_TEXT	ENDS
PUBLIC	?_Inside@?$vector@W4RaceDetailType@@V?$allocator@W4RaceDetailType@@@std@@@std@@IBE_NPBW4RaceDetailType@@@Z ; std::vector<enum RaceDetailType,std::allocator<enum RaceDetailType> >::_Inside
; Function compile flags: /Ogsp
; File c:\program files (x86)\microsoft visual studio 10.0\vc\include\vector
;	COMDAT ?_Inside@?$vector@W4RaceDetailType@@V?$allocator@W4RaceDetailType@@@std@@@std@@IBE_NPBW4RaceDetailType@@@Z
_TEXT	SEGMENT
__Ptr$ = 8						; size = 4
?_Inside@?$vector@W4RaceDetailType@@V?$allocator@W4RaceDetailType@@@std@@@std@@IBE_NPBW4RaceDetailType@@@Z PROC ; std::vector<enum RaceDetailType,std::allocator<enum RaceDetailType> >::_Inside, COMDAT
; _this$ = ecx

; 1285 : 		{	// test if _Ptr points inside vector

  00000	55		 push	 ebp
  00001	8b ec		 mov	 ebp, esp

; 1286 : 		return (_Ptr < this->_Mylast && this->_Myfirst <= _Ptr);

  00003	8b 45 08	 mov	 eax, DWORD PTR __Ptr$[ebp]
  00006	3b 41 04	 cmp	 eax, DWORD PTR [ecx+4]
  00009	73 09		 jae	 SHORT $LN3@Inside
  0000b	39 01		 cmp	 DWORD PTR [ecx], eax
  0000d	77 05		 ja	 SHORT $LN3@Inside
  0000f	33 c0		 xor	 eax, eax
  00011	40		 inc	 eax
  00012	eb 02		 jmp	 SHORT $LN4@Inside
$LN3@Inside:
  00014	33 c0		 xor	 eax, eax
$LN4@Inside:

; 1287 : 		}

  00016	5d		 pop	 ebp
  00017	c2 04 00	 ret	 4
?_Inside@?$vector@W4RaceDetailType@@V?$allocator@W4RaceDetailType@@@std@@@std@@IBE_NPBW4RaceDetailType@@@Z ENDP ; std::vector<enum RaceDetailType,std::allocator<enum RaceDetailType> >::_Inside
_TEXT	ENDS
PUBLIC	?_Orphan_range@?$vector@W4RaceDetailType@@V?$allocator@W4RaceDetailType@@@std@@@std@@IBEXPAW4RaceDetailType@@0@Z ; std::vector<enum RaceDetailType,std::allocator<enum RaceDetailType> >::_Orphan_range
; Function compile flags: /Ogsp
;	COMDAT ?_Orphan_range@?$vector@W4RaceDetailType@@V?$allocator@W4RaceDetailType@@@std@@@std@@IBEXPAW4RaceDetailType@@0@Z
_TEXT	SEGMENT
___formal$ = 8						; size = 4
___formal$ = 12						; size = 4
?_Orphan_range@?$vector@W4RaceDetailType@@V?$allocator@W4RaceDetailType@@@std@@@std@@IBEXPAW4RaceDetailType@@0@Z PROC ; std::vector<enum RaceDetailType,std::allocator<enum RaceDetailType> >::_Orphan_range, COMDAT
; _this$ = ecx

; 1454 : 		}

  00000	c2 08 00	 ret	 8
?_Orphan_range@?$vector@W4RaceDetailType@@V?$allocator@W4RaceDetailType@@@std@@@std@@IBEXPAW4RaceDetailType@@0@Z ENDP ; std::vector<enum RaceDetailType,std::allocator<enum RaceDetailType> >::_Orphan_range
_TEXT	ENDS
PUBLIC	??1?$_Vector_val@W4RaceDetailType@@V?$allocator@W4RaceDetailType@@@std@@@std@@QAE@XZ ; std::_Vector_val<enum RaceDetailType,std::allocator<enum RaceDetailType> >::~_Vector_val<enum RaceDetailType,std::allocator<enum RaceDetailType> >
; Function compile flags: /Ogsp
;	COMDAT ??1?$_Vector_val@W4RaceDetailType@@V?$allocator@W4RaceDetailType@@@std@@@std@@QAE@XZ
_TEXT	SEGMENT
??1?$_Vector_val@W4RaceDetailType@@V?$allocator@W4RaceDetailType@@@std@@@std@@QAE@XZ PROC ; std::_Vector_val<enum RaceDetailType,std::allocator<enum RaceDetailType> >::~_Vector_val<enum RaceDetailType,std::allocator<enum RaceDetailType> >, COMDAT
; _this$ = ecx

; 434  : 		}

  00000	c3		 ret	 0
??1?$_Vector_val@W4RaceDetailType@@V?$allocator@W4RaceDetailType@@@std@@@std@@QAE@XZ ENDP ; std::_Vector_val<enum RaceDetailType,std::allocator<enum RaceDetailType> >::~_Vector_val<enum RaceDetailType,std::allocator<enum RaceDetailType> >
_TEXT	ENDS
PUBLIC	??0?$allocator@W4RaceDetailType@@@std@@QAE@XZ	; std::allocator<enum RaceDetailType>::allocator<enum RaceDetailType>
; Function compile flags: /Ogsp
; File c:\program files (x86)\microsoft visual studio 10.0\vc\include\xmemory
;	COMDAT ??0?$allocator@W4RaceDetailType@@@std@@QAE@XZ
_TEXT	SEGMENT
??0?$allocator@W4RaceDetailType@@@std@@QAE@XZ PROC	; std::allocator<enum RaceDetailType>::allocator<enum RaceDetailType>, COMDAT
; _this$ = ecx

; 161  : 	_ALLOCATOR() _THROW0()

  00000	8b c1		 mov	 eax, ecx

; 162  : 		{	// construct default allocator (do nothing)
; 163  : 		}

  00002	c3		 ret	 0
??0?$allocator@W4RaceDetailType@@@std@@QAE@XZ ENDP	; std::allocator<enum RaceDetailType>::allocator<enum RaceDetailType>
_TEXT	ENDS
PUBLIC	??1?$_Vector_val@PBVioItem@@V?$allocator@PBVioItem@@@std@@@std@@QAE@XZ ; std::_Vector_val<ioItem const *,std::allocator<ioItem const *> >::~_Vector_val<ioItem const *,std::allocator<ioItem const *> >
; Function compile flags: /Ogsp
; File c:\program files (x86)\microsoft visual studio 10.0\vc\include\vector
;	COMDAT ??1?$_Vector_val@PBVioItem@@V?$allocator@PBVioItem@@@std@@@std@@QAE@XZ
_TEXT	SEGMENT
??1?$_Vector_val@PBVioItem@@V?$allocator@PBVioItem@@@std@@@std@@QAE@XZ PROC ; std::_Vector_val<ioItem const *,std::allocator<ioItem const *> >::~_Vector_val<ioItem const *,std::allocator<ioItem const *> >, COMDAT
; _this$ = ecx

; 434  : 		}

  00000	c3		 ret	 0
??1?$_Vector_val@PBVioItem@@V?$allocator@PBVioItem@@@std@@@std@@QAE@XZ ENDP ; std::_Vector_val<ioItem const *,std::allocator<ioItem const *> >::~_Vector_val<ioItem const *,std::allocator<ioItem const *> >
_TEXT	ENDS
PUBLIC	??_C@_0BD@OLBABOEK@vector?$DMT?$DO?5too?5long?$AA@ ; `string'
PUBLIC	?_Xlen@?$vector@V?$basic_string@DU?$char_traits@D@std@@V?$allocator@D@2@@std@@V?$allocator@V?$basic_string@DU?$char_traits@D@std@@V?$allocator@D@2@@std@@@2@@std@@IBEXXZ ; std::vector<std::basic_string<char,std::char_traits<char>,std::allocator<char> >,std::allocator<std::basic_string<char,std::char_traits<char>,std::allocator<char> > > >::_Xlen
EXTRN	__imp_?_Xlength_error@std@@YAXPBD@Z:PROC
;	COMDAT ??_C@_0BD@OLBABOEK@vector?$DMT?$DO?5too?5long?$AA@
CONST	SEGMENT
??_C@_0BD@OLBABOEK@vector?$DMT?$DO?5too?5long?$AA@ DB 'vector<T> too long'
	DB	00H						; `string'
; Function compile flags: /Ogsp
CONST	ENDS
;	COMDAT ?_Xlen@?$vector@V?$basic_string@DU?$char_traits@D@std@@V?$allocator@D@2@@std@@V?$allocator@V?$basic_string@DU?$char_traits@D@std@@V?$allocator@D@2@@std@@@2@@std@@IBEXXZ
_TEXT	SEGMENT
?_Xlen@?$vector@V?$basic_string@DU?$char_traits@D@std@@V?$allocator@D@2@@std@@V?$allocator@V?$basic_string@DU?$char_traits@D@std@@V?$allocator@D@2@@std@@@2@@std@@IBEXXZ PROC ; std::vector<std::basic_string<char,std::char_traits<char>,std::allocator<char> >,std::allocator<std::basic_string<char,std::char_traits<char>,std::allocator<char> > > >::_Xlen, COMDAT
; _this$ = ecx

; 1427 : 		_Xlength_error("vector<T> too long");

  00000	68 00 00 00 00	 push	 OFFSET ??_C@_0BD@OLBABOEK@vector?$DMT?$DO?5too?5long?$AA@
  00005	ff 15 00 00 00
	00		 call	 DWORD PTR __imp_?_Xlength_error@std@@YAXPBD@Z
$LN4@Xlen:
$LN3@Xlen:
  0000b	cc		 int	 3
?_Xlen@?$vector@V?$basic_string@DU?$char_traits@D@std@@V?$allocator@D@2@@std@@V?$allocator@V?$basic_string@DU?$char_traits@D@std@@V?$allocator@D@2@@std@@@2@@std@@IBEXXZ ENDP ; std::vector<std::basic_string<char,std::char_traits<char>,std::allocator<char> >,std::allocator<std::basic_string<char,std::char_traits<char>,std::allocator<char> > > >::_Xlen
_TEXT	ENDS
PUBLIC	??0?$allocator@V?$basic_string@DU?$char_traits@D@std@@V?$allocator@D@2@@std@@@std@@QAE@ABV01@@Z ; std::allocator<std::basic_string<char,std::char_traits<char>,std::allocator<char> > >::allocator<std::basic_string<char,std::char_traits<char>,std::allocator<char> > >
; Function compile flags: /Ogsp
; File c:\program files (x86)\microsoft visual studio 10.0\vc\include\xmemory
;	COMDAT ??0?$allocator@V?$basic_string@DU?$char_traits@D@std@@V?$allocator@D@2@@std@@@std@@QAE@ABV01@@Z
_TEXT	SEGMENT
___formal$ = 8						; size = 4
??0?$allocator@V?$basic_string@DU?$char_traits@D@std@@V?$allocator@D@2@@std@@@std@@QAE@ABV01@@Z PROC ; std::allocator<std::basic_string<char,std::char_traits<char>,std::allocator<char> > >::allocator<std::basic_string<char,std::char_traits<char>,std::allocator<char> > >, COMDAT
; _this$ = ecx

; 165  : 	_ALLOCATOR(const _ALLOCATOR<_Ty>&) _THROW0()

  00000	8b c1		 mov	 eax, ecx

; 166  : 		{	// construct by copying (do nothing)
; 167  : 		}

  00002	c2 04 00	 ret	 4
??0?$allocator@V?$basic_string@DU?$char_traits@D@std@@V?$allocator@D@2@@std@@@std@@QAE@ABV01@@Z ENDP ; std::allocator<std::basic_string<char,std::char_traits<char>,std::allocator<char> > >::allocator<std::basic_string<char,std::char_traits<char>,std::allocator<char> > >
_TEXT	ENDS
PUBLIC	?capacity@?$vector@W4RaceDetailType@@V?$allocator@W4RaceDetailType@@@std@@@std@@QBEIXZ ; std::vector<enum RaceDetailType,std::allocator<enum RaceDetailType> >::capacity
; Function compile flags: /Ogsp
; File c:\program files (x86)\microsoft visual studio 10.0\vc\include\vector
;	COMDAT ?capacity@?$vector@W4RaceDetailType@@V?$allocator@W4RaceDetailType@@@std@@@std@@QBEIXZ
_TEXT	SEGMENT
?capacity@?$vector@W4RaceDetailType@@V?$allocator@W4RaceDetailType@@@std@@@std@@QBEIXZ PROC ; std::vector<enum RaceDetailType,std::allocator<enum RaceDetailType> >::capacity, COMDAT
; _this$ = ecx

; 777  : 		return (this->_Myend - this->_Myfirst);

  00000	8b 41 08	 mov	 eax, DWORD PTR [ecx+8]
  00003	2b 01		 sub	 eax, DWORD PTR [ecx]
  00005	c1 f8 02	 sar	 eax, 2

; 778  : 		}

  00008	c3		 ret	 0
?capacity@?$vector@W4RaceDetailType@@V?$allocator@W4RaceDetailType@@@std@@@std@@QBEIXZ ENDP ; std::vector<enum RaceDetailType,std::allocator<enum RaceDetailType> >::capacity
_TEXT	ENDS
PUBLIC	?_Xlen@?$vector@W4RaceDetailType@@V?$allocator@W4RaceDetailType@@@std@@@std@@IBEXXZ ; std::vector<enum RaceDetailType,std::allocator<enum RaceDetailType> >::_Xlen
; Function compile flags: /Ogsp
;	COMDAT ?_Xlen@?$vector@W4RaceDetailType@@V?$allocator@W4RaceDetailType@@@std@@@std@@IBEXXZ
_TEXT	SEGMENT
?_Xlen@?$vector@W4RaceDetailType@@V?$allocator@W4RaceDetailType@@@std@@@std@@IBEXXZ PROC ; std::vector<enum RaceDetailType,std::allocator<enum RaceDetailType> >::_Xlen, COMDAT
; _this$ = ecx

; 1427 : 		_Xlength_error("vector<T> too long");

  00000	68 00 00 00 00	 push	 OFFSET ??_C@_0BD@OLBABOEK@vector?$DMT?$DO?5too?5long?$AA@
  00005	ff 15 00 00 00
	00		 call	 DWORD PTR __imp_?_Xlength_error@std@@YAXPBD@Z
$LN4@Xlen@2:
$LN3@Xlen@2:
  0000b	cc		 int	 3
?_Xlen@?$vector@W4RaceDetailType@@V?$allocator@W4RaceDetailType@@@std@@@std@@IBEXXZ ENDP ; std::vector<enum RaceDetailType,std::allocator<enum RaceDetailType> >::_Xlen
_TEXT	ENDS
PUBLIC	??0?$allocator@W4RaceDetailType@@@std@@QAE@ABV01@@Z ; std::allocator<enum RaceDetailType>::allocator<enum RaceDetailType>
; Function compile flags: /Ogsp
; File c:\program files (x86)\microsoft visual studio 10.0\vc\include\xmemory
;	COMDAT ??0?$allocator@W4RaceDetailType@@@std@@QAE@ABV01@@Z
_TEXT	SEGMENT
___formal$ = 8						; size = 4
??0?$allocator@W4RaceDetailType@@@std@@QAE@ABV01@@Z PROC ; std::allocator<enum RaceDetailType>::allocator<enum RaceDetailType>, COMDAT
; _this$ = ecx

; 165  : 	_ALLOCATOR(const _ALLOCATOR<_Ty>&) _THROW0()

  00000	8b c1		 mov	 eax, ecx

; 166  : 		{	// construct by copying (do nothing)
; 167  : 		}

  00002	c2 04 00	 ret	 4
??0?$allocator@W4RaceDetailType@@@std@@QAE@ABV01@@Z ENDP ; std::allocator<enum RaceDetailType>::allocator<enum RaceDetailType>
_TEXT	ENDS
PUBLIC	?deallocate@?$allocator@W4RaceDetailType@@@std@@QAEXPAW4RaceDetailType@@I@Z ; std::allocator<enum RaceDetailType>::deallocate
; Function compile flags: /Ogsp
;	COMDAT ?deallocate@?$allocator@W4RaceDetailType@@@std@@QAEXPAW4RaceDetailType@@I@Z
_TEXT	SEGMENT
__Ptr$ = 8						; size = 4
___formal$ = 12						; size = 4
?deallocate@?$allocator@W4RaceDetailType@@@std@@QAEXPAW4RaceDetailType@@I@Z PROC ; std::allocator<enum RaceDetailType>::deallocate, COMDAT
; _this$ = ecx

; 181  : 		{	// deallocate object at _Ptr, ignore size

  00000	55		 push	 ebp
  00001	8b ec		 mov	 ebp, esp

; 182  : 		::operator delete(_Ptr);

  00003	ff 75 08	 push	 DWORD PTR __Ptr$[ebp]
  00006	e8 00 00 00 00	 call	 ??3@YAXPAX@Z		; operator delete
  0000b	59		 pop	 ecx

; 183  : 		}

  0000c	5d		 pop	 ebp
  0000d	c2 08 00	 ret	 8
?deallocate@?$allocator@W4RaceDetailType@@@std@@QAEXPAW4RaceDetailType@@I@Z ENDP ; std::allocator<enum RaceDetailType>::deallocate
_TEXT	ENDS
PUBLIC	?deallocate@?$allocator@PBVioItem@@@std@@QAEXPAPBVioItem@@I@Z ; std::allocator<ioItem const *>::deallocate
; Function compile flags: /Ogsp
;	COMDAT ?deallocate@?$allocator@PBVioItem@@@std@@QAEXPAPBVioItem@@I@Z
_TEXT	SEGMENT
__Ptr$ = 8						; size = 4
___formal$ = 12						; size = 4
?deallocate@?$allocator@PBVioItem@@@std@@QAEXPAPBVioItem@@I@Z PROC ; std::allocator<ioItem const *>::deallocate, COMDAT
; _this$ = ecx

; 181  : 		{	// deallocate object at _Ptr, ignore size

  00000	55		 push	 ebp
  00001	8b ec		 mov	 ebp, esp

; 182  : 		::operator delete(_Ptr);

  00003	ff 75 08	 push	 DWORD PTR __Ptr$[ebp]
  00006	e8 00 00 00 00	 call	 ??3@YAXPAX@Z		; operator delete
  0000b	59		 pop	 ecx

; 183  : 		}

  0000c	5d		 pop	 ebp
  0000d	c2 08 00	 ret	 8
?deallocate@?$allocator@PBVioItem@@@std@@QAEXPAPBVioItem@@I@Z ENDP ; std::allocator<ioItem const *>::deallocate
_TEXT	ENDS
PUBLIC	?_Adopt@_Iterator_base0@std@@QAEXPBX@Z		; std::_Iterator_base0::_Adopt
; Function compile flags: /Ogsp
; File c:\program files (x86)\microsoft visual studio 10.0\vc\include\xutility
;	COMDAT ?_Adopt@_Iterator_base0@std@@QAEXPBX@Z
_TEXT	SEGMENT
___formal$ = 8						; size = 4
?_Adopt@_Iterator_base0@std@@QAEXPBX@Z PROC		; std::_Iterator_base0::_Adopt, COMDAT
; _this$ = ecx

; 49   : 		}

  00000	c2 04 00	 ret	 4
?_Adopt@_Iterator_base0@std@@QAEXPBX@Z ENDP		; std::_Iterator_base0::_Adopt
_TEXT	ENDS
PUBLIC	?max_size@?$allocator@V?$basic_string@DU?$char_traits@D@std@@V?$allocator@D@2@@std@@@std@@QBEIXZ ; std::allocator<std::basic_string<char,std::char_traits<char>,std::allocator<char> > >::max_size
; Function compile flags: /Ogsp
; File c:\program files (x86)\microsoft visual studio 10.0\vc\include\xmemory
;	COMDAT ?max_size@?$allocator@V?$basic_string@DU?$char_traits@D@std@@V?$allocator@D@2@@std@@@std@@QBEIXZ
_TEXT	SEGMENT
?max_size@?$allocator@V?$basic_string@DU?$char_traits@D@std@@V?$allocator@D@2@@std@@@std@@QBEIXZ PROC ; std::allocator<std::basic_string<char,std::char_traits<char>,std::allocator<char> > >::max_size, COMDAT
; _this$ = ecx

; 218  : 		_SIZT _Count = (_SIZT)(-1) / sizeof (_Ty);
; 219  : 		return (0 < _Count ? _Count : 1);

  00000	b8 49 92 24 09	 mov	 eax, 153391689		; 09249249H

; 220  : 		}

  00005	c3		 ret	 0
?max_size@?$allocator@V?$basic_string@DU?$char_traits@D@std@@V?$allocator@D@2@@std@@@std@@QBEIXZ ENDP ; std::allocator<std::basic_string<char,std::char_traits<char>,std::allocator<char> > >::max_size
_TEXT	ENDS
PUBLIC	?max_size@?$allocator@W4RaceDetailType@@@std@@QBEIXZ ; std::allocator<enum RaceDetailType>::max_size
; Function compile flags: /Ogsp
;	COMDAT ?max_size@?$allocator@W4RaceDetailType@@@std@@QBEIXZ
_TEXT	SEGMENT
?max_size@?$allocator@W4RaceDetailType@@@std@@QBEIXZ PROC ; std::allocator<enum RaceDetailType>::max_size, COMDAT
; _this$ = ecx

; 218  : 		_SIZT _Count = (_SIZT)(-1) / sizeof (_Ty);
; 219  : 		return (0 < _Count ? _Count : 1);

  00000	b8 ff ff ff 3f	 mov	 eax, 1073741823		; 3fffffffH

; 220  : 		}

  00005	c3		 ret	 0
?max_size@?$allocator@W4RaceDetailType@@@std@@QBEIXZ ENDP ; std::allocator<enum RaceDetailType>::max_size
_TEXT	ENDS
PUBLIC	??0?$_Vector_const_iterator@V?$_Vector_val@V?$basic_string@DU?$char_traits@D@std@@V?$allocator@D@2@@std@@V?$allocator@V?$basic_string@DU?$char_traits@D@std@@V?$allocator@D@2@@std@@@2@@std@@@std@@QAE@PAV?$basic_string@DU?$char_traits@D@std@@V?$allocator@D@2@@1@PBU_Container_base0@1@@Z ; std::_Vector_const_iterator<std::_Vector_val<std::basic_string<char,std::char_traits<char>,std::allocator<char> >,std::allocator<std::basic_string<char,std::char_traits<char>,std::allocator<char> > > > >::_Vector_const_iterator<std::_Vector_val<std::basic_string<char,std::char_traits<char>,std::allocator<char> >,std::allocator<std::basic_string<char,std::char_traits<char>,std::allocator<char> > > > >
; Function compile flags: /Ogsp
; File c:\program files (x86)\microsoft visual studio 10.0\vc\include\vector
;	COMDAT ??0?$_Vector_const_iterator@V?$_Vector_val@V?$basic_string@DU?$char_traits@D@std@@V?$allocator@D@2@@std@@V?$allocator@V?$basic_string@DU?$char_traits@D@std@@V?$allocator@D@2@@std@@@2@@std@@@std@@QAE@PAV?$basic_string@DU?$char_traits@D@std@@V?$allocator@D@2@@1@PBU_Container_base0@1@@Z
_TEXT	SEGMENT
__Parg$ = 8						; size = 4
__Pvector$ = 12						; size = 4
??0?$_Vector_const_iterator@V?$_Vector_val@V?$basic_string@DU?$char_traits@D@std@@V?$allocator@D@2@@std@@V?$allocator@V?$basic_string@DU?$char_traits@D@std@@V?$allocator@D@2@@std@@@2@@std@@@std@@QAE@PAV?$basic_string@DU?$char_traits@D@std@@V?$allocator@D@2@@1@PBU_Container_base0@1@@Z PROC ; std::_Vector_const_iterator<std::_Vector_val<std::basic_string<char,std::char_traits<char>,std::allocator<char> >,std::allocator<std::basic_string<char,std::char_traits<char>,std::allocator<char> > > > >::_Vector_const_iterator<std::_Vector_val<std::basic_string<char,std::char_traits<char>,std::allocator<char> >,std::allocator<std::basic_string<char,std::char_traits<char>,std::allocator<char> > > > >, COMDAT
; _this$ = ecx

; 45   : 		{	// construct with pointer _Parg

  00000	55		 push	 ebp
  00001	8b ec		 mov	 ebp, esp
  00003	8b c1		 mov	 eax, ecx
  00005	8b 4d 08	 mov	 ecx, DWORD PTR __Parg$[ebp]
  00008	89 08		 mov	 DWORD PTR [eax], ecx

; 46   : 		this->_Adopt(_Pvector);
; 47   : 		}

  0000a	5d		 pop	 ebp
  0000b	c2 08 00	 ret	 8
??0?$_Vector_const_iterator@V?$_Vector_val@V?$basic_string@DU?$char_traits@D@std@@V?$allocator@D@2@@std@@V?$allocator@V?$basic_string@DU?$char_traits@D@std@@V?$allocator@D@2@@std@@@2@@std@@@std@@QAE@PAV?$basic_string@DU?$char_traits@D@std@@V?$allocator@D@2@@1@PBU_Container_base0@1@@Z ENDP ; std::_Vector_const_iterator<std::_Vector_val<std::basic_string<char,std::char_traits<char>,std::allocator<char> >,std::allocator<std::basic_string<char,std::char_traits<char>,std::allocator<char> > > > >::_Vector_const_iterator<std::_Vector_val<std::basic_string<char,std::char_traits<char>,std::allocator<char> >,std::allocator<std::basic_string<char,std::char_traits<char>,std::allocator<char> > > > >
_TEXT	ENDS
PUBLIC	??0?$_Vector_const_iterator@V?$_Vector_val@W4RaceDetailType@@V?$allocator@W4RaceDetailType@@@std@@@std@@@std@@QAE@PAW4RaceDetailType@@PBU_Container_base0@1@@Z ; std::_Vector_const_iterator<std::_Vector_val<enum RaceDetailType,std::allocator<enum RaceDetailType> > >::_Vector_const_iterator<std::_Vector_val<enum RaceDetailType,std::allocator<enum RaceDetailType> > >
; Function compile flags: /Ogsp
;	COMDAT ??0?$_Vector_const_iterator@V?$_Vector_val@W4RaceDetailType@@V?$allocator@W4RaceDetailType@@@std@@@std@@@std@@QAE@PAW4RaceDetailType@@PBU_Container_base0@1@@Z
_TEXT	SEGMENT
__Parg$ = 8						; size = 4
__Pvector$ = 12						; size = 4
??0?$_Vector_const_iterator@V?$_Vector_val@W4RaceDetailType@@V?$allocator@W4RaceDetailType@@@std@@@std@@@std@@QAE@PAW4RaceDetailType@@PBU_Container_base0@1@@Z PROC ; std::_Vector_const_iterator<std::_Vector_val<enum RaceDetailType,std::allocator<enum RaceDetailType> > >::_Vector_const_iterator<std::_Vector_val<enum RaceDetailType,std::allocator<enum RaceDetailType> > >, COMDAT
; _this$ = ecx

; 45   : 		{	// construct with pointer _Parg

  00000	55		 push	 ebp
  00001	8b ec		 mov	 ebp, esp
  00003	8b c1		 mov	 eax, ecx
  00005	8b 4d 08	 mov	 ecx, DWORD PTR __Parg$[ebp]
  00008	89 08		 mov	 DWORD PTR [eax], ecx

; 46   : 		this->_Adopt(_Pvector);
; 47   : 		}

  0000a	5d		 pop	 ebp
  0000b	c2 08 00	 ret	 8
??0?$_Vector_const_iterator@V?$_Vector_val@W4RaceDetailType@@V?$allocator@W4RaceDetailType@@@std@@@std@@@std@@QAE@PAW4RaceDetailType@@PBU_Container_base0@1@@Z ENDP ; std::_Vector_const_iterator<std::_Vector_val<enum RaceDetailType,std::allocator<enum RaceDetailType> > >::_Vector_const_iterator<std::_Vector_val<enum RaceDetailType,std::allocator<enum RaceDetailType> > >
_TEXT	ENDS
PUBLIC	?_Compat@?$_Vector_const_iterator@V?$_Vector_val@V?$basic_string@DU?$char_traits@D@std@@V?$allocator@D@2@@std@@V?$allocator@V?$basic_string@DU?$char_traits@D@std@@V?$allocator@D@2@@std@@@2@@std@@@std@@QBEXABV12@@Z ; std::_Vector_const_iterator<std::_Vector_val<std::basic_string<char,std::char_traits<char>,std::allocator<char> >,std::allocator<std::basic_string<char,std::char_traits<char>,std::allocator<char> > > > >::_Compat
; Function compile flags: /Ogsp
;	COMDAT ?_Compat@?$_Vector_const_iterator@V?$_Vector_val@V?$basic_string@DU?$char_traits@D@std@@V?$allocator@D@2@@std@@V?$allocator@V?$basic_string@DU?$char_traits@D@std@@V?$allocator@D@2@@std@@@2@@std@@@std@@QBEXABV12@@Z
_TEXT	SEGMENT
___formal$ = 8						; size = 4
?_Compat@?$_Vector_const_iterator@V?$_Vector_val@V?$basic_string@DU?$char_traits@D@std@@V?$allocator@D@2@@std@@V?$allocator@V?$basic_string@DU?$char_traits@D@std@@V?$allocator@D@2@@std@@@2@@std@@@std@@QBEXABV12@@Z PROC ; std::_Vector_const_iterator<std::_Vector_val<std::basic_string<char,std::char_traits<char>,std::allocator<char> >,std::allocator<std::basic_string<char,std::char_traits<char>,std::allocator<char> > > > >::_Compat, COMDAT
; _this$ = ecx

; 253  : 		}

  00000	c2 04 00	 ret	 4
?_Compat@?$_Vector_const_iterator@V?$_Vector_val@V?$basic_string@DU?$char_traits@D@std@@V?$allocator@D@2@@std@@V?$allocator@V?$basic_string@DU?$char_traits@D@std@@V?$allocator@D@2@@std@@@2@@std@@@std@@QBEXABV12@@Z ENDP ; std::_Vector_const_iterator<std::_Vector_val<std::basic_string<char,std::char_traits<char>,std::allocator<char> >,std::allocator<std::basic_string<char,std::char_traits<char>,std::allocator<char> > > > >::_Compat
_TEXT	ENDS
PUBLIC	?_Compat@?$_Vector_const_iterator@V?$_Vector_val@W4RaceDetailType@@V?$allocator@W4RaceDetailType@@@std@@@std@@@std@@QBEXABV12@@Z ; std::_Vector_const_iterator<std::_Vector_val<enum RaceDetailType,std::allocator<enum RaceDetailType> > >::_Compat
; Function compile flags: /Ogsp
;	COMDAT ?_Compat@?$_Vector_const_iterator@V?$_Vector_val@W4RaceDetailType@@V?$allocator@W4RaceDetailType@@@std@@@std@@@std@@QBEXABV12@@Z
_TEXT	SEGMENT
___formal$ = 8						; size = 4
?_Compat@?$_Vector_const_iterator@V?$_Vector_val@W4RaceDetailType@@V?$allocator@W4RaceDetailType@@@std@@@std@@@std@@QBEXABV12@@Z PROC ; std::_Vector_const_iterator<std::_Vector_val<enum RaceDetailType,std::allocator<enum RaceDetailType> > >::_Compat, COMDAT
; _this$ = ecx

; 253  : 		}

  00000	c2 04 00	 ret	 4
?_Compat@?$_Vector_const_iterator@V?$_Vector_val@W4RaceDetailType@@V?$allocator@W4RaceDetailType@@@std@@@std@@@std@@QBEXABV12@@Z ENDP ; std::_Vector_const_iterator<std::_Vector_val<enum RaceDetailType,std::allocator<enum RaceDetailType> > >::_Compat
_TEXT	ENDS
PUBLIC	??$addressof@W4RaceDetailType@@@std@@YAPAW4RaceDetailType@@AAW41@@Z ; std::addressof<enum RaceDetailType>
; Function compile flags: /Ogsp
; File c:\program files (x86)\microsoft visual studio 10.0\vc\include\xmemory
;	COMDAT ??$addressof@W4RaceDetailType@@@std@@YAPAW4RaceDetailType@@AAW41@@Z
_TEXT	SEGMENT
__Val$ = 8						; size = 4
??$addressof@W4RaceDetailType@@@std@@YAPAW4RaceDetailType@@AAW41@@Z PROC ; std::addressof<enum RaceDetailType>, COMDAT

; 110  : 	{	// return address of _Val

  00000	55		 push	 ebp
  00001	8b ec		 mov	 ebp, esp

; 111  : 	return ((_Ty *) &(char&)_Val);

  00003	8b 45 08	 mov	 eax, DWORD PTR __Val$[ebp]

; 112  : 	}

  00006	5d		 pop	 ebp
  00007	c3		 ret	 0
??$addressof@W4RaceDetailType@@@std@@YAPAW4RaceDetailType@@AAW41@@Z ENDP ; std::addressof<enum RaceDetailType>
_TEXT	ENDS
PUBLIC	??$forward@W4RaceDetailType@@@std@@YA$$QAW4RaceDetailType@@AAW41@@Z ; std::forward<enum RaceDetailType>
; Function compile flags: /Ogsp
; File c:\program files (x86)\microsoft visual studio 10.0\vc\include\utility
;	COMDAT ??$forward@W4RaceDetailType@@@std@@YA$$QAW4RaceDetailType@@AAW41@@Z
_TEXT	SEGMENT
__Arg$ = 8						; size = 4
??$forward@W4RaceDetailType@@@std@@YA$$QAW4RaceDetailType@@AAW41@@Z PROC ; std::forward<enum RaceDetailType>, COMDAT

; 78   : 	{	// forward _Arg, given explicitly specified type parameter

  00000	55		 push	 ebp
  00001	8b ec		 mov	 ebp, esp

; 79   : 	return ((_Ty&&)_Arg);

  00003	8b 45 08	 mov	 eax, DWORD PTR __Arg$[ebp]

; 80   : 	}

  00006	5d		 pop	 ebp
  00007	c3		 ret	 0
??$forward@W4RaceDetailType@@@std@@YA$$QAW4RaceDetailType@@AAW41@@Z ENDP ; std::forward<enum RaceDetailType>
_TEXT	ENDS
PUBLIC	__TI2?AVbad_alloc@std@@
PUBLIC	??$_Allocate@V?$basic_string@DU?$char_traits@D@std@@V?$allocator@D@2@@std@@@std@@YAPAV?$basic_string@DU?$char_traits@D@std@@V?$allocator@D@2@@0@IPAV10@@Z ; std::_Allocate<std::basic_string<char,std::char_traits<char>,std::allocator<char> > >
PUBLIC	__CTA2?AVbad_alloc@std@@
PUBLIC	__CT??_R0?AVbad_alloc@std@@@8??0bad_alloc@std@@QAE@ABV01@@Z12
PUBLIC	??0bad_alloc@std@@QAE@ABV01@@Z			; std::bad_alloc::bad_alloc
PUBLIC	__CT??_R0?AVexception@std@@@8??0exception@std@@QAE@ABV01@@Z12
EXTRN	??2@YAPAXI@Z:PROC				; operator new
EXTRN	__CxxThrowException@8:PROC
EXTRN	??0exception@std@@QAE@ABV01@@Z:PROC		; std::exception::exception
;	COMDAT __CT??_R0?AVexception@std@@@8??0exception@std@@QAE@ABV01@@Z12
; File c:\program files (x86)\microsoft visual studio 10.0\vc\include\exception
xdata$x	SEGMENT
__CT??_R0?AVexception@std@@@8??0exception@std@@QAE@ABV01@@Z12 DD 00H
	DD	FLAT:??_R0?AVexception@std@@@8
	DD	00H
	DD	0ffffffffH
	ORG $+4
	DD	0cH
	DD	FLAT:??0exception@std@@QAE@ABV01@@Z
xdata$x	ENDS
;	COMDAT __CT??_R0?AVbad_alloc@std@@@8??0bad_alloc@std@@QAE@ABV01@@Z12
xdata$x	SEGMENT
__CT??_R0?AVbad_alloc@std@@@8??0bad_alloc@std@@QAE@ABV01@@Z12 DD 00H
	DD	FLAT:??_R0?AVbad_alloc@std@@@8
	DD	00H
	DD	0ffffffffH
	ORG $+4
	DD	0cH
	DD	FLAT:??0bad_alloc@std@@QAE@ABV01@@Z
xdata$x	ENDS
;	COMDAT __CTA2?AVbad_alloc@std@@
xdata$x	SEGMENT
__CTA2?AVbad_alloc@std@@ DD 02H
	DD	FLAT:__CT??_R0?AVbad_alloc@std@@@8??0bad_alloc@std@@QAE@ABV01@@Z12
	DD	FLAT:__CT??_R0?AVexception@std@@@8??0exception@std@@QAE@ABV01@@Z12
xdata$x	ENDS
;	COMDAT __TI2?AVbad_alloc@std@@
xdata$x	SEGMENT
__TI2?AVbad_alloc@std@@ DD 00H
	DD	FLAT:??1bad_alloc@std@@UAE@XZ
	DD	00H
	DD	FLAT:__CTA2?AVbad_alloc@std@@
; Function compile flags: /Ogsp
; File c:\program files (x86)\microsoft visual studio 10.0\vc\include\xmemory
xdata$x	ENDS
;	COMDAT ??$_Allocate@V?$basic_string@DU?$char_traits@D@std@@V?$allocator@D@2@@std@@@std@@YAPAV?$basic_string@DU?$char_traits@D@std@@V?$allocator@D@2@@0@IPAV10@@Z
_TEXT	SEGMENT
$T510112 = -12						; size = 12
$T510117 = 8						; size = 4
__Count$ = 8						; size = 4
___formal$ = 12						; size = 4
??$_Allocate@V?$basic_string@DU?$char_traits@D@std@@V?$allocator@D@2@@std@@@std@@YAPAV?$basic_string@DU?$char_traits@D@std@@V?$allocator@D@2@@0@IPAV10@@Z PROC ; std::_Allocate<std::basic_string<char,std::char_traits<char>,std::allocator<char> > >, COMDAT

; 30   : 	{	// allocate storage for _Count elements of type _Ty

  00000	55		 push	 ebp
  00001	8b ec		 mov	 ebp, esp

; 31   : 	void *_Ptr = 0;
; 32   : 
; 33   : 	if (_Count <= 0)

  00003	8b 4d 08	 mov	 ecx, DWORD PTR __Count$[ebp]
  00006	83 ec 0c	 sub	 esp, 12			; 0000000cH
  00009	33 c0		 xor	 eax, eax
  0000b	85 c9		 test	 ecx, ecx

; 34   : 		_Count = 0;
; 35   : 	else if (((_SIZT)(-1) / sizeof (_Ty) < _Count)

  0000d	74 3c		 je	 SHORT $LN5@Allocate

; 36   : 		|| (_Ptr = ::operator new(_Count * sizeof (_Ty))) == 0)

  0000f	81 f9 49 92 24
	09		 cmp	 ecx, 153391689		; 09249249H
  00015	77 0e		 ja	 SHORT $LN1@Allocate
  00017	6b c9 1c	 imul	 ecx, 28			; 0000001cH
  0001a	51		 push	 ecx
  0001b	e8 00 00 00 00	 call	 ??2@YAPAXI@Z		; operator new
  00020	59		 pop	 ecx
  00021	85 c0		 test	 eax, eax

; 38   : 
; 39   : 	return ((_Ty _FARQ *)_Ptr);

  00023	75 26		 jne	 SHORT $LN5@Allocate
$LN1@Allocate:

; 37   : 		_THROW_NCEE(bad_alloc, 0);

  00025	83 65 08 00	 and	 DWORD PTR $T510117[ebp], 0
  00029	8d 45 08	 lea	 eax, DWORD PTR $T510117[ebp]
  0002c	50		 push	 eax
  0002d	8d 4d f4	 lea	 ecx, DWORD PTR $T510112[ebp]
  00030	ff 15 00 00 00
	00		 call	 DWORD PTR __imp_??0exception@std@@QAE@ABQBD@Z
  00036	68 00 00 00 00	 push	 OFFSET __TI2?AVbad_alloc@std@@
  0003b	8d 45 f4	 lea	 eax, DWORD PTR $T510112[ebp]
  0003e	50		 push	 eax
  0003f	c7 45 f4 00 00
	00 00		 mov	 DWORD PTR $T510112[ebp], OFFSET ??_7bad_alloc@std@@6B@
  00046	e8 00 00 00 00	 call	 __CxxThrowException@8
$LN10@Allocate:
$LN5@Allocate:

; 40   : 	}

  0004b	c9		 leave
  0004c	c3		 ret	 0
$LN9@Allocate:
??$_Allocate@V?$basic_string@DU?$char_traits@D@std@@V?$allocator@D@2@@std@@@std@@YAPAV?$basic_string@DU?$char_traits@D@std@@V?$allocator@D@2@@0@IPAV10@@Z ENDP ; std::_Allocate<std::basic_string<char,std::char_traits<char>,std::allocator<char> > >
_TEXT	ENDS
PUBLIC	??$_Allocate@W4RaceDetailType@@@std@@YAPAW4RaceDetailType@@IPAW41@@Z ; std::_Allocate<enum RaceDetailType>
; Function compile flags: /Ogsp
;	COMDAT ??$_Allocate@W4RaceDetailType@@@std@@YAPAW4RaceDetailType@@IPAW41@@Z
_TEXT	SEGMENT
$T510122 = -12						; size = 12
$T510126 = 8						; size = 4
__Count$ = 8						; size = 4
___formal$ = 12						; size = 4
??$_Allocate@W4RaceDetailType@@@std@@YAPAW4RaceDetailType@@IPAW41@@Z PROC ; std::_Allocate<enum RaceDetailType>, COMDAT

; 30   : 	{	// allocate storage for _Count elements of type _Ty

  00000	55		 push	 ebp
  00001	8b ec		 mov	 ebp, esp

; 31   : 	void *_Ptr = 0;
; 32   : 
; 33   : 	if (_Count <= 0)

  00003	8b 4d 08	 mov	 ecx, DWORD PTR __Count$[ebp]
  00006	83 ec 0c	 sub	 esp, 12			; 0000000cH
  00009	33 c0		 xor	 eax, eax
  0000b	85 c9		 test	 ecx, ecx

; 34   : 		_Count = 0;
; 35   : 	else if (((_SIZT)(-1) / sizeof (_Ty) < _Count)

  0000d	74 3e		 je	 SHORT $LN5@Allocate@2

; 36   : 		|| (_Ptr = ::operator new(_Count * sizeof (_Ty))) == 0)

  0000f	81 f9 ff ff ff
	3f		 cmp	 ecx, 1073741823		; 3fffffffH
  00015	77 10		 ja	 SHORT $LN1@Allocate@2
  00017	8b c1		 mov	 eax, ecx
  00019	c1 e0 02	 shl	 eax, 2
  0001c	50		 push	 eax
  0001d	e8 00 00 00 00	 call	 ??2@YAPAXI@Z		; operator new
  00022	59		 pop	 ecx
  00023	85 c0		 test	 eax, eax

; 38   : 
; 39   : 	return ((_Ty _FARQ *)_Ptr);

  00025	75 26		 jne	 SHORT $LN5@Allocate@2
$LN1@Allocate@2:

; 37   : 		_THROW_NCEE(bad_alloc, 0);

  00027	83 65 08 00	 and	 DWORD PTR $T510126[ebp], 0
  0002b	8d 45 08	 lea	 eax, DWORD PTR $T510126[ebp]
  0002e	50		 push	 eax
  0002f	8d 4d f4	 lea	 ecx, DWORD PTR $T510122[ebp]
  00032	ff 15 00 00 00
	00		 call	 DWORD PTR __imp_??0exception@std@@QAE@ABQBD@Z
  00038	68 00 00 00 00	 push	 OFFSET __TI2?AVbad_alloc@std@@
  0003d	8d 45 f4	 lea	 eax, DWORD PTR $T510122[ebp]
  00040	50		 push	 eax
  00041	c7 45 f4 00 00
	00 00		 mov	 DWORD PTR $T510122[ebp], OFFSET ??_7bad_alloc@std@@6B@
  00048	e8 00 00 00 00	 call	 __CxxThrowException@8
$LN10@Allocate@2:
$LN5@Allocate@2:

; 40   : 	}

  0004d	c9		 leave
  0004e	c3		 ret	 0
$LN9@Allocate@2:
??$_Allocate@W4RaceDetailType@@@std@@YAPAW4RaceDetailType@@IPAW41@@Z ENDP ; std::_Allocate<enum RaceDetailType>
_TEXT	ENDS
PUBLIC	?construct@?$allocator@W4RaceDetailType@@@std@@QAEXPAW4RaceDetailType@@$$QAW43@@Z ; std::allocator<enum RaceDetailType>::construct
; Function compile flags: /Ogsp
;	COMDAT ?construct@?$allocator@W4RaceDetailType@@@std@@QAEXPAW4RaceDetailType@@$$QAW43@@Z
_TEXT	SEGMENT
__Ptr$ = 8						; size = 4
__Val$ = 12						; size = 4
?construct@?$allocator@W4RaceDetailType@@@std@@QAEXPAW4RaceDetailType@@$$QAW43@@Z PROC ; std::allocator<enum RaceDetailType>::construct, COMDAT
; _this$ = ecx

; 201  : 		{	// construct object at _Ptr with value _Val

  00000	55		 push	 ebp
  00001	8b ec		 mov	 ebp, esp

; 202  : 		::new ((void _FARQ *)_Ptr) _Ty(_STD forward<_Ty>(_Val));

  00003	8b 45 08	 mov	 eax, DWORD PTR __Ptr$[ebp]
  00006	85 c0		 test	 eax, eax
  00008	74 07		 je	 SHORT $LN3@construct
  0000a	8b 4d 0c	 mov	 ecx, DWORD PTR __Val$[ebp]
  0000d	8b 09		 mov	 ecx, DWORD PTR [ecx]
  0000f	89 08		 mov	 DWORD PTR [eax], ecx
$LN3@construct:

; 203  : 		}

  00011	5d		 pop	 ebp
  00012	c2 08 00	 ret	 8
?construct@?$allocator@W4RaceDetailType@@@std@@QAEXPAW4RaceDetailType@@$$QAW43@@Z ENDP ; std::allocator<enum RaceDetailType>::construct
_TEXT	ENDS
PUBLIC	??$_Ptr_cat@W4RaceDetailType@@W41@@std@@YA?AU_Scalar_ptr_iterator_tag@0@PAW4RaceDetailType@@0@Z ; std::_Ptr_cat<enum RaceDetailType,enum RaceDetailType>
; Function compile flags: /Ogsp
; File c:\program files (x86)\microsoft visual studio 10.0\vc\include\xutility
;	COMDAT ??$_Ptr_cat@W4RaceDetailType@@W41@@std@@YA?AU_Scalar_ptr_iterator_tag@0@PAW4RaceDetailType@@0@Z
_TEXT	SEGMENT
__Cat$ = -1						; size = 1
___formal$ = 8						; size = 4
___formal$ = 12						; size = 4
??$_Ptr_cat@W4RaceDetailType@@W41@@std@@YA?AU_Scalar_ptr_iterator_tag@0@PAW4RaceDetailType@@0@Z PROC ; std::_Ptr_cat<enum RaceDetailType,enum RaceDetailType>, COMDAT

; 516  : 	{	// return pointer category from pointers

  00000	55		 push	 ebp
  00001	8b ec		 mov	 ebp, esp
  00003	51		 push	 ecx

; 517  : 	typename _Ptr_cat_helper<_Elem1, _Elem2>::_Type _Cat;
; 518  : 	return (_Cat);

  00004	8a 45 ff	 mov	 al, BYTE PTR __Cat$[ebp]

; 519  : 	}

  00007	c9		 leave
  00008	c3		 ret	 0
??$_Ptr_cat@W4RaceDetailType@@W41@@std@@YA?AU_Scalar_ptr_iterator_tag@0@PAW4RaceDetailType@@0@Z ENDP ; std::_Ptr_cat<enum RaceDetailType,enum RaceDetailType>
_TEXT	ENDS
PUBLIC	??$_Move@PAW4RaceDetailType@@PAW41@@std@@YAPAW4RaceDetailType@@PAW41@00U_Scalar_ptr_iterator_tag@0@@Z ; std::_Move<enum RaceDetailType *,enum RaceDetailType *>
; Function compile flags: /Ogsp
;	COMDAT ??$_Move@PAW4RaceDetailType@@PAW41@@std@@YAPAW4RaceDetailType@@PAW41@00U_Scalar_ptr_iterator_tag@0@@Z
_TEXT	SEGMENT
__First$ = 8						; size = 4
__Last$ = 12						; size = 4
__Dest$ = 16						; size = 4
___formal$ = 20						; size = 1
??$_Move@PAW4RaceDetailType@@PAW41@@std@@YAPAW4RaceDetailType@@PAW41@00U_Scalar_ptr_iterator_tag@0@@Z PROC ; std::_Move<enum RaceDetailType *,enum RaceDetailType *>, COMDAT

; 2522 : 	{	// move [_First, _Last) to [_Dest, ...), pointers to scalars

  00000	55		 push	 ebp
  00001	8b ec		 mov	 ebp, esp
  00003	56		 push	 esi

; 2523 : 	ptrdiff_t _Count = _Last - _First;

  00004	8b 75 0c	 mov	 esi, DWORD PTR __Last$[ebp]
  00007	2b 75 08	 sub	 esi, DWORD PTR __First$[ebp]
  0000a	57		 push	 edi

; 2524 : 	_CSTD memmove(&*_Dest, &*_First,
; 2525 : 		_Count * sizeof (*_First));

  0000b	8b 7d 10	 mov	 edi, DWORD PTR __Dest$[ebp]
  0000e	c1 fe 02	 sar	 esi, 2
  00011	c1 e6 02	 shl	 esi, 2
  00014	56		 push	 esi
  00015	ff 75 08	 push	 DWORD PTR __First$[ebp]
  00018	57		 push	 edi
  00019	ff 15 00 00 00
	00		 call	 DWORD PTR __imp__memmove
  0001f	83 c4 0c	 add	 esp, 12			; 0000000cH

; 2526 : 	return (_Dest + _Count);

  00022	8d 04 3e	 lea	 eax, DWORD PTR [esi+edi]
  00025	5f		 pop	 edi
  00026	5e		 pop	 esi

; 2527 : 	}

  00027	5d		 pop	 ebp
  00028	c3		 ret	 0
??$_Move@PAW4RaceDetailType@@PAW41@@std@@YAPAW4RaceDetailType@@PAW41@00U_Scalar_ptr_iterator_tag@0@@Z ENDP ; std::_Move<enum RaceDetailType *,enum RaceDetailType *>
_TEXT	ENDS
PUBLIC	??$_Destroy_range@V?$allocator@W4RaceDetailType@@@std@@@std@@YAXPAW4RaceDetailType@@0AAV?$allocator@W4RaceDetailType@@@0@U_Scalar_ptr_iterator_tag@0@@Z ; std::_Destroy_range<std::allocator<enum RaceDetailType> >
; Function compile flags: /Ogsp
; File c:\program files (x86)\microsoft visual studio 10.0\vc\include\xmemory
;	COMDAT ??$_Destroy_range@V?$allocator@W4RaceDetailType@@@std@@@std@@YAXPAW4RaceDetailType@@0AAV?$allocator@W4RaceDetailType@@@0@U_Scalar_ptr_iterator_tag@0@@Z
_TEXT	SEGMENT
__First$ = 8						; size = 4
__Last$ = 12						; size = 4
__Al$ = 16						; size = 4
___formal$ = 20						; size = 1
??$_Destroy_range@V?$allocator@W4RaceDetailType@@@std@@@std@@YAXPAW4RaceDetailType@@0AAV?$allocator@W4RaceDetailType@@@0@U_Scalar_ptr_iterator_tag@0@@Z PROC ; std::_Destroy_range<std::allocator<enum RaceDetailType> >, COMDAT

; 105  : 	}

  00000	c3		 ret	 0
??$_Destroy_range@V?$allocator@W4RaceDetailType@@@std@@@std@@YAXPAW4RaceDetailType@@0AAV?$allocator@W4RaceDetailType@@@0@U_Scalar_ptr_iterator_tag@0@@Z ENDP ; std::_Destroy_range<std::allocator<enum RaceDetailType> >
_TEXT	ENDS
PUBLIC	??$_Ptr_cat@PBVioItem@@PBV1@@std@@YA?AU_Scalar_ptr_iterator_tag@0@PAPBVioItem@@0@Z ; std::_Ptr_cat<ioItem const *,ioItem const *>
; Function compile flags: /Ogsp
; File c:\program files (x86)\microsoft visual studio 10.0\vc\include\xutility
;	COMDAT ??$_Ptr_cat@PBVioItem@@PBV1@@std@@YA?AU_Scalar_ptr_iterator_tag@0@PAPBVioItem@@0@Z
_TEXT	SEGMENT
__Cat$ = -1						; size = 1
___formal$ = 8						; size = 4
___formal$ = 12						; size = 4
??$_Ptr_cat@PBVioItem@@PBV1@@std@@YA?AU_Scalar_ptr_iterator_tag@0@PAPBVioItem@@0@Z PROC ; std::_Ptr_cat<ioItem const *,ioItem const *>, COMDAT

; 516  : 	{	// return pointer category from pointers

  00000	55		 push	 ebp
  00001	8b ec		 mov	 ebp, esp
  00003	51		 push	 ecx

; 517  : 	typename _Ptr_cat_helper<_Elem1, _Elem2>::_Type _Cat;
; 518  : 	return (_Cat);

  00004	8a 45 ff	 mov	 al, BYTE PTR __Cat$[ebp]

; 519  : 	}

  00007	c9		 leave
  00008	c3		 ret	 0
??$_Ptr_cat@PBVioItem@@PBV1@@std@@YA?AU_Scalar_ptr_iterator_tag@0@PAPBVioItem@@0@Z ENDP ; std::_Ptr_cat<ioItem const *,ioItem const *>
_TEXT	ENDS
PUBLIC	??$_Destroy_range@V?$allocator@PBVioItem@@@std@@@std@@YAXPAPBVioItem@@0AAV?$allocator@PBVioItem@@@0@U_Scalar_ptr_iterator_tag@0@@Z ; std::_Destroy_range<std::allocator<ioItem const *> >
; Function compile flags: /Ogsp
; File c:\program files (x86)\microsoft visual studio 10.0\vc\include\xmemory
;	COMDAT ??$_Destroy_range@V?$allocator@PBVioItem@@@std@@@std@@YAXPAPBVioItem@@0AAV?$allocator@PBVioItem@@@0@U_Scalar_ptr_iterator_tag@0@@Z
_TEXT	SEGMENT
__First$ = 8						; size = 4
__Last$ = 12						; size = 4
__Al$ = 16						; size = 4
___formal$ = 20						; size = 1
??$_Destroy_range@V?$allocator@PBVioItem@@@std@@@std@@YAXPAPBVioItem@@0AAV?$allocator@PBVioItem@@@0@U_Scalar_ptr_iterator_tag@0@@Z PROC ; std::_Destroy_range<std::allocator<ioItem const *> >, COMDAT

; 105  : 	}

  00000	c3		 ret	 0
??$_Destroy_range@V?$allocator@PBVioItem@@@std@@@std@@YAXPAPBVioItem@@0AAV?$allocator@PBVioItem@@@0@U_Scalar_ptr_iterator_tag@0@@Z ENDP ; std::_Destroy_range<std::allocator<ioItem const *> >
_TEXT	ENDS
PUBLIC	??$_Val_type@PAW4RaceDetailType@@@std@@YAPAW4RaceDetailType@@PAW41@@Z ; std::_Val_type<enum RaceDetailType *>
; Function compile flags: /Ogsp
; File c:\program files (x86)\microsoft visual studio 10.0\vc\include\xutility
;	COMDAT ??$_Val_type@PAW4RaceDetailType@@@std@@YAPAW4RaceDetailType@@PAW41@@Z
_TEXT	SEGMENT
___formal$ = 8						; size = 4
??$_Val_type@PAW4RaceDetailType@@@std@@YAPAW4RaceDetailType@@PAW41@@Z PROC ; std::_Val_type<enum RaceDetailType *>, COMDAT

; 790  : 	return (0);

  00000	33 c0		 xor	 eax, eax

; 791  : 	}

  00002	c3		 ret	 0
??$_Val_type@PAW4RaceDetailType@@@std@@YAPAW4RaceDetailType@@PAW41@@Z ENDP ; std::_Val_type<enum RaceDetailType *>
_TEXT	ENDS
PUBLIC	??$_Uninit_move@W4RaceDetailType@@W41@W41@@std@@YAPAW4RaceDetailType@@PAW41@00AAV?$allocator@W4RaceDetailType@@@0@0U_Scalar_ptr_iterator_tag@0@@Z ; std::_Uninit_move<enum RaceDetailType,enum RaceDetailType,enum RaceDetailType>
; Function compile flags: /Ogsp
; File c:\program files (x86)\microsoft visual studio 10.0\vc\include\memory
;	COMDAT ??$_Uninit_move@W4RaceDetailType@@W41@W41@@std@@YAPAW4RaceDetailType@@PAW41@00AAV?$allocator@W4RaceDetailType@@@0@0U_Scalar_ptr_iterator_tag@0@@Z
_TEXT	SEGMENT
__First$ = 8						; size = 4
__Last$ = 12						; size = 4
__Dest$ = 16						; size = 4
___formal$ = 20						; size = 4
___formal$ = 24						; size = 4
___formal$ = 28						; size = 1
??$_Uninit_move@W4RaceDetailType@@W41@W41@@std@@YAPAW4RaceDetailType@@PAW41@00AAV?$allocator@W4RaceDetailType@@@0@0U_Scalar_ptr_iterator_tag@0@@Z PROC ; std::_Uninit_move<enum RaceDetailType,enum RaceDetailType,enum RaceDetailType>, COMDAT

; 456  : 	{	// move [_First, _Last) to raw _Dest, scalar type

  00000	55		 push	 ebp
  00001	8b ec		 mov	 ebp, esp
  00003	56		 push	 esi

; 457  : 	_DEBUG_RANGE(_First, _Last);
; 458  : 	_DEBUG_POINTER(_Dest);
; 459  : 	size_t _Count = (size_t)(_Last - _First);

  00004	8b 75 0c	 mov	 esi, DWORD PTR __Last$[ebp]
  00007	2b 75 08	 sub	 esi, DWORD PTR __First$[ebp]
  0000a	c1 fe 02	 sar	 esi, 2

; 460  : 	return ((_Ty2 *)_CSTD memmove(&*_Dest, &*_First,
; 461  : 		_Count * sizeof (*_First)) + _Count);	// NB: non-overlapping move

  0000d	c1 e6 02	 shl	 esi, 2
  00010	56		 push	 esi
  00011	ff 75 08	 push	 DWORD PTR __First$[ebp]
  00014	ff 75 10	 push	 DWORD PTR __Dest$[ebp]
  00017	ff 15 00 00 00
	00		 call	 DWORD PTR __imp__memmove
  0001d	83 c4 0c	 add	 esp, 12			; 0000000cH
  00020	03 c6		 add	 eax, esi
  00022	5e		 pop	 esi

; 462  : 	}

  00023	5d		 pop	 ebp
  00024	c3		 ret	 0
??$_Uninit_move@W4RaceDetailType@@W41@W41@@std@@YAPAW4RaceDetailType@@PAW41@00AAV?$allocator@W4RaceDetailType@@@0@0U_Scalar_ptr_iterator_tag@0@@Z ENDP ; std::_Uninit_move<enum RaceDetailType,enum RaceDetailType,enum RaceDetailType>
_TEXT	ENDS
PUBLIC	??$forward@AAV?$basic_string@DU?$char_traits@D@std@@V?$allocator@D@2@@std@@@std@@YAAAV?$basic_string@DU?$char_traits@D@std@@V?$allocator@D@2@@0@AAV10@@Z ; std::forward<std::basic_string<char,std::char_traits<char>,std::allocator<char> > &>
; Function compile flags: /Ogsp
; File c:\program files (x86)\microsoft visual studio 10.0\vc\include\utility
;	COMDAT ??$forward@AAV?$basic_string@DU?$char_traits@D@std@@V?$allocator@D@2@@std@@@std@@YAAAV?$basic_string@DU?$char_traits@D@std@@V?$allocator@D@2@@0@AAV10@@Z
_TEXT	SEGMENT
__Arg$ = 8						; size = 4
??$forward@AAV?$basic_string@DU?$char_traits@D@std@@V?$allocator@D@2@@std@@@std@@YAAAV?$basic_string@DU?$char_traits@D@std@@V?$allocator@D@2@@0@AAV10@@Z PROC ; std::forward<std::basic_string<char,std::char_traits<char>,std::allocator<char> > &>, COMDAT

; 78   : 	{	// forward _Arg, given explicitly specified type parameter

  00000	55		 push	 ebp
  00001	8b ec		 mov	 ebp, esp

; 79   : 	return ((_Ty&&)_Arg);

  00003	8b 45 08	 mov	 eax, DWORD PTR __Arg$[ebp]

; 80   : 	}

  00006	5d		 pop	 ebp
  00007	c3		 ret	 0
??$forward@AAV?$basic_string@DU?$char_traits@D@std@@V?$allocator@D@2@@std@@@std@@YAAAV?$basic_string@DU?$char_traits@D@std@@V?$allocator@D@2@@0@AAV10@@Z ENDP ; std::forward<std::basic_string<char,std::char_traits<char>,std::allocator<char> > &>
_TEXT	ENDS
PUBLIC	??_H@YGXPAXIHP6EPAX0@Z@Z			; `vector constructor iterator'
; Function compile flags: /Ogsp
;	COMDAT ??_H@YGXPAXIHP6EPAX0@Z@Z
_TEXT	SEGMENT
___t$ = 8						; size = 4
___s$ = 12						; size = 4
___n$ = 16						; size = 4
___f$ = 20						; size = 4
??_H@YGXPAXIHP6EPAX0@Z@Z PROC				; `vector constructor iterator', COMDAT
  00000	55		 push	 ebp
  00001	8b ec		 mov	 ebp, esp
  00003	ff 4d 10	 dec	 DWORD PTR ___n$[ebp]
  00006	78 12		 js	 SHORT $LN1@vector
  00008	56		 push	 esi
  00009	8b 75 08	 mov	 esi, DWORD PTR ___t$[ebp]
$LL2@vector:
  0000c	8b ce		 mov	 ecx, esi
  0000e	ff 55 14	 call	 DWORD PTR ___f$[ebp]
  00011	03 75 0c	 add	 esi, DWORD PTR ___s$[ebp]
  00014	ff 4d 10	 dec	 DWORD PTR ___n$[ebp]
  00017	79 f3		 jns	 SHORT $LL2@vector
  00019	5e		 pop	 esi
$LN1@vector:
  0001a	5d		 pop	 ebp
  0001b	c2 10 00	 ret	 16			; 00000010H
??_H@YGXPAXIHP6EPAX0@Z@Z ENDP				; `vector constructor iterator'
_TEXT	ENDS
PUBLIC	?_DECSTR@@YAXPADH@Z				; _DECSTR
; Function compile flags: /Ogsp
; File d:\lost saga for developer\youtube\tutorial\source\src\lsclient\stringprotect.h
;	COMDAT ?_DECSTR@@YAXPADH@Z
_TEXT	SEGMENT
_s$ = 8							; size = 4
_l$ = 12						; size = 4
?_DECSTR@@YAXPADH@Z PROC				; _DECSTR, COMDAT

; 40   : __forceinline void _DECSTR(char* s, int l){int i=0,l4=(l-1)/4,*p=(int*)s;s[l-1]=0;for(;i<l4;++i)*(p++)^=0xEAEBECED;for(i=l4*4;i<l-1;++i)s[i]^=0xED-i%4;}

  00000	55		 push	 ebp
  00001	8b ec		 mov	 ebp, esp
  00003	8b 4d 0c	 mov	 ecx, DWORD PTR _l$[ebp]
  00006	56		 push	 esi
  00007	8b 75 08	 mov	 esi, DWORD PTR _s$[ebp]
  0000a	57		 push	 edi
  0000b	8d 79 ff	 lea	 edi, DWORD PTR [ecx-1]
  0000e	8b c7		 mov	 eax, edi
  00010	99		 cdq
  00011	83 e2 03	 and	 edx, 3
  00014	03 c2		 add	 eax, edx
  00016	c1 f8 02	 sar	 eax, 2
  00019	8b d6		 mov	 edx, esi
  0001b	c6 44 0e ff 00	 mov	 BYTE PTR [esi+ecx-1], 0
  00020	85 c0		 test	 eax, eax
  00022	7e 0e		 jle	 SHORT $LN4@DECSTR
  00024	8b c8		 mov	 ecx, eax
$LL6@DECSTR:
  00026	81 32 ed ec eb
	ea		 xor	 DWORD PTR [edx], -353637139 ; eaebecedH
  0002c	83 c2 04	 add	 edx, 4
  0002f	49		 dec	 ecx
  00030	75 f4		 jne	 SHORT $LL6@DECSTR
$LN4@DECSTR:
  00032	c1 e0 02	 shl	 eax, 2
  00035	eb 17		 jmp	 SHORT $LN14@DECSTR
$LL3@DECSTR:
  00037	8b c8		 mov	 ecx, eax
  00039	81 e1 03 00 00
	80		 and	 ecx, -2147483645	; 80000003H
  0003f	79 05		 jns	 SHORT $LN13@DECSTR
  00041	49		 dec	 ecx
  00042	83 c9 fc	 or	 ecx, -4			; fffffffcH
  00045	41		 inc	 ecx
$LN13@DECSTR:
  00046	b2 ed		 mov	 dl, -19			; ffffffedH
  00048	2a d1		 sub	 dl, cl
  0004a	30 14 30	 xor	 BYTE PTR [eax+esi], dl
  0004d	40		 inc	 eax
$LN14@DECSTR:
  0004e	3b c7		 cmp	 eax, edi
  00050	7c e5		 jl	 SHORT $LL3@DECSTR
  00052	5f		 pop	 edi
  00053	5e		 pop	 esi
  00054	5d		 pop	 ebp
  00055	c3		 ret	 0
?_DECSTR@@YAXPADH@Z ENDP				; _DECSTR
_TEXT	ENDS
PUBLIC	?Init@tagCostumeEquipInfo@@QAEXXZ		; tagCostumeEquipInfo::Init
; Function compile flags: /Ogsp
; File d:\lost saga for developer\youtube\tutorial\source\src\lsclient\costumeenumtype.h
;	COMDAT ?Init@tagCostumeEquipInfo@@QAEXXZ
_TEXT	SEGMENT
?Init@tagCostumeEquipInfo@@QAEXXZ PROC			; tagCostumeEquipInfo::Init, COMDAT
; _this$ = ecx

; 31   : 		m_CostumeIdx = 0;

  00000	33 c0		 xor	 eax, eax
  00002	89 01		 mov	 DWORD PTR [ecx], eax

; 32   : 		m_CostumeCode = 0;

  00004	89 41 04	 mov	 DWORD PTR [ecx+4], eax

; 33   : 		m_Costume_Male_Custom = 0;  

  00007	89 41 08	 mov	 DWORD PTR [ecx+8], eax

; 34   : 		m_Costume_Female_Custom = 0;

  0000a	89 41 0c	 mov	 DWORD PTR [ecx+12], eax

; 35   : 	}

  0000d	c3		 ret	 0
?Init@tagCostumeEquipInfo@@QAEXXZ ENDP			; tagCostumeEquipInfo::Init
_TEXT	ENDS
PUBLIC	??0tagCostumeEquipInfo@@QAE@XZ			; tagCostumeEquipInfo::tagCostumeEquipInfo
; Function compile flags: /Ogsp
;	COMDAT ??0tagCostumeEquipInfo@@QAE@XZ
_TEXT	SEGMENT
??0tagCostumeEquipInfo@@QAE@XZ PROC			; tagCostumeEquipInfo::tagCostumeEquipInfo, COMDAT
; _this$ = ecx

; 37   : 	tagCostumeEquipInfo()

  00000	8b c1		 mov	 eax, ecx

; 38   : 	{
; 39   : 		Init();

  00002	33 c9		 xor	 ecx, ecx
  00004	89 08		 mov	 DWORD PTR [eax], ecx
  00006	89 48 04	 mov	 DWORD PTR [eax+4], ecx
  00009	89 48 08	 mov	 DWORD PTR [eax+8], ecx
  0000c	89 48 0c	 mov	 DWORD PTR [eax+12], ecx

; 40   : 	}

  0000f	c3		 ret	 0
??0tagCostumeEquipInfo@@QAE@XZ ENDP			; tagCostumeEquipInfo::tagCostumeEquipInfo
_TEXT	ENDS
PUBLIC	?Init@tagAccessoryEquipInfo@@QAEXXZ		; tagAccessoryEquipInfo::Init
; Function compile flags: /Ogsp
; File d:\lost saga for developer\youtube\tutorial\source\src\lsclient\accessoryenumtype.h
;	COMDAT ?Init@tagAccessoryEquipInfo@@QAEXXZ
_TEXT	SEGMENT
?Init@tagAccessoryEquipInfo@@QAEXXZ PROC		; tagAccessoryEquipInfo::Init, COMDAT
; _this$ = ecx

; 23   : 		m_iAccessoryIdx = 0;

  00000	33 c0		 xor	 eax, eax
  00002	89 01		 mov	 DWORD PTR [ecx], eax

; 24   : 		m_iAccessoryCode = 0;

  00004	89 41 04	 mov	 DWORD PTR [ecx+4], eax

; 25   : 		m_iRandomNumber = 0;

  00007	89 41 08	 mov	 DWORD PTR [ecx+8], eax

; 26   : 	}

  0000a	c3		 ret	 0
?Init@tagAccessoryEquipInfo@@QAEXXZ ENDP		; tagAccessoryEquipInfo::Init
_TEXT	ENDS
PUBLIC	??0tagAccessoryEquipInfo@@QAE@XZ		; tagAccessoryEquipInfo::tagAccessoryEquipInfo
; Function compile flags: /Ogsp
;	COMDAT ??0tagAccessoryEquipInfo@@QAE@XZ
_TEXT	SEGMENT
??0tagAccessoryEquipInfo@@QAE@XZ PROC			; tagAccessoryEquipInfo::tagAccessoryEquipInfo, COMDAT
; _this$ = ecx

; 28   : 	tagAccessoryEquipInfo()

  00000	8b c1		 mov	 eax, ecx

; 29   : 	{
; 30   : 		Init();

  00002	33 c9		 xor	 ecx, ecx
  00004	89 08		 mov	 DWORD PTR [eax], ecx
  00006	89 48 04	 mov	 DWORD PTR [eax+4], ecx
  00009	89 48 08	 mov	 DWORD PTR [eax+8], ecx

; 31   : 	}

  0000c	c3		 ret	 0
??0tagAccessoryEquipInfo@@QAE@XZ ENDP			; tagAccessoryEquipInfo::tagAccessoryEquipInfo
_TEXT	ENDS
PUBLIC	?GetCurMaxCharSlot@ioMyInfo@@QBEHXZ		; ioMyInfo::GetCurMaxCharSlot
; Function compile flags: /Ogsp
; File d:\lost saga for developer\youtube\tutorial\source\src\lsclient\iomyinfo.h
;	COMDAT ?GetCurMaxCharSlot@ioMyInfo@@QBEHXZ
_TEXT	SEGMENT
?GetCurMaxCharSlot@ioMyInfo@@QBEHXZ PROC		; ioMyInfo::GetCurMaxCharSlot, COMDAT
; _this$ = ecx

; 862  : 	inline int GetCurMaxCharSlot() const { return m_iCurMaxCharSlot; }

  00000	8b 81 80 08 00
	00		 mov	 eax, DWORD PTR [ecx+2176]
  00006	c3		 ret	 0
?GetCurMaxCharSlot@ioMyInfo@@QBEHXZ ENDP		; ioMyInfo::GetCurMaxCharSlot
_TEXT	ENDS
PUBLIC	?GetName@ioSetItemInfo@@QBEABVioHashString@@XZ	; ioSetItemInfo::GetName
; Function compile flags: /Ogsp
; File d:\lost saga for developer\youtube\tutorial\source\src\lsclient\iosetiteminfo.h
;	COMDAT ?GetName@ioSetItemInfo@@QBEABVioHashString@@XZ
_TEXT	SEGMENT
?GetName@ioSetItemInfo@@QBEABVioHashString@@XZ PROC	; ioSetItemInfo::GetName, COMDAT
; _this$ = ecx

; 117  : 	inline const ioHashString& GetName() const { return m_SetName; }

  00000	8d 41 08	 lea	 eax, DWORD PTR [ecx+8]
  00003	c3		 ret	 0
?GetName@ioSetItemInfo@@QBEABVioHashString@@XZ ENDP	; ioSetItemInfo::GetName
_TEXT	ENDS
PUBLIC	?size@?$basic_string@DU?$char_traits@D@std@@V?$allocator@D@2@@std@@QBEIXZ ; std::basic_string<char,std::char_traits<char>,std::allocator<char> >::size
; Function compile flags: /Ogsp
; File c:\program files (x86)\microsoft visual studio 10.0\vc\include\xstring
;	COMDAT ?size@?$basic_string@DU?$char_traits@D@std@@V?$allocator@D@2@@std@@QBEIXZ
_TEXT	SEGMENT
?size@?$basic_string@DU?$char_traits@D@std@@V?$allocator@D@2@@std@@QBEIXZ PROC ; std::basic_string<char,std::char_traits<char>,std::allocator<char> >::size, COMDAT
; _this$ = ecx

; 1512 : 		return (this->_Mysize);

  00000	8b 41 10	 mov	 eax, DWORD PTR [ecx+16]

; 1513 : 		}

  00003	c3		 ret	 0
?size@?$basic_string@DU?$char_traits@D@std@@V?$allocator@D@2@@std@@QBEIXZ ENDP ; std::basic_string<char,std::char_traits<char>,std::allocator<char> >::size
_TEXT	ENDS
PUBLIC	??_7?$CEncrypt@H@@6B@				; CEncrypt<int>::`vftable'
PUBLIC	??1?$CEncrypt@H@@UAE@XZ				; CEncrypt<int>::~CEncrypt<int>
PUBLIC	??_R4?$CEncrypt@H@@6B@				; CEncrypt<int>::`RTTI Complete Object Locator'
PUBLIC	??_R0?AV?$CEncrypt@H@@@8			; CEncrypt<int> `RTTI Type Descriptor'
PUBLIC	??_R3?$CEncrypt@H@@8				; CEncrypt<int>::`RTTI Class Hierarchy Descriptor'
PUBLIC	??_R2?$CEncrypt@H@@8				; CEncrypt<int>::`RTTI Base Class Array'
PUBLIC	??_R1A@?0A@EA@?$CEncrypt@H@@8			; CEncrypt<int>::`RTTI Base Class Descriptor at (0,-1,0,64)'
EXTRN	??1ccddaabb@@UAE@XZ:PROC			; ccddaabb::~ccddaabb
EXTRN	??_E?$CEncrypt@H@@UAEPAXI@Z:PROC		; CEncrypt<int>::`vector deleting destructor'
;	COMDAT ??_R1A@?0A@EA@?$CEncrypt@H@@8
; File d:\lost saga for developer\youtube\tutorial\source\src\lsclient\encryptvalue.h
rdata$r	SEGMENT
??_R1A@?0A@EA@?$CEncrypt@H@@8 DD FLAT:??_R0?AV?$CEncrypt@H@@@8 ; CEncrypt<int>::`RTTI Base Class Descriptor at (0,-1,0,64)'
	DD	00H
	DD	00H
	DD	0ffffffffH
	DD	00H
	DD	040H
	DD	FLAT:??_R3?$CEncrypt@H@@8
rdata$r	ENDS
;	COMDAT ??_R2?$CEncrypt@H@@8
rdata$r	SEGMENT
??_R2?$CEncrypt@H@@8 DD FLAT:??_R1A@?0A@EA@?$CEncrypt@H@@8 ; CEncrypt<int>::`RTTI Base Class Array'
rdata$r	ENDS
;	COMDAT ??_R3?$CEncrypt@H@@8
rdata$r	SEGMENT
??_R3?$CEncrypt@H@@8 DD 00H				; CEncrypt<int>::`RTTI Class Hierarchy Descriptor'
	DD	00H
	DD	01H
	DD	FLAT:??_R2?$CEncrypt@H@@8
rdata$r	ENDS
;	COMDAT ??_R0?AV?$CEncrypt@H@@@8
_DATA	SEGMENT
??_R0?AV?$CEncrypt@H@@@8 DD FLAT:??_7type_info@@6B@	; CEncrypt<int> `RTTI Type Descriptor'
	DD	00H
	DB	'.?AV?$CEncrypt@H@@', 00H
_DATA	ENDS
;	COMDAT ??_R4?$CEncrypt@H@@6B@
rdata$r	SEGMENT
??_R4?$CEncrypt@H@@6B@ DD 00H				; CEncrypt<int>::`RTTI Complete Object Locator'
	DD	00H
	DD	00H
	DD	FLAT:??_R0?AV?$CEncrypt@H@@@8
	DD	FLAT:??_R3?$CEncrypt@H@@8
rdata$r	ENDS
;	COMDAT ??_7?$CEncrypt@H@@6B@
CONST	SEGMENT
??_7?$CEncrypt@H@@6B@ DD FLAT:??_R4?$CEncrypt@H@@6B@	; CEncrypt<int>::`vftable'
	DD	FLAT:??_E?$CEncrypt@H@@UAEPAXI@Z
; Function compile flags: /Ogsp
CONST	ENDS
;	COMDAT ??1?$CEncrypt@H@@UAE@XZ
_TEXT	SEGMENT
??1?$CEncrypt@H@@UAE@XZ PROC				; CEncrypt<int>::~CEncrypt<int>, COMDAT
; _this$ = ecx

; 127  : 	{

  00000	c7 01 00 00 00
	00		 mov	 DWORD PTR [ecx], OFFSET ??_7?$CEncrypt@H@@6B@

; 128  : 	}

  00006	83 c1 0c	 add	 ecx, 12			; 0000000cH
  00009	e9 00 00 00 00	 jmp	 ??1ccddaabb@@UAE@XZ	; ccddaabb::~ccddaabb
??1?$CEncrypt@H@@UAE@XZ ENDP				; CEncrypt<int>::~CEncrypt<int>
_TEXT	ENDS
PUBLIC	?size@?$vector@KV?$allocator@K@std@@@std@@QBEIXZ ; std::vector<unsigned long,std::allocator<unsigned long> >::size
; Function compile flags: /Ogsp
; File c:\program files (x86)\microsoft visual studio 10.0\vc\include\vector
;	COMDAT ?size@?$vector@KV?$allocator@K@std@@@std@@QBEIXZ
_TEXT	SEGMENT
?size@?$vector@KV?$allocator@K@std@@@std@@QBEIXZ PROC	; std::vector<unsigned long,std::allocator<unsigned long> >::size, COMDAT
; _this$ = ecx

; 879  : 		return (this->_Mylast - this->_Myfirst);

  00000	8b 41 04	 mov	 eax, DWORD PTR [ecx+4]
  00003	2b 01		 sub	 eax, DWORD PTR [ecx]
  00005	c1 f8 02	 sar	 eax, 2

; 880  : 		}

  00008	c3		 ret	 0
?size@?$vector@KV?$allocator@K@std@@@std@@QBEIXZ ENDP	; std::vector<unsigned long,std::allocator<unsigned long> >::size
_TEXT	ENDS
PUBLIC	??A?$vector@KV?$allocator@K@std@@@std@@QAEAAKI@Z ; std::vector<unsigned long,std::allocator<unsigned long> >::operator[]
; Function compile flags: /Ogsp
;	COMDAT ??A?$vector@KV?$allocator@K@std@@@std@@QAEAAKI@Z
_TEXT	SEGMENT
__Pos$ = 8						; size = 4
??A?$vector@KV?$allocator@K@std@@@std@@QAEAAKI@Z PROC	; std::vector<unsigned long,std::allocator<unsigned long> >::operator[], COMDAT
; _this$ = ecx

; 928  : 		{	// subscript mutable sequence

  00000	55		 push	 ebp
  00001	8b ec		 mov	 ebp, esp

; 929  :  #if _ITERATOR_DEBUG_LEVEL == 2
; 930  : 		if (size() <= _Pos)
; 931  : 			{	// report error
; 932  : 			_DEBUG_ERROR("vector subscript out of range");
; 933  : 			_SCL_SECURE_OUT_OF_RANGE;
; 934  : 			}
; 935  : 
; 936  :  #elif _ITERATOR_DEBUG_LEVEL == 1
; 937  : 		_SCL_SECURE_VALIDATE_RANGE(_Pos < size());
; 938  :  #endif /* _ITERATOR_DEBUG_LEVEL */
; 939  : 
; 940  : 		return (*(this->_Myfirst + _Pos));

  00003	8b 01		 mov	 eax, DWORD PTR [ecx]
  00005	8b 4d 08	 mov	 ecx, DWORD PTR __Pos$[ebp]
  00008	8d 04 88	 lea	 eax, DWORD PTR [eax+ecx*4]

; 941  : 		}

  0000b	5d		 pop	 ebp
  0000c	c2 04 00	 ret	 4
??A?$vector@KV?$allocator@K@std@@@std@@QAEAAKI@Z ENDP	; std::vector<unsigned long,std::allocator<unsigned long> >::operator[]
; Function compile flags: /Ogsp
_TEXT	ENDS
;	COMDAT ??_G?$CEncrypt@H@@UAEPAXI@Z
_TEXT	SEGMENT
___flags$ = 8						; size = 4
??_G?$CEncrypt@H@@UAEPAXI@Z PROC			; CEncrypt<int>::`scalar deleting destructor', COMDAT
; _this$ = ecx
  00000	55		 push	 ebp
  00001	8b ec		 mov	 ebp, esp
  00003	56		 push	 esi
  00004	8b f1		 mov	 esi, ecx
  00006	8d 4e 0c	 lea	 ecx, DWORD PTR [esi+12]
  00009	c7 06 00 00 00
	00		 mov	 DWORD PTR [esi], OFFSET ??_7?$CEncrypt@H@@6B@
  0000f	e8 00 00 00 00	 call	 ??1ccddaabb@@UAE@XZ	; ccddaabb::~ccddaabb
  00014	f6 45 08 01	 test	 BYTE PTR ___flags$[ebp], 1
  00018	74 07		 je	 SHORT $LN1@scalar@2
  0001a	56		 push	 esi
  0001b	e8 00 00 00 00	 call	 ??3@YAXPAX@Z		; operator delete
  00020	59		 pop	 ecx
$LN1@scalar@2:
  00021	8b c6		 mov	 eax, esi
  00023	5e		 pop	 esi
  00024	5d		 pop	 ebp
  00025	c2 04 00	 ret	 4
??_G?$CEncrypt@H@@UAEPAXI@Z ENDP			; CEncrypt<int>::`scalar deleting destructor'
_TEXT	ENDS
PUBLIC	?_Myptr@?$basic_string@DU?$char_traits@D@std@@V?$allocator@D@2@@std@@QBEPBDXZ ; std::basic_string<char,std::char_traits<char>,std::allocator<char> >::_Myptr
; Function compile flags: /Ogsp
; File c:\program files (x86)\microsoft visual studio 10.0\vc\include\xstring
;	COMDAT ?_Myptr@?$basic_string@DU?$char_traits@D@std@@V?$allocator@D@2@@std@@QBEPBDXZ
_TEXT	SEGMENT
?_Myptr@?$basic_string@DU?$char_traits@D@std@@V?$allocator@D@2@@std@@QBEPBDXZ PROC ; std::basic_string<char,std::char_traits<char>,std::allocator<char> >::_Myptr, COMDAT
; _this$ = ecx

; 2010 : 		return (this->_BUF_SIZE <= this->_Myres ? this->_Bx._Ptr
; 2011 : 			: this->_Bx._Buf);

  00000	83 79 14 10	 cmp	 DWORD PTR [ecx+20], 16	; 00000010H
  00004	72 03		 jb	 SHORT $LN3@Myptr
  00006	8b 01		 mov	 eax, DWORD PTR [ecx]

; 2012 : 		}

  00008	c3		 ret	 0
$LN3@Myptr:

; 2010 : 		return (this->_BUF_SIZE <= this->_Myres ? this->_Bx._Ptr
; 2011 : 			: this->_Bx._Buf);

  00009	8b c1		 mov	 eax, ecx

; 2012 : 		}

  0000b	c3		 ret	 0
?_Myptr@?$basic_string@DU?$char_traits@D@std@@V?$allocator@D@2@@std@@QBEPBDXZ ENDP ; std::basic_string<char,std::char_traits<char>,std::allocator<char> >::_Myptr
_TEXT	ENDS
PUBLIC	??1?$_String_val@DV?$allocator@D@std@@@std@@QAE@XZ ; std::_String_val<char,std::allocator<char> >::~_String_val<char,std::allocator<char> >
; Function compile flags: /Ogsp
;	COMDAT ??1?$_String_val@DV?$allocator@D@std@@@std@@QAE@XZ
_TEXT	SEGMENT
??1?$_String_val@DV?$allocator@D@std@@@std@@QAE@XZ PROC	; std::_String_val<char,std::allocator<char> >::~_String_val<char,std::allocator<char> >, COMDAT
; _this$ = ecx

; 459  : 		}

  00000	c3		 ret	 0
??1?$_String_val@DV?$allocator@D@std@@@std@@QAE@XZ ENDP	; std::_String_val<char,std::allocator<char> >::~_String_val<char,std::allocator<char> >
_TEXT	ENDS
PUBLIC	??0?$allocator@D@std@@QAE@XZ			; std::allocator<char>::allocator<char>
; Function compile flags: /Ogsp
; File c:\program files (x86)\microsoft visual studio 10.0\vc\include\xmemory
;	COMDAT ??0?$allocator@D@std@@QAE@XZ
_TEXT	SEGMENT
??0?$allocator@D@std@@QAE@XZ PROC			; std::allocator<char>::allocator<char>, COMDAT
; _this$ = ecx

; 161  : 	_ALLOCATOR() _THROW0()

  00000	8b c1		 mov	 eax, ecx

; 162  : 		{	// construct default allocator (do nothing)
; 163  : 		}

  00002	c3		 ret	 0
??0?$allocator@D@std@@QAE@XZ ENDP			; std::allocator<char>::allocator<char>
_TEXT	ENDS
PUBLIC	??0?$allocator@D@std@@QAE@ABV01@@Z		; std::allocator<char>::allocator<char>
; Function compile flags: /Ogsp
;	COMDAT ??0?$allocator@D@std@@QAE@ABV01@@Z
_TEXT	SEGMENT
___formal$ = 8						; size = 4
??0?$allocator@D@std@@QAE@ABV01@@Z PROC			; std::allocator<char>::allocator<char>, COMDAT
; _this$ = ecx

; 165  : 	_ALLOCATOR(const _ALLOCATOR<_Ty>&) _THROW0()

  00000	8b c1		 mov	 eax, ecx

; 166  : 		{	// construct by copying (do nothing)
; 167  : 		}

  00002	c2 04 00	 ret	 4
??0?$allocator@D@std@@QAE@ABV01@@Z ENDP			; std::allocator<char>::allocator<char>
_TEXT	ENDS
PUBLIC	?EncryptValueToPool@?$CEncrypt@H@@AAEXPBD@Z	; CEncrypt<int>::EncryptValueToPool
EXTRN	?EncryptByte@ccddaabb@@QAEXPBDPADH@Z:PROC	; ccddaabb::EncryptByte
; Function compile flags: /Ogsp
; File d:\lost saga for developer\youtube\tutorial\source\src\lsclient\encryptvalue.h
;	COMDAT ?EncryptValueToPool@?$CEncrypt@H@@AAEXPBD@Z
_TEXT	SEGMENT
_value$ = 8						; size = 4
?EncryptValueToPool@?$CEncrypt@H@@AAEXPBD@Z PROC	; CEncrypt<int>::EncryptValueToPool, COMDAT
; _this$ = ecx

; 67   : 	{

  00000	55		 push	 ebp
  00001	8b ec		 mov	 ebp, esp

; 68   : 		m_RC5.EncryptByte( value, m_MemPool, max(m_ValueSize, DEFAULT_ENCRYPT) );

  00003	0f b7 41 06	 movzx	 eax, WORD PTR [ecx+6]
  00007	83 f8 04	 cmp	 eax, 4
  0000a	77 03		 ja	 SHORT $LN4@EncryptVal
  0000c	6a 04		 push	 4
  0000e	58		 pop	 eax
$LN4@EncryptVal:
  0000f	50		 push	 eax
  00010	8d 41 1c	 lea	 eax, DWORD PTR [ecx+28]
  00013	50		 push	 eax
  00014	ff 75 08	 push	 DWORD PTR _value$[ebp]
  00017	83 c1 0c	 add	 ecx, 12			; 0000000cH
  0001a	e8 00 00 00 00	 call	 ?EncryptByte@ccddaabb@@QAEXPBDPADH@Z ; ccddaabb::EncryptByte

; 69   : 		
; 70   : 	}

  0001f	5d		 pop	 ebp
  00020	c2 04 00	 ret	 4
?EncryptValueToPool@?$CEncrypt@H@@AAEXPBD@Z ENDP	; CEncrypt<int>::EncryptValueToPool
_TEXT	ENDS
PUBLIC	?Init@?$CEncrypt@H@@AAEXXZ			; CEncrypt<int>::Init
EXTRN	?Setup@ccddaabb@@QAEXPBDHH@Z:PROC		; ccddaabb::Setup
EXTRN	__imp__rand:PROC
EXTRN	__imp__timeGetTime@0:PROC
EXTRN	__imp__GetCurrentProcessId@0:PROC
; Function compile flags: /Ogsp
;	COMDAT ?Init@?$CEncrypt@H@@AAEXXZ
_TEXT	SEGMENT
_pid$ = -8						; size = 4
_tick$ = -4						; size = 4
?Init@?$CEncrypt@H@@AAEXXZ PROC				; CEncrypt<int>::Init, COMDAT
; _this$ = ecx

; 73   : 	{

  00000	55		 push	 ebp
  00001	8b ec		 mov	 ebp, esp
  00003	51		 push	 ecx
  00004	51		 push	 ecx
  00005	53		 push	 ebx
  00006	56		 push	 esi
  00007	57		 push	 edi
  00008	8b f1		 mov	 esi, ecx

; 74   : 		DWORD pid = GetCurrentProcessId();

  0000a	ff 15 00 00 00
	00		 call	 DWORD PTR __imp__GetCurrentProcessId@0
  00010	89 45 f8	 mov	 DWORD PTR _pid$[ebp], eax

; 75   : 		DWORD tick = timeGetTime();

  00013	ff 15 00 00 00
	00		 call	 DWORD PTR __imp__timeGetTime@0

; 76   : 		m_ValueSize    = sizeof(type);
; 77   : 		m_MemPoolPos   = (unsigned short)( rand()+pid+tick )%(MAX_MEM_POOL-m_ValueSize);

  00019	8b 3d 00 00 00
	00		 mov	 edi, DWORD PTR __imp__rand
  0001f	89 45 fc	 mov	 DWORD PTR _tick$[ebp], eax
  00022	6a 04		 push	 4
  00024	58		 pop	 eax
  00025	66 89 46 06	 mov	 WORD PTR [esi+6], ax
  00029	ff d7		 call	 edi
  0002b	03 45 f8	 add	 eax, DWORD PTR _pid$[ebp]
  0002e	0f b7 4e 06	 movzx	 ecx, WORD PTR [esi+6]
  00032	03 45 fc	 add	 eax, DWORD PTR _tick$[ebp]
  00035	6a 0c		 push	 12			; 0000000cH
  00037	0f b7 c0	 movzx	 eax, ax
  0003a	5b		 pop	 ebx
  0003b	99		 cdq
  0003c	2b d9		 sub	 ebx, ecx
  0003e	f7 fb		 idiv	 ebx
  00040	66 89 56 04	 mov	 WORD PTR [esi+4], dx

; 78   : 		m_EncryptSeed  = (char)( rand()+pid+tick )%256;

  00044	ff d7		 call	 edi
  00046	02 45 f8	 add	 al, BYTE PTR _pid$[ebp]
  00049	02 45 fc	 add	 al, BYTE PTR _tick$[ebp]
  0004c	0f be c0	 movsx	 eax, al
  0004f	25 ff 00 00 80	 and	 eax, -2147483393	; 800000ffH
  00054	79 07		 jns	 SHORT $LN8@Init
  00056	48		 dec	 eax
  00057	0d 00 ff ff ff	 or	 eax, -256		; ffffff00H
  0005c	40		 inc	 eax
$LN8@Init:
  0005d	88 46 08	 mov	 BYTE PTR [esi+8], al

; 79   : 
; 80   : 		for (int i = 0; i < MAX_MEM_POOL ; i++)

  00060	33 db		 xor	 ebx, ebx
$LL3@Init:

; 81   : 			m_MemPool[i] = (char)( rand()+pid+tick )%256; // 더미

  00062	ff d7		 call	 edi
  00064	02 45 f8	 add	 al, BYTE PTR _pid$[ebp]
  00067	02 45 fc	 add	 al, BYTE PTR _tick$[ebp]
  0006a	0f be c0	 movsx	 eax, al
  0006d	25 ff 00 00 80	 and	 eax, -2147483393	; 800000ffH
  00072	79 07		 jns	 SHORT $LN9@Init
  00074	48		 dec	 eax
  00075	0d 00 ff ff ff	 or	 eax, -256		; ffffff00H
  0007a	40		 inc	 eax
$LN9@Init:
  0007b	88 44 1e 1c	 mov	 BYTE PTR [esi+ebx+28], al
  0007f	43		 inc	 ebx
  00080	83 fb 0c	 cmp	 ebx, 12			; 0000000cH
  00083	7c dd		 jl	 SHORT $LL3@Init

; 82   : 
; 83   : 		//UJ 130913, 최적화: szKey 사용안하도록 간략화
; 84   : 		//char szKey[ccddaabb::KEY_SIZE];//="";
; 85   : 		//for (int i = 0; i < ccddaabb::KEY_SIZE  ; i++)
; 86   : 		//	szKey[i] = (char)( rand()+pid+tick )%256; // 더미
; 87   : 		m_RC5.Setup( NULL, pid, tick );

  00085	ff 75 fc	 push	 DWORD PTR _tick$[ebp]
  00088	8d 4e 0c	 lea	 ecx, DWORD PTR [esi+12]
  0008b	ff 75 f8	 push	 DWORD PTR _pid$[ebp]
  0008e	6a 00		 push	 0
  00090	e8 00 00 00 00	 call	 ?Setup@ccddaabb@@QAEXPBDHH@Z ; ccddaabb::Setup
  00095	5f		 pop	 edi
  00096	5e		 pop	 esi
  00097	5b		 pop	 ebx

; 88   : 
; 89   : #ifdef _NOTUSE
; 90   : 		m_value        = 0;
; 91   : 		EncryptValueToPool((char*)&m_value);
; 92   : 		Debug();
; 93   : #endif
; 94   : 	}

  00098	c9		 leave
  00099	c3		 ret	 0
?Init@?$CEncrypt@H@@AAEXXZ ENDP				; CEncrypt<int>::Init
_TEXT	ENDS
PUBLIC	?DecryptValueToPool@?$CEncrypt@H@@QAEXPAH@Z	; CEncrypt<int>::DecryptValueToPool
EXTRN	?DecryptByte@ccddaabb@@QBEXPBDPADH@Z:PROC	; ccddaabb::DecryptByte
; Function compile flags: /Ogsp
;	COMDAT ?DecryptValueToPool@?$CEncrypt@H@@QAEXPAH@Z
_TEXT	SEGMENT
_value$ = 8						; size = 4
?DecryptValueToPool@?$CEncrypt@H@@QAEXPAH@Z PROC	; CEncrypt<int>::DecryptValueToPool, COMDAT
; _this$ = ecx

; 837  : 	{

  00000	55		 push	 ebp
  00001	8b ec		 mov	 ebp, esp
  00003	56		 push	 esi

; 838  : 		m_RC5.DecryptByte( m_MemPool, m_TempMem, 4 );

  00004	8d 71 28	 lea	 esi, DWORD PTR [ecx+40]
  00007	6a 04		 push	 4
  00009	8d 41 1c	 lea	 eax, DWORD PTR [ecx+28]
  0000c	56		 push	 esi
  0000d	50		 push	 eax
  0000e	83 c1 0c	 add	 ecx, 12			; 0000000cH
  00011	e8 00 00 00 00	 call	 ?DecryptByte@ccddaabb@@QBEXPBDPADH@Z ; ccddaabb::DecryptByte

; 839  : 		*value = *((int*)m_TempMem);

  00016	8b 06		 mov	 eax, DWORD PTR [esi]
  00018	8b 4d 08	 mov	 ecx, DWORD PTR _value$[ebp]
  0001b	89 01		 mov	 DWORD PTR [ecx], eax
  0001d	5e		 pop	 esi

; 840  : 	}

  0001e	5d		 pop	 ebp
  0001f	c2 04 00	 ret	 4
?DecryptValueToPool@?$CEncrypt@H@@QAEXPAH@Z ENDP	; CEncrypt<int>::DecryptValueToPool
_TEXT	ENDS
PUBLIC	?_Inside@?$vector@KV?$allocator@K@std@@@std@@IBE_NPBK@Z ; std::vector<unsigned long,std::allocator<unsigned long> >::_Inside
; Function compile flags: /Ogsp
; File c:\program files (x86)\microsoft visual studio 10.0\vc\include\vector
;	COMDAT ?_Inside@?$vector@KV?$allocator@K@std@@@std@@IBE_NPBK@Z
_TEXT	SEGMENT
__Ptr$ = 8						; size = 4
?_Inside@?$vector@KV?$allocator@K@std@@@std@@IBE_NPBK@Z PROC ; std::vector<unsigned long,std::allocator<unsigned long> >::_Inside, COMDAT
; _this$ = ecx

; 1285 : 		{	// test if _Ptr points inside vector

  00000	55		 push	 ebp
  00001	8b ec		 mov	 ebp, esp

; 1286 : 		return (_Ptr < this->_Mylast && this->_Myfirst <= _Ptr);

  00003	8b 45 08	 mov	 eax, DWORD PTR __Ptr$[ebp]
  00006	3b 41 04	 cmp	 eax, DWORD PTR [ecx+4]
  00009	73 09		 jae	 SHORT $LN3@Inside@2
  0000b	39 01		 cmp	 DWORD PTR [ecx], eax
  0000d	77 05		 ja	 SHORT $LN3@Inside@2
  0000f	33 c0		 xor	 eax, eax
  00011	40		 inc	 eax
  00012	eb 02		 jmp	 SHORT $LN4@Inside@2
$LN3@Inside@2:
  00014	33 c0		 xor	 eax, eax
$LN4@Inside@2:

; 1287 : 		}

  00016	5d		 pop	 ebp
  00017	c2 04 00	 ret	 4
?_Inside@?$vector@KV?$allocator@K@std@@@std@@IBE_NPBK@Z ENDP ; std::vector<unsigned long,std::allocator<unsigned long> >::_Inside
_TEXT	ENDS
PUBLIC	?_Orphan_range@?$vector@KV?$allocator@K@std@@@std@@IBEXPAK0@Z ; std::vector<unsigned long,std::allocator<unsigned long> >::_Orphan_range
; Function compile flags: /Ogsp
;	COMDAT ?_Orphan_range@?$vector@KV?$allocator@K@std@@@std@@IBEXPAK0@Z
_TEXT	SEGMENT
___formal$ = 8						; size = 4
___formal$ = 12						; size = 4
?_Orphan_range@?$vector@KV?$allocator@K@std@@@std@@IBEXPAK0@Z PROC ; std::vector<unsigned long,std::allocator<unsigned long> >::_Orphan_range, COMDAT
; _this$ = ecx

; 1454 : 		}

  00000	c2 08 00	 ret	 8
?_Orphan_range@?$vector@KV?$allocator@K@std@@@std@@IBEXPAK0@Z ENDP ; std::vector<unsigned long,std::allocator<unsigned long> >::_Orphan_range
_TEXT	ENDS
PUBLIC	??1?$_Vector_val@KV?$allocator@K@std@@@std@@QAE@XZ ; std::_Vector_val<unsigned long,std::allocator<unsigned long> >::~_Vector_val<unsigned long,std::allocator<unsigned long> >
; Function compile flags: /Ogsp
;	COMDAT ??1?$_Vector_val@KV?$allocator@K@std@@@std@@QAE@XZ
_TEXT	SEGMENT
??1?$_Vector_val@KV?$allocator@K@std@@@std@@QAE@XZ PROC	; std::_Vector_val<unsigned long,std::allocator<unsigned long> >::~_Vector_val<unsigned long,std::allocator<unsigned long> >, COMDAT
; _this$ = ecx

; 434  : 		}

  00000	c3		 ret	 0
??1?$_Vector_val@KV?$allocator@K@std@@@std@@QAE@XZ ENDP	; std::_Vector_val<unsigned long,std::allocator<unsigned long> >::~_Vector_val<unsigned long,std::allocator<unsigned long> >
_TEXT	ENDS
PUBLIC	??0?$allocator@K@std@@QAE@XZ			; std::allocator<unsigned long>::allocator<unsigned long>
; Function compile flags: /Ogsp
; File c:\program files (x86)\microsoft visual studio 10.0\vc\include\xmemory
;	COMDAT ??0?$allocator@K@std@@QAE@XZ
_TEXT	SEGMENT
??0?$allocator@K@std@@QAE@XZ PROC			; std::allocator<unsigned long>::allocator<unsigned long>, COMDAT
; _this$ = ecx

; 161  : 	_ALLOCATOR() _THROW0()

  00000	8b c1		 mov	 eax, ecx

; 162  : 		{	// construct default allocator (do nothing)
; 163  : 		}

  00002	c3		 ret	 0
??0?$allocator@K@std@@QAE@XZ ENDP			; std::allocator<unsigned long>::allocator<unsigned long>
_TEXT	ENDS
PUBLIC	?get_allocator@?$basic_string@DU?$char_traits@D@std@@V?$allocator@D@2@@std@@QBE?AV?$allocator@D@2@XZ ; std::basic_string<char,std::char_traits<char>,std::allocator<char> >::get_allocator
; Function compile flags: /Ogsp
; File c:\program files (x86)\microsoft visual studio 10.0\vc\include\xstring
;	COMDAT ?get_allocator@?$basic_string@DU?$char_traits@D@std@@V?$allocator@D@2@@std@@QBE?AV?$allocator@D@2@XZ
_TEXT	SEGMENT
___$ReturnUdt$ = 8					; size = 4
?get_allocator@?$basic_string@DU?$char_traits@D@std@@V?$allocator@D@2@@std@@QBE?AV?$allocator@D@2@XZ PROC ; std::basic_string<char,std::char_traits<char>,std::allocator<char> >::get_allocator, COMDAT
; _this$ = ecx

; 1906 : 		{	// return allocator object for values

  00000	55		 push	 ebp
  00001	8b ec		 mov	 ebp, esp

; 1907 : 		return (this->_Alval);

  00003	8b 45 08	 mov	 eax, DWORD PTR ___$ReturnUdt$[ebp]

; 1908 : 		}

  00006	5d		 pop	 ebp
  00007	c2 04 00	 ret	 4
?get_allocator@?$basic_string@DU?$char_traits@D@std@@V?$allocator@D@2@@std@@QBE?AV?$allocator@D@2@XZ ENDP ; std::basic_string<char,std::char_traits<char>,std::allocator<char> >::get_allocator
_TEXT	ENDS
PUBLIC	?_Myptr@?$basic_string@DU?$char_traits@D@std@@V?$allocator@D@2@@std@@QAEPADXZ ; std::basic_string<char,std::char_traits<char>,std::allocator<char> >::_Myptr
; Function compile flags: /Ogsp
;	COMDAT ?_Myptr@?$basic_string@DU?$char_traits@D@std@@V?$allocator@D@2@@std@@QAEPADXZ
_TEXT	SEGMENT
?_Myptr@?$basic_string@DU?$char_traits@D@std@@V?$allocator@D@2@@std@@QAEPADXZ PROC ; std::basic_string<char,std::char_traits<char>,std::allocator<char> >::_Myptr, COMDAT
; _this$ = ecx

; 2004 : 		return (this->_BUF_SIZE <= this->_Myres ? this->_Bx._Ptr
; 2005 : 			: this->_Bx._Buf);

  00000	83 79 14 10	 cmp	 DWORD PTR [ecx+20], 16	; 00000010H
  00004	72 03		 jb	 SHORT $LN3@Myptr@2
  00006	8b 01		 mov	 eax, DWORD PTR [ecx]

; 2006 : 		}

  00008	c3		 ret	 0
$LN3@Myptr@2:

; 2004 : 		return (this->_BUF_SIZE <= this->_Myres ? this->_Bx._Ptr
; 2005 : 			: this->_Bx._Buf);

  00009	8b c1		 mov	 eax, ecx

; 2006 : 		}

  0000b	c3		 ret	 0
?_Myptr@?$basic_string@DU?$char_traits@D@std@@V?$allocator@D@2@@std@@QAEPADXZ ENDP ; std::basic_string<char,std::char_traits<char>,std::allocator<char> >::_Myptr
_TEXT	ENDS
PUBLIC	??_C@_0BA@JFNIOLAK@string?5too?5long?$AA@	; `string'
PUBLIC	?_Xlen@?$basic_string@DU?$char_traits@D@std@@V?$allocator@D@2@@std@@QBEXXZ ; std::basic_string<char,std::char_traits<char>,std::allocator<char> >::_Xlen
;	COMDAT ??_C@_0BA@JFNIOLAK@string?5too?5long?$AA@
CONST	SEGMENT
??_C@_0BA@JFNIOLAK@string?5too?5long?$AA@ DB 'string too long', 00H ; `string'
; Function compile flags: /Ogsp
CONST	ENDS
;	COMDAT ?_Xlen@?$basic_string@DU?$char_traits@D@std@@V?$allocator@D@2@@std@@QBEXXZ
_TEXT	SEGMENT
?_Xlen@?$basic_string@DU?$char_traits@D@std@@V?$allocator@D@2@@std@@QBEXXZ PROC ; std::basic_string<char,std::char_traits<char>,std::allocator<char> >::_Xlen, COMDAT
; _this$ = ecx

; 2016 : 		_Xlength_error("string too long");

  00000	68 00 00 00 00	 push	 OFFSET ??_C@_0BA@JFNIOLAK@string?5too?5long?$AA@
  00005	ff 15 00 00 00
	00		 call	 DWORD PTR __imp_?_Xlength_error@std@@YAXPBD@Z
$LN4@Xlen@3:
$LN3@Xlen@3:
  0000b	cc		 int	 3
?_Xlen@?$basic_string@DU?$char_traits@D@std@@V?$allocator@D@2@@std@@QBEXXZ ENDP ; std::basic_string<char,std::char_traits<char>,std::allocator<char> >::_Xlen
_TEXT	ENDS
PUBLIC	??_C@_0BI@CFPLBAOH@invalid?5string?5position?$AA@ ; `string'
PUBLIC	?_Xran@?$basic_string@DU?$char_traits@D@std@@V?$allocator@D@2@@std@@QBEXXZ ; std::basic_string<char,std::char_traits<char>,std::allocator<char> >::_Xran
EXTRN	__imp_?_Xout_of_range@std@@YAXPBD@Z:PROC
;	COMDAT ??_C@_0BI@CFPLBAOH@invalid?5string?5position?$AA@
CONST	SEGMENT
??_C@_0BI@CFPLBAOH@invalid?5string?5position?$AA@ DB 'invalid string posi'
	DB	'tion', 00H					; `string'
; Function compile flags: /Ogsp
CONST	ENDS
;	COMDAT ?_Xran@?$basic_string@DU?$char_traits@D@std@@V?$allocator@D@2@@std@@QBEXXZ
_TEXT	SEGMENT
?_Xran@?$basic_string@DU?$char_traits@D@std@@V?$allocator@D@2@@std@@QBEXXZ PROC ; std::basic_string<char,std::char_traits<char>,std::allocator<char> >::_Xran, COMDAT
; _this$ = ecx

; 2021 : 		_Xout_of_range("invalid string position");

  00000	68 00 00 00 00	 push	 OFFSET ??_C@_0BI@CFPLBAOH@invalid?5string?5position?$AA@
  00005	ff 15 00 00 00
	00		 call	 DWORD PTR __imp_?_Xout_of_range@std@@YAXPBD@Z
$LN4@Xran:
$LN3@Xran:
  0000b	cc		 int	 3
?_Xran@?$basic_string@DU?$char_traits@D@std@@V?$allocator@D@2@@std@@QBEXXZ ENDP ; std::basic_string<char,std::char_traits<char>,std::allocator<char> >::_Xran
_TEXT	ENDS
PUBLIC	?deallocate@?$allocator@D@std@@QAEXPADI@Z	; std::allocator<char>::deallocate
; Function compile flags: /Ogsp
; File c:\program files (x86)\microsoft visual studio 10.0\vc\include\xmemory
;	COMDAT ?deallocate@?$allocator@D@std@@QAEXPADI@Z
_TEXT	SEGMENT
__Ptr$ = 8						; size = 4
___formal$ = 12						; size = 4
?deallocate@?$allocator@D@std@@QAEXPADI@Z PROC		; std::allocator<char>::deallocate, COMDAT
; _this$ = ecx

; 181  : 		{	// deallocate object at _Ptr, ignore size

  00000	55		 push	 ebp
  00001	8b ec		 mov	 ebp, esp

; 182  : 		::operator delete(_Ptr);

  00003	ff 75 08	 push	 DWORD PTR __Ptr$[ebp]
  00006	e8 00 00 00 00	 call	 ??3@YAXPAX@Z		; operator delete
  0000b	59		 pop	 ecx

; 183  : 		}

  0000c	5d		 pop	 ebp
  0000d	c2 08 00	 ret	 8
?deallocate@?$allocator@D@std@@QAEXPADI@Z ENDP		; std::allocator<char>::deallocate
_TEXT	ENDS
PUBLIC	?capacity@?$vector@KV?$allocator@K@std@@@std@@QBEIXZ ; std::vector<unsigned long,std::allocator<unsigned long> >::capacity
; Function compile flags: /Ogsp
; File c:\program files (x86)\microsoft visual studio 10.0\vc\include\vector
;	COMDAT ?capacity@?$vector@KV?$allocator@K@std@@@std@@QBEIXZ
_TEXT	SEGMENT
?capacity@?$vector@KV?$allocator@K@std@@@std@@QBEIXZ PROC ; std::vector<unsigned long,std::allocator<unsigned long> >::capacity, COMDAT
; _this$ = ecx

; 777  : 		return (this->_Myend - this->_Myfirst);

  00000	8b 41 08	 mov	 eax, DWORD PTR [ecx+8]
  00003	2b 01		 sub	 eax, DWORD PTR [ecx]
  00005	c1 f8 02	 sar	 eax, 2

; 778  : 		}

  00008	c3		 ret	 0
?capacity@?$vector@KV?$allocator@K@std@@@std@@QBEIXZ ENDP ; std::vector<unsigned long,std::allocator<unsigned long> >::capacity
_TEXT	ENDS
PUBLIC	?_Xlen@?$vector@KV?$allocator@K@std@@@std@@IBEXXZ ; std::vector<unsigned long,std::allocator<unsigned long> >::_Xlen
; Function compile flags: /Ogsp
;	COMDAT ?_Xlen@?$vector@KV?$allocator@K@std@@@std@@IBEXXZ
_TEXT	SEGMENT
?_Xlen@?$vector@KV?$allocator@K@std@@@std@@IBEXXZ PROC	; std::vector<unsigned long,std::allocator<unsigned long> >::_Xlen, COMDAT
; _this$ = ecx

; 1427 : 		_Xlength_error("vector<T> too long");

  00000	68 00 00 00 00	 push	 OFFSET ??_C@_0BD@OLBABOEK@vector?$DMT?$DO?5too?5long?$AA@
  00005	ff 15 00 00 00
	00		 call	 DWORD PTR __imp_?_Xlength_error@std@@YAXPBD@Z
$LN4@Xlen@4:
$LN3@Xlen@4:
  0000b	cc		 int	 3
?_Xlen@?$vector@KV?$allocator@K@std@@@std@@IBEXXZ ENDP	; std::vector<unsigned long,std::allocator<unsigned long> >::_Xlen
_TEXT	ENDS
PUBLIC	??0?$allocator@K@std@@QAE@ABV01@@Z		; std::allocator<unsigned long>::allocator<unsigned long>
; Function compile flags: /Ogsp
; File c:\program files (x86)\microsoft visual studio 10.0\vc\include\xmemory
;	COMDAT ??0?$allocator@K@std@@QAE@ABV01@@Z
_TEXT	SEGMENT
___formal$ = 8						; size = 4
??0?$allocator@K@std@@QAE@ABV01@@Z PROC			; std::allocator<unsigned long>::allocator<unsigned long>, COMDAT
; _this$ = ecx

; 165  : 	_ALLOCATOR(const _ALLOCATOR<_Ty>&) _THROW0()

  00000	8b c1		 mov	 eax, ecx

; 166  : 		{	// construct by copying (do nothing)
; 167  : 		}

  00002	c2 04 00	 ret	 4
??0?$allocator@K@std@@QAE@ABV01@@Z ENDP			; std::allocator<unsigned long>::allocator<unsigned long>
_TEXT	ENDS
PUBLIC	?deallocate@?$allocator@K@std@@QAEXPAKI@Z	; std::allocator<unsigned long>::deallocate
; Function compile flags: /Ogsp
;	COMDAT ?deallocate@?$allocator@K@std@@QAEXPAKI@Z
_TEXT	SEGMENT
__Ptr$ = 8						; size = 4
___formal$ = 12						; size = 4
?deallocate@?$allocator@K@std@@QAEXPAKI@Z PROC		; std::allocator<unsigned long>::deallocate, COMDAT
; _this$ = ecx

; 181  : 		{	// deallocate object at _Ptr, ignore size

  00000	55		 push	 ebp
  00001	8b ec		 mov	 ebp, esp

; 182  : 		::operator delete(_Ptr);

  00003	ff 75 08	 push	 DWORD PTR __Ptr$[ebp]
  00006	e8 00 00 00 00	 call	 ??3@YAXPAX@Z		; operator delete
  0000b	59		 pop	 ecx

; 183  : 		}

  0000c	5d		 pop	 ebp
  0000d	c2 08 00	 ret	 8
?deallocate@?$allocator@K@std@@QAEXPAKI@Z ENDP		; std::allocator<unsigned long>::deallocate
_TEXT	ENDS
PUBLIC	?_Inside@?$basic_string@DU?$char_traits@D@std@@V?$allocator@D@2@@std@@QAE_NPBD@Z ; std::basic_string<char,std::char_traits<char>,std::allocator<char> >::_Inside
; Function compile flags: /Ogsp
; File c:\program files (x86)\microsoft visual studio 10.0\vc\include\xstring
;	COMDAT ?_Inside@?$basic_string@DU?$char_traits@D@std@@V?$allocator@D@2@@std@@QAE_NPBD@Z
_TEXT	SEGMENT
__Ptr$ = 8						; size = 4
?_Inside@?$basic_string@DU?$char_traits@D@std@@V?$allocator@D@2@@std@@QAE_NPBD@Z PROC ; std::basic_string<char,std::char_traits<char>,std::allocator<char> >::_Inside, COMDAT
; _this$ = ecx

; 1973 : 		{	// test if _Ptr points inside string

  00000	55		 push	 ebp
  00001	8b ec		 mov	 ebp, esp

; 1974 : 		if (_Ptr == 0 || _Ptr < _Myptr() || _Myptr() + this->_Mysize <= _Ptr)

  00003	83 7d 08 00	 cmp	 DWORD PTR __Ptr$[ebp], 0
  00007	74 2c		 je	 SHORT $LN2@Inside@3
  00009	8b 51 14	 mov	 edx, DWORD PTR [ecx+20]
  0000c	83 fa 10	 cmp	 edx, 16			; 00000010H
  0000f	72 04		 jb	 SHORT $LN8@Inside@3
  00011	8b 01		 mov	 eax, DWORD PTR [ecx]
  00013	eb 02		 jmp	 SHORT $LN9@Inside@3
$LN8@Inside@3:
  00015	8b c1		 mov	 eax, ecx
$LN9@Inside@3:
  00017	39 45 08	 cmp	 DWORD PTR __Ptr$[ebp], eax
  0001a	72 19		 jb	 SHORT $LN2@Inside@3
  0001c	83 fa 10	 cmp	 edx, 16			; 00000010H
  0001f	72 04		 jb	 SHORT $LN12@Inside@3
  00021	8b 01		 mov	 eax, DWORD PTR [ecx]
  00023	eb 02		 jmp	 SHORT $LN13@Inside@3
$LN12@Inside@3:
  00025	8b c1		 mov	 eax, ecx
$LN13@Inside@3:
  00027	8b 49 10	 mov	 ecx, DWORD PTR [ecx+16]
  0002a	03 c8		 add	 ecx, eax
  0002c	3b 4d 08	 cmp	 ecx, DWORD PTR __Ptr$[ebp]
  0002f	76 04		 jbe	 SHORT $LN2@Inside@3

; 1976 : 		else
; 1977 : 			return (true);

  00031	b0 01		 mov	 al, 1
  00033	eb 02		 jmp	 SHORT $LN1@Inside@3
$LN2@Inside@3:

; 1975 : 			return (false);	// don't ask

  00035	32 c0		 xor	 al, al
$LN1@Inside@3:

; 1978 : 		}

  00037	5d		 pop	 ebp
  00038	c2 04 00	 ret	 4
?_Inside@?$basic_string@DU?$char_traits@D@std@@V?$allocator@D@2@@std@@QAE_NPBD@Z ENDP ; std::basic_string<char,std::char_traits<char>,std::allocator<char> >::_Inside
_TEXT	ENDS
PUBLIC	?max_size@?$allocator@K@std@@QBEIXZ		; std::allocator<unsigned long>::max_size
; Function compile flags: /Ogsp
; File c:\program files (x86)\microsoft visual studio 10.0\vc\include\xmemory
;	COMDAT ?max_size@?$allocator@K@std@@QBEIXZ
_TEXT	SEGMENT
?max_size@?$allocator@K@std@@QBEIXZ PROC		; std::allocator<unsigned long>::max_size, COMDAT
; _this$ = ecx

; 218  : 		_SIZT _Count = (_SIZT)(-1) / sizeof (_Ty);
; 219  : 		return (0 < _Count ? _Count : 1);

  00000	b8 ff ff ff 3f	 mov	 eax, 1073741823		; 3fffffffH

; 220  : 		}

  00005	c3		 ret	 0
?max_size@?$allocator@K@std@@QBEIXZ ENDP		; std::allocator<unsigned long>::max_size
_TEXT	ENDS
PUBLIC	??0?$_Vector_const_iterator@V?$_Vector_val@KV?$allocator@K@std@@@std@@@std@@QAE@PAKPBU_Container_base0@1@@Z ; std::_Vector_const_iterator<std::_Vector_val<unsigned long,std::allocator<unsigned long> > >::_Vector_const_iterator<std::_Vector_val<unsigned long,std::allocator<unsigned long> > >
; Function compile flags: /Ogsp
; File c:\program files (x86)\microsoft visual studio 10.0\vc\include\vector
;	COMDAT ??0?$_Vector_const_iterator@V?$_Vector_val@KV?$allocator@K@std@@@std@@@std@@QAE@PAKPBU_Container_base0@1@@Z
_TEXT	SEGMENT
__Parg$ = 8						; size = 4
__Pvector$ = 12						; size = 4
??0?$_Vector_const_iterator@V?$_Vector_val@KV?$allocator@K@std@@@std@@@std@@QAE@PAKPBU_Container_base0@1@@Z PROC ; std::_Vector_const_iterator<std::_Vector_val<unsigned long,std::allocator<unsigned long> > >::_Vector_const_iterator<std::_Vector_val<unsigned long,std::allocator<unsigned long> > >, COMDAT
; _this$ = ecx

; 45   : 		{	// construct with pointer _Parg

  00000	55		 push	 ebp
  00001	8b ec		 mov	 ebp, esp
  00003	8b c1		 mov	 eax, ecx
  00005	8b 4d 08	 mov	 ecx, DWORD PTR __Parg$[ebp]
  00008	89 08		 mov	 DWORD PTR [eax], ecx

; 46   : 		this->_Adopt(_Pvector);
; 47   : 		}

  0000a	5d		 pop	 ebp
  0000b	c2 08 00	 ret	 8
??0?$_Vector_const_iterator@V?$_Vector_val@KV?$allocator@K@std@@@std@@@std@@QAE@PAKPBU_Container_base0@1@@Z ENDP ; std::_Vector_const_iterator<std::_Vector_val<unsigned long,std::allocator<unsigned long> > >::_Vector_const_iterator<std::_Vector_val<unsigned long,std::allocator<unsigned long> > >
_TEXT	ENDS
PUBLIC	?max_size@?$allocator@D@std@@QBEIXZ		; std::allocator<char>::max_size
; Function compile flags: /Ogsp
; File c:\program files (x86)\microsoft visual studio 10.0\vc\include\xmemory
;	COMDAT ?max_size@?$allocator@D@std@@QBEIXZ
_TEXT	SEGMENT
?max_size@?$allocator@D@std@@QBEIXZ PROC		; std::allocator<char>::max_size, COMDAT
; _this$ = ecx

; 218  : 		_SIZT _Count = (_SIZT)(-1) / sizeof (_Ty);
; 219  : 		return (0 < _Count ? _Count : 1);

  00000	83 c8 ff	 or	 eax, -1

; 220  : 		}

  00003	c3		 ret	 0
?max_size@?$allocator@D@std@@QBEIXZ ENDP		; std::allocator<char>::max_size
_TEXT	ENDS
PUBLIC	?_Compat@?$_Vector_const_iterator@V?$_Vector_val@KV?$allocator@K@std@@@std@@@std@@QBEXABV12@@Z ; std::_Vector_const_iterator<std::_Vector_val<unsigned long,std::allocator<unsigned long> > >::_Compat
; Function compile flags: /Ogsp
; File c:\program files (x86)\microsoft visual studio 10.0\vc\include\vector
;	COMDAT ?_Compat@?$_Vector_const_iterator@V?$_Vector_val@KV?$allocator@K@std@@@std@@@std@@QBEXABV12@@Z
_TEXT	SEGMENT
___formal$ = 8						; size = 4
?_Compat@?$_Vector_const_iterator@V?$_Vector_val@KV?$allocator@K@std@@@std@@@std@@QBEXABV12@@Z PROC ; std::_Vector_const_iterator<std::_Vector_val<unsigned long,std::allocator<unsigned long> > >::_Compat, COMDAT
; _this$ = ecx

; 253  : 		}

  00000	c2 04 00	 ret	 4
?_Compat@?$_Vector_const_iterator@V?$_Vector_val@KV?$allocator@K@std@@@std@@@std@@QBEXABV12@@Z ENDP ; std::_Vector_const_iterator<std::_Vector_val<unsigned long,std::allocator<unsigned long> > >::_Compat
_TEXT	ENDS
PUBLIC	??$forward@V?$basic_string@DU?$char_traits@D@std@@V?$allocator@D@2@@std@@@std@@YA$$QAV?$basic_string@DU?$char_traits@D@std@@V?$allocator@D@2@@0@AAV10@@Z ; std::forward<std::basic_string<char,std::char_traits<char>,std::allocator<char> > >
; Function compile flags: /Ogsp
; File c:\program files (x86)\microsoft visual studio 10.0\vc\include\utility
;	COMDAT ??$forward@V?$basic_string@DU?$char_traits@D@std@@V?$allocator@D@2@@std@@@std@@YA$$QAV?$basic_string@DU?$char_traits@D@std@@V?$allocator@D@2@@0@AAV10@@Z
_TEXT	SEGMENT
__Arg$ = 8						; size = 4
??$forward@V?$basic_string@DU?$char_traits@D@std@@V?$allocator@D@2@@std@@@std@@YA$$QAV?$basic_string@DU?$char_traits@D@std@@V?$allocator@D@2@@0@AAV10@@Z PROC ; std::forward<std::basic_string<char,std::char_traits<char>,std::allocator<char> > >, COMDAT

; 78   : 	{	// forward _Arg, given explicitly specified type parameter

  00000	55		 push	 ebp
  00001	8b ec		 mov	 ebp, esp

; 79   : 	return ((_Ty&&)_Arg);

  00003	8b 45 08	 mov	 eax, DWORD PTR __Arg$[ebp]

; 80   : 	}

  00006	5d		 pop	 ebp
  00007	c3		 ret	 0
??$forward@V?$basic_string@DU?$char_traits@D@std@@V?$allocator@D@2@@std@@@std@@YA$$QAV?$basic_string@DU?$char_traits@D@std@@V?$allocator@D@2@@0@AAV10@@Z ENDP ; std::forward<std::basic_string<char,std::char_traits<char>,std::allocator<char> > >
_TEXT	ENDS
PUBLIC	??$addressof@$$CBK@std@@YAPBKABK@Z		; std::addressof<unsigned long const >
; Function compile flags: /Ogsp
; File c:\program files (x86)\microsoft visual studio 10.0\vc\include\xmemory
;	COMDAT ??$addressof@$$CBK@std@@YAPBKABK@Z
_TEXT	SEGMENT
__Val$ = 8						; size = 4
??$addressof@$$CBK@std@@YAPBKABK@Z PROC			; std::addressof<unsigned long const >, COMDAT

; 110  : 	{	// return address of _Val

  00000	55		 push	 ebp
  00001	8b ec		 mov	 ebp, esp

; 111  : 	return ((_Ty *) &(char&)_Val);

  00003	8b 45 08	 mov	 eax, DWORD PTR __Val$[ebp]

; 112  : 	}

  00006	5d		 pop	 ebp
  00007	c3		 ret	 0
??$addressof@$$CBK@std@@YAPBKABK@Z ENDP			; std::addressof<unsigned long const >
_TEXT	ENDS
PUBLIC	??$_Allocate@K@std@@YAPAKIPAK@Z			; std::_Allocate<unsigned long>
; Function compile flags: /Ogsp
;	COMDAT ??$_Allocate@K@std@@YAPAKIPAK@Z
_TEXT	SEGMENT
$T510330 = -12						; size = 12
$T510334 = 8						; size = 4
__Count$ = 8						; size = 4
___formal$ = 12						; size = 4
??$_Allocate@K@std@@YAPAKIPAK@Z PROC			; std::_Allocate<unsigned long>, COMDAT

; 30   : 	{	// allocate storage for _Count elements of type _Ty

  00000	55		 push	 ebp
  00001	8b ec		 mov	 ebp, esp

; 31   : 	void *_Ptr = 0;
; 32   : 
; 33   : 	if (_Count <= 0)

  00003	8b 4d 08	 mov	 ecx, DWORD PTR __Count$[ebp]
  00006	83 ec 0c	 sub	 esp, 12			; 0000000cH
  00009	33 c0		 xor	 eax, eax
  0000b	85 c9		 test	 ecx, ecx

; 34   : 		_Count = 0;
; 35   : 	else if (((_SIZT)(-1) / sizeof (_Ty) < _Count)

  0000d	74 3e		 je	 SHORT $LN5@Allocate@3

; 36   : 		|| (_Ptr = ::operator new(_Count * sizeof (_Ty))) == 0)

  0000f	81 f9 ff ff ff
	3f		 cmp	 ecx, 1073741823		; 3fffffffH
  00015	77 10		 ja	 SHORT $LN1@Allocate@3
  00017	8b c1		 mov	 eax, ecx
  00019	c1 e0 02	 shl	 eax, 2
  0001c	50		 push	 eax
  0001d	e8 00 00 00 00	 call	 ??2@YAPAXI@Z		; operator new
  00022	59		 pop	 ecx
  00023	85 c0		 test	 eax, eax

; 38   : 
; 39   : 	return ((_Ty _FARQ *)_Ptr);

  00025	75 26		 jne	 SHORT $LN5@Allocate@3
$LN1@Allocate@3:

; 37   : 		_THROW_NCEE(bad_alloc, 0);

  00027	83 65 08 00	 and	 DWORD PTR $T510334[ebp], 0
  0002b	8d 45 08	 lea	 eax, DWORD PTR $T510334[ebp]
  0002e	50		 push	 eax
  0002f	8d 4d f4	 lea	 ecx, DWORD PTR $T510330[ebp]
  00032	ff 15 00 00 00
	00		 call	 DWORD PTR __imp_??0exception@std@@QAE@ABQBD@Z
  00038	68 00 00 00 00	 push	 OFFSET __TI2?AVbad_alloc@std@@
  0003d	8d 45 f4	 lea	 eax, DWORD PTR $T510330[ebp]
  00040	50		 push	 eax
  00041	c7 45 f4 00 00
	00 00		 mov	 DWORD PTR $T510330[ebp], OFFSET ??_7bad_alloc@std@@6B@
  00048	e8 00 00 00 00	 call	 __CxxThrowException@8
$LN10@Allocate@3:
$LN5@Allocate@3:

; 40   : 	}

  0004d	c9		 leave
  0004e	c3		 ret	 0
$LN9@Allocate@3:
??$_Allocate@K@std@@YAPAKIPAK@Z ENDP			; std::_Allocate<unsigned long>
_TEXT	ENDS
PUBLIC	??$_Allocate@D@std@@YAPADIPAD@Z			; std::_Allocate<char>
; Function compile flags: /Ogsp
;	COMDAT ??$_Allocate@D@std@@YAPADIPAD@Z
_TEXT	SEGMENT
$T510339 = -12						; size = 12
$T510343 = 8						; size = 4
__Count$ = 8						; size = 4
___formal$ = 12						; size = 4
??$_Allocate@D@std@@YAPADIPAD@Z PROC			; std::_Allocate<char>, COMDAT

; 30   : 	{	// allocate storage for _Count elements of type _Ty

  00000	55		 push	 ebp
  00001	8b ec		 mov	 ebp, esp

; 31   : 	void *_Ptr = 0;

  00003	33 c0		 xor	 eax, eax
  00005	83 ec 0c	 sub	 esp, 12			; 0000000cH

; 32   : 
; 33   : 	if (_Count <= 0)

  00008	39 45 08	 cmp	 DWORD PTR __Count$[ebp], eax

; 34   : 		_Count = 0;
; 35   : 	else if (((_SIZT)(-1) / sizeof (_Ty) < _Count)

  0000b	76 39		 jbe	 SHORT $LN5@Allocate@4

; 36   : 		|| (_Ptr = ::operator new(_Count * sizeof (_Ty))) == 0)

  0000d	83 7d 08 ff	 cmp	 DWORD PTR __Count$[ebp], -1
  00011	77 0d		 ja	 SHORT $LN1@Allocate@4
  00013	ff 75 08	 push	 DWORD PTR __Count$[ebp]
  00016	e8 00 00 00 00	 call	 ??2@YAPAXI@Z		; operator new
  0001b	59		 pop	 ecx
  0001c	85 c0		 test	 eax, eax

; 38   : 
; 39   : 	return ((_Ty _FARQ *)_Ptr);

  0001e	75 26		 jne	 SHORT $LN5@Allocate@4
$LN1@Allocate@4:

; 37   : 		_THROW_NCEE(bad_alloc, 0);

  00020	83 65 08 00	 and	 DWORD PTR $T510343[ebp], 0
  00024	8d 45 08	 lea	 eax, DWORD PTR $T510343[ebp]
  00027	50		 push	 eax
  00028	8d 4d f4	 lea	 ecx, DWORD PTR $T510339[ebp]
  0002b	ff 15 00 00 00
	00		 call	 DWORD PTR __imp_??0exception@std@@QAE@ABQBD@Z
  00031	68 00 00 00 00	 push	 OFFSET __TI2?AVbad_alloc@std@@
  00036	8d 45 f4	 lea	 eax, DWORD PTR $T510339[ebp]
  00039	50		 push	 eax
  0003a	c7 45 f4 00 00
	00 00		 mov	 DWORD PTR $T510339[ebp], OFFSET ??_7bad_alloc@std@@6B@
  00041	e8 00 00 00 00	 call	 __CxxThrowException@8
$LN10@Allocate@4:
$LN5@Allocate@4:

; 40   : 	}

  00046	c9		 leave
  00047	c3		 ret	 0
$LN9@Allocate@4:
??$_Allocate@D@std@@YAPADIPAD@Z ENDP			; std::_Allocate<char>
_TEXT	ENDS
EXTRN	__imp_??0exception@std@@QAE@ABV01@@Z:PROC
; Function compile flags: /Ogsp
;	COMDAT ??0bad_alloc@std@@QAE@ABV01@@Z
_TEXT	SEGMENT
___that$ = 8						; size = 4
??0bad_alloc@std@@QAE@ABV01@@Z PROC			; std::bad_alloc::bad_alloc, COMDAT
; _this$ = ecx
  00000	55		 push	 ebp
  00001	8b ec		 mov	 ebp, esp
  00003	56		 push	 esi
  00004	ff 75 08	 push	 DWORD PTR ___that$[ebp]
  00007	8b f1		 mov	 esi, ecx
  00009	ff 15 00 00 00
	00		 call	 DWORD PTR __imp_??0exception@std@@QAE@ABV01@@Z
  0000f	c7 06 00 00 00
	00		 mov	 DWORD PTR [esi], OFFSET ??_7bad_alloc@std@@6B@
  00015	8b c6		 mov	 eax, esi
  00017	5e		 pop	 esi
  00018	5d		 pop	 ebp
  00019	c2 04 00	 ret	 4
??0bad_alloc@std@@QAE@ABV01@@Z ENDP			; std::bad_alloc::bad_alloc
_TEXT	ENDS
PUBLIC	??$move@AAV?$basic_string@DU?$char_traits@D@std@@V?$allocator@D@2@@std@@@std@@YA$$QAV?$basic_string@DU?$char_traits@D@std@@V?$allocator@D@2@@0@AAV10@@Z ; std::move<std::basic_string<char,std::char_traits<char>,std::allocator<char> > &>
; Function compile flags: /Ogsp
; File c:\program files (x86)\microsoft visual studio 10.0\vc\include\utility
;	COMDAT ??$move@AAV?$basic_string@DU?$char_traits@D@std@@V?$allocator@D@2@@std@@@std@@YA$$QAV?$basic_string@DU?$char_traits@D@std@@V?$allocator@D@2@@0@AAV10@@Z
_TEXT	SEGMENT
__Arg$ = 8						; size = 4
??$move@AAV?$basic_string@DU?$char_traits@D@std@@V?$allocator@D@2@@std@@@std@@YA$$QAV?$basic_string@DU?$char_traits@D@std@@V?$allocator@D@2@@0@AAV10@@Z PROC ; std::move<std::basic_string<char,std::char_traits<char>,std::allocator<char> > &>, COMDAT

; 86   : 	{	// forward _Arg as movable

  00000	55		 push	 ebp
  00001	8b ec		 mov	 ebp, esp

; 87   : 	return ((typename tr1::_Remove_reference<_Ty>::_Type&&)_Arg);

  00003	8b 45 08	 mov	 eax, DWORD PTR __Arg$[ebp]

; 88   : 	}

  00006	5d		 pop	 ebp
  00007	c3		 ret	 0
??$move@AAV?$basic_string@DU?$char_traits@D@std@@V?$allocator@D@2@@std@@@std@@YA$$QAV?$basic_string@DU?$char_traits@D@std@@V?$allocator@D@2@@0@AAV10@@Z ENDP ; std::move<std::basic_string<char,std::char_traits<char>,std::allocator<char> > &>
_TEXT	ENDS
PUBLIC	??$forward@AAK@std@@YAAAKAAK@Z			; std::forward<unsigned long &>
; Function compile flags: /Ogsp
;	COMDAT ??$forward@AAK@std@@YAAAKAAK@Z
_TEXT	SEGMENT
__Arg$ = 8						; size = 4
??$forward@AAK@std@@YAAAKAAK@Z PROC			; std::forward<unsigned long &>, COMDAT

; 78   : 	{	// forward _Arg, given explicitly specified type parameter

  00000	55		 push	 ebp
  00001	8b ec		 mov	 ebp, esp

; 79   : 	return ((_Ty&&)_Arg);

  00003	8b 45 08	 mov	 eax, DWORD PTR __Arg$[ebp]

; 80   : 	}

  00006	5d		 pop	 ebp
  00007	c3		 ret	 0
??$forward@AAK@std@@YAAAKAAK@Z ENDP			; std::forward<unsigned long &>
_TEXT	ENDS
PUBLIC	??$construct@AAK@?$allocator@K@std@@QAEXPAKAAK@Z ; std::allocator<unsigned long>::construct<unsigned long &>
; Function compile flags: /Ogsp
; File c:\program files (x86)\microsoft visual studio 10.0\vc\include\xmemory
;	COMDAT ??$construct@AAK@?$allocator@K@std@@QAEXPAKAAK@Z
_TEXT	SEGMENT
__Ptr$ = 8						; size = 4
__Val$ = 12						; size = 4
??$construct@AAK@?$allocator@K@std@@QAEXPAKAAK@Z PROC	; std::allocator<unsigned long>::construct<unsigned long &>, COMDAT
; _this$ = ecx

; 206  : 		void construct(pointer _Ptr, _Other&& _Val)

  00000	55		 push	 ebp
  00001	8b ec		 mov	 ebp, esp

; 207  : 		{	// construct object at _Ptr with value _Val
; 208  : 		::new ((void _FARQ *)_Ptr) _Ty(_STD forward<_Other>(_Val));

  00003	8b 45 08	 mov	 eax, DWORD PTR __Ptr$[ebp]
  00006	85 c0		 test	 eax, eax
  00008	74 07		 je	 SHORT $LN3@construct@2
  0000a	8b 4d 0c	 mov	 ecx, DWORD PTR __Val$[ebp]
  0000d	8b 09		 mov	 ecx, DWORD PTR [ecx]
  0000f	89 08		 mov	 DWORD PTR [eax], ecx
$LN3@construct@2:

; 209  : 		}

  00011	5d		 pop	 ebp
  00012	c2 08 00	 ret	 8
??$construct@AAK@?$allocator@K@std@@QAEXPAKAAK@Z ENDP	; std::allocator<unsigned long>::construct<unsigned long &>
_TEXT	ENDS
PUBLIC	??$forward@ABK@std@@YAABKABK@Z			; std::forward<unsigned long const &>
; Function compile flags: /Ogsp
; File c:\program files (x86)\microsoft visual studio 10.0\vc\include\utility
;	COMDAT ??$forward@ABK@std@@YAABKABK@Z
_TEXT	SEGMENT
__Arg$ = 8						; size = 4
??$forward@ABK@std@@YAABKABK@Z PROC			; std::forward<unsigned long const &>, COMDAT

; 78   : 	{	// forward _Arg, given explicitly specified type parameter

  00000	55		 push	 ebp
  00001	8b ec		 mov	 ebp, esp

; 79   : 	return ((_Ty&&)_Arg);

  00003	8b 45 08	 mov	 eax, DWORD PTR __Arg$[ebp]

; 80   : 	}

  00006	5d		 pop	 ebp
  00007	c3		 ret	 0
??$forward@ABK@std@@YAABKABK@Z ENDP			; std::forward<unsigned long const &>
_TEXT	ENDS
PUBLIC	??$?8DD@std@@YA_NABV?$allocator@D@0@0@Z		; std::operator==<char,char>
; Function compile flags: /Ogsp
; File c:\program files (x86)\microsoft visual studio 10.0\vc\include\xmemory
;	COMDAT ??$?8DD@std@@YA_NABV?$allocator@D@0@0@Z
_TEXT	SEGMENT
___formal$ = 8						; size = 4
___formal$ = 12						; size = 4
??$?8DD@std@@YA_NABV?$allocator@D@0@0@Z PROC		; std::operator==<char,char>, COMDAT

; 263  : 	return (true);

  00000	b0 01		 mov	 al, 1

; 264  : 	}

  00002	c3		 ret	 0
??$?8DD@std@@YA_NABV?$allocator@D@0@0@Z ENDP		; std::operator==<char,char>
_TEXT	ENDS
PUBLIC	??$_Ptr_cat@KK@std@@YA?AU_Scalar_ptr_iterator_tag@0@PAK0@Z ; std::_Ptr_cat<unsigned long,unsigned long>
; Function compile flags: /Ogsp
; File c:\program files (x86)\microsoft visual studio 10.0\vc\include\xutility
;	COMDAT ??$_Ptr_cat@KK@std@@YA?AU_Scalar_ptr_iterator_tag@0@PAK0@Z
_TEXT	SEGMENT
__Cat$ = -1						; size = 1
___formal$ = 8						; size = 4
___formal$ = 12						; size = 4
??$_Ptr_cat@KK@std@@YA?AU_Scalar_ptr_iterator_tag@0@PAK0@Z PROC ; std::_Ptr_cat<unsigned long,unsigned long>, COMDAT

; 516  : 	{	// return pointer category from pointers

  00000	55		 push	 ebp
  00001	8b ec		 mov	 ebp, esp
  00003	51		 push	 ecx

; 517  : 	typename _Ptr_cat_helper<_Elem1, _Elem2>::_Type _Cat;
; 518  : 	return (_Cat);

  00004	8a 45 ff	 mov	 al, BYTE PTR __Cat$[ebp]

; 519  : 	}

  00007	c9		 leave
  00008	c3		 ret	 0
??$_Ptr_cat@KK@std@@YA?AU_Scalar_ptr_iterator_tag@0@PAK0@Z ENDP ; std::_Ptr_cat<unsigned long,unsigned long>
_TEXT	ENDS
PUBLIC	??$_Move@PAKPAK@std@@YAPAKPAK00U_Scalar_ptr_iterator_tag@0@@Z ; std::_Move<unsigned long *,unsigned long *>
; Function compile flags: /Ogsp
;	COMDAT ??$_Move@PAKPAK@std@@YAPAKPAK00U_Scalar_ptr_iterator_tag@0@@Z
_TEXT	SEGMENT
__First$ = 8						; size = 4
__Last$ = 12						; size = 4
__Dest$ = 16						; size = 4
___formal$ = 20						; size = 1
??$_Move@PAKPAK@std@@YAPAKPAK00U_Scalar_ptr_iterator_tag@0@@Z PROC ; std::_Move<unsigned long *,unsigned long *>, COMDAT

; 2522 : 	{	// move [_First, _Last) to [_Dest, ...), pointers to scalars

  00000	55		 push	 ebp
  00001	8b ec		 mov	 ebp, esp
  00003	56		 push	 esi

; 2523 : 	ptrdiff_t _Count = _Last - _First;

  00004	8b 75 0c	 mov	 esi, DWORD PTR __Last$[ebp]
  00007	2b 75 08	 sub	 esi, DWORD PTR __First$[ebp]
  0000a	57		 push	 edi

; 2524 : 	_CSTD memmove(&*_Dest, &*_First,
; 2525 : 		_Count * sizeof (*_First));

  0000b	8b 7d 10	 mov	 edi, DWORD PTR __Dest$[ebp]
  0000e	c1 fe 02	 sar	 esi, 2
  00011	c1 e6 02	 shl	 esi, 2
  00014	56		 push	 esi
  00015	ff 75 08	 push	 DWORD PTR __First$[ebp]
  00018	57		 push	 edi
  00019	ff 15 00 00 00
	00		 call	 DWORD PTR __imp__memmove
  0001f	83 c4 0c	 add	 esp, 12			; 0000000cH

; 2526 : 	return (_Dest + _Count);

  00022	8d 04 3e	 lea	 eax, DWORD PTR [esi+edi]
  00025	5f		 pop	 edi
  00026	5e		 pop	 esi

; 2527 : 	}

  00027	5d		 pop	 ebp
  00028	c3		 ret	 0
??$_Move@PAKPAK@std@@YAPAKPAK00U_Scalar_ptr_iterator_tag@0@@Z ENDP ; std::_Move<unsigned long *,unsigned long *>
_TEXT	ENDS
PUBLIC	??$_Destroy_range@V?$allocator@K@std@@@std@@YAXPAK0AAV?$allocator@K@0@U_Scalar_ptr_iterator_tag@0@@Z ; std::_Destroy_range<std::allocator<unsigned long> >
; Function compile flags: /Ogsp
; File c:\program files (x86)\microsoft visual studio 10.0\vc\include\xmemory
;	COMDAT ??$_Destroy_range@V?$allocator@K@std@@@std@@YAXPAK0AAV?$allocator@K@0@U_Scalar_ptr_iterator_tag@0@@Z
_TEXT	SEGMENT
__First$ = 8						; size = 4
__Last$ = 12						; size = 4
__Al$ = 16						; size = 4
___formal$ = 20						; size = 1
??$_Destroy_range@V?$allocator@K@std@@@std@@YAXPAK0AAV?$allocator@K@0@U_Scalar_ptr_iterator_tag@0@@Z PROC ; std::_Destroy_range<std::allocator<unsigned long> >, COMDAT

; 105  : 	}

  00000	c3		 ret	 0
??$_Destroy_range@V?$allocator@K@std@@@std@@YAXPAK0AAV?$allocator@K@0@U_Scalar_ptr_iterator_tag@0@@Z ENDP ; std::_Destroy_range<std::allocator<unsigned long> >
_TEXT	ENDS
PUBLIC	??$_Construct@KABK@std@@YAXPAKABK@Z		; std::_Construct<unsigned long,unsigned long const &>
; Function compile flags: /Ogsp
;	COMDAT ??$_Construct@KABK@std@@YAXPAKABK@Z
_TEXT	SEGMENT
__Ptr$ = 8						; size = 4
__Val$ = 12						; size = 4
??$_Construct@KABK@std@@YAXPAKABK@Z PROC		; std::_Construct<unsigned long,unsigned long const &>, COMDAT

; 46   : 	{	// construct object at _Ptr with value _Val

  00000	55		 push	 ebp
  00001	8b ec		 mov	 ebp, esp

; 47   : 	void _FARQ *_Vptr = _Ptr;
; 48   : 	::new (_Vptr) _Ty1(_STD forward<_Ty2>(_Val));

  00003	8b 45 08	 mov	 eax, DWORD PTR __Ptr$[ebp]
  00006	85 c0		 test	 eax, eax
  00008	74 07		 je	 SHORT $LN3@Construct
  0000a	8b 4d 0c	 mov	 ecx, DWORD PTR __Val$[ebp]
  0000d	8b 09		 mov	 ecx, DWORD PTR [ecx]
  0000f	89 08		 mov	 DWORD PTR [eax], ecx
$LN3@Construct:

; 49   : 	}

  00011	5d		 pop	 ebp
  00012	c3		 ret	 0
??$_Construct@KABK@std@@YAXPAKABK@Z ENDP		; std::_Construct<unsigned long,unsigned long const &>
_TEXT	ENDS
PUBLIC	??$_Val_type@PAK@std@@YAPAKPAK@Z		; std::_Val_type<unsigned long *>
; Function compile flags: /Ogsp
; File c:\program files (x86)\microsoft visual studio 10.0\vc\include\xutility
;	COMDAT ??$_Val_type@PAK@std@@YAPAKPAK@Z
_TEXT	SEGMENT
___formal$ = 8						; size = 4
??$_Val_type@PAK@std@@YAPAKPAK@Z PROC			; std::_Val_type<unsigned long *>, COMDAT

; 790  : 	return (0);

  00000	33 c0		 xor	 eax, eax

; 791  : 	}

  00002	c3		 ret	 0
??$_Val_type@PAK@std@@YAPAKPAK@Z ENDP			; std::_Val_type<unsigned long *>
_TEXT	ENDS
PUBLIC	??$_Uninit_move@KKK@std@@YAPAKPAK00AAV?$allocator@K@0@0U_Scalar_ptr_iterator_tag@0@@Z ; std::_Uninit_move<unsigned long,unsigned long,unsigned long>
; Function compile flags: /Ogsp
; File c:\program files (x86)\microsoft visual studio 10.0\vc\include\memory
;	COMDAT ??$_Uninit_move@KKK@std@@YAPAKPAK00AAV?$allocator@K@0@0U_Scalar_ptr_iterator_tag@0@@Z
_TEXT	SEGMENT
__First$ = 8						; size = 4
__Last$ = 12						; size = 4
__Dest$ = 16						; size = 4
___formal$ = 20						; size = 4
___formal$ = 24						; size = 4
___formal$ = 28						; size = 1
??$_Uninit_move@KKK@std@@YAPAKPAK00AAV?$allocator@K@0@0U_Scalar_ptr_iterator_tag@0@@Z PROC ; std::_Uninit_move<unsigned long,unsigned long,unsigned long>, COMDAT

; 456  : 	{	// move [_First, _Last) to raw _Dest, scalar type

  00000	55		 push	 ebp
  00001	8b ec		 mov	 ebp, esp
  00003	56		 push	 esi

; 457  : 	_DEBUG_RANGE(_First, _Last);
; 458  : 	_DEBUG_POINTER(_Dest);
; 459  : 	size_t _Count = (size_t)(_Last - _First);

  00004	8b 75 0c	 mov	 esi, DWORD PTR __Last$[ebp]
  00007	2b 75 08	 sub	 esi, DWORD PTR __First$[ebp]
  0000a	c1 fe 02	 sar	 esi, 2

; 460  : 	return ((_Ty2 *)_CSTD memmove(&*_Dest, &*_First,
; 461  : 		_Count * sizeof (*_First)) + _Count);	// NB: non-overlapping move

  0000d	c1 e6 02	 shl	 esi, 2
  00010	56		 push	 esi
  00011	ff 75 08	 push	 DWORD PTR __First$[ebp]
  00014	ff 75 10	 push	 DWORD PTR __Dest$[ebp]
  00017	ff 15 00 00 00
	00		 call	 DWORD PTR __imp__memmove
  0001d	83 c4 0c	 add	 esp, 12			; 0000000cH
  00020	03 c6		 add	 eax, esi
  00022	5e		 pop	 esi

; 462  : 	}

  00023	5d		 pop	 ebp
  00024	c3		 ret	 0
??$_Uninit_move@KKK@std@@YAPAKPAK00AAV?$allocator@K@0@0U_Scalar_ptr_iterator_tag@0@@Z ENDP ; std::_Uninit_move<unsigned long,unsigned long,unsigned long>
_TEXT	ENDS
PUBLIC	??1?$_Vector_val@V?$basic_string@DU?$char_traits@D@std@@V?$allocator@D@2@@std@@V?$allocator@V?$basic_string@DU?$char_traits@D@std@@V?$allocator@D@2@@std@@@2@@std@@QAE@XZ ; std::_Vector_val<std::basic_string<char,std::char_traits<char>,std::allocator<char> >,std::allocator<std::basic_string<char,std::char_traits<char>,std::allocator<char> > > >::~_Vector_val<std::basic_string<char,std::char_traits<char>,std::allocator<char> >,std::allocator<std::basic_string<char,std::char_traits<char>,std::allocator<char> > > >
; Function compile flags: /Ogsp
; File c:\program files (x86)\microsoft visual studio 10.0\vc\include\vector
;	COMDAT ??1?$_Vector_val@V?$basic_string@DU?$char_traits@D@std@@V?$allocator@D@2@@std@@V?$allocator@V?$basic_string@DU?$char_traits@D@std@@V?$allocator@D@2@@std@@@2@@std@@QAE@XZ
_TEXT	SEGMENT
??1?$_Vector_val@V?$basic_string@DU?$char_traits@D@std@@V?$allocator@D@2@@std@@V?$allocator@V?$basic_string@DU?$char_traits@D@std@@V?$allocator@D@2@@std@@@2@@std@@QAE@XZ PROC ; std::_Vector_val<std::basic_string<char,std::char_traits<char>,std::allocator<char> >,std::allocator<std::basic_string<char,std::char_traits<char>,std::allocator<char> > > >::~_Vector_val<std::basic_string<char,std::char_traits<char>,std::allocator<char> >,std::allocator<std::basic_string<char,std::char_traits<char>,std::allocator<char> > > >, COMDAT
; _this$ = ecx

; 434  : 		}

  00000	c3		 ret	 0
??1?$_Vector_val@V?$basic_string@DU?$char_traits@D@std@@V?$allocator@D@2@@std@@V?$allocator@V?$basic_string@DU?$char_traits@D@std@@V?$allocator@D@2@@std@@@2@@std@@QAE@XZ ENDP ; std::_Vector_val<std::basic_string<char,std::char_traits<char>,std::allocator<char> >,std::allocator<std::basic_string<char,std::char_traits<char>,std::allocator<char> > > >::~_Vector_val<std::basic_string<char,std::char_traits<char>,std::allocator<char> >,std::allocator<std::basic_string<char,std::char_traits<char>,std::allocator<char> > > >
_TEXT	ENDS
PUBLIC	?deallocate@?$allocator@V?$basic_string@DU?$char_traits@D@std@@V?$allocator@D@2@@std@@@std@@QAEXPAV?$basic_string@DU?$char_traits@D@std@@V?$allocator@D@2@@2@I@Z ; std::allocator<std::basic_string<char,std::char_traits<char>,std::allocator<char> > >::deallocate
; Function compile flags: /Ogsp
; File c:\program files (x86)\microsoft visual studio 10.0\vc\include\xmemory
;	COMDAT ?deallocate@?$allocator@V?$basic_string@DU?$char_traits@D@std@@V?$allocator@D@2@@std@@@std@@QAEXPAV?$basic_string@DU?$char_traits@D@std@@V?$allocator@D@2@@2@I@Z
_TEXT	SEGMENT
__Ptr$ = 8						; size = 4
___formal$ = 12						; size = 4
?deallocate@?$allocator@V?$basic_string@DU?$char_traits@D@std@@V?$allocator@D@2@@std@@@std@@QAEXPAV?$basic_string@DU?$char_traits@D@std@@V?$allocator@D@2@@2@I@Z PROC ; std::allocator<std::basic_string<char,std::char_traits<char>,std::allocator<char> > >::deallocate, COMDAT
; _this$ = ecx

; 181  : 		{	// deallocate object at _Ptr, ignore size

  00000	55		 push	 ebp
  00001	8b ec		 mov	 ebp, esp

; 182  : 		::operator delete(_Ptr);

  00003	ff 75 08	 push	 DWORD PTR __Ptr$[ebp]
  00006	e8 00 00 00 00	 call	 ??3@YAXPAX@Z		; operator delete
  0000b	59		 pop	 ecx

; 183  : 		}

  0000c	5d		 pop	 ebp
  0000d	c2 08 00	 ret	 8
?deallocate@?$allocator@V?$basic_string@DU?$char_traits@D@std@@V?$allocator@D@2@@std@@@std@@QAEXPAV?$basic_string@DU?$char_traits@D@std@@V?$allocator@D@2@@2@I@Z ENDP ; std::allocator<std::basic_string<char,std::char_traits<char>,std::allocator<char> > >::deallocate
_TEXT	ENDS
PUBLIC	??$_Ptr_cat@V?$basic_string@DU?$char_traits@D@std@@V?$allocator@D@2@@std@@V12@@std@@YA?AU_Nonscalar_ptr_iterator_tag@0@PAV?$basic_string@DU?$char_traits@D@std@@V?$allocator@D@2@@0@0@Z ; std::_Ptr_cat<std::basic_string<char,std::char_traits<char>,std::allocator<char> >,std::basic_string<char,std::char_traits<char>,std::allocator<char> > >
; Function compile flags: /Ogsp
; File c:\program files (x86)\microsoft visual studio 10.0\vc\include\xutility
;	COMDAT ??$_Ptr_cat@V?$basic_string@DU?$char_traits@D@std@@V?$allocator@D@2@@std@@V12@@std@@YA?AU_Nonscalar_ptr_iterator_tag@0@PAV?$basic_string@DU?$char_traits@D@std@@V?$allocator@D@2@@0@0@Z
_TEXT	SEGMENT
__Cat$ = -1						; size = 1
___formal$ = 8						; size = 4
___formal$ = 12						; size = 4
??$_Ptr_cat@V?$basic_string@DU?$char_traits@D@std@@V?$allocator@D@2@@std@@V12@@std@@YA?AU_Nonscalar_ptr_iterator_tag@0@PAV?$basic_string@DU?$char_traits@D@std@@V?$allocator@D@2@@0@0@Z PROC ; std::_Ptr_cat<std::basic_string<char,std::char_traits<char>,std::allocator<char> >,std::basic_string<char,std::char_traits<char>,std::allocator<char> > >, COMDAT

; 516  : 	{	// return pointer category from pointers

  00000	55		 push	 ebp
  00001	8b ec		 mov	 ebp, esp
  00003	51		 push	 ecx

; 517  : 	typename _Ptr_cat_helper<_Elem1, _Elem2>::_Type _Cat;
; 518  : 	return (_Cat);

  00004	8a 45 ff	 mov	 al, BYTE PTR __Cat$[ebp]

; 519  : 	}

  00007	c9		 leave
  00008	c3		 ret	 0
??$_Ptr_cat@V?$basic_string@DU?$char_traits@D@std@@V?$allocator@D@2@@std@@V12@@std@@YA?AU_Nonscalar_ptr_iterator_tag@0@PAV?$basic_string@DU?$char_traits@D@std@@V?$allocator@D@2@@0@0@Z ENDP ; std::_Ptr_cat<std::basic_string<char,std::char_traits<char>,std::allocator<char> >,std::basic_string<char,std::char_traits<char>,std::allocator<char> > >
_TEXT	ENDS
PUBLIC	?CheckHideWnd@ServiceCharWnd@@IAEXXZ		; ServiceCharWnd::CheckHideWnd
EXTRN	?IsCharActive@ioMyInfo@@QAE_NH@Z:PROC		; ioMyInfo::IsCharActive
EXTRN	?GetClassArray@ioMyInfo@@QAEHH@Z:PROC		; ioMyInfo::GetClassArray
EXTRN	?GetClassArrayExceptExercise@ioMyInfo@@QAEHH@Z:PROC ; ioMyInfo::GetClassArrayExceptExercise
EXTRN	?GetSingleton@ioMyInfo@@SAAAV1@XZ:PROC		; ioMyInfo::GetSingleton
EXTRN	__imp_?HideWnd@ioWnd@@QAEXXZ:PROC
; Function compile flags: /Ogsp
; File d:\lost saga for developer\youtube\tutorial\source\src\lsclient\gui\servicecharwnd.cpp
;	COMDAT ?CheckHideWnd@ServiceCharWnd@@IAEXXZ
_TEXT	SEGMENT
_iMax$ = -4						; size = 4
?CheckHideWnd@ServiceCharWnd@@IAEXXZ PROC		; ServiceCharWnd::CheckHideWnd, COMDAT
; _this$ = ecx

; 462  : {

  00000	55		 push	 ebp
  00001	8b ec		 mov	 ebp, esp
  00003	51		 push	 ecx
  00004	56		 push	 esi
  00005	8b f1		 mov	 esi, ecx

; 463  : 	if( m_dwFirstClassList.empty() )

  00007	8b 8e 98 01 00
	00		 mov	 ecx, DWORD PTR [esi+408]
  0000d	8b 86 9c 01 00
	00		 mov	 eax, DWORD PTR [esi+412]
  00013	3b c8		 cmp	 ecx, eax
  00015	75 11		 jne	 SHORT $LN6@CheckHideW

; 464  : 	{
; 465  : 		HideWnd();

  00017	8b ce		 mov	 ecx, esi
  00019	ff 15 00 00 00
	00		 call	 DWORD PTR __imp_?HideWnd@ioWnd@@QAEXXZ

; 466  : 		sg_bWndShow = false;

  0001f	c6 05 00 00 00
	00 00		 mov	 BYTE PTR ?sg_bWndShow@ServiceCharWnd@@1_NA, 0 ; ServiceCharWnd::sg_bWndShow

; 467  : 		return;

  00026	eb 69		 jmp	 SHORT $LN7@CheckHideW
$LN6@CheckHideW:

; 468  : 	}
; 469  : 
; 470  : 	int iMax = (int) m_dwFirstClassList.size();

  00028	2b c1		 sub	 eax, ecx
  0002a	53		 push	 ebx
  0002b	c1 f8 02	 sar	 eax, 2

; 471  : 	for (int i = 0; i < iMax ; i++)

  0002e	33 db		 xor	 ebx, ebx
  00030	57		 push	 edi
  00031	89 45 fc	 mov	 DWORD PTR _iMax$[ebp], eax
  00034	85 c0		 test	 eax, eax
  00036	7e 48		 jle	 SHORT $LN3@CheckHideW
$LL5@CheckHideW:
  00038	8b 86 98 01 00
	00		 mov	 eax, DWORD PTR [esi+408]
  0003e	8b fb		 mov	 edi, ebx

; 472  : 	{
; 473  : 		if( g_MyInfo.GetClassArrayExceptExercise( m_dwFirstClassList[i] ) == -1 )

  00040	ff 34 b8	 push	 DWORD PTR [eax+edi*4]
  00043	e8 00 00 00 00	 call	 ?GetSingleton@ioMyInfo@@SAAAV1@XZ ; ioMyInfo::GetSingleton
  00048	8b c8		 mov	 ecx, eax
  0004a	e8 00 00 00 00	 call	 ?GetClassArrayExceptExercise@ioMyInfo@@QAEHH@Z ; ioMyInfo::GetClassArrayExceptExercise
  0004f	83 f8 ff	 cmp	 eax, -1
  00052	74 3b		 je	 SHORT $LN21@CheckHideW

; 474  : 			return;
; 475  : 		if( !g_MyInfo.IsCharActive( g_MyInfo.GetClassArray( m_dwFirstClassList[i] ) ) )

  00054	8b 86 98 01 00
	00		 mov	 eax, DWORD PTR [esi+408]
  0005a	ff 34 b8	 push	 DWORD PTR [eax+edi*4]
  0005d	e8 00 00 00 00	 call	 ?GetSingleton@ioMyInfo@@SAAAV1@XZ ; ioMyInfo::GetSingleton
  00062	8b c8		 mov	 ecx, eax
  00064	e8 00 00 00 00	 call	 ?GetClassArray@ioMyInfo@@QAEHH@Z ; ioMyInfo::GetClassArray
  00069	50		 push	 eax
  0006a	e8 00 00 00 00	 call	 ?GetSingleton@ioMyInfo@@SAAAV1@XZ ; ioMyInfo::GetSingleton
  0006f	8b c8		 mov	 ecx, eax
  00071	e8 00 00 00 00	 call	 ?IsCharActive@ioMyInfo@@QAE_NH@Z ; ioMyInfo::IsCharActive
  00076	84 c0		 test	 al, al
  00078	74 15		 je	 SHORT $LN21@CheckHideW

; 471  : 	for (int i = 0; i < iMax ; i++)

  0007a	43		 inc	 ebx
  0007b	3b 5d fc	 cmp	 ebx, DWORD PTR _iMax$[ebp]
  0007e	7c b8		 jl	 SHORT $LL5@CheckHideW
$LN3@CheckHideW:

; 476  : 			return;
; 477  : 	}
; 478  : 
; 479  : 	// 구매할 용병이 없다면
; 480  : 	HideWnd();

  00080	8b ce		 mov	 ecx, esi
  00082	ff 15 00 00 00
	00		 call	 DWORD PTR __imp_?HideWnd@ioWnd@@QAEXXZ

; 481  : 	sg_bWndShow = false;

  00088	c6 05 00 00 00
	00 00		 mov	 BYTE PTR ?sg_bWndShow@ServiceCharWnd@@1_NA, 0 ; ServiceCharWnd::sg_bWndShow
$LN21@CheckHideW:
  0008f	5f		 pop	 edi
  00090	5b		 pop	 ebx
$LN7@CheckHideW:
  00091	5e		 pop	 esi

; 482  : }

  00092	c9		 leave
  00093	c3		 ret	 0
?CheckHideWnd@ServiceCharWnd@@IAEXXZ ENDP		; ServiceCharWnd::CheckHideWnd
_TEXT	ENDS
PUBLIC	??0?$_Vector_val@V?$basic_string@DU?$char_traits@D@std@@V?$allocator@D@2@@std@@V?$allocator@V?$basic_string@DU?$char_traits@D@std@@V?$allocator@D@2@@std@@@2@@std@@QAE@V?$allocator@V?$basic_string@DU?$char_traits@D@std@@V?$allocator@D@2@@std@@@1@@Z ; std::_Vector_val<std::basic_string<char,std::char_traits<char>,std::allocator<char> >,std::allocator<std::basic_string<char,std::char_traits<char>,std::allocator<char> > > >::_Vector_val<std::basic_string<char,std::char_traits<char>,std::allocator<char> >,std::allocator<std::basic_string<char,std::char_traits<char>,std::allocator<char> > > >
; Function compile flags: /Ogsp
; File c:\program files (x86)\microsoft visual studio 10.0\vc\include\vector
;	COMDAT ??0?$_Vector_val@V?$basic_string@DU?$char_traits@D@std@@V?$allocator@D@2@@std@@V?$allocator@V?$basic_string@DU?$char_traits@D@std@@V?$allocator@D@2@@std@@@2@@std@@QAE@V?$allocator@V?$basic_string@DU?$char_traits@D@std@@V?$allocator@D@2@@std@@@1@@Z
_TEXT	SEGMENT
__Al$ = 8						; size = 1
??0?$_Vector_val@V?$basic_string@DU?$char_traits@D@std@@V?$allocator@D@2@@std@@V?$allocator@V?$basic_string@DU?$char_traits@D@std@@V?$allocator@D@2@@std@@@2@@std@@QAE@V?$allocator@V?$basic_string@DU?$char_traits@D@std@@V?$allocator@D@2@@std@@@1@@Z PROC ; std::_Vector_val<std::basic_string<char,std::char_traits<char>,std::allocator<char> >,std::allocator<std::basic_string<char,std::char_traits<char>,std::allocator<char> > > >::_Vector_val<std::basic_string<char,std::char_traits<char>,std::allocator<char> >,std::allocator<std::basic_string<char,std::char_traits<char>,std::allocator<char> > > >, COMDAT
; _this$ = ecx

; 426  : 		{	// construct allocator from _Al

  00000	8b c1		 mov	 eax, ecx

; 427  : 		_Myfirst = 0;

  00002	33 c9		 xor	 ecx, ecx
  00004	89 08		 mov	 DWORD PTR [eax], ecx

; 428  : 		_Mylast = 0;

  00006	89 48 04	 mov	 DWORD PTR [eax+4], ecx

; 429  : 		_Myend = 0;

  00009	89 48 08	 mov	 DWORD PTR [eax+8], ecx

; 430  : 		}

  0000c	c2 04 00	 ret	 4
??0?$_Vector_val@V?$basic_string@DU?$char_traits@D@std@@V?$allocator@D@2@@std@@V?$allocator@V?$basic_string@DU?$char_traits@D@std@@V?$allocator@D@2@@std@@@2@@std@@QAE@V?$allocator@V?$basic_string@DU?$char_traits@D@std@@V?$allocator@D@2@@std@@@1@@Z ENDP ; std::_Vector_val<std::basic_string<char,std::char_traits<char>,std::allocator<char> >,std::allocator<std::basic_string<char,std::char_traits<char>,std::allocator<char> > > >::_Vector_val<std::basic_string<char,std::char_traits<char>,std::allocator<char> >,std::allocator<std::basic_string<char,std::char_traits<char>,std::allocator<char> > > >
_TEXT	ENDS
PUBLIC	??0?$_Vector_val@W4RaceDetailType@@V?$allocator@W4RaceDetailType@@@std@@@std@@QAE@V?$allocator@W4RaceDetailType@@@1@@Z ; std::_Vector_val<enum RaceDetailType,std::allocator<enum RaceDetailType> >::_Vector_val<enum RaceDetailType,std::allocator<enum RaceDetailType> >
; Function compile flags: /Ogsp
;	COMDAT ??0?$_Vector_val@W4RaceDetailType@@V?$allocator@W4RaceDetailType@@@std@@@std@@QAE@V?$allocator@W4RaceDetailType@@@1@@Z
_TEXT	SEGMENT
__Al$ = 8						; size = 1
??0?$_Vector_val@W4RaceDetailType@@V?$allocator@W4RaceDetailType@@@std@@@std@@QAE@V?$allocator@W4RaceDetailType@@@1@@Z PROC ; std::_Vector_val<enum RaceDetailType,std::allocator<enum RaceDetailType> >::_Vector_val<enum RaceDetailType,std::allocator<enum RaceDetailType> >, COMDAT
; _this$ = ecx

; 426  : 		{	// construct allocator from _Al

  00000	8b c1		 mov	 eax, ecx

; 427  : 		_Myfirst = 0;

  00002	33 c9		 xor	 ecx, ecx
  00004	89 08		 mov	 DWORD PTR [eax], ecx

; 428  : 		_Mylast = 0;

  00006	89 48 04	 mov	 DWORD PTR [eax+4], ecx

; 429  : 		_Myend = 0;

  00009	89 48 08	 mov	 DWORD PTR [eax+8], ecx

; 430  : 		}

  0000c	c2 04 00	 ret	 4
??0?$_Vector_val@W4RaceDetailType@@V?$allocator@W4RaceDetailType@@@std@@@std@@QAE@V?$allocator@W4RaceDetailType@@@1@@Z ENDP ; std::_Vector_val<enum RaceDetailType,std::allocator<enum RaceDetailType> >::_Vector_val<enum RaceDetailType,std::allocator<enum RaceDetailType> >
_TEXT	ENDS
PUBLIC	?max_size@?$vector@V?$basic_string@DU?$char_traits@D@std@@V?$allocator@D@2@@std@@V?$allocator@V?$basic_string@DU?$char_traits@D@std@@V?$allocator@D@2@@std@@@2@@std@@QBEIXZ ; std::vector<std::basic_string<char,std::char_traits<char>,std::allocator<char> >,std::allocator<std::basic_string<char,std::char_traits<char>,std::allocator<char> > > >::max_size
; Function compile flags: /Ogsp
;	COMDAT ?max_size@?$vector@V?$basic_string@DU?$char_traits@D@std@@V?$allocator@D@2@@std@@V?$allocator@V?$basic_string@DU?$char_traits@D@std@@V?$allocator@D@2@@std@@@2@@std@@QBEIXZ
_TEXT	SEGMENT
?max_size@?$vector@V?$basic_string@DU?$char_traits@D@std@@V?$allocator@D@2@@std@@V?$allocator@V?$basic_string@DU?$char_traits@D@std@@V?$allocator@D@2@@std@@@2@@std@@QBEIXZ PROC ; std::vector<std::basic_string<char,std::char_traits<char>,std::allocator<char> >,std::allocator<std::basic_string<char,std::char_traits<char>,std::allocator<char> > > >::max_size, COMDAT
; _this$ = ecx

; 884  : 		return (this->_Alval.max_size());

  00000	b8 49 92 24 09	 mov	 eax, 153391689		; 09249249H

; 885  : 		}

  00005	c3		 ret	 0
?max_size@?$vector@V?$basic_string@DU?$char_traits@D@std@@V?$allocator@D@2@@std@@V?$allocator@V?$basic_string@DU?$char_traits@D@std@@V?$allocator@D@2@@std@@@2@@std@@QBEIXZ ENDP ; std::vector<std::basic_string<char,std::char_traits<char>,std::allocator<char> >,std::allocator<std::basic_string<char,std::char_traits<char>,std::allocator<char> > > >::max_size
_TEXT	ENDS
PUBLIC	?allocate@?$allocator@V?$basic_string@DU?$char_traits@D@std@@V?$allocator@D@2@@std@@@std@@QAEPAV?$basic_string@DU?$char_traits@D@std@@V?$allocator@D@2@@2@I@Z ; std::allocator<std::basic_string<char,std::char_traits<char>,std::allocator<char> > >::allocate
; Function compile flags: /Ogsp
; File c:\program files (x86)\microsoft visual studio 10.0\vc\include\xmemory
;	COMDAT ?allocate@?$allocator@V?$basic_string@DU?$char_traits@D@std@@V?$allocator@D@2@@std@@@std@@QAEPAV?$basic_string@DU?$char_traits@D@std@@V?$allocator@D@2@@2@I@Z
_TEXT	SEGMENT
__Count$ = 8						; size = 4
?allocate@?$allocator@V?$basic_string@DU?$char_traits@D@std@@V?$allocator@D@2@@std@@@std@@QAEPAV?$basic_string@DU?$char_traits@D@std@@V?$allocator@D@2@@2@I@Z PROC ; std::allocator<std::basic_string<char,std::char_traits<char>,std::allocator<char> > >::allocate, COMDAT
; _this$ = ecx

; 186  : 		{	// allocate array of _Count elements

  00000	55		 push	 ebp
  00001	8b ec		 mov	 ebp, esp

; 187  : 		return (_Allocate(_Count, (pointer)0));

  00003	6a 00		 push	 0
  00005	ff 75 08	 push	 DWORD PTR __Count$[ebp]
  00008	e8 00 00 00 00	 call	 ??$_Allocate@V?$basic_string@DU?$char_traits@D@std@@V?$allocator@D@2@@std@@@std@@YAPAV?$basic_string@DU?$char_traits@D@std@@V?$allocator@D@2@@0@IPAV10@@Z ; std::_Allocate<std::basic_string<char,std::char_traits<char>,std::allocator<char> > >
  0000d	59		 pop	 ecx
  0000e	59		 pop	 ecx

; 188  : 		}

  0000f	5d		 pop	 ebp
  00010	c2 04 00	 ret	 4
?allocate@?$allocator@V?$basic_string@DU?$char_traits@D@std@@V?$allocator@D@2@@std@@@std@@QAEPAV?$basic_string@DU?$char_traits@D@std@@V?$allocator@D@2@@2@I@Z ENDP ; std::allocator<std::basic_string<char,std::char_traits<char>,std::allocator<char> > >::allocate
_TEXT	ENDS
PUBLIC	?max_size@?$vector@W4RaceDetailType@@V?$allocator@W4RaceDetailType@@@std@@@std@@QBEIXZ ; std::vector<enum RaceDetailType,std::allocator<enum RaceDetailType> >::max_size
; Function compile flags: /Ogsp
; File c:\program files (x86)\microsoft visual studio 10.0\vc\include\vector
;	COMDAT ?max_size@?$vector@W4RaceDetailType@@V?$allocator@W4RaceDetailType@@@std@@@std@@QBEIXZ
_TEXT	SEGMENT
?max_size@?$vector@W4RaceDetailType@@V?$allocator@W4RaceDetailType@@@std@@@std@@QBEIXZ PROC ; std::vector<enum RaceDetailType,std::allocator<enum RaceDetailType> >::max_size, COMDAT
; _this$ = ecx

; 884  : 		return (this->_Alval.max_size());

  00000	b8 ff ff ff 3f	 mov	 eax, 1073741823		; 3fffffffH

; 885  : 		}

  00005	c3		 ret	 0
?max_size@?$vector@W4RaceDetailType@@V?$allocator@W4RaceDetailType@@@std@@@std@@QBEIXZ ENDP ; std::vector<enum RaceDetailType,std::allocator<enum RaceDetailType> >::max_size
_TEXT	ENDS
PUBLIC	?_Grow_to@?$vector@W4RaceDetailType@@V?$allocator@W4RaceDetailType@@@std@@@std@@IBEII@Z ; std::vector<enum RaceDetailType,std::allocator<enum RaceDetailType> >::_Grow_to
; Function compile flags: /Ogsp
;	COMDAT ?_Grow_to@?$vector@W4RaceDetailType@@V?$allocator@W4RaceDetailType@@@std@@@std@@IBEII@Z
_TEXT	SEGMENT
__Count$ = 8						; size = 4
?_Grow_to@?$vector@W4RaceDetailType@@V?$allocator@W4RaceDetailType@@@std@@@std@@IBEII@Z PROC ; std::vector<enum RaceDetailType,std::allocator<enum RaceDetailType> >::_Grow_to, COMDAT
; _this$ = ecx

; 1274 : 		{	// grow by 50% or at least to _Count

  00000	55		 push	 ebp
  00001	8b ec		 mov	 ebp, esp

; 1275 : 		size_type _Capacity = capacity();

  00003	8b 41 08	 mov	 eax, DWORD PTR [ecx+8]
  00006	2b 01		 sub	 eax, DWORD PTR [ecx]

; 1276 : 
; 1277 : 		_Capacity = max_size() - _Capacity / 2 < _Capacity
; 1278 : 			? 0 : _Capacity + _Capacity / 2;	// try to grow by 50%

  00008	ba ff ff ff 3f	 mov	 edx, 1073741823		; 3fffffffH
  0000d	c1 f8 02	 sar	 eax, 2
  00010	8b c8		 mov	 ecx, eax
  00012	d1 e9		 shr	 ecx, 1
  00014	2b d1		 sub	 edx, ecx
  00016	3b d0		 cmp	 edx, eax
  00018	73 04		 jae	 SHORT $LN4@Grow_to
  0001a	33 c0		 xor	 eax, eax
  0001c	eb 02		 jmp	 SHORT $LN5@Grow_to
$LN4@Grow_to:
  0001e	03 c1		 add	 eax, ecx
$LN5@Grow_to:

; 1279 : 		if (_Capacity < _Count)

  00020	3b 45 08	 cmp	 eax, DWORD PTR __Count$[ebp]

; 1280 : 			_Capacity = _Count;

  00023	0f 42 45 08	 cmovb	 eax, DWORD PTR __Count$[ebp]

; 1281 : 		return (_Capacity);
; 1282 : 		}

  00027	5d		 pop	 ebp
  00028	c2 04 00	 ret	 4
?_Grow_to@?$vector@W4RaceDetailType@@V?$allocator@W4RaceDetailType@@@std@@@std@@IBEII@Z ENDP ; std::vector<enum RaceDetailType,std::allocator<enum RaceDetailType> >::_Grow_to
_TEXT	ENDS
PUBLIC	??0?$_Vector_iterator@V?$_Vector_val@V?$basic_string@DU?$char_traits@D@std@@V?$allocator@D@2@@std@@V?$allocator@V?$basic_string@DU?$char_traits@D@std@@V?$allocator@D@2@@std@@@2@@std@@@std@@QAE@PAV?$basic_string@DU?$char_traits@D@std@@V?$allocator@D@2@@1@PBU_Container_base0@1@@Z ; std::_Vector_iterator<std::_Vector_val<std::basic_string<char,std::char_traits<char>,std::allocator<char> >,std::allocator<std::basic_string<char,std::char_traits<char>,std::allocator<char> > > > >::_Vector_iterator<std::_Vector_val<std::basic_string<char,std::char_traits<char>,std::allocator<char> >,std::allocator<std::basic_string<char,std::char_traits<char>,std::allocator<char> > > > >
; Function compile flags: /Ogsp
;	COMDAT ??0?$_Vector_iterator@V?$_Vector_val@V?$basic_string@DU?$char_traits@D@std@@V?$allocator@D@2@@std@@V?$allocator@V?$basic_string@DU?$char_traits@D@std@@V?$allocator@D@2@@std@@@2@@std@@@std@@QAE@PAV?$basic_string@DU?$char_traits@D@std@@V?$allocator@D@2@@1@PBU_Container_base0@1@@Z
_TEXT	SEGMENT
__Parg$ = 8						; size = 4
__Pvector$ = 12						; size = 4
??0?$_Vector_iterator@V?$_Vector_val@V?$basic_string@DU?$char_traits@D@std@@V?$allocator@D@2@@std@@V?$allocator@V?$basic_string@DU?$char_traits@D@std@@V?$allocator@D@2@@std@@@2@@std@@@std@@QAE@PAV?$basic_string@DU?$char_traits@D@std@@V?$allocator@D@2@@1@PBU_Container_base0@1@@Z PROC ; std::_Vector_iterator<std::_Vector_val<std::basic_string<char,std::char_traits<char>,std::allocator<char> >,std::allocator<std::basic_string<char,std::char_traits<char>,std::allocator<char> > > > >::_Vector_iterator<std::_Vector_val<std::basic_string<char,std::char_traits<char>,std::allocator<char> >,std::allocator<std::basic_string<char,std::char_traits<char>,std::allocator<char> > > > >, COMDAT
; _this$ = ecx

; 304  : 		{	// construct with pointer _Parg

  00000	55		 push	 ebp
  00001	8b ec		 mov	 ebp, esp
  00003	8b c1		 mov	 eax, ecx
  00005	8b 4d 08	 mov	 ecx, DWORD PTR __Parg$[ebp]
  00008	89 08		 mov	 DWORD PTR [eax], ecx

; 305  : 		}

  0000a	5d		 pop	 ebp
  0000b	c2 08 00	 ret	 8
??0?$_Vector_iterator@V?$_Vector_val@V?$basic_string@DU?$char_traits@D@std@@V?$allocator@D@2@@std@@V?$allocator@V?$basic_string@DU?$char_traits@D@std@@V?$allocator@D@2@@std@@@2@@std@@@std@@QAE@PAV?$basic_string@DU?$char_traits@D@std@@V?$allocator@D@2@@1@PBU_Container_base0@1@@Z ENDP ; std::_Vector_iterator<std::_Vector_val<std::basic_string<char,std::char_traits<char>,std::allocator<char> >,std::allocator<std::basic_string<char,std::char_traits<char>,std::allocator<char> > > > >::_Vector_iterator<std::_Vector_val<std::basic_string<char,std::char_traits<char>,std::allocator<char> >,std::allocator<std::basic_string<char,std::char_traits<char>,std::allocator<char> > > > >
_TEXT	ENDS
PUBLIC	??0?$_Vector_iterator@V?$_Vector_val@W4RaceDetailType@@V?$allocator@W4RaceDetailType@@@std@@@std@@@std@@QAE@PAW4RaceDetailType@@PBU_Container_base0@1@@Z ; std::_Vector_iterator<std::_Vector_val<enum RaceDetailType,std::allocator<enum RaceDetailType> > >::_Vector_iterator<std::_Vector_val<enum RaceDetailType,std::allocator<enum RaceDetailType> > >
; Function compile flags: /Ogsp
;	COMDAT ??0?$_Vector_iterator@V?$_Vector_val@W4RaceDetailType@@V?$allocator@W4RaceDetailType@@@std@@@std@@@std@@QAE@PAW4RaceDetailType@@PBU_Container_base0@1@@Z
_TEXT	SEGMENT
__Parg$ = 8						; size = 4
__Pvector$ = 12						; size = 4
??0?$_Vector_iterator@V?$_Vector_val@W4RaceDetailType@@V?$allocator@W4RaceDetailType@@@std@@@std@@@std@@QAE@PAW4RaceDetailType@@PBU_Container_base0@1@@Z PROC ; std::_Vector_iterator<std::_Vector_val<enum RaceDetailType,std::allocator<enum RaceDetailType> > >::_Vector_iterator<std::_Vector_val<enum RaceDetailType,std::allocator<enum RaceDetailType> > >, COMDAT
; _this$ = ecx

; 304  : 		{	// construct with pointer _Parg

  00000	55		 push	 ebp
  00001	8b ec		 mov	 ebp, esp
  00003	8b c1		 mov	 eax, ecx
  00005	8b 4d 08	 mov	 ecx, DWORD PTR __Parg$[ebp]
  00008	89 08		 mov	 DWORD PTR [eax], ecx

; 305  : 		}

  0000a	5d		 pop	 ebp
  0000b	c2 08 00	 ret	 8
??0?$_Vector_iterator@V?$_Vector_val@W4RaceDetailType@@V?$allocator@W4RaceDetailType@@@std@@@std@@@std@@QAE@PAW4RaceDetailType@@PBU_Container_base0@1@@Z ENDP ; std::_Vector_iterator<std::_Vector_val<enum RaceDetailType,std::allocator<enum RaceDetailType> > >::_Vector_iterator<std::_Vector_val<enum RaceDetailType,std::allocator<enum RaceDetailType> > >
_TEXT	ENDS
PUBLIC	?allocate@?$allocator@W4RaceDetailType@@@std@@QAEPAW4RaceDetailType@@I@Z ; std::allocator<enum RaceDetailType>::allocate
; Function compile flags: /Ogsp
; File c:\program files (x86)\microsoft visual studio 10.0\vc\include\xmemory
;	COMDAT ?allocate@?$allocator@W4RaceDetailType@@@std@@QAEPAW4RaceDetailType@@I@Z
_TEXT	SEGMENT
__Count$ = 8						; size = 4
?allocate@?$allocator@W4RaceDetailType@@@std@@QAEPAW4RaceDetailType@@I@Z PROC ; std::allocator<enum RaceDetailType>::allocate, COMDAT
; _this$ = ecx

; 186  : 		{	// allocate array of _Count elements

  00000	55		 push	 ebp
  00001	8b ec		 mov	 ebp, esp

; 187  : 		return (_Allocate(_Count, (pointer)0));

  00003	6a 00		 push	 0
  00005	ff 75 08	 push	 DWORD PTR __Count$[ebp]
  00008	e8 00 00 00 00	 call	 ??$_Allocate@W4RaceDetailType@@@std@@YAPAW4RaceDetailType@@IPAW41@@Z ; std::_Allocate<enum RaceDetailType>
  0000d	59		 pop	 ecx
  0000e	59		 pop	 ecx

; 188  : 		}

  0000f	5d		 pop	 ebp
  00010	c2 04 00	 ret	 4
?allocate@?$allocator@W4RaceDetailType@@@std@@QAEPAW4RaceDetailType@@I@Z ENDP ; std::allocator<enum RaceDetailType>::allocate
_TEXT	ENDS
PUBLIC	??8?$_Vector_const_iterator@V?$_Vector_val@V?$basic_string@DU?$char_traits@D@std@@V?$allocator@D@2@@std@@V?$allocator@V?$basic_string@DU?$char_traits@D@std@@V?$allocator@D@2@@std@@@2@@std@@@std@@QBE_NABV01@@Z ; std::_Vector_const_iterator<std::_Vector_val<std::basic_string<char,std::char_traits<char>,std::allocator<char> >,std::allocator<std::basic_string<char,std::char_traits<char>,std::allocator<char> > > > >::operator==
; Function compile flags: /Ogsp
; File c:\program files (x86)\microsoft visual studio 10.0\vc\include\vector
;	COMDAT ??8?$_Vector_const_iterator@V?$_Vector_val@V?$basic_string@DU?$char_traits@D@std@@V?$allocator@D@2@@std@@V?$allocator@V?$basic_string@DU?$char_traits@D@std@@V?$allocator@D@2@@std@@@2@@std@@@std@@QBE_NABV01@@Z
_TEXT	SEGMENT
__Right$ = 8						; size = 4
??8?$_Vector_const_iterator@V?$_Vector_val@V?$basic_string@DU?$char_traits@D@std@@V?$allocator@D@2@@std@@V?$allocator@V?$basic_string@DU?$char_traits@D@std@@V?$allocator@D@2@@std@@@2@@std@@@std@@QBE_NABV01@@Z PROC ; std::_Vector_const_iterator<std::_Vector_val<std::basic_string<char,std::char_traits<char>,std::allocator<char> >,std::allocator<std::basic_string<char,std::char_traits<char>,std::allocator<char> > > > >::operator==, COMDAT
; _this$ = ecx

; 201  : 		{	// test for iterator equality

  00000	55		 push	 ebp
  00001	8b ec		 mov	 ebp, esp

; 202  : 		_Compat(_Right);
; 203  : 		return (this->_Ptr == _Right._Ptr);

  00003	8b 01		 mov	 eax, DWORD PTR [ecx]
  00005	8b 4d 08	 mov	 ecx, DWORD PTR __Right$[ebp]
  00008	2b 01		 sub	 eax, DWORD PTR [ecx]
  0000a	f7 d8		 neg	 eax
  0000c	1b c0		 sbb	 eax, eax
  0000e	40		 inc	 eax

; 204  : 		}

  0000f	5d		 pop	 ebp
  00010	c2 04 00	 ret	 4
??8?$_Vector_const_iterator@V?$_Vector_val@V?$basic_string@DU?$char_traits@D@std@@V?$allocator@D@2@@std@@V?$allocator@V?$basic_string@DU?$char_traits@D@std@@V?$allocator@D@2@@std@@@2@@std@@@std@@QBE_NABV01@@Z ENDP ; std::_Vector_const_iterator<std::_Vector_val<std::basic_string<char,std::char_traits<char>,std::allocator<char> >,std::allocator<std::basic_string<char,std::char_traits<char>,std::allocator<char> > > > >::operator==
_TEXT	ENDS
PUBLIC	??8?$_Vector_const_iterator@V?$_Vector_val@W4RaceDetailType@@V?$allocator@W4RaceDetailType@@@std@@@std@@@std@@QBE_NABV01@@Z ; std::_Vector_const_iterator<std::_Vector_val<enum RaceDetailType,std::allocator<enum RaceDetailType> > >::operator==
; Function compile flags: /Ogsp
;	COMDAT ??8?$_Vector_const_iterator@V?$_Vector_val@W4RaceDetailType@@V?$allocator@W4RaceDetailType@@@std@@@std@@@std@@QBE_NABV01@@Z
_TEXT	SEGMENT
__Right$ = 8						; size = 4
??8?$_Vector_const_iterator@V?$_Vector_val@W4RaceDetailType@@V?$allocator@W4RaceDetailType@@@std@@@std@@@std@@QBE_NABV01@@Z PROC ; std::_Vector_const_iterator<std::_Vector_val<enum RaceDetailType,std::allocator<enum RaceDetailType> > >::operator==, COMDAT
; _this$ = ecx

; 201  : 		{	// test for iterator equality

  00000	55		 push	 ebp
  00001	8b ec		 mov	 ebp, esp

; 202  : 		_Compat(_Right);
; 203  : 		return (this->_Ptr == _Right._Ptr);

  00003	8b 01		 mov	 eax, DWORD PTR [ecx]
  00005	8b 4d 08	 mov	 ecx, DWORD PTR __Right$[ebp]
  00008	2b 01		 sub	 eax, DWORD PTR [ecx]
  0000a	f7 d8		 neg	 eax
  0000c	1b c0		 sbb	 eax, eax
  0000e	40		 inc	 eax

; 204  : 		}

  0000f	5d		 pop	 ebp
  00010	c2 04 00	 ret	 4
??8?$_Vector_const_iterator@V?$_Vector_val@W4RaceDetailType@@V?$allocator@W4RaceDetailType@@@std@@@std@@@std@@QBE_NABV01@@Z ENDP ; std::_Vector_const_iterator<std::_Vector_val<enum RaceDetailType,std::allocator<enum RaceDetailType> > >::operator==
_TEXT	ENDS
PUBLIC	__$ArrayPad$
PUBLIC	??$SetTitle_e@$07@ioINILoader@@QAEXAAY07$$CBD@Z	; ioINILoader::SetTitle_e<8>
EXTRN	__imp_?SetTitle@ioINILoader@@QAEXPBD@Z:PROC
EXTRN	___security_cookie:DWORD
EXTRN	@__security_check_cookie@4:PROC
; Function compile flags: /Ogsp
; File d:\lost saga for developer\youtube\tutorial\source\src\io3dengine\ioiniloader.h
;	COMDAT ??$SetTitle_e@$07@ioINILoader@@QAEXAAY07$$CBD@Z
_TEXT	SEGMENT
__t$ = -16						; size = 8
__$ArrayPad$ = -4					; size = 4
_t$ = 8							; size = 4
??$SetTitle_e@$07@ioINILoader@@QAEXAAY07$$CBD@Z PROC	; ioINILoader::SetTitle_e<8>, COMDAT
; _this$ = ecx

; 188  : 	{

  00000	55		 push	 ebp
  00001	8b ec		 mov	 ebp, esp
  00003	83 ec 10	 sub	 esp, 16			; 00000010H
  00006	a1 00 00 00 00	 mov	 eax, DWORD PTR ___security_cookie
  0000b	33 c5		 xor	 eax, ebp
  0000d	89 45 fc	 mov	 DWORD PTR __$ArrayPad$[ebp], eax
  00010	8b 45 08	 mov	 eax, DWORD PTR _t$[ebp]

; 189  : 		_ENCSTR(t, _t);

  00013	8a 10		 mov	 dl, BYTE PTR [eax]
  00015	56		 push	 esi
  00016	8b f1		 mov	 esi, ecx
  00018	84 d2		 test	 dl, dl
  0001a	0f 84 d7 00 00
	00		 je	 $LN96@SetTitle_e
  00020	80 f2 ed	 xor	 dl, -19			; ffffffedH
  00023	88 55 f0	 mov	 BYTE PTR __t$[ebp], dl
  00026	8a 50 01	 mov	 dl, BYTE PTR [eax+1]
  00029	84 d2		 test	 dl, dl
  0002b	0f 84 c0 00 00
	00		 je	 $LN95@SetTitle_e
  00031	80 f2 ec	 xor	 dl, -20			; ffffffecH
  00034	88 55 f1	 mov	 BYTE PTR __t$[ebp+1], dl
  00037	8a 50 02	 mov	 dl, BYTE PTR [eax+2]
  0003a	84 d2		 test	 dl, dl
  0003c	0f 84 a9 00 00
	00		 je	 $LN94@SetTitle_e
  00042	80 f2 eb	 xor	 dl, -21			; ffffffebH
  00045	88 55 f2	 mov	 BYTE PTR __t$[ebp+2], dl
  00048	8a 50 03	 mov	 dl, BYTE PTR [eax+3]
  0004b	84 d2		 test	 dl, dl
  0004d	0f 84 92 00 00
	00		 je	 $LN93@SetTitle_e
  00053	80 f2 ea	 xor	 dl, -22			; ffffffeaH
  00056	88 55 f3	 mov	 BYTE PTR __t$[ebp+3], dl
  00059	8a 50 04	 mov	 dl, BYTE PTR [eax+4]
  0005c	84 d2		 test	 dl, dl
  0005e	74 7f		 je	 SHORT $LN92@SetTitle_e
  00060	80 f2 ed	 xor	 dl, -19			; ffffffedH
  00063	88 55 f4	 mov	 BYTE PTR __t$[ebp+4], dl
  00066	8a 50 05	 mov	 dl, BYTE PTR [eax+5]
  00069	84 d2		 test	 dl, dl
  0006b	74 6c		 je	 SHORT $LN91@SetTitle_e
  0006d	80 f2 ec	 xor	 dl, -20			; ffffffecH
  00070	88 55 f5	 mov	 BYTE PTR __t$[ebp+5], dl
  00073	8a 50 06	 mov	 dl, BYTE PTR [eax+6]
  00076	84 d2		 test	 dl, dl
  00078	74 59		 je	 SHORT $LN90@SetTitle_e
  0007a	80 f2 eb	 xor	 dl, -21			; ffffffebH
  0007d	80 78 07 00	 cmp	 BYTE PTR [eax+7], 0
  00081	88 55 f6	 mov	 BYTE PTR __t$[ebp+6], dl
  00084	74 75		 je	 SHORT $LN1@SetTitle_e
  00086	8a 50 08	 mov	 dl, BYTE PTR [eax+8]
  00089	84 d2		 test	 dl, dl
  0008b	74 40		 je	 SHORT $LN88@SetTitle_e
  0008d	80 f2 ed	 xor	 dl, -19			; ffffffedH
  00090	88 55 f8	 mov	 BYTE PTR __t$[ebp+8], dl
  00093	8a 50 09	 mov	 dl, BYTE PTR [eax+9]
  00096	84 d2		 test	 dl, dl
  00098	74 2d		 je	 SHORT $LN87@SetTitle_e
  0009a	80 f2 ec	 xor	 dl, -20			; ffffffecH
  0009d	88 55 f9	 mov	 BYTE PTR __t$[ebp+9], dl
  000a0	8a 50 0a	 mov	 dl, BYTE PTR [eax+10]
  000a3	84 d2		 test	 dl, dl
  000a5	74 1a		 je	 SHORT $LN86@SetTitle_e
  000a7	8a 40 0b	 mov	 al, BYTE PTR [eax+11]
  000aa	80 f2 eb	 xor	 dl, -21			; ffffffebH
  000ad	88 55 fa	 mov	 BYTE PTR __t$[ebp+10], dl
  000b0	84 c0		 test	 al, al
  000b2	74 07		 je	 SHORT $LN85@SetTitle_e
  000b4	34 ea		 xor	 al, -22			; ffffffeaH
  000b6	88 45 fb	 mov	 BYTE PTR __t$[ebp+11], al
  000b9	eb 40		 jmp	 SHORT $LN1@SetTitle_e
$LN85@SetTitle_e:
  000bb	c6 45 fb ea	 mov	 BYTE PTR __t$[ebp+11], -22 ; ffffffeaH
  000bf	eb 3a		 jmp	 SHORT $LN1@SetTitle_e
$LN86@SetTitle_e:
  000c1	c6 45 fa eb	 mov	 BYTE PTR __t$[ebp+10], -21 ; ffffffebH
  000c5	eb 34		 jmp	 SHORT $LN1@SetTitle_e
$LN87@SetTitle_e:
  000c7	c6 45 f9 ec	 mov	 BYTE PTR __t$[ebp+9], -20 ; ffffffecH
  000cb	eb 2e		 jmp	 SHORT $LN1@SetTitle_e
$LN88@SetTitle_e:
  000cd	c6 45 f8 ed	 mov	 BYTE PTR __t$[ebp+8], -19 ; ffffffedH
  000d1	eb 28		 jmp	 SHORT $LN1@SetTitle_e
$LN90@SetTitle_e:
  000d3	c6 45 f6 eb	 mov	 BYTE PTR __t$[ebp+6], -21 ; ffffffebH
  000d7	eb 22		 jmp	 SHORT $LN1@SetTitle_e
$LN91@SetTitle_e:
  000d9	c6 45 f5 ec	 mov	 BYTE PTR __t$[ebp+5], -20 ; ffffffecH
  000dd	eb 1c		 jmp	 SHORT $LN1@SetTitle_e
$LN92@SetTitle_e:
  000df	c6 45 f4 ed	 mov	 BYTE PTR __t$[ebp+4], -19 ; ffffffedH
  000e3	eb 16		 jmp	 SHORT $LN1@SetTitle_e
$LN93@SetTitle_e:
  000e5	c6 45 f3 ea	 mov	 BYTE PTR __t$[ebp+3], -22 ; ffffffeaH
  000e9	eb 10		 jmp	 SHORT $LN1@SetTitle_e
$LN94@SetTitle_e:
  000eb	c6 45 f2 eb	 mov	 BYTE PTR __t$[ebp+2], -21 ; ffffffebH
  000ef	eb 0a		 jmp	 SHORT $LN1@SetTitle_e
$LN95@SetTitle_e:
  000f1	c6 45 f1 ec	 mov	 BYTE PTR __t$[ebp+1], -20 ; ffffffecH
  000f5	eb 04		 jmp	 SHORT $LN1@SetTitle_e
$LN96@SetTitle_e:
  000f7	c6 45 f0 ed	 mov	 BYTE PTR __t$[ebp], -19	; ffffffedH
$LN1@SetTitle_e:
  000fb	81 75 f0 ed ec
	eb ea		 xor	 DWORD PTR __t$[ebp], -353637139 ; eaebecedH
  00102	6a 04		 push	 4
  00104	c6 45 f7 00	 mov	 BYTE PTR __t$[ebp+7], 0
  00108	58		 pop	 eax
$LL101@SetTitle_e:
  00109	8b c8		 mov	 ecx, eax
  0010b	81 e1 03 00 00
	80		 and	 ecx, -2147483645	; 80000003H
  00111	79 05		 jns	 SHORT $LN111@SetTitle_e
  00113	49		 dec	 ecx
  00114	83 c9 fc	 or	 ecx, -4			; fffffffcH
  00117	41		 inc	 ecx
$LN111@SetTitle_e:
  00118	b2 ed		 mov	 dl, -19			; ffffffedH
  0011a	2a d1		 sub	 dl, cl
  0011c	30 54 05 f0	 xor	 BYTE PTR __t$[ebp+eax], dl
  00120	40		 inc	 eax
  00121	83 f8 07	 cmp	 eax, 7
  00124	7c e3		 jl	 SHORT $LL101@SetTitle_e

; 190  : 		SetTitle(_t);

  00126	8d 45 f0	 lea	 eax, DWORD PTR __t$[ebp]
  00129	50		 push	 eax
  0012a	8b ce		 mov	 ecx, esi
  0012c	ff 15 00 00 00
	00		 call	 DWORD PTR __imp_?SetTitle@ioINILoader@@QAEXPBD@Z

; 191  : 	}

  00132	8b 4d fc	 mov	 ecx, DWORD PTR __$ArrayPad$[ebp]
  00135	33 cd		 xor	 ecx, ebp
  00137	5e		 pop	 esi
  00138	e8 00 00 00 00	 call	 @__security_check_cookie@4
  0013d	c9		 leave
  0013e	c2 04 00	 ret	 4
??$SetTitle_e@$07@ioINILoader@@QAEXAAY07$$CBD@Z ENDP	; ioINILoader::SetTitle_e<8>
_TEXT	ENDS
PUBLIC	__$ArrayPad$
PUBLIC	??$LoadString_e@$05@ioINILoader@@QAEXAAY05$$CBDAAY00$$CBDPADH@Z ; ioINILoader::LoadString_e<6>
EXTRN	__imp_?LoadStringA@ioINILoader@@QAEXPBD0PADH@Z:PROC
; Function compile flags: /Ogsp
;	COMDAT ??$LoadString_e@$05@ioINILoader@@QAEXAAY05$$CBDAAY00$$CBDPADH@Z
_TEXT	SEGMENT
__k$ = -16						; size = 6
__$ArrayPad$ = -4					; size = 4
_k$ = 8							; size = 4
_d$ = 12						; size = 4
_b$ = 16						; size = 4
_i$ = 20						; size = 4
??$LoadString_e@$05@ioINILoader@@QAEXAAY05$$CBDAAY00$$CBDPADH@Z PROC ; ioINILoader::LoadString_e<6>, COMDAT
; _this$ = ecx

; 161  : 	{

  00000	55		 push	 ebp
  00001	8b ec		 mov	 ebp, esp
  00003	83 ec 10	 sub	 esp, 16			; 00000010H
  00006	a1 00 00 00 00	 mov	 eax, DWORD PTR ___security_cookie
  0000b	33 c5		 xor	 eax, ebp
  0000d	89 45 fc	 mov	 DWORD PTR __$ArrayPad$[ebp], eax
  00010	8b 45 08	 mov	 eax, DWORD PTR _k$[ebp]

; 162  : 		_ENCSTR(k, _k);

  00013	8a 10		 mov	 dl, BYTE PTR [eax]
  00015	56		 push	 esi
  00016	8b 75 0c	 mov	 esi, DWORD PTR _d$[ebp]
  00019	57		 push	 edi
  0001a	8b 7d 10	 mov	 edi, DWORD PTR _b$[ebp]
  0001d	84 d2		 test	 dl, dl
  0001f	0f 84 a9 00 00
	00		 je	 $LN96@LoadString
  00025	80 f2 ed	 xor	 dl, -19			; ffffffedH
  00028	88 55 f0	 mov	 BYTE PTR __k$[ebp], dl
  0002b	8a 50 01	 mov	 dl, BYTE PTR [eax+1]
  0002e	84 d2		 test	 dl, dl
  00030	0f 84 92 00 00
	00		 je	 $LN95@LoadString
  00036	80 f2 ec	 xor	 dl, -20			; ffffffecH
  00039	88 55 f1	 mov	 BYTE PTR __k$[ebp+1], dl
  0003c	8a 50 02	 mov	 dl, BYTE PTR [eax+2]
  0003f	84 d2		 test	 dl, dl
  00041	74 7f		 je	 SHORT $LN94@LoadString
  00043	80 f2 eb	 xor	 dl, -21			; ffffffebH
  00046	88 55 f2	 mov	 BYTE PTR __k$[ebp+2], dl
  00049	8a 50 03	 mov	 dl, BYTE PTR [eax+3]
  0004c	84 d2		 test	 dl, dl
  0004e	74 6c		 je	 SHORT $LN93@LoadString
  00050	80 f2 ea	 xor	 dl, -22			; ffffffeaH
  00053	88 55 f3	 mov	 BYTE PTR __k$[ebp+3], dl
  00056	8a 50 04	 mov	 dl, BYTE PTR [eax+4]
  00059	84 d2		 test	 dl, dl
  0005b	74 59		 je	 SHORT $LN92@LoadString
  0005d	80 f2 ed	 xor	 dl, -19			; ffffffedH
  00060	80 78 05 00	 cmp	 BYTE PTR [eax+5], 0
  00064	88 55 f4	 mov	 BYTE PTR __k$[ebp+4], dl
  00067	74 69		 je	 SHORT $LN1@LoadString
  00069	8a 50 06	 mov	 dl, BYTE PTR [eax+6]
  0006c	84 d2		 test	 dl, dl
  0006e	74 40		 je	 SHORT $LN90@LoadString
  00070	80 f2 eb	 xor	 dl, -21			; ffffffebH
  00073	88 55 f6	 mov	 BYTE PTR __k$[ebp+6], dl
  00076	8a 50 07	 mov	 dl, BYTE PTR [eax+7]
  00079	84 d2		 test	 dl, dl
  0007b	74 2d		 je	 SHORT $LN89@LoadString
  0007d	80 f2 ea	 xor	 dl, -22			; ffffffeaH
  00080	88 55 f7	 mov	 BYTE PTR __k$[ebp+7], dl
  00083	8a 50 08	 mov	 dl, BYTE PTR [eax+8]
  00086	84 d2		 test	 dl, dl
  00088	74 1a		 je	 SHORT $LN88@LoadString
  0008a	8a 40 09	 mov	 al, BYTE PTR [eax+9]
  0008d	80 f2 ed	 xor	 dl, -19			; ffffffedH
  00090	88 55 f8	 mov	 BYTE PTR __k$[ebp+8], dl
  00093	84 c0		 test	 al, al
  00095	74 07		 je	 SHORT $LN87@LoadString
  00097	34 ec		 xor	 al, -20			; ffffffecH
  00099	88 45 f9	 mov	 BYTE PTR __k$[ebp+9], al
  0009c	eb 34		 jmp	 SHORT $LN1@LoadString
$LN87@LoadString:
  0009e	c6 45 f9 ec	 mov	 BYTE PTR __k$[ebp+9], -20 ; ffffffecH
  000a2	eb 2e		 jmp	 SHORT $LN1@LoadString
$LN88@LoadString:
  000a4	c6 45 f8 ed	 mov	 BYTE PTR __k$[ebp+8], -19 ; ffffffedH
  000a8	eb 28		 jmp	 SHORT $LN1@LoadString
$LN89@LoadString:
  000aa	c6 45 f7 ea	 mov	 BYTE PTR __k$[ebp+7], -22 ; ffffffeaH
  000ae	eb 22		 jmp	 SHORT $LN1@LoadString
$LN90@LoadString:
  000b0	c6 45 f6 eb	 mov	 BYTE PTR __k$[ebp+6], -21 ; ffffffebH
  000b4	eb 1c		 jmp	 SHORT $LN1@LoadString
$LN92@LoadString:
  000b6	c6 45 f4 ed	 mov	 BYTE PTR __k$[ebp+4], -19 ; ffffffedH
  000ba	eb 16		 jmp	 SHORT $LN1@LoadString
$LN93@LoadString:
  000bc	c6 45 f3 ea	 mov	 BYTE PTR __k$[ebp+3], -22 ; ffffffeaH
  000c0	eb 10		 jmp	 SHORT $LN1@LoadString
$LN94@LoadString:
  000c2	c6 45 f2 eb	 mov	 BYTE PTR __k$[ebp+2], -21 ; ffffffebH
  000c6	eb 0a		 jmp	 SHORT $LN1@LoadString
$LN95@LoadString:
  000c8	c6 45 f1 ec	 mov	 BYTE PTR __k$[ebp+1], -20 ; ffffffecH
  000cc	eb 04		 jmp	 SHORT $LN1@LoadString
$LN96@LoadString:
  000ce	c6 45 f0 ed	 mov	 BYTE PTR __k$[ebp], -19	; ffffffedH
$LN1@LoadString:

; 163  : 		LoadString(_k, d, b, i);

  000d2	ff 75 14	 push	 DWORD PTR _i$[ebp]
  000d5	81 75 f0 ed ec
	eb ea		 xor	 DWORD PTR __k$[ebp], -353637139 ; eaebecedH
  000dc	80 75 f4 ed	 xor	 BYTE PTR __k$[ebp+4], -19 ; ffffffedH
  000e0	57		 push	 edi
  000e1	56		 push	 esi
  000e2	8d 45 f0	 lea	 eax, DWORD PTR __k$[ebp]
  000e5	50		 push	 eax
  000e6	c6 45 f5 00	 mov	 BYTE PTR __k$[ebp+5], 0
  000ea	ff 15 00 00 00
	00		 call	 DWORD PTR __imp_?LoadStringA@ioINILoader@@QAEXPBD0PADH@Z

; 164  : 	}

  000f0	8b 4d fc	 mov	 ecx, DWORD PTR __$ArrayPad$[ebp]
  000f3	5f		 pop	 edi
  000f4	33 cd		 xor	 ecx, ebp
  000f6	5e		 pop	 esi
  000f7	e8 00 00 00 00	 call	 @__security_check_cookie@4
  000fc	c9		 leave
  000fd	c2 10 00	 ret	 16			; 00000010H
??$LoadString_e@$05@ioINILoader@@QAEXAAY05$$CBDAAY00$$CBDPADH@Z ENDP ; ioINILoader::LoadString_e<6>
_TEXT	ENDS
PUBLIC	__$ArrayPad$
PUBLIC	??$LoadString_e@$04@ioINILoader@@QAEXAAY04$$CBDAAY00$$CBDPADH@Z ; ioINILoader::LoadString_e<5>
; Function compile flags: /Ogsp
;	COMDAT ??$LoadString_e@$04@ioINILoader@@QAEXAAY04$$CBDAAY00$$CBDPADH@Z
_TEXT	SEGMENT
__k$ = -16						; size = 5
__$ArrayPad$ = -4					; size = 4
_k$ = 8							; size = 4
_d$ = 12						; size = 4
_b$ = 16						; size = 4
_i$ = 20						; size = 4
??$LoadString_e@$04@ioINILoader@@QAEXAAY04$$CBDAAY00$$CBDPADH@Z PROC ; ioINILoader::LoadString_e<5>, COMDAT
; _this$ = ecx

; 161  : 	{

  00000	55		 push	 ebp
  00001	8b ec		 mov	 ebp, esp
  00003	83 ec 10	 sub	 esp, 16			; 00000010H
  00006	a1 00 00 00 00	 mov	 eax, DWORD PTR ___security_cookie
  0000b	33 c5		 xor	 eax, ebp
  0000d	89 45 fc	 mov	 DWORD PTR __$ArrayPad$[ebp], eax
  00010	8b 45 08	 mov	 eax, DWORD PTR _k$[ebp]

; 162  : 		_ENCSTR(k, _k);

  00013	8a 10		 mov	 dl, BYTE PTR [eax]
  00015	56		 push	 esi
  00016	8b 75 0c	 mov	 esi, DWORD PTR _d$[ebp]
  00019	57		 push	 edi
  0001a	8b 7d 10	 mov	 edi, DWORD PTR _b$[ebp]
  0001d	84 d2		 test	 dl, dl
  0001f	0f 84 92 00 00
	00		 je	 $LN96@LoadString@2
  00025	80 f2 ed	 xor	 dl, -19			; ffffffedH
  00028	88 55 f0	 mov	 BYTE PTR __k$[ebp], dl
  0002b	8a 50 01	 mov	 dl, BYTE PTR [eax+1]
  0002e	84 d2		 test	 dl, dl
  00030	74 7f		 je	 SHORT $LN95@LoadString@2
  00032	80 f2 ec	 xor	 dl, -20			; ffffffecH
  00035	88 55 f1	 mov	 BYTE PTR __k$[ebp+1], dl
  00038	8a 50 02	 mov	 dl, BYTE PTR [eax+2]
  0003b	84 d2		 test	 dl, dl
  0003d	74 6c		 je	 SHORT $LN94@LoadString@2
  0003f	80 f2 eb	 xor	 dl, -21			; ffffffebH
  00042	88 55 f2	 mov	 BYTE PTR __k$[ebp+2], dl
  00045	8a 50 03	 mov	 dl, BYTE PTR [eax+3]
  00048	84 d2		 test	 dl, dl
  0004a	74 59		 je	 SHORT $LN93@LoadString@2
  0004c	80 f2 ea	 xor	 dl, -22			; ffffffeaH
  0004f	80 78 04 00	 cmp	 BYTE PTR [eax+4], 0
  00053	88 55 f3	 mov	 BYTE PTR __k$[ebp+3], dl
  00056	74 63		 je	 SHORT $LN1@LoadString@2
  00058	8a 50 05	 mov	 dl, BYTE PTR [eax+5]
  0005b	84 d2		 test	 dl, dl
  0005d	74 40		 je	 SHORT $LN91@LoadString@2
  0005f	80 f2 ec	 xor	 dl, -20			; ffffffecH
  00062	88 55 f5	 mov	 BYTE PTR __k$[ebp+5], dl
  00065	8a 50 06	 mov	 dl, BYTE PTR [eax+6]
  00068	84 d2		 test	 dl, dl
  0006a	74 2d		 je	 SHORT $LN90@LoadString@2
  0006c	80 f2 eb	 xor	 dl, -21			; ffffffebH
  0006f	88 55 f6	 mov	 BYTE PTR __k$[ebp+6], dl
  00072	8a 50 07	 mov	 dl, BYTE PTR [eax+7]
  00075	84 d2		 test	 dl, dl
  00077	74 1a		 je	 SHORT $LN89@LoadString@2
  00079	8a 40 08	 mov	 al, BYTE PTR [eax+8]
  0007c	80 f2 ea	 xor	 dl, -22			; ffffffeaH
  0007f	88 55 f7	 mov	 BYTE PTR __k$[ebp+7], dl
  00082	84 c0		 test	 al, al
  00084	74 07		 je	 SHORT $LN88@LoadString@2
  00086	34 ed		 xor	 al, -19			; ffffffedH
  00088	88 45 f8	 mov	 BYTE PTR __k$[ebp+8], al
  0008b	eb 2e		 jmp	 SHORT $LN1@LoadString@2
$LN88@LoadString@2:
  0008d	c6 45 f8 ed	 mov	 BYTE PTR __k$[ebp+8], -19 ; ffffffedH
  00091	eb 28		 jmp	 SHORT $LN1@LoadString@2
$LN89@LoadString@2:
  00093	c6 45 f7 ea	 mov	 BYTE PTR __k$[ebp+7], -22 ; ffffffeaH
  00097	eb 22		 jmp	 SHORT $LN1@LoadString@2
$LN90@LoadString@2:
  00099	c6 45 f6 eb	 mov	 BYTE PTR __k$[ebp+6], -21 ; ffffffebH
  0009d	eb 1c		 jmp	 SHORT $LN1@LoadString@2
$LN91@LoadString@2:
  0009f	c6 45 f5 ec	 mov	 BYTE PTR __k$[ebp+5], -20 ; ffffffecH
  000a3	eb 16		 jmp	 SHORT $LN1@LoadString@2
$LN93@LoadString@2:
  000a5	c6 45 f3 ea	 mov	 BYTE PTR __k$[ebp+3], -22 ; ffffffeaH
  000a9	eb 10		 jmp	 SHORT $LN1@LoadString@2
$LN94@LoadString@2:
  000ab	c6 45 f2 eb	 mov	 BYTE PTR __k$[ebp+2], -21 ; ffffffebH
  000af	eb 0a		 jmp	 SHORT $LN1@LoadString@2
$LN95@LoadString@2:
  000b1	c6 45 f1 ec	 mov	 BYTE PTR __k$[ebp+1], -20 ; ffffffecH
  000b5	eb 04		 jmp	 SHORT $LN1@LoadString@2
$LN96@LoadString@2:
  000b7	c6 45 f0 ed	 mov	 BYTE PTR __k$[ebp], -19	; ffffffedH
$LN1@LoadString@2:

; 163  : 		LoadString(_k, d, b, i);

  000bb	ff 75 14	 push	 DWORD PTR _i$[ebp]
  000be	81 75 f0 ed ec
	eb ea		 xor	 DWORD PTR __k$[ebp], -353637139 ; eaebecedH
  000c5	57		 push	 edi
  000c6	56		 push	 esi
  000c7	8d 45 f0	 lea	 eax, DWORD PTR __k$[ebp]
  000ca	50		 push	 eax
  000cb	c6 45 f4 00	 mov	 BYTE PTR __k$[ebp+4], 0
  000cf	ff 15 00 00 00
	00		 call	 DWORD PTR __imp_?LoadStringA@ioINILoader@@QAEXPBD0PADH@Z

; 164  : 	}

  000d5	8b 4d fc	 mov	 ecx, DWORD PTR __$ArrayPad$[ebp]
  000d8	5f		 pop	 edi
  000d9	33 cd		 xor	 ecx, ebp
  000db	5e		 pop	 esi
  000dc	e8 00 00 00 00	 call	 @__security_check_cookie@4
  000e1	c9		 leave
  000e2	c2 10 00	 ret	 16			; 00000010H
??$LoadString_e@$04@ioINILoader@@QAEXAAY04$$CBDAAY00$$CBDPADH@Z ENDP ; ioINILoader::LoadString_e<5>
_TEXT	ENDS
PUBLIC	__$ArrayPad$
PUBLIC	??$LoadString_e@$08@ioINILoader@@QAEXAAY08$$CBDAAY00$$CBDPADH@Z ; ioINILoader::LoadString_e<9>
; Function compile flags: /Ogsp
;	COMDAT ??$LoadString_e@$08@ioINILoader@@QAEXAAY08$$CBDAAY00$$CBDPADH@Z
_TEXT	SEGMENT
__k$ = -20						; size = 9
__$ArrayPad$ = -4					; size = 4
_k$ = 8							; size = 4
_d$ = 12						; size = 4
_b$ = 16						; size = 4
_i$ = 20						; size = 4
??$LoadString_e@$08@ioINILoader@@QAEXAAY08$$CBDAAY00$$CBDPADH@Z PROC ; ioINILoader::LoadString_e<9>, COMDAT
; _this$ = ecx

; 161  : 	{

  00000	55		 push	 ebp
  00001	8b ec		 mov	 ebp, esp
  00003	83 ec 14	 sub	 esp, 20			; 00000014H
  00006	a1 00 00 00 00	 mov	 eax, DWORD PTR ___security_cookie
  0000b	33 c5		 xor	 eax, ebp
  0000d	89 45 fc	 mov	 DWORD PTR __$ArrayPad$[ebp], eax
  00010	8b 45 08	 mov	 eax, DWORD PTR _k$[ebp]

; 162  : 		_ENCSTR(k, _k);

  00013	8a 10		 mov	 dl, BYTE PTR [eax]
  00015	56		 push	 esi
  00016	8b 75 0c	 mov	 esi, DWORD PTR _d$[ebp]
  00019	57		 push	 edi
  0001a	8b 7d 10	 mov	 edi, DWORD PTR _b$[ebp]
  0001d	84 d2		 test	 dl, dl
  0001f	0f 84 ee 00 00
	00		 je	 $LN96@LoadString@3
  00025	80 f2 ed	 xor	 dl, -19			; ffffffedH
  00028	88 55 ec	 mov	 BYTE PTR __k$[ebp], dl
  0002b	8a 50 01	 mov	 dl, BYTE PTR [eax+1]
  0002e	84 d2		 test	 dl, dl
  00030	0f 84 d7 00 00
	00		 je	 $LN95@LoadString@3
  00036	80 f2 ec	 xor	 dl, -20			; ffffffecH
  00039	88 55 ed	 mov	 BYTE PTR __k$[ebp+1], dl
  0003c	8a 50 02	 mov	 dl, BYTE PTR [eax+2]
  0003f	84 d2		 test	 dl, dl
  00041	0f 84 c0 00 00
	00		 je	 $LN94@LoadString@3
  00047	80 f2 eb	 xor	 dl, -21			; ffffffebH
  0004a	88 55 ee	 mov	 BYTE PTR __k$[ebp+2], dl
  0004d	8a 50 03	 mov	 dl, BYTE PTR [eax+3]
  00050	84 d2		 test	 dl, dl
  00052	0f 84 a9 00 00
	00		 je	 $LN93@LoadString@3
  00058	80 f2 ea	 xor	 dl, -22			; ffffffeaH
  0005b	88 55 ef	 mov	 BYTE PTR __k$[ebp+3], dl
  0005e	8a 50 04	 mov	 dl, BYTE PTR [eax+4]
  00061	84 d2		 test	 dl, dl
  00063	0f 84 92 00 00
	00		 je	 $LN92@LoadString@3
  00069	80 f2 ed	 xor	 dl, -19			; ffffffedH
  0006c	88 55 f0	 mov	 BYTE PTR __k$[ebp+4], dl
  0006f	8a 50 05	 mov	 dl, BYTE PTR [eax+5]
  00072	84 d2		 test	 dl, dl
  00074	74 7f		 je	 SHORT $LN91@LoadString@3
  00076	80 f2 ec	 xor	 dl, -20			; ffffffecH
  00079	88 55 f1	 mov	 BYTE PTR __k$[ebp+5], dl
  0007c	8a 50 06	 mov	 dl, BYTE PTR [eax+6]
  0007f	84 d2		 test	 dl, dl
  00081	74 6c		 je	 SHORT $LN90@LoadString@3
  00083	80 f2 eb	 xor	 dl, -21			; ffffffebH
  00086	88 55 f2	 mov	 BYTE PTR __k$[ebp+6], dl
  00089	8a 50 07	 mov	 dl, BYTE PTR [eax+7]
  0008c	84 d2		 test	 dl, dl
  0008e	74 59		 je	 SHORT $LN89@LoadString@3
  00090	80 f2 ea	 xor	 dl, -22			; ffffffeaH
  00093	80 78 08 00	 cmp	 BYTE PTR [eax+8], 0
  00097	88 55 f3	 mov	 BYTE PTR __k$[ebp+7], dl
  0009a	74 7b		 je	 SHORT $LN1@LoadString@3
  0009c	8a 50 09	 mov	 dl, BYTE PTR [eax+9]
  0009f	84 d2		 test	 dl, dl
  000a1	74 40		 je	 SHORT $LN87@LoadString@3
  000a3	80 f2 ec	 xor	 dl, -20			; ffffffecH
  000a6	88 55 f5	 mov	 BYTE PTR __k$[ebp+9], dl
  000a9	8a 50 0a	 mov	 dl, BYTE PTR [eax+10]
  000ac	84 d2		 test	 dl, dl
  000ae	74 2d		 je	 SHORT $LN86@LoadString@3
  000b0	80 f2 eb	 xor	 dl, -21			; ffffffebH
  000b3	88 55 f6	 mov	 BYTE PTR __k$[ebp+10], dl
  000b6	8a 50 0b	 mov	 dl, BYTE PTR [eax+11]
  000b9	84 d2		 test	 dl, dl
  000bb	74 1a		 je	 SHORT $LN85@LoadString@3
  000bd	8a 40 0c	 mov	 al, BYTE PTR [eax+12]
  000c0	80 f2 ea	 xor	 dl, -22			; ffffffeaH
  000c3	88 55 f7	 mov	 BYTE PTR __k$[ebp+11], dl
  000c6	84 c0		 test	 al, al
  000c8	74 07		 je	 SHORT $LN84@LoadString@3
  000ca	34 ed		 xor	 al, -19			; ffffffedH
  000cc	88 45 f8	 mov	 BYTE PTR __k$[ebp+12], al
  000cf	eb 46		 jmp	 SHORT $LN1@LoadString@3
$LN84@LoadString@3:
  000d1	c6 45 f8 ed	 mov	 BYTE PTR __k$[ebp+12], -19 ; ffffffedH
  000d5	eb 40		 jmp	 SHORT $LN1@LoadString@3
$LN85@LoadString@3:
  000d7	c6 45 f7 ea	 mov	 BYTE PTR __k$[ebp+11], -22 ; ffffffeaH
  000db	eb 3a		 jmp	 SHORT $LN1@LoadString@3
$LN86@LoadString@3:
  000dd	c6 45 f6 eb	 mov	 BYTE PTR __k$[ebp+10], -21 ; ffffffebH
  000e1	eb 34		 jmp	 SHORT $LN1@LoadString@3
$LN87@LoadString@3:
  000e3	c6 45 f5 ec	 mov	 BYTE PTR __k$[ebp+9], -20 ; ffffffecH
  000e7	eb 2e		 jmp	 SHORT $LN1@LoadString@3
$LN89@LoadString@3:
  000e9	c6 45 f3 ea	 mov	 BYTE PTR __k$[ebp+7], -22 ; ffffffeaH
  000ed	eb 28		 jmp	 SHORT $LN1@LoadString@3
$LN90@LoadString@3:
  000ef	c6 45 f2 eb	 mov	 BYTE PTR __k$[ebp+6], -21 ; ffffffebH
  000f3	eb 22		 jmp	 SHORT $LN1@LoadString@3
$LN91@LoadString@3:
  000f5	c6 45 f1 ec	 mov	 BYTE PTR __k$[ebp+5], -20 ; ffffffecH
  000f9	eb 1c		 jmp	 SHORT $LN1@LoadString@3
$LN92@LoadString@3:
  000fb	c6 45 f0 ed	 mov	 BYTE PTR __k$[ebp+4], -19 ; ffffffedH
  000ff	eb 16		 jmp	 SHORT $LN1@LoadString@3
$LN93@LoadString@3:
  00101	c6 45 ef ea	 mov	 BYTE PTR __k$[ebp+3], -22 ; ffffffeaH
  00105	eb 10		 jmp	 SHORT $LN1@LoadString@3
$LN94@LoadString@3:
  00107	c6 45 ee eb	 mov	 BYTE PTR __k$[ebp+2], -21 ; ffffffebH
  0010b	eb 0a		 jmp	 SHORT $LN1@LoadString@3
$LN95@LoadString@3:
  0010d	c6 45 ed ec	 mov	 BYTE PTR __k$[ebp+1], -20 ; ffffffecH
  00111	eb 04		 jmp	 SHORT $LN1@LoadString@3
$LN96@LoadString@3:
  00113	c6 45 ec ed	 mov	 BYTE PTR __k$[ebp], -19	; ffffffedH
$LN1@LoadString@3:
  00117	6a 02		 push	 2
  00119	8d 45 ec	 lea	 eax, DWORD PTR __k$[ebp]
  0011c	c6 45 f4 00	 mov	 BYTE PTR __k$[ebp+8], 0
  00120	5a		 pop	 edx
$LL104@LoadString@3:
  00121	81 30 ed ec eb
	ea		 xor	 DWORD PTR [eax], -353637139 ; eaebecedH
  00127	83 c0 04	 add	 eax, 4
  0012a	4a		 dec	 edx
  0012b	75 f4		 jne	 SHORT $LL104@LoadString@3

; 163  : 		LoadString(_k, d, b, i);

  0012d	ff 75 14	 push	 DWORD PTR _i$[ebp]
  00130	8d 45 ec	 lea	 eax, DWORD PTR __k$[ebp]
  00133	57		 push	 edi
  00134	56		 push	 esi
  00135	50		 push	 eax
  00136	ff 15 00 00 00
	00		 call	 DWORD PTR __imp_?LoadStringA@ioINILoader@@QAEXPBD0PADH@Z

; 164  : 	}

  0013c	8b 4d fc	 mov	 ecx, DWORD PTR __$ArrayPad$[ebp]
  0013f	5f		 pop	 edi
  00140	33 cd		 xor	 ecx, ebp
  00142	5e		 pop	 esi
  00143	e8 00 00 00 00	 call	 @__security_check_cookie@4
  00148	c9		 leave
  00149	c2 10 00	 ret	 16			; 00000010H
??$LoadString_e@$08@ioINILoader@@QAEXAAY08$$CBDAAY00$$CBDPADH@Z ENDP ; ioINILoader::LoadString_e<9>
_TEXT	ENDS
PUBLIC	__$ArrayPad$
PUBLIC	??$LoadString_e@$09@ioINILoader@@QAEXAAY09$$CBDAAY00$$CBDPADH@Z ; ioINILoader::LoadString_e<10>
; Function compile flags: /Ogsp
;	COMDAT ??$LoadString_e@$09@ioINILoader@@QAEXAAY09$$CBDAAY00$$CBDPADH@Z
_TEXT	SEGMENT
__k$ = -20						; size = 10
__$ArrayPad$ = -4					; size = 4
_k$ = 8							; size = 4
_d$ = 12						; size = 4
_b$ = 16						; size = 4
_i$ = 20						; size = 4
??$LoadString_e@$09@ioINILoader@@QAEXAAY09$$CBDAAY00$$CBDPADH@Z PROC ; ioINILoader::LoadString_e<10>, COMDAT
; _this$ = ecx

; 161  : 	{

  00000	55		 push	 ebp
  00001	8b ec		 mov	 ebp, esp
  00003	83 ec 14	 sub	 esp, 20			; 00000014H
  00006	a1 00 00 00 00	 mov	 eax, DWORD PTR ___security_cookie
  0000b	33 c5		 xor	 eax, ebp
  0000d	89 45 fc	 mov	 DWORD PTR __$ArrayPad$[ebp], eax
  00010	8b 45 08	 mov	 eax, DWORD PTR _k$[ebp]

; 162  : 		_ENCSTR(k, _k);

  00013	8a 10		 mov	 dl, BYTE PTR [eax]
  00015	56		 push	 esi
  00016	8b 75 0c	 mov	 esi, DWORD PTR _d$[ebp]
  00019	57		 push	 edi
  0001a	8b 7d 10	 mov	 edi, DWORD PTR _b$[ebp]
  0001d	84 d2		 test	 dl, dl
  0001f	0f 84 0d 01 00
	00		 je	 $LN96@LoadString@4
  00025	80 f2 ed	 xor	 dl, -19			; ffffffedH
  00028	88 55 ec	 mov	 BYTE PTR __k$[ebp], dl
  0002b	8a 50 01	 mov	 dl, BYTE PTR [eax+1]
  0002e	84 d2		 test	 dl, dl
  00030	0f 84 f6 00 00
	00		 je	 $LN95@LoadString@4
  00036	80 f2 ec	 xor	 dl, -20			; ffffffecH
  00039	88 55 ed	 mov	 BYTE PTR __k$[ebp+1], dl
  0003c	8a 50 02	 mov	 dl, BYTE PTR [eax+2]
  0003f	84 d2		 test	 dl, dl
  00041	0f 84 df 00 00
	00		 je	 $LN94@LoadString@4
  00047	80 f2 eb	 xor	 dl, -21			; ffffffebH
  0004a	88 55 ee	 mov	 BYTE PTR __k$[ebp+2], dl
  0004d	8a 50 03	 mov	 dl, BYTE PTR [eax+3]
  00050	84 d2		 test	 dl, dl
  00052	0f 84 c8 00 00
	00		 je	 $LN93@LoadString@4
  00058	80 f2 ea	 xor	 dl, -22			; ffffffeaH
  0005b	88 55 ef	 mov	 BYTE PTR __k$[ebp+3], dl
  0005e	8a 50 04	 mov	 dl, BYTE PTR [eax+4]
  00061	84 d2		 test	 dl, dl
  00063	0f 84 b1 00 00
	00		 je	 $LN92@LoadString@4
  00069	80 f2 ed	 xor	 dl, -19			; ffffffedH
  0006c	88 55 f0	 mov	 BYTE PTR __k$[ebp+4], dl
  0006f	8a 50 05	 mov	 dl, BYTE PTR [eax+5]
  00072	84 d2		 test	 dl, dl
  00074	0f 84 9a 00 00
	00		 je	 $LN91@LoadString@4
  0007a	80 f2 ec	 xor	 dl, -20			; ffffffecH
  0007d	88 55 f1	 mov	 BYTE PTR __k$[ebp+5], dl
  00080	8a 50 06	 mov	 dl, BYTE PTR [eax+6]
  00083	84 d2		 test	 dl, dl
  00085	0f 84 83 00 00
	00		 je	 $LN90@LoadString@4
  0008b	80 f2 eb	 xor	 dl, -21			; ffffffebH
  0008e	88 55 f2	 mov	 BYTE PTR __k$[ebp+6], dl
  00091	8a 50 07	 mov	 dl, BYTE PTR [eax+7]
  00094	84 d2		 test	 dl, dl
  00096	74 70		 je	 SHORT $LN89@LoadString@4
  00098	80 f2 ea	 xor	 dl, -22			; ffffffeaH
  0009b	88 55 f3	 mov	 BYTE PTR __k$[ebp+7], dl
  0009e	8a 50 08	 mov	 dl, BYTE PTR [eax+8]
  000a1	84 d2		 test	 dl, dl
  000a3	74 5d		 je	 SHORT $LN88@LoadString@4
  000a5	80 f2 ed	 xor	 dl, -19			; ffffffedH
  000a8	80 78 09 00	 cmp	 BYTE PTR [eax+9], 0
  000ac	88 55 f4	 mov	 BYTE PTR __k$[ebp+8], dl
  000af	0f 84 81 00 00
	00		 je	 $LN1@LoadString@4
  000b5	8a 50 0a	 mov	 dl, BYTE PTR [eax+10]
  000b8	84 d2		 test	 dl, dl
  000ba	74 40		 je	 SHORT $LN86@LoadString@4
  000bc	80 f2 eb	 xor	 dl, -21			; ffffffebH
  000bf	88 55 f6	 mov	 BYTE PTR __k$[ebp+10], dl
  000c2	8a 50 0b	 mov	 dl, BYTE PTR [eax+11]
  000c5	84 d2		 test	 dl, dl
  000c7	74 2d		 je	 SHORT $LN85@LoadString@4
  000c9	80 f2 ea	 xor	 dl, -22			; ffffffeaH
  000cc	88 55 f7	 mov	 BYTE PTR __k$[ebp+11], dl
  000cf	8a 50 0c	 mov	 dl, BYTE PTR [eax+12]
  000d2	84 d2		 test	 dl, dl
  000d4	74 1a		 je	 SHORT $LN84@LoadString@4
  000d6	8a 40 0d	 mov	 al, BYTE PTR [eax+13]
  000d9	80 f2 ed	 xor	 dl, -19			; ffffffedH
  000dc	88 55 f8	 mov	 BYTE PTR __k$[ebp+12], dl
  000df	84 c0		 test	 al, al
  000e1	74 07		 je	 SHORT $LN83@LoadString@4
  000e3	34 ec		 xor	 al, -20			; ffffffecH
  000e5	88 45 f9	 mov	 BYTE PTR __k$[ebp+13], al
  000e8	eb 4c		 jmp	 SHORT $LN1@LoadString@4
$LN83@LoadString@4:
  000ea	c6 45 f9 ec	 mov	 BYTE PTR __k$[ebp+13], -20 ; ffffffecH
  000ee	eb 46		 jmp	 SHORT $LN1@LoadString@4
$LN84@LoadString@4:
  000f0	c6 45 f8 ed	 mov	 BYTE PTR __k$[ebp+12], -19 ; ffffffedH
  000f4	eb 40		 jmp	 SHORT $LN1@LoadString@4
$LN85@LoadString@4:
  000f6	c6 45 f7 ea	 mov	 BYTE PTR __k$[ebp+11], -22 ; ffffffeaH
  000fa	eb 3a		 jmp	 SHORT $LN1@LoadString@4
$LN86@LoadString@4:
  000fc	c6 45 f6 eb	 mov	 BYTE PTR __k$[ebp+10], -21 ; ffffffebH
  00100	eb 34		 jmp	 SHORT $LN1@LoadString@4
$LN88@LoadString@4:
  00102	c6 45 f4 ed	 mov	 BYTE PTR __k$[ebp+8], -19 ; ffffffedH
  00106	eb 2e		 jmp	 SHORT $LN1@LoadString@4
$LN89@LoadString@4:
  00108	c6 45 f3 ea	 mov	 BYTE PTR __k$[ebp+7], -22 ; ffffffeaH
  0010c	eb 28		 jmp	 SHORT $LN1@LoadString@4
$LN90@LoadString@4:
  0010e	c6 45 f2 eb	 mov	 BYTE PTR __k$[ebp+6], -21 ; ffffffebH
  00112	eb 22		 jmp	 SHORT $LN1@LoadString@4
$LN91@LoadString@4:
  00114	c6 45 f1 ec	 mov	 BYTE PTR __k$[ebp+5], -20 ; ffffffecH
  00118	eb 1c		 jmp	 SHORT $LN1@LoadString@4
$LN92@LoadString@4:
  0011a	c6 45 f0 ed	 mov	 BYTE PTR __k$[ebp+4], -19 ; ffffffedH
  0011e	eb 16		 jmp	 SHORT $LN1@LoadString@4
$LN93@LoadString@4:
  00120	c6 45 ef ea	 mov	 BYTE PTR __k$[ebp+3], -22 ; ffffffeaH
  00124	eb 10		 jmp	 SHORT $LN1@LoadString@4
$LN94@LoadString@4:
  00126	c6 45 ee eb	 mov	 BYTE PTR __k$[ebp+2], -21 ; ffffffebH
  0012a	eb 0a		 jmp	 SHORT $LN1@LoadString@4
$LN95@LoadString@4:
  0012c	c6 45 ed ec	 mov	 BYTE PTR __k$[ebp+1], -20 ; ffffffecH
  00130	eb 04		 jmp	 SHORT $LN1@LoadString@4
$LN96@LoadString@4:
  00132	c6 45 ec ed	 mov	 BYTE PTR __k$[ebp], -19	; ffffffedH
$LN1@LoadString@4:
  00136	6a 02		 push	 2
  00138	8d 45 ec	 lea	 eax, DWORD PTR __k$[ebp]
  0013b	c6 45 f5 00	 mov	 BYTE PTR __k$[ebp+9], 0
  0013f	5a		 pop	 edx
$LL104@LoadString@4:
  00140	81 30 ed ec eb
	ea		 xor	 DWORD PTR [eax], -353637139 ; eaebecedH
  00146	83 c0 04	 add	 eax, 4
  00149	4a		 dec	 edx
  0014a	75 f4		 jne	 SHORT $LL104@LoadString@4

; 163  : 		LoadString(_k, d, b, i);

  0014c	ff 75 14	 push	 DWORD PTR _i$[ebp]
  0014f	80 75 f4 ed	 xor	 BYTE PTR __k$[ebp+8], -19 ; ffffffedH
  00153	57		 push	 edi
  00154	56		 push	 esi
  00155	8d 45 ec	 lea	 eax, DWORD PTR __k$[ebp]
  00158	50		 push	 eax
  00159	ff 15 00 00 00
	00		 call	 DWORD PTR __imp_?LoadStringA@ioINILoader@@QAEXPBD0PADH@Z

; 164  : 	}

  0015f	8b 4d fc	 mov	 ecx, DWORD PTR __$ArrayPad$[ebp]
  00162	5f		 pop	 edi
  00163	33 cd		 xor	 ecx, ebp
  00165	5e		 pop	 esi
  00166	e8 00 00 00 00	 call	 @__security_check_cookie@4
  0016b	c9		 leave
  0016c	c2 10 00	 ret	 16			; 00000010H
??$LoadString_e@$09@ioINILoader@@QAEXAAY09$$CBDAAY00$$CBDPADH@Z ENDP ; ioINILoader::LoadString_e<10>
_TEXT	ENDS
PUBLIC	__$ArrayPad$
PUBLIC	??$SetTitle_e@$0M@@ioINILoader@@QAEXAAY0M@$$CBD@Z ; ioINILoader::SetTitle_e<12>
; Function compile flags: /Ogsp
;	COMDAT ??$SetTitle_e@$0M@@ioINILoader@@QAEXAAY0M@$$CBD@Z
_TEXT	SEGMENT
__t$ = -20						; size = 12
__$ArrayPad$ = -4					; size = 4
_t$ = 8							; size = 4
??$SetTitle_e@$0M@@ioINILoader@@QAEXAAY0M@$$CBD@Z PROC	; ioINILoader::SetTitle_e<12>, COMDAT
; _this$ = ecx

; 188  : 	{

  00000	55		 push	 ebp
  00001	8b ec		 mov	 ebp, esp
  00003	83 ec 14	 sub	 esp, 20			; 00000014H
  00006	a1 00 00 00 00	 mov	 eax, DWORD PTR ___security_cookie
  0000b	33 c5		 xor	 eax, ebp
  0000d	89 45 fc	 mov	 DWORD PTR __$ArrayPad$[ebp], eax
  00010	8b 45 08	 mov	 eax, DWORD PTR _t$[ebp]

; 189  : 		_ENCSTR(t, _t);

  00013	8a 10		 mov	 dl, BYTE PTR [eax]
  00015	56		 push	 esi
  00016	8b f1		 mov	 esi, ecx
  00018	84 d2		 test	 dl, dl
  0001a	0f 84 32 01 00
	00		 je	 $LN96@SetTitle_e@2
  00020	80 f2 ed	 xor	 dl, -19			; ffffffedH
  00023	88 55 ec	 mov	 BYTE PTR __t$[ebp], dl
  00026	8a 50 01	 mov	 dl, BYTE PTR [eax+1]
  00029	84 d2		 test	 dl, dl
  0002b	0f 84 1b 01 00
	00		 je	 $LN95@SetTitle_e@2
  00031	80 f2 ec	 xor	 dl, -20			; ffffffecH
  00034	88 55 ed	 mov	 BYTE PTR __t$[ebp+1], dl
  00037	8a 50 02	 mov	 dl, BYTE PTR [eax+2]
  0003a	84 d2		 test	 dl, dl
  0003c	0f 84 04 01 00
	00		 je	 $LN94@SetTitle_e@2
  00042	b1 eb		 mov	 cl, -21			; ffffffebH
  00044	32 d1		 xor	 dl, cl
  00046	88 55 ee	 mov	 BYTE PTR __t$[ebp+2], dl
  00049	8a 50 03	 mov	 dl, BYTE PTR [eax+3]
  0004c	84 d2		 test	 dl, dl
  0004e	0f 84 ec 00 00
	00		 je	 $LN93@SetTitle_e@2
  00054	80 f2 ea	 xor	 dl, -22			; ffffffeaH
  00057	88 55 ef	 mov	 BYTE PTR __t$[ebp+3], dl
  0005a	8a 50 04	 mov	 dl, BYTE PTR [eax+4]
  0005d	84 d2		 test	 dl, dl
  0005f	0f 84 d5 00 00
	00		 je	 $LN92@SetTitle_e@2
  00065	80 f2 ed	 xor	 dl, -19			; ffffffedH
  00068	88 55 f0	 mov	 BYTE PTR __t$[ebp+4], dl
  0006b	8a 50 05	 mov	 dl, BYTE PTR [eax+5]
  0006e	84 d2		 test	 dl, dl
  00070	0f 84 be 00 00
	00		 je	 $LN91@SetTitle_e@2
  00076	80 f2 ec	 xor	 dl, -20			; ffffffecH
  00079	88 55 f1	 mov	 BYTE PTR __t$[ebp+5], dl
  0007c	8a 50 06	 mov	 dl, BYTE PTR [eax+6]
  0007f	84 d2		 test	 dl, dl
  00081	0f 84 a8 00 00
	00		 je	 $LN90@SetTitle_e@2
  00087	32 d1		 xor	 dl, cl
  00089	88 55 f2	 mov	 BYTE PTR __t$[ebp+6], dl
  0008c	8a 50 07	 mov	 dl, BYTE PTR [eax+7]
  0008f	84 d2		 test	 dl, dl
  00091	0f 84 92 00 00
	00		 je	 $LN89@SetTitle_e@2
  00097	80 f2 ea	 xor	 dl, -22			; ffffffeaH
  0009a	88 55 f3	 mov	 BYTE PTR __t$[ebp+7], dl
  0009d	8a 50 08	 mov	 dl, BYTE PTR [eax+8]
  000a0	84 d2		 test	 dl, dl
  000a2	74 7f		 je	 SHORT $LN88@SetTitle_e@2
  000a4	80 f2 ed	 xor	 dl, -19			; ffffffedH
  000a7	88 55 f4	 mov	 BYTE PTR __t$[ebp+8], dl
  000aa	8a 50 09	 mov	 dl, BYTE PTR [eax+9]
  000ad	84 d2		 test	 dl, dl
  000af	74 6c		 je	 SHORT $LN87@SetTitle_e@2
  000b1	80 f2 ec	 xor	 dl, -20			; ffffffecH
  000b4	88 55 f5	 mov	 BYTE PTR __t$[ebp+9], dl
  000b7	8a 50 0a	 mov	 dl, BYTE PTR [eax+10]
  000ba	84 d2		 test	 dl, dl
  000bc	74 5a		 je	 SHORT $LN86@SetTitle_e@2
  000be	32 d1		 xor	 dl, cl
  000c0	80 78 0b 00	 cmp	 BYTE PTR [eax+11], 0
  000c4	88 55 f6	 mov	 BYTE PTR __t$[ebp+10], dl
  000c7	0f 84 89 00 00
	00		 je	 $LN1@SetTitle_e@2
  000cd	8a 50 0c	 mov	 dl, BYTE PTR [eax+12]
  000d0	84 d2		 test	 dl, dl
  000d2	74 3e		 je	 SHORT $LN84@SetTitle_e@2
  000d4	80 f2 ed	 xor	 dl, -19			; ffffffedH
  000d7	88 55 f8	 mov	 BYTE PTR __t$[ebp+12], dl
  000da	8a 50 0d	 mov	 dl, BYTE PTR [eax+13]
  000dd	84 d2		 test	 dl, dl
  000df	74 2b		 je	 SHORT $LN83@SetTitle_e@2
  000e1	80 f2 ec	 xor	 dl, -20			; ffffffecH
  000e4	88 55 f9	 mov	 BYTE PTR __t$[ebp+13], dl
  000e7	8a 50 0e	 mov	 dl, BYTE PTR [eax+14]
  000ea	84 d2		 test	 dl, dl
  000ec	74 19		 je	 SHORT $LN82@SetTitle_e@2
  000ee	8a 40 0f	 mov	 al, BYTE PTR [eax+15]
  000f1	32 d1		 xor	 dl, cl
  000f3	88 55 fa	 mov	 BYTE PTR __t$[ebp+14], dl
  000f6	84 c0		 test	 al, al
  000f8	74 07		 je	 SHORT $LN81@SetTitle_e@2
  000fa	34 ea		 xor	 al, -22			; ffffffeaH
  000fc	88 45 fb	 mov	 BYTE PTR __t$[ebp+15], al
  000ff	eb 55		 jmp	 SHORT $LN1@SetTitle_e@2
$LN81@SetTitle_e@2:
  00101	c6 45 fb ea	 mov	 BYTE PTR __t$[ebp+15], -22 ; ffffffeaH
  00105	eb 4f		 jmp	 SHORT $LN1@SetTitle_e@2
$LN82@SetTitle_e@2:
  00107	88 4d fa	 mov	 BYTE PTR __t$[ebp+14], cl
  0010a	eb 4a		 jmp	 SHORT $LN1@SetTitle_e@2
$LN83@SetTitle_e@2:
  0010c	c6 45 f9 ec	 mov	 BYTE PTR __t$[ebp+13], -20 ; ffffffecH
  00110	eb 44		 jmp	 SHORT $LN1@SetTitle_e@2
$LN84@SetTitle_e@2:
  00112	c6 45 f8 ed	 mov	 BYTE PTR __t$[ebp+12], -19 ; ffffffedH
  00116	eb 3e		 jmp	 SHORT $LN1@SetTitle_e@2
$LN86@SetTitle_e@2:
  00118	88 4d f6	 mov	 BYTE PTR __t$[ebp+10], cl
  0011b	eb 39		 jmp	 SHORT $LN1@SetTitle_e@2
$LN87@SetTitle_e@2:
  0011d	c6 45 f5 ec	 mov	 BYTE PTR __t$[ebp+9], -20 ; ffffffecH
  00121	eb 33		 jmp	 SHORT $LN1@SetTitle_e@2
$LN88@SetTitle_e@2:
  00123	c6 45 f4 ed	 mov	 BYTE PTR __t$[ebp+8], -19 ; ffffffedH
  00127	eb 2d		 jmp	 SHORT $LN1@SetTitle_e@2
$LN89@SetTitle_e@2:
  00129	c6 45 f3 ea	 mov	 BYTE PTR __t$[ebp+7], -22 ; ffffffeaH
  0012d	eb 27		 jmp	 SHORT $LN1@SetTitle_e@2
$LN90@SetTitle_e@2:
  0012f	88 4d f2	 mov	 BYTE PTR __t$[ebp+6], cl
  00132	eb 22		 jmp	 SHORT $LN1@SetTitle_e@2
$LN91@SetTitle_e@2:
  00134	c6 45 f1 ec	 mov	 BYTE PTR __t$[ebp+5], -20 ; ffffffecH
  00138	eb 1c		 jmp	 SHORT $LN1@SetTitle_e@2
$LN92@SetTitle_e@2:
  0013a	c6 45 f0 ed	 mov	 BYTE PTR __t$[ebp+4], -19 ; ffffffedH
  0013e	eb 16		 jmp	 SHORT $LN1@SetTitle_e@2
$LN93@SetTitle_e@2:
  00140	c6 45 ef ea	 mov	 BYTE PTR __t$[ebp+3], -22 ; ffffffeaH
  00144	eb 10		 jmp	 SHORT $LN1@SetTitle_e@2
$LN94@SetTitle_e@2:
  00146	c6 45 ee eb	 mov	 BYTE PTR __t$[ebp+2], -21 ; ffffffebH
  0014a	eb 0a		 jmp	 SHORT $LN1@SetTitle_e@2
$LN95@SetTitle_e@2:
  0014c	c6 45 ed ec	 mov	 BYTE PTR __t$[ebp+1], -20 ; ffffffecH
  00150	eb 04		 jmp	 SHORT $LN1@SetTitle_e@2
$LN96@SetTitle_e@2:
  00152	c6 45 ec ed	 mov	 BYTE PTR __t$[ebp], -19	; ffffffedH
$LN1@SetTitle_e@2:
  00156	6a 02		 push	 2
  00158	8d 45 ec	 lea	 eax, DWORD PTR __t$[ebp]
  0015b	c6 45 f7 00	 mov	 BYTE PTR __t$[ebp+11], 0
  0015f	5a		 pop	 edx
$LL104@SetTitle_e@2:
  00160	81 30 ed ec eb
	ea		 xor	 DWORD PTR [eax], -353637139 ; eaebecedH
  00166	83 c0 04	 add	 eax, 4
  00169	4a		 dec	 edx
  0016a	75 f4		 jne	 SHORT $LL104@SetTitle_e@2
  0016c	6a 08		 push	 8
  0016e	58		 pop	 eax
$LL101@SetTitle_e@2:
  0016f	8b c8		 mov	 ecx, eax
  00171	81 e1 03 00 00
	80		 and	 ecx, -2147483645	; 80000003H
  00177	79 05		 jns	 SHORT $LN111@SetTitle_e@2
  00179	49		 dec	 ecx
  0017a	83 c9 fc	 or	 ecx, -4			; fffffffcH
  0017d	41		 inc	 ecx
$LN111@SetTitle_e@2:
  0017e	b2 ed		 mov	 dl, -19			; ffffffedH
  00180	2a d1		 sub	 dl, cl
  00182	30 54 05 ec	 xor	 BYTE PTR __t$[ebp+eax], dl
  00186	40		 inc	 eax
  00187	83 f8 0b	 cmp	 eax, 11			; 0000000bH
  0018a	7c e3		 jl	 SHORT $LL101@SetTitle_e@2

; 190  : 		SetTitle(_t);

  0018c	8d 45 ec	 lea	 eax, DWORD PTR __t$[ebp]
  0018f	50		 push	 eax
  00190	8b ce		 mov	 ecx, esi
  00192	ff 15 00 00 00
	00		 call	 DWORD PTR __imp_?SetTitle@ioINILoader@@QAEXPBD@Z

; 191  : 	}

  00198	8b 4d fc	 mov	 ecx, DWORD PTR __$ArrayPad$[ebp]
  0019b	33 cd		 xor	 ecx, ebp
  0019d	5e		 pop	 esi
  0019e	e8 00 00 00 00	 call	 @__security_check_cookie@4
  001a3	c9		 leave
  001a4	c2 04 00	 ret	 4
??$SetTitle_e@$0M@@ioINILoader@@QAEXAAY0M@$$CBD@Z ENDP	; ioINILoader::SetTitle_e<12>
_TEXT	ENDS
PUBLIC	__$ArrayPad$
PUBLIC	??$LoadInt_e@$0L@@ioINILoader@@QAEHAAY0L@$$CBDH@Z ; ioINILoader::LoadInt_e<11>
EXTRN	__imp_?LoadInt@ioINILoader@@QAEHPBDH@Z:PROC
; Function compile flags: /Ogsp
;	COMDAT ??$LoadInt_e@$0L@@ioINILoader@@QAEHAAY0L@$$CBDH@Z
_TEXT	SEGMENT
__k$ = -20						; size = 11
__$ArrayPad$ = -4					; size = 4
_k$ = 8							; size = 4
_i$ = 12						; size = 4
??$LoadInt_e@$0L@@ioINILoader@@QAEHAAY0L@$$CBDH@Z PROC	; ioINILoader::LoadInt_e<11>, COMDAT
; _this$ = ecx

; 118  : 	{

  00000	55		 push	 ebp
  00001	8b ec		 mov	 ebp, esp
  00003	83 ec 14	 sub	 esp, 20			; 00000014H
  00006	a1 00 00 00 00	 mov	 eax, DWORD PTR ___security_cookie
  0000b	33 c5		 xor	 eax, ebp
  0000d	89 45 fc	 mov	 DWORD PTR __$ArrayPad$[ebp], eax
  00010	8b 45 08	 mov	 eax, DWORD PTR _k$[ebp]

; 119  : 		_ENCSTR(k, _k);

  00013	8a 10		 mov	 dl, BYTE PTR [eax]
  00015	56		 push	 esi
  00016	8b f1		 mov	 esi, ecx
  00018	84 d2		 test	 dl, dl
  0001a	0f 84 24 01 00
	00		 je	 $LN96@LoadInt_e
  00020	80 f2 ed	 xor	 dl, -19			; ffffffedH
  00023	88 55 ec	 mov	 BYTE PTR __k$[ebp], dl
  00026	8a 50 01	 mov	 dl, BYTE PTR [eax+1]
  00029	84 d2		 test	 dl, dl
  0002b	0f 84 0d 01 00
	00		 je	 $LN95@LoadInt_e
  00031	80 f2 ec	 xor	 dl, -20			; ffffffecH
  00034	88 55 ed	 mov	 BYTE PTR __k$[ebp+1], dl
  00037	8a 50 02	 mov	 dl, BYTE PTR [eax+2]
  0003a	84 d2		 test	 dl, dl
  0003c	0f 84 f6 00 00
	00		 je	 $LN94@LoadInt_e
  00042	80 f2 eb	 xor	 dl, -21			; ffffffebH
  00045	88 55 ee	 mov	 BYTE PTR __k$[ebp+2], dl
  00048	8a 50 03	 mov	 dl, BYTE PTR [eax+3]
  0004b	84 d2		 test	 dl, dl
  0004d	0f 84 df 00 00
	00		 je	 $LN93@LoadInt_e
  00053	80 f2 ea	 xor	 dl, -22			; ffffffeaH
  00056	88 55 ef	 mov	 BYTE PTR __k$[ebp+3], dl
  00059	8a 50 04	 mov	 dl, BYTE PTR [eax+4]
  0005c	84 d2		 test	 dl, dl
  0005e	0f 84 c8 00 00
	00		 je	 $LN92@LoadInt_e
  00064	80 f2 ed	 xor	 dl, -19			; ffffffedH
  00067	88 55 f0	 mov	 BYTE PTR __k$[ebp+4], dl
  0006a	8a 50 05	 mov	 dl, BYTE PTR [eax+5]
  0006d	84 d2		 test	 dl, dl
  0006f	0f 84 b1 00 00
	00		 je	 $LN91@LoadInt_e
  00075	80 f2 ec	 xor	 dl, -20			; ffffffecH
  00078	88 55 f1	 mov	 BYTE PTR __k$[ebp+5], dl
  0007b	8a 50 06	 mov	 dl, BYTE PTR [eax+6]
  0007e	84 d2		 test	 dl, dl
  00080	0f 84 9a 00 00
	00		 je	 $LN90@LoadInt_e
  00086	80 f2 eb	 xor	 dl, -21			; ffffffebH
  00089	88 55 f2	 mov	 BYTE PTR __k$[ebp+6], dl
  0008c	8a 50 07	 mov	 dl, BYTE PTR [eax+7]
  0008f	84 d2		 test	 dl, dl
  00091	0f 84 83 00 00
	00		 je	 $LN89@LoadInt_e
  00097	80 f2 ea	 xor	 dl, -22			; ffffffeaH
  0009a	88 55 f3	 mov	 BYTE PTR __k$[ebp+7], dl
  0009d	8a 50 08	 mov	 dl, BYTE PTR [eax+8]
  000a0	84 d2		 test	 dl, dl
  000a2	74 70		 je	 SHORT $LN88@LoadInt_e
  000a4	80 f2 ed	 xor	 dl, -19			; ffffffedH
  000a7	88 55 f4	 mov	 BYTE PTR __k$[ebp+8], dl
  000aa	8a 50 09	 mov	 dl, BYTE PTR [eax+9]
  000ad	84 d2		 test	 dl, dl
  000af	74 5d		 je	 SHORT $LN87@LoadInt_e
  000b1	80 f2 ec	 xor	 dl, -20			; ffffffecH
  000b4	80 78 0a 00	 cmp	 BYTE PTR [eax+10], 0
  000b8	88 55 f5	 mov	 BYTE PTR __k$[ebp+9], dl
  000bb	0f 84 87 00 00
	00		 je	 $LN1@LoadInt_e
  000c1	8a 50 0b	 mov	 dl, BYTE PTR [eax+11]
  000c4	84 d2		 test	 dl, dl
  000c6	74 40		 je	 SHORT $LN85@LoadInt_e
  000c8	80 f2 ea	 xor	 dl, -22			; ffffffeaH
  000cb	88 55 f7	 mov	 BYTE PTR __k$[ebp+11], dl
  000ce	8a 50 0c	 mov	 dl, BYTE PTR [eax+12]
  000d1	84 d2		 test	 dl, dl
  000d3	74 2d		 je	 SHORT $LN84@LoadInt_e
  000d5	80 f2 ed	 xor	 dl, -19			; ffffffedH
  000d8	88 55 f8	 mov	 BYTE PTR __k$[ebp+12], dl
  000db	8a 50 0d	 mov	 dl, BYTE PTR [eax+13]
  000de	84 d2		 test	 dl, dl
  000e0	74 1a		 je	 SHORT $LN83@LoadInt_e
  000e2	8a 40 0e	 mov	 al, BYTE PTR [eax+14]
  000e5	80 f2 ec	 xor	 dl, -20			; ffffffecH
  000e8	88 55 f9	 mov	 BYTE PTR __k$[ebp+13], dl
  000eb	84 c0		 test	 al, al
  000ed	74 07		 je	 SHORT $LN82@LoadInt_e
  000ef	34 eb		 xor	 al, -21			; ffffffebH
  000f1	88 45 fa	 mov	 BYTE PTR __k$[ebp+14], al
  000f4	eb 52		 jmp	 SHORT $LN1@LoadInt_e
$LN82@LoadInt_e:
  000f6	c6 45 fa eb	 mov	 BYTE PTR __k$[ebp+14], -21 ; ffffffebH
  000fa	eb 4c		 jmp	 SHORT $LN1@LoadInt_e
$LN83@LoadInt_e:
  000fc	c6 45 f9 ec	 mov	 BYTE PTR __k$[ebp+13], -20 ; ffffffecH
  00100	eb 46		 jmp	 SHORT $LN1@LoadInt_e
$LN84@LoadInt_e:
  00102	c6 45 f8 ed	 mov	 BYTE PTR __k$[ebp+12], -19 ; ffffffedH
  00106	eb 40		 jmp	 SHORT $LN1@LoadInt_e
$LN85@LoadInt_e:
  00108	c6 45 f7 ea	 mov	 BYTE PTR __k$[ebp+11], -22 ; ffffffeaH
  0010c	eb 3a		 jmp	 SHORT $LN1@LoadInt_e
$LN87@LoadInt_e:
  0010e	c6 45 f5 ec	 mov	 BYTE PTR __k$[ebp+9], -20 ; ffffffecH
  00112	eb 34		 jmp	 SHORT $LN1@LoadInt_e
$LN88@LoadInt_e:
  00114	c6 45 f4 ed	 mov	 BYTE PTR __k$[ebp+8], -19 ; ffffffedH
  00118	eb 2e		 jmp	 SHORT $LN1@LoadInt_e
$LN89@LoadInt_e:
  0011a	c6 45 f3 ea	 mov	 BYTE PTR __k$[ebp+7], -22 ; ffffffeaH
  0011e	eb 28		 jmp	 SHORT $LN1@LoadInt_e
$LN90@LoadInt_e:
  00120	c6 45 f2 eb	 mov	 BYTE PTR __k$[ebp+6], -21 ; ffffffebH
  00124	eb 22		 jmp	 SHORT $LN1@LoadInt_e
$LN91@LoadInt_e:
  00126	c6 45 f1 ec	 mov	 BYTE PTR __k$[ebp+5], -20 ; ffffffecH
  0012a	eb 1c		 jmp	 SHORT $LN1@LoadInt_e
$LN92@LoadInt_e:
  0012c	c6 45 f0 ed	 mov	 BYTE PTR __k$[ebp+4], -19 ; ffffffedH
  00130	eb 16		 jmp	 SHORT $LN1@LoadInt_e
$LN93@LoadInt_e:
  00132	c6 45 ef ea	 mov	 BYTE PTR __k$[ebp+3], -22 ; ffffffeaH
  00136	eb 10		 jmp	 SHORT $LN1@LoadInt_e
$LN94@LoadInt_e:
  00138	c6 45 ee eb	 mov	 BYTE PTR __k$[ebp+2], -21 ; ffffffebH
  0013c	eb 0a		 jmp	 SHORT $LN1@LoadInt_e
$LN95@LoadInt_e:
  0013e	c6 45 ed ec	 mov	 BYTE PTR __k$[ebp+1], -20 ; ffffffecH
  00142	eb 04		 jmp	 SHORT $LN1@LoadInt_e
$LN96@LoadInt_e:
  00144	c6 45 ec ed	 mov	 BYTE PTR __k$[ebp], -19	; ffffffedH
$LN1@LoadInt_e:
  00148	6a 02		 push	 2
  0014a	8d 45 ec	 lea	 eax, DWORD PTR __k$[ebp]
  0014d	c6 45 f6 00	 mov	 BYTE PTR __k$[ebp+10], 0
  00151	5a		 pop	 edx
$LL104@LoadInt_e:
  00152	81 30 ed ec eb
	ea		 xor	 DWORD PTR [eax], -353637139 ; eaebecedH
  00158	83 c0 04	 add	 eax, 4
  0015b	4a		 dec	 edx
  0015c	75 f4		 jne	 SHORT $LL104@LoadInt_e
  0015e	6a 08		 push	 8
  00160	58		 pop	 eax
$LL101@LoadInt_e:
  00161	8b c8		 mov	 ecx, eax
  00163	81 e1 03 00 00
	80		 and	 ecx, -2147483645	; 80000003H
  00169	79 05		 jns	 SHORT $LN111@LoadInt_e
  0016b	49		 dec	 ecx
  0016c	83 c9 fc	 or	 ecx, -4			; fffffffcH
  0016f	41		 inc	 ecx
$LN111@LoadInt_e:
  00170	b2 ed		 mov	 dl, -19			; ffffffedH
  00172	2a d1		 sub	 dl, cl
  00174	30 54 05 ec	 xor	 BYTE PTR __k$[ebp+eax], dl
  00178	40		 inc	 eax
  00179	83 f8 0a	 cmp	 eax, 10			; 0000000aH
  0017c	7c e3		 jl	 SHORT $LL101@LoadInt_e

; 120  : 		return LoadInt(_k, i);

  0017e	ff 75 0c	 push	 DWORD PTR _i$[ebp]
  00181	8d 45 ec	 lea	 eax, DWORD PTR __k$[ebp]
  00184	50		 push	 eax
  00185	8b ce		 mov	 ecx, esi
  00187	ff 15 00 00 00
	00		 call	 DWORD PTR __imp_?LoadInt@ioINILoader@@QAEHPBDH@Z

; 121  : 	}

  0018d	8b 4d fc	 mov	 ecx, DWORD PTR __$ArrayPad$[ebp]
  00190	33 cd		 xor	 ecx, ebp
  00192	5e		 pop	 esi
  00193	e8 00 00 00 00	 call	 @__security_check_cookie@4
  00198	c9		 leave
  00199	c2 08 00	 ret	 8
??$LoadInt_e@$0L@@ioINILoader@@QAEHAAY0L@$$CBDH@Z ENDP	; ioINILoader::LoadInt_e<11>
_TEXT	ENDS
PUBLIC	__$ArrayPad$
PUBLIC	??$LoadInt_e@$08@ioINILoader@@QAEHAAY08$$CBDH@Z	; ioINILoader::LoadInt_e<9>
; Function compile flags: /Ogsp
;	COMDAT ??$LoadInt_e@$08@ioINILoader@@QAEHAAY08$$CBDH@Z
_TEXT	SEGMENT
__k$ = -20						; size = 9
__$ArrayPad$ = -4					; size = 4
_k$ = 8							; size = 4
_i$ = 12						; size = 4
??$LoadInt_e@$08@ioINILoader@@QAEHAAY08$$CBDH@Z PROC	; ioINILoader::LoadInt_e<9>, COMDAT
; _this$ = ecx

; 118  : 	{

  00000	55		 push	 ebp
  00001	8b ec		 mov	 ebp, esp
  00003	83 ec 14	 sub	 esp, 20			; 00000014H
  00006	a1 00 00 00 00	 mov	 eax, DWORD PTR ___security_cookie
  0000b	33 c5		 xor	 eax, ebp
  0000d	89 45 fc	 mov	 DWORD PTR __$ArrayPad$[ebp], eax
  00010	8b 45 08	 mov	 eax, DWORD PTR _k$[ebp]

; 119  : 		_ENCSTR(k, _k);

  00013	8a 10		 mov	 dl, BYTE PTR [eax]
  00015	84 d2		 test	 dl, dl
  00017	0f 84 ee 00 00
	00		 je	 $LN96@LoadInt_e@2
  0001d	80 f2 ed	 xor	 dl, -19			; ffffffedH
  00020	88 55 ec	 mov	 BYTE PTR __k$[ebp], dl
  00023	8a 50 01	 mov	 dl, BYTE PTR [eax+1]
  00026	84 d2		 test	 dl, dl
  00028	0f 84 d7 00 00
	00		 je	 $LN95@LoadInt_e@2
  0002e	80 f2 ec	 xor	 dl, -20			; ffffffecH
  00031	88 55 ed	 mov	 BYTE PTR __k$[ebp+1], dl
  00034	8a 50 02	 mov	 dl, BYTE PTR [eax+2]
  00037	84 d2		 test	 dl, dl
  00039	0f 84 c0 00 00
	00		 je	 $LN94@LoadInt_e@2
  0003f	80 f2 eb	 xor	 dl, -21			; ffffffebH
  00042	88 55 ee	 mov	 BYTE PTR __k$[ebp+2], dl
  00045	8a 50 03	 mov	 dl, BYTE PTR [eax+3]
  00048	84 d2		 test	 dl, dl
  0004a	0f 84 a9 00 00
	00		 je	 $LN93@LoadInt_e@2
  00050	80 f2 ea	 xor	 dl, -22			; ffffffeaH
  00053	88 55 ef	 mov	 BYTE PTR __k$[ebp+3], dl
  00056	8a 50 04	 mov	 dl, BYTE PTR [eax+4]
  00059	84 d2		 test	 dl, dl
  0005b	0f 84 92 00 00
	00		 je	 $LN92@LoadInt_e@2
  00061	80 f2 ed	 xor	 dl, -19			; ffffffedH
  00064	88 55 f0	 mov	 BYTE PTR __k$[ebp+4], dl
  00067	8a 50 05	 mov	 dl, BYTE PTR [eax+5]
  0006a	84 d2		 test	 dl, dl
  0006c	74 7f		 je	 SHORT $LN91@LoadInt_e@2
  0006e	80 f2 ec	 xor	 dl, -20			; ffffffecH
  00071	88 55 f1	 mov	 BYTE PTR __k$[ebp+5], dl
  00074	8a 50 06	 mov	 dl, BYTE PTR [eax+6]
  00077	84 d2		 test	 dl, dl
  00079	74 6c		 je	 SHORT $LN90@LoadInt_e@2
  0007b	80 f2 eb	 xor	 dl, -21			; ffffffebH
  0007e	88 55 f2	 mov	 BYTE PTR __k$[ebp+6], dl
  00081	8a 50 07	 mov	 dl, BYTE PTR [eax+7]
  00084	84 d2		 test	 dl, dl
  00086	74 59		 je	 SHORT $LN89@LoadInt_e@2
  00088	80 f2 ea	 xor	 dl, -22			; ffffffeaH
  0008b	80 78 08 00	 cmp	 BYTE PTR [eax+8], 0
  0008f	88 55 f3	 mov	 BYTE PTR __k$[ebp+7], dl
  00092	74 7b		 je	 SHORT $LN1@LoadInt_e@2
  00094	8a 50 09	 mov	 dl, BYTE PTR [eax+9]
  00097	84 d2		 test	 dl, dl
  00099	74 40		 je	 SHORT $LN87@LoadInt_e@2
  0009b	80 f2 ec	 xor	 dl, -20			; ffffffecH
  0009e	88 55 f5	 mov	 BYTE PTR __k$[ebp+9], dl
  000a1	8a 50 0a	 mov	 dl, BYTE PTR [eax+10]
  000a4	84 d2		 test	 dl, dl
  000a6	74 2d		 je	 SHORT $LN86@LoadInt_e@2
  000a8	80 f2 eb	 xor	 dl, -21			; ffffffebH
  000ab	88 55 f6	 mov	 BYTE PTR __k$[ebp+10], dl
  000ae	8a 50 0b	 mov	 dl, BYTE PTR [eax+11]
  000b1	84 d2		 test	 dl, dl
  000b3	74 1a		 je	 SHORT $LN85@LoadInt_e@2
  000b5	8a 40 0c	 mov	 al, BYTE PTR [eax+12]
  000b8	80 f2 ea	 xor	 dl, -22			; ffffffeaH
  000bb	88 55 f7	 mov	 BYTE PTR __k$[ebp+11], dl
  000be	84 c0		 test	 al, al
  000c0	74 07		 je	 SHORT $LN84@LoadInt_e@2
  000c2	34 ed		 xor	 al, -19			; ffffffedH
  000c4	88 45 f8	 mov	 BYTE PTR __k$[ebp+12], al
  000c7	eb 46		 jmp	 SHORT $LN1@LoadInt_e@2
$LN84@LoadInt_e@2:
  000c9	c6 45 f8 ed	 mov	 BYTE PTR __k$[ebp+12], -19 ; ffffffedH
  000cd	eb 40		 jmp	 SHORT $LN1@LoadInt_e@2
$LN85@LoadInt_e@2:
  000cf	c6 45 f7 ea	 mov	 BYTE PTR __k$[ebp+11], -22 ; ffffffeaH
  000d3	eb 3a		 jmp	 SHORT $LN1@LoadInt_e@2
$LN86@LoadInt_e@2:
  000d5	c6 45 f6 eb	 mov	 BYTE PTR __k$[ebp+10], -21 ; ffffffebH
  000d9	eb 34		 jmp	 SHORT $LN1@LoadInt_e@2
$LN87@LoadInt_e@2:
  000db	c6 45 f5 ec	 mov	 BYTE PTR __k$[ebp+9], -20 ; ffffffecH
  000df	eb 2e		 jmp	 SHORT $LN1@LoadInt_e@2
$LN89@LoadInt_e@2:
  000e1	c6 45 f3 ea	 mov	 BYTE PTR __k$[ebp+7], -22 ; ffffffeaH
  000e5	eb 28		 jmp	 SHORT $LN1@LoadInt_e@2
$LN90@LoadInt_e@2:
  000e7	c6 45 f2 eb	 mov	 BYTE PTR __k$[ebp+6], -21 ; ffffffebH
  000eb	eb 22		 jmp	 SHORT $LN1@LoadInt_e@2
$LN91@LoadInt_e@2:
  000ed	c6 45 f1 ec	 mov	 BYTE PTR __k$[ebp+5], -20 ; ffffffecH
  000f1	eb 1c		 jmp	 SHORT $LN1@LoadInt_e@2
$LN92@LoadInt_e@2:
  000f3	c6 45 f0 ed	 mov	 BYTE PTR __k$[ebp+4], -19 ; ffffffedH
  000f7	eb 16		 jmp	 SHORT $LN1@LoadInt_e@2
$LN93@LoadInt_e@2:
  000f9	c6 45 ef ea	 mov	 BYTE PTR __k$[ebp+3], -22 ; ffffffeaH
  000fd	eb 10		 jmp	 SHORT $LN1@LoadInt_e@2
$LN94@LoadInt_e@2:
  000ff	c6 45 ee eb	 mov	 BYTE PTR __k$[ebp+2], -21 ; ffffffebH
  00103	eb 0a		 jmp	 SHORT $LN1@LoadInt_e@2
$LN95@LoadInt_e@2:
  00105	c6 45 ed ec	 mov	 BYTE PTR __k$[ebp+1], -20 ; ffffffecH
  00109	eb 04		 jmp	 SHORT $LN1@LoadInt_e@2
$LN96@LoadInt_e@2:
  0010b	c6 45 ec ed	 mov	 BYTE PTR __k$[ebp], -19	; ffffffedH
$LN1@LoadInt_e@2:
  0010f	6a 02		 push	 2
  00111	8d 45 ec	 lea	 eax, DWORD PTR __k$[ebp]
  00114	c6 45 f4 00	 mov	 BYTE PTR __k$[ebp+8], 0
  00118	5a		 pop	 edx
$LL104@LoadInt_e@2:
  00119	81 30 ed ec eb
	ea		 xor	 DWORD PTR [eax], -353637139 ; eaebecedH
  0011f	83 c0 04	 add	 eax, 4
  00122	4a		 dec	 edx
  00123	75 f4		 jne	 SHORT $LL104@LoadInt_e@2

; 120  : 		return LoadInt(_k, i);

  00125	ff 75 0c	 push	 DWORD PTR _i$[ebp]
  00128	8d 45 ec	 lea	 eax, DWORD PTR __k$[ebp]
  0012b	50		 push	 eax
  0012c	ff 15 00 00 00
	00		 call	 DWORD PTR __imp_?LoadInt@ioINILoader@@QAEHPBDH@Z

; 121  : 	}

  00132	8b 4d fc	 mov	 ecx, DWORD PTR __$ArrayPad$[ebp]
  00135	33 cd		 xor	 ecx, ebp
  00137	e8 00 00 00 00	 call	 @__security_check_cookie@4
  0013c	c9		 leave
  0013d	c2 08 00	 ret	 8
??$LoadInt_e@$08@ioINILoader@@QAEHAAY08$$CBDH@Z ENDP	; ioINILoader::LoadInt_e<9>
_TEXT	ENDS
PUBLIC	??$_Cons_val@V?$allocator@W4RaceDetailType@@@std@@W4RaceDetailType@@W43@@std@@YAXAAV?$allocator@W4RaceDetailType@@@0@PAW4RaceDetailType@@$$QAW42@@Z ; std::_Cons_val<std::allocator<enum RaceDetailType>,enum RaceDetailType,enum RaceDetailType>
; Function compile flags: /Ogsp
; File c:\program files (x86)\microsoft visual studio 10.0\vc\include\xmemory
;	COMDAT ??$_Cons_val@V?$allocator@W4RaceDetailType@@@std@@W4RaceDetailType@@W43@@std@@YAXAAV?$allocator@W4RaceDetailType@@@0@PAW4RaceDetailType@@$$QAW42@@Z
_TEXT	SEGMENT
__Alval$ = 8						; size = 4
__Pdest$ = 12						; size = 4
__Src$ = 16						; size = 4
??$_Cons_val@V?$allocator@W4RaceDetailType@@@std@@W4RaceDetailType@@W43@@std@@YAXAAV?$allocator@W4RaceDetailType@@@0@PAW4RaceDetailType@@$$QAW42@@Z PROC ; std::_Cons_val<std::allocator<enum RaceDetailType>,enum RaceDetailType,enum RaceDetailType>, COMDAT

; 279  : 	{	// construct using allocator

  00000	55		 push	 ebp
  00001	8b ec		 mov	 ebp, esp

; 280  : 	_Alval.construct(_Pdest, _STD forward<_Ty2>(_Src));

  00003	8b 45 0c	 mov	 eax, DWORD PTR __Pdest$[ebp]
  00006	85 c0		 test	 eax, eax
  00008	74 07		 je	 SHORT $LN7@Cons_val
  0000a	8b 4d 10	 mov	 ecx, DWORD PTR __Src$[ebp]
  0000d	8b 09		 mov	 ecx, DWORD PTR [ecx]
  0000f	89 08		 mov	 DWORD PTR [eax], ecx
$LN7@Cons_val:

; 281  : 	}

  00011	5d		 pop	 ebp
  00012	c3		 ret	 0
??$_Cons_val@V?$allocator@W4RaceDetailType@@@std@@W4RaceDetailType@@W43@@std@@YAXAAV?$allocator@W4RaceDetailType@@@0@PAW4RaceDetailType@@$$QAW42@@Z ENDP ; std::_Cons_val<std::allocator<enum RaceDetailType>,enum RaceDetailType,enum RaceDetailType>
_TEXT	ENDS
PUBLIC	??$_Move@PAW4RaceDetailType@@PAW41@@std@@YAPAW4RaceDetailType@@PAW41@00@Z ; std::_Move<enum RaceDetailType *,enum RaceDetailType *>
; Function compile flags: /Ogsp
; File c:\program files (x86)\microsoft visual studio 10.0\vc\include\xutility
;	COMDAT ??$_Move@PAW4RaceDetailType@@PAW41@@std@@YAPAW4RaceDetailType@@PAW41@00@Z
_TEXT	SEGMENT
__Cat$510730 = -4					; size = 1
__First$ = 8						; size = 4
__Last$ = 12						; size = 4
__Dest$ = 16						; size = 4
??$_Move@PAW4RaceDetailType@@PAW41@@std@@YAPAW4RaceDetailType@@PAW41@00@Z PROC ; std::_Move<enum RaceDetailType *,enum RaceDetailType *>, COMDAT

; 2533 : 	{	// move [_First, _Last) to [_Dest, ...), unchecked

  00000	55		 push	 ebp
  00001	8b ec		 mov	 ebp, esp
  00003	51		 push	 ecx

; 2534 : 	return (_Move(_First, _Last,
; 2535 : 		_Dest, _Ptr_cat(_First, _Dest)));

  00004	ff 75 fc	 push	 DWORD PTR __Cat$510730[ebp]
  00007	ff 75 10	 push	 DWORD PTR __Dest$[ebp]
  0000a	ff 75 0c	 push	 DWORD PTR __Last$[ebp]
  0000d	ff 75 08	 push	 DWORD PTR __First$[ebp]
  00010	e8 00 00 00 00	 call	 ??$_Move@PAW4RaceDetailType@@PAW41@@std@@YAPAW4RaceDetailType@@PAW41@00U_Scalar_ptr_iterator_tag@0@@Z ; std::_Move<enum RaceDetailType *,enum RaceDetailType *>
  00015	83 c4 10	 add	 esp, 16			; 00000010H

; 2536 : 	}

  00018	c9		 leave
  00019	c3		 ret	 0
??$_Move@PAW4RaceDetailType@@PAW41@@std@@YAPAW4RaceDetailType@@PAW41@00@Z ENDP ; std::_Move<enum RaceDetailType *,enum RaceDetailType *>
_TEXT	ENDS
PUBLIC	??$_Destroy_range@V?$allocator@W4RaceDetailType@@@std@@@std@@YAXPAW4RaceDetailType@@0AAV?$allocator@W4RaceDetailType@@@0@@Z ; std::_Destroy_range<std::allocator<enum RaceDetailType> >
; Function compile flags: /Ogsp
; File c:\program files (x86)\microsoft visual studio 10.0\vc\include\xmemory
;	COMDAT ??$_Destroy_range@V?$allocator@W4RaceDetailType@@@std@@@std@@YAXPAW4RaceDetailType@@0AAV?$allocator@W4RaceDetailType@@@0@@Z
_TEXT	SEGMENT
__First$ = 8						; size = 4
__Last$ = 12						; size = 4
__Al$ = 16						; size = 4
??$_Destroy_range@V?$allocator@W4RaceDetailType@@@std@@@std@@YAXPAW4RaceDetailType@@0AAV?$allocator@W4RaceDetailType@@@0@@Z PROC ; std::_Destroy_range<std::allocator<enum RaceDetailType> >, COMDAT

; 88   : 	_Destroy_range(_First, _Last, _Al, _Ptr_cat(_First, _Last));
; 89   : 	}

  00000	c3		 ret	 0
??$_Destroy_range@V?$allocator@W4RaceDetailType@@@std@@@std@@YAXPAW4RaceDetailType@@0AAV?$allocator@W4RaceDetailType@@@0@@Z ENDP ; std::_Destroy_range<std::allocator<enum RaceDetailType> >
_TEXT	ENDS
PUBLIC	??$_Destroy_range@V?$allocator@PBVioItem@@@std@@@std@@YAXPAPBVioItem@@0AAV?$allocator@PBVioItem@@@0@@Z ; std::_Destroy_range<std::allocator<ioItem const *> >
; Function compile flags: /Ogsp
;	COMDAT ??$_Destroy_range@V?$allocator@PBVioItem@@@std@@@std@@YAXPAPBVioItem@@0AAV?$allocator@PBVioItem@@@0@@Z
_TEXT	SEGMENT
__First$ = 8						; size = 4
__Last$ = 12						; size = 4
__Al$ = 16						; size = 4
??$_Destroy_range@V?$allocator@PBVioItem@@@std@@@std@@YAXPAPBVioItem@@0AAV?$allocator@PBVioItem@@@0@@Z PROC ; std::_Destroy_range<std::allocator<ioItem const *> >, COMDAT

; 88   : 	_Destroy_range(_First, _Last, _Al, _Ptr_cat(_First, _Last));
; 89   : 	}

  00000	c3		 ret	 0
??$_Destroy_range@V?$allocator@PBVioItem@@@std@@@std@@YAXPAPBVioItem@@0AAV?$allocator@PBVioItem@@@0@@Z ENDP ; std::_Destroy_range<std::allocator<ioItem const *> >
_TEXT	ENDS
PUBLIC	??$encodeString@$0BM@@ioINILoader_e@@AAEPADAAY0BM@$$CBDPAD@Z ; ioINILoader_e::encodeString<28>
; Function compile flags: /Ogsp
; File d:\lost saga for developer\youtube\tutorial\source\src\io3dengine\ioiniloader.h
;	COMDAT ??$encodeString@$0BM@@ioINILoader_e@@AAEPADAAY0BM@$$CBDPAD@Z
_TEXT	SEGMENT
_s$ = 8							; size = 4
_e$ = 12						; size = 4
??$encodeString@$0BM@@ioINILoader_e@@AAEPADAAY0BM@$$CBDPAD@Z PROC ; ioINILoader_e::encodeString<28>, COMDAT
; _this$ = ecx

; 215  : 	{

  00000	55		 push	 ebp
  00001	8b ec		 mov	 ebp, esp

; 216  : 		__ENCSTR(s, e);

  00003	8b 4d 08	 mov	 ecx, DWORD PTR _s$[ebp]
  00006	8a 11		 mov	 dl, BYTE PTR [ecx]
  00008	8b 45 0c	 mov	 eax, DWORD PTR _e$[ebp]
  0000b	53		 push	 ebx
  0000c	84 d2		 test	 dl, dl
  0000e	0f 84 6a 04 00
	00		 je	 $LN96@encodeStri
  00014	80 f2 ed	 xor	 dl, -19			; ffffffedH
  00017	88 10		 mov	 BYTE PTR [eax], dl
  00019	8a 51 01	 mov	 dl, BYTE PTR [ecx+1]
  0001c	84 d2		 test	 dl, dl
  0001e	0f 84 54 04 00
	00		 je	 $LN95@encodeStri
  00024	80 f2 ec	 xor	 dl, -20			; ffffffecH
  00027	88 50 01	 mov	 BYTE PTR [eax+1], dl
  0002a	8a 51 02	 mov	 dl, BYTE PTR [ecx+2]
  0002d	84 d2		 test	 dl, dl
  0002f	0f 84 3d 04 00
	00		 je	 $LN94@encodeStri
  00035	b3 eb		 mov	 bl, -21			; ffffffebH
  00037	32 d3		 xor	 dl, bl
  00039	88 50 02	 mov	 BYTE PTR [eax+2], dl
  0003c	8a 51 03	 mov	 dl, BYTE PTR [ecx+3]
  0003f	84 d2		 test	 dl, dl
  00041	0f 84 25 04 00
	00		 je	 $LN93@encodeStri
  00047	80 f2 ea	 xor	 dl, -22			; ffffffeaH
  0004a	88 50 03	 mov	 BYTE PTR [eax+3], dl
  0004d	8a 51 04	 mov	 dl, BYTE PTR [ecx+4]
  00050	84 d2		 test	 dl, dl
  00052	0f 84 0e 04 00
	00		 je	 $LN92@encodeStri
  00058	80 f2 ed	 xor	 dl, -19			; ffffffedH
  0005b	88 50 04	 mov	 BYTE PTR [eax+4], dl
  0005e	8a 51 05	 mov	 dl, BYTE PTR [ecx+5]
  00061	84 d2		 test	 dl, dl
  00063	0f 84 f7 03 00
	00		 je	 $LN91@encodeStri
  00069	80 f2 ec	 xor	 dl, -20			; ffffffecH
  0006c	88 50 05	 mov	 BYTE PTR [eax+5], dl
  0006f	8a 51 06	 mov	 dl, BYTE PTR [ecx+6]
  00072	84 d2		 test	 dl, dl
  00074	0f 84 e1 03 00
	00		 je	 $LN90@encodeStri
  0007a	32 d3		 xor	 dl, bl
  0007c	88 50 06	 mov	 BYTE PTR [eax+6], dl
  0007f	8a 51 07	 mov	 dl, BYTE PTR [ecx+7]
  00082	84 d2		 test	 dl, dl
  00084	0f 84 cb 03 00
	00		 je	 $LN89@encodeStri
  0008a	80 f2 ea	 xor	 dl, -22			; ffffffeaH
  0008d	88 50 07	 mov	 BYTE PTR [eax+7], dl
  00090	8a 51 08	 mov	 dl, BYTE PTR [ecx+8]
  00093	84 d2		 test	 dl, dl
  00095	0f 84 b4 03 00
	00		 je	 $LN88@encodeStri
  0009b	80 f2 ed	 xor	 dl, -19			; ffffffedH
  0009e	88 50 08	 mov	 BYTE PTR [eax+8], dl
  000a1	8a 51 09	 mov	 dl, BYTE PTR [ecx+9]
  000a4	84 d2		 test	 dl, dl
  000a6	0f 84 9d 03 00
	00		 je	 $LN87@encodeStri
  000ac	80 f2 ec	 xor	 dl, -20			; ffffffecH
  000af	88 50 09	 mov	 BYTE PTR [eax+9], dl
  000b2	8a 51 0a	 mov	 dl, BYTE PTR [ecx+10]
  000b5	84 d2		 test	 dl, dl
  000b7	0f 84 87 03 00
	00		 je	 $LN86@encodeStri
  000bd	32 d3		 xor	 dl, bl
  000bf	88 50 0a	 mov	 BYTE PTR [eax+10], dl
  000c2	8a 51 0b	 mov	 dl, BYTE PTR [ecx+11]
  000c5	84 d2		 test	 dl, dl
  000c7	0f 84 71 03 00
	00		 je	 $LN85@encodeStri
  000cd	80 f2 ea	 xor	 dl, -22			; ffffffeaH
  000d0	88 50 0b	 mov	 BYTE PTR [eax+11], dl
  000d3	8a 51 0c	 mov	 dl, BYTE PTR [ecx+12]
  000d6	84 d2		 test	 dl, dl
  000d8	0f 84 5a 03 00
	00		 je	 $LN84@encodeStri
  000de	80 f2 ed	 xor	 dl, -19			; ffffffedH
  000e1	88 50 0c	 mov	 BYTE PTR [eax+12], dl
  000e4	8a 51 0d	 mov	 dl, BYTE PTR [ecx+13]
  000e7	84 d2		 test	 dl, dl
  000e9	0f 84 43 03 00
	00		 je	 $LN83@encodeStri
  000ef	80 f2 ec	 xor	 dl, -20			; ffffffecH
  000f2	88 50 0d	 mov	 BYTE PTR [eax+13], dl
  000f5	8a 51 0e	 mov	 dl, BYTE PTR [ecx+14]
  000f8	84 d2		 test	 dl, dl
  000fa	0f 84 2d 03 00
	00		 je	 $LN82@encodeStri
  00100	32 d3		 xor	 dl, bl
  00102	88 50 0e	 mov	 BYTE PTR [eax+14], dl
  00105	8a 51 0f	 mov	 dl, BYTE PTR [ecx+15]
  00108	84 d2		 test	 dl, dl
  0010a	0f 84 17 03 00
	00		 je	 $LN81@encodeStri
  00110	80 f2 ea	 xor	 dl, -22			; ffffffeaH
  00113	88 50 0f	 mov	 BYTE PTR [eax+15], dl
  00116	8a 51 10	 mov	 dl, BYTE PTR [ecx+16]
  00119	84 d2		 test	 dl, dl
  0011b	0f 84 00 03 00
	00		 je	 $LN80@encodeStri
  00121	80 f2 ed	 xor	 dl, -19			; ffffffedH
  00124	88 50 10	 mov	 BYTE PTR [eax+16], dl
  00127	8a 51 11	 mov	 dl, BYTE PTR [ecx+17]
  0012a	84 d2		 test	 dl, dl
  0012c	0f 84 e9 02 00
	00		 je	 $LN79@encodeStri
  00132	80 f2 ec	 xor	 dl, -20			; ffffffecH
  00135	88 50 11	 mov	 BYTE PTR [eax+17], dl
  00138	8a 51 12	 mov	 dl, BYTE PTR [ecx+18]
  0013b	84 d2		 test	 dl, dl
  0013d	0f 84 d3 02 00
	00		 je	 $LN78@encodeStri
  00143	32 d3		 xor	 dl, bl
  00145	88 50 12	 mov	 BYTE PTR [eax+18], dl
  00148	8a 51 13	 mov	 dl, BYTE PTR [ecx+19]
  0014b	84 d2		 test	 dl, dl
  0014d	0f 84 bd 02 00
	00		 je	 $LN77@encodeStri
  00153	80 f2 ea	 xor	 dl, -22			; ffffffeaH
  00156	88 50 13	 mov	 BYTE PTR [eax+19], dl
  00159	8a 51 14	 mov	 dl, BYTE PTR [ecx+20]
  0015c	84 d2		 test	 dl, dl
  0015e	0f 84 a6 02 00
	00		 je	 $LN76@encodeStri
  00164	80 f2 ed	 xor	 dl, -19			; ffffffedH
  00167	88 50 14	 mov	 BYTE PTR [eax+20], dl
  0016a	8a 51 15	 mov	 dl, BYTE PTR [ecx+21]
  0016d	84 d2		 test	 dl, dl
  0016f	0f 84 8f 02 00
	00		 je	 $LN75@encodeStri
  00175	80 f2 ec	 xor	 dl, -20			; ffffffecH
  00178	88 50 15	 mov	 BYTE PTR [eax+21], dl
  0017b	8a 51 16	 mov	 dl, BYTE PTR [ecx+22]
  0017e	84 d2		 test	 dl, dl
  00180	0f 84 79 02 00
	00		 je	 $LN74@encodeStri
  00186	32 d3		 xor	 dl, bl
  00188	88 50 16	 mov	 BYTE PTR [eax+22], dl
  0018b	8a 51 17	 mov	 dl, BYTE PTR [ecx+23]
  0018e	84 d2		 test	 dl, dl
  00190	0f 84 60 02 00
	00		 je	 $LN73@encodeStri
  00196	80 f2 ea	 xor	 dl, -22			; ffffffeaH
  00199	88 50 17	 mov	 BYTE PTR [eax+23], dl
  0019c	8a 51 18	 mov	 dl, BYTE PTR [ecx+24]
  0019f	84 d2		 test	 dl, dl
  001a1	0f 84 46 02 00
	00		 je	 $LN72@encodeStri
  001a7	80 f2 ed	 xor	 dl, -19			; ffffffedH
  001aa	88 50 18	 mov	 BYTE PTR [eax+24], dl
  001ad	8a 51 19	 mov	 dl, BYTE PTR [ecx+25]
  001b0	84 d2		 test	 dl, dl
  001b2	0f 84 2c 02 00
	00		 je	 $LN71@encodeStri
  001b8	80 f2 ec	 xor	 dl, -20			; ffffffecH
  001bb	88 50 19	 mov	 BYTE PTR [eax+25], dl
  001be	8a 51 1a	 mov	 dl, BYTE PTR [ecx+26]
  001c1	84 d2		 test	 dl, dl
  001c3	0f 84 13 02 00
	00		 je	 $LN70@encodeStri
  001c9	32 d3		 xor	 dl, bl
  001cb	88 50 1a	 mov	 BYTE PTR [eax+26], dl
  001ce	8a 51 1b	 mov	 dl, BYTE PTR [ecx+27]
  001d1	84 d2		 test	 dl, dl
  001d3	0f 84 fa 01 00
	00		 je	 $LN69@encodeStri
  001d9	80 f2 ea	 xor	 dl, -22			; ffffffeaH
  001dc	88 50 1b	 mov	 BYTE PTR [eax+27], dl
  001df	8a 51 1c	 mov	 dl, BYTE PTR [ecx+28]
  001e2	84 d2		 test	 dl, dl
  001e4	0f 84 e0 01 00
	00		 je	 $LN68@encodeStri
  001ea	80 f2 ed	 xor	 dl, -19			; ffffffedH
  001ed	88 50 1c	 mov	 BYTE PTR [eax+28], dl
  001f0	8a 51 1d	 mov	 dl, BYTE PTR [ecx+29]
  001f3	84 d2		 test	 dl, dl
  001f5	0f 84 c6 01 00
	00		 je	 $LN67@encodeStri
  001fb	80 f2 ec	 xor	 dl, -20			; ffffffecH
  001fe	88 50 1d	 mov	 BYTE PTR [eax+29], dl
  00201	8a 51 1e	 mov	 dl, BYTE PTR [ecx+30]
  00204	84 d2		 test	 dl, dl
  00206	0f 84 ad 01 00
	00		 je	 $LN66@encodeStri
  0020c	32 d3		 xor	 dl, bl
  0020e	88 50 1e	 mov	 BYTE PTR [eax+30], dl
  00211	8a 51 1f	 mov	 dl, BYTE PTR [ecx+31]
  00214	84 d2		 test	 dl, dl
  00216	0f 84 94 01 00
	00		 je	 $LN65@encodeStri
  0021c	80 f2 ea	 xor	 dl, -22			; ffffffeaH
  0021f	88 50 1f	 mov	 BYTE PTR [eax+31], dl
  00222	8a 51 20	 mov	 dl, BYTE PTR [ecx+32]
  00225	84 d2		 test	 dl, dl
  00227	0f 84 7a 01 00
	00		 je	 $LN64@encodeStri
  0022d	80 f2 ed	 xor	 dl, -19			; ffffffedH
  00230	88 50 20	 mov	 BYTE PTR [eax+32], dl
  00233	8a 51 21	 mov	 dl, BYTE PTR [ecx+33]
  00236	84 d2		 test	 dl, dl
  00238	0f 84 60 01 00
	00		 je	 $LN63@encodeStri
  0023e	80 f2 ec	 xor	 dl, -20			; ffffffecH
  00241	88 50 21	 mov	 BYTE PTR [eax+33], dl
  00244	8a 51 22	 mov	 dl, BYTE PTR [ecx+34]
  00247	84 d2		 test	 dl, dl
  00249	0f 84 47 01 00
	00		 je	 $LN62@encodeStri
  0024f	32 d3		 xor	 dl, bl
  00251	88 50 22	 mov	 BYTE PTR [eax+34], dl
  00254	8a 51 23	 mov	 dl, BYTE PTR [ecx+35]
  00257	84 d2		 test	 dl, dl
  00259	0f 84 2e 01 00
	00		 je	 $LN61@encodeStri
  0025f	80 f2 ea	 xor	 dl, -22			; ffffffeaH
  00262	88 50 23	 mov	 BYTE PTR [eax+35], dl
  00265	8a 51 24	 mov	 dl, BYTE PTR [ecx+36]
  00268	84 d2		 test	 dl, dl
  0026a	0f 84 14 01 00
	00		 je	 $LN60@encodeStri
  00270	80 f2 ed	 xor	 dl, -19			; ffffffedH
  00273	88 50 24	 mov	 BYTE PTR [eax+36], dl
  00276	8a 51 25	 mov	 dl, BYTE PTR [ecx+37]
  00279	84 d2		 test	 dl, dl
  0027b	0f 84 fa 00 00
	00		 je	 $LN59@encodeStri
  00281	80 f2 ec	 xor	 dl, -20			; ffffffecH
  00284	88 50 25	 mov	 BYTE PTR [eax+37], dl
  00287	8a 51 26	 mov	 dl, BYTE PTR [ecx+38]
  0028a	84 d2		 test	 dl, dl
  0028c	0f 84 e1 00 00
	00		 je	 $LN58@encodeStri
  00292	32 d3		 xor	 dl, bl
  00294	88 50 26	 mov	 BYTE PTR [eax+38], dl
  00297	8a 51 27	 mov	 dl, BYTE PTR [ecx+39]
  0029a	84 d2		 test	 dl, dl
  0029c	0f 84 c8 00 00
	00		 je	 $LN57@encodeStri
  002a2	80 f2 ea	 xor	 dl, -22			; ffffffeaH
  002a5	88 50 27	 mov	 BYTE PTR [eax+39], dl
  002a8	8a 51 28	 mov	 dl, BYTE PTR [ecx+40]
  002ab	84 d2		 test	 dl, dl
  002ad	0f 84 ae 00 00
	00		 je	 $LN56@encodeStri
  002b3	80 f2 ed	 xor	 dl, -19			; ffffffedH
  002b6	88 50 28	 mov	 BYTE PTR [eax+40], dl
  002b9	8a 51 29	 mov	 dl, BYTE PTR [ecx+41]
  002bc	84 d2		 test	 dl, dl
  002be	0f 84 94 00 00
	00		 je	 $LN55@encodeStri
  002c4	80 f2 ec	 xor	 dl, -20			; ffffffecH
  002c7	88 50 29	 mov	 BYTE PTR [eax+41], dl
  002ca	8a 51 2a	 mov	 dl, BYTE PTR [ecx+42]
  002cd	84 d2		 test	 dl, dl
  002cf	74 7f		 je	 SHORT $LN54@encodeStri
  002d1	32 d3		 xor	 dl, bl
  002d3	88 50 2a	 mov	 BYTE PTR [eax+42], dl
  002d6	8a 51 2b	 mov	 dl, BYTE PTR [ecx+43]
  002d9	84 d2		 test	 dl, dl
  002db	74 6a		 je	 SHORT $LN53@encodeStri
  002dd	80 f2 ea	 xor	 dl, -22			; ffffffeaH
  002e0	88 50 2b	 mov	 BYTE PTR [eax+43], dl
  002e3	8a 51 2c	 mov	 dl, BYTE PTR [ecx+44]
  002e6	84 d2		 test	 dl, dl
  002e8	74 54		 je	 SHORT $LN52@encodeStri
  002ea	80 f2 ed	 xor	 dl, -19			; ffffffedH
  002ed	88 50 2c	 mov	 BYTE PTR [eax+44], dl
  002f0	8a 51 2d	 mov	 dl, BYTE PTR [ecx+45]
  002f3	84 d2		 test	 dl, dl
  002f5	74 3e		 je	 SHORT $LN51@encodeStri
  002f7	80 f2 ec	 xor	 dl, -20			; ffffffecH
  002fa	88 50 2d	 mov	 BYTE PTR [eax+45], dl
  002fd	8a 51 2e	 mov	 dl, BYTE PTR [ecx+46]
  00300	84 d2		 test	 dl, dl
  00302	74 29		 je	 SHORT $LN50@encodeStri
  00304	32 d3		 xor	 dl, bl
  00306	88 50 2e	 mov	 BYTE PTR [eax+46], dl
  00309	8a 51 2f	 mov	 dl, BYTE PTR [ecx+47]
  0030c	84 d2		 test	 dl, dl
  0030e	74 14		 je	 SHORT $LN49@encodeStri
  00310	80 f2 ea	 xor	 dl, -22			; ffffffeaH
  00313	88 50 2f	 mov	 BYTE PTR [eax+47], dl
  00316	8a 49 30	 mov	 cl, BYTE PTR [ecx+48]
  00319	80 f1 ed	 xor	 cl, -19			; ffffffedH
  0031c	88 48 30	 mov	 BYTE PTR [eax+48], cl
  0031f	e9 5d 01 00 00	 jmp	 $LN1@encodeStri
$LN49@encodeStri:
  00324	c6 40 2f ea	 mov	 BYTE PTR [eax+47], -22	; ffffffeaH
  00328	e9 54 01 00 00	 jmp	 $LN1@encodeStri
$LN50@encodeStri:
  0032d	88 58 2e	 mov	 BYTE PTR [eax+46], bl
  00330	e9 4c 01 00 00	 jmp	 $LN1@encodeStri
$LN51@encodeStri:
  00335	c6 40 2d ec	 mov	 BYTE PTR [eax+45], -20	; ffffffecH
  00339	e9 43 01 00 00	 jmp	 $LN1@encodeStri
$LN52@encodeStri:
  0033e	c6 40 2c ed	 mov	 BYTE PTR [eax+44], -19	; ffffffedH
  00342	e9 3a 01 00 00	 jmp	 $LN1@encodeStri
$LN53@encodeStri:
  00347	c6 40 2b ea	 mov	 BYTE PTR [eax+43], -22	; ffffffeaH
  0034b	e9 31 01 00 00	 jmp	 $LN1@encodeStri
$LN54@encodeStri:
  00350	88 58 2a	 mov	 BYTE PTR [eax+42], bl
  00353	e9 29 01 00 00	 jmp	 $LN1@encodeStri
$LN55@encodeStri:
  00358	c6 40 29 ec	 mov	 BYTE PTR [eax+41], -20	; ffffffecH
  0035c	e9 20 01 00 00	 jmp	 $LN1@encodeStri
$LN56@encodeStri:
  00361	c6 40 28 ed	 mov	 BYTE PTR [eax+40], -19	; ffffffedH
  00365	e9 17 01 00 00	 jmp	 $LN1@encodeStri
$LN57@encodeStri:
  0036a	c6 40 27 ea	 mov	 BYTE PTR [eax+39], -22	; ffffffeaH
  0036e	e9 0e 01 00 00	 jmp	 $LN1@encodeStri
$LN58@encodeStri:
  00373	88 58 26	 mov	 BYTE PTR [eax+38], bl
  00376	e9 06 01 00 00	 jmp	 $LN1@encodeStri
$LN59@encodeStri:
  0037b	c6 40 25 ec	 mov	 BYTE PTR [eax+37], -20	; ffffffecH
  0037f	e9 fd 00 00 00	 jmp	 $LN1@encodeStri
$LN60@encodeStri:
  00384	c6 40 24 ed	 mov	 BYTE PTR [eax+36], -19	; ffffffedH
  00388	e9 f4 00 00 00	 jmp	 $LN1@encodeStri
$LN61@encodeStri:
  0038d	c6 40 23 ea	 mov	 BYTE PTR [eax+35], -22	; ffffffeaH
  00391	e9 eb 00 00 00	 jmp	 $LN1@encodeStri
$LN62@encodeStri:
  00396	88 58 22	 mov	 BYTE PTR [eax+34], bl
  00399	e9 e3 00 00 00	 jmp	 $LN1@encodeStri
$LN63@encodeStri:
  0039e	c6 40 21 ec	 mov	 BYTE PTR [eax+33], -20	; ffffffecH
  003a2	e9 da 00 00 00	 jmp	 $LN1@encodeStri
$LN64@encodeStri:
  003a7	c6 40 20 ed	 mov	 BYTE PTR [eax+32], -19	; ffffffedH
  003ab	e9 d1 00 00 00	 jmp	 $LN1@encodeStri
$LN65@encodeStri:
  003b0	c6 40 1f ea	 mov	 BYTE PTR [eax+31], -22	; ffffffeaH
  003b4	e9 c8 00 00 00	 jmp	 $LN1@encodeStri
$LN66@encodeStri:
  003b9	88 58 1e	 mov	 BYTE PTR [eax+30], bl
  003bc	e9 c0 00 00 00	 jmp	 $LN1@encodeStri
$LN67@encodeStri:
  003c1	c6 40 1d ec	 mov	 BYTE PTR [eax+29], -20	; ffffffecH
  003c5	e9 b7 00 00 00	 jmp	 $LN1@encodeStri
$LN68@encodeStri:
  003ca	c6 40 1c ed	 mov	 BYTE PTR [eax+28], -19	; ffffffedH
  003ce	e9 ae 00 00 00	 jmp	 $LN1@encodeStri
$LN69@encodeStri:
  003d3	c6 40 1b ea	 mov	 BYTE PTR [eax+27], -22	; ffffffeaH
  003d7	e9 a5 00 00 00	 jmp	 $LN1@encodeStri
$LN70@encodeStri:
  003dc	88 58 1a	 mov	 BYTE PTR [eax+26], bl
  003df	e9 9d 00 00 00	 jmp	 $LN1@encodeStri
$LN71@encodeStri:
  003e4	c6 40 19 ec	 mov	 BYTE PTR [eax+25], -20	; ffffffecH
  003e8	e9 94 00 00 00	 jmp	 $LN1@encodeStri
$LN72@encodeStri:
  003ed	c6 40 18 ed	 mov	 BYTE PTR [eax+24], -19	; ffffffedH
  003f1	e9 8b 00 00 00	 jmp	 $LN1@encodeStri
$LN73@encodeStri:
  003f6	c6 40 17 ea	 mov	 BYTE PTR [eax+23], -22	; ffffffeaH
  003fa	e9 82 00 00 00	 jmp	 $LN1@encodeStri
$LN74@encodeStri:
  003ff	88 58 16	 mov	 BYTE PTR [eax+22], bl
  00402	eb 7d		 jmp	 SHORT $LN1@encodeStri
$LN75@encodeStri:
  00404	c6 40 15 ec	 mov	 BYTE PTR [eax+21], -20	; ffffffecH
  00408	eb 77		 jmp	 SHORT $LN1@encodeStri
$LN76@encodeStri:
  0040a	c6 40 14 ed	 mov	 BYTE PTR [eax+20], -19	; ffffffedH
  0040e	eb 71		 jmp	 SHORT $LN1@encodeStri
$LN77@encodeStri:
  00410	c6 40 13 ea	 mov	 BYTE PTR [eax+19], -22	; ffffffeaH
  00414	eb 6b		 jmp	 SHORT $LN1@encodeStri
$LN78@encodeStri:
  00416	88 58 12	 mov	 BYTE PTR [eax+18], bl
  00419	eb 66		 jmp	 SHORT $LN1@encodeStri
$LN79@encodeStri:
  0041b	c6 40 11 ec	 mov	 BYTE PTR [eax+17], -20	; ffffffecH
  0041f	eb 60		 jmp	 SHORT $LN1@encodeStri
$LN80@encodeStri:
  00421	c6 40 10 ed	 mov	 BYTE PTR [eax+16], -19	; ffffffedH
  00425	eb 5a		 jmp	 SHORT $LN1@encodeStri
$LN81@encodeStri:
  00427	c6 40 0f ea	 mov	 BYTE PTR [eax+15], -22	; ffffffeaH
  0042b	eb 54		 jmp	 SHORT $LN1@encodeStri
$LN82@encodeStri:
  0042d	88 58 0e	 mov	 BYTE PTR [eax+14], bl
  00430	eb 4f		 jmp	 SHORT $LN1@encodeStri
$LN83@encodeStri:
  00432	c6 40 0d ec	 mov	 BYTE PTR [eax+13], -20	; ffffffecH
  00436	eb 49		 jmp	 SHORT $LN1@encodeStri
$LN84@encodeStri:
  00438	c6 40 0c ed	 mov	 BYTE PTR [eax+12], -19	; ffffffedH
  0043c	eb 43		 jmp	 SHORT $LN1@encodeStri
$LN85@encodeStri:
  0043e	c6 40 0b ea	 mov	 BYTE PTR [eax+11], -22	; ffffffeaH
  00442	eb 3d		 jmp	 SHORT $LN1@encodeStri
$LN86@encodeStri:
  00444	88 58 0a	 mov	 BYTE PTR [eax+10], bl
  00447	eb 38		 jmp	 SHORT $LN1@encodeStri
$LN87@encodeStri:
  00449	c6 40 09 ec	 mov	 BYTE PTR [eax+9], -20	; ffffffecH
  0044d	eb 32		 jmp	 SHORT $LN1@encodeStri
$LN88@encodeStri:
  0044f	c6 40 08 ed	 mov	 BYTE PTR [eax+8], -19	; ffffffedH
  00453	eb 2c		 jmp	 SHORT $LN1@encodeStri
$LN89@encodeStri:
  00455	c6 40 07 ea	 mov	 BYTE PTR [eax+7], -22	; ffffffeaH
  00459	eb 26		 jmp	 SHORT $LN1@encodeStri
$LN90@encodeStri:
  0045b	88 58 06	 mov	 BYTE PTR [eax+6], bl
  0045e	eb 21		 jmp	 SHORT $LN1@encodeStri
$LN91@encodeStri:
  00460	c6 40 05 ec	 mov	 BYTE PTR [eax+5], -20	; ffffffecH
  00464	eb 1b		 jmp	 SHORT $LN1@encodeStri
$LN92@encodeStri:
  00466	c6 40 04 ed	 mov	 BYTE PTR [eax+4], -19	; ffffffedH
  0046a	eb 15		 jmp	 SHORT $LN1@encodeStri
$LN93@encodeStri:
  0046c	c6 40 03 ea	 mov	 BYTE PTR [eax+3], -22	; ffffffeaH
  00470	eb 0f		 jmp	 SHORT $LN1@encodeStri
$LN94@encodeStri:
  00472	c6 40 02 eb	 mov	 BYTE PTR [eax+2], -21	; ffffffebH
  00476	eb 09		 jmp	 SHORT $LN1@encodeStri
$LN95@encodeStri:
  00478	c6 40 01 ec	 mov	 BYTE PTR [eax+1], -20	; ffffffecH
  0047c	eb 03		 jmp	 SHORT $LN1@encodeStri
$LN96@encodeStri:
  0047e	c6 00 ed	 mov	 BYTE PTR [eax], -19	; ffffffedH
$LN1@encodeStri:
  00481	6a 06		 push	 6
  00483	5a		 pop	 edx
  00484	8b c8		 mov	 ecx, eax
  00486	c6 40 1b 00	 mov	 BYTE PTR [eax+27], 0
  0048a	5b		 pop	 ebx
$LL104@encodeStri:
  0048b	81 31 ed ec eb
	ea		 xor	 DWORD PTR [ecx], -353637139 ; eaebecedH
  00491	83 c1 04	 add	 ecx, 4
  00494	4a		 dec	 edx
  00495	75 f4		 jne	 SHORT $LL104@encodeStri
  00497	56		 push	 esi
  00498	6a 18		 push	 24			; 00000018H
  0049a	5e		 pop	 esi
$LL101@encodeStri:
  0049b	8b ce		 mov	 ecx, esi
  0049d	81 e1 03 00 00
	80		 and	 ecx, -2147483645	; 80000003H
  004a3	79 05		 jns	 SHORT $LN111@encodeStri
  004a5	49		 dec	 ecx
  004a6	83 c9 fc	 or	 ecx, -4			; fffffffcH
  004a9	41		 inc	 ecx
$LN111@encodeStri:
  004aa	b2 ed		 mov	 dl, -19			; ffffffedH
  004ac	2a d1		 sub	 dl, cl
  004ae	30 14 06	 xor	 BYTE PTR [esi+eax], dl
  004b1	46		 inc	 esi
  004b2	83 fe 1b	 cmp	 esi, 27			; 0000001bH
  004b5	7c e4		 jl	 SHORT $LL101@encodeStri
  004b7	5e		 pop	 esi

; 217  : 		return e;
; 218  : 	}

  004b8	5d		 pop	 ebp
  004b9	c2 08 00	 ret	 8
??$encodeString@$0BM@@ioINILoader_e@@AAEPADAAY0BM@$$CBDPAD@Z ENDP ; ioINILoader_e::encodeString<28>
_TEXT	ENDS
PUBLIC	??$_Uninitialized_move@PAW4RaceDetailType@@PAW41@V?$allocator@W4RaceDetailType@@@std@@@std@@YAPAW4RaceDetailType@@PAW41@00AAV?$allocator@W4RaceDetailType@@@0@@Z ; std::_Uninitialized_move<enum RaceDetailType *,enum RaceDetailType *,std::allocator<enum RaceDetailType> >
; Function compile flags: /Ogsp
; File c:\program files (x86)\microsoft visual studio 10.0\vc\include\memory
;	COMDAT ??$_Uninitialized_move@PAW4RaceDetailType@@PAW41@V?$allocator@W4RaceDetailType@@@std@@@std@@YAPAW4RaceDetailType@@PAW41@00AAV?$allocator@W4RaceDetailType@@@0@@Z
_TEXT	SEGMENT
__First$ = 8						; size = 4
__Last$ = 12						; size = 4
__Dest$ = 16						; size = 4
__Al$ = 20						; size = 4
??$_Uninitialized_move@PAW4RaceDetailType@@PAW41@V?$allocator@W4RaceDetailType@@@std@@@std@@YAPAW4RaceDetailType@@PAW41@00AAV?$allocator@W4RaceDetailType@@@0@@Z PROC ; std::_Uninitialized_move<enum RaceDetailType *,enum RaceDetailType *,std::allocator<enum RaceDetailType> >, COMDAT

; 469  : 	{	// move [_First, _Last) to raw _Dest, using _Al

  00000	55		 push	 ebp
  00001	8b ec		 mov	 ebp, esp
  00003	56		 push	 esi

; 470  : 	return (_Uninit_move(_First, _Last, _Dest, _Al,
; 471  : 		_Val_type(_First), _Ptr_cat(_First, _Dest)));

  00004	8b 75 0c	 mov	 esi, DWORD PTR __Last$[ebp]
  00007	2b 75 08	 sub	 esi, DWORD PTR __First$[ebp]
  0000a	c1 fe 02	 sar	 esi, 2
  0000d	c1 e6 02	 shl	 esi, 2
  00010	56		 push	 esi
  00011	ff 75 08	 push	 DWORD PTR __First$[ebp]
  00014	ff 75 10	 push	 DWORD PTR __Dest$[ebp]
  00017	ff 15 00 00 00
	00		 call	 DWORD PTR __imp__memmove
  0001d	83 c4 0c	 add	 esp, 12			; 0000000cH
  00020	03 c6		 add	 eax, esi
  00022	5e		 pop	 esi

; 472  : 	}

  00023	5d		 pop	 ebp
  00024	c3		 ret	 0
??$_Uninitialized_move@PAW4RaceDetailType@@PAW41@V?$allocator@W4RaceDetailType@@@std@@@std@@YAPAW4RaceDetailType@@PAW41@00AAV?$allocator@W4RaceDetailType@@@0@@Z ENDP ; std::_Uninitialized_move<enum RaceDetailType *,enum RaceDetailType *,std::allocator<enum RaceDetailType> >
_TEXT	ENDS
PUBLIC	??1CHARACTER@@QAE@XZ				; CHARACTER::~CHARACTER
EXTRN	??_M@YGXPAXIHP6EX0@Z@Z:PROC			; `eh vector destructor iterator'
EXTRN	___CxxFrameHandler3:PROC
EXTRN	__EH_epilog3:PROC
EXTRN	__EH_prolog3:PROC
;	COMDAT xdata$x
xdata$x	SEGMENT
__ehfuncinfo$??1CHARACTER@@QAE@XZ DD 019930522H
	DD	0aH
	DD	FLAT:__unwindtable$??1CHARACTER@@QAE@XZ
	DD	2 DUP(00H)
	DD	2 DUP(00H)
	DD	00H
	DD	01H
__unwindtable$??1CHARACTER@@QAE@XZ DD 0ffffffffH
	DD	FLAT:__unwindfunclet$??1CHARACTER@@QAE@XZ$0
	DD	00H
	DD	FLAT:__unwindfunclet$??1CHARACTER@@QAE@XZ$1
	DD	01H
	DD	FLAT:__unwindfunclet$??1CHARACTER@@QAE@XZ$2
	DD	02H
	DD	FLAT:__unwindfunclet$??1CHARACTER@@QAE@XZ$3
	DD	03H
	DD	FLAT:__unwindfunclet$??1CHARACTER@@QAE@XZ$4
	DD	04H
	DD	FLAT:__unwindfunclet$??1CHARACTER@@QAE@XZ$5
	DD	05H
	DD	FLAT:__unwindfunclet$??1CHARACTER@@QAE@XZ$6
	DD	06H
	DD	FLAT:__unwindfunclet$??1CHARACTER@@QAE@XZ$7
	DD	07H
	DD	FLAT:__unwindfunclet$??1CHARACTER@@QAE@XZ$8
	DD	08H
	DD	FLAT:__unwindfunclet$??1CHARACTER@@QAE@XZ$9
; Function compile flags: /Ogsp
xdata$x	ENDS
;	COMDAT ??1CHARACTER@@QAE@XZ
_TEXT	SEGMENT
_this$ = -16						; size = 4
__$EHRec$ = -12						; size = 12
??1CHARACTER@@QAE@XZ PROC				; CHARACTER::~CHARACTER, COMDAT
; _this$ = ecx
  00000	6a 04		 push	 4
  00002	b8 00 00 00 00	 mov	 eax, __ehhandler$??1CHARACTER@@QAE@XZ
  00007	e8 00 00 00 00	 call	 __EH_prolog3
  0000c	8b f1		 mov	 esi, ecx
  0000e	89 75 f0	 mov	 DWORD PTR _this$[ebp], esi
  00011	68 00 00 00 00	 push	 OFFSET ??1?$CEncrypt@H@@UAE@XZ ; CEncrypt<int>::~CEncrypt<int>
  00016	6a 04		 push	 4
  00018	6a 30		 push	 48			; 00000030H
  0001a	8d 86 e0 01 00
	00		 lea	 eax, DWORD PTR [esi+480]
  00020	50		 push	 eax
  00021	c7 45 fc 09 00
	00 00		 mov	 DWORD PTR __$EHRec$[ebp+8], 9
  00028	e8 00 00 00 00	 call	 ??_M@YGXPAXIHP6EX0@Z@Z
  0002d	bf 00 00 00 00	 mov	 edi, OFFSET ??_7?$CEncrypt@H@@6B@
  00032	8d 8e bc 01 00
	00		 lea	 ecx, DWORD PTR [esi+444]
  00038	c6 45 fc 08	 mov	 BYTE PTR __$EHRec$[ebp+8], 8
  0003c	89 be b0 01 00
	00		 mov	 DWORD PTR [esi+432], edi
  00042	e8 00 00 00 00	 call	 ??1ccddaabb@@UAE@XZ	; ccddaabb::~ccddaabb
  00047	8d 8e 8c 01 00
	00		 lea	 ecx, DWORD PTR [esi+396]
  0004d	c6 45 fc 07	 mov	 BYTE PTR __$EHRec$[ebp+8], 7
  00051	89 be 80 01 00
	00		 mov	 DWORD PTR [esi+384], edi
  00057	e8 00 00 00 00	 call	 ??1ccddaabb@@UAE@XZ	; ccddaabb::~ccddaabb
  0005c	8d 8e 5c 01 00
	00		 lea	 ecx, DWORD PTR [esi+348]
  00062	c6 45 fc 06	 mov	 BYTE PTR __$EHRec$[ebp+8], 6
  00066	89 be 50 01 00
	00		 mov	 DWORD PTR [esi+336], edi
  0006c	e8 00 00 00 00	 call	 ??1ccddaabb@@UAE@XZ	; ccddaabb::~ccddaabb
  00071	8d 8e 2c 01 00
	00		 lea	 ecx, DWORD PTR [esi+300]
  00077	c6 45 fc 05	 mov	 BYTE PTR __$EHRec$[ebp+8], 5
  0007b	89 be 20 01 00
	00		 mov	 DWORD PTR [esi+288], edi
  00081	e8 00 00 00 00	 call	 ??1ccddaabb@@UAE@XZ	; ccddaabb::~ccddaabb
  00086	8d 8e fc 00 00
	00		 lea	 ecx, DWORD PTR [esi+252]
  0008c	c6 45 fc 04	 mov	 BYTE PTR __$EHRec$[ebp+8], 4
  00090	89 be f0 00 00
	00		 mov	 DWORD PTR [esi+240], edi
  00096	e8 00 00 00 00	 call	 ??1ccddaabb@@UAE@XZ	; ccddaabb::~ccddaabb
  0009b	8d 8e cc 00 00
	00		 lea	 ecx, DWORD PTR [esi+204]
  000a1	c6 45 fc 03	 mov	 BYTE PTR __$EHRec$[ebp+8], 3
  000a5	89 be c0 00 00
	00		 mov	 DWORD PTR [esi+192], edi
  000ab	e8 00 00 00 00	 call	 ??1ccddaabb@@UAE@XZ	; ccddaabb::~ccddaabb
  000b0	8d 8e 9c 00 00
	00		 lea	 ecx, DWORD PTR [esi+156]
  000b6	c6 45 fc 02	 mov	 BYTE PTR __$EHRec$[ebp+8], 2
  000ba	89 be 90 00 00
	00		 mov	 DWORD PTR [esi+144], edi
  000c0	e8 00 00 00 00	 call	 ??1ccddaabb@@UAE@XZ	; ccddaabb::~ccddaabb
  000c5	8d 4e 6c	 lea	 ecx, DWORD PTR [esi+108]
  000c8	c6 45 fc 01	 mov	 BYTE PTR __$EHRec$[ebp+8], 1
  000cc	89 7e 60	 mov	 DWORD PTR [esi+96], edi
  000cf	e8 00 00 00 00	 call	 ??1ccddaabb@@UAE@XZ	; ccddaabb::~ccddaabb
  000d4	8d 4e 3c	 lea	 ecx, DWORD PTR [esi+60]
  000d7	c6 45 fc 00	 mov	 BYTE PTR __$EHRec$[ebp+8], 0
  000db	89 7e 30	 mov	 DWORD PTR [esi+48], edi
  000de	e8 00 00 00 00	 call	 ??1ccddaabb@@UAE@XZ	; ccddaabb::~ccddaabb
  000e3	83 4d fc ff	 or	 DWORD PTR __$EHRec$[ebp+8], -1
  000e7	8d 4e 0c	 lea	 ecx, DWORD PTR [esi+12]
  000ea	89 3e		 mov	 DWORD PTR [esi], edi
  000ec	e8 00 00 00 00	 call	 ??1ccddaabb@@UAE@XZ	; ccddaabb::~ccddaabb
  000f1	e8 00 00 00 00	 call	 __EH_epilog3
  000f6	c3		 ret	 0
_TEXT	ENDS
;	COMDAT text$x
text$x	SEGMENT
__unwindfunclet$??1CHARACTER@@QAE@XZ$0:
  00000	8b 4d f0	 mov	 ecx, DWORD PTR _this$[ebp]
  00003	e9 00 00 00 00	 jmp	 ??1?$CEncrypt@H@@UAE@XZ	; CEncrypt<int>::~CEncrypt<int>
__unwindfunclet$??1CHARACTER@@QAE@XZ$1:
  00008	8b 4d f0	 mov	 ecx, DWORD PTR _this$[ebp]
  0000b	83 c1 30	 add	 ecx, 48			; 00000030H
  0000e	e9 00 00 00 00	 jmp	 ??1?$CEncrypt@H@@UAE@XZ	; CEncrypt<int>::~CEncrypt<int>
__unwindfunclet$??1CHARACTER@@QAE@XZ$2:
  00013	8b 4d f0	 mov	 ecx, DWORD PTR _this$[ebp]
  00016	83 c1 60	 add	 ecx, 96			; 00000060H
  00019	e9 00 00 00 00	 jmp	 ??1?$CEncrypt@H@@UAE@XZ	; CEncrypt<int>::~CEncrypt<int>
__unwindfunclet$??1CHARACTER@@QAE@XZ$3:
  0001e	8b 4d f0	 mov	 ecx, DWORD PTR _this$[ebp]
  00021	81 c1 90 00 00
	00		 add	 ecx, 144		; 00000090H
  00027	e9 00 00 00 00	 jmp	 ??1?$CEncrypt@H@@UAE@XZ	; CEncrypt<int>::~CEncrypt<int>
__unwindfunclet$??1CHARACTER@@QAE@XZ$4:
  0002c	8b 4d f0	 mov	 ecx, DWORD PTR _this$[ebp]
  0002f	81 c1 c0 00 00
	00		 add	 ecx, 192		; 000000c0H
  00035	e9 00 00 00 00	 jmp	 ??1?$CEncrypt@H@@UAE@XZ	; CEncrypt<int>::~CEncrypt<int>
__unwindfunclet$??1CHARACTER@@QAE@XZ$5:
  0003a	8b 4d f0	 mov	 ecx, DWORD PTR _this$[ebp]
  0003d	81 c1 f0 00 00
	00		 add	 ecx, 240		; 000000f0H
  00043	e9 00 00 00 00	 jmp	 ??1?$CEncrypt@H@@UAE@XZ	; CEncrypt<int>::~CEncrypt<int>
__unwindfunclet$??1CHARACTER@@QAE@XZ$6:
  00048	8b 4d f0	 mov	 ecx, DWORD PTR _this$[ebp]
  0004b	81 c1 20 01 00
	00		 add	 ecx, 288		; 00000120H
  00051	e9 00 00 00 00	 jmp	 ??1?$CEncrypt@H@@UAE@XZ	; CEncrypt<int>::~CEncrypt<int>
__unwindfunclet$??1CHARACTER@@QAE@XZ$7:
  00056	8b 4d f0	 mov	 ecx, DWORD PTR _this$[ebp]
  00059	81 c1 50 01 00
	00		 add	 ecx, 336		; 00000150H
  0005f	e9 00 00 00 00	 jmp	 ??1?$CEncrypt@H@@UAE@XZ	; CEncrypt<int>::~CEncrypt<int>
__unwindfunclet$??1CHARACTER@@QAE@XZ$8:
  00064	8b 4d f0	 mov	 ecx, DWORD PTR _this$[ebp]
  00067	81 c1 80 01 00
	00		 add	 ecx, 384		; 00000180H
  0006d	e9 00 00 00 00	 jmp	 ??1?$CEncrypt@H@@UAE@XZ	; CEncrypt<int>::~CEncrypt<int>
__unwindfunclet$??1CHARACTER@@QAE@XZ$9:
  00072	8b 4d f0	 mov	 ecx, DWORD PTR _this$[ebp]
  00075	81 c1 b0 01 00
	00		 add	 ecx, 432		; 000001b0H
  0007b	e9 00 00 00 00	 jmp	 ??1?$CEncrypt@H@@UAE@XZ	; CEncrypt<int>::~CEncrypt<int>
__ehhandler$??1CHARACTER@@QAE@XZ:
  00080	8b 54 24 08	 mov	 edx, DWORD PTR [esp+8]
  00084	8d 42 0c	 lea	 eax, DWORD PTR [edx+12]
  00087	8b 4a ec	 mov	 ecx, DWORD PTR [edx-20]
  0008a	33 c8		 xor	 ecx, eax
  0008c	e8 00 00 00 00	 call	 @__security_check_cookie@4
  00091	b8 00 00 00 00	 mov	 eax, OFFSET __ehfuncinfo$??1CHARACTER@@QAE@XZ
  00096	e9 00 00 00 00	 jmp	 ___CxxFrameHandler3
text$x	ENDS
??1CHARACTER@@QAE@XZ ENDP				; CHARACTER::~CHARACTER
PUBLIC	?c_str@?$basic_string@DU?$char_traits@D@std@@V?$allocator@D@2@@std@@QBEPBDXZ ; std::basic_string<char,std::char_traits<char>,std::allocator<char> >::c_str
; Function compile flags: /Ogsp
; File c:\program files (x86)\microsoft visual studio 10.0\vc\include\xstring
;	COMDAT ?c_str@?$basic_string@DU?$char_traits@D@std@@V?$allocator@D@2@@std@@QBEPBDXZ
_TEXT	SEGMENT
?c_str@?$basic_string@DU?$char_traits@D@std@@V?$allocator@D@2@@std@@QBEPBDXZ PROC ; std::basic_string<char,std::char_traits<char>,std::allocator<char> >::c_str, COMDAT
; _this$ = ecx

; 1497 : 		return (_Myptr());

  00000	83 79 14 10	 cmp	 DWORD PTR [ecx+20], 16	; 00000010H
  00004	72 03		 jb	 SHORT $LN5@c_str
  00006	8b 01		 mov	 eax, DWORD PTR [ecx]

; 1498 : 		}

  00008	c3		 ret	 0

; 1497 : 		return (_Myptr());

$LN5@c_str:
  00009	8b c1		 mov	 eax, ecx

; 1498 : 		}

  0000b	c3		 ret	 0
?c_str@?$basic_string@DU?$char_traits@D@std@@V?$allocator@D@2@@std@@QBEPBDXZ ENDP ; std::basic_string<char,std::char_traits<char>,std::allocator<char> >::c_str
_TEXT	ENDS
PUBLIC	??0?$CEncrypt@H@@QAE@XZ				; CEncrypt<int>::CEncrypt<int>
EXTRN	??0ccddaabb@@QAE@XZ:PROC			; ccddaabb::ccddaabb
;	COMDAT xdata$x
; File d:\lost saga for developer\youtube\tutorial\source\src\lsclient\encryptvalue.h
xdata$x	SEGMENT
__unwindtable$??0?$CEncrypt@H@@QAE@XZ DD 0ffffffffH
	DD	FLAT:__unwindfunclet$??0?$CEncrypt@H@@QAE@XZ$0
__ehfuncinfo$??0?$CEncrypt@H@@QAE@XZ DD 019930522H
	DD	01H
	DD	FLAT:__unwindtable$??0?$CEncrypt@H@@QAE@XZ
	DD	2 DUP(00H)
	DD	2 DUP(00H)
	DD	00H
	DD	01H
; Function compile flags: /Ogsp
xdata$x	ENDS
;	COMDAT ??0?$CEncrypt@H@@QAE@XZ
_TEXT	SEGMENT
_this$ = -16						; size = 4
__$EHRec$ = -12						; size = 12
??0?$CEncrypt@H@@QAE@XZ PROC				; CEncrypt<int>::CEncrypt<int>, COMDAT
; _this$ = ecx

; 109  : 	CEncrypt()

  00000	6a 04		 push	 4
  00002	b8 00 00 00 00	 mov	 eax, __ehhandler$??0?$CEncrypt@H@@QAE@XZ
  00007	e8 00 00 00 00	 call	 __EH_prolog3
  0000c	8b f1		 mov	 esi, ecx
  0000e	89 75 f0	 mov	 DWORD PTR _this$[ebp], esi
  00011	8d 4e 0c	 lea	 ecx, DWORD PTR [esi+12]
  00014	c7 06 00 00 00
	00		 mov	 DWORD PTR [esi], OFFSET ??_7?$CEncrypt@H@@6B@
  0001a	e8 00 00 00 00	 call	 ??0ccddaabb@@QAE@XZ	; ccddaabb::ccddaabb
  0001f	83 65 fc 00	 and	 DWORD PTR __$EHRec$[ebp+8], 0

; 110  : 	{
; 111  : 		Init();

  00023	8b ce		 mov	 ecx, esi
  00025	e8 00 00 00 00	 call	 ?Init@?$CEncrypt@H@@AAEXXZ ; CEncrypt<int>::Init

; 112  : 	}

  0002a	8b c6		 mov	 eax, esi
  0002c	e8 00 00 00 00	 call	 __EH_epilog3
  00031	c3		 ret	 0
_TEXT	ENDS
;	COMDAT text$x
text$x	SEGMENT
__unwindfunclet$??0?$CEncrypt@H@@QAE@XZ$0:
  00000	8b 4d f0	 mov	 ecx, DWORD PTR _this$[ebp]
  00003	83 c1 0c	 add	 ecx, 12			; 0000000cH
  00006	e9 00 00 00 00	 jmp	 ??1ccddaabb@@UAE@XZ	; ccddaabb::~ccddaabb
__ehhandler$??0?$CEncrypt@H@@QAE@XZ:
  0000b	8b 54 24 08	 mov	 edx, DWORD PTR [esp+8]
  0000f	8d 42 0c	 lea	 eax, DWORD PTR [edx+12]
  00012	8b 4a ec	 mov	 ecx, DWORD PTR [edx-20]
  00015	33 c8		 xor	 ecx, eax
  00017	e8 00 00 00 00	 call	 @__security_check_cookie@4
  0001c	b8 00 00 00 00	 mov	 eax, OFFSET __ehfuncinfo$??0?$CEncrypt@H@@QAE@XZ
  00021	e9 00 00 00 00	 jmp	 ___CxxFrameHandler3
text$x	ENDS
??0?$CEncrypt@H@@QAE@XZ ENDP				; CEncrypt<int>::CEncrypt<int>
PUBLIC	??B?$CEncrypt@H@@QAEHXZ				; CEncrypt<int>::operator int
; Function compile flags: /Ogsp
;	COMDAT ??B?$CEncrypt@H@@QAEHXZ
_TEXT	SEGMENT
_value$ = -4						; size = 4
??B?$CEncrypt@H@@QAEHXZ PROC				; CEncrypt<int>::operator int, COMDAT
; _this$ = ecx

; 134  : 	{

  00000	55		 push	 ebp
  00001	8b ec		 mov	 ebp, esp
  00003	51		 push	 ecx

; 135  : 		type value;
; 136  : 		DecryptValueToPool(&value);

  00004	8d 45 fc	 lea	 eax, DWORD PTR _value$[ebp]
  00007	50		 push	 eax
  00008	e8 00 00 00 00	 call	 ?DecryptValueToPool@?$CEncrypt@H@@QAEXPAH@Z ; CEncrypt<int>::DecryptValueToPool

; 137  : 
; 138  : #ifdef _NOTUSE
; 139  : 		Debug();
; 140  : #endif
; 141  : 		return value;

  0000d	8b 45 fc	 mov	 eax, DWORD PTR _value$[ebp]

; 142  : 	}

  00010	c9		 leave
  00011	c3		 ret	 0
??B?$CEncrypt@H@@QAEHXZ ENDP				; CEncrypt<int>::operator int
_TEXT	ENDS
PUBLIC	??4?$CEncrypt@H@@QAEHH@Z			; CEncrypt<int>::operator=
; Function compile flags: /Ogsp
;	COMDAT ??4?$CEncrypt@H@@QAEHH@Z
_TEXT	SEGMENT
_value$ = 8						; size = 4
_inValue$ = 8						; size = 4
??4?$CEncrypt@H@@QAEHH@Z PROC				; CEncrypt<int>::operator=, COMDAT
; _this$ = ecx

; 843  : 	{

  00000	55		 push	 ebp
  00001	8b ec		 mov	 ebp, esp

; 844  : 		type value = inValue;

  00003	8b 45 08	 mov	 eax, DWORD PTR _inValue$[ebp]
  00006	89 45 08	 mov	 DWORD PTR _value$[ebp], eax

; 845  : 		EncryptValueToPool((char*)&value);

  00009	8d 45 08	 lea	 eax, DWORD PTR _value$[ebp]
  0000c	50		 push	 eax
  0000d	e8 00 00 00 00	 call	 ?EncryptValueToPool@?$CEncrypt@H@@AAEXPBD@Z ; CEncrypt<int>::EncryptValueToPool

; 846  : #ifdef _NOTUSE
; 847  : 		m_value = inValue;
; 848  : 		Debug();
; 849  : #endif
; 850  : 		return value;

  00012	8b 45 08	 mov	 eax, DWORD PTR _value$[ebp]

; 851  : 	}

  00015	5d		 pop	 ebp
  00016	c2 04 00	 ret	 4
??4?$CEncrypt@H@@QAEHH@Z ENDP				; CEncrypt<int>::operator=
_TEXT	ENDS
PUBLIC	??0?$_String_val@DV?$allocator@D@std@@@std@@QAE@V?$allocator@D@1@@Z ; std::_String_val<char,std::allocator<char> >::_String_val<char,std::allocator<char> >
; Function compile flags: /Ogsp
; File c:\program files (x86)\microsoft visual studio 10.0\vc\include\xstring
;	COMDAT ??0?$_String_val@DV?$allocator@D@std@@@std@@QAE@V?$allocator@D@1@@Z
_TEXT	SEGMENT
__Al$ = 8						; size = 1
??0?$_String_val@DV?$allocator@D@std@@@std@@QAE@V?$allocator@D@1@@Z PROC ; std::_String_val<char,std::allocator<char> >::_String_val<char,std::allocator<char> >, COMDAT
; _this$ = ecx

; 454  : 		{	// construct allocator from _Al

  00000	8b c1		 mov	 eax, ecx

; 455  : 		}

  00002	c2 04 00	 ret	 4
??0?$_String_val@DV?$allocator@D@std@@@std@@QAE@V?$allocator@D@1@@Z ENDP ; std::_String_val<char,std::allocator<char> >::_String_val<char,std::allocator<char> >
_TEXT	ENDS
PUBLIC	??0?$_Vector_val@KV?$allocator@K@std@@@std@@QAE@V?$allocator@K@1@@Z ; std::_Vector_val<unsigned long,std::allocator<unsigned long> >::_Vector_val<unsigned long,std::allocator<unsigned long> >
; Function compile flags: /Ogsp
; File c:\program files (x86)\microsoft visual studio 10.0\vc\include\vector
;	COMDAT ??0?$_Vector_val@KV?$allocator@K@std@@@std@@QAE@V?$allocator@K@1@@Z
_TEXT	SEGMENT
__Al$ = 8						; size = 1
??0?$_Vector_val@KV?$allocator@K@std@@@std@@QAE@V?$allocator@K@1@@Z PROC ; std::_Vector_val<unsigned long,std::allocator<unsigned long> >::_Vector_val<unsigned long,std::allocator<unsigned long> >, COMDAT
; _this$ = ecx

; 426  : 		{	// construct allocator from _Al

  00000	8b c1		 mov	 eax, ecx

; 427  : 		_Myfirst = 0;

  00002	33 c9		 xor	 ecx, ecx
  00004	89 08		 mov	 DWORD PTR [eax], ecx

; 428  : 		_Mylast = 0;

  00006	89 48 04	 mov	 DWORD PTR [eax+4], ecx

; 429  : 		_Myend = 0;

  00009	89 48 08	 mov	 DWORD PTR [eax+8], ecx

; 430  : 		}

  0000c	c2 04 00	 ret	 4
??0?$_Vector_val@KV?$allocator@K@std@@@std@@QAE@V?$allocator@K@1@@Z ENDP ; std::_Vector_val<unsigned long,std::allocator<unsigned long> >::_Vector_val<unsigned long,std::allocator<unsigned long> >
_TEXT	ENDS
PUBLIC	?_Eos@?$basic_string@DU?$char_traits@D@std@@V?$allocator@D@2@@std@@QAEXI@Z ; std::basic_string<char,std::char_traits<char>,std::allocator<char> >::_Eos
; Function compile flags: /Ogsp
; File c:\program files (x86)\microsoft visual studio 10.0\vc\include\xstring
;	COMDAT ?_Eos@?$basic_string@DU?$char_traits@D@std@@V?$allocator@D@2@@std@@QAEXI@Z
_TEXT	SEGMENT
__Newsize$ = 8						; size = 4
?_Eos@?$basic_string@DU?$char_traits@D@std@@V?$allocator@D@2@@std@@QAEXI@Z PROC ; std::basic_string<char,std::char_traits<char>,std::allocator<char> >::_Eos, COMDAT
; _this$ = ecx

; 1953 : 		{	// set new length and null terminator

  00000	55		 push	 ebp
  00001	8b ec		 mov	 ebp, esp

; 1954 : 		_Traits::assign(_Myptr()[this->_Mysize = _Newsize], _Elem());

  00003	83 79 14 10	 cmp	 DWORD PTR [ecx+20], 16	; 00000010H
  00007	8b 45 08	 mov	 eax, DWORD PTR __Newsize$[ebp]
  0000a	89 41 10	 mov	 DWORD PTR [ecx+16], eax
  0000d	72 02		 jb	 SHORT $LN5@Eos
  0000f	8b 09		 mov	 ecx, DWORD PTR [ecx]
$LN5@Eos:
  00011	c6 04 01 00	 mov	 BYTE PTR [ecx+eax], 0

; 1955 : 		}

  00015	5d		 pop	 ebp
  00016	c2 04 00	 ret	 4
?_Eos@?$basic_string@DU?$char_traits@D@std@@V?$allocator@D@2@@std@@QAEXI@Z ENDP ; std::basic_string<char,std::char_traits<char>,std::allocator<char> >::_Eos
_TEXT	ENDS
PUBLIC	?max_size@?$vector@KV?$allocator@K@std@@@std@@QBEIXZ ; std::vector<unsigned long,std::allocator<unsigned long> >::max_size
; Function compile flags: /Ogsp
; File c:\program files (x86)\microsoft visual studio 10.0\vc\include\vector
;	COMDAT ?max_size@?$vector@KV?$allocator@K@std@@@std@@QBEIXZ
_TEXT	SEGMENT
?max_size@?$vector@KV?$allocator@K@std@@@std@@QBEIXZ PROC ; std::vector<unsigned long,std::allocator<unsigned long> >::max_size, COMDAT
; _this$ = ecx

; 884  : 		return (this->_Alval.max_size());

  00000	b8 ff ff ff 3f	 mov	 eax, 1073741823		; 3fffffffH

; 885  : 		}

  00005	c3		 ret	 0
?max_size@?$vector@KV?$allocator@K@std@@@std@@QBEIXZ ENDP ; std::vector<unsigned long,std::allocator<unsigned long> >::max_size
_TEXT	ENDS
PUBLIC	?_Grow_to@?$vector@KV?$allocator@K@std@@@std@@IBEII@Z ; std::vector<unsigned long,std::allocator<unsigned long> >::_Grow_to
; Function compile flags: /Ogsp
;	COMDAT ?_Grow_to@?$vector@KV?$allocator@K@std@@@std@@IBEII@Z
_TEXT	SEGMENT
__Count$ = 8						; size = 4
?_Grow_to@?$vector@KV?$allocator@K@std@@@std@@IBEII@Z PROC ; std::vector<unsigned long,std::allocator<unsigned long> >::_Grow_to, COMDAT
; _this$ = ecx

; 1274 : 		{	// grow by 50% or at least to _Count

  00000	55		 push	 ebp
  00001	8b ec		 mov	 ebp, esp

; 1275 : 		size_type _Capacity = capacity();

  00003	8b 41 08	 mov	 eax, DWORD PTR [ecx+8]
  00006	2b 01		 sub	 eax, DWORD PTR [ecx]

; 1276 : 
; 1277 : 		_Capacity = max_size() - _Capacity / 2 < _Capacity
; 1278 : 			? 0 : _Capacity + _Capacity / 2;	// try to grow by 50%

  00008	ba ff ff ff 3f	 mov	 edx, 1073741823		; 3fffffffH
  0000d	c1 f8 02	 sar	 eax, 2
  00010	8b c8		 mov	 ecx, eax
  00012	d1 e9		 shr	 ecx, 1
  00014	2b d1		 sub	 edx, ecx
  00016	3b d0		 cmp	 edx, eax
  00018	73 04		 jae	 SHORT $LN4@Grow_to@2
  0001a	33 c0		 xor	 eax, eax
  0001c	eb 02		 jmp	 SHORT $LN5@Grow_to@2
$LN4@Grow_to@2:
  0001e	03 c1		 add	 eax, ecx
$LN5@Grow_to@2:

; 1279 : 		if (_Capacity < _Count)

  00020	3b 45 08	 cmp	 eax, DWORD PTR __Count$[ebp]

; 1280 : 			_Capacity = _Count;

  00023	0f 42 45 08	 cmovb	 eax, DWORD PTR __Count$[ebp]

; 1281 : 		return (_Capacity);
; 1282 : 		}

  00027	5d		 pop	 ebp
  00028	c2 04 00	 ret	 4
?_Grow_to@?$vector@KV?$allocator@K@std@@@std@@IBEII@Z ENDP ; std::vector<unsigned long,std::allocator<unsigned long> >::_Grow_to
_TEXT	ENDS
PUBLIC	??0?$_Vector_iterator@V?$_Vector_val@KV?$allocator@K@std@@@std@@@std@@QAE@PAKPBU_Container_base0@1@@Z ; std::_Vector_iterator<std::_Vector_val<unsigned long,std::allocator<unsigned long> > >::_Vector_iterator<std::_Vector_val<unsigned long,std::allocator<unsigned long> > >
; Function compile flags: /Ogsp
;	COMDAT ??0?$_Vector_iterator@V?$_Vector_val@KV?$allocator@K@std@@@std@@@std@@QAE@PAKPBU_Container_base0@1@@Z
_TEXT	SEGMENT
__Parg$ = 8						; size = 4
__Pvector$ = 12						; size = 4
??0?$_Vector_iterator@V?$_Vector_val@KV?$allocator@K@std@@@std@@@std@@QAE@PAKPBU_Container_base0@1@@Z PROC ; std::_Vector_iterator<std::_Vector_val<unsigned long,std::allocator<unsigned long> > >::_Vector_iterator<std::_Vector_val<unsigned long,std::allocator<unsigned long> > >, COMDAT
; _this$ = ecx

; 304  : 		{	// construct with pointer _Parg

  00000	55		 push	 ebp
  00001	8b ec		 mov	 ebp, esp
  00003	8b c1		 mov	 eax, ecx
  00005	8b 4d 08	 mov	 ecx, DWORD PTR __Parg$[ebp]
  00008	89 08		 mov	 DWORD PTR [eax], ecx

; 305  : 		}

  0000a	5d		 pop	 ebp
  0000b	c2 08 00	 ret	 8
??0?$_Vector_iterator@V?$_Vector_val@KV?$allocator@K@std@@@std@@@std@@QAE@PAKPBU_Container_base0@1@@Z ENDP ; std::_Vector_iterator<std::_Vector_val<unsigned long,std::allocator<unsigned long> > >::_Vector_iterator<std::_Vector_val<unsigned long,std::allocator<unsigned long> > >
_TEXT	ENDS
PUBLIC	?max_size@?$basic_string@DU?$char_traits@D@std@@V?$allocator@D@2@@std@@QBEIXZ ; std::basic_string<char,std::char_traits<char>,std::allocator<char> >::max_size
; Function compile flags: /Ogsp
; File c:\program files (x86)\microsoft visual studio 10.0\vc\include\xstring
;	COMDAT ?max_size@?$basic_string@DU?$char_traits@D@std@@V?$allocator@D@2@@std@@QBEIXZ
_TEXT	SEGMENT
?max_size@?$basic_string@DU?$char_traits@D@std@@V?$allocator@D@2@@std@@QBEIXZ PROC ; std::basic_string<char,std::char_traits<char>,std::allocator<char> >::max_size, COMDAT
; _this$ = ecx

; 1517 : 		size_type _Num = this->_Alval.max_size();
; 1518 : 		return (_Num <= 1 ? 1 : _Num - 1);

  00000	6a fe		 push	 -2			; fffffffeH
  00002	58		 pop	 eax

; 1519 : 		}

  00003	c3		 ret	 0
?max_size@?$basic_string@DU?$char_traits@D@std@@V?$allocator@D@2@@std@@QBEIXZ ENDP ; std::basic_string<char,std::char_traits<char>,std::allocator<char> >::max_size
_TEXT	ENDS
PUBLIC	?allocate@?$allocator@K@std@@QAEPAKI@Z		; std::allocator<unsigned long>::allocate
; Function compile flags: /Ogsp
; File c:\program files (x86)\microsoft visual studio 10.0\vc\include\xmemory
;	COMDAT ?allocate@?$allocator@K@std@@QAEPAKI@Z
_TEXT	SEGMENT
__Count$ = 8						; size = 4
?allocate@?$allocator@K@std@@QAEPAKI@Z PROC		; std::allocator<unsigned long>::allocate, COMDAT
; _this$ = ecx

; 186  : 		{	// allocate array of _Count elements

  00000	55		 push	 ebp
  00001	8b ec		 mov	 ebp, esp

; 187  : 		return (_Allocate(_Count, (pointer)0));

  00003	6a 00		 push	 0
  00005	ff 75 08	 push	 DWORD PTR __Count$[ebp]
  00008	e8 00 00 00 00	 call	 ??$_Allocate@K@std@@YAPAKIPAK@Z ; std::_Allocate<unsigned long>
  0000d	59		 pop	 ecx
  0000e	59		 pop	 ecx

; 188  : 		}

  0000f	5d		 pop	 ebp
  00010	c2 04 00	 ret	 4
?allocate@?$allocator@K@std@@QAEPAKI@Z ENDP		; std::allocator<unsigned long>::allocate
_TEXT	ENDS
PUBLIC	??8?$_Vector_const_iterator@V?$_Vector_val@KV?$allocator@K@std@@@std@@@std@@QBE_NABV01@@Z ; std::_Vector_const_iterator<std::_Vector_val<unsigned long,std::allocator<unsigned long> > >::operator==
; Function compile flags: /Ogsp
; File c:\program files (x86)\microsoft visual studio 10.0\vc\include\vector
;	COMDAT ??8?$_Vector_const_iterator@V?$_Vector_val@KV?$allocator@K@std@@@std@@@std@@QBE_NABV01@@Z
_TEXT	SEGMENT
__Right$ = 8						; size = 4
??8?$_Vector_const_iterator@V?$_Vector_val@KV?$allocator@K@std@@@std@@@std@@QBE_NABV01@@Z PROC ; std::_Vector_const_iterator<std::_Vector_val<unsigned long,std::allocator<unsigned long> > >::operator==, COMDAT
; _this$ = ecx

; 201  : 		{	// test for iterator equality

  00000	55		 push	 ebp
  00001	8b ec		 mov	 ebp, esp

; 202  : 		_Compat(_Right);
; 203  : 		return (this->_Ptr == _Right._Ptr);

  00003	8b 01		 mov	 eax, DWORD PTR [ecx]
  00005	8b 4d 08	 mov	 ecx, DWORD PTR __Right$[ebp]
  00008	2b 01		 sub	 eax, DWORD PTR [ecx]
  0000a	f7 d8		 neg	 eax
  0000c	1b c0		 sbb	 eax, eax
  0000e	40		 inc	 eax

; 204  : 		}

  0000f	5d		 pop	 ebp
  00010	c2 04 00	 ret	 4
??8?$_Vector_const_iterator@V?$_Vector_val@KV?$allocator@K@std@@@std@@@std@@QBE_NABV01@@Z ENDP ; std::_Vector_const_iterator<std::_Vector_val<unsigned long,std::allocator<unsigned long> > >::operator==
_TEXT	ENDS
PUBLIC	?allocate@?$allocator@D@std@@QAEPADI@Z		; std::allocator<char>::allocate
; Function compile flags: /Ogsp
; File c:\program files (x86)\microsoft visual studio 10.0\vc\include\xmemory
;	COMDAT ?allocate@?$allocator@D@std@@QAEPADI@Z
_TEXT	SEGMENT
__Count$ = 8						; size = 4
?allocate@?$allocator@D@std@@QAEPADI@Z PROC		; std::allocator<char>::allocate, COMDAT
; _this$ = ecx

; 186  : 		{	// allocate array of _Count elements

  00000	55		 push	 ebp
  00001	8b ec		 mov	 ebp, esp

; 187  : 		return (_Allocate(_Count, (pointer)0));

  00003	6a 00		 push	 0
  00005	ff 75 08	 push	 DWORD PTR __Count$[ebp]
  00008	e8 00 00 00 00	 call	 ??$_Allocate@D@std@@YAPADIPAD@Z ; std::_Allocate<char>
  0000d	59		 pop	 ecx
  0000e	59		 pop	 ecx

; 188  : 		}

  0000f	5d		 pop	 ebp
  00010	c2 04 00	 ret	 4
?allocate@?$allocator@D@std@@QAEPADI@Z ENDP		; std::allocator<char>::allocate
_TEXT	ENDS
PUBLIC	??$_Cons_val@V?$allocator@K@std@@KAAK@std@@YAXAAV?$allocator@K@0@PAKAAK@Z ; std::_Cons_val<std::allocator<unsigned long>,unsigned long,unsigned long &>
; Function compile flags: /Ogsp
;	COMDAT ??$_Cons_val@V?$allocator@K@std@@KAAK@std@@YAXAAV?$allocator@K@0@PAKAAK@Z
_TEXT	SEGMENT
__Alval$ = 8						; size = 4
__Pdest$ = 12						; size = 4
__Src$ = 16						; size = 4
??$_Cons_val@V?$allocator@K@std@@KAAK@std@@YAXAAV?$allocator@K@0@PAKAAK@Z PROC ; std::_Cons_val<std::allocator<unsigned long>,unsigned long,unsigned long &>, COMDAT

; 279  : 	{	// construct using allocator

  00000	55		 push	 ebp
  00001	8b ec		 mov	 ebp, esp

; 280  : 	_Alval.construct(_Pdest, _STD forward<_Ty2>(_Src));

  00003	8b 45 0c	 mov	 eax, DWORD PTR __Pdest$[ebp]
  00006	85 c0		 test	 eax, eax
  00008	74 07		 je	 SHORT $LN7@Cons_val@2
  0000a	8b 4d 10	 mov	 ecx, DWORD PTR __Src$[ebp]
  0000d	8b 09		 mov	 ecx, DWORD PTR [ecx]
  0000f	89 08		 mov	 DWORD PTR [eax], ecx
$LN7@Cons_val@2:

; 281  : 	}

  00011	5d		 pop	 ebp
  00012	c3		 ret	 0
??$_Cons_val@V?$allocator@K@std@@KAAK@std@@YAXAAV?$allocator@K@0@PAKAAK@Z ENDP ; std::_Cons_val<std::allocator<unsigned long>,unsigned long,unsigned long &>
_TEXT	ENDS
PUBLIC	??$?9DD@std@@YA_NABV?$allocator@D@0@0@Z		; std::operator!=<char,char>
; Function compile flags: /Ogsp
;	COMDAT ??$?9DD@std@@YA_NABV?$allocator@D@0@0@Z
_TEXT	SEGMENT
__Left$ = 8						; size = 4
__Right$ = 12						; size = 4
??$?9DD@std@@YA_NABV?$allocator@D@0@0@Z PROC		; std::operator!=<char,char>, COMDAT

; 271  : 	return (!(_Left == _Right));

  00000	32 c0		 xor	 al, al

; 272  : 	}

  00002	c3		 ret	 0
??$?9DD@std@@YA_NABV?$allocator@D@0@0@Z ENDP		; std::operator!=<char,char>
_TEXT	ENDS
PUBLIC	??$_Move@PAKPAK@std@@YAPAKPAK00@Z		; std::_Move<unsigned long *,unsigned long *>
; Function compile flags: /Ogsp
; File c:\program files (x86)\microsoft visual studio 10.0\vc\include\xutility
;	COMDAT ??$_Move@PAKPAK@std@@YAPAKPAK00@Z
_TEXT	SEGMENT
__Cat$511012 = -4					; size = 1
__First$ = 8						; size = 4
__Last$ = 12						; size = 4
__Dest$ = 16						; size = 4
??$_Move@PAKPAK@std@@YAPAKPAK00@Z PROC			; std::_Move<unsigned long *,unsigned long *>, COMDAT

; 2533 : 	{	// move [_First, _Last) to [_Dest, ...), unchecked

  00000	55		 push	 ebp
  00001	8b ec		 mov	 ebp, esp
  00003	51		 push	 ecx

; 2534 : 	return (_Move(_First, _Last,
; 2535 : 		_Dest, _Ptr_cat(_First, _Dest)));

  00004	ff 75 fc	 push	 DWORD PTR __Cat$511012[ebp]
  00007	ff 75 10	 push	 DWORD PTR __Dest$[ebp]
  0000a	ff 75 0c	 push	 DWORD PTR __Last$[ebp]
  0000d	ff 75 08	 push	 DWORD PTR __First$[ebp]
  00010	e8 00 00 00 00	 call	 ??$_Move@PAKPAK@std@@YAPAKPAK00U_Scalar_ptr_iterator_tag@0@@Z ; std::_Move<unsigned long *,unsigned long *>
  00015	83 c4 10	 add	 esp, 16			; 00000010H

; 2536 : 	}

  00018	c9		 leave
  00019	c3		 ret	 0
??$_Move@PAKPAK@std@@YAPAKPAK00@Z ENDP			; std::_Move<unsigned long *,unsigned long *>
_TEXT	ENDS
PUBLIC	??$_Destroy_range@V?$allocator@K@std@@@std@@YAXPAK0AAV?$allocator@K@0@@Z ; std::_Destroy_range<std::allocator<unsigned long> >
; Function compile flags: /Ogsp
; File c:\program files (x86)\microsoft visual studio 10.0\vc\include\xmemory
;	COMDAT ??$_Destroy_range@V?$allocator@K@std@@@std@@YAXPAK0AAV?$allocator@K@0@@Z
_TEXT	SEGMENT
__First$ = 8						; size = 4
__Last$ = 12						; size = 4
__Al$ = 16						; size = 4
??$_Destroy_range@V?$allocator@K@std@@@std@@YAXPAK0AAV?$allocator@K@0@@Z PROC ; std::_Destroy_range<std::allocator<unsigned long> >, COMDAT

; 88   : 	_Destroy_range(_First, _Last, _Al, _Ptr_cat(_First, _Last));
; 89   : 	}

  00000	c3		 ret	 0
??$_Destroy_range@V?$allocator@K@std@@@std@@YAXPAK0AAV?$allocator@K@0@@Z ENDP ; std::_Destroy_range<std::allocator<unsigned long> >
_TEXT	ENDS
PUBLIC	?construct@?$allocator@K@std@@QAEXPAKABK@Z	; std::allocator<unsigned long>::construct
; Function compile flags: /Ogsp
;	COMDAT ?construct@?$allocator@K@std@@QAEXPAKABK@Z
_TEXT	SEGMENT
__Ptr$ = 8						; size = 4
__Val$ = 12						; size = 4
?construct@?$allocator@K@std@@QAEXPAKABK@Z PROC		; std::allocator<unsigned long>::construct, COMDAT
; _this$ = ecx

; 196  : 		{	// construct object at _Ptr with value _Val

  00000	55		 push	 ebp
  00001	8b ec		 mov	 ebp, esp

; 197  : 		_Construct(_Ptr, _Val);

  00003	8b 45 08	 mov	 eax, DWORD PTR __Ptr$[ebp]
  00006	85 c0		 test	 eax, eax
  00008	74 07		 je	 SHORT $LN5@construct@3
  0000a	8b 4d 0c	 mov	 ecx, DWORD PTR __Val$[ebp]
  0000d	8b 09		 mov	 ecx, DWORD PTR [ecx]
  0000f	89 08		 mov	 DWORD PTR [eax], ecx
$LN5@construct@3:

; 198  : 		}

  00011	5d		 pop	 ebp
  00012	c2 08 00	 ret	 8
?construct@?$allocator@K@std@@QAEXPAKABK@Z ENDP		; std::allocator<unsigned long>::construct
_TEXT	ENDS
PUBLIC	??$_Uninitialized_move@PAKPAKV?$allocator@K@std@@@std@@YAPAKPAK00AAV?$allocator@K@0@@Z ; std::_Uninitialized_move<unsigned long *,unsigned long *,std::allocator<unsigned long> >
; Function compile flags: /Ogsp
; File c:\program files (x86)\microsoft visual studio 10.0\vc\include\memory
;	COMDAT ??$_Uninitialized_move@PAKPAKV?$allocator@K@std@@@std@@YAPAKPAK00AAV?$allocator@K@0@@Z
_TEXT	SEGMENT
__First$ = 8						; size = 4
__Last$ = 12						; size = 4
__Dest$ = 16						; size = 4
__Al$ = 20						; size = 4
??$_Uninitialized_move@PAKPAKV?$allocator@K@std@@@std@@YAPAKPAK00AAV?$allocator@K@0@@Z PROC ; std::_Uninitialized_move<unsigned long *,unsigned long *,std::allocator<unsigned long> >, COMDAT

; 469  : 	{	// move [_First, _Last) to raw _Dest, using _Al

  00000	55		 push	 ebp
  00001	8b ec		 mov	 ebp, esp
  00003	56		 push	 esi

; 470  : 	return (_Uninit_move(_First, _Last, _Dest, _Al,
; 471  : 		_Val_type(_First), _Ptr_cat(_First, _Dest)));

  00004	8b 75 0c	 mov	 esi, DWORD PTR __Last$[ebp]
  00007	2b 75 08	 sub	 esi, DWORD PTR __First$[ebp]
  0000a	c1 fe 02	 sar	 esi, 2
  0000d	c1 e6 02	 shl	 esi, 2
  00010	56		 push	 esi
  00011	ff 75 08	 push	 DWORD PTR __First$[ebp]
  00014	ff 75 10	 push	 DWORD PTR __Dest$[ebp]
  00017	ff 15 00 00 00
	00		 call	 DWORD PTR __imp__memmove
  0001d	83 c4 0c	 add	 esp, 12			; 0000000cH
  00020	03 c6		 add	 eax, esi
  00022	5e		 pop	 esi

; 472  : 	}

  00023	5d		 pop	 ebp
  00024	c3		 ret	 0
??$_Uninitialized_move@PAKPAKV?$allocator@K@std@@@std@@YAPAKPAK00AAV?$allocator@K@0@@Z ENDP ; std::_Uninitialized_move<unsigned long *,unsigned long *,std::allocator<unsigned long> >
_TEXT	ENDS
PUBLIC	??_C@_0BP@JOABIBHL@ServiceCharWnd?3?3UpdateCharInfo?$AA@ ; `string'
PUBLIC	??_C@_00CNPNBAHC@?$AA@				; `string'
PUBLIC	?UpdateCharInfo@ServiceCharWnd@@IAEXW4RaceDetailType@@@Z ; ServiceCharWnd::UpdateCharInfo
EXTRN	?GetNumUnderwearParts@RaceSetting@@YAHXZ:PROC	; RaceSetting::GetNumUnderwearParts
EXTRN	?GetNumAccessoryParts@RaceSetting@@YAHXZ:PROC	; RaceSetting::GetNumAccessoryParts
EXTRN	?GetNumSkinColor@RaceSetting@@YAHXZ:PROC	; RaceSetting::GetNumSkinColor
EXTRN	?GetNumHairColor@RaceSetting@@YAHH@Z:PROC	; RaceSetting::GetNumHairColor
EXTRN	?GetNumHairParts@RaceSetting@@YAHXZ:PROC	; RaceSetting::GetNumHairParts
EXTRN	?GetNumFaceParts@RaceSetting@@YAHXZ:PROC	; RaceSetting::GetNumFaceParts
EXTRN	?GetNumBeardParts@RaceSetting@@YAHXZ:PROC	; RaceSetting::GetNumBeardParts
EXTRN	?SetCurRaceDetail@RaceSetting@@YAXABUCHARACTER@@@Z:PROC ; RaceSetting::SetCurRaceDetail
EXTRN	__imp_??4ioHashString@@QAEAAV0@PBD@Z:PROC
EXTRN	__imp_?GetString@ioStringManager@@QAEPADPBD0HW4FileNamePrefix@1@@Z:PROC
EXTRN	__imp_?GetSingleton@ioStringManager@@SAAAV1@XZ:PROC
;	COMDAT ??_C@_0BP@JOABIBHL@ServiceCharWnd?3?3UpdateCharInfo?$AA@
; File d:\lost saga for developer\youtube\tutorial\source\src\lsclient\encryptvalue.h
CONST	SEGMENT
??_C@_0BP@JOABIBHL@ServiceCharWnd?3?3UpdateCharInfo?$AA@ DB 'ServiceCharW'
	DB	'nd::UpdateCharInfo', 00H			; `string'
CONST	ENDS
;	COMDAT ??_C@_00CNPNBAHC@?$AA@
CONST	SEGMENT
??_C@_00CNPNBAHC@?$AA@ DB 00H				; `string'
; Function compile flags: /Ogsp
; File d:\lost saga for developer\youtube\tutorial\source\src\lsclient\gui\servicecharwnd.cpp
CONST	ENDS
;	COMDAT ?UpdateCharInfo@ServiceCharWnd@@IAEXW4RaceDetailType@@@Z
_TEXT	SEGMENT
_value$511150 = -4					; size = 4
_value$511185 = 8					; size = 4
_value$511180 = 8					; size = 4
_value$511175 = 8					; size = 4
_value$511170 = 8					; size = 4
_value$511165 = 8					; size = 4
_value$511160 = 8					; size = 4
_value$511155 = 8					; size = 4
_value$511145 = 8					; size = 4
_value$511140 = 8					; size = 4
_value$511135 = 8					; size = 4
_value$511130 = 8					; size = 4
_value$511125 = 8					; size = 4
_value$511120 = 8					; size = 4
_value$511111 = 8					; size = 4
_value$511107 = 8					; size = 4
_value$511103 = 8					; size = 4
_value$511099 = 8					; size = 4
_value$511095 = 8					; size = 4
_value$511091 = 8					; size = 4
_value$511087 = 8					; size = 4
_value$511083 = 8					; size = 4
_value$511079 = 8					; size = 4
_value$511075 = 8					; size = 4
_value$511071 = 8					; size = 4
_value$511067 = 8					; size = 4
_value$511115 = 8					; size = 4
_eDetail$ = 8						; size = 4
?UpdateCharInfo@ServiceCharWnd@@IAEXW4RaceDetailType@@@Z PROC ; ServiceCharWnd::UpdateCharInfo, COMDAT
; _this$ = ecx

; 192  : {

  00000	55		 push	 ebp
  00001	8b ec		 mov	 ebp, esp
  00003	51		 push	 ecx

; 193  : 	switch( eDetail )

  00004	8b 45 08	 mov	 eax, DWORD PTR _eDetail$[ebp]
  00007	53		 push	 ebx
  00008	56		 push	 esi
  00009	57		 push	 edi
  0000a	33 db		 xor	 ebx, ebx
  0000c	2b c3		 sub	 eax, ebx
  0000e	6a 01		 push	 1
  00010	8b f1		 mov	 esi, ecx
  00012	5f		 pop	 edi
  00013	0f 84 05 01 00
	00		 je	 $LN6@UpdateChar
  00019	48		 dec	 eax
  0001a	0f 84 d2 00 00
	00		 je	 $LN5@UpdateChar
  00020	48		 dec	 eax
  00021	0f 84 9e 00 00
	00		 je	 $LN4@UpdateChar
  00027	48		 dec	 eax
  00028	74 6e		 je	 SHORT $LN3@UpdateChar
  0002a	48		 dec	 eax
  0002b	74 3b		 je	 SHORT $LN2@UpdateChar
  0002d	48		 dec	 eax
  0002e	0f 85 35 01 00
	00		 jne	 $LN7@UpdateChar

; 220  : 	case RDT_DWARF_WOMAN:
; 221  : 		m_CharInfo.m_kindred = 3;

  00034	8d 45 08	 lea	 eax, DWORD PTR _value$511107[ebp]
  00037	50		 push	 eax
  00038	8d 8e ec 01 00
	00		 lea	 ecx, DWORD PTR [esi+492]
  0003e	c7 45 08 03 00
	00 00		 mov	 DWORD PTR _value$511107[ebp], 3
  00045	e8 00 00 00 00	 call	 ?EncryptValueToPool@?$CEncrypt@H@@AAEXPBD@Z ; CEncrypt<int>::EncryptValueToPool

; 222  : 		m_CharInfo.m_sex = 2;

  0004a	8d 45 08	 lea	 eax, DWORD PTR _value$511111[ebp]
  0004d	50		 push	 eax
  0004e	8d 8e 1c 02 00
	00		 lea	 ecx, DWORD PTR [esi+540]
  00054	c7 45 08 02 00
	00 00		 mov	 DWORD PTR _value$511111[ebp], 2
  0005b	e8 00 00 00 00	 call	 ?EncryptValueToPool@?$CEncrypt@H@@AAEXPBD@Z ; CEncrypt<int>::EncryptValueToPool

; 223  : 		m_szKindredName = STR(6);

  00060	53		 push	 ebx
  00061	6a 06		 push	 6

; 224  : 		break;

  00063	e9 dc 00 00 00	 jmp	 $LN65@UpdateChar
$LN2@UpdateChar:

; 215  : 	case RDT_DWARF_MAN:
; 216  : 		m_CharInfo.m_kindred = 3;

  00068	8d 45 08	 lea	 eax, DWORD PTR _value$511099[ebp]
  0006b	50		 push	 eax
  0006c	8d 8e ec 01 00
	00		 lea	 ecx, DWORD PTR [esi+492]
  00072	c7 45 08 03 00
	00 00		 mov	 DWORD PTR _value$511099[ebp], 3
  00079	e8 00 00 00 00	 call	 ?EncryptValueToPool@?$CEncrypt@H@@AAEXPBD@Z ; CEncrypt<int>::EncryptValueToPool

; 217  : 		m_CharInfo.m_sex = 1;

  0007e	8d 45 08	 lea	 eax, DWORD PTR _value$511103[ebp]
  00081	50		 push	 eax
  00082	8d 8e 1c 02 00
	00		 lea	 ecx, DWORD PTR [esi+540]
  00088	89 7d 08	 mov	 DWORD PTR _value$511103[ebp], edi
  0008b	e8 00 00 00 00	 call	 ?EncryptValueToPool@?$CEncrypt@H@@AAEXPBD@Z ; CEncrypt<int>::EncryptValueToPool

; 218  : 		m_szKindredName = STR(5);

  00090	53		 push	 ebx
  00091	6a 05		 push	 5

; 219  : 		break;

  00093	e9 ac 00 00 00	 jmp	 $LN65@UpdateChar
$LN3@UpdateChar:

; 210  : 	case RDT_ELF_WOMAN:
; 211  : 		m_CharInfo.m_kindred = 2;

  00098	6a 02		 push	 2
  0009a	5b		 pop	 ebx
  0009b	8d 45 08	 lea	 eax, DWORD PTR _value$511091[ebp]
  0009e	50		 push	 eax
  0009f	8d 8e ec 01 00
	00		 lea	 ecx, DWORD PTR [esi+492]
  000a5	89 5d 08	 mov	 DWORD PTR _value$511091[ebp], ebx
  000a8	e8 00 00 00 00	 call	 ?EncryptValueToPool@?$CEncrypt@H@@AAEXPBD@Z ; CEncrypt<int>::EncryptValueToPool

; 212  : 		m_CharInfo.m_sex = 2;

  000ad	8d 45 08	 lea	 eax, DWORD PTR _value$511095[ebp]
  000b0	50		 push	 eax
  000b1	8d 8e 1c 02 00
	00		 lea	 ecx, DWORD PTR [esi+540]
  000b7	89 5d 08	 mov	 DWORD PTR _value$511095[ebp], ebx
  000ba	e8 00 00 00 00	 call	 ?EncryptValueToPool@?$CEncrypt@H@@AAEXPBD@Z ; CEncrypt<int>::EncryptValueToPool

; 213  : 		m_szKindredName = STR(4);

  000bf	6a 00		 push	 0
  000c1	6a 04		 push	 4

; 214  : 		break;

  000c3	eb 7f		 jmp	 SHORT $LN65@UpdateChar
$LN4@UpdateChar:

; 205  : 	case RDT_ELF_MAN:
; 206  : 		m_CharInfo.m_kindred = 2;

  000c5	8d 45 08	 lea	 eax, DWORD PTR _value$511083[ebp]
  000c8	50		 push	 eax
  000c9	8d 8e ec 01 00
	00		 lea	 ecx, DWORD PTR [esi+492]
  000cf	c7 45 08 02 00
	00 00		 mov	 DWORD PTR _value$511083[ebp], 2
  000d6	e8 00 00 00 00	 call	 ?EncryptValueToPool@?$CEncrypt@H@@AAEXPBD@Z ; CEncrypt<int>::EncryptValueToPool

; 207  : 		m_CharInfo.m_sex = 1;

  000db	8d 45 08	 lea	 eax, DWORD PTR _value$511087[ebp]
  000de	50		 push	 eax
  000df	8d 8e 1c 02 00
	00		 lea	 ecx, DWORD PTR [esi+540]
  000e5	89 7d 08	 mov	 DWORD PTR _value$511087[ebp], edi
  000e8	e8 00 00 00 00	 call	 ?EncryptValueToPool@?$CEncrypt@H@@AAEXPBD@Z ; CEncrypt<int>::EncryptValueToPool

; 208  : 		m_szKindredName = STR(3);

  000ed	53		 push	 ebx
  000ee	6a 03		 push	 3

; 209  : 		break;

  000f0	eb 52		 jmp	 SHORT $LN65@UpdateChar
$LN5@UpdateChar:

; 199  : 		break;
; 200  : 	case RDT_HUMAN_WOMAN:
; 201  : 		m_CharInfo.m_kindred = 1;

  000f2	8d 45 08	 lea	 eax, DWORD PTR _value$511075[ebp]
  000f5	50		 push	 eax
  000f6	8d 8e ec 01 00
	00		 lea	 ecx, DWORD PTR [esi+492]
  000fc	89 7d 08	 mov	 DWORD PTR _value$511075[ebp], edi
  000ff	e8 00 00 00 00	 call	 ?EncryptValueToPool@?$CEncrypt@H@@AAEXPBD@Z ; CEncrypt<int>::EncryptValueToPool

; 202  : 		m_CharInfo.m_sex = 2;

  00104	6a 02		 push	 2
  00106	5b		 pop	 ebx
  00107	8d 45 08	 lea	 eax, DWORD PTR _value$511079[ebp]
  0010a	50		 push	 eax
  0010b	8d 8e 1c 02 00
	00		 lea	 ecx, DWORD PTR [esi+540]
  00111	89 5d 08	 mov	 DWORD PTR _value$511079[ebp], ebx
  00114	e8 00 00 00 00	 call	 ?EncryptValueToPool@?$CEncrypt@H@@AAEXPBD@Z ; CEncrypt<int>::EncryptValueToPool

; 203  : 		m_szKindredName = STR(2);

  00119	6a 00		 push	 0
  0011b	53		 push	 ebx

; 204  : 		break;

  0011c	eb 26		 jmp	 SHORT $LN65@UpdateChar
$LN6@UpdateChar:

; 194  : 	{
; 195  : 	case RDT_HUMAN_MAN:
; 196  : 		m_CharInfo.m_kindred = 1;

  0011e	8d 45 08	 lea	 eax, DWORD PTR _value$511067[ebp]
  00121	50		 push	 eax
  00122	8d 8e ec 01 00
	00		 lea	 ecx, DWORD PTR [esi+492]
  00128	89 7d 08	 mov	 DWORD PTR _value$511067[ebp], edi
  0012b	e8 00 00 00 00	 call	 ?EncryptValueToPool@?$CEncrypt@H@@AAEXPBD@Z ; CEncrypt<int>::EncryptValueToPool

; 197  : 		m_CharInfo.m_sex = 1;

  00130	8d 45 08	 lea	 eax, DWORD PTR _value$511071[ebp]
  00133	50		 push	 eax
  00134	8d 8e 1c 02 00
	00		 lea	 ecx, DWORD PTR [esi+540]
  0013a	89 7d 08	 mov	 DWORD PTR _value$511071[ebp], edi
  0013d	e8 00 00 00 00	 call	 ?EncryptValueToPool@?$CEncrypt@H@@AAEXPBD@Z ; CEncrypt<int>::EncryptValueToPool

; 198  : 		m_szKindredName = STR(1);

  00142	53		 push	 ebx
  00143	57		 push	 edi
$LN65@UpdateChar:
  00144	68 00 00 00 00	 push	 OFFSET ??_C@_00CNPNBAHC@?$AA@
  00149	68 00 00 00 00	 push	 OFFSET ??_C@_0BP@JOABIBHL@ServiceCharWnd?3?3UpdateCharInfo?$AA@
  0014e	ff 15 00 00 00
	00		 call	 DWORD PTR __imp_?GetSingleton@ioStringManager@@SAAAV1@XZ
  00154	8b c8		 mov	 ecx, eax
  00156	ff 15 00 00 00
	00		 call	 DWORD PTR __imp_?GetString@ioStringManager@@QAEPADPBD0HW4FileNamePrefix@1@@Z
  0015c	50		 push	 eax
  0015d	8d 8e f0 04 00
	00		 lea	 ecx, DWORD PTR [esi+1264]
  00163	ff 15 00 00 00
	00		 call	 DWORD PTR __imp_??4ioHashString@@QAEAAV0@PBD@Z
$LN7@UpdateChar:

; 225  : 	}
; 226  : 
; 227  : 	RaceSetting::SetCurRaceDetail( m_CharInfo );	

  00169	8d 86 bc 01 00
	00		 lea	 eax, DWORD PTR [esi+444]
  0016f	50		 push	 eax
  00170	e8 00 00 00 00	 call	 ?SetCurRaceDetail@RaceSetting@@YAXABUCHARACTER@@@Z ; RaceSetting::SetCurRaceDetail
  00175	59		 pop	 ecx

; 228  : 	m_CharInfo.m_beard	= RotateNum( m_CharInfo.m_beard, 1, RaceSetting::GetNumBeardParts() - 1 );

  00176	8d 45 08	 lea	 eax, DWORD PTR _value$511115[ebp]
  00179	50		 push	 eax
  0017a	8d 8e 4c 02 00
	00		 lea	 ecx, DWORD PTR [esi+588]
  00180	e8 00 00 00 00	 call	 ?DecryptValueToPool@?$CEncrypt@H@@QAEXPAH@Z ; CEncrypt<int>::DecryptValueToPool
  00185	e8 00 00 00 00	 call	 ?GetNumBeardParts@RaceSetting@@YAHXZ ; RaceSetting::GetNumBeardParts
  0018a	48		 dec	 eax
  0018b	50		 push	 eax
  0018c	57		 push	 edi
  0018d	ff 75 08	 push	 DWORD PTR _value$511115[ebp]
  00190	8b ce		 mov	 ecx, esi
  00192	e8 00 00 00 00	 call	 ?RotateNum@ServiceCharWnd@@IAEHHHH@Z ; ServiceCharWnd::RotateNum
  00197	89 45 08	 mov	 DWORD PTR _value$511120[ebp], eax
  0019a	8d 45 08	 lea	 eax, DWORD PTR _value$511120[ebp]
  0019d	50		 push	 eax
  0019e	8d 8e 4c 02 00
	00		 lea	 ecx, DWORD PTR [esi+588]
  001a4	e8 00 00 00 00	 call	 ?EncryptValueToPool@?$CEncrypt@H@@AAEXPBD@Z ; CEncrypt<int>::EncryptValueToPool

; 229  : 	m_CharInfo.m_face	= RotateNum( m_CharInfo.m_face, 1, RaceSetting::GetNumFaceParts() - 1 );

  001a9	8d 45 08	 lea	 eax, DWORD PTR _value$511125[ebp]
  001ac	50		 push	 eax
  001ad	8d 8e 7c 02 00
	00		 lea	 ecx, DWORD PTR [esi+636]
  001b3	e8 00 00 00 00	 call	 ?DecryptValueToPool@?$CEncrypt@H@@QAEXPAH@Z ; CEncrypt<int>::DecryptValueToPool
  001b8	e8 00 00 00 00	 call	 ?GetNumFaceParts@RaceSetting@@YAHXZ ; RaceSetting::GetNumFaceParts
  001bd	48		 dec	 eax
  001be	50		 push	 eax
  001bf	57		 push	 edi
  001c0	ff 75 08	 push	 DWORD PTR _value$511125[ebp]
  001c3	8b ce		 mov	 ecx, esi
  001c5	e8 00 00 00 00	 call	 ?RotateNum@ServiceCharWnd@@IAEHHHH@Z ; ServiceCharWnd::RotateNum
  001ca	89 45 08	 mov	 DWORD PTR _value$511130[ebp], eax
  001cd	8d 45 08	 lea	 eax, DWORD PTR _value$511130[ebp]
  001d0	50		 push	 eax
  001d1	8d 8e 7c 02 00
	00		 lea	 ecx, DWORD PTR [esi+636]
  001d7	e8 00 00 00 00	 call	 ?EncryptValueToPool@?$CEncrypt@H@@AAEXPBD@Z ; CEncrypt<int>::EncryptValueToPool

; 230  : 	m_CharInfo.m_hair	= RotateNum( m_CharInfo.m_hair, 1, RaceSetting::GetNumHairParts() - 1 );

  001dc	8d 45 08	 lea	 eax, DWORD PTR _value$511135[ebp]
  001df	50		 push	 eax
  001e0	8d 8e ac 02 00
	00		 lea	 ecx, DWORD PTR [esi+684]
  001e6	e8 00 00 00 00	 call	 ?DecryptValueToPool@?$CEncrypt@H@@QAEXPAH@Z ; CEncrypt<int>::DecryptValueToPool
  001eb	e8 00 00 00 00	 call	 ?GetNumHairParts@RaceSetting@@YAHXZ ; RaceSetting::GetNumHairParts
  001f0	48		 dec	 eax
  001f1	50		 push	 eax
  001f2	57		 push	 edi
  001f3	ff 75 08	 push	 DWORD PTR _value$511135[ebp]
  001f6	8b ce		 mov	 ecx, esi
  001f8	e8 00 00 00 00	 call	 ?RotateNum@ServiceCharWnd@@IAEHHHH@Z ; ServiceCharWnd::RotateNum
  001fd	89 45 08	 mov	 DWORD PTR _value$511140[ebp], eax
  00200	8d 45 08	 lea	 eax, DWORD PTR _value$511140[ebp]
  00203	50		 push	 eax
  00204	8d 8e ac 02 00
	00		 lea	 ecx, DWORD PTR [esi+684]
  0020a	e8 00 00 00 00	 call	 ?EncryptValueToPool@?$CEncrypt@H@@AAEXPBD@Z ; CEncrypt<int>::EncryptValueToPool

; 231  : 	m_CharInfo.m_hair_color = RotateNum( m_CharInfo.m_hair_color, 1, RaceSetting::GetNumHairColor( m_CharInfo.m_hair ) - 1 );

  0020f	8d 45 08	 lea	 eax, DWORD PTR _value$511145[ebp]
  00212	50		 push	 eax
  00213	8d 8e ac 02 00
	00		 lea	 ecx, DWORD PTR [esi+684]
  00219	e8 00 00 00 00	 call	 ?DecryptValueToPool@?$CEncrypt@H@@QAEXPAH@Z ; CEncrypt<int>::DecryptValueToPool
  0021e	8d 45 fc	 lea	 eax, DWORD PTR _value$511150[ebp]
  00221	50		 push	 eax
  00222	8d 8e 0c 03 00
	00		 lea	 ecx, DWORD PTR [esi+780]
  00228	e8 00 00 00 00	 call	 ?DecryptValueToPool@?$CEncrypt@H@@QAEXPAH@Z ; CEncrypt<int>::DecryptValueToPool
  0022d	ff 75 08	 push	 DWORD PTR _value$511145[ebp]
  00230	e8 00 00 00 00	 call	 ?GetNumHairColor@RaceSetting@@YAHH@Z ; RaceSetting::GetNumHairColor
  00235	59		 pop	 ecx
  00236	48		 dec	 eax
  00237	50		 push	 eax
  00238	57		 push	 edi
  00239	ff 75 fc	 push	 DWORD PTR _value$511150[ebp]
  0023c	8b ce		 mov	 ecx, esi
  0023e	e8 00 00 00 00	 call	 ?RotateNum@ServiceCharWnd@@IAEHHHH@Z ; ServiceCharWnd::RotateNum
  00243	89 45 08	 mov	 DWORD PTR _value$511155[ebp], eax
  00246	8d 45 08	 lea	 eax, DWORD PTR _value$511155[ebp]
  00249	50		 push	 eax
  0024a	8d 8e 0c 03 00
	00		 lea	 ecx, DWORD PTR [esi+780]
  00250	e8 00 00 00 00	 call	 ?EncryptValueToPool@?$CEncrypt@H@@AAEXPBD@Z ; CEncrypt<int>::EncryptValueToPool

; 232  : 	m_CharInfo.m_skin_color = RotateNum( m_CharInfo.m_skin_color, 1, RaceSetting::GetNumSkinColor() - 1 );

  00255	8d 45 08	 lea	 eax, DWORD PTR _value$511160[ebp]
  00258	50		 push	 eax
  00259	8d 8e dc 02 00
	00		 lea	 ecx, DWORD PTR [esi+732]
  0025f	e8 00 00 00 00	 call	 ?DecryptValueToPool@?$CEncrypt@H@@QAEXPAH@Z ; CEncrypt<int>::DecryptValueToPool
  00264	e8 00 00 00 00	 call	 ?GetNumSkinColor@RaceSetting@@YAHXZ ; RaceSetting::GetNumSkinColor
  00269	48		 dec	 eax
  0026a	50		 push	 eax
  0026b	57		 push	 edi
  0026c	ff 75 08	 push	 DWORD PTR _value$511160[ebp]
  0026f	8b ce		 mov	 ecx, esi
  00271	e8 00 00 00 00	 call	 ?RotateNum@ServiceCharWnd@@IAEHHHH@Z ; ServiceCharWnd::RotateNum
  00276	89 45 08	 mov	 DWORD PTR _value$511165[ebp], eax
  00279	8d 45 08	 lea	 eax, DWORD PTR _value$511165[ebp]
  0027c	50		 push	 eax
  0027d	8d 8e dc 02 00
	00		 lea	 ecx, DWORD PTR [esi+732]
  00283	e8 00 00 00 00	 call	 ?EncryptValueToPool@?$CEncrypt@H@@AAEXPBD@Z ; CEncrypt<int>::EncryptValueToPool

; 233  : 	m_CharInfo.m_accessories= RotateNum( m_CharInfo.m_accessories, 1, RaceSetting::GetNumAccessoryParts() - 1 );

  00288	8d 45 08	 lea	 eax, DWORD PTR _value$511170[ebp]
  0028b	50		 push	 eax
  0028c	8d 8e 3c 03 00
	00		 lea	 ecx, DWORD PTR [esi+828]
  00292	e8 00 00 00 00	 call	 ?DecryptValueToPool@?$CEncrypt@H@@QAEXPAH@Z ; CEncrypt<int>::DecryptValueToPool
  00297	e8 00 00 00 00	 call	 ?GetNumAccessoryParts@RaceSetting@@YAHXZ ; RaceSetting::GetNumAccessoryParts
  0029c	48		 dec	 eax
  0029d	50		 push	 eax
  0029e	57		 push	 edi
  0029f	ff 75 08	 push	 DWORD PTR _value$511170[ebp]
  002a2	8b ce		 mov	 ecx, esi
  002a4	e8 00 00 00 00	 call	 ?RotateNum@ServiceCharWnd@@IAEHHHH@Z ; ServiceCharWnd::RotateNum
  002a9	89 45 08	 mov	 DWORD PTR _value$511175[ebp], eax
  002ac	8d 45 08	 lea	 eax, DWORD PTR _value$511175[ebp]
  002af	50		 push	 eax
  002b0	8d 8e 3c 03 00
	00		 lea	 ecx, DWORD PTR [esi+828]
  002b6	e8 00 00 00 00	 call	 ?EncryptValueToPool@?$CEncrypt@H@@AAEXPBD@Z ; CEncrypt<int>::EncryptValueToPool

; 234  : 	m_CharInfo.m_underwear  = RotateNum( m_CharInfo.m_underwear, 1, RaceSetting::GetNumUnderwearParts() - 1 );

  002bb	8d 45 08	 lea	 eax, DWORD PTR _value$511180[ebp]
  002be	50		 push	 eax
  002bf	8d 8e 6c 03 00
	00		 lea	 ecx, DWORD PTR [esi+876]
  002c5	e8 00 00 00 00	 call	 ?DecryptValueToPool@?$CEncrypt@H@@QAEXPAH@Z ; CEncrypt<int>::DecryptValueToPool
  002ca	e8 00 00 00 00	 call	 ?GetNumUnderwearParts@RaceSetting@@YAHXZ ; RaceSetting::GetNumUnderwearParts
  002cf	48		 dec	 eax
  002d0	50		 push	 eax
  002d1	57		 push	 edi
  002d2	ff 75 08	 push	 DWORD PTR _value$511180[ebp]
  002d5	8b ce		 mov	 ecx, esi
  002d7	e8 00 00 00 00	 call	 ?RotateNum@ServiceCharWnd@@IAEHHHH@Z ; ServiceCharWnd::RotateNum
  002dc	89 45 08	 mov	 DWORD PTR _value$511185[ebp], eax
  002df	8d 45 08	 lea	 eax, DWORD PTR _value$511185[ebp]
  002e2	50		 push	 eax
  002e3	8d 8e 6c 03 00
	00		 lea	 ecx, DWORD PTR [esi+876]
  002e9	e8 00 00 00 00	 call	 ?EncryptValueToPool@?$CEncrypt@H@@AAEXPBD@Z ; CEncrypt<int>::EncryptValueToPool
  002ee	5f		 pop	 edi
  002ef	5e		 pop	 esi
  002f0	5b		 pop	 ebx

; 235  : }

  002f1	c9		 leave
  002f2	c2 04 00	 ret	 4
?UpdateCharInfo@ServiceCharWnd@@IAEXW4RaceDetailType@@@Z ENDP ; ServiceCharWnd::UpdateCharInfo
_TEXT	ENDS
PUBLIC	??_C@_01JLIPDDHJ@?3?$AA@			; `string'
PUBLIC	??_C@_0BJ@LDIMCNKA@ServiceCharWnd?3?3OnRender?$AA@ ; `string'
PUBLIC	__real@3f266666
PUBLIC	?OnRender@ServiceCharWnd@@MAEXXZ		; ServiceCharWnd::OnRender
EXTRN	__imp_?SetTextColor@ioFontManager@@QAEXHHH@Z:PROC
EXTRN	__imp_?PrintText@ioFontManager@@QAAXMMMPBDZZ:PROC
EXTRN	__imp_?c_str@ioHashString@@QBEPBDXZ:PROC
EXTRN	__imp_?SetTextColor@ioFontManager@@QAEXK@Z:PROC
EXTRN	__imp_?SetBkColor@ioFontManager@@QAEXHHH@Z:PROC
EXTRN	__imp_?SetTextStyle@ioFontManager@@QAEXW4TextStyle@@@Z:PROC
EXTRN	__imp_?SetAlignType@ioFontManager@@QAEXW4TextAlignType@@@Z:PROC
EXTRN	__imp_?GetSingleton@ioFontManager@@SAAAV1@XZ:PROC
EXTRN	__imp_?GetDerivedPosY@ioWnd@@QBEHXZ:PROC
EXTRN	__imp_?GetDerivedPosX@ioWnd@@QBEHXZ:PROC
EXTRN	__imp_?OnRender@ioWnd@@MAEXXZ:PROC
;	COMDAT ??_C@_01JLIPDDHJ@?3?$AA@
; File c:\program files (x86)\microsoft visual studio 10.0\vc\include\xstring
CONST	SEGMENT
??_C@_01JLIPDDHJ@?3?$AA@ DB ':', 00H			; `string'
CONST	ENDS
;	COMDAT ??_C@_0BJ@LDIMCNKA@ServiceCharWnd?3?3OnRender?$AA@
CONST	SEGMENT
??_C@_0BJ@LDIMCNKA@ServiceCharWnd?3?3OnRender?$AA@ DB 'ServiceCharWnd::On'
	DB	'Render', 00H				; `string'
CONST	ENDS
;	COMDAT __real@3f266666
CONST	SEGMENT
__real@3f266666 DD 03f266666r			; 0.65
; Function compile flags: /Ogsp
; File d:\lost saga for developer\youtube\tutorial\source\src\lsclient\gui\servicecharwnd.cpp
CONST	ENDS
;	COMDAT ?OnRender@ServiceCharWnd@@MAEXXZ
_TEXT	SEGMENT
tv324 = -24						; size = 4
tv261 = -20						; size = 4
tv423 = -16						; size = 4
tv359 = -16						; size = 4
tv397 = -12						; size = 4
_iXPos$ = -8						; size = 4
_iYPos$ = -4						; size = 4
?OnRender@ServiceCharWnd@@MAEXXZ PROC			; ServiceCharWnd::OnRender, COMDAT
; _this$ = ecx

; 432  : {

  00000	55		 push	 ebp
  00001	8b ec		 mov	 ebp, esp
  00003	83 ec 18	 sub	 esp, 24			; 00000018H
  00006	53		 push	 ebx
  00007	56		 push	 esi
  00008	57		 push	 edi
  00009	8b d9		 mov	 ebx, ecx

; 433  : 	ioWnd::OnRender();

  0000b	ff 15 00 00 00
	00		 call	 DWORD PTR __imp_?OnRender@ioWnd@@MAEXXZ

; 434  : 
; 435  : 	int iXPos = GetDerivedPosX();

  00011	8b cb		 mov	 ecx, ebx
  00013	ff 15 00 00 00
	00		 call	 DWORD PTR __imp_?GetDerivedPosX@ioWnd@@QBEHXZ
  00019	8b f8		 mov	 edi, eax

; 436  : 	int iYPos = GetDerivedPosY();

  0001b	8b cb		 mov	 ecx, ebx
  0001d	89 7d f8	 mov	 DWORD PTR _iXPos$[ebp], edi
  00020	ff 15 00 00 00
	00		 call	 DWORD PTR __imp_?GetDerivedPosY@ioWnd@@QBEHXZ

; 437  : 
; 438  : 	g_FontMgr.SetAlignType( TAT_LEFT );

  00026	8b 35 00 00 00
	00		 mov	 esi, DWORD PTR __imp_?GetSingleton@ioFontManager@@SAAAV1@XZ
  0002c	6a 00		 push	 0
  0002e	89 45 fc	 mov	 DWORD PTR _iYPos$[ebp], eax
  00031	ff d6		 call	 esi
  00033	8b c8		 mov	 ecx, eax
  00035	ff 15 00 00 00
	00		 call	 DWORD PTR __imp_?SetAlignType@ioFontManager@@QAEXW4TextAlignType@@@Z

; 439  : 	g_FontMgr.SetTextStyle( TS_OUTLINE_FULL_2X );

  0003b	6a 05		 push	 5
  0003d	ff d6		 call	 esi
  0003f	8b c8		 mov	 ecx, eax
  00041	ff 15 00 00 00
	00		 call	 DWORD PTR __imp_?SetTextStyle@ioFontManager@@QAEXW4TextStyle@@@Z

; 440  : 	g_FontMgr.SetBkColor( 0, 0, 0 );

  00047	33 c0		 xor	 eax, eax
  00049	50		 push	 eax
  0004a	50		 push	 eax
  0004b	50		 push	 eax
  0004c	ff d6		 call	 esi
  0004e	8b c8		 mov	 ecx, eax
  00050	ff 15 00 00 00
	00		 call	 DWORD PTR __imp_?SetBkColor@ioFontManager@@QAEXHHH@Z

; 441  : 	g_FontMgr.SetTextColor( TCT_DEFAULT_GRAY );

  00056	68 6e 6e 6e ff	 push	 -9539986		; ff6e6e6eH
  0005b	ff d6		 call	 esi
  0005d	8b c8		 mov	 ecx, eax
  0005f	ff 15 00 00 00
	00		 call	 DWORD PTR __imp_?SetTextColor@ioFontManager@@QAEXK@Z

; 442  : 	g_FontMgr.PrintText( iXPos + 212, iYPos + 60, FONT_SIZE_13, m_szHelpTitle.c_str() );

  00065	81 c7 d4 00 00
	00		 add	 edi, 212		; 000000d4H
  0006b	0f 57 c0	 xorps	 xmm0, xmm0
  0006e	f3 0f 2a c7	 cvtsi2ss xmm0, edi
  00072	8d 8b 00 05 00
	00		 lea	 ecx, DWORD PTR [ebx+1280]
  00078	f3 0f 11 45 e8	 movss	 DWORD PTR tv324[ebp], xmm0
  0007d	ff 15 00 00 00
	00		 call	 DWORD PTR __imp_?c_str@ioHashString@@QBEPBDXZ
  00083	f3 0f 10 05 00
	00 00 00	 movss	 xmm0, DWORD PTR __real@3f266666
  0008b	50		 push	 eax
  0008c	8b 45 fc	 mov	 eax, DWORD PTR _iYPos$[ebp]
  0008f	83 ec 0c	 sub	 esp, 12			; 0000000cH
  00092	f3 0f 11 44 24
	08		 movss	 DWORD PTR [esp+8], xmm0
  00098	83 c0 3c	 add	 eax, 60			; 0000003cH
  0009b	0f 57 c0	 xorps	 xmm0, xmm0
  0009e	f3 0f 2a c0	 cvtsi2ss xmm0, eax
  000a2	f3 0f 11 44 24
	04		 movss	 DWORD PTR [esp+4], xmm0
  000a8	f3 0f 10 45 e8	 movss	 xmm0, DWORD PTR tv324[ebp]
  000ad	f3 0f 11 04 24	 movss	 DWORD PTR [esp], xmm0
  000b2	ff d6		 call	 esi
  000b4	8b 3d 00 00 00
	00		 mov	 edi, DWORD PTR __imp_?PrintText@ioFontManager@@QAAXMMMPBDZZ
  000ba	50		 push	 eax
  000bb	ff d7		 call	 edi

; 443  : 	
; 444  : 	int iItemInfoSize = m_DescList.size();

  000bd	8b 83 14 05 00
	00		 mov	 eax, DWORD PTR [ebx+1300]
  000c3	2b 83 10 05 00
	00		 sub	 eax, DWORD PTR [ebx+1296]
  000c9	83 c4 14	 add	 esp, 20			; 00000014H
  000cc	6a 1c		 push	 28			; 0000001cH
  000ce	99		 cdq
  000cf	59		 pop	 ecx
  000d0	f7 f9		 idiv	 ecx

; 445  : 	for( int i=0; i<iItemInfoSize;i++ )

  000d2	85 c0		 test	 eax, eax
  000d4	7e 70		 jle	 SHORT $LN2@OnRender

; 433  : 	ioWnd::OnRender();

  000d6	8b 4d fc	 mov	 ecx, DWORD PTR _iYPos$[ebp]
  000d9	83 65 f4 00	 and	 DWORD PTR tv397[ebp], 0
  000dd	83 c1 58	 add	 ecx, 88			; 00000058H
  000e0	89 4d f0	 mov	 DWORD PTR tv423[ebp], ecx
  000e3	89 45 ec	 mov	 DWORD PTR tv261[ebp], eax
$LL23@OnRender:

; 446  : 	{
; 447  : 		if( !m_DescList[i].empty() )

  000e6	8b 83 10 05 00
	00		 mov	 eax, DWORD PTR [ebx+1296]
  000ec	03 45 f4	 add	 eax, DWORD PTR tv397[ebp]
  000ef	83 78 10 00	 cmp	 DWORD PTR [eax+16], 0
  000f3	74 44		 je	 SHORT $LN3@OnRender

; 448  : 		{
; 449  : 			g_FontMgr.PrintText( iXPos + 191, iYPos + 88 + (i * 20), FONT_SIZE_13, m_DescList[i].c_str() );

  000f5	83 78 14 10	 cmp	 DWORD PTR [eax+20], 16	; 00000010H
  000f9	72 02		 jb	 SHORT $LN19@OnRender
  000fb	8b 00		 mov	 eax, DWORD PTR [eax]
$LN19@OnRender:
  000fd	f3 0f 10 05 00
	00 00 00	 movss	 xmm0, DWORD PTR __real@3f266666
  00105	50		 push	 eax
  00106	8b 45 f8	 mov	 eax, DWORD PTR _iXPos$[ebp]
  00109	83 ec 0c	 sub	 esp, 12			; 0000000cH
  0010c	f3 0f 11 44 24
	08		 movss	 DWORD PTR [esp+8], xmm0
  00112	66 0f 6e 45 f0	 movd	 xmm0, DWORD PTR tv423[ebp]
  00117	0f 5b c0	 cvtdq2ps xmm0, xmm0
  0011a	f3 0f 11 44 24
	04		 movss	 DWORD PTR [esp+4], xmm0
  00120	05 bf 00 00 00	 add	 eax, 191		; 000000bfH
  00125	0f 57 c0	 xorps	 xmm0, xmm0
  00128	f3 0f 2a c0	 cvtsi2ss xmm0, eax
  0012c	f3 0f 11 04 24	 movss	 DWORD PTR [esp], xmm0
  00131	ff d6		 call	 esi
  00133	50		 push	 eax
  00134	ff d7		 call	 edi
  00136	83 c4 14	 add	 esp, 20			; 00000014H
$LN3@OnRender:

; 445  : 	for( int i=0; i<iItemInfoSize;i++ )

  00139	83 45 f4 1c	 add	 DWORD PTR tv397[ebp], 28 ; 0000001cH
  0013d	83 45 f0 14	 add	 DWORD PTR tv423[ebp], 20 ; 00000014H
  00141	ff 4d ec	 dec	 DWORD PTR tv261[ebp]
  00144	75 a0		 jne	 SHORT $LL23@OnRender
$LN2@OnRender:

; 450  : 		}
; 451  : 	}
; 452  : 
; 453  : 	g_FontMgr.PrintText( iXPos + 212, iYPos + 182, FONT_SIZE_13, STR(1) );

  00146	6a 00		 push	 0
  00148	6a 01		 push	 1
  0014a	68 00 00 00 00	 push	 OFFSET ??_C@_00CNPNBAHC@?$AA@
  0014f	68 00 00 00 00	 push	 OFFSET ??_C@_0BJ@LDIMCNKA@ServiceCharWnd?3?3OnRender?$AA@
  00154	ff 15 00 00 00
	00		 call	 DWORD PTR __imp_?GetSingleton@ioStringManager@@SAAAV1@XZ
  0015a	8b c8		 mov	 ecx, eax
  0015c	ff 15 00 00 00
	00		 call	 DWORD PTR __imp_?GetString@ioStringManager@@QAEPADPBD0HW4FileNamePrefix@1@@Z
  00162	f3 0f 10 05 00
	00 00 00	 movss	 xmm0, DWORD PTR __real@3f266666
  0016a	50		 push	 eax
  0016b	8b 45 fc	 mov	 eax, DWORD PTR _iYPos$[ebp]
  0016e	83 ec 0c	 sub	 esp, 12			; 0000000cH
  00171	f3 0f 11 44 24
	08		 movss	 DWORD PTR [esp+8], xmm0
  00177	05 b6 00 00 00	 add	 eax, 182		; 000000b6H
  0017c	0f 57 c0	 xorps	 xmm0, xmm0
  0017f	f3 0f 2a c0	 cvtsi2ss xmm0, eax
  00183	f3 0f 11 44 24
	04		 movss	 DWORD PTR [esp+4], xmm0
  00189	f3 0f 10 45 e8	 movss	 xmm0, DWORD PTR tv324[ebp]
  0018e	f3 0f 11 04 24	 movss	 DWORD PTR [esp], xmm0
  00193	ff d6		 call	 esi
  00195	50		 push	 eax
  00196	ff d7		 call	 edi
  00198	83 c4 14	 add	 esp, 20			; 00000014H

; 454  : 
; 455  : 	g_FontMgr.SetTextColor( 255, 113, 0 );

  0019b	6a 00		 push	 0
  0019d	6a 71		 push	 113			; 00000071H
  0019f	68 ff 00 00 00	 push	 255			; 000000ffH
  001a4	ff d6		 call	 esi
  001a6	8b c8		 mov	 ecx, eax
  001a8	ff 15 00 00 00
	00		 call	 DWORD PTR __imp_?SetTextColor@ioFontManager@@QAEXHHH@Z

; 456  : 	g_FontMgr.PrintText( iXPos + 191, iYPos + 210, FONT_SIZE_13, STR(2) );

  001ae	8b 45 fc	 mov	 eax, DWORD PTR _iYPos$[ebp]
  001b1	6a 00		 push	 0
  001b3	6a 02		 push	 2
  001b5	05 d2 00 00 00	 add	 eax, 210		; 000000d2H
  001ba	0f 57 c0	 xorps	 xmm0, xmm0
  001bd	68 00 00 00 00	 push	 OFFSET ??_C@_00CNPNBAHC@?$AA@
  001c2	f3 0f 2a c0	 cvtsi2ss xmm0, eax
  001c6	68 00 00 00 00	 push	 OFFSET ??_C@_0BJ@LDIMCNKA@ServiceCharWnd?3?3OnRender?$AA@
  001cb	f3 0f 11 45 f0	 movss	 DWORD PTR tv359[ebp], xmm0
  001d0	ff 15 00 00 00
	00		 call	 DWORD PTR __imp_?GetSingleton@ioStringManager@@SAAAV1@XZ
  001d6	8b c8		 mov	 ecx, eax
  001d8	ff 15 00 00 00
	00		 call	 DWORD PTR __imp_?GetString@ioStringManager@@QAEPADPBD0HW4FileNamePrefix@1@@Z
  001de	f3 0f 10 05 00
	00 00 00	 movss	 xmm0, DWORD PTR __real@3f266666
  001e6	50		 push	 eax
  001e7	8b 45 f8	 mov	 eax, DWORD PTR _iXPos$[ebp]
  001ea	83 ec 0c	 sub	 esp, 12			; 0000000cH
  001ed	f3 0f 11 44 24
	08		 movss	 DWORD PTR [esp+8], xmm0
  001f3	f3 0f 10 45 f0	 movss	 xmm0, DWORD PTR tv359[ebp]
  001f8	f3 0f 11 44 24
	04		 movss	 DWORD PTR [esp+4], xmm0
  001fe	05 bf 00 00 00	 add	 eax, 191		; 000000bfH
  00203	0f 57 c0	 xorps	 xmm0, xmm0
  00206	f3 0f 2a c0	 cvtsi2ss xmm0, eax
  0020a	f3 0f 11 04 24	 movss	 DWORD PTR [esp], xmm0
  0020f	ff d6		 call	 esi
  00211	50		 push	 eax
  00212	ff d7		 call	 edi

; 457  : 	g_FontMgr.PrintText( iXPos + 224, iYPos + 210, FONT_SIZE_13, ":" );

  00214	f3 0f 10 05 00
	00 00 00	 movss	 xmm0, DWORD PTR __real@3f266666
  0021c	8b 45 f8	 mov	 eax, DWORD PTR _iXPos$[ebp]
  0021f	83 c4 14	 add	 esp, 20			; 00000014H
  00222	68 00 00 00 00	 push	 OFFSET ??_C@_01JLIPDDHJ@?3?$AA@
  00227	83 ec 0c	 sub	 esp, 12			; 0000000cH
  0022a	f3 0f 11 44 24
	08		 movss	 DWORD PTR [esp+8], xmm0
  00230	f3 0f 10 45 f0	 movss	 xmm0, DWORD PTR tv359[ebp]
  00235	f3 0f 11 44 24
	04		 movss	 DWORD PTR [esp+4], xmm0
  0023b	05 e0 00 00 00	 add	 eax, 224		; 000000e0H
  00240	0f 57 c0	 xorps	 xmm0, xmm0
  00243	f3 0f 2a c0	 cvtsi2ss xmm0, eax
  00247	f3 0f 11 04 24	 movss	 DWORD PTR [esp], xmm0
  0024c	ff d6		 call	 esi
  0024e	50		 push	 eax
  0024f	ff d7		 call	 edi
  00251	83 c4 14	 add	 esp, 20			; 00000014H

; 458  : 	g_FontMgr.PrintText( iXPos + 286, iYPos + 210, FONT_SIZE_13, m_szClassName.c_str() );	

  00254	8d 8b e0 04 00
	00		 lea	 ecx, DWORD PTR [ebx+1248]
  0025a	ff 15 00 00 00
	00		 call	 DWORD PTR __imp_?c_str@ioHashString@@QBEPBDXZ
  00260	f3 0f 10 05 00
	00 00 00	 movss	 xmm0, DWORD PTR __real@3f266666
  00268	50		 push	 eax
  00269	8b 45 f8	 mov	 eax, DWORD PTR _iXPos$[ebp]
  0026c	83 ec 0c	 sub	 esp, 12			; 0000000cH
  0026f	f3 0f 11 44 24
	08		 movss	 DWORD PTR [esp+8], xmm0
  00275	f3 0f 10 45 f0	 movss	 xmm0, DWORD PTR tv359[ebp]
  0027a	f3 0f 11 44 24
	04		 movss	 DWORD PTR [esp+4], xmm0
  00280	05 1e 01 00 00	 add	 eax, 286		; 0000011eH
  00285	0f 57 c0	 xorps	 xmm0, xmm0
  00288	f3 0f 2a c0	 cvtsi2ss xmm0, eax
  0028c	f3 0f 11 04 24	 movss	 DWORD PTR [esp], xmm0
  00291	ff d6		 call	 esi
  00293	50		 push	 eax
  00294	ff d7		 call	 edi
  00296	83 c4 14	 add	 esp, 20			; 00000014H
  00299	5f		 pop	 edi
  0029a	5e		 pop	 esi
  0029b	5b		 pop	 ebx

; 459  : }

  0029c	c9		 leave
  0029d	c3		 ret	 0
?OnRender@ServiceCharWnd@@MAEXXZ ENDP			; ServiceCharWnd::OnRender
_TEXT	ENDS
PUBLIC	??0?$vector@V?$basic_string@DU?$char_traits@D@std@@V?$allocator@D@2@@std@@V?$allocator@V?$basic_string@DU?$char_traits@D@std@@V?$allocator@D@2@@std@@@2@@std@@QAE@XZ ; std::vector<std::basic_string<char,std::char_traits<char>,std::allocator<char> >,std::allocator<std::basic_string<char,std::char_traits<char>,std::allocator<char> > > >::vector<std::basic_string<char,std::char_traits<char>,std::allocator<char> >,std::allocator<std::basic_string<char,std::char_traits<char>,std::allocator<char> > > >
; Function compile flags: /Ogsp
; File c:\program files (x86)\microsoft visual studio 10.0\vc\include\vector
;	COMDAT ??0?$vector@V?$basic_string@DU?$char_traits@D@std@@V?$allocator@D@2@@std@@V?$allocator@V?$basic_string@DU?$char_traits@D@std@@V?$allocator@D@2@@std@@@2@@std@@QAE@XZ
_TEXT	SEGMENT
??0?$vector@V?$basic_string@DU?$char_traits@D@std@@V?$allocator@D@2@@std@@V?$allocator@V?$basic_string@DU?$char_traits@D@std@@V?$allocator@D@2@@std@@@2@@std@@QAE@XZ PROC ; std::vector<std::basic_string<char,std::char_traits<char>,std::allocator<char> >,std::allocator<std::basic_string<char,std::char_traits<char>,std::allocator<char> > > >::vector<std::basic_string<char,std::char_traits<char>,std::allocator<char> >,std::allocator<std::basic_string<char,std::char_traits<char>,std::allocator<char> > > >, COMDAT
; _this$ = ecx

; 507  : 		{	// construct empty vector

  00000	8b c1		 mov	 eax, ecx
  00002	33 c9		 xor	 ecx, ecx
  00004	89 08		 mov	 DWORD PTR [eax], ecx
  00006	89 48 04	 mov	 DWORD PTR [eax+4], ecx
  00009	89 48 08	 mov	 DWORD PTR [eax+8], ecx

; 508  : 		}

  0000c	c3		 ret	 0
??0?$vector@V?$basic_string@DU?$char_traits@D@std@@V?$allocator@D@2@@std@@V?$allocator@V?$basic_string@DU?$char_traits@D@std@@V?$allocator@D@2@@std@@@2@@std@@QAE@XZ ENDP ; std::vector<std::basic_string<char,std::char_traits<char>,std::allocator<char> >,std::allocator<std::basic_string<char,std::char_traits<char>,std::allocator<char> > > >::vector<std::basic_string<char,std::char_traits<char>,std::allocator<char> >,std::allocator<std::basic_string<char,std::char_traits<char>,std::allocator<char> > > >
_TEXT	ENDS
PUBLIC	??0?$vector@W4RaceDetailType@@V?$allocator@W4RaceDetailType@@@std@@@std@@QAE@XZ ; std::vector<enum RaceDetailType,std::allocator<enum RaceDetailType> >::vector<enum RaceDetailType,std::allocator<enum RaceDetailType> >
; Function compile flags: /Ogsp
;	COMDAT ??0?$vector@W4RaceDetailType@@V?$allocator@W4RaceDetailType@@@std@@@std@@QAE@XZ
_TEXT	SEGMENT
??0?$vector@W4RaceDetailType@@V?$allocator@W4RaceDetailType@@@std@@@std@@QAE@XZ PROC ; std::vector<enum RaceDetailType,std::allocator<enum RaceDetailType> >::vector<enum RaceDetailType,std::allocator<enum RaceDetailType> >, COMDAT
; _this$ = ecx

; 507  : 		{	// construct empty vector

  00000	8b c1		 mov	 eax, ecx
  00002	33 c9		 xor	 ecx, ecx
  00004	89 08		 mov	 DWORD PTR [eax], ecx
  00006	89 48 04	 mov	 DWORD PTR [eax+4], ecx
  00009	89 48 08	 mov	 DWORD PTR [eax+8], ecx

; 508  : 		}

  0000c	c3		 ret	 0
??0?$vector@W4RaceDetailType@@V?$allocator@W4RaceDetailType@@@std@@@std@@QAE@XZ ENDP ; std::vector<enum RaceDetailType,std::allocator<enum RaceDetailType> >::vector<enum RaceDetailType,std::allocator<enum RaceDetailType> >
_TEXT	ENDS
PUBLIC	?begin@?$vector@V?$basic_string@DU?$char_traits@D@std@@V?$allocator@D@2@@std@@V?$allocator@V?$basic_string@DU?$char_traits@D@std@@V?$allocator@D@2@@std@@@2@@std@@QAE?AV?$_Vector_iterator@V?$_Vector_val@V?$basic_string@DU?$char_traits@D@std@@V?$allocator@D@2@@std@@V?$allocator@V?$basic_string@DU?$char_traits@D@std@@V?$allocator@D@2@@std@@@2@@std@@@2@XZ ; std::vector<std::basic_string<char,std::char_traits<char>,std::allocator<char> >,std::allocator<std::basic_string<char,std::char_traits<char>,std::allocator<char> > > >::begin
; Function compile flags: /Ogsp
;	COMDAT ?begin@?$vector@V?$basic_string@DU?$char_traits@D@std@@V?$allocator@D@2@@std@@V?$allocator@V?$basic_string@DU?$char_traits@D@std@@V?$allocator@D@2@@std@@@2@@std@@QAE?AV?$_Vector_iterator@V?$_Vector_val@V?$basic_string@DU?$char_traits@D@std@@V?$allocator@D@2@@std@@V?$allocator@V?$basic_string@DU?$char_traits@D@std@@V?$allocator@D@2@@std@@@2@@std@@@2@XZ
_TEXT	SEGMENT
___$ReturnUdt$ = 8					; size = 4
?begin@?$vector@V?$basic_string@DU?$char_traits@D@std@@V?$allocator@D@2@@std@@V?$allocator@V?$basic_string@DU?$char_traits@D@std@@V?$allocator@D@2@@std@@@2@@std@@QAE?AV?$_Vector_iterator@V?$_Vector_val@V?$basic_string@DU?$char_traits@D@std@@V?$allocator@D@2@@std@@V?$allocator@V?$basic_string@DU?$char_traits@D@std@@V?$allocator@D@2@@std@@@2@@std@@@2@XZ PROC ; std::vector<std::basic_string<char,std::char_traits<char>,std::allocator<char> >,std::allocator<std::basic_string<char,std::char_traits<char>,std::allocator<char> > > >::begin, COMDAT
; _this$ = ecx

; 781  : 		{	// return iterator for beginning of mutable sequence

  00000	55		 push	 ebp
  00001	8b ec		 mov	 ebp, esp

; 782  : 		return (iterator(this->_Myfirst, this));

  00003	8b 09		 mov	 ecx, DWORD PTR [ecx]
  00005	8b 45 08	 mov	 eax, DWORD PTR ___$ReturnUdt$[ebp]
  00008	89 08		 mov	 DWORD PTR [eax], ecx

; 783  : 		}

  0000a	5d		 pop	 ebp
  0000b	c2 04 00	 ret	 4
?begin@?$vector@V?$basic_string@DU?$char_traits@D@std@@V?$allocator@D@2@@std@@V?$allocator@V?$basic_string@DU?$char_traits@D@std@@V?$allocator@D@2@@std@@@2@@std@@QAE?AV?$_Vector_iterator@V?$_Vector_val@V?$basic_string@DU?$char_traits@D@std@@V?$allocator@D@2@@std@@V?$allocator@V?$basic_string@DU?$char_traits@D@std@@V?$allocator@D@2@@std@@@2@@std@@@2@XZ ENDP ; std::vector<std::basic_string<char,std::char_traits<char>,std::allocator<char> >,std::allocator<std::basic_string<char,std::char_traits<char>,std::allocator<char> > > >::begin
_TEXT	ENDS
PUBLIC	?end@?$vector@V?$basic_string@DU?$char_traits@D@std@@V?$allocator@D@2@@std@@V?$allocator@V?$basic_string@DU?$char_traits@D@std@@V?$allocator@D@2@@std@@@2@@std@@QAE?AV?$_Vector_iterator@V?$_Vector_val@V?$basic_string@DU?$char_traits@D@std@@V?$allocator@D@2@@std@@V?$allocator@V?$basic_string@DU?$char_traits@D@std@@V?$allocator@D@2@@std@@@2@@std@@@2@XZ ; std::vector<std::basic_string<char,std::char_traits<char>,std::allocator<char> >,std::allocator<std::basic_string<char,std::char_traits<char>,std::allocator<char> > > >::end
; Function compile flags: /Ogsp
;	COMDAT ?end@?$vector@V?$basic_string@DU?$char_traits@D@std@@V?$allocator@D@2@@std@@V?$allocator@V?$basic_string@DU?$char_traits@D@std@@V?$allocator@D@2@@std@@@2@@std@@QAE?AV?$_Vector_iterator@V?$_Vector_val@V?$basic_string@DU?$char_traits@D@std@@V?$allocator@D@2@@std@@V?$allocator@V?$basic_string@DU?$char_traits@D@std@@V?$allocator@D@2@@std@@@2@@std@@@2@XZ
_TEXT	SEGMENT
___$ReturnUdt$ = 8					; size = 4
?end@?$vector@V?$basic_string@DU?$char_traits@D@std@@V?$allocator@D@2@@std@@V?$allocator@V?$basic_string@DU?$char_traits@D@std@@V?$allocator@D@2@@std@@@2@@std@@QAE?AV?$_Vector_iterator@V?$_Vector_val@V?$basic_string@DU?$char_traits@D@std@@V?$allocator@D@2@@std@@V?$allocator@V?$basic_string@DU?$char_traits@D@std@@V?$allocator@D@2@@std@@@2@@std@@@2@XZ PROC ; std::vector<std::basic_string<char,std::char_traits<char>,std::allocator<char> >,std::allocator<std::basic_string<char,std::char_traits<char>,std::allocator<char> > > >::end, COMDAT
; _this$ = ecx

; 791  : 		{	// return iterator for end of mutable sequence

  00000	55		 push	 ebp
  00001	8b ec		 mov	 ebp, esp

; 792  : 		return (iterator(this->_Mylast, this));

  00003	8b 49 04	 mov	 ecx, DWORD PTR [ecx+4]
  00006	8b 45 08	 mov	 eax, DWORD PTR ___$ReturnUdt$[ebp]
  00009	89 08		 mov	 DWORD PTR [eax], ecx

; 793  : 		}

  0000b	5d		 pop	 ebp
  0000c	c2 04 00	 ret	 4
?end@?$vector@V?$basic_string@DU?$char_traits@D@std@@V?$allocator@D@2@@std@@V?$allocator@V?$basic_string@DU?$char_traits@D@std@@V?$allocator@D@2@@std@@@2@@std@@QAE?AV?$_Vector_iterator@V?$_Vector_val@V?$basic_string@DU?$char_traits@D@std@@V?$allocator@D@2@@std@@V?$allocator@V?$basic_string@DU?$char_traits@D@std@@V?$allocator@D@2@@std@@@2@@std@@@2@XZ ENDP ; std::vector<std::basic_string<char,std::char_traits<char>,std::allocator<char> >,std::allocator<std::basic_string<char,std::char_traits<char>,std::allocator<char> > > >::end
_TEXT	ENDS
PUBLIC	?_Buy@?$vector@V?$basic_string@DU?$char_traits@D@std@@V?$allocator@D@2@@std@@V?$allocator@V?$basic_string@DU?$char_traits@D@std@@V?$allocator@D@2@@std@@@2@@std@@IAE_NI@Z ; std::vector<std::basic_string<char,std::char_traits<char>,std::allocator<char> >,std::allocator<std::basic_string<char,std::char_traits<char>,std::allocator<char> > > >::_Buy
; Function compile flags: /Ogsp
;	COMDAT ?_Buy@?$vector@V?$basic_string@DU?$char_traits@D@std@@V?$allocator@D@2@@std@@V?$allocator@V?$basic_string@DU?$char_traits@D@std@@V?$allocator@D@2@@std@@@2@@std@@IAE_NI@Z
_TEXT	SEGMENT
__Capacity$ = 8						; size = 4
?_Buy@?$vector@V?$basic_string@DU?$char_traits@D@std@@V?$allocator@D@2@@std@@V?$allocator@V?$basic_string@DU?$char_traits@D@std@@V?$allocator@D@2@@std@@@2@@std@@IAE_NI@Z PROC ; std::vector<std::basic_string<char,std::char_traits<char>,std::allocator<char> >,std::allocator<std::basic_string<char,std::char_traits<char>,std::allocator<char> > > >::_Buy, COMDAT
; _this$ = ecx

; 1250 : 		{	// allocate array with _Capacity elements

  00000	55		 push	 ebp
  00001	8b ec		 mov	 ebp, esp
  00003	56		 push	 esi

; 1251 : 		this->_Myfirst = 0;

  00004	33 c0		 xor	 eax, eax
  00006	57		 push	 edi

; 1252 : 		this->_Mylast = 0;
; 1253 : 		this->_Myend = 0;
; 1254 : 
; 1255 : 		if (_Capacity == 0)

  00007	8b 7d 08	 mov	 edi, DWORD PTR __Capacity$[ebp]
  0000a	8b f1		 mov	 esi, ecx
  0000c	89 06		 mov	 DWORD PTR [esi], eax
  0000e	89 46 04	 mov	 DWORD PTR [esi+4], eax
  00011	89 46 08	 mov	 DWORD PTR [esi+8], eax
  00014	3b f8		 cmp	 edi, eax
  00016	75 04		 jne	 SHORT $LN4@Buy

; 1256 : 			return (false);

  00018	32 c0		 xor	 al, al
  0001a	eb 2b		 jmp	 SHORT $LN5@Buy
$LN4@Buy:

; 1257 : 		else if (max_size() < _Capacity)

  0001c	81 ff 49 92 24
	09		 cmp	 edi, 153391689		; 09249249H
  00022	76 0b		 jbe	 SHORT $LN2@Buy

; 1258 : 			_Xlen();	// result too long

  00024	68 00 00 00 00	 push	 OFFSET ??_C@_0BD@OLBABOEK@vector?$DMT?$DO?5too?5long?$AA@
  00029	ff 15 00 00 00
	00		 call	 DWORD PTR __imp_?_Xlength_error@std@@YAXPBD@Z
$LN19@Buy:
$LN2@Buy:

; 1259 : 		else
; 1260 : 			{	// nonempty array, allocate storage
; 1261 : 			this->_Myfirst = this->_Alval.allocate(_Capacity);

  0002f	50		 push	 eax
  00030	57		 push	 edi
  00031	e8 00 00 00 00	 call	 ??$_Allocate@V?$basic_string@DU?$char_traits@D@std@@V?$allocator@D@2@@std@@@std@@YAPAV?$basic_string@DU?$char_traits@D@std@@V?$allocator@D@2@@0@IPAV10@@Z ; std::_Allocate<std::basic_string<char,std::char_traits<char>,std::allocator<char> > >

; 1262 : 			this->_Mylast = this->_Myfirst;
; 1263 : 			this->_Myend = this->_Myfirst + _Capacity;

  00036	6b ff 1c	 imul	 edi, 28			; 0000001cH
  00039	03 f8		 add	 edi, eax
  0003b	59		 pop	 ecx
  0003c	89 06		 mov	 DWORD PTR [esi], eax
  0003e	89 46 04	 mov	 DWORD PTR [esi+4], eax
  00041	59		 pop	 ecx
  00042	89 7e 08	 mov	 DWORD PTR [esi+8], edi

; 1264 : 			}
; 1265 : 		return (true);

  00045	b0 01		 mov	 al, 1
$LN5@Buy:
  00047	5f		 pop	 edi
  00048	5e		 pop	 esi

; 1266 : 		}

  00049	5d		 pop	 ebp
  0004a	c2 04 00	 ret	 4
$LN18@Buy:
?_Buy@?$vector@V?$basic_string@DU?$char_traits@D@std@@V?$allocator@D@2@@std@@V?$allocator@V?$basic_string@DU?$char_traits@D@std@@V?$allocator@D@2@@std@@@2@@std@@IAE_NI@Z ENDP ; std::vector<std::basic_string<char,std::char_traits<char>,std::allocator<char> >,std::allocator<std::basic_string<char,std::char_traits<char>,std::allocator<char> > > >::_Buy
_TEXT	ENDS
PUBLIC	?begin@?$vector@W4RaceDetailType@@V?$allocator@W4RaceDetailType@@@std@@@std@@QAE?AV?$_Vector_iterator@V?$_Vector_val@W4RaceDetailType@@V?$allocator@W4RaceDetailType@@@std@@@std@@@2@XZ ; std::vector<enum RaceDetailType,std::allocator<enum RaceDetailType> >::begin
; Function compile flags: /Ogsp
;	COMDAT ?begin@?$vector@W4RaceDetailType@@V?$allocator@W4RaceDetailType@@@std@@@std@@QAE?AV?$_Vector_iterator@V?$_Vector_val@W4RaceDetailType@@V?$allocator@W4RaceDetailType@@@std@@@std@@@2@XZ
_TEXT	SEGMENT
___$ReturnUdt$ = 8					; size = 4
?begin@?$vector@W4RaceDetailType@@V?$allocator@W4RaceDetailType@@@std@@@std@@QAE?AV?$_Vector_iterator@V?$_Vector_val@W4RaceDetailType@@V?$allocator@W4RaceDetailType@@@std@@@std@@@2@XZ PROC ; std::vector<enum RaceDetailType,std::allocator<enum RaceDetailType> >::begin, COMDAT
; _this$ = ecx

; 781  : 		{	// return iterator for beginning of mutable sequence

  00000	55		 push	 ebp
  00001	8b ec		 mov	 ebp, esp

; 782  : 		return (iterator(this->_Myfirst, this));

  00003	8b 09		 mov	 ecx, DWORD PTR [ecx]
  00005	8b 45 08	 mov	 eax, DWORD PTR ___$ReturnUdt$[ebp]
  00008	89 08		 mov	 DWORD PTR [eax], ecx

; 783  : 		}

  0000a	5d		 pop	 ebp
  0000b	c2 04 00	 ret	 4
?begin@?$vector@W4RaceDetailType@@V?$allocator@W4RaceDetailType@@@std@@@std@@QAE?AV?$_Vector_iterator@V?$_Vector_val@W4RaceDetailType@@V?$allocator@W4RaceDetailType@@@std@@@std@@@2@XZ ENDP ; std::vector<enum RaceDetailType,std::allocator<enum RaceDetailType> >::begin
_TEXT	ENDS
PUBLIC	?end@?$vector@W4RaceDetailType@@V?$allocator@W4RaceDetailType@@@std@@@std@@QAE?AV?$_Vector_iterator@V?$_Vector_val@W4RaceDetailType@@V?$allocator@W4RaceDetailType@@@std@@@std@@@2@XZ ; std::vector<enum RaceDetailType,std::allocator<enum RaceDetailType> >::end
; Function compile flags: /Ogsp
;	COMDAT ?end@?$vector@W4RaceDetailType@@V?$allocator@W4RaceDetailType@@@std@@@std@@QAE?AV?$_Vector_iterator@V?$_Vector_val@W4RaceDetailType@@V?$allocator@W4RaceDetailType@@@std@@@std@@@2@XZ
_TEXT	SEGMENT
___$ReturnUdt$ = 8					; size = 4
?end@?$vector@W4RaceDetailType@@V?$allocator@W4RaceDetailType@@@std@@@std@@QAE?AV?$_Vector_iterator@V?$_Vector_val@W4RaceDetailType@@V?$allocator@W4RaceDetailType@@@std@@@std@@@2@XZ PROC ; std::vector<enum RaceDetailType,std::allocator<enum RaceDetailType> >::end, COMDAT
; _this$ = ecx

; 791  : 		{	// return iterator for end of mutable sequence

  00000	55		 push	 ebp
  00001	8b ec		 mov	 ebp, esp

; 792  : 		return (iterator(this->_Mylast, this));

  00003	8b 49 04	 mov	 ecx, DWORD PTR [ecx+4]
  00006	8b 45 08	 mov	 eax, DWORD PTR ___$ReturnUdt$[ebp]
  00009	89 08		 mov	 DWORD PTR [eax], ecx

; 793  : 		}

  0000b	5d		 pop	 ebp
  0000c	c2 04 00	 ret	 4
?end@?$vector@W4RaceDetailType@@V?$allocator@W4RaceDetailType@@@std@@@std@@QAE?AV?$_Vector_iterator@V?$_Vector_val@W4RaceDetailType@@V?$allocator@W4RaceDetailType@@@std@@@std@@@2@XZ ENDP ; std::vector<enum RaceDetailType,std::allocator<enum RaceDetailType> >::end
_TEXT	ENDS
PUBLIC	?_Make_iter@?$vector@V?$basic_string@DU?$char_traits@D@std@@V?$allocator@D@2@@std@@V?$allocator@V?$basic_string@DU?$char_traits@D@std@@V?$allocator@D@2@@std@@@2@@std@@QBE?AV?$_Vector_iterator@V?$_Vector_val@V?$basic_string@DU?$char_traits@D@std@@V?$allocator@D@2@@std@@V?$allocator@V?$basic_string@DU?$char_traits@D@std@@V?$allocator@D@2@@std@@@2@@std@@@2@V?$_Vector_const_iterator@V?$_Vector_val@V?$basic_string@DU?$char_traits@D@std@@V?$allocator@D@2@@std@@V?$allocator@V?$basic_string@DU?$char_traits@D@std@@V?$allocator@D@2@@std@@@2@@std@@@2@@Z ; std::vector<std::basic_string<char,std::char_traits<char>,std::allocator<char> >,std::allocator<std::basic_string<char,std::char_traits<char>,std::allocator<char> > > >::_Make_iter
; Function compile flags: /Ogsp
;	COMDAT ?_Make_iter@?$vector@V?$basic_string@DU?$char_traits@D@std@@V?$allocator@D@2@@std@@V?$allocator@V?$basic_string@DU?$char_traits@D@std@@V?$allocator@D@2@@std@@@2@@std@@QBE?AV?$_Vector_iterator@V?$_Vector_val@V?$basic_string@DU?$char_traits@D@std@@V?$allocator@D@2@@std@@V?$allocator@V?$basic_string@DU?$char_traits@D@std@@V?$allocator@D@2@@std@@@2@@std@@@2@V?$_Vector_const_iterator@V?$_Vector_val@V?$basic_string@DU?$char_traits@D@std@@V?$allocator@D@2@@std@@V?$allocator@V?$basic_string@DU?$char_traits@D@std@@V?$allocator@D@2@@std@@@2@@std@@@2@@Z
_TEXT	SEGMENT
___$ReturnUdt$ = 8					; size = 4
__Where$ = 12						; size = 4
?_Make_iter@?$vector@V?$basic_string@DU?$char_traits@D@std@@V?$allocator@D@2@@std@@V?$allocator@V?$basic_string@DU?$char_traits@D@std@@V?$allocator@D@2@@std@@@2@@std@@QBE?AV?$_Vector_iterator@V?$_Vector_val@V?$basic_string@DU?$char_traits@D@std@@V?$allocator@D@2@@std@@V?$allocator@V?$basic_string@DU?$char_traits@D@std@@V?$allocator@D@2@@std@@@2@@std@@@2@V?$_Vector_const_iterator@V?$_Vector_val@V?$basic_string@DU?$char_traits@D@std@@V?$allocator@D@2@@std@@V?$allocator@V?$basic_string@DU?$char_traits@D@std@@V?$allocator@D@2@@std@@@2@@std@@@2@@Z PROC ; std::vector<std::basic_string<char,std::char_traits<char>,std::allocator<char> >,std::allocator<std::basic_string<char,std::char_traits<char>,std::allocator<char> > > >::_Make_iter, COMDAT
; _this$ = ecx

; 801  : 		{	// make iterator from const_iterator

  00000	55		 push	 ebp
  00001	8b ec		 mov	 ebp, esp

; 802  : 		return (iterator(_Where._Ptr, this));

  00003	8b 45 08	 mov	 eax, DWORD PTR ___$ReturnUdt$[ebp]
  00006	8b 4d 0c	 mov	 ecx, DWORD PTR __Where$[ebp]
  00009	89 08		 mov	 DWORD PTR [eax], ecx

; 803  : 		}

  0000b	5d		 pop	 ebp
  0000c	c2 08 00	 ret	 8
?_Make_iter@?$vector@V?$basic_string@DU?$char_traits@D@std@@V?$allocator@D@2@@std@@V?$allocator@V?$basic_string@DU?$char_traits@D@std@@V?$allocator@D@2@@std@@@2@@std@@QBE?AV?$_Vector_iterator@V?$_Vector_val@V?$basic_string@DU?$char_traits@D@std@@V?$allocator@D@2@@std@@V?$allocator@V?$basic_string@DU?$char_traits@D@std@@V?$allocator@D@2@@std@@@2@@std@@@2@V?$_Vector_const_iterator@V?$_Vector_val@V?$basic_string@DU?$char_traits@D@std@@V?$allocator@D@2@@std@@V?$allocator@V?$basic_string@DU?$char_traits@D@std@@V?$allocator@D@2@@std@@@2@@std@@@2@@Z ENDP ; std::vector<std::basic_string<char,std::char_traits<char>,std::allocator<char> >,std::allocator<std::basic_string<char,std::char_traits<char>,std::allocator<char> > > >::_Make_iter
_TEXT	ENDS
PUBLIC	?_Make_iter@?$vector@W4RaceDetailType@@V?$allocator@W4RaceDetailType@@@std@@@std@@QBE?AV?$_Vector_iterator@V?$_Vector_val@W4RaceDetailType@@V?$allocator@W4RaceDetailType@@@std@@@std@@@2@V?$_Vector_const_iterator@V?$_Vector_val@W4RaceDetailType@@V?$allocator@W4RaceDetailType@@@std@@@std@@@2@@Z ; std::vector<enum RaceDetailType,std::allocator<enum RaceDetailType> >::_Make_iter
; Function compile flags: /Ogsp
;	COMDAT ?_Make_iter@?$vector@W4RaceDetailType@@V?$allocator@W4RaceDetailType@@@std@@@std@@QBE?AV?$_Vector_iterator@V?$_Vector_val@W4RaceDetailType@@V?$allocator@W4RaceDetailType@@@std@@@std@@@2@V?$_Vector_const_iterator@V?$_Vector_val@W4RaceDetailType@@V?$allocator@W4RaceDetailType@@@std@@@std@@@2@@Z
_TEXT	SEGMENT
___$ReturnUdt$ = 8					; size = 4
__Where$ = 12						; size = 4
?_Make_iter@?$vector@W4RaceDetailType@@V?$allocator@W4RaceDetailType@@@std@@@std@@QBE?AV?$_Vector_iterator@V?$_Vector_val@W4RaceDetailType@@V?$allocator@W4RaceDetailType@@@std@@@std@@@2@V?$_Vector_const_iterator@V?$_Vector_val@W4RaceDetailType@@V?$allocator@W4RaceDetailType@@@std@@@std@@@2@@Z PROC ; std::vector<enum RaceDetailType,std::allocator<enum RaceDetailType> >::_Make_iter, COMDAT
; _this$ = ecx

; 801  : 		{	// make iterator from const_iterator

  00000	55		 push	 ebp
  00001	8b ec		 mov	 ebp, esp

; 802  : 		return (iterator(_Where._Ptr, this));

  00003	8b 45 08	 mov	 eax, DWORD PTR ___$ReturnUdt$[ebp]
  00006	8b 4d 0c	 mov	 ecx, DWORD PTR __Where$[ebp]
  00009	89 08		 mov	 DWORD PTR [eax], ecx

; 803  : 		}

  0000b	5d		 pop	 ebp
  0000c	c2 08 00	 ret	 8
?_Make_iter@?$vector@W4RaceDetailType@@V?$allocator@W4RaceDetailType@@@std@@@std@@QBE?AV?$_Vector_iterator@V?$_Vector_val@W4RaceDetailType@@V?$allocator@W4RaceDetailType@@@std@@@std@@@2@V?$_Vector_const_iterator@V?$_Vector_val@W4RaceDetailType@@V?$allocator@W4RaceDetailType@@@std@@@std@@@2@@Z ENDP ; std::vector<enum RaceDetailType,std::allocator<enum RaceDetailType> >::_Make_iter
_TEXT	ENDS
PUBLIC	?_Destroy@?$vector@W4RaceDetailType@@V?$allocator@W4RaceDetailType@@@std@@@std@@IAEXPAW4RaceDetailType@@0@Z ; std::vector<enum RaceDetailType,std::allocator<enum RaceDetailType> >::_Destroy
; Function compile flags: /Ogsp
;	COMDAT ?_Destroy@?$vector@W4RaceDetailType@@V?$allocator@W4RaceDetailType@@@std@@@std@@IAEXPAW4RaceDetailType@@0@Z
_TEXT	SEGMENT
__First$ = 8						; size = 4
__Last$ = 12						; size = 4
?_Destroy@?$vector@W4RaceDetailType@@V?$allocator@W4RaceDetailType@@@std@@@std@@IAEXPAW4RaceDetailType@@0@Z PROC ; std::vector<enum RaceDetailType,std::allocator<enum RaceDetailType> >::_Destroy, COMDAT
; _this$ = ecx

; 1270 : 		_Destroy_range(_First, _Last, this->_Alval);
; 1271 : 		}

  00000	c2 08 00	 ret	 8
?_Destroy@?$vector@W4RaceDetailType@@V?$allocator@W4RaceDetailType@@@std@@@std@@IAEXPAW4RaceDetailType@@0@Z ENDP ; std::vector<enum RaceDetailType,std::allocator<enum RaceDetailType> >::_Destroy
_TEXT	ENDS
PUBLIC	?_Destroy@?$vector@PBVioItem@@V?$allocator@PBVioItem@@@std@@@std@@IAEXPAPBVioItem@@0@Z ; std::vector<ioItem const *,std::allocator<ioItem const *> >::_Destroy
; Function compile flags: /Ogsp
;	COMDAT ?_Destroy@?$vector@PBVioItem@@V?$allocator@PBVioItem@@@std@@@std@@IAEXPAPBVioItem@@0@Z
_TEXT	SEGMENT
__First$ = 8						; size = 4
__Last$ = 12						; size = 4
?_Destroy@?$vector@PBVioItem@@V?$allocator@PBVioItem@@@std@@@std@@IAEXPAPBVioItem@@0@Z PROC ; std::vector<ioItem const *,std::allocator<ioItem const *> >::_Destroy, COMDAT
; _this$ = ecx

; 1270 : 		_Destroy_range(_First, _Last, this->_Alval);
; 1271 : 		}

  00000	c2 08 00	 ret	 8
?_Destroy@?$vector@PBVioItem@@V?$allocator@PBVioItem@@@std@@@std@@IAEXPAPBVioItem@@0@Z ENDP ; std::vector<ioItem const *,std::allocator<ioItem const *> >::_Destroy
_TEXT	ENDS
PUBLIC	??9?$_Vector_const_iterator@V?$_Vector_val@V?$basic_string@DU?$char_traits@D@std@@V?$allocator@D@2@@std@@V?$allocator@V?$basic_string@DU?$char_traits@D@std@@V?$allocator@D@2@@std@@@2@@std@@@std@@QBE_NABV01@@Z ; std::_Vector_const_iterator<std::_Vector_val<std::basic_string<char,std::char_traits<char>,std::allocator<char> >,std::allocator<std::basic_string<char,std::char_traits<char>,std::allocator<char> > > > >::operator!=
; Function compile flags: /Ogsp
;	COMDAT ??9?$_Vector_const_iterator@V?$_Vector_val@V?$basic_string@DU?$char_traits@D@std@@V?$allocator@D@2@@std@@V?$allocator@V?$basic_string@DU?$char_traits@D@std@@V?$allocator@D@2@@std@@@2@@std@@@std@@QBE_NABV01@@Z
_TEXT	SEGMENT
__Right$ = 8						; size = 4
??9?$_Vector_const_iterator@V?$_Vector_val@V?$basic_string@DU?$char_traits@D@std@@V?$allocator@D@2@@std@@V?$allocator@V?$basic_string@DU?$char_traits@D@std@@V?$allocator@D@2@@std@@@2@@std@@@std@@QBE_NABV01@@Z PROC ; std::_Vector_const_iterator<std::_Vector_val<std::basic_string<char,std::char_traits<char>,std::allocator<char> >,std::allocator<std::basic_string<char,std::char_traits<char>,std::allocator<char> > > > >::operator!=, COMDAT
; _this$ = ecx

; 207  : 		{	// test for iterator inequality

  00000	55		 push	 ebp
  00001	8b ec		 mov	 ebp, esp

; 208  : 		return (!(*this == _Right));

  00003	8b 01		 mov	 eax, DWORD PTR [ecx]
  00005	8b 55 08	 mov	 edx, DWORD PTR __Right$[ebp]
  00008	33 c9		 xor	 ecx, ecx
  0000a	3b 02		 cmp	 eax, DWORD PTR [edx]
  0000c	0f 95 c0	 setne	 al

; 209  : 		}

  0000f	5d		 pop	 ebp
  00010	c2 04 00	 ret	 4
??9?$_Vector_const_iterator@V?$_Vector_val@V?$basic_string@DU?$char_traits@D@std@@V?$allocator@D@2@@std@@V?$allocator@V?$basic_string@DU?$char_traits@D@std@@V?$allocator@D@2@@std@@@2@@std@@@std@@QBE_NABV01@@Z ENDP ; std::_Vector_const_iterator<std::_Vector_val<std::basic_string<char,std::char_traits<char>,std::allocator<char> >,std::allocator<std::basic_string<char,std::char_traits<char>,std::allocator<char> > > > >::operator!=
_TEXT	ENDS
PUBLIC	??9?$_Vector_const_iterator@V?$_Vector_val@W4RaceDetailType@@V?$allocator@W4RaceDetailType@@@std@@@std@@@std@@QBE_NABV01@@Z ; std::_Vector_const_iterator<std::_Vector_val<enum RaceDetailType,std::allocator<enum RaceDetailType> > >::operator!=
; Function compile flags: /Ogsp
;	COMDAT ??9?$_Vector_const_iterator@V?$_Vector_val@W4RaceDetailType@@V?$allocator@W4RaceDetailType@@@std@@@std@@@std@@QBE_NABV01@@Z
_TEXT	SEGMENT
__Right$ = 8						; size = 4
??9?$_Vector_const_iterator@V?$_Vector_val@W4RaceDetailType@@V?$allocator@W4RaceDetailType@@@std@@@std@@@std@@QBE_NABV01@@Z PROC ; std::_Vector_const_iterator<std::_Vector_val<enum RaceDetailType,std::allocator<enum RaceDetailType> > >::operator!=, COMDAT
; _this$ = ecx

; 207  : 		{	// test for iterator inequality

  00000	55		 push	 ebp
  00001	8b ec		 mov	 ebp, esp

; 208  : 		return (!(*this == _Right));

  00003	8b 01		 mov	 eax, DWORD PTR [ecx]
  00005	8b 55 08	 mov	 edx, DWORD PTR __Right$[ebp]
  00008	33 c9		 xor	 ecx, ecx
  0000a	3b 02		 cmp	 eax, DWORD PTR [edx]
  0000c	0f 95 c0	 setne	 al

; 209  : 		}

  0000f	5d		 pop	 ebp
  00010	c2 04 00	 ret	 4
??9?$_Vector_const_iterator@V?$_Vector_val@W4RaceDetailType@@V?$allocator@W4RaceDetailType@@@std@@@std@@@std@@QBE_NABV01@@Z ENDP ; std::_Vector_const_iterator<std::_Vector_val<enum RaceDetailType,std::allocator<enum RaceDetailType> > >::operator!=
_TEXT	ENDS
PUBLIC	??$?0$0BM@@ioINILoader_e@@QAE@AAY0BM@$$CBD_N@Z	; ioINILoader_e::ioINILoader_e<28>
EXTRN	__imp_??0ioINILoader@@QAE@PBD_N@Z:PROC
; Function compile flags: /Ogsp
; File d:\lost saga for developer\youtube\tutorial\source\src\io3dengine\ioiniloader.h
;	COMDAT ??$?0$0BM@@ioINILoader_e@@QAE@AAY0BM@$$CBD_N@Z
_TEXT	SEGMENT
_fn$ = 8						; size = 4
_b$ = 12						; size = 1
??$?0$0BM@@ioINILoader_e@@QAE@AAY0BM@$$CBD_N@Z PROC	; ioINILoader_e::ioINILoader_e<28>, COMDAT
; _this$ = ecx

; 224  : 	{

  00000	55		 push	 ebp
  00001	8b ec		 mov	 ebp, esp
  00003	53		 push	 ebx
  00004	56		 push	 esi
  00005	57		 push	 edi
  00006	8b f9		 mov	 edi, ecx
  00008	8b 4d 08	 mov	 ecx, DWORD PTR _fn$[ebp]
  0000b	8a 11		 mov	 dl, BYTE PTR [ecx]
  0000d	8d 87 50 03 00
	00		 lea	 eax, DWORD PTR [edi+848]
  00013	84 d2		 test	 dl, dl
  00015	0f 84 6a 04 00
	00		 je	 $LN99@ioINILoade
  0001b	80 f2 ed	 xor	 dl, -19			; ffffffedH
  0001e	88 10		 mov	 BYTE PTR [eax], dl
  00020	8a 51 01	 mov	 dl, BYTE PTR [ecx+1]
  00023	84 d2		 test	 dl, dl
  00025	0f 84 54 04 00
	00		 je	 $LN98@ioINILoade
  0002b	80 f2 ec	 xor	 dl, -20			; ffffffecH
  0002e	88 50 01	 mov	 BYTE PTR [eax+1], dl
  00031	8a 51 02	 mov	 dl, BYTE PTR [ecx+2]
  00034	84 d2		 test	 dl, dl
  00036	0f 84 3d 04 00
	00		 je	 $LN97@ioINILoade
  0003c	b3 eb		 mov	 bl, -21			; ffffffebH
  0003e	32 d3		 xor	 dl, bl
  00040	88 50 02	 mov	 BYTE PTR [eax+2], dl
  00043	8a 51 03	 mov	 dl, BYTE PTR [ecx+3]
  00046	84 d2		 test	 dl, dl
  00048	0f 84 25 04 00
	00		 je	 $LN96@ioINILoade
  0004e	80 f2 ea	 xor	 dl, -22			; ffffffeaH
  00051	88 50 03	 mov	 BYTE PTR [eax+3], dl
  00054	8a 51 04	 mov	 dl, BYTE PTR [ecx+4]
  00057	84 d2		 test	 dl, dl
  00059	0f 84 0e 04 00
	00		 je	 $LN95@ioINILoade
  0005f	80 f2 ed	 xor	 dl, -19			; ffffffedH
  00062	88 50 04	 mov	 BYTE PTR [eax+4], dl
  00065	8a 51 05	 mov	 dl, BYTE PTR [ecx+5]
  00068	84 d2		 test	 dl, dl
  0006a	0f 84 f7 03 00
	00		 je	 $LN94@ioINILoade
  00070	80 f2 ec	 xor	 dl, -20			; ffffffecH
  00073	88 50 05	 mov	 BYTE PTR [eax+5], dl
  00076	8a 51 06	 mov	 dl, BYTE PTR [ecx+6]
  00079	84 d2		 test	 dl, dl
  0007b	0f 84 e1 03 00
	00		 je	 $LN93@ioINILoade
  00081	32 d3		 xor	 dl, bl
  00083	88 50 06	 mov	 BYTE PTR [eax+6], dl
  00086	8a 51 07	 mov	 dl, BYTE PTR [ecx+7]
  00089	84 d2		 test	 dl, dl
  0008b	0f 84 cb 03 00
	00		 je	 $LN92@ioINILoade
  00091	80 f2 ea	 xor	 dl, -22			; ffffffeaH
  00094	88 50 07	 mov	 BYTE PTR [eax+7], dl
  00097	8a 51 08	 mov	 dl, BYTE PTR [ecx+8]
  0009a	84 d2		 test	 dl, dl
  0009c	0f 84 b4 03 00
	00		 je	 $LN91@ioINILoade
  000a2	80 f2 ed	 xor	 dl, -19			; ffffffedH
  000a5	88 50 08	 mov	 BYTE PTR [eax+8], dl
  000a8	8a 51 09	 mov	 dl, BYTE PTR [ecx+9]
  000ab	84 d2		 test	 dl, dl
  000ad	0f 84 9d 03 00
	00		 je	 $LN90@ioINILoade
  000b3	80 f2 ec	 xor	 dl, -20			; ffffffecH
  000b6	88 50 09	 mov	 BYTE PTR [eax+9], dl
  000b9	8a 51 0a	 mov	 dl, BYTE PTR [ecx+10]
  000bc	84 d2		 test	 dl, dl
  000be	0f 84 87 03 00
	00		 je	 $LN89@ioINILoade
  000c4	32 d3		 xor	 dl, bl
  000c6	88 50 0a	 mov	 BYTE PTR [eax+10], dl
  000c9	8a 51 0b	 mov	 dl, BYTE PTR [ecx+11]
  000cc	84 d2		 test	 dl, dl
  000ce	0f 84 71 03 00
	00		 je	 $LN88@ioINILoade
  000d4	80 f2 ea	 xor	 dl, -22			; ffffffeaH
  000d7	88 50 0b	 mov	 BYTE PTR [eax+11], dl
  000da	8a 51 0c	 mov	 dl, BYTE PTR [ecx+12]
  000dd	84 d2		 test	 dl, dl
  000df	0f 84 5a 03 00
	00		 je	 $LN87@ioINILoade
  000e5	80 f2 ed	 xor	 dl, -19			; ffffffedH
  000e8	88 50 0c	 mov	 BYTE PTR [eax+12], dl
  000eb	8a 51 0d	 mov	 dl, BYTE PTR [ecx+13]
  000ee	84 d2		 test	 dl, dl
  000f0	0f 84 43 03 00
	00		 je	 $LN86@ioINILoade
  000f6	80 f2 ec	 xor	 dl, -20			; ffffffecH
  000f9	88 50 0d	 mov	 BYTE PTR [eax+13], dl
  000fc	8a 51 0e	 mov	 dl, BYTE PTR [ecx+14]
  000ff	84 d2		 test	 dl, dl
  00101	0f 84 2d 03 00
	00		 je	 $LN85@ioINILoade
  00107	32 d3		 xor	 dl, bl
  00109	88 50 0e	 mov	 BYTE PTR [eax+14], dl
  0010c	8a 51 0f	 mov	 dl, BYTE PTR [ecx+15]
  0010f	84 d2		 test	 dl, dl
  00111	0f 84 17 03 00
	00		 je	 $LN84@ioINILoade
  00117	80 f2 ea	 xor	 dl, -22			; ffffffeaH
  0011a	88 50 0f	 mov	 BYTE PTR [eax+15], dl
  0011d	8a 51 10	 mov	 dl, BYTE PTR [ecx+16]
  00120	84 d2		 test	 dl, dl
  00122	0f 84 00 03 00
	00		 je	 $LN83@ioINILoade
  00128	80 f2 ed	 xor	 dl, -19			; ffffffedH
  0012b	88 50 10	 mov	 BYTE PTR [eax+16], dl
  0012e	8a 51 11	 mov	 dl, BYTE PTR [ecx+17]
  00131	84 d2		 test	 dl, dl
  00133	0f 84 e9 02 00
	00		 je	 $LN82@ioINILoade
  00139	80 f2 ec	 xor	 dl, -20			; ffffffecH
  0013c	88 50 11	 mov	 BYTE PTR [eax+17], dl
  0013f	8a 51 12	 mov	 dl, BYTE PTR [ecx+18]
  00142	84 d2		 test	 dl, dl
  00144	0f 84 d3 02 00
	00		 je	 $LN81@ioINILoade
  0014a	32 d3		 xor	 dl, bl
  0014c	88 50 12	 mov	 BYTE PTR [eax+18], dl
  0014f	8a 51 13	 mov	 dl, BYTE PTR [ecx+19]
  00152	84 d2		 test	 dl, dl
  00154	0f 84 bd 02 00
	00		 je	 $LN80@ioINILoade
  0015a	80 f2 ea	 xor	 dl, -22			; ffffffeaH
  0015d	88 50 13	 mov	 BYTE PTR [eax+19], dl
  00160	8a 51 14	 mov	 dl, BYTE PTR [ecx+20]
  00163	84 d2		 test	 dl, dl
  00165	0f 84 a6 02 00
	00		 je	 $LN79@ioINILoade
  0016b	80 f2 ed	 xor	 dl, -19			; ffffffedH
  0016e	88 50 14	 mov	 BYTE PTR [eax+20], dl
  00171	8a 51 15	 mov	 dl, BYTE PTR [ecx+21]
  00174	84 d2		 test	 dl, dl
  00176	0f 84 8f 02 00
	00		 je	 $LN78@ioINILoade
  0017c	80 f2 ec	 xor	 dl, -20			; ffffffecH
  0017f	88 50 15	 mov	 BYTE PTR [eax+21], dl
  00182	8a 51 16	 mov	 dl, BYTE PTR [ecx+22]
  00185	84 d2		 test	 dl, dl
  00187	0f 84 79 02 00
	00		 je	 $LN77@ioINILoade
  0018d	32 d3		 xor	 dl, bl
  0018f	88 50 16	 mov	 BYTE PTR [eax+22], dl
  00192	8a 51 17	 mov	 dl, BYTE PTR [ecx+23]
  00195	84 d2		 test	 dl, dl
  00197	0f 84 60 02 00
	00		 je	 $LN76@ioINILoade
  0019d	80 f2 ea	 xor	 dl, -22			; ffffffeaH
  001a0	88 50 17	 mov	 BYTE PTR [eax+23], dl
  001a3	8a 51 18	 mov	 dl, BYTE PTR [ecx+24]
  001a6	84 d2		 test	 dl, dl
  001a8	0f 84 46 02 00
	00		 je	 $LN75@ioINILoade
  001ae	80 f2 ed	 xor	 dl, -19			; ffffffedH
  001b1	88 50 18	 mov	 BYTE PTR [eax+24], dl
  001b4	8a 51 19	 mov	 dl, BYTE PTR [ecx+25]
  001b7	84 d2		 test	 dl, dl
  001b9	0f 84 2c 02 00
	00		 je	 $LN74@ioINILoade
  001bf	80 f2 ec	 xor	 dl, -20			; ffffffecH
  001c2	88 50 19	 mov	 BYTE PTR [eax+25], dl
  001c5	8a 51 1a	 mov	 dl, BYTE PTR [ecx+26]
  001c8	84 d2		 test	 dl, dl
  001ca	0f 84 13 02 00
	00		 je	 $LN73@ioINILoade
  001d0	32 d3		 xor	 dl, bl
  001d2	88 50 1a	 mov	 BYTE PTR [eax+26], dl
  001d5	8a 51 1b	 mov	 dl, BYTE PTR [ecx+27]
  001d8	84 d2		 test	 dl, dl
  001da	0f 84 fa 01 00
	00		 je	 $LN72@ioINILoade
  001e0	80 f2 ea	 xor	 dl, -22			; ffffffeaH
  001e3	88 50 1b	 mov	 BYTE PTR [eax+27], dl
  001e6	8a 51 1c	 mov	 dl, BYTE PTR [ecx+28]
  001e9	84 d2		 test	 dl, dl
  001eb	0f 84 e0 01 00
	00		 je	 $LN71@ioINILoade
  001f1	80 f2 ed	 xor	 dl, -19			; ffffffedH
  001f4	88 50 1c	 mov	 BYTE PTR [eax+28], dl
  001f7	8a 51 1d	 mov	 dl, BYTE PTR [ecx+29]
  001fa	84 d2		 test	 dl, dl
  001fc	0f 84 c6 01 00
	00		 je	 $LN70@ioINILoade
  00202	80 f2 ec	 xor	 dl, -20			; ffffffecH
  00205	88 50 1d	 mov	 BYTE PTR [eax+29], dl
  00208	8a 51 1e	 mov	 dl, BYTE PTR [ecx+30]
  0020b	84 d2		 test	 dl, dl
  0020d	0f 84 ad 01 00
	00		 je	 $LN69@ioINILoade
  00213	32 d3		 xor	 dl, bl
  00215	88 50 1e	 mov	 BYTE PTR [eax+30], dl
  00218	8a 51 1f	 mov	 dl, BYTE PTR [ecx+31]
  0021b	84 d2		 test	 dl, dl
  0021d	0f 84 94 01 00
	00		 je	 $LN68@ioINILoade
  00223	80 f2 ea	 xor	 dl, -22			; ffffffeaH
  00226	88 50 1f	 mov	 BYTE PTR [eax+31], dl
  00229	8a 51 20	 mov	 dl, BYTE PTR [ecx+32]
  0022c	84 d2		 test	 dl, dl
  0022e	0f 84 7a 01 00
	00		 je	 $LN67@ioINILoade
  00234	80 f2 ed	 xor	 dl, -19			; ffffffedH
  00237	88 50 20	 mov	 BYTE PTR [eax+32], dl
  0023a	8a 51 21	 mov	 dl, BYTE PTR [ecx+33]
  0023d	84 d2		 test	 dl, dl
  0023f	0f 84 60 01 00
	00		 je	 $LN66@ioINILoade
  00245	80 f2 ec	 xor	 dl, -20			; ffffffecH
  00248	88 50 21	 mov	 BYTE PTR [eax+33], dl
  0024b	8a 51 22	 mov	 dl, BYTE PTR [ecx+34]
  0024e	84 d2		 test	 dl, dl
  00250	0f 84 47 01 00
	00		 je	 $LN65@ioINILoade
  00256	32 d3		 xor	 dl, bl
  00258	88 50 22	 mov	 BYTE PTR [eax+34], dl
  0025b	8a 51 23	 mov	 dl, BYTE PTR [ecx+35]
  0025e	84 d2		 test	 dl, dl
  00260	0f 84 2e 01 00
	00		 je	 $LN64@ioINILoade
  00266	80 f2 ea	 xor	 dl, -22			; ffffffeaH
  00269	88 50 23	 mov	 BYTE PTR [eax+35], dl
  0026c	8a 51 24	 mov	 dl, BYTE PTR [ecx+36]
  0026f	84 d2		 test	 dl, dl
  00271	0f 84 14 01 00
	00		 je	 $LN63@ioINILoade
  00277	80 f2 ed	 xor	 dl, -19			; ffffffedH
  0027a	88 50 24	 mov	 BYTE PTR [eax+36], dl
  0027d	8a 51 25	 mov	 dl, BYTE PTR [ecx+37]
  00280	84 d2		 test	 dl, dl
  00282	0f 84 fa 00 00
	00		 je	 $LN62@ioINILoade
  00288	80 f2 ec	 xor	 dl, -20			; ffffffecH
  0028b	88 50 25	 mov	 BYTE PTR [eax+37], dl
  0028e	8a 51 26	 mov	 dl, BYTE PTR [ecx+38]
  00291	84 d2		 test	 dl, dl
  00293	0f 84 e1 00 00
	00		 je	 $LN61@ioINILoade
  00299	32 d3		 xor	 dl, bl
  0029b	88 50 26	 mov	 BYTE PTR [eax+38], dl
  0029e	8a 51 27	 mov	 dl, BYTE PTR [ecx+39]
  002a1	84 d2		 test	 dl, dl
  002a3	0f 84 c8 00 00
	00		 je	 $LN60@ioINILoade
  002a9	80 f2 ea	 xor	 dl, -22			; ffffffeaH
  002ac	88 50 27	 mov	 BYTE PTR [eax+39], dl
  002af	8a 51 28	 mov	 dl, BYTE PTR [ecx+40]
  002b2	84 d2		 test	 dl, dl
  002b4	0f 84 ae 00 00
	00		 je	 $LN59@ioINILoade
  002ba	80 f2 ed	 xor	 dl, -19			; ffffffedH
  002bd	88 50 28	 mov	 BYTE PTR [eax+40], dl
  002c0	8a 51 29	 mov	 dl, BYTE PTR [ecx+41]
  002c3	84 d2		 test	 dl, dl
  002c5	0f 84 94 00 00
	00		 je	 $LN58@ioINILoade
  002cb	80 f2 ec	 xor	 dl, -20			; ffffffecH
  002ce	88 50 29	 mov	 BYTE PTR [eax+41], dl
  002d1	8a 51 2a	 mov	 dl, BYTE PTR [ecx+42]
  002d4	84 d2		 test	 dl, dl
  002d6	74 7f		 je	 SHORT $LN57@ioINILoade
  002d8	32 d3		 xor	 dl, bl
  002da	88 50 2a	 mov	 BYTE PTR [eax+42], dl
  002dd	8a 51 2b	 mov	 dl, BYTE PTR [ecx+43]
  002e0	84 d2		 test	 dl, dl
  002e2	74 6a		 je	 SHORT $LN56@ioINILoade
  002e4	80 f2 ea	 xor	 dl, -22			; ffffffeaH
  002e7	88 50 2b	 mov	 BYTE PTR [eax+43], dl
  002ea	8a 51 2c	 mov	 dl, BYTE PTR [ecx+44]
  002ed	84 d2		 test	 dl, dl
  002ef	74 54		 je	 SHORT $LN55@ioINILoade
  002f1	80 f2 ed	 xor	 dl, -19			; ffffffedH
  002f4	88 50 2c	 mov	 BYTE PTR [eax+44], dl
  002f7	8a 51 2d	 mov	 dl, BYTE PTR [ecx+45]
  002fa	84 d2		 test	 dl, dl
  002fc	74 3e		 je	 SHORT $LN54@ioINILoade
  002fe	80 f2 ec	 xor	 dl, -20			; ffffffecH
  00301	88 50 2d	 mov	 BYTE PTR [eax+45], dl
  00304	8a 51 2e	 mov	 dl, BYTE PTR [ecx+46]
  00307	84 d2		 test	 dl, dl
  00309	74 29		 je	 SHORT $LN53@ioINILoade
  0030b	32 d3		 xor	 dl, bl
  0030d	88 50 2e	 mov	 BYTE PTR [eax+46], dl
  00310	8a 51 2f	 mov	 dl, BYTE PTR [ecx+47]
  00313	84 d2		 test	 dl, dl
  00315	74 14		 je	 SHORT $LN52@ioINILoade
  00317	80 f2 ea	 xor	 dl, -22			; ffffffeaH
  0031a	88 50 2f	 mov	 BYTE PTR [eax+47], dl
  0031d	8a 49 30	 mov	 cl, BYTE PTR [ecx+48]
  00320	80 f1 ed	 xor	 cl, -19			; ffffffedH
  00323	88 48 30	 mov	 BYTE PTR [eax+48], cl
  00326	e9 5d 01 00 00	 jmp	 $LN4@ioINILoade
$LN52@ioINILoade:
  0032b	c6 40 2f ea	 mov	 BYTE PTR [eax+47], -22	; ffffffeaH
  0032f	e9 54 01 00 00	 jmp	 $LN4@ioINILoade
$LN53@ioINILoade:
  00334	88 58 2e	 mov	 BYTE PTR [eax+46], bl
  00337	e9 4c 01 00 00	 jmp	 $LN4@ioINILoade
$LN54@ioINILoade:
  0033c	c6 40 2d ec	 mov	 BYTE PTR [eax+45], -20	; ffffffecH
  00340	e9 43 01 00 00	 jmp	 $LN4@ioINILoade
$LN55@ioINILoade:
  00345	c6 40 2c ed	 mov	 BYTE PTR [eax+44], -19	; ffffffedH
  00349	e9 3a 01 00 00	 jmp	 $LN4@ioINILoade
$LN56@ioINILoade:
  0034e	c6 40 2b ea	 mov	 BYTE PTR [eax+43], -22	; ffffffeaH
  00352	e9 31 01 00 00	 jmp	 $LN4@ioINILoade
$LN57@ioINILoade:
  00357	88 58 2a	 mov	 BYTE PTR [eax+42], bl
  0035a	e9 29 01 00 00	 jmp	 $LN4@ioINILoade
$LN58@ioINILoade:
  0035f	c6 40 29 ec	 mov	 BYTE PTR [eax+41], -20	; ffffffecH
  00363	e9 20 01 00 00	 jmp	 $LN4@ioINILoade
$LN59@ioINILoade:
  00368	c6 40 28 ed	 mov	 BYTE PTR [eax+40], -19	; ffffffedH
  0036c	e9 17 01 00 00	 jmp	 $LN4@ioINILoade
$LN60@ioINILoade:
  00371	c6 40 27 ea	 mov	 BYTE PTR [eax+39], -22	; ffffffeaH
  00375	e9 0e 01 00 00	 jmp	 $LN4@ioINILoade
$LN61@ioINILoade:
  0037a	88 58 26	 mov	 BYTE PTR [eax+38], bl
  0037d	e9 06 01 00 00	 jmp	 $LN4@ioINILoade
$LN62@ioINILoade:
  00382	c6 40 25 ec	 mov	 BYTE PTR [eax+37], -20	; ffffffecH
  00386	e9 fd 00 00 00	 jmp	 $LN4@ioINILoade
$LN63@ioINILoade:
  0038b	c6 40 24 ed	 mov	 BYTE PTR [eax+36], -19	; ffffffedH
  0038f	e9 f4 00 00 00	 jmp	 $LN4@ioINILoade
$LN64@ioINILoade:
  00394	c6 40 23 ea	 mov	 BYTE PTR [eax+35], -22	; ffffffeaH
  00398	e9 eb 00 00 00	 jmp	 $LN4@ioINILoade
$LN65@ioINILoade:
  0039d	88 58 22	 mov	 BYTE PTR [eax+34], bl
  003a0	e9 e3 00 00 00	 jmp	 $LN4@ioINILoade
$LN66@ioINILoade:
  003a5	c6 40 21 ec	 mov	 BYTE PTR [eax+33], -20	; ffffffecH
  003a9	e9 da 00 00 00	 jmp	 $LN4@ioINILoade
$LN67@ioINILoade:
  003ae	c6 40 20 ed	 mov	 BYTE PTR [eax+32], -19	; ffffffedH
  003b2	e9 d1 00 00 00	 jmp	 $LN4@ioINILoade
$LN68@ioINILoade:
  003b7	c6 40 1f ea	 mov	 BYTE PTR [eax+31], -22	; ffffffeaH
  003bb	e9 c8 00 00 00	 jmp	 $LN4@ioINILoade
$LN69@ioINILoade:
  003c0	88 58 1e	 mov	 BYTE PTR [eax+30], bl
  003c3	e9 c0 00 00 00	 jmp	 $LN4@ioINILoade
$LN70@ioINILoade:
  003c8	c6 40 1d ec	 mov	 BYTE PTR [eax+29], -20	; ffffffecH
  003cc	e9 b7 00 00 00	 jmp	 $LN4@ioINILoade
$LN71@ioINILoade:
  003d1	c6 40 1c ed	 mov	 BYTE PTR [eax+28], -19	; ffffffedH
  003d5	e9 ae 00 00 00	 jmp	 $LN4@ioINILoade
$LN72@ioINILoade:
  003da	c6 40 1b ea	 mov	 BYTE PTR [eax+27], -22	; ffffffeaH
  003de	e9 a5 00 00 00	 jmp	 $LN4@ioINILoade
$LN73@ioINILoade:
  003e3	88 58 1a	 mov	 BYTE PTR [eax+26], bl
  003e6	e9 9d 00 00 00	 jmp	 $LN4@ioINILoade
$LN74@ioINILoade:
  003eb	c6 40 19 ec	 mov	 BYTE PTR [eax+25], -20	; ffffffecH
  003ef	e9 94 00 00 00	 jmp	 $LN4@ioINILoade
$LN75@ioINILoade:
  003f4	c6 40 18 ed	 mov	 BYTE PTR [eax+24], -19	; ffffffedH
  003f8	e9 8b 00 00 00	 jmp	 $LN4@ioINILoade
$LN76@ioINILoade:
  003fd	c6 40 17 ea	 mov	 BYTE PTR [eax+23], -22	; ffffffeaH
  00401	e9 82 00 00 00	 jmp	 $LN4@ioINILoade
$LN77@ioINILoade:
  00406	88 58 16	 mov	 BYTE PTR [eax+22], bl
  00409	eb 7d		 jmp	 SHORT $LN4@ioINILoade
$LN78@ioINILoade:
  0040b	c6 40 15 ec	 mov	 BYTE PTR [eax+21], -20	; ffffffecH
  0040f	eb 77		 jmp	 SHORT $LN4@ioINILoade
$LN79@ioINILoade:
  00411	c6 40 14 ed	 mov	 BYTE PTR [eax+20], -19	; ffffffedH
  00415	eb 71		 jmp	 SHORT $LN4@ioINILoade
$LN80@ioINILoade:
  00417	c6 40 13 ea	 mov	 BYTE PTR [eax+19], -22	; ffffffeaH
  0041b	eb 6b		 jmp	 SHORT $LN4@ioINILoade
$LN81@ioINILoade:
  0041d	88 58 12	 mov	 BYTE PTR [eax+18], bl
  00420	eb 66		 jmp	 SHORT $LN4@ioINILoade
$LN82@ioINILoade:
  00422	c6 40 11 ec	 mov	 BYTE PTR [eax+17], -20	; ffffffecH
  00426	eb 60		 jmp	 SHORT $LN4@ioINILoade
$LN83@ioINILoade:
  00428	c6 40 10 ed	 mov	 BYTE PTR [eax+16], -19	; ffffffedH
  0042c	eb 5a		 jmp	 SHORT $LN4@ioINILoade
$LN84@ioINILoade:
  0042e	c6 40 0f ea	 mov	 BYTE PTR [eax+15], -22	; ffffffeaH
  00432	eb 54		 jmp	 SHORT $LN4@ioINILoade
$LN85@ioINILoade:
  00434	88 58 0e	 mov	 BYTE PTR [eax+14], bl
  00437	eb 4f		 jmp	 SHORT $LN4@ioINILoade
$LN86@ioINILoade:
  00439	c6 40 0d ec	 mov	 BYTE PTR [eax+13], -20	; ffffffecH
  0043d	eb 49		 jmp	 SHORT $LN4@ioINILoade
$LN87@ioINILoade:
  0043f	c6 40 0c ed	 mov	 BYTE PTR [eax+12], -19	; ffffffedH
  00443	eb 43		 jmp	 SHORT $LN4@ioINILoade
$LN88@ioINILoade:
  00445	c6 40 0b ea	 mov	 BYTE PTR [eax+11], -22	; ffffffeaH
  00449	eb 3d		 jmp	 SHORT $LN4@ioINILoade
$LN89@ioINILoade:
  0044b	88 58 0a	 mov	 BYTE PTR [eax+10], bl
  0044e	eb 38		 jmp	 SHORT $LN4@ioINILoade
$LN90@ioINILoade:
  00450	c6 40 09 ec	 mov	 BYTE PTR [eax+9], -20	; ffffffecH
  00454	eb 32		 jmp	 SHORT $LN4@ioINILoade
$LN91@ioINILoade:
  00456	c6 40 08 ed	 mov	 BYTE PTR [eax+8], -19	; ffffffedH
  0045a	eb 2c		 jmp	 SHORT $LN4@ioINILoade
$LN92@ioINILoade:
  0045c	c6 40 07 ea	 mov	 BYTE PTR [eax+7], -22	; ffffffeaH
  00460	eb 26		 jmp	 SHORT $LN4@ioINILoade
$LN93@ioINILoade:
  00462	88 58 06	 mov	 BYTE PTR [eax+6], bl
  00465	eb 21		 jmp	 SHORT $LN4@ioINILoade
$LN94@ioINILoade:
  00467	c6 40 05 ec	 mov	 BYTE PTR [eax+5], -20	; ffffffecH
  0046b	eb 1b		 jmp	 SHORT $LN4@ioINILoade
$LN95@ioINILoade:
  0046d	c6 40 04 ed	 mov	 BYTE PTR [eax+4], -19	; ffffffedH
  00471	eb 15		 jmp	 SHORT $LN4@ioINILoade
$LN96@ioINILoade:
  00473	c6 40 03 ea	 mov	 BYTE PTR [eax+3], -22	; ffffffeaH
  00477	eb 0f		 jmp	 SHORT $LN4@ioINILoade
$LN97@ioINILoade:
  00479	c6 40 02 eb	 mov	 BYTE PTR [eax+2], -21	; ffffffebH
  0047d	eb 09		 jmp	 SHORT $LN4@ioINILoade
$LN98@ioINILoade:
  0047f	c6 40 01 ec	 mov	 BYTE PTR [eax+1], -20	; ffffffecH
  00483	eb 03		 jmp	 SHORT $LN4@ioINILoade
$LN99@ioINILoade:
  00485	c6 00 ed	 mov	 BYTE PTR [eax], -19	; ffffffedH
$LN4@ioINILoade:
  00488	6a 06		 push	 6
  0048a	8b c8		 mov	 ecx, eax
  0048c	c6 40 1b 00	 mov	 BYTE PTR [eax+27], 0
  00490	5a		 pop	 edx
$LL107@ioINILoade:
  00491	81 31 ed ec eb
	ea		 xor	 DWORD PTR [ecx], -353637139 ; eaebecedH
  00497	83 c1 04	 add	 ecx, 4
  0049a	4a		 dec	 edx
  0049b	75 f4		 jne	 SHORT $LL107@ioINILoade
  0049d	6a 18		 push	 24			; 00000018H
  0049f	5e		 pop	 esi
$LL104@ioINILoade:
  004a0	8b ce		 mov	 ecx, esi
  004a2	81 e1 03 00 00
	80		 and	 ecx, -2147483645	; 80000003H
  004a8	79 05		 jns	 SHORT $LN114@ioINILoade
  004aa	49		 dec	 ecx
  004ab	83 c9 fc	 or	 ecx, -4			; fffffffcH
  004ae	41		 inc	 ecx
$LN114@ioINILoade:
  004af	b2 ed		 mov	 dl, -19			; ffffffedH
  004b1	2a d1		 sub	 dl, cl
  004b3	30 14 06	 xor	 BYTE PTR [esi+eax], dl
  004b6	46		 inc	 esi
  004b7	83 fe 1b	 cmp	 esi, 27			; 0000001bH
  004ba	7c e4		 jl	 SHORT $LL104@ioINILoade
  004bc	ff 75 0c	 push	 DWORD PTR _b$[ebp]
  004bf	8b cf		 mov	 ecx, edi
  004c1	50		 push	 eax
  004c2	ff 15 00 00 00
	00		 call	 DWORD PTR __imp_??0ioINILoader@@QAE@PBD_N@Z

; 225  : 	}

  004c8	8b c7		 mov	 eax, edi
  004ca	5f		 pop	 edi
  004cb	5e		 pop	 esi
  004cc	5b		 pop	 ebx
  004cd	5d		 pop	 ebp
  004ce	c2 08 00	 ret	 8
??$?0$0BM@@ioINILoader_e@@QAE@AAY0BM@$$CBD_N@Z ENDP	; ioINILoader_e::ioINILoader_e<28>
_TEXT	ENDS
PUBLIC	??$_Umove@PAW4RaceDetailType@@@?$vector@W4RaceDetailType@@V?$allocator@W4RaceDetailType@@@std@@@std@@IAEPAW4RaceDetailType@@PAW42@00@Z ; std::vector<enum RaceDetailType,std::allocator<enum RaceDetailType> >::_Umove<enum RaceDetailType *>
; Function compile flags: /Ogsp
; File c:\program files (x86)\microsoft visual studio 10.0\vc\include\vector
;	COMDAT ??$_Umove@PAW4RaceDetailType@@@?$vector@W4RaceDetailType@@V?$allocator@W4RaceDetailType@@@std@@@std@@IAEPAW4RaceDetailType@@PAW42@00@Z
_TEXT	SEGMENT
__First$ = 8						; size = 4
__Last$ = 12						; size = 4
__Ptr$ = 16						; size = 4
??$_Umove@PAW4RaceDetailType@@@?$vector@W4RaceDetailType@@V?$allocator@W4RaceDetailType@@@std@@@std@@IAEPAW4RaceDetailType@@PAW42@00@Z PROC ; std::vector<enum RaceDetailType,std::allocator<enum RaceDetailType> >::_Umove<enum RaceDetailType *>, COMDAT
; _this$ = ecx

; 1322 : 		pointer _Umove(_Iter _First, _Iter _Last, pointer _Ptr)

  00000	55		 push	 ebp
  00001	8b ec		 mov	 ebp, esp

; 1323 : 		{	// move initializing [_First, _Last), using allocator
; 1324 : 		return (_Uninitialized_move(_First, _Last,
; 1325 : 			_Ptr, this->_Alval));

  00003	83 c1 0c	 add	 ecx, 12			; 0000000cH
  00006	51		 push	 ecx
  00007	ff 75 10	 push	 DWORD PTR __Ptr$[ebp]
  0000a	ff 75 0c	 push	 DWORD PTR __Last$[ebp]
  0000d	ff 75 08	 push	 DWORD PTR __First$[ebp]
  00010	e8 00 00 00 00	 call	 ??$_Uninitialized_move@PAW4RaceDetailType@@PAW41@V?$allocator@W4RaceDetailType@@@std@@@std@@YAPAW4RaceDetailType@@PAW41@00AAV?$allocator@W4RaceDetailType@@@0@@Z ; std::_Uninitialized_move<enum RaceDetailType *,enum RaceDetailType *,std::allocator<enum RaceDetailType> >
  00015	83 c4 10	 add	 esp, 16			; 00000010H

; 1326 : 		}

  00018	5d		 pop	 ebp
  00019	c2 0c 00	 ret	 12			; 0000000cH
??$_Umove@PAW4RaceDetailType@@@?$vector@W4RaceDetailType@@V?$allocator@W4RaceDetailType@@@std@@@std@@IAEPAW4RaceDetailType@@PAW42@00@Z ENDP ; std::vector<enum RaceDetailType,std::allocator<enum RaceDetailType> >::_Umove<enum RaceDetailType *>
_TEXT	ENDS
PUBLIC	?Init@CHARACTER@@QAEXXZ				; CHARACTER::Init
; Function compile flags: /Ogsp
; File d:\lost saga for developer\youtube\tutorial\source\src\lsclient\characterinfo.h
;	COMDAT ?Init@CHARACTER@@QAEXXZ
_TEXT	SEGMENT
_value$511628 = -12					; size = 4
tv151 = -8						; size = 4
_value$511624 = -8					; size = 4
_value$511620 = -8					; size = 4
_value$511616 = -8					; size = 4
_value$511612 = -8					; size = 4
_value$511608 = -8					; size = 4
_value$511604 = -8					; size = 4
_value$511600 = -8					; size = 4
_value$511596 = -8					; size = 4
_value$511592 = -8					; size = 4
_value$511588 = -8					; size = 4
tv307 = -4						; size = 4
?Init@CHARACTER@@QAEXXZ PROC				; CHARACTER::Init, COMDAT
; _this$ = ecx

; 350  : 	{

  00000	55		 push	 ebp
  00001	8b ec		 mov	 ebp, esp
  00003	83 ec 0c	 sub	 esp, 12			; 0000000cH
  00006	53		 push	 ebx
  00007	56		 push	 esi
  00008	57		 push	 edi

; 351  : 		m_class_type	    = 0;

  00009	8d 45 f8	 lea	 eax, DWORD PTR _value$511588[ebp]
  0000c	33 ff		 xor	 edi, edi
  0000e	50		 push	 eax
  0000f	8b f1		 mov	 esi, ecx
  00011	89 7d f8	 mov	 DWORD PTR _value$511588[ebp], edi
  00014	e8 00 00 00 00	 call	 ?EncryptValueToPool@?$CEncrypt@H@@AAEXPBD@Z ; CEncrypt<int>::EncryptValueToPool

; 352  : 		m_kindred			= 1;

  00019	33 db		 xor	 ebx, ebx
  0001b	8d 45 f8	 lea	 eax, DWORD PTR _value$511592[ebp]
  0001e	43		 inc	 ebx
  0001f	50		 push	 eax
  00020	8d 4e 30	 lea	 ecx, DWORD PTR [esi+48]
  00023	89 5d f8	 mov	 DWORD PTR _value$511592[ebp], ebx
  00026	e8 00 00 00 00	 call	 ?EncryptValueToPool@?$CEncrypt@H@@AAEXPBD@Z ; CEncrypt<int>::EncryptValueToPool

; 353  : 		m_sex				= 1;

  0002b	8d 45 f8	 lea	 eax, DWORD PTR _value$511596[ebp]
  0002e	50		 push	 eax
  0002f	8d 4e 60	 lea	 ecx, DWORD PTR [esi+96]
  00032	89 5d f8	 mov	 DWORD PTR _value$511596[ebp], ebx
  00035	e8 00 00 00 00	 call	 ?EncryptValueToPool@?$CEncrypt@H@@AAEXPBD@Z ; CEncrypt<int>::EncryptValueToPool

; 354  : 		m_beard				= 1;

  0003a	8d 45 f8	 lea	 eax, DWORD PTR _value$511600[ebp]
  0003d	50		 push	 eax
  0003e	8d 8e 90 00 00
	00		 lea	 ecx, DWORD PTR [esi+144]
  00044	89 5d f8	 mov	 DWORD PTR _value$511600[ebp], ebx
  00047	e8 00 00 00 00	 call	 ?EncryptValueToPool@?$CEncrypt@H@@AAEXPBD@Z ; CEncrypt<int>::EncryptValueToPool

; 355  : 		m_face				= 1;

  0004c	8d 45 f8	 lea	 eax, DWORD PTR _value$511604[ebp]
  0004f	50		 push	 eax
  00050	8d 8e c0 00 00
	00		 lea	 ecx, DWORD PTR [esi+192]
  00056	89 5d f8	 mov	 DWORD PTR _value$511604[ebp], ebx
  00059	e8 00 00 00 00	 call	 ?EncryptValueToPool@?$CEncrypt@H@@AAEXPBD@Z ; CEncrypt<int>::EncryptValueToPool

; 356  : 		m_hair				= 1;

  0005e	8d 45 f8	 lea	 eax, DWORD PTR _value$511608[ebp]
  00061	50		 push	 eax
  00062	8d 8e f0 00 00
	00		 lea	 ecx, DWORD PTR [esi+240]
  00068	89 5d f8	 mov	 DWORD PTR _value$511608[ebp], ebx
  0006b	e8 00 00 00 00	 call	 ?EncryptValueToPool@?$CEncrypt@H@@AAEXPBD@Z ; CEncrypt<int>::EncryptValueToPool

; 357  : 		m_skin_color		= 1;

  00070	8d 45 f8	 lea	 eax, DWORD PTR _value$511612[ebp]
  00073	50		 push	 eax
  00074	8d 8e 20 01 00
	00		 lea	 ecx, DWORD PTR [esi+288]
  0007a	89 5d f8	 mov	 DWORD PTR _value$511612[ebp], ebx
  0007d	e8 00 00 00 00	 call	 ?EncryptValueToPool@?$CEncrypt@H@@AAEXPBD@Z ; CEncrypt<int>::EncryptValueToPool

; 358  : 		m_hair_color		= 1;

  00082	8d 45 f8	 lea	 eax, DWORD PTR _value$511616[ebp]
  00085	50		 push	 eax
  00086	8d 8e 50 01 00
	00		 lea	 ecx, DWORD PTR [esi+336]
  0008c	89 5d f8	 mov	 DWORD PTR _value$511616[ebp], ebx
  0008f	e8 00 00 00 00	 call	 ?EncryptValueToPool@?$CEncrypt@H@@AAEXPBD@Z ; CEncrypt<int>::EncryptValueToPool

; 359  : 		m_accessories		= 1;

  00094	8d 45 f8	 lea	 eax, DWORD PTR _value$511620[ebp]
  00097	50		 push	 eax
  00098	8d 8e 80 01 00
	00		 lea	 ecx, DWORD PTR [esi+384]
  0009e	89 5d f8	 mov	 DWORD PTR _value$511620[ebp], ebx
  000a1	e8 00 00 00 00	 call	 ?EncryptValueToPool@?$CEncrypt@H@@AAEXPBD@Z ; CEncrypt<int>::EncryptValueToPool

; 360  : 		m_underwear			= 1;

  000a6	8d 45 f8	 lea	 eax, DWORD PTR _value$511624[ebp]
  000a9	50		 push	 eax
  000aa	8d 8e b0 01 00
	00		 lea	 ecx, DWORD PTR [esi+432]
  000b0	89 5d f8	 mov	 DWORD PTR _value$511624[ebp], ebx
  000b3	e8 00 00 00 00	 call	 ?EncryptValueToPool@?$CEncrypt@H@@AAEXPBD@Z ; CEncrypt<int>::EncryptValueToPool
  000b8	8d 86 e0 01 00
	00		 lea	 eax, DWORD PTR [esi+480]
  000be	89 45 fc	 mov	 DWORD PTR tv307[ebp], eax
  000c1	c7 45 f8 04 00
	00 00		 mov	 DWORD PTR tv151[ebp], 4
$LL44@Init@2:

; 361  : 
; 362  : 		for(int i = 0; i < MAX_INVENTORY ; i++ )
; 363  : 			m_extra_item[i]	= 0;

  000c8	8b 4d fc	 mov	 ecx, DWORD PTR tv307[ebp]
  000cb	8d 45 f4	 lea	 eax, DWORD PTR _value$511628[ebp]
  000ce	50		 push	 eax
  000cf	89 7d f4	 mov	 DWORD PTR _value$511628[ebp], edi
  000d2	e8 00 00 00 00	 call	 ?EncryptValueToPool@?$CEncrypt@H@@AAEXPBD@Z ; CEncrypt<int>::EncryptValueToPool
  000d7	83 45 fc 30	 add	 DWORD PTR tv307[ebp], 48 ; 00000030H
  000db	ff 4d f8	 dec	 DWORD PTR tv151[ebp]
  000de	75 e8		 jne	 SHORT $LL44@Init@2

; 364  : 
; 365  : 		m_iSlotIndex		= -1;

  000e0	83 8e a0 02 00
	00 ff		 or	 DWORD PTR [esi+672], -1

; 366  : 		m_iLimitSecond		= 0;
; 367  : 
; 368  : 		m_sLeaderType		= CLT_GENERAL;

  000e7	33 c0		 xor	 eax, eax
  000e9	6a 04		 push	 4
  000eb	66 89 86 a8 02
	00 00		 mov	 WORD PTR [esi+680], ax

; 369  : 		m_sRentalType		= CRT_GENERAL;

  000f2	66 89 86 aa 02
	00 00		 mov	 WORD PTR [esi+682], ax

; 370  : 		m_dwRentalMinute	= 0;
; 371  : 		m_ePeriodType		= CPT_TIME;
; 372  : 
; 373  : 		m_bActive			= true;
; 374  : 		m_chExerciseStyle	= 0x00;

  000f9	66 89 86 b5 02
	00 00		 mov	 WORD PTR [esi+693], ax

; 375  : 
; 376  : 		m_iAwakeType		= AWAKE_NONE;
; 377  : 		m_iAwakeLimitTime	= 0;
; 378  : 
; 379  : 		m_eCharPowerUpType = PUGT_NONE;

  00100	88 86 bc 02 00
	00		 mov	 BYTE PTR [esi+700], al
  00106	89 be a4 02 00
	00		 mov	 DWORD PTR [esi+676], edi
  0010c	89 be ac 02 00
	00		 mov	 DWORD PTR [esi+684], edi
  00112	89 be b0 02 00
	00		 mov	 DWORD PTR [esi+688], edi
  00118	88 9e b4 02 00
	00		 mov	 BYTE PTR [esi+692], bl
  0011e	89 be b8 02 00
	00		 mov	 DWORD PTR [esi+696], edi
  00124	8d 86 c8 02 00
	00		 lea	 eax, DWORD PTR [esi+712]
  0012a	59		 pop	 ecx
$LL6@Init@2:

; 380  : 
; 381  : 		for(int i = 0; i < MAX_INVENTORY ; i++ )
; 382  : 			m_EquipCostume[i].Init();

  0012b	89 78 f8	 mov	 DWORD PTR [eax-8], edi
  0012e	89 78 fc	 mov	 DWORD PTR [eax-4], edi
  00131	89 38		 mov	 DWORD PTR [eax], edi
  00133	89 78 04	 mov	 DWORD PTR [eax+4], edi
  00136	83 c0 10	 add	 eax, 16			; 00000010H
  00139	49		 dec	 ecx
  0013a	75 ef		 jne	 SHORT $LL6@Init@2

; 383  : 		for(int i = 0; i < MAX_ACC_INVENTORY ; i++ )

  0013c	6a 03		 push	 3
  0013e	81 c6 08 03 00
	00		 add	 esi, 776		; 00000308H
  00144	58		 pop	 eax
$LL3@Init@2:

; 384  : 			m_EquipAccessory[i].Init();

  00145	89 7e f8	 mov	 DWORD PTR [esi-8], edi
  00148	89 7e fc	 mov	 DWORD PTR [esi-4], edi
  0014b	89 3e		 mov	 DWORD PTR [esi], edi
  0014d	83 c6 0c	 add	 esi, 12			; 0000000cH
  00150	48		 dec	 eax
  00151	75 f2		 jne	 SHORT $LL3@Init@2
  00153	5f		 pop	 edi
  00154	5e		 pop	 esi
  00155	5b		 pop	 ebx

; 385  : 	}

  00156	c9		 leave
  00157	c3		 ret	 0
?Init@CHARACTER@@QAEXXZ ENDP				; CHARACTER::Init
_TEXT	ENDS
PUBLIC	??0?$vector@KV?$allocator@K@std@@@std@@QAE@XZ	; std::vector<unsigned long,std::allocator<unsigned long> >::vector<unsigned long,std::allocator<unsigned long> >
; Function compile flags: /Ogsp
; File c:\program files (x86)\microsoft visual studio 10.0\vc\include\vector
;	COMDAT ??0?$vector@KV?$allocator@K@std@@@std@@QAE@XZ
_TEXT	SEGMENT
??0?$vector@KV?$allocator@K@std@@@std@@QAE@XZ PROC	; std::vector<unsigned long,std::allocator<unsigned long> >::vector<unsigned long,std::allocator<unsigned long> >, COMDAT
; _this$ = ecx

; 507  : 		{	// construct empty vector

  00000	8b c1		 mov	 eax, ecx
  00002	33 c9		 xor	 ecx, ecx
  00004	89 08		 mov	 DWORD PTR [eax], ecx
  00006	89 48 04	 mov	 DWORD PTR [eax+4], ecx
  00009	89 48 08	 mov	 DWORD PTR [eax+8], ecx

; 508  : 		}

  0000c	c3		 ret	 0
??0?$vector@KV?$allocator@K@std@@@std@@QAE@XZ ENDP	; std::vector<unsigned long,std::allocator<unsigned long> >::vector<unsigned long,std::allocator<unsigned long> >
_TEXT	ENDS
PUBLIC	?_Tidy@?$basic_string@DU?$char_traits@D@std@@V?$allocator@D@2@@std@@QAEX_NI@Z ; std::basic_string<char,std::char_traits<char>,std::allocator<char> >::_Tidy
; Function compile flags: /Ogsp
; File c:\program files (x86)\microsoft visual studio 10.0\vc\include\xstring
;	COMDAT ?_Tidy@?$basic_string@DU?$char_traits@D@std@@V?$allocator@D@2@@std@@QAEX_NI@Z
_TEXT	SEGMENT
__Built$ = 8						; size = 1
__Newsize$ = 12						; size = 4
?_Tidy@?$basic_string@DU?$char_traits@D@std@@V?$allocator@D@2@@std@@QAEX_NI@Z PROC ; std::basic_string<char,std::char_traits<char>,std::allocator<char> >::_Tidy, COMDAT
; _this$ = ecx

; 1988 : 		{	// initialize buffer, deallocating any storage

  00000	55		 push	 ebp
  00001	8b ec		 mov	 ebp, esp

; 1989 : 		if (!_Built)

  00003	80 7d 08 00	 cmp	 BYTE PTR __Built$[ebp], 0
  00007	56		 push	 esi
  00008	57		 push	 edi
  00009	8b 7d 0c	 mov	 edi, DWORD PTR __Newsize$[ebp]
  0000c	8b f1		 mov	 esi, ecx
  0000e	74 20		 je	 SHORT $LN9@Tidy

; 1990 : 			;
; 1991 : 		else if (this->_BUF_SIZE <= this->_Myres)

  00010	83 7e 14 10	 cmp	 DWORD PTR [esi+20], 16	; 00000010H
  00014	72 1a		 jb	 SHORT $LN9@Tidy

; 1992 : 			{	// copy any leftovers to small buffer and deallocate
; 1993 : 			_Elem *_Ptr = this->_Bx._Ptr;

  00016	53		 push	 ebx
  00017	8b 1e		 mov	 ebx, DWORD PTR [esi]

; 1994 : 			if (0 < _Newsize)

  00019	85 ff		 test	 edi, edi
  0001b	74 0b		 je	 SHORT $LN7@Tidy

; 1995 : 				_Traits::copy(this->_Bx._Buf, _Ptr, _Newsize);

  0001d	57		 push	 edi
  0001e	53		 push	 ebx
  0001f	56		 push	 esi
  00020	e8 00 00 00 00	 call	 _memcpy
  00025	83 c4 0c	 add	 esp, 12			; 0000000cH
$LN7@Tidy:

; 1996 : 			this->_Alval.deallocate(_Ptr, this->_Myres + 1);

  00028	53		 push	 ebx
  00029	e8 00 00 00 00	 call	 ??3@YAXPAX@Z		; operator delete
  0002e	59		 pop	 ecx
  0002f	5b		 pop	 ebx
$LN9@Tidy:

; 1997 : 			}
; 1998 : 		this->_Myres = this->_BUF_SIZE - 1;
; 1999 : 		_Eos(_Newsize);

  00030	89 7e 10	 mov	 DWORD PTR [esi+16], edi
  00033	c7 46 14 0f 00
	00 00		 mov	 DWORD PTR [esi+20], 15	; 0000000fH
  0003a	c6 04 37 00	 mov	 BYTE PTR [edi+esi], 0
  0003e	5f		 pop	 edi
  0003f	5e		 pop	 esi

; 2000 : 		}

  00040	5d		 pop	 ebp
  00041	c2 08 00	 ret	 8
?_Tidy@?$basic_string@DU?$char_traits@D@std@@V?$allocator@D@2@@std@@QAEX_NI@Z ENDP ; std::basic_string<char,std::char_traits<char>,std::allocator<char> >::_Tidy
_TEXT	ENDS
PUBLIC	?begin@?$vector@KV?$allocator@K@std@@@std@@QAE?AV?$_Vector_iterator@V?$_Vector_val@KV?$allocator@K@std@@@std@@@2@XZ ; std::vector<unsigned long,std::allocator<unsigned long> >::begin
; Function compile flags: /Ogsp
; File c:\program files (x86)\microsoft visual studio 10.0\vc\include\vector
;	COMDAT ?begin@?$vector@KV?$allocator@K@std@@@std@@QAE?AV?$_Vector_iterator@V?$_Vector_val@KV?$allocator@K@std@@@std@@@2@XZ
_TEXT	SEGMENT
___$ReturnUdt$ = 8					; size = 4
?begin@?$vector@KV?$allocator@K@std@@@std@@QAE?AV?$_Vector_iterator@V?$_Vector_val@KV?$allocator@K@std@@@std@@@2@XZ PROC ; std::vector<unsigned long,std::allocator<unsigned long> >::begin, COMDAT
; _this$ = ecx

; 781  : 		{	// return iterator for beginning of mutable sequence

  00000	55		 push	 ebp
  00001	8b ec		 mov	 ebp, esp

; 782  : 		return (iterator(this->_Myfirst, this));

  00003	8b 09		 mov	 ecx, DWORD PTR [ecx]
  00005	8b 45 08	 mov	 eax, DWORD PTR ___$ReturnUdt$[ebp]
  00008	89 08		 mov	 DWORD PTR [eax], ecx

; 783  : 		}

  0000a	5d		 pop	 ebp
  0000b	c2 04 00	 ret	 4
?begin@?$vector@KV?$allocator@K@std@@@std@@QAE?AV?$_Vector_iterator@V?$_Vector_val@KV?$allocator@K@std@@@std@@@2@XZ ENDP ; std::vector<unsigned long,std::allocator<unsigned long> >::begin
_TEXT	ENDS
PUBLIC	?end@?$vector@KV?$allocator@K@std@@@std@@QAE?AV?$_Vector_iterator@V?$_Vector_val@KV?$allocator@K@std@@@std@@@2@XZ ; std::vector<unsigned long,std::allocator<unsigned long> >::end
; Function compile flags: /Ogsp
;	COMDAT ?end@?$vector@KV?$allocator@K@std@@@std@@QAE?AV?$_Vector_iterator@V?$_Vector_val@KV?$allocator@K@std@@@std@@@2@XZ
_TEXT	SEGMENT
___$ReturnUdt$ = 8					; size = 4
?end@?$vector@KV?$allocator@K@std@@@std@@QAE?AV?$_Vector_iterator@V?$_Vector_val@KV?$allocator@K@std@@@std@@@2@XZ PROC ; std::vector<unsigned long,std::allocator<unsigned long> >::end, COMDAT
; _this$ = ecx

; 791  : 		{	// return iterator for end of mutable sequence

  00000	55		 push	 ebp
  00001	8b ec		 mov	 ebp, esp

; 792  : 		return (iterator(this->_Mylast, this));

  00003	8b 49 04	 mov	 ecx, DWORD PTR [ecx+4]
  00006	8b 45 08	 mov	 eax, DWORD PTR ___$ReturnUdt$[ebp]
  00009	89 08		 mov	 DWORD PTR [eax], ecx

; 793  : 		}

  0000b	5d		 pop	 ebp
  0000c	c2 04 00	 ret	 4
?end@?$vector@KV?$allocator@K@std@@@std@@QAE?AV?$_Vector_iterator@V?$_Vector_val@KV?$allocator@K@std@@@std@@@2@XZ ENDP ; std::vector<unsigned long,std::allocator<unsigned long> >::end
_TEXT	ENDS
PUBLIC	?erase@?$basic_string@DU?$char_traits@D@std@@V?$allocator@D@2@@std@@QAEAAV12@II@Z ; std::basic_string<char,std::char_traits<char>,std::allocator<char> >::erase
; Function compile flags: /Ogsp
; File c:\program files (x86)\microsoft visual studio 10.0\vc\include\xstring
;	COMDAT ?erase@?$basic_string@DU?$char_traits@D@std@@V?$allocator@D@2@@std@@QAEAAV12@II@Z
_TEXT	SEGMENT
__Off$ = 8						; size = 4
__Count$ = 12						; size = 4
?erase@?$basic_string@DU?$char_traits@D@std@@V?$allocator@D@2@@std@@QAEAAV12@II@Z PROC ; std::basic_string<char,std::char_traits<char>,std::allocator<char> >::erase, COMDAT
; _this$ = ecx

; 1109 : 		{	// erase elements [_Off, _Off + _Count)

  00000	55		 push	 ebp
  00001	8b ec		 mov	 ebp, esp
  00003	53		 push	 ebx
  00004	56		 push	 esi
  00005	8b f1		 mov	 esi, ecx

; 1110 : 		if (this->_Mysize < _Off)

  00007	8b 46 10	 mov	 eax, DWORD PTR [esi+16]
  0000a	8b 4d 08	 mov	 ecx, DWORD PTR __Off$[ebp]
  0000d	3b c1		 cmp	 eax, ecx
  0000f	73 0b		 jae	 SHORT $LN3@erase

; 1111 : 			_Xran();	// _Off off end

  00011	68 00 00 00 00	 push	 OFFSET ??_C@_0BI@CFPLBAOH@invalid?5string?5position?$AA@
  00016	ff 15 00 00 00
	00		 call	 DWORD PTR __imp_?_Xout_of_range@std@@YAXPBD@Z
$LN28@erase:
$LN3@erase:

; 1112 : 		if (this->_Mysize - _Off < _Count)

  0001c	8b 5d 0c	 mov	 ebx, DWORD PTR __Count$[ebp]
  0001f	2b c1		 sub	 eax, ecx
  00021	3b c3		 cmp	 eax, ebx

; 1113 : 			_Count = this->_Mysize - _Off;	// trim _Count

  00023	0f 42 d8	 cmovb	 ebx, eax

; 1114 : 		if (0 < _Count)

  00026	85 db		 test	 ebx, ebx
  00028	74 47		 je	 SHORT $LN25@erase

; 1115 : 			{	// move elements down
; 1116 : 			_Traits::move(_Myptr() + _Off, _Myptr() + _Off + _Count,
; 1117 : 				this->_Mysize - _Off - _Count);

  0002a	8b 56 14	 mov	 edx, DWORD PTR [esi+20]
  0002d	57		 push	 edi
  0002e	83 fa 10	 cmp	 edx, 16			; 00000010H
  00031	72 04		 jb	 SHORT $LN11@erase
  00033	8b 3e		 mov	 edi, DWORD PTR [esi]
  00035	eb 02		 jmp	 SHORT $LN12@erase
$LN11@erase:
  00037	8b fe		 mov	 edi, esi
$LN12@erase:
  00039	83 fa 10	 cmp	 edx, 16			; 00000010H
  0003c	72 04		 jb	 SHORT $LN15@erase
  0003e	8b 16		 mov	 edx, DWORD PTR [esi]
  00040	eb 02		 jmp	 SHORT $LN16@erase
$LN15@erase:
  00042	8b d6		 mov	 edx, esi
$LN16@erase:
  00044	2b c3		 sub	 eax, ebx
  00046	03 f9		 add	 edi, ecx
  00048	50		 push	 eax
  00049	03 fb		 add	 edi, ebx
  0004b	03 d1		 add	 edx, ecx
  0004d	57		 push	 edi
  0004e	52		 push	 edx
  0004f	ff 15 00 00 00
	00		 call	 DWORD PTR __imp__memmove

; 1118 : 			size_type _Newsize = this->_Mysize - _Count;

  00055	8b 46 10	 mov	 eax, DWORD PTR [esi+16]
  00058	83 c4 0c	 add	 esp, 12			; 0000000cH
  0005b	2b c3		 sub	 eax, ebx

; 1119 : 			_Eos(_Newsize);

  0005d	83 7e 14 10	 cmp	 DWORD PTR [esi+20], 16	; 00000010H
  00061	89 46 10	 mov	 DWORD PTR [esi+16], eax
  00064	5f		 pop	 edi
  00065	72 04		 jb	 SHORT $LN23@erase
  00067	8b 0e		 mov	 ecx, DWORD PTR [esi]
  00069	eb 02		 jmp	 SHORT $LN24@erase
$LN23@erase:
  0006b	8b ce		 mov	 ecx, esi
$LN24@erase:
  0006d	c6 04 01 00	 mov	 BYTE PTR [ecx+eax], 0
$LN25@erase:

; 1120 : 			}
; 1121 : 		return (*this);

  00071	8b c6		 mov	 eax, esi
  00073	5e		 pop	 esi
  00074	5b		 pop	 ebx

; 1122 : 		}

  00075	5d		 pop	 ebp
  00076	c2 08 00	 ret	 8
$LN27@erase:
?erase@?$basic_string@DU?$char_traits@D@std@@V?$allocator@D@2@@std@@QAEAAV12@II@Z ENDP ; std::basic_string<char,std::char_traits<char>,std::allocator<char> >::erase
_TEXT	ENDS
PUBLIC	?_Make_iter@?$vector@KV?$allocator@K@std@@@std@@QBE?AV?$_Vector_iterator@V?$_Vector_val@KV?$allocator@K@std@@@std@@@2@V?$_Vector_const_iterator@V?$_Vector_val@KV?$allocator@K@std@@@std@@@2@@Z ; std::vector<unsigned long,std::allocator<unsigned long> >::_Make_iter
; Function compile flags: /Ogsp
; File c:\program files (x86)\microsoft visual studio 10.0\vc\include\vector
;	COMDAT ?_Make_iter@?$vector@KV?$allocator@K@std@@@std@@QBE?AV?$_Vector_iterator@V?$_Vector_val@KV?$allocator@K@std@@@std@@@2@V?$_Vector_const_iterator@V?$_Vector_val@KV?$allocator@K@std@@@std@@@2@@Z
_TEXT	SEGMENT
___$ReturnUdt$ = 8					; size = 4
__Where$ = 12						; size = 4
?_Make_iter@?$vector@KV?$allocator@K@std@@@std@@QBE?AV?$_Vector_iterator@V?$_Vector_val@KV?$allocator@K@std@@@std@@@2@V?$_Vector_const_iterator@V?$_Vector_val@KV?$allocator@K@std@@@std@@@2@@Z PROC ; std::vector<unsigned long,std::allocator<unsigned long> >::_Make_iter, COMDAT
; _this$ = ecx

; 801  : 		{	// make iterator from const_iterator

  00000	55		 push	 ebp
  00001	8b ec		 mov	 ebp, esp

; 802  : 		return (iterator(_Where._Ptr, this));

  00003	8b 45 08	 mov	 eax, DWORD PTR ___$ReturnUdt$[ebp]
  00006	8b 4d 0c	 mov	 ecx, DWORD PTR __Where$[ebp]
  00009	89 08		 mov	 DWORD PTR [eax], ecx

; 803  : 		}

  0000b	5d		 pop	 ebp
  0000c	c2 08 00	 ret	 8
?_Make_iter@?$vector@KV?$allocator@K@std@@@std@@QBE?AV?$_Vector_iterator@V?$_Vector_val@KV?$allocator@K@std@@@std@@@2@V?$_Vector_const_iterator@V?$_Vector_val@KV?$allocator@K@std@@@std@@@2@@Z ENDP ; std::vector<unsigned long,std::allocator<unsigned long> >::_Make_iter
_TEXT	ENDS
PUBLIC	?_Destroy@?$vector@KV?$allocator@K@std@@@std@@IAEXPAK0@Z ; std::vector<unsigned long,std::allocator<unsigned long> >::_Destroy
; Function compile flags: /Ogsp
;	COMDAT ?_Destroy@?$vector@KV?$allocator@K@std@@@std@@IAEXPAK0@Z
_TEXT	SEGMENT
__First$ = 8						; size = 4
__Last$ = 12						; size = 4
?_Destroy@?$vector@KV?$allocator@K@std@@@std@@IAEXPAK0@Z PROC ; std::vector<unsigned long,std::allocator<unsigned long> >::_Destroy, COMDAT
; _this$ = ecx

; 1270 : 		_Destroy_range(_First, _Last, this->_Alval);
; 1271 : 		}

  00000	c2 08 00	 ret	 8
?_Destroy@?$vector@KV?$allocator@K@std@@@std@@IAEXPAK0@Z ENDP ; std::vector<unsigned long,std::allocator<unsigned long> >::_Destroy
_TEXT	ENDS
PUBLIC	??9?$_Vector_const_iterator@V?$_Vector_val@KV?$allocator@K@std@@@std@@@std@@QBE_NABV01@@Z ; std::_Vector_const_iterator<std::_Vector_val<unsigned long,std::allocator<unsigned long> > >::operator!=
; Function compile flags: /Ogsp
;	COMDAT ??9?$_Vector_const_iterator@V?$_Vector_val@KV?$allocator@K@std@@@std@@@std@@QBE_NABV01@@Z
_TEXT	SEGMENT
__Right$ = 8						; size = 4
??9?$_Vector_const_iterator@V?$_Vector_val@KV?$allocator@K@std@@@std@@@std@@QBE_NABV01@@Z PROC ; std::_Vector_const_iterator<std::_Vector_val<unsigned long,std::allocator<unsigned long> > >::operator!=, COMDAT
; _this$ = ecx

; 207  : 		{	// test for iterator inequality

  00000	55		 push	 ebp
  00001	8b ec		 mov	 ebp, esp

; 208  : 		return (!(*this == _Right));

  00003	8b 01		 mov	 eax, DWORD PTR [ecx]
  00005	8b 55 08	 mov	 edx, DWORD PTR __Right$[ebp]
  00008	33 c9		 xor	 ecx, ecx
  0000a	3b 02		 cmp	 eax, DWORD PTR [edx]
  0000c	0f 95 c0	 setne	 al

; 209  : 		}

  0000f	5d		 pop	 ebp
  00010	c2 04 00	 ret	 4
??9?$_Vector_const_iterator@V?$_Vector_val@KV?$allocator@K@std@@@std@@@std@@QBE_NABV01@@Z ENDP ; std::_Vector_const_iterator<std::_Vector_val<unsigned long,std::allocator<unsigned long> > >::operator!=
_TEXT	ENDS
PUBLIC	?_Copy@?$basic_string@DU?$char_traits@D@std@@V?$allocator@D@2@@std@@QAEXII@Z ; std::basic_string<char,std::char_traits<char>,std::allocator<char> >::_Copy
EXTRN	__EH_prolog3_catch:PROC
;	COMDAT xdata$x
; File c:\program files (x86)\microsoft visual studio 10.0\vc\include\iosfwd
xdata$x	SEGMENT
__catchsym$?_Copy@?$basic_string@DU?$char_traits@D@std@@V?$allocator@D@2@@std@@QAEXII@Z$5 DD 040H
	DD	00H
	DD	00H
	DD	FLAT:__catch$?_Copy@?$basic_string@DU?$char_traits@D@std@@V?$allocator@D@2@@std@@QAEXII@Z$0
__catchsym$?_Copy@?$basic_string@DU?$char_traits@D@std@@V?$allocator@D@2@@std@@QAEXII@Z$4 DD 040H
	DD	00H
	DD	00H
	DD	FLAT:__catch$?_Copy@?$basic_string@DU?$char_traits@D@std@@V?$allocator@D@2@@std@@QAEXII@Z$1
__unwindtable$?_Copy@?$basic_string@DU?$char_traits@D@std@@V?$allocator@D@2@@std@@QAEXII@Z DD 0ffffffffH
	DD	00H
	DD	0ffffffffH
	DD	00H
	DD	01H
	DD	00H
	DD	01H
	DD	00H
__ehfuncinfo$?_Copy@?$basic_string@DU?$char_traits@D@std@@V?$allocator@D@2@@std@@QAEXII@Z DD 019930522H
	DD	04H
	DD	FLAT:__unwindtable$?_Copy@?$basic_string@DU?$char_traits@D@std@@V?$allocator@D@2@@std@@QAEXII@Z
	DD	02H
	DD	FLAT:__tryblocktable$?_Copy@?$basic_string@DU?$char_traits@D@std@@V?$allocator@D@2@@std@@QAEXII@Z
	DD	2 DUP(00H)
	DD	00H
	DD	01H
__tryblocktable$?_Copy@?$basic_string@DU?$char_traits@D@std@@V?$allocator@D@2@@std@@QAEXII@Z DD 02H
	DD	02H
	DD	03H
	DD	01H
	DD	FLAT:__catchsym$?_Copy@?$basic_string@DU?$char_traits@D@std@@V?$allocator@D@2@@std@@QAEXII@Z$4
	DD	00H
	DD	00H
	DD	03H
	DD	01H
	DD	FLAT:__catchsym$?_Copy@?$basic_string@DU?$char_traits@D@std@@V?$allocator@D@2@@std@@QAEXII@Z$5
; Function compile flags: /Ogsp
; File c:\program files (x86)\microsoft visual studio 10.0\vc\include\xstring
xdata$x	ENDS
;	COMDAT ?_Copy@?$basic_string@DU?$char_traits@D@std@@V?$allocator@D@2@@std@@QAEXII@Z
_TEXT	SEGMENT
_this$ = -24						; size = 4
tv296 = -20						; size = 4
__Newres$ = -20						; size = 4
__$EHRec$ = -16						; size = 16
__Ptr$ = 8						; size = 4
__Newsize$ = 8						; size = 4
__Oldlen$ = 12						; size = 4
?_Copy@?$basic_string@DU?$char_traits@D@std@@V?$allocator@D@2@@std@@QAEXII@Z PROC ; std::basic_string<char,std::char_traits<char>,std::allocator<char> >::_Copy, COMDAT
; _this$ = ecx

; 1919 : 		{	// copy _Oldlen elements to newly allocated buffer

  00000	6a 0c		 push	 12			; 0000000cH
  00002	b8 00 00 00 00	 mov	 eax, __ehhandler$?_Copy@?$basic_string@DU?$char_traits@D@std@@V?$allocator@D@2@@std@@QAEXII@Z
  00007	e8 00 00 00 00	 call	 __EH_prolog3_catch
  0000c	8b f1		 mov	 esi, ecx
  0000e	89 75 e8	 mov	 DWORD PTR _this$[ebp], esi

; 1920 : 		size_type _Newres = _Newsize | this->_ALLOC_MASK;

  00011	8b 7d 08	 mov	 edi, DWORD PTR __Newsize$[ebp]
  00014	83 cf 0f	 or	 edi, 15			; 0000000fH

; 1921 : 		if (max_size() < _Newres)

  00017	83 ff fe	 cmp	 edi, -2			; fffffffeH
  0001a	76 05		 jbe	 SHORT $LN9@Copy

; 1922 : 			_Newres = _Newsize;	// undo roundup if too big

  0001c	8b 7d 08	 mov	 edi, DWORD PTR __Newsize$[ebp]
  0001f	eb 27		 jmp	 SHORT $LN5@Copy
$LN9@Copy:

; 1923 : 		else if (this->_Myres / 2 <= _Newres / 3)

  00021	33 d2		 xor	 edx, edx
  00023	6a 03		 push	 3
  00025	8b c7		 mov	 eax, edi
  00027	5b		 pop	 ebx
  00028	f7 f3		 div	 ebx
  0002a	8b 4e 14	 mov	 ecx, DWORD PTR [esi+20]
  0002d	89 4d ec	 mov	 DWORD PTR tv296[ebp], ecx
  00030	d1 6d ec	 shr	 DWORD PTR tv296[ebp], 1
  00033	8b 55 ec	 mov	 edx, DWORD PTR tv296[ebp]
  00036	3b d0		 cmp	 edx, eax
  00038	76 0e		 jbe	 SHORT $LN5@Copy

; 1924 : 			;
; 1925 : 		else if (this->_Myres <= max_size() - this->_Myres / 2)

  0003a	6a fe		 push	 -2			; fffffffeH
  0003c	5f		 pop	 edi
  0003d	8b c7		 mov	 eax, edi
  0003f	2b c2		 sub	 eax, edx
  00041	3b c8		 cmp	 ecx, eax
  00043	77 03		 ja	 SHORT $LN5@Copy

; 1926 : 			_Newres = this->_Myres
; 1927 : 				+ this->_Myres / 2;	// grow exponentially if possible

  00045	8d 3c 0a	 lea	 edi, DWORD PTR [edx+ecx]
$LN5@Copy:

; 1928 : 		else
; 1929 : 			_Newres = max_size();	// settle for max_size()
; 1930 : 
; 1931 : 		_Elem *_Ptr;
; 1932 : 		_TRY_BEGIN

  00048	83 65 fc 00	 and	 DWORD PTR __$EHRec$[ebp+12], 0

; 1933 : 			_Ptr = this->_Alval.allocate(_Newres + 1);

  0004c	8d 47 01	 lea	 eax, DWORD PTR [edi+1]
  0004f	6a 00		 push	 0
  00051	50		 push	 eax
  00052	e8 00 00 00 00	 call	 ??$_Allocate@D@std@@YAPADIPAD@Z ; std::_Allocate<char>
  00057	59		 pop	 ecx
  00058	59		 pop	 ecx
  00059	89 45 08	 mov	 DWORD PTR __Ptr$[ebp], eax
  0005c	eb 27		 jmp	 SHORT $LN19@Copy
__catch$?_Copy@?$basic_string@DU?$char_traits@D@std@@V?$allocator@D@2@@std@@QAEXII@Z$0:

; 1934 : 		_CATCH_ALL
; 1935 : 			_Newres = _Newsize;	// allocation failed, undo roundup and retry

  0005e	8b 45 08	 mov	 eax, DWORD PTR __Newsize$[ebp]
  00061	89 65 f0	 mov	 DWORD PTR __$EHRec$[ebp], esp
  00064	89 45 ec	 mov	 DWORD PTR __Newres$[ebp], eax

; 1936 : 			_TRY_BEGIN
; 1937 : 				_Ptr = this->_Alval.allocate(_Newres + 1);

  00067	40		 inc	 eax
  00068	6a 00		 push	 0
  0006a	50		 push	 eax
  0006b	c6 45 fc 02	 mov	 BYTE PTR __$EHRec$[ebp+12], 2
  0006f	e8 00 00 00 00	 call	 ??$_Allocate@D@std@@YAPADIPAD@Z ; std::_Allocate<char>
  00074	59		 pop	 ecx
  00075	89 45 08	 mov	 DWORD PTR __Ptr$[ebp], eax
  00078	59		 pop	 ecx

; 1941 : 			_CATCH_END
; 1942 : 		_CATCH_END

  00079	b8 00 00 00 00	 mov	 eax, $LN63@Copy
  0007e	c3		 ret	 0
$LN63@Copy:
  0007f	8b 75 e8	 mov	 esi, DWORD PTR _this$[ebp]
  00082	8b 7d ec	 mov	 edi, DWORD PTR __Newres$[ebp]
$LN19@Copy:

; 1943 : 
; 1944 : 		if (0 < _Oldlen)

  00085	8b 5d 0c	 mov	 ebx, DWORD PTR __Oldlen$[ebp]
  00088	85 db		 test	 ebx, ebx
  0008a	74 19		 je	 SHORT $LN52@Copy

; 1945 : 			_Traits::copy(_Ptr, _Myptr(), _Oldlen);	// copy existing elements

  0008c	83 7e 14 10	 cmp	 DWORD PTR [esi+20], 16	; 00000010H
  00090	72 04		 jb	 SHORT $LN50@Copy
  00092	8b 06		 mov	 eax, DWORD PTR [esi]
  00094	eb 02		 jmp	 SHORT $LN51@Copy
$LN50@Copy:
  00096	8b c6		 mov	 eax, esi
$LN51@Copy:
  00098	53		 push	 ebx
  00099	50		 push	 eax
  0009a	ff 75 08	 push	 DWORD PTR __Ptr$[ebp]
  0009d	e8 00 00 00 00	 call	 _memcpy
  000a2	83 c4 0c	 add	 esp, 12			; 0000000cH
$LN52@Copy:

; 1946 : 		_Tidy(true);

  000a5	6a 00		 push	 0
  000a7	6a 01		 push	 1
  000a9	8b ce		 mov	 ecx, esi
  000ab	e8 00 00 00 00	 call	 ?_Tidy@?$basic_string@DU?$char_traits@D@std@@V?$allocator@D@2@@std@@QAEX_NI@Z ; std::basic_string<char,std::char_traits<char>,std::allocator<char> >::_Tidy

; 1947 : 		this->_Bx._Ptr = _Ptr;

  000b0	8b 45 08	 mov	 eax, DWORD PTR __Ptr$[ebp]
  000b3	89 06		 mov	 DWORD PTR [esi], eax

; 1948 : 		this->_Myres = _Newres;
; 1949 : 		_Eos(_Oldlen);

  000b5	83 ff 10	 cmp	 edi, 16			; 00000010H
  000b8	89 7e 14	 mov	 DWORD PTR [esi+20], edi
  000bb	89 5e 10	 mov	 DWORD PTR [esi+16], ebx
  000be	0f 42 c6	 cmovb	 eax, esi
  000c1	c6 04 18 00	 mov	 BYTE PTR [eax+ebx], 0

; 1950 : 		}

  000c5	e8 00 00 00 00	 call	 __EH_epilog3
  000ca	c2 08 00	 ret	 8
__catch$?_Copy@?$basic_string@DU?$char_traits@D@std@@V?$allocator@D@2@@std@@QAEXII@Z$1:

; 1938 : 			_CATCH_ALL
; 1939 : 			_Tidy(true);	// failed again, discard storage and reraise

  000cd	8b 4d e8	 mov	 ecx, DWORD PTR _this$[ebp]
  000d0	33 f6		 xor	 esi, esi
  000d2	56		 push	 esi
  000d3	6a 01		 push	 1
  000d5	e8 00 00 00 00	 call	 ?_Tidy@?$basic_string@DU?$char_traits@D@std@@V?$allocator@D@2@@std@@QAEX_NI@Z ; std::basic_string<char,std::char_traits<char>,std::allocator<char> >::_Tidy

; 1940 : 			_RERAISE;

  000da	56		 push	 esi
  000db	56		 push	 esi
  000dc	e8 00 00 00 00	 call	 __CxxThrowException@8
$LN67@Copy:
$LN66@Copy:
  000e1	cc		 int	 3
_TEXT	ENDS
;	COMDAT text$x
text$x	SEGMENT
__ehhandler$?_Copy@?$basic_string@DU?$char_traits@D@std@@V?$allocator@D@2@@std@@QAEXII@Z:
  00000	8b 54 24 08	 mov	 edx, DWORD PTR [esp+8]
  00004	8d 42 0c	 lea	 eax, DWORD PTR [edx+12]
  00007	8b 4a e4	 mov	 ecx, DWORD PTR [edx-28]
  0000a	33 c8		 xor	 ecx, eax
  0000c	e8 00 00 00 00	 call	 @__security_check_cookie@4
  00011	b8 00 00 00 00	 mov	 eax, OFFSET __ehfuncinfo$?_Copy@?$basic_string@DU?$char_traits@D@std@@V?$allocator@D@2@@std@@QAEXII@Z
  00016	e9 00 00 00 00	 jmp	 ___CxxFrameHandler3
text$x	ENDS
?_Copy@?$basic_string@DU?$char_traits@D@std@@V?$allocator@D@2@@std@@QAEXII@Z ENDP ; std::basic_string<char,std::char_traits<char>,std::allocator<char> >::_Copy
PUBLIC	??$_Cons_val@V?$allocator@K@std@@KABK@std@@YAXAAV?$allocator@K@0@PAKABK@Z ; std::_Cons_val<std::allocator<unsigned long>,unsigned long,unsigned long const &>
; Function compile flags: /Ogsp
; File c:\program files (x86)\microsoft visual studio 10.0\vc\include\xmemory
;	COMDAT ??$_Cons_val@V?$allocator@K@std@@KABK@std@@YAXAAV?$allocator@K@0@PAKABK@Z
_TEXT	SEGMENT
__Alval$ = 8						; size = 4
__Pdest$ = 12						; size = 4
__Src$ = 16						; size = 4
??$_Cons_val@V?$allocator@K@std@@KABK@std@@YAXAAV?$allocator@K@0@PAKABK@Z PROC ; std::_Cons_val<std::allocator<unsigned long>,unsigned long,unsigned long const &>, COMDAT

; 279  : 	{	// construct using allocator

  00000	55		 push	 ebp
  00001	8b ec		 mov	 ebp, esp

; 280  : 	_Alval.construct(_Pdest, _STD forward<_Ty2>(_Src));

  00003	8b 45 0c	 mov	 eax, DWORD PTR __Pdest$[ebp]
  00006	85 c0		 test	 eax, eax
  00008	74 07		 je	 SHORT $LN9@Cons_val@3
  0000a	8b 4d 10	 mov	 ecx, DWORD PTR __Src$[ebp]
  0000d	8b 09		 mov	 ecx, DWORD PTR [ecx]
  0000f	89 08		 mov	 DWORD PTR [eax], ecx
$LN9@Cons_val@3:

; 281  : 	}

  00011	5d		 pop	 ebp
  00012	c3		 ret	 0
??$_Cons_val@V?$allocator@K@std@@KABK@std@@YAXAAV?$allocator@K@0@PAKABK@Z ENDP ; std::_Cons_val<std::allocator<unsigned long>,unsigned long,unsigned long const &>
_TEXT	ENDS
PUBLIC	??$_Umove@PAK@?$vector@KV?$allocator@K@std@@@std@@IAEPAKPAK00@Z ; std::vector<unsigned long,std::allocator<unsigned long> >::_Umove<unsigned long *>
; Function compile flags: /Ogsp
; File c:\program files (x86)\microsoft visual studio 10.0\vc\include\vector
;	COMDAT ??$_Umove@PAK@?$vector@KV?$allocator@K@std@@@std@@IAEPAKPAK00@Z
_TEXT	SEGMENT
__First$ = 8						; size = 4
__Last$ = 12						; size = 4
__Ptr$ = 16						; size = 4
??$_Umove@PAK@?$vector@KV?$allocator@K@std@@@std@@IAEPAKPAK00@Z PROC ; std::vector<unsigned long,std::allocator<unsigned long> >::_Umove<unsigned long *>, COMDAT
; _this$ = ecx

; 1322 : 		pointer _Umove(_Iter _First, _Iter _Last, pointer _Ptr)

  00000	55		 push	 ebp
  00001	8b ec		 mov	 ebp, esp

; 1323 : 		{	// move initializing [_First, _Last), using allocator
; 1324 : 		return (_Uninitialized_move(_First, _Last,
; 1325 : 			_Ptr, this->_Alval));

  00003	83 c1 0c	 add	 ecx, 12			; 0000000cH
  00006	51		 push	 ecx
  00007	ff 75 10	 push	 DWORD PTR __Ptr$[ebp]
  0000a	ff 75 0c	 push	 DWORD PTR __Last$[ebp]
  0000d	ff 75 08	 push	 DWORD PTR __First$[ebp]
  00010	e8 00 00 00 00	 call	 ??$_Uninitialized_move@PAKPAKV?$allocator@K@std@@@std@@YAPAKPAK00AAV?$allocator@K@0@@Z ; std::_Uninitialized_move<unsigned long *,unsigned long *,std::allocator<unsigned long> >
  00015	83 c4 10	 add	 esp, 16			; 00000010H

; 1326 : 		}

  00018	5d		 pop	 ebp
  00019	c2 0c 00	 ret	 12			; 0000000cH
??$_Umove@PAK@?$vector@KV?$allocator@K@std@@@std@@IAEPAKPAK00@Z ENDP ; std::vector<unsigned long,std::allocator<unsigned long> >::_Umove<unsigned long *>
_TEXT	ENDS
PUBLIC	?erase@?$vector@W4RaceDetailType@@V?$allocator@W4RaceDetailType@@@std@@@std@@QAE?AV?$_Vector_iterator@V?$_Vector_val@W4RaceDetailType@@V?$allocator@W4RaceDetailType@@@std@@@std@@@2@V?$_Vector_const_iterator@V?$_Vector_val@W4RaceDetailType@@V?$allocator@W4RaceDetailType@@@std@@@std@@@2@0@Z ; std::vector<enum RaceDetailType,std::allocator<enum RaceDetailType> >::erase
; Function compile flags: /Ogsp
;	COMDAT ?erase@?$vector@W4RaceDetailType@@V?$allocator@W4RaceDetailType@@@std@@@std@@QAE?AV?$_Vector_iterator@V?$_Vector_val@W4RaceDetailType@@V?$allocator@W4RaceDetailType@@@std@@@std@@@2@V?$_Vector_const_iterator@V?$_Vector_val@W4RaceDetailType@@V?$allocator@W4RaceDetailType@@@std@@@std@@@2@0@Z
_TEXT	SEGMENT
___$ReturnUdt$ = 8					; size = 4
__First_arg$ = 12					; size = 4
__Cat$512065 = 16					; size = 1
__Last_arg$ = 16					; size = 4
?erase@?$vector@W4RaceDetailType@@V?$allocator@W4RaceDetailType@@@std@@@std@@QAE?AV?$_Vector_iterator@V?$_Vector_val@W4RaceDetailType@@V?$allocator@W4RaceDetailType@@@std@@@std@@@2@V?$_Vector_const_iterator@V?$_Vector_val@W4RaceDetailType@@V?$allocator@W4RaceDetailType@@@std@@@std@@@2@0@Z PROC ; std::vector<enum RaceDetailType,std::allocator<enum RaceDetailType> >::erase, COMDAT
; _this$ = ecx

; 1190 : 		{	// erase [_First, _Last)

  00000	55		 push	 ebp
  00001	8b ec		 mov	 ebp, esp

; 1191 : 		iterator _First = _Make_iter(_First_arg);

  00003	8b 45 0c	 mov	 eax, DWORD PTR __First_arg$[ebp]
  00006	56		 push	 esi
  00007	57		 push	 edi
  00008	8b 7d 08	 mov	 edi, DWORD PTR ___$ReturnUdt$[ebp]
  0000b	8b f1		 mov	 esi, ecx
  0000d	89 07		 mov	 DWORD PTR [edi], eax

; 1192 : 		iterator _Last = _Make_iter(_Last_arg);
; 1193 : 
; 1194 : 		if (_First != _Last)

  0000f	3b 45 10	 cmp	 eax, DWORD PTR __Last_arg$[ebp]
  00012	74 16		 je	 SHORT $LN1@erase@2

; 1195 : 			{	// worth doing, copy down over hole
; 1196 :  #if _ITERATOR_DEBUG_LEVEL == 2
; 1197 : 			if (_Last < _First || _VICONT(_First) != this
; 1198 : 				|| _VIPTR(_First) < this->_Myfirst
; 1199 : 				|| this->_Mylast < _VIPTR(_Last))
; 1200 : 				_DEBUG_ERROR("vector erase iterator outside range");
; 1201 : 			pointer _Ptr = _Move(_VIPTR(_Last), this->_Mylast,
; 1202 : 				_VIPTR(_First));
; 1203 : 			_Orphan_range(_VIPTR(_First), this->_Mylast);
; 1204 : 
; 1205 :  #else /* _ITERATOR_DEBUG_LEVEL == 2 */
; 1206 : 			pointer _Ptr = _Move(_VIPTR(_Last), this->_Mylast,
; 1207 : 				_VIPTR(_First));

  00014	ff 75 10	 push	 DWORD PTR __Cat$512065[ebp]
  00017	8b 4e 04	 mov	 ecx, DWORD PTR [esi+4]
  0001a	50		 push	 eax
  0001b	51		 push	 ecx
  0001c	ff 75 10	 push	 DWORD PTR __Last_arg$[ebp]
  0001f	e8 00 00 00 00	 call	 ??$_Move@PAW4RaceDetailType@@PAW41@@std@@YAPAW4RaceDetailType@@PAW41@00U_Scalar_ptr_iterator_tag@0@@Z ; std::_Move<enum RaceDetailType *,enum RaceDetailType *>
  00024	83 c4 10	 add	 esp, 16			; 00000010H

; 1208 :  #endif /* _ITERATOR_DEBUG_LEVEL == 2 */
; 1209 : 
; 1210 : 			_Destroy(_Ptr, this->_Mylast);
; 1211 : 			this->_Mylast = _Ptr;

  00027	89 46 04	 mov	 DWORD PTR [esi+4], eax
$LN1@erase@2:

; 1212 : 			}
; 1213 : 		return (_First);

  0002a	8b c7		 mov	 eax, edi
  0002c	5f		 pop	 edi
  0002d	5e		 pop	 esi

; 1214 : 		}

  0002e	5d		 pop	 ebp
  0002f	c2 0c 00	 ret	 12			; 0000000cH
?erase@?$vector@W4RaceDetailType@@V?$allocator@W4RaceDetailType@@@std@@@std@@QAE?AV?$_Vector_iterator@V?$_Vector_val@W4RaceDetailType@@V?$allocator@W4RaceDetailType@@@std@@@std@@@2@V?$_Vector_const_iterator@V?$_Vector_val@W4RaceDetailType@@V?$allocator@W4RaceDetailType@@@std@@@std@@@2@0@Z ENDP ; std::vector<enum RaceDetailType,std::allocator<enum RaceDetailType> >::erase
_TEXT	ENDS
PUBLIC	?_Tidy@?$vector@W4RaceDetailType@@V?$allocator@W4RaceDetailType@@@std@@@std@@IAEXXZ ; std::vector<enum RaceDetailType,std::allocator<enum RaceDetailType> >::_Tidy
EXTRN	__imp_?_Orphan_all@_Container_base0@std@@QAEXXZ:PROC
; Function compile flags: /Ogsp
;	COMDAT ?_Tidy@?$vector@W4RaceDetailType@@V?$allocator@W4RaceDetailType@@@std@@@std@@IAEXXZ
_TEXT	SEGMENT
?_Tidy@?$vector@W4RaceDetailType@@V?$allocator@W4RaceDetailType@@@std@@@std@@IAEXXZ PROC ; std::vector<enum RaceDetailType,std::allocator<enum RaceDetailType> >::_Tidy, COMDAT
; _this$ = ecx

; 1301 : 		{	// free all storage

  00000	56		 push	 esi
  00001	8b f1		 mov	 esi, ecx

; 1302 : 		if (this->_Myfirst != 0)

  00003	83 3e 00	 cmp	 DWORD PTR [esi], 0
  00006	74 0e		 je	 SHORT $LN12@Tidy@2

; 1303 : 			{	// something to free, destroy and deallocate it
; 1304 : 			this->_Orphan_all();

  00008	ff 15 00 00 00
	00		 call	 DWORD PTR __imp_?_Orphan_all@_Container_base0@std@@QAEXXZ

; 1305 : 			_Destroy(this->_Myfirst, this->_Mylast);
; 1306 : 			this->_Alval.deallocate(this->_Myfirst,
; 1307 : 				this->_Myend - this->_Myfirst);

  0000e	ff 36		 push	 DWORD PTR [esi]
  00010	e8 00 00 00 00	 call	 ??3@YAXPAX@Z		; operator delete
  00015	59		 pop	 ecx
$LN12@Tidy@2:

; 1308 : 			}
; 1309 : 		this->_Myfirst = 0;

  00016	83 26 00	 and	 DWORD PTR [esi], 0

; 1310 : 		this->_Mylast = 0;

  00019	83 66 04 00	 and	 DWORD PTR [esi+4], 0

; 1311 : 		this->_Myend = 0;

  0001d	83 66 08 00	 and	 DWORD PTR [esi+8], 0
  00021	5e		 pop	 esi

; 1312 : 		}

  00022	c3		 ret	 0
?_Tidy@?$vector@W4RaceDetailType@@V?$allocator@W4RaceDetailType@@@std@@@std@@IAEXXZ ENDP ; std::vector<enum RaceDetailType,std::allocator<enum RaceDetailType> >::_Tidy
_TEXT	ENDS
PUBLIC	?_Tidy@?$vector@PBVioItem@@V?$allocator@PBVioItem@@@std@@@std@@IAEXXZ ; std::vector<ioItem const *,std::allocator<ioItem const *> >::_Tidy
; Function compile flags: /Ogsp
;	COMDAT ?_Tidy@?$vector@PBVioItem@@V?$allocator@PBVioItem@@@std@@@std@@IAEXXZ
_TEXT	SEGMENT
?_Tidy@?$vector@PBVioItem@@V?$allocator@PBVioItem@@@std@@@std@@IAEXXZ PROC ; std::vector<ioItem const *,std::allocator<ioItem const *> >::_Tidy, COMDAT
; _this$ = ecx

; 1301 : 		{	// free all storage

  00000	56		 push	 esi
  00001	8b f1		 mov	 esi, ecx

; 1302 : 		if (this->_Myfirst != 0)

  00003	83 3e 00	 cmp	 DWORD PTR [esi], 0
  00006	74 0e		 je	 SHORT $LN12@Tidy@3

; 1303 : 			{	// something to free, destroy and deallocate it
; 1304 : 			this->_Orphan_all();

  00008	ff 15 00 00 00
	00		 call	 DWORD PTR __imp_?_Orphan_all@_Container_base0@std@@QAEXXZ

; 1305 : 			_Destroy(this->_Myfirst, this->_Mylast);
; 1306 : 			this->_Alval.deallocate(this->_Myfirst,
; 1307 : 				this->_Myend - this->_Myfirst);

  0000e	ff 36		 push	 DWORD PTR [esi]
  00010	e8 00 00 00 00	 call	 ??3@YAXPAX@Z		; operator delete
  00015	59		 pop	 ecx
$LN12@Tidy@3:

; 1308 : 			}
; 1309 : 		this->_Myfirst = 0;

  00016	83 26 00	 and	 DWORD PTR [esi], 0

; 1310 : 		this->_Mylast = 0;

  00019	83 66 04 00	 and	 DWORD PTR [esi+4], 0

; 1311 : 		this->_Myend = 0;

  0001d	83 66 08 00	 and	 DWORD PTR [esi+8], 0
  00021	5e		 pop	 esi

; 1312 : 		}

  00022	c3		 ret	 0
?_Tidy@?$vector@PBVioItem@@V?$allocator@PBVioItem@@@std@@@std@@IAEXXZ ENDP ; std::vector<ioItem const *,std::allocator<ioItem const *> >::_Tidy
_TEXT	ENDS
PUBLIC	?reserve@?$vector@W4RaceDetailType@@V?$allocator@W4RaceDetailType@@@std@@@std@@QAEXI@Z ; std::vector<enum RaceDetailType,std::allocator<enum RaceDetailType> >::reserve
; Function compile flags: /Ogsp
;	COMDAT ?reserve@?$vector@W4RaceDetailType@@V?$allocator@W4RaceDetailType@@@std@@@std@@QAEXI@Z
_TEXT	SEGMENT
__Count$ = 8						; size = 4
?reserve@?$vector@W4RaceDetailType@@V?$allocator@W4RaceDetailType@@@std@@@std@@QAEXI@Z PROC ; std::vector<enum RaceDetailType,std::allocator<enum RaceDetailType> >::reserve, COMDAT
; _this$ = ecx

; 746  : 		{	// determine new minimum length of allocated storage

  00000	55		 push	 ebp
  00001	8b ec		 mov	 ebp, esp

; 747  : 		if (max_size() < _Count)

  00003	81 7d 08 ff ff
	ff 3f		 cmp	 DWORD PTR __Count$[ebp], 1073741823 ; 3fffffffH
  0000a	56		 push	 esi
  0000b	8b f1		 mov	 esi, ecx
  0000d	76 0b		 jbe	 SHORT $LN5@reserve

; 748  : 			_Xlen();	// result too long

  0000f	68 00 00 00 00	 push	 OFFSET ??_C@_0BD@OLBABOEK@vector?$DMT?$DO?5too?5long?$AA@
  00014	ff 15 00 00 00
	00		 call	 DWORD PTR __imp_?_Xlength_error@std@@YAXPBD@Z
$LN43@reserve:
$LN5@reserve:

; 749  : 		else if (capacity() < _Count)

  0001a	8b 46 08	 mov	 eax, DWORD PTR [esi+8]
  0001d	2b 06		 sub	 eax, DWORD PTR [esi]
  0001f	c1 f8 02	 sar	 eax, 2
  00022	3b 45 08	 cmp	 eax, DWORD PTR __Count$[ebp]
  00025	73 52		 jae	 SHORT $LN3@reserve

; 750  : 			{	// not enough room, reallocate
; 751  : 			pointer _Ptr = this->_Alval.allocate(_Count);

  00027	53		 push	 ebx
  00028	57		 push	 edi
  00029	6a 00		 push	 0
  0002b	ff 75 08	 push	 DWORD PTR __Count$[ebp]
  0002e	e8 00 00 00 00	 call	 ??$_Allocate@W4RaceDetailType@@@std@@YAPAW4RaceDetailType@@IPAW41@@Z ; std::_Allocate<enum RaceDetailType>

; 752  : 
; 753  : 			_TRY_BEGIN
; 754  : 			_Umove(this->_Myfirst, this->_Mylast, _Ptr);

  00033	8b 0e		 mov	 ecx, DWORD PTR [esi]
  00035	8d 56 0c	 lea	 edx, DWORD PTR [esi+12]
  00038	52		 push	 edx
  00039	8b d8		 mov	 ebx, eax
  0003b	8b 46 04	 mov	 eax, DWORD PTR [esi+4]
  0003e	53		 push	 ebx
  0003f	50		 push	 eax
  00040	51		 push	 ecx
  00041	e8 00 00 00 00	 call	 ??$_Uninitialized_move@PAW4RaceDetailType@@PAW41@V?$allocator@W4RaceDetailType@@@std@@@std@@YAPAW4RaceDetailType@@PAW41@00AAV?$allocator@W4RaceDetailType@@@0@@Z ; std::_Uninitialized_move<enum RaceDetailType *,enum RaceDetailType *,std::allocator<enum RaceDetailType> >

; 755  : 			_CATCH_ALL
; 756  : 			this->_Alval.deallocate(_Ptr, _Count);
; 757  : 			_RERAISE;
; 758  : 			_CATCH_END
; 759  : 
; 760  : 			size_type _Size = size();

  00046	8b 06		 mov	 eax, DWORD PTR [esi]
  00048	8b 7e 04	 mov	 edi, DWORD PTR [esi+4]
  0004b	2b f8		 sub	 edi, eax
  0004d	83 c4 18	 add	 esp, 24			; 00000018H
  00050	c1 ff 02	 sar	 edi, 2

; 761  : 			if (this->_Myfirst != 0)

  00053	85 c0		 test	 eax, eax
  00055	74 07		 je	 SHORT $LN39@reserve

; 762  : 				{	// destroy and deallocate old array
; 763  : 				_Destroy(this->_Myfirst, this->_Mylast);
; 764  : 				this->_Alval.deallocate(this->_Myfirst,
; 765  : 					this->_Myend - this->_Myfirst);

  00057	50		 push	 eax
  00058	e8 00 00 00 00	 call	 ??3@YAXPAX@Z		; operator delete
  0005d	59		 pop	 ecx
$LN39@reserve:

; 766  : 				}
; 767  : 
; 768  : 			this->_Orphan_all();

  0005e	8b ce		 mov	 ecx, esi
  00060	ff 15 00 00 00
	00		 call	 DWORD PTR __imp_?_Orphan_all@_Container_base0@std@@QAEXXZ

; 769  : 			this->_Myend = _Ptr + _Count;

  00066	8b 45 08	 mov	 eax, DWORD PTR __Count$[ebp]
  00069	8d 04 83	 lea	 eax, DWORD PTR [ebx+eax*4]
  0006c	89 46 08	 mov	 DWORD PTR [esi+8], eax

; 770  : 			this->_Mylast = _Ptr + _Size;

  0006f	8d 04 bb	 lea	 eax, DWORD PTR [ebx+edi*4]
  00072	5f		 pop	 edi

; 771  : 			this->_Myfirst = _Ptr;

  00073	89 1e		 mov	 DWORD PTR [esi], ebx
  00075	89 46 04	 mov	 DWORD PTR [esi+4], eax
  00078	5b		 pop	 ebx
$LN3@reserve:
  00079	5e		 pop	 esi

; 772  : 			}
; 773  : 		}

  0007a	5d		 pop	 ebp
  0007b	c2 04 00	 ret	 4
$LN42@reserve:
?reserve@?$vector@W4RaceDetailType@@V?$allocator@W4RaceDetailType@@@std@@@std@@QAEXI@Z ENDP ; std::vector<enum RaceDetailType,std::allocator<enum RaceDetailType> >::reserve
_TEXT	ENDS
PUBLIC	??0CHARACTER@@QAE@XZ				; CHARACTER::CHARACTER
EXTRN	??_L@YGXPAXIHP6EX0@Z1@Z:PROC			; `eh vector constructor iterator'
;	COMDAT xdata$x
; File d:\lost saga for developer\youtube\tutorial\source\src\lsclient\accessoryenumtype.h
xdata$x	SEGMENT
__ehfuncinfo$??0CHARACTER@@QAE@XZ DD 019930522H
	DD	0bH
	DD	FLAT:__unwindtable$??0CHARACTER@@QAE@XZ
	DD	2 DUP(00H)
	DD	2 DUP(00H)
	DD	00H
	DD	01H
__unwindtable$??0CHARACTER@@QAE@XZ DD 0ffffffffH
	DD	FLAT:__unwindfunclet$??0CHARACTER@@QAE@XZ$0
	DD	00H
	DD	FLAT:__unwindfunclet$??0CHARACTER@@QAE@XZ$1
	DD	01H
	DD	FLAT:__unwindfunclet$??0CHARACTER@@QAE@XZ$2
	DD	02H
	DD	FLAT:__unwindfunclet$??0CHARACTER@@QAE@XZ$3
	DD	03H
	DD	FLAT:__unwindfunclet$??0CHARACTER@@QAE@XZ$4
	DD	04H
	DD	FLAT:__unwindfunclet$??0CHARACTER@@QAE@XZ$5
	DD	05H
	DD	FLAT:__unwindfunclet$??0CHARACTER@@QAE@XZ$6
	DD	06H
	DD	FLAT:__unwindfunclet$??0CHARACTER@@QAE@XZ$7
	DD	07H
	DD	FLAT:__unwindfunclet$??0CHARACTER@@QAE@XZ$8
	DD	08H
	DD	FLAT:__unwindfunclet$??0CHARACTER@@QAE@XZ$9
	DD	09H
	DD	FLAT:__unwindfunclet$??0CHARACTER@@QAE@XZ$10
; Function compile flags: /Ogsp
; File d:\lost saga for developer\youtube\tutorial\source\src\lsclient\characterinfo.h
xdata$x	ENDS
;	COMDAT ??0CHARACTER@@QAE@XZ
_TEXT	SEGMENT
_this$ = -16						; size = 4
__$EHRec$ = -12						; size = 12
??0CHARACTER@@QAE@XZ PROC				; CHARACTER::CHARACTER, COMDAT
; _this$ = ecx

; 344  : 	CHARACTER()

  00000	6a 04		 push	 4
  00002	b8 00 00 00 00	 mov	 eax, __ehhandler$??0CHARACTER@@QAE@XZ
  00007	e8 00 00 00 00	 call	 __EH_prolog3
  0000c	8b f1		 mov	 esi, ecx
  0000e	89 75 f0	 mov	 DWORD PTR _this$[ebp], esi
  00011	e8 00 00 00 00	 call	 ??0?$CEncrypt@H@@QAE@XZ	; CEncrypt<int>::CEncrypt<int>
  00016	33 ff		 xor	 edi, edi
  00018	8d 4e 30	 lea	 ecx, DWORD PTR [esi+48]
  0001b	89 7d fc	 mov	 DWORD PTR __$EHRec$[ebp+8], edi
  0001e	e8 00 00 00 00	 call	 ??0?$CEncrypt@H@@QAE@XZ	; CEncrypt<int>::CEncrypt<int>
  00023	8d 4e 60	 lea	 ecx, DWORD PTR [esi+96]
  00026	c6 45 fc 01	 mov	 BYTE PTR __$EHRec$[ebp+8], 1
  0002a	e8 00 00 00 00	 call	 ??0?$CEncrypt@H@@QAE@XZ	; CEncrypt<int>::CEncrypt<int>
  0002f	8d 8e 90 00 00
	00		 lea	 ecx, DWORD PTR [esi+144]
  00035	c6 45 fc 02	 mov	 BYTE PTR __$EHRec$[ebp+8], 2
  00039	e8 00 00 00 00	 call	 ??0?$CEncrypt@H@@QAE@XZ	; CEncrypt<int>::CEncrypt<int>
  0003e	8d 8e c0 00 00
	00		 lea	 ecx, DWORD PTR [esi+192]
  00044	c6 45 fc 03	 mov	 BYTE PTR __$EHRec$[ebp+8], 3
  00048	e8 00 00 00 00	 call	 ??0?$CEncrypt@H@@QAE@XZ	; CEncrypt<int>::CEncrypt<int>
  0004d	8d 8e f0 00 00
	00		 lea	 ecx, DWORD PTR [esi+240]
  00053	c6 45 fc 04	 mov	 BYTE PTR __$EHRec$[ebp+8], 4
  00057	e8 00 00 00 00	 call	 ??0?$CEncrypt@H@@QAE@XZ	; CEncrypt<int>::CEncrypt<int>
  0005c	8d 8e 20 01 00
	00		 lea	 ecx, DWORD PTR [esi+288]
  00062	c6 45 fc 05	 mov	 BYTE PTR __$EHRec$[ebp+8], 5
  00066	e8 00 00 00 00	 call	 ??0?$CEncrypt@H@@QAE@XZ	; CEncrypt<int>::CEncrypt<int>
  0006b	8d 8e 50 01 00
	00		 lea	 ecx, DWORD PTR [esi+336]
  00071	c6 45 fc 06	 mov	 BYTE PTR __$EHRec$[ebp+8], 6
  00075	e8 00 00 00 00	 call	 ??0?$CEncrypt@H@@QAE@XZ	; CEncrypt<int>::CEncrypt<int>
  0007a	8d 8e 80 01 00
	00		 lea	 ecx, DWORD PTR [esi+384]
  00080	c6 45 fc 07	 mov	 BYTE PTR __$EHRec$[ebp+8], 7
  00084	e8 00 00 00 00	 call	 ??0?$CEncrypt@H@@QAE@XZ	; CEncrypt<int>::CEncrypt<int>
  00089	8d 8e b0 01 00
	00		 lea	 ecx, DWORD PTR [esi+432]
  0008f	c6 45 fc 08	 mov	 BYTE PTR __$EHRec$[ebp+8], 8
  00093	e8 00 00 00 00	 call	 ??0?$CEncrypt@H@@QAE@XZ	; CEncrypt<int>::CEncrypt<int>
  00098	68 00 00 00 00	 push	 OFFSET ??1?$CEncrypt@H@@UAE@XZ ; CEncrypt<int>::~CEncrypt<int>
  0009d	68 00 00 00 00	 push	 OFFSET ??0?$CEncrypt@H@@QAE@XZ ; CEncrypt<int>::CEncrypt<int>
  000a2	6a 04		 push	 4
  000a4	6a 30		 push	 48			; 00000030H
  000a6	8d 86 e0 01 00
	00		 lea	 eax, DWORD PTR [esi+480]
  000ac	50		 push	 eax
  000ad	c6 45 fc 09	 mov	 BYTE PTR __$EHRec$[ebp+8], 9
  000b1	e8 00 00 00 00	 call	 ??_L@YGXPAXIHP6EX0@Z1@Z
  000b6	6a 03		 push	 3
  000b8	c6 45 fc 0a	 mov	 BYTE PTR __$EHRec$[ebp+8], 10 ; 0000000aH
  000bc	8d 86 c0 02 00
	00		 lea	 eax, DWORD PTR [esi+704]
  000c2	59		 pop	 ecx
$LL15@CHARACTER:
  000c3	89 38		 mov	 DWORD PTR [eax], edi
  000c5	89 78 04	 mov	 DWORD PTR [eax+4], edi
  000c8	89 78 08	 mov	 DWORD PTR [eax+8], edi
  000cb	89 78 0c	 mov	 DWORD PTR [eax+12], edi
  000ce	83 c0 10	 add	 eax, 16			; 00000010H
  000d1	49		 dec	 ecx
  000d2	79 ef		 jns	 SHORT $LL15@CHARACTER
  000d4	6a 02		 push	 2
  000d6	8d 86 00 03 00
	00		 lea	 eax, DWORD PTR [esi+768]
  000dc	59		 pop	 ecx
$LL23@CHARACTER:
  000dd	89 38		 mov	 DWORD PTR [eax], edi
  000df	89 78 04	 mov	 DWORD PTR [eax+4], edi
  000e2	89 78 08	 mov	 DWORD PTR [eax+8], edi
  000e5	83 c0 0c	 add	 eax, 12			; 0000000cH
  000e8	49		 dec	 ecx
  000e9	79 f2		 jns	 SHORT $LL23@CHARACTER

; 345  : 	{
; 346  : 		Init();

  000eb	8b ce		 mov	 ecx, esi
  000ed	e8 00 00 00 00	 call	 ?Init@CHARACTER@@QAEXXZ	; CHARACTER::Init

; 347  : 	}

  000f2	8b c6		 mov	 eax, esi
  000f4	e8 00 00 00 00	 call	 __EH_epilog3
  000f9	c3		 ret	 0
_TEXT	ENDS
;	COMDAT text$x
text$x	SEGMENT
__unwindfunclet$??0CHARACTER@@QAE@XZ$0:
  00000	8b 4d f0	 mov	 ecx, DWORD PTR _this$[ebp]
  00003	e9 00 00 00 00	 jmp	 ??1?$CEncrypt@H@@UAE@XZ	; CEncrypt<int>::~CEncrypt<int>
__unwindfunclet$??0CHARACTER@@QAE@XZ$1:
  00008	8b 4d f0	 mov	 ecx, DWORD PTR _this$[ebp]
  0000b	83 c1 30	 add	 ecx, 48			; 00000030H
  0000e	e9 00 00 00 00	 jmp	 ??1?$CEncrypt@H@@UAE@XZ	; CEncrypt<int>::~CEncrypt<int>
__unwindfunclet$??0CHARACTER@@QAE@XZ$2:
  00013	8b 4d f0	 mov	 ecx, DWORD PTR _this$[ebp]
  00016	83 c1 60	 add	 ecx, 96			; 00000060H
  00019	e9 00 00 00 00	 jmp	 ??1?$CEncrypt@H@@UAE@XZ	; CEncrypt<int>::~CEncrypt<int>
__unwindfunclet$??0CHARACTER@@QAE@XZ$3:
  0001e	8b 4d f0	 mov	 ecx, DWORD PTR _this$[ebp]
  00021	81 c1 90 00 00
	00		 add	 ecx, 144		; 00000090H
  00027	e9 00 00 00 00	 jmp	 ??1?$CEncrypt@H@@UAE@XZ	; CEncrypt<int>::~CEncrypt<int>
__unwindfunclet$??0CHARACTER@@QAE@XZ$4:
  0002c	8b 4d f0	 mov	 ecx, DWORD PTR _this$[ebp]
  0002f	81 c1 c0 00 00
	00		 add	 ecx, 192		; 000000c0H
  00035	e9 00 00 00 00	 jmp	 ??1?$CEncrypt@H@@UAE@XZ	; CEncrypt<int>::~CEncrypt<int>
__unwindfunclet$??0CHARACTER@@QAE@XZ$5:
  0003a	8b 4d f0	 mov	 ecx, DWORD PTR _this$[ebp]
  0003d	81 c1 f0 00 00
	00		 add	 ecx, 240		; 000000f0H
  00043	e9 00 00 00 00	 jmp	 ??1?$CEncrypt@H@@UAE@XZ	; CEncrypt<int>::~CEncrypt<int>
__unwindfunclet$??0CHARACTER@@QAE@XZ$6:
  00048	8b 4d f0	 mov	 ecx, DWORD PTR _this$[ebp]
  0004b	81 c1 20 01 00
	00		 add	 ecx, 288		; 00000120H
  00051	e9 00 00 00 00	 jmp	 ??1?$CEncrypt@H@@UAE@XZ	; CEncrypt<int>::~CEncrypt<int>
__unwindfunclet$??0CHARACTER@@QAE@XZ$7:
  00056	8b 4d f0	 mov	 ecx, DWORD PTR _this$[ebp]
  00059	81 c1 50 01 00
	00		 add	 ecx, 336		; 00000150H
  0005f	e9 00 00 00 00	 jmp	 ??1?$CEncrypt@H@@UAE@XZ	; CEncrypt<int>::~CEncrypt<int>
__unwindfunclet$??0CHARACTER@@QAE@XZ$8:
  00064	8b 4d f0	 mov	 ecx, DWORD PTR _this$[ebp]
  00067	81 c1 80 01 00
	00		 add	 ecx, 384		; 00000180H
  0006d	e9 00 00 00 00	 jmp	 ??1?$CEncrypt@H@@UAE@XZ	; CEncrypt<int>::~CEncrypt<int>
__unwindfunclet$??0CHARACTER@@QAE@XZ$9:
  00072	8b 4d f0	 mov	 ecx, DWORD PTR _this$[ebp]
  00075	81 c1 b0 01 00
	00		 add	 ecx, 432		; 000001b0H
  0007b	e9 00 00 00 00	 jmp	 ??1?$CEncrypt@H@@UAE@XZ	; CEncrypt<int>::~CEncrypt<int>
__unwindfunclet$??0CHARACTER@@QAE@XZ$10:
  00080	68 00 00 00 00	 push	 OFFSET ??1?$CEncrypt@H@@UAE@XZ ; CEncrypt<int>::~CEncrypt<int>
  00085	6a 04		 push	 4
  00087	6a 30		 push	 48			; 00000030H
  00089	8b 45 f0	 mov	 eax, DWORD PTR _this$[ebp]
  0008c	05 e0 01 00 00	 add	 eax, 480		; 000001e0H
  00091	50		 push	 eax
  00092	e8 00 00 00 00	 call	 ??_M@YGXPAXIHP6EX0@Z@Z
  00097	c3		 ret	 0
__ehhandler$??0CHARACTER@@QAE@XZ:
  00098	8b 54 24 08	 mov	 edx, DWORD PTR [esp+8]
  0009c	8d 42 0c	 lea	 eax, DWORD PTR [edx+12]
  0009f	8b 4a ec	 mov	 ecx, DWORD PTR [edx-20]
  000a2	33 c8		 xor	 ecx, eax
  000a4	e8 00 00 00 00	 call	 @__security_check_cookie@4
  000a9	b8 00 00 00 00	 mov	 eax, OFFSET __ehfuncinfo$??0CHARACTER@@QAE@XZ
  000ae	e9 00 00 00 00	 jmp	 ___CxxFrameHandler3
text$x	ENDS
??0CHARACTER@@QAE@XZ ENDP				; CHARACTER::CHARACTER
PUBLIC	??1?$basic_string@DU?$char_traits@D@std@@V?$allocator@D@2@@std@@QAE@XZ ; std::basic_string<char,std::char_traits<char>,std::allocator<char> >::~basic_string<char,std::char_traits<char>,std::allocator<char> >
; Function compile flags: /Ogsp
; File c:\program files (x86)\microsoft visual studio 10.0\vc\include\xstring
;	COMDAT ??1?$basic_string@DU?$char_traits@D@std@@V?$allocator@D@2@@std@@QAE@XZ
_TEXT	SEGMENT
??1?$basic_string@DU?$char_traits@D@std@@V?$allocator@D@2@@std@@QAE@XZ PROC ; std::basic_string<char,std::char_traits<char>,std::allocator<char> >::~basic_string<char,std::char_traits<char>,std::allocator<char> >, COMDAT
; _this$ = ecx

; 754  : 		_Tidy(true);

  00000	6a 00		 push	 0
  00002	6a 01		 push	 1
  00004	e8 00 00 00 00	 call	 ?_Tidy@?$basic_string@DU?$char_traits@D@std@@V?$allocator@D@2@@std@@QAEX_NI@Z ; std::basic_string<char,std::char_traits<char>,std::allocator<char> >::_Tidy

; 755  : 		}

  00009	c3		 ret	 0
??1?$basic_string@DU?$char_traits@D@std@@V?$allocator@D@2@@std@@QAE@XZ ENDP ; std::basic_string<char,std::char_traits<char>,std::allocator<char> >::~basic_string<char,std::char_traits<char>,std::allocator<char> >
_TEXT	ENDS
PUBLIC	?erase@?$vector@KV?$allocator@K@std@@@std@@QAE?AV?$_Vector_iterator@V?$_Vector_val@KV?$allocator@K@std@@@std@@@2@V?$_Vector_const_iterator@V?$_Vector_val@KV?$allocator@K@std@@@std@@@2@0@Z ; std::vector<unsigned long,std::allocator<unsigned long> >::erase
; Function compile flags: /Ogsp
; File c:\program files (x86)\microsoft visual studio 10.0\vc\include\vector
;	COMDAT ?erase@?$vector@KV?$allocator@K@std@@@std@@QAE?AV?$_Vector_iterator@V?$_Vector_val@KV?$allocator@K@std@@@std@@@2@V?$_Vector_const_iterator@V?$_Vector_val@KV?$allocator@K@std@@@std@@@2@0@Z
_TEXT	SEGMENT
___$ReturnUdt$ = 8					; size = 4
__First_arg$ = 12					; size = 4
__Cat$512393 = 16					; size = 1
__Last_arg$ = 16					; size = 4
?erase@?$vector@KV?$allocator@K@std@@@std@@QAE?AV?$_Vector_iterator@V?$_Vector_val@KV?$allocator@K@std@@@std@@@2@V?$_Vector_const_iterator@V?$_Vector_val@KV?$allocator@K@std@@@std@@@2@0@Z PROC ; std::vector<unsigned long,std::allocator<unsigned long> >::erase, COMDAT
; _this$ = ecx

; 1190 : 		{	// erase [_First, _Last)

  00000	55		 push	 ebp
  00001	8b ec		 mov	 ebp, esp

; 1191 : 		iterator _First = _Make_iter(_First_arg);

  00003	8b 45 0c	 mov	 eax, DWORD PTR __First_arg$[ebp]
  00006	56		 push	 esi
  00007	57		 push	 edi
  00008	8b 7d 08	 mov	 edi, DWORD PTR ___$ReturnUdt$[ebp]
  0000b	8b f1		 mov	 esi, ecx
  0000d	89 07		 mov	 DWORD PTR [edi], eax

; 1192 : 		iterator _Last = _Make_iter(_Last_arg);
; 1193 : 
; 1194 : 		if (_First != _Last)

  0000f	3b 45 10	 cmp	 eax, DWORD PTR __Last_arg$[ebp]
  00012	74 16		 je	 SHORT $LN1@erase@3

; 1195 : 			{	// worth doing, copy down over hole
; 1196 :  #if _ITERATOR_DEBUG_LEVEL == 2
; 1197 : 			if (_Last < _First || _VICONT(_First) != this
; 1198 : 				|| _VIPTR(_First) < this->_Myfirst
; 1199 : 				|| this->_Mylast < _VIPTR(_Last))
; 1200 : 				_DEBUG_ERROR("vector erase iterator outside range");
; 1201 : 			pointer _Ptr = _Move(_VIPTR(_Last), this->_Mylast,
; 1202 : 				_VIPTR(_First));
; 1203 : 			_Orphan_range(_VIPTR(_First), this->_Mylast);
; 1204 : 
; 1205 :  #else /* _ITERATOR_DEBUG_LEVEL == 2 */
; 1206 : 			pointer _Ptr = _Move(_VIPTR(_Last), this->_Mylast,
; 1207 : 				_VIPTR(_First));

  00014	ff 75 10	 push	 DWORD PTR __Cat$512393[ebp]
  00017	8b 4e 04	 mov	 ecx, DWORD PTR [esi+4]
  0001a	50		 push	 eax
  0001b	51		 push	 ecx
  0001c	ff 75 10	 push	 DWORD PTR __Last_arg$[ebp]
  0001f	e8 00 00 00 00	 call	 ??$_Move@PAKPAK@std@@YAPAKPAK00U_Scalar_ptr_iterator_tag@0@@Z ; std::_Move<unsigned long *,unsigned long *>
  00024	83 c4 10	 add	 esp, 16			; 00000010H

; 1208 :  #endif /* _ITERATOR_DEBUG_LEVEL == 2 */
; 1209 : 
; 1210 : 			_Destroy(_Ptr, this->_Mylast);
; 1211 : 			this->_Mylast = _Ptr;

  00027	89 46 04	 mov	 DWORD PTR [esi+4], eax
$LN1@erase@3:

; 1212 : 			}
; 1213 : 		return (_First);

  0002a	8b c7		 mov	 eax, edi
  0002c	5f		 pop	 edi
  0002d	5e		 pop	 esi

; 1214 : 		}

  0002e	5d		 pop	 ebp
  0002f	c2 0c 00	 ret	 12			; 0000000cH
?erase@?$vector@KV?$allocator@K@std@@@std@@QAE?AV?$_Vector_iterator@V?$_Vector_val@KV?$allocator@K@std@@@std@@@2@V?$_Vector_const_iterator@V?$_Vector_val@KV?$allocator@K@std@@@std@@@2@0@Z ENDP ; std::vector<unsigned long,std::allocator<unsigned long> >::erase
_TEXT	ENDS
PUBLIC	?_Tidy@?$vector@KV?$allocator@K@std@@@std@@IAEXXZ ; std::vector<unsigned long,std::allocator<unsigned long> >::_Tidy
; Function compile flags: /Ogsp
;	COMDAT ?_Tidy@?$vector@KV?$allocator@K@std@@@std@@IAEXXZ
_TEXT	SEGMENT
?_Tidy@?$vector@KV?$allocator@K@std@@@std@@IAEXXZ PROC	; std::vector<unsigned long,std::allocator<unsigned long> >::_Tidy, COMDAT
; _this$ = ecx

; 1301 : 		{	// free all storage

  00000	56		 push	 esi
  00001	8b f1		 mov	 esi, ecx

; 1302 : 		if (this->_Myfirst != 0)

  00003	83 3e 00	 cmp	 DWORD PTR [esi], 0
  00006	74 0e		 je	 SHORT $LN12@Tidy@4

; 1303 : 			{	// something to free, destroy and deallocate it
; 1304 : 			this->_Orphan_all();

  00008	ff 15 00 00 00
	00		 call	 DWORD PTR __imp_?_Orphan_all@_Container_base0@std@@QAEXXZ

; 1305 : 			_Destroy(this->_Myfirst, this->_Mylast);
; 1306 : 			this->_Alval.deallocate(this->_Myfirst,
; 1307 : 				this->_Myend - this->_Myfirst);

  0000e	ff 36		 push	 DWORD PTR [esi]
  00010	e8 00 00 00 00	 call	 ??3@YAXPAX@Z		; operator delete
  00015	59		 pop	 ecx
$LN12@Tidy@4:

; 1308 : 			}
; 1309 : 		this->_Myfirst = 0;

  00016	83 26 00	 and	 DWORD PTR [esi], 0

; 1310 : 		this->_Mylast = 0;

  00019	83 66 04 00	 and	 DWORD PTR [esi+4], 0

; 1311 : 		this->_Myend = 0;

  0001d	83 66 08 00	 and	 DWORD PTR [esi+8], 0
  00021	5e		 pop	 esi

; 1312 : 		}

  00022	c3		 ret	 0
?_Tidy@?$vector@KV?$allocator@K@std@@@std@@IAEXXZ ENDP	; std::vector<unsigned long,std::allocator<unsigned long> >::_Tidy
_TEXT	ENDS
PUBLIC	?_Grow@?$basic_string@DU?$char_traits@D@std@@V?$allocator@D@2@@std@@QAE_NI_N@Z ; std::basic_string<char,std::char_traits<char>,std::allocator<char> >::_Grow
; Function compile flags: /Ogsp
; File c:\program files (x86)\microsoft visual studio 10.0\vc\include\xstring
;	COMDAT ?_Grow@?$basic_string@DU?$char_traits@D@std@@V?$allocator@D@2@@std@@QAE_NI_N@Z
_TEXT	SEGMENT
__Newsize$ = 8						; size = 4
__Trim$ = 12						; size = 1
?_Grow@?$basic_string@DU?$char_traits@D@std@@V?$allocator@D@2@@std@@QAE_NI_N@Z PROC ; std::basic_string<char,std::char_traits<char>,std::allocator<char> >::_Grow, COMDAT
; _this$ = ecx

; 1959 : 		{	// ensure buffer is big enough, trim to size if _Trim is true

  00000	55		 push	 ebp
  00001	8b ec		 mov	 ebp, esp
  00003	56		 push	 esi

; 1960 : 		if (max_size() < _Newsize)

  00004	8b 75 08	 mov	 esi, DWORD PTR __Newsize$[ebp]
  00007	83 fe fe	 cmp	 esi, -2			; fffffffeH
  0000a	76 0b		 jbe	 SHORT $LN6@Grow

; 1961 : 			_Xlen();	// result too long

  0000c	68 00 00 00 00	 push	 OFFSET ??_C@_0BA@JFNIOLAK@string?5too?5long?$AA@
  00011	ff 15 00 00 00
	00		 call	 DWORD PTR __imp_?_Xlength_error@std@@YAXPBD@Z
$LN31@Grow:
$LN6@Grow:

; 1962 : 		if (this->_Myres < _Newsize)

  00017	8b 41 14	 mov	 eax, DWORD PTR [ecx+20]
  0001a	3b c6		 cmp	 eax, esi
  0001c	73 0b		 jae	 SHORT $LN5@Grow

; 1963 : 			_Copy(_Newsize, this->_Mysize);	// reallocate to grow

  0001e	ff 71 10	 push	 DWORD PTR [ecx+16]
  00021	56		 push	 esi
  00022	e8 00 00 00 00	 call	 ?_Copy@?$basic_string@DU?$char_traits@D@std@@V?$allocator@D@2@@std@@QAEXII@Z ; std::basic_string<char,std::char_traits<char>,std::allocator<char> >::_Copy
  00027	eb 2e		 jmp	 SHORT $LN28@Grow
$LN5@Grow:

; 1964 : 		else if (_Trim && _Newsize < this->_BUF_SIZE)

  00029	33 d2		 xor	 edx, edx
  0002b	38 55 0c	 cmp	 BYTE PTR __Trim$[ebp], dl
  0002e	74 17		 je	 SHORT $LN3@Grow
  00030	83 fe 10	 cmp	 esi, 16			; 00000010H
  00033	73 12		 jae	 SHORT $LN3@Grow

; 1965 : 			_Tidy(true,	// copy and deallocate if trimming to small string
; 1966 : 				_Newsize < this->_Mysize ? _Newsize : this->_Mysize);

  00035	8b 41 10	 mov	 eax, DWORD PTR [ecx+16]
  00038	3b f0		 cmp	 esi, eax
  0003a	0f 42 c6	 cmovb	 eax, esi
  0003d	50		 push	 eax
  0003e	6a 01		 push	 1
  00040	e8 00 00 00 00	 call	 ?_Tidy@?$basic_string@DU?$char_traits@D@std@@V?$allocator@D@2@@std@@QAEX_NI@Z ; std::basic_string<char,std::char_traits<char>,std::allocator<char> >::_Tidy
  00045	eb 10		 jmp	 SHORT $LN28@Grow
$LN3@Grow:

; 1967 : 		else if (_Newsize == 0)

  00047	3b f2		 cmp	 esi, edx
  00049	75 0c		 jne	 SHORT $LN28@Grow

; 1968 : 			_Eos(0);	// new size is zero, just null terminate

  0004b	89 51 10	 mov	 DWORD PTR [ecx+16], edx
  0004e	83 f8 10	 cmp	 eax, 16			; 00000010H
  00051	72 02		 jb	 SHORT $LN26@Grow
  00053	8b 09		 mov	 ecx, DWORD PTR [ecx]
$LN26@Grow:
  00055	88 11		 mov	 BYTE PTR [ecx], dl
$LN28@Grow:

; 1969 : 		return (0 < _Newsize);	// return true only if more work to do

  00057	33 c0		 xor	 eax, eax
  00059	3b c6		 cmp	 eax, esi
  0005b	1b c0		 sbb	 eax, eax
  0005d	f7 d8		 neg	 eax
  0005f	5e		 pop	 esi

; 1970 : 		}

  00060	5d		 pop	 ebp
  00061	c2 08 00	 ret	 8
$LN30@Grow:
?_Grow@?$basic_string@DU?$char_traits@D@std@@V?$allocator@D@2@@std@@QAE_NI_N@Z ENDP ; std::basic_string<char,std::char_traits<char>,std::allocator<char> >::_Grow
_TEXT	ENDS
PUBLIC	?reserve@?$vector@KV?$allocator@K@std@@@std@@QAEXI@Z ; std::vector<unsigned long,std::allocator<unsigned long> >::reserve
; Function compile flags: /Ogsp
; File c:\program files (x86)\microsoft visual studio 10.0\vc\include\vector
;	COMDAT ?reserve@?$vector@KV?$allocator@K@std@@@std@@QAEXI@Z
_TEXT	SEGMENT
__Count$ = 8						; size = 4
?reserve@?$vector@KV?$allocator@K@std@@@std@@QAEXI@Z PROC ; std::vector<unsigned long,std::allocator<unsigned long> >::reserve, COMDAT
; _this$ = ecx

; 746  : 		{	// determine new minimum length of allocated storage

  00000	55		 push	 ebp
  00001	8b ec		 mov	 ebp, esp

; 747  : 		if (max_size() < _Count)

  00003	81 7d 08 ff ff
	ff 3f		 cmp	 DWORD PTR __Count$[ebp], 1073741823 ; 3fffffffH
  0000a	56		 push	 esi
  0000b	8b f1		 mov	 esi, ecx
  0000d	76 0b		 jbe	 SHORT $LN5@reserve@2

; 748  : 			_Xlen();	// result too long

  0000f	68 00 00 00 00	 push	 OFFSET ??_C@_0BD@OLBABOEK@vector?$DMT?$DO?5too?5long?$AA@
  00014	ff 15 00 00 00
	00		 call	 DWORD PTR __imp_?_Xlength_error@std@@YAXPBD@Z
$LN43@reserve@2:
$LN5@reserve@2:

; 749  : 		else if (capacity() < _Count)

  0001a	8b 46 08	 mov	 eax, DWORD PTR [esi+8]
  0001d	2b 06		 sub	 eax, DWORD PTR [esi]
  0001f	c1 f8 02	 sar	 eax, 2
  00022	3b 45 08	 cmp	 eax, DWORD PTR __Count$[ebp]
  00025	73 52		 jae	 SHORT $LN3@reserve@2

; 750  : 			{	// not enough room, reallocate
; 751  : 			pointer _Ptr = this->_Alval.allocate(_Count);

  00027	53		 push	 ebx
  00028	57		 push	 edi
  00029	6a 00		 push	 0
  0002b	ff 75 08	 push	 DWORD PTR __Count$[ebp]
  0002e	e8 00 00 00 00	 call	 ??$_Allocate@K@std@@YAPAKIPAK@Z ; std::_Allocate<unsigned long>

; 752  : 
; 753  : 			_TRY_BEGIN
; 754  : 			_Umove(this->_Myfirst, this->_Mylast, _Ptr);

  00033	8b 0e		 mov	 ecx, DWORD PTR [esi]
  00035	8d 56 0c	 lea	 edx, DWORD PTR [esi+12]
  00038	52		 push	 edx
  00039	8b d8		 mov	 ebx, eax
  0003b	8b 46 04	 mov	 eax, DWORD PTR [esi+4]
  0003e	53		 push	 ebx
  0003f	50		 push	 eax
  00040	51		 push	 ecx
  00041	e8 00 00 00 00	 call	 ??$_Uninitialized_move@PAKPAKV?$allocator@K@std@@@std@@YAPAKPAK00AAV?$allocator@K@0@@Z ; std::_Uninitialized_move<unsigned long *,unsigned long *,std::allocator<unsigned long> >

; 755  : 			_CATCH_ALL
; 756  : 			this->_Alval.deallocate(_Ptr, _Count);
; 757  : 			_RERAISE;
; 758  : 			_CATCH_END
; 759  : 
; 760  : 			size_type _Size = size();

  00046	8b 06		 mov	 eax, DWORD PTR [esi]
  00048	8b 7e 04	 mov	 edi, DWORD PTR [esi+4]
  0004b	2b f8		 sub	 edi, eax
  0004d	83 c4 18	 add	 esp, 24			; 00000018H
  00050	c1 ff 02	 sar	 edi, 2

; 761  : 			if (this->_Myfirst != 0)

  00053	85 c0		 test	 eax, eax
  00055	74 07		 je	 SHORT $LN39@reserve@2

; 762  : 				{	// destroy and deallocate old array
; 763  : 				_Destroy(this->_Myfirst, this->_Mylast);
; 764  : 				this->_Alval.deallocate(this->_Myfirst,
; 765  : 					this->_Myend - this->_Myfirst);

  00057	50		 push	 eax
  00058	e8 00 00 00 00	 call	 ??3@YAXPAX@Z		; operator delete
  0005d	59		 pop	 ecx
$LN39@reserve@2:

; 766  : 				}
; 767  : 
; 768  : 			this->_Orphan_all();

  0005e	8b ce		 mov	 ecx, esi
  00060	ff 15 00 00 00
	00		 call	 DWORD PTR __imp_?_Orphan_all@_Container_base0@std@@QAEXXZ

; 769  : 			this->_Myend = _Ptr + _Count;

  00066	8b 45 08	 mov	 eax, DWORD PTR __Count$[ebp]
  00069	8d 04 83	 lea	 eax, DWORD PTR [ebx+eax*4]
  0006c	89 46 08	 mov	 DWORD PTR [esi+8], eax

; 770  : 			this->_Mylast = _Ptr + _Size;

  0006f	8d 04 bb	 lea	 eax, DWORD PTR [ebx+edi*4]
  00072	5f		 pop	 edi

; 771  : 			this->_Myfirst = _Ptr;

  00073	89 1e		 mov	 DWORD PTR [esi], ebx
  00075	89 46 04	 mov	 DWORD PTR [esi+4], eax
  00078	5b		 pop	 ebx
$LN3@reserve@2:
  00079	5e		 pop	 esi

; 772  : 			}
; 773  : 		}

  0007a	5d		 pop	 ebp
  0007b	c2 04 00	 ret	 4
$LN42@reserve@2:
?reserve@?$vector@KV?$allocator@K@std@@@std@@QAEXI@Z ENDP ; std::vector<unsigned long,std::allocator<unsigned long> >::reserve
_TEXT	ENDS
PUBLIC	??_G?$basic_string@DU?$char_traits@D@std@@V?$allocator@D@2@@std@@QAEPAXI@Z ; std::basic_string<char,std::char_traits<char>,std::allocator<char> >::`scalar deleting destructor'
; Function compile flags: /Ogsp
;	COMDAT ??_G?$basic_string@DU?$char_traits@D@std@@V?$allocator@D@2@@std@@QAEPAXI@Z
_TEXT	SEGMENT
___flags$ = 8						; size = 4
??_G?$basic_string@DU?$char_traits@D@std@@V?$allocator@D@2@@std@@QAEPAXI@Z PROC ; std::basic_string<char,std::char_traits<char>,std::allocator<char> >::`scalar deleting destructor', COMDAT
; _this$ = ecx
  00000	55		 push	 ebp
  00001	8b ec		 mov	 ebp, esp
  00003	56		 push	 esi
  00004	6a 00		 push	 0
  00006	6a 01		 push	 1
  00008	8b f1		 mov	 esi, ecx
  0000a	e8 00 00 00 00	 call	 ?_Tidy@?$basic_string@DU?$char_traits@D@std@@V?$allocator@D@2@@std@@QAEX_NI@Z ; std::basic_string<char,std::char_traits<char>,std::allocator<char> >::_Tidy
  0000f	f6 45 08 01	 test	 BYTE PTR ___flags$[ebp], 1
  00013	74 07		 je	 SHORT $LN1@scalar@3
  00015	56		 push	 esi
  00016	e8 00 00 00 00	 call	 ??3@YAXPAX@Z		; operator delete
  0001b	59		 pop	 ecx
$LN1@scalar@3:
  0001c	8b c6		 mov	 eax, esi
  0001e	5e		 pop	 esi
  0001f	5d		 pop	 ebp
  00020	c2 04 00	 ret	 4
??_G?$basic_string@DU?$char_traits@D@std@@V?$allocator@D@2@@std@@QAEPAXI@Z ENDP ; std::basic_string<char,std::char_traits<char>,std::allocator<char> >::`scalar deleting destructor'
_TEXT	ENDS
PUBLIC	??1?$vector@W4RaceDetailType@@V?$allocator@W4RaceDetailType@@@std@@@std@@QAE@XZ ; std::vector<enum RaceDetailType,std::allocator<enum RaceDetailType> >::~vector<enum RaceDetailType,std::allocator<enum RaceDetailType> >
; Function compile flags: /Ogsp
;	COMDAT ??1?$vector@W4RaceDetailType@@V?$allocator@W4RaceDetailType@@@std@@@std@@QAE@XZ
_TEXT	SEGMENT
??1?$vector@W4RaceDetailType@@V?$allocator@W4RaceDetailType@@@std@@@std@@QAE@XZ PROC ; std::vector<enum RaceDetailType,std::allocator<enum RaceDetailType> >::~vector<enum RaceDetailType,std::allocator<enum RaceDetailType> >, COMDAT
; _this$ = ecx

; 705  : 		_Tidy();

  00000	e9 00 00 00 00	 jmp	 ?_Tidy@?$vector@W4RaceDetailType@@V?$allocator@W4RaceDetailType@@@std@@@std@@IAEXXZ ; std::vector<enum RaceDetailType,std::allocator<enum RaceDetailType> >::_Tidy
??1?$vector@W4RaceDetailType@@V?$allocator@W4RaceDetailType@@@std@@@std@@QAE@XZ ENDP ; std::vector<enum RaceDetailType,std::allocator<enum RaceDetailType> >::~vector<enum RaceDetailType,std::allocator<enum RaceDetailType> >
_TEXT	ENDS
PUBLIC	?clear@?$vector@W4RaceDetailType@@V?$allocator@W4RaceDetailType@@@std@@@std@@QAEXXZ ; std::vector<enum RaceDetailType,std::allocator<enum RaceDetailType> >::clear
; Function compile flags: /Ogsp
;	COMDAT ?clear@?$vector@W4RaceDetailType@@V?$allocator@W4RaceDetailType@@@std@@@std@@QAEXXZ
_TEXT	SEGMENT
$T512618 = -4						; size = 4
?clear@?$vector@W4RaceDetailType@@V?$allocator@W4RaceDetailType@@@std@@@std@@QAEXXZ PROC ; std::vector<enum RaceDetailType,std::allocator<enum RaceDetailType> >::clear, COMDAT
; _this$ = ecx

; 1217 : 		{	// erase all

  00000	55		 push	 ebp
  00001	8b ec		 mov	 ebp, esp
  00003	51		 push	 ecx

; 1218 : 		erase(begin(), end());

  00004	8b 41 04	 mov	 eax, DWORD PTR [ecx+4]
  00007	8b 11		 mov	 edx, DWORD PTR [ecx]
  00009	50		 push	 eax
  0000a	52		 push	 edx
  0000b	8d 45 fc	 lea	 eax, DWORD PTR $T512618[ebp]
  0000e	50		 push	 eax
  0000f	e8 00 00 00 00	 call	 ?erase@?$vector@W4RaceDetailType@@V?$allocator@W4RaceDetailType@@@std@@@std@@QAE?AV?$_Vector_iterator@V?$_Vector_val@W4RaceDetailType@@V?$allocator@W4RaceDetailType@@@std@@@std@@@2@V?$_Vector_const_iterator@V?$_Vector_val@W4RaceDetailType@@V?$allocator@W4RaceDetailType@@@std@@@std@@@2@0@Z ; std::vector<enum RaceDetailType,std::allocator<enum RaceDetailType> >::erase

; 1219 : 		}

  00014	c9		 leave
  00015	c3		 ret	 0
?clear@?$vector@W4RaceDetailType@@V?$allocator@W4RaceDetailType@@@std@@@std@@QAEXXZ ENDP ; std::vector<enum RaceDetailType,std::allocator<enum RaceDetailType> >::clear
_TEXT	ENDS
PUBLIC	??1?$vector@PBVioItem@@V?$allocator@PBVioItem@@@std@@@std@@QAE@XZ ; std::vector<ioItem const *,std::allocator<ioItem const *> >::~vector<ioItem const *,std::allocator<ioItem const *> >
; Function compile flags: /Ogsp
;	COMDAT ??1?$vector@PBVioItem@@V?$allocator@PBVioItem@@@std@@@std@@QAE@XZ
_TEXT	SEGMENT
??1?$vector@PBVioItem@@V?$allocator@PBVioItem@@@std@@@std@@QAE@XZ PROC ; std::vector<ioItem const *,std::allocator<ioItem const *> >::~vector<ioItem const *,std::allocator<ioItem const *> >, COMDAT
; _this$ = ecx

; 705  : 		_Tidy();

  00000	e9 00 00 00 00	 jmp	 ?_Tidy@?$vector@PBVioItem@@V?$allocator@PBVioItem@@@std@@@std@@IAEXXZ ; std::vector<ioItem const *,std::allocator<ioItem const *> >::_Tidy
??1?$vector@PBVioItem@@V?$allocator@PBVioItem@@@std@@@std@@QAE@XZ ENDP ; std::vector<ioItem const *,std::allocator<ioItem const *> >::~vector<ioItem const *,std::allocator<ioItem const *> >
_TEXT	ENDS
PUBLIC	?_Reserve@?$vector@W4RaceDetailType@@V?$allocator@W4RaceDetailType@@@std@@@std@@IAEXI@Z ; std::vector<enum RaceDetailType,std::allocator<enum RaceDetailType> >::_Reserve
; Function compile flags: /Ogsp
;	COMDAT ?_Reserve@?$vector@W4RaceDetailType@@V?$allocator@W4RaceDetailType@@@std@@@std@@IAEXI@Z
_TEXT	SEGMENT
__Count$ = 8						; size = 4
?_Reserve@?$vector@W4RaceDetailType@@V?$allocator@W4RaceDetailType@@@std@@@std@@IAEXI@Z PROC ; std::vector<enum RaceDetailType,std::allocator<enum RaceDetailType> >::_Reserve, COMDAT
; _this$ = ecx

; 1290 : 		{	// ensure room for _Count new elements, grow exponentially

  00000	55		 push	 ebp
  00001	8b ec		 mov	 ebp, esp
  00003	56		 push	 esi
  00004	8b f1		 mov	 esi, ecx

; 1291 : 		size_type _Size = size();

  00006	8b 0e		 mov	 ecx, DWORD PTR [esi]
  00008	8b 46 04	 mov	 eax, DWORD PTR [esi+4]
  0000b	2b c1		 sub	 eax, ecx

; 1292 : 		if (max_size() - _Count < _Size)

  0000d	ba ff ff ff 3f	 mov	 edx, 1073741823		; 3fffffffH
  00012	2b 55 08	 sub	 edx, DWORD PTR __Count$[ebp]
  00015	c1 f8 02	 sar	 eax, 2
  00018	3b d0		 cmp	 edx, eax
  0001a	73 0b		 jae	 SHORT $LN4@Reserve

; 1293 : 			_Xlen();

  0001c	68 00 00 00 00	 push	 OFFSET ??_C@_0BD@OLBABOEK@vector?$DMT?$DO?5too?5long?$AA@
  00021	ff 15 00 00 00
	00		 call	 DWORD PTR __imp_?_Xlength_error@std@@YAXPBD@Z
$LN21@Reserve:
$LN4@Reserve:

; 1294 : 		else if ((_Size += _Count) <= capacity())

  00027	8b 56 08	 mov	 edx, DWORD PTR [esi+8]
  0002a	03 45 08	 add	 eax, DWORD PTR __Count$[ebp]
  0002d	2b d1		 sub	 edx, ecx
  0002f	c1 fa 02	 sar	 edx, 2
  00032	3b c2		 cmp	 eax, edx
  00034	76 10		 jbe	 SHORT $LN1@Reserve

; 1295 : 			;
; 1296 : 		else
; 1297 : 			reserve(_Grow_to(_Size));

  00036	50		 push	 eax
  00037	8b ce		 mov	 ecx, esi
  00039	e8 00 00 00 00	 call	 ?_Grow_to@?$vector@W4RaceDetailType@@V?$allocator@W4RaceDetailType@@@std@@@std@@IBEII@Z ; std::vector<enum RaceDetailType,std::allocator<enum RaceDetailType> >::_Grow_to
  0003e	50		 push	 eax
  0003f	8b ce		 mov	 ecx, esi
  00041	e8 00 00 00 00	 call	 ?reserve@?$vector@W4RaceDetailType@@V?$allocator@W4RaceDetailType@@@std@@@std@@QAEXI@Z ; std::vector<enum RaceDetailType,std::allocator<enum RaceDetailType> >::reserve
$LN1@Reserve:
  00046	5e		 pop	 esi

; 1298 : 		}

  00047	5d		 pop	 ebp
  00048	c2 04 00	 ret	 4
$LN20@Reserve:
?_Reserve@?$vector@W4RaceDetailType@@V?$allocator@W4RaceDetailType@@@std@@@std@@IAEXI@Z ENDP ; std::vector<enum RaceDetailType,std::allocator<enum RaceDetailType> >::_Reserve
_TEXT	ENDS
PUBLIC	??1?$vector@KV?$allocator@K@std@@@std@@QAE@XZ	; std::vector<unsigned long,std::allocator<unsigned long> >::~vector<unsigned long,std::allocator<unsigned long> >
; Function compile flags: /Ogsp
;	COMDAT ??1?$vector@KV?$allocator@K@std@@@std@@QAE@XZ
_TEXT	SEGMENT
??1?$vector@KV?$allocator@K@std@@@std@@QAE@XZ PROC	; std::vector<unsigned long,std::allocator<unsigned long> >::~vector<unsigned long,std::allocator<unsigned long> >, COMDAT
; _this$ = ecx

; 705  : 		_Tidy();

  00000	e9 00 00 00 00	 jmp	 ?_Tidy@?$vector@KV?$allocator@K@std@@@std@@IAEXXZ ; std::vector<unsigned long,std::allocator<unsigned long> >::_Tidy
??1?$vector@KV?$allocator@K@std@@@std@@QAE@XZ ENDP	; std::vector<unsigned long,std::allocator<unsigned long> >::~vector<unsigned long,std::allocator<unsigned long> >
_TEXT	ENDS
PUBLIC	?clear@?$vector@KV?$allocator@K@std@@@std@@QAEXXZ ; std::vector<unsigned long,std::allocator<unsigned long> >::clear
; Function compile flags: /Ogsp
;	COMDAT ?clear@?$vector@KV?$allocator@K@std@@@std@@QAEXXZ
_TEXT	SEGMENT
$T512719 = -4						; size = 4
?clear@?$vector@KV?$allocator@K@std@@@std@@QAEXXZ PROC	; std::vector<unsigned long,std::allocator<unsigned long> >::clear, COMDAT
; _this$ = ecx

; 1217 : 		{	// erase all

  00000	55		 push	 ebp
  00001	8b ec		 mov	 ebp, esp
  00003	51		 push	 ecx

; 1218 : 		erase(begin(), end());

  00004	8b 41 04	 mov	 eax, DWORD PTR [ecx+4]
  00007	8b 11		 mov	 edx, DWORD PTR [ecx]
  00009	50		 push	 eax
  0000a	52		 push	 edx
  0000b	8d 45 fc	 lea	 eax, DWORD PTR $T512719[ebp]
  0000e	50		 push	 eax
  0000f	e8 00 00 00 00	 call	 ?erase@?$vector@KV?$allocator@K@std@@@std@@QAE?AV?$_Vector_iterator@V?$_Vector_val@KV?$allocator@K@std@@@std@@@2@V?$_Vector_const_iterator@V?$_Vector_val@KV?$allocator@K@std@@@std@@@2@0@Z ; std::vector<unsigned long,std::allocator<unsigned long> >::erase

; 1219 : 		}

  00014	c9		 leave
  00015	c3		 ret	 0
?clear@?$vector@KV?$allocator@K@std@@@std@@QAEXXZ ENDP	; std::vector<unsigned long,std::allocator<unsigned long> >::clear
_TEXT	ENDS
PUBLIC	?_Reserve@?$vector@KV?$allocator@K@std@@@std@@IAEXI@Z ; std::vector<unsigned long,std::allocator<unsigned long> >::_Reserve
; Function compile flags: /Ogsp
;	COMDAT ?_Reserve@?$vector@KV?$allocator@K@std@@@std@@IAEXI@Z
_TEXT	SEGMENT
__Count$ = 8						; size = 4
?_Reserve@?$vector@KV?$allocator@K@std@@@std@@IAEXI@Z PROC ; std::vector<unsigned long,std::allocator<unsigned long> >::_Reserve, COMDAT
; _this$ = ecx

; 1290 : 		{	// ensure room for _Count new elements, grow exponentially

  00000	55		 push	 ebp
  00001	8b ec		 mov	 ebp, esp
  00003	56		 push	 esi
  00004	8b f1		 mov	 esi, ecx

; 1291 : 		size_type _Size = size();

  00006	8b 0e		 mov	 ecx, DWORD PTR [esi]
  00008	8b 46 04	 mov	 eax, DWORD PTR [esi+4]
  0000b	2b c1		 sub	 eax, ecx

; 1292 : 		if (max_size() - _Count < _Size)

  0000d	ba ff ff ff 3f	 mov	 edx, 1073741823		; 3fffffffH
  00012	2b 55 08	 sub	 edx, DWORD PTR __Count$[ebp]
  00015	c1 f8 02	 sar	 eax, 2
  00018	3b d0		 cmp	 edx, eax
  0001a	73 0b		 jae	 SHORT $LN4@Reserve@2

; 1293 : 			_Xlen();

  0001c	68 00 00 00 00	 push	 OFFSET ??_C@_0BD@OLBABOEK@vector?$DMT?$DO?5too?5long?$AA@
  00021	ff 15 00 00 00
	00		 call	 DWORD PTR __imp_?_Xlength_error@std@@YAXPBD@Z
$LN21@Reserve@2:
$LN4@Reserve@2:

; 1294 : 		else if ((_Size += _Count) <= capacity())

  00027	8b 56 08	 mov	 edx, DWORD PTR [esi+8]
  0002a	03 45 08	 add	 eax, DWORD PTR __Count$[ebp]
  0002d	2b d1		 sub	 edx, ecx
  0002f	c1 fa 02	 sar	 edx, 2
  00032	3b c2		 cmp	 eax, edx
  00034	76 10		 jbe	 SHORT $LN1@Reserve@2

; 1295 : 			;
; 1296 : 		else
; 1297 : 			reserve(_Grow_to(_Size));

  00036	50		 push	 eax
  00037	8b ce		 mov	 ecx, esi
  00039	e8 00 00 00 00	 call	 ?_Grow_to@?$vector@KV?$allocator@K@std@@@std@@IBEII@Z ; std::vector<unsigned long,std::allocator<unsigned long> >::_Grow_to
  0003e	50		 push	 eax
  0003f	8b ce		 mov	 ecx, esi
  00041	e8 00 00 00 00	 call	 ?reserve@?$vector@KV?$allocator@K@std@@@std@@QAEXI@Z ; std::vector<unsigned long,std::allocator<unsigned long> >::reserve
$LN1@Reserve@2:
  00046	5e		 pop	 esi

; 1298 : 		}

  00047	5d		 pop	 ebp
  00048	c2 04 00	 ret	 4
$LN20@Reserve@2:
?_Reserve@?$vector@KV?$allocator@K@std@@@std@@IAEXI@Z ENDP ; std::vector<unsigned long,std::allocator<unsigned long> >::_Reserve
_TEXT	ENDS
PUBLIC	?assign@?$basic_string@DU?$char_traits@D@std@@V?$allocator@D@2@@std@@QAEAAV12@ABV12@II@Z ; std::basic_string<char,std::char_traits<char>,std::allocator<char> >::assign
; Function compile flags: /Ogsp
; File c:\program files (x86)\microsoft visual studio 10.0\vc\include\xstring
;	COMDAT ?assign@?$basic_string@DU?$char_traits@D@std@@V?$allocator@D@2@@std@@QAEAAV12@ABV12@II@Z
_TEXT	SEGMENT
__Right$ = 8						; size = 4
__Roff$ = 12						; size = 4
__Count$ = 16						; size = 4
?assign@?$basic_string@DU?$char_traits@D@std@@V?$allocator@D@2@@std@@QAEAAV12@ABV12@II@Z PROC ; std::basic_string<char,std::char_traits<char>,std::allocator<char> >::assign, COMDAT
; _this$ = ecx

; 893  : 		{	// assign _Right [_Roff, _Roff + _Count)

  00000	55		 push	 ebp
  00001	8b ec		 mov	 ebp, esp
  00003	53		 push	 ebx

; 894  : 		if (_Right.size() < _Roff)

  00004	8b 5d 08	 mov	 ebx, DWORD PTR __Right$[ebp]
  00007	8b 43 10	 mov	 eax, DWORD PTR [ebx+16]
  0000a	56		 push	 esi
  0000b	8b f1		 mov	 esi, ecx
  0000d	8b 4d 0c	 mov	 ecx, DWORD PTR __Roff$[ebp]
  00010	57		 push	 edi
  00011	3b c1		 cmp	 eax, ecx
  00013	73 0b		 jae	 SHORT $LN5@assign

; 895  : 			_Xran();	// _Roff off end

  00015	68 00 00 00 00	 push	 OFFSET ??_C@_0BI@CFPLBAOH@invalid?5string?5position?$AA@
  0001a	ff 15 00 00 00
	00		 call	 DWORD PTR __imp_?_Xout_of_range@std@@YAXPBD@Z
$LN34@assign:
$LN5@assign:

; 896  : 		size_type _Num = _Right.size() - _Roff;

  00020	2b c1		 sub	 eax, ecx
  00022	8b f8		 mov	 edi, eax

; 897  : 		if (_Count < _Num)

  00024	39 7d 10	 cmp	 DWORD PTR __Count$[ebp], edi

; 898  : 			_Num = _Count;	// trim _Num to size

  00027	0f 42 7d 10	 cmovb	 edi, DWORD PTR __Count$[ebp]

; 899  : 
; 900  : 		if (this == &_Right)

  0002b	3b f3		 cmp	 esi, ebx
  0002d	75 1a		 jne	 SHORT $LN3@assign

; 901  : 			erase((size_type)(_Roff + _Num)), erase(0, _Roff);	// substring

  0002f	03 f9		 add	 edi, ecx
  00031	6a ff		 push	 -1
  00033	57		 push	 edi
  00034	8b ce		 mov	 ecx, esi
  00036	e8 00 00 00 00	 call	 ?erase@?$basic_string@DU?$char_traits@D@std@@V?$allocator@D@2@@std@@QAEAAV12@II@Z ; std::basic_string<char,std::char_traits<char>,std::allocator<char> >::erase
  0003b	ff 75 0c	 push	 DWORD PTR __Roff$[ebp]
  0003e	8b ce		 mov	 ecx, esi
  00040	6a 00		 push	 0
  00042	e8 00 00 00 00	 call	 ?erase@?$basic_string@DU?$char_traits@D@std@@V?$allocator@D@2@@std@@QAEAAV12@II@Z ; std::basic_string<char,std::char_traits<char>,std::allocator<char> >::erase
  00047	eb 47		 jmp	 SHORT $LN31@assign
$LN3@assign:

; 902  : 		else if (_Grow(_Num))

  00049	6a 00		 push	 0
  0004b	57		 push	 edi
  0004c	8b ce		 mov	 ecx, esi
  0004e	e8 00 00 00 00	 call	 ?_Grow@?$basic_string@DU?$char_traits@D@std@@V?$allocator@D@2@@std@@QAE_NI_N@Z ; std::basic_string<char,std::char_traits<char>,std::allocator<char> >::_Grow
  00053	84 c0		 test	 al, al
  00055	74 39		 je	 SHORT $LN31@assign

; 903  : 			{	// make room and assign new stuff
; 904  : 			_Traits::copy(_Myptr(), _Right._Myptr() + _Roff, _Num);

  00057	83 7b 14 10	 cmp	 DWORD PTR [ebx+20], 16	; 00000010H
  0005b	72 04		 jb	 SHORT $LN17@assign
  0005d	8b 03		 mov	 eax, DWORD PTR [ebx]
  0005f	eb 02		 jmp	 SHORT $LN18@assign
$LN17@assign:
  00061	8b c3		 mov	 eax, ebx
$LN18@assign:
  00063	83 7e 14 10	 cmp	 DWORD PTR [esi+20], 16	; 00000010H
  00067	72 04		 jb	 SHORT $LN21@assign
  00069	8b 0e		 mov	 ecx, DWORD PTR [esi]
  0006b	eb 02		 jmp	 SHORT $LN22@assign
$LN21@assign:
  0006d	8b ce		 mov	 ecx, esi
$LN22@assign:
  0006f	03 45 0c	 add	 eax, DWORD PTR __Roff$[ebp]
  00072	57		 push	 edi
  00073	50		 push	 eax
  00074	51		 push	 ecx
  00075	e8 00 00 00 00	 call	 _memcpy
  0007a	83 c4 0c	 add	 esp, 12			; 0000000cH

; 905  : 			_Eos(_Num);

  0007d	83 7e 14 10	 cmp	 DWORD PTR [esi+20], 16	; 00000010H
  00081	89 7e 10	 mov	 DWORD PTR [esi+16], edi
  00084	72 04		 jb	 SHORT $LN29@assign
  00086	8b 06		 mov	 eax, DWORD PTR [esi]
  00088	eb 02		 jmp	 SHORT $LN30@assign
$LN29@assign:
  0008a	8b c6		 mov	 eax, esi
$LN30@assign:
  0008c	c6 04 38 00	 mov	 BYTE PTR [eax+edi], 0
$LN31@assign:

; 906  : 			}
; 907  : 		return (*this);

  00090	5f		 pop	 edi
  00091	8b c6		 mov	 eax, esi
  00093	5e		 pop	 esi
  00094	5b		 pop	 ebx

; 908  : 		}

  00095	5d		 pop	 ebp
  00096	c2 0c 00	 ret	 12			; 0000000cH
$LN33@assign:
?assign@?$basic_string@DU?$char_traits@D@std@@V?$allocator@D@2@@std@@QAEAAV12@ABV12@II@Z ENDP ; std::basic_string<char,std::char_traits<char>,std::allocator<char> >::assign
_TEXT	ENDS
PUBLIC	?assign@?$basic_string@DU?$char_traits@D@std@@V?$allocator@D@2@@std@@QAEAAV12@PBDI@Z ; std::basic_string<char,std::char_traits<char>,std::allocator<char> >::assign
; Function compile flags: /Ogsp
;	COMDAT ?assign@?$basic_string@DU?$char_traits@D@std@@V?$allocator@D@2@@std@@QAEAAV12@PBDI@Z
_TEXT	SEGMENT
__Ptr$ = 8						; size = 4
__Count$ = 12						; size = 4
?assign@?$basic_string@DU?$char_traits@D@std@@V?$allocator@D@2@@std@@QAEAAV12@PBDI@Z PROC ; std::basic_string<char,std::char_traits<char>,std::allocator<char> >::assign, COMDAT
; _this$ = ecx

; 911  : 		{	// assign [_Ptr, _Ptr + _Count)

  00000	55		 push	 ebp
  00001	8b ec		 mov	 ebp, esp
  00003	53		 push	 ebx

; 912  :  #if _ITERATOR_DEBUG_LEVEL == 2
; 913  : 		if (_Count != 0)
; 914  : 			_DEBUG_POINTER(_Ptr);
; 915  :  #endif /* _ITERATOR_DEBUG_LEVEL == 2 */
; 916  : 
; 917  : 		if (_Inside(_Ptr))

  00004	8b 5d 08	 mov	 ebx, DWORD PTR __Ptr$[ebp]
  00007	56		 push	 esi
  00008	53		 push	 ebx
  00009	8b f1		 mov	 esi, ecx
  0000b	e8 00 00 00 00	 call	 ?_Inside@?$basic_string@DU?$char_traits@D@std@@V?$allocator@D@2@@std@@QAE_NPBD@Z ; std::basic_string<char,std::char_traits<char>,std::allocator<char> >::_Inside
  00010	84 c0		 test	 al, al
  00012	74 1c		 je	 SHORT $LN2@assign@2

; 918  : 			return (assign(*this, _Ptr - _Myptr(), _Count));	// substring

  00014	83 7e 14 10	 cmp	 DWORD PTR [esi+20], 16	; 00000010H
  00018	72 04		 jb	 SHORT $LN7@assign@2
  0001a	8b 06		 mov	 eax, DWORD PTR [esi]
  0001c	eb 02		 jmp	 SHORT $LN8@assign@2
$LN7@assign@2:
  0001e	8b c6		 mov	 eax, esi
$LN8@assign@2:
  00020	ff 75 0c	 push	 DWORD PTR __Count$[ebp]
  00023	2b d8		 sub	 ebx, eax
  00025	53		 push	 ebx
  00026	56		 push	 esi
  00027	8b ce		 mov	 ecx, esi
  00029	e8 00 00 00 00	 call	 ?assign@?$basic_string@DU?$char_traits@D@std@@V?$allocator@D@2@@std@@QAEAAV12@ABV12@II@Z ; std::basic_string<char,std::char_traits<char>,std::allocator<char> >::assign
  0002e	eb 3f		 jmp	 SHORT $LN3@assign@2
$LN2@assign@2:
  00030	57		 push	 edi

; 919  : 
; 920  : 		if (_Grow(_Count))

  00031	8b 7d 0c	 mov	 edi, DWORD PTR __Count$[ebp]
  00034	6a 00		 push	 0
  00036	57		 push	 edi
  00037	8b ce		 mov	 ecx, esi
  00039	e8 00 00 00 00	 call	 ?_Grow@?$basic_string@DU?$char_traits@D@std@@V?$allocator@D@2@@std@@QAE_NI_N@Z ; std::basic_string<char,std::char_traits<char>,std::allocator<char> >::_Grow
  0003e	84 c0		 test	 al, al
  00040	74 2a		 je	 SHORT $LN21@assign@2

; 921  : 			{	// make room and assign new stuff
; 922  : 			_Traits::copy(_Myptr(), _Ptr, _Count);

  00042	83 7e 14 10	 cmp	 DWORD PTR [esi+20], 16	; 00000010H
  00046	72 04		 jb	 SHORT $LN11@assign@2
  00048	8b 06		 mov	 eax, DWORD PTR [esi]
  0004a	eb 02		 jmp	 SHORT $LN12@assign@2
$LN11@assign@2:
  0004c	8b c6		 mov	 eax, esi
$LN12@assign@2:
  0004e	57		 push	 edi
  0004f	53		 push	 ebx
  00050	50		 push	 eax
  00051	e8 00 00 00 00	 call	 _memcpy
  00056	83 c4 0c	 add	 esp, 12			; 0000000cH

; 923  : 			_Eos(_Count);

  00059	83 7e 14 10	 cmp	 DWORD PTR [esi+20], 16	; 00000010H
  0005d	89 7e 10	 mov	 DWORD PTR [esi+16], edi
  00060	72 04		 jb	 SHORT $LN19@assign@2
  00062	8b 06		 mov	 eax, DWORD PTR [esi]
  00064	eb 02		 jmp	 SHORT $LN20@assign@2
$LN19@assign@2:
  00066	8b c6		 mov	 eax, esi
$LN20@assign@2:
  00068	c6 04 38 00	 mov	 BYTE PTR [eax+edi], 0
$LN21@assign@2:

; 924  : 			}
; 925  : 		return (*this);

  0006c	8b c6		 mov	 eax, esi
  0006e	5f		 pop	 edi
$LN3@assign@2:
  0006f	5e		 pop	 esi
  00070	5b		 pop	 ebx

; 926  : 		}

  00071	5d		 pop	 ebp
  00072	c2 08 00	 ret	 8
?assign@?$basic_string@DU?$char_traits@D@std@@V?$allocator@D@2@@std@@QAEAAV12@PBDI@Z ENDP ; std::basic_string<char,std::char_traits<char>,std::allocator<char> >::assign
_TEXT	ENDS
PUBLIC	??$_Destroy@V?$basic_string@DU?$char_traits@D@std@@V?$allocator@D@2@@std@@@std@@YAXPAV?$basic_string@DU?$char_traits@D@std@@V?$allocator@D@2@@0@@Z ; std::_Destroy<std::basic_string<char,std::char_traits<char>,std::allocator<char> > >
; Function compile flags: /Ogsp
; File c:\program files (x86)\microsoft visual studio 10.0\vc\include\xmemory
;	COMDAT ??$_Destroy@V?$basic_string@DU?$char_traits@D@std@@V?$allocator@D@2@@std@@@std@@YAXPAV?$basic_string@DU?$char_traits@D@std@@V?$allocator@D@2@@0@@Z
_TEXT	SEGMENT
__Ptr$ = 8						; size = 4
??$_Destroy@V?$basic_string@DU?$char_traits@D@std@@V?$allocator@D@2@@std@@@std@@YAXPAV?$basic_string@DU?$char_traits@D@std@@V?$allocator@D@2@@0@@Z PROC ; std::_Destroy<std::basic_string<char,std::char_traits<char>,std::allocator<char> > >, COMDAT

; 62   : 	{	// destroy object at _Ptr

  00000	55		 push	 ebp
  00001	8b ec		 mov	 ebp, esp

; 63   : 	_Ptr->~_Ty();

  00003	8b 4d 08	 mov	 ecx, DWORD PTR __Ptr$[ebp]
  00006	6a 00		 push	 0
  00008	6a 01		 push	 1
  0000a	e8 00 00 00 00	 call	 ?_Tidy@?$basic_string@DU?$char_traits@D@std@@V?$allocator@D@2@@std@@QAEX_NI@Z ; std::basic_string<char,std::char_traits<char>,std::allocator<char> >::_Tidy

; 64   : 	}

  0000f	5d		 pop	 ebp
  00010	c3		 ret	 0
??$_Destroy@V?$basic_string@DU?$char_traits@D@std@@V?$allocator@D@2@@std@@@std@@YAXPAV?$basic_string@DU?$char_traits@D@std@@V?$allocator@D@2@@0@@Z ENDP ; std::_Destroy<std::basic_string<char,std::char_traits<char>,std::allocator<char> > >
_TEXT	ENDS
PUBLIC	?UpdateCharacter@ServiceCharWnd@@IAEXXZ		; ServiceCharWnd::UpdateCharacter
EXTRN	?SetCharAnimation@Hire3DCharWnd@@QAEXXZ:PROC	; Hire3DCharWnd::SetCharAnimation
EXTRN	?EquipItem@Hire3DCharWnd@@QAEXPBVioItem@@@Z:PROC ; Hire3DCharWnd::EquipItem
EXTRN	?GetSetItemList@ioSetItemInfo@@QBE?AV?$vector@PBVioItem@@V?$allocator@PBVioItem@@@std@@@std@@XZ:PROC ; ioSetItemInfo::GetSetItemList
EXTRN	__imp_??4ioHashString@@QAEAAV0@ABV0@@Z:PROC
EXTRN	?GetSetInfoByIdx@ioSetItemInfoManager@@QBEPBVioSetItemInfo@@H@Z:PROC ; ioSetItemInfoManager::GetSetInfoByIdx
EXTRN	?GetSingeton@ioSetItemInfoManager@@SAAAV1@XZ:PROC ; ioSetItemInfoManager::GetSingeton
EXTRN	?CreateCharacter@Hire3DCharWnd@@QAEXABUCHARACTER@@@Z:PROC ; Hire3DCharWnd::CreateCharacter
EXTRN	__imp_?FindChildWnd@ioWnd@@QAEPAV1@K@Z:PROC
;	COMDAT xdata$x
; File c:\program files (x86)\microsoft visual studio 10.0\vc\include\vector
xdata$x	SEGMENT
__unwindtable$?UpdateCharacter@ServiceCharWnd@@IAEXXZ DD 0ffffffffH
	DD	FLAT:__unwindfunclet$?UpdateCharacter@ServiceCharWnd@@IAEXXZ$0
__ehfuncinfo$?UpdateCharacter@ServiceCharWnd@@IAEXXZ DD 019930522H
	DD	01H
	DD	FLAT:__unwindtable$?UpdateCharacter@ServiceCharWnd@@IAEXXZ
	DD	2 DUP(00H)
	DD	2 DUP(00H)
	DD	00H
	DD	01H
; Function compile flags: /Ogsp
; File d:\lost saga for developer\youtube\tutorial\source\src\lsclient\gui\servicecharwnd.cpp
xdata$x	ENDS
;	COMDAT ?UpdateCharacter@ServiceCharWnd@@IAEXXZ
_TEXT	SEGMENT
_rkItemList$506645 = -28				; size = 16
__$EHRec$ = -12						; size = 12
?UpdateCharacter@ServiceCharWnd@@IAEXXZ PROC		; ServiceCharWnd::UpdateCharacter, COMDAT
; _this$ = ecx

; 158  : {

  00000	6a 10		 push	 16			; 00000010H
  00002	b8 00 00 00 00	 mov	 eax, __ehhandler$?UpdateCharacter@ServiceCharWnd@@IAEXXZ
  00007	e8 00 00 00 00	 call	 __EH_prolog3
  0000c	8b f1		 mov	 esi, ecx

; 159  : 	UpdateCharInfo( m_EnableRaceList[m_iCurRaceDetailIdx] );

  0000e	8b 8e ac 01 00
	00		 mov	 ecx, DWORD PTR [esi+428]
  00014	8b 86 a8 01 00
	00		 mov	 eax, DWORD PTR [esi+424]
  0001a	ff 34 81	 push	 DWORD PTR [ecx+eax*4]
  0001d	8b ce		 mov	 ecx, esi
  0001f	e8 00 00 00 00	 call	 ?UpdateCharInfo@ServiceCharWnd@@IAEXW4RaceDetailType@@@Z ; ServiceCharWnd::UpdateCharInfo

; 160  : 
; 161  : 	Hire3DCharWnd *pCharWnd = (Hire3DCharWnd *)FindChildWnd( ID_CHARACTER );

  00024	6a 07		 push	 7
  00026	8b ce		 mov	 ecx, esi
  00028	ff 15 00 00 00
	00		 call	 DWORD PTR __imp_?FindChildWnd@ioWnd@@QAEPAV1@K@Z
  0002e	8b d8		 mov	 ebx, eax

; 162  : 	if( !pCharWnd )	return;

  00030	85 db		 test	 ebx, ebx
  00032	0f 84 a0 00 00
	00		 je	 $LN7@UpdateChar@2

; 163  : 
; 164  : 	// 캐릭터
; 165  : 	pCharWnd->CreateCharacter( m_CharInfo );

  00038	8d 86 bc 01 00
	00		 lea	 eax, DWORD PTR [esi+444]
  0003e	50		 push	 eax
  0003f	8b cb		 mov	 ecx, ebx
  00041	e8 00 00 00 00	 call	 ?CreateCharacter@Hire3DCharWnd@@QAEXABUCHARACTER@@@Z ; Hire3DCharWnd::CreateCharacter

; 166  : 
; 167  : 	// 장비 장착 
; 168  : 	DWORD dwSetItemIdx = 0;
; 169  : 	if( COMPARE( m_iClassSelect, 0, (int)m_dwFirstClassList.size() ) )

  00046	8b 8e 94 01 00
	00		 mov	 ecx, DWORD PTR [esi+404]
  0004c	33 ff		 xor	 edi, edi
  0004e	85 c9		 test	 ecx, ecx
  00050	78 18		 js	 SHORT $LN5@UpdateChar@2
  00052	8b 96 98 01 00
	00		 mov	 edx, DWORD PTR [esi+408]
  00058	8b 86 9c 01 00
	00		 mov	 eax, DWORD PTR [esi+412]
  0005e	2b c2		 sub	 eax, edx
  00060	c1 f8 02	 sar	 eax, 2
  00063	3b c8		 cmp	 ecx, eax
  00065	7d 03		 jge	 SHORT $LN5@UpdateChar@2

; 170  : 	{
; 171  : 		dwSetItemIdx = m_dwFirstClassList[m_iClassSelect];

  00067	8b 3c 8a	 mov	 edi, DWORD PTR [edx+ecx*4]
$LN5@UpdateChar@2:

; 172  : 	}
; 173  : 
; 174  : 	const ioSetItemInfo *pSetInfo = g_SetItemInfoMgr.GetSetInfoByIdx( dwSetItemIdx - 1 );

  0006a	4f		 dec	 edi
  0006b	57		 push	 edi
  0006c	e8 00 00 00 00	 call	 ?GetSingeton@ioSetItemInfoManager@@SAAAV1@XZ ; ioSetItemInfoManager::GetSingeton
  00071	8b c8		 mov	 ecx, eax
  00073	e8 00 00 00 00	 call	 ?GetSetInfoByIdx@ioSetItemInfoManager@@QBEPBVioSetItemInfo@@H@Z ; ioSetItemInfoManager::GetSetInfoByIdx
  00078	8b f8		 mov	 edi, eax

; 175  : 	if( pSetInfo )

  0007a	85 ff		 test	 edi, edi
  0007c	74 53		 je	 SHORT $LN26@UpdateChar@2

; 176  : 	{
; 177  : 		m_szClassName = pSetInfo->GetName();

  0007e	8d 47 08	 lea	 eax, DWORD PTR [edi+8]
  00081	50		 push	 eax
  00082	8d 8e e0 04 00
	00		 lea	 ecx, DWORD PTR [esi+1248]
  00088	ff 15 00 00 00
	00		 call	 DWORD PTR __imp_??4ioHashString@@QAEAAV0@ABV0@@Z

; 178  : 
; 179  : 		ConstItemVector rkItemList = pSetInfo->GetSetItemList();

  0008e	8d 45 e4	 lea	 eax, DWORD PTR _rkItemList$506645[ebp]
  00091	50		 push	 eax
  00092	8b cf		 mov	 ecx, edi
  00094	e8 00 00 00 00	 call	 ?GetSetItemList@ioSetItemInfo@@QBE?AV?$vector@PBVioItem@@V?$allocator@PBVioItem@@@std@@@std@@XZ ; ioSetItemInfo::GetSetItemList

; 180  : 
; 181  : 		int iMaxItemCnt = min( rkItemList.size(), MAX_INVENTORY );

  00099	8b 45 e8	 mov	 eax, DWORD PTR _rkItemList$506645[ebp+4]
  0009c	2b 45 e4	 sub	 eax, DWORD PTR _rkItemList$506645[ebp]
  0009f	6a 04		 push	 4
  000a1	c1 f8 02	 sar	 eax, 2
  000a4	33 f6		 xor	 esi, esi
  000a6	5f		 pop	 edi
  000a7	3b c7		 cmp	 eax, edi
  000a9	0f 42 f8	 cmovb	 edi, eax
  000ac	89 75 fc	 mov	 DWORD PTR __$EHRec$[ebp+8], esi

; 182  : 		for( int i=0 ; i<iMaxItemCnt; i++ )

  000af	3b fe		 cmp	 edi, esi
  000b1	7e 12		 jle	 SHORT $LN1@UpdateChar@2
$LN3@UpdateChar@2:

; 183  : 		{
; 184  : 			pCharWnd->EquipItem( rkItemList[i] );

  000b3	8b 45 e4	 mov	 eax, DWORD PTR _rkItemList$506645[ebp]
  000b6	ff 34 b0	 push	 DWORD PTR [eax+esi*4]
  000b9	8b cb		 mov	 ecx, ebx
  000bb	e8 00 00 00 00	 call	 ?EquipItem@Hire3DCharWnd@@QAEXPBVioItem@@@Z ; Hire3DCharWnd::EquipItem
  000c0	46		 inc	 esi
  000c1	3b f7		 cmp	 esi, edi
  000c3	7c ee		 jl	 SHORT $LN3@UpdateChar@2
$LN1@UpdateChar@2:

; 185  : 		}
; 186  : 	}

  000c5	83 4d fc ff	 or	 DWORD PTR __$EHRec$[ebp+8], -1
  000c9	8d 4d e4	 lea	 ecx, DWORD PTR _rkItemList$506645[ebp]
  000cc	e8 00 00 00 00	 call	 ?_Tidy@?$vector@PBVioItem@@V?$allocator@PBVioItem@@@std@@@std@@IAEXXZ ; std::vector<ioItem const *,std::allocator<ioItem const *> >::_Tidy
$LN26@UpdateChar@2:

; 187  : 
; 188  : 	pCharWnd->SetCharAnimation();

  000d1	8b cb		 mov	 ecx, ebx
  000d3	e8 00 00 00 00	 call	 ?SetCharAnimation@Hire3DCharWnd@@QAEXXZ ; Hire3DCharWnd::SetCharAnimation
$LN7@UpdateChar@2:

; 189  : }

  000d8	e8 00 00 00 00	 call	 __EH_epilog3
  000dd	c3		 ret	 0
_TEXT	ENDS
;	COMDAT text$x
text$x	SEGMENT
__unwindfunclet$?UpdateCharacter@ServiceCharWnd@@IAEXXZ$0:
  00000	8d 4d e4	 lea	 ecx, DWORD PTR _rkItemList$506645[ebp]
  00003	e9 00 00 00 00	 jmp	 ??1?$vector@PBVioItem@@V?$allocator@PBVioItem@@@std@@@std@@QAE@XZ ; std::vector<ioItem const *,std::allocator<ioItem const *> >::~vector<ioItem const *,std::allocator<ioItem const *> >
__ehhandler$?UpdateCharacter@ServiceCharWnd@@IAEXXZ:
  00008	8b 54 24 08	 mov	 edx, DWORD PTR [esp+8]
  0000c	8d 42 0c	 lea	 eax, DWORD PTR [edx+12]
  0000f	8b 4a e0	 mov	 ecx, DWORD PTR [edx-32]
  00012	33 c8		 xor	 ecx, eax
  00014	e8 00 00 00 00	 call	 @__security_check_cookie@4
  00019	b8 00 00 00 00	 mov	 eax, OFFSET __ehfuncinfo$?UpdateCharacter@ServiceCharWnd@@IAEXXZ
  0001e	e9 00 00 00 00	 jmp	 ___CxxFrameHandler3
text$x	ENDS
?UpdateCharacter@ServiceCharWnd@@IAEXXZ ENDP		; ServiceCharWnd::UpdateCharacter
PUBLIC	?ChangeClass@ServiceCharWnd@@IAEX_N@Z		; ServiceCharWnd::ChangeClass
; Function compile flags: /Ogsp
;	COMDAT ?ChangeClass@ServiceCharWnd@@IAEX_N@Z
_TEXT	SEGMENT
_bAdd$ = 8						; size = 1
?ChangeClass@ServiceCharWnd@@IAEX_N@Z PROC		; ServiceCharWnd::ChangeClass, COMDAT
; _this$ = ecx

; 250  : {

  00000	55		 push	 ebp
  00001	8b ec		 mov	 ebp, esp

; 251  : 	if( bAdd )

  00003	80 7d 08 00	 cmp	 BYTE PTR _bAdd$[ebp], 0
  00007	56		 push	 esi
  00008	74 2c		 je	 SHORT $LN6@ChangeClas

; 252  : 	{
; 253  : 		m_iClassSelect++;

  0000a	ff 81 94 01 00
	00		 inc	 DWORD PTR [ecx+404]
  00010	8b b1 94 01 00
	00		 mov	 esi, DWORD PTR [ecx+404]

; 254  : 		if( !COMPARE( m_iClassSelect, 0, (int)m_dwFirstClassList.size() ) )

  00016	78 15		 js	 SHORT $LN4@ChangeClas
  00018	57		 push	 edi
  00019	8b b9 9c 01 00
	00		 mov	 edi, DWORD PTR [ecx+412]
  0001f	2b b9 98 01 00
	00		 sub	 edi, DWORD PTR [ecx+408]
  00025	c1 ff 02	 sar	 edi, 2
  00028	3b f7		 cmp	 esi, edi
  0002a	5f		 pop	 edi
  0002b	7c 40		 jl	 SHORT $LN2@ChangeClas
$LN4@ChangeClas:

; 255  : 			m_iClassSelect = 0;

  0002d	83 a1 94 01 00
	00 00		 and	 DWORD PTR [ecx+404], 0

; 256  : 	}
; 257  : 	else

  00034	eb 37		 jmp	 SHORT $LN2@ChangeClas
$LN6@ChangeClas:

; 258  : 	{
; 259  : 		m_iClassSelect--;

  00036	ff 89 94 01 00
	00		 dec	 DWORD PTR [ecx+404]
  0003c	8b 91 94 01 00
	00		 mov	 edx, DWORD PTR [ecx+404]

; 260  : 		if( !COMPARE( m_iClassSelect, 0, (int)m_dwFirstClassList.size() ) )

  00042	78 13		 js	 SHORT $LN1@ChangeClas
  00044	8b b1 9c 01 00
	00		 mov	 esi, DWORD PTR [ecx+412]
  0004a	2b b1 98 01 00
	00		 sub	 esi, DWORD PTR [ecx+408]
  00050	c1 fe 02	 sar	 esi, 2
  00053	3b d6		 cmp	 edx, esi
  00055	7c 16		 jl	 SHORT $LN2@ChangeClas
$LN1@ChangeClas:

; 261  : 			m_iClassSelect = m_dwFirstClassList.size() - 1;

  00057	8b 91 9c 01 00
	00		 mov	 edx, DWORD PTR [ecx+412]
  0005d	2b 91 98 01 00
	00		 sub	 edx, DWORD PTR [ecx+408]
  00063	c1 fa 02	 sar	 edx, 2
  00066	4a		 dec	 edx
  00067	89 91 94 01 00
	00		 mov	 DWORD PTR [ecx+404], edx
$LN2@ChangeClas:

; 262  : 	}
; 263  : 
; 264  : 	UpdateCharacter();

  0006d	e8 00 00 00 00	 call	 ?UpdateCharacter@ServiceCharWnd@@IAEXXZ ; ServiceCharWnd::UpdateCharacter
  00072	5e		 pop	 esi

; 265  : }

  00073	5d		 pop	 ebp
  00074	c2 04 00	 ret	 4
?ChangeClass@ServiceCharWnd@@IAEX_N@Z ENDP		; ServiceCharWnd::ChangeClass
_TEXT	ENDS
PUBLIC	?ChangeCharacter@ServiceCharWnd@@IAEX_N@Z	; ServiceCharWnd::ChangeCharacter
; Function compile flags: /Ogsp
;	COMDAT ?ChangeCharacter@ServiceCharWnd@@IAEX_N@Z
_TEXT	SEGMENT
_bAdd$ = 8						; size = 1
?ChangeCharacter@ServiceCharWnd@@IAEX_N@Z PROC		; ServiceCharWnd::ChangeCharacter, COMDAT
; _this$ = ecx

; 268  : {

  00000	55		 push	 ebp
  00001	8b ec		 mov	 ebp, esp

; 269  : 	if( bAdd )

  00003	80 7d 08 00	 cmp	 BYTE PTR _bAdd$[ebp], 0
  00007	56		 push	 esi
  00008	8b f1		 mov	 esi, ecx
  0000a	74 2a		 je	 SHORT $LN6@ChangeChar

; 270  : 	{
; 271  : 		m_iCurRaceDetailIdx++;

  0000c	ff 86 a8 01 00
	00		 inc	 DWORD PTR [esi+424]
  00012	8b 8e a8 01 00
	00		 mov	 ecx, DWORD PTR [esi+424]

; 272  : 		if( !COMPARE( m_iCurRaceDetailIdx, 0, (int)m_EnableRaceList.size() ) )

  00018	78 13		 js	 SHORT $LN4@ChangeChar
  0001a	8b 96 b0 01 00
	00		 mov	 edx, DWORD PTR [esi+432]
  00020	2b 96 ac 01 00
	00		 sub	 edx, DWORD PTR [esi+428]
  00026	c1 fa 02	 sar	 edx, 2
  00029	3b ca		 cmp	 ecx, edx
  0002b	7c 40		 jl	 SHORT $LN2@ChangeChar
$LN4@ChangeChar:

; 273  : 			m_iCurRaceDetailIdx = 0;

  0002d	83 a6 a8 01 00
	00 00		 and	 DWORD PTR [esi+424], 0

; 274  : 	}
; 275  : 	else

  00034	eb 37		 jmp	 SHORT $LN2@ChangeChar
$LN6@ChangeChar:

; 276  : 	{
; 277  : 		m_iCurRaceDetailIdx--;

  00036	ff 8e a8 01 00
	00		 dec	 DWORD PTR [esi+424]
  0003c	8b 8e a8 01 00
	00		 mov	 ecx, DWORD PTR [esi+424]

; 278  : 		if( !COMPARE( m_iCurRaceDetailIdx, 0, (int)m_EnableRaceList.size() ) )

  00042	78 13		 js	 SHORT $LN1@ChangeChar
  00044	8b 96 b0 01 00
	00		 mov	 edx, DWORD PTR [esi+432]
  0004a	2b 96 ac 01 00
	00		 sub	 edx, DWORD PTR [esi+428]
  00050	c1 fa 02	 sar	 edx, 2
  00053	3b ca		 cmp	 ecx, edx
  00055	7c 16		 jl	 SHORT $LN2@ChangeChar
$LN1@ChangeChar:

; 279  : 			m_iCurRaceDetailIdx = m_EnableRaceList.size() - 1;

  00057	8b 8e b0 01 00
	00		 mov	 ecx, DWORD PTR [esi+432]
  0005d	2b 8e ac 01 00
	00		 sub	 ecx, DWORD PTR [esi+428]
  00063	c1 f9 02	 sar	 ecx, 2
  00066	49		 dec	 ecx
  00067	89 8e a8 01 00
	00		 mov	 DWORD PTR [esi+424], ecx
$LN2@ChangeChar:

; 280  : 	}
; 281  : 
; 282  : 	UpdateCharInfo( m_EnableRaceList[m_iCurRaceDetailIdx] );

  0006d	8b 8e ac 01 00
	00		 mov	 ecx, DWORD PTR [esi+428]
  00073	8b 86 a8 01 00
	00		 mov	 eax, DWORD PTR [esi+424]
  00079	ff 34 81	 push	 DWORD PTR [ecx+eax*4]
  0007c	8b ce		 mov	 ecx, esi
  0007e	e8 00 00 00 00	 call	 ?UpdateCharInfo@ServiceCharWnd@@IAEXW4RaceDetailType@@@Z ; ServiceCharWnd::UpdateCharInfo

; 283  : 	UpdateCharacter();

  00083	8b ce		 mov	 ecx, esi
  00085	e8 00 00 00 00	 call	 ?UpdateCharacter@ServiceCharWnd@@IAEXXZ ; ServiceCharWnd::UpdateCharacter
  0008a	5e		 pop	 esi

; 284  : }

  0008b	5d		 pop	 ebp
  0008c	c2 04 00	 ret	 4
?ChangeCharacter@ServiceCharWnd@@IAEX_N@Z ENDP		; ServiceCharWnd::ChangeCharacter
_TEXT	ENDS
PUBLIC	??_C@_0BM@EKKPMEGC@ServiceCharWnd?3?3iwm_command?$AA@ ; `string'
PUBLIC	__real@4f800000
PUBLIC	__$ArrayPad$
PUBLIC	?iwm_command@ServiceCharWnd@@UAEXPAVioWnd@@HK@Z	; ServiceCharWnd::iwm_command
EXTRN	?SetMouseBusy@ioApplication@@QAEX_N@Z:PROC	; ioApplication::SetMouseBusy
EXTRN	?GetSingleton@ioApplication@@SAAAV1@XZ:PROC	; ioApplication::GetSingleton
EXTRN	??1SP2Packet@@UAE@XZ:PROC			; SP2Packet::~SP2Packet
EXTRN	??6SP2Packet@@QAEAAV0@AAV?$CEncrypt@H@@@Z:PROC	; SP2Packet::operator<<
EXTRN	??6SP2Packet@@QAEAAV0@K@Z:PROC			; SP2Packet::operator<<
EXTRN	?SendToServer@TCPNetwork@@YAXAAVSP2Packet@@@Z:PROC ; TCPNetwork::SendToServer
EXTRN	?GetCharIndex@ioMyInfo@@QAEHH@Z:PROC		; ioMyInfo::GetCharIndex
EXTRN	??6SP2Packet@@QAEAAV0@H@Z:PROC			; SP2Packet::operator<<
EXTRN	??0SP2Packet@@QAE@K@Z:PROC			; SP2Packet::SP2Packet
EXTRN	?SetMsgBox@ioSP2GUIManager@@QAAXHPAVioWnd@@PBDZZ:PROC ; ioSP2GUIManager::SetMsgBox
EXTRN	?GetCharCount@ioMyInfo@@QBEHXZ:PROC		; ioMyInfo::GetCharCount
EXTRN	?RotateY@Hire3DCharWnd@@QAEXM@Z:PROC		; Hire3DCharWnd::RotateY
EXTRN	__imp_?GetID@ioWnd@@QBEKXZ:PROC
EXTRN	__chkstk:PROC
;	COMDAT ??_C@_0BM@EKKPMEGC@ServiceCharWnd?3?3iwm_command?$AA@
; File c:\program files (x86)\microsoft visual studio 10.0\vc\include\vector
CONST	SEGMENT
??_C@_0BM@EKKPMEGC@ServiceCharWnd?3?3iwm_command?$AA@ DB 'ServiceCharWnd:'
	DB	':iwm_command', 00H				; `string'
CONST	ENDS
;	COMDAT __real@4f800000
CONST	SEGMENT
__real@4f800000 DD 04f800000r			; 4.29497e+009
CONST	ENDS
;	COMDAT xdata$x
xdata$x	SEGMENT
__unwindtable$?iwm_command@ServiceCharWnd@@UAEXPAVioWnd@@HK@Z DD 0ffffffffH
	DD	FLAT:__unwindfunclet$?iwm_command@ServiceCharWnd@@UAEXPAVioWnd@@HK@Z$0
	DD	0ffffffffH
	DD	FLAT:__unwindfunclet$?iwm_command@ServiceCharWnd@@UAEXPAVioWnd@@HK@Z$1
__ehfuncinfo$?iwm_command@ServiceCharWnd@@UAEXPAVioWnd@@HK@Z DD 019930522H
	DD	02H
	DD	FLAT:__unwindtable$?iwm_command@ServiceCharWnd@@UAEXPAVioWnd@@HK@Z
	DD	2 DUP(00H)
	DD	2 DUP(00H)
	DD	00H
	DD	01H
; Function compile flags: /Ogsp
; File d:\lost saga for developer\youtube\tutorial\source\src\lsclient\gui\servicecharwnd.cpp
xdata$x	ENDS
;	COMDAT ?iwm_command@ServiceCharWnd@@UAEXPAVioWnd@@HK@Z
_TEXT	SEGMENT
tv400 = -65604						; size = 4
tv393 = -65604						; size = 4
_kPacket$506771 = -65600				; size = 32792
_kPacket$506769 = -32808				; size = 32792
__$ArrayPad$ = -16					; size = 4
__$EHRec$ = -12						; size = 12
_pWnd$ = 8						; size = 4
_cmd$ = 12						; size = 4
_param$ = 16						; size = 4
?iwm_command@ServiceCharWnd@@UAEXPAVioWnd@@HK@Z PROC	; ServiceCharWnd::iwm_command, COMDAT
; _this$ = ecx

; 293  : {

  00000	55		 push	 ebp
  00001	8b ec		 mov	 ebp, esp
  00003	6a ff		 push	 -1
  00005	68 00 00 00 00	 push	 __ehhandler$?iwm_command@ServiceCharWnd@@UAEXPAVioWnd@@HK@Z
  0000a	64 a1 00 00 00
	00		 mov	 eax, DWORD PTR fs:0
  00010	50		 push	 eax
  00011	b8 38 00 01 00	 mov	 eax, 65592		; 00010038H
  00016	e8 00 00 00 00	 call	 __chkstk
  0001b	a1 00 00 00 00	 mov	 eax, DWORD PTR ___security_cookie
  00020	33 c5		 xor	 eax, ebp
  00022	89 45 f0	 mov	 DWORD PTR __$ArrayPad$[ebp], eax
  00025	53		 push	 ebx
  00026	56		 push	 esi
  00027	57		 push	 edi
  00028	50		 push	 eax
  00029	8d 45 f4	 lea	 eax, DWORD PTR __$EHRec$[ebp]
  0002c	64 a3 00 00 00
	00		 mov	 DWORD PTR fs:0, eax
  00032	8b f1		 mov	 esi, ecx
  00034	8b 4d 08	 mov	 ecx, DWORD PTR _pWnd$[ebp]

; 294  : 	DWORD dwID = pWnd->GetID();

  00037	ff 15 00 00 00
	00		 call	 DWORD PTR __imp_?GetID@ioWnd@@QBEKXZ

; 295  : 	switch( dwID )

  0003d	48		 dec	 eax
  0003e	0f 84 fc 02 00
	00		 je	 $LN33@iwm_comman
  00044	48		 dec	 eax
  00045	0f 84 e6 02 00
	00		 je	 $LN34@iwm_comman
  0004b	48		 dec	 eax
  0004c	0f 84 d5 02 00
	00		 je	 $LN32@iwm_comman
  00052	83 e8 03	 sub	 eax, 3
  00055	0f 84 c1 00 00
	00		 je	 $LN8@iwm_comman
  0005b	48		 dec	 eax
  0005c	48		 dec	 eax
  0005d	0f 85 dd 02 00
	00		 jne	 $LN33@iwm_comman

; 314  : 	case ID_CHAROVER:
; 315  : 		if( cmd == IOBN_BTNDOWN )

  00063	83 7d 0c 10	 cmp	 DWORD PTR _cmd$[ebp], 16 ; 00000010H
  00067	75 75		 jne	 SHORT $LN29@iwm_comman

; 316  : 		{
; 317  : 			switch( param )

  00069	8b 45 10	 mov	 eax, DWORD PTR _param$[ebp]
  0006c	48		 dec	 eax
  0006d	74 3a		 je	 SHORT $LN26@iwm_comman
  0006f	48		 dec	 eax
  00070	0f 85 ca 02 00
	00		 jne	 $LN33@iwm_comman

; 324  : 				}
; 325  : 				break;
; 326  : 			case MSCrossWnd::ID_R_ROTATE:
; 327  : 				{
; 328  : 					Hire3DCharWnd *pChar = (Hire3DCharWnd *)FindChildWnd( ID_CHARACTER );

  00076	6a 07		 push	 7
  00078	8b ce		 mov	 ecx, esi
  0007a	ff 15 00 00 00
	00		 call	 DWORD PTR __imp_?FindChildWnd@ioWnd@@QAEPAV1@K@Z
  00080	8b c8		 mov	 ecx, eax

; 329  : 					if( pChar )

  00082	85 c9		 test	 ecx, ecx
  00084	0f 84 b6 02 00
	00		 je	 $LN33@iwm_comman

; 330  : 						pChar->RotateY( -FLOAT1 );

  0008a	b8 01 00 00 00	 mov	 eax, 1
  0008f	89 85 bc ff fe
	ff		 mov	 DWORD PTR tv400[ebp], eax
  00095	db 85 bc ff fe
	ff		 fild	 DWORD PTR tv400[ebp]
  0009b	85 c0		 test	 eax, eax
  0009d	79 06		 jns	 SHORT $LN58@iwm_comman
  0009f	d8 05 00 00 00
	00		 fadd	 DWORD PTR __real@4f800000
$LN58@iwm_comman:
  000a5	d9 e0		 fchs

; 331  : 				}
; 332  : 				break;

  000a7	eb 2f		 jmp	 SHORT $LN59@iwm_comman
$LN26@iwm_comman:

; 318  : 			{
; 319  : 			case MSCrossWnd::ID_L_ROTATE:
; 320  : 				{
; 321  : 					Hire3DCharWnd *pChar = (Hire3DCharWnd *)FindChildWnd( ID_CHARACTER );

  000a9	6a 07		 push	 7
  000ab	8b ce		 mov	 ecx, esi
  000ad	ff 15 00 00 00
	00		 call	 DWORD PTR __imp_?FindChildWnd@ioWnd@@QAEPAV1@K@Z
  000b3	8b c8		 mov	 ecx, eax

; 322  : 					if( pChar )

  000b5	85 c9		 test	 ecx, ecx
  000b7	0f 84 83 02 00
	00		 je	 $LN33@iwm_comman

; 323  : 						pChar->RotateY( FLOAT1 );

  000bd	b8 01 00 00 00	 mov	 eax, 1
  000c2	89 85 bc ff fe
	ff		 mov	 DWORD PTR tv393[ebp], eax
  000c8	db 85 bc ff fe
	ff		 fild	 DWORD PTR tv393[ebp]
  000ce	85 c0		 test	 eax, eax
  000d0	79 06		 jns	 SHORT $LN59@iwm_comman
  000d2	d8 05 00 00 00
	00		 fadd	 DWORD PTR __real@4f800000
$LN59@iwm_comman:
  000d8	51		 push	 ecx
  000d9	d9 1c 24	 fstp	 DWORD PTR [esp]

; 333  : 			case MSCrossWnd::ID_PLUS:
; 334  : 				break;
; 335  : 			case MSCrossWnd::ID_MINUS:
; 336  : 				break;
; 337  : 			case MSCrossWnd::ID_CHANGE:
; 338  : 				break;
; 339  : 			}
; 340  : 		}
; 341  : 		else if( cmd == IOBN_BTNUP )

  000dc	eb 34		 jmp	 SHORT $LN62@iwm_comman
$LN29@iwm_comman:
  000de	83 7d 0c 11	 cmp	 DWORD PTR _cmd$[ebp], 17 ; 00000011H
  000e2	0f 85 58 02 00
	00		 jne	 $LN33@iwm_comman

; 342  : 		{
; 343  : 			switch( param )

  000e8	8b 45 10	 mov	 eax, DWORD PTR _param$[ebp]
  000eb	48		 dec	 eax
  000ec	74 07		 je	 SHORT $LN15@iwm_comman
  000ee	48		 dec	 eax
  000ef	0f 85 4b 02 00
	00		 jne	 $LN33@iwm_comman
$LN15@iwm_comman:

; 344  : 			{
; 345  : 			case MSCrossWnd::ID_L_ROTATE:
; 346  : 				{
; 347  : 					Hire3DCharWnd *pChar = (Hire3DCharWnd *)FindChildWnd( ID_CHARACTER );

  000f5	6a 07		 push	 7
  000f7	8b ce		 mov	 ecx, esi
  000f9	ff 15 00 00 00
	00		 call	 DWORD PTR __imp_?FindChildWnd@ioWnd@@QAEPAV1@K@Z

; 348  : 					if( pChar )

  000ff	85 c0		 test	 eax, eax
  00101	0f 84 39 02 00
	00		 je	 $LN33@iwm_comman

; 349  : 						pChar->RotateY( 0.0f );

  00107	0f 57 c0	 xorps	 xmm0, xmm0
  0010a	51		 push	 ecx
  0010b	f3 0f 11 04 24	 movss	 DWORD PTR [esp], xmm0
  00110	8b c8		 mov	 ecx, eax
$LN62@iwm_comman:
  00112	e8 00 00 00 00	 call	 ?RotateY@Hire3DCharWnd@@QAEXM@Z ; Hire3DCharWnd::RotateY

; 350  : 				}
; 351  : 				break;
; 352  : 			case MSCrossWnd::ID_R_ROTATE:
; 353  : 				{
; 354  : 					Hire3DCharWnd *pChar = (Hire3DCharWnd *)FindChildWnd( ID_CHARACTER );
; 355  : 					if( pChar )
; 356  : 						pChar->RotateY( 0.0f );
; 357  : 				}
; 358  : 				break;
; 359  : 			case MSCrossWnd::ID_PLUS:
; 360  : 				break;
; 361  : 			case MSCrossWnd::ID_MINUS:
; 362  : 				break;
; 363  : 			case MSCrossWnd::ID_CHANGE:
; 364  : 				break;
; 365  : 			}
; 366  : 		}
; 367  : 		break;

  00117	e9 24 02 00 00	 jmp	 $LN33@iwm_comman
$LN8@iwm_comman:

; 368  : 	case ID_CHAR_RECV:
; 369  : 		if( cmd == IOBN_BTNUP )

  0011c	83 7d 0c 11	 cmp	 DWORD PTR _cmd$[ebp], 17 ; 00000011H
  00120	0f 85 1a 02 00
	00		 jne	 $LN33@iwm_comman

; 370  : 		{			
; 371  : 			if( g_MyInfo.GetCharCount() >= g_MyInfo.GetCurMaxCharSlot() )

  00126	e8 00 00 00 00	 call	 ?GetSingleton@ioMyInfo@@SAAAV1@XZ ; ioMyInfo::GetSingleton
  0012b	8b b8 80 08 00
	00		 mov	 edi, DWORD PTR [eax+2176]
  00131	e8 00 00 00 00	 call	 ?GetSingleton@ioMyInfo@@SAAAV1@XZ ; ioMyInfo::GetSingleton
  00136	8b c8		 mov	 ecx, eax
  00138	e8 00 00 00 00	 call	 ?GetCharCount@ioMyInfo@@QBEHXZ ; ioMyInfo::GetCharCount
  0013d	3b c7		 cmp	 eax, edi
  0013f	7c 41		 jl	 SHORT $LN6@iwm_comman

; 372  : 			{
; 373  : 				sg_bWndShow = false;

  00141	33 db		 xor	 ebx, ebx

; 374  : 				g_GUIMgr.SetMsgBox( MB_OK, NULL, STR(1) );

  00143	53		 push	 ebx
  00144	6a 01		 push	 1
  00146	68 00 00 00 00	 push	 OFFSET ??_C@_00CNPNBAHC@?$AA@
  0014b	68 00 00 00 00	 push	 OFFSET ??_C@_0BM@EKKPMEGC@ServiceCharWnd?3?3iwm_command?$AA@
  00150	88 1d 00 00 00
	00		 mov	 BYTE PTR ?sg_bWndShow@ServiceCharWnd@@1_NA, bl ; ServiceCharWnd::sg_bWndShow
  00156	ff 15 00 00 00
	00		 call	 DWORD PTR __imp_?GetSingleton@ioStringManager@@SAAAV1@XZ
  0015c	8b c8		 mov	 ecx, eax
  0015e	ff 15 00 00 00
	00		 call	 DWORD PTR __imp_?GetString@ioStringManager@@QAEPADPBD0HW4FileNamePrefix@1@@Z
  00164	50		 push	 eax
  00165	53		 push	 ebx
  00166	53		 push	 ebx
  00167	e8 00 00 00 00	 call	 ?GetSingleton@ioSP2GUIManager@@SAAAV1@XZ ; ioSP2GUIManager::GetSingleton
  0016c	50		 push	 eax
  0016d	e8 00 00 00 00	 call	 ?SetMsgBox@ioSP2GUIManager@@QAAXHPAVioWnd@@PBDZZ ; ioSP2GUIManager::SetMsgBox
  00172	83 c4 10	 add	 esp, 16			; 00000010H

; 375  : 				HideWnd();

  00175	8b ce		 mov	 ecx, esi
  00177	ff 15 00 00 00
	00		 call	 DWORD PTR __imp_?HideWnd@ioWnd@@QAEXXZ

; 376  : 				return ;

  0017d	e9 be 01 00 00	 jmp	 $LN33@iwm_comman
$LN6@iwm_comman:

; 377  : 			}
; 378  : 			else if( g_MyInfo.GetClassArrayExceptExercise( m_dwFirstClassList[m_iClassSelect] ) != -1 )

  00182	8b 86 94 01 00
	00		 mov	 eax, DWORD PTR [esi+404]
  00188	8b 8e 98 01 00
	00		 mov	 ecx, DWORD PTR [esi+408]
  0018e	8d 04 81	 lea	 eax, DWORD PTR [ecx+eax*4]
  00191	ff 30		 push	 DWORD PTR [eax]
  00193	e8 00 00 00 00	 call	 ?GetSingleton@ioMyInfo@@SAAAV1@XZ ; ioMyInfo::GetSingleton
  00198	8b c8		 mov	 ecx, eax
  0019a	e8 00 00 00 00	 call	 ?GetClassArrayExceptExercise@ioMyInfo@@QAEHH@Z ; ioMyInfo::GetClassArrayExceptExercise
  0019f	33 ff		 xor	 edi, edi
  001a1	47		 inc	 edi
  001a2	33 db		 xor	 ebx, ebx
  001a4	83 f8 ff	 cmp	 eax, -1
  001a7	0f 84 db 00 00
	00		 je	 $LN4@iwm_comman

; 379  : 			{
; 380  : 				int iArray = g_MyInfo.GetClassArray( m_dwFirstClassList[m_iClassSelect] );

  001ad	8b 86 94 01 00
	00		 mov	 eax, DWORD PTR [esi+404]
  001b3	8b 8e 98 01 00
	00		 mov	 ecx, DWORD PTR [esi+408]
  001b9	8d 04 81	 lea	 eax, DWORD PTR [ecx+eax*4]
  001bc	ff 30		 push	 DWORD PTR [eax]
  001be	e8 00 00 00 00	 call	 ?GetSingleton@ioMyInfo@@SAAAV1@XZ ; ioMyInfo::GetSingleton
  001c3	8b c8		 mov	 ecx, eax
  001c5	e8 00 00 00 00	 call	 ?GetClassArray@ioMyInfo@@QAEHH@Z ; ioMyInfo::GetClassArray

; 381  : 				if( g_MyInfo.IsCharActive( iArray ) )

  001ca	50		 push	 eax
  001cb	e8 00 00 00 00	 call	 ?GetSingleton@ioMyInfo@@SAAAV1@XZ ; ioMyInfo::GetSingleton
  001d0	8b c8		 mov	 ecx, eax
  001d2	e8 00 00 00 00	 call	 ?IsCharActive@ioMyInfo@@QAE_NH@Z ; ioMyInfo::IsCharActive
  001d7	84 c0		 test	 al, al
  001d9	74 31		 je	 SHORT $LN3@iwm_comman

; 382  : 				{
; 383  : 					g_GUIMgr.SetMsgBox( MB_OK, NULL, STR(2) );

  001db	53		 push	 ebx
  001dc	6a 02		 push	 2
  001de	68 00 00 00 00	 push	 OFFSET ??_C@_00CNPNBAHC@?$AA@
  001e3	68 00 00 00 00	 push	 OFFSET ??_C@_0BM@EKKPMEGC@ServiceCharWnd?3?3iwm_command?$AA@
  001e8	ff 15 00 00 00
	00		 call	 DWORD PTR __imp_?GetSingleton@ioStringManager@@SAAAV1@XZ
  001ee	8b c8		 mov	 ecx, eax
  001f0	ff 15 00 00 00
	00		 call	 DWORD PTR __imp_?GetString@ioStringManager@@QAEPADPBD0HW4FileNamePrefix@1@@Z
  001f6	50		 push	 eax
  001f7	53		 push	 ebx
  001f8	53		 push	 ebx
  001f9	e8 00 00 00 00	 call	 ?GetSingleton@ioSP2GUIManager@@SAAAV1@XZ ; ioSP2GUIManager::GetSingleton
  001fe	50		 push	 eax
  001ff	e8 00 00 00 00	 call	 ?SetMsgBox@ioSP2GUIManager@@QAAXHPAVioWnd@@PBDZZ ; ioSP2GUIManager::SetMsgBox
  00204	83 c4 10	 add	 esp, 16			; 00000010H

; 384  : 					return;

  00207	e9 34 01 00 00	 jmp	 $LN33@iwm_comman
$LN3@iwm_comman:

; 385  : 				}
; 386  : 				else
; 387  : 				{
; 388  : 					// 보유중인 용병은 기간 연장
; 389  : 					SP2Packet kPacket( CTPK_SERVICE_CHAR );

  0020c	68 16 01 00 00	 push	 278			; 00000116H
  00211	8d 8d d8 7f ff
	ff		 lea	 ecx, DWORD PTR _kPacket$506769[ebp]
  00217	e8 00 00 00 00	 call	 ??0SP2Packet@@QAE@K@Z	; SP2Packet::SP2Packet

; 390  : 					kPacket << SERVICE_CHAR_EXTEND;

  0021c	6a 02		 push	 2
  0021e	8d 8d d8 7f ff
	ff		 lea	 ecx, DWORD PTR _kPacket$506769[ebp]
  00224	89 5d fc	 mov	 DWORD PTR __$EHRec$[ebp+8], ebx
  00227	e8 00 00 00 00	 call	 ??6SP2Packet@@QAEAAV0@H@Z ; SP2Packet::operator<<

; 391  : 					kPacket << g_MyInfo.GetCharIndex( g_MyInfo.GetClassArray( m_dwFirstClassList[m_iClassSelect] ) );

  0022c	8b 86 94 01 00
	00		 mov	 eax, DWORD PTR [esi+404]
  00232	8b 8e 98 01 00
	00		 mov	 ecx, DWORD PTR [esi+408]
  00238	8d 04 81	 lea	 eax, DWORD PTR [ecx+eax*4]
  0023b	ff 30		 push	 DWORD PTR [eax]
  0023d	e8 00 00 00 00	 call	 ?GetSingleton@ioMyInfo@@SAAAV1@XZ ; ioMyInfo::GetSingleton
  00242	8b c8		 mov	 ecx, eax
  00244	e8 00 00 00 00	 call	 ?GetClassArray@ioMyInfo@@QAEHH@Z ; ioMyInfo::GetClassArray
  00249	50		 push	 eax
  0024a	e8 00 00 00 00	 call	 ?GetSingleton@ioMyInfo@@SAAAV1@XZ ; ioMyInfo::GetSingleton
  0024f	8b c8		 mov	 ecx, eax
  00251	e8 00 00 00 00	 call	 ?GetCharIndex@ioMyInfo@@QAEHH@Z ; ioMyInfo::GetCharIndex
  00256	50		 push	 eax
  00257	8d 8d d8 7f ff
	ff		 lea	 ecx, DWORD PTR _kPacket$506769[ebp]
  0025d	e8 00 00 00 00	 call	 ??6SP2Packet@@QAEAAV0@H@Z ; SP2Packet::operator<<

; 392  : 					kPacket << m_iClassLimitDate;		

  00262	ff b6 90 01 00
	00		 push	 DWORD PTR [esi+400]
  00268	8d 8d d8 7f ff
	ff		 lea	 ecx, DWORD PTR _kPacket$506769[ebp]
  0026e	e8 00 00 00 00	 call	 ??6SP2Packet@@QAEAAV0@H@Z ; SP2Packet::operator<<

; 393  : 					TCPNetwork::SendToServer( kPacket );

  00273	8d 85 d8 7f ff
	ff		 lea	 eax, DWORD PTR _kPacket$506769[ebp]
  00279	50		 push	 eax
  0027a	e8 00 00 00 00	 call	 ?SendToServer@TCPNetwork@@YAXAAVSP2Packet@@@Z ; TCPNetwork::SendToServer
  0027f	59		 pop	 ecx

; 394  : 				}

  00280	8d 8d d8 7f ff
	ff		 lea	 ecx, DWORD PTR _kPacket$506769[ebp]

; 395  : 			}
; 396  : 			else

  00286	eb 79		 jmp	 SHORT $LN60@iwm_comman
$LN4@iwm_comman:

; 397  : 			{
; 398  : 				SP2Packet kPacket( CTPK_SERVICE_CHAR );

  00288	68 16 01 00 00	 push	 278			; 00000116H
  0028d	8d 8d c0 ff fe
	ff		 lea	 ecx, DWORD PTR _kPacket$506771[ebp]
  00293	e8 00 00 00 00	 call	 ??0SP2Packet@@QAE@K@Z	; SP2Packet::SP2Packet

; 399  : 				kPacket << SERVICE_CHAR_CREATE;

  00298	57		 push	 edi
  00299	8d 8d c0 ff fe
	ff		 lea	 ecx, DWORD PTR _kPacket$506771[ebp]
  0029f	89 7d fc	 mov	 DWORD PTR __$EHRec$[ebp+8], edi
  002a2	e8 00 00 00 00	 call	 ??6SP2Packet@@QAEAAV0@H@Z ; SP2Packet::operator<<

; 400  : 				kPacket << m_dwFirstClassList[m_iClassSelect];

  002a7	8b 8e 98 01 00
	00		 mov	 ecx, DWORD PTR [esi+408]
  002ad	8b 86 94 01 00
	00		 mov	 eax, DWORD PTR [esi+404]
  002b3	ff 34 81	 push	 DWORD PTR [ecx+eax*4]
  002b6	8d 8d c0 ff fe
	ff		 lea	 ecx, DWORD PTR _kPacket$506771[ebp]
  002bc	e8 00 00 00 00	 call	 ??6SP2Packet@@QAEAAV0@K@Z ; SP2Packet::operator<<

; 401  : 				kPacket << m_CharInfo.m_kindred
; 402  : 						<< m_CharInfo.m_sex
; 403  : 						<< m_iClassLimitDate;

  002c1	ff b6 90 01 00
	00		 push	 DWORD PTR [esi+400]
  002c7	8d 86 1c 02 00
	00		 lea	 eax, DWORD PTR [esi+540]
  002cd	50		 push	 eax
  002ce	8d 86 ec 01 00
	00		 lea	 eax, DWORD PTR [esi+492]
  002d4	50		 push	 eax
  002d5	8d 8d c0 ff fe
	ff		 lea	 ecx, DWORD PTR _kPacket$506771[ebp]
  002db	e8 00 00 00 00	 call	 ??6SP2Packet@@QAEAAV0@AAV?$CEncrypt@H@@@Z ; SP2Packet::operator<<
  002e0	8b c8		 mov	 ecx, eax
  002e2	e8 00 00 00 00	 call	 ??6SP2Packet@@QAEAAV0@AAV?$CEncrypt@H@@@Z ; SP2Packet::operator<<
  002e7	8b c8		 mov	 ecx, eax
  002e9	e8 00 00 00 00	 call	 ??6SP2Packet@@QAEAAV0@H@Z ; SP2Packet::operator<<

; 404  : 				TCPNetwork::SendToServer( kPacket );

  002ee	8d 85 c0 ff fe
	ff		 lea	 eax, DWORD PTR _kPacket$506771[ebp]
  002f4	50		 push	 eax
  002f5	e8 00 00 00 00	 call	 ?SendToServer@TCPNetwork@@YAXAAVSP2Packet@@@Z ; TCPNetwork::SendToServer
  002fa	59		 pop	 ecx

; 405  : 			}			

  002fb	8d 8d c0 ff fe
	ff		 lea	 ecx, DWORD PTR _kPacket$506771[ebp]
$LN60@iwm_comman:
  00301	83 4d fc ff	 or	 DWORD PTR __$EHRec$[ebp+8], -1
  00305	e8 00 00 00 00	 call	 ??1SP2Packet@@UAE@XZ	; SP2Packet::~SP2Packet

; 406  : 			g_App.SetMouseBusy( true );

  0030a	57		 push	 edi
  0030b	e8 00 00 00 00	 call	 ?GetSingleton@ioApplication@@SAAAV1@XZ ; ioApplication::GetSingleton
  00310	8b c8		 mov	 ecx, eax
  00312	e8 00 00 00 00	 call	 ?SetMouseBusy@ioApplication@@QAEX_N@Z ; ioApplication::SetMouseBusy

; 407  : 
; 408  : 			HideWnd();

  00317	8b ce		 mov	 ecx, esi
  00319	ff 15 00 00 00
	00		 call	 DWORD PTR __imp_?HideWnd@ioWnd@@QAEXXZ

; 409  : 			sg_bWndShow = false;

  0031f	88 1d 00 00 00
	00		 mov	 BYTE PTR ?sg_bWndShow@ServiceCharWnd@@1_NA, bl ; ServiceCharWnd::sg_bWndShow

; 410  : 		}
; 411  : 		break;

  00325	eb 19		 jmp	 SHORT $LN33@iwm_comman
$LN32@iwm_comman:

; 306  : 		}
; 307  : 		break;
; 308  : 	case ID_CLASS_RIGHT:
; 309  : 		if( cmd == IOBN_BTNUP )

  00327	83 7d 0c 11	 cmp	 DWORD PTR _cmd$[ebp], 17 ; 00000011H
  0032b	75 13		 jne	 SHORT $LN33@iwm_comman

; 310  : 		{
; 311  : 			ChangeClass( true );

  0032d	6a 01		 push	 1

; 312  : 		}
; 313  : 		break;	

  0032f	eb 08		 jmp	 SHORT $LN61@iwm_comman
$LN34@iwm_comman:

; 296  : 	{
; 297  : 	case ID_EXIT:
; 298  : 		if( cmd == IOBN_BTNUP )
; 299  : 		{
; 300  : 		}
; 301  : 		break;
; 302  : 	case ID_CLASS_LEFT:
; 303  : 		if( cmd == IOBN_BTNUP )

  00331	83 7d 0c 11	 cmp	 DWORD PTR _cmd$[ebp], 17 ; 00000011H
  00335	75 09		 jne	 SHORT $LN33@iwm_comman

; 304  : 		{
; 305  : 			ChangeClass( false );

  00337	6a 00		 push	 0
$LN61@iwm_comman:
  00339	8b ce		 mov	 ecx, esi
  0033b	e8 00 00 00 00	 call	 ?ChangeClass@ServiceCharWnd@@IAEX_N@Z ; ServiceCharWnd::ChangeClass
$LN33@iwm_comman:

; 412  : 	}
; 413  : }

  00340	8b 4d f4	 mov	 ecx, DWORD PTR __$EHRec$[ebp]
  00343	64 89 0d 00 00
	00 00		 mov	 DWORD PTR fs:0, ecx
  0034a	59		 pop	 ecx
  0034b	5f		 pop	 edi
  0034c	5e		 pop	 esi
  0034d	5b		 pop	 ebx
  0034e	8b 4d f0	 mov	 ecx, DWORD PTR __$ArrayPad$[ebp]
  00351	33 cd		 xor	 ecx, ebp
  00353	e8 00 00 00 00	 call	 @__security_check_cookie@4
  00358	c9		 leave
  00359	c2 0c 00	 ret	 12			; 0000000cH
_TEXT	ENDS
;	COMDAT text$x
text$x	SEGMENT
__unwindfunclet$?iwm_command@ServiceCharWnd@@UAEXPAVioWnd@@HK@Z$0:
  00000	8d 8d d8 7f ff
	ff		 lea	 ecx, DWORD PTR _kPacket$506769[ebp]
  00006	e9 00 00 00 00	 jmp	 ??1SP2Packet@@UAE@XZ	; SP2Packet::~SP2Packet
__unwindfunclet$?iwm_command@ServiceCharWnd@@UAEXPAVioWnd@@HK@Z$1:
  0000b	8d 8d c0 ff fe
	ff		 lea	 ecx, DWORD PTR _kPacket$506771[ebp]
  00011	e9 00 00 00 00	 jmp	 ??1SP2Packet@@UAE@XZ	; SP2Packet::~SP2Packet
__ehhandler$?iwm_command@ServiceCharWnd@@UAEXPAVioWnd@@HK@Z:
  00016	8b 54 24 08	 mov	 edx, DWORD PTR [esp+8]
  0001a	8d 42 0c	 lea	 eax, DWORD PTR [edx+12]
  0001d	8b 8a b8 ff fe
	ff		 mov	 ecx, DWORD PTR [edx-65608]
  00023	33 c8		 xor	 ecx, eax
  00025	e8 00 00 00 00	 call	 @__security_check_cookie@4
  0002a	8b 4a fc	 mov	 ecx, DWORD PTR [edx-4]
  0002d	33 c8		 xor	 ecx, eax
  0002f	e8 00 00 00 00	 call	 @__security_check_cookie@4
  00034	b8 00 00 00 00	 mov	 eax, OFFSET __ehfuncinfo$?iwm_command@ServiceCharWnd@@UAEXPAVioWnd@@HK@Z
  00039	e9 00 00 00 00	 jmp	 ___CxxFrameHandler3
text$x	ENDS
?iwm_command@ServiceCharWnd@@UAEXPAVioWnd@@HK@Z ENDP	; ServiceCharWnd::iwm_command
PUBLIC	?push_back@?$vector@W4RaceDetailType@@V?$allocator@W4RaceDetailType@@@std@@@std@@QAEX$$QAW4RaceDetailType@@@Z ; std::vector<enum RaceDetailType,std::allocator<enum RaceDetailType> >::push_back
; Function compile flags: /Ogsp
; File c:\program files (x86)\microsoft visual studio 10.0\vc\include\vector
;	COMDAT ?push_back@?$vector@W4RaceDetailType@@V?$allocator@W4RaceDetailType@@@std@@@std@@QAEX$$QAW4RaceDetailType@@@Z
_TEXT	SEGMENT
__Val$ = 8						; size = 4
?push_back@?$vector@W4RaceDetailType@@V?$allocator@W4RaceDetailType@@@std@@@std@@QAEX$$QAW4RaceDetailType@@@Z PROC ; std::vector<enum RaceDetailType,std::allocator<enum RaceDetailType> >::push_back, COMDAT
; _this$ = ecx

; 631  : 		{	// insert element at end

  00000	55		 push	 ebp
  00001	8b ec		 mov	 ebp, esp
  00003	56		 push	 esi
  00004	8b f1		 mov	 esi, ecx

; 632  : 		if (_Inside(_STD addressof(_Val)))

  00006	8b 46 04	 mov	 eax, DWORD PTR [esi+4]
  00009	57		 push	 edi
  0000a	8b 7d 08	 mov	 edi, DWORD PTR __Val$[ebp]
  0000d	3b f8		 cmp	 edi, eax
  0000f	73 27		 jae	 SHORT $LN4@push_back
  00011	8b 0e		 mov	 ecx, DWORD PTR [esi]
  00013	3b cf		 cmp	 ecx, edi
  00015	77 21		 ja	 SHORT $LN4@push_back

; 633  : 			{	// push back an element
; 634  : 			size_type _Idx = _STD addressof(_Val) - this->_Myfirst;

  00017	2b f9		 sub	 edi, ecx
  00019	c1 ff 02	 sar	 edi, 2

; 635  : 			if (this->_Mylast == this->_Myend)

  0001c	3b 46 08	 cmp	 eax, DWORD PTR [esi+8]
  0001f	75 09		 jne	 SHORT $LN3@push_back

; 636  : 				_Reserve(1);

  00021	6a 01		 push	 1
  00023	8b ce		 mov	 ecx, esi
  00025	e8 00 00 00 00	 call	 ?_Reserve@?$vector@W4RaceDetailType@@V?$allocator@W4RaceDetailType@@@std@@@std@@IAEXI@Z ; std::vector<enum RaceDetailType,std::allocator<enum RaceDetailType> >::_Reserve
$LN3@push_back:

; 637  : 			_Orphan_range(this->_Mylast, this->_Mylast);
; 638  : 			_Cons_val(this->_Alval,
; 639  : 				this->_Mylast,
; 640  : 				_STD forward<_Ty>(this->_Myfirst[_Idx]));

  0002a	8b 46 04	 mov	 eax, DWORD PTR [esi+4]
  0002d	85 c0		 test	 eax, eax
  0002f	74 20		 je	 SHORT $LN41@push_back
  00031	8b 0e		 mov	 ecx, DWORD PTR [esi]
  00033	8b 0c b9	 mov	 ecx, DWORD PTR [ecx+edi*4]

; 641  : 			++this->_Mylast;
; 642  : 			}
; 643  : 		else

  00036	eb 17		 jmp	 SHORT $LN48@push_back
$LN4@push_back:

; 644  : 			{	// push back a non-element
; 645  : 			if (this->_Mylast == this->_Myend)

  00038	3b 46 08	 cmp	 eax, DWORD PTR [esi+8]
  0003b	75 09		 jne	 SHORT $LN1@push_back

; 646  : 				_Reserve(1);

  0003d	6a 01		 push	 1
  0003f	8b ce		 mov	 ecx, esi
  00041	e8 00 00 00 00	 call	 ?_Reserve@?$vector@W4RaceDetailType@@V?$allocator@W4RaceDetailType@@@std@@@std@@IAEXI@Z ; std::vector<enum RaceDetailType,std::allocator<enum RaceDetailType> >::_Reserve
$LN1@push_back:

; 647  : 			_Orphan_range(this->_Mylast, this->_Mylast);
; 648  : 			_Cons_val(this->_Alval,
; 649  : 				this->_Mylast,
; 650  : 				_STD forward<_Ty>(_Val));

  00046	8b 46 04	 mov	 eax, DWORD PTR [esi+4]
  00049	85 c0		 test	 eax, eax
  0004b	74 04		 je	 SHORT $LN41@push_back
  0004d	8b 0f		 mov	 ecx, DWORD PTR [edi]
$LN48@push_back:
  0004f	89 08		 mov	 DWORD PTR [eax], ecx
$LN41@push_back:

; 651  : 			++this->_Mylast;

  00051	83 46 04 04	 add	 DWORD PTR [esi+4], 4
  00055	5f		 pop	 edi
  00056	5e		 pop	 esi

; 652  : 			}
; 653  : 		}

  00057	5d		 pop	 ebp
  00058	c2 04 00	 ret	 4
?push_back@?$vector@W4RaceDetailType@@V?$allocator@W4RaceDetailType@@@std@@@std@@QAEX$$QAW4RaceDetailType@@@Z ENDP ; std::vector<enum RaceDetailType,std::allocator<enum RaceDetailType> >::push_back
_TEXT	ENDS
PUBLIC	?push_back@?$vector@KV?$allocator@K@std@@@std@@QAEXABK@Z ; std::vector<unsigned long,std::allocator<unsigned long> >::push_back
; Function compile flags: /Ogsp
;	COMDAT ?push_back@?$vector@KV?$allocator@K@std@@@std@@QAEXABK@Z
_TEXT	SEGMENT
__Val$ = 8						; size = 4
?push_back@?$vector@KV?$allocator@K@std@@@std@@QAEXABK@Z PROC ; std::vector<unsigned long,std::allocator<unsigned long> >::push_back, COMDAT
; _this$ = ecx

; 976  : 		{	// insert element at end

  00000	55		 push	 ebp
  00001	8b ec		 mov	 ebp, esp
  00003	56		 push	 esi
  00004	8b f1		 mov	 esi, ecx

; 977  : 		if (_Inside(_STD addressof(_Val)))

  00006	8b 46 04	 mov	 eax, DWORD PTR [esi+4]
  00009	57		 push	 edi
  0000a	8b 7d 08	 mov	 edi, DWORD PTR __Val$[ebp]
  0000d	3b f8		 cmp	 edi, eax
  0000f	73 27		 jae	 SHORT $LN4@push_back@2
  00011	8b 0e		 mov	 ecx, DWORD PTR [esi]
  00013	3b cf		 cmp	 ecx, edi
  00015	77 21		 ja	 SHORT $LN4@push_back@2

; 978  : 			{	// push back an element
; 979  : 			size_type _Idx = _STD addressof(_Val) - this->_Myfirst;

  00017	2b f9		 sub	 edi, ecx
  00019	c1 ff 02	 sar	 edi, 2

; 980  : 			if (this->_Mylast == this->_Myend)

  0001c	3b 46 08	 cmp	 eax, DWORD PTR [esi+8]
  0001f	75 09		 jne	 SHORT $LN3@push_back@2

; 981  : 				_Reserve(1);

  00021	6a 01		 push	 1
  00023	8b ce		 mov	 ecx, esi
  00025	e8 00 00 00 00	 call	 ?_Reserve@?$vector@KV?$allocator@K@std@@@std@@IAEXI@Z ; std::vector<unsigned long,std::allocator<unsigned long> >::_Reserve
$LN3@push_back@2:

; 982  : 			_Orphan_range(this->_Mylast, this->_Mylast);
; 983  : 			_Cons_val(this->_Alval,
; 984  : 				this->_Mylast,
; 985  : 				this->_Myfirst[_Idx]);

  0002a	8b 46 04	 mov	 eax, DWORD PTR [esi+4]
  0002d	85 c0		 test	 eax, eax
  0002f	74 20		 je	 SHORT $LN39@push_back@2
  00031	8b 0e		 mov	 ecx, DWORD PTR [esi]
  00033	8b 0c b9	 mov	 ecx, DWORD PTR [ecx+edi*4]

; 986  : 			++this->_Mylast;
; 987  : 			}
; 988  : 		else

  00036	eb 17		 jmp	 SHORT $LN46@push_back@2
$LN4@push_back@2:

; 989  : 			{	// push back a non-element
; 990  : 			if (this->_Mylast == this->_Myend)

  00038	3b 46 08	 cmp	 eax, DWORD PTR [esi+8]
  0003b	75 09		 jne	 SHORT $LN1@push_back@2

; 991  : 				_Reserve(1);

  0003d	6a 01		 push	 1
  0003f	8b ce		 mov	 ecx, esi
  00041	e8 00 00 00 00	 call	 ?_Reserve@?$vector@KV?$allocator@K@std@@@std@@IAEXI@Z ; std::vector<unsigned long,std::allocator<unsigned long> >::_Reserve
$LN1@push_back@2:

; 992  : 			_Orphan_range(this->_Mylast, this->_Mylast);
; 993  : 			_Cons_val(this->_Alval,
; 994  : 				this->_Mylast,
; 995  : 				_Val);

  00046	8b 46 04	 mov	 eax, DWORD PTR [esi+4]
  00049	85 c0		 test	 eax, eax
  0004b	74 04		 je	 SHORT $LN39@push_back@2
  0004d	8b 0f		 mov	 ecx, DWORD PTR [edi]
$LN46@push_back@2:
  0004f	89 08		 mov	 DWORD PTR [eax], ecx
$LN39@push_back@2:

; 996  : 			++this->_Mylast;

  00051	83 46 04 04	 add	 DWORD PTR [esi+4], 4
  00055	5f		 pop	 edi
  00056	5e		 pop	 esi

; 997  : 			}
; 998  : 		}

  00057	5d		 pop	 ebp
  00058	c2 04 00	 ret	 4
?push_back@?$vector@KV?$allocator@K@std@@@std@@QAEXABK@Z ENDP ; std::vector<unsigned long,std::allocator<unsigned long> >::push_back
_TEXT	ENDS
PUBLIC	??0?$basic_string@DU?$char_traits@D@std@@V?$allocator@D@2@@std@@QAE@ABV01@@Z ; std::basic_string<char,std::char_traits<char>,std::allocator<char> >::basic_string<char,std::char_traits<char>,std::allocator<char> >
; Function compile flags: /Ogsp
; File c:\program files (x86)\microsoft visual studio 10.0\vc\include\xstring
;	COMDAT ??0?$basic_string@DU?$char_traits@D@std@@V?$allocator@D@2@@std@@QAE@ABV01@@Z
_TEXT	SEGMENT
__Right$ = 8						; size = 4
??0?$basic_string@DU?$char_traits@D@std@@V?$allocator@D@2@@std@@QAE@ABV01@@Z PROC ; std::basic_string<char,std::char_traits<char>,std::allocator<char> >::basic_string<char,std::char_traits<char>,std::allocator<char> >, COMDAT
; _this$ = ecx

; 543  : 		{	// construct by copying _Right

  00000	55		 push	 ebp
  00001	8b ec		 mov	 ebp, esp
  00003	56		 push	 esi

; 544  : 		_Tidy();

  00004	33 c0		 xor	 eax, eax

; 545  : 		assign(_Right, 0, npos);

  00006	6a ff		 push	 -1
  00008	8b f1		 mov	 esi, ecx
  0000a	50		 push	 eax
  0000b	ff 75 08	 push	 DWORD PTR __Right$[ebp]
  0000e	c7 46 14 0f 00
	00 00		 mov	 DWORD PTR [esi+20], 15	; 0000000fH
  00015	89 46 10	 mov	 DWORD PTR [esi+16], eax
  00018	88 06		 mov	 BYTE PTR [esi], al
  0001a	e8 00 00 00 00	 call	 ?assign@?$basic_string@DU?$char_traits@D@std@@V?$allocator@D@2@@std@@QAEAAV12@ABV12@II@Z ; std::basic_string<char,std::char_traits<char>,std::allocator<char> >::assign

; 546  : 		}

  0001f	8b c6		 mov	 eax, esi
  00021	5e		 pop	 esi
  00022	5d		 pop	 ebp
  00023	c2 04 00	 ret	 4
??0?$basic_string@DU?$char_traits@D@std@@V?$allocator@D@2@@std@@QAE@ABV01@@Z ENDP ; std::basic_string<char,std::char_traits<char>,std::allocator<char> >::basic_string<char,std::char_traits<char>,std::allocator<char> >
_TEXT	ENDS
PUBLIC	?assign@?$basic_string@DU?$char_traits@D@std@@V?$allocator@D@2@@std@@QAEAAV12@ABV12@@Z ; std::basic_string<char,std::char_traits<char>,std::allocator<char> >::assign
; Function compile flags: /Ogsp
;	COMDAT ?assign@?$basic_string@DU?$char_traits@D@std@@V?$allocator@D@2@@std@@QAEAAV12@ABV12@@Z
_TEXT	SEGMENT
__Right$ = 8						; size = 4
?assign@?$basic_string@DU?$char_traits@D@std@@V?$allocator@D@2@@std@@QAEAAV12@ABV12@@Z PROC ; std::basic_string<char,std::char_traits<char>,std::allocator<char> >::assign, COMDAT
; _this$ = ecx

; 887  : 		{	// assign _Right

  00000	55		 push	 ebp
  00001	8b ec		 mov	 ebp, esp

; 888  : 		return (assign(_Right, 0, npos));

  00003	6a ff		 push	 -1
  00005	6a 00		 push	 0
  00007	ff 75 08	 push	 DWORD PTR __Right$[ebp]
  0000a	e8 00 00 00 00	 call	 ?assign@?$basic_string@DU?$char_traits@D@std@@V?$allocator@D@2@@std@@QAEAAV12@ABV12@II@Z ; std::basic_string<char,std::char_traits<char>,std::allocator<char> >::assign

; 889  : 		}

  0000f	5d		 pop	 ebp
  00010	c2 04 00	 ret	 4
?assign@?$basic_string@DU?$char_traits@D@std@@V?$allocator@D@2@@std@@QAEAAV12@ABV12@@Z ENDP ; std::basic_string<char,std::char_traits<char>,std::allocator<char> >::assign
_TEXT	ENDS
PUBLIC	?assign@?$basic_string@DU?$char_traits@D@std@@V?$allocator@D@2@@std@@QAEAAV12@PBD@Z ; std::basic_string<char,std::char_traits<char>,std::allocator<char> >::assign
; Function compile flags: /Ogsp
;	COMDAT ?assign@?$basic_string@DU?$char_traits@D@std@@V?$allocator@D@2@@std@@QAEAAV12@PBD@Z
_TEXT	SEGMENT
__Ptr$ = 8						; size = 4
?assign@?$basic_string@DU?$char_traits@D@std@@V?$allocator@D@2@@std@@QAEAAV12@PBD@Z PROC ; std::basic_string<char,std::char_traits<char>,std::allocator<char> >::assign, COMDAT
; _this$ = ecx

; 929  : 		{	// assign [_Ptr, <null>)

  00000	55		 push	 ebp
  00001	8b ec		 mov	 ebp, esp

; 930  : 		_DEBUG_POINTER(_Ptr);
; 931  : 		return (assign(_Ptr, _Traits::length(_Ptr)));

  00003	8b 45 08	 mov	 eax, DWORD PTR __Ptr$[ebp]
  00006	8d 50 01	 lea	 edx, DWORD PTR [eax+1]
  00009	53		 push	 ebx
$LL5@assign@3:
  0000a	8a 18		 mov	 bl, BYTE PTR [eax]
  0000c	40		 inc	 eax
  0000d	84 db		 test	 bl, bl
  0000f	75 f9		 jne	 SHORT $LL5@assign@3
  00011	2b c2		 sub	 eax, edx
  00013	50		 push	 eax
  00014	ff 75 08	 push	 DWORD PTR __Ptr$[ebp]
  00017	e8 00 00 00 00	 call	 ?assign@?$basic_string@DU?$char_traits@D@std@@V?$allocator@D@2@@std@@QAEAAV12@PBDI@Z ; std::basic_string<char,std::char_traits<char>,std::allocator<char> >::assign
  0001c	5b		 pop	 ebx

; 932  : 		}

  0001d	5d		 pop	 ebp
  0001e	c2 04 00	 ret	 4
?assign@?$basic_string@DU?$char_traits@D@std@@V?$allocator@D@2@@std@@QAEAAV12@PBD@Z ENDP ; std::basic_string<char,std::char_traits<char>,std::allocator<char> >::assign
_TEXT	ENDS
PUBLIC	?destroy@?$allocator@V?$basic_string@DU?$char_traits@D@std@@V?$allocator@D@2@@std@@@std@@QAEXPAV?$basic_string@DU?$char_traits@D@std@@V?$allocator@D@2@@2@@Z ; std::allocator<std::basic_string<char,std::char_traits<char>,std::allocator<char> > >::destroy
; Function compile flags: /Ogsp
; File c:\program files (x86)\microsoft visual studio 10.0\vc\include\xmemory
;	COMDAT ?destroy@?$allocator@V?$basic_string@DU?$char_traits@D@std@@V?$allocator@D@2@@std@@@std@@QAEXPAV?$basic_string@DU?$char_traits@D@std@@V?$allocator@D@2@@2@@Z
_TEXT	SEGMENT
__Ptr$ = 8						; size = 4
?destroy@?$allocator@V?$basic_string@DU?$char_traits@D@std@@V?$allocator@D@2@@std@@@std@@QAEXPAV?$basic_string@DU?$char_traits@D@std@@V?$allocator@D@2@@2@@Z PROC ; std::allocator<std::basic_string<char,std::char_traits<char>,std::allocator<char> > >::destroy, COMDAT
; _this$ = ecx

; 212  : 		{	// destroy object at _Ptr

  00000	55		 push	 ebp
  00001	8b ec		 mov	 ebp, esp

; 213  : 		_Destroy(_Ptr);

  00003	8b 4d 08	 mov	 ecx, DWORD PTR __Ptr$[ebp]
  00006	6a 00		 push	 0
  00008	6a 01		 push	 1
  0000a	e8 00 00 00 00	 call	 ?_Tidy@?$basic_string@DU?$char_traits@D@std@@V?$allocator@D@2@@std@@QAEX_NI@Z ; std::basic_string<char,std::char_traits<char>,std::allocator<char> >::_Tidy

; 214  : 		}

  0000f	5d		 pop	 ebp
  00010	c2 04 00	 ret	 4
?destroy@?$allocator@V?$basic_string@DU?$char_traits@D@std@@V?$allocator@D@2@@std@@@std@@QAEXPAV?$basic_string@DU?$char_traits@D@std@@V?$allocator@D@2@@2@@Z ENDP ; std::allocator<std::basic_string<char,std::char_traits<char>,std::allocator<char> > >::destroy
_TEXT	ENDS
PUBLIC	?UpdateFirstClass@ServiceCharWnd@@IAEXXZ	; ServiceCharWnd::UpdateFirstClass
EXTRN	?IsCanBuyItem@ioMyInfo@@QAE_NPBVioSetItemInfo@@@Z:PROC ; ioMyInfo::IsCanBuyItem
EXTRN	?GetSetInfoByCode@ioSetItemInfoManager@@QBEPBVioSetItemInfo@@K@Z:PROC ; ioSetItemInfoManager::GetSetInfoByCode
EXTRN	__imp__sprintf:PROC
EXTRN	__EH_epilog3_GS:PROC
EXTRN	__EH_prolog3_GS:PROC
;	COMDAT xdata$x
; File d:\lost saga for developer\youtube\tutorial\source\src\lsclient\gui\servicecharwnd.cpp
xdata$x	SEGMENT
__unwindtable$?UpdateFirstClass@ServiceCharWnd@@IAEXXZ DD 0ffffffffH
	DD	FLAT:__unwindfunclet$?UpdateFirstClass@ServiceCharWnd@@IAEXXZ$0
__ehfuncinfo$?UpdateFirstClass@ServiceCharWnd@@IAEXXZ DD 019930522H
	DD	01H
	DD	FLAT:__unwindtable$?UpdateFirstClass@ServiceCharWnd@@IAEXXZ
	DD	2 DUP(00H)
	DD	2 DUP(00H)
	DD	00H
	DD	01H
; Function compile flags: /Ogsp
xdata$x	ENDS
;	COMDAT ?UpdateFirstClass@ServiceCharWnd@@IAEXXZ
_TEXT	SEGMENT
tv4069 = -1220						; size = 4
$T513376 = -1216					; size = 4
$T513440 = -1212					; size = 4
_max_item$ = -1212					; size = 4
_kLoader$ = -1208					; size = 912
_szKeyName$ = -296					; size = 260
__k$513834 = -36					; size = 11
__t$513709 = -36					; size = 12
___encStr$506152 = -36					; size = 13
__k$513959 = -32					; size = 9
__$EHRec$ = -12						; size = 12
?UpdateFirstClass@ServiceCharWnd@@IAEXXZ PROC		; ServiceCharWnd::UpdateFirstClass, COMDAT
; _this$ = ecx

; 126  : {

  00000	68 b8 04 00 00	 push	 1208			; 000004b8H
  00005	b8 00 00 00 00	 mov	 eax, __ehhandler$?UpdateFirstClass@ServiceCharWnd@@IAEXXZ
  0000a	e8 00 00 00 00	 call	 __EH_prolog3_GS
  0000f	8b d9		 mov	 ebx, ecx

; 127  : 	m_dwFirstClassList.clear();

  00011	8d b3 98 01 00
	00		 lea	 esi, DWORD PTR [ebx+408]
  00017	8b 46 04	 mov	 eax, DWORD PTR [esi+4]
  0001a	8b 0e		 mov	 ecx, DWORD PTR [esi]
  0001c	50		 push	 eax
  0001d	51		 push	 ecx
  0001e	8d 85 44 fb ff
	ff		 lea	 eax, DWORD PTR $T513440[ebp]
  00024	50		 push	 eax
  00025	8b ce		 mov	 ecx, esi
  00027	e8 00 00 00 00	 call	 ?erase@?$vector@KV?$allocator@K@std@@@std@@QAE?AV?$_Vector_iterator@V?$_Vector_val@KV?$allocator@K@std@@@std@@@2@V?$_Vector_const_iterator@V?$_Vector_val@KV?$allocator@K@std@@@std@@@2@0@Z ; std::vector<unsigned long,std::allocator<unsigned long> >::erase

; 128  : 
; 129  : 	ioINILoader_e kLoader( "config/sp2_service_char.ini" );

  0002c	6a 06		 push	 6
  0002e	c7 85 98 fe ff
	ff 8e 83 85 8c	 mov	 DWORD PTR _kLoader$[ebp+848], -1937407090 ; 8c85838eH
  00038	c7 85 9c fe ff
	ff 84 8b c4 99	 mov	 DWORD PTR _kLoader$[ebp+852], -1715172476 ; 99c48b84H
  00042	c7 85 a0 fe ff
	ff 9d de b4 99	 mov	 DWORD PTR _kLoader$[ebp+856], -1716199779 ; 99b4de9dH
  0004c	c7 85 a4 fe ff
	ff 88 9e 9d 83	 mov	 DWORD PTR _kLoader$[ebp+860], -2086822264 ; 839d9e88H
  00056	c7 85 a8 fe ff
	ff 8e 89 b4 89	 mov	 DWORD PTR _kLoader$[ebp+864], -1984657010 ; 89b4898eH
  00060	c7 85 ac fe ff
	ff 85 8d 99 c4	 mov	 DWORD PTR _kLoader$[ebp+868], -996569723 ; c4998d85H
  0006a	8d 85 98 fe ff
	ff		 lea	 eax, DWORD PTR _kLoader$[ebp+848]
  00070	c7 85 b0 fe ff
	ff 84 82 82 00	 mov	 DWORD PTR _kLoader$[ebp+872], 8553092 ; 00828284H
  0007a	59		 pop	 ecx
$LL231@UpdateFirs:
  0007b	81 30 ed ec eb
	ea		 xor	 DWORD PTR [eax], -353637139 ; eaebecedH
  00081	83 c0 04	 add	 eax, 4
  00084	49		 dec	 ecx
  00085	75 f4		 jne	 SHORT $LL231@UpdateFirs
  00087	6a 18		 push	 24			; 00000018H
  00089	5f		 pop	 edi
$LL228@UpdateFirs:
  0008a	8b c7		 mov	 eax, edi
  0008c	25 03 00 00 80	 and	 eax, -2147483645	; 80000003H
  00091	79 05		 jns	 SHORT $LN587@UpdateFirs
  00093	48		 dec	 eax
  00094	83 c8 fc	 or	 eax, -4			; fffffffcH
  00097	40		 inc	 eax
$LN587@UpdateFirs:
  00098	b1 ed		 mov	 cl, -19			; ffffffedH
  0009a	2a c8		 sub	 cl, al
  0009c	30 8c 3d 98 fe
	ff ff		 xor	 BYTE PTR _kLoader$[ebp+edi+848], cl
  000a3	47		 inc	 edi
  000a4	83 ff 1b	 cmp	 edi, 27			; 0000001bH
  000a7	7c e1		 jl	 SHORT $LL228@UpdateFirs
  000a9	6a 01		 push	 1
  000ab	8d 85 98 fe ff
	ff		 lea	 eax, DWORD PTR _kLoader$[ebp+848]
  000b1	50		 push	 eax
  000b2	8d 8d 48 fb ff
	ff		 lea	 ecx, DWORD PTR _kLoader$[ebp]
  000b8	ff 15 00 00 00
	00		 call	 DWORD PTR __imp_??0ioINILoader@@QAE@PBD_N@Z
  000be	83 65 fc 00	 and	 DWORD PTR __$EHRec$[ebp+8], 0
  000c2	6a 02		 push	 2

; 130  : 	kLoader.SetTitle_e( "CREATE_INFO" );

  000c4	c7 45 dc ae be
	ae ab		 mov	 DWORD PTR __t$513709[ebp], -1414611282 ; abaebeaeH
  000cb	c7 45 e0 b9 a9
	b4 a3		 mov	 DWORD PTR __t$513709[ebp+4], -1548441159 ; a3b4a9b9H
  000d2	8d 45 dc	 lea	 eax, DWORD PTR __t$513709[ebp]
  000d5	c7 45 e4 a3 aa
	a4 00		 mov	 DWORD PTR __t$513709[ebp+8], 10791587 ; 00a4aaa3H
  000dc	59		 pop	 ecx
$LL337@UpdateFirs:
  000dd	81 30 ed ec eb
	ea		 xor	 DWORD PTR [eax], -353637139 ; eaebecedH
  000e3	83 c0 04	 add	 eax, 4
  000e6	49		 dec	 ecx
  000e7	75 f4		 jne	 SHORT $LL337@UpdateFirs
  000e9	6a 08		 push	 8
  000eb	5f		 pop	 edi
$LL334@UpdateFirs:
  000ec	8b c7		 mov	 eax, edi
  000ee	25 03 00 00 80	 and	 eax, -2147483645	; 80000003H
  000f3	79 05		 jns	 SHORT $LN588@UpdateFirs
  000f5	48		 dec	 eax
  000f6	83 c8 fc	 or	 eax, -4			; fffffffcH
  000f9	40		 inc	 eax
$LN588@UpdateFirs:
  000fa	b1 ed		 mov	 cl, -19			; ffffffedH
  000fc	2a c8		 sub	 cl, al
  000fe	30 4c 3d dc	 xor	 BYTE PTR __t$513709[ebp+edi], cl
  00102	47		 inc	 edi
  00103	83 ff 0b	 cmp	 edi, 11			; 0000000bH
  00106	7c e4		 jl	 SHORT $LL334@UpdateFirs
  00108	8d 45 dc	 lea	 eax, DWORD PTR __t$513709[ebp]
  0010b	50		 push	 eax
  0010c	8d 8d 48 fb ff
	ff		 lea	 ecx, DWORD PTR _kLoader$[ebp]
  00112	ff 15 00 00 00
	00		 call	 DWORD PTR __imp_?SetTitle@ioINILoader@@QAEXPBD@Z
  00118	6a 02		 push	 2

; 131  : 	m_iClassLimitDate = kLoader.LoadInt_e( "limit_date", 24 );

  0011a	c7 45 dc 81 85
	86 83		 mov	 DWORD PTR __k$513834[ebp], -2088335999 ; 83868581H
  00121	c7 45 e0 99 b3
	8f 8b		 mov	 DWORD PTR __k$513834[ebp+4], -1953516647 ; 8b8fb399H
  00128	66 c7 45 e4 99
	89		 mov	 WORD PTR __k$513834[ebp+8], 35225 ; 00008999H
  0012e	8d 45 dc	 lea	 eax, DWORD PTR __k$513834[ebp]
  00131	c6 45 e6 00	 mov	 BYTE PTR __k$513834[ebp+10], 0
  00135	59		 pop	 ecx
$LL443@UpdateFirs:
  00136	81 30 ed ec eb
	ea		 xor	 DWORD PTR [eax], -353637139 ; eaebecedH
  0013c	83 c0 04	 add	 eax, 4
  0013f	49		 dec	 ecx
  00140	75 f4		 jne	 SHORT $LL443@UpdateFirs
  00142	6a 08		 push	 8
  00144	5f		 pop	 edi
$LL440@UpdateFirs:
  00145	8b c7		 mov	 eax, edi
  00147	25 03 00 00 80	 and	 eax, -2147483645	; 80000003H
  0014c	79 05		 jns	 SHORT $LN589@UpdateFirs
  0014e	48		 dec	 eax
  0014f	83 c8 fc	 or	 eax, -4			; fffffffcH
  00152	40		 inc	 eax
$LN589@UpdateFirs:
  00153	b1 ed		 mov	 cl, -19			; ffffffedH
  00155	2a c8		 sub	 cl, al
  00157	30 4c 3d dc	 xor	 BYTE PTR __k$513834[ebp+edi], cl
  0015b	47		 inc	 edi
  0015c	83 ff 0a	 cmp	 edi, 10			; 0000000aH
  0015f	7c e4		 jl	 SHORT $LL440@UpdateFirs
  00161	8b 3d 00 00 00
	00		 mov	 edi, DWORD PTR __imp_?LoadInt@ioINILoader@@QAEHPBDH@Z
  00167	6a 18		 push	 24			; 00000018H
  00169	8d 45 dc	 lea	 eax, DWORD PTR __k$513834[ebp]
  0016c	50		 push	 eax
  0016d	8d 8d 48 fb ff
	ff		 lea	 ecx, DWORD PTR _kLoader$[ebp]
  00173	ff d7		 call	 edi
  00175	6a 02		 push	 2
  00177	89 83 90 01 00
	00		 mov	 DWORD PTR [ebx+400], eax

; 132  : 	int max_item = kLoader.LoadInt_e( "max_item", 0 );

  0017d	c7 45 e0 80 8d
	93 b5		 mov	 DWORD PTR __k$513959[ebp], -1248621184 ; b5938d80H
  00184	c7 45 e4 84 98
	8e 87		 mov	 DWORD PTR __k$513959[ebp+4], -2020697980 ; 878e9884H
  0018b	8d 45 e0	 lea	 eax, DWORD PTR __k$513959[ebp]
  0018e	c6 45 e8 00	 mov	 BYTE PTR __k$513959[ebp+8], 0
  00192	59		 pop	 ecx
$LL549@UpdateFirs:
  00193	81 30 ed ec eb
	ea		 xor	 DWORD PTR [eax], -353637139 ; eaebecedH
  00199	83 c0 04	 add	 eax, 4
  0019c	49		 dec	 ecx
  0019d	75 f4		 jne	 SHORT $LL549@UpdateFirs
  0019f	51		 push	 ecx
  001a0	8d 45 e0	 lea	 eax, DWORD PTR __k$513959[ebp]
  001a3	50		 push	 eax
  001a4	8d 8d 48 fb ff
	ff		 lea	 ecx, DWORD PTR _kLoader$[ebp]
  001aa	ff d7		 call	 edi

; 133  : 
; 134  : 	char szKeyName[MAX_PATH];
; 135  : 	for(int i = 0;i < max_item;i++)

  001ac	33 c9		 xor	 ecx, ecx
  001ae	89 85 44 fb ff
	ff		 mov	 DWORD PTR _max_item$[ebp], eax
  001b4	85 c0		 test	 eax, eax
  001b6	0f 8e a6 00 00
	00		 jle	 $LN101@UpdateFirs
$LN103@UpdateFirs:

; 132  : 	int max_item = kLoader.LoadInt_e( "max_item", 0 );

  001bc	6a 03		 push	 3

; 136  : 	{
; 137  : 		sprintf_e( szKeyName, "item_code_%d", i + 1);

  001be	c7 45 dc 84 98
	8e 87		 mov	 DWORD PTR ___encStr$506152[ebp], -2020697980 ; 878e9884H
  001c5	c7 45 e0 b2 8f
	84 8e		 mov	 DWORD PTR ___encStr$506152[ebp+4], -1903915086 ; 8e848fb2H
  001cc	c7 45 e4 88 b3
	ce 8e		 mov	 DWORD PTR ___encStr$506152[ebp+8], -1899056248 ; 8eceb388H
  001d3	8d 45 dc	 lea	 eax, DWORD PTR ___encStr$506152[ebp]
  001d6	c6 45 e8 00	 mov	 BYTE PTR ___encStr$506152[ebp+12], 0
  001da	5a		 pop	 edx
$LL557@UpdateFirs:
  001db	81 30 ed ec eb
	ea		 xor	 DWORD PTR [eax], -353637139 ; eaebecedH
  001e1	83 c0 04	 add	 eax, 4
  001e4	4a		 dec	 edx
  001e5	75 f4		 jne	 SHORT $LL557@UpdateFirs
  001e7	8d 41 01	 lea	 eax, DWORD PTR [ecx+1]
  001ea	50		 push	 eax
  001eb	89 85 3c fb ff
	ff		 mov	 DWORD PTR tv4069[ebp], eax
  001f1	8d 45 dc	 lea	 eax, DWORD PTR ___encStr$506152[ebp]
  001f4	50		 push	 eax
  001f5	8d 85 d8 fe ff
	ff		 lea	 eax, DWORD PTR _szKeyName$[ebp]
  001fb	50		 push	 eax
  001fc	ff 15 00 00 00
	00		 call	 DWORD PTR __imp__sprintf
  00202	83 c4 0c	 add	 esp, 12			; 0000000cH

; 138  : 		int iClassType = kLoader.LoadInt( szKeyName, 0 );

  00205	6a 00		 push	 0
  00207	8d 85 d8 fe ff
	ff		 lea	 eax, DWORD PTR _szKeyName$[ebp]
  0020d	50		 push	 eax
  0020e	8d 8d 48 fb ff
	ff		 lea	 ecx, DWORD PTR _kLoader$[ebp]
  00214	ff d7		 call	 edi
  00216	8b d8		 mov	 ebx, eax

; 139  : 		DWORD dwSetItemCode = iClassType + SET_ITEM_CODE;

  00218	8d 83 60 ae 0a
	00		 lea	 eax, DWORD PTR [ebx+700000]

; 140  : 		const ioSetItemInfo *pSetItemInfo = g_SetItemInfoMgr.GetSetInfoByCode( dwSetItemCode );

  0021e	50		 push	 eax
  0021f	e8 00 00 00 00	 call	 ?GetSingeton@ioSetItemInfoManager@@SAAAV1@XZ ; ioSetItemInfoManager::GetSingeton
  00224	8b c8		 mov	 ecx, eax
  00226	e8 00 00 00 00	 call	 ?GetSetInfoByCode@ioSetItemInfoManager@@QBEPBVioSetItemInfo@@K@Z ; ioSetItemInfoManager::GetSetInfoByCode

; 141  : 		if( g_MyInfo.IsCanBuyItem( pSetItemInfo ) )

  0022b	50		 push	 eax
  0022c	e8 00 00 00 00	 call	 ?GetSingleton@ioMyInfo@@SAAAV1@XZ ; ioMyInfo::GetSingleton
  00231	8b c8		 mov	 ecx, eax
  00233	e8 00 00 00 00	 call	 ?IsCanBuyItem@ioMyInfo@@QAE_NPBVioSetItemInfo@@@Z ; ioMyInfo::IsCanBuyItem
  00238	84 c0		 test	 al, al
  0023a	74 14		 je	 SHORT $LN102@UpdateFirs

; 142  : 			m_dwFirstClassList.push_back( iClassType );

  0023c	8d 85 40 fb ff
	ff		 lea	 eax, DWORD PTR $T513376[ebp]
  00242	50		 push	 eax
  00243	8b ce		 mov	 ecx, esi
  00245	89 9d 40 fb ff
	ff		 mov	 DWORD PTR $T513376[ebp], ebx
  0024b	e8 00 00 00 00	 call	 ?push_back@?$vector@KV?$allocator@K@std@@@std@@QAEXABK@Z ; std::vector<unsigned long,std::allocator<unsigned long> >::push_back
$LN102@UpdateFirs:

; 133  : 
; 134  : 	char szKeyName[MAX_PATH];
; 135  : 	for(int i = 0;i < max_item;i++)

  00250	8b 8d 3c fb ff
	ff		 mov	 ecx, DWORD PTR tv4069[ebp]
  00256	3b 8d 44 fb ff
	ff		 cmp	 ecx, DWORD PTR _max_item$[ebp]
  0025c	0f 8c 5a ff ff
	ff		 jl	 $LN103@UpdateFirs
$LN101@UpdateFirs:

; 143  : 	}	
; 144  : }

  00262	83 4d fc ff	 or	 DWORD PTR __$EHRec$[ebp+8], -1
  00266	8d 8d 48 fb ff
	ff		 lea	 ecx, DWORD PTR _kLoader$[ebp]
  0026c	ff 15 00 00 00
	00		 call	 DWORD PTR __imp_??1ioINILoader@@QAE@XZ
  00272	e8 00 00 00 00	 call	 __EH_epilog3_GS
  00277	c3		 ret	 0
_TEXT	ENDS
;	COMDAT text$x
text$x	SEGMENT
__unwindfunclet$?UpdateFirstClass@ServiceCharWnd@@IAEXXZ$0:
  00000	8d 8d 48 fb ff
	ff		 lea	 ecx, DWORD PTR _kLoader$[ebp]
  00006	e9 00 00 00 00	 jmp	 ??1ioINILoader_e@@QAE@XZ
__ehhandler$?UpdateFirstClass@ServiceCharWnd@@IAEXXZ:
  0000b	8b 54 24 08	 mov	 edx, DWORD PTR [esp+8]
  0000f	8d 42 0c	 lea	 eax, DWORD PTR [edx+12]
  00012	8b 8a 38 fb ff
	ff		 mov	 ecx, DWORD PTR [edx-1224]
  00018	33 c8		 xor	 ecx, eax
  0001a	e8 00 00 00 00	 call	 @__security_check_cookie@4
  0001f	8b 4a fc	 mov	 ecx, DWORD PTR [edx-4]
  00022	33 c8		 xor	 ecx, eax
  00024	e8 00 00 00 00	 call	 @__security_check_cookie@4
  00029	b8 00 00 00 00	 mov	 eax, OFFSET __ehfuncinfo$?UpdateFirstClass@ServiceCharWnd@@IAEXXZ
  0002e	e9 00 00 00 00	 jmp	 ___CxxFrameHandler3
text$x	ENDS
?UpdateFirstClass@ServiceCharWnd@@IAEXXZ ENDP		; ServiceCharWnd::UpdateFirstClass
PUBLIC	?UpdateRaceDetail@ServiceCharWnd@@IAEXXZ	; ServiceCharWnd::UpdateRaceDetail
; Function compile flags: /Ogsp
;	COMDAT ?UpdateRaceDetail@ServiceCharWnd@@IAEXXZ
_TEXT	SEGMENT
$T514189 = -4						; size = 4
$T514127 = -4						; size = 4
$T514126 = -4						; size = 4
$T514125 = -4						; size = 4
$T514124 = -4						; size = 4
$T514123 = -4						; size = 4
$T514122 = -4						; size = 4
?UpdateRaceDetail@ServiceCharWnd@@IAEXXZ PROC		; ServiceCharWnd::UpdateRaceDetail, COMDAT
; _this$ = ecx

; 147  : {

  00000	55		 push	 ebp
  00001	8b ec		 mov	 ebp, esp
  00003	51		 push	 ecx
  00004	56		 push	 esi

; 148  : 	m_EnableRaceList.clear();

  00005	8d b1 ac 01 00
	00		 lea	 esi, DWORD PTR [ecx+428]
  0000b	8b 46 04	 mov	 eax, DWORD PTR [esi+4]
  0000e	8b 0e		 mov	 ecx, DWORD PTR [esi]
  00010	50		 push	 eax
  00011	51		 push	 ecx
  00012	8d 45 fc	 lea	 eax, DWORD PTR $T514189[ebp]
  00015	50		 push	 eax
  00016	8b ce		 mov	 ecx, esi
  00018	e8 00 00 00 00	 call	 ?erase@?$vector@W4RaceDetailType@@V?$allocator@W4RaceDetailType@@@std@@@std@@QAE?AV?$_Vector_iterator@V?$_Vector_val@W4RaceDetailType@@V?$allocator@W4RaceDetailType@@@std@@@std@@@2@V?$_Vector_const_iterator@V?$_Vector_val@W4RaceDetailType@@V?$allocator@W4RaceDetailType@@@std@@@std@@@2@0@Z ; std::vector<enum RaceDetailType,std::allocator<enum RaceDetailType> >::erase

; 149  : 	m_EnableRaceList.push_back( RDT_HUMAN_MAN );

  0001d	83 65 fc 00	 and	 DWORD PTR $T514122[ebp], 0
  00021	8d 45 fc	 lea	 eax, DWORD PTR $T514122[ebp]
  00024	50		 push	 eax
  00025	8b ce		 mov	 ecx, esi
  00027	e8 00 00 00 00	 call	 ?push_back@?$vector@W4RaceDetailType@@V?$allocator@W4RaceDetailType@@@std@@@std@@QAEX$$QAW4RaceDetailType@@@Z ; std::vector<enum RaceDetailType,std::allocator<enum RaceDetailType> >::push_back

; 150  : 	m_EnableRaceList.push_back( RDT_HUMAN_WOMAN );

  0002c	8d 45 fc	 lea	 eax, DWORD PTR $T514123[ebp]
  0002f	50		 push	 eax
  00030	8b ce		 mov	 ecx, esi
  00032	c7 45 fc 01 00
	00 00		 mov	 DWORD PTR $T514123[ebp], 1
  00039	e8 00 00 00 00	 call	 ?push_back@?$vector@W4RaceDetailType@@V?$allocator@W4RaceDetailType@@@std@@@std@@QAEX$$QAW4RaceDetailType@@@Z ; std::vector<enum RaceDetailType,std::allocator<enum RaceDetailType> >::push_back

; 151  : 	m_EnableRaceList.push_back( RDT_ELF_MAN );

  0003e	8d 45 fc	 lea	 eax, DWORD PTR $T514124[ebp]
  00041	50		 push	 eax
  00042	8b ce		 mov	 ecx, esi
  00044	c7 45 fc 02 00
	00 00		 mov	 DWORD PTR $T514124[ebp], 2
  0004b	e8 00 00 00 00	 call	 ?push_back@?$vector@W4RaceDetailType@@V?$allocator@W4RaceDetailType@@@std@@@std@@QAEX$$QAW4RaceDetailType@@@Z ; std::vector<enum RaceDetailType,std::allocator<enum RaceDetailType> >::push_back

; 152  : 	m_EnableRaceList.push_back( RDT_ELF_WOMAN );

  00050	8d 45 fc	 lea	 eax, DWORD PTR $T514125[ebp]
  00053	50		 push	 eax
  00054	8b ce		 mov	 ecx, esi
  00056	c7 45 fc 03 00
	00 00		 mov	 DWORD PTR $T514125[ebp], 3
  0005d	e8 00 00 00 00	 call	 ?push_back@?$vector@W4RaceDetailType@@V?$allocator@W4RaceDetailType@@@std@@@std@@QAEX$$QAW4RaceDetailType@@@Z ; std::vector<enum RaceDetailType,std::allocator<enum RaceDetailType> >::push_back

; 153  : 	m_EnableRaceList.push_back( RDT_DWARF_MAN );

  00062	8d 45 fc	 lea	 eax, DWORD PTR $T514126[ebp]
  00065	50		 push	 eax
  00066	8b ce		 mov	 ecx, esi
  00068	c7 45 fc 04 00
	00 00		 mov	 DWORD PTR $T514126[ebp], 4
  0006f	e8 00 00 00 00	 call	 ?push_back@?$vector@W4RaceDetailType@@V?$allocator@W4RaceDetailType@@@std@@@std@@QAEX$$QAW4RaceDetailType@@@Z ; std::vector<enum RaceDetailType,std::allocator<enum RaceDetailType> >::push_back

; 154  : 	m_EnableRaceList.push_back( RDT_DWARF_WOMAN );

  00074	8d 45 fc	 lea	 eax, DWORD PTR $T514127[ebp]
  00077	50		 push	 eax
  00078	8b ce		 mov	 ecx, esi
  0007a	c7 45 fc 05 00
	00 00		 mov	 DWORD PTR $T514127[ebp], 5
  00081	e8 00 00 00 00	 call	 ?push_back@?$vector@W4RaceDetailType@@V?$allocator@W4RaceDetailType@@@std@@@std@@QAEX$$QAW4RaceDetailType@@@Z ; std::vector<enum RaceDetailType,std::allocator<enum RaceDetailType> >::push_back
  00086	5e		 pop	 esi

; 155  : }

  00087	c9		 leave
  00088	c3		 ret	 0
?UpdateRaceDetail@ServiceCharWnd@@IAEXXZ ENDP		; ServiceCharWnd::UpdateRaceDetail
_TEXT	ENDS
PUBLIC	??$construct@AAV?$basic_string@DU?$char_traits@D@std@@V?$allocator@D@2@@std@@@?$allocator@V?$basic_string@DU?$char_traits@D@std@@V?$allocator@D@2@@std@@@std@@QAEXPAV?$basic_string@DU?$char_traits@D@std@@V?$allocator@D@2@@1@AAV21@@Z ; std::allocator<std::basic_string<char,std::char_traits<char>,std::allocator<char> > >::construct<std::basic_string<char,std::char_traits<char>,std::allocator<char> > &>
;	COMDAT xdata$x
; File c:\program files (x86)\microsoft visual studio 10.0\vc\include\utility
xdata$x	SEGMENT
__unwindtable$??$construct@AAV?$basic_string@DU?$char_traits@D@std@@V?$allocator@D@2@@std@@@?$allocator@V?$basic_string@DU?$char_traits@D@std@@V?$allocator@D@2@@std@@@std@@QAEXPAV?$basic_string@DU?$char_traits@D@std@@V?$allocator@D@2@@1@AAV21@@Z DD 0ffffffffH
	DD	FLAT:__unwindfunclet$??$construct@AAV?$basic_string@DU?$char_traits@D@std@@V?$allocator@D@2@@std@@@?$allocator@V?$basic_string@DU?$char_traits@D@std@@V?$allocator@D@2@@std@@@std@@QAEXPAV?$basic_string@DU?$char_traits@D@std@@V?$allocator@D@2@@1@AAV21@@Z$0
__ehfuncinfo$??$construct@AAV?$basic_string@DU?$char_traits@D@std@@V?$allocator@D@2@@std@@@?$allocator@V?$basic_string@DU?$char_traits@D@std@@V?$allocator@D@2@@std@@@std@@QAEXPAV?$basic_string@DU?$char_traits@D@std@@V?$allocator@D@2@@1@AAV21@@Z DD 019930522H
	DD	01H
	DD	FLAT:__unwindtable$??$construct@AAV?$basic_string@DU?$char_traits@D@std@@V?$allocator@D@2@@std@@@?$allocator@V?$basic_string@DU?$char_traits@D@std@@V?$allocator@D@2@@std@@@std@@QAEXPAV?$basic_string@DU?$char_traits@D@std@@V?$allocator@D@2@@1@AAV21@@Z
	DD	2 DUP(00H)
	DD	2 DUP(00H)
	DD	00H
	DD	01H
; Function compile flags: /Ogsp
; File c:\program files (x86)\microsoft visual studio 10.0\vc\include\xmemory
xdata$x	ENDS
;	COMDAT ??$construct@AAV?$basic_string@DU?$char_traits@D@std@@V?$allocator@D@2@@std@@@?$allocator@V?$basic_string@DU?$char_traits@D@std@@V?$allocator@D@2@@std@@@std@@QAEXPAV?$basic_string@DU?$char_traits@D@std@@V?$allocator@D@2@@1@AAV21@@Z
_TEXT	SEGMENT
$T514211 = -16						; size = 4
__$EHRec$ = -12						; size = 12
__Ptr$ = 8						; size = 4
__Val$ = 12						; size = 4
??$construct@AAV?$basic_string@DU?$char_traits@D@std@@V?$allocator@D@2@@std@@@?$allocator@V?$basic_string@DU?$char_traits@D@std@@V?$allocator@D@2@@std@@@std@@QAEXPAV?$basic_string@DU?$char_traits@D@std@@V?$allocator@D@2@@1@AAV21@@Z PROC ; std::allocator<std::basic_string<char,std::char_traits<char>,std::allocator<char> > >::construct<std::basic_string<char,std::char_traits<char>,std::allocator<char> > &>, COMDAT
; _this$ = ecx

; 206  : 		void construct(pointer _Ptr, _Other&& _Val)

  00000	6a 04		 push	 4
  00002	b8 00 00 00 00	 mov	 eax, __ehhandler$??$construct@AAV?$basic_string@DU?$char_traits@D@std@@V?$allocator@D@2@@std@@@?$allocator@V?$basic_string@DU?$char_traits@D@std@@V?$allocator@D@2@@std@@@std@@QAEXPAV?$basic_string@DU?$char_traits@D@std@@V?$allocator@D@2@@1@AAV21@@Z
  00007	e8 00 00 00 00	 call	 __EH_prolog3

; 207  : 		{	// construct object at _Ptr with value _Val
; 208  : 		::new ((void _FARQ *)_Ptr) _Ty(_STD forward<_Other>(_Val));

  0000c	8b 4d 08	 mov	 ecx, DWORD PTR __Ptr$[ebp]
  0000f	89 4d f0	 mov	 DWORD PTR $T514211[ebp], ecx
  00012	83 65 fc 00	 and	 DWORD PTR __$EHRec$[ebp+8], 0
  00016	85 c9		 test	 ecx, ecx
  00018	74 08		 je	 SHORT $LN3@construct@4
  0001a	ff 75 0c	 push	 DWORD PTR __Val$[ebp]
  0001d	e8 00 00 00 00	 call	 ??0?$basic_string@DU?$char_traits@D@std@@V?$allocator@D@2@@std@@QAE@ABV01@@Z ; std::basic_string<char,std::char_traits<char>,std::allocator<char> >::basic_string<char,std::char_traits<char>,std::allocator<char> >
$LN3@construct@4:

; 209  : 		}

  00022	e8 00 00 00 00	 call	 __EH_epilog3
  00027	c2 08 00	 ret	 8
_TEXT	ENDS
;	COMDAT text$x
text$x	SEGMENT
__unwindfunclet$??$construct@AAV?$basic_string@DU?$char_traits@D@std@@V?$allocator@D@2@@std@@@?$allocator@V?$basic_string@DU?$char_traits@D@std@@V?$allocator@D@2@@std@@@std@@QAEXPAV?$basic_string@DU?$char_traits@D@std@@V?$allocator@D@2@@1@AAV21@@Z$0:
  00000	ff 75 08	 push	 DWORD PTR __Ptr$[ebp]
  00003	ff 75 f0	 push	 DWORD PTR $T514211[ebp]
  00006	e8 00 00 00 00	 call	 ??3@YAXPAX0@Z		; operator delete
  0000b	59		 pop	 ecx
  0000c	59		 pop	 ecx
  0000d	c3		 ret	 0
__ehhandler$??$construct@AAV?$basic_string@DU?$char_traits@D@std@@V?$allocator@D@2@@std@@@?$allocator@V?$basic_string@DU?$char_traits@D@std@@V?$allocator@D@2@@std@@@std@@QAEXPAV?$basic_string@DU?$char_traits@D@std@@V?$allocator@D@2@@1@AAV21@@Z:
  0000e	8b 54 24 08	 mov	 edx, DWORD PTR [esp+8]
  00012	8d 42 0c	 lea	 eax, DWORD PTR [edx+12]
  00015	8b 4a ec	 mov	 ecx, DWORD PTR [edx-20]
  00018	33 c8		 xor	 ecx, eax
  0001a	e8 00 00 00 00	 call	 @__security_check_cookie@4
  0001f	b8 00 00 00 00	 mov	 eax, OFFSET __ehfuncinfo$??$construct@AAV?$basic_string@DU?$char_traits@D@std@@V?$allocator@D@2@@std@@@?$allocator@V?$basic_string@DU?$char_traits@D@std@@V?$allocator@D@2@@std@@@std@@QAEXPAV?$basic_string@DU?$char_traits@D@std@@V?$allocator@D@2@@1@AAV21@@Z
  00024	e9 00 00 00 00	 jmp	 ___CxxFrameHandler3
text$x	ENDS
??$construct@AAV?$basic_string@DU?$char_traits@D@std@@V?$allocator@D@2@@std@@@?$allocator@V?$basic_string@DU?$char_traits@D@std@@V?$allocator@D@2@@std@@@std@@QAEXPAV?$basic_string@DU?$char_traits@D@std@@V?$allocator@D@2@@1@AAV21@@Z ENDP ; std::allocator<std::basic_string<char,std::char_traits<char>,std::allocator<char> > >::construct<std::basic_string<char,std::char_traits<char>,std::allocator<char> > &>
PUBLIC	??0?$basic_string@DU?$char_traits@D@std@@V?$allocator@D@2@@std@@QAE@PBD@Z ; std::basic_string<char,std::char_traits<char>,std::allocator<char> >::basic_string<char,std::char_traits<char>,std::allocator<char> >
; Function compile flags: /Ogsp
; File c:\program files (x86)\microsoft visual studio 10.0\vc\include\xstring
;	COMDAT ??0?$basic_string@DU?$char_traits@D@std@@V?$allocator@D@2@@std@@QAE@PBD@Z
_TEXT	SEGMENT
__Ptr$ = 8						; size = 4
??0?$basic_string@DU?$char_traits@D@std@@V?$allocator@D@2@@std@@QAE@PBD@Z PROC ; std::basic_string<char,std::char_traits<char>,std::allocator<char> >::basic_string<char,std::char_traits<char>,std::allocator<char> >, COMDAT
; _this$ = ecx

; 592  : 		{	// construct from [_Ptr, <null>)

  00000	55		 push	 ebp
  00001	8b ec		 mov	 ebp, esp
  00003	56		 push	 esi

; 593  : 		_Tidy();
; 594  : 		assign(_Ptr);

  00004	ff 75 08	 push	 DWORD PTR __Ptr$[ebp]
  00007	8b f1		 mov	 esi, ecx
  00009	83 66 10 00	 and	 DWORD PTR [esi+16], 0
  0000d	c7 46 14 0f 00
	00 00		 mov	 DWORD PTR [esi+20], 15	; 0000000fH
  00014	c6 06 00	 mov	 BYTE PTR [esi], 0
  00017	e8 00 00 00 00	 call	 ?assign@?$basic_string@DU?$char_traits@D@std@@V?$allocator@D@2@@std@@QAEAAV12@PBD@Z ; std::basic_string<char,std::char_traits<char>,std::allocator<char> >::assign

; 595  : 		}

  0001c	8b c6		 mov	 eax, esi
  0001e	5e		 pop	 esi
  0001f	5d		 pop	 ebp
  00020	c2 04 00	 ret	 4
??0?$basic_string@DU?$char_traits@D@std@@V?$allocator@D@2@@std@@QAE@PBD@Z ENDP ; std::basic_string<char,std::char_traits<char>,std::allocator<char> >::basic_string<char,std::char_traits<char>,std::allocator<char> >
_TEXT	ENDS
PUBLIC	??4?$basic_string@DU?$char_traits@D@std@@V?$allocator@D@2@@std@@QAEAAV01@ABV01@@Z ; std::basic_string<char,std::char_traits<char>,std::allocator<char> >::operator=
; Function compile flags: /Ogsp
;	COMDAT ??4?$basic_string@DU?$char_traits@D@std@@V?$allocator@D@2@@std@@QAEAAV01@ABV01@@Z
_TEXT	SEGMENT
__Right$ = 8						; size = 4
??4?$basic_string@DU?$char_traits@D@std@@V?$allocator@D@2@@std@@QAEAAV01@ABV01@@Z PROC ; std::basic_string<char,std::char_traits<char>,std::allocator<char> >::operator=, COMDAT
; _this$ = ecx

; 763  : 		{	// assign _Right

  00000	55		 push	 ebp
  00001	8b ec		 mov	 ebp, esp

; 764  : 		return (assign(_Right));

  00003	6a ff		 push	 -1
  00005	6a 00		 push	 0
  00007	ff 75 08	 push	 DWORD PTR __Right$[ebp]
  0000a	e8 00 00 00 00	 call	 ?assign@?$basic_string@DU?$char_traits@D@std@@V?$allocator@D@2@@std@@QAEAAV12@ABV12@II@Z ; std::basic_string<char,std::char_traits<char>,std::allocator<char> >::assign

; 765  : 		}

  0000f	5d		 pop	 ebp
  00010	c2 04 00	 ret	 4
??4?$basic_string@DU?$char_traits@D@std@@V?$allocator@D@2@@std@@QAEAAV01@ABV01@@Z ENDP ; std::basic_string<char,std::char_traits<char>,std::allocator<char> >::operator=
_TEXT	ENDS
PUBLIC	?assign@?$basic_string@DU?$char_traits@D@std@@V?$allocator@D@2@@std@@QAEAAV12@$$QAV12@@Z ; std::basic_string<char,std::char_traits<char>,std::allocator<char> >::assign
; Function compile flags: /Ogsp
;	COMDAT ?assign@?$basic_string@DU?$char_traits@D@std@@V?$allocator@D@2@@std@@QAEAAV12@$$QAV12@@Z
_TEXT	SEGMENT
__Right$ = 8						; size = 4
?assign@?$basic_string@DU?$char_traits@D@std@@V?$allocator@D@2@@std@@QAEAAV12@$$QAV12@@Z PROC ; std::basic_string<char,std::char_traits<char>,std::allocator<char> >::assign, COMDAT
; _this$ = ecx

; 713  : 		{	// assign by moving _Right

  00000	55		 push	 ebp
  00001	8b ec		 mov	 ebp, esp
  00003	56		 push	 esi

; 714  : 		if (this == &_Right)

  00004	8b 75 08	 mov	 esi, DWORD PTR __Right$[ebp]
  00007	57		 push	 edi
  00008	8b f9		 mov	 edi, ecx
  0000a	3b fe		 cmp	 edi, esi
  0000c	74 3c		 je	 SHORT $LN3@assign@4

; 715  : 			;
; 716  : 		else if (get_allocator() != _Right.get_allocator()
; 717  : 			&& this->_BUF_SIZE <= _Right._Myres)
; 718  : 			*this = _Right;
; 719  : 		else
; 720  : 			{	// not same, clear this and steal from _Right
; 721  : 			_Tidy(true);

  0000e	6a 00		 push	 0
  00010	6a 01		 push	 1
  00012	e8 00 00 00 00	 call	 ?_Tidy@?$basic_string@DU?$char_traits@D@std@@V?$allocator@D@2@@std@@QAEX_NI@Z ; std::basic_string<char,std::char_traits<char>,std::allocator<char> >::_Tidy

; 722  : 			if (_Right._Myres < this->_BUF_SIZE)

  00017	83 7e 14 10	 cmp	 DWORD PTR [esi+20], 16	; 00000010H
  0001b	73 12		 jae	 SHORT $LN2@assign@4

; 723  : 				_Traits::move(this->_Bx._Buf, _Right._Bx._Buf,
; 724  : 					_Right._Mysize + 1);

  0001d	8b 46 10	 mov	 eax, DWORD PTR [esi+16]
  00020	40		 inc	 eax
  00021	50		 push	 eax
  00022	56		 push	 esi
  00023	57		 push	 edi
  00024	ff 15 00 00 00
	00		 call	 DWORD PTR __imp__memmove
  0002a	83 c4 0c	 add	 esp, 12			; 0000000cH

; 725  : 			else

  0002d	eb 07		 jmp	 SHORT $LN1@assign@4
$LN2@assign@4:

; 726  : 				{	// copy pointer
; 727  : 				this->_Bx._Ptr = _Right._Bx._Ptr;

  0002f	8b 06		 mov	 eax, DWORD PTR [esi]
  00031	89 07		 mov	 DWORD PTR [edi], eax

; 728  : 				_Right._Bx._Ptr = 0;

  00033	83 26 00	 and	 DWORD PTR [esi], 0
$LN1@assign@4:

; 729  : 				}
; 730  : 			this->_Mysize = _Right._Mysize;

  00036	8b 46 10	 mov	 eax, DWORD PTR [esi+16]
  00039	89 47 10	 mov	 DWORD PTR [edi+16], eax

; 731  : 			this->_Myres = _Right._Myres;

  0003c	8b 46 14	 mov	 eax, DWORD PTR [esi+20]
  0003f	89 47 14	 mov	 DWORD PTR [edi+20], eax

; 732  : 
; 733  : 			_Right._Mysize = 0;

  00042	83 66 10 00	 and	 DWORD PTR [esi+16], 0

; 734  : 			_Right._Myres = 0;

  00046	83 66 14 00	 and	 DWORD PTR [esi+20], 0
$LN3@assign@4:

; 735  : 			}
; 736  : 		return (*this);

  0004a	8b c7		 mov	 eax, edi
  0004c	5f		 pop	 edi
  0004d	5e		 pop	 esi

; 737  : 		}

  0004e	5d		 pop	 ebp
  0004f	c2 04 00	 ret	 4
?assign@?$basic_string@DU?$char_traits@D@std@@V?$allocator@D@2@@std@@QAEAAV12@$$QAV12@@Z ENDP ; std::basic_string<char,std::char_traits<char>,std::allocator<char> >::assign
_TEXT	ENDS
PUBLIC	??$_Dest_val@V?$allocator@V?$basic_string@DU?$char_traits@D@std@@V?$allocator@D@2@@std@@@std@@V?$basic_string@DU?$char_traits@D@std@@V?$allocator@D@2@@2@@std@@YAXAAV?$allocator@V?$basic_string@DU?$char_traits@D@std@@V?$allocator@D@2@@std@@@0@PAV?$basic_string@DU?$char_traits@D@std@@V?$allocator@D@2@@0@@Z ; std::_Dest_val<std::allocator<std::basic_string<char,std::char_traits<char>,std::allocator<char> > >,std::basic_string<char,std::char_traits<char>,std::allocator<char> > >
; Function compile flags: /Ogsp
; File c:\program files (x86)\microsoft visual studio 10.0\vc\include\xmemory
;	COMDAT ??$_Dest_val@V?$allocator@V?$basic_string@DU?$char_traits@D@std@@V?$allocator@D@2@@std@@@std@@V?$basic_string@DU?$char_traits@D@std@@V?$allocator@D@2@@2@@std@@YAXAAV?$allocator@V?$basic_string@DU?$char_traits@D@std@@V?$allocator@D@2@@std@@@0@PAV?$basic_string@DU?$char_traits@D@std@@V?$allocator@D@2@@0@@Z
_TEXT	SEGMENT
__Alval$ = 8						; size = 4
__Pdest$ = 12						; size = 4
??$_Dest_val@V?$allocator@V?$basic_string@DU?$char_traits@D@std@@V?$allocator@D@2@@std@@@std@@V?$basic_string@DU?$char_traits@D@std@@V?$allocator@D@2@@2@@std@@YAXAAV?$allocator@V?$basic_string@DU?$char_traits@D@std@@V?$allocator@D@2@@std@@@0@PAV?$basic_string@DU?$char_traits@D@std@@V?$allocator@D@2@@0@@Z PROC ; std::_Dest_val<std::allocator<std::basic_string<char,std::char_traits<char>,std::allocator<char> > >,std::basic_string<char,std::char_traits<char>,std::allocator<char> > >, COMDAT

; 286  : 	{	// destroy using allocator

  00000	55		 push	 ebp
  00001	8b ec		 mov	 ebp, esp

; 287  : 	_Alval.destroy(_Pdest);

  00003	8b 4d 0c	 mov	 ecx, DWORD PTR __Pdest$[ebp]
  00006	6a 00		 push	 0
  00008	6a 01		 push	 1
  0000a	e8 00 00 00 00	 call	 ?_Tidy@?$basic_string@DU?$char_traits@D@std@@V?$allocator@D@2@@std@@QAEX_NI@Z ; std::basic_string<char,std::char_traits<char>,std::allocator<char> >::_Tidy

; 288  : 	}

  0000f	5d		 pop	 ebp
  00010	c3		 ret	 0
??$_Dest_val@V?$allocator@V?$basic_string@DU?$char_traits@D@std@@V?$allocator@D@2@@std@@@std@@V?$basic_string@DU?$char_traits@D@std@@V?$allocator@D@2@@2@@std@@YAXAAV?$allocator@V?$basic_string@DU?$char_traits@D@std@@V?$allocator@D@2@@std@@@0@PAV?$basic_string@DU?$char_traits@D@std@@V?$allocator@D@2@@0@@Z ENDP ; std::_Dest_val<std::allocator<std::basic_string<char,std::char_traits<char>,std::allocator<char> > >,std::basic_string<char,std::char_traits<char>,std::allocator<char> > >
_TEXT	ENDS
PUBLIC	??$_Copy_impl@PAV?$basic_string@DU?$char_traits@D@std@@V?$allocator@D@2@@std@@PAV12@@std@@YAPAV?$basic_string@DU?$char_traits@D@std@@V?$allocator@D@2@@0@PAV10@00U_Nonscalar_ptr_iterator_tag@0@@Z ; std::_Copy_impl<std::basic_string<char,std::char_traits<char>,std::allocator<char> > *,std::basic_string<char,std::char_traits<char>,std::allocator<char> > *>
; Function compile flags: /Ogsp
; File c:\program files (x86)\microsoft visual studio 10.0\vc\include\xutility
;	COMDAT ??$_Copy_impl@PAV?$basic_string@DU?$char_traits@D@std@@V?$allocator@D@2@@std@@PAV12@@std@@YAPAV?$basic_string@DU?$char_traits@D@std@@V?$allocator@D@2@@0@PAV10@00U_Nonscalar_ptr_iterator_tag@0@@Z
_TEXT	SEGMENT
__First$ = 8						; size = 4
__Last$ = 12						; size = 4
__Dest$ = 16						; size = 4
___formal$ = 20						; size = 1
??$_Copy_impl@PAV?$basic_string@DU?$char_traits@D@std@@V?$allocator@D@2@@std@@PAV12@@std@@YAPAV?$basic_string@DU?$char_traits@D@std@@V?$allocator@D@2@@0@PAV10@00U_Nonscalar_ptr_iterator_tag@0@@Z PROC ; std::_Copy_impl<std::basic_string<char,std::char_traits<char>,std::allocator<char> > *,std::basic_string<char,std::char_traits<char>,std::allocator<char> > *>, COMDAT

; 2142 : 	{	// copy [_First, _Last) to [_Dest, ...), arbitrary iterators

  00000	55		 push	 ebp
  00001	8b ec		 mov	 ebp, esp
  00003	56		 push	 esi

; 2143 : 	for (; _First != _Last; ++_Dest, ++_First)

  00004	8b 75 08	 mov	 esi, DWORD PTR __First$[ebp]
  00007	eb 14		 jmp	 SHORT $LN13@Copy_impl
$LL3@Copy_impl:

; 2144 : 		*_Dest = *_First;

  00009	8b 4d 10	 mov	 ecx, DWORD PTR __Dest$[ebp]
  0000c	6a ff		 push	 -1
  0000e	6a 00		 push	 0
  00010	56		 push	 esi
  00011	e8 00 00 00 00	 call	 ?assign@?$basic_string@DU?$char_traits@D@std@@V?$allocator@D@2@@std@@QAEAAV12@ABV12@II@Z ; std::basic_string<char,std::char_traits<char>,std::allocator<char> >::assign
  00016	83 45 10 1c	 add	 DWORD PTR __Dest$[ebp], 28 ; 0000001cH
  0001a	83 c6 1c	 add	 esi, 28			; 0000001cH
$LN13@Copy_impl:

; 2143 : 	for (; _First != _Last; ++_Dest, ++_First)

  0001d	3b 75 0c	 cmp	 esi, DWORD PTR __Last$[ebp]
  00020	75 e7		 jne	 SHORT $LL3@Copy_impl

; 2145 : 	return (_Dest);

  00022	8b 45 10	 mov	 eax, DWORD PTR __Dest$[ebp]
  00025	5e		 pop	 esi

; 2146 : 	}

  00026	5d		 pop	 ebp
  00027	c3		 ret	 0
??$_Copy_impl@PAV?$basic_string@DU?$char_traits@D@std@@V?$allocator@D@2@@std@@PAV12@@std@@YAPAV?$basic_string@DU?$char_traits@D@std@@V?$allocator@D@2@@0@PAV10@00U_Nonscalar_ptr_iterator_tag@0@@Z ENDP ; std::_Copy_impl<std::basic_string<char,std::char_traits<char>,std::allocator<char> > *,std::basic_string<char,std::char_traits<char>,std::allocator<char> > *>
_TEXT	ENDS
PUBLIC	??$_Cons_val@V?$allocator@V?$basic_string@DU?$char_traits@D@std@@V?$allocator@D@2@@std@@@std@@V?$basic_string@DU?$char_traits@D@std@@V?$allocator@D@2@@2@AAV32@@std@@YAXAAV?$allocator@V?$basic_string@DU?$char_traits@D@std@@V?$allocator@D@2@@std@@@0@PAV?$basic_string@DU?$char_traits@D@std@@V?$allocator@D@2@@0@AAV20@@Z ; std::_Cons_val<std::allocator<std::basic_string<char,std::char_traits<char>,std::allocator<char> > >,std::basic_string<char,std::char_traits<char>,std::allocator<char> >,std::basic_string<char,std::char_traits<char>,std::allocator<char> > &>
;	COMDAT xdata$x
; File c:\program files (x86)\microsoft visual studio 10.0\vc\include\utility
xdata$x	SEGMENT
__unwindtable$??$_Cons_val@V?$allocator@V?$basic_string@DU?$char_traits@D@std@@V?$allocator@D@2@@std@@@std@@V?$basic_string@DU?$char_traits@D@std@@V?$allocator@D@2@@2@AAV32@@std@@YAXAAV?$allocator@V?$basic_string@DU?$char_traits@D@std@@V?$allocator@D@2@@std@@@0@PAV?$basic_string@DU?$char_traits@D@std@@V?$allocator@D@2@@0@AAV20@@Z DD 0ffffffffH
	DD	FLAT:__unwindfunclet$??$_Cons_val@V?$allocator@V?$basic_string@DU?$char_traits@D@std@@V?$allocator@D@2@@std@@@std@@V?$basic_string@DU?$char_traits@D@std@@V?$allocator@D@2@@2@AAV32@@std@@YAXAAV?$allocator@V?$basic_string@DU?$char_traits@D@std@@V?$allocator@D@2@@std@@@0@PAV?$basic_string@DU?$char_traits@D@std@@V?$allocator@D@2@@0@AAV20@@Z$0
__ehfuncinfo$??$_Cons_val@V?$allocator@V?$basic_string@DU?$char_traits@D@std@@V?$allocator@D@2@@std@@@std@@V?$basic_string@DU?$char_traits@D@std@@V?$allocator@D@2@@2@AAV32@@std@@YAXAAV?$allocator@V?$basic_string@DU?$char_traits@D@std@@V?$allocator@D@2@@std@@@0@PAV?$basic_string@DU?$char_traits@D@std@@V?$allocator@D@2@@0@AAV20@@Z DD 019930522H
	DD	01H
	DD	FLAT:__unwindtable$??$_Cons_val@V?$allocator@V?$basic_string@DU?$char_traits@D@std@@V?$allocator@D@2@@std@@@std@@V?$basic_string@DU?$char_traits@D@std@@V?$allocator@D@2@@2@AAV32@@std@@YAXAAV?$allocator@V?$basic_string@DU?$char_traits@D@std@@V?$allocator@D@2@@std@@@0@PAV?$basic_string@DU?$char_traits@D@std@@V?$allocator@D@2@@0@AAV20@@Z
	DD	2 DUP(00H)
	DD	2 DUP(00H)
	DD	00H
	DD	01H
; Function compile flags: /Ogsp
; File c:\program files (x86)\microsoft visual studio 10.0\vc\include\xmemory
xdata$x	ENDS
;	COMDAT ??$_Cons_val@V?$allocator@V?$basic_string@DU?$char_traits@D@std@@V?$allocator@D@2@@std@@@std@@V?$basic_string@DU?$char_traits@D@std@@V?$allocator@D@2@@2@AAV32@@std@@YAXAAV?$allocator@V?$basic_string@DU?$char_traits@D@std@@V?$allocator@D@2@@std@@@0@PAV?$basic_string@DU?$char_traits@D@std@@V?$allocator@D@2@@0@AAV20@@Z
_TEXT	SEGMENT
$T514410 = -16						; size = 4
__$EHRec$ = -12						; size = 12
__Alval$ = 8						; size = 4
__Pdest$ = 12						; size = 4
__Src$ = 16						; size = 4
??$_Cons_val@V?$allocator@V?$basic_string@DU?$char_traits@D@std@@V?$allocator@D@2@@std@@@std@@V?$basic_string@DU?$char_traits@D@std@@V?$allocator@D@2@@2@AAV32@@std@@YAXAAV?$allocator@V?$basic_string@DU?$char_traits@D@std@@V?$allocator@D@2@@std@@@0@PAV?$basic_string@DU?$char_traits@D@std@@V?$allocator@D@2@@0@AAV20@@Z PROC ; std::_Cons_val<std::allocator<std::basic_string<char,std::char_traits<char>,std::allocator<char> > >,std::basic_string<char,std::char_traits<char>,std::allocator<char> >,std::basic_string<char,std::char_traits<char>,std::allocator<char> > &>, COMDAT

; 279  : 	{	// construct using allocator

  00000	6a 04		 push	 4
  00002	b8 00 00 00 00	 mov	 eax, __ehhandler$??$_Cons_val@V?$allocator@V?$basic_string@DU?$char_traits@D@std@@V?$allocator@D@2@@std@@@std@@V?$basic_string@DU?$char_traits@D@std@@V?$allocator@D@2@@2@AAV32@@std@@YAXAAV?$allocator@V?$basic_string@DU?$char_traits@D@std@@V?$allocator@D@2@@std@@@0@PAV?$basic_string@DU?$char_traits@D@std@@V?$allocator@D@2@@0@AAV20@@Z
  00007	e8 00 00 00 00	 call	 __EH_prolog3

; 280  : 	_Alval.construct(_Pdest, _STD forward<_Ty2>(_Src));

  0000c	8b 4d 0c	 mov	 ecx, DWORD PTR __Pdest$[ebp]
  0000f	89 4d f0	 mov	 DWORD PTR $T514410[ebp], ecx
  00012	83 65 fc 00	 and	 DWORD PTR __$EHRec$[ebp+8], 0
  00016	85 c9		 test	 ecx, ecx
  00018	74 08		 je	 SHORT $LN7@Cons_val@4
  0001a	ff 75 10	 push	 DWORD PTR __Src$[ebp]
  0001d	e8 00 00 00 00	 call	 ??0?$basic_string@DU?$char_traits@D@std@@V?$allocator@D@2@@std@@QAE@ABV01@@Z ; std::basic_string<char,std::char_traits<char>,std::allocator<char> >::basic_string<char,std::char_traits<char>,std::allocator<char> >
$LN7@Cons_val@4:

; 281  : 	}

  00022	e8 00 00 00 00	 call	 __EH_epilog3
  00027	c3		 ret	 0
_TEXT	ENDS
;	COMDAT text$x
text$x	SEGMENT
__unwindfunclet$??$_Cons_val@V?$allocator@V?$basic_string@DU?$char_traits@D@std@@V?$allocator@D@2@@std@@@std@@V?$basic_string@DU?$char_traits@D@std@@V?$allocator@D@2@@2@AAV32@@std@@YAXAAV?$allocator@V?$basic_string@DU?$char_traits@D@std@@V?$allocator@D@2@@std@@@0@PAV?$basic_string@DU?$char_traits@D@std@@V?$allocator@D@2@@0@AAV20@@Z$0:
  00000	ff 75 0c	 push	 DWORD PTR __Pdest$[ebp]
  00003	ff 75 f0	 push	 DWORD PTR $T514410[ebp]
  00006	e8 00 00 00 00	 call	 ??3@YAXPAX0@Z		; operator delete
  0000b	59		 pop	 ecx
  0000c	59		 pop	 ecx
  0000d	c3		 ret	 0
__ehhandler$??$_Cons_val@V?$allocator@V?$basic_string@DU?$char_traits@D@std@@V?$allocator@D@2@@std@@@std@@V?$basic_string@DU?$char_traits@D@std@@V?$allocator@D@2@@2@AAV32@@std@@YAXAAV?$allocator@V?$basic_string@DU?$char_traits@D@std@@V?$allocator@D@2@@std@@@0@PAV?$basic_string@DU?$char_traits@D@std@@V?$allocator@D@2@@0@AAV20@@Z:
  0000e	8b 54 24 08	 mov	 edx, DWORD PTR [esp+8]
  00012	8d 42 0c	 lea	 eax, DWORD PTR [edx+12]
  00015	8b 4a ec	 mov	 ecx, DWORD PTR [edx-20]
  00018	33 c8		 xor	 ecx, eax
  0001a	e8 00 00 00 00	 call	 @__security_check_cookie@4
  0001f	b8 00 00 00 00	 mov	 eax, OFFSET __ehfuncinfo$??$_Cons_val@V?$allocator@V?$basic_string@DU?$char_traits@D@std@@V?$allocator@D@2@@std@@@std@@V?$basic_string@DU?$char_traits@D@std@@V?$allocator@D@2@@2@AAV32@@std@@YAXAAV?$allocator@V?$basic_string@DU?$char_traits@D@std@@V?$allocator@D@2@@std@@@0@PAV?$basic_string@DU?$char_traits@D@std@@V?$allocator@D@2@@0@AAV20@@Z
  00024	e9 00 00 00 00	 jmp	 ___CxxFrameHandler3
text$x	ENDS
??$_Cons_val@V?$allocator@V?$basic_string@DU?$char_traits@D@std@@V?$allocator@D@2@@std@@@std@@V?$basic_string@DU?$char_traits@D@std@@V?$allocator@D@2@@2@AAV32@@std@@YAXAAV?$allocator@V?$basic_string@DU?$char_traits@D@std@@V?$allocator@D@2@@std@@@0@PAV?$basic_string@DU?$char_traits@D@std@@V?$allocator@D@2@@0@AAV20@@Z ENDP ; std::_Cons_val<std::allocator<std::basic_string<char,std::char_traits<char>,std::allocator<char> > >,std::basic_string<char,std::char_traits<char>,std::allocator<char> >,std::basic_string<char,std::char_traits<char>,std::allocator<char> > &>
PUBLIC	??4?$basic_string@DU?$char_traits@D@std@@V?$allocator@D@2@@std@@QAEAAV01@$$QAV01@@Z ; std::basic_string<char,std::char_traits<char>,std::allocator<char> >::operator=
; Function compile flags: /Ogsp
; File c:\program files (x86)\microsoft visual studio 10.0\vc\include\xstring
;	COMDAT ??4?$basic_string@DU?$char_traits@D@std@@V?$allocator@D@2@@std@@QAEAAV01@$$QAV01@@Z
_TEXT	SEGMENT
__Right$ = 8						; size = 4
??4?$basic_string@DU?$char_traits@D@std@@V?$allocator@D@2@@std@@QAEAAV01@$$QAV01@@Z PROC ; std::basic_string<char,std::char_traits<char>,std::allocator<char> >::operator=, COMDAT
; _this$ = ecx

; 708  : 		{	// assign by moving _Right

  00000	55		 push	 ebp
  00001	8b ec		 mov	 ebp, esp

; 710  : 		}

  00003	5d		 pop	 ebp

; 709  : 		return (assign(_STD forward<_Myt>(_Right)));

  00004	e9 00 00 00 00	 jmp	 ?assign@?$basic_string@DU?$char_traits@D@std@@V?$allocator@D@2@@std@@QAEAAV12@$$QAV12@@Z ; std::basic_string<char,std::char_traits<char>,std::allocator<char> >::assign
??4?$basic_string@DU?$char_traits@D@std@@V?$allocator@D@2@@std@@QAEAAV01@$$QAV01@@Z ENDP ; std::basic_string<char,std::char_traits<char>,std::allocator<char> >::operator=
_TEXT	ENDS
PUBLIC	??$_Destroy_range@V?$allocator@V?$basic_string@DU?$char_traits@D@std@@V?$allocator@D@2@@std@@@std@@@std@@YAXPAV?$basic_string@DU?$char_traits@D@std@@V?$allocator@D@2@@0@0AAV?$allocator@V?$basic_string@DU?$char_traits@D@std@@V?$allocator@D@2@@std@@@0@U_Nonscalar_ptr_iterator_tag@0@@Z ; std::_Destroy_range<std::allocator<std::basic_string<char,std::char_traits<char>,std::allocator<char> > > >
; Function compile flags: /Ogsp
; File c:\program files (x86)\microsoft visual studio 10.0\vc\include\xmemory
;	COMDAT ??$_Destroy_range@V?$allocator@V?$basic_string@DU?$char_traits@D@std@@V?$allocator@D@2@@std@@@std@@@std@@YAXPAV?$basic_string@DU?$char_traits@D@std@@V?$allocator@D@2@@0@0AAV?$allocator@V?$basic_string@DU?$char_traits@D@std@@V?$allocator@D@2@@std@@@0@U_Nonscalar_ptr_iterator_tag@0@@Z
_TEXT	SEGMENT
__First$ = 8						; size = 4
__Last$ = 12						; size = 4
__Al$ = 16						; size = 4
___formal$ = 20						; size = 1
??$_Destroy_range@V?$allocator@V?$basic_string@DU?$char_traits@D@std@@V?$allocator@D@2@@std@@@std@@@std@@YAXPAV?$basic_string@DU?$char_traits@D@std@@V?$allocator@D@2@@0@0AAV?$allocator@V?$basic_string@DU?$char_traits@D@std@@V?$allocator@D@2@@std@@@0@U_Nonscalar_ptr_iterator_tag@0@@Z PROC ; std::_Destroy_range<std::allocator<std::basic_string<char,std::char_traits<char>,std::allocator<char> > > >, COMDAT

; 95   : 	{	// destroy [_First, _Last), arbitrary type

  00000	55		 push	 ebp
  00001	8b ec		 mov	 ebp, esp
  00003	56		 push	 esi

; 96   : 	for (; _First != _Last; ++_First)

  00004	8b 75 08	 mov	 esi, DWORD PTR __First$[ebp]
  00007	eb 0e		 jmp	 SHORT $LN21@Destroy_ra
$LL3@Destroy_ra:

; 97   : 		_Dest_val(_Al, _First);

  00009	6a 00		 push	 0
  0000b	6a 01		 push	 1
  0000d	8b ce		 mov	 ecx, esi
  0000f	e8 00 00 00 00	 call	 ?_Tidy@?$basic_string@DU?$char_traits@D@std@@V?$allocator@D@2@@std@@QAEX_NI@Z ; std::basic_string<char,std::char_traits<char>,std::allocator<char> >::_Tidy
  00014	83 c6 1c	 add	 esi, 28			; 0000001cH
$LN21@Destroy_ra:

; 96   : 	for (; _First != _Last; ++_First)

  00017	3b 75 0c	 cmp	 esi, DWORD PTR __Last$[ebp]
  0001a	75 ed		 jne	 SHORT $LL3@Destroy_ra
  0001c	5e		 pop	 esi

; 98   : 	}

  0001d	5d		 pop	 ebp
  0001e	c3		 ret	 0
??$_Destroy_range@V?$allocator@V?$basic_string@DU?$char_traits@D@std@@V?$allocator@D@2@@std@@@std@@@std@@YAXPAV?$basic_string@DU?$char_traits@D@std@@V?$allocator@D@2@@0@0AAV?$allocator@V?$basic_string@DU?$char_traits@D@std@@V?$allocator@D@2@@std@@@0@U_Nonscalar_ptr_iterator_tag@0@@Z ENDP ; std::_Destroy_range<std::allocator<std::basic_string<char,std::char_traits<char>,std::allocator<char> > > >
_TEXT	ENDS
PUBLIC	??$_Copy_impl@PAV?$basic_string@DU?$char_traits@D@std@@V?$allocator@D@2@@std@@PAV12@@std@@YAPAV?$basic_string@DU?$char_traits@D@std@@V?$allocator@D@2@@0@PAV10@00@Z ; std::_Copy_impl<std::basic_string<char,std::char_traits<char>,std::allocator<char> > *,std::basic_string<char,std::char_traits<char>,std::allocator<char> > *>
; Function compile flags: /Ogsp
; File c:\program files (x86)\microsoft visual studio 10.0\vc\include\xutility
;	COMDAT ??$_Copy_impl@PAV?$basic_string@DU?$char_traits@D@std@@V?$allocator@D@2@@std@@PAV12@@std@@YAPAV?$basic_string@DU?$char_traits@D@std@@V?$allocator@D@2@@0@PAV10@00@Z
_TEXT	SEGMENT
__Cat$514493 = -4					; size = 1
__First$ = 8						; size = 4
__Last$ = 12						; size = 4
__Dest$ = 16						; size = 4
??$_Copy_impl@PAV?$basic_string@DU?$char_traits@D@std@@V?$allocator@D@2@@std@@PAV12@@std@@YAPAV?$basic_string@DU?$char_traits@D@std@@V?$allocator@D@2@@0@PAV10@00@Z PROC ; std::_Copy_impl<std::basic_string<char,std::char_traits<char>,std::allocator<char> > *,std::basic_string<char,std::char_traits<char>,std::allocator<char> > *>, COMDAT

; 2163 : 	{	// copy [_First, _Last) to [_Dest, ...)

  00000	55		 push	 ebp
  00001	8b ec		 mov	 ebp, esp
  00003	51		 push	 ecx

; 2164 : 	return (_Copy_impl(_First, _Last,
; 2165 : 		_Dest, _Ptr_cat(_First, _Dest)));

  00004	ff 75 fc	 push	 DWORD PTR __Cat$514493[ebp]
  00007	ff 75 10	 push	 DWORD PTR __Dest$[ebp]
  0000a	ff 75 0c	 push	 DWORD PTR __Last$[ebp]
  0000d	ff 75 08	 push	 DWORD PTR __First$[ebp]
  00010	e8 00 00 00 00	 call	 ??$_Copy_impl@PAV?$basic_string@DU?$char_traits@D@std@@V?$allocator@D@2@@std@@PAV12@@std@@YAPAV?$basic_string@DU?$char_traits@D@std@@V?$allocator@D@2@@0@PAV10@00U_Nonscalar_ptr_iterator_tag@0@@Z ; std::_Copy_impl<std::basic_string<char,std::char_traits<char>,std::allocator<char> > *,std::basic_string<char,std::char_traits<char>,std::allocator<char> > *>
  00015	83 c4 10	 add	 esp, 16			; 00000010H

; 2166 : 	}

  00018	c9		 leave
  00019	c3		 ret	 0
??$_Copy_impl@PAV?$basic_string@DU?$char_traits@D@std@@V?$allocator@D@2@@std@@PAV12@@std@@YAPAV?$basic_string@DU?$char_traits@D@std@@V?$allocator@D@2@@0@PAV10@00@Z ENDP ; std::_Copy_impl<std::basic_string<char,std::char_traits<char>,std::allocator<char> > *,std::basic_string<char,std::char_traits<char>,std::allocator<char> > *>
_TEXT	ENDS
PUBLIC	??$_Move@PAV?$basic_string@DU?$char_traits@D@std@@V?$allocator@D@2@@std@@PAV12@@std@@YAPAV?$basic_string@DU?$char_traits@D@std@@V?$allocator@D@2@@0@PAV10@00U_Nonscalar_ptr_iterator_tag@0@@Z ; std::_Move<std::basic_string<char,std::char_traits<char>,std::allocator<char> > *,std::basic_string<char,std::char_traits<char>,std::allocator<char> > *>
; Function compile flags: /Ogsp
;	COMDAT ??$_Move@PAV?$basic_string@DU?$char_traits@D@std@@V?$allocator@D@2@@std@@PAV12@@std@@YAPAV?$basic_string@DU?$char_traits@D@std@@V?$allocator@D@2@@0@PAV10@00U_Nonscalar_ptr_iterator_tag@0@@Z
_TEXT	SEGMENT
__First$ = 8						; size = 4
__Last$ = 12						; size = 4
__Dest$ = 16						; size = 4
___formal$ = 20						; size = 1
??$_Move@PAV?$basic_string@DU?$char_traits@D@std@@V?$allocator@D@2@@std@@PAV12@@std@@YAPAV?$basic_string@DU?$char_traits@D@std@@V?$allocator@D@2@@0@PAV10@00U_Nonscalar_ptr_iterator_tag@0@@Z PROC ; std::_Move<std::basic_string<char,std::char_traits<char>,std::allocator<char> > *,std::basic_string<char,std::char_traits<char>,std::allocator<char> > *>, COMDAT

; 2512 : 	{	// move [_First, _Last) to [_Dest, ...), arbitrary iterators

  00000	55		 push	 ebp
  00001	8b ec		 mov	 ebp, esp
  00003	56		 push	 esi

; 2513 : 	for (; _First != _Last; ++_Dest, ++_First)

  00004	8b 75 08	 mov	 esi, DWORD PTR __First$[ebp]
  00007	eb 10		 jmp	 SHORT $LN15@Move
$LL3@Move:

; 2514 : 		*_Dest = _STD move(*_First);

  00009	8b 4d 10	 mov	 ecx, DWORD PTR __Dest$[ebp]
  0000c	56		 push	 esi
  0000d	e8 00 00 00 00	 call	 ?assign@?$basic_string@DU?$char_traits@D@std@@V?$allocator@D@2@@std@@QAEAAV12@$$QAV12@@Z ; std::basic_string<char,std::char_traits<char>,std::allocator<char> >::assign
  00012	83 45 10 1c	 add	 DWORD PTR __Dest$[ebp], 28 ; 0000001cH
  00016	83 c6 1c	 add	 esi, 28			; 0000001cH
$LN15@Move:

; 2513 : 	for (; _First != _Last; ++_Dest, ++_First)

  00019	3b 75 0c	 cmp	 esi, DWORD PTR __Last$[ebp]
  0001c	75 eb		 jne	 SHORT $LL3@Move

; 2515 : 	return (_Dest);

  0001e	8b 45 10	 mov	 eax, DWORD PTR __Dest$[ebp]
  00021	5e		 pop	 esi

; 2516 : 	}

  00022	5d		 pop	 ebp
  00023	c3		 ret	 0
??$_Move@PAV?$basic_string@DU?$char_traits@D@std@@V?$allocator@D@2@@std@@PAV12@@std@@YAPAV?$basic_string@DU?$char_traits@D@std@@V?$allocator@D@2@@0@PAV10@00U_Nonscalar_ptr_iterator_tag@0@@Z ENDP ; std::_Move<std::basic_string<char,std::char_traits<char>,std::allocator<char> > *,std::basic_string<char,std::char_traits<char>,std::allocator<char> > *>
_TEXT	ENDS
PUBLIC	??$_Uninit_copy@PAV?$basic_string@DU?$char_traits@D@std@@V?$allocator@D@2@@std@@PAV12@V?$allocator@V?$basic_string@DU?$char_traits@D@std@@V?$allocator@D@2@@std@@@2@@std@@YAPAV?$basic_string@DU?$char_traits@D@std@@V?$allocator@D@2@@0@PAV10@00AAV?$allocator@V?$basic_string@DU?$char_traits@D@std@@V?$allocator@D@2@@std@@@0@U_Nonscalar_ptr_iterator_tag@0@@Z ; std::_Uninit_copy<std::basic_string<char,std::char_traits<char>,std::allocator<char> > *,std::basic_string<char,std::char_traits<char>,std::allocator<char> > *,std::allocator<std::basic_string<char,std::char_traits<char>,std::allocator<char> > > >
;	COMDAT xdata$x
; File c:\program files (x86)\microsoft visual studio 10.0\vc\include\xstring
xdata$x	SEGMENT
__catchsym$??$_Uninit_copy@PAV?$basic_string@DU?$char_traits@D@std@@V?$allocator@D@2@@std@@PAV12@V?$allocator@V?$basic_string@DU?$char_traits@D@std@@V?$allocator@D@2@@std@@@2@@std@@YAPAV?$basic_string@DU?$char_traits@D@std@@V?$allocator@D@2@@0@PAV10@00AAV?$allocator@V?$basic_string@DU?$char_traits@D@std@@V?$allocator@D@2@@std@@@0@U_Nonscalar_ptr_iterator_tag@0@@Z$2 DD 040H
	DD	00H
	DD	00H
	DD	FLAT:__catch$??$_Uninit_copy@PAV?$basic_string@DU?$char_traits@D@std@@V?$allocator@D@2@@std@@PAV12@V?$allocator@V?$basic_string@DU?$char_traits@D@std@@V?$allocator@D@2@@std@@@2@@std@@YAPAV?$basic_string@DU?$char_traits@D@std@@V?$allocator@D@2@@0@PAV10@00AAV?$allocator@V?$basic_string@DU?$char_traits@D@std@@V?$allocator@D@2@@std@@@0@U_Nonscalar_ptr_iterator_tag@0@@Z$0
__unwindtable$??$_Uninit_copy@PAV?$basic_string@DU?$char_traits@D@std@@V?$allocator@D@2@@std@@PAV12@V?$allocator@V?$basic_string@DU?$char_traits@D@std@@V?$allocator@D@2@@std@@@2@@std@@YAPAV?$basic_string@DU?$char_traits@D@std@@V?$allocator@D@2@@0@PAV10@00AAV?$allocator@V?$basic_string@DU?$char_traits@D@std@@V?$allocator@D@2@@std@@@0@U_Nonscalar_ptr_iterator_tag@0@@Z DD 0ffffffffH
	DD	00H
	DD	0ffffffffH
	DD	00H
__tryblocktable$??$_Uninit_copy@PAV?$basic_string@DU?$char_traits@D@std@@V?$allocator@D@2@@std@@PAV12@V?$allocator@V?$basic_string@DU?$char_traits@D@std@@V?$allocator@D@2@@std@@@2@@std@@YAPAV?$basic_string@DU?$char_traits@D@std@@V?$allocator@D@2@@0@PAV10@00AAV?$allocator@V?$basic_string@DU?$char_traits@D@std@@V?$allocator@D@2@@std@@@0@U_Nonscalar_ptr_iterator_tag@0@@Z DD 00H
	DD	00H
	DD	01H
	DD	01H
	DD	FLAT:__catchsym$??$_Uninit_copy@PAV?$basic_string@DU?$char_traits@D@std@@V?$allocator@D@2@@std@@PAV12@V?$allocator@V?$basic_string@DU?$char_traits@D@std@@V?$allocator@D@2@@std@@@2@@std@@YAPAV?$basic_string@DU?$char_traits@D@std@@V?$allocator@D@2@@0@PAV10@00AAV?$allocator@V?$basic_string@DU?$char_traits@D@std@@V?$allocator@D@2@@std@@@0@U_Nonscalar_ptr_iterator_tag@0@@Z$2
__ehfuncinfo$??$_Uninit_copy@PAV?$basic_string@DU?$char_traits@D@std@@V?$allocator@D@2@@std@@PAV12@V?$allocator@V?$basic_string@DU?$char_traits@D@std@@V?$allocator@D@2@@std@@@2@@std@@YAPAV?$basic_string@DU?$char_traits@D@std@@V?$allocator@D@2@@0@PAV10@00AAV?$allocator@V?$basic_string@DU?$char_traits@D@std@@V?$allocator@D@2@@std@@@0@U_Nonscalar_ptr_iterator_tag@0@@Z DD 019930522H
	DD	02H
	DD	FLAT:__unwindtable$??$_Uninit_copy@PAV?$basic_string@DU?$char_traits@D@std@@V?$allocator@D@2@@std@@PAV12@V?$allocator@V?$basic_string@DU?$char_traits@D@std@@V?$allocator@D@2@@std@@@2@@std@@YAPAV?$basic_string@DU?$char_traits@D@std@@V?$allocator@D@2@@0@PAV10@00AAV?$allocator@V?$basic_string@DU?$char_traits@D@std@@V?$allocator@D@2@@std@@@0@U_Nonscalar_ptr_iterator_tag@0@@Z
	DD	01H
	DD	FLAT:__tryblocktable$??$_Uninit_copy@PAV?$basic_string@DU?$char_traits@D@std@@V?$allocator@D@2@@std@@PAV12@V?$allocator@V?$basic_string@DU?$char_traits@D@std@@V?$allocator@D@2@@std@@@2@@std@@YAPAV?$basic_string@DU?$char_traits@D@std@@V?$allocator@D@2@@0@PAV10@00AAV?$allocator@V?$basic_string@DU?$char_traits@D@std@@V?$allocator@D@2@@std@@@0@U_Nonscalar_ptr_iterator_tag@0@@Z
	DD	2 DUP(00H)
	DD	00H
	DD	01H
; Function compile flags: /Ogsp
; File c:\program files (x86)\microsoft visual studio 10.0\vc\include\memory
xdata$x	ENDS
;	COMDAT ??$_Uninit_copy@PAV?$basic_string@DU?$char_traits@D@std@@V?$allocator@D@2@@std@@PAV12@V?$allocator@V?$basic_string@DU?$char_traits@D@std@@V?$allocator@D@2@@std@@@2@@std@@YAPAV?$basic_string@DU?$char_traits@D@std@@V?$allocator@D@2@@0@PAV10@00AAV?$allocator@V?$basic_string@DU?$char_traits@D@std@@V?$allocator@D@2@@std@@@0@U_Nonscalar_ptr_iterator_tag@0@@Z
_TEXT	SEGMENT
__Next$ = -20						; size = 4
__$EHRec$ = -16						; size = 16
__First$ = 8						; size = 4
__Last$ = 12						; size = 4
__Dest$ = 16						; size = 4
__Al$ = 20						; size = 4
___formal$ = 24						; size = 1
??$_Uninit_copy@PAV?$basic_string@DU?$char_traits@D@std@@V?$allocator@D@2@@std@@PAV12@V?$allocator@V?$basic_string@DU?$char_traits@D@std@@V?$allocator@D@2@@std@@@2@@std@@YAPAV?$basic_string@DU?$char_traits@D@std@@V?$allocator@D@2@@0@PAV10@00AAV?$allocator@V?$basic_string@DU?$char_traits@D@std@@V?$allocator@D@2@@std@@@0@U_Nonscalar_ptr_iterator_tag@0@@Z PROC ; std::_Uninit_copy<std::basic_string<char,std::char_traits<char>,std::allocator<char> > *,std::basic_string<char,std::char_traits<char>,std::allocator<char> > *,std::allocator<std::basic_string<char,std::char_traits<char>,std::allocator<char> > > >, COMDAT

; 369  : 	{	// copy [_First, _Last) to raw _Dest, using _Al, arbitrary type

  00000	6a 08		 push	 8
  00002	b8 00 00 00 00	 mov	 eax, __ehhandler$??$_Uninit_copy@PAV?$basic_string@DU?$char_traits@D@std@@V?$allocator@D@2@@std@@PAV12@V?$allocator@V?$basic_string@DU?$char_traits@D@std@@V?$allocator@D@2@@std@@@2@@std@@YAPAV?$basic_string@DU?$char_traits@D@std@@V?$allocator@D@2@@0@PAV10@00AAV?$allocator@V?$basic_string@DU?$char_traits@D@std@@V?$allocator@D@2@@std@@@0@U_Nonscalar_ptr_iterator_tag@0@@Z
  00007	e8 00 00 00 00	 call	 __EH_prolog3_catch

; 370  : 	_DEBUG_RANGE(_First, _Last);
; 371  : 	_DEBUG_POINTER(_Dest);
; 372  : 	_FwdIt _Next = _Dest;

  0000c	8b 45 10	 mov	 eax, DWORD PTR __Dest$[ebp]

; 373  : 
; 374  : 	_TRY_BEGIN

  0000f	83 65 fc 00	 and	 DWORD PTR __$EHRec$[ebp+12], 0
  00013	8b 75 08	 mov	 esi, DWORD PTR __First$[ebp]
  00016	89 45 ec	 mov	 DWORD PTR __Next$[ebp], eax
$LL6@Uninit_cop:

; 375  : 	for (; _First != _Last; ++_Dest, ++_First)

  00019	3b 75 0c	 cmp	 esi, DWORD PTR __Last$[ebp]
  0001c	74 37		 je	 SHORT $LN4@Uninit_cop

; 376  : 		_Cons_val(_Al, _Dest, *_First);

  0001e	56		 push	 esi
  0001f	ff 75 10	 push	 DWORD PTR __Dest$[ebp]
  00022	ff 75 14	 push	 DWORD PTR __Al$[ebp]
  00025	e8 00 00 00 00	 call	 ??$_Cons_val@V?$allocator@V?$basic_string@DU?$char_traits@D@std@@V?$allocator@D@2@@std@@@std@@V?$basic_string@DU?$char_traits@D@std@@V?$allocator@D@2@@2@AAV32@@std@@YAXAAV?$allocator@V?$basic_string@DU?$char_traits@D@std@@V?$allocator@D@2@@std@@@0@PAV?$basic_string@DU?$char_traits@D@std@@V?$allocator@D@2@@0@AAV20@@Z ; std::_Cons_val<std::allocator<std::basic_string<char,std::char_traits<char>,std::allocator<char> > >,std::basic_string<char,std::char_traits<char>,std::allocator<char> >,std::basic_string<char,std::char_traits<char>,std::allocator<char> > &>
  0002a	83 45 10 1c	 add	 DWORD PTR __Dest$[ebp], 28 ; 0000001cH
  0002e	83 c4 0c	 add	 esp, 12			; 0000000cH
  00031	83 c6 1c	 add	 esi, 28			; 0000001cH
  00034	eb e3		 jmp	 SHORT $LL6@Uninit_cop
__catch$??$_Uninit_copy@PAV?$basic_string@DU?$char_traits@D@std@@V?$allocator@D@2@@std@@PAV12@V?$allocator@V?$basic_string@DU?$char_traits@D@std@@V?$allocator@D@2@@std@@@2@@std@@YAPAV?$basic_string@DU?$char_traits@D@std@@V?$allocator@D@2@@0@PAV10@00AAV?$allocator@V?$basic_string@DU?$char_traits@D@std@@V?$allocator@D@2@@std@@@0@U_Nonscalar_ptr_iterator_tag@0@@Z$0:

; 377  : 	_CATCH_ALL
; 378  : 	for (; _Next != _Dest; ++_Next)

  00036	8b 75 ec	 mov	 esi, DWORD PTR __Next$[ebp]
  00039	eb 0c		 jmp	 SHORT $LN34@Uninit_cop
$LL3@Uninit_cop:

; 379  : 		_Dest_val(_Al, _Next);

  0003b	6a 01		 push	 1
  0003d	8b ce		 mov	 ecx, esi
  0003f	e8 00 00 00 00	 call	 ?_Tidy@?$basic_string@DU?$char_traits@D@std@@V?$allocator@D@2@@std@@QAEX_NI@Z ; std::basic_string<char,std::char_traits<char>,std::allocator<char> >::_Tidy
  00044	83 c6 1c	 add	 esi, 28			; 0000001cH
$LN34@Uninit_cop:

; 380  : 	_RERAISE;

  00047	6a 00		 push	 0
  00049	3b 75 10	 cmp	 esi, DWORD PTR __Dest$[ebp]
  0004c	75 ed		 jne	 SHORT $LL3@Uninit_cop
  0004e	6a 00		 push	 0
  00050	e8 00 00 00 00	 call	 __CxxThrowException@8
$LN35@Uninit_cop:
$LN4@Uninit_cop:

; 381  : 	_CATCH_END
; 382  : 	return (_Dest);

  00055	8b 45 10	 mov	 eax, DWORD PTR __Dest$[ebp]

; 383  : 	}

  00058	e8 00 00 00 00	 call	 __EH_epilog3
  0005d	c3		 ret	 0
$LN33@Uninit_cop:
_TEXT	ENDS
;	COMDAT text$x
text$x	SEGMENT
__ehhandler$??$_Uninit_copy@PAV?$basic_string@DU?$char_traits@D@std@@V?$allocator@D@2@@std@@PAV12@V?$allocator@V?$basic_string@DU?$char_traits@D@std@@V?$allocator@D@2@@std@@@2@@std@@YAPAV?$basic_string@DU?$char_traits@D@std@@V?$allocator@D@2@@0@PAV10@00AAV?$allocator@V?$basic_string@DU?$char_traits@D@std@@V?$allocator@D@2@@std@@@0@U_Nonscalar_ptr_iterator_tag@0@@Z:
  00000	8b 54 24 08	 mov	 edx, DWORD PTR [esp+8]
  00004	8d 42 0c	 lea	 eax, DWORD PTR [edx+12]
  00007	8b 4a e8	 mov	 ecx, DWORD PTR [edx-24]
  0000a	33 c8		 xor	 ecx, eax
  0000c	e8 00 00 00 00	 call	 @__security_check_cookie@4
  00011	b8 00 00 00 00	 mov	 eax, OFFSET __ehfuncinfo$??$_Uninit_copy@PAV?$basic_string@DU?$char_traits@D@std@@V?$allocator@D@2@@std@@PAV12@V?$allocator@V?$basic_string@DU?$char_traits@D@std@@V?$allocator@D@2@@std@@@2@@std@@YAPAV?$basic_string@DU?$char_traits@D@std@@V?$allocator@D@2@@0@PAV10@00AAV?$allocator@V?$basic_string@DU?$char_traits@D@std@@V?$allocator@D@2@@std@@@0@U_Nonscalar_ptr_iterator_tag@0@@Z
  00016	e9 00 00 00 00	 jmp	 ___CxxFrameHandler3
text$x	ENDS
??$_Uninit_copy@PAV?$basic_string@DU?$char_traits@D@std@@V?$allocator@D@2@@std@@PAV12@V?$allocator@V?$basic_string@DU?$char_traits@D@std@@V?$allocator@D@2@@std@@@2@@std@@YAPAV?$basic_string@DU?$char_traits@D@std@@V?$allocator@D@2@@0@PAV10@00AAV?$allocator@V?$basic_string@DU?$char_traits@D@std@@V?$allocator@D@2@@std@@@0@U_Nonscalar_ptr_iterator_tag@0@@Z ENDP ; std::_Uninit_copy<std::basic_string<char,std::char_traits<char>,std::allocator<char> > *,std::basic_string<char,std::char_traits<char>,std::allocator<char> > *,std::allocator<std::basic_string<char,std::char_traits<char>,std::allocator<char> > > >
PUBLIC	??$_Destroy_range@V?$allocator@V?$basic_string@DU?$char_traits@D@std@@V?$allocator@D@2@@std@@@std@@@std@@YAXPAV?$basic_string@DU?$char_traits@D@std@@V?$allocator@D@2@@0@0AAV?$allocator@V?$basic_string@DU?$char_traits@D@std@@V?$allocator@D@2@@std@@@0@@Z ; std::_Destroy_range<std::allocator<std::basic_string<char,std::char_traits<char>,std::allocator<char> > > >
; Function compile flags: /Ogsp
; File c:\program files (x86)\microsoft visual studio 10.0\vc\include\xmemory
;	COMDAT ??$_Destroy_range@V?$allocator@V?$basic_string@DU?$char_traits@D@std@@V?$allocator@D@2@@std@@@std@@@std@@YAXPAV?$basic_string@DU?$char_traits@D@std@@V?$allocator@D@2@@0@0AAV?$allocator@V?$basic_string@DU?$char_traits@D@std@@V?$allocator@D@2@@std@@@0@@Z
_TEXT	SEGMENT
__Cat$514591 = -4					; size = 1
__First$ = 8						; size = 4
__Last$ = 12						; size = 4
__Al$ = 16						; size = 4
??$_Destroy_range@V?$allocator@V?$basic_string@DU?$char_traits@D@std@@V?$allocator@D@2@@std@@@std@@@std@@YAXPAV?$basic_string@DU?$char_traits@D@std@@V?$allocator@D@2@@0@0AAV?$allocator@V?$basic_string@DU?$char_traits@D@std@@V?$allocator@D@2@@std@@@0@@Z PROC ; std::_Destroy_range<std::allocator<std::basic_string<char,std::char_traits<char>,std::allocator<char> > > >, COMDAT

; 87   : 	{	// destroy [_First, _Last)

  00000	55		 push	 ebp
  00001	8b ec		 mov	 ebp, esp
  00003	51		 push	 ecx

; 88   : 	_Destroy_range(_First, _Last, _Al, _Ptr_cat(_First, _Last));

  00004	ff 75 fc	 push	 DWORD PTR __Cat$514591[ebp]
  00007	ff 75 10	 push	 DWORD PTR __Al$[ebp]
  0000a	ff 75 0c	 push	 DWORD PTR __Last$[ebp]
  0000d	ff 75 08	 push	 DWORD PTR __First$[ebp]
  00010	e8 00 00 00 00	 call	 ??$_Destroy_range@V?$allocator@V?$basic_string@DU?$char_traits@D@std@@V?$allocator@D@2@@std@@@std@@@std@@YAXPAV?$basic_string@DU?$char_traits@D@std@@V?$allocator@D@2@@0@0AAV?$allocator@V?$basic_string@DU?$char_traits@D@std@@V?$allocator@D@2@@std@@@0@U_Nonscalar_ptr_iterator_tag@0@@Z ; std::_Destroy_range<std::allocator<std::basic_string<char,std::char_traits<char>,std::allocator<char> > > >
  00015	83 c4 10	 add	 esp, 16			; 00000010H

; 89   : 	}

  00018	c9		 leave
  00019	c3		 ret	 0
??$_Destroy_range@V?$allocator@V?$basic_string@DU?$char_traits@D@std@@V?$allocator@D@2@@std@@@std@@@std@@YAXPAV?$basic_string@DU?$char_traits@D@std@@V?$allocator@D@2@@0@0AAV?$allocator@V?$basic_string@DU?$char_traits@D@std@@V?$allocator@D@2@@std@@@0@@Z ENDP ; std::_Destroy_range<std::allocator<std::basic_string<char,std::char_traits<char>,std::allocator<char> > > >
_TEXT	ENDS
PUBLIC	??$_Move@PAV?$basic_string@DU?$char_traits@D@std@@V?$allocator@D@2@@std@@PAV12@@std@@YAPAV?$basic_string@DU?$char_traits@D@std@@V?$allocator@D@2@@0@PAV10@00@Z ; std::_Move<std::basic_string<char,std::char_traits<char>,std::allocator<char> > *,std::basic_string<char,std::char_traits<char>,std::allocator<char> > *>
; Function compile flags: /Ogsp
; File c:\program files (x86)\microsoft visual studio 10.0\vc\include\xutility
;	COMDAT ??$_Move@PAV?$basic_string@DU?$char_traits@D@std@@V?$allocator@D@2@@std@@PAV12@@std@@YAPAV?$basic_string@DU?$char_traits@D@std@@V?$allocator@D@2@@0@PAV10@00@Z
_TEXT	SEGMENT
__Cat$514598 = -4					; size = 1
__First$ = 8						; size = 4
__Last$ = 12						; size = 4
__Dest$ = 16						; size = 4
??$_Move@PAV?$basic_string@DU?$char_traits@D@std@@V?$allocator@D@2@@std@@PAV12@@std@@YAPAV?$basic_string@DU?$char_traits@D@std@@V?$allocator@D@2@@0@PAV10@00@Z PROC ; std::_Move<std::basic_string<char,std::char_traits<char>,std::allocator<char> > *,std::basic_string<char,std::char_traits<char>,std::allocator<char> > *>, COMDAT

; 2533 : 	{	// move [_First, _Last) to [_Dest, ...), unchecked

  00000	55		 push	 ebp
  00001	8b ec		 mov	 ebp, esp
  00003	51		 push	 ecx

; 2534 : 	return (_Move(_First, _Last,
; 2535 : 		_Dest, _Ptr_cat(_First, _Dest)));

  00004	ff 75 fc	 push	 DWORD PTR __Cat$514598[ebp]
  00007	ff 75 10	 push	 DWORD PTR __Dest$[ebp]
  0000a	ff 75 0c	 push	 DWORD PTR __Last$[ebp]
  0000d	ff 75 08	 push	 DWORD PTR __First$[ebp]
  00010	e8 00 00 00 00	 call	 ??$_Move@PAV?$basic_string@DU?$char_traits@D@std@@V?$allocator@D@2@@std@@PAV12@@std@@YAPAV?$basic_string@DU?$char_traits@D@std@@V?$allocator@D@2@@0@PAV10@00U_Nonscalar_ptr_iterator_tag@0@@Z ; std::_Move<std::basic_string<char,std::char_traits<char>,std::allocator<char> > *,std::basic_string<char,std::char_traits<char>,std::allocator<char> > *>
  00015	83 c4 10	 add	 esp, 16			; 00000010H

; 2536 : 	}

  00018	c9		 leave
  00019	c3		 ret	 0
??$_Move@PAV?$basic_string@DU?$char_traits@D@std@@V?$allocator@D@2@@std@@PAV12@@std@@YAPAV?$basic_string@DU?$char_traits@D@std@@V?$allocator@D@2@@0@PAV10@00@Z ENDP ; std::_Move<std::basic_string<char,std::char_traits<char>,std::allocator<char> > *,std::basic_string<char,std::char_traits<char>,std::allocator<char> > *>
_TEXT	ENDS
PUBLIC	??$_Uninitialized_copy@PAV?$basic_string@DU?$char_traits@D@std@@V?$allocator@D@2@@std@@PAV12@V?$allocator@V?$basic_string@DU?$char_traits@D@std@@V?$allocator@D@2@@std@@@2@@std@@YAPAV?$basic_string@DU?$char_traits@D@std@@V?$allocator@D@2@@0@PAV10@00AAV?$allocator@V?$basic_string@DU?$char_traits@D@std@@V?$allocator@D@2@@std@@@0@@Z ; std::_Uninitialized_copy<std::basic_string<char,std::char_traits<char>,std::allocator<char> > *,std::basic_string<char,std::char_traits<char>,std::allocator<char> > *,std::allocator<std::basic_string<char,std::char_traits<char>,std::allocator<char> > > >
; Function compile flags: /Ogsp
; File c:\program files (x86)\microsoft visual studio 10.0\vc\include\memory
;	COMDAT ??$_Uninitialized_copy@PAV?$basic_string@DU?$char_traits@D@std@@V?$allocator@D@2@@std@@PAV12@V?$allocator@V?$basic_string@DU?$char_traits@D@std@@V?$allocator@D@2@@std@@@2@@std@@YAPAV?$basic_string@DU?$char_traits@D@std@@V?$allocator@D@2@@0@PAV10@00AAV?$allocator@V?$basic_string@DU?$char_traits@D@std@@V?$allocator@D@2@@std@@@0@@Z
_TEXT	SEGMENT
__Cat$514605 = -4					; size = 1
__First$ = 8						; size = 4
__Last$ = 12						; size = 4
__Dest$ = 16						; size = 4
__Al$ = 20						; size = 4
??$_Uninitialized_copy@PAV?$basic_string@DU?$char_traits@D@std@@V?$allocator@D@2@@std@@PAV12@V?$allocator@V?$basic_string@DU?$char_traits@D@std@@V?$allocator@D@2@@std@@@2@@std@@YAPAV?$basic_string@DU?$char_traits@D@std@@V?$allocator@D@2@@0@PAV10@00AAV?$allocator@V?$basic_string@DU?$char_traits@D@std@@V?$allocator@D@2@@std@@@0@@Z PROC ; std::_Uninitialized_copy<std::basic_string<char,std::char_traits<char>,std::allocator<char> > *,std::basic_string<char,std::char_traits<char>,std::allocator<char> > *,std::allocator<std::basic_string<char,std::char_traits<char>,std::allocator<char> > > >, COMDAT

; 412  : 	{	// copy [_First, _Last) to raw _Dest, using _Al

  00000	55		 push	 ebp
  00001	8b ec		 mov	 ebp, esp
  00003	51		 push	 ecx

; 413  : 	return (_Uninit_copy(_First, _Last, _Dest, _Al,
; 414  : 		_Ptr_cat(_First, _Dest)));

  00004	ff 75 fc	 push	 DWORD PTR __Cat$514605[ebp]
  00007	ff 75 14	 push	 DWORD PTR __Al$[ebp]
  0000a	ff 75 10	 push	 DWORD PTR __Dest$[ebp]
  0000d	ff 75 0c	 push	 DWORD PTR __Last$[ebp]
  00010	ff 75 08	 push	 DWORD PTR __First$[ebp]
  00013	e8 00 00 00 00	 call	 ??$_Uninit_copy@PAV?$basic_string@DU?$char_traits@D@std@@V?$allocator@D@2@@std@@PAV12@V?$allocator@V?$basic_string@DU?$char_traits@D@std@@V?$allocator@D@2@@std@@@2@@std@@YAPAV?$basic_string@DU?$char_traits@D@std@@V?$allocator@D@2@@0@PAV10@00AAV?$allocator@V?$basic_string@DU?$char_traits@D@std@@V?$allocator@D@2@@std@@@0@U_Nonscalar_ptr_iterator_tag@0@@Z ; std::_Uninit_copy<std::basic_string<char,std::char_traits<char>,std::allocator<char> > *,std::basic_string<char,std::char_traits<char>,std::allocator<char> > *,std::allocator<std::basic_string<char,std::char_traits<char>,std::allocator<char> > > >
  00018	83 c4 14	 add	 esp, 20			; 00000014H

; 415  : 	}

  0001b	c9		 leave
  0001c	c3		 ret	 0
??$_Uninitialized_copy@PAV?$basic_string@DU?$char_traits@D@std@@V?$allocator@D@2@@std@@PAV12@V?$allocator@V?$basic_string@DU?$char_traits@D@std@@V?$allocator@D@2@@std@@@2@@std@@YAPAV?$basic_string@DU?$char_traits@D@std@@V?$allocator@D@2@@0@PAV10@00AAV?$allocator@V?$basic_string@DU?$char_traits@D@std@@V?$allocator@D@2@@std@@@0@@Z ENDP ; std::_Uninitialized_copy<std::basic_string<char,std::char_traits<char>,std::allocator<char> > *,std::basic_string<char,std::char_traits<char>,std::allocator<char> > *,std::allocator<std::basic_string<char,std::char_traits<char>,std::allocator<char> > > >
_TEXT	ENDS
PUBLIC	?_Destroy@?$vector@V?$basic_string@DU?$char_traits@D@std@@V?$allocator@D@2@@std@@V?$allocator@V?$basic_string@DU?$char_traits@D@std@@V?$allocator@D@2@@std@@@2@@std@@IAEXPAV?$basic_string@DU?$char_traits@D@std@@V?$allocator@D@2@@2@0@Z ; std::vector<std::basic_string<char,std::char_traits<char>,std::allocator<char> >,std::allocator<std::basic_string<char,std::char_traits<char>,std::allocator<char> > > >::_Destroy
; Function compile flags: /Ogsp
; File c:\program files (x86)\microsoft visual studio 10.0\vc\include\vector
;	COMDAT ?_Destroy@?$vector@V?$basic_string@DU?$char_traits@D@std@@V?$allocator@D@2@@std@@V?$allocator@V?$basic_string@DU?$char_traits@D@std@@V?$allocator@D@2@@std@@@2@@std@@IAEXPAV?$basic_string@DU?$char_traits@D@std@@V?$allocator@D@2@@2@0@Z
_TEXT	SEGMENT
__First$ = 8						; size = 4
__Cat$514619 = 12					; size = 1
__Last$ = 12						; size = 4
?_Destroy@?$vector@V?$basic_string@DU?$char_traits@D@std@@V?$allocator@D@2@@std@@V?$allocator@V?$basic_string@DU?$char_traits@D@std@@V?$allocator@D@2@@std@@@2@@std@@IAEXPAV?$basic_string@DU?$char_traits@D@std@@V?$allocator@D@2@@2@0@Z PROC ; std::vector<std::basic_string<char,std::char_traits<char>,std::allocator<char> >,std::allocator<std::basic_string<char,std::char_traits<char>,std::allocator<char> > > >::_Destroy, COMDAT
; _this$ = ecx

; 1269 : 		{	// destroy [_First, _Last) using allocator

  00000	55		 push	 ebp
  00001	8b ec		 mov	 ebp, esp

; 1270 : 		_Destroy_range(_First, _Last, this->_Alval);

  00003	ff 75 0c	 push	 DWORD PTR __Cat$514619[ebp]
  00006	83 c1 0c	 add	 ecx, 12			; 0000000cH
  00009	51		 push	 ecx
  0000a	ff 75 0c	 push	 DWORD PTR __Last$[ebp]
  0000d	ff 75 08	 push	 DWORD PTR __First$[ebp]
  00010	e8 00 00 00 00	 call	 ??$_Destroy_range@V?$allocator@V?$basic_string@DU?$char_traits@D@std@@V?$allocator@D@2@@std@@@std@@@std@@YAXPAV?$basic_string@DU?$char_traits@D@std@@V?$allocator@D@2@@0@0AAV?$allocator@V?$basic_string@DU?$char_traits@D@std@@V?$allocator@D@2@@std@@@0@U_Nonscalar_ptr_iterator_tag@0@@Z ; std::_Destroy_range<std::allocator<std::basic_string<char,std::char_traits<char>,std::allocator<char> > > >
  00015	83 c4 10	 add	 esp, 16			; 00000010H

; 1271 : 		}

  00018	5d		 pop	 ebp
  00019	c2 08 00	 ret	 8
?_Destroy@?$vector@V?$basic_string@DU?$char_traits@D@std@@V?$allocator@D@2@@std@@V?$allocator@V?$basic_string@DU?$char_traits@D@std@@V?$allocator@D@2@@std@@@2@@std@@IAEXPAV?$basic_string@DU?$char_traits@D@std@@V?$allocator@D@2@@2@0@Z ENDP ; std::vector<std::basic_string<char,std::char_traits<char>,std::allocator<char> >,std::allocator<std::basic_string<char,std::char_traits<char>,std::allocator<char> > > >::_Destroy
_TEXT	ENDS
PUBLIC	?erase@?$vector@V?$basic_string@DU?$char_traits@D@std@@V?$allocator@D@2@@std@@V?$allocator@V?$basic_string@DU?$char_traits@D@std@@V?$allocator@D@2@@std@@@2@@std@@QAE?AV?$_Vector_iterator@V?$_Vector_val@V?$basic_string@DU?$char_traits@D@std@@V?$allocator@D@2@@std@@V?$allocator@V?$basic_string@DU?$char_traits@D@std@@V?$allocator@D@2@@std@@@2@@std@@@2@V?$_Vector_const_iterator@V?$_Vector_val@V?$basic_string@DU?$char_traits@D@std@@V?$allocator@D@2@@std@@V?$allocator@V?$basic_string@DU?$char_traits@D@std@@V?$allocator@D@2@@std@@@2@@std@@@2@0@Z ; std::vector<std::basic_string<char,std::char_traits<char>,std::allocator<char> >,std::allocator<std::basic_string<char,std::char_traits<char>,std::allocator<char> > > >::erase
; Function compile flags: /Ogsp
;	COMDAT ?erase@?$vector@V?$basic_string@DU?$char_traits@D@std@@V?$allocator@D@2@@std@@V?$allocator@V?$basic_string@DU?$char_traits@D@std@@V?$allocator@D@2@@std@@@2@@std@@QAE?AV?$_Vector_iterator@V?$_Vector_val@V?$basic_string@DU?$char_traits@D@std@@V?$allocator@D@2@@std@@V?$allocator@V?$basic_string@DU?$char_traits@D@std@@V?$allocator@D@2@@std@@@2@@std@@@2@V?$_Vector_const_iterator@V?$_Vector_val@V?$basic_string@DU?$char_traits@D@std@@V?$allocator@D@2@@std@@V?$allocator@V?$basic_string@DU?$char_traits@D@std@@V?$allocator@D@2@@std@@@2@@std@@@2@0@Z
_TEXT	SEGMENT
___$ReturnUdt$ = 8					; size = 4
__First_arg$ = 12					; size = 4
__Cat$514720 = 16					; size = 1
__Cat$514695 = 16					; size = 1
__Last_arg$ = 16					; size = 4
?erase@?$vector@V?$basic_string@DU?$char_traits@D@std@@V?$allocator@D@2@@std@@V?$allocator@V?$basic_string@DU?$char_traits@D@std@@V?$allocator@D@2@@std@@@2@@std@@QAE?AV?$_Vector_iterator@V?$_Vector_val@V?$basic_string@DU?$char_traits@D@std@@V?$allocator@D@2@@std@@V?$allocator@V?$basic_string@DU?$char_traits@D@std@@V?$allocator@D@2@@std@@@2@@std@@@2@V?$_Vector_const_iterator@V?$_Vector_val@V?$basic_string@DU?$char_traits@D@std@@V?$allocator@D@2@@std@@V?$allocator@V?$basic_string@DU?$char_traits@D@std@@V?$allocator@D@2@@std@@@2@@std@@@2@0@Z PROC ; std::vector<std::basic_string<char,std::char_traits<char>,std::allocator<char> >,std::allocator<std::basic_string<char,std::char_traits<char>,std::allocator<char> > > >::erase, COMDAT
; _this$ = ecx

; 1190 : 		{	// erase [_First, _Last)

  00000	55		 push	 ebp
  00001	8b ec		 mov	 ebp, esp

; 1191 : 		iterator _First = _Make_iter(_First_arg);

  00003	8b 45 0c	 mov	 eax, DWORD PTR __First_arg$[ebp]
  00006	53		 push	 ebx
  00007	8b 5d 08	 mov	 ebx, DWORD PTR ___$ReturnUdt$[ebp]
  0000a	56		 push	 esi
  0000b	8b f1		 mov	 esi, ecx
  0000d	89 03		 mov	 DWORD PTR [ebx], eax

; 1192 : 		iterator _Last = _Make_iter(_Last_arg);
; 1193 : 
; 1194 : 		if (_First != _Last)

  0000f	3b 45 10	 cmp	 eax, DWORD PTR __Last_arg$[ebp]
  00012	74 2a		 je	 SHORT $LN1@erase@4

; 1195 : 			{	// worth doing, copy down over hole
; 1196 :  #if _ITERATOR_DEBUG_LEVEL == 2
; 1197 : 			if (_Last < _First || _VICONT(_First) != this
; 1198 : 				|| _VIPTR(_First) < this->_Myfirst
; 1199 : 				|| this->_Mylast < _VIPTR(_Last))
; 1200 : 				_DEBUG_ERROR("vector erase iterator outside range");
; 1201 : 			pointer _Ptr = _Move(_VIPTR(_Last), this->_Mylast,
; 1202 : 				_VIPTR(_First));
; 1203 : 			_Orphan_range(_VIPTR(_First), this->_Mylast);
; 1204 : 
; 1205 :  #else /* _ITERATOR_DEBUG_LEVEL == 2 */
; 1206 : 			pointer _Ptr = _Move(_VIPTR(_Last), this->_Mylast,
; 1207 : 				_VIPTR(_First));

  00014	8b 4e 04	 mov	 ecx, DWORD PTR [esi+4]
  00017	57		 push	 edi
  00018	ff 75 10	 push	 DWORD PTR __Cat$514695[ebp]
  0001b	50		 push	 eax
  0001c	51		 push	 ecx
  0001d	ff 75 10	 push	 DWORD PTR __Last_arg$[ebp]
  00020	e8 00 00 00 00	 call	 ??$_Move@PAV?$basic_string@DU?$char_traits@D@std@@V?$allocator@D@2@@std@@PAV12@@std@@YAPAV?$basic_string@DU?$char_traits@D@std@@V?$allocator@D@2@@0@PAV10@00U_Nonscalar_ptr_iterator_tag@0@@Z ; std::_Move<std::basic_string<char,std::char_traits<char>,std::allocator<char> > *,std::basic_string<char,std::char_traits<char>,std::allocator<char> > *>

; 1208 :  #endif /* _ITERATOR_DEBUG_LEVEL == 2 */
; 1209 : 
; 1210 : 			_Destroy(_Ptr, this->_Mylast);

  00025	ff 75 10	 push	 DWORD PTR __Cat$514720[ebp]
  00028	8b f8		 mov	 edi, eax
  0002a	8d 46 0c	 lea	 eax, DWORD PTR [esi+12]
  0002d	50		 push	 eax
  0002e	ff 76 04	 push	 DWORD PTR [esi+4]
  00031	57		 push	 edi
  00032	e8 00 00 00 00	 call	 ??$_Destroy_range@V?$allocator@V?$basic_string@DU?$char_traits@D@std@@V?$allocator@D@2@@std@@@std@@@std@@YAXPAV?$basic_string@DU?$char_traits@D@std@@V?$allocator@D@2@@0@0AAV?$allocator@V?$basic_string@DU?$char_traits@D@std@@V?$allocator@D@2@@std@@@0@U_Nonscalar_ptr_iterator_tag@0@@Z ; std::_Destroy_range<std::allocator<std::basic_string<char,std::char_traits<char>,std::allocator<char> > > >
  00037	83 c4 20	 add	 esp, 32			; 00000020H

; 1211 : 			this->_Mylast = _Ptr;

  0003a	89 7e 04	 mov	 DWORD PTR [esi+4], edi
  0003d	5f		 pop	 edi
$LN1@erase@4:

; 1212 : 			}
; 1213 : 		return (_First);

  0003e	5e		 pop	 esi
  0003f	8b c3		 mov	 eax, ebx
  00041	5b		 pop	 ebx

; 1214 : 		}

  00042	5d		 pop	 ebp
  00043	c2 0c 00	 ret	 12			; 0000000cH
?erase@?$vector@V?$basic_string@DU?$char_traits@D@std@@V?$allocator@D@2@@std@@V?$allocator@V?$basic_string@DU?$char_traits@D@std@@V?$allocator@D@2@@std@@@2@@std@@QAE?AV?$_Vector_iterator@V?$_Vector_val@V?$basic_string@DU?$char_traits@D@std@@V?$allocator@D@2@@std@@V?$allocator@V?$basic_string@DU?$char_traits@D@std@@V?$allocator@D@2@@std@@@2@@std@@@2@V?$_Vector_const_iterator@V?$_Vector_val@V?$basic_string@DU?$char_traits@D@std@@V?$allocator@D@2@@std@@V?$allocator@V?$basic_string@DU?$char_traits@D@std@@V?$allocator@D@2@@std@@@2@@std@@@2@0@Z ENDP ; std::vector<std::basic_string<char,std::char_traits<char>,std::allocator<char> >,std::allocator<std::basic_string<char,std::char_traits<char>,std::allocator<char> > > >::erase
_TEXT	ENDS
PUBLIC	??$_Ucopy@PAV?$basic_string@DU?$char_traits@D@std@@V?$allocator@D@2@@std@@@?$vector@V?$basic_string@DU?$char_traits@D@std@@V?$allocator@D@2@@std@@V?$allocator@V?$basic_string@DU?$char_traits@D@std@@V?$allocator@D@2@@std@@@2@@std@@IAEPAV?$basic_string@DU?$char_traits@D@std@@V?$allocator@D@2@@1@PAV21@00@Z ; std::vector<std::basic_string<char,std::char_traits<char>,std::allocator<char> >,std::allocator<std::basic_string<char,std::char_traits<char>,std::allocator<char> > > >::_Ucopy<std::basic_string<char,std::char_traits<char>,std::allocator<char> > *>
; Function compile flags: /Ogsp
;	COMDAT ??$_Ucopy@PAV?$basic_string@DU?$char_traits@D@std@@V?$allocator@D@2@@std@@@?$vector@V?$basic_string@DU?$char_traits@D@std@@V?$allocator@D@2@@std@@V?$allocator@V?$basic_string@DU?$char_traits@D@std@@V?$allocator@D@2@@std@@@2@@std@@IAEPAV?$basic_string@DU?$char_traits@D@std@@V?$allocator@D@2@@1@PAV21@00@Z
_TEXT	SEGMENT
__First$ = 8						; size = 4
__Last$ = 12						; size = 4
__Cat$514735 = 16					; size = 1
__Ptr$ = 16						; size = 4
??$_Ucopy@PAV?$basic_string@DU?$char_traits@D@std@@V?$allocator@D@2@@std@@@?$vector@V?$basic_string@DU?$char_traits@D@std@@V?$allocator@D@2@@std@@V?$allocator@V?$basic_string@DU?$char_traits@D@std@@V?$allocator@D@2@@std@@@2@@std@@IAEPAV?$basic_string@DU?$char_traits@D@std@@V?$allocator@D@2@@1@PAV21@00@Z PROC ; std::vector<std::basic_string<char,std::char_traits<char>,std::allocator<char> >,std::allocator<std::basic_string<char,std::char_traits<char>,std::allocator<char> > > >::_Ucopy<std::basic_string<char,std::char_traits<char>,std::allocator<char> > *>, COMDAT
; _this$ = ecx

; 1315 : 		pointer _Ucopy(_Iter _First, _Iter _Last, pointer _Ptr)

  00000	55		 push	 ebp
  00001	8b ec		 mov	 ebp, esp

; 1316 : 		{	// copy initializing [_First, _Last), using allocator
; 1317 : 		return (_Uninitialized_copy(_First, _Last,
; 1318 : 			_Ptr, this->_Alval));

  00003	ff 75 10	 push	 DWORD PTR __Cat$514735[ebp]
  00006	83 c1 0c	 add	 ecx, 12			; 0000000cH
  00009	51		 push	 ecx
  0000a	ff 75 10	 push	 DWORD PTR __Ptr$[ebp]
  0000d	ff 75 0c	 push	 DWORD PTR __Last$[ebp]
  00010	ff 75 08	 push	 DWORD PTR __First$[ebp]
  00013	e8 00 00 00 00	 call	 ??$_Uninit_copy@PAV?$basic_string@DU?$char_traits@D@std@@V?$allocator@D@2@@std@@PAV12@V?$allocator@V?$basic_string@DU?$char_traits@D@std@@V?$allocator@D@2@@std@@@2@@std@@YAPAV?$basic_string@DU?$char_traits@D@std@@V?$allocator@D@2@@0@PAV10@00AAV?$allocator@V?$basic_string@DU?$char_traits@D@std@@V?$allocator@D@2@@std@@@0@U_Nonscalar_ptr_iterator_tag@0@@Z ; std::_Uninit_copy<std::basic_string<char,std::char_traits<char>,std::allocator<char> > *,std::basic_string<char,std::char_traits<char>,std::allocator<char> > *,std::allocator<std::basic_string<char,std::char_traits<char>,std::allocator<char> > > >
  00018	83 c4 14	 add	 esp, 20			; 00000014H

; 1319 : 		}

  0001b	5d		 pop	 ebp
  0001c	c2 0c 00	 ret	 12			; 0000000cH
??$_Ucopy@PAV?$basic_string@DU?$char_traits@D@std@@V?$allocator@D@2@@std@@@?$vector@V?$basic_string@DU?$char_traits@D@std@@V?$allocator@D@2@@std@@V?$allocator@V?$basic_string@DU?$char_traits@D@std@@V?$allocator@D@2@@std@@@2@@std@@IAEPAV?$basic_string@DU?$char_traits@D@std@@V?$allocator@D@2@@1@PAV21@00@Z ENDP ; std::vector<std::basic_string<char,std::char_traits<char>,std::allocator<char> >,std::allocator<std::basic_string<char,std::char_traits<char>,std::allocator<char> > > >::_Ucopy<std::basic_string<char,std::char_traits<char>,std::allocator<char> > *>
_TEXT	ENDS
PUBLIC	?_Tidy@?$vector@V?$basic_string@DU?$char_traits@D@std@@V?$allocator@D@2@@std@@V?$allocator@V?$basic_string@DU?$char_traits@D@std@@V?$allocator@D@2@@std@@@2@@std@@IAEXXZ ; std::vector<std::basic_string<char,std::char_traits<char>,std::allocator<char> >,std::allocator<std::basic_string<char,std::char_traits<char>,std::allocator<char> > > >::_Tidy
; Function compile flags: /Ogsp
;	COMDAT ?_Tidy@?$vector@V?$basic_string@DU?$char_traits@D@std@@V?$allocator@D@2@@std@@V?$allocator@V?$basic_string@DU?$char_traits@D@std@@V?$allocator@D@2@@std@@@2@@std@@IAEXXZ
_TEXT	SEGMENT
__Cat$514758 = -4					; size = 1
?_Tidy@?$vector@V?$basic_string@DU?$char_traits@D@std@@V?$allocator@D@2@@std@@V?$allocator@V?$basic_string@DU?$char_traits@D@std@@V?$allocator@D@2@@std@@@2@@std@@IAEXXZ PROC ; std::vector<std::basic_string<char,std::char_traits<char>,std::allocator<char> >,std::allocator<std::basic_string<char,std::char_traits<char>,std::allocator<char> > > >::_Tidy, COMDAT
; _this$ = ecx

; 1301 : 		{	// free all storage

  00000	55		 push	 ebp
  00001	8b ec		 mov	 ebp, esp
  00003	51		 push	 ecx
  00004	56		 push	 esi
  00005	8b f1		 mov	 esi, ecx

; 1302 : 		if (this->_Myfirst != 0)

  00007	83 3e 00	 cmp	 DWORD PTR [esi], 0
  0000a	74 21		 je	 SHORT $LN10@Tidy@5

; 1303 : 			{	// something to free, destroy and deallocate it
; 1304 : 			this->_Orphan_all();

  0000c	ff 15 00 00 00
	00		 call	 DWORD PTR __imp_?_Orphan_all@_Container_base0@std@@QAEXXZ

; 1305 : 			_Destroy(this->_Myfirst, this->_Mylast);

  00012	ff 75 fc	 push	 DWORD PTR __Cat$514758[ebp]
  00015	8d 46 0c	 lea	 eax, DWORD PTR [esi+12]
  00018	50		 push	 eax
  00019	ff 76 04	 push	 DWORD PTR [esi+4]
  0001c	ff 36		 push	 DWORD PTR [esi]
  0001e	e8 00 00 00 00	 call	 ??$_Destroy_range@V?$allocator@V?$basic_string@DU?$char_traits@D@std@@V?$allocator@D@2@@std@@@std@@@std@@YAXPAV?$basic_string@DU?$char_traits@D@std@@V?$allocator@D@2@@0@0AAV?$allocator@V?$basic_string@DU?$char_traits@D@std@@V?$allocator@D@2@@std@@@0@U_Nonscalar_ptr_iterator_tag@0@@Z ; std::_Destroy_range<std::allocator<std::basic_string<char,std::char_traits<char>,std::allocator<char> > > >

; 1306 : 			this->_Alval.deallocate(this->_Myfirst,
; 1307 : 				this->_Myend - this->_Myfirst);

  00023	ff 36		 push	 DWORD PTR [esi]
  00025	e8 00 00 00 00	 call	 ??3@YAXPAX@Z		; operator delete
  0002a	83 c4 14	 add	 esp, 20			; 00000014H
$LN10@Tidy@5:

; 1308 : 			}
; 1309 : 		this->_Myfirst = 0;

  0002d	83 26 00	 and	 DWORD PTR [esi], 0

; 1310 : 		this->_Mylast = 0;

  00030	83 66 04 00	 and	 DWORD PTR [esi+4], 0

; 1311 : 		this->_Myend = 0;

  00034	83 66 08 00	 and	 DWORD PTR [esi+8], 0
  00038	5e		 pop	 esi

; 1312 : 		}

  00039	c9		 leave
  0003a	c3		 ret	 0
?_Tidy@?$vector@V?$basic_string@DU?$char_traits@D@std@@V?$allocator@D@2@@std@@V?$allocator@V?$basic_string@DU?$char_traits@D@std@@V?$allocator@D@2@@std@@@2@@std@@IAEXXZ ENDP ; std::vector<std::basic_string<char,std::char_traits<char>,std::allocator<char> >,std::allocator<std::basic_string<char,std::char_traits<char>,std::allocator<char> > > >::_Tidy
_TEXT	ENDS
PUBLIC	?clear@?$vector@V?$basic_string@DU?$char_traits@D@std@@V?$allocator@D@2@@std@@V?$allocator@V?$basic_string@DU?$char_traits@D@std@@V?$allocator@D@2@@std@@@2@@std@@QAEXXZ ; std::vector<std::basic_string<char,std::char_traits<char>,std::allocator<char> >,std::allocator<std::basic_string<char,std::char_traits<char>,std::allocator<char> > > >::clear
; Function compile flags: /Ogsp
;	COMDAT ?clear@?$vector@V?$basic_string@DU?$char_traits@D@std@@V?$allocator@D@2@@std@@V?$allocator@V?$basic_string@DU?$char_traits@D@std@@V?$allocator@D@2@@std@@@2@@std@@QAEXXZ
_TEXT	SEGMENT
$T514773 = -4						; size = 4
?clear@?$vector@V?$basic_string@DU?$char_traits@D@std@@V?$allocator@D@2@@std@@V?$allocator@V?$basic_string@DU?$char_traits@D@std@@V?$allocator@D@2@@std@@@2@@std@@QAEXXZ PROC ; std::vector<std::basic_string<char,std::char_traits<char>,std::allocator<char> >,std::allocator<std::basic_string<char,std::char_traits<char>,std::allocator<char> > > >::clear, COMDAT
; _this$ = ecx

; 1217 : 		{	// erase all

  00000	55		 push	 ebp
  00001	8b ec		 mov	 ebp, esp
  00003	51		 push	 ecx

; 1218 : 		erase(begin(), end());

  00004	8b 41 04	 mov	 eax, DWORD PTR [ecx+4]
  00007	8b 11		 mov	 edx, DWORD PTR [ecx]
  00009	50		 push	 eax
  0000a	52		 push	 edx
  0000b	8d 45 fc	 lea	 eax, DWORD PTR $T514773[ebp]
  0000e	50		 push	 eax
  0000f	e8 00 00 00 00	 call	 ?erase@?$vector@V?$basic_string@DU?$char_traits@D@std@@V?$allocator@D@2@@std@@V?$allocator@V?$basic_string@DU?$char_traits@D@std@@V?$allocator@D@2@@std@@@2@@std@@QAE?AV?$_Vector_iterator@V?$_Vector_val@V?$basic_string@DU?$char_traits@D@std@@V?$allocator@D@2@@std@@V?$allocator@V?$basic_string@DU?$char_traits@D@std@@V?$allocator@D@2@@std@@@2@@std@@@2@V?$_Vector_const_iterator@V?$_Vector_val@V?$basic_string@DU?$char_traits@D@std@@V?$allocator@D@2@@std@@V?$allocator@V?$basic_string@DU?$char_traits@D@std@@V?$allocator@D@2@@std@@@2@@std@@@2@0@Z ; std::vector<std::basic_string<char,std::char_traits<char>,std::allocator<char> >,std::allocator<std::basic_string<char,std::char_traits<char>,std::allocator<char> > > >::erase

; 1219 : 		}

  00014	c9		 leave
  00015	c3		 ret	 0
?clear@?$vector@V?$basic_string@DU?$char_traits@D@std@@V?$allocator@D@2@@std@@V?$allocator@V?$basic_string@DU?$char_traits@D@std@@V?$allocator@D@2@@std@@@2@@std@@QAEXXZ ENDP ; std::vector<std::basic_string<char,std::char_traits<char>,std::allocator<char> >,std::allocator<std::basic_string<char,std::char_traits<char>,std::allocator<char> > > >::clear
_TEXT	ENDS
PUBLIC	??1?$vector@V?$basic_string@DU?$char_traits@D@std@@V?$allocator@D@2@@std@@V?$allocator@V?$basic_string@DU?$char_traits@D@std@@V?$allocator@D@2@@std@@@2@@std@@QAE@XZ ; std::vector<std::basic_string<char,std::char_traits<char>,std::allocator<char> >,std::allocator<std::basic_string<char,std::char_traits<char>,std::allocator<char> > > >::~vector<std::basic_string<char,std::char_traits<char>,std::allocator<char> >,std::allocator<std::basic_string<char,std::char_traits<char>,std::allocator<char> > > >
; Function compile flags: /Ogsp
;	COMDAT ??1?$vector@V?$basic_string@DU?$char_traits@D@std@@V?$allocator@D@2@@std@@V?$allocator@V?$basic_string@DU?$char_traits@D@std@@V?$allocator@D@2@@std@@@2@@std@@QAE@XZ
_TEXT	SEGMENT
??1?$vector@V?$basic_string@DU?$char_traits@D@std@@V?$allocator@D@2@@std@@V?$allocator@V?$basic_string@DU?$char_traits@D@std@@V?$allocator@D@2@@std@@@2@@std@@QAE@XZ PROC ; std::vector<std::basic_string<char,std::char_traits<char>,std::allocator<char> >,std::allocator<std::basic_string<char,std::char_traits<char>,std::allocator<char> > > >::~vector<std::basic_string<char,std::char_traits<char>,std::allocator<char> >,std::allocator<std::basic_string<char,std::char_traits<char>,std::allocator<char> > > >, COMDAT
; _this$ = ecx

; 705  : 		_Tidy();

  00000	e9 00 00 00 00	 jmp	 ?_Tidy@?$vector@V?$basic_string@DU?$char_traits@D@std@@V?$allocator@D@2@@std@@V?$allocator@V?$basic_string@DU?$char_traits@D@std@@V?$allocator@D@2@@std@@@2@@std@@IAEXXZ ; std::vector<std::basic_string<char,std::char_traits<char>,std::allocator<char> >,std::allocator<std::basic_string<char,std::char_traits<char>,std::allocator<char> > > >::_Tidy
??1?$vector@V?$basic_string@DU?$char_traits@D@std@@V?$allocator@D@2@@std@@V?$allocator@V?$basic_string@DU?$char_traits@D@std@@V?$allocator@D@2@@std@@@2@@std@@QAE@XZ ENDP ; std::vector<std::basic_string<char,std::char_traits<char>,std::allocator<char> >,std::allocator<std::basic_string<char,std::char_traits<char>,std::allocator<char> > > >::~vector<std::basic_string<char,std::char_traits<char>,std::allocator<char> >,std::allocator<std::basic_string<char,std::char_traits<char>,std::allocator<char> > > >
_TEXT	ENDS
PUBLIC	??_7ServiceCharWnd@@6B@				; ServiceCharWnd::`vftable'
PUBLIC	??0ServiceCharWnd@@QAE@XZ			; ServiceCharWnd::ServiceCharWnd
PUBLIC	??_R4ServiceCharWnd@@6B@			; ServiceCharWnd::`RTTI Complete Object Locator'
PUBLIC	??_R0?AVServiceCharWnd@@@8			; ServiceCharWnd `RTTI Type Descriptor'
PUBLIC	??_R3ServiceCharWnd@@8				; ServiceCharWnd::`RTTI Class Hierarchy Descriptor'
PUBLIC	??_R2ServiceCharWnd@@8				; ServiceCharWnd::`RTTI Base Class Array'
PUBLIC	??_R1A@?0A@EA@ServiceCharWnd@@8			; ServiceCharWnd::`RTTI Base Class Descriptor at (0,-1,0,64)'
PUBLIC	??_R1A@?0A@EA@ioMovingWnd@@8			; ioMovingWnd::`RTTI Base Class Descriptor at (0,-1,0,64)'
PUBLIC	??_R0?AVioMovingWnd@@@8				; ioMovingWnd `RTTI Type Descriptor'
PUBLIC	??_R3ioMovingWnd@@8				; ioMovingWnd::`RTTI Class Hierarchy Descriptor'
PUBLIC	??_R2ioMovingWnd@@8				; ioMovingWnd::`RTTI Base Class Array'
PUBLIC	??_R1A@?0A@EA@ioWnd@@8				; ioWnd::`RTTI Base Class Descriptor at (0,-1,0,64)'
PUBLIC	??_R0?AVioWnd@@@8				; ioWnd `RTTI Type Descriptor'
PUBLIC	??_R3ioWnd@@8					; ioWnd::`RTTI Class Hierarchy Descriptor'
PUBLIC	??_R2ioWnd@@8					; ioWnd::`RTTI Base Class Array'
PUBLIC	?iwm_show@ServiceCharWnd@@UAEXXZ		; ServiceCharWnd::iwm_show
EXTRN	__imp_??1ioHashString@@QAE@XZ:PROC
EXTRN	__imp_??1ioMovingWnd@@UAE@XZ:PROC
EXTRN	__imp_??0ioHashString@@QAE@XZ:PROC
EXTRN	__imp_??0ioMovingWnd@@QAE@XZ:PROC
EXTRN	?AddRenderFrame@ioWnd@@UAEXABVioHashString@@PAVioUIRenderFrame@@@Z:PROC ; ioWnd::AddRenderFrame
EXTRN	?AddRenderImage@ioWnd@@UAEXABVioHashString@@PAVioUIRenderImage@@@Z:PROC ; ioWnd::AddRenderImage
EXTRN	?AddTooltipHelp@ioWnd@@UAEXABVioHashString@@00@Z:PROC ; ioWnd::AddTooltipHelp
EXTRN	?ParseExtraInfo@ioWnd@@UAEXAAVioXMLElement@@@Z:PROC ; ioWnd::ParseExtraInfo
EXTRN	?AddNamedRenderImage@ioWnd@@UAEXABVioHashString@@PAVioUIRenderImage@@@Z:PROC ; ioWnd::AddNamedRenderImage
EXTRN	?RemoveNamedRenderImage@ioWnd@@UAEXABVioHashString@@@Z:PROC ; ioWnd::RemoveNamedRenderImage
EXTRN	?GetNamedRenderImage@ioWnd@@UBEPAVioUIRenderImage@@ABVioHashString@@@Z:PROC ; ioWnd::GetNamedRenderImage
EXTRN	?SetWindowAlpha@ioWnd@@UAEXH@Z:PROC		; ioWnd::SetWindowAlpha
EXTRN	?SetActive@ioWnd@@UAEXXZ:PROC			; ioWnd::SetActive
EXTRN	?SetInActive@ioWnd@@UAEXXZ:PROC			; ioWnd::SetInActive
EXTRN	?ClearElementImageList@ioWnd@@UAEXXZ:PROC	; ioWnd::ClearElementImageList
EXTRN	?SetSize@ioWnd@@UAEXHH@Z:PROC			; ioWnd::SetSize
EXTRN	?SetPositionToDefault@ioMovingWnd@@UAEXHH_N0@Z:PROC ; ioMovingWnd::SetPositionToDefault
EXTRN	?IsNeedProcess@ioWnd@@UBE_NXZ:PROC		; ioWnd::IsNeedProcess
EXTRN	?IsCanMouseReaction@ioWnd@@UBE_NXZ:PROC		; ioWnd::IsCanMouseReaction
EXTRN	?AddChild@ioWnd@@UAEXPAV1@@Z:PROC		; ioWnd::AddChild
EXTRN	?DeleteChild@ioWnd@@UAEXK@Z:PROC		; ioWnd::DeleteChild
EXTRN	?DeleteAllChild@ioWnd@@UAEXXZ:PROC		; ioWnd::DeleteAllChild
EXTRN	?OnRenderShowAndHide@ioWnd@@MAE_NXZ:PROC	; ioWnd::OnRenderShowAndHide
EXTRN	?OnRenderShowAndHideByDefault@ioWnd@@MAE_NK@Z:PROC ; ioWnd::OnRenderShowAndHideByDefault
EXTRN	?OnRenderShowAndHideByTop@ioWnd@@MAE_NK@Z:PROC	; ioWnd::OnRenderShowAndHideByTop
EXTRN	?OnRenderShowAndHideByDown@ioWnd@@MAE_NK@Z:PROC	; ioWnd::OnRenderShowAndHideByDown
EXTRN	?OnRenderAfterChild@ioWnd@@MAEXXZ:PROC		; ioWnd::OnRenderAfterChild
EXTRN	?OnMouseProcess@ioMovingWnd@@MAEXABVioMouse@@@Z:PROC ; ioMovingWnd::OnMouseProcess
EXTRN	?CheckFrameReSize@ioWnd@@MAEXHHHH@Z:PROC	; ioWnd::CheckFrameReSize
EXTRN	?RenderImageList@ioWnd@@MAEXHHW4UIRenderType@@@Z:PROC ; ioWnd::RenderImageList
EXTRN	?iwm_create@ioWnd@@UAEXXZ:PROC			; ioWnd::iwm_create
EXTRN	?iwm_destroy@ioWnd@@UAEXXZ:PROC			; ioWnd::iwm_destroy
EXTRN	?iwm_lbuttondown@ioMovingWnd@@UAEXABVioMouse@@@Z:PROC ; ioMovingWnd::iwm_lbuttondown
EXTRN	?iwm_lbuttonup@ioMovingWnd@@UAEXABVioMouse@@@Z:PROC ; ioMovingWnd::iwm_lbuttonup
EXTRN	?iwm_lbuttonDBLCLK@ioWnd@@UAEXABVioMouse@@@Z:PROC ; ioWnd::iwm_lbuttonDBLCLK
EXTRN	?iwm_rbuttondown@ioWnd@@UAEXABVioMouse@@@Z:PROC	; ioWnd::iwm_rbuttondown
EXTRN	?iwm_rbuttonup@ioWnd@@UAEXABVioMouse@@@Z:PROC	; ioWnd::iwm_rbuttonup
EXTRN	?iwm_mouseover@ioWnd@@UAEXABVioMouse@@@Z:PROC	; ioWnd::iwm_mouseover
EXTRN	?iwm_mousemove@ioWnd@@UAEXABVioMouse@@@Z:PROC	; ioWnd::iwm_mousemove
EXTRN	?iwm_mouseleave@ioWnd@@UAEXABVioMouse@@@Z:PROC	; ioWnd::iwm_mouseleave
EXTRN	?iwm_vscroll@ioWnd@@UAEXKH@Z:PROC		; ioWnd::iwm_vscroll
EXTRN	?iwm_wheel@ioWnd@@UAEXH@Z:PROC			; ioWnd::iwm_wheel
EXTRN	?iwm_esc@ioWnd@@UAE_NXZ:PROC			; ioWnd::iwm_esc
EXTRN	?iwm_spacebar@ioWnd@@UAE_NXZ:PROC		; ioWnd::iwm_spacebar
EXTRN	?iwm_gototop@ioWnd@@UAEXXZ:PROC			; ioWnd::iwm_gototop
EXTRN	?iwm_dragenter@ioWnd@@UAE?AW4IWDropEffect@@PAVioDragItem@@ABVioMouse@@@Z:PROC ; ioWnd::iwm_dragenter
EXTRN	?iwm_dragover@ioWnd@@UAE?AW4IWDropEffect@@PAVioDragItem@@ABVioMouse@@@Z:PROC ; ioWnd::iwm_dragover
EXTRN	?iwm_dragleave@ioWnd@@UAEXXZ:PROC		; ioWnd::iwm_dragleave
EXTRN	?iwm_dropitem@ioWnd@@UAE_NPAVioDragItem@@ABVioMouse@@PAV1@@Z:PROC ; ioWnd::iwm_dropitem
EXTRN	?iwm_dropdone@ioWnd@@UAEXPAVioDragItem@@PAV1@_N@Z:PROC ; ioWnd::iwm_dropdone
EXTRN	?IsEXType@ioWnd@@UBE_NXZ:PROC			; ioWnd::IsEXType
EXTRN	?GetWndType@ioWnd@@UBEKXZ:PROC			; ioWnd::GetWndType
EXTRN	?RenderWnd@ioWnd@@UAEXXZ:PROC			; ioWnd::RenderWnd
EXTRN	?SetIDEX@ioWnd@@UAEXAAK_N@Z:PROC		; ioWnd::SetIDEX
EXTRN	?ParseXML@ioWnd@@UAEXAAVioXMLElement@@@Z:PROC	; ioWnd::ParseXML
EXTRN	?GetHeaderFileName@ioWnd@@UAEPBDXZ:PROC		; ioWnd::GetHeaderFileName
EXTRN	?GetTemplateName@ioWnd@@UAEPBDXZ:PROC		; ioWnd::GetTemplateName
EXTRN	?GetDefClassName@ioWnd@@UBEPBDXZ:PROC		; ioWnd::GetDefClassName
EXTRN	?_Clone@ioWnd@@UAEPAV1@XZ:PROC			; ioWnd::_Clone
EXTRN	?Copy@ioWnd@@UAEXPAV1@@Z:PROC			; ioWnd::Copy
EXTRN	?Save@ioWnd@@UAE_NAAVioXMLElement@@@Z:PROC	; ioWnd::Save
EXTRN	?SetSaveData@ioWnd@@UAEXAAVioXMLElement@@@Z:PROC ; ioWnd::SetSaveData
EXTRN	?SetPosX@ioWnd@@UAEXH@Z:PROC			; ioWnd::SetPosX
EXTRN	?SetPosY@ioWnd@@UAEXH@Z:PROC			; ioWnd::SetPosY
EXTRN	?SetWidth@ioWnd@@UAEXH@Z:PROC			; ioWnd::SetWidth
EXTRN	?SetHeight@ioWnd@@UAEXH@Z:PROC			; ioWnd::SetHeight
EXTRN	?GetNumFixedRenderFrame@ioWnd@@UBEHXZ:PROC	; ioWnd::GetNumFixedRenderFrame
EXTRN	?GetFixedRenderFrameType@ioWnd@@UAEPBDH@Z:PROC	; ioWnd::GetFixedRenderFrameType
EXTRN	?GetRenderFrame@ioWnd@@UAEPAPAVioUIRenderElement@@PBD@Z:PROC ; ioWnd::GetRenderFrame
EXTRN	?GetNumFixedRenderImage@ioWnd@@UBEHXZ:PROC	; ioWnd::GetNumFixedRenderImage
EXTRN	?GetFixedRenderImageType@ioWnd@@UAEPBDH@Z:PROC	; ioWnd::GetFixedRenderImageType
EXTRN	?GetRenderImage@ioWnd@@UAEPAPAVioUIRenderElement@@PBD@Z:PROC ; ioWnd::GetRenderImage
EXTRN	?AddEffect@ioWnd@@UAEXABVioHashString@@PAVioUI3DEffectRender@@@Z:PROC ; ioWnd::AddEffect
EXTRN	?GetEffect@ioWnd@@UAEPAVioUI3DEffectRender@@VioHashString@@@Z:PROC ; ioWnd::GetEffect
EXTRN	??_EServiceCharWnd@@UAEPAXI@Z:PROC		; ServiceCharWnd::`vector deleting destructor'
;	COMDAT ??_R2ioWnd@@8
; File c:\program files (x86)\microsoft visual studio 10.0\vc\include\xmemory
rdata$r	SEGMENT
??_R2ioWnd@@8 DD FLAT:??_R1A@?0A@EA@ioWnd@@8		; ioWnd::`RTTI Base Class Array'
rdata$r	ENDS
;	COMDAT ??_R3ioWnd@@8
rdata$r	SEGMENT
??_R3ioWnd@@8 DD 00H					; ioWnd::`RTTI Class Hierarchy Descriptor'
	DD	00H
	DD	01H
	DD	FLAT:??_R2ioWnd@@8
rdata$r	ENDS
;	COMDAT ??_R0?AVioWnd@@@8
_DATA	SEGMENT
??_R0?AVioWnd@@@8 DD FLAT:??_7type_info@@6B@		; ioWnd `RTTI Type Descriptor'
	DD	00H
	DB	'.?AVioWnd@@', 00H
_DATA	ENDS
;	COMDAT ??_R1A@?0A@EA@ioWnd@@8
rdata$r	SEGMENT
??_R1A@?0A@EA@ioWnd@@8 DD FLAT:??_R0?AVioWnd@@@8	; ioWnd::`RTTI Base Class Descriptor at (0,-1,0,64)'
	DD	00H
	DD	00H
	DD	0ffffffffH
	DD	00H
	DD	040H
	DD	FLAT:??_R3ioWnd@@8
rdata$r	ENDS
;	COMDAT ??_R2ioMovingWnd@@8
rdata$r	SEGMENT
??_R2ioMovingWnd@@8 DD FLAT:??_R1A@?0A@EA@ioMovingWnd@@8 ; ioMovingWnd::`RTTI Base Class Array'
	DD	FLAT:??_R1A@?0A@EA@ioWnd@@8
rdata$r	ENDS
;	COMDAT ??_R3ioMovingWnd@@8
rdata$r	SEGMENT
??_R3ioMovingWnd@@8 DD 00H				; ioMovingWnd::`RTTI Class Hierarchy Descriptor'
	DD	00H
	DD	02H
	DD	FLAT:??_R2ioMovingWnd@@8
rdata$r	ENDS
;	COMDAT ??_R0?AVioMovingWnd@@@8
_DATA	SEGMENT
??_R0?AVioMovingWnd@@@8 DD FLAT:??_7type_info@@6B@	; ioMovingWnd `RTTI Type Descriptor'
	DD	00H
	DB	'.?AVioMovingWnd@@', 00H
_DATA	ENDS
;	COMDAT ??_R1A@?0A@EA@ioMovingWnd@@8
rdata$r	SEGMENT
??_R1A@?0A@EA@ioMovingWnd@@8 DD FLAT:??_R0?AVioMovingWnd@@@8 ; ioMovingWnd::`RTTI Base Class Descriptor at (0,-1,0,64)'
	DD	01H
	DD	00H
	DD	0ffffffffH
	DD	00H
	DD	040H
	DD	FLAT:??_R3ioMovingWnd@@8
rdata$r	ENDS
;	COMDAT ??_R1A@?0A@EA@ServiceCharWnd@@8
rdata$r	SEGMENT
??_R1A@?0A@EA@ServiceCharWnd@@8 DD FLAT:??_R0?AVServiceCharWnd@@@8 ; ServiceCharWnd::`RTTI Base Class Descriptor at (0,-1,0,64)'
	DD	02H
	DD	00H
	DD	0ffffffffH
	DD	00H
	DD	040H
	DD	FLAT:??_R3ServiceCharWnd@@8
rdata$r	ENDS
;	COMDAT ??_R2ServiceCharWnd@@8
rdata$r	SEGMENT
??_R2ServiceCharWnd@@8 DD FLAT:??_R1A@?0A@EA@ServiceCharWnd@@8 ; ServiceCharWnd::`RTTI Base Class Array'
	DD	FLAT:??_R1A@?0A@EA@ioMovingWnd@@8
	DD	FLAT:??_R1A@?0A@EA@ioWnd@@8
rdata$r	ENDS
;	COMDAT ??_R3ServiceCharWnd@@8
rdata$r	SEGMENT
??_R3ServiceCharWnd@@8 DD 00H				; ServiceCharWnd::`RTTI Class Hierarchy Descriptor'
	DD	00H
	DD	03H
	DD	FLAT:??_R2ServiceCharWnd@@8
rdata$r	ENDS
;	COMDAT ??_R0?AVServiceCharWnd@@@8
_DATA	SEGMENT
??_R0?AVServiceCharWnd@@@8 DD FLAT:??_7type_info@@6B@	; ServiceCharWnd `RTTI Type Descriptor'
	DD	00H
	DB	'.?AVServiceCharWnd@@', 00H
_DATA	ENDS
;	COMDAT ??_R4ServiceCharWnd@@6B@
rdata$r	SEGMENT
??_R4ServiceCharWnd@@6B@ DD 00H				; ServiceCharWnd::`RTTI Complete Object Locator'
	DD	00H
	DD	00H
	DD	FLAT:??_R0?AVServiceCharWnd@@@8
	DD	FLAT:??_R3ServiceCharWnd@@8
rdata$r	ENDS
;	COMDAT ??_7ServiceCharWnd@@6B@
CONST	SEGMENT
??_7ServiceCharWnd@@6B@ DD FLAT:??_R4ServiceCharWnd@@6B@ ; ServiceCharWnd::`vftable'
	DD	FLAT:?AddRenderFrame@ioWnd@@UAEXABVioHashString@@PAVioUIRenderFrame@@@Z
	DD	FLAT:?AddRenderImage@ioWnd@@UAEXABVioHashString@@PAVioUIRenderImage@@@Z
	DD	FLAT:?AddTooltipHelp@ioWnd@@UAEXABVioHashString@@00@Z
	DD	FLAT:?ParseExtraInfo@ioWnd@@UAEXAAVioXMLElement@@@Z
	DD	FLAT:?AddNamedRenderImage@ioWnd@@UAEXABVioHashString@@PAVioUIRenderImage@@@Z
	DD	FLAT:?RemoveNamedRenderImage@ioWnd@@UAEXABVioHashString@@@Z
	DD	FLAT:?GetNamedRenderImage@ioWnd@@UBEPAVioUIRenderImage@@ABVioHashString@@@Z
	DD	FLAT:?SetWindowAlpha@ioWnd@@UAEXH@Z
	DD	FLAT:?SetActive@ioWnd@@UAEXXZ
	DD	FLAT:?SetInActive@ioWnd@@UAEXXZ
	DD	FLAT:?ClearElementImageList@ioWnd@@UAEXXZ
	DD	FLAT:?SetSize@ioWnd@@UAEXHH@Z
	DD	FLAT:?SetPositionToDefault@ioMovingWnd@@UAEXHH_N0@Z
	DD	FLAT:?IsNeedProcess@ioWnd@@UBE_NXZ
	DD	FLAT:?IsCanMouseReaction@ioWnd@@UBE_NXZ
	DD	FLAT:?AddChild@ioWnd@@UAEXPAV1@@Z
	DD	FLAT:?DeleteChild@ioWnd@@UAEXK@Z
	DD	FLAT:?DeleteAllChild@ioWnd@@UAEXXZ
	DD	FLAT:?OnRenderShowAndHide@ioWnd@@MAE_NXZ
	DD	FLAT:?OnRenderShowAndHideByDefault@ioWnd@@MAE_NK@Z
	DD	FLAT:?OnRenderShowAndHideByTop@ioWnd@@MAE_NK@Z
	DD	FLAT:?OnRenderShowAndHideByDown@ioWnd@@MAE_NK@Z
	DD	FLAT:?OnRender@ServiceCharWnd@@MAEXXZ
	DD	FLAT:?OnRenderAfterChild@ioWnd@@MAEXXZ
	DD	FLAT:?OnProcess@ServiceCharWnd@@MAEXM@Z
	DD	FLAT:?OnMouseProcess@ioMovingWnd@@MAEXABVioMouse@@@Z
	DD	FLAT:?CheckFrameReSize@ioWnd@@MAEXHHHH@Z
	DD	FLAT:?RenderImageList@ioWnd@@MAEXHHW4UIRenderType@@@Z
	DD	FLAT:?iwm_create@ioWnd@@UAEXXZ
	DD	FLAT:?iwm_destroy@ioWnd@@UAEXXZ
	DD	FLAT:?iwm_lbuttondown@ioMovingWnd@@UAEXABVioMouse@@@Z
	DD	FLAT:?iwm_lbuttonup@ioMovingWnd@@UAEXABVioMouse@@@Z
	DD	FLAT:?iwm_lbuttonDBLCLK@ioWnd@@UAEXABVioMouse@@@Z
	DD	FLAT:?iwm_rbuttondown@ioWnd@@UAEXABVioMouse@@@Z
	DD	FLAT:?iwm_rbuttonup@ioWnd@@UAEXABVioMouse@@@Z
	DD	FLAT:?iwm_command@ServiceCharWnd@@UAEXPAVioWnd@@HK@Z
	DD	FLAT:?iwm_mouseover@ioWnd@@UAEXABVioMouse@@@Z
	DD	FLAT:?iwm_mousemove@ioWnd@@UAEXABVioMouse@@@Z
	DD	FLAT:?iwm_mouseleave@ioWnd@@UAEXABVioMouse@@@Z
	DD	FLAT:?iwm_vscroll@ioWnd@@UAEXKH@Z
	DD	FLAT:?iwm_wheel@ioWnd@@UAEXH@Z
	DD	FLAT:?iwm_show@ServiceCharWnd@@UAEXXZ
	DD	FLAT:?iwm_hide@ServiceCharWnd@@UAEXXZ
	DD	FLAT:?iwm_esc@ioWnd@@UAE_NXZ
	DD	FLAT:?iwm_spacebar@ioWnd@@UAE_NXZ
	DD	FLAT:?iwm_gototop@ioWnd@@UAEXXZ
	DD	FLAT:?iwm_dragenter@ioWnd@@UAE?AW4IWDropEffect@@PAVioDragItem@@ABVioMouse@@@Z
	DD	FLAT:?iwm_dragover@ioWnd@@UAE?AW4IWDropEffect@@PAVioDragItem@@ABVioMouse@@@Z
	DD	FLAT:?iwm_dragleave@ioWnd@@UAEXXZ
	DD	FLAT:?iwm_dropitem@ioWnd@@UAE_NPAVioDragItem@@ABVioMouse@@PAV1@@Z
	DD	FLAT:?iwm_dropdone@ioWnd@@UAEXPAVioDragItem@@PAV1@_N@Z
	DD	FLAT:?IsEXType@ioWnd@@UBE_NXZ
	DD	FLAT:?GetWndType@ioWnd@@UBEKXZ
	DD	FLAT:?RenderWnd@ioWnd@@UAEXXZ
	DD	FLAT:?SetIDEX@ioWnd@@UAEXAAK_N@Z
	DD	FLAT:?ParseXML@ioWnd@@UAEXAAVioXMLElement@@@Z
	DD	FLAT:?GetHeaderFileName@ioWnd@@UAEPBDXZ
	DD	FLAT:?GetTemplateName@ioWnd@@UAEPBDXZ
	DD	FLAT:?GetDefClassName@ioWnd@@UBEPBDXZ
	DD	FLAT:?_Clone@ioWnd@@UAEPAV1@XZ
	DD	FLAT:?Copy@ioWnd@@UAEXPAV1@@Z
	DD	FLAT:?Save@ioWnd@@UAE_NAAVioXMLElement@@@Z
	DD	FLAT:?SetSaveData@ioWnd@@UAEXAAVioXMLElement@@@Z
	DD	FLAT:?SetPosX@ioWnd@@UAEXH@Z
	DD	FLAT:?SetPosY@ioWnd@@UAEXH@Z
	DD	FLAT:?SetWidth@ioWnd@@UAEXH@Z
	DD	FLAT:?SetHeight@ioWnd@@UAEXH@Z
	DD	FLAT:?GetNumFixedRenderFrame@ioWnd@@UBEHXZ
	DD	FLAT:?GetFixedRenderFrameType@ioWnd@@UAEPBDH@Z
	DD	FLAT:?GetRenderFrame@ioWnd@@UAEPAPAVioUIRenderElement@@PBD@Z
	DD	FLAT:?GetNumFixedRenderImage@ioWnd@@UBEHXZ
	DD	FLAT:?GetFixedRenderImageType@ioWnd@@UAEPBDH@Z
	DD	FLAT:?GetRenderImage@ioWnd@@UAEPAPAVioUIRenderElement@@PBD@Z
	DD	FLAT:?AddEffect@ioWnd@@UAEXABVioHashString@@PAVioUI3DEffectRender@@@Z
	DD	FLAT:?GetEffect@ioWnd@@UAEPAVioUI3DEffectRender@@VioHashString@@@Z
	DD	FLAT:??_EServiceCharWnd@@UAEPAXI@Z
CONST	ENDS
;	COMDAT xdata$x
xdata$x	SEGMENT
__ehfuncinfo$??0ServiceCharWnd@@QAE@XZ DD 019930522H
	DD	08H
	DD	FLAT:__unwindtable$??0ServiceCharWnd@@QAE@XZ
	DD	2 DUP(00H)
	DD	2 DUP(00H)
	DD	00H
	DD	01H
__unwindtable$??0ServiceCharWnd@@QAE@XZ DD 0ffffffffH
	DD	FLAT:__unwindfunclet$??0ServiceCharWnd@@QAE@XZ$0
	DD	00H
	DD	FLAT:__unwindfunclet$??0ServiceCharWnd@@QAE@XZ$1
	DD	01H
	DD	FLAT:__unwindfunclet$??0ServiceCharWnd@@QAE@XZ$2
	DD	02H
	DD	FLAT:__unwindfunclet$??0ServiceCharWnd@@QAE@XZ$3
	DD	03H
	DD	FLAT:__unwindfunclet$??0ServiceCharWnd@@QAE@XZ$4
	DD	04H
	DD	FLAT:__unwindfunclet$??0ServiceCharWnd@@QAE@XZ$5
	DD	05H
	DD	FLAT:__unwindfunclet$??0ServiceCharWnd@@QAE@XZ$6
	DD	06H
	DD	FLAT:__unwindfunclet$??0ServiceCharWnd@@QAE@XZ$7
; Function compile flags: /Ogsp
; File d:\lost saga for developer\youtube\tutorial\source\src\lsclient\gui\servicecharwnd.cpp
xdata$x	ENDS
;	COMDAT ??0ServiceCharWnd@@QAE@XZ
_TEXT	SEGMENT
_this$ = -16						; size = 4
__$EHRec$ = -12						; size = 12
??0ServiceCharWnd@@QAE@XZ PROC				; ServiceCharWnd::ServiceCharWnd, COMDAT
; _this$ = ecx

; 39   : {

  00000	6a 04		 push	 4
  00002	b8 00 00 00 00	 mov	 eax, __ehhandler$??0ServiceCharWnd@@QAE@XZ
  00007	e8 00 00 00 00	 call	 __EH_prolog3
  0000c	8b f1		 mov	 esi, ecx
  0000e	89 75 f0	 mov	 DWORD PTR _this$[ebp], esi
  00011	ff 15 00 00 00
	00		 call	 DWORD PTR __imp_??0ioMovingWnd@@QAE@XZ
  00017	33 db		 xor	 ebx, ebx
  00019	c7 06 00 00 00
	00		 mov	 DWORD PTR [esi], OFFSET ??_7ServiceCharWnd@@6B@
  0001f	89 5d fc	 mov	 DWORD PTR __$EHRec$[ebp+8], ebx
  00022	89 9e 98 01 00
	00		 mov	 DWORD PTR [esi+408], ebx
  00028	89 9e 9c 01 00
	00		 mov	 DWORD PTR [esi+412], ebx
  0002e	89 9e a0 01 00
	00		 mov	 DWORD PTR [esi+416], ebx
  00034	89 9e ac 01 00
	00		 mov	 DWORD PTR [esi+428], ebx
  0003a	89 9e b0 01 00
	00		 mov	 DWORD PTR [esi+432], ebx
  00040	89 9e b4 01 00
	00		 mov	 DWORD PTR [esi+436], ebx
  00046	8d 8e bc 01 00
	00		 lea	 ecx, DWORD PTR [esi+444]
  0004c	c6 45 fc 02	 mov	 BYTE PTR __$EHRec$[ebp+8], 2
  00050	e8 00 00 00 00	 call	 ??0CHARACTER@@QAE@XZ	; CHARACTER::CHARACTER
  00055	8b 3d 00 00 00
	00		 mov	 edi, DWORD PTR __imp_??0ioHashString@@QAE@XZ
  0005b	8d 8e e0 04 00
	00		 lea	 ecx, DWORD PTR [esi+1248]
  00061	c6 45 fc 03	 mov	 BYTE PTR __$EHRec$[ebp+8], 3
  00065	ff d7		 call	 edi
  00067	8d 8e f0 04 00
	00		 lea	 ecx, DWORD PTR [esi+1264]
  0006d	c6 45 fc 04	 mov	 BYTE PTR __$EHRec$[ebp+8], 4
  00071	ff d7		 call	 edi
  00073	8d 8e 00 05 00
	00		 lea	 ecx, DWORD PTR [esi+1280]
  00079	c6 45 fc 05	 mov	 BYTE PTR __$EHRec$[ebp+8], 5
  0007d	ff d7		 call	 edi
  0007f	89 9e 10 05 00
	00		 mov	 DWORD PTR [esi+1296], ebx
  00085	89 9e 14 05 00
	00		 mov	 DWORD PTR [esi+1300], ebx
  0008b	89 9e 18 05 00
	00		 mov	 DWORD PTR [esi+1304], ebx
  00091	8d 8e 20 05 00
	00		 lea	 ecx, DWORD PTR [esi+1312]
  00097	c6 45 fc 07	 mov	 BYTE PTR __$EHRec$[ebp+8], 7
  0009b	ff d7		 call	 edi

; 40   : 	m_iClassSelect      = 0;	

  0009d	89 9e 94 01 00
	00		 mov	 DWORD PTR [esi+404], ebx

; 41   : 	m_iCurRaceDetailIdx = 0;

  000a3	89 9e a8 01 00
	00		 mov	 DWORD PTR [esi+424], ebx

; 42   : 	m_iClassLimitDate   = 24;

  000a9	c7 86 90 01 00
	00 18 00 00 00	 mov	 DWORD PTR [esi+400], 24	; 00000018H

; 43   : }

  000b3	8b c6		 mov	 eax, esi
  000b5	e8 00 00 00 00	 call	 __EH_epilog3
  000ba	c3		 ret	 0
_TEXT	ENDS
;	COMDAT text$x
text$x	SEGMENT
__unwindfunclet$??0ServiceCharWnd@@QAE@XZ$0:
  00000	8b 4d f0	 mov	 ecx, DWORD PTR _this$[ebp]
  00003	ff 25 00 00 00
	00		 jmp	 DWORD PTR __imp_??1ioMovingWnd@@UAE@XZ
__unwindfunclet$??0ServiceCharWnd@@QAE@XZ$1:
  00009	8b 4d f0	 mov	 ecx, DWORD PTR _this$[ebp]
  0000c	81 c1 98 01 00
	00		 add	 ecx, 408		; 00000198H
  00012	e9 00 00 00 00	 jmp	 ??1?$vector@KV?$allocator@K@std@@@std@@QAE@XZ ; std::vector<unsigned long,std::allocator<unsigned long> >::~vector<unsigned long,std::allocator<unsigned long> >
__unwindfunclet$??0ServiceCharWnd@@QAE@XZ$2:
  00017	8b 4d f0	 mov	 ecx, DWORD PTR _this$[ebp]
  0001a	81 c1 ac 01 00
	00		 add	 ecx, 428		; 000001acH
  00020	e9 00 00 00 00	 jmp	 ??1?$vector@W4RaceDetailType@@V?$allocator@W4RaceDetailType@@@std@@@std@@QAE@XZ ; std::vector<enum RaceDetailType,std::allocator<enum RaceDetailType> >::~vector<enum RaceDetailType,std::allocator<enum RaceDetailType> >
__unwindfunclet$??0ServiceCharWnd@@QAE@XZ$3:
  00025	8b 4d f0	 mov	 ecx, DWORD PTR _this$[ebp]
  00028	81 c1 bc 01 00
	00		 add	 ecx, 444		; 000001bcH
  0002e	e9 00 00 00 00	 jmp	 ??1CHARACTER@@QAE@XZ
__unwindfunclet$??0ServiceCharWnd@@QAE@XZ$4:
  00033	8b 4d f0	 mov	 ecx, DWORD PTR _this$[ebp]
  00036	81 c1 e0 04 00
	00		 add	 ecx, 1248		; 000004e0H
  0003c	ff 25 00 00 00
	00		 jmp	 DWORD PTR __imp_??1ioHashString@@QAE@XZ
__unwindfunclet$??0ServiceCharWnd@@QAE@XZ$5:
  00042	8b 4d f0	 mov	 ecx, DWORD PTR _this$[ebp]
  00045	81 c1 f0 04 00
	00		 add	 ecx, 1264		; 000004f0H
  0004b	ff 25 00 00 00
	00		 jmp	 DWORD PTR __imp_??1ioHashString@@QAE@XZ
__unwindfunclet$??0ServiceCharWnd@@QAE@XZ$6:
  00051	8b 4d f0	 mov	 ecx, DWORD PTR _this$[ebp]
  00054	81 c1 00 05 00
	00		 add	 ecx, 1280		; 00000500H
  0005a	ff 25 00 00 00
	00		 jmp	 DWORD PTR __imp_??1ioHashString@@QAE@XZ
__unwindfunclet$??0ServiceCharWnd@@QAE@XZ$7:
  00060	8b 4d f0	 mov	 ecx, DWORD PTR _this$[ebp]
  00063	81 c1 10 05 00
	00		 add	 ecx, 1296		; 00000510H
  00069	e9 00 00 00 00	 jmp	 ??1?$vector@V?$basic_string@DU?$char_traits@D@std@@V?$allocator@D@2@@std@@V?$allocator@V?$basic_string@DU?$char_traits@D@std@@V?$allocator@D@2@@std@@@2@@std@@QAE@XZ ; std::vector<std::basic_string<char,std::char_traits<char>,std::allocator<char> >,std::allocator<std::basic_string<char,std::char_traits<char>,std::allocator<char> > > >::~vector<std::basic_string<char,std::char_traits<char>,std::allocator<char> >,std::allocator<std::basic_string<char,std::char_traits<char>,std::allocator<char> > > >
__ehhandler$??0ServiceCharWnd@@QAE@XZ:
  0006e	8b 54 24 08	 mov	 edx, DWORD PTR [esp+8]
  00072	8d 42 0c	 lea	 eax, DWORD PTR [edx+12]
  00075	8b 4a ec	 mov	 ecx, DWORD PTR [edx-20]
  00078	33 c8		 xor	 ecx, eax
  0007a	e8 00 00 00 00	 call	 @__security_check_cookie@4
  0007f	b8 00 00 00 00	 mov	 eax, OFFSET __ehfuncinfo$??0ServiceCharWnd@@QAE@XZ
  00084	e9 00 00 00 00	 jmp	 ___CxxFrameHandler3
text$x	ENDS
??0ServiceCharWnd@@QAE@XZ ENDP				; ServiceCharWnd::ServiceCharWnd
PUBLIC	??1ServiceCharWnd@@UAE@XZ			; ServiceCharWnd::~ServiceCharWnd
;	COMDAT xdata$x
; File c:\program files (x86)\microsoft visual studio 10.0\vc\include\vector
xdata$x	SEGMENT
__ehfuncinfo$??1ServiceCharWnd@@UAE@XZ DD 019930522H
	DD	08H
	DD	FLAT:__unwindtable$??1ServiceCharWnd@@UAE@XZ
	DD	2 DUP(00H)
	DD	2 DUP(00H)
	DD	00H
	DD	01H
__unwindtable$??1ServiceCharWnd@@UAE@XZ DD 0ffffffffH
	DD	FLAT:__unwindfunclet$??1ServiceCharWnd@@UAE@XZ$0
	DD	00H
	DD	FLAT:__unwindfunclet$??1ServiceCharWnd@@UAE@XZ$1
	DD	01H
	DD	FLAT:__unwindfunclet$??1ServiceCharWnd@@UAE@XZ$2
	DD	02H
	DD	FLAT:__unwindfunclet$??1ServiceCharWnd@@UAE@XZ$3
	DD	03H
	DD	FLAT:__unwindfunclet$??1ServiceCharWnd@@UAE@XZ$4
	DD	04H
	DD	FLAT:__unwindfunclet$??1ServiceCharWnd@@UAE@XZ$5
	DD	05H
	DD	FLAT:__unwindfunclet$??1ServiceCharWnd@@UAE@XZ$6
	DD	06H
	DD	FLAT:__unwindfunclet$??1ServiceCharWnd@@UAE@XZ$7
; Function compile flags: /Ogsp
; File d:\lost saga for developer\youtube\tutorial\source\src\lsclient\gui\servicecharwnd.cpp
xdata$x	ENDS
;	COMDAT ??1ServiceCharWnd@@UAE@XZ
_TEXT	SEGMENT
$T515076 = -20						; size = 4
$T514996 = -20						; size = 4
_this$ = -16						; size = 4
__$EHRec$ = -12						; size = 12
??1ServiceCharWnd@@UAE@XZ PROC				; ServiceCharWnd::~ServiceCharWnd, COMDAT
; _this$ = ecx

; 46   : {

  00000	6a 08		 push	 8
  00002	b8 00 00 00 00	 mov	 eax, __ehhandler$??1ServiceCharWnd@@UAE@XZ
  00007	e8 00 00 00 00	 call	 __EH_prolog3
  0000c	8b f1		 mov	 esi, ecx
  0000e	89 75 f0	 mov	 DWORD PTR _this$[ebp], esi
  00011	c7 06 00 00 00
	00		 mov	 DWORD PTR [esi], OFFSET ??_7ServiceCharWnd@@6B@

; 47   : 	m_dwFirstClassList.clear();

  00017	8b 86 9c 01 00
	00		 mov	 eax, DWORD PTR [esi+412]
  0001d	8b 8e 98 01 00
	00		 mov	 ecx, DWORD PTR [esi+408]
  00023	50		 push	 eax
  00024	51		 push	 ecx
  00025	8d 45 ec	 lea	 eax, DWORD PTR $T514996[ebp]
  00028	50		 push	 eax
  00029	8d 8e 98 01 00
	00		 lea	 ecx, DWORD PTR [esi+408]
  0002f	c7 45 fc 07 00
	00 00		 mov	 DWORD PTR __$EHRec$[ebp+8], 7
  00036	e8 00 00 00 00	 call	 ?erase@?$vector@KV?$allocator@K@std@@@std@@QAE?AV?$_Vector_iterator@V?$_Vector_val@KV?$allocator@K@std@@@std@@@2@V?$_Vector_const_iterator@V?$_Vector_val@KV?$allocator@K@std@@@std@@@2@0@Z ; std::vector<unsigned long,std::allocator<unsigned long> >::erase

; 48   : 	m_EnableRaceList.clear();

  0003b	8d 8e ac 01 00
	00		 lea	 ecx, DWORD PTR [esi+428]
  00041	8b 41 04	 mov	 eax, DWORD PTR [ecx+4]
  00044	8b 11		 mov	 edx, DWORD PTR [ecx]
  00046	50		 push	 eax
  00047	52		 push	 edx
  00048	8d 45 ec	 lea	 eax, DWORD PTR $T515076[ebp]
  0004b	50		 push	 eax
  0004c	e8 00 00 00 00	 call	 ?erase@?$vector@W4RaceDetailType@@V?$allocator@W4RaceDetailType@@@std@@@std@@QAE?AV?$_Vector_iterator@V?$_Vector_val@W4RaceDetailType@@V?$allocator@W4RaceDetailType@@@std@@@std@@@2@V?$_Vector_const_iterator@V?$_Vector_val@W4RaceDetailType@@V?$allocator@W4RaceDetailType@@@std@@@std@@@2@0@Z ; std::vector<enum RaceDetailType,std::allocator<enum RaceDetailType> >::erase

; 49   : }

  00051	8b 3d 00 00 00
	00		 mov	 edi, DWORD PTR __imp_??1ioHashString@@QAE@XZ
  00057	8d 8e 20 05 00
	00		 lea	 ecx, DWORD PTR [esi+1312]
  0005d	ff d7		 call	 edi
  0005f	8d 8e 10 05 00
	00		 lea	 ecx, DWORD PTR [esi+1296]
  00065	c6 45 fc 06	 mov	 BYTE PTR __$EHRec$[ebp+8], 6
  00069	e8 00 00 00 00	 call	 ?_Tidy@?$vector@V?$basic_string@DU?$char_traits@D@std@@V?$allocator@D@2@@std@@V?$allocator@V?$basic_string@DU?$char_traits@D@std@@V?$allocator@D@2@@std@@@2@@std@@IAEXXZ ; std::vector<std::basic_string<char,std::char_traits<char>,std::allocator<char> >,std::allocator<std::basic_string<char,std::char_traits<char>,std::allocator<char> > > >::_Tidy
  0006e	8d 8e 00 05 00
	00		 lea	 ecx, DWORD PTR [esi+1280]
  00074	c6 45 fc 05	 mov	 BYTE PTR __$EHRec$[ebp+8], 5
  00078	ff d7		 call	 edi
  0007a	8d 8e f0 04 00
	00		 lea	 ecx, DWORD PTR [esi+1264]
  00080	c6 45 fc 04	 mov	 BYTE PTR __$EHRec$[ebp+8], 4
  00084	ff d7		 call	 edi
  00086	8d 8e e0 04 00
	00		 lea	 ecx, DWORD PTR [esi+1248]
  0008c	c6 45 fc 03	 mov	 BYTE PTR __$EHRec$[ebp+8], 3
  00090	ff d7		 call	 edi
  00092	8d 8e bc 01 00
	00		 lea	 ecx, DWORD PTR [esi+444]
  00098	c6 45 fc 02	 mov	 BYTE PTR __$EHRec$[ebp+8], 2
  0009c	e8 00 00 00 00	 call	 ??1CHARACTER@@QAE@XZ
  000a1	8d 8e ac 01 00
	00		 lea	 ecx, DWORD PTR [esi+428]
  000a7	c6 45 fc 01	 mov	 BYTE PTR __$EHRec$[ebp+8], 1
  000ab	e8 00 00 00 00	 call	 ?_Tidy@?$vector@W4RaceDetailType@@V?$allocator@W4RaceDetailType@@@std@@@std@@IAEXXZ ; std::vector<enum RaceDetailType,std::allocator<enum RaceDetailType> >::_Tidy
  000b0	8d 8e 98 01 00
	00		 lea	 ecx, DWORD PTR [esi+408]
  000b6	c6 45 fc 00	 mov	 BYTE PTR __$EHRec$[ebp+8], 0
  000ba	e8 00 00 00 00	 call	 ?_Tidy@?$vector@KV?$allocator@K@std@@@std@@IAEXXZ ; std::vector<unsigned long,std::allocator<unsigned long> >::_Tidy
  000bf	83 4d fc ff	 or	 DWORD PTR __$EHRec$[ebp+8], -1
  000c3	8b ce		 mov	 ecx, esi
  000c5	ff 15 00 00 00
	00		 call	 DWORD PTR __imp_??1ioMovingWnd@@UAE@XZ
  000cb	e8 00 00 00 00	 call	 __EH_epilog3
  000d0	c3		 ret	 0
_TEXT	ENDS
;	COMDAT text$x
text$x	SEGMENT
__unwindfunclet$??1ServiceCharWnd@@UAE@XZ$0:
  00000	8b 4d f0	 mov	 ecx, DWORD PTR _this$[ebp]
  00003	ff 25 00 00 00
	00		 jmp	 DWORD PTR __imp_??1ioMovingWnd@@UAE@XZ
__unwindfunclet$??1ServiceCharWnd@@UAE@XZ$1:
  00009	8b 4d f0	 mov	 ecx, DWORD PTR _this$[ebp]
  0000c	81 c1 98 01 00
	00		 add	 ecx, 408		; 00000198H
  00012	e9 00 00 00 00	 jmp	 ??1?$vector@KV?$allocator@K@std@@@std@@QAE@XZ ; std::vector<unsigned long,std::allocator<unsigned long> >::~vector<unsigned long,std::allocator<unsigned long> >
__unwindfunclet$??1ServiceCharWnd@@UAE@XZ$2:
  00017	8b 4d f0	 mov	 ecx, DWORD PTR _this$[ebp]
  0001a	81 c1 ac 01 00
	00		 add	 ecx, 428		; 000001acH
  00020	e9 00 00 00 00	 jmp	 ??1?$vector@W4RaceDetailType@@V?$allocator@W4RaceDetailType@@@std@@@std@@QAE@XZ ; std::vector<enum RaceDetailType,std::allocator<enum RaceDetailType> >::~vector<enum RaceDetailType,std::allocator<enum RaceDetailType> >
__unwindfunclet$??1ServiceCharWnd@@UAE@XZ$3:
  00025	8b 4d f0	 mov	 ecx, DWORD PTR _this$[ebp]
  00028	81 c1 bc 01 00
	00		 add	 ecx, 444		; 000001bcH
  0002e	e9 00 00 00 00	 jmp	 ??1CHARACTER@@QAE@XZ
__unwindfunclet$??1ServiceCharWnd@@UAE@XZ$4:
  00033	8b 4d f0	 mov	 ecx, DWORD PTR _this$[ebp]
  00036	81 c1 e0 04 00
	00		 add	 ecx, 1248		; 000004e0H
  0003c	ff 25 00 00 00
	00		 jmp	 DWORD PTR __imp_??1ioHashString@@QAE@XZ
__unwindfunclet$??1ServiceCharWnd@@UAE@XZ$5:
  00042	8b 4d f0	 mov	 ecx, DWORD PTR _this$[ebp]
  00045	81 c1 f0 04 00
	00		 add	 ecx, 1264		; 000004f0H
  0004b	ff 25 00 00 00
	00		 jmp	 DWORD PTR __imp_??1ioHashString@@QAE@XZ
__unwindfunclet$??1ServiceCharWnd@@UAE@XZ$6:
  00051	8b 4d f0	 mov	 ecx, DWORD PTR _this$[ebp]
  00054	81 c1 00 05 00
	00		 add	 ecx, 1280		; 00000500H
  0005a	ff 25 00 00 00
	00		 jmp	 DWORD PTR __imp_??1ioHashString@@QAE@XZ
__unwindfunclet$??1ServiceCharWnd@@UAE@XZ$7:
  00060	8b 4d f0	 mov	 ecx, DWORD PTR _this$[ebp]
  00063	81 c1 10 05 00
	00		 add	 ecx, 1296		; 00000510H
  00069	e9 00 00 00 00	 jmp	 ??1?$vector@V?$basic_string@DU?$char_traits@D@std@@V?$allocator@D@2@@std@@V?$allocator@V?$basic_string@DU?$char_traits@D@std@@V?$allocator@D@2@@std@@@2@@std@@QAE@XZ ; std::vector<std::basic_string<char,std::char_traits<char>,std::allocator<char> >,std::allocator<std::basic_string<char,std::char_traits<char>,std::allocator<char> > > >::~vector<std::basic_string<char,std::char_traits<char>,std::allocator<char> >,std::allocator<std::basic_string<char,std::char_traits<char>,std::allocator<char> > > >
__ehhandler$??1ServiceCharWnd@@UAE@XZ:
  0006e	8b 54 24 08	 mov	 edx, DWORD PTR [esp+8]
  00072	8d 42 0c	 lea	 eax, DWORD PTR [edx+12]
  00075	8b 4a e8	 mov	 ecx, DWORD PTR [edx-24]
  00078	33 c8		 xor	 ecx, eax
  0007a	e8 00 00 00 00	 call	 @__security_check_cookie@4
  0007f	b8 00 00 00 00	 mov	 eax, OFFSET __ehfuncinfo$??1ServiceCharWnd@@UAE@XZ
  00084	e9 00 00 00 00	 jmp	 ___CxxFrameHandler3
text$x	ENDS
??1ServiceCharWnd@@UAE@XZ ENDP				; ServiceCharWnd::~ServiceCharWnd
PUBLIC	??4?$vector@V?$basic_string@DU?$char_traits@D@std@@V?$allocator@D@2@@std@@V?$allocator@V?$basic_string@DU?$char_traits@D@std@@V?$allocator@D@2@@std@@@2@@std@@QAEAAV01@ABV01@@Z ; std::vector<std::basic_string<char,std::char_traits<char>,std::allocator<char> >,std::allocator<std::basic_string<char,std::char_traits<char>,std::allocator<char> > > >::operator=
; Function compile flags: /Ogsp
; File c:\program files (x86)\microsoft visual studio 10.0\vc\include\vector
;	COMDAT ??4?$vector@V?$basic_string@DU?$char_traits@D@std@@V?$allocator@D@2@@std@@V?$allocator@V?$basic_string@DU?$char_traits@D@std@@V?$allocator@D@2@@std@@@2@@std@@QAEAAV01@ABV01@@Z
_TEXT	SEGMENT
tv551 = 8						; size = 4
__Cat$515349 = 8					; size = 1
__Cat$515317 = 8					; size = 1
__Cat$515294 = 8					; size = 1
__Cat$515272 = 8					; size = 1
__Cat$515246 = 8					; size = 1
__Cat$515223 = 8					; size = 1
$T515190 = 8						; size = 4
__Right$ = 8						; size = 4
??4?$vector@V?$basic_string@DU?$char_traits@D@std@@V?$allocator@D@2@@std@@V?$allocator@V?$basic_string@DU?$char_traits@D@std@@V?$allocator@D@2@@std@@@2@@std@@QAEAAV01@ABV01@@Z PROC ; std::vector<std::basic_string<char,std::char_traits<char>,std::allocator<char> >,std::allocator<std::basic_string<char,std::char_traits<char>,std::allocator<char> > > >::operator=, COMDAT
; _this$ = ecx

; 709  : 		{	// assign _Right

  00000	55		 push	 ebp
  00001	8b ec		 mov	 ebp, esp
  00003	56		 push	 esi
  00004	57		 push	 edi

; 710  : 		if (this != &_Right)

  00005	8b 7d 08	 mov	 edi, DWORD PTR __Right$[ebp]
  00008	8b f1		 mov	 esi, ecx
  0000a	3b f7		 cmp	 esi, edi
  0000c	0f 84 09 01 00
	00		 je	 $LN1@operator

; 711  : 			{	// worth doing
; 712  : 			this->_Orphan_all();

  00012	ff 15 00 00 00
	00		 call	 DWORD PTR __imp_?_Orphan_all@_Container_base0@std@@QAEXXZ

; 713  : 
; 714  : 			if (_Right.size() == 0)

  00018	8b 47 04	 mov	 eax, DWORD PTR [edi+4]
  0001b	2b 07		 sub	 eax, DWORD PTR [edi]
  0001d	6a 1c		 push	 28			; 0000001cH
  0001f	99		 cdq
  00020	59		 pop	 ecx
  00021	f7 f9		 idiv	 ecx
  00023	89 45 08	 mov	 DWORD PTR tv551[ebp], eax
  00026	85 c0		 test	 eax, eax

; 715  : 				clear();	// new sequence empty, erase existing sequence

  00028	8b 46 04	 mov	 eax, DWORD PTR [esi+4]
  0002b	75 14		 jne	 SHORT $LN8@operator
  0002d	8b 0e		 mov	 ecx, DWORD PTR [esi]
  0002f	50		 push	 eax
  00030	51		 push	 ecx
  00031	8d 45 08	 lea	 eax, DWORD PTR $T515190[ebp]
  00034	50		 push	 eax
  00035	8b ce		 mov	 ecx, esi
  00037	e8 00 00 00 00	 call	 ?erase@?$vector@V?$basic_string@DU?$char_traits@D@std@@V?$allocator@D@2@@std@@V?$allocator@V?$basic_string@DU?$char_traits@D@std@@V?$allocator@D@2@@std@@@2@@std@@QAE?AV?$_Vector_iterator@V?$_Vector_val@V?$basic_string@DU?$char_traits@D@std@@V?$allocator@D@2@@std@@V?$allocator@V?$basic_string@DU?$char_traits@D@std@@V?$allocator@D@2@@std@@@2@@std@@@2@V?$_Vector_const_iterator@V?$_Vector_val@V?$basic_string@DU?$char_traits@D@std@@V?$allocator@D@2@@std@@V?$allocator@V?$basic_string@DU?$char_traits@D@std@@V?$allocator@D@2@@std@@@2@@std@@@2@0@Z ; std::vector<std::basic_string<char,std::char_traits<char>,std::allocator<char> >,std::allocator<std::basic_string<char,std::char_traits<char>,std::allocator<char> > > >::erase

; 716  : 			else if (_Right.size() <= size())

  0003c	e9 da 00 00 00	 jmp	 $LN1@operator
$LN8@operator:
  00041	53		 push	 ebx
  00042	8b 1e		 mov	 ebx, DWORD PTR [esi]
  00044	2b c3		 sub	 eax, ebx
  00046	6a 1c		 push	 28			; 0000001cH
  00048	99		 cdq
  00049	59		 pop	 ecx
  0004a	f7 f9		 idiv	 ecx
  0004c	8b c8		 mov	 ecx, eax
  0004e	39 4d 08	 cmp	 DWORD PTR tv551[ebp], ecx
  00051	77 36		 ja	 SHORT $LN6@operator

; 717  : 				{	// enough elements, copy new and destroy old
; 718  : 				pointer _Ptr = _STD _Copy_impl(_Right._Myfirst, _Right._Mylast,
; 719  : 					this->_Myfirst);	// copy new

  00053	ff 75 08	 push	 DWORD PTR __Cat$515223[ebp]
  00056	53		 push	 ebx
  00057	ff 77 04	 push	 DWORD PTR [edi+4]
  0005a	ff 37		 push	 DWORD PTR [edi]
  0005c	e8 00 00 00 00	 call	 ??$_Copy_impl@PAV?$basic_string@DU?$char_traits@D@std@@V?$allocator@D@2@@std@@PAV12@@std@@YAPAV?$basic_string@DU?$char_traits@D@std@@V?$allocator@D@2@@0@PAV10@00U_Nonscalar_ptr_iterator_tag@0@@Z ; std::_Copy_impl<std::basic_string<char,std::char_traits<char>,std::allocator<char> > *,std::basic_string<char,std::char_traits<char>,std::allocator<char> > *>

; 720  : 				_Destroy(_Ptr, this->_Mylast);	// destroy old

  00061	ff 75 08	 push	 DWORD PTR __Cat$515246[ebp]
  00064	8d 4e 0c	 lea	 ecx, DWORD PTR [esi+12]
  00067	51		 push	 ecx
  00068	ff 76 04	 push	 DWORD PTR [esi+4]
  0006b	50		 push	 eax
  0006c	e8 00 00 00 00	 call	 ??$_Destroy_range@V?$allocator@V?$basic_string@DU?$char_traits@D@std@@V?$allocator@D@2@@std@@@std@@@std@@YAXPAV?$basic_string@DU?$char_traits@D@std@@V?$allocator@D@2@@0@0AAV?$allocator@V?$basic_string@DU?$char_traits@D@std@@V?$allocator@D@2@@std@@@0@U_Nonscalar_ptr_iterator_tag@0@@Z ; std::_Destroy_range<std::allocator<std::basic_string<char,std::char_traits<char>,std::allocator<char> > > >

; 721  : 				this->_Mylast = this->_Myfirst + _Right.size();

  00071	8b 47 04	 mov	 eax, DWORD PTR [edi+4]
  00074	2b 07		 sub	 eax, DWORD PTR [edi]
  00076	83 c4 20	 add	 esp, 32			; 00000020H
  00079	99		 cdq
  0007a	6a 1c		 push	 28			; 0000001cH
  0007c	59		 pop	 ecx
  0007d	f7 f9		 idiv	 ecx
  0007f	6b c0 1c	 imul	 eax, 28			; 0000001cH
  00082	03 06		 add	 eax, DWORD PTR [esi]

; 722  : 				}
; 723  : 			else if (_Right.size() <= capacity())

  00084	e9 8e 00 00 00	 jmp	 $LN81@operator
$LN6@operator:
  00089	8b 46 08	 mov	 eax, DWORD PTR [esi+8]
  0008c	2b c3		 sub	 eax, ebx
  0008e	6a 1c		 push	 28			; 0000001cH
  00090	99		 cdq
  00091	5b		 pop	 ebx
  00092	f7 fb		 idiv	 ebx
  00094	39 45 08	 cmp	 DWORD PTR tv551[ebp], eax
  00097	77 2e		 ja	 SHORT $LN4@operator

; 724  : 				{	// enough room, copy and construct new
; 725  : 				pointer _Ptr = _Right._Myfirst + size();
; 726  : 				_STD _Copy_impl(_Right._Myfirst, _Ptr, this->_Myfirst);

  00099	ff 75 08	 push	 DWORD PTR __Cat$515272[ebp]
  0009c	6b c9 1c	 imul	 ecx, 28			; 0000001cH
  0009f	8b 07		 mov	 eax, DWORD PTR [edi]
  000a1	ff 36		 push	 DWORD PTR [esi]
  000a3	8d 1c 08	 lea	 ebx, DWORD PTR [eax+ecx]
  000a6	53		 push	 ebx
  000a7	50		 push	 eax
  000a8	e8 00 00 00 00	 call	 ??$_Copy_impl@PAV?$basic_string@DU?$char_traits@D@std@@V?$allocator@D@2@@std@@PAV12@@std@@YAPAV?$basic_string@DU?$char_traits@D@std@@V?$allocator@D@2@@0@PAV10@00U_Nonscalar_ptr_iterator_tag@0@@Z ; std::_Copy_impl<std::basic_string<char,std::char_traits<char>,std::allocator<char> > *,std::basic_string<char,std::char_traits<char>,std::allocator<char> > *>

; 727  : 				this->_Mylast = _Ucopy(_Ptr, _Right._Mylast, this->_Mylast);

  000ad	ff 75 08	 push	 DWORD PTR __Cat$515294[ebp]
  000b0	8b 46 04	 mov	 eax, DWORD PTR [esi+4]
  000b3	8b 7f 04	 mov	 edi, DWORD PTR [edi+4]
  000b6	8d 4e 0c	 lea	 ecx, DWORD PTR [esi+12]
  000b9	51		 push	 ecx
  000ba	50		 push	 eax
  000bb	57		 push	 edi
  000bc	53		 push	 ebx
  000bd	e8 00 00 00 00	 call	 ??$_Uninit_copy@PAV?$basic_string@DU?$char_traits@D@std@@V?$allocator@D@2@@std@@PAV12@V?$allocator@V?$basic_string@DU?$char_traits@D@std@@V?$allocator@D@2@@std@@@2@@std@@YAPAV?$basic_string@DU?$char_traits@D@std@@V?$allocator@D@2@@0@PAV10@00AAV?$allocator@V?$basic_string@DU?$char_traits@D@std@@V?$allocator@D@2@@std@@@0@U_Nonscalar_ptr_iterator_tag@0@@Z ; std::_Uninit_copy<std::basic_string<char,std::char_traits<char>,std::allocator<char> > *,std::basic_string<char,std::char_traits<char>,std::allocator<char> > *,std::allocator<std::basic_string<char,std::char_traits<char>,std::allocator<char> > > >
  000c2	83 c4 24	 add	 esp, 36			; 00000024H

; 728  : 				}
; 729  : 			else

  000c5	eb 50		 jmp	 SHORT $LN81@operator
$LN4@operator:

; 730  : 				{	// not enough room, allocate new array and construct new
; 731  : 				if (this->_Myfirst != 0)

  000c7	8b 06		 mov	 eax, DWORD PTR [esi]
  000c9	85 c0		 test	 eax, eax
  000cb	74 1a		 je	 SHORT $LN70@operator

; 732  : 					{	// discard old array
; 733  : 					_Destroy(this->_Myfirst, this->_Mylast);

  000cd	ff 75 08	 push	 DWORD PTR __Cat$515317[ebp]
  000d0	8d 4e 0c	 lea	 ecx, DWORD PTR [esi+12]
  000d3	51		 push	 ecx
  000d4	ff 76 04	 push	 DWORD PTR [esi+4]
  000d7	50		 push	 eax
  000d8	e8 00 00 00 00	 call	 ??$_Destroy_range@V?$allocator@V?$basic_string@DU?$char_traits@D@std@@V?$allocator@D@2@@std@@@std@@@std@@YAXPAV?$basic_string@DU?$char_traits@D@std@@V?$allocator@D@2@@0@0AAV?$allocator@V?$basic_string@DU?$char_traits@D@std@@V?$allocator@D@2@@std@@@0@U_Nonscalar_ptr_iterator_tag@0@@Z ; std::_Destroy_range<std::allocator<std::basic_string<char,std::char_traits<char>,std::allocator<char> > > >

; 734  : 					this->_Alval.deallocate(this->_Myfirst,
; 735  : 						this->_Myend - this->_Myfirst);

  000dd	ff 36		 push	 DWORD PTR [esi]
  000df	e8 00 00 00 00	 call	 ??3@YAXPAX@Z		; operator delete
  000e4	83 c4 14	 add	 esp, 20			; 00000014H
$LN70@operator:

; 736  : 					}
; 737  : 				if (_Buy(_Right.size()))

  000e7	8b 47 04	 mov	 eax, DWORD PTR [edi+4]
  000ea	2b 07		 sub	 eax, DWORD PTR [edi]
  000ec	6a 1c		 push	 28			; 0000001cH
  000ee	59		 pop	 ecx
  000ef	99		 cdq
  000f0	f7 f9		 idiv	 ecx
  000f2	8b ce		 mov	 ecx, esi
  000f4	50		 push	 eax
  000f5	e8 00 00 00 00	 call	 ?_Buy@?$vector@V?$basic_string@DU?$char_traits@D@std@@V?$allocator@D@2@@std@@V?$allocator@V?$basic_string@DU?$char_traits@D@std@@V?$allocator@D@2@@std@@@2@@std@@IAE_NI@Z ; std::vector<std::basic_string<char,std::char_traits<char>,std::allocator<char> >,std::allocator<std::basic_string<char,std::char_traits<char>,std::allocator<char> > > >::_Buy
  000fa	84 c0		 test	 al, al
  000fc	74 1c		 je	 SHORT $LN80@operator

; 738  : 					this->_Mylast = _Ucopy(_Right._Myfirst, _Right._Mylast,
; 739  : 						this->_Myfirst);

  000fe	ff 75 08	 push	 DWORD PTR __Cat$515349[ebp]
  00101	8b 06		 mov	 eax, DWORD PTR [esi]
  00103	8b 4f 04	 mov	 ecx, DWORD PTR [edi+4]
  00106	8b 3f		 mov	 edi, DWORD PTR [edi]
  00108	8d 56 0c	 lea	 edx, DWORD PTR [esi+12]
  0010b	52		 push	 edx
  0010c	50		 push	 eax
  0010d	51		 push	 ecx
  0010e	57		 push	 edi
  0010f	e8 00 00 00 00	 call	 ??$_Uninit_copy@PAV?$basic_string@DU?$char_traits@D@std@@V?$allocator@D@2@@std@@PAV12@V?$allocator@V?$basic_string@DU?$char_traits@D@std@@V?$allocator@D@2@@std@@@2@@std@@YAPAV?$basic_string@DU?$char_traits@D@std@@V?$allocator@D@2@@0@PAV10@00AAV?$allocator@V?$basic_string@DU?$char_traits@D@std@@V?$allocator@D@2@@std@@@0@U_Nonscalar_ptr_iterator_tag@0@@Z ; std::_Uninit_copy<std::basic_string<char,std::char_traits<char>,std::allocator<char> > *,std::basic_string<char,std::char_traits<char>,std::allocator<char> > *,std::allocator<std::basic_string<char,std::char_traits<char>,std::allocator<char> > > >
  00114	83 c4 14	 add	 esp, 20			; 00000014H
$LN81@operator:
  00117	89 46 04	 mov	 DWORD PTR [esi+4], eax
$LN80@operator:
  0011a	5b		 pop	 ebx
$LN1@operator:
  0011b	5f		 pop	 edi

; 740  : 				}
; 741  : 			}
; 742  : 		return (*this);

  0011c	8b c6		 mov	 eax, esi
  0011e	5e		 pop	 esi

; 743  : 		}

  0011f	5d		 pop	 ebp
  00120	c2 04 00	 ret	 4
??4?$vector@V?$basic_string@DU?$char_traits@D@std@@V?$allocator@D@2@@std@@V?$allocator@V?$basic_string@DU?$char_traits@D@std@@V?$allocator@D@2@@std@@@2@@std@@QAEAAV01@ABV01@@Z ENDP ; std::vector<std::basic_string<char,std::char_traits<char>,std::allocator<char> >,std::allocator<std::basic_string<char,std::char_traits<char>,std::allocator<char> > > >::operator=
; Function compile flags: /Ogsp
_TEXT	ENDS
;	COMDAT ??_GServiceCharWnd@@UAEPAXI@Z
_TEXT	SEGMENT
___flags$ = 8						; size = 4
??_GServiceCharWnd@@UAEPAXI@Z PROC			; ServiceCharWnd::`scalar deleting destructor', COMDAT
; _this$ = ecx
  00000	55		 push	 ebp
  00001	8b ec		 mov	 ebp, esp
  00003	56		 push	 esi
  00004	8b f1		 mov	 esi, ecx
  00006	e8 00 00 00 00	 call	 ??1ServiceCharWnd@@UAE@XZ ; ServiceCharWnd::~ServiceCharWnd
  0000b	f6 45 08 01	 test	 BYTE PTR ___flags$[ebp], 1
  0000f	74 07		 je	 SHORT $LN1@scalar@4
  00011	56		 push	 esi
  00012	e8 00 00 00 00	 call	 ??3@YAXPAX@Z		; operator delete
  00017	59		 pop	 ecx
$LN1@scalar@4:
  00018	8b c6		 mov	 eax, esi
  0001a	5e		 pop	 esi
  0001b	5d		 pop	 ebp
  0001c	c2 04 00	 ret	 4
??_GServiceCharWnd@@UAEPAXI@Z ENDP			; ServiceCharWnd::`scalar deleting destructor'
_TEXT	ENDS
PUBLIC	??_C@_01IPJKGB@?$CD?$AA@			; `string'
PUBLIC	_szDesc$GSCopy$
PUBLIC	?SplitDescription@ServiceCharWnd@@IAEXABVioHashString@@@Z ; ServiceCharWnd::SplitDescription
EXTRN	__imp_?Split@ioStringConverter@@SAABV?$vector@V?$basic_string@DU?$char_traits@D@std@@V?$allocator@D@2@@std@@V?$allocator@V?$basic_string@DU?$char_traits@D@std@@V?$allocator@D@2@@std@@@2@@std@@ABV?$basic_string@DU?$char_traits@D@std@@V?$allocator@D@2@@3@0H@Z:PROC
;	COMDAT ??_C@_01IPJKGB@?$CD?$AA@
; File c:\program files (x86)\microsoft visual studio 10.0\vc\include\xstring
CONST	SEGMENT
??_C@_01IPJKGB@?$CD?$AA@ DB '#', 00H			; `string'
CONST	ENDS
;	COMDAT xdata$x
xdata$x	SEGMENT
__unwindtable$?SplitDescription@ServiceCharWnd@@IAEXABVioHashString@@@Z DD 0ffffffffH
	DD	FLAT:__unwindfunclet$?SplitDescription@ServiceCharWnd@@IAEXABVioHashString@@@Z$0
	DD	00H
	DD	FLAT:__unwindfunclet$?SplitDescription@ServiceCharWnd@@IAEXABVioHashString@@@Z$1
__ehfuncinfo$?SplitDescription@ServiceCharWnd@@IAEXABVioHashString@@@Z DD 019930522H
	DD	02H
	DD	FLAT:__unwindtable$?SplitDescription@ServiceCharWnd@@IAEXABVioHashString@@@Z
	DD	2 DUP(00H)
	DD	2 DUP(00H)
	DD	00H
	DD	01H
; Function compile flags: /Ogsp
; File d:\lost saga for developer\youtube\tutorial\source\src\lsclient\gui\servicecharwnd.cpp
xdata$x	ENDS
;	COMDAT ?SplitDescription@ServiceCharWnd@@IAEXABVioHashString@@@Z
_TEXT	SEGMENT
$T515426 = -80						; size = 4
_szDesc$GSCopy$ = -76					; size = 4
$T506705 = -72						; size = 28
$T506706 = -44						; size = 28
__$EHRec$ = -12						; size = 12
_szDesc$ = 8						; size = 4
?SplitDescription@ServiceCharWnd@@IAEXABVioHashString@@@Z PROC ; ServiceCharWnd::SplitDescription, COMDAT
; _this$ = ecx

; 287  : {

  00000	6a 44		 push	 68			; 00000044H
  00002	b8 00 00 00 00	 mov	 eax, __ehhandler$?SplitDescription@ServiceCharWnd@@IAEXABVioHashString@@@Z
  00007	e8 00 00 00 00	 call	 __EH_prolog3_GS
  0000c	8b 45 08	 mov	 eax, DWORD PTR _szDesc$[ebp]
  0000f	8b f1		 mov	 esi, ecx

; 288  : 	m_DescList.clear();

  00011	8b 8e 10 05 00
	00		 mov	 ecx, DWORD PTR [esi+1296]
  00017	89 45 b4	 mov	 DWORD PTR _szDesc$GSCopy$[ebp], eax
  0001a	8b 86 14 05 00
	00		 mov	 eax, DWORD PTR [esi+1300]
  00020	50		 push	 eax
  00021	51		 push	 ecx
  00022	8d 45 b0	 lea	 eax, DWORD PTR $T515426[ebp]
  00025	50		 push	 eax
  00026	8d 8e 10 05 00
	00		 lea	 ecx, DWORD PTR [esi+1296]
  0002c	e8 00 00 00 00	 call	 ?erase@?$vector@V?$basic_string@DU?$char_traits@D@std@@V?$allocator@D@2@@std@@V?$allocator@V?$basic_string@DU?$char_traits@D@std@@V?$allocator@D@2@@std@@@2@@std@@QAE?AV?$_Vector_iterator@V?$_Vector_val@V?$basic_string@DU?$char_traits@D@std@@V?$allocator@D@2@@std@@V?$allocator@V?$basic_string@DU?$char_traits@D@std@@V?$allocator@D@2@@std@@@2@@std@@@2@V?$_Vector_const_iterator@V?$_Vector_val@V?$basic_string@DU?$char_traits@D@std@@V?$allocator@D@2@@std@@V?$allocator@V?$basic_string@DU?$char_traits@D@std@@V?$allocator@D@2@@std@@@2@@std@@@2@0@Z ; std::vector<std::basic_string<char,std::char_traits<char>,std::allocator<char> >,std::allocator<std::basic_string<char,std::char_traits<char>,std::allocator<char> > > >::erase

; 289  : 	m_DescList = ioStringConverter::Split( szDesc.c_str(), "#" );

  00031	6a 0f		 push	 15			; 0000000fH
  00033	5f		 pop	 edi
  00034	6a 01		 push	 1
  00036	33 db		 xor	 ebx, ebx
  00038	68 00 00 00 00	 push	 OFFSET ??_C@_01IPJKGB@?$CD?$AA@
  0003d	8d 4d b8	 lea	 ecx, DWORD PTR $T506705[ebp]
  00040	89 7d cc	 mov	 DWORD PTR $T506705[ebp+20], edi
  00043	89 5d c8	 mov	 DWORD PTR $T506705[ebp+16], ebx
  00046	88 5d b8	 mov	 BYTE PTR $T506705[ebp], bl
  00049	e8 00 00 00 00	 call	 ?assign@?$basic_string@DU?$char_traits@D@std@@V?$allocator@D@2@@std@@QAEAAV12@PBDI@Z ; std::basic_string<char,std::char_traits<char>,std::allocator<char> >::assign
  0004e	8b 4d b4	 mov	 ecx, DWORD PTR _szDesc$GSCopy$[ebp]
  00051	89 5d fc	 mov	 DWORD PTR __$EHRec$[ebp+8], ebx
  00054	ff 15 00 00 00
	00		 call	 DWORD PTR __imp_?c_str@ioHashString@@QBEPBDXZ
  0005a	50		 push	 eax
  0005b	8d 4d d4	 lea	 ecx, DWORD PTR $T506706[ebp]
  0005e	89 7d e8	 mov	 DWORD PTR $T506706[ebp+20], edi
  00061	89 5d e4	 mov	 DWORD PTR $T506706[ebp+16], ebx
  00064	88 5d d4	 mov	 BYTE PTR $T506706[ebp], bl
  00067	e8 00 00 00 00	 call	 ?assign@?$basic_string@DU?$char_traits@D@std@@V?$allocator@D@2@@std@@QAEAAV12@PBD@Z ; std::basic_string<char,std::char_traits<char>,std::allocator<char> >::assign
  0006c	53		 push	 ebx
  0006d	8d 45 b8	 lea	 eax, DWORD PTR $T506705[ebp]
  00070	50		 push	 eax
  00071	8d 45 d4	 lea	 eax, DWORD PTR $T506706[ebp]
  00074	50		 push	 eax
  00075	c6 45 fc 01	 mov	 BYTE PTR __$EHRec$[ebp+8], 1
  00079	ff 15 00 00 00
	00		 call	 DWORD PTR __imp_?Split@ioStringConverter@@SAABV?$vector@V?$basic_string@DU?$char_traits@D@std@@V?$allocator@D@2@@std@@V?$allocator@V?$basic_string@DU?$char_traits@D@std@@V?$allocator@D@2@@std@@@2@@std@@ABV?$basic_string@DU?$char_traits@D@std@@V?$allocator@D@2@@3@0H@Z
  0007f	83 c4 0c	 add	 esp, 12			; 0000000cH
  00082	50		 push	 eax
  00083	8d 8e 10 05 00
	00		 lea	 ecx, DWORD PTR [esi+1296]
  00089	e8 00 00 00 00	 call	 ??4?$vector@V?$basic_string@DU?$char_traits@D@std@@V?$allocator@D@2@@std@@V?$allocator@V?$basic_string@DU?$char_traits@D@std@@V?$allocator@D@2@@std@@@2@@std@@QAEAAV01@ABV01@@Z ; std::vector<std::basic_string<char,std::char_traits<char>,std::allocator<char> >,std::allocator<std::basic_string<char,std::char_traits<char>,std::allocator<char> > > >::operator=
  0008e	53		 push	 ebx
  0008f	6a 01		 push	 1
  00091	8d 4d d4	 lea	 ecx, DWORD PTR $T506706[ebp]
  00094	e8 00 00 00 00	 call	 ?_Tidy@?$basic_string@DU?$char_traits@D@std@@V?$allocator@D@2@@std@@QAEX_NI@Z ; std::basic_string<char,std::char_traits<char>,std::allocator<char> >::_Tidy
  00099	53		 push	 ebx
  0009a	6a 01		 push	 1
  0009c	8d 4d b8	 lea	 ecx, DWORD PTR $T506705[ebp]
  0009f	e8 00 00 00 00	 call	 ?_Tidy@?$basic_string@DU?$char_traits@D@std@@V?$allocator@D@2@@std@@QAEX_NI@Z ; std::basic_string<char,std::char_traits<char>,std::allocator<char> >::_Tidy

; 290  : }

  000a4	e8 00 00 00 00	 call	 __EH_epilog3_GS
  000a9	c2 04 00	 ret	 4
_TEXT	ENDS
;	COMDAT text$x
text$x	SEGMENT
__unwindfunclet$?SplitDescription@ServiceCharWnd@@IAEXABVioHashString@@@Z$0:
  00000	8d 4d b8	 lea	 ecx, DWORD PTR $T506705[ebp]
  00003	e9 00 00 00 00	 jmp	 ??1?$basic_string@DU?$char_traits@D@std@@V?$allocator@D@2@@std@@QAE@XZ ; std::basic_string<char,std::char_traits<char>,std::allocator<char> >::~basic_string<char,std::char_traits<char>,std::allocator<char> >
__unwindfunclet$?SplitDescription@ServiceCharWnd@@IAEXABVioHashString@@@Z$1:
  00008	8d 4d d4	 lea	 ecx, DWORD PTR $T506706[ebp]
  0000b	e9 00 00 00 00	 jmp	 ??1?$basic_string@DU?$char_traits@D@std@@V?$allocator@D@2@@std@@QAE@XZ ; std::basic_string<char,std::char_traits<char>,std::allocator<char> >::~basic_string<char,std::char_traits<char>,std::allocator<char> >
__ehhandler$?SplitDescription@ServiceCharWnd@@IAEXABVioHashString@@@Z:
  00010	8b 54 24 08	 mov	 edx, DWORD PTR [esp+8]
  00014	8d 42 0c	 lea	 eax, DWORD PTR [edx+12]
  00017	8b 4a ac	 mov	 ecx, DWORD PTR [edx-84]
  0001a	33 c8		 xor	 ecx, eax
  0001c	e8 00 00 00 00	 call	 @__security_check_cookie@4
  00021	8b 4a fc	 mov	 ecx, DWORD PTR [edx-4]
  00024	33 c8		 xor	 ecx, eax
  00026	e8 00 00 00 00	 call	 @__security_check_cookie@4
  0002b	b8 00 00 00 00	 mov	 eax, OFFSET __ehfuncinfo$?SplitDescription@ServiceCharWnd@@IAEXABVioHashString@@@Z
  00030	e9 00 00 00 00	 jmp	 ___CxxFrameHandler3
text$x	ENDS
?SplitDescription@ServiceCharWnd@@IAEXABVioHashString@@@Z ENDP ; ServiceCharWnd::SplitDescription
EXTRN	__imp_?SetTitleText@ioWnd@@QAEXPBD0H@Z:PROC
EXTRN	__imp_??0ioHashString@@QAE@PBD@Z:PROC
EXTRN	__imp_?ShowChildWnd@ioWnd@@QAEXK_N@Z:PROC
EXTRN	__imp_?SetChildInActive@ioWnd@@QAEXK@Z:PROC
;	COMDAT xdata$x
xdata$x	SEGMENT
__unwindtable$?iwm_show@ServiceCharWnd@@UAEXXZ DD 0ffffffffH
	DD	FLAT:__unwindfunclet$?iwm_show@ServiceCharWnd@@UAEXXZ$0
	DD	00H
	DD	FLAT:__unwindfunclet$?iwm_show@ServiceCharWnd@@UAEXXZ$1
__ehfuncinfo$?iwm_show@ServiceCharWnd@@UAEXXZ DD 019930522H
	DD	02H
	DD	FLAT:__unwindtable$?iwm_show@ServiceCharWnd@@UAEXXZ
	DD	2 DUP(00H)
	DD	2 DUP(00H)
	DD	00H
	DD	01H
; Function compile flags: /Ogsp
xdata$x	ENDS
;	COMDAT ?iwm_show@ServiceCharWnd@@UAEXXZ
_TEXT	SEGMENT
tv5683 = -1216						; size = 4
_value$515717 = -1212					; size = 4
_pFirstHire$ = -1212					; size = 4
tv2825 = -1208						; size = 4
_value$515713 = -1208					; size = 4
_value$515709 = -1208					; size = 4
_value$515705 = -1208					; size = 4
_value$515701 = -1208					; size = 4
_value$515697 = -1208					; size = 4
_value$515693 = -1208					; size = 4
_value$515689 = -1208					; size = 4
_value$515685 = -1208					; size = 4
_value$515681 = -1208					; size = 4
_value$515677 = -1208					; size = 4
_kLoader$ = -1204					; size = 912
_szBuf$ = -292						; size = 260
__k$516469 = -32					; size = 10
__k$516438 = -32					; size = 9
$T515671 = -32						; size = 16
__k$516232 = -28					; size = 5
__k$516094 = -28					; size = 6
__t$515969 = -28					; size = 8
__$EHRec$ = -12						; size = 12
?iwm_show@ServiceCharWnd@@UAEXXZ PROC			; ServiceCharWnd::iwm_show, COMDAT
; _this$ = ecx

; 68   : {

  00000	68 b4 04 00 00	 push	 1204			; 000004b4H
  00005	b8 00 00 00 00	 mov	 eax, __ehhandler$?iwm_show@ServiceCharWnd@@UAEXXZ
  0000a	e8 00 00 00 00	 call	 __EH_prolog3_GS

; 69   : 	SetChildInActive( ID_EXIT );

  0000f	33 ff		 xor	 edi, edi
  00011	47		 inc	 edi
  00012	57		 push	 edi
  00013	8b f1		 mov	 esi, ecx
  00015	ff 15 00 00 00
	00		 call	 DWORD PTR __imp_?SetChildInActive@ioWnd@@QAEXK@Z

; 70   : 	m_iClassSelect      = 0;

  0001b	33 db		 xor	 ebx, ebx

; 71   : 	m_iCurRaceDetailIdx = 0;
; 72   : 
; 73   : 	m_CharInfo.m_class_type  = 0;

  0001d	8d 85 48 fb ff
	ff		 lea	 eax, DWORD PTR _value$515677[ebp]
  00023	50		 push	 eax
  00024	8d 8e bc 01 00
	00		 lea	 ecx, DWORD PTR [esi+444]
  0002a	89 9e 94 01 00
	00		 mov	 DWORD PTR [esi+404], ebx
  00030	89 9e a8 01 00
	00		 mov	 DWORD PTR [esi+424], ebx
  00036	89 9d 48 fb ff
	ff		 mov	 DWORD PTR _value$515677[ebp], ebx
  0003c	e8 00 00 00 00	 call	 ?EncryptValueToPool@?$CEncrypt@H@@AAEXPBD@Z ; CEncrypt<int>::EncryptValueToPool

; 74   : 	m_CharInfo.m_kindred	 = 0;

  00041	8d 85 48 fb ff
	ff		 lea	 eax, DWORD PTR _value$515681[ebp]
  00047	50		 push	 eax
  00048	8d 8e ec 01 00
	00		 lea	 ecx, DWORD PTR [esi+492]
  0004e	89 9d 48 fb ff
	ff		 mov	 DWORD PTR _value$515681[ebp], ebx
  00054	e8 00 00 00 00	 call	 ?EncryptValueToPool@?$CEncrypt@H@@AAEXPBD@Z ; CEncrypt<int>::EncryptValueToPool

; 75   : 	m_CharInfo.m_sex		 = 0;

  00059	8d 85 48 fb ff
	ff		 lea	 eax, DWORD PTR _value$515685[ebp]
  0005f	50		 push	 eax
  00060	8d 8e 1c 02 00
	00		 lea	 ecx, DWORD PTR [esi+540]
  00066	89 9d 48 fb ff
	ff		 mov	 DWORD PTR _value$515685[ebp], ebx
  0006c	e8 00 00 00 00	 call	 ?EncryptValueToPool@?$CEncrypt@H@@AAEXPBD@Z ; CEncrypt<int>::EncryptValueToPool

; 76   : 	m_CharInfo.m_beard		 = 1;

  00071	8d 85 48 fb ff
	ff		 lea	 eax, DWORD PTR _value$515689[ebp]
  00077	50		 push	 eax
  00078	8d 8e 4c 02 00
	00		 lea	 ecx, DWORD PTR [esi+588]
  0007e	89 bd 48 fb ff
	ff		 mov	 DWORD PTR _value$515689[ebp], edi
  00084	e8 00 00 00 00	 call	 ?EncryptValueToPool@?$CEncrypt@H@@AAEXPBD@Z ; CEncrypt<int>::EncryptValueToPool

; 77   : 	m_CharInfo.m_face		 = 1;

  00089	8d 85 48 fb ff
	ff		 lea	 eax, DWORD PTR _value$515693[ebp]
  0008f	50		 push	 eax
  00090	8d 8e 7c 02 00
	00		 lea	 ecx, DWORD PTR [esi+636]
  00096	89 bd 48 fb ff
	ff		 mov	 DWORD PTR _value$515693[ebp], edi
  0009c	e8 00 00 00 00	 call	 ?EncryptValueToPool@?$CEncrypt@H@@AAEXPBD@Z ; CEncrypt<int>::EncryptValueToPool

; 78   : 	m_CharInfo.m_hair		 = 1;

  000a1	8d 85 48 fb ff
	ff		 lea	 eax, DWORD PTR _value$515697[ebp]
  000a7	50		 push	 eax
  000a8	8d 8e ac 02 00
	00		 lea	 ecx, DWORD PTR [esi+684]
  000ae	89 bd 48 fb ff
	ff		 mov	 DWORD PTR _value$515697[ebp], edi
  000b4	e8 00 00 00 00	 call	 ?EncryptValueToPool@?$CEncrypt@H@@AAEXPBD@Z ; CEncrypt<int>::EncryptValueToPool

; 79   : 	m_CharInfo.m_skin_color	 = 1;

  000b9	8d 85 48 fb ff
	ff		 lea	 eax, DWORD PTR _value$515701[ebp]
  000bf	50		 push	 eax
  000c0	8d 8e dc 02 00
	00		 lea	 ecx, DWORD PTR [esi+732]
  000c6	89 bd 48 fb ff
	ff		 mov	 DWORD PTR _value$515701[ebp], edi
  000cc	e8 00 00 00 00	 call	 ?EncryptValueToPool@?$CEncrypt@H@@AAEXPBD@Z ; CEncrypt<int>::EncryptValueToPool

; 80   : 	m_CharInfo.m_hair_color	 = 1;

  000d1	8d 85 48 fb ff
	ff		 lea	 eax, DWORD PTR _value$515705[ebp]
  000d7	50		 push	 eax
  000d8	8d 8e 0c 03 00
	00		 lea	 ecx, DWORD PTR [esi+780]
  000de	89 bd 48 fb ff
	ff		 mov	 DWORD PTR _value$515705[ebp], edi
  000e4	e8 00 00 00 00	 call	 ?EncryptValueToPool@?$CEncrypt@H@@AAEXPBD@Z ; CEncrypt<int>::EncryptValueToPool

; 81   : 	m_CharInfo.m_accessories = 1;

  000e9	8d 85 48 fb ff
	ff		 lea	 eax, DWORD PTR _value$515709[ebp]
  000ef	50		 push	 eax
  000f0	8d 8e 3c 03 00
	00		 lea	 ecx, DWORD PTR [esi+828]
  000f6	89 bd 48 fb ff
	ff		 mov	 DWORD PTR _value$515709[ebp], edi
  000fc	e8 00 00 00 00	 call	 ?EncryptValueToPool@?$CEncrypt@H@@AAEXPBD@Z ; CEncrypt<int>::EncryptValueToPool

; 82   : 	m_CharInfo.m_underwear   = 1;

  00101	8d 85 48 fb ff
	ff		 lea	 eax, DWORD PTR _value$515713[ebp]
  00107	50		 push	 eax
  00108	8d 8e 6c 03 00
	00		 lea	 ecx, DWORD PTR [esi+876]
  0010e	89 bd 48 fb ff
	ff		 mov	 DWORD PTR _value$515713[ebp], edi
  00114	e8 00 00 00 00	 call	 ?EncryptValueToPool@?$CEncrypt@H@@AAEXPBD@Z ; CEncrypt<int>::EncryptValueToPool

; 83   : 	
; 84   : 	for (int i = 0; i < MAX_INVENTORY ; i++)
; 85   : 		m_CharInfo.m_extra_item[i] = 0;

  00119	8d 86 9c 03 00
	00		 lea	 eax, DWORD PTR [esi+924]
  0011f	89 85 40 fb ff
	ff		 mov	 DWORD PTR tv5683[ebp], eax
  00125	c7 85 48 fb ff
	ff 04 00 00 00	 mov	 DWORD PTR tv2825[ebp], 4
$LN4@iwm_show:
  0012f	8b 8d 40 fb ff
	ff		 mov	 ecx, DWORD PTR tv5683[ebp]
  00135	8d 85 44 fb ff
	ff		 lea	 eax, DWORD PTR _value$515717[ebp]
  0013b	50		 push	 eax
  0013c	89 9d 44 fb ff
	ff		 mov	 DWORD PTR _value$515717[ebp], ebx
  00142	e8 00 00 00 00	 call	 ?EncryptValueToPool@?$CEncrypt@H@@AAEXPBD@Z ; CEncrypt<int>::EncryptValueToPool
  00147	83 85 40 fb ff
	ff 30		 add	 DWORD PTR tv5683[ebp], 48 ; 00000030H
  0014e	ff 8d 48 fb ff
	ff		 dec	 DWORD PTR tv2825[ebp]
  00154	75 d9		 jne	 SHORT $LN4@iwm_show

; 86   : 
; 87   : 	m_CharInfo.m_iLimitSecond   = 0;
; 88   : 	m_CharInfo.m_bActive        = true;
; 89   : 
; 90   : 	UpdateFirstClass();

  00156	8b ce		 mov	 ecx, esi
  00158	89 9e 60 04 00
	00		 mov	 DWORD PTR [esi+1120], ebx
  0015e	c6 86 70 04 00
	00 01		 mov	 BYTE PTR [esi+1136], 1
  00165	e8 00 00 00 00	 call	 ?UpdateFirstClass@ServiceCharWnd@@IAEXXZ ; ServiceCharWnd::UpdateFirstClass

; 91   : 	UpdateRaceDetail();

  0016a	8b ce		 mov	 ecx, esi
  0016c	e8 00 00 00 00	 call	 ?UpdateRaceDetail@ServiceCharWnd@@IAEXXZ ; ServiceCharWnd::UpdateRaceDetail

; 92   : 	UpdateCharacter();

  00171	8b ce		 mov	 ecx, esi
  00173	e8 00 00 00 00	 call	 ?UpdateCharacter@ServiceCharWnd@@IAEXXZ ; ServiceCharWnd::UpdateCharacter

; 93   : 	ShowChildWnd( ID_CHARACTER );

  00178	53		 push	 ebx
  00179	6a 07		 push	 7
  0017b	8b ce		 mov	 ecx, esi
  0017d	ff 15 00 00 00
	00		 call	 DWORD PTR __imp_?ShowChildWnd@ioWnd@@QAEXK_N@Z
  00183	6a 06		 push	 6

; 94   : 
; 95   : 	//Help
; 96   : 	ioINILoader_e kLoader( "config/sp2_service_char.ini" );

  00185	c7 85 9c fe ff
	ff 8e 83 85 8c	 mov	 DWORD PTR _kLoader$[ebp+848], -1937407090 ; 8c85838eH
  0018f	c7 85 a0 fe ff
	ff 84 8b c4 99	 mov	 DWORD PTR _kLoader$[ebp+852], -1715172476 ; 99c48b84H
  00199	c7 85 a4 fe ff
	ff 9d de b4 99	 mov	 DWORD PTR _kLoader$[ebp+856], -1716199779 ; 99b4de9dH
  001a3	c7 85 a8 fe ff
	ff 88 9e 9d 83	 mov	 DWORD PTR _kLoader$[ebp+860], -2086822264 ; 839d9e88H
  001ad	c7 85 ac fe ff
	ff 8e 89 b4 89	 mov	 DWORD PTR _kLoader$[ebp+864], -1984657010 ; 89b4898eH
  001b7	c7 85 b0 fe ff
	ff 85 8d 99 c4	 mov	 DWORD PTR _kLoader$[ebp+868], -996569723 ; c4998d85H
  001c1	8d 85 9c fe ff
	ff		 lea	 eax, DWORD PTR _kLoader$[ebp+848]
  001c7	c7 85 b4 fe ff
	ff 84 82 82 00	 mov	 DWORD PTR _kLoader$[ebp+872], 8553092 ; 00828284H
  001d1	59		 pop	 ecx
  001d2	bb ed ec eb ea	 mov	 ebx, -353637139		; eaebecedH
$LL137@iwm_show:
  001d7	31 18		 xor	 DWORD PTR [eax], ebx
  001d9	83 c0 04	 add	 eax, 4
  001dc	49		 dec	 ecx
  001dd	75 f8		 jne	 SHORT $LL137@iwm_show
  001df	6a 18		 push	 24			; 00000018H
  001e1	58		 pop	 eax
$LL134@iwm_show:
  001e2	8b c8		 mov	 ecx, eax
  001e4	81 e1 03 00 00
	80		 and	 ecx, -2147483645	; 80000003H
  001ea	79 05		 jns	 SHORT $LN702@iwm_show
  001ec	49		 dec	 ecx
  001ed	83 c9 fc	 or	 ecx, -4			; fffffffcH
  001f0	41		 inc	 ecx
$LN702@iwm_show:
  001f1	b2 ed		 mov	 dl, -19			; ffffffedH
  001f3	2a d1		 sub	 dl, cl
  001f5	30 94 05 9c fe
	ff ff		 xor	 BYTE PTR _kLoader$[ebp+eax+848], dl
  001fc	40		 inc	 eax
  001fd	83 f8 1b	 cmp	 eax, 27			; 0000001bH
  00200	7c e0		 jl	 SHORT $LL134@iwm_show
  00202	57		 push	 edi
  00203	8d 85 9c fe ff
	ff		 lea	 eax, DWORD PTR _kLoader$[ebp+848]
  00209	50		 push	 eax
  0020a	8d 8d 4c fb ff
	ff		 lea	 ecx, DWORD PTR _kLoader$[ebp]
  00210	ff 15 00 00 00
	00		 call	 DWORD PTR __imp_??0ioINILoader@@QAE@PBD_N@Z
  00216	83 65 fc 00	 and	 DWORD PTR __$EHRec$[ebp+8], 0

; 97   : 	kLoader.SetTitle_e( "UI_HELP" );

  0021a	6a 04		 push	 4
  0021c	c7 45 e4 b8 a5
	b4 a2		 mov	 DWORD PTR __t$515969[ebp], -1565219400 ; a2b4a5b8H
  00223	31 5d e4	 xor	 DWORD PTR __t$515969[ebp], ebx
  00226	c7 45 e8 a8 a0
	bb 00		 mov	 DWORD PTR __t$515969[ebp+4], 12296360 ; 00bba0a8H
  0022d	5f		 pop	 edi
$LL240@iwm_show:
  0022e	8b c7		 mov	 eax, edi
  00230	25 03 00 00 80	 and	 eax, -2147483645	; 80000003H
  00235	79 05		 jns	 SHORT $LN703@iwm_show
  00237	48		 dec	 eax
  00238	83 c8 fc	 or	 eax, -4			; fffffffcH
  0023b	40		 inc	 eax
$LN703@iwm_show:
  0023c	b1 ed		 mov	 cl, -19			; ffffffedH
  0023e	2a c8		 sub	 cl, al
  00240	30 4c 3d e4	 xor	 BYTE PTR __t$515969[ebp+edi], cl
  00244	47		 inc	 edi
  00245	83 ff 07	 cmp	 edi, 7
  00248	7c e4		 jl	 SHORT $LL240@iwm_show
  0024a	8d 45 e4	 lea	 eax, DWORD PTR __t$515969[ebp]
  0024d	50		 push	 eax
  0024e	8d 8d 4c fb ff
	ff		 lea	 ecx, DWORD PTR _kLoader$[ebp]
  00254	ff 15 00 00 00
	00		 call	 DWORD PTR __imp_?SetTitle@ioINILoader@@QAEXPBD@Z

; 98   : 
; 99   : 	char szBuf[MAX_PATH];
; 100  : 	kLoader.LoadString_e( "title", "", szBuf, MAX_PATH );

  0025a	68 04 01 00 00	 push	 260			; 00000104H
  0025f	8d 85 dc fe ff
	ff		 lea	 eax, DWORD PTR _szBuf$[ebp]
  00265	50		 push	 eax
  00266	bf 00 00 00 00	 mov	 edi, OFFSET ??_C@_00CNPNBAHC@?$AA@
  0026b	57		 push	 edi
  0026c	8d 45 e4	 lea	 eax, DWORD PTR __k$516094[ebp]
  0026f	c7 45 e4 99 85
	9f 86		 mov	 DWORD PTR __k$516094[ebp], -2036365927 ; 869f8599H
  00276	31 5d e4	 xor	 DWORD PTR __k$516094[ebp], ebx
  00279	50		 push	 eax
  0027a	8d 8d 4c fb ff
	ff		 lea	 ecx, DWORD PTR _kLoader$[ebp]
  00280	66 c7 45 e8 65
	00		 mov	 WORD PTR __k$516094[ebp+4], 101 ; 00000065H
  00286	ff 15 00 00 00
	00		 call	 DWORD PTR __imp_?LoadStringA@ioINILoader@@QAEXPBD0PADH@Z

; 101  : 	m_szHelpTitle = szBuf;

  0028c	8d 85 dc fe ff
	ff		 lea	 eax, DWORD PTR _szBuf$[ebp]
  00292	50		 push	 eax
  00293	8d 8e 00 05 00
	00		 lea	 ecx, DWORD PTR [esi+1280]
  00299	ff 15 00 00 00
	00		 call	 DWORD PTR __imp_??4ioHashString@@QAEAAV0@PBD@Z

; 102  : 
; 103  : 	kLoader.LoadString_e( "desc", "", szBuf, MAX_PATH );

  0029f	68 04 01 00 00	 push	 260			; 00000104H
  002a4	8d 85 dc fe ff
	ff		 lea	 eax, DWORD PTR _szBuf$[ebp]
  002aa	50		 push	 eax
  002ab	57		 push	 edi
  002ac	8d 45 e4	 lea	 eax, DWORD PTR __k$516232[ebp]
  002af	c7 45 e4 89 89
	98 89		 mov	 DWORD PTR __k$516232[ebp], -1986492023 ; 89988989H
  002b6	31 5d e4	 xor	 DWORD PTR __k$516232[ebp], ebx
  002b9	50		 push	 eax
  002ba	8d 8d 4c fb ff
	ff		 lea	 ecx, DWORD PTR _kLoader$[ebp]
  002c0	c6 45 e8 00	 mov	 BYTE PTR __k$516232[ebp+4], 0
  002c4	ff 15 00 00 00
	00		 call	 DWORD PTR __imp_?LoadStringA@ioINILoader@@QAEXPBD0PADH@Z

; 104  : 	SplitDescription( ioHashString(szBuf) );

  002ca	8d 85 dc fe ff
	ff		 lea	 eax, DWORD PTR _szBuf$[ebp]
  002d0	50		 push	 eax
  002d1	8d 4d e0	 lea	 ecx, DWORD PTR $T515671[ebp]
  002d4	ff 15 00 00 00
	00		 call	 DWORD PTR __imp_??0ioHashString@@QAE@PBD@Z
  002da	50		 push	 eax
  002db	8b ce		 mov	 ecx, esi
  002dd	c6 45 fc 01	 mov	 BYTE PTR __$EHRec$[ebp+8], 1
  002e1	e8 00 00 00 00	 call	 ?SplitDescription@ServiceCharWnd@@IAEXABVioHashString@@@Z ; ServiceCharWnd::SplitDescription
  002e6	8d 4d e0	 lea	 ecx, DWORD PTR $T515671[ebp]
  002e9	c6 45 fc 00	 mov	 BYTE PTR __$EHRec$[ebp+8], 0
  002ed	ff 15 00 00 00
	00		 call	 DWORD PTR __imp_??1ioHashString@@QAE@XZ

; 105  : 
; 106  : 	ioWnd *pFirstHire = FindChildWnd( ID_CHAR_RECV );

  002f3	6a 06		 push	 6
  002f5	8b ce		 mov	 ecx, esi
  002f7	ff 15 00 00 00
	00		 call	 DWORD PTR __imp_?FindChildWnd@ioWnd@@QAEPAV1@K@Z
  002fd	89 85 44 fb ff
	ff		 mov	 DWORD PTR _pFirstHire$[ebp], eax

; 107  : 	if( pFirstHire )

  00303	85 c0		 test	 eax, eax
  00305	74 53		 je	 SHORT $LN1@iwm_show

; 108  : 	{
; 109  : 		kLoader.LoadString_e( "btn_name", "", szBuf, MAX_PATH );

  00307	6a 02		 push	 2
  00309	c7 45 e0 8f 98
	85 b5		 mov	 DWORD PTR __k$516438[ebp], -1249535857 ; b585988fH
  00310	c7 45 e4 83 8d
	86 8f		 mov	 DWORD PTR __k$516438[ebp+4], -1887007357 ; 8f868d83H
  00317	8d 45 e0	 lea	 eax, DWORD PTR __k$516438[ebp]
  0031a	c6 45 e8 00	 mov	 BYTE PTR __k$516438[ebp+8], 0
  0031e	59		 pop	 ecx
$LL561@iwm_show:
  0031f	31 18		 xor	 DWORD PTR [eax], ebx
  00321	83 c0 04	 add	 eax, 4
  00324	49		 dec	 ecx
  00325	75 f8		 jne	 SHORT $LL561@iwm_show
  00327	68 04 01 00 00	 push	 260			; 00000104H
  0032c	8d 85 dc fe ff
	ff		 lea	 eax, DWORD PTR _szBuf$[ebp]
  00332	50		 push	 eax
  00333	57		 push	 edi
  00334	8d 45 e0	 lea	 eax, DWORD PTR __k$516438[ebp]
  00337	50		 push	 eax
  00338	8d 8d 4c fb ff
	ff		 lea	 ecx, DWORD PTR _kLoader$[ebp]
  0033e	ff 15 00 00 00
	00		 call	 DWORD PTR __imp_?LoadStringA@ioINILoader@@QAEXPBD0PADH@Z

; 110  : 		pFirstHire->SetTitleText( szBuf );

  00344	8b 8d 44 fb ff
	ff		 mov	 ecx, DWORD PTR _pFirstHire$[ebp]
  0034a	6a 00		 push	 0
  0034c	57		 push	 edi
  0034d	8d 85 dc fe ff
	ff		 lea	 eax, DWORD PTR _szBuf$[ebp]
  00353	50		 push	 eax
  00354	ff 15 00 00 00
	00		 call	 DWORD PTR __imp_?SetTitleText@ioWnd@@QAEXPBD0H@Z
$LN1@iwm_show:

; 111  : 	}
; 112  : 
; 113  : 	kLoader.LoadString_e( "wnd_title", "", szBuf, MAX_PATH );

  0035a	6a 02		 push	 2
  0035c	c7 45 e0 9a 82
	8f b5		 mov	 DWORD PTR __k$516469[ebp], -1248886118 ; b58f829aH
  00363	c7 45 e4 99 85
	9f 86		 mov	 DWORD PTR __k$516469[ebp+4], -2036365927 ; 869f8599H
  0036a	8d 45 e0	 lea	 eax, DWORD PTR __k$516469[ebp]
  0036d	66 c7 45 e8 88
	00		 mov	 WORD PTR __k$516469[ebp+8], 136 ; 00000088H
  00373	59		 pop	 ecx
$LL667@iwm_show:
  00374	31 18		 xor	 DWORD PTR [eax], ebx
  00376	83 c0 04	 add	 eax, 4
  00379	49		 dec	 ecx
  0037a	75 f8		 jne	 SHORT $LL667@iwm_show
  0037c	80 75 e8 ed	 xor	 BYTE PTR __k$516469[ebp+8], -19 ; ffffffedH
  00380	68 04 01 00 00	 push	 260			; 00000104H
  00385	8d 85 dc fe ff
	ff		 lea	 eax, DWORD PTR _szBuf$[ebp]
  0038b	50		 push	 eax
  0038c	57		 push	 edi
  0038d	8d 45 e0	 lea	 eax, DWORD PTR __k$516469[ebp]
  00390	50		 push	 eax
  00391	8d 8d 4c fb ff
	ff		 lea	 ecx, DWORD PTR _kLoader$[ebp]
  00397	ff 15 00 00 00
	00		 call	 DWORD PTR __imp_?LoadStringA@ioINILoader@@QAEXPBD0PADH@Z

; 114  : 	m_szWndTitle = szBuf;

  0039d	8d 85 dc fe ff
	ff		 lea	 eax, DWORD PTR _szBuf$[ebp]
  003a3	50		 push	 eax
  003a4	8d 8e 20 05 00
	00		 lea	 ecx, DWORD PTR [esi+1312]
  003aa	ff 15 00 00 00
	00		 call	 DWORD PTR __imp_??4ioHashString@@QAEAAV0@PBD@Z

; 115  : 	SetTitleText( m_szWndTitle.c_str() );

  003b0	6a 00		 push	 0
  003b2	57		 push	 edi
  003b3	8d 8e 20 05 00
	00		 lea	 ecx, DWORD PTR [esi+1312]
  003b9	ff 15 00 00 00
	00		 call	 DWORD PTR __imp_?c_str@ioHashString@@QBEPBDXZ
  003bf	50		 push	 eax
  003c0	8b ce		 mov	 ecx, esi
  003c2	ff 15 00 00 00
	00		 call	 DWORD PTR __imp_?SetTitleText@ioWnd@@QAEXPBD0H@Z

; 116  : 
; 117  : 	CheckHideWnd();

  003c8	8b ce		 mov	 ecx, esi
  003ca	e8 00 00 00 00	 call	 ?CheckHideWnd@ServiceCharWnd@@IAEXXZ ; ServiceCharWnd::CheckHideWnd

; 118  : }

  003cf	83 4d fc ff	 or	 DWORD PTR __$EHRec$[ebp+8], -1
  003d3	8d 8d 4c fb ff
	ff		 lea	 ecx, DWORD PTR _kLoader$[ebp]
  003d9	ff 15 00 00 00
	00		 call	 DWORD PTR __imp_??1ioINILoader@@QAE@XZ
  003df	e8 00 00 00 00	 call	 __EH_epilog3_GS
  003e4	c3		 ret	 0
_TEXT	ENDS
;	COMDAT text$x
text$x	SEGMENT
__unwindfunclet$?iwm_show@ServiceCharWnd@@UAEXXZ$0:
  00000	8d 8d 4c fb ff
	ff		 lea	 ecx, DWORD PTR _kLoader$[ebp]
  00006	e9 00 00 00 00	 jmp	 ??1ioINILoader_e@@QAE@XZ
__unwindfunclet$?iwm_show@ServiceCharWnd@@UAEXXZ$1:
  0000b	8d 4d e0	 lea	 ecx, DWORD PTR $T515671[ebp]
  0000e	ff 25 00 00 00
	00		 jmp	 DWORD PTR __imp_??1ioHashString@@QAE@XZ
__ehhandler$?iwm_show@ServiceCharWnd@@UAEXXZ:
  00014	8b 54 24 08	 mov	 edx, DWORD PTR [esp+8]
  00018	8d 42 0c	 lea	 eax, DWORD PTR [edx+12]
  0001b	8b 8a 3c fb ff
	ff		 mov	 ecx, DWORD PTR [edx-1220]
  00021	33 c8		 xor	 ecx, eax
  00023	e8 00 00 00 00	 call	 @__security_check_cookie@4
  00028	8b 4a fc	 mov	 ecx, DWORD PTR [edx-4]
  0002b	33 c8		 xor	 ecx, eax
  0002d	e8 00 00 00 00	 call	 @__security_check_cookie@4
  00032	b8 00 00 00 00	 mov	 eax, OFFSET __ehfuncinfo$?iwm_show@ServiceCharWnd@@UAEXXZ
  00037	e9 00 00 00 00	 jmp	 ___CxxFrameHandler3
text$x	ENDS
?iwm_show@ServiceCharWnd@@UAEXXZ ENDP			; ServiceCharWnd::iwm_show
END
