; Listing generated by Microsoft (R) Optimizing Compiler Version 16.00.30319.01 

	TITLE	D:\Lost Saga For Developer\Youtube\Tutorial\Source\src\LSClient\GUI\ShopBuyWnd.cpp
	.686P
	.XMM
	include listing.inc
	.model	flat

INCLUDELIB MSVCRT
INCLUDELIB OLDNAMES

PUBLIC	??_7bad_alloc@std@@6B@				; std::bad_alloc::`vftable'
PUBLIC	??0bad_alloc@std@@QAE@PBD@Z			; std::bad_alloc::bad_alloc
PUBLIC	??_R4bad_alloc@std@@6B@				; std::bad_alloc::`RTTI Complete Object Locator'
PUBLIC	??_R0?AVbad_alloc@std@@@8			; std::bad_alloc `RTTI Type Descriptor'
PUBLIC	??_R3bad_alloc@std@@8				; std::bad_alloc::`RTTI Class Hierarchy Descriptor'
PUBLIC	??_R2bad_alloc@std@@8				; std::bad_alloc::`RTTI Base Class Array'
PUBLIC	??_R1A@?0A@EA@bad_alloc@std@@8			; std::bad_alloc::`RTTI Base Class Descriptor at (0,-1,0,64)'
PUBLIC	??_R1A@?0A@EA@exception@std@@8			; std::exception::`RTTI Base Class Descriptor at (0,-1,0,64)'
PUBLIC	??_R0?AVexception@std@@@8			; std::exception `RTTI Type Descriptor'
PUBLIC	??_R3exception@std@@8				; std::exception::`RTTI Class Hierarchy Descriptor'
PUBLIC	??_R2exception@std@@8				; std::exception::`RTTI Base Class Array'
EXTRN	__imp_??0exception@std@@QAE@ABQBD@Z:PROC
EXTRN	??_7type_info@@6B@:QWORD			; type_info::`vftable'
EXTRN	??_Ebad_alloc@std@@UAEPAXI@Z:PROC		; std::bad_alloc::`vector deleting destructor'
EXTRN	?what@exception@std@@UBEPBDXZ:PROC		; std::exception::what
;	COMDAT ??_R2exception@std@@8
; File c:\program files (x86)\microsoft visual studio 10.0\vc\include\exception
rdata$r	SEGMENT
??_R2exception@std@@8 DD FLAT:??_R1A@?0A@EA@exception@std@@8 ; std::exception::`RTTI Base Class Array'
rdata$r	ENDS
;	COMDAT ??_R3exception@std@@8
rdata$r	SEGMENT
??_R3exception@std@@8 DD 00H				; std::exception::`RTTI Class Hierarchy Descriptor'
	DD	00H
	DD	01H
	DD	FLAT:??_R2exception@std@@8
rdata$r	ENDS
;	COMDAT ??_R0?AVexception@std@@@8
_DATA	SEGMENT
??_R0?AVexception@std@@@8 DD FLAT:??_7type_info@@6B@	; std::exception `RTTI Type Descriptor'
	DD	00H
	DB	'.?AVexception@std@@', 00H
_DATA	ENDS
;	COMDAT ??_R1A@?0A@EA@exception@std@@8
rdata$r	SEGMENT
??_R1A@?0A@EA@exception@std@@8 DD FLAT:??_R0?AVexception@std@@@8 ; std::exception::`RTTI Base Class Descriptor at (0,-1,0,64)'
	DD	00H
	DD	00H
	DD	0ffffffffH
	DD	00H
	DD	040H
	DD	FLAT:??_R3exception@std@@8
rdata$r	ENDS
;	COMDAT ??_R1A@?0A@EA@bad_alloc@std@@8
rdata$r	SEGMENT
??_R1A@?0A@EA@bad_alloc@std@@8 DD FLAT:??_R0?AVbad_alloc@std@@@8 ; std::bad_alloc::`RTTI Base Class Descriptor at (0,-1,0,64)'
	DD	01H
	DD	00H
	DD	0ffffffffH
	DD	00H
	DD	040H
	DD	FLAT:??_R3bad_alloc@std@@8
rdata$r	ENDS
;	COMDAT ??_R2bad_alloc@std@@8
rdata$r	SEGMENT
??_R2bad_alloc@std@@8 DD FLAT:??_R1A@?0A@EA@bad_alloc@std@@8 ; std::bad_alloc::`RTTI Base Class Array'
	DD	FLAT:??_R1A@?0A@EA@exception@std@@8
rdata$r	ENDS
;	COMDAT ??_R3bad_alloc@std@@8
rdata$r	SEGMENT
??_R3bad_alloc@std@@8 DD 00H				; std::bad_alloc::`RTTI Class Hierarchy Descriptor'
	DD	00H
	DD	02H
	DD	FLAT:??_R2bad_alloc@std@@8
rdata$r	ENDS
;	COMDAT ??_R0?AVbad_alloc@std@@@8
_DATA	SEGMENT
??_R0?AVbad_alloc@std@@@8 DD FLAT:??_7type_info@@6B@	; std::bad_alloc `RTTI Type Descriptor'
	DD	00H
	DB	'.?AVbad_alloc@std@@', 00H
_DATA	ENDS
;	COMDAT ??_R4bad_alloc@std@@6B@
rdata$r	SEGMENT
??_R4bad_alloc@std@@6B@ DD 00H				; std::bad_alloc::`RTTI Complete Object Locator'
	DD	00H
	DD	00H
	DD	FLAT:??_R0?AVbad_alloc@std@@@8
	DD	FLAT:??_R3bad_alloc@std@@8
rdata$r	ENDS
;	COMDAT ??_7bad_alloc@std@@6B@
CONST	SEGMENT
??_7bad_alloc@std@@6B@ DD FLAT:??_R4bad_alloc@std@@6B@	; std::bad_alloc::`vftable'
	DD	FLAT:??_Ebad_alloc@std@@UAEPAXI@Z
	DD	FLAT:?what@exception@std@@UBEPBDXZ
; Function compile flags: /Ogsp
CONST	ENDS
;	COMDAT ??0bad_alloc@std@@QAE@PBD@Z
_TEXT	SEGMENT
__Message$ = 8						; size = 4
??0bad_alloc@std@@QAE@PBD@Z PROC			; std::bad_alloc::bad_alloc, COMDAT
; _this$ = ecx

; 345  : 		{	// construct from message string

  00000	55		 push	 ebp
  00001	8b ec		 mov	 ebp, esp
  00003	56		 push	 esi
  00004	8d 45 08	 lea	 eax, DWORD PTR __Message$[ebp]
  00007	50		 push	 eax
  00008	8b f1		 mov	 esi, ecx
  0000a	ff 15 00 00 00
	00		 call	 DWORD PTR __imp_??0exception@std@@QAE@ABQBD@Z
  00010	c7 06 00 00 00
	00		 mov	 DWORD PTR [esi], OFFSET ??_7bad_alloc@std@@6B@

; 346  : 		}

  00016	8b c6		 mov	 eax, esi
  00018	5e		 pop	 esi
  00019	5d		 pop	 ebp
  0001a	c2 04 00	 ret	 4
??0bad_alloc@std@@QAE@PBD@Z ENDP			; std::bad_alloc::bad_alloc
_TEXT	ENDS
PUBLIC	??1bad_alloc@std@@UAE@XZ			; std::bad_alloc::~bad_alloc
EXTRN	__imp_??1exception@std@@UAE@XZ:PROC
; Function compile flags: /Ogsp
;	COMDAT ??1bad_alloc@std@@UAE@XZ
_TEXT	SEGMENT
??1bad_alloc@std@@UAE@XZ PROC				; std::bad_alloc::~bad_alloc, COMDAT
; _this$ = ecx

; 354  : 		{	// destroy the object

  00000	c7 01 00 00 00
	00		 mov	 DWORD PTR [ecx], OFFSET ??_7bad_alloc@std@@6B@

; 355  : 		}

  00006	ff 25 00 00 00
	00		 jmp	 DWORD PTR __imp_??1exception@std@@UAE@XZ
??1bad_alloc@std@@UAE@XZ ENDP				; std::bad_alloc::~bad_alloc
_TEXT	ENDS
EXTRN	??3@YAXPAX@Z:PROC				; operator delete
; Function compile flags: /Ogsp
;	COMDAT ??_Gbad_alloc@std@@UAEPAXI@Z
_TEXT	SEGMENT
___flags$ = 8						; size = 4
??_Gbad_alloc@std@@UAEPAXI@Z PROC			; std::bad_alloc::`scalar deleting destructor', COMDAT
; _this$ = ecx
  00000	55		 push	 ebp
  00001	8b ec		 mov	 ebp, esp
  00003	56		 push	 esi
  00004	8b f1		 mov	 esi, ecx
  00006	c7 06 00 00 00
	00		 mov	 DWORD PTR [esi], OFFSET ??_7bad_alloc@std@@6B@
  0000c	ff 15 00 00 00
	00		 call	 DWORD PTR __imp_??1exception@std@@UAE@XZ
  00012	f6 45 08 01	 test	 BYTE PTR ___flags$[ebp], 1
  00016	74 07		 je	 SHORT $LN1@scalar
  00018	56		 push	 esi
  00019	e8 00 00 00 00	 call	 ??3@YAXPAX@Z		; operator delete
  0001e	59		 pop	 ecx
$LN1@scalar:
  0001f	8b c6		 mov	 eax, esi
  00021	5e		 pop	 esi
  00022	5d		 pop	 ebp
  00023	c2 04 00	 ret	 4
??_Gbad_alloc@std@@UAEPAXI@Z ENDP			; std::bad_alloc::`scalar deleting destructor'
_TEXT	ENDS
PUBLIC	??_7ShopBuyWndBase@@6B@				; ShopBuyWndBase::`vftable'
PUBLIC	??0ShopBuyWndBase@@QAE@XZ			; ShopBuyWndBase::ShopBuyWndBase
PUBLIC	??_R4ShopBuyWndBase@@6B@			; ShopBuyWndBase::`RTTI Complete Object Locator'
PUBLIC	??_R0?AVShopBuyWndBase@@@8			; ShopBuyWndBase `RTTI Type Descriptor'
PUBLIC	??_R3ShopBuyWndBase@@8				; ShopBuyWndBase::`RTTI Class Hierarchy Descriptor'
PUBLIC	??_R2ShopBuyWndBase@@8				; ShopBuyWndBase::`RTTI Base Class Array'
PUBLIC	??_R1A@?0A@EA@ShopBuyWndBase@@8			; ShopBuyWndBase::`RTTI Base Class Descriptor at (0,-1,0,64)'
PUBLIC	??_R1A@?0A@EA@ioWndEX@@8			; ioWndEX::`RTTI Base Class Descriptor at (0,-1,0,64)'
PUBLIC	??_R0?AVioWndEX@@@8				; ioWndEX `RTTI Type Descriptor'
PUBLIC	??_R3ioWndEX@@8					; ioWndEX::`RTTI Class Hierarchy Descriptor'
PUBLIC	??_R2ioWndEX@@8					; ioWndEX::`RTTI Base Class Array'
PUBLIC	??_R1A@?0A@EA@ioWnd@@8				; ioWnd::`RTTI Base Class Descriptor at (0,-1,0,64)'
PUBLIC	??_R0?AVioWnd@@@8				; ioWnd `RTTI Type Descriptor'
PUBLIC	??_R3ioWnd@@8					; ioWnd::`RTTI Class Hierarchy Descriptor'
PUBLIC	??_R2ioWnd@@8					; ioWnd::`RTTI Base Class Array'
PUBLIC	?iwm_create@ShopBuyWndBase@@UAEXXZ		; ShopBuyWndBase::iwm_create
PUBLIC	?iwm_destroy@ShopBuyWndBase@@UAEXXZ		; ShopBuyWndBase::iwm_destroy
PUBLIC	?OnClickBuy@ShopBuyWndBase@@UAEXPAVioWndEX@@AAVioWndEXMouseEvent@@@Z ; ShopBuyWndBase::OnClickBuy
PUBLIC	?OnClickClose@ShopBuyWndBase@@UAEXPAVioWndEX@@AAVioWndEXMouseEvent@@@Z ; ShopBuyWndBase::OnClickClose
PUBLIC	?OnClickPresent@ShopBuyWndBase@@UAEXPAVioWndEX@@AAVioWndEXMouseEvent@@@Z ; ShopBuyWndBase::OnClickPresent
EXTRN	__imp_??0ioWndEX@@QAE@XZ:PROC
EXTRN	?AddRenderFrame@ioWnd@@UAEXABVioHashString@@PAVioUIRenderFrame@@@Z:PROC ; ioWnd::AddRenderFrame
EXTRN	?AddRenderImage@ioWnd@@UAEXABVioHashString@@PAVioUIRenderImage@@@Z:PROC ; ioWnd::AddRenderImage
EXTRN	?AddTooltipHelp@ioWnd@@UAEXABVioHashString@@00@Z:PROC ; ioWnd::AddTooltipHelp
EXTRN	?ParseExtraInfo@ioWndEX@@UAEXAAVioXMLElement@@@Z:PROC ; ioWndEX::ParseExtraInfo
EXTRN	?AddNamedRenderImage@ioWnd@@UAEXABVioHashString@@PAVioUIRenderImage@@@Z:PROC ; ioWnd::AddNamedRenderImage
EXTRN	?RemoveNamedRenderImage@ioWnd@@UAEXABVioHashString@@@Z:PROC ; ioWnd::RemoveNamedRenderImage
EXTRN	?GetNamedRenderImage@ioWnd@@UBEPAVioUIRenderImage@@ABVioHashString@@@Z:PROC ; ioWnd::GetNamedRenderImage
EXTRN	?SetWindowAlpha@ioWnd@@UAEXH@Z:PROC		; ioWnd::SetWindowAlpha
EXTRN	?SetActive@ioWnd@@UAEXXZ:PROC			; ioWnd::SetActive
EXTRN	?SetInActive@ioWnd@@UAEXXZ:PROC			; ioWnd::SetInActive
EXTRN	?ClearElementImageList@ioWnd@@UAEXXZ:PROC	; ioWnd::ClearElementImageList
EXTRN	?SetSize@ioWnd@@UAEXHH@Z:PROC			; ioWnd::SetSize
EXTRN	?SetPositionToDefault@ioWnd@@UAEXHH_N0@Z:PROC	; ioWnd::SetPositionToDefault
EXTRN	?IsNeedProcess@ioWnd@@UBE_NXZ:PROC		; ioWnd::IsNeedProcess
EXTRN	?IsCanMouseReaction@ioWnd@@UBE_NXZ:PROC		; ioWnd::IsCanMouseReaction
EXTRN	?AddChild@ioWnd@@UAEXPAV1@@Z:PROC		; ioWnd::AddChild
EXTRN	?DeleteChild@ioWnd@@UAEXK@Z:PROC		; ioWnd::DeleteChild
EXTRN	?DeleteAllChild@ioWnd@@UAEXXZ:PROC		; ioWnd::DeleteAllChild
EXTRN	?OnRenderShowAndHide@ioWnd@@MAE_NXZ:PROC	; ioWnd::OnRenderShowAndHide
EXTRN	?OnRenderShowAndHideByDefault@ioWnd@@MAE_NK@Z:PROC ; ioWnd::OnRenderShowAndHideByDefault
EXTRN	?OnRenderShowAndHideByTop@ioWnd@@MAE_NK@Z:PROC	; ioWnd::OnRenderShowAndHideByTop
EXTRN	?OnRenderShowAndHideByDown@ioWnd@@MAE_NK@Z:PROC	; ioWnd::OnRenderShowAndHideByDown
EXTRN	?OnRender@ioWnd@@MAEXXZ:PROC			; ioWnd::OnRender
EXTRN	?OnRenderAfterChild@ioWnd@@MAEXXZ:PROC		; ioWnd::OnRenderAfterChild
EXTRN	?OnProcess@ioWnd@@MAEXM@Z:PROC			; ioWnd::OnProcess
EXTRN	?OnMouseProcess@ioWnd@@MAEXABVioMouse@@@Z:PROC	; ioWnd::OnMouseProcess
EXTRN	?CheckFrameReSize@ioWnd@@MAEXHHHH@Z:PROC	; ioWnd::CheckFrameReSize
EXTRN	?RenderImageList@ioWnd@@MAEXHHW4UIRenderType@@@Z:PROC ; ioWnd::RenderImageList
EXTRN	?iwm_lbuttondown@ioWndEX@@UAEXABVioMouse@@@Z:PROC ; ioWndEX::iwm_lbuttondown
EXTRN	?iwm_lbuttonup@ioWndEX@@UAEXABVioMouse@@@Z:PROC	; ioWndEX::iwm_lbuttonup
EXTRN	?iwm_lbuttonDBLCLK@ioWndEX@@UAEXABVioMouse@@@Z:PROC ; ioWndEX::iwm_lbuttonDBLCLK
EXTRN	?iwm_rbuttondown@ioWndEX@@UAEXABVioMouse@@@Z:PROC ; ioWndEX::iwm_rbuttondown
EXTRN	?iwm_rbuttonup@ioWndEX@@UAEXABVioMouse@@@Z:PROC	; ioWndEX::iwm_rbuttonup
EXTRN	?iwm_command@ioWnd@@UAEXPAV1@HK@Z:PROC		; ioWnd::iwm_command
EXTRN	?iwm_mouseover@ioWndEX@@UAEXABVioMouse@@@Z:PROC	; ioWndEX::iwm_mouseover
EXTRN	?iwm_mousemove@ioWndEX@@UAEXABVioMouse@@@Z:PROC	; ioWndEX::iwm_mousemove
EXTRN	?iwm_mouseleave@ioWndEX@@UAEXABVioMouse@@@Z:PROC ; ioWndEX::iwm_mouseleave
EXTRN	?iwm_vscroll@ioWnd@@UAEXKH@Z:PROC		; ioWnd::iwm_vscroll
EXTRN	?iwm_wheel@ioWndEX@@UAEXH@Z:PROC		; ioWndEX::iwm_wheel
EXTRN	?iwm_show@ioWndEX@@UAEXXZ:PROC			; ioWndEX::iwm_show
EXTRN	?iwm_hide@ioWndEX@@UAEXXZ:PROC			; ioWndEX::iwm_hide
EXTRN	?iwm_esc@ioWndEX@@UAE_NXZ:PROC			; ioWndEX::iwm_esc
EXTRN	?iwm_spacebar@ioWndEX@@UAE_NXZ:PROC		; ioWndEX::iwm_spacebar
EXTRN	?iwm_gototop@ioWnd@@UAEXXZ:PROC			; ioWnd::iwm_gototop
EXTRN	?iwm_dragenter@ioWnd@@UAE?AW4IWDropEffect@@PAVioDragItem@@ABVioMouse@@@Z:PROC ; ioWnd::iwm_dragenter
EXTRN	?iwm_dragover@ioWnd@@UAE?AW4IWDropEffect@@PAVioDragItem@@ABVioMouse@@@Z:PROC ; ioWnd::iwm_dragover
EXTRN	?iwm_dragleave@ioWnd@@UAEXXZ:PROC		; ioWnd::iwm_dragleave
EXTRN	?iwm_dropitem@ioWnd@@UAE_NPAVioDragItem@@ABVioMouse@@PAV1@@Z:PROC ; ioWnd::iwm_dropitem
EXTRN	?iwm_dropdone@ioWnd@@UAEXPAVioDragItem@@PAV1@_N@Z:PROC ; ioWnd::iwm_dropdone
EXTRN	?IsEXType@ioWndEX@@UBE_NXZ:PROC			; ioWndEX::IsEXType
EXTRN	?GetWndType@ioWnd@@UBEKXZ:PROC			; ioWnd::GetWndType
EXTRN	?RenderWnd@ioWnd@@UAEXXZ:PROC			; ioWnd::RenderWnd
EXTRN	?SetIDEX@ioWnd@@UAEXAAK_N@Z:PROC		; ioWnd::SetIDEX
EXTRN	?ParseXML@ioWnd@@UAEXAAVioXMLElement@@@Z:PROC	; ioWnd::ParseXML
EXTRN	?GetHeaderFileName@ioWndEX@@UAEPBDXZ:PROC	; ioWndEX::GetHeaderFileName
EXTRN	?GetTemplateName@ioWndEX@@UAEPBDXZ:PROC		; ioWndEX::GetTemplateName
EXTRN	?GetDefClassName@ioWndEX@@UBEPBDXZ:PROC		; ioWndEX::GetDefClassName
EXTRN	?_Clone@ioWndEX@@UAEPAVioWnd@@XZ:PROC		; ioWndEX::_Clone
EXTRN	?Copy@ioWnd@@UAEXPAV1@@Z:PROC			; ioWnd::Copy
EXTRN	?Save@ioWnd@@UAE_NAAVioXMLElement@@@Z:PROC	; ioWnd::Save
EXTRN	?SetSaveData@ioWndEX@@UAEXAAVioXMLElement@@@Z:PROC ; ioWndEX::SetSaveData
EXTRN	?SetPosX@ioWnd@@UAEXH@Z:PROC			; ioWnd::SetPosX
EXTRN	?SetPosY@ioWnd@@UAEXH@Z:PROC			; ioWnd::SetPosY
EXTRN	?SetWidth@ioWnd@@UAEXH@Z:PROC			; ioWnd::SetWidth
EXTRN	?SetHeight@ioWnd@@UAEXH@Z:PROC			; ioWnd::SetHeight
EXTRN	?GetNumFixedRenderFrame@ioWnd@@UBEHXZ:PROC	; ioWnd::GetNumFixedRenderFrame
EXTRN	?GetFixedRenderFrameType@ioWnd@@UAEPBDH@Z:PROC	; ioWnd::GetFixedRenderFrameType
EXTRN	?GetRenderFrame@ioWnd@@UAEPAPAVioUIRenderElement@@PBD@Z:PROC ; ioWnd::GetRenderFrame
EXTRN	?GetNumFixedRenderImage@ioWnd@@UBEHXZ:PROC	; ioWnd::GetNumFixedRenderImage
EXTRN	?GetFixedRenderImageType@ioWnd@@UAEPBDH@Z:PROC	; ioWnd::GetFixedRenderImageType
EXTRN	?GetRenderImage@ioWnd@@UAEPAPAVioUIRenderElement@@PBD@Z:PROC ; ioWnd::GetRenderImage
EXTRN	?AddEffect@ioWnd@@UAEXABVioHashString@@PAVioUI3DEffectRender@@@Z:PROC ; ioWnd::AddEffect
EXTRN	?GetEffect@ioWnd@@UAEPAVioUI3DEffectRender@@VioHashString@@@Z:PROC ; ioWnd::GetEffect
EXTRN	??_EShopBuyWndBase@@UAEPAXI@Z:PROC		; ShopBuyWndBase::`vector deleting destructor'
EXTRN	?_ParseExtraInfo@ioWndEX@@UAEXAAVioXMLElement@@@Z:PROC ; ioWndEX::_ParseExtraInfo
EXTRN	?_SetSaveData@ioWndEX@@UAEXAAVioXMLElement@@@Z:PROC ; ioWndEX::_SetSaveData
;	COMDAT ??_R2ioWnd@@8
; File d:\lost saga for developer\youtube\tutorial\source\src\lsclient\gui\shopbuywndbase.h
rdata$r	SEGMENT
??_R2ioWnd@@8 DD FLAT:??_R1A@?0A@EA@ioWnd@@8		; ioWnd::`RTTI Base Class Array'
rdata$r	ENDS
;	COMDAT ??_R3ioWnd@@8
rdata$r	SEGMENT
??_R3ioWnd@@8 DD 00H					; ioWnd::`RTTI Class Hierarchy Descriptor'
	DD	00H
	DD	01H
	DD	FLAT:??_R2ioWnd@@8
rdata$r	ENDS
;	COMDAT ??_R0?AVioWnd@@@8
_DATA	SEGMENT
??_R0?AVioWnd@@@8 DD FLAT:??_7type_info@@6B@		; ioWnd `RTTI Type Descriptor'
	DD	00H
	DB	'.?AVioWnd@@', 00H
_DATA	ENDS
;	COMDAT ??_R1A@?0A@EA@ioWnd@@8
rdata$r	SEGMENT
??_R1A@?0A@EA@ioWnd@@8 DD FLAT:??_R0?AVioWnd@@@8	; ioWnd::`RTTI Base Class Descriptor at (0,-1,0,64)'
	DD	00H
	DD	00H
	DD	0ffffffffH
	DD	00H
	DD	040H
	DD	FLAT:??_R3ioWnd@@8
rdata$r	ENDS
;	COMDAT ??_R2ioWndEX@@8
rdata$r	SEGMENT
??_R2ioWndEX@@8 DD FLAT:??_R1A@?0A@EA@ioWndEX@@8	; ioWndEX::`RTTI Base Class Array'
	DD	FLAT:??_R1A@?0A@EA@ioWnd@@8
rdata$r	ENDS
;	COMDAT ??_R3ioWndEX@@8
rdata$r	SEGMENT
??_R3ioWndEX@@8 DD 00H					; ioWndEX::`RTTI Class Hierarchy Descriptor'
	DD	00H
	DD	02H
	DD	FLAT:??_R2ioWndEX@@8
rdata$r	ENDS
;	COMDAT ??_R0?AVioWndEX@@@8
_DATA	SEGMENT
??_R0?AVioWndEX@@@8 DD FLAT:??_7type_info@@6B@		; ioWndEX `RTTI Type Descriptor'
	DD	00H
	DB	'.?AVioWndEX@@', 00H
_DATA	ENDS
;	COMDAT ??_R1A@?0A@EA@ioWndEX@@8
rdata$r	SEGMENT
??_R1A@?0A@EA@ioWndEX@@8 DD FLAT:??_R0?AVioWndEX@@@8	; ioWndEX::`RTTI Base Class Descriptor at (0,-1,0,64)'
	DD	01H
	DD	00H
	DD	0ffffffffH
	DD	00H
	DD	040H
	DD	FLAT:??_R3ioWndEX@@8
rdata$r	ENDS
;	COMDAT ??_R1A@?0A@EA@ShopBuyWndBase@@8
rdata$r	SEGMENT
??_R1A@?0A@EA@ShopBuyWndBase@@8 DD FLAT:??_R0?AVShopBuyWndBase@@@8 ; ShopBuyWndBase::`RTTI Base Class Descriptor at (0,-1,0,64)'
	DD	02H
	DD	00H
	DD	0ffffffffH
	DD	00H
	DD	040H
	DD	FLAT:??_R3ShopBuyWndBase@@8
rdata$r	ENDS
;	COMDAT ??_R2ShopBuyWndBase@@8
rdata$r	SEGMENT
??_R2ShopBuyWndBase@@8 DD FLAT:??_R1A@?0A@EA@ShopBuyWndBase@@8 ; ShopBuyWndBase::`RTTI Base Class Array'
	DD	FLAT:??_R1A@?0A@EA@ioWndEX@@8
	DD	FLAT:??_R1A@?0A@EA@ioWnd@@8
rdata$r	ENDS
;	COMDAT ??_R3ShopBuyWndBase@@8
rdata$r	SEGMENT
??_R3ShopBuyWndBase@@8 DD 00H				; ShopBuyWndBase::`RTTI Class Hierarchy Descriptor'
	DD	00H
	DD	03H
	DD	FLAT:??_R2ShopBuyWndBase@@8
rdata$r	ENDS
;	COMDAT ??_R0?AVShopBuyWndBase@@@8
_DATA	SEGMENT
??_R0?AVShopBuyWndBase@@@8 DD FLAT:??_7type_info@@6B@	; ShopBuyWndBase `RTTI Type Descriptor'
	DD	00H
	DB	'.?AVShopBuyWndBase@@', 00H
_DATA	ENDS
;	COMDAT ??_R4ShopBuyWndBase@@6B@
rdata$r	SEGMENT
??_R4ShopBuyWndBase@@6B@ DD 00H				; ShopBuyWndBase::`RTTI Complete Object Locator'
	DD	00H
	DD	00H
	DD	FLAT:??_R0?AVShopBuyWndBase@@@8
	DD	FLAT:??_R3ShopBuyWndBase@@8
rdata$r	ENDS
;	COMDAT ??_7ShopBuyWndBase@@6B@
CONST	SEGMENT
??_7ShopBuyWndBase@@6B@ DD FLAT:??_R4ShopBuyWndBase@@6B@ ; ShopBuyWndBase::`vftable'
	DD	FLAT:?AddRenderFrame@ioWnd@@UAEXABVioHashString@@PAVioUIRenderFrame@@@Z
	DD	FLAT:?AddRenderImage@ioWnd@@UAEXABVioHashString@@PAVioUIRenderImage@@@Z
	DD	FLAT:?AddTooltipHelp@ioWnd@@UAEXABVioHashString@@00@Z
	DD	FLAT:?ParseExtraInfo@ioWndEX@@UAEXAAVioXMLElement@@@Z
	DD	FLAT:?AddNamedRenderImage@ioWnd@@UAEXABVioHashString@@PAVioUIRenderImage@@@Z
	DD	FLAT:?RemoveNamedRenderImage@ioWnd@@UAEXABVioHashString@@@Z
	DD	FLAT:?GetNamedRenderImage@ioWnd@@UBEPAVioUIRenderImage@@ABVioHashString@@@Z
	DD	FLAT:?SetWindowAlpha@ioWnd@@UAEXH@Z
	DD	FLAT:?SetActive@ioWnd@@UAEXXZ
	DD	FLAT:?SetInActive@ioWnd@@UAEXXZ
	DD	FLAT:?ClearElementImageList@ioWnd@@UAEXXZ
	DD	FLAT:?SetSize@ioWnd@@UAEXHH@Z
	DD	FLAT:?SetPositionToDefault@ioWnd@@UAEXHH_N0@Z
	DD	FLAT:?IsNeedProcess@ioWnd@@UBE_NXZ
	DD	FLAT:?IsCanMouseReaction@ioWnd@@UBE_NXZ
	DD	FLAT:?AddChild@ioWnd@@UAEXPAV1@@Z
	DD	FLAT:?DeleteChild@ioWnd@@UAEXK@Z
	DD	FLAT:?DeleteAllChild@ioWnd@@UAEXXZ
	DD	FLAT:?OnRenderShowAndHide@ioWnd@@MAE_NXZ
	DD	FLAT:?OnRenderShowAndHideByDefault@ioWnd@@MAE_NK@Z
	DD	FLAT:?OnRenderShowAndHideByTop@ioWnd@@MAE_NK@Z
	DD	FLAT:?OnRenderShowAndHideByDown@ioWnd@@MAE_NK@Z
	DD	FLAT:?OnRender@ioWnd@@MAEXXZ
	DD	FLAT:?OnRenderAfterChild@ioWnd@@MAEXXZ
	DD	FLAT:?OnProcess@ioWnd@@MAEXM@Z
	DD	FLAT:?OnMouseProcess@ioWnd@@MAEXABVioMouse@@@Z
	DD	FLAT:?CheckFrameReSize@ioWnd@@MAEXHHHH@Z
	DD	FLAT:?RenderImageList@ioWnd@@MAEXHHW4UIRenderType@@@Z
	DD	FLAT:?iwm_create@ShopBuyWndBase@@UAEXXZ
	DD	FLAT:?iwm_destroy@ShopBuyWndBase@@UAEXXZ
	DD	FLAT:?iwm_lbuttondown@ioWndEX@@UAEXABVioMouse@@@Z
	DD	FLAT:?iwm_lbuttonup@ioWndEX@@UAEXABVioMouse@@@Z
	DD	FLAT:?iwm_lbuttonDBLCLK@ioWndEX@@UAEXABVioMouse@@@Z
	DD	FLAT:?iwm_rbuttondown@ioWndEX@@UAEXABVioMouse@@@Z
	DD	FLAT:?iwm_rbuttonup@ioWndEX@@UAEXABVioMouse@@@Z
	DD	FLAT:?iwm_command@ioWnd@@UAEXPAV1@HK@Z
	DD	FLAT:?iwm_mouseover@ioWndEX@@UAEXABVioMouse@@@Z
	DD	FLAT:?iwm_mousemove@ioWndEX@@UAEXABVioMouse@@@Z
	DD	FLAT:?iwm_mouseleave@ioWndEX@@UAEXABVioMouse@@@Z
	DD	FLAT:?iwm_vscroll@ioWnd@@UAEXKH@Z
	DD	FLAT:?iwm_wheel@ioWndEX@@UAEXH@Z
	DD	FLAT:?iwm_show@ioWndEX@@UAEXXZ
	DD	FLAT:?iwm_hide@ioWndEX@@UAEXXZ
	DD	FLAT:?iwm_esc@ioWndEX@@UAE_NXZ
	DD	FLAT:?iwm_spacebar@ioWndEX@@UAE_NXZ
	DD	FLAT:?iwm_gototop@ioWnd@@UAEXXZ
	DD	FLAT:?iwm_dragenter@ioWnd@@UAE?AW4IWDropEffect@@PAVioDragItem@@ABVioMouse@@@Z
	DD	FLAT:?iwm_dragover@ioWnd@@UAE?AW4IWDropEffect@@PAVioDragItem@@ABVioMouse@@@Z
	DD	FLAT:?iwm_dragleave@ioWnd@@UAEXXZ
	DD	FLAT:?iwm_dropitem@ioWnd@@UAE_NPAVioDragItem@@ABVioMouse@@PAV1@@Z
	DD	FLAT:?iwm_dropdone@ioWnd@@UAEXPAVioDragItem@@PAV1@_N@Z
	DD	FLAT:?IsEXType@ioWndEX@@UBE_NXZ
	DD	FLAT:?GetWndType@ioWnd@@UBEKXZ
	DD	FLAT:?RenderWnd@ioWnd@@UAEXXZ
	DD	FLAT:?SetIDEX@ioWnd@@UAEXAAK_N@Z
	DD	FLAT:?ParseXML@ioWnd@@UAEXAAVioXMLElement@@@Z
	DD	FLAT:?GetHeaderFileName@ioWndEX@@UAEPBDXZ
	DD	FLAT:?GetTemplateName@ioWndEX@@UAEPBDXZ
	DD	FLAT:?GetDefClassName@ioWndEX@@UBEPBDXZ
	DD	FLAT:?_Clone@ioWndEX@@UAEPAVioWnd@@XZ
	DD	FLAT:?Copy@ioWnd@@UAEXPAV1@@Z
	DD	FLAT:?Save@ioWnd@@UAE_NAAVioXMLElement@@@Z
	DD	FLAT:?SetSaveData@ioWndEX@@UAEXAAVioXMLElement@@@Z
	DD	FLAT:?SetPosX@ioWnd@@UAEXH@Z
	DD	FLAT:?SetPosY@ioWnd@@UAEXH@Z
	DD	FLAT:?SetWidth@ioWnd@@UAEXH@Z
	DD	FLAT:?SetHeight@ioWnd@@UAEXH@Z
	DD	FLAT:?GetNumFixedRenderFrame@ioWnd@@UBEHXZ
	DD	FLAT:?GetFixedRenderFrameType@ioWnd@@UAEPBDH@Z
	DD	FLAT:?GetRenderFrame@ioWnd@@UAEPAPAVioUIRenderElement@@PBD@Z
	DD	FLAT:?GetNumFixedRenderImage@ioWnd@@UBEHXZ
	DD	FLAT:?GetFixedRenderImageType@ioWnd@@UAEPBDH@Z
	DD	FLAT:?GetRenderImage@ioWnd@@UAEPAPAVioUIRenderElement@@PBD@Z
	DD	FLAT:?AddEffect@ioWnd@@UAEXABVioHashString@@PAVioUI3DEffectRender@@@Z
	DD	FLAT:?GetEffect@ioWnd@@UAEPAVioUI3DEffectRender@@VioHashString@@@Z
	DD	FLAT:??_EShopBuyWndBase@@UAEPAXI@Z
	DD	FLAT:?_ParseExtraInfo@ioWndEX@@UAEXAAVioXMLElement@@@Z
	DD	FLAT:?_SetSaveData@ioWndEX@@UAEXAAVioXMLElement@@@Z
	DD	FLAT:?OnClickBuy@ShopBuyWndBase@@UAEXPAVioWndEX@@AAVioWndEXMouseEvent@@@Z
	DD	FLAT:?OnClickClose@ShopBuyWndBase@@UAEXPAVioWndEX@@AAVioWndEXMouseEvent@@@Z
	DD	FLAT:?OnClickPresent@ShopBuyWndBase@@UAEXPAVioWndEX@@AAVioWndEXMouseEvent@@@Z
; Function compile flags: /Ogsp
CONST	ENDS
;	COMDAT ??0ShopBuyWndBase@@QAE@XZ
_TEXT	SEGMENT
??0ShopBuyWndBase@@QAE@XZ PROC				; ShopBuyWndBase::ShopBuyWndBase, COMDAT
; _this$ = ecx

; 47   : 	{

  00000	56		 push	 esi
  00001	8b f1		 mov	 esi, ecx
  00003	ff 15 00 00 00
	00		 call	 DWORD PTR __imp_??0ioWndEX@@QAE@XZ

; 48   : 		m_adddesclabel = 0;

  00009	33 c0		 xor	 eax, eax
  0000b	89 86 8c 01 00
	00		 mov	 DWORD PTR [esi+396], eax

; 49   : 		m_btmwndex = 0;

  00011	89 86 84 01 00
	00		 mov	 DWORD PTR [esi+388], eax

; 50   : 		m_descrich = 0;

  00017	89 86 90 01 00
	00		 mov	 DWORD PTR [esi+400], eax

; 51   : 		m_iconimg = 0;

  0001d	89 86 88 01 00
	00		 mov	 DWORD PTR [esi+392], eax

; 52   : 		m_midwndex = 0;

  00023	89 86 98 01 00
	00		 mov	 DWORD PTR [esi+408], eax

; 53   : 		m_namerich = 0;

  00029	89 86 94 01 00
	00		 mov	 DWORD PTR [esi+404], eax
  0002f	c7 06 00 00 00
	00		 mov	 DWORD PTR [esi], OFFSET ??_7ShopBuyWndBase@@6B@

; 54   : 
; 55   : 	}

  00035	8b c6		 mov	 eax, esi
  00037	5e		 pop	 esi
  00038	c3		 ret	 0
??0ShopBuyWndBase@@QAE@XZ ENDP				; ShopBuyWndBase::ShopBuyWndBase
_TEXT	ENDS
PUBLIC	??1ShopBuyWndBase@@UAE@XZ			; ShopBuyWndBase::~ShopBuyWndBase
EXTRN	__imp_??1ioWndEX@@UAE@XZ:PROC
; Function compile flags: /Ogsp
;	COMDAT ??1ShopBuyWndBase@@UAE@XZ
_TEXT	SEGMENT
??1ShopBuyWndBase@@UAE@XZ PROC				; ShopBuyWndBase::~ShopBuyWndBase, COMDAT
; _this$ = ecx

; 58   : 	{

  00000	c7 01 00 00 00
	00		 mov	 DWORD PTR [ecx], OFFSET ??_7ShopBuyWndBase@@6B@

; 59   : 	}

  00006	ff 25 00 00 00
	00		 jmp	 DWORD PTR __imp_??1ioWndEX@@UAE@XZ
??1ShopBuyWndBase@@UAE@XZ ENDP				; ShopBuyWndBase::~ShopBuyWndBase
_TEXT	ENDS
EXTRN	__imp_?iwm_destroy@ioWndEX@@UAEXXZ:PROC
EXTRN	__imp_?Disconnect@ioWndEX@@QAEXW4WNDEX_EVENT_TYPE@@PAV1@@Z:PROC
EXTRN	__imp_?FindChildWndEX@ioWnd@@QAEPAV1@K_N@Z:PROC
; Function compile flags: /Ogsp
;	COMDAT ?iwm_destroy@ShopBuyWndBase@@UAEXXZ
_TEXT	SEGMENT
?iwm_destroy@ShopBuyWndBase@@UAEXXZ PROC		; ShopBuyWndBase::iwm_destroy, COMDAT
; _this$ = ecx

; 99   : 	{

  00000	53		 push	 ebx
  00001	56		 push	 esi

; 100  : 		{
; 101  : 				ioWndEX* child = (ioWndEX*)( FindChildWndEX(46) );

  00002	8b 35 00 00 00
	00		 mov	 esi, DWORD PTR __imp_?FindChildWndEX@ioWnd@@QAEPAV1@K_N@Z
  00008	57		 push	 edi
  00009	6a 00		 push	 0
  0000b	6a 2e		 push	 46			; 0000002eH
  0000d	8b d9		 mov	 ebx, ecx
  0000f	ff d6		 call	 esi

; 102  : 				if ( child ) {

  00011	8b 3d 00 00 00
	00		 mov	 edi, DWORD PTR __imp_?Disconnect@ioWndEX@@QAEXW4WNDEX_EVENT_TYPE@@PAV1@@Z
  00017	85 c0		 test	 eax, eax
  00019	74 07		 je	 SHORT $LN3@iwm_destro

; 103  : 					child->Disconnect( static_cast<WNDEX_EVENT_TYPE>(7), this );

  0001b	53		 push	 ebx
  0001c	6a 07		 push	 7
  0001e	8b c8		 mov	 ecx, eax
  00020	ff d7		 call	 edi
$LN3@iwm_destro:

; 104  : 				}
; 105  : 		}
; 106  : 		{
; 107  : 				ioWndEX* child = (ioWndEX*)( FindChildWndEX(47) );

  00022	6a 00		 push	 0
  00024	6a 2f		 push	 47			; 0000002fH
  00026	8b cb		 mov	 ecx, ebx
  00028	ff d6		 call	 esi

; 108  : 				if ( child ) {

  0002a	85 c0		 test	 eax, eax
  0002c	74 07		 je	 SHORT $LN2@iwm_destro

; 109  : 					child->Disconnect( static_cast<WNDEX_EVENT_TYPE>(7), this );

  0002e	53		 push	 ebx
  0002f	6a 07		 push	 7
  00031	8b c8		 mov	 ecx, eax
  00033	ff d7		 call	 edi
$LN2@iwm_destro:

; 110  : 				}
; 111  : 		}
; 112  : 		{
; 113  : 				ioWndEX* child = (ioWndEX*)( FindChildWndEX(5) );

  00035	6a 00		 push	 0
  00037	6a 05		 push	 5
  00039	8b cb		 mov	 ecx, ebx
  0003b	ff d6		 call	 esi

; 114  : 				if ( child ) {

  0003d	85 c0		 test	 eax, eax
  0003f	74 07		 je	 SHORT $LN1@iwm_destro

; 115  : 					child->Disconnect( static_cast<WNDEX_EVENT_TYPE>(7), this );

  00041	53		 push	 ebx
  00042	6a 07		 push	 7
  00044	8b c8		 mov	 ecx, eax
  00046	ff d7		 call	 edi
$LN1@iwm_destro:

; 116  : 				}
; 117  : 		}
; 118  : 
; 119  : 
; 120  : 		ioWndEX::iwm_destroy();

  00048	5f		 pop	 edi
  00049	5e		 pop	 esi
  0004a	8b cb		 mov	 ecx, ebx
  0004c	5b		 pop	 ebx
  0004d	ff 25 00 00 00
	00		 jmp	 DWORD PTR __imp_?iwm_destroy@ioWndEX@@UAEXXZ
?iwm_destroy@ShopBuyWndBase@@UAEXXZ ENDP		; ShopBuyWndBase::iwm_destroy
; Function compile flags: /Ogsp
_TEXT	ENDS
;	COMDAT ?OnClickBuy@ShopBuyWndBase@@UAEXPAVioWndEX@@AAVioWndEXMouseEvent@@@Z
_TEXT	SEGMENT
_wnd$ = 8						; size = 4
_event$ = 12						; size = 4
?OnClickBuy@ShopBuyWndBase@@UAEXPAVioWndEX@@AAVioWndEXMouseEvent@@@Z PROC ; ShopBuyWndBase::OnClickBuy, COMDAT
; _this$ = ecx

; 127  : 	virtual void OnClickBuy( ioWndEX* wnd, ioWndEXMouseEvent& event ) {}

  00000	c2 08 00	 ret	 8
?OnClickBuy@ShopBuyWndBase@@UAEXPAVioWndEX@@AAVioWndEXMouseEvent@@@Z ENDP ; ShopBuyWndBase::OnClickBuy
; Function compile flags: /Ogsp
_TEXT	ENDS
;	COMDAT ?OnClickClose@ShopBuyWndBase@@UAEXPAVioWndEX@@AAVioWndEXMouseEvent@@@Z
_TEXT	SEGMENT
_wnd$ = 8						; size = 4
_event$ = 12						; size = 4
?OnClickClose@ShopBuyWndBase@@UAEXPAVioWndEX@@AAVioWndEXMouseEvent@@@Z PROC ; ShopBuyWndBase::OnClickClose, COMDAT
; _this$ = ecx

; 128  : 	virtual void OnClickClose( ioWndEX* wnd, ioWndEXMouseEvent& event ) {}

  00000	c2 08 00	 ret	 8
?OnClickClose@ShopBuyWndBase@@UAEXPAVioWndEX@@AAVioWndEXMouseEvent@@@Z ENDP ; ShopBuyWndBase::OnClickClose
; Function compile flags: /Ogsp
_TEXT	ENDS
;	COMDAT ?OnClickPresent@ShopBuyWndBase@@UAEXPAVioWndEX@@AAVioWndEXMouseEvent@@@Z
_TEXT	SEGMENT
_wnd$ = 8						; size = 4
_event$ = 12						; size = 4
?OnClickPresent@ShopBuyWndBase@@UAEXPAVioWndEX@@AAVioWndEXMouseEvent@@@Z PROC ; ShopBuyWndBase::OnClickPresent, COMDAT
; _this$ = ecx

; 129  : 	virtual void OnClickPresent( ioWndEX* wnd, ioWndEXMouseEvent& event ) {}

  00000	c2 08 00	 ret	 8
?OnClickPresent@ShopBuyWndBase@@UAEXPAVioWndEX@@AAVioWndEXMouseEvent@@@Z ENDP ; ShopBuyWndBase::OnClickPresent
; Function compile flags: /Ogsp
_TEXT	ENDS
;	COMDAT ??_GShopBuyWndBase@@UAEPAXI@Z
_TEXT	SEGMENT
___flags$ = 8						; size = 4
??_GShopBuyWndBase@@UAEPAXI@Z PROC			; ShopBuyWndBase::`scalar deleting destructor', COMDAT
; _this$ = ecx
  00000	55		 push	 ebp
  00001	8b ec		 mov	 ebp, esp
  00003	56		 push	 esi
  00004	8b f1		 mov	 esi, ecx
  00006	c7 06 00 00 00
	00		 mov	 DWORD PTR [esi], OFFSET ??_7ShopBuyWndBase@@6B@
  0000c	ff 15 00 00 00
	00		 call	 DWORD PTR __imp_??1ioWndEX@@UAE@XZ
  00012	f6 45 08 01	 test	 BYTE PTR ___flags$[ebp], 1
  00016	74 07		 je	 SHORT $LN1@scalar@2
  00018	56		 push	 esi
  00019	e8 00 00 00 00	 call	 ??3@YAXPAX@Z		; operator delete
  0001e	59		 pop	 ecx
$LN1@scalar@2:
  0001f	8b c6		 mov	 eax, esi
  00021	5e		 pop	 esi
  00022	5d		 pop	 ebp
  00023	c2 04 00	 ret	 4
??_GShopBuyWndBase@@UAEPAXI@Z ENDP			; ShopBuyWndBase::`scalar deleting destructor'
_TEXT	ENDS
PUBLIC	?_Adopt@_Iterator_base0@std@@QAEXPBX@Z		; std::_Iterator_base0::_Adopt
; Function compile flags: /Ogsp
; File c:\program files (x86)\microsoft visual studio 10.0\vc\include\xutility
;	COMDAT ?_Adopt@_Iterator_base0@std@@QAEXPBX@Z
_TEXT	SEGMENT
___formal$ = 8						; size = 4
?_Adopt@_Iterator_base0@std@@QAEXPBX@Z PROC		; std::_Iterator_base0::_Adopt, COMDAT
; _this$ = ecx

; 49   : 		}

  00000	c2 04 00	 ret	 4
?_Adopt@_Iterator_base0@std@@QAEXPBX@Z ENDP		; std::_Iterator_base0::_Adopt
_TEXT	ENDS
PUBLIC	?OnClickBuy@ShopBuyWnd@@UAEXPAVioWndEX@@AAVioWndEXMouseEvent@@@Z ; ShopBuyWnd::OnClickBuy
; Function compile flags: /Ogsp
; File d:\lost saga for developer\youtube\tutorial\source\src\lsclient\gui\shopbuywnd.cpp
;	COMDAT ?OnClickBuy@ShopBuyWnd@@UAEXPAVioWndEX@@AAVioWndEXMouseEvent@@@Z
_TEXT	SEGMENT
_wnd$ = 8						; size = 4
_event$ = 12						; size = 4
?OnClickBuy@ShopBuyWnd@@UAEXPAVioWndEX@@AAVioWndEXMouseEvent@@@Z PROC ; ShopBuyWnd::OnClickBuy, COMDAT
; _this$ = ecx

; 187  : }

  00000	c2 08 00	 ret	 8
?OnClickBuy@ShopBuyWnd@@UAEXPAVioWndEX@@AAVioWndEXMouseEvent@@@Z ENDP ; ShopBuyWnd::OnClickBuy
_TEXT	ENDS
PUBLIC	?OnClickClose@ShopBuyWnd@@UAEXPAVioWndEX@@AAVioWndEXMouseEvent@@@Z ; ShopBuyWnd::OnClickClose
EXTRN	__imp_?HideWnd@ioWnd@@QAEXXZ:PROC
; Function compile flags: /Ogsp
;	COMDAT ?OnClickClose@ShopBuyWnd@@UAEXPAVioWndEX@@AAVioWndEXMouseEvent@@@Z
_TEXT	SEGMENT
_wnd$ = 8						; size = 4
_event$ = 12						; size = 4
?OnClickClose@ShopBuyWnd@@UAEXPAVioWndEX@@AAVioWndEXMouseEvent@@@Z PROC ; ShopBuyWnd::OnClickClose, COMDAT
; _this$ = ecx

; 191  : 	HideWnd();

  00000	ff 15 00 00 00
	00		 call	 DWORD PTR __imp_?HideWnd@ioWnd@@QAEXXZ

; 192  : }

  00006	c2 08 00	 ret	 8
?OnClickClose@ShopBuyWnd@@UAEXPAVioWndEX@@AAVioWndEXMouseEvent@@@Z ENDP ; ShopBuyWnd::OnClickClose
_TEXT	ENDS
PUBLIC	?OnClickPresent@ShopBuyWnd@@UAEXPAVioWndEX@@AAVioWndEXMouseEvent@@@Z ; ShopBuyWnd::OnClickPresent
; Function compile flags: /Ogsp
;	COMDAT ?OnClickPresent@ShopBuyWnd@@UAEXPAVioWndEX@@AAVioWndEXMouseEvent@@@Z
_TEXT	SEGMENT
_wnd$ = 8						; size = 4
_event$ = 12						; size = 4
?OnClickPresent@ShopBuyWnd@@UAEXPAVioWndEX@@AAVioWndEXMouseEvent@@@Z PROC ; ShopBuyWnd::OnClickPresent, COMDAT
; _this$ = ecx

; 196  : }

  00000	c2 08 00	 ret	 8
?OnClickPresent@ShopBuyWnd@@UAEXPAVioWndEX@@AAVioWndEXMouseEvent@@@Z ENDP ; ShopBuyWnd::OnClickPresent
_TEXT	ENDS
PUBLIC	??_7?$ioWndEXEventHandlerEX@VShopBuyWndBase@@VioWndEXMouseEvent@@@@6B@ ; ioWndEXEventHandlerEX<ShopBuyWndBase,ioWndEXMouseEvent>::`vftable'
PUBLIC	??1?$ioWndEXEventHandlerEX@VShopBuyWndBase@@VioWndEXMouseEvent@@@@UAE@XZ ; ioWndEXEventHandlerEX<ShopBuyWndBase,ioWndEXMouseEvent>::~ioWndEXEventHandlerEX<ShopBuyWndBase,ioWndEXMouseEvent>
PUBLIC	??_R4?$ioWndEXEventHandlerEX@VShopBuyWndBase@@VioWndEXMouseEvent@@@@6B@ ; ioWndEXEventHandlerEX<ShopBuyWndBase,ioWndEXMouseEvent>::`RTTI Complete Object Locator'
PUBLIC	??_R0?AV?$ioWndEXEventHandlerEX@VShopBuyWndBase@@VioWndEXMouseEvent@@@@@8 ; ioWndEXEventHandlerEX<ShopBuyWndBase,ioWndEXMouseEvent> `RTTI Type Descriptor'
PUBLIC	??_R3?$ioWndEXEventHandlerEX@VShopBuyWndBase@@VioWndEXMouseEvent@@@@8 ; ioWndEXEventHandlerEX<ShopBuyWndBase,ioWndEXMouseEvent>::`RTTI Class Hierarchy Descriptor'
PUBLIC	??_R2?$ioWndEXEventHandlerEX@VShopBuyWndBase@@VioWndEXMouseEvent@@@@8 ; ioWndEXEventHandlerEX<ShopBuyWndBase,ioWndEXMouseEvent>::`RTTI Base Class Array'
PUBLIC	??_R1A@?0A@EA@?$ioWndEXEventHandlerEX@VShopBuyWndBase@@VioWndEXMouseEvent@@@@8 ; ioWndEXEventHandlerEX<ShopBuyWndBase,ioWndEXMouseEvent>::`RTTI Base Class Descriptor at (0,-1,0,64)'
PUBLIC	??_R1A@?0A@EA@ioWndEXEventHandlerBase@@8	; ioWndEXEventHandlerBase::`RTTI Base Class Descriptor at (0,-1,0,64)'
PUBLIC	??_R0?AVioWndEXEventHandlerBase@@@8		; ioWndEXEventHandlerBase `RTTI Type Descriptor'
PUBLIC	??_R3ioWndEXEventHandlerBase@@8			; ioWndEXEventHandlerBase::`RTTI Class Hierarchy Descriptor'
PUBLIC	??_R2ioWndEXEventHandlerBase@@8			; ioWndEXEventHandlerBase::`RTTI Base Class Array'
PUBLIC	?Call@?$ioWndEXEventHandlerEX@VShopBuyWndBase@@VioWndEXMouseEvent@@@@UAEXPAVioWndEX@@AAVioWndEXEvent@@@Z ; ioWndEXEventHandlerEX<ShopBuyWndBase,ioWndEXMouseEvent>::Call
EXTRN	__imp_??1ioWndEXEventHandlerBase@@UAE@XZ:PROC
EXTRN	??_E?$ioWndEXEventHandlerEX@VShopBuyWndBase@@VioWndEXMouseEvent@@@@UAEPAXI@Z:PROC ; ioWndEXEventHandlerEX<ShopBuyWndBase,ioWndEXMouseEvent>::`vector deleting destructor'
;	COMDAT ??_R2ioWndEXEventHandlerBase@@8
; File d:\lost saga for developer\youtube\tutorial\source\src\lsclient\gui\iowndexeventhandlerex.h
rdata$r	SEGMENT
??_R2ioWndEXEventHandlerBase@@8 DD FLAT:??_R1A@?0A@EA@ioWndEXEventHandlerBase@@8 ; ioWndEXEventHandlerBase::`RTTI Base Class Array'
rdata$r	ENDS
;	COMDAT ??_R3ioWndEXEventHandlerBase@@8
rdata$r	SEGMENT
??_R3ioWndEXEventHandlerBase@@8 DD 00H			; ioWndEXEventHandlerBase::`RTTI Class Hierarchy Descriptor'
	DD	00H
	DD	01H
	DD	FLAT:??_R2ioWndEXEventHandlerBase@@8
rdata$r	ENDS
;	COMDAT ??_R0?AVioWndEXEventHandlerBase@@@8
_DATA	SEGMENT
??_R0?AVioWndEXEventHandlerBase@@@8 DD FLAT:??_7type_info@@6B@ ; ioWndEXEventHandlerBase `RTTI Type Descriptor'
	DD	00H
	DB	'.?AVioWndEXEventHandlerBase@@', 00H
_DATA	ENDS
;	COMDAT ??_R1A@?0A@EA@ioWndEXEventHandlerBase@@8
rdata$r	SEGMENT
??_R1A@?0A@EA@ioWndEXEventHandlerBase@@8 DD FLAT:??_R0?AVioWndEXEventHandlerBase@@@8 ; ioWndEXEventHandlerBase::`RTTI Base Class Descriptor at (0,-1,0,64)'
	DD	00H
	DD	00H
	DD	0ffffffffH
	DD	00H
	DD	040H
	DD	FLAT:??_R3ioWndEXEventHandlerBase@@8
rdata$r	ENDS
;	COMDAT ??_R1A@?0A@EA@?$ioWndEXEventHandlerEX@VShopBuyWndBase@@VioWndEXMouseEvent@@@@8
rdata$r	SEGMENT
??_R1A@?0A@EA@?$ioWndEXEventHandlerEX@VShopBuyWndBase@@VioWndEXMouseEvent@@@@8 DD FLAT:??_R0?AV?$ioWndEXEventHandlerEX@VShopBuyWndBase@@VioWndEXMouseEvent@@@@@8 ; ioWndEXEventHandlerEX<ShopBuyWndBase,ioWndEXMouseEvent>::`RTTI Base Class Descriptor at (0,-1,0,64)'
	DD	01H
	DD	00H
	DD	0ffffffffH
	DD	00H
	DD	040H
	DD	FLAT:??_R3?$ioWndEXEventHandlerEX@VShopBuyWndBase@@VioWndEXMouseEvent@@@@8
rdata$r	ENDS
;	COMDAT ??_R2?$ioWndEXEventHandlerEX@VShopBuyWndBase@@VioWndEXMouseEvent@@@@8
rdata$r	SEGMENT
??_R2?$ioWndEXEventHandlerEX@VShopBuyWndBase@@VioWndEXMouseEvent@@@@8 DD FLAT:??_R1A@?0A@EA@?$ioWndEXEventHandlerEX@VShopBuyWndBase@@VioWndEXMouseEvent@@@@8 ; ioWndEXEventHandlerEX<ShopBuyWndBase,ioWndEXMouseEvent>::`RTTI Base Class Array'
	DD	FLAT:??_R1A@?0A@EA@ioWndEXEventHandlerBase@@8
rdata$r	ENDS
;	COMDAT ??_R3?$ioWndEXEventHandlerEX@VShopBuyWndBase@@VioWndEXMouseEvent@@@@8
rdata$r	SEGMENT
??_R3?$ioWndEXEventHandlerEX@VShopBuyWndBase@@VioWndEXMouseEvent@@@@8 DD 00H ; ioWndEXEventHandlerEX<ShopBuyWndBase,ioWndEXMouseEvent>::`RTTI Class Hierarchy Descriptor'
	DD	00H
	DD	02H
	DD	FLAT:??_R2?$ioWndEXEventHandlerEX@VShopBuyWndBase@@VioWndEXMouseEvent@@@@8
rdata$r	ENDS
;	COMDAT ??_R0?AV?$ioWndEXEventHandlerEX@VShopBuyWndBase@@VioWndEXMouseEvent@@@@@8
_DATA	SEGMENT
??_R0?AV?$ioWndEXEventHandlerEX@VShopBuyWndBase@@VioWndEXMouseEvent@@@@@8 DD FLAT:??_7type_info@@6B@ ; ioWndEXEventHandlerEX<ShopBuyWndBase,ioWndEXMouseEvent> `RTTI Type Descriptor'
	DD	00H
	DB	'.?AV?$ioWndEXEventHandlerEX@VShopBuyWndBase@@VioWndEXMou'
	DB	'seEvent@@@@', 00H
_DATA	ENDS
;	COMDAT ??_R4?$ioWndEXEventHandlerEX@VShopBuyWndBase@@VioWndEXMouseEvent@@@@6B@
rdata$r	SEGMENT
??_R4?$ioWndEXEventHandlerEX@VShopBuyWndBase@@VioWndEXMouseEvent@@@@6B@ DD 00H ; ioWndEXEventHandlerEX<ShopBuyWndBase,ioWndEXMouseEvent>::`RTTI Complete Object Locator'
	DD	00H
	DD	00H
	DD	FLAT:??_R0?AV?$ioWndEXEventHandlerEX@VShopBuyWndBase@@VioWndEXMouseEvent@@@@@8
	DD	FLAT:??_R3?$ioWndEXEventHandlerEX@VShopBuyWndBase@@VioWndEXMouseEvent@@@@8
rdata$r	ENDS
;	COMDAT ??_7?$ioWndEXEventHandlerEX@VShopBuyWndBase@@VioWndEXMouseEvent@@@@6B@
CONST	SEGMENT
??_7?$ioWndEXEventHandlerEX@VShopBuyWndBase@@VioWndEXMouseEvent@@@@6B@ DD FLAT:??_R4?$ioWndEXEventHandlerEX@VShopBuyWndBase@@VioWndEXMouseEvent@@@@6B@ ; ioWndEXEventHandlerEX<ShopBuyWndBase,ioWndEXMouseEvent>::`vftable'
	DD	FLAT:??_E?$ioWndEXEventHandlerEX@VShopBuyWndBase@@VioWndEXMouseEvent@@@@UAEPAXI@Z
	DD	FLAT:?Call@?$ioWndEXEventHandlerEX@VShopBuyWndBase@@VioWndEXMouseEvent@@@@UAEXPAVioWndEX@@AAVioWndEXEvent@@@Z
; Function compile flags: /Ogsp
CONST	ENDS
;	COMDAT ??1?$ioWndEXEventHandlerEX@VShopBuyWndBase@@VioWndEXMouseEvent@@@@UAE@XZ
_TEXT	SEGMENT
??1?$ioWndEXEventHandlerEX@VShopBuyWndBase@@VioWndEXMouseEvent@@@@UAE@XZ PROC ; ioWndEXEventHandlerEX<ShopBuyWndBase,ioWndEXMouseEvent>::~ioWndEXEventHandlerEX<ShopBuyWndBase,ioWndEXMouseEvent>, COMDAT
; _this$ = ecx

; 34   : 	{}

  00000	c7 01 00 00 00
	00		 mov	 DWORD PTR [ecx], OFFSET ??_7?$ioWndEXEventHandlerEX@VShopBuyWndBase@@VioWndEXMouseEvent@@@@6B@
  00006	ff 25 00 00 00
	00		 jmp	 DWORD PTR __imp_??1ioWndEXEventHandlerBase@@UAE@XZ
??1?$ioWndEXEventHandlerEX@VShopBuyWndBase@@VioWndEXMouseEvent@@@@UAE@XZ ENDP ; ioWndEXEventHandlerEX<ShopBuyWndBase,ioWndEXMouseEvent>::~ioWndEXEventHandlerEX<ShopBuyWndBase,ioWndEXMouseEvent>
; Function compile flags: /Ogsp
_TEXT	ENDS
;	COMDAT ?Call@?$ioWndEXEventHandlerEX@VShopBuyWndBase@@VioWndEXMouseEvent@@@@UAEXPAVioWndEX@@AAVioWndEXEvent@@@Z
_TEXT	SEGMENT
_wnd$ = 8						; size = 4
_event$ = 12						; size = 4
?Call@?$ioWndEXEventHandlerEX@VShopBuyWndBase@@VioWndEXMouseEvent@@@@UAEXPAVioWndEX@@AAVioWndEXEvent@@@Z PROC ; ioWndEXEventHandlerEX<ShopBuyWndBase,ioWndEXMouseEvent>::Call, COMDAT
; _this$ = ecx

; 37   : 	{

  00000	55		 push	 ebp
  00001	8b ec		 mov	 ebp, esp
  00003	8b c1		 mov	 eax, ecx

; 38   : 		if ( m_owner && m_callback ) {

  00005	8b 48 08	 mov	 ecx, DWORD PTR [eax+8]
  00008	85 c9		 test	 ecx, ecx
  0000a	74 0a		 je	 SHORT $LN1@Call
  0000c	8b 40 0c	 mov	 eax, DWORD PTR [eax+12]
  0000f	85 c0		 test	 eax, eax
  00011	74 03		 je	 SHORT $LN1@Call

; 40   : 		}
; 41   : 	}

  00013	5d		 pop	 ebp

; 39   : 			(m_owner->*m_callback)( wnd, ((EOT&)( event )) );

  00014	ff e0		 jmp	 eax
$LN1@Call:

; 40   : 		}
; 41   : 	}

  00016	5d		 pop	 ebp
  00017	c2 08 00	 ret	 8
?Call@?$ioWndEXEventHandlerEX@VShopBuyWndBase@@VioWndEXMouseEvent@@@@UAEXPAVioWndEX@@AAVioWndEXEvent@@@Z ENDP ; ioWndEXEventHandlerEX<ShopBuyWndBase,ioWndEXMouseEvent>::Call
; Function compile flags: /Ogsp
_TEXT	ENDS
;	COMDAT ??_G?$ioWndEXEventHandlerEX@VShopBuyWndBase@@VioWndEXMouseEvent@@@@UAEPAXI@Z
_TEXT	SEGMENT
___flags$ = 8						; size = 4
??_G?$ioWndEXEventHandlerEX@VShopBuyWndBase@@VioWndEXMouseEvent@@@@UAEPAXI@Z PROC ; ioWndEXEventHandlerEX<ShopBuyWndBase,ioWndEXMouseEvent>::`scalar deleting destructor', COMDAT
; _this$ = ecx
  00000	55		 push	 ebp
  00001	8b ec		 mov	 ebp, esp
  00003	56		 push	 esi
  00004	8b f1		 mov	 esi, ecx
  00006	c7 06 00 00 00
	00		 mov	 DWORD PTR [esi], OFFSET ??_7?$ioWndEXEventHandlerEX@VShopBuyWndBase@@VioWndEXMouseEvent@@@@6B@
  0000c	ff 15 00 00 00
	00		 call	 DWORD PTR __imp_??1ioWndEXEventHandlerBase@@UAE@XZ
  00012	f6 45 08 01	 test	 BYTE PTR ___flags$[ebp], 1
  00016	74 07		 je	 SHORT $LN1@scalar@3
  00018	56		 push	 esi
  00019	e8 00 00 00 00	 call	 ??3@YAXPAX@Z		; operator delete
  0001e	59		 pop	 ecx
$LN1@scalar@3:
  0001f	8b c6		 mov	 eax, esi
  00021	5e		 pop	 esi
  00022	5d		 pop	 ebp
  00023	c2 04 00	 ret	 4
??_G?$ioWndEXEventHandlerEX@VShopBuyWndBase@@VioWndEXMouseEvent@@@@UAEPAXI@Z ENDP ; ioWndEXEventHandlerEX<ShopBuyWndBase,ioWndEXMouseEvent>::`scalar deleting destructor'
_TEXT	ENDS
PUBLIC	??0?$ioWndEXEventHandlerEX@VShopBuyWndBase@@VioWndEXMouseEvent@@@@QAE@PAVShopBuyWndBase@@P81@AEXPAVioWndEX@@AAVioWndEXMouseEvent@@@Z@Z ; ioWndEXEventHandlerEX<ShopBuyWndBase,ioWndEXMouseEvent>::ioWndEXEventHandlerEX<ShopBuyWndBase,ioWndEXMouseEvent>
EXTRN	__imp_??0ioWndEXEventHandlerBase@@QAE@PAVioWndEX@@@Z:PROC
; Function compile flags: /Ogsp
;	COMDAT ??0?$ioWndEXEventHandlerEX@VShopBuyWndBase@@VioWndEXMouseEvent@@@@QAE@PAVShopBuyWndBase@@P81@AEXPAVioWndEX@@AAVioWndEXMouseEvent@@@Z@Z
_TEXT	SEGMENT
_owner$ = 8						; size = 4
_cb$ = 12						; size = 4
??0?$ioWndEXEventHandlerEX@VShopBuyWndBase@@VioWndEXMouseEvent@@@@QAE@PAVShopBuyWndBase@@P81@AEXPAVioWndEX@@AAVioWndEXMouseEvent@@@Z@Z PROC ; ioWndEXEventHandlerEX<ShopBuyWndBase,ioWndEXMouseEvent>::ioWndEXEventHandlerEX<ShopBuyWndBase,ioWndEXMouseEvent>, COMDAT
; _this$ = ecx

; 31   : 	{}

  00000	55		 push	 ebp
  00001	8b ec		 mov	 ebp, esp
  00003	56		 push	 esi
  00004	57		 push	 edi
  00005	8b 7d 08	 mov	 edi, DWORD PTR _owner$[ebp]
  00008	57		 push	 edi
  00009	8b f1		 mov	 esi, ecx
  0000b	ff 15 00 00 00
	00		 call	 DWORD PTR __imp_??0ioWndEXEventHandlerBase@@QAE@PAVioWndEX@@@Z
  00011	8b 45 0c	 mov	 eax, DWORD PTR _cb$[ebp]
  00014	89 7e 08	 mov	 DWORD PTR [esi+8], edi
  00017	89 46 0c	 mov	 DWORD PTR [esi+12], eax
  0001a	5f		 pop	 edi
  0001b	c7 06 00 00 00
	00		 mov	 DWORD PTR [esi], OFFSET ??_7?$ioWndEXEventHandlerEX@VShopBuyWndBase@@VioWndEXMouseEvent@@@@6B@
  00021	8b c6		 mov	 eax, esi
  00023	5e		 pop	 esi
  00024	5d		 pop	 ebp
  00025	c2 08 00	 ret	 8
??0?$ioWndEXEventHandlerEX@VShopBuyWndBase@@VioWndEXMouseEvent@@@@QAE@PAVShopBuyWndBase@@P81@AEXPAVioWndEX@@AAVioWndEXMouseEvent@@@Z@Z ENDP ; ioWndEXEventHandlerEX<ShopBuyWndBase,ioWndEXMouseEvent>::ioWndEXEventHandlerEX<ShopBuyWndBase,ioWndEXMouseEvent>
_TEXT	ENDS
PUBLIC	??$_Copy_impl@PAHPAH@std@@YAPAHPAH00U_Scalar_ptr_iterator_tag@0@@Z ; std::_Copy_impl<int *,int *>
EXTRN	__imp__memmove:PROC
; Function compile flags: /Ogsp
; File c:\program files (x86)\microsoft visual studio 10.0\vc\include\xutility
;	COMDAT ??$_Copy_impl@PAHPAH@std@@YAPAHPAH00U_Scalar_ptr_iterator_tag@0@@Z
_TEXT	SEGMENT
__First$ = 8						; size = 4
__Last$ = 12						; size = 4
__Dest$ = 16						; size = 4
___formal$ = 20						; size = 1
??$_Copy_impl@PAHPAH@std@@YAPAHPAH00U_Scalar_ptr_iterator_tag@0@@Z PROC ; std::_Copy_impl<int *,int *>, COMDAT

; 2152 : 	{	// copy [_First, _Last) to [_Dest, ...), pointers to scalars

  00000	55		 push	 ebp
  00001	8b ec		 mov	 ebp, esp
  00003	56		 push	 esi

; 2153 : 	ptrdiff_t _Count = _Last - _First;

  00004	8b 75 0c	 mov	 esi, DWORD PTR __Last$[ebp]
  00007	2b 75 08	 sub	 esi, DWORD PTR __First$[ebp]
  0000a	57		 push	 edi

; 2154 : 	_CSTD memmove(&*_Dest, &*_First,
; 2155 : 		_Count * sizeof (*_First));

  0000b	8b 7d 10	 mov	 edi, DWORD PTR __Dest$[ebp]
  0000e	c1 fe 02	 sar	 esi, 2
  00011	c1 e6 02	 shl	 esi, 2
  00014	56		 push	 esi
  00015	ff 75 08	 push	 DWORD PTR __First$[ebp]
  00018	57		 push	 edi
  00019	ff 15 00 00 00
	00		 call	 DWORD PTR __imp__memmove
  0001f	83 c4 0c	 add	 esp, 12			; 0000000cH

; 2156 : 	return (_Dest + _Count);

  00022	8d 04 3e	 lea	 eax, DWORD PTR [esi+edi]
  00025	5f		 pop	 edi
  00026	5e		 pop	 esi

; 2157 : 	}

  00027	5d		 pop	 ebp
  00028	c3		 ret	 0
??$_Copy_impl@PAHPAH@std@@YAPAHPAH00U_Scalar_ptr_iterator_tag@0@@Z ENDP ; std::_Copy_impl<int *,int *>
_TEXT	ENDS
PUBLIC	??$_Uninit_copy@HH@std@@YAPAHPAH00AAV?$allocator@H@0@U_Scalar_ptr_iterator_tag@0@@Z ; std::_Uninit_copy<int,int>
; Function compile flags: /Ogsp
; File c:\program files (x86)\microsoft visual studio 10.0\vc\include\memory
;	COMDAT ??$_Uninit_copy@HH@std@@YAPAHPAH00AAV?$allocator@H@0@U_Scalar_ptr_iterator_tag@0@@Z
_TEXT	SEGMENT
__First$ = 8						; size = 4
__Last$ = 12						; size = 4
__Dest$ = 16						; size = 4
___formal$ = 20						; size = 4
___formal$ = 24						; size = 1
??$_Uninit_copy@HH@std@@YAPAHPAH00AAV?$allocator@H@0@U_Scalar_ptr_iterator_tag@0@@Z PROC ; std::_Uninit_copy<int,int>, COMDAT

; 399  : 	{	// copy [_First, _Last) to raw _Dest, scalar type

  00000	55		 push	 ebp
  00001	8b ec		 mov	 ebp, esp
  00003	56		 push	 esi

; 400  : 	_DEBUG_RANGE(_First, _Last);
; 401  : 	_DEBUG_POINTER(_Dest);
; 402  : 	size_t _Count = (size_t)(_Last - _First);

  00004	8b 75 0c	 mov	 esi, DWORD PTR __Last$[ebp]
  00007	2b 75 08	 sub	 esi, DWORD PTR __First$[ebp]
  0000a	c1 fe 02	 sar	 esi, 2

; 403  : 	return ((_Ty2 *)_CSTD memmove(&*_Dest, &*_First,
; 404  : 		_Count * sizeof (*_First)) + _Count);	// NB: non-overlapping move

  0000d	c1 e6 02	 shl	 esi, 2
  00010	56		 push	 esi
  00011	ff 75 08	 push	 DWORD PTR __First$[ebp]
  00014	ff 75 10	 push	 DWORD PTR __Dest$[ebp]
  00017	ff 15 00 00 00
	00		 call	 DWORD PTR __imp__memmove
  0001d	83 c4 0c	 add	 esp, 12			; 0000000cH
  00020	03 c6		 add	 eax, esi
  00022	5e		 pop	 esi

; 405  : 	}

  00023	5d		 pop	 ebp
  00024	c3		 ret	 0
??$_Uninit_copy@HH@std@@YAPAHPAH00AAV?$allocator@H@0@U_Scalar_ptr_iterator_tag@0@@Z ENDP ; std::_Uninit_copy<int,int>
_TEXT	ENDS
PUBLIC	??_9ShopBuyWndBase@@$BBDI@AE			; ShopBuyWndBase::`vcall'{312}'
; Function compile flags: /Odsp
;	COMDAT ??_9ShopBuyWndBase@@$BBDI@AE
_TEXT	SEGMENT
??_9ShopBuyWndBase@@$BBDI@AE PROC			; ShopBuyWndBase::`vcall'{312}', COMDAT
  00000	8b 01		 mov	 eax, DWORD PTR [ecx]
  00002	ff a0 38 01 00
	00		 jmp	 DWORD PTR [eax+312]
??_9ShopBuyWndBase@@$BBDI@AE ENDP			; ShopBuyWndBase::`vcall'{312}'
_TEXT	ENDS
PUBLIC	??_9ShopBuyWndBase@@$BBDM@AE			; ShopBuyWndBase::`vcall'{316}'
; Function compile flags: /Odsp
;	COMDAT ??_9ShopBuyWndBase@@$BBDM@AE
_TEXT	SEGMENT
??_9ShopBuyWndBase@@$BBDM@AE PROC			; ShopBuyWndBase::`vcall'{316}', COMDAT
  00000	8b 01		 mov	 eax, DWORD PTR [ecx]
  00002	ff a0 3c 01 00
	00		 jmp	 DWORD PTR [eax+316]
??_9ShopBuyWndBase@@$BBDM@AE ENDP			; ShopBuyWndBase::`vcall'{316}'
_TEXT	ENDS
PUBLIC	??_9ShopBuyWndBase@@$BBEA@AE			; ShopBuyWndBase::`vcall'{320}'
; Function compile flags: /Odsp
;	COMDAT ??_9ShopBuyWndBase@@$BBEA@AE
_TEXT	SEGMENT
??_9ShopBuyWndBase@@$BBEA@AE PROC			; ShopBuyWndBase::`vcall'{320}', COMDAT
  00000	8b 01		 mov	 eax, DWORD PTR [ecx]
  00002	ff a0 40 01 00
	00		 jmp	 DWORD PTR [eax+320]
??_9ShopBuyWndBase@@$BBEA@AE ENDP			; ShopBuyWndBase::`vcall'{320}'
_TEXT	ENDS
PUBLIC	?size@?$vector@HV?$allocator@H@std@@@std@@QBEIXZ ; std::vector<int,std::allocator<int> >::size
; Function compile flags: /Ogsp
; File c:\program files (x86)\microsoft visual studio 10.0\vc\include\vector
;	COMDAT ?size@?$vector@HV?$allocator@H@std@@@std@@QBEIXZ
_TEXT	SEGMENT
?size@?$vector@HV?$allocator@H@std@@@std@@QBEIXZ PROC	; std::vector<int,std::allocator<int> >::size, COMDAT
; _this$ = ecx

; 879  : 		return (this->_Mylast - this->_Myfirst);

  00000	8b 41 04	 mov	 eax, DWORD PTR [ecx+4]
  00003	2b 01		 sub	 eax, DWORD PTR [ecx]
  00005	c1 f8 02	 sar	 eax, 2

; 880  : 		}

  00008	c3		 ret	 0
?size@?$vector@HV?$allocator@H@std@@@std@@QBEIXZ ENDP	; std::vector<int,std::allocator<int> >::size
_TEXT	ENDS
PUBLIC	??0?$allocator@H@std@@QAE@XZ			; std::allocator<int>::allocator<int>
; Function compile flags: /Ogsp
; File c:\program files (x86)\microsoft visual studio 10.0\vc\include\xmemory
;	COMDAT ??0?$allocator@H@std@@QAE@XZ
_TEXT	SEGMENT
??0?$allocator@H@std@@QAE@XZ PROC			; std::allocator<int>::allocator<int>, COMDAT
; _this$ = ecx

; 161  : 	_ALLOCATOR() _THROW0()

  00000	8b c1		 mov	 eax, ecx

; 162  : 		{	// construct default allocator (do nothing)
; 163  : 		}

  00002	c3		 ret	 0
??0?$allocator@H@std@@QAE@XZ ENDP			; std::allocator<int>::allocator<int>
_TEXT	ENDS
PUBLIC	??1?$_Vector_val@HV?$allocator@H@std@@@std@@QAE@XZ ; std::_Vector_val<int,std::allocator<int> >::~_Vector_val<int,std::allocator<int> >
; Function compile flags: /Ogsp
; File c:\program files (x86)\microsoft visual studio 10.0\vc\include\vector
;	COMDAT ??1?$_Vector_val@HV?$allocator@H@std@@@std@@QAE@XZ
_TEXT	SEGMENT
??1?$_Vector_val@HV?$allocator@H@std@@@std@@QAE@XZ PROC	; std::_Vector_val<int,std::allocator<int> >::~_Vector_val<int,std::allocator<int> >, COMDAT
; _this$ = ecx

; 434  : 		}

  00000	c3		 ret	 0
??1?$_Vector_val@HV?$allocator@H@std@@@std@@QAE@XZ ENDP	; std::_Vector_val<int,std::allocator<int> >::~_Vector_val<int,std::allocator<int> >
_TEXT	ENDS
PUBLIC	??0?$_Vector_const_iterator@V?$_Vector_val@HV?$allocator@H@std@@@std@@@std@@QAE@PAHPBU_Container_base0@1@@Z ; std::_Vector_const_iterator<std::_Vector_val<int,std::allocator<int> > >::_Vector_const_iterator<std::_Vector_val<int,std::allocator<int> > >
; Function compile flags: /Ogsp
;	COMDAT ??0?$_Vector_const_iterator@V?$_Vector_val@HV?$allocator@H@std@@@std@@@std@@QAE@PAHPBU_Container_base0@1@@Z
_TEXT	SEGMENT
__Parg$ = 8						; size = 4
__Pvector$ = 12						; size = 4
??0?$_Vector_const_iterator@V?$_Vector_val@HV?$allocator@H@std@@@std@@@std@@QAE@PAHPBU_Container_base0@1@@Z PROC ; std::_Vector_const_iterator<std::_Vector_val<int,std::allocator<int> > >::_Vector_const_iterator<std::_Vector_val<int,std::allocator<int> > >, COMDAT
; _this$ = ecx

; 45   : 		{	// construct with pointer _Parg

  00000	55		 push	 ebp
  00001	8b ec		 mov	 ebp, esp
  00003	8b c1		 mov	 eax, ecx
  00005	8b 4d 08	 mov	 ecx, DWORD PTR __Parg$[ebp]
  00008	89 08		 mov	 DWORD PTR [eax], ecx

; 46   : 		this->_Adopt(_Pvector);
; 47   : 		}

  0000a	5d		 pop	 ebp
  0000b	c2 08 00	 ret	 8
??0?$_Vector_const_iterator@V?$_Vector_val@HV?$allocator@H@std@@@std@@@std@@QAE@PAHPBU_Container_base0@1@@Z ENDP ; std::_Vector_const_iterator<std::_Vector_val<int,std::allocator<int> > >::_Vector_const_iterator<std::_Vector_val<int,std::allocator<int> > >
_TEXT	ENDS
PUBLIC	??0?$_Vector_iterator@V?$_Vector_val@HV?$allocator@H@std@@@std@@@std@@QAE@PAHPBU_Container_base0@1@@Z ; std::_Vector_iterator<std::_Vector_val<int,std::allocator<int> > >::_Vector_iterator<std::_Vector_val<int,std::allocator<int> > >
; Function compile flags: /Ogsp
;	COMDAT ??0?$_Vector_iterator@V?$_Vector_val@HV?$allocator@H@std@@@std@@@std@@QAE@PAHPBU_Container_base0@1@@Z
_TEXT	SEGMENT
__Parg$ = 8						; size = 4
__Pvector$ = 12						; size = 4
??0?$_Vector_iterator@V?$_Vector_val@HV?$allocator@H@std@@@std@@@std@@QAE@PAHPBU_Container_base0@1@@Z PROC ; std::_Vector_iterator<std::_Vector_val<int,std::allocator<int> > >::_Vector_iterator<std::_Vector_val<int,std::allocator<int> > >, COMDAT
; _this$ = ecx

; 304  : 		{	// construct with pointer _Parg

  00000	55		 push	 ebp
  00001	8b ec		 mov	 ebp, esp
  00003	8b c1		 mov	 eax, ecx
  00005	8b 4d 08	 mov	 ecx, DWORD PTR __Parg$[ebp]
  00008	89 08		 mov	 DWORD PTR [eax], ecx

; 305  : 		}

  0000a	5d		 pop	 ebp
  0000b	c2 08 00	 ret	 8
??0?$_Vector_iterator@V?$_Vector_val@HV?$allocator@H@std@@@std@@@std@@QAE@PAHPBU_Container_base0@1@@Z ENDP ; std::_Vector_iterator<std::_Vector_val<int,std::allocator<int> > >::_Vector_iterator<std::_Vector_val<int,std::allocator<int> > >
_TEXT	ENDS
PUBLIC	??0?$allocator@H@std@@QAE@ABV01@@Z		; std::allocator<int>::allocator<int>
; Function compile flags: /Ogsp
; File c:\program files (x86)\microsoft visual studio 10.0\vc\include\xmemory
;	COMDAT ??0?$allocator@H@std@@QAE@ABV01@@Z
_TEXT	SEGMENT
___formal$ = 8						; size = 4
??0?$allocator@H@std@@QAE@ABV01@@Z PROC			; std::allocator<int>::allocator<int>, COMDAT
; _this$ = ecx

; 165  : 	_ALLOCATOR(const _ALLOCATOR<_Ty>&) _THROW0()

  00000	8b c1		 mov	 eax, ecx

; 166  : 		{	// construct by copying (do nothing)
; 167  : 		}

  00002	c2 04 00	 ret	 4
??0?$allocator@H@std@@QAE@ABV01@@Z ENDP			; std::allocator<int>::allocator<int>
_TEXT	ENDS
PUBLIC	?deallocate@?$allocator@H@std@@QAEXPAHI@Z	; std::allocator<int>::deallocate
; Function compile flags: /Ogsp
;	COMDAT ?deallocate@?$allocator@H@std@@QAEXPAHI@Z
_TEXT	SEGMENT
__Ptr$ = 8						; size = 4
___formal$ = 12						; size = 4
?deallocate@?$allocator@H@std@@QAEXPAHI@Z PROC		; std::allocator<int>::deallocate, COMDAT
; _this$ = ecx

; 181  : 		{	// deallocate object at _Ptr, ignore size

  00000	55		 push	 ebp
  00001	8b ec		 mov	 ebp, esp

; 182  : 		::operator delete(_Ptr);

  00003	ff 75 08	 push	 DWORD PTR __Ptr$[ebp]
  00006	e8 00 00 00 00	 call	 ??3@YAXPAX@Z		; operator delete
  0000b	59		 pop	 ecx

; 183  : 		}

  0000c	5d		 pop	 ebp
  0000d	c2 08 00	 ret	 8
?deallocate@?$allocator@H@std@@QAEXPAHI@Z ENDP		; std::allocator<int>::deallocate
_TEXT	ENDS
PUBLIC	?capacity@?$vector@HV?$allocator@H@std@@@std@@QBEIXZ ; std::vector<int,std::allocator<int> >::capacity
; Function compile flags: /Ogsp
; File c:\program files (x86)\microsoft visual studio 10.0\vc\include\vector
;	COMDAT ?capacity@?$vector@HV?$allocator@H@std@@@std@@QBEIXZ
_TEXT	SEGMENT
?capacity@?$vector@HV?$allocator@H@std@@@std@@QBEIXZ PROC ; std::vector<int,std::allocator<int> >::capacity, COMDAT
; _this$ = ecx

; 777  : 		return (this->_Myend - this->_Myfirst);

  00000	8b 41 08	 mov	 eax, DWORD PTR [ecx+8]
  00003	2b 01		 sub	 eax, DWORD PTR [ecx]
  00005	c1 f8 02	 sar	 eax, 2

; 778  : 		}

  00008	c3		 ret	 0
?capacity@?$vector@HV?$allocator@H@std@@@std@@QBEIXZ ENDP ; std::vector<int,std::allocator<int> >::capacity
_TEXT	ENDS
PUBLIC	?_Make_iter@?$vector@HV?$allocator@H@std@@@std@@QBE?AV?$_Vector_iterator@V?$_Vector_val@HV?$allocator@H@std@@@std@@@2@V?$_Vector_const_iterator@V?$_Vector_val@HV?$allocator@H@std@@@std@@@2@@Z ; std::vector<int,std::allocator<int> >::_Make_iter
; Function compile flags: /Ogsp
;	COMDAT ?_Make_iter@?$vector@HV?$allocator@H@std@@@std@@QBE?AV?$_Vector_iterator@V?$_Vector_val@HV?$allocator@H@std@@@std@@@2@V?$_Vector_const_iterator@V?$_Vector_val@HV?$allocator@H@std@@@std@@@2@@Z
_TEXT	SEGMENT
___$ReturnUdt$ = 8					; size = 4
__Where$ = 12						; size = 4
?_Make_iter@?$vector@HV?$allocator@H@std@@@std@@QBE?AV?$_Vector_iterator@V?$_Vector_val@HV?$allocator@H@std@@@std@@@2@V?$_Vector_const_iterator@V?$_Vector_val@HV?$allocator@H@std@@@std@@@2@@Z PROC ; std::vector<int,std::allocator<int> >::_Make_iter, COMDAT
; _this$ = ecx

; 801  : 		{	// make iterator from const_iterator

  00000	55		 push	 ebp
  00001	8b ec		 mov	 ebp, esp

; 802  : 		return (iterator(_Where._Ptr, this));

  00003	8b 45 08	 mov	 eax, DWORD PTR ___$ReturnUdt$[ebp]
  00006	8b 4d 0c	 mov	 ecx, DWORD PTR __Where$[ebp]
  00009	89 08		 mov	 DWORD PTR [eax], ecx

; 803  : 		}

  0000b	5d		 pop	 ebp
  0000c	c2 08 00	 ret	 8
?_Make_iter@?$vector@HV?$allocator@H@std@@@std@@QBE?AV?$_Vector_iterator@V?$_Vector_val@HV?$allocator@H@std@@@std@@@2@V?$_Vector_const_iterator@V?$_Vector_val@HV?$allocator@H@std@@@std@@@2@@Z ENDP ; std::vector<int,std::allocator<int> >::_Make_iter
_TEXT	ENDS
PUBLIC	??_C@_0BD@OLBABOEK@vector?$DMT?$DO?5too?5long?$AA@ ; `string'
PUBLIC	?_Xlen@?$vector@HV?$allocator@H@std@@@std@@IBEXXZ ; std::vector<int,std::allocator<int> >::_Xlen
EXTRN	__imp_?_Xlength_error@std@@YAXPBD@Z:PROC
;	COMDAT ??_C@_0BD@OLBABOEK@vector?$DMT?$DO?5too?5long?$AA@
CONST	SEGMENT
??_C@_0BD@OLBABOEK@vector?$DMT?$DO?5too?5long?$AA@ DB 'vector<T> too long'
	DB	00H						; `string'
; Function compile flags: /Ogsp
CONST	ENDS
;	COMDAT ?_Xlen@?$vector@HV?$allocator@H@std@@@std@@IBEXXZ
_TEXT	SEGMENT
?_Xlen@?$vector@HV?$allocator@H@std@@@std@@IBEXXZ PROC	; std::vector<int,std::allocator<int> >::_Xlen, COMDAT
; _this$ = ecx

; 1427 : 		_Xlength_error("vector<T> too long");

  00000	68 00 00 00 00	 push	 OFFSET ??_C@_0BD@OLBABOEK@vector?$DMT?$DO?5too?5long?$AA@
  00005	ff 15 00 00 00
	00		 call	 DWORD PTR __imp_?_Xlength_error@std@@YAXPBD@Z
$LN4@Xlen:
$LN3@Xlen:
  0000b	cc		 int	 3
?_Xlen@?$vector@HV?$allocator@H@std@@@std@@IBEXXZ ENDP	; std::vector<int,std::allocator<int> >::_Xlen
_TEXT	ENDS
PUBLIC	?max_size@?$allocator@H@std@@QBEIXZ		; std::allocator<int>::max_size
; Function compile flags: /Ogsp
; File c:\program files (x86)\microsoft visual studio 10.0\vc\include\xmemory
;	COMDAT ?max_size@?$allocator@H@std@@QBEIXZ
_TEXT	SEGMENT
?max_size@?$allocator@H@std@@QBEIXZ PROC		; std::allocator<int>::max_size, COMDAT
; _this$ = ecx

; 218  : 		_SIZT _Count = (_SIZT)(-1) / sizeof (_Ty);
; 219  : 		return (0 < _Count ? _Count : 1);

  00000	b8 ff ff ff 3f	 mov	 eax, 1073741823		; 3fffffffH

; 220  : 		}

  00005	c3		 ret	 0
?max_size@?$allocator@H@std@@QBEIXZ ENDP		; std::allocator<int>::max_size
_TEXT	ENDS
PUBLIC	?_Compat@?$_Vector_const_iterator@V?$_Vector_val@HV?$allocator@H@std@@@std@@@std@@QBEXABV12@@Z ; std::_Vector_const_iterator<std::_Vector_val<int,std::allocator<int> > >::_Compat
; Function compile flags: /Ogsp
; File c:\program files (x86)\microsoft visual studio 10.0\vc\include\vector
;	COMDAT ?_Compat@?$_Vector_const_iterator@V?$_Vector_val@HV?$allocator@H@std@@@std@@@std@@QBEXABV12@@Z
_TEXT	SEGMENT
___formal$ = 8						; size = 4
?_Compat@?$_Vector_const_iterator@V?$_Vector_val@HV?$allocator@H@std@@@std@@@std@@QBEXABV12@@Z PROC ; std::_Vector_const_iterator<std::_Vector_val<int,std::allocator<int> > >::_Compat, COMDAT
; _this$ = ecx

; 253  : 		}

  00000	c2 04 00	 ret	 4
?_Compat@?$_Vector_const_iterator@V?$_Vector_val@HV?$allocator@H@std@@@std@@@std@@QBEXABV12@@Z ENDP ; std::_Vector_const_iterator<std::_Vector_val<int,std::allocator<int> > >::_Compat
_TEXT	ENDS
PUBLIC	__TI2?AVbad_alloc@std@@
PUBLIC	??$_Allocate@H@std@@YAPAHIPAH@Z			; std::_Allocate<int>
PUBLIC	__CTA2?AVbad_alloc@std@@
PUBLIC	__CT??_R0?AVbad_alloc@std@@@8??0bad_alloc@std@@QAE@ABV01@@Z12
PUBLIC	??0bad_alloc@std@@QAE@ABV01@@Z			; std::bad_alloc::bad_alloc
PUBLIC	__CT??_R0?AVexception@std@@@8??0exception@std@@QAE@ABV01@@Z12
EXTRN	??2@YAPAXI@Z:PROC				; operator new
EXTRN	__CxxThrowException@8:PROC
EXTRN	??0exception@std@@QAE@ABV01@@Z:PROC		; std::exception::exception
;	COMDAT __CT??_R0?AVexception@std@@@8??0exception@std@@QAE@ABV01@@Z12
; File c:\program files (x86)\microsoft visual studio 10.0\vc\include\exception
xdata$x	SEGMENT
__CT??_R0?AVexception@std@@@8??0exception@std@@QAE@ABV01@@Z12 DD 00H
	DD	FLAT:??_R0?AVexception@std@@@8
	DD	00H
	DD	0ffffffffH
	ORG $+4
	DD	0cH
	DD	FLAT:??0exception@std@@QAE@ABV01@@Z
xdata$x	ENDS
;	COMDAT __CT??_R0?AVbad_alloc@std@@@8??0bad_alloc@std@@QAE@ABV01@@Z12
xdata$x	SEGMENT
__CT??_R0?AVbad_alloc@std@@@8??0bad_alloc@std@@QAE@ABV01@@Z12 DD 00H
	DD	FLAT:??_R0?AVbad_alloc@std@@@8
	DD	00H
	DD	0ffffffffH
	ORG $+4
	DD	0cH
	DD	FLAT:??0bad_alloc@std@@QAE@ABV01@@Z
xdata$x	ENDS
;	COMDAT __CTA2?AVbad_alloc@std@@
xdata$x	SEGMENT
__CTA2?AVbad_alloc@std@@ DD 02H
	DD	FLAT:__CT??_R0?AVbad_alloc@std@@@8??0bad_alloc@std@@QAE@ABV01@@Z12
	DD	FLAT:__CT??_R0?AVexception@std@@@8??0exception@std@@QAE@ABV01@@Z12
xdata$x	ENDS
;	COMDAT __TI2?AVbad_alloc@std@@
xdata$x	SEGMENT
__TI2?AVbad_alloc@std@@ DD 00H
	DD	FLAT:??1bad_alloc@std@@UAE@XZ
	DD	00H
	DD	FLAT:__CTA2?AVbad_alloc@std@@
; Function compile flags: /Ogsp
; File c:\program files (x86)\microsoft visual studio 10.0\vc\include\xmemory
xdata$x	ENDS
;	COMDAT ??$_Allocate@H@std@@YAPAHIPAH@Z
_TEXT	SEGMENT
$T512175 = -12						; size = 12
$T512180 = 8						; size = 4
__Count$ = 8						; size = 4
___formal$ = 12						; size = 4
??$_Allocate@H@std@@YAPAHIPAH@Z PROC			; std::_Allocate<int>, COMDAT

; 30   : 	{	// allocate storage for _Count elements of type _Ty

  00000	55		 push	 ebp
  00001	8b ec		 mov	 ebp, esp

; 31   : 	void *_Ptr = 0;
; 32   : 
; 33   : 	if (_Count <= 0)

  00003	8b 4d 08	 mov	 ecx, DWORD PTR __Count$[ebp]
  00006	83 ec 0c	 sub	 esp, 12			; 0000000cH
  00009	33 c0		 xor	 eax, eax
  0000b	85 c9		 test	 ecx, ecx

; 34   : 		_Count = 0;
; 35   : 	else if (((_SIZT)(-1) / sizeof (_Ty) < _Count)

  0000d	74 3e		 je	 SHORT $LN5@Allocate

; 36   : 		|| (_Ptr = ::operator new(_Count * sizeof (_Ty))) == 0)

  0000f	81 f9 ff ff ff
	3f		 cmp	 ecx, 1073741823		; 3fffffffH
  00015	77 10		 ja	 SHORT $LN1@Allocate
  00017	8b c1		 mov	 eax, ecx
  00019	c1 e0 02	 shl	 eax, 2
  0001c	50		 push	 eax
  0001d	e8 00 00 00 00	 call	 ??2@YAPAXI@Z		; operator new
  00022	59		 pop	 ecx
  00023	85 c0		 test	 eax, eax

; 38   : 
; 39   : 	return ((_Ty _FARQ *)_Ptr);

  00025	75 26		 jne	 SHORT $LN5@Allocate
$LN1@Allocate:

; 37   : 		_THROW_NCEE(bad_alloc, 0);

  00027	83 65 08 00	 and	 DWORD PTR $T512180[ebp], 0
  0002b	8d 45 08	 lea	 eax, DWORD PTR $T512180[ebp]
  0002e	50		 push	 eax
  0002f	8d 4d f4	 lea	 ecx, DWORD PTR $T512175[ebp]
  00032	ff 15 00 00 00
	00		 call	 DWORD PTR __imp_??0exception@std@@QAE@ABQBD@Z
  00038	68 00 00 00 00	 push	 OFFSET __TI2?AVbad_alloc@std@@
  0003d	8d 45 f4	 lea	 eax, DWORD PTR $T512175[ebp]
  00040	50		 push	 eax
  00041	c7 45 f4 00 00
	00 00		 mov	 DWORD PTR $T512175[ebp], OFFSET ??_7bad_alloc@std@@6B@
  00048	e8 00 00 00 00	 call	 __CxxThrowException@8
$LN10@Allocate:
$LN5@Allocate:

; 40   : 	}

  0004d	c9		 leave
  0004e	c3		 ret	 0
$LN9@Allocate:
??$_Allocate@H@std@@YAPAHIPAH@Z ENDP			; std::_Allocate<int>
_TEXT	ENDS
EXTRN	__imp_??0exception@std@@QAE@ABV01@@Z:PROC
; Function compile flags: /Ogsp
;	COMDAT ??0bad_alloc@std@@QAE@ABV01@@Z
_TEXT	SEGMENT
___that$ = 8						; size = 4
??0bad_alloc@std@@QAE@ABV01@@Z PROC			; std::bad_alloc::bad_alloc, COMDAT
; _this$ = ecx
  00000	55		 push	 ebp
  00001	8b ec		 mov	 ebp, esp
  00003	56		 push	 esi
  00004	ff 75 08	 push	 DWORD PTR ___that$[ebp]
  00007	8b f1		 mov	 esi, ecx
  00009	ff 15 00 00 00
	00		 call	 DWORD PTR __imp_??0exception@std@@QAE@ABV01@@Z
  0000f	c7 06 00 00 00
	00		 mov	 DWORD PTR [esi], OFFSET ??_7bad_alloc@std@@6B@
  00015	8b c6		 mov	 eax, esi
  00017	5e		 pop	 esi
  00018	5d		 pop	 ebp
  00019	c2 04 00	 ret	 4
??0bad_alloc@std@@QAE@ABV01@@Z ENDP			; std::bad_alloc::bad_alloc
_TEXT	ENDS
PUBLIC	??$_Ptr_cat@HH@std@@YA?AU_Scalar_ptr_iterator_tag@0@PAH0@Z ; std::_Ptr_cat<int,int>
; Function compile flags: /Ogsp
; File c:\program files (x86)\microsoft visual studio 10.0\vc\include\xutility
;	COMDAT ??$_Ptr_cat@HH@std@@YA?AU_Scalar_ptr_iterator_tag@0@PAH0@Z
_TEXT	SEGMENT
__Cat$ = -1						; size = 1
___formal$ = 8						; size = 4
___formal$ = 12						; size = 4
??$_Ptr_cat@HH@std@@YA?AU_Scalar_ptr_iterator_tag@0@PAH0@Z PROC ; std::_Ptr_cat<int,int>, COMDAT

; 516  : 	{	// return pointer category from pointers

  00000	55		 push	 ebp
  00001	8b ec		 mov	 ebp, esp
  00003	51		 push	 ecx

; 517  : 	typename _Ptr_cat_helper<_Elem1, _Elem2>::_Type _Cat;
; 518  : 	return (_Cat);

  00004	8a 45 ff	 mov	 al, BYTE PTR __Cat$[ebp]

; 519  : 	}

  00007	c9		 leave
  00008	c3		 ret	 0
??$_Ptr_cat@HH@std@@YA?AU_Scalar_ptr_iterator_tag@0@PAH0@Z ENDP ; std::_Ptr_cat<int,int>
_TEXT	ENDS
PUBLIC	??$_Move@PAHPAH@std@@YAPAHPAH00U_Scalar_ptr_iterator_tag@0@@Z ; std::_Move<int *,int *>
; Function compile flags: /Ogsp
;	COMDAT ??$_Move@PAHPAH@std@@YAPAHPAH00U_Scalar_ptr_iterator_tag@0@@Z
_TEXT	SEGMENT
__First$ = 8						; size = 4
__Last$ = 12						; size = 4
__Dest$ = 16						; size = 4
___formal$ = 20						; size = 1
??$_Move@PAHPAH@std@@YAPAHPAH00U_Scalar_ptr_iterator_tag@0@@Z PROC ; std::_Move<int *,int *>, COMDAT

; 2522 : 	{	// move [_First, _Last) to [_Dest, ...), pointers to scalars

  00000	55		 push	 ebp
  00001	8b ec		 mov	 ebp, esp
  00003	56		 push	 esi

; 2523 : 	ptrdiff_t _Count = _Last - _First;

  00004	8b 75 0c	 mov	 esi, DWORD PTR __Last$[ebp]
  00007	2b 75 08	 sub	 esi, DWORD PTR __First$[ebp]
  0000a	57		 push	 edi

; 2524 : 	_CSTD memmove(&*_Dest, &*_First,
; 2525 : 		_Count * sizeof (*_First));

  0000b	8b 7d 10	 mov	 edi, DWORD PTR __Dest$[ebp]
  0000e	c1 fe 02	 sar	 esi, 2
  00011	c1 e6 02	 shl	 esi, 2
  00014	56		 push	 esi
  00015	ff 75 08	 push	 DWORD PTR __First$[ebp]
  00018	57		 push	 edi
  00019	ff 15 00 00 00
	00		 call	 DWORD PTR __imp__memmove
  0001f	83 c4 0c	 add	 esp, 12			; 0000000cH

; 2526 : 	return (_Dest + _Count);

  00022	8d 04 3e	 lea	 eax, DWORD PTR [esi+edi]
  00025	5f		 pop	 edi
  00026	5e		 pop	 esi

; 2527 : 	}

  00027	5d		 pop	 ebp
  00028	c3		 ret	 0
??$_Move@PAHPAH@std@@YAPAHPAH00U_Scalar_ptr_iterator_tag@0@@Z ENDP ; std::_Move<int *,int *>
_TEXT	ENDS
PUBLIC	??$_Destroy_range@V?$allocator@H@std@@@std@@YAXPAH0AAV?$allocator@H@0@U_Scalar_ptr_iterator_tag@0@@Z ; std::_Destroy_range<std::allocator<int> >
; Function compile flags: /Ogsp
; File c:\program files (x86)\microsoft visual studio 10.0\vc\include\xmemory
;	COMDAT ??$_Destroy_range@V?$allocator@H@std@@@std@@YAXPAH0AAV?$allocator@H@0@U_Scalar_ptr_iterator_tag@0@@Z
_TEXT	SEGMENT
__First$ = 8						; size = 4
__Last$ = 12						; size = 4
__Al$ = 16						; size = 4
___formal$ = 20						; size = 1
??$_Destroy_range@V?$allocator@H@std@@@std@@YAXPAH0AAV?$allocator@H@0@U_Scalar_ptr_iterator_tag@0@@Z PROC ; std::_Destroy_range<std::allocator<int> >, COMDAT

; 105  : 	}

  00000	c3		 ret	 0
??$_Destroy_range@V?$allocator@H@std@@@std@@YAXPAH0AAV?$allocator@H@0@U_Scalar_ptr_iterator_tag@0@@Z ENDP ; std::_Destroy_range<std::allocator<int> >
_TEXT	ENDS
PUBLIC	??_7?$ioWndEXMouseEventHandlerEX@VShopBuyWndBase@@@@6B@ ; ioWndEXMouseEventHandlerEX<ShopBuyWndBase>::`vftable'
PUBLIC	??0?$ioWndEXMouseEventHandlerEX@VShopBuyWndBase@@@@QAE@PAVShopBuyWndBase@@P81@AEXPAVioWndEX@@AAVioWndEXMouseEvent@@@Z@Z ; ioWndEXMouseEventHandlerEX<ShopBuyWndBase>::ioWndEXMouseEventHandlerEX<ShopBuyWndBase>
PUBLIC	??_R4?$ioWndEXMouseEventHandlerEX@VShopBuyWndBase@@@@6B@ ; ioWndEXMouseEventHandlerEX<ShopBuyWndBase>::`RTTI Complete Object Locator'
PUBLIC	??_R0?AV?$ioWndEXMouseEventHandlerEX@VShopBuyWndBase@@@@@8 ; ioWndEXMouseEventHandlerEX<ShopBuyWndBase> `RTTI Type Descriptor'
PUBLIC	??_R3?$ioWndEXMouseEventHandlerEX@VShopBuyWndBase@@@@8 ; ioWndEXMouseEventHandlerEX<ShopBuyWndBase>::`RTTI Class Hierarchy Descriptor'
PUBLIC	??_R2?$ioWndEXMouseEventHandlerEX@VShopBuyWndBase@@@@8 ; ioWndEXMouseEventHandlerEX<ShopBuyWndBase>::`RTTI Base Class Array'
PUBLIC	??_R1A@?0A@EA@?$ioWndEXMouseEventHandlerEX@VShopBuyWndBase@@@@8 ; ioWndEXMouseEventHandlerEX<ShopBuyWndBase>::`RTTI Base Class Descriptor at (0,-1,0,64)'
EXTRN	??_E?$ioWndEXMouseEventHandlerEX@VShopBuyWndBase@@@@UAEPAXI@Z:PROC ; ioWndEXMouseEventHandlerEX<ShopBuyWndBase>::`vector deleting destructor'
;	COMDAT ??_R1A@?0A@EA@?$ioWndEXMouseEventHandlerEX@VShopBuyWndBase@@@@8
; File d:\lost saga for developer\youtube\tutorial\source\src\lsclient\gui\iowndexeventhandlerex.h
rdata$r	SEGMENT
??_R1A@?0A@EA@?$ioWndEXMouseEventHandlerEX@VShopBuyWndBase@@@@8 DD FLAT:??_R0?AV?$ioWndEXMouseEventHandlerEX@VShopBuyWndBase@@@@@8 ; ioWndEXMouseEventHandlerEX<ShopBuyWndBase>::`RTTI Base Class Descriptor at (0,-1,0,64)'
	DD	02H
	DD	00H
	DD	0ffffffffH
	DD	00H
	DD	040H
	DD	FLAT:??_R3?$ioWndEXMouseEventHandlerEX@VShopBuyWndBase@@@@8
rdata$r	ENDS
;	COMDAT ??_R2?$ioWndEXMouseEventHandlerEX@VShopBuyWndBase@@@@8
rdata$r	SEGMENT
??_R2?$ioWndEXMouseEventHandlerEX@VShopBuyWndBase@@@@8 DD FLAT:??_R1A@?0A@EA@?$ioWndEXMouseEventHandlerEX@VShopBuyWndBase@@@@8 ; ioWndEXMouseEventHandlerEX<ShopBuyWndBase>::`RTTI Base Class Array'
	DD	FLAT:??_R1A@?0A@EA@?$ioWndEXEventHandlerEX@VShopBuyWndBase@@VioWndEXMouseEvent@@@@8
	DD	FLAT:??_R1A@?0A@EA@ioWndEXEventHandlerBase@@8
rdata$r	ENDS
;	COMDAT ??_R3?$ioWndEXMouseEventHandlerEX@VShopBuyWndBase@@@@8
rdata$r	SEGMENT
??_R3?$ioWndEXMouseEventHandlerEX@VShopBuyWndBase@@@@8 DD 00H ; ioWndEXMouseEventHandlerEX<ShopBuyWndBase>::`RTTI Class Hierarchy Descriptor'
	DD	00H
	DD	03H
	DD	FLAT:??_R2?$ioWndEXMouseEventHandlerEX@VShopBuyWndBase@@@@8
rdata$r	ENDS
;	COMDAT ??_R0?AV?$ioWndEXMouseEventHandlerEX@VShopBuyWndBase@@@@@8
_DATA	SEGMENT
??_R0?AV?$ioWndEXMouseEventHandlerEX@VShopBuyWndBase@@@@@8 DD FLAT:??_7type_info@@6B@ ; ioWndEXMouseEventHandlerEX<ShopBuyWndBase> `RTTI Type Descriptor'
	DD	00H
	DB	'.?AV?$ioWndEXMouseEventHandlerEX@VShopBuyWndBase@@@@', 00H
_DATA	ENDS
;	COMDAT ??_R4?$ioWndEXMouseEventHandlerEX@VShopBuyWndBase@@@@6B@
rdata$r	SEGMENT
??_R4?$ioWndEXMouseEventHandlerEX@VShopBuyWndBase@@@@6B@ DD 00H ; ioWndEXMouseEventHandlerEX<ShopBuyWndBase>::`RTTI Complete Object Locator'
	DD	00H
	DD	00H
	DD	FLAT:??_R0?AV?$ioWndEXMouseEventHandlerEX@VShopBuyWndBase@@@@@8
	DD	FLAT:??_R3?$ioWndEXMouseEventHandlerEX@VShopBuyWndBase@@@@8
rdata$r	ENDS
;	COMDAT ??_7?$ioWndEXMouseEventHandlerEX@VShopBuyWndBase@@@@6B@
CONST	SEGMENT
??_7?$ioWndEXMouseEventHandlerEX@VShopBuyWndBase@@@@6B@ DD FLAT:??_R4?$ioWndEXMouseEventHandlerEX@VShopBuyWndBase@@@@6B@ ; ioWndEXMouseEventHandlerEX<ShopBuyWndBase>::`vftable'
	DD	FLAT:??_E?$ioWndEXMouseEventHandlerEX@VShopBuyWndBase@@@@UAEPAXI@Z
	DD	FLAT:?Call@?$ioWndEXEventHandlerEX@VShopBuyWndBase@@VioWndEXMouseEvent@@@@UAEXPAVioWndEX@@AAVioWndEXEvent@@@Z
; Function compile flags: /Ogsp
CONST	ENDS
;	COMDAT ??0?$ioWndEXMouseEventHandlerEX@VShopBuyWndBase@@@@QAE@PAVShopBuyWndBase@@P81@AEXPAVioWndEX@@AAVioWndEXMouseEvent@@@Z@Z
_TEXT	SEGMENT
_owner$ = 8						; size = 4
_cb$ = 12						; size = 4
??0?$ioWndEXMouseEventHandlerEX@VShopBuyWndBase@@@@QAE@PAVShopBuyWndBase@@P81@AEXPAVioWndEX@@AAVioWndEXMouseEvent@@@Z@Z PROC ; ioWndEXMouseEventHandlerEX<ShopBuyWndBase>::ioWndEXMouseEventHandlerEX<ShopBuyWndBase>, COMDAT
; _this$ = ecx

; 60   : 	{}

  00000	55		 push	 ebp
  00001	8b ec		 mov	 ebp, esp
  00003	56		 push	 esi
  00004	ff 75 0c	 push	 DWORD PTR _cb$[ebp]
  00007	8b f1		 mov	 esi, ecx
  00009	ff 75 08	 push	 DWORD PTR _owner$[ebp]
  0000c	e8 00 00 00 00	 call	 ??0?$ioWndEXEventHandlerEX@VShopBuyWndBase@@VioWndEXMouseEvent@@@@QAE@PAVShopBuyWndBase@@P81@AEXPAVioWndEX@@AAVioWndEXMouseEvent@@@Z@Z ; ioWndEXEventHandlerEX<ShopBuyWndBase,ioWndEXMouseEvent>::ioWndEXEventHandlerEX<ShopBuyWndBase,ioWndEXMouseEvent>
  00011	c7 06 00 00 00
	00		 mov	 DWORD PTR [esi], OFFSET ??_7?$ioWndEXMouseEventHandlerEX@VShopBuyWndBase@@@@6B@
  00017	8b c6		 mov	 eax, esi
  00019	5e		 pop	 esi
  0001a	5d		 pop	 ebp
  0001b	c2 08 00	 ret	 8
??0?$ioWndEXMouseEventHandlerEX@VShopBuyWndBase@@@@QAE@PAVShopBuyWndBase@@P81@AEXPAVioWndEX@@AAVioWndEXMouseEvent@@@Z@Z ENDP ; ioWndEXMouseEventHandlerEX<ShopBuyWndBase>::ioWndEXMouseEventHandlerEX<ShopBuyWndBase>
_TEXT	ENDS
PUBLIC	??1?$ioWndEXMouseEventHandlerEX@VShopBuyWndBase@@@@UAE@XZ ; ioWndEXMouseEventHandlerEX<ShopBuyWndBase>::~ioWndEXMouseEventHandlerEX<ShopBuyWndBase>
; Function compile flags: /Ogsp
;	COMDAT ??1?$ioWndEXMouseEventHandlerEX@VShopBuyWndBase@@@@UAE@XZ
_TEXT	SEGMENT
??1?$ioWndEXMouseEventHandlerEX@VShopBuyWndBase@@@@UAE@XZ PROC ; ioWndEXMouseEventHandlerEX<ShopBuyWndBase>::~ioWndEXMouseEventHandlerEX<ShopBuyWndBase>, COMDAT
; _this$ = ecx

; 62   : 	virtual ~ioWndEXMouseEventHandlerEX() {}

  00000	c7 01 00 00 00
	00		 mov	 DWORD PTR [ecx], OFFSET ??_7?$ioWndEXEventHandlerEX@VShopBuyWndBase@@VioWndEXMouseEvent@@@@6B@
  00006	ff 25 00 00 00
	00		 jmp	 DWORD PTR __imp_??1ioWndEXEventHandlerBase@@UAE@XZ
??1?$ioWndEXMouseEventHandlerEX@VShopBuyWndBase@@@@UAE@XZ ENDP ; ioWndEXMouseEventHandlerEX<ShopBuyWndBase>::~ioWndEXMouseEventHandlerEX<ShopBuyWndBase>
; Function compile flags: /Ogsp
_TEXT	ENDS
;	COMDAT ??_G?$ioWndEXMouseEventHandlerEX@VShopBuyWndBase@@@@UAEPAXI@Z
_TEXT	SEGMENT
___flags$ = 8						; size = 4
??_G?$ioWndEXMouseEventHandlerEX@VShopBuyWndBase@@@@UAEPAXI@Z PROC ; ioWndEXMouseEventHandlerEX<ShopBuyWndBase>::`scalar deleting destructor', COMDAT
; _this$ = ecx
  00000	55		 push	 ebp
  00001	8b ec		 mov	 ebp, esp
  00003	56		 push	 esi
  00004	8b f1		 mov	 esi, ecx
  00006	c7 06 00 00 00
	00		 mov	 DWORD PTR [esi], OFFSET ??_7?$ioWndEXEventHandlerEX@VShopBuyWndBase@@VioWndEXMouseEvent@@@@6B@
  0000c	ff 15 00 00 00
	00		 call	 DWORD PTR __imp_??1ioWndEXEventHandlerBase@@UAE@XZ
  00012	f6 45 08 01	 test	 BYTE PTR ___flags$[ebp], 1
  00016	74 07		 je	 SHORT $LN1@scalar@4
  00018	56		 push	 esi
  00019	e8 00 00 00 00	 call	 ??3@YAXPAX@Z		; operator delete
  0001e	59		 pop	 ecx
$LN1@scalar@4:
  0001f	8b c6		 mov	 eax, esi
  00021	5e		 pop	 esi
  00022	5d		 pop	 ebp
  00023	c2 04 00	 ret	 4
??_G?$ioWndEXMouseEventHandlerEX@VShopBuyWndBase@@@@UAEPAXI@Z ENDP ; ioWndEXMouseEventHandlerEX<ShopBuyWndBase>::`scalar deleting destructor'
_TEXT	ENDS
PUBLIC	??$_Copy_impl@PAHPAH@std@@YAPAHPAH00@Z		; std::_Copy_impl<int *,int *>
; Function compile flags: /Ogsp
; File c:\program files (x86)\microsoft visual studio 10.0\vc\include\xutility
;	COMDAT ??$_Copy_impl@PAHPAH@std@@YAPAHPAH00@Z
_TEXT	SEGMENT
__Cat$512222 = -4					; size = 1
__First$ = 8						; size = 4
__Last$ = 12						; size = 4
__Dest$ = 16						; size = 4
??$_Copy_impl@PAHPAH@std@@YAPAHPAH00@Z PROC		; std::_Copy_impl<int *,int *>, COMDAT

; 2163 : 	{	// copy [_First, _Last) to [_Dest, ...)

  00000	55		 push	 ebp
  00001	8b ec		 mov	 ebp, esp
  00003	51		 push	 ecx

; 2164 : 	return (_Copy_impl(_First, _Last,
; 2165 : 		_Dest, _Ptr_cat(_First, _Dest)));

  00004	ff 75 fc	 push	 DWORD PTR __Cat$512222[ebp]
  00007	ff 75 10	 push	 DWORD PTR __Dest$[ebp]
  0000a	ff 75 0c	 push	 DWORD PTR __Last$[ebp]
  0000d	ff 75 08	 push	 DWORD PTR __First$[ebp]
  00010	e8 00 00 00 00	 call	 ??$_Copy_impl@PAHPAH@std@@YAPAHPAH00U_Scalar_ptr_iterator_tag@0@@Z ; std::_Copy_impl<int *,int *>
  00015	83 c4 10	 add	 esp, 16			; 00000010H

; 2166 : 	}

  00018	c9		 leave
  00019	c3		 ret	 0
??$_Copy_impl@PAHPAH@std@@YAPAHPAH00@Z ENDP		; std::_Copy_impl<int *,int *>
_TEXT	ENDS
PUBLIC	??$_Uninitialized_copy@PAHPAHV?$allocator@H@std@@@std@@YAPAHPAH00AAV?$allocator@H@0@@Z ; std::_Uninitialized_copy<int *,int *,std::allocator<int> >
; Function compile flags: /Ogsp
; File c:\program files (x86)\microsoft visual studio 10.0\vc\include\memory
;	COMDAT ??$_Uninitialized_copy@PAHPAHV?$allocator@H@std@@@std@@YAPAHPAH00AAV?$allocator@H@0@@Z
_TEXT	SEGMENT
__Cat$512229 = -4					; size = 1
__First$ = 8						; size = 4
__Last$ = 12						; size = 4
__Dest$ = 16						; size = 4
__Al$ = 20						; size = 4
??$_Uninitialized_copy@PAHPAHV?$allocator@H@std@@@std@@YAPAHPAH00AAV?$allocator@H@0@@Z PROC ; std::_Uninitialized_copy<int *,int *,std::allocator<int> >, COMDAT

; 412  : 	{	// copy [_First, _Last) to raw _Dest, using _Al

  00000	55		 push	 ebp
  00001	8b ec		 mov	 ebp, esp
  00003	51		 push	 ecx

; 413  : 	return (_Uninit_copy(_First, _Last, _Dest, _Al,
; 414  : 		_Ptr_cat(_First, _Dest)));

  00004	ff 75 fc	 push	 DWORD PTR __Cat$512229[ebp]
  00007	ff 75 14	 push	 DWORD PTR __Al$[ebp]
  0000a	ff 75 10	 push	 DWORD PTR __Dest$[ebp]
  0000d	ff 75 0c	 push	 DWORD PTR __Last$[ebp]
  00010	ff 75 08	 push	 DWORD PTR __First$[ebp]
  00013	e8 00 00 00 00	 call	 ??$_Uninit_copy@HH@std@@YAPAHPAH00AAV?$allocator@H@0@U_Scalar_ptr_iterator_tag@0@@Z ; std::_Uninit_copy<int,int>
  00018	83 c4 14	 add	 esp, 20			; 00000014H

; 415  : 	}

  0001b	c9		 leave
  0001c	c3		 ret	 0
??$_Uninitialized_copy@PAHPAHV?$allocator@H@std@@@std@@YAPAHPAH00AAV?$allocator@H@0@@Z ENDP ; std::_Uninitialized_copy<int *,int *,std::allocator<int> >
_TEXT	ENDS
PUBLIC	?begin@?$vector@HV?$allocator@H@std@@@std@@QAE?AV?$_Vector_iterator@V?$_Vector_val@HV?$allocator@H@std@@@std@@@2@XZ ; std::vector<int,std::allocator<int> >::begin
; Function compile flags: /Ogsp
; File c:\program files (x86)\microsoft visual studio 10.0\vc\include\vector
;	COMDAT ?begin@?$vector@HV?$allocator@H@std@@@std@@QAE?AV?$_Vector_iterator@V?$_Vector_val@HV?$allocator@H@std@@@std@@@2@XZ
_TEXT	SEGMENT
___$ReturnUdt$ = 8					; size = 4
?begin@?$vector@HV?$allocator@H@std@@@std@@QAE?AV?$_Vector_iterator@V?$_Vector_val@HV?$allocator@H@std@@@std@@@2@XZ PROC ; std::vector<int,std::allocator<int> >::begin, COMDAT
; _this$ = ecx

; 781  : 		{	// return iterator for beginning of mutable sequence

  00000	55		 push	 ebp
  00001	8b ec		 mov	 ebp, esp

; 782  : 		return (iterator(this->_Myfirst, this));

  00003	8b 09		 mov	 ecx, DWORD PTR [ecx]
  00005	8b 45 08	 mov	 eax, DWORD PTR ___$ReturnUdt$[ebp]
  00008	89 08		 mov	 DWORD PTR [eax], ecx

; 783  : 		}

  0000a	5d		 pop	 ebp
  0000b	c2 04 00	 ret	 4
?begin@?$vector@HV?$allocator@H@std@@@std@@QAE?AV?$_Vector_iterator@V?$_Vector_val@HV?$allocator@H@std@@@std@@@2@XZ ENDP ; std::vector<int,std::allocator<int> >::begin
_TEXT	ENDS
PUBLIC	?end@?$vector@HV?$allocator@H@std@@@std@@QAE?AV?$_Vector_iterator@V?$_Vector_val@HV?$allocator@H@std@@@std@@@2@XZ ; std::vector<int,std::allocator<int> >::end
; Function compile flags: /Ogsp
;	COMDAT ?end@?$vector@HV?$allocator@H@std@@@std@@QAE?AV?$_Vector_iterator@V?$_Vector_val@HV?$allocator@H@std@@@std@@@2@XZ
_TEXT	SEGMENT
___$ReturnUdt$ = 8					; size = 4
?end@?$vector@HV?$allocator@H@std@@@std@@QAE?AV?$_Vector_iterator@V?$_Vector_val@HV?$allocator@H@std@@@std@@@2@XZ PROC ; std::vector<int,std::allocator<int> >::end, COMDAT
; _this$ = ecx

; 791  : 		{	// return iterator for end of mutable sequence

  00000	55		 push	 ebp
  00001	8b ec		 mov	 ebp, esp

; 792  : 		return (iterator(this->_Mylast, this));

  00003	8b 49 04	 mov	 ecx, DWORD PTR [ecx+4]
  00006	8b 45 08	 mov	 eax, DWORD PTR ___$ReturnUdt$[ebp]
  00009	89 08		 mov	 DWORD PTR [eax], ecx

; 793  : 		}

  0000b	5d		 pop	 ebp
  0000c	c2 04 00	 ret	 4
?end@?$vector@HV?$allocator@H@std@@@std@@QAE?AV?$_Vector_iterator@V?$_Vector_val@HV?$allocator@H@std@@@std@@@2@XZ ENDP ; std::vector<int,std::allocator<int> >::end
_TEXT	ENDS
PUBLIC	??0?$_Vector_val@HV?$allocator@H@std@@@std@@QAE@V?$allocator@H@1@@Z ; std::_Vector_val<int,std::allocator<int> >::_Vector_val<int,std::allocator<int> >
; Function compile flags: /Ogsp
;	COMDAT ??0?$_Vector_val@HV?$allocator@H@std@@@std@@QAE@V?$allocator@H@1@@Z
_TEXT	SEGMENT
__Al$ = 8						; size = 1
??0?$_Vector_val@HV?$allocator@H@std@@@std@@QAE@V?$allocator@H@1@@Z PROC ; std::_Vector_val<int,std::allocator<int> >::_Vector_val<int,std::allocator<int> >, COMDAT
; _this$ = ecx

; 426  : 		{	// construct allocator from _Al

  00000	8b c1		 mov	 eax, ecx

; 427  : 		_Myfirst = 0;

  00002	33 c9		 xor	 ecx, ecx
  00004	89 08		 mov	 DWORD PTR [eax], ecx

; 428  : 		_Mylast = 0;

  00006	89 48 04	 mov	 DWORD PTR [eax+4], ecx

; 429  : 		_Myend = 0;

  00009	89 48 08	 mov	 DWORD PTR [eax+8], ecx

; 430  : 		}

  0000c	c2 04 00	 ret	 4
??0?$_Vector_val@HV?$allocator@H@std@@@std@@QAE@V?$allocator@H@1@@Z ENDP ; std::_Vector_val<int,std::allocator<int> >::_Vector_val<int,std::allocator<int> >
_TEXT	ENDS
PUBLIC	?max_size@?$vector@HV?$allocator@H@std@@@std@@QBEIXZ ; std::vector<int,std::allocator<int> >::max_size
; Function compile flags: /Ogsp
;	COMDAT ?max_size@?$vector@HV?$allocator@H@std@@@std@@QBEIXZ
_TEXT	SEGMENT
?max_size@?$vector@HV?$allocator@H@std@@@std@@QBEIXZ PROC ; std::vector<int,std::allocator<int> >::max_size, COMDAT
; _this$ = ecx

; 884  : 		return (this->_Alval.max_size());

  00000	b8 ff ff ff 3f	 mov	 eax, 1073741823		; 3fffffffH

; 885  : 		}

  00005	c3		 ret	 0
?max_size@?$vector@HV?$allocator@H@std@@@std@@QBEIXZ ENDP ; std::vector<int,std::allocator<int> >::max_size
_TEXT	ENDS
PUBLIC	?allocate@?$allocator@H@std@@QAEPAHI@Z		; std::allocator<int>::allocate
; Function compile flags: /Ogsp
; File c:\program files (x86)\microsoft visual studio 10.0\vc\include\xmemory
;	COMDAT ?allocate@?$allocator@H@std@@QAEPAHI@Z
_TEXT	SEGMENT
__Count$ = 8						; size = 4
?allocate@?$allocator@H@std@@QAEPAHI@Z PROC		; std::allocator<int>::allocate, COMDAT
; _this$ = ecx

; 186  : 		{	// allocate array of _Count elements

  00000	55		 push	 ebp
  00001	8b ec		 mov	 ebp, esp

; 187  : 		return (_Allocate(_Count, (pointer)0));

  00003	6a 00		 push	 0
  00005	ff 75 08	 push	 DWORD PTR __Count$[ebp]
  00008	e8 00 00 00 00	 call	 ??$_Allocate@H@std@@YAPAHIPAH@Z ; std::_Allocate<int>
  0000d	59		 pop	 ecx
  0000e	59		 pop	 ecx

; 188  : 		}

  0000f	5d		 pop	 ebp
  00010	c2 04 00	 ret	 4
?allocate@?$allocator@H@std@@QAEPAHI@Z ENDP		; std::allocator<int>::allocate
_TEXT	ENDS
PUBLIC	??8?$_Vector_const_iterator@V?$_Vector_val@HV?$allocator@H@std@@@std@@@std@@QBE_NABV01@@Z ; std::_Vector_const_iterator<std::_Vector_val<int,std::allocator<int> > >::operator==
; Function compile flags: /Ogsp
; File c:\program files (x86)\microsoft visual studio 10.0\vc\include\vector
;	COMDAT ??8?$_Vector_const_iterator@V?$_Vector_val@HV?$allocator@H@std@@@std@@@std@@QBE_NABV01@@Z
_TEXT	SEGMENT
__Right$ = 8						; size = 4
??8?$_Vector_const_iterator@V?$_Vector_val@HV?$allocator@H@std@@@std@@@std@@QBE_NABV01@@Z PROC ; std::_Vector_const_iterator<std::_Vector_val<int,std::allocator<int> > >::operator==, COMDAT
; _this$ = ecx

; 201  : 		{	// test for iterator equality

  00000	55		 push	 ebp
  00001	8b ec		 mov	 ebp, esp

; 202  : 		_Compat(_Right);
; 203  : 		return (this->_Ptr == _Right._Ptr);

  00003	8b 01		 mov	 eax, DWORD PTR [ecx]
  00005	8b 4d 08	 mov	 ecx, DWORD PTR __Right$[ebp]
  00008	2b 01		 sub	 eax, DWORD PTR [ecx]
  0000a	f7 d8		 neg	 eax
  0000c	1b c0		 sbb	 eax, eax
  0000e	40		 inc	 eax

; 204  : 		}

  0000f	5d		 pop	 ebp
  00010	c2 04 00	 ret	 4
??8?$_Vector_const_iterator@V?$_Vector_val@HV?$allocator@H@std@@@std@@@std@@QBE_NABV01@@Z ENDP ; std::_Vector_const_iterator<std::_Vector_val<int,std::allocator<int> > >::operator==
_TEXT	ENDS
PUBLIC	??$_Move@PAHPAH@std@@YAPAHPAH00@Z		; std::_Move<int *,int *>
; Function compile flags: /Ogsp
; File c:\program files (x86)\microsoft visual studio 10.0\vc\include\xutility
;	COMDAT ??$_Move@PAHPAH@std@@YAPAHPAH00@Z
_TEXT	SEGMENT
__Cat$512295 = -4					; size = 1
__First$ = 8						; size = 4
__Last$ = 12						; size = 4
__Dest$ = 16						; size = 4
??$_Move@PAHPAH@std@@YAPAHPAH00@Z PROC			; std::_Move<int *,int *>, COMDAT

; 2533 : 	{	// move [_First, _Last) to [_Dest, ...), unchecked

  00000	55		 push	 ebp
  00001	8b ec		 mov	 ebp, esp
  00003	51		 push	 ecx

; 2534 : 	return (_Move(_First, _Last,
; 2535 : 		_Dest, _Ptr_cat(_First, _Dest)));

  00004	ff 75 fc	 push	 DWORD PTR __Cat$512295[ebp]
  00007	ff 75 10	 push	 DWORD PTR __Dest$[ebp]
  0000a	ff 75 0c	 push	 DWORD PTR __Last$[ebp]
  0000d	ff 75 08	 push	 DWORD PTR __First$[ebp]
  00010	e8 00 00 00 00	 call	 ??$_Move@PAHPAH@std@@YAPAHPAH00U_Scalar_ptr_iterator_tag@0@@Z ; std::_Move<int *,int *>
  00015	83 c4 10	 add	 esp, 16			; 00000010H

; 2536 : 	}

  00018	c9		 leave
  00019	c3		 ret	 0
??$_Move@PAHPAH@std@@YAPAHPAH00@Z ENDP			; std::_Move<int *,int *>
_TEXT	ENDS
PUBLIC	??$_Destroy_range@V?$allocator@H@std@@@std@@YAXPAH0AAV?$allocator@H@0@@Z ; std::_Destroy_range<std::allocator<int> >
; Function compile flags: /Ogsp
; File c:\program files (x86)\microsoft visual studio 10.0\vc\include\xmemory
;	COMDAT ??$_Destroy_range@V?$allocator@H@std@@@std@@YAXPAH0AAV?$allocator@H@0@@Z
_TEXT	SEGMENT
__First$ = 8						; size = 4
__Last$ = 12						; size = 4
__Al$ = 16						; size = 4
??$_Destroy_range@V?$allocator@H@std@@@std@@YAXPAH0AAV?$allocator@H@0@@Z PROC ; std::_Destroy_range<std::allocator<int> >, COMDAT

; 88   : 	_Destroy_range(_First, _Last, _Al, _Ptr_cat(_First, _Last));
; 89   : 	}

  00000	c3		 ret	 0
??$_Destroy_range@V?$allocator@H@std@@@std@@YAXPAH0AAV?$allocator@H@0@@Z ENDP ; std::_Destroy_range<std::allocator<int> >
_TEXT	ENDS
EXTRN	__imp_?Connect@ioWndEX@@QAEXW4WNDEX_EVENT_TYPE@@PAVioWndEXEventHandlerBase@@@Z:PROC
EXTRN	__imp_?iwm_create@ioWndEX@@UAEXXZ:PROC
EXTRN	___CxxFrameHandler3:PROC
EXTRN	@__security_check_cookie@4:PROC
EXTRN	__EH_epilog3:PROC
EXTRN	__EH_prolog3:PROC
;	COMDAT xdata$x
; File d:\lost saga for developer\youtube\tutorial\source\src\lsclient\gui\iowndexeventhandlerex.h
xdata$x	SEGMENT
__unwindtable$?iwm_create@ShopBuyWndBase@@UAEXXZ DD 0ffffffffH
	DD	FLAT:__unwindfunclet$?iwm_create@ShopBuyWndBase@@UAEXXZ$0
	DD	0ffffffffH
	DD	FLAT:__unwindfunclet$?iwm_create@ShopBuyWndBase@@UAEXXZ$1
	DD	0ffffffffH
	DD	FLAT:__unwindfunclet$?iwm_create@ShopBuyWndBase@@UAEXXZ$2
__ehfuncinfo$?iwm_create@ShopBuyWndBase@@UAEXXZ DD 019930522H
	DD	03H
	DD	FLAT:__unwindtable$?iwm_create@ShopBuyWndBase@@UAEXXZ
	DD	2 DUP(00H)
	DD	2 DUP(00H)
	DD	00H
	DD	01H
; Function compile flags: /Ogsp
; File d:\lost saga for developer\youtube\tutorial\source\src\lsclient\gui\shopbuywndbase.h
xdata$x	ENDS
;	COMDAT ?iwm_create@ShopBuyWndBase@@UAEXXZ
_TEXT	SEGMENT
_child$507162 = -20					; size = 4
$T512315 = -20						; size = 4
_child$507099 = -20					; size = 4
$T512319 = -16						; size = 4
_child$507152 = -16					; size = 4
$T512311 = -16						; size = 4
__$EHRec$ = -12						; size = 12
?iwm_create@ShopBuyWndBase@@UAEXXZ PROC			; ShopBuyWndBase::iwm_create, COMDAT
; _this$ = ecx

; 66   : 	{

  00000	6a 08		 push	 8
  00002	b8 00 00 00 00	 mov	 eax, __ehhandler$?iwm_create@ShopBuyWndBase@@UAEXXZ
  00007	e8 00 00 00 00	 call	 __EH_prolog3
  0000c	8b f1		 mov	 esi, ecx

; 67   : 		ioWndEX::iwm_create();

  0000e	ff 15 00 00 00
	00		 call	 DWORD PTR __imp_?iwm_create@ioWndEX@@UAEXXZ

; 68   : 
; 69   : 		m_adddesclabel = (ioLabelWndEX*)(FindChildWndEX(44));

  00014	8b 3d 00 00 00
	00		 mov	 edi, DWORD PTR __imp_?FindChildWndEX@ioWnd@@QAEPAV1@K_N@Z
  0001a	33 db		 xor	 ebx, ebx
  0001c	53		 push	 ebx
  0001d	6a 2c		 push	 44			; 0000002cH
  0001f	8b ce		 mov	 ecx, esi
  00021	ff d7		 call	 edi

; 70   : 		m_btmwndex = (ioFrameWndEX*)(FindChildWndEX(45));

  00023	53		 push	 ebx
  00024	6a 2d		 push	 45			; 0000002dH
  00026	8b ce		 mov	 ecx, esi
  00028	89 86 8c 01 00
	00		 mov	 DWORD PTR [esi+396], eax
  0002e	ff d7		 call	 edi

; 71   : 		m_descrich = (ioRichLabel*)(FindChildWndEX(9));

  00030	53		 push	 ebx
  00031	6a 09		 push	 9
  00033	8b ce		 mov	 ecx, esi
  00035	89 86 84 01 00
	00		 mov	 DWORD PTR [esi+388], eax
  0003b	ff d7		 call	 edi

; 72   : 		m_iconimg = (ioImageWndEX*)(FindChildWndEX(7));

  0003d	53		 push	 ebx
  0003e	6a 07		 push	 7
  00040	8b ce		 mov	 ecx, esi
  00042	89 86 90 01 00
	00		 mov	 DWORD PTR [esi+400], eax
  00048	ff d7		 call	 edi

; 73   : 		m_midwndex = (ioWndEX*)(FindChildWndEX(31));

  0004a	53		 push	 ebx
  0004b	6a 1f		 push	 31			; 0000001fH
  0004d	8b ce		 mov	 ecx, esi
  0004f	89 86 88 01 00
	00		 mov	 DWORD PTR [esi+392], eax
  00055	ff d7		 call	 edi

; 74   : 		m_namerich = (ioRichLabel*)(FindChildWndEX(8));

  00057	53		 push	 ebx
  00058	6a 08		 push	 8
  0005a	8b ce		 mov	 ecx, esi
  0005c	89 86 98 01 00
	00		 mov	 DWORD PTR [esi+408], eax
  00062	ff d7		 call	 edi

; 75   : 
; 76   : 
; 77   : 		{
; 78   : 				ioWndEX* child = (ioWndEX*)( FindChildWndEX(46) );

  00064	53		 push	 ebx
  00065	6a 2e		 push	 46			; 0000002eH
  00067	8b ce		 mov	 ecx, esi
  00069	89 86 94 01 00
	00		 mov	 DWORD PTR [esi+404], eax
  0006f	ff d7		 call	 edi
  00071	89 45 ec	 mov	 DWORD PTR _child$507099[ebp], eax

; 79   : 				if ( child ) {

  00074	3b c3		 cmp	 eax, ebx
  00076	74 42		 je	 SHORT $LN3@iwm_create

; 80   : 					child->Connect( static_cast<WNDEX_EVENT_TYPE>(7), new ioWndEXMouseEventHandlerEX< ShopBuyWndBase >( this, &ShopBuyWndBase::OnClickBuy ) );

  00078	6a 10		 push	 16			; 00000010H
  0007a	e8 00 00 00 00	 call	 ??2@YAPAXI@Z		; operator new
  0007f	59		 pop	 ecx
  00080	8b c8		 mov	 ecx, eax
  00082	89 4d f0	 mov	 DWORD PTR $T512311[ebp], ecx
  00085	89 5d fc	 mov	 DWORD PTR __$EHRec$[ebp+8], ebx
  00088	3b cb		 cmp	 ecx, ebx
  0008a	74 1c		 je	 SHORT $LN6@iwm_create
  0008c	56		 push	 esi
  0008d	ff 15 00 00 00
	00		 call	 DWORD PTR __imp_??0ioWndEXEventHandlerBase@@QAE@PAVioWndEX@@@Z
  00093	8b 45 f0	 mov	 eax, DWORD PTR $T512311[ebp]
  00096	89 70 08	 mov	 DWORD PTR [eax+8], esi
  00099	c7 40 0c 00 00
	00 00		 mov	 DWORD PTR [eax+12], OFFSET ??_9ShopBuyWndBase@@$BBDI@AE ; ShopBuyWndBase::`vcall'{312}'
  000a0	c7 00 00 00 00
	00		 mov	 DWORD PTR [eax], OFFSET ??_7?$ioWndEXMouseEventHandlerEX@VShopBuyWndBase@@@@6B@
  000a6	eb 02		 jmp	 SHORT $LN7@iwm_create
$LN6@iwm_create:
  000a8	33 c0		 xor	 eax, eax
$LN7@iwm_create:
  000aa	8b 4d ec	 mov	 ecx, DWORD PTR _child$507099[ebp]
  000ad	83 4d fc ff	 or	 DWORD PTR __$EHRec$[ebp+8], -1
  000b1	50		 push	 eax
  000b2	6a 07		 push	 7
  000b4	ff 15 00 00 00
	00		 call	 DWORD PTR __imp_?Connect@ioWndEX@@QAEXW4WNDEX_EVENT_TYPE@@PAVioWndEXEventHandlerBase@@@Z
$LN3@iwm_create:

; 81   : 				}
; 82   : 		}
; 83   : 		{
; 84   : 				ioWndEX* child = (ioWndEX*)( FindChildWndEX(47) );

  000ba	53		 push	 ebx
  000bb	6a 2f		 push	 47			; 0000002fH
  000bd	8b ce		 mov	 ecx, esi
  000bf	ff d7		 call	 edi
  000c1	89 45 f0	 mov	 DWORD PTR _child$507152[ebp], eax

; 85   : 				if ( child ) {

  000c4	3b c3		 cmp	 eax, ebx
  000c6	74 46		 je	 SHORT $LN2@iwm_create

; 86   : 					child->Connect( static_cast<WNDEX_EVENT_TYPE>(7), new ioWndEXMouseEventHandlerEX< ShopBuyWndBase >( this, &ShopBuyWndBase::OnClickPresent ) );

  000c8	6a 10		 push	 16			; 00000010H
  000ca	e8 00 00 00 00	 call	 ??2@YAPAXI@Z		; operator new
  000cf	59		 pop	 ecx
  000d0	8b c8		 mov	 ecx, eax
  000d2	89 4d ec	 mov	 DWORD PTR $T512315[ebp], ecx
  000d5	c7 45 fc 01 00
	00 00		 mov	 DWORD PTR __$EHRec$[ebp+8], 1
  000dc	3b cb		 cmp	 ecx, ebx
  000de	74 1c		 je	 SHORT $LN8@iwm_create
  000e0	56		 push	 esi
  000e1	ff 15 00 00 00
	00		 call	 DWORD PTR __imp_??0ioWndEXEventHandlerBase@@QAE@PAVioWndEX@@@Z
  000e7	8b 45 ec	 mov	 eax, DWORD PTR $T512315[ebp]
  000ea	89 70 08	 mov	 DWORD PTR [eax+8], esi
  000ed	c7 40 0c 00 00
	00 00		 mov	 DWORD PTR [eax+12], OFFSET ??_9ShopBuyWndBase@@$BBEA@AE ; ShopBuyWndBase::`vcall'{320}'
  000f4	c7 00 00 00 00
	00		 mov	 DWORD PTR [eax], OFFSET ??_7?$ioWndEXMouseEventHandlerEX@VShopBuyWndBase@@@@6B@
  000fa	eb 02		 jmp	 SHORT $LN9@iwm_create
$LN8@iwm_create:
  000fc	33 c0		 xor	 eax, eax
$LN9@iwm_create:
  000fe	8b 4d f0	 mov	 ecx, DWORD PTR _child$507152[ebp]
  00101	83 4d fc ff	 or	 DWORD PTR __$EHRec$[ebp+8], -1
  00105	50		 push	 eax
  00106	6a 07		 push	 7
  00108	ff 15 00 00 00
	00		 call	 DWORD PTR __imp_?Connect@ioWndEX@@QAEXW4WNDEX_EVENT_TYPE@@PAVioWndEXEventHandlerBase@@@Z
$LN2@iwm_create:

; 87   : 				}
; 88   : 		}
; 89   : 		{
; 90   : 				ioWndEX* child = (ioWndEX*)( FindChildWndEX(5) );

  0010e	53		 push	 ebx
  0010f	6a 05		 push	 5
  00111	8b ce		 mov	 ecx, esi
  00113	ff d7		 call	 edi
  00115	89 45 ec	 mov	 DWORD PTR _child$507162[ebp], eax

; 91   : 				if ( child ) {

  00118	3b c3		 cmp	 eax, ebx
  0011a	74 45		 je	 SHORT $LN1@iwm_create

; 92   : 					child->Connect( static_cast<WNDEX_EVENT_TYPE>(7), new ioWndEXMouseEventHandlerEX< ShopBuyWndBase >( this, &ShopBuyWndBase::OnClickClose ) );

  0011c	6a 10		 push	 16			; 00000010H
  0011e	e8 00 00 00 00	 call	 ??2@YAPAXI@Z		; operator new
  00123	8b f8		 mov	 edi, eax
  00125	59		 pop	 ecx
  00126	89 7d f0	 mov	 DWORD PTR $T512319[ebp], edi
  00129	c7 45 fc 02 00
	00 00		 mov	 DWORD PTR __$EHRec$[ebp+8], 2
  00130	3b fb		 cmp	 edi, ebx
  00132	74 1b		 je	 SHORT $LN10@iwm_create
  00134	56		 push	 esi
  00135	8b cf		 mov	 ecx, edi
  00137	ff 15 00 00 00
	00		 call	 DWORD PTR __imp_??0ioWndEXEventHandlerBase@@QAE@PAVioWndEX@@@Z
  0013d	89 77 08	 mov	 DWORD PTR [edi+8], esi
  00140	c7 47 0c 00 00
	00 00		 mov	 DWORD PTR [edi+12], OFFSET ??_9ShopBuyWndBase@@$BBDM@AE ; ShopBuyWndBase::`vcall'{316}'
  00147	c7 07 00 00 00
	00		 mov	 DWORD PTR [edi], OFFSET ??_7?$ioWndEXMouseEventHandlerEX@VShopBuyWndBase@@@@6B@
  0014d	eb 02		 jmp	 SHORT $LN11@iwm_create
$LN10@iwm_create:
  0014f	33 ff		 xor	 edi, edi
$LN11@iwm_create:
  00151	8b 4d ec	 mov	 ecx, DWORD PTR _child$507162[ebp]
  00154	83 4d fc ff	 or	 DWORD PTR __$EHRec$[ebp+8], -1
  00158	57		 push	 edi
  00159	6a 07		 push	 7
  0015b	ff 15 00 00 00
	00		 call	 DWORD PTR __imp_?Connect@ioWndEX@@QAEXW4WNDEX_EVENT_TYPE@@PAVioWndEXEventHandlerBase@@@Z
$LN1@iwm_create:

; 93   : 				}
; 94   : 		}
; 95   : 
; 96   : 	}

  00161	e8 00 00 00 00	 call	 __EH_epilog3
  00166	c3		 ret	 0
_TEXT	ENDS
;	COMDAT text$x
text$x	SEGMENT
__unwindfunclet$?iwm_create@ShopBuyWndBase@@UAEXXZ$0:
  00000	ff 75 f0	 push	 DWORD PTR $T512311[ebp]
  00003	e8 00 00 00 00	 call	 ??3@YAXPAX@Z		; operator delete
  00008	59		 pop	 ecx
  00009	c3		 ret	 0
__unwindfunclet$?iwm_create@ShopBuyWndBase@@UAEXXZ$1:
  0000a	ff 75 ec	 push	 DWORD PTR $T512315[ebp]
  0000d	e8 00 00 00 00	 call	 ??3@YAXPAX@Z		; operator delete
  00012	59		 pop	 ecx
  00013	c3		 ret	 0
__unwindfunclet$?iwm_create@ShopBuyWndBase@@UAEXXZ$2:
  00014	ff 75 f0	 push	 DWORD PTR $T512319[ebp]
  00017	e8 00 00 00 00	 call	 ??3@YAXPAX@Z		; operator delete
  0001c	59		 pop	 ecx
  0001d	c3		 ret	 0
__ehhandler$?iwm_create@ShopBuyWndBase@@UAEXXZ:
  0001e	8b 54 24 08	 mov	 edx, DWORD PTR [esp+8]
  00022	8d 42 0c	 lea	 eax, DWORD PTR [edx+12]
  00025	8b 4a e8	 mov	 ecx, DWORD PTR [edx-24]
  00028	33 c8		 xor	 ecx, eax
  0002a	e8 00 00 00 00	 call	 @__security_check_cookie@4
  0002f	b8 00 00 00 00	 mov	 eax, OFFSET __ehfuncinfo$?iwm_create@ShopBuyWndBase@@UAEXXZ
  00034	e9 00 00 00 00	 jmp	 ___CxxFrameHandler3
text$x	ENDS
?iwm_create@ShopBuyWndBase@@UAEXXZ ENDP			; ShopBuyWndBase::iwm_create
PUBLIC	?_Buy@?$vector@HV?$allocator@H@std@@@std@@IAE_NI@Z ; std::vector<int,std::allocator<int> >::_Buy
; Function compile flags: /Ogsp
; File c:\program files (x86)\microsoft visual studio 10.0\vc\include\vector
;	COMDAT ?_Buy@?$vector@HV?$allocator@H@std@@@std@@IAE_NI@Z
_TEXT	SEGMENT
__Capacity$ = 8						; size = 4
?_Buy@?$vector@HV?$allocator@H@std@@@std@@IAE_NI@Z PROC	; std::vector<int,std::allocator<int> >::_Buy, COMDAT
; _this$ = ecx

; 1250 : 		{	// allocate array with _Capacity elements

  00000	55		 push	 ebp
  00001	8b ec		 mov	 ebp, esp
  00003	56		 push	 esi

; 1251 : 		this->_Myfirst = 0;

  00004	33 c0		 xor	 eax, eax
  00006	57		 push	 edi

; 1252 : 		this->_Mylast = 0;
; 1253 : 		this->_Myend = 0;
; 1254 : 
; 1255 : 		if (_Capacity == 0)

  00007	8b 7d 08	 mov	 edi, DWORD PTR __Capacity$[ebp]
  0000a	8b f1		 mov	 esi, ecx
  0000c	89 06		 mov	 DWORD PTR [esi], eax
  0000e	89 46 04	 mov	 DWORD PTR [esi+4], eax
  00011	89 46 08	 mov	 DWORD PTR [esi+8], eax
  00014	3b f8		 cmp	 edi, eax
  00016	75 04		 jne	 SHORT $LN4@Buy

; 1256 : 			return (false);

  00018	32 c0		 xor	 al, al
  0001a	eb 29		 jmp	 SHORT $LN5@Buy
$LN4@Buy:

; 1257 : 		else if (max_size() < _Capacity)

  0001c	81 ff ff ff ff
	3f		 cmp	 edi, 1073741823		; 3fffffffH
  00022	76 0b		 jbe	 SHORT $LN2@Buy

; 1258 : 			_Xlen();	// result too long

  00024	68 00 00 00 00	 push	 OFFSET ??_C@_0BD@OLBABOEK@vector?$DMT?$DO?5too?5long?$AA@
  00029	ff 15 00 00 00
	00		 call	 DWORD PTR __imp_?_Xlength_error@std@@YAXPBD@Z
$LN19@Buy:
$LN2@Buy:

; 1259 : 		else
; 1260 : 			{	// nonempty array, allocate storage
; 1261 : 			this->_Myfirst = this->_Alval.allocate(_Capacity);

  0002f	50		 push	 eax
  00030	57		 push	 edi
  00031	e8 00 00 00 00	 call	 ??$_Allocate@H@std@@YAPAHIPAH@Z ; std::_Allocate<int>
  00036	89 06		 mov	 DWORD PTR [esi], eax

; 1262 : 			this->_Mylast = this->_Myfirst;

  00038	89 46 04	 mov	 DWORD PTR [esi+4], eax

; 1263 : 			this->_Myend = this->_Myfirst + _Capacity;

  0003b	8d 04 b8	 lea	 eax, DWORD PTR [eax+edi*4]
  0003e	59		 pop	 ecx
  0003f	89 46 08	 mov	 DWORD PTR [esi+8], eax
  00042	59		 pop	 ecx

; 1264 : 			}
; 1265 : 		return (true);

  00043	b0 01		 mov	 al, 1
$LN5@Buy:
  00045	5f		 pop	 edi
  00046	5e		 pop	 esi

; 1266 : 		}

  00047	5d		 pop	 ebp
  00048	c2 04 00	 ret	 4
$LN18@Buy:
?_Buy@?$vector@HV?$allocator@H@std@@@std@@IAE_NI@Z ENDP	; std::vector<int,std::allocator<int> >::_Buy
_TEXT	ENDS
PUBLIC	??$_Ucopy@PAH@?$vector@HV?$allocator@H@std@@@std@@IAEPAHPAH00@Z ; std::vector<int,std::allocator<int> >::_Ucopy<int *>
; Function compile flags: /Ogsp
;	COMDAT ??$_Ucopy@PAH@?$vector@HV?$allocator@H@std@@@std@@IAEPAHPAH00@Z
_TEXT	SEGMENT
__First$ = 8						; size = 4
__Last$ = 12						; size = 4
__Cat$512406 = 16					; size = 1
__Ptr$ = 16						; size = 4
??$_Ucopy@PAH@?$vector@HV?$allocator@H@std@@@std@@IAEPAHPAH00@Z PROC ; std::vector<int,std::allocator<int> >::_Ucopy<int *>, COMDAT
; _this$ = ecx

; 1315 : 		pointer _Ucopy(_Iter _First, _Iter _Last, pointer _Ptr)

  00000	55		 push	 ebp
  00001	8b ec		 mov	 ebp, esp

; 1316 : 		{	// copy initializing [_First, _Last), using allocator
; 1317 : 		return (_Uninitialized_copy(_First, _Last,
; 1318 : 			_Ptr, this->_Alval));

  00003	ff 75 10	 push	 DWORD PTR __Cat$512406[ebp]
  00006	83 c1 0c	 add	 ecx, 12			; 0000000cH
  00009	51		 push	 ecx
  0000a	ff 75 10	 push	 DWORD PTR __Ptr$[ebp]
  0000d	ff 75 0c	 push	 DWORD PTR __Last$[ebp]
  00010	ff 75 08	 push	 DWORD PTR __First$[ebp]
  00013	e8 00 00 00 00	 call	 ??$_Uninit_copy@HH@std@@YAPAHPAH00AAV?$allocator@H@0@U_Scalar_ptr_iterator_tag@0@@Z ; std::_Uninit_copy<int,int>
  00018	83 c4 14	 add	 esp, 20			; 00000014H

; 1319 : 		}

  0001b	5d		 pop	 ebp
  0001c	c2 0c 00	 ret	 12			; 0000000cH
??$_Ucopy@PAH@?$vector@HV?$allocator@H@std@@@std@@IAEPAHPAH00@Z ENDP ; std::vector<int,std::allocator<int> >::_Ucopy<int *>
_TEXT	ENDS
PUBLIC	??0?$vector@HV?$allocator@H@std@@@std@@QAE@XZ	; std::vector<int,std::allocator<int> >::vector<int,std::allocator<int> >
; Function compile flags: /Ogsp
;	COMDAT ??0?$vector@HV?$allocator@H@std@@@std@@QAE@XZ
_TEXT	SEGMENT
??0?$vector@HV?$allocator@H@std@@@std@@QAE@XZ PROC	; std::vector<int,std::allocator<int> >::vector<int,std::allocator<int> >, COMDAT
; _this$ = ecx

; 507  : 		{	// construct empty vector

  00000	8b c1		 mov	 eax, ecx
  00002	33 c9		 xor	 ecx, ecx
  00004	89 08		 mov	 DWORD PTR [eax], ecx
  00006	89 48 04	 mov	 DWORD PTR [eax+4], ecx
  00009	89 48 08	 mov	 DWORD PTR [eax+8], ecx

; 508  : 		}

  0000c	c3		 ret	 0
??0?$vector@HV?$allocator@H@std@@@std@@QAE@XZ ENDP	; std::vector<int,std::allocator<int> >::vector<int,std::allocator<int> >
_TEXT	ENDS
PUBLIC	?_Destroy@?$vector@HV?$allocator@H@std@@@std@@IAEXPAH0@Z ; std::vector<int,std::allocator<int> >::_Destroy
; Function compile flags: /Ogsp
;	COMDAT ?_Destroy@?$vector@HV?$allocator@H@std@@@std@@IAEXPAH0@Z
_TEXT	SEGMENT
__First$ = 8						; size = 4
__Last$ = 12						; size = 4
?_Destroy@?$vector@HV?$allocator@H@std@@@std@@IAEXPAH0@Z PROC ; std::vector<int,std::allocator<int> >::_Destroy, COMDAT
; _this$ = ecx

; 1270 : 		_Destroy_range(_First, _Last, this->_Alval);
; 1271 : 		}

  00000	c2 08 00	 ret	 8
?_Destroy@?$vector@HV?$allocator@H@std@@@std@@IAEXPAH0@Z ENDP ; std::vector<int,std::allocator<int> >::_Destroy
_TEXT	ENDS
PUBLIC	??9?$_Vector_const_iterator@V?$_Vector_val@HV?$allocator@H@std@@@std@@@std@@QBE_NABV01@@Z ; std::_Vector_const_iterator<std::_Vector_val<int,std::allocator<int> > >::operator!=
; Function compile flags: /Ogsp
;	COMDAT ??9?$_Vector_const_iterator@V?$_Vector_val@HV?$allocator@H@std@@@std@@@std@@QBE_NABV01@@Z
_TEXT	SEGMENT
__Right$ = 8						; size = 4
??9?$_Vector_const_iterator@V?$_Vector_val@HV?$allocator@H@std@@@std@@@std@@QBE_NABV01@@Z PROC ; std::_Vector_const_iterator<std::_Vector_val<int,std::allocator<int> > >::operator!=, COMDAT
; _this$ = ecx

; 207  : 		{	// test for iterator inequality

  00000	55		 push	 ebp
  00001	8b ec		 mov	 ebp, esp

; 208  : 		return (!(*this == _Right));

  00003	8b 01		 mov	 eax, DWORD PTR [ecx]
  00005	8b 55 08	 mov	 edx, DWORD PTR __Right$[ebp]
  00008	33 c9		 xor	 ecx, ecx
  0000a	3b 02		 cmp	 eax, DWORD PTR [edx]
  0000c	0f 95 c0	 setne	 al

; 209  : 		}

  0000f	5d		 pop	 ebp
  00010	c2 04 00	 ret	 4
??9?$_Vector_const_iterator@V?$_Vector_val@HV?$allocator@H@std@@@std@@@std@@QBE_NABV01@@Z ENDP ; std::_Vector_const_iterator<std::_Vector_val<int,std::allocator<int> > >::operator!=
_TEXT	ENDS
PUBLIC	?erase@?$vector@HV?$allocator@H@std@@@std@@QAE?AV?$_Vector_iterator@V?$_Vector_val@HV?$allocator@H@std@@@std@@@2@V?$_Vector_const_iterator@V?$_Vector_val@HV?$allocator@H@std@@@std@@@2@0@Z ; std::vector<int,std::allocator<int> >::erase
; Function compile flags: /Ogsp
;	COMDAT ?erase@?$vector@HV?$allocator@H@std@@@std@@QAE?AV?$_Vector_iterator@V?$_Vector_val@HV?$allocator@H@std@@@std@@@2@V?$_Vector_const_iterator@V?$_Vector_val@HV?$allocator@H@std@@@std@@@2@0@Z
_TEXT	SEGMENT
___$ReturnUdt$ = 8					; size = 4
__First_arg$ = 12					; size = 4
__Cat$512530 = 16					; size = 1
__Last_arg$ = 16					; size = 4
?erase@?$vector@HV?$allocator@H@std@@@std@@QAE?AV?$_Vector_iterator@V?$_Vector_val@HV?$allocator@H@std@@@std@@@2@V?$_Vector_const_iterator@V?$_Vector_val@HV?$allocator@H@std@@@std@@@2@0@Z PROC ; std::vector<int,std::allocator<int> >::erase, COMDAT
; _this$ = ecx

; 1190 : 		{	// erase [_First, _Last)

  00000	55		 push	 ebp
  00001	8b ec		 mov	 ebp, esp

; 1191 : 		iterator _First = _Make_iter(_First_arg);

  00003	8b 45 0c	 mov	 eax, DWORD PTR __First_arg$[ebp]
  00006	56		 push	 esi
  00007	57		 push	 edi
  00008	8b 7d 08	 mov	 edi, DWORD PTR ___$ReturnUdt$[ebp]
  0000b	8b f1		 mov	 esi, ecx
  0000d	89 07		 mov	 DWORD PTR [edi], eax

; 1192 : 		iterator _Last = _Make_iter(_Last_arg);
; 1193 : 
; 1194 : 		if (_First != _Last)

  0000f	3b 45 10	 cmp	 eax, DWORD PTR __Last_arg$[ebp]
  00012	74 16		 je	 SHORT $LN1@erase

; 1195 : 			{	// worth doing, copy down over hole
; 1196 :  #if _ITERATOR_DEBUG_LEVEL == 2
; 1197 : 			if (_Last < _First || _VICONT(_First) != this
; 1198 : 				|| _VIPTR(_First) < this->_Myfirst
; 1199 : 				|| this->_Mylast < _VIPTR(_Last))
; 1200 : 				_DEBUG_ERROR("vector erase iterator outside range");
; 1201 : 			pointer _Ptr = _Move(_VIPTR(_Last), this->_Mylast,
; 1202 : 				_VIPTR(_First));
; 1203 : 			_Orphan_range(_VIPTR(_First), this->_Mylast);
; 1204 : 
; 1205 :  #else /* _ITERATOR_DEBUG_LEVEL == 2 */
; 1206 : 			pointer _Ptr = _Move(_VIPTR(_Last), this->_Mylast,
; 1207 : 				_VIPTR(_First));

  00014	ff 75 10	 push	 DWORD PTR __Cat$512530[ebp]
  00017	8b 4e 04	 mov	 ecx, DWORD PTR [esi+4]
  0001a	50		 push	 eax
  0001b	51		 push	 ecx
  0001c	ff 75 10	 push	 DWORD PTR __Last_arg$[ebp]
  0001f	e8 00 00 00 00	 call	 ??$_Move@PAHPAH@std@@YAPAHPAH00U_Scalar_ptr_iterator_tag@0@@Z ; std::_Move<int *,int *>
  00024	83 c4 10	 add	 esp, 16			; 00000010H

; 1208 :  #endif /* _ITERATOR_DEBUG_LEVEL == 2 */
; 1209 : 
; 1210 : 			_Destroy(_Ptr, this->_Mylast);
; 1211 : 			this->_Mylast = _Ptr;

  00027	89 46 04	 mov	 DWORD PTR [esi+4], eax
$LN1@erase:

; 1212 : 			}
; 1213 : 		return (_First);

  0002a	8b c7		 mov	 eax, edi
  0002c	5f		 pop	 edi
  0002d	5e		 pop	 esi

; 1214 : 		}

  0002e	5d		 pop	 ebp
  0002f	c2 0c 00	 ret	 12			; 0000000cH
?erase@?$vector@HV?$allocator@H@std@@@std@@QAE?AV?$_Vector_iterator@V?$_Vector_val@HV?$allocator@H@std@@@std@@@2@V?$_Vector_const_iterator@V?$_Vector_val@HV?$allocator@H@std@@@std@@@2@0@Z ENDP ; std::vector<int,std::allocator<int> >::erase
_TEXT	ENDS
PUBLIC	?_Tidy@?$vector@HV?$allocator@H@std@@@std@@IAEXXZ ; std::vector<int,std::allocator<int> >::_Tidy
EXTRN	__imp_?_Orphan_all@_Container_base0@std@@QAEXXZ:PROC
; Function compile flags: /Ogsp
;	COMDAT ?_Tidy@?$vector@HV?$allocator@H@std@@@std@@IAEXXZ
_TEXT	SEGMENT
?_Tidy@?$vector@HV?$allocator@H@std@@@std@@IAEXXZ PROC	; std::vector<int,std::allocator<int> >::_Tidy, COMDAT
; _this$ = ecx

; 1301 : 		{	// free all storage

  00000	56		 push	 esi
  00001	8b f1		 mov	 esi, ecx

; 1302 : 		if (this->_Myfirst != 0)

  00003	83 3e 00	 cmp	 DWORD PTR [esi], 0
  00006	74 0e		 je	 SHORT $LN12@Tidy

; 1303 : 			{	// something to free, destroy and deallocate it
; 1304 : 			this->_Orphan_all();

  00008	ff 15 00 00 00
	00		 call	 DWORD PTR __imp_?_Orphan_all@_Container_base0@std@@QAEXXZ

; 1305 : 			_Destroy(this->_Myfirst, this->_Mylast);
; 1306 : 			this->_Alval.deallocate(this->_Myfirst,
; 1307 : 				this->_Myend - this->_Myfirst);

  0000e	ff 36		 push	 DWORD PTR [esi]
  00010	e8 00 00 00 00	 call	 ??3@YAXPAX@Z		; operator delete
  00015	59		 pop	 ecx
$LN12@Tidy:

; 1308 : 			}
; 1309 : 		this->_Myfirst = 0;

  00016	83 26 00	 and	 DWORD PTR [esi], 0

; 1310 : 		this->_Mylast = 0;

  00019	83 66 04 00	 and	 DWORD PTR [esi+4], 0

; 1311 : 		this->_Myend = 0;

  0001d	83 66 08 00	 and	 DWORD PTR [esi+8], 0
  00021	5e		 pop	 esi

; 1312 : 		}

  00022	c3		 ret	 0
?_Tidy@?$vector@HV?$allocator@H@std@@@std@@IAEXXZ ENDP	; std::vector<int,std::allocator<int> >::_Tidy
_TEXT	ENDS
PUBLIC	??1?$vector@HV?$allocator@H@std@@@std@@QAE@XZ	; std::vector<int,std::allocator<int> >::~vector<int,std::allocator<int> >
; Function compile flags: /Ogsp
;	COMDAT ??1?$vector@HV?$allocator@H@std@@@std@@QAE@XZ
_TEXT	SEGMENT
??1?$vector@HV?$allocator@H@std@@@std@@QAE@XZ PROC	; std::vector<int,std::allocator<int> >::~vector<int,std::allocator<int> >, COMDAT
; _this$ = ecx

; 705  : 		_Tidy();

  00000	e9 00 00 00 00	 jmp	 ?_Tidy@?$vector@HV?$allocator@H@std@@@std@@IAEXXZ ; std::vector<int,std::allocator<int> >::_Tidy
??1?$vector@HV?$allocator@H@std@@@std@@QAE@XZ ENDP	; std::vector<int,std::allocator<int> >::~vector<int,std::allocator<int> >
_TEXT	ENDS
PUBLIC	?clear@?$vector@HV?$allocator@H@std@@@std@@QAEXXZ ; std::vector<int,std::allocator<int> >::clear
; Function compile flags: /Ogsp
;	COMDAT ?clear@?$vector@HV?$allocator@H@std@@@std@@QAEXXZ
_TEXT	SEGMENT
$T512612 = -4						; size = 4
?clear@?$vector@HV?$allocator@H@std@@@std@@QAEXXZ PROC	; std::vector<int,std::allocator<int> >::clear, COMDAT
; _this$ = ecx

; 1217 : 		{	// erase all

  00000	55		 push	 ebp
  00001	8b ec		 mov	 ebp, esp
  00003	51		 push	 ecx

; 1218 : 		erase(begin(), end());

  00004	8b 41 04	 mov	 eax, DWORD PTR [ecx+4]
  00007	8b 11		 mov	 edx, DWORD PTR [ecx]
  00009	50		 push	 eax
  0000a	52		 push	 edx
  0000b	8d 45 fc	 lea	 eax, DWORD PTR $T512612[ebp]
  0000e	50		 push	 eax
  0000f	e8 00 00 00 00	 call	 ?erase@?$vector@HV?$allocator@H@std@@@std@@QAE?AV?$_Vector_iterator@V?$_Vector_val@HV?$allocator@H@std@@@std@@@2@V?$_Vector_const_iterator@V?$_Vector_val@HV?$allocator@H@std@@@std@@@2@0@Z ; std::vector<int,std::allocator<int> >::erase

; 1219 : 		}

  00014	c9		 leave
  00015	c3		 ret	 0
?clear@?$vector@HV?$allocator@H@std@@@std@@QAEXXZ ENDP	; std::vector<int,std::allocator<int> >::clear
_TEXT	ENDS
PUBLIC	??1tagNewShopItemInfo@@QAE@XZ			; tagNewShopItemInfo::~tagNewShopItemInfo
EXTRN	__imp_??1ioHashString@@QAE@XZ:PROC
;	COMDAT xdata$x
xdata$x	SEGMENT
__ehfuncinfo$??1tagNewShopItemInfo@@QAE@XZ DD 019930522H
	DD	09H
	DD	FLAT:__unwindtable$??1tagNewShopItemInfo@@QAE@XZ
	DD	2 DUP(00H)
	DD	2 DUP(00H)
	DD	00H
	DD	01H
__unwindtable$??1tagNewShopItemInfo@@QAE@XZ DD 0ffffffffH
	DD	FLAT:__unwindfunclet$??1tagNewShopItemInfo@@QAE@XZ$0
	DD	00H
	DD	FLAT:__unwindfunclet$??1tagNewShopItemInfo@@QAE@XZ$1
	DD	01H
	DD	FLAT:__unwindfunclet$??1tagNewShopItemInfo@@QAE@XZ$2
	DD	02H
	DD	FLAT:__unwindfunclet$??1tagNewShopItemInfo@@QAE@XZ$3
	DD	03H
	DD	FLAT:__unwindfunclet$??1tagNewShopItemInfo@@QAE@XZ$4
	DD	04H
	DD	FLAT:__unwindfunclet$??1tagNewShopItemInfo@@QAE@XZ$5
	DD	05H
	DD	FLAT:__unwindfunclet$??1tagNewShopItemInfo@@QAE@XZ$6
	DD	06H
	DD	FLAT:__unwindfunclet$??1tagNewShopItemInfo@@QAE@XZ$7
	DD	07H
	DD	FLAT:__unwindfunclet$??1tagNewShopItemInfo@@QAE@XZ$8
; Function compile flags: /Ogsp
xdata$x	ENDS
;	COMDAT ??1tagNewShopItemInfo@@QAE@XZ
_TEXT	SEGMENT
_this$ = -16						; size = 4
__$EHRec$ = -12						; size = 12
??1tagNewShopItemInfo@@QAE@XZ PROC			; tagNewShopItemInfo::~tagNewShopItemInfo, COMDAT
; _this$ = ecx
  00000	6a 04		 push	 4
  00002	b8 00 00 00 00	 mov	 eax, __ehhandler$??1tagNewShopItemInfo@@QAE@XZ
  00007	e8 00 00 00 00	 call	 __EH_prolog3
  0000c	8b f1		 mov	 esi, ecx
  0000e	89 75 f0	 mov	 DWORD PTR _this$[ebp], esi
  00011	8b 3d 00 00 00
	00		 mov	 edi, DWORD PTR __imp_??1ioHashString@@QAE@XZ
  00017	8d 8e bc 00 00
	00		 lea	 ecx, DWORD PTR [esi+188]
  0001d	c7 45 fc 08 00
	00 00		 mov	 DWORD PTR __$EHRec$[ebp+8], 8
  00024	ff d7		 call	 edi
  00026	8d 8e ac 00 00
	00		 lea	 ecx, DWORD PTR [esi+172]
  0002c	c6 45 fc 07	 mov	 BYTE PTR __$EHRec$[ebp+8], 7
  00030	ff d7		 call	 edi
  00032	8d 8e 98 00 00
	00		 lea	 ecx, DWORD PTR [esi+152]
  00038	c6 45 fc 06	 mov	 BYTE PTR __$EHRec$[ebp+8], 6
  0003c	e8 00 00 00 00	 call	 ?_Tidy@?$vector@HV?$allocator@H@std@@@std@@IAEXXZ ; std::vector<int,std::allocator<int> >::_Tidy
  00041	8d 8e 84 00 00
	00		 lea	 ecx, DWORD PTR [esi+132]
  00047	c6 45 fc 05	 mov	 BYTE PTR __$EHRec$[ebp+8], 5
  0004b	e8 00 00 00 00	 call	 ?_Tidy@?$vector@HV?$allocator@H@std@@@std@@IAEXXZ ; std::vector<int,std::allocator<int> >::_Tidy
  00050	8d 4e 68	 lea	 ecx, DWORD PTR [esi+104]
  00053	c6 45 fc 04	 mov	 BYTE PTR __$EHRec$[ebp+8], 4
  00057	e8 00 00 00 00	 call	 ?_Tidy@?$vector@HV?$allocator@H@std@@@std@@IAEXXZ ; std::vector<int,std::allocator<int> >::_Tidy
  0005c	8d 4e 58	 lea	 ecx, DWORD PTR [esi+88]
  0005f	c6 45 fc 03	 mov	 BYTE PTR __$EHRec$[ebp+8], 3
  00063	e8 00 00 00 00	 call	 ?_Tidy@?$vector@HV?$allocator@H@std@@@std@@IAEXXZ ; std::vector<int,std::allocator<int> >::_Tidy
  00068	8d 4e 40	 lea	 ecx, DWORD PTR [esi+64]
  0006b	c6 45 fc 02	 mov	 BYTE PTR __$EHRec$[ebp+8], 2
  0006f	e8 00 00 00 00	 call	 ?_Tidy@?$vector@HV?$allocator@H@std@@@std@@IAEXXZ ; std::vector<int,std::allocator<int> >::_Tidy
  00074	8d 4e 30	 lea	 ecx, DWORD PTR [esi+48]
  00077	c6 45 fc 01	 mov	 BYTE PTR __$EHRec$[ebp+8], 1
  0007b	e8 00 00 00 00	 call	 ?_Tidy@?$vector@HV?$allocator@H@std@@@std@@IAEXXZ ; std::vector<int,std::allocator<int> >::_Tidy
  00080	8d 4e 20	 lea	 ecx, DWORD PTR [esi+32]
  00083	c6 45 fc 00	 mov	 BYTE PTR __$EHRec$[ebp+8], 0
  00087	e8 00 00 00 00	 call	 ?_Tidy@?$vector@HV?$allocator@H@std@@@std@@IAEXXZ ; std::vector<int,std::allocator<int> >::_Tidy
  0008c	83 4d fc ff	 or	 DWORD PTR __$EHRec$[ebp+8], -1
  00090	8d 4e 10	 lea	 ecx, DWORD PTR [esi+16]
  00093	e8 00 00 00 00	 call	 ?_Tidy@?$vector@HV?$allocator@H@std@@@std@@IAEXXZ ; std::vector<int,std::allocator<int> >::_Tidy
  00098	e8 00 00 00 00	 call	 __EH_epilog3
  0009d	c3		 ret	 0
_TEXT	ENDS
;	COMDAT text$x
text$x	SEGMENT
__unwindfunclet$??1tagNewShopItemInfo@@QAE@XZ$0:
  00000	8b 4d f0	 mov	 ecx, DWORD PTR _this$[ebp]
  00003	83 c1 10	 add	 ecx, 16			; 00000010H
  00006	e9 00 00 00 00	 jmp	 ??1?$vector@HV?$allocator@H@std@@@std@@QAE@XZ ; std::vector<int,std::allocator<int> >::~vector<int,std::allocator<int> >
__unwindfunclet$??1tagNewShopItemInfo@@QAE@XZ$1:
  0000b	8b 4d f0	 mov	 ecx, DWORD PTR _this$[ebp]
  0000e	83 c1 20	 add	 ecx, 32			; 00000020H
  00011	e9 00 00 00 00	 jmp	 ??1?$vector@HV?$allocator@H@std@@@std@@QAE@XZ ; std::vector<int,std::allocator<int> >::~vector<int,std::allocator<int> >
__unwindfunclet$??1tagNewShopItemInfo@@QAE@XZ$2:
  00016	8b 4d f0	 mov	 ecx, DWORD PTR _this$[ebp]
  00019	83 c1 30	 add	 ecx, 48			; 00000030H
  0001c	e9 00 00 00 00	 jmp	 ??1?$vector@HV?$allocator@H@std@@@std@@QAE@XZ ; std::vector<int,std::allocator<int> >::~vector<int,std::allocator<int> >
__unwindfunclet$??1tagNewShopItemInfo@@QAE@XZ$3:
  00021	8b 4d f0	 mov	 ecx, DWORD PTR _this$[ebp]
  00024	83 c1 40	 add	 ecx, 64			; 00000040H
  00027	e9 00 00 00 00	 jmp	 ??1?$vector@HV?$allocator@H@std@@@std@@QAE@XZ ; std::vector<int,std::allocator<int> >::~vector<int,std::allocator<int> >
__unwindfunclet$??1tagNewShopItemInfo@@QAE@XZ$4:
  0002c	8b 4d f0	 mov	 ecx, DWORD PTR _this$[ebp]
  0002f	83 c1 58	 add	 ecx, 88			; 00000058H
  00032	e9 00 00 00 00	 jmp	 ??1?$vector@HV?$allocator@H@std@@@std@@QAE@XZ ; std::vector<int,std::allocator<int> >::~vector<int,std::allocator<int> >
__unwindfunclet$??1tagNewShopItemInfo@@QAE@XZ$5:
  00037	8b 4d f0	 mov	 ecx, DWORD PTR _this$[ebp]
  0003a	83 c1 68	 add	 ecx, 104		; 00000068H
  0003d	e9 00 00 00 00	 jmp	 ??1?$vector@HV?$allocator@H@std@@@std@@QAE@XZ ; std::vector<int,std::allocator<int> >::~vector<int,std::allocator<int> >
__unwindfunclet$??1tagNewShopItemInfo@@QAE@XZ$6:
  00042	8b 4d f0	 mov	 ecx, DWORD PTR _this$[ebp]
  00045	81 c1 84 00 00
	00		 add	 ecx, 132		; 00000084H
  0004b	e9 00 00 00 00	 jmp	 ??1?$vector@HV?$allocator@H@std@@@std@@QAE@XZ ; std::vector<int,std::allocator<int> >::~vector<int,std::allocator<int> >
__unwindfunclet$??1tagNewShopItemInfo@@QAE@XZ$7:
  00050	8b 4d f0	 mov	 ecx, DWORD PTR _this$[ebp]
  00053	81 c1 98 00 00
	00		 add	 ecx, 152		; 00000098H
  00059	e9 00 00 00 00	 jmp	 ??1?$vector@HV?$allocator@H@std@@@std@@QAE@XZ ; std::vector<int,std::allocator<int> >::~vector<int,std::allocator<int> >
__unwindfunclet$??1tagNewShopItemInfo@@QAE@XZ$8:
  0005e	8b 4d f0	 mov	 ecx, DWORD PTR _this$[ebp]
  00061	81 c1 ac 00 00
	00		 add	 ecx, 172		; 000000acH
  00067	ff 25 00 00 00
	00		 jmp	 DWORD PTR __imp_??1ioHashString@@QAE@XZ
__ehhandler$??1tagNewShopItemInfo@@QAE@XZ:
  0006d	8b 54 24 08	 mov	 edx, DWORD PTR [esp+8]
  00071	8d 42 0c	 lea	 eax, DWORD PTR [edx+12]
  00074	8b 4a ec	 mov	 ecx, DWORD PTR [edx-20]
  00077	33 c8		 xor	 ecx, eax
  00079	e8 00 00 00 00	 call	 @__security_check_cookie@4
  0007e	b8 00 00 00 00	 mov	 eax, OFFSET __ehfuncinfo$??1tagNewShopItemInfo@@QAE@XZ
  00083	e9 00 00 00 00	 jmp	 ___CxxFrameHandler3
text$x	ENDS
??1tagNewShopItemInfo@@QAE@XZ ENDP			; tagNewShopItemInfo::~tagNewShopItemInfo
PUBLIC	??4?$vector@HV?$allocator@H@std@@@std@@QAEAAV01@ABV01@@Z ; std::vector<int,std::allocator<int> >::operator=
; Function compile flags: /Ogsp
;	COMDAT ??4?$vector@HV?$allocator@H@std@@@std@@QAEAAV01@ABV01@@Z
_TEXT	SEGMENT
__Cat$512983 = 8					; size = 1
__Cat$512923 = 8					; size = 1
__Cat$512900 = 8					; size = 1
__Cat$512845 = 8					; size = 1
$T512812 = 8						; size = 4
__Right$ = 8						; size = 4
??4?$vector@HV?$allocator@H@std@@@std@@QAEAAV01@ABV01@@Z PROC ; std::vector<int,std::allocator<int> >::operator=, COMDAT
; _this$ = ecx

; 709  : 		{	// assign _Right

  00000	55		 push	 ebp
  00001	8b ec		 mov	 ebp, esp
  00003	56		 push	 esi
  00004	57		 push	 edi

; 710  : 		if (this != &_Right)

  00005	8b 7d 08	 mov	 edi, DWORD PTR __Right$[ebp]
  00008	8b f1		 mov	 esi, ecx
  0000a	3b f7		 cmp	 esi, edi
  0000c	0f 84 c7 00 00
	00		 je	 $LN1@operator

; 711  : 			{	// worth doing
; 712  : 			this->_Orphan_all();

  00012	53		 push	 ebx
  00013	ff 15 00 00 00
	00		 call	 DWORD PTR __imp_?_Orphan_all@_Container_base0@std@@QAEXXZ

; 713  : 
; 714  : 			if (_Right.size() == 0)

  00019	8b 5f 04	 mov	 ebx, DWORD PTR [edi+4]

; 715  : 				clear();	// new sequence empty, erase existing sequence

  0001c	8b 46 04	 mov	 eax, DWORD PTR [esi+4]
  0001f	8b cb		 mov	 ecx, ebx
  00021	2b 0f		 sub	 ecx, DWORD PTR [edi]
  00023	c1 f9 02	 sar	 ecx, 2
  00026	85 c9		 test	 ecx, ecx
  00028	75 14		 jne	 SHORT $LN8@operator
  0002a	8b 0e		 mov	 ecx, DWORD PTR [esi]
  0002c	50		 push	 eax
  0002d	51		 push	 ecx
  0002e	8d 45 08	 lea	 eax, DWORD PTR $T512812[ebp]
  00031	50		 push	 eax
  00032	8b ce		 mov	 ecx, esi
  00034	e8 00 00 00 00	 call	 ?erase@?$vector@HV?$allocator@H@std@@@std@@QAE?AV?$_Vector_iterator@V?$_Vector_val@HV?$allocator@H@std@@@std@@@2@V?$_Vector_const_iterator@V?$_Vector_val@HV?$allocator@H@std@@@std@@@2@0@Z ; std::vector<int,std::allocator<int> >::erase

; 716  : 			else if (_Right.size() <= size())

  00039	e9 9a 00 00 00	 jmp	 $LN84@operator
$LN8@operator:
  0003e	8b 16		 mov	 edx, DWORD PTR [esi]
  00040	2b c2		 sub	 eax, edx
  00042	c1 f8 02	 sar	 eax, 2
  00045	3b c8		 cmp	 ecx, eax
  00047	77 1e		 ja	 SHORT $LN6@operator

; 717  : 				{	// enough elements, copy new and destroy old
; 718  : 				pointer _Ptr = _STD _Copy_impl(_Right._Myfirst, _Right._Mylast,
; 719  : 					this->_Myfirst);	// copy new

  00049	ff 75 08	 push	 DWORD PTR __Cat$512845[ebp]
  0004c	52		 push	 edx
  0004d	53		 push	 ebx
  0004e	ff 37		 push	 DWORD PTR [edi]
  00050	e8 00 00 00 00	 call	 ??$_Copy_impl@PAHPAH@std@@YAPAHPAH00U_Scalar_ptr_iterator_tag@0@@Z ; std::_Copy_impl<int *,int *>

; 720  : 				_Destroy(_Ptr, this->_Mylast);	// destroy old
; 721  : 				this->_Mylast = this->_Myfirst + _Right.size();

  00055	8b 47 04	 mov	 eax, DWORD PTR [edi+4]
  00058	2b 07		 sub	 eax, DWORD PTR [edi]
  0005a	8b 0e		 mov	 ecx, DWORD PTR [esi]
  0005c	83 c4 10	 add	 esp, 16			; 00000010H
  0005f	c1 f8 02	 sar	 eax, 2
  00062	8d 04 81	 lea	 eax, DWORD PTR [ecx+eax*4]

; 722  : 				}
; 723  : 			else if (_Right.size() <= capacity())

  00065	eb 6e		 jmp	 SHORT $LN85@operator
$LN6@operator:
  00067	8b 5e 08	 mov	 ebx, DWORD PTR [esi+8]
  0006a	2b da		 sub	 ebx, edx
  0006c	c1 fb 02	 sar	 ebx, 2
  0006f	3b cb		 cmp	 ecx, ebx
  00071	77 2a		 ja	 SHORT $LN4@operator

; 724  : 				{	// enough room, copy and construct new
; 725  : 				pointer _Ptr = _Right._Myfirst + size();
; 726  : 				_STD _Copy_impl(_Right._Myfirst, _Ptr, this->_Myfirst);

  00073	ff 75 08	 push	 DWORD PTR __Cat$512900[ebp]
  00076	8b 0f		 mov	 ecx, DWORD PTR [edi]
  00078	52		 push	 edx
  00079	8d 1c 81	 lea	 ebx, DWORD PTR [ecx+eax*4]
  0007c	53		 push	 ebx
  0007d	51		 push	 ecx
  0007e	e8 00 00 00 00	 call	 ??$_Copy_impl@PAHPAH@std@@YAPAHPAH00U_Scalar_ptr_iterator_tag@0@@Z ; std::_Copy_impl<int *,int *>

; 727  : 				this->_Mylast = _Ucopy(_Ptr, _Right._Mylast, this->_Mylast);

  00083	ff 75 08	 push	 DWORD PTR __Cat$512923[ebp]
  00086	8b 46 04	 mov	 eax, DWORD PTR [esi+4]
  00089	8b 7f 04	 mov	 edi, DWORD PTR [edi+4]
  0008c	8d 4e 0c	 lea	 ecx, DWORD PTR [esi+12]
  0008f	51		 push	 ecx
  00090	50		 push	 eax
  00091	57		 push	 edi
  00092	53		 push	 ebx
  00093	e8 00 00 00 00	 call	 ??$_Uninit_copy@HH@std@@YAPAHPAH00AAV?$allocator@H@0@U_Scalar_ptr_iterator_tag@0@@Z ; std::_Uninit_copy<int,int>
  00098	83 c4 24	 add	 esp, 36			; 00000024H

; 728  : 				}
; 729  : 			else

  0009b	eb 38		 jmp	 SHORT $LN85@operator
$LN4@operator:

; 730  : 				{	// not enough room, allocate new array and construct new
; 731  : 				if (this->_Myfirst != 0)

  0009d	85 d2		 test	 edx, edx
  0009f	74 07		 je	 SHORT $LN74@operator

; 732  : 					{	// discard old array
; 733  : 					_Destroy(this->_Myfirst, this->_Mylast);
; 734  : 					this->_Alval.deallocate(this->_Myfirst,
; 735  : 						this->_Myend - this->_Myfirst);

  000a1	52		 push	 edx
  000a2	e8 00 00 00 00	 call	 ??3@YAXPAX@Z		; operator delete
  000a7	59		 pop	 ecx
$LN74@operator:

; 736  : 					}
; 737  : 				if (_Buy(_Right.size()))

  000a8	8b 47 04	 mov	 eax, DWORD PTR [edi+4]
  000ab	2b 07		 sub	 eax, DWORD PTR [edi]
  000ad	8b ce		 mov	 ecx, esi
  000af	c1 f8 02	 sar	 eax, 2
  000b2	50		 push	 eax
  000b3	e8 00 00 00 00	 call	 ?_Buy@?$vector@HV?$allocator@H@std@@@std@@IAE_NI@Z ; std::vector<int,std::allocator<int> >::_Buy
  000b8	84 c0		 test	 al, al
  000ba	74 1c		 je	 SHORT $LN84@operator

; 738  : 					this->_Mylast = _Ucopy(_Right._Myfirst, _Right._Mylast,
; 739  : 						this->_Myfirst);

  000bc	ff 75 08	 push	 DWORD PTR __Cat$512983[ebp]
  000bf	8b 06		 mov	 eax, DWORD PTR [esi]
  000c1	8b 4f 04	 mov	 ecx, DWORD PTR [edi+4]
  000c4	8b 3f		 mov	 edi, DWORD PTR [edi]
  000c6	8d 56 0c	 lea	 edx, DWORD PTR [esi+12]
  000c9	52		 push	 edx
  000ca	50		 push	 eax
  000cb	51		 push	 ecx
  000cc	57		 push	 edi
  000cd	e8 00 00 00 00	 call	 ??$_Uninit_copy@HH@std@@YAPAHPAH00AAV?$allocator@H@0@U_Scalar_ptr_iterator_tag@0@@Z ; std::_Uninit_copy<int,int>
  000d2	83 c4 14	 add	 esp, 20			; 00000014H
$LN85@operator:
  000d5	89 46 04	 mov	 DWORD PTR [esi+4], eax
$LN84@operator:
  000d8	5b		 pop	 ebx
$LN1@operator:
  000d9	5f		 pop	 edi

; 740  : 				}
; 741  : 			}
; 742  : 		return (*this);

  000da	8b c6		 mov	 eax, esi
  000dc	5e		 pop	 esi

; 743  : 		}

  000dd	5d		 pop	 ebp
  000de	c2 04 00	 ret	 4
??4?$vector@HV?$allocator@H@std@@@std@@QAEAAV01@ABV01@@Z ENDP ; std::vector<int,std::allocator<int> >::operator=
_TEXT	ENDS
PUBLIC	?Clear@tagNewShopItemInfo@@QAEXXZ		; tagNewShopItemInfo::Clear
; Function compile flags: /Ogsp
; File d:\lost saga for developer\youtube\tutorial\source\src\lsclient\gui\newshopdatadefine.h
;	COMDAT ?Clear@tagNewShopItemInfo@@QAEXXZ
_TEXT	SEGMENT
$T513613 = -4						; size = 4
$T513533 = -4						; size = 4
$T513453 = -4						; size = 4
$T513373 = -4						; size = 4
$T513293 = -4						; size = 4
$T513213 = -4						; size = 4
$T513133 = -4						; size = 4
$T513062 = -4						; size = 4
?Clear@tagNewShopItemInfo@@QAEXXZ PROC			; tagNewShopItemInfo::Clear, COMDAT
; _this$ = ecx

; 84   : 	{

  00000	55		 push	 ebp
  00001	8b ec		 mov	 ebp, esp
  00003	51		 push	 ecx

; 85   : 		m_iItemType			= 0;

  00004	33 c0		 xor	 eax, eax
  00006	56		 push	 esi
  00007	8b f1		 mov	 esi, ecx
  00009	89 06		 mov	 DWORD PTR [esi], eax

; 86   : 		m_iSortPoint		= 0;    

  0000b	89 46 04	 mov	 DWORD PTR [esi+4], eax

; 87   : 		m_iShopMarkType		= SHOP_MARK_TYPE_NONE;

  0000e	89 46 08	 mov	 DWORD PTR [esi+8], eax

; 88   : 		m_bShowPeso			= false;

  00011	89 46 0c	 mov	 DWORD PTR [esi+12], eax

; 89   : 		m_dwStampEtcItem	= 0;

  00014	89 46 50	 mov	 DWORD PTR [esi+80], eax

; 90   : 		m_iNeedLevel		= 0;

  00017	89 46 54	 mov	 DWORD PTR [esi+84], eax

; 91   : 		m_iValue0			= 0;

  0001a	89 46 78	 mov	 DWORD PTR [esi+120], eax

; 92   : 		m_iValue1			= 0;

  0001d	89 46 7c	 mov	 DWORD PTR [esi+124], eax

; 93   : 		m_iValue2			= 0;

  00020	89 86 80 00 00
	00		 mov	 DWORD PTR [esi+128], eax

; 94   : 		m_iLimit			= 0;

  00026	89 86 94 00 00
	00		 mov	 DWORD PTR [esi+148], eax

; 95   : 		m_iLimitDate		= 0;

  0002c	89 86 cc 00 00
	00		 mov	 DWORD PTR [esi+204], eax

; 96   : 		m_iSubscriptionType = SUBSCRIPTION_NONE;

  00032	89 86 a8 00 00
	00		 mov	 DWORD PTR [esi+168], eax

; 97   : 		
; 98   : 
; 99   : 		m_vPeso.clear();

  00038	8d 4e 10	 lea	 ecx, DWORD PTR [esi+16]
  0003b	8b 41 04	 mov	 eax, DWORD PTR [ecx+4]
  0003e	8b 11		 mov	 edx, DWORD PTR [ecx]
  00040	50		 push	 eax
  00041	52		 push	 edx
  00042	8d 45 fc	 lea	 eax, DWORD PTR $T513062[ebp]
  00045	50		 push	 eax
  00046	e8 00 00 00 00	 call	 ?erase@?$vector@HV?$allocator@H@std@@@std@@QAE?AV?$_Vector_iterator@V?$_Vector_val@HV?$allocator@H@std@@@std@@@2@V?$_Vector_const_iterator@V?$_Vector_val@HV?$allocator@H@std@@@std@@@2@0@Z ; std::vector<int,std::allocator<int> >::erase

; 100  : 		m_vCash.clear();

  0004b	8d 4e 20	 lea	 ecx, DWORD PTR [esi+32]
  0004e	8b 41 04	 mov	 eax, DWORD PTR [ecx+4]
  00051	8b 11		 mov	 edx, DWORD PTR [ecx]
  00053	50		 push	 eax
  00054	52		 push	 edx
  00055	8d 45 fc	 lea	 eax, DWORD PTR $T513133[ebp]
  00058	50		 push	 eax
  00059	e8 00 00 00 00	 call	 ?erase@?$vector@HV?$allocator@H@std@@@std@@QAE?AV?$_Vector_iterator@V?$_Vector_val@HV?$allocator@H@std@@@std@@@2@V?$_Vector_const_iterator@V?$_Vector_val@HV?$allocator@H@std@@@std@@@2@0@Z ; std::vector<int,std::allocator<int> >::erase

; 101  : 		m_vStamp.clear();

  0005e	8d 4e 30	 lea	 ecx, DWORD PTR [esi+48]
  00061	8b 41 04	 mov	 eax, DWORD PTR [ecx+4]
  00064	8b 11		 mov	 edx, DWORD PTR [ecx]
  00066	50		 push	 eax
  00067	52		 push	 edx
  00068	8d 45 fc	 lea	 eax, DWORD PTR $T513213[ebp]
  0006b	50		 push	 eax
  0006c	e8 00 00 00 00	 call	 ?erase@?$vector@HV?$allocator@H@std@@@std@@QAE?AV?$_Vector_iterator@V?$_Vector_val@HV?$allocator@H@std@@@std@@@2@V?$_Vector_const_iterator@V?$_Vector_val@HV?$allocator@H@std@@@std@@@2@0@Z ; std::vector<int,std::allocator<int> >::erase

; 102  : 		m_vTournamentCoin.clear();

  00071	8d 4e 40	 lea	 ecx, DWORD PTR [esi+64]
  00074	8b 41 04	 mov	 eax, DWORD PTR [ecx+4]
  00077	8b 11		 mov	 edx, DWORD PTR [ecx]
  00079	50		 push	 eax
  0007a	52		 push	 edx
  0007b	8d 45 fc	 lea	 eax, DWORD PTR $T513293[ebp]
  0007e	50		 push	 eax
  0007f	e8 00 00 00 00	 call	 ?erase@?$vector@HV?$allocator@H@std@@@std@@QAE?AV?$_Vector_iterator@V?$_Vector_val@HV?$allocator@H@std@@@std@@@2@V?$_Vector_const_iterator@V?$_Vector_val@HV?$allocator@H@std@@@std@@@2@0@Z ; std::vector<int,std::allocator<int> >::erase

; 103  : 
; 104  : 		m_vBonusPeso.clear();

  00084	8d 4e 58	 lea	 ecx, DWORD PTR [esi+88]
  00087	8b 41 04	 mov	 eax, DWORD PTR [ecx+4]
  0008a	8b 11		 mov	 edx, DWORD PTR [ecx]
  0008c	50		 push	 eax
  0008d	52		 push	 edx
  0008e	8d 45 fc	 lea	 eax, DWORD PTR $T513373[ebp]
  00091	50		 push	 eax
  00092	e8 00 00 00 00	 call	 ?erase@?$vector@HV?$allocator@H@std@@@std@@QAE?AV?$_Vector_iterator@V?$_Vector_val@HV?$allocator@H@std@@@std@@@2@V?$_Vector_const_iterator@V?$_Vector_val@HV?$allocator@H@std@@@std@@@2@0@Z ; std::vector<int,std::allocator<int> >::erase

; 105  : 		m_vManualIndex.clear();

  00097	8d 4e 68	 lea	 ecx, DWORD PTR [esi+104]
  0009a	8b 41 04	 mov	 eax, DWORD PTR [ecx+4]
  0009d	8b 11		 mov	 edx, DWORD PTR [ecx]
  0009f	50		 push	 eax
  000a0	52		 push	 edx
  000a1	8d 45 fc	 lea	 eax, DWORD PTR $T513453[ebp]
  000a4	50		 push	 eax
  000a5	e8 00 00 00 00	 call	 ?erase@?$vector@HV?$allocator@H@std@@@std@@QAE?AV?$_Vector_iterator@V?$_Vector_val@HV?$allocator@H@std@@@std@@@2@V?$_Vector_const_iterator@V?$_Vector_val@HV?$allocator@H@std@@@std@@@2@0@Z ; std::vector<int,std::allocator<int> >::erase

; 106  : 
; 107  : 
; 108  : 		m_vValue3.clear();

  000aa	8d 8e 84 00 00
	00		 lea	 ecx, DWORD PTR [esi+132]
  000b0	8b 41 04	 mov	 eax, DWORD PTR [ecx+4]
  000b3	8b 11		 mov	 edx, DWORD PTR [ecx]
  000b5	50		 push	 eax
  000b6	52		 push	 edx
  000b7	8d 45 fc	 lea	 eax, DWORD PTR $T513533[ebp]
  000ba	50		 push	 eax
  000bb	e8 00 00 00 00	 call	 ?erase@?$vector@HV?$allocator@H@std@@@std@@QAE?AV?$_Vector_iterator@V?$_Vector_val@HV?$allocator@H@std@@@std@@@2@V?$_Vector_const_iterator@V?$_Vector_val@HV?$allocator@H@std@@@std@@@2@0@Z ; std::vector<int,std::allocator<int> >::erase

; 109  : 		m_vSubscriptionType.clear();

  000c0	8d 8e 98 00 00
	00		 lea	 ecx, DWORD PTR [esi+152]
  000c6	8b 41 04	 mov	 eax, DWORD PTR [ecx+4]
  000c9	8b 11		 mov	 edx, DWORD PTR [ecx]
  000cb	50		 push	 eax
  000cc	52		 push	 edx
  000cd	8d 45 fc	 lea	 eax, DWORD PTR $T513613[ebp]
  000d0	50		 push	 eax
  000d1	e8 00 00 00 00	 call	 ?erase@?$vector@HV?$allocator@H@std@@@std@@QAE?AV?$_Vector_iterator@V?$_Vector_val@HV?$allocator@H@std@@@std@@@2@V?$_Vector_const_iterator@V?$_Vector_val@HV?$allocator@H@std@@@std@@@2@0@Z ; std::vector<int,std::allocator<int> >::erase
  000d6	5e		 pop	 esi

; 110  : 	}

  000d7	c9		 leave
  000d8	c3		 ret	 0
?Clear@tagNewShopItemInfo@@QAEXXZ ENDP			; tagNewShopItemInfo::Clear
_TEXT	ENDS
PUBLIC	??_7ShopItemInfoEX@@6B@				; ShopItemInfoEX::`vftable'
PUBLIC	??1ShopItemInfoEX@@UAE@XZ			; ShopItemInfoEX::~ShopItemInfoEX
PUBLIC	??_R4ShopItemInfoEX@@6B@			; ShopItemInfoEX::`RTTI Complete Object Locator'
PUBLIC	??_R0?AVShopItemInfoEX@@@8			; ShopItemInfoEX `RTTI Type Descriptor'
PUBLIC	??_R3ShopItemInfoEX@@8				; ShopItemInfoEX::`RTTI Class Hierarchy Descriptor'
PUBLIC	??_R2ShopItemInfoEX@@8				; ShopItemInfoEX::`RTTI Base Class Array'
PUBLIC	??_R1A@?0A@EA@ShopItemInfoEX@@8			; ShopItemInfoEX::`RTTI Base Class Descriptor at (0,-1,0,64)'
PUBLIC	??_R13?0A@EA@tagNewShopItemInfo@@8		; tagNewShopItemInfo::`RTTI Base Class Descriptor at (4,-1,0,64)'
PUBLIC	??_R0?AUtagNewShopItemInfo@@@8			; tagNewShopItemInfo `RTTI Type Descriptor'
PUBLIC	??_R3tagNewShopItemInfo@@8			; tagNewShopItemInfo::`RTTI Class Hierarchy Descriptor'
PUBLIC	??_R2tagNewShopItemInfo@@8			; tagNewShopItemInfo::`RTTI Base Class Array'
PUBLIC	??_R1A@?0A@EA@tagNewShopItemInfo@@8		; tagNewShopItemInfo::`RTTI Base Class Descriptor at (0,-1,0,64)'
EXTRN	??_EShopItemInfoEX@@UAEPAXI@Z:PROC		; ShopItemInfoEX::`vector deleting destructor'
;	COMDAT ??_R1A@?0A@EA@tagNewShopItemInfo@@8
; File d:\lost saga for developer\youtube\tutorial\source\src\lsclient\gui\shopwndtabcontroller.h
rdata$r	SEGMENT
??_R1A@?0A@EA@tagNewShopItemInfo@@8 DD FLAT:??_R0?AUtagNewShopItemInfo@@@8 ; tagNewShopItemInfo::`RTTI Base Class Descriptor at (0,-1,0,64)'
	DD	00H
	DD	00H
	DD	0ffffffffH
	DD	00H
	DD	040H
	DD	FLAT:??_R3tagNewShopItemInfo@@8
rdata$r	ENDS
;	COMDAT ??_R2tagNewShopItemInfo@@8
rdata$r	SEGMENT
??_R2tagNewShopItemInfo@@8 DD FLAT:??_R1A@?0A@EA@tagNewShopItemInfo@@8 ; tagNewShopItemInfo::`RTTI Base Class Array'
rdata$r	ENDS
;	COMDAT ??_R3tagNewShopItemInfo@@8
rdata$r	SEGMENT
??_R3tagNewShopItemInfo@@8 DD 00H			; tagNewShopItemInfo::`RTTI Class Hierarchy Descriptor'
	DD	00H
	DD	01H
	DD	FLAT:??_R2tagNewShopItemInfo@@8
rdata$r	ENDS
;	COMDAT ??_R0?AUtagNewShopItemInfo@@@8
_DATA	SEGMENT
??_R0?AUtagNewShopItemInfo@@@8 DD FLAT:??_7type_info@@6B@ ; tagNewShopItemInfo `RTTI Type Descriptor'
	DD	00H
	DB	'.?AUtagNewShopItemInfo@@', 00H
_DATA	ENDS
;	COMDAT ??_R13?0A@EA@tagNewShopItemInfo@@8
rdata$r	SEGMENT
??_R13?0A@EA@tagNewShopItemInfo@@8 DD FLAT:??_R0?AUtagNewShopItemInfo@@@8 ; tagNewShopItemInfo::`RTTI Base Class Descriptor at (4,-1,0,64)'
	DD	00H
	DD	04H
	DD	0ffffffffH
	DD	00H
	DD	040H
	DD	FLAT:??_R3tagNewShopItemInfo@@8
rdata$r	ENDS
;	COMDAT ??_R1A@?0A@EA@ShopItemInfoEX@@8
rdata$r	SEGMENT
??_R1A@?0A@EA@ShopItemInfoEX@@8 DD FLAT:??_R0?AVShopItemInfoEX@@@8 ; ShopItemInfoEX::`RTTI Base Class Descriptor at (0,-1,0,64)'
	DD	01H
	DD	00H
	DD	0ffffffffH
	DD	00H
	DD	040H
	DD	FLAT:??_R3ShopItemInfoEX@@8
rdata$r	ENDS
;	COMDAT ??_R2ShopItemInfoEX@@8
rdata$r	SEGMENT
??_R2ShopItemInfoEX@@8 DD FLAT:??_R1A@?0A@EA@ShopItemInfoEX@@8 ; ShopItemInfoEX::`RTTI Base Class Array'
	DD	FLAT:??_R13?0A@EA@tagNewShopItemInfo@@8
rdata$r	ENDS
;	COMDAT ??_R3ShopItemInfoEX@@8
rdata$r	SEGMENT
??_R3ShopItemInfoEX@@8 DD 00H				; ShopItemInfoEX::`RTTI Class Hierarchy Descriptor'
	DD	00H
	DD	02H
	DD	FLAT:??_R2ShopItemInfoEX@@8
rdata$r	ENDS
;	COMDAT ??_R0?AVShopItemInfoEX@@@8
_DATA	SEGMENT
??_R0?AVShopItemInfoEX@@@8 DD FLAT:??_7type_info@@6B@	; ShopItemInfoEX `RTTI Type Descriptor'
	DD	00H
	DB	'.?AVShopItemInfoEX@@', 00H
_DATA	ENDS
;	COMDAT ??_R4ShopItemInfoEX@@6B@
rdata$r	SEGMENT
??_R4ShopItemInfoEX@@6B@ DD 00H				; ShopItemInfoEX::`RTTI Complete Object Locator'
	DD	00H
	DD	00H
	DD	FLAT:??_R0?AVShopItemInfoEX@@@8
	DD	FLAT:??_R3ShopItemInfoEX@@8
rdata$r	ENDS
;	COMDAT ??_7ShopItemInfoEX@@6B@
CONST	SEGMENT
??_7ShopItemInfoEX@@6B@ DD FLAT:??_R4ShopItemInfoEX@@6B@ ; ShopItemInfoEX::`vftable'
	DD	FLAT:??_EShopItemInfoEX@@UAEPAXI@Z
; Function compile flags: /Ogsp
CONST	ENDS
;	COMDAT ??1ShopItemInfoEX@@UAE@XZ
_TEXT	SEGMENT
??1ShopItemInfoEX@@UAE@XZ PROC				; ShopItemInfoEX::~ShopItemInfoEX, COMDAT
; _this$ = ecx

; 37   : 	virtual ~ShopItemInfoEX() {}

  00000	c7 01 00 00 00
	00		 mov	 DWORD PTR [ecx], OFFSET ??_7ShopItemInfoEX@@6B@
  00006	83 c1 04	 add	 ecx, 4
  00009	e9 00 00 00 00	 jmp	 ??1tagNewShopItemInfo@@QAE@XZ
??1ShopItemInfoEX@@UAE@XZ ENDP				; ShopItemInfoEX::~ShopItemInfoEX
; Function compile flags: /Ogsp
_TEXT	ENDS
;	COMDAT ??_GShopItemInfoEX@@UAEPAXI@Z
_TEXT	SEGMENT
___flags$ = 8						; size = 4
??_GShopItemInfoEX@@UAEPAXI@Z PROC			; ShopItemInfoEX::`scalar deleting destructor', COMDAT
; _this$ = ecx
  00000	55		 push	 ebp
  00001	8b ec		 mov	 ebp, esp
  00003	56		 push	 esi
  00004	8b f1		 mov	 esi, ecx
  00006	8d 4e 04	 lea	 ecx, DWORD PTR [esi+4]
  00009	c7 06 00 00 00
	00		 mov	 DWORD PTR [esi], OFFSET ??_7ShopItemInfoEX@@6B@
  0000f	e8 00 00 00 00	 call	 ??1tagNewShopItemInfo@@QAE@XZ
  00014	f6 45 08 01	 test	 BYTE PTR ___flags$[ebp], 1
  00018	74 07		 je	 SHORT $LN1@scalar@5
  0001a	56		 push	 esi
  0001b	e8 00 00 00 00	 call	 ??3@YAXPAX@Z		; operator delete
  00020	59		 pop	 ecx
$LN1@scalar@5:
  00021	8b c6		 mov	 eax, esi
  00023	5e		 pop	 esi
  00024	5d		 pop	 ebp
  00025	c2 04 00	 ret	 4
??_GShopItemInfoEX@@UAEPAXI@Z ENDP			; ShopItemInfoEX::`scalar deleting destructor'
_TEXT	ENDS
PUBLIC	??_7ShopBuyWnd@@6B@				; ShopBuyWnd::`vftable'
PUBLIC	??1ShopBuyWnd@@UAE@XZ				; ShopBuyWnd::~ShopBuyWnd
PUBLIC	??_R4ShopBuyWnd@@6B@				; ShopBuyWnd::`RTTI Complete Object Locator'
PUBLIC	??_R0?AVShopBuyWnd@@@8				; ShopBuyWnd `RTTI Type Descriptor'
PUBLIC	??_R3ShopBuyWnd@@8				; ShopBuyWnd::`RTTI Class Hierarchy Descriptor'
PUBLIC	??_R2ShopBuyWnd@@8				; ShopBuyWnd::`RTTI Base Class Array'
PUBLIC	??_R1A@?0A@EA@ShopBuyWnd@@8			; ShopBuyWnd::`RTTI Base Class Descriptor at (0,-1,0,64)'
EXTRN	??_EShopBuyWnd@@UAEPAXI@Z:PROC			; ShopBuyWnd::`vector deleting destructor'
;	COMDAT ??_R1A@?0A@EA@ShopBuyWnd@@8
; File d:\lost saga for developer\youtube\tutorial\source\src\lsclient\gui\shopbuywndbase.h
rdata$r	SEGMENT
??_R1A@?0A@EA@ShopBuyWnd@@8 DD FLAT:??_R0?AVShopBuyWnd@@@8 ; ShopBuyWnd::`RTTI Base Class Descriptor at (0,-1,0,64)'
	DD	03H
	DD	00H
	DD	0ffffffffH
	DD	00H
	DD	040H
	DD	FLAT:??_R3ShopBuyWnd@@8
rdata$r	ENDS
;	COMDAT ??_R2ShopBuyWnd@@8
rdata$r	SEGMENT
??_R2ShopBuyWnd@@8 DD FLAT:??_R1A@?0A@EA@ShopBuyWnd@@8	; ShopBuyWnd::`RTTI Base Class Array'
	DD	FLAT:??_R1A@?0A@EA@ShopBuyWndBase@@8
	DD	FLAT:??_R1A@?0A@EA@ioWndEX@@8
	DD	FLAT:??_R1A@?0A@EA@ioWnd@@8
rdata$r	ENDS
;	COMDAT ??_R3ShopBuyWnd@@8
rdata$r	SEGMENT
??_R3ShopBuyWnd@@8 DD 00H				; ShopBuyWnd::`RTTI Class Hierarchy Descriptor'
	DD	00H
	DD	04H
	DD	FLAT:??_R2ShopBuyWnd@@8
rdata$r	ENDS
;	COMDAT ??_R0?AVShopBuyWnd@@@8
_DATA	SEGMENT
??_R0?AVShopBuyWnd@@@8 DD FLAT:??_7type_info@@6B@	; ShopBuyWnd `RTTI Type Descriptor'
	DD	00H
	DB	'.?AVShopBuyWnd@@', 00H
_DATA	ENDS
;	COMDAT ??_R4ShopBuyWnd@@6B@
rdata$r	SEGMENT
??_R4ShopBuyWnd@@6B@ DD 00H				; ShopBuyWnd::`RTTI Complete Object Locator'
	DD	00H
	DD	00H
	DD	FLAT:??_R0?AVShopBuyWnd@@@8
	DD	FLAT:??_R3ShopBuyWnd@@8
rdata$r	ENDS
;	COMDAT ??_7ShopBuyWnd@@6B@
CONST	SEGMENT
??_7ShopBuyWnd@@6B@ DD FLAT:??_R4ShopBuyWnd@@6B@	; ShopBuyWnd::`vftable'
	DD	FLAT:?AddRenderFrame@ioWnd@@UAEXABVioHashString@@PAVioUIRenderFrame@@@Z
	DD	FLAT:?AddRenderImage@ioWnd@@UAEXABVioHashString@@PAVioUIRenderImage@@@Z
	DD	FLAT:?AddTooltipHelp@ioWnd@@UAEXABVioHashString@@00@Z
	DD	FLAT:?ParseExtraInfo@ioWndEX@@UAEXAAVioXMLElement@@@Z
	DD	FLAT:?AddNamedRenderImage@ioWnd@@UAEXABVioHashString@@PAVioUIRenderImage@@@Z
	DD	FLAT:?RemoveNamedRenderImage@ioWnd@@UAEXABVioHashString@@@Z
	DD	FLAT:?GetNamedRenderImage@ioWnd@@UBEPAVioUIRenderImage@@ABVioHashString@@@Z
	DD	FLAT:?SetWindowAlpha@ioWnd@@UAEXH@Z
	DD	FLAT:?SetActive@ioWnd@@UAEXXZ
	DD	FLAT:?SetInActive@ioWnd@@UAEXXZ
	DD	FLAT:?ClearElementImageList@ioWnd@@UAEXXZ
	DD	FLAT:?SetSize@ioWnd@@UAEXHH@Z
	DD	FLAT:?SetPositionToDefault@ioWnd@@UAEXHH_N0@Z
	DD	FLAT:?IsNeedProcess@ioWnd@@UBE_NXZ
	DD	FLAT:?IsCanMouseReaction@ioWnd@@UBE_NXZ
	DD	FLAT:?AddChild@ioWnd@@UAEXPAV1@@Z
	DD	FLAT:?DeleteChild@ioWnd@@UAEXK@Z
	DD	FLAT:?DeleteAllChild@ioWnd@@UAEXXZ
	DD	FLAT:?OnRenderShowAndHide@ioWnd@@MAE_NXZ
	DD	FLAT:?OnRenderShowAndHideByDefault@ioWnd@@MAE_NK@Z
	DD	FLAT:?OnRenderShowAndHideByTop@ioWnd@@MAE_NK@Z
	DD	FLAT:?OnRenderShowAndHideByDown@ioWnd@@MAE_NK@Z
	DD	FLAT:?OnRender@ioWnd@@MAEXXZ
	DD	FLAT:?OnRenderAfterChild@ioWnd@@MAEXXZ
	DD	FLAT:?OnProcess@ioWnd@@MAEXM@Z
	DD	FLAT:?OnMouseProcess@ioWnd@@MAEXABVioMouse@@@Z
	DD	FLAT:?CheckFrameReSize@ioWnd@@MAEXHHHH@Z
	DD	FLAT:?RenderImageList@ioWnd@@MAEXHHW4UIRenderType@@@Z
	DD	FLAT:?iwm_create@ShopBuyWndBase@@UAEXXZ
	DD	FLAT:?iwm_destroy@ShopBuyWndBase@@UAEXXZ
	DD	FLAT:?iwm_lbuttondown@ioWndEX@@UAEXABVioMouse@@@Z
	DD	FLAT:?iwm_lbuttonup@ioWndEX@@UAEXABVioMouse@@@Z
	DD	FLAT:?iwm_lbuttonDBLCLK@ioWndEX@@UAEXABVioMouse@@@Z
	DD	FLAT:?iwm_rbuttondown@ioWndEX@@UAEXABVioMouse@@@Z
	DD	FLAT:?iwm_rbuttonup@ioWndEX@@UAEXABVioMouse@@@Z
	DD	FLAT:?iwm_command@ioWnd@@UAEXPAV1@HK@Z
	DD	FLAT:?iwm_mouseover@ioWndEX@@UAEXABVioMouse@@@Z
	DD	FLAT:?iwm_mousemove@ioWndEX@@UAEXABVioMouse@@@Z
	DD	FLAT:?iwm_mouseleave@ioWndEX@@UAEXABVioMouse@@@Z
	DD	FLAT:?iwm_vscroll@ioWnd@@UAEXKH@Z
	DD	FLAT:?iwm_wheel@ioWndEX@@UAEXH@Z
	DD	FLAT:?iwm_show@ioWndEX@@UAEXXZ
	DD	FLAT:?iwm_hide@ioWndEX@@UAEXXZ
	DD	FLAT:?iwm_esc@ioWndEX@@UAE_NXZ
	DD	FLAT:?iwm_spacebar@ioWndEX@@UAE_NXZ
	DD	FLAT:?iwm_gototop@ioWnd@@UAEXXZ
	DD	FLAT:?iwm_dragenter@ioWnd@@UAE?AW4IWDropEffect@@PAVioDragItem@@ABVioMouse@@@Z
	DD	FLAT:?iwm_dragover@ioWnd@@UAE?AW4IWDropEffect@@PAVioDragItem@@ABVioMouse@@@Z
	DD	FLAT:?iwm_dragleave@ioWnd@@UAEXXZ
	DD	FLAT:?iwm_dropitem@ioWnd@@UAE_NPAVioDragItem@@ABVioMouse@@PAV1@@Z
	DD	FLAT:?iwm_dropdone@ioWnd@@UAEXPAVioDragItem@@PAV1@_N@Z
	DD	FLAT:?IsEXType@ioWndEX@@UBE_NXZ
	DD	FLAT:?GetWndType@ioWnd@@UBEKXZ
	DD	FLAT:?RenderWnd@ioWnd@@UAEXXZ
	DD	FLAT:?SetIDEX@ioWnd@@UAEXAAK_N@Z
	DD	FLAT:?ParseXML@ioWnd@@UAEXAAVioXMLElement@@@Z
	DD	FLAT:?GetHeaderFileName@ioWndEX@@UAEPBDXZ
	DD	FLAT:?GetTemplateName@ioWndEX@@UAEPBDXZ
	DD	FLAT:?GetDefClassName@ioWndEX@@UBEPBDXZ
	DD	FLAT:?_Clone@ioWndEX@@UAEPAVioWnd@@XZ
	DD	FLAT:?Copy@ioWnd@@UAEXPAV1@@Z
	DD	FLAT:?Save@ioWnd@@UAE_NAAVioXMLElement@@@Z
	DD	FLAT:?SetSaveData@ioWndEX@@UAEXAAVioXMLElement@@@Z
	DD	FLAT:?SetPosX@ioWnd@@UAEXH@Z
	DD	FLAT:?SetPosY@ioWnd@@UAEXH@Z
	DD	FLAT:?SetWidth@ioWnd@@UAEXH@Z
	DD	FLAT:?SetHeight@ioWnd@@UAEXH@Z
	DD	FLAT:?GetNumFixedRenderFrame@ioWnd@@UBEHXZ
	DD	FLAT:?GetFixedRenderFrameType@ioWnd@@UAEPBDH@Z
	DD	FLAT:?GetRenderFrame@ioWnd@@UAEPAPAVioUIRenderElement@@PBD@Z
	DD	FLAT:?GetNumFixedRenderImage@ioWnd@@UBEHXZ
	DD	FLAT:?GetFixedRenderImageType@ioWnd@@UAEPBDH@Z
	DD	FLAT:?GetRenderImage@ioWnd@@UAEPAPAVioUIRenderElement@@PBD@Z
	DD	FLAT:?AddEffect@ioWnd@@UAEXABVioHashString@@PAVioUI3DEffectRender@@@Z
	DD	FLAT:?GetEffect@ioWnd@@UAEPAVioUI3DEffectRender@@VioHashString@@@Z
	DD	FLAT:??_EShopBuyWnd@@UAEPAXI@Z
	DD	FLAT:?_ParseExtraInfo@ioWndEX@@UAEXAAVioXMLElement@@@Z
	DD	FLAT:?_SetSaveData@ioWndEX@@UAEXAAVioXMLElement@@@Z
	DD	FLAT:?OnClickBuy@ShopBuyWnd@@UAEXPAVioWndEX@@AAVioWndEXMouseEvent@@@Z
	DD	FLAT:?OnClickClose@ShopBuyWnd@@UAEXPAVioWndEX@@AAVioWndEXMouseEvent@@@Z
	DD	FLAT:?OnClickPresent@ShopBuyWnd@@UAEXPAVioWndEX@@AAVioWndEXMouseEvent@@@Z
CONST	ENDS
;	COMDAT xdata$x
xdata$x	SEGMENT
__unwindtable$??1ShopBuyWnd@@UAE@XZ DD 0ffffffffH
	DD	FLAT:__unwindfunclet$??1ShopBuyWnd@@UAE@XZ$0
__ehfuncinfo$??1ShopBuyWnd@@UAE@XZ DD 019930522H
	DD	01H
	DD	FLAT:__unwindtable$??1ShopBuyWnd@@UAE@XZ
	DD	2 DUP(00H)
	DD	2 DUP(00H)
	DD	00H
	DD	01H
; Function compile flags: /Ogsp
; File d:\lost saga for developer\youtube\tutorial\source\src\lsclient\gui\shopbuywnd.cpp
xdata$x	ENDS
;	COMDAT ??1ShopBuyWnd@@UAE@XZ
_TEXT	SEGMENT
_this$ = -16						; size = 4
__$EHRec$ = -12						; size = 12
??1ShopBuyWnd@@UAE@XZ PROC				; ShopBuyWnd::~ShopBuyWnd, COMDAT
; _this$ = ecx

; 27   : {

  00000	6a 04		 push	 4
  00002	b8 00 00 00 00	 mov	 eax, __ehhandler$??1ShopBuyWnd@@UAE@XZ
  00007	e8 00 00 00 00	 call	 __EH_prolog3
  0000c	8b f1		 mov	 esi, ecx
  0000e	89 75 f0	 mov	 DWORD PTR _this$[ebp], esi
  00011	c7 06 00 00 00
	00		 mov	 DWORD PTR [esi], OFFSET ??_7ShopBuyWnd@@6B@
  00017	83 65 fc 00	 and	 DWORD PTR __$EHRec$[ebp+8], 0

; 28   : }

  0001b	8d 8e a0 01 00
	00		 lea	 ecx, DWORD PTR [esi+416]
  00021	c7 86 9c 01 00
	00 00 00 00 00	 mov	 DWORD PTR [esi+412], OFFSET ??_7ShopItemInfoEX@@6B@
  0002b	e8 00 00 00 00	 call	 ??1tagNewShopItemInfo@@QAE@XZ
  00030	83 4d fc ff	 or	 DWORD PTR __$EHRec$[ebp+8], -1
  00034	8b ce		 mov	 ecx, esi
  00036	c7 06 00 00 00
	00		 mov	 DWORD PTR [esi], OFFSET ??_7ShopBuyWndBase@@6B@
  0003c	ff 15 00 00 00
	00		 call	 DWORD PTR __imp_??1ioWndEX@@UAE@XZ
  00042	e8 00 00 00 00	 call	 __EH_epilog3
  00047	c3		 ret	 0
_TEXT	ENDS
;	COMDAT text$x
text$x	SEGMENT
__unwindfunclet$??1ShopBuyWnd@@UAE@XZ$0:
  00000	8b 4d f0	 mov	 ecx, DWORD PTR _this$[ebp]
  00003	e9 00 00 00 00	 jmp	 ??1ShopBuyWndBase@@UAE@XZ ; ShopBuyWndBase::~ShopBuyWndBase
__ehhandler$??1ShopBuyWnd@@UAE@XZ:
  00008	8b 54 24 08	 mov	 edx, DWORD PTR [esp+8]
  0000c	8d 42 0c	 lea	 eax, DWORD PTR [edx+12]
  0000f	8b 4a ec	 mov	 ecx, DWORD PTR [edx-20]
  00012	33 c8		 xor	 ecx, eax
  00014	e8 00 00 00 00	 call	 @__security_check_cookie@4
  00019	b8 00 00 00 00	 mov	 eax, OFFSET __ehfuncinfo$??1ShopBuyWnd@@UAE@XZ
  0001e	e9 00 00 00 00	 jmp	 ___CxxFrameHandler3
text$x	ENDS
??1ShopBuyWnd@@UAE@XZ ENDP				; ShopBuyWnd::~ShopBuyWnd
PUBLIC	??4tagNewShopItemInfo@@QAEAAU0@ABU0@@Z		; tagNewShopItemInfo::operator=
EXTRN	__imp_??4ioHashString@@QAEAAV0@ABV0@@Z:PROC
; Function compile flags: /Ogsp
;	COMDAT ??4tagNewShopItemInfo@@QAEAAU0@ABU0@@Z
_TEXT	SEGMENT
___that$ = 8						; size = 4
??4tagNewShopItemInfo@@QAEAAU0@ABU0@@Z PROC		; tagNewShopItemInfo::operator=, COMDAT
; _this$ = ecx
  00000	55		 push	 ebp
  00001	8b ec		 mov	 ebp, esp
  00003	53		 push	 ebx
  00004	56		 push	 esi
  00005	57		 push	 edi
  00006	8b 7d 08	 mov	 edi, DWORD PTR ___that$[ebp]
  00009	8b 07		 mov	 eax, DWORD PTR [edi]
  0000b	8b f1		 mov	 esi, ecx
  0000d	89 06		 mov	 DWORD PTR [esi], eax
  0000f	8b 47 04	 mov	 eax, DWORD PTR [edi+4]
  00012	89 46 04	 mov	 DWORD PTR [esi+4], eax
  00015	8b 47 08	 mov	 eax, DWORD PTR [edi+8]
  00018	89 46 08	 mov	 DWORD PTR [esi+8], eax
  0001b	8b 47 0c	 mov	 eax, DWORD PTR [edi+12]
  0001e	89 46 0c	 mov	 DWORD PTR [esi+12], eax
  00021	8d 47 10	 lea	 eax, DWORD PTR [edi+16]
  00024	50		 push	 eax
  00025	8d 4e 10	 lea	 ecx, DWORD PTR [esi+16]
  00028	e8 00 00 00 00	 call	 ??4?$vector@HV?$allocator@H@std@@@std@@QAEAAV01@ABV01@@Z ; std::vector<int,std::allocator<int> >::operator=
  0002d	8d 47 20	 lea	 eax, DWORD PTR [edi+32]
  00030	50		 push	 eax
  00031	8d 4e 20	 lea	 ecx, DWORD PTR [esi+32]
  00034	e8 00 00 00 00	 call	 ??4?$vector@HV?$allocator@H@std@@@std@@QAEAAV01@ABV01@@Z ; std::vector<int,std::allocator<int> >::operator=
  00039	8d 47 30	 lea	 eax, DWORD PTR [edi+48]
  0003c	50		 push	 eax
  0003d	8d 4e 30	 lea	 ecx, DWORD PTR [esi+48]
  00040	e8 00 00 00 00	 call	 ??4?$vector@HV?$allocator@H@std@@@std@@QAEAAV01@ABV01@@Z ; std::vector<int,std::allocator<int> >::operator=
  00045	8d 47 40	 lea	 eax, DWORD PTR [edi+64]
  00048	50		 push	 eax
  00049	8d 4e 40	 lea	 ecx, DWORD PTR [esi+64]
  0004c	e8 00 00 00 00	 call	 ??4?$vector@HV?$allocator@H@std@@@std@@QAEAAV01@ABV01@@Z ; std::vector<int,std::allocator<int> >::operator=
  00051	8b 47 50	 mov	 eax, DWORD PTR [edi+80]
  00054	89 46 50	 mov	 DWORD PTR [esi+80], eax
  00057	8b 47 54	 mov	 eax, DWORD PTR [edi+84]
  0005a	89 46 54	 mov	 DWORD PTR [esi+84], eax
  0005d	8d 47 58	 lea	 eax, DWORD PTR [edi+88]
  00060	50		 push	 eax
  00061	8d 4e 58	 lea	 ecx, DWORD PTR [esi+88]
  00064	e8 00 00 00 00	 call	 ??4?$vector@HV?$allocator@H@std@@@std@@QAEAAV01@ABV01@@Z ; std::vector<int,std::allocator<int> >::operator=
  00069	8d 47 68	 lea	 eax, DWORD PTR [edi+104]
  0006c	50		 push	 eax
  0006d	8d 4e 68	 lea	 ecx, DWORD PTR [esi+104]
  00070	e8 00 00 00 00	 call	 ??4?$vector@HV?$allocator@H@std@@@std@@QAEAAV01@ABV01@@Z ; std::vector<int,std::allocator<int> >::operator=
  00075	8b 47 78	 mov	 eax, DWORD PTR [edi+120]
  00078	89 46 78	 mov	 DWORD PTR [esi+120], eax
  0007b	8b 47 7c	 mov	 eax, DWORD PTR [edi+124]
  0007e	89 46 7c	 mov	 DWORD PTR [esi+124], eax
  00081	8b 87 80 00 00
	00		 mov	 eax, DWORD PTR [edi+128]
  00087	89 86 80 00 00
	00		 mov	 DWORD PTR [esi+128], eax
  0008d	8d 87 84 00 00
	00		 lea	 eax, DWORD PTR [edi+132]
  00093	50		 push	 eax
  00094	8d 8e 84 00 00
	00		 lea	 ecx, DWORD PTR [esi+132]
  0009a	e8 00 00 00 00	 call	 ??4?$vector@HV?$allocator@H@std@@@std@@QAEAAV01@ABV01@@Z ; std::vector<int,std::allocator<int> >::operator=
  0009f	8b 87 94 00 00
	00		 mov	 eax, DWORD PTR [edi+148]
  000a5	89 86 94 00 00
	00		 mov	 DWORD PTR [esi+148], eax
  000ab	8d 87 98 00 00
	00		 lea	 eax, DWORD PTR [edi+152]
  000b1	50		 push	 eax
  000b2	8d 8e 98 00 00
	00		 lea	 ecx, DWORD PTR [esi+152]
  000b8	e8 00 00 00 00	 call	 ??4?$vector@HV?$allocator@H@std@@@std@@QAEAAV01@ABV01@@Z ; std::vector<int,std::allocator<int> >::operator=
  000bd	8b 87 a8 00 00
	00		 mov	 eax, DWORD PTR [edi+168]
  000c3	8b 1d 00 00 00
	00		 mov	 ebx, DWORD PTR __imp_??4ioHashString@@QAEAAV0@ABV0@@Z
  000c9	89 86 a8 00 00
	00		 mov	 DWORD PTR [esi+168], eax
  000cf	8d 87 ac 00 00
	00		 lea	 eax, DWORD PTR [edi+172]
  000d5	50		 push	 eax
  000d6	8d 8e ac 00 00
	00		 lea	 ecx, DWORD PTR [esi+172]
  000dc	ff d3		 call	 ebx
  000de	8d 87 bc 00 00
	00		 lea	 eax, DWORD PTR [edi+188]
  000e4	50		 push	 eax
  000e5	8d 8e bc 00 00
	00		 lea	 ecx, DWORD PTR [esi+188]
  000eb	ff d3		 call	 ebx
  000ed	8b 87 cc 00 00
	00		 mov	 eax, DWORD PTR [edi+204]
  000f3	89 86 cc 00 00
	00		 mov	 DWORD PTR [esi+204], eax
  000f9	5f		 pop	 edi
  000fa	8b c6		 mov	 eax, esi
  000fc	5e		 pop	 esi
  000fd	5b		 pop	 ebx
  000fe	5d		 pop	 ebp
  000ff	c2 04 00	 ret	 4
??4tagNewShopItemInfo@@QAEAAU0@ABU0@@Z ENDP		; tagNewShopItemInfo::operator=
_TEXT	ENDS
PUBLIC	??0tagNewShopItemInfo@@QAE@XZ			; tagNewShopItemInfo::tagNewShopItemInfo
EXTRN	__imp_??0ioHashString@@QAE@XZ:PROC
;	COMDAT xdata$x
; File c:\program files (x86)\microsoft visual studio 10.0\vc\include\xmemory
xdata$x	SEGMENT
__ehfuncinfo$??0tagNewShopItemInfo@@QAE@XZ DD 019930522H
	DD	09H
	DD	FLAT:__unwindtable$??0tagNewShopItemInfo@@QAE@XZ
	DD	2 DUP(00H)
	DD	2 DUP(00H)
	DD	00H
	DD	01H
__unwindtable$??0tagNewShopItemInfo@@QAE@XZ DD 0ffffffffH
	DD	FLAT:__unwindfunclet$??0tagNewShopItemInfo@@QAE@XZ$0
	DD	00H
	DD	FLAT:__unwindfunclet$??0tagNewShopItemInfo@@QAE@XZ$1
	DD	01H
	DD	FLAT:__unwindfunclet$??0tagNewShopItemInfo@@QAE@XZ$2
	DD	02H
	DD	FLAT:__unwindfunclet$??0tagNewShopItemInfo@@QAE@XZ$3
	DD	03H
	DD	FLAT:__unwindfunclet$??0tagNewShopItemInfo@@QAE@XZ$4
	DD	04H
	DD	FLAT:__unwindfunclet$??0tagNewShopItemInfo@@QAE@XZ$5
	DD	05H
	DD	FLAT:__unwindfunclet$??0tagNewShopItemInfo@@QAE@XZ$6
	DD	06H
	DD	FLAT:__unwindfunclet$??0tagNewShopItemInfo@@QAE@XZ$7
	DD	07H
	DD	FLAT:__unwindfunclet$??0tagNewShopItemInfo@@QAE@XZ$8
; Function compile flags: /Ogsp
; File d:\lost saga for developer\youtube\tutorial\source\src\lsclient\gui\newshopdatadefine.h
xdata$x	ENDS
;	COMDAT ??0tagNewShopItemInfo@@QAE@XZ
_TEXT	SEGMENT
_this$ = -16						; size = 4
__$EHRec$ = -12						; size = 12
??0tagNewShopItemInfo@@QAE@XZ PROC			; tagNewShopItemInfo::tagNewShopItemInfo, COMDAT
; _this$ = ecx

; 78   : 	tagNewShopItemInfo()

  00000	6a 04		 push	 4
  00002	b8 00 00 00 00	 mov	 eax, __ehhandler$??0tagNewShopItemInfo@@QAE@XZ
  00007	e8 00 00 00 00	 call	 __EH_prolog3
  0000c	8b f1		 mov	 esi, ecx
  0000e	89 75 f0	 mov	 DWORD PTR _this$[ebp], esi
  00011	33 c0		 xor	 eax, eax
  00013	89 46 10	 mov	 DWORD PTR [esi+16], eax
  00016	89 46 14	 mov	 DWORD PTR [esi+20], eax
  00019	89 46 18	 mov	 DWORD PTR [esi+24], eax
  0001c	89 45 fc	 mov	 DWORD PTR __$EHRec$[ebp+8], eax
  0001f	89 46 20	 mov	 DWORD PTR [esi+32], eax
  00022	89 46 24	 mov	 DWORD PTR [esi+36], eax
  00025	89 46 28	 mov	 DWORD PTR [esi+40], eax
  00028	89 46 30	 mov	 DWORD PTR [esi+48], eax
  0002b	89 46 34	 mov	 DWORD PTR [esi+52], eax
  0002e	89 46 38	 mov	 DWORD PTR [esi+56], eax
  00031	89 46 40	 mov	 DWORD PTR [esi+64], eax
  00034	89 46 44	 mov	 DWORD PTR [esi+68], eax
  00037	89 46 48	 mov	 DWORD PTR [esi+72], eax
  0003a	89 46 58	 mov	 DWORD PTR [esi+88], eax
  0003d	89 46 5c	 mov	 DWORD PTR [esi+92], eax
  00040	89 46 60	 mov	 DWORD PTR [esi+96], eax
  00043	89 46 68	 mov	 DWORD PTR [esi+104], eax
  00046	89 46 6c	 mov	 DWORD PTR [esi+108], eax
  00049	89 46 70	 mov	 DWORD PTR [esi+112], eax
  0004c	89 86 84 00 00
	00		 mov	 DWORD PTR [esi+132], eax
  00052	89 86 88 00 00
	00		 mov	 DWORD PTR [esi+136], eax
  00058	89 86 8c 00 00
	00		 mov	 DWORD PTR [esi+140], eax
  0005e	89 86 98 00 00
	00		 mov	 DWORD PTR [esi+152], eax
  00064	89 86 9c 00 00
	00		 mov	 DWORD PTR [esi+156], eax
  0006a	89 86 a0 00 00
	00		 mov	 DWORD PTR [esi+160], eax
  00070	8b 3d 00 00 00
	00		 mov	 edi, DWORD PTR __imp_??0ioHashString@@QAE@XZ
  00076	8d 8e ac 00 00
	00		 lea	 ecx, DWORD PTR [esi+172]
  0007c	c6 45 fc 07	 mov	 BYTE PTR __$EHRec$[ebp+8], 7
  00080	ff d7		 call	 edi
  00082	8d 8e bc 00 00
	00		 lea	 ecx, DWORD PTR [esi+188]
  00088	c6 45 fc 08	 mov	 BYTE PTR __$EHRec$[ebp+8], 8
  0008c	ff d7		 call	 edi

; 79   : 	{
; 80   : 		Clear();

  0008e	8b ce		 mov	 ecx, esi
  00090	e8 00 00 00 00	 call	 ?Clear@tagNewShopItemInfo@@QAEXXZ ; tagNewShopItemInfo::Clear

; 81   : 	}

  00095	8b c6		 mov	 eax, esi
  00097	e8 00 00 00 00	 call	 __EH_epilog3
  0009c	c3		 ret	 0
_TEXT	ENDS
;	COMDAT text$x
text$x	SEGMENT
__unwindfunclet$??0tagNewShopItemInfo@@QAE@XZ$0:
  00000	8b 4d f0	 mov	 ecx, DWORD PTR _this$[ebp]
  00003	83 c1 10	 add	 ecx, 16			; 00000010H
  00006	e9 00 00 00 00	 jmp	 ??1?$vector@HV?$allocator@H@std@@@std@@QAE@XZ ; std::vector<int,std::allocator<int> >::~vector<int,std::allocator<int> >
__unwindfunclet$??0tagNewShopItemInfo@@QAE@XZ$1:
  0000b	8b 4d f0	 mov	 ecx, DWORD PTR _this$[ebp]
  0000e	83 c1 20	 add	 ecx, 32			; 00000020H
  00011	e9 00 00 00 00	 jmp	 ??1?$vector@HV?$allocator@H@std@@@std@@QAE@XZ ; std::vector<int,std::allocator<int> >::~vector<int,std::allocator<int> >
__unwindfunclet$??0tagNewShopItemInfo@@QAE@XZ$2:
  00016	8b 4d f0	 mov	 ecx, DWORD PTR _this$[ebp]
  00019	83 c1 30	 add	 ecx, 48			; 00000030H
  0001c	e9 00 00 00 00	 jmp	 ??1?$vector@HV?$allocator@H@std@@@std@@QAE@XZ ; std::vector<int,std::allocator<int> >::~vector<int,std::allocator<int> >
__unwindfunclet$??0tagNewShopItemInfo@@QAE@XZ$3:
  00021	8b 4d f0	 mov	 ecx, DWORD PTR _this$[ebp]
  00024	83 c1 40	 add	 ecx, 64			; 00000040H
  00027	e9 00 00 00 00	 jmp	 ??1?$vector@HV?$allocator@H@std@@@std@@QAE@XZ ; std::vector<int,std::allocator<int> >::~vector<int,std::allocator<int> >
__unwindfunclet$??0tagNewShopItemInfo@@QAE@XZ$4:
  0002c	8b 4d f0	 mov	 ecx, DWORD PTR _this$[ebp]
  0002f	83 c1 58	 add	 ecx, 88			; 00000058H
  00032	e9 00 00 00 00	 jmp	 ??1?$vector@HV?$allocator@H@std@@@std@@QAE@XZ ; std::vector<int,std::allocator<int> >::~vector<int,std::allocator<int> >
__unwindfunclet$??0tagNewShopItemInfo@@QAE@XZ$5:
  00037	8b 4d f0	 mov	 ecx, DWORD PTR _this$[ebp]
  0003a	83 c1 68	 add	 ecx, 104		; 00000068H
  0003d	e9 00 00 00 00	 jmp	 ??1?$vector@HV?$allocator@H@std@@@std@@QAE@XZ ; std::vector<int,std::allocator<int> >::~vector<int,std::allocator<int> >
__unwindfunclet$??0tagNewShopItemInfo@@QAE@XZ$6:
  00042	8b 4d f0	 mov	 ecx, DWORD PTR _this$[ebp]
  00045	81 c1 84 00 00
	00		 add	 ecx, 132		; 00000084H
  0004b	e9 00 00 00 00	 jmp	 ??1?$vector@HV?$allocator@H@std@@@std@@QAE@XZ ; std::vector<int,std::allocator<int> >::~vector<int,std::allocator<int> >
__unwindfunclet$??0tagNewShopItemInfo@@QAE@XZ$7:
  00050	8b 4d f0	 mov	 ecx, DWORD PTR _this$[ebp]
  00053	81 c1 98 00 00
	00		 add	 ecx, 152		; 00000098H
  00059	e9 00 00 00 00	 jmp	 ??1?$vector@HV?$allocator@H@std@@@std@@QAE@XZ ; std::vector<int,std::allocator<int> >::~vector<int,std::allocator<int> >
__unwindfunclet$??0tagNewShopItemInfo@@QAE@XZ$8:
  0005e	8b 4d f0	 mov	 ecx, DWORD PTR _this$[ebp]
  00061	81 c1 ac 00 00
	00		 add	 ecx, 172		; 000000acH
  00067	ff 25 00 00 00
	00		 jmp	 DWORD PTR __imp_??1ioHashString@@QAE@XZ
__ehhandler$??0tagNewShopItemInfo@@QAE@XZ:
  0006d	8b 54 24 08	 mov	 edx, DWORD PTR [esp+8]
  00071	8d 42 0c	 lea	 eax, DWORD PTR [edx+12]
  00074	8b 4a ec	 mov	 ecx, DWORD PTR [edx-20]
  00077	33 c8		 xor	 ecx, eax
  00079	e8 00 00 00 00	 call	 @__security_check_cookie@4
  0007e	b8 00 00 00 00	 mov	 eax, OFFSET __ehfuncinfo$??0tagNewShopItemInfo@@QAE@XZ
  00083	e9 00 00 00 00	 jmp	 ___CxxFrameHandler3
text$x	ENDS
??0tagNewShopItemInfo@@QAE@XZ ENDP			; tagNewShopItemInfo::tagNewShopItemInfo
PUBLIC	??0ShopItemInfoEX@@QAE@XZ			; ShopItemInfoEX::ShopItemInfoEX
; Function compile flags: /Ogsp
; File d:\lost saga for developer\youtube\tutorial\source\src\lsclient\gui\shopwndtabcontroller.h
;	COMDAT ??0ShopItemInfoEX@@QAE@XZ
_TEXT	SEGMENT
??0ShopItemInfoEX@@QAE@XZ PROC				; ShopItemInfoEX::ShopItemInfoEX, COMDAT
; _this$ = ecx

; 36   : 	ShopItemInfoEX() : NewShopItemInfo(), m_eventshoptype( EVENTSHOPITEM_TYPE_NONE ), m_itemcode( -1 ) {}

  00000	56		 push	 esi
  00001	8b f1		 mov	 esi, ecx
  00003	8d 4e 04	 lea	 ecx, DWORD PTR [esi+4]
  00006	e8 00 00 00 00	 call	 ??0tagNewShopItemInfo@@QAE@XZ ; tagNewShopItemInfo::tagNewShopItemInfo
  0000b	83 a6 d4 00 00
	00 00		 and	 DWORD PTR [esi+212], 0
  00012	83 8e d8 00 00
	00 ff		 or	 DWORD PTR [esi+216], -1
  00019	c7 06 00 00 00
	00		 mov	 DWORD PTR [esi], OFFSET ??_7ShopItemInfoEX@@6B@
  0001f	8b c6		 mov	 eax, esi
  00021	5e		 pop	 esi
  00022	c3		 ret	 0
??0ShopItemInfoEX@@QAE@XZ ENDP				; ShopItemInfoEX::ShopItemInfoEX
_TEXT	ENDS
PUBLIC	??0ShopBuyWnd@@QAE@XZ				; ShopBuyWnd::ShopBuyWnd
;	COMDAT xdata$x
; File d:\lost saga for developer\youtube\tutorial\source\src\lsclient\gui\shopbuywnd.cpp
xdata$x	SEGMENT
__unwindtable$??0ShopBuyWnd@@QAE@XZ DD 0ffffffffH
	DD	FLAT:__unwindfunclet$??0ShopBuyWnd@@QAE@XZ$0
__ehfuncinfo$??0ShopBuyWnd@@QAE@XZ DD 019930522H
	DD	01H
	DD	FLAT:__unwindtable$??0ShopBuyWnd@@QAE@XZ
	DD	2 DUP(00H)
	DD	2 DUP(00H)
	DD	00H
	DD	01H
; Function compile flags: /Ogsp
xdata$x	ENDS
;	COMDAT ??0ShopBuyWnd@@QAE@XZ
_TEXT	SEGMENT
_this$ = -16						; size = 4
__$EHRec$ = -12						; size = 12
??0ShopBuyWnd@@QAE@XZ PROC				; ShopBuyWnd::ShopBuyWnd, COMDAT
; _this$ = ecx

; 23   : {

  00000	6a 04		 push	 4
  00002	b8 00 00 00 00	 mov	 eax, __ehhandler$??0ShopBuyWnd@@QAE@XZ
  00007	e8 00 00 00 00	 call	 __EH_prolog3
  0000c	8b f1		 mov	 esi, ecx
  0000e	89 75 f0	 mov	 DWORD PTR _this$[ebp], esi
  00011	e8 00 00 00 00	 call	 ??0ShopBuyWndBase@@QAE@XZ ; ShopBuyWndBase::ShopBuyWndBase
  00016	83 65 fc 00	 and	 DWORD PTR __$EHRec$[ebp+8], 0
  0001a	8d 8e 9c 01 00
	00		 lea	 ecx, DWORD PTR [esi+412]
  00020	c7 06 00 00 00
	00		 mov	 DWORD PTR [esi], OFFSET ??_7ShopBuyWnd@@6B@
  00026	e8 00 00 00 00	 call	 ??0ShopItemInfoEX@@QAE@XZ ; ShopItemInfoEX::ShopItemInfoEX

; 24   : }

  0002b	8b c6		 mov	 eax, esi
  0002d	e8 00 00 00 00	 call	 __EH_epilog3
  00032	c3		 ret	 0
_TEXT	ENDS
;	COMDAT text$x
text$x	SEGMENT
__unwindfunclet$??0ShopBuyWnd@@QAE@XZ$0:
  00000	8b 4d f0	 mov	 ecx, DWORD PTR _this$[ebp]
  00003	e9 00 00 00 00	 jmp	 ??1ShopBuyWndBase@@UAE@XZ ; ShopBuyWndBase::~ShopBuyWndBase
__ehhandler$??0ShopBuyWnd@@QAE@XZ:
  00008	8b 54 24 08	 mov	 edx, DWORD PTR [esp+8]
  0000c	8d 42 0c	 lea	 eax, DWORD PTR [edx+12]
  0000f	8b 4a ec	 mov	 ecx, DWORD PTR [edx-20]
  00012	33 c8		 xor	 ecx, eax
  00014	e8 00 00 00 00	 call	 @__security_check_cookie@4
  00019	b8 00 00 00 00	 mov	 eax, OFFSET __ehfuncinfo$??0ShopBuyWnd@@QAE@XZ
  0001e	e9 00 00 00 00	 jmp	 ___CxxFrameHandler3
text$x	ENDS
??0ShopBuyWnd@@QAE@XZ ENDP				; ShopBuyWnd::ShopBuyWnd
; Function compile flags: /Ogsp
;	COMDAT ??_GShopBuyWnd@@UAEPAXI@Z
_TEXT	SEGMENT
___flags$ = 8						; size = 4
??_GShopBuyWnd@@UAEPAXI@Z PROC				; ShopBuyWnd::`scalar deleting destructor', COMDAT
; _this$ = ecx
  00000	55		 push	 ebp
  00001	8b ec		 mov	 ebp, esp
  00003	56		 push	 esi
  00004	8b f1		 mov	 esi, ecx
  00006	e8 00 00 00 00	 call	 ??1ShopBuyWnd@@UAE@XZ	; ShopBuyWnd::~ShopBuyWnd
  0000b	f6 45 08 01	 test	 BYTE PTR ___flags$[ebp], 1
  0000f	74 07		 je	 SHORT $LN1@scalar@6
  00011	56		 push	 esi
  00012	e8 00 00 00 00	 call	 ??3@YAXPAX@Z		; operator delete
  00017	59		 pop	 ecx
$LN1@scalar@6:
  00018	8b c6		 mov	 eax, esi
  0001a	5e		 pop	 esi
  0001b	5d		 pop	 ebp
  0001c	c2 04 00	 ret	 4
??_GShopBuyWnd@@UAEPAXI@Z ENDP				; ShopBuyWnd::`scalar deleting destructor'
_TEXT	ENDS
PUBLIC	??4ShopItemInfoEX@@QAEAAV0@ABV0@@Z		; ShopItemInfoEX::operator=
; Function compile flags: /Ogsp
;	COMDAT ??4ShopItemInfoEX@@QAEAAV0@ABV0@@Z
_TEXT	SEGMENT
___that$ = 8						; size = 4
??4ShopItemInfoEX@@QAEAAV0@ABV0@@Z PROC			; ShopItemInfoEX::operator=, COMDAT
; _this$ = ecx
  00000	55		 push	 ebp
  00001	8b ec		 mov	 ebp, esp
  00003	56		 push	 esi
  00004	57		 push	 edi
  00005	8b 7d 08	 mov	 edi, DWORD PTR ___that$[ebp]
  00008	8b f1		 mov	 esi, ecx
  0000a	85 ff		 test	 edi, edi
  0000c	74 05		 je	 SHORT $LN3@operator@2
  0000e	8d 47 04	 lea	 eax, DWORD PTR [edi+4]
  00011	eb 02		 jmp	 SHORT $LN4@operator@2
$LN3@operator@2:
  00013	33 c0		 xor	 eax, eax
$LN4@operator@2:
  00015	50		 push	 eax
  00016	8d 4e 04	 lea	 ecx, DWORD PTR [esi+4]
  00019	e8 00 00 00 00	 call	 ??4tagNewShopItemInfo@@QAEAAU0@ABU0@@Z
  0001e	8b 87 d4 00 00
	00		 mov	 eax, DWORD PTR [edi+212]
  00024	89 86 d4 00 00
	00		 mov	 DWORD PTR [esi+212], eax
  0002a	8b 87 d8 00 00
	00		 mov	 eax, DWORD PTR [edi+216]
  00030	89 86 d8 00 00
	00		 mov	 DWORD PTR [esi+216], eax
  00036	5f		 pop	 edi
  00037	8b c6		 mov	 eax, esi
  00039	5e		 pop	 esi
  0003a	5d		 pop	 ebp
  0003b	c2 04 00	 ret	 4
??4ShopItemInfoEX@@QAEAAV0@ABV0@@Z ENDP			; ShopItemInfoEX::operator=
_TEXT	ENDS
PUBLIC	??_C@_0BI@BJHDJMON@ShopBuyWnd?3?3SetItemInfo?$AA@ ; `string'
PUBLIC	??_C@_00CNPNBAHC@?$AA@				; `string'
PUBLIC	??_C@_03KBEJNOIH@?$CFs?$CD?$AA@			; `string'
PUBLIC	?SetItemInfo@ShopBuyWnd@@QAEXABVShopItemInfoEX@@@Z ; ShopBuyWnd::SetItemInfo
EXTRN	__imp_?GetString@ioStringManager@@QAEPADPBD0HW4FileNamePrefix@1@@Z:PROC
EXTRN	__imp_?GetSingleton@ioStringManager@@SAAAV1@XZ:PROC
EXTRN	__imp_?Format@@YAPBDPBDZZ:PROC
EXTRN	__imp_??0ioHashString@@QAE@ABV0@@Z:PROC
EXTRN	?GetPresentValue2Text@ioPresentMgr@@QAEABVioHashString@@FHH@Z:PROC ; ioPresentMgr::GetPresentValue2Text
EXTRN	?GetSingleton@ioPresentMgr@@SAAAV1@XZ:PROC	; ioPresentMgr::GetSingleton
EXTRN	__imp_?AddText@ioRichLabel@@QAEXHW4TextStyle@@KPBD_N@Z:PROC
EXTRN	__imp_?ClearText@ioRichLabel@@QAEXXZ:PROC
EXTRN	__imp_?SetImageSet@ioImageWndEX@@QAEXPBD@Z:PROC
EXTRN	__imp_?c_str@ioHashString@@QBEPBDXZ:PROC
;	COMDAT ??_C@_0BI@BJHDJMON@ShopBuyWnd?3?3SetItemInfo?$AA@
CONST	SEGMENT
??_C@_0BI@BJHDJMON@ShopBuyWnd?3?3SetItemInfo?$AA@ DB 'ShopBuyWnd::SetItem'
	DB	'Info', 00H					; `string'
CONST	ENDS
;	COMDAT ??_C@_00CNPNBAHC@?$AA@
CONST	SEGMENT
??_C@_00CNPNBAHC@?$AA@ DB 00H				; `string'
CONST	ENDS
;	COMDAT ??_C@_03KBEJNOIH@?$CFs?$CD?$AA@
CONST	SEGMENT
??_C@_03KBEJNOIH@?$CFs?$CD?$AA@ DB '%s#', 00H		; `string'
CONST	ENDS
;	COMDAT xdata$x
xdata$x	SEGMENT
__unwindtable$?SetItemInfo@ShopBuyWnd@@QAEXABVShopItemInfoEX@@@Z DD 0ffffffffH
	DD	FLAT:__unwindfunclet$?SetItemInfo@ShopBuyWnd@@QAEXABVShopItemInfoEX@@@Z$0
__ehfuncinfo$?SetItemInfo@ShopBuyWnd@@QAEXABVShopItemInfoEX@@@Z DD 019930522H
	DD	01H
	DD	FLAT:__unwindtable$?SetItemInfo@ShopBuyWnd@@QAEXABVShopItemInfoEX@@@Z
	DD	2 DUP(00H)
	DD	2 DUP(00H)
	DD	00H
	DD	01H
; Function compile flags: /Ogsp
xdata$x	ENDS
;	COMDAT ?SetItemInfo@ShopBuyWnd@@QAEXABVShopItemInfoEX@@@Z
_TEXT	SEGMENT
_desc$509993 = -28					; size = 16
__$EHRec$ = -12						; size = 12
_info$ = 8						; size = 4
?SetItemInfo@ShopBuyWnd@@QAEXABVShopItemInfoEX@@@Z PROC	; ShopBuyWnd::SetItemInfo, COMDAT
; _this$ = ecx

; 35   : {

  00000	6a 10		 push	 16			; 00000010H
  00002	b8 00 00 00 00	 mov	 eax, __ehhandler$?SetItemInfo@ShopBuyWnd@@QAEXABVShopItemInfoEX@@@Z
  00007	e8 00 00 00 00	 call	 __EH_prolog3
  0000c	8b f1		 mov	 esi, ecx

; 36   : 	m_iteminfo = info;

  0000e	ff 75 08	 push	 DWORD PTR _info$[ebp]
  00011	8d 8e 9c 01 00
	00		 lea	 ecx, DWORD PTR [esi+412]
  00017	e8 00 00 00 00	 call	 ??4ShopItemInfoEX@@QAEAAV0@ABV0@@Z

; 37   : 
; 38   : 	if ( m_iconimg ) {

  0001c	83 be 88 01 00
	00 00		 cmp	 DWORD PTR [esi+392], 0
  00023	74 19		 je	 SHORT $LN3@SetItemInf

; 39   : 		m_iconimg->SetImageSet( m_iteminfo.m_sIcon.c_str() );

  00025	8d 8e 5c 02 00
	00		 lea	 ecx, DWORD PTR [esi+604]
  0002b	ff 15 00 00 00
	00		 call	 DWORD PTR __imp_?c_str@ioHashString@@QBEPBDXZ
  00031	8b 8e 88 01 00
	00		 mov	 ecx, DWORD PTR [esi+392]
  00037	50		 push	 eax
  00038	ff 15 00 00 00
	00		 call	 DWORD PTR __imp_?SetImageSet@ioImageWndEX@@QAEXPBD@Z
$LN3@SetItemInf:

; 40   : 	}
; 41   : 
; 42   : 	if ( m_namerich )

  0003e	8b 8e 94 01 00
	00		 mov	 ecx, DWORD PTR [esi+404]
  00044	8b 3d 00 00 00
	00		 mov	 edi, DWORD PTR __imp_?ClearText@ioRichLabel@@QAEXXZ
  0004a	8b 1d 00 00 00
	00		 mov	 ebx, DWORD PTR __imp_?AddText@ioRichLabel@@QAEXHW4TextStyle@@KPBD_N@Z
  00050	85 c9		 test	 ecx, ecx
  00052	74 68		 je	 SHORT $LN2@SetItemInf

; 43   : 	{
; 44   : 		m_namerich->ClearText();

  00054	ff d7		 call	 edi

; 45   : 		
; 46   : 		ioHashString desc = g_PresentMgr.GetPresentValue2Text( m_iteminfo.m_iValue0, m_iteminfo.m_iValue1, m_iteminfo.m_iValue2 );

  00056	ff b6 20 02 00
	00		 push	 DWORD PTR [esi+544]
  0005c	0f b7 86 18 02
	00 00		 movzx	 eax, WORD PTR [esi+536]
  00063	ff b6 1c 02 00
	00		 push	 DWORD PTR [esi+540]
  00069	50		 push	 eax
  0006a	e8 00 00 00 00	 call	 ?GetSingleton@ioPresentMgr@@SAAAV1@XZ ; ioPresentMgr::GetSingleton
  0006f	8b c8		 mov	 ecx, eax
  00071	e8 00 00 00 00	 call	 ?GetPresentValue2Text@ioPresentMgr@@QAEABVioHashString@@FHH@Z ; ioPresentMgr::GetPresentValue2Text
  00076	50		 push	 eax
  00077	8d 4d e4	 lea	 ecx, DWORD PTR _desc$509993[ebp]
  0007a	ff 15 00 00 00
	00		 call	 DWORD PTR __imp_??0ioHashString@@QAE@ABV0@@Z
  00080	83 65 fc 00	 and	 DWORD PTR __$EHRec$[ebp+8], 0

; 47   : 		m_namerich->AddText( 17, TS_NORMAL, 0xFF000000, Format( "%s#", desc.c_str() ) );

  00084	6a 01		 push	 1
  00086	8d 4d e4	 lea	 ecx, DWORD PTR _desc$509993[ebp]
  00089	ff 15 00 00 00
	00		 call	 DWORD PTR __imp_?c_str@ioHashString@@QBEPBDXZ
  0008f	50		 push	 eax
  00090	68 00 00 00 00	 push	 OFFSET ??_C@_03KBEJNOIH@?$CFs?$CD?$AA@
  00095	ff 15 00 00 00
	00		 call	 DWORD PTR __imp_?Format@@YAPBDPBDZZ
  0009b	59		 pop	 ecx
  0009c	59		 pop	 ecx
  0009d	8b 8e 94 01 00
	00		 mov	 ecx, DWORD PTR [esi+404]
  000a3	50		 push	 eax
  000a4	68 00 00 00 ff	 push	 -16777216		; ff000000H
  000a9	6a 00		 push	 0
  000ab	6a 11		 push	 17			; 00000011H
  000ad	ff d3		 call	 ebx

; 48   : 
; 49   : 	//	switch( m_iteminfo.m_iItemType )
; 50   : 	//	{
; 51   : 	//	case PRESENT_SOLDIER:
; 52   : 	//		break;
; 53   : 
; 54   : 	//	case PRESENT_DECORATION:
; 55   : 	//		{
; 56   : 	//			int sextype = 0;
; 57   : 	//			if ( !m_iteminfo.m_vValue3.empty() ) {
; 58   : 	//				sextype = m_iteminfo.m_vValue3[ 0 ];
; 59   : 	//			}
; 60   : 	//			const DecoData& decodata = g_DecorationPrice.GetDecoData( sextype, m_iteminfo.m_iValue1, m_iteminfo.m_iValue2 );
; 61   : 
; 62   : 	//			decodata.
; 63   : 
; 64   : 	//			szReturn = kData.m_szName;
; 65   : 	//		}
; 66   : 	//		break;
; 67   : 
; 68   : 	//	case PRESENT_ETC_ITEM:
; 69   : 	//		{
; 70   : 	//			ioEtcItem *pEtcItem = g_EtcItemMgr.FindEtcItem( iPresentValue1 );
; 71   : 	//			if( !pEtcItem )
; 72   : 	//				szReturn = "None";
; 73   : 	//			else
; 74   : 	//				szReturn = pEtcItem->GetName();
; 75   : 	//		}
; 76   : 	//		break;
; 77   : 
; 78   : 	//	case PRESENT_EXTRAITEM:
; 79   : 	//		{
; 80   : 	//			const ioItem *pItem = g_ItemMaker.GetItemConst( iPresentValue1, __FUNCTION__ );
; 81   : 	//			if( pItem )	
; 82   : 	//				szReturn = pItem->GetName();
; 83   : 	//			else
; 84   : 	//				szReturn = "None";
; 85   : 	//		}
; 86   : 	//		break;
; 87   : 
; 88   : 	//	case PRESENT_EXTRAITEM_BOX:
; 89   : 	//		{
; 90   : 	//			RandomMachineInfo *pInfo = g_ExtraItemInfoMgr.GetRandomMachineInfo( iPresentValue1 );
; 91   : 	//			if( pInfo )
; 92   : 	//				szReturn = pInfo->GetName();
; 93   : 	//			else
; 94   : 	//				szReturn = "None";
; 95   : 	//		}
; 96   : 	//		break;
; 97   : 
; 98   : 	//	case PRESENT_RANDOM_DECO:
; 99   : 	//		{
; 100  : 	//			int iClassType = iPresentValue1 / 100000;
; 101  : 	//			int iSexType   = (iPresentValue1 % 100000) / FLOAT1000;
; 102  : 	//			int iDecoType  = iPresentValue1 % 1000;
; 103  : 	//			const DecoData &kData = g_DecorationPrice.GetDecoData( iSexType, iDecoType, iPresentValue2 );
; 104  : 
; 105  : 	//			char szTemp[MAX_PATH] = "";
; 106  : 	//			if( iDecoType == UID_KINDRED )
; 107  : 	//			{
; 108  : 	//				SafeSprintf( szTemp, sizeof( szTemp), STR(2), kData.m_szName.c_str() );
; 109  : 	//			}
; 110  : 	//			else
; 111  : 	//			{
; 112  : 	//				if( iSexType == 0 )
; 113  : 	//					SafeSprintf( szTemp, sizeof( szTemp), STR(3), kData.m_szName.c_str() );
; 114  : 	//				else
; 115  : 	//					SafeSprintf( szTemp, sizeof( szTemp), STR(4), kData.m_szName.c_str() );
; 116  : 	//			}
; 117  : 
; 118  : 	//			szReturn = szTemp;
; 119  : 	//		}
; 120  : 	//		break;
; 121  : 
; 122  : 	//	case PRESENT_GRADE_EXP:
; 123  : 	//		{
; 124  : 	//			szReturn = STR(5);
; 125  : 	//		}
; 126  : 	//		break;
; 127  : 
; 128  : 	//	case PRESENT_MEDALITEM:
; 129  : 	//		{
; 130  : 	//			const ioMedalItemInfoManager::ItemInfo *pItem = g_MedalItemMgr.GetItemInfo( iPresentValue1 );
; 131  : 	//			if( pItem )	
; 132  : 	//				szReturn = pItem->m_sName;
; 133  : 	//			else
; 134  : 	//				szReturn = "None";
; 135  : 	//		}
; 136  : 	//		break;
; 137  : 
; 138  : 	//	case PRESENT_ALCHEMIC_ITEM:
; 139  : 	//		{
; 140  : 	//			if( iPresentValue1 > ALCHEMIC_ADDITIVE_DIV )
; 141  : 	//				szReturn = g_AlchemicMgr.GetAlchemicItemName(iPresentValue1);
; 142  : 	//			else
; 143  : 	//			{
; 144  : 	//				//szReturn = "";
; 145  : 	//				char szBuf[MAX_PATH] = "";
; 146  : 	//				wsprintf_e( szBuf, "%s ", g_MyInfo.GetClassName(iPresentValue1-1) );
; 147  : 	//				szReturn = szBuf;
; 148  : 	//			}
; 149  : 	//		}
; 150  : 	//		break;
; 151  : 	//	}
; 152  : 
; 153  : 	//	switch ( m_iteminfo.m_iItemType )
; 154  : 	//	{
; 155  : 	//	case PRESENT_SOLDIER:
; 156  : 	//		m_namerich->AddText( 17, TS_NORMAL, 0xFF000000, Format( "%s#", m_iteminfo.m_sName.c_str() ) );
; 157  : 	//		m_namerich->AddText( 17, TS_NORMAL, 0xFF000000, Format( "%s#", m_iteminfo.m_sName.c_str() ) );
; 158  : 	//		m_namerich->AddText( 17, TS_NORMAL, 0xFF000000, Format( "%s#", m_iteminfo.m_sName.c_str() ) );
; 159  : 	//		break;
; 160  : 
; 161  : 	//	case PRESENT_DECORATION:
; 162  : 	//PRESENT_ETC_ITEM           = 3,
; 163  : 	//PRESENT_PESO               = 4,
; 164  : 	//PRESENT_EXTRAITEM          = 5,
; 165  : 	//PRESENT_EXTRAITEM_BOX      = 6,
; 166  : 	//PRESENT_RANDOM_DECO		   = 7,
; 167  : 	//PRESENT_GRADE_EXP          = 8,
; 168  : 	//PRESENT_MEDALITEM          = 9,
; 169  : 	//PRESENT_ALCHEMIC_ITEM	   = 10,
; 170  : 	//PRESENT_MAX				   = 11,
; 171  : 		
; 172  : 	}

  000af	83 4d fc ff	 or	 DWORD PTR __$EHRec$[ebp+8], -1
  000b3	8d 4d e4	 lea	 ecx, DWORD PTR _desc$509993[ebp]
  000b6	ff 15 00 00 00
	00		 call	 DWORD PTR __imp_??1ioHashString@@QAE@XZ
$LN2@SetItemInf:

; 173  : 
; 174  : 	if ( m_descrich )

  000bc	8b 8e 90 01 00
	00		 mov	 ecx, DWORD PTR [esi+400]
  000c2	85 c9		 test	 ecx, ecx
  000c4	74 32		 je	 SHORT $LN1@SetItemInf

; 175  : 	{
; 176  : 		m_descrich->ClearText();

  000c6	ff d7		 call	 edi

; 177  : 		m_descrich->AddText( 12, TS_NORMAL, 0xFF0F0F0F, STR(1) );

  000c8	6a 01		 push	 1
  000ca	6a 00		 push	 0
  000cc	6a 01		 push	 1
  000ce	68 00 00 00 00	 push	 OFFSET ??_C@_00CNPNBAHC@?$AA@
  000d3	68 00 00 00 00	 push	 OFFSET ??_C@_0BI@BJHDJMON@ShopBuyWnd?3?3SetItemInfo?$AA@
  000d8	ff 15 00 00 00
	00		 call	 DWORD PTR __imp_?GetSingleton@ioStringManager@@SAAAV1@XZ
  000de	8b c8		 mov	 ecx, eax
  000e0	ff 15 00 00 00
	00		 call	 DWORD PTR __imp_?GetString@ioStringManager@@QAEPADPBD0HW4FileNamePrefix@1@@Z
  000e6	8b 8e 90 01 00
	00		 mov	 ecx, DWORD PTR [esi+400]
  000ec	50		 push	 eax
  000ed	68 0f 0f 0f ff	 push	 -15790321		; ff0f0f0fH
  000f2	6a 00		 push	 0
  000f4	6a 0c		 push	 12			; 0000000cH
  000f6	ff d3		 call	 ebx
$LN1@SetItemInf:

; 178  : 	}
; 179  : }

  000f8	e8 00 00 00 00	 call	 __EH_epilog3
  000fd	c2 04 00	 ret	 4
_TEXT	ENDS
;	COMDAT text$x
text$x	SEGMENT
__unwindfunclet$?SetItemInfo@ShopBuyWnd@@QAEXABVShopItemInfoEX@@@Z$0:
  00000	8d 4d e4	 lea	 ecx, DWORD PTR _desc$509993[ebp]
  00003	ff 25 00 00 00
	00		 jmp	 DWORD PTR __imp_??1ioHashString@@QAE@XZ
__ehhandler$?SetItemInfo@ShopBuyWnd@@QAEXABVShopItemInfoEX@@@Z:
  00009	8b 54 24 08	 mov	 edx, DWORD PTR [esp+8]
  0000d	8d 42 0c	 lea	 eax, DWORD PTR [edx+12]
  00010	8b 4a e0	 mov	 ecx, DWORD PTR [edx-32]
  00013	33 c8		 xor	 ecx, eax
  00015	e8 00 00 00 00	 call	 @__security_check_cookie@4
  0001a	b8 00 00 00 00	 mov	 eax, OFFSET __ehfuncinfo$?SetItemInfo@ShopBuyWnd@@QAEXABVShopItemInfoEX@@@Z
  0001f	e9 00 00 00 00	 jmp	 ___CxxFrameHandler3
text$x	ENDS
?SetItemInfo@ShopBuyWnd@@QAEXABVShopItemInfoEX@@@Z ENDP	; ShopBuyWnd::SetItemInfo
END
