; Listing generated by Microsoft (R) Optimizing Compiler Version 16.00.30319.01 

	TITLE	D:\Lost Saga For Developer\Youtube\Tutorial\Source\src\LSClient\GUI\ShuffleToolTip.cpp
	.686P
	.XMM
	include listing.inc
	.model	flat

INCLUDELIB MSVCRT
INCLUDELIB OLDNAMES

PUBLIC	??_7ShuffleToolTip@@6B@				; ShuffleToolTip::`vftable'
PUBLIC	??0ShuffleToolTip@@QAE@XZ			; ShuffleToolTip::ShuffleToolTip
PUBLIC	??_R4ShuffleToolTip@@6B@			; ShuffleToolTip::`RTTI Complete Object Locator'
PUBLIC	??_R0?AVShuffleToolTip@@@8			; ShuffleToolTip `RTTI Type Descriptor'
PUBLIC	??_R3ShuffleToolTip@@8				; ShuffleToolTip::`RTTI Class Hierarchy Descriptor'
PUBLIC	??_R2ShuffleToolTip@@8				; ShuffleToolTip::`RTTI Base Class Array'
PUBLIC	??_R1A@?0A@EA@ShuffleToolTip@@8			; ShuffleToolTip::`RTTI Base Class Descriptor at (0,-1,0,64)'
PUBLIC	??_R1A@?0A@EA@ioWnd@@8				; ioWnd::`RTTI Base Class Descriptor at (0,-1,0,64)'
PUBLIC	??_R0?AVioWnd@@@8				; ioWnd `RTTI Type Descriptor'
PUBLIC	??_R3ioWnd@@8					; ioWnd::`RTTI Class Hierarchy Descriptor'
PUBLIC	??_R2ioWnd@@8					; ioWnd::`RTTI Base Class Array'
PUBLIC	?OnProcess@ShuffleToolTip@@MAEXM@Z		; ShuffleToolTip::OnProcess
PUBLIC	?iwm_show@ShuffleToolTip@@UAEXXZ		; ShuffleToolTip::iwm_show
PUBLIC	?iwm_hide@ShuffleToolTip@@UAEXXZ		; ShuffleToolTip::iwm_hide
EXTRN	__imp_??0ioWnd@@QAE@XZ:PROC
EXTRN	??_7type_info@@6B@:QWORD			; type_info::`vftable'
EXTRN	?AddRenderFrame@ioWnd@@UAEXABVioHashString@@PAVioUIRenderFrame@@@Z:PROC ; ioWnd::AddRenderFrame
EXTRN	?AddRenderImage@ioWnd@@UAEXABVioHashString@@PAVioUIRenderImage@@@Z:PROC ; ioWnd::AddRenderImage
EXTRN	?AddTooltipHelp@ioWnd@@UAEXABVioHashString@@00@Z:PROC ; ioWnd::AddTooltipHelp
EXTRN	?ParseExtraInfo@ioWnd@@UAEXAAVioXMLElement@@@Z:PROC ; ioWnd::ParseExtraInfo
EXTRN	?AddNamedRenderImage@ioWnd@@UAEXABVioHashString@@PAVioUIRenderImage@@@Z:PROC ; ioWnd::AddNamedRenderImage
EXTRN	?RemoveNamedRenderImage@ioWnd@@UAEXABVioHashString@@@Z:PROC ; ioWnd::RemoveNamedRenderImage
EXTRN	?GetNamedRenderImage@ioWnd@@UBEPAVioUIRenderImage@@ABVioHashString@@@Z:PROC ; ioWnd::GetNamedRenderImage
EXTRN	?SetWindowAlpha@ioWnd@@UAEXH@Z:PROC		; ioWnd::SetWindowAlpha
EXTRN	?SetActive@ioWnd@@UAEXXZ:PROC			; ioWnd::SetActive
EXTRN	?SetInActive@ioWnd@@UAEXXZ:PROC			; ioWnd::SetInActive
EXTRN	?ClearElementImageList@ioWnd@@UAEXXZ:PROC	; ioWnd::ClearElementImageList
EXTRN	?SetSize@ioWnd@@UAEXHH@Z:PROC			; ioWnd::SetSize
EXTRN	?SetPositionToDefault@ioWnd@@UAEXHH_N0@Z:PROC	; ioWnd::SetPositionToDefault
EXTRN	?IsNeedProcess@ioWnd@@UBE_NXZ:PROC		; ioWnd::IsNeedProcess
EXTRN	?IsCanMouseReaction@ioWnd@@UBE_NXZ:PROC		; ioWnd::IsCanMouseReaction
EXTRN	?AddChild@ioWnd@@UAEXPAV1@@Z:PROC		; ioWnd::AddChild
EXTRN	?DeleteChild@ioWnd@@UAEXK@Z:PROC		; ioWnd::DeleteChild
EXTRN	?DeleteAllChild@ioWnd@@UAEXXZ:PROC		; ioWnd::DeleteAllChild
EXTRN	?OnRenderShowAndHide@ioWnd@@MAE_NXZ:PROC	; ioWnd::OnRenderShowAndHide
EXTRN	?OnRenderShowAndHideByDefault@ioWnd@@MAE_NK@Z:PROC ; ioWnd::OnRenderShowAndHideByDefault
EXTRN	?OnRenderShowAndHideByTop@ioWnd@@MAE_NK@Z:PROC	; ioWnd::OnRenderShowAndHideByTop
EXTRN	?OnRenderShowAndHideByDown@ioWnd@@MAE_NK@Z:PROC	; ioWnd::OnRenderShowAndHideByDown
EXTRN	?OnRender@ioWnd@@MAEXXZ:PROC			; ioWnd::OnRender
EXTRN	?OnRenderAfterChild@ioWnd@@MAEXXZ:PROC		; ioWnd::OnRenderAfterChild
EXTRN	?OnMouseProcess@ioWnd@@MAEXABVioMouse@@@Z:PROC	; ioWnd::OnMouseProcess
EXTRN	?CheckFrameReSize@ioWnd@@MAEXHHHH@Z:PROC	; ioWnd::CheckFrameReSize
EXTRN	?RenderImageList@ioWnd@@MAEXHHW4UIRenderType@@@Z:PROC ; ioWnd::RenderImageList
EXTRN	?iwm_create@ioWnd@@UAEXXZ:PROC			; ioWnd::iwm_create
EXTRN	?iwm_destroy@ioWnd@@UAEXXZ:PROC			; ioWnd::iwm_destroy
EXTRN	?iwm_lbuttondown@ioWnd@@UAEXABVioMouse@@@Z:PROC	; ioWnd::iwm_lbuttondown
EXTRN	?iwm_lbuttonup@ioWnd@@UAEXABVioMouse@@@Z:PROC	; ioWnd::iwm_lbuttonup
EXTRN	?iwm_lbuttonDBLCLK@ioWnd@@UAEXABVioMouse@@@Z:PROC ; ioWnd::iwm_lbuttonDBLCLK
EXTRN	?iwm_rbuttondown@ioWnd@@UAEXABVioMouse@@@Z:PROC	; ioWnd::iwm_rbuttondown
EXTRN	?iwm_rbuttonup@ioWnd@@UAEXABVioMouse@@@Z:PROC	; ioWnd::iwm_rbuttonup
EXTRN	?iwm_command@ioWnd@@UAEXPAV1@HK@Z:PROC		; ioWnd::iwm_command
EXTRN	?iwm_mouseover@ioWnd@@UAEXABVioMouse@@@Z:PROC	; ioWnd::iwm_mouseover
EXTRN	?iwm_mousemove@ioWnd@@UAEXABVioMouse@@@Z:PROC	; ioWnd::iwm_mousemove
EXTRN	?iwm_mouseleave@ioWnd@@UAEXABVioMouse@@@Z:PROC	; ioWnd::iwm_mouseleave
EXTRN	?iwm_vscroll@ioWnd@@UAEXKH@Z:PROC		; ioWnd::iwm_vscroll
EXTRN	?iwm_wheel@ioWnd@@UAEXH@Z:PROC			; ioWnd::iwm_wheel
EXTRN	?iwm_esc@ioWnd@@UAE_NXZ:PROC			; ioWnd::iwm_esc
EXTRN	?iwm_spacebar@ioWnd@@UAE_NXZ:PROC		; ioWnd::iwm_spacebar
EXTRN	?iwm_gototop@ioWnd@@UAEXXZ:PROC			; ioWnd::iwm_gototop
EXTRN	?iwm_dragenter@ioWnd@@UAE?AW4IWDropEffect@@PAVioDragItem@@ABVioMouse@@@Z:PROC ; ioWnd::iwm_dragenter
EXTRN	?iwm_dragover@ioWnd@@UAE?AW4IWDropEffect@@PAVioDragItem@@ABVioMouse@@@Z:PROC ; ioWnd::iwm_dragover
EXTRN	?iwm_dragleave@ioWnd@@UAEXXZ:PROC		; ioWnd::iwm_dragleave
EXTRN	?iwm_dropitem@ioWnd@@UAE_NPAVioDragItem@@ABVioMouse@@PAV1@@Z:PROC ; ioWnd::iwm_dropitem
EXTRN	?iwm_dropdone@ioWnd@@UAEXPAVioDragItem@@PAV1@_N@Z:PROC ; ioWnd::iwm_dropdone
EXTRN	?IsEXType@ioWnd@@UBE_NXZ:PROC			; ioWnd::IsEXType
EXTRN	?GetWndType@ioWnd@@UBEKXZ:PROC			; ioWnd::GetWndType
EXTRN	?RenderWnd@ioWnd@@UAEXXZ:PROC			; ioWnd::RenderWnd
EXTRN	?SetIDEX@ioWnd@@UAEXAAK_N@Z:PROC		; ioWnd::SetIDEX
EXTRN	?ParseXML@ioWnd@@UAEXAAVioXMLElement@@@Z:PROC	; ioWnd::ParseXML
EXTRN	?GetHeaderFileName@ioWnd@@UAEPBDXZ:PROC		; ioWnd::GetHeaderFileName
EXTRN	?GetTemplateName@ioWnd@@UAEPBDXZ:PROC		; ioWnd::GetTemplateName
EXTRN	?GetDefClassName@ioWnd@@UBEPBDXZ:PROC		; ioWnd::GetDefClassName
EXTRN	?_Clone@ioWnd@@UAEPAV1@XZ:PROC			; ioWnd::_Clone
EXTRN	?Copy@ioWnd@@UAEXPAV1@@Z:PROC			; ioWnd::Copy
EXTRN	?Save@ioWnd@@UAE_NAAVioXMLElement@@@Z:PROC	; ioWnd::Save
EXTRN	?SetSaveData@ioWnd@@UAEXAAVioXMLElement@@@Z:PROC ; ioWnd::SetSaveData
EXTRN	?SetPosX@ioWnd@@UAEXH@Z:PROC			; ioWnd::SetPosX
EXTRN	?SetPosY@ioWnd@@UAEXH@Z:PROC			; ioWnd::SetPosY
EXTRN	?SetWidth@ioWnd@@UAEXH@Z:PROC			; ioWnd::SetWidth
EXTRN	?SetHeight@ioWnd@@UAEXH@Z:PROC			; ioWnd::SetHeight
EXTRN	?GetNumFixedRenderFrame@ioWnd@@UBEHXZ:PROC	; ioWnd::GetNumFixedRenderFrame
EXTRN	?GetFixedRenderFrameType@ioWnd@@UAEPBDH@Z:PROC	; ioWnd::GetFixedRenderFrameType
EXTRN	?GetRenderFrame@ioWnd@@UAEPAPAVioUIRenderElement@@PBD@Z:PROC ; ioWnd::GetRenderFrame
EXTRN	?GetNumFixedRenderImage@ioWnd@@UBEHXZ:PROC	; ioWnd::GetNumFixedRenderImage
EXTRN	?GetFixedRenderImageType@ioWnd@@UAEPBDH@Z:PROC	; ioWnd::GetFixedRenderImageType
EXTRN	?GetRenderImage@ioWnd@@UAEPAPAVioUIRenderElement@@PBD@Z:PROC ; ioWnd::GetRenderImage
EXTRN	?AddEffect@ioWnd@@UAEXABVioHashString@@PAVioUI3DEffectRender@@@Z:PROC ; ioWnd::AddEffect
EXTRN	?GetEffect@ioWnd@@UAEPAVioUI3DEffectRender@@VioHashString@@@Z:PROC ; ioWnd::GetEffect
EXTRN	??_EShuffleToolTip@@UAEPAXI@Z:PROC		; ShuffleToolTip::`vector deleting destructor'
;	COMDAT ??_R2ioWnd@@8
; File d:\lost saga for developer\youtube\tutorial\source\src\lsclient\gui\shuffletooltip.cpp
rdata$r	SEGMENT
??_R2ioWnd@@8 DD FLAT:??_R1A@?0A@EA@ioWnd@@8		; ioWnd::`RTTI Base Class Array'
rdata$r	ENDS
;	COMDAT ??_R3ioWnd@@8
rdata$r	SEGMENT
??_R3ioWnd@@8 DD 00H					; ioWnd::`RTTI Class Hierarchy Descriptor'
	DD	00H
	DD	01H
	DD	FLAT:??_R2ioWnd@@8
rdata$r	ENDS
;	COMDAT ??_R0?AVioWnd@@@8
_DATA	SEGMENT
??_R0?AVioWnd@@@8 DD FLAT:??_7type_info@@6B@		; ioWnd `RTTI Type Descriptor'
	DD	00H
	DB	'.?AVioWnd@@', 00H
_DATA	ENDS
;	COMDAT ??_R1A@?0A@EA@ioWnd@@8
rdata$r	SEGMENT
??_R1A@?0A@EA@ioWnd@@8 DD FLAT:??_R0?AVioWnd@@@8	; ioWnd::`RTTI Base Class Descriptor at (0,-1,0,64)'
	DD	00H
	DD	00H
	DD	0ffffffffH
	DD	00H
	DD	040H
	DD	FLAT:??_R3ioWnd@@8
rdata$r	ENDS
;	COMDAT ??_R1A@?0A@EA@ShuffleToolTip@@8
rdata$r	SEGMENT
??_R1A@?0A@EA@ShuffleToolTip@@8 DD FLAT:??_R0?AVShuffleToolTip@@@8 ; ShuffleToolTip::`RTTI Base Class Descriptor at (0,-1,0,64)'
	DD	01H
	DD	00H
	DD	0ffffffffH
	DD	00H
	DD	040H
	DD	FLAT:??_R3ShuffleToolTip@@8
rdata$r	ENDS
;	COMDAT ??_R2ShuffleToolTip@@8
rdata$r	SEGMENT
??_R2ShuffleToolTip@@8 DD FLAT:??_R1A@?0A@EA@ShuffleToolTip@@8 ; ShuffleToolTip::`RTTI Base Class Array'
	DD	FLAT:??_R1A@?0A@EA@ioWnd@@8
rdata$r	ENDS
;	COMDAT ??_R3ShuffleToolTip@@8
rdata$r	SEGMENT
??_R3ShuffleToolTip@@8 DD 00H				; ShuffleToolTip::`RTTI Class Hierarchy Descriptor'
	DD	00H
	DD	02H
	DD	FLAT:??_R2ShuffleToolTip@@8
rdata$r	ENDS
;	COMDAT ??_R0?AVShuffleToolTip@@@8
_DATA	SEGMENT
??_R0?AVShuffleToolTip@@@8 DD FLAT:??_7type_info@@6B@	; ShuffleToolTip `RTTI Type Descriptor'
	DD	00H
	DB	'.?AVShuffleToolTip@@', 00H
_DATA	ENDS
;	COMDAT ??_R4ShuffleToolTip@@6B@
rdata$r	SEGMENT
??_R4ShuffleToolTip@@6B@ DD 00H				; ShuffleToolTip::`RTTI Complete Object Locator'
	DD	00H
	DD	00H
	DD	FLAT:??_R0?AVShuffleToolTip@@@8
	DD	FLAT:??_R3ShuffleToolTip@@8
rdata$r	ENDS
;	COMDAT ??_7ShuffleToolTip@@6B@
CONST	SEGMENT
??_7ShuffleToolTip@@6B@ DD FLAT:??_R4ShuffleToolTip@@6B@ ; ShuffleToolTip::`vftable'
	DD	FLAT:?AddRenderFrame@ioWnd@@UAEXABVioHashString@@PAVioUIRenderFrame@@@Z
	DD	FLAT:?AddRenderImage@ioWnd@@UAEXABVioHashString@@PAVioUIRenderImage@@@Z
	DD	FLAT:?AddTooltipHelp@ioWnd@@UAEXABVioHashString@@00@Z
	DD	FLAT:?ParseExtraInfo@ioWnd@@UAEXAAVioXMLElement@@@Z
	DD	FLAT:?AddNamedRenderImage@ioWnd@@UAEXABVioHashString@@PAVioUIRenderImage@@@Z
	DD	FLAT:?RemoveNamedRenderImage@ioWnd@@UAEXABVioHashString@@@Z
	DD	FLAT:?GetNamedRenderImage@ioWnd@@UBEPAVioUIRenderImage@@ABVioHashString@@@Z
	DD	FLAT:?SetWindowAlpha@ioWnd@@UAEXH@Z
	DD	FLAT:?SetActive@ioWnd@@UAEXXZ
	DD	FLAT:?SetInActive@ioWnd@@UAEXXZ
	DD	FLAT:?ClearElementImageList@ioWnd@@UAEXXZ
	DD	FLAT:?SetSize@ioWnd@@UAEXHH@Z
	DD	FLAT:?SetPositionToDefault@ioWnd@@UAEXHH_N0@Z
	DD	FLAT:?IsNeedProcess@ioWnd@@UBE_NXZ
	DD	FLAT:?IsCanMouseReaction@ioWnd@@UBE_NXZ
	DD	FLAT:?AddChild@ioWnd@@UAEXPAV1@@Z
	DD	FLAT:?DeleteChild@ioWnd@@UAEXK@Z
	DD	FLAT:?DeleteAllChild@ioWnd@@UAEXXZ
	DD	FLAT:?OnRenderShowAndHide@ioWnd@@MAE_NXZ
	DD	FLAT:?OnRenderShowAndHideByDefault@ioWnd@@MAE_NK@Z
	DD	FLAT:?OnRenderShowAndHideByTop@ioWnd@@MAE_NK@Z
	DD	FLAT:?OnRenderShowAndHideByDown@ioWnd@@MAE_NK@Z
	DD	FLAT:?OnRender@ioWnd@@MAEXXZ
	DD	FLAT:?OnRenderAfterChild@ioWnd@@MAEXXZ
	DD	FLAT:?OnProcess@ShuffleToolTip@@MAEXM@Z
	DD	FLAT:?OnMouseProcess@ioWnd@@MAEXABVioMouse@@@Z
	DD	FLAT:?CheckFrameReSize@ioWnd@@MAEXHHHH@Z
	DD	FLAT:?RenderImageList@ioWnd@@MAEXHHW4UIRenderType@@@Z
	DD	FLAT:?iwm_create@ioWnd@@UAEXXZ
	DD	FLAT:?iwm_destroy@ioWnd@@UAEXXZ
	DD	FLAT:?iwm_lbuttondown@ioWnd@@UAEXABVioMouse@@@Z
	DD	FLAT:?iwm_lbuttonup@ioWnd@@UAEXABVioMouse@@@Z
	DD	FLAT:?iwm_lbuttonDBLCLK@ioWnd@@UAEXABVioMouse@@@Z
	DD	FLAT:?iwm_rbuttondown@ioWnd@@UAEXABVioMouse@@@Z
	DD	FLAT:?iwm_rbuttonup@ioWnd@@UAEXABVioMouse@@@Z
	DD	FLAT:?iwm_command@ioWnd@@UAEXPAV1@HK@Z
	DD	FLAT:?iwm_mouseover@ioWnd@@UAEXABVioMouse@@@Z
	DD	FLAT:?iwm_mousemove@ioWnd@@UAEXABVioMouse@@@Z
	DD	FLAT:?iwm_mouseleave@ioWnd@@UAEXABVioMouse@@@Z
	DD	FLAT:?iwm_vscroll@ioWnd@@UAEXKH@Z
	DD	FLAT:?iwm_wheel@ioWnd@@UAEXH@Z
	DD	FLAT:?iwm_show@ShuffleToolTip@@UAEXXZ
	DD	FLAT:?iwm_hide@ShuffleToolTip@@UAEXXZ
	DD	FLAT:?iwm_esc@ioWnd@@UAE_NXZ
	DD	FLAT:?iwm_spacebar@ioWnd@@UAE_NXZ
	DD	FLAT:?iwm_gototop@ioWnd@@UAEXXZ
	DD	FLAT:?iwm_dragenter@ioWnd@@UAE?AW4IWDropEffect@@PAVioDragItem@@ABVioMouse@@@Z
	DD	FLAT:?iwm_dragover@ioWnd@@UAE?AW4IWDropEffect@@PAVioDragItem@@ABVioMouse@@@Z
	DD	FLAT:?iwm_dragleave@ioWnd@@UAEXXZ
	DD	FLAT:?iwm_dropitem@ioWnd@@UAE_NPAVioDragItem@@ABVioMouse@@PAV1@@Z
	DD	FLAT:?iwm_dropdone@ioWnd@@UAEXPAVioDragItem@@PAV1@_N@Z
	DD	FLAT:?IsEXType@ioWnd@@UBE_NXZ
	DD	FLAT:?GetWndType@ioWnd@@UBEKXZ
	DD	FLAT:?RenderWnd@ioWnd@@UAEXXZ
	DD	FLAT:?SetIDEX@ioWnd@@UAEXAAK_N@Z
	DD	FLAT:?ParseXML@ioWnd@@UAEXAAVioXMLElement@@@Z
	DD	FLAT:?GetHeaderFileName@ioWnd@@UAEPBDXZ
	DD	FLAT:?GetTemplateName@ioWnd@@UAEPBDXZ
	DD	FLAT:?GetDefClassName@ioWnd@@UBEPBDXZ
	DD	FLAT:?_Clone@ioWnd@@UAEPAV1@XZ
	DD	FLAT:?Copy@ioWnd@@UAEXPAV1@@Z
	DD	FLAT:?Save@ioWnd@@UAE_NAAVioXMLElement@@@Z
	DD	FLAT:?SetSaveData@ioWnd@@UAEXAAVioXMLElement@@@Z
	DD	FLAT:?SetPosX@ioWnd@@UAEXH@Z
	DD	FLAT:?SetPosY@ioWnd@@UAEXH@Z
	DD	FLAT:?SetWidth@ioWnd@@UAEXH@Z
	DD	FLAT:?SetHeight@ioWnd@@UAEXH@Z
	DD	FLAT:?GetNumFixedRenderFrame@ioWnd@@UBEHXZ
	DD	FLAT:?GetFixedRenderFrameType@ioWnd@@UAEPBDH@Z
	DD	FLAT:?GetRenderFrame@ioWnd@@UAEPAPAVioUIRenderElement@@PBD@Z
	DD	FLAT:?GetNumFixedRenderImage@ioWnd@@UBEHXZ
	DD	FLAT:?GetFixedRenderImageType@ioWnd@@UAEPBDH@Z
	DD	FLAT:?GetRenderImage@ioWnd@@UAEPAPAVioUIRenderElement@@PBD@Z
	DD	FLAT:?AddEffect@ioWnd@@UAEXABVioHashString@@PAVioUI3DEffectRender@@@Z
	DD	FLAT:?GetEffect@ioWnd@@UAEPAVioUI3DEffectRender@@VioHashString@@@Z
	DD	FLAT:??_EShuffleToolTip@@UAEPAXI@Z
; Function compile flags: /Ogsp
CONST	ENDS
;	COMDAT ??0ShuffleToolTip@@QAE@XZ
_TEXT	SEGMENT
??0ShuffleToolTip@@QAE@XZ PROC				; ShuffleToolTip::ShuffleToolTip, COMDAT
; _this$ = ecx

; 9    : {

  00000	56		 push	 esi
  00001	8b f1		 mov	 esi, ecx
  00003	ff 15 00 00 00
	00		 call	 DWORD PTR __imp_??0ioWnd@@QAE@XZ
  00009	c7 06 00 00 00
	00		 mov	 DWORD PTR [esi], OFFSET ??_7ShuffleToolTip@@6B@

; 10   : }

  0000f	8b c6		 mov	 eax, esi
  00011	5e		 pop	 esi
  00012	c3		 ret	 0
??0ShuffleToolTip@@QAE@XZ ENDP				; ShuffleToolTip::ShuffleToolTip
_TEXT	ENDS
PUBLIC	??1ShuffleToolTip@@UAE@XZ			; ShuffleToolTip::~ShuffleToolTip
EXTRN	__imp_??1ioWnd@@UAE@XZ:PROC
; Function compile flags: /Ogsp
;	COMDAT ??1ShuffleToolTip@@UAE@XZ
_TEXT	SEGMENT
??1ShuffleToolTip@@UAE@XZ PROC				; ShuffleToolTip::~ShuffleToolTip, COMDAT
; _this$ = ecx

; 13   : {

  00000	c7 01 00 00 00
	00		 mov	 DWORD PTR [ecx], OFFSET ??_7ShuffleToolTip@@6B@

; 14   : 
; 15   : }

  00006	ff 25 00 00 00
	00		 jmp	 DWORD PTR __imp_??1ioWnd@@UAE@XZ
??1ShuffleToolTip@@UAE@XZ ENDP				; ShuffleToolTip::~ShuffleToolTip
; Function compile flags: /Ogsp
_TEXT	ENDS
;	COMDAT ?iwm_show@ShuffleToolTip@@UAEXXZ
_TEXT	SEGMENT
?iwm_show@ShuffleToolTip@@UAEXXZ PROC			; ShuffleToolTip::iwm_show, COMDAT
; _this$ = ecx

; 19   : }

  00000	c3		 ret	 0
?iwm_show@ShuffleToolTip@@UAEXXZ ENDP			; ShuffleToolTip::iwm_show
; Function compile flags: /Ogsp
_TEXT	ENDS
;	COMDAT ?iwm_hide@ShuffleToolTip@@UAEXXZ
_TEXT	SEGMENT
?iwm_hide@ShuffleToolTip@@UAEXXZ PROC			; ShuffleToolTip::iwm_hide, COMDAT
; _this$ = ecx

; 23   : }

  00000	c3		 ret	 0
?iwm_hide@ShuffleToolTip@@UAEXXZ ENDP			; ShuffleToolTip::iwm_hide
_TEXT	ENDS
PUBLIC	?GetMouse@ioApplication@@QAEPAVioLSMouse@@XZ	; ioApplication::GetMouse
; Function compile flags: /Ogsp
; File d:\lost saga for developer\youtube\tutorial\source\src\lsclient\ioapplication.h
;	COMDAT ?GetMouse@ioApplication@@QAEPAVioLSMouse@@XZ
_TEXT	SEGMENT
?GetMouse@ioApplication@@QAEPAVioLSMouse@@XZ PROC	; ioApplication::GetMouse, COMDAT
; _this$ = ecx

; 796  : 	inline ioLSMouse* GetMouse(){ return &m_Mouse;	}

  00000	8d 81 90 00 00
	00		 lea	 eax, DWORD PTR [ecx+144]
  00006	c3		 ret	 0
?GetMouse@ioApplication@@QAEPAVioLSMouse@@XZ ENDP	; ioApplication::GetMouse
_TEXT	ENDS
EXTRN	??3@YAXPAX@Z:PROC				; operator delete
; Function compile flags: /Ogsp
;	COMDAT ??_GShuffleToolTip@@UAEPAXI@Z
_TEXT	SEGMENT
___flags$ = 8						; size = 4
??_GShuffleToolTip@@UAEPAXI@Z PROC			; ShuffleToolTip::`scalar deleting destructor', COMDAT
; _this$ = ecx
  00000	55		 push	 ebp
  00001	8b ec		 mov	 ebp, esp
  00003	56		 push	 esi
  00004	8b f1		 mov	 esi, ecx
  00006	e8 00 00 00 00	 call	 ??1ShuffleToolTip@@UAE@XZ ; ShuffleToolTip::~ShuffleToolTip
  0000b	f6 45 08 01	 test	 BYTE PTR ___flags$[ebp], 1
  0000f	74 07		 je	 SHORT $LN1@scalar
  00011	56		 push	 esi
  00012	e8 00 00 00 00	 call	 ??3@YAXPAX@Z		; operator delete
  00017	59		 pop	 ecx
$LN1@scalar:
  00018	8b c6		 mov	 eax, esi
  0001a	5e		 pop	 esi
  0001b	5d		 pop	 ebp
  0001c	c2 04 00	 ret	 4
??_GShuffleToolTip@@UAEPAXI@Z ENDP			; ShuffleToolTip::`scalar deleting destructor'
_TEXT	ENDS
PUBLIC	__real@4008000000000000
PUBLIC	_this$GSCopy$
PUBLIC	__$ArrayPad$
EXTRN	__imp_?HideWnd@ioWnd@@QAEXXZ:PROC
EXTRN	__imp_?ShowWnd@ioWnd@@QAEXXZ:PROC
EXTRN	__imp_?FindChildWnd@ioWnd@@QAEPAV1@K@Z:PROC
EXTRN	?GetServerTime@ioMyInfo@@QAEXAAU_SYSTEMTIME@@@Z:PROC ; ioMyInfo::GetServerTime
EXTRN	?GetSingleton@ioMyInfo@@SAAAV1@XZ:PROC		; ioMyInfo::GetSingleton
EXTRN	?SetToolTipCursor@ioLSMouse@@QAEXXZ:PROC	; ioLSMouse::SetToolTipCursor
EXTRN	__imp_?SetScreenWndPos@ioWnd@@QAEXHH@Z:PROC
EXTRN	?Height@Setting@@SAHXZ:PROC			; Setting::Height
EXTRN	__imp_?GetHeight@ioWnd@@QBEHXZ:PROC
EXTRN	?Width@Setting@@SAHXZ:PROC			; Setting::Width
EXTRN	__imp_?GetWidth@ioWnd@@QBEHXZ:PROC
EXTRN	__imp_?GetMousePos@ioMouse@@QBEABUtagPOINT@@XZ:PROC
EXTRN	?GetSingleton@ioApplication@@SAAAV1@XZ:PROC	; ioApplication::GetSingleton
EXTRN	__imp_?IsShow@ioWnd@@QBE_NXZ:PROC
EXTRN	___security_cookie:DWORD
EXTRN	__fltused:DWORD
EXTRN	@__security_check_cookie@4:PROC
;	COMDAT __real@4008000000000000
; File d:\lost saga for developer\youtube\tutorial\source\src\io3dengine\iorichlabel.h
CONST	SEGMENT
__real@4008000000000000 DQ 04008000000000000r	; 3
; Function compile flags: /Ogsp
; File d:\lost saga for developer\youtube\tutorial\source\src\lsclient\gui\shuffletooltip.cpp
CONST	ENDS
;	COMDAT ?OnProcess@ShuffleToolTip@@MAEXM@Z
_TEXT	SEGMENT
_this$GSCopy$ = -32					; size = 4
_iDayOfWeek$ = -28					; size = 4
_iYPos$ = -28						; size = 4
_iDay$508204 = -24					; size = 4
_iXPos$ = -24						; size = 4
_rkServerTime$ = -20					; size = 16
__$ArrayPad$ = -4					; size = 4
_fTimePerSec$ = 8					; size = 4
?OnProcess@ShuffleToolTip@@MAEXM@Z PROC			; ShuffleToolTip::OnProcess, COMDAT
; _this$ = ecx

; 26   : {

  00000	55		 push	 ebp
  00001	8b ec		 mov	 ebp, esp
  00003	83 ec 20	 sub	 esp, 32			; 00000020H
  00006	a1 00 00 00 00	 mov	 eax, DWORD PTR ___security_cookie
  0000b	33 c5		 xor	 eax, ebp
  0000d	89 45 fc	 mov	 DWORD PTR __$ArrayPad$[ebp], eax

; 39   : 	}
; 40   : 
; 41   : 	int iYOffset = pt.y + GetHeight() + 8;

  00010	89 4d e0	 mov	 DWORD PTR _this$GSCopy$[ebp], ecx
  00013	ff 15 00 00 00
	00		 call	 DWORD PTR __imp_?IsShow@ioWnd@@QBE_NXZ
  00019	84 c0		 test	 al, al
  0001b	0f 84 0e 01 00
	00		 je	 $LN4@OnProcess

; 27   : 	if( !IsShow() )
; 28   : 		return;
; 29   : 
; 30   : 	ioLSMouse *pMouse = g_App.GetMouse();

  00021	53		 push	 ebx
  00022	56		 push	 esi
  00023	57		 push	 edi
  00024	e8 00 00 00 00	 call	 ?GetSingleton@ioApplication@@SAAAV1@XZ ; ioApplication::GetSingleton
  00029	8b f8		 mov	 edi, eax

; 31   : 	POINT pt = pMouse->GetMousePos();

  0002b	8d 8f 90 00 00
	00		 lea	 ecx, DWORD PTR [edi+144]
  00031	ff 15 00 00 00
	00		 call	 DWORD PTR __imp_?GetMousePos@ioMouse@@QBEABUtagPOINT@@XZ
  00037	8b 30		 mov	 esi, DWORD PTR [eax]
  00039	8b 58 04	 mov	 ebx, DWORD PTR [eax+4]

; 32   : 	int iXPos = pt.x + 8;
; 33   : 	int iYPos = pt.y + 8;
; 34   : 
; 35   : 	int iXOffset = pt.x + GetWidth() + 8;

  0003c	8b 4d e0	 mov	 ecx, DWORD PTR _this$GSCopy$[ebp]
  0003f	8d 46 08	 lea	 eax, DWORD PTR [esi+8]
  00042	89 45 e8	 mov	 DWORD PTR _iXPos$[ebp], eax
  00045	8d 43 08	 lea	 eax, DWORD PTR [ebx+8]
  00048	89 45 e4	 mov	 DWORD PTR _iYPos$[ebp], eax
  0004b	ff 15 00 00 00
	00		 call	 DWORD PTR __imp_?GetWidth@ioWnd@@QBEHXZ
  00051	8d 74 30 08	 lea	 esi, DWORD PTR [eax+esi+8]

; 36   : 	if( Setting::Width() < iXOffset )

  00055	e8 00 00 00 00	 call	 ?Width@Setting@@SAHXZ	; Setting::Width
  0005a	3b c6		 cmp	 eax, esi
  0005c	7d 12		 jge	 SHORT $LN18@OnProcess

; 37   : 	{
; 38   : 		iXPos -= ( iXOffset - Setting::Width() ) + 8;

  0005e	e8 00 00 00 00	 call	 ?Width@Setting@@SAHXZ	; Setting::Width
  00063	6a f8		 push	 -8			; fffffff8H
  00065	59		 pop	 ecx
  00066	2b ce		 sub	 ecx, esi
  00068	03 4d e8	 add	 ecx, DWORD PTR _iXPos$[ebp]
  0006b	03 c8		 add	 ecx, eax
  0006d	89 4d e8	 mov	 DWORD PTR _iXPos$[ebp], ecx
$LN18@OnProcess:

; 39   : 	}
; 40   : 
; 41   : 	int iYOffset = pt.y + GetHeight() + 8;

  00070	8b 75 e0	 mov	 esi, DWORD PTR _this$GSCopy$[ebp]
  00073	8b ce		 mov	 ecx, esi
  00075	ff 15 00 00 00
	00		 call	 DWORD PTR __imp_?GetHeight@ioWnd@@QBEHXZ
  0007b	8d 5c 18 08	 lea	 ebx, DWORD PTR [eax+ebx+8]

; 42   : 	if( Setting::Height() < iYOffset )

  0007f	e8 00 00 00 00	 call	 ?Height@Setting@@SAHXZ	; Setting::Height
  00084	3b c3		 cmp	 eax, ebx
  00086	7d 11		 jge	 SHORT $LN19@OnProcess

; 43   : 	{
; 44   : 		iYPos -= ( iYOffset - Setting::Height() ) + 8;

  00088	e8 00 00 00 00	 call	 ?Height@Setting@@SAHXZ	; Setting::Height
  0008d	6a f8		 push	 -8			; fffffff8H
  0008f	59		 pop	 ecx
  00090	2b cb		 sub	 ecx, ebx
  00092	03 4d e4	 add	 ecx, DWORD PTR _iYPos$[ebp]
  00095	03 c1		 add	 eax, ecx
  00097	eb 03		 jmp	 SHORT $LN7@OnProcess
$LN19@OnProcess:
  00099	8b 45 e4	 mov	 eax, DWORD PTR _iYPos$[ebp]
$LN7@OnProcess:

; 45   : 	}
; 46   : 
; 47   : 	SetScreenWndPos( iXPos, iYPos );

  0009c	50		 push	 eax
  0009d	ff 75 e8	 push	 DWORD PTR _iXPos$[ebp]
  000a0	8b ce		 mov	 ecx, esi
  000a2	ff 15 00 00 00
	00		 call	 DWORD PTR __imp_?SetScreenWndPos@ioWnd@@QAEXHH@Z

; 48   : 	pMouse->SetToolTipCursor();

  000a8	8d 8f 90 00 00
	00		 lea	 ecx, DWORD PTR [edi+144]
  000ae	e8 00 00 00 00	 call	 ?SetToolTipCursor@ioLSMouse@@QAEXXZ ; ioLSMouse::SetToolTipCursor

; 49   : 
; 50   : 	int iDayOfWeek = DEFAULT;
; 51   : #ifdef SHIPPING	
; 52   : 	SYSTEMTIME rkServerTime;
; 53   : 	g_MyInfo.GetServerTime( rkServerTime );	

  000b3	8d 45 ec	 lea	 eax, DWORD PTR _rkServerTime$[ebp]
  000b6	50		 push	 eax
  000b7	e8 00 00 00 00	 call	 ?GetSingleton@ioMyInfo@@SAAAV1@XZ ; ioMyInfo::GetSingleton
  000bc	8b c8		 mov	 ecx, eax
  000be	e8 00 00 00 00	 call	 ?GetServerTime@ioMyInfo@@QAEXAAU_SYSTEMTIME@@@Z ; ioMyInfo::GetServerTime

; 54   : 	iDayOfWeek = rkServerTime.wDayOfWeek;

  000c3	0f b7 45 f0	 movzx	 eax, WORD PTR _rkServerTime$[ebp+4]
  000c7	89 45 e4	 mov	 DWORD PTR _iDayOfWeek$[ebp], eax

; 55   : #else
; 56   : 	SYSTEMTIME systime;
; 57   : 	GetSystemTime(&systime);
; 58   : 	iDayOfWeek = systime.wDayOfWeek;
; 59   : #endif
; 60   : 
; 61   : 	int i = 0;
; 62   : 	for( int iDay = SUN_; iDay <= DEFAULT; ++iDay, ++i )

  000ca	c7 45 e8 01 00
	00 00		 mov	 DWORD PTR _iDay$508204[ebp], 1
$LL20@OnProcess:

; 63   : 	{
; 64   : 		ioRichLabel* pLabel = (ioRichLabel*)( FindChildWnd( iDay ) );

  000d1	ff 75 e8	 push	 DWORD PTR _iDay$508204[ebp]
  000d4	8b ce		 mov	 ecx, esi
  000d6	ff 15 00 00 00
	00		 call	 DWORD PTR __imp_?FindChildWnd@ioWnd@@QAEPAV1@K@Z
  000dc	8b d8		 mov	 ebx, eax

; 65   : 		if( pLabel )

  000de	85 db		 test	 ebx, ebx
  000e0	74 41		 je	 SHORT $LN5@OnProcess

; 66   : 		{
; 67   : 			if( iDayOfWeek == i )

  000e2	8b 45 e8	 mov	 eax, DWORD PTR _iDay$508204[ebp]
  000e5	48		 dec	 eax

; 68   : 			{
; 69   : 				pLabel->ShowWnd();

  000e6	8b cb		 mov	 ecx, ebx
  000e8	39 45 e4	 cmp	 DWORD PTR _iDayOfWeek$[ebp], eax
  000eb	75 30		 jne	 SHORT $LN2@OnProcess
  000ed	ff 15 00 00 00
	00		 call	 DWORD PTR __imp_?ShowWnd@ioWnd@@QAEXXZ

; 70   : 				SetSize( pLabel->GetWidth(), pLabel->GetTextHeight() + 3 );

  000f3	f3 0f 10 83 ac
	01 00 00	 movss	 xmm0, DWORD PTR [ebx+428]
  000fb	8b 3e		 mov	 edi, DWORD PTR [esi]
  000fd	0f 5a c0	 cvtps2pd xmm0, xmm0
  00100	f2 0f 58 05 00
	00 00 00	 addsd	 xmm0, QWORD PTR __real@4008000000000000
  00108	f2 0f 2c c0	 cvttsd2si eax, xmm0
  0010c	50		 push	 eax
  0010d	8b cb		 mov	 ecx, ebx
  0010f	ff 15 00 00 00
	00		 call	 DWORD PTR __imp_?GetWidth@ioWnd@@QBEHXZ
  00115	50		 push	 eax
  00116	8b ce		 mov	 ecx, esi
  00118	ff 57 2c	 call	 DWORD PTR [edi+44]

; 71   : 			}
; 72   : 			else

  0011b	eb 06		 jmp	 SHORT $LN5@OnProcess
$LN2@OnProcess:

; 73   : 			{
; 74   : 				pLabel->HideWnd();

  0011d	ff 15 00 00 00
	00		 call	 DWORD PTR __imp_?HideWnd@ioWnd@@QAEXXZ
$LN5@OnProcess:

; 55   : #else
; 56   : 	SYSTEMTIME systime;
; 57   : 	GetSystemTime(&systime);
; 58   : 	iDayOfWeek = systime.wDayOfWeek;
; 59   : #endif
; 60   : 
; 61   : 	int i = 0;
; 62   : 	for( int iDay = SUN_; iDay <= DEFAULT; ++iDay, ++i )

  00123	ff 45 e8	 inc	 DWORD PTR _iDay$508204[ebp]
  00126	83 7d e8 08	 cmp	 DWORD PTR _iDay$508204[ebp], 8
  0012a	7e a5		 jle	 SHORT $LL20@OnProcess
  0012c	5f		 pop	 edi
  0012d	5e		 pop	 esi
  0012e	5b		 pop	 ebx
$LN4@OnProcess:

; 75   : 			}
; 76   : 		}
; 77   : 	}
; 78   : }

  0012f	8b 4d fc	 mov	 ecx, DWORD PTR __$ArrayPad$[ebp]
  00132	33 cd		 xor	 ecx, ebp
  00134	e8 00 00 00 00	 call	 @__security_check_cookie@4
  00139	c9		 leave
  0013a	c2 04 00	 ret	 4
?OnProcess@ShuffleToolTip@@MAEXM@Z ENDP			; ShuffleToolTip::OnProcess
_TEXT	ENDS
END
