; Listing generated by Microsoft (R) Optimizing Compiler Version 16.00.30319.01 

	TITLE	D:\Lost Saga For Developer\Youtube\Tutorial\Source\src\LSClient\GUI\ShuffleBonusResultWnd.cpp
	.686P
	.XMM
	include listing.inc
	.model	flat

INCLUDELIB MSVCRT
INCLUDELIB OLDNAMES

PUBLIC	?return1@@YAIXZ					; return1
; Function compile flags: /Ogsp
; File d:\lost saga for developer\youtube\tutorial\source\src\lsclient\stdafx.h
;	COMDAT ?return1@@YAIXZ
_TEXT	SEGMENT
?return1@@YAIXZ PROC					; return1, COMDAT

; 17   : 	__forceinline unsigned int return1() { __asm mov eax, 1 };

  00000	b8 01 00 00 00	 mov	 eax, 1
  00005	c3		 ret	 0
?return1@@YAIXZ ENDP					; return1
_TEXT	ENDS
PUBLIC	?return100@@YAIXZ				; return100
; Function compile flags: /Ogsp
;	COMDAT ?return100@@YAIXZ
_TEXT	SEGMENT
?return100@@YAIXZ PROC					; return100, COMDAT

; 25   : 	__forceinline unsigned int return100() { __asm mov eax, 100 };

  00000	b8 64 00 00 00	 mov	 eax, 100		; 00000064H
  00005	c3		 ret	 0
?return100@@YAIXZ ENDP					; return100
_TEXT	ENDS
PUBLIC	?GetShuffleStarCnt@ioShuffleRoomMgr@@QAEHXZ	; ioShuffleRoomMgr::GetShuffleStarCnt
; Function compile flags: /Ogsp
; File d:\lost saga for developer\youtube\tutorial\source\src\lsclient\ioshuffleroommgr.h
;	COMDAT ?GetShuffleStarCnt@ioShuffleRoomMgr@@QAEHXZ
_TEXT	SEGMENT
?GetShuffleStarCnt@ioShuffleRoomMgr@@QAEHXZ PROC	; ioShuffleRoomMgr::GetShuffleStarCnt, COMDAT
; _this$ = ecx

; 282  : 	inline int GetShuffleStarCnt() { return m_iShuffleStarCnt; }

  00000	8b 81 0c 01 00
	00		 mov	 eax, DWORD PTR [ecx+268]
  00006	c3		 ret	 0
?GetShuffleStarCnt@ioShuffleRoomMgr@@QAEHXZ ENDP	; ioShuffleRoomMgr::GetShuffleStarCnt
_TEXT	ENDS
PUBLIC	??_7ShuffleBonusResultWnd@@6B@			; ShuffleBonusResultWnd::`vftable'
PUBLIC	??0ShuffleBonusResultWnd@@QAE@XZ		; ShuffleBonusResultWnd::ShuffleBonusResultWnd
PUBLIC	??_R4ShuffleBonusResultWnd@@6B@			; ShuffleBonusResultWnd::`RTTI Complete Object Locator'
PUBLIC	??_R0?AVShuffleBonusResultWnd@@@8		; ShuffleBonusResultWnd `RTTI Type Descriptor'
PUBLIC	??_R3ShuffleBonusResultWnd@@8			; ShuffleBonusResultWnd::`RTTI Class Hierarchy Descriptor'
PUBLIC	??_R2ShuffleBonusResultWnd@@8			; ShuffleBonusResultWnd::`RTTI Base Class Array'
PUBLIC	??_R1A@?0A@EA@ShuffleBonusResultWnd@@8		; ShuffleBonusResultWnd::`RTTI Base Class Descriptor at (0,-1,0,64)'
PUBLIC	??_R1A@?0A@EA@ioWnd@@8				; ioWnd::`RTTI Base Class Descriptor at (0,-1,0,64)'
PUBLIC	??_R0?AVioWnd@@@8				; ioWnd `RTTI Type Descriptor'
PUBLIC	??_R3ioWnd@@8					; ioWnd::`RTTI Class Hierarchy Descriptor'
PUBLIC	??_R2ioWnd@@8					; ioWnd::`RTTI Base Class Array'
PUBLIC	?AddRenderImage@ShuffleBonusResultWnd@@UAEXABVioHashString@@PAVioUIRenderImage@@@Z ; ShuffleBonusResultWnd::AddRenderImage
PUBLIC	?OnRender@ShuffleBonusResultWnd@@MAEXXZ		; ShuffleBonusResultWnd::OnRender
PUBLIC	?OnProcess@ShuffleBonusResultWnd@@MAEXM@Z	; ShuffleBonusResultWnd::OnProcess
PUBLIC	?iwm_command@ShuffleBonusResultWnd@@UAEXPAVioWnd@@HK@Z ; ShuffleBonusResultWnd::iwm_command
EXTRN	__imp_??0ioWnd@@QAE@XZ:PROC
EXTRN	??_7type_info@@6B@:QWORD			; type_info::`vftable'
EXTRN	?AddRenderFrame@ioWnd@@UAEXABVioHashString@@PAVioUIRenderFrame@@@Z:PROC ; ioWnd::AddRenderFrame
EXTRN	?AddTooltipHelp@ioWnd@@UAEXABVioHashString@@00@Z:PROC ; ioWnd::AddTooltipHelp
EXTRN	?ParseExtraInfo@ioWnd@@UAEXAAVioXMLElement@@@Z:PROC ; ioWnd::ParseExtraInfo
EXTRN	?AddNamedRenderImage@ioWnd@@UAEXABVioHashString@@PAVioUIRenderImage@@@Z:PROC ; ioWnd::AddNamedRenderImage
EXTRN	?RemoveNamedRenderImage@ioWnd@@UAEXABVioHashString@@@Z:PROC ; ioWnd::RemoveNamedRenderImage
EXTRN	?GetNamedRenderImage@ioWnd@@UBEPAVioUIRenderImage@@ABVioHashString@@@Z:PROC ; ioWnd::GetNamedRenderImage
EXTRN	?SetWindowAlpha@ioWnd@@UAEXH@Z:PROC		; ioWnd::SetWindowAlpha
EXTRN	?SetActive@ioWnd@@UAEXXZ:PROC			; ioWnd::SetActive
EXTRN	?SetInActive@ioWnd@@UAEXXZ:PROC			; ioWnd::SetInActive
EXTRN	?ClearElementImageList@ioWnd@@UAEXXZ:PROC	; ioWnd::ClearElementImageList
EXTRN	?SetSize@ioWnd@@UAEXHH@Z:PROC			; ioWnd::SetSize
EXTRN	?SetPositionToDefault@ioWnd@@UAEXHH_N0@Z:PROC	; ioWnd::SetPositionToDefault
EXTRN	?IsNeedProcess@ioWnd@@UBE_NXZ:PROC		; ioWnd::IsNeedProcess
EXTRN	?IsCanMouseReaction@ioWnd@@UBE_NXZ:PROC		; ioWnd::IsCanMouseReaction
EXTRN	?AddChild@ioWnd@@UAEXPAV1@@Z:PROC		; ioWnd::AddChild
EXTRN	?DeleteChild@ioWnd@@UAEXK@Z:PROC		; ioWnd::DeleteChild
EXTRN	?DeleteAllChild@ioWnd@@UAEXXZ:PROC		; ioWnd::DeleteAllChild
EXTRN	?OnRenderShowAndHide@ioWnd@@MAE_NXZ:PROC	; ioWnd::OnRenderShowAndHide
EXTRN	?OnRenderShowAndHideByDefault@ioWnd@@MAE_NK@Z:PROC ; ioWnd::OnRenderShowAndHideByDefault
EXTRN	?OnRenderShowAndHideByTop@ioWnd@@MAE_NK@Z:PROC	; ioWnd::OnRenderShowAndHideByTop
EXTRN	?OnRenderShowAndHideByDown@ioWnd@@MAE_NK@Z:PROC	; ioWnd::OnRenderShowAndHideByDown
EXTRN	?OnRenderAfterChild@ioWnd@@MAEXXZ:PROC		; ioWnd::OnRenderAfterChild
EXTRN	?OnMouseProcess@ioWnd@@MAEXABVioMouse@@@Z:PROC	; ioWnd::OnMouseProcess
EXTRN	?CheckFrameReSize@ioWnd@@MAEXHHHH@Z:PROC	; ioWnd::CheckFrameReSize
EXTRN	?RenderImageList@ioWnd@@MAEXHHW4UIRenderType@@@Z:PROC ; ioWnd::RenderImageList
EXTRN	?iwm_create@ioWnd@@UAEXXZ:PROC			; ioWnd::iwm_create
EXTRN	?iwm_destroy@ioWnd@@UAEXXZ:PROC			; ioWnd::iwm_destroy
EXTRN	?iwm_lbuttondown@ioWnd@@UAEXABVioMouse@@@Z:PROC	; ioWnd::iwm_lbuttondown
EXTRN	?iwm_lbuttonup@ioWnd@@UAEXABVioMouse@@@Z:PROC	; ioWnd::iwm_lbuttonup
EXTRN	?iwm_lbuttonDBLCLK@ioWnd@@UAEXABVioMouse@@@Z:PROC ; ioWnd::iwm_lbuttonDBLCLK
EXTRN	?iwm_rbuttondown@ioWnd@@UAEXABVioMouse@@@Z:PROC	; ioWnd::iwm_rbuttondown
EXTRN	?iwm_rbuttonup@ioWnd@@UAEXABVioMouse@@@Z:PROC	; ioWnd::iwm_rbuttonup
EXTRN	?iwm_mouseover@ioWnd@@UAEXABVioMouse@@@Z:PROC	; ioWnd::iwm_mouseover
EXTRN	?iwm_mousemove@ioWnd@@UAEXABVioMouse@@@Z:PROC	; ioWnd::iwm_mousemove
EXTRN	?iwm_mouseleave@ioWnd@@UAEXABVioMouse@@@Z:PROC	; ioWnd::iwm_mouseleave
EXTRN	?iwm_vscroll@ioWnd@@UAEXKH@Z:PROC		; ioWnd::iwm_vscroll
EXTRN	?iwm_wheel@ioWnd@@UAEXH@Z:PROC			; ioWnd::iwm_wheel
EXTRN	?iwm_show@ioWnd@@UAEXXZ:PROC			; ioWnd::iwm_show
EXTRN	?iwm_hide@ioWnd@@UAEXXZ:PROC			; ioWnd::iwm_hide
EXTRN	?iwm_esc@ioWnd@@UAE_NXZ:PROC			; ioWnd::iwm_esc
EXTRN	?iwm_spacebar@ioWnd@@UAE_NXZ:PROC		; ioWnd::iwm_spacebar
EXTRN	?iwm_gototop@ioWnd@@UAEXXZ:PROC			; ioWnd::iwm_gototop
EXTRN	?iwm_dragenter@ioWnd@@UAE?AW4IWDropEffect@@PAVioDragItem@@ABVioMouse@@@Z:PROC ; ioWnd::iwm_dragenter
EXTRN	?iwm_dragover@ioWnd@@UAE?AW4IWDropEffect@@PAVioDragItem@@ABVioMouse@@@Z:PROC ; ioWnd::iwm_dragover
EXTRN	?iwm_dragleave@ioWnd@@UAEXXZ:PROC		; ioWnd::iwm_dragleave
EXTRN	?iwm_dropitem@ioWnd@@UAE_NPAVioDragItem@@ABVioMouse@@PAV1@@Z:PROC ; ioWnd::iwm_dropitem
EXTRN	?iwm_dropdone@ioWnd@@UAEXPAVioDragItem@@PAV1@_N@Z:PROC ; ioWnd::iwm_dropdone
EXTRN	?IsEXType@ioWnd@@UBE_NXZ:PROC			; ioWnd::IsEXType
EXTRN	?GetWndType@ioWnd@@UBEKXZ:PROC			; ioWnd::GetWndType
EXTRN	?RenderWnd@ioWnd@@UAEXXZ:PROC			; ioWnd::RenderWnd
EXTRN	?SetIDEX@ioWnd@@UAEXAAK_N@Z:PROC		; ioWnd::SetIDEX
EXTRN	?ParseXML@ioWnd@@UAEXAAVioXMLElement@@@Z:PROC	; ioWnd::ParseXML
EXTRN	?GetHeaderFileName@ioWnd@@UAEPBDXZ:PROC		; ioWnd::GetHeaderFileName
EXTRN	?GetTemplateName@ioWnd@@UAEPBDXZ:PROC		; ioWnd::GetTemplateName
EXTRN	?GetDefClassName@ioWnd@@UBEPBDXZ:PROC		; ioWnd::GetDefClassName
EXTRN	?_Clone@ioWnd@@UAEPAV1@XZ:PROC			; ioWnd::_Clone
EXTRN	?Copy@ioWnd@@UAEXPAV1@@Z:PROC			; ioWnd::Copy
EXTRN	?Save@ioWnd@@UAE_NAAVioXMLElement@@@Z:PROC	; ioWnd::Save
EXTRN	?SetSaveData@ioWnd@@UAEXAAVioXMLElement@@@Z:PROC ; ioWnd::SetSaveData
EXTRN	?SetPosX@ioWnd@@UAEXH@Z:PROC			; ioWnd::SetPosX
EXTRN	?SetPosY@ioWnd@@UAEXH@Z:PROC			; ioWnd::SetPosY
EXTRN	?SetWidth@ioWnd@@UAEXH@Z:PROC			; ioWnd::SetWidth
EXTRN	?SetHeight@ioWnd@@UAEXH@Z:PROC			; ioWnd::SetHeight
EXTRN	?GetNumFixedRenderFrame@ioWnd@@UBEHXZ:PROC	; ioWnd::GetNumFixedRenderFrame
EXTRN	?GetFixedRenderFrameType@ioWnd@@UAEPBDH@Z:PROC	; ioWnd::GetFixedRenderFrameType
EXTRN	?GetRenderFrame@ioWnd@@UAEPAPAVioUIRenderElement@@PBD@Z:PROC ; ioWnd::GetRenderFrame
EXTRN	?GetNumFixedRenderImage@ioWnd@@UBEHXZ:PROC	; ioWnd::GetNumFixedRenderImage
EXTRN	?GetFixedRenderImageType@ioWnd@@UAEPBDH@Z:PROC	; ioWnd::GetFixedRenderImageType
EXTRN	?GetRenderImage@ioWnd@@UAEPAPAVioUIRenderElement@@PBD@Z:PROC ; ioWnd::GetRenderImage
EXTRN	?AddEffect@ioWnd@@UAEXABVioHashString@@PAVioUI3DEffectRender@@@Z:PROC ; ioWnd::AddEffect
EXTRN	?GetEffect@ioWnd@@UAEPAVioUI3DEffectRender@@VioHashString@@@Z:PROC ; ioWnd::GetEffect
EXTRN	??_EShuffleBonusResultWnd@@UAEPAXI@Z:PROC	; ShuffleBonusResultWnd::`vector deleting destructor'
;	COMDAT ??_R2ioWnd@@8
; File d:\lost saga for developer\youtube\tutorial\source\src\lsclient\gui\shufflebonusresultwnd.cpp
rdata$r	SEGMENT
??_R2ioWnd@@8 DD FLAT:??_R1A@?0A@EA@ioWnd@@8		; ioWnd::`RTTI Base Class Array'
rdata$r	ENDS
;	COMDAT ??_R3ioWnd@@8
rdata$r	SEGMENT
??_R3ioWnd@@8 DD 00H					; ioWnd::`RTTI Class Hierarchy Descriptor'
	DD	00H
	DD	01H
	DD	FLAT:??_R2ioWnd@@8
rdata$r	ENDS
;	COMDAT ??_R0?AVioWnd@@@8
_DATA	SEGMENT
??_R0?AVioWnd@@@8 DD FLAT:??_7type_info@@6B@		; ioWnd `RTTI Type Descriptor'
	DD	00H
	DB	'.?AVioWnd@@', 00H
_DATA	ENDS
;	COMDAT ??_R1A@?0A@EA@ioWnd@@8
rdata$r	SEGMENT
??_R1A@?0A@EA@ioWnd@@8 DD FLAT:??_R0?AVioWnd@@@8	; ioWnd::`RTTI Base Class Descriptor at (0,-1,0,64)'
	DD	00H
	DD	00H
	DD	0ffffffffH
	DD	00H
	DD	040H
	DD	FLAT:??_R3ioWnd@@8
rdata$r	ENDS
;	COMDAT ??_R1A@?0A@EA@ShuffleBonusResultWnd@@8
rdata$r	SEGMENT
??_R1A@?0A@EA@ShuffleBonusResultWnd@@8 DD FLAT:??_R0?AVShuffleBonusResultWnd@@@8 ; ShuffleBonusResultWnd::`RTTI Base Class Descriptor at (0,-1,0,64)'
	DD	01H
	DD	00H
	DD	0ffffffffH
	DD	00H
	DD	040H
	DD	FLAT:??_R3ShuffleBonusResultWnd@@8
rdata$r	ENDS
;	COMDAT ??_R2ShuffleBonusResultWnd@@8
rdata$r	SEGMENT
??_R2ShuffleBonusResultWnd@@8 DD FLAT:??_R1A@?0A@EA@ShuffleBonusResultWnd@@8 ; ShuffleBonusResultWnd::`RTTI Base Class Array'
	DD	FLAT:??_R1A@?0A@EA@ioWnd@@8
rdata$r	ENDS
;	COMDAT ??_R3ShuffleBonusResultWnd@@8
rdata$r	SEGMENT
??_R3ShuffleBonusResultWnd@@8 DD 00H			; ShuffleBonusResultWnd::`RTTI Class Hierarchy Descriptor'
	DD	00H
	DD	02H
	DD	FLAT:??_R2ShuffleBonusResultWnd@@8
rdata$r	ENDS
;	COMDAT ??_R0?AVShuffleBonusResultWnd@@@8
_DATA	SEGMENT
??_R0?AVShuffleBonusResultWnd@@@8 DD FLAT:??_7type_info@@6B@ ; ShuffleBonusResultWnd `RTTI Type Descriptor'
	DD	00H
	DB	'.?AVShuffleBonusResultWnd@@', 00H
_DATA	ENDS
;	COMDAT ??_R4ShuffleBonusResultWnd@@6B@
rdata$r	SEGMENT
??_R4ShuffleBonusResultWnd@@6B@ DD 00H			; ShuffleBonusResultWnd::`RTTI Complete Object Locator'
	DD	00H
	DD	00H
	DD	FLAT:??_R0?AVShuffleBonusResultWnd@@@8
	DD	FLAT:??_R3ShuffleBonusResultWnd@@8
rdata$r	ENDS
;	COMDAT ??_7ShuffleBonusResultWnd@@6B@
CONST	SEGMENT
??_7ShuffleBonusResultWnd@@6B@ DD FLAT:??_R4ShuffleBonusResultWnd@@6B@ ; ShuffleBonusResultWnd::`vftable'
	DD	FLAT:?AddRenderFrame@ioWnd@@UAEXABVioHashString@@PAVioUIRenderFrame@@@Z
	DD	FLAT:?AddRenderImage@ShuffleBonusResultWnd@@UAEXABVioHashString@@PAVioUIRenderImage@@@Z
	DD	FLAT:?AddTooltipHelp@ioWnd@@UAEXABVioHashString@@00@Z
	DD	FLAT:?ParseExtraInfo@ioWnd@@UAEXAAVioXMLElement@@@Z
	DD	FLAT:?AddNamedRenderImage@ioWnd@@UAEXABVioHashString@@PAVioUIRenderImage@@@Z
	DD	FLAT:?RemoveNamedRenderImage@ioWnd@@UAEXABVioHashString@@@Z
	DD	FLAT:?GetNamedRenderImage@ioWnd@@UBEPAVioUIRenderImage@@ABVioHashString@@@Z
	DD	FLAT:?SetWindowAlpha@ioWnd@@UAEXH@Z
	DD	FLAT:?SetActive@ioWnd@@UAEXXZ
	DD	FLAT:?SetInActive@ioWnd@@UAEXXZ
	DD	FLAT:?ClearElementImageList@ioWnd@@UAEXXZ
	DD	FLAT:?SetSize@ioWnd@@UAEXHH@Z
	DD	FLAT:?SetPositionToDefault@ioWnd@@UAEXHH_N0@Z
	DD	FLAT:?IsNeedProcess@ioWnd@@UBE_NXZ
	DD	FLAT:?IsCanMouseReaction@ioWnd@@UBE_NXZ
	DD	FLAT:?AddChild@ioWnd@@UAEXPAV1@@Z
	DD	FLAT:?DeleteChild@ioWnd@@UAEXK@Z
	DD	FLAT:?DeleteAllChild@ioWnd@@UAEXXZ
	DD	FLAT:?OnRenderShowAndHide@ioWnd@@MAE_NXZ
	DD	FLAT:?OnRenderShowAndHideByDefault@ioWnd@@MAE_NK@Z
	DD	FLAT:?OnRenderShowAndHideByTop@ioWnd@@MAE_NK@Z
	DD	FLAT:?OnRenderShowAndHideByDown@ioWnd@@MAE_NK@Z
	DD	FLAT:?OnRender@ShuffleBonusResultWnd@@MAEXXZ
	DD	FLAT:?OnRenderAfterChild@ioWnd@@MAEXXZ
	DD	FLAT:?OnProcess@ShuffleBonusResultWnd@@MAEXM@Z
	DD	FLAT:?OnMouseProcess@ioWnd@@MAEXABVioMouse@@@Z
	DD	FLAT:?CheckFrameReSize@ioWnd@@MAEXHHHH@Z
	DD	FLAT:?RenderImageList@ioWnd@@MAEXHHW4UIRenderType@@@Z
	DD	FLAT:?iwm_create@ioWnd@@UAEXXZ
	DD	FLAT:?iwm_destroy@ioWnd@@UAEXXZ
	DD	FLAT:?iwm_lbuttondown@ioWnd@@UAEXABVioMouse@@@Z
	DD	FLAT:?iwm_lbuttonup@ioWnd@@UAEXABVioMouse@@@Z
	DD	FLAT:?iwm_lbuttonDBLCLK@ioWnd@@UAEXABVioMouse@@@Z
	DD	FLAT:?iwm_rbuttondown@ioWnd@@UAEXABVioMouse@@@Z
	DD	FLAT:?iwm_rbuttonup@ioWnd@@UAEXABVioMouse@@@Z
	DD	FLAT:?iwm_command@ShuffleBonusResultWnd@@UAEXPAVioWnd@@HK@Z
	DD	FLAT:?iwm_mouseover@ioWnd@@UAEXABVioMouse@@@Z
	DD	FLAT:?iwm_mousemove@ioWnd@@UAEXABVioMouse@@@Z
	DD	FLAT:?iwm_mouseleave@ioWnd@@UAEXABVioMouse@@@Z
	DD	FLAT:?iwm_vscroll@ioWnd@@UAEXKH@Z
	DD	FLAT:?iwm_wheel@ioWnd@@UAEXH@Z
	DD	FLAT:?iwm_show@ioWnd@@UAEXXZ
	DD	FLAT:?iwm_hide@ioWnd@@UAEXXZ
	DD	FLAT:?iwm_esc@ioWnd@@UAE_NXZ
	DD	FLAT:?iwm_spacebar@ioWnd@@UAE_NXZ
	DD	FLAT:?iwm_gototop@ioWnd@@UAEXXZ
	DD	FLAT:?iwm_dragenter@ioWnd@@UAE?AW4IWDropEffect@@PAVioDragItem@@ABVioMouse@@@Z
	DD	FLAT:?iwm_dragover@ioWnd@@UAE?AW4IWDropEffect@@PAVioDragItem@@ABVioMouse@@@Z
	DD	FLAT:?iwm_dragleave@ioWnd@@UAEXXZ
	DD	FLAT:?iwm_dropitem@ioWnd@@UAE_NPAVioDragItem@@ABVioMouse@@PAV1@@Z
	DD	FLAT:?iwm_dropdone@ioWnd@@UAEXPAVioDragItem@@PAV1@_N@Z
	DD	FLAT:?IsEXType@ioWnd@@UBE_NXZ
	DD	FLAT:?GetWndType@ioWnd@@UBEKXZ
	DD	FLAT:?RenderWnd@ioWnd@@UAEXXZ
	DD	FLAT:?SetIDEX@ioWnd@@UAEXAAK_N@Z
	DD	FLAT:?ParseXML@ioWnd@@UAEXAAVioXMLElement@@@Z
	DD	FLAT:?GetHeaderFileName@ioWnd@@UAEPBDXZ
	DD	FLAT:?GetTemplateName@ioWnd@@UAEPBDXZ
	DD	FLAT:?GetDefClassName@ioWnd@@UBEPBDXZ
	DD	FLAT:?_Clone@ioWnd@@UAEPAV1@XZ
	DD	FLAT:?Copy@ioWnd@@UAEXPAV1@@Z
	DD	FLAT:?Save@ioWnd@@UAE_NAAVioXMLElement@@@Z
	DD	FLAT:?SetSaveData@ioWnd@@UAEXAAVioXMLElement@@@Z
	DD	FLAT:?SetPosX@ioWnd@@UAEXH@Z
	DD	FLAT:?SetPosY@ioWnd@@UAEXH@Z
	DD	FLAT:?SetWidth@ioWnd@@UAEXH@Z
	DD	FLAT:?SetHeight@ioWnd@@UAEXH@Z
	DD	FLAT:?GetNumFixedRenderFrame@ioWnd@@UBEHXZ
	DD	FLAT:?GetFixedRenderFrameType@ioWnd@@UAEPBDH@Z
	DD	FLAT:?GetRenderFrame@ioWnd@@UAEPAPAVioUIRenderElement@@PBD@Z
	DD	FLAT:?GetNumFixedRenderImage@ioWnd@@UBEHXZ
	DD	FLAT:?GetFixedRenderImageType@ioWnd@@UAEPBDH@Z
	DD	FLAT:?GetRenderImage@ioWnd@@UAEPAPAVioUIRenderElement@@PBD@Z
	DD	FLAT:?AddEffect@ioWnd@@UAEXABVioHashString@@PAVioUI3DEffectRender@@@Z
	DD	FLAT:?GetEffect@ioWnd@@UAEPAVioUI3DEffectRender@@VioHashString@@@Z
	DD	FLAT:??_EShuffleBonusResultWnd@@UAEPAXI@Z
; Function compile flags: /Ogsp
CONST	ENDS
;	COMDAT ??0ShuffleBonusResultWnd@@QAE@XZ
_TEXT	SEGMENT
??0ShuffleBonusResultWnd@@QAE@XZ PROC			; ShuffleBonusResultWnd::ShuffleBonusResultWnd, COMDAT
; _this$ = ecx

; 23   : {

  00000	56		 push	 esi
  00001	8b f1		 mov	 esi, ecx
  00003	ff 15 00 00 00
	00		 call	 DWORD PTR __imp_??0ioWnd@@QAE@XZ

; 24   : 	m_pStarIcon = NULL;

  00009	33 c0		 xor	 eax, eax
  0000b	89 86 60 01 00
	00		 mov	 DWORD PTR [esi+352], eax

; 25   : 	m_pCross    = NULL;

  00011	89 86 64 01 00
	00		 mov	 DWORD PTR [esi+356], eax

; 26   : 	m_pNumber   = NULL;

  00017	89 86 68 01 00
	00		 mov	 DWORD PTR [esi+360], eax
  0001d	c7 06 00 00 00
	00		 mov	 DWORD PTR [esi], OFFSET ??_7ShuffleBonusResultWnd@@6B@

; 27   : }

  00023	8b c6		 mov	 eax, esi
  00025	5e		 pop	 esi
  00026	c3		 ret	 0
??0ShuffleBonusResultWnd@@QAE@XZ ENDP			; ShuffleBonusResultWnd::ShuffleBonusResultWnd
_TEXT	ENDS
PUBLIC	??1ShuffleBonusResultWnd@@UAE@XZ		; ShuffleBonusResultWnd::~ShuffleBonusResultWnd
EXTRN	__imp_??1ioWnd@@UAE@XZ:PROC
EXTRN	___CxxFrameHandler3:PROC
EXTRN	@__security_check_cookie@4:PROC
EXTRN	__EH_epilog3:PROC
EXTRN	__EH_prolog3:PROC
;	COMDAT xdata$x
xdata$x	SEGMENT
__unwindtable$??1ShuffleBonusResultWnd@@UAE@XZ DD 0ffffffffH
	DD	FLAT:__unwindfunclet$??1ShuffleBonusResultWnd@@UAE@XZ$0
__ehfuncinfo$??1ShuffleBonusResultWnd@@UAE@XZ DD 019930522H
	DD	01H
	DD	FLAT:__unwindtable$??1ShuffleBonusResultWnd@@UAE@XZ
	DD	2 DUP(00H)
	DD	2 DUP(00H)
	DD	00H
	DD	01H
; Function compile flags: /Ogsp
xdata$x	ENDS
;	COMDAT ??1ShuffleBonusResultWnd@@UAE@XZ
_TEXT	SEGMENT
_this$ = -16						; size = 4
__$EHRec$ = -12						; size = 12
??1ShuffleBonusResultWnd@@UAE@XZ PROC			; ShuffleBonusResultWnd::~ShuffleBonusResultWnd, COMDAT
; _this$ = ecx

; 30   : {

  00000	6a 04		 push	 4
  00002	b8 00 00 00 00	 mov	 eax, __ehhandler$??1ShuffleBonusResultWnd@@UAE@XZ
  00007	e8 00 00 00 00	 call	 __EH_prolog3
  0000c	8b f1		 mov	 esi, ecx
  0000e	89 75 f0	 mov	 DWORD PTR _this$[ebp], esi
  00011	c7 06 00 00 00
	00		 mov	 DWORD PTR [esi], OFFSET ??_7ShuffleBonusResultWnd@@6B@

; 31   : 	SAFEDELETE( m_pStarIcon );

  00017	8b 8e 60 01 00
	00		 mov	 ecx, DWORD PTR [esi+352]
  0001d	83 65 fc 00	 and	 DWORD PTR __$EHRec$[ebp+8], 0
  00021	85 c9		 test	 ecx, ecx
  00023	74 0e		 je	 SHORT $LN3@ShuffleBon
  00025	8b 01		 mov	 eax, DWORD PTR [ecx]
  00027	6a 01		 push	 1
  00029	ff 50 40	 call	 DWORD PTR [eax+64]
  0002c	83 a6 60 01 00
	00 00		 and	 DWORD PTR [esi+352], 0
$LN3@ShuffleBon:

; 32   : 	SAFEDELETE( m_pCross );

  00033	8b 8e 64 01 00
	00		 mov	 ecx, DWORD PTR [esi+356]
  00039	85 c9		 test	 ecx, ecx
  0003b	74 0e		 je	 SHORT $LN2@ShuffleBon
  0003d	8b 01		 mov	 eax, DWORD PTR [ecx]
  0003f	6a 01		 push	 1
  00041	ff 50 40	 call	 DWORD PTR [eax+64]
  00044	83 a6 64 01 00
	00 00		 and	 DWORD PTR [esi+356], 0
$LN2@ShuffleBon:

; 33   : 	SAFEDELETE( m_pNumber );

  0004b	8b 8e 68 01 00
	00		 mov	 ecx, DWORD PTR [esi+360]
  00051	85 c9		 test	 ecx, ecx
  00053	74 0e		 je	 SHORT $LN1@ShuffleBon
  00055	8b 01		 mov	 eax, DWORD PTR [ecx]
  00057	6a 01		 push	 1
  00059	ff 50 40	 call	 DWORD PTR [eax+64]
  0005c	83 a6 68 01 00
	00 00		 and	 DWORD PTR [esi+360], 0
$LN1@ShuffleBon:

; 34   : }

  00063	83 4d fc ff	 or	 DWORD PTR __$EHRec$[ebp+8], -1
  00067	8b ce		 mov	 ecx, esi
  00069	ff 15 00 00 00
	00		 call	 DWORD PTR __imp_??1ioWnd@@UAE@XZ
  0006f	e8 00 00 00 00	 call	 __EH_epilog3
  00074	c3		 ret	 0
_TEXT	ENDS
;	COMDAT text$x
text$x	SEGMENT
__unwindfunclet$??1ShuffleBonusResultWnd@@UAE@XZ$0:
  00000	8b 4d f0	 mov	 ecx, DWORD PTR _this$[ebp]
  00003	ff 25 00 00 00
	00		 jmp	 DWORD PTR __imp_??1ioWnd@@UAE@XZ
__ehhandler$??1ShuffleBonusResultWnd@@UAE@XZ:
  00009	8b 54 24 08	 mov	 edx, DWORD PTR [esp+8]
  0000d	8d 42 0c	 lea	 eax, DWORD PTR [edx+12]
  00010	8b 4a ec	 mov	 ecx, DWORD PTR [edx-20]
  00013	33 c8		 xor	 ecx, eax
  00015	e8 00 00 00 00	 call	 @__security_check_cookie@4
  0001a	b8 00 00 00 00	 mov	 eax, OFFSET __ehfuncinfo$??1ShuffleBonusResultWnd@@UAE@XZ
  0001f	e9 00 00 00 00	 jmp	 ___CxxFrameHandler3
text$x	ENDS
??1ShuffleBonusResultWnd@@UAE@XZ ENDP			; ShuffleBonusResultWnd::~ShuffleBonusResultWnd
EXTRN	__imp_?OnProcess@ioWnd@@MAEXM@Z:PROC
EXTRN	__imp_?IsShow@ioWnd@@QBE_NXZ:PROC
EXTRN	__fltused:DWORD
; Function compile flags: /Ogsp
;	COMDAT ?OnProcess@ShuffleBonusResultWnd@@MAEXM@Z
_TEXT	SEGMENT
_fTimePerSec$ = 8					; size = 4
?OnProcess@ShuffleBonusResultWnd@@MAEXM@Z PROC		; ShuffleBonusResultWnd::OnProcess, COMDAT
; _this$ = ecx

; 60   : {

  00000	55		 push	 ebp
  00001	8b ec		 mov	 ebp, esp
  00003	56		 push	 esi
  00004	8b f1		 mov	 esi, ecx

; 61   : 	if( !IsShow() ) return;

  00006	ff 15 00 00 00
	00		 call	 DWORD PTR __imp_?IsShow@ioWnd@@QBE_NXZ
  0000c	84 c0		 test	 al, al
  0000e	74 13		 je	 SHORT $LN2@OnProcess

; 62   : 
; 63   : 	ioWnd::OnProcess( fTimePerSec );

  00010	f3 0f 10 45 08	 movss	 xmm0, DWORD PTR _fTimePerSec$[ebp]
  00015	51		 push	 ecx
  00016	8b ce		 mov	 ecx, esi
  00018	f3 0f 11 04 24	 movss	 DWORD PTR [esp], xmm0
  0001d	ff 15 00 00 00
	00		 call	 DWORD PTR __imp_?OnProcess@ioWnd@@MAEXM@Z
$LN2@OnProcess:
  00023	5e		 pop	 esi

; 64   : }

  00024	5d		 pop	 ebp
  00025	c2 04 00	 ret	 4
?OnProcess@ShuffleBonusResultWnd@@MAEXM@Z ENDP		; ShuffleBonusResultWnd::OnProcess
_TEXT	ENDS
PUBLIC	??_C@_0CD@HKDEOBFF@ShuffleBonusResultWnd?3?3iwm_comma@ ; `string'
PUBLIC	??_C@_00CNPNBAHC@?$AA@				; `string'
PUBLIC	__$ArrayPad$
EXTRN	__imp_?SetTitleText@ioWnd@@QAEXPBD0H@Z:PROC
EXTRN	__imp_?GetString@ioStringManager@@QAEPADPBD0HW4FileNamePrefix@1@@Z:PROC
EXTRN	__imp_?GetSingleton@ioStringManager@@SAAAV1@XZ:PROC
EXTRN	__imp_?FindChildWnd@ioWnd@@QAEPAV1@K@Z:PROC
EXTRN	??1SP2Packet@@UAE@XZ:PROC			; SP2Packet::~SP2Packet
EXTRN	?MouseBusy@TCPNetwork@@YAX_N@Z:PROC		; TCPNetwork::MouseBusy
EXTRN	?SendToServer@TCPNetwork@@YAXAAVSP2Packet@@@Z:PROC ; TCPNetwork::SendToServer
EXTRN	??6SP2Packet@@QAEAAV0@_N@Z:PROC			; SP2Packet::operator<<
EXTRN	??6SP2Packet@@QAEAAV0@H@Z:PROC			; SP2Packet::operator<<
EXTRN	??0SP2Packet@@QAE@K@Z:PROC			; SP2Packet::SP2Packet
EXTRN	__imp_?GetID@ioWnd@@QBEKXZ:PROC
EXTRN	___security_cookie:DWORD
EXTRN	__chkstk:PROC
;	COMDAT ??_C@_0CD@HKDEOBFF@ShuffleBonusResultWnd?3?3iwm_comma@
CONST	SEGMENT
??_C@_0CD@HKDEOBFF@ShuffleBonusResultWnd?3?3iwm_comma@ DB 'ShuffleBonusRe'
	DB	'sultWnd::iwm_command', 00H			; `string'
CONST	ENDS
;	COMDAT ??_C@_00CNPNBAHC@?$AA@
CONST	SEGMENT
??_C@_00CNPNBAHC@?$AA@ DB 00H				; `string'
CONST	ENDS
;	COMDAT xdata$x
xdata$x	SEGMENT
__unwindtable$?iwm_command@ShuffleBonusResultWnd@@UAEXPAVioWnd@@HK@Z DD 0ffffffffH
	DD	FLAT:__unwindfunclet$?iwm_command@ShuffleBonusResultWnd@@UAEXPAVioWnd@@HK@Z$0
__ehfuncinfo$?iwm_command@ShuffleBonusResultWnd@@UAEXPAVioWnd@@HK@Z DD 019930522H
	DD	01H
	DD	FLAT:__unwindtable$?iwm_command@ShuffleBonusResultWnd@@UAEXPAVioWnd@@HK@Z
	DD	2 DUP(00H)
	DD	2 DUP(00H)
	DD	00H
	DD	01H
; Function compile flags: /Ogsp
xdata$x	ENDS
;	COMDAT ?iwm_command@ShuffleBonusResultWnd@@UAEXPAVioWnd@@HK@Z
_TEXT	SEGMENT
_kPacket$506847 = -32808				; size = 32792
__$ArrayPad$ = -16					; size = 4
__$EHRec$ = -12						; size = 12
_pWnd$ = 8						; size = 4
_cmd$ = 12						; size = 4
_param$ = 16						; size = 4
?iwm_command@ShuffleBonusResultWnd@@UAEXPAVioWnd@@HK@Z PROC ; ShuffleBonusResultWnd::iwm_command, COMDAT
; _this$ = ecx

; 67   : {

  00000	55		 push	 ebp
  00001	8b ec		 mov	 ebp, esp
  00003	6a ff		 push	 -1
  00005	68 00 00 00 00	 push	 __ehhandler$?iwm_command@ShuffleBonusResultWnd@@UAEXPAVioWnd@@HK@Z
  0000a	64 a1 00 00 00
	00		 mov	 eax, DWORD PTR fs:0
  00010	50		 push	 eax
  00011	b8 1c 80 00 00	 mov	 eax, 32796		; 0000801cH
  00016	e8 00 00 00 00	 call	 __chkstk
  0001b	a1 00 00 00 00	 mov	 eax, DWORD PTR ___security_cookie
  00020	33 c5		 xor	 eax, ebp
  00022	89 45 f0	 mov	 DWORD PTR __$ArrayPad$[ebp], eax
  00025	56		 push	 esi
  00026	50		 push	 eax
  00027	8d 45 f4	 lea	 eax, DWORD PTR __$EHRec$[ebp]
  0002a	64 a3 00 00 00
	00		 mov	 DWORD PTR fs:0, eax
  00030	8b f1		 mov	 esi, ecx
  00032	8b 4d 08	 mov	 ecx, DWORD PTR _pWnd$[ebp]

; 68   : 	DWORD dwID = pWnd->GetID();

  00035	ff 15 00 00 00
	00		 call	 DWORD PTR __imp_?GetID@ioWnd@@QBEKXZ

; 69   : 	switch( dwID )

  0003b	48		 dec	 eax
  0003c	74 67		 je	 SHORT $LN5@iwm_comman
  0003e	48		 dec	 eax
  0003f	0f 85 a6 00 00
	00		 jne	 $LN3@iwm_comman

; 79   : 			}
; 80   : 		}
; 81   : 		break;
; 82   : 	case ID_LOBBY:
; 83   : 		if( cmd == IOBN_BTNUP )

  00045	83 7d 0c 11	 cmp	 DWORD PTR _cmd$[ebp], 17 ; 00000011H
  00049	0f 85 9c 00 00
	00		 jne	 $LN3@iwm_comman

; 84   : 		{
; 85   : 			// 로비로 이동
; 86   : 			SP2Packet kPacket( CTPK_EXIT_ROOM );

  0004f	6a 08		 push	 8
  00051	8d 8d d8 7f ff
	ff		 lea	 ecx, DWORD PTR _kPacket$506847[ebp]
  00057	e8 00 00 00 00	 call	 ??0SP2Packet@@QAE@K@Z	; SP2Packet::SP2Packet
  0005c	83 65 fc 00	 and	 DWORD PTR __$EHRec$[ebp+8], 0

; 87   : 			kPacket << EXIT_ROOM_LOBBY << 0 << true;

  00060	6a 01		 push	 1
  00062	6a 00		 push	 0
  00064	6a 0b		 push	 11			; 0000000bH
  00066	8d 8d d8 7f ff
	ff		 lea	 ecx, DWORD PTR _kPacket$506847[ebp]
  0006c	e8 00 00 00 00	 call	 ??6SP2Packet@@QAEAAV0@H@Z ; SP2Packet::operator<<
  00071	8b c8		 mov	 ecx, eax
  00073	e8 00 00 00 00	 call	 ??6SP2Packet@@QAEAAV0@H@Z ; SP2Packet::operator<<
  00078	8b c8		 mov	 ecx, eax
  0007a	e8 00 00 00 00	 call	 ??6SP2Packet@@QAEAAV0@_N@Z ; SP2Packet::operator<<

; 88   : 			TCPNetwork::SendToServer( kPacket );

  0007f	8d 85 d8 7f ff
	ff		 lea	 eax, DWORD PTR _kPacket$506847[ebp]
  00085	50		 push	 eax
  00086	e8 00 00 00 00	 call	 ?SendToServer@TCPNetwork@@YAXAAVSP2Packet@@@Z ; TCPNetwork::SendToServer

; 89   : 			TCPNetwork::MouseBusy( true );

  0008b	6a 01		 push	 1
  0008d	e8 00 00 00 00	 call	 ?MouseBusy@TCPNetwork@@YAX_N@Z ; TCPNetwork::MouseBusy

; 90   : 		}

  00092	83 4d fc ff	 or	 DWORD PTR __$EHRec$[ebp+8], -1
  00096	59		 pop	 ecx
  00097	59		 pop	 ecx
  00098	8d 8d d8 7f ff
	ff		 lea	 ecx, DWORD PTR _kPacket$506847[ebp]
  0009e	e8 00 00 00 00	 call	 ??1SP2Packet@@UAE@XZ	; SP2Packet::~SP2Packet

; 91   : 		break;

  000a3	eb 46		 jmp	 SHORT $LN3@iwm_comman
$LN5@iwm_comman:

; 70   : 	{
; 71   : 	case ID_CONTINUE:
; 72   : 		if( cmd == IOBN_BTNUP )

  000a5	83 7d 0c 11	 cmp	 DWORD PTR _cmd$[ebp], 17 ; 00000011H
  000a9	75 40		 jne	 SHORT $LN3@iwm_comman

; 73   : 		{
; 74   : 			ioButton *pBtn = (ioButton*)( FindChildWnd( ID_CONTINUE ) );

  000ab	6a 01		 push	 1
  000ad	8b ce		 mov	 ecx, esi
  000af	ff 15 00 00 00
	00		 call	 DWORD PTR __imp_?FindChildWnd@ioWnd@@QAEPAV1@K@Z
  000b5	8b f0		 mov	 esi, eax

; 75   : 			if( pBtn )

  000b7	85 f6		 test	 esi, esi
  000b9	74 30		 je	 SHORT $LN3@iwm_comman

; 76   : 			{
; 77   : 				pBtn->SetTitleText( STR(1) );

  000bb	6a 00		 push	 0
  000bd	b8 00 00 00 00	 mov	 eax, OFFSET ??_C@_00CNPNBAHC@?$AA@
  000c2	50		 push	 eax
  000c3	6a 00		 push	 0
  000c5	6a 01		 push	 1
  000c7	50		 push	 eax
  000c8	68 00 00 00 00	 push	 OFFSET ??_C@_0CD@HKDEOBFF@ShuffleBonusResultWnd?3?3iwm_comma@
  000cd	ff 15 00 00 00
	00		 call	 DWORD PTR __imp_?GetSingleton@ioStringManager@@SAAAV1@XZ
  000d3	8b c8		 mov	 ecx, eax
  000d5	ff 15 00 00 00
	00		 call	 DWORD PTR __imp_?GetString@ioStringManager@@QAEPADPBD0HW4FileNamePrefix@1@@Z
  000db	50		 push	 eax
  000dc	8b ce		 mov	 ecx, esi
  000de	ff 15 00 00 00
	00		 call	 DWORD PTR __imp_?SetTitleText@ioWnd@@QAEXPBD0H@Z

; 78   : 				pBtn->SetInActive();

  000e4	8b 06		 mov	 eax, DWORD PTR [esi]
  000e6	8b ce		 mov	 ecx, esi
  000e8	ff 50 24	 call	 DWORD PTR [eax+36]
$LN3@iwm_comman:

; 92   : 	}
; 93   : }

  000eb	8b 4d f4	 mov	 ecx, DWORD PTR __$EHRec$[ebp]
  000ee	64 89 0d 00 00
	00 00		 mov	 DWORD PTR fs:0, ecx
  000f5	59		 pop	 ecx
  000f6	5e		 pop	 esi
  000f7	8b 4d f0	 mov	 ecx, DWORD PTR __$ArrayPad$[ebp]
  000fa	33 cd		 xor	 ecx, ebp
  000fc	e8 00 00 00 00	 call	 @__security_check_cookie@4
  00101	c9		 leave
  00102	c2 0c 00	 ret	 12			; 0000000cH
_TEXT	ENDS
;	COMDAT text$x
text$x	SEGMENT
__unwindfunclet$?iwm_command@ShuffleBonusResultWnd@@UAEXPAVioWnd@@HK@Z$0:
  00000	8d 8d d8 7f ff
	ff		 lea	 ecx, DWORD PTR _kPacket$506847[ebp]
  00006	e9 00 00 00 00	 jmp	 ??1SP2Packet@@UAE@XZ	; SP2Packet::~SP2Packet
__ehhandler$?iwm_command@ShuffleBonusResultWnd@@UAEXPAVioWnd@@HK@Z:
  0000b	8b 54 24 08	 mov	 edx, DWORD PTR [esp+8]
  0000f	8d 42 0c	 lea	 eax, DWORD PTR [edx+12]
  00012	8b 8a dc 7f ff
	ff		 mov	 ecx, DWORD PTR [edx-32804]
  00018	33 c8		 xor	 ecx, eax
  0001a	e8 00 00 00 00	 call	 @__security_check_cookie@4
  0001f	8b 4a fc	 mov	 ecx, DWORD PTR [edx-4]
  00022	33 c8		 xor	 ecx, eax
  00024	e8 00 00 00 00	 call	 @__security_check_cookie@4
  00029	b8 00 00 00 00	 mov	 eax, OFFSET __ehfuncinfo$?iwm_command@ShuffleBonusResultWnd@@UAEXPAVioWnd@@HK@Z
  0002e	e9 00 00 00 00	 jmp	 ___CxxFrameHandler3
text$x	ENDS
?iwm_command@ShuffleBonusResultWnd@@UAEXPAVioWnd@@HK@Z ENDP ; ShuffleBonusResultWnd::iwm_command
PUBLIC	__real@3f800000
PUBLIC	__real@4f800000
PUBLIC	?RenderStarCount@ShuffleBonusResultWnd@@IAEXHH@Z ; ShuffleBonusResultWnd::RenderStarCount
EXTRN	__imp_?RenderNum@ioUIRenderImage@@QAEXMMHMMW4UIRenderType@@W4TextureFilterOption@@0W4RenerNumerFormatting@1@@Z:PROC
EXTRN	?GetSingleton@ioShuffleRoomMgr@@SAAAV1@XZ:PROC	; ioShuffleRoomMgr::GetSingleton
EXTRN	__imp_?GetWidth@ioUIRenderElement@@QBEHXZ:PROC
;	COMDAT __real@3f800000
; File d:\lost saga for developer\youtube\tutorial\source\src\lsclient\stdafx.h
CONST	SEGMENT
__real@3f800000 DD 03f800000r			; 1
CONST	ENDS
;	COMDAT __real@4f800000
CONST	SEGMENT
__real@4f800000 DD 04f800000r			; 4.29497e+009
; Function compile flags: /Ogsp
; File d:\lost saga for developer\youtube\tutorial\source\src\lsclient\gui\shufflebonusresultwnd.cpp
CONST	ENDS
;	COMDAT ?RenderStarCount@ShuffleBonusResultWnd@@IAEXHH@Z
_TEXT	SEGMENT
tv267 = -16						; size = 4
_iCrossWidth$ = -12					; size = 4
_iStarCnt$ = -8						; size = 4
_iStarWidth$ = -4					; size = 4
tv246 = 8						; size = 4
_iXPos$ = 8						; size = 4
_iYPos$ = 12						; size = 4
?RenderStarCount@ShuffleBonusResultWnd@@IAEXHH@Z PROC	; ShuffleBonusResultWnd::RenderStarCount, COMDAT
; _this$ = ecx

; 134  : {

  00000	55		 push	 ebp
  00001	8b ec		 mov	 ebp, esp
  00003	83 ec 10	 sub	 esp, 16			; 00000010H
  00006	53		 push	 ebx
  00007	56		 push	 esi
  00008	8b f1		 mov	 esi, ecx

; 135  : 	if( !m_pStarIcon && !m_pCross && !m_pNumber )

  0000a	8b 8e 60 01 00
	00		 mov	 ecx, DWORD PTR [esi+352]
  00010	33 db		 xor	 ebx, ebx
  00012	3b cb		 cmp	 ecx, ebx
  00014	75 14		 jne	 SHORT $LN6@RenderStar
  00016	39 9e 64 01 00
	00		 cmp	 DWORD PTR [esi+356], ebx
  0001c	75 0c		 jne	 SHORT $LN6@RenderStar
  0001e	39 9e 68 01 00
	00		 cmp	 DWORD PTR [esi+360], ebx
  00024	0f 84 48 01 00
	00		 je	 $LN7@RenderStar
$LN6@RenderStar:
  0002a	57		 push	 edi

; 136  : 		return;
; 137  : 
; 138  : 	int iStarWidth = m_pStarIcon->GetWidth();

  0002b	ff 15 00 00 00
	00		 call	 DWORD PTR __imp_?GetWidth@ioUIRenderElement@@QBEHXZ

; 139  : 	int iCrossWidth = m_pCross->GetWidth();

  00031	8b 8e 64 01 00
	00		 mov	 ecx, DWORD PTR [esi+356]
  00037	89 45 fc	 mov	 DWORD PTR _iStarWidth$[ebp], eax
  0003a	ff 15 00 00 00
	00		 call	 DWORD PTR __imp_?GetWidth@ioUIRenderElement@@QBEHXZ

; 140  : 	int iNumberWidth = m_pNumber->GetWidth() / 10;

  00040	8b 8e 68 01 00
	00		 mov	 ecx, DWORD PTR [esi+360]
  00046	89 45 f4	 mov	 DWORD PTR _iCrossWidth$[ebp], eax
  00049	ff 15 00 00 00
	00		 call	 DWORD PTR __imp_?GetWidth@ioUIRenderElement@@QBEHXZ
  0004f	99		 cdq
  00050	6a 0a		 push	 10			; 0000000aH
  00052	59		 pop	 ecx
  00053	f7 f9		 idiv	 ecx
  00055	8b f8		 mov	 edi, eax

; 141  : 
; 142  : 	int iStarCnt = g_ShuffleRoomMgr.GetShuffleStarCnt();

  00057	e8 00 00 00 00	 call	 ?GetSingleton@ioShuffleRoomMgr@@SAAAV1@XZ ; ioShuffleRoomMgr::GetSingleton
  0005c	8b 88 0c 01 00
	00		 mov	 ecx, DWORD PTR [eax+268]
  00062	89 4d f8	 mov	 DWORD PTR _iStarCnt$[ebp], ecx

; 143  : 
; 144  : 	if( iStarCnt < 10 )

  00065	83 f9 0a	 cmp	 ecx, 10			; 0000000aH

; 145  : 		iNumberWidth *= 1;

  00068	7c 2d		 jl	 SHORT $LN1@RenderStar

; 146  : 	else if( iStarCnt < FLOAT100 )

  0006a	b8 64 00 00 00	 mov	 eax, 100		; 00000064H
  0006f	db 45 f8	 fild	 DWORD PTR _iStarCnt$[ebp]
  00072	89 45 f0	 mov	 DWORD PTR tv267[ebp], eax
  00075	db 45 f0	 fild	 DWORD PTR tv267[ebp]
  00078	85 c0		 test	 eax, eax
  0007a	79 06		 jns	 SHORT $LN15@RenderStar
  0007c	d8 05 00 00 00
	00		 fadd	 DWORD PTR __real@4f800000
$LN15@RenderStar:
  00082	df f1		 fcomip	 ST(1)
  00084	dd d8		 fstp	 ST(0)
  00086	76 04		 jbe	 SHORT $LN3@RenderStar

; 147  : 		iNumberWidth *= 2;

  00088	03 ff		 add	 edi, edi
  0008a	eb 0b		 jmp	 SHORT $LN1@RenderStar
$LN3@RenderStar:

; 148  : 	else if( iStarCnt < 1000 )

  0008c	81 f9 e8 03 00
	00		 cmp	 ecx, 1000		; 000003e8H
  00092	7d 03		 jge	 SHORT $LN1@RenderStar

; 149  : 		iNumberWidth *= 3;

  00094	6b ff 03	 imul	 edi, 3
$LN1@RenderStar:

; 150  : 
; 151  : 	int iXOffset = iXPos - ( ( iStarWidth + iCrossWidth + iNumberWidth - 25 ) / 2 );

  00097	03 7d f4	 add	 edi, DWORD PTR _iCrossWidth$[ebp]
  0009a	8b 45 fc	 mov	 eax, DWORD PTR _iStarWidth$[ebp]

; 152  : 
; 153  : 	m_pStarIcon->Render( iXOffset, iYPos, UI_RENDER_NORMAL, TFO_BILINEAR );

  0009d	8b 8e 60 01 00
	00		 mov	 ecx, DWORD PTR [esi+352]
  000a3	66 0f 6e 45 0c	 movd	 xmm0, DWORD PTR _iYPos$[ebp]
  000a8	53		 push	 ebx
  000a9	8d 44 07 e7	 lea	 eax, DWORD PTR [edi+eax-25]
  000ad	8b 7d 08	 mov	 edi, DWORD PTR _iXPos$[ebp]
  000b0	53		 push	 ebx
  000b1	6a 01		 push	 1
  000b3	99		 cdq
  000b4	53		 push	 ebx
  000b5	2b c2		 sub	 eax, edx
  000b7	51		 push	 ecx
  000b8	d1 f8		 sar	 eax, 1
  000ba	0f 5b c0	 cvtdq2ps xmm0, xmm0
  000bd	51		 push	 ecx
  000be	f3 0f 11 44 24
	04		 movss	 DWORD PTR [esp+4], xmm0
  000c4	2b f8		 sub	 edi, eax
  000c6	8b 01		 mov	 eax, DWORD PTR [ecx]
  000c8	0f 57 c0	 xorps	 xmm0, xmm0
  000cb	f3 0f 2a c7	 cvtsi2ss xmm0, edi
  000cf	f3 0f 11 04 24	 movss	 DWORD PTR [esp], xmm0
  000d4	ff 10		 call	 DWORD PTR [eax]

; 154  : 
; 155  : 	iXOffset += iStarWidth - 24;
; 156  : 	m_pCross->Render( iXOffset, iYPos + 24 );

  000d6	8b 8e 64 01 00
	00		 mov	 ecx, DWORD PTR [esi+356]
  000dc	8b 55 0c	 mov	 edx, DWORD PTR _iYPos$[ebp]
  000df	8b 45 fc	 mov	 eax, DWORD PTR _iStarWidth$[ebp]
  000e2	53		 push	 ebx
  000e3	53		 push	 ebx
  000e4	53		 push	 ebx
  000e5	53		 push	 ebx
  000e6	0f 57 c0	 xorps	 xmm0, xmm0
  000e9	51		 push	 ecx
  000ea	83 c2 18	 add	 edx, 24			; 00000018H
  000ed	f3 0f 2a c2	 cvtsi2ss xmm0, edx
  000f1	51		 push	 ecx
  000f2	f3 0f 11 44 24
	04		 movss	 DWORD PTR [esp+4], xmm0
  000f8	8d 7c 07 e8	 lea	 edi, DWORD PTR [edi+eax-24]
  000fc	8b 01		 mov	 eax, DWORD PTR [ecx]
  000fe	0f 57 c0	 xorps	 xmm0, xmm0
  00101	f3 0f 2a c7	 cvtsi2ss xmm0, edi
  00105	f3 0f 11 04 24	 movss	 DWORD PTR [esp], xmm0
  0010a	ff 10		 call	 DWORD PTR [eax]

; 157  : 
; 158  : 	iXOffset += iCrossWidth - 1;
; 159  : 	m_pNumber->RenderNum( iXOffset, iYPos + 16, iStarCnt, -FLOAT1 );

  0010c	b8 01 00 00 00	 mov	 eax, 1
  00111	f3 0f 10 05 00
	00 00 00	 movss	 xmm0, DWORD PTR __real@3f800000
  00119	53		 push	 ebx
  0011a	53		 push	 ebx
  0011b	53		 push	 ebx
  0011c	53		 push	 ebx
  0011d	51		 push	 ecx
  0011e	51		 push	 ecx
  0011f	89 45 08	 mov	 DWORD PTR tv246[ebp], eax
  00122	db 45 08	 fild	 DWORD PTR tv246[ebp]
  00125	f3 0f 11 44 24
	04		 movss	 DWORD PTR [esp+4], xmm0
  0012b	85 c0		 test	 eax, eax
  0012d	79 06		 jns	 SHORT $LN16@RenderStar
  0012f	d8 05 00 00 00
	00		 fadd	 DWORD PTR __real@4f800000
$LN16@RenderStar:
  00135	8b 45 0c	 mov	 eax, DWORD PTR _iYPos$[ebp]
  00138	d9 e0		 fchs
  0013a	d9 1c 24	 fstp	 DWORD PTR [esp]
  0013d	ff 75 f8	 push	 DWORD PTR _iStarCnt$[ebp]
  00140	83 c0 10	 add	 eax, 16			; 00000010H
  00143	0f 57 c0	 xorps	 xmm0, xmm0
  00146	f3 0f 2a c0	 cvtsi2ss xmm0, eax
  0014a	8b 45 f4	 mov	 eax, DWORD PTR _iCrossWidth$[ebp]
  0014d	51		 push	 ecx
  0014e	51		 push	 ecx
  0014f	8b 8e 68 01 00
	00		 mov	 ecx, DWORD PTR [esi+360]
  00155	f3 0f 11 44 24
	04		 movss	 DWORD PTR [esp+4], xmm0
  0015b	8d 44 07 ff	 lea	 eax, DWORD PTR [edi+eax-1]
  0015f	0f 57 c0	 xorps	 xmm0, xmm0
  00162	f3 0f 2a c0	 cvtsi2ss xmm0, eax
  00166	f3 0f 11 04 24	 movss	 DWORD PTR [esp], xmm0
  0016b	ff 15 00 00 00
	00		 call	 DWORD PTR __imp_?RenderNum@ioUIRenderImage@@QAEXMMHMMW4UIRenderType@@W4TextureFilterOption@@0W4RenerNumerFormatting@1@@Z
  00171	5f		 pop	 edi
$LN7@RenderStar:
  00172	5e		 pop	 esi
  00173	5b		 pop	 ebx

; 160  : }

  00174	c9		 leave
  00175	c2 08 00	 ret	 8
?RenderStarCount@ShuffleBonusResultWnd@@IAEXHH@Z ENDP	; ShuffleBonusResultWnd::RenderStarCount
_TEXT	ENDS
PUBLIC	?_DECSTR@@YAXPADH@Z				; _DECSTR
; Function compile flags: /Ogsp
; File d:\lost saga for developer\youtube\tutorial\source\src\lsclient\stringprotect.h
;	COMDAT ?_DECSTR@@YAXPADH@Z
_TEXT	SEGMENT
_s$ = 8							; size = 4
_l$ = 12						; size = 4
?_DECSTR@@YAXPADH@Z PROC				; _DECSTR, COMDAT

; 40   : __forceinline void _DECSTR(char* s, int l){int i=0,l4=(l-1)/4,*p=(int*)s;s[l-1]=0;for(;i<l4;++i)*(p++)^=0xEAEBECED;for(i=l4*4;i<l-1;++i)s[i]^=0xED-i%4;}

  00000	55		 push	 ebp
  00001	8b ec		 mov	 ebp, esp
  00003	8b 4d 0c	 mov	 ecx, DWORD PTR _l$[ebp]
  00006	56		 push	 esi
  00007	8b 75 08	 mov	 esi, DWORD PTR _s$[ebp]
  0000a	57		 push	 edi
  0000b	8d 79 ff	 lea	 edi, DWORD PTR [ecx-1]
  0000e	8b c7		 mov	 eax, edi
  00010	99		 cdq
  00011	83 e2 03	 and	 edx, 3
  00014	03 c2		 add	 eax, edx
  00016	c1 f8 02	 sar	 eax, 2
  00019	8b d6		 mov	 edx, esi
  0001b	c6 44 0e ff 00	 mov	 BYTE PTR [esi+ecx-1], 0
  00020	85 c0		 test	 eax, eax
  00022	7e 0e		 jle	 SHORT $LN4@DECSTR
  00024	8b c8		 mov	 ecx, eax
$LL6@DECSTR:
  00026	81 32 ed ec eb
	ea		 xor	 DWORD PTR [edx], -353637139 ; eaebecedH
  0002c	83 c2 04	 add	 edx, 4
  0002f	49		 dec	 ecx
  00030	75 f4		 jne	 SHORT $LL6@DECSTR
$LN4@DECSTR:
  00032	c1 e0 02	 shl	 eax, 2
  00035	eb 17		 jmp	 SHORT $LN14@DECSTR
$LL3@DECSTR:
  00037	8b c8		 mov	 ecx, eax
  00039	81 e1 03 00 00
	80		 and	 ecx, -2147483645	; 80000003H
  0003f	79 05		 jns	 SHORT $LN13@DECSTR
  00041	49		 dec	 ecx
  00042	83 c9 fc	 or	 ecx, -4			; fffffffcH
  00045	41		 inc	 ecx
$LN13@DECSTR:
  00046	b2 ed		 mov	 dl, -19			; ffffffedH
  00048	2a d1		 sub	 dl, cl
  0004a	30 14 30	 xor	 BYTE PTR [eax+esi], dl
  0004d	40		 inc	 eax
$LN14@DECSTR:
  0004e	3b c7		 cmp	 eax, edi
  00050	7c e5		 jl	 SHORT $LL3@DECSTR
  00052	5f		 pop	 edi
  00053	5e		 pop	 esi
  00054	5d		 pop	 ebp
  00055	c3		 ret	 0
?_DECSTR@@YAXPADH@Z ENDP				; _DECSTR
_TEXT	ENDS
EXTRN	??3@YAXPAX@Z:PROC				; operator delete
; Function compile flags: /Ogsp
;	COMDAT ??_GShuffleBonusResultWnd@@UAEPAXI@Z
_TEXT	SEGMENT
___flags$ = 8						; size = 4
??_GShuffleBonusResultWnd@@UAEPAXI@Z PROC		; ShuffleBonusResultWnd::`scalar deleting destructor', COMDAT
; _this$ = ecx
  00000	55		 push	 ebp
  00001	8b ec		 mov	 ebp, esp
  00003	56		 push	 esi
  00004	8b f1		 mov	 esi, ecx
  00006	e8 00 00 00 00	 call	 ??1ShuffleBonusResultWnd@@UAE@XZ ; ShuffleBonusResultWnd::~ShuffleBonusResultWnd
  0000b	f6 45 08 01	 test	 BYTE PTR ___flags$[ebp], 1
  0000f	74 07		 je	 SHORT $LN1@scalar
  00011	56		 push	 esi
  00012	e8 00 00 00 00	 call	 ??3@YAXPAX@Z		; operator delete
  00017	59		 pop	 ecx
$LN1@scalar:
  00018	8b c6		 mov	 eax, esi
  0001a	5e		 pop	 esi
  0001b	5d		 pop	 ebp
  0001c	c2 04 00	 ret	 4
??_GShuffleBonusResultWnd@@UAEPAXI@Z ENDP		; ShuffleBonusResultWnd::`scalar deleting destructor'
_TEXT	ENDS
PUBLIC	__real@3f266666
PUBLIC	__real@437f0000
PUBLIC	__real@3f59999a
PUBLIC	??_C@_0CA@LOELHDH@ShuffleBonusResultWnd?3?3OnRender?$AA@ ; `string'
EXTRN	??1ioComplexStringPrinter@@QAE@XZ:PROC		; ioComplexStringPrinter::~ioComplexStringPrinter
EXTRN	?AddTextPiece@ioComplexStringPrinter@@QAEXMPBDH@Z:PROC ; ioComplexStringPrinter::AddTextPiece
EXTRN	?ClearList@ioComplexStringPrinter@@QAEXXZ:PROC	; ioComplexStringPrinter::ClearList
EXTRN	?PrintFullTextWidthCut@ioComplexStringPrinter@@QAEXMMW4TextAlignType@@ME@Z:PROC ; ioComplexStringPrinter::PrintFullTextWidthCut
EXTRN	?AddTextPiece@ioComplexStringPrinter@@QAAXMPBDZZ:PROC ; ioComplexStringPrinter::AddTextPiece
EXTRN	?SetTextColor@ioComplexStringPrinter@@QAEXK@Z:PROC ; ioComplexStringPrinter::SetTextColor
EXTRN	?SetBkColor@ioComplexStringPrinter@@QAEXK@Z:PROC ; ioComplexStringPrinter::SetBkColor
EXTRN	?SetTextStyle@ioComplexStringPrinter@@QAEXW4TextStyle@@@Z:PROC ; ioComplexStringPrinter::SetTextStyle
EXTRN	??0ioComplexStringPrinter@@QAE@XZ:PROC		; ioComplexStringPrinter::ioComplexStringPrinter
EXTRN	__imp_?GetDerivedPosY@ioWnd@@QBEHXZ:PROC
EXTRN	__imp_?GetDerivedPosX@ioWnd@@QBEHXZ:PROC
EXTRN	__imp_?OnRender@ioWnd@@MAEXXZ:PROC
;	COMDAT __real@3f266666
; File d:\lost saga for developer\youtube\tutorial\source\src\lsclient\ioshuffleroommgr.h
CONST	SEGMENT
__real@3f266666 DD 03f266666r			; 0.65
CONST	ENDS
;	COMDAT __real@437f0000
CONST	SEGMENT
__real@437f0000 DD 0437f0000r			; 255
CONST	ENDS
;	COMDAT __real@3f59999a
CONST	SEGMENT
__real@3f59999a DD 03f59999ar			; 0.85
CONST	ENDS
;	COMDAT ??_C@_0CA@LOELHDH@ShuffleBonusResultWnd?3?3OnRender?$AA@
CONST	SEGMENT
??_C@_0CA@LOELHDH@ShuffleBonusResultWnd?3?3OnRender?$AA@ DB 'ShuffleBonus'
	DB	'ResultWnd::OnRender', 00H			; `string'
CONST	ENDS
;	COMDAT xdata$x
xdata$x	SEGMENT
__unwindtable$?OnRender@ShuffleBonusResultWnd@@MAEXXZ DD 0ffffffffH
	DD	FLAT:__unwindfunclet$?OnRender@ShuffleBonusResultWnd@@MAEXXZ$0
__ehfuncinfo$?OnRender@ShuffleBonusResultWnd@@MAEXXZ DD 019930522H
	DD	01H
	DD	FLAT:__unwindtable$?OnRender@ShuffleBonusResultWnd@@MAEXXZ
	DD	2 DUP(00H)
	DD	2 DUP(00H)
	DD	00H
	DD	01H
; Function compile flags: /Ogsp
; File d:\lost saga for developer\youtube\tutorial\source\src\lsclient\gui\shufflebonusresultwnd.cpp
xdata$x	ENDS
;	COMDAT ?OnRender@ShuffleBonusResultWnd@@MAEXXZ
_TEXT	SEGMENT
_kPrinter$ = -60					; size = 32
_this$ = -28						; size = 4
_iXPos$ = -24						; size = 4
tv291 = -20						; size = 4
_iYPos$ = -16						; size = 4
__$EHRec$ = -12						; size = 12
?OnRender@ShuffleBonusResultWnd@@MAEXXZ PROC		; ShuffleBonusResultWnd::OnRender, COMDAT
; _this$ = ecx

; 96   : {

  00000	6a 30		 push	 48			; 00000030H
  00002	b8 00 00 00 00	 mov	 eax, __ehhandler$?OnRender@ShuffleBonusResultWnd@@MAEXXZ
  00007	e8 00 00 00 00	 call	 __EH_prolog3
  0000c	8b f1		 mov	 esi, ecx
  0000e	89 75 e4	 mov	 DWORD PTR _this$[ebp], esi

; 97   : 	ioWnd::OnRender();

  00011	ff 15 00 00 00
	00		 call	 DWORD PTR __imp_?OnRender@ioWnd@@MAEXXZ

; 98   : 
; 99   : 	int iXPos = GetDerivedPosX();

  00017	8b ce		 mov	 ecx, esi
  00019	ff 15 00 00 00
	00		 call	 DWORD PTR __imp_?GetDerivedPosX@ioWnd@@QBEHXZ

; 100  : 	int iYPos = GetDerivedPosY();

  0001f	8b ce		 mov	 ecx, esi
  00021	89 45 e8	 mov	 DWORD PTR _iXPos$[ebp], eax
  00024	ff 15 00 00 00
	00		 call	 DWORD PTR __imp_?GetDerivedPosY@ioWnd@@QBEHXZ

; 101  : 
; 102  : 	ioComplexStringPrinter kPrinter;

  0002a	8d 4d c4	 lea	 ecx, DWORD PTR _kPrinter$[ebp]
  0002d	89 45 f0	 mov	 DWORD PTR _iYPos$[ebp], eax
  00030	e8 00 00 00 00	 call	 ??0ioComplexStringPrinter@@QAE@XZ ; ioComplexStringPrinter::ioComplexStringPrinter
  00035	33 ff		 xor	 edi, edi

; 103  : 	kPrinter.SetTextStyle( TS_NORMAL );

  00037	57		 push	 edi
  00038	8d 4d c4	 lea	 ecx, DWORD PTR _kPrinter$[ebp]
  0003b	89 7d fc	 mov	 DWORD PTR __$EHRec$[ebp+8], edi
  0003e	e8 00 00 00 00	 call	 ?SetTextStyle@ioComplexStringPrinter@@QAEXW4TextStyle@@@Z ; ioComplexStringPrinter::SetTextStyle

; 104  : 	kPrinter.SetBkColor( TCT_DEFAULT_DARKGRAY );

  00043	be 3a 3a 3a ff	 mov	 esi, -12961222		; ff3a3a3aH
  00048	56		 push	 esi
  00049	8d 4d c4	 lea	 ecx, DWORD PTR _kPrinter$[ebp]
  0004c	e8 00 00 00 00	 call	 ?SetBkColor@ioComplexStringPrinter@@QAEXK@Z ; ioComplexStringPrinter::SetBkColor

; 105  : 	kPrinter.SetTextColor( TCT_DEFAULT_DARKGRAY );

  00051	56		 push	 esi
  00052	8d 4d c4	 lea	 ecx, DWORD PTR _kPrinter$[ebp]
  00055	e8 00 00 00 00	 call	 ?SetTextColor@ioComplexStringPrinter@@QAEXK@Z ; ioComplexStringPrinter::SetTextColor

; 106  : 	kPrinter.AddTextPiece( FONT_SIZE_17, STR(1) );

  0005a	8b 35 00 00 00
	00		 mov	 esi, DWORD PTR __imp_?GetSingleton@ioStringManager@@SAAAV1@XZ
  00060	57		 push	 edi
  00061	6a 01		 push	 1
  00063	68 00 00 00 00	 push	 OFFSET ??_C@_00CNPNBAHC@?$AA@
  00068	bb 00 00 00 00	 mov	 ebx, OFFSET ??_C@_0CA@LOELHDH@ShuffleBonusResultWnd?3?3OnRender?$AA@
  0006d	53		 push	 ebx
  0006e	ff d6		 call	 esi
  00070	8b 3d 00 00 00
	00		 mov	 edi, DWORD PTR __imp_?GetString@ioStringManager@@QAEPADPBD0HW4FileNamePrefix@1@@Z
  00076	8b c8		 mov	 ecx, eax
  00078	ff d7		 call	 edi
  0007a	f3 0f 10 05 00
	00 00 00	 movss	 xmm0, DWORD PTR __real@3f59999a
  00082	50		 push	 eax
  00083	51		 push	 ecx
  00084	8d 45 c4	 lea	 eax, DWORD PTR _kPrinter$[ebp]
  00087	f3 0f 11 04 24	 movss	 DWORD PTR [esp], xmm0
  0008c	50		 push	 eax
  0008d	e8 00 00 00 00	 call	 ?AddTextPiece@ioComplexStringPrinter@@QAAXMPBDZZ ; ioComplexStringPrinter::AddTextPiece

; 107  : 	kPrinter.PrintFullTextWidthCut( iXPos + 166, iYPos + 124, TAT_CENTER, 255.0f );

  00092	8b 45 e8	 mov	 eax, DWORD PTR _iXPos$[ebp]
  00095	f3 0f 10 0d 00
	00 00 00	 movss	 xmm1, DWORD PTR __real@437f0000
  0009d	83 c4 0c	 add	 esp, 12			; 0000000cH
  000a0	68 ff 00 00 00	 push	 255			; 000000ffH
  000a5	51		 push	 ecx
  000a6	f3 0f 11 0c 24	 movss	 DWORD PTR [esp], xmm1
  000ab	05 a6 00 00 00	 add	 eax, 166		; 000000a6H
  000b0	0f 57 c0	 xorps	 xmm0, xmm0
  000b3	f3 0f 2a c0	 cvtsi2ss xmm0, eax
  000b7	8b 45 f0	 mov	 eax, DWORD PTR _iYPos$[ebp]
  000ba	6a 01		 push	 1
  000bc	51		 push	 ecx
  000bd	51		 push	 ecx
  000be	83 c0 7c	 add	 eax, 124		; 0000007cH
  000c1	0f 57 c9	 xorps	 xmm1, xmm1
  000c4	f3 0f 2a c8	 cvtsi2ss xmm1, eax
  000c8	f3 0f 11 4c 24
	04		 movss	 DWORD PTR [esp+4], xmm1
  000ce	8d 4d c4	 lea	 ecx, DWORD PTR _kPrinter$[ebp]
  000d1	f3 0f 11 45 ec	 movss	 DWORD PTR tv291[ebp], xmm0
  000d6	f3 0f 11 04 24	 movss	 DWORD PTR [esp], xmm0
  000db	e8 00 00 00 00	 call	 ?PrintFullTextWidthCut@ioComplexStringPrinter@@QAEXMMW4TextAlignType@@ME@Z ; ioComplexStringPrinter::PrintFullTextWidthCut

; 108  : 	kPrinter.ClearList();

  000e0	8d 4d c4	 lea	 ecx, DWORD PTR _kPrinter$[ebp]
  000e3	e8 00 00 00 00	 call	 ?ClearList@ioComplexStringPrinter@@QAEXXZ ; ioComplexStringPrinter::ClearList

; 109  : 
; 110  : 	kPrinter.SetTextColor( TCT_DEFAULT_BLUE );

  000e8	68 b2 46 16 ff	 push	 -15317326		; ff1646b2H
  000ed	8d 4d c4	 lea	 ecx, DWORD PTR _kPrinter$[ebp]
  000f0	e8 00 00 00 00	 call	 ?SetTextColor@ioComplexStringPrinter@@QAEXK@Z ; ioComplexStringPrinter::SetTextColor

; 111  : 	kPrinter.AddTextPiece( FONT_SIZE_17, STR(2), g_ShuffleRoomMgr.GetShuffleStarCnt() );

  000f5	e8 00 00 00 00	 call	 ?GetSingleton@ioShuffleRoomMgr@@SAAAV1@XZ ; ioShuffleRoomMgr::GetSingleton
  000fa	ff b0 0c 01 00
	00		 push	 DWORD PTR [eax+268]
  00100	6a 00		 push	 0
  00102	6a 02		 push	 2
  00104	68 00 00 00 00	 push	 OFFSET ??_C@_00CNPNBAHC@?$AA@
  00109	53		 push	 ebx
  0010a	ff d6		 call	 esi
  0010c	8b c8		 mov	 ecx, eax
  0010e	ff d7		 call	 edi
  00110	f3 0f 10 05 00
	00 00 00	 movss	 xmm0, DWORD PTR __real@3f59999a
  00118	50		 push	 eax
  00119	51		 push	 ecx
  0011a	8d 4d c4	 lea	 ecx, DWORD PTR _kPrinter$[ebp]
  0011d	f3 0f 11 04 24	 movss	 DWORD PTR [esp], xmm0
  00122	e8 00 00 00 00	 call	 ?AddTextPiece@ioComplexStringPrinter@@QAEXMPBDH@Z ; ioComplexStringPrinter::AddTextPiece

; 112  : 	kPrinter.SetTextColor( TCT_DEFAULT_DARKGRAY );

  00127	68 3a 3a 3a ff	 push	 -12961222		; ff3a3a3aH
  0012c	8d 4d c4	 lea	 ecx, DWORD PTR _kPrinter$[ebp]
  0012f	e8 00 00 00 00	 call	 ?SetTextColor@ioComplexStringPrinter@@QAEXK@Z ; ioComplexStringPrinter::SetTextColor

; 113  : 	kPrinter.AddTextPiece( FONT_SIZE_17, STR(3) );

  00134	6a 00		 push	 0
  00136	6a 03		 push	 3
  00138	68 00 00 00 00	 push	 OFFSET ??_C@_00CNPNBAHC@?$AA@
  0013d	53		 push	 ebx
  0013e	ff d6		 call	 esi
  00140	8b c8		 mov	 ecx, eax
  00142	ff d7		 call	 edi
  00144	f3 0f 10 05 00
	00 00 00	 movss	 xmm0, DWORD PTR __real@3f59999a
  0014c	50		 push	 eax
  0014d	51		 push	 ecx
  0014e	8d 45 c4	 lea	 eax, DWORD PTR _kPrinter$[ebp]
  00151	f3 0f 11 04 24	 movss	 DWORD PTR [esp], xmm0
  00156	50		 push	 eax
  00157	e8 00 00 00 00	 call	 ?AddTextPiece@ioComplexStringPrinter@@QAAXMPBDZZ ; ioComplexStringPrinter::AddTextPiece

; 114  : 	kPrinter.PrintFullTextWidthCut( iXPos + 166, iYPos + 147, TAT_CENTER, 255.0f );

  0015c	f3 0f 10 05 00
	00 00 00	 movss	 xmm0, DWORD PTR __real@437f0000
  00164	8b 45 f0	 mov	 eax, DWORD PTR _iYPos$[ebp]
  00167	83 c4 0c	 add	 esp, 12			; 0000000cH
  0016a	68 ff 00 00 00	 push	 255			; 000000ffH
  0016f	51		 push	 ecx
  00170	f3 0f 11 04 24	 movss	 DWORD PTR [esp], xmm0
  00175	6a 01		 push	 1
  00177	51		 push	 ecx
  00178	51		 push	 ecx
  00179	05 93 00 00 00	 add	 eax, 147		; 00000093H
  0017e	0f 57 c0	 xorps	 xmm0, xmm0
  00181	f3 0f 2a c0	 cvtsi2ss xmm0, eax
  00185	f3 0f 11 44 24
	04		 movss	 DWORD PTR [esp+4], xmm0
  0018b	f3 0f 10 45 ec	 movss	 xmm0, DWORD PTR tv291[ebp]
  00190	8d 4d c4	 lea	 ecx, DWORD PTR _kPrinter$[ebp]
  00193	f3 0f 11 04 24	 movss	 DWORD PTR [esp], xmm0
  00198	e8 00 00 00 00	 call	 ?PrintFullTextWidthCut@ioComplexStringPrinter@@QAEXMMW4TextAlignType@@ME@Z ; ioComplexStringPrinter::PrintFullTextWidthCut

; 115  : 	kPrinter.ClearList();

  0019d	8d 4d c4	 lea	 ecx, DWORD PTR _kPrinter$[ebp]
  001a0	e8 00 00 00 00	 call	 ?ClearList@ioComplexStringPrinter@@QAEXXZ ; ioComplexStringPrinter::ClearList

; 116  : 
; 117  : 	kPrinter.SetTextColor( TCT_DEFAULT_DARKGRAY );

  001a5	68 3a 3a 3a ff	 push	 -12961222		; ff3a3a3aH
  001aa	8d 4d c4	 lea	 ecx, DWORD PTR _kPrinter$[ebp]
  001ad	e8 00 00 00 00	 call	 ?SetTextColor@ioComplexStringPrinter@@QAEXK@Z ; ioComplexStringPrinter::SetTextColor

; 118  : 	kPrinter.AddTextPiece( FONT_SIZE_13, STR(4) );

  001b2	6a 00		 push	 0
  001b4	6a 04		 push	 4
  001b6	68 00 00 00 00	 push	 OFFSET ??_C@_00CNPNBAHC@?$AA@
  001bb	53		 push	 ebx
  001bc	ff d6		 call	 esi
  001be	8b c8		 mov	 ecx, eax
  001c0	ff d7		 call	 edi
  001c2	f3 0f 10 05 00
	00 00 00	 movss	 xmm0, DWORD PTR __real@3f266666
  001ca	50		 push	 eax
  001cb	51		 push	 ecx
  001cc	8d 45 c4	 lea	 eax, DWORD PTR _kPrinter$[ebp]
  001cf	f3 0f 11 04 24	 movss	 DWORD PTR [esp], xmm0
  001d4	50		 push	 eax
  001d5	e8 00 00 00 00	 call	 ?AddTextPiece@ioComplexStringPrinter@@QAAXMPBDZZ ; ioComplexStringPrinter::AddTextPiece

; 119  : 	kPrinter.PrintFullTextWidthCut( iXPos + 166, iYPos + 177, TAT_CENTER, 255.0f );

  001da	f3 0f 10 05 00
	00 00 00	 movss	 xmm0, DWORD PTR __real@437f0000
  001e2	8b 45 f0	 mov	 eax, DWORD PTR _iYPos$[ebp]
  001e5	83 c4 0c	 add	 esp, 12			; 0000000cH
  001e8	68 ff 00 00 00	 push	 255			; 000000ffH
  001ed	51		 push	 ecx
  001ee	f3 0f 11 04 24	 movss	 DWORD PTR [esp], xmm0
  001f3	6a 01		 push	 1
  001f5	51		 push	 ecx
  001f6	51		 push	 ecx
  001f7	05 b1 00 00 00	 add	 eax, 177		; 000000b1H
  001fc	0f 57 c0	 xorps	 xmm0, xmm0
  001ff	f3 0f 2a c0	 cvtsi2ss xmm0, eax
  00203	f3 0f 11 44 24
	04		 movss	 DWORD PTR [esp+4], xmm0
  00209	f3 0f 10 45 ec	 movss	 xmm0, DWORD PTR tv291[ebp]
  0020e	8d 4d c4	 lea	 ecx, DWORD PTR _kPrinter$[ebp]
  00211	f3 0f 11 04 24	 movss	 DWORD PTR [esp], xmm0
  00216	e8 00 00 00 00	 call	 ?PrintFullTextWidthCut@ioComplexStringPrinter@@QAEXMMW4TextAlignType@@ME@Z ; ioComplexStringPrinter::PrintFullTextWidthCut

; 120  : 	kPrinter.ClearList();

  0021b	8d 4d c4	 lea	 ecx, DWORD PTR _kPrinter$[ebp]
  0021e	e8 00 00 00 00	 call	 ?ClearList@ioComplexStringPrinter@@QAEXXZ ; ioComplexStringPrinter::ClearList

; 121  : 
; 122  : 	kPrinter.AddTextPiece( FONT_SIZE_13, STR(5) );

  00223	6a 00		 push	 0
  00225	6a 05		 push	 5
  00227	68 00 00 00 00	 push	 OFFSET ??_C@_00CNPNBAHC@?$AA@
  0022c	53		 push	 ebx
  0022d	ff d6		 call	 esi
  0022f	8b c8		 mov	 ecx, eax
  00231	ff d7		 call	 edi
  00233	f3 0f 10 05 00
	00 00 00	 movss	 xmm0, DWORD PTR __real@3f266666
  0023b	50		 push	 eax
  0023c	51		 push	 ecx
  0023d	8d 45 c4	 lea	 eax, DWORD PTR _kPrinter$[ebp]
  00240	f3 0f 11 04 24	 movss	 DWORD PTR [esp], xmm0
  00245	50		 push	 eax
  00246	e8 00 00 00 00	 call	 ?AddTextPiece@ioComplexStringPrinter@@QAAXMPBDZZ ; ioComplexStringPrinter::AddTextPiece

; 123  : 	kPrinter.PrintFullTextWidthCut( iXPos + 166, iYPos + 195, TAT_CENTER, 255.0f );

  0024b	f3 0f 10 05 00
	00 00 00	 movss	 xmm0, DWORD PTR __real@437f0000
  00253	8b 45 f0	 mov	 eax, DWORD PTR _iYPos$[ebp]
  00256	83 c4 0c	 add	 esp, 12			; 0000000cH
  00259	68 ff 00 00 00	 push	 255			; 000000ffH
  0025e	51		 push	 ecx
  0025f	f3 0f 11 04 24	 movss	 DWORD PTR [esp], xmm0
  00264	6a 01		 push	 1
  00266	51		 push	 ecx
  00267	51		 push	 ecx
  00268	05 c3 00 00 00	 add	 eax, 195		; 000000c3H
  0026d	0f 57 c0	 xorps	 xmm0, xmm0
  00270	f3 0f 2a c0	 cvtsi2ss xmm0, eax
  00274	f3 0f 11 44 24
	04		 movss	 DWORD PTR [esp+4], xmm0
  0027a	f3 0f 10 45 ec	 movss	 xmm0, DWORD PTR tv291[ebp]
  0027f	8d 4d c4	 lea	 ecx, DWORD PTR _kPrinter$[ebp]
  00282	f3 0f 11 04 24	 movss	 DWORD PTR [esp], xmm0
  00287	e8 00 00 00 00	 call	 ?PrintFullTextWidthCut@ioComplexStringPrinter@@QAEXMMW4TextAlignType@@ME@Z ; ioComplexStringPrinter::PrintFullTextWidthCut

; 124  : 	kPrinter.ClearList();

  0028c	8d 4d c4	 lea	 ecx, DWORD PTR _kPrinter$[ebp]
  0028f	e8 00 00 00 00	 call	 ?ClearList@ioComplexStringPrinter@@QAEXXZ ; ioComplexStringPrinter::ClearList

; 125  : 
; 126  : 	kPrinter.AddTextPiece( FONT_SIZE_13, STR(6) );

  00294	6a 00		 push	 0
  00296	6a 06		 push	 6
  00298	68 00 00 00 00	 push	 OFFSET ??_C@_00CNPNBAHC@?$AA@
  0029d	53		 push	 ebx
  0029e	ff d6		 call	 esi
  002a0	8b c8		 mov	 ecx, eax
  002a2	ff d7		 call	 edi
  002a4	f3 0f 10 05 00
	00 00 00	 movss	 xmm0, DWORD PTR __real@3f266666
  002ac	50		 push	 eax
  002ad	51		 push	 ecx
  002ae	8d 45 c4	 lea	 eax, DWORD PTR _kPrinter$[ebp]
  002b1	f3 0f 11 04 24	 movss	 DWORD PTR [esp], xmm0
  002b6	50		 push	 eax
  002b7	e8 00 00 00 00	 call	 ?AddTextPiece@ioComplexStringPrinter@@QAAXMPBDZZ ; ioComplexStringPrinter::AddTextPiece

; 127  : 	kPrinter.PrintFullTextWidthCut( iXPos + 166, iYPos + 213, TAT_CENTER, 255.0f );

  002bc	f3 0f 10 05 00
	00 00 00	 movss	 xmm0, DWORD PTR __real@437f0000
  002c4	8b 75 f0	 mov	 esi, DWORD PTR _iYPos$[ebp]
  002c7	83 c4 0c	 add	 esp, 12			; 0000000cH
  002ca	68 ff 00 00 00	 push	 255			; 000000ffH
  002cf	51		 push	 ecx
  002d0	f3 0f 11 04 24	 movss	 DWORD PTR [esp], xmm0
  002d5	6a 01		 push	 1
  002d7	51		 push	 ecx
  002d8	51		 push	 ecx
  002d9	8d 86 d5 00 00
	00		 lea	 eax, DWORD PTR [esi+213]
  002df	0f 57 c0	 xorps	 xmm0, xmm0
  002e2	f3 0f 2a c0	 cvtsi2ss xmm0, eax
  002e6	f3 0f 11 44 24
	04		 movss	 DWORD PTR [esp+4], xmm0
  002ec	f3 0f 10 45 ec	 movss	 xmm0, DWORD PTR tv291[ebp]
  002f1	8d 4d c4	 lea	 ecx, DWORD PTR _kPrinter$[ebp]
  002f4	f3 0f 11 04 24	 movss	 DWORD PTR [esp], xmm0
  002f9	e8 00 00 00 00	 call	 ?PrintFullTextWidthCut@ioComplexStringPrinter@@QAEXMMW4TextAlignType@@ME@Z ; ioComplexStringPrinter::PrintFullTextWidthCut

; 128  : 	kPrinter.ClearList();

  002fe	8d 4d c4	 lea	 ecx, DWORD PTR _kPrinter$[ebp]
  00301	e8 00 00 00 00	 call	 ?ClearList@ioComplexStringPrinter@@QAEXXZ ; ioComplexStringPrinter::ClearList

; 129  : 
; 130  : 	RenderStarCount( iXPos + 163, iYPos + 63 );

  00306	8b 45 e8	 mov	 eax, DWORD PTR _iXPos$[ebp]
  00309	8b 4d e4	 mov	 ecx, DWORD PTR _this$[ebp]
  0030c	83 c6 3f	 add	 esi, 63			; 0000003fH
  0030f	56		 push	 esi
  00310	05 a3 00 00 00	 add	 eax, 163		; 000000a3H
  00315	50		 push	 eax
  00316	e8 00 00 00 00	 call	 ?RenderStarCount@ShuffleBonusResultWnd@@IAEXHH@Z ; ShuffleBonusResultWnd::RenderStarCount

; 131  : }

  0031b	83 4d fc ff	 or	 DWORD PTR __$EHRec$[ebp+8], -1
  0031f	8d 4d c4	 lea	 ecx, DWORD PTR _kPrinter$[ebp]
  00322	e8 00 00 00 00	 call	 ??1ioComplexStringPrinter@@QAE@XZ ; ioComplexStringPrinter::~ioComplexStringPrinter
  00327	e8 00 00 00 00	 call	 __EH_epilog3
  0032c	c3		 ret	 0
_TEXT	ENDS
;	COMDAT text$x
text$x	SEGMENT
__unwindfunclet$?OnRender@ShuffleBonusResultWnd@@MAEXXZ$0:
  00000	8d 4d c4	 lea	 ecx, DWORD PTR _kPrinter$[ebp]
  00003	e9 00 00 00 00	 jmp	 ??1ioComplexStringPrinter@@QAE@XZ ; ioComplexStringPrinter::~ioComplexStringPrinter
__ehhandler$?OnRender@ShuffleBonusResultWnd@@MAEXXZ:
  00008	8b 54 24 08	 mov	 edx, DWORD PTR [esp+8]
  0000c	8d 42 0c	 lea	 eax, DWORD PTR [edx+12]
  0000f	8b 4a c0	 mov	 ecx, DWORD PTR [edx-64]
  00012	33 c8		 xor	 ecx, eax
  00014	e8 00 00 00 00	 call	 @__security_check_cookie@4
  00019	b8 00 00 00 00	 mov	 eax, OFFSET __ehfuncinfo$?OnRender@ShuffleBonusResultWnd@@MAEXXZ
  0001e	e9 00 00 00 00	 jmp	 ___CxxFrameHandler3
text$x	ENDS
?OnRender@ShuffleBonusResultWnd@@MAEXXZ ENDP		; ShuffleBonusResultWnd::OnRender
PUBLIC	__$ArrayPad$
PUBLIC	??$?8$08@@YA_NABVioHashString@@AAY08$$CBD@Z	; operator==<9>
EXTRN	__imp_?c_str@ioHashString@@QBEPBDXZ:PROC
; Function compile flags: /Ogsp
; File d:\lost saga for developer\youtube\tutorial\source\src\io3dengine\iohashstring.h
;	COMDAT ??$?8$08@@YA_NABVioHashString@@AAY08$$CBD@Z
_TEXT	SEGMENT
__t$ = -20						; size = 9
__$ArrayPad$ = -4					; size = 4
_lhs$ = 8						; size = 4
_t$ = 12						; size = 4
??$?8$08@@YA_NABVioHashString@@AAY08$$CBD@Z PROC	; operator==<9>, COMDAT

; 146  : {

  00000	55		 push	 ebp
  00001	8b ec		 mov	 ebp, esp
  00003	83 ec 14	 sub	 esp, 20			; 00000014H
  00006	a1 00 00 00 00	 mov	 eax, DWORD PTR ___security_cookie
  0000b	33 c5		 xor	 eax, ebp
  0000d	89 45 fc	 mov	 DWORD PTR __$ArrayPad$[ebp], eax
  00010	8b 45 0c	 mov	 eax, DWORD PTR _t$[ebp]

; 147  : 	_ENCSTR(t, _t); return ( strcmp( lhs.c_str(), _t ) == 0 );

  00013	8a 10		 mov	 dl, BYTE PTR [eax]
  00015	8b 4d 08	 mov	 ecx, DWORD PTR _lhs$[ebp]
  00018	84 d2		 test	 dl, dl
  0001a	0f 84 ee 00 00
	00		 je	 $LN96@operator
  00020	80 f2 ed	 xor	 dl, -19			; ffffffedH
  00023	88 55 ec	 mov	 BYTE PTR __t$[ebp], dl
  00026	8a 50 01	 mov	 dl, BYTE PTR [eax+1]
  00029	84 d2		 test	 dl, dl
  0002b	0f 84 d7 00 00
	00		 je	 $LN95@operator
  00031	80 f2 ec	 xor	 dl, -20			; ffffffecH
  00034	88 55 ed	 mov	 BYTE PTR __t$[ebp+1], dl
  00037	8a 50 02	 mov	 dl, BYTE PTR [eax+2]
  0003a	84 d2		 test	 dl, dl
  0003c	0f 84 c0 00 00
	00		 je	 $LN94@operator
  00042	80 f2 eb	 xor	 dl, -21			; ffffffebH
  00045	88 55 ee	 mov	 BYTE PTR __t$[ebp+2], dl
  00048	8a 50 03	 mov	 dl, BYTE PTR [eax+3]
  0004b	84 d2		 test	 dl, dl
  0004d	0f 84 a9 00 00
	00		 je	 $LN93@operator
  00053	80 f2 ea	 xor	 dl, -22			; ffffffeaH
  00056	88 55 ef	 mov	 BYTE PTR __t$[ebp+3], dl
  00059	8a 50 04	 mov	 dl, BYTE PTR [eax+4]
  0005c	84 d2		 test	 dl, dl
  0005e	0f 84 92 00 00
	00		 je	 $LN92@operator
  00064	80 f2 ed	 xor	 dl, -19			; ffffffedH
  00067	88 55 f0	 mov	 BYTE PTR __t$[ebp+4], dl
  0006a	8a 50 05	 mov	 dl, BYTE PTR [eax+5]
  0006d	84 d2		 test	 dl, dl
  0006f	74 7f		 je	 SHORT $LN91@operator
  00071	80 f2 ec	 xor	 dl, -20			; ffffffecH
  00074	88 55 f1	 mov	 BYTE PTR __t$[ebp+5], dl
  00077	8a 50 06	 mov	 dl, BYTE PTR [eax+6]
  0007a	84 d2		 test	 dl, dl
  0007c	74 6c		 je	 SHORT $LN90@operator
  0007e	80 f2 eb	 xor	 dl, -21			; ffffffebH
  00081	88 55 f2	 mov	 BYTE PTR __t$[ebp+6], dl
  00084	8a 50 07	 mov	 dl, BYTE PTR [eax+7]
  00087	84 d2		 test	 dl, dl
  00089	74 59		 je	 SHORT $LN89@operator
  0008b	80 f2 ea	 xor	 dl, -22			; ffffffeaH
  0008e	80 78 08 00	 cmp	 BYTE PTR [eax+8], 0
  00092	88 55 f3	 mov	 BYTE PTR __t$[ebp+7], dl
  00095	74 7b		 je	 SHORT $LN1@operator
  00097	8a 50 09	 mov	 dl, BYTE PTR [eax+9]
  0009a	84 d2		 test	 dl, dl
  0009c	74 40		 je	 SHORT $LN87@operator
  0009e	80 f2 ec	 xor	 dl, -20			; ffffffecH
  000a1	88 55 f5	 mov	 BYTE PTR __t$[ebp+9], dl
  000a4	8a 50 0a	 mov	 dl, BYTE PTR [eax+10]
  000a7	84 d2		 test	 dl, dl
  000a9	74 2d		 je	 SHORT $LN86@operator
  000ab	80 f2 eb	 xor	 dl, -21			; ffffffebH
  000ae	88 55 f6	 mov	 BYTE PTR __t$[ebp+10], dl
  000b1	8a 50 0b	 mov	 dl, BYTE PTR [eax+11]
  000b4	84 d2		 test	 dl, dl
  000b6	74 1a		 je	 SHORT $LN85@operator
  000b8	8a 40 0c	 mov	 al, BYTE PTR [eax+12]
  000bb	80 f2 ea	 xor	 dl, -22			; ffffffeaH
  000be	88 55 f7	 mov	 BYTE PTR __t$[ebp+11], dl
  000c1	84 c0		 test	 al, al
  000c3	74 07		 je	 SHORT $LN84@operator
  000c5	34 ed		 xor	 al, -19			; ffffffedH
  000c7	88 45 f8	 mov	 BYTE PTR __t$[ebp+12], al
  000ca	eb 46		 jmp	 SHORT $LN1@operator
$LN84@operator:
  000cc	c6 45 f8 ed	 mov	 BYTE PTR __t$[ebp+12], -19 ; ffffffedH
  000d0	eb 40		 jmp	 SHORT $LN1@operator
$LN85@operator:
  000d2	c6 45 f7 ea	 mov	 BYTE PTR __t$[ebp+11], -22 ; ffffffeaH
  000d6	eb 3a		 jmp	 SHORT $LN1@operator
$LN86@operator:
  000d8	c6 45 f6 eb	 mov	 BYTE PTR __t$[ebp+10], -21 ; ffffffebH
  000dc	eb 34		 jmp	 SHORT $LN1@operator
$LN87@operator:
  000de	c6 45 f5 ec	 mov	 BYTE PTR __t$[ebp+9], -20 ; ffffffecH
  000e2	eb 2e		 jmp	 SHORT $LN1@operator
$LN89@operator:
  000e4	c6 45 f3 ea	 mov	 BYTE PTR __t$[ebp+7], -22 ; ffffffeaH
  000e8	eb 28		 jmp	 SHORT $LN1@operator
$LN90@operator:
  000ea	c6 45 f2 eb	 mov	 BYTE PTR __t$[ebp+6], -21 ; ffffffebH
  000ee	eb 22		 jmp	 SHORT $LN1@operator
$LN91@operator:
  000f0	c6 45 f1 ec	 mov	 BYTE PTR __t$[ebp+5], -20 ; ffffffecH
  000f4	eb 1c		 jmp	 SHORT $LN1@operator
$LN92@operator:
  000f6	c6 45 f0 ed	 mov	 BYTE PTR __t$[ebp+4], -19 ; ffffffedH
  000fa	eb 16		 jmp	 SHORT $LN1@operator
$LN93@operator:
  000fc	c6 45 ef ea	 mov	 BYTE PTR __t$[ebp+3], -22 ; ffffffeaH
  00100	eb 10		 jmp	 SHORT $LN1@operator
$LN94@operator:
  00102	c6 45 ee eb	 mov	 BYTE PTR __t$[ebp+2], -21 ; ffffffebH
  00106	eb 0a		 jmp	 SHORT $LN1@operator
$LN95@operator:
  00108	c6 45 ed ec	 mov	 BYTE PTR __t$[ebp+1], -20 ; ffffffecH
  0010c	eb 04		 jmp	 SHORT $LN1@operator
$LN96@operator:
  0010e	c6 45 ec ed	 mov	 BYTE PTR __t$[ebp], -19	; ffffffedH
$LN1@operator:
  00112	6a 02		 push	 2
  00114	8d 45 ec	 lea	 eax, DWORD PTR __t$[ebp]
  00117	c6 45 f4 00	 mov	 BYTE PTR __t$[ebp+8], 0
  0011b	5a		 pop	 edx
$LL104@operator:
  0011c	81 30 ed ec eb
	ea		 xor	 DWORD PTR [eax], -353637139 ; eaebecedH
  00122	83 c0 04	 add	 eax, 4
  00125	4a		 dec	 edx
  00126	75 f4		 jne	 SHORT $LL104@operator
  00128	56		 push	 esi
  00129	8d 75 ec	 lea	 esi, DWORD PTR __t$[ebp]
  0012c	ff 15 00 00 00
	00		 call	 DWORD PTR __imp_?c_str@ioHashString@@QBEPBDXZ
$LL111@operator:
  00132	8a 08		 mov	 cl, BYTE PTR [eax]
  00134	3a 0e		 cmp	 cl, BYTE PTR [esi]
  00136	75 1a		 jne	 SHORT $LN112@operator
  00138	84 c9		 test	 cl, cl
  0013a	74 12		 je	 SHORT $LN113@operator
  0013c	8a 48 01	 mov	 cl, BYTE PTR [eax+1]
  0013f	3a 4e 01	 cmp	 cl, BYTE PTR [esi+1]
  00142	75 0e		 jne	 SHORT $LN112@operator
  00144	83 c0 02	 add	 eax, 2
  00147	83 c6 02	 add	 esi, 2
  0014a	84 c9		 test	 cl, cl
  0014c	75 e4		 jne	 SHORT $LL111@operator
$LN113@operator:
  0014e	33 c0		 xor	 eax, eax
  00150	eb 05		 jmp	 SHORT $LN114@operator
$LN112@operator:
  00152	1b c0		 sbb	 eax, eax
  00154	83 d8 ff	 sbb	 eax, -1
$LN114@operator:
  00157	33 c9		 xor	 ecx, ecx
  00159	85 c0		 test	 eax, eax
  0015b	0f 94 c0	 sete	 al

; 148  : }

  0015e	8b 4d fc	 mov	 ecx, DWORD PTR __$ArrayPad$[ebp]
  00161	33 cd		 xor	 ecx, ebp
  00163	5e		 pop	 esi
  00164	e8 00 00 00 00	 call	 @__security_check_cookie@4
  00169	c9		 leave
  0016a	c3		 ret	 0
??$?8$08@@YA_NABVioHashString@@AAY08$$CBD@Z ENDP	; operator==<9>
_TEXT	ENDS
PUBLIC	__$ArrayPad$
PUBLIC	??$?8$05@@YA_NABVioHashString@@AAY05$$CBD@Z	; operator==<6>
; Function compile flags: /Ogsp
;	COMDAT ??$?8$05@@YA_NABVioHashString@@AAY05$$CBD@Z
_TEXT	SEGMENT
__t$ = -16						; size = 6
__$ArrayPad$ = -4					; size = 4
_lhs$ = 8						; size = 4
_t$ = 12						; size = 4
??$?8$05@@YA_NABVioHashString@@AAY05$$CBD@Z PROC	; operator==<6>, COMDAT

; 146  : {

  00000	55		 push	 ebp
  00001	8b ec		 mov	 ebp, esp
  00003	83 ec 10	 sub	 esp, 16			; 00000010H
  00006	a1 00 00 00 00	 mov	 eax, DWORD PTR ___security_cookie
  0000b	33 c5		 xor	 eax, ebp
  0000d	89 45 fc	 mov	 DWORD PTR __$ArrayPad$[ebp], eax
  00010	8b 45 0c	 mov	 eax, DWORD PTR _t$[ebp]

; 147  : 	_ENCSTR(t, _t); return ( strcmp( lhs.c_str(), _t ) == 0 );

  00013	8a 10		 mov	 dl, BYTE PTR [eax]
  00015	8b 4d 08	 mov	 ecx, DWORD PTR _lhs$[ebp]
  00018	84 d2		 test	 dl, dl
  0001a	0f 84 a9 00 00
	00		 je	 $LN96@operator@2
  00020	80 f2 ed	 xor	 dl, -19			; ffffffedH
  00023	88 55 f0	 mov	 BYTE PTR __t$[ebp], dl
  00026	8a 50 01	 mov	 dl, BYTE PTR [eax+1]
  00029	84 d2		 test	 dl, dl
  0002b	0f 84 92 00 00
	00		 je	 $LN95@operator@2
  00031	80 f2 ec	 xor	 dl, -20			; ffffffecH
  00034	88 55 f1	 mov	 BYTE PTR __t$[ebp+1], dl
  00037	8a 50 02	 mov	 dl, BYTE PTR [eax+2]
  0003a	84 d2		 test	 dl, dl
  0003c	74 7f		 je	 SHORT $LN94@operator@2
  0003e	80 f2 eb	 xor	 dl, -21			; ffffffebH
  00041	88 55 f2	 mov	 BYTE PTR __t$[ebp+2], dl
  00044	8a 50 03	 mov	 dl, BYTE PTR [eax+3]
  00047	84 d2		 test	 dl, dl
  00049	74 6c		 je	 SHORT $LN93@operator@2
  0004b	80 f2 ea	 xor	 dl, -22			; ffffffeaH
  0004e	88 55 f3	 mov	 BYTE PTR __t$[ebp+3], dl
  00051	8a 50 04	 mov	 dl, BYTE PTR [eax+4]
  00054	84 d2		 test	 dl, dl
  00056	74 59		 je	 SHORT $LN92@operator@2
  00058	80 f2 ed	 xor	 dl, -19			; ffffffedH
  0005b	80 78 05 00	 cmp	 BYTE PTR [eax+5], 0
  0005f	88 55 f4	 mov	 BYTE PTR __t$[ebp+4], dl
  00062	74 69		 je	 SHORT $LN1@operator@2
  00064	8a 50 06	 mov	 dl, BYTE PTR [eax+6]
  00067	84 d2		 test	 dl, dl
  00069	74 40		 je	 SHORT $LN90@operator@2
  0006b	80 f2 eb	 xor	 dl, -21			; ffffffebH
  0006e	88 55 f6	 mov	 BYTE PTR __t$[ebp+6], dl
  00071	8a 50 07	 mov	 dl, BYTE PTR [eax+7]
  00074	84 d2		 test	 dl, dl
  00076	74 2d		 je	 SHORT $LN89@operator@2
  00078	80 f2 ea	 xor	 dl, -22			; ffffffeaH
  0007b	88 55 f7	 mov	 BYTE PTR __t$[ebp+7], dl
  0007e	8a 50 08	 mov	 dl, BYTE PTR [eax+8]
  00081	84 d2		 test	 dl, dl
  00083	74 1a		 je	 SHORT $LN88@operator@2
  00085	8a 40 09	 mov	 al, BYTE PTR [eax+9]
  00088	80 f2 ed	 xor	 dl, -19			; ffffffedH
  0008b	88 55 f8	 mov	 BYTE PTR __t$[ebp+8], dl
  0008e	84 c0		 test	 al, al
  00090	74 07		 je	 SHORT $LN87@operator@2
  00092	34 ec		 xor	 al, -20			; ffffffecH
  00094	88 45 f9	 mov	 BYTE PTR __t$[ebp+9], al
  00097	eb 34		 jmp	 SHORT $LN1@operator@2
$LN87@operator@2:
  00099	c6 45 f9 ec	 mov	 BYTE PTR __t$[ebp+9], -20 ; ffffffecH
  0009d	eb 2e		 jmp	 SHORT $LN1@operator@2
$LN88@operator@2:
  0009f	c6 45 f8 ed	 mov	 BYTE PTR __t$[ebp+8], -19 ; ffffffedH
  000a3	eb 28		 jmp	 SHORT $LN1@operator@2
$LN89@operator@2:
  000a5	c6 45 f7 ea	 mov	 BYTE PTR __t$[ebp+7], -22 ; ffffffeaH
  000a9	eb 22		 jmp	 SHORT $LN1@operator@2
$LN90@operator@2:
  000ab	c6 45 f6 eb	 mov	 BYTE PTR __t$[ebp+6], -21 ; ffffffebH
  000af	eb 1c		 jmp	 SHORT $LN1@operator@2
$LN92@operator@2:
  000b1	c6 45 f4 ed	 mov	 BYTE PTR __t$[ebp+4], -19 ; ffffffedH
  000b5	eb 16		 jmp	 SHORT $LN1@operator@2
$LN93@operator@2:
  000b7	c6 45 f3 ea	 mov	 BYTE PTR __t$[ebp+3], -22 ; ffffffeaH
  000bb	eb 10		 jmp	 SHORT $LN1@operator@2
$LN94@operator@2:
  000bd	c6 45 f2 eb	 mov	 BYTE PTR __t$[ebp+2], -21 ; ffffffebH
  000c1	eb 0a		 jmp	 SHORT $LN1@operator@2
$LN95@operator@2:
  000c3	c6 45 f1 ec	 mov	 BYTE PTR __t$[ebp+1], -20 ; ffffffecH
  000c7	eb 04		 jmp	 SHORT $LN1@operator@2
$LN96@operator@2:
  000c9	c6 45 f0 ed	 mov	 BYTE PTR __t$[ebp], -19	; ffffffedH
$LN1@operator@2:
  000cd	81 75 f0 ed ec
	eb ea		 xor	 DWORD PTR __t$[ebp], -353637139 ; eaebecedH
  000d4	80 75 f4 ed	 xor	 BYTE PTR __t$[ebp+4], -19 ; ffffffedH
  000d8	56		 push	 esi
  000d9	c6 45 f5 00	 mov	 BYTE PTR __t$[ebp+5], 0
  000dd	8d 75 f0	 lea	 esi, DWORD PTR __t$[ebp]
  000e0	ff 15 00 00 00
	00		 call	 DWORD PTR __imp_?c_str@ioHashString@@QBEPBDXZ
$LL111@operator@2:
  000e6	8a 08		 mov	 cl, BYTE PTR [eax]
  000e8	3a 0e		 cmp	 cl, BYTE PTR [esi]
  000ea	75 1a		 jne	 SHORT $LN112@operator@2
  000ec	84 c9		 test	 cl, cl
  000ee	74 12		 je	 SHORT $LN113@operator@2
  000f0	8a 48 01	 mov	 cl, BYTE PTR [eax+1]
  000f3	3a 4e 01	 cmp	 cl, BYTE PTR [esi+1]
  000f6	75 0e		 jne	 SHORT $LN112@operator@2
  000f8	83 c0 02	 add	 eax, 2
  000fb	83 c6 02	 add	 esi, 2
  000fe	84 c9		 test	 cl, cl
  00100	75 e4		 jne	 SHORT $LL111@operator@2
$LN113@operator@2:
  00102	33 c0		 xor	 eax, eax
  00104	eb 05		 jmp	 SHORT $LN114@operator@2
$LN112@operator@2:
  00106	1b c0		 sbb	 eax, eax
  00108	83 d8 ff	 sbb	 eax, -1
$LN114@operator@2:
  0010b	33 c9		 xor	 ecx, ecx
  0010d	85 c0		 test	 eax, eax
  0010f	0f 94 c0	 sete	 al

; 148  : }

  00112	8b 4d fc	 mov	 ecx, DWORD PTR __$ArrayPad$[ebp]
  00115	33 cd		 xor	 ecx, ebp
  00117	5e		 pop	 esi
  00118	e8 00 00 00 00	 call	 @__security_check_cookie@4
  0011d	c9		 leave
  0011e	c3		 ret	 0
??$?8$05@@YA_NABVioHashString@@AAY05$$CBD@Z ENDP	; operator==<6>
_TEXT	ENDS
PUBLIC	__$ArrayPad$
PUBLIC	??$?8$06@@YA_NABVioHashString@@AAY06$$CBD@Z	; operator==<7>
; Function compile flags: /Ogsp
;	COMDAT ??$?8$06@@YA_NABVioHashString@@AAY06$$CBD@Z
_TEXT	SEGMENT
__t$ = -16						; size = 7
__$ArrayPad$ = -4					; size = 4
_lhs$ = 8						; size = 4
_t$ = 12						; size = 4
??$?8$06@@YA_NABVioHashString@@AAY06$$CBD@Z PROC	; operator==<7>, COMDAT

; 146  : {

  00000	55		 push	 ebp
  00001	8b ec		 mov	 ebp, esp
  00003	83 ec 10	 sub	 esp, 16			; 00000010H
  00006	a1 00 00 00 00	 mov	 eax, DWORD PTR ___security_cookie
  0000b	33 c5		 xor	 eax, ebp
  0000d	89 45 fc	 mov	 DWORD PTR __$ArrayPad$[ebp], eax
  00010	8b 45 0c	 mov	 eax, DWORD PTR _t$[ebp]

; 147  : 	_ENCSTR(t, _t); return ( strcmp( lhs.c_str(), _t ) == 0 );

  00013	8a 10		 mov	 dl, BYTE PTR [eax]
  00015	56		 push	 esi
  00016	57		 push	 edi
  00017	8b 7d 08	 mov	 edi, DWORD PTR _lhs$[ebp]
  0001a	84 d2		 test	 dl, dl
  0001c	0f 84 c0 00 00
	00		 je	 $LN96@operator@3
  00022	80 f2 ed	 xor	 dl, -19			; ffffffedH
  00025	88 55 f0	 mov	 BYTE PTR __t$[ebp], dl
  00028	8a 50 01	 mov	 dl, BYTE PTR [eax+1]
  0002b	84 d2		 test	 dl, dl
  0002d	0f 84 a9 00 00
	00		 je	 $LN95@operator@3
  00033	80 f2 ec	 xor	 dl, -20			; ffffffecH
  00036	88 55 f1	 mov	 BYTE PTR __t$[ebp+1], dl
  00039	8a 50 02	 mov	 dl, BYTE PTR [eax+2]
  0003c	84 d2		 test	 dl, dl
  0003e	0f 84 92 00 00
	00		 je	 $LN94@operator@3
  00044	80 f2 eb	 xor	 dl, -21			; ffffffebH
  00047	88 55 f2	 mov	 BYTE PTR __t$[ebp+2], dl
  0004a	8a 50 03	 mov	 dl, BYTE PTR [eax+3]
  0004d	84 d2		 test	 dl, dl
  0004f	74 7f		 je	 SHORT $LN93@operator@3
  00051	80 f2 ea	 xor	 dl, -22			; ffffffeaH
  00054	88 55 f3	 mov	 BYTE PTR __t$[ebp+3], dl
  00057	8a 50 04	 mov	 dl, BYTE PTR [eax+4]
  0005a	84 d2		 test	 dl, dl
  0005c	74 6c		 je	 SHORT $LN92@operator@3
  0005e	80 f2 ed	 xor	 dl, -19			; ffffffedH
  00061	88 55 f4	 mov	 BYTE PTR __t$[ebp+4], dl
  00064	8a 50 05	 mov	 dl, BYTE PTR [eax+5]
  00067	84 d2		 test	 dl, dl
  00069	74 59		 je	 SHORT $LN91@operator@3
  0006b	80 f2 ec	 xor	 dl, -20			; ffffffecH
  0006e	80 78 06 00	 cmp	 BYTE PTR [eax+6], 0
  00072	88 55 f5	 mov	 BYTE PTR __t$[ebp+5], dl
  00075	74 6f		 je	 SHORT $LN1@operator@3
  00077	8a 50 07	 mov	 dl, BYTE PTR [eax+7]
  0007a	84 d2		 test	 dl, dl
  0007c	74 40		 je	 SHORT $LN89@operator@3
  0007e	80 f2 ea	 xor	 dl, -22			; ffffffeaH
  00081	88 55 f7	 mov	 BYTE PTR __t$[ebp+7], dl
  00084	8a 50 08	 mov	 dl, BYTE PTR [eax+8]
  00087	84 d2		 test	 dl, dl
  00089	74 2d		 je	 SHORT $LN88@operator@3
  0008b	80 f2 ed	 xor	 dl, -19			; ffffffedH
  0008e	88 55 f8	 mov	 BYTE PTR __t$[ebp+8], dl
  00091	8a 50 09	 mov	 dl, BYTE PTR [eax+9]
  00094	84 d2		 test	 dl, dl
  00096	74 1a		 je	 SHORT $LN87@operator@3
  00098	8a 40 0a	 mov	 al, BYTE PTR [eax+10]
  0009b	80 f2 ec	 xor	 dl, -20			; ffffffecH
  0009e	88 55 f9	 mov	 BYTE PTR __t$[ebp+9], dl
  000a1	84 c0		 test	 al, al
  000a3	74 07		 je	 SHORT $LN86@operator@3
  000a5	34 eb		 xor	 al, -21			; ffffffebH
  000a7	88 45 fa	 mov	 BYTE PTR __t$[ebp+10], al
  000aa	eb 3a		 jmp	 SHORT $LN1@operator@3
$LN86@operator@3:
  000ac	c6 45 fa eb	 mov	 BYTE PTR __t$[ebp+10], -21 ; ffffffebH
  000b0	eb 34		 jmp	 SHORT $LN1@operator@3
$LN87@operator@3:
  000b2	c6 45 f9 ec	 mov	 BYTE PTR __t$[ebp+9], -20 ; ffffffecH
  000b6	eb 2e		 jmp	 SHORT $LN1@operator@3
$LN88@operator@3:
  000b8	c6 45 f8 ed	 mov	 BYTE PTR __t$[ebp+8], -19 ; ffffffedH
  000bc	eb 28		 jmp	 SHORT $LN1@operator@3
$LN89@operator@3:
  000be	c6 45 f7 ea	 mov	 BYTE PTR __t$[ebp+7], -22 ; ffffffeaH
  000c2	eb 22		 jmp	 SHORT $LN1@operator@3
$LN91@operator@3:
  000c4	c6 45 f5 ec	 mov	 BYTE PTR __t$[ebp+5], -20 ; ffffffecH
  000c8	eb 1c		 jmp	 SHORT $LN1@operator@3
$LN92@operator@3:
  000ca	c6 45 f4 ed	 mov	 BYTE PTR __t$[ebp+4], -19 ; ffffffedH
  000ce	eb 16		 jmp	 SHORT $LN1@operator@3
$LN93@operator@3:
  000d0	c6 45 f3 ea	 mov	 BYTE PTR __t$[ebp+3], -22 ; ffffffeaH
  000d4	eb 10		 jmp	 SHORT $LN1@operator@3
$LN94@operator@3:
  000d6	c6 45 f2 eb	 mov	 BYTE PTR __t$[ebp+2], -21 ; ffffffebH
  000da	eb 0a		 jmp	 SHORT $LN1@operator@3
$LN95@operator@3:
  000dc	c6 45 f1 ec	 mov	 BYTE PTR __t$[ebp+1], -20 ; ffffffecH
  000e0	eb 04		 jmp	 SHORT $LN1@operator@3
$LN96@operator@3:
  000e2	c6 45 f0 ed	 mov	 BYTE PTR __t$[ebp], -19	; ffffffedH
$LN1@operator@3:
  000e6	81 75 f0 ed ec
	eb ea		 xor	 DWORD PTR __t$[ebp], -353637139 ; eaebecedH
  000ed	6a 04		 push	 4
  000ef	c6 45 f6 00	 mov	 BYTE PTR __t$[ebp+6], 0
  000f3	58		 pop	 eax
$LL101@operator@3:
  000f4	8b c8		 mov	 ecx, eax
  000f6	81 e1 03 00 00
	80		 and	 ecx, -2147483645	; 80000003H
  000fc	79 05		 jns	 SHORT $LN115@operator@3
  000fe	49		 dec	 ecx
  000ff	83 c9 fc	 or	 ecx, -4			; fffffffcH
  00102	41		 inc	 ecx
$LN115@operator@3:
  00103	b2 ed		 mov	 dl, -19			; ffffffedH
  00105	2a d1		 sub	 dl, cl
  00107	30 54 05 f0	 xor	 BYTE PTR __t$[ebp+eax], dl
  0010b	40		 inc	 eax
  0010c	83 f8 06	 cmp	 eax, 6
  0010f	7c e3		 jl	 SHORT $LL101@operator@3
  00111	8b cf		 mov	 ecx, edi
  00113	8d 75 f0	 lea	 esi, DWORD PTR __t$[ebp]
  00116	ff 15 00 00 00
	00		 call	 DWORD PTR __imp_?c_str@ioHashString@@QBEPBDXZ
$LL111@operator@3:
  0011c	8a 08		 mov	 cl, BYTE PTR [eax]
  0011e	3a 0e		 cmp	 cl, BYTE PTR [esi]
  00120	75 1a		 jne	 SHORT $LN112@operator@3
  00122	84 c9		 test	 cl, cl
  00124	74 12		 je	 SHORT $LN113@operator@3
  00126	8a 48 01	 mov	 cl, BYTE PTR [eax+1]
  00129	3a 4e 01	 cmp	 cl, BYTE PTR [esi+1]
  0012c	75 0e		 jne	 SHORT $LN112@operator@3
  0012e	83 c0 02	 add	 eax, 2
  00131	83 c6 02	 add	 esi, 2
  00134	84 c9		 test	 cl, cl
  00136	75 e4		 jne	 SHORT $LL111@operator@3
$LN113@operator@3:
  00138	33 c0		 xor	 eax, eax
  0013a	eb 05		 jmp	 SHORT $LN114@operator@3
$LN112@operator@3:
  0013c	1b c0		 sbb	 eax, eax
  0013e	83 d8 ff	 sbb	 eax, -1
$LN114@operator@3:
  00141	33 c9		 xor	 ecx, ecx
  00143	85 c0		 test	 eax, eax
  00145	0f 94 c0	 sete	 al

; 148  : }

  00148	8b 4d fc	 mov	 ecx, DWORD PTR __$ArrayPad$[ebp]
  0014b	5f		 pop	 edi
  0014c	33 cd		 xor	 ecx, ebp
  0014e	5e		 pop	 esi
  0014f	e8 00 00 00 00	 call	 @__security_check_cookie@4
  00154	c9		 leave
  00155	c3		 ret	 0
??$?8$06@@YA_NABVioHashString@@AAY06$$CBD@Z ENDP	; operator==<7>
_TEXT	ENDS
PUBLIC	_szType$GSCopy$
PUBLIC	_pImage$GSCopy$
PUBLIC	_this$GSCopy$
PUBLIC	__$ArrayPad$
EXTRN	__imp_?AddRenderImage@ioWnd@@UAEXABVioHashString@@PAVioUIRenderImage@@@Z:PROC
; Function compile flags: /Ogsp
; File d:\lost saga for developer\youtube\tutorial\source\src\lsclient\gui\shufflebonusresultwnd.cpp
;	COMDAT ?AddRenderImage@ShuffleBonusResultWnd@@UAEXABVioHashString@@PAVioUIRenderImage@@@Z
_TEXT	SEGMENT
_szType$GSCopy$ = -32					; size = 4
_pImage$GSCopy$ = -28					; size = 4
_this$GSCopy$ = -24					; size = 4
__t$508249 = -20					; size = 7
__t$508111 = -20					; size = 6
__t$507986 = -20					; size = 9
__$ArrayPad$ = -4					; size = 4
_szType$ = 8						; size = 4
_pImage$ = 12						; size = 4
?AddRenderImage@ShuffleBonusResultWnd@@UAEXABVioHashString@@PAVioUIRenderImage@@@Z PROC ; ShuffleBonusResultWnd::AddRenderImage, COMDAT
; _this$ = ecx

; 37   : {

  00000	55		 push	 ebp
  00001	8b ec		 mov	 ebp, esp
  00003	83 ec 20	 sub	 esp, 32			; 00000020H
  00006	a1 00 00 00 00	 mov	 eax, DWORD PTR ___security_cookie
  0000b	33 c5		 xor	 eax, ebp
  0000d	89 45 fc	 mov	 DWORD PTR __$ArrayPad$[ebp], eax
  00010	8b 45 0c	 mov	 eax, DWORD PTR _pImage$[ebp]
  00013	8b 55 08	 mov	 edx, DWORD PTR _szType$[ebp]
  00016	53		 push	 ebx
  00017	56		 push	 esi
  00018	57		 push	 edi

; 38   : 	if( szType == "StarIcon" )

  00019	33 db		 xor	 ebx, ebx
  0001b	6a 02		 push	 2
  0001d	89 4d e8	 mov	 DWORD PTR _this$GSCopy$[ebp], ecx

; 49   : 	{
; 50   : 		SAFEDELETE( m_pNumber );

  00020	89 45 e4	 mov	 DWORD PTR _pImage$GSCopy$[ebp], eax
  00023	89 55 e0	 mov	 DWORD PTR _szType$GSCopy$[ebp], edx
  00026	c7 45 ec be 98
	8a 98		 mov	 DWORD PTR __t$507986[ebp], -1735747394 ; 988a98beH
  0002d	c7 45 f0 a4 8f
	84 84		 mov	 DWORD PTR __t$507986[ebp+4], -2071687260 ; 84848fa4H
  00034	8d 45 ec	 lea	 eax, DWORD PTR __t$507986[ebp]
  00037	88 5d f4	 mov	 BYTE PTR __t$507986[ebp+8], bl
  0003a	59		 pop	 ecx
  0003b	bf ed ec eb ea	 mov	 edi, -353637139		; eaebecedH
$LL121@AddRenderI:

; 38   : 	if( szType == "StarIcon" )

  00040	31 38		 xor	 DWORD PTR [eax], edi
  00042	83 c0 04	 add	 eax, 4
  00045	49		 dec	 ecx
  00046	75 f8		 jne	 SHORT $LL121@AddRenderI
  00048	8b ca		 mov	 ecx, edx
  0004a	8d 75 ec	 lea	 esi, DWORD PTR __t$507986[ebp]
  0004d	ff 15 00 00 00
	00		 call	 DWORD PTR __imp_?c_str@ioHashString@@QBEPBDXZ
$LL350@AddRenderI:
  00053	8a 08		 mov	 cl, BYTE PTR [eax]
  00055	3a 0e		 cmp	 cl, BYTE PTR [esi]
  00057	75 1a		 jne	 SHORT $LN351@AddRenderI
  00059	3a cb		 cmp	 cl, bl
  0005b	74 12		 je	 SHORT $LN352@AddRenderI
  0005d	8a 48 01	 mov	 cl, BYTE PTR [eax+1]
  00060	3a 4e 01	 cmp	 cl, BYTE PTR [esi+1]
  00063	75 0e		 jne	 SHORT $LN351@AddRenderI
  00065	83 c0 02	 add	 eax, 2
  00068	83 c6 02	 add	 esi, 2
  0006b	3a cb		 cmp	 cl, bl
  0006d	75 e4		 jne	 SHORT $LL350@AddRenderI
$LN352@AddRenderI:
  0006f	33 c0		 xor	 eax, eax
  00071	eb 05		 jmp	 SHORT $LN353@AddRenderI
$LN351@AddRenderI:
  00073	1b c0		 sbb	 eax, eax
  00075	83 d8 ff	 sbb	 eax, -1
$LN353@AddRenderI:
  00078	3b c3		 cmp	 eax, ebx
  0007a	75 28		 jne	 SHORT $LN348@AddRenderI

; 39   : 	{
; 40   : 		SAFEDELETE( m_pStarIcon );

  0007c	8b 75 e8	 mov	 esi, DWORD PTR _this$GSCopy$[ebp]
  0007f	8b 8e 60 01 00
	00		 mov	 ecx, DWORD PTR [esi+352]
  00085	3b cb		 cmp	 ecx, ebx
  00087	74 0d		 je	 SHORT $LN8@AddRenderI
  00089	8b 01		 mov	 eax, DWORD PTR [ecx]
  0008b	6a 01		 push	 1
  0008d	ff 50 40	 call	 DWORD PTR [eax+64]
  00090	89 9e 60 01 00
	00		 mov	 DWORD PTR [esi+352], ebx
$LN8@AddRenderI:

; 41   : 		m_pStarIcon = pImage;

  00096	8b 45 e4	 mov	 eax, DWORD PTR _pImage$GSCopy$[ebp]
  00099	89 86 60 01 00
	00		 mov	 DWORD PTR [esi+352], eax
  0009f	e9 09 01 00 00	 jmp	 $LN1@AddRenderI
$LN348@AddRenderI:

; 42   : 	}
; 43   : 	else if( szType == "Cross" )

  000a4	8b 4d e0	 mov	 ecx, DWORD PTR _szType$GSCopy$[ebp]
  000a7	c7 45 ec ae 9e
	84 99		 mov	 DWORD PTR __t$508111[ebp], -1719361874 ; 99849eaeH
  000ae	31 7d ec	 xor	 DWORD PTR __t$508111[ebp], edi
  000b1	66 c7 45 f0 73
	00		 mov	 WORD PTR __t$508111[ebp+4], 115 ; 00000073H
  000b7	8d 75 ec	 lea	 esi, DWORD PTR __t$508111[ebp]
  000ba	ff 15 00 00 00
	00		 call	 DWORD PTR __imp_?c_str@ioHashString@@QBEPBDXZ
$LL354@AddRenderI:
  000c0	8a 08		 mov	 cl, BYTE PTR [eax]
  000c2	3a 0e		 cmp	 cl, BYTE PTR [esi]
  000c4	75 1a		 jne	 SHORT $LN355@AddRenderI
  000c6	3a cb		 cmp	 cl, bl
  000c8	74 12		 je	 SHORT $LN356@AddRenderI
  000ca	8a 48 01	 mov	 cl, BYTE PTR [eax+1]
  000cd	3a 4e 01	 cmp	 cl, BYTE PTR [esi+1]
  000d0	75 0e		 jne	 SHORT $LN355@AddRenderI
  000d2	83 c0 02	 add	 eax, 2
  000d5	83 c6 02	 add	 esi, 2
  000d8	3a cb		 cmp	 cl, bl
  000da	75 e4		 jne	 SHORT $LL354@AddRenderI
$LN356@AddRenderI:
  000dc	33 c0		 xor	 eax, eax
  000de	eb 05		 jmp	 SHORT $LN357@AddRenderI
$LN355@AddRenderI:
  000e0	1b c0		 sbb	 eax, eax
  000e2	83 d8 ff	 sbb	 eax, -1
$LN357@AddRenderI:
  000e5	3b c3		 cmp	 eax, ebx
  000e7	75 28		 jne	 SHORT $LN349@AddRenderI

; 44   : 	{
; 45   : 		SAFEDELETE( m_pCross );

  000e9	8b 75 e8	 mov	 esi, DWORD PTR _this$GSCopy$[ebp]
  000ec	8b 8e 64 01 00
	00		 mov	 ecx, DWORD PTR [esi+356]
  000f2	3b cb		 cmp	 ecx, ebx
  000f4	74 0d		 je	 SHORT $LN5@AddRenderI
  000f6	8b 01		 mov	 eax, DWORD PTR [ecx]
  000f8	6a 01		 push	 1
  000fa	ff 50 40	 call	 DWORD PTR [eax+64]
  000fd	89 9e 64 01 00
	00		 mov	 DWORD PTR [esi+356], ebx
$LN5@AddRenderI:

; 46   : 		m_pCross = pImage;

  00103	8b 45 e4	 mov	 eax, DWORD PTR _pImage$GSCopy$[ebp]
  00106	89 86 64 01 00
	00		 mov	 DWORD PTR [esi+356], eax
  0010c	e9 9c 00 00 00	 jmp	 $LN1@AddRenderI
$LN349@AddRenderI:

; 47   : 	}
; 48   : 	else if( szType == "Number" )

  00111	6a 04		 push	 4
  00113	c7 45 ec a3 99
	86 88		 mov	 DWORD PTR __t$508249[ebp], -2004444765 ; 888699a3H
  0011a	31 7d ec	 xor	 DWORD PTR __t$508249[ebp], edi
  0011d	66 c7 45 f0 88
	9e		 mov	 WORD PTR __t$508249[ebp+4], 40584 ; 00009e88H
  00123	88 5d f2	 mov	 BYTE PTR __t$508249[ebp+6], bl
  00126	58		 pop	 eax
$LL330@AddRenderI:
  00127	8b c8		 mov	 ecx, eax
  00129	81 e1 03 00 00
	80		 and	 ecx, -2147483645	; 80000003H
  0012f	79 05		 jns	 SHORT $LN362@AddRenderI
  00131	49		 dec	 ecx
  00132	83 c9 fc	 or	 ecx, -4			; fffffffcH
  00135	41		 inc	 ecx
$LN362@AddRenderI:
  00136	b2 ed		 mov	 dl, -19			; ffffffedH
  00138	2a d1		 sub	 dl, cl
  0013a	30 54 05 ec	 xor	 BYTE PTR __t$508249[ebp+eax], dl
  0013e	40		 inc	 eax
  0013f	83 f8 06	 cmp	 eax, 6
  00142	7c e3		 jl	 SHORT $LL330@AddRenderI
  00144	8b 4d e0	 mov	 ecx, DWORD PTR _szType$GSCopy$[ebp]
  00147	8d 75 ec	 lea	 esi, DWORD PTR __t$508249[ebp]
  0014a	ff 15 00 00 00
	00		 call	 DWORD PTR __imp_?c_str@ioHashString@@QBEPBDXZ
$LL358@AddRenderI:
  00150	8a 08		 mov	 cl, BYTE PTR [eax]
  00152	3a 0e		 cmp	 cl, BYTE PTR [esi]
  00154	75 1a		 jne	 SHORT $LN359@AddRenderI
  00156	3a cb		 cmp	 cl, bl
  00158	74 12		 je	 SHORT $LN360@AddRenderI
  0015a	8a 48 01	 mov	 cl, BYTE PTR [eax+1]
  0015d	3a 4e 01	 cmp	 cl, BYTE PTR [esi+1]
  00160	75 0e		 jne	 SHORT $LN359@AddRenderI
  00162	83 c0 02	 add	 eax, 2
  00165	83 c6 02	 add	 esi, 2
  00168	3a cb		 cmp	 cl, bl
  0016a	75 e4		 jne	 SHORT $LL358@AddRenderI
$LN360@AddRenderI:
  0016c	33 c0		 xor	 eax, eax
  0016e	eb 05		 jmp	 SHORT $LN361@AddRenderI
$LN359@AddRenderI:
  00170	1b c0		 sbb	 eax, eax
  00172	83 d8 ff	 sbb	 eax, -1
$LN361@AddRenderI:
  00175	3b c3		 cmp	 eax, ebx
  00177	75 25		 jne	 SHORT $LN3@AddRenderI

; 49   : 	{
; 50   : 		SAFEDELETE( m_pNumber );

  00179	8b 75 e8	 mov	 esi, DWORD PTR _this$GSCopy$[ebp]
  0017c	8b 8e 68 01 00
	00		 mov	 ecx, DWORD PTR [esi+360]
  00182	3b cb		 cmp	 ecx, ebx
  00184	74 0d		 je	 SHORT $LN2@AddRenderI
  00186	8b 01		 mov	 eax, DWORD PTR [ecx]
  00188	6a 01		 push	 1
  0018a	ff 50 40	 call	 DWORD PTR [eax+64]
  0018d	89 9e 68 01 00
	00		 mov	 DWORD PTR [esi+360], ebx
$LN2@AddRenderI:

; 51   : 		m_pNumber = pImage;

  00193	8b 45 e4	 mov	 eax, DWORD PTR _pImage$GSCopy$[ebp]
  00196	89 86 68 01 00
	00		 mov	 DWORD PTR [esi+360], eax

; 52   : 	}
; 53   : 	else

  0019c	eb 0f		 jmp	 SHORT $LN1@AddRenderI
$LN3@AddRenderI:

; 54   : 	{
; 55   : 		ioWnd::AddRenderImage( szType, pImage );

  0019e	ff 75 e4	 push	 DWORD PTR _pImage$GSCopy$[ebp]
  001a1	8b 4d e8	 mov	 ecx, DWORD PTR _this$GSCopy$[ebp]
  001a4	ff 75 e0	 push	 DWORD PTR _szType$GSCopy$[ebp]
  001a7	ff 15 00 00 00
	00		 call	 DWORD PTR __imp_?AddRenderImage@ioWnd@@UAEXABVioHashString@@PAVioUIRenderImage@@@Z
$LN1@AddRenderI:

; 56   : 	}
; 57   : }

  001ad	8b 4d fc	 mov	 ecx, DWORD PTR __$ArrayPad$[ebp]
  001b0	5f		 pop	 edi
  001b1	5e		 pop	 esi
  001b2	33 cd		 xor	 ecx, ebp
  001b4	5b		 pop	 ebx
  001b5	e8 00 00 00 00	 call	 @__security_check_cookie@4
  001ba	c9		 leave
  001bb	c2 08 00	 ret	 8
?AddRenderImage@ShuffleBonusResultWnd@@UAEXABVioHashString@@PAVioUIRenderImage@@@Z ENDP ; ShuffleBonusResultWnd::AddRenderImage
_TEXT	ENDS
END
