; Listing generated by Microsoft (R) Optimizing Compiler Version 16.00.30319.01 

	TITLE	D:\Lost Saga For Developer\Youtube\Tutorial\Source\src\LSClient\GUI\SoldierPackageWnd.cpp
	.686P
	.XMM
	include listing.inc
	.model	flat

INCLUDELIB MSVCRT
INCLUDELIB OLDNAMES

PUBLIC	?return1@@YAIXZ					; return1
; Function compile flags: /Ogsp
; File d:\lost saga for developer\youtube\tutorial\source\src\lsclient\stdafx.h
;	COMDAT ?return1@@YAIXZ
_TEXT	SEGMENT
?return1@@YAIXZ PROC					; return1, COMDAT

; 17   : 	__forceinline unsigned int return1() { __asm mov eax, 1 };

  00000	b8 01 00 00 00	 mov	 eax, 1
  00005	c3		 ret	 0
?return1@@YAIXZ ENDP					; return1
_TEXT	ENDS
PUBLIC	?return1000@@YAIXZ				; return1000
; Function compile flags: /Ogsp
;	COMDAT ?return1000@@YAIXZ
_TEXT	SEGMENT
?return1000@@YAIXZ PROC					; return1000, COMDAT

; 29   : 	__forceinline unsigned int return1000() { __asm mov eax, 1000 };

  00000	b8 e8 03 00 00	 mov	 eax, 1000		; 000003e8H
  00005	c3		 ret	 0
?return1000@@YAIXZ ENDP					; return1000
_TEXT	ENDS
PUBLIC	?iwm_hide@PackagePullDownWnd@@UAEXXZ		; PackagePullDownWnd::iwm_hide
EXTRN	__imp_?SetCheckParentOutSide@ioWnd@@QAEX_N@Z:PROC
; Function compile flags: /Ogsp
; File d:\lost saga for developer\youtube\tutorial\source\src\lsclient\gui\soldierpackagewnd.cpp
;	COMDAT ?iwm_hide@PackagePullDownWnd@@UAEXXZ
_TEXT	SEGMENT
?iwm_hide@PackagePullDownWnd@@UAEXXZ PROC		; PackagePullDownWnd::iwm_hide, COMDAT
; _this$ = ecx

; 148  : 	SetCheckParentOutSide( false );

  00000	6a 00		 push	 0
  00002	ff 15 00 00 00
	00		 call	 DWORD PTR __imp_?SetCheckParentOutSide@ioWnd@@QAEX_N@Z

; 149  : }

  00008	c3		 ret	 0
?iwm_hide@PackagePullDownWnd@@UAEXXZ ENDP		; PackagePullDownWnd::iwm_hide
_TEXT	ENDS
PUBLIC	?iwm_vscroll@PackagePullDownWnd@@UAEXKH@Z	; PackagePullDownWnd::iwm_vscroll
; Function compile flags: /Ogsp
;	COMDAT ?iwm_vscroll@PackagePullDownWnd@@UAEXKH@Z
_TEXT	SEGMENT
_dwID$ = 8						; size = 4
_curPos$ = 12						; size = 4
?iwm_vscroll@PackagePullDownWnd@@UAEXKH@Z PROC		; PackagePullDownWnd::iwm_vscroll, COMDAT
; _this$ = ecx

; 152  : {

  00000	55		 push	 ebp
  00001	8b ec		 mov	 ebp, esp

; 153  : 	m_iCurPage = curPos;

  00003	8b 45 0c	 mov	 eax, DWORD PTR _curPos$[ebp]
  00006	89 81 94 01 00
	00		 mov	 DWORD PTR [ecx+404], eax

; 154  : }

  0000c	5d		 pop	 ebp
  0000d	c2 08 00	 ret	 8
?iwm_vscroll@PackagePullDownWnd@@UAEXKH@Z ENDP		; PackagePullDownWnd::iwm_vscroll
_TEXT	ENDS
PUBLIC	?iwm_wheel@PackagePullDownWnd@@UAEXH@Z		; PackagePullDownWnd::iwm_wheel
EXTRN	__imp_?iwm_wheel@ioWnd@@UAEXH@Z:PROC
EXTRN	__imp_?IsShow@ioWnd@@QBE_NXZ:PROC
; Function compile flags: /Ogsp
;	COMDAT ?iwm_wheel@PackagePullDownWnd@@UAEXH@Z
_TEXT	SEGMENT
_zDelta$ = 8						; size = 4
?iwm_wheel@PackagePullDownWnd@@UAEXH@Z PROC		; PackagePullDownWnd::iwm_wheel, COMDAT
; _this$ = ecx

; 157  : {

  00000	55		 push	 ebp
  00001	8b ec		 mov	 ebp, esp
  00003	57		 push	 edi
  00004	8b f9		 mov	 edi, ecx

; 158  : 	if( !IsShow() )

  00006	ff 15 00 00 00
	00		 call	 DWORD PTR __imp_?IsShow@ioWnd@@QBE_NXZ
  0000c	84 c0		 test	 al, al
  0000e	75 0d		 jne	 SHORT $LN7@iwm_wheel

; 159  : 		ioWnd::iwm_wheel( zDelta );

  00010	ff 75 08	 push	 DWORD PTR _zDelta$[ebp]
  00013	8b cf		 mov	 ecx, edi
  00015	ff 15 00 00 00
	00		 call	 DWORD PTR __imp_?iwm_wheel@ioWnd@@UAEXH@Z

; 160  : 	else

  0001b	eb 3f		 jmp	 SHORT $LN1@iwm_wheel
$LN7@iwm_wheel:
  0001d	56		 push	 esi

; 161  : 	{ 
; 162  : 		ioScroll *pScroll = (ioScroll*)m_pScrollWnd;

  0001e	8b b7 8c 01 00
	00		 mov	 esi, DWORD PTR [edi+396]

; 163  : 		if( !pScroll ) return;

  00024	85 f6		 test	 esi, esi
  00026	74 33		 je	 SHORT $LN10@iwm_wheel

; 164  : 		if( !pScroll->IsShow() ) return;

  00028	8b ce		 mov	 ecx, esi
  0002a	ff 15 00 00 00
	00		 call	 DWORD PTR __imp_?IsShow@ioWnd@@QBE_NXZ
  00030	84 c0		 test	 al, al
  00032	74 27		 je	 SHORT $LN10@iwm_wheel

; 165  : 
; 166  : 		// 휠 이벤트 처리를 했다면 부모로 이벤트를 날리지 않는다.
; 167  : 		if( zDelta == WHEEL_DELTA )

  00034	83 7d 08 78	 cmp	 DWORD PTR _zDelta$[ebp], 120 ; 00000078H
  00038	75 09		 jne	 SHORT $LN3@iwm_wheel

; 168  : 		{
; 169  : 			pScroll->SetScrollPos( m_iCurPage - 1 );

  0003a	8b 8f 94 01 00
	00		 mov	 ecx, DWORD PTR [edi+404]
  00040	49		 dec	 ecx
  00041	eb 0d		 jmp	 SHORT $LN11@iwm_wheel
$LN3@iwm_wheel:

; 170  : 		}
; 171  : 		else if( zDelta == -WHEEL_DELTA )

  00043	83 7d 08 88	 cmp	 DWORD PTR _zDelta$[ebp], -120 ; ffffff88H
  00047	75 12		 jne	 SHORT $LN10@iwm_wheel

; 172  : 		{
; 173  : 			pScroll->SetScrollPos( m_iCurPage + 1 );

  00049	8b 8f 94 01 00
	00		 mov	 ecx, DWORD PTR [edi+404]
  0004f	41		 inc	 ecx
$LN11@iwm_wheel:
  00050	8b 06		 mov	 eax, DWORD PTR [esi]
  00052	51		 push	 ecx
  00053	8b ce		 mov	 ecx, esi
  00055	ff 90 38 01 00
	00		 call	 DWORD PTR [eax+312]
$LN10@iwm_wheel:
  0005b	5e		 pop	 esi
$LN1@iwm_wheel:
  0005c	5f		 pop	 edi

; 174  : 		}
; 175  : 	}
; 176  : }

  0005d	5d		 pop	 ebp
  0005e	c2 04 00	 ret	 4
?iwm_wheel@PackagePullDownWnd@@UAEXH@Z ENDP		; PackagePullDownWnd::iwm_wheel
_TEXT	ENDS
PUBLIC	??4NewShopPullDownItem@@QAEAAU0@ABU0@@Z		; NewShopPullDownItem::operator=
EXTRN	__imp_??4ioHashString@@QAEAAV0@ABV0@@Z:PROC
; Function compile flags: /Ogsp
;	COMDAT ??4NewShopPullDownItem@@QAEAAU0@ABU0@@Z
_TEXT	SEGMENT
___that$ = 8						; size = 4
??4NewShopPullDownItem@@QAEAAU0@ABU0@@Z PROC		; NewShopPullDownItem::operator=, COMDAT
; _this$ = ecx
  00000	55		 push	 ebp
  00001	8b ec		 mov	 ebp, esp
  00003	53		 push	 ebx
  00004	8b 1d 00 00 00
	00		 mov	 ebx, DWORD PTR __imp_??4ioHashString@@QAEAAV0@ABV0@@Z
  0000a	56		 push	 esi
  0000b	57		 push	 edi
  0000c	8b 7d 08	 mov	 edi, DWORD PTR ___that$[ebp]
  0000f	57		 push	 edi
  00010	8b f1		 mov	 esi, ecx
  00012	ff d3		 call	 ebx
  00014	8b 47 10	 mov	 eax, DWORD PTR [edi+16]
  00017	89 46 10	 mov	 DWORD PTR [esi+16], eax
  0001a	8b 47 14	 mov	 eax, DWORD PTR [edi+20]
  0001d	89 46 14	 mov	 DWORD PTR [esi+20], eax
  00020	8a 47 18	 mov	 al, BYTE PTR [edi+24]
  00023	88 46 18	 mov	 BYTE PTR [esi+24], al
  00026	8b 47 1c	 mov	 eax, DWORD PTR [edi+28]
  00029	89 46 1c	 mov	 DWORD PTR [esi+28], eax
  0002c	8a 47 20	 mov	 al, BYTE PTR [edi+32]
  0002f	88 46 20	 mov	 BYTE PTR [esi+32], al
  00032	8d 47 24	 lea	 eax, DWORD PTR [edi+36]
  00035	50		 push	 eax
  00036	8d 4e 24	 lea	 ecx, DWORD PTR [esi+36]
  00039	ff d3		 call	 ebx
  0003b	8b 47 34	 mov	 eax, DWORD PTR [edi+52]
  0003e	89 46 34	 mov	 DWORD PTR [esi+52], eax
  00041	8a 47 38	 mov	 al, BYTE PTR [edi+56]
  00044	88 46 38	 mov	 BYTE PTR [esi+56], al
  00047	8d 47 3c	 lea	 eax, DWORD PTR [edi+60]
  0004a	50		 push	 eax
  0004b	8d 4e 3c	 lea	 ecx, DWORD PTR [esi+60]
  0004e	ff d3		 call	 ebx
  00050	8b 47 4c	 mov	 eax, DWORD PTR [edi+76]
  00053	89 46 4c	 mov	 DWORD PTR [esi+76], eax
  00056	5f		 pop	 edi
  00057	8b c6		 mov	 eax, esi
  00059	5e		 pop	 esi
  0005a	5b		 pop	 ebx
  0005b	5d		 pop	 ebp
  0005c	c2 04 00	 ret	 4
??4NewShopPullDownItem@@QAEAAU0@ABU0@@Z ENDP		; NewShopPullDownItem::operator=
_TEXT	ENDS
PUBLIC	??1PackageItem@@QAE@XZ				; PackageItem::~PackageItem
EXTRN	__imp_??1ioHashString@@QAE@XZ:PROC
; Function compile flags: /Ogsp
;	COMDAT ??1PackageItem@@QAE@XZ
_TEXT	SEGMENT
??1PackageItem@@QAE@XZ PROC				; PackageItem::~PackageItem, COMDAT
; _this$ = ecx
  00000	ff 25 00 00 00
	00		 jmp	 DWORD PTR __imp_??1ioHashString@@QAE@XZ
??1PackageItem@@QAE@XZ ENDP				; PackageItem::~PackageItem
_TEXT	ENDS
PUBLIC	??_7PackageItemBtn@@6B@				; PackageItemBtn::`vftable'
PUBLIC	??1PackageItemBtn@@UAE@XZ			; PackageItemBtn::~PackageItemBtn
PUBLIC	??_R4PackageItemBtn@@6B@			; PackageItemBtn::`RTTI Complete Object Locator'
PUBLIC	??_R0?AVPackageItemBtn@@@8			; PackageItemBtn `RTTI Type Descriptor'
PUBLIC	??_R3PackageItemBtn@@8				; PackageItemBtn::`RTTI Class Hierarchy Descriptor'
PUBLIC	??_R2PackageItemBtn@@8				; PackageItemBtn::`RTTI Base Class Array'
PUBLIC	??_R1A@?0A@EA@PackageItemBtn@@8			; PackageItemBtn::`RTTI Base Class Descriptor at (0,-1,0,64)'
PUBLIC	??_R1A@?0A@EA@ioButton@@8			; ioButton::`RTTI Base Class Descriptor at (0,-1,0,64)'
PUBLIC	??_R0?AVioButton@@@8				; ioButton `RTTI Type Descriptor'
PUBLIC	??_R3ioButton@@8				; ioButton::`RTTI Class Hierarchy Descriptor'
PUBLIC	??_R2ioButton@@8				; ioButton::`RTTI Base Class Array'
PUBLIC	??_R1A@?0A@EA@ioWnd@@8				; ioWnd::`RTTI Base Class Descriptor at (0,-1,0,64)'
PUBLIC	??_R0?AVioWnd@@@8				; ioWnd `RTTI Type Descriptor'
PUBLIC	??_R3ioWnd@@8					; ioWnd::`RTTI Class Hierarchy Descriptor'
PUBLIC	??_R2ioWnd@@8					; ioWnd::`RTTI Base Class Array'
PUBLIC	?OnRender@PackageItemBtn@@MAEXXZ		; PackageItemBtn::OnRender
EXTRN	__imp_??1ioButton@@UAE@XZ:PROC
EXTRN	??1ioComplexStringPrinter@@QAE@XZ:PROC		; ioComplexStringPrinter::~ioComplexStringPrinter
EXTRN	___CxxFrameHandler3:PROC
EXTRN	@__security_check_cookie@4:PROC
EXTRN	__EH_epilog3:PROC
EXTRN	__EH_prolog3:PROC
EXTRN	??_7type_info@@6B@:QWORD			; type_info::`vftable'
EXTRN	?AddRenderFrame@ioButton@@UAEXABVioHashString@@PAVioUIRenderFrame@@@Z:PROC ; ioButton::AddRenderFrame
EXTRN	?AddRenderImage@ioButton@@UAEXABVioHashString@@PAVioUIRenderImage@@@Z:PROC ; ioButton::AddRenderImage
EXTRN	?AddTooltipHelp@ioWnd@@UAEXABVioHashString@@00@Z:PROC ; ioWnd::AddTooltipHelp
EXTRN	?ParseExtraInfo@ioButton@@UAEXAAVioXMLElement@@@Z:PROC ; ioButton::ParseExtraInfo
EXTRN	?AddNamedRenderImage@ioWnd@@UAEXABVioHashString@@PAVioUIRenderImage@@@Z:PROC ; ioWnd::AddNamedRenderImage
EXTRN	?RemoveNamedRenderImage@ioWnd@@UAEXABVioHashString@@@Z:PROC ; ioWnd::RemoveNamedRenderImage
EXTRN	?GetNamedRenderImage@ioWnd@@UBEPAVioUIRenderImage@@ABVioHashString@@@Z:PROC ; ioWnd::GetNamedRenderImage
EXTRN	?SetWindowAlpha@ioButton@@UAEXH@Z:PROC		; ioButton::SetWindowAlpha
EXTRN	?SetActive@ioWnd@@UAEXXZ:PROC			; ioWnd::SetActive
EXTRN	?SetInActive@ioWnd@@UAEXXZ:PROC			; ioWnd::SetInActive
EXTRN	?ClearElementImageList@ioWnd@@UAEXXZ:PROC	; ioWnd::ClearElementImageList
EXTRN	?SetSize@ioWnd@@UAEXHH@Z:PROC			; ioWnd::SetSize
EXTRN	?SetPositionToDefault@ioWnd@@UAEXHH_N0@Z:PROC	; ioWnd::SetPositionToDefault
EXTRN	?IsNeedProcess@ioWnd@@UBE_NXZ:PROC		; ioWnd::IsNeedProcess
EXTRN	?IsCanMouseReaction@ioWnd@@UBE_NXZ:PROC		; ioWnd::IsCanMouseReaction
EXTRN	?AddChild@ioWnd@@UAEXPAV1@@Z:PROC		; ioWnd::AddChild
EXTRN	?DeleteChild@ioWnd@@UAEXK@Z:PROC		; ioWnd::DeleteChild
EXTRN	?DeleteAllChild@ioWnd@@UAEXXZ:PROC		; ioWnd::DeleteAllChild
EXTRN	?OnRenderShowAndHide@ioWnd@@MAE_NXZ:PROC	; ioWnd::OnRenderShowAndHide
EXTRN	?OnRenderShowAndHideByDefault@ioWnd@@MAE_NK@Z:PROC ; ioWnd::OnRenderShowAndHideByDefault
EXTRN	?OnRenderShowAndHideByTop@ioWnd@@MAE_NK@Z:PROC	; ioWnd::OnRenderShowAndHideByTop
EXTRN	?OnRenderShowAndHideByDown@ioWnd@@MAE_NK@Z:PROC	; ioWnd::OnRenderShowAndHideByDown
EXTRN	?OnRenderAfterChild@ioWnd@@MAEXXZ:PROC		; ioWnd::OnRenderAfterChild
EXTRN	?OnProcess@ioWnd@@MAEXM@Z:PROC			; ioWnd::OnProcess
EXTRN	?OnMouseProcess@ioWnd@@MAEXABVioMouse@@@Z:PROC	; ioWnd::OnMouseProcess
EXTRN	?CheckFrameReSize@ioButton@@MAEXHHHH@Z:PROC	; ioButton::CheckFrameReSize
EXTRN	?RenderImageList@ioWnd@@MAEXHHW4UIRenderType@@@Z:PROC ; ioWnd::RenderImageList
EXTRN	?iwm_create@ioWnd@@UAEXXZ:PROC			; ioWnd::iwm_create
EXTRN	?iwm_destroy@ioWnd@@UAEXXZ:PROC			; ioWnd::iwm_destroy
EXTRN	?iwm_lbuttondown@ioButton@@UAEXABVioMouse@@@Z:PROC ; ioButton::iwm_lbuttondown
EXTRN	?iwm_lbuttonup@ioButton@@UAEXABVioMouse@@@Z:PROC ; ioButton::iwm_lbuttonup
EXTRN	?iwm_lbuttonDBLCLK@ioButton@@UAEXABVioMouse@@@Z:PROC ; ioButton::iwm_lbuttonDBLCLK
EXTRN	?iwm_rbuttondown@ioButton@@UAEXABVioMouse@@@Z:PROC ; ioButton::iwm_rbuttondown
EXTRN	?iwm_rbuttonup@ioButton@@UAEXABVioMouse@@@Z:PROC ; ioButton::iwm_rbuttonup
EXTRN	?iwm_command@ioWnd@@UAEXPAV1@HK@Z:PROC		; ioWnd::iwm_command
EXTRN	?iwm_mouseover@ioButton@@UAEXABVioMouse@@@Z:PROC ; ioButton::iwm_mouseover
EXTRN	?iwm_mousemove@ioWnd@@UAEXABVioMouse@@@Z:PROC	; ioWnd::iwm_mousemove
EXTRN	?iwm_mouseleave@ioWnd@@UAEXABVioMouse@@@Z:PROC	; ioWnd::iwm_mouseleave
EXTRN	?iwm_vscroll@ioWnd@@UAEXKH@Z:PROC		; ioWnd::iwm_vscroll
EXTRN	?iwm_wheel@ioWnd@@UAEXH@Z:PROC			; ioWnd::iwm_wheel
EXTRN	?iwm_show@ioWnd@@UAEXXZ:PROC			; ioWnd::iwm_show
EXTRN	?iwm_hide@ioWnd@@UAEXXZ:PROC			; ioWnd::iwm_hide
EXTRN	?iwm_esc@ioWnd@@UAE_NXZ:PROC			; ioWnd::iwm_esc
EXTRN	?iwm_spacebar@ioWnd@@UAE_NXZ:PROC		; ioWnd::iwm_spacebar
EXTRN	?iwm_gototop@ioWnd@@UAEXXZ:PROC			; ioWnd::iwm_gototop
EXTRN	?iwm_dragenter@ioWnd@@UAE?AW4IWDropEffect@@PAVioDragItem@@ABVioMouse@@@Z:PROC ; ioWnd::iwm_dragenter
EXTRN	?iwm_dragover@ioWnd@@UAE?AW4IWDropEffect@@PAVioDragItem@@ABVioMouse@@@Z:PROC ; ioWnd::iwm_dragover
EXTRN	?iwm_dragleave@ioWnd@@UAEXXZ:PROC		; ioWnd::iwm_dragleave
EXTRN	?iwm_dropitem@ioWnd@@UAE_NPAVioDragItem@@ABVioMouse@@PAV1@@Z:PROC ; ioWnd::iwm_dropitem
EXTRN	?iwm_dropdone@ioWnd@@UAEXPAVioDragItem@@PAV1@_N@Z:PROC ; ioWnd::iwm_dropdone
EXTRN	?IsEXType@ioWnd@@UBE_NXZ:PROC			; ioWnd::IsEXType
EXTRN	?GetWndType@ioButton@@UBEKXZ:PROC		; ioButton::GetWndType
EXTRN	?RenderWnd@ioWnd@@UAEXXZ:PROC			; ioWnd::RenderWnd
EXTRN	?SetIDEX@ioWnd@@UAEXAAK_N@Z:PROC		; ioWnd::SetIDEX
EXTRN	?ParseXML@ioWnd@@UAEXAAVioXMLElement@@@Z:PROC	; ioWnd::ParseXML
EXTRN	?GetHeaderFileName@ioButton@@UAEPBDXZ:PROC	; ioButton::GetHeaderFileName
EXTRN	?GetTemplateName@ioButton@@UAEPBDXZ:PROC	; ioButton::GetTemplateName
EXTRN	?GetDefClassName@ioButton@@UBEPBDXZ:PROC	; ioButton::GetDefClassName
EXTRN	?_Clone@ioButton@@UAEPAVioWnd@@XZ:PROC		; ioButton::_Clone
EXTRN	?Copy@ioButton@@UAEXPAVioWnd@@@Z:PROC		; ioButton::Copy
EXTRN	?Save@ioWnd@@UAE_NAAVioXMLElement@@@Z:PROC	; ioWnd::Save
EXTRN	?SetSaveData@ioButton@@UAEXAAVioXMLElement@@@Z:PROC ; ioButton::SetSaveData
EXTRN	?SetPosX@ioWnd@@UAEXH@Z:PROC			; ioWnd::SetPosX
EXTRN	?SetPosY@ioWnd@@UAEXH@Z:PROC			; ioWnd::SetPosY
EXTRN	?SetWidth@ioWnd@@UAEXH@Z:PROC			; ioWnd::SetWidth
EXTRN	?SetHeight@ioWnd@@UAEXH@Z:PROC			; ioWnd::SetHeight
EXTRN	?GetNumFixedRenderFrame@ioButton@@UBEHXZ:PROC	; ioButton::GetNumFixedRenderFrame
EXTRN	?GetFixedRenderFrameType@ioButton@@UAEPBDH@Z:PROC ; ioButton::GetFixedRenderFrameType
EXTRN	?GetRenderFrame@ioButton@@UAEPAPAVioUIRenderElement@@PBD@Z:PROC ; ioButton::GetRenderFrame
EXTRN	?GetNumFixedRenderImage@ioButton@@UBEHXZ:PROC	; ioButton::GetNumFixedRenderImage
EXTRN	?GetFixedRenderImageType@ioButton@@UAEPBDH@Z:PROC ; ioButton::GetFixedRenderImageType
EXTRN	?GetRenderImage@ioButton@@UAEPAPAVioUIRenderElement@@PBD@Z:PROC ; ioButton::GetRenderImage
EXTRN	?AddEffect@ioWnd@@UAEXABVioHashString@@PAVioUI3DEffectRender@@@Z:PROC ; ioWnd::AddEffect
EXTRN	?GetEffect@ioWnd@@UAEPAVioUI3DEffectRender@@VioHashString@@@Z:PROC ; ioWnd::GetEffect
EXTRN	??_EPackageItemBtn@@UAEPAXI@Z:PROC		; PackageItemBtn::`vector deleting destructor'
EXTRN	?OnDrawNormal@ioButton@@MAEXHH@Z:PROC		; ioButton::OnDrawNormal
EXTRN	?OnDrawOvered@ioButton@@MAEXHH@Z:PROC		; ioButton::OnDrawOvered
EXTRN	?OnDrawOveredAdd@ioButton@@MAEXHH@Z:PROC	; ioButton::OnDrawOveredAdd
EXTRN	?OnDrawPushed@ioButton@@MAEXHH@Z:PROC		; ioButton::OnDrawPushed
EXTRN	?OnDrawDisabled@ioButton@@MAEXHH@Z:PROC		; ioButton::OnDrawDisabled
EXTRN	?OnDrawExDisabledNormal@ioButton@@MAEXHH@Z:PROC	; ioButton::OnDrawExDisabledNormal
EXTRN	?OnDrawExDisabledOvered@ioButton@@MAEXHH@Z:PROC	; ioButton::OnDrawExDisabledOvered
EXTRN	?OnDrawExDisabledPushed@ioButton@@MAEXHH@Z:PROC	; ioButton::OnDrawExDisabledPushed
EXTRN	?OnDrawBack@ioButton@@MAEXHH@Z:PROC		; ioButton::OnDrawBack
EXTRN	?OnDrawNormalList@ioButton@@MAEXHH@Z:PROC	; ioButton::OnDrawNormalList
EXTRN	?OnDrawDisableList@ioButton@@MAEXHH@Z:PROC	; ioButton::OnDrawDisableList
;	COMDAT ??_R2ioWnd@@8
rdata$r	SEGMENT
??_R2ioWnd@@8 DD FLAT:??_R1A@?0A@EA@ioWnd@@8		; ioWnd::`RTTI Base Class Array'
rdata$r	ENDS
;	COMDAT ??_R3ioWnd@@8
rdata$r	SEGMENT
??_R3ioWnd@@8 DD 00H					; ioWnd::`RTTI Class Hierarchy Descriptor'
	DD	00H
	DD	01H
	DD	FLAT:??_R2ioWnd@@8
rdata$r	ENDS
;	COMDAT ??_R0?AVioWnd@@@8
_DATA	SEGMENT
??_R0?AVioWnd@@@8 DD FLAT:??_7type_info@@6B@		; ioWnd `RTTI Type Descriptor'
	DD	00H
	DB	'.?AVioWnd@@', 00H
_DATA	ENDS
;	COMDAT ??_R1A@?0A@EA@ioWnd@@8
rdata$r	SEGMENT
??_R1A@?0A@EA@ioWnd@@8 DD FLAT:??_R0?AVioWnd@@@8	; ioWnd::`RTTI Base Class Descriptor at (0,-1,0,64)'
	DD	00H
	DD	00H
	DD	0ffffffffH
	DD	00H
	DD	040H
	DD	FLAT:??_R3ioWnd@@8
rdata$r	ENDS
;	COMDAT ??_R2ioButton@@8
rdata$r	SEGMENT
??_R2ioButton@@8 DD FLAT:??_R1A@?0A@EA@ioButton@@8	; ioButton::`RTTI Base Class Array'
	DD	FLAT:??_R1A@?0A@EA@ioWnd@@8
rdata$r	ENDS
;	COMDAT ??_R3ioButton@@8
rdata$r	SEGMENT
??_R3ioButton@@8 DD 00H					; ioButton::`RTTI Class Hierarchy Descriptor'
	DD	00H
	DD	02H
	DD	FLAT:??_R2ioButton@@8
rdata$r	ENDS
;	COMDAT ??_R0?AVioButton@@@8
_DATA	SEGMENT
??_R0?AVioButton@@@8 DD FLAT:??_7type_info@@6B@		; ioButton `RTTI Type Descriptor'
	DD	00H
	DB	'.?AVioButton@@', 00H
_DATA	ENDS
;	COMDAT ??_R1A@?0A@EA@ioButton@@8
rdata$r	SEGMENT
??_R1A@?0A@EA@ioButton@@8 DD FLAT:??_R0?AVioButton@@@8	; ioButton::`RTTI Base Class Descriptor at (0,-1,0,64)'
	DD	01H
	DD	00H
	DD	0ffffffffH
	DD	00H
	DD	040H
	DD	FLAT:??_R3ioButton@@8
rdata$r	ENDS
;	COMDAT ??_R1A@?0A@EA@PackageItemBtn@@8
rdata$r	SEGMENT
??_R1A@?0A@EA@PackageItemBtn@@8 DD FLAT:??_R0?AVPackageItemBtn@@@8 ; PackageItemBtn::`RTTI Base Class Descriptor at (0,-1,0,64)'
	DD	02H
	DD	00H
	DD	0ffffffffH
	DD	00H
	DD	040H
	DD	FLAT:??_R3PackageItemBtn@@8
rdata$r	ENDS
;	COMDAT ??_R2PackageItemBtn@@8
rdata$r	SEGMENT
??_R2PackageItemBtn@@8 DD FLAT:??_R1A@?0A@EA@PackageItemBtn@@8 ; PackageItemBtn::`RTTI Base Class Array'
	DD	FLAT:??_R1A@?0A@EA@ioButton@@8
	DD	FLAT:??_R1A@?0A@EA@ioWnd@@8
rdata$r	ENDS
;	COMDAT ??_R3PackageItemBtn@@8
rdata$r	SEGMENT
??_R3PackageItemBtn@@8 DD 00H				; PackageItemBtn::`RTTI Class Hierarchy Descriptor'
	DD	00H
	DD	03H
	DD	FLAT:??_R2PackageItemBtn@@8
rdata$r	ENDS
;	COMDAT ??_R0?AVPackageItemBtn@@@8
_DATA	SEGMENT
??_R0?AVPackageItemBtn@@@8 DD FLAT:??_7type_info@@6B@	; PackageItemBtn `RTTI Type Descriptor'
	DD	00H
	DB	'.?AVPackageItemBtn@@', 00H
_DATA	ENDS
;	COMDAT ??_R4PackageItemBtn@@6B@
rdata$r	SEGMENT
??_R4PackageItemBtn@@6B@ DD 00H				; PackageItemBtn::`RTTI Complete Object Locator'
	DD	00H
	DD	00H
	DD	FLAT:??_R0?AVPackageItemBtn@@@8
	DD	FLAT:??_R3PackageItemBtn@@8
rdata$r	ENDS
;	COMDAT ??_7PackageItemBtn@@6B@
CONST	SEGMENT
??_7PackageItemBtn@@6B@ DD FLAT:??_R4PackageItemBtn@@6B@ ; PackageItemBtn::`vftable'
	DD	FLAT:?AddRenderFrame@ioButton@@UAEXABVioHashString@@PAVioUIRenderFrame@@@Z
	DD	FLAT:?AddRenderImage@ioButton@@UAEXABVioHashString@@PAVioUIRenderImage@@@Z
	DD	FLAT:?AddTooltipHelp@ioWnd@@UAEXABVioHashString@@00@Z
	DD	FLAT:?ParseExtraInfo@ioButton@@UAEXAAVioXMLElement@@@Z
	DD	FLAT:?AddNamedRenderImage@ioWnd@@UAEXABVioHashString@@PAVioUIRenderImage@@@Z
	DD	FLAT:?RemoveNamedRenderImage@ioWnd@@UAEXABVioHashString@@@Z
	DD	FLAT:?GetNamedRenderImage@ioWnd@@UBEPAVioUIRenderImage@@ABVioHashString@@@Z
	DD	FLAT:?SetWindowAlpha@ioButton@@UAEXH@Z
	DD	FLAT:?SetActive@ioWnd@@UAEXXZ
	DD	FLAT:?SetInActive@ioWnd@@UAEXXZ
	DD	FLAT:?ClearElementImageList@ioWnd@@UAEXXZ
	DD	FLAT:?SetSize@ioWnd@@UAEXHH@Z
	DD	FLAT:?SetPositionToDefault@ioWnd@@UAEXHH_N0@Z
	DD	FLAT:?IsNeedProcess@ioWnd@@UBE_NXZ
	DD	FLAT:?IsCanMouseReaction@ioWnd@@UBE_NXZ
	DD	FLAT:?AddChild@ioWnd@@UAEXPAV1@@Z
	DD	FLAT:?DeleteChild@ioWnd@@UAEXK@Z
	DD	FLAT:?DeleteAllChild@ioWnd@@UAEXXZ
	DD	FLAT:?OnRenderShowAndHide@ioWnd@@MAE_NXZ
	DD	FLAT:?OnRenderShowAndHideByDefault@ioWnd@@MAE_NK@Z
	DD	FLAT:?OnRenderShowAndHideByTop@ioWnd@@MAE_NK@Z
	DD	FLAT:?OnRenderShowAndHideByDown@ioWnd@@MAE_NK@Z
	DD	FLAT:?OnRender@PackageItemBtn@@MAEXXZ
	DD	FLAT:?OnRenderAfterChild@ioWnd@@MAEXXZ
	DD	FLAT:?OnProcess@ioWnd@@MAEXM@Z
	DD	FLAT:?OnMouseProcess@ioWnd@@MAEXABVioMouse@@@Z
	DD	FLAT:?CheckFrameReSize@ioButton@@MAEXHHHH@Z
	DD	FLAT:?RenderImageList@ioWnd@@MAEXHHW4UIRenderType@@@Z
	DD	FLAT:?iwm_create@ioWnd@@UAEXXZ
	DD	FLAT:?iwm_destroy@ioWnd@@UAEXXZ
	DD	FLAT:?iwm_lbuttondown@ioButton@@UAEXABVioMouse@@@Z
	DD	FLAT:?iwm_lbuttonup@ioButton@@UAEXABVioMouse@@@Z
	DD	FLAT:?iwm_lbuttonDBLCLK@ioButton@@UAEXABVioMouse@@@Z
	DD	FLAT:?iwm_rbuttondown@ioButton@@UAEXABVioMouse@@@Z
	DD	FLAT:?iwm_rbuttonup@ioButton@@UAEXABVioMouse@@@Z
	DD	FLAT:?iwm_command@ioWnd@@UAEXPAV1@HK@Z
	DD	FLAT:?iwm_mouseover@ioButton@@UAEXABVioMouse@@@Z
	DD	FLAT:?iwm_mousemove@ioWnd@@UAEXABVioMouse@@@Z
	DD	FLAT:?iwm_mouseleave@ioWnd@@UAEXABVioMouse@@@Z
	DD	FLAT:?iwm_vscroll@ioWnd@@UAEXKH@Z
	DD	FLAT:?iwm_wheel@ioWnd@@UAEXH@Z
	DD	FLAT:?iwm_show@ioWnd@@UAEXXZ
	DD	FLAT:?iwm_hide@ioWnd@@UAEXXZ
	DD	FLAT:?iwm_esc@ioWnd@@UAE_NXZ
	DD	FLAT:?iwm_spacebar@ioWnd@@UAE_NXZ
	DD	FLAT:?iwm_gototop@ioWnd@@UAEXXZ
	DD	FLAT:?iwm_dragenter@ioWnd@@UAE?AW4IWDropEffect@@PAVioDragItem@@ABVioMouse@@@Z
	DD	FLAT:?iwm_dragover@ioWnd@@UAE?AW4IWDropEffect@@PAVioDragItem@@ABVioMouse@@@Z
	DD	FLAT:?iwm_dragleave@ioWnd@@UAEXXZ
	DD	FLAT:?iwm_dropitem@ioWnd@@UAE_NPAVioDragItem@@ABVioMouse@@PAV1@@Z
	DD	FLAT:?iwm_dropdone@ioWnd@@UAEXPAVioDragItem@@PAV1@_N@Z
	DD	FLAT:?IsEXType@ioWnd@@UBE_NXZ
	DD	FLAT:?GetWndType@ioButton@@UBEKXZ
	DD	FLAT:?RenderWnd@ioWnd@@UAEXXZ
	DD	FLAT:?SetIDEX@ioWnd@@UAEXAAK_N@Z
	DD	FLAT:?ParseXML@ioWnd@@UAEXAAVioXMLElement@@@Z
	DD	FLAT:?GetHeaderFileName@ioButton@@UAEPBDXZ
	DD	FLAT:?GetTemplateName@ioButton@@UAEPBDXZ
	DD	FLAT:?GetDefClassName@ioButton@@UBEPBDXZ
	DD	FLAT:?_Clone@ioButton@@UAEPAVioWnd@@XZ
	DD	FLAT:?Copy@ioButton@@UAEXPAVioWnd@@@Z
	DD	FLAT:?Save@ioWnd@@UAE_NAAVioXMLElement@@@Z
	DD	FLAT:?SetSaveData@ioButton@@UAEXAAVioXMLElement@@@Z
	DD	FLAT:?SetPosX@ioWnd@@UAEXH@Z
	DD	FLAT:?SetPosY@ioWnd@@UAEXH@Z
	DD	FLAT:?SetWidth@ioWnd@@UAEXH@Z
	DD	FLAT:?SetHeight@ioWnd@@UAEXH@Z
	DD	FLAT:?GetNumFixedRenderFrame@ioButton@@UBEHXZ
	DD	FLAT:?GetFixedRenderFrameType@ioButton@@UAEPBDH@Z
	DD	FLAT:?GetRenderFrame@ioButton@@UAEPAPAVioUIRenderElement@@PBD@Z
	DD	FLAT:?GetNumFixedRenderImage@ioButton@@UBEHXZ
	DD	FLAT:?GetFixedRenderImageType@ioButton@@UAEPBDH@Z
	DD	FLAT:?GetRenderImage@ioButton@@UAEPAPAVioUIRenderElement@@PBD@Z
	DD	FLAT:?AddEffect@ioWnd@@UAEXABVioHashString@@PAVioUI3DEffectRender@@@Z
	DD	FLAT:?GetEffect@ioWnd@@UAEPAVioUI3DEffectRender@@VioHashString@@@Z
	DD	FLAT:??_EPackageItemBtn@@UAEPAXI@Z
	DD	FLAT:?OnDrawNormal@ioButton@@MAEXHH@Z
	DD	FLAT:?OnDrawOvered@ioButton@@MAEXHH@Z
	DD	FLAT:?OnDrawOveredAdd@ioButton@@MAEXHH@Z
	DD	FLAT:?OnDrawPushed@ioButton@@MAEXHH@Z
	DD	FLAT:?OnDrawDisabled@ioButton@@MAEXHH@Z
	DD	FLAT:?OnDrawExDisabledNormal@ioButton@@MAEXHH@Z
	DD	FLAT:?OnDrawExDisabledOvered@ioButton@@MAEXHH@Z
	DD	FLAT:?OnDrawExDisabledPushed@ioButton@@MAEXHH@Z
	DD	FLAT:?OnDrawBack@ioButton@@MAEXHH@Z
	DD	FLAT:?OnDrawNormalList@ioButton@@MAEXHH@Z
	DD	FLAT:?OnDrawDisableList@ioButton@@MAEXHH@Z
CONST	ENDS
;	COMDAT xdata$x
xdata$x	SEGMENT
__unwindtable$??1PackageItemBtn@@UAE@XZ DD 0ffffffffH
	DD	FLAT:__unwindfunclet$??1PackageItemBtn@@UAE@XZ$0
	DD	00H
	DD	FLAT:__unwindfunclet$??1PackageItemBtn@@UAE@XZ$1
__ehfuncinfo$??1PackageItemBtn@@UAE@XZ DD 019930522H
	DD	02H
	DD	FLAT:__unwindtable$??1PackageItemBtn@@UAE@XZ
	DD	2 DUP(00H)
	DD	2 DUP(00H)
	DD	00H
	DD	01H
; Function compile flags: /Ogsp
xdata$x	ENDS
;	COMDAT ??1PackageItemBtn@@UAE@XZ
_TEXT	SEGMENT
_this$ = -16						; size = 4
__$EHRec$ = -12						; size = 12
??1PackageItemBtn@@UAE@XZ PROC				; PackageItemBtn::~PackageItemBtn, COMDAT
; _this$ = ecx

; 335  : {

  00000	6a 04		 push	 4
  00002	b8 00 00 00 00	 mov	 eax, __ehhandler$??1PackageItemBtn@@UAE@XZ
  00007	e8 00 00 00 00	 call	 __EH_prolog3
  0000c	8b f1		 mov	 esi, ecx
  0000e	89 75 f0	 mov	 DWORD PTR _this$[ebp], esi
  00011	c7 06 00 00 00
	00		 mov	 DWORD PTR [esi], OFFSET ??_7PackageItemBtn@@6B@

; 336  : 
; 337  : }

  00017	8d 8e 1c 02 00
	00		 lea	 ecx, DWORD PTR [esi+540]
  0001d	c7 45 fc 01 00
	00 00		 mov	 DWORD PTR __$EHRec$[ebp+8], 1
  00024	e8 00 00 00 00	 call	 ??1ioComplexStringPrinter@@QAE@XZ ; ioComplexStringPrinter::~ioComplexStringPrinter
  00029	8d 8e fc 01 00
	00		 lea	 ecx, DWORD PTR [esi+508]
  0002f	c6 45 fc 00	 mov	 BYTE PTR __$EHRec$[ebp+8], 0
  00033	ff 15 00 00 00
	00		 call	 DWORD PTR __imp_??1ioHashString@@QAE@XZ
  00039	83 4d fc ff	 or	 DWORD PTR __$EHRec$[ebp+8], -1
  0003d	8b ce		 mov	 ecx, esi
  0003f	ff 15 00 00 00
	00		 call	 DWORD PTR __imp_??1ioButton@@UAE@XZ
  00045	e8 00 00 00 00	 call	 __EH_epilog3
  0004a	c3		 ret	 0
_TEXT	ENDS
;	COMDAT text$x
text$x	SEGMENT
__unwindfunclet$??1PackageItemBtn@@UAE@XZ$0:
  00000	8b 4d f0	 mov	 ecx, DWORD PTR _this$[ebp]
  00003	ff 25 00 00 00
	00		 jmp	 DWORD PTR __imp_??1ioButton@@UAE@XZ
__unwindfunclet$??1PackageItemBtn@@UAE@XZ$1:
  00009	8b 4d f0	 mov	 ecx, DWORD PTR _this$[ebp]
  0000c	81 c1 fc 01 00
	00		 add	 ecx, 508		; 000001fcH
  00012	e9 00 00 00 00	 jmp	 ??1PackageItem@@QAE@XZ
__ehhandler$??1PackageItemBtn@@UAE@XZ:
  00017	8b 54 24 08	 mov	 edx, DWORD PTR [esp+8]
  0001b	8d 42 0c	 lea	 eax, DWORD PTR [edx+12]
  0001e	8b 4a ec	 mov	 ecx, DWORD PTR [edx-20]
  00021	33 c8		 xor	 ecx, eax
  00023	e8 00 00 00 00	 call	 @__security_check_cookie@4
  00028	b8 00 00 00 00	 mov	 eax, OFFSET __ehfuncinfo$??1PackageItemBtn@@UAE@XZ
  0002d	e9 00 00 00 00	 jmp	 ___CxxFrameHandler3
text$x	ENDS
??1PackageItemBtn@@UAE@XZ ENDP				; PackageItemBtn::~PackageItemBtn
PUBLIC	??_7bad_alloc@std@@6B@				; std::bad_alloc::`vftable'
PUBLIC	??0bad_alloc@std@@QAE@PBD@Z			; std::bad_alloc::bad_alloc
PUBLIC	??_R4bad_alloc@std@@6B@				; std::bad_alloc::`RTTI Complete Object Locator'
PUBLIC	??_R0?AVbad_alloc@std@@@8			; std::bad_alloc `RTTI Type Descriptor'
PUBLIC	??_R3bad_alloc@std@@8				; std::bad_alloc::`RTTI Class Hierarchy Descriptor'
PUBLIC	??_R2bad_alloc@std@@8				; std::bad_alloc::`RTTI Base Class Array'
PUBLIC	??_R1A@?0A@EA@bad_alloc@std@@8			; std::bad_alloc::`RTTI Base Class Descriptor at (0,-1,0,64)'
PUBLIC	??_R1A@?0A@EA@exception@std@@8			; std::exception::`RTTI Base Class Descriptor at (0,-1,0,64)'
PUBLIC	??_R0?AVexception@std@@@8			; std::exception `RTTI Type Descriptor'
PUBLIC	??_R3exception@std@@8				; std::exception::`RTTI Class Hierarchy Descriptor'
PUBLIC	??_R2exception@std@@8				; std::exception::`RTTI Base Class Array'
EXTRN	__imp_??0exception@std@@QAE@ABQBD@Z:PROC
EXTRN	??_Ebad_alloc@std@@UAEPAXI@Z:PROC		; std::bad_alloc::`vector deleting destructor'
EXTRN	?what@exception@std@@UBEPBDXZ:PROC		; std::exception::what
;	COMDAT ??_R2exception@std@@8
; File c:\program files (x86)\microsoft visual studio 10.0\vc\include\exception
rdata$r	SEGMENT
??_R2exception@std@@8 DD FLAT:??_R1A@?0A@EA@exception@std@@8 ; std::exception::`RTTI Base Class Array'
rdata$r	ENDS
;	COMDAT ??_R3exception@std@@8
rdata$r	SEGMENT
??_R3exception@std@@8 DD 00H				; std::exception::`RTTI Class Hierarchy Descriptor'
	DD	00H
	DD	01H
	DD	FLAT:??_R2exception@std@@8
rdata$r	ENDS
;	COMDAT ??_R0?AVexception@std@@@8
_DATA	SEGMENT
??_R0?AVexception@std@@@8 DD FLAT:??_7type_info@@6B@	; std::exception `RTTI Type Descriptor'
	DD	00H
	DB	'.?AVexception@std@@', 00H
_DATA	ENDS
;	COMDAT ??_R1A@?0A@EA@exception@std@@8
rdata$r	SEGMENT
??_R1A@?0A@EA@exception@std@@8 DD FLAT:??_R0?AVexception@std@@@8 ; std::exception::`RTTI Base Class Descriptor at (0,-1,0,64)'
	DD	00H
	DD	00H
	DD	0ffffffffH
	DD	00H
	DD	040H
	DD	FLAT:??_R3exception@std@@8
rdata$r	ENDS
;	COMDAT ??_R1A@?0A@EA@bad_alloc@std@@8
rdata$r	SEGMENT
??_R1A@?0A@EA@bad_alloc@std@@8 DD FLAT:??_R0?AVbad_alloc@std@@@8 ; std::bad_alloc::`RTTI Base Class Descriptor at (0,-1,0,64)'
	DD	01H
	DD	00H
	DD	0ffffffffH
	DD	00H
	DD	040H
	DD	FLAT:??_R3bad_alloc@std@@8
rdata$r	ENDS
;	COMDAT ??_R2bad_alloc@std@@8
rdata$r	SEGMENT
??_R2bad_alloc@std@@8 DD FLAT:??_R1A@?0A@EA@bad_alloc@std@@8 ; std::bad_alloc::`RTTI Base Class Array'
	DD	FLAT:??_R1A@?0A@EA@exception@std@@8
rdata$r	ENDS
;	COMDAT ??_R3bad_alloc@std@@8
rdata$r	SEGMENT
??_R3bad_alloc@std@@8 DD 00H				; std::bad_alloc::`RTTI Class Hierarchy Descriptor'
	DD	00H
	DD	02H
	DD	FLAT:??_R2bad_alloc@std@@8
rdata$r	ENDS
;	COMDAT ??_R0?AVbad_alloc@std@@@8
_DATA	SEGMENT
??_R0?AVbad_alloc@std@@@8 DD FLAT:??_7type_info@@6B@	; std::bad_alloc `RTTI Type Descriptor'
	DD	00H
	DB	'.?AVbad_alloc@std@@', 00H
_DATA	ENDS
;	COMDAT ??_R4bad_alloc@std@@6B@
rdata$r	SEGMENT
??_R4bad_alloc@std@@6B@ DD 00H				; std::bad_alloc::`RTTI Complete Object Locator'
	DD	00H
	DD	00H
	DD	FLAT:??_R0?AVbad_alloc@std@@@8
	DD	FLAT:??_R3bad_alloc@std@@8
rdata$r	ENDS
;	COMDAT ??_7bad_alloc@std@@6B@
CONST	SEGMENT
??_7bad_alloc@std@@6B@ DD FLAT:??_R4bad_alloc@std@@6B@	; std::bad_alloc::`vftable'
	DD	FLAT:??_Ebad_alloc@std@@UAEPAXI@Z
	DD	FLAT:?what@exception@std@@UBEPBDXZ
; Function compile flags: /Ogsp
CONST	ENDS
;	COMDAT ??0bad_alloc@std@@QAE@PBD@Z
_TEXT	SEGMENT
__Message$ = 8						; size = 4
??0bad_alloc@std@@QAE@PBD@Z PROC			; std::bad_alloc::bad_alloc, COMDAT
; _this$ = ecx

; 345  : 		{	// construct from message string

  00000	55		 push	 ebp
  00001	8b ec		 mov	 ebp, esp
  00003	56		 push	 esi
  00004	8d 45 08	 lea	 eax, DWORD PTR __Message$[ebp]
  00007	50		 push	 eax
  00008	8b f1		 mov	 esi, ecx
  0000a	ff 15 00 00 00
	00		 call	 DWORD PTR __imp_??0exception@std@@QAE@ABQBD@Z
  00010	c7 06 00 00 00
	00		 mov	 DWORD PTR [esi], OFFSET ??_7bad_alloc@std@@6B@

; 346  : 		}

  00016	8b c6		 mov	 eax, esi
  00018	5e		 pop	 esi
  00019	5d		 pop	 ebp
  0001a	c2 04 00	 ret	 4
??0bad_alloc@std@@QAE@PBD@Z ENDP			; std::bad_alloc::bad_alloc
_TEXT	ENDS
PUBLIC	??4PackageItem@@QAEAAU0@ABU0@@Z			; PackageItem::operator=
; Function compile flags: /Ogsp
;	COMDAT ??4PackageItem@@QAEAAU0@ABU0@@Z
_TEXT	SEGMENT
___that$ = 8						; size = 4
??4PackageItem@@QAEAAU0@ABU0@@Z PROC			; PackageItem::operator=, COMDAT
; _this$ = ecx
  00000	55		 push	 ebp
  00001	8b ec		 mov	 ebp, esp
  00003	56		 push	 esi
  00004	57		 push	 edi
  00005	8b 7d 08	 mov	 edi, DWORD PTR ___that$[ebp]
  00008	57		 push	 edi
  00009	8b f1		 mov	 esi, ecx
  0000b	ff 15 00 00 00
	00		 call	 DWORD PTR __imp_??4ioHashString@@QAEAAV0@ABV0@@Z
  00011	8b 47 10	 mov	 eax, DWORD PTR [edi+16]
  00014	89 46 10	 mov	 DWORD PTR [esi+16], eax
  00017	8a 47 14	 mov	 al, BYTE PTR [edi+20]
  0001a	88 46 14	 mov	 BYTE PTR [esi+20], al
  0001d	8a 47 15	 mov	 al, BYTE PTR [edi+21]
  00020	88 46 15	 mov	 BYTE PTR [esi+21], al
  00023	8b 47 18	 mov	 eax, DWORD PTR [edi+24]
  00026	89 46 18	 mov	 DWORD PTR [esi+24], eax
  00029	5f		 pop	 edi
  0002a	8b c6		 mov	 eax, esi
  0002c	5e		 pop	 esi
  0002d	5d		 pop	 ebp
  0002e	c2 04 00	 ret	 4
??4PackageItem@@QAEAAU0@ABU0@@Z ENDP			; PackageItem::operator=
_TEXT	ENDS
PUBLIC	??1bad_alloc@std@@UAE@XZ			; std::bad_alloc::~bad_alloc
EXTRN	__imp_??1exception@std@@UAE@XZ:PROC
; Function compile flags: /Ogsp
;	COMDAT ??1bad_alloc@std@@UAE@XZ
_TEXT	SEGMENT
??1bad_alloc@std@@UAE@XZ PROC				; std::bad_alloc::~bad_alloc, COMDAT
; _this$ = ecx

; 354  : 		{	// destroy the object

  00000	c7 01 00 00 00
	00		 mov	 DWORD PTR [ecx], OFFSET ??_7bad_alloc@std@@6B@

; 355  : 		}

  00006	ff 25 00 00 00
	00		 jmp	 DWORD PTR __imp_??1exception@std@@UAE@XZ
??1bad_alloc@std@@UAE@XZ ENDP				; std::bad_alloc::~bad_alloc
_TEXT	ENDS
EXTRN	??3@YAXPAX@Z:PROC				; operator delete
; Function compile flags: /Ogsp
;	COMDAT ??_Gbad_alloc@std@@UAEPAXI@Z
_TEXT	SEGMENT
___flags$ = 8						; size = 4
??_Gbad_alloc@std@@UAEPAXI@Z PROC			; std::bad_alloc::`scalar deleting destructor', COMDAT
; _this$ = ecx
  00000	55		 push	 ebp
  00001	8b ec		 mov	 ebp, esp
  00003	56		 push	 esi
  00004	8b f1		 mov	 esi, ecx
  00006	c7 06 00 00 00
	00		 mov	 DWORD PTR [esi], OFFSET ??_7bad_alloc@std@@6B@
  0000c	ff 15 00 00 00
	00		 call	 DWORD PTR __imp_??1exception@std@@UAE@XZ
  00012	f6 45 08 01	 test	 BYTE PTR ___flags$[ebp], 1
  00016	74 07		 je	 SHORT $LN1@scalar
  00018	56		 push	 esi
  00019	e8 00 00 00 00	 call	 ??3@YAXPAX@Z		; operator delete
  0001e	59		 pop	 ecx
$LN1@scalar:
  0001f	8b c6		 mov	 eax, esi
  00021	5e		 pop	 esi
  00022	5d		 pop	 ebp
  00023	c2 04 00	 ret	 4
??_Gbad_alloc@std@@UAEPAXI@Z ENDP			; std::bad_alloc::`scalar deleting destructor'
_TEXT	ENDS
PUBLIC	??_C@_0BH@GCMKHNMG@XML?1PackageHelpWnd?4xml?$AA@ ; `string'
PUBLIC	?iwm_create@PackageItemBuyWnd@@UAEXXZ		; PackageItemBuyWnd::iwm_create
EXTRN	__imp_?AddWnd@ioGUIManager@@QAEPAVioWnd@@PBDPAV2@@Z:PROC
EXTRN	?GetSingleton@ioSP2GUIManager@@SAAAV1@XZ:PROC	; ioSP2GUIManager::GetSingleton
;	COMDAT ??_C@_0BH@GCMKHNMG@XML?1PackageHelpWnd?4xml?$AA@
; File d:\lost saga for developer\youtube\tutorial\source\src\lsclient\gui\soldierpackagewnd.cpp
CONST	SEGMENT
??_C@_0BH@GCMKHNMG@XML?1PackageHelpWnd?4xml?$AA@ DB 'XML/PackageHelpWnd.x'
	DB	'ml', 00H					; `string'
; Function compile flags: /Ogsp
CONST	ENDS
;	COMDAT ?iwm_create@PackageItemBuyWnd@@UAEXXZ
_TEXT	SEGMENT
?iwm_create@PackageItemBuyWnd@@UAEXXZ PROC		; PackageItemBuyWnd::iwm_create, COMDAT
; _this$ = ecx

; 455  : 	g_GUIMgr.AddWnd( "XML/PackageHelpWnd.xml", this );

  00000	51		 push	 ecx
  00001	68 00 00 00 00	 push	 OFFSET ??_C@_0BH@GCMKHNMG@XML?1PackageHelpWnd?4xml?$AA@
  00006	e8 00 00 00 00	 call	 ?GetSingleton@ioSP2GUIManager@@SAAAV1@XZ ; ioSP2GUIManager::GetSingleton
  0000b	8b c8		 mov	 ecx, eax
  0000d	ff 15 00 00 00
	00		 call	 DWORD PTR __imp_?AddWnd@ioGUIManager@@QAEPAVioWnd@@PBDPAV2@@Z

; 456  : }

  00013	c3		 ret	 0
?iwm_create@PackageItemBuyWnd@@UAEXXZ ENDP		; PackageItemBuyWnd::iwm_create
_TEXT	ENDS
PUBLIC	??2@YAPAXIPAX@Z					; operator new
; Function compile flags: /Ogsp
; File c:\program files (x86)\microsoft visual studio 10.0\vc\include\new
;	COMDAT ??2@YAPAXIPAX@Z
_TEXT	SEGMENT
___formal$ = 8						; size = 4
__Where$ = 12						; size = 4
??2@YAPAXIPAX@Z PROC					; operator new, COMDAT

; 56   : 	{	// construct array with placement at _Where

  00000	55		 push	 ebp
  00001	8b ec		 mov	 ebp, esp

; 57   : 	return (_Where);

  00003	8b 45 0c	 mov	 eax, DWORD PTR __Where$[ebp]

; 58   : 	}

  00006	5d		 pop	 ebp
  00007	c3		 ret	 0
??2@YAPAXIPAX@Z ENDP					; operator new
_TEXT	ENDS
PUBLIC	??3@YAXPAX0@Z					; operator delete
; Function compile flags: /Ogsp
;	COMDAT ??3@YAXPAX0@Z
_TEXT	SEGMENT
___formal$ = 8						; size = 4
___formal$ = 12						; size = 4
??3@YAXPAX0@Z PROC					; operator delete, COMDAT

; 62   : 	}

  00000	c3		 ret	 0
??3@YAXPAX0@Z ENDP					; operator delete
_TEXT	ENDS
PUBLIC	?iwm_hide@PackageItemBuyWnd@@UAEXXZ		; PackageItemBuyWnd::iwm_hide
EXTRN	__imp_?HideChildWnd@ioWnd@@QAEXK_N@Z:PROC
; Function compile flags: /Ogsp
; File d:\lost saga for developer\youtube\tutorial\source\src\lsclient\gui\soldierpackagewnd.cpp
;	COMDAT ?iwm_hide@PackageItemBuyWnd@@UAEXXZ
_TEXT	SEGMENT
?iwm_hide@PackageItemBuyWnd@@UAEXXZ PROC		; PackageItemBuyWnd::iwm_hide, COMDAT
; _this$ = ecx

; 487  : 	HideChildWnd( ID_SOLDIER_WND );

  00000	6a 00		 push	 0
  00002	68 e8 03 00 00	 push	 1000			; 000003e8H
  00007	ff 15 00 00 00
	00		 call	 DWORD PTR __imp_?HideChildWnd@ioWnd@@QAEXK_N@Z

; 488  : }

  0000d	c3		 ret	 0
?iwm_hide@PackageItemBuyWnd@@UAEXXZ ENDP		; PackageItemBuyWnd::iwm_hide
_TEXT	ENDS
PUBLIC	??1NewShopPullDownItem@@QAE@XZ			; NewShopPullDownItem::~NewShopPullDownItem
;	COMDAT xdata$x
xdata$x	SEGMENT
__unwindtable$??1NewShopPullDownItem@@QAE@XZ DD 0ffffffffH
	DD	FLAT:__unwindfunclet$??1NewShopPullDownItem@@QAE@XZ$0
	DD	00H
	DD	FLAT:__unwindfunclet$??1NewShopPullDownItem@@QAE@XZ$1
__ehfuncinfo$??1NewShopPullDownItem@@QAE@XZ DD 019930522H
	DD	02H
	DD	FLAT:__unwindtable$??1NewShopPullDownItem@@QAE@XZ
	DD	2 DUP(00H)
	DD	2 DUP(00H)
	DD	00H
	DD	01H
; Function compile flags: /Ogsp
xdata$x	ENDS
;	COMDAT ??1NewShopPullDownItem@@QAE@XZ
_TEXT	SEGMENT
_this$ = -16						; size = 4
__$EHRec$ = -12						; size = 12
??1NewShopPullDownItem@@QAE@XZ PROC			; NewShopPullDownItem::~NewShopPullDownItem, COMDAT
; _this$ = ecx
  00000	6a 04		 push	 4
  00002	b8 00 00 00 00	 mov	 eax, __ehhandler$??1NewShopPullDownItem@@QAE@XZ
  00007	e8 00 00 00 00	 call	 __EH_prolog3
  0000c	8b f9		 mov	 edi, ecx
  0000e	89 7d f0	 mov	 DWORD PTR _this$[ebp], edi
  00011	8b 35 00 00 00
	00		 mov	 esi, DWORD PTR __imp_??1ioHashString@@QAE@XZ
  00017	8d 4f 3c	 lea	 ecx, DWORD PTR [edi+60]
  0001a	c7 45 fc 01 00
	00 00		 mov	 DWORD PTR __$EHRec$[ebp+8], 1
  00021	ff d6		 call	 esi
  00023	8d 4f 24	 lea	 ecx, DWORD PTR [edi+36]
  00026	c6 45 fc 00	 mov	 BYTE PTR __$EHRec$[ebp+8], 0
  0002a	ff d6		 call	 esi
  0002c	83 4d fc ff	 or	 DWORD PTR __$EHRec$[ebp+8], -1
  00030	8b cf		 mov	 ecx, edi
  00032	ff d6		 call	 esi
  00034	e8 00 00 00 00	 call	 __EH_epilog3
  00039	c3		 ret	 0
_TEXT	ENDS
;	COMDAT text$x
text$x	SEGMENT
__unwindfunclet$??1NewShopPullDownItem@@QAE@XZ$0:
  00000	8b 4d f0	 mov	 ecx, DWORD PTR _this$[ebp]
  00003	ff 25 00 00 00
	00		 jmp	 DWORD PTR __imp_??1ioHashString@@QAE@XZ
__unwindfunclet$??1NewShopPullDownItem@@QAE@XZ$1:
  00009	8b 4d f0	 mov	 ecx, DWORD PTR _this$[ebp]
  0000c	83 c1 24	 add	 ecx, 36			; 00000024H
  0000f	ff 25 00 00 00
	00		 jmp	 DWORD PTR __imp_??1ioHashString@@QAE@XZ
__ehhandler$??1NewShopPullDownItem@@QAE@XZ:
  00015	8b 54 24 08	 mov	 edx, DWORD PTR [esp+8]
  00019	8d 42 0c	 lea	 eax, DWORD PTR [edx+12]
  0001c	8b 4a ec	 mov	 ecx, DWORD PTR [edx-20]
  0001f	33 c8		 xor	 ecx, eax
  00021	e8 00 00 00 00	 call	 @__security_check_cookie@4
  00026	b8 00 00 00 00	 mov	 eax, OFFSET __ehfuncinfo$??1NewShopPullDownItem@@QAE@XZ
  0002b	e9 00 00 00 00	 jmp	 ___CxxFrameHandler3
text$x	ENDS
??1NewShopPullDownItem@@QAE@XZ ENDP			; NewShopPullDownItem::~NewShopPullDownItem
PUBLIC	?_Adopt@_Iterator_base0@std@@QAEXPBX@Z		; std::_Iterator_base0::_Adopt
; Function compile flags: /Ogsp
; File c:\program files (x86)\microsoft visual studio 10.0\vc\include\xutility
;	COMDAT ?_Adopt@_Iterator_base0@std@@QAEXPBX@Z
_TEXT	SEGMENT
___formal$ = 8						; size = 4
?_Adopt@_Iterator_base0@std@@QAEXPBX@Z PROC		; std::_Iterator_base0::_Adopt, COMDAT
; _this$ = ecx

; 49   : 		}

  00000	c2 04 00	 ret	 4
?_Adopt@_Iterator_base0@std@@QAEXPBX@Z ENDP		; std::_Iterator_base0::_Adopt
_TEXT	ENDS
PUBLIC	?OnRender@PackageItemBuyWnd@@MAEXXZ		; PackageItemBuyWnd::OnRender
EXTRN	__imp_?GetDerivedPosY@ioWnd@@QBEHXZ:PROC
EXTRN	__imp_?GetDerivedPosX@ioWnd@@QBEHXZ:PROC
EXTRN	__imp_?OnRender@ioWnd@@MAEXXZ:PROC
; Function compile flags: /Ogsp
; File d:\lost saga for developer\youtube\tutorial\source\src\lsclient\gui\soldierpackagewnd.cpp
;	COMDAT ?OnRender@PackageItemBuyWnd@@MAEXXZ
_TEXT	SEGMENT
?OnRender@PackageItemBuyWnd@@MAEXXZ PROC		; PackageItemBuyWnd::OnRender, COMDAT
; _this$ = ecx

; 1194 : {

  00000	56		 push	 esi
  00001	8b f1		 mov	 esi, ecx

; 1195 : 	ioWnd::OnRender();

  00003	ff 15 00 00 00
	00		 call	 DWORD PTR __imp_?OnRender@ioWnd@@MAEXXZ

; 1196 : 
; 1197 : 	int iXPos = GetDerivedPosX();

  00009	8b ce		 mov	 ecx, esi
  0000b	ff 15 00 00 00
	00		 call	 DWORD PTR __imp_?GetDerivedPosX@ioWnd@@QBEHXZ

; 1198 : 	int iYPos = GetDerivedPosY();

  00011	8b ce		 mov	 ecx, esi
  00013	5e		 pop	 esi
  00014	ff 25 00 00 00
	00		 jmp	 DWORD PTR __imp_?GetDerivedPosY@ioWnd@@QBEHXZ
?OnRender@PackageItemBuyWnd@@MAEXXZ ENDP		; PackageItemBuyWnd::OnRender
_TEXT	ENDS
PUBLIC	?IsRightDecoList@PackageItemBuyWnd@@IAE_NH@Z	; PackageItemBuyWnd::IsRightDecoList
; Function compile flags: /Ogsp
;	COMDAT ?IsRightDecoList@PackageItemBuyWnd@@IAE_NH@Z
_TEXT	SEGMENT
_iDecoType$ = 8						; size = 4
?IsRightDecoList@PackageItemBuyWnd@@IAE_NH@Z PROC	; PackageItemBuyWnd::IsRightDecoList, COMDAT
; _this$ = ecx

; 1202 : {

  00000	55		 push	 ebp
  00001	8b ec		 mov	 ebp, esp

; 1203 : 	if( m_PackageStyle == PACKAGE_SOLDIER || m_PackageStyle == PACKAGE_PREMIUM_SOLDIER )

  00003	8b 81 60 01 00
	00		 mov	 eax, DWORD PTR [ecx+352]
  00009	83 f8 01	 cmp	 eax, 1
  0000c	74 4d		 je	 SHORT $LN8@IsRightDec
  0000e	83 f8 09	 cmp	 eax, 9
  00011	74 48		 je	 SHORT $LN8@IsRightDec

; 1205 : 	if( m_PackageStyle == PACKAGE_DECORATION )

  00013	83 f8 02	 cmp	 eax, 2

; 1206 : 		return true;

  00016	74 43		 je	 SHORT $LN8@IsRightDec

; 1207 : 	if( m_PackageStyle == PACKAGE_DECO_FACE && iDecoType == UID_FACE )

  00018	8b 4d 08	 mov	 ecx, DWORD PTR _iDecoType$[ebp]
  0001b	83 f8 03	 cmp	 eax, 3
  0001e	75 05		 jne	 SHORT $LN6@IsRightDec
  00020	83 f9 01	 cmp	 ecx, 1

; 1208 : 		return true;

  00023	74 36		 je	 SHORT $LN8@IsRightDec
$LN6@IsRightDec:

; 1209 : 	if( m_PackageStyle == PACKAGE_DECO_HAIR && iDecoType == UID_HAIR )

  00025	83 f8 04	 cmp	 eax, 4
  00028	75 05		 jne	 SHORT $LN5@IsRightDec
  0002a	83 f9 02	 cmp	 ecx, 2

; 1210 : 		return true;

  0002d	74 2c		 je	 SHORT $LN8@IsRightDec
$LN5@IsRightDec:

; 1211 : 	if( m_PackageStyle == PACKAGE_DECO_SKIN_COLOR && iDecoType == UID_SKIN_COLOR )

  0002f	83 f8 05	 cmp	 eax, 5
  00032	75 05		 jne	 SHORT $LN4@IsRightDec
  00034	83 f9 03	 cmp	 ecx, 3

; 1212 : 		return true;

  00037	74 22		 je	 SHORT $LN8@IsRightDec
$LN4@IsRightDec:

; 1213 : 	if( m_PackageStyle == PACKAGE_DECO_HAIR_COLOR && iDecoType == UID_HAIR_COLOR )

  00039	83 f8 06	 cmp	 eax, 6
  0003c	75 05		 jne	 SHORT $LN3@IsRightDec
  0003e	83 f9 04	 cmp	 ecx, 4

; 1214 : 		return true;

  00041	74 18		 je	 SHORT $LN8@IsRightDec
$LN3@IsRightDec:

; 1215 : 	if( m_PackageStyle == PACKAGE_DECO_KINDRED && iDecoType == UID_KINDRED )

  00043	83 f8 07	 cmp	 eax, 7
  00046	75 05		 jne	 SHORT $LN2@IsRightDec
  00048	83 f9 05	 cmp	 ecx, 5

; 1216 : 		return true;

  0004b	74 0e		 je	 SHORT $LN8@IsRightDec
$LN2@IsRightDec:

; 1217 : 	if( m_PackageStyle == PACKAGE_DECO_UNDERWEAR && iDecoType == UID_UNDERWEAR )

  0004d	83 f8 08	 cmp	 eax, 8
  00050	75 05		 jne	 SHORT $LN1@IsRightDec
  00052	83 f9 07	 cmp	 ecx, 7

; 1218 : 		return true;

  00055	74 04		 je	 SHORT $LN8@IsRightDec
$LN1@IsRightDec:

; 1219 : 
; 1220 : 	return false;

  00057	32 c0		 xor	 al, al
  00059	eb 02		 jmp	 SHORT $LN10@IsRightDec
$LN8@IsRightDec:

; 1204 : 		return true;

  0005b	b0 01		 mov	 al, 1
$LN10@IsRightDec:

; 1221 : }

  0005d	5d		 pop	 ebp
  0005e	c2 04 00	 ret	 4
?IsRightDecoList@PackageItemBuyWnd@@IAE_NH@Z ENDP	; PackageItemBuyWnd::IsRightDecoList
_TEXT	ENDS
PUBLIC	__real@4f800000
PUBLIC	?IsBought@PackageItemBuyWnd@@SA_NHHHH@Z		; PackageItemBuyWnd::IsBought
EXTRN	?IsSlotItem@ioMyInfo@@QAE_NHH@Z:PROC		; ioMyInfo::IsSlotItem
EXTRN	?GetCharCount@ioMyInfo@@QBEHXZ:PROC		; ioMyInfo::GetCharCount
EXTRN	?IsCharExercise@ioMyInfo@@QAE_NH@Z:PROC		; ioMyInfo::IsCharExercise
EXTRN	?GetClassArray@ioMyInfo@@QAEHH@Z:PROC		; ioMyInfo::GetClassArray
EXTRN	?GetSingleton@ioMyInfo@@SAAAV1@XZ:PROC		; ioMyInfo::GetSingleton
EXTRN	__fltused:DWORD
EXTRN	__ftol2_sse:PROC
;	COMDAT __real@4f800000
; File d:\lost saga for developer\youtube\tutorial\source\src\lsclient\stdafx.h
CONST	SEGMENT
__real@4f800000 DD 04f800000r			; 4.29497e+009
; Function compile flags: /Ogsp
; File d:\lost saga for developer\youtube\tutorial\source\src\lsclient\gui\soldierpackagewnd.cpp
CONST	ENDS
;	COMDAT ?IsBought@PackageItemBuyWnd@@SA_NHHHH@Z
_TEXT	SEGMENT
tv193 = -4						; size = 4
_iClassType$ = 8					; size = 4
_iSexType$ = 12						; size = 4
_iDecoType$ = 16					; size = 4
_iDecoCode$ = 20					; size = 4
?IsBought@PackageItemBuyWnd@@SA_NHHHH@Z PROC		; PackageItemBuyWnd::IsBought, COMDAT

; 1224 : {

  00000	55		 push	 ebp
  00001	8b ec		 mov	 ebp, esp
  00003	51		 push	 ecx
  00004	53		 push	 ebx
  00005	56		 push	 esi

; 1225 : 	int iCharArray = g_MyInfo.GetClassArray( iClassType );

  00006	8b 75 08	 mov	 esi, DWORD PTR _iClassType$[ebp]
  00009	57		 push	 edi
  0000a	56		 push	 esi
  0000b	e8 00 00 00 00	 call	 ?GetSingleton@ioMyInfo@@SAAAV1@XZ ; ioMyInfo::GetSingleton
  00010	8b c8		 mov	 ecx, eax
  00012	e8 00 00 00 00	 call	 ?GetClassArray@ioMyInfo@@QAEHH@Z ; ioMyInfo::GetClassArray
  00017	8b f8		 mov	 edi, eax

; 1226 : 
; 1227 : 	// 체험,미고용용병이면 남자종족은 소유하지 않은 것
; 1228 : 	if( g_MyInfo.IsCharExercise( iCharArray ) || !COMPARE( iCharArray, 0, g_MyInfo.GetCharCount() ) ) 

  00019	57		 push	 edi
  0001a	e8 00 00 00 00	 call	 ?GetSingleton@ioMyInfo@@SAAAV1@XZ ; ioMyInfo::GetSingleton
  0001f	8b c8		 mov	 ecx, eax
  00021	e8 00 00 00 00	 call	 ?IsCharExercise@ioMyInfo@@QAE_NH@Z ; ioMyInfo::IsCharExercise
  00026	8b 5d 10	 mov	 ebx, DWORD PTR _iDecoType$[ebp]
  00029	84 c0		 test	 al, al
  0002b	75 14		 jne	 SHORT $LN13@IsBought
  0002d	85 ff		 test	 edi, edi
  0002f	78 10		 js	 SHORT $LN13@IsBought
  00031	e8 00 00 00 00	 call	 ?GetSingleton@ioMyInfo@@SAAAV1@XZ ; ioMyInfo::GetSingleton
  00036	8b c8		 mov	 ecx, eax
  00038	e8 00 00 00 00	 call	 ?GetCharCount@ioMyInfo@@QBEHXZ ; ioMyInfo::GetCharCount
  0003d	3b f8		 cmp	 edi, eax
  0003f	7c 0f		 jl	 SHORT $LN14@IsBought
$LN13@IsBought:

; 1229 : 	{
; 1230 : 		if( iDecoType == UID_KINDRED && iDecoCode == RDT_HUMAN_MAN )

  00041	83 fb 05	 cmp	 ebx, 5
  00044	75 0a		 jne	 SHORT $LN14@IsBought
  00046	83 7d 14 00	 cmp	 DWORD PTR _iDecoCode$[ebp], 0
  0004a	75 04		 jne	 SHORT $LN14@IsBought

; 1231 : 			return false;

  0004c	32 c0		 xor	 al, al
  0004e	eb 34		 jmp	 SHORT $LN9@IsBought
$LN14@IsBought:

; 1232 : 	}
; 1233 : 
; 1234 : 	//고유 특성 1111 22 333 ( 세트, 종족(성별), 치장타입 )
; 1235 : 
; 1236 : 	int iType = ( iClassType * 100000) + ( iSexType * 1000);

  00050	6b f6 64	 imul	 esi, 100		; 00000064H
  00053	03 75 0c	 add	 esi, DWORD PTR _iSexType$[ebp]

; 1237 : 	int iCode = 0;

  00056	33 d2		 xor	 edx, edx
  00058	69 f6 e8 03 00
	00		 imul	 esi, 1000		; 000003e8H

; 1238 : 	switch( iDecoType )

  0005e	85 db		 test	 ebx, ebx
  00060	7e 14		 jle	 SHORT $LN3@IsBought
  00062	83 fb 05	 cmp	 ebx, 5
  00065	7e 0a		 jle	 SHORT $LN2@IsBought
  00067	83 fb 06	 cmp	 ebx, 6
  0006a	74 1d		 je	 SHORT $LN1@IsBought
  0006c	83 fb 07	 cmp	 ebx, 7
  0006f	75 05		 jne	 SHORT $LN3@IsBought
$LN2@IsBought:

; 1239 : 	{
; 1240 : 	case UID_FACE:
; 1241 : 	case UID_HAIR:
; 1242 : 	case UID_SKIN_COLOR:
; 1243 : 	case UID_HAIR_COLOR:
; 1244 : 	case UID_UNDERWEAR:
; 1245 : 	case UID_KINDRED:
; 1246 : 		{
; 1247 : 			iType += iDecoType;
; 1248 : 			iCode =  iDecoCode;

  00071	8b 55 14	 mov	 edx, DWORD PTR _iDecoCode$[ebp]
  00074	03 f3		 add	 esi, ebx
$LN3@IsBought:

; 1259 : 	}
; 1260 : 	return g_MyInfo.IsSlotItem( iType, iCode );

  00076	52		 push	 edx
  00077	56		 push	 esi
  00078	e8 00 00 00 00	 call	 ?GetSingleton@ioMyInfo@@SAAAV1@XZ ; ioMyInfo::GetSingleton
  0007d	8b c8		 mov	 ecx, eax
  0007f	e8 00 00 00 00	 call	 ?IsSlotItem@ioMyInfo@@QAE_NHH@Z ; ioMyInfo::IsSlotItem
$LN9@IsBought:
  00084	5f		 pop	 edi
  00085	5e		 pop	 esi
  00086	5b		 pop	 ebx

; 1261 : }

  00087	c9		 leave
  00088	c3		 ret	 0
$LN1@IsBought:

; 1249 : 		}
; 1250 : 		break;
; 1251 : 	case UID_CLASS:
; 1252 : 		{
; 1253 : 			int iEquipType = iDecoCode / FLOAT1000;

  00089	b8 e8 03 00 00	 mov	 eax, 1000		; 000003e8H

; 1254 : 			int iEquipCode = iDecoCode % 1000;
; 1255 : 			iType += iEquipType;

  0008e	db 45 14	 fild	 DWORD PTR _iDecoCode$[ebp]
  00091	89 45 fc	 mov	 DWORD PTR tv193[ebp], eax
  00094	db 45 fc	 fild	 DWORD PTR tv193[ebp]
  00097	85 c0		 test	 eax, eax
  00099	79 06		 jns	 SHORT $LN16@IsBought
  0009b	d8 05 00 00 00
	00		 fadd	 DWORD PTR __real@4f800000
$LN16@IsBought:

; 1249 : 		}
; 1250 : 		break;
; 1251 : 	case UID_CLASS:
; 1252 : 		{
; 1253 : 			int iEquipType = iDecoCode / FLOAT1000;

  000a1	de f9		 fdivp	 ST(1), ST(0)

; 1254 : 			int iEquipCode = iDecoCode % 1000;
; 1255 : 			iType += iEquipType;

  000a3	e8 00 00 00 00	 call	 __ftol2_sse
  000a8	03 f0		 add	 esi, eax
  000aa	8b 45 14	 mov	 eax, DWORD PTR _iDecoCode$[ebp]
  000ad	99		 cdq
  000ae	b9 e8 03 00 00	 mov	 ecx, 1000		; 000003e8H
  000b3	f7 f9		 idiv	 ecx

; 1256 : 			iCode  = iEquipCode;
; 1257 : 		}
; 1258 : 		break;			

  000b5	eb bf		 jmp	 SHORT $LN3@IsBought
?IsBought@PackageItemBuyWnd@@SA_NHHHH@Z ENDP		; PackageItemBuyWnd::IsBought
_TEXT	ENDS
PUBLIC	?IsRightDecoType@PackageItemBuyAgreeWnd@@IAE_NH@Z ; PackageItemBuyAgreeWnd::IsRightDecoType
; Function compile flags: /Ogsp
;	COMDAT ?IsRightDecoType@PackageItemBuyAgreeWnd@@IAE_NH@Z
_TEXT	SEGMENT
_iDecoType$ = 8						; size = 4
?IsRightDecoType@PackageItemBuyAgreeWnd@@IAE_NH@Z PROC	; PackageItemBuyAgreeWnd::IsRightDecoType, COMDAT
; _this$ = ecx

; 1762 : {

  00000	55		 push	 ebp
  00001	8b ec		 mov	 ebp, esp

; 1763 : 	if( m_PackageStyle == PackageItemBuyWnd::PACKAGE_SOLDIER ||
; 1764 : 		m_PackageStyle == PackageItemBuyWnd::PACKAGE_PREMIUM_SOLDIER ||
; 1765 : 		m_PackageStyle == PackageItemBuyWnd::PACKAGE_DECORATION )

  00003	8b 81 8c 04 00
	00		 mov	 eax, DWORD PTR [ecx+1164]
  00009	83 f8 01	 cmp	 eax, 1
  0000c	74 4d		 je	 SHORT $LN7@IsRightDec@2
  0000e	83 f8 09	 cmp	 eax, 9
  00011	74 48		 je	 SHORT $LN7@IsRightDec@2
  00013	83 f8 02	 cmp	 eax, 2
  00016	74 43		 je	 SHORT $LN7@IsRightDec@2

; 1767 : 
; 1768 : 	if( m_PackageStyle == PackageItemBuyWnd::PACKAGE_DECO_FACE && iDecoType == UID_FACE )

  00018	8b 4d 08	 mov	 ecx, DWORD PTR _iDecoType$[ebp]
  0001b	83 f8 03	 cmp	 eax, 3
  0001e	75 05		 jne	 SHORT $LN6@IsRightDec@2
  00020	83 f9 01	 cmp	 ecx, 1

; 1769 : 		return true;

  00023	74 36		 je	 SHORT $LN7@IsRightDec@2
$LN6@IsRightDec@2:

; 1770 : 	if( m_PackageStyle == PackageItemBuyWnd::PACKAGE_DECO_HAIR && iDecoType == UID_HAIR )

  00025	83 f8 04	 cmp	 eax, 4
  00028	75 05		 jne	 SHORT $LN5@IsRightDec@2
  0002a	83 f9 02	 cmp	 ecx, 2

; 1771 : 		return true;

  0002d	74 2c		 je	 SHORT $LN7@IsRightDec@2
$LN5@IsRightDec@2:

; 1772 : 	if( m_PackageStyle == PackageItemBuyWnd::PACKAGE_DECO_SKIN_COLOR && iDecoType == UID_SKIN_COLOR )

  0002f	83 f8 05	 cmp	 eax, 5
  00032	75 05		 jne	 SHORT $LN4@IsRightDec@2
  00034	83 f9 03	 cmp	 ecx, 3

; 1773 : 		return true;

  00037	74 22		 je	 SHORT $LN7@IsRightDec@2
$LN4@IsRightDec@2:

; 1774 : 	if( m_PackageStyle == PackageItemBuyWnd::PACKAGE_DECO_HAIR_COLOR && iDecoType == UID_HAIR_COLOR )

  00039	83 f8 06	 cmp	 eax, 6
  0003c	75 05		 jne	 SHORT $LN3@IsRightDec@2
  0003e	83 f9 04	 cmp	 ecx, 4

; 1775 : 		return true;

  00041	74 18		 je	 SHORT $LN7@IsRightDec@2
$LN3@IsRightDec@2:

; 1776 : 	if( m_PackageStyle == PackageItemBuyWnd::PACKAGE_DECO_KINDRED && iDecoType == UID_KINDRED )

  00043	83 f8 07	 cmp	 eax, 7
  00046	75 05		 jne	 SHORT $LN2@IsRightDec@2
  00048	83 f9 05	 cmp	 ecx, 5

; 1777 : 		return true;

  0004b	74 0e		 je	 SHORT $LN7@IsRightDec@2
$LN2@IsRightDec@2:

; 1778 : 	if( m_PackageStyle == PackageItemBuyWnd::PACKAGE_DECO_UNDERWEAR && iDecoType == UID_UNDERWEAR )

  0004d	83 f8 08	 cmp	 eax, 8
  00050	75 05		 jne	 SHORT $LN1@IsRightDec@2
  00052	83 f9 07	 cmp	 ecx, 7

; 1779 : 		return true;

  00055	74 04		 je	 SHORT $LN7@IsRightDec@2
$LN1@IsRightDec@2:

; 1780 : 
; 1781 : 	return false;

  00057	32 c0		 xor	 al, al
  00059	eb 02		 jmp	 SHORT $LN9@IsRightDec@2
$LN7@IsRightDec@2:

; 1766 : 		return true;

  0005b	b0 01		 mov	 al, 1
$LN9@IsRightDec@2:

; 1782 : }

  0005d	5d		 pop	 ebp
  0005e	c2 04 00	 ret	 4
?IsRightDecoType@PackageItemBuyAgreeWnd@@IAE_NH@Z ENDP	; PackageItemBuyAgreeWnd::IsRightDecoType
_TEXT	ENDS
PUBLIC	??_7PackageItemBuyResultWnd@@6B@		; PackageItemBuyResultWnd::`vftable'
PUBLIC	??0PackageItemBuyResultWnd@@QAE@XZ		; PackageItemBuyResultWnd::PackageItemBuyResultWnd
PUBLIC	??_R4PackageItemBuyResultWnd@@6B@		; PackageItemBuyResultWnd::`RTTI Complete Object Locator'
PUBLIC	??_R0?AVPackageItemBuyResultWnd@@@8		; PackageItemBuyResultWnd `RTTI Type Descriptor'
PUBLIC	??_R3PackageItemBuyResultWnd@@8			; PackageItemBuyResultWnd::`RTTI Class Hierarchy Descriptor'
PUBLIC	??_R2PackageItemBuyResultWnd@@8			; PackageItemBuyResultWnd::`RTTI Base Class Array'
PUBLIC	??_R1A@?0A@EA@PackageItemBuyResultWnd@@8	; PackageItemBuyResultWnd::`RTTI Base Class Descriptor at (0,-1,0,64)'
PUBLIC	?AddRenderImage@PackageItemBuyResultWnd@@MAEXABVioHashString@@PAVioUIRenderImage@@@Z ; PackageItemBuyResultWnd::AddRenderImage
PUBLIC	?OnRender@PackageItemBuyResultWnd@@MAEXXZ	; PackageItemBuyResultWnd::OnRender
PUBLIC	?iwm_command@PackageItemBuyResultWnd@@UAEXPAVioWnd@@HK@Z ; PackageItemBuyResultWnd::iwm_command
EXTRN	__imp_??1ioWnd@@UAE@XZ:PROC
EXTRN	??_L@YGXPAXIHP6EX0@Z1@Z:PROC			; `eh vector constructor iterator'
EXTRN	??0ioComplexStringPrinter@@QAE@XZ:PROC		; ioComplexStringPrinter::ioComplexStringPrinter
EXTRN	__imp_??0ioHashString@@QAE@XZ:PROC
EXTRN	__imp_??0ioWnd@@QAE@XZ:PROC
EXTRN	?AddRenderFrame@ioWnd@@UAEXABVioHashString@@PAVioUIRenderFrame@@@Z:PROC ; ioWnd::AddRenderFrame
EXTRN	?ParseExtraInfo@ioWnd@@UAEXAAVioXMLElement@@@Z:PROC ; ioWnd::ParseExtraInfo
EXTRN	?SetWindowAlpha@ioWnd@@UAEXH@Z:PROC		; ioWnd::SetWindowAlpha
EXTRN	?CheckFrameReSize@ioWnd@@MAEXHHHH@Z:PROC	; ioWnd::CheckFrameReSize
EXTRN	?iwm_lbuttondown@ioWnd@@UAEXABVioMouse@@@Z:PROC	; ioWnd::iwm_lbuttondown
EXTRN	?iwm_lbuttonup@ioWnd@@UAEXABVioMouse@@@Z:PROC	; ioWnd::iwm_lbuttonup
EXTRN	?iwm_lbuttonDBLCLK@ioWnd@@UAEXABVioMouse@@@Z:PROC ; ioWnd::iwm_lbuttonDBLCLK
EXTRN	?iwm_rbuttondown@ioWnd@@UAEXABVioMouse@@@Z:PROC	; ioWnd::iwm_rbuttondown
EXTRN	?iwm_rbuttonup@ioWnd@@UAEXABVioMouse@@@Z:PROC	; ioWnd::iwm_rbuttonup
EXTRN	?iwm_mouseover@ioWnd@@UAEXABVioMouse@@@Z:PROC	; ioWnd::iwm_mouseover
EXTRN	?GetWndType@ioWnd@@UBEKXZ:PROC			; ioWnd::GetWndType
EXTRN	?GetHeaderFileName@ioWnd@@UAEPBDXZ:PROC		; ioWnd::GetHeaderFileName
EXTRN	?GetTemplateName@ioWnd@@UAEPBDXZ:PROC		; ioWnd::GetTemplateName
EXTRN	?GetDefClassName@ioWnd@@UBEPBDXZ:PROC		; ioWnd::GetDefClassName
EXTRN	?_Clone@ioWnd@@UAEPAV1@XZ:PROC			; ioWnd::_Clone
EXTRN	?Copy@ioWnd@@UAEXPAV1@@Z:PROC			; ioWnd::Copy
EXTRN	?SetSaveData@ioWnd@@UAEXAAVioXMLElement@@@Z:PROC ; ioWnd::SetSaveData
EXTRN	?GetNumFixedRenderFrame@ioWnd@@UBEHXZ:PROC	; ioWnd::GetNumFixedRenderFrame
EXTRN	?GetFixedRenderFrameType@ioWnd@@UAEPBDH@Z:PROC	; ioWnd::GetFixedRenderFrameType
EXTRN	?GetRenderFrame@ioWnd@@UAEPAPAVioUIRenderElement@@PBD@Z:PROC ; ioWnd::GetRenderFrame
EXTRN	?GetNumFixedRenderImage@ioWnd@@UBEHXZ:PROC	; ioWnd::GetNumFixedRenderImage
EXTRN	?GetFixedRenderImageType@ioWnd@@UAEPBDH@Z:PROC	; ioWnd::GetFixedRenderImageType
EXTRN	?GetRenderImage@ioWnd@@UAEPAPAVioUIRenderElement@@PBD@Z:PROC ; ioWnd::GetRenderImage
EXTRN	??_EPackageItemBuyResultWnd@@UAEPAXI@Z:PROC	; PackageItemBuyResultWnd::`vector deleting destructor'
;	COMDAT ??_R1A@?0A@EA@PackageItemBuyResultWnd@@8
rdata$r	SEGMENT
??_R1A@?0A@EA@PackageItemBuyResultWnd@@8 DD FLAT:??_R0?AVPackageItemBuyResultWnd@@@8 ; PackageItemBuyResultWnd::`RTTI Base Class Descriptor at (0,-1,0,64)'
	DD	01H
	DD	00H
	DD	0ffffffffH
	DD	00H
	DD	040H
	DD	FLAT:??_R3PackageItemBuyResultWnd@@8
rdata$r	ENDS
;	COMDAT ??_R2PackageItemBuyResultWnd@@8
rdata$r	SEGMENT
??_R2PackageItemBuyResultWnd@@8 DD FLAT:??_R1A@?0A@EA@PackageItemBuyResultWnd@@8 ; PackageItemBuyResultWnd::`RTTI Base Class Array'
	DD	FLAT:??_R1A@?0A@EA@ioWnd@@8
rdata$r	ENDS
;	COMDAT ??_R3PackageItemBuyResultWnd@@8
rdata$r	SEGMENT
??_R3PackageItemBuyResultWnd@@8 DD 00H			; PackageItemBuyResultWnd::`RTTI Class Hierarchy Descriptor'
	DD	00H
	DD	02H
	DD	FLAT:??_R2PackageItemBuyResultWnd@@8
rdata$r	ENDS
;	COMDAT ??_R0?AVPackageItemBuyResultWnd@@@8
_DATA	SEGMENT
??_R0?AVPackageItemBuyResultWnd@@@8 DD FLAT:??_7type_info@@6B@ ; PackageItemBuyResultWnd `RTTI Type Descriptor'
	DD	00H
	DB	'.?AVPackageItemBuyResultWnd@@', 00H
_DATA	ENDS
;	COMDAT ??_R4PackageItemBuyResultWnd@@6B@
rdata$r	SEGMENT
??_R4PackageItemBuyResultWnd@@6B@ DD 00H		; PackageItemBuyResultWnd::`RTTI Complete Object Locator'
	DD	00H
	DD	00H
	DD	FLAT:??_R0?AVPackageItemBuyResultWnd@@@8
	DD	FLAT:??_R3PackageItemBuyResultWnd@@8
rdata$r	ENDS
;	COMDAT ??_7PackageItemBuyResultWnd@@6B@
CONST	SEGMENT
??_7PackageItemBuyResultWnd@@6B@ DD FLAT:??_R4PackageItemBuyResultWnd@@6B@ ; PackageItemBuyResultWnd::`vftable'
	DD	FLAT:?AddRenderFrame@ioWnd@@UAEXABVioHashString@@PAVioUIRenderFrame@@@Z
	DD	FLAT:?AddRenderImage@PackageItemBuyResultWnd@@MAEXABVioHashString@@PAVioUIRenderImage@@@Z
	DD	FLAT:?AddTooltipHelp@ioWnd@@UAEXABVioHashString@@00@Z
	DD	FLAT:?ParseExtraInfo@ioWnd@@UAEXAAVioXMLElement@@@Z
	DD	FLAT:?AddNamedRenderImage@ioWnd@@UAEXABVioHashString@@PAVioUIRenderImage@@@Z
	DD	FLAT:?RemoveNamedRenderImage@ioWnd@@UAEXABVioHashString@@@Z
	DD	FLAT:?GetNamedRenderImage@ioWnd@@UBEPAVioUIRenderImage@@ABVioHashString@@@Z
	DD	FLAT:?SetWindowAlpha@ioWnd@@UAEXH@Z
	DD	FLAT:?SetActive@ioWnd@@UAEXXZ
	DD	FLAT:?SetInActive@ioWnd@@UAEXXZ
	DD	FLAT:?ClearElementImageList@ioWnd@@UAEXXZ
	DD	FLAT:?SetSize@ioWnd@@UAEXHH@Z
	DD	FLAT:?SetPositionToDefault@ioWnd@@UAEXHH_N0@Z
	DD	FLAT:?IsNeedProcess@ioWnd@@UBE_NXZ
	DD	FLAT:?IsCanMouseReaction@ioWnd@@UBE_NXZ
	DD	FLAT:?AddChild@ioWnd@@UAEXPAV1@@Z
	DD	FLAT:?DeleteChild@ioWnd@@UAEXK@Z
	DD	FLAT:?DeleteAllChild@ioWnd@@UAEXXZ
	DD	FLAT:?OnRenderShowAndHide@ioWnd@@MAE_NXZ
	DD	FLAT:?OnRenderShowAndHideByDefault@ioWnd@@MAE_NK@Z
	DD	FLAT:?OnRenderShowAndHideByTop@ioWnd@@MAE_NK@Z
	DD	FLAT:?OnRenderShowAndHideByDown@ioWnd@@MAE_NK@Z
	DD	FLAT:?OnRender@PackageItemBuyResultWnd@@MAEXXZ
	DD	FLAT:?OnRenderAfterChild@ioWnd@@MAEXXZ
	DD	FLAT:?OnProcess@ioWnd@@MAEXM@Z
	DD	FLAT:?OnMouseProcess@ioWnd@@MAEXABVioMouse@@@Z
	DD	FLAT:?CheckFrameReSize@ioWnd@@MAEXHHHH@Z
	DD	FLAT:?RenderImageList@ioWnd@@MAEXHHW4UIRenderType@@@Z
	DD	FLAT:?iwm_create@ioWnd@@UAEXXZ
	DD	FLAT:?iwm_destroy@ioWnd@@UAEXXZ
	DD	FLAT:?iwm_lbuttondown@ioWnd@@UAEXABVioMouse@@@Z
	DD	FLAT:?iwm_lbuttonup@ioWnd@@UAEXABVioMouse@@@Z
	DD	FLAT:?iwm_lbuttonDBLCLK@ioWnd@@UAEXABVioMouse@@@Z
	DD	FLAT:?iwm_rbuttondown@ioWnd@@UAEXABVioMouse@@@Z
	DD	FLAT:?iwm_rbuttonup@ioWnd@@UAEXABVioMouse@@@Z
	DD	FLAT:?iwm_command@PackageItemBuyResultWnd@@UAEXPAVioWnd@@HK@Z
	DD	FLAT:?iwm_mouseover@ioWnd@@UAEXABVioMouse@@@Z
	DD	FLAT:?iwm_mousemove@ioWnd@@UAEXABVioMouse@@@Z
	DD	FLAT:?iwm_mouseleave@ioWnd@@UAEXABVioMouse@@@Z
	DD	FLAT:?iwm_vscroll@ioWnd@@UAEXKH@Z
	DD	FLAT:?iwm_wheel@ioWnd@@UAEXH@Z
	DD	FLAT:?iwm_show@ioWnd@@UAEXXZ
	DD	FLAT:?iwm_hide@ioWnd@@UAEXXZ
	DD	FLAT:?iwm_esc@ioWnd@@UAE_NXZ
	DD	FLAT:?iwm_spacebar@ioWnd@@UAE_NXZ
	DD	FLAT:?iwm_gototop@ioWnd@@UAEXXZ
	DD	FLAT:?iwm_dragenter@ioWnd@@UAE?AW4IWDropEffect@@PAVioDragItem@@ABVioMouse@@@Z
	DD	FLAT:?iwm_dragover@ioWnd@@UAE?AW4IWDropEffect@@PAVioDragItem@@ABVioMouse@@@Z
	DD	FLAT:?iwm_dragleave@ioWnd@@UAEXXZ
	DD	FLAT:?iwm_dropitem@ioWnd@@UAE_NPAVioDragItem@@ABVioMouse@@PAV1@@Z
	DD	FLAT:?iwm_dropdone@ioWnd@@UAEXPAVioDragItem@@PAV1@_N@Z
	DD	FLAT:?IsEXType@ioWnd@@UBE_NXZ
	DD	FLAT:?GetWndType@ioWnd@@UBEKXZ
	DD	FLAT:?RenderWnd@ioWnd@@UAEXXZ
	DD	FLAT:?SetIDEX@ioWnd@@UAEXAAK_N@Z
	DD	FLAT:?ParseXML@ioWnd@@UAEXAAVioXMLElement@@@Z
	DD	FLAT:?GetHeaderFileName@ioWnd@@UAEPBDXZ
	DD	FLAT:?GetTemplateName@ioWnd@@UAEPBDXZ
	DD	FLAT:?GetDefClassName@ioWnd@@UBEPBDXZ
	DD	FLAT:?_Clone@ioWnd@@UAEPAV1@XZ
	DD	FLAT:?Copy@ioWnd@@UAEXPAV1@@Z
	DD	FLAT:?Save@ioWnd@@UAE_NAAVioXMLElement@@@Z
	DD	FLAT:?SetSaveData@ioWnd@@UAEXAAVioXMLElement@@@Z
	DD	FLAT:?SetPosX@ioWnd@@UAEXH@Z
	DD	FLAT:?SetPosY@ioWnd@@UAEXH@Z
	DD	FLAT:?SetWidth@ioWnd@@UAEXH@Z
	DD	FLAT:?SetHeight@ioWnd@@UAEXH@Z
	DD	FLAT:?GetNumFixedRenderFrame@ioWnd@@UBEHXZ
	DD	FLAT:?GetFixedRenderFrameType@ioWnd@@UAEPBDH@Z
	DD	FLAT:?GetRenderFrame@ioWnd@@UAEPAPAVioUIRenderElement@@PBD@Z
	DD	FLAT:?GetNumFixedRenderImage@ioWnd@@UBEHXZ
	DD	FLAT:?GetFixedRenderImageType@ioWnd@@UAEPBDH@Z
	DD	FLAT:?GetRenderImage@ioWnd@@UAEPAPAVioUIRenderElement@@PBD@Z
	DD	FLAT:?AddEffect@ioWnd@@UAEXABVioHashString@@PAVioUI3DEffectRender@@@Z
	DD	FLAT:?GetEffect@ioWnd@@UAEPAVioUI3DEffectRender@@VioHashString@@@Z
	DD	FLAT:??_EPackageItemBuyResultWnd@@UAEPAXI@Z
CONST	ENDS
;	COMDAT xdata$x
xdata$x	SEGMENT
__unwindtable$??0PackageItemBuyResultWnd@@QAE@XZ DD 0ffffffffH
	DD	FLAT:__unwindfunclet$??0PackageItemBuyResultWnd@@QAE@XZ$0
	DD	00H
	DD	FLAT:__unwindfunclet$??0PackageItemBuyResultWnd@@QAE@XZ$1
__ehfuncinfo$??0PackageItemBuyResultWnd@@QAE@XZ DD 019930522H
	DD	02H
	DD	FLAT:__unwindtable$??0PackageItemBuyResultWnd@@QAE@XZ
	DD	2 DUP(00H)
	DD	2 DUP(00H)
	DD	00H
	DD	01H
; Function compile flags: /Ogsp
xdata$x	ENDS
;	COMDAT ??0PackageItemBuyResultWnd@@QAE@XZ
_TEXT	SEGMENT
_this$ = -16						; size = 4
__$EHRec$ = -12						; size = 12
??0PackageItemBuyResultWnd@@QAE@XZ PROC			; PackageItemBuyResultWnd::PackageItemBuyResultWnd, COMDAT
; _this$ = ecx

; 1785 : {

  00000	6a 04		 push	 4
  00002	b8 00 00 00 00	 mov	 eax, __ehhandler$??0PackageItemBuyResultWnd@@QAE@XZ
  00007	e8 00 00 00 00	 call	 __EH_prolog3
  0000c	8b f1		 mov	 esi, ecx
  0000e	89 75 f0	 mov	 DWORD PTR _this$[ebp], esi
  00011	ff 15 00 00 00
	00		 call	 DWORD PTR __imp_??0ioWnd@@QAE@XZ
  00017	33 ff		 xor	 edi, edi
  00019	8d 8e 6c 01 00
	00		 lea	 ecx, DWORD PTR [esi+364]
  0001f	89 7d fc	 mov	 DWORD PTR __$EHRec$[ebp+8], edi
  00022	c7 06 00 00 00
	00		 mov	 DWORD PTR [esi], OFFSET ??_7PackageItemBuyResultWnd@@6B@
  00028	ff 15 00 00 00
	00		 call	 DWORD PTR __imp_??0ioHashString@@QAE@XZ
  0002e	68 00 00 00 00	 push	 OFFSET ??1ioComplexStringPrinter@@QAE@XZ ; ioComplexStringPrinter::~ioComplexStringPrinter
  00033	68 00 00 00 00	 push	 OFFSET ??0ioComplexStringPrinter@@QAE@XZ ; ioComplexStringPrinter::ioComplexStringPrinter
  00038	6a 08		 push	 8
  0003a	6a 20		 push	 32			; 00000020H
  0003c	8d 86 7c 01 00
	00		 lea	 eax, DWORD PTR [esi+380]
  00042	50		 push	 eax
  00043	c6 45 fc 01	 mov	 BYTE PTR __$EHRec$[ebp+8], 1
  00047	e8 00 00 00 00	 call	 ??_L@YGXPAXIHP6EX0@Z1@Z

; 1786 : 	m_pBackEffect = NULL;

  0004c	89 be 64 01 00
	00		 mov	 DWORD PTR [esi+356], edi

; 1787 : 	m_pCharIcon = NULL;

  00052	89 be 60 01 00
	00		 mov	 DWORD PTR [esi+352], edi

; 1788 : 
; 1789 : 	m_iClassType = 0;

  00058	89 be 68 01 00
	00		 mov	 DWORD PTR [esi+360], edi

; 1790 : 	m_nGradeType = 0;

  0005e	89 be 7c 02 00
	00		 mov	 DWORD PTR [esi+636], edi

; 1791 : }

  00064	8b c6		 mov	 eax, esi
  00066	e8 00 00 00 00	 call	 __EH_epilog3
  0006b	c3		 ret	 0
_TEXT	ENDS
;	COMDAT text$x
text$x	SEGMENT
__unwindfunclet$??0PackageItemBuyResultWnd@@QAE@XZ$0:
  00000	8b 4d f0	 mov	 ecx, DWORD PTR _this$[ebp]
  00003	ff 25 00 00 00
	00		 jmp	 DWORD PTR __imp_??1ioWnd@@UAE@XZ
__unwindfunclet$??0PackageItemBuyResultWnd@@QAE@XZ$1:
  00009	8b 4d f0	 mov	 ecx, DWORD PTR _this$[ebp]
  0000c	81 c1 6c 01 00
	00		 add	 ecx, 364		; 0000016cH
  00012	ff 25 00 00 00
	00		 jmp	 DWORD PTR __imp_??1ioHashString@@QAE@XZ
__ehhandler$??0PackageItemBuyResultWnd@@QAE@XZ:
  00018	8b 54 24 08	 mov	 edx, DWORD PTR [esp+8]
  0001c	8d 42 0c	 lea	 eax, DWORD PTR [edx+12]
  0001f	8b 4a ec	 mov	 ecx, DWORD PTR [edx-20]
  00022	33 c8		 xor	 ecx, eax
  00024	e8 00 00 00 00	 call	 @__security_check_cookie@4
  00029	b8 00 00 00 00	 mov	 eax, OFFSET __ehfuncinfo$??0PackageItemBuyResultWnd@@QAE@XZ
  0002e	e9 00 00 00 00	 jmp	 ___CxxFrameHandler3
text$x	ENDS
??0PackageItemBuyResultWnd@@QAE@XZ ENDP			; PackageItemBuyResultWnd::PackageItemBuyResultWnd
PUBLIC	??1PackageItemBuyResultWnd@@UAE@XZ		; PackageItemBuyResultWnd::~PackageItemBuyResultWnd
EXTRN	??_M@YGXPAXIHP6EX0@Z@Z:PROC			; `eh vector destructor iterator'
EXTRN	?ClearList@ioComplexStringPrinter@@QAEXXZ:PROC	; ioComplexStringPrinter::ClearList
;	COMDAT xdata$x
xdata$x	SEGMENT
__unwindtable$??1PackageItemBuyResultWnd@@UAE@XZ DD 0ffffffffH
	DD	FLAT:__unwindfunclet$??1PackageItemBuyResultWnd@@UAE@XZ$0
	DD	00H
	DD	FLAT:__unwindfunclet$??1PackageItemBuyResultWnd@@UAE@XZ$1
	DD	01H
	DD	FLAT:__unwindfunclet$??1PackageItemBuyResultWnd@@UAE@XZ$2
__ehfuncinfo$??1PackageItemBuyResultWnd@@UAE@XZ DD 019930522H
	DD	03H
	DD	FLAT:__unwindtable$??1PackageItemBuyResultWnd@@UAE@XZ
	DD	2 DUP(00H)
	DD	2 DUP(00H)
	DD	00H
	DD	01H
; Function compile flags: /Ogsp
xdata$x	ENDS
;	COMDAT ??1PackageItemBuyResultWnd@@UAE@XZ
_TEXT	SEGMENT
_this$ = -20						; size = 4
tv72 = -16						; size = 4
__$EHRec$ = -12						; size = 12
??1PackageItemBuyResultWnd@@UAE@XZ PROC			; PackageItemBuyResultWnd::~PackageItemBuyResultWnd, COMDAT
; _this$ = ecx

; 1794 : {

  00000	6a 08		 push	 8
  00002	b8 00 00 00 00	 mov	 eax, __ehhandler$??1PackageItemBuyResultWnd@@UAE@XZ
  00007	e8 00 00 00 00	 call	 __EH_prolog3
  0000c	8b f1		 mov	 esi, ecx
  0000e	89 75 ec	 mov	 DWORD PTR _this$[ebp], esi
  00011	c7 06 00 00 00
	00		 mov	 DWORD PTR [esi], OFFSET ??_7PackageItemBuyResultWnd@@6B@

; 1795 : 	SAFEDELETE( m_pBackEffect );

  00017	8b 8e 64 01 00
	00		 mov	 ecx, DWORD PTR [esi+356]
  0001d	c7 45 fc 02 00
	00 00		 mov	 DWORD PTR __$EHRec$[ebp+8], 2
  00024	85 c9		 test	 ecx, ecx
  00026	74 0e		 je	 SHORT $LN5@PackageIte
  00028	8b 01		 mov	 eax, DWORD PTR [ecx]
  0002a	6a 01		 push	 1
  0002c	ff 50 40	 call	 DWORD PTR [eax+64]
  0002f	83 a6 64 01 00
	00 00		 and	 DWORD PTR [esi+356], 0
$LN5@PackageIte:

; 1796 : 	SAFEDELETE( m_pCharIcon );

  00036	8b 8e 60 01 00
	00		 mov	 ecx, DWORD PTR [esi+352]
  0003c	85 c9		 test	 ecx, ecx
  0003e	74 0e		 je	 SHORT $LN4@PackageIte
  00040	8b 01		 mov	 eax, DWORD PTR [ecx]
  00042	6a 01		 push	 1
  00044	ff 50 40	 call	 DWORD PTR [eax+64]
  00047	83 a6 60 01 00
	00 00		 and	 DWORD PTR [esi+352], 0
$LN4@PackageIte:

; 1797 : 
; 1798 : 	for( int i=0; i < MAX_AGREE_LIST; ++i )

  0004e	8d be 7c 01 00
	00		 lea	 edi, DWORD PTR [esi+380]
  00054	8b df		 mov	 ebx, edi
  00056	c7 45 f0 08 00
	00 00		 mov	 DWORD PTR tv72[ebp], 8
$LL3@PackageIte:

; 1799 : 	{
; 1800 : 		m_AgreeList[i].ClearList();

  0005d	8b cb		 mov	 ecx, ebx
  0005f	e8 00 00 00 00	 call	 ?ClearList@ioComplexStringPrinter@@QAEXXZ ; ioComplexStringPrinter::ClearList
  00064	83 c3 20	 add	 ebx, 32			; 00000020H
  00067	ff 4d f0	 dec	 DWORD PTR tv72[ebp]
  0006a	75 f1		 jne	 SHORT $LL3@PackageIte

; 1801 : 	}
; 1802 : }

  0006c	68 00 00 00 00	 push	 OFFSET ??1ioComplexStringPrinter@@QAE@XZ ; ioComplexStringPrinter::~ioComplexStringPrinter
  00071	6a 08		 push	 8
  00073	6a 20		 push	 32			; 00000020H
  00075	57		 push	 edi
  00076	c6 45 fc 01	 mov	 BYTE PTR __$EHRec$[ebp+8], 1
  0007a	e8 00 00 00 00	 call	 ??_M@YGXPAXIHP6EX0@Z@Z
  0007f	8d 8e 6c 01 00
	00		 lea	 ecx, DWORD PTR [esi+364]
  00085	c6 45 fc 00	 mov	 BYTE PTR __$EHRec$[ebp+8], 0
  00089	ff 15 00 00 00
	00		 call	 DWORD PTR __imp_??1ioHashString@@QAE@XZ
  0008f	83 4d fc ff	 or	 DWORD PTR __$EHRec$[ebp+8], -1
  00093	8b ce		 mov	 ecx, esi
  00095	ff 15 00 00 00
	00		 call	 DWORD PTR __imp_??1ioWnd@@UAE@XZ
  0009b	e8 00 00 00 00	 call	 __EH_epilog3
  000a0	c3		 ret	 0
_TEXT	ENDS
;	COMDAT text$x
text$x	SEGMENT
__unwindfunclet$??1PackageItemBuyResultWnd@@UAE@XZ$0:
  00000	8b 4d ec	 mov	 ecx, DWORD PTR _this$[ebp]
  00003	ff 25 00 00 00
	00		 jmp	 DWORD PTR __imp_??1ioWnd@@UAE@XZ
__unwindfunclet$??1PackageItemBuyResultWnd@@UAE@XZ$1:
  00009	8b 4d ec	 mov	 ecx, DWORD PTR _this$[ebp]
  0000c	81 c1 6c 01 00
	00		 add	 ecx, 364		; 0000016cH
  00012	ff 25 00 00 00
	00		 jmp	 DWORD PTR __imp_??1ioHashString@@QAE@XZ
__unwindfunclet$??1PackageItemBuyResultWnd@@UAE@XZ$2:
  00018	68 00 00 00 00	 push	 OFFSET ??1ioComplexStringPrinter@@QAE@XZ ; ioComplexStringPrinter::~ioComplexStringPrinter
  0001d	6a 08		 push	 8
  0001f	6a 20		 push	 32			; 00000020H
  00021	8b 45 ec	 mov	 eax, DWORD PTR _this$[ebp]
  00024	05 7c 01 00 00	 add	 eax, 380		; 0000017cH
  00029	50		 push	 eax
  0002a	e8 00 00 00 00	 call	 ??_M@YGXPAXIHP6EX0@Z@Z
  0002f	c3		 ret	 0
__ehhandler$??1PackageItemBuyResultWnd@@UAE@XZ:
  00030	8b 54 24 08	 mov	 edx, DWORD PTR [esp+8]
  00034	8d 42 0c	 lea	 eax, DWORD PTR [edx+12]
  00037	8b 4a e8	 mov	 ecx, DWORD PTR [edx-24]
  0003a	33 c8		 xor	 ecx, eax
  0003c	e8 00 00 00 00	 call	 @__security_check_cookie@4
  00041	b8 00 00 00 00	 mov	 eax, OFFSET __ehfuncinfo$??1PackageItemBuyResultWnd@@UAE@XZ
  00046	e9 00 00 00 00	 jmp	 ___CxxFrameHandler3
text$x	ENDS
??1PackageItemBuyResultWnd@@UAE@XZ ENDP			; PackageItemBuyResultWnd::~PackageItemBuyResultWnd
PUBLIC	??_R0?AVMyInventoryWnd@@@8			; MyInventoryWnd `RTTI Type Descriptor'
EXTRN	?ShowSoldierTabDirect@MyInventoryWnd@@QAEXH@Z:PROC ; MyInventoryWnd::ShowSoldierTabDirect
EXTRN	__imp_?FindWnd@ioGUIManager@@QAEPAVioWnd@@K@Z:PROC
EXTRN	__imp_?HideWnd@ioWnd@@QAEXXZ:PROC
EXTRN	__imp_?GetID@ioWnd@@QBEKXZ:PROC
EXTRN	___RTDynamicCast:PROC
;	COMDAT ??_R0?AVMyInventoryWnd@@@8
_DATA	SEGMENT
??_R0?AVMyInventoryWnd@@@8 DD FLAT:??_7type_info@@6B@	; MyInventoryWnd `RTTI Type Descriptor'
	DD	00H
	DB	'.?AVMyInventoryWnd@@', 00H
; Function compile flags: /Ogsp
_DATA	ENDS
;	COMDAT ?iwm_command@PackageItemBuyResultWnd@@UAEXPAVioWnd@@HK@Z
_TEXT	SEGMENT
_pWnd$ = 8						; size = 4
_cmd$ = 12						; size = 4
_param$ = 16						; size = 4
?iwm_command@PackageItemBuyResultWnd@@UAEXPAVioWnd@@HK@Z PROC ; PackageItemBuyResultWnd::iwm_command, COMDAT
; _this$ = ecx

; 1929 : {

  00000	55		 push	 ebp
  00001	8b ec		 mov	 ebp, esp
  00003	56		 push	 esi
  00004	8b f1		 mov	 esi, ecx

; 1930 : 	DWORD dwID = pWnd->GetID();

  00006	8b 4d 08	 mov	 ecx, DWORD PTR _pWnd$[ebp]
  00009	ff 15 00 00 00
	00		 call	 DWORD PTR __imp_?GetID@ioWnd@@QBEKXZ

; 1931 : 	switch( dwID )

  0000f	48		 dec	 eax
  00010	75 48		 jne	 SHORT $LN1@iwm_comman

; 1932 : 	{
; 1933 : 	case ID_GO:
; 1934 : 		if( cmd == IOBN_BTNUP )

  00012	83 7d 0c 11	 cmp	 DWORD PTR _cmd$[ebp], 17 ; 00000011H
  00016	75 42		 jne	 SHORT $LN1@iwm_comman

; 1935 : 		{
; 1936 : 			HideWnd();

  00018	8b ce		 mov	 ecx, esi
  0001a	ff 15 00 00 00
	00		 call	 DWORD PTR __imp_?HideWnd@ioWnd@@QAEXXZ

; 1937 : 
; 1938 : 			MyInventoryWnd *pInvenWnd = dynamic_cast<MyInventoryWnd*>(g_GUIMgr.FindWnd(MY_INVENTORY_WND));

  00020	6a 00		 push	 0
  00022	68 00 00 00 00	 push	 OFFSET ??_R0?AVMyInventoryWnd@@@8
  00027	68 00 00 00 00	 push	 OFFSET ??_R0?AVioWnd@@@8
  0002c	6a 00		 push	 0
  0002e	68 96 17 00 00	 push	 6038			; 00001796H
  00033	e8 00 00 00 00	 call	 ?GetSingleton@ioSP2GUIManager@@SAAAV1@XZ ; ioSP2GUIManager::GetSingleton
  00038	8b c8		 mov	 ecx, eax
  0003a	ff 15 00 00 00
	00		 call	 DWORD PTR __imp_?FindWnd@ioGUIManager@@QAEPAVioWnd@@K@Z
  00040	50		 push	 eax
  00041	e8 00 00 00 00	 call	 ___RTDynamicCast
  00046	83 c4 14	 add	 esp, 20			; 00000014H

; 1939 : 			if( pInvenWnd )

  00049	85 c0		 test	 eax, eax
  0004b	74 0d		 je	 SHORT $LN1@iwm_comman

; 1940 : 			{
; 1941 : 				pInvenWnd->ShowSoldierTabDirect( m_iClassType );

  0004d	ff b6 68 01 00
	00		 push	 DWORD PTR [esi+360]
  00053	8b c8		 mov	 ecx, eax
  00055	e8 00 00 00 00	 call	 ?ShowSoldierTabDirect@MyInventoryWnd@@QAEXH@Z ; MyInventoryWnd::ShowSoldierTabDirect
$LN1@iwm_comman:
  0005a	5e		 pop	 esi

; 1942 : 			}
; 1943 : 		}
; 1944 : 		break;
; 1945 : 	}
; 1946 : }

  0005b	5d		 pop	 ebp
  0005c	c2 0c 00	 ret	 12			; 0000000cH
?iwm_command@PackageItemBuyResultWnd@@UAEXPAVioWnd@@HK@Z ENDP ; PackageItemBuyResultWnd::iwm_command
_TEXT	ENDS
PUBLIC	?size@?$vector@UITEMSLOT@@V?$allocator@UITEMSLOT@@@std@@@std@@QBEIXZ ; std::vector<ITEMSLOT,std::allocator<ITEMSLOT> >::size
; Function compile flags: /Ogsp
; File c:\program files (x86)\microsoft visual studio 10.0\vc\include\vector
;	COMDAT ?size@?$vector@UITEMSLOT@@V?$allocator@UITEMSLOT@@@std@@@std@@QBEIXZ
_TEXT	SEGMENT
?size@?$vector@UITEMSLOT@@V?$allocator@UITEMSLOT@@@std@@@std@@QBEIXZ PROC ; std::vector<ITEMSLOT,std::allocator<ITEMSLOT> >::size, COMDAT
; _this$ = ecx

; 879  : 		return (this->_Mylast - this->_Myfirst);

  00000	8b 41 04	 mov	 eax, DWORD PTR [ecx+4]
  00003	2b 01		 sub	 eax, DWORD PTR [ecx]
  00005	6a 0c		 push	 12			; 0000000cH
  00007	99		 cdq
  00008	59		 pop	 ecx
  00009	f7 f9		 idiv	 ecx

; 880  : 		}

  0000b	c3		 ret	 0
?size@?$vector@UITEMSLOT@@V?$allocator@UITEMSLOT@@@std@@@std@@QBEIXZ ENDP ; std::vector<ITEMSLOT,std::allocator<ITEMSLOT> >::size
_TEXT	ENDS
PUBLIC	??A?$vector@UITEMSLOT@@V?$allocator@UITEMSLOT@@@std@@@std@@QAEAAUITEMSLOT@@I@Z ; std::vector<ITEMSLOT,std::allocator<ITEMSLOT> >::operator[]
; Function compile flags: /Ogsp
;	COMDAT ??A?$vector@UITEMSLOT@@V?$allocator@UITEMSLOT@@@std@@@std@@QAEAAUITEMSLOT@@I@Z
_TEXT	SEGMENT
__Pos$ = 8						; size = 4
??A?$vector@UITEMSLOT@@V?$allocator@UITEMSLOT@@@std@@@std@@QAEAAUITEMSLOT@@I@Z PROC ; std::vector<ITEMSLOT,std::allocator<ITEMSLOT> >::operator[], COMDAT
; _this$ = ecx

; 928  : 		{	// subscript mutable sequence

  00000	55		 push	 ebp
  00001	8b ec		 mov	 ebp, esp

; 929  :  #if _ITERATOR_DEBUG_LEVEL == 2
; 930  : 		if (size() <= _Pos)
; 931  : 			{	// report error
; 932  : 			_DEBUG_ERROR("vector subscript out of range");
; 933  : 			_SCL_SECURE_OUT_OF_RANGE;
; 934  : 			}
; 935  : 
; 936  :  #elif _ITERATOR_DEBUG_LEVEL == 1
; 937  : 		_SCL_SECURE_VALIDATE_RANGE(_Pos < size());
; 938  :  #endif /* _ITERATOR_DEBUG_LEVEL */
; 939  : 
; 940  : 		return (*(this->_Myfirst + _Pos));

  00003	8b 45 08	 mov	 eax, DWORD PTR __Pos$[ebp]
  00006	6b c0 0c	 imul	 eax, 12			; 0000000cH
  00009	03 01		 add	 eax, DWORD PTR [ecx]

; 941  : 		}

  0000b	5d		 pop	 ebp
  0000c	c2 04 00	 ret	 4
??A?$vector@UITEMSLOT@@V?$allocator@UITEMSLOT@@@std@@@std@@QAEAAUITEMSLOT@@I@Z ENDP ; std::vector<ITEMSLOT,std::allocator<ITEMSLOT> >::operator[]
_TEXT	ENDS
PUBLIC	?GetSingleton@?$Singleton@VioEtcItemManager@@@@SAAAVioEtcItemManager@@XZ ; Singleton<ioEtcItemManager>::GetSingleton
EXTRN	?ms_Singleton@?$Singleton@VioEtcItemManager@@@@1PAVioEtcItemManager@@A:DWORD ; Singleton<ioEtcItemManager>::ms_Singleton
; Function compile flags: /Ogsp
; File d:\lost saga for developer\youtube\tutorial\source\src\io3dengine\iosingleton.h
;	COMDAT ?GetSingleton@?$Singleton@VioEtcItemManager@@@@SAAAVioEtcItemManager@@XZ
_TEXT	SEGMENT
?GetSingleton@?$Singleton@VioEtcItemManager@@@@SAAAVioEtcItemManager@@XZ PROC ; Singleton<ioEtcItemManager>::GetSingleton, COMDAT

; 42   : 		assert( ms_Singleton );
; 43   : 		return (*ms_Singleton);

  00000	a1 00 00 00 00	 mov	 eax, DWORD PTR ?ms_Singleton@?$Singleton@VioEtcItemManager@@@@1PAVioEtcItemManager@@A ; Singleton<ioEtcItemManager>::ms_Singleton

; 44   : 	}

  00005	c3		 ret	 0
?GetSingleton@?$Singleton@VioEtcItemManager@@@@SAAAVioEtcItemManager@@XZ ENDP ; Singleton<ioEtcItemManager>::GetSingleton
_TEXT	ENDS
PUBLIC	?size@?$vector@UNewShopPullDownItem@@V?$allocator@UNewShopPullDownItem@@@std@@@std@@QBEIXZ ; std::vector<NewShopPullDownItem,std::allocator<NewShopPullDownItem> >::size
; Function compile flags: /Ogsp
; File c:\program files (x86)\microsoft visual studio 10.0\vc\include\vector
;	COMDAT ?size@?$vector@UNewShopPullDownItem@@V?$allocator@UNewShopPullDownItem@@@std@@@std@@QBEIXZ
_TEXT	SEGMENT
?size@?$vector@UNewShopPullDownItem@@V?$allocator@UNewShopPullDownItem@@@std@@@std@@QBEIXZ PROC ; std::vector<NewShopPullDownItem,std::allocator<NewShopPullDownItem> >::size, COMDAT
; _this$ = ecx

; 879  : 		return (this->_Mylast - this->_Myfirst);

  00000	8b 41 04	 mov	 eax, DWORD PTR [ecx+4]
  00003	2b 01		 sub	 eax, DWORD PTR [ecx]
  00005	6a 50		 push	 80			; 00000050H
  00007	99		 cdq
  00008	59		 pop	 ecx
  00009	f7 f9		 idiv	 ecx

; 880  : 		}

  0000b	c3		 ret	 0
?size@?$vector@UNewShopPullDownItem@@V?$allocator@UNewShopPullDownItem@@@std@@@std@@QBEIXZ ENDP ; std::vector<NewShopPullDownItem,std::allocator<NewShopPullDownItem> >::size
_TEXT	ENDS
PUBLIC	?empty@?$vector@UNewShopPullDownItem@@V?$allocator@UNewShopPullDownItem@@@std@@@std@@QBE_NXZ ; std::vector<NewShopPullDownItem,std::allocator<NewShopPullDownItem> >::empty
; Function compile flags: /Ogsp
;	COMDAT ?empty@?$vector@UNewShopPullDownItem@@V?$allocator@UNewShopPullDownItem@@@std@@@std@@QBE_NXZ
_TEXT	SEGMENT
?empty@?$vector@UNewShopPullDownItem@@V?$allocator@UNewShopPullDownItem@@@std@@@std@@QBE_NXZ PROC ; std::vector<NewShopPullDownItem,std::allocator<NewShopPullDownItem> >::empty, COMDAT
; _this$ = ecx

; 889  : 		return (this->_Myfirst == this->_Mylast);

  00000	8b 01		 mov	 eax, DWORD PTR [ecx]
  00002	2b 41 04	 sub	 eax, DWORD PTR [ecx+4]
  00005	f7 d8		 neg	 eax
  00007	1b c0		 sbb	 eax, eax
  00009	40		 inc	 eax

; 890  : 		}

  0000a	c3		 ret	 0
?empty@?$vector@UNewShopPullDownItem@@V?$allocator@UNewShopPullDownItem@@@std@@@std@@QBE_NXZ ENDP ; std::vector<NewShopPullDownItem,std::allocator<NewShopPullDownItem> >::empty
_TEXT	ENDS
PUBLIC	??A?$vector@UNewShopPullDownItem@@V?$allocator@UNewShopPullDownItem@@@std@@@std@@QAEAAUNewShopPullDownItem@@I@Z ; std::vector<NewShopPullDownItem,std::allocator<NewShopPullDownItem> >::operator[]
; Function compile flags: /Ogsp
;	COMDAT ??A?$vector@UNewShopPullDownItem@@V?$allocator@UNewShopPullDownItem@@@std@@@std@@QAEAAUNewShopPullDownItem@@I@Z
_TEXT	SEGMENT
__Pos$ = 8						; size = 4
??A?$vector@UNewShopPullDownItem@@V?$allocator@UNewShopPullDownItem@@@std@@@std@@QAEAAUNewShopPullDownItem@@I@Z PROC ; std::vector<NewShopPullDownItem,std::allocator<NewShopPullDownItem> >::operator[], COMDAT
; _this$ = ecx

; 928  : 		{	// subscript mutable sequence

  00000	55		 push	 ebp
  00001	8b ec		 mov	 ebp, esp

; 929  :  #if _ITERATOR_DEBUG_LEVEL == 2
; 930  : 		if (size() <= _Pos)
; 931  : 			{	// report error
; 932  : 			_DEBUG_ERROR("vector subscript out of range");
; 933  : 			_SCL_SECURE_OUT_OF_RANGE;
; 934  : 			}
; 935  : 
; 936  :  #elif _ITERATOR_DEBUG_LEVEL == 1
; 937  : 		_SCL_SECURE_VALIDATE_RANGE(_Pos < size());
; 938  :  #endif /* _ITERATOR_DEBUG_LEVEL */
; 939  : 
; 940  : 		return (*(this->_Myfirst + _Pos));

  00003	8b 45 08	 mov	 eax, DWORD PTR __Pos$[ebp]
  00006	6b c0 50	 imul	 eax, 80			; 00000050H
  00009	03 01		 add	 eax, DWORD PTR [ecx]

; 941  : 		}

  0000b	5d		 pop	 ebp
  0000c	c2 04 00	 ret	 4
??A?$vector@UNewShopPullDownItem@@V?$allocator@UNewShopPullDownItem@@@std@@@std@@QAEAAUNewShopPullDownItem@@I@Z ENDP ; std::vector<NewShopPullDownItem,std::allocator<NewShopPullDownItem> >::operator[]
_TEXT	ENDS
PUBLIC	?size@?$vector@UPackageItem@@V?$allocator@UPackageItem@@@std@@@std@@QBEIXZ ; std::vector<PackageItem,std::allocator<PackageItem> >::size
; Function compile flags: /Ogsp
;	COMDAT ?size@?$vector@UPackageItem@@V?$allocator@UPackageItem@@@std@@@std@@QBEIXZ
_TEXT	SEGMENT
?size@?$vector@UPackageItem@@V?$allocator@UPackageItem@@@std@@@std@@QBEIXZ PROC ; std::vector<PackageItem,std::allocator<PackageItem> >::size, COMDAT
; _this$ = ecx

; 879  : 		return (this->_Mylast - this->_Myfirst);

  00000	8b 41 04	 mov	 eax, DWORD PTR [ecx+4]
  00003	2b 01		 sub	 eax, DWORD PTR [ecx]
  00005	6a 1c		 push	 28			; 0000001cH
  00007	99		 cdq
  00008	59		 pop	 ecx
  00009	f7 f9		 idiv	 ecx

; 880  : 		}

  0000b	c3		 ret	 0
?size@?$vector@UPackageItem@@V?$allocator@UPackageItem@@@std@@@std@@QBEIXZ ENDP ; std::vector<PackageItem,std::allocator<PackageItem> >::size
_TEXT	ENDS
PUBLIC	?empty@?$vector@UPackageItem@@V?$allocator@UPackageItem@@@std@@@std@@QBE_NXZ ; std::vector<PackageItem,std::allocator<PackageItem> >::empty
; Function compile flags: /Ogsp
;	COMDAT ?empty@?$vector@UPackageItem@@V?$allocator@UPackageItem@@@std@@@std@@QBE_NXZ
_TEXT	SEGMENT
?empty@?$vector@UPackageItem@@V?$allocator@UPackageItem@@@std@@@std@@QBE_NXZ PROC ; std::vector<PackageItem,std::allocator<PackageItem> >::empty, COMDAT
; _this$ = ecx

; 889  : 		return (this->_Myfirst == this->_Mylast);

  00000	8b 01		 mov	 eax, DWORD PTR [ecx]
  00002	2b 41 04	 sub	 eax, DWORD PTR [ecx+4]
  00005	f7 d8		 neg	 eax
  00007	1b c0		 sbb	 eax, eax
  00009	40		 inc	 eax

; 890  : 		}

  0000a	c3		 ret	 0
?empty@?$vector@UPackageItem@@V?$allocator@UPackageItem@@@std@@@std@@QBE_NXZ ENDP ; std::vector<PackageItem,std::allocator<PackageItem> >::empty
_TEXT	ENDS
PUBLIC	??A?$vector@UPackageItem@@V?$allocator@UPackageItem@@@std@@@std@@QAEAAUPackageItem@@I@Z ; std::vector<PackageItem,std::allocator<PackageItem> >::operator[]
; Function compile flags: /Ogsp
;	COMDAT ??A?$vector@UPackageItem@@V?$allocator@UPackageItem@@@std@@@std@@QAEAAUPackageItem@@I@Z
_TEXT	SEGMENT
__Pos$ = 8						; size = 4
??A?$vector@UPackageItem@@V?$allocator@UPackageItem@@@std@@@std@@QAEAAUPackageItem@@I@Z PROC ; std::vector<PackageItem,std::allocator<PackageItem> >::operator[], COMDAT
; _this$ = ecx

; 928  : 		{	// subscript mutable sequence

  00000	55		 push	 ebp
  00001	8b ec		 mov	 ebp, esp

; 929  :  #if _ITERATOR_DEBUG_LEVEL == 2
; 930  : 		if (size() <= _Pos)
; 931  : 			{	// report error
; 932  : 			_DEBUG_ERROR("vector subscript out of range");
; 933  : 			_SCL_SECURE_OUT_OF_RANGE;
; 934  : 			}
; 935  : 
; 936  :  #elif _ITERATOR_DEBUG_LEVEL == 1
; 937  : 		_SCL_SECURE_VALIDATE_RANGE(_Pos < size());
; 938  :  #endif /* _ITERATOR_DEBUG_LEVEL */
; 939  : 
; 940  : 		return (*(this->_Myfirst + _Pos));

  00003	8b 45 08	 mov	 eax, DWORD PTR __Pos$[ebp]
  00006	6b c0 1c	 imul	 eax, 28			; 0000001cH
  00009	03 01		 add	 eax, DWORD PTR [ecx]

; 941  : 		}

  0000b	5d		 pop	 ebp
  0000c	c2 04 00	 ret	 4
??A?$vector@UPackageItem@@V?$allocator@UPackageItem@@@std@@@std@@QAEAAUPackageItem@@I@Z ENDP ; std::vector<PackageItem,std::allocator<PackageItem> >::operator[]
_TEXT	ENDS
PUBLIC	?_Inside@?$vector@HV?$allocator@H@std@@@std@@IBE_NPBH@Z ; std::vector<int,std::allocator<int> >::_Inside
; Function compile flags: /Ogsp
;	COMDAT ?_Inside@?$vector@HV?$allocator@H@std@@@std@@IBE_NPBH@Z
_TEXT	SEGMENT
__Ptr$ = 8						; size = 4
?_Inside@?$vector@HV?$allocator@H@std@@@std@@IBE_NPBH@Z PROC ; std::vector<int,std::allocator<int> >::_Inside, COMDAT
; _this$ = ecx

; 1285 : 		{	// test if _Ptr points inside vector

  00000	55		 push	 ebp
  00001	8b ec		 mov	 ebp, esp

; 1286 : 		return (_Ptr < this->_Mylast && this->_Myfirst <= _Ptr);

  00003	8b 45 08	 mov	 eax, DWORD PTR __Ptr$[ebp]
  00006	3b 41 04	 cmp	 eax, DWORD PTR [ecx+4]
  00009	73 09		 jae	 SHORT $LN3@Inside
  0000b	39 01		 cmp	 DWORD PTR [ecx], eax
  0000d	77 05		 ja	 SHORT $LN3@Inside
  0000f	33 c0		 xor	 eax, eax
  00011	40		 inc	 eax
  00012	eb 02		 jmp	 SHORT $LN4@Inside
$LN3@Inside:
  00014	33 c0		 xor	 eax, eax
$LN4@Inside:

; 1287 : 		}

  00016	5d		 pop	 ebp
  00017	c2 04 00	 ret	 4
?_Inside@?$vector@HV?$allocator@H@std@@@std@@IBE_NPBH@Z ENDP ; std::vector<int,std::allocator<int> >::_Inside
_TEXT	ENDS
PUBLIC	?_Orphan_range@?$vector@HV?$allocator@H@std@@@std@@IBEXPAH0@Z ; std::vector<int,std::allocator<int> >::_Orphan_range
; Function compile flags: /Ogsp
;	COMDAT ?_Orphan_range@?$vector@HV?$allocator@H@std@@@std@@IBEXPAH0@Z
_TEXT	SEGMENT
___formal$ = 8						; size = 4
___formal$ = 12						; size = 4
?_Orphan_range@?$vector@HV?$allocator@H@std@@@std@@IBEXPAH0@Z PROC ; std::vector<int,std::allocator<int> >::_Orphan_range, COMDAT
; _this$ = ecx

; 1454 : 		}

  00000	c2 08 00	 ret	 8
?_Orphan_range@?$vector@HV?$allocator@H@std@@@std@@IBEXPAH0@Z ENDP ; std::vector<int,std::allocator<int> >::_Orphan_range
_TEXT	ENDS
PUBLIC	?_Inside@?$vector@UITEMSLOT@@V?$allocator@UITEMSLOT@@@std@@@std@@IBE_NPBUITEMSLOT@@@Z ; std::vector<ITEMSLOT,std::allocator<ITEMSLOT> >::_Inside
; Function compile flags: /Ogsp
;	COMDAT ?_Inside@?$vector@UITEMSLOT@@V?$allocator@UITEMSLOT@@@std@@@std@@IBE_NPBUITEMSLOT@@@Z
_TEXT	SEGMENT
__Ptr$ = 8						; size = 4
?_Inside@?$vector@UITEMSLOT@@V?$allocator@UITEMSLOT@@@std@@@std@@IBE_NPBUITEMSLOT@@@Z PROC ; std::vector<ITEMSLOT,std::allocator<ITEMSLOT> >::_Inside, COMDAT
; _this$ = ecx

; 1285 : 		{	// test if _Ptr points inside vector

  00000	55		 push	 ebp
  00001	8b ec		 mov	 ebp, esp

; 1286 : 		return (_Ptr < this->_Mylast && this->_Myfirst <= _Ptr);

  00003	8b 45 08	 mov	 eax, DWORD PTR __Ptr$[ebp]
  00006	3b 41 04	 cmp	 eax, DWORD PTR [ecx+4]
  00009	73 09		 jae	 SHORT $LN3@Inside@2
  0000b	39 01		 cmp	 DWORD PTR [ecx], eax
  0000d	77 05		 ja	 SHORT $LN3@Inside@2
  0000f	33 c0		 xor	 eax, eax
  00011	40		 inc	 eax
  00012	eb 02		 jmp	 SHORT $LN4@Inside@2
$LN3@Inside@2:
  00014	33 c0		 xor	 eax, eax
$LN4@Inside@2:

; 1287 : 		}

  00016	5d		 pop	 ebp
  00017	c2 04 00	 ret	 4
?_Inside@?$vector@UITEMSLOT@@V?$allocator@UITEMSLOT@@@std@@@std@@IBE_NPBUITEMSLOT@@@Z ENDP ; std::vector<ITEMSLOT,std::allocator<ITEMSLOT> >::_Inside
_TEXT	ENDS
PUBLIC	?_Orphan_range@?$vector@UITEMSLOT@@V?$allocator@UITEMSLOT@@@std@@@std@@IBEXPAUITEMSLOT@@0@Z ; std::vector<ITEMSLOT,std::allocator<ITEMSLOT> >::_Orphan_range
; Function compile flags: /Ogsp
;	COMDAT ?_Orphan_range@?$vector@UITEMSLOT@@V?$allocator@UITEMSLOT@@@std@@@std@@IBEXPAUITEMSLOT@@0@Z
_TEXT	SEGMENT
___formal$ = 8						; size = 4
___formal$ = 12						; size = 4
?_Orphan_range@?$vector@UITEMSLOT@@V?$allocator@UITEMSLOT@@@std@@@std@@IBEXPAUITEMSLOT@@0@Z PROC ; std::vector<ITEMSLOT,std::allocator<ITEMSLOT> >::_Orphan_range, COMDAT
; _this$ = ecx

; 1454 : 		}

  00000	c2 08 00	 ret	 8
?_Orphan_range@?$vector@UITEMSLOT@@V?$allocator@UITEMSLOT@@@std@@@std@@IBEXPAUITEMSLOT@@0@Z ENDP ; std::vector<ITEMSLOT,std::allocator<ITEMSLOT> >::_Orphan_range
_TEXT	ENDS
PUBLIC	??1?$_Vector_val@UITEMSLOT@@V?$allocator@UITEMSLOT@@@std@@@std@@QAE@XZ ; std::_Vector_val<ITEMSLOT,std::allocator<ITEMSLOT> >::~_Vector_val<ITEMSLOT,std::allocator<ITEMSLOT> >
; Function compile flags: /Ogsp
;	COMDAT ??1?$_Vector_val@UITEMSLOT@@V?$allocator@UITEMSLOT@@@std@@@std@@QAE@XZ
_TEXT	SEGMENT
??1?$_Vector_val@UITEMSLOT@@V?$allocator@UITEMSLOT@@@std@@@std@@QAE@XZ PROC ; std::_Vector_val<ITEMSLOT,std::allocator<ITEMSLOT> >::~_Vector_val<ITEMSLOT,std::allocator<ITEMSLOT> >, COMDAT
; _this$ = ecx

; 434  : 		}

  00000	c3		 ret	 0
??1?$_Vector_val@UITEMSLOT@@V?$allocator@UITEMSLOT@@@std@@@std@@QAE@XZ ENDP ; std::_Vector_val<ITEMSLOT,std::allocator<ITEMSLOT> >::~_Vector_val<ITEMSLOT,std::allocator<ITEMSLOT> >
_TEXT	ENDS
PUBLIC	??0?$allocator@UITEMSLOT@@@std@@QAE@XZ		; std::allocator<ITEMSLOT>::allocator<ITEMSLOT>
; Function compile flags: /Ogsp
; File c:\program files (x86)\microsoft visual studio 10.0\vc\include\xmemory
;	COMDAT ??0?$allocator@UITEMSLOT@@@std@@QAE@XZ
_TEXT	SEGMENT
??0?$allocator@UITEMSLOT@@@std@@QAE@XZ PROC		; std::allocator<ITEMSLOT>::allocator<ITEMSLOT>, COMDAT
; _this$ = ecx

; 161  : 	_ALLOCATOR() _THROW0()

  00000	8b c1		 mov	 eax, ecx

; 162  : 		{	// construct default allocator (do nothing)
; 163  : 		}

  00002	c3		 ret	 0
??0?$allocator@UITEMSLOT@@@std@@QAE@XZ ENDP		; std::allocator<ITEMSLOT>::allocator<ITEMSLOT>
_TEXT	ENDS
PUBLIC	?_Inside@?$vector@UNewShopPullDownItem@@V?$allocator@UNewShopPullDownItem@@@std@@@std@@IBE_NPBUNewShopPullDownItem@@@Z ; std::vector<NewShopPullDownItem,std::allocator<NewShopPullDownItem> >::_Inside
; Function compile flags: /Ogsp
; File c:\program files (x86)\microsoft visual studio 10.0\vc\include\vector
;	COMDAT ?_Inside@?$vector@UNewShopPullDownItem@@V?$allocator@UNewShopPullDownItem@@@std@@@std@@IBE_NPBUNewShopPullDownItem@@@Z
_TEXT	SEGMENT
__Ptr$ = 8						; size = 4
?_Inside@?$vector@UNewShopPullDownItem@@V?$allocator@UNewShopPullDownItem@@@std@@@std@@IBE_NPBUNewShopPullDownItem@@@Z PROC ; std::vector<NewShopPullDownItem,std::allocator<NewShopPullDownItem> >::_Inside, COMDAT
; _this$ = ecx

; 1285 : 		{	// test if _Ptr points inside vector

  00000	55		 push	 ebp
  00001	8b ec		 mov	 ebp, esp

; 1286 : 		return (_Ptr < this->_Mylast && this->_Myfirst <= _Ptr);

  00003	8b 45 08	 mov	 eax, DWORD PTR __Ptr$[ebp]
  00006	3b 41 04	 cmp	 eax, DWORD PTR [ecx+4]
  00009	73 09		 jae	 SHORT $LN3@Inside@3
  0000b	39 01		 cmp	 DWORD PTR [ecx], eax
  0000d	77 05		 ja	 SHORT $LN3@Inside@3
  0000f	33 c0		 xor	 eax, eax
  00011	40		 inc	 eax
  00012	eb 02		 jmp	 SHORT $LN4@Inside@3
$LN3@Inside@3:
  00014	33 c0		 xor	 eax, eax
$LN4@Inside@3:

; 1287 : 		}

  00016	5d		 pop	 ebp
  00017	c2 04 00	 ret	 4
?_Inside@?$vector@UNewShopPullDownItem@@V?$allocator@UNewShopPullDownItem@@@std@@@std@@IBE_NPBUNewShopPullDownItem@@@Z ENDP ; std::vector<NewShopPullDownItem,std::allocator<NewShopPullDownItem> >::_Inside
_TEXT	ENDS
PUBLIC	?_Orphan_range@?$vector@UNewShopPullDownItem@@V?$allocator@UNewShopPullDownItem@@@std@@@std@@IBEXPAUNewShopPullDownItem@@0@Z ; std::vector<NewShopPullDownItem,std::allocator<NewShopPullDownItem> >::_Orphan_range
; Function compile flags: /Ogsp
;	COMDAT ?_Orphan_range@?$vector@UNewShopPullDownItem@@V?$allocator@UNewShopPullDownItem@@@std@@@std@@IBEXPAUNewShopPullDownItem@@0@Z
_TEXT	SEGMENT
___formal$ = 8						; size = 4
___formal$ = 12						; size = 4
?_Orphan_range@?$vector@UNewShopPullDownItem@@V?$allocator@UNewShopPullDownItem@@@std@@@std@@IBEXPAUNewShopPullDownItem@@0@Z PROC ; std::vector<NewShopPullDownItem,std::allocator<NewShopPullDownItem> >::_Orphan_range, COMDAT
; _this$ = ecx

; 1454 : 		}

  00000	c2 08 00	 ret	 8
?_Orphan_range@?$vector@UNewShopPullDownItem@@V?$allocator@UNewShopPullDownItem@@@std@@@std@@IBEXPAUNewShopPullDownItem@@0@Z ENDP ; std::vector<NewShopPullDownItem,std::allocator<NewShopPullDownItem> >::_Orphan_range
_TEXT	ENDS
PUBLIC	??1?$_Vector_val@UNewShopPullDownItem@@V?$allocator@UNewShopPullDownItem@@@std@@@std@@QAE@XZ ; std::_Vector_val<NewShopPullDownItem,std::allocator<NewShopPullDownItem> >::~_Vector_val<NewShopPullDownItem,std::allocator<NewShopPullDownItem> >
; Function compile flags: /Ogsp
;	COMDAT ??1?$_Vector_val@UNewShopPullDownItem@@V?$allocator@UNewShopPullDownItem@@@std@@@std@@QAE@XZ
_TEXT	SEGMENT
??1?$_Vector_val@UNewShopPullDownItem@@V?$allocator@UNewShopPullDownItem@@@std@@@std@@QAE@XZ PROC ; std::_Vector_val<NewShopPullDownItem,std::allocator<NewShopPullDownItem> >::~_Vector_val<NewShopPullDownItem,std::allocator<NewShopPullDownItem> >, COMDAT
; _this$ = ecx

; 434  : 		}

  00000	c3		 ret	 0
??1?$_Vector_val@UNewShopPullDownItem@@V?$allocator@UNewShopPullDownItem@@@std@@@std@@QAE@XZ ENDP ; std::_Vector_val<NewShopPullDownItem,std::allocator<NewShopPullDownItem> >::~_Vector_val<NewShopPullDownItem,std::allocator<NewShopPullDownItem> >
_TEXT	ENDS
PUBLIC	??0?$allocator@UNewShopPullDownItem@@@std@@QAE@XZ ; std::allocator<NewShopPullDownItem>::allocator<NewShopPullDownItem>
; Function compile flags: /Ogsp
; File c:\program files (x86)\microsoft visual studio 10.0\vc\include\xmemory
;	COMDAT ??0?$allocator@UNewShopPullDownItem@@@std@@QAE@XZ
_TEXT	SEGMENT
??0?$allocator@UNewShopPullDownItem@@@std@@QAE@XZ PROC	; std::allocator<NewShopPullDownItem>::allocator<NewShopPullDownItem>, COMDAT
; _this$ = ecx

; 161  : 	_ALLOCATOR() _THROW0()

  00000	8b c1		 mov	 eax, ecx

; 162  : 		{	// construct default allocator (do nothing)
; 163  : 		}

  00002	c3		 ret	 0
??0?$allocator@UNewShopPullDownItem@@@std@@QAE@XZ ENDP	; std::allocator<NewShopPullDownItem>::allocator<NewShopPullDownItem>
_TEXT	ENDS
PUBLIC	?_Inside@?$vector@UPackageItem@@V?$allocator@UPackageItem@@@std@@@std@@IBE_NPBUPackageItem@@@Z ; std::vector<PackageItem,std::allocator<PackageItem> >::_Inside
; Function compile flags: /Ogsp
; File c:\program files (x86)\microsoft visual studio 10.0\vc\include\vector
;	COMDAT ?_Inside@?$vector@UPackageItem@@V?$allocator@UPackageItem@@@std@@@std@@IBE_NPBUPackageItem@@@Z
_TEXT	SEGMENT
__Ptr$ = 8						; size = 4
?_Inside@?$vector@UPackageItem@@V?$allocator@UPackageItem@@@std@@@std@@IBE_NPBUPackageItem@@@Z PROC ; std::vector<PackageItem,std::allocator<PackageItem> >::_Inside, COMDAT
; _this$ = ecx

; 1285 : 		{	// test if _Ptr points inside vector

  00000	55		 push	 ebp
  00001	8b ec		 mov	 ebp, esp

; 1286 : 		return (_Ptr < this->_Mylast && this->_Myfirst <= _Ptr);

  00003	8b 45 08	 mov	 eax, DWORD PTR __Ptr$[ebp]
  00006	3b 41 04	 cmp	 eax, DWORD PTR [ecx+4]
  00009	73 09		 jae	 SHORT $LN3@Inside@4
  0000b	39 01		 cmp	 DWORD PTR [ecx], eax
  0000d	77 05		 ja	 SHORT $LN3@Inside@4
  0000f	33 c0		 xor	 eax, eax
  00011	40		 inc	 eax
  00012	eb 02		 jmp	 SHORT $LN4@Inside@4
$LN3@Inside@4:
  00014	33 c0		 xor	 eax, eax
$LN4@Inside@4:

; 1287 : 		}

  00016	5d		 pop	 ebp
  00017	c2 04 00	 ret	 4
?_Inside@?$vector@UPackageItem@@V?$allocator@UPackageItem@@@std@@@std@@IBE_NPBUPackageItem@@@Z ENDP ; std::vector<PackageItem,std::allocator<PackageItem> >::_Inside
_TEXT	ENDS
PUBLIC	?_Orphan_range@?$vector@UPackageItem@@V?$allocator@UPackageItem@@@std@@@std@@IBEXPAUPackageItem@@0@Z ; std::vector<PackageItem,std::allocator<PackageItem> >::_Orphan_range
; Function compile flags: /Ogsp
;	COMDAT ?_Orphan_range@?$vector@UPackageItem@@V?$allocator@UPackageItem@@@std@@@std@@IBEXPAUPackageItem@@0@Z
_TEXT	SEGMENT
___formal$ = 8						; size = 4
___formal$ = 12						; size = 4
?_Orphan_range@?$vector@UPackageItem@@V?$allocator@UPackageItem@@@std@@@std@@IBEXPAUPackageItem@@0@Z PROC ; std::vector<PackageItem,std::allocator<PackageItem> >::_Orphan_range, COMDAT
; _this$ = ecx

; 1454 : 		}

  00000	c2 08 00	 ret	 8
?_Orphan_range@?$vector@UPackageItem@@V?$allocator@UPackageItem@@@std@@@std@@IBEXPAUPackageItem@@0@Z ENDP ; std::vector<PackageItem,std::allocator<PackageItem> >::_Orphan_range
_TEXT	ENDS
PUBLIC	??1?$_Vector_val@UPackageItem@@V?$allocator@UPackageItem@@@std@@@std@@QAE@XZ ; std::_Vector_val<PackageItem,std::allocator<PackageItem> >::~_Vector_val<PackageItem,std::allocator<PackageItem> >
; Function compile flags: /Ogsp
;	COMDAT ??1?$_Vector_val@UPackageItem@@V?$allocator@UPackageItem@@@std@@@std@@QAE@XZ
_TEXT	SEGMENT
??1?$_Vector_val@UPackageItem@@V?$allocator@UPackageItem@@@std@@@std@@QAE@XZ PROC ; std::_Vector_val<PackageItem,std::allocator<PackageItem> >::~_Vector_val<PackageItem,std::allocator<PackageItem> >, COMDAT
; _this$ = ecx

; 434  : 		}

  00000	c3		 ret	 0
??1?$_Vector_val@UPackageItem@@V?$allocator@UPackageItem@@@std@@@std@@QAE@XZ ENDP ; std::_Vector_val<PackageItem,std::allocator<PackageItem> >::~_Vector_val<PackageItem,std::allocator<PackageItem> >
_TEXT	ENDS
PUBLIC	??0?$allocator@UPackageItem@@@std@@QAE@XZ	; std::allocator<PackageItem>::allocator<PackageItem>
; Function compile flags: /Ogsp
; File c:\program files (x86)\microsoft visual studio 10.0\vc\include\xmemory
;	COMDAT ??0?$allocator@UPackageItem@@@std@@QAE@XZ
_TEXT	SEGMENT
??0?$allocator@UPackageItem@@@std@@QAE@XZ PROC		; std::allocator<PackageItem>::allocator<PackageItem>, COMDAT
; _this$ = ecx

; 161  : 	_ALLOCATOR() _THROW0()

  00000	8b c1		 mov	 eax, ecx

; 162  : 		{	// construct default allocator (do nothing)
; 163  : 		}

  00002	c3		 ret	 0
??0?$allocator@UPackageItem@@@std@@QAE@XZ ENDP		; std::allocator<PackageItem>::allocator<PackageItem>
_TEXT	ENDS
PUBLIC	?capacity@?$vector@UITEMSLOT@@V?$allocator@UITEMSLOT@@@std@@@std@@QBEIXZ ; std::vector<ITEMSLOT,std::allocator<ITEMSLOT> >::capacity
; Function compile flags: /Ogsp
; File c:\program files (x86)\microsoft visual studio 10.0\vc\include\vector
;	COMDAT ?capacity@?$vector@UITEMSLOT@@V?$allocator@UITEMSLOT@@@std@@@std@@QBEIXZ
_TEXT	SEGMENT
?capacity@?$vector@UITEMSLOT@@V?$allocator@UITEMSLOT@@@std@@@std@@QBEIXZ PROC ; std::vector<ITEMSLOT,std::allocator<ITEMSLOT> >::capacity, COMDAT
; _this$ = ecx

; 777  : 		return (this->_Myend - this->_Myfirst);

  00000	8b 41 08	 mov	 eax, DWORD PTR [ecx+8]
  00003	2b 01		 sub	 eax, DWORD PTR [ecx]
  00005	6a 0c		 push	 12			; 0000000cH
  00007	99		 cdq
  00008	59		 pop	 ecx
  00009	f7 f9		 idiv	 ecx

; 778  : 		}

  0000b	c3		 ret	 0
?capacity@?$vector@UITEMSLOT@@V?$allocator@UITEMSLOT@@@std@@@std@@QBEIXZ ENDP ; std::vector<ITEMSLOT,std::allocator<ITEMSLOT> >::capacity
_TEXT	ENDS
PUBLIC	??_C@_0BD@OLBABOEK@vector?$DMT?$DO?5too?5long?$AA@ ; `string'
PUBLIC	?_Xlen@?$vector@UITEMSLOT@@V?$allocator@UITEMSLOT@@@std@@@std@@IBEXXZ ; std::vector<ITEMSLOT,std::allocator<ITEMSLOT> >::_Xlen
EXTRN	__imp_?_Xlength_error@std@@YAXPBD@Z:PROC
;	COMDAT ??_C@_0BD@OLBABOEK@vector?$DMT?$DO?5too?5long?$AA@
CONST	SEGMENT
??_C@_0BD@OLBABOEK@vector?$DMT?$DO?5too?5long?$AA@ DB 'vector<T> too long'
	DB	00H						; `string'
; Function compile flags: /Ogsp
CONST	ENDS
;	COMDAT ?_Xlen@?$vector@UITEMSLOT@@V?$allocator@UITEMSLOT@@@std@@@std@@IBEXXZ
_TEXT	SEGMENT
?_Xlen@?$vector@UITEMSLOT@@V?$allocator@UITEMSLOT@@@std@@@std@@IBEXXZ PROC ; std::vector<ITEMSLOT,std::allocator<ITEMSLOT> >::_Xlen, COMDAT
; _this$ = ecx

; 1427 : 		_Xlength_error("vector<T> too long");

  00000	68 00 00 00 00	 push	 OFFSET ??_C@_0BD@OLBABOEK@vector?$DMT?$DO?5too?5long?$AA@
  00005	ff 15 00 00 00
	00		 call	 DWORD PTR __imp_?_Xlength_error@std@@YAXPBD@Z
$LN4@Xlen:
$LN3@Xlen:
  0000b	cc		 int	 3
?_Xlen@?$vector@UITEMSLOT@@V?$allocator@UITEMSLOT@@@std@@@std@@IBEXXZ ENDP ; std::vector<ITEMSLOT,std::allocator<ITEMSLOT> >::_Xlen
_TEXT	ENDS
PUBLIC	??0?$allocator@UITEMSLOT@@@std@@QAE@ABV01@@Z	; std::allocator<ITEMSLOT>::allocator<ITEMSLOT>
; Function compile flags: /Ogsp
; File c:\program files (x86)\microsoft visual studio 10.0\vc\include\xmemory
;	COMDAT ??0?$allocator@UITEMSLOT@@@std@@QAE@ABV01@@Z
_TEXT	SEGMENT
___formal$ = 8						; size = 4
??0?$allocator@UITEMSLOT@@@std@@QAE@ABV01@@Z PROC	; std::allocator<ITEMSLOT>::allocator<ITEMSLOT>, COMDAT
; _this$ = ecx

; 165  : 	_ALLOCATOR(const _ALLOCATOR<_Ty>&) _THROW0()

  00000	8b c1		 mov	 eax, ecx

; 166  : 		{	// construct by copying (do nothing)
; 167  : 		}

  00002	c2 04 00	 ret	 4
??0?$allocator@UITEMSLOT@@@std@@QAE@ABV01@@Z ENDP	; std::allocator<ITEMSLOT>::allocator<ITEMSLOT>
_TEXT	ENDS
PUBLIC	?deallocate@?$allocator@UITEMSLOT@@@std@@QAEXPAUITEMSLOT@@I@Z ; std::allocator<ITEMSLOT>::deallocate
; Function compile flags: /Ogsp
;	COMDAT ?deallocate@?$allocator@UITEMSLOT@@@std@@QAEXPAUITEMSLOT@@I@Z
_TEXT	SEGMENT
__Ptr$ = 8						; size = 4
___formal$ = 12						; size = 4
?deallocate@?$allocator@UITEMSLOT@@@std@@QAEXPAUITEMSLOT@@I@Z PROC ; std::allocator<ITEMSLOT>::deallocate, COMDAT
; _this$ = ecx

; 181  : 		{	// deallocate object at _Ptr, ignore size

  00000	55		 push	 ebp
  00001	8b ec		 mov	 ebp, esp

; 182  : 		::operator delete(_Ptr);

  00003	ff 75 08	 push	 DWORD PTR __Ptr$[ebp]
  00006	e8 00 00 00 00	 call	 ??3@YAXPAX@Z		; operator delete
  0000b	59		 pop	 ecx

; 183  : 		}

  0000c	5d		 pop	 ebp
  0000d	c2 08 00	 ret	 8
?deallocate@?$allocator@UITEMSLOT@@@std@@QAEXPAUITEMSLOT@@I@Z ENDP ; std::allocator<ITEMSLOT>::deallocate
_TEXT	ENDS
PUBLIC	?capacity@?$vector@UNewShopPullDownItem@@V?$allocator@UNewShopPullDownItem@@@std@@@std@@QBEIXZ ; std::vector<NewShopPullDownItem,std::allocator<NewShopPullDownItem> >::capacity
; Function compile flags: /Ogsp
; File c:\program files (x86)\microsoft visual studio 10.0\vc\include\vector
;	COMDAT ?capacity@?$vector@UNewShopPullDownItem@@V?$allocator@UNewShopPullDownItem@@@std@@@std@@QBEIXZ
_TEXT	SEGMENT
?capacity@?$vector@UNewShopPullDownItem@@V?$allocator@UNewShopPullDownItem@@@std@@@std@@QBEIXZ PROC ; std::vector<NewShopPullDownItem,std::allocator<NewShopPullDownItem> >::capacity, COMDAT
; _this$ = ecx

; 777  : 		return (this->_Myend - this->_Myfirst);

  00000	8b 41 08	 mov	 eax, DWORD PTR [ecx+8]
  00003	2b 01		 sub	 eax, DWORD PTR [ecx]
  00005	6a 50		 push	 80			; 00000050H
  00007	99		 cdq
  00008	59		 pop	 ecx
  00009	f7 f9		 idiv	 ecx

; 778  : 		}

  0000b	c3		 ret	 0
?capacity@?$vector@UNewShopPullDownItem@@V?$allocator@UNewShopPullDownItem@@@std@@@std@@QBEIXZ ENDP ; std::vector<NewShopPullDownItem,std::allocator<NewShopPullDownItem> >::capacity
_TEXT	ENDS
PUBLIC	?_Xlen@?$vector@UNewShopPullDownItem@@V?$allocator@UNewShopPullDownItem@@@std@@@std@@IBEXXZ ; std::vector<NewShopPullDownItem,std::allocator<NewShopPullDownItem> >::_Xlen
; Function compile flags: /Ogsp
;	COMDAT ?_Xlen@?$vector@UNewShopPullDownItem@@V?$allocator@UNewShopPullDownItem@@@std@@@std@@IBEXXZ
_TEXT	SEGMENT
?_Xlen@?$vector@UNewShopPullDownItem@@V?$allocator@UNewShopPullDownItem@@@std@@@std@@IBEXXZ PROC ; std::vector<NewShopPullDownItem,std::allocator<NewShopPullDownItem> >::_Xlen, COMDAT
; _this$ = ecx

; 1427 : 		_Xlength_error("vector<T> too long");

  00000	68 00 00 00 00	 push	 OFFSET ??_C@_0BD@OLBABOEK@vector?$DMT?$DO?5too?5long?$AA@
  00005	ff 15 00 00 00
	00		 call	 DWORD PTR __imp_?_Xlength_error@std@@YAXPBD@Z
$LN4@Xlen@2:
$LN3@Xlen@2:
  0000b	cc		 int	 3
?_Xlen@?$vector@UNewShopPullDownItem@@V?$allocator@UNewShopPullDownItem@@@std@@@std@@IBEXXZ ENDP ; std::vector<NewShopPullDownItem,std::allocator<NewShopPullDownItem> >::_Xlen
_TEXT	ENDS
PUBLIC	??0?$allocator@UNewShopPullDownItem@@@std@@QAE@ABV01@@Z ; std::allocator<NewShopPullDownItem>::allocator<NewShopPullDownItem>
; Function compile flags: /Ogsp
; File c:\program files (x86)\microsoft visual studio 10.0\vc\include\xmemory
;	COMDAT ??0?$allocator@UNewShopPullDownItem@@@std@@QAE@ABV01@@Z
_TEXT	SEGMENT
___formal$ = 8						; size = 4
??0?$allocator@UNewShopPullDownItem@@@std@@QAE@ABV01@@Z PROC ; std::allocator<NewShopPullDownItem>::allocator<NewShopPullDownItem>, COMDAT
; _this$ = ecx

; 165  : 	_ALLOCATOR(const _ALLOCATOR<_Ty>&) _THROW0()

  00000	8b c1		 mov	 eax, ecx

; 166  : 		{	// construct by copying (do nothing)
; 167  : 		}

  00002	c2 04 00	 ret	 4
??0?$allocator@UNewShopPullDownItem@@@std@@QAE@ABV01@@Z ENDP ; std::allocator<NewShopPullDownItem>::allocator<NewShopPullDownItem>
_TEXT	ENDS
PUBLIC	?deallocate@?$allocator@UNewShopPullDownItem@@@std@@QAEXPAUNewShopPullDownItem@@I@Z ; std::allocator<NewShopPullDownItem>::deallocate
; Function compile flags: /Ogsp
;	COMDAT ?deallocate@?$allocator@UNewShopPullDownItem@@@std@@QAEXPAUNewShopPullDownItem@@I@Z
_TEXT	SEGMENT
__Ptr$ = 8						; size = 4
___formal$ = 12						; size = 4
?deallocate@?$allocator@UNewShopPullDownItem@@@std@@QAEXPAUNewShopPullDownItem@@I@Z PROC ; std::allocator<NewShopPullDownItem>::deallocate, COMDAT
; _this$ = ecx

; 181  : 		{	// deallocate object at _Ptr, ignore size

  00000	55		 push	 ebp
  00001	8b ec		 mov	 ebp, esp

; 182  : 		::operator delete(_Ptr);

  00003	ff 75 08	 push	 DWORD PTR __Ptr$[ebp]
  00006	e8 00 00 00 00	 call	 ??3@YAXPAX@Z		; operator delete
  0000b	59		 pop	 ecx

; 183  : 		}

  0000c	5d		 pop	 ebp
  0000d	c2 08 00	 ret	 8
?deallocate@?$allocator@UNewShopPullDownItem@@@std@@QAEXPAUNewShopPullDownItem@@I@Z ENDP ; std::allocator<NewShopPullDownItem>::deallocate
_TEXT	ENDS
PUBLIC	?capacity@?$vector@UPackageItem@@V?$allocator@UPackageItem@@@std@@@std@@QBEIXZ ; std::vector<PackageItem,std::allocator<PackageItem> >::capacity
; Function compile flags: /Ogsp
; File c:\program files (x86)\microsoft visual studio 10.0\vc\include\vector
;	COMDAT ?capacity@?$vector@UPackageItem@@V?$allocator@UPackageItem@@@std@@@std@@QBEIXZ
_TEXT	SEGMENT
?capacity@?$vector@UPackageItem@@V?$allocator@UPackageItem@@@std@@@std@@QBEIXZ PROC ; std::vector<PackageItem,std::allocator<PackageItem> >::capacity, COMDAT
; _this$ = ecx

; 777  : 		return (this->_Myend - this->_Myfirst);

  00000	8b 41 08	 mov	 eax, DWORD PTR [ecx+8]
  00003	2b 01		 sub	 eax, DWORD PTR [ecx]
  00005	6a 1c		 push	 28			; 0000001cH
  00007	99		 cdq
  00008	59		 pop	 ecx
  00009	f7 f9		 idiv	 ecx

; 778  : 		}

  0000b	c3		 ret	 0
?capacity@?$vector@UPackageItem@@V?$allocator@UPackageItem@@@std@@@std@@QBEIXZ ENDP ; std::vector<PackageItem,std::allocator<PackageItem> >::capacity
_TEXT	ENDS
PUBLIC	?_Xlen@?$vector@UPackageItem@@V?$allocator@UPackageItem@@@std@@@std@@IBEXXZ ; std::vector<PackageItem,std::allocator<PackageItem> >::_Xlen
; Function compile flags: /Ogsp
;	COMDAT ?_Xlen@?$vector@UPackageItem@@V?$allocator@UPackageItem@@@std@@@std@@IBEXXZ
_TEXT	SEGMENT
?_Xlen@?$vector@UPackageItem@@V?$allocator@UPackageItem@@@std@@@std@@IBEXXZ PROC ; std::vector<PackageItem,std::allocator<PackageItem> >::_Xlen, COMDAT
; _this$ = ecx

; 1427 : 		_Xlength_error("vector<T> too long");

  00000	68 00 00 00 00	 push	 OFFSET ??_C@_0BD@OLBABOEK@vector?$DMT?$DO?5too?5long?$AA@
  00005	ff 15 00 00 00
	00		 call	 DWORD PTR __imp_?_Xlength_error@std@@YAXPBD@Z
$LN4@Xlen@3:
$LN3@Xlen@3:
  0000b	cc		 int	 3
?_Xlen@?$vector@UPackageItem@@V?$allocator@UPackageItem@@@std@@@std@@IBEXXZ ENDP ; std::vector<PackageItem,std::allocator<PackageItem> >::_Xlen
_TEXT	ENDS
PUBLIC	??0?$allocator@UPackageItem@@@std@@QAE@ABV01@@Z	; std::allocator<PackageItem>::allocator<PackageItem>
; Function compile flags: /Ogsp
; File c:\program files (x86)\microsoft visual studio 10.0\vc\include\xmemory
;	COMDAT ??0?$allocator@UPackageItem@@@std@@QAE@ABV01@@Z
_TEXT	SEGMENT
___formal$ = 8						; size = 4
??0?$allocator@UPackageItem@@@std@@QAE@ABV01@@Z PROC	; std::allocator<PackageItem>::allocator<PackageItem>, COMDAT
; _this$ = ecx

; 165  : 	_ALLOCATOR(const _ALLOCATOR<_Ty>&) _THROW0()

  00000	8b c1		 mov	 eax, ecx

; 166  : 		{	// construct by copying (do nothing)
; 167  : 		}

  00002	c2 04 00	 ret	 4
??0?$allocator@UPackageItem@@@std@@QAE@ABV01@@Z ENDP	; std::allocator<PackageItem>::allocator<PackageItem>
_TEXT	ENDS
PUBLIC	?deallocate@?$allocator@UPackageItem@@@std@@QAEXPAUPackageItem@@I@Z ; std::allocator<PackageItem>::deallocate
; Function compile flags: /Ogsp
;	COMDAT ?deallocate@?$allocator@UPackageItem@@@std@@QAEXPAUPackageItem@@I@Z
_TEXT	SEGMENT
__Ptr$ = 8						; size = 4
___formal$ = 12						; size = 4
?deallocate@?$allocator@UPackageItem@@@std@@QAEXPAUPackageItem@@I@Z PROC ; std::allocator<PackageItem>::deallocate, COMDAT
; _this$ = ecx

; 181  : 		{	// deallocate object at _Ptr, ignore size

  00000	55		 push	 ebp
  00001	8b ec		 mov	 ebp, esp

; 182  : 		::operator delete(_Ptr);

  00003	ff 75 08	 push	 DWORD PTR __Ptr$[ebp]
  00006	e8 00 00 00 00	 call	 ??3@YAXPAX@Z		; operator delete
  0000b	59		 pop	 ecx

; 183  : 		}

  0000c	5d		 pop	 ebp
  0000d	c2 08 00	 ret	 8
?deallocate@?$allocator@UPackageItem@@@std@@QAEXPAUPackageItem@@I@Z ENDP ; std::allocator<PackageItem>::deallocate
_TEXT	ENDS
PUBLIC	??0?$_Vector_const_iterator@V?$_Vector_val@UPackageItem@@V?$allocator@UPackageItem@@@std@@@std@@@std@@QAE@PAUPackageItem@@PBU_Container_base0@1@@Z ; std::_Vector_const_iterator<std::_Vector_val<PackageItem,std::allocator<PackageItem> > >::_Vector_const_iterator<std::_Vector_val<PackageItem,std::allocator<PackageItem> > >
; Function compile flags: /Ogsp
; File c:\program files (x86)\microsoft visual studio 10.0\vc\include\vector
;	COMDAT ??0?$_Vector_const_iterator@V?$_Vector_val@UPackageItem@@V?$allocator@UPackageItem@@@std@@@std@@@std@@QAE@PAUPackageItem@@PBU_Container_base0@1@@Z
_TEXT	SEGMENT
__Parg$ = 8						; size = 4
__Pvector$ = 12						; size = 4
??0?$_Vector_const_iterator@V?$_Vector_val@UPackageItem@@V?$allocator@UPackageItem@@@std@@@std@@@std@@QAE@PAUPackageItem@@PBU_Container_base0@1@@Z PROC ; std::_Vector_const_iterator<std::_Vector_val<PackageItem,std::allocator<PackageItem> > >::_Vector_const_iterator<std::_Vector_val<PackageItem,std::allocator<PackageItem> > >, COMDAT
; _this$ = ecx

; 45   : 		{	// construct with pointer _Parg

  00000	55		 push	 ebp
  00001	8b ec		 mov	 ebp, esp
  00003	8b c1		 mov	 eax, ecx
  00005	8b 4d 08	 mov	 ecx, DWORD PTR __Parg$[ebp]
  00008	89 08		 mov	 DWORD PTR [eax], ecx

; 46   : 		this->_Adopt(_Pvector);
; 47   : 		}

  0000a	5d		 pop	 ebp
  0000b	c2 08 00	 ret	 8
??0?$_Vector_const_iterator@V?$_Vector_val@UPackageItem@@V?$allocator@UPackageItem@@@std@@@std@@@std@@QAE@PAUPackageItem@@PBU_Container_base0@1@@Z ENDP ; std::_Vector_const_iterator<std::_Vector_val<PackageItem,std::allocator<PackageItem> > >::_Vector_const_iterator<std::_Vector_val<PackageItem,std::allocator<PackageItem> > >
_TEXT	ENDS
PUBLIC	?max_size@?$allocator@UITEMSLOT@@@std@@QBEIXZ	; std::allocator<ITEMSLOT>::max_size
; Function compile flags: /Ogsp
; File c:\program files (x86)\microsoft visual studio 10.0\vc\include\xmemory
;	COMDAT ?max_size@?$allocator@UITEMSLOT@@@std@@QBEIXZ
_TEXT	SEGMENT
?max_size@?$allocator@UITEMSLOT@@@std@@QBEIXZ PROC	; std::allocator<ITEMSLOT>::max_size, COMDAT
; _this$ = ecx

; 218  : 		_SIZT _Count = (_SIZT)(-1) / sizeof (_Ty);
; 219  : 		return (0 < _Count ? _Count : 1);

  00000	b8 55 55 55 15	 mov	 eax, 357913941		; 15555555H

; 220  : 		}

  00005	c3		 ret	 0
?max_size@?$allocator@UITEMSLOT@@@std@@QBEIXZ ENDP	; std::allocator<ITEMSLOT>::max_size
_TEXT	ENDS
PUBLIC	?max_size@?$allocator@UNewShopPullDownItem@@@std@@QBEIXZ ; std::allocator<NewShopPullDownItem>::max_size
; Function compile flags: /Ogsp
;	COMDAT ?max_size@?$allocator@UNewShopPullDownItem@@@std@@QBEIXZ
_TEXT	SEGMENT
?max_size@?$allocator@UNewShopPullDownItem@@@std@@QBEIXZ PROC ; std::allocator<NewShopPullDownItem>::max_size, COMDAT
; _this$ = ecx

; 218  : 		_SIZT _Count = (_SIZT)(-1) / sizeof (_Ty);
; 219  : 		return (0 < _Count ? _Count : 1);

  00000	b8 33 33 33 03	 mov	 eax, 53687091		; 03333333H

; 220  : 		}

  00005	c3		 ret	 0
?max_size@?$allocator@UNewShopPullDownItem@@@std@@QBEIXZ ENDP ; std::allocator<NewShopPullDownItem>::max_size
_TEXT	ENDS
PUBLIC	?max_size@?$allocator@UPackageItem@@@std@@QBEIXZ ; std::allocator<PackageItem>::max_size
; Function compile flags: /Ogsp
;	COMDAT ?max_size@?$allocator@UPackageItem@@@std@@QBEIXZ
_TEXT	SEGMENT
?max_size@?$allocator@UPackageItem@@@std@@QBEIXZ PROC	; std::allocator<PackageItem>::max_size, COMDAT
; _this$ = ecx

; 218  : 		_SIZT _Count = (_SIZT)(-1) / sizeof (_Ty);
; 219  : 		return (0 < _Count ? _Count : 1);

  00000	b8 49 92 24 09	 mov	 eax, 153391689		; 09249249H

; 220  : 		}

  00005	c3		 ret	 0
?max_size@?$allocator@UPackageItem@@@std@@QBEIXZ ENDP	; std::allocator<PackageItem>::max_size
_TEXT	ENDS
PUBLIC	??0?$_Vector_const_iterator@V?$_Vector_val@UITEMSLOT@@V?$allocator@UITEMSLOT@@@std@@@std@@@std@@QAE@PAUITEMSLOT@@PBU_Container_base0@1@@Z ; std::_Vector_const_iterator<std::_Vector_val<ITEMSLOT,std::allocator<ITEMSLOT> > >::_Vector_const_iterator<std::_Vector_val<ITEMSLOT,std::allocator<ITEMSLOT> > >
; Function compile flags: /Ogsp
; File c:\program files (x86)\microsoft visual studio 10.0\vc\include\vector
;	COMDAT ??0?$_Vector_const_iterator@V?$_Vector_val@UITEMSLOT@@V?$allocator@UITEMSLOT@@@std@@@std@@@std@@QAE@PAUITEMSLOT@@PBU_Container_base0@1@@Z
_TEXT	SEGMENT
__Parg$ = 8						; size = 4
__Pvector$ = 12						; size = 4
??0?$_Vector_const_iterator@V?$_Vector_val@UITEMSLOT@@V?$allocator@UITEMSLOT@@@std@@@std@@@std@@QAE@PAUITEMSLOT@@PBU_Container_base0@1@@Z PROC ; std::_Vector_const_iterator<std::_Vector_val<ITEMSLOT,std::allocator<ITEMSLOT> > >::_Vector_const_iterator<std::_Vector_val<ITEMSLOT,std::allocator<ITEMSLOT> > >, COMDAT
; _this$ = ecx

; 45   : 		{	// construct with pointer _Parg

  00000	55		 push	 ebp
  00001	8b ec		 mov	 ebp, esp
  00003	8b c1		 mov	 eax, ecx
  00005	8b 4d 08	 mov	 ecx, DWORD PTR __Parg$[ebp]
  00008	89 08		 mov	 DWORD PTR [eax], ecx

; 46   : 		this->_Adopt(_Pvector);
; 47   : 		}

  0000a	5d		 pop	 ebp
  0000b	c2 08 00	 ret	 8
??0?$_Vector_const_iterator@V?$_Vector_val@UITEMSLOT@@V?$allocator@UITEMSLOT@@@std@@@std@@@std@@QAE@PAUITEMSLOT@@PBU_Container_base0@1@@Z ENDP ; std::_Vector_const_iterator<std::_Vector_val<ITEMSLOT,std::allocator<ITEMSLOT> > >::_Vector_const_iterator<std::_Vector_val<ITEMSLOT,std::allocator<ITEMSLOT> > >
_TEXT	ENDS
PUBLIC	??0?$_Vector_const_iterator@V?$_Vector_val@UNewShopPullDownItem@@V?$allocator@UNewShopPullDownItem@@@std@@@std@@@std@@QAE@PAUNewShopPullDownItem@@PBU_Container_base0@1@@Z ; std::_Vector_const_iterator<std::_Vector_val<NewShopPullDownItem,std::allocator<NewShopPullDownItem> > >::_Vector_const_iterator<std::_Vector_val<NewShopPullDownItem,std::allocator<NewShopPullDownItem> > >
; Function compile flags: /Ogsp
;	COMDAT ??0?$_Vector_const_iterator@V?$_Vector_val@UNewShopPullDownItem@@V?$allocator@UNewShopPullDownItem@@@std@@@std@@@std@@QAE@PAUNewShopPullDownItem@@PBU_Container_base0@1@@Z
_TEXT	SEGMENT
__Parg$ = 8						; size = 4
__Pvector$ = 12						; size = 4
??0?$_Vector_const_iterator@V?$_Vector_val@UNewShopPullDownItem@@V?$allocator@UNewShopPullDownItem@@@std@@@std@@@std@@QAE@PAUNewShopPullDownItem@@PBU_Container_base0@1@@Z PROC ; std::_Vector_const_iterator<std::_Vector_val<NewShopPullDownItem,std::allocator<NewShopPullDownItem> > >::_Vector_const_iterator<std::_Vector_val<NewShopPullDownItem,std::allocator<NewShopPullDownItem> > >, COMDAT
; _this$ = ecx

; 45   : 		{	// construct with pointer _Parg

  00000	55		 push	 ebp
  00001	8b ec		 mov	 ebp, esp
  00003	8b c1		 mov	 eax, ecx
  00005	8b 4d 08	 mov	 ecx, DWORD PTR __Parg$[ebp]
  00008	89 08		 mov	 DWORD PTR [eax], ecx

; 46   : 		this->_Adopt(_Pvector);
; 47   : 		}

  0000a	5d		 pop	 ebp
  0000b	c2 08 00	 ret	 8
??0?$_Vector_const_iterator@V?$_Vector_val@UNewShopPullDownItem@@V?$allocator@UNewShopPullDownItem@@@std@@@std@@@std@@QAE@PAUNewShopPullDownItem@@PBU_Container_base0@1@@Z ENDP ; std::_Vector_const_iterator<std::_Vector_val<NewShopPullDownItem,std::allocator<NewShopPullDownItem> > >::_Vector_const_iterator<std::_Vector_val<NewShopPullDownItem,std::allocator<NewShopPullDownItem> > >
_TEXT	ENDS
PUBLIC	?_Compat@?$_Vector_const_iterator@V?$_Vector_val@UPackageItem@@V?$allocator@UPackageItem@@@std@@@std@@@std@@QBEXABV12@@Z ; std::_Vector_const_iterator<std::_Vector_val<PackageItem,std::allocator<PackageItem> > >::_Compat
; Function compile flags: /Ogsp
;	COMDAT ?_Compat@?$_Vector_const_iterator@V?$_Vector_val@UPackageItem@@V?$allocator@UPackageItem@@@std@@@std@@@std@@QBEXABV12@@Z
_TEXT	SEGMENT
___formal$ = 8						; size = 4
?_Compat@?$_Vector_const_iterator@V?$_Vector_val@UPackageItem@@V?$allocator@UPackageItem@@@std@@@std@@@std@@QBEXABV12@@Z PROC ; std::_Vector_const_iterator<std::_Vector_val<PackageItem,std::allocator<PackageItem> > >::_Compat, COMDAT
; _this$ = ecx

; 253  : 		}

  00000	c2 04 00	 ret	 4
?_Compat@?$_Vector_const_iterator@V?$_Vector_val@UPackageItem@@V?$allocator@UPackageItem@@@std@@@std@@@std@@QBEXABV12@@Z ENDP ; std::_Vector_const_iterator<std::_Vector_val<PackageItem,std::allocator<PackageItem> > >::_Compat
_TEXT	ENDS
PUBLIC	?_Compat@?$_Vector_const_iterator@V?$_Vector_val@UITEMSLOT@@V?$allocator@UITEMSLOT@@@std@@@std@@@std@@QBEXABV12@@Z ; std::_Vector_const_iterator<std::_Vector_val<ITEMSLOT,std::allocator<ITEMSLOT> > >::_Compat
; Function compile flags: /Ogsp
;	COMDAT ?_Compat@?$_Vector_const_iterator@V?$_Vector_val@UITEMSLOT@@V?$allocator@UITEMSLOT@@@std@@@std@@@std@@QBEXABV12@@Z
_TEXT	SEGMENT
___formal$ = 8						; size = 4
?_Compat@?$_Vector_const_iterator@V?$_Vector_val@UITEMSLOT@@V?$allocator@UITEMSLOT@@@std@@@std@@@std@@QBEXABV12@@Z PROC ; std::_Vector_const_iterator<std::_Vector_val<ITEMSLOT,std::allocator<ITEMSLOT> > >::_Compat, COMDAT
; _this$ = ecx

; 253  : 		}

  00000	c2 04 00	 ret	 4
?_Compat@?$_Vector_const_iterator@V?$_Vector_val@UITEMSLOT@@V?$allocator@UITEMSLOT@@@std@@@std@@@std@@QBEXABV12@@Z ENDP ; std::_Vector_const_iterator<std::_Vector_val<ITEMSLOT,std::allocator<ITEMSLOT> > >::_Compat
_TEXT	ENDS
PUBLIC	?_Compat@?$_Vector_const_iterator@V?$_Vector_val@UNewShopPullDownItem@@V?$allocator@UNewShopPullDownItem@@@std@@@std@@@std@@QBEXABV12@@Z ; std::_Vector_const_iterator<std::_Vector_val<NewShopPullDownItem,std::allocator<NewShopPullDownItem> > >::_Compat
; Function compile flags: /Ogsp
;	COMDAT ?_Compat@?$_Vector_const_iterator@V?$_Vector_val@UNewShopPullDownItem@@V?$allocator@UNewShopPullDownItem@@@std@@@std@@@std@@QBEXABV12@@Z
_TEXT	SEGMENT
___formal$ = 8						; size = 4
?_Compat@?$_Vector_const_iterator@V?$_Vector_val@UNewShopPullDownItem@@V?$allocator@UNewShopPullDownItem@@@std@@@std@@@std@@QBEXABV12@@Z PROC ; std::_Vector_const_iterator<std::_Vector_val<NewShopPullDownItem,std::allocator<NewShopPullDownItem> > >::_Compat, COMDAT
; _this$ = ecx

; 253  : 		}

  00000	c2 04 00	 ret	 4
?_Compat@?$_Vector_const_iterator@V?$_Vector_val@UNewShopPullDownItem@@V?$allocator@UNewShopPullDownItem@@@std@@@std@@@std@@QBEXABV12@@Z ENDP ; std::_Vector_const_iterator<std::_Vector_val<NewShopPullDownItem,std::allocator<NewShopPullDownItem> > >::_Compat
_TEXT	ENDS
PUBLIC	??$addressof@H@std@@YAPAHAAH@Z			; std::addressof<int>
; Function compile flags: /Ogsp
; File c:\program files (x86)\microsoft visual studio 10.0\vc\include\xmemory
;	COMDAT ??$addressof@H@std@@YAPAHAAH@Z
_TEXT	SEGMENT
__Val$ = 8						; size = 4
??$addressof@H@std@@YAPAHAAH@Z PROC			; std::addressof<int>, COMDAT

; 110  : 	{	// return address of _Val

  00000	55		 push	 ebp
  00001	8b ec		 mov	 ebp, esp

; 111  : 	return ((_Ty *) &(char&)_Val);

  00003	8b 45 08	 mov	 eax, DWORD PTR __Val$[ebp]

; 112  : 	}

  00006	5d		 pop	 ebp
  00007	c3		 ret	 0
??$addressof@H@std@@YAPAHAAH@Z ENDP			; std::addressof<int>
_TEXT	ENDS
PUBLIC	??$addressof@UITEMSLOT@@@std@@YAPAUITEMSLOT@@AAU1@@Z ; std::addressof<ITEMSLOT>
; Function compile flags: /Ogsp
;	COMDAT ??$addressof@UITEMSLOT@@@std@@YAPAUITEMSLOT@@AAU1@@Z
_TEXT	SEGMENT
__Val$ = 8						; size = 4
??$addressof@UITEMSLOT@@@std@@YAPAUITEMSLOT@@AAU1@@Z PROC ; std::addressof<ITEMSLOT>, COMDAT

; 110  : 	{	// return address of _Val

  00000	55		 push	 ebp
  00001	8b ec		 mov	 ebp, esp

; 111  : 	return ((_Ty *) &(char&)_Val);

  00003	8b 45 08	 mov	 eax, DWORD PTR __Val$[ebp]

; 112  : 	}

  00006	5d		 pop	 ebp
  00007	c3		 ret	 0
??$addressof@UITEMSLOT@@@std@@YAPAUITEMSLOT@@AAU1@@Z ENDP ; std::addressof<ITEMSLOT>
_TEXT	ENDS
PUBLIC	??$forward@UITEMSLOT@@@std@@YA$$QAUITEMSLOT@@AAU1@@Z ; std::forward<ITEMSLOT>
; Function compile flags: /Ogsp
; File c:\program files (x86)\microsoft visual studio 10.0\vc\include\utility
;	COMDAT ??$forward@UITEMSLOT@@@std@@YA$$QAUITEMSLOT@@AAU1@@Z
_TEXT	SEGMENT
__Arg$ = 8						; size = 4
??$forward@UITEMSLOT@@@std@@YA$$QAUITEMSLOT@@AAU1@@Z PROC ; std::forward<ITEMSLOT>, COMDAT

; 78   : 	{	// forward _Arg, given explicitly specified type parameter

  00000	55		 push	 ebp
  00001	8b ec		 mov	 ebp, esp

; 79   : 	return ((_Ty&&)_Arg);

  00003	8b 45 08	 mov	 eax, DWORD PTR __Arg$[ebp]

; 80   : 	}

  00006	5d		 pop	 ebp
  00007	c3		 ret	 0
??$forward@UITEMSLOT@@@std@@YA$$QAUITEMSLOT@@AAU1@@Z ENDP ; std::forward<ITEMSLOT>
_TEXT	ENDS
PUBLIC	??$addressof@$$CBUNewShopPullDownItem@@@std@@YAPBUNewShopPullDownItem@@ABU1@@Z ; std::addressof<NewShopPullDownItem const >
; Function compile flags: /Ogsp
; File c:\program files (x86)\microsoft visual studio 10.0\vc\include\xmemory
;	COMDAT ??$addressof@$$CBUNewShopPullDownItem@@@std@@YAPBUNewShopPullDownItem@@ABU1@@Z
_TEXT	SEGMENT
__Val$ = 8						; size = 4
??$addressof@$$CBUNewShopPullDownItem@@@std@@YAPBUNewShopPullDownItem@@ABU1@@Z PROC ; std::addressof<NewShopPullDownItem const >, COMDAT

; 110  : 	{	// return address of _Val

  00000	55		 push	 ebp
  00001	8b ec		 mov	 ebp, esp

; 111  : 	return ((_Ty *) &(char&)_Val);

  00003	8b 45 08	 mov	 eax, DWORD PTR __Val$[ebp]

; 112  : 	}

  00006	5d		 pop	 ebp
  00007	c3		 ret	 0
??$addressof@$$CBUNewShopPullDownItem@@@std@@YAPBUNewShopPullDownItem@@ABU1@@Z ENDP ; std::addressof<NewShopPullDownItem const >
_TEXT	ENDS
PUBLIC	??$addressof@$$CBUPackageItem@@@std@@YAPBUPackageItem@@ABU1@@Z ; std::addressof<PackageItem const >
; Function compile flags: /Ogsp
;	COMDAT ??$addressof@$$CBUPackageItem@@@std@@YAPBUPackageItem@@ABU1@@Z
_TEXT	SEGMENT
__Val$ = 8						; size = 4
??$addressof@$$CBUPackageItem@@@std@@YAPBUPackageItem@@ABU1@@Z PROC ; std::addressof<PackageItem const >, COMDAT

; 110  : 	{	// return address of _Val

  00000	55		 push	 ebp
  00001	8b ec		 mov	 ebp, esp

; 111  : 	return ((_Ty *) &(char&)_Val);

  00003	8b 45 08	 mov	 eax, DWORD PTR __Val$[ebp]

; 112  : 	}

  00006	5d		 pop	 ebp
  00007	c3		 ret	 0
??$addressof@$$CBUPackageItem@@@std@@YAPBUPackageItem@@ABU1@@Z ENDP ; std::addressof<PackageItem const >
_TEXT	ENDS
PUBLIC	__TI2?AVbad_alloc@std@@
PUBLIC	??$_Allocate@UITEMSLOT@@@std@@YAPAUITEMSLOT@@IPAU1@@Z ; std::_Allocate<ITEMSLOT>
PUBLIC	__CTA2?AVbad_alloc@std@@
PUBLIC	__CT??_R0?AVbad_alloc@std@@@8??0bad_alloc@std@@QAE@ABV01@@Z12
PUBLIC	??0bad_alloc@std@@QAE@ABV01@@Z			; std::bad_alloc::bad_alloc
PUBLIC	__CT??_R0?AVexception@std@@@8??0exception@std@@QAE@ABV01@@Z12
EXTRN	??2@YAPAXI@Z:PROC				; operator new
EXTRN	__CxxThrowException@8:PROC
EXTRN	??0exception@std@@QAE@ABV01@@Z:PROC		; std::exception::exception
;	COMDAT __CT??_R0?AVexception@std@@@8??0exception@std@@QAE@ABV01@@Z12
; File c:\program files (x86)\microsoft visual studio 10.0\vc\include\exception
xdata$x	SEGMENT
__CT??_R0?AVexception@std@@@8??0exception@std@@QAE@ABV01@@Z12 DD 00H
	DD	FLAT:??_R0?AVexception@std@@@8
	DD	00H
	DD	0ffffffffH
	ORG $+4
	DD	0cH
	DD	FLAT:??0exception@std@@QAE@ABV01@@Z
xdata$x	ENDS
;	COMDAT __CT??_R0?AVbad_alloc@std@@@8??0bad_alloc@std@@QAE@ABV01@@Z12
xdata$x	SEGMENT
__CT??_R0?AVbad_alloc@std@@@8??0bad_alloc@std@@QAE@ABV01@@Z12 DD 00H
	DD	FLAT:??_R0?AVbad_alloc@std@@@8
	DD	00H
	DD	0ffffffffH
	ORG $+4
	DD	0cH
	DD	FLAT:??0bad_alloc@std@@QAE@ABV01@@Z
xdata$x	ENDS
;	COMDAT __CTA2?AVbad_alloc@std@@
xdata$x	SEGMENT
__CTA2?AVbad_alloc@std@@ DD 02H
	DD	FLAT:__CT??_R0?AVbad_alloc@std@@@8??0bad_alloc@std@@QAE@ABV01@@Z12
	DD	FLAT:__CT??_R0?AVexception@std@@@8??0exception@std@@QAE@ABV01@@Z12
xdata$x	ENDS
;	COMDAT __TI2?AVbad_alloc@std@@
xdata$x	SEGMENT
__TI2?AVbad_alloc@std@@ DD 00H
	DD	FLAT:??1bad_alloc@std@@UAE@XZ
	DD	00H
	DD	FLAT:__CTA2?AVbad_alloc@std@@
; Function compile flags: /Ogsp
; File c:\program files (x86)\microsoft visual studio 10.0\vc\include\xmemory
xdata$x	ENDS
;	COMDAT ??$_Allocate@UITEMSLOT@@@std@@YAPAUITEMSLOT@@IPAU1@@Z
_TEXT	SEGMENT
$T513954 = -12						; size = 12
$T513959 = 8						; size = 4
__Count$ = 8						; size = 4
___formal$ = 12						; size = 4
??$_Allocate@UITEMSLOT@@@std@@YAPAUITEMSLOT@@IPAU1@@Z PROC ; std::_Allocate<ITEMSLOT>, COMDAT

; 30   : 	{	// allocate storage for _Count elements of type _Ty

  00000	55		 push	 ebp
  00001	8b ec		 mov	 ebp, esp

; 31   : 	void *_Ptr = 0;
; 32   : 
; 33   : 	if (_Count <= 0)

  00003	8b 4d 08	 mov	 ecx, DWORD PTR __Count$[ebp]
  00006	83 ec 0c	 sub	 esp, 12			; 0000000cH
  00009	33 c0		 xor	 eax, eax
  0000b	85 c9		 test	 ecx, ecx

; 34   : 		_Count = 0;
; 35   : 	else if (((_SIZT)(-1) / sizeof (_Ty) < _Count)

  0000d	74 3c		 je	 SHORT $LN5@Allocate

; 36   : 		|| (_Ptr = ::operator new(_Count * sizeof (_Ty))) == 0)

  0000f	81 f9 55 55 55
	15		 cmp	 ecx, 357913941		; 15555555H
  00015	77 0e		 ja	 SHORT $LN1@Allocate
  00017	6b c9 0c	 imul	 ecx, 12			; 0000000cH
  0001a	51		 push	 ecx
  0001b	e8 00 00 00 00	 call	 ??2@YAPAXI@Z		; operator new
  00020	59		 pop	 ecx
  00021	85 c0		 test	 eax, eax

; 38   : 
; 39   : 	return ((_Ty _FARQ *)_Ptr);

  00023	75 26		 jne	 SHORT $LN5@Allocate
$LN1@Allocate:

; 37   : 		_THROW_NCEE(bad_alloc, 0);

  00025	83 65 08 00	 and	 DWORD PTR $T513959[ebp], 0
  00029	8d 45 08	 lea	 eax, DWORD PTR $T513959[ebp]
  0002c	50		 push	 eax
  0002d	8d 4d f4	 lea	 ecx, DWORD PTR $T513954[ebp]
  00030	ff 15 00 00 00
	00		 call	 DWORD PTR __imp_??0exception@std@@QAE@ABQBD@Z
  00036	68 00 00 00 00	 push	 OFFSET __TI2?AVbad_alloc@std@@
  0003b	8d 45 f4	 lea	 eax, DWORD PTR $T513954[ebp]
  0003e	50		 push	 eax
  0003f	c7 45 f4 00 00
	00 00		 mov	 DWORD PTR $T513954[ebp], OFFSET ??_7bad_alloc@std@@6B@
  00046	e8 00 00 00 00	 call	 __CxxThrowException@8
$LN10@Allocate:
$LN5@Allocate:

; 40   : 	}

  0004b	c9		 leave
  0004c	c3		 ret	 0
$LN9@Allocate:
??$_Allocate@UITEMSLOT@@@std@@YAPAUITEMSLOT@@IPAU1@@Z ENDP ; std::_Allocate<ITEMSLOT>
_TEXT	ENDS
PUBLIC	??$_Allocate@UNewShopPullDownItem@@@std@@YAPAUNewShopPullDownItem@@IPAU1@@Z ; std::_Allocate<NewShopPullDownItem>
; Function compile flags: /Ogsp
;	COMDAT ??$_Allocate@UNewShopPullDownItem@@@std@@YAPAUNewShopPullDownItem@@IPAU1@@Z
_TEXT	SEGMENT
$T513964 = -12						; size = 12
$T513968 = 8						; size = 4
__Count$ = 8						; size = 4
___formal$ = 12						; size = 4
??$_Allocate@UNewShopPullDownItem@@@std@@YAPAUNewShopPullDownItem@@IPAU1@@Z PROC ; std::_Allocate<NewShopPullDownItem>, COMDAT

; 30   : 	{	// allocate storage for _Count elements of type _Ty

  00000	55		 push	 ebp
  00001	8b ec		 mov	 ebp, esp

; 31   : 	void *_Ptr = 0;
; 32   : 
; 33   : 	if (_Count <= 0)

  00003	8b 4d 08	 mov	 ecx, DWORD PTR __Count$[ebp]
  00006	83 ec 0c	 sub	 esp, 12			; 0000000cH
  00009	33 c0		 xor	 eax, eax
  0000b	85 c9		 test	 ecx, ecx

; 34   : 		_Count = 0;
; 35   : 	else if (((_SIZT)(-1) / sizeof (_Ty) < _Count)

  0000d	74 3c		 je	 SHORT $LN5@Allocate@2

; 36   : 		|| (_Ptr = ::operator new(_Count * sizeof (_Ty))) == 0)

  0000f	81 f9 33 33 33
	03		 cmp	 ecx, 53687091		; 03333333H
  00015	77 0e		 ja	 SHORT $LN1@Allocate@2
  00017	6b c9 50	 imul	 ecx, 80			; 00000050H
  0001a	51		 push	 ecx
  0001b	e8 00 00 00 00	 call	 ??2@YAPAXI@Z		; operator new
  00020	59		 pop	 ecx
  00021	85 c0		 test	 eax, eax

; 38   : 
; 39   : 	return ((_Ty _FARQ *)_Ptr);

  00023	75 26		 jne	 SHORT $LN5@Allocate@2
$LN1@Allocate@2:

; 37   : 		_THROW_NCEE(bad_alloc, 0);

  00025	83 65 08 00	 and	 DWORD PTR $T513968[ebp], 0
  00029	8d 45 08	 lea	 eax, DWORD PTR $T513968[ebp]
  0002c	50		 push	 eax
  0002d	8d 4d f4	 lea	 ecx, DWORD PTR $T513964[ebp]
  00030	ff 15 00 00 00
	00		 call	 DWORD PTR __imp_??0exception@std@@QAE@ABQBD@Z
  00036	68 00 00 00 00	 push	 OFFSET __TI2?AVbad_alloc@std@@
  0003b	8d 45 f4	 lea	 eax, DWORD PTR $T513964[ebp]
  0003e	50		 push	 eax
  0003f	c7 45 f4 00 00
	00 00		 mov	 DWORD PTR $T513964[ebp], OFFSET ??_7bad_alloc@std@@6B@
  00046	e8 00 00 00 00	 call	 __CxxThrowException@8
$LN10@Allocate@2:
$LN5@Allocate@2:

; 40   : 	}

  0004b	c9		 leave
  0004c	c3		 ret	 0
$LN9@Allocate@2:
??$_Allocate@UNewShopPullDownItem@@@std@@YAPAUNewShopPullDownItem@@IPAU1@@Z ENDP ; std::_Allocate<NewShopPullDownItem>
_TEXT	ENDS
PUBLIC	??$_Allocate@UPackageItem@@@std@@YAPAUPackageItem@@IPAU1@@Z ; std::_Allocate<PackageItem>
; Function compile flags: /Ogsp
;	COMDAT ??$_Allocate@UPackageItem@@@std@@YAPAUPackageItem@@IPAU1@@Z
_TEXT	SEGMENT
$T513973 = -12						; size = 12
$T513977 = 8						; size = 4
__Count$ = 8						; size = 4
___formal$ = 12						; size = 4
??$_Allocate@UPackageItem@@@std@@YAPAUPackageItem@@IPAU1@@Z PROC ; std::_Allocate<PackageItem>, COMDAT

; 30   : 	{	// allocate storage for _Count elements of type _Ty

  00000	55		 push	 ebp
  00001	8b ec		 mov	 ebp, esp

; 31   : 	void *_Ptr = 0;
; 32   : 
; 33   : 	if (_Count <= 0)

  00003	8b 4d 08	 mov	 ecx, DWORD PTR __Count$[ebp]
  00006	83 ec 0c	 sub	 esp, 12			; 0000000cH
  00009	33 c0		 xor	 eax, eax
  0000b	85 c9		 test	 ecx, ecx

; 34   : 		_Count = 0;
; 35   : 	else if (((_SIZT)(-1) / sizeof (_Ty) < _Count)

  0000d	74 3c		 je	 SHORT $LN5@Allocate@3

; 36   : 		|| (_Ptr = ::operator new(_Count * sizeof (_Ty))) == 0)

  0000f	81 f9 49 92 24
	09		 cmp	 ecx, 153391689		; 09249249H
  00015	77 0e		 ja	 SHORT $LN1@Allocate@3
  00017	6b c9 1c	 imul	 ecx, 28			; 0000001cH
  0001a	51		 push	 ecx
  0001b	e8 00 00 00 00	 call	 ??2@YAPAXI@Z		; operator new
  00020	59		 pop	 ecx
  00021	85 c0		 test	 eax, eax

; 38   : 
; 39   : 	return ((_Ty _FARQ *)_Ptr);

  00023	75 26		 jne	 SHORT $LN5@Allocate@3
$LN1@Allocate@3:

; 37   : 		_THROW_NCEE(bad_alloc, 0);

  00025	83 65 08 00	 and	 DWORD PTR $T513977[ebp], 0
  00029	8d 45 08	 lea	 eax, DWORD PTR $T513977[ebp]
  0002c	50		 push	 eax
  0002d	8d 4d f4	 lea	 ecx, DWORD PTR $T513973[ebp]
  00030	ff 15 00 00 00
	00		 call	 DWORD PTR __imp_??0exception@std@@QAE@ABQBD@Z
  00036	68 00 00 00 00	 push	 OFFSET __TI2?AVbad_alloc@std@@
  0003b	8d 45 f4	 lea	 eax, DWORD PTR $T513973[ebp]
  0003e	50		 push	 eax
  0003f	c7 45 f4 00 00
	00 00		 mov	 DWORD PTR $T513973[ebp], OFFSET ??_7bad_alloc@std@@6B@
  00046	e8 00 00 00 00	 call	 __CxxThrowException@8
$LN10@Allocate@3:
$LN5@Allocate@3:

; 40   : 	}

  0004b	c9		 leave
  0004c	c3		 ret	 0
$LN9@Allocate@3:
??$_Allocate@UPackageItem@@@std@@YAPAUPackageItem@@IPAU1@@Z ENDP ; std::_Allocate<PackageItem>
_TEXT	ENDS
PUBLIC	?construct@?$allocator@UITEMSLOT@@@std@@QAEXPAUITEMSLOT@@$$QAU3@@Z ; std::allocator<ITEMSLOT>::construct
; Function compile flags: /Ogsp
;	COMDAT ?construct@?$allocator@UITEMSLOT@@@std@@QAEXPAUITEMSLOT@@$$QAU3@@Z
_TEXT	SEGMENT
__Ptr$ = 8						; size = 4
__Val$ = 12						; size = 4
?construct@?$allocator@UITEMSLOT@@@std@@QAEXPAUITEMSLOT@@$$QAU3@@Z PROC ; std::allocator<ITEMSLOT>::construct, COMDAT
; _this$ = ecx

; 201  : 		{	// construct object at _Ptr with value _Val

  00000	55		 push	 ebp
  00001	8b ec		 mov	 ebp, esp
  00003	57		 push	 edi

; 202  : 		::new ((void _FARQ *)_Ptr) _Ty(_STD forward<_Ty>(_Val));

  00004	8b 7d 08	 mov	 edi, DWORD PTR __Ptr$[ebp]
  00007	85 ff		 test	 edi, edi
  00009	74 08		 je	 SHORT $LN3@construct
  0000b	56		 push	 esi
  0000c	8b 75 0c	 mov	 esi, DWORD PTR __Val$[ebp]
  0000f	a5		 movsd
  00010	a5		 movsd
  00011	a5		 movsd
  00012	5e		 pop	 esi
$LN3@construct:
  00013	5f		 pop	 edi

; 203  : 		}

  00014	5d		 pop	 ebp
  00015	c2 08 00	 ret	 8
?construct@?$allocator@UITEMSLOT@@@std@@QAEXPAUITEMSLOT@@$$QAU3@@Z ENDP ; std::allocator<ITEMSLOT>::construct
_TEXT	ENDS
PUBLIC	??G?$_Vector_const_iterator@V?$_Vector_val@UPackageItem@@V?$allocator@UPackageItem@@@std@@@std@@@std@@QBEHABV01@@Z ; std::_Vector_const_iterator<std::_Vector_val<PackageItem,std::allocator<PackageItem> > >::operator-
; Function compile flags: /Ogsp
; File c:\program files (x86)\microsoft visual studio 10.0\vc\include\vector
;	COMDAT ??G?$_Vector_const_iterator@V?$_Vector_val@UPackageItem@@V?$allocator@UPackageItem@@@std@@@std@@@std@@QBEHABV01@@Z
_TEXT	SEGMENT
__Right$ = 8						; size = 4
??G?$_Vector_const_iterator@V?$_Vector_val@UPackageItem@@V?$allocator@UPackageItem@@@std@@@std@@@std@@QBEHABV01@@Z PROC ; std::_Vector_const_iterator<std::_Vector_val<PackageItem,std::allocator<PackageItem> > >::operator-, COMDAT
; _this$ = ecx

; 190  : 		{	// return difference of iterators

  00000	55		 push	 ebp
  00001	8b ec		 mov	 ebp, esp

; 191  : 		_Compat(_Right);
; 192  : 		return (this->_Ptr - _Right._Ptr);

  00003	8b 01		 mov	 eax, DWORD PTR [ecx]
  00005	8b 4d 08	 mov	 ecx, DWORD PTR __Right$[ebp]
  00008	2b 01		 sub	 eax, DWORD PTR [ecx]
  0000a	6a 1c		 push	 28			; 0000001cH
  0000c	99		 cdq
  0000d	59		 pop	 ecx
  0000e	f7 f9		 idiv	 ecx

; 193  : 		}

  00010	5d		 pop	 ebp
  00011	c2 04 00	 ret	 4
??G?$_Vector_const_iterator@V?$_Vector_val@UPackageItem@@V?$allocator@UPackageItem@@@std@@@std@@@std@@QBEHABV01@@Z ENDP ; std::_Vector_const_iterator<std::_Vector_val<PackageItem,std::allocator<PackageItem> > >::operator-
_TEXT	ENDS
PUBLIC	??$forward@AAUNewShopPullDownItem@@@std@@YAAAUNewShopPullDownItem@@AAU1@@Z ; std::forward<NewShopPullDownItem &>
; Function compile flags: /Ogsp
; File c:\program files (x86)\microsoft visual studio 10.0\vc\include\utility
;	COMDAT ??$forward@AAUNewShopPullDownItem@@@std@@YAAAUNewShopPullDownItem@@AAU1@@Z
_TEXT	SEGMENT
__Arg$ = 8						; size = 4
??$forward@AAUNewShopPullDownItem@@@std@@YAAAUNewShopPullDownItem@@AAU1@@Z PROC ; std::forward<NewShopPullDownItem &>, COMDAT

; 78   : 	{	// forward _Arg, given explicitly specified type parameter

  00000	55		 push	 ebp
  00001	8b ec		 mov	 ebp, esp

; 79   : 	return ((_Ty&&)_Arg);

  00003	8b 45 08	 mov	 eax, DWORD PTR __Arg$[ebp]

; 80   : 	}

  00006	5d		 pop	 ebp
  00007	c3		 ret	 0
??$forward@AAUNewShopPullDownItem@@@std@@YAAAUNewShopPullDownItem@@AAU1@@Z ENDP ; std::forward<NewShopPullDownItem &>
_TEXT	ENDS
PUBLIC	??$forward@ABUNewShopPullDownItem@@@std@@YAABUNewShopPullDownItem@@ABU1@@Z ; std::forward<NewShopPullDownItem const &>
; Function compile flags: /Ogsp
;	COMDAT ??$forward@ABUNewShopPullDownItem@@@std@@YAABUNewShopPullDownItem@@ABU1@@Z
_TEXT	SEGMENT
__Arg$ = 8						; size = 4
??$forward@ABUNewShopPullDownItem@@@std@@YAABUNewShopPullDownItem@@ABU1@@Z PROC ; std::forward<NewShopPullDownItem const &>, COMDAT

; 78   : 	{	// forward _Arg, given explicitly specified type parameter

  00000	55		 push	 ebp
  00001	8b ec		 mov	 ebp, esp

; 79   : 	return ((_Ty&&)_Arg);

  00003	8b 45 08	 mov	 eax, DWORD PTR __Arg$[ebp]

; 80   : 	}

  00006	5d		 pop	 ebp
  00007	c3		 ret	 0
??$forward@ABUNewShopPullDownItem@@@std@@YAABUNewShopPullDownItem@@ABU1@@Z ENDP ; std::forward<NewShopPullDownItem const &>
_TEXT	ENDS
PUBLIC	??$forward@AAUPackageItem@@@std@@YAAAUPackageItem@@AAU1@@Z ; std::forward<PackageItem &>
; Function compile flags: /Ogsp
;	COMDAT ??$forward@AAUPackageItem@@@std@@YAAAUPackageItem@@AAU1@@Z
_TEXT	SEGMENT
__Arg$ = 8						; size = 4
??$forward@AAUPackageItem@@@std@@YAAAUPackageItem@@AAU1@@Z PROC ; std::forward<PackageItem &>, COMDAT

; 78   : 	{	// forward _Arg, given explicitly specified type parameter

  00000	55		 push	 ebp
  00001	8b ec		 mov	 ebp, esp

; 79   : 	return ((_Ty&&)_Arg);

  00003	8b 45 08	 mov	 eax, DWORD PTR __Arg$[ebp]

; 80   : 	}

  00006	5d		 pop	 ebp
  00007	c3		 ret	 0
??$forward@AAUPackageItem@@@std@@YAAAUPackageItem@@AAU1@@Z ENDP ; std::forward<PackageItem &>
_TEXT	ENDS
PUBLIC	??$forward@ABUPackageItem@@@std@@YAABUPackageItem@@ABU1@@Z ; std::forward<PackageItem const &>
; Function compile flags: /Ogsp
;	COMDAT ??$forward@ABUPackageItem@@@std@@YAABUPackageItem@@ABU1@@Z
_TEXT	SEGMENT
__Arg$ = 8						; size = 4
??$forward@ABUPackageItem@@@std@@YAABUPackageItem@@ABU1@@Z PROC ; std::forward<PackageItem const &>, COMDAT

; 78   : 	{	// forward _Arg, given explicitly specified type parameter

  00000	55		 push	 ebp
  00001	8b ec		 mov	 ebp, esp

; 79   : 	return ((_Ty&&)_Arg);

  00003	8b 45 08	 mov	 eax, DWORD PTR __Arg$[ebp]

; 80   : 	}

  00006	5d		 pop	 ebp
  00007	c3		 ret	 0
??$forward@ABUPackageItem@@@std@@YAABUPackageItem@@ABU1@@Z ENDP ; std::forward<PackageItem const &>
_TEXT	ENDS
PUBLIC	??$_Ptr_cat@UITEMSLOT@@U1@@std@@YA?AU_Nonscalar_ptr_iterator_tag@0@PAUITEMSLOT@@0@Z ; std::_Ptr_cat<ITEMSLOT,ITEMSLOT>
; Function compile flags: /Ogsp
; File c:\program files (x86)\microsoft visual studio 10.0\vc\include\xutility
;	COMDAT ??$_Ptr_cat@UITEMSLOT@@U1@@std@@YA?AU_Nonscalar_ptr_iterator_tag@0@PAUITEMSLOT@@0@Z
_TEXT	SEGMENT
__Cat$ = -1						; size = 1
___formal$ = 8						; size = 4
___formal$ = 12						; size = 4
??$_Ptr_cat@UITEMSLOT@@U1@@std@@YA?AU_Nonscalar_ptr_iterator_tag@0@PAUITEMSLOT@@0@Z PROC ; std::_Ptr_cat<ITEMSLOT,ITEMSLOT>, COMDAT

; 516  : 	{	// return pointer category from pointers

  00000	55		 push	 ebp
  00001	8b ec		 mov	 ebp, esp
  00003	51		 push	 ecx

; 517  : 	typename _Ptr_cat_helper<_Elem1, _Elem2>::_Type _Cat;
; 518  : 	return (_Cat);

  00004	8a 45 ff	 mov	 al, BYTE PTR __Cat$[ebp]

; 519  : 	}

  00007	c9		 leave
  00008	c3		 ret	 0
??$_Ptr_cat@UITEMSLOT@@U1@@std@@YA?AU_Nonscalar_ptr_iterator_tag@0@PAUITEMSLOT@@0@Z ENDP ; std::_Ptr_cat<ITEMSLOT,ITEMSLOT>
_TEXT	ENDS
PUBLIC	??$_Ptr_cat@UNewShopPullDownItem@@U1@@std@@YA?AU_Nonscalar_ptr_iterator_tag@0@PAUNewShopPullDownItem@@0@Z ; std::_Ptr_cat<NewShopPullDownItem,NewShopPullDownItem>
; Function compile flags: /Ogsp
;	COMDAT ??$_Ptr_cat@UNewShopPullDownItem@@U1@@std@@YA?AU_Nonscalar_ptr_iterator_tag@0@PAUNewShopPullDownItem@@0@Z
_TEXT	SEGMENT
__Cat$ = -1						; size = 1
___formal$ = 8						; size = 4
___formal$ = 12						; size = 4
??$_Ptr_cat@UNewShopPullDownItem@@U1@@std@@YA?AU_Nonscalar_ptr_iterator_tag@0@PAUNewShopPullDownItem@@0@Z PROC ; std::_Ptr_cat<NewShopPullDownItem,NewShopPullDownItem>, COMDAT

; 516  : 	{	// return pointer category from pointers

  00000	55		 push	 ebp
  00001	8b ec		 mov	 ebp, esp
  00003	51		 push	 ecx

; 517  : 	typename _Ptr_cat_helper<_Elem1, _Elem2>::_Type _Cat;
; 518  : 	return (_Cat);

  00004	8a 45 ff	 mov	 al, BYTE PTR __Cat$[ebp]

; 519  : 	}

  00007	c9		 leave
  00008	c3		 ret	 0
??$_Ptr_cat@UNewShopPullDownItem@@U1@@std@@YA?AU_Nonscalar_ptr_iterator_tag@0@PAUNewShopPullDownItem@@0@Z ENDP ; std::_Ptr_cat<NewShopPullDownItem,NewShopPullDownItem>
_TEXT	ENDS
PUBLIC	??$_Ptr_cat@UPackageItem@@U1@@std@@YA?AU_Nonscalar_ptr_iterator_tag@0@PAUPackageItem@@0@Z ; std::_Ptr_cat<PackageItem,PackageItem>
; Function compile flags: /Ogsp
;	COMDAT ??$_Ptr_cat@UPackageItem@@U1@@std@@YA?AU_Nonscalar_ptr_iterator_tag@0@PAUPackageItem@@0@Z
_TEXT	SEGMENT
__Cat$ = -1						; size = 1
___formal$ = 8						; size = 4
___formal$ = 12						; size = 4
??$_Ptr_cat@UPackageItem@@U1@@std@@YA?AU_Nonscalar_ptr_iterator_tag@0@PAUPackageItem@@0@Z PROC ; std::_Ptr_cat<PackageItem,PackageItem>, COMDAT

; 516  : 	{	// return pointer category from pointers

  00000	55		 push	 ebp
  00001	8b ec		 mov	 ebp, esp
  00003	51		 push	 ecx

; 517  : 	typename _Ptr_cat_helper<_Elem1, _Elem2>::_Type _Cat;
; 518  : 	return (_Cat);

  00004	8a 45 ff	 mov	 al, BYTE PTR __Cat$[ebp]

; 519  : 	}

  00007	c9		 leave
  00008	c3		 ret	 0
??$_Ptr_cat@UPackageItem@@U1@@std@@YA?AU_Nonscalar_ptr_iterator_tag@0@PAUPackageItem@@0@Z ENDP ; std::_Ptr_cat<PackageItem,PackageItem>
_TEXT	ENDS
PUBLIC	??0NewShopPullDownItem@@QAE@ABU0@@Z		; NewShopPullDownItem::NewShopPullDownItem
EXTRN	__imp_??0ioHashString@@QAE@ABV0@@Z:PROC
;	COMDAT xdata$x
xdata$x	SEGMENT
__unwindtable$??0NewShopPullDownItem@@QAE@ABU0@@Z DD 0ffffffffH
	DD	FLAT:__unwindfunclet$??0NewShopPullDownItem@@QAE@ABU0@@Z$0
	DD	00H
	DD	FLAT:__unwindfunclet$??0NewShopPullDownItem@@QAE@ABU0@@Z$1
__ehfuncinfo$??0NewShopPullDownItem@@QAE@ABU0@@Z DD 019930522H
	DD	02H
	DD	FLAT:__unwindtable$??0NewShopPullDownItem@@QAE@ABU0@@Z
	DD	2 DUP(00H)
	DD	2 DUP(00H)
	DD	00H
	DD	01H
; Function compile flags: /Ogsp
xdata$x	ENDS
;	COMDAT ??0NewShopPullDownItem@@QAE@ABU0@@Z
_TEXT	SEGMENT
_this$ = -16						; size = 4
__$EHRec$ = -12						; size = 12
___that$ = 8						; size = 4
??0NewShopPullDownItem@@QAE@ABU0@@Z PROC		; NewShopPullDownItem::NewShopPullDownItem, COMDAT
; _this$ = ecx
  00000	6a 04		 push	 4
  00002	b8 00 00 00 00	 mov	 eax, __ehhandler$??0NewShopPullDownItem@@QAE@ABU0@@Z
  00007	e8 00 00 00 00	 call	 __EH_prolog3
  0000c	8b f1		 mov	 esi, ecx
  0000e	89 75 f0	 mov	 DWORD PTR _this$[ebp], esi
  00011	8b 7d 08	 mov	 edi, DWORD PTR ___that$[ebp]
  00014	8b 1d 00 00 00
	00		 mov	 ebx, DWORD PTR __imp_??0ioHashString@@QAE@ABV0@@Z
  0001a	57		 push	 edi
  0001b	ff d3		 call	 ebx
  0001d	8b 47 10	 mov	 eax, DWORD PTR [edi+16]
  00020	83 65 fc 00	 and	 DWORD PTR __$EHRec$[ebp+8], 0
  00024	89 46 10	 mov	 DWORD PTR [esi+16], eax
  00027	8b 47 14	 mov	 eax, DWORD PTR [edi+20]
  0002a	89 46 14	 mov	 DWORD PTR [esi+20], eax
  0002d	8a 47 18	 mov	 al, BYTE PTR [edi+24]
  00030	88 46 18	 mov	 BYTE PTR [esi+24], al
  00033	8b 47 1c	 mov	 eax, DWORD PTR [edi+28]
  00036	89 46 1c	 mov	 DWORD PTR [esi+28], eax
  00039	8a 47 20	 mov	 al, BYTE PTR [edi+32]
  0003c	88 46 20	 mov	 BYTE PTR [esi+32], al
  0003f	8d 47 24	 lea	 eax, DWORD PTR [edi+36]
  00042	50		 push	 eax
  00043	8d 4e 24	 lea	 ecx, DWORD PTR [esi+36]
  00046	ff d3		 call	 ebx
  00048	8b 47 34	 mov	 eax, DWORD PTR [edi+52]
  0004b	89 46 34	 mov	 DWORD PTR [esi+52], eax
  0004e	8a 47 38	 mov	 al, BYTE PTR [edi+56]
  00051	88 46 38	 mov	 BYTE PTR [esi+56], al
  00054	8d 47 3c	 lea	 eax, DWORD PTR [edi+60]
  00057	50		 push	 eax
  00058	8d 4e 3c	 lea	 ecx, DWORD PTR [esi+60]
  0005b	c6 45 fc 01	 mov	 BYTE PTR __$EHRec$[ebp+8], 1
  0005f	ff d3		 call	 ebx
  00061	8b 47 4c	 mov	 eax, DWORD PTR [edi+76]
  00064	89 46 4c	 mov	 DWORD PTR [esi+76], eax
  00067	8b c6		 mov	 eax, esi
  00069	e8 00 00 00 00	 call	 __EH_epilog3
  0006e	c2 04 00	 ret	 4
_TEXT	ENDS
;	COMDAT text$x
text$x	SEGMENT
__unwindfunclet$??0NewShopPullDownItem@@QAE@ABU0@@Z$0:
  00000	8b 4d f0	 mov	 ecx, DWORD PTR _this$[ebp]
  00003	ff 25 00 00 00
	00		 jmp	 DWORD PTR __imp_??1ioHashString@@QAE@XZ
__unwindfunclet$??0NewShopPullDownItem@@QAE@ABU0@@Z$1:
  00009	8b 4d f0	 mov	 ecx, DWORD PTR _this$[ebp]
  0000c	83 c1 24	 add	 ecx, 36			; 00000024H
  0000f	ff 25 00 00 00
	00		 jmp	 DWORD PTR __imp_??1ioHashString@@QAE@XZ
__ehhandler$??0NewShopPullDownItem@@QAE@ABU0@@Z:
  00015	8b 54 24 08	 mov	 edx, DWORD PTR [esp+8]
  00019	8d 42 0c	 lea	 eax, DWORD PTR [edx+12]
  0001c	8b 4a ec	 mov	 ecx, DWORD PTR [edx-20]
  0001f	33 c8		 xor	 ecx, eax
  00021	e8 00 00 00 00	 call	 @__security_check_cookie@4
  00026	b8 00 00 00 00	 mov	 eax, OFFSET __ehfuncinfo$??0NewShopPullDownItem@@QAE@ABU0@@Z
  0002b	e9 00 00 00 00	 jmp	 ___CxxFrameHandler3
text$x	ENDS
??0NewShopPullDownItem@@QAE@ABU0@@Z ENDP		; NewShopPullDownItem::NewShopPullDownItem
PUBLIC	??0PackageItem@@QAE@ABU0@@Z			; PackageItem::PackageItem
; Function compile flags: /Ogsp
;	COMDAT ??0PackageItem@@QAE@ABU0@@Z
_TEXT	SEGMENT
___that$ = 8						; size = 4
??0PackageItem@@QAE@ABU0@@Z PROC			; PackageItem::PackageItem, COMDAT
; _this$ = ecx
  00000	55		 push	 ebp
  00001	8b ec		 mov	 ebp, esp
  00003	56		 push	 esi
  00004	57		 push	 edi
  00005	8b 7d 08	 mov	 edi, DWORD PTR ___that$[ebp]
  00008	57		 push	 edi
  00009	8b f1		 mov	 esi, ecx
  0000b	ff 15 00 00 00
	00		 call	 DWORD PTR __imp_??0ioHashString@@QAE@ABV0@@Z
  00011	8b 47 10	 mov	 eax, DWORD PTR [edi+16]
  00014	89 46 10	 mov	 DWORD PTR [esi+16], eax
  00017	8a 47 14	 mov	 al, BYTE PTR [edi+20]
  0001a	88 46 14	 mov	 BYTE PTR [esi+20], al
  0001d	8a 47 15	 mov	 al, BYTE PTR [edi+21]
  00020	88 46 15	 mov	 BYTE PTR [esi+21], al
  00023	8b 47 18	 mov	 eax, DWORD PTR [edi+24]
  00026	89 46 18	 mov	 DWORD PTR [esi+24], eax
  00029	5f		 pop	 edi
  0002a	8b c6		 mov	 eax, esi
  0002c	5e		 pop	 esi
  0002d	5d		 pop	 ebp
  0002e	c2 04 00	 ret	 4
??0PackageItem@@QAE@ABU0@@Z ENDP			; PackageItem::PackageItem
_TEXT	ENDS
PUBLIC	?_Unchecked@?$_Vector_iterator@V?$_Vector_val@UPackageItem@@V?$allocator@UPackageItem@@@std@@@std@@@std@@QBEPAUPackageItem@@XZ ; std::_Vector_iterator<std::_Vector_val<PackageItem,std::allocator<PackageItem> > >::_Unchecked
; Function compile flags: /Ogsp
; File c:\program files (x86)\microsoft visual studio 10.0\vc\include\vector
;	COMDAT ?_Unchecked@?$_Vector_iterator@V?$_Vector_val@UPackageItem@@V?$allocator@UPackageItem@@@std@@@std@@@std@@QBEPAUPackageItem@@XZ
_TEXT	SEGMENT
?_Unchecked@?$_Vector_iterator@V?$_Vector_val@UPackageItem@@V?$allocator@UPackageItem@@@std@@@std@@@std@@QBEPAUPackageItem@@XZ PROC ; std::_Vector_iterator<std::_Vector_val<PackageItem,std::allocator<PackageItem> > >::_Unchecked, COMDAT
; _this$ = ecx

; 317  : 		return (_Unchecked_type(this->_Ptr));

  00000	8b 01		 mov	 eax, DWORD PTR [ecx]

; 318  : 		}

  00002	c3		 ret	 0
?_Unchecked@?$_Vector_iterator@V?$_Vector_val@UPackageItem@@V?$allocator@UPackageItem@@@std@@@std@@@std@@QBEPAUPackageItem@@XZ ENDP ; std::_Vector_iterator<std::_Vector_val<PackageItem,std::allocator<PackageItem> > >::_Unchecked
_TEXT	ENDS
PUBLIC	??$move@AAUITEMSLOT@@@std@@YA$$QAUITEMSLOT@@AAU1@@Z ; std::move<ITEMSLOT &>
; Function compile flags: /Ogsp
; File c:\program files (x86)\microsoft visual studio 10.0\vc\include\utility
;	COMDAT ??$move@AAUITEMSLOT@@@std@@YA$$QAUITEMSLOT@@AAU1@@Z
_TEXT	SEGMENT
__Arg$ = 8						; size = 4
??$move@AAUITEMSLOT@@@std@@YA$$QAUITEMSLOT@@AAU1@@Z PROC ; std::move<ITEMSLOT &>, COMDAT

; 86   : 	{	// forward _Arg as movable

  00000	55		 push	 ebp
  00001	8b ec		 mov	 ebp, esp

; 87   : 	return ((typename tr1::_Remove_reference<_Ty>::_Type&&)_Arg);

  00003	8b 45 08	 mov	 eax, DWORD PTR __Arg$[ebp]

; 88   : 	}

  00006	5d		 pop	 ebp
  00007	c3		 ret	 0
??$move@AAUITEMSLOT@@@std@@YA$$QAUITEMSLOT@@AAU1@@Z ENDP ; std::move<ITEMSLOT &>
_TEXT	ENDS
PUBLIC	??$move@AAUNewShopPullDownItem@@@std@@YA$$QAUNewShopPullDownItem@@AAU1@@Z ; std::move<NewShopPullDownItem &>
; Function compile flags: /Ogsp
;	COMDAT ??$move@AAUNewShopPullDownItem@@@std@@YA$$QAUNewShopPullDownItem@@AAU1@@Z
_TEXT	SEGMENT
__Arg$ = 8						; size = 4
??$move@AAUNewShopPullDownItem@@@std@@YA$$QAUNewShopPullDownItem@@AAU1@@Z PROC ; std::move<NewShopPullDownItem &>, COMDAT

; 86   : 	{	// forward _Arg as movable

  00000	55		 push	 ebp
  00001	8b ec		 mov	 ebp, esp

; 87   : 	return ((typename tr1::_Remove_reference<_Ty>::_Type&&)_Arg);

  00003	8b 45 08	 mov	 eax, DWORD PTR __Arg$[ebp]

; 88   : 	}

  00006	5d		 pop	 ebp
  00007	c3		 ret	 0
??$move@AAUNewShopPullDownItem@@@std@@YA$$QAUNewShopPullDownItem@@AAU1@@Z ENDP ; std::move<NewShopPullDownItem &>
_TEXT	ENDS
PUBLIC	??$move@AAUPackageItem@@@std@@YA$$QAUPackageItem@@AAU1@@Z ; std::move<PackageItem &>
; Function compile flags: /Ogsp
;	COMDAT ??$move@AAUPackageItem@@@std@@YA$$QAUPackageItem@@AAU1@@Z
_TEXT	SEGMENT
__Arg$ = 8						; size = 4
??$move@AAUPackageItem@@@std@@YA$$QAUPackageItem@@AAU1@@Z PROC ; std::move<PackageItem &>, COMDAT

; 86   : 	{	// forward _Arg as movable

  00000	55		 push	 ebp
  00001	8b ec		 mov	 ebp, esp

; 87   : 	return ((typename tr1::_Remove_reference<_Ty>::_Type&&)_Arg);

  00003	8b 45 08	 mov	 eax, DWORD PTR __Arg$[ebp]

; 88   : 	}

  00006	5d		 pop	 ebp
  00007	c3		 ret	 0
??$move@AAUPackageItem@@@std@@YA$$QAUPackageItem@@AAU1@@Z ENDP ; std::move<PackageItem &>
_TEXT	ENDS
PUBLIC	??$_Val_type@PAUITEMSLOT@@@std@@YAPAUITEMSLOT@@PAU1@@Z ; std::_Val_type<ITEMSLOT *>
; Function compile flags: /Ogsp
; File c:\program files (x86)\microsoft visual studio 10.0\vc\include\xutility
;	COMDAT ??$_Val_type@PAUITEMSLOT@@@std@@YAPAUITEMSLOT@@PAU1@@Z
_TEXT	SEGMENT
___formal$ = 8						; size = 4
??$_Val_type@PAUITEMSLOT@@@std@@YAPAUITEMSLOT@@PAU1@@Z PROC ; std::_Val_type<ITEMSLOT *>, COMDAT

; 790  : 	return (0);

  00000	33 c0		 xor	 eax, eax

; 791  : 	}

  00002	c3		 ret	 0
??$_Val_type@PAUITEMSLOT@@@std@@YAPAUITEMSLOT@@PAU1@@Z ENDP ; std::_Val_type<ITEMSLOT *>
_TEXT	ENDS
PUBLIC	??$_Val_type@PAUNewShopPullDownItem@@@std@@YAPAUNewShopPullDownItem@@PAU1@@Z ; std::_Val_type<NewShopPullDownItem *>
; Function compile flags: /Ogsp
;	COMDAT ??$_Val_type@PAUNewShopPullDownItem@@@std@@YAPAUNewShopPullDownItem@@PAU1@@Z
_TEXT	SEGMENT
___formal$ = 8						; size = 4
??$_Val_type@PAUNewShopPullDownItem@@@std@@YAPAUNewShopPullDownItem@@PAU1@@Z PROC ; std::_Val_type<NewShopPullDownItem *>, COMDAT

; 790  : 	return (0);

  00000	33 c0		 xor	 eax, eax

; 791  : 	}

  00002	c3		 ret	 0
??$_Val_type@PAUNewShopPullDownItem@@@std@@YAPAUNewShopPullDownItem@@PAU1@@Z ENDP ; std::_Val_type<NewShopPullDownItem *>
_TEXT	ENDS
PUBLIC	??$_Val_type@PAUPackageItem@@@std@@YAPAUPackageItem@@PAU1@@Z ; std::_Val_type<PackageItem *>
; Function compile flags: /Ogsp
;	COMDAT ??$_Val_type@PAUPackageItem@@@std@@YAPAUPackageItem@@PAU1@@Z
_TEXT	SEGMENT
___formal$ = 8						; size = 4
??$_Val_type@PAUPackageItem@@@std@@YAPAUPackageItem@@PAU1@@Z PROC ; std::_Val_type<PackageItem *>, COMDAT

; 790  : 	return (0);

  00000	33 c0		 xor	 eax, eax

; 791  : 	}

  00002	c3		 ret	 0
??$_Val_type@PAUPackageItem@@@std@@YAPAUPackageItem@@PAU1@@Z ENDP ; std::_Val_type<PackageItem *>
_TEXT	ENDS
PUBLIC	??$_Unchecked@PAUPackageItem@@@std@@YAPAUPackageItem@@PAU1@@Z ; std::_Unchecked<PackageItem *>
; Function compile flags: /Ogsp
;	COMDAT ??$_Unchecked@PAUPackageItem@@@std@@YAPAUPackageItem@@PAU1@@Z
_TEXT	SEGMENT
__Src$ = 8						; size = 4
??$_Unchecked@PAUPackageItem@@@std@@YAPAUPackageItem@@PAU1@@Z PROC ; std::_Unchecked<PackageItem *>, COMDAT

; 266  : 	{	// construct unchecked from checked, generic

  00000	55		 push	 ebp
  00001	8b ec		 mov	 ebp, esp

; 267  : 	return (_Src);

  00003	8b 45 08	 mov	 eax, DWORD PTR __Src$[ebp]

; 268  : 	}

  00006	5d		 pop	 ebp
  00007	c3		 ret	 0
??$_Unchecked@PAUPackageItem@@@std@@YAPAUPackageItem@@PAU1@@Z ENDP ; std::_Unchecked<PackageItem *>
_TEXT	ENDS
PUBLIC	??$_Dist_type@PAUPackageItem@@@std@@YAPAHPAUPackageItem@@@Z ; std::_Dist_type<PackageItem *>
; Function compile flags: /Ogsp
;	COMDAT ??$_Dist_type@PAUPackageItem@@@std@@YAPAHPAUPackageItem@@@Z
_TEXT	SEGMENT
___formal$ = 8						; size = 4
??$_Dist_type@PAUPackageItem@@@std@@YAPAHPAUPackageItem@@@Z PROC ; std::_Dist_type<PackageItem *>, COMDAT

; 850  : 	return (0);

  00000	33 c0		 xor	 eax, eax

; 851  : 	}

  00002	c3		 ret	 0
??$_Dist_type@PAUPackageItem@@@std@@YAPAHPAUPackageItem@@@Z ENDP ; std::_Dist_type<PackageItem *>
_TEXT	ENDS
PUBLIC	??$_Destroy@UITEMSLOT@@@std@@YAXPAUITEMSLOT@@@Z	; std::_Destroy<ITEMSLOT>
; Function compile flags: /Ogsp
; File c:\program files (x86)\microsoft visual studio 10.0\vc\include\xmemory
;	COMDAT ??$_Destroy@UITEMSLOT@@@std@@YAXPAUITEMSLOT@@@Z
_TEXT	SEGMENT
__Ptr$ = 8						; size = 4
??$_Destroy@UITEMSLOT@@@std@@YAXPAUITEMSLOT@@@Z PROC	; std::_Destroy<ITEMSLOT>, COMDAT

; 63   : 	_Ptr->~_Ty();
; 64   : 	}

  00000	c3		 ret	 0
??$_Destroy@UITEMSLOT@@@std@@YAXPAUITEMSLOT@@@Z ENDP	; std::_Destroy<ITEMSLOT>
_TEXT	ENDS
PUBLIC	??_GNewShopPullDownItem@@QAEPAXI@Z		; NewShopPullDownItem::`scalar deleting destructor'
; Function compile flags: /Ogsp
;	COMDAT ??_GNewShopPullDownItem@@QAEPAXI@Z
_TEXT	SEGMENT
___flags$ = 8						; size = 4
??_GNewShopPullDownItem@@QAEPAXI@Z PROC			; NewShopPullDownItem::`scalar deleting destructor', COMDAT
; _this$ = ecx
  00000	55		 push	 ebp
  00001	8b ec		 mov	 ebp, esp
  00003	56		 push	 esi
  00004	8b f1		 mov	 esi, ecx
  00006	e8 00 00 00 00	 call	 ??1NewShopPullDownItem@@QAE@XZ
  0000b	f6 45 08 01	 test	 BYTE PTR ___flags$[ebp], 1
  0000f	74 07		 je	 SHORT $LN1@scalar@2
  00011	56		 push	 esi
  00012	e8 00 00 00 00	 call	 ??3@YAXPAX@Z		; operator delete
  00017	59		 pop	 ecx
$LN1@scalar@2:
  00018	8b c6		 mov	 eax, esi
  0001a	5e		 pop	 esi
  0001b	5d		 pop	 ebp
  0001c	c2 04 00	 ret	 4
??_GNewShopPullDownItem@@QAEPAXI@Z ENDP			; NewShopPullDownItem::`scalar deleting destructor'
_TEXT	ENDS
PUBLIC	??_GPackageItem@@QAEPAXI@Z			; PackageItem::`scalar deleting destructor'
; Function compile flags: /Ogsp
;	COMDAT ??_GPackageItem@@QAEPAXI@Z
_TEXT	SEGMENT
___flags$ = 8						; size = 4
??_GPackageItem@@QAEPAXI@Z PROC				; PackageItem::`scalar deleting destructor', COMDAT
; _this$ = ecx
  00000	55		 push	 ebp
  00001	8b ec		 mov	 ebp, esp
  00003	56		 push	 esi
  00004	8b f1		 mov	 esi, ecx
  00006	ff 15 00 00 00
	00		 call	 DWORD PTR __imp_??1ioHashString@@QAE@XZ
  0000c	f6 45 08 01	 test	 BYTE PTR ___flags$[ebp], 1
  00010	74 07		 je	 SHORT $LN1@scalar@3
  00012	56		 push	 esi
  00013	e8 00 00 00 00	 call	 ??3@YAXPAX@Z		; operator delete
  00018	59		 pop	 ecx
$LN1@scalar@3:
  00019	8b c6		 mov	 eax, esi
  0001b	5e		 pop	 esi
  0001c	5d		 pop	 ebp
  0001d	c2 04 00	 ret	 4
??_GPackageItem@@QAEPAXI@Z ENDP				; PackageItem::`scalar deleting destructor'
_TEXT	ENDS
PUBLIC	??$forward@AAPAUPackageItem@@@std@@YAAAPAUPackageItem@@AAPAU1@@Z ; std::forward<PackageItem * &>
; Function compile flags: /Ogsp
; File c:\program files (x86)\microsoft visual studio 10.0\vc\include\utility
;	COMDAT ??$forward@AAPAUPackageItem@@@std@@YAAAPAUPackageItem@@AAPAU1@@Z
_TEXT	SEGMENT
__Arg$ = 8						; size = 4
??$forward@AAPAUPackageItem@@@std@@YAAAPAUPackageItem@@AAPAU1@@Z PROC ; std::forward<PackageItem * &>, COMDAT

; 78   : 	{	// forward _Arg, given explicitly specified type parameter

  00000	55		 push	 ebp
  00001	8b ec		 mov	 ebp, esp

; 79   : 	return ((_Ty&&)_Arg);

  00003	8b 45 08	 mov	 eax, DWORD PTR __Arg$[ebp]

; 80   : 	}

  00006	5d		 pop	 ebp
  00007	c3		 ret	 0
??$forward@AAPAUPackageItem@@@std@@YAAAPAUPackageItem@@AAPAU1@@Z ENDP ; std::forward<PackageItem * &>
_TEXT	ENDS
PUBLIC	??$?0AAPAUPackageItem@@AAPAU0@@?$_Pair_base@PAUPackageItem@@PAU1@@std@@QAE@AAPAUPackageItem@@0@Z ; std::_Pair_base<PackageItem *,PackageItem *>::_Pair_base<PackageItem *,PackageItem *><PackageItem * &,PackageItem * &>
; Function compile flags: /Ogsp
;	COMDAT ??$?0AAPAUPackageItem@@AAPAU0@@?$_Pair_base@PAUPackageItem@@PAU1@@std@@QAE@AAPAUPackageItem@@0@Z
_TEXT	SEGMENT
__Val1$ = 8						; size = 4
__Val2$ = 12						; size = 4
??$?0AAPAUPackageItem@@AAPAU0@@?$_Pair_base@PAUPackageItem@@PAU1@@std@@QAE@AAPAUPackageItem@@0@Z PROC ; std::_Pair_base<PackageItem *,PackageItem *>::_Pair_base<PackageItem *,PackageItem *><PackageItem * &,PackageItem * &>, COMDAT
; _this$ = ecx

; 163  : 		{	// construct from moved values

  00000	55		 push	 ebp
  00001	8b ec		 mov	 ebp, esp
  00003	8b c1		 mov	 eax, ecx
  00005	8b 4d 08	 mov	 ecx, DWORD PTR __Val1$[ebp]
  00008	8b 09		 mov	 ecx, DWORD PTR [ecx]
  0000a	89 08		 mov	 DWORD PTR [eax], ecx
  0000c	8b 4d 0c	 mov	 ecx, DWORD PTR __Val2$[ebp]
  0000f	8b 09		 mov	 ecx, DWORD PTR [ecx]
  00011	89 48 04	 mov	 DWORD PTR [eax+4], ecx

; 164  : 		}

  00014	5d		 pop	 ebp
  00015	c2 08 00	 ret	 8
??$?0AAPAUPackageItem@@AAPAU0@@?$_Pair_base@PAUPackageItem@@PAU1@@std@@QAE@AAPAUPackageItem@@0@Z ENDP ; std::_Pair_base<PackageItem *,PackageItem *>::_Pair_base<PackageItem *,PackageItem *><PackageItem * &,PackageItem * &>
_TEXT	ENDS
PUBLIC	??$_Move@AAUPackageItem@@@std@@YA$$QAUPackageItem@@AAU1@@Z ; std::_Move<PackageItem &>
; Function compile flags: /Ogsp
;	COMDAT ??$_Move@AAUPackageItem@@@std@@YA$$QAUPackageItem@@AAU1@@Z
_TEXT	SEGMENT
__Arg$ = 8						; size = 4
??$_Move@AAUPackageItem@@@std@@YA$$QAUPackageItem@@AAU1@@Z PROC ; std::_Move<PackageItem &>, COMDAT

; 94   : 	{	// forward _Arg as movable

  00000	55		 push	 ebp
  00001	8b ec		 mov	 ebp, esp

; 95   : 	return ((typename tr1::_Remove_reference<_Ty>::_Type&&)_Arg);

  00003	8b 45 08	 mov	 eax, DWORD PTR __Arg$[ebp]

; 96   : 	}

  00006	5d		 pop	 ebp
  00007	c3		 ret	 0
??$_Move@AAUPackageItem@@@std@@YA$$QAUPackageItem@@AAU1@@Z ENDP ; std::_Move<PackageItem &>
_TEXT	ENDS
PUBLIC	??$forward@UNewShopPullDownItem@@@std@@YA$$QAUNewShopPullDownItem@@AAU1@@Z ; std::forward<NewShopPullDownItem>
; Function compile flags: /Ogsp
;	COMDAT ??$forward@UNewShopPullDownItem@@@std@@YA$$QAUNewShopPullDownItem@@AAU1@@Z
_TEXT	SEGMENT
__Arg$ = 8						; size = 4
??$forward@UNewShopPullDownItem@@@std@@YA$$QAUNewShopPullDownItem@@AAU1@@Z PROC ; std::forward<NewShopPullDownItem>, COMDAT

; 78   : 	{	// forward _Arg, given explicitly specified type parameter

  00000	55		 push	 ebp
  00001	8b ec		 mov	 ebp, esp

; 79   : 	return ((_Ty&&)_Arg);

  00003	8b 45 08	 mov	 eax, DWORD PTR __Arg$[ebp]

; 80   : 	}

  00006	5d		 pop	 ebp
  00007	c3		 ret	 0
??$forward@UNewShopPullDownItem@@@std@@YA$$QAUNewShopPullDownItem@@AAU1@@Z ENDP ; std::forward<NewShopPullDownItem>
_TEXT	ENDS
PUBLIC	??$forward@UPackageItem@@@std@@YA$$QAUPackageItem@@AAU1@@Z ; std::forward<PackageItem>
; Function compile flags: /Ogsp
;	COMDAT ??$forward@UPackageItem@@@std@@YA$$QAUPackageItem@@AAU1@@Z
_TEXT	SEGMENT
__Arg$ = 8						; size = 4
??$forward@UPackageItem@@@std@@YA$$QAUPackageItem@@AAU1@@Z PROC ; std::forward<PackageItem>, COMDAT

; 78   : 	{	// forward _Arg, given explicitly specified type parameter

  00000	55		 push	 ebp
  00001	8b ec		 mov	 ebp, esp

; 79   : 	return ((_Ty&&)_Arg);

  00003	8b 45 08	 mov	 eax, DWORD PTR __Arg$[ebp]

; 80   : 	}

  00006	5d		 pop	 ebp
  00007	c3		 ret	 0
??$forward@UPackageItem@@@std@@YA$$QAUPackageItem@@AAU1@@Z ENDP ; std::forward<PackageItem>
_TEXT	ENDS
PUBLIC	??$_Move_backward@PAUPackageItem@@PAU1@@std@@YAPAUPackageItem@@PAU1@00U_Nonscalar_ptr_iterator_tag@0@@Z ; std::_Move_backward<PackageItem *,PackageItem *>
; Function compile flags: /Ogsp
; File c:\program files (x86)\microsoft visual studio 10.0\vc\include\xutility
;	COMDAT ??$_Move_backward@PAUPackageItem@@PAU1@@std@@YAPAUPackageItem@@PAU1@00U_Nonscalar_ptr_iterator_tag@0@@Z
_TEXT	SEGMENT
__First$ = 8						; size = 4
__Last$ = 12						; size = 4
__Dest$ = 16						; size = 4
___formal$ = 20						; size = 1
??$_Move_backward@PAUPackageItem@@PAU1@@std@@YAPAUPackageItem@@PAU1@00U_Nonscalar_ptr_iterator_tag@0@@Z PROC ; std::_Move_backward<PackageItem *,PackageItem *>, COMDAT

; 2617 : 	{	// move [_First, _Last) backwards to [..., _Dest), arbitrary iterators

  00000	55		 push	 ebp
  00001	8b ec		 mov	 ebp, esp
  00003	56		 push	 esi

; 2618 : 	while (_First != _Last)

  00004	8b 75 0c	 mov	 esi, DWORD PTR __Last$[ebp]
  00007	39 75 08	 cmp	 DWORD PTR __First$[ebp], esi
  0000a	74 15		 je	 SHORT $LN9@Move_backw
$LL2@Move_backw:

; 2619 : 		*--_Dest = _STD move(*--_Last);

  0000c	83 6d 10 1c	 sub	 DWORD PTR __Dest$[ebp], 28 ; 0000001cH
  00010	8b 4d 10	 mov	 ecx, DWORD PTR __Dest$[ebp]
  00013	83 ee 1c	 sub	 esi, 28			; 0000001cH
  00016	56		 push	 esi
  00017	e8 00 00 00 00	 call	 ??4PackageItem@@QAEAAU0@ABU0@@Z
  0001c	3b 75 08	 cmp	 esi, DWORD PTR __First$[ebp]
  0001f	75 eb		 jne	 SHORT $LL2@Move_backw
$LN9@Move_backw:

; 2620 : 	return (_Dest);

  00021	8b 45 10	 mov	 eax, DWORD PTR __Dest$[ebp]
  00024	5e		 pop	 esi

; 2621 : 	}

  00025	5d		 pop	 ebp
  00026	c3		 ret	 0
??$_Move_backward@PAUPackageItem@@PAU1@@std@@YAPAUPackageItem@@PAU1@00U_Nonscalar_ptr_iterator_tag@0@@Z ENDP ; std::_Move_backward<PackageItem *,PackageItem *>
_TEXT	ENDS
PUBLIC	??_H@YGXPAXIHP6EPAX0@Z@Z			; `vector constructor iterator'
; Function compile flags: /Ogsp
;	COMDAT ??_H@YGXPAXIHP6EPAX0@Z@Z
_TEXT	SEGMENT
___t$ = 8						; size = 4
___s$ = 12						; size = 4
___n$ = 16						; size = 4
___f$ = 20						; size = 4
??_H@YGXPAXIHP6EPAX0@Z@Z PROC				; `vector constructor iterator', COMDAT
  00000	55		 push	 ebp
  00001	8b ec		 mov	 ebp, esp
  00003	ff 4d 10	 dec	 DWORD PTR ___n$[ebp]
  00006	78 12		 js	 SHORT $LN1@vector
  00008	56		 push	 esi
  00009	8b 75 08	 mov	 esi, DWORD PTR ___t$[ebp]
$LL2@vector:
  0000c	8b ce		 mov	 ecx, esi
  0000e	ff 55 14	 call	 DWORD PTR ___f$[ebp]
  00011	03 75 0c	 add	 esi, DWORD PTR ___s$[ebp]
  00014	ff 4d 10	 dec	 DWORD PTR ___n$[ebp]
  00017	79 f3		 jns	 SHORT $LL2@vector
  00019	5e		 pop	 esi
$LN1@vector:
  0001a	5d		 pop	 ebp
  0001b	c2 10 00	 ret	 16			; 00000010H
??_H@YGXPAXIHP6EPAX0@Z@Z ENDP				; `vector constructor iterator'
_TEXT	ENDS
PUBLIC	?_DECSTR@@YAXPADH@Z				; _DECSTR
; Function compile flags: /Ogsp
; File d:\lost saga for developer\youtube\tutorial\source\src\lsclient\stringprotect.h
;	COMDAT ?_DECSTR@@YAXPADH@Z
_TEXT	SEGMENT
_s$ = 8							; size = 4
_l$ = 12						; size = 4
?_DECSTR@@YAXPADH@Z PROC				; _DECSTR, COMDAT

; 40   : __forceinline void _DECSTR(char* s, int l){int i=0,l4=(l-1)/4,*p=(int*)s;s[l-1]=0;for(;i<l4;++i)*(p++)^=0xEAEBECED;for(i=l4*4;i<l-1;++i)s[i]^=0xED-i%4;}

  00000	55		 push	 ebp
  00001	8b ec		 mov	 ebp, esp
  00003	8b 4d 0c	 mov	 ecx, DWORD PTR _l$[ebp]
  00006	56		 push	 esi
  00007	8b 75 08	 mov	 esi, DWORD PTR _s$[ebp]
  0000a	57		 push	 edi
  0000b	8d 79 ff	 lea	 edi, DWORD PTR [ecx-1]
  0000e	8b c7		 mov	 eax, edi
  00010	99		 cdq
  00011	83 e2 03	 and	 edx, 3
  00014	03 c2		 add	 eax, edx
  00016	c1 f8 02	 sar	 eax, 2
  00019	8b d6		 mov	 edx, esi
  0001b	c6 44 0e ff 00	 mov	 BYTE PTR [esi+ecx-1], 0
  00020	85 c0		 test	 eax, eax
  00022	7e 0e		 jle	 SHORT $LN4@DECSTR
  00024	8b c8		 mov	 ecx, eax
$LL6@DECSTR:
  00026	81 32 ed ec eb
	ea		 xor	 DWORD PTR [edx], -353637139 ; eaebecedH
  0002c	83 c2 04	 add	 edx, 4
  0002f	49		 dec	 ecx
  00030	75 f4		 jne	 SHORT $LL6@DECSTR
$LN4@DECSTR:
  00032	c1 e0 02	 shl	 eax, 2
  00035	eb 17		 jmp	 SHORT $LN14@DECSTR
$LL3@DECSTR:
  00037	8b c8		 mov	 ecx, eax
  00039	81 e1 03 00 00
	80		 and	 ecx, -2147483645	; 80000003H
  0003f	79 05		 jns	 SHORT $LN13@DECSTR
  00041	49		 dec	 ecx
  00042	83 c9 fc	 or	 ecx, -4			; fffffffcH
  00045	41		 inc	 ecx
$LN13@DECSTR:
  00046	b2 ed		 mov	 dl, -19			; ffffffedH
  00048	2a d1		 sub	 dl, cl
  0004a	30 14 30	 xor	 BYTE PTR [eax+esi], dl
  0004d	40		 inc	 eax
$LN14@DECSTR:
  0004e	3b c7		 cmp	 eax, edi
  00050	7c e5		 jl	 SHORT $LL3@DECSTR
  00052	5f		 pop	 edi
  00053	5e		 pop	 esi
  00054	5d		 pop	 ebp
  00055	c3		 ret	 0
?_DECSTR@@YAXPADH@Z ENDP				; _DECSTR
_TEXT	ENDS
PUBLIC	?Init@tagCostumeEquipInfo@@QAEXXZ		; tagCostumeEquipInfo::Init
; Function compile flags: /Ogsp
; File d:\lost saga for developer\youtube\tutorial\source\src\lsclient\costumeenumtype.h
;	COMDAT ?Init@tagCostumeEquipInfo@@QAEXXZ
_TEXT	SEGMENT
?Init@tagCostumeEquipInfo@@QAEXXZ PROC			; tagCostumeEquipInfo::Init, COMDAT
; _this$ = ecx

; 31   : 		m_CostumeIdx = 0;

  00000	33 c0		 xor	 eax, eax
  00002	89 01		 mov	 DWORD PTR [ecx], eax

; 32   : 		m_CostumeCode = 0;

  00004	89 41 04	 mov	 DWORD PTR [ecx+4], eax

; 33   : 		m_Costume_Male_Custom = 0;  

  00007	89 41 08	 mov	 DWORD PTR [ecx+8], eax

; 34   : 		m_Costume_Female_Custom = 0;

  0000a	89 41 0c	 mov	 DWORD PTR [ecx+12], eax

; 35   : 	}

  0000d	c3		 ret	 0
?Init@tagCostumeEquipInfo@@QAEXXZ ENDP			; tagCostumeEquipInfo::Init
_TEXT	ENDS
PUBLIC	??0tagCostumeEquipInfo@@QAE@XZ			; tagCostumeEquipInfo::tagCostumeEquipInfo
; Function compile flags: /Ogsp
;	COMDAT ??0tagCostumeEquipInfo@@QAE@XZ
_TEXT	SEGMENT
??0tagCostumeEquipInfo@@QAE@XZ PROC			; tagCostumeEquipInfo::tagCostumeEquipInfo, COMDAT
; _this$ = ecx

; 37   : 	tagCostumeEquipInfo()

  00000	8b c1		 mov	 eax, ecx

; 38   : 	{
; 39   : 		Init();

  00002	33 c9		 xor	 ecx, ecx
  00004	89 08		 mov	 DWORD PTR [eax], ecx
  00006	89 48 04	 mov	 DWORD PTR [eax+4], ecx
  00009	89 48 08	 mov	 DWORD PTR [eax+8], ecx
  0000c	89 48 0c	 mov	 DWORD PTR [eax+12], ecx

; 40   : 	}

  0000f	c3		 ret	 0
??0tagCostumeEquipInfo@@QAE@XZ ENDP			; tagCostumeEquipInfo::tagCostumeEquipInfo
_TEXT	ENDS
PUBLIC	?Init@tagAccessoryEquipInfo@@QAEXXZ		; tagAccessoryEquipInfo::Init
; Function compile flags: /Ogsp
; File d:\lost saga for developer\youtube\tutorial\source\src\lsclient\accessoryenumtype.h
;	COMDAT ?Init@tagAccessoryEquipInfo@@QAEXXZ
_TEXT	SEGMENT
?Init@tagAccessoryEquipInfo@@QAEXXZ PROC		; tagAccessoryEquipInfo::Init, COMDAT
; _this$ = ecx

; 23   : 		m_iAccessoryIdx = 0;

  00000	33 c0		 xor	 eax, eax
  00002	89 01		 mov	 DWORD PTR [ecx], eax

; 24   : 		m_iAccessoryCode = 0;

  00004	89 41 04	 mov	 DWORD PTR [ecx+4], eax

; 25   : 		m_iRandomNumber = 0;

  00007	89 41 08	 mov	 DWORD PTR [ecx+8], eax

; 26   : 	}

  0000a	c3		 ret	 0
?Init@tagAccessoryEquipInfo@@QAEXXZ ENDP		; tagAccessoryEquipInfo::Init
_TEXT	ENDS
PUBLIC	??0tagAccessoryEquipInfo@@QAE@XZ		; tagAccessoryEquipInfo::tagAccessoryEquipInfo
; Function compile flags: /Ogsp
;	COMDAT ??0tagAccessoryEquipInfo@@QAE@XZ
_TEXT	SEGMENT
??0tagAccessoryEquipInfo@@QAE@XZ PROC			; tagAccessoryEquipInfo::tagAccessoryEquipInfo, COMDAT
; _this$ = ecx

; 28   : 	tagAccessoryEquipInfo()

  00000	8b c1		 mov	 eax, ecx

; 29   : 	{
; 30   : 		Init();

  00002	33 c9		 xor	 ecx, ecx
  00004	89 08		 mov	 DWORD PTR [eax], ecx
  00006	89 48 04	 mov	 DWORD PTR [eax+4], ecx
  00009	89 48 08	 mov	 DWORD PTR [eax+8], ecx

; 31   : 	}

  0000c	c3		 ret	 0
??0tagAccessoryEquipInfo@@QAE@XZ ENDP			; tagAccessoryEquipInfo::tagAccessoryEquipInfo
_TEXT	ENDS
PUBLIC	?GetMouse@ioApplication@@QAEPAVioLSMouse@@XZ	; ioApplication::GetMouse
; Function compile flags: /Ogsp
; File d:\lost saga for developer\youtube\tutorial\source\src\lsclient\ioapplication.h
;	COMDAT ?GetMouse@ioApplication@@QAEPAVioLSMouse@@XZ
_TEXT	SEGMENT
?GetMouse@ioApplication@@QAEPAVioLSMouse@@XZ PROC	; ioApplication::GetMouse, COMDAT
; _this$ = ecx

; 796  : 	inline ioLSMouse* GetMouse(){ return &m_Mouse;	}

  00000	8d 81 90 00 00
	00		 lea	 eax, DWORD PTR [ecx+144]
  00006	c3		 ret	 0
?GetMouse@ioApplication@@QAEPAVioLSMouse@@XZ ENDP	; ioApplication::GetMouse
_TEXT	ENDS
PUBLIC	?GetInventorySubManual@ioEtcItem@@QBEHXZ	; ioEtcItem::GetInventorySubManual
; Function compile flags: /Ogsp
; File d:\lost saga for developer\youtube\tutorial\source\src\lsclient\ioetcitem.h
;	COMDAT ?GetInventorySubManual@ioEtcItem@@QBEHXZ
_TEXT	SEGMENT
?GetInventorySubManual@ioEtcItem@@QBEHXZ PROC		; ioEtcItem::GetInventorySubManual, COMDAT
; _this$ = ecx

; 435  : 	inline int     GetInventorySubManual() const { return m_iInventorySubManual; }

  00000	8b 41 4c	 mov	 eax, DWORD PTR [ecx+76]
  00003	c3		 ret	 0
?GetInventorySubManual@ioEtcItem@@QBEHXZ ENDP		; ioEtcItem::GetInventorySubManual
_TEXT	ENDS
PUBLIC	?GetLimitClassTypeNum@ioEtcItemSoldierPackage@@QAEHXZ ; ioEtcItemSoldierPackage::GetLimitClassTypeNum
; Function compile flags: /Ogsp
;	COMDAT ?GetLimitClassTypeNum@ioEtcItemSoldierPackage@@QAEHXZ
_TEXT	SEGMENT
?GetLimitClassTypeNum@ioEtcItemSoldierPackage@@QAEHXZ PROC ; ioEtcItemSoldierPackage::GetLimitClassTypeNum, COMDAT
; _this$ = ecx

; 858  : 	inline int GetLimitClassTypeNum() { return m_iLimitClassTypeNum; }

  00000	8b 81 88 01 00
	00		 mov	 eax, DWORD PTR [ecx+392]
  00006	c3		 ret	 0
?GetLimitClassTypeNum@ioEtcItemSoldierPackage@@QAEHXZ ENDP ; ioEtcItemSoldierPackage::GetLimitClassTypeNum
_TEXT	ENDS
PUBLIC	??0NewShopPullDownItem@@QAE@XZ			; NewShopPullDownItem::NewShopPullDownItem
;	COMDAT xdata$x
; File d:\lost saga for developer\youtube\tutorial\source\src\lsclient\gui\newshopbuywnd.h
xdata$x	SEGMENT
__unwindtable$??0NewShopPullDownItem@@QAE@XZ DD 0ffffffffH
	DD	FLAT:__unwindfunclet$??0NewShopPullDownItem@@QAE@XZ$0
	DD	00H
	DD	FLAT:__unwindfunclet$??0NewShopPullDownItem@@QAE@XZ$1
__ehfuncinfo$??0NewShopPullDownItem@@QAE@XZ DD 019930522H
	DD	02H
	DD	FLAT:__unwindtable$??0NewShopPullDownItem@@QAE@XZ
	DD	2 DUP(00H)
	DD	2 DUP(00H)
	DD	00H
	DD	01H
; Function compile flags: /Ogsp
xdata$x	ENDS
;	COMDAT ??0NewShopPullDownItem@@QAE@XZ
_TEXT	SEGMENT
_this$ = -16						; size = 4
__$EHRec$ = -12						; size = 12
??0NewShopPullDownItem@@QAE@XZ PROC			; NewShopPullDownItem::NewShopPullDownItem, COMDAT
; _this$ = ecx

; 25   : 	NewShopPullDownItem()

  00000	6a 04		 push	 4
  00002	b8 00 00 00 00	 mov	 eax, __ehhandler$??0NewShopPullDownItem@@QAE@XZ
  00007	e8 00 00 00 00	 call	 __EH_prolog3
  0000c	8b f1		 mov	 esi, ecx
  0000e	89 75 f0	 mov	 DWORD PTR _this$[ebp], esi
  00011	8b 3d 00 00 00
	00		 mov	 edi, DWORD PTR __imp_??0ioHashString@@QAE@XZ
  00017	ff d7		 call	 edi
  00019	33 db		 xor	 ebx, ebx
  0001b	8d 4e 24	 lea	 ecx, DWORD PTR [esi+36]
  0001e	89 5d fc	 mov	 DWORD PTR __$EHRec$[ebp+8], ebx
  00021	ff d7		 call	 edi
  00023	8d 4e 3c	 lea	 ecx, DWORD PTR [esi+60]
  00026	c6 45 fc 01	 mov	 BYTE PTR __$EHRec$[ebp+8], 1
  0002a	ff d7		 call	 edi

; 26   : 	{
; 27   : 		m_iMagicCode = 0;

  0002c	89 5e 10	 mov	 DWORD PTR [esi+16], ebx

; 28   : 		m_dwTextColor= 0; 

  0002f	89 5e 14	 mov	 DWORD PTR [esi+20], ebx

; 29   : 		m_bGrowthCatalystItem = false;

  00032	88 5e 18	 mov	 BYTE PTR [esi+24], bl

; 30   : 		m_iGrowthCatalystLevel = 0;

  00035	89 5e 1c	 mov	 DWORD PTR [esi+28], ebx

; 31   : 		m_bCount = false;

  00038	88 5e 20	 mov	 BYTE PTR [esi+32], bl

; 32   : 		m_dwCntTextColor = 0;

  0003b	89 5e 34	 mov	 DWORD PTR [esi+52], ebx

; 33   : 		m_bPetLevel = false;

  0003e	88 5e 38	 mov	 BYTE PTR [esi+56], bl

; 34   : 		m_dwPetLevelTextColor = 0;

  00041	89 5e 4c	 mov	 DWORD PTR [esi+76], ebx

; 35   : 	}

  00044	8b c6		 mov	 eax, esi
  00046	e8 00 00 00 00	 call	 __EH_epilog3
  0004b	c3		 ret	 0
_TEXT	ENDS
;	COMDAT text$x
text$x	SEGMENT
__unwindfunclet$??0NewShopPullDownItem@@QAE@XZ$0:
  00000	8b 4d f0	 mov	 ecx, DWORD PTR _this$[ebp]
  00003	ff 25 00 00 00
	00		 jmp	 DWORD PTR __imp_??1ioHashString@@QAE@XZ
__unwindfunclet$??0NewShopPullDownItem@@QAE@XZ$1:
  00009	8b 4d f0	 mov	 ecx, DWORD PTR _this$[ebp]
  0000c	83 c1 24	 add	 ecx, 36			; 00000024H
  0000f	ff 25 00 00 00
	00		 jmp	 DWORD PTR __imp_??1ioHashString@@QAE@XZ
__ehhandler$??0NewShopPullDownItem@@QAE@XZ:
  00015	8b 54 24 08	 mov	 edx, DWORD PTR [esp+8]
  00019	8d 42 0c	 lea	 eax, DWORD PTR [edx+12]
  0001c	8b 4a ec	 mov	 ecx, DWORD PTR [edx-20]
  0001f	33 c8		 xor	 ecx, eax
  00021	e8 00 00 00 00	 call	 @__security_check_cookie@4
  00026	b8 00 00 00 00	 mov	 eax, OFFSET __ehfuncinfo$??0NewShopPullDownItem@@QAE@XZ
  0002b	e9 00 00 00 00	 jmp	 ___CxxFrameHandler3
text$x	ENDS
??0NewShopPullDownItem@@QAE@XZ ENDP			; NewShopPullDownItem::NewShopPullDownItem
PUBLIC	?GetOpenBtn@NewShopPullDownWnd@@QAEPAVioWnd@@XZ	; NewShopPullDownWnd::GetOpenBtn
; Function compile flags: /Ogsp
;	COMDAT ?GetOpenBtn@NewShopPullDownWnd@@QAEPAVioWnd@@XZ
_TEXT	SEGMENT
?GetOpenBtn@NewShopPullDownWnd@@QAEPAVioWnd@@XZ PROC	; NewShopPullDownWnd::GetOpenBtn, COMDAT
; _this$ = ecx

; 77   : 	ioWnd *GetOpenBtn(){ return m_pOpenBtn; }

  00000	8b 81 98 01 00
	00		 mov	 eax, DWORD PTR [ecx+408]
  00006	c3		 ret	 0
?GetOpenBtn@NewShopPullDownWnd@@QAEPAVioWnd@@XZ ENDP	; NewShopPullDownWnd::GetOpenBtn
_TEXT	ENDS
PUBLIC	?GetListArray@NewShopPullDownWnd@@QAEHXZ	; NewShopPullDownWnd::GetListArray
; Function compile flags: /Ogsp
;	COMDAT ?GetListArray@NewShopPullDownWnd@@QAEHXZ
_TEXT	SEGMENT
?GetListArray@NewShopPullDownWnd@@QAEHXZ PROC		; NewShopPullDownWnd::GetListArray, COMDAT
; _this$ = ecx

; 78   : 	int GetListArray(){ return m_iOverListIndex; }

  00000	8b 81 a0 01 00
	00		 mov	 eax, DWORD PTR [ecx+416]
  00006	c3		 ret	 0
?GetListArray@NewShopPullDownWnd@@QAEHXZ ENDP		; NewShopPullDownWnd::GetListArray
_TEXT	ENDS
PUBLIC	?IsReleaseHelm@NewShopHelpWnd@@QAE_NXZ		; NewShopHelpWnd::IsReleaseHelm
; Function compile flags: /Ogsp
;	COMDAT ?IsReleaseHelm@NewShopHelpWnd@@QAE_NXZ
_TEXT	SEGMENT
?IsReleaseHelm@NewShopHelpWnd@@QAE_NXZ PROC		; NewShopHelpWnd::IsReleaseHelm, COMDAT
; _this$ = ecx

; 230  : 	inline bool IsReleaseHelm(){ return m_bReleaseHelm; }

  00000	8a 81 a6 04 00
	00		 mov	 al, BYTE PTR [ecx+1190]
  00006	c3		 ret	 0
?IsReleaseHelm@NewShopHelpWnd@@QAE_NXZ ENDP		; NewShopHelpWnd::IsReleaseHelm
_TEXT	ENDS
PUBLIC	?IsReleaseAllItem@NewShopHelpWnd@@QAE_NXZ	; NewShopHelpWnd::IsReleaseAllItem
; Function compile flags: /Ogsp
;	COMDAT ?IsReleaseAllItem@NewShopHelpWnd@@QAE_NXZ
_TEXT	SEGMENT
?IsReleaseAllItem@NewShopHelpWnd@@QAE_NXZ PROC		; NewShopHelpWnd::IsReleaseAllItem, COMDAT
; _this$ = ecx

; 231  : 	inline bool IsReleaseAllItem(){ return m_bReleaseAllItem; }

  00000	8a 81 a7 04 00
	00		 mov	 al, BYTE PTR [ecx+1191]
  00006	c3		 ret	 0
?IsReleaseAllItem@NewShopHelpWnd@@QAE_NXZ ENDP		; NewShopHelpWnd::IsReleaseAllItem
_TEXT	ENDS
PUBLIC	?IsShopMotion@NewShopHelpWnd@@QAE_NXZ		; NewShopHelpWnd::IsShopMotion
; Function compile flags: /Ogsp
;	COMDAT ?IsShopMotion@NewShopHelpWnd@@QAE_NXZ
_TEXT	SEGMENT
?IsShopMotion@NewShopHelpWnd@@QAE_NXZ PROC		; NewShopHelpWnd::IsShopMotion, COMDAT
; _this$ = ecx

; 232  : 	inline bool IsShopMotion(){ return m_bShopMotion; }

  00000	8a 81 a8 04 00
	00		 mov	 al, BYTE PTR [ecx+1192]
  00006	c3		 ret	 0
?IsShopMotion@NewShopHelpWnd@@QAE_NXZ ENDP		; NewShopHelpWnd::IsShopMotion
_TEXT	ENDS
PUBLIC	??0PackageItem@@QAE@XZ				; PackageItem::PackageItem
; Function compile flags: /Ogsp
; File d:\lost saga for developer\youtube\tutorial\source\src\lsclient\gui\soldierpackagewnd.h
;	COMDAT ??0PackageItem@@QAE@XZ
_TEXT	SEGMENT
??0PackageItem@@QAE@XZ PROC				; PackageItem::PackageItem, COMDAT
; _this$ = ecx

; 20   : 	PackageItem()

  00000	56		 push	 esi
  00001	8b f1		 mov	 esi, ecx
  00003	ff 15 00 00 00
	00		 call	 DWORD PTR __imp_??0ioHashString@@QAE@XZ

; 21   : 	{
; 22   : 		m_iMagicCode = 0;

  00009	33 c0		 xor	 eax, eax
  0000b	89 46 10	 mov	 DWORD PTR [esi+16], eax

; 23   : 		m_bKeepItem  = false;

  0000e	66 89 46 14	 mov	 WORD PTR [esi+20], ax

; 24   : 		m_bBasicItem = false;
; 25   : 		m_nGradeType = 0;

  00012	89 46 18	 mov	 DWORD PTR [esi+24], eax

; 26   : 	}

  00015	8b c6		 mov	 eax, esi
  00017	5e		 pop	 esi
  00018	c3		 ret	 0
??0PackageItem@@QAE@XZ ENDP				; PackageItem::PackageItem
_TEXT	ENDS
PUBLIC	??RPackageItemSort@@QBE_NABUPackageItem@@0@Z	; PackageItemSort::operator()
; Function compile flags: /Ogsp
;	COMDAT ??RPackageItemSort@@QBE_NABUPackageItem@@0@Z
_TEXT	SEGMENT
_lhs$ = 8						; size = 4
_rhs$ = 12						; size = 4
??RPackageItemSort@@QBE_NABUPackageItem@@0@Z PROC	; PackageItemSort::operator(), COMDAT
; _this$ = ecx

; 34   : 	{

  00000	55		 push	 ebp
  00001	8b ec		 mov	 ebp, esp

; 35   : 		if( lhs.m_iMagicCode > rhs.m_iMagicCode )

  00003	8b 45 08	 mov	 eax, DWORD PTR _lhs$[ebp]
  00006	8b 40 10	 mov	 eax, DWORD PTR [eax+16]
  00009	8b 4d 0c	 mov	 ecx, DWORD PTR _rhs$[ebp]
  0000c	3b 41 10	 cmp	 eax, DWORD PTR [ecx+16]
  0000f	0f 9f c0	 setg	 al

; 36   : 			return true;
; 37   : 		return false;
; 38   : 	}

  00012	5d		 pop	 ebp
  00013	c2 08 00	 ret	 8
??RPackageItemSort@@QBE_NABUPackageItem@@0@Z ENDP	; PackageItemSort::operator()
_TEXT	ENDS
PUBLIC	?GetMagicCode@PackageItemBtn@@QAEHXZ		; PackageItemBtn::GetMagicCode
; Function compile flags: /Ogsp
;	COMDAT ?GetMagicCode@PackageItemBtn@@QAEHXZ
_TEXT	SEGMENT
?GetMagicCode@PackageItemBtn@@QAEHXZ PROC		; PackageItemBtn::GetMagicCode, COMDAT
; _this$ = ecx

; 56   : 	inline int GetMagicCode(){ return m_PackageItem.m_iMagicCode; }

  00000	8b 81 0c 02 00
	00		 mov	 eax, DWORD PTR [ecx+524]
  00006	c3		 ret	 0
?GetMagicCode@PackageItemBtn@@QAEHXZ ENDP		; PackageItemBtn::GetMagicCode
_TEXT	ENDS
PUBLIC	?GetKeepAndBasicItemBonus@PackageItemBtn@@QAEHXZ ; PackageItemBtn::GetKeepAndBasicItemBonus
; Function compile flags: /Ogsp
;	COMDAT ?GetKeepAndBasicItemBonus@PackageItemBtn@@QAEHXZ
_TEXT	SEGMENT
?GetKeepAndBasicItemBonus@PackageItemBtn@@QAEHXZ PROC	; PackageItemBtn::GetKeepAndBasicItemBonus, COMDAT
; _this$ = ecx

; 59   : 	inline int GetKeepAndBasicItemBonus(){ return m_iKeepAndBasicItemBonus; }

  00000	8b 81 18 02 00
	00		 mov	 eax, DWORD PTR [ecx+536]
  00006	c3		 ret	 0
?GetKeepAndBasicItemBonus@PackageItemBtn@@QAEHXZ ENDP	; PackageItemBtn::GetKeepAndBasicItemBonus
_TEXT	ENDS
PUBLIC	?GetPrivateID@ioMyInfo@@QBEABVioHashString@@XZ	; ioMyInfo::GetPrivateID
; Function compile flags: /Ogsp
; File d:\lost saga for developer\youtube\tutorial\source\src\lsclient\iomyinfo.h
;	COMDAT ?GetPrivateID@ioMyInfo@@QBEABVioHashString@@XZ
_TEXT	SEGMENT
?GetPrivateID@ioMyInfo@@QBEABVioHashString@@XZ PROC	; ioMyInfo::GetPrivateID, COMDAT
; _this$ = ecx

; 516  : 	const ioHashString& GetPrivateID() const { return m_user_data.m_private_id; }  

  00000	8d 41 0c	 lea	 eax, DWORD PTR [ecx+12]
  00003	c3		 ret	 0
?GetPrivateID@ioMyInfo@@QBEABVioHashString@@XZ ENDP	; ioMyInfo::GetPrivateID
_TEXT	ENDS
PUBLIC	?GetUserEtcItem@ioMyInfo@@QAEPAVioUserEtcItem@@XZ ; ioMyInfo::GetUserEtcItem
; Function compile flags: /Ogsp
;	COMDAT ?GetUserEtcItem@ioMyInfo@@QAEPAVioUserEtcItem@@XZ
_TEXT	SEGMENT
?GetUserEtcItem@ioMyInfo@@QAEPAVioUserEtcItem@@XZ PROC	; ioMyInfo::GetUserEtcItem, COMDAT
; _this$ = ecx

; 635  : 	ioUserEtcItem* GetUserEtcItem() { return &m_UserEtcItem; }

  00000	8d 81 44 01 00
	00		 lea	 eax, DWORD PTR [ecx+324]
  00006	c3		 ret	 0
?GetUserEtcItem@ioMyInfo@@QAEPAVioUserEtcItem@@XZ ENDP	; ioMyInfo::GetUserEtcItem
_TEXT	ENDS
PUBLIC	?GetCurMaxCharSlot@ioMyInfo@@QBEHXZ		; ioMyInfo::GetCurMaxCharSlot
; Function compile flags: /Ogsp
;	COMDAT ?GetCurMaxCharSlot@ioMyInfo@@QBEHXZ
_TEXT	SEGMENT
?GetCurMaxCharSlot@ioMyInfo@@QBEHXZ PROC		; ioMyInfo::GetCurMaxCharSlot, COMDAT
; _this$ = ecx

; 862  : 	inline int GetCurMaxCharSlot() const { return m_iCurMaxCharSlot; }

  00000	8b 81 80 08 00
	00		 mov	 eax, DWORD PTR [ecx+2176]
  00006	c3		 ret	 0
?GetCurMaxCharSlot@ioMyInfo@@QBEHXZ ENDP		; ioMyInfo::GetCurMaxCharSlot
_TEXT	ENDS
PUBLIC	?GetSetCode@ioSetItemInfo@@QBEKXZ		; ioSetItemInfo::GetSetCode
; Function compile flags: /Ogsp
; File d:\lost saga for developer\youtube\tutorial\source\src\lsclient\iosetiteminfo.h
;	COMDAT ?GetSetCode@ioSetItemInfo@@QBEKXZ
_TEXT	SEGMENT
?GetSetCode@ioSetItemInfo@@QBEKXZ PROC			; ioSetItemInfo::GetSetCode, COMDAT
; _this$ = ecx

; 116  : 	inline DWORD GetSetCode() const { return m_dwSetCode; }

  00000	8b 41 1c	 mov	 eax, DWORD PTR [ecx+28]
  00003	c3		 ret	 0
?GetSetCode@ioSetItemInfo@@QBEKXZ ENDP			; ioSetItemInfo::GetSetCode
_TEXT	ENDS
PUBLIC	?GetName@ioSetItemInfo@@QBEABVioHashString@@XZ	; ioSetItemInfo::GetName
; Function compile flags: /Ogsp
;	COMDAT ?GetName@ioSetItemInfo@@QBEABVioHashString@@XZ
_TEXT	SEGMENT
?GetName@ioSetItemInfo@@QBEABVioHashString@@XZ PROC	; ioSetItemInfo::GetName, COMDAT
; _this$ = ecx

; 117  : 	inline const ioHashString& GetName() const { return m_SetName; }

  00000	8d 41 08	 lea	 eax, DWORD PTR [ecx+8]
  00003	c3		 ret	 0
?GetName@ioSetItemInfo@@QBEABVioHashString@@XZ ENDP	; ioSetItemInfo::GetName
_TEXT	ENDS
PUBLIC	?GetPackageType@ioSetItemInfo@@QBE?AW4PackageType@1@XZ ; ioSetItemInfo::GetPackageType
; Function compile flags: /Ogsp
;	COMDAT ?GetPackageType@ioSetItemInfo@@QBE?AW4PackageType@1@XZ
_TEXT	SEGMENT
?GetPackageType@ioSetItemInfo@@QBE?AW4PackageType@1@XZ PROC ; ioSetItemInfo::GetPackageType, COMDAT
; _this$ = ecx

; 120  : 	inline PackageType  GetPackageType() const { return m_ePackageType; }

  00000	8b 41 24	 mov	 eax, DWORD PTR [ecx+36]
  00003	c3		 ret	 0
?GetPackageType@ioSetItemInfo@@QBE?AW4PackageType@1@XZ ENDP ; ioSetItemInfo::GetPackageType
_TEXT	ENDS
PUBLIC	?GetPreClickWnd@ioSP2GUIManager@@QAEPAVioWnd@@XZ ; ioSP2GUIManager::GetPreClickWnd
; Function compile flags: /Ogsp
; File d:\lost saga for developer\youtube\tutorial\source\src\lsclient\gui\iosp2guimanager.h
;	COMDAT ?GetPreClickWnd@ioSP2GUIManager@@QAEPAVioWnd@@XZ
_TEXT	SEGMENT
?GetPreClickWnd@ioSP2GUIManager@@QAEPAVioWnd@@XZ PROC	; ioSP2GUIManager::GetPreClickWnd, COMDAT
; _this$ = ecx

; 221  : 	ioWnd *GetPreClickWnd(){ return m_pPreClickWnd; }

  00000	8b 41 14	 mov	 eax, DWORD PTR [ecx+20]
  00003	c3		 ret	 0
?GetPreClickWnd@ioSP2GUIManager@@QAEPAVioWnd@@XZ ENDP	; ioSP2GUIManager::GetPreClickWnd
_TEXT	ENDS
PUBLIC	?size@?$vector@HV?$allocator@H@std@@@std@@QBEIXZ ; std::vector<int,std::allocator<int> >::size
; Function compile flags: /Ogsp
; File c:\program files (x86)\microsoft visual studio 10.0\vc\include\vector
;	COMDAT ?size@?$vector@HV?$allocator@H@std@@@std@@QBEIXZ
_TEXT	SEGMENT
?size@?$vector@HV?$allocator@H@std@@@std@@QBEIXZ PROC	; std::vector<int,std::allocator<int> >::size, COMDAT
; _this$ = ecx

; 879  : 		return (this->_Mylast - this->_Myfirst);

  00000	8b 41 04	 mov	 eax, DWORD PTR [ecx+4]
  00003	2b 01		 sub	 eax, DWORD PTR [ecx]
  00005	c1 f8 02	 sar	 eax, 2

; 880  : 		}

  00008	c3		 ret	 0
?size@?$vector@HV?$allocator@H@std@@@std@@QBEIXZ ENDP	; std::vector<int,std::allocator<int> >::size
_TEXT	ENDS
PUBLIC	??A?$vector@HV?$allocator@H@std@@@std@@QAEAAHI@Z ; std::vector<int,std::allocator<int> >::operator[]
; Function compile flags: /Ogsp
;	COMDAT ??A?$vector@HV?$allocator@H@std@@@std@@QAEAAHI@Z
_TEXT	SEGMENT
__Pos$ = 8						; size = 4
??A?$vector@HV?$allocator@H@std@@@std@@QAEAAHI@Z PROC	; std::vector<int,std::allocator<int> >::operator[], COMDAT
; _this$ = ecx

; 928  : 		{	// subscript mutable sequence

  00000	55		 push	 ebp
  00001	8b ec		 mov	 ebp, esp

; 929  :  #if _ITERATOR_DEBUG_LEVEL == 2
; 930  : 		if (size() <= _Pos)
; 931  : 			{	// report error
; 932  : 			_DEBUG_ERROR("vector subscript out of range");
; 933  : 			_SCL_SECURE_OUT_OF_RANGE;
; 934  : 			}
; 935  : 
; 936  :  #elif _ITERATOR_DEBUG_LEVEL == 1
; 937  : 		_SCL_SECURE_VALIDATE_RANGE(_Pos < size());
; 938  :  #endif /* _ITERATOR_DEBUG_LEVEL */
; 939  : 
; 940  : 		return (*(this->_Myfirst + _Pos));

  00003	8b 01		 mov	 eax, DWORD PTR [ecx]
  00005	8b 4d 08	 mov	 ecx, DWORD PTR __Pos$[ebp]
  00008	8d 04 88	 lea	 eax, DWORD PTR [eax+ecx*4]

; 941  : 		}

  0000b	5d		 pop	 ebp
  0000c	c2 04 00	 ret	 4
??A?$vector@HV?$allocator@H@std@@@std@@QAEAAHI@Z ENDP	; std::vector<int,std::allocator<int> >::operator[]
_TEXT	ENDS
PUBLIC	??_7?$CEncrypt@K@@6B@				; CEncrypt<unsigned long>::`vftable'
PUBLIC	??1?$CEncrypt@K@@UAE@XZ				; CEncrypt<unsigned long>::~CEncrypt<unsigned long>
PUBLIC	??_R4?$CEncrypt@K@@6B@				; CEncrypt<unsigned long>::`RTTI Complete Object Locator'
PUBLIC	??_R0?AV?$CEncrypt@K@@@8			; CEncrypt<unsigned long> `RTTI Type Descriptor'
PUBLIC	??_R3?$CEncrypt@K@@8				; CEncrypt<unsigned long>::`RTTI Class Hierarchy Descriptor'
PUBLIC	??_R2?$CEncrypt@K@@8				; CEncrypt<unsigned long>::`RTTI Base Class Array'
PUBLIC	??_R1A@?0A@EA@?$CEncrypt@K@@8			; CEncrypt<unsigned long>::`RTTI Base Class Descriptor at (0,-1,0,64)'
EXTRN	??1ccddaabb@@UAE@XZ:PROC			; ccddaabb::~ccddaabb
EXTRN	??_E?$CEncrypt@K@@UAEPAXI@Z:PROC		; CEncrypt<unsigned long>::`vector deleting destructor'
;	COMDAT ??_R1A@?0A@EA@?$CEncrypt@K@@8
; File d:\lost saga for developer\youtube\tutorial\source\src\lsclient\encryptvalue.h
rdata$r	SEGMENT
??_R1A@?0A@EA@?$CEncrypt@K@@8 DD FLAT:??_R0?AV?$CEncrypt@K@@@8 ; CEncrypt<unsigned long>::`RTTI Base Class Descriptor at (0,-1,0,64)'
	DD	00H
	DD	00H
	DD	0ffffffffH
	DD	00H
	DD	040H
	DD	FLAT:??_R3?$CEncrypt@K@@8
rdata$r	ENDS
;	COMDAT ??_R2?$CEncrypt@K@@8
rdata$r	SEGMENT
??_R2?$CEncrypt@K@@8 DD FLAT:??_R1A@?0A@EA@?$CEncrypt@K@@8 ; CEncrypt<unsigned long>::`RTTI Base Class Array'
rdata$r	ENDS
;	COMDAT ??_R3?$CEncrypt@K@@8
rdata$r	SEGMENT
??_R3?$CEncrypt@K@@8 DD 00H				; CEncrypt<unsigned long>::`RTTI Class Hierarchy Descriptor'
	DD	00H
	DD	01H
	DD	FLAT:??_R2?$CEncrypt@K@@8
rdata$r	ENDS
;	COMDAT ??_R0?AV?$CEncrypt@K@@@8
_DATA	SEGMENT
??_R0?AV?$CEncrypt@K@@@8 DD FLAT:??_7type_info@@6B@	; CEncrypt<unsigned long> `RTTI Type Descriptor'
	DD	00H
	DB	'.?AV?$CEncrypt@K@@', 00H
_DATA	ENDS
;	COMDAT ??_R4?$CEncrypt@K@@6B@
rdata$r	SEGMENT
??_R4?$CEncrypt@K@@6B@ DD 00H				; CEncrypt<unsigned long>::`RTTI Complete Object Locator'
	DD	00H
	DD	00H
	DD	FLAT:??_R0?AV?$CEncrypt@K@@@8
	DD	FLAT:??_R3?$CEncrypt@K@@8
rdata$r	ENDS
;	COMDAT ??_7?$CEncrypt@K@@6B@
CONST	SEGMENT
??_7?$CEncrypt@K@@6B@ DD FLAT:??_R4?$CEncrypt@K@@6B@	; CEncrypt<unsigned long>::`vftable'
	DD	FLAT:??_E?$CEncrypt@K@@UAEPAXI@Z
; Function compile flags: /Ogsp
CONST	ENDS
;	COMDAT ??1?$CEncrypt@K@@UAE@XZ
_TEXT	SEGMENT
??1?$CEncrypt@K@@UAE@XZ PROC				; CEncrypt<unsigned long>::~CEncrypt<unsigned long>, COMDAT
; _this$ = ecx

; 127  : 	{

  00000	c7 01 00 00 00
	00		 mov	 DWORD PTR [ecx], OFFSET ??_7?$CEncrypt@K@@6B@

; 128  : 	}

  00006	83 c1 0c	 add	 ecx, 12			; 0000000cH
  00009	e9 00 00 00 00	 jmp	 ??1ccddaabb@@UAE@XZ	; ccddaabb::~ccddaabb
??1?$CEncrypt@K@@UAE@XZ ENDP				; CEncrypt<unsigned long>::~CEncrypt<unsigned long>
_TEXT	ENDS
PUBLIC	??_7?$CEncrypt@H@@6B@				; CEncrypt<int>::`vftable'
PUBLIC	??1?$CEncrypt@H@@UAE@XZ				; CEncrypt<int>::~CEncrypt<int>
PUBLIC	??_R4?$CEncrypt@H@@6B@				; CEncrypt<int>::`RTTI Complete Object Locator'
PUBLIC	??_R0?AV?$CEncrypt@H@@@8			; CEncrypt<int> `RTTI Type Descriptor'
PUBLIC	??_R3?$CEncrypt@H@@8				; CEncrypt<int>::`RTTI Class Hierarchy Descriptor'
PUBLIC	??_R2?$CEncrypt@H@@8				; CEncrypt<int>::`RTTI Base Class Array'
PUBLIC	??_R1A@?0A@EA@?$CEncrypt@H@@8			; CEncrypt<int>::`RTTI Base Class Descriptor at (0,-1,0,64)'
EXTRN	??_E?$CEncrypt@H@@UAEPAXI@Z:PROC		; CEncrypt<int>::`vector deleting destructor'
;	COMDAT ??_R1A@?0A@EA@?$CEncrypt@H@@8
rdata$r	SEGMENT
??_R1A@?0A@EA@?$CEncrypt@H@@8 DD FLAT:??_R0?AV?$CEncrypt@H@@@8 ; CEncrypt<int>::`RTTI Base Class Descriptor at (0,-1,0,64)'
	DD	00H
	DD	00H
	DD	0ffffffffH
	DD	00H
	DD	040H
	DD	FLAT:??_R3?$CEncrypt@H@@8
rdata$r	ENDS
;	COMDAT ??_R2?$CEncrypt@H@@8
rdata$r	SEGMENT
??_R2?$CEncrypt@H@@8 DD FLAT:??_R1A@?0A@EA@?$CEncrypt@H@@8 ; CEncrypt<int>::`RTTI Base Class Array'
rdata$r	ENDS
;	COMDAT ??_R3?$CEncrypt@H@@8
rdata$r	SEGMENT
??_R3?$CEncrypt@H@@8 DD 00H				; CEncrypt<int>::`RTTI Class Hierarchy Descriptor'
	DD	00H
	DD	01H
	DD	FLAT:??_R2?$CEncrypt@H@@8
rdata$r	ENDS
;	COMDAT ??_R0?AV?$CEncrypt@H@@@8
_DATA	SEGMENT
??_R0?AV?$CEncrypt@H@@@8 DD FLAT:??_7type_info@@6B@	; CEncrypt<int> `RTTI Type Descriptor'
	DD	00H
	DB	'.?AV?$CEncrypt@H@@', 00H
_DATA	ENDS
;	COMDAT ??_R4?$CEncrypt@H@@6B@
rdata$r	SEGMENT
??_R4?$CEncrypt@H@@6B@ DD 00H				; CEncrypt<int>::`RTTI Complete Object Locator'
	DD	00H
	DD	00H
	DD	FLAT:??_R0?AV?$CEncrypt@H@@@8
	DD	FLAT:??_R3?$CEncrypt@H@@8
rdata$r	ENDS
;	COMDAT ??_7?$CEncrypt@H@@6B@
CONST	SEGMENT
??_7?$CEncrypt@H@@6B@ DD FLAT:??_R4?$CEncrypt@H@@6B@	; CEncrypt<int>::`vftable'
	DD	FLAT:??_E?$CEncrypt@H@@UAEPAXI@Z
; Function compile flags: /Ogsp
CONST	ENDS
;	COMDAT ??1?$CEncrypt@H@@UAE@XZ
_TEXT	SEGMENT
??1?$CEncrypt@H@@UAE@XZ PROC				; CEncrypt<int>::~CEncrypt<int>, COMDAT
; _this$ = ecx

; 127  : 	{

  00000	c7 01 00 00 00
	00		 mov	 DWORD PTR [ecx], OFFSET ??_7?$CEncrypt@H@@6B@

; 128  : 	}

  00006	83 c1 0c	 add	 ecx, 12			; 0000000cH
  00009	e9 00 00 00 00	 jmp	 ??1ccddaabb@@UAE@XZ	; ccddaabb::~ccddaabb
??1?$CEncrypt@H@@UAE@XZ ENDP				; CEncrypt<int>::~CEncrypt<int>
_TEXT	ENDS
PUBLIC	?empty@?$vector@UtagTextPiece@ioComplexStringPrinter@@V?$allocator@UtagTextPiece@ioComplexStringPrinter@@@std@@@std@@QBE_NXZ ; std::vector<ioComplexStringPrinter::tagTextPiece,std::allocator<ioComplexStringPrinter::tagTextPiece> >::empty
; Function compile flags: /Ogsp
; File c:\program files (x86)\microsoft visual studio 10.0\vc\include\vector
;	COMDAT ?empty@?$vector@UtagTextPiece@ioComplexStringPrinter@@V?$allocator@UtagTextPiece@ioComplexStringPrinter@@@std@@@std@@QBE_NXZ
_TEXT	SEGMENT
?empty@?$vector@UtagTextPiece@ioComplexStringPrinter@@V?$allocator@UtagTextPiece@ioComplexStringPrinter@@@std@@@std@@QBE_NXZ PROC ; std::vector<ioComplexStringPrinter::tagTextPiece,std::allocator<ioComplexStringPrinter::tagTextPiece> >::empty, COMDAT
; _this$ = ecx

; 889  : 		return (this->_Myfirst == this->_Mylast);

  00000	8b 01		 mov	 eax, DWORD PTR [ecx]
  00002	2b 41 04	 sub	 eax, DWORD PTR [ecx+4]
  00005	f7 d8		 neg	 eax
  00007	1b c0		 sbb	 eax, eax
  00009	40		 inc	 eax

; 890  : 		}

  0000a	c3		 ret	 0
?empty@?$vector@UtagTextPiece@ioComplexStringPrinter@@V?$allocator@UtagTextPiece@ioComplexStringPrinter@@@std@@@std@@QBE_NXZ ENDP ; std::vector<ioComplexStringPrinter::tagTextPiece,std::allocator<ioComplexStringPrinter::tagTextPiece> >::empty
_TEXT	ENDS
PUBLIC	?size@?$vector@PAUPriceData@ioClassPrice@@V?$allocator@PAUPriceData@ioClassPrice@@@std@@@std@@QBEIXZ ; std::vector<ioClassPrice::PriceData *,std::allocator<ioClassPrice::PriceData *> >::size
; Function compile flags: /Ogsp
;	COMDAT ?size@?$vector@PAUPriceData@ioClassPrice@@V?$allocator@PAUPriceData@ioClassPrice@@@std@@@std@@QBEIXZ
_TEXT	SEGMENT
?size@?$vector@PAUPriceData@ioClassPrice@@V?$allocator@PAUPriceData@ioClassPrice@@@std@@@std@@QBEIXZ PROC ; std::vector<ioClassPrice::PriceData *,std::allocator<ioClassPrice::PriceData *> >::size, COMDAT
; _this$ = ecx

; 879  : 		return (this->_Mylast - this->_Myfirst);

  00000	8b 41 04	 mov	 eax, DWORD PTR [ecx+4]
  00003	2b 01		 sub	 eax, DWORD PTR [ecx]
  00005	c1 f8 02	 sar	 eax, 2

; 880  : 		}

  00008	c3		 ret	 0
?size@?$vector@PAUPriceData@ioClassPrice@@V?$allocator@PAUPriceData@ioClassPrice@@@std@@@std@@QBEIXZ ENDP ; std::vector<ioClassPrice::PriceData *,std::allocator<ioClassPrice::PriceData *> >::size
; Function compile flags: /Ogsp
_TEXT	ENDS
;	COMDAT ??_G?$CEncrypt@K@@UAEPAXI@Z
_TEXT	SEGMENT
___flags$ = 8						; size = 4
??_G?$CEncrypt@K@@UAEPAXI@Z PROC			; CEncrypt<unsigned long>::`scalar deleting destructor', COMDAT
; _this$ = ecx
  00000	55		 push	 ebp
  00001	8b ec		 mov	 ebp, esp
  00003	56		 push	 esi
  00004	8b f1		 mov	 esi, ecx
  00006	8d 4e 0c	 lea	 ecx, DWORD PTR [esi+12]
  00009	c7 06 00 00 00
	00		 mov	 DWORD PTR [esi], OFFSET ??_7?$CEncrypt@K@@6B@
  0000f	e8 00 00 00 00	 call	 ??1ccddaabb@@UAE@XZ	; ccddaabb::~ccddaabb
  00014	f6 45 08 01	 test	 BYTE PTR ___flags$[ebp], 1
  00018	74 07		 je	 SHORT $LN1@scalar@4
  0001a	56		 push	 esi
  0001b	e8 00 00 00 00	 call	 ??3@YAXPAX@Z		; operator delete
  00020	59		 pop	 ecx
$LN1@scalar@4:
  00021	8b c6		 mov	 eax, esi
  00023	5e		 pop	 esi
  00024	5d		 pop	 ebp
  00025	c2 04 00	 ret	 4
??_G?$CEncrypt@K@@UAEPAXI@Z ENDP			; CEncrypt<unsigned long>::`scalar deleting destructor'
; Function compile flags: /Ogsp
_TEXT	ENDS
;	COMDAT ??_G?$CEncrypt@H@@UAEPAXI@Z
_TEXT	SEGMENT
___flags$ = 8						; size = 4
??_G?$CEncrypt@H@@UAEPAXI@Z PROC			; CEncrypt<int>::`scalar deleting destructor', COMDAT
; _this$ = ecx
  00000	55		 push	 ebp
  00001	8b ec		 mov	 ebp, esp
  00003	56		 push	 esi
  00004	8b f1		 mov	 esi, ecx
  00006	8d 4e 0c	 lea	 ecx, DWORD PTR [esi+12]
  00009	c7 06 00 00 00
	00		 mov	 DWORD PTR [esi], OFFSET ??_7?$CEncrypt@H@@6B@
  0000f	e8 00 00 00 00	 call	 ??1ccddaabb@@UAE@XZ	; ccddaabb::~ccddaabb
  00014	f6 45 08 01	 test	 BYTE PTR ___flags$[ebp], 1
  00018	74 07		 je	 SHORT $LN1@scalar@5
  0001a	56		 push	 esi
  0001b	e8 00 00 00 00	 call	 ??3@YAXPAX@Z		; operator delete
  00020	59		 pop	 ecx
$LN1@scalar@5:
  00021	8b c6		 mov	 eax, esi
  00023	5e		 pop	 esi
  00024	5d		 pop	 ebp
  00025	c2 04 00	 ret	 4
??_G?$CEncrypt@H@@UAEPAXI@Z ENDP			; CEncrypt<int>::`scalar deleting destructor'
_TEXT	ENDS
PUBLIC	??0?$allocator@H@std@@QAE@XZ			; std::allocator<int>::allocator<int>
; Function compile flags: /Ogsp
; File c:\program files (x86)\microsoft visual studio 10.0\vc\include\xmemory
;	COMDAT ??0?$allocator@H@std@@QAE@XZ
_TEXT	SEGMENT
??0?$allocator@H@std@@QAE@XZ PROC			; std::allocator<int>::allocator<int>, COMDAT
; _this$ = ecx

; 161  : 	_ALLOCATOR() _THROW0()

  00000	8b c1		 mov	 eax, ecx

; 162  : 		{	// construct default allocator (do nothing)
; 163  : 		}

  00002	c3		 ret	 0
??0?$allocator@H@std@@QAE@XZ ENDP			; std::allocator<int>::allocator<int>
_TEXT	ENDS
PUBLIC	??1?$_Vector_val@HV?$allocator@H@std@@@std@@QAE@XZ ; std::_Vector_val<int,std::allocator<int> >::~_Vector_val<int,std::allocator<int> >
; Function compile flags: /Ogsp
; File c:\program files (x86)\microsoft visual studio 10.0\vc\include\vector
;	COMDAT ??1?$_Vector_val@HV?$allocator@H@std@@@std@@QAE@XZ
_TEXT	SEGMENT
??1?$_Vector_val@HV?$allocator@H@std@@@std@@QAE@XZ PROC	; std::_Vector_val<int,std::allocator<int> >::~_Vector_val<int,std::allocator<int> >, COMDAT
; _this$ = ecx

; 434  : 		}

  00000	c3		 ret	 0
??1?$_Vector_val@HV?$allocator@H@std@@@std@@QAE@XZ ENDP	; std::_Vector_val<int,std::allocator<int> >::~_Vector_val<int,std::allocator<int> >
_TEXT	ENDS
PUBLIC	?EncryptValueToPool@?$CEncrypt@K@@AAEXPBD@Z	; CEncrypt<unsigned long>::EncryptValueToPool
EXTRN	?EncryptByte@ccddaabb@@QAEXPBDPADH@Z:PROC	; ccddaabb::EncryptByte
; Function compile flags: /Ogsp
; File d:\lost saga for developer\youtube\tutorial\source\src\lsclient\encryptvalue.h
;	COMDAT ?EncryptValueToPool@?$CEncrypt@K@@AAEXPBD@Z
_TEXT	SEGMENT
_value$ = 8						; size = 4
?EncryptValueToPool@?$CEncrypt@K@@AAEXPBD@Z PROC	; CEncrypt<unsigned long>::EncryptValueToPool, COMDAT
; _this$ = ecx

; 67   : 	{

  00000	55		 push	 ebp
  00001	8b ec		 mov	 ebp, esp

; 68   : 		m_RC5.EncryptByte( value, m_MemPool, max(m_ValueSize, DEFAULT_ENCRYPT) );

  00003	0f b7 41 06	 movzx	 eax, WORD PTR [ecx+6]
  00007	83 f8 04	 cmp	 eax, 4
  0000a	77 03		 ja	 SHORT $LN4@EncryptVal
  0000c	6a 04		 push	 4
  0000e	58		 pop	 eax
$LN4@EncryptVal:
  0000f	50		 push	 eax
  00010	8d 41 1c	 lea	 eax, DWORD PTR [ecx+28]
  00013	50		 push	 eax
  00014	ff 75 08	 push	 DWORD PTR _value$[ebp]
  00017	83 c1 0c	 add	 ecx, 12			; 0000000cH
  0001a	e8 00 00 00 00	 call	 ?EncryptByte@ccddaabb@@QAEXPBDPADH@Z ; ccddaabb::EncryptByte

; 69   : 		
; 70   : 	}

  0001f	5d		 pop	 ebp
  00020	c2 04 00	 ret	 4
?EncryptValueToPool@?$CEncrypt@K@@AAEXPBD@Z ENDP	; CEncrypt<unsigned long>::EncryptValueToPool
_TEXT	ENDS
PUBLIC	?Init@?$CEncrypt@K@@AAEXXZ			; CEncrypt<unsigned long>::Init
EXTRN	?Setup@ccddaabb@@QAEXPBDHH@Z:PROC		; ccddaabb::Setup
EXTRN	__imp__rand:PROC
EXTRN	__imp__timeGetTime@0:PROC
EXTRN	__imp__GetCurrentProcessId@0:PROC
; Function compile flags: /Ogsp
;	COMDAT ?Init@?$CEncrypt@K@@AAEXXZ
_TEXT	SEGMENT
_pid$ = -8						; size = 4
_tick$ = -4						; size = 4
?Init@?$CEncrypt@K@@AAEXXZ PROC				; CEncrypt<unsigned long>::Init, COMDAT
; _this$ = ecx

; 73   : 	{

  00000	55		 push	 ebp
  00001	8b ec		 mov	 ebp, esp
  00003	51		 push	 ecx
  00004	51		 push	 ecx
  00005	53		 push	 ebx
  00006	56		 push	 esi
  00007	57		 push	 edi
  00008	8b f1		 mov	 esi, ecx

; 74   : 		DWORD pid = GetCurrentProcessId();

  0000a	ff 15 00 00 00
	00		 call	 DWORD PTR __imp__GetCurrentProcessId@0
  00010	89 45 f8	 mov	 DWORD PTR _pid$[ebp], eax

; 75   : 		DWORD tick = timeGetTime();

  00013	ff 15 00 00 00
	00		 call	 DWORD PTR __imp__timeGetTime@0

; 76   : 		m_ValueSize    = sizeof(type);
; 77   : 		m_MemPoolPos   = (unsigned short)( rand()+pid+tick )%(MAX_MEM_POOL-m_ValueSize);

  00019	8b 3d 00 00 00
	00		 mov	 edi, DWORD PTR __imp__rand
  0001f	89 45 fc	 mov	 DWORD PTR _tick$[ebp], eax
  00022	6a 04		 push	 4
  00024	58		 pop	 eax
  00025	66 89 46 06	 mov	 WORD PTR [esi+6], ax
  00029	ff d7		 call	 edi
  0002b	03 45 f8	 add	 eax, DWORD PTR _pid$[ebp]
  0002e	0f b7 4e 06	 movzx	 ecx, WORD PTR [esi+6]
  00032	03 45 fc	 add	 eax, DWORD PTR _tick$[ebp]
  00035	6a 0c		 push	 12			; 0000000cH
  00037	0f b7 c0	 movzx	 eax, ax
  0003a	5b		 pop	 ebx
  0003b	99		 cdq
  0003c	2b d9		 sub	 ebx, ecx
  0003e	f7 fb		 idiv	 ebx
  00040	66 89 56 04	 mov	 WORD PTR [esi+4], dx

; 78   : 		m_EncryptSeed  = (char)( rand()+pid+tick )%256;

  00044	ff d7		 call	 edi
  00046	02 45 f8	 add	 al, BYTE PTR _pid$[ebp]
  00049	02 45 fc	 add	 al, BYTE PTR _tick$[ebp]
  0004c	0f be c0	 movsx	 eax, al
  0004f	25 ff 00 00 80	 and	 eax, -2147483393	; 800000ffH
  00054	79 07		 jns	 SHORT $LN8@Init
  00056	48		 dec	 eax
  00057	0d 00 ff ff ff	 or	 eax, -256		; ffffff00H
  0005c	40		 inc	 eax
$LN8@Init:
  0005d	88 46 08	 mov	 BYTE PTR [esi+8], al

; 79   : 
; 80   : 		for (int i = 0; i < MAX_MEM_POOL ; i++)

  00060	33 db		 xor	 ebx, ebx
$LL3@Init:

; 81   : 			m_MemPool[i] = (char)( rand()+pid+tick )%256; // 더미

  00062	ff d7		 call	 edi
  00064	02 45 f8	 add	 al, BYTE PTR _pid$[ebp]
  00067	02 45 fc	 add	 al, BYTE PTR _tick$[ebp]
  0006a	0f be c0	 movsx	 eax, al
  0006d	25 ff 00 00 80	 and	 eax, -2147483393	; 800000ffH
  00072	79 07		 jns	 SHORT $LN9@Init
  00074	48		 dec	 eax
  00075	0d 00 ff ff ff	 or	 eax, -256		; ffffff00H
  0007a	40		 inc	 eax
$LN9@Init:
  0007b	88 44 1e 1c	 mov	 BYTE PTR [esi+ebx+28], al
  0007f	43		 inc	 ebx
  00080	83 fb 0c	 cmp	 ebx, 12			; 0000000cH
  00083	7c dd		 jl	 SHORT $LL3@Init

; 82   : 
; 83   : 		//UJ 130913, 최적화: szKey 사용안하도록 간략화
; 84   : 		//char szKey[ccddaabb::KEY_SIZE];//="";
; 85   : 		//for (int i = 0; i < ccddaabb::KEY_SIZE  ; i++)
; 86   : 		//	szKey[i] = (char)( rand()+pid+tick )%256; // 더미
; 87   : 		m_RC5.Setup( NULL, pid, tick );

  00085	ff 75 fc	 push	 DWORD PTR _tick$[ebp]
  00088	8d 4e 0c	 lea	 ecx, DWORD PTR [esi+12]
  0008b	ff 75 f8	 push	 DWORD PTR _pid$[ebp]
  0008e	6a 00		 push	 0
  00090	e8 00 00 00 00	 call	 ?Setup@ccddaabb@@QAEXPBDHH@Z ; ccddaabb::Setup
  00095	5f		 pop	 edi
  00096	5e		 pop	 esi
  00097	5b		 pop	 ebx

; 88   : 
; 89   : #ifdef _NOTUSE
; 90   : 		m_value        = 0;
; 91   : 		EncryptValueToPool((char*)&m_value);
; 92   : 		Debug();
; 93   : #endif
; 94   : 	}

  00098	c9		 leave
  00099	c3		 ret	 0
?Init@?$CEncrypt@K@@AAEXXZ ENDP				; CEncrypt<unsigned long>::Init
_TEXT	ENDS
PUBLIC	?DecryptValueToPool@?$CEncrypt@K@@QAEXPAK@Z	; CEncrypt<unsigned long>::DecryptValueToPool
EXTRN	?DecryptByte@ccddaabb@@QBEXPBDPADH@Z:PROC	; ccddaabb::DecryptByte
; Function compile flags: /Ogsp
;	COMDAT ?DecryptValueToPool@?$CEncrypt@K@@QAEXPAK@Z
_TEXT	SEGMENT
_value$ = 8						; size = 4
?DecryptValueToPool@?$CEncrypt@K@@QAEXPAK@Z PROC	; CEncrypt<unsigned long>::DecryptValueToPool, COMDAT
; _this$ = ecx

; 1256 : 	{

  00000	55		 push	 ebp
  00001	8b ec		 mov	 ebp, esp
  00003	56		 push	 esi

; 1257 : 		m_RC5.DecryptByte( m_MemPool, m_TempMem, 4 );

  00004	8d 71 28	 lea	 esi, DWORD PTR [ecx+40]
  00007	6a 04		 push	 4
  00009	8d 41 1c	 lea	 eax, DWORD PTR [ecx+28]
  0000c	56		 push	 esi
  0000d	50		 push	 eax
  0000e	83 c1 0c	 add	 ecx, 12			; 0000000cH
  00011	e8 00 00 00 00	 call	 ?DecryptByte@ccddaabb@@QBEXPBDPADH@Z ; ccddaabb::DecryptByte

; 1258 : 		*value = *((DWORD*)m_TempMem);

  00016	8b 06		 mov	 eax, DWORD PTR [esi]
  00018	8b 4d 08	 mov	 ecx, DWORD PTR _value$[ebp]
  0001b	89 01		 mov	 DWORD PTR [ecx], eax
  0001d	5e		 pop	 esi

; 1259 : 	}

  0001e	5d		 pop	 ebp
  0001f	c2 04 00	 ret	 4
?DecryptValueToPool@?$CEncrypt@K@@QAEXPAK@Z ENDP	; CEncrypt<unsigned long>::DecryptValueToPool
_TEXT	ENDS
PUBLIC	?EncryptValueToPool@?$CEncrypt@H@@AAEXPBD@Z	; CEncrypt<int>::EncryptValueToPool
; Function compile flags: /Ogsp
;	COMDAT ?EncryptValueToPool@?$CEncrypt@H@@AAEXPBD@Z
_TEXT	SEGMENT
_value$ = 8						; size = 4
?EncryptValueToPool@?$CEncrypt@H@@AAEXPBD@Z PROC	; CEncrypt<int>::EncryptValueToPool, COMDAT
; _this$ = ecx

; 67   : 	{

  00000	55		 push	 ebp
  00001	8b ec		 mov	 ebp, esp

; 68   : 		m_RC5.EncryptByte( value, m_MemPool, max(m_ValueSize, DEFAULT_ENCRYPT) );

  00003	0f b7 41 06	 movzx	 eax, WORD PTR [ecx+6]
  00007	83 f8 04	 cmp	 eax, 4
  0000a	77 03		 ja	 SHORT $LN4@EncryptVal@2
  0000c	6a 04		 push	 4
  0000e	58		 pop	 eax
$LN4@EncryptVal@2:
  0000f	50		 push	 eax
  00010	8d 41 1c	 lea	 eax, DWORD PTR [ecx+28]
  00013	50		 push	 eax
  00014	ff 75 08	 push	 DWORD PTR _value$[ebp]
  00017	83 c1 0c	 add	 ecx, 12			; 0000000cH
  0001a	e8 00 00 00 00	 call	 ?EncryptByte@ccddaabb@@QAEXPBDPADH@Z ; ccddaabb::EncryptByte

; 69   : 		
; 70   : 	}

  0001f	5d		 pop	 ebp
  00020	c2 04 00	 ret	 4
?EncryptValueToPool@?$CEncrypt@H@@AAEXPBD@Z ENDP	; CEncrypt<int>::EncryptValueToPool
_TEXT	ENDS
PUBLIC	?Init@?$CEncrypt@H@@AAEXXZ			; CEncrypt<int>::Init
; Function compile flags: /Ogsp
;	COMDAT ?Init@?$CEncrypt@H@@AAEXXZ
_TEXT	SEGMENT
_pid$ = -8						; size = 4
_tick$ = -4						; size = 4
?Init@?$CEncrypt@H@@AAEXXZ PROC				; CEncrypt<int>::Init, COMDAT
; _this$ = ecx

; 73   : 	{

  00000	55		 push	 ebp
  00001	8b ec		 mov	 ebp, esp
  00003	51		 push	 ecx
  00004	51		 push	 ecx
  00005	53		 push	 ebx
  00006	56		 push	 esi
  00007	57		 push	 edi
  00008	8b f1		 mov	 esi, ecx

; 74   : 		DWORD pid = GetCurrentProcessId();

  0000a	ff 15 00 00 00
	00		 call	 DWORD PTR __imp__GetCurrentProcessId@0
  00010	89 45 f8	 mov	 DWORD PTR _pid$[ebp], eax

; 75   : 		DWORD tick = timeGetTime();

  00013	ff 15 00 00 00
	00		 call	 DWORD PTR __imp__timeGetTime@0

; 76   : 		m_ValueSize    = sizeof(type);
; 77   : 		m_MemPoolPos   = (unsigned short)( rand()+pid+tick )%(MAX_MEM_POOL-m_ValueSize);

  00019	8b 3d 00 00 00
	00		 mov	 edi, DWORD PTR __imp__rand
  0001f	89 45 fc	 mov	 DWORD PTR _tick$[ebp], eax
  00022	6a 04		 push	 4
  00024	58		 pop	 eax
  00025	66 89 46 06	 mov	 WORD PTR [esi+6], ax
  00029	ff d7		 call	 edi
  0002b	03 45 f8	 add	 eax, DWORD PTR _pid$[ebp]
  0002e	0f b7 4e 06	 movzx	 ecx, WORD PTR [esi+6]
  00032	03 45 fc	 add	 eax, DWORD PTR _tick$[ebp]
  00035	6a 0c		 push	 12			; 0000000cH
  00037	0f b7 c0	 movzx	 eax, ax
  0003a	5b		 pop	 ebx
  0003b	99		 cdq
  0003c	2b d9		 sub	 ebx, ecx
  0003e	f7 fb		 idiv	 ebx
  00040	66 89 56 04	 mov	 WORD PTR [esi+4], dx

; 78   : 		m_EncryptSeed  = (char)( rand()+pid+tick )%256;

  00044	ff d7		 call	 edi
  00046	02 45 f8	 add	 al, BYTE PTR _pid$[ebp]
  00049	02 45 fc	 add	 al, BYTE PTR _tick$[ebp]
  0004c	0f be c0	 movsx	 eax, al
  0004f	25 ff 00 00 80	 and	 eax, -2147483393	; 800000ffH
  00054	79 07		 jns	 SHORT $LN8@Init@2
  00056	48		 dec	 eax
  00057	0d 00 ff ff ff	 or	 eax, -256		; ffffff00H
  0005c	40		 inc	 eax
$LN8@Init@2:
  0005d	88 46 08	 mov	 BYTE PTR [esi+8], al

; 79   : 
; 80   : 		for (int i = 0; i < MAX_MEM_POOL ; i++)

  00060	33 db		 xor	 ebx, ebx
$LL3@Init@2:

; 81   : 			m_MemPool[i] = (char)( rand()+pid+tick )%256; // 더미

  00062	ff d7		 call	 edi
  00064	02 45 f8	 add	 al, BYTE PTR _pid$[ebp]
  00067	02 45 fc	 add	 al, BYTE PTR _tick$[ebp]
  0006a	0f be c0	 movsx	 eax, al
  0006d	25 ff 00 00 80	 and	 eax, -2147483393	; 800000ffH
  00072	79 07		 jns	 SHORT $LN9@Init@2
  00074	48		 dec	 eax
  00075	0d 00 ff ff ff	 or	 eax, -256		; ffffff00H
  0007a	40		 inc	 eax
$LN9@Init@2:
  0007b	88 44 1e 1c	 mov	 BYTE PTR [esi+ebx+28], al
  0007f	43		 inc	 ebx
  00080	83 fb 0c	 cmp	 ebx, 12			; 0000000cH
  00083	7c dd		 jl	 SHORT $LL3@Init@2

; 82   : 
; 83   : 		//UJ 130913, 최적화: szKey 사용안하도록 간략화
; 84   : 		//char szKey[ccddaabb::KEY_SIZE];//="";
; 85   : 		//for (int i = 0; i < ccddaabb::KEY_SIZE  ; i++)
; 86   : 		//	szKey[i] = (char)( rand()+pid+tick )%256; // 더미
; 87   : 		m_RC5.Setup( NULL, pid, tick );

  00085	ff 75 fc	 push	 DWORD PTR _tick$[ebp]
  00088	8d 4e 0c	 lea	 ecx, DWORD PTR [esi+12]
  0008b	ff 75 f8	 push	 DWORD PTR _pid$[ebp]
  0008e	6a 00		 push	 0
  00090	e8 00 00 00 00	 call	 ?Setup@ccddaabb@@QAEXPBDHH@Z ; ccddaabb::Setup
  00095	5f		 pop	 edi
  00096	5e		 pop	 esi
  00097	5b		 pop	 ebx

; 88   : 
; 89   : #ifdef _NOTUSE
; 90   : 		m_value        = 0;
; 91   : 		EncryptValueToPool((char*)&m_value);
; 92   : 		Debug();
; 93   : #endif
; 94   : 	}

  00098	c9		 leave
  00099	c3		 ret	 0
?Init@?$CEncrypt@H@@AAEXXZ ENDP				; CEncrypt<int>::Init
_TEXT	ENDS
PUBLIC	?DecryptValueToPool@?$CEncrypt@H@@QAEXPAH@Z	; CEncrypt<int>::DecryptValueToPool
; Function compile flags: /Ogsp
;	COMDAT ?DecryptValueToPool@?$CEncrypt@H@@QAEXPAH@Z
_TEXT	SEGMENT
_value$ = 8						; size = 4
?DecryptValueToPool@?$CEncrypt@H@@QAEXPAH@Z PROC	; CEncrypt<int>::DecryptValueToPool, COMDAT
; _this$ = ecx

; 837  : 	{

  00000	55		 push	 ebp
  00001	8b ec		 mov	 ebp, esp
  00003	56		 push	 esi

; 838  : 		m_RC5.DecryptByte( m_MemPool, m_TempMem, 4 );

  00004	8d 71 28	 lea	 esi, DWORD PTR [ecx+40]
  00007	6a 04		 push	 4
  00009	8d 41 1c	 lea	 eax, DWORD PTR [ecx+28]
  0000c	56		 push	 esi
  0000d	50		 push	 eax
  0000e	83 c1 0c	 add	 ecx, 12			; 0000000cH
  00011	e8 00 00 00 00	 call	 ?DecryptByte@ccddaabb@@QBEXPBDPADH@Z ; ccddaabb::DecryptByte

; 839  : 		*value = *((int*)m_TempMem);

  00016	8b 06		 mov	 eax, DWORD PTR [esi]
  00018	8b 4d 08	 mov	 ecx, DWORD PTR _value$[ebp]
  0001b	89 01		 mov	 DWORD PTR [ecx], eax
  0001d	5e		 pop	 esi

; 840  : 	}

  0001e	5d		 pop	 ebp
  0001f	c2 04 00	 ret	 4
?DecryptValueToPool@?$CEncrypt@H@@QAEXPAH@Z ENDP	; CEncrypt<int>::DecryptValueToPool
_TEXT	ENDS
PUBLIC	??0?$_Vector_const_iterator@V?$_Vector_val@HV?$allocator@H@std@@@std@@@std@@QAE@PAHPBU_Container_base0@1@@Z ; std::_Vector_const_iterator<std::_Vector_val<int,std::allocator<int> > >::_Vector_const_iterator<std::_Vector_val<int,std::allocator<int> > >
; Function compile flags: /Ogsp
; File c:\program files (x86)\microsoft visual studio 10.0\vc\include\vector
;	COMDAT ??0?$_Vector_const_iterator@V?$_Vector_val@HV?$allocator@H@std@@@std@@@std@@QAE@PAHPBU_Container_base0@1@@Z
_TEXT	SEGMENT
__Parg$ = 8						; size = 4
__Pvector$ = 12						; size = 4
??0?$_Vector_const_iterator@V?$_Vector_val@HV?$allocator@H@std@@@std@@@std@@QAE@PAHPBU_Container_base0@1@@Z PROC ; std::_Vector_const_iterator<std::_Vector_val<int,std::allocator<int> > >::_Vector_const_iterator<std::_Vector_val<int,std::allocator<int> > >, COMDAT
; _this$ = ecx

; 45   : 		{	// construct with pointer _Parg

  00000	55		 push	 ebp
  00001	8b ec		 mov	 ebp, esp
  00003	8b c1		 mov	 eax, ecx
  00005	8b 4d 08	 mov	 ecx, DWORD PTR __Parg$[ebp]
  00008	89 08		 mov	 DWORD PTR [eax], ecx

; 46   : 		this->_Adopt(_Pvector);
; 47   : 		}

  0000a	5d		 pop	 ebp
  0000b	c2 08 00	 ret	 8
??0?$_Vector_const_iterator@V?$_Vector_val@HV?$allocator@H@std@@@std@@@std@@QAE@PAHPBU_Container_base0@1@@Z ENDP ; std::_Vector_const_iterator<std::_Vector_val<int,std::allocator<int> > >::_Vector_const_iterator<std::_Vector_val<int,std::allocator<int> > >
_TEXT	ENDS
PUBLIC	??0?$_Vector_iterator@V?$_Vector_val@HV?$allocator@H@std@@@std@@@std@@QAE@PAHPBU_Container_base0@1@@Z ; std::_Vector_iterator<std::_Vector_val<int,std::allocator<int> > >::_Vector_iterator<std::_Vector_val<int,std::allocator<int> > >
; Function compile flags: /Ogsp
;	COMDAT ??0?$_Vector_iterator@V?$_Vector_val@HV?$allocator@H@std@@@std@@@std@@QAE@PAHPBU_Container_base0@1@@Z
_TEXT	SEGMENT
__Parg$ = 8						; size = 4
__Pvector$ = 12						; size = 4
??0?$_Vector_iterator@V?$_Vector_val@HV?$allocator@H@std@@@std@@@std@@QAE@PAHPBU_Container_base0@1@@Z PROC ; std::_Vector_iterator<std::_Vector_val<int,std::allocator<int> > >::_Vector_iterator<std::_Vector_val<int,std::allocator<int> > >, COMDAT
; _this$ = ecx

; 304  : 		{	// construct with pointer _Parg

  00000	55		 push	 ebp
  00001	8b ec		 mov	 ebp, esp
  00003	8b c1		 mov	 eax, ecx
  00005	8b 4d 08	 mov	 ecx, DWORD PTR __Parg$[ebp]
  00008	89 08		 mov	 DWORD PTR [eax], ecx

; 305  : 		}

  0000a	5d		 pop	 ebp
  0000b	c2 08 00	 ret	 8
??0?$_Vector_iterator@V?$_Vector_val@HV?$allocator@H@std@@@std@@@std@@QAE@PAHPBU_Container_base0@1@@Z ENDP ; std::_Vector_iterator<std::_Vector_val<int,std::allocator<int> > >::_Vector_iterator<std::_Vector_val<int,std::allocator<int> > >
_TEXT	ENDS
PUBLIC	??0?$allocator@H@std@@QAE@ABV01@@Z		; std::allocator<int>::allocator<int>
; Function compile flags: /Ogsp
; File c:\program files (x86)\microsoft visual studio 10.0\vc\include\xmemory
;	COMDAT ??0?$allocator@H@std@@QAE@ABV01@@Z
_TEXT	SEGMENT
___formal$ = 8						; size = 4
??0?$allocator@H@std@@QAE@ABV01@@Z PROC			; std::allocator<int>::allocator<int>, COMDAT
; _this$ = ecx

; 165  : 	_ALLOCATOR(const _ALLOCATOR<_Ty>&) _THROW0()

  00000	8b c1		 mov	 eax, ecx

; 166  : 		{	// construct by copying (do nothing)
; 167  : 		}

  00002	c2 04 00	 ret	 4
??0?$allocator@H@std@@QAE@ABV01@@Z ENDP			; std::allocator<int>::allocator<int>
_TEXT	ENDS
PUBLIC	?deallocate@?$allocator@H@std@@QAEXPAHI@Z	; std::allocator<int>::deallocate
; Function compile flags: /Ogsp
;	COMDAT ?deallocate@?$allocator@H@std@@QAEXPAHI@Z
_TEXT	SEGMENT
__Ptr$ = 8						; size = 4
___formal$ = 12						; size = 4
?deallocate@?$allocator@H@std@@QAEXPAHI@Z PROC		; std::allocator<int>::deallocate, COMDAT
; _this$ = ecx

; 181  : 		{	// deallocate object at _Ptr, ignore size

  00000	55		 push	 ebp
  00001	8b ec		 mov	 ebp, esp

; 182  : 		::operator delete(_Ptr);

  00003	ff 75 08	 push	 DWORD PTR __Ptr$[ebp]
  00006	e8 00 00 00 00	 call	 ??3@YAXPAX@Z		; operator delete
  0000b	59		 pop	 ecx

; 183  : 		}

  0000c	5d		 pop	 ebp
  0000d	c2 08 00	 ret	 8
?deallocate@?$allocator@H@std@@QAEXPAHI@Z ENDP		; std::allocator<int>::deallocate
_TEXT	ENDS
PUBLIC	?capacity@?$vector@HV?$allocator@H@std@@@std@@QBEIXZ ; std::vector<int,std::allocator<int> >::capacity
; Function compile flags: /Ogsp
; File c:\program files (x86)\microsoft visual studio 10.0\vc\include\vector
;	COMDAT ?capacity@?$vector@HV?$allocator@H@std@@@std@@QBEIXZ
_TEXT	SEGMENT
?capacity@?$vector@HV?$allocator@H@std@@@std@@QBEIXZ PROC ; std::vector<int,std::allocator<int> >::capacity, COMDAT
; _this$ = ecx

; 777  : 		return (this->_Myend - this->_Myfirst);

  00000	8b 41 08	 mov	 eax, DWORD PTR [ecx+8]
  00003	2b 01		 sub	 eax, DWORD PTR [ecx]
  00005	c1 f8 02	 sar	 eax, 2

; 778  : 		}

  00008	c3		 ret	 0
?capacity@?$vector@HV?$allocator@H@std@@@std@@QBEIXZ ENDP ; std::vector<int,std::allocator<int> >::capacity
_TEXT	ENDS
PUBLIC	?_Make_iter@?$vector@HV?$allocator@H@std@@@std@@QBE?AV?$_Vector_iterator@V?$_Vector_val@HV?$allocator@H@std@@@std@@@2@V?$_Vector_const_iterator@V?$_Vector_val@HV?$allocator@H@std@@@std@@@2@@Z ; std::vector<int,std::allocator<int> >::_Make_iter
; Function compile flags: /Ogsp
;	COMDAT ?_Make_iter@?$vector@HV?$allocator@H@std@@@std@@QBE?AV?$_Vector_iterator@V?$_Vector_val@HV?$allocator@H@std@@@std@@@2@V?$_Vector_const_iterator@V?$_Vector_val@HV?$allocator@H@std@@@std@@@2@@Z
_TEXT	SEGMENT
___$ReturnUdt$ = 8					; size = 4
__Where$ = 12						; size = 4
?_Make_iter@?$vector@HV?$allocator@H@std@@@std@@QBE?AV?$_Vector_iterator@V?$_Vector_val@HV?$allocator@H@std@@@std@@@2@V?$_Vector_const_iterator@V?$_Vector_val@HV?$allocator@H@std@@@std@@@2@@Z PROC ; std::vector<int,std::allocator<int> >::_Make_iter, COMDAT
; _this$ = ecx

; 801  : 		{	// make iterator from const_iterator

  00000	55		 push	 ebp
  00001	8b ec		 mov	 ebp, esp

; 802  : 		return (iterator(_Where._Ptr, this));

  00003	8b 45 08	 mov	 eax, DWORD PTR ___$ReturnUdt$[ebp]
  00006	8b 4d 0c	 mov	 ecx, DWORD PTR __Where$[ebp]
  00009	89 08		 mov	 DWORD PTR [eax], ecx

; 803  : 		}

  0000b	5d		 pop	 ebp
  0000c	c2 08 00	 ret	 8
?_Make_iter@?$vector@HV?$allocator@H@std@@@std@@QBE?AV?$_Vector_iterator@V?$_Vector_val@HV?$allocator@H@std@@@std@@@2@V?$_Vector_const_iterator@V?$_Vector_val@HV?$allocator@H@std@@@std@@@2@@Z ENDP ; std::vector<int,std::allocator<int> >::_Make_iter
_TEXT	ENDS
PUBLIC	?_Xlen@?$vector@HV?$allocator@H@std@@@std@@IBEXXZ ; std::vector<int,std::allocator<int> >::_Xlen
; Function compile flags: /Ogsp
;	COMDAT ?_Xlen@?$vector@HV?$allocator@H@std@@@std@@IBEXXZ
_TEXT	SEGMENT
?_Xlen@?$vector@HV?$allocator@H@std@@@std@@IBEXXZ PROC	; std::vector<int,std::allocator<int> >::_Xlen, COMDAT
; _this$ = ecx

; 1427 : 		_Xlength_error("vector<T> too long");

  00000	68 00 00 00 00	 push	 OFFSET ??_C@_0BD@OLBABOEK@vector?$DMT?$DO?5too?5long?$AA@
  00005	ff 15 00 00 00
	00		 call	 DWORD PTR __imp_?_Xlength_error@std@@YAXPBD@Z
$LN4@Xlen@4:
$LN3@Xlen@4:
  0000b	cc		 int	 3
?_Xlen@?$vector@HV?$allocator@H@std@@@std@@IBEXXZ ENDP	; std::vector<int,std::allocator<int> >::_Xlen
_TEXT	ENDS
PUBLIC	?max_size@?$allocator@H@std@@QBEIXZ		; std::allocator<int>::max_size
; Function compile flags: /Ogsp
; File c:\program files (x86)\microsoft visual studio 10.0\vc\include\xmemory
;	COMDAT ?max_size@?$allocator@H@std@@QBEIXZ
_TEXT	SEGMENT
?max_size@?$allocator@H@std@@QBEIXZ PROC		; std::allocator<int>::max_size, COMDAT
; _this$ = ecx

; 218  : 		_SIZT _Count = (_SIZT)(-1) / sizeof (_Ty);
; 219  : 		return (0 < _Count ? _Count : 1);

  00000	b8 ff ff ff 3f	 mov	 eax, 1073741823		; 3fffffffH

; 220  : 		}

  00005	c3		 ret	 0
?max_size@?$allocator@H@std@@QBEIXZ ENDP		; std::allocator<int>::max_size
_TEXT	ENDS
PUBLIC	?_Compat@?$_Vector_const_iterator@V?$_Vector_val@HV?$allocator@H@std@@@std@@@std@@QBEXABV12@@Z ; std::_Vector_const_iterator<std::_Vector_val<int,std::allocator<int> > >::_Compat
; Function compile flags: /Ogsp
; File c:\program files (x86)\microsoft visual studio 10.0\vc\include\vector
;	COMDAT ?_Compat@?$_Vector_const_iterator@V?$_Vector_val@HV?$allocator@H@std@@@std@@@std@@QBEXABV12@@Z
_TEXT	SEGMENT
___formal$ = 8						; size = 4
?_Compat@?$_Vector_const_iterator@V?$_Vector_val@HV?$allocator@H@std@@@std@@@std@@QBEXABV12@@Z PROC ; std::_Vector_const_iterator<std::_Vector_val<int,std::allocator<int> > >::_Compat, COMDAT
; _this$ = ecx

; 253  : 		}

  00000	c2 04 00	 ret	 4
?_Compat@?$_Vector_const_iterator@V?$_Vector_val@HV?$allocator@H@std@@@std@@@std@@QBEXABV12@@Z ENDP ; std::_Vector_const_iterator<std::_Vector_val<int,std::allocator<int> > >::_Compat
_TEXT	ENDS
PUBLIC	??$_Allocate@H@std@@YAPAHIPAH@Z			; std::_Allocate<int>
; Function compile flags: /Ogsp
; File c:\program files (x86)\microsoft visual studio 10.0\vc\include\xmemory
;	COMDAT ??$_Allocate@H@std@@YAPAHIPAH@Z
_TEXT	SEGMENT
$T514300 = -12						; size = 12
$T514304 = 8						; size = 4
__Count$ = 8						; size = 4
___formal$ = 12						; size = 4
??$_Allocate@H@std@@YAPAHIPAH@Z PROC			; std::_Allocate<int>, COMDAT

; 30   : 	{	// allocate storage for _Count elements of type _Ty

  00000	55		 push	 ebp
  00001	8b ec		 mov	 ebp, esp

; 31   : 	void *_Ptr = 0;
; 32   : 
; 33   : 	if (_Count <= 0)

  00003	8b 4d 08	 mov	 ecx, DWORD PTR __Count$[ebp]
  00006	83 ec 0c	 sub	 esp, 12			; 0000000cH
  00009	33 c0		 xor	 eax, eax
  0000b	85 c9		 test	 ecx, ecx

; 34   : 		_Count = 0;
; 35   : 	else if (((_SIZT)(-1) / sizeof (_Ty) < _Count)

  0000d	74 3e		 je	 SHORT $LN5@Allocate@4

; 36   : 		|| (_Ptr = ::operator new(_Count * sizeof (_Ty))) == 0)

  0000f	81 f9 ff ff ff
	3f		 cmp	 ecx, 1073741823		; 3fffffffH
  00015	77 10		 ja	 SHORT $LN1@Allocate@4
  00017	8b c1		 mov	 eax, ecx
  00019	c1 e0 02	 shl	 eax, 2
  0001c	50		 push	 eax
  0001d	e8 00 00 00 00	 call	 ??2@YAPAXI@Z		; operator new
  00022	59		 pop	 ecx
  00023	85 c0		 test	 eax, eax

; 38   : 
; 39   : 	return ((_Ty _FARQ *)_Ptr);

  00025	75 26		 jne	 SHORT $LN5@Allocate@4
$LN1@Allocate@4:

; 37   : 		_THROW_NCEE(bad_alloc, 0);

  00027	83 65 08 00	 and	 DWORD PTR $T514304[ebp], 0
  0002b	8d 45 08	 lea	 eax, DWORD PTR $T514304[ebp]
  0002e	50		 push	 eax
  0002f	8d 4d f4	 lea	 ecx, DWORD PTR $T514300[ebp]
  00032	ff 15 00 00 00
	00		 call	 DWORD PTR __imp_??0exception@std@@QAE@ABQBD@Z
  00038	68 00 00 00 00	 push	 OFFSET __TI2?AVbad_alloc@std@@
  0003d	8d 45 f4	 lea	 eax, DWORD PTR $T514300[ebp]
  00040	50		 push	 eax
  00041	c7 45 f4 00 00
	00 00		 mov	 DWORD PTR $T514300[ebp], OFFSET ??_7bad_alloc@std@@6B@
  00048	e8 00 00 00 00	 call	 __CxxThrowException@8
$LN10@Allocate@4:
$LN5@Allocate@4:

; 40   : 	}

  0004d	c9		 leave
  0004e	c3		 ret	 0
$LN9@Allocate@4:
??$_Allocate@H@std@@YAPAHIPAH@Z ENDP			; std::_Allocate<int>
_TEXT	ENDS
EXTRN	__imp_??0exception@std@@QAE@ABV01@@Z:PROC
; Function compile flags: /Ogsp
;	COMDAT ??0bad_alloc@std@@QAE@ABV01@@Z
_TEXT	SEGMENT
___that$ = 8						; size = 4
??0bad_alloc@std@@QAE@ABV01@@Z PROC			; std::bad_alloc::bad_alloc, COMDAT
; _this$ = ecx
  00000	55		 push	 ebp
  00001	8b ec		 mov	 ebp, esp
  00003	56		 push	 esi
  00004	ff 75 08	 push	 DWORD PTR ___that$[ebp]
  00007	8b f1		 mov	 esi, ecx
  00009	ff 15 00 00 00
	00		 call	 DWORD PTR __imp_??0exception@std@@QAE@ABV01@@Z
  0000f	c7 06 00 00 00
	00		 mov	 DWORD PTR [esi], OFFSET ??_7bad_alloc@std@@6B@
  00015	8b c6		 mov	 eax, esi
  00017	5e		 pop	 esi
  00018	5d		 pop	 ebp
  00019	c2 04 00	 ret	 4
??0bad_alloc@std@@QAE@ABV01@@Z ENDP			; std::bad_alloc::bad_alloc
_TEXT	ENDS
PUBLIC	??$_Val_type@PAH@std@@YAPAHPAH@Z		; std::_Val_type<int *>
; Function compile flags: /Ogsp
; File c:\program files (x86)\microsoft visual studio 10.0\vc\include\xutility
;	COMDAT ??$_Val_type@PAH@std@@YAPAHPAH@Z
_TEXT	SEGMENT
___formal$ = 8						; size = 4
??$_Val_type@PAH@std@@YAPAHPAH@Z PROC			; std::_Val_type<int *>, COMDAT

; 790  : 	return (0);

  00000	33 c0		 xor	 eax, eax

; 791  : 	}

  00002	c3		 ret	 0
??$_Val_type@PAH@std@@YAPAHPAH@Z ENDP			; std::_Val_type<int *>
_TEXT	ENDS
PUBLIC	??$_Ptr_cat@HH@std@@YA?AU_Scalar_ptr_iterator_tag@0@PAH0@Z ; std::_Ptr_cat<int,int>
; Function compile flags: /Ogsp
;	COMDAT ??$_Ptr_cat@HH@std@@YA?AU_Scalar_ptr_iterator_tag@0@PAH0@Z
_TEXT	SEGMENT
__Cat$ = -1						; size = 1
___formal$ = 8						; size = 4
___formal$ = 12						; size = 4
??$_Ptr_cat@HH@std@@YA?AU_Scalar_ptr_iterator_tag@0@PAH0@Z PROC ; std::_Ptr_cat<int,int>, COMDAT

; 516  : 	{	// return pointer category from pointers

  00000	55		 push	 ebp
  00001	8b ec		 mov	 ebp, esp
  00003	51		 push	 ecx

; 517  : 	typename _Ptr_cat_helper<_Elem1, _Elem2>::_Type _Cat;
; 518  : 	return (_Cat);

  00004	8a 45 ff	 mov	 al, BYTE PTR __Cat$[ebp]

; 519  : 	}

  00007	c9		 leave
  00008	c3		 ret	 0
??$_Ptr_cat@HH@std@@YA?AU_Scalar_ptr_iterator_tag@0@PAH0@Z ENDP ; std::_Ptr_cat<int,int>
_TEXT	ENDS
PUBLIC	??$_Move@PAHPAH@std@@YAPAHPAH00U_Scalar_ptr_iterator_tag@0@@Z ; std::_Move<int *,int *>
EXTRN	__imp__memmove:PROC
; Function compile flags: /Ogsp
;	COMDAT ??$_Move@PAHPAH@std@@YAPAHPAH00U_Scalar_ptr_iterator_tag@0@@Z
_TEXT	SEGMENT
__First$ = 8						; size = 4
__Last$ = 12						; size = 4
__Dest$ = 16						; size = 4
___formal$ = 20						; size = 1
??$_Move@PAHPAH@std@@YAPAHPAH00U_Scalar_ptr_iterator_tag@0@@Z PROC ; std::_Move<int *,int *>, COMDAT

; 2522 : 	{	// move [_First, _Last) to [_Dest, ...), pointers to scalars

  00000	55		 push	 ebp
  00001	8b ec		 mov	 ebp, esp
  00003	56		 push	 esi

; 2523 : 	ptrdiff_t _Count = _Last - _First;

  00004	8b 75 0c	 mov	 esi, DWORD PTR __Last$[ebp]
  00007	2b 75 08	 sub	 esi, DWORD PTR __First$[ebp]
  0000a	57		 push	 edi

; 2524 : 	_CSTD memmove(&*_Dest, &*_First,
; 2525 : 		_Count * sizeof (*_First));

  0000b	8b 7d 10	 mov	 edi, DWORD PTR __Dest$[ebp]
  0000e	c1 fe 02	 sar	 esi, 2
  00011	c1 e6 02	 shl	 esi, 2
  00014	56		 push	 esi
  00015	ff 75 08	 push	 DWORD PTR __First$[ebp]
  00018	57		 push	 edi
  00019	ff 15 00 00 00
	00		 call	 DWORD PTR __imp__memmove
  0001f	83 c4 0c	 add	 esp, 12			; 0000000cH

; 2526 : 	return (_Dest + _Count);

  00022	8d 04 3e	 lea	 eax, DWORD PTR [esi+edi]
  00025	5f		 pop	 edi
  00026	5e		 pop	 esi

; 2527 : 	}

  00027	5d		 pop	 ebp
  00028	c3		 ret	 0
??$_Move@PAHPAH@std@@YAPAHPAH00U_Scalar_ptr_iterator_tag@0@@Z ENDP ; std::_Move<int *,int *>
_TEXT	ENDS
PUBLIC	??$_Destroy_range@V?$allocator@H@std@@@std@@YAXPAH0AAV?$allocator@H@0@U_Scalar_ptr_iterator_tag@0@@Z ; std::_Destroy_range<std::allocator<int> >
; Function compile flags: /Ogsp
; File c:\program files (x86)\microsoft visual studio 10.0\vc\include\xmemory
;	COMDAT ??$_Destroy_range@V?$allocator@H@std@@@std@@YAXPAH0AAV?$allocator@H@0@U_Scalar_ptr_iterator_tag@0@@Z
_TEXT	SEGMENT
__First$ = 8						; size = 4
__Last$ = 12						; size = 4
__Al$ = 16						; size = 4
___formal$ = 20						; size = 1
??$_Destroy_range@V?$allocator@H@std@@@std@@YAXPAH0AAV?$allocator@H@0@U_Scalar_ptr_iterator_tag@0@@Z PROC ; std::_Destroy_range<std::allocator<int> >, COMDAT

; 105  : 	}

  00000	c3		 ret	 0
??$_Destroy_range@V?$allocator@H@std@@@std@@YAXPAH0AAV?$allocator@H@0@U_Scalar_ptr_iterator_tag@0@@Z ENDP ; std::_Destroy_range<std::allocator<int> >
_TEXT	ENDS
PUBLIC	??$_Uninit_move@HHH@std@@YAPAHPAH00AAV?$allocator@H@0@0U_Scalar_ptr_iterator_tag@0@@Z ; std::_Uninit_move<int,int,int>
; Function compile flags: /Ogsp
; File c:\program files (x86)\microsoft visual studio 10.0\vc\include\memory
;	COMDAT ??$_Uninit_move@HHH@std@@YAPAHPAH00AAV?$allocator@H@0@0U_Scalar_ptr_iterator_tag@0@@Z
_TEXT	SEGMENT
__First$ = 8						; size = 4
__Last$ = 12						; size = 4
__Dest$ = 16						; size = 4
___formal$ = 20						; size = 4
___formal$ = 24						; size = 4
___formal$ = 28						; size = 1
??$_Uninit_move@HHH@std@@YAPAHPAH00AAV?$allocator@H@0@0U_Scalar_ptr_iterator_tag@0@@Z PROC ; std::_Uninit_move<int,int,int>, COMDAT

; 456  : 	{	// move [_First, _Last) to raw _Dest, scalar type

  00000	55		 push	 ebp
  00001	8b ec		 mov	 ebp, esp
  00003	56		 push	 esi

; 457  : 	_DEBUG_RANGE(_First, _Last);
; 458  : 	_DEBUG_POINTER(_Dest);
; 459  : 	size_t _Count = (size_t)(_Last - _First);

  00004	8b 75 0c	 mov	 esi, DWORD PTR __Last$[ebp]
  00007	2b 75 08	 sub	 esi, DWORD PTR __First$[ebp]
  0000a	c1 fe 02	 sar	 esi, 2

; 460  : 	return ((_Ty2 *)_CSTD memmove(&*_Dest, &*_First,
; 461  : 		_Count * sizeof (*_First)) + _Count);	// NB: non-overlapping move

  0000d	c1 e6 02	 shl	 esi, 2
  00010	56		 push	 esi
  00011	ff 75 08	 push	 DWORD PTR __First$[ebp]
  00014	ff 75 10	 push	 DWORD PTR __Dest$[ebp]
  00017	ff 15 00 00 00
	00		 call	 DWORD PTR __imp__memmove
  0001d	83 c4 0c	 add	 esp, 12			; 0000000cH
  00020	03 c6		 add	 eax, esi
  00022	5e		 pop	 esi

; 462  : 	}

  00023	5d		 pop	 ebp
  00024	c3		 ret	 0
??$_Uninit_move@HHH@std@@YAPAHPAH00AAV?$allocator@H@0@0U_Scalar_ptr_iterator_tag@0@@Z ENDP ; std::_Uninit_move<int,int,int>
_TEXT	ENDS
PUBLIC	??$forward@H@std@@YA$$QAHAAH@Z			; std::forward<int>
; Function compile flags: /Ogsp
; File c:\program files (x86)\microsoft visual studio 10.0\vc\include\utility
;	COMDAT ??$forward@H@std@@YA$$QAHAAH@Z
_TEXT	SEGMENT
__Arg$ = 8						; size = 4
??$forward@H@std@@YA$$QAHAAH@Z PROC			; std::forward<int>, COMDAT

; 78   : 	{	// forward _Arg, given explicitly specified type parameter

  00000	55		 push	 ebp
  00001	8b ec		 mov	 ebp, esp

; 79   : 	return ((_Ty&&)_Arg);

  00003	8b 45 08	 mov	 eax, DWORD PTR __Arg$[ebp]

; 80   : 	}

  00006	5d		 pop	 ebp
  00007	c3		 ret	 0
??$forward@H@std@@YA$$QAHAAH@Z ENDP			; std::forward<int>
_TEXT	ENDS
PUBLIC	?iwm_show@PackagePullDownWnd@@UAEXXZ		; PackagePullDownWnd::iwm_show
EXTRN	__imp_?GetWidth@ioWnd@@QBEHXZ:PROC
EXTRN	__imp_?ShowWnd@ioWnd@@QAEXXZ:PROC
EXTRN	__imp_?FindChildWnd@ioWnd@@QAEPAV1@K@Z:PROC
; Function compile flags: /Ogsp
; File d:\lost saga for developer\youtube\tutorial\source\src\lsclient\gui\soldierpackagewnd.cpp
;	COMDAT ?iwm_show@PackagePullDownWnd@@UAEXXZ
_TEXT	SEGMENT
?iwm_show@PackagePullDownWnd@@UAEXXZ PROC		; PackagePullDownWnd::iwm_show, COMDAT
; _this$ = ecx

; 113  : {

  00000	56		 push	 esi
  00001	8b f1		 mov	 esi, ecx

; 114  : 	if( m_PullDownItem.empty() )

  00003	8b 86 7c 01 00
	00		 mov	 eax, DWORD PTR [esi+380]
  00009	3b 86 80 01 00
	00		 cmp	 eax, DWORD PTR [esi+384]
  0000f	75 07		 jne	 SHORT $LN5@iwm_show
  00011	5e		 pop	 esi

; 115  : 	{
; 116  : 		HideWnd();

  00012	ff 25 00 00 00
	00		 jmp	 DWORD PTR __imp_?HideWnd@ioWnd@@QAEXXZ
$LN5@iwm_show:
  00018	53		 push	 ebx
  00019	57		 push	 edi

; 117  : 		return;
; 118  : 	}
; 119  : 
; 120  : 	m_pScrollWnd = FindChildWnd( ID_VERT_SCROLL );

  0001a	68 e8 03 00 00	 push	 1000			; 000003e8H
  0001f	ff 15 00 00 00
	00		 call	 DWORD PTR __imp_?FindChildWnd@ioWnd@@QAEPAV1@K@Z

; 121  : 
; 122  : 	// 스크롤 UI
; 123  : 	m_iCurPage = 0;

  00025	83 a6 94 01 00
	00 00		 and	 DWORD PTR [esi+404], 0
  0002c	8b f8		 mov	 edi, eax
  0002e	89 be 8c 01 00
	00		 mov	 DWORD PTR [esi+396], edi

; 124  : 	int iItemSize = m_PullDownItem.size();

  00034	8b 86 80 01 00
	00		 mov	 eax, DWORD PTR [esi+384]
  0003a	2b 86 7c 01 00
	00		 sub	 eax, DWORD PTR [esi+380]
  00040	6a 50		 push	 80			; 00000050H
  00042	99		 cdq
  00043	59		 pop	 ecx
  00044	f7 f9		 idiv	 ecx
  00046	8b d8		 mov	 ebx, eax

; 125  : 	if( iItemSize > m_iItemMaxPage )

  00048	8b 86 78 01 00
	00		 mov	 eax, DWORD PTR [esi+376]
  0004e	3b d8		 cmp	 ebx, eax
  00050	7e 30		 jle	 SHORT $LN4@iwm_show

; 126  : 	{
; 127  : 		ioScroll *pScroll = (ioScroll*)m_pScrollWnd;
; 128  : 		if( pScroll )

  00052	85 ff		 test	 edi, edi
  00054	74 38		 je	 SHORT $LN1@iwm_show

; 129  : 		{
; 130  : 			int iTotalList = (int)iItemSize - ( m_iItemMaxPage - 1 );
; 131  : 			pScroll->SetScrollRange( 0, iTotalList );

  00056	8b 17		 mov	 edx, DWORD PTR [edi]
  00058	8b cb		 mov	 ecx, ebx
  0005a	2b c8		 sub	 ecx, eax
  0005c	41		 inc	 ecx
  0005d	51		 push	 ecx
  0005e	6a 00		 push	 0
  00060	8b cf		 mov	 ecx, edi
  00062	ff 92 30 01 00
	00		 call	 DWORD PTR [edx+304]

; 132  : 			pScroll->SetScrollPos( m_iCurPage );

  00068	ff b6 94 01 00
	00		 push	 DWORD PTR [esi+404]
  0006e	8b 07		 mov	 eax, DWORD PTR [edi]
  00070	8b cf		 mov	 ecx, edi
  00072	ff 90 38 01 00
	00		 call	 DWORD PTR [eax+312]

; 133  : 			pScroll->ShowWnd();

  00078	8b cf		 mov	 ecx, edi
  0007a	ff 15 00 00 00
	00		 call	 DWORD PTR __imp_?ShowWnd@ioWnd@@QAEXXZ

; 134  : 		}
; 135  : 	}

  00080	eb 0c		 jmp	 SHORT $LN1@iwm_show
$LN4@iwm_show:

; 136  : 	else if( m_pScrollWnd )

  00082	85 ff		 test	 edi, edi
  00084	74 08		 je	 SHORT $LN1@iwm_show

; 137  : 	{
; 138  : 		m_pScrollWnd->HideWnd();

  00086	8b cf		 mov	 ecx, edi
  00088	ff 15 00 00 00
	00		 call	 DWORD PTR __imp_?HideWnd@ioWnd@@QAEXXZ
$LN1@iwm_show:

; 139  : 	}
; 140  : 
; 141  : 	// 윈도우 사이즈
; 142  : 	SetSize( GetWidth(), m_iStartHGap + m_iEndHGap + ( m_iItemHSize * min( m_iItemMaxPage, iItemSize ) ) );

  0008e	8b 86 78 01 00
	00		 mov	 eax, DWORD PTR [esi+376]
  00094	8b 8e 74 01 00
	00		 mov	 ecx, DWORD PTR [esi+372]
  0009a	8b 3e		 mov	 edi, DWORD PTR [esi]
  0009c	3b c3		 cmp	 eax, ebx
  0009e	0f 4d c3	 cmovge	 eax, ebx
  000a1	0f af c8	 imul	 ecx, eax
  000a4	03 8e 70 01 00
	00		 add	 ecx, DWORD PTR [esi+368]
  000aa	03 8e 6c 01 00
	00		 add	 ecx, DWORD PTR [esi+364]
  000b0	51		 push	 ecx
  000b1	8b ce		 mov	 ecx, esi
  000b3	ff 15 00 00 00
	00		 call	 DWORD PTR __imp_?GetWidth@ioWnd@@QBEHXZ
  000b9	50		 push	 eax
  000ba	8b ce		 mov	 ecx, esi
  000bc	ff 57 2c	 call	 DWORD PTR [edi+44]

; 143  : 	SetCheckParentOutSide( true );

  000bf	6a 01		 push	 1
  000c1	8b ce		 mov	 ecx, esi
  000c3	ff 15 00 00 00
	00		 call	 DWORD PTR __imp_?SetCheckParentOutSide@ioWnd@@QAEX_N@Z
  000c9	5f		 pop	 edi
  000ca	5b		 pop	 ebx
  000cb	5e		 pop	 esi

; 144  : }

  000cc	c3		 ret	 0
?iwm_show@PackagePullDownWnd@@UAEXXZ ENDP		; PackagePullDownWnd::iwm_show
_TEXT	ENDS
PUBLIC	?PrevClickCheck@PackagePullDownWnd@@IAE_NXZ	; PackagePullDownWnd::PrevClickCheck
EXTRN	__imp_?GetParent@ioWnd@@QAEPAV1@XZ:PROC
; Function compile flags: /Ogsp
;	COMDAT ?PrevClickCheck@PackagePullDownWnd@@IAE_NXZ
_TEXT	SEGMENT
?PrevClickCheck@PackagePullDownWnd@@IAE_NXZ PROC	; PackagePullDownWnd::PrevClickCheck, COMDAT
; _this$ = ecx

; 179  : {

  00000	56		 push	 esi
  00001	57		 push	 edi
  00002	8b f9		 mov	 edi, ecx

; 180  : 	ioWnd *pPreClick = g_GUIMgr.GetPreClickWnd();

  00004	e8 00 00 00 00	 call	 ?GetSingleton@ioSP2GUIManager@@SAAAV1@XZ ; ioSP2GUIManager::GetSingleton
  00009	8b 70 14	 mov	 esi, DWORD PTR [eax+20]

; 181  : 	if( !pPreClick ) return false;

  0000c	85 f6		 test	 esi, esi
  0000e	75 04		 jne	 SHORT $LN5@PrevClickC@2
$LN10@PrevClickC@2:
  00010	32 c0		 xor	 al, al
  00012	eb 29		 jmp	 SHORT $LN1@PrevClickC@2
$LN5@PrevClickC@2:

; 182  : 	if( pPreClick == m_pOpenBtn ) return false;

  00014	3b b7 90 01 00
	00		 cmp	 esi, DWORD PTR [edi+400]
  0001a	74 f4		 je	 SHORT $LN10@PrevClickC@2

; 183  : 	if( pPreClick == this ) return false;

  0001c	3b f7		 cmp	 esi, edi
  0001e	74 f0		 je	 SHORT $LN10@PrevClickC@2

; 184  : 	if( pPreClick->GetParent() == m_pScrollWnd ) return false;

  00020	8b ce		 mov	 ecx, esi
  00022	ff 15 00 00 00
	00		 call	 DWORD PTR __imp_?GetParent@ioWnd@@QAEPAV1@XZ
  00028	3b 87 8c 01 00
	00		 cmp	 eax, DWORD PTR [edi+396]
  0002e	74 e0		 je	 SHORT $LN10@PrevClickC@2

; 185  : 	if( pPreClick->GetParent() == this ) return false;

  00030	8b ce		 mov	 ecx, esi
  00032	ff 15 00 00 00
	00		 call	 DWORD PTR __imp_?GetParent@ioWnd@@QAEPAV1@XZ
  00038	3b c7		 cmp	 eax, edi
  0003a	0f 95 c0	 setne	 al
$LN1@PrevClickC@2:

; 186  : 
; 187  : 	return true;
; 188  : }

  0003d	5f		 pop	 edi
  0003e	5e		 pop	 esi
  0003f	c3		 ret	 0
?PrevClickCheck@PackagePullDownWnd@@IAE_NXZ ENDP	; PackagePullDownWnd::PrevClickCheck
_TEXT	ENDS
PUBLIC	__$ArrayPad$
PUBLIC	?OnProcess@PackagePullDownWnd@@MAEXM@Z		; PackagePullDownWnd::OnProcess
EXTRN	__imp_?IsLBtnUp@ioMouse@@QBE_NXZ:PROC
EXTRN	__imp__PtInRect@12:PROC
EXTRN	__imp_?GetMousePos@ioMouse@@QBEABUtagPOINT@@XZ:PROC
EXTRN	?GetSingleton@ioApplication@@SAAAV1@XZ:PROC	; ioApplication::GetSingleton
EXTRN	___security_cookie:DWORD
; Function compile flags: /Ogsp
;	COMDAT ?OnProcess@PackagePullDownWnd@@MAEXM@Z
_TEXT	SEGMENT
_iXPos$ = -44						; size = 4
_iYPos$ = -40						; size = 4
_iMaxItem$ = -36					; size = 4
_iStart$ = -32						; size = 4
_i$507598 = -28						; size = 4
_iWidth$507603 = -24					; size = 4
_rcNameRect$507606 = -20				; size = 16
__$ArrayPad$ = -4					; size = 4
_fTimePerSec$ = 8					; size = 4
?OnProcess@PackagePullDownWnd@@MAEXM@Z PROC		; PackagePullDownWnd::OnProcess, COMDAT
; _this$ = ecx

; 191  : {

  00000	55		 push	 ebp
  00001	8b ec		 mov	 ebp, esp
  00003	83 ec 2c	 sub	 esp, 44			; 0000002cH
  00006	a1 00 00 00 00	 mov	 eax, DWORD PTR ___security_cookie
  0000b	33 c5		 xor	 eax, ebp
  0000d	89 45 fc	 mov	 DWORD PTR __$ArrayPad$[ebp], eax
  00010	56		 push	 esi
  00011	8b f1		 mov	 esi, ecx

; 192  : 	if( !IsShow() ) return;

  00013	ff 15 00 00 00
	00		 call	 DWORD PTR __imp_?IsShow@ioWnd@@QBE_NXZ
  00019	84 c0		 test	 al, al
  0001b	0f 84 2e 01 00
	00		 je	 $LN1@OnProcess

; 193  : 
; 194  : 	m_iOverListIndex = -1;

  00021	83 8e 98 01 00
	00 ff		 or	 DWORD PTR [esi+408], -1

; 195  : 	// 다른 곳에서 클릭이 일어났는지 확인
; 196  : 	if( PrevClickCheck() )

  00028	8b ce		 mov	 ecx, esi
  0002a	e8 00 00 00 00	 call	 ?PrevClickCheck@PackagePullDownWnd@@IAE_NXZ ; PackagePullDownWnd::PrevClickCheck

; 197  : 	{
; 198  : 		HideWnd();

  0002f	8b ce		 mov	 ecx, esi
  00031	84 c0		 test	 al, al
  00033	74 0b		 je	 SHORT $LN10@OnProcess
  00035	ff 15 00 00 00
	00		 call	 DWORD PTR __imp_?HideWnd@ioWnd@@QAEXXZ

; 199  : 		return;

  0003b	e9 0f 01 00 00	 jmp	 $LN1@OnProcess
$LN10@OnProcess:
  00040	53		 push	 ebx

; 200  : 	}
; 201  : 
; 202  : 	int iXPos, iYPos;
; 203  : 	iXPos = GetDerivedPosX();

  00041	ff 15 00 00 00
	00		 call	 DWORD PTR __imp_?GetDerivedPosX@ioWnd@@QBEHXZ

; 204  : 	iYPos = GetDerivedPosY();

  00047	8b ce		 mov	 ecx, esi
  00049	89 45 d4	 mov	 DWORD PTR _iXPos$[ebp], eax
  0004c	ff 15 00 00 00
	00		 call	 DWORD PTR __imp_?GetDerivedPosY@ioWnd@@QBEHXZ
  00052	89 45 d8	 mov	 DWORD PTR _iYPos$[ebp], eax

; 205  : 
; 206  : 	ioLSMouse *pMouse = g_App.GetMouse();

  00055	e8 00 00 00 00	 call	 ?GetSingleton@ioApplication@@SAAAV1@XZ ; ioApplication::GetSingleton
  0005a	8b d8		 mov	 ebx, eax

; 207  : 
; 208  : 	int iMaxItem = m_PullDownItem.size();

  0005c	8b 86 80 01 00
	00		 mov	 eax, DWORD PTR [esi+384]
  00062	2b 86 7c 01 00
	00		 sub	 eax, DWORD PTR [esi+380]
  00068	6a 50		 push	 80			; 00000050H
  0006a	99		 cdq
  0006b	59		 pop	 ecx
  0006c	f7 f9		 idiv	 ecx

; 209  : 	int iStart   = m_iCurPage;
; 210  : 	for(int i = 0;i < m_iItemMaxPage;i++,iStart++)

  0006e	83 65 e4 00	 and	 DWORD PTR _i$507598[ebp], 0
  00072	83 be 78 01 00
	00 00		 cmp	 DWORD PTR [esi+376], 0
  00079	89 45 dc	 mov	 DWORD PTR _iMaxItem$[ebp], eax
  0007c	8b 86 94 01 00
	00		 mov	 eax, DWORD PTR [esi+404]
  00082	89 45 e0	 mov	 DWORD PTR _iStart$[ebp], eax
  00085	0f 8e c3 00 00
	00		 jle	 $LN22@OnProcess
  0008b	57		 push	 edi
$LL21@OnProcess:

; 211  : 	{
; 212  : 		if( iStart >= iMaxItem ) continue;

  0008c	8b 7d dc	 mov	 edi, DWORD PTR _iMaxItem$[ebp]
  0008f	39 7d e0	 cmp	 DWORD PTR _iStart$[ebp], edi
  00092	7d 68		 jge	 SHORT $LN8@OnProcess

; 213  : 
; 214  : 		int iWidth = GetWidth();

  00094	8b ce		 mov	 ecx, esi
  00096	ff 15 00 00 00
	00		 call	 DWORD PTR __imp_?GetWidth@ioWnd@@QBEHXZ
  0009c	89 45 e8	 mov	 DWORD PTR _iWidth$507603[ebp], eax

; 215  : 		if( iMaxItem > m_iItemMaxPage )

  0009f	3b be 78 01 00
	00		 cmp	 edi, DWORD PTR [esi+376]
  000a5	7e 06		 jle	 SHORT $LN5@OnProcess

; 216  : 		{	
; 217  : 			iWidth -= 33;

  000a7	83 6d e8 21	 sub	 DWORD PTR _iWidth$507603[ebp], 33 ; 00000021H

; 218  : 		}
; 219  : 		else

  000ab	eb 04		 jmp	 SHORT $LN4@OnProcess
$LN5@OnProcess:

; 220  : 		{	
; 221  : 			iWidth -= 8;

  000ad	83 6d e8 08	 sub	 DWORD PTR _iWidth$507603[ebp], 8
$LN4@OnProcess:

; 222  : 		}
; 223  : 
; 224  : 		RECT rcNameRect;
; 225  : 		rcNameRect.left = iXPos + 4;
; 226  : 		rcNameRect.top  = iYPos + m_iStartHGap + i * m_iItemHSize;

  000b1	8b 96 74 01 00
	00		 mov	 edx, DWORD PTR [esi+372]
  000b7	8b 7d d4	 mov	 edi, DWORD PTR _iXPos$[ebp]
  000ba	8b ca		 mov	 ecx, edx
  000bc	0f af 4d e4	 imul	 ecx, DWORD PTR _i$507598[ebp]
  000c0	03 8e 6c 01 00
	00		 add	 ecx, DWORD PTR [esi+364]
  000c6	83 c7 04	 add	 edi, 4
  000c9	03 4d d8	 add	 ecx, DWORD PTR _iYPos$[ebp]
  000cc	89 7d ec	 mov	 DWORD PTR _rcNameRect$507606[ebp], edi

; 227  : 		rcNameRect.right  = rcNameRect.left + iWidth;

  000cf	03 7d e8	 add	 edi, DWORD PTR _iWidth$507603[ebp]

; 228  : 		rcNameRect.bottom = rcNameRect.top + m_iItemHSize;

  000d2	03 d1		 add	 edx, ecx
  000d4	89 4d f0	 mov	 DWORD PTR _rcNameRect$507606[ebp+4], ecx

; 229  : 
; 230  : 		if( ::PtInRect( &rcNameRect, pMouse->GetMousePos() ) )

  000d7	8d 8b 90 00 00
	00		 lea	 ecx, DWORD PTR [ebx+144]
  000dd	89 7d f4	 mov	 DWORD PTR _rcNameRect$507606[ebp+8], edi
  000e0	89 55 f8	 mov	 DWORD PTR _rcNameRect$507606[ebp+12], edx
  000e3	ff 15 00 00 00
	00		 call	 DWORD PTR __imp_?GetMousePos@ioMouse@@QBEABUtagPOINT@@XZ
  000e9	ff 70 04	 push	 DWORD PTR [eax+4]
  000ec	ff 30		 push	 DWORD PTR [eax]
  000ee	8d 45 ec	 lea	 eax, DWORD PTR _rcNameRect$507606[ebp]
  000f1	50		 push	 eax
  000f2	ff 15 00 00 00
	00		 call	 DWORD PTR __imp__PtInRect@12
  000f8	85 c0		 test	 eax, eax
  000fa	75 17		 jne	 SHORT $LN19@OnProcess
$LN8@OnProcess:

; 209  : 	int iStart   = m_iCurPage;
; 210  : 	for(int i = 0;i < m_iItemMaxPage;i++,iStart++)

  000fc	ff 45 e4	 inc	 DWORD PTR _i$507598[ebp]
  000ff	8b 45 e4	 mov	 eax, DWORD PTR _i$507598[ebp]
  00102	ff 45 e0	 inc	 DWORD PTR _iStart$[ebp]
  00105	3b 86 78 01 00
	00		 cmp	 eax, DWORD PTR [esi+376]
  0010b	0f 8c 7b ff ff
	ff		 jl	 $LL21@OnProcess

; 229  : 
; 230  : 		if( ::PtInRect( &rcNameRect, pMouse->GetMousePos() ) )

  00111	eb 3a		 jmp	 SHORT $LN23@OnProcess
$LN19@OnProcess:

; 231  : 		{
; 232  : 			m_iOverListIndex = iStart;

  00113	8b 7d e0	 mov	 edi, DWORD PTR _iStart$[ebp]

; 233  : 
; 234  : 			if( pMouse->IsLBtnUp() )

  00116	8d 8b 90 00 00
	00		 lea	 ecx, DWORD PTR [ebx+144]
  0011c	89 be 98 01 00
	00		 mov	 DWORD PTR [esi+408], edi
  00122	ff 15 00 00 00
	00		 call	 DWORD PTR __imp_?IsLBtnUp@ioMouse@@QBE_NXZ

; 235  : 			{
; 236  : 				GetParent()->iwm_command( this, IOBN_BTNUP, iStart );

  00128	8b ce		 mov	 ecx, esi
  0012a	84 c0		 test	 al, al
  0012c	74 0b		 je	 SHORT $LN2@OnProcess
  0012e	ff 15 00 00 00
	00		 call	 DWORD PTR __imp_?GetParent@ioWnd@@QAEPAV1@XZ
  00134	57		 push	 edi
  00135	6a 11		 push	 17			; 00000011H

; 237  : 			}
; 238  : 			else

  00137	eb 09		 jmp	 SHORT $LN24@OnProcess
$LN2@OnProcess:

; 239  : 			{
; 240  : 				GetParent()->iwm_command( this, IOWN_OVERED, iStart );

  00139	ff 15 00 00 00
	00		 call	 DWORD PTR __imp_?GetParent@ioWnd@@QAEPAV1@XZ
  0013f	57		 push	 edi
  00140	6a 04		 push	 4
$LN24@OnProcess:
  00142	8b 10		 mov	 edx, DWORD PTR [eax]
  00144	56		 push	 esi
  00145	8b c8		 mov	 ecx, eax
  00147	ff 92 8c 00 00
	00		 call	 DWORD PTR [edx+140]
$LN23@OnProcess:
  0014d	5f		 pop	 edi
$LN22@OnProcess:
  0014e	5b		 pop	 ebx
$LN1@OnProcess:

; 241  : 			}
; 242  : 			break;
; 243  : 		}
; 244  : 	}
; 245  : }

  0014f	8b 4d fc	 mov	 ecx, DWORD PTR __$ArrayPad$[ebp]
  00152	33 cd		 xor	 ecx, ebp
  00154	5e		 pop	 esi
  00155	e8 00 00 00 00	 call	 @__security_check_cookie@4
  0015a	c9		 leave
  0015b	c2 04 00	 ret	 4
?OnProcess@PackagePullDownWnd@@MAEXM@Z ENDP		; PackagePullDownWnd::OnProcess
_TEXT	ENDS
PUBLIC	?OnRender@PackagePullDownWnd@@MAEXXZ		; PackagePullDownWnd::OnRender
EXTRN	__imp_?PrintTextWidthCut@ioFontManager@@QAAXMMMMPBDZZ:PROC
EXTRN	__imp_?GetTextWidth@ioFontManager@@QAEMPBDW4TextStyle@@MH@Z:PROC
EXTRN	__imp_?c_str@ioHashString@@QBEPBDXZ:PROC
EXTRN	__imp_?SetTextColor@ioFontManager@@QAEXHHH@Z:PROC
EXTRN	__imp_?SetTextColor@ioFontManager@@QAEXK@Z:PROC
EXTRN	__imp_?SetAlignType@ioFontManager@@QAEXW4TextAlignType@@@Z:PROC
EXTRN	__imp_?SetBkColor@ioFontManager@@QAEXHHH@Z:PROC
EXTRN	__imp_?SetTextStyle@ioFontManager@@QAEXW4TextStyle@@@Z:PROC
EXTRN	__imp_?GetSingleton@ioFontManager@@SAAAV1@XZ:PROC
; Function compile flags: /Ogsp
;	COMDAT ?OnRender@PackagePullDownWnd@@MAEXXZ
_TEXT	SEGMENT
tv479 = -56						; size = 8
tv394 = -56						; size = 8
tv424 = -48						; size = 8
tv737 = -44						; size = 4
tv719 = -44						; size = 4
tv713 = -44						; size = 4
tv704 = -44						; size = 4
tv684 = -44						; size = 4
$T514394 = -44						; size = 4
$T514382 = -44						; size = 4
$T514386 = -44						; size = 4
tv361 = -40						; size = 8
tv746 = -36						; size = 4
tv537 = -36						; size = 4
tv522 = -36						; size = 4
tv298 = -36						; size = 4
tv265 = -36						; size = 4
tv208 = -36						; size = 4
tv189 = -36						; size = 4
$T514390 = -36						; size = 4
_iNameWidth$507638 = -36				; size = 4
_iMaxItem$ = -32					; size = 4
tv818 = -28						; size = 4
_iXPos$ = -24						; size = 4
_iYPos$ = -20						; size = 4
_iStart$ = -16						; size = 4
_rkItem$507627 = -12					; size = 4
_i$507622 = -8						; size = 4
_bDarkRender$ = -2					; size = 1
_bShowScroll$ = -1					; size = 1
?OnRender@PackagePullDownWnd@@MAEXXZ PROC		; PackagePullDownWnd::OnRender, COMDAT
; _this$ = ecx

; 248  : {

  00000	55		 push	 ebp
  00001	8b ec		 mov	 ebp, esp
  00003	83 ec 38	 sub	 esp, 56			; 00000038H
  00006	53		 push	 ebx
  00007	56		 push	 esi
  00008	8b f1		 mov	 esi, ecx

; 249  : 	ioWnd::OnRender();	

  0000a	ff 15 00 00 00
	00		 call	 DWORD PTR __imp_?OnRender@ioWnd@@MAEXXZ

; 250  : 	int iXPos = GetDerivedPosX();

  00010	8b ce		 mov	 ecx, esi
  00012	ff 15 00 00 00
	00		 call	 DWORD PTR __imp_?GetDerivedPosX@ioWnd@@QBEHXZ

; 251  : 	int iYPos = GetDerivedPosY();

  00018	8b ce		 mov	 ecx, esi
  0001a	89 45 e8	 mov	 DWORD PTR _iXPos$[ebp], eax
  0001d	ff 15 00 00 00
	00		 call	 DWORD PTR __imp_?GetDerivedPosY@ioWnd@@QBEHXZ

; 252  : 
; 253  : 	if( !m_pDarkLine || !m_pLightLine || !m_pOverLine ) 

  00023	33 db		 xor	 ebx, ebx
  00025	89 45 ec	 mov	 DWORD PTR _iYPos$[ebp], eax
  00028	39 9e 60 01 00
	00		 cmp	 DWORD PTR [esi+352], ebx
  0002e	0f 84 6f 04 00
	00		 je	 $LN18@OnRender
  00034	39 9e 64 01 00
	00		 cmp	 DWORD PTR [esi+356], ebx
  0003a	0f 84 63 04 00
	00		 je	 $LN18@OnRender
  00040	39 9e 68 01 00
	00		 cmp	 DWORD PTR [esi+360], ebx
  00046	0f 84 57 04 00
	00		 je	 $LN18@OnRender

; 254  : 		return;
; 255  : 
; 256  : 	g_FontMgr.SetTextStyle( TS_NORMAL );

  0004c	57		 push	 edi
  0004d	8b 3d 00 00 00
	00		 mov	 edi, DWORD PTR __imp_?GetSingleton@ioFontManager@@SAAAV1@XZ
  00053	53		 push	 ebx
  00054	ff d7		 call	 edi
  00056	8b c8		 mov	 ecx, eax
  00058	ff 15 00 00 00
	00		 call	 DWORD PTR __imp_?SetTextStyle@ioFontManager@@QAEXW4TextStyle@@@Z

; 257  : 	g_FontMgr.SetBkColor( 0, 0, 0 );

  0005e	53		 push	 ebx
  0005f	53		 push	 ebx
  00060	53		 push	 ebx
  00061	ff d7		 call	 edi
  00063	8b c8		 mov	 ecx, eax
  00065	ff 15 00 00 00
	00		 call	 DWORD PTR __imp_?SetBkColor@ioFontManager@@QAEXHHH@Z

; 258  : 	g_FontMgr.SetAlignType( TAT_LEFT );

  0006b	53		 push	 ebx
  0006c	ff d7		 call	 edi
  0006e	8b c8		 mov	 ecx, eax
  00070	ff 15 00 00 00
	00		 call	 DWORD PTR __imp_?SetAlignType@ioFontManager@@QAEXW4TextAlignType@@@Z

; 259  : 
; 260  : 	bool bDarkRender = false;
; 261  : 	int iMaxItem     = m_PullDownItem.size();

  00076	8b 86 80 01 00
	00		 mov	 eax, DWORD PTR [esi+384]
  0007c	2b 86 7c 01 00
	00		 sub	 eax, DWORD PTR [esi+380]
  00082	6a 50		 push	 80			; 00000050H
  00084	99		 cdq
  00085	59		 pop	 ecx
  00086	f7 f9		 idiv	 ecx
  00088	88 5d fe	 mov	 BYTE PTR _bDarkRender$[ebp], bl

; 262  : 	int iStart       = m_iCurPage;
; 263  : 	bool bShowScroll = false;

  0008b	88 5d ff	 mov	 BYTE PTR _bShowScroll$[ebp], bl
  0008e	89 45 e0	 mov	 DWORD PTR _iMaxItem$[ebp], eax
  00091	8b 86 94 01 00
	00		 mov	 eax, DWORD PTR [esi+404]
  00097	89 45 f0	 mov	 DWORD PTR _iStart$[ebp], eax

; 264  : 	if( iMaxItem > m_iItemMaxPage )

  0009a	8b 86 78 01 00
	00		 mov	 eax, DWORD PTR [esi+376]
  000a0	39 45 e0	 cmp	 DWORD PTR _iMaxItem$[ebp], eax
  000a3	7e 04		 jle	 SHORT $LN17@OnRender

; 265  : 		bShowScroll = true;

  000a5	c6 45 ff 01	 mov	 BYTE PTR _bShowScroll$[ebp], 1
$LN17@OnRender:

; 266  : 
; 267  : 	for(int i = 0;i < m_iItemMaxPage;i++,iStart++)

  000a9	89 5d f8	 mov	 DWORD PTR _i$507622[ebp], ebx
  000ac	3b c3		 cmp	 eax, ebx
  000ae	0f 8e ee 03 00
	00		 jle	 $LN41@OnRender
  000b4	8b 45 f0	 mov	 eax, DWORD PTR _iStart$[ebp]
  000b7	6b c0 50	 imul	 eax, 80			; 00000050H
  000ba	89 45 e4	 mov	 DWORD PTR tv818[ebp], eax
$LL40@OnRender:

; 268  : 	{
; 269  : 		if( iStart >= iMaxItem ) continue;

  000bd	8b 45 e0	 mov	 eax, DWORD PTR _iMaxItem$[ebp]
  000c0	39 45 f0	 cmp	 DWORD PTR _iStart$[ebp], eax
  000c3	0f 8d c0 03 00
	00		 jge	 $LN15@OnRender

; 270  : 
; 271  : 		NewShopPullDownItem &rkItem = m_PullDownItem[iStart];

  000c9	8b 86 7c 01 00
	00		 mov	 eax, DWORD PTR [esi+380]
  000cf	03 45 e4	 add	 eax, DWORD PTR tv818[ebp]

; 272  : 		g_FontMgr.SetTextColor( rkItem.m_dwTextColor );

  000d2	ff 70 14	 push	 DWORD PTR [eax+20]
  000d5	89 45 f4	 mov	 DWORD PTR _rkItem$507627[ebp], eax
  000d8	ff d7		 call	 edi
  000da	8b c8		 mov	 ecx, eax
  000dc	ff 15 00 00 00
	00		 call	 DWORD PTR __imp_?SetTextColor@ioFontManager@@QAEXK@Z

; 273  : 
; 274  : 		bDarkRender = !bDarkRender;

  000e2	38 5d fe	 cmp	 BYTE PTR _bDarkRender$[ebp], bl

; 275  : 		// 오버 
; 276  : 		if( m_iOverListIndex == iStart  )
; 277  : 		{
; 278  : 			if( bShowScroll )
; 279  : 				m_pOverLine->SetSize( GetWidth() - 33, m_iItemHSize );

  000e5	ff b6 74 01 00
	00		 push	 DWORD PTR [esi+372]
  000eb	0f 94 c0	 sete	 al
  000ee	88 45 fe	 mov	 BYTE PTR _bDarkRender$[ebp], al
  000f1	8b 45 f0	 mov	 eax, DWORD PTR _iStart$[ebp]
  000f4	8b ce		 mov	 ecx, esi
  000f6	39 86 98 01 00
	00		 cmp	 DWORD PTR [esi+408], eax
  000fc	0f 85 9a 00 00
	00		 jne	 $LN12@OnRender
  00102	8b 86 68 01 00
	00		 mov	 eax, DWORD PTR [esi+360]
  00108	8b 00		 mov	 eax, DWORD PTR [eax]
  0010a	83 c0 10	 add	 eax, 16			; 00000010H
  0010d	38 5d ff	 cmp	 BYTE PTR _bShowScroll$[ebp], bl
  00110	74 12		 je	 SHORT $LN11@OnRender
  00112	89 45 dc	 mov	 DWORD PTR tv189[ebp], eax
  00115	ff 15 00 00 00
	00		 call	 DWORD PTR __imp_?GetWidth@ioWnd@@QBEHXZ
  0011b	83 e8 21	 sub	 eax, 33			; 00000021H
  0011e	50		 push	 eax
  0011f	8b 45 dc	 mov	 eax, DWORD PTR tv189[ebp]

; 280  : 			else

  00122	eb 10		 jmp	 SHORT $LN46@OnRender
$LN11@OnRender:

; 281  : 				m_pOverLine->SetSize( GetWidth() - 8, m_iItemHSize );

  00124	89 45 dc	 mov	 DWORD PTR tv208[ebp], eax
  00127	ff 15 00 00 00
	00		 call	 DWORD PTR __imp_?GetWidth@ioWnd@@QBEHXZ
  0012d	83 e8 08	 sub	 eax, 8
  00130	50		 push	 eax
  00131	8b 45 dc	 mov	 eax, DWORD PTR tv208[ebp]
$LN46@OnRender:
  00134	8b 8e 68 01 00
	00		 mov	 ecx, DWORD PTR [esi+360]
  0013a	ff 10		 call	 DWORD PTR [eax]

; 282  : 
; 283  : 			m_pOverLine->Render( iXPos + 4, iYPos + m_iStartHGap + ( i * m_iItemHSize ) , UI_RENDER_MULTIPLY );

  0013c	8b 8e 74 01 00
	00		 mov	 ecx, DWORD PTR [esi+372]
  00142	0f af 4d f8	 imul	 ecx, DWORD PTR _i$507622[ebp]
  00146	03 8e 6c 01 00
	00		 add	 ecx, DWORD PTR [esi+364]
  0014c	8b 86 68 01 00
	00		 mov	 eax, DWORD PTR [esi+360]
  00152	03 4d ec	 add	 ecx, DWORD PTR _iYPos$[ebp]
  00155	8b 00		 mov	 eax, DWORD PTR [eax]
  00157	53		 push	 ebx
  00158	53		 push	 ebx
  00159	53		 push	 ebx
  0015a	6a 08		 push	 8
  0015c	51		 push	 ecx
  0015d	51		 push	 ecx
  0015e	0f 57 c0	 xorps	 xmm0, xmm0
  00161	f3 0f 2a c1	 cvtsi2ss xmm0, ecx
  00165	8b 4d e8	 mov	 ecx, DWORD PTR _iXPos$[ebp]
  00168	f3 0f 11 44 24
	04		 movss	 DWORD PTR [esp+4], xmm0
  0016e	83 c1 04	 add	 ecx, 4
  00171	0f 57 c0	 xorps	 xmm0, xmm0
  00174	f3 0f 2a c1	 cvtsi2ss xmm0, ecx
  00178	8b 8e 68 01 00
	00		 mov	 ecx, DWORD PTR [esi+360]
  0017e	f3 0f 11 04 24	 movss	 DWORD PTR [esp], xmm0
  00183	ff 10		 call	 DWORD PTR [eax]

; 284  : 			g_FontMgr.SetTextColor( 255, 255, 255 );

  00185	b8 ff 00 00 00	 mov	 eax, 255		; 000000ffH
  0018a	50		 push	 eax
  0018b	50		 push	 eax
  0018c	50		 push	 eax
  0018d	ff d7		 call	 edi
  0018f	8b c8		 mov	 ecx, eax
  00191	ff 15 00 00 00
	00		 call	 DWORD PTR __imp_?SetTextColor@ioFontManager@@QAEXHHH@Z
  00197	e9 fc 00 00 00	 jmp	 $LN5@OnRender
$LN12@OnRender:

; 285  : 		}
; 286  : 		else if( bDarkRender )

  0019c	38 5d fe	 cmp	 BYTE PTR _bDarkRender$[ebp], bl
  0019f	74 78		 je	 SHORT $LN8@OnRender

; 287  : 		{
; 288  : 			if( bShowScroll )
; 289  : 				m_pDarkLine->SetSize( GetWidth() - 33, m_iItemHSize );

  001a1	8b 86 60 01 00
	00		 mov	 eax, DWORD PTR [esi+352]
  001a7	8b 00		 mov	 eax, DWORD PTR [eax]
  001a9	83 c0 10	 add	 eax, 16			; 00000010H
  001ac	38 5d ff	 cmp	 BYTE PTR _bShowScroll$[ebp], bl
  001af	74 12		 je	 SHORT $LN7@OnRender
  001b1	89 45 dc	 mov	 DWORD PTR tv537[ebp], eax
  001b4	ff 15 00 00 00
	00		 call	 DWORD PTR __imp_?GetWidth@ioWnd@@QBEHXZ
  001ba	83 e8 21	 sub	 eax, 33			; 00000021H
  001bd	50		 push	 eax
  001be	8b 45 dc	 mov	 eax, DWORD PTR tv537[ebp]

; 290  : 			else

  001c1	eb 10		 jmp	 SHORT $LN47@OnRender
$LN7@OnRender:

; 291  : 				m_pDarkLine->SetSize( GetWidth() - 8, m_iItemHSize );

  001c3	89 45 dc	 mov	 DWORD PTR tv265[ebp], eax
  001c6	ff 15 00 00 00
	00		 call	 DWORD PTR __imp_?GetWidth@ioWnd@@QBEHXZ
  001cc	83 e8 08	 sub	 eax, 8
  001cf	50		 push	 eax
  001d0	8b 45 dc	 mov	 eax, DWORD PTR tv265[ebp]
$LN47@OnRender:
  001d3	8b 8e 60 01 00
	00		 mov	 ecx, DWORD PTR [esi+352]
  001d9	ff 10		 call	 DWORD PTR [eax]

; 292  : 
; 293  : 			m_pDarkLine->Render( iXPos + 4, iYPos + m_iStartHGap + ( i * m_iItemHSize ) , UI_RENDER_MULTIPLY );

  001db	8b 8e 74 01 00
	00		 mov	 ecx, DWORD PTR [esi+372]
  001e1	0f af 4d f8	 imul	 ecx, DWORD PTR _i$507622[ebp]
  001e5	03 8e 6c 01 00
	00		 add	 ecx, DWORD PTR [esi+364]
  001eb	8b 86 60 01 00
	00		 mov	 eax, DWORD PTR [esi+352]
  001f1	03 4d ec	 add	 ecx, DWORD PTR _iYPos$[ebp]
  001f4	53		 push	 ebx
  001f5	53		 push	 ebx
  001f6	53		 push	 ebx
  001f7	6a 08		 push	 8
  001f9	51		 push	 ecx
  001fa	0f 57 c0	 xorps	 xmm0, xmm0
  001fd	f3 0f 2a c1	 cvtsi2ss xmm0, ecx
  00201	51		 push	 ecx
  00202	8b 4d e8	 mov	 ecx, DWORD PTR _iXPos$[ebp]
  00205	f3 0f 11 44 24
	04		 movss	 DWORD PTR [esp+4], xmm0
  0020b	83 c1 04	 add	 ecx, 4
  0020e	0f 57 c0	 xorps	 xmm0, xmm0
  00211	f3 0f 2a c1	 cvtsi2ss xmm0, ecx
  00215	8b c8		 mov	 ecx, eax

; 294  : 		}
; 295  : 		else

  00217	eb 76		 jmp	 SHORT $LN48@OnRender
$LN8@OnRender:

; 296  : 		{
; 297  : 			if( bShowScroll )
; 298  : 				m_pLightLine->SetSize( GetWidth() - 33, m_iItemHSize );

  00219	8b 86 64 01 00
	00		 mov	 eax, DWORD PTR [esi+356]
  0021f	8b 00		 mov	 eax, DWORD PTR [eax]
  00221	83 c0 10	 add	 eax, 16			; 00000010H
  00224	38 5d ff	 cmp	 BYTE PTR _bShowScroll$[ebp], bl
  00227	74 12		 je	 SHORT $LN4@OnRender
  00229	89 45 dc	 mov	 DWORD PTR tv298[ebp], eax
  0022c	ff 15 00 00 00
	00		 call	 DWORD PTR __imp_?GetWidth@ioWnd@@QBEHXZ
  00232	83 e8 21	 sub	 eax, 33			; 00000021H
  00235	50		 push	 eax
  00236	8b 45 dc	 mov	 eax, DWORD PTR tv298[ebp]

; 299  : 			else

  00239	eb 10		 jmp	 SHORT $LN49@OnRender
$LN4@OnRender:

; 300  : 				m_pLightLine->SetSize( GetWidth() - 8, m_iItemHSize );

  0023b	89 45 dc	 mov	 DWORD PTR tv522[ebp], eax
  0023e	ff 15 00 00 00
	00		 call	 DWORD PTR __imp_?GetWidth@ioWnd@@QBEHXZ
  00244	83 e8 08	 sub	 eax, 8
  00247	50		 push	 eax
  00248	8b 45 dc	 mov	 eax, DWORD PTR tv522[ebp]
$LN49@OnRender:
  0024b	8b 8e 64 01 00
	00		 mov	 ecx, DWORD PTR [esi+356]
  00251	ff 10		 call	 DWORD PTR [eax]

; 301  : 
; 302  : 			m_pLightLine->Render( iXPos + 4, iYPos + m_iStartHGap + ( i * m_iItemHSize ) , UI_RENDER_MULTIPLY );

  00253	8b 8e 74 01 00
	00		 mov	 ecx, DWORD PTR [esi+372]
  00259	0f af 4d f8	 imul	 ecx, DWORD PTR _i$507622[ebp]
  0025d	03 8e 6c 01 00
	00		 add	 ecx, DWORD PTR [esi+364]
  00263	8b 86 64 01 00
	00		 mov	 eax, DWORD PTR [esi+356]
  00269	03 4d ec	 add	 ecx, DWORD PTR _iYPos$[ebp]
  0026c	53		 push	 ebx
  0026d	53		 push	 ebx
  0026e	53		 push	 ebx
  0026f	6a 08		 push	 8
  00271	51		 push	 ecx
  00272	0f 57 c0	 xorps	 xmm0, xmm0
  00275	f3 0f 2a c1	 cvtsi2ss xmm0, ecx
  00279	51		 push	 ecx
  0027a	8b 4d e8	 mov	 ecx, DWORD PTR _iXPos$[ebp]
  0027d	f3 0f 11 44 24
	04		 movss	 DWORD PTR [esp+4], xmm0
  00283	83 c1 04	 add	 ecx, 4
  00286	0f 57 c0	 xorps	 xmm0, xmm0
  00289	f3 0f 2a c1	 cvtsi2ss xmm0, ecx
  0028d	8b c8		 mov	 ecx, eax
$LN48@OnRender:
  0028f	8b 00		 mov	 eax, DWORD PTR [eax]
  00291	f3 0f 11 04 24	 movss	 DWORD PTR [esp], xmm0
  00296	ff 10		 call	 DWORD PTR [eax]
$LN5@OnRender:

; 303  : 		}
; 304  : 
; 305  : 		// 아이템 이름
; 306  : 		int iNameWidth = 0;
; 307  : 		if( bShowScroll )

  00298	38 5d ff	 cmp	 BYTE PTR _bShowScroll$[ebp], bl
  0029b	0f 84 ba 00 00
	00		 je	 $LN2@OnRender

; 308  : 			iNameWidth = min( GetWidth() - 46, g_FontMgr.GetTextWidth( rkItem.m_szName.c_str(), TS_OUTLINE_FULL_2X, m_fFontSize ) + FLOAT1 );

  002a1	b8 01 00 00 00	 mov	 eax, 1
  002a6	8b ce		 mov	 ecx, esi
  002a8	89 45 d4	 mov	 DWORD PTR $T514382[ebp], eax
  002ab	ff 15 00 00 00
	00		 call	 DWORD PTR __imp_?GetWidth@ioWnd@@QBEHXZ
  002b1	f3 0f 10 86 9c
	01 00 00	 movss	 xmm0, DWORD PTR [esi+412]
  002b9	83 e8 2e	 sub	 eax, 46			; 0000002eH
  002bc	89 45 dc	 mov	 DWORD PTR tv746[ebp], eax
  002bf	db 45 dc	 fild	 DWORD PTR tv746[ebp]
  002c2	53		 push	 ebx
  002c3	51		 push	 ecx
  002c4	8b 4d f4	 mov	 ecx, DWORD PTR _rkItem$507627[ebp]
  002c7	f3 0f 11 04 24	 movss	 DWORD PTR [esp], xmm0
  002cc	dd 5d d8	 fstp	 QWORD PTR tv361[ebp]
  002cf	6a 05		 push	 5
  002d1	ff 15 00 00 00
	00		 call	 DWORD PTR __imp_?c_str@ioHashString@@QBEPBDXZ
  002d7	50		 push	 eax
  002d8	ff d7		 call	 edi
  002da	8b c8		 mov	 ecx, eax
  002dc	ff 15 00 00 00
	00		 call	 DWORD PTR __imp_?GetTextWidth@ioFontManager@@QAEMPBDW4TextStyle@@MH@Z
  002e2	db 45 d4	 fild	 DWORD PTR $T514382[ebp]
  002e5	8b 45 d4	 mov	 eax, DWORD PTR $T514382[ebp]
  002e8	85 c0		 test	 eax, eax
  002ea	79 06		 jns	 SHORT $LN42@OnRender
  002ec	d8 05 00 00 00
	00		 fadd	 DWORD PTR __real@4f800000
$LN42@OnRender:
  002f2	de c1		 faddp	 ST(1), ST(0)
  002f4	dd 45 d8	 fld	 QWORD PTR tv361[ebp]
  002f7	d9 c9		 fxch	 ST(1)
  002f9	df f1		 fcomip	 ST(1)
  002fb	dd d8		 fstp	 ST(0)
  002fd	76 10		 jbe	 SHORT $LN22@OnRender
  002ff	8b ce		 mov	 ecx, esi
  00301	ff 15 00 00 00
	00		 call	 DWORD PTR __imp_?GetWidth@ioWnd@@QBEHXZ
  00307	83 e8 2e	 sub	 eax, 46			; 0000002eH
  0030a	e9 b5 00 00 00	 jmp	 $LN50@OnRender
$LN22@OnRender:
  0030f	b8 01 00 00 00	 mov	 eax, 1
  00314	f3 0f 10 86 9c
	01 00 00	 movss	 xmm0, DWORD PTR [esi+412]
  0031c	53		 push	 ebx
  0031d	51		 push	 ecx
  0031e	8b 4d f4	 mov	 ecx, DWORD PTR _rkItem$507627[ebp]
  00321	f3 0f 11 04 24	 movss	 DWORD PTR [esp], xmm0
  00326	6a 05		 push	 5
  00328	89 45 d4	 mov	 DWORD PTR $T514386[ebp], eax
  0032b	ff 15 00 00 00
	00		 call	 DWORD PTR __imp_?c_str@ioHashString@@QBEPBDXZ
  00331	50		 push	 eax
  00332	ff d7		 call	 edi
  00334	8b c8		 mov	 ecx, eax
  00336	ff 15 00 00 00
	00		 call	 DWORD PTR __imp_?GetTextWidth@ioFontManager@@QAEMPBDW4TextStyle@@MH@Z
  0033c	db 45 d4	 fild	 DWORD PTR $T514386[ebp]
  0033f	8b 45 d4	 mov	 eax, DWORD PTR $T514386[ebp]
  00342	85 c0		 test	 eax, eax
  00344	79 06		 jns	 SHORT $LN43@OnRender
  00346	d8 05 00 00 00
	00		 fadd	 DWORD PTR __real@4f800000
$LN43@OnRender:
  0034c	de c1		 faddp	 ST(1), ST(0)
  0034e	dd 5d d0	 fstp	 QWORD PTR tv424[ebp]
  00351	f2 0f 10 45 d0	 movsd	 xmm0, QWORD PTR tv424[ebp]

; 309  : 		else

  00356	e9 bc 00 00 00	 jmp	 $LN25@OnRender
$LN2@OnRender:

; 310  : 			iNameWidth = min( GetWidth() - 34, g_FontMgr.GetTextWidth( rkItem.m_szName.c_str(), TS_OUTLINE_FULL_2X, m_fFontSize ) + FLOAT1 );

  0035b	b8 01 00 00 00	 mov	 eax, 1
  00360	8b ce		 mov	 ecx, esi
  00362	89 45 dc	 mov	 DWORD PTR $T514390[ebp], eax
  00365	ff 15 00 00 00
	00		 call	 DWORD PTR __imp_?GetWidth@ioWnd@@QBEHXZ
  0036b	f3 0f 10 86 9c
	01 00 00	 movss	 xmm0, DWORD PTR [esi+412]
  00373	83 e8 22	 sub	 eax, 34			; 00000022H
  00376	53		 push	 ebx
  00377	89 45 d4	 mov	 DWORD PTR tv713[ebp], eax
  0037a	db 45 d4	 fild	 DWORD PTR tv713[ebp]
  0037d	51		 push	 ecx
  0037e	8b 4d f4	 mov	 ecx, DWORD PTR _rkItem$507627[ebp]
  00381	f3 0f 11 04 24	 movss	 DWORD PTR [esp], xmm0
  00386	6a 05		 push	 5
  00388	dd 5d c8	 fstp	 QWORD PTR tv394[ebp]
  0038b	ff 15 00 00 00
	00		 call	 DWORD PTR __imp_?c_str@ioHashString@@QBEPBDXZ
  00391	50		 push	 eax
  00392	ff d7		 call	 edi
  00394	8b c8		 mov	 ecx, eax
  00396	ff 15 00 00 00
	00		 call	 DWORD PTR __imp_?GetTextWidth@ioFontManager@@QAEMPBDW4TextStyle@@MH@Z
  0039c	db 45 dc	 fild	 DWORD PTR $T514390[ebp]
  0039f	8b 45 dc	 mov	 eax, DWORD PTR $T514390[ebp]
  003a2	85 c0		 test	 eax, eax
  003a4	79 06		 jns	 SHORT $LN44@OnRender
  003a6	d8 05 00 00 00
	00		 fadd	 DWORD PTR __real@4f800000
$LN44@OnRender:
  003ac	de c1		 faddp	 ST(1), ST(0)
  003ae	dd 45 c8	 fld	 QWORD PTR tv394[ebp]
  003b1	d9 c9		 fxch	 ST(1)
  003b3	df f1		 fcomip	 ST(1)
  003b5	dd d8		 fstp	 ST(0)
  003b7	76 17		 jbe	 SHORT $LN24@OnRender
  003b9	8b ce		 mov	 ecx, esi
  003bb	ff 15 00 00 00
	00		 call	 DWORD PTR __imp_?GetWidth@ioWnd@@QBEHXZ
  003c1	83 e8 22	 sub	 eax, 34			; 00000022H
$LN50@OnRender:
  003c4	0f 57 c0	 xorps	 xmm0, xmm0
  003c7	f3 0f 2a c0	 cvtsi2ss xmm0, eax
  003cb	0f 5a c0	 cvtps2pd xmm0, xmm0
  003ce	eb 47		 jmp	 SHORT $LN25@OnRender
$LN24@OnRender:
  003d0	b8 01 00 00 00	 mov	 eax, 1
  003d5	f3 0f 10 86 9c
	01 00 00	 movss	 xmm0, DWORD PTR [esi+412]
  003dd	53		 push	 ebx
  003de	51		 push	 ecx
  003df	8b 4d f4	 mov	 ecx, DWORD PTR _rkItem$507627[ebp]
  003e2	f3 0f 11 04 24	 movss	 DWORD PTR [esp], xmm0
  003e7	6a 05		 push	 5
  003e9	89 45 d4	 mov	 DWORD PTR $T514394[ebp], eax
  003ec	ff 15 00 00 00
	00		 call	 DWORD PTR __imp_?c_str@ioHashString@@QBEPBDXZ
  003f2	50		 push	 eax
  003f3	ff d7		 call	 edi
  003f5	8b c8		 mov	 ecx, eax
  003f7	ff 15 00 00 00
	00		 call	 DWORD PTR __imp_?GetTextWidth@ioFontManager@@QAEMPBDW4TextStyle@@MH@Z
  003fd	db 45 d4	 fild	 DWORD PTR $T514394[ebp]
  00400	8b 45 d4	 mov	 eax, DWORD PTR $T514394[ebp]
  00403	85 c0		 test	 eax, eax
  00405	79 06		 jns	 SHORT $LN45@OnRender
  00407	d8 05 00 00 00
	00		 fadd	 DWORD PTR __real@4f800000
$LN45@OnRender:
  0040d	de c1		 faddp	 ST(1), ST(0)
  0040f	dd 5d c8	 fstp	 QWORD PTR tv479[ebp]
  00412	f2 0f 10 45 c8	 movsd	 xmm0, QWORD PTR tv479[ebp]
$LN25@OnRender:

; 311  : 
; 312  : 		g_FontMgr.PrintTextWidthCut( iXPos + 17, iYPos + m_iStartHGap + ( i * m_iItemHSize ) + 2, m_fFontSize, iNameWidth, rkItem.m_szName.c_str() );

  00417	8b 4d f4	 mov	 ecx, DWORD PTR _rkItem$507627[ebp]
  0041a	f2 0f 2c c0	 cvttsd2si eax, xmm0
  0041e	89 45 dc	 mov	 DWORD PTR _iNameWidth$507638[ebp], eax
  00421	ff 15 00 00 00
	00		 call	 DWORD PTR __imp_?c_str@ioHashString@@QBEPBDXZ
  00427	66 0f 6e 45 dc	 movd	 xmm0, DWORD PTR _iNameWidth$507638[ebp]
  0042c	8b 4d ec	 mov	 ecx, DWORD PTR _iYPos$[ebp]
  0042f	50		 push	 eax
  00430	8b 86 74 01 00
	00		 mov	 eax, DWORD PTR [esi+372]
  00436	0f af 45 f8	 imul	 eax, DWORD PTR _i$507622[ebp]
  0043a	03 86 6c 01 00
	00		 add	 eax, DWORD PTR [esi+364]
  00440	0f 5b c0	 cvtdq2ps xmm0, xmm0
  00443	83 ec 10	 sub	 esp, 16			; 00000010H
  00446	f3 0f 11 44 24
	0c		 movss	 DWORD PTR [esp+12], xmm0
  0044c	f3 0f 10 86 9c
	01 00 00	 movss	 xmm0, DWORD PTR [esi+412]
  00454	f3 0f 11 44 24
	08		 movss	 DWORD PTR [esp+8], xmm0
  0045a	8d 44 08 02	 lea	 eax, DWORD PTR [eax+ecx+2]
  0045e	0f 57 c0	 xorps	 xmm0, xmm0
  00461	f3 0f 2a c0	 cvtsi2ss xmm0, eax
  00465	8b 45 e8	 mov	 eax, DWORD PTR _iXPos$[ebp]
  00468	f3 0f 11 44 24
	04		 movss	 DWORD PTR [esp+4], xmm0
  0046e	83 c0 11	 add	 eax, 17			; 00000011H
  00471	0f 57 c0	 xorps	 xmm0, xmm0
  00474	f3 0f 2a c0	 cvtsi2ss xmm0, eax
  00478	f3 0f 11 04 24	 movss	 DWORD PTR [esp], xmm0
  0047d	ff d7		 call	 edi
  0047f	50		 push	 eax
  00480	ff 15 00 00 00
	00		 call	 DWORD PTR __imp_?PrintTextWidthCut@ioFontManager@@QAAXMMMMPBDZZ
  00486	83 c4 18	 add	 esp, 24			; 00000018H
$LN15@OnRender:

; 266  : 
; 267  : 	for(int i = 0;i < m_iItemMaxPage;i++,iStart++)

  00489	ff 45 f8	 inc	 DWORD PTR _i$507622[ebp]
  0048c	8b 45 f8	 mov	 eax, DWORD PTR _i$507622[ebp]
  0048f	ff 45 f0	 inc	 DWORD PTR _iStart$[ebp]
  00492	83 45 e4 50	 add	 DWORD PTR tv818[ebp], 80 ; 00000050H
  00496	3b 86 78 01 00
	00		 cmp	 eax, DWORD PTR [esi+376]
