; Listing generated by Microsoft (R) Optimizing Compiler Version 16.00.30319.01 

	TITLE	D:\Lost Saga For Developer\Youtube\Tutorial\Source\src\LSClient\GUI\SoldierLimitWnd.cpp
	.686P
	.XMM
	include listing.inc
	.model	flat

INCLUDELIB MSVCRT
INCLUDELIB OLDNAMES

PUBLIC	?_EEM_DS@?$deque@UD3DXVECTOR3@@V?$allocator@UD3DXVECTOR3@@@std@@@std@@2HB ; std::deque<D3DXVECTOR3,std::allocator<D3DXVECTOR3> >::_EEM_DS
;	COMDAT ?_EEM_DS@?$deque@UD3DXVECTOR3@@V?$allocator@UD3DXVECTOR3@@@std@@@std@@2HB
CONST	SEGMENT
?_EEM_DS@?$deque@UD3DXVECTOR3@@V?$allocator@UD3DXVECTOR3@@@std@@@std@@2HB DD 01H ; std::deque<D3DXVECTOR3,std::allocator<D3DXVECTOR3> >::_EEM_DS
CONST	ENDS
PUBLIC	?GetPlayMode@ioPlayStage@@QBEPAVioPlayMode@@XZ	; ioPlayStage::GetPlayMode
; Function compile flags: /Ogsp
; File d:\lost saga for developer\youtube\tutorial\source\src\lsclient\ioplaystage.h
;	COMDAT ?GetPlayMode@ioPlayStage@@QBEPAVioPlayMode@@XZ
_TEXT	SEGMENT
?GetPlayMode@ioPlayStage@@QBEPAVioPlayMode@@XZ PROC	; ioPlayStage::GetPlayMode, COMDAT
; _this$ = ecx

; 780  : 	inline ioPlayMode* GetPlayMode() const { return m_pPlayMode; }

  00000	8b 81 10 01 00
	00		 mov	 eax, DWORD PTR [ecx+272]
  00006	c3		 ret	 0
?GetPlayMode@ioPlayStage@@QBEPAVioPlayMode@@XZ ENDP	; ioPlayStage::GetPlayMode
_TEXT	ENDS
PUBLIC	?return1000@@YAIXZ				; return1000
; Function compile flags: /Ogsp
; File d:\lost saga for developer\youtube\tutorial\source\src\lsclient\stdafx.h
;	COMDAT ?return1000@@YAIXZ
_TEXT	SEGMENT
?return1000@@YAIXZ PROC					; return1000, COMDAT

; 29   : 	__forceinline unsigned int return1000() { __asm mov eax, 1000 };

  00000	b8 e8 03 00 00	 mov	 eax, 1000		; 000003e8H
  00005	c3		 ret	 0
?return1000@@YAIXZ ENDP					; return1000
_TEXT	ENDS
PUBLIC	?IsGangsi@ioBaseChar@@QBE_NXZ			; ioBaseChar::IsGangsi
; Function compile flags: /Ogsp
; File d:\lost saga for developer\youtube\tutorial\source\src\lsclient\iobasechar.h
;	COMDAT ?IsGangsi@ioBaseChar@@QBE_NXZ
_TEXT	SEGMENT
?IsGangsi@ioBaseChar@@QBE_NXZ PROC			; ioBaseChar::IsGangsi, COMDAT
; _this$ = ecx

; 1498 : 	bool IsGangsi() const { return m_bGangsiCharacter; }

  00000	8a 81 f8 23 00
	00		 mov	 al, BYTE PTR [ecx+9208]
  00006	c3		 ret	 0
?IsGangsi@ioBaseChar@@QBE_NXZ ENDP			; ioBaseChar::IsGangsi
_TEXT	ENDS
PUBLIC	?GetState@ioBaseChar@@QBE?AW4CharState@@XZ	; ioBaseChar::GetState
; Function compile flags: /Ogsp
;	COMDAT ?GetState@ioBaseChar@@QBE?AW4CharState@@XZ
_TEXT	SEGMENT
?GetState@ioBaseChar@@QBE?AW4CharState@@XZ PROC		; ioBaseChar::GetState, COMDAT
; _this$ = ecx

; 2156 : 	inline CharState GetState() const { return m_CharState; }	

  00000	8a 81 10 03 00
	00		 mov	 al, BYTE PTR [ecx+784]
  00006	c3		 ret	 0
?GetState@ioBaseChar@@QBE?AW4CharState@@XZ ENDP		; ioBaseChar::GetState
_TEXT	ENDS
PUBLIC	?IsMale@ioBaseChar@@QBE_NXZ			; ioBaseChar::IsMale
; Function compile flags: /Ogsp
;	COMDAT ?IsMale@ioBaseChar@@QBE_NXZ
_TEXT	SEGMENT
?IsMale@ioBaseChar@@QBE_NXZ PROC			; ioBaseChar::IsMale, COMDAT
; _this$ = ecx

; 2775 : 	inline bool IsMale() const { return m_bMale; }

  00000	8a 81 20 03 00
	00		 mov	 al, BYTE PTR [ecx+800]
  00006	c3		 ret	 0
?IsMale@ioBaseChar@@QBE_NXZ ENDP			; ioBaseChar::IsMale
_TEXT	ENDS
PUBLIC	?GetCharacterInfo@ioBaseChar@@QBEABUCHARACTER@@XZ ; ioBaseChar::GetCharacterInfo
; Function compile flags: /Ogsp
;	COMDAT ?GetCharacterInfo@ioBaseChar@@QBEABUCHARACTER@@XZ
_TEXT	SEGMENT
?GetCharacterInfo@ioBaseChar@@QBEABUCHARACTER@@XZ PROC	; ioBaseChar::GetCharacterInfo, COMDAT
; _this$ = ecx

; 2777 : 	inline const CHARACTER& GetCharacterInfo() const { return m_CharInfo; }

  00000	8d 81 58 03 00
	00		 lea	 eax, DWORD PTR [ecx+856]
  00006	c3		 ret	 0
?GetCharacterInfo@ioBaseChar@@QBEABUCHARACTER@@XZ ENDP	; ioBaseChar::GetCharacterInfo
_TEXT	ENDS
PUBLIC	?GetSelectCharArray@ioBaseChar@@QBEHXZ		; ioBaseChar::GetSelectCharArray
; Function compile flags: /Ogsp
;	COMDAT ?GetSelectCharArray@ioBaseChar@@QBEHXZ
_TEXT	SEGMENT
?GetSelectCharArray@ioBaseChar@@QBEHXZ PROC		; ioBaseChar::GetSelectCharArray, COMDAT
; _this$ = ecx

; 2851 : 	int  GetSelectCharArray() const { return m_iSelectCharArray; }

  00000	8b 81 24 03 00
	00		 mov	 eax, DWORD PTR [ecx+804]
  00006	c3		 ret	 0
?GetSelectCharArray@ioBaseChar@@QBEHXZ ENDP		; ioBaseChar::GetSelectCharArray
_TEXT	ENDS
PUBLIC	??_7SoldierLimitPopupWnd@@6B@			; SoldierLimitPopupWnd::`vftable'
PUBLIC	??0SoldierLimitPopupWnd@@QAE@XZ			; SoldierLimitPopupWnd::SoldierLimitPopupWnd
PUBLIC	??_R4SoldierLimitPopupWnd@@6B@			; SoldierLimitPopupWnd::`RTTI Complete Object Locator'
PUBLIC	??_R0?AVSoldierLimitPopupWnd@@@8		; SoldierLimitPopupWnd `RTTI Type Descriptor'
PUBLIC	??_R3SoldierLimitPopupWnd@@8			; SoldierLimitPopupWnd::`RTTI Class Hierarchy Descriptor'
PUBLIC	??_R2SoldierLimitPopupWnd@@8			; SoldierLimitPopupWnd::`RTTI Base Class Array'
PUBLIC	??_R1A@?0A@EA@SoldierLimitPopupWnd@@8		; SoldierLimitPopupWnd::`RTTI Base Class Descriptor at (0,-1,0,64)'
PUBLIC	??_R1A@?0A@EA@ioWnd@@8				; ioWnd::`RTTI Base Class Descriptor at (0,-1,0,64)'
PUBLIC	??_R0?AVioWnd@@@8				; ioWnd `RTTI Type Descriptor'
PUBLIC	??_R3ioWnd@@8					; ioWnd::`RTTI Class Hierarchy Descriptor'
PUBLIC	??_R2ioWnd@@8					; ioWnd::`RTTI Base Class Array'
PUBLIC	?AddRenderImage@SoldierLimitPopupWnd@@MAEXABVioHashString@@PAVioUIRenderImage@@@Z ; SoldierLimitPopupWnd::AddRenderImage
PUBLIC	?OnRender@SoldierLimitPopupWnd@@MAEXXZ		; SoldierLimitPopupWnd::OnRender
PUBLIC	?OnProcess@SoldierLimitPopupWnd@@MAEXM@Z	; SoldierLimitPopupWnd::OnProcess
PUBLIC	?iwm_command@SoldierLimitPopupWnd@@UAEXPAVioWnd@@HK@Z ; SoldierLimitPopupWnd::iwm_command
PUBLIC	?iwm_show@SoldierLimitPopupWnd@@UAEXXZ		; SoldierLimitPopupWnd::iwm_show
PUBLIC	?iwm_hide@SoldierLimitPopupWnd@@UAEXXZ		; SoldierLimitPopupWnd::iwm_hide
EXTRN	__imp_??0ioWnd@@QAE@XZ:PROC
EXTRN	??_7type_info@@6B@:QWORD			; type_info::`vftable'
EXTRN	?AddRenderFrame@ioWnd@@UAEXABVioHashString@@PAVioUIRenderFrame@@@Z:PROC ; ioWnd::AddRenderFrame
EXTRN	?AddTooltipHelp@ioWnd@@UAEXABVioHashString@@00@Z:PROC ; ioWnd::AddTooltipHelp
EXTRN	?ParseExtraInfo@ioWnd@@UAEXAAVioXMLElement@@@Z:PROC ; ioWnd::ParseExtraInfo
EXTRN	?AddNamedRenderImage@ioWnd@@UAEXABVioHashString@@PAVioUIRenderImage@@@Z:PROC ; ioWnd::AddNamedRenderImage
EXTRN	?RemoveNamedRenderImage@ioWnd@@UAEXABVioHashString@@@Z:PROC ; ioWnd::RemoveNamedRenderImage
EXTRN	?GetNamedRenderImage@ioWnd@@UBEPAVioUIRenderImage@@ABVioHashString@@@Z:PROC ; ioWnd::GetNamedRenderImage
EXTRN	?SetWindowAlpha@ioWnd@@UAEXH@Z:PROC		; ioWnd::SetWindowAlpha
EXTRN	?SetActive@ioWnd@@UAEXXZ:PROC			; ioWnd::SetActive
EXTRN	?SetInActive@ioWnd@@UAEXXZ:PROC			; ioWnd::SetInActive
EXTRN	?ClearElementImageList@ioWnd@@UAEXXZ:PROC	; ioWnd::ClearElementImageList
EXTRN	?SetSize@ioWnd@@UAEXHH@Z:PROC			; ioWnd::SetSize
EXTRN	?SetPositionToDefault@ioWnd@@UAEXHH_N0@Z:PROC	; ioWnd::SetPositionToDefault
EXTRN	?IsNeedProcess@ioWnd@@UBE_NXZ:PROC		; ioWnd::IsNeedProcess
EXTRN	?IsCanMouseReaction@ioWnd@@UBE_NXZ:PROC		; ioWnd::IsCanMouseReaction
EXTRN	?AddChild@ioWnd@@UAEXPAV1@@Z:PROC		; ioWnd::AddChild
EXTRN	?DeleteChild@ioWnd@@UAEXK@Z:PROC		; ioWnd::DeleteChild
EXTRN	?DeleteAllChild@ioWnd@@UAEXXZ:PROC		; ioWnd::DeleteAllChild
EXTRN	?OnRenderShowAndHide@ioWnd@@MAE_NXZ:PROC	; ioWnd::OnRenderShowAndHide
EXTRN	?OnRenderShowAndHideByDefault@ioWnd@@MAE_NK@Z:PROC ; ioWnd::OnRenderShowAndHideByDefault
EXTRN	?OnRenderShowAndHideByTop@ioWnd@@MAE_NK@Z:PROC	; ioWnd::OnRenderShowAndHideByTop
EXTRN	?OnRenderShowAndHideByDown@ioWnd@@MAE_NK@Z:PROC	; ioWnd::OnRenderShowAndHideByDown
EXTRN	?OnRenderAfterChild@ioWnd@@MAEXXZ:PROC		; ioWnd::OnRenderAfterChild
EXTRN	?OnMouseProcess@ioWnd@@MAEXABVioMouse@@@Z:PROC	; ioWnd::OnMouseProcess
EXTRN	?CheckFrameReSize@ioWnd@@MAEXHHHH@Z:PROC	; ioWnd::CheckFrameReSize
EXTRN	?RenderImageList@ioWnd@@MAEXHHW4UIRenderType@@@Z:PROC ; ioWnd::RenderImageList
EXTRN	?iwm_create@ioWnd@@UAEXXZ:PROC			; ioWnd::iwm_create
EXTRN	?iwm_destroy@ioWnd@@UAEXXZ:PROC			; ioWnd::iwm_destroy
EXTRN	?iwm_lbuttondown@ioWnd@@UAEXABVioMouse@@@Z:PROC	; ioWnd::iwm_lbuttondown
EXTRN	?iwm_lbuttonup@ioWnd@@UAEXABVioMouse@@@Z:PROC	; ioWnd::iwm_lbuttonup
EXTRN	?iwm_lbuttonDBLCLK@ioWnd@@UAEXABVioMouse@@@Z:PROC ; ioWnd::iwm_lbuttonDBLCLK
EXTRN	?iwm_rbuttondown@ioWnd@@UAEXABVioMouse@@@Z:PROC	; ioWnd::iwm_rbuttondown
EXTRN	?iwm_rbuttonup@ioWnd@@UAEXABVioMouse@@@Z:PROC	; ioWnd::iwm_rbuttonup
EXTRN	?iwm_mouseover@ioWnd@@UAEXABVioMouse@@@Z:PROC	; ioWnd::iwm_mouseover
EXTRN	?iwm_mousemove@ioWnd@@UAEXABVioMouse@@@Z:PROC	; ioWnd::iwm_mousemove
EXTRN	?iwm_mouseleave@ioWnd@@UAEXABVioMouse@@@Z:PROC	; ioWnd::iwm_mouseleave
EXTRN	?iwm_vscroll@ioWnd@@UAEXKH@Z:PROC		; ioWnd::iwm_vscroll
EXTRN	?iwm_wheel@ioWnd@@UAEXH@Z:PROC			; ioWnd::iwm_wheel
EXTRN	?iwm_esc@ioWnd@@UAE_NXZ:PROC			; ioWnd::iwm_esc
EXTRN	?iwm_spacebar@ioWnd@@UAE_NXZ:PROC		; ioWnd::iwm_spacebar
EXTRN	?iwm_gototop@ioWnd@@UAEXXZ:PROC			; ioWnd::iwm_gototop
EXTRN	?iwm_dragenter@ioWnd@@UAE?AW4IWDropEffect@@PAVioDragItem@@ABVioMouse@@@Z:PROC ; ioWnd::iwm_dragenter
EXTRN	?iwm_dragover@ioWnd@@UAE?AW4IWDropEffect@@PAVioDragItem@@ABVioMouse@@@Z:PROC ; ioWnd::iwm_dragover
EXTRN	?iwm_dragleave@ioWnd@@UAEXXZ:PROC		; ioWnd::iwm_dragleave
EXTRN	?iwm_dropitem@ioWnd@@UAE_NPAVioDragItem@@ABVioMouse@@PAV1@@Z:PROC ; ioWnd::iwm_dropitem
EXTRN	?iwm_dropdone@ioWnd@@UAEXPAVioDragItem@@PAV1@_N@Z:PROC ; ioWnd::iwm_dropdone
EXTRN	?IsEXType@ioWnd@@UBE_NXZ:PROC			; ioWnd::IsEXType
EXTRN	?GetWndType@ioWnd@@UBEKXZ:PROC			; ioWnd::GetWndType
EXTRN	?RenderWnd@ioWnd@@UAEXXZ:PROC			; ioWnd::RenderWnd
EXTRN	?SetIDEX@ioWnd@@UAEXAAK_N@Z:PROC		; ioWnd::SetIDEX
EXTRN	?ParseXML@ioWnd@@UAEXAAVioXMLElement@@@Z:PROC	; ioWnd::ParseXML
EXTRN	?GetHeaderFileName@ioWnd@@UAEPBDXZ:PROC		; ioWnd::GetHeaderFileName
EXTRN	?GetTemplateName@ioWnd@@UAEPBDXZ:PROC		; ioWnd::GetTemplateName
EXTRN	?GetDefClassName@ioWnd@@UBEPBDXZ:PROC		; ioWnd::GetDefClassName
EXTRN	?_Clone@ioWnd@@UAEPAV1@XZ:PROC			; ioWnd::_Clone
EXTRN	?Copy@ioWnd@@UAEXPAV1@@Z:PROC			; ioWnd::Copy
EXTRN	?Save@ioWnd@@UAE_NAAVioXMLElement@@@Z:PROC	; ioWnd::Save
EXTRN	?SetSaveData@ioWnd@@UAEXAAVioXMLElement@@@Z:PROC ; ioWnd::SetSaveData
EXTRN	?SetPosX@ioWnd@@UAEXH@Z:PROC			; ioWnd::SetPosX
EXTRN	?SetPosY@ioWnd@@UAEXH@Z:PROC			; ioWnd::SetPosY
EXTRN	?SetWidth@ioWnd@@UAEXH@Z:PROC			; ioWnd::SetWidth
EXTRN	?SetHeight@ioWnd@@UAEXH@Z:PROC			; ioWnd::SetHeight
EXTRN	?GetNumFixedRenderFrame@ioWnd@@UBEHXZ:PROC	; ioWnd::GetNumFixedRenderFrame
EXTRN	?GetFixedRenderFrameType@ioWnd@@UAEPBDH@Z:PROC	; ioWnd::GetFixedRenderFrameType
EXTRN	?GetRenderFrame@ioWnd@@UAEPAPAVioUIRenderElement@@PBD@Z:PROC ; ioWnd::GetRenderFrame
EXTRN	?GetNumFixedRenderImage@ioWnd@@UBEHXZ:PROC	; ioWnd::GetNumFixedRenderImage
EXTRN	?GetFixedRenderImageType@ioWnd@@UAEPBDH@Z:PROC	; ioWnd::GetFixedRenderImageType
EXTRN	?GetRenderImage@ioWnd@@UAEPAPAVioUIRenderElement@@PBD@Z:PROC ; ioWnd::GetRenderImage
EXTRN	?AddEffect@ioWnd@@UAEXABVioHashString@@PAVioUI3DEffectRender@@@Z:PROC ; ioWnd::AddEffect
EXTRN	?GetEffect@ioWnd@@UAEPAVioUI3DEffectRender@@VioHashString@@@Z:PROC ; ioWnd::GetEffect
EXTRN	??_ESoldierLimitPopupWnd@@UAEPAXI@Z:PROC	; SoldierLimitPopupWnd::`vector deleting destructor'
;	COMDAT ??_R2ioWnd@@8
; File d:\lost saga for developer\youtube\tutorial\source\src\lsclient\gui\soldierlimitwnd.cpp
rdata$r	SEGMENT
??_R2ioWnd@@8 DD FLAT:??_R1A@?0A@EA@ioWnd@@8		; ioWnd::`RTTI Base Class Array'
rdata$r	ENDS
;	COMDAT ??_R3ioWnd@@8
rdata$r	SEGMENT
??_R3ioWnd@@8 DD 00H					; ioWnd::`RTTI Class Hierarchy Descriptor'
	DD	00H
	DD	01H
	DD	FLAT:??_R2ioWnd@@8
rdata$r	ENDS
;	COMDAT ??_R0?AVioWnd@@@8
_DATA	SEGMENT
??_R0?AVioWnd@@@8 DD FLAT:??_7type_info@@6B@		; ioWnd `RTTI Type Descriptor'
	DD	00H
	DB	'.?AVioWnd@@', 00H
_DATA	ENDS
;	COMDAT ??_R1A@?0A@EA@ioWnd@@8
rdata$r	SEGMENT
??_R1A@?0A@EA@ioWnd@@8 DD FLAT:??_R0?AVioWnd@@@8	; ioWnd::`RTTI Base Class Descriptor at (0,-1,0,64)'
	DD	00H
	DD	00H
	DD	0ffffffffH
	DD	00H
	DD	040H
	DD	FLAT:??_R3ioWnd@@8
rdata$r	ENDS
;	COMDAT ??_R1A@?0A@EA@SoldierLimitPopupWnd@@8
rdata$r	SEGMENT
??_R1A@?0A@EA@SoldierLimitPopupWnd@@8 DD FLAT:??_R0?AVSoldierLimitPopupWnd@@@8 ; SoldierLimitPopupWnd::`RTTI Base Class Descriptor at (0,-1,0,64)'
	DD	01H
	DD	00H
	DD	0ffffffffH
	DD	00H
	DD	040H
	DD	FLAT:??_R3SoldierLimitPopupWnd@@8
rdata$r	ENDS
;	COMDAT ??_R2SoldierLimitPopupWnd@@8
rdata$r	SEGMENT
??_R2SoldierLimitPopupWnd@@8 DD FLAT:??_R1A@?0A@EA@SoldierLimitPopupWnd@@8 ; SoldierLimitPopupWnd::`RTTI Base Class Array'
	DD	FLAT:??_R1A@?0A@EA@ioWnd@@8
rdata$r	ENDS
;	COMDAT ??_R3SoldierLimitPopupWnd@@8
rdata$r	SEGMENT
??_R3SoldierLimitPopupWnd@@8 DD 00H			; SoldierLimitPopupWnd::`RTTI Class Hierarchy Descriptor'
	DD	00H
	DD	02H
	DD	FLAT:??_R2SoldierLimitPopupWnd@@8
rdata$r	ENDS
;	COMDAT ??_R0?AVSoldierLimitPopupWnd@@@8
_DATA	SEGMENT
??_R0?AVSoldierLimitPopupWnd@@@8 DD FLAT:??_7type_info@@6B@ ; SoldierLimitPopupWnd `RTTI Type Descriptor'
	DD	00H
	DB	'.?AVSoldierLimitPopupWnd@@', 00H
_DATA	ENDS
;	COMDAT ??_R4SoldierLimitPopupWnd@@6B@
rdata$r	SEGMENT
??_R4SoldierLimitPopupWnd@@6B@ DD 00H			; SoldierLimitPopupWnd::`RTTI Complete Object Locator'
	DD	00H
	DD	00H
	DD	FLAT:??_R0?AVSoldierLimitPopupWnd@@@8
	DD	FLAT:??_R3SoldierLimitPopupWnd@@8
rdata$r	ENDS
;	COMDAT ??_7SoldierLimitPopupWnd@@6B@
CONST	SEGMENT
??_7SoldierLimitPopupWnd@@6B@ DD FLAT:??_R4SoldierLimitPopupWnd@@6B@ ; SoldierLimitPopupWnd::`vftable'
	DD	FLAT:?AddRenderFrame@ioWnd@@UAEXABVioHashString@@PAVioUIRenderFrame@@@Z
	DD	FLAT:?AddRenderImage@SoldierLimitPopupWnd@@MAEXABVioHashString@@PAVioUIRenderImage@@@Z
	DD	FLAT:?AddTooltipHelp@ioWnd@@UAEXABVioHashString@@00@Z
	DD	FLAT:?ParseExtraInfo@ioWnd@@UAEXAAVioXMLElement@@@Z
	DD	FLAT:?AddNamedRenderImage@ioWnd@@UAEXABVioHashString@@PAVioUIRenderImage@@@Z
	DD	FLAT:?RemoveNamedRenderImage@ioWnd@@UAEXABVioHashString@@@Z
	DD	FLAT:?GetNamedRenderImage@ioWnd@@UBEPAVioUIRenderImage@@ABVioHashString@@@Z
	DD	FLAT:?SetWindowAlpha@ioWnd@@UAEXH@Z
	DD	FLAT:?SetActive@ioWnd@@UAEXXZ
	DD	FLAT:?SetInActive@ioWnd@@UAEXXZ
	DD	FLAT:?ClearElementImageList@ioWnd@@UAEXXZ
	DD	FLAT:?SetSize@ioWnd@@UAEXHH@Z
	DD	FLAT:?SetPositionToDefault@ioWnd@@UAEXHH_N0@Z
	DD	FLAT:?IsNeedProcess@ioWnd@@UBE_NXZ
	DD	FLAT:?IsCanMouseReaction@ioWnd@@UBE_NXZ
	DD	FLAT:?AddChild@ioWnd@@UAEXPAV1@@Z
	DD	FLAT:?DeleteChild@ioWnd@@UAEXK@Z
	DD	FLAT:?DeleteAllChild@ioWnd@@UAEXXZ
	DD	FLAT:?OnRenderShowAndHide@ioWnd@@MAE_NXZ
	DD	FLAT:?OnRenderShowAndHideByDefault@ioWnd@@MAE_NK@Z
	DD	FLAT:?OnRenderShowAndHideByTop@ioWnd@@MAE_NK@Z
	DD	FLAT:?OnRenderShowAndHideByDown@ioWnd@@MAE_NK@Z
	DD	FLAT:?OnRender@SoldierLimitPopupWnd@@MAEXXZ
	DD	FLAT:?OnRenderAfterChild@ioWnd@@MAEXXZ
	DD	FLAT:?OnProcess@SoldierLimitPopupWnd@@MAEXM@Z
	DD	FLAT:?OnMouseProcess@ioWnd@@MAEXABVioMouse@@@Z
	DD	FLAT:?CheckFrameReSize@ioWnd@@MAEXHHHH@Z
	DD	FLAT:?RenderImageList@ioWnd@@MAEXHHW4UIRenderType@@@Z
	DD	FLAT:?iwm_create@ioWnd@@UAEXXZ
	DD	FLAT:?iwm_destroy@ioWnd@@UAEXXZ
	DD	FLAT:?iwm_lbuttondown@ioWnd@@UAEXABVioMouse@@@Z
	DD	FLAT:?iwm_lbuttonup@ioWnd@@UAEXABVioMouse@@@Z
	DD	FLAT:?iwm_lbuttonDBLCLK@ioWnd@@UAEXABVioMouse@@@Z
	DD	FLAT:?iwm_rbuttondown@ioWnd@@UAEXABVioMouse@@@Z
	DD	FLAT:?iwm_rbuttonup@ioWnd@@UAEXABVioMouse@@@Z
	DD	FLAT:?iwm_command@SoldierLimitPopupWnd@@UAEXPAVioWnd@@HK@Z
	DD	FLAT:?iwm_mouseover@ioWnd@@UAEXABVioMouse@@@Z
	DD	FLAT:?iwm_mousemove@ioWnd@@UAEXABVioMouse@@@Z
	DD	FLAT:?iwm_mouseleave@ioWnd@@UAEXABVioMouse@@@Z
	DD	FLAT:?iwm_vscroll@ioWnd@@UAEXKH@Z
	DD	FLAT:?iwm_wheel@ioWnd@@UAEXH@Z
	DD	FLAT:?iwm_show@SoldierLimitPopupWnd@@UAEXXZ
	DD	FLAT:?iwm_hide@SoldierLimitPopupWnd@@UAEXXZ
	DD	FLAT:?iwm_esc@ioWnd@@UAE_NXZ
	DD	FLAT:?iwm_spacebar@ioWnd@@UAE_NXZ
	DD	FLAT:?iwm_gototop@ioWnd@@UAEXXZ
	DD	FLAT:?iwm_dragenter@ioWnd@@UAE?AW4IWDropEffect@@PAVioDragItem@@ABVioMouse@@@Z
	DD	FLAT:?iwm_dragover@ioWnd@@UAE?AW4IWDropEffect@@PAVioDragItem@@ABVioMouse@@@Z
	DD	FLAT:?iwm_dragleave@ioWnd@@UAEXXZ
	DD	FLAT:?iwm_dropitem@ioWnd@@UAE_NPAVioDragItem@@ABVioMouse@@PAV1@@Z
	DD	FLAT:?iwm_dropdone@ioWnd@@UAEXPAVioDragItem@@PAV1@_N@Z
	DD	FLAT:?IsEXType@ioWnd@@UBE_NXZ
	DD	FLAT:?GetWndType@ioWnd@@UBEKXZ
	DD	FLAT:?RenderWnd@ioWnd@@UAEXXZ
	DD	FLAT:?SetIDEX@ioWnd@@UAEXAAK_N@Z
	DD	FLAT:?ParseXML@ioWnd@@UAEXAAVioXMLElement@@@Z
	DD	FLAT:?GetHeaderFileName@ioWnd@@UAEPBDXZ
	DD	FLAT:?GetTemplateName@ioWnd@@UAEPBDXZ
	DD	FLAT:?GetDefClassName@ioWnd@@UBEPBDXZ
	DD	FLAT:?_Clone@ioWnd@@UAEPAV1@XZ
	DD	FLAT:?Copy@ioWnd@@UAEXPAV1@@Z
	DD	FLAT:?Save@ioWnd@@UAE_NAAVioXMLElement@@@Z
	DD	FLAT:?SetSaveData@ioWnd@@UAEXAAVioXMLElement@@@Z
	DD	FLAT:?SetPosX@ioWnd@@UAEXH@Z
	DD	FLAT:?SetPosY@ioWnd@@UAEXH@Z
	DD	FLAT:?SetWidth@ioWnd@@UAEXH@Z
	DD	FLAT:?SetHeight@ioWnd@@UAEXH@Z
	DD	FLAT:?GetNumFixedRenderFrame@ioWnd@@UBEHXZ
	DD	FLAT:?GetFixedRenderFrameType@ioWnd@@UAEPBDH@Z
	DD	FLAT:?GetRenderFrame@ioWnd@@UAEPAPAVioUIRenderElement@@PBD@Z
	DD	FLAT:?GetNumFixedRenderImage@ioWnd@@UBEHXZ
	DD	FLAT:?GetFixedRenderImageType@ioWnd@@UAEPBDH@Z
	DD	FLAT:?GetRenderImage@ioWnd@@UAEPAPAVioUIRenderElement@@PBD@Z
	DD	FLAT:?AddEffect@ioWnd@@UAEXABVioHashString@@PAVioUI3DEffectRender@@@Z
	DD	FLAT:?GetEffect@ioWnd@@UAEPAVioUI3DEffectRender@@VioHashString@@@Z
	DD	FLAT:??_ESoldierLimitPopupWnd@@UAEPAXI@Z
; Function compile flags: /Ogsp
CONST	ENDS
;	COMDAT ??0SoldierLimitPopupWnd@@QAE@XZ
_TEXT	SEGMENT
??0SoldierLimitPopupWnd@@QAE@XZ PROC			; SoldierLimitPopupWnd::SoldierLimitPopupWnd, COMDAT
; _this$ = ecx

; 41   : {

  00000	56		 push	 esi
  00001	8b f1		 mov	 esi, ecx
  00003	ff 15 00 00 00
	00		 call	 DWORD PTR __imp_??0ioWnd@@QAE@XZ
  00009	33 c0		 xor	 eax, eax
  0000b	89 86 68 01 00
	00		 mov	 DWORD PTR [esi+360], eax

; 42   : 	m_pIconBack = NULL;

  00011	89 86 60 01 00
	00		 mov	 DWORD PTR [esi+352], eax

; 43   : 	m_pIcon		= NULL;

  00017	89 86 64 01 00
	00		 mov	 DWORD PTR [esi+356], eax
  0001d	c7 06 00 00 00
	00		 mov	 DWORD PTR [esi], OFFSET ??_7SoldierLimitPopupWnd@@6B@

; 44   : }

  00023	8b c6		 mov	 eax, esi
  00025	5e		 pop	 esi
  00026	c3		 ret	 0
??0SoldierLimitPopupWnd@@QAE@XZ ENDP			; SoldierLimitPopupWnd::SoldierLimitPopupWnd
_TEXT	ENDS
PUBLIC	??1SoldierLimitPopupWnd@@UAE@XZ			; SoldierLimitPopupWnd::~SoldierLimitPopupWnd
EXTRN	__imp_??1ioWnd@@UAE@XZ:PROC
EXTRN	___CxxFrameHandler3:PROC
EXTRN	@__security_check_cookie@4:PROC
EXTRN	__EH_epilog3:PROC
EXTRN	__EH_prolog3:PROC
;	COMDAT xdata$x
xdata$x	SEGMENT
__unwindtable$??1SoldierLimitPopupWnd@@UAE@XZ DD 0ffffffffH
	DD	FLAT:__unwindfunclet$??1SoldierLimitPopupWnd@@UAE@XZ$0
__ehfuncinfo$??1SoldierLimitPopupWnd@@UAE@XZ DD 019930522H
	DD	01H
	DD	FLAT:__unwindtable$??1SoldierLimitPopupWnd@@UAE@XZ
	DD	2 DUP(00H)
	DD	2 DUP(00H)
	DD	00H
	DD	01H
; Function compile flags: /Ogsp
xdata$x	ENDS
;	COMDAT ??1SoldierLimitPopupWnd@@UAE@XZ
_TEXT	SEGMENT
_this$ = -16						; size = 4
__$EHRec$ = -12						; size = 12
??1SoldierLimitPopupWnd@@UAE@XZ PROC			; SoldierLimitPopupWnd::~SoldierLimitPopupWnd, COMDAT
; _this$ = ecx

; 47   : {

  00000	6a 04		 push	 4
  00002	b8 00 00 00 00	 mov	 eax, __ehhandler$??1SoldierLimitPopupWnd@@UAE@XZ
  00007	e8 00 00 00 00	 call	 __EH_prolog3
  0000c	8b f9		 mov	 edi, ecx
  0000e	89 7d f0	 mov	 DWORD PTR _this$[ebp], edi
  00011	c7 07 00 00 00
	00		 mov	 DWORD PTR [edi], OFFSET ??_7SoldierLimitPopupWnd@@6B@

; 48   : 	SAFEDELETE( m_pIconBack );

  00017	8b 8f 60 01 00
	00		 mov	 ecx, DWORD PTR [edi+352]
  0001d	83 65 fc 00	 and	 DWORD PTR __$EHRec$[ebp+8], 0
  00021	85 c9		 test	 ecx, ecx
  00023	74 0e		 je	 SHORT $LN2@SoldierLim
  00025	8b 01		 mov	 eax, DWORD PTR [ecx]
  00027	6a 01		 push	 1
  00029	ff 50 40	 call	 DWORD PTR [eax+64]
  0002c	83 a7 60 01 00
	00 00		 and	 DWORD PTR [edi+352], 0
$LN2@SoldierLim:

; 49   : 	SAFEDELETE( m_pIcon );

  00033	8b 8f 64 01 00
	00		 mov	 ecx, DWORD PTR [edi+356]
  00039	85 c9		 test	 ecx, ecx
  0003b	74 0e		 je	 SHORT $LN1@SoldierLim
  0003d	8b 01		 mov	 eax, DWORD PTR [ecx]
  0003f	6a 01		 push	 1
  00041	ff 50 40	 call	 DWORD PTR [eax+64]
  00044	83 a7 64 01 00
	00 00		 and	 DWORD PTR [edi+356], 0
$LN1@SoldierLim:

; 50   : }

  0004b	83 4d fc ff	 or	 DWORD PTR __$EHRec$[ebp+8], -1
  0004f	8b cf		 mov	 ecx, edi
  00051	ff 15 00 00 00
	00		 call	 DWORD PTR __imp_??1ioWnd@@UAE@XZ
  00057	e8 00 00 00 00	 call	 __EH_epilog3
  0005c	c3		 ret	 0
_TEXT	ENDS
;	COMDAT text$x
text$x	SEGMENT
__unwindfunclet$??1SoldierLimitPopupWnd@@UAE@XZ$0:
  00000	8b 4d f0	 mov	 ecx, DWORD PTR _this$[ebp]
  00003	ff 25 00 00 00
	00		 jmp	 DWORD PTR __imp_??1ioWnd@@UAE@XZ
__ehhandler$??1SoldierLimitPopupWnd@@UAE@XZ:
  00009	8b 54 24 08	 mov	 edx, DWORD PTR [esp+8]
  0000d	8d 42 0c	 lea	 eax, DWORD PTR [edx+12]
  00010	8b 4a ec	 mov	 ecx, DWORD PTR [edx-20]
  00013	33 c8		 xor	 ecx, eax
  00015	e8 00 00 00 00	 call	 @__security_check_cookie@4
  0001a	b8 00 00 00 00	 mov	 eax, OFFSET __ehfuncinfo$??1SoldierLimitPopupWnd@@UAE@XZ
  0001f	e9 00 00 00 00	 jmp	 ___CxxFrameHandler3
text$x	ENDS
??1SoldierLimitPopupWnd@@UAE@XZ ENDP			; SoldierLimitPopupWnd::~SoldierLimitPopupWnd
PUBLIC	??_C@_0BP@FDNIMGDP@SoldierLimitPopupWnd?3?3iwm_hide?$AA@ ; `string'
PUBLIC	??_C@_00CNPNBAHC@?$AA@				; `string'
PUBLIC	__$ArrayPad$
EXTRN	__imp_?SetTitleText@ioWnd@@QAEXPBD0H@Z:PROC
EXTRN	__imp_?SafeSprintf@@YAXPADHPBDZZ:PROC
EXTRN	__imp_?GetString@ioStringManager@@QAEPADPBD0HW4FileNamePrefix@1@@Z:PROC
EXTRN	__imp_?GetSingleton@ioStringManager@@SAAAV1@XZ:PROC
EXTRN	___security_cookie:DWORD
EXTRN	_memset:PROC
;	COMDAT ??_C@_0BP@FDNIMGDP@SoldierLimitPopupWnd?3?3iwm_hide?$AA@
CONST	SEGMENT
??_C@_0BP@FDNIMGDP@SoldierLimitPopupWnd?3?3iwm_hide?$AA@ DB 'SoldierLimit'
	DB	'PopupWnd::iwm_hide', 00H			; `string'
CONST	ENDS
;	COMDAT ??_C@_00CNPNBAHC@?$AA@
CONST	SEGMENT
??_C@_00CNPNBAHC@?$AA@ DB 00H				; `string'
; Function compile flags: /Ogsp
CONST	ENDS
;	COMDAT ?iwm_hide@SoldierLimitPopupWnd@@UAEXXZ
_TEXT	SEGMENT
_szTitle$ = -264					; size = 260
__$ArrayPad$ = -4					; size = 4
?iwm_hide@SoldierLimitPopupWnd@@UAEXXZ PROC		; SoldierLimitPopupWnd::iwm_hide, COMDAT
; _this$ = ecx

; 79   : {

  00000	55		 push	 ebp
  00001	8b ec		 mov	 ebp, esp
  00003	81 ec 08 01 00
	00		 sub	 esp, 264		; 00000108H
  00009	a1 00 00 00 00	 mov	 eax, DWORD PTR ___security_cookie
  0000e	33 c5		 xor	 eax, ebp
  00010	89 45 fc	 mov	 DWORD PTR __$ArrayPad$[ebp], eax
  00013	56		 push	 esi
  00014	57		 push	 edi

; 80   : 	char szTitle[MAX_PATH] = "";

  00015	68 03 01 00 00	 push	 259			; 00000103H
  0001a	8d 85 f9 fe ff
	ff		 lea	 eax, DWORD PTR _szTitle$[ebp+1]
  00020	6a 00		 push	 0
  00022	50		 push	 eax
  00023	8b f9		 mov	 edi, ecx
  00025	c6 85 f8 fe ff
	ff 00		 mov	 BYTE PTR _szTitle$[ebp], 0
  0002c	e8 00 00 00 00	 call	 _memset
  00031	83 c4 0c	 add	 esp, 12			; 0000000cH

; 81   : 	SafeSprintf( szTitle, sizeof( szTitle ), STR(1) );

  00034	6a 00		 push	 0
  00036	6a 01		 push	 1
  00038	be 00 00 00 00	 mov	 esi, OFFSET ??_C@_00CNPNBAHC@?$AA@
  0003d	56		 push	 esi
  0003e	68 00 00 00 00	 push	 OFFSET ??_C@_0BP@FDNIMGDP@SoldierLimitPopupWnd?3?3iwm_hide?$AA@
  00043	ff 15 00 00 00
	00		 call	 DWORD PTR __imp_?GetSingleton@ioStringManager@@SAAAV1@XZ
  00049	8b c8		 mov	 ecx, eax
  0004b	ff 15 00 00 00
	00		 call	 DWORD PTR __imp_?GetString@ioStringManager@@QAEPADPBD0HW4FileNamePrefix@1@@Z
  00051	50		 push	 eax
  00052	8d 85 f8 fe ff
	ff		 lea	 eax, DWORD PTR _szTitle$[ebp]
  00058	68 04 01 00 00	 push	 260			; 00000104H
  0005d	50		 push	 eax
  0005e	ff 15 00 00 00
	00		 call	 DWORD PTR __imp_?SafeSprintf@@YAXPADHPBDZZ
  00064	83 c4 0c	 add	 esp, 12			; 0000000cH

; 82   : 	SetTitleText( szTitle );

  00067	6a 00		 push	 0
  00069	56		 push	 esi
  0006a	8d 85 f8 fe ff
	ff		 lea	 eax, DWORD PTR _szTitle$[ebp]
  00070	50		 push	 eax
  00071	8b cf		 mov	 ecx, edi
  00073	ff 15 00 00 00
	00		 call	 DWORD PTR __imp_?SetTitleText@ioWnd@@QAEXPBD0H@Z

; 83   : }

  00079	8b 4d fc	 mov	 ecx, DWORD PTR __$ArrayPad$[ebp]
  0007c	5f		 pop	 edi
  0007d	33 cd		 xor	 ecx, ebp
  0007f	5e		 pop	 esi
  00080	e8 00 00 00 00	 call	 @__security_check_cookie@4
  00085	c9		 leave
  00086	c3		 ret	 0
?iwm_hide@SoldierLimitPopupWnd@@UAEXXZ ENDP		; SoldierLimitPopupWnd::iwm_hide
_TEXT	ENDS
EXTRN	__imp_?ShowWnd@ioGUIManager@@QAEXK_N@Z:PROC
EXTRN	?GetSingleton@ioSP2GUIManager@@SAAAV1@XZ:PROC	; ioSP2GUIManager::GetSingleton
EXTRN	__imp_?HideWnd@ioWnd@@QAEXXZ:PROC
EXTRN	__imp_?GetID@ioWnd@@QBEKXZ:PROC
; Function compile flags: /Ogsp
;	COMDAT ?iwm_command@SoldierLimitPopupWnd@@UAEXPAVioWnd@@HK@Z
_TEXT	SEGMENT
_pWnd$ = 8						; size = 4
_cmd$ = 12						; size = 4
_param$ = 16						; size = 4
?iwm_command@SoldierLimitPopupWnd@@UAEXPAVioWnd@@HK@Z PROC ; SoldierLimitPopupWnd::iwm_command, COMDAT
; _this$ = ecx

; 86   : {

  00000	55		 push	 ebp
  00001	8b ec		 mov	 ebp, esp
  00003	56		 push	 esi
  00004	8b f1		 mov	 esi, ecx

; 87   : 	DWORD dwID = pWnd->GetID();

  00006	8b 4d 08	 mov	 ecx, DWORD PTR _pWnd$[ebp]
  00009	ff 15 00 00 00
	00		 call	 DWORD PTR __imp_?GetID@ioWnd@@QBEKXZ

; 88   : 	switch( dwID )

  0000f	48		 dec	 eax
  00010	75 22		 jne	 SHORT $LN1@iwm_comman

; 89   : 	{
; 90   : 	case ID_SHOP:
; 91   : 		if( cmd == IOBN_BTNUP )

  00012	83 7d 0c 11	 cmp	 DWORD PTR _cmd$[ebp], 17 ; 00000011H
  00016	75 1c		 jne	 SHORT $LN1@iwm_comman

; 92   : 		{	
; 93   : 			HideWnd();

  00018	8b ce		 mov	 ecx, esi
  0001a	ff 15 00 00 00
	00		 call	 DWORD PTR __imp_?HideWnd@ioWnd@@QAEXXZ

; 94   : 			g_GUIMgr.ShowWnd( NEW_SHOP_WND );

  00020	6a 00		 push	 0
  00022	68 f8 17 00 00	 push	 6136			; 000017f8H
  00027	e8 00 00 00 00	 call	 ?GetSingleton@ioSP2GUIManager@@SAAAV1@XZ ; ioSP2GUIManager::GetSingleton
  0002c	8b c8		 mov	 ecx, eax
  0002e	ff 15 00 00 00
	00		 call	 DWORD PTR __imp_?ShowWnd@ioGUIManager@@QAEXK_N@Z
$LN1@iwm_comman:
  00034	5e		 pop	 esi

; 95   : 		}
; 96   : 		break;
; 97   : 	}
; 98   : }

  00035	5d		 pop	 ebp
  00036	c2 0c 00	 ret	 12			; 0000000cH
?iwm_command@SoldierLimitPopupWnd@@UAEXPAVioWnd@@HK@Z ENDP ; SoldierLimitPopupWnd::iwm_command
_TEXT	ENDS
EXTRN	__imp_?ShowWnd@ioWnd@@QAEXXZ:PROC
EXTRN	__imp_?IsShow@ioGUIManager@@QAE_NK@Z:PROC
EXTRN	?IsCharBankruptcy@ioMyInfo@@QAE_NXZ:PROC	; ioMyInfo::IsCharBankruptcy
EXTRN	?GetSingleton@ioMyInfo@@SAAAV1@XZ:PROC		; ioMyInfo::GetSingleton
EXTRN	__imp_?IsShow@ioWnd@@QBE_NXZ:PROC
EXTRN	?IsSingleMode@ioApplication@@QAE_NXZ:PROC	; ioApplication::IsSingleMode
EXTRN	?GetSingleton@ioApplication@@SAAAV1@XZ:PROC	; ioApplication::GetSingleton
; Function compile flags: /Ogsp
;	COMDAT ?OnProcess@SoldierLimitPopupWnd@@MAEXM@Z
_TEXT	SEGMENT
_fTimePerSec$ = 8					; size = 4
?OnProcess@SoldierLimitPopupWnd@@MAEXM@Z PROC		; SoldierLimitPopupWnd::OnProcess, COMDAT
; _this$ = ecx

; 101  : {

  00000	57		 push	 edi
  00001	8b f9		 mov	 edi, ecx

; 102  : 	if( g_App.IsSingleMode() )

  00003	e8 00 00 00 00	 call	 ?GetSingleton@ioApplication@@SAAAV1@XZ ; ioApplication::GetSingleton
  00008	8b c8		 mov	 ecx, eax
  0000a	e8 00 00 00 00	 call	 ?IsSingleMode@ioApplication@@QAE_NXZ ; ioApplication::IsSingleMode
  0000f	84 c0		 test	 al, al
  00011	75 50		 jne	 SHORT $LN2@OnProcess

; 103  : 		return;
; 104  : 
; 105  : 	if( !IsShow() && g_MyInfo.IsCharBankruptcy() )

  00013	8b cf		 mov	 ecx, edi
  00015	ff 15 00 00 00
	00		 call	 DWORD PTR __imp_?IsShow@ioWnd@@QBE_NXZ
  0001b	84 c0		 test	 al, al
  0001d	75 44		 jne	 SHORT $LN2@OnProcess
  0001f	e8 00 00 00 00	 call	 ?GetSingleton@ioMyInfo@@SAAAV1@XZ ; ioMyInfo::GetSingleton
  00024	8b c8		 mov	 ecx, eax
  00026	e8 00 00 00 00	 call	 ?IsCharBankruptcy@ioMyInfo@@QAE_NXZ ; ioMyInfo::IsCharBankruptcy
  0002b	84 c0		 test	 al, al
  0002d	74 34		 je	 SHORT $LN2@OnProcess

; 106  : 	{
; 107  : 		if( g_GUIMgr.IsShow( NEW_SHOP_WND ) || g_GUIMgr.IsShow( MY_INVENTORY_WND ) )

  0002f	56		 push	 esi
  00030	68 f8 17 00 00	 push	 6136			; 000017f8H
  00035	e8 00 00 00 00	 call	 ?GetSingleton@ioSP2GUIManager@@SAAAV1@XZ ; ioSP2GUIManager::GetSingleton
  0003a	8b 35 00 00 00
	00		 mov	 esi, DWORD PTR __imp_?IsShow@ioGUIManager@@QAE_NK@Z
  00040	8b c8		 mov	 ecx, eax
  00042	ff d6		 call	 esi
  00044	84 c0		 test	 al, al
  00046	75 1a		 jne	 SHORT $LN8@OnProcess
  00048	68 96 17 00 00	 push	 6038			; 00001796H
  0004d	e8 00 00 00 00	 call	 ?GetSingleton@ioSP2GUIManager@@SAAAV1@XZ ; ioSP2GUIManager::GetSingleton
  00052	8b c8		 mov	 ecx, eax
  00054	ff d6		 call	 esi
  00056	84 c0		 test	 al, al
  00058	75 08		 jne	 SHORT $LN8@OnProcess

; 108  : 			return;
; 109  : 		else
; 110  : 		{
; 111  : 			ShowWnd();

  0005a	8b cf		 mov	 ecx, edi
  0005c	ff 15 00 00 00
	00		 call	 DWORD PTR __imp_?ShowWnd@ioWnd@@QAEXXZ
$LN8@OnProcess:
  00062	5e		 pop	 esi
$LN2@OnProcess:
  00063	5f		 pop	 edi

; 112  : 		}
; 113  : 	}
; 114  : }

  00064	c2 04 00	 ret	 4
?OnProcess@SoldierLimitPopupWnd@@MAEXM@Z ENDP		; SoldierLimitPopupWnd::OnProcess
_TEXT	ENDS
PUBLIC	__real@3f266666
PUBLIC	??_C@_0BP@EDGGCFLK@SoldierLimitPopupWnd?3?3OnRender?$AA@ ; `string'
EXTRN	??1ioComplexStringPrinter@@QAE@XZ:PROC		; ioComplexStringPrinter::~ioComplexStringPrinter
EXTRN	?ClearList@ioComplexStringPrinter@@QAEXXZ:PROC	; ioComplexStringPrinter::ClearList
EXTRN	?PrintFullText@ioComplexStringPrinter@@QAEXMMW4TextAlignType@@E@Z:PROC ; ioComplexStringPrinter::PrintFullText
EXTRN	?AddTextPiece@ioComplexStringPrinter@@QAAXMPBDZZ:PROC ; ioComplexStringPrinter::AddTextPiece
EXTRN	?SetTextColor@ioComplexStringPrinter@@QAEXK@Z:PROC ; ioComplexStringPrinter::SetTextColor
EXTRN	?SetBkColor@ioComplexStringPrinter@@QAEXHHH@Z:PROC ; ioComplexStringPrinter::SetBkColor
EXTRN	?SetTextStyle@ioComplexStringPrinter@@QAEXW4TextStyle@@@Z:PROC ; ioComplexStringPrinter::SetTextStyle
EXTRN	??0ioComplexStringPrinter@@QAE@XZ:PROC		; ioComplexStringPrinter::ioComplexStringPrinter
EXTRN	__imp_?PrintText@ioFontManager@@QAAXMMMPBDZZ:PROC
EXTRN	__imp_?SetTextColor@ioFontManager@@QAEXK@Z:PROC
EXTRN	__imp_?SetBkColor@ioFontManager@@QAEXHHH@Z:PROC
EXTRN	__imp_?SetTextStyle@ioFontManager@@QAEXW4TextStyle@@@Z:PROC
EXTRN	__imp_?SetAlignType@ioFontManager@@QAEXW4TextAlignType@@@Z:PROC
EXTRN	__imp_?GetSingleton@ioFontManager@@SAAAV1@XZ:PROC
EXTRN	__imp_?GetDerivedPosY@ioWnd@@QBEHXZ:PROC
EXTRN	__imp_?GetDerivedPosX@ioWnd@@QBEHXZ:PROC
EXTRN	__imp_?OnRender@ioWnd@@MAEXXZ:PROC
EXTRN	__fltused:DWORD
;	COMDAT __real@3f266666
CONST	SEGMENT
__real@3f266666 DD 03f266666r			; 0.65
CONST	ENDS
;	COMDAT ??_C@_0BP@EDGGCFLK@SoldierLimitPopupWnd?3?3OnRender?$AA@
CONST	SEGMENT
??_C@_0BP@EDGGCFLK@SoldierLimitPopupWnd?3?3OnRender?$AA@ DB 'SoldierLimit'
	DB	'PopupWnd::OnRender', 00H			; `string'
CONST	ENDS
;	COMDAT xdata$x
xdata$x	SEGMENT
__unwindtable$?OnRender@SoldierLimitPopupWnd@@MAEXXZ DD 0ffffffffH
	DD	FLAT:__unwindfunclet$?OnRender@SoldierLimitPopupWnd@@MAEXXZ$0
__ehfuncinfo$?OnRender@SoldierLimitPopupWnd@@MAEXXZ DD 019930522H
	DD	01H
	DD	FLAT:__unwindtable$?OnRender@SoldierLimitPopupWnd@@MAEXXZ
	DD	2 DUP(00H)
	DD	2 DUP(00H)
	DD	00H
	DD	01H
; Function compile flags: /Ogsp
xdata$x	ENDS
;	COMDAT ?OnRender@SoldierLimitPopupWnd@@MAEXXZ
_TEXT	SEGMENT
_kPrinter$ = -48					; size = 32
tv299 = -16						; size = 4
_iXPos$ = -16						; size = 4
__$EHRec$ = -12						; size = 12
?OnRender@SoldierLimitPopupWnd@@MAEXXZ PROC		; SoldierLimitPopupWnd::OnRender, COMDAT
; _this$ = ecx

; 117  : {

  00000	6a 24		 push	 36			; 00000024H
  00002	b8 00 00 00 00	 mov	 eax, __ehhandler$?OnRender@SoldierLimitPopupWnd@@MAEXXZ
  00007	e8 00 00 00 00	 call	 __EH_prolog3
  0000c	8b f1		 mov	 esi, ecx

; 118  : 	ioWnd::OnRender();

  0000e	ff 15 00 00 00
	00		 call	 DWORD PTR __imp_?OnRender@ioWnd@@MAEXXZ

; 119  : 	int iXPos = GetDerivedPosX();

  00014	8b ce		 mov	 ecx, esi
  00016	ff 15 00 00 00
	00		 call	 DWORD PTR __imp_?GetDerivedPosX@ioWnd@@QBEHXZ

; 120  : 	int iYPos = GetDerivedPosY();

  0001c	8b ce		 mov	 ecx, esi
  0001e	89 45 f0	 mov	 DWORD PTR _iXPos$[ebp], eax
  00021	ff 15 00 00 00
	00		 call	 DWORD PTR __imp_?GetDerivedPosY@ioWnd@@QBEHXZ

; 121  : 
; 122  : 	if( m_pIconBack )

  00027	33 ff		 xor	 edi, edi
  00029	8b d8		 mov	 ebx, eax
  0002b	39 be 60 01 00
	00		 cmp	 DWORD PTR [esi+352], edi
  00031	74 39		 je	 SHORT $LN2@OnRender

; 123  : 		m_pIconBack->Render( iXPos + 151, iYPos + 98, UI_RENDER_MULTIPLY, TFO_BILINEAR );

  00033	8b 86 60 01 00
	00		 mov	 eax, DWORD PTR [esi+352]
  00039	8b 10		 mov	 edx, DWORD PTR [eax]
  0003b	57		 push	 edi
  0003c	57		 push	 edi
  0003d	6a 01		 push	 1
  0003f	8d 4b 62	 lea	 ecx, DWORD PTR [ebx+98]
  00042	6a 08		 push	 8
  00044	51		 push	 ecx
  00045	51		 push	 ecx
  00046	0f 57 c0	 xorps	 xmm0, xmm0
  00049	f3 0f 2a c1	 cvtsi2ss xmm0, ecx
  0004d	8b 4d f0	 mov	 ecx, DWORD PTR _iXPos$[ebp]
  00050	f3 0f 11 44 24
	04		 movss	 DWORD PTR [esp+4], xmm0
  00056	81 c1 97 00 00
	00		 add	 ecx, 151		; 00000097H
  0005c	0f 57 c0	 xorps	 xmm0, xmm0
  0005f	f3 0f 2a c1	 cvtsi2ss xmm0, ecx
  00063	8b c8		 mov	 ecx, eax
  00065	f3 0f 11 04 24	 movss	 DWORD PTR [esp], xmm0
  0006a	ff 12		 call	 DWORD PTR [edx]
$LN2@OnRender:

; 124  : 	if( m_pIcon )

  0006c	39 be 64 01 00
	00		 cmp	 DWORD PTR [esi+356], edi
  00072	74 35		 je	 SHORT $LN1@OnRender

; 125  : 		m_pIcon->Render( iXPos + 151, iYPos + 98 );

  00074	8b 8e 64 01 00
	00		 mov	 ecx, DWORD PTR [esi+356]
  0007a	8b 01		 mov	 eax, DWORD PTR [ecx]
  0007c	57		 push	 edi
  0007d	57		 push	 edi
  0007e	57		 push	 edi
  0007f	57		 push	 edi
  00080	0f 57 c0	 xorps	 xmm0, xmm0
  00083	8d 53 62	 lea	 edx, DWORD PTR [ebx+98]
  00086	f3 0f 2a c2	 cvtsi2ss xmm0, edx
  0008a	8b 55 f0	 mov	 edx, DWORD PTR _iXPos$[ebp]
  0008d	51		 push	 ecx
  0008e	51		 push	 ecx
  0008f	f3 0f 11 44 24
	04		 movss	 DWORD PTR [esp+4], xmm0
  00095	81 c2 97 00 00
	00		 add	 edx, 151		; 00000097H
  0009b	0f 57 c0	 xorps	 xmm0, xmm0
  0009e	f3 0f 2a c2	 cvtsi2ss xmm0, edx
  000a2	f3 0f 11 04 24	 movss	 DWORD PTR [esp], xmm0
  000a7	ff 10		 call	 DWORD PTR [eax]
$LN1@OnRender:

; 126  : 
; 127  : 	g_FontMgr.SetAlignType( TAT_CENTER );

  000a9	8b 35 00 00 00
	00		 mov	 esi, DWORD PTR __imp_?GetSingleton@ioFontManager@@SAAAV1@XZ
  000af	6a 01		 push	 1
  000b1	ff d6		 call	 esi
  000b3	8b c8		 mov	 ecx, eax
  000b5	ff 15 00 00 00
	00		 call	 DWORD PTR __imp_?SetAlignType@ioFontManager@@QAEXW4TextAlignType@@@Z

; 128  : 	g_FontMgr.SetTextStyle( TS_NORMAL );

  000bb	57		 push	 edi
  000bc	ff d6		 call	 esi
  000be	8b c8		 mov	 ecx, eax
  000c0	ff 15 00 00 00
	00		 call	 DWORD PTR __imp_?SetTextStyle@ioFontManager@@QAEXW4TextStyle@@@Z

; 129  : 	g_FontMgr.SetBkColor( 0, 0, 0 );

  000c6	57		 push	 edi
  000c7	57		 push	 edi
  000c8	57		 push	 edi
  000c9	ff d6		 call	 esi
  000cb	8b c8		 mov	 ecx, eax
  000cd	ff 15 00 00 00
	00		 call	 DWORD PTR __imp_?SetBkColor@ioFontManager@@QAEXHHH@Z

; 130  : 	g_FontMgr.SetTextColor( TCT_DEFAULT_DARKGRAY );

  000d3	68 3a 3a 3a ff	 push	 -12961222		; ff3a3a3aH
  000d8	ff d6		 call	 esi
  000da	8b c8		 mov	 ecx, eax
  000dc	ff 15 00 00 00
	00		 call	 DWORD PTR __imp_?SetTextColor@ioFontManager@@QAEXK@Z

; 131  : 	g_FontMgr.PrintText( iXPos + 151, iYPos + 144, FONT_SIZE_13, STR(5) );

  000e2	8b 45 f0	 mov	 eax, DWORD PTR _iXPos$[ebp]
  000e5	57		 push	 edi
  000e6	6a 05		 push	 5
  000e8	05 97 00 00 00	 add	 eax, 151		; 00000097H
  000ed	0f 57 c0	 xorps	 xmm0, xmm0
  000f0	68 00 00 00 00	 push	 OFFSET ??_C@_00CNPNBAHC@?$AA@
  000f5	f3 0f 2a c0	 cvtsi2ss xmm0, eax
  000f9	68 00 00 00 00	 push	 OFFSET ??_C@_0BP@EDGGCFLK@SoldierLimitPopupWnd?3?3OnRender?$AA@
  000fe	f3 0f 11 45 f0	 movss	 DWORD PTR tv299[ebp], xmm0
  00103	ff 15 00 00 00
	00		 call	 DWORD PTR __imp_?GetSingleton@ioStringManager@@SAAAV1@XZ
  00109	8b c8		 mov	 ecx, eax
  0010b	ff 15 00 00 00
	00		 call	 DWORD PTR __imp_?GetString@ioStringManager@@QAEPADPBD0HW4FileNamePrefix@1@@Z
  00111	f3 0f 10 05 00
	00 00 00	 movss	 xmm0, DWORD PTR __real@3f266666
  00119	50		 push	 eax
  0011a	83 ec 0c	 sub	 esp, 12			; 0000000cH
  0011d	f3 0f 11 44 24
	08		 movss	 DWORD PTR [esp+8], xmm0
  00123	8d 83 90 00 00
	00		 lea	 eax, DWORD PTR [ebx+144]
  00129	0f 57 c0	 xorps	 xmm0, xmm0
  0012c	f3 0f 2a c0	 cvtsi2ss xmm0, eax
  00130	f3 0f 11 44 24
	04		 movss	 DWORD PTR [esp+4], xmm0
  00136	f3 0f 10 45 f0	 movss	 xmm0, DWORD PTR tv299[ebp]
  0013b	f3 0f 11 04 24	 movss	 DWORD PTR [esp], xmm0
  00140	ff d6		 call	 esi
  00142	50		 push	 eax
  00143	ff 15 00 00 00
	00		 call	 DWORD PTR __imp_?PrintText@ioFontManager@@QAAXMMMPBDZZ
  00149	83 c4 14	 add	 esp, 20			; 00000014H

; 132  : 
; 133  : 	ioComplexStringPrinter kPrinter;

  0014c	8d 4d d0	 lea	 ecx, DWORD PTR _kPrinter$[ebp]
  0014f	e8 00 00 00 00	 call	 ??0ioComplexStringPrinter@@QAE@XZ ; ioComplexStringPrinter::ioComplexStringPrinter

; 134  : 	kPrinter.SetTextStyle( TS_NORMAL );

  00154	57		 push	 edi
  00155	8d 4d d0	 lea	 ecx, DWORD PTR _kPrinter$[ebp]
  00158	89 7d fc	 mov	 DWORD PTR __$EHRec$[ebp+8], edi
  0015b	e8 00 00 00 00	 call	 ?SetTextStyle@ioComplexStringPrinter@@QAEXW4TextStyle@@@Z ; ioComplexStringPrinter::SetTextStyle

; 135  : 	kPrinter.SetBkColor( 0, 0, 0 );	

  00160	57		 push	 edi
  00161	57		 push	 edi
  00162	57		 push	 edi
  00163	8d 4d d0	 lea	 ecx, DWORD PTR _kPrinter$[ebp]
  00166	e8 00 00 00 00	 call	 ?SetBkColor@ioComplexStringPrinter@@QAEXHHH@Z ; ioComplexStringPrinter::SetBkColor

; 136  : 	kPrinter.SetTextColor( TCT_DEFAULT_GRAY );

  0016b	68 6e 6e 6e ff	 push	 -9539986		; ff6e6e6eH
  00170	8d 4d d0	 lea	 ecx, DWORD PTR _kPrinter$[ebp]
  00173	e8 00 00 00 00	 call	 ?SetTextColor@ioComplexStringPrinter@@QAEXK@Z ; ioComplexStringPrinter::SetTextColor

; 137  : 	kPrinter.AddTextPiece( FONT_SIZE_13, STR(1) );

  00178	8b 35 00 00 00
	00		 mov	 esi, DWORD PTR __imp_?GetSingleton@ioStringManager@@SAAAV1@XZ
  0017e	57		 push	 edi
  0017f	6a 01		 push	 1
  00181	68 00 00 00 00	 push	 OFFSET ??_C@_00CNPNBAHC@?$AA@
  00186	68 00 00 00 00	 push	 OFFSET ??_C@_0BP@EDGGCFLK@SoldierLimitPopupWnd?3?3OnRender?$AA@
  0018b	ff d6		 call	 esi
  0018d	8b c8		 mov	 ecx, eax
  0018f	ff 15 00 00 00
	00		 call	 DWORD PTR __imp_?GetString@ioStringManager@@QAEPADPBD0HW4FileNamePrefix@1@@Z
  00195	f3 0f 10 05 00
	00 00 00	 movss	 xmm0, DWORD PTR __real@3f266666
  0019d	50		 push	 eax
  0019e	51		 push	 ecx
  0019f	8d 45 d0	 lea	 eax, DWORD PTR _kPrinter$[ebp]
  001a2	f3 0f 11 04 24	 movss	 DWORD PTR [esp], xmm0
  001a7	50		 push	 eax
  001a8	e8 00 00 00 00	 call	 ?AddTextPiece@ioComplexStringPrinter@@QAAXMPBDZZ ; ioComplexStringPrinter::AddTextPiece
  001ad	83 c4 0c	 add	 esp, 12			; 0000000cH

; 138  : 	kPrinter.PrintFullText( iXPos + 151, iYPos + 164, TAT_CENTER );

  001b0	68 ff 00 00 00	 push	 255			; 000000ffH
  001b5	8d 83 a4 00 00
	00		 lea	 eax, DWORD PTR [ebx+164]
  001bb	0f 57 c0	 xorps	 xmm0, xmm0
  001be	6a 01		 push	 1
  001c0	f3 0f 2a c0	 cvtsi2ss xmm0, eax
  001c4	51		 push	 ecx
  001c5	51		 push	 ecx
  001c6	f3 0f 11 44 24
	04		 movss	 DWORD PTR [esp+4], xmm0
  001cc	f3 0f 10 45 f0	 movss	 xmm0, DWORD PTR tv299[ebp]
  001d1	8d 4d d0	 lea	 ecx, DWORD PTR _kPrinter$[ebp]
  001d4	f3 0f 11 04 24	 movss	 DWORD PTR [esp], xmm0
  001d9	e8 00 00 00 00	 call	 ?PrintFullText@ioComplexStringPrinter@@QAEXMMW4TextAlignType@@E@Z ; ioComplexStringPrinter::PrintFullText

; 139  : 	kPrinter.ClearList();

  001de	8d 4d d0	 lea	 ecx, DWORD PTR _kPrinter$[ebp]
  001e1	e8 00 00 00 00	 call	 ?ClearList@ioComplexStringPrinter@@QAEXXZ ; ioComplexStringPrinter::ClearList

; 140  : 
; 141  : 	kPrinter.SetTextStyle( TS_NORMAL );

  001e6	57		 push	 edi
  001e7	8d 4d d0	 lea	 ecx, DWORD PTR _kPrinter$[ebp]
  001ea	e8 00 00 00 00	 call	 ?SetTextStyle@ioComplexStringPrinter@@QAEXW4TextStyle@@@Z ; ioComplexStringPrinter::SetTextStyle

; 142  : 	kPrinter.SetBkColor( 0, 0, 0 );

  001ef	57		 push	 edi
  001f0	57		 push	 edi
  001f1	57		 push	 edi
  001f2	8d 4d d0	 lea	 ecx, DWORD PTR _kPrinter$[ebp]
  001f5	e8 00 00 00 00	 call	 ?SetBkColor@ioComplexStringPrinter@@QAEXHHH@Z ; ioComplexStringPrinter::SetBkColor

; 143  : 	kPrinter.SetTextColor( TCT_DEFAULT_GRAY );

  001fa	68 6e 6e 6e ff	 push	 -9539986		; ff6e6e6eH
  001ff	8d 4d d0	 lea	 ecx, DWORD PTR _kPrinter$[ebp]
  00202	e8 00 00 00 00	 call	 ?SetTextColor@ioComplexStringPrinter@@QAEXK@Z ; ioComplexStringPrinter::SetTextColor

; 144  : 	kPrinter.AddTextPiece( FONT_SIZE_13, STR(2) );

  00207	57		 push	 edi
  00208	6a 02		 push	 2
  0020a	68 00 00 00 00	 push	 OFFSET ??_C@_00CNPNBAHC@?$AA@
  0020f	68 00 00 00 00	 push	 OFFSET ??_C@_0BP@EDGGCFLK@SoldierLimitPopupWnd?3?3OnRender?$AA@
  00214	ff d6		 call	 esi
  00216	8b c8		 mov	 ecx, eax
  00218	ff 15 00 00 00
	00		 call	 DWORD PTR __imp_?GetString@ioStringManager@@QAEPADPBD0HW4FileNamePrefix@1@@Z
  0021e	f3 0f 10 05 00
	00 00 00	 movss	 xmm0, DWORD PTR __real@3f266666
  00226	50		 push	 eax
  00227	51		 push	 ecx
  00228	8d 45 d0	 lea	 eax, DWORD PTR _kPrinter$[ebp]
  0022b	f3 0f 11 04 24	 movss	 DWORD PTR [esp], xmm0
  00230	50		 push	 eax
  00231	e8 00 00 00 00	 call	 ?AddTextPiece@ioComplexStringPrinter@@QAAXMPBDZZ ; ioComplexStringPrinter::AddTextPiece
  00236	83 c4 0c	 add	 esp, 12			; 0000000cH

; 145  : 	kPrinter.PrintFullText( iXPos + 151, iYPos + 184, TAT_CENTER );

  00239	68 ff 00 00 00	 push	 255			; 000000ffH
  0023e	6a 01		 push	 1
  00240	51		 push	 ecx
  00241	51		 push	 ecx
  00242	0f 57 c0	 xorps	 xmm0, xmm0
  00245	81 c3 b8 00 00
	00		 add	 ebx, 184		; 000000b8H
  0024b	f3 0f 2a c3	 cvtsi2ss xmm0, ebx
  0024f	f3 0f 11 44 24
	04		 movss	 DWORD PTR [esp+4], xmm0
  00255	f3 0f 10 45 f0	 movss	 xmm0, DWORD PTR tv299[ebp]
  0025a	8d 4d d0	 lea	 ecx, DWORD PTR _kPrinter$[ebp]
  0025d	f3 0f 11 04 24	 movss	 DWORD PTR [esp], xmm0
  00262	e8 00 00 00 00	 call	 ?PrintFullText@ioComplexStringPrinter@@QAEXMMW4TextAlignType@@E@Z ; ioComplexStringPrinter::PrintFullText

; 146  : 	kPrinter.ClearList();

  00267	8d 4d d0	 lea	 ecx, DWORD PTR _kPrinter$[ebp]
  0026a	e8 00 00 00 00	 call	 ?ClearList@ioComplexStringPrinter@@QAEXXZ ; ioComplexStringPrinter::ClearList

; 147  : }

  0026f	83 4d fc ff	 or	 DWORD PTR __$EHRec$[ebp+8], -1
  00273	8d 4d d0	 lea	 ecx, DWORD PTR _kPrinter$[ebp]
  00276	e8 00 00 00 00	 call	 ??1ioComplexStringPrinter@@QAE@XZ ; ioComplexStringPrinter::~ioComplexStringPrinter
  0027b	e8 00 00 00 00	 call	 __EH_epilog3
  00280	c3		 ret	 0
_TEXT	ENDS
;	COMDAT text$x
text$x	SEGMENT
__unwindfunclet$?OnRender@SoldierLimitPopupWnd@@MAEXXZ$0:
  00000	8d 4d d0	 lea	 ecx, DWORD PTR _kPrinter$[ebp]
  00003	e9 00 00 00 00	 jmp	 ??1ioComplexStringPrinter@@QAE@XZ ; ioComplexStringPrinter::~ioComplexStringPrinter
__ehhandler$?OnRender@SoldierLimitPopupWnd@@MAEXXZ:
  00008	8b 54 24 08	 mov	 edx, DWORD PTR [esp+8]
  0000c	8d 42 0c	 lea	 eax, DWORD PTR [edx+12]
  0000f	8b 4a cc	 mov	 ecx, DWORD PTR [edx-52]
  00012	33 c8		 xor	 ecx, eax
  00014	e8 00 00 00 00	 call	 @__security_check_cookie@4
  00019	b8 00 00 00 00	 mov	 eax, OFFSET __ehfuncinfo$?OnRender@SoldierLimitPopupWnd@@MAEXXZ
  0001e	e9 00 00 00 00	 jmp	 ___CxxFrameHandler3
text$x	ENDS
?OnRender@SoldierLimitPopupWnd@@MAEXXZ ENDP		; SoldierLimitPopupWnd::OnRender
PUBLIC	??_7RentalSoldierLimitPopupWnd@@6B@		; RentalSoldierLimitPopupWnd::`vftable'
PUBLIC	??0RentalSoldierLimitPopupWnd@@QAE@XZ		; RentalSoldierLimitPopupWnd::RentalSoldierLimitPopupWnd
PUBLIC	??_R4RentalSoldierLimitPopupWnd@@6B@		; RentalSoldierLimitPopupWnd::`RTTI Complete Object Locator'
PUBLIC	??_R0?AVRentalSoldierLimitPopupWnd@@@8		; RentalSoldierLimitPopupWnd `RTTI Type Descriptor'
PUBLIC	??_R3RentalSoldierLimitPopupWnd@@8		; RentalSoldierLimitPopupWnd::`RTTI Class Hierarchy Descriptor'
PUBLIC	??_R2RentalSoldierLimitPopupWnd@@8		; RentalSoldierLimitPopupWnd::`RTTI Base Class Array'
PUBLIC	??_R1A@?0A@EA@RentalSoldierLimitPopupWnd@@8	; RentalSoldierLimitPopupWnd::`RTTI Base Class Descriptor at (0,-1,0,64)'
PUBLIC	?AddRenderImage@RentalSoldierLimitPopupWnd@@MAEXABVioHashString@@PAVioUIRenderImage@@@Z ; RentalSoldierLimitPopupWnd::AddRenderImage
PUBLIC	?OnRender@RentalSoldierLimitPopupWnd@@MAEXXZ	; RentalSoldierLimitPopupWnd::OnRender
PUBLIC	?OnProcess@RentalSoldierLimitPopupWnd@@MAEXM@Z	; RentalSoldierLimitPopupWnd::OnProcess
PUBLIC	?iwm_command@RentalSoldierLimitPopupWnd@@UAEXPAVioWnd@@HK@Z ; RentalSoldierLimitPopupWnd::iwm_command
PUBLIC	?iwm_show@RentalSoldierLimitPopupWnd@@UAEXXZ	; RentalSoldierLimitPopupWnd::iwm_show
PUBLIC	?iwm_hide@RentalSoldierLimitPopupWnd@@UAEXXZ	; RentalSoldierLimitPopupWnd::iwm_hide
EXTRN	??_ERentalSoldierLimitPopupWnd@@UAEPAXI@Z:PROC	; RentalSoldierLimitPopupWnd::`vector deleting destructor'
;	COMDAT ??_R1A@?0A@EA@RentalSoldierLimitPopupWnd@@8
rdata$r	SEGMENT
??_R1A@?0A@EA@RentalSoldierLimitPopupWnd@@8 DD FLAT:??_R0?AVRentalSoldierLimitPopupWnd@@@8 ; RentalSoldierLimitPopupWnd::`RTTI Base Class Descriptor at (0,-1,0,64)'
	DD	01H
	DD	00H
	DD	0ffffffffH
	DD	00H
	DD	040H
	DD	FLAT:??_R3RentalSoldierLimitPopupWnd@@8
rdata$r	ENDS
;	COMDAT ??_R2RentalSoldierLimitPopupWnd@@8
rdata$r	SEGMENT
??_R2RentalSoldierLimitPopupWnd@@8 DD FLAT:??_R1A@?0A@EA@RentalSoldierLimitPopupWnd@@8 ; RentalSoldierLimitPopupWnd::`RTTI Base Class Array'
	DD	FLAT:??_R1A@?0A@EA@ioWnd@@8
rdata$r	ENDS
;	COMDAT ??_R3RentalSoldierLimitPopupWnd@@8
rdata$r	SEGMENT
??_R3RentalSoldierLimitPopupWnd@@8 DD 00H		; RentalSoldierLimitPopupWnd::`RTTI Class Hierarchy Descriptor'
	DD	00H
	DD	02H
	DD	FLAT:??_R2RentalSoldierLimitPopupWnd@@8
rdata$r	ENDS
;	COMDAT ??_R0?AVRentalSoldierLimitPopupWnd@@@8
_DATA	SEGMENT
??_R0?AVRentalSoldierLimitPopupWnd@@@8 DD FLAT:??_7type_info@@6B@ ; RentalSoldierLimitPopupWnd `RTTI Type Descriptor'
	DD	00H
	DB	'.?AVRentalSoldierLimitPopupWnd@@', 00H
_DATA	ENDS
;	COMDAT ??_R4RentalSoldierLimitPopupWnd@@6B@
rdata$r	SEGMENT
??_R4RentalSoldierLimitPopupWnd@@6B@ DD 00H		; RentalSoldierLimitPopupWnd::`RTTI Complete Object Locator'
	DD	00H
	DD	00H
	DD	FLAT:??_R0?AVRentalSoldierLimitPopupWnd@@@8
	DD	FLAT:??_R3RentalSoldierLimitPopupWnd@@8
rdata$r	ENDS
;	COMDAT ??_7RentalSoldierLimitPopupWnd@@6B@
CONST	SEGMENT
??_7RentalSoldierLimitPopupWnd@@6B@ DD FLAT:??_R4RentalSoldierLimitPopupWnd@@6B@ ; RentalSoldierLimitPopupWnd::`vftable'
	DD	FLAT:?AddRenderFrame@ioWnd@@UAEXABVioHashString@@PAVioUIRenderFrame@@@Z
	DD	FLAT:?AddRenderImage@RentalSoldierLimitPopupWnd@@MAEXABVioHashString@@PAVioUIRenderImage@@@Z
	DD	FLAT:?AddTooltipHelp@ioWnd@@UAEXABVioHashString@@00@Z
	DD	FLAT:?ParseExtraInfo@ioWnd@@UAEXAAVioXMLElement@@@Z
	DD	FLAT:?AddNamedRenderImage@ioWnd@@UAEXABVioHashString@@PAVioUIRenderImage@@@Z
	DD	FLAT:?RemoveNamedRenderImage@ioWnd@@UAEXABVioHashString@@@Z
	DD	FLAT:?GetNamedRenderImage@ioWnd@@UBEPAVioUIRenderImage@@ABVioHashString@@@Z
	DD	FLAT:?SetWindowAlpha@ioWnd@@UAEXH@Z
	DD	FLAT:?SetActive@ioWnd@@UAEXXZ
	DD	FLAT:?SetInActive@ioWnd@@UAEXXZ
	DD	FLAT:?ClearElementImageList@ioWnd@@UAEXXZ
	DD	FLAT:?SetSize@ioWnd@@UAEXHH@Z
	DD	FLAT:?SetPositionToDefault@ioWnd@@UAEXHH_N0@Z
	DD	FLAT:?IsNeedProcess@ioWnd@@UBE_NXZ
	DD	FLAT:?IsCanMouseReaction@ioWnd@@UBE_NXZ
	DD	FLAT:?AddChild@ioWnd@@UAEXPAV1@@Z
	DD	FLAT:?DeleteChild@ioWnd@@UAEXK@Z
	DD	FLAT:?DeleteAllChild@ioWnd@@UAEXXZ
	DD	FLAT:?OnRenderShowAndHide@ioWnd@@MAE_NXZ
	DD	FLAT:?OnRenderShowAndHideByDefault@ioWnd@@MAE_NK@Z
	DD	FLAT:?OnRenderShowAndHideByTop@ioWnd@@MAE_NK@Z
	DD	FLAT:?OnRenderShowAndHideByDown@ioWnd@@MAE_NK@Z
	DD	FLAT:?OnRender@RentalSoldierLimitPopupWnd@@MAEXXZ
	DD	FLAT:?OnRenderAfterChild@ioWnd@@MAEXXZ
	DD	FLAT:?OnProcess@RentalSoldierLimitPopupWnd@@MAEXM@Z
	DD	FLAT:?OnMouseProcess@ioWnd@@MAEXABVioMouse@@@Z
	DD	FLAT:?CheckFrameReSize@ioWnd@@MAEXHHHH@Z
	DD	FLAT:?RenderImageList@ioWnd@@MAEXHHW4UIRenderType@@@Z
	DD	FLAT:?iwm_create@ioWnd@@UAEXXZ
	DD	FLAT:?iwm_destroy@ioWnd@@UAEXXZ
	DD	FLAT:?iwm_lbuttondown@ioWnd@@UAEXABVioMouse@@@Z
	DD	FLAT:?iwm_lbuttonup@ioWnd@@UAEXABVioMouse@@@Z
	DD	FLAT:?iwm_lbuttonDBLCLK@ioWnd@@UAEXABVioMouse@@@Z
	DD	FLAT:?iwm_rbuttondown@ioWnd@@UAEXABVioMouse@@@Z
	DD	FLAT:?iwm_rbuttonup@ioWnd@@UAEXABVioMouse@@@Z
	DD	FLAT:?iwm_command@RentalSoldierLimitPopupWnd@@UAEXPAVioWnd@@HK@Z
	DD	FLAT:?iwm_mouseover@ioWnd@@UAEXABVioMouse@@@Z
	DD	FLAT:?iwm_mousemove@ioWnd@@UAEXABVioMouse@@@Z
	DD	FLAT:?iwm_mouseleave@ioWnd@@UAEXABVioMouse@@@Z
	DD	FLAT:?iwm_vscroll@ioWnd@@UAEXKH@Z
	DD	FLAT:?iwm_wheel@ioWnd@@UAEXH@Z
	DD	FLAT:?iwm_show@RentalSoldierLimitPopupWnd@@UAEXXZ
	DD	FLAT:?iwm_hide@RentalSoldierLimitPopupWnd@@UAEXXZ
	DD	FLAT:?iwm_esc@ioWnd@@UAE_NXZ
	DD	FLAT:?iwm_spacebar@ioWnd@@UAE_NXZ
	DD	FLAT:?iwm_gototop@ioWnd@@UAEXXZ
	DD	FLAT:?iwm_dragenter@ioWnd@@UAE?AW4IWDropEffect@@PAVioDragItem@@ABVioMouse@@@Z
	DD	FLAT:?iwm_dragover@ioWnd@@UAE?AW4IWDropEffect@@PAVioDragItem@@ABVioMouse@@@Z
	DD	FLAT:?iwm_dragleave@ioWnd@@UAEXXZ
	DD	FLAT:?iwm_dropitem@ioWnd@@UAE_NPAVioDragItem@@ABVioMouse@@PAV1@@Z
	DD	FLAT:?iwm_dropdone@ioWnd@@UAEXPAVioDragItem@@PAV1@_N@Z
	DD	FLAT:?IsEXType@ioWnd@@UBE_NXZ
	DD	FLAT:?GetWndType@ioWnd@@UBEKXZ
	DD	FLAT:?RenderWnd@ioWnd@@UAEXXZ
	DD	FLAT:?SetIDEX@ioWnd@@UAEXAAK_N@Z
	DD	FLAT:?ParseXML@ioWnd@@UAEXAAVioXMLElement@@@Z
	DD	FLAT:?GetHeaderFileName@ioWnd@@UAEPBDXZ
	DD	FLAT:?GetTemplateName@ioWnd@@UAEPBDXZ
	DD	FLAT:?GetDefClassName@ioWnd@@UBEPBDXZ
	DD	FLAT:?_Clone@ioWnd@@UAEPAV1@XZ
	DD	FLAT:?Copy@ioWnd@@UAEXPAV1@@Z
	DD	FLAT:?Save@ioWnd@@UAE_NAAVioXMLElement@@@Z
	DD	FLAT:?SetSaveData@ioWnd@@UAEXAAVioXMLElement@@@Z
	DD	FLAT:?SetPosX@ioWnd@@UAEXH@Z
	DD	FLAT:?SetPosY@ioWnd@@UAEXH@Z
	DD	FLAT:?SetWidth@ioWnd@@UAEXH@Z
	DD	FLAT:?SetHeight@ioWnd@@UAEXH@Z
	DD	FLAT:?GetNumFixedRenderFrame@ioWnd@@UBEHXZ
	DD	FLAT:?GetFixedRenderFrameType@ioWnd@@UAEPBDH@Z
	DD	FLAT:?GetRenderFrame@ioWnd@@UAEPAPAVioUIRenderElement@@PBD@Z
	DD	FLAT:?GetNumFixedRenderImage@ioWnd@@UBEHXZ
	DD	FLAT:?GetFixedRenderImageType@ioWnd@@UAEPBDH@Z
	DD	FLAT:?GetRenderImage@ioWnd@@UAEPAPAVioUIRenderElement@@PBD@Z
	DD	FLAT:?AddEffect@ioWnd@@UAEXABVioHashString@@PAVioUI3DEffectRender@@@Z
	DD	FLAT:?GetEffect@ioWnd@@UAEPAVioUI3DEffectRender@@VioHashString@@@Z
	DD	FLAT:??_ERentalSoldierLimitPopupWnd@@UAEPAXI@Z
; Function compile flags: /Ogsp
CONST	ENDS
;	COMDAT ??0RentalSoldierLimitPopupWnd@@QAE@XZ
_TEXT	SEGMENT
??0RentalSoldierLimitPopupWnd@@QAE@XZ PROC		; RentalSoldierLimitPopupWnd::RentalSoldierLimitPopupWnd, COMDAT
; _this$ = ecx

; 150  : {

  00000	56		 push	 esi
  00001	8b f1		 mov	 esi, ecx
  00003	ff 15 00 00 00
	00		 call	 DWORD PTR __imp_??0ioWnd@@QAE@XZ
  00009	33 c0		 xor	 eax, eax
  0000b	89 86 68 01 00
	00		 mov	 DWORD PTR [esi+360], eax

; 151  : 	m_pIconBack = NULL;

  00011	89 86 60 01 00
	00		 mov	 DWORD PTR [esi+352], eax

; 152  : 	m_pCharIcon = NULL;

  00017	89 86 64 01 00
	00		 mov	 DWORD PTR [esi+356], eax

; 153  : 
; 154  : 	m_dwProcessCheckTime = 0;

  0001d	89 86 74 01 00
	00		 mov	 DWORD PTR [esi+372], eax

; 155  : 	m_iCharType = 0;

  00023	89 86 6c 01 00
	00		 mov	 DWORD PTR [esi+364], eax

; 156  : 	m_dwRoomOutTime = 0;

  00029	89 86 70 01 00
	00		 mov	 DWORD PTR [esi+368], eax

; 157  : 	m_nGradeType = 0;

  0002f	89 86 78 01 00
	00		 mov	 DWORD PTR [esi+376], eax
  00035	c7 06 00 00 00
	00		 mov	 DWORD PTR [esi], OFFSET ??_7RentalSoldierLimitPopupWnd@@6B@

; 158  : }

  0003b	8b c6		 mov	 eax, esi
  0003d	5e		 pop	 esi
  0003e	c3		 ret	 0
??0RentalSoldierLimitPopupWnd@@QAE@XZ ENDP		; RentalSoldierLimitPopupWnd::RentalSoldierLimitPopupWnd
_TEXT	ENDS
PUBLIC	??1RentalSoldierLimitPopupWnd@@UAE@XZ		; RentalSoldierLimitPopupWnd::~RentalSoldierLimitPopupWnd
;	COMDAT xdata$x
xdata$x	SEGMENT
__unwindtable$??1RentalSoldierLimitPopupWnd@@UAE@XZ DD 0ffffffffH
	DD	FLAT:__unwindfunclet$??1RentalSoldierLimitPopupWnd@@UAE@XZ$0
__ehfuncinfo$??1RentalSoldierLimitPopupWnd@@UAE@XZ DD 019930522H
	DD	01H
	DD	FLAT:__unwindtable$??1RentalSoldierLimitPopupWnd@@UAE@XZ
	DD	2 DUP(00H)
	DD	2 DUP(00H)
	DD	00H
	DD	01H
; Function compile flags: /Ogsp
xdata$x	ENDS
;	COMDAT ??1RentalSoldierLimitPopupWnd@@UAE@XZ
_TEXT	SEGMENT
_this$ = -16						; size = 4
__$EHRec$ = -12						; size = 12
??1RentalSoldierLimitPopupWnd@@UAE@XZ PROC		; RentalSoldierLimitPopupWnd::~RentalSoldierLimitPopupWnd, COMDAT
; _this$ = ecx

; 161  : {

  00000	6a 04		 push	 4
  00002	b8 00 00 00 00	 mov	 eax, __ehhandler$??1RentalSoldierLimitPopupWnd@@UAE@XZ
  00007	e8 00 00 00 00	 call	 __EH_prolog3
  0000c	8b f9		 mov	 edi, ecx
  0000e	89 7d f0	 mov	 DWORD PTR _this$[ebp], edi
  00011	c7 07 00 00 00
	00		 mov	 DWORD PTR [edi], OFFSET ??_7RentalSoldierLimitPopupWnd@@6B@

; 162  : 	SAFEDELETE( m_pIconBack );

  00017	8b 8f 60 01 00
	00		 mov	 ecx, DWORD PTR [edi+352]
  0001d	83 65 fc 00	 and	 DWORD PTR __$EHRec$[ebp+8], 0
  00021	85 c9		 test	 ecx, ecx
  00023	74 0e		 je	 SHORT $LN2@RentalSold
  00025	8b 01		 mov	 eax, DWORD PTR [ecx]
  00027	6a 01		 push	 1
  00029	ff 50 40	 call	 DWORD PTR [eax+64]
  0002c	83 a7 60 01 00
	00 00		 and	 DWORD PTR [edi+352], 0
$LN2@RentalSold:

; 163  : 	SAFEDELETE( m_pCharIcon );

  00033	8b 8f 64 01 00
	00		 mov	 ecx, DWORD PTR [edi+356]
  00039	85 c9		 test	 ecx, ecx
  0003b	74 0e		 je	 SHORT $LN1@RentalSold
  0003d	8b 01		 mov	 eax, DWORD PTR [ecx]
  0003f	6a 01		 push	 1
  00041	ff 50 40	 call	 DWORD PTR [eax+64]
  00044	83 a7 64 01 00
	00 00		 and	 DWORD PTR [edi+356], 0
$LN1@RentalSold:

; 164  : }

  0004b	83 4d fc ff	 or	 DWORD PTR __$EHRec$[ebp+8], -1
  0004f	8b cf		 mov	 ecx, edi
  00051	ff 15 00 00 00
	00		 call	 DWORD PTR __imp_??1ioWnd@@UAE@XZ
  00057	e8 00 00 00 00	 call	 __EH_epilog3
  0005c	c3		 ret	 0
_TEXT	ENDS
;	COMDAT text$x
text$x	SEGMENT
__unwindfunclet$??1RentalSoldierLimitPopupWnd@@UAE@XZ$0:
  00000	8b 4d f0	 mov	 ecx, DWORD PTR _this$[ebp]
  00003	ff 25 00 00 00
	00		 jmp	 DWORD PTR __imp_??1ioWnd@@UAE@XZ
__ehhandler$??1RentalSoldierLimitPopupWnd@@UAE@XZ:
  00009	8b 54 24 08	 mov	 edx, DWORD PTR [esp+8]
  0000d	8d 42 0c	 lea	 eax, DWORD PTR [edx+12]
  00010	8b 4a ec	 mov	 ecx, DWORD PTR [edx-20]
  00013	33 c8		 xor	 ecx, eax
  00015	e8 00 00 00 00	 call	 @__security_check_cookie@4
  0001a	b8 00 00 00 00	 mov	 eax, OFFSET __ehfuncinfo$??1RentalSoldierLimitPopupWnd@@UAE@XZ
  0001f	e9 00 00 00 00	 jmp	 ___CxxFrameHandler3
text$x	ENDS
??1RentalSoldierLimitPopupWnd@@UAE@XZ ENDP		; RentalSoldierLimitPopupWnd::~RentalSoldierLimitPopupWnd
; Function compile flags: /Ogsp
;	COMDAT ?iwm_hide@RentalSoldierLimitPopupWnd@@UAEXXZ
_TEXT	SEGMENT
?iwm_hide@RentalSoldierLimitPopupWnd@@UAEXXZ PROC	; RentalSoldierLimitPopupWnd::iwm_hide, COMDAT
; _this$ = ecx

; 186  : 
; 187  : }

  00000	c3		 ret	 0
?iwm_hide@RentalSoldierLimitPopupWnd@@UAEXXZ ENDP	; RentalSoldierLimitPopupWnd::iwm_hide
_TEXT	ENDS
PUBLIC	??_R0?AVSoldierSelectWnd@@@8			; SoldierSelectWnd `RTTI Type Descriptor'
EXTRN	?SetSelectWaitShow@SoldierSelectWnd@@QAEXH_N@Z:PROC ; SoldierSelectWnd::SetSelectWaitShow
EXTRN	?GetCharArrayToSlotIndex@ioMyInfo@@QAEHH@Z:PROC	; ioMyInfo::GetCharArrayToSlotIndex
EXTRN	__imp_?FindWnd@ioGUIManager@@QAEPAVioWnd@@K@Z:PROC
EXTRN	?IsCanChangeCharState@ioBaseChar@@QAE_N_N00@Z:PROC ; ioBaseChar::IsCanChangeCharState
EXTRN	?GetOwnerChar@ioPlayStage@@QAEPAVioBaseChar@@XZ:PROC ; ioPlayStage::GetOwnerChar
EXTRN	___RTDynamicCast:PROC
;	COMDAT ??_R0?AVSoldierSelectWnd@@@8
; File d:\lost saga for developer\youtube\tutorial\source\src\lsclient\iobasechar.h
_DATA	SEGMENT
??_R0?AVSoldierSelectWnd@@@8 DD FLAT:??_7type_info@@6B@	; SoldierSelectWnd `RTTI Type Descriptor'
	DD	00H
	DB	'.?AVSoldierSelectWnd@@', 00H
; Function compile flags: /Ogsp
; File d:\lost saga for developer\youtube\tutorial\source\src\lsclient\gui\soldierlimitwnd.cpp
_DATA	ENDS
;	COMDAT ?iwm_command@RentalSoldierLimitPopupWnd@@UAEXPAVioWnd@@HK@Z
_TEXT	SEGMENT
_pWnd$ = 8						; size = 4
_cmd$ = 12						; size = 4
_param$ = 16						; size = 4
?iwm_command@RentalSoldierLimitPopupWnd@@UAEXPAVioWnd@@HK@Z PROC ; RentalSoldierLimitPopupWnd::iwm_command, COMDAT
; _this$ = ecx

; 190  : {

  00000	55		 push	 ebp
  00001	8b ec		 mov	 ebp, esp
  00003	56		 push	 esi
  00004	8b f1		 mov	 esi, ecx

; 191  : 	DWORD dwID = pWnd->GetID();

  00006	8b 4d 08	 mov	 ecx, DWORD PTR _pWnd$[ebp]
  00009	ff 15 00 00 00
	00		 call	 DWORD PTR __imp_?GetID@ioWnd@@QBEKXZ

; 192  : 	switch( dwID )

  0000f	48		 dec	 eax
  00010	0f 85 85 00 00
	00		 jne	 $LN1@iwm_comman@2

; 193  : 	{
; 194  : 	case ID_SOLDIER_SELECT:
; 195  : 		if( cmd == IOBN_BTNUP )

  00016	83 7d 0c 11	 cmp	 DWORD PTR _cmd$[ebp], 17 ; 00000011H
  0001a	75 7f		 jne	 SHORT $LN1@iwm_comman@2

; 196  : 		{	
; 197  : 			if( m_pPlayStage )

  0001c	8b 8e 68 01 00
	00		 mov	 ecx, DWORD PTR [esi+360]
  00022	85 c9		 test	 ecx, ecx
  00024	74 75		 je	 SHORT $LN1@iwm_comman@2

; 198  : 			{
; 199  : 				ioBaseChar *pOwnerChar = m_pPlayStage->GetOwnerChar();

  00026	e8 00 00 00 00	 call	 ?GetOwnerChar@ioPlayStage@@QAEPAVioBaseChar@@XZ ; ioPlayStage::GetOwnerChar
  0002b	8b f0		 mov	 esi, eax

; 200  : 				if( pOwnerChar == NULL ) return;

  0002d	85 f6		 test	 esi, esi
  0002f	74 6a		 je	 SHORT $LN1@iwm_comman@2

; 201  : 				if( pOwnerChar->IsCanChangeCharState(true) )

  00031	6a 01		 push	 1
  00033	6a 00		 push	 0
  00035	6a 01		 push	 1
  00037	8b ce		 mov	 ecx, esi
  00039	e8 00 00 00 00	 call	 ?IsCanChangeCharState@ioBaseChar@@QAE_N_N00@Z ; ioBaseChar::IsCanChangeCharState
  0003e	84 c0		 test	 al, al
  00040	74 59		 je	 SHORT $LN1@iwm_comman@2

; 202  : 				{
; 203  : 					SoldierSelectWnd *pSoldier = dynamic_cast<SoldierSelectWnd*>(g_GUIMgr.FindWnd( SOLDIER_SELECT_WND ));

  00042	57		 push	 edi
  00043	6a 00		 push	 0
  00045	68 00 00 00 00	 push	 OFFSET ??_R0?AVSoldierSelectWnd@@@8
  0004a	68 00 00 00 00	 push	 OFFSET ??_R0?AVioWnd@@@8
  0004f	6a 00		 push	 0
  00051	68 9f 13 00 00	 push	 5023			; 0000139fH
  00056	e8 00 00 00 00	 call	 ?GetSingleton@ioSP2GUIManager@@SAAAV1@XZ ; ioSP2GUIManager::GetSingleton
  0005b	8b c8		 mov	 ecx, eax
  0005d	ff 15 00 00 00
	00		 call	 DWORD PTR __imp_?FindWnd@ioGUIManager@@QAEPAVioWnd@@K@Z
  00063	50		 push	 eax
  00064	e8 00 00 00 00	 call	 ___RTDynamicCast
  00069	8b f8		 mov	 edi, eax
  0006b	83 c4 14	 add	 esp, 20			; 00000014H

; 204  : 					if( pSoldier && !pSoldier->IsShow() )

  0006e	85 ff		 test	 edi, edi
  00070	74 28		 je	 SHORT $LN13@iwm_comman@2
  00072	8b cf		 mov	 ecx, edi
  00074	ff 15 00 00 00
	00		 call	 DWORD PTR __imp_?IsShow@ioWnd@@QBE_NXZ
  0007a	84 c0		 test	 al, al
  0007c	75 1c		 jne	 SHORT $LN13@iwm_comman@2

; 205  : 					{
; 206  : 						int iArray = g_MyInfo.GetCharArrayToSlotIndex( pOwnerChar->GetSelectCharArray() );

  0007e	ff b6 24 03 00
	00		 push	 DWORD PTR [esi+804]
  00084	e8 00 00 00 00	 call	 ?GetSingleton@ioMyInfo@@SAAAV1@XZ ; ioMyInfo::GetSingleton
  00089	8b c8		 mov	 ecx, eax
  0008b	e8 00 00 00 00	 call	 ?GetCharArrayToSlotIndex@ioMyInfo@@QAEHH@Z ; ioMyInfo::GetCharArrayToSlotIndex

; 207  : 						pSoldier->SetSelectWaitShow( iArray, true );

  00090	6a 01		 push	 1
  00092	50		 push	 eax
  00093	8b cf		 mov	 ecx, edi
  00095	e8 00 00 00 00	 call	 ?SetSelectWaitShow@SoldierSelectWnd@@QAEXH_N@Z ; SoldierSelectWnd::SetSelectWaitShow
$LN13@iwm_comman@2:
  0009a	5f		 pop	 edi
$LN1@iwm_comman@2:
  0009b	5e		 pop	 esi

; 208  : 					}
; 209  : 				}
; 210  : 			}
; 211  : 		}
; 212  : 		break;
; 213  : 	}
; 214  : }

  0009c	5d		 pop	 ebp
  0009d	c2 0c 00	 ret	 12			; 0000000cH
?iwm_command@RentalSoldierLimitPopupWnd@@UAEXPAVioWnd@@HK@Z ENDP ; RentalSoldierLimitPopupWnd::iwm_command
_TEXT	ENDS
PUBLIC	__real@4f800000
PUBLIC	??_C@_0CF@CHMAKKLI@RentalSoldierLimitPopupWnd?3?3OnRe@ ; `string'
PUBLIC	__real@3f800000
EXTRN	?AddTextPiece@ioComplexStringPrinter@@QAEXMPBDH@Z:PROC ; ioComplexStringPrinter::AddTextPiece
EXTRN	__imp_?GetLoopSec@ioFrameTimer@@QBEKXZ:PROC
EXTRN	__imp_?GetSingleton@ioFrameTimer@@SAAAV1@XZ:PROC
EXTRN	?RenderGradeIconBack@ioUIImageRenderManager@@QAEXHHHMW4UIRenderType@@W4TextureFilterOption@@HHH_N0@Z:PROC ; ioUIImageRenderManager::RenderGradeIconBack
EXTRN	?GetSingleton@ioUIImageRenderManager@@SAAAV1@XZ:PROC ; ioUIImageRenderManager::GetSingleton
EXTRN	__ftol2_sse:PROC
;	COMDAT __real@4f800000
; File d:\lost saga for developer\youtube\tutorial\source\src\lsclient\stdafx.h
CONST	SEGMENT
__real@4f800000 DD 04f800000r			; 4.29497e+009
CONST	ENDS
;	COMDAT ??_C@_0CF@CHMAKKLI@RentalSoldierLimitPopupWnd?3?3OnRe@
CONST	SEGMENT
??_C@_0CF@CHMAKKLI@RentalSoldierLimitPopupWnd?3?3OnRe@ DB 'RentalSoldierL'
	DB	'imitPopupWnd::OnRender', 00H		; `string'
CONST	ENDS
;	COMDAT __real@3f800000
CONST	SEGMENT
__real@3f800000 DD 03f800000r			; 1
CONST	ENDS
;	COMDAT xdata$x
xdata$x	SEGMENT
__unwindtable$?OnRender@RentalSoldierLimitPopupWnd@@MAEXXZ DD 0ffffffffH
	DD	FLAT:__unwindfunclet$?OnRender@RentalSoldierLimitPopupWnd@@MAEXXZ$0
__ehfuncinfo$?OnRender@RentalSoldierLimitPopupWnd@@MAEXXZ DD 019930522H
	DD	01H
	DD	FLAT:__unwindtable$?OnRender@RentalSoldierLimitPopupWnd@@MAEXXZ
	DD	2 DUP(00H)
	DD	2 DUP(00H)
	DD	00H
	DD	01H
; Function compile flags: /Ogsp
; File d:\lost saga for developer\youtube\tutorial\source\src\lsclient\gui\soldierlimitwnd.cpp
xdata$x	ENDS
;	COMDAT ?OnRender@RentalSoldierLimitPopupWnd@@MAEXXZ
_TEXT	SEGMENT
_kPrinter$ = -56					; size = 32
tv329 = -24						; size = 4
tv324 = -24						; size = 4
_this$ = -24						; size = 4
tv331 = -20						; size = 4
tv328 = -20						; size = 4
tv223 = -20						; size = 4
_iYPos$ = -16						; size = 4
__$EHRec$ = -12						; size = 12
?OnRender@RentalSoldierLimitPopupWnd@@MAEXXZ PROC	; RentalSoldierLimitPopupWnd::OnRender, COMDAT
; _this$ = ecx

; 319  : {

  00000	6a 2c		 push	 44			; 0000002cH
  00002	b8 00 00 00 00	 mov	 eax, __ehhandler$?OnRender@RentalSoldierLimitPopupWnd@@MAEXXZ
  00007	e8 00 00 00 00	 call	 __EH_prolog3
  0000c	8b f9		 mov	 edi, ecx
  0000e	89 7d e8	 mov	 DWORD PTR _this$[ebp], edi

; 320  : 	ioWnd::OnRender();

  00011	ff 15 00 00 00
	00		 call	 DWORD PTR __imp_?OnRender@ioWnd@@MAEXXZ

; 321  : 	int iXPos = GetDerivedPosX();

  00017	8b cf		 mov	 ecx, edi
  00019	ff 15 00 00 00
	00		 call	 DWORD PTR __imp_?GetDerivedPosX@ioWnd@@QBEHXZ

; 322  : 	int iYPos = GetDerivedPosY();

  0001f	8b cf		 mov	 ecx, edi
  00021	8b d8		 mov	 ebx, eax
  00023	ff 15 00 00 00
	00		 call	 DWORD PTR __imp_?GetDerivedPosY@ioWnd@@QBEHXZ

; 323  : 
; 324  : 	if( m_pIconBack )

  00029	33 f6		 xor	 esi, esi
  0002b	8b d0		 mov	 edx, eax
  0002d	89 55 f0	 mov	 DWORD PTR _iYPos$[ebp], edx
  00030	39 b7 60 01 00
	00		 cmp	 DWORD PTR [edi+352], esi
  00036	74 3b		 je	 SHORT $LN2@OnRender@2

; 325  : 		m_pIconBack->Render( iXPos + 151, iYPos + 98, UI_RENDER_MULTIPLY, TFO_BILINEAR );

  00038	8b 87 60 01 00
	00		 mov	 eax, DWORD PTR [edi+352]
  0003e	8b 08		 mov	 ecx, DWORD PTR [eax]
  00040	56		 push	 esi
  00041	56		 push	 esi
  00042	6a 01		 push	 1
  00044	6a 08		 push	 8
  00046	51		 push	 ecx
  00047	83 c2 62	 add	 edx, 98			; 00000062H
  0004a	0f 57 c0	 xorps	 xmm0, xmm0
  0004d	f3 0f 2a c2	 cvtsi2ss xmm0, edx
  00051	51		 push	 ecx
  00052	f3 0f 11 44 24
	04		 movss	 DWORD PTR [esp+4], xmm0
  00058	8d 93 97 00 00
	00		 lea	 edx, DWORD PTR [ebx+151]
  0005e	0f 57 c0	 xorps	 xmm0, xmm0
  00061	8b c8		 mov	 ecx, eax
  00063	8b 00		 mov	 eax, DWORD PTR [eax]
  00065	f3 0f 2a c2	 cvtsi2ss xmm0, edx
  00069	f3 0f 11 04 24	 movss	 DWORD PTR [esp], xmm0
  0006e	ff 10		 call	 DWORD PTR [eax]
  00070	8b 55 f0	 mov	 edx, DWORD PTR _iYPos$[ebp]
$LN2@OnRender@2:

; 326  : 
; 327  : 	g_UIImageRenderMgr.RenderGradeIconBack( m_nGradeType, iXPos + 151, iYPos + 98 );

  00073	f3 0f 10 05 00
	00 00 00	 movss	 xmm0, DWORD PTR __real@3f800000
  0007b	56		 push	 esi
  0007c	56		 push	 esi
  0007d	b8 ff 00 00 00	 mov	 eax, 255		; 000000ffH
  00082	50		 push	 eax
  00083	50		 push	 eax
  00084	50		 push	 eax
  00085	56		 push	 esi
  00086	8d 4a 62	 lea	 ecx, DWORD PTR [edx+98]
  00089	56		 push	 esi
  0008a	51		 push	 ecx
  0008b	f3 0f 11 04 24	 movss	 DWORD PTR [esp], xmm0
  00090	51		 push	 ecx
  00091	81 c3 97 00 00
	00		 add	 ebx, 151		; 00000097H
  00097	53		 push	 ebx
  00098	ff b7 78 01 00
	00		 push	 DWORD PTR [edi+376]
  0009e	89 4d ec	 mov	 DWORD PTR tv328[ebp], ecx
  000a1	e8 00 00 00 00	 call	 ?GetSingleton@ioUIImageRenderManager@@SAAAV1@XZ ; ioUIImageRenderManager::GetSingleton
  000a6	8b c8		 mov	 ecx, eax
  000a8	e8 00 00 00 00	 call	 ?RenderGradeIconBack@ioUIImageRenderManager@@QAEXHHHMW4UIRenderType@@W4TextureFilterOption@@HHH_N0@Z ; ioUIImageRenderManager::RenderGradeIconBack

; 328  : 
; 329  : 	if( m_pCharIcon )

  000ad	39 b7 64 01 00
	00		 cmp	 DWORD PTR [edi+356], esi
  000b3	74 2c		 je	 SHORT $LN1@OnRender@2

; 330  : 		m_pCharIcon->Render( iXPos + 151, iYPos + 98 );

  000b5	66 0f 6e 45 ec	 movd	 xmm0, DWORD PTR tv328[ebp]
  000ba	8b 87 64 01 00
	00		 mov	 eax, DWORD PTR [edi+356]
  000c0	8b 10		 mov	 edx, DWORD PTR [eax]
  000c2	56		 push	 esi
  000c3	56		 push	 esi
  000c4	56		 push	 esi
  000c5	56		 push	 esi
  000c6	51		 push	 ecx
  000c7	51		 push	 ecx
  000c8	0f 5b c0	 cvtdq2ps xmm0, xmm0
  000cb	f3 0f 11 44 24
	04		 movss	 DWORD PTR [esp+4], xmm0
  000d1	0f 57 c0	 xorps	 xmm0, xmm0
  000d4	f3 0f 2a c3	 cvtsi2ss xmm0, ebx
  000d8	8b c8		 mov	 ecx, eax
  000da	f3 0f 11 04 24	 movss	 DWORD PTR [esp], xmm0
  000df	ff 12		 call	 DWORD PTR [edx]
$LN1@OnRender@2:

; 331  : 
; 332  : 	g_FontMgr.SetAlignType( TAT_CENTER );

  000e1	8b 3d 00 00 00
	00		 mov	 edi, DWORD PTR __imp_?GetSingleton@ioFontManager@@SAAAV1@XZ
  000e7	6a 01		 push	 1
  000e9	ff d7		 call	 edi
  000eb	8b c8		 mov	 ecx, eax
  000ed	ff 15 00 00 00
	00		 call	 DWORD PTR __imp_?SetAlignType@ioFontManager@@QAEXW4TextAlignType@@@Z

; 333  : 	g_FontMgr.SetTextStyle( TS_NORMAL );

  000f3	56		 push	 esi
  000f4	ff d7		 call	 edi
  000f6	8b c8		 mov	 ecx, eax
  000f8	ff 15 00 00 00
	00		 call	 DWORD PTR __imp_?SetTextStyle@ioFontManager@@QAEXW4TextStyle@@@Z

; 334  : 	g_FontMgr.SetBkColor( 0, 0, 0 );

  000fe	56		 push	 esi
  000ff	56		 push	 esi
  00100	56		 push	 esi
  00101	ff d7		 call	 edi
  00103	8b c8		 mov	 ecx, eax
  00105	ff 15 00 00 00
	00		 call	 DWORD PTR __imp_?SetBkColor@ioFontManager@@QAEXHHH@Z

; 335  : 	g_FontMgr.SetTextColor( TCT_DEFAULT_DARKGRAY );

  0010b	68 3a 3a 3a ff	 push	 -12961222		; ff3a3a3aH
  00110	ff d7		 call	 edi
  00112	8b c8		 mov	 ecx, eax
  00114	ff 15 00 00 00
	00		 call	 DWORD PTR __imp_?SetTextColor@ioFontManager@@QAEXK@Z

; 336  : 	g_FontMgr.PrintText( iXPos + 151, iYPos + 144, FONT_SIZE_13, STR(1) );

  0011a	56		 push	 esi
  0011b	6a 01		 push	 1
  0011d	0f 57 c0	 xorps	 xmm0, xmm0
  00120	f3 0f 2a c3	 cvtsi2ss xmm0, ebx
  00124	8b 1d 00 00 00
	00		 mov	 ebx, DWORD PTR __imp_?GetSingleton@ioStringManager@@SAAAV1@XZ
  0012a	68 00 00 00 00	 push	 OFFSET ??_C@_00CNPNBAHC@?$AA@
  0012f	68 00 00 00 00	 push	 OFFSET ??_C@_0CF@CHMAKKLI@RentalSoldierLimitPopupWnd?3?3OnRe@
  00134	f3 0f 11 45 ec	 movss	 DWORD PTR tv331[ebp], xmm0
  00139	ff d3		 call	 ebx
  0013b	8b c8		 mov	 ecx, eax
  0013d	ff 15 00 00 00
	00		 call	 DWORD PTR __imp_?GetString@ioStringManager@@QAEPADPBD0HW4FileNamePrefix@1@@Z
  00143	f3 0f 10 05 00
	00 00 00	 movss	 xmm0, DWORD PTR __real@3f266666
  0014b	50		 push	 eax
  0014c	8b 45 f0	 mov	 eax, DWORD PTR _iYPos$[ebp]
  0014f	83 ec 0c	 sub	 esp, 12			; 0000000cH
  00152	f3 0f 11 44 24
	08		 movss	 DWORD PTR [esp+8], xmm0
  00158	05 90 00 00 00	 add	 eax, 144		; 00000090H
  0015d	0f 57 c0	 xorps	 xmm0, xmm0
  00160	f3 0f 2a c0	 cvtsi2ss xmm0, eax
  00164	f3 0f 11 44 24
	04		 movss	 DWORD PTR [esp+4], xmm0
  0016a	f3 0f 10 45 ec	 movss	 xmm0, DWORD PTR tv331[ebp]
  0016f	f3 0f 11 04 24	 movss	 DWORD PTR [esp], xmm0
  00174	ff d7		 call	 edi
  00176	50		 push	 eax
  00177	ff 15 00 00 00
	00		 call	 DWORD PTR __imp_?PrintText@ioFontManager@@QAAXMMMPBDZZ
  0017d	83 c4 14	 add	 esp, 20			; 00000014H

; 337  : 
; 338  : 	ioComplexStringPrinter kPrinter;

  00180	8d 4d c8	 lea	 ecx, DWORD PTR _kPrinter$[ebp]
  00183	e8 00 00 00 00	 call	 ??0ioComplexStringPrinter@@QAE@XZ ; ioComplexStringPrinter::ioComplexStringPrinter

; 339  : 	kPrinter.SetTextStyle( TS_NORMAL );

  00188	56		 push	 esi
  00189	8d 4d c8	 lea	 ecx, DWORD PTR _kPrinter$[ebp]
  0018c	89 75 fc	 mov	 DWORD PTR __$EHRec$[ebp+8], esi
  0018f	e8 00 00 00 00	 call	 ?SetTextStyle@ioComplexStringPrinter@@QAEXW4TextStyle@@@Z ; ioComplexStringPrinter::SetTextStyle

; 340  : 	kPrinter.SetBkColor( 0, 0, 0 );

  00194	56		 push	 esi
  00195	56		 push	 esi
  00196	56		 push	 esi
  00197	8d 4d c8	 lea	 ecx, DWORD PTR _kPrinter$[ebp]
  0019a	e8 00 00 00 00	 call	 ?SetBkColor@ioComplexStringPrinter@@QAEXHHH@Z ; ioComplexStringPrinter::SetBkColor

; 341  : 	kPrinter.SetTextColor( TCT_DEFAULT_RED );	

  0019f	68 00 16 b9 ff	 push	 -4647424		; ffb91600H
  001a4	8d 4d c8	 lea	 ecx, DWORD PTR _kPrinter$[ebp]
  001a7	e8 00 00 00 00	 call	 ?SetTextColor@ioComplexStringPrinter@@QAEXK@Z ; ioComplexStringPrinter::SetTextColor

; 342  : 
; 343  : 	int iSec = ( FRAMEGETTIME() - m_dwRoomOutTime ) / FLOAT1000;

  001ac	b8 e8 03 00 00	 mov	 eax, 1000		; 000003e8H
  001b1	8b f8		 mov	 edi, eax
  001b3	ff 15 00 00 00
	00		 call	 DWORD PTR __imp_?GetSingleton@ioFrameTimer@@SAAAV1@XZ
  001b9	8b c8		 mov	 ecx, eax
  001bb	ff 15 00 00 00
	00		 call	 DWORD PTR __imp_?GetLoopSec@ioFrameTimer@@QBEKXZ
  001c1	8b 4d e8	 mov	 ecx, DWORD PTR _this$[ebp]
  001c4	2b 81 70 01 00
	00		 sub	 eax, DWORD PTR [ecx+368]
  001ca	89 45 e8	 mov	 DWORD PTR tv329[ebp], eax
  001cd	db 45 e8	 fild	 DWORD PTR tv329[ebp]
  001d0	79 06		 jns	 SHORT $LN12@OnRender@2
  001d2	d8 05 00 00 00
	00		 fadd	 DWORD PTR __real@4f800000
$LN12@OnRender@2:
  001d8	89 7d e8	 mov	 DWORD PTR tv324[ebp], edi
  001db	db 45 e8	 fild	 DWORD PTR tv324[ebp]
  001de	85 ff		 test	 edi, edi
  001e0	79 06		 jns	 SHORT $LN13@OnRender@2
  001e2	d8 05 00 00 00
	00		 fadd	 DWORD PTR __real@4f800000
$LN13@OnRender@2:
  001e8	de f9		 fdivp	 ST(1), ST(0)
  001ea	e8 00 00 00 00	 call	 __ftol2_sse

; 344  : 	kPrinter.AddTextPiece( FONT_SIZE_13, STR(2), max( 0, LIMIT_SEC - iSec ) );

  001ef	6a 1e		 push	 30			; 0000001eH
  001f1	59		 pop	 ecx
  001f2	2b c8		 sub	 ecx, eax
  001f4	0f 48 ce	 cmovs	 ecx, esi
  001f7	51		 push	 ecx
  001f8	56		 push	 esi
  001f9	6a 02		 push	 2
  001fb	68 00 00 00 00	 push	 OFFSET ??_C@_00CNPNBAHC@?$AA@
  00200	68 00 00 00 00	 push	 OFFSET ??_C@_0CF@CHMAKKLI@RentalSoldierLimitPopupWnd?3?3OnRe@
  00205	ff d3		 call	 ebx
  00207	8b 3d 00 00 00
	00		 mov	 edi, DWORD PTR __imp_?GetString@ioStringManager@@QAEPADPBD0HW4FileNamePrefix@1@@Z
  0020d	8b c8		 mov	 ecx, eax
  0020f	ff d7		 call	 edi
  00211	f3 0f 10 05 00
	00 00 00	 movss	 xmm0, DWORD PTR __real@3f266666
  00219	50		 push	 eax
  0021a	51		 push	 ecx
  0021b	8d 4d c8	 lea	 ecx, DWORD PTR _kPrinter$[ebp]
  0021e	f3 0f 11 04 24	 movss	 DWORD PTR [esp], xmm0
  00223	e8 00 00 00 00	 call	 ?AddTextPiece@ioComplexStringPrinter@@QAEXMPBDH@Z ; ioComplexStringPrinter::AddTextPiece

; 345  : 	kPrinter.SetTextColor( TCT_DEFAULT_GRAY );

  00228	68 6e 6e 6e ff	 push	 -9539986		; ff6e6e6eH
  0022d	8d 4d c8	 lea	 ecx, DWORD PTR _kPrinter$[ebp]
  00230	e8 00 00 00 00	 call	 ?SetTextColor@ioComplexStringPrinter@@QAEXK@Z ; ioComplexStringPrinter::SetTextColor

; 346  : 	kPrinter.AddTextPiece( FONT_SIZE_13, STR(3) );

  00235	56		 push	 esi
  00236	6a 03		 push	 3
  00238	68 00 00 00 00	 push	 OFFSET ??_C@_00CNPNBAHC@?$AA@
  0023d	68 00 00 00 00	 push	 OFFSET ??_C@_0CF@CHMAKKLI@RentalSoldierLimitPopupWnd?3?3OnRe@
  00242	ff d3		 call	 ebx
  00244	8b c8		 mov	 ecx, eax
  00246	ff d7		 call	 edi
  00248	f3 0f 10 05 00
	00 00 00	 movss	 xmm0, DWORD PTR __real@3f266666
  00250	50		 push	 eax
  00251	51		 push	 ecx
  00252	8d 45 c8	 lea	 eax, DWORD PTR _kPrinter$[ebp]
  00255	f3 0f 11 04 24	 movss	 DWORD PTR [esp], xmm0
  0025a	50		 push	 eax
  0025b	e8 00 00 00 00	 call	 ?AddTextPiece@ioComplexStringPrinter@@QAAXMPBDZZ ; ioComplexStringPrinter::AddTextPiece

; 347  : 	kPrinter.PrintFullText( iXPos + 151, iYPos + 164, TAT_CENTER );

  00260	8b 45 f0	 mov	 eax, DWORD PTR _iYPos$[ebp]
  00263	83 c4 0c	 add	 esp, 12			; 0000000cH
  00266	68 ff 00 00 00	 push	 255			; 000000ffH
  0026b	6a 01		 push	 1
  0026d	51		 push	 ecx
  0026e	51		 push	 ecx
  0026f	05 a4 00 00 00	 add	 eax, 164		; 000000a4H
  00274	0f 57 c0	 xorps	 xmm0, xmm0
  00277	f3 0f 2a c0	 cvtsi2ss xmm0, eax
  0027b	f3 0f 11 44 24
	04		 movss	 DWORD PTR [esp+4], xmm0
  00281	f3 0f 10 45 ec	 movss	 xmm0, DWORD PTR tv331[ebp]
  00286	8d 4d c8	 lea	 ecx, DWORD PTR _kPrinter$[ebp]
  00289	f3 0f 11 04 24	 movss	 DWORD PTR [esp], xmm0
  0028e	e8 00 00 00 00	 call	 ?PrintFullText@ioComplexStringPrinter@@QAEXMMW4TextAlignType@@E@Z ; ioComplexStringPrinter::PrintFullText

; 348  : 	kPrinter.ClearList();

  00293	8d 4d c8	 lea	 ecx, DWORD PTR _kPrinter$[ebp]
  00296	e8 00 00 00 00	 call	 ?ClearList@ioComplexStringPrinter@@QAEXXZ ; ioComplexStringPrinter::ClearList

; 349  : 
; 350  : 	kPrinter.SetTextStyle( TS_NORMAL );

  0029b	56		 push	 esi
  0029c	8d 4d c8	 lea	 ecx, DWORD PTR _kPrinter$[ebp]
  0029f	e8 00 00 00 00	 call	 ?SetTextStyle@ioComplexStringPrinter@@QAEXW4TextStyle@@@Z ; ioComplexStringPrinter::SetTextStyle

; 351  : 	kPrinter.SetBkColor( 0, 0, 0 );

  002a4	56		 push	 esi
  002a5	56		 push	 esi
  002a6	56		 push	 esi
  002a7	8d 4d c8	 lea	 ecx, DWORD PTR _kPrinter$[ebp]
  002aa	e8 00 00 00 00	 call	 ?SetBkColor@ioComplexStringPrinter@@QAEXHHH@Z ; ioComplexStringPrinter::SetBkColor

; 352  : 	kPrinter.SetTextColor( TCT_DEFAULT_GRAY );

  002af	68 6e 6e 6e ff	 push	 -9539986		; ff6e6e6eH
  002b4	8d 4d c8	 lea	 ecx, DWORD PTR _kPrinter$[ebp]
  002b7	e8 00 00 00 00	 call	 ?SetTextColor@ioComplexStringPrinter@@QAEXK@Z ; ioComplexStringPrinter::SetTextColor

; 353  : 	kPrinter.AddTextPiece( FONT_SIZE_13, STR(4) );

  002bc	56		 push	 esi
  002bd	6a 04		 push	 4
  002bf	68 00 00 00 00	 push	 OFFSET ??_C@_00CNPNBAHC@?$AA@
  002c4	68 00 00 00 00	 push	 OFFSET ??_C@_0CF@CHMAKKLI@RentalSoldierLimitPopupWnd?3?3OnRe@
  002c9	ff d3		 call	 ebx
  002cb	8b c8		 mov	 ecx, eax
  002cd	ff d7		 call	 edi
  002cf	f3 0f 10 05 00
	00 00 00	 movss	 xmm0, DWORD PTR __real@3f266666
  002d7	50		 push	 eax
  002d8	51		 push	 ecx
  002d9	8d 45 c8	 lea	 eax, DWORD PTR _kPrinter$[ebp]
  002dc	f3 0f 11 04 24	 movss	 DWORD PTR [esp], xmm0
  002e1	50		 push	 eax
  002e2	e8 00 00 00 00	 call	 ?AddTextPiece@ioComplexStringPrinter@@QAAXMPBDZZ ; ioComplexStringPrinter::AddTextPiece
  002e7	83 c4 0c	 add	 esp, 12			; 0000000cH

; 354  : 	kPrinter.PrintFullText( iXPos + 151, iYPos + 184, TAT_CENTER );

  002ea	68 ff 00 00 00	 push	 255			; 000000ffH
  002ef	8b 45 f0	 mov	 eax, DWORD PTR _iYPos$[ebp]
  002f2	6a 01		 push	 1
  002f4	51		 push	 ecx
  002f5	51		 push	 ecx
  002f6	05 b8 00 00 00	 add	 eax, 184		; 000000b8H
  002fb	0f 57 c0	 xorps	 xmm0, xmm0
  002fe	f3 0f 2a c0	 cvtsi2ss xmm0, eax
  00302	f3 0f 11 44 24
	04		 movss	 DWORD PTR [esp+4], xmm0
  00308	f3 0f 10 45 ec	 movss	 xmm0, DWORD PTR tv331[ebp]
  0030d	8d 4d c8	 lea	 ecx, DWORD PTR _kPrinter$[ebp]
  00310	f3 0f 11 04 24	 movss	 DWORD PTR [esp], xmm0
  00315	e8 00 00 00 00	 call	 ?PrintFullText@ioComplexStringPrinter@@QAEXMMW4TextAlignType@@E@Z ; ioComplexStringPrinter::PrintFullText

; 355  : 	kPrinter.ClearList();

  0031a	8d 4d c8	 lea	 ecx, DWORD PTR _kPrinter$[ebp]
  0031d	e8 00 00 00 00	 call	 ?ClearList@ioComplexStringPrinter@@QAEXXZ ; ioComplexStringPrinter::ClearList

; 356  : }

  00322	83 4d fc ff	 or	 DWORD PTR __$EHRec$[ebp+8], -1
  00326	8d 4d c8	 lea	 ecx, DWORD PTR _kPrinter$[ebp]
  00329	e8 00 00 00 00	 call	 ??1ioComplexStringPrinter@@QAE@XZ ; ioComplexStringPrinter::~ioComplexStringPrinter
  0032e	e8 00 00 00 00	 call	 __EH_epilog3
  00333	c3		 ret	 0
_TEXT	ENDS
;	COMDAT text$x
text$x	SEGMENT
__unwindfunclet$?OnRender@RentalSoldierLimitPopupWnd@@MAEXXZ$0:
  00000	8d 4d c8	 lea	 ecx, DWORD PTR _kPrinter$[ebp]
  00003	e9 00 00 00 00	 jmp	 ??1ioComplexStringPrinter@@QAE@XZ ; ioComplexStringPrinter::~ioComplexStringPrinter
__ehhandler$?OnRender@RentalSoldierLimitPopupWnd@@MAEXXZ:
  00008	8b 54 24 08	 mov	 edx, DWORD PTR [esp+8]
  0000c	8d 42 0c	 lea	 eax, DWORD PTR [edx+12]
  0000f	8b 4a c4	 mov	 ecx, DWORD PTR [edx-60]
  00012	33 c8		 xor	 ecx, eax
  00014	e8 00 00 00 00	 call	 @__security_check_cookie@4
  00019	b8 00 00 00 00	 mov	 eax, OFFSET __ehfuncinfo$?OnRender@RentalSoldierLimitPopupWnd@@MAEXXZ
  0001e	e9 00 00 00 00	 jmp	 ___CxxFrameHandler3
text$x	ENDS
?OnRender@RentalSoldierLimitPopupWnd@@MAEXXZ ENDP	; RentalSoldierLimitPopupWnd::OnRender
PUBLIC	??_H@YGXPAXIHP6EPAX0@Z@Z			; `vector constructor iterator'
; Function compile flags: /Ogsp
;	COMDAT ??_H@YGXPAXIHP6EPAX0@Z@Z
_TEXT	SEGMENT
___t$ = 8						; size = 4
___s$ = 12						; size = 4
___n$ = 16						; size = 4
___f$ = 20						; size = 4
??_H@YGXPAXIHP6EPAX0@Z@Z PROC				; `vector constructor iterator', COMDAT
  00000	55		 push	 ebp
  00001	8b ec		 mov	 ebp, esp
  00003	ff 4d 10	 dec	 DWORD PTR ___n$[ebp]
  00006	78 12		 js	 SHORT $LN1@vector
  00008	56		 push	 esi
  00009	8b 75 08	 mov	 esi, DWORD PTR ___t$[ebp]
$LL2@vector:
  0000c	8b ce		 mov	 ecx, esi
  0000e	ff 55 14	 call	 DWORD PTR ___f$[ebp]
  00011	03 75 0c	 add	 esi, DWORD PTR ___s$[ebp]
  00014	ff 4d 10	 dec	 DWORD PTR ___n$[ebp]
  00017	79 f3		 jns	 SHORT $LL2@vector
  00019	5e		 pop	 esi
$LN1@vector:
  0001a	5d		 pop	 ebp
  0001b	c2 10 00	 ret	 16			; 00000010H
??_H@YGXPAXIHP6EPAX0@Z@Z ENDP				; `vector constructor iterator'
_TEXT	ENDS
PUBLIC	?_DECSTR@@YAXPADH@Z				; _DECSTR
; Function compile flags: /Ogsp
; File d:\lost saga for developer\youtube\tutorial\source\src\lsclient\stringprotect.h
;	COMDAT ?_DECSTR@@YAXPADH@Z
_TEXT	SEGMENT
_s$ = 8							; size = 4
_l$ = 12						; size = 4
?_DECSTR@@YAXPADH@Z PROC				; _DECSTR, COMDAT

; 40   : __forceinline void _DECSTR(char* s, int l){int i=0,l4=(l-1)/4,*p=(int*)s;s[l-1]=0;for(;i<l4;++i)*(p++)^=0xEAEBECED;for(i=l4*4;i<l-1;++i)s[i]^=0xED-i%4;}

  00000	55		 push	 ebp
  00001	8b ec		 mov	 ebp, esp
  00003	8b 4d 0c	 mov	 ecx, DWORD PTR _l$[ebp]
  00006	56		 push	 esi
  00007	8b 75 08	 mov	 esi, DWORD PTR _s$[ebp]
  0000a	57		 push	 edi
  0000b	8d 79 ff	 lea	 edi, DWORD PTR [ecx-1]
  0000e	8b c7		 mov	 eax, edi
  00010	99		 cdq
  00011	83 e2 03	 and	 edx, 3
  00014	03 c2		 add	 eax, edx
  00016	c1 f8 02	 sar	 eax, 2
  00019	8b d6		 mov	 edx, esi
  0001b	c6 44 0e ff 00	 mov	 BYTE PTR [esi+ecx-1], 0
  00020	85 c0		 test	 eax, eax
  00022	7e 0e		 jle	 SHORT $LN4@DECSTR
  00024	8b c8		 mov	 ecx, eax
$LL6@DECSTR:
  00026	81 32 ed ec eb
	ea		 xor	 DWORD PTR [edx], -353637139 ; eaebecedH
  0002c	83 c2 04	 add	 edx, 4
  0002f	49		 dec	 ecx
  00030	75 f4		 jne	 SHORT $LL6@DECSTR
$LN4@DECSTR:
  00032	c1 e0 02	 shl	 eax, 2
  00035	eb 17		 jmp	 SHORT $LN14@DECSTR
$LL3@DECSTR:
  00037	8b c8		 mov	 ecx, eax
  00039	81 e1 03 00 00
	80		 and	 ecx, -2147483645	; 80000003H
  0003f	79 05		 jns	 SHORT $LN13@DECSTR
  00041	49		 dec	 ecx
  00042	83 c9 fc	 or	 ecx, -4			; fffffffcH
  00045	41		 inc	 ecx
$LN13@DECSTR:
  00046	b2 ed		 mov	 dl, -19			; ffffffedH
  00048	2a d1		 sub	 dl, cl
  0004a	30 14 30	 xor	 BYTE PTR [eax+esi], dl
  0004d	40		 inc	 eax
$LN14@DECSTR:
  0004e	3b c7		 cmp	 eax, edi
  00050	7c e5		 jl	 SHORT $LL3@DECSTR
  00052	5f		 pop	 edi
  00053	5e		 pop	 esi
  00054	5d		 pop	 ebp
  00055	c3		 ret	 0
?_DECSTR@@YAXPADH@Z ENDP				; _DECSTR
_TEXT	ENDS
PUBLIC	?ResetConnectedMoveMode@ioApplication@@QAEXXZ	; ioApplication::ResetConnectedMoveMode
; Function compile flags: /Ogsp
; File d:\lost saga for developer\youtube\tutorial\source\src\lsclient\ioapplication.h
;	COMDAT ?ResetConnectedMoveMode@ioApplication@@QAEXXZ
_TEXT	SEGMENT
?ResetConnectedMoveMode@ioApplication@@QAEXXZ PROC	; ioApplication::ResetConnectedMoveMode, COMDAT
; _this$ = ecx

; 1227 : 	inline void ResetConnectedMoveMode(){ m_eConnectedMoveMode = CMM_LOBBY; }

  00000	c7 81 ac 06 00
	00 02 00 00 00	 mov	 DWORD PTR [ecx+1708], 2
  0000a	c3		 ret	 0
?ResetConnectedMoveMode@ioApplication@@QAEXXZ ENDP	; ioApplication::ResetConnectedMoveMode
_TEXT	ENDS
PUBLIC	?GetModeState@ioPlayMode@@QBE?AW4ModeState@1@XZ	; ioPlayMode::GetModeState
; Function compile flags: /Ogsp
; File d:\lost saga for developer\youtube\tutorial\source\src\lsclient\ioplaymode.h
;	COMDAT ?GetModeState@ioPlayMode@@QBE?AW4ModeState@1@XZ
_TEXT	SEGMENT
?GetModeState@ioPlayMode@@QBE?AW4ModeState@1@XZ PROC	; ioPlayMode::GetModeState, COMDAT
; _this$ = ecx

; 632  : 	inline ModeState GetModeState() const { return m_ModeState; }

  00000	8b 41 38	 mov	 eax, DWORD PTR [ecx+56]
  00003	c3		 ret	 0
?GetModeState@ioPlayMode@@QBE?AW4ModeState@1@XZ ENDP	; ioPlayMode::GetModeState
_TEXT	ENDS
PUBLIC	?DecryptValueToPool@?$CEncrypt@H@@QAEXPAH@Z	; CEncrypt<int>::DecryptValueToPool
EXTRN	?DecryptByte@ccddaabb@@QBEXPBDPADH@Z:PROC	; ccddaabb::DecryptByte
; Function compile flags: /Ogsp
; File d:\lost saga for developer\youtube\tutorial\source\src\lsclient\encryptvalue.h
;	COMDAT ?DecryptValueToPool@?$CEncrypt@H@@QAEXPAH@Z
_TEXT	SEGMENT
_value$ = 8						; size = 4
?DecryptValueToPool@?$CEncrypt@H@@QAEXPAH@Z PROC	; CEncrypt<int>::DecryptValueToPool, COMDAT
; _this$ = ecx

; 837  : 	{

  00000	55		 push	 ebp
  00001	8b ec		 mov	 ebp, esp
  00003	56		 push	 esi

; 838  : 		m_RC5.DecryptByte( m_MemPool, m_TempMem, 4 );

  00004	8d 71 28	 lea	 esi, DWORD PTR [ecx+40]
  00007	6a 04		 push	 4
  00009	8d 41 1c	 lea	 eax, DWORD PTR [ecx+28]
  0000c	56		 push	 esi
  0000d	50		 push	 eax
  0000e	83 c1 0c	 add	 ecx, 12			; 0000000cH
  00011	e8 00 00 00 00	 call	 ?DecryptByte@ccddaabb@@QBEXPBDPADH@Z ; ccddaabb::DecryptByte

; 839  : 		*value = *((int*)m_TempMem);

  00016	8b 06		 mov	 eax, DWORD PTR [esi]
  00018	8b 4d 08	 mov	 ecx, DWORD PTR _value$[ebp]
  0001b	89 01		 mov	 DWORD PTR [ecx], eax
  0001d	5e		 pop	 esi

; 840  : 	}

  0001e	5d		 pop	 ebp
  0001f	c2 04 00	 ret	 4
?DecryptValueToPool@?$CEncrypt@H@@QAEXPAH@Z ENDP	; CEncrypt<int>::DecryptValueToPool
_TEXT	ENDS
PUBLIC	?DecryptValueToPool@?$CEncrypt@W4ModeType@@@@QAEXPAW4ModeType@@@Z ; CEncrypt<enum ModeType>::DecryptValueToPool
; Function compile flags: /Ogsp
;	COMDAT ?DecryptValueToPool@?$CEncrypt@W4ModeType@@@@QAEXPAW4ModeType@@@Z
_TEXT	SEGMENT
_value$ = 8						; size = 4
?DecryptValueToPool@?$CEncrypt@W4ModeType@@@@QAEXPAW4ModeType@@@Z PROC ; CEncrypt<enum ModeType>::DecryptValueToPool, COMDAT
; _this$ = ecx

; 3039 : 	{

  00000	55		 push	 ebp
  00001	8b ec		 mov	 ebp, esp
  00003	56		 push	 esi

; 3040 : 		m_RC5.DecryptByte( m_MemPool, m_TempMem, sizeof(ModeType) );

  00004	8d 71 28	 lea	 esi, DWORD PTR [ecx+40]
  00007	6a 04		 push	 4
  00009	8d 41 1c	 lea	 eax, DWORD PTR [ecx+28]
  0000c	56		 push	 esi
  0000d	50		 push	 eax
  0000e	83 c1 0c	 add	 ecx, 12			; 0000000cH
  00011	e8 00 00 00 00	 call	 ?DecryptByte@ccddaabb@@QBEXPBDPADH@Z ; ccddaabb::DecryptByte

; 3041 : 		*value = *((ModeType*)m_TempMem);

  00016	8b 06		 mov	 eax, DWORD PTR [esi]
  00018	8b 4d 08	 mov	 ecx, DWORD PTR _value$[ebp]
  0001b	89 01		 mov	 DWORD PTR [ecx], eax
  0001d	5e		 pop	 esi

; 3042 : 	}

  0001e	5d		 pop	 ebp
  0001f	c2 04 00	 ret	 4
?DecryptValueToPool@?$CEncrypt@W4ModeType@@@@QAEXPAW4ModeType@@@Z ENDP ; CEncrypt<enum ModeType>::DecryptValueToPool
_TEXT	ENDS
EXTRN	??3@YAXPAX@Z:PROC				; operator delete
; Function compile flags: /Ogsp
;	COMDAT ??_GSoldierLimitPopupWnd@@UAEPAXI@Z
_TEXT	SEGMENT
___flags$ = 8						; size = 4
??_GSoldierLimitPopupWnd@@UAEPAXI@Z PROC		; SoldierLimitPopupWnd::`scalar deleting destructor', COMDAT
; _this$ = ecx
  00000	55		 push	 ebp
  00001	8b ec		 mov	 ebp, esp
  00003	56		 push	 esi
  00004	8b f1		 mov	 esi, ecx
  00006	e8 00 00 00 00	 call	 ??1SoldierLimitPopupWnd@@UAE@XZ ; SoldierLimitPopupWnd::~SoldierLimitPopupWnd
  0000b	f6 45 08 01	 test	 BYTE PTR ___flags$[ebp], 1
  0000f	74 07		 je	 SHORT $LN1@scalar
  00011	56		 push	 esi
  00012	e8 00 00 00 00	 call	 ??3@YAXPAX@Z		; operator delete
  00017	59		 pop	 ecx
$LN1@scalar:
  00018	8b c6		 mov	 eax, esi
  0001a	5e		 pop	 esi
  0001b	5d		 pop	 ebp
  0001c	c2 04 00	 ret	 4
??_GSoldierLimitPopupWnd@@UAEPAXI@Z ENDP		; SoldierLimitPopupWnd::`scalar deleting destructor'
_TEXT	ENDS
EXTRN	__imp_?HideWnd@ioGUIManager@@QAEXK_N@Z:PROC
; Function compile flags: /Ogsp
; File d:\lost saga for developer\youtube\tutorial\source\src\lsclient\gui\soldierlimitwnd.cpp
;	COMDAT ?iwm_show@SoldierLimitPopupWnd@@UAEXXZ
_TEXT	SEGMENT
?iwm_show@SoldierLimitPopupWnd@@UAEXXZ PROC		; SoldierLimitPopupWnd::iwm_show, COMDAT
; _this$ = ecx

; 71   : {

  00000	56		 push	 esi

; 72   : 	if( g_GUIMgr.IsShow( BANKRUPTCY_CHAR_WND ) )

  00001	be cc 0b 00 00	 mov	 esi, 3020		; 00000bccH
  00006	56		 push	 esi
  00007	e8 00 00 00 00	 call	 ?GetSingleton@ioSP2GUIManager@@SAAAV1@XZ ; ioSP2GUIManager::GetSingleton
  0000c	8b c8		 mov	 ecx, eax
  0000e	ff 15 00 00 00
	00		 call	 DWORD PTR __imp_?IsShow@ioGUIManager@@QAE_NK@Z
  00014	84 c0		 test	 al, al
  00016	74 10		 je	 SHORT $LN1@iwm_show

; 73   : 		g_GUIMgr.HideWnd( BANKRUPTCY_CHAR_WND );

  00018	6a 00		 push	 0
  0001a	56		 push	 esi
  0001b	e8 00 00 00 00	 call	 ?GetSingleton@ioSP2GUIManager@@SAAAV1@XZ ; ioSP2GUIManager::GetSingleton
  00020	8b c8		 mov	 ecx, eax
  00022	ff 15 00 00 00
	00		 call	 DWORD PTR __imp_?HideWnd@ioGUIManager@@QAEXK_N@Z
$LN1@iwm_show:

; 74   : 
; 75   : 	g_App.ResetConnectedMoveMode();

  00028	e8 00 00 00 00	 call	 ?GetSingleton@ioApplication@@SAAAV1@XZ ; ioApplication::GetSingleton
  0002d	c7 80 ac 06 00
	00 02 00 00 00	 mov	 DWORD PTR [eax+1708], 2
  00037	5e		 pop	 esi

; 76   : }

  00038	c3		 ret	 0
?iwm_show@SoldierLimitPopupWnd@@UAEXXZ ENDP		; SoldierLimitPopupWnd::iwm_show
; Function compile flags: /Ogsp
_TEXT	ENDS
;	COMDAT ??_GRentalSoldierLimitPopupWnd@@UAEPAXI@Z
_TEXT	SEGMENT
___flags$ = 8						; size = 4
??_GRentalSoldierLimitPopupWnd@@UAEPAXI@Z PROC		; RentalSoldierLimitPopupWnd::`scalar deleting destructor', COMDAT
; _this$ = ecx
  00000	55		 push	 ebp
  00001	8b ec		 mov	 ebp, esp
  00003	56		 push	 esi
  00004	8b f1		 mov	 esi, ecx
  00006	e8 00 00 00 00	 call	 ??1RentalSoldierLimitPopupWnd@@UAE@XZ ; RentalSoldierLimitPopupWnd::~RentalSoldierLimitPopupWnd
  0000b	f6 45 08 01	 test	 BYTE PTR ___flags$[ebp], 1
  0000f	74 07		 je	 SHORT $LN1@scalar@2
  00011	56		 push	 esi
  00012	e8 00 00 00 00	 call	 ??3@YAXPAX@Z		; operator delete
  00017	59		 pop	 ecx
$LN1@scalar@2:
  00018	8b c6		 mov	 eax, esi
  0001a	5e		 pop	 esi
  0001b	5d		 pop	 ebp
  0001c	c2 04 00	 ret	 4
??_GRentalSoldierLimitPopupWnd@@UAEPAXI@Z ENDP		; RentalSoldierLimitPopupWnd::`scalar deleting destructor'
; Function compile flags: /Ogsp
_TEXT	ENDS
;	COMDAT ?iwm_show@RentalSoldierLimitPopupWnd@@UAEXXZ
_TEXT	SEGMENT
?iwm_show@RentalSoldierLimitPopupWnd@@UAEXXZ PROC	; RentalSoldierLimitPopupWnd::iwm_show, COMDAT
; _this$ = ecx

; 181  : 	g_App.ResetConnectedMoveMode();

  00000	e8 00 00 00 00	 call	 ?GetSingleton@ioApplication@@SAAAV1@XZ ; ioApplication::GetSingleton
  00005	c7 80 ac 06 00
	00 02 00 00 00	 mov	 DWORD PTR [eax+1708], 2

; 182  : }

  0000f	c3		 ret	 0
?iwm_show@RentalSoldierLimitPopupWnd@@UAEXXZ ENDP	; RentalSoldierLimitPopupWnd::iwm_show
_TEXT	ENDS
PUBLIC	__$ArrayPad$
PUBLIC	??$?8$08@@YA_NABVioHashString@@AAY08$$CBD@Z	; operator==<9>
EXTRN	__imp_?c_str@ioHashString@@QBEPBDXZ:PROC
; Function compile flags: /Ogsp
; File d:\lost saga for developer\youtube\tutorial\source\src\io3dengine\iohashstring.h
;	COMDAT ??$?8$08@@YA_NABVioHashString@@AAY08$$CBD@Z
_TEXT	SEGMENT
__t$ = -20						; size = 9
__$ArrayPad$ = -4					; size = 4
_lhs$ = 8						; size = 4
_t$ = 12						; size = 4
??$?8$08@@YA_NABVioHashString@@AAY08$$CBD@Z PROC	; operator==<9>, COMDAT

; 146  : {

  00000	55		 push	 ebp
  00001	8b ec		 mov	 ebp, esp
  00003	83 ec 14	 sub	 esp, 20			; 00000014H
  00006	a1 00 00 00 00	 mov	 eax, DWORD PTR ___security_cookie
  0000b	33 c5		 xor	 eax, ebp
  0000d	89 45 fc	 mov	 DWORD PTR __$ArrayPad$[ebp], eax
  00010	8b 45 0c	 mov	 eax, DWORD PTR _t$[ebp]

; 147  : 	_ENCSTR(t, _t); return ( strcmp( lhs.c_str(), _t ) == 0 );

  00013	8a 10		 mov	 dl, BYTE PTR [eax]
  00015	8b 4d 08	 mov	 ecx, DWORD PTR _lhs$[ebp]
  00018	84 d2		 test	 dl, dl
  0001a	0f 84 ee 00 00
	00		 je	 $LN96@operator
  00020	80 f2 ed	 xor	 dl, -19			; ffffffedH
  00023	88 55 ec	 mov	 BYTE PTR __t$[ebp], dl
  00026	8a 50 01	 mov	 dl, BYTE PTR [eax+1]
  00029	84 d2		 test	 dl, dl
  0002b	0f 84 d7 00 00
	00		 je	 $LN95@operator
  00031	80 f2 ec	 xor	 dl, -20			; ffffffecH
  00034	88 55 ed	 mov	 BYTE PTR __t$[ebp+1], dl
  00037	8a 50 02	 mov	 dl, BYTE PTR [eax+2]
  0003a	84 d2		 test	 dl, dl
  0003c	0f 84 c0 00 00
	00		 je	 $LN94@operator
  00042	80 f2 eb	 xor	 dl, -21			; ffffffebH
  00045	88 55 ee	 mov	 BYTE PTR __t$[ebp+2], dl
  00048	8a 50 03	 mov	 dl, BYTE PTR [eax+3]
  0004b	84 d2		 test	 dl, dl
  0004d	0f 84 a9 00 00
	00		 je	 $LN93@operator
  00053	80 f2 ea	 xor	 dl, -22			; ffffffeaH
  00056	88 55 ef	 mov	 BYTE PTR __t$[ebp+3], dl
  00059	8a 50 04	 mov	 dl, BYTE PTR [eax+4]
  0005c	84 d2		 test	 dl, dl
  0005e	0f 84 92 00 00
	00		 je	 $LN92@operator
  00064	80 f2 ed	 xor	 dl, -19			; ffffffedH
  00067	88 55 f0	 mov	 BYTE PTR __t$[ebp+4], dl
  0006a	8a 50 05	 mov	 dl, BYTE PTR [eax+5]
  0006d	84 d2		 test	 dl, dl
  0006f	74 7f		 je	 SHORT $LN91@operator
  00071	80 f2 ec	 xor	 dl, -20			; ffffffecH
  00074	88 55 f1	 mov	 BYTE PTR __t$[ebp+5], dl
  00077	8a 50 06	 mov	 dl, BYTE PTR [eax+6]
  0007a	84 d2		 test	 dl, dl
  0007c	74 6c		 je	 SHORT $LN90@operator
  0007e	80 f2 eb	 xor	 dl, -21			; ffffffebH
  00081	88 55 f2	 mov	 BYTE PTR __t$[ebp+6], dl
  00084	8a 50 07	 mov	 dl, BYTE PTR [eax+7]
  00087	84 d2		 test	 dl, dl
  00089	74 59		 je	 SHORT $LN89@operator
  0008b	80 f2 ea	 xor	 dl, -22			; ffffffeaH
  0008e	80 78 08 00	 cmp	 BYTE PTR [eax+8], 0
  00092	88 55 f3	 mov	 BYTE PTR __t$[ebp+7], dl
  00095	74 7b		 je	 SHORT $LN1@operator
  00097	8a 50 09	 mov	 dl, BYTE PTR [eax+9]
  0009a	84 d2		 test	 dl, dl
  0009c	74 40		 je	 SHORT $LN87@operator
  0009e	80 f2 ec	 xor	 dl, -20			; ffffffecH
  000a1	88 55 f5	 mov	 BYTE PTR __t$[ebp+9], dl
  000a4	8a 50 0a	 mov	 dl, BYTE PTR [eax+10]
  000a7	84 d2		 test	 dl, dl
  000a9	74 2d		 je	 SHORT $LN86@operator
  000ab	80 f2 eb	 xor	 dl, -21			; ffffffebH
  000ae	88 55 f6	 mov	 BYTE PTR __t$[ebp+10], dl
  000b1	8a 50 0b	 mov	 dl, BYTE PTR [eax+11]
  000b4	84 d2		 test	 dl, dl
  000b6	74 1a		 je	 SHORT $LN85@operator
  000b8	8a 40 0c	 mov	 al, BYTE PTR [eax+12]
  000bb	80 f2 ea	 xor	 dl, -22			; ffffffeaH
  000be	88 55 f7	 mov	 BYTE PTR __t$[ebp+11], dl
  000c1	84 c0		 test	 al, al
  000c3	74 07		 je	 SHORT $LN84@operator
  000c5	34 ed		 xor	 al, -19			; ffffffedH
  000c7	88 45 f8	 mov	 BYTE PTR __t$[ebp+12], al
  000ca	eb 46		 jmp	 SHORT $LN1@operator
$LN84@operator:
  000cc	c6 45 f8 ed	 mov	 BYTE PTR __t$[ebp+12], -19 ; ffffffedH
  000d0	eb 40		 jmp	 SHORT $LN1@operator
$LN85@operator:
  000d2	c6 45 f7 ea	 mov	 BYTE PTR __t$[ebp+11], -22 ; ffffffeaH
  000d6	eb 3a		 jmp	 SHORT $LN1@operator
$LN86@operator:
  000d8	c6 45 f6 eb	 mov	 BYTE PTR __t$[ebp+10], -21 ; ffffffebH
  000dc	eb 34		 jmp	 SHORT $LN1@operator
$LN87@operator:
  000de	c6 45 f5 ec	 mov	 BYTE PTR __t$[ebp+9], -20 ; ffffffecH
  000e2	eb 2e		 jmp	 SHORT $LN1@operator
$LN89@operator:
  000e4	c6 45 f3 ea	 mov	 BYTE PTR __t$[ebp+7], -22 ; ffffffeaH
  000e8	eb 28		 jmp	 SHORT $LN1@operator
$LN90@operator:
  000ea	c6 45 f2 eb	 mov	 BYTE PTR __t$[ebp+6], -21 ; ffffffebH
  000ee	eb 22		 jmp	 SHORT $LN1@operator
$LN91@operator:
  000f0	c6 45 f1 ec	 mov	 BYTE PTR __t$[ebp+5], -20 ; ffffffecH
  000f4	eb 1c		 jmp	 SHORT $LN1@operator
$LN92@operator:
  000f6	c6 45 f0 ed	 mov	 BYTE PTR __t$[ebp+4], -19 ; ffffffedH
  000fa	eb 16		 jmp	 SHORT $LN1@operator
$LN93@operator:
  000fc	c6 45 ef ea	 mov	 BYTE PTR __t$[ebp+3], -22 ; ffffffeaH
  00100	eb 10		 jmp	 SHORT $LN1@operator
$LN94@operator:
  00102	c6 45 ee eb	 mov	 BYTE PTR __t$[ebp+2], -21 ; ffffffebH
  00106	eb 0a		 jmp	 SHORT $LN1@operator
$LN95@operator:
  00108	c6 45 ed ec	 mov	 BYTE PTR __t$[ebp+1], -20 ; ffffffecH
  0010c	eb 04		 jmp	 SHORT $LN1@operator
$LN96@operator:
  0010e	c6 45 ec ed	 mov	 BYTE PTR __t$[ebp], -19	; ffffffedH
$LN1@operator:
  00112	6a 02		 push	 2
  00114	8d 45 ec	 lea	 eax, DWORD PTR __t$[ebp]
  00117	c6 45 f4 00	 mov	 BYTE PTR __t$[ebp+8], 0
  0011b	5a		 pop	 edx
$LL104@operator:
  0011c	81 30 ed ec eb
	ea		 xor	 DWORD PTR [eax], -353637139 ; eaebecedH
  00122	83 c0 04	 add	 eax, 4
  00125	4a		 dec	 edx
  00126	75 f4		 jne	 SHORT $LL104@operator
  00128	56		 push	 esi
  00129	8d 75 ec	 lea	 esi, DWORD PTR __t$[ebp]
  0012c	ff 15 00 00 00
	00		 call	 DWORD PTR __imp_?c_str@ioHashString@@QBEPBDXZ
$LL111@operator:
  00132	8a 08		 mov	 cl, BYTE PTR [eax]
  00134	3a 0e		 cmp	 cl, BYTE PTR [esi]
  00136	75 1a		 jne	 SHORT $LN112@operator
  00138	84 c9		 test	 cl, cl
  0013a	74 12		 je	 SHORT $LN113@operator
  0013c	8a 48 01	 mov	 cl, BYTE PTR [eax+1]
  0013f	3a 4e 01	 cmp	 cl, BYTE PTR [esi+1]
  00142	75 0e		 jne	 SHORT $LN112@operator
  00144	83 c0 02	 add	 eax, 2
  00147	83 c6 02	 add	 esi, 2
  0014a	84 c9		 test	 cl, cl
  0014c	75 e4		 jne	 SHORT $LL111@operator
$LN113@operator:
  0014e	33 c0		 xor	 eax, eax
  00150	eb 05		 jmp	 SHORT $LN114@operator
$LN112@operator:
  00152	1b c0		 sbb	 eax, eax
  00154	83 d8 ff	 sbb	 eax, -1
$LN114@operator:
  00157	33 c9		 xor	 ecx, ecx
  00159	85 c0		 test	 eax, eax
  0015b	0f 94 c0	 sete	 al

; 148  : }

  0015e	8b 4d fc	 mov	 ecx, DWORD PTR __$ArrayPad$[ebp]
  00161	33 cd		 xor	 ecx, ebp
  00163	5e		 pop	 esi
  00164	e8 00 00 00 00	 call	 @__security_check_cookie@4
  00169	c9		 leave
  0016a	c3		 ret	 0
??$?8$08@@YA_NABVioHashString@@AAY08$$CBD@Z ENDP	; operator==<9>
_TEXT	ENDS
PUBLIC	__$ArrayPad$
PUBLIC	??$?8$04@@YA_NABVioHashString@@AAY04$$CBD@Z	; operator==<5>
; Function compile flags: /Ogsp
;	COMDAT ??$?8$04@@YA_NABVioHashString@@AAY04$$CBD@Z
_TEXT	SEGMENT
__t$ = -16						; size = 5
__$ArrayPad$ = -4					; size = 4
_lhs$ = 8						; size = 4
_t$ = 12						; size = 4
??$?8$04@@YA_NABVioHashString@@AAY04$$CBD@Z PROC	; operator==<5>, COMDAT

; 146  : {

  00000	55		 push	 ebp
  00001	8b ec		 mov	 ebp, esp
  00003	83 ec 10	 sub	 esp, 16			; 00000010H
  00006	a1 00 00 00 00	 mov	 eax, DWORD PTR ___security_cookie
  0000b	33 c5		 xor	 eax, ebp
  0000d	89 45 fc	 mov	 DWORD PTR __$ArrayPad$[ebp], eax
  00010	8b 45 0c	 mov	 eax, DWORD PTR _t$[ebp]

; 147  : 	_ENCSTR(t, _t); return ( strcmp( lhs.c_str(), _t ) == 0 );

  00013	8a 10		 mov	 dl, BYTE PTR [eax]
  00015	8b 4d 08	 mov	 ecx, DWORD PTR _lhs$[ebp]
  00018	84 d2		 test	 dl, dl
  0001a	0f 84 92 00 00
	00		 je	 $LN96@operator@2
  00020	80 f2 ed	 xor	 dl, -19			; ffffffedH
  00023	88 55 f0	 mov	 BYTE PTR __t$[ebp], dl
  00026	8a 50 01	 mov	 dl, BYTE PTR [eax+1]
  00029	84 d2		 test	 dl, dl
  0002b	74 7f		 je	 SHORT $LN95@operator@2
  0002d	80 f2 ec	 xor	 dl, -20			; ffffffecH
  00030	88 55 f1	 mov	 BYTE PTR __t$[ebp+1], dl
  00033	8a 50 02	 mov	 dl, BYTE PTR [eax+2]
  00036	84 d2		 test	 dl, dl
  00038	74 6c		 je	 SHORT $LN94@operator@2
  0003a	80 f2 eb	 xor	 dl, -21			; ffffffebH
  0003d	88 55 f2	 mov	 BYTE PTR __t$[ebp+2], dl
  00040	8a 50 03	 mov	 dl, BYTE PTR [eax+3]
  00043	84 d2		 test	 dl, dl
  00045	74 59		 je	 SHORT $LN93@operator@2
  00047	80 f2 ea	 xor	 dl, -22			; ffffffeaH
  0004a	80 78 04 00	 cmp	 BYTE PTR [eax+4], 0
  0004e	88 55 f3	 mov	 BYTE PTR __t$[ebp+3], dl
  00051	74 63		 je	 SHORT $LN1@operator@2
  00053	8a 50 05	 mov	 dl, BYTE PTR [eax+5]
  00056	84 d2		 test	 dl, dl
  00058	74 40		 je	 SHORT $LN91@operator@2
  0005a	80 f2 ec	 xor	 dl, -20			; ffffffecH
  0005d	88 55 f5	 mov	 BYTE PTR __t$[ebp+5], dl
  00060	8a 50 06	 mov	 dl, BYTE PTR [eax+6]
  00063	84 d2		 test	 dl, dl
  00065	74 2d		 je	 SHORT $LN90@operator@2
  00067	80 f2 eb	 xor	 dl, -21			; ffffffebH
  0006a	88 55 f6	 mov	 BYTE PTR __t$[ebp+6], dl
  0006d	8a 50 07	 mov	 dl, BYTE PTR [eax+7]
  00070	84 d2		 test	 dl, dl
  00072	74 1a		 je	 SHORT $LN89@operator@2
  00074	8a 40 08	 mov	 al, BYTE PTR [eax+8]
  00077	80 f2 ea	 xor	 dl, -22			; ffffffeaH
  0007a	88 55 f7	 mov	 BYTE PTR __t$[ebp+7], dl
  0007d	84 c0		 test	 al, al
  0007f	74 07		 je	 SHORT $LN88@operator@2
  00081	34 ed		 xor	 al, -19			; ffffffedH
  00083	88 45 f8	 mov	 BYTE PTR __t$[ebp+8], al
  00086	eb 2e		 jmp	 SHORT $LN1@operator@2
$LN88@operator@2:
  00088	c6 45 f8 ed	 mov	 BYTE PTR __t$[ebp+8], -19 ; ffffffedH
  0008c	eb 28		 jmp	 SHORT $LN1@operator@2
$LN89@operator@2:
  0008e	c6 45 f7 ea	 mov	 BYTE PTR __t$[ebp+7], -22 ; ffffffeaH
  00092	eb 22		 jmp	 SHORT $LN1@operator@2
$LN90@operator@2:
  00094	c6 45 f6 eb	 mov	 BYTE PTR __t$[ebp+6], -21 ; ffffffebH
  00098	eb 1c		 jmp	 SHORT $LN1@operator@2
$LN91@operator@2:
  0009a	c6 45 f5 ec	 mov	 BYTE PTR __t$[ebp+5], -20 ; ffffffecH
  0009e	eb 16		 jmp	 SHORT $LN1@operator@2
$LN93@operator@2:
  000a0	c6 45 f3 ea	 mov	 BYTE PTR __t$[ebp+3], -22 ; ffffffeaH
  000a4	eb 10		 jmp	 SHORT $LN1@operator@2
$LN94@operator@2:
  000a6	c6 45 f2 eb	 mov	 BYTE PTR __t$[ebp+2], -21 ; ffffffebH
  000aa	eb 0a		 jmp	 SHORT $LN1@operator@2
$LN95@operator@2:
  000ac	c6 45 f1 ec	 mov	 BYTE PTR __t$[ebp+1], -20 ; ffffffecH
  000b0	eb 04		 jmp	 SHORT $LN1@operator@2
$LN96@operator@2:
  000b2	c6 45 f0 ed	 mov	 BYTE PTR __t$[ebp], -19	; ffffffedH
$LN1@operator@2:
  000b6	81 75 f0 ed ec
	eb ea		 xor	 DWORD PTR __t$[ebp], -353637139 ; eaebecedH
  000bd	56		 push	 esi
  000be	c6 45 f4 00	 mov	 BYTE PTR __t$[ebp+4], 0
  000c2	8d 75 f0	 lea	 esi, DWORD PTR __t$[ebp]
  000c5	ff 15 00 00 00
	00		 call	 DWORD PTR __imp_?c_str@ioHashString@@QBEPBDXZ
$LL111@operator@2:
  000cb	8a 08		 mov	 cl, BYTE PTR [eax]
  000cd	3a 0e		 cmp	 cl, BYTE PTR [esi]
  000cf	75 1a		 jne	 SHORT $LN112@operator@2
  000d1	84 c9		 test	 cl, cl
  000d3	74 12		 je	 SHORT $LN113@operator@2
  000d5	8a 48 01	 mov	 cl, BYTE PTR [eax+1]
  000d8	3a 4e 01	 cmp	 cl, BYTE PTR [esi+1]
  000db	75 0e		 jne	 SHORT $LN112@operator@2
  000dd	83 c0 02	 add	 eax, 2
  000e0	83 c6 02	 add	 esi, 2
  000e3	84 c9		 test	 cl, cl
  000e5	75 e4		 jne	 SHORT $LL111@operator@2
$LN113@operator@2:
  000e7	33 c0		 xor	 eax, eax
  000e9	eb 05		 jmp	 SHORT $LN114@operator@2
$LN112@operator@2:
  000eb	1b c0		 sbb	 eax, eax
  000ed	83 d8 ff	 sbb	 eax, -1
$LN114@operator@2:
  000f0	33 c9		 xor	 ecx, ecx
  000f2	85 c0		 test	 eax, eax
  000f4	0f 94 c0	 sete	 al

; 148  : }

  000f7	8b 4d fc	 mov	 ecx, DWORD PTR __$ArrayPad$[ebp]
  000fa	33 cd		 xor	 ecx, ebp
  000fc	5e		 pop	 esi
  000fd	e8 00 00 00 00	 call	 @__security_check_cookie@4
  00102	c9		 leave
  00103	c3		 ret	 0
??$?8$04@@YA_NABVioHashString@@AAY04$$CBD@Z ENDP	; operator==<5>
_TEXT	ENDS
PUBLIC	??B?$CEncrypt@H@@QBEHXZ				; CEncrypt<int>::operator int
; Function compile flags: /Ogsp
; File d:\lost saga for developer\youtube\tutorial\source\src\lsclient\encryptvalue.h
;	COMDAT ??B?$CEncrypt@H@@QBEHXZ
_TEXT	SEGMENT
_value$ = -4						; size = 4
??B?$CEncrypt@H@@QBEHXZ PROC				; CEncrypt<int>::operator int, COMDAT
; _this$ = ecx

; 145  : 	{

  00000	55		 push	 ebp
  00001	8b ec		 mov	 ebp, esp
  00003	51		 push	 ecx

; 146  : 		//UJ 130829, const    --start
; 147  : 		type value;
; 148  : 		CEncrypt<type>* pThis = const_cast<CEncrypt<type>*>(this);
; 149  : 		pThis->DecryptValueToPool(&value);

  00004	8d 45 fc	 lea	 eax, DWORD PTR _value$[ebp]
  00007	50		 push	 eax
  00008	e8 00 00 00 00	 call	 ?DecryptValueToPool@?$CEncrypt@H@@QAEXPAH@Z ; CEncrypt<int>::DecryptValueToPool

; 150  : 		//// const DecryptValueToPool     .
; 151  :  		//type value;
; 152  : 		//char szTempMem[MAX_ENCRYPT];
; 153  : 		//m_RC5.DecryptByte( m_MemPool, szTempMem, max(m_ValueSize, DEFAULT_ENCRYPT) );
; 154  : 		//memcpy( &value, szTempMem, m_ValueSize );
; 155  : 		//UJ --end
; 156  : 
; 157  : #ifdef _NOTUSE
; 158  : 		Debug();
; 159  : #endif
; 160  : 		return value;

  0000d	8b 45 fc	 mov	 eax, DWORD PTR _value$[ebp]

; 161  : 	}

  00010	c9		 leave
  00011	c3		 ret	 0
??B?$CEncrypt@H@@QBEHXZ ENDP				; CEncrypt<int>::operator int
_TEXT	ENDS
PUBLIC	??B?$CEncrypt@W4ModeType@@@@QAE?AW4ModeType@@XZ	; CEncrypt<enum ModeType>::operator enum ModeType
; Function compile flags: /Ogsp
;	COMDAT ??B?$CEncrypt@W4ModeType@@@@QAE?AW4ModeType@@XZ
_TEXT	SEGMENT
_value$ = -4						; size = 4
??B?$CEncrypt@W4ModeType@@@@QAE?AW4ModeType@@XZ PROC	; CEncrypt<enum ModeType>::operator enum ModeType, COMDAT
; _this$ = ecx

; 134  : 	{

  00000	55		 push	 ebp
  00001	8b ec		 mov	 ebp, esp
  00003	51		 push	 ecx

; 135  : 		type value;
; 136  : 		DecryptValueToPool(&value);

  00004	8d 45 fc	 lea	 eax, DWORD PTR _value$[ebp]
  00007	50		 push	 eax
  00008	e8 00 00 00 00	 call	 ?DecryptValueToPool@?$CEncrypt@W4ModeType@@@@QAEXPAW4ModeType@@@Z ; CEncrypt<enum ModeType>::DecryptValueToPool

; 137  : 
; 138  : #ifdef _NOTUSE
; 139  : 		Debug();
; 140  : #endif
; 141  : 		return value;

  0000d	8b 45 fc	 mov	 eax, DWORD PTR _value$[ebp]

; 142  : 	}

  00010	c9		 leave
  00011	c3		 ret	 0
??B?$CEncrypt@W4ModeType@@@@QAE?AW4ModeType@@XZ ENDP	; CEncrypt<enum ModeType>::operator enum ModeType
_TEXT	ENDS
PUBLIC	_pImage$GSCopy$
PUBLIC	_this$GSCopy$
PUBLIC	__$ArrayPad$
EXTRN	__imp_?AddRenderImage@ioWnd@@UAEXABVioHashString@@PAVioUIRenderImage@@@Z:PROC
; Function compile flags: /Ogsp
; File d:\lost saga for developer\youtube\tutorial\source\src\lsclient\gui\soldierlimitwnd.cpp
;	COMDAT ?AddRenderImage@SoldierLimitPopupWnd@@MAEXABVioHashString@@PAVioUIRenderImage@@@Z
_TEXT	SEGMENT
_pImage$GSCopy$ = -28					; size = 4
_this$GSCopy$ = -24					; size = 4
__t$534188 = -20					; size = 9
__t$534323 = -16					; size = 5
__$ArrayPad$ = -4					; size = 4
_szType$ = 8						; size = 4
_pImage$ = 12						; size = 4
?AddRenderImage@SoldierLimitPopupWnd@@MAEXABVioHashString@@PAVioUIRenderImage@@@Z PROC ; SoldierLimitPopupWnd::AddRenderImage, COMDAT
; _this$ = ecx

; 53   : {

  00000	55		 push	 ebp
  00001	8b ec		 mov	 ebp, esp
  00003	83 ec 1c	 sub	 esp, 28			; 0000001cH
  00006	a1 00 00 00 00	 mov	 eax, DWORD PTR ___security_cookie
  0000b	33 c5		 xor	 eax, ebp
  0000d	89 45 fc	 mov	 DWORD PTR __$ArrayPad$[ebp], eax
  00010	8b 45 0c	 mov	 eax, DWORD PTR _pImage$[ebp]
  00013	53		 push	 ebx
  00014	8b 5d 08	 mov	 ebx, DWORD PTR _szType$[ebp]
  00017	56		 push	 esi
  00018	57		 push	 edi

; 54   : 	if( szType == "IconBack" )

  00019	6a 02		 push	 2
  0001b	89 4d e8	 mov	 DWORD PTR _this$GSCopy$[ebp], ecx

; 65   : 	{
; 66   : 		ioWnd::AddRenderImage( szType, pImage );

  0001e	89 45 e4	 mov	 DWORD PTR _pImage$GSCopy$[ebp], eax
  00021	c7 45 ec a4 8f
	84 84		 mov	 DWORD PTR __t$534188[ebp], -2071687260 ; 84848fa4H
  00028	c7 45 f0 af 8d
	88 81		 mov	 DWORD PTR __t$534188[ebp+4], -2121757265 ; 81888dafH
  0002f	8d 45 ec	 lea	 eax, DWORD PTR __t$534188[ebp]
  00032	c6 45 f4 00	 mov	 BYTE PTR __t$534188[ebp+8], 0
  00036	59		 pop	 ecx
  00037	bf ed ec eb ea	 mov	 edi, -353637139		; eaebecedH
$LL116@AddRenderI:

; 54   : 	if( szType == "IconBack" )

  0003c	31 38		 xor	 DWORD PTR [eax], edi
  0003e	83 c0 04	 add	 eax, 4
  00041	49		 dec	 ecx
  00042	75 f8		 jne	 SHORT $LL116@AddRenderI
  00044	8b cb		 mov	 ecx, ebx
  00046	8d 75 ec	 lea	 esi, DWORD PTR __t$534188[ebp]
  00049	ff 15 00 00 00
	00		 call	 DWORD PTR __imp_?c_str@ioHashString@@QBEPBDXZ
$LL234@AddRenderI:
  0004f	8a 08		 mov	 cl, BYTE PTR [eax]
  00051	3a 0e		 cmp	 cl, BYTE PTR [esi]
  00053	75 1a		 jne	 SHORT $LN235@AddRenderI
  00055	84 c9		 test	 cl, cl
  00057	74 12		 je	 SHORT $LN236@AddRenderI
  00059	8a 48 01	 mov	 cl, BYTE PTR [eax+1]
  0005c	3a 4e 01	 cmp	 cl, BYTE PTR [esi+1]
  0005f	75 0e		 jne	 SHORT $LN235@AddRenderI
  00061	83 c0 02	 add	 eax, 2
  00064	83 c6 02	 add	 esi, 2
  00067	84 c9		 test	 cl, cl
  00069	75 e4		 jne	 SHORT $LL234@AddRenderI
$LN236@AddRenderI:
  0006b	33 c0		 xor	 eax, eax
  0006d	eb 05		 jmp	 SHORT $LN237@AddRenderI
$LN235@AddRenderI:
  0006f	1b c0		 sbb	 eax, eax
  00071	83 d8 ff	 sbb	 eax, -1
$LN237@AddRenderI:
  00074	85 c0		 test	 eax, eax
  00076	75 26		 jne	 SHORT $LN233@AddRenderI

; 55   : 	{
; 56   : 		SAFEDELETE( m_pIconBack );

  00078	8b 75 e8	 mov	 esi, DWORD PTR _this$GSCopy$[ebp]
  0007b	8b 8e 60 01 00
	00		 mov	 ecx, DWORD PTR [esi+352]
  00081	85 c9		 test	 ecx, ecx
  00083	74 0e		 je	 SHORT $LN5@AddRenderI
  00085	8b 01		 mov	 eax, DWORD PTR [ecx]
  00087	6a 01		 push	 1
  00089	ff 50 40	 call	 DWORD PTR [eax+64]
  0008c	83 a6 60 01 00
	00 00		 and	 DWORD PTR [esi+352], 0
$LN5@AddRenderI:

; 57   : 		m_pIconBack = pImage;

  00093	8b 45 e4	 mov	 eax, DWORD PTR _pImage$GSCopy$[ebp]
  00096	89 86 60 01 00
	00		 mov	 DWORD PTR [esi+352], eax
  0009c	eb 75		 jmp	 SHORT $LN1@AddRenderI
$LN233@AddRenderI:

; 58   : 	}
; 59   : 	else if( szType == "Icon" )

  0009e	c7 45 f0 a4 8f
	84 84		 mov	 DWORD PTR __t$534323[ebp], -2071687260 ; 84848fa4H
  000a5	31 7d f0	 xor	 DWORD PTR __t$534323[ebp], edi
  000a8	8b cb		 mov	 ecx, ebx
  000aa	c6 45 f4 00	 mov	 BYTE PTR __t$534323[ebp+4], 0
  000ae	8d 75 f0	 lea	 esi, DWORD PTR __t$534323[ebp]
  000b1	ff 15 00 00 00
	00		 call	 DWORD PTR __imp_?c_str@ioHashString@@QBEPBDXZ
$LL238@AddRenderI:
  000b7	8a 08		 mov	 cl, BYTE PTR [eax]
  000b9	3a 0e		 cmp	 cl, BYTE PTR [esi]
  000bb	75 1a		 jne	 SHORT $LN239@AddRenderI
  000bd	84 c9		 test	 cl, cl
  000bf	74 12		 je	 SHORT $LN240@AddRenderI
  000c1	8a 48 01	 mov	 cl, BYTE PTR [eax+1]
  000c4	3a 4e 01	 cmp	 cl, BYTE PTR [esi+1]
  000c7	75 0e		 jne	 SHORT $LN239@AddRenderI
  000c9	83 c0 02	 add	 eax, 2
  000cc	83 c6 02	 add	 esi, 2
  000cf	84 c9		 test	 cl, cl
  000d1	75 e4		 jne	 SHORT $LL238@AddRenderI
$LN240@AddRenderI:
  000d3	33 c0		 xor	 eax, eax
  000d5	eb 05		 jmp	 SHORT $LN241@AddRenderI
$LN239@AddRenderI:
  000d7	1b c0		 sbb	 eax, eax
  000d9	83 d8 ff	 sbb	 eax, -1
$LN241@AddRenderI:
  000dc	85 c0		 test	 eax, eax
  000de	75 26		 jne	 SHORT $LN3@AddRenderI

; 60   : 	{
; 61   : 		SAFEDELETE( m_pIcon );

  000e0	8b 75 e8	 mov	 esi, DWORD PTR _this$GSCopy$[ebp]
  000e3	8b 8e 64 01 00
	00		 mov	 ecx, DWORD PTR [esi+356]
  000e9	85 c9		 test	 ecx, ecx
  000eb	74 0e		 je	 SHORT $LN2@AddRenderI
  000ed	8b 01		 mov	 eax, DWORD PTR [ecx]
  000ef	6a 01		 push	 1
  000f1	ff 50 40	 call	 DWORD PTR [eax+64]
  000f4	83 a6 64 01 00
	00 00		 and	 DWORD PTR [esi+356], 0
$LN2@AddRenderI:

; 62   : 		m_pIcon = pImage;

  000fb	8b 45 e4	 mov	 eax, DWORD PTR _pImage$GSCopy$[ebp]
  000fe	89 86 64 01 00
	00		 mov	 DWORD PTR [esi+356], eax

; 63   : 	}
; 64   : 	else

  00104	eb 0d		 jmp	 SHORT $LN1@AddRenderI
$LN3@AddRenderI:

; 65   : 	{
; 66   : 		ioWnd::AddRenderImage( szType, pImage );

  00106	ff 75 e4	 push	 DWORD PTR _pImage$GSCopy$[ebp]
  00109	8b 4d e8	 mov	 ecx, DWORD PTR _this$GSCopy$[ebp]
  0010c	53		 push	 ebx
  0010d	ff 15 00 00 00
	00		 call	 DWORD PTR __imp_?AddRenderImage@ioWnd@@UAEXABVioHashString@@PAVioUIRenderImage@@@Z
$LN1@AddRenderI:

; 67   : 	}
; 68   : }

  00113	8b 4d fc	 mov	 ecx, DWORD PTR __$ArrayPad$[ebp]
  00116	5f		 pop	 edi
  00117	5e		 pop	 esi
  00118	33 cd		 xor	 ecx, ebp
  0011a	5b		 pop	 ebx
  0011b	e8 00 00 00 00	 call	 @__security_check_cookie@4
  00120	c9		 leave
  00121	c2 08 00	 ret	 8
?AddRenderImage@SoldierLimitPopupWnd@@MAEXABVioHashString@@PAVioUIRenderImage@@@Z ENDP ; SoldierLimitPopupWnd::AddRenderImage
_TEXT	ENDS
PUBLIC	_this$GSCopy$
PUBLIC	__$ArrayPad$
; Function compile flags: /Ogsp
;	COMDAT ?AddRenderImage@RentalSoldierLimitPopupWnd@@MAEXABVioHashString@@PAVioUIRenderImage@@@Z
_TEXT	SEGMENT
_this$GSCopy$ = -24					; size = 4
__t$534451 = -20					; size = 9
__$ArrayPad$ = -4					; size = 4
_szType$ = 8						; size = 4
_pImage$ = 12						; size = 4
?AddRenderImage@RentalSoldierLimitPopupWnd@@MAEXABVioHashString@@PAVioUIRenderImage@@@Z PROC ; RentalSoldierLimitPopupWnd::AddRenderImage, COMDAT
; _this$ = ecx

; 167  : {

  00000	55		 push	 ebp
  00001	8b ec		 mov	 ebp, esp
  00003	83 ec 18	 sub	 esp, 24			; 00000018H
  00006	a1 00 00 00 00	 mov	 eax, DWORD PTR ___security_cookie
  0000b	33 c5		 xor	 eax, ebp
  0000d	89 45 fc	 mov	 DWORD PTR __$ArrayPad$[ebp], eax
  00010	53		 push	 ebx
  00011	8b 5d 0c	 mov	 ebx, DWORD PTR _pImage$[ebp]
  00014	56		 push	 esi
  00015	57		 push	 edi
  00016	8b 7d 08	 mov	 edi, DWORD PTR _szType$[ebp]

; 168  : 	if( szType == "IconBack" )

  00019	6a 02		 push	 2
  0001b	89 4d e8	 mov	 DWORD PTR _this$GSCopy$[ebp], ecx
  0001e	c7 45 ec a4 8f
	84 84		 mov	 DWORD PTR __t$534451[ebp], -2071687260 ; 84848fa4H
  00025	c7 45 f0 af 8d
	88 81		 mov	 DWORD PTR __t$534451[ebp+4], -2121757265 ; 81888dafH
  0002c	8d 45 ec	 lea	 eax, DWORD PTR __t$534451[ebp]
  0002f	c6 45 f4 00	 mov	 BYTE PTR __t$534451[ebp+8], 0
  00033	59		 pop	 ecx
$LL111@AddRenderI@2:
  00034	81 30 ed ec eb
	ea		 xor	 DWORD PTR [eax], -353637139 ; eaebecedH
  0003a	83 c0 04	 add	 eax, 4
  0003d	49		 dec	 ecx
  0003e	75 f4		 jne	 SHORT $LL111@AddRenderI@2
  00040	8b cf		 mov	 ecx, edi
  00042	8d 75 ec	 lea	 esi, DWORD PTR __t$534451[ebp]
  00045	ff 15 00 00 00
	00		 call	 DWORD PTR __imp_?c_str@ioHashString@@QBEPBDXZ
$LL118@AddRenderI@2:
  0004b	8a 08		 mov	 cl, BYTE PTR [eax]
  0004d	3a 0e		 cmp	 cl, BYTE PTR [esi]
  0004f	75 1a		 jne	 SHORT $LN119@AddRenderI@2
  00051	84 c9		 test	 cl, cl
  00053	74 12		 je	 SHORT $LN120@AddRenderI@2
  00055	8a 48 01	 mov	 cl, BYTE PTR [eax+1]
  00058	3a 4e 01	 cmp	 cl, BYTE PTR [esi+1]
  0005b	75 0e		 jne	 SHORT $LN119@AddRenderI@2
  0005d	83 c0 02	 add	 eax, 2
  00060	83 c6 02	 add	 esi, 2
  00063	84 c9		 test	 cl, cl
  00065	75 e4		 jne	 SHORT $LL118@AddRenderI@2
$LN120@AddRenderI@2:
  00067	33 c0		 xor	 eax, eax
  00069	eb 05		 jmp	 SHORT $LN121@AddRenderI@2
$LN119@AddRenderI@2:
  0006b	1b c0		 sbb	 eax, eax
  0006d	83 d8 ff	 sbb	 eax, -1
$LN121@AddRenderI@2:
  00070	85 c0		 test	 eax, eax
  00072	75 23		 jne	 SHORT $LN3@AddRenderI@2

; 169  : 	{
; 170  : 		SAFEDELETE( m_pIconBack );

  00074	8b 75 e8	 mov	 esi, DWORD PTR _this$GSCopy$[ebp]
  00077	8b 8e 60 01 00
	00		 mov	 ecx, DWORD PTR [esi+352]
  0007d	85 c9		 test	 ecx, ecx
  0007f	74 0e		 je	 SHORT $LN2@AddRenderI@2
  00081	8b 01		 mov	 eax, DWORD PTR [ecx]
  00083	6a 01		 push	 1
  00085	ff 50 40	 call	 DWORD PTR [eax+64]
  00088	83 a6 60 01 00
	00 00		 and	 DWORD PTR [esi+352], 0
$LN2@AddRenderI@2:

; 171  : 		m_pIconBack = pImage;

  0008f	89 9e 60 01 00
	00		 mov	 DWORD PTR [esi+352], ebx

; 172  : 	}
; 173  : 	else

  00095	eb 0b		 jmp	 SHORT $LN1@AddRenderI@2
$LN3@AddRenderI@2:

; 174  : 	{
; 175  : 		ioWnd::AddRenderImage( szType, pImage );

  00097	8b 4d e8	 mov	 ecx, DWORD PTR _this$GSCopy$[ebp]
  0009a	53		 push	 ebx
  0009b	57		 push	 edi
  0009c	ff 15 00 00 00
	00		 call	 DWORD PTR __imp_?AddRenderImage@ioWnd@@UAEXABVioHashString@@PAVioUIRenderImage@@@Z
$LN1@AddRenderI@2:

; 176  : 	}
; 177  : }

  000a2	8b 4d fc	 mov	 ecx, DWORD PTR __$ArrayPad$[ebp]
  000a5	5f		 pop	 edi
  000a6	5e		 pop	 esi
  000a7	33 cd		 xor	 ecx, ebp
  000a9	5b		 pop	 ebx
  000aa	e8 00 00 00 00	 call	 @__security_check_cookie@4
  000af	c9		 leave
  000b0	c2 08 00	 ret	 8
?AddRenderImage@RentalSoldierLimitPopupWnd@@MAEXABVioHashString@@PAVioUIRenderImage@@@Z ENDP ; RentalSoldierLimitPopupWnd::AddRenderImage
_TEXT	ENDS
PUBLIC	?GetModeType@ioPlayMode@@SA?AW4ModeType@@XZ	; ioPlayMode::GetModeType
EXTRN	?m_ModeType@ioPlayMode@@1V?$CEncrypt@W4ModeType@@@@A:BYTE ; ioPlayMode::m_ModeType
; Function compile flags: /Ogsp
; File d:\lost saga for developer\youtube\tutorial\source\src\lsclient\ioplaymode.h
;	COMDAT ?GetModeType@ioPlayMode@@SA?AW4ModeType@@XZ
_TEXT	SEGMENT
?GetModeType@ioPlayMode@@SA?AW4ModeType@@XZ PROC	; ioPlayMode::GetModeType, COMDAT

; 782  : 	static ModeType GetModeType() { return m_ModeType; }

  00000	6a 04		 push	 4
  00002	68 28 00 00 00	 push	 OFFSET ?m_ModeType@ioPlayMode@@1V?$CEncrypt@W4ModeType@@@@A+40
  00007	68 1c 00 00 00	 push	 OFFSET ?m_ModeType@ioPlayMode@@1V?$CEncrypt@W4ModeType@@@@A+28
  0000c	b9 0c 00 00 00	 mov	 ecx, OFFSET ?m_ModeType@ioPlayMode@@1V?$CEncrypt@W4ModeType@@@@A+12
  00011	e8 00 00 00 00	 call	 ?DecryptByte@ccddaabb@@QBEXPBDPADH@Z ; ccddaabb::DecryptByte
  00016	a1 28 00 00 00	 mov	 eax, DWORD PTR ?m_ModeType@ioPlayMode@@1V?$CEncrypt@W4ModeType@@@@A+40
  0001b	c3		 ret	 0
?GetModeType@ioPlayMode@@SA?AW4ModeType@@XZ ENDP	; ioPlayMode::GetModeType
_TEXT	ENDS
PUBLIC	??_C@_0CP@KEEOGGCO@RentalSoldierLimitPopupWnd?3?3Proc@ ; `string'
PUBLIC	__$ArrayPad$
PUBLIC	?ProcessRentalCheck@RentalSoldierLimitPopupWnd@@IAEXXZ ; RentalSoldierLimitPopupWnd::ProcessRentalCheck
EXTRN	??1SP2Packet@@UAE@XZ:PROC			; SP2Packet::~SP2Packet
EXTRN	?LeaveTeam@ioLadderTeamMgr@@QAEXXZ:PROC		; ioLadderTeamMgr::LeaveTeam
EXTRN	?GetSingleton@ioLadderTeamMgr@@SAAAV1@XZ:PROC	; ioLadderTeamMgr::GetSingleton
EXTRN	?LeaveRoom@ioBattleRoomMgr@@QAEX_N@Z:PROC	; ioBattleRoomMgr::LeaveRoom
EXTRN	?GetSingleton@ioBattleRoomMgr@@SAAAV1@XZ:PROC	; ioBattleRoomMgr::GetSingleton
EXTRN	?SendToServer@TCPNetwork@@YAXAAVSP2Packet@@@Z:PROC ; TCPNetwork::SendToServer
EXTRN	??6SP2Packet@@QAEAAV0@_N@Z:PROC			; SP2Packet::operator<<
EXTRN	??6SP2Packet@@QAEAAV0@H@Z:PROC			; SP2Packet::operator<<
EXTRN	??0SP2Packet@@QAE@K@Z:PROC			; SP2Packet::SP2Packet
EXTRN	__imp_?SafeSprintf@@YAXPADHPBDH@Z:PROC
EXTRN	?GetPowerUpGradeType@ioUIImageRenderManager@@QAEHH@Z:PROC ; ioUIImageRenderManager::GetPowerUpGradeType
EXTRN	?GetSoldierIcon@ioMyInfo@@QAEPAVioUIRenderImage@@H_N@Z:PROC ; ioMyInfo::GetSoldierIcon
EXTRN	?IsCharExerciseRentalInActive@ioMyInfo@@QAE_NH@Z:PROC ; ioMyInfo::IsCharExerciseRentalInActive
EXTRN	?IsHasCrown@ioBaseChar@@QBE_NXZ:PROC		; ioBaseChar::IsHasCrown
EXTRN	?GetModeType@ioPlayStage@@QBE?AW4ModeType@@XZ:PROC ; ioPlayStage::GetModeType
EXTRN	__chkstk:PROC
;	COMDAT ??_C@_0CP@KEEOGGCO@RentalSoldierLimitPopupWnd?3?3Proc@
; File d:\lost saga for developer\youtube\tutorial\source\src\lsclient\stdafx.h
CONST	SEGMENT
??_C@_0CP@KEEOGGCO@RentalSoldierLimitPopupWnd?3?3Proc@ DB 'RentalSoldierL'
	DB	'imitPopupWnd::ProcessRentalCheck', 00H	; `string'
CONST	ENDS
;	COMDAT xdata$x
xdata$x	SEGMENT
__unwindtable$?ProcessRentalCheck@RentalSoldierLimitPopupWnd@@IAEXXZ DD 0ffffffffH
	DD	FLAT:__unwindfunclet$?ProcessRentalCheck@RentalSoldierLimitPopupWnd@@IAEXXZ$0
__ehfuncinfo$?ProcessRentalCheck@RentalSoldierLimitPopupWnd@@IAEXXZ DD 019930522H
	DD	01H
	DD	FLAT:__unwindtable$?ProcessRentalCheck@RentalSoldierLimitPopupWnd@@IAEXXZ
	DD	2 DUP(00H)
	DD	2 DUP(00H)
	DD	00H
	DD	01H
; Function compile flags: /Ogsp
; File d:\lost saga for developer\youtube\tutorial\source\src\lsclient\gui\soldierlimitwnd.cpp
xdata$x	ENDS
;	COMDAT ?ProcessRentalCheck@RentalSoldierLimitPopupWnd@@IAEXXZ
_TEXT	SEGMENT
$T534628 = -33336					; size = 1
tv543 = -33332						; size = 4
tv540 = -33332						; size = 4
_value$534644 = -33332					; size = 4
_value$534635 = -33332					; size = 4
_kPacket$533089 = -33328				; size = 32792
_szTitle$533075 = -536					; size = 260
_szTitle$533087 = -276					; size = 260
__$ArrayPad$ = -16					; size = 4
__$EHRec$ = -12						; size = 12
?ProcessRentalCheck@RentalSoldierLimitPopupWnd@@IAEXXZ PROC ; RentalSoldierLimitPopupWnd::ProcessRentalCheck, COMDAT
; _this$ = ecx

; 217  : {

  00000	55		 push	 ebp
  00001	8b ec		 mov	 ebp, esp
  00003	6a ff		 push	 -1
  00005	68 00 00 00 00	 push	 __ehhandler$?ProcessRentalCheck@RentalSoldierLimitPopupWnd@@IAEXXZ
  0000a	64 a1 00 00 00
	00		 mov	 eax, DWORD PTR fs:0
  00010	50		 push	 eax
  00011	b8 2c 82 00 00	 mov	 eax, 33324		; 0000822cH
  00016	e8 00 00 00 00	 call	 __chkstk
  0001b	a1 00 00 00 00	 mov	 eax, DWORD PTR ___security_cookie
  00020	33 c5		 xor	 eax, ebp
  00022	89 45 f0	 mov	 DWORD PTR __$ArrayPad$[ebp], eax
  00025	53		 push	 ebx
  00026	56		 push	 esi
  00027	57		 push	 edi
  00028	50		 push	 eax
  00029	8d 45 f4	 lea	 eax, DWORD PTR __$EHRec$[ebp]
  0002c	64 a3 00 00 00
	00		 mov	 DWORD PTR fs:0, eax
  00032	8b f1		 mov	 esi, ecx

; 218  : 	if( m_pPlayStage == NULL ) return;

  00034	8b 8e 68 01 00
	00		 mov	 ecx, DWORD PTR [esi+360]
  0003a	85 c9		 test	 ecx, ecx
  0003c	0f 84 c0 03 00
	00		 je	 $LN2@ProcessRen

; 219  : 	if( m_pPlayStage->GetModeType() == MT_MYROOM ) return;

  00042	e8 00 00 00 00	 call	 ?GetModeType@ioPlayStage@@QBE?AW4ModeType@@XZ ; ioPlayStage::GetModeType
  00047	83 f8 18	 cmp	 eax, 24			; 00000018H
  0004a	0f 84 b2 03 00
	00		 je	 $LN2@ProcessRen

; 220  : 
; 221  : 	ioPlayMode *pPlayMode = m_pPlayStage->GetPlayMode();

  00050	8b 86 68 01 00
	00		 mov	 eax, DWORD PTR [esi+360]
  00056	8b 80 10 01 00
	00		 mov	 eax, DWORD PTR [eax+272]

; 222  : 	if( pPlayMode == NULL ) return;

  0005c	85 c0		 test	 eax, eax
  0005e	0f 84 9e 03 00
	00		 je	 $LN2@ProcessRen

; 223  : 	if( pPlayMode->GetModeState() != ioPlayMode::MS_PLAY ) return;

  00064	8b 40 38	 mov	 eax, DWORD PTR [eax+56]
  00067	83 f8 01	 cmp	 eax, 1
  0006a	0f 85 92 03 00
	00		 jne	 $LN2@ProcessRen

; 224  : 
; 225  : 	if( FRAMEGETTIME() - m_dwProcessCheckTime < 1000 ) return;

  00070	8b 1d 00 00 00
	00		 mov	 ebx, DWORD PTR __imp_?GetSingleton@ioFrameTimer@@SAAAV1@XZ
  00076	ff d3		 call	 ebx
  00078	8b c8		 mov	 ecx, eax
  0007a	ff 15 00 00 00
	00		 call	 DWORD PTR __imp_?GetLoopSec@ioFrameTimer@@QBEKXZ
  00080	2b 86 74 01 00
	00		 sub	 eax, DWORD PTR [esi+372]
  00086	3d e8 03 00 00	 cmp	 eax, 1000		; 000003e8H
  0008b	0f 82 71 03 00
	00		 jb	 $LN2@ProcessRen

; 226  : 
; 227  : 	m_dwProcessCheckTime = FRAMEGETTIME();

  00091	ff d3		 call	 ebx
  00093	8b c8		 mov	 ecx, eax
  00095	ff 15 00 00 00
	00		 call	 DWORD PTR __imp_?GetLoopSec@ioFrameTimer@@QBEKXZ

; 228  : 
; 229  : 	if( !IsShow() )

  0009b	8b ce		 mov	 ecx, esi
  0009d	89 86 74 01 00
	00		 mov	 DWORD PTR [esi+372], eax
  000a3	ff 15 00 00 00
	00		 call	 DWORD PTR __imp_?IsShow@ioWnd@@QBE_NXZ
  000a9	84 c0		 test	 al, al
  000ab	0f 85 6f 01 00
	00		 jne	 $LN17@ProcessRen

; 230  : 	{
; 231  : 		ioBaseChar *pOwnerChar = m_pPlayStage->GetOwnerChar();

  000b1	8b 8e 68 01 00
	00		 mov	 ecx, DWORD PTR [esi+360]
  000b7	e8 00 00 00 00	 call	 ?GetOwnerChar@ioPlayStage@@QAEPAVioBaseChar@@XZ ; ioPlayStage::GetOwnerChar
  000bc	8b f8		 mov	 edi, eax

; 232  : 		if( pOwnerChar == NULL ) return;

  000be	85 ff		 test	 edi, edi
  000c0	0f 84 3c 03 00
	00		 je	 $LN2@ProcessRen

; 233  : 		if( pOwnerChar->GetState() == CS_OBSERVER || pOwnerChar->GetState() == CS_VIEW || pOwnerChar->GetState() == CS_LOADING || pOwnerChar->GetState() == CS_READY )

  000c6	8a 87 10 03 00
	00		 mov	 al, BYTE PTR [edi+784]
  000cc	3c 2a		 cmp	 al, 42			; 0000002aH
  000ce	0f 84 2e 03 00
	00		 je	 $LN2@ProcessRen
  000d4	3c 1a		 cmp	 al, 26			; 0000001aH
  000d6	0f 84 26 03 00
	00		 je	 $LN2@ProcessRen
  000dc	3c 24		 cmp	 al, 36			; 00000024H
  000de	0f 84 1e 03 00
	00		 je	 $LN2@ProcessRen
  000e4	3c 18		 cmp	 al, 24			; 00000018H
  000e6	0f 84 16 03 00
	00		 je	 $LN2@ProcessRen

; 234  : 			return;
; 235  : 		if( pOwnerChar->IsHasCrown() )

  000ec	8b cf		 mov	 ecx, edi
  000ee	e8 00 00 00 00	 call	 ?IsHasCrown@ioBaseChar@@QBE_NXZ ; ioBaseChar::IsHasCrown
  000f3	84 c0		 test	 al, al
  000f5	0f 85 07 03 00
	00		 jne	 $LN2@ProcessRen

; 236  : 			return;
; 237  : 		if( pOwnerChar->IsGangsi() )

  000fb	38 87 f8 23 00
	00		 cmp	 BYTE PTR [edi+9208], al
  00101	0f 85 fb 02 00
	00		 jne	 $LN2@ProcessRen

; 238  : 			return;
; 239  : 
; 240  : 		if( g_MyInfo.IsCharExerciseRentalInActive( pOwnerChar->GetSelectCharArray() ) )

  00107	ff b7 24 03 00
	00		 push	 DWORD PTR [edi+804]
  0010d	e8 00 00 00 00	 call	 ?GetSingleton@ioMyInfo@@SAAAV1@XZ ; ioMyInfo::GetSingleton
  00112	8b c8		 mov	 ecx, eax
  00114	e8 00 00 00 00	 call	 ?IsCharExerciseRentalInActive@ioMyInfo@@QAE_NH@Z ; ioMyInfo::IsCharExerciseRentalInActive
  00119	84 c0		 test	 al, al
  0011b	0f 84 e1 02 00
	00		 je	 $LN2@ProcessRen

; 241  : 		{
; 242  : 			//   
; 243  : 			SAFEDELETE( m_pCharIcon );

  00121	8b 8e 64 01 00
	00		 mov	 ecx, DWORD PTR [esi+356]
  00127	85 c9		 test	 ecx, ecx
  00129	74 0e		 je	 SHORT $LN10@ProcessRen
  0012b	8b 01		 mov	 eax, DWORD PTR [ecx]
  0012d	6a 01		 push	 1
  0012f	ff 50 40	 call	 DWORD PTR [eax+64]
  00132	83 a6 64 01 00
	00 00		 and	 DWORD PTR [esi+356], 0
$LN10@ProcessRen:

; 244  : 			m_pCharIcon = g_MyInfo.GetSoldierIcon( pOwnerChar->GetCharacterInfo().m_class_type, pOwnerChar->IsMale() );			

  00139	8a 87 20 03 00
	00		 mov	 al, BYTE PTR [edi+800]
  0013f	88 85 c8 7d ff
	ff		 mov	 BYTE PTR $T534628[ebp], al
  00145	8d 85 cc 7d ff
	ff		 lea	 eax, DWORD PTR _value$534635[ebp]
  0014b	50		 push	 eax
  0014c	8d 8f 58 03 00
	00		 lea	 ecx, DWORD PTR [edi+856]
  00152	e8 00 00 00 00	 call	 ?DecryptValueToPool@?$CEncrypt@H@@QAEXPAH@Z ; CEncrypt<int>::DecryptValueToPool
  00157	ff b5 c8 7d ff
	ff		 push	 DWORD PTR $T534628[ebp]
  0015d	ff b5 cc 7d ff
	ff		 push	 DWORD PTR _value$534635[ebp]
  00163	e8 00 00 00 00	 call	 ?GetSingleton@ioMyInfo@@SAAAV1@XZ ; ioMyInfo::GetSingleton
  00168	8b c8		 mov	 ecx, eax
  0016a	e8 00 00 00 00	 call	 ?GetSoldierIcon@ioMyInfo@@QAEPAVioUIRenderImage@@H_N@Z ; ioMyInfo::GetSoldierIcon
  0016f	89 86 64 01 00
	00		 mov	 DWORD PTR [esi+356], eax

; 245  : 
; 246  : 			m_nGradeType = g_UIImageRenderMgr.GetPowerUpGradeType( pOwnerChar->GetCharacterInfo().m_class_type );

  00175	8d 85 cc 7d ff
	ff		 lea	 eax, DWORD PTR _value$534644[ebp]
  0017b	50		 push	 eax
  0017c	8d 8f 58 03 00
	00		 lea	 ecx, DWORD PTR [edi+856]
  00182	e8 00 00 00 00	 call	 ?DecryptValueToPool@?$CEncrypt@H@@QAEXPAH@Z ; CEncrypt<int>::DecryptValueToPool
  00187	ff b5 cc 7d ff
	ff		 push	 DWORD PTR _value$534644[ebp]
  0018d	e8 00 00 00 00	 call	 ?GetSingleton@ioUIImageRenderManager@@SAAAV1@XZ ; ioUIImageRenderManager::GetSingleton
  00192	8b c8		 mov	 ecx, eax
  00194	e8 00 00 00 00	 call	 ?GetPowerUpGradeType@ioUIImageRenderManager@@QAEHH@Z ; ioUIImageRenderManager::GetPowerUpGradeType

; 247  : 
; 248  : 			char szTitle[MAX_PATH] = "";

  00199	68 03 01 00 00	 push	 259			; 00000103H
  0019e	89 86 78 01 00
	00		 mov	 DWORD PTR [esi+376], eax
  001a4	8d 85 e9 fd ff
	ff		 lea	 eax, DWORD PTR _szTitle$533075[ebp+1]
  001aa	6a 00		 push	 0
  001ac	50		 push	 eax
  001ad	c6 85 e8 fd ff
	ff 00		 mov	 BYTE PTR _szTitle$533075[ebp], 0
  001b4	e8 00 00 00 00	 call	 _memset
  001b9	83 c4 0c	 add	 esp, 12			; 0000000cH

; 249  : 			SafeSprintf( szTitle, sizeof( szTitle ), STR(1), LIMIT_SEC );

  001bc	6a 1e		 push	 30			; 0000001eH
  001be	6a 00		 push	 0
  001c0	6a 01		 push	 1
  001c2	bf 00 00 00 00	 mov	 edi, OFFSET ??_C@_00CNPNBAHC@?$AA@
  001c7	57		 push	 edi
  001c8	68 00 00 00 00	 push	 OFFSET ??_C@_0CP@KEEOGGCO@RentalSoldierLimitPopupWnd?3?3Proc@
  001cd	ff 15 00 00 00
	00		 call	 DWORD PTR __imp_?GetSingleton@ioStringManager@@SAAAV1@XZ
  001d3	8b c8		 mov	 ecx, eax
  001d5	ff 15 00 00 00
	00		 call	 DWORD PTR __imp_?GetString@ioStringManager@@QAEPADPBD0HW4FileNamePrefix@1@@Z
  001db	50		 push	 eax
  001dc	8d 85 e8 fd ff
	ff		 lea	 eax, DWORD PTR _szTitle$533075[ebp]
  001e2	68 04 01 00 00	 push	 260			; 00000104H
  001e7	50		 push	 eax
  001e8	ff 15 00 00 00
	00		 call	 DWORD PTR __imp_?SafeSprintf@@YAXPADHPBDH@Z
  001ee	83 c4 10	 add	 esp, 16			; 00000010H

; 250  : 			SetTitleText( szTitle );

  001f1	6a 00		 push	 0
  001f3	57		 push	 edi
  001f4	8d 85 e8 fd ff
	ff		 lea	 eax, DWORD PTR _szTitle$533075[ebp]
  001fa	50		 push	 eax
  001fb	8b ce		 mov	 ecx, esi
  001fd	ff 15 00 00 00
	00		 call	 DWORD PTR __imp_?SetTitleText@ioWnd@@QAEXPBD0H@Z

; 251  : 
; 252  : 			m_dwRoomOutTime = FRAMEGETTIME();

  00203	ff d3		 call	 ebx
  00205	8b c8		 mov	 ecx, eax
  00207	ff 15 00 00 00
	00		 call	 DWORD PTR __imp_?GetLoopSec@ioFrameTimer@@QBEKXZ

; 253  : 			ShowWnd();

  0020d	8b ce		 mov	 ecx, esi
  0020f	89 86 70 01 00
	00		 mov	 DWORD PTR [esi+368], eax
  00215	ff 15 00 00 00
	00		 call	 DWORD PTR __imp_?ShowWnd@ioWnd@@QAEXXZ

; 254  : 		}
; 255  : 	}
; 256  : 	else

  0021b	e9 e2 01 00 00	 jmp	 $LN2@ProcessRen
$LN17@ProcessRen:

; 257  : 	{
; 258  : 		if( g_GUIMgr.IsShow( SOLDIER_LIMIT_POPUP_WND ) )

  00220	68 b5 13 00 00	 push	 5045			; 000013b5H
  00225	e8 00 00 00 00	 call	 ?GetSingleton@ioSP2GUIManager@@SAAAV1@XZ ; ioSP2GUIManager::GetSingleton
  0022a	8b c8		 mov	 ecx, eax
  0022c	ff 15 00 00 00
	00		 call	 DWORD PTR __imp_?IsShow@ioGUIManager@@QAE_NK@Z
  00232	84 c0		 test	 al, al

; 259  : 		{
; 260  : 			HideWnd();
; 261  : 			return;

  00234	0f 85 c0 01 00
	00		 jne	 $LN5@ProcessRen

; 262  : 		}
; 263  : 
; 264  : 		ioBaseChar *pOwnerChar = m_pPlayStage->GetOwnerChar();

  0023a	8b 8e 68 01 00
	00		 mov	 ecx, DWORD PTR [esi+360]
  00240	e8 00 00 00 00	 call	 ?GetOwnerChar@ioPlayStage@@QAEPAVioBaseChar@@XZ ; ioPlayStage::GetOwnerChar

; 265  : 		if( pOwnerChar == NULL )

  00245	85 c0		 test	 eax, eax

; 266  : 		{
; 267  : 			HideWnd();
; 268  : 			return;

  00247	0f 84 ad 01 00
	00		 je	 $LN5@ProcessRen

; 269  : 		}
; 270  : 
; 271  : 		if( pOwnerChar->GetState() == CS_OBSERVER || pOwnerChar->GetState() == CS_VIEW || pOwnerChar->GetState() == CS_LOADING || pOwnerChar->GetState() == CS_READY )

  0024d	8a 88 10 03 00
	00		 mov	 cl, BYTE PTR [eax+784]
  00253	80 f9 2a	 cmp	 cl, 42			; 0000002aH
  00256	0f 84 9e 01 00
	00		 je	 $LN5@ProcessRen
  0025c	80 f9 1a	 cmp	 cl, 26			; 0000001aH
  0025f	0f 84 95 01 00
	00		 je	 $LN5@ProcessRen
  00265	80 f9 24	 cmp	 cl, 36			; 00000024H
  00268	0f 84 8c 01 00
	00		 je	 $LN5@ProcessRen
  0026e	80 f9 18	 cmp	 cl, 24			; 00000018H
  00271	0f 84 83 01 00
	00		 je	 $LN5@ProcessRen

; 274  : 			return;
; 275  : 		}
; 276  : 
; 277  : 		if( pOwnerChar->IsGangsi() )

  00277	80 b8 f8 23 00
	00 00		 cmp	 BYTE PTR [eax+9208], 0

; 278  : 		{
; 279  : 			HideWnd();
; 280  : 			return;

  0027e	0f 85 76 01 00
	00		 jne	 $LN5@ProcessRen

; 281  : 		}
; 282  : 
; 283  : 		if( g_MyInfo.IsCharExerciseRentalInActive( pOwnerChar->GetSelectCharArray() ) == false )

  00284	ff b0 24 03 00
	00		 push	 DWORD PTR [eax+804]
  0028a	e8 00 00 00 00	 call	 ?GetSingleton@ioMyInfo@@SAAAV1@XZ ; ioMyInfo::GetSingleton
  0028f	8b c8		 mov	 ecx, eax
  00291	e8 00 00 00 00	 call	 ?IsCharExerciseRentalInActive@ioMyInfo@@QAE_NH@Z ; ioMyInfo::IsCharExerciseRentalInActive
  00296	84 c0		 test	 al, al

; 284  : 		{
; 285  : 			HideWnd();
; 286  : 			return;

  00298	0f 84 5c 01 00
	00		 je	 $LN5@ProcessRen

; 287  : 		}
; 288  : 
; 289  : 		int iSec = ( FRAMEGETTIME() - m_dwRoomOutTime ) / FLOAT1000;

  0029e	b8 e8 03 00 00	 mov	 eax, 1000		; 000003e8H
  002a3	8b f8		 mov	 edi, eax
  002a5	ff d3		 call	 ebx
  002a7	8b c8		 mov	 ecx, eax
  002a9	ff 15 00 00 00
	00		 call	 DWORD PTR __imp_?GetLoopSec@ioFrameTimer@@QBEKXZ
  002af	2b 86 70 01 00
	00		 sub	 eax, DWORD PTR [esi+368]
  002b5	89 85 cc 7d ff
	ff		 mov	 DWORD PTR tv543[ebp], eax
  002bb	db 85 cc 7d ff
	ff		 fild	 DWORD PTR tv543[ebp]
  002c1	79 06		 jns	 SHORT $LN71@ProcessRen
  002c3	d8 05 00 00 00
	00		 fadd	 DWORD PTR __real@4f800000
$LN71@ProcessRen:
  002c9	89 bd cc 7d ff
	ff		 mov	 DWORD PTR tv540[ebp], edi
  002cf	db 85 cc 7d ff
	ff		 fild	 DWORD PTR tv540[ebp]
  002d5	85 ff		 test	 edi, edi
  002d7	79 06		 jns	 SHORT $LN72@ProcessRen
  002d9	d8 05 00 00 00
	00		 fadd	 DWORD PTR __real@4f800000
$LN72@ProcessRen:
  002df	de f9		 fdivp	 ST(1), ST(0)
  002e1	e8 00 00 00 00	 call	 __ftol2_sse

; 290  : 		char szTitle[MAX_PATH] = "";

  002e6	68 03 01 00 00	 push	 259			; 00000103H
  002eb	8b f8		 mov	 edi, eax
  002ed	8d 85 ed fe ff
	ff		 lea	 eax, DWORD PTR _szTitle$533087[ebp+1]
  002f3	6a 00		 push	 0
  002f5	50		 push	 eax
  002f6	c6 85 ec fe ff
	ff 00		 mov	 BYTE PTR _szTitle$533087[ebp], 0
  002fd	e8 00 00 00 00	 call	 _memset
  00302	83 c4 0c	 add	 esp, 12			; 0000000cH

; 291  : 		SafeSprintf( szTitle, sizeof( szTitle ), STR(2), max( 0, LIMIT_SEC - iSec ) );

  00305	6a 1e		 push	 30			; 0000001eH
  00307	58		 pop	 eax
  00308	2b c7		 sub	 eax, edi
  0030a	79 02		 jns	 SHORT $LN27@ProcessRen
  0030c	33 c0		 xor	 eax, eax
$LN27@ProcessRen:
  0030e	50		 push	 eax
  0030f	6a 00		 push	 0
  00311	6a 02		 push	 2
  00313	bf 00 00 00 00	 mov	 edi, OFFSET ??_C@_00CNPNBAHC@?$AA@
  00318	57		 push	 edi
  00319	68 00 00 00 00	 push	 OFFSET ??_C@_0CP@KEEOGGCO@RentalSoldierLimitPopupWnd?3?3Proc@
  0031e	ff 15 00 00 00
	00		 call	 DWORD PTR __imp_?GetSingleton@ioStringManager@@SAAAV1@XZ
  00324	8b c8		 mov	 ecx, eax
  00326	ff 15 00 00 00
	00		 call	 DWORD PTR __imp_?GetString@ioStringManager@@QAEPADPBD0HW4FileNamePrefix@1@@Z
  0032c	50		 push	 eax
  0032d	8d 85 ec fe ff
	ff		 lea	 eax, DWORD PTR _szTitle$533087[ebp]
  00333	68 04 01 00 00	 push	 260			; 00000104H
  00338	50		 push	 eax
  00339	ff 15 00 00 00
	00		 call	 DWORD PTR __imp_?SafeSprintf@@YAXPADHPBDH@Z
  0033f	83 c4 10	 add	 esp, 16			; 00000010H

; 292  : 		SetTitleText( szTitle );

  00342	6a 00		 push	 0
  00344	57		 push	 edi
  00345	8d 85 ec fe ff
	ff		 lea	 eax, DWORD PTR _szTitle$533087[ebp]
  0034b	50		 push	 eax
  0034c	8b ce		 mov	 ecx, esi
  0034e	ff 15 00 00 00
	00		 call	 DWORD PTR __imp_?SetTitleText@ioWnd@@QAEXPBD0H@Z

; 293  : 
; 294  : 		if( FRAMEGETTIME() - m_dwRoomOutTime > LIMIT_SEC * 1000 )

  00354	ff d3		 call	 ebx
  00356	8b c8		 mov	 ecx, eax
  00358	ff 15 00 00 00
	00		 call	 DWORD PTR __imp_?GetLoopSec@ioFrameTimer@@QBEKXZ
  0035e	2b 86 70 01 00
	00		 sub	 eax, DWORD PTR [esi+368]
  00364	3d 30 75 00 00	 cmp	 eax, 30000		; 00007530H
  00369	0f 86 93 00 00
	00		 jbe	 $LN2@ProcessRen

; 295  : 		{
; 296  : 			m_pPlayStage = NULL;

  0036f	33 ff		 xor	 edi, edi

; 297  : 
; 298  : 			SP2Packet kPacket( CTPK_EXIT_ROOM );

  00371	6a 08		 push	 8
  00373	8d 8d d0 7d ff
	ff		 lea	 ecx, DWORD PTR _kPacket$533089[ebp]
  00379	89 be 68 01 00
	00		 mov	 DWORD PTR [esi+360], edi
  0037f	e8 00 00 00 00	 call	 ??0SP2Packet@@QAE@K@Z	; SP2Packet::SP2Packet

; 299  : 			kPacket << EXIT_ROOM_CHAR_LIMIT << 0 << true;

  00384	6a 01		 push	 1
  00386	57		 push	 edi
  00387	6a 0f		 push	 15			; 0000000fH
  00389	8d 8d d0 7d ff
	ff		 lea	 ecx, DWORD PTR _kPacket$533089[ebp]
  0038f	89 7d fc	 mov	 DWORD PTR __$EHRec$[ebp+8], edi
  00392	e8 00 00 00 00	 call	 ??6SP2Packet@@QAEAAV0@H@Z ; SP2Packet::operator<<
  00397	8b c8		 mov	 ecx, eax
  00399	e8 00 00 00 00	 call	 ??6SP2Packet@@QAEAAV0@H@Z ; SP2Packet::operator<<
  0039e	8b c8		 mov	 ecx, eax
  003a0	e8 00 00 00 00	 call	 ??6SP2Packet@@QAEAAV0@_N@Z ; SP2Packet::operator<<

; 300  : 			TCPNetwork::SendToServer( kPacket );

  003a5	8d 85 d0 7d ff
	ff		 lea	 eax, DWORD PTR _kPacket$533089[ebp]
  003ab	50		 push	 eax
  003ac	e8 00 00 00 00	 call	 ?SendToServer@TCPNetwork@@YAXAAVSP2Packet@@@Z ; TCPNetwork::SendToServer
  003b1	59		 pop	 ecx

; 301  : 			if( ioPlayMode::GetModeType() != MT_TRAINING && ioPlayMode::GetModeType() != MT_HEADQUARTERS && ioPlayMode::GetModeType() != MT_HOUSE )

  003b2	e8 00 00 00 00	 call	 ?GetModeType@ioPlayMode@@SA?AW4ModeType@@XZ ; ioPlayMode::GetModeType
  003b7	83 f8 04	 cmp	 eax, 4
  003ba	74 2d		 je	 SHORT $LN1@ProcessRen
  003bc	e8 00 00 00 00	 call	 ?GetModeType@ioPlayMode@@SA?AW4ModeType@@XZ ; ioPlayMode::GetModeType
  003c1	83 f8 0d	 cmp	 eax, 13			; 0000000dH
  003c4	74 23		 je	 SHORT $LN1@ProcessRen
  003c6	e8 00 00 00 00	 call	 ?GetModeType@ioPlayMode@@SA?AW4ModeType@@XZ ; ioPlayMode::GetModeType
  003cb	83 f8 17	 cmp	 eax, 23			; 00000017H
  003ce	74 19		 je	 SHORT $LN1@ProcessRen

; 302  : 			{	
; 303  : 				g_BattleRoomMgr.LeaveRoom();

  003d0	57		 push	 edi
  003d1	e8 00 00 00 00	 call	 ?GetSingleton@ioBattleRoomMgr@@SAAAV1@XZ ; ioBattleRoomMgr::GetSingleton
  003d6	8b c8		 mov	 ecx, eax
  003d8	e8 00 00 00 00	 call	 ?LeaveRoom@ioBattleRoomMgr@@QAEX_N@Z ; ioBattleRoomMgr::LeaveRoom

; 304  : 				g_LadderTeamMgr.LeaveTeam();

  003dd	e8 00 00 00 00	 call	 ?GetSingleton@ioLadderTeamMgr@@SAAAV1@XZ ; ioLadderTeamMgr::GetSingleton
  003e2	8b c8		 mov	 ecx, eax
  003e4	e8 00 00 00 00	 call	 ?LeaveTeam@ioLadderTeamMgr@@QAEXXZ ; ioLadderTeamMgr::LeaveTeam
$LN1@ProcessRen:

; 305  : 			}
; 306  : 		}

  003e9	83 4d fc ff	 or	 DWORD PTR __$EHRec$[ebp+8], -1
  003ed	8d 8d d0 7d ff
	ff		 lea	 ecx, DWORD PTR _kPacket$533089[ebp]
  003f3	e8 00 00 00 00	 call	 ??1SP2Packet@@UAE@XZ	; SP2Packet::~SP2Packet
  003f8	eb 08		 jmp	 SHORT $LN2@ProcessRen
$LN5@ProcessRen:

; 272  : 		{
; 273  : 			HideWnd();

  003fa	8b ce		 mov	 ecx, esi
  003fc	ff 15 00 00 00
	00		 call	 DWORD PTR __imp_?HideWnd@ioWnd@@QAEXXZ
$LN2@ProcessRen:

; 307  : 	}
; 308  : }

  00402	8b 4d f4	 mov	 ecx, DWORD PTR __$EHRec$[ebp]
  00405	64 89 0d 00 00
	00 00		 mov	 DWORD PTR fs:0, ecx
  0040c	59		 pop	 ecx
  0040d	5f		 pop	 edi
  0040e	5e		 pop	 esi
  0040f	5b		 pop	 ebx
  00410	8b 4d f0	 mov	 ecx, DWORD PTR __$ArrayPad$[ebp]
  00413	33 cd		 xor	 ecx, ebp
  00415	e8 00 00 00 00	 call	 @__security_check_cookie@4
  0041a	c9		 leave
  0041b	c3		 ret	 0
_TEXT	ENDS
;	COMDAT text$x
text$x	SEGMENT
__unwindfunclet$?ProcessRentalCheck@RentalSoldierLimitPopupWnd@@IAEXXZ$0:
  00000	8d 8d d0 7d ff
	ff		 lea	 ecx, DWORD PTR _kPacket$533089[ebp]
  00006	e9 00 00 00 00	 jmp	 ??1SP2Packet@@UAE@XZ	; SP2Packet::~SP2Packet
__ehhandler$?ProcessRentalCheck@RentalSoldierLimitPopupWnd@@IAEXXZ:
  0000b	8b 54 24 08	 mov	 edx, DWORD PTR [esp+8]
  0000f	8d 42 0c	 lea	 eax, DWORD PTR [edx+12]
  00012	8b 8a c4 7d ff
	ff		 mov	 ecx, DWORD PTR [edx-33340]
  00018	33 c8		 xor	 ecx, eax
  0001a	e8 00 00 00 00	 call	 @__security_check_cookie@4
  0001f	8b 4a fc	 mov	 ecx, DWORD PTR [edx-4]
  00022	33 c8		 xor	 ecx, eax
  00024	e8 00 00 00 00	 call	 @__security_check_cookie@4
  00029	b8 00 00 00 00	 mov	 eax, OFFSET __ehfuncinfo$?ProcessRentalCheck@RentalSoldierLimitPopupWnd@@IAEXXZ
  0002e	e9 00 00 00 00	 jmp	 ___CxxFrameHandler3
text$x	ENDS
?ProcessRentalCheck@RentalSoldierLimitPopupWnd@@IAEXXZ ENDP ; RentalSoldierLimitPopupWnd::ProcessRentalCheck
; Function compile flags: /Ogsp
;	COMDAT ?OnProcess@RentalSoldierLimitPopupWnd@@MAEXM@Z
_TEXT	SEGMENT
_fTimePerSec$ = 8					; size = 4
?OnProcess@RentalSoldierLimitPopupWnd@@MAEXM@Z PROC	; RentalSoldierLimitPopupWnd::OnProcess, COMDAT
; _this$ = ecx

; 311  : {

  00000	56		 push	 esi
  00001	8b f1		 mov	 esi, ecx

; 312  : 	ProcessRentalCheck();

  00003	e8 00 00 00 00	 call	 ?ProcessRentalCheck@RentalSoldierLimitPopupWnd@@IAEXXZ ; RentalSoldierLimitPopupWnd::ProcessRentalCheck

; 313  : 
; 314  : 	if( !IsShow() )

  00008	8b ce		 mov	 ecx, esi
  0000a	ff 15 00 00 00
	00		 call	 DWORD PTR __imp_?IsShow@ioWnd@@QBE_NXZ
  00010	5e		 pop	 esi

; 315  : 		return;
; 316  : }

  00011	c2 04 00	 ret	 4
?OnProcess@RentalSoldierLimitPopupWnd@@MAEXM@Z ENDP	; RentalSoldierLimitPopupWnd::OnProcess
_TEXT	ENDS
END
