; Listing generated by Microsoft (R) Optimizing Compiler Version 16.00.30319.01 

	TITLE	D:\Lost Saga For Developer\Youtube\Tutorial\Source\src\LSClient\GUI\SoldierManualWnd.cpp
	.686P
	.XMM
	include listing.inc
	.model	flat

INCLUDELIB MSVCRT
INCLUDELIB OLDNAMES

PUBLIC	?_EEM_DS@?$deque@UD3DXVECTOR3@@V?$allocator@UD3DXVECTOR3@@@std@@@std@@2HB ; std::deque<D3DXVECTOR3,std::allocator<D3DXVECTOR3> >::_EEM_DS
PUBLIC	?ms_Singleton@?$Singleton@VioSoldierManualMgr@@@@1PAVioSoldierManualMgr@@A ; Singleton<ioSoldierManualMgr>::ms_Singleton
;	COMDAT ?ms_Singleton@?$Singleton@VioSoldierManualMgr@@@@1PAVioSoldierManualMgr@@A
_BSS	SEGMENT
?ms_Singleton@?$Singleton@VioSoldierManualMgr@@@@1PAVioSoldierManualMgr@@A DD 01H DUP (?) ; Singleton<ioSoldierManualMgr>::ms_Singleton
_BSS	ENDS
;	COMDAT ?_EEM_DS@?$deque@UD3DXVECTOR3@@V?$allocator@UD3DXVECTOR3@@@std@@@std@@2HB
CONST	SEGMENT
?_EEM_DS@?$deque@UD3DXVECTOR3@@V?$allocator@UD3DXVECTOR3@@@std@@@std@@2HB DD 01H ; std::deque<D3DXVECTOR3,std::allocator<D3DXVECTOR3> >::_EEM_DS
CONST	ENDS
PUBLIC	??0?$Singleton@VioSoldierManualMgr@@@@QAE@XZ	; Singleton<ioSoldierManualMgr>::Singleton<ioSoldierManualMgr>
; Function compile flags: /Ogsp
; File d:\lost saga for developer\youtube\tutorial\source\src\io3dengine\iosingleton.h
;	COMDAT ??0?$Singleton@VioSoldierManualMgr@@@@QAE@XZ
_TEXT	SEGMENT
??0?$Singleton@VioSoldierManualMgr@@@@QAE@XZ PROC	; Singleton<ioSoldierManualMgr>::Singleton<ioSoldierManualMgr>, COMDAT
; _this$ = ecx

; 27   : 	Singleton()

  00000	8b c1		 mov	 eax, ecx

; 28   : 	{
; 29   : 		assert( !ms_Singleton );
; 30   : 		int offset = (int)(T*)1 - (int)(Singleton <T>*)(T*)1;
; 31   : 		ms_Singleton = (T*)((int)this + offset);

  00002	8d 48 db	 lea	 ecx, DWORD PTR [eax-37]
  00005	89 0d 00 00 00
	00		 mov	 DWORD PTR ?ms_Singleton@?$Singleton@VioSoldierManualMgr@@@@1PAVioSoldierManualMgr@@A, ecx ; Singleton<ioSoldierManualMgr>::ms_Singleton

; 32   : 	}

  0000b	c3		 ret	 0
??0?$Singleton@VioSoldierManualMgr@@@@QAE@XZ ENDP	; Singleton<ioSoldierManualMgr>::Singleton<ioSoldierManualMgr>
_TEXT	ENDS
PUBLIC	??1?$Singleton@VioSoldierManualMgr@@@@QAE@XZ	; Singleton<ioSoldierManualMgr>::~Singleton<ioSoldierManualMgr>
; Function compile flags: /Ogsp
;	COMDAT ??1?$Singleton@VioSoldierManualMgr@@@@QAE@XZ
_TEXT	SEGMENT
??1?$Singleton@VioSoldierManualMgr@@@@QAE@XZ PROC	; Singleton<ioSoldierManualMgr>::~Singleton<ioSoldierManualMgr>, COMDAT
; _this$ = ecx

; 36   : 		assert( ms_Singleton );
; 37   : 		ms_Singleton = 0;

  00000	83 25 00 00 00
	00 00		 and	 DWORD PTR ?ms_Singleton@?$Singleton@VioSoldierManualMgr@@@@1PAVioSoldierManualMgr@@A, 0 ; Singleton<ioSoldierManualMgr>::ms_Singleton

; 38   : 	}

  00007	c3		 ret	 0
??1?$Singleton@VioSoldierManualMgr@@@@QAE@XZ ENDP	; Singleton<ioSoldierManualMgr>::~Singleton<ioSoldierManualMgr>
_TEXT	ENDS
PUBLIC	?GetSingleton@?$Singleton@VioSoldierManualMgr@@@@SAAAVioSoldierManualMgr@@XZ ; Singleton<ioSoldierManualMgr>::GetSingleton
; Function compile flags: /Ogsp
;	COMDAT ?GetSingleton@?$Singleton@VioSoldierManualMgr@@@@SAAAVioSoldierManualMgr@@XZ
_TEXT	SEGMENT
?GetSingleton@?$Singleton@VioSoldierManualMgr@@@@SAAAVioSoldierManualMgr@@XZ PROC ; Singleton<ioSoldierManualMgr>::GetSingleton, COMDAT

; 42   : 		assert( ms_Singleton );
; 43   : 		return (*ms_Singleton);

  00000	a1 00 00 00 00	 mov	 eax, DWORD PTR ?ms_Singleton@?$Singleton@VioSoldierManualMgr@@@@1PAVioSoldierManualMgr@@A ; Singleton<ioSoldierManualMgr>::ms_Singleton

; 44   : 	}

  00005	c3		 ret	 0
?GetSingleton@?$Singleton@VioSoldierManualMgr@@@@SAAAVioSoldierManualMgr@@XZ ENDP ; Singleton<ioSoldierManualMgr>::GetSingleton
_TEXT	ENDS
PUBLIC	?GetSingletonPtr@?$Singleton@VioSoldierManualMgr@@@@SAPAVioSoldierManualMgr@@XZ ; Singleton<ioSoldierManualMgr>::GetSingletonPtr
; Function compile flags: /Ogsp
;	COMDAT ?GetSingletonPtr@?$Singleton@VioSoldierManualMgr@@@@SAPAVioSoldierManualMgr@@XZ
_TEXT	SEGMENT
?GetSingletonPtr@?$Singleton@VioSoldierManualMgr@@@@SAPAVioSoldierManualMgr@@XZ PROC ; Singleton<ioSoldierManualMgr>::GetSingletonPtr, COMDAT

; 48   : 		return ( ms_Singleton );

  00000	a1 00 00 00 00	 mov	 eax, DWORD PTR ?ms_Singleton@?$Singleton@VioSoldierManualMgr@@@@1PAVioSoldierManualMgr@@A ; Singleton<ioSoldierManualMgr>::ms_Singleton

; 49   : 	}

  00005	c3		 ret	 0
?GetSingletonPtr@?$Singleton@VioSoldierManualMgr@@@@SAPAVioSoldierManualMgr@@XZ ENDP ; Singleton<ioSoldierManualMgr>::GetSingletonPtr
_TEXT	ENDS
PUBLIC	??_7ioSoldierManualMgr@@6B@			; ioSoldierManualMgr::`vftable'
PUBLIC	??0ioSoldierManualMgr@@QAE@XZ			; ioSoldierManualMgr::ioSoldierManualMgr
PUBLIC	??_R4ioSoldierManualMgr@@6B@			; ioSoldierManualMgr::`RTTI Complete Object Locator'
PUBLIC	??_R0?AVioSoldierManualMgr@@@8			; ioSoldierManualMgr `RTTI Type Descriptor'
PUBLIC	??_R3ioSoldierManualMgr@@8			; ioSoldierManualMgr::`RTTI Class Hierarchy Descriptor'
PUBLIC	??_R2ioSoldierManualMgr@@8			; ioSoldierManualMgr::`RTTI Base Class Array'
PUBLIC	??_R1A@?0A@EA@ioSoldierManualMgr@@8		; ioSoldierManualMgr::`RTTI Base Class Descriptor at (0,-1,0,64)'
PUBLIC	??_R1A@?0A@EA@ManualMgr@@8			; ManualMgr::`RTTI Base Class Descriptor at (0,-1,0,64)'
PUBLIC	??_R0?AVManualMgr@@@8				; ManualMgr `RTTI Type Descriptor'
PUBLIC	??_R3ManualMgr@@8				; ManualMgr::`RTTI Class Hierarchy Descriptor'
PUBLIC	??_R2ManualMgr@@8				; ManualMgr::`RTTI Base Class Array'
PUBLIC	??_R1CF@?0A@EA@?$Singleton@VioSoldierManualMgr@@@@8 ; Singleton<ioSoldierManualMgr>::`RTTI Base Class Descriptor at (37,-1,0,64)'
PUBLIC	??_R0?AV?$Singleton@VioSoldierManualMgr@@@@@8	; Singleton<ioSoldierManualMgr> `RTTI Type Descriptor'
PUBLIC	??_R3?$Singleton@VioSoldierManualMgr@@@@8	; Singleton<ioSoldierManualMgr>::`RTTI Class Hierarchy Descriptor'
PUBLIC	??_R2?$Singleton@VioSoldierManualMgr@@@@8	; Singleton<ioSoldierManualMgr>::`RTTI Base Class Array'
PUBLIC	??_R1A@?0A@EA@?$Singleton@VioSoldierManualMgr@@@@8 ; Singleton<ioSoldierManualMgr>::`RTTI Base Class Descriptor at (0,-1,0,64)'
EXTRN	??0ManualMgr@@QAE@XZ:PROC			; ManualMgr::ManualMgr
EXTRN	??_7type_info@@6B@:QWORD			; type_info::`vftable'
EXTRN	?ClearList@ManualMgr@@MAEXXZ:PROC		; ManualMgr::ClearList
EXTRN	?LoadManual@ManualMgr@@UAEXPBD@Z:PROC		; ManualMgr::LoadManual
EXTRN	?GetMaxLine@ManualMgr@@UAE?BHH@Z:PROC		; ManualMgr::GetMaxLine
EXTRN	?GetSpaceLine@ManualMgr@@UAE?BHHH@Z:PROC	; ManualMgr::GetSpaceLine
EXTRN	?SetPrinter@ManualMgr@@UAEXHHMAAVioComplexStringPrinter@@@Z:PROC ; ManualMgr::SetPrinter
EXTRN	??_EioSoldierManualMgr@@UAEPAXI@Z:PROC		; ioSoldierManualMgr::`vector deleting destructor'
;	COMDAT ??_R1A@?0A@EA@?$Singleton@VioSoldierManualMgr@@@@8
rdata$r	SEGMENT
??_R1A@?0A@EA@?$Singleton@VioSoldierManualMgr@@@@8 DD FLAT:??_R0?AV?$Singleton@VioSoldierManualMgr@@@@@8 ; Singleton<ioSoldierManualMgr>::`RTTI Base Class Descriptor at (0,-1,0,64)'
	DD	00H
	DD	00H
	DD	0ffffffffH
	DD	00H
	DD	040H
	DD	FLAT:??_R3?$Singleton@VioSoldierManualMgr@@@@8
rdata$r	ENDS
;	COMDAT ??_R2?$Singleton@VioSoldierManualMgr@@@@8
rdata$r	SEGMENT
??_R2?$Singleton@VioSoldierManualMgr@@@@8 DD FLAT:??_R1A@?0A@EA@?$Singleton@VioSoldierManualMgr@@@@8 ; Singleton<ioSoldierManualMgr>::`RTTI Base Class Array'
rdata$r	ENDS
;	COMDAT ??_R3?$Singleton@VioSoldierManualMgr@@@@8
rdata$r	SEGMENT
??_R3?$Singleton@VioSoldierManualMgr@@@@8 DD 00H	; Singleton<ioSoldierManualMgr>::`RTTI Class Hierarchy Descriptor'
	DD	00H
	DD	01H
	DD	FLAT:??_R2?$Singleton@VioSoldierManualMgr@@@@8
rdata$r	ENDS
;	COMDAT ??_R0?AV?$Singleton@VioSoldierManualMgr@@@@@8
_DATA	SEGMENT
??_R0?AV?$Singleton@VioSoldierManualMgr@@@@@8 DD FLAT:??_7type_info@@6B@ ; Singleton<ioSoldierManualMgr> `RTTI Type Descriptor'
	DD	00H
	DB	'.?AV?$Singleton@VioSoldierManualMgr@@@@', 00H
_DATA	ENDS
;	COMDAT ??_R1CF@?0A@EA@?$Singleton@VioSoldierManualMgr@@@@8
rdata$r	SEGMENT
??_R1CF@?0A@EA@?$Singleton@VioSoldierManualMgr@@@@8 DD FLAT:??_R0?AV?$Singleton@VioSoldierManualMgr@@@@@8 ; Singleton<ioSoldierManualMgr>::`RTTI Base Class Descriptor at (37,-1,0,64)'
	DD	00H
	DD	025H
	DD	0ffffffffH
	DD	00H
	DD	040H
	DD	FLAT:??_R3?$Singleton@VioSoldierManualMgr@@@@8
rdata$r	ENDS
;	COMDAT ??_R2ManualMgr@@8
rdata$r	SEGMENT
??_R2ManualMgr@@8 DD FLAT:??_R1A@?0A@EA@ManualMgr@@8	; ManualMgr::`RTTI Base Class Array'
rdata$r	ENDS
;	COMDAT ??_R3ManualMgr@@8
rdata$r	SEGMENT
??_R3ManualMgr@@8 DD 00H				; ManualMgr::`RTTI Class Hierarchy Descriptor'
	DD	00H
	DD	01H
	DD	FLAT:??_R2ManualMgr@@8
rdata$r	ENDS
;	COMDAT ??_R0?AVManualMgr@@@8
_DATA	SEGMENT
??_R0?AVManualMgr@@@8 DD FLAT:??_7type_info@@6B@	; ManualMgr `RTTI Type Descriptor'
	DD	00H
	DB	'.?AVManualMgr@@', 00H
_DATA	ENDS
;	COMDAT ??_R1A@?0A@EA@ManualMgr@@8
rdata$r	SEGMENT
??_R1A@?0A@EA@ManualMgr@@8 DD FLAT:??_R0?AVManualMgr@@@8 ; ManualMgr::`RTTI Base Class Descriptor at (0,-1,0,64)'
	DD	00H
	DD	00H
	DD	0ffffffffH
	DD	00H
	DD	040H
	DD	FLAT:??_R3ManualMgr@@8
rdata$r	ENDS
;	COMDAT ??_R1A@?0A@EA@ioSoldierManualMgr@@8
rdata$r	SEGMENT
??_R1A@?0A@EA@ioSoldierManualMgr@@8 DD FLAT:??_R0?AVioSoldierManualMgr@@@8 ; ioSoldierManualMgr::`RTTI Base Class Descriptor at (0,-1,0,64)'
	DD	02H
	DD	00H
	DD	0ffffffffH
	DD	00H
	DD	040H
	DD	FLAT:??_R3ioSoldierManualMgr@@8
rdata$r	ENDS
;	COMDAT ??_R2ioSoldierManualMgr@@8
rdata$r	SEGMENT
??_R2ioSoldierManualMgr@@8 DD FLAT:??_R1A@?0A@EA@ioSoldierManualMgr@@8 ; ioSoldierManualMgr::`RTTI Base Class Array'
	DD	FLAT:??_R1A@?0A@EA@ManualMgr@@8
	DD	FLAT:??_R1CF@?0A@EA@?$Singleton@VioSoldierManualMgr@@@@8
rdata$r	ENDS
;	COMDAT ??_R3ioSoldierManualMgr@@8
rdata$r	SEGMENT
??_R3ioSoldierManualMgr@@8 DD 00H			; ioSoldierManualMgr::`RTTI Class Hierarchy Descriptor'
	DD	01H
	DD	03H
	DD	FLAT:??_R2ioSoldierManualMgr@@8
rdata$r	ENDS
;	COMDAT ??_R0?AVioSoldierManualMgr@@@8
_DATA	SEGMENT
??_R0?AVioSoldierManualMgr@@@8 DD FLAT:??_7type_info@@6B@ ; ioSoldierManualMgr `RTTI Type Descriptor'
	DD	00H
	DB	'.?AVioSoldierManualMgr@@', 00H
_DATA	ENDS
;	COMDAT ??_R4ioSoldierManualMgr@@6B@
rdata$r	SEGMENT
??_R4ioSoldierManualMgr@@6B@ DD 00H			; ioSoldierManualMgr::`RTTI Complete Object Locator'
	DD	00H
	DD	00H
	DD	FLAT:??_R0?AVioSoldierManualMgr@@@8
	DD	FLAT:??_R3ioSoldierManualMgr@@8
rdata$r	ENDS
;	COMDAT ??_7ioSoldierManualMgr@@6B@
CONST	SEGMENT
??_7ioSoldierManualMgr@@6B@ DD FLAT:??_R4ioSoldierManualMgr@@6B@ ; ioSoldierManualMgr::`vftable'
	DD	FLAT:?ClearList@ManualMgr@@MAEXXZ
	DD	FLAT:?LoadManual@ManualMgr@@UAEXPBD@Z
	DD	FLAT:?GetMaxLine@ManualMgr@@UAE?BHH@Z
	DD	FLAT:?GetSpaceLine@ManualMgr@@UAE?BHHH@Z
	DD	FLAT:?SetPrinter@ManualMgr@@UAEXHHMAAVioComplexStringPrinter@@@Z
	DD	FLAT:??_EioSoldierManualMgr@@UAEPAXI@Z
; Function compile flags: /Ogsp
; File d:\lost saga for developer\youtube\tutorial\source\src\lsclient\gui\soldiermanualwnd.cpp
CONST	ENDS
;	COMDAT ??0ioSoldierManualMgr@@QAE@XZ
_TEXT	SEGMENT
??0ioSoldierManualMgr@@QAE@XZ PROC			; ioSoldierManualMgr::ioSoldierManualMgr, COMDAT
; _this$ = ecx

; 22   : {

  00000	56		 push	 esi
  00001	8b f1		 mov	 esi, ecx
  00003	e8 00 00 00 00	 call	 ??0ManualMgr@@QAE@XZ	; ManualMgr::ManualMgr
  00008	89 35 00 00 00
	00		 mov	 DWORD PTR ?ms_Singleton@?$Singleton@VioSoldierManualMgr@@@@1PAVioSoldierManualMgr@@A, esi ; Singleton<ioSoldierManualMgr>::ms_Singleton
  0000e	c7 06 00 00 00
	00		 mov	 DWORD PTR [esi], OFFSET ??_7ioSoldierManualMgr@@6B@

; 23   : 
; 24   : }

  00014	8b c6		 mov	 eax, esi
  00016	5e		 pop	 esi
  00017	c3		 ret	 0
??0ioSoldierManualMgr@@QAE@XZ ENDP			; ioSoldierManualMgr::ioSoldierManualMgr
_TEXT	ENDS
PUBLIC	??1ioSoldierManualMgr@@UAE@XZ			; ioSoldierManualMgr::~ioSoldierManualMgr
EXTRN	??1ManualMgr@@UAE@XZ:PROC			; ManualMgr::~ManualMgr
; Function compile flags: /Ogsp
;	COMDAT ??1ioSoldierManualMgr@@UAE@XZ
_TEXT	SEGMENT
??1ioSoldierManualMgr@@UAE@XZ PROC			; ioSoldierManualMgr::~ioSoldierManualMgr, COMDAT
; _this$ = ecx

; 27   : {

  00000	c7 01 00 00 00
	00		 mov	 DWORD PTR [ecx], OFFSET ??_7ioSoldierManualMgr@@6B@

; 28   : 
; 29   : }

  00006	83 25 00 00 00
	00 00		 and	 DWORD PTR ?ms_Singleton@?$Singleton@VioSoldierManualMgr@@@@1PAVioSoldierManualMgr@@A, 0 ; Singleton<ioSoldierManualMgr>::ms_Singleton
  0000d	e9 00 00 00 00	 jmp	 ??1ManualMgr@@UAE@XZ	; ManualMgr::~ManualMgr
??1ioSoldierManualMgr@@UAE@XZ ENDP			; ioSoldierManualMgr::~ioSoldierManualMgr
_TEXT	ENDS
PUBLIC	?GetSingleton@ioSoldierManualMgr@@SAAAV1@XZ	; ioSoldierManualMgr::GetSingleton
; Function compile flags: /Ogsp
;	COMDAT ?GetSingleton@ioSoldierManualMgr@@SAAAV1@XZ
_TEXT	SEGMENT
?GetSingleton@ioSoldierManualMgr@@SAAAV1@XZ PROC	; ioSoldierManualMgr::GetSingleton, COMDAT

; 33   : 	return Singleton< ioSoldierManualMgr >::GetSingleton();

  00000	a1 00 00 00 00	 mov	 eax, DWORD PTR ?ms_Singleton@?$Singleton@VioSoldierManualMgr@@@@1PAVioSoldierManualMgr@@A ; Singleton<ioSoldierManualMgr>::ms_Singleton

; 34   : }

  00005	c3		 ret	 0
?GetSingleton@ioSoldierManualMgr@@SAAAV1@XZ ENDP	; ioSoldierManualMgr::GetSingleton
_TEXT	ENDS
PUBLIC	?GetSingletonPtr@ioSoldierManualMgr@@SAPAV1@XZ	; ioSoldierManualMgr::GetSingletonPtr
; Function compile flags: /Ogsp
;	COMDAT ?GetSingletonPtr@ioSoldierManualMgr@@SAPAV1@XZ
_TEXT	SEGMENT
?GetSingletonPtr@ioSoldierManualMgr@@SAPAV1@XZ PROC	; ioSoldierManualMgr::GetSingletonPtr, COMDAT

; 38   : 	return Singleton< ioSoldierManualMgr >::GetSingletonPtr();

  00000	a1 00 00 00 00	 mov	 eax, DWORD PTR ?ms_Singleton@?$Singleton@VioSoldierManualMgr@@@@1PAVioSoldierManualMgr@@A ; Singleton<ioSoldierManualMgr>::ms_Singleton

; 39   : }

  00005	c3		 ret	 0
?GetSingletonPtr@ioSoldierManualMgr@@SAPAV1@XZ ENDP	; ioSoldierManualMgr::GetSingletonPtr
_TEXT	ENDS
EXTRN	??3@YAXPAX@Z:PROC				; operator delete
; Function compile flags: /Ogsp
;	COMDAT ??_GioSoldierManualMgr@@UAEPAXI@Z
_TEXT	SEGMENT
___flags$ = 8						; size = 4
??_GioSoldierManualMgr@@UAEPAXI@Z PROC			; ioSoldierManualMgr::`scalar deleting destructor', COMDAT
; _this$ = ecx
  00000	55		 push	 ebp
  00001	8b ec		 mov	 ebp, esp
  00003	56		 push	 esi
  00004	8b f1		 mov	 esi, ecx
  00006	e8 00 00 00 00	 call	 ??1ioSoldierManualMgr@@UAE@XZ ; ioSoldierManualMgr::~ioSoldierManualMgr
  0000b	f6 45 08 01	 test	 BYTE PTR ___flags$[ebp], 1
  0000f	74 07		 je	 SHORT $LN1@scalar
  00011	56		 push	 esi
  00012	e8 00 00 00 00	 call	 ??3@YAXPAX@Z		; operator delete
  00017	59		 pop	 ecx
$LN1@scalar:
  00018	8b c6		 mov	 eax, esi
  0001a	5e		 pop	 esi
  0001b	5d		 pop	 ebp
  0001c	c2 04 00	 ret	 4
??_GioSoldierManualMgr@@UAEPAXI@Z ENDP			; ioSoldierManualMgr::`scalar deleting destructor'
_TEXT	ENDS
END
