; Listing generated by Microsoft (R) Optimizing Compiler Version 16.00.30319.01 

	TITLE	D:\Lost Saga For Developer\Youtube\Tutorial\Source\src\LSClient\GUI\SoldierExerciseWnd.cpp
	.686P
	.XMM
	include listing.inc
	.model	flat

INCLUDELIB MSVCRT
INCLUDELIB OLDNAMES

PUBLIC	?_EEM_DS@?$deque@UD3DXVECTOR3@@V?$allocator@UD3DXVECTOR3@@@std@@@std@@2HB ; std::deque<D3DXVECTOR3,std::allocator<D3DXVECTOR3> >::_EEM_DS
;	COMDAT ?_EEM_DS@?$deque@UD3DXVECTOR3@@V?$allocator@UD3DXVECTOR3@@@std@@@std@@2HB
CONST	SEGMENT
?_EEM_DS@?$deque@UD3DXVECTOR3@@V?$allocator@UD3DXVECTOR3@@@std@@@std@@2HB DD 01H ; std::deque<D3DXVECTOR3,std::allocator<D3DXVECTOR3> >::_EEM_DS
CONST	ENDS
PUBLIC	?return1@@YAIXZ					; return1
; Function compile flags: /Ogsp
; File d:\lost saga for developer\youtube\tutorial\source\src\lsclient\stdafx.h
;	COMDAT ?return1@@YAIXZ
_TEXT	SEGMENT
?return1@@YAIXZ PROC					; return1, COMDAT

; 17   : 	__forceinline unsigned int return1() { __asm mov eax, 1 };

  00000	b8 01 00 00 00	 mov	 eax, 1
  00005	c3		 ret	 0
?return1@@YAIXZ ENDP					; return1
_TEXT	ENDS
PUBLIC	?return5@@YAIXZ					; return5
; Function compile flags: /Ogsp
;	COMDAT ?return5@@YAIXZ
_TEXT	SEGMENT
?return5@@YAIXZ PROC					; return5, COMDAT

; 18   : 	__forceinline unsigned int return5() { __asm mov eax, 5 };

  00000	b8 05 00 00 00	 mov	 eax, 5
  00005	c3		 ret	 0
?return5@@YAIXZ ENDP					; return5
_TEXT	ENDS
PUBLIC	?GetPlayMode@ioPlayStage@@QBEPAVioPlayMode@@XZ	; ioPlayStage::GetPlayMode
; Function compile flags: /Ogsp
; File d:\lost saga for developer\youtube\tutorial\source\src\lsclient\ioplaystage.h
;	COMDAT ?GetPlayMode@ioPlayStage@@QBEPAVioPlayMode@@XZ
_TEXT	SEGMENT
?GetPlayMode@ioPlayStage@@QBEPAVioPlayMode@@XZ PROC	; ioPlayStage::GetPlayMode, COMDAT
; _this$ = ecx

; 780  : 	inline ioPlayMode* GetPlayMode() const { return m_pPlayMode; }

  00000	8b 81 10 01 00
	00		 mov	 eax, DWORD PTR [ecx+272]
  00006	c3		 ret	 0
?GetPlayMode@ioPlayStage@@QBEPAVioPlayMode@@XZ ENDP	; ioPlayStage::GetPlayMode
_TEXT	ENDS
PUBLIC	?return10@@YAIXZ				; return10
; Function compile flags: /Ogsp
; File d:\lost saga for developer\youtube\tutorial\source\src\lsclient\stdafx.h
;	COMDAT ?return10@@YAIXZ
_TEXT	SEGMENT
?return10@@YAIXZ PROC					; return10, COMDAT

; 21   : 	__forceinline unsigned int return10() { __asm mov eax, 10 };

  00000	b8 0a 00 00 00	 mov	 eax, 10			; 0000000aH
  00005	c3		 ret	 0
?return10@@YAIXZ ENDP					; return10
_TEXT	ENDS
PUBLIC	?return1000000000@@YAIXZ			; return1000000000
; Function compile flags: /Ogsp
;	COMDAT ?return1000000000@@YAIXZ
_TEXT	SEGMENT
?return1000000000@@YAIXZ PROC				; return1000000000, COMDAT

; 30   : 	__forceinline unsigned int return1000000000() { __asm mov eax, 1000000000 };

  00000	b8 00 ca 9a 3b	 mov	 eax, 1000000000		; 3b9aca00H
  00005	c3		 ret	 0
?return1000000000@@YAIXZ ENDP				; return1000000000
_TEXT	ENDS
PUBLIC	?return_PI@@YAIXZ				; return_PI
; Function compile flags: /Ogsp
;	COMDAT ?return_PI@@YAIXZ
_TEXT	SEGMENT
?return_PI@@YAIXZ PROC					; return_PI, COMDAT

; 31   : 	__forceinline unsigned int return_PI() { __asm mov eax,   3141592654 };

  00000	b8 4e e6 40 bb	 mov	 eax, -1153374642	; bb40e64eH
  00005	c3		 ret	 0
?return_PI@@YAIXZ ENDP					; return_PI
_TEXT	ENDS
PUBLIC	_cosf
EXTRN	__fltused:DWORD
EXTRN	__CIcos:PROC
; Function compile flags: /Ogsp
; File c:\program files (x86)\microsoft visual studio 10.0\vc\include\math.h
;	COMDAT _cosf
_TEXT	SEGMENT
tv69 = 8						; size = 4
__X$ = 8						; size = 4
_cosf	PROC						; COMDAT

; 410  :         {return ((float)cos((double)_X)); }

  00000	55		 push	 ebp
  00001	8b ec		 mov	 ebp, esp
  00003	d9 45 08	 fld	 DWORD PTR __X$[ebp]
  00006	e8 00 00 00 00	 call	 __CIcos
  0000b	d9 5d 08	 fstp	 DWORD PTR tv69[ebp]
  0000e	d9 45 08	 fld	 DWORD PTR tv69[ebp]
  00011	5d		 pop	 ebp
  00012	c3		 ret	 0
_cosf	ENDP
_TEXT	ENDS
PUBLIC	?GetIndex@ioBaseChar@@QBEKXZ			; ioBaseChar::GetIndex
; Function compile flags: /Ogsp
; File d:\lost saga for developer\youtube\tutorial\source\src\lsclient\iobasechar.h
;	COMDAT ?GetIndex@ioBaseChar@@QBEKXZ
_TEXT	SEGMENT
?GetIndex@ioBaseChar@@QBEKXZ PROC			; ioBaseChar::GetIndex, COMDAT
; _this$ = ecx

; 2591 : 	inline DWORD GetIndex() const { return m_dwIndex; }

  00000	8b 81 c8 02 00
	00		 mov	 eax, DWORD PTR [ecx+712]
  00006	c3		 ret	 0
?GetIndex@ioBaseChar@@QBEKXZ ENDP			; ioBaseChar::GetIndex
_TEXT	ENDS
PUBLIC	_sinf
EXTRN	__CIsin:PROC
; Function compile flags: /Ogsp
; File c:\program files (x86)\microsoft visual studio 10.0\vc\include\math.h
;	COMDAT _sinf
_TEXT	SEGMENT
tv69 = 8						; size = 4
__X$ = 8						; size = 4
_sinf	PROC						; COMDAT

; 430  :         {return ((float)sin((double)_X)); }

  00000	55		 push	 ebp
  00001	8b ec		 mov	 ebp, esp
  00003	d9 45 08	 fld	 DWORD PTR __X$[ebp]
  00006	e8 00 00 00 00	 call	 __CIsin
  0000b	d9 5d 08	 fstp	 DWORD PTR tv69[ebp]
  0000e	d9 45 08	 fld	 DWORD PTR tv69[ebp]
  00011	5d		 pop	 ebp
  00012	c3		 ret	 0
_sinf	ENDP
_TEXT	ENDS
PUBLIC	?cos@@YAMM@Z					; cos
; Function compile flags: /Ogsp
;	COMDAT ?cos@@YAMM@Z
_TEXT	SEGMENT
tv73 = 8						; size = 4
__X$ = 8						; size = 4
?cos@@YAMM@Z PROC					; cos, COMDAT

; 512  :         {return (cosf(_X)); }

  00000	55		 push	 ebp
  00001	8b ec		 mov	 ebp, esp
  00003	d9 45 08	 fld	 DWORD PTR __X$[ebp]
  00006	e8 00 00 00 00	 call	 __CIcos
  0000b	d9 5d 08	 fstp	 DWORD PTR tv73[ebp]
  0000e	d9 45 08	 fld	 DWORD PTR tv73[ebp]
  00011	5d		 pop	 ebp
  00012	c3		 ret	 0
?cos@@YAMM@Z ENDP					; cos
_TEXT	ENDS
PUBLIC	?sin@@YAMM@Z					; sin
; Function compile flags: /Ogsp
;	COMDAT ?sin@@YAMM@Z
_TEXT	SEGMENT
tv73 = 8						; size = 4
__X$ = 8						; size = 4
?sin@@YAMM@Z PROC					; sin, COMDAT

; 538  :         {return (sinf(_X)); }

  00000	55		 push	 ebp
  00001	8b ec		 mov	 ebp, esp
  00003	d9 45 08	 fld	 DWORD PTR __X$[ebp]
  00006	e8 00 00 00 00	 call	 __CIsin
  0000b	d9 5d 08	 fstp	 DWORD PTR tv73[ebp]
  0000e	d9 45 08	 fld	 DWORD PTR tv73[ebp]
  00011	5d		 pop	 ebp
  00012	c3		 ret	 0
?sin@@YAMM@Z ENDP					; sin
_TEXT	ENDS
PUBLIC	?GetSelectCharArray@ioBaseChar@@QBEHXZ		; ioBaseChar::GetSelectCharArray
; Function compile flags: /Ogsp
; File d:\lost saga for developer\youtube\tutorial\source\src\lsclient\iobasechar.h
;	COMDAT ?GetSelectCharArray@ioBaseChar@@QBEHXZ
_TEXT	SEGMENT
?GetSelectCharArray@ioBaseChar@@QBEHXZ PROC		; ioBaseChar::GetSelectCharArray, COMDAT
; _this$ = ecx

; 2851 : 	int  GetSelectCharArray() const { return m_iSelectCharArray; }

  00000	8b 81 24 03 00
	00		 mov	 eax, DWORD PTR [ecx+804]
  00006	c3		 ret	 0
?GetSelectCharArray@ioBaseChar@@QBEHXZ ENDP		; ioBaseChar::GetSelectCharArray
_TEXT	ENDS
PUBLIC	??_7bad_alloc@std@@6B@				; std::bad_alloc::`vftable'
PUBLIC	??0bad_alloc@std@@QAE@PBD@Z			; std::bad_alloc::bad_alloc
PUBLIC	??_R4bad_alloc@std@@6B@				; std::bad_alloc::`RTTI Complete Object Locator'
PUBLIC	??_R0?AVbad_alloc@std@@@8			; std::bad_alloc `RTTI Type Descriptor'
PUBLIC	??_R3bad_alloc@std@@8				; std::bad_alloc::`RTTI Class Hierarchy Descriptor'
PUBLIC	??_R2bad_alloc@std@@8				; std::bad_alloc::`RTTI Base Class Array'
PUBLIC	??_R1A@?0A@EA@bad_alloc@std@@8			; std::bad_alloc::`RTTI Base Class Descriptor at (0,-1,0,64)'
PUBLIC	??_R1A@?0A@EA@exception@std@@8			; std::exception::`RTTI Base Class Descriptor at (0,-1,0,64)'
PUBLIC	??_R0?AVexception@std@@@8			; std::exception `RTTI Type Descriptor'
PUBLIC	??_R3exception@std@@8				; std::exception::`RTTI Class Hierarchy Descriptor'
PUBLIC	??_R2exception@std@@8				; std::exception::`RTTI Base Class Array'
EXTRN	__imp_??0exception@std@@QAE@ABQBD@Z:PROC
EXTRN	??_7type_info@@6B@:QWORD			; type_info::`vftable'
EXTRN	??_Ebad_alloc@std@@UAEPAXI@Z:PROC		; std::bad_alloc::`vector deleting destructor'
EXTRN	?what@exception@std@@UBEPBDXZ:PROC		; std::exception::what
;	COMDAT ??_R2exception@std@@8
; File c:\program files (x86)\microsoft visual studio 10.0\vc\include\exception
rdata$r	SEGMENT
??_R2exception@std@@8 DD FLAT:??_R1A@?0A@EA@exception@std@@8 ; std::exception::`RTTI Base Class Array'
rdata$r	ENDS
;	COMDAT ??_R3exception@std@@8
rdata$r	SEGMENT
??_R3exception@std@@8 DD 00H				; std::exception::`RTTI Class Hierarchy Descriptor'
	DD	00H
	DD	01H
	DD	FLAT:??_R2exception@std@@8
rdata$r	ENDS
;	COMDAT ??_R0?AVexception@std@@@8
_DATA	SEGMENT
??_R0?AVexception@std@@@8 DD FLAT:??_7type_info@@6B@	; std::exception `RTTI Type Descriptor'
	DD	00H
	DB	'.?AVexception@std@@', 00H
_DATA	ENDS
;	COMDAT ??_R1A@?0A@EA@exception@std@@8
rdata$r	SEGMENT
??_R1A@?0A@EA@exception@std@@8 DD FLAT:??_R0?AVexception@std@@@8 ; std::exception::`RTTI Base Class Descriptor at (0,-1,0,64)'
	DD	00H
	DD	00H
	DD	0ffffffffH
	DD	00H
	DD	040H
	DD	FLAT:??_R3exception@std@@8
rdata$r	ENDS
;	COMDAT ??_R1A@?0A@EA@bad_alloc@std@@8
rdata$r	SEGMENT
??_R1A@?0A@EA@bad_alloc@std@@8 DD FLAT:??_R0?AVbad_alloc@std@@@8 ; std::bad_alloc::`RTTI Base Class Descriptor at (0,-1,0,64)'
	DD	01H
	DD	00H
	DD	0ffffffffH
	DD	00H
	DD	040H
	DD	FLAT:??_R3bad_alloc@std@@8
rdata$r	ENDS
;	COMDAT ??_R2bad_alloc@std@@8
rdata$r	SEGMENT
??_R2bad_alloc@std@@8 DD FLAT:??_R1A@?0A@EA@bad_alloc@std@@8 ; std::bad_alloc::`RTTI Base Class Array'
	DD	FLAT:??_R1A@?0A@EA@exception@std@@8
rdata$r	ENDS
;	COMDAT ??_R3bad_alloc@std@@8
rdata$r	SEGMENT
??_R3bad_alloc@std@@8 DD 00H				; std::bad_alloc::`RTTI Class Hierarchy Descriptor'
	DD	00H
	DD	02H
	DD	FLAT:??_R2bad_alloc@std@@8
rdata$r	ENDS
;	COMDAT ??_R0?AVbad_alloc@std@@@8
_DATA	SEGMENT
??_R0?AVbad_alloc@std@@@8 DD FLAT:??_7type_info@@6B@	; std::bad_alloc `RTTI Type Descriptor'
	DD	00H
	DB	'.?AVbad_alloc@std@@', 00H
_DATA	ENDS
;	COMDAT ??_R4bad_alloc@std@@6B@
rdata$r	SEGMENT
??_R4bad_alloc@std@@6B@ DD 00H				; std::bad_alloc::`RTTI Complete Object Locator'
	DD	00H
	DD	00H
	DD	FLAT:??_R0?AVbad_alloc@std@@@8
	DD	FLAT:??_R3bad_alloc@std@@8
rdata$r	ENDS
;	COMDAT ??_7bad_alloc@std@@6B@
CONST	SEGMENT
??_7bad_alloc@std@@6B@ DD FLAT:??_R4bad_alloc@std@@6B@	; std::bad_alloc::`vftable'
	DD	FLAT:??_Ebad_alloc@std@@UAEPAXI@Z
	DD	FLAT:?what@exception@std@@UBEPBDXZ
; Function compile flags: /Ogsp
CONST	ENDS
;	COMDAT ??0bad_alloc@std@@QAE@PBD@Z
_TEXT	SEGMENT
__Message$ = 8						; size = 4
??0bad_alloc@std@@QAE@PBD@Z PROC			; std::bad_alloc::bad_alloc, COMDAT
; _this$ = ecx

; 345  : 		{	// construct from message string

  00000	55		 push	 ebp
  00001	8b ec		 mov	 ebp, esp
  00003	56		 push	 esi
  00004	8d 45 08	 lea	 eax, DWORD PTR __Message$[ebp]
  00007	50		 push	 eax
  00008	8b f1		 mov	 esi, ecx
  0000a	ff 15 00 00 00
	00		 call	 DWORD PTR __imp_??0exception@std@@QAE@ABQBD@Z
  00010	c7 06 00 00 00
	00		 mov	 DWORD PTR [esi], OFFSET ??_7bad_alloc@std@@6B@

; 346  : 		}

  00016	8b c6		 mov	 eax, esi
  00018	5e		 pop	 esi
  00019	5d		 pop	 ebp
  0001a	c2 04 00	 ret	 4
??0bad_alloc@std@@QAE@PBD@Z ENDP			; std::bad_alloc::bad_alloc
_TEXT	ENDS
PUBLIC	??1bad_alloc@std@@UAE@XZ			; std::bad_alloc::~bad_alloc
EXTRN	__imp_??1exception@std@@UAE@XZ:PROC
; Function compile flags: /Ogsp
;	COMDAT ??1bad_alloc@std@@UAE@XZ
_TEXT	SEGMENT
??1bad_alloc@std@@UAE@XZ PROC				; std::bad_alloc::~bad_alloc, COMDAT
; _this$ = ecx

; 354  : 		{	// destroy the object

  00000	c7 01 00 00 00
	00		 mov	 DWORD PTR [ecx], OFFSET ??_7bad_alloc@std@@6B@

; 355  : 		}

  00006	ff 25 00 00 00
	00		 jmp	 DWORD PTR __imp_??1exception@std@@UAE@XZ
??1bad_alloc@std@@UAE@XZ ENDP				; std::bad_alloc::~bad_alloc
_TEXT	ENDS
EXTRN	??3@YAXPAX@Z:PROC				; operator delete
; Function compile flags: /Ogsp
;	COMDAT ??_Gbad_alloc@std@@UAEPAXI@Z
_TEXT	SEGMENT
___flags$ = 8						; size = 4
??_Gbad_alloc@std@@UAEPAXI@Z PROC			; std::bad_alloc::`scalar deleting destructor', COMDAT
; _this$ = ecx
  00000	55		 push	 ebp
  00001	8b ec		 mov	 ebp, esp
  00003	56		 push	 esi
  00004	8b f1		 mov	 esi, ecx
  00006	c7 06 00 00 00
	00		 mov	 DWORD PTR [esi], OFFSET ??_7bad_alloc@std@@6B@
  0000c	ff 15 00 00 00
	00		 call	 DWORD PTR __imp_??1exception@std@@UAE@XZ
  00012	f6 45 08 01	 test	 BYTE PTR ___flags$[ebp], 1
  00016	74 07		 je	 SHORT $LN1@scalar
  00018	56		 push	 esi
  00019	e8 00 00 00 00	 call	 ??3@YAXPAX@Z		; operator delete
  0001e	59		 pop	 ecx
$LN1@scalar:
  0001f	8b c6		 mov	 eax, esi
  00021	5e		 pop	 esi
  00022	5d		 pop	 ebp
  00023	c2 04 00	 ret	 4
??_Gbad_alloc@std@@UAEPAXI@Z ENDP			; std::bad_alloc::`scalar deleting destructor'
_TEXT	ENDS
PUBLIC	??2@YAPAXIPAX@Z					; operator new
; Function compile flags: /Ogsp
; File c:\program files (x86)\microsoft visual studio 10.0\vc\include\new
;	COMDAT ??2@YAPAXIPAX@Z
_TEXT	SEGMENT
___formal$ = 8						; size = 4
__Where$ = 12						; size = 4
??2@YAPAXIPAX@Z PROC					; operator new, COMDAT

; 56   : 	{	// construct array with placement at _Where

  00000	55		 push	 ebp
  00001	8b ec		 mov	 ebp, esp

; 57   : 	return (_Where);

  00003	8b 45 0c	 mov	 eax, DWORD PTR __Where$[ebp]

; 58   : 	}

  00006	5d		 pop	 ebp
  00007	c3		 ret	 0
??2@YAPAXIPAX@Z ENDP					; operator new
_TEXT	ENDS
PUBLIC	??3@YAXPAX0@Z					; operator delete
; Function compile flags: /Ogsp
;	COMDAT ??3@YAXPAX0@Z
_TEXT	SEGMENT
___formal$ = 8						; size = 4
___formal$ = 12						; size = 4
??3@YAXPAX0@Z PROC					; operator delete, COMDAT

; 62   : 	}

  00000	c3		 ret	 0
??3@YAXPAX0@Z ENDP					; operator delete
_TEXT	ENDS
PUBLIC	?_Adopt@_Iterator_base0@std@@QAEXPBX@Z		; std::_Iterator_base0::_Adopt
; Function compile flags: /Ogsp
; File c:\program files (x86)\microsoft visual studio 10.0\vc\include\xutility
;	COMDAT ?_Adopt@_Iterator_base0@std@@QAEXPBX@Z
_TEXT	SEGMENT
___formal$ = 8						; size = 4
?_Adopt@_Iterator_base0@std@@QAEXPBX@Z PROC		; std::_Iterator_base0::_Adopt, COMDAT
; _this$ = ecx

; 49   : 		}

  00000	c2 04 00	 ret	 4
?_Adopt@_Iterator_base0@std@@QAEXPBX@Z ENDP		; std::_Iterator_base0::_Adopt
_TEXT	ENDS
PUBLIC	??0tagShopItemInfo@@QAE@XZ			; tagShopItemInfo::tagShopItemInfo
; Function compile flags: /Ogsp
; File d:\lost saga for developer\youtube\tutorial\source\src\lsclient\gui\soldierexercisewnd.h
;	COMDAT ??0tagShopItemInfo@@QAE@XZ
_TEXT	SEGMENT
??0tagShopItemInfo@@QAE@XZ PROC				; tagShopItemInfo::tagShopItemInfo, COMDAT
; _this$ = ecx

; 26   : 	tagShopItemInfo()

  00000	8b c1		 mov	 eax, ecx

; 27   : 	{
; 28   : 		m_iSetItemIdx  = 0;

  00002	33 c9		 xor	 ecx, ecx
  00004	89 08		 mov	 DWORD PTR [eax], ecx

; 29   : 		m_bCanBuy      = false;

  00006	88 48 04	 mov	 BYTE PTR [eax+4], cl

; 30   : 		m_iPrice       = 0;

  00009	89 48 08	 mov	 DWORD PTR [eax+8], ecx

; 31   : 		m_iGradeLv     = 0;

  0000c	89 48 0c	 mov	 DWORD PTR [eax+12], ecx

; 32   : 		m_iBattleLv    = 0;

  0000f	89 48 10	 mov	 DWORD PTR [eax+16], ecx

; 33   : 		m_iTrainingLv  = 0;

  00012	89 48 14	 mov	 DWORD PTR [eax+20], ecx

; 34   : 		m_iAwardLv     = 0;

  00015	89 48 18	 mov	 DWORD PTR [eax+24], ecx

; 35   : 		m_iMedalLv     = 0;

  00018	89 48 1c	 mov	 DWORD PTR [eax+28], ecx

; 36   : 		m_iPriorityOrder = 999999999; // ORDER_DEFAULT;

  0001b	c7 40 20 ff c9
	9a 3b		 mov	 DWORD PTR [eax+32], 999999999 ; 3b9ac9ffH

; 37   : 		m_dwSetCode      = 0;

  00022	89 48 24	 mov	 DWORD PTR [eax+36], ecx

; 38   : 		m_iShopMarkType  = 0; //SHOP_MARK_TYPE_NONE;

  00025	89 48 28	 mov	 DWORD PTR [eax+40], ecx

; 39   : 	}

  00028	c3		 ret	 0
??0tagShopItemInfo@@QAE@XZ ENDP				; tagShopItemInfo::tagShopItemInfo
_TEXT	ENDS
PUBLIC	??RShopItemInfoSort@@QBE_NABUtagShopItemInfo@@0@Z ; ShopItemInfoSort::operator()
; Function compile flags: /Ogsp
;	COMDAT ??RShopItemInfoSort@@QBE_NABUtagShopItemInfo@@0@Z
_TEXT	SEGMENT
_lhs$ = 8						; size = 4
_rhs$ = 12						; size = 4
??RShopItemInfoSort@@QBE_NABUtagShopItemInfo@@0@Z PROC	; ShopItemInfoSort::operator(), COMDAT
; _this$ = ecx

; 48   : 	{

  00000	55		 push	 ebp
  00001	8b ec		 mov	 ebp, esp

; 49   : 		if( lhs.m_iShopMarkType != 0 /*SHOP_MARK_TYPE_NONE*/ || rhs.m_iShopMarkType != 0 /*SHOP_MARK_TYPE_NONE*/ )

  00003	8b 4d 08	 mov	 ecx, DWORD PTR _lhs$[ebp]
  00006	8b 45 0c	 mov	 eax, DWORD PTR _rhs$[ebp]
  00009	53		 push	 ebx
  0000a	33 db		 xor	 ebx, ebx
  0000c	56		 push	 esi
  0000d	39 59 28	 cmp	 DWORD PTR [ecx+40], ebx
  00010	0f 85 8b 00 00
	00		 jne	 $LN26@operator
  00016	39 58 28	 cmp	 DWORD PTR [eax+40], ebx
  00019	0f 85 82 00 00
	00		 jne	 $LN26@operator

; 53   : 		}
; 54   : 		else if( lhs.m_bCanBuy && rhs.m_bCanBuy )

  0001f	8a 51 04	 mov	 dl, BYTE PTR [ecx+4]
  00022	3a d3		 cmp	 dl, bl
  00024	74 1b		 je	 SHORT $LN31@operator
  00026	38 58 04	 cmp	 BYTE PTR [eax+4], bl
  00029	74 12		 je	 SHORT $LN23@operator
$LN44@operator:

; 55   : 		{
; 56   : 			if( lhs.m_iPrice < rhs.m_iPrice )

  0002b	8b 51 08	 mov	 edx, DWORD PTR [ecx+8]
  0002e	8b 70 08	 mov	 esi, DWORD PTR [eax+8]
  00031	3b d6		 cmp	 edx, esi

; 57   : 				return true;

  00033	7c 74		 jl	 SHORT $LN42@operator

; 58   : 			if( lhs.m_iPrice == rhs.m_iPrice )

  00035	75 57		 jne	 SHORT $LN25@operator

; 59   : 			{
; 60   : 				if( lhs.m_iSetItemIdx < rhs.m_iSetItemIdx )

  00037	8b 09		 mov	 ecx, DWORD PTR [ecx]
  00039	3b 08		 cmp	 ecx, DWORD PTR [eax]

; 61   : 					return true;

  0003b	eb 6a		 jmp	 SHORT $LN43@operator
$LN23@operator:

; 62   : 			}
; 63   : 		}
; 64   : 		else if( !lhs.m_bCanBuy && !rhs.m_bCanBuy )

  0003d	3a d3		 cmp	 dl, bl
  0003f	75 59		 jne	 SHORT $LN34@operator
$LN31@operator:
  00041	38 58 04	 cmp	 BYTE PTR [eax+4], bl
  00044	75 50		 jne	 SHORT $LN18@operator

; 65   : 		{
; 66   : 			if( lhs.m_iPriorityOrder < rhs.m_iPriorityOrder )

  00046	8b 51 20	 mov	 edx, DWORD PTR [ecx+32]
  00049	8b 70 20	 mov	 esi, DWORD PTR [eax+32]
  0004c	3b d6		 cmp	 edx, esi

; 67   : 				return true;

  0004e	7c 59		 jl	 SHORT $LN42@operator

; 68   : 			if( lhs.m_iPriorityOrder == rhs.m_iPriorityOrder )

  00050	75 3c		 jne	 SHORT $LN25@operator

; 69   : 			{
; 70   : 				if( lhs.m_iGradeLv < rhs.m_iGradeLv )

  00052	8b 51 0c	 mov	 edx, DWORD PTR [ecx+12]
  00055	8b 70 0c	 mov	 esi, DWORD PTR [eax+12]
  00058	3b d6		 cmp	 edx, esi

; 71   : 					return true;

  0005a	7c 4d		 jl	 SHORT $LN42@operator

; 72   : 				if( lhs.m_iGradeLv == rhs.m_iGradeLv )

  0005c	75 30		 jne	 SHORT $LN25@operator

; 73   : 				{
; 74   : 					if( lhs.m_iBattleLv < rhs.m_iBattleLv )

  0005e	8b 51 10	 mov	 edx, DWORD PTR [ecx+16]
  00061	8b 70 10	 mov	 esi, DWORD PTR [eax+16]
  00064	3b d6		 cmp	 edx, esi

; 75   : 						return true;

  00066	7c 41		 jl	 SHORT $LN42@operator

; 76   : 					if( lhs.m_iBattleLv == rhs.m_iBattleLv )

  00068	75 24		 jne	 SHORT $LN25@operator

; 77   : 					{
; 78   : 						if( lhs.m_iTrainingLv < rhs.m_iTrainingLv )

  0006a	8b 51 14	 mov	 edx, DWORD PTR [ecx+20]
  0006d	8b 70 14	 mov	 esi, DWORD PTR [eax+20]
  00070	3b d6		 cmp	 edx, esi

; 79   : 							return true;

  00072	7c 35		 jl	 SHORT $LN42@operator

; 80   : 						if( lhs.m_iTrainingLv == rhs.m_iTrainingLv )

  00074	75 18		 jne	 SHORT $LN25@operator

; 81   : 						{
; 82   : 							if( lhs.m_iAwardLv < rhs.m_iAwardLv )

  00076	8b 51 18	 mov	 edx, DWORD PTR [ecx+24]
  00079	8b 70 18	 mov	 esi, DWORD PTR [eax+24]
  0007c	3b d6		 cmp	 edx, esi

; 83   : 								return true;

  0007e	7c 29		 jl	 SHORT $LN42@operator

; 84   : 							if( lhs.m_iAwardLv == rhs.m_iAwardLv )

  00080	75 0c		 jne	 SHORT $LN25@operator

; 85   : 							{
; 86   : 								if( lhs.m_iMedalLv < rhs.m_iMedalLv )

  00082	8b 51 1c	 mov	 edx, DWORD PTR [ecx+28]
  00085	8b 70 1c	 mov	 esi, DWORD PTR [eax+28]
  00088	3b d6		 cmp	 edx, esi

; 87   : 									return true;

  0008a	7c 1d		 jl	 SHORT $LN42@operator

; 88   : 								if( lhs.m_iMedalLv == rhs.m_iMedalLv )

  0008c	74 9d		 je	 SHORT $LN44@operator
$LN25@operator:

; 106  : 
; 107  : 		return false;

  0008e	32 c0		 xor	 al, al
$LN28@operator:
  00090	5e		 pop	 esi
  00091	5b		 pop	 ebx

; 108  : 	}

  00092	5d		 pop	 ebp
  00093	c2 08 00	 ret	 8
$LN18@operator:

; 89   : 								{
; 90   : 									if( lhs.m_iPrice < rhs.m_iPrice )
; 91   : 										return true;
; 92   : 									if( lhs.m_iPrice == rhs.m_iPrice )
; 93   : 									{
; 94   : 										if( lhs.m_iSetItemIdx < rhs.m_iSetItemIdx )
; 95   : 											return true;
; 96   : 									}
; 97   : 								}
; 98   : 							}
; 99   : 						}
; 100  : 					}
; 101  : 				}
; 102  : 			}
; 103  : 		}
; 104  : 		else if( lhs.m_bCanBuy && !rhs.m_bCanBuy )

  00096	3a d3		 cmp	 dl, bl
  00098	74 f4		 je	 SHORT $LN25@operator
$LN34@operator:
  0009a	38 58 04	 cmp	 BYTE PTR [eax+4], bl
  0009d	75 ef		 jne	 SHORT $LN25@operator

; 105  : 			return true;

  0009f	eb 08		 jmp	 SHORT $LN42@operator
$LN26@operator:

; 50   : 		{
; 51   : 			if( lhs.m_iPriorityOrder < rhs.m_iPriorityOrder )

  000a1	8b 49 20	 mov	 ecx, DWORD PTR [ecx+32]
  000a4	3b 48 20	 cmp	 ecx, DWORD PTR [eax+32]
$LN43@operator:
  000a7	7d e5		 jge	 SHORT $LN25@operator
$LN42@operator:

; 52   : 				return true;

  000a9	b0 01		 mov	 al, 1
  000ab	eb e3		 jmp	 SHORT $LN28@operator
??RShopItemInfoSort@@QBE_NABUtagShopItemInfo@@0@Z ENDP	; ShopItemInfoSort::operator()
_TEXT	ENDS
PUBLIC	?GetClassType@SoldierExerciseBtn@@QBEHXZ	; SoldierExerciseBtn::GetClassType
; Function compile flags: /Ogsp
;	COMDAT ?GetClassType@SoldierExerciseBtn@@QBEHXZ
_TEXT	SEGMENT
?GetClassType@SoldierExerciseBtn@@QBEHXZ PROC		; SoldierExerciseBtn::GetClassType, COMDAT
; _this$ = ecx

; 186  : 	int  GetClassType() const { return m_iClassType; }

  00000	8b 81 04 02 00
	00		 mov	 eax, DWORD PTR [ecx+516]
  00006	c3		 ret	 0
?GetClassType@SoldierExerciseBtn@@QBEHXZ ENDP		; SoldierExerciseBtn::GetClassType
_TEXT	ENDS
PUBLIC	?SetClassType@SoldierExerciseBtn@@QAEXH@Z	; SoldierExerciseBtn::SetClassType
; Function compile flags: /Ogsp
;	COMDAT ?SetClassType@SoldierExerciseBtn@@QAEXH@Z
_TEXT	SEGMENT
_iClassType$ = 8					; size = 4
?SetClassType@SoldierExerciseBtn@@QAEXH@Z PROC		; SoldierExerciseBtn::SetClassType, COMDAT
; _this$ = ecx

; 187  : 	void SetClassType(int iClassType) { m_iClassType = iClassType; }

  00000	55		 push	 ebp
  00001	8b ec		 mov	 ebp, esp
  00003	8b 45 08	 mov	 eax, DWORD PTR _iClassType$[ebp]
  00006	89 81 04 02 00
	00		 mov	 DWORD PTR [ecx+516], eax
  0000c	5d		 pop	 ebp
  0000d	c2 04 00	 ret	 4
?SetClassType@SoldierExerciseBtn@@QAEXH@Z ENDP		; SoldierExerciseBtn::SetClassType
_TEXT	ENDS
PUBLIC	?SetMarkType@SoldierExerciseBtn@@QAEXH@Z	; SoldierExerciseBtn::SetMarkType
; Function compile flags: /Ogsp
;	COMDAT ?SetMarkType@SoldierExerciseBtn@@QAEXH@Z
_TEXT	SEGMENT
_iMarkType$ = 8						; size = 4
?SetMarkType@SoldierExerciseBtn@@QAEXH@Z PROC		; SoldierExerciseBtn::SetMarkType, COMDAT
; _this$ = ecx

; 189  : 	void SetMarkType( int iMarkType ) { m_iMarkType = iMarkType; }

  00000	55		 push	 ebp
  00001	8b ec		 mov	 ebp, esp
  00003	8b 45 08	 mov	 eax, DWORD PTR _iMarkType$[ebp]
  00006	89 81 a4 02 00
	00		 mov	 DWORD PTR [ecx+676], eax
  0000c	5d		 pop	 ebp
  0000d	c2 04 00	 ret	 4
?SetMarkType@SoldierExerciseBtn@@QAEXH@Z ENDP		; SoldierExerciseBtn::SetMarkType
_TEXT	ENDS
PUBLIC	?IsSelectWait@SoldierSelectWnd@@QBE_NXZ		; SoldierSelectWnd::IsSelectWait
; Function compile flags: /Ogsp
; File d:\lost saga for developer\youtube\tutorial\source\src\lsclient\gui\soldierselectwnd.h
;	COMDAT ?IsSelectWait@SoldierSelectWnd@@QBE_NXZ
_TEXT	SEGMENT
?IsSelectWait@SoldierSelectWnd@@QBE_NXZ PROC		; SoldierSelectWnd::IsSelectWait, COMDAT
; _this$ = ecx

; 357  : 	inline bool IsSelectWait() const { return ( m_eSoldierWndStyle == SELECT_STYLE ); }

  00000	33 c0		 xor	 eax, eax
  00002	83 b9 bc 01 00
	00 01		 cmp	 DWORD PTR [ecx+444], 1
  00009	0f 94 c0	 sete	 al
  0000c	c3		 ret	 0
?IsSelectWait@SoldierSelectWnd@@QBE_NXZ ENDP		; SoldierSelectWnd::IsSelectWait
_TEXT	ENDS
PUBLIC	??_7SoldierExerciseBtn@@6B@			; SoldierExerciseBtn::`vftable'
PUBLIC	??0SoldierExerciseBtn@@QAE@XZ			; SoldierExerciseBtn::SoldierExerciseBtn
PUBLIC	??_R4SoldierExerciseBtn@@6B@			; SoldierExerciseBtn::`RTTI Complete Object Locator'
PUBLIC	??_R0?AVSoldierExerciseBtn@@@8			; SoldierExerciseBtn `RTTI Type Descriptor'
PUBLIC	??_R3SoldierExerciseBtn@@8			; SoldierExerciseBtn::`RTTI Class Hierarchy Descriptor'
PUBLIC	??_R2SoldierExerciseBtn@@8			; SoldierExerciseBtn::`RTTI Base Class Array'
PUBLIC	??_R1A@?0A@EA@SoldierExerciseBtn@@8		; SoldierExerciseBtn::`RTTI Base Class Descriptor at (0,-1,0,64)'
PUBLIC	??_R1A@?0A@EA@ioButton@@8			; ioButton::`RTTI Base Class Descriptor at (0,-1,0,64)'
PUBLIC	??_R0?AVioButton@@@8				; ioButton `RTTI Type Descriptor'
PUBLIC	??_R3ioButton@@8				; ioButton::`RTTI Class Hierarchy Descriptor'
PUBLIC	??_R2ioButton@@8				; ioButton::`RTTI Base Class Array'
PUBLIC	??_R1A@?0A@EA@ioWnd@@8				; ioWnd::`RTTI Base Class Descriptor at (0,-1,0,64)'
PUBLIC	??_R0?AVioWnd@@@8				; ioWnd `RTTI Type Descriptor'
PUBLIC	??_R3ioWnd@@8					; ioWnd::`RTTI Class Hierarchy Descriptor'
PUBLIC	??_R2ioWnd@@8					; ioWnd::`RTTI Base Class Array'
PUBLIC	?AddRenderImage@SoldierExerciseBtn@@MAEXABVioHashString@@PAVioUIRenderImage@@@Z ; SoldierExerciseBtn::AddRenderImage
PUBLIC	?ParseExtraInfo@SoldierExerciseBtn@@UAEXAAVioXMLElement@@@Z ; SoldierExerciseBtn::ParseExtraInfo
PUBLIC	?OnRender@SoldierExerciseBtn@@MAEXXZ		; SoldierExerciseBtn::OnRender
PUBLIC	?OnProcess@SoldierExerciseBtn@@MAEXM@Z		; SoldierExerciseBtn::OnProcess
PUBLIC	?RenderImageList@SoldierExerciseBtn@@MAEXHHW4UIRenderType@@@Z ; SoldierExerciseBtn::RenderImageList
PUBLIC	?iwm_create@SoldierExerciseBtn@@UAEXXZ		; SoldierExerciseBtn::iwm_create
PUBLIC	?iwm_mouseover@SoldierExerciseBtn@@UAEXABVioMouse@@@Z ; SoldierExerciseBtn::iwm_mouseover
PUBLIC	?iwm_mouseleave@SoldierExerciseBtn@@UAEXABVioMouse@@@Z ; SoldierExerciseBtn::iwm_mouseleave
PUBLIC	?OnDrawNormal@SoldierExerciseBtn@@MAEXHH@Z	; SoldierExerciseBtn::OnDrawNormal
EXTRN	__imp_??1ioButton@@UAE@XZ:PROC
EXTRN	??0FSMStateMgr@@QAE@XZ:PROC			; FSMStateMgr::FSMStateMgr
EXTRN	__imp_??0ioButton@@QAE@XZ:PROC
EXTRN	___CxxFrameHandler3:PROC
EXTRN	@__security_check_cookie@4:PROC
EXTRN	__EH_epilog3:PROC
EXTRN	__EH_prolog3:PROC
EXTRN	?AddRenderFrame@ioButton@@UAEXABVioHashString@@PAVioUIRenderFrame@@@Z:PROC ; ioButton::AddRenderFrame
EXTRN	?AddTooltipHelp@ioWnd@@UAEXABVioHashString@@00@Z:PROC ; ioWnd::AddTooltipHelp
EXTRN	?AddNamedRenderImage@ioWnd@@UAEXABVioHashString@@PAVioUIRenderImage@@@Z:PROC ; ioWnd::AddNamedRenderImage
EXTRN	?RemoveNamedRenderImage@ioWnd@@UAEXABVioHashString@@@Z:PROC ; ioWnd::RemoveNamedRenderImage
EXTRN	?GetNamedRenderImage@ioWnd@@UBEPAVioUIRenderImage@@ABVioHashString@@@Z:PROC ; ioWnd::GetNamedRenderImage
EXTRN	?SetWindowAlpha@ioButton@@UAEXH@Z:PROC		; ioButton::SetWindowAlpha
EXTRN	?SetActive@ioWnd@@UAEXXZ:PROC			; ioWnd::SetActive
EXTRN	?SetInActive@ioWnd@@UAEXXZ:PROC			; ioWnd::SetInActive
EXTRN	?ClearElementImageList@ioWnd@@UAEXXZ:PROC	; ioWnd::ClearElementImageList
EXTRN	?SetSize@ioWnd@@UAEXHH@Z:PROC			; ioWnd::SetSize
EXTRN	?SetPositionToDefault@ioWnd@@UAEXHH_N0@Z:PROC	; ioWnd::SetPositionToDefault
EXTRN	?IsNeedProcess@ioWnd@@UBE_NXZ:PROC		; ioWnd::IsNeedProcess
EXTRN	?IsCanMouseReaction@ioWnd@@UBE_NXZ:PROC		; ioWnd::IsCanMouseReaction
EXTRN	?AddChild@ioWnd@@UAEXPAV1@@Z:PROC		; ioWnd::AddChild
EXTRN	?DeleteChild@ioWnd@@UAEXK@Z:PROC		; ioWnd::DeleteChild
EXTRN	?DeleteAllChild@ioWnd@@UAEXXZ:PROC		; ioWnd::DeleteAllChild
EXTRN	?OnRenderShowAndHide@ioWnd@@MAE_NXZ:PROC	; ioWnd::OnRenderShowAndHide
EXTRN	?OnRenderShowAndHideByDefault@ioWnd@@MAE_NK@Z:PROC ; ioWnd::OnRenderShowAndHideByDefault
EXTRN	?OnRenderShowAndHideByTop@ioWnd@@MAE_NK@Z:PROC	; ioWnd::OnRenderShowAndHideByTop
EXTRN	?OnRenderShowAndHideByDown@ioWnd@@MAE_NK@Z:PROC	; ioWnd::OnRenderShowAndHideByDown
EXTRN	?OnRenderAfterChild@ioWnd@@MAEXXZ:PROC		; ioWnd::OnRenderAfterChild
EXTRN	?OnMouseProcess@ioWnd@@MAEXABVioMouse@@@Z:PROC	; ioWnd::OnMouseProcess
EXTRN	?CheckFrameReSize@ioButton@@MAEXHHHH@Z:PROC	; ioButton::CheckFrameReSize
EXTRN	?iwm_destroy@ioWnd@@UAEXXZ:PROC			; ioWnd::iwm_destroy
EXTRN	?iwm_lbuttondown@ioButton@@UAEXABVioMouse@@@Z:PROC ; ioButton::iwm_lbuttondown
EXTRN	?iwm_lbuttonup@ioButton@@UAEXABVioMouse@@@Z:PROC ; ioButton::iwm_lbuttonup
EXTRN	?iwm_lbuttonDBLCLK@ioButton@@UAEXABVioMouse@@@Z:PROC ; ioButton::iwm_lbuttonDBLCLK
EXTRN	?iwm_rbuttondown@ioButton@@UAEXABVioMouse@@@Z:PROC ; ioButton::iwm_rbuttondown
EXTRN	?iwm_rbuttonup@ioButton@@UAEXABVioMouse@@@Z:PROC ; ioButton::iwm_rbuttonup
EXTRN	?iwm_command@ioWnd@@UAEXPAV1@HK@Z:PROC		; ioWnd::iwm_command
EXTRN	?iwm_mousemove@ioWnd@@UAEXABVioMouse@@@Z:PROC	; ioWnd::iwm_mousemove
EXTRN	?iwm_vscroll@ioWnd@@UAEXKH@Z:PROC		; ioWnd::iwm_vscroll
EXTRN	?iwm_wheel@ioWnd@@UAEXH@Z:PROC			; ioWnd::iwm_wheel
EXTRN	?iwm_show@ioWnd@@UAEXXZ:PROC			; ioWnd::iwm_show
EXTRN	?iwm_hide@ioWnd@@UAEXXZ:PROC			; ioWnd::iwm_hide
EXTRN	?iwm_esc@ioWnd@@UAE_NXZ:PROC			; ioWnd::iwm_esc
EXTRN	?iwm_spacebar@ioWnd@@UAE_NXZ:PROC		; ioWnd::iwm_spacebar
EXTRN	?iwm_gototop@ioWnd@@UAEXXZ:PROC			; ioWnd::iwm_gototop
EXTRN	?iwm_dragenter@ioWnd@@UAE?AW4IWDropEffect@@PAVioDragItem@@ABVioMouse@@@Z:PROC ; ioWnd::iwm_dragenter
EXTRN	?iwm_dragover@ioWnd@@UAE?AW4IWDropEffect@@PAVioDragItem@@ABVioMouse@@@Z:PROC ; ioWnd::iwm_dragover
EXTRN	?iwm_dragleave@ioWnd@@UAEXXZ:PROC		; ioWnd::iwm_dragleave
EXTRN	?iwm_dropitem@ioWnd@@UAE_NPAVioDragItem@@ABVioMouse@@PAV1@@Z:PROC ; ioWnd::iwm_dropitem
EXTRN	?iwm_dropdone@ioWnd@@UAEXPAVioDragItem@@PAV1@_N@Z:PROC ; ioWnd::iwm_dropdone
EXTRN	?IsEXType@ioWnd@@UBE_NXZ:PROC			; ioWnd::IsEXType
EXTRN	?GetWndType@ioButton@@UBEKXZ:PROC		; ioButton::GetWndType
EXTRN	?RenderWnd@ioWnd@@UAEXXZ:PROC			; ioWnd::RenderWnd
EXTRN	?SetIDEX@ioWnd@@UAEXAAK_N@Z:PROC		; ioWnd::SetIDEX
EXTRN	?ParseXML@ioWnd@@UAEXAAVioXMLElement@@@Z:PROC	; ioWnd::ParseXML
EXTRN	?GetHeaderFileName@ioButton@@UAEPBDXZ:PROC	; ioButton::GetHeaderFileName
EXTRN	?GetTemplateName@ioButton@@UAEPBDXZ:PROC	; ioButton::GetTemplateName
EXTRN	?GetDefClassName@ioButton@@UBEPBDXZ:PROC	; ioButton::GetDefClassName
EXTRN	?_Clone@ioButton@@UAEPAVioWnd@@XZ:PROC		; ioButton::_Clone
EXTRN	?Copy@ioButton@@UAEXPAVioWnd@@@Z:PROC		; ioButton::Copy
EXTRN	?Save@ioWnd@@UAE_NAAVioXMLElement@@@Z:PROC	; ioWnd::Save
EXTRN	?SetSaveData@ioButton@@UAEXAAVioXMLElement@@@Z:PROC ; ioButton::SetSaveData
EXTRN	?SetPosX@ioWnd@@UAEXH@Z:PROC			; ioWnd::SetPosX
EXTRN	?SetPosY@ioWnd@@UAEXH@Z:PROC			; ioWnd::SetPosY
EXTRN	?SetWidth@ioWnd@@UAEXH@Z:PROC			; ioWnd::SetWidth
EXTRN	?SetHeight@ioWnd@@UAEXH@Z:PROC			; ioWnd::SetHeight
EXTRN	?GetNumFixedRenderFrame@ioButton@@UBEHXZ:PROC	; ioButton::GetNumFixedRenderFrame
EXTRN	?GetFixedRenderFrameType@ioButton@@UAEPBDH@Z:PROC ; ioButton::GetFixedRenderFrameType
EXTRN	?GetRenderFrame@ioButton@@UAEPAPAVioUIRenderElement@@PBD@Z:PROC ; ioButton::GetRenderFrame
EXTRN	?GetNumFixedRenderImage@ioButton@@UBEHXZ:PROC	; ioButton::GetNumFixedRenderImage
EXTRN	?GetFixedRenderImageType@ioButton@@UAEPBDH@Z:PROC ; ioButton::GetFixedRenderImageType
EXTRN	?GetRenderImage@ioButton@@UAEPAPAVioUIRenderElement@@PBD@Z:PROC ; ioButton::GetRenderImage
EXTRN	?AddEffect@ioWnd@@UAEXABVioHashString@@PAVioUI3DEffectRender@@@Z:PROC ; ioWnd::AddEffect
EXTRN	?GetEffect@ioWnd@@UAEPAVioUI3DEffectRender@@VioHashString@@@Z:PROC ; ioWnd::GetEffect
EXTRN	??_ESoldierExerciseBtn@@UAEPAXI@Z:PROC		; SoldierExerciseBtn::`vector deleting destructor'
EXTRN	?OnDrawOvered@ioButton@@MAEXHH@Z:PROC		; ioButton::OnDrawOvered
EXTRN	?OnDrawOveredAdd@ioButton@@MAEXHH@Z:PROC	; ioButton::OnDrawOveredAdd
EXTRN	?OnDrawPushed@ioButton@@MAEXHH@Z:PROC		; ioButton::OnDrawPushed
EXTRN	?OnDrawDisabled@ioButton@@MAEXHH@Z:PROC		; ioButton::OnDrawDisabled
EXTRN	?OnDrawExDisabledNormal@ioButton@@MAEXHH@Z:PROC	; ioButton::OnDrawExDisabledNormal
EXTRN	?OnDrawExDisabledOvered@ioButton@@MAEXHH@Z:PROC	; ioButton::OnDrawExDisabledOvered
EXTRN	?OnDrawExDisabledPushed@ioButton@@MAEXHH@Z:PROC	; ioButton::OnDrawExDisabledPushed
EXTRN	?OnDrawBack@ioButton@@MAEXHH@Z:PROC		; ioButton::OnDrawBack
EXTRN	?OnDrawNormalList@ioButton@@MAEXHH@Z:PROC	; ioButton::OnDrawNormalList
EXTRN	?OnDrawDisableList@ioButton@@MAEXHH@Z:PROC	; ioButton::OnDrawDisableList
;	COMDAT ??_R2ioWnd@@8
; File d:\lost saga for developer\youtube\tutorial\source\src\lsclient\gui\soldierexercisewnd.cpp
rdata$r	SEGMENT
??_R2ioWnd@@8 DD FLAT:??_R1A@?0A@EA@ioWnd@@8		; ioWnd::`RTTI Base Class Array'
rdata$r	ENDS
;	COMDAT ??_R3ioWnd@@8
rdata$r	SEGMENT
??_R3ioWnd@@8 DD 00H					; ioWnd::`RTTI Class Hierarchy Descriptor'
	DD	00H
	DD	01H
	DD	FLAT:??_R2ioWnd@@8
rdata$r	ENDS
;	COMDAT ??_R0?AVioWnd@@@8
_DATA	SEGMENT
??_R0?AVioWnd@@@8 DD FLAT:??_7type_info@@6B@		; ioWnd `RTTI Type Descriptor'
	DD	00H
	DB	'.?AVioWnd@@', 00H
_DATA	ENDS
;	COMDAT ??_R1A@?0A@EA@ioWnd@@8
rdata$r	SEGMENT
??_R1A@?0A@EA@ioWnd@@8 DD FLAT:??_R0?AVioWnd@@@8	; ioWnd::`RTTI Base Class Descriptor at (0,-1,0,64)'
	DD	00H
	DD	00H
	DD	0ffffffffH
	DD	00H
	DD	040H
	DD	FLAT:??_R3ioWnd@@8
rdata$r	ENDS
;	COMDAT ??_R2ioButton@@8
rdata$r	SEGMENT
??_R2ioButton@@8 DD FLAT:??_R1A@?0A@EA@ioButton@@8	; ioButton::`RTTI Base Class Array'
	DD	FLAT:??_R1A@?0A@EA@ioWnd@@8
rdata$r	ENDS
;	COMDAT ??_R3ioButton@@8
rdata$r	SEGMENT
??_R3ioButton@@8 DD 00H					; ioButton::`RTTI Class Hierarchy Descriptor'
	DD	00H
	DD	02H
	DD	FLAT:??_R2ioButton@@8
rdata$r	ENDS
;	COMDAT ??_R0?AVioButton@@@8
_DATA	SEGMENT
??_R0?AVioButton@@@8 DD FLAT:??_7type_info@@6B@		; ioButton `RTTI Type Descriptor'
	DD	00H
	DB	'.?AVioButton@@', 00H
_DATA	ENDS
;	COMDAT ??_R1A@?0A@EA@ioButton@@8
rdata$r	SEGMENT
??_R1A@?0A@EA@ioButton@@8 DD FLAT:??_R0?AVioButton@@@8	; ioButton::`RTTI Base Class Descriptor at (0,-1,0,64)'
	DD	01H
	DD	00H
	DD	0ffffffffH
	DD	00H
	DD	040H
	DD	FLAT:??_R3ioButton@@8
rdata$r	ENDS
;	COMDAT ??_R1A@?0A@EA@SoldierExerciseBtn@@8
rdata$r	SEGMENT
??_R1A@?0A@EA@SoldierExerciseBtn@@8 DD FLAT:??_R0?AVSoldierExerciseBtn@@@8 ; SoldierExerciseBtn::`RTTI Base Class Descriptor at (0,-1,0,64)'
	DD	02H
	DD	00H
	DD	0ffffffffH
	DD	00H
	DD	040H
	DD	FLAT:??_R3SoldierExerciseBtn@@8
rdata$r	ENDS
;	COMDAT ??_R2SoldierExerciseBtn@@8
rdata$r	SEGMENT
??_R2SoldierExerciseBtn@@8 DD FLAT:??_R1A@?0A@EA@SoldierExerciseBtn@@8 ; SoldierExerciseBtn::`RTTI Base Class Array'
	DD	FLAT:??_R1A@?0A@EA@ioButton@@8
	DD	FLAT:??_R1A@?0A@EA@ioWnd@@8
rdata$r	ENDS
;	COMDAT ??_R3SoldierExerciseBtn@@8
rdata$r	SEGMENT
??_R3SoldierExerciseBtn@@8 DD 00H			; SoldierExerciseBtn::`RTTI Class Hierarchy Descriptor'
	DD	00H
	DD	03H
	DD	FLAT:??_R2SoldierExerciseBtn@@8
rdata$r	ENDS
;	COMDAT ??_R0?AVSoldierExerciseBtn@@@8
_DATA	SEGMENT
??_R0?AVSoldierExerciseBtn@@@8 DD FLAT:??_7type_info@@6B@ ; SoldierExerciseBtn `RTTI Type Descriptor'
	DD	00H
	DB	'.?AVSoldierExerciseBtn@@', 00H
_DATA	ENDS
;	COMDAT ??_R4SoldierExerciseBtn@@6B@
rdata$r	SEGMENT
??_R4SoldierExerciseBtn@@6B@ DD 00H			; SoldierExerciseBtn::`RTTI Complete Object Locator'
	DD	00H
	DD	00H
	DD	FLAT:??_R0?AVSoldierExerciseBtn@@@8
	DD	FLAT:??_R3SoldierExerciseBtn@@8
rdata$r	ENDS
;	COMDAT ??_7SoldierExerciseBtn@@6B@
CONST	SEGMENT
??_7SoldierExerciseBtn@@6B@ DD FLAT:??_R4SoldierExerciseBtn@@6B@ ; SoldierExerciseBtn::`vftable'
	DD	FLAT:?AddRenderFrame@ioButton@@UAEXABVioHashString@@PAVioUIRenderFrame@@@Z
	DD	FLAT:?AddRenderImage@SoldierExerciseBtn@@MAEXABVioHashString@@PAVioUIRenderImage@@@Z
	DD	FLAT:?AddTooltipHelp@ioWnd@@UAEXABVioHashString@@00@Z
	DD	FLAT:?ParseExtraInfo@SoldierExerciseBtn@@UAEXAAVioXMLElement@@@Z
	DD	FLAT:?AddNamedRenderImage@ioWnd@@UAEXABVioHashString@@PAVioUIRenderImage@@@Z
	DD	FLAT:?RemoveNamedRenderImage@ioWnd@@UAEXABVioHashString@@@Z
	DD	FLAT:?GetNamedRenderImage@ioWnd@@UBEPAVioUIRenderImage@@ABVioHashString@@@Z
	DD	FLAT:?SetWindowAlpha@ioButton@@UAEXH@Z
	DD	FLAT:?SetActive@ioWnd@@UAEXXZ
	DD	FLAT:?SetInActive@ioWnd@@UAEXXZ
	DD	FLAT:?ClearElementImageList@ioWnd@@UAEXXZ
	DD	FLAT:?SetSize@ioWnd@@UAEXHH@Z
	DD	FLAT:?SetPositionToDefault@ioWnd@@UAEXHH_N0@Z
	DD	FLAT:?IsNeedProcess@ioWnd@@UBE_NXZ
	DD	FLAT:?IsCanMouseReaction@ioWnd@@UBE_NXZ
	DD	FLAT:?AddChild@ioWnd@@UAEXPAV1@@Z
	DD	FLAT:?DeleteChild@ioWnd@@UAEXK@Z
	DD	FLAT:?DeleteAllChild@ioWnd@@UAEXXZ
	DD	FLAT:?OnRenderShowAndHide@ioWnd@@MAE_NXZ
	DD	FLAT:?OnRenderShowAndHideByDefault@ioWnd@@MAE_NK@Z
	DD	FLAT:?OnRenderShowAndHideByTop@ioWnd@@MAE_NK@Z
	DD	FLAT:?OnRenderShowAndHideByDown@ioWnd@@MAE_NK@Z
	DD	FLAT:?OnRender@SoldierExerciseBtn@@MAEXXZ
	DD	FLAT:?OnRenderAfterChild@ioWnd@@MAEXXZ
	DD	FLAT:?OnProcess@SoldierExerciseBtn@@MAEXM@Z
	DD	FLAT:?OnMouseProcess@ioWnd@@MAEXABVioMouse@@@Z
	DD	FLAT:?CheckFrameReSize@ioButton@@MAEXHHHH@Z
	DD	FLAT:?RenderImageList@SoldierExerciseBtn@@MAEXHHW4UIRenderType@@@Z
	DD	FLAT:?iwm_create@SoldierExerciseBtn@@UAEXXZ
	DD	FLAT:?iwm_destroy@ioWnd@@UAEXXZ
	DD	FLAT:?iwm_lbuttondown@ioButton@@UAEXABVioMouse@@@Z
	DD	FLAT:?iwm_lbuttonup@ioButton@@UAEXABVioMouse@@@Z
	DD	FLAT:?iwm_lbuttonDBLCLK@ioButton@@UAEXABVioMouse@@@Z
	DD	FLAT:?iwm_rbuttondown@ioButton@@UAEXABVioMouse@@@Z
	DD	FLAT:?iwm_rbuttonup@ioButton@@UAEXABVioMouse@@@Z
	DD	FLAT:?iwm_command@ioWnd@@UAEXPAV1@HK@Z
	DD	FLAT:?iwm_mouseover@SoldierExerciseBtn@@UAEXABVioMouse@@@Z
	DD	FLAT:?iwm_mousemove@ioWnd@@UAEXABVioMouse@@@Z
	DD	FLAT:?iwm_mouseleave@SoldierExerciseBtn@@UAEXABVioMouse@@@Z
	DD	FLAT:?iwm_vscroll@ioWnd@@UAEXKH@Z
	DD	FLAT:?iwm_wheel@ioWnd@@UAEXH@Z
	DD	FLAT:?iwm_show@ioWnd@@UAEXXZ
	DD	FLAT:?iwm_hide@ioWnd@@UAEXXZ
	DD	FLAT:?iwm_esc@ioWnd@@UAE_NXZ
	DD	FLAT:?iwm_spacebar@ioWnd@@UAE_NXZ
	DD	FLAT:?iwm_gototop@ioWnd@@UAEXXZ
	DD	FLAT:?iwm_dragenter@ioWnd@@UAE?AW4IWDropEffect@@PAVioDragItem@@ABVioMouse@@@Z
	DD	FLAT:?iwm_dragover@ioWnd@@UAE?AW4IWDropEffect@@PAVioDragItem@@ABVioMouse@@@Z
	DD	FLAT:?iwm_dragleave@ioWnd@@UAEXXZ
	DD	FLAT:?iwm_dropitem@ioWnd@@UAE_NPAVioDragItem@@ABVioMouse@@PAV1@@Z
	DD	FLAT:?iwm_dropdone@ioWnd@@UAEXPAVioDragItem@@PAV1@_N@Z
	DD	FLAT:?IsEXType@ioWnd@@UBE_NXZ
	DD	FLAT:?GetWndType@ioButton@@UBEKXZ
	DD	FLAT:?RenderWnd@ioWnd@@UAEXXZ
	DD	FLAT:?SetIDEX@ioWnd@@UAEXAAK_N@Z
	DD	FLAT:?ParseXML@ioWnd@@UAEXAAVioXMLElement@@@Z
	DD	FLAT:?GetHeaderFileName@ioButton@@UAEPBDXZ
	DD	FLAT:?GetTemplateName@ioButton@@UAEPBDXZ
	DD	FLAT:?GetDefClassName@ioButton@@UBEPBDXZ
	DD	FLAT:?_Clone@ioButton@@UAEPAVioWnd@@XZ
	DD	FLAT:?Copy@ioButton@@UAEXPAVioWnd@@@Z
	DD	FLAT:?Save@ioWnd@@UAE_NAAVioXMLElement@@@Z
	DD	FLAT:?SetSaveData@ioButton@@UAEXAAVioXMLElement@@@Z
	DD	FLAT:?SetPosX@ioWnd@@UAEXH@Z
	DD	FLAT:?SetPosY@ioWnd@@UAEXH@Z
	DD	FLAT:?SetWidth@ioWnd@@UAEXH@Z
	DD	FLAT:?SetHeight@ioWnd@@UAEXH@Z
	DD	FLAT:?GetNumFixedRenderFrame@ioButton@@UBEHXZ
	DD	FLAT:?GetFixedRenderFrameType@ioButton@@UAEPBDH@Z
	DD	FLAT:?GetRenderFrame@ioButton@@UAEPAPAVioUIRenderElement@@PBD@Z
	DD	FLAT:?GetNumFixedRenderImage@ioButton@@UBEHXZ
	DD	FLAT:?GetFixedRenderImageType@ioButton@@UAEPBDH@Z
	DD	FLAT:?GetRenderImage@ioButton@@UAEPAPAVioUIRenderElement@@PBD@Z
	DD	FLAT:?AddEffect@ioWnd@@UAEXABVioHashString@@PAVioUI3DEffectRender@@@Z
	DD	FLAT:?GetEffect@ioWnd@@UAEPAVioUI3DEffectRender@@VioHashString@@@Z
	DD	FLAT:??_ESoldierExerciseBtn@@UAEPAXI@Z
	DD	FLAT:?OnDrawNormal@SoldierExerciseBtn@@MAEXHH@Z
	DD	FLAT:?OnDrawOvered@ioButton@@MAEXHH@Z
	DD	FLAT:?OnDrawOveredAdd@ioButton@@MAEXHH@Z
	DD	FLAT:?OnDrawPushed@ioButton@@MAEXHH@Z
	DD	FLAT:?OnDrawDisabled@ioButton@@MAEXHH@Z
	DD	FLAT:?OnDrawExDisabledNormal@ioButton@@MAEXHH@Z
	DD	FLAT:?OnDrawExDisabledOvered@ioButton@@MAEXHH@Z
	DD	FLAT:?OnDrawExDisabledPushed@ioButton@@MAEXHH@Z
	DD	FLAT:?OnDrawBack@ioButton@@MAEXHH@Z
	DD	FLAT:?OnDrawNormalList@ioButton@@MAEXHH@Z
	DD	FLAT:?OnDrawDisableList@ioButton@@MAEXHH@Z
CONST	ENDS
;	COMDAT xdata$x
xdata$x	SEGMENT
__unwindtable$??0SoldierExerciseBtn@@QAE@XZ DD 0ffffffffH
	DD	FLAT:__unwindfunclet$??0SoldierExerciseBtn@@QAE@XZ$0
__ehfuncinfo$??0SoldierExerciseBtn@@QAE@XZ DD 019930522H
	DD	01H
	DD	FLAT:__unwindtable$??0SoldierExerciseBtn@@QAE@XZ
	DD	2 DUP(00H)
	DD	2 DUP(00H)
	DD	00H
	DD	01H
; Function compile flags: /Ogsp
xdata$x	ENDS
;	COMDAT ??0SoldierExerciseBtn@@QAE@XZ
_TEXT	SEGMENT
_this$ = -16						; size = 4
__$EHRec$ = -12						; size = 12
??0SoldierExerciseBtn@@QAE@XZ PROC			; SoldierExerciseBtn::SoldierExerciseBtn, COMDAT
; _this$ = ecx

; 87   : {

  00000	6a 04		 push	 4
  00002	b8 00 00 00 00	 mov	 eax, __ehhandler$??0SoldierExerciseBtn@@QAE@XZ
  00007	e8 00 00 00 00	 call	 __EH_prolog3
  0000c	8b f1		 mov	 esi, ecx
  0000e	89 75 f0	 mov	 DWORD PTR _this$[ebp], esi
  00011	ff 15 00 00 00
	00		 call	 DWORD PTR __imp_??0ioButton@@QAE@XZ
  00017	33 db		 xor	 ebx, ebx
  00019	8d 8e 1c 02 00
	00		 lea	 ecx, DWORD PTR [esi+540]
  0001f	89 5d fc	 mov	 DWORD PTR __$EHRec$[ebp+8], ebx
  00022	c7 06 00 00 00
	00		 mov	 DWORD PTR [esi], OFFSET ??_7SoldierExerciseBtn@@6B@
  00028	e8 00 00 00 00	 call	 ??0FSMStateMgr@@QAE@XZ	; FSMStateMgr::FSMStateMgr

; 88   : 	m_bForceOver   = false;
; 89   : 	m_eBoughtType  = SBT_NONE;
; 90   : 	m_iClassType   = -1;

  0002d	83 8e 04 02 00
	00 ff		 or	 DWORD PTR [esi+516], -1

; 91   : 	m_iNeedLevel = -1;

  00034	83 8e 08 02 00
	00 ff		 or	 DWORD PTR [esi+520], -1

; 92   : 	m_pLock		   = NULL;
; 93   : 
; 94   : 	m_pArrow	  = NULL;
; 95   : 	m_bArrow      = false;
; 96   : 	m_iDownHeight = 0;
; 97   : 
; 98   : 	m_bScreenAction = false;
; 99   : 	m_bScreenSoldier= false;
; 100  : 	m_dwScreenTime  = 500;
; 101  : 	m_dwScreenStartTime = 0;
; 102  : 
; 103  : 	m_eNeedLevelType    = ioSetItemInfo::NLT_NONE;

  0003b	83 8e 50 02 00
	00 ff		 or	 DWORD PTR [esi+592], -1
  00042	88 9e fc 01 00
	00		 mov	 BYTE PTR [esi+508], bl
  00048	89 9e 00 02 00
	00		 mov	 DWORD PTR [esi+512], ebx
  0004e	89 9e 0c 02 00
	00		 mov	 DWORD PTR [esi+524], ebx
  00054	89 9e 18 02 00
	00		 mov	 DWORD PTR [esi+536], ebx
  0005a	88 9e 10 02 00
	00		 mov	 BYTE PTR [esi+528], bl
  00060	89 9e 14 02 00
	00		 mov	 DWORD PTR [esi+532], ebx
  00066	66 89 9e 44 02
	00 00		 mov	 WORD PTR [esi+580], bx
  0006d	c7 86 48 02 00
	00 f4 01 00 00	 mov	 DWORD PTR [esi+584], 500 ; 000001f4H
  00077	89 9e 4c 02 00
	00		 mov	 DWORD PTR [esi+588], ebx

; 104  : 	m_pSoldierIcon      = NULL;

  0007d	89 9e 54 02 00
	00		 mov	 DWORD PTR [esi+596], ebx

; 105  : 	m_pLockNum          = NULL;

  00083	89 9e 58 02 00
	00		 mov	 DWORD PTR [esi+600], ebx

; 106  : 	m_pLockBattleMark   = NULL;

  00089	89 9e 5c 02 00
	00		 mov	 DWORD PTR [esi+604], ebx

; 107  : 	m_pLockMedalMark	= NULL;

  0008f	89 9e 60 02 00
	00		 mov	 DWORD PTR [esi+608], ebx

; 108  : 	m_pLockAwardMark    = NULL;

  00095	89 9e 64 02 00
	00		 mov	 DWORD PTR [esi+612], ebx

; 109  : 	m_pBoughtType		= NULL;

  0009b	89 9e 68 02 00
	00		 mov	 DWORD PTR [esi+616], ebx

; 110  : 	m_pExerciseGeneral  = NULL;

  000a1	89 9e 6c 02 00
	00		 mov	 DWORD PTR [esi+620], ebx

; 111  : 	m_pExercisePcroom   = NULL;

  000a7	89 9e 70 02 00
	00		 mov	 DWORD PTR [esi+624], ebx

; 112  : 	m_pExerciseEvent    = NULL;

  000ad	89 9e 74 02 00
	00		 mov	 DWORD PTR [esi+628], ebx

; 113  : 	m_pNewMark          = NULL;

  000b3	89 9e 78 02 00
	00		 mov	 DWORD PTR [esi+632], ebx

; 114  : 	m_pNewEffect        = NULL;

  000b9	89 9e 7c 02 00
	00		 mov	 DWORD PTR [esi+636], ebx

; 115  : 	m_pHitMark          = NULL;

  000bf	89 9e 80 02 00
	00		 mov	 DWORD PTR [esi+640], ebx

; 116  : 	m_pHitEffect        = NULL;

  000c5	89 9e 84 02 00
	00		 mov	 DWORD PTR [esi+644], ebx

; 117  : 	m_pSaleMark          = NULL;

  000cb	89 9e 88 02 00
	00		 mov	 DWORD PTR [esi+648], ebx

; 118  : 	m_pSaleEffect        = NULL;

  000d1	89 9e 8c 02 00
	00		 mov	 DWORD PTR [esi+652], ebx

; 119  : 	m_pEventMark         = NULL;

  000d7	89 9e 90 02 00
	00		 mov	 DWORD PTR [esi+656], ebx

; 120  : 	m_pEventEffect       = NULL;

  000dd	89 9e 94 02 00
	00		 mov	 DWORD PTR [esi+660], ebx

; 121  : 	m_pIconBack          = NULL;

  000e3	89 9e 98 02 00
	00		 mov	 DWORD PTR [esi+664], ebx

; 122  : 
; 123  : 	m_dwNewEffectWaitTime = 0;

  000e9	89 9e 9c 02 00
	00		 mov	 DWORD PTR [esi+668], ebx

; 124  : 	m_dwNewEffectCurTime  = 0;

  000ef	89 9e a0 02 00
	00		 mov	 DWORD PTR [esi+672], ebx

; 125  : 	m_iMarkType           = 0; // ORDER_DEFAULT

  000f5	89 9e a4 02 00
	00		 mov	 DWORD PTR [esi+676], ebx

; 126  : 	m_bMarkEffect         = false;

  000fb	88 9e a8 02 00
	00		 mov	 BYTE PTR [esi+680], bl

; 127  : }

  00101	8b c6		 mov	 eax, esi
  00103	e8 00 00 00 00	 call	 __EH_epilog3
  00108	c3		 ret	 0
_TEXT	ENDS
;	COMDAT text$x
text$x	SEGMENT
__unwindfunclet$??0SoldierExerciseBtn@@QAE@XZ$0:
  00000	8b 4d f0	 mov	 ecx, DWORD PTR _this$[ebp]
  00003	ff 25 00 00 00
	00		 jmp	 DWORD PTR __imp_??1ioButton@@UAE@XZ
__ehhandler$??0SoldierExerciseBtn@@QAE@XZ:
  00009	8b 54 24 08	 mov	 edx, DWORD PTR [esp+8]
  0000d	8d 42 0c	 lea	 eax, DWORD PTR [edx+12]
  00010	8b 4a ec	 mov	 ecx, DWORD PTR [edx-20]
  00013	33 c8		 xor	 ecx, eax
  00015	e8 00 00 00 00	 call	 @__security_check_cookie@4
  0001a	b8 00 00 00 00	 mov	 eax, OFFSET __ehfuncinfo$??0SoldierExerciseBtn@@QAE@XZ
  0001f	e9 00 00 00 00	 jmp	 ___CxxFrameHandler3
text$x	ENDS
??0SoldierExerciseBtn@@QAE@XZ ENDP			; SoldierExerciseBtn::SoldierExerciseBtn
PUBLIC	??1SoldierExerciseBtn@@UAE@XZ			; SoldierExerciseBtn::~SoldierExerciseBtn
EXTRN	??1FSMStateMgr@@UAE@XZ:PROC			; FSMStateMgr::~FSMStateMgr
;	COMDAT xdata$x
xdata$x	SEGMENT
__unwindtable$??1SoldierExerciseBtn@@UAE@XZ DD 0ffffffffH
	DD	FLAT:__unwindfunclet$??1SoldierExerciseBtn@@UAE@XZ$0
	DD	00H
	DD	FLAT:__unwindfunclet$??1SoldierExerciseBtn@@UAE@XZ$1
__ehfuncinfo$??1SoldierExerciseBtn@@UAE@XZ DD 019930522H
	DD	02H
	DD	FLAT:__unwindtable$??1SoldierExerciseBtn@@UAE@XZ
	DD	2 DUP(00H)
	DD	2 DUP(00H)
	DD	00H
	DD	01H
; Function compile flags: /Ogsp
xdata$x	ENDS
;	COMDAT ??1SoldierExerciseBtn@@UAE@XZ
_TEXT	SEGMENT
_this$ = -16						; size = 4
__$EHRec$ = -12						; size = 12
??1SoldierExerciseBtn@@UAE@XZ PROC			; SoldierExerciseBtn::~SoldierExerciseBtn, COMDAT
; _this$ = ecx

; 130  : {

  00000	6a 04		 push	 4
  00002	b8 00 00 00 00	 mov	 eax, __ehhandler$??1SoldierExerciseBtn@@UAE@XZ
  00007	e8 00 00 00 00	 call	 __EH_prolog3
  0000c	8b f1		 mov	 esi, ecx
  0000e	89 75 f0	 mov	 DWORD PTR _this$[ebp], esi
  00011	c7 06 00 00 00
	00		 mov	 DWORD PTR [esi], OFFSET ??_7SoldierExerciseBtn@@6B@

; 131  : 	SAFEDELETE( m_pSoldierIcon );

  00017	8b 8e 54 02 00
	00		 mov	 ecx, DWORD PTR [esi+596]
  0001d	33 c0		 xor	 eax, eax
  0001f	40		 inc	 eax
  00020	33 db		 xor	 ebx, ebx
  00022	89 45 fc	 mov	 DWORD PTR __$EHRec$[ebp+8], eax
  00025	3b cb		 cmp	 ecx, ebx
  00027	74 0c		 je	 SHORT $LN20@SoldierExe
  00029	8b 11		 mov	 edx, DWORD PTR [ecx]
  0002b	50		 push	 eax
  0002c	ff 52 40	 call	 DWORD PTR [edx+64]
  0002f	89 9e 54 02 00
	00		 mov	 DWORD PTR [esi+596], ebx
$LN20@SoldierExe:

; 132  : 	SAFEDELETE( m_pLock );

  00035	8b 8e 0c 02 00
	00		 mov	 ecx, DWORD PTR [esi+524]
  0003b	3b cb		 cmp	 ecx, ebx
  0003d	74 0d		 je	 SHORT $LN19@SoldierExe
  0003f	8b 01		 mov	 eax, DWORD PTR [ecx]
  00041	6a 01		 push	 1
  00043	ff 50 40	 call	 DWORD PTR [eax+64]
  00046	89 9e 0c 02 00
	00		 mov	 DWORD PTR [esi+524], ebx
$LN19@SoldierExe:

; 133  : 	SAFEDELETE( m_pArrow );

  0004c	8b 8e 18 02 00
	00		 mov	 ecx, DWORD PTR [esi+536]
  00052	3b cb		 cmp	 ecx, ebx
  00054	74 0d		 je	 SHORT $LN18@SoldierExe
  00056	8b 01		 mov	 eax, DWORD PTR [ecx]
  00058	6a 01		 push	 1
  0005a	ff 50 40	 call	 DWORD PTR [eax+64]
  0005d	89 9e 18 02 00
	00		 mov	 DWORD PTR [esi+536], ebx
$LN18@SoldierExe:

; 134  : 
; 135  : 	SAFEDELETE( m_pLockNum );

  00063	8b 8e 58 02 00
	00		 mov	 ecx, DWORD PTR [esi+600]
  00069	3b cb		 cmp	 ecx, ebx
  0006b	74 0d		 je	 SHORT $LN17@SoldierExe
  0006d	8b 01		 mov	 eax, DWORD PTR [ecx]
  0006f	6a 01		 push	 1
  00071	ff 50 40	 call	 DWORD PTR [eax+64]
  00074	89 9e 58 02 00
	00		 mov	 DWORD PTR [esi+600], ebx
$LN17@SoldierExe:

; 136  : 	SAFEDELETE( m_pLockBattleMark );

  0007a	8b 8e 5c 02 00
	00		 mov	 ecx, DWORD PTR [esi+604]
  00080	3b cb		 cmp	 ecx, ebx
  00082	74 0d		 je	 SHORT $LN16@SoldierExe
  00084	8b 01		 mov	 eax, DWORD PTR [ecx]
  00086	6a 01		 push	 1
  00088	ff 50 40	 call	 DWORD PTR [eax+64]
  0008b	89 9e 5c 02 00
	00		 mov	 DWORD PTR [esi+604], ebx
$LN16@SoldierExe:

; 137  : 	SAFEDELETE( m_pLockMedalMark );

  00091	8b 8e 60 02 00
	00		 mov	 ecx, DWORD PTR [esi+608]
  00097	3b cb		 cmp	 ecx, ebx
  00099	74 0d		 je	 SHORT $LN15@SoldierExe
  0009b	8b 01		 mov	 eax, DWORD PTR [ecx]
  0009d	6a 01		 push	 1
  0009f	ff 50 40	 call	 DWORD PTR [eax+64]
  000a2	89 9e 60 02 00
	00		 mov	 DWORD PTR [esi+608], ebx
$LN15@SoldierExe:

; 138  : 	SAFEDELETE( m_pLockAwardMark );

  000a8	8b 8e 64 02 00
	00		 mov	 ecx, DWORD PTR [esi+612]
  000ae	3b cb		 cmp	 ecx, ebx
  000b0	74 0d		 je	 SHORT $LN14@SoldierExe
  000b2	8b 01		 mov	 eax, DWORD PTR [ecx]
  000b4	6a 01		 push	 1
  000b6	ff 50 40	 call	 DWORD PTR [eax+64]
  000b9	89 9e 64 02 00
	00		 mov	 DWORD PTR [esi+612], ebx
$LN14@SoldierExe:

; 139  : 	SAFEDELETE( m_pBoughtType );

  000bf	8b 8e 68 02 00
	00		 mov	 ecx, DWORD PTR [esi+616]
  000c5	3b cb		 cmp	 ecx, ebx
  000c7	74 0d		 je	 SHORT $LN13@SoldierExe
  000c9	8b 01		 mov	 eax, DWORD PTR [ecx]
  000cb	6a 01		 push	 1
  000cd	ff 50 40	 call	 DWORD PTR [eax+64]
  000d0	89 9e 68 02 00
	00		 mov	 DWORD PTR [esi+616], ebx
$LN13@SoldierExe:

; 140  : 	SAFEDELETE( m_pExerciseGeneral );

  000d6	8b 8e 6c 02 00
	00		 mov	 ecx, DWORD PTR [esi+620]
  000dc	3b cb		 cmp	 ecx, ebx
  000de	74 0d		 je	 SHORT $LN12@SoldierExe
  000e0	8b 01		 mov	 eax, DWORD PTR [ecx]
  000e2	6a 01		 push	 1
  000e4	ff 50 40	 call	 DWORD PTR [eax+64]
  000e7	89 9e 6c 02 00
	00		 mov	 DWORD PTR [esi+620], ebx
$LN12@SoldierExe:

; 141  : 	SAFEDELETE( m_pExercisePcroom );

  000ed	8b 8e 70 02 00
	00		 mov	 ecx, DWORD PTR [esi+624]
  000f3	3b cb		 cmp	 ecx, ebx
  000f5	74 0d		 je	 SHORT $LN11@SoldierExe
  000f7	8b 01		 mov	 eax, DWORD PTR [ecx]
  000f9	6a 01		 push	 1
  000fb	ff 50 40	 call	 DWORD PTR [eax+64]
  000fe	89 9e 70 02 00
	00		 mov	 DWORD PTR [esi+624], ebx
$LN11@SoldierExe:

; 142  : 	SAFEDELETE( m_pExerciseEvent );

  00104	8b 8e 74 02 00
	00		 mov	 ecx, DWORD PTR [esi+628]
  0010a	3b cb		 cmp	 ecx, ebx
  0010c	74 0d		 je	 SHORT $LN10@SoldierExe
  0010e	8b 01		 mov	 eax, DWORD PTR [ecx]
  00110	6a 01		 push	 1
  00112	ff 50 40	 call	 DWORD PTR [eax+64]
  00115	89 9e 74 02 00
	00		 mov	 DWORD PTR [esi+628], ebx
$LN10@SoldierExe:

; 143  : 	SAFEDELETE( m_pNewMark );

  0011b	8b 8e 78 02 00
	00		 mov	 ecx, DWORD PTR [esi+632]
  00121	3b cb		 cmp	 ecx, ebx
  00123	74 0d		 je	 SHORT $LN9@SoldierExe
  00125	8b 01		 mov	 eax, DWORD PTR [ecx]
  00127	6a 01		 push	 1
  00129	ff 50 40	 call	 DWORD PTR [eax+64]
  0012c	89 9e 78 02 00
	00		 mov	 DWORD PTR [esi+632], ebx
$LN9@SoldierExe:

; 144  : 	SAFEDELETE( m_pNewEffect );

  00132	8b 8e 7c 02 00
	00		 mov	 ecx, DWORD PTR [esi+636]
  00138	3b cb		 cmp	 ecx, ebx
  0013a	74 0d		 je	 SHORT $LN8@SoldierExe
  0013c	8b 01		 mov	 eax, DWORD PTR [ecx]
  0013e	6a 01		 push	 1
  00140	ff 50 40	 call	 DWORD PTR [eax+64]
  00143	89 9e 7c 02 00
	00		 mov	 DWORD PTR [esi+636], ebx
$LN8@SoldierExe:

; 145  : 	SAFEDELETE( m_pHitMark );

  00149	8b 8e 80 02 00
	00		 mov	 ecx, DWORD PTR [esi+640]
  0014f	3b cb		 cmp	 ecx, ebx
  00151	74 0d		 je	 SHORT $LN7@SoldierExe
  00153	8b 01		 mov	 eax, DWORD PTR [ecx]
  00155	6a 01		 push	 1
  00157	ff 50 40	 call	 DWORD PTR [eax+64]
  0015a	89 9e 80 02 00
	00		 mov	 DWORD PTR [esi+640], ebx
$LN7@SoldierExe:

; 146  : 	SAFEDELETE( m_pHitEffect );

  00160	8b 8e 84 02 00
	00		 mov	 ecx, DWORD PTR [esi+644]
  00166	3b cb		 cmp	 ecx, ebx
  00168	74 0d		 je	 SHORT $LN6@SoldierExe
  0016a	8b 01		 mov	 eax, DWORD PTR [ecx]
  0016c	6a 01		 push	 1
  0016e	ff 50 40	 call	 DWORD PTR [eax+64]
  00171	89 9e 84 02 00
	00		 mov	 DWORD PTR [esi+644], ebx
$LN6@SoldierExe:

; 147  : 	SAFEDELETE( m_pSaleMark );

  00177	8b 8e 88 02 00
	00		 mov	 ecx, DWORD PTR [esi+648]
  0017d	3b cb		 cmp	 ecx, ebx
  0017f	74 0d		 je	 SHORT $LN5@SoldierExe
  00181	8b 01		 mov	 eax, DWORD PTR [ecx]
  00183	6a 01		 push	 1
  00185	ff 50 40	 call	 DWORD PTR [eax+64]
  00188	89 9e 88 02 00
	00		 mov	 DWORD PTR [esi+648], ebx
$LN5@SoldierExe:

; 148  : 	SAFEDELETE( m_pSaleEffect );

  0018e	8b 8e 8c 02 00
	00		 mov	 ecx, DWORD PTR [esi+652]
  00194	3b cb		 cmp	 ecx, ebx
  00196	74 0d		 je	 SHORT $LN4@SoldierExe
  00198	8b 01		 mov	 eax, DWORD PTR [ecx]
  0019a	6a 01		 push	 1
  0019c	ff 50 40	 call	 DWORD PTR [eax+64]
  0019f	89 9e 8c 02 00
	00		 mov	 DWORD PTR [esi+652], ebx
$LN4@SoldierExe:

; 149  : 	SAFEDELETE( m_pEventMark );

  001a5	8b 8e 90 02 00
	00		 mov	 ecx, DWORD PTR [esi+656]
  001ab	3b cb		 cmp	 ecx, ebx
  001ad	74 0d		 je	 SHORT $LN3@SoldierExe
  001af	8b 01		 mov	 eax, DWORD PTR [ecx]
  001b1	6a 01		 push	 1
  001b3	ff 50 40	 call	 DWORD PTR [eax+64]
  001b6	89 9e 90 02 00
	00		 mov	 DWORD PTR [esi+656], ebx
$LN3@SoldierExe:

; 150  : 	SAFEDELETE( m_pEventEffect );

  001bc	8b 8e 94 02 00
	00		 mov	 ecx, DWORD PTR [esi+660]
  001c2	3b cb		 cmp	 ecx, ebx
  001c4	74 0d		 je	 SHORT $LN2@SoldierExe
  001c6	8b 01		 mov	 eax, DWORD PTR [ecx]
  001c8	6a 01		 push	 1
  001ca	ff 50 40	 call	 DWORD PTR [eax+64]
  001cd	89 9e 94 02 00
	00		 mov	 DWORD PTR [esi+660], ebx
$LN2@SoldierExe:

; 151  : 	SAFEDELETE( m_pIconBack );

  001d3	8b 8e 98 02 00
	00		 mov	 ecx, DWORD PTR [esi+664]
  001d9	3b cb		 cmp	 ecx, ebx
  001db	74 0d		 je	 SHORT $LN1@SoldierExe
  001dd	8b 01		 mov	 eax, DWORD PTR [ecx]
  001df	6a 01		 push	 1
  001e1	ff 50 40	 call	 DWORD PTR [eax+64]
  001e4	89 9e 98 02 00
	00		 mov	 DWORD PTR [esi+664], ebx
$LN1@SoldierExe:

; 152  : }

  001ea	8d 8e 1c 02 00
	00		 lea	 ecx, DWORD PTR [esi+540]
  001f0	88 5d fc	 mov	 BYTE PTR __$EHRec$[ebp+8], bl
  001f3	e8 00 00 00 00	 call	 ??1FSMStateMgr@@UAE@XZ	; FSMStateMgr::~FSMStateMgr
  001f8	83 4d fc ff	 or	 DWORD PTR __$EHRec$[ebp+8], -1
  001fc	8b ce		 mov	 ecx, esi
  001fe	ff 15 00 00 00
	00		 call	 DWORD PTR __imp_??1ioButton@@UAE@XZ
  00204	e8 00 00 00 00	 call	 __EH_epilog3
  00209	c3		 ret	 0
_TEXT	ENDS
;	COMDAT text$x
text$x	SEGMENT
__unwindfunclet$??1SoldierExerciseBtn@@UAE@XZ$0:
  00000	8b 4d f0	 mov	 ecx, DWORD PTR _this$[ebp]
  00003	ff 25 00 00 00
	00		 jmp	 DWORD PTR __imp_??1ioButton@@UAE@XZ
__unwindfunclet$??1SoldierExerciseBtn@@UAE@XZ$1:
  00009	8b 4d f0	 mov	 ecx, DWORD PTR _this$[ebp]
  0000c	81 c1 1c 02 00
	00		 add	 ecx, 540		; 0000021cH
  00012	e9 00 00 00 00	 jmp	 ??1FSMStateMgr@@UAE@XZ	; FSMStateMgr::~FSMStateMgr
__ehhandler$??1SoldierExerciseBtn@@UAE@XZ:
  00017	8b 54 24 08	 mov	 edx, DWORD PTR [esp+8]
  0001b	8d 42 0c	 lea	 eax, DWORD PTR [edx+12]
  0001e	8b 4a ec	 mov	 ecx, DWORD PTR [edx-20]
  00021	33 c8		 xor	 ecx, eax
  00023	e8 00 00 00 00	 call	 @__security_check_cookie@4
  00028	b8 00 00 00 00	 mov	 eax, OFFSET __ehfuncinfo$??1SoldierExerciseBtn@@UAE@XZ
  0002d	e9 00 00 00 00	 jmp	 ___CxxFrameHandler3
text$x	ENDS
??1SoldierExerciseBtn@@UAE@XZ ENDP			; SoldierExerciseBtn::~SoldierExerciseBtn
PUBLIC	?SetSoldierIcon@SoldierExerciseBtn@@QAEXPAVioUIRenderImage@@M_N@Z ; SoldierExerciseBtn::SetSoldierIcon
; Function compile flags: /Ogsp
;	COMDAT ?SetSoldierIcon@SoldierExerciseBtn@@QAEXPAVioUIRenderImage@@M_N@Z
_TEXT	SEGMENT
_pSoldierIcon$ = 8					; size = 4
_fIconScale$ = 12					; size = 4
_bScreenAction$ = 16					; size = 1
?SetSoldierIcon@SoldierExerciseBtn@@QAEXPAVioUIRenderImage@@M_N@Z PROC ; SoldierExerciseBtn::SetSoldierIcon, COMDAT
; _this$ = ecx

; 155  : {

  00000	55		 push	 ebp
  00001	8b ec		 mov	 ebp, esp
  00003	56		 push	 esi
  00004	8b f1		 mov	 esi, ecx

; 156  : 	SAFEDELETE( m_pSoldierIcon );

  00006	8b 8e 54 02 00
	00		 mov	 ecx, DWORD PTR [esi+596]
  0000c	85 c9		 test	 ecx, ecx
  0000e	74 0e		 je	 SHORT $LN2@SetSoldier
  00010	8b 01		 mov	 eax, DWORD PTR [ecx]
  00012	6a 01		 push	 1
  00014	ff 50 40	 call	 DWORD PTR [eax+64]
  00017	83 a6 54 02 00
	00 00		 and	 DWORD PTR [esi+596], 0
$LN2@SetSoldier:

; 157  : 	m_pSoldierIcon = pSoldierIcon;

  0001e	8b 4d 08	 mov	 ecx, DWORD PTR _pSoldierIcon$[ebp]
  00021	89 8e 54 02 00
	00		 mov	 DWORD PTR [esi+596], ecx

; 158  : 
; 159  : 	if( m_pSoldierIcon )

  00027	85 c9		 test	 ecx, ecx
  00029	74 10		 je	 SHORT $LN1@SetSoldier

; 160  : 		m_pSoldierIcon->SetScale( fIconScale );

  0002b	f3 0f 10 45 0c	 movss	 xmm0, DWORD PTR _fIconScale$[ebp]
  00030	8b 01		 mov	 eax, DWORD PTR [ecx]
  00032	51		 push	 ecx
  00033	f3 0f 11 04 24	 movss	 DWORD PTR [esp], xmm0
  00038	ff 50 1c	 call	 DWORD PTR [eax+28]
$LN1@SetSoldier:

; 161  : 
; 162  : 	m_bScreenAction = bScreenAction;

  0003b	8a 45 10	 mov	 al, BYTE PTR _bScreenAction$[ebp]

; 163  : 	m_bScreenSoldier= false;
; 164  : 	m_dwScreenTime  = 500;
; 165  : 	m_dwScreenStartTime = 0;

  0003e	83 a6 4c 02 00
	00 00		 and	 DWORD PTR [esi+588], 0
  00045	88 86 44 02 00
	00		 mov	 BYTE PTR [esi+580], al
  0004b	c6 86 45 02 00
	00 00		 mov	 BYTE PTR [esi+581], 0
  00052	c7 86 48 02 00
	00 f4 01 00 00	 mov	 DWORD PTR [esi+584], 500 ; 000001f4H
  0005c	5e		 pop	 esi

; 166  : }

  0005d	5d		 pop	 ebp
  0005e	c2 0c 00	 ret	 12			; 0000000cH
?SetSoldierIcon@SoldierExerciseBtn@@QAEXPAVioUIRenderImage@@M_N@Z ENDP ; SoldierExerciseBtn::SetSoldierIcon
_TEXT	ENDS
PUBLIC	?SetBoughtType@SoldierExerciseBtn@@QAEXW4SoldierBoughtType@1@@Z ; SoldierExerciseBtn::SetBoughtType
; Function compile flags: /Ogsp
;	COMDAT ?SetBoughtType@SoldierExerciseBtn@@QAEXW4SoldierBoughtType@1@@Z
_TEXT	SEGMENT
_eBoughtType$ = 8					; size = 4
?SetBoughtType@SoldierExerciseBtn@@QAEXW4SoldierBoughtType@1@@Z PROC ; SoldierExerciseBtn::SetBoughtType, COMDAT
; _this$ = ecx

; 169  : {

  00000	55		 push	 ebp
  00001	8b ec		 mov	 ebp, esp

; 170  : 	m_eBoughtType = eBoughtType;

  00003	8b 45 08	 mov	 eax, DWORD PTR _eBoughtType$[ebp]
  00006	89 81 00 02 00
	00		 mov	 DWORD PTR [ecx+512], eax

; 171  : }

  0000c	5d		 pop	 ebp
  0000d	c2 04 00	 ret	 4
?SetBoughtType@SoldierExerciseBtn@@QAEXW4SoldierBoughtType@1@@Z ENDP ; SoldierExerciseBtn::SetBoughtType
_TEXT	ENDS
EXTRN	__imp_?OnDrawNormal@ioButton@@MAEXHH@Z:PROC
EXTRN	__imp_?OnDrawOvered@ioButton@@MAEXHH@Z:PROC
; Function compile flags: /Ogsp
;	COMDAT ?OnDrawNormal@SoldierExerciseBtn@@MAEXHH@Z
_TEXT	SEGMENT
_iXPos$ = 8						; size = 4
_iYPos$ = 12						; size = 4
?OnDrawNormal@SoldierExerciseBtn@@MAEXHH@Z PROC		; SoldierExerciseBtn::OnDrawNormal, COMDAT
; _this$ = ecx

; 174  : {

  00000	55		 push	 ebp
  00001	8b ec		 mov	 ebp, esp

; 175  : 	if( m_bForceOver )

  00003	80 b9 fc 01 00
	00 00		 cmp	 BYTE PTR [ecx+508], 0
  0000a	74 07		 je	 SHORT $LN2@OnDrawNorm

; 179  : }

  0000c	5d		 pop	 ebp

; 176  : 		ioButton::OnDrawOvered( iXPos, iYPos );

  0000d	ff 25 00 00 00
	00		 jmp	 DWORD PTR __imp_?OnDrawOvered@ioButton@@MAEXHH@Z
$LN2@OnDrawNorm:

; 179  : }

  00013	5d		 pop	 ebp

; 177  : 	else
; 178  : 		ioButton::OnDrawNormal( iXPos, iYPos );

  00014	ff 25 00 00 00
	00		 jmp	 DWORD PTR __imp_?OnDrawNormal@ioButton@@MAEXHH@Z
?OnDrawNormal@SoldierExerciseBtn@@MAEXHH@Z ENDP		; SoldierExerciseBtn::OnDrawNormal
_TEXT	ENDS
PUBLIC	?RenderNewMark@SoldierExerciseBtn@@IAEXHH@Z	; SoldierExerciseBtn::RenderNewMark
; Function compile flags: /Ogsp
;	COMDAT ?RenderNewMark@SoldierExerciseBtn@@IAEXHH@Z
_TEXT	SEGMENT
_iXPos$ = 8						; size = 4
_iYPos$ = 12						; size = 4
?RenderNewMark@SoldierExerciseBtn@@IAEXHH@Z PROC	; SoldierExerciseBtn::RenderNewMark, COMDAT
; _this$ = ecx

; 205  : {

  00000	55		 push	 ebp
  00001	8b ec		 mov	 ebp, esp
  00003	53		 push	 ebx
  00004	56		 push	 esi
  00005	57		 push	 edi
  00006	8b f1		 mov	 esi, ecx

; 206  : 	enum 
; 207  : 	{ 
; 208  : 		X_NEW_OFFSET   = 23,
; 209  : 		Y_NEW_OFFSET   = 2,
; 210  : 	};
; 211  : 
; 212  : 	// new mark
; 213  : 	if( m_iMarkType == SHOP_MARK_TYPE_NEW )

  00008	8b 86 a4 02 00
	00		 mov	 eax, DWORD PTR [esi+676]

; 214  : 	{
; 215  : 		if( m_pNewMark )

  0000e	33 ff		 xor	 edi, edi
  00010	47		 inc	 edi
  00011	83 f8 02	 cmp	 eax, 2
  00014	75 64		 jne	 SHORT $LN19@RenderNewM
  00016	33 db		 xor	 ebx, ebx
  00018	39 9e 78 02 00
	00		 cmp	 DWORD PTR [esi+632], ebx
  0001e	74 37		 je	 SHORT $LN18@RenderNewM

; 216  : 			m_pNewMark->Render( iXPos + X_NEW_OFFSET, iYPos + Y_NEW_OFFSET, UI_RENDER_NORMAL, TFO_BILINEAR );

  00020	8b 4d 0c	 mov	 ecx, DWORD PTR _iYPos$[ebp]
  00023	8b 86 78 02 00
	00		 mov	 eax, DWORD PTR [esi+632]
  00029	8b 10		 mov	 edx, DWORD PTR [eax]
  0002b	53		 push	 ebx
  0002c	53		 push	 ebx
  0002d	83 c1 02	 add	 ecx, 2
  00030	57		 push	 edi
  00031	53		 push	 ebx
  00032	51		 push	 ecx
  00033	51		 push	 ecx
  00034	0f 57 c0	 xorps	 xmm0, xmm0
  00037	f3 0f 2a c1	 cvtsi2ss xmm0, ecx
  0003b	8b 4d 08	 mov	 ecx, DWORD PTR _iXPos$[ebp]
  0003e	f3 0f 11 44 24
	04		 movss	 DWORD PTR [esp+4], xmm0
  00044	83 c1 17	 add	 ecx, 23			; 00000017H
  00047	0f 57 c0	 xorps	 xmm0, xmm0
  0004a	f3 0f 2a c1	 cvtsi2ss xmm0, ecx
  0004e	8b c8		 mov	 ecx, eax
  00050	f3 0f 11 04 24	 movss	 DWORD PTR [esp], xmm0
  00055	ff 12		 call	 DWORD PTR [edx]
$LN18@RenderNewM:

; 217  : 
; 218  : 		if( m_bMarkEffect )

  00057	38 9e a8 02 00
	00		 cmp	 BYTE PTR [esi+680], bl
  0005d	0f 84 74 01 00
	00		 je	 $LN1@RenderNewM

; 219  : 		{
; 220  : 			if( m_pNewEffect )

  00063	39 9e 7c 02 00
	00		 cmp	 DWORD PTR [esi+636], ebx
  00069	0f 84 68 01 00
	00		 je	 $LN1@RenderNewM

; 221  : 				m_pNewEffect->Render( iXPos + X_NEW_OFFSET, iYPos + Y_NEW_OFFSET, UI_RENDER_SCREEN, TFO_BILINEAR );

  0006f	8b 8e 7c 02 00
	00		 mov	 ecx, DWORD PTR [esi+636]

; 222  : 		}
; 223  : 	}

  00075	e9 2e 01 00 00	 jmp	 $LN22@RenderNewM
$LN19@RenderNewM:

; 224  : 	else if( m_iMarkType == SHOP_MARK_TYPE_HIT )

  0007a	83 f8 03	 cmp	 eax, 3
  0007d	75 64		 jne	 SHORT $LN14@RenderNewM

; 225  : 	{
; 226  : 		if( m_pHitMark )

  0007f	33 db		 xor	 ebx, ebx
  00081	39 9e 80 02 00
	00		 cmp	 DWORD PTR [esi+640], ebx
  00087	74 37		 je	 SHORT $LN13@RenderNewM

; 227  : 			m_pHitMark->Render( iXPos + X_NEW_OFFSET, iYPos + Y_NEW_OFFSET, UI_RENDER_NORMAL, TFO_BILINEAR );

  00089	8b 4d 0c	 mov	 ecx, DWORD PTR _iYPos$[ebp]
  0008c	8b 86 80 02 00
	00		 mov	 eax, DWORD PTR [esi+640]
  00092	8b 10		 mov	 edx, DWORD PTR [eax]
  00094	53		 push	 ebx
  00095	53		 push	 ebx
  00096	83 c1 02	 add	 ecx, 2
  00099	57		 push	 edi
  0009a	53		 push	 ebx
  0009b	51		 push	 ecx
  0009c	51		 push	 ecx
  0009d	0f 57 c0	 xorps	 xmm0, xmm0
  000a0	f3 0f 2a c1	 cvtsi2ss xmm0, ecx
  000a4	8b 4d 08	 mov	 ecx, DWORD PTR _iXPos$[ebp]
  000a7	f3 0f 11 44 24
	04		 movss	 DWORD PTR [esp+4], xmm0
  000ad	83 c1 17	 add	 ecx, 23			; 00000017H
  000b0	0f 57 c0	 xorps	 xmm0, xmm0
  000b3	f3 0f 2a c1	 cvtsi2ss xmm0, ecx
  000b7	8b c8		 mov	 ecx, eax
  000b9	f3 0f 11 04 24	 movss	 DWORD PTR [esp], xmm0
  000be	ff 12		 call	 DWORD PTR [edx]
$LN13@RenderNewM:

; 228  : 
; 229  : 		if( m_bMarkEffect )

  000c0	38 9e a8 02 00
	00		 cmp	 BYTE PTR [esi+680], bl
  000c6	0f 84 0b 01 00
	00		 je	 $LN1@RenderNewM

; 230  : 		{
; 231  : 			if( m_pHitEffect )

  000cc	39 9e 84 02 00
	00		 cmp	 DWORD PTR [esi+644], ebx
  000d2	0f 84 ff 00 00
	00		 je	 $LN1@RenderNewM

; 232  : 				m_pHitEffect->Render( iXPos + X_NEW_OFFSET, iYPos + Y_NEW_OFFSET, UI_RENDER_SCREEN, TFO_BILINEAR );

  000d8	8b 8e 84 02 00
	00		 mov	 ecx, DWORD PTR [esi+644]

; 233  : 		}
; 234  : 	}

  000de	e9 c5 00 00 00	 jmp	 $LN22@RenderNewM
$LN14@RenderNewM:

; 235  : 	else if( m_iMarkType == SHOP_MARK_TYPE_SALE )

  000e3	3b c7		 cmp	 eax, edi
  000e5	75 61		 jne	 SHORT $LN9@RenderNewM

; 236  : 	{
; 237  : 		if( m_pSaleMark )

  000e7	33 db		 xor	 ebx, ebx
  000e9	39 9e 88 02 00
	00		 cmp	 DWORD PTR [esi+648], ebx
  000ef	74 37		 je	 SHORT $LN8@RenderNewM

; 238  : 			m_pSaleMark->Render( iXPos + X_NEW_OFFSET, iYPos + Y_NEW_OFFSET, UI_RENDER_NORMAL, TFO_BILINEAR );

  000f1	8b 4d 0c	 mov	 ecx, DWORD PTR _iYPos$[ebp]
  000f4	8b 86 88 02 00
	00		 mov	 eax, DWORD PTR [esi+648]
  000fa	8b 10		 mov	 edx, DWORD PTR [eax]
  000fc	53		 push	 ebx
  000fd	53		 push	 ebx
  000fe	83 c1 02	 add	 ecx, 2
  00101	57		 push	 edi
  00102	53		 push	 ebx
  00103	51		 push	 ecx
  00104	51		 push	 ecx
  00105	0f 57 c0	 xorps	 xmm0, xmm0
  00108	f3 0f 2a c1	 cvtsi2ss xmm0, ecx
  0010c	8b 4d 08	 mov	 ecx, DWORD PTR _iXPos$[ebp]
  0010f	f3 0f 11 44 24
	04		 movss	 DWORD PTR [esp+4], xmm0
  00115	83 c1 17	 add	 ecx, 23			; 00000017H
  00118	0f 57 c0	 xorps	 xmm0, xmm0
  0011b	f3 0f 2a c1	 cvtsi2ss xmm0, ecx
  0011f	8b c8		 mov	 ecx, eax
  00121	f3 0f 11 04 24	 movss	 DWORD PTR [esp], xmm0
  00126	ff 12		 call	 DWORD PTR [edx]
$LN8@RenderNewM:

; 239  : 
; 240  : 		if( m_bMarkEffect )

  00128	38 9e a8 02 00
	00		 cmp	 BYTE PTR [esi+680], bl
  0012e	0f 84 a3 00 00
	00		 je	 $LN1@RenderNewM

; 241  : 		{
; 242  : 			if( m_pSaleEffect )

  00134	39 9e 8c 02 00
	00		 cmp	 DWORD PTR [esi+652], ebx
  0013a	0f 84 97 00 00
	00		 je	 $LN1@RenderNewM

; 243  : 				m_pSaleEffect->Render( iXPos + X_NEW_OFFSET, iYPos + Y_NEW_OFFSET, UI_RENDER_SCREEN, TFO_BILINEAR );

  00140	8b 8e 8c 02 00
	00		 mov	 ecx, DWORD PTR [esi+652]

; 244  : 		}
; 245  : 	}

  00146	eb 60		 jmp	 SHORT $LN22@RenderNewM
$LN9@RenderNewM:

; 246  : 	else if( m_iMarkType == SHOP_MARK_TYPE_EVENT )

  00148	83 f8 04	 cmp	 eax, 4
  0014b	0f 85 86 00 00
	00		 jne	 $LN1@RenderNewM

; 247  : 	{
; 248  : 		if( m_pEventMark )

  00151	33 db		 xor	 ebx, ebx
  00153	39 9e 90 02 00
	00		 cmp	 DWORD PTR [esi+656], ebx
  00159	74 37		 je	 SHORT $LN3@RenderNewM

; 249  : 			m_pEventMark->Render( iXPos + X_NEW_OFFSET, iYPos + Y_NEW_OFFSET, UI_RENDER_NORMAL, TFO_BILINEAR );

  0015b	8b 4d 0c	 mov	 ecx, DWORD PTR _iYPos$[ebp]
  0015e	8b 86 90 02 00
	00		 mov	 eax, DWORD PTR [esi+656]
  00164	8b 10		 mov	 edx, DWORD PTR [eax]
  00166	53		 push	 ebx
  00167	53		 push	 ebx
  00168	83 c1 02	 add	 ecx, 2
  0016b	57		 push	 edi
  0016c	53		 push	 ebx
  0016d	51		 push	 ecx
  0016e	51		 push	 ecx
  0016f	0f 57 c0	 xorps	 xmm0, xmm0
  00172	f3 0f 2a c1	 cvtsi2ss xmm0, ecx
  00176	8b 4d 08	 mov	 ecx, DWORD PTR _iXPos$[ebp]
  00179	f3 0f 11 44 24
	04		 movss	 DWORD PTR [esp+4], xmm0
  0017f	83 c1 17	 add	 ecx, 23			; 00000017H
  00182	0f 57 c0	 xorps	 xmm0, xmm0
  00185	f3 0f 2a c1	 cvtsi2ss xmm0, ecx
  00189	8b c8		 mov	 ecx, eax
  0018b	f3 0f 11 04 24	 movss	 DWORD PTR [esp], xmm0
  00190	ff 12		 call	 DWORD PTR [edx]
$LN3@RenderNewM:

; 250  : 
; 251  : 		if( m_bMarkEffect )

  00192	38 9e a8 02 00
	00		 cmp	 BYTE PTR [esi+680], bl
  00198	74 3d		 je	 SHORT $LN1@RenderNewM

; 252  : 		{
; 253  : 			if( m_pEventEffect )

  0019a	39 9e 94 02 00
	00		 cmp	 DWORD PTR [esi+660], ebx
  001a0	74 35		 je	 SHORT $LN1@RenderNewM

; 254  : 				m_pEventEffect->Render( iXPos + X_NEW_OFFSET, iYPos + Y_NEW_OFFSET, UI_RENDER_SCREEN, TFO_BILINEAR );

  001a2	8b 8e 94 02 00
	00		 mov	 ecx, DWORD PTR [esi+660]
$LN22@RenderNewM:
  001a8	8b 55 0c	 mov	 edx, DWORD PTR _iYPos$[ebp]
  001ab	8b 01		 mov	 eax, DWORD PTR [ecx]
  001ad	53		 push	 ebx
  001ae	53		 push	 ebx
  001af	57		 push	 edi
  001b0	57		 push	 edi
  001b1	83 c2 02	 add	 edx, 2
  001b4	0f 57 c0	 xorps	 xmm0, xmm0
  001b7	f3 0f 2a c2	 cvtsi2ss xmm0, edx
  001bb	8b 55 08	 mov	 edx, DWORD PTR _iXPos$[ebp]
  001be	51		 push	 ecx
  001bf	51		 push	 ecx
  001c0	f3 0f 11 44 24
	04		 movss	 DWORD PTR [esp+4], xmm0
  001c6	83 c2 17	 add	 edx, 23			; 00000017H
  001c9	0f 57 c0	 xorps	 xmm0, xmm0
  001cc	f3 0f 2a c2	 cvtsi2ss xmm0, edx
  001d0	f3 0f 11 04 24	 movss	 DWORD PTR [esp], xmm0
  001d5	ff 10		 call	 DWORD PTR [eax]
$LN1@RenderNewM:
  001d7	5f		 pop	 edi
  001d8	5e		 pop	 esi
  001d9	5b		 pop	 ebx

; 255  : 		}
; 256  : 	}
; 257  : }

  001da	5d		 pop	 ebp
  001db	c2 08 00	 ret	 8
?RenderNewMark@SoldierExerciseBtn@@IAEXHH@Z ENDP	; SoldierExerciseBtn::RenderNewMark
_TEXT	ENDS
PUBLIC	__real@4f800000
PUBLIC	?RenderNeedLv@SoldierExerciseBtn@@IAEXHH@Z	; SoldierExerciseBtn::RenderNeedLv
EXTRN	?RenderGrade@ioMyLevelMgr@@QAEXHHKW4TeamType@@W4UIRenderType@@K@Z:PROC ; ioMyLevelMgr::RenderGrade
EXTRN	?GetSingleton@ioMyLevelMgr@@SAAAV1@XZ:PROC	; ioMyLevelMgr::GetSingleton
EXTRN	__imp_?RenderNum@ioUIRenderImage@@QAEXMMHMMW4UIRenderType@@W4TextureFilterOption@@0W4RenerNumerFormatting@1@@Z:PROC
EXTRN	__imp_?SetHorzFormatting@ioUIRenderImage@@QAEXW4HorzFormatting@1@@Z:PROC
;	COMDAT __real@4f800000
; File d:\lost saga for developer\youtube\tutorial\source\src\lsclient\stdafx.h
CONST	SEGMENT
__real@4f800000 DD 04f800000r			; 4.29497e+009
; Function compile flags: /Ogsp
; File d:\lost saga for developer\youtube\tutorial\source\src\lsclient\gui\soldierexercisewnd.cpp
CONST	ENDS
;	COMDAT ?RenderNeedLv@SoldierExerciseBtn@@IAEXHH@Z
_TEXT	SEGMENT
_iXPos$ = 8						; size = 4
tv322 = 12						; size = 4
tv319 = 12						; size = 4
_iXOffset$548109 = 12					; size = 4
_iYPos$ = 12						; size = 4
?RenderNeedLv@SoldierExerciseBtn@@IAEXHH@Z PROC		; SoldierExerciseBtn::RenderNeedLv, COMDAT
; _this$ = ecx

; 260  : {

  00000	55		 push	 ebp
  00001	8b ec		 mov	 ebp, esp
  00003	56		 push	 esi
  00004	57		 push	 edi
  00005	8b f1		 mov	 esi, ecx

; 261  : 	if( m_eBoughtType != SBT_NONE ) return;

  00007	33 ff		 xor	 edi, edi
  00009	39 be 00 02 00
	00		 cmp	 DWORD PTR [esi+512], edi
  0000f	0f 85 81 01 00
	00		 jne	 $LN1@RenderNeed

; 262  : 	if( m_eNeedLevelType == ioSetItemInfo::NLT_NONE ) return;

  00015	83 be 50 02 00
	00 ff		 cmp	 DWORD PTR [esi+592], -1
  0001c	0f 84 74 01 00
	00		 je	 $LN1@RenderNeed

; 263  : 
; 264  : 	enum { LOCK_OFFSET_X = 18, 
; 265  : 		LOCK_OFFSET_Y = 12, 
; 266  : 
; 267  : 		GRADE_OFFSET_X = 21, 
; 268  : 		GRADE_OFFSET_Y = 22, 
; 269  : 
; 270  : 		X_MARK_OFFSET  = 24,
; 271  : 		Y_MARK_OFFSET  = 20,
; 272  : 
; 273  : 		X_LOCK_NUM_OFFSET = 31,
; 274  : 		Y_LOCK_NUM_OFFSET = 34,
; 275  : 
; 276  : 		X_LOCK_ONE_NUM_OFFSET = 32,
; 277  : 	};
; 278  : 
; 279  : 	if( m_pLock )

  00022	53		 push	 ebx
  00023	8b 5d 0c	 mov	 ebx, DWORD PTR _iYPos$[ebp]
  00026	39 be 0c 02 00
	00		 cmp	 DWORD PTR [esi+524], edi
  0002c	74 34		 je	 SHORT $LN11@RenderNeed

; 280  : 		m_pLock->Render( iXPos + LOCK_OFFSET_X, iYPos + LOCK_OFFSET_Y, UI_RENDER_NORMAL );

  0002e	8b 86 0c 02 00
	00		 mov	 eax, DWORD PTR [esi+524]
  00034	8b 10		 mov	 edx, DWORD PTR [eax]
  00036	57		 push	 edi
  00037	57		 push	 edi
  00038	57		 push	 edi
  00039	8d 4b 0c	 lea	 ecx, DWORD PTR [ebx+12]
  0003c	57		 push	 edi
  0003d	51		 push	 ecx
  0003e	51		 push	 ecx
  0003f	0f 57 c0	 xorps	 xmm0, xmm0
  00042	f3 0f 2a c1	 cvtsi2ss xmm0, ecx
  00046	8b 4d 08	 mov	 ecx, DWORD PTR _iXPos$[ebp]
  00049	f3 0f 11 44 24
	04		 movss	 DWORD PTR [esp+4], xmm0
  0004f	83 c1 12	 add	 ecx, 18			; 00000012H
  00052	0f 57 c0	 xorps	 xmm0, xmm0
  00055	f3 0f 2a c1	 cvtsi2ss xmm0, ecx
  00059	8b c8		 mov	 ecx, eax
  0005b	f3 0f 11 04 24	 movss	 DWORD PTR [esp], xmm0
  00060	ff 12		 call	 DWORD PTR [edx]
$LN11@RenderNeed:

; 281  : 
; 282  : 	if( m_eNeedLevelType != ioSetItemInfo::NLT_GRADE )

  00062	83 be 50 02 00
	00 01		 cmp	 DWORD PTR [esi+592], 1
  00069	0f 84 a3 00 00
	00		 je	 $LN9@RenderNeed

; 283  : 	{
; 284  : 		if( m_pLockNum )

  0006f	8b 8e 58 02 00
	00		 mov	 ecx, DWORD PTR [esi+600]
  00075	3b cf		 cmp	 ecx, edi
  00077	0f 84 95 00 00
	00		 je	 $LN9@RenderNeed

; 285  : 		{
; 286  : 			m_pLockNum->SetHorzFormatting( ioUIRenderImage::HF_CENTER );

  0007d	6a 02		 push	 2
  0007f	ff 15 00 00 00
	00		 call	 DWORD PTR __imp_?SetHorzFormatting@ioUIRenderImage@@QAEXW4HorzFormatting@1@@Z

; 287  : 			int iXOffset = X_LOCK_NUM_OFFSET;
; 288  : 			if( ( m_iNeedLevel / 10 ) == 0 ) // 1

  00085	8b 86 08 02 00
	00		 mov	 eax, DWORD PTR [esi+520]
  0008b	6a 0a		 push	 10			; 0000000aH
  0008d	99		 cdq
  0008e	59		 pop	 ecx
  0008f	f7 f9		 idiv	 ecx
  00091	c7 45 0c 1f 00
	00 00		 mov	 DWORD PTR _iXOffset$548109[ebp], 31 ; 0000001fH
  00098	85 c0		 test	 eax, eax
  0009a	75 05		 jne	 SHORT $LN20@RenderNeed

; 289  : 				iXOffset = X_LOCK_ONE_NUM_OFFSET;

  0009c	6a 20		 push	 32			; 00000020H
  0009e	59		 pop	 ecx
  0009f	eb 03		 jmp	 SHORT $LN8@RenderNeed
$LN20@RenderNeed:
  000a1	8b 4d 0c	 mov	 ecx, DWORD PTR _iXOffset$548109[ebp]
$LN8@RenderNeed:

; 290  : 			m_pLockNum->RenderNum( iXPos + iXOffset, iYPos + Y_LOCK_NUM_OFFSET , m_iNeedLevel, -FLOAT1, FLOAT1, UI_RENDER_NORMAL );

  000a4	b8 01 00 00 00	 mov	 eax, 1
  000a9	8b d0		 mov	 edx, eax
  000ab	b8 01 00 00 00	 mov	 eax, 1
  000b0	57		 push	 edi
  000b1	57		 push	 edi
  000b2	57		 push	 edi
  000b3	89 55 0c	 mov	 DWORD PTR tv322[ebp], edx
  000b6	db 45 0c	 fild	 DWORD PTR tv322[ebp]
  000b9	57		 push	 edi
  000ba	85 d2		 test	 edx, edx
  000bc	79 06		 jns	 SHORT $LN22@RenderNeed
  000be	d8 05 00 00 00
	00		 fadd	 DWORD PTR __real@4f800000
$LN22@RenderNeed:
  000c4	51		 push	 ecx
  000c5	51		 push	 ecx
  000c6	89 45 0c	 mov	 DWORD PTR tv319[ebp], eax
  000c9	d9 5c 24 04	 fstp	 DWORD PTR [esp+4]
  000cd	db 45 0c	 fild	 DWORD PTR tv319[ebp]
  000d0	85 c0		 test	 eax, eax
  000d2	79 06		 jns	 SHORT $LN23@RenderNeed
  000d4	d8 05 00 00 00
	00		 fadd	 DWORD PTR __real@4f800000
$LN23@RenderNeed:
  000da	d9 e0		 fchs
  000dc	0f 57 c0	 xorps	 xmm0, xmm0
  000df	d9 1c 24	 fstp	 DWORD PTR [esp]
  000e2	ff b6 08 02 00
	00		 push	 DWORD PTR [esi+520]
  000e8	8d 43 22	 lea	 eax, DWORD PTR [ebx+34]
  000eb	51		 push	 ecx
  000ec	51		 push	 ecx
  000ed	03 4d 08	 add	 ecx, DWORD PTR _iXPos$[ebp]
  000f0	f3 0f 2a c0	 cvtsi2ss xmm0, eax
  000f4	f3 0f 11 44 24
	04		 movss	 DWORD PTR [esp+4], xmm0
  000fa	0f 57 c0	 xorps	 xmm0, xmm0
  000fd	f3 0f 2a c1	 cvtsi2ss xmm0, ecx
  00101	8b 8e 58 02 00
	00		 mov	 ecx, DWORD PTR [esi+600]
  00107	f3 0f 11 04 24	 movss	 DWORD PTR [esp], xmm0
  0010c	ff 15 00 00 00
	00		 call	 DWORD PTR __imp_?RenderNum@ioUIRenderImage@@QAEXMMHMMW4UIRenderType@@W4TextureFilterOption@@0W4RenerNumerFormatting@1@@Z
$LN9@RenderNeed:

; 291  : 		}
; 292  : 	}
; 293  : 
; 294  : 	if( m_eNeedLevelType == ioSetItemInfo::NLT_GRADE )

  00112	8b 86 50 02 00
	00		 mov	 eax, DWORD PTR [esi+592]
  00118	83 f8 01	 cmp	 eax, 1
  0011b	75 24		 jne	 SHORT $LN7@RenderNeed

; 295  : 	{
; 296  : 		g_LevelMgr.RenderGrade( iXPos + GRADE_OFFSET_X, iYPos + GRADE_OFFSET_Y, m_iNeedLevel, TEAM_PRIVATE_1 , UI_RENDER_NORMAL);

  0011d	8b 45 08	 mov	 eax, DWORD PTR _iXPos$[ebp]
  00120	6a ff		 push	 -1
  00122	57		 push	 edi
  00123	6a 03		 push	 3
  00125	ff b6 08 02 00
	00		 push	 DWORD PTR [esi+520]
  0012b	83 c3 16	 add	 ebx, 22			; 00000016H
  0012e	83 c0 15	 add	 eax, 21			; 00000015H
  00131	53		 push	 ebx
  00132	50		 push	 eax
  00133	e8 00 00 00 00	 call	 ?GetSingleton@ioMyLevelMgr@@SAAAV1@XZ ; ioMyLevelMgr::GetSingleton
  00138	8b c8		 mov	 ecx, eax
  0013a	e8 00 00 00 00	 call	 ?RenderGrade@ioMyLevelMgr@@QAEXHHKW4TeamType@@W4UIRenderType@@K@Z ; ioMyLevelMgr::RenderGrade
  0013f	eb 54		 jmp	 SHORT $LN21@RenderNeed
$LN7@RenderNeed:

; 297  : 	}
; 298  : 	else if( m_eNeedLevelType == ioSetItemInfo::NLT_BATTLE )

  00141	83 f8 02	 cmp	 eax, 2
  00144	75 10		 jne	 SHORT $LN5@RenderNeed

; 299  : 	{
; 300  : 		if( m_pLockBattleMark )

  00146	39 be 5c 02 00
	00		 cmp	 DWORD PTR [esi+604], edi
  0014c	74 47		 je	 SHORT $LN21@RenderNeed

; 301  : 			m_pLockBattleMark->Render( iXPos + X_MARK_OFFSET, iYPos + Y_MARK_OFFSET, UI_RENDER_NORMAL );

  0014e	8b 8e 5c 02 00
	00		 mov	 ecx, DWORD PTR [esi+604]

; 302  : 	}

  00154	eb 13		 jmp	 SHORT $LN24@RenderNeed
$LN5@RenderNeed:

; 303  : 	else if( m_eNeedLevelType == ioSetItemInfo::NLT_AWARD )

  00156	83 f8 04	 cmp	 eax, 4
  00159	75 3a		 jne	 SHORT $LN21@RenderNeed

; 304  : 	{
; 305  : 		if( m_pLockAwardMark )

  0015b	39 be 64 02 00
	00		 cmp	 DWORD PTR [esi+612], edi
  00161	74 32		 je	 SHORT $LN21@RenderNeed

; 306  : 			m_pLockAwardMark->Render( iXPos + X_MARK_OFFSET, iYPos + Y_MARK_OFFSET, UI_RENDER_NORMAL );

  00163	8b 8e 64 02 00
	00		 mov	 ecx, DWORD PTR [esi+612]
$LN24@RenderNeed:
  00169	8b 55 08	 mov	 edx, DWORD PTR _iXPos$[ebp]
  0016c	8b 01		 mov	 eax, DWORD PTR [ecx]
  0016e	57		 push	 edi
  0016f	57		 push	 edi
  00170	57		 push	 edi
  00171	57		 push	 edi
  00172	51		 push	 ecx
  00173	0f 57 c0	 xorps	 xmm0, xmm0
  00176	83 c3 14	 add	 ebx, 20			; 00000014H
  00179	51		 push	 ecx
  0017a	f3 0f 2a c3	 cvtsi2ss xmm0, ebx
  0017e	f3 0f 11 44 24
	04		 movss	 DWORD PTR [esp+4], xmm0
  00184	83 c2 18	 add	 edx, 24			; 00000018H
  00187	0f 57 c0	 xorps	 xmm0, xmm0
  0018a	f3 0f 2a c2	 cvtsi2ss xmm0, edx
  0018e	f3 0f 11 04 24	 movss	 DWORD PTR [esp], xmm0
  00193	ff 10		 call	 DWORD PTR [eax]
$LN21@RenderNeed:
  00195	5b		 pop	 ebx
$LN1@RenderNeed:
  00196	5f		 pop	 edi
  00197	5e		 pop	 esi

; 307  : 	}
; 308  : }

  00198	5d		 pop	 ebp
  00199	c2 08 00	 ret	 8
?RenderNeedLv@SoldierExerciseBtn@@IAEXHH@Z ENDP		; SoldierExerciseBtn::RenderNeedLv
_TEXT	ENDS
PUBLIC	?RenderSoldierIcon@SoldierExerciseBtn@@IAEXHH@Z	; SoldierExerciseBtn::RenderSoldierIcon
EXTRN	__imp_?GetWidth@ioWnd@@QBEHXZ:PROC
EXTRN	__imp_?GetHeight@ioWnd@@QBEHXZ:PROC
EXTRN	__imp_?HasWndStyle@ioWnd@@QBE_NK@Z:PROC
; Function compile flags: /Ogsp
;	COMDAT ?RenderSoldierIcon@SoldierExerciseBtn@@IAEXHH@Z
_TEXT	SEGMENT
_iXPos$ = 8						; size = 4
_iYPos$ = 12						; size = 4
?RenderSoldierIcon@SoldierExerciseBtn@@IAEXHH@Z PROC	; SoldierExerciseBtn::RenderSoldierIcon, COMDAT
; _this$ = ecx

; 440  : {

  00000	55		 push	 ebp
  00001	8b ec		 mov	 ebp, esp
  00003	53		 push	 ebx
  00004	56		 push	 esi
  00005	8b f1		 mov	 esi, ecx

; 441  : 	if( !m_pSoldierIcon ) return;

  00007	33 db		 xor	 ebx, ebx
  00009	39 9e 54 02 00
	00		 cmp	 DWORD PTR [esi+596], ebx
  0000f	0f 84 28 01 00
	00		 je	 $LN2@RenderSold

; 442  : 
; 443  : 	if( HasWndStyle( IWS_INACTIVE ) )

  00015	57		 push	 edi
  00016	6a 02		 push	 2
  00018	ff 15 00 00 00
	00		 call	 DWORD PTR __imp_?HasWndStyle@ioWnd@@QBE_NK@Z
  0001e	84 c0		 test	 al, al
  00020	74 0b		 je	 SHORT $LN5@RenderSold

; 444  : 		m_pSoldierIcon->Render( iXPos + GetWidth() / 2, iYPos + GetHeight() / 2, UI_RENDER_GRAY, TFO_BILINEAR );

  00022	53		 push	 ebx
  00023	53		 push	 ebx
  00024	6a 01		 push	 1
  00026	6a 02		 push	 2

; 445  : 	else

  00028	e9 c5 00 00 00	 jmp	 $LN11@RenderSold
$LN5@RenderSold:

; 446  : 	{
; 447  : 		if( m_pIconBack )

  0002d	39 9e 98 02 00
	00		 cmp	 DWORD PTR [esi+664], ebx
  00033	74 50		 je	 SHORT $LN9@RenderSold

; 448  : 			m_pIconBack->Render( iXPos + GetWidth() / 2, iYPos + GetHeight() / 2, UI_RENDER_MULTIPLY, TFO_BILINEAR );

  00035	8b 86 98 02 00
	00		 mov	 eax, DWORD PTR [esi+664]
  0003b	8b 38		 mov	 edi, DWORD PTR [eax]
  0003d	53		 push	 ebx
  0003e	53		 push	 ebx
  0003f	6a 01		 push	 1
  00041	6a 08		 push	 8
  00043	8b ce		 mov	 ecx, esi
  00045	ff 15 00 00 00
	00		 call	 DWORD PTR __imp_?GetHeight@ioWnd@@QBEHXZ
  0004b	99		 cdq
  0004c	2b c2		 sub	 eax, edx
  0004e	d1 f8		 sar	 eax, 1
  00050	03 45 0c	 add	 eax, DWORD PTR _iYPos$[ebp]
  00053	51		 push	 ecx
  00054	0f 57 c0	 xorps	 xmm0, xmm0
  00057	f3 0f 2a c0	 cvtsi2ss xmm0, eax
  0005b	8b ce		 mov	 ecx, esi
  0005d	f3 0f 11 04 24	 movss	 DWORD PTR [esp], xmm0
  00062	ff 15 00 00 00
	00		 call	 DWORD PTR __imp_?GetWidth@ioWnd@@QBEHXZ
  00068	99		 cdq
  00069	2b c2		 sub	 eax, edx
  0006b	d1 f8		 sar	 eax, 1
  0006d	03 45 08	 add	 eax, DWORD PTR _iXPos$[ebp]
  00070	51		 push	 ecx
  00071	8b 8e 98 02 00
	00		 mov	 ecx, DWORD PTR [esi+664]
  00077	0f 57 c0	 xorps	 xmm0, xmm0
  0007a	f3 0f 2a c0	 cvtsi2ss xmm0, eax
  0007e	f3 0f 11 04 24	 movss	 DWORD PTR [esp], xmm0
  00083	ff 17		 call	 DWORD PTR [edi]
$LN9@RenderSold:

; 449  : 
; 450  : 		m_pSoldierIcon->Render( iXPos + GetWidth() / 2, iYPos + GetHeight() / 2, UI_RENDER_NORMAL, TFO_BILINEAR );

  00085	8b 86 54 02 00
	00		 mov	 eax, DWORD PTR [esi+596]
  0008b	8b 38		 mov	 edi, DWORD PTR [eax]
  0008d	53		 push	 ebx
  0008e	53		 push	 ebx
  0008f	6a 01		 push	 1
  00091	53		 push	 ebx
  00092	8b ce		 mov	 ecx, esi
  00094	ff 15 00 00 00
	00		 call	 DWORD PTR __imp_?GetHeight@ioWnd@@QBEHXZ
  0009a	99		 cdq
  0009b	2b c2		 sub	 eax, edx
  0009d	d1 f8		 sar	 eax, 1
  0009f	03 45 0c	 add	 eax, DWORD PTR _iYPos$[ebp]
  000a2	51		 push	 ecx
  000a3	0f 57 c0	 xorps	 xmm0, xmm0
  000a6	f3 0f 2a c0	 cvtsi2ss xmm0, eax
  000aa	8b ce		 mov	 ecx, esi
  000ac	f3 0f 11 04 24	 movss	 DWORD PTR [esp], xmm0
  000b1	ff 15 00 00 00
	00		 call	 DWORD PTR __imp_?GetWidth@ioWnd@@QBEHXZ
  000b7	99		 cdq
  000b8	2b c2		 sub	 eax, edx
  000ba	d1 f8		 sar	 eax, 1
  000bc	03 45 08	 add	 eax, DWORD PTR _iXPos$[ebp]
  000bf	51		 push	 ecx
  000c0	8b 8e 54 02 00
	00		 mov	 ecx, DWORD PTR [esi+596]
  000c6	0f 57 c0	 xorps	 xmm0, xmm0
  000c9	f3 0f 2a c0	 cvtsi2ss xmm0, eax
  000cd	f3 0f 11 04 24	 movss	 DWORD PTR [esp], xmm0
  000d2	ff 17		 call	 DWORD PTR [edi]

; 451  : 		if( m_bClicked || m_bOver || m_bScreenSoldier )

  000d4	38 9e a6 00 00
	00		 cmp	 BYTE PTR [esi+166], bl
  000da	75 10		 jne	 SHORT $LN1@RenderSold
  000dc	38 9e a8 00 00
	00		 cmp	 BYTE PTR [esi+168], bl
  000e2	75 08		 jne	 SHORT $LN1@RenderSold
  000e4	38 9e 45 02 00
	00		 cmp	 BYTE PTR [esi+581], bl
  000ea	74 50		 je	 SHORT $LN10@RenderSold
$LN1@RenderSold:

; 452  : 			m_pSoldierIcon->Render( iXPos + GetWidth() / 2, iYPos + GetHeight() / 2, UI_RENDER_SCREEN, TFO_BILINEAR );

  000ec	53		 push	 ebx
  000ed	53		 push	 ebx
  000ee	6a 01		 push	 1
  000f0	6a 01		 push	 1
$LN11@RenderSold:
  000f2	8b 86 54 02 00
	00		 mov	 eax, DWORD PTR [esi+596]
  000f8	8b 38		 mov	 edi, DWORD PTR [eax]
  000fa	8b ce		 mov	 ecx, esi
  000fc	ff 15 00 00 00
	00		 call	 DWORD PTR __imp_?GetHeight@ioWnd@@QBEHXZ
  00102	99		 cdq
  00103	2b c2		 sub	 eax, edx
  00105	d1 f8		 sar	 eax, 1
  00107	03 45 0c	 add	 eax, DWORD PTR _iYPos$[ebp]
  0010a	51		 push	 ecx
  0010b	0f 57 c0	 xorps	 xmm0, xmm0
  0010e	f3 0f 2a c0	 cvtsi2ss xmm0, eax
  00112	8b ce		 mov	 ecx, esi
  00114	f3 0f 11 04 24	 movss	 DWORD PTR [esp], xmm0
  00119	ff 15 00 00 00
	00		 call	 DWORD PTR __imp_?GetWidth@ioWnd@@QBEHXZ
  0011f	99		 cdq
  00120	2b c2		 sub	 eax, edx
  00122	d1 f8		 sar	 eax, 1
  00124	03 45 08	 add	 eax, DWORD PTR _iXPos$[ebp]
  00127	51		 push	 ecx
  00128	8b 8e 54 02 00
	00		 mov	 ecx, DWORD PTR [esi+596]
  0012e	0f 57 c0	 xorps	 xmm0, xmm0
  00131	f3 0f 2a c0	 cvtsi2ss xmm0, eax
  00135	f3 0f 11 04 24	 movss	 DWORD PTR [esp], xmm0
  0013a	ff 17		 call	 DWORD PTR [edi]
$LN10@RenderSold:
  0013c	5f		 pop	 edi
$LN2@RenderSold:
  0013d	5e		 pop	 esi
  0013e	5b		 pop	 ebx

; 453  : 	}
; 454  : }

  0013f	5d		 pop	 ebp
  00140	c2 08 00	 ret	 8
?RenderSoldierIcon@SoldierExerciseBtn@@IAEXHH@Z ENDP	; SoldierExerciseBtn::RenderSoldierIcon
_TEXT	ENDS
PUBLIC	?RenderType@SoldierExerciseBtn@@IAEXHH@Z	; SoldierExerciseBtn::RenderType
; Function compile flags: /Ogsp
;	COMDAT ?RenderType@SoldierExerciseBtn@@IAEXHH@Z
_TEXT	SEGMENT
_iXPos$ = 8						; size = 4
_iYPos$ = 12						; size = 4
?RenderType@SoldierExerciseBtn@@IAEXHH@Z PROC		; SoldierExerciseBtn::RenderType, COMDAT
; _this$ = ecx

; 457  : {

  00000	55		 push	 ebp
  00001	8b ec		 mov	 ebp, esp
  00003	56		 push	 esi
  00004	57		 push	 edi
  00005	8b f9		 mov	 edi, ecx

; 458  : 	if( m_eBoughtType == SBT_NONE ) return;

  00007	33 f6		 xor	 esi, esi
  00009	39 b7 00 02 00
	00		 cmp	 DWORD PTR [edi+512], esi
  0000f	0f 84 9f 00 00
	00		 je	 $LN1@RenderType

; 459  : 
; 460  : 	iXPos += GetWidth() / 2;

  00015	53		 push	 ebx
  00016	ff 15 00 00 00
	00		 call	 DWORD PTR __imp_?GetWidth@ioWnd@@QBEHXZ
  0001c	8b 5d 08	 mov	 ebx, DWORD PTR _iXPos$[ebp]
  0001f	99		 cdq
  00020	2b c2		 sub	 eax, edx
  00022	d1 f8		 sar	 eax, 1

; 461  : 	iYPos += GetHeight() / 2;

  00024	8b cf		 mov	 ecx, edi
  00026	03 d8		 add	 ebx, eax
  00028	ff 15 00 00 00
	00		 call	 DWORD PTR __imp_?GetHeight@ioWnd@@QBEHXZ
  0002e	99		 cdq
  0002f	2b c2		 sub	 eax, edx
  00031	8b 55 0c	 mov	 edx, DWORD PTR _iYPos$[ebp]
  00034	d1 f8		 sar	 eax, 1
  00036	03 d0		 add	 edx, eax

; 462  : 	if( m_eBoughtType == SBT_BOUGHT )

  00038	8b 87 00 02 00
	00		 mov	 eax, DWORD PTR [edi+512]
  0003e	83 f8 01	 cmp	 eax, 1
  00041	75 10		 jne	 SHORT $LN11@RenderType

; 463  : 	{
; 464  : 		if( m_pBoughtType )

  00043	39 b7 68 02 00
	00		 cmp	 DWORD PTR [edi+616], esi
  00049	74 68		 je	 SHORT $LN15@RenderType

; 465  : 			m_pBoughtType->Render( iXPos, iYPos );

  0004b	8b 8f 68 02 00
	00		 mov	 ecx, DWORD PTR [edi+616]

; 466  : 	}

  00051	eb 3d		 jmp	 SHORT $LN16@RenderType
$LN11@RenderType:

; 467  : 	else if( m_eBoughtType == SBT_EXERCISE_GENERAL )

  00053	83 f8 02	 cmp	 eax, 2
  00056	75 10		 jne	 SHORT $LN8@RenderType

; 468  : 	{
; 469  : 		if( m_pExerciseGeneral )

  00058	39 b7 6c 02 00
	00		 cmp	 DWORD PTR [edi+620], esi
  0005e	74 53		 je	 SHORT $LN15@RenderType

; 470  : 			m_pExerciseGeneral->Render( iXPos, iYPos );

  00060	8b 8f 6c 02 00
	00		 mov	 ecx, DWORD PTR [edi+620]

; 471  : 	}

  00066	eb 28		 jmp	 SHORT $LN16@RenderType
$LN8@RenderType:

; 472  : 	else if( m_eBoughtType == SBT_EXERCISE_PCROOM )

  00068	83 f8 03	 cmp	 eax, 3
  0006b	75 10		 jne	 SHORT $LN5@RenderType

; 473  : 	{
; 474  : 		if( m_pExercisePcroom )

  0006d	39 b7 70 02 00
	00		 cmp	 DWORD PTR [edi+624], esi
  00073	74 3e		 je	 SHORT $LN15@RenderType

; 475  : 			m_pExercisePcroom->Render( iXPos, iYPos );

  00075	8b 8f 70 02 00
	00		 mov	 ecx, DWORD PTR [edi+624]

; 476  : 	}

  0007b	eb 13		 jmp	 SHORT $LN16@RenderType
$LN5@RenderType:

; 477  : 	else if( m_eBoughtType == SBT_EXERCISE_EVENT )

  0007d	83 f8 04	 cmp	 eax, 4
  00080	75 31		 jne	 SHORT $LN15@RenderType

; 478  : 	{
; 479  : 		if( m_pExerciseEvent )

  00082	39 b7 74 02 00
	00		 cmp	 DWORD PTR [edi+628], esi
  00088	74 29		 je	 SHORT $LN15@RenderType

; 480  : 			m_pExerciseEvent->Render( iXPos, iYPos );

  0008a	8b 8f 74 02 00
	00		 mov	 ecx, DWORD PTR [edi+628]
$LN16@RenderType:
  00090	8b 01		 mov	 eax, DWORD PTR [ecx]
  00092	56		 push	 esi
  00093	56		 push	 esi
  00094	56		 push	 esi
  00095	56		 push	 esi
  00096	51		 push	 ecx
  00097	0f 57 c0	 xorps	 xmm0, xmm0
  0009a	51		 push	 ecx
  0009b	f3 0f 2a c2	 cvtsi2ss xmm0, edx
  0009f	f3 0f 11 44 24
	04		 movss	 DWORD PTR [esp+4], xmm0
  000a5	0f 57 c0	 xorps	 xmm0, xmm0
  000a8	f3 0f 2a c3	 cvtsi2ss xmm0, ebx
  000ac	f3 0f 11 04 24	 movss	 DWORD PTR [esp], xmm0
  000b1	ff 10		 call	 DWORD PTR [eax]
$LN15@RenderType:
  000b3	5b		 pop	 ebx
$LN1@RenderType:
  000b4	5f		 pop	 edi
  000b5	5e		 pop	 esi

; 481  : 	}
; 482  : }

  000b6	5d		 pop	 ebp
  000b7	c2 08 00	 ret	 8
?RenderType@SoldierExerciseBtn@@IAEXHH@Z ENDP		; SoldierExerciseBtn::RenderType
_TEXT	ENDS
PUBLIC	?InitAniState@SoldierExerciseBtn@@IAEXXZ	; SoldierExerciseBtn::InitAniState
EXTRN	?SetCurState@FSMStateMgr@@QAEXH@Z:PROC		; FSMStateMgr::SetCurState
EXTRN	?Add@FSMStateMgr@@QAEXPAVFSMState@@@Z:PROC	; FSMStateMgr::Add
EXTRN	?Add@FSMState@@QAEXHHH@Z:PROC			; FSMState::Add
EXTRN	??0FSMState@@QAE@H@Z:PROC			; FSMState::FSMState
EXTRN	??2@YAPAXI@Z:PROC				; operator new
;	COMDAT xdata$x
xdata$x	SEGMENT
__ehfuncinfo$?InitAniState@SoldierExerciseBtn@@IAEXXZ DD 019930522H
	DD	08H
	DD	FLAT:__unwindtable$?InitAniState@SoldierExerciseBtn@@IAEXXZ
	DD	2 DUP(00H)
	DD	2 DUP(00H)
	DD	00H
	DD	01H
__unwindtable$?InitAniState@SoldierExerciseBtn@@IAEXXZ DD 0ffffffffH
	DD	FLAT:__unwindfunclet$?InitAniState@SoldierExerciseBtn@@IAEXXZ$0
	DD	0ffffffffH
	DD	FLAT:__unwindfunclet$?InitAniState@SoldierExerciseBtn@@IAEXXZ$1
	DD	0ffffffffH
	DD	FLAT:__unwindfunclet$?InitAniState@SoldierExerciseBtn@@IAEXXZ$2
	DD	0ffffffffH
	DD	FLAT:__unwindfunclet$?InitAniState@SoldierExerciseBtn@@IAEXXZ$3
	DD	0ffffffffH
	DD	FLAT:__unwindfunclet$?InitAniState@SoldierExerciseBtn@@IAEXXZ$4
	DD	0ffffffffH
	DD	FLAT:__unwindfunclet$?InitAniState@SoldierExerciseBtn@@IAEXXZ$5
	DD	0ffffffffH
	DD	FLAT:__unwindfunclet$?InitAniState@SoldierExerciseBtn@@IAEXXZ$6
	DD	0ffffffffH
	DD	FLAT:__unwindfunclet$?InitAniState@SoldierExerciseBtn@@IAEXXZ$7
; Function compile flags: /Ogsp
xdata$x	ENDS
;	COMDAT ?InitAniState@SoldierExerciseBtn@@IAEXXZ
_TEXT	SEGMENT
$T554122 = -20						; size = 4
$T554118 = -20						; size = 4
$T554114 = -20						; size = 4
$T554110 = -20						; size = 4
$T554106 = -20						; size = 4
$T554102 = -20						; size = 4
$T554098 = -20						; size = 4
tv290 = -16						; size = 4
$T554094 = -16						; size = 4
__$EHRec$ = -12						; size = 12
?InitAniState@SoldierExerciseBtn@@IAEXXZ PROC		; SoldierExerciseBtn::InitAniState, COMDAT
; _this$ = ecx

; 515  : {

  00000	6a 08		 push	 8
  00002	b8 00 00 00 00	 mov	 eax, __ehhandler$?InitAniState@SoldierExerciseBtn@@IAEXXZ
  00007	e8 00 00 00 00	 call	 __EH_prolog3
  0000c	8b d9		 mov	 ebx, ecx

; 516  : 	enum { DELAY_START_DOWN = 100, DELAY_START_UP_STOP = 100, DELAY_DOWN_UP = 150, DELAY_OUT = 100,};
; 517  : 
; 518  : 	FSMState *pState = new FSMState(AT_NONE);

  0000e	6a 38		 push	 56			; 00000038H
  00010	e8 00 00 00 00	 call	 ??2@YAPAXI@Z		; operator new
  00015	59		 pop	 ecx
  00016	89 45 f0	 mov	 DWORD PTR $T554094[ebp], eax
  00019	83 65 fc 00	 and	 DWORD PTR __$EHRec$[ebp+8], 0
  0001d	85 c0		 test	 eax, eax
  0001f	74 0d		 je	 SHORT $LN11@InitAniSta
  00021	6a 00		 push	 0
  00023	8b c8		 mov	 ecx, eax
  00025	e8 00 00 00 00	 call	 ??0FSMState@@QAE@H@Z	; FSMState::FSMState
  0002a	8b f0		 mov	 esi, eax
  0002c	eb 02		 jmp	 SHORT $LN12@InitAniSta
$LN11@InitAniSta:
  0002e	33 f6		 xor	 esi, esi
$LN12@InitAniSta:
  00030	83 4d fc ff	 or	 DWORD PTR __$EHRec$[ebp+8], -1

; 519  : 	if( pState )
; 520  : 		pState->Add( AT_START_DOWN,  AT_START_DOWN );

  00034	33 ff		 xor	 edi, edi
  00036	47		 inc	 edi
  00037	85 f6		 test	 esi, esi
  00039	74 0b		 je	 SHORT $LN8@InitAniSta
  0003b	6a ff		 push	 -1
  0003d	57		 push	 edi
  0003e	57		 push	 edi
  0003f	8b ce		 mov	 ecx, esi
  00041	e8 00 00 00 00	 call	 ?Add@FSMState@@QAEXHHH@Z ; FSMState::Add
$LN8@InitAniSta:

; 521  : 	m_AniState.Add( pState );

  00046	8d 8b 1c 02 00
	00		 lea	 ecx, DWORD PTR [ebx+540]
  0004c	56		 push	 esi
  0004d	89 4d f0	 mov	 DWORD PTR tv290[ebp], ecx
  00050	e8 00 00 00 00	 call	 ?Add@FSMStateMgr@@QAEXPAVFSMState@@@Z ; FSMStateMgr::Add

; 522  : 
; 523  : 	pState = new FSMState(AT_START_DOWN);

  00055	6a 38		 push	 56			; 00000038H
  00057	e8 00 00 00 00	 call	 ??2@YAPAXI@Z		; operator new
  0005c	59		 pop	 ecx
  0005d	89 45 ec	 mov	 DWORD PTR $T554098[ebp], eax
  00060	89 7d fc	 mov	 DWORD PTR __$EHRec$[ebp+8], edi
  00063	85 c0		 test	 eax, eax
  00065	74 0c		 je	 SHORT $LN13@InitAniSta
  00067	57		 push	 edi
  00068	8b c8		 mov	 ecx, eax
  0006a	e8 00 00 00 00	 call	 ??0FSMState@@QAE@H@Z	; FSMState::FSMState
  0006f	8b f0		 mov	 esi, eax
  00071	eb 02		 jmp	 SHORT $LN14@InitAniSta
$LN13@InitAniSta:
  00073	33 f6		 xor	 esi, esi
$LN14@InitAniSta:
  00075	83 4d fc ff	 or	 DWORD PTR __$EHRec$[ebp+8], -1

; 524  : 	if( pState )

  00079	6a 02		 push	 2
  0007b	5b		 pop	 ebx
  0007c	85 f6		 test	 esi, esi
  0007e	74 18		 je	 SHORT $LN7@InitAniSta

; 525  : 	{
; 526  : 		pState->Add( AT_START_DOWN, AT_START_UP, DELAY_START_DOWN );

  00080	6a 64		 push	 100			; 00000064H
  00082	53		 push	 ebx
  00083	57		 push	 edi
  00084	8b ce		 mov	 ecx, esi
  00086	e8 00 00 00 00	 call	 ?Add@FSMState@@QAEXHHH@Z ; FSMState::Add

; 527  : 		pState->Add( AT_WHITE_OUT,  AT_WHITE_OUT );

  0008b	6a ff		 push	 -1
  0008d	6a 04		 push	 4
  0008f	6a 04		 push	 4
  00091	8b ce		 mov	 ecx, esi
  00093	e8 00 00 00 00	 call	 ?Add@FSMState@@QAEXHHH@Z ; FSMState::Add
$LN7@InitAniSta:

; 528  : 	}
; 529  : 	m_AniState.Add( pState );	

  00098	8b 4d f0	 mov	 ecx, DWORD PTR tv290[ebp]
  0009b	56		 push	 esi
  0009c	e8 00 00 00 00	 call	 ?Add@FSMStateMgr@@QAEXPAVFSMState@@@Z ; FSMStateMgr::Add

; 530  : 
; 531  : 	pState = new FSMState(AT_START_UP);

  000a1	6a 38		 push	 56			; 00000038H
  000a3	e8 00 00 00 00	 call	 ??2@YAPAXI@Z		; operator new
  000a8	59		 pop	 ecx
  000a9	89 45 ec	 mov	 DWORD PTR $T554102[ebp], eax
  000ac	89 5d fc	 mov	 DWORD PTR __$EHRec$[ebp+8], ebx
  000af	85 c0		 test	 eax, eax
  000b1	74 0c		 je	 SHORT $LN15@InitAniSta
  000b3	53		 push	 ebx
  000b4	8b c8		 mov	 ecx, eax
  000b6	e8 00 00 00 00	 call	 ??0FSMState@@QAE@H@Z	; FSMState::FSMState
  000bb	8b f0		 mov	 esi, eax
  000bd	eb 02		 jmp	 SHORT $LN16@InitAniSta
$LN15@InitAniSta:
  000bf	33 f6		 xor	 esi, esi
$LN16@InitAniSta:
  000c1	83 4d fc ff	 or	 DWORD PTR __$EHRec$[ebp+8], -1

; 532  : 	if( pState )

  000c5	6a 03		 push	 3
  000c7	5f		 pop	 edi
  000c8	85 f6		 test	 esi, esi
  000ca	74 1b		 je	 SHORT $LN36@InitAniSta

; 533  : 	{
; 534  : 		pState->Add( AT_START_UP, AT_START_STOP, DELAY_START_UP_STOP );

  000cc	6a 64		 push	 100			; 00000064H
  000ce	57		 push	 edi
  000cf	53		 push	 ebx
  000d0	8b ce		 mov	 ecx, esi
  000d2	e8 00 00 00 00	 call	 ?Add@FSMState@@QAEXHHH@Z ; FSMState::Add

; 535  : 		pState->Add( AT_WHITE_OUT,  AT_WHITE_OUT );

  000d7	6a ff		 push	 -1
  000d9	6a 04		 push	 4
  000db	5b		 pop	 ebx
  000dc	53		 push	 ebx
  000dd	53		 push	 ebx
  000de	8b ce		 mov	 ecx, esi
  000e0	e8 00 00 00 00	 call	 ?Add@FSMState@@QAEXHHH@Z ; FSMState::Add
  000e5	eb 03		 jmp	 SHORT $LN6@InitAniSta
$LN36@InitAniSta:
  000e7	6a 04		 push	 4
  000e9	5b		 pop	 ebx
$LN6@InitAniSta:

; 536  : 	}
; 537  : 	m_AniState.Add( pState );	

  000ea	8b 4d f0	 mov	 ecx, DWORD PTR tv290[ebp]
  000ed	56		 push	 esi
  000ee	e8 00 00 00 00	 call	 ?Add@FSMStateMgr@@QAEXPAVFSMState@@@Z ; FSMStateMgr::Add

; 538  : 
; 539  : 	pState = new FSMState(AT_START_STOP);

  000f3	6a 38		 push	 56			; 00000038H
  000f5	e8 00 00 00 00	 call	 ??2@YAPAXI@Z		; operator new
  000fa	59		 pop	 ecx
  000fb	89 45 ec	 mov	 DWORD PTR $T554106[ebp], eax
  000fe	89 7d fc	 mov	 DWORD PTR __$EHRec$[ebp+8], edi
  00101	85 c0		 test	 eax, eax
  00103	74 0c		 je	 SHORT $LN17@InitAniSta
  00105	57		 push	 edi
  00106	8b c8		 mov	 ecx, eax
  00108	e8 00 00 00 00	 call	 ??0FSMState@@QAE@H@Z	; FSMState::FSMState
  0010d	8b f0		 mov	 esi, eax
  0010f	eb 02		 jmp	 SHORT $LN18@InitAniSta
$LN17@InitAniSta:
  00111	33 f6		 xor	 esi, esi
$LN18@InitAniSta:
  00113	83 4d fc ff	 or	 DWORD PTR __$EHRec$[ebp+8], -1

; 540  : 	if( pState )

  00117	85 f6		 test	 esi, esi
  00119	74 17		 je	 SHORT $LN5@InitAniSta

; 541  : 	{
; 542  : 		pState->Add( AT_START_STOP, AT_DOWN, DELAY_START_UP_STOP );

  0011b	6a 64		 push	 100			; 00000064H
  0011d	6a 05		 push	 5
  0011f	57		 push	 edi
  00120	8b ce		 mov	 ecx, esi
  00122	e8 00 00 00 00	 call	 ?Add@FSMState@@QAEXHHH@Z ; FSMState::Add

; 543  : 		pState->Add( AT_WHITE_OUT,  AT_WHITE_OUT );

  00127	6a ff		 push	 -1
  00129	53		 push	 ebx
  0012a	53		 push	 ebx
  0012b	8b ce		 mov	 ecx, esi
  0012d	e8 00 00 00 00	 call	 ?Add@FSMState@@QAEXHHH@Z ; FSMState::Add
$LN5@InitAniSta:

; 544  : 	}
; 545  : 	m_AniState.Add( pState );	

  00132	8b 4d f0	 mov	 ecx, DWORD PTR tv290[ebp]
  00135	56		 push	 esi
  00136	e8 00 00 00 00	 call	 ?Add@FSMStateMgr@@QAEXPAVFSMState@@@Z ; FSMStateMgr::Add

; 546  : 
; 547  : 	pState = new FSMState(AT_DOWN);

  0013b	6a 38		 push	 56			; 00000038H
  0013d	e8 00 00 00 00	 call	 ??2@YAPAXI@Z		; operator new
  00142	59		 pop	 ecx
  00143	89 45 ec	 mov	 DWORD PTR $T554110[ebp], eax
  00146	89 5d fc	 mov	 DWORD PTR __$EHRec$[ebp+8], ebx
  00149	85 c0		 test	 eax, eax
  0014b	74 0d		 je	 SHORT $LN19@InitAniSta
  0014d	6a 05		 push	 5
  0014f	8b c8		 mov	 ecx, eax
  00151	e8 00 00 00 00	 call	 ??0FSMState@@QAE@H@Z	; FSMState::FSMState
  00156	8b f8		 mov	 edi, eax
  00158	eb 02		 jmp	 SHORT $LN20@InitAniSta
$LN19@InitAniSta:
  0015a	33 ff		 xor	 edi, edi
$LN20@InitAniSta:
  0015c	83 4d fc ff	 or	 DWORD PTR __$EHRec$[ebp+8], -1

; 548  : 	if( pState )

  00160	be 96 00 00 00	 mov	 esi, 150		; 00000096H
  00165	85 ff		 test	 edi, edi
  00167	74 24		 je	 SHORT $LN4@InitAniSta

; 549  : 	{
; 550  : 		pState->Add( AT_DOWN, AT_UP, DELAY_DOWN_UP );

  00169	56		 push	 esi
  0016a	6a 06		 push	 6
  0016c	6a 05		 push	 5
  0016e	8b cf		 mov	 ecx, edi
  00170	e8 00 00 00 00	 call	 ?Add@FSMState@@QAEXHHH@Z ; FSMState::Add

; 551  : 		pState->Add( AT_WHITE_OUT,  AT_WHITE_OUT );

  00175	6a ff		 push	 -1
  00177	53		 push	 ebx
  00178	53		 push	 ebx
  00179	8b cf		 mov	 ecx, edi
  0017b	e8 00 00 00 00	 call	 ?Add@FSMState@@QAEXHHH@Z ; FSMState::Add

; 552  : 		pState->Add( AT_NONE,  AT_NONE );

  00180	6a ff		 push	 -1
  00182	6a 00		 push	 0
  00184	6a 00		 push	 0
  00186	8b cf		 mov	 ecx, edi
  00188	e8 00 00 00 00	 call	 ?Add@FSMState@@QAEXHHH@Z ; FSMState::Add
$LN4@InitAniSta:

; 553  : 
; 554  : 	}
; 555  : 	m_AniState.Add( pState );	

  0018d	8b 4d f0	 mov	 ecx, DWORD PTR tv290[ebp]
  00190	57		 push	 edi
  00191	e8 00 00 00 00	 call	 ?Add@FSMStateMgr@@QAEXPAVFSMState@@@Z ; FSMStateMgr::Add

; 556  : 
; 557  : 	pState = new FSMState(AT_UP);

  00196	6a 38		 push	 56			; 00000038H
  00198	e8 00 00 00 00	 call	 ??2@YAPAXI@Z		; operator new
  0019d	59		 pop	 ecx
  0019e	89 45 ec	 mov	 DWORD PTR $T554114[ebp], eax
  001a1	c7 45 fc 05 00
	00 00		 mov	 DWORD PTR __$EHRec$[ebp+8], 5
  001a8	85 c0		 test	 eax, eax
  001aa	74 0d		 je	 SHORT $LN21@InitAniSta
  001ac	6a 06		 push	 6
  001ae	8b c8		 mov	 ecx, eax
  001b0	e8 00 00 00 00	 call	 ??0FSMState@@QAE@H@Z	; FSMState::FSMState
  001b5	8b f8		 mov	 edi, eax
  001b7	eb 02		 jmp	 SHORT $LN22@InitAniSta
$LN21@InitAniSta:
  001b9	33 ff		 xor	 edi, edi
$LN22@InitAniSta:
  001bb	83 4d fc ff	 or	 DWORD PTR __$EHRec$[ebp+8], -1

; 558  : 	if( pState )

  001bf	85 ff		 test	 edi, edi
  001c1	74 24		 je	 SHORT $LN3@InitAniSta

; 559  : 	{
; 560  : 		pState->Add( AT_UP, AT_DOWN, DELAY_DOWN_UP);

  001c3	56		 push	 esi
  001c4	6a 05		 push	 5
  001c6	6a 06		 push	 6
  001c8	8b cf		 mov	 ecx, edi
  001ca	e8 00 00 00 00	 call	 ?Add@FSMState@@QAEXHHH@Z ; FSMState::Add

; 561  : 		pState->Add( AT_WHITE_OUT,  AT_WHITE_OUT );

  001cf	6a ff		 push	 -1
  001d1	53		 push	 ebx
  001d2	53		 push	 ebx
  001d3	8b cf		 mov	 ecx, edi
  001d5	e8 00 00 00 00	 call	 ?Add@FSMState@@QAEXHHH@Z ; FSMState::Add

; 562  : 		pState->Add( AT_NONE,  AT_NONE );

  001da	6a ff		 push	 -1
  001dc	6a 00		 push	 0
  001de	6a 00		 push	 0
  001e0	8b cf		 mov	 ecx, edi
  001e2	e8 00 00 00 00	 call	 ?Add@FSMState@@QAEXHHH@Z ; FSMState::Add
$LN3@InitAniSta:

; 563  : 	}
; 564  : 	m_AniState.Add( pState );	

  001e7	8b 4d f0	 mov	 ecx, DWORD PTR tv290[ebp]
  001ea	57		 push	 edi
  001eb	e8 00 00 00 00	 call	 ?Add@FSMStateMgr@@QAEXPAVFSMState@@@Z ; FSMStateMgr::Add

; 565  : 
; 566  : 	pState = new FSMState(AT_WHITE_OUT);

  001f0	6a 38		 push	 56			; 00000038H
  001f2	e8 00 00 00 00	 call	 ??2@YAPAXI@Z		; operator new
  001f7	59		 pop	 ecx
  001f8	89 45 ec	 mov	 DWORD PTR $T554118[ebp], eax
  001fb	c7 45 fc 06 00
	00 00		 mov	 DWORD PTR __$EHRec$[ebp+8], 6
  00202	85 c0		 test	 eax, eax
  00204	74 0c		 je	 SHORT $LN23@InitAniSta
  00206	53		 push	 ebx
  00207	8b c8		 mov	 ecx, eax
  00209	e8 00 00 00 00	 call	 ??0FSMState@@QAE@H@Z	; FSMState::FSMState
  0020e	8b f0		 mov	 esi, eax
  00210	eb 02		 jmp	 SHORT $LN24@InitAniSta
$LN23@InitAniSta:
  00212	33 f6		 xor	 esi, esi
$LN24@InitAniSta:
  00214	83 4d fc ff	 or	 DWORD PTR __$EHRec$[ebp+8], -1

; 567  : 	if( pState )

  00218	6a 07		 push	 7
  0021a	5f		 pop	 edi
  0021b	85 f6		 test	 esi, esi
  0021d	74 18		 je	 SHORT $LN2@InitAniSta

; 568  : 	{
; 569  : 		pState->Add( AT_WHITE_OUT, AT_MOUSE_OVER, DELAY_OUT);

  0021f	6a 64		 push	 100			; 00000064H
  00221	57		 push	 edi
  00222	53		 push	 ebx
  00223	8b ce		 mov	 ecx, esi
  00225	e8 00 00 00 00	 call	 ?Add@FSMState@@QAEXHHH@Z ; FSMState::Add

; 570  : 		pState->Add( AT_MOUSE_LEAVE, AT_START_DOWN );

  0022a	6a ff		 push	 -1
  0022c	6a 01		 push	 1
  0022e	6a 08		 push	 8
  00230	8b ce		 mov	 ecx, esi
  00232	e8 00 00 00 00	 call	 ?Add@FSMState@@QAEXHHH@Z ; FSMState::Add
$LN2@InitAniSta:

; 571  : 	}
; 572  : 	m_AniState.Add( pState );	

  00237	8b 4d f0	 mov	 ecx, DWORD PTR tv290[ebp]
  0023a	56		 push	 esi
  0023b	e8 00 00 00 00	 call	 ?Add@FSMStateMgr@@QAEXPAVFSMState@@@Z ; FSMStateMgr::Add

; 573  : 
; 574  : 	pState = new FSMState(AT_MOUSE_OVER);

  00240	6a 38		 push	 56			; 00000038H
  00242	e8 00 00 00 00	 call	 ??2@YAPAXI@Z		; operator new
  00247	59		 pop	 ecx
  00248	89 45 ec	 mov	 DWORD PTR $T554122[ebp], eax
  0024b	89 7d fc	 mov	 DWORD PTR __$EHRec$[ebp+8], edi
  0024e	85 c0		 test	 eax, eax
  00250	74 0c		 je	 SHORT $LN25@InitAniSta
  00252	57		 push	 edi
  00253	8b c8		 mov	 ecx, eax
  00255	e8 00 00 00 00	 call	 ??0FSMState@@QAE@H@Z	; FSMState::FSMState
  0025a	8b f0		 mov	 esi, eax
  0025c	eb 02		 jmp	 SHORT $LN26@InitAniSta
$LN25@InitAniSta:
  0025e	33 f6		 xor	 esi, esi
$LN26@InitAniSta:
  00260	83 4d fc ff	 or	 DWORD PTR __$EHRec$[ebp+8], -1

; 575  : 	if( pState )

  00264	85 f6		 test	 esi, esi
  00266	74 0d		 je	 SHORT $LN1@InitAniSta

; 576  : 		pState->Add( AT_MOUSE_LEAVE,  AT_START_DOWN );

  00268	6a ff		 push	 -1
  0026a	6a 01		 push	 1
  0026c	6a 08		 push	 8
  0026e	8b ce		 mov	 ecx, esi
  00270	e8 00 00 00 00	 call	 ?Add@FSMState@@QAEXHHH@Z ; FSMState::Add
$LN1@InitAniSta:

; 577  : 	m_AniState.Add( pState );	

  00275	8b 4d f0	 mov	 ecx, DWORD PTR tv290[ebp]
  00278	56		 push	 esi
  00279	e8 00 00 00 00	 call	 ?Add@FSMStateMgr@@QAEXPAVFSMState@@@Z ; FSMStateMgr::Add

; 578  : 
; 579  : 	m_AniState.SetCurState( AT_NONE );

  0027e	8b 4d f0	 mov	 ecx, DWORD PTR tv290[ebp]
  00281	6a 00		 push	 0
  00283	e8 00 00 00 00	 call	 ?SetCurState@FSMStateMgr@@QAEXH@Z ; FSMStateMgr::SetCurState

; 580  : }

  00288	e8 00 00 00 00	 call	 __EH_epilog3
  0028d	c3		 ret	 0
_TEXT	ENDS
;	COMDAT text$x
text$x	SEGMENT
__unwindfunclet$?InitAniState@SoldierExerciseBtn@@IAEXXZ$0:
  00000	ff 75 f0	 push	 DWORD PTR $T554094[ebp]
  00003	e8 00 00 00 00	 call	 ??3@YAXPAX@Z		; operator delete
  00008	59		 pop	 ecx
  00009	c3		 ret	 0
__unwindfunclet$?InitAniState@SoldierExerciseBtn@@IAEXXZ$1:
  0000a	ff 75 ec	 push	 DWORD PTR $T554098[ebp]
  0000d	e8 00 00 00 00	 call	 ??3@YAXPAX@Z		; operator delete
  00012	59		 pop	 ecx
  00013	c3		 ret	 0
__unwindfunclet$?InitAniState@SoldierExerciseBtn@@IAEXXZ$2:
  00014	ff 75 ec	 push	 DWORD PTR $T554102[ebp]
  00017	e8 00 00 00 00	 call	 ??3@YAXPAX@Z		; operator delete
  0001c	59		 pop	 ecx
  0001d	c3		 ret	 0
__unwindfunclet$?InitAniState@SoldierExerciseBtn@@IAEXXZ$3:
  0001e	ff 75 ec	 push	 DWORD PTR $T554106[ebp]
  00021	e8 00 00 00 00	 call	 ??3@YAXPAX@Z		; operator delete
  00026	59		 pop	 ecx
  00027	c3		 ret	 0
__unwindfunclet$?InitAniState@SoldierExerciseBtn@@IAEXXZ$4:
  00028	ff 75 ec	 push	 DWORD PTR $T554110[ebp]
  0002b	e8 00 00 00 00	 call	 ??3@YAXPAX@Z		; operator delete
  00030	59		 pop	 ecx
  00031	c3		 ret	 0
__unwindfunclet$?InitAniState@SoldierExerciseBtn@@IAEXXZ$5:
  00032	ff 75 ec	 push	 DWORD PTR $T554114[ebp]
  00035	e8 00 00 00 00	 call	 ??3@YAXPAX@Z		; operator delete
  0003a	59		 pop	 ecx
  0003b	c3		 ret	 0
__unwindfunclet$?InitAniState@SoldierExerciseBtn@@IAEXXZ$6:
  0003c	ff 75 ec	 push	 DWORD PTR $T554118[ebp]
  0003f	e8 00 00 00 00	 call	 ??3@YAXPAX@Z		; operator delete
  00044	59		 pop	 ecx
  00045	c3		 ret	 0
__unwindfunclet$?InitAniState@SoldierExerciseBtn@@IAEXXZ$7:
  00046	ff 75 ec	 push	 DWORD PTR $T554122[ebp]
  00049	e8 00 00 00 00	 call	 ??3@YAXPAX@Z		; operator delete
  0004e	59		 pop	 ecx
  0004f	c3		 ret	 0
__ehhandler$?InitAniState@SoldierExerciseBtn@@IAEXXZ:
  00050	8b 54 24 08	 mov	 edx, DWORD PTR [esp+8]
  00054	8d 42 0c	 lea	 eax, DWORD PTR [edx+12]
  00057	8b 4a e8	 mov	 ecx, DWORD PTR [edx-24]
  0005a	33 c8		 xor	 ecx, eax
  0005c	e8 00 00 00 00	 call	 @__security_check_cookie@4
  00061	b8 00 00 00 00	 mov	 eax, OFFSET __ehfuncinfo$?InitAniState@SoldierExerciseBtn@@IAEXXZ
  00066	e9 00 00 00 00	 jmp	 ___CxxFrameHandler3
text$x	ENDS
?InitAniState@SoldierExerciseBtn@@IAEXXZ ENDP		; SoldierExerciseBtn::InitAniState
; Function compile flags: /Ogsp
;	COMDAT ?iwm_create@SoldierExerciseBtn@@UAEXXZ
_TEXT	SEGMENT
?iwm_create@SoldierExerciseBtn@@UAEXXZ PROC		; SoldierExerciseBtn::iwm_create, COMDAT
; _this$ = ecx

; 662  : 	if( m_bArrow )

  00000	80 b9 10 02 00
	00 00		 cmp	 BYTE PTR [ecx+528], 0
  00007	74 05		 je	 SHORT $LN1@iwm_create

; 663  : 		InitAniState();

  00009	e9 00 00 00 00	 jmp	 ?InitAniState@SoldierExerciseBtn@@IAEXXZ ; SoldierExerciseBtn::InitAniState
$LN1@iwm_create:

; 664  : }

  0000e	c3		 ret	 0
?iwm_create@SoldierExerciseBtn@@UAEXXZ ENDP		; SoldierExerciseBtn::iwm_create
_TEXT	ENDS
EXTRN	__imp_?iwm_mouseleave@ioWnd@@UAEXABVioMouse@@@Z:PROC
; Function compile flags: /Ogsp
;	COMDAT ?iwm_mouseleave@SoldierExerciseBtn@@UAEXABVioMouse@@@Z
_TEXT	SEGMENT
_mouse$ = 8						; size = 4
?iwm_mouseleave@SoldierExerciseBtn@@UAEXABVioMouse@@@Z PROC ; SoldierExerciseBtn::iwm_mouseleave, COMDAT
; _this$ = ecx

; 667  : {

  00000	55		 push	 ebp
  00001	8b ec		 mov	 ebp, esp

; 669  : }

  00003	5d		 pop	 ebp

; 668  : 	ioWnd::iwm_mouseleave( mouse );

  00004	ff 25 00 00 00
	00		 jmp	 DWORD PTR __imp_?iwm_mouseleave@ioWnd@@UAEXABVioMouse@@@Z
?iwm_mouseleave@SoldierExerciseBtn@@UAEXABVioMouse@@@Z ENDP ; SoldierExerciseBtn::iwm_mouseleave
_TEXT	ENDS
EXTRN	__imp_?iwm_mouseover@ioButton@@UAEXABVioMouse@@@Z:PROC
; Function compile flags: /Ogsp
;	COMDAT ?iwm_mouseover@SoldierExerciseBtn@@UAEXABVioMouse@@@Z
_TEXT	SEGMENT
_mouse$ = 8						; size = 4
?iwm_mouseover@SoldierExerciseBtn@@UAEXABVioMouse@@@Z PROC ; SoldierExerciseBtn::iwm_mouseover, COMDAT
; _this$ = ecx

; 672  : {

  00000	55		 push	 ebp
  00001	8b ec		 mov	 ebp, esp

; 674  : }

  00003	5d		 pop	 ebp

; 673  : 	ioButton::iwm_mouseover( mouse );

  00004	ff 25 00 00 00
	00		 jmp	 DWORD PTR __imp_?iwm_mouseover@ioButton@@UAEXABVioMouse@@@Z
?iwm_mouseover@SoldierExerciseBtn@@UAEXABVioMouse@@@Z ENDP ; SoldierExerciseBtn::iwm_mouseover
_TEXT	ENDS
PUBLIC	?SetNeedTypeLv@SoldierExerciseBtn@@QAEXW4NeedLevelType@ioSetItemInfo@@H@Z ; SoldierExerciseBtn::SetNeedTypeLv
; Function compile flags: /Ogsp
;	COMDAT ?SetNeedTypeLv@SoldierExerciseBtn@@QAEXW4NeedLevelType@ioSetItemInfo@@H@Z
_TEXT	SEGMENT
_eType$ = 8						; size = 4
_iNeedLv$ = 12						; size = 4
?SetNeedTypeLv@SoldierExerciseBtn@@QAEXW4NeedLevelType@ioSetItemInfo@@H@Z PROC ; SoldierExerciseBtn::SetNeedTypeLv, COMDAT
; _this$ = ecx

; 677  : {

  00000	55		 push	 ebp
  00001	8b ec		 mov	 ebp, esp

; 678  : 	m_eNeedLevelType = eType;

  00003	8b 45 08	 mov	 eax, DWORD PTR _eType$[ebp]
  00006	89 81 50 02 00
	00		 mov	 DWORD PTR [ecx+592], eax

; 679  : 	m_iNeedLevel     = iNeedLv;

  0000c	8b 45 0c	 mov	 eax, DWORD PTR _iNeedLv$[ebp]
  0000f	89 81 08 02 00
	00		 mov	 DWORD PTR [ecx+520], eax

; 680  : }

  00015	5d		 pop	 ebp
  00016	c2 08 00	 ret	 8
?SetNeedTypeLv@SoldierExerciseBtn@@QAEXW4NeedLevelType@ioSetItemInfo@@H@Z ENDP ; SoldierExerciseBtn::SetNeedTypeLv
_TEXT	ENDS
PUBLIC	?ProcessNewEffect@SoldierExerciseBtn@@IAEXXZ	; SoldierExerciseBtn::ProcessNewEffect
EXTRN	__imp_?GetLoopSec@ioFrameTimer@@QBEKXZ:PROC
EXTRN	__imp_?GetSingleton@ioFrameTimer@@SAAAV1@XZ:PROC
; Function compile flags: /Ogsp
;	COMDAT ?ProcessNewEffect@SoldierExerciseBtn@@IAEXXZ
_TEXT	SEGMENT
?ProcessNewEffect@SoldierExerciseBtn@@IAEXXZ PROC	; SoldierExerciseBtn::ProcessNewEffect, COMDAT
; _this$ = ecx

; 683  : {

  00000	56		 push	 esi
  00001	8b f1		 mov	 esi, ecx

; 684  : 	if( m_iMarkType == SHOP_MARK_TYPE_NONE )

  00003	83 be a4 02 00
	00 00		 cmp	 DWORD PTR [esi+676], 0
  0000a	74 5f		 je	 SHORT $LN4@ProcessNew

; 685  : 		return;
; 686  : 
; 687  : 	if( m_dwNewEffectCurTime == 0 )

  0000c	83 be a0 02 00
	00 00		 cmp	 DWORD PTR [esi+672], 0
  00013	75 16		 jne	 SHORT $LN2@ProcessNew

; 688  : 	{
; 689  : 		m_dwNewEffectCurTime = FRAMEGETTIME();

  00015	ff 15 00 00 00
	00		 call	 DWORD PTR __imp_?GetSingleton@ioFrameTimer@@SAAAV1@XZ
  0001b	8b c8		 mov	 ecx, eax
  0001d	ff 15 00 00 00
	00		 call	 DWORD PTR __imp_?GetLoopSec@ioFrameTimer@@QBEKXZ
  00023	89 86 a0 02 00
	00		 mov	 DWORD PTR [esi+672], eax
  00029	5e		 pop	 esi

; 698  : }

  0002a	c3		 ret	 0
$LN2@ProcessNew:
  0002b	57		 push	 edi

; 690  : 		return;
; 691  : 	}
; 692  : 
; 693  : 	if( FRAMEGETTIME() - m_dwNewEffectCurTime < m_dwNewEffectWaitTime )

  0002c	8b 3d 00 00 00
	00		 mov	 edi, DWORD PTR __imp_?GetSingleton@ioFrameTimer@@SAAAV1@XZ
  00032	ff d7		 call	 edi
  00034	8b c8		 mov	 ecx, eax
  00036	ff 15 00 00 00
	00		 call	 DWORD PTR __imp_?GetLoopSec@ioFrameTimer@@QBEKXZ
  0003c	2b 86 a0 02 00
	00		 sub	 eax, DWORD PTR [esi+672]
  00042	3b 86 9c 02 00
	00		 cmp	 eax, DWORD PTR [esi+668]
  00048	72 20		 jb	 SHORT $LN6@ProcessNew

; 694  : 		return;
; 695  : 	m_dwNewEffectCurTime = FRAMEGETTIME();

  0004a	ff d7		 call	 edi
  0004c	8b c8		 mov	 ecx, eax
  0004e	ff 15 00 00 00
	00		 call	 DWORD PTR __imp_?GetLoopSec@ioFrameTimer@@QBEKXZ

; 696  : 
; 697  : 	m_bMarkEffect = !m_bMarkEffect;

  00054	80 be a8 02 00
	00 00		 cmp	 BYTE PTR [esi+680], 0
  0005b	89 86 a0 02 00
	00		 mov	 DWORD PTR [esi+672], eax
  00061	0f 94 c1	 sete	 cl
  00064	88 8e a8 02 00
	00		 mov	 BYTE PTR [esi+680], cl
$LN6@ProcessNew:
  0006a	5f		 pop	 edi
$LN4@ProcessNew:
  0006b	5e		 pop	 esi

; 698  : }

  0006c	c3		 ret	 0
?ProcessNewEffect@SoldierExerciseBtn@@IAEXXZ ENDP	; SoldierExerciseBtn::ProcessNewEffect
_TEXT	ENDS
PUBLIC	?SetPlayStage@SoldierExerciseWnd@@QAEXPAVioPlayStage@@@Z ; SoldierExerciseWnd::SetPlayStage
; Function compile flags: /Ogsp
;	COMDAT ?SetPlayStage@SoldierExerciseWnd@@QAEXPAVioPlayStage@@@Z
_TEXT	SEGMENT
_pPlayStage$ = 8					; size = 4
?SetPlayStage@SoldierExerciseWnd@@QAEXPAVioPlayStage@@@Z PROC ; SoldierExerciseWnd::SetPlayStage, COMDAT
; _this$ = ecx

; 1063 : {

  00000	55		 push	 ebp
  00001	8b ec		 mov	 ebp, esp

; 1064 : 	m_pPlayStage = pPlayStage;

  00003	8b 45 08	 mov	 eax, DWORD PTR _pPlayStage$[ebp]
  00006	89 81 60 01 00
	00		 mov	 DWORD PTR [ecx+352], eax

; 1065 : }

  0000c	5d		 pop	 ebp
  0000d	c2 04 00	 ret	 4
?SetPlayStage@SoldierExerciseWnd@@QAEXPAVioPlayStage@@@Z ENDP ; SoldierExerciseWnd::SetPlayStage
_TEXT	ENDS
PUBLIC	?SetBoughtType@SoldierExerciseWnd@@QAEXW4SoldierBoughtType@SoldierExerciseBtn@@H@Z ; SoldierExerciseWnd::SetBoughtType
EXTRN	__imp_?FindChildWnd@ioWnd@@QAEPAV1@K@Z:PROC
EXTRN	?GetClassType@ioMyInfo@@QAEHH@Z:PROC		; ioMyInfo::GetClassType
EXTRN	?GetSingleton@ioMyInfo@@SAAAV1@XZ:PROC		; ioMyInfo::GetSingleton
EXTRN	___RTDynamicCast:PROC
; Function compile flags: /Ogsp
;	COMDAT ?SetBoughtType@SoldierExerciseWnd@@QAEXW4SoldierBoughtType@SoldierExerciseBtn@@H@Z
_TEXT	SEGMENT
_eBoughtType$ = 8					; size = 4
_iCharArray$ = 12					; size = 4
?SetBoughtType@SoldierExerciseWnd@@QAEXW4SoldierBoughtType@SoldierExerciseBtn@@H@Z PROC ; SoldierExerciseWnd::SetBoughtType, COMDAT
; _this$ = ecx

; 1082 : {

  00000	55		 push	 ebp
  00001	8b ec		 mov	 ebp, esp
  00003	53		 push	 ebx
  00004	56		 push	 esi
  00005	57		 push	 edi

; 1083 : 	int iClassType = g_MyInfo.GetClassType( iCharArray );

  00006	ff 75 0c	 push	 DWORD PTR _iCharArray$[ebp]
  00009	8b f9		 mov	 edi, ecx
  0000b	e8 00 00 00 00	 call	 ?GetSingleton@ioMyInfo@@SAAAV1@XZ ; ioMyInfo::GetSingleton
  00010	8b c8		 mov	 ecx, eax
  00012	e8 00 00 00 00	 call	 ?GetClassType@ioMyInfo@@QAEHH@Z ; ioMyInfo::GetClassType
  00017	8b d8		 mov	 ebx, eax

; 1084 : 
; 1085 : 	for (int i = ID_EXERCISE_CHAR_BUY_BTN1; i <  ID_EXERCISE_CHAR_BUY_BTN10 +1; i++)

  00019	33 f6		 xor	 esi, esi
$LL15@SetBoughtT:

; 1086 : 	{
; 1087 : 		SoldierExerciseBtn *pItemBtn = dynamic_cast<SoldierExerciseBtn *>( FindChildWnd( i ) );

  0001b	6a 00		 push	 0
  0001d	68 00 00 00 00	 push	 OFFSET ??_R0?AVSoldierExerciseBtn@@@8
  00022	68 00 00 00 00	 push	 OFFSET ??_R0?AVioWnd@@@8
  00027	6a 00		 push	 0
  00029	56		 push	 esi
  0002a	8b cf		 mov	 ecx, edi
  0002c	ff 15 00 00 00
	00		 call	 DWORD PTR __imp_?FindChildWnd@ioWnd@@QAEPAV1@K@Z
  00032	50		 push	 eax
  00033	e8 00 00 00 00	 call	 ___RTDynamicCast
  00038	83 c4 14	 add	 esp, 20			; 00000014H

; 1088 : 		if( !pItemBtn )	 continue;

  0003b	85 c0		 test	 eax, eax
  0003d	74 08		 je	 SHORT $LN4@SetBoughtT

; 1089 : 		
; 1090 : 		if( iClassType == pItemBtn->GetClassType() )

  0003f	3b 98 04 02 00
	00		 cmp	 ebx, DWORD PTR [eax+516]
  00045	74 08		 je	 SHORT $LN13@SetBoughtT
$LN4@SetBoughtT:

; 1084 : 
; 1085 : 	for (int i = ID_EXERCISE_CHAR_BUY_BTN1; i <  ID_EXERCISE_CHAR_BUY_BTN10 +1; i++)

  00047	46		 inc	 esi
  00048	83 fe 0a	 cmp	 esi, 10			; 0000000aH
  0004b	7c ce		 jl	 SHORT $LL15@SetBoughtT

; 1089 : 		
; 1090 : 		if( iClassType == pItemBtn->GetClassType() )

  0004d	eb 09		 jmp	 SHORT $LN3@SetBoughtT
$LN13@SetBoughtT:

; 1091 : 		{
; 1092 : 			pItemBtn->SetBoughtType( eBoughtType );

  0004f	8b 4d 08	 mov	 ecx, DWORD PTR _eBoughtType$[ebp]
  00052	89 88 00 02 00
	00		 mov	 DWORD PTR [eax+512], ecx
$LN3@SetBoughtT:
  00058	5f		 pop	 edi
  00059	5e		 pop	 esi
  0005a	5b		 pop	 ebx

; 1093 : 			break; ///////
; 1094 : 		}		
; 1095 : 	}
; 1096 : }

  0005b	5d		 pop	 ebp
  0005c	c2 08 00	 ret	 8
?SetBoughtType@SoldierExerciseWnd@@QAEXW4SoldierBoughtType@SoldierExerciseBtn@@H@Z ENDP ; SoldierExerciseWnd::SetBoughtType
_TEXT	ENDS
PUBLIC	?SetOwnerChangeWaitState@SoldierExerciseWnd@@IAEXXZ ; SoldierExerciseWnd::SetOwnerChangeWaitState
EXTRN	?SetChangeWaitState@ioBaseChar@@QAEXH_N@Z:PROC	; ioBaseChar::SetChangeWaitState
EXTRN	?IsOneMyChar@ioPlayStage@@QAE_NXZ:PROC		; ioPlayStage::IsOneMyChar
EXTRN	?GetOwnerChar@ioPlayStage@@QAEPAVioBaseChar@@XZ:PROC ; ioPlayStage::GetOwnerChar
EXTRN	?GetModeType@ioPlayStage@@QBE?AW4ModeType@@XZ:PROC ; ioPlayStage::GetModeType
; Function compile flags: /Ogsp
;	COMDAT ?SetOwnerChangeWaitState@SoldierExerciseWnd@@IAEXXZ
_TEXT	SEGMENT
?SetOwnerChangeWaitState@SoldierExerciseWnd@@IAEXXZ PROC ; SoldierExerciseWnd::SetOwnerChangeWaitState, COMDAT
; _this$ = ecx

; 1099 : {

  00000	56		 push	 esi
  00001	8b f1		 mov	 esi, ecx

; 1100 : 	if( !m_pPlayStage ) return;

  00003	8b 8e 60 01 00
	00		 mov	 ecx, DWORD PTR [esi+352]
  00009	85 c9		 test	 ecx, ecx
  0000b	74 3b		 je	 SHORT $LN1@SetOwnerCh

; 1101 : 
; 1102 : 	if( m_pPlayStage->GetModeType() == MT_MYROOM )

  0000d	e8 00 00 00 00	 call	 ?GetModeType@ioPlayStage@@QBE?AW4ModeType@@XZ ; ioPlayStage::GetModeType
  00012	83 f8 18	 cmp	 eax, 24			; 00000018H
  00015	74 31		 je	 SHORT $LN1@SetOwnerCh

; 1103 : 		return;
; 1104 : 
; 1105 : 	ioBaseChar *pOwner = m_pPlayStage->GetOwnerChar();

  00017	8b 8e 60 01 00
	00		 mov	 ecx, DWORD PTR [esi+352]
  0001d	57		 push	 edi
  0001e	e8 00 00 00 00	 call	 ?GetOwnerChar@ioPlayStage@@QAEPAVioBaseChar@@XZ ; ioPlayStage::GetOwnerChar
  00023	8b f8		 mov	 edi, eax

; 1106 : 	if( !pOwner ) return;

  00025	85 ff		 test	 edi, edi
  00027	74 1e		 je	 SHORT $LN9@SetOwnerCh

; 1107 : 
; 1108 : 	if( m_pPlayStage->IsOneMyChar() )

  00029	8b 8e 60 01 00
	00		 mov	 ecx, DWORD PTR [esi+352]
  0002f	e8 00 00 00 00	 call	 ?IsOneMyChar@ioPlayStage@@QAE_NXZ ; ioPlayStage::IsOneMyChar
  00034	84 c0		 test	 al, al
  00036	74 0f		 je	 SHORT $LN9@SetOwnerCh

; 1109 : 		pOwner->SetChangeWaitState( pOwner->GetSelectCharArray(), false );

  00038	6a 00		 push	 0
  0003a	ff b7 24 03 00
	00		 push	 DWORD PTR [edi+804]
  00040	8b cf		 mov	 ecx, edi
  00042	e8 00 00 00 00	 call	 ?SetChangeWaitState@ioBaseChar@@QAEXH_N@Z ; ioBaseChar::SetChangeWaitState
$LN9@SetOwnerCh:
  00047	5f		 pop	 edi
$LN1@SetOwnerCh:
  00048	5e		 pop	 esi

; 1110 : }

  00049	c3		 ret	 0
?SetOwnerChangeWaitState@SoldierExerciseWnd@@IAEXXZ ENDP ; SoldierExerciseWnd::SetOwnerChangeWaitState
_TEXT	ENDS
PUBLIC	__real@3f266666
PUBLIC	??_C@_0BI@MPIKCPLA@UIIconPack3?$CDempty_large?$AA@ ; `string'
PUBLIC	?SetBlankIcon@SoldierExerciseWnd@@IAEXH@Z	; SoldierExerciseWnd::SetBlankIcon
EXTRN	__imp_?ShowWnd@ioWnd@@QAEXXZ:PROC
EXTRN	__imp_??1ioHashString@@QAE@XZ:PROC
EXTRN	__imp_?CreateImageByFullName@ioUIImageSetManager@@QAEPAVioUIRenderImage@@ABVioHashString@@_N@Z:PROC
EXTRN	__imp_?GetSingleton@ioUIImageSetManager@@SAAAV1@XZ:PROC
EXTRN	__imp_??0ioHashString@@QAE@PBD@Z:PROC
;	COMDAT __real@3f266666
CONST	SEGMENT
__real@3f266666 DD 03f266666r			; 0.65
CONST	ENDS
;	COMDAT ??_C@_0BI@MPIKCPLA@UIIconPack3?$CDempty_large?$AA@
CONST	SEGMENT
??_C@_0BI@MPIKCPLA@UIIconPack3?$CDempty_large?$AA@ DB 'UIIconPack3#empty_'
	DB	'large', 00H					; `string'
CONST	ENDS
;	COMDAT xdata$x
xdata$x	SEGMENT
__unwindtable$?SetBlankIcon@SoldierExerciseWnd@@IAEXH@Z DD 0ffffffffH
	DD	FLAT:__unwindfunclet$?SetBlankIcon@SoldierExerciseWnd@@IAEXH@Z$0
__ehfuncinfo$?SetBlankIcon@SoldierExerciseWnd@@IAEXH@Z DD 019930522H
	DD	01H
	DD	FLAT:__unwindtable$?SetBlankIcon@SoldierExerciseWnd@@IAEXH@Z
	DD	2 DUP(00H)
	DD	2 DUP(00H)
	DD	00H
	DD	01H
; Function compile flags: /Ogsp
xdata$x	ENDS
;	COMDAT ?SetBlankIcon@SoldierExerciseWnd@@IAEXH@Z
_TEXT	SEGMENT
$T554187 = -32						; size = 16
_this$ = -16						; size = 4
__$EHRec$ = -12						; size = 12
_a_iWndID$ = 8						; size = 4
?SetBlankIcon@SoldierExerciseWnd@@IAEXH@Z PROC		; SoldierExerciseWnd::SetBlankIcon, COMDAT
; _this$ = ecx

; 1190 : {

  00000	6a 14		 push	 20			; 00000014H
  00002	b8 00 00 00 00	 mov	 eax, __ehhandler$?SetBlankIcon@SoldierExerciseWnd@@IAEXH@Z
  00007	e8 00 00 00 00	 call	 __EH_prolog3
  0000c	89 4d f0	 mov	 DWORD PTR _this$[ebp], ecx

; 1191 : 	SoldierExerciseBtn *pItemBtn = dynamic_cast<SoldierExerciseBtn *>( FindChildWnd( a_iWndID ) );

  0000f	33 ff		 xor	 edi, edi
  00011	57		 push	 edi
  00012	68 00 00 00 00	 push	 OFFSET ??_R0?AVSoldierExerciseBtn@@@8
  00017	68 00 00 00 00	 push	 OFFSET ??_R0?AVioWnd@@@8
  0001c	57		 push	 edi
  0001d	ff 75 08	 push	 DWORD PTR _a_iWndID$[ebp]
  00020	ff 15 00 00 00
	00		 call	 DWORD PTR __imp_?FindChildWnd@ioWnd@@QAEPAV1@K@Z
  00026	50		 push	 eax
  00027	e8 00 00 00 00	 call	 ___RTDynamicCast
  0002c	8b f0		 mov	 esi, eax
  0002e	83 c4 14	 add	 esp, 20			; 00000014H

; 1192 : 	if( !pItemBtn ) return;

  00031	3b f7		 cmp	 esi, edi
  00033	0f 84 81 00 00
	00		 je	 $LN10@SetBlankIc

; 1193 : 
; 1194 : 	ioUIRenderImage *pImg = g_UIImageSetMgr.CreateImageByFullName( "UIIconPack3#empty_large" );

  00039	68 00 00 00 00	 push	 OFFSET ??_C@_0BI@MPIKCPLA@UIIconPack3?$CDempty_large?$AA@
  0003e	8d 4d e0	 lea	 ecx, DWORD PTR $T554187[ebp]
  00041	ff 15 00 00 00
	00		 call	 DWORD PTR __imp_??0ioHashString@@QAE@PBD@Z
  00047	8d 45 e0	 lea	 eax, DWORD PTR $T554187[ebp]
  0004a	57		 push	 edi
  0004b	50		 push	 eax
  0004c	89 7d fc	 mov	 DWORD PTR __$EHRec$[ebp+8], edi
  0004f	ff 15 00 00 00
	00		 call	 DWORD PTR __imp_?GetSingleton@ioUIImageSetManager@@SAAAV1@XZ
  00055	8b c8		 mov	 ecx, eax
  00057	ff 15 00 00 00
	00		 call	 DWORD PTR __imp_?CreateImageByFullName@ioUIImageSetManager@@QAEPAVioUIRenderImage@@ABVioHashString@@_N@Z
  0005d	83 4d fc ff	 or	 DWORD PTR __$EHRec$[ebp+8], -1
  00061	8d 4d e0	 lea	 ecx, DWORD PTR $T554187[ebp]
  00064	8b d8		 mov	 ebx, eax
  00066	ff 15 00 00 00
	00		 call	 DWORD PTR __imp_??1ioHashString@@QAE@XZ

; 1195 : 	if( !pImg )	return;

  0006c	3b df		 cmp	 ebx, edi
  0006e	74 4a		 je	 SHORT $LN10@SetBlankIc

; 1196 : 
; 1197 : 	if( m_iExerciseStyle == EXERCISE_GENERAL )

  00070	8b 45 f0	 mov	 eax, DWORD PTR _this$[ebp]
  00073	83 b8 64 01 00
	00 01		 cmp	 DWORD PTR [eax+356], 1

; 1198 : 		pItemBtn->SetSoldierIcon( pImg, ICON_SCALE, false );

  0007a	f3 0f 10 05 00
	00 00 00	 movss	 xmm0, DWORD PTR __real@3f266666
  00082	75 03		 jne	 SHORT $LN2@SetBlankIc
  00084	57		 push	 edi

; 1199 : 	else

  00085	eb 02		 jmp	 SHORT $LN13@SetBlankIc
$LN2@SetBlankIc:

; 1200 : 		pItemBtn->SetSoldierIcon( pImg, ICON_SCALE, true );

  00087	6a 01		 push	 1
$LN13@SetBlankIc:
  00089	51		 push	 ecx
  0008a	f3 0f 11 04 24	 movss	 DWORD PTR [esp], xmm0
  0008f	53		 push	 ebx
  00090	8b ce		 mov	 ecx, esi
  00092	e8 00 00 00 00	 call	 ?SetSoldierIcon@SoldierExerciseBtn@@QAEXPAVioUIRenderImage@@M_N@Z ; SoldierExerciseBtn::SetSoldierIcon

; 1201 : 	pItemBtn->SetBoughtType( SoldierExerciseBtn::SBT_NONE );
; 1202 : 	pItemBtn->ShowWnd();		

  00097	8b ce		 mov	 ecx, esi
  00099	89 be 00 02 00
	00		 mov	 DWORD PTR [esi+512], edi
  0009f	ff 15 00 00 00
	00		 call	 DWORD PTR __imp_?ShowWnd@ioWnd@@QAEXXZ

; 1203 : 	pItemBtn->SetInActive();

  000a5	8b 06		 mov	 eax, DWORD PTR [esi]
  000a7	8b ce		 mov	 ecx, esi
  000a9	ff 50 24	 call	 DWORD PTR [eax+36]

; 1204 : 	pItemBtn->SetNeedTypeLv( ioSetItemInfo::NLT_NONE, -1 );

  000ac	83 8e 50 02 00
	00 ff		 or	 DWORD PTR [esi+592], -1
  000b3	83 8e 08 02 00
	00 ff		 or	 DWORD PTR [esi+520], -1
$LN10@SetBlankIc:

; 1205 : }

  000ba	e8 00 00 00 00	 call	 __EH_epilog3
  000bf	c2 04 00	 ret	 4
_TEXT	ENDS
;	COMDAT text$x
text$x	SEGMENT
__unwindfunclet$?SetBlankIcon@SoldierExerciseWnd@@IAEXH@Z$0:
  00000	8d 4d e0	 lea	 ecx, DWORD PTR $T554187[ebp]
  00003	ff 25 00 00 00
	00		 jmp	 DWORD PTR __imp_??1ioHashString@@QAE@XZ
__ehhandler$?SetBlankIcon@SoldierExerciseWnd@@IAEXH@Z:
  00009	8b 54 24 08	 mov	 edx, DWORD PTR [esp+8]
  0000d	8d 42 0c	 lea	 eax, DWORD PTR [edx+12]
  00010	8b 4a dc	 mov	 ecx, DWORD PTR [edx-36]
  00013	33 c8		 xor	 ecx, eax
  00015	e8 00 00 00 00	 call	 @__security_check_cookie@4
  0001a	b8 00 00 00 00	 mov	 eax, OFFSET __ehfuncinfo$?SetBlankIcon@SoldierExerciseWnd@@IAEXH@Z
  0001f	e9 00 00 00 00	 jmp	 ___CxxFrameHandler3
text$x	ENDS
?SetBlankIcon@SoldierExerciseWnd@@IAEXH@Z ENDP		; SoldierExerciseWnd::SetBlankIcon
PUBLIC	?UpdatePage@SoldierExerciseWnd@@IAEX_N@Z	; SoldierExerciseWnd::UpdatePage
EXTRN	__imp_?SetChildInActive@ioWnd@@QAEXK@Z:PROC
EXTRN	__imp_?SetChildActive@ioWnd@@QAEXK@Z:PROC
; Function compile flags: /Ogsp
;	COMDAT ?UpdatePage@SoldierExerciseWnd@@IAEX_N@Z
_TEXT	SEGMENT
_bPlus$ = 8						; size = 1
?UpdatePage@SoldierExerciseWnd@@IAEX_N@Z PROC		; SoldierExerciseWnd::UpdatePage, COMDAT
; _this$ = ecx

; 1208 : {

  00000	55		 push	 ebp
  00001	8b ec		 mov	 ebp, esp

; 1209 : 	if( bPlus )

  00003	33 d2		 xor	 edx, edx
  00005	56		 push	 esi
  00006	8b f1		 mov	 esi, ecx
  00008	38 55 08	 cmp	 BYTE PTR _bPlus$[ebp], dl
  0000b	74 52		 je	 SHORT $LN12@UpdatePage

; 1210 : 	{
; 1211 : 		m_iCurPage++;

  0000d	ff 86 68 01 00
	00		 inc	 DWORD PTR [esi+360]
  00013	8b 8e 68 01 00
	00		 mov	 ecx, DWORD PTR [esi+360]

; 1212 : 		if( !COMPARE( m_iCurPage, 0, m_iMaxPage ) )

  00019	78 0a		 js	 SHORT $LN10@UpdatePage
  0001b	8b 86 6c 01 00
	00		 mov	 eax, DWORD PTR [esi+364]
  00021	3b c8		 cmp	 ecx, eax
  00023	7c 0f		 jl	 SHORT $LN11@UpdatePage
$LN10@UpdatePage:

; 1213 : 			m_iCurPage = m_iMaxPage-1;

  00025	8b 86 6c 01 00
	00		 mov	 eax, DWORD PTR [esi+364]
  0002b	8d 48 ff	 lea	 ecx, DWORD PTR [eax-1]
  0002e	89 8e 68 01 00
	00		 mov	 DWORD PTR [esi+360], ecx
$LN11@UpdatePage:

; 1214 : 
; 1215 : 		if( m_iCurPage == (m_iMaxPage-1) )

  00034	8d 48 ff	 lea	 ecx, DWORD PTR [eax-1]
  00037	39 8e 68 01 00
	00		 cmp	 DWORD PTR [esi+360], ecx
  0003d	75 19		 jne	 SHORT $LN9@UpdatePage

; 1216 : 		{
; 1217 : 			if( m_iMaxPage > 1 )

  0003f	83 f8 01	 cmp	 eax, 1
  00042	7e 0d		 jle	 SHORT $LN8@UpdatePage

; 1218 : 				SetChildActive( ID_UP_BTN );

  00044	68 20 4e 00 00	 push	 20000			; 00004e20H
  00049	8b ce		 mov	 ecx, esi
  0004b	ff 15 00 00 00
	00		 call	 DWORD PTR __imp_?SetChildActive@ioWnd@@QAEXK@Z
$LN8@UpdatePage:

; 1219 : 			SetChildInActive( ID_DOWN_BTN );

  00051	68 21 4e 00 00	 push	 20001			; 00004e21H

; 1220 : 		}
; 1221 : 		else

  00056	eb 46		 jmp	 SHORT $LN16@UpdatePage
$LN9@UpdatePage:

; 1222 : 			SetChildActive( ID_UP_BTN );

  00058	68 20 4e 00 00	 push	 20000			; 00004e20H

; 1223 : 	}
; 1224 : 	else

  0005d	eb 4e		 jmp	 SHORT $LN15@UpdatePage
$LN12@UpdatePage:

; 1225 : 	{
; 1226 : 		m_iCurPage--;

  0005f	ff 8e 68 01 00
	00		 dec	 DWORD PTR [esi+360]
  00065	8b 8e 68 01 00
	00		 mov	 ecx, DWORD PTR [esi+360]

; 1227 : 		if( !COMPARE( m_iCurPage, 0, m_iMaxPage ) )

  0006b	78 08		 js	 SHORT $LN4@UpdatePage
  0006d	3b 8e 6c 01 00
	00		 cmp	 ecx, DWORD PTR [esi+364]
  00073	7c 06		 jl	 SHORT $LN5@UpdatePage
$LN4@UpdatePage:

; 1228 : 			m_iCurPage = 0;

  00075	89 96 68 01 00
	00		 mov	 DWORD PTR [esi+360], edx
$LN5@UpdatePage:

; 1229 : 
; 1230 : 		if( m_iCurPage == 0 )

  0007b	39 96 68 01 00
	00		 cmp	 DWORD PTR [esi+360], edx
  00081	75 25		 jne	 SHORT $LN3@UpdatePage

; 1231 : 		{
; 1232 : 			if( m_iMaxPage > 1 )

  00083	83 be 6c 01 00
	00 01		 cmp	 DWORD PTR [esi+364], 1
  0008a	7e 0d		 jle	 SHORT $LN2@UpdatePage

; 1233 : 				SetChildActive( ID_DOWN_BTN );

  0008c	68 21 4e 00 00	 push	 20001			; 00004e21H
  00091	8b ce		 mov	 ecx, esi
  00093	ff 15 00 00 00
	00		 call	 DWORD PTR __imp_?SetChildActive@ioWnd@@QAEXK@Z
$LN2@UpdatePage:

; 1234 : 			SetChildInActive( ID_UP_BTN );

  00099	68 20 4e 00 00	 push	 20000			; 00004e20H
$LN16@UpdatePage:
  0009e	8b ce		 mov	 ecx, esi
  000a0	ff 15 00 00 00
	00		 call	 DWORD PTR __imp_?SetChildInActive@ioWnd@@QAEXK@Z

; 1235 : 		}
; 1236 : 		else

  000a6	eb 0d		 jmp	 SHORT $LN1@UpdatePage
$LN3@UpdatePage:

; 1237 : 			SetChildActive( ID_DOWN_BTN );

  000a8	68 21 4e 00 00	 push	 20001			; 00004e21H
$LN15@UpdatePage:
  000ad	8b ce		 mov	 ecx, esi
  000af	ff 15 00 00 00
	00		 call	 DWORD PTR __imp_?SetChildActive@ioWnd@@QAEXK@Z
$LN1@UpdatePage:
  000b5	5e		 pop	 esi

; 1238 : 	}
; 1239 : }

  000b6	5d		 pop	 ebp
  000b7	c2 04 00	 ret	 4
?UpdatePage@SoldierExerciseWnd@@IAEX_N@Z ENDP		; SoldierExerciseWnd::UpdatePage
_TEXT	ENDS
PUBLIC	?SetMaxPage@SoldierExerciseWnd@@IAEXXZ		; SoldierExerciseWnd::SetMaxPage
EXTRN	?GetActiveCharCount@ioMyInfo@@QAEHXZ:PROC	; ioMyInfo::GetActiveCharCount
EXTRN	?MaxActiveClassPrice@ioClassPrice@@QAEHXZ:PROC	; ioClassPrice::MaxActiveClassPrice
EXTRN	?GetSingleton@ioClassPrice@@SAAAV1@XZ:PROC	; ioClassPrice::GetSingleton
; Function compile flags: /Ogsp
;	COMDAT ?SetMaxPage@SoldierExerciseWnd@@IAEXXZ
_TEXT	SEGMENT
?SetMaxPage@SoldierExerciseWnd@@IAEXXZ PROC		; SoldierExerciseWnd::SetMaxPage, COMDAT
; _this$ = ecx

; 1242 : {

  00000	56		 push	 esi
  00001	57		 push	 edi
  00002	8b f9		 mov	 edi, ecx

; 1243 : 	int iUseCharCnt = g_ClassPrice.MaxActiveClassPrice()-g_MyInfo.GetActiveCharCount();

  00004	e8 00 00 00 00	 call	 ?GetSingleton@ioClassPrice@@SAAAV1@XZ ; ioClassPrice::GetSingleton
  00009	8b c8		 mov	 ecx, eax
  0000b	e8 00 00 00 00	 call	 ?MaxActiveClassPrice@ioClassPrice@@QAEHXZ ; ioClassPrice::MaxActiveClassPrice
  00010	8b f0		 mov	 esi, eax
  00012	e8 00 00 00 00	 call	 ?GetSingleton@ioMyInfo@@SAAAV1@XZ ; ioMyInfo::GetSingleton
  00017	8b c8		 mov	 ecx, eax
  00019	e8 00 00 00 00	 call	 ?GetActiveCharCount@ioMyInfo@@QAEHXZ ; ioMyInfo::GetActiveCharCount
  0001e	2b f0		 sub	 esi, eax

; 1244 : 	if( iUseCharCnt <= 0 )

  00020	85 f6		 test	 esi, esi
  00022	7f 09		 jg	 SHORT $LN2@SetMaxPage

; 1245 : 	{	
; 1246 : 		m_iMaxPage = 0;

  00024	83 a7 6c 01 00
	00 00		 and	 DWORD PTR [edi+364], 0

; 1247 : 		return;

  0002b	eb 19		 jmp	 SHORT $LN1@SetMaxPage
$LN2@SetMaxPage:

; 1248 : 	}
; 1249 : 
; 1250 : 	m_iMaxPage = ( iUseCharCnt / MAX_BUY_BTN );

  0002d	8b c6		 mov	 eax, esi
  0002f	6a 0a		 push	 10			; 0000000aH
  00031	99		 cdq
  00032	59		 pop	 ecx
  00033	f7 f9		 idiv	 ecx
  00035	89 87 6c 01 00
	00		 mov	 DWORD PTR [edi+364], eax

; 1251 : 	if( ( iUseCharCnt % MAX_BUY_BTN ) != 0 )

  0003b	85 d2		 test	 edx, edx
  0003d	74 07		 je	 SHORT $LN1@SetMaxPage

; 1252 : 		m_iMaxPage++;

  0003f	40		 inc	 eax
  00040	89 87 6c 01 00
	00		 mov	 DWORD PTR [edi+364], eax
$LN1@SetMaxPage:

; 1253 : }

  00046	5f		 pop	 edi
  00047	5e		 pop	 esi
  00048	c3		 ret	 0
?SetMaxPage@SoldierExerciseWnd@@IAEXXZ ENDP		; SoldierExerciseWnd::SetMaxPage
_TEXT	ENDS
PUBLIC	?InitAniState@SoldierExerciseWnd@@IAEXXZ	; SoldierExerciseWnd::InitAniState
;	COMDAT xdata$x
xdata$x	SEGMENT
__unwindtable$?InitAniState@SoldierExerciseWnd@@IAEXXZ DD 0ffffffffH
	DD	FLAT:__unwindfunclet$?InitAniState@SoldierExerciseWnd@@IAEXXZ$0
	DD	0ffffffffH
	DD	FLAT:__unwindfunclet$?InitAniState@SoldierExerciseWnd@@IAEXXZ$1
	DD	0ffffffffH
	DD	FLAT:__unwindfunclet$?InitAniState@SoldierExerciseWnd@@IAEXXZ$2
__ehfuncinfo$?InitAniState@SoldierExerciseWnd@@IAEXXZ DD 019930522H
	DD	03H
	DD	FLAT:__unwindtable$?InitAniState@SoldierExerciseWnd@@IAEXXZ
	DD	2 DUP(00H)
	DD	2 DUP(00H)
	DD	00H
	DD	01H
; Function compile flags: /Ogsp
xdata$x	ENDS
;	COMDAT ?InitAniState@SoldierExerciseWnd@@IAEXXZ
_TEXT	SEGMENT
$T554222 = -20						; size = 4
$T554218 = -20						; size = 4
tv162 = -16						; size = 4
$T554214 = -16						; size = 4
__$EHRec$ = -12						; size = 12
?InitAniState@SoldierExerciseWnd@@IAEXXZ PROC		; SoldierExerciseWnd::InitAniState, COMDAT
; _this$ = ecx

; 1256 : {

  00000	6a 08		 push	 8
  00002	b8 00 00 00 00	 mov	 eax, __ehhandler$?InitAniState@SoldierExerciseWnd@@IAEXXZ
  00007	e8 00 00 00 00	 call	 __EH_prolog3
  0000c	8b d9		 mov	 ebx, ecx

; 1257 : 	enum { DELAY_DEFAULT = 100, };
; 1258 : 
; 1259 : 	FSMState *pState = new FSMState( AT_NONE );

  0000e	6a 38		 push	 56			; 00000038H
  00010	e8 00 00 00 00	 call	 ??2@YAPAXI@Z		; operator new
  00015	59		 pop	 ecx
  00016	89 45 f0	 mov	 DWORD PTR $T554214[ebp], eax
  00019	33 ff		 xor	 edi, edi
  0001b	89 7d fc	 mov	 DWORD PTR __$EHRec$[ebp+8], edi
  0001e	3b c7		 cmp	 eax, edi
  00020	74 0a		 je	 SHORT $LN6@InitAniSta@2
  00022	57		 push	 edi
  00023	8b c8		 mov	 ecx, eax
  00025	e8 00 00 00 00	 call	 ??0FSMState@@QAE@H@Z	; FSMState::FSMState
  0002a	8b f8		 mov	 edi, eax
$LN6@InitAniSta@2:
  0002c	83 4d fc ff	 or	 DWORD PTR __$EHRec$[ebp+8], -1

; 1260 : 	if( pState )

  00030	33 f6		 xor	 esi, esi
  00032	46		 inc	 esi
  00033	85 ff		 test	 edi, edi
  00035	74 0c		 je	 SHORT $LN3@InitAniSta@2

; 1261 : 		pState->Add( AT_NONE, AT_FRONT, DELAY_DEFAULT );

  00037	6a 64		 push	 100			; 00000064H
  00039	56		 push	 esi
  0003a	6a 00		 push	 0
  0003c	8b cf		 mov	 ecx, edi
  0003e	e8 00 00 00 00	 call	 ?Add@FSMState@@QAEXHHH@Z ; FSMState::Add
$LN3@InitAniSta@2:

; 1262 : 	m_AniState.Add( pState );

  00043	8d 8b 70 01 00
	00		 lea	 ecx, DWORD PTR [ebx+368]
  00049	57		 push	 edi
  0004a	89 4d f0	 mov	 DWORD PTR tv162[ebp], ecx
  0004d	e8 00 00 00 00	 call	 ?Add@FSMStateMgr@@QAEXPAVFSMState@@@Z ; FSMStateMgr::Add

; 1263 : 
; 1264 : 	pState = new FSMState( AT_FRONT );

  00052	6a 38		 push	 56			; 00000038H
  00054	e8 00 00 00 00	 call	 ??2@YAPAXI@Z		; operator new
  00059	59		 pop	 ecx
  0005a	89 45 ec	 mov	 DWORD PTR $T554218[ebp], eax
  0005d	89 75 fc	 mov	 DWORD PTR __$EHRec$[ebp+8], esi
  00060	85 c0		 test	 eax, eax
  00062	74 0c		 je	 SHORT $LN8@InitAniSta@2
  00064	56		 push	 esi
  00065	8b c8		 mov	 ecx, eax
  00067	e8 00 00 00 00	 call	 ??0FSMState@@QAE@H@Z	; FSMState::FSMState
  0006c	8b d8		 mov	 ebx, eax
  0006e	eb 02		 jmp	 SHORT $LN9@InitAniSta@2
$LN8@InitAniSta@2:
  00070	33 db		 xor	 ebx, ebx
$LN9@InitAniSta@2:
  00072	83 4d fc ff	 or	 DWORD PTR __$EHRec$[ebp+8], -1

; 1265 : 	if( pState )

  00076	6a 02		 push	 2
  00078	5f		 pop	 edi
  00079	85 db		 test	 ebx, ebx
  0007b	74 0b		 je	 SHORT $LN2@InitAniSta@2

; 1266 : 		pState->Add( AT_FRONT, AT_BACK, DELAY_DEFAULT );

  0007d	6a 64		 push	 100			; 00000064H
  0007f	57		 push	 edi
  00080	56		 push	 esi
  00081	8b cb		 mov	 ecx, ebx
  00083	e8 00 00 00 00	 call	 ?Add@FSMState@@QAEXHHH@Z ; FSMState::Add
$LN2@InitAniSta@2:

; 1267 : 	m_AniState.Add( pState );

  00088	8b 4d f0	 mov	 ecx, DWORD PTR tv162[ebp]
  0008b	53		 push	 ebx
  0008c	e8 00 00 00 00	 call	 ?Add@FSMStateMgr@@QAEXPAVFSMState@@@Z ; FSMStateMgr::Add

; 1268 : 
; 1269 : 	pState = new FSMState( AT_BACK );

  00091	6a 38		 push	 56			; 00000038H
  00093	e8 00 00 00 00	 call	 ??2@YAPAXI@Z		; operator new
  00098	59		 pop	 ecx
  00099	89 45 ec	 mov	 DWORD PTR $T554222[ebp], eax
  0009c	89 7d fc	 mov	 DWORD PTR __$EHRec$[ebp+8], edi
  0009f	85 c0		 test	 eax, eax
  000a1	74 0c		 je	 SHORT $LN10@InitAniSta@2
  000a3	57		 push	 edi
  000a4	8b c8		 mov	 ecx, eax
  000a6	e8 00 00 00 00	 call	 ??0FSMState@@QAE@H@Z	; FSMState::FSMState
  000ab	8b f0		 mov	 esi, eax
  000ad	eb 02		 jmp	 SHORT $LN11@InitAniSta@2
$LN10@InitAniSta@2:
  000af	33 f6		 xor	 esi, esi
$LN11@InitAniSta@2:
  000b1	83 4d fc ff	 or	 DWORD PTR __$EHRec$[ebp+8], -1

; 1270 : 	if( pState )

  000b5	85 f6		 test	 esi, esi
  000b7	74 0c		 je	 SHORT $LN1@InitAniSta@2

; 1271 : 		pState->Add( AT_BACK, AT_NONE, DELAY_DEFAULT );

  000b9	6a 64		 push	 100			; 00000064H
  000bb	6a 00		 push	 0
  000bd	57		 push	 edi
  000be	8b ce		 mov	 ecx, esi
  000c0	e8 00 00 00 00	 call	 ?Add@FSMState@@QAEXHHH@Z ; FSMState::Add
$LN1@InitAniSta@2:

; 1272 : 	m_AniState.Add( pState );

  000c5	8b 4d f0	 mov	 ecx, DWORD PTR tv162[ebp]
  000c8	56		 push	 esi
  000c9	e8 00 00 00 00	 call	 ?Add@FSMStateMgr@@QAEXPAVFSMState@@@Z ; FSMStateMgr::Add

; 1273 : 
; 1274 : 	m_AniState.SetCurState( AT_NONE );

  000ce	8b 4d f0	 mov	 ecx, DWORD PTR tv162[ebp]
  000d1	6a 00		 push	 0
  000d3	e8 00 00 00 00	 call	 ?SetCurState@FSMStateMgr@@QAEXH@Z ; FSMStateMgr::SetCurState

; 1275 : }

  000d8	e8 00 00 00 00	 call	 __EH_epilog3
  000dd	c3		 ret	 0
_TEXT	ENDS
;	COMDAT text$x
text$x	SEGMENT
__unwindfunclet$?InitAniState@SoldierExerciseWnd@@IAEXXZ$0:
  00000	ff 75 f0	 push	 DWORD PTR $T554214[ebp]
  00003	e8 00 00 00 00	 call	 ??3@YAXPAX@Z		; operator delete
  00008	59		 pop	 ecx
  00009	c3		 ret	 0
__unwindfunclet$?InitAniState@SoldierExerciseWnd@@IAEXXZ$1:
  0000a	ff 75 ec	 push	 DWORD PTR $T554218[ebp]
  0000d	e8 00 00 00 00	 call	 ??3@YAXPAX@Z		; operator delete
  00012	59		 pop	 ecx
  00013	c3		 ret	 0
__unwindfunclet$?InitAniState@SoldierExerciseWnd@@IAEXXZ$2:
  00014	ff 75 ec	 push	 DWORD PTR $T554222[ebp]
  00017	e8 00 00 00 00	 call	 ??3@YAXPAX@Z		; operator delete
  0001c	59		 pop	 ecx
  0001d	c3		 ret	 0
__ehhandler$?InitAniState@SoldierExerciseWnd@@IAEXXZ:
  0001e	8b 54 24 08	 mov	 edx, DWORD PTR [esp+8]
  00022	8d 42 0c	 lea	 eax, DWORD PTR [edx+12]
  00025	8b 4a e8	 mov	 ecx, DWORD PTR [edx-24]
  00028	33 c8		 xor	 ecx, eax
  0002a	e8 00 00 00 00	 call	 @__security_check_cookie@4
  0002f	b8 00 00 00 00	 mov	 eax, OFFSET __ehfuncinfo$?InitAniState@SoldierExerciseWnd@@IAEXXZ
  00034	e9 00 00 00 00	 jmp	 ___CxxFrameHandler3
text$x	ENDS
?InitAniState@SoldierExerciseWnd@@IAEXXZ ENDP		; SoldierExerciseWnd::InitAniState
PUBLIC	?InitBigArrowAniState@SoldierExerciseWnd@@IAEXXZ ; SoldierExerciseWnd::InitBigArrowAniState
;	COMDAT xdata$x
xdata$x	SEGMENT
__unwindtable$?InitBigArrowAniState@SoldierExerciseWnd@@IAEXXZ DD 0ffffffffH
	DD	FLAT:__unwindfunclet$?InitBigArrowAniState@SoldierExerciseWnd@@IAEXXZ$0
	DD	0ffffffffH
	DD	FLAT:__unwindfunclet$?InitBigArrowAniState@SoldierExerciseWnd@@IAEXXZ$1
__ehfuncinfo$?InitBigArrowAniState@SoldierExerciseWnd@@IAEXXZ DD 019930522H
	DD	02H
	DD	FLAT:__unwindtable$?InitBigArrowAniState@SoldierExerciseWnd@@IAEXXZ
	DD	2 DUP(00H)
	DD	2 DUP(00H)
	DD	00H
	DD	01H
; Function compile flags: /Ogsp
xdata$x	ENDS
;	COMDAT ?InitBigArrowAniState@SoldierExerciseWnd@@IAEXXZ
_TEXT	SEGMENT
$T554241 = -16						; size = 4
$T554237 = -16						; size = 4
__$EHRec$ = -12						; size = 12
?InitBigArrowAniState@SoldierExerciseWnd@@IAEXXZ PROC	; SoldierExerciseWnd::InitBigArrowAniState, COMDAT
; _this$ = ecx

; 1278 : {

  00000	6a 04		 push	 4
  00002	b8 00 00 00 00	 mov	 eax, __ehhandler$?InitBigArrowAniState@SoldierExerciseWnd@@IAEXXZ
  00007	e8 00 00 00 00	 call	 __EH_prolog3
  0000c	8b f9		 mov	 edi, ecx

; 1279 : 	enum { DELAY_DOWN_UP = 150, };
; 1280 : 	FSMState *pState = new FSMState( BAT_DOWN );

  0000e	6a 38		 push	 56			; 00000038H
  00010	e8 00 00 00 00	 call	 ??2@YAPAXI@Z		; operator new
  00015	59		 pop	 ecx
  00016	89 45 f0	 mov	 DWORD PTR $T554237[ebp], eax
  00019	33 db		 xor	 ebx, ebx
  0001b	89 5d fc	 mov	 DWORD PTR __$EHRec$[ebp+8], ebx
  0001e	3b c3		 cmp	 eax, ebx
  00020	74 0a		 je	 SHORT $LN5@InitBigArr
  00022	53		 push	 ebx
  00023	8b c8		 mov	 ecx, eax
  00025	e8 00 00 00 00	 call	 ??0FSMState@@QAE@H@Z	; FSMState::FSMState
  0002a	8b d8		 mov	 ebx, eax
$LN5@InitBigArr:
  0002c	83 4d fc ff	 or	 DWORD PTR __$EHRec$[ebp+8], -1

; 1281 : 	if( pState )

  00030	33 f6		 xor	 esi, esi
  00032	46		 inc	 esi
  00033	85 db		 test	 ebx, ebx
  00035	74 0f		 je	 SHORT $LN2@InitBigArr

; 1282 : 	{
; 1283 : 		pState->Add( BAT_DOWN, BAT_UP, DELAY_DOWN_UP );

  00037	68 96 00 00 00	 push	 150			; 00000096H
  0003c	56		 push	 esi
  0003d	6a 00		 push	 0
  0003f	8b cb		 mov	 ecx, ebx
  00041	e8 00 00 00 00	 call	 ?Add@FSMState@@QAEXHHH@Z ; FSMState::Add
$LN2@InitBigArr:

; 1284 : 	}
; 1285 : 	m_BigArrowAniState.Add( pState );	

  00046	81 c7 98 01 00
	00		 add	 edi, 408		; 00000198H
  0004c	53		 push	 ebx
  0004d	8b cf		 mov	 ecx, edi
  0004f	e8 00 00 00 00	 call	 ?Add@FSMStateMgr@@QAEXPAVFSMState@@@Z ; FSMStateMgr::Add

; 1286 : 
; 1287 : 	pState = new FSMState( BAT_UP );

  00054	6a 38		 push	 56			; 00000038H
  00056	e8 00 00 00 00	 call	 ??2@YAPAXI@Z		; operator new
  0005b	59		 pop	 ecx
  0005c	89 45 f0	 mov	 DWORD PTR $T554241[ebp], eax
  0005f	89 75 fc	 mov	 DWORD PTR __$EHRec$[ebp+8], esi
  00062	85 c0		 test	 eax, eax
  00064	74 0c		 je	 SHORT $LN7@InitBigArr
  00066	56		 push	 esi
  00067	8b c8		 mov	 ecx, eax
  00069	e8 00 00 00 00	 call	 ??0FSMState@@QAE@H@Z	; FSMState::FSMState
  0006e	8b d8		 mov	 ebx, eax
  00070	eb 02		 jmp	 SHORT $LN8@InitBigArr
$LN7@InitBigArr:
  00072	33 db		 xor	 ebx, ebx
$LN8@InitBigArr:
  00074	83 4d fc ff	 or	 DWORD PTR __$EHRec$[ebp+8], -1

; 1288 : 	if( pState )

  00078	85 db		 test	 ebx, ebx
  0007a	74 0f		 je	 SHORT $LN1@InitBigArr

; 1289 : 	{
; 1290 : 		pState->Add( BAT_UP, BAT_DOWN, DELAY_DOWN_UP);

  0007c	68 96 00 00 00	 push	 150			; 00000096H
  00081	6a 00		 push	 0
  00083	56		 push	 esi
  00084	8b cb		 mov	 ecx, ebx
  00086	e8 00 00 00 00	 call	 ?Add@FSMState@@QAEXHHH@Z ; FSMState::Add
$LN1@InitBigArr:

; 1291 : 	}
; 1292 : 	m_BigArrowAniState.Add( pState );	

  0008b	53		 push	 ebx
  0008c	8b cf		 mov	 ecx, edi
  0008e	e8 00 00 00 00	 call	 ?Add@FSMStateMgr@@QAEXPAVFSMState@@@Z ; FSMStateMgr::Add

; 1293 : 
; 1294 : 	m_BigArrowAniState.SetCurState( BAT_DOWN );

  00093	6a 00		 push	 0
  00095	8b cf		 mov	 ecx, edi
  00097	e8 00 00 00 00	 call	 ?SetCurState@FSMStateMgr@@QAEXH@Z ; FSMStateMgr::SetCurState

; 1295 : }

  0009c	e8 00 00 00 00	 call	 __EH_epilog3
  000a1	c3		 ret	 0
_TEXT	ENDS
;	COMDAT text$x
text$x	SEGMENT
__unwindfunclet$?InitBigArrowAniState@SoldierExerciseWnd@@IAEXXZ$0:
  00000	ff 75 f0	 push	 DWORD PTR $T554237[ebp]
  00003	e8 00 00 00 00	 call	 ??3@YAXPAX@Z		; operator delete
  00008	59		 pop	 ecx
  00009	c3		 ret	 0
__unwindfunclet$?InitBigArrowAniState@SoldierExerciseWnd@@IAEXXZ$1:
  0000a	ff 75 f0	 push	 DWORD PTR $T554241[ebp]
  0000d	e8 00 00 00 00	 call	 ??3@YAXPAX@Z		; operator delete
  00012	59		 pop	 ecx
  00013	c3		 ret	 0
__ehhandler$?InitBigArrowAniState@SoldierExerciseWnd@@IAEXXZ:
  00014	8b 54 24 08	 mov	 edx, DWORD PTR [esp+8]
  00018	8d 42 0c	 lea	 eax, DWORD PTR [edx+12]
  0001b	8b 4a ec	 mov	 ecx, DWORD PTR [edx-20]
  0001e	33 c8		 xor	 ecx, eax
  00020	e8 00 00 00 00	 call	 @__security_check_cookie@4
  00025	b8 00 00 00 00	 mov	 eax, OFFSET __ehfuncinfo$?InitBigArrowAniState@SoldierExerciseWnd@@IAEXXZ
  0002a	e9 00 00 00 00	 jmp	 ___CxxFrameHandler3
text$x	ENDS
?InitBigArrowAniState@SoldierExerciseWnd@@IAEXXZ ENDP	; SoldierExerciseWnd::InitBigArrowAniState
PUBLIC	??_C@_00CNPNBAHC@?$AA@				; `string'
PUBLIC	??_C@_0CE@HBBOELGB@SoldierExerciseWnd?3?3NoticeNeedLe@ ; `string'
PUBLIC	?NoticeNeedLevel@SoldierExerciseWnd@@IAEXPBVioSetItemInfo@@@Z ; SoldierExerciseWnd::NoticeNeedLevel
EXTRN	??_M@YGXPAXIHP6EX0@Z@Z:PROC			; `eh vector destructor iterator'
EXTRN	?SetPrevMsgListBox@ioSP2GUIManager@@QAEXPAVioWnd@@H0PAVioComplexStringPrinter@@@Z:PROC ; ioSP2GUIManager::SetPrevMsgListBox
EXTRN	?GetSingleton@ioSP2GUIManager@@SAAAV1@XZ:PROC	; ioSP2GUIManager::GetSingleton
EXTRN	?SetTextColor@ioComplexStringPrinter@@QAEXHHH@Z:PROC ; ioComplexStringPrinter::SetTextColor
EXTRN	?AddTextPiece@ioComplexStringPrinter@@QAAXMPBDZZ:PROC ; ioComplexStringPrinter::AddTextPiece
EXTRN	?SetTextColor@ioComplexStringPrinter@@QAEXK@Z:PROC ; ioComplexStringPrinter::SetTextColor
EXTRN	?SetBkColor@ioComplexStringPrinter@@QAEXHHH@Z:PROC ; ioComplexStringPrinter::SetBkColor
EXTRN	?SetTextStyle@ioComplexStringPrinter@@QAEXW4TextStyle@@@Z:PROC ; ioComplexStringPrinter::SetTextStyle
EXTRN	??_L@YGXPAXIHP6EX0@Z1@Z:PROC			; `eh vector constructor iterator'
EXTRN	??0ioComplexStringPrinter@@QAE@XZ:PROC		; ioComplexStringPrinter::ioComplexStringPrinter
EXTRN	??1ioComplexStringPrinter@@QAE@XZ:PROC		; ioComplexStringPrinter::~ioComplexStringPrinter
EXTRN	__imp_?SafeSprintf@@YAXPADHPBDZZ:PROC
EXTRN	__imp_?SafeSprintf@@YAXPADHPBDH@Z:PROC
EXTRN	?GetGradeName@ioMyLevelMgr@@QBEXHPADH_N1@Z:PROC	; ioMyLevelMgr::GetGradeName
EXTRN	__imp_?GetSingleton@ioStringManager@@SAAAV1@XZ:PROC
EXTRN	__imp_?GetString@ioStringManager@@QAEPADPBD0HW4FileNamePrefix@1@@Z:PROC
EXTRN	?GetNeedLevelInfo@ioMyInfo@@QAEXPBVioSetItemInfo@@AAH1@Z:PROC ; ioMyInfo::GetNeedLevelInfo
EXTRN	__imp_?PrintTimeAndLog@CLog@@QAAXHPADZZ:PROC
EXTRN	__imp_?LOG@@3VCLog@@A:BYTE
EXTRN	__EH_epilog3_GS:PROC
EXTRN	__EH_prolog3_GS:PROC
EXTRN	_memset:PROC
;	COMDAT ??_C@_00CNPNBAHC@?$AA@
CONST	SEGMENT
??_C@_00CNPNBAHC@?$AA@ DB 00H				; `string'
CONST	ENDS
;	COMDAT ??_C@_0CE@HBBOELGB@SoldierExerciseWnd?3?3NoticeNeedLe@
CONST	SEGMENT
??_C@_0CE@HBBOELGB@SoldierExerciseWnd?3?3NoticeNeedLe@ DB 'SoldierExercis'
	DB	'eWnd::NoticeNeedLevel', 00H			; `string'
CONST	ENDS
;	COMDAT xdata$x
xdata$x	SEGMENT
__unwindtable$?NoticeNeedLevel@SoldierExerciseWnd@@IAEXPBVioSetItemInfo@@@Z DD 0ffffffffH
	DD	FLAT:__unwindfunclet$?NoticeNeedLevel@SoldierExerciseWnd@@IAEXPBVioSetItemInfo@@@Z$0
__ehfuncinfo$?NoticeNeedLevel@SoldierExerciseWnd@@IAEXPBVioSetItemInfo@@@Z DD 019930522H
	DD	01H
	DD	FLAT:__unwindtable$?NoticeNeedLevel@SoldierExerciseWnd@@IAEXPBVioSetItemInfo@@@Z
	DD	2 DUP(00H)
	DD	2 DUP(00H)
	DD	00H
	DD	01H
; Function compile flags: /Ogsp
xdata$x	ENDS
;	COMDAT ?NoticeNeedLevel@SoldierExerciseWnd@@IAEXPBVioSetItemInfo@@@Z
_TEXT	SEGMENT
_iNeedType$ = -668					; size = 4
_iNeedLevel$ = -664					; size = 4
_kPrinter$ = -660					; size = 384
_szHelp$ = -276						; size = 260
__$EHRec$ = -12						; size = 12
_pInfo$ = 8						; size = 4
?NoticeNeedLevel@SoldierExerciseWnd@@IAEXPBVioSetItemInfo@@@Z PROC ; SoldierExerciseWnd::NoticeNeedLevel, COMDAT
; _this$ = ecx

; 1455 : {

  00000	68 90 02 00 00	 push	 656			; 00000290H
  00005	b8 00 00 00 00	 mov	 eax, __ehhandler$?NoticeNeedLevel@SoldierExerciseWnd@@IAEXPBVioSetItemInfo@@@Z
  0000a	e8 00 00 00 00	 call	 __EH_prolog3_GS
  0000f	8b 45 08	 mov	 eax, DWORD PTR _pInfo$[ebp]

; 1456 : 	if( !pInfo )

  00012	33 db		 xor	 ebx, ebx
  00014	3b c3		 cmp	 eax, ebx
  00016	75 1a		 jne	 SHORT $LN7@NoticeNeed

; 1457 : 	{
; 1458 : 		LOG.PrintTimeAndLog(0, "SoldierExerciseWnd::NoticeNeedLevel" );

  00018	68 00 00 00 00	 push	 OFFSET ??_C@_0CE@HBBOELGB@SoldierExerciseWnd?3?3NoticeNeedLe@
  0001d	53		 push	 ebx
  0001e	ff 35 00 00 00
	00		 push	 DWORD PTR __imp_?LOG@@3VCLog@@A
  00024	ff 15 00 00 00
	00		 call	 DWORD PTR __imp_?PrintTimeAndLog@CLog@@QAAXHPADZZ
  0002a	83 c4 0c	 add	 esp, 12			; 0000000cH

; 1459 : 		return;

  0002d	e9 0a 03 00 00	 jmp	 $LN8@NoticeNeed
$LN7@NoticeNeed:

; 1460 : 	}
; 1461 : 
; 1462 : 	int iNeedType  = 0;
; 1463 : 	int iNeedLevel = 0;
; 1464 : 	g_MyInfo.GetNeedLevelInfo( pInfo, iNeedType, iNeedLevel );

  00032	8d 8d 68 fd ff
	ff		 lea	 ecx, DWORD PTR _iNeedLevel$[ebp]
  00038	51		 push	 ecx
  00039	8d 8d 64 fd ff
	ff		 lea	 ecx, DWORD PTR _iNeedType$[ebp]
  0003f	51		 push	 ecx
  00040	50		 push	 eax
  00041	89 9d 64 fd ff
	ff		 mov	 DWORD PTR _iNeedType$[ebp], ebx
  00047	89 9d 68 fd ff
	ff		 mov	 DWORD PTR _iNeedLevel$[ebp], ebx
  0004d	e8 00 00 00 00	 call	 ?GetSingleton@ioMyInfo@@SAAAV1@XZ ; ioMyInfo::GetSingleton
  00052	8b c8		 mov	 ecx, eax
  00054	e8 00 00 00 00	 call	 ?GetNeedLevelInfo@ioMyInfo@@QAEXPBVioSetItemInfo@@AAH1@Z ; ioMyInfo::GetNeedLevelInfo

; 1465 : 
; 1466 : 	char szHelp[MAX_PATH]="";

  00059	68 03 01 00 00	 push	 259			; 00000103H
  0005e	8d 85 ed fe ff
	ff		 lea	 eax, DWORD PTR _szHelp$[ebp+1]
  00064	53		 push	 ebx
  00065	50		 push	 eax
  00066	88 9d ec fe ff
	ff		 mov	 BYTE PTR _szHelp$[ebp], bl
  0006c	e8 00 00 00 00	 call	 _memset

; 1467 : 	if( iNeedType == ioSetItemInfo::NLT_GRADE )

  00071	8b 35 00 00 00
	00		 mov	 esi, DWORD PTR __imp_?GetString@ioStringManager@@QAEPADPBD0HW4FileNamePrefix@1@@Z
  00077	8b 3d 00 00 00
	00		 mov	 edi, DWORD PTR __imp_?GetSingleton@ioStringManager@@SAAAV1@XZ
  0007d	83 c4 0c	 add	 esp, 12			; 0000000cH
  00080	83 bd 64 fd ff
	ff 01		 cmp	 DWORD PTR _iNeedType$[ebp], 1
  00087	75 23		 jne	 SHORT $LN6@NoticeNeed

; 1468 : 		g_LevelMgr.GetGradeName( iNeedLevel, szHelp, sizeof(szHelp), false );

  00089	6a 01		 push	 1
  0008b	53		 push	 ebx
  0008c	68 04 01 00 00	 push	 260			; 00000104H
  00091	8d 85 ec fe ff
	ff		 lea	 eax, DWORD PTR _szHelp$[ebp]
  00097	50		 push	 eax
  00098	ff b5 68 fd ff
	ff		 push	 DWORD PTR _iNeedLevel$[ebp]
  0009e	e8 00 00 00 00	 call	 ?GetSingleton@ioMyLevelMgr@@SAAAV1@XZ ; ioMyLevelMgr::GetSingleton
  000a3	8b c8		 mov	 ecx, eax
  000a5	e8 00 00 00 00	 call	 ?GetGradeName@ioMyLevelMgr@@QBEXHPADH_N1@Z ; ioMyLevelMgr::GetGradeName
  000aa	eb 77		 jmp	 SHORT $LN1@NoticeNeed
$LN6@NoticeNeed:

; 1469 : 	else if( iNeedType == ioSetItemInfo::NLT_BATTLE )

  000ac	83 bd 64 fd ff
	ff 02		 cmp	 DWORD PTR _iNeedType$[ebp], 2
  000b3	75 0b		 jne	 SHORT $LN4@NoticeNeed

; 1470 : 		SafeSprintf( szHelp, sizeof( szHelp ), STR(1), iNeedLevel );

  000b5	ff b5 68 fd ff
	ff		 push	 DWORD PTR _iNeedLevel$[ebp]
  000bb	53		 push	 ebx
  000bc	6a 01		 push	 1
  000be	eb 12		 jmp	 SHORT $LN12@NoticeNeed
$LN4@NoticeNeed:

; 1471 : 	else if( iNeedType == ioSetItemInfo::NLT_AWARD )

  000c0	83 bd 64 fd ff
	ff 04		 cmp	 DWORD PTR _iNeedType$[ebp], 4
  000c7	75 31		 jne	 SHORT $LN2@NoticeNeed

; 1472 : 		SafeSprintf( szHelp, sizeof( szHelp ), STR(2), iNeedLevel );

  000c9	ff b5 68 fd ff
	ff		 push	 DWORD PTR _iNeedLevel$[ebp]
  000cf	53		 push	 ebx
  000d0	6a 02		 push	 2
$LN12@NoticeNeed:
  000d2	68 00 00 00 00	 push	 OFFSET ??_C@_00CNPNBAHC@?$AA@
  000d7	68 00 00 00 00	 push	 OFFSET ??_C@_0CE@HBBOELGB@SoldierExerciseWnd?3?3NoticeNeedLe@
  000dc	ff d7		 call	 edi
  000de	8b c8		 mov	 ecx, eax
  000e0	ff d6		 call	 esi
  000e2	50		 push	 eax
  000e3	8d 85 ec fe ff
	ff		 lea	 eax, DWORD PTR _szHelp$[ebp]
  000e9	68 04 01 00 00	 push	 260			; 00000104H
  000ee	50		 push	 eax
  000ef	ff 15 00 00 00
	00		 call	 DWORD PTR __imp_?SafeSprintf@@YAXPADHPBDH@Z
  000f5	83 c4 10	 add	 esp, 16			; 00000010H

; 1473 : 	else

  000f8	eb 29		 jmp	 SHORT $LN1@NoticeNeed
$LN2@NoticeNeed:

; 1474 : 		SafeSprintf( szHelp, sizeof( szHelp ), STR(4) );

  000fa	53		 push	 ebx
  000fb	6a 04		 push	 4
  000fd	68 00 00 00 00	 push	 OFFSET ??_C@_00CNPNBAHC@?$AA@
  00102	68 00 00 00 00	 push	 OFFSET ??_C@_0CE@HBBOELGB@SoldierExerciseWnd?3?3NoticeNeedLe@
  00107	ff d7		 call	 edi
  00109	8b c8		 mov	 ecx, eax
  0010b	ff d6		 call	 esi
  0010d	50		 push	 eax
  0010e	8d 85 ec fe ff
	ff		 lea	 eax, DWORD PTR _szHelp$[ebp]
  00114	68 04 01 00 00	 push	 260			; 00000104H
  00119	50		 push	 eax
  0011a	ff 15 00 00 00
	00		 call	 DWORD PTR __imp_?SafeSprintf@@YAXPADHPBDZZ
  00120	83 c4 0c	 add	 esp, 12			; 0000000cH
$LN1@NoticeNeed:

; 1475 : 
; 1476 : 	ioComplexStringPrinter kPrinter[MAX_MSG_LIST_SIZE];

  00123	68 00 00 00 00	 push	 OFFSET ??1ioComplexStringPrinter@@QAE@XZ ; ioComplexStringPrinter::~ioComplexStringPrinter
  00128	68 00 00 00 00	 push	 OFFSET ??0ioComplexStringPrinter@@QAE@XZ ; ioComplexStringPrinter::ioComplexStringPrinter
  0012d	6a 0c		 push	 12			; 0000000cH
  0012f	6a 20		 push	 32			; 00000020H
  00131	8d 85 6c fd ff
	ff		 lea	 eax, DWORD PTR _kPrinter$[ebp]
  00137	50		 push	 eax
  00138	e8 00 00 00 00	 call	 ??_L@YGXPAXIHP6EX0@Z1@Z

; 1477 : 
; 1478 : 	kPrinter[0].SetTextStyle( TS_NORMAL );

  0013d	53		 push	 ebx
  0013e	8d 8d 6c fd ff
	ff		 lea	 ecx, DWORD PTR _kPrinter$[ebp]
  00144	89 5d fc	 mov	 DWORD PTR __$EHRec$[ebp+8], ebx
  00147	e8 00 00 00 00	 call	 ?SetTextStyle@ioComplexStringPrinter@@QAEXW4TextStyle@@@Z ; ioComplexStringPrinter::SetTextStyle

; 1479 : 	kPrinter[0].SetBkColor( 0, 0, 0 );	

  0014c	53		 push	 ebx
  0014d	53		 push	 ebx
  0014e	53		 push	 ebx
  0014f	8d 8d 6c fd ff
	ff		 lea	 ecx, DWORD PTR _kPrinter$[ebp]
  00155	e8 00 00 00 00	 call	 ?SetBkColor@ioComplexStringPrinter@@QAEXHHH@Z ; ioComplexStringPrinter::SetBkColor

; 1480 : 	kPrinter[0].SetTextColor( TCT_DEFAULT_GRAY );

  0015a	68 6e 6e 6e ff	 push	 -9539986		; ff6e6e6eH
  0015f	8d 8d 6c fd ff
	ff		 lea	 ecx, DWORD PTR _kPrinter$[ebp]
  00165	e8 00 00 00 00	 call	 ?SetTextColor@ioComplexStringPrinter@@QAEXK@Z ; ioComplexStringPrinter::SetTextColor

; 1481 : 	kPrinter[0].AddTextPiece( FONT_SIZE_13,STR(5));

  0016a	53		 push	 ebx
  0016b	6a 05		 push	 5
  0016d	68 00 00 00 00	 push	 OFFSET ??_C@_00CNPNBAHC@?$AA@
  00172	68 00 00 00 00	 push	 OFFSET ??_C@_0CE@HBBOELGB@SoldierExerciseWnd?3?3NoticeNeedLe@
  00177	ff d7		 call	 edi
  00179	8b c8		 mov	 ecx, eax
  0017b	ff d6		 call	 esi
  0017d	f3 0f 10 05 00
	00 00 00	 movss	 xmm0, DWORD PTR __real@3f266666
  00185	50		 push	 eax
  00186	51		 push	 ecx
  00187	8d 85 6c fd ff
	ff		 lea	 eax, DWORD PTR _kPrinter$[ebp]
  0018d	f3 0f 11 04 24	 movss	 DWORD PTR [esp], xmm0
  00192	50		 push	 eax
  00193	e8 00 00 00 00	 call	 ?AddTextPiece@ioComplexStringPrinter@@QAAXMPBDZZ ; ioComplexStringPrinter::AddTextPiece
  00198	83 c4 0c	 add	 esp, 12			; 0000000cH

; 1482 : 
; 1483 : 	kPrinter[1].SetTextStyle( TS_NORMAL );

  0019b	53		 push	 ebx
  0019c	8d 8d 8c fd ff
	ff		 lea	 ecx, DWORD PTR _kPrinter$[ebp+32]
  001a2	e8 00 00 00 00	 call	 ?SetTextStyle@ioComplexStringPrinter@@QAEXW4TextStyle@@@Z ; ioComplexStringPrinter::SetTextStyle

; 1484 : 	kPrinter[1].SetBkColor( 0, 0, 0 );	

  001a7	53		 push	 ebx
  001a8	53		 push	 ebx
  001a9	53		 push	 ebx
  001aa	8d 8d 8c fd ff
	ff		 lea	 ecx, DWORD PTR _kPrinter$[ebp+32]
  001b0	e8 00 00 00 00	 call	 ?SetBkColor@ioComplexStringPrinter@@QAEXHHH@Z ; ioComplexStringPrinter::SetBkColor

; 1485 : 	kPrinter[1].SetTextColor( TCT_DEFAULT_DARKGRAY );

  001b5	68 3a 3a 3a ff	 push	 -12961222		; ff3a3a3aH
  001ba	8d 8d 8c fd ff
	ff		 lea	 ecx, DWORD PTR _kPrinter$[ebp+32]
  001c0	e8 00 00 00 00	 call	 ?SetTextColor@ioComplexStringPrinter@@QAEXK@Z ; ioComplexStringPrinter::SetTextColor

; 1486 : 	kPrinter[1].AddTextPiece( FONT_SIZE_13,STR(6) );

  001c5	53		 push	 ebx
  001c6	6a 06		 push	 6
  001c8	68 00 00 00 00	 push	 OFFSET ??_C@_00CNPNBAHC@?$AA@
  001cd	68 00 00 00 00	 push	 OFFSET ??_C@_0CE@HBBOELGB@SoldierExerciseWnd?3?3NoticeNeedLe@
  001d2	ff d7		 call	 edi
  001d4	8b c8		 mov	 ecx, eax
  001d6	ff d6		 call	 esi
  001d8	f3 0f 10 05 00
	00 00 00	 movss	 xmm0, DWORD PTR __real@3f266666
  001e0	50		 push	 eax
  001e1	51		 push	 ecx
  001e2	8d 85 8c fd ff
	ff		 lea	 eax, DWORD PTR _kPrinter$[ebp+32]
  001e8	f3 0f 11 04 24	 movss	 DWORD PTR [esp], xmm0
  001ed	50		 push	 eax
  001ee	e8 00 00 00 00	 call	 ?AddTextPiece@ioComplexStringPrinter@@QAAXMPBDZZ ; ioComplexStringPrinter::AddTextPiece
  001f3	83 c4 0c	 add	 esp, 12			; 0000000cH

; 1487 : 	kPrinter[1].SetTextColor( 255, 60, 0 );

  001f6	53		 push	 ebx
  001f7	6a 3c		 push	 60			; 0000003cH
  001f9	68 ff 00 00 00	 push	 255			; 000000ffH
  001fe	8d 8d 8c fd ff
	ff		 lea	 ecx, DWORD PTR _kPrinter$[ebp+32]
  00204	e8 00 00 00 00	 call	 ?SetTextColor@ioComplexStringPrinter@@QAEXHHH@Z ; ioComplexStringPrinter::SetTextColor

; 1488 : 	kPrinter[1].AddTextPiece( FONT_SIZE_13, szHelp );

  00209	f3 0f 10 05 00
	00 00 00	 movss	 xmm0, DWORD PTR __real@3f266666
  00211	8d 85 ec fe ff
	ff		 lea	 eax, DWORD PTR _szHelp$[ebp]
  00217	50		 push	 eax
  00218	51		 push	 ecx
  00219	8d 85 8c fd ff
	ff		 lea	 eax, DWORD PTR _kPrinter$[ebp+32]
  0021f	f3 0f 11 04 24	 movss	 DWORD PTR [esp], xmm0
  00224	50		 push	 eax
  00225	e8 00 00 00 00	 call	 ?AddTextPiece@ioComplexStringPrinter@@QAAXMPBDZZ ; ioComplexStringPrinter::AddTextPiece
  0022a	83 c4 0c	 add	 esp, 12			; 0000000cH

; 1489 : 
; 1490 : 	kPrinter[2].SetTextStyle( TS_NORMAL );

  0022d	53		 push	 ebx
  0022e	8d 8d ac fd ff
	ff		 lea	 ecx, DWORD PTR _kPrinter$[ebp+64]
  00234	e8 00 00 00 00	 call	 ?SetTextStyle@ioComplexStringPrinter@@QAEXW4TextStyle@@@Z ; ioComplexStringPrinter::SetTextStyle

; 1491 : 	kPrinter[2].SetBkColor( 0, 0, 0 );	

  00239	53		 push	 ebx
  0023a	53		 push	 ebx
  0023b	53		 push	 ebx
  0023c	8d 8d ac fd ff
	ff		 lea	 ecx, DWORD PTR _kPrinter$[ebp+64]
  00242	e8 00 00 00 00	 call	 ?SetBkColor@ioComplexStringPrinter@@QAEXHHH@Z ; ioComplexStringPrinter::SetBkColor

; 1492 : 	kPrinter[2].SetTextColor( TCT_DEFAULT_DARKGRAY );

  00247	68 3a 3a 3a ff	 push	 -12961222		; ff3a3a3aH
  0024c	8d 8d ac fd ff
	ff		 lea	 ecx, DWORD PTR _kPrinter$[ebp+64]
  00252	e8 00 00 00 00	 call	 ?SetTextColor@ioComplexStringPrinter@@QAEXK@Z ; ioComplexStringPrinter::SetTextColor

; 1493 : 	kPrinter[2].AddTextPiece( FONT_SIZE_13,STR(7) );

  00257	53		 push	 ebx
  00258	6a 07		 push	 7
  0025a	68 00 00 00 00	 push	 OFFSET ??_C@_00CNPNBAHC@?$AA@
  0025f	68 00 00 00 00	 push	 OFFSET ??_C@_0CE@HBBOELGB@SoldierExerciseWnd?3?3NoticeNeedLe@
  00264	ff d7		 call	 edi
  00266	8b c8		 mov	 ecx, eax
  00268	ff d6		 call	 esi
  0026a	f3 0f 10 05 00
	00 00 00	 movss	 xmm0, DWORD PTR __real@3f266666
  00272	50		 push	 eax
  00273	51		 push	 ecx
  00274	8d 85 ac fd ff
	ff		 lea	 eax, DWORD PTR _kPrinter$[ebp+64]
  0027a	f3 0f 11 04 24	 movss	 DWORD PTR [esp], xmm0
  0027f	50		 push	 eax
  00280	e8 00 00 00 00	 call	 ?AddTextPiece@ioComplexStringPrinter@@QAAXMPBDZZ ; ioComplexStringPrinter::AddTextPiece
  00285	83 c4 0c	 add	 esp, 12			; 0000000cH

; 1494 : 	kPrinter[2].SetTextColor( 255, 60, 0 );

  00288	53		 push	 ebx
  00289	6a 3c		 push	 60			; 0000003cH
  0028b	68 ff 00 00 00	 push	 255			; 000000ffH
  00290	8d 8d ac fd ff
	ff		 lea	 ecx, DWORD PTR _kPrinter$[ebp+64]
  00296	e8 00 00 00 00	 call	 ?SetTextColor@ioComplexStringPrinter@@QAEXHHH@Z ; ioComplexStringPrinter::SetTextColor

; 1495 : 	kPrinter[2].AddTextPiece( FONT_SIZE_13,STR(8) );

  0029b	53		 push	 ebx
  0029c	6a 08		 push	 8
  0029e	68 00 00 00 00	 push	 OFFSET ??_C@_00CNPNBAHC@?$AA@
  002a3	68 00 00 00 00	 push	 OFFSET ??_C@_0CE@HBBOELGB@SoldierExerciseWnd?3?3NoticeNeedLe@
  002a8	ff d7		 call	 edi
  002aa	8b c8		 mov	 ecx, eax
  002ac	ff d6		 call	 esi
  002ae	f3 0f 10 05 00
	00 00 00	 movss	 xmm0, DWORD PTR __real@3f266666
  002b6	50		 push	 eax
  002b7	51		 push	 ecx
  002b8	8d 85 ac fd ff
	ff		 lea	 eax, DWORD PTR _kPrinter$[ebp+64]
  002be	f3 0f 11 04 24	 movss	 DWORD PTR [esp], xmm0
  002c3	50		 push	 eax
  002c4	e8 00 00 00 00	 call	 ?AddTextPiece@ioComplexStringPrinter@@QAAXMPBDZZ ; ioComplexStringPrinter::AddTextPiece
  002c9	83 c4 0c	 add	 esp, 12			; 0000000cH

; 1496 : 	kPrinter[2].SetTextColor( TCT_DEFAULT_DARKGRAY );

  002cc	68 3a 3a 3a ff	 push	 -12961222		; ff3a3a3aH
  002d1	8d 8d ac fd ff
	ff		 lea	 ecx, DWORD PTR _kPrinter$[ebp+64]
  002d7	e8 00 00 00 00	 call	 ?SetTextColor@ioComplexStringPrinter@@QAEXK@Z ; ioComplexStringPrinter::SetTextColor

; 1497 : 	kPrinter[2].AddTextPiece( FONT_SIZE_13,STR(9) );

  002dc	53		 push	 ebx
  002dd	6a 09		 push	 9
  002df	68 00 00 00 00	 push	 OFFSET ??_C@_00CNPNBAHC@?$AA@
  002e4	68 00 00 00 00	 push	 OFFSET ??_C@_0CE@HBBOELGB@SoldierExerciseWnd?3?3NoticeNeedLe@
  002e9	ff d7		 call	 edi
  002eb	8b c8		 mov	 ecx, eax
  002ed	ff d6		 call	 esi
  002ef	f3 0f 10 05 00
	00 00 00	 movss	 xmm0, DWORD PTR __real@3f266666
  002f7	50		 push	 eax
  002f8	51		 push	 ecx
  002f9	8d 85 ac fd ff
	ff		 lea	 eax, DWORD PTR _kPrinter$[ebp+64]
  002ff	f3 0f 11 04 24	 movss	 DWORD PTR [esp], xmm0
  00304	50		 push	 eax
  00305	e8 00 00 00 00	 call	 ?AddTextPiece@ioComplexStringPrinter@@QAAXMPBDZZ ; ioComplexStringPrinter::AddTextPiece
  0030a	83 c4 0c	 add	 esp, 12			; 0000000cH

; 1498 : 
; 1499 : 	g_GUIMgr.SetPrevMsgListBox( NULL, MB_OK, NULL, kPrinter );

  0030d	8d 85 6c fd ff
	ff		 lea	 eax, DWORD PTR _kPrinter$[ebp]
  00313	50		 push	 eax
  00314	53		 push	 ebx
  00315	53		 push	 ebx
  00316	53		 push	 ebx
  00317	e8 00 00 00 00	 call	 ?GetSingleton@ioSP2GUIManager@@SAAAV1@XZ ; ioSP2GUIManager::GetSingleton
  0031c	8b c8		 mov	 ecx, eax
  0031e	e8 00 00 00 00	 call	 ?SetPrevMsgListBox@ioSP2GUIManager@@QAEXPAVioWnd@@H0PAVioComplexStringPrinter@@@Z ; ioSP2GUIManager::SetPrevMsgListBox

; 1500 : }

  00323	83 4d fc ff	 or	 DWORD PTR __$EHRec$[ebp+8], -1
  00327	68 00 00 00 00	 push	 OFFSET ??1ioComplexStringPrinter@@QAE@XZ ; ioComplexStringPrinter::~ioComplexStringPrinter
  0032c	6a 0c		 push	 12			; 0000000cH
  0032e	6a 20		 push	 32			; 00000020H
  00330	8d 85 6c fd ff
	ff		 lea	 eax, DWORD PTR _kPrinter$[ebp]
  00336	50		 push	 eax
  00337	e8 00 00 00 00	 call	 ??_M@YGXPAXIHP6EX0@Z@Z
$LN8@NoticeNeed:
  0033c	e8 00 00 00 00	 call	 __EH_epilog3_GS
  00341	c2 04 00	 ret	 4
_TEXT	ENDS
;	COMDAT text$x
text$x	SEGMENT
__unwindfunclet$?NoticeNeedLevel@SoldierExerciseWnd@@IAEXPBVioSetItemInfo@@@Z$0:
  00000	68 00 00 00 00	 push	 OFFSET ??1ioComplexStringPrinter@@QAE@XZ ; ioComplexStringPrinter::~ioComplexStringPrinter
  00005	6a 0c		 push	 12			; 0000000cH
  00007	6a 20		 push	 32			; 00000020H
  00009	8d 85 6c fd ff
	ff		 lea	 eax, DWORD PTR _kPrinter$[ebp]
  0000f	50		 push	 eax
  00010	e8 00 00 00 00	 call	 ??_M@YGXPAXIHP6EX0@Z@Z
  00015	c3		 ret	 0
__ehhandler$?NoticeNeedLevel@SoldierExerciseWnd@@IAEXPBVioSetItemInfo@@@Z:
  00016	8b 54 24 08	 mov	 edx, DWORD PTR [esp+8]
  0001a	8d 42 0c	 lea	 eax, DWORD PTR [edx+12]
  0001d	8b 8a 60 fd ff
	ff		 mov	 ecx, DWORD PTR [edx-672]
  00023	33 c8		 xor	 ecx, eax
  00025	e8 00 00 00 00	 call	 @__security_check_cookie@4
  0002a	8b 4a fc	 mov	 ecx, DWORD PTR [edx-4]
  0002d	33 c8		 xor	 ecx, eax
  0002f	e8 00 00 00 00	 call	 @__security_check_cookie@4
  00034	b8 00 00 00 00	 mov	 eax, OFFSET __ehfuncinfo$?NoticeNeedLevel@SoldierExerciseWnd@@IAEXPBVioSetItemInfo@@@Z
  00039	e9 00 00 00 00	 jmp	 ___CxxFrameHandler3
text$x	ENDS
?NoticeNeedLevel@SoldierExerciseWnd@@IAEXPBVioSetItemInfo@@@Z ENDP ; SoldierExerciseWnd::NoticeNeedLevel
PUBLIC	?size@?$vector@UtagShopItemInfo@@V?$allocator@UtagShopItemInfo@@@std@@@std@@QBEIXZ ; std::vector<tagShopItemInfo,std::allocator<tagShopItemInfo> >::size
; Function compile flags: /Ogsp
; File c:\program files (x86)\microsoft visual studio 10.0\vc\include\vector
;	COMDAT ?size@?$vector@UtagShopItemInfo@@V?$allocator@UtagShopItemInfo@@@std@@@std@@QBEIXZ
_TEXT	SEGMENT
?size@?$vector@UtagShopItemInfo@@V?$allocator@UtagShopItemInfo@@@std@@@std@@QBEIXZ PROC ; std::vector<tagShopItemInfo,std::allocator<tagShopItemInfo> >::size, COMDAT
; _this$ = ecx

; 879  : 		return (this->_Mylast - this->_Myfirst);

  00000	8b 41 04	 mov	 eax, DWORD PTR [ecx+4]
  00003	2b 01		 sub	 eax, DWORD PTR [ecx]
  00005	6a 2c		 push	 44			; 0000002cH
  00007	99		 cdq
  00008	59		 pop	 ecx
  00009	f7 f9		 idiv	 ecx

; 880  : 		}

  0000b	c3		 ret	 0
?size@?$vector@UtagShopItemInfo@@V?$allocator@UtagShopItemInfo@@@std@@@std@@QBEIXZ ENDP ; std::vector<tagShopItemInfo,std::allocator<tagShopItemInfo> >::size
_TEXT	ENDS
PUBLIC	?empty@?$vector@UtagShopItemInfo@@V?$allocator@UtagShopItemInfo@@@std@@@std@@QBE_NXZ ; std::vector<tagShopItemInfo,std::allocator<tagShopItemInfo> >::empty
; Function compile flags: /Ogsp
;	COMDAT ?empty@?$vector@UtagShopItemInfo@@V?$allocator@UtagShopItemInfo@@@std@@@std@@QBE_NXZ
_TEXT	SEGMENT
?empty@?$vector@UtagShopItemInfo@@V?$allocator@UtagShopItemInfo@@@std@@@std@@QBE_NXZ PROC ; std::vector<tagShopItemInfo,std::allocator<tagShopItemInfo> >::empty, COMDAT
; _this$ = ecx

; 889  : 		return (this->_Myfirst == this->_Mylast);

  00000	8b 01		 mov	 eax, DWORD PTR [ecx]
  00002	2b 41 04	 sub	 eax, DWORD PTR [ecx+4]
  00005	f7 d8		 neg	 eax
  00007	1b c0		 sbb	 eax, eax
  00009	40		 inc	 eax

; 890  : 		}

  0000a	c3		 ret	 0
?empty@?$vector@UtagShopItemInfo@@V?$allocator@UtagShopItemInfo@@@std@@@std@@QBE_NXZ ENDP ; std::vector<tagShopItemInfo,std::allocator<tagShopItemInfo> >::empty
_TEXT	ENDS
PUBLIC	??A?$vector@UtagShopItemInfo@@V?$allocator@UtagShopItemInfo@@@std@@@std@@QAEAAUtagShopItemInfo@@I@Z ; std::vector<tagShopItemInfo,std::allocator<tagShopItemInfo> >::operator[]
; Function compile flags: /Ogsp
;	COMDAT ??A?$vector@UtagShopItemInfo@@V?$allocator@UtagShopItemInfo@@@std@@@std@@QAEAAUtagShopItemInfo@@I@Z
_TEXT	SEGMENT
__Pos$ = 8						; size = 4
??A?$vector@UtagShopItemInfo@@V?$allocator@UtagShopItemInfo@@@std@@@std@@QAEAAUtagShopItemInfo@@I@Z PROC ; std::vector<tagShopItemInfo,std::allocator<tagShopItemInfo> >::operator[], COMDAT
; _this$ = ecx

; 928  : 		{	// subscript mutable sequence

  00000	55		 push	 ebp
  00001	8b ec		 mov	 ebp, esp

; 929  :  #if _ITERATOR_DEBUG_LEVEL == 2
; 930  : 		if (size() <= _Pos)
; 931  : 			{	// report error
; 932  : 			_DEBUG_ERROR("vector subscript out of range");
; 933  : 			_SCL_SECURE_OUT_OF_RANGE;
; 934  : 			}
; 935  : 
; 936  :  #elif _ITERATOR_DEBUG_LEVEL == 1
; 937  : 		_SCL_SECURE_VALIDATE_RANGE(_Pos < size());
; 938  :  #endif /* _ITERATOR_DEBUG_LEVEL */
; 939  : 
; 940  : 		return (*(this->_Myfirst + _Pos));

  00003	8b 45 08	 mov	 eax, DWORD PTR __Pos$[ebp]
  00006	6b c0 2c	 imul	 eax, 44			; 0000002cH
  00009	03 01		 add	 eax, DWORD PTR [ecx]

; 941  : 		}

  0000b	5d		 pop	 ebp
  0000c	c2 04 00	 ret	 4
??A?$vector@UtagShopItemInfo@@V?$allocator@UtagShopItemInfo@@@std@@@std@@QAEAAUtagShopItemInfo@@I@Z ENDP ; std::vector<tagShopItemInfo,std::allocator<tagShopItemInfo> >::operator[]
_TEXT	ENDS
PUBLIC	?capacity@?$vector@UtagShopItemInfo@@V?$allocator@UtagShopItemInfo@@@std@@@std@@QBEIXZ ; std::vector<tagShopItemInfo,std::allocator<tagShopItemInfo> >::capacity
; Function compile flags: /Ogsp
;	COMDAT ?capacity@?$vector@UtagShopItemInfo@@V?$allocator@UtagShopItemInfo@@@std@@@std@@QBEIXZ
_TEXT	SEGMENT
?capacity@?$vector@UtagShopItemInfo@@V?$allocator@UtagShopItemInfo@@@std@@@std@@QBEIXZ PROC ; std::vector<tagShopItemInfo,std::allocator<tagShopItemInfo> >::capacity, COMDAT
; _this$ = ecx

; 777  : 		return (this->_Myend - this->_Myfirst);

  00000	8b 41 08	 mov	 eax, DWORD PTR [ecx+8]
  00003	2b 01		 sub	 eax, DWORD PTR [ecx]
  00005	6a 2c		 push	 44			; 0000002cH
  00007	99		 cdq
  00008	59		 pop	 ecx
  00009	f7 f9		 idiv	 ecx

; 778  : 		}

  0000b	c3		 ret	 0
?capacity@?$vector@UtagShopItemInfo@@V?$allocator@UtagShopItemInfo@@@std@@@std@@QBEIXZ ENDP ; std::vector<tagShopItemInfo,std::allocator<tagShopItemInfo> >::capacity
_TEXT	ENDS
PUBLIC	?_Inside@?$vector@UtagShopItemInfo@@V?$allocator@UtagShopItemInfo@@@std@@@std@@IBE_NPBUtagShopItemInfo@@@Z ; std::vector<tagShopItemInfo,std::allocator<tagShopItemInfo> >::_Inside
; Function compile flags: /Ogsp
;	COMDAT ?_Inside@?$vector@UtagShopItemInfo@@V?$allocator@UtagShopItemInfo@@@std@@@std@@IBE_NPBUtagShopItemInfo@@@Z
_TEXT	SEGMENT
__Ptr$ = 8						; size = 4
?_Inside@?$vector@UtagShopItemInfo@@V?$allocator@UtagShopItemInfo@@@std@@@std@@IBE_NPBUtagShopItemInfo@@@Z PROC ; std::vector<tagShopItemInfo,std::allocator<tagShopItemInfo> >::_Inside, COMDAT
; _this$ = ecx

; 1285 : 		{	// test if _Ptr points inside vector

  00000	55		 push	 ebp
  00001	8b ec		 mov	 ebp, esp

; 1286 : 		return (_Ptr < this->_Mylast && this->_Myfirst <= _Ptr);

  00003	8b 45 08	 mov	 eax, DWORD PTR __Ptr$[ebp]
  00006	3b 41 04	 cmp	 eax, DWORD PTR [ecx+4]
  00009	73 09		 jae	 SHORT $LN3@Inside
  0000b	39 01		 cmp	 DWORD PTR [ecx], eax
  0000d	77 05		 ja	 SHORT $LN3@Inside
  0000f	33 c0		 xor	 eax, eax
  00011	40		 inc	 eax
  00012	eb 02		 jmp	 SHORT $LN4@Inside
$LN3@Inside:
  00014	33 c0		 xor	 eax, eax
$LN4@Inside:

; 1287 : 		}

  00016	5d		 pop	 ebp
  00017	c2 04 00	 ret	 4
?_Inside@?$vector@UtagShopItemInfo@@V?$allocator@UtagShopItemInfo@@@std@@@std@@IBE_NPBUtagShopItemInfo@@@Z ENDP ; std::vector<tagShopItemInfo,std::allocator<tagShopItemInfo> >::_Inside
_TEXT	ENDS
PUBLIC	??_C@_0BD@OLBABOEK@vector?$DMT?$DO?5too?5long?$AA@ ; `string'
PUBLIC	?_Xlen@?$vector@UtagShopItemInfo@@V?$allocator@UtagShopItemInfo@@@std@@@std@@IBEXXZ ; std::vector<tagShopItemInfo,std::allocator<tagShopItemInfo> >::_Xlen
EXTRN	__imp_?_Xlength_error@std@@YAXPBD@Z:PROC
;	COMDAT ??_C@_0BD@OLBABOEK@vector?$DMT?$DO?5too?5long?$AA@
CONST	SEGMENT
??_C@_0BD@OLBABOEK@vector?$DMT?$DO?5too?5long?$AA@ DB 'vector<T> too long'
	DB	00H						; `string'
; Function compile flags: /Ogsp
CONST	ENDS
;	COMDAT ?_Xlen@?$vector@UtagShopItemInfo@@V?$allocator@UtagShopItemInfo@@@std@@@std@@IBEXXZ
_TEXT	SEGMENT
?_Xlen@?$vector@UtagShopItemInfo@@V?$allocator@UtagShopItemInfo@@@std@@@std@@IBEXXZ PROC ; std::vector<tagShopItemInfo,std::allocator<tagShopItemInfo> >::_Xlen, COMDAT
; _this$ = ecx

; 1427 : 		_Xlength_error("vector<T> too long");

  00000	68 00 00 00 00	 push	 OFFSET ??_C@_0BD@OLBABOEK@vector?$DMT?$DO?5too?5long?$AA@
  00005	ff 15 00 00 00
	00		 call	 DWORD PTR __imp_?_Xlength_error@std@@YAXPBD@Z
$LN4@Xlen:
$LN3@Xlen:
  0000b	cc		 int	 3
?_Xlen@?$vector@UtagShopItemInfo@@V?$allocator@UtagShopItemInfo@@@std@@@std@@IBEXXZ ENDP ; std::vector<tagShopItemInfo,std::allocator<tagShopItemInfo> >::_Xlen
_TEXT	ENDS
PUBLIC	?_Orphan_range@?$vector@UtagShopItemInfo@@V?$allocator@UtagShopItemInfo@@@std@@@std@@IBEXPAUtagShopItemInfo@@0@Z ; std::vector<tagShopItemInfo,std::allocator<tagShopItemInfo> >::_Orphan_range
; Function compile flags: /Ogsp
;	COMDAT ?_Orphan_range@?$vector@UtagShopItemInfo@@V?$allocator@UtagShopItemInfo@@@std@@@std@@IBEXPAUtagShopItemInfo@@0@Z
_TEXT	SEGMENT
___formal$ = 8						; size = 4
___formal$ = 12						; size = 4
?_Orphan_range@?$vector@UtagShopItemInfo@@V?$allocator@UtagShopItemInfo@@@std@@@std@@IBEXPAUtagShopItemInfo@@0@Z PROC ; std::vector<tagShopItemInfo,std::allocator<tagShopItemInfo> >::_Orphan_range, COMDAT
; _this$ = ecx

; 1454 : 		}

  00000	c2 08 00	 ret	 8
?_Orphan_range@?$vector@UtagShopItemInfo@@V?$allocator@UtagShopItemInfo@@@std@@@std@@IBEXPAUtagShopItemInfo@@0@Z ENDP ; std::vector<tagShopItemInfo,std::allocator<tagShopItemInfo> >::_Orphan_range
_TEXT	ENDS
PUBLIC	??1?$_Vector_val@UtagShopItemInfo@@V?$allocator@UtagShopItemInfo@@@std@@@std@@QAE@XZ ; std::_Vector_val<tagShopItemInfo,std::allocator<tagShopItemInfo> >::~_Vector_val<tagShopItemInfo,std::allocator<tagShopItemInfo> >
; Function compile flags: /Ogsp
;	COMDAT ??1?$_Vector_val@UtagShopItemInfo@@V?$allocator@UtagShopItemInfo@@@std@@@std@@QAE@XZ
_TEXT	SEGMENT
??1?$_Vector_val@UtagShopItemInfo@@V?$allocator@UtagShopItemInfo@@@std@@@std@@QAE@XZ PROC ; std::_Vector_val<tagShopItemInfo,std::allocator<tagShopItemInfo> >::~_Vector_val<tagShopItemInfo,std::allocator<tagShopItemInfo> >, COMDAT
; _this$ = ecx

; 434  : 		}

  00000	c3		 ret	 0
??1?$_Vector_val@UtagShopItemInfo@@V?$allocator@UtagShopItemInfo@@@std@@@std@@QAE@XZ ENDP ; std::_Vector_val<tagShopItemInfo,std::allocator<tagShopItemInfo> >::~_Vector_val<tagShopItemInfo,std::allocator<tagShopItemInfo> >
_TEXT	ENDS
PUBLIC	??0?$allocator@UtagShopItemInfo@@@std@@QAE@XZ	; std::allocator<tagShopItemInfo>::allocator<tagShopItemInfo>
; Function compile flags: /Ogsp
; File c:\program files (x86)\microsoft visual studio 10.0\vc\include\xmemory
;	COMDAT ??0?$allocator@UtagShopItemInfo@@@std@@QAE@XZ
_TEXT	SEGMENT
??0?$allocator@UtagShopItemInfo@@@std@@QAE@XZ PROC	; std::allocator<tagShopItemInfo>::allocator<tagShopItemInfo>, COMDAT
; _this$ = ecx

; 161  : 	_ALLOCATOR() _THROW0()

  00000	8b c1		 mov	 eax, ecx

; 162  : 		{	// construct default allocator (do nothing)
; 163  : 		}

  00002	c3		 ret	 0
??0?$allocator@UtagShopItemInfo@@@std@@QAE@XZ ENDP	; std::allocator<tagShopItemInfo>::allocator<tagShopItemInfo>
_TEXT	ENDS
PUBLIC	?deallocate@?$allocator@UtagShopItemInfo@@@std@@QAEXPAUtagShopItemInfo@@I@Z ; std::allocator<tagShopItemInfo>::deallocate
; Function compile flags: /Ogsp
;	COMDAT ?deallocate@?$allocator@UtagShopItemInfo@@@std@@QAEXPAUtagShopItemInfo@@I@Z
_TEXT	SEGMENT
__Ptr$ = 8						; size = 4
___formal$ = 12						; size = 4
?deallocate@?$allocator@UtagShopItemInfo@@@std@@QAEXPAUtagShopItemInfo@@I@Z PROC ; std::allocator<tagShopItemInfo>::deallocate, COMDAT
; _this$ = ecx

; 181  : 		{	// deallocate object at _Ptr, ignore size

  00000	55		 push	 ebp
  00001	8b ec		 mov	 ebp, esp

; 182  : 		::operator delete(_Ptr);

  00003	ff 75 08	 push	 DWORD PTR __Ptr$[ebp]
  00006	e8 00 00 00 00	 call	 ??3@YAXPAX@Z		; operator delete
  0000b	59		 pop	 ecx

; 183  : 		}

  0000c	5d		 pop	 ebp
  0000d	c2 08 00	 ret	 8
?deallocate@?$allocator@UtagShopItemInfo@@@std@@QAEXPAUtagShopItemInfo@@I@Z ENDP ; std::allocator<tagShopItemInfo>::deallocate
_TEXT	ENDS
PUBLIC	??0?$_Vector_const_iterator@V?$_Vector_val@PAVioUIRenderElement@@V?$allocator@PAVioUIRenderElement@@@std@@@std@@@std@@QAE@XZ ; std::_Vector_const_iterator<std::_Vector_val<ioUIRenderElement *,std::allocator<ioUIRenderElement *> > >::_Vector_const_iterator<std::_Vector_val<ioUIRenderElement *,std::allocator<ioUIRenderElement *> > >
; Function compile flags: /Ogsp
; File c:\program files (x86)\microsoft visual studio 10.0\vc\include\vector
;	COMDAT ??0?$_Vector_const_iterator@V?$_Vector_val@PAVioUIRenderElement@@V?$allocator@PAVioUIRenderElement@@@std@@@std@@@std@@QAE@XZ
_TEXT	SEGMENT
??0?$_Vector_const_iterator@V?$_Vector_val@PAVioUIRenderElement@@V?$allocator@PAVioUIRenderElement@@@std@@@std@@@std@@QAE@XZ PROC ; std::_Vector_const_iterator<std::_Vector_val<ioUIRenderElement *,std::allocator<ioUIRenderElement *> > >::_Vector_const_iterator<std::_Vector_val<ioUIRenderElement *,std::allocator<ioUIRenderElement *> > >, COMDAT
; _this$ = ecx

; 40   : 		{	// construct with null pointer

  00000	8b c1		 mov	 eax, ecx
  00002	83 20 00	 and	 DWORD PTR [eax], 0

; 41   : 		}

  00005	c3		 ret	 0
??0?$_Vector_const_iterator@V?$_Vector_val@PAVioUIRenderElement@@V?$allocator@PAVioUIRenderElement@@@std@@@std@@@std@@QAE@XZ ENDP ; std::_Vector_const_iterator<std::_Vector_val<ioUIRenderElement *,std::allocator<ioUIRenderElement *> > >::_Vector_const_iterator<std::_Vector_val<ioUIRenderElement *,std::allocator<ioUIRenderElement *> > >
_TEXT	ENDS
PUBLIC	??D?$_Vector_const_iterator@V?$_Vector_val@PAVioUIRenderElement@@V?$allocator@PAVioUIRenderElement@@@std@@@std@@@std@@QBEABQAVioUIRenderElement@@XZ ; std::_Vector_const_iterator<std::_Vector_val<ioUIRenderElement *,std::allocator<ioUIRenderElement *> > >::operator*
; Function compile flags: /Ogsp
;	COMDAT ??D?$_Vector_const_iterator@V?$_Vector_val@PAVioUIRenderElement@@V?$allocator@PAVioUIRenderElement@@@std@@@std@@@std@@QBEABQAVioUIRenderElement@@XZ
_TEXT	SEGMENT
??D?$_Vector_const_iterator@V?$_Vector_val@PAVioUIRenderElement@@V?$allocator@PAVioUIRenderElement@@@std@@@std@@@std@@QBEABQAVioUIRenderElement@@XZ PROC ; std::_Vector_const_iterator<std::_Vector_val<ioUIRenderElement *,std::allocator<ioUIRenderElement *> > >::operator*, COMDAT
; _this$ = ecx

; 64   :  #if _ITERATOR_DEBUG_LEVEL == 2
; 65   : 		if (this->_Getcont() == 0
; 66   : 			|| this->_Ptr == 0
; 67   : 			|| this->_Ptr < ((_Myvec *)this->_Getcont())->_Myfirst
; 68   : 			|| ((_Myvec *)this->_Getcont())->_Mylast <= this->_Ptr)
; 69   : 			{	// report error
; 70   : 			_DEBUG_ERROR("vector iterator not dereferencable");
; 71   : 			_SCL_SECURE_OUT_OF_RANGE;
; 72   : 			}
; 73   : 
; 74   :  #elif _ITERATOR_DEBUG_LEVEL == 1
; 75   : 		_SCL_SECURE_VALIDATE(this->_Getcont() != 0);
; 76   : 		_SCL_SECURE_VALIDATE_RANGE(
; 77   : 			this->_Ptr != 0
; 78   : 			&& ((_Myvec *)this->_Getcont())->_Myfirst <= this->_Ptr
; 79   : 			&& this->_Ptr < ((_Myvec *)this->_Getcont())->_Mylast);
; 80   :  #endif /* _ITERATOR_DEBUG_LEVEL */
; 81   : 
; 82   : 		__analysis_assume(this->_Ptr != 0);
; 83   : 
; 84   : 		return (*this->_Ptr);

  00000	8b 01		 mov	 eax, DWORD PTR [ecx]

; 85   : 		}

  00002	c3		 ret	 0
??D?$_Vector_const_iterator@V?$_Vector_val@PAVioUIRenderElement@@V?$allocator@PAVioUIRenderElement@@@std@@@std@@@std@@QBEABQAVioUIRenderElement@@XZ ENDP ; std::_Vector_const_iterator<std::_Vector_val<ioUIRenderElement *,std::allocator<ioUIRenderElement *> > >::operator*
_TEXT	ENDS
PUBLIC	??E?$_Vector_const_iterator@V?$_Vector_val@PAVioUIRenderElement@@V?$allocator@PAVioUIRenderElement@@@std@@@std@@@std@@QAEAAV01@XZ ; std::_Vector_const_iterator<std::_Vector_val<ioUIRenderElement *,std::allocator<ioUIRenderElement *> > >::operator++
; Function compile flags: /Ogsp
;	COMDAT ??E?$_Vector_const_iterator@V?$_Vector_val@PAVioUIRenderElement@@V?$allocator@PAVioUIRenderElement@@@std@@@std@@@std@@QAEAAV01@XZ
_TEXT	SEGMENT
??E?$_Vector_const_iterator@V?$_Vector_val@PAVioUIRenderElement@@V?$allocator@PAVioUIRenderElement@@@std@@@std@@@std@@QAEAAV01@XZ PROC ; std::_Vector_const_iterator<std::_Vector_val<ioUIRenderElement *,std::allocator<ioUIRenderElement *> > >::operator++, COMDAT
; _this$ = ecx

; 93   : 		{	// preincrement

  00000	8b c1		 mov	 eax, ecx

; 94   :  #if _ITERATOR_DEBUG_LEVEL == 2
; 95   : 		if (this->_Getcont() == 0
; 96   : 			|| this->_Ptr == 0
; 97   : 			|| ((_Myvec *)this->_Getcont())->_Mylast <= this->_Ptr)
; 98   : 			{	// report error
; 99   : 			_DEBUG_ERROR("vector iterator not incrementable");
; 100  : 			_SCL_SECURE_OUT_OF_RANGE;
; 101  : 			}
; 102  : 
; 103  :  #elif _ITERATOR_DEBUG_LEVEL == 1
; 104  : 		_SCL_SECURE_VALIDATE(this->_Getcont() != 0);
; 105  : 		_SCL_SECURE_VALIDATE_RANGE(
; 106  : 			this->_Ptr != 0
; 107  : 			&& this->_Ptr < ((_Myvec *)this->_Getcont())->_Mylast);
; 108  :  #endif /* _ITERATOR_DEBUG_LEVEL */
; 109  : 
; 110  : 		++this->_Ptr;

  00002	83 00 04	 add	 DWORD PTR [eax], 4

; 111  : 		return (*this);
; 112  : 		}

  00005	c3		 ret	 0
??E?$_Vector_const_iterator@V?$_Vector_val@PAVioUIRenderElement@@V?$allocator@PAVioUIRenderElement@@@std@@@std@@@std@@QAEAAV01@XZ ENDP ; std::_Vector_const_iterator<std::_Vector_val<ioUIRenderElement *,std::allocator<ioUIRenderElement *> > >::operator++
_TEXT	ENDS
PUBLIC	??0?$allocator@UtagShopItemInfo@@@std@@QAE@ABV01@@Z ; std::allocator<tagShopItemInfo>::allocator<tagShopItemInfo>
; Function compile flags: /Ogsp
; File c:\program files (x86)\microsoft visual studio 10.0\vc\include\xmemory
;	COMDAT ??0?$allocator@UtagShopItemInfo@@@std@@QAE@ABV01@@Z
_TEXT	SEGMENT
___formal$ = 8						; size = 4
??0?$allocator@UtagShopItemInfo@@@std@@QAE@ABV01@@Z PROC ; std::allocator<tagShopItemInfo>::allocator<tagShopItemInfo>, COMDAT
; _this$ = ecx

; 165  : 	_ALLOCATOR(const _ALLOCATOR<_Ty>&) _THROW0()

  00000	8b c1		 mov	 eax, ecx

; 166  : 		{	// construct by copying (do nothing)
; 167  : 		}

  00002	c2 04 00	 ret	 4
??0?$allocator@UtagShopItemInfo@@@std@@QAE@ABV01@@Z ENDP ; std::allocator<tagShopItemInfo>::allocator<tagShopItemInfo>
_TEXT	ENDS
PUBLIC	?max_size@?$allocator@UtagShopItemInfo@@@std@@QBEIXZ ; std::allocator<tagShopItemInfo>::max_size
; Function compile flags: /Ogsp
;	COMDAT ?max_size@?$allocator@UtagShopItemInfo@@@std@@QBEIXZ
_TEXT	SEGMENT
?max_size@?$allocator@UtagShopItemInfo@@@std@@QBEIXZ PROC ; std::allocator<tagShopItemInfo>::max_size, COMDAT
; _this$ = ecx

; 218  : 		_SIZT _Count = (_SIZT)(-1) / sizeof (_Ty);
; 219  : 		return (0 < _Count ? _Count : 1);

  00000	b8 5d 74 d1 05	 mov	 eax, 97612893		; 05d1745dH

; 220  : 		}

  00005	c3		 ret	 0
?max_size@?$allocator@UtagShopItemInfo@@@std@@QBEIXZ ENDP ; std::allocator<tagShopItemInfo>::max_size
_TEXT	ENDS
PUBLIC	??0?$_Vector_const_iterator@V?$_Vector_val@PAVioUIRenderElement@@V?$allocator@PAVioUIRenderElement@@@std@@@std@@@std@@QAE@PAPAVioUIRenderElement@@PBU_Container_base0@1@@Z ; std::_Vector_const_iterator<std::_Vector_val<ioUIRenderElement *,std::allocator<ioUIRenderElement *> > >::_Vector_const_iterator<std::_Vector_val<ioUIRenderElement *,std::allocator<ioUIRenderElement *> > >
; Function compile flags: /Ogsp
; File c:\program files (x86)\microsoft visual studio 10.0\vc\include\vector
;	COMDAT ??0?$_Vector_const_iterator@V?$_Vector_val@PAVioUIRenderElement@@V?$allocator@PAVioUIRenderElement@@@std@@@std@@@std@@QAE@PAPAVioUIRenderElement@@PBU_Container_base0@1@@Z
_TEXT	SEGMENT
__Parg$ = 8						; size = 4
__Pvector$ = 12						; size = 4
??0?$_Vector_const_iterator@V?$_Vector_val@PAVioUIRenderElement@@V?$allocator@PAVioUIRenderElement@@@std@@@std@@@std@@QAE@PAPAVioUIRenderElement@@PBU_Container_base0@1@@Z PROC ; std::_Vector_const_iterator<std::_Vector_val<ioUIRenderElement *,std::allocator<ioUIRenderElement *> > >::_Vector_const_iterator<std::_Vector_val<ioUIRenderElement *,std::allocator<ioUIRenderElement *> > >, COMDAT
; _this$ = ecx

; 45   : 		{	// construct with pointer _Parg

  00000	55		 push	 ebp
  00001	8b ec		 mov	 ebp, esp
  00003	8b c1		 mov	 eax, ecx
  00005	8b 4d 08	 mov	 ecx, DWORD PTR __Parg$[ebp]
  00008	89 08		 mov	 DWORD PTR [eax], ecx

; 46   : 		this->_Adopt(_Pvector);
; 47   : 		}

  0000a	5d		 pop	 ebp
  0000b	c2 08 00	 ret	 8
??0?$_Vector_const_iterator@V?$_Vector_val@PAVioUIRenderElement@@V?$allocator@PAVioUIRenderElement@@@std@@@std@@@std@@QAE@PAPAVioUIRenderElement@@PBU_Container_base0@1@@Z ENDP ; std::_Vector_const_iterator<std::_Vector_val<ioUIRenderElement *,std::allocator<ioUIRenderElement *> > >::_Vector_const_iterator<std::_Vector_val<ioUIRenderElement *,std::allocator<ioUIRenderElement *> > >
_TEXT	ENDS
PUBLIC	?_Compat@?$_Vector_const_iterator@V?$_Vector_val@PAVioUIRenderElement@@V?$allocator@PAVioUIRenderElement@@@std@@@std@@@std@@QBEXABV12@@Z ; std::_Vector_const_iterator<std::_Vector_val<ioUIRenderElement *,std::allocator<ioUIRenderElement *> > >::_Compat
; Function compile flags: /Ogsp
;	COMDAT ?_Compat@?$_Vector_const_iterator@V?$_Vector_val@PAVioUIRenderElement@@V?$allocator@PAVioUIRenderElement@@@std@@@std@@@std@@QBEXABV12@@Z
_TEXT	SEGMENT
___formal$ = 8						; size = 4
?_Compat@?$_Vector_const_iterator@V?$_Vector_val@PAVioUIRenderElement@@V?$allocator@PAVioUIRenderElement@@@std@@@std@@@std@@QBEXABV12@@Z PROC ; std::_Vector_const_iterator<std::_Vector_val<ioUIRenderElement *,std::allocator<ioUIRenderElement *> > >::_Compat, COMDAT
; _this$ = ecx

; 253  : 		}

  00000	c2 04 00	 ret	 4
?_Compat@?$_Vector_const_iterator@V?$_Vector_val@PAVioUIRenderElement@@V?$allocator@PAVioUIRenderElement@@@std@@@std@@@std@@QBEXABV12@@Z ENDP ; std::_Vector_const_iterator<std::_Vector_val<ioUIRenderElement *,std::allocator<ioUIRenderElement *> > >::_Compat
_TEXT	ENDS
PUBLIC	??0?$_Vector_const_iterator@V?$_Vector_val@UtagShopItemInfo@@V?$allocator@UtagShopItemInfo@@@std@@@std@@@std@@QAE@PAUtagShopItemInfo@@PBU_Container_base0@1@@Z ; std::_Vector_const_iterator<std::_Vector_val<tagShopItemInfo,std::allocator<tagShopItemInfo> > >::_Vector_const_iterator<std::_Vector_val<tagShopItemInfo,std::allocator<tagShopItemInfo> > >
; Function compile flags: /Ogsp
;	COMDAT ??0?$_Vector_const_iterator@V?$_Vector_val@UtagShopItemInfo@@V?$allocator@UtagShopItemInfo@@@std@@@std@@@std@@QAE@PAUtagShopItemInfo@@PBU_Container_base0@1@@Z
_TEXT	SEGMENT
__Parg$ = 8						; size = 4
__Pvector$ = 12						; size = 4
??0?$_Vector_const_iterator@V?$_Vector_val@UtagShopItemInfo@@V?$allocator@UtagShopItemInfo@@@std@@@std@@@std@@QAE@PAUtagShopItemInfo@@PBU_Container_base0@1@@Z PROC ; std::_Vector_const_iterator<std::_Vector_val<tagShopItemInfo,std::allocator<tagShopItemInfo> > >::_Vector_const_iterator<std::_Vector_val<tagShopItemInfo,std::allocator<tagShopItemInfo> > >, COMDAT
; _this$ = ecx

; 45   : 		{	// construct with pointer _Parg

  00000	55		 push	 ebp
  00001	8b ec		 mov	 ebp, esp
  00003	8b c1		 mov	 eax, ecx
  00005	8b 4d 08	 mov	 ecx, DWORD PTR __Parg$[ebp]
  00008	89 08		 mov	 DWORD PTR [eax], ecx

; 46   : 		this->_Adopt(_Pvector);
; 47   : 		}

  0000a	5d		 pop	 ebp
  0000b	c2 08 00	 ret	 8
??0?$_Vector_const_iterator@V?$_Vector_val@UtagShopItemInfo@@V?$allocator@UtagShopItemInfo@@@std@@@std@@@std@@QAE@PAUtagShopItemInfo@@PBU_Container_base0@1@@Z ENDP ; std::_Vector_const_iterator<std::_Vector_val<tagShopItemInfo,std::allocator<tagShopItemInfo> > >::_Vector_const_iterator<std::_Vector_val<tagShopItemInfo,std::allocator<tagShopItemInfo> > >
_TEXT	ENDS
PUBLIC	?_Compat@?$_Vector_const_iterator@V?$_Vector_val@UtagShopItemInfo@@V?$allocator@UtagShopItemInfo@@@std@@@std@@@std@@QBEXABV12@@Z ; std::_Vector_const_iterator<std::_Vector_val<tagShopItemInfo,std::allocator<tagShopItemInfo> > >::_Compat
; Function compile flags: /Ogsp
;	COMDAT ?_Compat@?$_Vector_const_iterator@V?$_Vector_val@UtagShopItemInfo@@V?$allocator@UtagShopItemInfo@@@std@@@std@@@std@@QBEXABV12@@Z
_TEXT	SEGMENT
___formal$ = 8						; size = 4
?_Compat@?$_Vector_const_iterator@V?$_Vector_val@UtagShopItemInfo@@V?$allocator@UtagShopItemInfo@@@std@@@std@@@std@@QBEXABV12@@Z PROC ; std::_Vector_const_iterator<std::_Vector_val<tagShopItemInfo,std::allocator<tagShopItemInfo> > >::_Compat, COMDAT
; _this$ = ecx

; 253  : 		}

  00000	c2 04 00	 ret	 4
?_Compat@?$_Vector_const_iterator@V?$_Vector_val@UtagShopItemInfo@@V?$allocator@UtagShopItemInfo@@@std@@@std@@@std@@QBEXABV12@@Z ENDP ; std::_Vector_const_iterator<std::_Vector_val<tagShopItemInfo,std::allocator<tagShopItemInfo> > >::_Compat
_TEXT	ENDS
PUBLIC	??$addressof@$$CBUtagShopItemInfo@@@std@@YAPBUtagShopItemInfo@@ABU1@@Z ; std::addressof<tagShopItemInfo const >
; Function compile flags: /Ogsp
; File c:\program files (x86)\microsoft visual studio 10.0\vc\include\xmemory
;	COMDAT ??$addressof@$$CBUtagShopItemInfo@@@std@@YAPBUtagShopItemInfo@@ABU1@@Z
_TEXT	SEGMENT
__Val$ = 8						; size = 4
??$addressof@$$CBUtagShopItemInfo@@@std@@YAPBUtagShopItemInfo@@ABU1@@Z PROC ; std::addressof<tagShopItemInfo const >, COMDAT

; 110  : 	{	// return address of _Val

  00000	55		 push	 ebp
  00001	8b ec		 mov	 ebp, esp

; 111  : 	return ((_Ty *) &(char&)_Val);

  00003	8b 45 08	 mov	 eax, DWORD PTR __Val$[ebp]

; 112  : 	}

  00006	5d		 pop	 ebp
  00007	c3		 ret	 0
??$addressof@$$CBUtagShopItemInfo@@@std@@YAPBUtagShopItemInfo@@ABU1@@Z ENDP ; std::addressof<tagShopItemInfo const >
_TEXT	ENDS
PUBLIC	__TI2?AVbad_alloc@std@@
PUBLIC	??$_Allocate@UtagShopItemInfo@@@std@@YAPAUtagShopItemInfo@@IPAU1@@Z ; std::_Allocate<tagShopItemInfo>
PUBLIC	__CTA2?AVbad_alloc@std@@
PUBLIC	__CT??_R0?AVbad_alloc@std@@@8??0bad_alloc@std@@QAE@ABV01@@Z12
PUBLIC	??0bad_alloc@std@@QAE@ABV01@@Z			; std::bad_alloc::bad_alloc
PUBLIC	__CT??_R0?AVexception@std@@@8??0exception@std@@QAE@ABV01@@Z12
EXTRN	__CxxThrowException@8:PROC
EXTRN	??0exception@std@@QAE@ABV01@@Z:PROC		; std::exception::exception
;	COMDAT __CT??_R0?AVexception@std@@@8??0exception@std@@QAE@ABV01@@Z12
; File c:\program files (x86)\microsoft visual studio 10.0\vc\include\exception
xdata$x	SEGMENT
__CT??_R0?AVexception@std@@@8??0exception@std@@QAE@ABV01@@Z12 DD 00H
	DD	FLAT:??_R0?AVexception@std@@@8
	DD	00H
	DD	0ffffffffH
	ORG $+4
	DD	0cH
	DD	FLAT:??0exception@std@@QAE@ABV01@@Z
xdata$x	ENDS
;	COMDAT __CT??_R0?AVbad_alloc@std@@@8??0bad_alloc@std@@QAE@ABV01@@Z12
xdata$x	SEGMENT
__CT??_R0?AVbad_alloc@std@@@8??0bad_alloc@std@@QAE@ABV01@@Z12 DD 00H
	DD	FLAT:??_R0?AVbad_alloc@std@@@8
	DD	00H
	DD	0ffffffffH
	ORG $+4
	DD	0cH
	DD	FLAT:??0bad_alloc@std@@QAE@ABV01@@Z
xdata$x	ENDS
;	COMDAT __CTA2?AVbad_alloc@std@@
xdata$x	SEGMENT
__CTA2?AVbad_alloc@std@@ DD 02H
	DD	FLAT:__CT??_R0?AVbad_alloc@std@@@8??0bad_alloc@std@@QAE@ABV01@@Z12
	DD	FLAT:__CT??_R0?AVexception@std@@@8??0exception@std@@QAE@ABV01@@Z12
xdata$x	ENDS
;	COMDAT __TI2?AVbad_alloc@std@@
xdata$x	SEGMENT
__TI2?AVbad_alloc@std@@ DD 00H
	DD	FLAT:??1bad_alloc@std@@UAE@XZ
	DD	00H
	DD	FLAT:__CTA2?AVbad_alloc@std@@
; Function compile flags: /Ogsp
; File c:\program files (x86)\microsoft visual studio 10.0\vc\include\xmemory
xdata$x	ENDS
;	COMDAT ??$_Allocate@UtagShopItemInfo@@@std@@YAPAUtagShopItemInfo@@IPAU1@@Z
_TEXT	SEGMENT
$T554335 = -12						; size = 12
$T554340 = 8						; size = 4
__Count$ = 8						; size = 4
___formal$ = 12						; size = 4
??$_Allocate@UtagShopItemInfo@@@std@@YAPAUtagShopItemInfo@@IPAU1@@Z PROC ; std::_Allocate<tagShopItemInfo>, COMDAT

; 30   : 	{	// allocate storage for _Count elements of type _Ty

  00000	55		 push	 ebp
  00001	8b ec		 mov	 ebp, esp

; 31   : 	void *_Ptr = 0;
; 32   : 
; 33   : 	if (_Count <= 0)

  00003	8b 4d 08	 mov	 ecx, DWORD PTR __Count$[ebp]
  00006	83 ec 0c	 sub	 esp, 12			; 0000000cH
  00009	33 c0		 xor	 eax, eax
  0000b	85 c9		 test	 ecx, ecx

; 34   : 		_Count = 0;
; 35   : 	else if (((_SIZT)(-1) / sizeof (_Ty) < _Count)

  0000d	74 3c		 je	 SHORT $LN5@Allocate

; 36   : 		|| (_Ptr = ::operator new(_Count * sizeof (_Ty))) == 0)

  0000f	81 f9 5d 74 d1
	05		 cmp	 ecx, 97612893		; 05d1745dH
  00015	77 0e		 ja	 SHORT $LN1@Allocate
  00017	6b c9 2c	 imul	 ecx, 44			; 0000002cH
  0001a	51		 push	 ecx
  0001b	e8 00 00 00 00	 call	 ??2@YAPAXI@Z		; operator new
  00020	59		 pop	 ecx
  00021	85 c0		 test	 eax, eax

; 38   : 
; 39   : 	return ((_Ty _FARQ *)_Ptr);

  00023	75 26		 jne	 SHORT $LN5@Allocate
$LN1@Allocate:

; 37   : 		_THROW_NCEE(bad_alloc, 0);

  00025	83 65 08 00	 and	 DWORD PTR $T554340[ebp], 0
  00029	8d 45 08	 lea	 eax, DWORD PTR $T554340[ebp]
  0002c	50		 push	 eax
  0002d	8d 4d f4	 lea	 ecx, DWORD PTR $T554335[ebp]
  00030	ff 15 00 00 00
	00		 call	 DWORD PTR __imp_??0exception@std@@QAE@ABQBD@Z
  00036	68 00 00 00 00	 push	 OFFSET __TI2?AVbad_alloc@std@@
  0003b	8d 45 f4	 lea	 eax, DWORD PTR $T554335[ebp]
  0003e	50		 push	 eax
  0003f	c7 45 f4 00 00
	00 00		 mov	 DWORD PTR $T554335[ebp], OFFSET ??_7bad_alloc@std@@6B@
  00046	e8 00 00 00 00	 call	 __CxxThrowException@8
$LN10@Allocate:
$LN5@Allocate:

; 40   : 	}

  0004b	c9		 leave
  0004c	c3		 ret	 0
$LN9@Allocate:
??$_Allocate@UtagShopItemInfo@@@std@@YAPAUtagShopItemInfo@@IPAU1@@Z ENDP ; std::_Allocate<tagShopItemInfo>
_TEXT	ENDS
PUBLIC	??G?$_Vector_const_iterator@V?$_Vector_val@UtagShopItemInfo@@V?$allocator@UtagShopItemInfo@@@std@@@std@@@std@@QBEHABV01@@Z ; std::_Vector_const_iterator<std::_Vector_val<tagShopItemInfo,std::allocator<tagShopItemInfo> > >::operator-
; Function compile flags: /Ogsp
; File c:\program files (x86)\microsoft visual studio 10.0\vc\include\vector
;	COMDAT ??G?$_Vector_const_iterator@V?$_Vector_val@UtagShopItemInfo@@V?$allocator@UtagShopItemInfo@@@std@@@std@@@std@@QBEHABV01@@Z
_TEXT	SEGMENT
__Right$ = 8						; size = 4
??G?$_Vector_const_iterator@V?$_Vector_val@UtagShopItemInfo@@V?$allocator@UtagShopItemInfo@@@std@@@std@@@std@@QBEHABV01@@Z PROC ; std::_Vector_const_iterator<std::_Vector_val<tagShopItemInfo,std::allocator<tagShopItemInfo> > >::operator-, COMDAT
; _this$ = ecx

; 190  : 		{	// return difference of iterators

  00000	55		 push	 ebp
  00001	8b ec		 mov	 ebp, esp

; 191  : 		_Compat(_Right);
; 192  : 		return (this->_Ptr - _Right._Ptr);

  00003	8b 01		 mov	 eax, DWORD PTR [ecx]
  00005	8b 4d 08	 mov	 ecx, DWORD PTR __Right$[ebp]
  00008	2b 01		 sub	 eax, DWORD PTR [ecx]
  0000a	6a 2c		 push	 44			; 0000002cH
  0000c	99		 cdq
  0000d	59		 pop	 ecx
  0000e	f7 f9		 idiv	 ecx

; 193  : 		}

  00010	5d		 pop	 ebp
  00011	c2 04 00	 ret	 4
??G?$_Vector_const_iterator@V?$_Vector_val@UtagShopItemInfo@@V?$allocator@UtagShopItemInfo@@@std@@@std@@@std@@QBEHABV01@@Z ENDP ; std::_Vector_const_iterator<std::_Vector_val<tagShopItemInfo,std::allocator<tagShopItemInfo> > >::operator-
_TEXT	ENDS
PUBLIC	??$forward@AAUtagShopItemInfo@@@std@@YAAAUtagShopItemInfo@@AAU1@@Z ; std::forward<tagShopItemInfo &>
; Function compile flags: /Ogsp
; File c:\program files (x86)\microsoft visual studio 10.0\vc\include\utility
;	COMDAT ??$forward@AAUtagShopItemInfo@@@std@@YAAAUtagShopItemInfo@@AAU1@@Z
_TEXT	SEGMENT
__Arg$ = 8						; size = 4
??$forward@AAUtagShopItemInfo@@@std@@YAAAUtagShopItemInfo@@AAU1@@Z PROC ; std::forward<tagShopItemInfo &>, COMDAT

; 78   : 	{	// forward _Arg, given explicitly specified type parameter

  00000	55		 push	 ebp
  00001	8b ec		 mov	 ebp, esp

; 79   : 	return ((_Ty&&)_Arg);

  00003	8b 45 08	 mov	 eax, DWORD PTR __Arg$[ebp]

; 80   : 	}

  00006	5d		 pop	 ebp
  00007	c3		 ret	 0
??$forward@AAUtagShopItemInfo@@@std@@YAAAUtagShopItemInfo@@AAU1@@Z ENDP ; std::forward<tagShopItemInfo &>
_TEXT	ENDS
PUBLIC	??$construct@AAUtagShopItemInfo@@@?$allocator@UtagShopItemInfo@@@std@@QAEXPAUtagShopItemInfo@@AAU2@@Z ; std::allocator<tagShopItemInfo>::construct<tagShopItemInfo &>
; Function compile flags: /Ogsp
; File c:\program files (x86)\microsoft visual studio 10.0\vc\include\xmemory
;	COMDAT ??$construct@AAUtagShopItemInfo@@@?$allocator@UtagShopItemInfo@@@std@@QAEXPAUtagShopItemInfo@@AAU2@@Z
_TEXT	SEGMENT
__Ptr$ = 8						; size = 4
__Val$ = 12						; size = 4
??$construct@AAUtagShopItemInfo@@@?$allocator@UtagShopItemInfo@@@std@@QAEXPAUtagShopItemInfo@@AAU2@@Z PROC ; std::allocator<tagShopItemInfo>::construct<tagShopItemInfo &>, COMDAT
; _this$ = ecx

; 206  : 		void construct(pointer _Ptr, _Other&& _Val)

  00000	55		 push	 ebp
  00001	8b ec		 mov	 ebp, esp
  00003	57		 push	 edi

; 207  : 		{	// construct object at _Ptr with value _Val
; 208  : 		::new ((void _FARQ *)_Ptr) _Ty(_STD forward<_Other>(_Val));

  00004	8b 7d 08	 mov	 edi, DWORD PTR __Ptr$[ebp]
  00007	85 ff		 test	 edi, edi
  00009	74 0a		 je	 SHORT $LN3@construct
  0000b	56		 push	 esi
  0000c	8b 75 0c	 mov	 esi, DWORD PTR __Val$[ebp]
  0000f	6a 0b		 push	 11			; 0000000bH
  00011	59		 pop	 ecx
  00012	f3 a5		 rep movsd
  00014	5e		 pop	 esi
$LN3@construct:
  00015	5f		 pop	 edi

; 209  : 		}

  00016	5d		 pop	 ebp
  00017	c2 08 00	 ret	 8
??$construct@AAUtagShopItemInfo@@@?$allocator@UtagShopItemInfo@@@std@@QAEXPAUtagShopItemInfo@@AAU2@@Z ENDP ; std::allocator<tagShopItemInfo>::construct<tagShopItemInfo &>
_TEXT	ENDS
PUBLIC	??$forward@ABUtagShopItemInfo@@@std@@YAABUtagShopItemInfo@@ABU1@@Z ; std::forward<tagShopItemInfo const &>
; Function compile flags: /Ogsp
; File c:\program files (x86)\microsoft visual studio 10.0\vc\include\utility
;	COMDAT ??$forward@ABUtagShopItemInfo@@@std@@YAABUtagShopItemInfo@@ABU1@@Z
_TEXT	SEGMENT
__Arg$ = 8						; size = 4
??$forward@ABUtagShopItemInfo@@@std@@YAABUtagShopItemInfo@@ABU1@@Z PROC ; std::forward<tagShopItemInfo const &>, COMDAT

; 78   : 	{	// forward _Arg, given explicitly specified type parameter

  00000	55		 push	 ebp
  00001	8b ec		 mov	 ebp, esp

; 79   : 	return ((_Ty&&)_Arg);

  00003	8b 45 08	 mov	 eax, DWORD PTR __Arg$[ebp]

; 80   : 	}

  00006	5d		 pop	 ebp
  00007	c3		 ret	 0
??$forward@ABUtagShopItemInfo@@@std@@YAABUtagShopItemInfo@@ABU1@@Z ENDP ; std::forward<tagShopItemInfo const &>
_TEXT	ENDS
PUBLIC	??$_Ptr_cat@UtagShopItemInfo@@U1@@std@@YA?AU_Nonscalar_ptr_iterator_tag@0@PAUtagShopItemInfo@@0@Z ; std::_Ptr_cat<tagShopItemInfo,tagShopItemInfo>
; Function compile flags: /Ogsp
; File c:\program files (x86)\microsoft visual studio 10.0\vc\include\xutility
;	COMDAT ??$_Ptr_cat@UtagShopItemInfo@@U1@@std@@YA?AU_Nonscalar_ptr_iterator_tag@0@PAUtagShopItemInfo@@0@Z
_TEXT	SEGMENT
__Cat$ = -1						; size = 1
___formal$ = 8						; size = 4
___formal$ = 12						; size = 4
??$_Ptr_cat@UtagShopItemInfo@@U1@@std@@YA?AU_Nonscalar_ptr_iterator_tag@0@PAUtagShopItemInfo@@0@Z PROC ; std::_Ptr_cat<tagShopItemInfo,tagShopItemInfo>, COMDAT

; 516  : 	{	// return pointer category from pointers

  00000	55		 push	 ebp
  00001	8b ec		 mov	 ebp, esp
  00003	51		 push	 ecx

; 517  : 	typename _Ptr_cat_helper<_Elem1, _Elem2>::_Type _Cat;
; 518  : 	return (_Cat);

  00004	8a 45 ff	 mov	 al, BYTE PTR __Cat$[ebp]

; 519  : 	}

  00007	c9		 leave
  00008	c3		 ret	 0
??$_Ptr_cat@UtagShopItemInfo@@U1@@std@@YA?AU_Nonscalar_ptr_iterator_tag@0@PAUtagShopItemInfo@@0@Z ENDP ; std::_Ptr_cat<tagShopItemInfo,tagShopItemInfo>
_TEXT	ENDS
PUBLIC	??$_Construct@UtagShopItemInfo@@ABU1@@std@@YAXPAUtagShopItemInfo@@ABU1@@Z ; std::_Construct<tagShopItemInfo,tagShopItemInfo const &>
; Function compile flags: /Ogsp
; File c:\program files (x86)\microsoft visual studio 10.0\vc\include\xmemory
;	COMDAT ??$_Construct@UtagShopItemInfo@@ABU1@@std@@YAXPAUtagShopItemInfo@@ABU1@@Z
_TEXT	SEGMENT
__Ptr$ = 8						; size = 4
__Val$ = 12						; size = 4
??$_Construct@UtagShopItemInfo@@ABU1@@std@@YAXPAUtagShopItemInfo@@ABU1@@Z PROC ; std::_Construct<tagShopItemInfo,tagShopItemInfo const &>, COMDAT

; 46   : 	{	// construct object at _Ptr with value _Val

  00000	55		 push	 ebp
  00001	8b ec		 mov	 ebp, esp
  00003	57		 push	 edi

; 47   : 	void _FARQ *_Vptr = _Ptr;
; 48   : 	::new (_Vptr) _Ty1(_STD forward<_Ty2>(_Val));

  00004	8b 7d 08	 mov	 edi, DWORD PTR __Ptr$[ebp]
  00007	85 ff		 test	 edi, edi
  00009	74 0a		 je	 SHORT $LN3@Construct
  0000b	56		 push	 esi
  0000c	8b 75 0c	 mov	 esi, DWORD PTR __Val$[ebp]
  0000f	6a 0b		 push	 11			; 0000000bH
  00011	59		 pop	 ecx
  00012	f3 a5		 rep movsd
  00014	5e		 pop	 esi
$LN3@Construct:
  00015	5f		 pop	 edi

; 49   : 	}

  00016	5d		 pop	 ebp
  00017	c3		 ret	 0
??$_Construct@UtagShopItemInfo@@ABU1@@std@@YAXPAUtagShopItemInfo@@ABU1@@Z ENDP ; std::_Construct<tagShopItemInfo,tagShopItemInfo const &>
_TEXT	ENDS
PUBLIC	?_Unchecked@?$_Vector_iterator@V?$_Vector_val@UtagShopItemInfo@@V?$allocator@UtagShopItemInfo@@@std@@@std@@@std@@QBEPAUtagShopItemInfo@@XZ ; std::_Vector_iterator<std::_Vector_val<tagShopItemInfo,std::allocator<tagShopItemInfo> > >::_Unchecked
; Function compile flags: /Ogsp
; File c:\program files (x86)\microsoft visual studio 10.0\vc\include\vector
;	COMDAT ?_Unchecked@?$_Vector_iterator@V?$_Vector_val@UtagShopItemInfo@@V?$allocator@UtagShopItemInfo@@@std@@@std@@@std@@QBEPAUtagShopItemInfo@@XZ
_TEXT	SEGMENT
?_Unchecked@?$_Vector_iterator@V?$_Vector_val@UtagShopItemInfo@@V?$allocator@UtagShopItemInfo@@@std@@@std@@@std@@QBEPAUtagShopItemInfo@@XZ PROC ; std::_Vector_iterator<std::_Vector_val<tagShopItemInfo,std::allocator<tagShopItemInfo> > >::_Unchecked, COMDAT
; _this$ = ecx

; 317  : 		return (_Unchecked_type(this->_Ptr));

  00000	8b 01		 mov	 eax, DWORD PTR [ecx]

; 318  : 		}

  00002	c3		 ret	 0
?_Unchecked@?$_Vector_iterator@V?$_Vector_val@UtagShopItemInfo@@V?$allocator@UtagShopItemInfo@@@std@@@std@@@std@@QBEPAUtagShopItemInfo@@XZ ENDP ; std::_Vector_iterator<std::_Vector_val<tagShopItemInfo,std::allocator<tagShopItemInfo> > >::_Unchecked
_TEXT	ENDS
PUBLIC	??$_Val_type@PAUtagShopItemInfo@@@std@@YAPAUtagShopItemInfo@@PAU1@@Z ; std::_Val_type<tagShopItemInfo *>
; Function compile flags: /Ogsp
; File c:\program files (x86)\microsoft visual studio 10.0\vc\include\xutility
;	COMDAT ??$_Val_type@PAUtagShopItemInfo@@@std@@YAPAUtagShopItemInfo@@PAU1@@Z
_TEXT	SEGMENT
___formal$ = 8						; size = 4
??$_Val_type@PAUtagShopItemInfo@@@std@@YAPAUtagShopItemInfo@@PAU1@@Z PROC ; std::_Val_type<tagShopItemInfo *>, COMDAT

; 790  : 	return (0);

  00000	33 c0		 xor	 eax, eax

; 791  : 	}

  00002	c3		 ret	 0
??$_Val_type@PAUtagShopItemInfo@@@std@@YAPAUtagShopItemInfo@@PAU1@@Z ENDP ; std::_Val_type<tagShopItemInfo *>
_TEXT	ENDS
PUBLIC	??$move@AAUtagShopItemInfo@@@std@@YA$$QAUtagShopItemInfo@@AAU1@@Z ; std::move<tagShopItemInfo &>
; Function compile flags: /Ogsp
; File c:\program files (x86)\microsoft visual studio 10.0\vc\include\utility
;	COMDAT ??$move@AAUtagShopItemInfo@@@std@@YA$$QAUtagShopItemInfo@@AAU1@@Z
_TEXT	SEGMENT
__Arg$ = 8						; size = 4
??$move@AAUtagShopItemInfo@@@std@@YA$$QAUtagShopItemInfo@@AAU1@@Z PROC ; std::move<tagShopItemInfo &>, COMDAT

; 86   : 	{	// forward _Arg as movable

  00000	55		 push	 ebp
  00001	8b ec		 mov	 ebp, esp

; 87   : 	return ((typename tr1::_Remove_reference<_Ty>::_Type&&)_Arg);

  00003	8b 45 08	 mov	 eax, DWORD PTR __Arg$[ebp]

; 88   : 	}

  00006	5d		 pop	 ebp
  00007	c3		 ret	 0
??$move@AAUtagShopItemInfo@@@std@@YA$$QAUtagShopItemInfo@@AAU1@@Z ENDP ; std::move<tagShopItemInfo &>
_TEXT	ENDS
PUBLIC	??$_Unchecked@PAUtagShopItemInfo@@@std@@YAPAUtagShopItemInfo@@PAU1@@Z ; std::_Unchecked<tagShopItemInfo *>
; Function compile flags: /Ogsp
; File c:\program files (x86)\microsoft visual studio 10.0\vc\include\xutility
;	COMDAT ??$_Unchecked@PAUtagShopItemInfo@@@std@@YAPAUtagShopItemInfo@@PAU1@@Z
_TEXT	SEGMENT
__Src$ = 8						; size = 4
??$_Unchecked@PAUtagShopItemInfo@@@std@@YAPAUtagShopItemInfo@@PAU1@@Z PROC ; std::_Unchecked<tagShopItemInfo *>, COMDAT

; 266  : 	{	// construct unchecked from checked, generic

  00000	55		 push	 ebp
  00001	8b ec		 mov	 ebp, esp

; 267  : 	return (_Src);

  00003	8b 45 08	 mov	 eax, DWORD PTR __Src$[ebp]

; 268  : 	}

  00006	5d		 pop	 ebp
  00007	c3		 ret	 0
??$_Unchecked@PAUtagShopItemInfo@@@std@@YAPAUtagShopItemInfo@@PAU1@@Z ENDP ; std::_Unchecked<tagShopItemInfo *>
_TEXT	ENDS
PUBLIC	??$_Dist_type@PAUtagShopItemInfo@@@std@@YAPAHPAUtagShopItemInfo@@@Z ; std::_Dist_type<tagShopItemInfo *>
; Function compile flags: /Ogsp
;	COMDAT ??$_Dist_type@PAUtagShopItemInfo@@@std@@YAPAHPAUtagShopItemInfo@@@Z
_TEXT	SEGMENT
___formal$ = 8						; size = 4
??$_Dist_type@PAUtagShopItemInfo@@@std@@YAPAHPAUtagShopItemInfo@@@Z PROC ; std::_Dist_type<tagShopItemInfo *>, COMDAT

; 850  : 	return (0);

  00000	33 c0		 xor	 eax, eax

; 851  : 	}

  00002	c3		 ret	 0
??$_Dist_type@PAUtagShopItemInfo@@@std@@YAPAHPAUtagShopItemInfo@@@Z ENDP ; std::_Dist_type<tagShopItemInfo *>
_TEXT	ENDS
PUBLIC	??$_Destroy@UtagShopItemInfo@@@std@@YAXPAUtagShopItemInfo@@@Z ; std::_Destroy<tagShopItemInfo>
; Function compile flags: /Ogsp
; File c:\program files (x86)\microsoft visual studio 10.0\vc\include\xmemory
;	COMDAT ??$_Destroy@UtagShopItemInfo@@@std@@YAXPAUtagShopItemInfo@@@Z
_TEXT	SEGMENT
__Ptr$ = 8						; size = 4
??$_Destroy@UtagShopItemInfo@@@std@@YAXPAUtagShopItemInfo@@@Z PROC ; std::_Destroy<tagShopItemInfo>, COMDAT

; 63   : 	_Ptr->~_Ty();
; 64   : 	}

  00000	c3		 ret	 0
??$_Destroy@UtagShopItemInfo@@@std@@YAXPAUtagShopItemInfo@@@Z ENDP ; std::_Destroy<tagShopItemInfo>
_TEXT	ENDS
PUBLIC	??$forward@AAPAUtagShopItemInfo@@@std@@YAAAPAUtagShopItemInfo@@AAPAU1@@Z ; std::forward<tagShopItemInfo * &>
; Function compile flags: /Ogsp
; File c:\program files (x86)\microsoft visual studio 10.0\vc\include\utility
;	COMDAT ??$forward@AAPAUtagShopItemInfo@@@std@@YAAAPAUtagShopItemInfo@@AAPAU1@@Z
_TEXT	SEGMENT
__Arg$ = 8						; size = 4
??$forward@AAPAUtagShopItemInfo@@@std@@YAAAPAUtagShopItemInfo@@AAPAU1@@Z PROC ; std::forward<tagShopItemInfo * &>, COMDAT

; 78   : 	{	// forward _Arg, given explicitly specified type parameter

  00000	55		 push	 ebp
  00001	8b ec		 mov	 ebp, esp

; 79   : 	return ((_Ty&&)_Arg);

  00003	8b 45 08	 mov	 eax, DWORD PTR __Arg$[ebp]

; 80   : 	}

  00006	5d		 pop	 ebp
  00007	c3		 ret	 0
??$forward@AAPAUtagShopItemInfo@@@std@@YAAAPAUtagShopItemInfo@@AAPAU1@@Z ENDP ; std::forward<tagShopItemInfo * &>
_TEXT	ENDS
PUBLIC	??$?0AAPAUtagShopItemInfo@@AAPAU0@@?$_Pair_base@PAUtagShopItemInfo@@PAU1@@std@@QAE@AAPAUtagShopItemInfo@@0@Z ; std::_Pair_base<tagShopItemInfo *,tagShopItemInfo *>::_Pair_base<tagShopItemInfo *,tagShopItemInfo *><tagShopItemInfo * &,tagShopItemInfo * &>
; Function compile flags: /Ogsp
;	COMDAT ??$?0AAPAUtagShopItemInfo@@AAPAU0@@?$_Pair_base@PAUtagShopItemInfo@@PAU1@@std@@QAE@AAPAUtagShopItemInfo@@0@Z
_TEXT	SEGMENT
__Val1$ = 8						; size = 4
__Val2$ = 12						; size = 4
??$?0AAPAUtagShopItemInfo@@AAPAU0@@?$_Pair_base@PAUtagShopItemInfo@@PAU1@@std@@QAE@AAPAUtagShopItemInfo@@0@Z PROC ; std::_Pair_base<tagShopItemInfo *,tagShopItemInfo *>::_Pair_base<tagShopItemInfo *,tagShopItemInfo *><tagShopItemInfo * &,tagShopItemInfo * &>, COMDAT
; _this$ = ecx

; 163  : 		{	// construct from moved values

  00000	55		 push	 ebp
  00001	8b ec		 mov	 ebp, esp
  00003	8b c1		 mov	 eax, ecx
  00005	8b 4d 08	 mov	 ecx, DWORD PTR __Val1$[ebp]
  00008	8b 09		 mov	 ecx, DWORD PTR [ecx]
  0000a	89 08		 mov	 DWORD PTR [eax], ecx
  0000c	8b 4d 0c	 mov	 ecx, DWORD PTR __Val2$[ebp]
  0000f	8b 09		 mov	 ecx, DWORD PTR [ecx]
  00011	89 48 04	 mov	 DWORD PTR [eax+4], ecx

; 164  : 		}

  00014	5d		 pop	 ebp
  00015	c2 08 00	 ret	 8
??$?0AAPAUtagShopItemInfo@@AAPAU0@@?$_Pair_base@PAUtagShopItemInfo@@PAU1@@std@@QAE@AAPAUtagShopItemInfo@@0@Z ENDP ; std::_Pair_base<tagShopItemInfo *,tagShopItemInfo *>::_Pair_base<tagShopItemInfo *,tagShopItemInfo *><tagShopItemInfo * &,tagShopItemInfo * &>
_TEXT	ENDS
PUBLIC	??$_Move@AAUtagShopItemInfo@@@std@@YA$$QAUtagShopItemInfo@@AAU1@@Z ; std::_Move<tagShopItemInfo &>
; Function compile flags: /Ogsp
;	COMDAT ??$_Move@AAUtagShopItemInfo@@@std@@YA$$QAUtagShopItemInfo@@AAU1@@Z
_TEXT	SEGMENT
__Arg$ = 8						; size = 4
??$_Move@AAUtagShopItemInfo@@@std@@YA$$QAUtagShopItemInfo@@AAU1@@Z PROC ; std::_Move<tagShopItemInfo &>, COMDAT

; 94   : 	{	// forward _Arg as movable

  00000	55		 push	 ebp
  00001	8b ec		 mov	 ebp, esp

; 95   : 	return ((typename tr1::_Remove_reference<_Ty>::_Type&&)_Arg);

  00003	8b 45 08	 mov	 eax, DWORD PTR __Arg$[ebp]

; 96   : 	}

  00006	5d		 pop	 ebp
  00007	c3		 ret	 0
??$_Move@AAUtagShopItemInfo@@@std@@YA$$QAUtagShopItemInfo@@AAU1@@Z ENDP ; std::_Move<tagShopItemInfo &>
_TEXT	ENDS
PUBLIC	??$forward@UtagShopItemInfo@@@std@@YA$$QAUtagShopItemInfo@@AAU1@@Z ; std::forward<tagShopItemInfo>
; Function compile flags: /Ogsp
;	COMDAT ??$forward@UtagShopItemInfo@@@std@@YA$$QAUtagShopItemInfo@@AAU1@@Z
_TEXT	SEGMENT
__Arg$ = 8						; size = 4
??$forward@UtagShopItemInfo@@@std@@YA$$QAUtagShopItemInfo@@AAU1@@Z PROC ; std::forward<tagShopItemInfo>, COMDAT

; 78   : 	{	// forward _Arg, given explicitly specified type parameter

  00000	55		 push	 ebp
  00001	8b ec		 mov	 ebp, esp

; 79   : 	return ((_Ty&&)_Arg);

  00003	8b 45 08	 mov	 eax, DWORD PTR __Arg$[ebp]

; 80   : 	}

  00006	5d		 pop	 ebp
  00007	c3		 ret	 0
??$forward@UtagShopItemInfo@@@std@@YA$$QAUtagShopItemInfo@@AAU1@@Z ENDP ; std::forward<tagShopItemInfo>
_TEXT	ENDS
PUBLIC	??$_Push_heap@PAUtagShopItemInfo@@HU1@VShopItemInfoSort@@@std@@YAXPAUtagShopItemInfo@@HH$$QAU1@VShopItemInfoSort@@@Z ; std::_Push_heap<tagShopItemInfo *,int,tagShopItemInfo,ShopItemInfoSort>
; Function compile flags: /Ogsp
; File c:\program files (x86)\microsoft visual studio 10.0\vc\include\algorithm
;	COMDAT ??$_Push_heap@PAUtagShopItemInfo@@HU1@VShopItemInfoSort@@@std@@YAXPAUtagShopItemInfo@@HH$$QAU1@VShopItemInfoSort@@@Z
_TEXT	SEGMENT
__First$ = 8						; size = 4
__Hole$ = 12						; size = 4
__Top$ = 16						; size = 4
__Val$ = 20						; size = 4
__Pred$ = 24						; size = 1
??$_Push_heap@PAUtagShopItemInfo@@HU1@VShopItemInfoSort@@@std@@YAXPAUtagShopItemInfo@@HH$$QAU1@VShopItemInfoSort@@@Z PROC ; std::_Push_heap<tagShopItemInfo *,int,tagShopItemInfo,ShopItemInfoSort>, COMDAT

; 2455 : 	{	// percolate _Hole to _Top or where _Val belongs, using operator<

  00000	55		 push	 ebp
  00001	8b ec		 mov	 ebp, esp
  00003	53		 push	 ebx
  00004	56		 push	 esi
  00005	57		 push	 edi

; 2456 : 	for (_Diff _Idx = (_Hole - 1) / 2;

  00006	8b 7d 0c	 mov	 edi, DWORD PTR __Hole$[ebp]
  00009	8d 47 ff	 lea	 eax, DWORD PTR [edi-1]
  0000c	99		 cdq
  0000d	2b c2		 sub	 eax, edx
  0000f	8b d8		 mov	 ebx, eax
  00011	d1 fb		 sar	 ebx, 1
  00013	eb 2f		 jmp	 SHORT $LN13@Push_heap
$LL3@Push_heap:

; 2457 : 		_Top < _Hole && _DEBUG_LT_PRED(_Pred, *(_First + _Idx), _Val);
; 2458 : 		_Idx = (_Hole - 1) / 2)

  00015	ff 75 14	 push	 DWORD PTR __Val$[ebp]
  00018	8b f3		 mov	 esi, ebx
  0001a	6b f6 2c	 imul	 esi, 44			; 0000002cH
  0001d	03 75 08	 add	 esi, DWORD PTR __First$[ebp]
  00020	8d 4d 18	 lea	 ecx, DWORD PTR __Pred$[ebp]
  00023	56		 push	 esi
  00024	e8 00 00 00 00	 call	 ??RShopItemInfoSort@@QBE_NABUtagShopItemInfo@@0@Z ; ShopItemInfoSort::operator()
  00029	84 c0		 test	 al, al
  0002b	74 1c		 je	 SHORT $LN12@Push_heap

; 2459 : 		{	// move _Hole up to parent
; 2460 : 		*(_First + _Hole) = _Move(*(_First + _Idx));

  0002d	6b ff 2c	 imul	 edi, 44			; 0000002cH
  00030	03 7d 08	 add	 edi, DWORD PTR __First$[ebp]
  00033	8d 43 ff	 lea	 eax, DWORD PTR [ebx-1]
  00036	99		 cdq
  00037	6a 0b		 push	 11			; 0000000bH
  00039	59		 pop	 ecx
  0003a	2b c2		 sub	 eax, edx
  0003c	f3 a5		 rep movsd
  0003e	d1 f8		 sar	 eax, 1

; 2461 : 		_Hole = _Idx;

  00040	8b fb		 mov	 edi, ebx
  00042	8b d8		 mov	 ebx, eax
$LN13@Push_heap:

; 2457 : 		_Top < _Hole && _DEBUG_LT_PRED(_Pred, *(_First + _Idx), _Val);
; 2458 : 		_Idx = (_Hole - 1) / 2)

  00044	39 7d 10	 cmp	 DWORD PTR __Top$[ebp], edi
  00047	7c cc		 jl	 SHORT $LL3@Push_heap
$LN12@Push_heap:

; 2462 : 		}
; 2463 : 
; 2464 : 	*(_First + _Hole) = _Move(_Val);	// drop _Val into final hole

  00049	8b 75 14	 mov	 esi, DWORD PTR __Val$[ebp]
  0004c	6b ff 2c	 imul	 edi, 44			; 0000002cH
  0004f	03 7d 08	 add	 edi, DWORD PTR __First$[ebp]
  00052	6a 0b		 push	 11			; 0000000bH
  00054	59		 pop	 ecx
  00055	f3 a5		 rep movsd
  00057	5f		 pop	 edi
  00058	5e		 pop	 esi
  00059	5b		 pop	 ebx

; 2465 : 	}

  0005a	5d		 pop	 ebp
  0005b	c3		 ret	 0
??$_Push_heap@PAUtagShopItemInfo@@HU1@VShopItemInfoSort@@@std@@YAXPAUtagShopItemInfo@@HH$$QAU1@VShopItemInfoSort@@@Z ENDP ; std::_Push_heap<tagShopItemInfo *,int,tagShopItemInfo,ShopItemInfoSort>
_TEXT	ENDS
PUBLIC	??$_Move_backward@PAUtagShopItemInfo@@PAU1@@std@@YAPAUtagShopItemInfo@@PAU1@00U_Nonscalar_ptr_iterator_tag@0@@Z ; std::_Move_backward<tagShopItemInfo *,tagShopItemInfo *>
; Function compile flags: /Ogsp
; File c:\program files (x86)\microsoft visual studio 10.0\vc\include\xutility
;	COMDAT ??$_Move_backward@PAUtagShopItemInfo@@PAU1@@std@@YAPAUtagShopItemInfo@@PAU1@00U_Nonscalar_ptr_iterator_tag@0@@Z
_TEXT	SEGMENT
__First$ = 8						; size = 4
__Last$ = 12						; size = 4
__Dest$ = 16						; size = 4
___formal$ = 20						; size = 1
??$_Move_backward@PAUtagShopItemInfo@@PAU1@@std@@YAPAUtagShopItemInfo@@PAU1@00U_Nonscalar_ptr_iterator_tag@0@@Z PROC ; std::_Move_backward<tagShopItemInfo *,tagShopItemInfo *>, COMDAT

; 2617 : 	{	// move [_First, _Last) backwards to [..., _Dest), arbitrary iterators

  00000	55		 push	 ebp
  00001	8b ec		 mov	 ebp, esp

; 2618 : 	while (_First != _Last)

  00003	8b 45 0c	 mov	 eax, DWORD PTR __Last$[ebp]
  00006	39 45 08	 cmp	 DWORD PTR __First$[ebp], eax
  00009	74 1a		 je	 SHORT $LN9@Move_backw
  0000b	56		 push	 esi
  0000c	57		 push	 edi
$LL2@Move_backw:

; 2619 : 		*--_Dest = _STD move(*--_Last);

  0000d	83 6d 10 2c	 sub	 DWORD PTR __Dest$[ebp], 44 ; 0000002cH
  00011	8b 7d 10	 mov	 edi, DWORD PTR __Dest$[ebp]
  00014	83 e8 2c	 sub	 eax, 44			; 0000002cH
  00017	6a 0b		 push	 11			; 0000000bH
  00019	59		 pop	 ecx
  0001a	8b f0		 mov	 esi, eax
  0001c	f3 a5		 rep movsd
  0001e	3b 45 08	 cmp	 eax, DWORD PTR __First$[ebp]
  00021	75 ea		 jne	 SHORT $LL2@Move_backw
  00023	5f		 pop	 edi
  00024	5e		 pop	 esi
$LN9@Move_backw:

; 2620 : 	return (_Dest);

  00025	8b 45 10	 mov	 eax, DWORD PTR __Dest$[ebp]

; 2621 : 	}

  00028	5d		 pop	 ebp
  00029	c3		 ret	 0
??$_Move_backward@PAUtagShopItemInfo@@PAU1@@std@@YAPAUtagShopItemInfo@@PAU1@00U_Nonscalar_ptr_iterator_tag@0@@Z ENDP ; std::_Move_backward<tagShopItemInfo *,tagShopItemInfo *>
_TEXT	ENDS
PUBLIC	?_DECSTR@@YAXPADH@Z				; _DECSTR
; Function compile flags: /Ogsp
; File d:\lost saga for developer\youtube\tutorial\source\src\lsclient\stringprotect.h
;	COMDAT ?_DECSTR@@YAXPADH@Z
_TEXT	SEGMENT
_s$ = 8							; size = 4
_l$ = 12						; size = 4
?_DECSTR@@YAXPADH@Z PROC				; _DECSTR, COMDAT

; 40   : __forceinline void _DECSTR(char* s, int l){int i=0,l4=(l-1)/4,*p=(int*)s;s[l-1]=0;for(;i<l4;++i)*(p++)^=0xEAEBECED;for(i=l4*4;i<l-1;++i)s[i]^=0xED-i%4;}

  00000	55		 push	 ebp
  00001	8b ec		 mov	 ebp, esp
  00003	8b 4d 0c	 mov	 ecx, DWORD PTR _l$[ebp]
  00006	56		 push	 esi
  00007	8b 75 08	 mov	 esi, DWORD PTR _s$[ebp]
  0000a	57		 push	 edi
  0000b	8d 79 ff	 lea	 edi, DWORD PTR [ecx-1]
  0000e	8b c7		 mov	 eax, edi
  00010	99		 cdq
  00011	83 e2 03	 and	 edx, 3
  00014	03 c2		 add	 eax, edx
  00016	c1 f8 02	 sar	 eax, 2
  00019	8b d6		 mov	 edx, esi
  0001b	c6 44 0e ff 00	 mov	 BYTE PTR [esi+ecx-1], 0
  00020	85 c0		 test	 eax, eax
  00022	7e 0e		 jle	 SHORT $LN4@DECSTR
  00024	8b c8		 mov	 ecx, eax
$LL6@DECSTR:
  00026	81 32 ed ec eb
	ea		 xor	 DWORD PTR [edx], -353637139 ; eaebecedH
  0002c	83 c2 04	 add	 edx, 4
  0002f	49		 dec	 ecx
  00030	75 f4		 jne	 SHORT $LL6@DECSTR
$LN4@DECSTR:
  00032	c1 e0 02	 shl	 eax, 2
  00035	eb 17		 jmp	 SHORT $LN14@DECSTR
$LL3@DECSTR:
  00037	8b c8		 mov	 ecx, eax
  00039	81 e1 03 00 00
	80		 and	 ecx, -2147483645	; 80000003H
  0003f	79 05		 jns	 SHORT $LN13@DECSTR
  00041	49		 dec	 ecx
  00042	83 c9 fc	 or	 ecx, -4			; fffffffcH
  00045	41		 inc	 ecx
$LN13@DECSTR:
  00046	b2 ed		 mov	 dl, -19			; ffffffedH
  00048	2a d1		 sub	 dl, cl
  0004a	30 14 30	 xor	 BYTE PTR [eax+esi], dl
  0004d	40		 inc	 eax
$LN14@DECSTR:
  0004e	3b c7		 cmp	 eax, edi
  00050	7c e5		 jl	 SHORT $LL3@DECSTR
  00052	5f		 pop	 edi
  00053	5e		 pop	 esi
  00054	5d		 pop	 ebp
  00055	c3		 ret	 0
?_DECSTR@@YAXPADH@Z ENDP				; _DECSTR
_TEXT	ENDS
PUBLIC	?GetDefaultLimit@ioClassPrice@@QAEKXZ		; ioClassPrice::GetDefaultLimit
; Function compile flags: /Ogsp
; File d:\lost saga for developer\youtube\tutorial\source\src\lsclient\ioclassprice.h
;	COMDAT ?GetDefaultLimit@ioClassPrice@@QAEKXZ
_TEXT	SEGMENT
?GetDefaultLimit@ioClassPrice@@QAEKXZ PROC		; ioClassPrice::GetDefaultLimit, COMDAT
; _this$ = ecx

; 119  : 	DWORD GetDefaultLimit(){ return m_dwDefaultLimit; }

  00000	8b 41 58	 mov	 eax, DWORD PTR [ecx+88]
  00003	c3		 ret	 0
?GetDefaultLimit@ioClassPrice@@QAEKXZ ENDP		; ioClassPrice::GetDefaultLimit
_TEXT	ENDS
PUBLIC	?GetItemCode@ioItem@@QBEKXZ			; ioItem::GetItemCode
; Function compile flags: /Ogsp
; File d:\lost saga for developer\youtube\tutorial\source\src\lsclient\ioitem.h
;	COMDAT ?GetItemCode@ioItem@@QBEKXZ
_TEXT	SEGMENT
?GetItemCode@ioItem@@QBEKXZ PROC			; ioItem::GetItemCode, COMDAT
; _this$ = ecx

; 264  : 	inline DWORD GetItemCode() const { return m_dwItemCode; }

  00000	8b 41 38	 mov	 eax, DWORD PTR [ecx+56]
  00003	c3		 ret	 0
?GetItemCode@ioItem@@QBEKXZ ENDP			; ioItem::GetItemCode
_TEXT	ENDS
PUBLIC	?GetCurState@FSMStateMgr@@QBEHXZ		; FSMStateMgr::GetCurState
; Function compile flags: /Ogsp
; File d:\lost saga for developer\youtube\tutorial\source\src\lsclient\gui\fsmstatemgr.h
;	COMDAT ?GetCurState@FSMStateMgr@@QBEHXZ
_TEXT	SEGMENT
?GetCurState@FSMStateMgr@@QBEHXZ PROC			; FSMStateMgr::GetCurState, COMDAT
; _this$ = ecx

; 52   : 	inline int GetCurState() const { return m_iCurState; }

  00000	8b 41 04	 mov	 eax, DWORD PTR [ecx+4]
  00003	c3		 ret	 0
?GetCurState@FSMStateMgr@@QBEHXZ ENDP			; FSMStateMgr::GetCurState
_TEXT	ENDS
PUBLIC	?GetCurTime@FSMStateMgr@@QBEKXZ			; FSMStateMgr::GetCurTime
; Function compile flags: /Ogsp
;	COMDAT ?GetCurTime@FSMStateMgr@@QBEKXZ
_TEXT	SEGMENT
?GetCurTime@FSMStateMgr@@QBEKXZ PROC			; FSMStateMgr::GetCurTime, COMDAT
; _this$ = ecx

; 55   : 	inline DWORD GetCurTime() const { return m_dwCurTime; }

  00000	8b 41 0c	 mov	 eax, DWORD PTR [ecx+12]
  00003	c3		 ret	 0
?GetCurTime@FSMStateMgr@@QBEKXZ ENDP			; FSMStateMgr::GetCurTime
_TEXT	ENDS
PUBLIC	?GetDelay@FSMStateMgr@@QBEHXZ			; FSMStateMgr::GetDelay
; Function compile flags: /Ogsp
;	COMDAT ?GetDelay@FSMStateMgr@@QBEHXZ
_TEXT	SEGMENT
?GetDelay@FSMStateMgr@@QBEHXZ PROC			; FSMStateMgr::GetDelay, COMDAT
; _this$ = ecx

; 61   : 	inline int GetDelay() const { return m_iCurDelay; }

  00000	8b 41 10	 mov	 eax, DWORD PTR [ecx+16]
  00003	c3		 ret	 0
?GetDelay@FSMStateMgr@@QBEHXZ ENDP			; FSMStateMgr::GetDelay
_TEXT	ENDS
PUBLIC	?GetPCRoomAuthority@ioMyInfo@@QAEKXZ		; ioMyInfo::GetPCRoomAuthority
; Function compile flags: /Ogsp
; File d:\lost saga for developer\youtube\tutorial\source\src\lsclient\iomyinfo.h
;	COMDAT ?GetPCRoomAuthority@ioMyInfo@@QAEKXZ
_TEXT	SEGMENT
?GetPCRoomAuthority@ioMyInfo@@QAEKXZ PROC		; ioMyInfo::GetPCRoomAuthority, COMDAT
; _this$ = ecx

; 836  : 	DWORD GetPCRoomAuthority(){ return m_dwPCRoomAuthority; }

  00000	8b 81 34 08 00
	00		 mov	 eax, DWORD PTR [ecx+2100]
  00006	c3		 ret	 0
?GetPCRoomAuthority@ioMyInfo@@QAEKXZ ENDP		; ioMyInfo::GetPCRoomAuthority
_TEXT	ENDS
PUBLIC	?IsUserEvent@ioMyInfo@@QAE_NXZ			; ioMyInfo::IsUserEvent
; Function compile flags: /Ogsp
;	COMDAT ?IsUserEvent@ioMyInfo@@QAE_NXZ
_TEXT	SEGMENT
?IsUserEvent@ioMyInfo@@QAE_NXZ PROC			; ioMyInfo::IsUserEvent, COMDAT
; _this$ = ecx

; 838  : 	bool IsUserEvent() { return m_bUserHeroEvent; }

  00000	8a 81 39 08 00
	00		 mov	 al, BYTE PTR [ecx+2105]
  00006	c3		 ret	 0
?IsUserEvent@ioMyInfo@@QAE_NXZ ENDP			; ioMyInfo::IsUserEvent
_TEXT	ENDS
PUBLIC	?GetCurMaxCharSlot@ioMyInfo@@QBEHXZ		; ioMyInfo::GetCurMaxCharSlot
; Function compile flags: /Ogsp
;	COMDAT ?GetCurMaxCharSlot@ioMyInfo@@QBEHXZ
_TEXT	SEGMENT
?GetCurMaxCharSlot@ioMyInfo@@QBEHXZ PROC		; ioMyInfo::GetCurMaxCharSlot, COMDAT
; _this$ = ecx

; 862  : 	inline int GetCurMaxCharSlot() const { return m_iCurMaxCharSlot; }

  00000	8b 81 80 08 00
	00		 mov	 eax, DWORD PTR [ecx+2176]
  00006	c3		 ret	 0
?GetCurMaxCharSlot@ioMyInfo@@QBEHXZ ENDP		; ioMyInfo::GetCurMaxCharSlot
_TEXT	ENDS
PUBLIC	?GetSetCode@ioSetItemInfo@@QBEKXZ		; ioSetItemInfo::GetSetCode
; Function compile flags: /Ogsp
; File d:\lost saga for developer\youtube\tutorial\source\src\lsclient\iosetiteminfo.h
;	COMDAT ?GetSetCode@ioSetItemInfo@@QBEKXZ
_TEXT	SEGMENT
?GetSetCode@ioSetItemInfo@@QBEKXZ PROC			; ioSetItemInfo::GetSetCode, COMDAT
; _this$ = ecx

; 116  : 	inline DWORD GetSetCode() const { return m_dwSetCode; }

  00000	8b 41 1c	 mov	 eax, DWORD PTR [ecx+28]
  00003	c3		 ret	 0
?GetSetCode@ioSetItemInfo@@QBEKXZ ENDP			; ioSetItemInfo::GetSetCode
_TEXT	ENDS
PUBLIC	?GetShopOrder@ioSetItemInfo@@QBEHXZ		; ioSetItemInfo::GetShopOrder
; Function compile flags: /Ogsp
;	COMDAT ?GetShopOrder@ioSetItemInfo@@QBEHXZ
_TEXT	SEGMENT
?GetShopOrder@ioSetItemInfo@@QBEHXZ PROC		; ioSetItemInfo::GetShopOrder, COMDAT
; _this$ = ecx

; 127  : 	inline int GetShopOrder() const { return m_iShopOrder; }

  00000	8b 41 64	 mov	 eax, DWORD PTR [ecx+100]
  00003	c3		 ret	 0
?GetShopOrder@ioSetItemInfo@@QBEHXZ ENDP		; ioSetItemInfo::GetShopOrder
_TEXT	ENDS
PUBLIC	?GetShopMarkType@ioSetItemInfo@@QBEHXZ		; ioSetItemInfo::GetShopMarkType
; Function compile flags: /Ogsp
;	COMDAT ?GetShopMarkType@ioSetItemInfo@@QBEHXZ
_TEXT	SEGMENT
?GetShopMarkType@ioSetItemInfo@@QBEHXZ PROC		; ioSetItemInfo::GetShopMarkType, COMDAT
; _this$ = ecx

; 129  : 	inline int GetShopMarkType() const { return m_iShopMarkType; }

  00000	8b 41 6c	 mov	 eax, DWORD PTR [ecx+108]
  00003	c3		 ret	 0
?GetShopMarkType@ioSetItemInfo@@QBEHXZ ENDP		; ioSetItemInfo::GetShopMarkType
_TEXT	ENDS
PUBLIC	??_R0?AVioItem@@@8				; ioItem `RTTI Type Descriptor'
PUBLIC	??_R0?AVioWeaponItem@@@8			; ioWeaponItem `RTTI Type Descriptor'
PUBLIC	?ToWeaponItem@@YAPAVioWeaponItem@@PAVioItem@@@Z	; ToWeaponItem
;	COMDAT ??_R0?AVioItem@@@8
; File d:\lost saga for developer\youtube\tutorial\source\src\lsclient\ioweaponitem.h
_DATA	SEGMENT
??_R0?AVioItem@@@8 DD FLAT:??_7type_info@@6B@		; ioItem `RTTI Type Descriptor'
	DD	00H
	DB	'.?AVioItem@@', 00H
_DATA	ENDS
;	COMDAT ??_R0?AVioWeaponItem@@@8
_DATA	SEGMENT
??_R0?AVioWeaponItem@@@8 DD FLAT:??_7type_info@@6B@	; ioWeaponItem `RTTI Type Descriptor'
	DD	00H
	DB	'.?AVioWeaponItem@@', 00H
; Function compile flags: /Ogsp
_DATA	ENDS
;	COMDAT ?ToWeaponItem@@YAPAVioWeaponItem@@PAVioItem@@@Z
_TEXT	SEGMENT
_pItem$ = 8						; size = 4
?ToWeaponItem@@YAPAVioWeaponItem@@PAVioItem@@@Z PROC	; ToWeaponItem, COMDAT

; 303  : {

  00000	55		 push	 ebp
  00001	8b ec		 mov	 ebp, esp
  00003	56		 push	 esi

; 304  : 	if( !pItem || pItem->GetType() != ioItem::IT_WEAPON )

  00004	8b 75 08	 mov	 esi, DWORD PTR _pItem$[ebp]
  00007	85 f6		 test	 esi, esi
  00009	74 25		 je	 SHORT $LN1@ToWeaponIt
  0000b	8b 06		 mov	 eax, DWORD PTR [esi]
  0000d	8b ce		 mov	 ecx, esi
  0000f	ff 50 08	 call	 DWORD PTR [eax+8]
  00012	83 f8 01	 cmp	 eax, 1
  00015	75 19		 jne	 SHORT $LN1@ToWeaponIt

; 306  : 
; 307  : 	return dynamic_cast< ioWeaponItem* >( pItem );

  00017	6a 00		 push	 0
  00019	68 00 00 00 00	 push	 OFFSET ??_R0?AVioWeaponItem@@@8
  0001e	68 00 00 00 00	 push	 OFFSET ??_R0?AVioItem@@@8
  00023	6a 00		 push	 0
  00025	56		 push	 esi
  00026	e8 00 00 00 00	 call	 ___RTDynamicCast
  0002b	83 c4 14	 add	 esp, 20			; 00000014H
  0002e	eb 02		 jmp	 SHORT $LN3@ToWeaponIt
$LN1@ToWeaponIt:

; 305  : 		return NULL;

  00030	33 c0		 xor	 eax, eax
$LN3@ToWeaponIt:
  00032	5e		 pop	 esi

; 308  : }

  00033	5d		 pop	 ebp
  00034	c3		 ret	 0
?ToWeaponItem@@YAPAVioWeaponItem@@PAVioItem@@@Z ENDP	; ToWeaponItem
_TEXT	ENDS
PUBLIC	?size@?$vector@PAUPriceData@ioClassPrice@@V?$allocator@PAUPriceData@ioClassPrice@@@std@@@std@@QBEIXZ ; std::vector<ioClassPrice::PriceData *,std::allocator<ioClassPrice::PriceData *> >::size
; Function compile flags: /Ogsp
; File c:\program files (x86)\microsoft visual studio 10.0\vc\include\vector
;	COMDAT ?size@?$vector@PAUPriceData@ioClassPrice@@V?$allocator@PAUPriceData@ioClassPrice@@@std@@@std@@QBEIXZ
_TEXT	SEGMENT
?size@?$vector@PAUPriceData@ioClassPrice@@V?$allocator@PAUPriceData@ioClassPrice@@@std@@@std@@QBEIXZ PROC ; std::vector<ioClassPrice::PriceData *,std::allocator<ioClassPrice::PriceData *> >::size, COMDAT
; _this$ = ecx

; 879  : 		return (this->_Mylast - this->_Myfirst);

  00000	8b 41 04	 mov	 eax, DWORD PTR [ecx+4]
  00003	2b 01		 sub	 eax, DWORD PTR [ecx]
  00005	c1 f8 02	 sar	 eax, 2

; 880  : 		}

  00008	c3		 ret	 0
?size@?$vector@PAUPriceData@ioClassPrice@@V?$allocator@PAUPriceData@ioClassPrice@@@std@@@std@@QBEIXZ ENDP ; std::vector<ioClassPrice::PriceData *,std::allocator<ioClassPrice::PriceData *> >::size
_TEXT	ENDS
PUBLIC	?DecryptValueToPool@?$CEncrypt@K@@QAEXPAK@Z	; CEncrypt<unsigned long>::DecryptValueToPool
EXTRN	?DecryptByte@ccddaabb@@QBEXPBDPADH@Z:PROC	; ccddaabb::DecryptByte
; Function compile flags: /Ogsp
; File d:\lost saga for developer\youtube\tutorial\source\src\lsclient\encryptvalue.h
;	COMDAT ?DecryptValueToPool@?$CEncrypt@K@@QAEXPAK@Z
_TEXT	SEGMENT
_value$ = 8						; size = 4
?DecryptValueToPool@?$CEncrypt@K@@QAEXPAK@Z PROC	; CEncrypt<unsigned long>::DecryptValueToPool, COMDAT
; _this$ = ecx

; 1256 : 	{

  00000	55		 push	 ebp
  00001	8b ec		 mov	 ebp, esp
  00003	56		 push	 esi

; 1257 : 		m_RC5.DecryptByte( m_MemPool, m_TempMem, 4 );

  00004	8d 71 28	 lea	 esi, DWORD PTR [ecx+40]
  00007	6a 04		 push	 4
  00009	8d 41 1c	 lea	 eax, DWORD PTR [ecx+28]
  0000c	56		 push	 esi
  0000d	50		 push	 eax
  0000e	83 c1 0c	 add	 ecx, 12			; 0000000cH
  00011	e8 00 00 00 00	 call	 ?DecryptByte@ccddaabb@@QBEXPBDPADH@Z ; ccddaabb::DecryptByte

; 1258 : 		*value = *((DWORD*)m_TempMem);

  00016	8b 06		 mov	 eax, DWORD PTR [esi]
  00018	8b 4d 08	 mov	 ecx, DWORD PTR _value$[ebp]
  0001b	89 01		 mov	 DWORD PTR [ecx], eax
  0001d	5e		 pop	 esi

; 1259 : 	}

  0001e	5d		 pop	 ebp
  0001f	c2 04 00	 ret	 4
?DecryptValueToPool@?$CEncrypt@K@@QAEXPAK@Z ENDP	; CEncrypt<unsigned long>::DecryptValueToPool
_TEXT	ENDS
EXTRN	__imp_??0exception@std@@QAE@ABV01@@Z:PROC
; Function compile flags: /Ogsp
;	COMDAT ??0bad_alloc@std@@QAE@ABV01@@Z
_TEXT	SEGMENT
___that$ = 8						; size = 4
??0bad_alloc@std@@QAE@ABV01@@Z PROC			; std::bad_alloc::bad_alloc, COMDAT
; _this$ = ecx
  00000	55		 push	 ebp
  00001	8b ec		 mov	 ebp, esp
  00003	56		 push	 esi
  00004	ff 75 08	 push	 DWORD PTR ___that$[ebp]
  00007	8b f1		 mov	 esi, ecx
  00009	ff 15 00 00 00
	00		 call	 DWORD PTR __imp_??0exception@std@@QAE@ABV01@@Z
  0000f	c7 06 00 00 00
	00		 mov	 DWORD PTR [esi], OFFSET ??_7bad_alloc@std@@6B@
  00015	8b c6		 mov	 eax, esi
  00017	5e		 pop	 esi
  00018	5d		 pop	 ebp
  00019	c2 04 00	 ret	 4
??0bad_alloc@std@@QAE@ABV01@@Z ENDP			; std::bad_alloc::bad_alloc
_TEXT	ENDS
PUBLIC	??_R0?AVioBowItem@@@8				; ioBowItem `RTTI Type Descriptor'
PUBLIC	?ToBowItem@@YAPAVioBowItem@@PAVioItem@@@Z	; ToBowItem
;	COMDAT ??_R0?AVioBowItem@@@8
; File d:\lost saga for developer\youtube\tutorial\source\src\lsclient\iobowitem.h
_DATA	SEGMENT
??_R0?AVioBowItem@@@8 DD FLAT:??_7type_info@@6B@	; ioBowItem `RTTI Type Descriptor'
	DD	00H
	DB	'.?AVioBowItem@@', 00H
; Function compile flags: /Ogsp
_DATA	ENDS
;	COMDAT ?ToBowItem@@YAPAVioBowItem@@PAVioItem@@@Z
_TEXT	SEGMENT
_pItem$ = 8						; size = 4
?ToBowItem@@YAPAVioBowItem@@PAVioItem@@@Z PROC		; ToBowItem, COMDAT

; 344  : {

  00000	55		 push	 ebp
  00001	8b ec		 mov	 ebp, esp
  00003	56		 push	 esi

; 345  : 	ioWeaponItem *pWeapon = ToWeaponItem( pItem );

  00004	ff 75 08	 push	 DWORD PTR _pItem$[ebp]
  00007	e8 00 00 00 00	 call	 ?ToWeaponItem@@YAPAVioWeaponItem@@PAVioItem@@@Z ; ToWeaponItem
  0000c	8b f0		 mov	 esi, eax
  0000e	59		 pop	 ecx

; 346  : 	if( !pWeapon || pWeapon->GetSubType() != ioWeaponItem::WST_BOW )

  0000f	85 f6		 test	 esi, esi
  00011	74 28		 je	 SHORT $LN1@ToBowItem
  00013	8b 06		 mov	 eax, DWORD PTR [esi]
  00015	8b ce		 mov	 ecx, esi
  00017	ff 90 f0 02 00
	00		 call	 DWORD PTR [eax+752]
  0001d	83 f8 05	 cmp	 eax, 5
  00020	75 19		 jne	 SHORT $LN1@ToBowItem

; 348  : 
; 349  : 	return dynamic_cast< ioBowItem* >( pWeapon );

  00022	6a 00		 push	 0
  00024	68 00 00 00 00	 push	 OFFSET ??_R0?AVioBowItem@@@8
  00029	68 00 00 00 00	 push	 OFFSET ??_R0?AVioWeaponItem@@@8
  0002e	6a 00		 push	 0
  00030	56		 push	 esi
  00031	e8 00 00 00 00	 call	 ___RTDynamicCast
  00036	83 c4 14	 add	 esp, 20			; 00000014H
  00039	eb 02		 jmp	 SHORT $LN3@ToBowItem
$LN1@ToBowItem:

; 347  : 		return NULL;

  0003b	33 c0		 xor	 eax, eax
$LN3@ToBowItem:
  0003d	5e		 pop	 esi

; 350  : }

  0003e	5d		 pop	 ebp
  0003f	c3		 ret	 0
?ToBowItem@@YAPAVioBowItem@@PAVioItem@@@Z ENDP		; ToBowItem
_TEXT	ENDS
PUBLIC	??_R0?AVioChargeComboBowItem@@@8		; ioChargeComboBowItem `RTTI Type Descriptor'
PUBLIC	?ToChargeComboBowItem@@YAPAVioChargeComboBowItem@@PAVioItem@@@Z ; ToChargeComboBowItem
;	COMDAT ??_R0?AVioChargeComboBowItem@@@8
; File d:\lost saga for developer\youtube\tutorial\source\src\lsclient\iochargecombobowitem.h
_DATA	SEGMENT
??_R0?AVioChargeComboBowItem@@@8 DD FLAT:??_7type_info@@6B@ ; ioChargeComboBowItem `RTTI Type Descriptor'
	DD	00H
	DB	'.?AVioChargeComboBowItem@@', 00H
; Function compile flags: /Ogsp
_DATA	ENDS
;	COMDAT ?ToChargeComboBowItem@@YAPAVioChargeComboBowItem@@PAVioItem@@@Z
_TEXT	SEGMENT
_pItem$ = 8						; size = 4
?ToChargeComboBowItem@@YAPAVioChargeComboBowItem@@PAVioItem@@@Z PROC ; ToChargeComboBowItem, COMDAT

; 426  : {

  00000	55		 push	 ebp
  00001	8b ec		 mov	 ebp, esp
  00003	56		 push	 esi

; 427  : 	ioWeaponItem *pWeapon = ToWeaponItem( pItem );

  00004	ff 75 08	 push	 DWORD PTR _pItem$[ebp]
  00007	e8 00 00 00 00	 call	 ?ToWeaponItem@@YAPAVioWeaponItem@@PAVioItem@@@Z ; ToWeaponItem
  0000c	8b f0		 mov	 esi, eax
  0000e	59		 pop	 ecx

; 428  : 	if( !pWeapon || pWeapon->GetSubType() != ioWeaponItem::WST_CHARGE_COMBO_BOW )

  0000f	85 f6		 test	 esi, esi
  00011	74 28		 je	 SHORT $LN1@ToChargeCo
  00013	8b 06		 mov	 eax, DWORD PTR [esi]
  00015	8b ce		 mov	 ecx, esi
  00017	ff 90 f0 02 00
	00		 call	 DWORD PTR [eax+752]
  0001d	83 f8 39	 cmp	 eax, 57			; 00000039H
  00020	75 19		 jne	 SHORT $LN1@ToChargeCo

; 430  : 
; 431  : 	return dynamic_cast< ioChargeComboBowItem* >( pWeapon );

  00022	6a 00		 push	 0
  00024	68 00 00 00 00	 push	 OFFSET ??_R0?AVioChargeComboBowItem@@@8
  00029	68 00 00 00 00	 push	 OFFSET ??_R0?AVioWeaponItem@@@8
  0002e	6a 00		 push	 0
  00030	56		 push	 esi
  00031	e8 00 00 00 00	 call	 ___RTDynamicCast
  00036	83 c4 14	 add	 esp, 20			; 00000014H
  00039	eb 02		 jmp	 SHORT $LN3@ToChargeCo
$LN1@ToChargeCo:

; 429  : 		return NULL;

  0003b	33 c0		 xor	 eax, eax
$LN3@ToChargeCo:
  0003d	5e		 pop	 esi

; 432  : }

  0003e	5d		 pop	 ebp
  0003f	c3		 ret	 0
?ToChargeComboBowItem@@YAPAVioChargeComboBowItem@@PAVioItem@@@Z ENDP ; ToChargeComboBowItem
_TEXT	ENDS
PUBLIC	??_R0?AVioLaserItem@@@8				; ioLaserItem `RTTI Type Descriptor'
PUBLIC	?ToLaserItem@@YAPAVioLaserItem@@PAVioItem@@@Z	; ToLaserItem
;	COMDAT ??_R0?AVioLaserItem@@@8
; File d:\lost saga for developer\youtube\tutorial\source\src\lsclient\iolaseritem.h
_DATA	SEGMENT
??_R0?AVioLaserItem@@@8 DD FLAT:??_7type_info@@6B@	; ioLaserItem `RTTI Type Descriptor'
	DD	00H
	DB	'.?AVioLaserItem@@', 00H
; Function compile flags: /Ogsp
_DATA	ENDS
;	COMDAT ?ToLaserItem@@YAPAVioLaserItem@@PAVioItem@@@Z
_TEXT	SEGMENT
_pItem$ = 8						; size = 4
?ToLaserItem@@YAPAVioLaserItem@@PAVioItem@@@Z PROC	; ToLaserItem, COMDAT

; 252  : {

  00000	55		 push	 ebp
  00001	8b ec		 mov	 ebp, esp
  00003	56		 push	 esi

; 253  : 	ioWeaponItem *pWeapon = ToWeaponItem( pItem );

  00004	ff 75 08	 push	 DWORD PTR _pItem$[ebp]
  00007	e8 00 00 00 00	 call	 ?ToWeaponItem@@YAPAVioWeaponItem@@PAVioItem@@@Z ; ToWeaponItem
  0000c	8b f0		 mov	 esi, eax
  0000e	59		 pop	 ecx

; 254  : 	if( !pWeapon || pWeapon->GetSubType() != ioWeaponItem::WST_LASER )

  0000f	85 f6		 test	 esi, esi
  00011	74 28		 je	 SHORT $LN1@ToLaserIte
  00013	8b 06		 mov	 eax, DWORD PTR [esi]
  00015	8b ce		 mov	 ecx, esi
  00017	ff 90 f0 02 00
	00		 call	 DWORD PTR [eax+752]
  0001d	83 f8 08	 cmp	 eax, 8
  00020	75 19		 jne	 SHORT $LN1@ToLaserIte

; 256  : 
; 257  : 	return dynamic_cast< ioLaserItem* >( pWeapon );

  00022	6a 00		 push	 0
  00024	68 00 00 00 00	 push	 OFFSET ??_R0?AVioLaserItem@@@8
  00029	68 00 00 00 00	 push	 OFFSET ??_R0?AVioWeaponItem@@@8
  0002e	6a 00		 push	 0
  00030	56		 push	 esi
  00031	e8 00 00 00 00	 call	 ___RTDynamicCast
  00036	83 c4 14	 add	 esp, 20			; 00000014H
  00039	eb 02		 jmp	 SHORT $LN3@ToLaserIte
$LN1@ToLaserIte:

; 255  : 		return NULL;

  0003b	33 c0		 xor	 eax, eax
$LN3@ToLaserIte:
  0003d	5e		 pop	 esi

; 258  : }

  0003e	5d		 pop	 ebp
  0003f	c3		 ret	 0
?ToLaserItem@@YAPAVioLaserItem@@PAVioItem@@@Z ENDP	; ToLaserItem
_TEXT	ENDS
PUBLIC	??_R0?AVioFireWeaponItem@@@8			; ioFireWeaponItem `RTTI Type Descriptor'
PUBLIC	?ToFireWeaponItem@@YAPAVioFireWeaponItem@@PAVioItem@@@Z ; ToFireWeaponItem
;	COMDAT ??_R0?AVioFireWeaponItem@@@8
; File d:\lost saga for developer\youtube\tutorial\source\src\lsclient\iofireweaponitem.h
_DATA	SEGMENT
??_R0?AVioFireWeaponItem@@@8 DD FLAT:??_7type_info@@6B@	; ioFireWeaponItem `RTTI Type Descriptor'
	DD	00H
	DB	'.?AVioFireWeaponItem@@', 00H
; Function compile flags: /Ogsp
_DATA	ENDS
;	COMDAT ?ToFireWeaponItem@@YAPAVioFireWeaponItem@@PAVioItem@@@Z
_TEXT	SEGMENT
_pItem$ = 8						; size = 4
?ToFireWeaponItem@@YAPAVioFireWeaponItem@@PAVioItem@@@Z PROC ; ToFireWeaponItem, COMDAT

; 269  : {

  00000	55		 push	 ebp
  00001	8b ec		 mov	 ebp, esp
  00003	56		 push	 esi

; 270  : 	ioWeaponItem *pWeapon = ToWeaponItem( pItem );

  00004	ff 75 08	 push	 DWORD PTR _pItem$[ebp]
  00007	e8 00 00 00 00	 call	 ?ToWeaponItem@@YAPAVioWeaponItem@@PAVioItem@@@Z ; ToWeaponItem
  0000c	8b f0		 mov	 esi, eax
  0000e	59		 pop	 ecx

; 271  : 	if( !pWeapon || pWeapon->GetSubType() != ioWeaponItem::WST_FIRE )

  0000f	85 f6		 test	 esi, esi
  00011	74 28		 je	 SHORT $LN1@ToFireWeap
  00013	8b 06		 mov	 eax, DWORD PTR [esi]
  00015	8b ce		 mov	 ecx, esi
  00017	ff 90 f0 02 00
	00		 call	 DWORD PTR [eax+752]
  0001d	83 f8 01	 cmp	 eax, 1
  00020	75 19		 jne	 SHORT $LN1@ToFireWeap

; 273  : 
; 274  : 	return dynamic_cast< ioFireWeaponItem* >( pWeapon );

  00022	6a 00		 push	 0
  00024	68 00 00 00 00	 push	 OFFSET ??_R0?AVioFireWeaponItem@@@8
  00029	68 00 00 00 00	 push	 OFFSET ??_R0?AVioWeaponItem@@@8
  0002e	6a 00		 push	 0
  00030	56		 push	 esi
  00031	e8 00 00 00 00	 call	 ___RTDynamicCast
  00036	83 c4 14	 add	 esp, 20			; 00000014H
  00039	eb 02		 jmp	 SHORT $LN3@ToFireWeap
$LN1@ToFireWeap:

; 272  : 		return NULL;

  0003b	33 c0		 xor	 eax, eax
$LN3@ToFireWeap:
  0003d	5e		 pop	 esi

; 275  : }

  0003e	5d		 pop	 ebp
  0003f	c3		 ret	 0
?ToFireWeaponItem@@YAPAVioFireWeaponItem@@PAVioItem@@@Z ENDP ; ToFireWeaponItem
_TEXT	ENDS
PUBLIC	??_R0?AVioAutoShotItem@@@8			; ioAutoShotItem `RTTI Type Descriptor'
PUBLIC	?ToAutoShotItem@@YAPAVioAutoShotItem@@PAVioItem@@@Z ; ToAutoShotItem
;	COMDAT ??_R0?AVioAutoShotItem@@@8
; File d:\lost saga for developer\youtube\tutorial\source\src\lsclient\ioautoshotitem.h
_DATA	SEGMENT
??_R0?AVioAutoShotItem@@@8 DD FLAT:??_7type_info@@6B@	; ioAutoShotItem `RTTI Type Descriptor'
	DD	00H
	DB	'.?AVioAutoShotItem@@', 00H
; Function compile flags: /Ogsp
_DATA	ENDS
;	COMDAT ?ToAutoShotItem@@YAPAVioAutoShotItem@@PAVioItem@@@Z
_TEXT	SEGMENT
_pItem$ = 8						; size = 4
?ToAutoShotItem@@YAPAVioAutoShotItem@@PAVioItem@@@Z PROC ; ToAutoShotItem, COMDAT

; 268  : {

  00000	55		 push	 ebp
  00001	8b ec		 mov	 ebp, esp
  00003	56		 push	 esi

; 269  : 	ioWeaponItem *pWeapon = ToWeaponItem( pItem );

  00004	ff 75 08	 push	 DWORD PTR _pItem$[ebp]
  00007	e8 00 00 00 00	 call	 ?ToWeaponItem@@YAPAVioWeaponItem@@PAVioItem@@@Z ; ToWeaponItem
  0000c	8b f0		 mov	 esi, eax
  0000e	59		 pop	 ecx

; 270  : 	if( !pWeapon || pWeapon->GetSubType() != ioWeaponItem::WST_AUTO_SHOT )

  0000f	85 f6		 test	 esi, esi
  00011	74 28		 je	 SHORT $LN1@ToAutoShot
  00013	8b 06		 mov	 eax, DWORD PTR [esi]
  00015	8b ce		 mov	 ecx, esi
  00017	ff 90 f0 02 00
	00		 call	 DWORD PTR [eax+752]
  0001d	83 f8 0c	 cmp	 eax, 12			; 0000000cH
  00020	75 19		 jne	 SHORT $LN1@ToAutoShot

; 272  : 
; 273  : 	return dynamic_cast< ioAutoShotItem* >( pWeapon );

  00022	6a 00		 push	 0
  00024	68 00 00 00 00	 push	 OFFSET ??_R0?AVioAutoShotItem@@@8
  00029	68 00 00 00 00	 push	 OFFSET ??_R0?AVioWeaponItem@@@8
  0002e	6a 00		 push	 0
  00030	56		 push	 esi
  00031	e8 00 00 00 00	 call	 ___RTDynamicCast
  00036	83 c4 14	 add	 esp, 20			; 00000014H
  00039	eb 02		 jmp	 SHORT $LN3@ToAutoShot
$LN1@ToAutoShot:

; 271  : 		return NULL;

  0003b	33 c0		 xor	 eax, eax
$LN3@ToAutoShot:
  0003d	5e		 pop	 esi

; 274  : }

  0003e	5d		 pop	 ebp
  0003f	c3		 ret	 0
?ToAutoShotItem@@YAPAVioAutoShotItem@@PAVioItem@@@Z ENDP ; ToAutoShotItem
_TEXT	ENDS
PUBLIC	??_R0?AVioUroborusItem@@@8			; ioUroborusItem `RTTI Type Descriptor'
PUBLIC	?ToUroborusItem@@YAPAVioUroborusItem@@PAVioItem@@@Z ; ToUroborusItem
;	COMDAT ??_R0?AVioUroborusItem@@@8
; File d:\lost saga for developer\youtube\tutorial\source\src\lsclient\iouroborusitem.h
_DATA	SEGMENT
??_R0?AVioUroborusItem@@@8 DD FLAT:??_7type_info@@6B@	; ioUroborusItem `RTTI Type Descriptor'
	DD	00H
	DB	'.?AVioUroborusItem@@', 00H
; Function compile flags: /Ogsp
_DATA	ENDS
;	COMDAT ?ToUroborusItem@@YAPAVioUroborusItem@@PAVioItem@@@Z
_TEXT	SEGMENT
_pItem$ = 8						; size = 4
?ToUroborusItem@@YAPAVioUroborusItem@@PAVioItem@@@Z PROC ; ToUroborusItem, COMDAT

; 163  : {

  00000	55		 push	 ebp
  00001	8b ec		 mov	 ebp, esp

; 164  : 	ioWeaponItem *pWeapon = ToWeaponItem( pItem );

  00003	ff 75 08	 push	 DWORD PTR _pItem$[ebp]
  00006	e8 00 00 00 00	 call	 ?ToWeaponItem@@YAPAVioWeaponItem@@PAVioItem@@@Z ; ToWeaponItem
  0000b	59		 pop	 ecx

; 165  : 	if( !pWeapon || pWeapon->GetSubType() != ioWeaponItem::WST_UROBORUS )

  0000c	85 c0		 test	 eax, eax
  0000e	74 2a		 je	 SHORT $LN1@ToUroborus
  00010	8b 10		 mov	 edx, DWORD PTR [eax]
  00012	8b c8		 mov	 ecx, eax
  00014	ff 92 f0 02 00
	00		 call	 DWORD PTR [edx+752]
  0001a	83 f8 23	 cmp	 eax, 35			; 00000023H
  0001d	75 1b		 jne	 SHORT $LN1@ToUroborus

; 167  : 
; 168  : 	return dynamic_cast< ioUroborusItem* >( pItem );

  0001f	6a 00		 push	 0
  00021	68 00 00 00 00	 push	 OFFSET ??_R0?AVioUroborusItem@@@8
  00026	68 00 00 00 00	 push	 OFFSET ??_R0?AVioItem@@@8
  0002b	6a 00		 push	 0
  0002d	ff 75 08	 push	 DWORD PTR _pItem$[ebp]
  00030	e8 00 00 00 00	 call	 ___RTDynamicCast
  00035	83 c4 14	 add	 esp, 20			; 00000014H

; 169  : }

  00038	5d		 pop	 ebp
  00039	c3		 ret	 0
$LN1@ToUroborus:

; 166  : 		return NULL;

  0003a	33 c0		 xor	 eax, eax

; 169  : }

  0003c	5d		 pop	 ebp
  0003d	c3		 ret	 0
?ToUroborusItem@@YAPAVioUroborusItem@@PAVioItem@@@Z ENDP ; ToUroborusItem
_TEXT	ENDS
PUBLIC	??_R0?AVioWereWolfItem@@@8			; ioWereWolfItem `RTTI Type Descriptor'
PUBLIC	?ToWereWolfItem@@YAPAVioWereWolfItem@@PAVioItem@@@Z ; ToWereWolfItem
;	COMDAT ??_R0?AVioWereWolfItem@@@8
; File d:\lost saga for developer\youtube\tutorial\source\src\lsclient\iowerewolfitem.h
_DATA	SEGMENT
??_R0?AVioWereWolfItem@@@8 DD FLAT:??_7type_info@@6B@	; ioWereWolfItem `RTTI Type Descriptor'
	DD	00H
	DB	'.?AVioWereWolfItem@@', 00H
; Function compile flags: /Ogsp
_DATA	ENDS
;	COMDAT ?ToWereWolfItem@@YAPAVioWereWolfItem@@PAVioItem@@@Z
_TEXT	SEGMENT
_pItem$ = 8						; size = 4
?ToWereWolfItem@@YAPAVioWereWolfItem@@PAVioItem@@@Z PROC ; ToWereWolfItem, COMDAT

; 148  : {

  00000	55		 push	 ebp
  00001	8b ec		 mov	 ebp, esp

; 149  : 	ioWeaponItem *pWeapon = ToWeaponItem( pItem );

  00003	ff 75 08	 push	 DWORD PTR _pItem$[ebp]
  00006	e8 00 00 00 00	 call	 ?ToWeaponItem@@YAPAVioWeaponItem@@PAVioItem@@@Z ; ToWeaponItem
  0000b	59		 pop	 ecx

; 150  : 	if( !pWeapon || pWeapon->GetSubType() != ioWeaponItem::WST_WEREWOLF )

  0000c	85 c0		 test	 eax, eax
  0000e	74 2a		 je	 SHORT $LN1@ToWereWolf
  00010	8b 10		 mov	 edx, DWORD PTR [eax]
  00012	8b c8		 mov	 ecx, eax
  00014	ff 92 f0 02 00
	00		 call	 DWORD PTR [edx+752]
  0001a	83 f8 26	 cmp	 eax, 38			; 00000026H
  0001d	75 1b		 jne	 SHORT $LN1@ToWereWolf

; 152  : 
; 153  : 	return dynamic_cast< ioWereWolfItem* >( pItem );

  0001f	6a 00		 push	 0
  00021	68 00 00 00 00	 push	 OFFSET ??_R0?AVioWereWolfItem@@@8
  00026	68 00 00 00 00	 push	 OFFSET ??_R0?AVioItem@@@8
  0002b	6a 00		 push	 0
  0002d	ff 75 08	 push	 DWORD PTR _pItem$[ebp]
  00030	e8 00 00 00 00	 call	 ___RTDynamicCast
  00035	83 c4 14	 add	 esp, 20			; 00000014H

; 154  : }

  00038	5d		 pop	 ebp
  00039	c3		 ret	 0
$LN1@ToWereWolf:

; 151  : 		return NULL;

  0003a	33 c0		 xor	 eax, eax

; 154  : }

  0003c	5d		 pop	 ebp
  0003d	c3		 ret	 0
?ToWereWolfItem@@YAPAVioWereWolfItem@@PAVioItem@@@Z ENDP ; ToWereWolfItem
_TEXT	ENDS
PUBLIC	??_R0?AVioWitchItem@@@8				; ioWitchItem `RTTI Type Descriptor'
PUBLIC	?ToWitchItem@@YAPAVioWitchItem@@PAVioItem@@@Z	; ToWitchItem
;	COMDAT ??_R0?AVioWitchItem@@@8
; File d:\lost saga for developer\youtube\tutorial\source\src\lsclient\iowitchitem.h
_DATA	SEGMENT
??_R0?AVioWitchItem@@@8 DD FLAT:??_7type_info@@6B@	; ioWitchItem `RTTI Type Descriptor'
	DD	00H
	DB	'.?AVioWitchItem@@', 00H
; Function compile flags: /Ogsp
_DATA	ENDS
;	COMDAT ?ToWitchItem@@YAPAVioWitchItem@@PAVioItem@@@Z
_TEXT	SEGMENT
_pItem$ = 8						; size = 4
?ToWitchItem@@YAPAVioWitchItem@@PAVioItem@@@Z PROC	; ToWitchItem, COMDAT

; 171  : {

  00000	55		 push	 ebp
  00001	8b ec		 mov	 ebp, esp

; 172  : 	ioWeaponItem *pWeapon = ToWeaponItem( pItem );

  00003	ff 75 08	 push	 DWORD PTR _pItem$[ebp]
  00006	e8 00 00 00 00	 call	 ?ToWeaponItem@@YAPAVioWeaponItem@@PAVioItem@@@Z ; ToWeaponItem
  0000b	59		 pop	 ecx

; 173  : 	if( !pWeapon || pWeapon->GetSubType() != ioWeaponItem::WST_WITCH )

  0000c	85 c0		 test	 eax, eax
  0000e	74 2a		 je	 SHORT $LN1@ToWitchIte
  00010	8b 10		 mov	 edx, DWORD PTR [eax]
  00012	8b c8		 mov	 ecx, eax
  00014	ff 92 f0 02 00
	00		 call	 DWORD PTR [edx+752]
  0001a	83 f8 2e	 cmp	 eax, 46			; 0000002eH
  0001d	75 1b		 jne	 SHORT $LN1@ToWitchIte

; 175  : 
; 176  : 	return dynamic_cast< ioWitchItem* >( pItem );

  0001f	6a 00		 push	 0
  00021	68 00 00 00 00	 push	 OFFSET ??_R0?AVioWitchItem@@@8
  00026	68 00 00 00 00	 push	 OFFSET ??_R0?AVioItem@@@8
  0002b	6a 00		 push	 0
  0002d	ff 75 08	 push	 DWORD PTR _pItem$[ebp]
  00030	e8 00 00 00 00	 call	 ___RTDynamicCast
  00035	83 c4 14	 add	 esp, 20			; 00000014H

; 177  : }

  00038	5d		 pop	 ebp
  00039	c3		 ret	 0
$LN1@ToWitchIte:

; 174  : 		return NULL;

  0003a	33 c0		 xor	 eax, eax

; 177  : }

  0003c	5d		 pop	 ebp
  0003d	c3		 ret	 0
?ToWitchItem@@YAPAVioWitchItem@@PAVioItem@@@Z ENDP	; ToWitchItem
_TEXT	ENDS
PUBLIC	??_R0?AVioExcaliburItem@@@8			; ioExcaliburItem `RTTI Type Descriptor'
PUBLIC	?ToExcaliburItem@@YAPAVioExcaliburItem@@PAVioItem@@@Z ; ToExcaliburItem
;	COMDAT ??_R0?AVioExcaliburItem@@@8
; File d:\lost saga for developer\youtube\tutorial\source\src\lsclient\ioexcaliburitem.h
_DATA	SEGMENT
??_R0?AVioExcaliburItem@@@8 DD FLAT:??_7type_info@@6B@	; ioExcaliburItem `RTTI Type Descriptor'
	DD	00H
	DB	'.?AVioExcaliburItem@@', 00H
; Function compile flags: /Ogsp
_DATA	ENDS
;	COMDAT ?ToExcaliburItem@@YAPAVioExcaliburItem@@PAVioItem@@@Z
_TEXT	SEGMENT
_pItem$ = 8						; size = 4
?ToExcaliburItem@@YAPAVioExcaliburItem@@PAVioItem@@@Z PROC ; ToExcaliburItem, COMDAT

; 107  : {

  00000	55		 push	 ebp
  00001	8b ec		 mov	 ebp, esp

; 108  : 	ioWeaponItem *pWeapon = ToWeaponItem( pItem );

  00003	ff 75 08	 push	 DWORD PTR _pItem$[ebp]
  00006	e8 00 00 00 00	 call	 ?ToWeaponItem@@YAPAVioWeaponItem@@PAVioItem@@@Z ; ToWeaponItem
  0000b	59		 pop	 ecx

; 109  : 	if( !pWeapon || pWeapon->GetSubType() != ioWeaponItem::WST_EXCALIBUR )

  0000c	85 c0		 test	 eax, eax
  0000e	74 2a		 je	 SHORT $LN1@ToExcalibu
  00010	8b 10		 mov	 edx, DWORD PTR [eax]
  00012	8b c8		 mov	 ecx, eax
  00014	ff 92 f0 02 00
	00		 call	 DWORD PTR [edx+752]
  0001a	83 f8 2f	 cmp	 eax, 47			; 0000002fH
  0001d	75 1b		 jne	 SHORT $LN1@ToExcalibu

; 111  : 
; 112  : 	return dynamic_cast< ioExcaliburItem* >( pItem );

  0001f	6a 00		 push	 0
  00021	68 00 00 00 00	 push	 OFFSET ??_R0?AVioExcaliburItem@@@8
  00026	68 00 00 00 00	 push	 OFFSET ??_R0?AVioItem@@@8
  0002b	6a 00		 push	 0
  0002d	ff 75 08	 push	 DWORD PTR _pItem$[ebp]
  00030	e8 00 00 00 00	 call	 ___RTDynamicCast
  00035	83 c4 14	 add	 esp, 20			; 00000014H

; 113  : }

  00038	5d		 pop	 ebp
  00039	c3		 ret	 0
$LN1@ToExcalibu:

; 110  : 		return NULL;

  0003a	33 c0		 xor	 eax, eax

; 113  : }

  0003c	5d		 pop	 ebp
  0003d	c3		 ret	 0
?ToExcaliburItem@@YAPAVioExcaliburItem@@PAVioItem@@@Z ENDP ; ToExcaliburItem
_TEXT	ENDS
PUBLIC	??_R0?AVioChargeCommandItem@@@8			; ioChargeCommandItem `RTTI Type Descriptor'
PUBLIC	?ToChargeCommandItem@@YAPAVioChargeCommandItem@@PAVioItem@@@Z ; ToChargeCommandItem
;	COMDAT ??_R0?AVioChargeCommandItem@@@8
; File d:\lost saga for developer\youtube\tutorial\source\src\lsclient\iochargecommanditem.h
_DATA	SEGMENT
??_R0?AVioChargeCommandItem@@@8 DD FLAT:??_7type_info@@6B@ ; ioChargeCommandItem `RTTI Type Descriptor'
	DD	00H
	DB	'.?AVioChargeCommandItem@@', 00H
; Function compile flags: /Ogsp
_DATA	ENDS
;	COMDAT ?ToChargeCommandItem@@YAPAVioChargeCommandItem@@PAVioItem@@@Z
_TEXT	SEGMENT
_pItem$ = 8						; size = 4
?ToChargeCommandItem@@YAPAVioChargeCommandItem@@PAVioItem@@@Z PROC ; ToChargeCommandItem, COMDAT

; 296  : {

  00000	55		 push	 ebp
  00001	8b ec		 mov	 ebp, esp

; 297  : 	ioWeaponItem *pWeapon = ToWeaponItem( pItem );

  00003	ff 75 08	 push	 DWORD PTR _pItem$[ebp]
  00006	e8 00 00 00 00	 call	 ?ToWeaponItem@@YAPAVioWeaponItem@@PAVioItem@@@Z ; ToWeaponItem
  0000b	59		 pop	 ecx

; 298  : 	if( !pWeapon || pWeapon->GetSubType() != ioWeaponItem::WST_CHARGE_COMMAND )

  0000c	85 c0		 test	 eax, eax
  0000e	74 2a		 je	 SHORT $LN1@ToChargeCo@2
  00010	8b 10		 mov	 edx, DWORD PTR [eax]
  00012	8b c8		 mov	 ecx, eax
  00014	ff 92 f0 02 00
	00		 call	 DWORD PTR [edx+752]
  0001a	83 f8 33	 cmp	 eax, 51			; 00000033H
  0001d	75 1b		 jne	 SHORT $LN1@ToChargeCo@2

; 300  : 
; 301  : 	return dynamic_cast< ioChargeCommandItem* >( pItem );

  0001f	6a 00		 push	 0
  00021	68 00 00 00 00	 push	 OFFSET ??_R0?AVioChargeCommandItem@@@8
  00026	68 00 00 00 00	 push	 OFFSET ??_R0?AVioItem@@@8
  0002b	6a 00		 push	 0
  0002d	ff 75 08	 push	 DWORD PTR _pItem$[ebp]
  00030	e8 00 00 00 00	 call	 ___RTDynamicCast
  00035	83 c4 14	 add	 esp, 20			; 00000014H

; 302  : }

  00038	5d		 pop	 ebp
  00039	c3		 ret	 0
$LN1@ToChargeCo@2:

; 299  : 		return NULL;

  0003a	33 c0		 xor	 eax, eax

; 302  : }

  0003c	5d		 pop	 ebp
  0003d	c3		 ret	 0
?ToChargeCommandItem@@YAPAVioChargeCommandItem@@PAVioItem@@@Z ENDP ; ToChargeCommandItem
_TEXT	ENDS
PUBLIC	??_R0?AVioLuciferItem@@@8			; ioLuciferItem `RTTI Type Descriptor'
PUBLIC	?ToLuciferItem@@YAPAVioLuciferItem@@PAVioItem@@@Z ; ToLuciferItem
;	COMDAT ??_R0?AVioLuciferItem@@@8
; File d:\lost saga for developer\youtube\tutorial\source\src\lsclient\ioluciferitem.h
_DATA	SEGMENT
??_R0?AVioLuciferItem@@@8 DD FLAT:??_7type_info@@6B@	; ioLuciferItem `RTTI Type Descriptor'
	DD	00H
	DB	'.?AVioLuciferItem@@', 00H
; Function compile flags: /Ogsp
_DATA	ENDS
;	COMDAT ?ToLuciferItem@@YAPAVioLuciferItem@@PAVioItem@@@Z
_TEXT	SEGMENT
_pItem$ = 8						; size = 4
?ToLuciferItem@@YAPAVioLuciferItem@@PAVioItem@@@Z PROC	; ToLuciferItem, COMDAT

; 292  : {

  00000	55		 push	 ebp
  00001	8b ec		 mov	 ebp, esp

; 293  : 	ioWeaponItem *pWeapon = ToWeaponItem( pItem );

  00003	ff 75 08	 push	 DWORD PTR _pItem$[ebp]
  00006	e8 00 00 00 00	 call	 ?ToWeaponItem@@YAPAVioWeaponItem@@PAVioItem@@@Z ; ToWeaponItem
  0000b	59		 pop	 ecx

; 294  : 	if( !pWeapon || pWeapon->GetSubType() != ioWeaponItem::WST_LUCIFER )

  0000c	85 c0		 test	 eax, eax
  0000e	74 2a		 je	 SHORT $LN1@ToLuciferI
  00010	8b 10		 mov	 edx, DWORD PTR [eax]
  00012	8b c8		 mov	 ecx, eax
  00014	ff 92 f0 02 00
	00		 call	 DWORD PTR [edx+752]
  0001a	83 f8 38	 cmp	 eax, 56			; 00000038H
  0001d	75 1b		 jne	 SHORT $LN1@ToLuciferI

; 296  : 
; 297  : 	return dynamic_cast< ioLuciferItem* >( pItem );

  0001f	6a 00		 push	 0
  00021	68 00 00 00 00	 push	 OFFSET ??_R0?AVioLuciferItem@@@8
  00026	68 00 00 00 00	 push	 OFFSET ??_R0?AVioItem@@@8
  0002b	6a 00		 push	 0
  0002d	ff 75 08	 push	 DWORD PTR _pItem$[ebp]
  00030	e8 00 00 00 00	 call	 ___RTDynamicCast
  00035	83 c4 14	 add	 esp, 20			; 00000014H

; 298  : }

  00038	5d		 pop	 ebp
  00039	c3		 ret	 0
$LN1@ToLuciferI:

; 295  : 		return NULL;

  0003a	33 c0		 xor	 eax, eax

; 298  : }

  0003c	5d		 pop	 ebp
  0003d	c3		 ret	 0
?ToLuciferItem@@YAPAVioLuciferItem@@PAVioItem@@@Z ENDP	; ToLuciferItem
_TEXT	ENDS
PUBLIC	??_R0?AVioNakoruruItem@@@8			; ioNakoruruItem `RTTI Type Descriptor'
PUBLIC	?ToNakoruruItem@@YAPAVioNakoruruItem@@PAVioItem@@@Z ; ToNakoruruItem
;	COMDAT ??_R0?AVioNakoruruItem@@@8
; File d:\lost saga for developer\youtube\tutorial\source\src\lsclient\ionakoruruitem.h
_DATA	SEGMENT
??_R0?AVioNakoruruItem@@@8 DD FLAT:??_7type_info@@6B@	; ioNakoruruItem `RTTI Type Descriptor'
	DD	00H
	DB	'.?AVioNakoruruItem@@', 00H
; Function compile flags: /Ogsp
_DATA	ENDS
;	COMDAT ?ToNakoruruItem@@YAPAVioNakoruruItem@@PAVioItem@@@Z
_TEXT	SEGMENT
_pItem$ = 8						; size = 4
?ToNakoruruItem@@YAPAVioNakoruruItem@@PAVioItem@@@Z PROC ; ToNakoruruItem, COMDAT

; 184  : {

  00000	55		 push	 ebp
  00001	8b ec		 mov	 ebp, esp

; 185  : 	ioWeaponItem *pWeapon = ToWeaponItem( pItem );

  00003	ff 75 08	 push	 DWORD PTR _pItem$[ebp]
  00006	e8 00 00 00 00	 call	 ?ToWeaponItem@@YAPAVioWeaponItem@@PAVioItem@@@Z ; ToWeaponItem
  0000b	59		 pop	 ecx

; 186  : 	if( !pWeapon || pWeapon->GetSubType() != ioWeaponItem::WST_NAKORURU )

  0000c	85 c0		 test	 eax, eax
  0000e	74 2a		 je	 SHORT $LN1@ToNakoruru
  00010	8b 10		 mov	 edx, DWORD PTR [eax]
  00012	8b c8		 mov	 ecx, eax
  00014	ff 92 f0 02 00
	00		 call	 DWORD PTR [edx+752]
  0001a	83 f8 3a	 cmp	 eax, 58			; 0000003aH
  0001d	75 1b		 jne	 SHORT $LN1@ToNakoruru

; 188  : 
; 189  : 	return dynamic_cast< ioNakoruruItem* >( pItem );

  0001f	6a 00		 push	 0
  00021	68 00 00 00 00	 push	 OFFSET ??_R0?AVioNakoruruItem@@@8
  00026	68 00 00 00 00	 push	 OFFSET ??_R0?AVioItem@@@8
  0002b	6a 00		 push	 0
  0002d	ff 75 08	 push	 DWORD PTR _pItem$[ebp]
  00030	e8 00 00 00 00	 call	 ___RTDynamicCast
  00035	83 c4 14	 add	 esp, 20			; 00000014H

; 190  : }

  00038	5d		 pop	 ebp
  00039	c3		 ret	 0
$LN1@ToNakoruru:

; 187  : 		return NULL;

  0003a	33 c0		 xor	 eax, eax

; 190  : }

  0003c	5d		 pop	 ebp
  0003d	c3		 ret	 0
?ToNakoruruItem@@YAPAVioNakoruruItem@@PAVioItem@@@Z ENDP ; ToNakoruruItem
_TEXT	ENDS
PUBLIC	??_R0?AVioPeterpanItem@@@8			; ioPeterpanItem `RTTI Type Descriptor'
PUBLIC	?ToPeterpanItem@@YAPAVioPeterpanItem@@PAVioItem@@@Z ; ToPeterpanItem
;	COMDAT ??_R0?AVioPeterpanItem@@@8
; File d:\lost saga for developer\youtube\tutorial\source\src\lsclient\iopeterpanitem.h
_DATA	SEGMENT
??_R0?AVioPeterpanItem@@@8 DD FLAT:??_7type_info@@6B@	; ioPeterpanItem `RTTI Type Descriptor'
	DD	00H
	DB	'.?AVioPeterpanItem@@', 00H
; Function compile flags: /Ogsp
_DATA	ENDS
;	COMDAT ?ToPeterpanItem@@YAPAVioPeterpanItem@@PAVioItem@@@Z
_TEXT	SEGMENT
_pItem$ = 8						; size = 4
?ToPeterpanItem@@YAPAVioPeterpanItem@@PAVioItem@@@Z PROC ; ToPeterpanItem, COMDAT

; 225  : {

  00000	55		 push	 ebp
  00001	8b ec		 mov	 ebp, esp

; 226  : 	ioWeaponItem *pWeapon = ToWeaponItem( pItem );

  00003	ff 75 08	 push	 DWORD PTR _pItem$[ebp]
  00006	e8 00 00 00 00	 call	 ?ToWeaponItem@@YAPAVioWeaponItem@@PAVioItem@@@Z ; ToWeaponItem
  0000b	59		 pop	 ecx

; 227  : 	if( !pWeapon || pWeapon->GetSubType() != ioWeaponItem::WST_PETERPAN )

  0000c	85 c0		 test	 eax, eax
  0000e	74 2a		 je	 SHORT $LN1@ToPeterpan
  00010	8b 10		 mov	 edx, DWORD PTR [eax]
  00012	8b c8		 mov	 ecx, eax
  00014	ff 92 f0 02 00
	00		 call	 DWORD PTR [edx+752]
  0001a	83 f8 3f	 cmp	 eax, 63			; 0000003fH
  0001d	75 1b		 jne	 SHORT $LN1@ToPeterpan

; 229  : 
; 230  : 	return dynamic_cast< ioPeterpanItem* >( pItem );

  0001f	6a 00		 push	 0
  00021	68 00 00 00 00	 push	 OFFSET ??_R0?AVioPeterpanItem@@@8
  00026	68 00 00 00 00	 push	 OFFSET ??_R0?AVioItem@@@8
  0002b	6a 00		 push	 0
  0002d	ff 75 08	 push	 DWORD PTR _pItem$[ebp]
  00030	e8 00 00 00 00	 call	 ___RTDynamicCast
  00035	83 c4 14	 add	 esp, 20			; 00000014H

; 231  : }

  00038	5d		 pop	 ebp
  00039	c3		 ret	 0
$LN1@ToPeterpan:

; 228  : 		return NULL;

  0003a	33 c0		 xor	 eax, eax

; 231  : }

  0003c	5d		 pop	 ebp
  0003d	c3		 ret	 0
?ToPeterpanItem@@YAPAVioPeterpanItem@@PAVioItem@@@Z ENDP ; ToPeterpanItem
_TEXT	ENDS
PUBLIC	??_R0?AVioWindLordItem@@@8			; ioWindLordItem `RTTI Type Descriptor'
PUBLIC	?ToWindLordItem@@YAPAVioWindLordItem@@PAVioItem@@@Z ; ToWindLordItem
;	COMDAT ??_R0?AVioWindLordItem@@@8
; File d:\lost saga for developer\youtube\tutorial\source\src\lsclient\iowindlorditem.h
_DATA	SEGMENT
??_R0?AVioWindLordItem@@@8 DD FLAT:??_7type_info@@6B@	; ioWindLordItem `RTTI Type Descriptor'
	DD	00H
	DB	'.?AVioWindLordItem@@', 00H
; Function compile flags: /Ogsp
_DATA	ENDS
;	COMDAT ?ToWindLordItem@@YAPAVioWindLordItem@@PAVioItem@@@Z
_TEXT	SEGMENT
_pItem$ = 8						; size = 4
?ToWindLordItem@@YAPAVioWindLordItem@@PAVioItem@@@Z PROC ; ToWindLordItem, COMDAT

; 207  : {

  00000	55		 push	 ebp
  00001	8b ec		 mov	 ebp, esp

; 208  : 	ioWeaponItem *pWeapon = ToWeaponItem( pItem );

  00003	ff 75 08	 push	 DWORD PTR _pItem$[ebp]
  00006	e8 00 00 00 00	 call	 ?ToWeaponItem@@YAPAVioWeaponItem@@PAVioItem@@@Z ; ToWeaponItem
  0000b	59		 pop	 ecx

; 209  : 	if( !pWeapon || pWeapon->GetSubType() != ioWeaponItem::WST_WIND_LORD )

  0000c	85 c0		 test	 eax, eax
  0000e	74 2a		 je	 SHORT $LN1@ToWindLord
  00010	8b 10		 mov	 edx, DWORD PTR [eax]
  00012	8b c8		 mov	 ecx, eax
  00014	ff 92 f0 02 00
	00		 call	 DWORD PTR [edx+752]
  0001a	83 f8 43	 cmp	 eax, 67			; 00000043H
  0001d	75 1b		 jne	 SHORT $LN1@ToWindLord

; 211  : 
; 212  : 	return dynamic_cast< ioWindLordItem* >( pItem );

  0001f	6a 00		 push	 0
  00021	68 00 00 00 00	 push	 OFFSET ??_R0?AVioWindLordItem@@@8
  00026	68 00 00 00 00	 push	 OFFSET ??_R0?AVioItem@@@8
  0002b	6a 00		 push	 0
  0002d	ff 75 08	 push	 DWORD PTR _pItem$[ebp]
  00030	e8 00 00 00 00	 call	 ___RTDynamicCast
  00035	83 c4 14	 add	 esp, 20			; 00000014H

; 213  : }

  00038	5d		 pop	 ebp
  00039	c3		 ret	 0
$LN1@ToWindLord:

; 210  : 		return NULL;

  0003a	33 c0		 xor	 eax, eax

; 213  : }

  0003c	5d		 pop	 ebp
  0003d	c3		 ret	 0
?ToWindLordItem@@YAPAVioWindLordItem@@PAVioItem@@@Z ENDP ; ToWindLordItem
_TEXT	ENDS
PUBLIC	??_R0?AVioLeeItem@@@8				; ioLeeItem `RTTI Type Descriptor'
PUBLIC	?ToLeeItem@@YAPAVioLeeItem@@PAVioItem@@@Z	; ToLeeItem
;	COMDAT ??_R0?AVioLeeItem@@@8
; File d:\lost saga for developer\youtube\tutorial\source\src\lsclient\ioleeitem.h
_DATA	SEGMENT
??_R0?AVioLeeItem@@@8 DD FLAT:??_7type_info@@6B@	; ioLeeItem `RTTI Type Descriptor'
	DD	00H
	DB	'.?AVioLeeItem@@', 00H
; Function compile flags: /Ogsp
_DATA	ENDS
;	COMDAT ?ToLeeItem@@YAPAVioLeeItem@@PAVioItem@@@Z
_TEXT	SEGMENT
_pItem$ = 8						; size = 4
?ToLeeItem@@YAPAVioLeeItem@@PAVioItem@@@Z PROC		; ToLeeItem, COMDAT

; 183  : {

  00000	55		 push	 ebp
  00001	8b ec		 mov	 ebp, esp

; 184  : 	ioWeaponItem *pWeapon = ToWeaponItem( pItem );

  00003	ff 75 08	 push	 DWORD PTR _pItem$[ebp]
  00006	e8 00 00 00 00	 call	 ?ToWeaponItem@@YAPAVioWeaponItem@@PAVioItem@@@Z ; ToWeaponItem
  0000b	59		 pop	 ecx

; 185  : 	if( !pWeapon || pWeapon->GetSubType() != ioWeaponItem::WST_LEE_ITEM )

  0000c	85 c0		 test	 eax, eax
  0000e	74 2a		 je	 SHORT $LN1@ToLeeItem
  00010	8b 10		 mov	 edx, DWORD PTR [eax]
  00012	8b c8		 mov	 ecx, eax
  00014	ff 92 f0 02 00
	00		 call	 DWORD PTR [edx+752]
  0001a	83 f8 62	 cmp	 eax, 98			; 00000062H
  0001d	75 1b		 jne	 SHORT $LN1@ToLeeItem

; 187  : 
; 188  : 	return dynamic_cast< ioLeeItem* >( pItem );

  0001f	6a 00		 push	 0
  00021	68 00 00 00 00	 push	 OFFSET ??_R0?AVioLeeItem@@@8
  00026	68 00 00 00 00	 push	 OFFSET ??_R0?AVioItem@@@8
  0002b	6a 00		 push	 0
  0002d	ff 75 08	 push	 DWORD PTR _pItem$[ebp]
  00030	e8 00 00 00 00	 call	 ___RTDynamicCast
  00035	83 c4 14	 add	 esp, 20			; 00000014H

; 189  : }

  00038	5d		 pop	 ebp
  00039	c3		 ret	 0
$LN1@ToLeeItem:

; 186  : 		return NULL;

  0003a	33 c0		 xor	 eax, eax

; 189  : }

  0003c	5d		 pop	 ebp
  0003d	c3		 ret	 0
?ToLeeItem@@YAPAVioLeeItem@@PAVioItem@@@Z ENDP		; ToLeeItem
_TEXT	ENDS
PUBLIC	??_R0?AVioProject_K_Item@@@8			; ioProject_K_Item `RTTI Type Descriptor'
PUBLIC	?ToProject_K_Item@@YAPAVioProject_K_Item@@PAVioItem@@@Z ; ToProject_K_Item
;	COMDAT ??_R0?AVioProject_K_Item@@@8
; File d:\lost saga for developer\youtube\tutorial\source\src\lsclient\ioproject_k_item.h
_DATA	SEGMENT
??_R0?AVioProject_K_Item@@@8 DD FLAT:??_7type_info@@6B@	; ioProject_K_Item `RTTI Type Descriptor'
	DD	00H
	DB	'.?AVioProject_K_Item@@', 00H
; Function compile flags: /Ogsp
_DATA	ENDS
;	COMDAT ?ToProject_K_Item@@YAPAVioProject_K_Item@@PAVioItem@@@Z
_TEXT	SEGMENT
_pItem$ = 8						; size = 4
?ToProject_K_Item@@YAPAVioProject_K_Item@@PAVioItem@@@Z PROC ; ToProject_K_Item, COMDAT

; 152  : {

  00000	55		 push	 ebp
  00001	8b ec		 mov	 ebp, esp

; 153  : 	ioWeaponItem *pWeapon = ToWeaponItem( pItem );

  00003	ff 75 08	 push	 DWORD PTR _pItem$[ebp]
  00006	e8 00 00 00 00	 call	 ?ToWeaponItem@@YAPAVioWeaponItem@@PAVioItem@@@Z ; ToWeaponItem
  0000b	59		 pop	 ecx

; 154  : 	if( !pWeapon || pWeapon->GetSubType() != ioWeaponItem::WST_PROJECT_K )

  0000c	85 c0		 test	 eax, eax
  0000e	74 2a		 je	 SHORT $LN1@ToProject_
  00010	8b 10		 mov	 edx, DWORD PTR [eax]
  00012	8b c8		 mov	 ecx, eax
  00014	ff 92 f0 02 00
	00		 call	 DWORD PTR [edx+752]
  0001a	83 f8 4a	 cmp	 eax, 74			; 0000004aH
  0001d	75 1b		 jne	 SHORT $LN1@ToProject_

; 156  : 
; 157  : 	return dynamic_cast< ioProject_K_Item* >( pItem );

  0001f	6a 00		 push	 0
  00021	68 00 00 00 00	 push	 OFFSET ??_R0?AVioProject_K_Item@@@8
  00026	68 00 00 00 00	 push	 OFFSET ??_R0?AVioItem@@@8
  0002b	6a 00		 push	 0
  0002d	ff 75 08	 push	 DWORD PTR _pItem$[ebp]
  00030	e8 00 00 00 00	 call	 ___RTDynamicCast
  00035	83 c4 14	 add	 esp, 20			; 00000014H

; 158  : }

  00038	5d		 pop	 ebp
  00039	c3		 ret	 0
$LN1@ToProject_:

; 155  : 		return NULL;

  0003a	33 c0		 xor	 eax, eax

; 158  : }

  0003c	5d		 pop	 ebp
  0003d	c3		 ret	 0
?ToProject_K_Item@@YAPAVioProject_K_Item@@PAVioItem@@@Z ENDP ; ToProject_K_Item
_TEXT	ENDS
PUBLIC	??_R0?AVioHakumenItem@@@8			; ioHakumenItem `RTTI Type Descriptor'
PUBLIC	?ToHakumenItem@@YAPAVioHakumenItem@@PAVioItem@@@Z ; ToHakumenItem
;	COMDAT ??_R0?AVioHakumenItem@@@8
; File d:\lost saga for developer\youtube\tutorial\source\src\lsclient\iohakumenitem.h
_DATA	SEGMENT
??_R0?AVioHakumenItem@@@8 DD FLAT:??_7type_info@@6B@	; ioHakumenItem `RTTI Type Descriptor'
	DD	00H
	DB	'.?AVioHakumenItem@@', 00H
; Function compile flags: /Ogsp
_DATA	ENDS
;	COMDAT ?ToHakumenItem@@YAPAVioHakumenItem@@PAVioItem@@@Z
_TEXT	SEGMENT
_pItem$ = 8						; size = 4
?ToHakumenItem@@YAPAVioHakumenItem@@PAVioItem@@@Z PROC	; ToHakumenItem, COMDAT

; 138  : {

  00000	55		 push	 ebp
  00001	8b ec		 mov	 ebp, esp

; 139  : 	ioWeaponItem *pWeapon = ToWeaponItem( pItem );

  00003	ff 75 08	 push	 DWORD PTR _pItem$[ebp]
  00006	e8 00 00 00 00	 call	 ?ToWeaponItem@@YAPAVioWeaponItem@@PAVioItem@@@Z ; ToWeaponItem
  0000b	59		 pop	 ecx

; 140  : 	if( !pWeapon || pWeapon->GetSubType() != ioWeaponItem::WST_HAKUMEN )

  0000c	85 c0		 test	 eax, eax
  0000e	74 2a		 je	 SHORT $LN1@ToHakumenI
  00010	8b 10		 mov	 edx, DWORD PTR [eax]
  00012	8b c8		 mov	 ecx, eax
  00014	ff 92 f0 02 00
	00		 call	 DWORD PTR [edx+752]
  0001a	83 f8 4c	 cmp	 eax, 76			; 0000004cH
  0001d	75 1b		 jne	 SHORT $LN1@ToHakumenI

; 142  : 
; 143  : 	return dynamic_cast< ioHakumenItem* >( pItem );

  0001f	6a 00		 push	 0
  00021	68 00 00 00 00	 push	 OFFSET ??_R0?AVioHakumenItem@@@8
  00026	68 00 00 00 00	 push	 OFFSET ??_R0?AVioItem@@@8
  0002b	6a 00		 push	 0
  0002d	ff 75 08	 push	 DWORD PTR _pItem$[ebp]
  00030	e8 00 00 00 00	 call	 ___RTDynamicCast
  00035	83 c4 14	 add	 esp, 20			; 00000014H

; 144  : }

  00038	5d		 pop	 ebp
  00039	c3		 ret	 0
$LN1@ToHakumenI:

; 141  : 		return NULL;

  0003a	33 c0		 xor	 eax, eax

; 144  : }

  0003c	5d		 pop	 ebp
  0003d	c3		 ret	 0
?ToHakumenItem@@YAPAVioHakumenItem@@PAVioItem@@@Z ENDP	; ToHakumenItem
_TEXT	ENDS
PUBLIC	??_R0?AVioDevilItem@@@8				; ioDevilItem `RTTI Type Descriptor'
PUBLIC	?ToDevilItem@@YAPAVioDevilItem@@PAVioItem@@@Z	; ToDevilItem
;	COMDAT ??_R0?AVioDevilItem@@@8
; File d:\lost saga for developer\youtube\tutorial\source\src\lsclient\iodevilitem.h
_DATA	SEGMENT
??_R0?AVioDevilItem@@@8 DD FLAT:??_7type_info@@6B@	; ioDevilItem `RTTI Type Descriptor'
	DD	00H
	DB	'.?AVioDevilItem@@', 00H
; Function compile flags: /Ogsp
_DATA	ENDS
;	COMDAT ?ToDevilItem@@YAPAVioDevilItem@@PAVioItem@@@Z
_TEXT	SEGMENT
_pItem$ = 8						; size = 4
?ToDevilItem@@YAPAVioDevilItem@@PAVioItem@@@Z PROC	; ToDevilItem, COMDAT

; 200  : {

  00000	55		 push	 ebp
  00001	8b ec		 mov	 ebp, esp

; 201  : 	ioWeaponItem *pWeapon = ToWeaponItem( pItem );

  00003	ff 75 08	 push	 DWORD PTR _pItem$[ebp]
  00006	e8 00 00 00 00	 call	 ?ToWeaponItem@@YAPAVioWeaponItem@@PAVioItem@@@Z ; ToWeaponItem
  0000b	59		 pop	 ecx

; 202  : 	if( !pWeapon || pWeapon->GetSubType() != ioWeaponItem::WST_DEVIL)

  0000c	85 c0		 test	 eax, eax
  0000e	74 2a		 je	 SHORT $LN1@ToDevilIte
  00010	8b 10		 mov	 edx, DWORD PTR [eax]
  00012	8b c8		 mov	 ecx, eax
  00014	ff 92 f0 02 00
	00		 call	 DWORD PTR [edx+752]
  0001a	83 f8 4d	 cmp	 eax, 77			; 0000004dH
  0001d	75 1b		 jne	 SHORT $LN1@ToDevilIte

; 204  : 
; 205  : 	return dynamic_cast< ioDevilItem* >( pItem );

  0001f	6a 00		 push	 0
  00021	68 00 00 00 00	 push	 OFFSET ??_R0?AVioDevilItem@@@8
  00026	68 00 00 00 00	 push	 OFFSET ??_R0?AVioItem@@@8
  0002b	6a 00		 push	 0
  0002d	ff 75 08	 push	 DWORD PTR _pItem$[ebp]
  00030	e8 00 00 00 00	 call	 ___RTDynamicCast
  00035	83 c4 14	 add	 esp, 20			; 00000014H

; 206  : }

  00038	5d		 pop	 ebp
  00039	c3		 ret	 0
$LN1@ToDevilIte:

; 203  : 		return NULL;

  0003a	33 c0		 xor	 eax, eax

; 206  : }

  0003c	5d		 pop	 ebp
  0003d	c3		 ret	 0
?ToDevilItem@@YAPAVioDevilItem@@PAVioItem@@@Z ENDP	; ToDevilItem
_TEXT	ENDS
PUBLIC	??_R0?AVioMaidItem@@@8				; ioMaidItem `RTTI Type Descriptor'
PUBLIC	?ToMaidItem@@YAPAVioMaidItem@@PAVioItem@@@Z	; ToMaidItem
;	COMDAT ??_R0?AVioMaidItem@@@8
; File d:\lost saga for developer\youtube\tutorial\source\src\lsclient\iomaiditem.h
_DATA	SEGMENT
??_R0?AVioMaidItem@@@8 DD FLAT:??_7type_info@@6B@	; ioMaidItem `RTTI Type Descriptor'
	DD	00H
	DB	'.?AVioMaidItem@@', 00H
; Function compile flags: /Ogsp
_DATA	ENDS
;	COMDAT ?ToMaidItem@@YAPAVioMaidItem@@PAVioItem@@@Z
_TEXT	SEGMENT
_pItem$ = 8						; size = 4
?ToMaidItem@@YAPAVioMaidItem@@PAVioItem@@@Z PROC	; ToMaidItem, COMDAT

; 334  : {

  00000	55		 push	 ebp
  00001	8b ec		 mov	 ebp, esp

; 335  : 	ioWeaponItem *pWeapon = ToWeaponItem( pItem );

  00003	ff 75 08	 push	 DWORD PTR _pItem$[ebp]
  00006	e8 00 00 00 00	 call	 ?ToWeaponItem@@YAPAVioWeaponItem@@PAVioItem@@@Z ; ToWeaponItem
  0000b	59		 pop	 ecx

; 336  : 	if( !pWeapon || pWeapon->GetSubType() != ioWeaponItem::WST_MAIDITEM )

  0000c	85 c0		 test	 eax, eax
  0000e	74 2a		 je	 SHORT $LN1@ToMaidItem
  00010	8b 10		 mov	 edx, DWORD PTR [eax]
  00012	8b c8		 mov	 ecx, eax
  00014	ff 92 f0 02 00
	00		 call	 DWORD PTR [edx+752]
  0001a	83 f8 4e	 cmp	 eax, 78			; 0000004eH
  0001d	75 1b		 jne	 SHORT $LN1@ToMaidItem

; 338  : 
; 339  : 	return dynamic_cast< ioMaidItem* >( pItem );

  0001f	6a 00		 push	 0
  00021	68 00 00 00 00	 push	 OFFSET ??_R0?AVioMaidItem@@@8
  00026	68 00 00 00 00	 push	 OFFSET ??_R0?AVioItem@@@8
  0002b	6a 00		 push	 0
  0002d	ff 75 08	 push	 DWORD PTR _pItem$[ebp]
  00030	e8 00 00 00 00	 call	 ___RTDynamicCast
  00035	83 c4 14	 add	 esp, 20			; 00000014H

; 340  : }

  00038	5d		 pop	 ebp
  00039	c3		 ret	 0
$LN1@ToMaidItem:

; 337  : 		return NULL;

  0003a	33 c0		 xor	 eax, eax

; 340  : }

  0003c	5d		 pop	 ebp
  0003d	c3		 ret	 0
?ToMaidItem@@YAPAVioMaidItem@@PAVioItem@@@Z ENDP	; ToMaidItem
_TEXT	ENDS
PUBLIC	??_R0?AVioFlash_Item@@@8			; ioFlash_Item `RTTI Type Descriptor'
PUBLIC	?ToFlashItem@@YAPAVioFlash_Item@@PAVioItem@@@Z	; ToFlashItem
;	COMDAT ??_R0?AVioFlash_Item@@@8
; File d:\lost saga for developer\youtube\tutorial\source\src\lsclient\ioflash_item.h
_DATA	SEGMENT
??_R0?AVioFlash_Item@@@8 DD FLAT:??_7type_info@@6B@	; ioFlash_Item `RTTI Type Descriptor'
	DD	00H
	DB	'.?AVioFlash_Item@@', 00H
; Function compile flags: /Ogsp
_DATA	ENDS
;	COMDAT ?ToFlashItem@@YAPAVioFlash_Item@@PAVioItem@@@Z
_TEXT	SEGMENT
_pItem$ = 8						; size = 4
?ToFlashItem@@YAPAVioFlash_Item@@PAVioItem@@@Z PROC	; ToFlashItem, COMDAT

; 281  : {

  00000	55		 push	 ebp
  00001	8b ec		 mov	 ebp, esp

; 282  : 	ioWeaponItem *pWeapon = ToWeaponItem( pItem );

  00003	ff 75 08	 push	 DWORD PTR _pItem$[ebp]
  00006	e8 00 00 00 00	 call	 ?ToWeaponItem@@YAPAVioWeaponItem@@PAVioItem@@@Z ; ToWeaponItem
  0000b	59		 pop	 ecx

; 283  : 	if( !pWeapon || pWeapon->GetSubType() != ioWeaponItem::WST_FLASHITEM )

  0000c	85 c0		 test	 eax, eax
  0000e	74 2a		 je	 SHORT $LN1@ToFlashIte
  00010	8b 10		 mov	 edx, DWORD PTR [eax]
  00012	8b c8		 mov	 ecx, eax
  00014	ff 92 f0 02 00
	00		 call	 DWORD PTR [edx+752]
  0001a	83 f8 4f	 cmp	 eax, 79			; 0000004fH
  0001d	75 1b		 jne	 SHORT $LN1@ToFlashIte

; 285  : 
; 286  : 	return dynamic_cast< ioFlash_Item* >( pItem );

  0001f	6a 00		 push	 0
  00021	68 00 00 00 00	 push	 OFFSET ??_R0?AVioFlash_Item@@@8
  00026	68 00 00 00 00	 push	 OFFSET ??_R0?AVioItem@@@8
  0002b	6a 00		 push	 0
  0002d	ff 75 08	 push	 DWORD PTR _pItem$[ebp]
  00030	e8 00 00 00 00	 call	 ___RTDynamicCast
  00035	83 c4 14	 add	 esp, 20			; 00000014H

; 287  : }

  00038	5d		 pop	 ebp
  00039	c3		 ret	 0
$LN1@ToFlashIte:

; 284  : 		return NULL;

  0003a	33 c0		 xor	 eax, eax

; 287  : }

  0003c	5d		 pop	 ebp
  0003d	c3		 ret	 0
?ToFlashItem@@YAPAVioFlash_Item@@PAVioItem@@@Z ENDP	; ToFlashItem
_TEXT	ENDS
PUBLIC	??_R0?AVioPsychoMetry_Item@@@8			; ioPsychoMetry_Item `RTTI Type Descriptor'
PUBLIC	?ToPsychoMetryItem@@YAPAVioPsychoMetry_Item@@PAVioItem@@@Z ; ToPsychoMetryItem
;	COMDAT ??_R0?AVioPsychoMetry_Item@@@8
; File d:\lost saga for developer\youtube\tutorial\source\src\lsclient\iopsychometry_item.h
_DATA	SEGMENT
??_R0?AVioPsychoMetry_Item@@@8 DD FLAT:??_7type_info@@6B@ ; ioPsychoMetry_Item `RTTI Type Descriptor'
	DD	00H
	DB	'.?AVioPsychoMetry_Item@@', 00H
; Function compile flags: /Ogsp
_DATA	ENDS
;	COMDAT ?ToPsychoMetryItem@@YAPAVioPsychoMetry_Item@@PAVioItem@@@Z
_TEXT	SEGMENT
_pItem$ = 8						; size = 4
?ToPsychoMetryItem@@YAPAVioPsychoMetry_Item@@PAVioItem@@@Z PROC ; ToPsychoMetryItem, COMDAT

; 232  : {

  00000	55		 push	 ebp
  00001	8b ec		 mov	 ebp, esp
  00003	56		 push	 esi

; 233  : 	ioWeaponItem *pWeapon = ToWeaponItem( pItem );

  00004	ff 75 08	 push	 DWORD PTR _pItem$[ebp]
  00007	e8 00 00 00 00	 call	 ?ToWeaponItem@@YAPAVioWeaponItem@@PAVioItem@@@Z ; ToWeaponItem
  0000c	8b f0		 mov	 esi, eax
  0000e	59		 pop	 ecx

; 234  : 	if( !pWeapon || pWeapon->GetSubType() != ioWeaponItem::WST_PSYCO_ITEM )

  0000f	85 f6		 test	 esi, esi
  00011	74 28		 je	 SHORT $LN1@ToPsychoMe
  00013	8b 06		 mov	 eax, DWORD PTR [esi]
  00015	8b ce		 mov	 ecx, esi
  00017	ff 90 f0 02 00
	00		 call	 DWORD PTR [eax+752]
  0001d	83 f8 51	 cmp	 eax, 81			; 00000051H
  00020	75 19		 jne	 SHORT $LN1@ToPsychoMe

; 236  : 
; 237  : 	return dynamic_cast< ioPsychoMetry_Item* >( pWeapon );

  00022	6a 00		 push	 0
  00024	68 00 00 00 00	 push	 OFFSET ??_R0?AVioPsychoMetry_Item@@@8
  00029	68 00 00 00 00	 push	 OFFSET ??_R0?AVioWeaponItem@@@8
  0002e	6a 00		 push	 0
  00030	56		 push	 esi
  00031	e8 00 00 00 00	 call	 ___RTDynamicCast
  00036	83 c4 14	 add	 esp, 20			; 00000014H
  00039	eb 02		 jmp	 SHORT $LN3@ToPsychoMe
$LN1@ToPsychoMe:

; 235  : 		return NULL;

  0003b	33 c0		 xor	 eax, eax
$LN3@ToPsychoMe:
  0003d	5e		 pop	 esi

; 238  : }

  0003e	5d		 pop	 ebp
  0003f	c3		 ret	 0
?ToPsychoMetryItem@@YAPAVioPsychoMetry_Item@@PAVioItem@@@Z ENDP ; ToPsychoMetryItem
_TEXT	ENDS
PUBLIC	??_R0?AVioSuddenAttackItem@@@8			; ioSuddenAttackItem `RTTI Type Descriptor'
PUBLIC	?ToSuddenAttackItem@@YAPAVioSuddenAttackItem@@PAVioItem@@@Z ; ToSuddenAttackItem
;	COMDAT ??_R0?AVioSuddenAttackItem@@@8
; File d:\lost saga for developer\youtube\tutorial\source\src\lsclient\iosuddenattackitem.h
_DATA	SEGMENT
??_R0?AVioSuddenAttackItem@@@8 DD FLAT:??_7type_info@@6B@ ; ioSuddenAttackItem `RTTI Type Descriptor'
	DD	00H
	DB	'.?AVioSuddenAttackItem@@', 00H
; Function compile flags: /Ogsp
_DATA	ENDS
;	COMDAT ?ToSuddenAttackItem@@YAPAVioSuddenAttackItem@@PAVioItem@@@Z
_TEXT	SEGMENT
_pItem$ = 8						; size = 4
?ToSuddenAttackItem@@YAPAVioSuddenAttackItem@@PAVioItem@@@Z PROC ; ToSuddenAttackItem, COMDAT

; 512  : {

  00000	55		 push	 ebp
  00001	8b ec		 mov	 ebp, esp

; 513  : 	ioWeaponItem *pWeapon = ToWeaponItem( pItem );

  00003	ff 75 08	 push	 DWORD PTR _pItem$[ebp]
  00006	e8 00 00 00 00	 call	 ?ToWeaponItem@@YAPAVioWeaponItem@@PAVioItem@@@Z ; ToWeaponItem
  0000b	59		 pop	 ecx

; 514  : 	if( !pWeapon || pWeapon->GetSubType() != ioWeaponItem::WST_SUDDEN_ATTACK_ITEM )

  0000c	85 c0		 test	 eax, eax
  0000e	74 2a		 je	 SHORT $LN1@ToSuddenAt
  00010	8b 10		 mov	 edx, DWORD PTR [eax]
  00012	8b c8		 mov	 ecx, eax
  00014	ff 92 f0 02 00
	00		 call	 DWORD PTR [edx+752]
  0001a	83 f8 52	 cmp	 eax, 82			; 00000052H
  0001d	75 1b		 jne	 SHORT $LN1@ToSuddenAt

; 516  : 
; 517  : 	return dynamic_cast< ioSuddenAttackItem* >( pItem );

  0001f	6a 00		 push	 0
  00021	68 00 00 00 00	 push	 OFFSET ??_R0?AVioSuddenAttackItem@@@8
  00026	68 00 00 00 00	 push	 OFFSET ??_R0?AVioItem@@@8
  0002b	6a 00		 push	 0
  0002d	ff 75 08	 push	 DWORD PTR _pItem$[ebp]
  00030	e8 00 00 00 00	 call	 ___RTDynamicCast
  00035	83 c4 14	 add	 esp, 20			; 00000014H

; 518  : }

  00038	5d		 pop	 ebp
  00039	c3		 ret	 0
$LN1@ToSuddenAt:

; 515  : 		return NULL;

  0003a	33 c0		 xor	 eax, eax

; 518  : }

  0003c	5d		 pop	 ebp
  0003d	c3		 ret	 0
?ToSuddenAttackItem@@YAPAVioSuddenAttackItem@@PAVioItem@@@Z ENDP ; ToSuddenAttackItem
_TEXT	ENDS
PUBLIC	??_R0?AVioSlasher_Item@@@8			; ioSlasher_Item `RTTI Type Descriptor'
PUBLIC	?ToSlasherItem@@YAPAVioSlasher_Item@@PAVioItem@@@Z ; ToSlasherItem
;	COMDAT ??_R0?AVioSlasher_Item@@@8
; File d:\lost saga for developer\youtube\tutorial\source\src\lsclient\ioslasher_item.h
_DATA	SEGMENT
??_R0?AVioSlasher_Item@@@8 DD FLAT:??_7type_info@@6B@	; ioSlasher_Item `RTTI Type Descriptor'
	DD	00H
	DB	'.?AVioSlasher_Item@@', 00H
; Function compile flags: /Ogsp
_DATA	ENDS
;	COMDAT ?ToSlasherItem@@YAPAVioSlasher_Item@@PAVioItem@@@Z
_TEXT	SEGMENT
_pItem$ = 8						; size = 4
?ToSlasherItem@@YAPAVioSlasher_Item@@PAVioItem@@@Z PROC	; ToSlasherItem, COMDAT

; 233  : {

  00000	55		 push	 ebp
  00001	8b ec		 mov	 ebp, esp
  00003	56		 push	 esi

; 234  : 	ioWeaponItem *pWeapon = ToWeaponItem( pItem );

  00004	ff 75 08	 push	 DWORD PTR _pItem$[ebp]
  00007	e8 00 00 00 00	 call	 ?ToWeaponItem@@YAPAVioWeaponItem@@PAVioItem@@@Z ; ToWeaponItem
  0000c	8b f0		 mov	 esi, eax
  0000e	59		 pop	 ecx

; 235  : 	if( !pWeapon || pWeapon->GetSubType() != ioWeaponItem::WST_SLASHER_ITEM )

  0000f	85 f6		 test	 esi, esi
  00011	74 28		 je	 SHORT $LN1@ToSlasherI
  00013	8b 06		 mov	 eax, DWORD PTR [esi]
  00015	8b ce		 mov	 ecx, esi
  00017	ff 90 f0 02 00
	00		 call	 DWORD PTR [eax+752]
  0001d	83 f8 53	 cmp	 eax, 83			; 00000053H
  00020	75 19		 jne	 SHORT $LN1@ToSlasherI

; 237  : 
; 238  : 	return dynamic_cast< ioSlasher_Item* >( pWeapon );

  00022	6a 00		 push	 0
  00024	68 00 00 00 00	 push	 OFFSET ??_R0?AVioSlasher_Item@@@8
  00029	68 00 00 00 00	 push	 OFFSET ??_R0?AVioWeaponItem@@@8
  0002e	6a 00		 push	 0
  00030	56		 push	 esi
  00031	e8 00 00 00 00	 call	 ___RTDynamicCast
  00036	83 c4 14	 add	 esp, 20			; 00000014H
  00039	eb 02		 jmp	 SHORT $LN3@ToSlasherI
$LN1@ToSlasherI:

; 236  : 		return NULL;

  0003b	33 c0		 xor	 eax, eax
$LN3@ToSlasherI:
  0003d	5e		 pop	 esi

; 239  : }

  0003e	5d		 pop	 ebp
  0003f	c3		 ret	 0
?ToSlasherItem@@YAPAVioSlasher_Item@@PAVioItem@@@Z ENDP	; ToSlasherItem
_TEXT	ENDS
PUBLIC	??_R0?AVioDummyCharItem2@@@8			; ioDummyCharItem2 `RTTI Type Descriptor'
PUBLIC	?ToDummyCharItem2@@YAPAVioDummyCharItem2@@PAVioItem@@@Z ; ToDummyCharItem2
;	COMDAT ??_R0?AVioDummyCharItem2@@@8
; File d:\lost saga for developer\youtube\tutorial\source\src\lsclient\iodummycharitem2.h
_DATA	SEGMENT
??_R0?AVioDummyCharItem2@@@8 DD FLAT:??_7type_info@@6B@	; ioDummyCharItem2 `RTTI Type Descriptor'
	DD	00H
	DB	'.?AVioDummyCharItem2@@', 00H
; Function compile flags: /Ogsp
_DATA	ENDS
;	COMDAT ?ToDummyCharItem2@@YAPAVioDummyCharItem2@@PAVioItem@@@Z
_TEXT	SEGMENT
_pItem$ = 8						; size = 4
?ToDummyCharItem2@@YAPAVioDummyCharItem2@@PAVioItem@@@Z PROC ; ToDummyCharItem2, COMDAT

; 164  : {

  00000	55		 push	 ebp
  00001	8b ec		 mov	 ebp, esp

; 165  : 	ioWeaponItem *pWeapon = ToWeaponItem( pItem );

  00003	ff 75 08	 push	 DWORD PTR _pItem$[ebp]
  00006	e8 00 00 00 00	 call	 ?ToWeaponItem@@YAPAVioWeaponItem@@PAVioItem@@@Z ; ToWeaponItem
  0000b	59		 pop	 ecx

; 166  : 	if( !pWeapon || pWeapon->GetSubType() != ioWeaponItem::WST_DUMMY_CHAR2 )

  0000c	85 c0		 test	 eax, eax
  0000e	74 2a		 je	 SHORT $LN1@ToDummyCha
  00010	8b 10		 mov	 edx, DWORD PTR [eax]
  00012	8b c8		 mov	 ecx, eax
  00014	ff 92 f0 02 00
	00		 call	 DWORD PTR [edx+752]
  0001a	83 f8 54	 cmp	 eax, 84			; 00000054H
  0001d	75 1b		 jne	 SHORT $LN1@ToDummyCha

; 168  : 
; 169  : 	return dynamic_cast< ioDummyCharItem2* >( pItem );

  0001f	6a 00		 push	 0
  00021	68 00 00 00 00	 push	 OFFSET ??_R0?AVioDummyCharItem2@@@8
  00026	68 00 00 00 00	 push	 OFFSET ??_R0?AVioItem@@@8
  0002b	6a 00		 push	 0
  0002d	ff 75 08	 push	 DWORD PTR _pItem$[ebp]
  00030	e8 00 00 00 00	 call	 ___RTDynamicCast
  00035	83 c4 14	 add	 esp, 20			; 00000014H

; 170  : }

  00038	5d		 pop	 ebp
  00039	c3		 ret	 0
$LN1@ToDummyCha:

; 167  : 		return NULL;

  0003a	33 c0		 xor	 eax, eax

; 170  : }

  0003c	5d		 pop	 ebp
  0003d	c3		 ret	 0
?ToDummyCharItem2@@YAPAVioDummyCharItem2@@PAVioItem@@@Z ENDP ; ToDummyCharItem2
_TEXT	ENDS
PUBLIC	??_R0?AVioTitanItem@@@8				; ioTitanItem `RTTI Type Descriptor'
PUBLIC	?ToTitanWeaponItem@@YAPAVioTitanItem@@PAVioItem@@@Z ; ToTitanWeaponItem
;	COMDAT ??_R0?AVioTitanItem@@@8
; File d:\lost saga for developer\youtube\tutorial\source\src\lsclient\iotitanitem.h
_DATA	SEGMENT
??_R0?AVioTitanItem@@@8 DD FLAT:??_7type_info@@6B@	; ioTitanItem `RTTI Type Descriptor'
	DD	00H
	DB	'.?AVioTitanItem@@', 00H
; Function compile flags: /Ogsp
_DATA	ENDS
;	COMDAT ?ToTitanWeaponItem@@YAPAVioTitanItem@@PAVioItem@@@Z
_TEXT	SEGMENT
_pItem$ = 8						; size = 4
?ToTitanWeaponItem@@YAPAVioTitanItem@@PAVioItem@@@Z PROC ; ToTitanWeaponItem, COMDAT

; 110  : {

  00000	55		 push	 ebp
  00001	8b ec		 mov	 ebp, esp

; 111  : 	ioWeaponItem *pWeapon = ToWeaponItem( pItem );

  00003	ff 75 08	 push	 DWORD PTR _pItem$[ebp]
  00006	e8 00 00 00 00	 call	 ?ToWeaponItem@@YAPAVioWeaponItem@@PAVioItem@@@Z ; ToWeaponItem
  0000b	59		 pop	 ecx

; 112  : 	if( !pWeapon || pWeapon->GetSubType() != ioWeaponItem::WST_TITAN_ITEM )

  0000c	85 c0		 test	 eax, eax
  0000e	74 2a		 je	 SHORT $LN1@ToTitanWea
  00010	8b 10		 mov	 edx, DWORD PTR [eax]
  00012	8b c8		 mov	 ecx, eax
  00014	ff 92 f0 02 00
	00		 call	 DWORD PTR [edx+752]
  0001a	83 f8 56	 cmp	 eax, 86			; 00000056H
  0001d	75 1b		 jne	 SHORT $LN1@ToTitanWea

; 114  : 
; 115  : 	return dynamic_cast< ioTitanItem* >( pItem );

  0001f	6a 00		 push	 0
  00021	68 00 00 00 00	 push	 OFFSET ??_R0?AVioTitanItem@@@8
  00026	68 00 00 00 00	 push	 OFFSET ??_R0?AVioItem@@@8
  0002b	6a 00		 push	 0
  0002d	ff 75 08	 push	 DWORD PTR _pItem$[ebp]
  00030	e8 00 00 00 00	 call	 ___RTDynamicCast
  00035	83 c4 14	 add	 esp, 20			; 00000014H

; 116  : }

  00038	5d		 pop	 ebp
  00039	c3		 ret	 0
$LN1@ToTitanWea:

; 113  : 		return NULL;

  0003a	33 c0		 xor	 eax, eax

; 116  : }

  0003c	5d		 pop	 ebp
  0003d	c3		 ret	 0
?ToTitanWeaponItem@@YAPAVioTitanItem@@PAVioItem@@@Z ENDP ; ToTitanWeaponItem
_TEXT	ENDS
PUBLIC	??_R0?AVioSuperDimensionItem@@@8		; ioSuperDimensionItem `RTTI Type Descriptor'
PUBLIC	?ToSuperDimensionItem@@YAPAVioSuperDimensionItem@@PAVioItem@@@Z ; ToSuperDimensionItem
;	COMDAT ??_R0?AVioSuperDimensionItem@@@8
; File d:\lost saga for developer\youtube\tutorial\source\src\lsclient\iosuperdimensionitem.h
_DATA	SEGMENT
??_R0?AVioSuperDimensionItem@@@8 DD FLAT:??_7type_info@@6B@ ; ioSuperDimensionItem `RTTI Type Descriptor'
	DD	00H
	DB	'.?AVioSuperDimensionItem@@', 00H
; Function compile flags: /Ogsp
_DATA	ENDS
;	COMDAT ?ToSuperDimensionItem@@YAPAVioSuperDimensionItem@@PAVioItem@@@Z
_TEXT	SEGMENT
_pItem$ = 8						; size = 4
?ToSuperDimensionItem@@YAPAVioSuperDimensionItem@@PAVioItem@@@Z PROC ; ToSuperDimensionItem, COMDAT

; 331  : {

  00000	55		 push	 ebp
  00001	8b ec		 mov	 ebp, esp
  00003	56		 push	 esi

; 332  : 	ioWeaponItem *pWeapon = ToWeaponItem( pItem );

  00004	ff 75 08	 push	 DWORD PTR _pItem$[ebp]
  00007	e8 00 00 00 00	 call	 ?ToWeaponItem@@YAPAVioWeaponItem@@PAVioItem@@@Z ; ToWeaponItem
  0000c	8b f0		 mov	 esi, eax
  0000e	59		 pop	 ecx

; 333  : 	if( !pWeapon || pWeapon->GetSubType() != ioWeaponItem::WST_SUPER_DIMENSION_ITEM )

  0000f	85 f6		 test	 esi, esi
  00011	74 28		 je	 SHORT $LN1@ToSuperDim
  00013	8b 06		 mov	 eax, DWORD PTR [esi]
  00015	8b ce		 mov	 ecx, esi
  00017	ff 90 f0 02 00
	00		 call	 DWORD PTR [eax+752]
  0001d	83 f8 57	 cmp	 eax, 87			; 00000057H
  00020	75 19		 jne	 SHORT $LN1@ToSuperDim

; 335  : 
; 336  : 	return dynamic_cast< ioSuperDimensionItem* >( pWeapon );

  00022	6a 00		 push	 0
  00024	68 00 00 00 00	 push	 OFFSET ??_R0?AVioSuperDimensionItem@@@8
  00029	68 00 00 00 00	 push	 OFFSET ??_R0?AVioWeaponItem@@@8
  0002e	6a 00		 push	 0
  00030	56		 push	 esi
  00031	e8 00 00 00 00	 call	 ___RTDynamicCast
  00036	83 c4 14	 add	 esp, 20			; 00000014H
  00039	eb 02		 jmp	 SHORT $LN3@ToSuperDim
$LN1@ToSuperDim:

; 334  : 		return NULL;

  0003b	33 c0		 xor	 eax, eax
$LN3@ToSuperDim:
  0003d	5e		 pop	 esi

; 337  : }

  0003e	5d		 pop	 ebp
  0003f	c3		 ret	 0
?ToSuperDimensionItem@@YAPAVioSuperDimensionItem@@PAVioItem@@@Z ENDP ; ToSuperDimensionItem
_TEXT	ENDS
PUBLIC	??_R0?AVioTraceItem@@@8				; ioTraceItem `RTTI Type Descriptor'
PUBLIC	?ToTraceItem@@YAPAVioTraceItem@@PAVioItem@@@Z	; ToTraceItem
;	COMDAT ??_R0?AVioTraceItem@@@8
; File d:\lost saga for developer\youtube\tutorial\source\src\lsclient\iotraceitem.h
_DATA	SEGMENT
??_R0?AVioTraceItem@@@8 DD FLAT:??_7type_info@@6B@	; ioTraceItem `RTTI Type Descriptor'
	DD	00H
	DB	'.?AVioTraceItem@@', 00H
; Function compile flags: /Ogsp
_DATA	ENDS
;	COMDAT ?ToTraceItem@@YAPAVioTraceItem@@PAVioItem@@@Z
_TEXT	SEGMENT
_pItem$ = 8						; size = 4
?ToTraceItem@@YAPAVioTraceItem@@PAVioItem@@@Z PROC	; ToTraceItem, COMDAT

; 110  : {

  00000	55		 push	 ebp
  00001	8b ec		 mov	 ebp, esp

; 111  : 	ioWeaponItem *pWeapon = ToWeaponItem( pItem );

  00003	ff 75 08	 push	 DWORD PTR _pItem$[ebp]
  00006	e8 00 00 00 00	 call	 ?ToWeaponItem@@YAPAVioWeaponItem@@PAVioItem@@@Z ; ToWeaponItem
  0000b	59		 pop	 ecx

; 112  : 	if( !pWeapon || pWeapon->GetSubType() != ioWeaponItem::WST_TRACE_ITEM )

  0000c	85 c0		 test	 eax, eax
  0000e	74 2a		 je	 SHORT $LN1@ToTraceIte
  00010	8b 10		 mov	 edx, DWORD PTR [eax]
  00012	8b c8		 mov	 ecx, eax
  00014	ff 92 f0 02 00
	00		 call	 DWORD PTR [edx+752]
  0001a	83 f8 58	 cmp	 eax, 88			; 00000058H
  0001d	75 1b		 jne	 SHORT $LN1@ToTraceIte

; 114  : 
; 115  : 	return dynamic_cast< ioTraceItem* >( pItem );

  0001f	6a 00		 push	 0
  00021	68 00 00 00 00	 push	 OFFSET ??_R0?AVioTraceItem@@@8
  00026	68 00 00 00 00	 push	 OFFSET ??_R0?AVioItem@@@8
  0002b	6a 00		 push	 0
  0002d	ff 75 08	 push	 DWORD PTR _pItem$[ebp]
  00030	e8 00 00 00 00	 call	 ___RTDynamicCast
  00035	83 c4 14	 add	 esp, 20			; 00000014H

; 116  : }

  00038	5d		 pop	 ebp
  00039	c3		 ret	 0
$LN1@ToTraceIte:

; 113  : 		return NULL;

  0003a	33 c0		 xor	 eax, eax

; 116  : }

  0003c	5d		 pop	 ebp
  0003d	c3		 ret	 0
?ToTraceItem@@YAPAVioTraceItem@@PAVioItem@@@Z ENDP	; ToTraceItem
_TEXT	ENDS
PUBLIC	??_R0?AVioKaelthasItem@@@8			; ioKaelthasItem `RTTI Type Descriptor'
PUBLIC	?ToKaelthasItem@@YAPAVioKaelthasItem@@PAVioItem@@@Z ; ToKaelthasItem
;	COMDAT ??_R0?AVioKaelthasItem@@@8
; File d:\lost saga for developer\youtube\tutorial\source\src\lsclient\iokaelthasitem.h
_DATA	SEGMENT
??_R0?AVioKaelthasItem@@@8 DD FLAT:??_7type_info@@6B@	; ioKaelthasItem `RTTI Type Descriptor'
	DD	00H
	DB	'.?AVioKaelthasItem@@', 00H
; Function compile flags: /Ogsp
_DATA	ENDS
;	COMDAT ?ToKaelthasItem@@YAPAVioKaelthasItem@@PAVioItem@@@Z
_TEXT	SEGMENT
_pItem$ = 8						; size = 4
?ToKaelthasItem@@YAPAVioKaelthasItem@@PAVioItem@@@Z PROC ; ToKaelthasItem, COMDAT

; 126  : {

  00000	55		 push	 ebp
  00001	8b ec		 mov	 ebp, esp

; 127  : 	ioWeaponItem *pWeapon = ToWeaponItem( pItem );

  00003	ff 75 08	 push	 DWORD PTR _pItem$[ebp]
  00006	e8 00 00 00 00	 call	 ?ToWeaponItem@@YAPAVioWeaponItem@@PAVioItem@@@Z ; ToWeaponItem
  0000b	59		 pop	 ecx

; 128  : 	if( !pWeapon || pWeapon->GetSubType() != ioWeaponItem::WST_KAELTHAS_ITEM )

  0000c	85 c0		 test	 eax, eax
  0000e	74 2a		 je	 SHORT $LN1@ToKaelthas
  00010	8b 10		 mov	 edx, DWORD PTR [eax]
  00012	8b c8		 mov	 ecx, eax
  00014	ff 92 f0 02 00
	00		 call	 DWORD PTR [edx+752]
  0001a	83 f8 59	 cmp	 eax, 89			; 00000059H
  0001d	75 1b		 jne	 SHORT $LN1@ToKaelthas

; 130  : 
; 131  : 	return dynamic_cast< ioKaelthasItem* >( pItem );

  0001f	6a 00		 push	 0
  00021	68 00 00 00 00	 push	 OFFSET ??_R0?AVioKaelthasItem@@@8
  00026	68 00 00 00 00	 push	 OFFSET ??_R0?AVioItem@@@8
  0002b	6a 00		 push	 0
  0002d	ff 75 08	 push	 DWORD PTR _pItem$[ebp]
  00030	e8 00 00 00 00	 call	 ___RTDynamicCast
  00035	83 c4 14	 add	 esp, 20			; 00000014H

; 132  : }

  00038	5d		 pop	 ebp
  00039	c3		 ret	 0
$LN1@ToKaelthas:

; 129  : 		return NULL;

  0003a	33 c0		 xor	 eax, eax

; 132  : }

  0003c	5d		 pop	 ebp
  0003d	c3		 ret	 0
?ToKaelthasItem@@YAPAVioKaelthasItem@@PAVioItem@@@Z ENDP ; ToKaelthasItem
_TEXT	ENDS
PUBLIC	??_R0?AVioStrikerItem@@@8			; ioStrikerItem `RTTI Type Descriptor'
PUBLIC	?ToStrikerItem@@YAPAVioStrikerItem@@PAVioItem@@@Z ; ToStrikerItem
;	COMDAT ??_R0?AVioStrikerItem@@@8
; File d:\lost saga for developer\youtube\tutorial\source\src\lsclient\iostrikeritem.h
_DATA	SEGMENT
??_R0?AVioStrikerItem@@@8 DD FLAT:??_7type_info@@6B@	; ioStrikerItem `RTTI Type Descriptor'
	DD	00H
	DB	'.?AVioStrikerItem@@', 00H
; Function compile flags: /Ogsp
_DATA	ENDS
;	COMDAT ?ToStrikerItem@@YAPAVioStrikerItem@@PAVioItem@@@Z
_TEXT	SEGMENT
_pItem$ = 8						; size = 4
?ToStrikerItem@@YAPAVioStrikerItem@@PAVioItem@@@Z PROC	; ToStrikerItem, COMDAT

; 217  : {

  00000	55		 push	 ebp
  00001	8b ec		 mov	 ebp, esp

; 218  : 	ioWeaponItem *pWeapon = ToWeaponItem( pItem );

  00003	ff 75 08	 push	 DWORD PTR _pItem$[ebp]
  00006	e8 00 00 00 00	 call	 ?ToWeaponItem@@YAPAVioWeaponItem@@PAVioItem@@@Z ; ToWeaponItem
  0000b	59		 pop	 ecx

; 219  : 	if( !pWeapon || pWeapon->GetSubType() != ioWeaponItem::WST_STRIKER_ITEM )

  0000c	85 c0		 test	 eax, eax
  0000e	74 2a		 je	 SHORT $LN1@ToStrikerI
  00010	8b 10		 mov	 edx, DWORD PTR [eax]
  00012	8b c8		 mov	 ecx, eax
  00014	ff 92 f0 02 00
	00		 call	 DWORD PTR [edx+752]
  0001a	83 f8 5d	 cmp	 eax, 93			; 0000005dH
  0001d	75 1b		 jne	 SHORT $LN1@ToStrikerI

; 221  : 
; 222  : 	return dynamic_cast< ioStrikerItem* >( pItem );

  0001f	6a 00		 push	 0
  00021	68 00 00 00 00	 push	 OFFSET ??_R0?AVioStrikerItem@@@8
  00026	68 00 00 00 00	 push	 OFFSET ??_R0?AVioItem@@@8
  0002b	6a 00		 push	 0
  0002d	ff 75 08	 push	 DWORD PTR _pItem$[ebp]
  00030	e8 00 00 00 00	 call	 ___RTDynamicCast
  00035	83 c4 14	 add	 esp, 20			; 00000014H

; 223  : }

  00038	5d		 pop	 ebp
  00039	c3		 ret	 0
$LN1@ToStrikerI:

; 220  : 		return NULL;

  0003a	33 c0		 xor	 eax, eax

; 223  : }

  0003c	5d		 pop	 ebp
  0003d	c3		 ret	 0
?ToStrikerItem@@YAPAVioStrikerItem@@PAVioItem@@@Z ENDP	; ToStrikerItem
_TEXT	ENDS
PUBLIC	??_R0?AVioParkilpyoItem@@@8			; ioParkilpyoItem `RTTI Type Descriptor'
PUBLIC	?ToParkilpyoItem@@YAPAVioParkilpyoItem@@PAVioItem@@@Z ; ToParkilpyoItem
;	COMDAT ??_R0?AVioParkilpyoItem@@@8
; File d:\lost saga for developer\youtube\tutorial\source\src\lsclient\ioparkilpyoitem.h
_DATA	SEGMENT
??_R0?AVioParkilpyoItem@@@8 DD FLAT:??_7type_info@@6B@	; ioParkilpyoItem `RTTI Type Descriptor'
	DD	00H
	DB	'.?AVioParkilpyoItem@@', 00H
; Function compile flags: /Ogsp
_DATA	ENDS
;	COMDAT ?ToParkilpyoItem@@YAPAVioParkilpyoItem@@PAVioItem@@@Z
_TEXT	SEGMENT
_pItem$ = 8						; size = 4
?ToParkilpyoItem@@YAPAVioParkilpyoItem@@PAVioItem@@@Z PROC ; ToParkilpyoItem, COMDAT

; 169  : {

  00000	55		 push	 ebp
  00001	8b ec		 mov	 ebp, esp

; 170  : 	ioWeaponItem *pWeapon = ToWeaponItem( pItem );

  00003	ff 75 08	 push	 DWORD PTR _pItem$[ebp]
  00006	e8 00 00 00 00	 call	 ?ToWeaponItem@@YAPAVioWeaponItem@@PAVioItem@@@Z ; ToWeaponItem
  0000b	59		 pop	 ecx

; 171  : 	if( !pWeapon || pWeapon->GetSubType() != ioWeaponItem::WST_PARKILPYO_ITEM )

  0000c	85 c0		 test	 eax, eax
  0000e	74 2a		 je	 SHORT $LN1@ToParkilpy
  00010	8b 10		 mov	 edx, DWORD PTR [eax]
  00012	8b c8		 mov	 ecx, eax
  00014	ff 92 f0 02 00
	00		 call	 DWORD PTR [edx+752]
  0001a	83 f8 64	 cmp	 eax, 100		; 00000064H
  0001d	75 1b		 jne	 SHORT $LN1@ToParkilpy

; 173  : 
; 174  : 	return dynamic_cast< ioParkilpyoItem* >( pItem );

  0001f	6a 00		 push	 0
  00021	68 00 00 00 00	 push	 OFFSET ??_R0?AVioParkilpyoItem@@@8
  00026	68 00 00 00 00	 push	 OFFSET ??_R0?AVioItem@@@8
  0002b	6a 00		 push	 0
  0002d	ff 75 08	 push	 DWORD PTR _pItem$[ebp]
  00030	e8 00 00 00 00	 call	 ___RTDynamicCast
  00035	83 c4 14	 add	 esp, 20			; 00000014H

; 175  : }

  00038	5d		 pop	 ebp
  00039	c3		 ret	 0
$LN1@ToParkilpy:

; 172  : 		return NULL;

  0003a	33 c0		 xor	 eax, eax

; 175  : }

  0003c	5d		 pop	 ebp
  0003d	c3		 ret	 0
?ToParkilpyoItem@@YAPAVioParkilpyoItem@@PAVioItem@@@Z ENDP ; ToParkilpyoItem
_TEXT	ENDS
PUBLIC	??_R0?AVioJoroExpansionItem@@@8			; ioJoroExpansionItem `RTTI Type Descriptor'
PUBLIC	?ToJoroExpansionItem@@YAPAVioJoroExpansionItem@@PAVioItem@@@Z ; ToJoroExpansionItem
;	COMDAT ??_R0?AVioJoroExpansionItem@@@8
; File d:\lost saga for developer\youtube\tutorial\source\src\lsclient\iojoroexpansionitem.h
_DATA	SEGMENT
??_R0?AVioJoroExpansionItem@@@8 DD FLAT:??_7type_info@@6B@ ; ioJoroExpansionItem `RTTI Type Descriptor'
	DD	00H
	DB	'.?AVioJoroExpansionItem@@', 00H
; Function compile flags: /Ogsp
_DATA	ENDS
;	COMDAT ?ToJoroExpansionItem@@YAPAVioJoroExpansionItem@@PAVioItem@@@Z
_TEXT	SEGMENT
_pItem$ = 8						; size = 4
?ToJoroExpansionItem@@YAPAVioJoroExpansionItem@@PAVioItem@@@Z PROC ; ToJoroExpansionItem, COMDAT

; 108  : {

  00000	55		 push	 ebp
  00001	8b ec		 mov	 ebp, esp

; 109  : 	ioWeaponItem *pWeapon = ToWeaponItem( pItem );

  00003	ff 75 08	 push	 DWORD PTR _pItem$[ebp]
  00006	e8 00 00 00 00	 call	 ?ToWeaponItem@@YAPAVioWeaponItem@@PAVioItem@@@Z ; ToWeaponItem
  0000b	59		 pop	 ecx

; 110  : 	if( !pWeapon || pWeapon->GetSubType() != ioWeaponItem::WST_JORO_EXPANSION_ITEM )

  0000c	85 c0		 test	 eax, eax
  0000e	74 2a		 je	 SHORT $LN1@ToJoroExpa
  00010	8b 10		 mov	 edx, DWORD PTR [eax]
  00012	8b c8		 mov	 ecx, eax
  00014	ff 92 f0 02 00
	00		 call	 DWORD PTR [edx+752]
  0001a	83 f8 65	 cmp	 eax, 101		; 00000065H
  0001d	75 1b		 jne	 SHORT $LN1@ToJoroExpa

; 112  : 
; 113  : 	return dynamic_cast< ioJoroExpansionItem* >( pItem );

  0001f	6a 00		 push	 0
  00021	68 00 00 00 00	 push	 OFFSET ??_R0?AVioJoroExpansionItem@@@8
  00026	68 00 00 00 00	 push	 OFFSET ??_R0?AVioItem@@@8
  0002b	6a 00		 push	 0
  0002d	ff 75 08	 push	 DWORD PTR _pItem$[ebp]
  00030	e8 00 00 00 00	 call	 ___RTDynamicCast
  00035	83 c4 14	 add	 esp, 20			; 00000014H

; 114  : }

  00038	5d		 pop	 ebp
  00039	c3		 ret	 0
$LN1@ToJoroExpa:

; 111  : 		return NULL;

  0003a	33 c0		 xor	 eax, eax

; 114  : }

  0003c	5d		 pop	 ebp
  0003d	c3		 ret	 0
?ToJoroExpansionItem@@YAPAVioJoroExpansionItem@@PAVioItem@@@Z ENDP ; ToJoroExpansionItem
_TEXT	ENDS
PUBLIC	??_R0?AVioEarthQuakeItem@@@8			; ioEarthQuakeItem `RTTI Type Descriptor'
PUBLIC	?ToEarthQuakeItem@@YAPAVioEarthQuakeItem@@PAVioItem@@@Z ; ToEarthQuakeItem
;	COMDAT ??_R0?AVioEarthQuakeItem@@@8
; File d:\lost saga for developer\youtube\tutorial\source\src\lsclient\ioearthquakeitem.h
_DATA	SEGMENT
??_R0?AVioEarthQuakeItem@@@8 DD FLAT:??_7type_info@@6B@	; ioEarthQuakeItem `RTTI Type Descriptor'
	DD	00H
	DB	'.?AVioEarthQuakeItem@@', 00H
; Function compile flags: /Ogsp
_DATA	ENDS
;	COMDAT ?ToEarthQuakeItem@@YAPAVioEarthQuakeItem@@PAVioItem@@@Z
_TEXT	SEGMENT
_pItem$ = 8						; size = 4
?ToEarthQuakeItem@@YAPAVioEarthQuakeItem@@PAVioItem@@@Z PROC ; ToEarthQuakeItem, COMDAT

; 172  : {

  00000	55		 push	 ebp
  00001	8b ec		 mov	 ebp, esp

; 173  : 	ioWeaponItem *pWeapon = ToWeaponItem( pItem );

  00003	ff 75 08	 push	 DWORD PTR _pItem$[ebp]
  00006	e8 00 00 00 00	 call	 ?ToWeaponItem@@YAPAVioWeaponItem@@PAVioItem@@@Z ; ToWeaponItem
  0000b	59		 pop	 ecx

; 174  : 	if( !pWeapon || pWeapon->GetSubType() != ioWeaponItem::WST_EARTHQUAKE )

  0000c	85 c0		 test	 eax, eax
  0000e	74 2a		 je	 SHORT $LN1@ToEarthQua
  00010	8b 10		 mov	 edx, DWORD PTR [eax]
  00012	8b c8		 mov	 ecx, eax
  00014	ff 92 f0 02 00
	00		 call	 DWORD PTR [edx+752]
  0001a	83 f8 66	 cmp	 eax, 102		; 00000066H
  0001d	75 1b		 jne	 SHORT $LN1@ToEarthQua

; 176  : 
; 177  : 	return dynamic_cast< ioEarthQuakeItem* >( pItem );

  0001f	6a 00		 push	 0
  00021	68 00 00 00 00	 push	 OFFSET ??_R0?AVioEarthQuakeItem@@@8
  00026	68 00 00 00 00	 push	 OFFSET ??_R0?AVioItem@@@8
  0002b	6a 00		 push	 0
  0002d	ff 75 08	 push	 DWORD PTR _pItem$[ebp]
  00030	e8 00 00 00 00	 call	 ___RTDynamicCast
  00035	83 c4 14	 add	 esp, 20			; 00000014H

; 178  : }

  00038	5d		 pop	 ebp
  00039	c3		 ret	 0
$LN1@ToEarthQua:

; 175  : 		return NULL;

  0003a	33 c0		 xor	 eax, eax

; 178  : }

  0003c	5d		 pop	 ebp
  0003d	c3		 ret	 0
?ToEarthQuakeItem@@YAPAVioEarthQuakeItem@@PAVioItem@@@Z ENDP ; ToEarthQuakeItem
_TEXT	ENDS
PUBLIC	??_R0?AVioShadowRangerItem@@@8			; ioShadowRangerItem `RTTI Type Descriptor'
PUBLIC	?ToShadowRangerItem@@YAPAVioShadowRangerItem@@PAVioItem@@@Z ; ToShadowRangerItem
;	COMDAT ??_R0?AVioShadowRangerItem@@@8
; File d:\lost saga for developer\youtube\tutorial\source\src\lsclient\ioshadowrangeritem.h
_DATA	SEGMENT
??_R0?AVioShadowRangerItem@@@8 DD FLAT:??_7type_info@@6B@ ; ioShadowRangerItem `RTTI Type Descriptor'
	DD	00H
	DB	'.?AVioShadowRangerItem@@', 00H
; Function compile flags: /Ogsp
_DATA	ENDS
;	COMDAT ?ToShadowRangerItem@@YAPAVioShadowRangerItem@@PAVioItem@@@Z
_TEXT	SEGMENT
_pItem$ = 8						; size = 4
?ToShadowRangerItem@@YAPAVioShadowRangerItem@@PAVioItem@@@Z PROC ; ToShadowRangerItem, COMDAT

; 254  : {

  00000	55		 push	 ebp
  00001	8b ec		 mov	 ebp, esp
  00003	56		 push	 esi

; 255  : 	ioWeaponItem *pWeapon = ToWeaponItem( pItem );

  00004	ff 75 08	 push	 DWORD PTR _pItem$[ebp]
  00007	e8 00 00 00 00	 call	 ?ToWeaponItem@@YAPAVioWeaponItem@@PAVioItem@@@Z ; ToWeaponItem
  0000c	8b f0		 mov	 esi, eax
  0000e	59		 pop	 ecx

; 256  : 	if( !pWeapon || pWeapon->GetSubType() != ioWeaponItem::WST_SHADOWRANGER_ITEM )

  0000f	85 f6		 test	 esi, esi
  00011	74 28		 je	 SHORT $LN1@ToShadowRa
  00013	8b 06		 mov	 eax, DWORD PTR [esi]
  00015	8b ce		 mov	 ecx, esi
  00017	ff 90 f0 02 00
	00		 call	 DWORD PTR [eax+752]
  0001d	83 f8 69	 cmp	 eax, 105		; 00000069H
  00020	75 19		 jne	 SHORT $LN1@ToShadowRa

; 258  : 
; 259  : 	return dynamic_cast< ioShadowRangerItem* >( pWeapon );

  00022	6a 00		 push	 0
  00024	68 00 00 00 00	 push	 OFFSET ??_R0?AVioShadowRangerItem@@@8
  00029	68 00 00 00 00	 push	 OFFSET ??_R0?AVioWeaponItem@@@8
  0002e	6a 00		 push	 0
  00030	56		 push	 esi
  00031	e8 00 00 00 00	 call	 ___RTDynamicCast
  00036	83 c4 14	 add	 esp, 20			; 00000014H
  00039	eb 02		 jmp	 SHORT $LN3@ToShadowRa
$LN1@ToShadowRa:

; 257  : 		return NULL;

  0003b	33 c0		 xor	 eax, eax
$LN3@ToShadowRa:
  0003d	5e		 pop	 esi

; 260  : }

  0003e	5d		 pop	 ebp
  0003f	c3		 ret	 0
?ToShadowRangerItem@@YAPAVioShadowRangerItem@@PAVioItem@@@Z ENDP ; ToShadowRangerItem
_TEXT	ENDS
PUBLIC	??_R0?AVioNataItem@@@8				; ioNataItem `RTTI Type Descriptor'
PUBLIC	?ToNataItem@@YAPAVioNataItem@@PAVioItem@@@Z	; ToNataItem
;	COMDAT ??_R0?AVioNataItem@@@8
; File d:\lost saga for developer\youtube\tutorial\source\src\lsclient\ionataitem.h
_DATA	SEGMENT
??_R0?AVioNataItem@@@8 DD FLAT:??_7type_info@@6B@	; ioNataItem `RTTI Type Descriptor'
	DD	00H
	DB	'.?AVioNataItem@@', 00H
; Function compile flags: /Ogsp
_DATA	ENDS
;	COMDAT ?ToNataItem@@YAPAVioNataItem@@PAVioItem@@@Z
_TEXT	SEGMENT
_pItem$ = 8						; size = 4
?ToNataItem@@YAPAVioNataItem@@PAVioItem@@@Z PROC	; ToNataItem, COMDAT

; 360  : {

  00000	55		 push	 ebp
  00001	8b ec		 mov	 ebp, esp
  00003	56		 push	 esi

; 361  : 	ioWeaponItem *pWeapon = ToWeaponItem( pItem );

  00004	ff 75 08	 push	 DWORD PTR _pItem$[ebp]
  00007	e8 00 00 00 00	 call	 ?ToWeaponItem@@YAPAVioWeaponItem@@PAVioItem@@@Z ; ToWeaponItem
  0000c	8b f0		 mov	 esi, eax
  0000e	59		 pop	 ecx

; 362  : 	if( !pWeapon || pWeapon->GetSubType() != ioWeaponItem::WST_NATA_ITEM )

  0000f	85 f6		 test	 esi, esi
  00011	74 28		 je	 SHORT $LN1@ToNataItem
  00013	8b 06		 mov	 eax, DWORD PTR [esi]
  00015	8b ce		 mov	 ecx, esi
  00017	ff 90 f0 02 00
	00		 call	 DWORD PTR [eax+752]
  0001d	83 f8 77	 cmp	 eax, 119		; 00000077H
  00020	75 19		 jne	 SHORT $LN1@ToNataItem

; 364  : 
; 365  : 	return dynamic_cast< ioNataItem* >( pWeapon );

  00022	6a 00		 push	 0
  00024	68 00 00 00 00	 push	 OFFSET ??_R0?AVioNataItem@@@8
  00029	68 00 00 00 00	 push	 OFFSET ??_R0?AVioWeaponItem@@@8
  0002e	6a 00		 push	 0
  00030	56		 push	 esi
  00031	e8 00 00 00 00	 call	 ___RTDynamicCast
  00036	83 c4 14	 add	 esp, 20			; 00000014H
  00039	eb 02		 jmp	 SHORT $LN3@ToNataItem
$LN1@ToNataItem:

; 363  : 		return NULL;

  0003b	33 c0		 xor	 eax, eax
$LN3@ToNataItem:
  0003d	5e		 pop	 esi

; 366  : }

  0003e	5d		 pop	 ebp
  0003f	c3		 ret	 0
?ToNataItem@@YAPAVioNataItem@@PAVioItem@@@Z ENDP	; ToNataItem
_TEXT	ENDS
PUBLIC	??_R0?AVioResearcher@@@8			; ioResearcher `RTTI Type Descriptor'
PUBLIC	?ToResearcher@@YAPAVioResearcher@@PAVioItem@@@Z	; ToResearcher
;	COMDAT ??_R0?AVioResearcher@@@8
; File d:\lost saga for developer\youtube\tutorial\source\src\lsclient\ioresearcher.h
_DATA	SEGMENT
??_R0?AVioResearcher@@@8 DD FLAT:??_7type_info@@6B@	; ioResearcher `RTTI Type Descriptor'
	DD	00H
	DB	'.?AVioResearcher@@', 00H
; Function compile flags: /Ogsp
_DATA	ENDS
;	COMDAT ?ToResearcher@@YAPAVioResearcher@@PAVioItem@@@Z
_TEXT	SEGMENT
_pItem$ = 8						; size = 4
?ToResearcher@@YAPAVioResearcher@@PAVioItem@@@Z PROC	; ToResearcher, COMDAT

; 279  : {

  00000	55		 push	 ebp
  00001	8b ec		 mov	 ebp, esp

; 280  : 	ioWeaponItem *pWeapon = ToWeaponItem( pItem );

  00003	ff 75 08	 push	 DWORD PTR _pItem$[ebp]
  00006	e8 00 00 00 00	 call	 ?ToWeaponItem@@YAPAVioWeaponItem@@PAVioItem@@@Z ; ToWeaponItem
  0000b	59		 pop	 ecx

; 281  : 	if( !pWeapon || pWeapon->GetSubType() != ioWeaponItem::WST_RESEARCHER )

  0000c	85 c0		 test	 eax, eax
  0000e	74 2a		 je	 SHORT $LN1@ToResearch
  00010	8b 10		 mov	 edx, DWORD PTR [eax]
  00012	8b c8		 mov	 ecx, eax
  00014	ff 92 f0 02 00
	00		 call	 DWORD PTR [edx+752]
  0001a	83 f8 7a	 cmp	 eax, 122		; 0000007aH
  0001d	75 1b		 jne	 SHORT $LN1@ToResearch

; 283  : 
; 284  : 	return dynamic_cast< ioResearcher* >( pItem );

  0001f	6a 00		 push	 0
  00021	68 00 00 00 00	 push	 OFFSET ??_R0?AVioResearcher@@@8
  00026	68 00 00 00 00	 push	 OFFSET ??_R0?AVioItem@@@8
  0002b	6a 00		 push	 0
  0002d	ff 75 08	 push	 DWORD PTR _pItem$[ebp]
  00030	e8 00 00 00 00	 call	 ___RTDynamicCast
  00035	83 c4 14	 add	 esp, 20			; 00000014H

; 285  : }

  00038	5d		 pop	 ebp
  00039	c3		 ret	 0
$LN1@ToResearch:

; 282  : 		return NULL;

  0003a	33 c0		 xor	 eax, eax

; 285  : }

  0003c	5d		 pop	 ebp
  0003d	c3		 ret	 0
?ToResearcher@@YAPAVioResearcher@@PAVioItem@@@Z ENDP	; ToResearcher
_TEXT	ENDS
PUBLIC	??_R0?AVioBullFightItem@@@8			; ioBullFightItem `RTTI Type Descriptor'
PUBLIC	?ToBullFightItem@@YAPAVioBullFightItem@@PAVioItem@@@Z ; ToBullFightItem
;	COMDAT ??_R0?AVioBullFightItem@@@8
; File d:\lost saga for developer\youtube\tutorial\source\src\lsclient\iobullfightitem.h
_DATA	SEGMENT
??_R0?AVioBullFightItem@@@8 DD FLAT:??_7type_info@@6B@	; ioBullFightItem `RTTI Type Descriptor'
	DD	00H
	DB	'.?AVioBullFightItem@@', 00H
; Function compile flags: /Ogsp
_DATA	ENDS
;	COMDAT ?ToBullFightItem@@YAPAVioBullFightItem@@PAVioItem@@@Z
_TEXT	SEGMENT
_pItem$ = 8						; size = 4
?ToBullFightItem@@YAPAVioBullFightItem@@PAVioItem@@@Z PROC ; ToBullFightItem, COMDAT

; 127  : {

  00000	55		 push	 ebp
  00001	8b ec		 mov	 ebp, esp

; 128  : 	ioWeaponItem *pWeapon = ToWeaponItem( pItem );

  00003	ff 75 08	 push	 DWORD PTR _pItem$[ebp]
  00006	e8 00 00 00 00	 call	 ?ToWeaponItem@@YAPAVioWeaponItem@@PAVioItem@@@Z ; ToWeaponItem
  0000b	59		 pop	 ecx

; 129  : 	if( !pWeapon || pWeapon->GetSubType() != ioWeaponItem::WST_BULLFIGHT_ITEM )

  0000c	85 c0		 test	 eax, eax
  0000e	74 2a		 je	 SHORT $LN1@ToBullFigh
  00010	8b 10		 mov	 edx, DWORD PTR [eax]
  00012	8b c8		 mov	 ecx, eax
  00014	ff 92 f0 02 00
	00		 call	 DWORD PTR [edx+752]
  0001a	83 f8 7d	 cmp	 eax, 125		; 0000007dH
  0001d	75 1b		 jne	 SHORT $LN1@ToBullFigh

; 131  : 
; 132  : 	return dynamic_cast< ioBullFightItem* >( pItem );

  0001f	6a 00		 push	 0
  00021	68 00 00 00 00	 push	 OFFSET ??_R0?AVioBullFightItem@@@8
  00026	68 00 00 00 00	 push	 OFFSET ??_R0?AVioItem@@@8
  0002b	6a 00		 push	 0
  0002d	ff 75 08	 push	 DWORD PTR _pItem$[ebp]
  00030	e8 00 00 00 00	 call	 ___RTDynamicCast
  00035	83 c4 14	 add	 esp, 20			; 00000014H

; 133  : }

  00038	5d		 pop	 ebp
  00039	c3		 ret	 0
$LN1@ToBullFigh:

; 130  : 		return NULL;

  0003a	33 c0		 xor	 eax, eax

; 133  : }

  0003c	5d		 pop	 ebp
  0003d	c3		 ret	 0
?ToBullFightItem@@YAPAVioBullFightItem@@PAVioItem@@@Z ENDP ; ToBullFightItem
_TEXT	ENDS
PUBLIC	??_R0?AVioChainMagicianItem@@@8			; ioChainMagicianItem `RTTI Type Descriptor'
PUBLIC	?ToChainMagicianItem@@YAPAVioChainMagicianItem@@PAVioItem@@@Z ; ToChainMagicianItem
;	COMDAT ??_R0?AVioChainMagicianItem@@@8
; File d:\lost saga for developer\youtube\tutorial\source\src\lsclient\iochainmagicianitem.h
_DATA	SEGMENT
??_R0?AVioChainMagicianItem@@@8 DD FLAT:??_7type_info@@6B@ ; ioChainMagicianItem `RTTI Type Descriptor'
	DD	00H
	DB	'.?AVioChainMagicianItem@@', 00H
; Function compile flags: /Ogsp
_DATA	ENDS
;	COMDAT ?ToChainMagicianItem@@YAPAVioChainMagicianItem@@PAVioItem@@@Z
_TEXT	SEGMENT
_pItem$ = 8						; size = 4
?ToChainMagicianItem@@YAPAVioChainMagicianItem@@PAVioItem@@@Z PROC ; ToChainMagicianItem, COMDAT

; 114  : {

  00000	55		 push	 ebp
  00001	8b ec		 mov	 ebp, esp
  00003	56		 push	 esi

; 115  : 	ioWeaponItem *pWeapon = ToWeaponItem( pItem );

  00004	ff 75 08	 push	 DWORD PTR _pItem$[ebp]
  00007	e8 00 00 00 00	 call	 ?ToWeaponItem@@YAPAVioWeaponItem@@PAVioItem@@@Z ; ToWeaponItem
  0000c	8b f0		 mov	 esi, eax
  0000e	59		 pop	 ecx

; 116  : 	if( !pWeapon || pWeapon->GetSubType() != ioWeaponItem::WST_CHAIN_MAGICIAN_ITEM )

  0000f	85 f6		 test	 esi, esi
  00011	74 2a		 je	 SHORT $LN1@ToChainMag
  00013	8b 06		 mov	 eax, DWORD PTR [esi]
  00015	8b ce		 mov	 ecx, esi
  00017	ff 90 f0 02 00
	00		 call	 DWORD PTR [eax+752]
  0001d	3d 81 00 00 00	 cmp	 eax, 129		; 00000081H
  00022	75 19		 jne	 SHORT $LN1@ToChainMag

; 118  : 
; 119  : 	return dynamic_cast< ioChainMagicianItem* >( pWeapon );

  00024	6a 00		 push	 0
  00026	68 00 00 00 00	 push	 OFFSET ??_R0?AVioChainMagicianItem@@@8
  0002b	68 00 00 00 00	 push	 OFFSET ??_R0?AVioWeaponItem@@@8
  00030	6a 00		 push	 0
  00032	56		 push	 esi
  00033	e8 00 00 00 00	 call	 ___RTDynamicCast
  00038	83 c4 14	 add	 esp, 20			; 00000014H
  0003b	eb 02		 jmp	 SHORT $LN3@ToChainMag
$LN1@ToChainMag:

; 117  : 		return NULL;

  0003d	33 c0		 xor	 eax, eax
$LN3@ToChainMag:
  0003f	5e		 pop	 esi

; 120  : }

  00040	5d		 pop	 ebp
  00041	c3		 ret	 0
?ToChainMagicianItem@@YAPAVioChainMagicianItem@@PAVioItem@@@Z ENDP ; ToChainMagicianItem
_TEXT	ENDS
PUBLIC	??_R0?AVioStriderItem@@@8			; ioStriderItem `RTTI Type Descriptor'
PUBLIC	?ToStriderItem@@YAPAVioStriderItem@@PAVioItem@@@Z ; ToStriderItem
;	COMDAT ??_R0?AVioStriderItem@@@8
; File d:\lost saga for developer\youtube\tutorial\source\src\lsclient\iostrideritem.h
_DATA	SEGMENT
??_R0?AVioStriderItem@@@8 DD FLAT:??_7type_info@@6B@	; ioStriderItem `RTTI Type Descriptor'
	DD	00H
	DB	'.?AVioStriderItem@@', 00H
; Function compile flags: /Ogsp
_DATA	ENDS
;	COMDAT ?ToStriderItem@@YAPAVioStriderItem@@PAVioItem@@@Z
_TEXT	SEGMENT
_pItem$ = 8						; size = 4
?ToStriderItem@@YAPAVioStriderItem@@PAVioItem@@@Z PROC	; ToStriderItem, COMDAT

; 251  : {

  00000	55		 push	 ebp
  00001	8b ec		 mov	 ebp, esp

; 252  : 	ioWeaponItem *pWeapon = ToWeaponItem( pItem );

  00003	ff 75 08	 push	 DWORD PTR _pItem$[ebp]
  00006	e8 00 00 00 00	 call	 ?ToWeaponItem@@YAPAVioWeaponItem@@PAVioItem@@@Z ; ToWeaponItem
  0000b	59		 pop	 ecx

; 253  : 	if( !pWeapon || pWeapon->GetSubType() != ioWeaponItem::WST_STRIDER_ITEM )

  0000c	85 c0		 test	 eax, eax
  0000e	74 2c		 je	 SHORT $LN1@ToStriderI@2
  00010	8b 10		 mov	 edx, DWORD PTR [eax]
  00012	8b c8		 mov	 ecx, eax
  00014	ff 92 f0 02 00
	00		 call	 DWORD PTR [edx+752]
  0001a	3d 84 00 00 00	 cmp	 eax, 132		; 00000084H
  0001f	75 1b		 jne	 SHORT $LN1@ToStriderI@2

; 255  : 
; 256  : 	return dynamic_cast< ioStriderItem* >( pItem );

  00021	6a 00		 push	 0
  00023	68 00 00 00 00	 push	 OFFSET ??_R0?AVioStriderItem@@@8
  00028	68 00 00 00 00	 push	 OFFSET ??_R0?AVioItem@@@8
  0002d	6a 00		 push	 0
  0002f	ff 75 08	 push	 DWORD PTR _pItem$[ebp]
  00032	e8 00 00 00 00	 call	 ___RTDynamicCast
  00037	83 c4 14	 add	 esp, 20			; 00000014H

; 257  : }

  0003a	5d		 pop	 ebp
  0003b	c3		 ret	 0
$LN1@ToStriderI@2:

; 254  : 		return NULL;

  0003c	33 c0		 xor	 eax, eax

; 257  : }

  0003e	5d		 pop	 ebp
  0003f	c3		 ret	 0
?ToStriderItem@@YAPAVioStriderItem@@PAVioItem@@@Z ENDP	; ToStriderItem
_TEXT	ENDS
PUBLIC	??_R0?AVioCuchulainItem@@@8			; ioCuchulainItem `RTTI Type Descriptor'
PUBLIC	?ToCuchulainWeaponItem@@YAPAVioCuchulainItem@@PAVioItem@@@Z ; ToCuchulainWeaponItem
;	COMDAT ??_R0?AVioCuchulainItem@@@8
; File d:\lost saga for developer\youtube\tutorial\source\src\lsclient\iocuchulainitem.h
_DATA	SEGMENT
??_R0?AVioCuchulainItem@@@8 DD FLAT:??_7type_info@@6B@	; ioCuchulainItem `RTTI Type Descriptor'
	DD	00H
	DB	'.?AVioCuchulainItem@@', 00H
; Function compile flags: /Ogsp
_DATA	ENDS
;	COMDAT ?ToCuchulainWeaponItem@@YAPAVioCuchulainItem@@PAVioItem@@@Z
_TEXT	SEGMENT
_pItem$ = 8						; size = 4
?ToCuchulainWeaponItem@@YAPAVioCuchulainItem@@PAVioItem@@@Z PROC ; ToCuchulainWeaponItem, COMDAT

; 169  : {

  00000	55		 push	 ebp
  00001	8b ec		 mov	 ebp, esp

; 170  : 	ioWeaponItem *pWeapon = ToWeaponItem( pItem );

  00003	ff 75 08	 push	 DWORD PTR _pItem$[ebp]
  00006	e8 00 00 00 00	 call	 ?ToWeaponItem@@YAPAVioWeaponItem@@PAVioItem@@@Z ; ToWeaponItem
  0000b	59		 pop	 ecx

; 171  : 	if( !pWeapon || pWeapon->GetSubType() != ioWeaponItem::WST_CUCHULAIN_ITEM )

  0000c	85 c0		 test	 eax, eax
  0000e	74 2c		 je	 SHORT $LN1@ToCuchulai
  00010	8b 10		 mov	 edx, DWORD PTR [eax]
  00012	8b c8		 mov	 ecx, eax
  00014	ff 92 f0 02 00
	00		 call	 DWORD PTR [edx+752]
  0001a	3d 8b 00 00 00	 cmp	 eax, 139		; 0000008bH
  0001f	75 1b		 jne	 SHORT $LN1@ToCuchulai

; 173  : 
; 174  : 	return dynamic_cast< ioCuchulainItem* >( pItem );

  00021	6a 00		 push	 0
  00023	68 00 00 00 00	 push	 OFFSET ??_R0?AVioCuchulainItem@@@8
  00028	68 00 00 00 00	 push	 OFFSET ??_R0?AVioItem@@@8
  0002d	6a 00		 push	 0
  0002f	ff 75 08	 push	 DWORD PTR _pItem$[ebp]
  00032	e8 00 00 00 00	 call	 ___RTDynamicCast
  00037	83 c4 14	 add	 esp, 20			; 00000014H

; 175  : }

  0003a	5d		 pop	 ebp
  0003b	c3		 ret	 0
$LN1@ToCuchulai:

; 172  : 		return NULL;

  0003c	33 c0		 xor	 eax, eax

; 175  : }

  0003e	5d		 pop	 ebp
  0003f	c3		 ret	 0
?ToCuchulainWeaponItem@@YAPAVioCuchulainItem@@PAVioItem@@@Z ENDP ; ToCuchulainWeaponItem
_TEXT	ENDS
PUBLIC	??_R0?AVioOniMushaItem@@@8			; ioOniMushaItem `RTTI Type Descriptor'
PUBLIC	?ToOniMushaItem@@YAPAVioOniMushaItem@@PAVioItem@@@Z ; ToOniMushaItem
;	COMDAT ??_R0?AVioOniMushaItem@@@8
; File d:\lost saga for developer\youtube\tutorial\source\src\lsclient\ioonimushaitem.h
_DATA	SEGMENT
??_R0?AVioOniMushaItem@@@8 DD FLAT:??_7type_info@@6B@	; ioOniMushaItem `RTTI Type Descriptor'
	DD	00H
	DB	'.?AVioOniMushaItem@@', 00H
; Function compile flags: /Ogsp
_DATA	ENDS
;	COMDAT ?ToOniMushaItem@@YAPAVioOniMushaItem@@PAVioItem@@@Z
_TEXT	SEGMENT
_pItem$ = 8						; size = 4
?ToOniMushaItem@@YAPAVioOniMushaItem@@PAVioItem@@@Z PROC ; ToOniMushaItem, COMDAT

; 203  : {

  00000	55		 push	 ebp
  00001	8b ec		 mov	 ebp, esp

; 204  : 	ioWeaponItem *pWeapon = ToWeaponItem( pItem );

  00003	ff 75 08	 push	 DWORD PTR _pItem$[ebp]
  00006	e8 00 00 00 00	 call	 ?ToWeaponItem@@YAPAVioWeaponItem@@PAVioItem@@@Z ; ToWeaponItem
  0000b	59		 pop	 ecx

; 205  : 	if( !pWeapon || pWeapon->GetSubType() != ioWeaponItem::WST_ONIMUSHA_ITEM )

  0000c	85 c0		 test	 eax, eax
  0000e	74 2c		 je	 SHORT $LN1@ToOniMusha
  00010	8b 10		 mov	 edx, DWORD PTR [eax]
  00012	8b c8		 mov	 ecx, eax
  00014	ff 92 f0 02 00
	00		 call	 DWORD PTR [edx+752]
  0001a	3d 8d 00 00 00	 cmp	 eax, 141		; 0000008dH
  0001f	75 1b		 jne	 SHORT $LN1@ToOniMusha

; 207  : 
; 208  : 	return dynamic_cast< ioOniMushaItem* >( pItem );

  00021	6a 00		 push	 0
  00023	68 00 00 00 00	 push	 OFFSET ??_R0?AVioOniMushaItem@@@8
  00028	68 00 00 00 00	 push	 OFFSET ??_R0?AVioItem@@@8
  0002d	6a 00		 push	 0
  0002f	ff 75 08	 push	 DWORD PTR _pItem$[ebp]
  00032	e8 00 00 00 00	 call	 ___RTDynamicCast
  00037	83 c4 14	 add	 esp, 20			; 00000014H

; 209  : }

  0003a	5d		 pop	 ebp
  0003b	c3		 ret	 0
$LN1@ToOniMusha:

; 206  : 		return NULL;

  0003c	33 c0		 xor	 eax, eax

; 209  : }

  0003e	5d		 pop	 ebp
  0003f	c3		 ret	 0
?ToOniMushaItem@@YAPAVioOniMushaItem@@PAVioItem@@@Z ENDP ; ToOniMushaItem
_TEXT	ENDS
PUBLIC	??_R0?AVioWestGunExtendItem@@@8			; ioWestGunExtendItem `RTTI Type Descriptor'
PUBLIC	?ToWestGunExtendItem@@YAPAVioWestGunExtendItem@@PAVioItem@@@Z ; ToWestGunExtendItem
;	COMDAT ??_R0?AVioWestGunExtendItem@@@8
; File d:\lost saga for developer\youtube\tutorial\source\src\lsclient\iowestgunextenditem.h
_DATA	SEGMENT
??_R0?AVioWestGunExtendItem@@@8 DD FLAT:??_7type_info@@6B@ ; ioWestGunExtendItem `RTTI Type Descriptor'
	DD	00H
	DB	'.?AVioWestGunExtendItem@@', 00H
; Function compile flags: /Ogsp
_DATA	ENDS
;	COMDAT ?ToWestGunExtendItem@@YAPAVioWestGunExtendItem@@PAVioItem@@@Z
_TEXT	SEGMENT
_pItem$ = 8						; size = 4
?ToWestGunExtendItem@@YAPAVioWestGunExtendItem@@PAVioItem@@@Z PROC ; ToWestGunExtendItem, COMDAT

; 445  : {

  00000	55		 push	 ebp
  00001	8b ec		 mov	 ebp, esp
  00003	56		 push	 esi

; 446  : 	ioWeaponItem *pWeapon = ToWeaponItem( pItem );

  00004	ff 75 08	 push	 DWORD PTR _pItem$[ebp]
  00007	e8 00 00 00 00	 call	 ?ToWeaponItem@@YAPAVioWeaponItem@@PAVioItem@@@Z ; ToWeaponItem
  0000c	8b f0		 mov	 esi, eax
  0000e	59		 pop	 ecx

; 447  : 	if( !pWeapon || pWeapon->GetSubType() != ioWeaponItem::WST_WESTGUN_EXTEND_ITEM )

  0000f	85 f6		 test	 esi, esi
  00011	74 2a		 je	 SHORT $LN1@ToWestGunE
  00013	8b 06		 mov	 eax, DWORD PTR [esi]
  00015	8b ce		 mov	 ecx, esi
  00017	ff 90 f0 02 00
	00		 call	 DWORD PTR [eax+752]
  0001d	3d 8e 00 00 00	 cmp	 eax, 142		; 0000008eH
  00022	75 19		 jne	 SHORT $LN1@ToWestGunE

; 449  : 
; 450  : 	return dynamic_cast< ioWestGunExtendItem* >( pWeapon );

  00024	6a 00		 push	 0
  00026	68 00 00 00 00	 push	 OFFSET ??_R0?AVioWestGunExtendItem@@@8
  0002b	68 00 00 00 00	 push	 OFFSET ??_R0?AVioWeaponItem@@@8
  00030	6a 00		 push	 0
  00032	56		 push	 esi
  00033	e8 00 00 00 00	 call	 ___RTDynamicCast
  00038	83 c4 14	 add	 esp, 20			; 00000014H
  0003b	eb 02		 jmp	 SHORT $LN3@ToWestGunE
$LN1@ToWestGunE:

; 448  : 		return NULL;

  0003d	33 c0		 xor	 eax, eax
$LN3@ToWestGunE:
  0003f	5e		 pop	 esi

; 451  : }

  00040	5d		 pop	 ebp
  00041	c3		 ret	 0
?ToWestGunExtendItem@@YAPAVioWestGunExtendItem@@PAVioItem@@@Z ENDP ; ToWestGunExtendItem
_TEXT	ENDS
PUBLIC	??_R0?AVioSasinmuItem@@@8			; ioSasinmuItem `RTTI Type Descriptor'
PUBLIC	?ToSasinmuItem@@YAPAVioSasinmuItem@@PAVioItem@@@Z ; ToSasinmuItem
;	COMDAT ??_R0?AVioSasinmuItem@@@8
; File d:\lost saga for developer\youtube\tutorial\source\src\lsclient\iosasinmuitem.h
_DATA	SEGMENT
??_R0?AVioSasinmuItem@@@8 DD FLAT:??_7type_info@@6B@	; ioSasinmuItem `RTTI Type Descriptor'
	DD	00H
	DB	'.?AVioSasinmuItem@@', 00H
; Function compile flags: /Ogsp
_DATA	ENDS
;	COMDAT ?ToSasinmuItem@@YAPAVioSasinmuItem@@PAVioItem@@@Z
_TEXT	SEGMENT
_pItem$ = 8						; size = 4
?ToSasinmuItem@@YAPAVioSasinmuItem@@PAVioItem@@@Z PROC	; ToSasinmuItem, COMDAT

; 261  : {

  00000	55		 push	 ebp
  00001	8b ec		 mov	 ebp, esp

; 262  : 	ioWeaponItem *pWeapon = ToWeaponItem( pItem );

  00003	ff 75 08	 push	 DWORD PTR _pItem$[ebp]
  00006	e8 00 00 00 00	 call	 ?ToWeaponItem@@YAPAVioWeaponItem@@PAVioItem@@@Z ; ToWeaponItem
  0000b	59		 pop	 ecx

; 263  : 	if( !pWeapon || pWeapon->GetSubType() != ioWeaponItem::WST_SASINMU )

  0000c	85 c0		 test	 eax, eax
  0000e	74 2c		 je	 SHORT $LN1@ToSasinmuI
  00010	8b 10		 mov	 edx, DWORD PTR [eax]
  00012	8b c8		 mov	 ecx, eax
  00014	ff 92 f0 02 00
	00		 call	 DWORD PTR [edx+752]
  0001a	3d 90 00 00 00	 cmp	 eax, 144		; 00000090H
  0001f	75 1b		 jne	 SHORT $LN1@ToSasinmuI

; 265  : 
; 266  : 	return dynamic_cast< ioSasinmuItem* >( pItem );

  00021	6a 00		 push	 0
  00023	68 00 00 00 00	 push	 OFFSET ??_R0?AVioSasinmuItem@@@8
  00028	68 00 00 00 00	 push	 OFFSET ??_R0?AVioItem@@@8
  0002d	6a 00		 push	 0
  0002f	ff 75 08	 push	 DWORD PTR _pItem$[ebp]
  00032	e8 00 00 00 00	 call	 ___RTDynamicCast
  00037	83 c4 14	 add	 esp, 20			; 00000014H

; 267  : }

  0003a	5d		 pop	 ebp
  0003b	c3		 ret	 0
$LN1@ToSasinmuI:

; 264  : 		return NULL;

  0003c	33 c0		 xor	 eax, eax

; 267  : }

  0003e	5d		 pop	 ebp
  0003f	c3		 ret	 0
?ToSasinmuItem@@YAPAVioSasinmuItem@@PAVioItem@@@Z ENDP	; ToSasinmuItem
_TEXT	ENDS
PUBLIC	??_R0?AVioPredatorItem@@@8			; ioPredatorItem `RTTI Type Descriptor'
PUBLIC	?ToPredatorItem@@YAPAVioPredatorItem@@PAVioItem@@@Z ; ToPredatorItem
;	COMDAT ??_R0?AVioPredatorItem@@@8
; File d:\lost saga for developer\youtube\tutorial\source\src\lsclient\iopredatoritem.h
_DATA	SEGMENT
??_R0?AVioPredatorItem@@@8 DD FLAT:??_7type_info@@6B@	; ioPredatorItem `RTTI Type Descriptor'
	DD	00H
	DB	'.?AVioPredatorItem@@', 00H
; Function compile flags: /Ogsp
_DATA	ENDS
;	COMDAT ?ToPredatorItem@@YAPAVioPredatorItem@@PAVioItem@@@Z
_TEXT	SEGMENT
_pItem$ = 8						; size = 4
?ToPredatorItem@@YAPAVioPredatorItem@@PAVioItem@@@Z PROC ; ToPredatorItem, COMDAT

; 250  : {

  00000	55		 push	 ebp
  00001	8b ec		 mov	 ebp, esp

; 251  : 	ioWeaponItem *pWeapon = ToWeaponItem( pItem );

  00003	ff 75 08	 push	 DWORD PTR _pItem$[ebp]
  00006	e8 00 00 00 00	 call	 ?ToWeaponItem@@YAPAVioWeaponItem@@PAVioItem@@@Z ; ToWeaponItem
  0000b	59		 pop	 ecx

; 252  : 	if( !pWeapon || pWeapon->GetSubType() != ioWeaponItem::WST_PREDATOR_ITEM )

  0000c	85 c0		 test	 eax, eax
  0000e	74 2c		 je	 SHORT $LN1@ToPredator
  00010	8b 10		 mov	 edx, DWORD PTR [eax]
  00012	8b c8		 mov	 ecx, eax
  00014	ff 92 f0 02 00
	00		 call	 DWORD PTR [edx+752]
  0001a	3d 92 00 00 00	 cmp	 eax, 146		; 00000092H
  0001f	75 1b		 jne	 SHORT $LN1@ToPredator

; 254  : 
; 255  : 	return dynamic_cast< ioPredatorItem* >( pItem );

  00021	6a 00		 push	 0
  00023	68 00 00 00 00	 push	 OFFSET ??_R0?AVioPredatorItem@@@8
  00028	68 00 00 00 00	 push	 OFFSET ??_R0?AVioItem@@@8
  0002d	6a 00		 push	 0
  0002f	ff 75 08	 push	 DWORD PTR _pItem$[ebp]
  00032	e8 00 00 00 00	 call	 ___RTDynamicCast
  00037	83 c4 14	 add	 esp, 20			; 00000014H

; 256  : }

  0003a	5d		 pop	 ebp
  0003b	c3		 ret	 0
$LN1@ToPredator:

; 253  : 		return NULL;

  0003c	33 c0		 xor	 eax, eax

; 256  : }

  0003e	5d		 pop	 ebp
  0003f	c3		 ret	 0
?ToPredatorItem@@YAPAVioPredatorItem@@PAVioItem@@@Z ENDP ; ToPredatorItem
; Function compile flags: /Ogsp
_TEXT	ENDS
;	COMDAT ??_GSoldierExerciseBtn@@UAEPAXI@Z
_TEXT	SEGMENT
___flags$ = 8						; size = 4
??_GSoldierExerciseBtn@@UAEPAXI@Z PROC			; SoldierExerciseBtn::`scalar deleting destructor', COMDAT
; _this$ = ecx
  00000	55		 push	 ebp
  00001	8b ec		 mov	 ebp, esp
  00003	56		 push	 esi
  00004	8b f1		 mov	 esi, ecx
  00006	e8 00 00 00 00	 call	 ??1SoldierExerciseBtn@@UAE@XZ ; SoldierExerciseBtn::~SoldierExerciseBtn
  0000b	f6 45 08 01	 test	 BYTE PTR ___flags$[ebp], 1
  0000f	74 07		 je	 SHORT $LN1@scalar@2
  00011	56		 push	 esi
  00012	e8 00 00 00 00	 call	 ??3@YAXPAX@Z		; operator delete
  00017	59		 pop	 ecx
$LN1@scalar@2:
  00018	8b c6		 mov	 eax, esi
  0001a	5e		 pop	 esi
  0001b	5d		 pop	 ebp
  0001c	c2 04 00	 ret	 4
??_GSoldierExerciseBtn@@UAEPAXI@Z ENDP			; SoldierExerciseBtn::`scalar deleting destructor'
_TEXT	ENDS
PUBLIC	?UpdateAniState@SoldierExerciseBtn@@IAEXXZ	; SoldierExerciseBtn::UpdateAniState
EXTRN	?ChangeState@FSMStateMgr@@QAEHH@Z:PROC		; FSMStateMgr::ChangeState
EXTRN	?IsShowExerciseStep@ioTutorialManager@@QAE_NXZ:PROC ; ioTutorialManager::IsShowExerciseStep
EXTRN	?UpdateTime@FSMStateMgr@@QAEXXZ:PROC		; FSMStateMgr::UpdateTime
EXTRN	?IsTutorial@ioTutorialManager@@QAE_NXZ:PROC	; ioTutorialManager::IsTutorial
EXTRN	?GetSingleton@ioTutorialManager@@SAAAV1@XZ:PROC	; ioTutorialManager::GetSingleton
; Function compile flags: /Ogsp
; File d:\lost saga for developer\youtube\tutorial\source\src\lsclient\gui\soldierexercisewnd.cpp
;	COMDAT ?UpdateAniState@SoldierExerciseBtn@@IAEXXZ
_TEXT	SEGMENT
?UpdateAniState@SoldierExerciseBtn@@IAEXXZ PROC		; SoldierExerciseBtn::UpdateAniState, COMDAT
; _this$ = ecx

; 583  : {

  00000	53		 push	 ebx
  00001	56		 push	 esi
  00002	8b f1		 mov	 esi, ecx

; 584  : 	if( !m_bArrow ) return;

  00004	33 db		 xor	 ebx, ebx
  00006	38 9e 10 02 00
	00		 cmp	 BYTE PTR [esi+528], bl
  0000c	74 74		 je	 SHORT $LN1@UpdateAniS

; 585  : 	if( m_eBoughtType != SBT_NONE ) return;

  0000e	39 9e 00 02 00
	00		 cmp	 DWORD PTR [esi+512], ebx
  00014	75 6c		 jne	 SHORT $LN1@UpdateAniS

; 586  : 	if( !g_TutorialMgr.IsTutorial() ) 

  00016	e8 00 00 00 00	 call	 ?GetSingleton@ioTutorialManager@@SAAAV1@XZ ; ioTutorialManager::GetSingleton
  0001b	8b c8		 mov	 ecx, eax
  0001d	e8 00 00 00 00	 call	 ?IsTutorial@ioTutorialManager@@QAE_NXZ ; ioTutorialManager::IsTutorial
  00022	84 c0		 test	 al, al
  00024	75 16		 jne	 SHORT $LN4@UpdateAniS

; 587  : 	{
; 588  : 		if( m_AniState.GetCurState() != AT_NONE )

  00026	39 9e 20 02 00
	00		 cmp	 DWORD PTR [esi+544], ebx
  0002c	74 54		 je	 SHORT $LN1@UpdateAniS

; 589  : 			m_AniState.SetCurState( AT_NONE );

  0002e	53		 push	 ebx
  0002f	8d 8e 1c 02 00
	00		 lea	 ecx, DWORD PTR [esi+540]
  00035	e8 00 00 00 00	 call	 ?SetCurState@FSMStateMgr@@QAEXH@Z ; FSMStateMgr::SetCurState

; 590  : 		return;

  0003a	eb 46		 jmp	 SHORT $LN1@UpdateAniS
$LN4@UpdateAniS:
  0003c	57		 push	 edi

; 591  : 	}
; 592  : 
; 593  : 	m_AniState.UpdateTime();

  0003d	8d 8e 1c 02 00
	00		 lea	 ecx, DWORD PTR [esi+540]
  00043	e8 00 00 00 00	 call	 ?UpdateTime@FSMStateMgr@@QAEXXZ ; FSMStateMgr::UpdateTime

; 594  : 
; 595  : 	if( g_TutorialMgr.IsShowExerciseStep() && !HasWndStyle( IWS_INACTIVE ) )

  00048	e8 00 00 00 00	 call	 ?GetSingleton@ioTutorialManager@@SAAAV1@XZ ; ioTutorialManager::GetSingleton
  0004d	8b c8		 mov	 ecx, eax
  0004f	e8 00 00 00 00	 call	 ?IsShowExerciseStep@ioTutorialManager@@QAE_NXZ ; ioTutorialManager::IsShowExerciseStep
  00054	84 c0		 test	 al, al
  00056	74 1d		 je	 SHORT $LN2@UpdateAniS
  00058	6a 02		 push	 2
  0005a	8b ce		 mov	 ecx, esi
  0005c	ff 15 00 00 00
	00		 call	 DWORD PTR __imp_?HasWndStyle@ioWnd@@QBE_NK@Z
  00062	84 c0		 test	 al, al
  00064	75 0f		 jne	 SHORT $LN2@UpdateAniS

; 596  : 		m_AniState.ChangeState( AT_START_DOWN );

  00066	6a 01		 push	 1
  00068	8d 8e 1c 02 00
	00		 lea	 ecx, DWORD PTR [esi+540]
  0006e	e8 00 00 00 00	 call	 ?ChangeState@FSMStateMgr@@QAEHH@Z ; FSMStateMgr::ChangeState

; 597  : 	else

  00073	eb 0c		 jmp	 SHORT $LN11@UpdateAniS
$LN2@UpdateAniS:

; 598  : 		m_AniState.SetCurState( AT_NONE );

  00075	53		 push	 ebx
  00076	8d 8e 1c 02 00
	00		 lea	 ecx, DWORD PTR [esi+540]
  0007c	e8 00 00 00 00	 call	 ?SetCurState@FSMStateMgr@@QAEXH@Z ; FSMStateMgr::SetCurState
$LN11@UpdateAniS:
  00081	5f		 pop	 edi
$LN1@UpdateAniS:
  00082	5e		 pop	 esi
  00083	5b		 pop	 ebx

; 599  : }

  00084	c3		 ret	 0
?UpdateAniState@SoldierExerciseBtn@@IAEXXZ ENDP		; SoldierExerciseBtn::UpdateAniState
_TEXT	ENDS
PUBLIC	__real@4066000000000000
PUBLIC	__real@405c800000000000
PUBLIC	__real@406fe00000000000
PUBLIC	?RenderArrow@SoldierExerciseBtn@@IAEXHH@Z	; SoldierExerciseBtn::RenderArrow
EXTRN	__ftol2_sse:PROC
EXTRN	__ftol2:PROC
;	COMDAT __real@4066000000000000
; File c:\program files (x86)\microsoft visual studio 10.0\vc\include\math.h
CONST	SEGMENT
__real@4066000000000000 DQ 04066000000000000r	; 176
CONST	ENDS
;	COMDAT __real@405c800000000000
CONST	SEGMENT
__real@405c800000000000 DQ 0405c800000000000r	; 114
CONST	ENDS
;	COMDAT __real@406fe00000000000
CONST	SEGMENT
__real@406fe00000000000 DQ 0406fe00000000000r	; 255
; Function compile flags: /Ogsp
; File d:\lost saga for developer\youtube\tutorial\source\src\lsclient\gui\soldierexercisewnd.cpp
CONST	ENDS
;	COMDAT ?RenderArrow@SoldierExerciseBtn@@IAEXHH@Z
_TEXT	SEGMENT
tv826 = -8						; size = 4
tv811 = -8						; size = 4
tv807 = -8						; size = 4
tv798 = -8						; size = 4
tv794 = -8						; size = 4
tv786 = -8						; size = 4
tv756 = -8						; size = 4
tv751 = -8						; size = 4
tv742 = -8						; size = 4
tv738 = -8						; size = 4
tv729 = -8						; size = 4
tv852 = -4						; size = 4
tv834 = -4						; size = 4
tv803 = -4						; size = 4
tv790 = -4						; size = 4
tv782 = -4						; size = 4
tv775 = -4						; size = 4
tv747 = -4						; size = 4
tv734 = -4						; size = 4
tv724 = -4						; size = 4
tv718 = -4						; size = 4
_iYOffSet$548485 = -4					; size = 4
_fRate$548469 = -4					; size = 4
_fRate$548458 = -4					; size = 4
_iXPos$ = 8						; size = 4
_iYPos$ = 12						; size = 4
?RenderArrow@SoldierExerciseBtn@@IAEXHH@Z PROC		; SoldierExerciseBtn::RenderArrow, COMDAT
; _this$ = ecx

; 602  : {

  00000	55		 push	 ebp
  00001	8b ec		 mov	 ebp, esp
  00003	51		 push	 ecx
  00004	51		 push	 ecx
  00005	53		 push	 ebx
  00006	56		 push	 esi
  00007	8b f1		 mov	 esi, ecx

; 603  : 	if( !m_pArrow ) return;

  00009	33 db		 xor	 ebx, ebx
  0000b	39 9e 18 02 00
	00		 cmp	 DWORD PTR [esi+536], ebx
  00011	0f 84 69 03 00
	00		 je	 $LN12@RenderArro

; 604  : 	if( m_eBoughtType != SBT_NONE ) return;

  00017	39 9e 00 02 00
	00		 cmp	 DWORD PTR [esi+512], ebx
  0001d	0f 85 5d 03 00
	00		 jne	 $LN12@RenderArro

; 605  : 	if( m_AniState.GetCurState() == AT_NONE || m_AniState.GetCurState() == AT_MOUSE_OVER ) return;

  00023	8b 86 20 02 00
	00		 mov	 eax, DWORD PTR [esi+544]
  00029	3b c3		 cmp	 eax, ebx
  0002b	0f 84 4f 03 00
	00		 je	 $LN12@RenderArro
  00031	83 f8 07	 cmp	 eax, 7
  00034	0f 84 46 03 00
	00		 je	 $LN12@RenderArro

; 606  : 
; 607  : 	enum { X_OFFSET = -5, Y_OFFSET_DOWN = -48, Y_OFFSET_UP = -54,};
; 608  : 
; 609  : 	if( m_AniState.GetCurState() == AT_START_DOWN )

  0003a	57		 push	 edi
  0003b	83 f8 01	 cmp	 eax, 1
  0003e	75 79		 jne	 SHORT $LN11@RenderArro

; 610  : 	{
; 611  : 		enum { HEIGHT_DOWN = 114, START_Y_OFFSET = -176, };
; 612  : 
; 613  : 		float fRate = ( (float) m_AniState.GetCurTime() / (float) m_AniState.GetDelay() );

  00040	8b 86 28 02 00
	00		 mov	 eax, DWORD PTR [esi+552]
  00046	db 86 28 02 00
	00		 fild	 DWORD PTR [esi+552]
  0004c	85 c0		 test	 eax, eax
  0004e	79 06		 jns	 SHORT $LN77@RenderArro
  00050	d8 05 00 00 00
	00		 fadd	 DWORD PTR __real@4f800000
$LN77@RenderArro:
  00056	da b6 2c 02 00
	00		 fidiv	 DWORD PTR [esi+556]

; 614  : 		int iYOffSet = START_Y_OFFSET + ( fRate * HEIGHT_DOWN );
; 615  : 
; 616  : 		m_pArrow->SetAlpha((BYTE) 255.0f * fRate );

  0005c	8b 8e 18 02 00
	00		 mov	 ecx, DWORD PTR [esi+536]
  00062	8b 01		 mov	 eax, DWORD PTR [ecx]
  00064	d9 5d fc	 fstp	 DWORD PTR _fRate$548458[ebp]
  00067	f3 0f 10 45 fc	 movss	 xmm0, DWORD PTR _fRate$548458[ebp]
  0006c	0f 5a c0	 cvtps2pd xmm0, xmm0
  0006f	f2 0f 59 05 00
	00 00 00	 mulsd	 xmm0, QWORD PTR __real@406fe00000000000
  00077	f2 0f 2c d0	 cvttsd2si edx, xmm0
  0007b	0f b6 d2	 movzx	 edx, dl
  0007e	52		 push	 edx
  0007f	ff 50 30	 call	 DWORD PTR [eax+48]

; 617  : 		m_pArrow->SetColor( 255, 255, 255 );

  00082	8b 8e 18 02 00
	00		 mov	 ecx, DWORD PTR [esi+536]
  00088	8b 01		 mov	 eax, DWORD PTR [ecx]
  0008a	bf ff 00 00 00	 mov	 edi, 255		; 000000ffH
  0008f	57		 push	 edi
  00090	57		 push	 edi
  00091	57		 push	 edi
  00092	ff 50 28	 call	 DWORD PTR [eax+40]

; 618  : 		m_pArrow->Render( iXPos + X_OFFSET, iYPos + iYOffSet, UI_RENDER_NORMAL, TFO_BILINEAR );

  00095	f3 0f 10 45 fc	 movss	 xmm0, DWORD PTR _fRate$548458[ebp]
  0009a	0f 5a c0	 cvtps2pd xmm0, xmm0
  0009d	f2 0f 59 05 00
	00 00 00	 mulsd	 xmm0, QWORD PTR __real@405c800000000000
  000a5	f2 0f 5c 05 00
	00 00 00	 subsd	 xmm0, QWORD PTR __real@4066000000000000
  000ad	f2 0f 2c d0	 cvttsd2si edx, xmm0
  000b1	03 55 0c	 add	 edx, DWORD PTR _iYPos$[ebp]
  000b4	e9 96 02 00 00	 jmp	 $LN90@RenderArro
$LN11@RenderArro:

; 619  : 	}
; 620  : 	else if( m_AniState.GetCurState() == AT_START_UP )

  000b9	83 f8 02	 cmp	 eax, 2
  000bc	75 2a		 jne	 SHORT $LN9@RenderArro

; 621  : 	{
; 622  : 		m_pArrow->SetAlpha( 255 );

  000be	8b 8e 18 02 00
	00		 mov	 ecx, DWORD PTR [esi+536]
  000c4	8b 01		 mov	 eax, DWORD PTR [ecx]
  000c6	bf ff 00 00 00	 mov	 edi, 255		; 000000ffH
  000cb	57		 push	 edi
  000cc	ff 50 30	 call	 DWORD PTR [eax+48]

; 623  : 		m_pArrow->SetColor( 255, 255, 255 );

  000cf	8b 8e 18 02 00
	00		 mov	 ecx, DWORD PTR [esi+536]
  000d5	8b 01		 mov	 eax, DWORD PTR [ecx]
  000d7	57		 push	 edi
  000d8	57		 push	 edi
  000d9	57		 push	 edi
  000da	ff 50 28	 call	 DWORD PTR [eax+40]

; 624  : 		m_pArrow->Render( iXPos + X_OFFSET, iYPos + Y_OFFSET_UP, UI_RENDER_NORMAL, TFO_BILINEAR );

  000dd	8b 55 0c	 mov	 edx, DWORD PTR _iYPos$[ebp]
  000e0	83 c2 ca	 add	 edx, -54		; ffffffcaH
  000e3	e9 67 02 00 00	 jmp	 $LN90@RenderArro
$LN9@RenderArro:

; 625  : 	}
; 626  : 	else if( m_AniState.GetCurState() == AT_START_STOP )

  000e8	83 f8 03	 cmp	 eax, 3
  000eb	75 2a		 jne	 SHORT $LN7@RenderArro

; 627  : 	{
; 628  : 		m_pArrow->SetAlpha( 255 );

  000ed	8b 8e 18 02 00
	00		 mov	 ecx, DWORD PTR [esi+536]
  000f3	8b 01		 mov	 eax, DWORD PTR [ecx]
  000f5	bf ff 00 00 00	 mov	 edi, 255		; 000000ffH
  000fa	57		 push	 edi
  000fb	ff 50 30	 call	 DWORD PTR [eax+48]

; 629  : 		m_pArrow->SetColor( 255, 255, 255 );

  000fe	8b 8e 18 02 00
	00		 mov	 ecx, DWORD PTR [esi+536]
  00104	8b 01		 mov	 eax, DWORD PTR [ecx]
  00106	57		 push	 edi
  00107	57		 push	 edi
  00108	57		 push	 edi
  00109	ff 50 28	 call	 DWORD PTR [eax+40]

; 630  : 		m_pArrow->Render( iXPos + X_OFFSET, iYPos + Y_OFFSET_DOWN, UI_RENDER_NORMAL, TFO_BILINEAR );

  0010c	8b 55 0c	 mov	 edx, DWORD PTR _iYPos$[ebp]
  0010f	83 c2 d0	 add	 edx, -48		; ffffffd0H
  00112	e9 38 02 00 00	 jmp	 $LN90@RenderArro
$LN7@RenderArro:

; 631  : 	}
; 632  : 	else if( m_AniState.GetCurState() == AT_WHITE_OUT )

  00117	83 f8 04	 cmp	 eax, 4
  0011a	0f 85 b0 00 00
	00		 jne	 $LN5@RenderArro

; 633  : 	{
; 634  : 		float fRate = ( (float)m_AniState.GetCurTime() / (float)m_AniState.GetDelay() );

  00120	8b 86 28 02 00
	00		 mov	 eax, DWORD PTR [esi+552]
  00126	db 86 28 02 00
	00		 fild	 DWORD PTR [esi+552]
  0012c	85 c0		 test	 eax, eax
  0012e	79 06		 jns	 SHORT $LN78@RenderArro
  00130	d8 05 00 00 00
	00		 fadd	 DWORD PTR __real@4f800000
$LN78@RenderArro:
  00136	da b6 2c 02 00
	00		 fidiv	 DWORD PTR [esi+556]

; 635  : 		int iColor = 255.0f * fRate;
; 636  : 		m_pArrow->SetColor(iColor, iColor, iColor );

  0013c	8b 8e 18 02 00
	00		 mov	 ecx, DWORD PTR [esi+536]
  00142	8b 11		 mov	 edx, DWORD PTR [ecx]
  00144	d9 5d fc	 fstp	 DWORD PTR _fRate$548469[ebp]
  00147	f3 0f 10 45 fc	 movss	 xmm0, DWORD PTR _fRate$548469[ebp]
  0014c	0f 5a c0	 cvtps2pd xmm0, xmm0
  0014f	f2 0f 59 05 00
	00 00 00	 mulsd	 xmm0, QWORD PTR __real@406fe00000000000
  00157	f2 0f 2c c0	 cvttsd2si eax, xmm0
  0015b	50		 push	 eax
  0015c	50		 push	 eax
  0015d	50		 push	 eax
  0015e	ff 52 28	 call	 DWORD PTR [edx+40]

; 637  : 		int iAlpha = 255.0f * ( FLOAT1 - fRate );

  00161	b8 01 00 00 00	 mov	 eax, 1

; 638  : 		m_pArrow->SetAlpha( iAlpha );

  00166	8b 8e 18 02 00
	00		 mov	 ecx, DWORD PTR [esi+536]
  0016c	8b 39		 mov	 edi, DWORD PTR [ecx]
  0016e	89 45 f8	 mov	 DWORD PTR tv826[ebp], eax
  00171	db 45 f8	 fild	 DWORD PTR tv826[ebp]
  00174	85 c0		 test	 eax, eax
  00176	79 06		 jns	 SHORT $LN79@RenderArro
  00178	d8 05 00 00 00
	00		 fadd	 DWORD PTR __real@4f800000
$LN79@RenderArro:
  0017e	d8 65 fc	 fsub	 DWORD PTR _fRate$548469[ebp]
  00181	dc 0d 00 00 00
	00		 fmul	 QWORD PTR __real@406fe00000000000
  00187	e8 00 00 00 00	 call	 __ftol2
  0018c	8b 8e 18 02 00
	00		 mov	 ecx, DWORD PTR [esi+536]
  00192	0f b6 c0	 movzx	 eax, al
  00195	50		 push	 eax
  00196	ff 57 30	 call	 DWORD PTR [edi+48]

; 639  : 		m_pArrow->Render( iXPos + X_OFFSET, iYPos + Y_OFFSET_DOWN, UI_RENDER_NORMAL_ADD_COLOR, TFO_BILINEAR );

  00199	8b 4d 0c	 mov	 ecx, DWORD PTR _iYPos$[ebp]
  0019c	8b b6 18 02 00
	00		 mov	 esi, DWORD PTR [esi+536]
  001a2	8b 06		 mov	 eax, DWORD PTR [esi]
  001a4	53		 push	 ebx
  001a5	53		 push	 ebx
  001a6	83 c1 d0	 add	 ecx, -48		; ffffffd0H
  001a9	6a 01		 push	 1
  001ab	6a 04		 push	 4
  001ad	51		 push	 ecx
  001ae	0f 57 c0	 xorps	 xmm0, xmm0
  001b1	f3 0f 2a c1	 cvtsi2ss xmm0, ecx
  001b5	51		 push	 ecx
  001b6	8b 4d 08	 mov	 ecx, DWORD PTR _iXPos$[ebp]
  001b9	f3 0f 11 44 24
	04		 movss	 DWORD PTR [esp+4], xmm0
  001bf	83 c1 fb	 add	 ecx, -5			; fffffffbH
  001c2	0f 57 c0	 xorps	 xmm0, xmm0
  001c5	f3 0f 2a c1	 cvtsi2ss xmm0, ecx
  001c9	8b ce		 mov	 ecx, esi
  001cb	e9 a8 01 00 00	 jmp	 $LN91@RenderArro
$LN5@RenderArro:

; 640  : 
; 641  : 	}
; 642  : 	else if( m_AniState.GetCurState() == AT_DOWN )

  001d0	83 f8 05	 cmp	 eax, 5
  001d3	0f 85 9e 00 00
	00		 jne	 $LN3@RenderArro

; 643  : 	{
; 644  : 		//  2->1->0
; 645  : 		int iYOffSet = cos( (FLOAT_PI * FLOAT05 * m_AniState.GetCurTime()  ) / m_AniState.GetDelay() ) * m_iDownHeight;	

  001d9	b8 4e e6 40 bb	 mov	 eax, -1153374642	; bb40e64eH
  001de	8b c8		 mov	 ecx, eax
  001e0	b8 00 ca 9a 3b	 mov	 eax, 1000000000		; 3b9aca00H
  001e5	8b d0		 mov	 edx, eax
  001e7	b8 05 00 00 00	 mov	 eax, 5
  001ec	8b f8		 mov	 edi, eax
  001ee	b8 0a 00 00 00	 mov	 eax, 10			; 0000000aH
  001f3	89 7d f8	 mov	 DWORD PTR tv811[ebp], edi
  001f6	db 45 f8	 fild	 DWORD PTR tv811[ebp]
  001f9	85 ff		 test	 edi, edi
  001fb	79 06		 jns	 SHORT $LN80@RenderArro
  001fd	d8 05 00 00 00
	00		 fadd	 DWORD PTR __real@4f800000
$LN80@RenderArro:
  00203	89 45 f8	 mov	 DWORD PTR tv807[ebp], eax
  00206	db 45 f8	 fild	 DWORD PTR tv807[ebp]
  00209	85 c0		 test	 eax, eax
  0020b	79 06		 jns	 SHORT $LN81@RenderArro
  0020d	d8 05 00 00 00
	00		 fadd	 DWORD PTR __real@4f800000
$LN81@RenderArro:
  00213	de f9		 fdivp	 ST(1), ST(0)
  00215	89 4d f8	 mov	 DWORD PTR tv798[ebp], ecx
  00218	d9 5d fc	 fstp	 DWORD PTR tv803[ebp]
  0021b	d9 45 fc	 fld	 DWORD PTR tv803[ebp]
  0021e	db 45 f8	 fild	 DWORD PTR tv798[ebp]
  00221	85 c9		 test	 ecx, ecx
  00223	79 06		 jns	 SHORT $LN82@RenderArro
  00225	d8 05 00 00 00
	00		 fadd	 DWORD PTR __real@4f800000
$LN82@RenderArro:
  0022b	89 55 f8	 mov	 DWORD PTR tv794[ebp], edx
  0022e	db 45 f8	 fild	 DWORD PTR tv794[ebp]
  00231	85 d2		 test	 edx, edx
  00233	79 06		 jns	 SHORT $LN83@RenderArro
  00235	d8 05 00 00 00
	00		 fadd	 DWORD PTR __real@4f800000
$LN83@RenderArro:
  0023b	de f9		 fdivp	 ST(1), ST(0)
  0023d	8b 86 28 02 00
	00		 mov	 eax, DWORD PTR [esi+552]
  00243	d9 5d fc	 fstp	 DWORD PTR tv790[ebp]
  00246	d8 4d fc	 fmul	 DWORD PTR tv790[ebp]
  00249	db 86 28 02 00
	00		 fild	 DWORD PTR [esi+552]
  0024f	85 c0		 test	 eax, eax
  00251	79 06		 jns	 SHORT $LN84@RenderArro
  00253	d8 05 00 00 00
	00		 fadd	 DWORD PTR __real@4f800000
$LN84@RenderArro:
  00259	de c9		 fmulp	 ST(1), ST(0)
  0025b	da b6 2c 02 00
	00		 fidiv	 DWORD PTR [esi+556]
  00261	d9 5d fc	 fstp	 DWORD PTR tv782[ebp]
  00264	d9 45 fc	 fld	 DWORD PTR tv782[ebp]
  00267	e8 00 00 00 00	 call	 __CIcos
  0026c	d9 5d fc	 fstp	 DWORD PTR tv775[ebp]
  0026f	d9 45 fc	 fld	 DWORD PTR tv775[ebp]

; 646  : 		m_pArrow->SetAlpha( 255 );
; 647  : 		m_pArrow->SetColor( 255, 255, 255 );
; 648  : 		m_pArrow->Render( iXPos + X_OFFSET, iYPos + ( Y_OFFSET_DOWN - iYOffSet ), UI_RENDER_NORMAL, TFO_BILINEAR);

  00272	e9 a2 00 00 00	 jmp	 $LN93@RenderArro
$LN3@RenderArro:

; 649  : 	}
; 650  : 	else if( m_AniState.GetCurState() == AT_UP )

  00277	83 f8 06	 cmp	 eax, 6
  0027a	0f 85 ff 00 00
	00		 jne	 $LN76@RenderArro

; 651  : 	{
; 652  : 		//  0->1->2
; 653  : 		int iYOffSet = sin( (FLOAT_PI * FLOAT05 * m_AniState.GetCurTime()  ) / m_AniState.GetDelay() ) * m_iDownHeight;	

  00280	b8 4e e6 40 bb	 mov	 eax, -1153374642	; bb40e64eH
  00285	8b c8		 mov	 ecx, eax
  00287	b8 00 ca 9a 3b	 mov	 eax, 1000000000		; 3b9aca00H
  0028c	8b d0		 mov	 edx, eax
  0028e	b8 05 00 00 00	 mov	 eax, 5
  00293	8b f8		 mov	 edi, eax
  00295	b8 0a 00 00 00	 mov	 eax, 10			; 0000000aH
  0029a	89 7d f8	 mov	 DWORD PTR tv756[ebp], edi
  0029d	db 45 f8	 fild	 DWORD PTR tv756[ebp]
  002a0	85 ff		 test	 edi, edi
  002a2	79 06		 jns	 SHORT $LN85@RenderArro
  002a4	d8 05 00 00 00
	00		 fadd	 DWORD PTR __real@4f800000
$LN85@RenderArro:
  002aa	89 45 f8	 mov	 DWORD PTR tv751[ebp], eax
  002ad	db 45 f8	 fild	 DWORD PTR tv751[ebp]
  002b0	85 c0		 test	 eax, eax
  002b2	79 06		 jns	 SHORT $LN86@RenderArro
  002b4	d8 05 00 00 00
	00		 fadd	 DWORD PTR __real@4f800000
$LN86@RenderArro:
  002ba	de f9		 fdivp	 ST(1), ST(0)
  002bc	89 4d f8	 mov	 DWORD PTR tv742[ebp], ecx
  002bf	d9 5d fc	 fstp	 DWORD PTR tv747[ebp]
  002c2	d9 45 fc	 fld	 DWORD PTR tv747[ebp]
  002c5	db 45 f8	 fild	 DWORD PTR tv742[ebp]
  002c8	85 c9		 test	 ecx, ecx
  002ca	79 06		 jns	 SHORT $LN87@RenderArro
  002cc	d8 05 00 00 00
	00		 fadd	 DWORD PTR __real@4f800000
$LN87@RenderArro:
  002d2	89 55 f8	 mov	 DWORD PTR tv738[ebp], edx
  002d5	db 45 f8	 fild	 DWORD PTR tv738[ebp]
  002d8	85 d2		 test	 edx, edx
  002da	79 06		 jns	 SHORT $LN88@RenderArro
  002dc	d8 05 00 00 00
	00		 fadd	 DWORD PTR __real@4f800000
$LN88@RenderArro:
  002e2	de f9		 fdivp	 ST(1), ST(0)
  002e4	8b 86 28 02 00
	00		 mov	 eax, DWORD PTR [esi+552]
  002ea	d9 5d fc	 fstp	 DWORD PTR tv734[ebp]
  002ed	d8 4d fc	 fmul	 DWORD PTR tv734[ebp]
  002f0	db 86 28 02 00
	00		 fild	 DWORD PTR [esi+552]
  002f6	85 c0		 test	 eax, eax
  002f8	79 06		 jns	 SHORT $LN89@RenderArro
  002fa	d8 05 00 00 00
	00		 fadd	 DWORD PTR __real@4f800000
$LN89@RenderArro:
  00300	de c9		 fmulp	 ST(1), ST(0)
  00302	da b6 2c 02 00
	00		 fidiv	 DWORD PTR [esi+556]
  00308	d9 5d fc	 fstp	 DWORD PTR tv724[ebp]
  0030b	d9 45 fc	 fld	 DWORD PTR tv724[ebp]
  0030e	e8 00 00 00 00	 call	 __CIsin
  00313	d9 5d fc	 fstp	 DWORD PTR tv718[ebp]
  00316	d9 45 fc	 fld	 DWORD PTR tv718[ebp]
$LN93@RenderArro:
  00319	da 8e 14 02 00
	00		 fimul	 DWORD PTR [esi+532]
  0031f	e8 00 00 00 00	 call	 __ftol2_sse

; 654  : 		m_pArrow->SetAlpha( 255 );

  00324	8b 8e 18 02 00
	00		 mov	 ecx, DWORD PTR [esi+536]
  0032a	89 45 fc	 mov	 DWORD PTR _iYOffSet$548485[ebp], eax
  0032d	8b 01		 mov	 eax, DWORD PTR [ecx]
  0032f	bf ff 00 00 00	 mov	 edi, 255		; 000000ffH
  00334	57		 push	 edi
  00335	ff 50 30	 call	 DWORD PTR [eax+48]

; 655  : 		m_pArrow->SetColor( 255, 255, 255 );

  00338	8b 8e 18 02 00
	00		 mov	 ecx, DWORD PTR [esi+536]
  0033e	8b 01		 mov	 eax, DWORD PTR [ecx]
  00340	57		 push	 edi
  00341	57		 push	 edi
  00342	57		 push	 edi
  00343	ff 50 28	 call	 DWORD PTR [eax+40]

; 656  : 		m_pArrow->Render( iXPos + X_OFFSET, iYPos + ( Y_OFFSET_DOWN - iYOffSet ), UI_RENDER_NORMAL, TFO_BILINEAR );

  00346	8b 55 0c	 mov	 edx, DWORD PTR _iYPos$[ebp]
  00349	2b 55 fc	 sub	 edx, DWORD PTR _iYOffSet$548485[ebp]
  0034c	83 ea 30	 sub	 edx, 48			; 00000030H
$LN90@RenderArro:
  0034f	8b 8e 18 02 00
	00		 mov	 ecx, DWORD PTR [esi+536]
  00355	8b 01		 mov	 eax, DWORD PTR [ecx]
  00357	53		 push	 ebx
  00358	53		 push	 ebx
  00359	6a 01		 push	 1
  0035b	53		 push	 ebx
  0035c	0f 57 c0	 xorps	 xmm0, xmm0
  0035f	f3 0f 2a c2	 cvtsi2ss xmm0, edx
  00363	8b 55 08	 mov	 edx, DWORD PTR _iXPos$[ebp]
  00366	51		 push	 ecx
  00367	51		 push	 ecx
  00368	f3 0f 11 44 24
	04		 movss	 DWORD PTR [esp+4], xmm0
  0036e	83 c2 fb	 add	 edx, -5			; fffffffbH
  00371	0f 57 c0	 xorps	 xmm0, xmm0
  00374	f3 0f 2a c2	 cvtsi2ss xmm0, edx
$LN91@RenderArro:
  00378	f3 0f 11 04 24	 movss	 DWORD PTR [esp], xmm0
  0037d	ff 10		 call	 DWORD PTR [eax]
$LN76@RenderArro:
  0037f	5f		 pop	 edi
$LN12@RenderArro:
  00380	5e		 pop	 esi
  00381	5b		 pop	 ebx

; 657  : 	}
; 658  : }

  00382	c9		 leave
  00383	c2 08 00	 ret	 8
?RenderArrow@SoldierExerciseBtn@@IAEXHH@Z ENDP		; SoldierExerciseBtn::RenderArrow
_TEXT	ENDS
PUBLIC	?RenderBigArrow@SoldierExerciseWnd@@IAEXHH@Z	; SoldierExerciseWnd::RenderBigArrow
; Function compile flags: /Ogsp
;	COMDAT ?RenderBigArrow@SoldierExerciseWnd@@IAEXHH@Z
_TEXT	SEGMENT
tv472 = -4						; size = 4
tv468 = -4						; size = 4
tv464 = -4						; size = 4
tv459 = -4						; size = 4
tv456 = -4						; size = 4
tv451 = -4						; size = 4
tv446 = -4						; size = 4
tv442 = -4						; size = 4
tv436 = -4						; size = 4
tv419 = -4						; size = 4
tv415 = -4						; size = 4
tv411 = -4						; size = 4
tv407 = -4						; size = 4
tv404 = -4						; size = 4
tv400 = -4						; size = 4
tv396 = -4						; size = 4
tv391 = -4						; size = 4
tv384 = -4						; size = 4
_iYOffSet$548568 = -4					; size = 4
_iXPos$ = 8						; size = 4
_iYPos$ = 12						; size = 4
?RenderBigArrow@SoldierExerciseWnd@@IAEXHH@Z PROC	; SoldierExerciseWnd::RenderBigArrow, COMDAT
; _this$ = ecx

; 770  : {

  00000	55		 push	 ebp
  00001	8b ec		 mov	 ebp, esp
  00003	51		 push	 ecx
  00004	53		 push	 ebx
  00005	56		 push	 esi
  00006	8b f1		 mov	 esi, ecx

; 771  : 	if( !m_bArrow ) return;

  00008	33 db		 xor	 ebx, ebx
  0000a	38 9e d8 01 00
	00		 cmp	 BYTE PTR [esi+472], bl
  00010	0f 84 c2 01 00
	00		 je	 $LN1@RenderBigA

; 772  : 	if( !m_pBigArrow ) return;

  00016	39 9e c4 01 00
	00		 cmp	 DWORD PTR [esi+452], ebx
  0001c	0f 84 b6 01 00
	00		 je	 $LN1@RenderBigA

; 773  : 
; 774  : 	enum { X_OFFSET_DOWN = -39, Y_OFFSET = 5, };
; 775  : 
; 776  : 	if( m_BigArrowAniState.GetCurState() == BAT_DOWN )

  00022	8b 86 9c 01 00
	00		 mov	 eax, DWORD PTR [esi+412]
  00028	57		 push	 edi
  00029	3b c3		 cmp	 eax, ebx
  0002b	0f 85 9e 00 00
	00		 jne	 $LN3@RenderBigA

; 777  : 	{
; 778  : 		//  2->1->0
; 779  : 		int iYOffSet = cos( (FLOAT_PI * FLOAT05 * m_BigArrowAniState.GetCurTime()  ) / m_BigArrowAniState.GetDelay() ) * m_iDownHeight;	

  00031	b8 4e e6 40 bb	 mov	 eax, -1153374642	; bb40e64eH
  00036	8b c8		 mov	 ecx, eax
  00038	b8 00 ca 9a 3b	 mov	 eax, 1000000000		; 3b9aca00H
  0003d	8b d0		 mov	 edx, eax
  0003f	b8 05 00 00 00	 mov	 eax, 5
  00044	8b f8		 mov	 edi, eax
  00046	b8 0a 00 00 00	 mov	 eax, 10			; 0000000aH
  0004b	89 7d fc	 mov	 DWORD PTR tv472[ebp], edi
  0004e	db 45 fc	 fild	 DWORD PTR tv472[ebp]
  00051	85 ff		 test	 edi, edi
  00053	79 06		 jns	 SHORT $LN45@RenderBigA
  00055	d8 05 00 00 00
	00		 fadd	 DWORD PTR __real@4f800000
$LN45@RenderBigA:
  0005b	89 45 fc	 mov	 DWORD PTR tv468[ebp], eax
  0005e	db 45 fc	 fild	 DWORD PTR tv468[ebp]
  00061	85 c0		 test	 eax, eax
  00063	79 06		 jns	 SHORT $LN46@RenderBigA
  00065	d8 05 00 00 00
	00		 fadd	 DWORD PTR __real@4f800000
$LN46@RenderBigA:
  0006b	de f9		 fdivp	 ST(1), ST(0)
  0006d	d9 5d fc	 fstp	 DWORD PTR tv464[ebp]
  00070	d9 45 fc	 fld	 DWORD PTR tv464[ebp]
  00073	89 4d fc	 mov	 DWORD PTR tv459[ebp], ecx
  00076	db 45 fc	 fild	 DWORD PTR tv459[ebp]
  00079	85 c9		 test	 ecx, ecx
  0007b	79 06		 jns	 SHORT $LN47@RenderBigA
  0007d	d8 05 00 00 00
	00		 fadd	 DWORD PTR __real@4f800000
$LN47@RenderBigA:
  00083	89 55 fc	 mov	 DWORD PTR tv456[ebp], edx
  00086	db 45 fc	 fild	 DWORD PTR tv456[ebp]
  00089	85 d2		 test	 edx, edx
  0008b	79 06		 jns	 SHORT $LN48@RenderBigA
  0008d	d8 05 00 00 00
	00		 fadd	 DWORD PTR __real@4f800000
$LN48@RenderBigA:
  00093	de f9		 fdivp	 ST(1), ST(0)
  00095	8b 86 a4 01 00
	00		 mov	 eax, DWORD PTR [esi+420]
  0009b	d9 5d fc	 fstp	 DWORD PTR tv451[ebp]
  0009e	d8 4d fc	 fmul	 DWORD PTR tv451[ebp]
  000a1	db 86 a4 01 00
	00		 fild	 DWORD PTR [esi+420]
  000a7	85 c0		 test	 eax, eax
  000a9	79 06		 jns	 SHORT $LN49@RenderBigA
  000ab	d8 05 00 00 00
	00		 fadd	 DWORD PTR __real@4f800000
$LN49@RenderBigA:
  000b1	de c9		 fmulp	 ST(1), ST(0)
  000b3	da b6 a8 01 00
	00		 fidiv	 DWORD PTR [esi+424]
  000b9	d9 5d fc	 fstp	 DWORD PTR tv442[ebp]
  000bc	d9 45 fc	 fld	 DWORD PTR tv442[ebp]
  000bf	e8 00 00 00 00	 call	 __CIcos
  000c4	d9 5d fc	 fstp	 DWORD PTR tv436[ebp]
  000c7	d9 45 fc	 fld	 DWORD PTR tv436[ebp]

; 780  : 		m_pBigArrow->SetAlpha( 255 );
; 781  : 		m_pBigArrow->SetColor( 255, 255, 255 );
; 782  : 		m_pBigArrow->Render( iXPos + ( X_OFFSET_DOWN - iYOffSet ), iYPos + Y_OFFSET, UI_RENDER_NORMAL, TFO_BILINEAR);

  000ca	e9 a2 00 00 00	 jmp	 $LN56@RenderBigA
$LN3@RenderBigA:

; 783  : 	}
; 784  : 	else if( m_BigArrowAniState.GetCurState() == BAT_UP )

  000cf	83 f8 01	 cmp	 eax, 1
  000d2	0f 85 ff 00 00
	00		 jne	 $LN44@RenderBigA

; 785  : 	{
; 786  : 		//  0->1->2
; 787  : 		int iYOffSet = sin( (FLOAT_PI * FLOAT05 * m_BigArrowAniState.GetCurTime()  ) / m_BigArrowAniState.GetDelay() ) * m_iDownHeight;	

  000d8	b8 4e e6 40 bb	 mov	 eax, -1153374642	; bb40e64eH
  000dd	8b c8		 mov	 ecx, eax
  000df	b8 00 ca 9a 3b	 mov	 eax, 1000000000		; 3b9aca00H
  000e4	8b d0		 mov	 edx, eax
  000e6	b8 05 00 00 00	 mov	 eax, 5
  000eb	8b f8		 mov	 edi, eax
  000ed	b8 0a 00 00 00	 mov	 eax, 10			; 0000000aH
  000f2	89 7d fc	 mov	 DWORD PTR tv419[ebp], edi
  000f5	db 45 fc	 fild	 DWORD PTR tv419[ebp]
  000f8	85 ff		 test	 edi, edi
  000fa	79 06		 jns	 SHORT $LN50@RenderBigA
  000fc	d8 05 00 00 00
	00		 fadd	 DWORD PTR __real@4f800000
$LN50@RenderBigA:
  00102	89 45 fc	 mov	 DWORD PTR tv415[ebp], eax
  00105	db 45 fc	 fild	 DWORD PTR tv415[ebp]
  00108	85 c0		 test	 eax, eax
  0010a	79 06		 jns	 SHORT $LN51@RenderBigA
  0010c	d8 05 00 00 00
	00		 fadd	 DWORD PTR __real@4f800000
$LN51@RenderBigA:
  00112	de f9		 fdivp	 ST(1), ST(0)
  00114	d9 5d fc	 fstp	 DWORD PTR tv411[ebp]
  00117	d9 45 fc	 fld	 DWORD PTR tv411[ebp]
  0011a	89 4d fc	 mov	 DWORD PTR tv407[ebp], ecx
  0011d	db 45 fc	 fild	 DWORD PTR tv407[ebp]
  00120	85 c9		 test	 ecx, ecx
  00122	79 06		 jns	 SHORT $LN52@RenderBigA
  00124	d8 05 00 00 00
	00		 fadd	 DWORD PTR __real@4f800000
$LN52@RenderBigA:
  0012a	89 55 fc	 mov	 DWORD PTR tv404[ebp], edx
  0012d	db 45 fc	 fild	 DWORD PTR tv404[ebp]
  00130	85 d2		 test	 edx, edx
  00132	79 06		 jns	 SHORT $LN53@RenderBigA
  00134	d8 05 00 00 00
	00		 fadd	 DWORD PTR __real@4f800000
$LN53@RenderBigA:
  0013a	de f9		 fdivp	 ST(1), ST(0)
  0013c	8b 86 a4 01 00
	00		 mov	 eax, DWORD PTR [esi+420]
  00142	d9 5d fc	 fstp	 DWORD PTR tv400[ebp]
  00145	d8 4d fc	 fmul	 DWORD PTR tv400[ebp]
  00148	db 86 a4 01 00
	00		 fild	 DWORD PTR [esi+420]
  0014e	85 c0		 test	 eax, eax
  00150	79 06		 jns	 SHORT $LN54@RenderBigA
  00152	d8 05 00 00 00
	00		 fadd	 DWORD PTR __real@4f800000
$LN54@RenderBigA:
  00158	de c9		 fmulp	 ST(1), ST(0)
  0015a	da b6 a8 01 00
	00		 fidiv	 DWORD PTR [esi+424]
  00160	d9 5d fc	 fstp	 DWORD PTR tv391[ebp]
  00163	d9 45 fc	 fld	 DWORD PTR tv391[ebp]
  00166	e8 00 00 00 00	 call	 __CIsin
  0016b	d9 5d fc	 fstp	 DWORD PTR tv384[ebp]
  0016e	d9 45 fc	 fld	 DWORD PTR tv384[ebp]
$LN56@RenderBigA:
  00171	da 8e dc 01 00
	00		 fimul	 DWORD PTR [esi+476]
  00177	e8 00 00 00 00	 call	 __ftol2_sse

; 788  : 		m_pBigArrow->SetAlpha( 255 );

  0017c	8b 8e c4 01 00
	00		 mov	 ecx, DWORD PTR [esi+452]
  00182	89 45 fc	 mov	 DWORD PTR _iYOffSet$548568[ebp], eax
  00185	8b 01		 mov	 eax, DWORD PTR [ecx]
  00187	bf ff 00 00 00	 mov	 edi, 255		; 000000ffH
  0018c	57		 push	 edi
  0018d	ff 50 30	 call	 DWORD PTR [eax+48]

; 789  : 		m_pBigArrow->SetColor( 255, 255, 255 );

  00190	8b 8e c4 01 00
	00		 mov	 ecx, DWORD PTR [esi+452]
  00196	8b 01		 mov	 eax, DWORD PTR [ecx]
  00198	57		 push	 edi
  00199	57		 push	 edi
  0019a	57		 push	 edi
  0019b	ff 50 28	 call	 DWORD PTR [eax+40]

; 790  : 		m_pBigArrow->Render( iXPos + ( X_OFFSET_DOWN - iYOffSet ), iYPos + Y_OFFSET, UI_RENDER_NORMAL, TFO_BILINEAR );

  0019e	8b 55 0c	 mov	 edx, DWORD PTR _iYPos$[ebp]
  001a1	8b 8e c4 01 00
	00		 mov	 ecx, DWORD PTR [esi+452]
  001a7	8b 01		 mov	 eax, DWORD PTR [ecx]
  001a9	53		 push	 ebx
  001aa	53		 push	 ebx
  001ab	83 c2 05	 add	 edx, 5
  001ae	6a 01		 push	 1
  001b0	0f 57 c0	 xorps	 xmm0, xmm0
  001b3	f3 0f 2a c2	 cvtsi2ss xmm0, edx
  001b7	8b 55 08	 mov	 edx, DWORD PTR _iXPos$[ebp]
  001ba	2b 55 fc	 sub	 edx, DWORD PTR _iYOffSet$548568[ebp]
  001bd	53		 push	 ebx
  001be	51		 push	 ecx
  001bf	51		 push	 ecx
  001c0	f3 0f 11 44 24
	04		 movss	 DWORD PTR [esp+4], xmm0
  001c6	83 ea 27	 sub	 edx, 39			; 00000027H
  001c9	0f 57 c0	 xorps	 xmm0, xmm0
  001cc	f3 0f 2a c2	 cvtsi2ss xmm0, edx
  001d0	f3 0f 11 04 24	 movss	 DWORD PTR [esp], xmm0
  001d5	ff 10		 call	 DWORD PTR [eax]
$LN44@RenderBigA:
  001d7	5f		 pop	 edi
$LN1@RenderBigA:
  001d8	5e		 pop	 esi
  001d9	5b		 pop	 ebx

; 791  : 	}
; 792  : }

  001da	c9		 leave
  001db	c2 08 00	 ret	 8
?RenderBigArrow@SoldierExerciseWnd@@IAEXHH@Z ENDP	; SoldierExerciseWnd::RenderBigArrow
_TEXT	ENDS
PUBLIC	?iwm_create@SoldierExerciseWnd@@UAEXXZ		; SoldierExerciseWnd::iwm_create
; Function compile flags: /Ogsp
;	COMDAT ?iwm_create@SoldierExerciseWnd@@UAEXXZ
_TEXT	SEGMENT
?iwm_create@SoldierExerciseWnd@@UAEXXZ PROC		; SoldierExerciseWnd::iwm_create, COMDAT
; _this$ = ecx

; 915  : 	SetMaxPage();

  00000	e9 00 00 00 00	 jmp	 ?SetMaxPage@SoldierExerciseWnd@@IAEXXZ ; SoldierExerciseWnd::SetMaxPage
?iwm_create@SoldierExerciseWnd@@UAEXXZ ENDP		; SoldierExerciseWnd::iwm_create
_TEXT	ENDS
PUBLIC	__$ArrayPad$
PUBLIC	?SendChangeWait@SoldierExerciseWnd@@IAEXH@Z	; SoldierExerciseWnd::SendChangeWait
EXTRN	??1SP2Packet@@UAE@XZ:PROC			; SP2Packet::~SP2Packet
EXTRN	?GetCharWeaponItem@ioMyInfo@@QAEAAUITEM_DATA@@XZ:PROC ; ioMyInfo::GetCharWeaponItem
EXTRN	?GetEquipedItem@ioBaseChar@@QAEPAVioItem@@H@Z:PROC ; ioBaseChar::GetEquipedItem
EXTRN	?MouseBusy@TCPNetwork@@YAX_N@Z:PROC		; TCPNetwork::MouseBusy
EXTRN	?SendToServer@TCPNetwork@@YAXAAVSP2Packet@@@Z:PROC ; TCPNetwork::SendToServer
EXTRN	??6SP2Packet@@QAEAAV0@H@Z:PROC			; SP2Packet::operator<<
EXTRN	?GetCharIndex@ioMyInfo@@QAEHH@Z:PROC		; ioMyInfo::GetCharIndex
EXTRN	??6SP2Packet@@QAEAAV0@K@Z:PROC			; SP2Packet::operator<<
EXTRN	??0SP2Packet@@QAE@K@Z:PROC			; SP2Packet::SP2Packet
EXTRN	___security_cookie:DWORD
EXTRN	__chkstk:PROC
;	COMDAT xdata$x
; File d:\lost saga for developer\youtube\tutorial\source\src\lsclient\ioitem.h
xdata$x	SEGMENT
__unwindtable$?SendChangeWait@SoldierExerciseWnd@@IAEXH@Z DD 0ffffffffH
	DD	FLAT:__unwindfunclet$?SendChangeWait@SoldierExerciseWnd@@IAEXH@Z$0
__ehfuncinfo$?SendChangeWait@SoldierExerciseWnd@@IAEXH@Z DD 019930522H
	DD	01H
	DD	FLAT:__unwindtable$?SendChangeWait@SoldierExerciseWnd@@IAEXH@Z
	DD	2 DUP(00H)
	DD	2 DUP(00H)
	DD	00H
	DD	01H
; Function compile flags: /Ogsp
; File d:\lost saga for developer\youtube\tutorial\source\src\lsclient\gui\soldierexercisewnd.cpp
xdata$x	ENDS
;	COMDAT ?SendChangeWait@SoldierExerciseWnd@@IAEXH@Z
_TEXT	SEGMENT
_kPacket$548757 = -32808				; size = 32792
__$ArrayPad$ = -16					; size = 4
__$EHRec$ = -12						; size = 12
_iArray$ = 8						; size = 4
?SendChangeWait@SoldierExerciseWnd@@IAEXH@Z PROC	; SoldierExerciseWnd::SendChangeWait, COMDAT
; _this$ = ecx

; 1113 : {

  00000	55		 push	 ebp
  00001	8b ec		 mov	 ebp, esp
  00003	6a ff		 push	 -1
  00005	68 00 00 00 00	 push	 __ehhandler$?SendChangeWait@SoldierExerciseWnd@@IAEXH@Z
  0000a	64 a1 00 00 00
	00		 mov	 eax, DWORD PTR fs:0
  00010	50		 push	 eax
  00011	b8 1c 80 00 00	 mov	 eax, 32796		; 0000801cH
  00016	e8 00 00 00 00	 call	 __chkstk
  0001b	a1 00 00 00 00	 mov	 eax, DWORD PTR ___security_cookie
  00020	33 c5		 xor	 eax, ebp
  00022	89 45 f0	 mov	 DWORD PTR __$ArrayPad$[ebp], eax
  00025	56		 push	 esi
  00026	57		 push	 edi
  00027	50		 push	 eax
  00028	8d 45 f4	 lea	 eax, DWORD PTR __$EHRec$[ebp]
  0002b	64 a3 00 00 00
	00		 mov	 DWORD PTR fs:0, eax
  00031	8b f9		 mov	 edi, ecx

; 1114 : 	if( !m_pPlayStage ) return;

  00033	8b 8f 60 01 00
	00		 mov	 ecx, DWORD PTR [edi+352]
  00039	85 c9		 test	 ecx, ecx
  0003b	0f 84 16 03 00
	00		 je	 $LN6@SendChange

; 1115 : 	
; 1116 : 	ioBaseChar *pOwner = m_pPlayStage->GetOwnerChar();

  00041	e8 00 00 00 00	 call	 ?GetOwnerChar@ioPlayStage@@QAEPAVioBaseChar@@XZ ; ioPlayStage::GetOwnerChar
  00046	8b f0		 mov	 esi, eax

; 1117 : 	if( !pOwner ) return;

  00048	85 f6		 test	 esi, esi
  0004a	0f 84 07 03 00
	00		 je	 $LN6@SendChange

; 1118 : 
; 1119 : 	if( m_pPlayStage->GetModeType() != MT_MYROOM )

  00050	8b 8f 60 01 00
	00		 mov	 ecx, DWORD PTR [edi+352]
  00056	e8 00 00 00 00	 call	 ?GetModeType@ioPlayStage@@QBE?AW4ModeType@@XZ ; ioPlayStage::GetModeType
  0005b	83 f8 18	 cmp	 eax, 24			; 00000018H
  0005e	74 11		 je	 SHORT $LN7@SendChange

; 1120 : 	{
; 1121 : 		pOwner->SetChangeWaitState( iArray );

  00060	6a 01		 push	 1
  00062	ff 75 08	 push	 DWORD PTR _iArray$[ebp]
  00065	8b ce		 mov	 ecx, esi
  00067	e8 00 00 00 00	 call	 ?SetChangeWaitState@ioBaseChar@@QAEXH_N@Z ; ioBaseChar::SetChangeWaitState

; 1122 : 	}
; 1123 : 	else

  0006c	e9 e6 02 00 00	 jmp	 $LN6@SendChange
$LN7@SendChange:

; 1124 : 	{
; 1125 : 		SP2Packet kPacket( CTPK_CHANGE_SINGLE_CHAR );

  00071	6a 72		 push	 114			; 00000072H
  00073	8d 8d d8 7f ff
	ff		 lea	 ecx, DWORD PTR _kPacket$548757[ebp]
  00079	e8 00 00 00 00	 call	 ??0SP2Packet@@QAE@K@Z	; SP2Packet::SP2Packet

; 1126 : 		kPacket << pOwner->GetIndex();

  0007e	ff b6 c8 02 00
	00		 push	 DWORD PTR [esi+712]
  00084	83 65 fc 00	 and	 DWORD PTR __$EHRec$[ebp+8], 0
  00088	8d 8d d8 7f ff
	ff		 lea	 ecx, DWORD PTR _kPacket$548757[ebp]
  0008e	e8 00 00 00 00	 call	 ??6SP2Packet@@QAEAAV0@K@Z ; SP2Packet::operator<<

; 1127 : 		kPacket << g_MyInfo.GetCharIndex( iArray );

  00093	ff 75 08	 push	 DWORD PTR _iArray$[ebp]
  00096	e8 00 00 00 00	 call	 ?GetSingleton@ioMyInfo@@SAAAV1@XZ ; ioMyInfo::GetSingleton
  0009b	8b c8		 mov	 ecx, eax
  0009d	e8 00 00 00 00	 call	 ?GetCharIndex@ioMyInfo@@QAEHH@Z ; ioMyInfo::GetCharIndex
  000a2	50		 push	 eax
  000a3	8d 8d d8 7f ff
	ff		 lea	 ecx, DWORD PTR _kPacket$548757[ebp]
  000a9	e8 00 00 00 00	 call	 ??6SP2Packet@@QAEAAV0@H@Z ; SP2Packet::operator<<

; 1128 : 		TCPNetwork::SendToServer( kPacket );

  000ae	8d 85 d8 7f ff
	ff		 lea	 eax, DWORD PTR _kPacket$548757[ebp]
  000b4	50		 push	 eax
  000b5	e8 00 00 00 00	 call	 ?SendToServer@TCPNetwork@@YAXAAVSP2Packet@@@Z ; TCPNetwork::SendToServer

; 1129 : 		TCPNetwork::MouseBusy( true );

  000ba	6a 01		 push	 1
  000bc	e8 00 00 00 00	 call	 ?MouseBusy@TCPNetwork@@YAX_N@Z ; TCPNetwork::MouseBusy
  000c1	59		 pop	 ecx
  000c2	59		 pop	 ecx

; 1130 : 
; 1131 : 		ioItem *pItem = pOwner->GetEquipedItem(ES_WEAPON);

  000c3	6a 00		 push	 0
  000c5	8b ce		 mov	 ecx, esi
  000c7	e8 00 00 00 00	 call	 ?GetEquipedItem@ioBaseChar@@QAEPAVioItem@@H@Z ; ioBaseChar::GetEquipedItem
  000cc	8b f0		 mov	 esi, eax

; 1132 : 		ITEM_DATA &rkItem = g_MyInfo.GetCharWeaponItem();

  000ce	e8 00 00 00 00	 call	 ?GetSingleton@ioMyInfo@@SAAAV1@XZ ; ioMyInfo::GetSingleton
  000d3	8b c8		 mov	 ecx, eax
  000d5	e8 00 00 00 00	 call	 ?GetCharWeaponItem@ioMyInfo@@QAEAAUITEM_DATA@@XZ ; ioMyInfo::GetCharWeaponItem

; 1133 : 		if( ToBowItem(pItem)				||
; 1134 : 			ToFireWeaponItem(pItem)			||
; 1135 : 			ToLaserItem(pItem)				||
; 1136 : 			ToAutoShotItem(pItem)			||
; 1137 : 			ToUroborusItem(pItem)			||
; 1138 : 			ToWereWolfItem(pItem)			||
; 1139 : 			ToWitchItem(pItem)				||
; 1140 : 			ToNakoruruItem(pItem)			||
; 1141 : 			ToExcaliburItem(pItem)			||
; 1142 : 			ToLuciferItem(pItem)			||
; 1143 : 			ToChargeComboBowItem(pItem)		||
; 1144 : 			ToWestGunExtendItem(pItem)		||
; 1145 : 			ToPeterpanItem(pItem)			||
; 1146 : 			ToWindLordItem(pItem)			||
; 1147 : 			ToProject_K_Item(pItem)			||
; 1148 : 			ToHakumenItem(pItem)			||
; 1149 : 			ToDevilItem(pItem)				||
; 1150 : 			ToMaidItem(pItem)				||
; 1151 : 			ToFlashItem(pItem)				||
; 1152 : 			ToPsychoMetryItem(pItem)		||
; 1153 : 			ToSuddenAttackItem(pItem)		||
; 1154 : 			ToSlasherItem(pItem)			||
; 1155 : 			ToDummyCharItem2(pItem)			||
; 1156 : 			ToTitanWeaponItem(pItem)		||
; 1157 : 			ToSuperDimensionItem( pItem )	||
; 1158 : 			ToTraceItem(pItem)				||
; 1159 : 			ToKaelthasItem(pItem)			||
; 1160 : 			ToStrikerItem(pItem)			||
; 1161 : 			ToLeeItem(pItem)				||
; 1162 : 			ToParkilpyoItem(pItem)			||
; 1163 : 			ToJoroExpansionItem(pItem)		||
; 1164 : 			ToEarthQuakeItem(pItem)			||
; 1165 : 			ToShadowRangerItem(pItem)		||
; 1166 : 			ToChargeCommandItem(pItem)		||
; 1167 : 			ToNataItem(pItem)				||
; 1168 : 			ToResearcher(pItem)				||
; 1169 : 			ToBullFightItem(pItem)			||
; 1170 : 			ToChainMagicianItem( pItem )	||
; 1171 : 			ToStriderItem( pItem )			||
; 1172 : 			ToCuchulainWeaponItem( pItem )  ||
; 1173 : 			ToOniMushaItem( pItem )			||
; 1174 : 			ToSasinmuItem(pItem)			||
; 1175 : 			ToPredatorItem(pItem) )

  000da	56		 push	 esi
  000db	8b f8		 mov	 edi, eax
  000dd	e8 00 00 00 00	 call	 ?ToBowItem@@YAPAVioBowItem@@PAVioItem@@@Z ; ToBowItem
  000e2	59		 pop	 ecx
  000e3	85 c0		 test	 eax, eax
  000e5	0f 85 46 02 00
	00		 jne	 $LN4@SendChange
  000eb	56		 push	 esi
  000ec	e8 00 00 00 00	 call	 ?ToFireWeaponItem@@YAPAVioFireWeaponItem@@PAVioItem@@@Z ; ToFireWeaponItem
  000f1	59		 pop	 ecx
  000f2	85 c0		 test	 eax, eax
  000f4	0f 85 37 02 00
	00		 jne	 $LN4@SendChange
  000fa	56		 push	 esi
  000fb	e8 00 00 00 00	 call	 ?ToLaserItem@@YAPAVioLaserItem@@PAVioItem@@@Z ; ToLaserItem
  00100	59		 pop	 ecx
  00101	85 c0		 test	 eax, eax
  00103	0f 85 28 02 00
	00		 jne	 $LN4@SendChange
  00109	56		 push	 esi
  0010a	e8 00 00 00 00	 call	 ?ToAutoShotItem@@YAPAVioAutoShotItem@@PAVioItem@@@Z ; ToAutoShotItem
  0010f	59		 pop	 ecx
  00110	85 c0		 test	 eax, eax
  00112	0f 85 19 02 00
	00		 jne	 $LN4@SendChange
  00118	56		 push	 esi
  00119	e8 00 00 00 00	 call	 ?ToUroborusItem@@YAPAVioUroborusItem@@PAVioItem@@@Z ; ToUroborusItem
  0011e	59		 pop	 ecx
  0011f	85 c0		 test	 eax, eax
  00121	0f 85 0a 02 00
	00		 jne	 $LN4@SendChange
  00127	56		 push	 esi
  00128	e8 00 00 00 00	 call	 ?ToWereWolfItem@@YAPAVioWereWolfItem@@PAVioItem@@@Z ; ToWereWolfItem
  0012d	59		 pop	 ecx
  0012e	85 c0		 test	 eax, eax
  00130	0f 85 fb 01 00
	00		 jne	 $LN4@SendChange
  00136	56		 push	 esi
  00137	e8 00 00 00 00	 call	 ?ToWitchItem@@YAPAVioWitchItem@@PAVioItem@@@Z ; ToWitchItem
  0013c	59		 pop	 ecx
  0013d	85 c0		 test	 eax, eax
  0013f	0f 85 ec 01 00
	00		 jne	 $LN4@SendChange
  00145	56		 push	 esi
  00146	e8 00 00 00 00	 call	 ?ToNakoruruItem@@YAPAVioNakoruruItem@@PAVioItem@@@Z ; ToNakoruruItem
  0014b	59		 pop	 ecx
  0014c	85 c0		 test	 eax, eax
  0014e	0f 85 dd 01 00
	00		 jne	 $LN4@SendChange
  00154	56		 push	 esi
  00155	e8 00 00 00 00	 call	 ?ToExcaliburItem@@YAPAVioExcaliburItem@@PAVioItem@@@Z ; ToExcaliburItem
  0015a	59		 pop	 ecx
  0015b	85 c0		 test	 eax, eax
  0015d	0f 85 ce 01 00
	00		 jne	 $LN4@SendChange
  00163	56		 push	 esi
  00164	e8 00 00 00 00	 call	 ?ToLuciferItem@@YAPAVioLuciferItem@@PAVioItem@@@Z ; ToLuciferItem
  00169	59		 pop	 ecx
  0016a	85 c0		 test	 eax, eax
  0016c	0f 85 bf 01 00
	00		 jne	 $LN4@SendChange
  00172	56		 push	 esi
  00173	e8 00 00 00 00	 call	 ?ToChargeComboBowItem@@YAPAVioChargeComboBowItem@@PAVioItem@@@Z ; ToChargeComboBowItem
  00178	59		 pop	 ecx
  00179	85 c0		 test	 eax, eax
  0017b	0f 85 b0 01 00
	00		 jne	 $LN4@SendChange
  00181	56		 push	 esi
  00182	e8 00 00 00 00	 call	 ?ToWestGunExtendItem@@YAPAVioWestGunExtendItem@@PAVioItem@@@Z ; ToWestGunExtendItem
  00187	59		 pop	 ecx
  00188	85 c0		 test	 eax, eax
  0018a	0f 85 a1 01 00
	00		 jne	 $LN4@SendChange
  00190	56		 push	 esi
  00191	e8 00 00 00 00	 call	 ?ToPeterpanItem@@YAPAVioPeterpanItem@@PAVioItem@@@Z ; ToPeterpanItem
  00196	59		 pop	 ecx
  00197	85 c0		 test	 eax, eax
  00199	0f 85 92 01 00
	00		 jne	 $LN4@SendChange
  0019f	56		 push	 esi
  001a0	e8 00 00 00 00	 call	 ?ToWindLordItem@@YAPAVioWindLordItem@@PAVioItem@@@Z ; ToWindLordItem
  001a5	59		 pop	 ecx
  001a6	85 c0		 test	 eax, eax
  001a8	0f 85 83 01 00
	00		 jne	 $LN4@SendChange
  001ae	56		 push	 esi
  001af	e8 00 00 00 00	 call	 ?ToProject_K_Item@@YAPAVioProject_K_Item@@PAVioItem@@@Z ; ToProject_K_Item
  001b4	59		 pop	 ecx
  001b5	85 c0		 test	 eax, eax
  001b7	0f 85 74 01 00
	00		 jne	 $LN4@SendChange
  001bd	56		 push	 esi
  001be	e8 00 00 00 00	 call	 ?ToHakumenItem@@YAPAVioHakumenItem@@PAVioItem@@@Z ; ToHakumenItem
  001c3	59		 pop	 ecx
  001c4	85 c0		 test	 eax, eax
  001c6	0f 85 65 01 00
	00		 jne	 $LN4@SendChange
  001cc	56		 push	 esi
  001cd	e8 00 00 00 00	 call	 ?ToDevilItem@@YAPAVioDevilItem@@PAVioItem@@@Z ; ToDevilItem
  001d2	59		 pop	 ecx
  001d3	85 c0		 test	 eax, eax
  001d5	0f 85 56 01 00
	00		 jne	 $LN4@SendChange
  001db	56		 push	 esi
  001dc	e8 00 00 00 00	 call	 ?ToMaidItem@@YAPAVioMaidItem@@PAVioItem@@@Z ; ToMaidItem
  001e1	59		 pop	 ecx
  001e2	85 c0		 test	 eax, eax
  001e4	0f 85 47 01 00
	00		 jne	 $LN4@SendChange
  001ea	56		 push	 esi
  001eb	e8 00 00 00 00	 call	 ?ToFlashItem@@YAPAVioFlash_Item@@PAVioItem@@@Z ; ToFlashItem
  001f0	59		 pop	 ecx
  001f1	85 c0		 test	 eax, eax
  001f3	0f 85 38 01 00
	00		 jne	 $LN4@SendChange
  001f9	56		 push	 esi
  001fa	e8 00 00 00 00	 call	 ?ToPsychoMetryItem@@YAPAVioPsychoMetry_Item@@PAVioItem@@@Z ; ToPsychoMetryItem
  001ff	59		 pop	 ecx
  00200	85 c0		 test	 eax, eax
  00202	0f 85 29 01 00
	00		 jne	 $LN4@SendChange
  00208	56		 push	 esi
  00209	e8 00 00 00 00	 call	 ?ToSuddenAttackItem@@YAPAVioSuddenAttackItem@@PAVioItem@@@Z ; ToSuddenAttackItem
  0020e	59		 pop	 ecx
  0020f	85 c0		 test	 eax, eax
  00211	0f 85 1a 01 00
	00		 jne	 $LN4@SendChange
  00217	56		 push	 esi
  00218	e8 00 00 00 00	 call	 ?ToSlasherItem@@YAPAVioSlasher_Item@@PAVioItem@@@Z ; ToSlasherItem
  0021d	59		 pop	 ecx
  0021e	85 c0		 test	 eax, eax
  00220	0f 85 0b 01 00
	00		 jne	 $LN4@SendChange
  00226	56		 push	 esi
  00227	e8 00 00 00 00	 call	 ?ToDummyCharItem2@@YAPAVioDummyCharItem2@@PAVioItem@@@Z ; ToDummyCharItem2
  0022c	59		 pop	 ecx
  0022d	85 c0		 test	 eax, eax
  0022f	0f 85 fc 00 00
	00		 jne	 $LN4@SendChange
  00235	56		 push	 esi
  00236	e8 00 00 00 00	 call	 ?ToTitanWeaponItem@@YAPAVioTitanItem@@PAVioItem@@@Z ; ToTitanWeaponItem
  0023b	59		 pop	 ecx
  0023c	85 c0		 test	 eax, eax
  0023e	0f 85 ed 00 00
	00		 jne	 $LN4@SendChange
  00244	56		 push	 esi
  00245	e8 00 00 00 00	 call	 ?ToSuperDimensionItem@@YAPAVioSuperDimensionItem@@PAVioItem@@@Z ; ToSuperDimensionItem
  0024a	59		 pop	 ecx
  0024b	85 c0		 test	 eax, eax
  0024d	0f 85 de 00 00
	00		 jne	 $LN4@SendChange
  00253	56		 push	 esi
  00254	e8 00 00 00 00	 call	 ?ToTraceItem@@YAPAVioTraceItem@@PAVioItem@@@Z ; ToTraceItem
  00259	59		 pop	 ecx
  0025a	85 c0		 test	 eax, eax
  0025c	0f 85 cf 00 00
	00		 jne	 $LN4@SendChange
  00262	56		 push	 esi
  00263	e8 00 00 00 00	 call	 ?ToKaelthasItem@@YAPAVioKaelthasItem@@PAVioItem@@@Z ; ToKaelthasItem
  00268	59		 pop	 ecx
  00269	85 c0		 test	 eax, eax
  0026b	0f 85 c0 00 00
	00		 jne	 $LN4@SendChange
  00271	56		 push	 esi
  00272	e8 00 00 00 00	 call	 ?ToStrikerItem@@YAPAVioStrikerItem@@PAVioItem@@@Z ; ToStrikerItem
  00277	59		 pop	 ecx
  00278	85 c0		 test	 eax, eax
  0027a	0f 85 b1 00 00
	00		 jne	 $LN4@SendChange
  00280	56		 push	 esi
  00281	e8 00 00 00 00	 call	 ?ToLeeItem@@YAPAVioLeeItem@@PAVioItem@@@Z ; ToLeeItem
  00286	59		 pop	 ecx
  00287	85 c0		 test	 eax, eax
  00289	0f 85 a2 00 00
	00		 jne	 $LN4@SendChange
  0028f	56		 push	 esi
  00290	e8 00 00 00 00	 call	 ?ToParkilpyoItem@@YAPAVioParkilpyoItem@@PAVioItem@@@Z ; ToParkilpyoItem
  00295	59		 pop	 ecx
  00296	85 c0		 test	 eax, eax
  00298	0f 85 93 00 00
	00		 jne	 $LN4@SendChange
  0029e	56		 push	 esi
  0029f	e8 00 00 00 00	 call	 ?ToJoroExpansionItem@@YAPAVioJoroExpansionItem@@PAVioItem@@@Z ; ToJoroExpansionItem
  002a4	59		 pop	 ecx
  002a5	85 c0		 test	 eax, eax
  002a7	0f 85 84 00 00
	00		 jne	 $LN4@SendChange
  002ad	56		 push	 esi
  002ae	e8 00 00 00 00	 call	 ?ToEarthQuakeItem@@YAPAVioEarthQuakeItem@@PAVioItem@@@Z ; ToEarthQuakeItem
  002b3	59		 pop	 ecx
  002b4	85 c0		 test	 eax, eax
  002b6	75 79		 jne	 SHORT $LN4@SendChange
  002b8	56		 push	 esi
  002b9	e8 00 00 00 00	 call	 ?ToShadowRangerItem@@YAPAVioShadowRangerItem@@PAVioItem@@@Z ; ToShadowRangerItem
  002be	59		 pop	 ecx
  002bf	85 c0		 test	 eax, eax
  002c1	75 6e		 jne	 SHORT $LN4@SendChange
  002c3	56		 push	 esi
  002c4	e8 00 00 00 00	 call	 ?ToChargeCommandItem@@YAPAVioChargeCommandItem@@PAVioItem@@@Z ; ToChargeCommandItem
  002c9	59		 pop	 ecx
  002ca	85 c0		 test	 eax, eax
  002cc	75 63		 jne	 SHORT $LN4@SendChange
  002ce	56		 push	 esi
  002cf	e8 00 00 00 00	 call	 ?ToNataItem@@YAPAVioNataItem@@PAVioItem@@@Z ; ToNataItem
  002d4	59		 pop	 ecx
  002d5	85 c0		 test	 eax, eax
  002d7	75 58		 jne	 SHORT $LN4@SendChange
  002d9	56		 push	 esi
  002da	e8 00 00 00 00	 call	 ?ToResearcher@@YAPAVioResearcher@@PAVioItem@@@Z ; ToResearcher
  002df	59		 pop	 ecx
  002e0	85 c0		 test	 eax, eax
  002e2	75 4d		 jne	 SHORT $LN4@SendChange
  002e4	56		 push	 esi
  002e5	e8 00 00 00 00	 call	 ?ToBullFightItem@@YAPAVioBullFightItem@@PAVioItem@@@Z ; ToBullFightItem
  002ea	59		 pop	 ecx
  002eb	85 c0		 test	 eax, eax
  002ed	75 42		 jne	 SHORT $LN4@SendChange
  002ef	56		 push	 esi
  002f0	e8 00 00 00 00	 call	 ?ToChainMagicianItem@@YAPAVioChainMagicianItem@@PAVioItem@@@Z ; ToChainMagicianItem
  002f5	59		 pop	 ecx
  002f6	85 c0		 test	 eax, eax
  002f8	75 37		 jne	 SHORT $LN4@SendChange
  002fa	56		 push	 esi
  002fb	e8 00 00 00 00	 call	 ?ToStriderItem@@YAPAVioStriderItem@@PAVioItem@@@Z ; ToStriderItem
  00300	59		 pop	 ecx
  00301	85 c0		 test	 eax, eax
  00303	75 2c		 jne	 SHORT $LN4@SendChange
  00305	56		 push	 esi
  00306	e8 00 00 00 00	 call	 ?ToCuchulainWeaponItem@@YAPAVioCuchulainItem@@PAVioItem@@@Z ; ToCuchulainWeaponItem
  0030b	59		 pop	 ecx
  0030c	85 c0		 test	 eax, eax
  0030e	75 21		 jne	 SHORT $LN4@SendChange
  00310	56		 push	 esi
  00311	e8 00 00 00 00	 call	 ?ToOniMushaItem@@YAPAVioOniMushaItem@@PAVioItem@@@Z ; ToOniMushaItem
  00316	59		 pop	 ecx
  00317	85 c0		 test	 eax, eax
  00319	75 16		 jne	 SHORT $LN4@SendChange
  0031b	56		 push	 esi
  0031c	e8 00 00 00 00	 call	 ?ToSasinmuItem@@YAPAVioSasinmuItem@@PAVioItem@@@Z ; ToSasinmuItem
  00321	59		 pop	 ecx
  00322	85 c0		 test	 eax, eax
  00324	75 0b		 jne	 SHORT $LN4@SendChange
  00326	56		 push	 esi
  00327	e8 00 00 00 00	 call	 ?ToPredatorItem@@YAPAVioPredatorItem@@PAVioItem@@@Z ; ToPredatorItem
  0032c	59		 pop	 ecx
  0032d	85 c0		 test	 eax, eax

; 1181 : 		}
; 1182 : 		else
; 1183 : 		{
; 1184 : 			rkItem.m_item_bullet = -1;

  0032f	74 13		 je	 SHORT $LN3@SendChange
$LN4@SendChange:

; 1176 : 		{
; 1177 : 			if( rkItem.m_item_code == pItem->GetItemCode() )

  00331	8b 46 38	 mov	 eax, DWORD PTR [esi+56]
  00334	39 07		 cmp	 DWORD PTR [edi], eax
  00336	75 0c		 jne	 SHORT $LN3@SendChange

; 1178 : 				rkItem.m_item_bullet = pItem->GetCurBullet();

  00338	8b 06		 mov	 eax, DWORD PTR [esi]
  0033a	8b ce		 mov	 ecx, esi
  0033c	ff 50 64	 call	 DWORD PTR [eax+100]
  0033f	89 47 08	 mov	 DWORD PTR [edi+8], eax

; 1179 : 			else

  00342	eb 04		 jmp	 SHORT $LN2@SendChange
$LN3@SendChange:

; 1180 : 				rkItem.m_item_bullet = -1;

  00344	83 4f 08 ff	 or	 DWORD PTR [edi+8], -1
$LN2@SendChange:

; 1185 : 		}
; 1186 : 	}

  00348	83 4d fc ff	 or	 DWORD PTR __$EHRec$[ebp+8], -1
  0034c	8d 8d d8 7f ff
	ff		 lea	 ecx, DWORD PTR _kPacket$548757[ebp]
  00352	e8 00 00 00 00	 call	 ??1SP2Packet@@UAE@XZ	; SP2Packet::~SP2Packet
$LN6@SendChange:

; 1187 : }

  00357	8b 4d f4	 mov	 ecx, DWORD PTR __$EHRec$[ebp]
  0035a	64 89 0d 00 00
	00 00		 mov	 DWORD PTR fs:0, ecx
  00361	59		 pop	 ecx
  00362	5f		 pop	 edi
  00363	5e		 pop	 esi
  00364	8b 4d f0	 mov	 ecx, DWORD PTR __$ArrayPad$[ebp]
  00367	33 cd		 xor	 ecx, ebp
  00369	e8 00 00 00 00	 call	 @__security_check_cookie@4
  0036e	c9		 leave
  0036f	c2 04 00	 ret	 4
_TEXT	ENDS
;	COMDAT text$x
text$x	SEGMENT
__unwindfunclet$?SendChangeWait@SoldierExerciseWnd@@IAEXH@Z$0:
  00000	8d 8d d8 7f ff
	ff		 lea	 ecx, DWORD PTR _kPacket$548757[ebp]
  00006	e9 00 00 00 00	 jmp	 ??1SP2Packet@@UAE@XZ	; SP2Packet::~SP2Packet
__ehhandler$?SendChangeWait@SoldierExerciseWnd@@IAEXH@Z:
  0000b	8b 54 24 08	 mov	 edx, DWORD PTR [esp+8]
  0000f	8d 42 0c	 lea	 eax, DWORD PTR [edx+12]
  00012	8b 8a d8 7f ff
	ff		 mov	 ecx, DWORD PTR [edx-32808]
  00018	33 c8		 xor	 ecx, eax
  0001a	e8 00 00 00 00	 call	 @__security_check_cookie@4
  0001f	8b 4a fc	 mov	 ecx, DWORD PTR [edx-4]
  00022	33 c8		 xor	 ecx, eax
  00024	e8 00 00 00 00	 call	 @__security_check_cookie@4
  00029	b8 00 00 00 00	 mov	 eax, OFFSET __ehfuncinfo$?SendChangeWait@SoldierExerciseWnd@@IAEXH@Z
  0002e	e9 00 00 00 00	 jmp	 ___CxxFrameHandler3
text$x	ENDS
?SendChangeWait@SoldierExerciseWnd@@IAEXH@Z ENDP	; SoldierExerciseWnd::SendChangeWait
PUBLIC	__$ArrayPad$
PUBLIC	?ChangeBoughtChar@SoldierExerciseWnd@@IAE_NH_N@Z ; SoldierExerciseWnd::ChangeBoughtChar
EXTRN	??6SP2Packet@@QAEAAV0@_N@Z:PROC			; SP2Packet::operator<<
EXTRN	__imp_?HideWnd@ioGUIManager@@QAEXK_N@Z:PROC
EXTRN	?IsCharActive@ioMyInfo@@QAE_NH@Z:PROC		; ioMyInfo::IsCharActive
EXTRN	?IsCharExerciseStyle@ioMyInfo@@QAE_NHH@Z:PROC	; ioMyInfo::IsCharExerciseStyle
;	COMDAT xdata$x
; File d:\lost saga for developer\youtube\tutorial\source\src\lsclient\ioplaystage.h
xdata$x	SEGMENT
__unwindtable$?ChangeBoughtChar@SoldierExerciseWnd@@IAE_NH_N@Z DD 0ffffffffH
	DD	FLAT:__unwindfunclet$?ChangeBoughtChar@SoldierExerciseWnd@@IAE_NH_N@Z$0
__ehfuncinfo$?ChangeBoughtChar@SoldierExerciseWnd@@IAE_NH_N@Z DD 019930522H
	DD	01H
	DD	FLAT:__unwindtable$?ChangeBoughtChar@SoldierExerciseWnd@@IAE_NH_N@Z
	DD	2 DUP(00H)
	DD	2 DUP(00H)
	DD	00H
	DD	01H
; Function compile flags: /Ogsp
; File d:\lost saga for developer\youtube\tutorial\source\src\lsclient\gui\soldierexercisewnd.cpp
xdata$x	ENDS
;	COMDAT ?ChangeBoughtChar@SoldierExerciseWnd@@IAE_NH_N@Z
_TEXT	SEGMENT
_kPacket$548866 = -32808				; size = 32792
__$ArrayPad$ = -16					; size = 4
__$EHRec$ = -12						; size = 12
_iArray$ = 8						; size = 4
_bWait$ = 12						; size = 1
?ChangeBoughtChar@SoldierExerciseWnd@@IAE_NH_N@Z PROC	; SoldierExerciseWnd::ChangeBoughtChar, COMDAT
; _this$ = ecx

; 1316 : {

  00000	55		 push	 ebp
  00001	8b ec		 mov	 ebp, esp
  00003	6a ff		 push	 -1
  00005	68 00 00 00 00	 push	 __ehhandler$?ChangeBoughtChar@SoldierExerciseWnd@@IAE_NH_N@Z
  0000a	64 a1 00 00 00
	00		 mov	 eax, DWORD PTR fs:0
  00010	50		 push	 eax
  00011	b8 1c 80 00 00	 mov	 eax, 32796		; 0000801cH
  00016	e8 00 00 00 00	 call	 __chkstk
  0001b	a1 00 00 00 00	 mov	 eax, DWORD PTR ___security_cookie
  00020	33 c5		 xor	 eax, ebp
  00022	89 45 f0	 mov	 DWORD PTR __$ArrayPad$[ebp], eax
  00025	56		 push	 esi
  00026	57		 push	 edi
  00027	50		 push	 eax
  00028	8d 45 f4	 lea	 eax, DWORD PTR __$EHRec$[ebp]
  0002b	64 a3 00 00 00
	00		 mov	 DWORD PTR fs:0, eax

; 1317 : 	if( iArray == -1 ) return false;

  00031	8b 7d 08	 mov	 edi, DWORD PTR _iArray$[ebp]
  00034	8b f1		 mov	 esi, ecx
  00036	83 ff ff	 cmp	 edi, -1
  00039	0f 84 e4 00 00
	00		 je	 $LN5@ChangeBoug

; 1318 : 
; 1319 : 	if( g_MyInfo.IsCharExerciseStyle( iArray, EXERCISE_GENERAL ) ||
; 1320 : 		g_MyInfo.IsCharExerciseStyle( iArray, EXERCISE_EVENT ) )

  0003f	6a 01		 push	 1
  00041	57		 push	 edi
  00042	e8 00 00 00 00	 call	 ?GetSingleton@ioMyInfo@@SAAAV1@XZ ; ioMyInfo::GetSingleton
  00047	8b c8		 mov	 ecx, eax
  00049	e8 00 00 00 00	 call	 ?IsCharExerciseStyle@ioMyInfo@@QAE_NHH@Z ; ioMyInfo::IsCharExerciseStyle
  0004e	84 c0		 test	 al, al
  00050	75 13		 jne	 SHORT $LN7@ChangeBoug
  00052	6a 03		 push	 3
  00054	57		 push	 edi
  00055	e8 00 00 00 00	 call	 ?GetSingleton@ioMyInfo@@SAAAV1@XZ ; ioMyInfo::GetSingleton
  0005a	8b c8		 mov	 ecx, eax
  0005c	e8 00 00 00 00	 call	 ?IsCharExerciseStyle@ioMyInfo@@QAE_NHH@Z ; ioMyInfo::IsCharExerciseStyle
  00061	84 c0		 test	 al, al
  00063	74 0d		 je	 SHORT $LN6@ChangeBoug
$LN7@ChangeBoug:

; 1321 : 	{
; 1322 : 		if( m_iExerciseStyle == EXERCISE_PCROOM )

  00065	83 be 64 01 00
	00 02		 cmp	 DWORD PTR [esi+356], 2

; 1323 : 			return false;      

  0006c	0f 84 b1 00 00
	00		 je	 $LN5@ChangeBoug
$LN6@ChangeBoug:

; 1324 : 	}
; 1325 : 
; 1326 : 	if( g_MyInfo.IsCharActive( iArray ) )

  00072	57		 push	 edi
  00073	e8 00 00 00 00	 call	 ?GetSingleton@ioMyInfo@@SAAAV1@XZ ; ioMyInfo::GetSingleton
  00078	8b c8		 mov	 ecx, eax
  0007a	e8 00 00 00 00	 call	 ?IsCharActive@ioMyInfo@@QAE_NH@Z ; ioMyInfo::IsCharActive
  0007f	84 c0		 test	 al, al
  00081	0f 84 9c 00 00
	00		 je	 $LN5@ChangeBoug

; 1327 : 	{	
; 1328 : 		if( bWait )

  00087	80 7d 0c 00	 cmp	 BYTE PTR _bWait$[ebp], 0
  0008b	74 1e		 je	 SHORT $LN4@ChangeBoug

; 1329 : 		{
; 1330 : 			SendChangeWait( iArray );

  0008d	57		 push	 edi
  0008e	8b ce		 mov	 ecx, esi
  00090	e8 00 00 00 00	 call	 ?SendChangeWait@SoldierExerciseWnd@@IAEXH@Z ; SoldierExerciseWnd::SendChangeWait

; 1331 : 			g_GUIMgr.HideWnd( SOLDIER_SELECT_WND );

  00095	6a 00		 push	 0
  00097	68 9f 13 00 00	 push	 5023			; 0000139fH
  0009c	e8 00 00 00 00	 call	 ?GetSingleton@ioSP2GUIManager@@SAAAV1@XZ ; ioSP2GUIManager::GetSingleton
  000a1	8b c8		 mov	 ecx, eax
  000a3	ff 15 00 00 00
	00		 call	 DWORD PTR __imp_?HideWnd@ioGUIManager@@QAEXK_N@Z

; 1332 : 		}
; 1333 : 		else

  000a9	eb 74		 jmp	 SHORT $LN3@ChangeBoug
$LN4@ChangeBoug:

; 1334 : 		{
; 1335 : 			//   
; 1336 : 			SP2Packet kPacket( CTPK_CHANGE_CHAR );

  000ab	6a 17		 push	 23			; 00000017H
  000ad	8d 8d d8 7f ff
	ff		 lea	 ecx, DWORD PTR _kPacket$548866[ebp]
  000b3	e8 00 00 00 00	 call	 ??0SP2Packet@@QAE@K@Z	; SP2Packet::SP2Packet
  000b8	83 65 fc 00	 and	 DWORD PTR __$EHRec$[ebp+8], 0

; 1337 : 			kPacket << iArray;

  000bc	57		 push	 edi
  000bd	8d 8d d8 7f ff
	ff		 lea	 ecx, DWORD PTR _kPacket$548866[ebp]
  000c3	e8 00 00 00 00	 call	 ??6SP2Packet@@QAEAAV0@H@Z ; SP2Packet::operator<<

; 1338 : 			kPacket << false;

  000c8	6a 00		 push	 0
  000ca	8d 8d d8 7f ff
	ff		 lea	 ecx, DWORD PTR _kPacket$548866[ebp]
  000d0	e8 00 00 00 00	 call	 ??6SP2Packet@@QAEAAV0@_N@Z ; SP2Packet::operator<<

; 1339 : 			kPacket << MAX_INT_VALUE;

  000d5	68 ff ff ff 7f	 push	 2147483647		; 7fffffffH
  000da	8d 8d d8 7f ff
	ff		 lea	 ecx, DWORD PTR _kPacket$548866[ebp]
  000e0	e8 00 00 00 00	 call	 ??6SP2Packet@@QAEAAV0@H@Z ; SP2Packet::operator<<

; 1340 : 			TCPNetwork::SendToServer( kPacket );

  000e5	8d 85 d8 7f ff
	ff		 lea	 eax, DWORD PTR _kPacket$548866[ebp]
  000eb	50		 push	 eax
  000ec	e8 00 00 00 00	 call	 ?SendToServer@TCPNetwork@@YAXAAVSP2Packet@@@Z ; TCPNetwork::SendToServer

; 1341 : 
; 1342 : 			if( m_pPlayStage)

  000f1	8b 86 60 01 00
	00		 mov	 eax, DWORD PTR [esi+352]
  000f7	59		 pop	 ecx
  000f8	85 c0		 test	 eax, eax
  000fa	74 14		 je	 SHORT $LN1@ChangeBoug

; 1343 : 			{
; 1344 : 				ioPlayMode *pPlayMode = m_pPlayStage->GetPlayMode();

  000fc	8b 80 10 01 00
	00		 mov	 eax, DWORD PTR [eax+272]

; 1345 : 				if( pPlayMode )

  00102	85 c0		 test	 eax, eax
  00104	74 0a		 je	 SHORT $LN1@ChangeBoug

; 1346 : 					pPlayMode->EndChangeCharacter();

  00106	8b 10		 mov	 edx, DWORD PTR [eax]
  00108	8b c8		 mov	 ecx, eax
  0010a	ff 92 c0 01 00
	00		 call	 DWORD PTR [edx+448]
$LN1@ChangeBoug:

; 1347 : 			}
; 1348 : 		}

  00110	83 4d fc ff	 or	 DWORD PTR __$EHRec$[ebp+8], -1
  00114	8d 8d d8 7f ff
	ff		 lea	 ecx, DWORD PTR _kPacket$548866[ebp]
  0011a	e8 00 00 00 00	 call	 ??1SP2Packet@@UAE@XZ	; SP2Packet::~SP2Packet
$LN3@ChangeBoug:

; 1349 : 		return true;

  0011f	b0 01		 mov	 al, 1
  00121	eb 02		 jmp	 SHORT $LN10@ChangeBoug
$LN5@ChangeBoug:

; 1350 : 	}
; 1351 : 	return false;

  00123	32 c0		 xor	 al, al
$LN10@ChangeBoug:

; 1352 : 
; 1353 : /*	{
; 1354 : 		SoldierLimitWnd *pLimitWnd = dynamic_cast<SoldierLimitWnd*>(g_GUIMgr.FindWnd( SOLDIER_LIMIT_WND ));
; 1355 : 		if( pLimitWnd )
; 1356 : 		{
; 1357 : 			DWORD dwIndex = g_MyInfo.GetCharIndex( iArray );
; 1358 : 			if( dwIndex != 0 && !pLimitWnd->IsShow() )
; 1359 : 			{
; 1360 : 				pLimitWnd->SetInActiveChar( dwIndex );
; 1361 : 				pLimitWnd->SettingWnd( m_pPlayStage, true );
; 1362 : 			}
; 1363 : 		}
; 1364 : 	}
; 1365 : */
; 1366 : }

  00125	8b 4d f4	 mov	 ecx, DWORD PTR __$EHRec$[ebp]
  00128	64 89 0d 00 00
	00 00		 mov	 DWORD PTR fs:0, ecx
  0012f	59		 pop	 ecx
  00130	5f		 pop	 edi
  00131	5e		 pop	 esi
  00132	8b 4d f0	 mov	 ecx, DWORD PTR __$ArrayPad$[ebp]
  00135	33 cd		 xor	 ecx, ebp
  00137	e8 00 00 00 00	 call	 @__security_check_cookie@4
  0013c	c9		 leave
  0013d	c2 08 00	 ret	 8
_TEXT	ENDS
;	COMDAT text$x
text$x	SEGMENT
__unwindfunclet$?ChangeBoughtChar@SoldierExerciseWnd@@IAE_NH_N@Z$0:
  00000	8d 8d d8 7f ff
	ff		 lea	 ecx, DWORD PTR _kPacket$548866[ebp]
  00006	e9 00 00 00 00	 jmp	 ??1SP2Packet@@UAE@XZ	; SP2Packet::~SP2Packet
__ehhandler$?ChangeBoughtChar@SoldierExerciseWnd@@IAE_NH_N@Z:
  0000b	8b 54 24 08	 mov	 edx, DWORD PTR [esp+8]
  0000f	8d 42 0c	 lea	 eax, DWORD PTR [edx+12]
  00012	8b 8a d8 7f ff
	ff		 mov	 ecx, DWORD PTR [edx-32808]
  00018	33 c8		 xor	 ecx, eax
  0001a	e8 00 00 00 00	 call	 @__security_check_cookie@4
  0001f	8b 4a fc	 mov	 ecx, DWORD PTR [edx-4]
  00022	33 c8		 xor	 ecx, eax
  00024	e8 00 00 00 00	 call	 @__security_check_cookie@4
  00029	b8 00 00 00 00	 mov	 eax, OFFSET __ehfuncinfo$?ChangeBoughtChar@SoldierExerciseWnd@@IAE_NH_N@Z
  0002e	e9 00 00 00 00	 jmp	 ___CxxFrameHandler3
text$x	ENDS
?ChangeBoughtChar@SoldierExerciseWnd@@IAE_NH_N@Z ENDP	; SoldierExerciseWnd::ChangeBoughtChar
PUBLIC	?GetSetIdx@SoldierExerciseWnd@@IAEHH@Z		; SoldierExerciseWnd::GetSetIdx
; Function compile flags: /Ogsp
;	COMDAT ?GetSetIdx@SoldierExerciseWnd@@IAEHH@Z
_TEXT	SEGMENT
_iArray$ = 8						; size = 4
?GetSetIdx@SoldierExerciseWnd@@IAEHH@Z PROC		; SoldierExerciseWnd::GetSetIdx, COMDAT
; _this$ = ecx

; 1418 : {

  00000	55		 push	 ebp
  00001	8b ec		 mov	 ebp, esp
  00003	56		 push	 esi

; 1419 : 	if( COMPARE( iArray, 0, (int) m_vItemInfoList.size() ) )

  00004	8b 75 08	 mov	 esi, DWORD PTR _iArray$[ebp]
  00007	85 f6		 test	 esi, esi
  00009	78 26		 js	 SHORT $LN1@GetSetIdx
  0000b	8b 81 cc 01 00
	00		 mov	 eax, DWORD PTR [ecx+460]
  00011	2b 81 c8 01 00
	00		 sub	 eax, DWORD PTR [ecx+456]
  00017	57		 push	 edi
  00018	6a 2c		 push	 44			; 0000002cH
  0001a	99		 cdq
  0001b	5f		 pop	 edi
  0001c	f7 ff		 idiv	 edi
  0001e	5f		 pop	 edi
  0001f	3b f0		 cmp	 esi, eax
  00021	7d 0e		 jge	 SHORT $LN1@GetSetIdx

; 1420 : 		return m_vItemInfoList[iArray].m_iSetItemIdx;

  00023	8b 81 c8 01 00
	00		 mov	 eax, DWORD PTR [ecx+456]
  00029	6b f6 2c	 imul	 esi, 44			; 0000002cH
  0002c	8b 04 06	 mov	 eax, DWORD PTR [esi+eax]
  0002f	eb 02		 jmp	 SHORT $LN2@GetSetIdx
$LN1@GetSetIdx:

; 1421 : 
; 1422 : 	return 0;

  00031	33 c0		 xor	 eax, eax
$LN2@GetSetIdx:
  00033	5e		 pop	 esi

; 1423 : }

  00034	5d		 pop	 ebp
  00035	c2 04 00	 ret	 4
?GetSetIdx@SoldierExerciseWnd@@IAEHH@Z ENDP		; SoldierExerciseWnd::GetSetIdx
_TEXT	ENDS
PUBLIC	??_C@_0CC@DBOGFECG@SoldierExerciseWnd?3?3IsCanBuyLeve@ ; `string'
PUBLIC	?IsCanBuyLevel@SoldierExerciseWnd@@IAE_NPBVSoldierExerciseBtn@@@Z ; SoldierExerciseWnd::IsCanBuyLevel
EXTRN	?SetMsgBox@ioSP2GUIManager@@QAAXHPAVioWnd@@PBDZZ:PROC ; ioSP2GUIManager::SetMsgBox
EXTRN	?GetSetInfoByCode@ioSetItemInfoManager@@QBEPBVioSetItemInfo@@K@Z:PROC ; ioSetItemInfoManager::GetSetInfoByCode
EXTRN	?GetSingeton@ioSetItemInfoManager@@SAAAV1@XZ:PROC ; ioSetItemInfoManager::GetSingeton
;	COMDAT ??_C@_0CC@DBOGFECG@SoldierExerciseWnd?3?3IsCanBuyLeve@
; File d:\lost saga for developer\youtube\tutorial\source\src\lsclient\gui\soldierexercisewnd.h
CONST	SEGMENT
??_C@_0CC@DBOGFECG@SoldierExerciseWnd?3?3IsCanBuyLeve@ DB 'SoldierExercis'
	DB	'eWnd::IsCanBuyLevel', 00H			; `string'
; Function compile flags: /Ogsp
; File d:\lost saga for developer\youtube\tutorial\source\src\lsclient\gui\soldierexercisewnd.cpp
CONST	ENDS
;	COMDAT ?IsCanBuyLevel@SoldierExerciseWnd@@IAE_NPBVSoldierExerciseBtn@@@Z
_TEXT	SEGMENT
_pItemBtn$ = 8						; size = 4
?IsCanBuyLevel@SoldierExerciseWnd@@IAE_NPBVSoldierExerciseBtn@@@Z PROC ; SoldierExerciseWnd::IsCanBuyLevel, COMDAT
; _this$ = ecx

; 1426 : {

  00000	55		 push	 ebp
  00001	8b ec		 mov	 ebp, esp

; 1427 : 	if( !pItemBtn )

  00003	8b 45 08	 mov	 eax, DWORD PTR _pItemBtn$[ebp]
  00006	85 c0		 test	 eax, eax
  00008	75 04		 jne	 SHORT $LN5@IsCanBuyLe
$LN10@IsCanBuyLe:

; 1428 : 		return false;

  0000a	32 c0		 xor	 al, al
  0000c	eb 4e		 jmp	 SHORT $LN6@IsCanBuyLe
$LN5@IsCanBuyLe:

; 1429 : 
; 1430 : 	DWORD dwSetCode = pItemBtn->GetClassType() + SET_ITEM_CODE;

  0000e	8b 80 04 02 00
	00		 mov	 eax, DWORD PTR [eax+516]
  00014	05 60 ae 0a 00	 add	 eax, 700000		; 000aae60H

; 1431 : 	const ioSetItemInfo *pInfo = g_SetItemInfoMgr.GetSetInfoByCode( dwSetCode );

  00019	50		 push	 eax
  0001a	e8 00 00 00 00	 call	 ?GetSingeton@ioSetItemInfoManager@@SAAAV1@XZ ; ioSetItemInfoManager::GetSingeton
  0001f	8b c8		 mov	 ecx, eax
  00021	e8 00 00 00 00	 call	 ?GetSetInfoByCode@ioSetItemInfoManager@@QBEPBVioSetItemInfo@@K@Z ; ioSetItemInfoManager::GetSetInfoByCode

; 1432 : 	if( !pInfo )

  00026	85 c0		 test	 eax, eax
  00028	75 30		 jne	 SHORT $LN4@IsCanBuyLe

; 1433 : 	{
; 1434 : 		g_GUIMgr.SetMsgBox( MB_OK, NULL, STR(1) );

  0002a	50		 push	 eax
  0002b	6a 01		 push	 1
  0002d	68 00 00 00 00	 push	 OFFSET ??_C@_00CNPNBAHC@?$AA@
  00032	68 00 00 00 00	 push	 OFFSET ??_C@_0CC@DBOGFECG@SoldierExerciseWnd?3?3IsCanBuyLeve@
  00037	ff 15 00 00 00
	00		 call	 DWORD PTR __imp_?GetSingleton@ioStringManager@@SAAAV1@XZ
  0003d	8b c8		 mov	 ecx, eax
  0003f	ff 15 00 00 00
	00		 call	 DWORD PTR __imp_?GetString@ioStringManager@@QAEPADPBD0HW4FileNamePrefix@1@@Z
  00045	50		 push	 eax
  00046	6a 00		 push	 0
  00048	6a 00		 push	 0
  0004a	e8 00 00 00 00	 call	 ?GetSingleton@ioSP2GUIManager@@SAAAV1@XZ ; ioSP2GUIManager::GetSingleton
  0004f	50		 push	 eax
  00050	e8 00 00 00 00	 call	 ?SetMsgBox@ioSP2GUIManager@@QAAXHPAVioWnd@@PBDZZ ; ioSP2GUIManager::SetMsgBox
  00055	83 c4 10	 add	 esp, 16			; 00000010H

; 1435 : 		return false;

  00058	eb b0		 jmp	 SHORT $LN10@IsCanBuyLe
$LN4@IsCanBuyLe:

; 1436 : 	}
; 1437 : 
; 1438 : 	// EventType eEventType = EVT_CHILDRENDAY;
; 1439 : 	EventType eEventType = EVT_EXERCISESOLDIER;
; 1440 : 	if( eEventType == EVT_CHILDRENDAY)
; 1441 : 	{
; 1442 : 		if( m_iExerciseStyle == EXERCISE_EVENT && g_EventMgr.GetValue( EVT_CHILDRENDAY, EA_CHILDRENDAY_IS_LIMIT ) == 1 )
; 1443 : 		{
; 1444 : 			if( !g_MyInfo.IsCanBuyItem( pInfo ) )
; 1445 : 			{
; 1446 : 				NoticeNeedLevel( pInfo );
; 1447 : 				return false;
; 1448 : 			}
; 1449 : 		}
; 1450 : 	}
; 1451 : 	return true;

  0005a	b0 01		 mov	 al, 1
$LN6@IsCanBuyLe:

; 1452 : }

  0005c	5d		 pop	 ebp
  0005d	c2 04 00	 ret	 4
?IsCanBuyLevel@SoldierExerciseWnd@@IAE_NPBVSoldierExerciseBtn@@@Z ENDP ; SoldierExerciseWnd::IsCanBuyLevel
_TEXT	ENDS
PUBLIC	??0?$_Vector_iterator@V?$_Vector_val@PAVioUIRenderElement@@V?$allocator@PAVioUIRenderElement@@@std@@@std@@@std@@QAE@XZ ; std::_Vector_iterator<std::_Vector_val<ioUIRenderElement *,std::allocator<ioUIRenderElement *> > >::_Vector_iterator<std::_Vector_val<ioUIRenderElement *,std::allocator<ioUIRenderElement *> > >
; Function compile flags: /Ogsp
; File c:\program files (x86)\microsoft visual studio 10.0\vc\include\vector
;	COMDAT ??0?$_Vector_iterator@V?$_Vector_val@PAVioUIRenderElement@@V?$allocator@PAVioUIRenderElement@@@std@@@std@@@std@@QAE@XZ
_TEXT	SEGMENT
??0?$_Vector_iterator@V?$_Vector_val@PAVioUIRenderElement@@V?$allocator@PAVioUIRenderElement@@@std@@@std@@@std@@QAE@XZ PROC ; std::_Vector_iterator<std::_Vector_val<ioUIRenderElement *,std::allocator<ioUIRenderElement *> > >::_Vector_iterator<std::_Vector_val<ioUIRenderElement *,std::allocator<ioUIRenderElement *> > >, COMDAT
; _this$ = ecx

; 298  : 	_Vector_iterator()

  00000	8b c1		 mov	 eax, ecx
  00002	83 20 00	 and	 DWORD PTR [eax], 0

; 299  : 		{	// construct with null vector pointer
; 300  : 		}

  00005	c3		 ret	 0
??0?$_Vector_iterator@V?$_Vector_val@PAVioUIRenderElement@@V?$allocator@PAVioUIRenderElement@@@std@@@std@@@std@@QAE@XZ ENDP ; std::_Vector_iterator<std::_Vector_val<ioUIRenderElement *,std::allocator<ioUIRenderElement *> > >::_Vector_iterator<std::_Vector_val<ioUIRenderElement *,std::allocator<ioUIRenderElement *> > >
_TEXT	ENDS
PUBLIC	??D?$_Vector_iterator@V?$_Vector_val@PAVioUIRenderElement@@V?$allocator@PAVioUIRenderElement@@@std@@@std@@@std@@QBEAAPAVioUIRenderElement@@XZ ; std::_Vector_iterator<std::_Vector_val<ioUIRenderElement *,std::allocator<ioUIRenderElement *> > >::operator*
; Function compile flags: /Ogsp
;	COMDAT ??D?$_Vector_iterator@V?$_Vector_val@PAVioUIRenderElement@@V?$allocator@PAVioUIRenderElement@@@std@@@std@@@std@@QBEAAPAVioUIRenderElement@@XZ
_TEXT	SEGMENT
??D?$_Vector_iterator@V?$_Vector_val@PAVioUIRenderElement@@V?$allocator@PAVioUIRenderElement@@@std@@@std@@@std@@QBEAAPAVioUIRenderElement@@XZ PROC ; std::_Vector_iterator<std::_Vector_val<ioUIRenderElement *,std::allocator<ioUIRenderElement *> > >::operator*, COMDAT
; _this$ = ecx

; 322  : 		return ((reference)**(_Mybase *)this);

  00000	8b 01		 mov	 eax, DWORD PTR [ecx]

; 323  : 		}

  00002	c3		 ret	 0
??D?$_Vector_iterator@V?$_Vector_val@PAVioUIRenderElement@@V?$allocator@PAVioUIRenderElement@@@std@@@std@@@std@@QBEAAPAVioUIRenderElement@@XZ ENDP ; std::_Vector_iterator<std::_Vector_val<ioUIRenderElement *,std::allocator<ioUIRenderElement *> > >::operator*
_TEXT	ENDS
PUBLIC	??E?$_Vector_iterator@V?$_Vector_val@PAVioUIRenderElement@@V?$allocator@PAVioUIRenderElement@@@std@@@std@@@std@@QAEAAV01@XZ ; std::_Vector_iterator<std::_Vector_val<ioUIRenderElement *,std::allocator<ioUIRenderElement *> > >::operator++
; Function compile flags: /Ogsp
;	COMDAT ??E?$_Vector_iterator@V?$_Vector_val@PAVioUIRenderElement@@V?$allocator@PAVioUIRenderElement@@@std@@@std@@@std@@QAEAAV01@XZ
_TEXT	SEGMENT
??E?$_Vector_iterator@V?$_Vector_val@PAVioUIRenderElement@@V?$allocator@PAVioUIRenderElement@@@std@@@std@@@std@@QAEAAV01@XZ PROC ; std::_Vector_iterator<std::_Vector_val<ioUIRenderElement *,std::allocator<ioUIRenderElement *> > >::operator++, COMDAT
; _this$ = ecx

; 331  : 		{	// preincrement

  00000	8b c1		 mov	 eax, ecx

; 332  : 		++*(_Mybase *)this;

  00002	83 00 04	 add	 DWORD PTR [eax], 4

; 333  : 		return (*this);
; 334  : 		}

  00005	c3		 ret	 0
??E?$_Vector_iterator@V?$_Vector_val@PAVioUIRenderElement@@V?$allocator@PAVioUIRenderElement@@@std@@@std@@@std@@QAEAAV01@XZ ENDP ; std::_Vector_iterator<std::_Vector_val<ioUIRenderElement *,std::allocator<ioUIRenderElement *> > >::operator++
_TEXT	ENDS
PUBLIC	?max_size@?$vector@UtagShopItemInfo@@V?$allocator@UtagShopItemInfo@@@std@@@std@@QBEIXZ ; std::vector<tagShopItemInfo,std::allocator<tagShopItemInfo> >::max_size
; Function compile flags: /Ogsp
;	COMDAT ?max_size@?$vector@UtagShopItemInfo@@V?$allocator@UtagShopItemInfo@@@std@@@std@@QBEIXZ
_TEXT	SEGMENT
?max_size@?$vector@UtagShopItemInfo@@V?$allocator@UtagShopItemInfo@@@std@@@std@@QBEIXZ PROC ; std::vector<tagShopItemInfo,std::allocator<tagShopItemInfo> >::max_size, COMDAT
; _this$ = ecx

; 884  : 		return (this->_Alval.max_size());

  00000	b8 5d 74 d1 05	 mov	 eax, 97612893		; 05d1745dH

; 885  : 		}

  00005	c3		 ret	 0
?max_size@?$vector@UtagShopItemInfo@@V?$allocator@UtagShopItemInfo@@@std@@@std@@QBEIXZ ENDP ; std::vector<tagShopItemInfo,std::allocator<tagShopItemInfo> >::max_size
_TEXT	ENDS
PUBLIC	??0?$_Vector_val@UtagShopItemInfo@@V?$allocator@UtagShopItemInfo@@@std@@@std@@QAE@V?$allocator@UtagShopItemInfo@@@1@@Z ; std::_Vector_val<tagShopItemInfo,std::allocator<tagShopItemInfo> >::_Vector_val<tagShopItemInfo,std::allocator<tagShopItemInfo> >
; Function compile flags: /Ogsp
;	COMDAT ??0?$_Vector_val@UtagShopItemInfo@@V?$allocator@UtagShopItemInfo@@@std@@@std@@QAE@V?$allocator@UtagShopItemInfo@@@1@@Z
_TEXT	SEGMENT
__Al$ = 8						; size = 1
??0?$_Vector_val@UtagShopItemInfo@@V?$allocator@UtagShopItemInfo@@@std@@@std@@QAE@V?$allocator@UtagShopItemInfo@@@1@@Z PROC ; std::_Vector_val<tagShopItemInfo,std::allocator<tagShopItemInfo> >::_Vector_val<tagShopItemInfo,std::allocator<tagShopItemInfo> >, COMDAT
; _this$ = ecx

; 426  : 		{	// construct allocator from _Al

  00000	8b c1		 mov	 eax, ecx

; 427  : 		_Myfirst = 0;

  00002	33 c9		 xor	 ecx, ecx
  00004	89 08		 mov	 DWORD PTR [eax], ecx

; 428  : 		_Mylast = 0;

  00006	89 48 04	 mov	 DWORD PTR [eax+4], ecx

; 429  : 		_Myend = 0;

  00009	89 48 08	 mov	 DWORD PTR [eax+8], ecx

; 430  : 		}

  0000c	c2 04 00	 ret	 4
??0?$_Vector_val@UtagShopItemInfo@@V?$allocator@UtagShopItemInfo@@@std@@@std@@QAE@V?$allocator@UtagShopItemInfo@@@1@@Z ENDP ; std::_Vector_val<tagShopItemInfo,std::allocator<tagShopItemInfo> >::_Vector_val<tagShopItemInfo,std::allocator<tagShopItemInfo> >
_TEXT	ENDS
PUBLIC	?allocate@?$allocator@UtagShopItemInfo@@@std@@QAEPAUtagShopItemInfo@@I@Z ; std::allocator<tagShopItemInfo>::allocate
; Function compile flags: /Ogsp
; File c:\program files (x86)\microsoft visual studio 10.0\vc\include\xmemory
;	COMDAT ?allocate@?$allocator@UtagShopItemInfo@@@std@@QAEPAUtagShopItemInfo@@I@Z
_TEXT	SEGMENT
__Count$ = 8						; size = 4
?allocate@?$allocator@UtagShopItemInfo@@@std@@QAEPAUtagShopItemInfo@@I@Z PROC ; std::allocator<tagShopItemInfo>::allocate, COMDAT
; _this$ = ecx

; 186  : 		{	// allocate array of _Count elements

  00000	55		 push	 ebp
  00001	8b ec		 mov	 ebp, esp

; 187  : 		return (_Allocate(_Count, (pointer)0));

  00003	6a 00		 push	 0
  00005	ff 75 08	 push	 DWORD PTR __Count$[ebp]
  00008	e8 00 00 00 00	 call	 ??$_Allocate@UtagShopItemInfo@@@std@@YAPAUtagShopItemInfo@@IPAU1@@Z ; std::_Allocate<tagShopItemInfo>
  0000d	59		 pop	 ecx
  0000e	59		 pop	 ecx

; 188  : 		}

  0000f	5d		 pop	 ebp
  00010	c2 04 00	 ret	 4
?allocate@?$allocator@UtagShopItemInfo@@@std@@QAEPAUtagShopItemInfo@@I@Z ENDP ; std::allocator<tagShopItemInfo>::allocate
_TEXT	ENDS
PUBLIC	??0?$_Vector_iterator@V?$_Vector_val@PAVioUIRenderElement@@V?$allocator@PAVioUIRenderElement@@@std@@@std@@@std@@QAE@PAPAVioUIRenderElement@@PBU_Container_base0@1@@Z ; std::_Vector_iterator<std::_Vector_val<ioUIRenderElement *,std::allocator<ioUIRenderElement *> > >::_Vector_iterator<std::_Vector_val<ioUIRenderElement *,std::allocator<ioUIRenderElement *> > >
; Function compile flags: /Ogsp
; File c:\program files (x86)\microsoft visual studio 10.0\vc\include\vector
;	COMDAT ??0?$_Vector_iterator@V?$_Vector_val@PAVioUIRenderElement@@V?$allocator@PAVioUIRenderElement@@@std@@@std@@@std@@QAE@PAPAVioUIRenderElement@@PBU_Container_base0@1@@Z
_TEXT	SEGMENT
__Parg$ = 8						; size = 4
__Pvector$ = 12						; size = 4
??0?$_Vector_iterator@V?$_Vector_val@PAVioUIRenderElement@@V?$allocator@PAVioUIRenderElement@@@std@@@std@@@std@@QAE@PAPAVioUIRenderElement@@PBU_Container_base0@1@@Z PROC ; std::_Vector_iterator<std::_Vector_val<ioUIRenderElement *,std::allocator<ioUIRenderElement *> > >::_Vector_iterator<std::_Vector_val<ioUIRenderElement *,std::allocator<ioUIRenderElement *> > >, COMDAT
; _this$ = ecx

; 304  : 		{	// construct with pointer _Parg

  00000	55		 push	 ebp
  00001	8b ec		 mov	 ebp, esp
  00003	8b c1		 mov	 eax, ecx
  00005	8b 4d 08	 mov	 ecx, DWORD PTR __Parg$[ebp]
  00008	89 08		 mov	 DWORD PTR [eax], ecx

; 305  : 		}

  0000a	5d		 pop	 ebp
  0000b	c2 08 00	 ret	 8
??0?$_Vector_iterator@V?$_Vector_val@PAVioUIRenderElement@@V?$allocator@PAVioUIRenderElement@@@std@@@std@@@std@@QAE@PAPAVioUIRenderElement@@PBU_Container_base0@1@@Z ENDP ; std::_Vector_iterator<std::_Vector_val<ioUIRenderElement *,std::allocator<ioUIRenderElement *> > >::_Vector_iterator<std::_Vector_val<ioUIRenderElement *,std::allocator<ioUIRenderElement *> > >
_TEXT	ENDS
PUBLIC	??8?$_Vector_const_iterator@V?$_Vector_val@PAVioUIRenderElement@@V?$allocator@PAVioUIRenderElement@@@std@@@std@@@std@@QBE_NABV01@@Z ; std::_Vector_const_iterator<std::_Vector_val<ioUIRenderElement *,std::allocator<ioUIRenderElement *> > >::operator==
; Function compile flags: /Ogsp
;	COMDAT ??8?$_Vector_const_iterator@V?$_Vector_val@PAVioUIRenderElement@@V?$allocator@PAVioUIRenderElement@@@std@@@std@@@std@@QBE_NABV01@@Z
_TEXT	SEGMENT
__Right$ = 8						; size = 4
??8?$_Vector_const_iterator@V?$_Vector_val@PAVioUIRenderElement@@V?$allocator@PAVioUIRenderElement@@@std@@@std@@@std@@QBE_NABV01@@Z PROC ; std::_Vector_const_iterator<std::_Vector_val<ioUIRenderElement *,std::allocator<ioUIRenderElement *> > >::operator==, COMDAT
; _this$ = ecx

; 201  : 		{	// test for iterator equality

  00000	55		 push	 ebp
  00001	8b ec		 mov	 ebp, esp

; 202  : 		_Compat(_Right);
; 203  : 		return (this->_Ptr == _Right._Ptr);

  00003	8b 01		 mov	 eax, DWORD PTR [ecx]
  00005	8b 4d 08	 mov	 ecx, DWORD PTR __Right$[ebp]
  00008	2b 01		 sub	 eax, DWORD PTR [ecx]
  0000a	f7 d8		 neg	 eax
  0000c	1b c0		 sbb	 eax, eax
  0000e	40		 inc	 eax

; 204  : 		}

  0000f	5d		 pop	 ebp
  00010	c2 04 00	 ret	 4
??8?$_Vector_const_iterator@V?$_Vector_val@PAVioUIRenderElement@@V?$allocator@PAVioUIRenderElement@@@std@@@std@@@std@@QBE_NABV01@@Z ENDP ; std::_Vector_const_iterator<std::_Vector_val<ioUIRenderElement *,std::allocator<ioUIRenderElement *> > >::operator==
_TEXT	ENDS
PUBLIC	??0?$_Vector_iterator@V?$_Vector_val@UtagShopItemInfo@@V?$allocator@UtagShopItemInfo@@@std@@@std@@@std@@QAE@PAUtagShopItemInfo@@PBU_Container_base0@1@@Z ; std::_Vector_iterator<std::_Vector_val<tagShopItemInfo,std::allocator<tagShopItemInfo> > >::_Vector_iterator<std::_Vector_val<tagShopItemInfo,std::allocator<tagShopItemInfo> > >
; Function compile flags: /Ogsp
;	COMDAT ??0?$_Vector_iterator@V?$_Vector_val@UtagShopItemInfo@@V?$allocator@UtagShopItemInfo@@@std@@@std@@@std@@QAE@PAUtagShopItemInfo@@PBU_Container_base0@1@@Z
_TEXT	SEGMENT
__Parg$ = 8						; size = 4
__Pvector$ = 12						; size = 4
??0?$_Vector_iterator@V?$_Vector_val@UtagShopItemInfo@@V?$allocator@UtagShopItemInfo@@@std@@@std@@@std@@QAE@PAUtagShopItemInfo@@PBU_Container_base0@1@@Z PROC ; std::_Vector_iterator<std::_Vector_val<tagShopItemInfo,std::allocator<tagShopItemInfo> > >::_Vector_iterator<std::_Vector_val<tagShopItemInfo,std::allocator<tagShopItemInfo> > >, COMDAT
; _this$ = ecx

; 304  : 		{	// construct with pointer _Parg

  00000	55		 push	 ebp
  00001	8b ec		 mov	 ebp, esp
  00003	8b c1		 mov	 eax, ecx
  00005	8b 4d 08	 mov	 ecx, DWORD PTR __Parg$[ebp]
  00008	89 08		 mov	 DWORD PTR [eax], ecx

; 305  : 		}

  0000a	5d		 pop	 ebp
  0000b	c2 08 00	 ret	 8
??0?$_Vector_iterator@V?$_Vector_val@UtagShopItemInfo@@V?$allocator@UtagShopItemInfo@@@std@@@std@@@std@@QAE@PAUtagShopItemInfo@@PBU_Container_base0@1@@Z ENDP ; std::_Vector_iterator<std::_Vector_val<tagShopItemInfo,std::allocator<tagShopItemInfo> > >::_Vector_iterator<std::_Vector_val<tagShopItemInfo,std::allocator<tagShopItemInfo> > >
_TEXT	ENDS
PUBLIC	?_Make_iter@?$vector@UtagShopItemInfo@@V?$allocator@UtagShopItemInfo@@@std@@@std@@QBE?AV?$_Vector_iterator@V?$_Vector_val@UtagShopItemInfo@@V?$allocator@UtagShopItemInfo@@@std@@@std@@@2@V?$_Vector_const_iterator@V?$_Vector_val@UtagShopItemInfo@@V?$allocator@UtagShopItemInfo@@@std@@@std@@@2@@Z ; std::vector<tagShopItemInfo,std::allocator<tagShopItemInfo> >::_Make_iter
; Function compile flags: /Ogsp
;	COMDAT ?_Make_iter@?$vector@UtagShopItemInfo@@V?$allocator@UtagShopItemInfo@@@std@@@std@@QBE?AV?$_Vector_iterator@V?$_Vector_val@UtagShopItemInfo@@V?$allocator@UtagShopItemInfo@@@std@@@std@@@2@V?$_Vector_const_iterator@V?$_Vector_val@UtagShopItemInfo@@V?$allocator@UtagShopItemInfo@@@std@@@std@@@2@@Z
_TEXT	SEGMENT
___$ReturnUdt$ = 8					; size = 4
__Where$ = 12						; size = 4
?_Make_iter@?$vector@UtagShopItemInfo@@V?$allocator@UtagShopItemInfo@@@std@@@std@@QBE?AV?$_Vector_iterator@V?$_Vector_val@UtagShopItemInfo@@V?$allocator@UtagShopItemInfo@@@std@@@std@@@2@V?$_Vector_const_iterator@V?$_Vector_val@UtagShopItemInfo@@V?$allocator@UtagShopItemInfo@@@std@@@std@@@2@@Z PROC ; std::vector<tagShopItemInfo,std::allocator<tagShopItemInfo> >::_Make_iter, COMDAT
; _this$ = ecx

; 801  : 		{	// make iterator from const_iterator

  00000	55		 push	 ebp
  00001	8b ec		 mov	 ebp, esp

; 802  : 		return (iterator(_Where._Ptr, this));

  00003	8b 45 08	 mov	 eax, DWORD PTR ___$ReturnUdt$[ebp]
  00006	8b 4d 0c	 mov	 ecx, DWORD PTR __Where$[ebp]
  00009	89 08		 mov	 DWORD PTR [eax], ecx

; 803  : 		}

  0000b	5d		 pop	 ebp
  0000c	c2 08 00	 ret	 8
?_Make_iter@?$vector@UtagShopItemInfo@@V?$allocator@UtagShopItemInfo@@@std@@@std@@QBE?AV?$_Vector_iterator@V?$_Vector_val@UtagShopItemInfo@@V?$allocator@UtagShopItemInfo@@@std@@@std@@@2@V?$_Vector_const_iterator@V?$_Vector_val@UtagShopItemInfo@@V?$allocator@UtagShopItemInfo@@@std@@@std@@@2@@Z ENDP ; std::vector<tagShopItemInfo,std::allocator<tagShopItemInfo> >::_Make_iter
_TEXT	ENDS
PUBLIC	?_Grow_to@?$vector@UtagShopItemInfo@@V?$allocator@UtagShopItemInfo@@@std@@@std@@IBEII@Z ; std::vector<tagShopItemInfo,std::allocator<tagShopItemInfo> >::_Grow_to
; Function compile flags: /Ogsp
;	COMDAT ?_Grow_to@?$vector@UtagShopItemInfo@@V?$allocator@UtagShopItemInfo@@@std@@@std@@IBEII@Z
_TEXT	SEGMENT
__Count$ = 8						; size = 4
?_Grow_to@?$vector@UtagShopItemInfo@@V?$allocator@UtagShopItemInfo@@@std@@@std@@IBEII@Z PROC ; std::vector<tagShopItemInfo,std::allocator<tagShopItemInfo> >::_Grow_to, COMDAT
; _this$ = ecx

; 1274 : 		{	// grow by 50% or at least to _Count

  00000	55		 push	 ebp
  00001	8b ec		 mov	 ebp, esp

; 1275 : 		size_type _Capacity = capacity();

  00003	8b 41 08	 mov	 eax, DWORD PTR [ecx+8]
  00006	2b 01		 sub	 eax, DWORD PTR [ecx]
  00008	6a 2c		 push	 44			; 0000002cH
  0000a	99		 cdq
  0000b	59		 pop	 ecx
  0000c	f7 f9		 idiv	 ecx

; 1276 : 
; 1277 : 		_Capacity = max_size() - _Capacity / 2 < _Capacity
; 1278 : 			? 0 : _Capacity + _Capacity / 2;	// try to grow by 50%

  0000e	ba 5d 74 d1 05	 mov	 edx, 97612893		; 05d1745dH
  00013	8b c8		 mov	 ecx, eax
  00015	d1 e9		 shr	 ecx, 1
  00017	2b d1		 sub	 edx, ecx
  00019	3b d0		 cmp	 edx, eax
  0001b	73 04		 jae	 SHORT $LN4@Grow_to
  0001d	33 c0		 xor	 eax, eax
  0001f	eb 02		 jmp	 SHORT $LN5@Grow_to
$LN4@Grow_to:
  00021	03 c1		 add	 eax, ecx
$LN5@Grow_to:

; 1279 : 		if (_Capacity < _Count)

  00023	3b 45 08	 cmp	 eax, DWORD PTR __Count$[ebp]

; 1280 : 			_Capacity = _Count;

  00026	0f 42 45 08	 cmovb	 eax, DWORD PTR __Count$[ebp]

; 1281 : 		return (_Capacity);
; 1282 : 		}

  0002a	5d		 pop	 ebp
  0002b	c2 04 00	 ret	 4
?_Grow_to@?$vector@UtagShopItemInfo@@V?$allocator@UtagShopItemInfo@@@std@@@std@@IBEII@Z ENDP ; std::vector<tagShopItemInfo,std::allocator<tagShopItemInfo> >::_Grow_to
_TEXT	ENDS
PUBLIC	??8?$_Vector_const_iterator@V?$_Vector_val@UtagShopItemInfo@@V?$allocator@UtagShopItemInfo@@@std@@@std@@@std@@QBE_NABV01@@Z ; std::_Vector_const_iterator<std::_Vector_val<tagShopItemInfo,std::allocator<tagShopItemInfo> > >::operator==
; Function compile flags: /Ogsp
;	COMDAT ??8?$_Vector_const_iterator@V?$_Vector_val@UtagShopItemInfo@@V?$allocator@UtagShopItemInfo@@@std@@@std@@@std@@QBE_NABV01@@Z
_TEXT	SEGMENT
__Right$ = 8						; size = 4
??8?$_Vector_const_iterator@V?$_Vector_val@UtagShopItemInfo@@V?$allocator@UtagShopItemInfo@@@std@@@std@@@std@@QBE_NABV01@@Z PROC ; std::_Vector_const_iterator<std::_Vector_val<tagShopItemInfo,std::allocator<tagShopItemInfo> > >::operator==, COMDAT
; _this$ = ecx

; 201  : 		{	// test for iterator equality

  00000	55		 push	 ebp
  00001	8b ec		 mov	 ebp, esp

; 202  : 		_Compat(_Right);
; 203  : 		return (this->_Ptr == _Right._Ptr);

  00003	8b 01		 mov	 eax, DWORD PTR [ecx]
  00005	8b 4d 08	 mov	 ecx, DWORD PTR __Right$[ebp]
  00008	2b 01		 sub	 eax, DWORD PTR [ecx]
  0000a	f7 d8		 neg	 eax
  0000c	1b c0		 sbb	 eax, eax
  0000e	40		 inc	 eax

; 204  : 		}

  0000f	5d		 pop	 ebp
  00010	c2 04 00	 ret	 4
??8?$_Vector_const_iterator@V?$_Vector_val@UtagShopItemInfo@@V?$allocator@UtagShopItemInfo@@@std@@@std@@@std@@QBE_NABV01@@Z ENDP ; std::_Vector_const_iterator<std::_Vector_val<tagShopItemInfo,std::allocator<tagShopItemInfo> > >::operator==
_TEXT	ENDS
PUBLIC	__$ArrayPad$
PUBLIC	??$?8$04@@YA_NABVioHashString@@AAY04$$CBD@Z	; operator==<5>
EXTRN	__imp_?c_str@ioHashString@@QBEPBDXZ:PROC
; Function compile flags: /Ogsp
; File d:\lost saga for developer\youtube\tutorial\source\src\io3dengine\iohashstring.h
;	COMDAT ??$?8$04@@YA_NABVioHashString@@AAY04$$CBD@Z
_TEXT	SEGMENT
__t$ = -16						; size = 5
__$ArrayPad$ = -4					; size = 4
_lhs$ = 8						; size = 4
_t$ = 12						; size = 4
??$?8$04@@YA_NABVioHashString@@AAY04$$CBD@Z PROC	; operator==<5>, COMDAT

; 146  : {

  00000	55		 push	 ebp
  00001	8b ec		 mov	 ebp, esp
  00003	83 ec 10	 sub	 esp, 16			; 00000010H
  00006	a1 00 00 00 00	 mov	 eax, DWORD PTR ___security_cookie
  0000b	33 c5		 xor	 eax, ebp
  0000d	89 45 fc	 mov	 DWORD PTR __$ArrayPad$[ebp], eax
  00010	8b 45 0c	 mov	 eax, DWORD PTR _t$[ebp]

; 147  : 	_ENCSTR(t, _t); return ( strcmp( lhs.c_str(), _t ) == 0 );

  00013	8a 10		 mov	 dl, BYTE PTR [eax]
  00015	8b 4d 08	 mov	 ecx, DWORD PTR _lhs$[ebp]
  00018	84 d2		 test	 dl, dl
  0001a	0f 84 92 00 00
	00		 je	 $LN96@operator@2
  00020	80 f2 ed	 xor	 dl, -19			; ffffffedH
  00023	88 55 f0	 mov	 BYTE PTR __t$[ebp], dl
  00026	8a 50 01	 mov	 dl, BYTE PTR [eax+1]
  00029	84 d2		 test	 dl, dl
  0002b	74 7f		 je	 SHORT $LN95@operator@2
  0002d	80 f2 ec	 xor	 dl, -20			; ffffffecH
  00030	88 55 f1	 mov	 BYTE PTR __t$[ebp+1], dl
  00033	8a 50 02	 mov	 dl, BYTE PTR [eax+2]
  00036	84 d2		 test	 dl, dl
  00038	74 6c		 je	 SHORT $LN94@operator@2
  0003a	80 f2 eb	 xor	 dl, -21			; ffffffebH
  0003d	88 55 f2	 mov	 BYTE PTR __t$[ebp+2], dl
  00040	8a 50 03	 mov	 dl, BYTE PTR [eax+3]
  00043	84 d2		 test	 dl, dl
  00045	74 59		 je	 SHORT $LN93@operator@2
  00047	80 f2 ea	 xor	 dl, -22			; ffffffeaH
  0004a	80 78 04 00	 cmp	 BYTE PTR [eax+4], 0
  0004e	88 55 f3	 mov	 BYTE PTR __t$[ebp+3], dl
  00051	74 63		 je	 SHORT $LN1@operator@2
  00053	8a 50 05	 mov	 dl, BYTE PTR [eax+5]
  00056	84 d2		 test	 dl, dl
  00058	74 40		 je	 SHORT $LN91@operator@2
  0005a	80 f2 ec	 xor	 dl, -20			; ffffffecH
  0005d	88 55 f5	 mov	 BYTE PTR __t$[ebp+5], dl
  00060	8a 50 06	 mov	 dl, BYTE PTR [eax+6]
  00063	84 d2		 test	 dl, dl
  00065	74 2d		 je	 SHORT $LN90@operator@2
  00067	80 f2 eb	 xor	 dl, -21			; ffffffebH
  0006a	88 55 f6	 mov	 BYTE PTR __t$[ebp+6], dl
  0006d	8a 50 07	 mov	 dl, BYTE PTR [eax+7]
  00070	84 d2		 test	 dl, dl
  00072	74 1a		 je	 SHORT $LN89@operator@2
  00074	8a 40 08	 mov	 al, BYTE PTR [eax+8]
  00077	80 f2 ea	 xor	 dl, -22			; ffffffeaH
  0007a	88 55 f7	 mov	 BYTE PTR __t$[ebp+7], dl
  0007d	84 c0		 test	 al, al
  0007f	74 07		 je	 SHORT $LN88@operator@2
  00081	34 ed		 xor	 al, -19			; ffffffedH
  00083	88 45 f8	 mov	 BYTE PTR __t$[ebp+8], al
  00086	eb 2e		 jmp	 SHORT $LN1@operator@2
$LN88@operator@2:
  00088	c6 45 f8 ed	 mov	 BYTE PTR __t$[ebp+8], -19 ; ffffffedH
  0008c	eb 28		 jmp	 SHORT $LN1@operator@2
$LN89@operator@2:
  0008e	c6 45 f7 ea	 mov	 BYTE PTR __t$[ebp+7], -22 ; ffffffeaH
  00092	eb 22		 jmp	 SHORT $LN1@operator@2
$LN90@operator@2:
  00094	c6 45 f6 eb	 mov	 BYTE PTR __t$[ebp+6], -21 ; ffffffebH
  00098	eb 1c		 jmp	 SHORT $LN1@operator@2
$LN91@operator@2:
  0009a	c6 45 f5 ec	 mov	 BYTE PTR __t$[ebp+5], -20 ; ffffffecH
  0009e	eb 16		 jmp	 SHORT $LN1@operator@2
$LN93@operator@2:
  000a0	c6 45 f3 ea	 mov	 BYTE PTR __t$[ebp+3], -22 ; ffffffeaH
  000a4	eb 10		 jmp	 SHORT $LN1@operator@2
$LN94@operator@2:
  000a6	c6 45 f2 eb	 mov	 BYTE PTR __t$[ebp+2], -21 ; ffffffebH
  000aa	eb 0a		 jmp	 SHORT $LN1@operator@2
$LN95@operator@2:
  000ac	c6 45 f1 ec	 mov	 BYTE PTR __t$[ebp+1], -20 ; ffffffecH
  000b0	eb 04		 jmp	 SHORT $LN1@operator@2
$LN96@operator@2:
  000b2	c6 45 f0 ed	 mov	 BYTE PTR __t$[ebp], -19	; ffffffedH
$LN1@operator@2:
  000b6	81 75 f0 ed ec
	eb ea		 xor	 DWORD PTR __t$[ebp], -353637139 ; eaebecedH
  000bd	56		 push	 esi
  000be	c6 45 f4 00	 mov	 BYTE PTR __t$[ebp+4], 0
  000c2	8d 75 f0	 lea	 esi, DWORD PTR __t$[ebp]
  000c5	ff 15 00 00 00
	00		 call	 DWORD PTR __imp_?c_str@ioHashString@@QBEPBDXZ
$LL111@operator@2:
  000cb	8a 08		 mov	 cl, BYTE PTR [eax]
  000cd	3a 0e		 cmp	 cl, BYTE PTR [esi]
  000cf	75 1a		 jne	 SHORT $LN112@operator@2
  000d1	84 c9		 test	 cl, cl
  000d3	74 12		 je	 SHORT $LN113@operator@2
  000d5	8a 48 01	 mov	 cl, BYTE PTR [eax+1]
  000d8	3a 4e 01	 cmp	 cl, BYTE PTR [esi+1]
  000db	75 0e		 jne	 SHORT $LN112@operator@2
  000dd	83 c0 02	 add	 eax, 2
  000e0	83 c6 02	 add	 esi, 2
  000e3	84 c9		 test	 cl, cl
  000e5	75 e4		 jne	 SHORT $LL111@operator@2
$LN113@operator@2:
  000e7	33 c0		 xor	 eax, eax
  000e9	eb 05		 jmp	 SHORT $LN114@operator@2
$LN112@operator@2:
  000eb	1b c0		 sbb	 eax, eax
  000ed	83 d8 ff	 sbb	 eax, -1
$LN114@operator@2:
  000f0	33 c9		 xor	 ecx, ecx
  000f2	85 c0		 test	 eax, eax
  000f4	0f 94 c0	 sete	 al

; 148  : }

  000f7	8b 4d fc	 mov	 ecx, DWORD PTR __$ArrayPad$[ebp]
  000fa	33 cd		 xor	 ecx, ebp
  000fc	5e		 pop	 esi
  000fd	e8 00 00 00 00	 call	 @__security_check_cookie@4
  00102	c9		 leave
  00103	c3		 ret	 0
??$?8$04@@YA_NABVioHashString@@AAY04$$CBD@Z ENDP	; operator==<5>
_TEXT	ENDS
PUBLIC	__$ArrayPad$
PUBLIC	??$?8$05@@YA_NABVioHashString@@AAY05$$CBD@Z	; operator==<6>
; Function compile flags: /Ogsp
;	COMDAT ??$?8$05@@YA_NABVioHashString@@AAY05$$CBD@Z
_TEXT	SEGMENT
__t$ = -16						; size = 6
__$ArrayPad$ = -4					; size = 4
_lhs$ = 8						; size = 4
_t$ = 12						; size = 4
??$?8$05@@YA_NABVioHashString@@AAY05$$CBD@Z PROC	; operator==<6>, COMDAT

; 146  : {

  00000	55		 push	 ebp
  00001	8b ec		 mov	 ebp, esp
  00003	83 ec 10	 sub	 esp, 16			; 00000010H
  00006	a1 00 00 00 00	 mov	 eax, DWORD PTR ___security_cookie
  0000b	33 c5		 xor	 eax, ebp
  0000d	89 45 fc	 mov	 DWORD PTR __$ArrayPad$[ebp], eax
  00010	8b 45 0c	 mov	 eax, DWORD PTR _t$[ebp]

; 147  : 	_ENCSTR(t, _t); return ( strcmp( lhs.c_str(), _t ) == 0 );

  00013	8a 10		 mov	 dl, BYTE PTR [eax]
  00015	8b 4d 08	 mov	 ecx, DWORD PTR _lhs$[ebp]
  00018	84 d2		 test	 dl, dl
  0001a	0f 84 a9 00 00
	00		 je	 $LN96@operator@3
  00020	80 f2 ed	 xor	 dl, -19			; ffffffedH
  00023	88 55 f0	 mov	 BYTE PTR __t$[ebp], dl
  00026	8a 50 01	 mov	 dl, BYTE PTR [eax+1]
  00029	84 d2		 test	 dl, dl
  0002b	0f 84 92 00 00
	00		 je	 $LN95@operator@3
  00031	80 f2 ec	 xor	 dl, -20			; ffffffecH
  00034	88 55 f1	 mov	 BYTE PTR __t$[ebp+1], dl
  00037	8a 50 02	 mov	 dl, BYTE PTR [eax+2]
  0003a	84 d2		 test	 dl, dl
  0003c	74 7f		 je	 SHORT $LN94@operator@3
  0003e	80 f2 eb	 xor	 dl, -21			; ffffffebH
  00041	88 55 f2	 mov	 BYTE PTR __t$[ebp+2], dl
  00044	8a 50 03	 mov	 dl, BYTE PTR [eax+3]
  00047	84 d2		 test	 dl, dl
  00049	74 6c		 je	 SHORT $LN93@operator@3
  0004b	80 f2 ea	 xor	 dl, -22			; ffffffeaH
  0004e	88 55 f3	 mov	 BYTE PTR __t$[ebp+3], dl
  00051	8a 50 04	 mov	 dl, BYTE PTR [eax+4]
  00054	84 d2		 test	 dl, dl
  00056	74 59		 je	 SHORT $LN92@operator@3
  00058	80 f2 ed	 xor	 dl, -19			; ffffffedH
  0005b	80 78 05 00	 cmp	 BYTE PTR [eax+5], 0
  0005f	88 55 f4	 mov	 BYTE PTR __t$[ebp+4], dl
  00062	74 69		 je	 SHORT $LN1@operator@3
  00064	8a 50 06	 mov	 dl, BYTE PTR [eax+6]
  00067	84 d2		 test	 dl, dl
  00069	74 40		 je	 SHORT $LN90@operator@3
  0006b	80 f2 eb	 xor	 dl, -21			; ffffffebH
  0006e	88 55 f6	 mov	 BYTE PTR __t$[ebp+6], dl
  00071	8a 50 07	 mov	 dl, BYTE PTR [eax+7]
  00074	84 d2		 test	 dl, dl
  00076	74 2d		 je	 SHORT $LN89@operator@3
  00078	80 f2 ea	 xor	 dl, -22			; ffffffeaH
  0007b	88 55 f7	 mov	 BYTE PTR __t$[ebp+7], dl
  0007e	8a 50 08	 mov	 dl, BYTE PTR [eax+8]
  00081	84 d2		 test	 dl, dl
  00083	74 1a		 je	 SHORT $LN88@operator@3
  00085	8a 40 09	 mov	 al, BYTE PTR [eax+9]
  00088	80 f2 ed	 xor	 dl, -19			; ffffffedH
  0008b	88 55 f8	 mov	 BYTE PTR __t$[ebp+8], dl
  0008e	84 c0		 test	 al, al
  00090	74 07		 je	 SHORT $LN87@operator@3
  00092	34 ec		 xor	 al, -20			; ffffffecH
  00094	88 45 f9	 mov	 BYTE PTR __t$[ebp+9], al
  00097	eb 34		 jmp	 SHORT $LN1@operator@3
$LN87@operator@3:
  00099	c6 45 f9 ec	 mov	 BYTE PTR __t$[ebp+9], -20 ; ffffffecH
  0009d	eb 2e		 jmp	 SHORT $LN1@operator@3
$LN88@operator@3:
  0009f	c6 45 f8 ed	 mov	 BYTE PTR __t$[ebp+8], -19 ; ffffffedH
  000a3	eb 28		 jmp	 SHORT $LN1@operator@3
$LN89@operator@3:
  000a5	c6 45 f7 ea	 mov	 BYTE PTR __t$[ebp+7], -22 ; ffffffeaH
  000a9	eb 22		 jmp	 SHORT $LN1@operator@3
$LN90@operator@3:
  000ab	c6 45 f6 eb	 mov	 BYTE PTR __t$[ebp+6], -21 ; ffffffebH
  000af	eb 1c		 jmp	 SHORT $LN1@operator@3
$LN92@operator@3:
  000b1	c6 45 f4 ed	 mov	 BYTE PTR __t$[ebp+4], -19 ; ffffffedH
  000b5	eb 16		 jmp	 SHORT $LN1@operator@3
$LN93@operator@3:
  000b7	c6 45 f3 ea	 mov	 BYTE PTR __t$[ebp+3], -22 ; ffffffeaH
  000bb	eb 10		 jmp	 SHORT $LN1@operator@3
$LN94@operator@3:
  000bd	c6 45 f2 eb	 mov	 BYTE PTR __t$[ebp+2], -21 ; ffffffebH
  000c1	eb 0a		 jmp	 SHORT $LN1@operator@3
$LN95@operator@3:
  000c3	c6 45 f1 ec	 mov	 BYTE PTR __t$[ebp+1], -20 ; ffffffecH
  000c7	eb 04		 jmp	 SHORT $LN1@operator@3
$LN96@operator@3:
  000c9	c6 45 f0 ed	 mov	 BYTE PTR __t$[ebp], -19	; ffffffedH
$LN1@operator@3:
  000cd	81 75 f0 ed ec
	eb ea		 xor	 DWORD PTR __t$[ebp], -353637139 ; eaebecedH
  000d4	80 75 f4 ed	 xor	 BYTE PTR __t$[ebp+4], -19 ; ffffffedH
  000d8	56		 push	 esi
  000d9	c6 45 f5 00	 mov	 BYTE PTR __t$[ebp+5], 0
  000dd	8d 75 f0	 lea	 esi, DWORD PTR __t$[ebp]
  000e0	ff 15 00 00 00
	00		 call	 DWORD PTR __imp_?c_str@ioHashString@@QBEPBDXZ
$LL111@operator@3:
  000e6	8a 08		 mov	 cl, BYTE PTR [eax]
  000e8	3a 0e		 cmp	 cl, BYTE PTR [esi]
  000ea	75 1a		 jne	 SHORT $LN112@operator@3
  000ec	84 c9		 test	 cl, cl
  000ee	74 12		 je	 SHORT $LN113@operator@3
  000f0	8a 48 01	 mov	 cl, BYTE PTR [eax+1]
  000f3	3a 4e 01	 cmp	 cl, BYTE PTR [esi+1]
  000f6	75 0e		 jne	 SHORT $LN112@operator@3
  000f8	83 c0 02	 add	 eax, 2
  000fb	83 c6 02	 add	 esi, 2
  000fe	84 c9		 test	 cl, cl
  00100	75 e4		 jne	 SHORT $LL111@operator@3
$LN113@operator@3:
  00102	33 c0		 xor	 eax, eax
  00104	eb 05		 jmp	 SHORT $LN114@operator@3
$LN112@operator@3:
  00106	1b c0		 sbb	 eax, eax
  00108	83 d8 ff	 sbb	 eax, -1
$LN114@operator@3:
  0010b	33 c9		 xor	 ecx, ecx
  0010d	85 c0		 test	 eax, eax
  0010f	0f 94 c0	 sete	 al

; 148  : }

  00112	8b 4d fc	 mov	 ecx, DWORD PTR __$ArrayPad$[ebp]
  00115	33 cd		 xor	 ecx, ebp
  00117	5e		 pop	 esi
  00118	e8 00 00 00 00	 call	 @__security_check_cookie@4
  0011d	c9		 leave
  0011e	c3		 ret	 0
??$?8$05@@YA_NABVioHashString@@AAY05$$CBD@Z ENDP	; operator==<6>
_TEXT	ENDS
PUBLIC	__$ArrayPad$
PUBLIC	??$?8$07@@YA_NABVioHashString@@AAY07$$CBD@Z	; operator==<8>
; Function compile flags: /Ogsp
;	COMDAT ??$?8$07@@YA_NABVioHashString@@AAY07$$CBD@Z
_TEXT	SEGMENT
__t$ = -16						; size = 8
__$ArrayPad$ = -4					; size = 4
_lhs$ = 8						; size = 4
_t$ = 12						; size = 4
??$?8$07@@YA_NABVioHashString@@AAY07$$CBD@Z PROC	; operator==<8>, COMDAT

; 146  : {

  00000	55		 push	 ebp
  00001	8b ec		 mov	 ebp, esp
  00003	83 ec 10	 sub	 esp, 16			; 00000010H
  00006	a1 00 00 00 00	 mov	 eax, DWORD PTR ___security_cookie
  0000b	33 c5		 xor	 eax, ebp
  0000d	89 45 fc	 mov	 DWORD PTR __$ArrayPad$[ebp], eax
  00010	8b 45 0c	 mov	 eax, DWORD PTR _t$[ebp]

; 147  : 	_ENCSTR(t, _t); return ( strcmp( lhs.c_str(), _t ) == 0 );

  00013	8a 10		 mov	 dl, BYTE PTR [eax]
  00015	56		 push	 esi
  00016	57		 push	 edi
  00017	8b 7d 08	 mov	 edi, DWORD PTR _lhs$[ebp]
  0001a	84 d2		 test	 dl, dl
  0001c	0f 84 d7 00 00
	00		 je	 $LN96@operator@4
  00022	80 f2 ed	 xor	 dl, -19			; ffffffedH
  00025	88 55 f0	 mov	 BYTE PTR __t$[ebp], dl
  00028	8a 50 01	 mov	 dl, BYTE PTR [eax+1]
  0002b	84 d2		 test	 dl, dl
  0002d	0f 84 c0 00 00
	00		 je	 $LN95@operator@4
  00033	80 f2 ec	 xor	 dl, -20			; ffffffecH
  00036	88 55 f1	 mov	 BYTE PTR __t$[ebp+1], dl
  00039	8a 50 02	 mov	 dl, BYTE PTR [eax+2]
  0003c	84 d2		 test	 dl, dl
  0003e	0f 84 a9 00 00
	00		 je	 $LN94@operator@4
  00044	80 f2 eb	 xor	 dl, -21			; ffffffebH
  00047	88 55 f2	 mov	 BYTE PTR __t$[ebp+2], dl
  0004a	8a 50 03	 mov	 dl, BYTE PTR [eax+3]
  0004d	84 d2		 test	 dl, dl
  0004f	0f 84 92 00 00
	00		 je	 $LN93@operator@4
  00055	80 f2 ea	 xor	 dl, -22			; ffffffeaH
  00058	88 55 f3	 mov	 BYTE PTR __t$[ebp+3], dl
  0005b	8a 50 04	 mov	 dl, BYTE PTR [eax+4]
  0005e	84 d2		 test	 dl, dl
  00060	74 7f		 je	 SHORT $LN92@operator@4
  00062	80 f2 ed	 xor	 dl, -19			; ffffffedH
  00065	88 55 f4	 mov	 BYTE PTR __t$[ebp+4], dl
  00068	8a 50 05	 mov	 dl, BYTE PTR [eax+5]
  0006b	84 d2		 test	 dl, dl
  0006d	74 6c		 je	 SHORT $LN91@operator@4
  0006f	80 f2 ec	 xor	 dl, -20			; ffffffecH
  00072	88 55 f5	 mov	 BYTE PTR __t$[ebp+5], dl
  00075	8a 50 06	 mov	 dl, BYTE PTR [eax+6]
  00078	84 d2		 test	 dl, dl
  0007a	74 59		 je	 SHORT $LN90@operator@4
  0007c	80 f2 eb	 xor	 dl, -21			; ffffffebH
  0007f	80 78 07 00	 cmp	 BYTE PTR [eax+7], 0
  00083	88 55 f6	 mov	 BYTE PTR __t$[ebp+6], dl
  00086	74 75		 je	 SHORT $LN1@operator@4
  00088	8a 50 08	 mov	 dl, BYTE PTR [eax+8]
  0008b	84 d2		 test	 dl, dl
  0008d	74 40		 je	 SHORT $LN88@operator@4
  0008f	80 f2 ed	 xor	 dl, -19			; ffffffedH
  00092	88 55 f8	 mov	 BYTE PTR __t$[ebp+8], dl
  00095	8a 50 09	 mov	 dl, BYTE PTR [eax+9]
  00098	84 d2		 test	 dl, dl
  0009a	74 2d		 je	 SHORT $LN87@operator@4
  0009c	80 f2 ec	 xor	 dl, -20			; ffffffecH
  0009f	88 55 f9	 mov	 BYTE PTR __t$[ebp+9], dl
  000a2	8a 50 0a	 mov	 dl, BYTE PTR [eax+10]
  000a5	84 d2		 test	 dl, dl
  000a7	74 1a		 je	 SHORT $LN86@operator@4
  000a9	8a 40 0b	 mov	 al, BYTE PTR [eax+11]
  000ac	80 f2 eb	 xor	 dl, -21			; ffffffebH
  000af	88 55 fa	 mov	 BYTE PTR __t$[ebp+10], dl
  000b2	84 c0		 test	 al, al
  000b4	74 07		 je	 SHORT $LN85@operator@4
  000b6	34 ea		 xor	 al, -22			; ffffffeaH
  000b8	88 45 fb	 mov	 BYTE PTR __t$[ebp+11], al
  000bb	eb 40		 jmp	 SHORT $LN1@operator@4
$LN85@operator@4:
  000bd	c6 45 fb ea	 mov	 BYTE PTR __t$[ebp+11], -22 ; ffffffeaH
  000c1	eb 3a		 jmp	 SHORT $LN1@operator@4
$LN86@operator@4:
  000c3	c6 45 fa eb	 mov	 BYTE PTR __t$[ebp+10], -21 ; ffffffebH
  000c7	eb 34		 jmp	 SHORT $LN1@operator@4
$LN87@operator@4:
  000c9	c6 45 f9 ec	 mov	 BYTE PTR __t$[ebp+9], -20 ; ffffffecH
  000cd	eb 2e		 jmp	 SHORT $LN1@operator@4
$LN88@operator@4:
  000cf	c6 45 f8 ed	 mov	 BYTE PTR __t$[ebp+8], -19 ; ffffffedH
  000d3	eb 28		 jmp	 SHORT $LN1@operator@4
$LN90@operator@4:
  000d5	c6 45 f6 eb	 mov	 BYTE PTR __t$[ebp+6], -21 ; ffffffebH
  000d9	eb 22		 jmp	 SHORT $LN1@operator@4
$LN91@operator@4:
  000db	c6 45 f5 ec	 mov	 BYTE PTR __t$[ebp+5], -20 ; ffffffecH
  000df	eb 1c		 jmp	 SHORT $LN1@operator@4
$LN92@operator@4:
  000e1	c6 45 f4 ed	 mov	 BYTE PTR __t$[ebp+4], -19 ; ffffffedH
  000e5	eb 16		 jmp	 SHORT $LN1@operator@4
$LN93@operator@4:
  000e7	c6 45 f3 ea	 mov	 BYTE PTR __t$[ebp+3], -22 ; ffffffeaH
  000eb	eb 10		 jmp	 SHORT $LN1@operator@4
$LN94@operator@4:
  000ed	c6 45 f2 eb	 mov	 BYTE PTR __t$[ebp+2], -21 ; ffffffebH
  000f1	eb 0a		 jmp	 SHORT $LN1@operator@4
$LN95@operator@4:
  000f3	c6 45 f1 ec	 mov	 BYTE PTR __t$[ebp+1], -20 ; ffffffecH
  000f7	eb 04		 jmp	 SHORT $LN1@operator@4
$LN96@operator@4:
  000f9	c6 45 f0 ed	 mov	 BYTE PTR __t$[ebp], -19	; ffffffedH
$LN1@operator@4:
  000fd	81 75 f0 ed ec
	eb ea		 xor	 DWORD PTR __t$[ebp], -353637139 ; eaebecedH
  00104	6a 04		 push	 4
  00106	c6 45 f7 00	 mov	 BYTE PTR __t$[ebp+7], 0
  0010a	58		 pop	 eax
$LL101@operator@4:
  0010b	8b c8		 mov	 ecx, eax
  0010d	81 e1 03 00 00
	80		 and	 ecx, -2147483645	; 80000003H
  00113	79 05		 jns	 SHORT $LN115@operator@4
  00115	49		 dec	 ecx
  00116	83 c9 fc	 or	 ecx, -4			; fffffffcH
  00119	41		 inc	 ecx
$LN115@operator@4:
  0011a	b2 ed		 mov	 dl, -19			; ffffffedH
  0011c	2a d1		 sub	 dl, cl
  0011e	30 54 05 f0	 xor	 BYTE PTR __t$[ebp+eax], dl
  00122	40		 inc	 eax
  00123	83 f8 07	 cmp	 eax, 7
  00126	7c e3		 jl	 SHORT $LL101@operator@4
  00128	8b cf		 mov	 ecx, edi
  0012a	8d 75 f0	 lea	 esi, DWORD PTR __t$[ebp]
  0012d	ff 15 00 00 00
	00		 call	 DWORD PTR __imp_?c_str@ioHashString@@QBEPBDXZ
$LL111@operator@4:
  00133	8a 08		 mov	 cl, BYTE PTR [eax]
  00135	3a 0e		 cmp	 cl, BYTE PTR [esi]
  00137	75 1a		 jne	 SHORT $LN112@operator@4
  00139	84 c9		 test	 cl, cl
  0013b	74 12		 je	 SHORT $LN113@operator@4
  0013d	8a 48 01	 mov	 cl, BYTE PTR [eax+1]
  00140	3a 4e 01	 cmp	 cl, BYTE PTR [esi+1]
  00143	75 0e		 jne	 SHORT $LN112@operator@4
  00145	83 c0 02	 add	 eax, 2
  00148	83 c6 02	 add	 esi, 2
  0014b	84 c9		 test	 cl, cl
  0014d	75 e4		 jne	 SHORT $LL111@operator@4
$LN113@operator@4:
  0014f	33 c0		 xor	 eax, eax
  00151	eb 05		 jmp	 SHORT $LN114@operator@4
$LN112@operator@4:
  00153	1b c0		 sbb	 eax, eax
  00155	83 d8 ff	 sbb	 eax, -1
$LN114@operator@4:
  00158	33 c9		 xor	 ecx, ecx
  0015a	85 c0		 test	 eax, eax
  0015c	0f 94 c0	 sete	 al

; 148  : }

  0015f	8b 4d fc	 mov	 ecx, DWORD PTR __$ArrayPad$[ebp]
  00162	5f		 pop	 edi
  00163	33 cd		 xor	 ecx, ebp
  00165	5e		 pop	 esi
  00166	e8 00 00 00 00	 call	 @__security_check_cookie@4
  0016b	c9		 leave
  0016c	c3		 ret	 0
??$?8$07@@YA_NABVioHashString@@AAY07$$CBD@Z ENDP	; operator==<8>
_TEXT	ENDS
PUBLIC	__$ArrayPad$
PUBLIC	??$?8$0P@@@YA_NABVioHashString@@AAY0P@$$CBD@Z	; operator==<15>
; Function compile flags: /Ogsp
;	COMDAT ??$?8$0P@@@YA_NABVioHashString@@AAY0P@$$CBD@Z
_TEXT	SEGMENT
__t$ = -24						; size = 15
__$ArrayPad$ = -4					; size = 4
_lhs$ = 8						; size = 4
_t$ = 12						; size = 4
??$?8$0P@@@YA_NABVioHashString@@AAY0P@$$CBD@Z PROC	; operator==<15>, COMDAT

; 146  : {

  00000	55		 push	 ebp
  00001	8b ec		 mov	 ebp, esp
  00003	83 ec 18	 sub	 esp, 24			; 00000018H
  00006	a1 00 00 00 00	 mov	 eax, DWORD PTR ___security_cookie
  0000b	33 c5		 xor	 eax, ebp
  0000d	89 45 fc	 mov	 DWORD PTR __$ArrayPad$[ebp], eax
  00010	8b 45 0c	 mov	 eax, DWORD PTR _t$[ebp]

; 147  : 	_ENCSTR(t, _t); return ( strcmp( lhs.c_str(), _t ) == 0 );

  00013	8a 10		 mov	 dl, BYTE PTR [eax]
  00015	56		 push	 esi
  00016	57		 push	 edi
  00017	8b 7d 08	 mov	 edi, DWORD PTR _lhs$[ebp]
  0001a	84 d2		 test	 dl, dl
  0001c	0f 84 75 01 00
	00		 je	 $LN96@operator@5
  00022	80 f2 ed	 xor	 dl, -19			; ffffffedH
  00025	88 55 e8	 mov	 BYTE PTR __t$[ebp], dl
  00028	8a 50 01	 mov	 dl, BYTE PTR [eax+1]
  0002b	84 d2		 test	 dl, dl
  0002d	0f 84 5e 01 00
	00		 je	 $LN95@operator@5
  00033	b1 ec		 mov	 cl, -20			; ffffffecH
  00035	32 d1		 xor	 dl, cl
  00037	88 55 e9	 mov	 BYTE PTR __t$[ebp+1], dl
  0003a	8a 50 02	 mov	 dl, BYTE PTR [eax+2]
  0003d	84 d2		 test	 dl, dl
  0003f	0f 84 46 01 00
	00		 je	 $LN94@operator@5
  00045	80 f2 eb	 xor	 dl, -21			; ffffffebH
  00048	88 55 ea	 mov	 BYTE PTR __t$[ebp+2], dl
  0004b	8a 50 03	 mov	 dl, BYTE PTR [eax+3]
  0004e	84 d2		 test	 dl, dl
  00050	0f 84 2f 01 00
	00		 je	 $LN93@operator@5
  00056	80 f2 ea	 xor	 dl, -22			; ffffffeaH
  00059	88 55 eb	 mov	 BYTE PTR __t$[ebp+3], dl
  0005c	8a 50 04	 mov	 dl, BYTE PTR [eax+4]
  0005f	84 d2		 test	 dl, dl
  00061	0f 84 18 01 00
	00		 je	 $LN92@operator@5
  00067	80 f2 ed	 xor	 dl, -19			; ffffffedH
  0006a	88 55 ec	 mov	 BYTE PTR __t$[ebp+4], dl
  0006d	8a 50 05	 mov	 dl, BYTE PTR [eax+5]
  00070	84 d2		 test	 dl, dl
  00072	0f 84 02 01 00
	00		 je	 $LN91@operator@5
  00078	32 d1		 xor	 dl, cl
  0007a	88 55 ed	 mov	 BYTE PTR __t$[ebp+5], dl
  0007d	8a 50 06	 mov	 dl, BYTE PTR [eax+6]
  00080	84 d2		 test	 dl, dl
  00082	0f 84 ec 00 00
	00		 je	 $LN90@operator@5
  00088	80 f2 eb	 xor	 dl, -21			; ffffffebH
  0008b	88 55 ee	 mov	 BYTE PTR __t$[ebp+6], dl
  0008e	8a 50 07	 mov	 dl, BYTE PTR [eax+7]
  00091	84 d2		 test	 dl, dl
  00093	0f 84 d5 00 00
	00		 je	 $LN89@operator@5
  00099	80 f2 ea	 xor	 dl, -22			; ffffffeaH
  0009c	88 55 ef	 mov	 BYTE PTR __t$[ebp+7], dl
  0009f	8a 50 08	 mov	 dl, BYTE PTR [eax+8]
  000a2	84 d2		 test	 dl, dl
  000a4	0f 84 be 00 00
	00		 je	 $LN88@operator@5
  000aa	80 f2 ed	 xor	 dl, -19			; ffffffedH
  000ad	88 55 f0	 mov	 BYTE PTR __t$[ebp+8], dl
  000b0	8a 50 09	 mov	 dl, BYTE PTR [eax+9]
  000b3	84 d2		 test	 dl, dl
  000b5	0f 84 a8 00 00
	00		 je	 $LN87@operator@5
  000bb	32 d1		 xor	 dl, cl
  000bd	88 55 f1	 mov	 BYTE PTR __t$[ebp+9], dl
  000c0	8a 50 0a	 mov	 dl, BYTE PTR [eax+10]
  000c3	84 d2		 test	 dl, dl
  000c5	0f 84 92 00 00
	00		 je	 $LN86@operator@5
  000cb	80 f2 eb	 xor	 dl, -21			; ffffffebH
  000ce	88 55 f2	 mov	 BYTE PTR __t$[ebp+10], dl
  000d1	8a 50 0b	 mov	 dl, BYTE PTR [eax+11]
  000d4	84 d2		 test	 dl, dl
  000d6	74 7f		 je	 SHORT $LN85@operator@5
  000d8	80 f2 ea	 xor	 dl, -22			; ffffffeaH
  000db	88 55 f3	 mov	 BYTE PTR __t$[ebp+11], dl
  000de	8a 50 0c	 mov	 dl, BYTE PTR [eax+12]
  000e1	84 d2		 test	 dl, dl
  000e3	74 6c		 je	 SHORT $LN84@operator@5
  000e5	80 f2 ed	 xor	 dl, -19			; ffffffedH
  000e8	88 55 f4	 mov	 BYTE PTR __t$[ebp+12], dl
  000eb	8a 50 0d	 mov	 dl, BYTE PTR [eax+13]
  000ee	84 d2		 test	 dl, dl
  000f0	74 5a		 je	 SHORT $LN83@operator@5
  000f2	32 d1		 xor	 dl, cl
  000f4	80 78 0e 00	 cmp	 BYTE PTR [eax+14], 0
  000f8	88 55 f5	 mov	 BYTE PTR __t$[ebp+13], dl
  000fb	0f 84 9a 00 00
	00		 je	 $LN1@operator@5
  00101	8a 50 0f	 mov	 dl, BYTE PTR [eax+15]
  00104	84 d2		 test	 dl, dl
  00106	74 3e		 je	 SHORT $LN81@operator@5
  00108	80 f2 ea	 xor	 dl, -22			; ffffffeaH
  0010b	88 55 f7	 mov	 BYTE PTR __t$[ebp+15], dl
  0010e	8a 50 10	 mov	 dl, BYTE PTR [eax+16]
  00111	84 d2		 test	 dl, dl
  00113	74 2b		 je	 SHORT $LN80@operator@5
  00115	80 f2 ed	 xor	 dl, -19			; ffffffedH
  00118	88 55 f8	 mov	 BYTE PTR __t$[ebp+16], dl
  0011b	8a 50 11	 mov	 dl, BYTE PTR [eax+17]
  0011e	84 d2		 test	 dl, dl
  00120	74 19		 je	 SHORT $LN79@operator@5
  00122	8a 40 12	 mov	 al, BYTE PTR [eax+18]
  00125	32 d1		 xor	 dl, cl
  00127	88 55 f9	 mov	 BYTE PTR __t$[ebp+17], dl
  0012a	84 c0		 test	 al, al
  0012c	74 07		 je	 SHORT $LN78@operator@5
  0012e	34 eb		 xor	 al, -21			; ffffffebH
  00130	88 45 fa	 mov	 BYTE PTR __t$[ebp+18], al
  00133	eb 66		 jmp	 SHORT $LN1@operator@5
$LN78@operator@5:
  00135	c6 45 fa eb	 mov	 BYTE PTR __t$[ebp+18], -21 ; ffffffebH
  00139	eb 60		 jmp	 SHORT $LN1@operator@5
$LN79@operator@5:
  0013b	88 4d f9	 mov	 BYTE PTR __t$[ebp+17], cl
  0013e	eb 5b		 jmp	 SHORT $LN1@operator@5
$LN80@operator@5:
  00140	c6 45 f8 ed	 mov	 BYTE PTR __t$[ebp+16], -19 ; ffffffedH
  00144	eb 55		 jmp	 SHORT $LN1@operator@5
$LN81@operator@5:
  00146	c6 45 f7 ea	 mov	 BYTE PTR __t$[ebp+15], -22 ; ffffffeaH
  0014a	eb 4f		 jmp	 SHORT $LN1@operator@5
$LN83@operator@5:
  0014c	88 4d f5	 mov	 BYTE PTR __t$[ebp+13], cl
  0014f	eb 4a		 jmp	 SHORT $LN1@operator@5
$LN84@operator@5:
  00151	c6 45 f4 ed	 mov	 BYTE PTR __t$[ebp+12], -19 ; ffffffedH
  00155	eb 44		 jmp	 SHORT $LN1@operator@5
$LN85@operator@5:
  00157	c6 45 f3 ea	 mov	 BYTE PTR __t$[ebp+11], -22 ; ffffffeaH
  0015b	eb 3e		 jmp	 SHORT $LN1@operator@5
$LN86@operator@5:
  0015d	c6 45 f2 eb	 mov	 BYTE PTR __t$[ebp+10], -21 ; ffffffebH
  00161	eb 38		 jmp	 SHORT $LN1@operator@5
$LN87@operator@5:
  00163	88 4d f1	 mov	 BYTE PTR __t$[ebp+9], cl
  00166	eb 33		 jmp	 SHORT $LN1@operator@5
$LN88@operator@5:
  00168	c6 45 f0 ed	 mov	 BYTE PTR __t$[ebp+8], -19 ; ffffffedH
  0016c	eb 2d		 jmp	 SHORT $LN1@operator@5
$LN89@operator@5:
  0016e	c6 45 ef ea	 mov	 BYTE PTR __t$[ebp+7], -22 ; ffffffeaH
  00172	eb 27		 jmp	 SHORT $LN1@operator@5
$LN90@operator@5:
  00174	c6 45 ee eb	 mov	 BYTE PTR __t$[ebp+6], -21 ; ffffffebH
  00178	eb 21		 jmp	 SHORT $LN1@operator@5
$LN91@operator@5:
  0017a	88 4d ed	 mov	 BYTE PTR __t$[ebp+5], cl
  0017d	eb 1c		 jmp	 SHORT $LN1@operator@5
$LN92@operator@5:
  0017f	c6 45 ec ed	 mov	 BYTE PTR __t$[ebp+4], -19 ; ffffffedH
  00183	eb 16		 jmp	 SHORT $LN1@operator@5
$LN93@operator@5:
  00185	c6 45 eb ea	 mov	 BYTE PTR __t$[ebp+3], -22 ; ffffffeaH
  00189	eb 10		 jmp	 SHORT $LN1@operator@5
$LN94@operator@5:
  0018b	c6 45 ea eb	 mov	 BYTE PTR __t$[ebp+2], -21 ; ffffffebH
  0018f	eb 0a		 jmp	 SHORT $LN1@operator@5
$LN95@operator@5:
  00191	c6 45 e9 ec	 mov	 BYTE PTR __t$[ebp+1], -20 ; ffffffecH
  00195	eb 04		 jmp	 SHORT $LN1@operator@5
$LN96@operator@5:
  00197	c6 45 e8 ed	 mov	 BYTE PTR __t$[ebp], -19	; ffffffedH
$LN1@operator@5:
  0019b	6a 03		 push	 3
  0019d	8d 45 e8	 lea	 eax, DWORD PTR __t$[ebp]
  001a0	c6 45 f6 00	 mov	 BYTE PTR __t$[ebp+14], 0
  001a4	5a		 pop	 edx
$LL104@operator@5:
  001a5	81 30 ed ec eb
	ea		 xor	 DWORD PTR [eax], -353637139 ; eaebecedH
  001ab	83 c0 04	 add	 eax, 4
  001ae	4a		 dec	 edx
  001af	75 f4		 jne	 SHORT $LL104@operator@5
  001b1	6a 0c		 push	 12			; 0000000cH
  001b3	58		 pop	 eax
$LL101@operator@5:
  001b4	8b c8		 mov	 ecx, eax
  001b6	81 e1 03 00 00
	80		 and	 ecx, -2147483645	; 80000003H
  001bc	79 05		 jns	 SHORT $LN115@operator@5
  001be	49		 dec	 ecx
  001bf	83 c9 fc	 or	 ecx, -4			; fffffffcH
  001c2	41		 inc	 ecx
$LN115@operator@5:
  001c3	b2 ed		 mov	 dl, -19			; ffffffedH
  001c5	2a d1		 sub	 dl, cl
  001c7	30 54 05 e8	 xor	 BYTE PTR __t$[ebp+eax], dl
  001cb	40		 inc	 eax
  001cc	83 f8 0e	 cmp	 eax, 14			; 0000000eH
  001cf	7c e3		 jl	 SHORT $LL101@operator@5
  001d1	8b cf		 mov	 ecx, edi
  001d3	8d 75 e8	 lea	 esi, DWORD PTR __t$[ebp]
  001d6	ff 15 00 00 00
	00		 call	 DWORD PTR __imp_?c_str@ioHashString@@QBEPBDXZ
$LL111@operator@5:
  001dc	8a 08		 mov	 cl, BYTE PTR [eax]
  001de	3a 0e		 cmp	 cl, BYTE PTR [esi]
  001e0	75 1a		 jne	 SHORT $LN112@operator@5
  001e2	84 c9		 test	 cl, cl
  001e4	74 12		 je	 SHORT $LN113@operator@5
  001e6	8a 48 01	 mov	 cl, BYTE PTR [eax+1]
  001e9	3a 4e 01	 cmp	 cl, BYTE PTR [esi+1]
  001ec	75 0e		 jne	 SHORT $LN112@operator@5
  001ee	83 c0 02	 add	 eax, 2
  001f1	83 c6 02	 add	 esi, 2
  001f4	84 c9		 test	 cl, cl
  001f6	75 e4		 jne	 SHORT $LL111@operator@5
$LN113@operator@5:
  001f8	33 c0		 xor	 eax, eax
  001fa	eb 05		 jmp	 SHORT $LN114@operator@5
$LN112@operator@5:
  001fc	1b c0		 sbb	 eax, eax
  001fe	83 d8 ff	 sbb	 eax, -1
$LN114@operator@5:
  00201	33 c9		 xor	 ecx, ecx
  00203	85 c0		 test	 eax, eax
  00205	0f 94 c0	 sete	 al

; 148  : }

  00208	8b 4d fc	 mov	 ecx, DWORD PTR __$ArrayPad$[ebp]
  0020b	5f		 pop	 edi
  0020c	33 cd		 xor	 ecx, ebp
  0020e	5e		 pop	 esi
  0020f	e8 00 00 00 00	 call	 @__security_check_cookie@4
  00214	c9		 leave
  00215	c3		 ret	 0
??$?8$0P@@@YA_NABVioHashString@@AAY0P@$$CBD@Z ENDP	; operator==<15>
_TEXT	ENDS
PUBLIC	__$ArrayPad$
PUBLIC	??$?8$09@@YA_NABVioHashString@@AAY09$$CBD@Z	; operator==<10>
; Function compile flags: /Ogsp
;	COMDAT ??$?8$09@@YA_NABVioHashString@@AAY09$$CBD@Z
_TEXT	SEGMENT
__t$ = -20						; size = 10
__$ArrayPad$ = -4					; size = 4
_lhs$ = 8						; size = 4
_t$ = 12						; size = 4
??$?8$09@@YA_NABVioHashString@@AAY09$$CBD@Z PROC	; operator==<10>, COMDAT

; 146  : {

  00000	55		 push	 ebp
  00001	8b ec		 mov	 ebp, esp
  00003	83 ec 14	 sub	 esp, 20			; 00000014H
  00006	a1 00 00 00 00	 mov	 eax, DWORD PTR ___security_cookie
  0000b	33 c5		 xor	 eax, ebp
  0000d	89 45 fc	 mov	 DWORD PTR __$ArrayPad$[ebp], eax
  00010	8b 45 0c	 mov	 eax, DWORD PTR _t$[ebp]

; 147  : 	_ENCSTR(t, _t); return ( strcmp( lhs.c_str(), _t ) == 0 );

  00013	8a 10		 mov	 dl, BYTE PTR [eax]
  00015	8b 4d 08	 mov	 ecx, DWORD PTR _lhs$[ebp]
  00018	84 d2		 test	 dl, dl
  0001a	0f 84 0d 01 00
	00		 je	 $LN96@operator@6
  00020	80 f2 ed	 xor	 dl, -19			; ffffffedH
  00023	88 55 ec	 mov	 BYTE PTR __t$[ebp], dl
  00026	8a 50 01	 mov	 dl, BYTE PTR [eax+1]
  00029	84 d2		 test	 dl, dl
  0002b	0f 84 f6 00 00
	00		 je	 $LN95@operator@6
  00031	80 f2 ec	 xor	 dl, -20			; ffffffecH
  00034	88 55 ed	 mov	 BYTE PTR __t$[ebp+1], dl
  00037	8a 50 02	 mov	 dl, BYTE PTR [eax+2]
  0003a	84 d2		 test	 dl, dl
  0003c	0f 84 df 00 00
	00		 je	 $LN94@operator@6
  00042	80 f2 eb	 xor	 dl, -21			; ffffffebH
  00045	88 55 ee	 mov	 BYTE PTR __t$[ebp+2], dl
  00048	8a 50 03	 mov	 dl, BYTE PTR [eax+3]
  0004b	84 d2		 test	 dl, dl
  0004d	0f 84 c8 00 00
	00		 je	 $LN93@operator@6
  00053	80 f2 ea	 xor	 dl, -22			; ffffffeaH
  00056	88 55 ef	 mov	 BYTE PTR __t$[ebp+3], dl
  00059	8a 50 04	 mov	 dl, BYTE PTR [eax+4]
  0005c	84 d2		 test	 dl, dl
  0005e	0f 84 b1 00 00
	00		 je	 $LN92@operator@6
  00064	80 f2 ed	 xor	 dl, -19			; ffffffedH
  00067	88 55 f0	 mov	 BYTE PTR __t$[ebp+4], dl
  0006a	8a 50 05	 mov	 dl, BYTE PTR [eax+5]
  0006d	84 d2		 test	 dl, dl
  0006f	0f 84 9a 00 00
	00		 je	 $LN91@operator@6
  00075	80 f2 ec	 xor	 dl, -20			; ffffffecH
  00078	88 55 f1	 mov	 BYTE PTR __t$[ebp+5], dl
  0007b	8a 50 06	 mov	 dl, BYTE PTR [eax+6]
  0007e	84 d2		 test	 dl, dl
  00080	0f 84 83 00 00
	00		 je	 $LN90@operator@6
  00086	80 f2 eb	 xor	 dl, -21			; ffffffebH
  00089	88 55 f2	 mov	 BYTE PTR __t$[ebp+6], dl
  0008c	8a 50 07	 mov	 dl, BYTE PTR [eax+7]
  0008f	84 d2		 test	 dl, dl
  00091	74 70		 je	 SHORT $LN89@operator@6
  00093	80 f2 ea	 xor	 dl, -22			; ffffffeaH
  00096	88 55 f3	 mov	 BYTE PTR __t$[ebp+7], dl
  00099	8a 50 08	 mov	 dl, BYTE PTR [eax+8]
  0009c	84 d2		 test	 dl, dl
  0009e	74 5d		 je	 SHORT $LN88@operator@6
  000a0	80 f2 ed	 xor	 dl, -19			; ffffffedH
  000a3	80 78 09 00	 cmp	 BYTE PTR [eax+9], 0
  000a7	88 55 f4	 mov	 BYTE PTR __t$[ebp+8], dl
  000aa	0f 84 81 00 00
	00		 je	 $LN1@operator@6
  000b0	8a 50 0a	 mov	 dl, BYTE PTR [eax+10]
  000b3	84 d2		 test	 dl, dl
  000b5	74 40		 je	 SHORT $LN86@operator@6
  000b7	80 f2 eb	 xor	 dl, -21			; ffffffebH
  000ba	88 55 f6	 mov	 BYTE PTR __t$[ebp+10], dl
  000bd	8a 50 0b	 mov	 dl, BYTE PTR [eax+11]
  000c0	84 d2		 test	 dl, dl
  000c2	74 2d		 je	 SHORT $LN85@operator@6
  000c4	80 f2 ea	 xor	 dl, -22			; ffffffeaH
  000c7	88 55 f7	 mov	 BYTE PTR __t$[ebp+11], dl
  000ca	8a 50 0c	 mov	 dl, BYTE PTR [eax+12]
  000cd	84 d2		 test	 dl, dl
  000cf	74 1a		 je	 SHORT $LN84@operator@6
  000d1	8a 40 0d	 mov	 al, BYTE PTR [eax+13]
  000d4	80 f2 ed	 xor	 dl, -19			; ffffffedH
  000d7	88 55 f8	 mov	 BYTE PTR __t$[ebp+12], dl
  000da	84 c0		 test	 al, al
  000dc	74 07		 je	 SHORT $LN83@operator@6
  000de	34 ec		 xor	 al, -20			; ffffffecH
  000e0	88 45 f9	 mov	 BYTE PTR __t$[ebp+13], al
  000e3	eb 4c		 jmp	 SHORT $LN1@operator@6
$LN83@operator@6:
  000e5	c6 45 f9 ec	 mov	 BYTE PTR __t$[ebp+13], -20 ; ffffffecH
  000e9	eb 46		 jmp	 SHORT $LN1@operator@6
$LN84@operator@6:
  000eb	c6 45 f8 ed	 mov	 BYTE PTR __t$[ebp+12], -19 ; ffffffedH
  000ef	eb 40		 jmp	 SHORT $LN1@operator@6
$LN85@operator@6:
  000f1	c6 45 f7 ea	 mov	 BYTE PTR __t$[ebp+11], -22 ; ffffffeaH
  000f5	eb 3a		 jmp	 SHORT $LN1@operator@6
$LN86@operator@6:
  000f7	c6 45 f6 eb	 mov	 BYTE PTR __t$[ebp+10], -21 ; ffffffebH
  000fb	eb 34		 jmp	 SHORT $LN1@operator@6
$LN88@operator@6:
  000fd	c6 45 f4 ed	 mov	 BYTE PTR __t$[ebp+8], -19 ; ffffffedH
  00101	eb 2e		 jmp	 SHORT $LN1@operator@6
$LN89@operator@6:
  00103	c6 45 f3 ea	 mov	 BYTE PTR __t$[ebp+7], -22 ; ffffffeaH
  00107	eb 28		 jmp	 SHORT $LN1@operator@6
$LN90@operator@6:
  00109	c6 45 f2 eb	 mov	 BYTE PTR __t$[ebp+6], -21 ; ffffffebH
  0010d	eb 22		 jmp	 SHORT $LN1@operator@6
$LN91@operator@6:
  0010f	c6 45 f1 ec	 mov	 BYTE PTR __t$[ebp+5], -20 ; ffffffecH
  00113	eb 1c		 jmp	 SHORT $LN1@operator@6
$LN92@operator@6:
  00115	c6 45 f0 ed	 mov	 BYTE PTR __t$[ebp+4], -19 ; ffffffedH
  00119	eb 16		 jmp	 SHORT $LN1@operator@6
$LN93@operator@6:
  0011b	c6 45 ef ea	 mov	 BYTE PTR __t$[ebp+3], -22 ; ffffffeaH
  0011f	eb 10		 jmp	 SHORT $LN1@operator@6
$LN94@operator@6:
  00121	c6 45 ee eb	 mov	 BYTE PTR __t$[ebp+2], -21 ; ffffffebH
  00125	eb 0a		 jmp	 SHORT $LN1@operator@6
$LN95@operator@6:
  00127	c6 45 ed ec	 mov	 BYTE PTR __t$[ebp+1], -20 ; ffffffecH
  0012b	eb 04		 jmp	 SHORT $LN1@operator@6
$LN96@operator@6:
  0012d	c6 45 ec ed	 mov	 BYTE PTR __t$[ebp], -19	; ffffffedH
$LN1@operator@6:
  00131	6a 02		 push	 2
  00133	8d 45 ec	 lea	 eax, DWORD PTR __t$[ebp]
  00136	c6 45 f5 00	 mov	 BYTE PTR __t$[ebp+9], 0
  0013a	5a		 pop	 edx
$LL104@operator@6:
  0013b	81 30 ed ec eb
	ea		 xor	 DWORD PTR [eax], -353637139 ; eaebecedH
  00141	83 c0 04	 add	 eax, 4
  00144	4a		 dec	 edx
  00145	75 f4		 jne	 SHORT $LL104@operator@6
  00147	80 75 f4 ed	 xor	 BYTE PTR __t$[ebp+8], -19 ; ffffffedH
  0014b	56		 push	 esi
  0014c	8d 75 ec	 lea	 esi, DWORD PTR __t$[ebp]
  0014f	ff 15 00 00 00
	00		 call	 DWORD PTR __imp_?c_str@ioHashString@@QBEPBDXZ
$LL111@operator@6:
  00155	8a 08		 mov	 cl, BYTE PTR [eax]
  00157	3a 0e		 cmp	 cl, BYTE PTR [esi]
  00159	75 1a		 jne	 SHORT $LN112@operator@6
  0015b	84 c9		 test	 cl, cl
  0015d	74 12		 je	 SHORT $LN113@operator@6
  0015f	8a 48 01	 mov	 cl, BYTE PTR [eax+1]
  00162	3a 4e 01	 cmp	 cl, BYTE PTR [esi+1]
  00165	75 0e		 jne	 SHORT $LN112@operator@6
  00167	83 c0 02	 add	 eax, 2
  0016a	83 c6 02	 add	 esi, 2
  0016d	84 c9		 test	 cl, cl
  0016f	75 e4		 jne	 SHORT $LL111@operator@6
$LN113@operator@6:
  00171	33 c0		 xor	 eax, eax
  00173	eb 05		 jmp	 SHORT $LN114@operator@6
$LN112@operator@6:
  00175	1b c0		 sbb	 eax, eax
  00177	83 d8 ff	 sbb	 eax, -1
$LN114@operator@6:
  0017a	33 c9		 xor	 ecx, ecx
  0017c	85 c0		 test	 eax, eax
  0017e	0f 94 c0	 sete	 al

; 148  : }

  00181	8b 4d fc	 mov	 ecx, DWORD PTR __$ArrayPad$[ebp]
  00184	33 cd		 xor	 ecx, ebp
  00186	5e		 pop	 esi
  00187	e8 00 00 00 00	 call	 @__security_check_cookie@4
  0018c	c9		 leave
  0018d	c3		 ret	 0
??$?8$09@@YA_NABVioHashString@@AAY09$$CBD@Z ENDP	; operator==<10>
_TEXT	ENDS
PUBLIC	__$ArrayPad$
PUBLIC	??$?8$0O@@@YA_NABVioHashString@@AAY0O@$$CBD@Z	; operator==<14>
; Function compile flags: /Ogsp
;	COMDAT ??$?8$0O@@@YA_NABVioHashString@@AAY0O@$$CBD@Z
_TEXT	SEGMENT
__t$ = -24						; size = 14
__$ArrayPad$ = -4					; size = 4
_lhs$ = 8						; size = 4
_t$ = 12						; size = 4
??$?8$0O@@@YA_NABVioHashString@@AAY0O@$$CBD@Z PROC	; operator==<14>, COMDAT

; 146  : {

  00000	55		 push	 ebp
  00001	8b ec		 mov	 ebp, esp
  00003	83 ec 18	 sub	 esp, 24			; 00000018H
  00006	a1 00 00 00 00	 mov	 eax, DWORD PTR ___security_cookie
  0000b	33 c5		 xor	 eax, ebp
  0000d	89 45 fc	 mov	 DWORD PTR __$ArrayPad$[ebp], eax
  00010	8b 45 0c	 mov	 eax, DWORD PTR _t$[ebp]

; 147  : 	_ENCSTR(t, _t); return ( strcmp( lhs.c_str(), _t ) == 0 );

  00013	8a 10		 mov	 dl, BYTE PTR [eax]
  00015	56		 push	 esi
  00016	57		 push	 edi
  00017	8b 7d 08	 mov	 edi, DWORD PTR _lhs$[ebp]
  0001a	84 d2		 test	 dl, dl
  0001c	0f 84 64 01 00
	00		 je	 $LN96@operator@7
  00022	80 f2 ed	 xor	 dl, -19			; ffffffedH
  00025	88 55 e8	 mov	 BYTE PTR __t$[ebp], dl
  00028	8a 50 01	 mov	 dl, BYTE PTR [eax+1]
  0002b	84 d2		 test	 dl, dl
  0002d	0f 84 4d 01 00
	00		 je	 $LN95@operator@7
  00033	80 f2 ec	 xor	 dl, -20			; ffffffecH
  00036	88 55 e9	 mov	 BYTE PTR __t$[ebp+1], dl
  00039	8a 50 02	 mov	 dl, BYTE PTR [eax+2]
  0003c	84 d2		 test	 dl, dl
  0003e	0f 84 36 01 00
	00		 je	 $LN94@operator@7
  00044	b1 eb		 mov	 cl, -21			; ffffffebH
  00046	32 d1		 xor	 dl, cl
  00048	88 55 ea	 mov	 BYTE PTR __t$[ebp+2], dl
  0004b	8a 50 03	 mov	 dl, BYTE PTR [eax+3]
  0004e	84 d2		 test	 dl, dl
  00050	0f 84 1e 01 00
	00		 je	 $LN93@operator@7
  00056	80 f2 ea	 xor	 dl, -22			; ffffffeaH
  00059	88 55 eb	 mov	 BYTE PTR __t$[ebp+3], dl
  0005c	8a 50 04	 mov	 dl, BYTE PTR [eax+4]
  0005f	84 d2		 test	 dl, dl
  00061	0f 84 07 01 00
	00		 je	 $LN92@operator@7
  00067	80 f2 ed	 xor	 dl, -19			; ffffffedH
  0006a	88 55 ec	 mov	 BYTE PTR __t$[ebp+4], dl
  0006d	8a 50 05	 mov	 dl, BYTE PTR [eax+5]
  00070	84 d2		 test	 dl, dl
  00072	0f 84 f0 00 00
	00		 je	 $LN91@operator@7
  00078	80 f2 ec	 xor	 dl, -20			; ffffffecH
  0007b	88 55 ed	 mov	 BYTE PTR __t$[ebp+5], dl
  0007e	8a 50 06	 mov	 dl, BYTE PTR [eax+6]
  00081	84 d2		 test	 dl, dl
  00083	0f 84 da 00 00
	00		 je	 $LN90@operator@7
  00089	32 d1		 xor	 dl, cl
  0008b	88 55 ee	 mov	 BYTE PTR __t$[ebp+6], dl
  0008e	8a 50 07	 mov	 dl, BYTE PTR [eax+7]
  00091	84 d2		 test	 dl, dl
  00093	0f 84 c4 00 00
	00		 je	 $LN89@operator@7
  00099	80 f2 ea	 xor	 dl, -22			; ffffffeaH
  0009c	88 55 ef	 mov	 BYTE PTR __t$[ebp+7], dl
  0009f	8a 50 08	 mov	 dl, BYTE PTR [eax+8]
  000a2	84 d2		 test	 dl, dl
  000a4	0f 84 ad 00 00
	00		 je	 $LN88@operator@7
  000aa	80 f2 ed	 xor	 dl, -19			; ffffffedH
  000ad	88 55 f0	 mov	 BYTE PTR __t$[ebp+8], dl
  000b0	8a 50 09	 mov	 dl, BYTE PTR [eax+9]
  000b3	84 d2		 test	 dl, dl
  000b5	0f 84 96 00 00
	00		 je	 $LN87@operator@7
  000bb	80 f2 ec	 xor	 dl, -20			; ffffffecH
  000be	88 55 f1	 mov	 BYTE PTR __t$[ebp+9], dl
  000c1	8a 50 0a	 mov	 dl, BYTE PTR [eax+10]
  000c4	84 d2		 test	 dl, dl
  000c6	0f 84 80 00 00
	00		 je	 $LN86@operator@7
  000cc	32 d1		 xor	 dl, cl
  000ce	88 55 f2	 mov	 BYTE PTR __t$[ebp+10], dl
  000d1	8a 50 0b	 mov	 dl, BYTE PTR [eax+11]
  000d4	84 d2		 test	 dl, dl
  000d6	74 6e		 je	 SHORT $LN85@operator@7
  000d8	80 f2 ea	 xor	 dl, -22			; ffffffeaH
  000db	88 55 f3	 mov	 BYTE PTR __t$[ebp+11], dl
  000de	8a 50 0c	 mov	 dl, BYTE PTR [eax+12]
  000e1	84 d2		 test	 dl, dl
  000e3	74 5b		 je	 SHORT $LN84@operator@7
  000e5	80 f2 ed	 xor	 dl, -19			; ffffffedH
  000e8	80 78 0d 00	 cmp	 BYTE PTR [eax+13], 0
  000ec	88 55 f4	 mov	 BYTE PTR __t$[ebp+12], dl
  000ef	0f 84 95 00 00
	00		 je	 $LN1@operator@7
  000f5	8a 50 0e	 mov	 dl, BYTE PTR [eax+14]
  000f8	84 d2		 test	 dl, dl
  000fa	74 3f		 je	 SHORT $LN82@operator@7
  000fc	32 d1		 xor	 dl, cl
  000fe	88 55 f6	 mov	 BYTE PTR __t$[ebp+14], dl
  00101	8a 50 0f	 mov	 dl, BYTE PTR [eax+15]
  00104	84 d2		 test	 dl, dl
  00106	74 2d		 je	 SHORT $LN81@operator@7
  00108	80 f2 ea	 xor	 dl, -22			; ffffffeaH
  0010b	88 55 f7	 mov	 BYTE PTR __t$[ebp+15], dl
  0010e	8a 50 10	 mov	 dl, BYTE PTR [eax+16]
  00111	84 d2		 test	 dl, dl
  00113	74 1a		 je	 SHORT $LN80@operator@7
  00115	8a 40 11	 mov	 al, BYTE PTR [eax+17]
  00118	80 f2 ed	 xor	 dl, -19			; ffffffedH
  0011b	88 55 f8	 mov	 BYTE PTR __t$[ebp+16], dl
  0011e	84 c0		 test	 al, al
  00120	74 07		 je	 SHORT $LN79@operator@7
  00122	34 ec		 xor	 al, -20			; ffffffecH
  00124	88 45 f9	 mov	 BYTE PTR __t$[ebp+17], al
  00127	eb 61		 jmp	 SHORT $LN1@operator@7
$LN79@operator@7:
  00129	c6 45 f9 ec	 mov	 BYTE PTR __t$[ebp+17], -20 ; ffffffecH
  0012d	eb 5b		 jmp	 SHORT $LN1@operator@7
$LN80@operator@7:
  0012f	c6 45 f8 ed	 mov	 BYTE PTR __t$[ebp+16], -19 ; ffffffedH
  00133	eb 55		 jmp	 SHORT $LN1@operator@7
$LN81@operator@7:
  00135	c6 45 f7 ea	 mov	 BYTE PTR __t$[ebp+15], -22 ; ffffffeaH
  00139	eb 4f		 jmp	 SHORT $LN1@operator@7
$LN82@operator@7:
  0013b	88 4d f6	 mov	 BYTE PTR __t$[ebp+14], cl
  0013e	eb 4a		 jmp	 SHORT $LN1@operator@7
$LN84@operator@7:
  00140	c6 45 f4 ed	 mov	 BYTE PTR __t$[ebp+12], -19 ; ffffffedH
  00144	eb 44		 jmp	 SHORT $LN1@operator@7
$LN85@operator@7:
  00146	c6 45 f3 ea	 mov	 BYTE PTR __t$[ebp+11], -22 ; ffffffeaH
  0014a	eb 3e		 jmp	 SHORT $LN1@operator@7
$LN86@operator@7:
  0014c	88 4d f2	 mov	 BYTE PTR __t$[ebp+10], cl
  0014f	eb 39		 jmp	 SHORT $LN1@operator@7
$LN87@operator@7:
  00151	c6 45 f1 ec	 mov	 BYTE PTR __t$[ebp+9], -20 ; ffffffecH
  00155	eb 33		 jmp	 SHORT $LN1@operator@7
$LN88@operator@7:
  00157	c6 45 f0 ed	 mov	 BYTE PTR __t$[ebp+8], -19 ; ffffffedH
  0015b	eb 2d		 jmp	 SHORT $LN1@operator@7
$LN89@operator@7:
  0015d	c6 45 ef ea	 mov	 BYTE PTR __t$[ebp+7], -22 ; ffffffeaH
  00161	eb 27		 jmp	 SHORT $LN1@operator@7
$LN90@operator@7:
  00163	88 4d ee	 mov	 BYTE PTR __t$[ebp+6], cl
  00166	eb 22		 jmp	 SHORT $LN1@operator@7
$LN91@operator@7:
  00168	c6 45 ed ec	 mov	 BYTE PTR __t$[ebp+5], -20 ; ffffffecH
  0016c	eb 1c		 jmp	 SHORT $LN1@operator@7
$LN92@operator@7:
  0016e	c6 45 ec ed	 mov	 BYTE PTR __t$[ebp+4], -19 ; ffffffedH
  00172	eb 16		 jmp	 SHORT $LN1@operator@7
$LN93@operator@7:
  00174	c6 45 eb ea	 mov	 BYTE PTR __t$[ebp+3], -22 ; ffffffeaH
  00178	eb 10		 jmp	 SHORT $LN1@operator@7
$LN94@operator@7:
  0017a	c6 45 ea eb	 mov	 BYTE PTR __t$[ebp+2], -21 ; ffffffebH
  0017e	eb 0a		 jmp	 SHORT $LN1@operator@7
$LN95@operator@7:
  00180	c6 45 e9 ec	 mov	 BYTE PTR __t$[ebp+1], -20 ; ffffffecH
  00184	eb 04		 jmp	 SHORT $LN1@operator@7
$LN96@operator@7:
  00186	c6 45 e8 ed	 mov	 BYTE PTR __t$[ebp], -19	; ffffffedH
$LN1@operator@7:
  0018a	6a 03		 push	 3
  0018c	8d 45 e8	 lea	 eax, DWORD PTR __t$[ebp]
  0018f	c6 45 f5 00	 mov	 BYTE PTR __t$[ebp+13], 0
  00193	5a		 pop	 edx
$LL104@operator@7:
  00194	81 30 ed ec eb
	ea		 xor	 DWORD PTR [eax], -353637139 ; eaebecedH
  0019a	83 c0 04	 add	 eax, 4
  0019d	4a		 dec	 edx
  0019e	75 f4		 jne	 SHORT $LL104@operator@7
  001a0	80 75 f4 ed	 xor	 BYTE PTR __t$[ebp+12], -19 ; ffffffedH
  001a4	8b cf		 mov	 ecx, edi
  001a6	8d 75 e8	 lea	 esi, DWORD PTR __t$[ebp]
  001a9	ff 15 00 00 00
	00		 call	 DWORD PTR __imp_?c_str@ioHashString@@QBEPBDXZ
$LL111@operator@7:
  001af	8a 08		 mov	 cl, BYTE PTR [eax]
  001b1	3a 0e		 cmp	 cl, BYTE PTR [esi]
  001b3	75 1a		 jne	 SHORT $LN112@operator@7
  001b5	84 c9		 test	 cl, cl
  001b7	74 12		 je	 SHORT $LN113@operator@7
  001b9	8a 48 01	 mov	 cl, BYTE PTR [eax+1]
  001bc	3a 4e 01	 cmp	 cl, BYTE PTR [esi+1]
  001bf	75 0e		 jne	 SHORT $LN112@operator@7
  001c1	83 c0 02	 add	 eax, 2
  001c4	83 c6 02	 add	 esi, 2
  001c7	84 c9		 test	 cl, cl
  001c9	75 e4		 jne	 SHORT $LL111@operator@7
$LN113@operator@7:
  001cb	33 c0		 xor	 eax, eax
  001cd	eb 05		 jmp	 SHORT $LN114@operator@7
$LN112@operator@7:
  001cf	1b c0		 sbb	 eax, eax
  001d1	83 d8 ff	 sbb	 eax, -1
$LN114@operator@7:
  001d4	33 c9		 xor	 ecx, ecx
  001d6	85 c0		 test	 eax, eax
  001d8	0f 94 c0	 sete	 al

; 148  : }

  001db	8b 4d fc	 mov	 ecx, DWORD PTR __$ArrayPad$[ebp]
  001de	5f		 pop	 edi
  001df	33 cd		 xor	 ecx, ebp
  001e1	5e		 pop	 esi
  001e2	e8 00 00 00 00	 call	 @__security_check_cookie@4
  001e7	c9		 leave
  001e8	c3		 ret	 0
??$?8$0O@@@YA_NABVioHashString@@AAY0O@$$CBD@Z ENDP	; operator==<14>
_TEXT	ENDS
PUBLIC	__$ArrayPad$
PUBLIC	??$?8$0L@@@YA_NABVioHashString@@AAY0L@$$CBD@Z	; operator==<11>
; Function compile flags: /Ogsp
;	COMDAT ??$?8$0L@@@YA_NABVioHashString@@AAY0L@$$CBD@Z
_TEXT	SEGMENT
__t$ = -20						; size = 11
__$ArrayPad$ = -4					; size = 4
_lhs$ = 8						; size = 4
_t$ = 12						; size = 4
??$?8$0L@@@YA_NABVioHashString@@AAY0L@$$CBD@Z PROC	; operator==<11>, COMDAT

; 146  : {

  00000	55		 push	 ebp
  00001	8b ec		 mov	 ebp, esp
  00003	83 ec 14	 sub	 esp, 20			; 00000014H
  00006	a1 00 00 00 00	 mov	 eax, DWORD PTR ___security_cookie
  0000b	33 c5		 xor	 eax, ebp
  0000d	89 45 fc	 mov	 DWORD PTR __$ArrayPad$[ebp], eax
  00010	8b 45 0c	 mov	 eax, DWORD PTR _t$[ebp]

; 147  : 	_ENCSTR(t, _t); return ( strcmp( lhs.c_str(), _t ) == 0 );

  00013	8a 10		 mov	 dl, BYTE PTR [eax]
  00015	56		 push	 esi
  00016	57		 push	 edi
  00017	8b 7d 08	 mov	 edi, DWORD PTR _lhs$[ebp]
  0001a	84 d2		 test	 dl, dl
  0001c	0f 84 24 01 00
	00		 je	 $LN96@operator@8
  00022	80 f2 ed	 xor	 dl, -19			; ffffffedH
  00025	88 55 ec	 mov	 BYTE PTR __t$[ebp], dl
  00028	8a 50 01	 mov	 dl, BYTE PTR [eax+1]
  0002b	84 d2		 test	 dl, dl
  0002d	0f 84 0d 01 00
	00		 je	 $LN95@operator@8
  00033	80 f2 ec	 xor	 dl, -20			; ffffffecH
  00036	88 55 ed	 mov	 BYTE PTR __t$[ebp+1], dl
  00039	8a 50 02	 mov	 dl, BYTE PTR [eax+2]
  0003c	84 d2		 test	 dl, dl
  0003e	0f 84 f6 00 00
	00		 je	 $LN94@operator@8
  00044	80 f2 eb	 xor	 dl, -21			; ffffffebH
  00047	88 55 ee	 mov	 BYTE PTR __t$[ebp+2], dl
  0004a	8a 50 03	 mov	 dl, BYTE PTR [eax+3]
  0004d	84 d2		 test	 dl, dl
  0004f	0f 84 df 00 00
	00		 je	 $LN93@operator@8
  00055	80 f2 ea	 xor	 dl, -22			; ffffffeaH
  00058	88 55 ef	 mov	 BYTE PTR __t$[ebp+3], dl
  0005b	8a 50 04	 mov	 dl, BYTE PTR [eax+4]
  0005e	84 d2		 test	 dl, dl
  00060	0f 84 c8 00 00
	00		 je	 $LN92@operator@8
  00066	80 f2 ed	 xor	 dl, -19			; ffffffedH
  00069	88 55 f0	 mov	 BYTE PTR __t$[ebp+4], dl
  0006c	8a 50 05	 mov	 dl, BYTE PTR [eax+5]
  0006f	84 d2		 test	 dl, dl
  00071	0f 84 b1 00 00
	00		 je	 $LN91@operator@8
  00077	80 f2 ec	 xor	 dl, -20			; ffffffecH
  0007a	88 55 f1	 mov	 BYTE PTR __t$[ebp+5], dl
  0007d	8a 50 06	 mov	 dl, BYTE PTR [eax+6]
  00080	84 d2		 test	 dl, dl
  00082	0f 84 9a 00 00
	00		 je	 $LN90@operator@8
  00088	80 f2 eb	 xor	 dl, -21			; ffffffebH
  0008b	88 55 f2	 mov	 BYTE PTR __t$[ebp+6], dl
  0008e	8a 50 07	 mov	 dl, BYTE PTR [eax+7]
  00091	84 d2		 test	 dl, dl
  00093	0f 84 83 00 00
	00		 je	 $LN89@operator@8
  00099	80 f2 ea	 xor	 dl, -22			; ffffffeaH
  0009c	88 55 f3	 mov	 BYTE PTR __t$[ebp+7], dl
  0009f	8a 50 08	 mov	 dl, BYTE PTR [eax+8]
  000a2	84 d2		 test	 dl, dl
  000a4	74 70		 je	 SHORT $LN88@operator@8
  000a6	80 f2 ed	 xor	 dl, -19			; ffffffedH
  000a9	88 55 f4	 mov	 BYTE PTR __t$[ebp+8], dl
  000ac	8a 50 09	 mov	 dl, BYTE PTR [eax+9]
  000af	84 d2		 test	 dl, dl
  000b1	74 5d		 je	 SHORT $LN87@operator@8
  000b3	80 f2 ec	 xor	 dl, -20			; ffffffecH
  000b6	80 78 0a 00	 cmp	 BYTE PTR [eax+10], 0
  000ba	88 55 f5	 mov	 BYTE PTR __t$[ebp+9], dl
  000bd	0f 84 87 00 00
	00		 je	 $LN1@operator@8
  000c3	8a 50 0b	 mov	 dl, BYTE PTR [eax+11]
  000c6	84 d2		 test	 dl, dl
  000c8	74 40		 je	 SHORT $LN85@operator@8
  000ca	80 f2 ea	 xor	 dl, -22			; ffffffeaH
  000cd	88 55 f7	 mov	 BYTE PTR __t$[ebp+11], dl
  000d0	8a 50 0c	 mov	 dl, BYTE PTR [eax+12]
  000d3	84 d2		 test	 dl, dl
  000d5	74 2d		 je	 SHORT $LN84@operator@8
  000d7	80 f2 ed	 xor	 dl, -19			; ffffffedH
  000da	88 55 f8	 mov	 BYTE PTR __t$[ebp+12], dl
  000dd	8a 50 0d	 mov	 dl, BYTE PTR [eax+13]
  000e0	84 d2		 test	 dl, dl
  000e2	74 1a		 je	 SHORT $LN83@operator@8
  000e4	8a 40 0e	 mov	 al, BYTE PTR [eax+14]
  000e7	80 f2 ec	 xor	 dl, -20			; ffffffecH
  000ea	88 55 f9	 mov	 BYTE PTR __t$[ebp+13], dl
  000ed	84 c0		 test	 al, al
  000ef	74 07		 je	 SHORT $LN82@operator@8
  000f1	34 eb		 xor	 al, -21			; ffffffebH
  000f3	88 45 fa	 mov	 BYTE PTR __t$[ebp+14], al
  000f6	eb 52		 jmp	 SHORT $LN1@operator@8
$LN82@operator@8:
  000f8	c6 45 fa eb	 mov	 BYTE PTR __t$[ebp+14], -21 ; ffffffebH
  000fc	eb 4c		 jmp	 SHORT $LN1@operator@8
$LN83@operator@8:
  000fe	c6 45 f9 ec	 mov	 BYTE PTR __t$[ebp+13], -20 ; ffffffecH
  00102	eb 46		 jmp	 SHORT $LN1@operator@8
$LN84@operator@8:
  00104	c6 45 f8 ed	 mov	 BYTE PTR __t$[ebp+12], -19 ; ffffffedH
  00108	eb 40		 jmp	 SHORT $LN1@operator@8
$LN85@operator@8:
  0010a	c6 45 f7 ea	 mov	 BYTE PTR __t$[ebp+11], -22 ; ffffffeaH
  0010e	eb 3a		 jmp	 SHORT $LN1@operator@8
$LN87@operator@8:
  00110	c6 45 f5 ec	 mov	 BYTE PTR __t$[ebp+9], -20 ; ffffffecH
  00114	eb 34		 jmp	 SHORT $LN1@operator@8
$LN88@operator@8:
  00116	c6 45 f4 ed	 mov	 BYTE PTR __t$[ebp+8], -19 ; ffffffedH
  0011a	eb 2e		 jmp	 SHORT $LN1@operator@8
$LN89@operator@8:
  0011c	c6 45 f3 ea	 mov	 BYTE PTR __t$[ebp+7], -22 ; ffffffeaH
  00120	eb 28		 jmp	 SHORT $LN1@operator@8
$LN90@operator@8:
  00122	c6 45 f2 eb	 mov	 BYTE PTR __t$[ebp+6], -21 ; ffffffebH
  00126	eb 22		 jmp	 SHORT $LN1@operator@8
$LN91@operator@8:
  00128	c6 45 f1 ec	 mov	 BYTE PTR __t$[ebp+5], -20 ; ffffffecH
  0012c	eb 1c		 jmp	 SHORT $LN1@operator@8
$LN92@operator@8:
  0012e	c6 45 f0 ed	 mov	 BYTE PTR __t$[ebp+4], -19 ; ffffffedH
  00132	eb 16		 jmp	 SHORT $LN1@operator@8
$LN93@operator@8:
  00134	c6 45 ef ea	 mov	 BYTE PTR __t$[ebp+3], -22 ; ffffffeaH
  00138	eb 10		 jmp	 SHORT $LN1@operator@8
$LN94@operator@8:
  0013a	c6 45 ee eb	 mov	 BYTE PTR __t$[ebp+2], -21 ; ffffffebH
  0013e	eb 0a		 jmp	 SHORT $LN1@operator@8
$LN95@operator@8:
  00140	c6 45 ed ec	 mov	 BYTE PTR __t$[ebp+1], -20 ; ffffffecH
  00144	eb 04		 jmp	 SHORT $LN1@operator@8
$LN96@operator@8:
  00146	c6 45 ec ed	 mov	 BYTE PTR __t$[ebp], -19	; ffffffedH
$LN1@operator@8:
  0014a	6a 02		 push	 2
  0014c	8d 45 ec	 lea	 eax, DWORD PTR __t$[ebp]
  0014f	c6 45 f6 00	 mov	 BYTE PTR __t$[ebp+10], 0
  00153	5a		 pop	 edx
$LL104@operator@8:
  00154	81 30 ed ec eb
	ea		 xor	 DWORD PTR [eax], -353637139 ; eaebecedH
  0015a	83 c0 04	 add	 eax, 4
  0015d	4a		 dec	 edx
  0015e	75 f4		 jne	 SHORT $LL104@operator@8
  00160	6a 08		 push	 8
  00162	58		 pop	 eax
$LL101@operator@8:
  00163	8b c8		 mov	 ecx, eax
  00165	81 e1 03 00 00
	80		 and	 ecx, -2147483645	; 80000003H
  0016b	79 05		 jns	 SHORT $LN115@operator@8
  0016d	49		 dec	 ecx
  0016e	83 c9 fc	 or	 ecx, -4			; fffffffcH
  00171	41		 inc	 ecx
$LN115@operator@8:
  00172	b2 ed		 mov	 dl, -19			; ffffffedH
  00174	2a d1		 sub	 dl, cl
  00176	30 54 05 ec	 xor	 BYTE PTR __t$[ebp+eax], dl
  0017a	40		 inc	 eax
  0017b	83 f8 0a	 cmp	 eax, 10			; 0000000aH
  0017e	7c e3		 jl	 SHORT $LL101@operator@8
  00180	8b cf		 mov	 ecx, edi
  00182	8d 75 ec	 lea	 esi, DWORD PTR __t$[ebp]
  00185	ff 15 00 00 00
	00		 call	 DWORD PTR __imp_?c_str@ioHashString@@QBEPBDXZ
$LL111@operator@8:
  0018b	8a 08		 mov	 cl, BYTE PTR [eax]
  0018d	3a 0e		 cmp	 cl, BYTE PTR [esi]
  0018f	75 1a		 jne	 SHORT $LN112@operator@8
  00191	84 c9		 test	 cl, cl
  00193	74 12		 je	 SHORT $LN113@operator@8
  00195	8a 48 01	 mov	 cl, BYTE PTR [eax+1]
  00198	3a 4e 01	 cmp	 cl, BYTE PTR [esi+1]
  0019b	75 0e		 jne	 SHORT $LN112@operator@8
  0019d	83 c0 02	 add	 eax, 2
  001a0	83 c6 02	 add	 esi, 2
  001a3	84 c9		 test	 cl, cl
  001a5	75 e4		 jne	 SHORT $LL111@operator@8
$LN113@operator@8:
  001a7	33 c0		 xor	 eax, eax
  001a9	eb 05		 jmp	 SHORT $LN114@operator@8
$LN112@operator@8:
  001ab	1b c0		 sbb	 eax, eax
  001ad	83 d8 ff	 sbb	 eax, -1
$LN114@operator@8:
  001b0	33 c9		 xor	 ecx, ecx
  001b2	85 c0		 test	 eax, eax
  001b4	0f 94 c0	 sete	 al

; 148  : }

  001b7	8b 4d fc	 mov	 ecx, DWORD PTR __$ArrayPad$[ebp]
  001ba	5f		 pop	 edi
  001bb	33 cd		 xor	 ecx, ebp
  001bd	5e		 pop	 esi
  001be	e8 00 00 00 00	 call	 @__security_check_cookie@4
  001c3	c9		 leave
  001c4	c3		 ret	 0
??$?8$0L@@@YA_NABVioHashString@@AAY0L@$$CBD@Z ENDP	; operator==<11>
_TEXT	ENDS
PUBLIC	__$ArrayPad$
PUBLIC	??$?8$0BA@@@YA_NABVioHashString@@AAY0BA@$$CBD@Z	; operator==<16>
; Function compile flags: /Ogsp
;	COMDAT ??$?8$0BA@@@YA_NABVioHashString@@AAY0BA@$$CBD@Z
_TEXT	SEGMENT
__t$ = -24						; size = 16
__$ArrayPad$ = -4					; size = 4
_lhs$ = 8						; size = 4
_t$ = 12						; size = 4
??$?8$0BA@@@YA_NABVioHashString@@AAY0BA@$$CBD@Z PROC	; operator==<16>, COMDAT

; 146  : {

  00000	55		 push	 ebp
  00001	8b ec		 mov	 ebp, esp
  00003	83 ec 18	 sub	 esp, 24			; 00000018H
  00006	a1 00 00 00 00	 mov	 eax, DWORD PTR ___security_cookie
  0000b	33 c5		 xor	 eax, ebp
  0000d	89 45 fc	 mov	 DWORD PTR __$ArrayPad$[ebp], eax
  00010	8b 45 0c	 mov	 eax, DWORD PTR _t$[ebp]

; 147  : 	_ENCSTR(t, _t); return ( strcmp( lhs.c_str(), _t ) == 0 );

  00013	8a 10		 mov	 dl, BYTE PTR [eax]
  00015	56		 push	 esi
  00016	57		 push	 edi
  00017	8b 7d 08	 mov	 edi, DWORD PTR _lhs$[ebp]
  0001a	84 d2		 test	 dl, dl
  0001c	0f 84 8c 01 00
	00		 je	 $LN96@operator@9
  00022	80 f2 ed	 xor	 dl, -19			; ffffffedH
  00025	88 55 e8	 mov	 BYTE PTR __t$[ebp], dl
  00028	8a 50 01	 mov	 dl, BYTE PTR [eax+1]
  0002b	84 d2		 test	 dl, dl
  0002d	0f 84 75 01 00
	00		 je	 $LN95@operator@9
  00033	80 f2 ec	 xor	 dl, -20			; ffffffecH
  00036	88 55 e9	 mov	 BYTE PTR __t$[ebp+1], dl
  00039	8a 50 02	 mov	 dl, BYTE PTR [eax+2]
  0003c	84 d2		 test	 dl, dl
  0003e	0f 84 5e 01 00
	00		 je	 $LN94@operator@9
  00044	b1 eb		 mov	 cl, -21			; ffffffebH
  00046	32 d1		 xor	 dl, cl
  00048	88 55 ea	 mov	 BYTE PTR __t$[ebp+2], dl
  0004b	8a 50 03	 mov	 dl, BYTE PTR [eax+3]
  0004e	84 d2		 test	 dl, dl
  00050	0f 84 46 01 00
	00		 je	 $LN93@operator@9
  00056	80 f2 ea	 xor	 dl, -22			; ffffffeaH
  00059	88 55 eb	 mov	 BYTE PTR __t$[ebp+3], dl
  0005c	8a 50 04	 mov	 dl, BYTE PTR [eax+4]
  0005f	84 d2		 test	 dl, dl
  00061	0f 84 2f 01 00
	00		 je	 $LN92@operator@9
  00067	80 f2 ed	 xor	 dl, -19			; ffffffedH
  0006a	88 55 ec	 mov	 BYTE PTR __t$[ebp+4], dl
  0006d	8a 50 05	 mov	 dl, BYTE PTR [eax+5]
  00070	84 d2		 test	 dl, dl
  00072	0f 84 18 01 00
	00		 je	 $LN91@operator@9
  00078	80 f2 ec	 xor	 dl, -20			; ffffffecH
  0007b	88 55 ed	 mov	 BYTE PTR __t$[ebp+5], dl
  0007e	8a 50 06	 mov	 dl, BYTE PTR [eax+6]
  00081	84 d2		 test	 dl, dl
  00083	0f 84 02 01 00
	00		 je	 $LN90@operator@9
  00089	32 d1		 xor	 dl, cl
  0008b	88 55 ee	 mov	 BYTE PTR __t$[ebp+6], dl
  0008e	8a 50 07	 mov	 dl, BYTE PTR [eax+7]
  00091	84 d2		 test	 dl, dl
  00093	0f 84 ec 00 00
	00		 je	 $LN89@operator@9
  00099	80 f2 ea	 xor	 dl, -22			; ffffffeaH
  0009c	88 55 ef	 mov	 BYTE PTR __t$[ebp+7], dl
  0009f	8a 50 08	 mov	 dl, BYTE PTR [eax+8]
  000a2	84 d2		 test	 dl, dl
  000a4	0f 84 d5 00 00
	00		 je	 $LN88@operator@9
  000aa	80 f2 ed	 xor	 dl, -19			; ffffffedH
  000ad	88 55 f0	 mov	 BYTE PTR __t$[ebp+8], dl
  000b0	8a 50 09	 mov	 dl, BYTE PTR [eax+9]
  000b3	84 d2		 test	 dl, dl
  000b5	0f 84 be 00 00
	00		 je	 $LN87@operator@9
  000bb	80 f2 ec	 xor	 dl, -20			; ffffffecH
  000be	88 55 f1	 mov	 BYTE PTR __t$[ebp+9], dl
  000c1	8a 50 0a	 mov	 dl, BYTE PTR [eax+10]
  000c4	84 d2		 test	 dl, dl
  000c6	0f 84 a8 00 00
	00		 je	 $LN86@operator@9
  000cc	32 d1		 xor	 dl, cl
  000ce	88 55 f2	 mov	 BYTE PTR __t$[ebp+10], dl
  000d1	8a 50 0b	 mov	 dl, BYTE PTR [eax+11]
  000d4	84 d2		 test	 dl, dl
  000d6	0f 84 92 00 00
	00		 je	 $LN85@operator@9
  000dc	80 f2 ea	 xor	 dl, -22			; ffffffeaH
  000df	88 55 f3	 mov	 BYTE PTR __t$[ebp+11], dl
  000e2	8a 50 0c	 mov	 dl, BYTE PTR [eax+12]
  000e5	84 d2		 test	 dl, dl
  000e7	74 7f		 je	 SHORT $LN84@operator@9
  000e9	80 f2 ed	 xor	 dl, -19			; ffffffedH
  000ec	88 55 f4	 mov	 BYTE PTR __t$[ebp+12], dl
  000ef	8a 50 0d	 mov	 dl, BYTE PTR [eax+13]
  000f2	84 d2		 test	 dl, dl
  000f4	74 6c		 je	 SHORT $LN83@operator@9
  000f6	80 f2 ec	 xor	 dl, -20			; ffffffecH
  000f9	88 55 f5	 mov	 BYTE PTR __t$[ebp+13], dl
  000fc	8a 50 0e	 mov	 dl, BYTE PTR [eax+14]
  000ff	84 d2		 test	 dl, dl
  00101	74 5a		 je	 SHORT $LN82@operator@9
  00103	32 d1		 xor	 dl, cl
  00105	80 78 0f 00	 cmp	 BYTE PTR [eax+15], 0
  00109	88 55 f6	 mov	 BYTE PTR __t$[ebp+14], dl
  0010c	0f 84 a0 00 00
	00		 je	 $LN1@operator@9
  00112	8a 50 10	 mov	 dl, BYTE PTR [eax+16]
  00115	84 d2		 test	 dl, dl
  00117	74 3e		 je	 SHORT $LN80@operator@9
  00119	80 f2 ed	 xor	 dl, -19			; ffffffedH
  0011c	88 55 f8	 mov	 BYTE PTR __t$[ebp+16], dl
  0011f	8a 50 11	 mov	 dl, BYTE PTR [eax+17]
  00122	84 d2		 test	 dl, dl
  00124	74 2b		 je	 SHORT $LN79@operator@9
  00126	80 f2 ec	 xor	 dl, -20			; ffffffecH
  00129	88 55 f9	 mov	 BYTE PTR __t$[ebp+17], dl
  0012c	8a 50 12	 mov	 dl, BYTE PTR [eax+18]
  0012f	84 d2		 test	 dl, dl
  00131	74 19		 je	 SHORT $LN78@operator@9
  00133	8a 40 13	 mov	 al, BYTE PTR [eax+19]
  00136	32 d1		 xor	 dl, cl
  00138	88 55 fa	 mov	 BYTE PTR __t$[ebp+18], dl
  0013b	84 c0		 test	 al, al
  0013d	74 07		 je	 SHORT $LN77@operator@9
  0013f	34 ea		 xor	 al, -22			; ffffffeaH
  00141	88 45 fb	 mov	 BYTE PTR __t$[ebp+19], al
  00144	eb 6c		 jmp	 SHORT $LN1@operator@9
$LN77@operator@9:
  00146	c6 45 fb ea	 mov	 BYTE PTR __t$[ebp+19], -22 ; ffffffeaH
  0014a	eb 66		 jmp	 SHORT $LN1@operator@9
$LN78@operator@9:
  0014c	88 4d fa	 mov	 BYTE PTR __t$[ebp+18], cl
  0014f	eb 61		 jmp	 SHORT $LN1@operator@9
$LN79@operator@9:
  00151	c6 45 f9 ec	 mov	 BYTE PTR __t$[ebp+17], -20 ; ffffffecH
  00155	eb 5b		 jmp	 SHORT $LN1@operator@9
$LN80@operator@9:
  00157	c6 45 f8 ed	 mov	 BYTE PTR __t$[ebp+16], -19 ; ffffffedH
  0015b	eb 55		 jmp	 SHORT $LN1@operator@9
$LN82@operator@9:
  0015d	88 4d f6	 mov	 BYTE PTR __t$[ebp+14], cl
  00160	eb 50		 jmp	 SHORT $LN1@operator@9
$LN83@operator@9:
  00162	c6 45 f5 ec	 mov	 BYTE PTR __t$[ebp+13], -20 ; ffffffecH
  00166	eb 4a		 jmp	 SHORT $LN1@operator@9
$LN84@operator@9:
  00168	c6 45 f4 ed	 mov	 BYTE PTR __t$[ebp+12], -19 ; ffffffedH
  0016c	eb 44		 jmp	 SHORT $LN1@operator@9
$LN85@operator@9:
  0016e	c6 45 f3 ea	 mov	 BYTE PTR __t$[ebp+11], -22 ; ffffffeaH
  00172	eb 3e		 jmp	 SHORT $LN1@operator@9
$LN86@operator@9:
  00174	88 4d f2	 mov	 BYTE PTR __t$[ebp+10], cl
  00177	eb 39		 jmp	 SHORT $LN1@operator@9
$LN87@operator@9:
  00179	c6 45 f1 ec	 mov	 BYTE PTR __t$[ebp+9], -20 ; ffffffecH
  0017d	eb 33		 jmp	 SHORT $LN1@operator@9
$LN88@operator@9:
  0017f	c6 45 f0 ed	 mov	 BYTE PTR __t$[ebp+8], -19 ; ffffffedH
  00183	eb 2d		 jmp	 SHORT $LN1@operator@9
$LN89@operator@9:
  00185	c6 45 ef ea	 mov	 BYTE PTR __t$[ebp+7], -22 ; ffffffeaH
  00189	eb 27		 jmp	 SHORT $LN1@operator@9
$LN90@operator@9:
  0018b	88 4d ee	 mov	 BYTE PTR __t$[ebp+6], cl
  0018e	eb 22		 jmp	 SHORT $LN1@operator@9
$LN91@operator@9:
  00190	c6 45 ed ec	 mov	 BYTE PTR __t$[ebp+5], -20 ; ffffffecH
  00194	eb 1c		 jmp	 SHORT $LN1@operator@9
$LN92@operator@9:
  00196	c6 45 ec ed	 mov	 BYTE PTR __t$[ebp+4], -19 ; ffffffedH
  0019a	eb 16		 jmp	 SHORT $LN1@operator@9
$LN93@operator@9:
  0019c	c6 45 eb ea	 mov	 BYTE PTR __t$[ebp+3], -22 ; ffffffeaH
  001a0	eb 10		 jmp	 SHORT $LN1@operator@9
$LN94@operator@9:
  001a2	c6 45 ea eb	 mov	 BYTE PTR __t$[ebp+2], -21 ; ffffffebH
  001a6	eb 0a		 jmp	 SHORT $LN1@operator@9
$LN95@operator@9:
  001a8	c6 45 e9 ec	 mov	 BYTE PTR __t$[ebp+1], -20 ; ffffffecH
  001ac	eb 04		 jmp	 SHORT $LN1@operator@9
$LN96@operator@9:
  001ae	c6 45 e8 ed	 mov	 BYTE PTR __t$[ebp], -19	; ffffffedH
$LN1@operator@9:
  001b2	6a 03		 push	 3
  001b4	8d 45 e8	 lea	 eax, DWORD PTR __t$[ebp]
  001b7	c6 45 f7 00	 mov	 BYTE PTR __t$[ebp+15], 0
  001bb	5a		 pop	 edx
$LL104@operator@9:
  001bc	81 30 ed ec eb
	ea		 xor	 DWORD PTR [eax], -353637139 ; eaebecedH
  001c2	83 c0 04	 add	 eax, 4
  001c5	4a		 dec	 edx
  001c6	75 f4		 jne	 SHORT $LL104@operator@9
  001c8	6a 0c		 push	 12			; 0000000cH
  001ca	58		 pop	 eax
$LL101@operator@9:
  001cb	8b c8		 mov	 ecx, eax
  001cd	81 e1 03 00 00
	80		 and	 ecx, -2147483645	; 80000003H
  001d3	79 05		 jns	 SHORT $LN115@operator@9
  001d5	49		 dec	 ecx
  001d6	83 c9 fc	 or	 ecx, -4			; fffffffcH
  001d9	41		 inc	 ecx
$LN115@operator@9:
  001da	b2 ed		 mov	 dl, -19			; ffffffedH
  001dc	2a d1		 sub	 dl, cl
  001de	30 54 05 e8	 xor	 BYTE PTR __t$[ebp+eax], dl
  001e2	40		 inc	 eax
  001e3	83 f8 0f	 cmp	 eax, 15			; 0000000fH
  001e6	7c e3		 jl	 SHORT $LL101@operator@9
  001e8	8b cf		 mov	 ecx, edi
  001ea	8d 75 e8	 lea	 esi, DWORD PTR __t$[ebp]
  001ed	ff 15 00 00 00
	00		 call	 DWORD PTR __imp_?c_str@ioHashString@@QBEPBDXZ
$LL111@operator@9:
  001f3	8a 08		 mov	 cl, BYTE PTR [eax]
  001f5	3a 0e		 cmp	 cl, BYTE PTR [esi]
  001f7	75 1a		 jne	 SHORT $LN112@operator@9
  001f9	84 c9		 test	 cl, cl
  001fb	74 12		 je	 SHORT $LN113@operator@9
  001fd	8a 48 01	 mov	 cl, BYTE PTR [eax+1]
  00200	3a 4e 01	 cmp	 cl, BYTE PTR [esi+1]
  00203	75 0e		 jne	 SHORT $LN112@operator@9
  00205	83 c0 02	 add	 eax, 2
  00208	83 c6 02	 add	 esi, 2
  0020b	84 c9		 test	 cl, cl
  0020d	75 e4		 jne	 SHORT $LL111@operator@9
$LN113@operator@9:
  0020f	33 c0		 xor	 eax, eax
  00211	eb 05		 jmp	 SHORT $LN114@operator@9
$LN112@operator@9:
  00213	1b c0		 sbb	 eax, eax
  00215	83 d8 ff	 sbb	 eax, -1
$LN114@operator@9:
  00218	33 c9		 xor	 ecx, ecx
  0021a	85 c0		 test	 eax, eax
  0021c	0f 94 c0	 sete	 al

; 148  : }

  0021f	8b 4d fc	 mov	 ecx, DWORD PTR __$ArrayPad$[ebp]
  00222	5f		 pop	 edi
  00223	33 cd		 xor	 ecx, ebp
  00225	5e		 pop	 esi
  00226	e8 00 00 00 00	 call	 @__security_check_cookie@4
  0022b	c9		 leave
  0022c	c3		 ret	 0
??$?8$0BA@@@YA_NABVioHashString@@AAY0BA@$$CBD@Z ENDP	; operator==<16>
_TEXT	ENDS
PUBLIC	__$ArrayPad$
PUBLIC	??$?8$08@@YA_NABVioHashString@@AAY08$$CBD@Z	; operator==<9>
; Function compile flags: /Ogsp
;	COMDAT ??$?8$08@@YA_NABVioHashString@@AAY08$$CBD@Z
_TEXT	SEGMENT
__t$ = -20						; size = 9
__$ArrayPad$ = -4					; size = 4
_lhs$ = 8						; size = 4
_t$ = 12						; size = 4
??$?8$08@@YA_NABVioHashString@@AAY08$$CBD@Z PROC	; operator==<9>, COMDAT

; 146  : {

  00000	55		 push	 ebp
  00001	8b ec		 mov	 ebp, esp
  00003	83 ec 14	 sub	 esp, 20			; 00000014H
  00006	a1 00 00 00 00	 mov	 eax, DWORD PTR ___security_cookie
  0000b	33 c5		 xor	 eax, ebp
  0000d	89 45 fc	 mov	 DWORD PTR __$ArrayPad$[ebp], eax
  00010	8b 45 0c	 mov	 eax, DWORD PTR _t$[ebp]

; 147  : 	_ENCSTR(t, _t); return ( strcmp( lhs.c_str(), _t ) == 0 );

  00013	8a 10		 mov	 dl, BYTE PTR [eax]
  00015	8b 4d 08	 mov	 ecx, DWORD PTR _lhs$[ebp]
  00018	84 d2		 test	 dl, dl
  0001a	0f 84 ee 00 00
	00		 je	 $LN96@operator@10
  00020	80 f2 ed	 xor	 dl, -19			; ffffffedH
  00023	88 55 ec	 mov	 BYTE PTR __t$[ebp], dl
  00026	8a 50 01	 mov	 dl, BYTE PTR [eax+1]
  00029	84 d2		 test	 dl, dl
  0002b	0f 84 d7 00 00
	00		 je	 $LN95@operator@10
  00031	80 f2 ec	 xor	 dl, -20			; ffffffecH
  00034	88 55 ed	 mov	 BYTE PTR __t$[ebp+1], dl
  00037	8a 50 02	 mov	 dl, BYTE PTR [eax+2]
  0003a	84 d2		 test	 dl, dl
  0003c	0f 84 c0 00 00
	00		 je	 $LN94@operator@10
  00042	80 f2 eb	 xor	 dl, -21			; ffffffebH
  00045	88 55 ee	 mov	 BYTE PTR __t$[ebp+2], dl
  00048	8a 50 03	 mov	 dl, BYTE PTR [eax+3]
  0004b	84 d2		 test	 dl, dl
  0004d	0f 84 a9 00 00
	00		 je	 $LN93@operator@10
  00053	80 f2 ea	 xor	 dl, -22			; ffffffeaH
  00056	88 55 ef	 mov	 BYTE PTR __t$[ebp+3], dl
  00059	8a 50 04	 mov	 dl, BYTE PTR [eax+4]
  0005c	84 d2		 test	 dl, dl
  0005e	0f 84 92 00 00
	00		 je	 $LN92@operator@10
  00064	80 f2 ed	 xor	 dl, -19			; ffffffedH
  00067	88 55 f0	 mov	 BYTE PTR __t$[ebp+4], dl
  0006a	8a 50 05	 mov	 dl, BYTE PTR [eax+5]
  0006d	84 d2		 test	 dl, dl
  0006f	74 7f		 je	 SHORT $LN91@operator@10
  00071	80 f2 ec	 xor	 dl, -20			; ffffffecH
  00074	88 55 f1	 mov	 BYTE PTR __t$[ebp+5], dl
  00077	8a 50 06	 mov	 dl, BYTE PTR [eax+6]
  0007a	84 d2		 test	 dl, dl
  0007c	74 6c		 je	 SHORT $LN90@operator@10
  0007e	80 f2 eb	 xor	 dl, -21			; ffffffebH
  00081	88 55 f2	 mov	 BYTE PTR __t$[ebp+6], dl
  00084	8a 50 07	 mov	 dl, BYTE PTR [eax+7]
  00087	84 d2		 test	 dl, dl
  00089	74 59		 je	 SHORT $LN89@operator@10
  0008b	80 f2 ea	 xor	 dl, -22			; ffffffeaH
  0008e	80 78 08 00	 cmp	 BYTE PTR [eax+8], 0
  00092	88 55 f3	 mov	 BYTE PTR __t$[ebp+7], dl
  00095	74 7b		 je	 SHORT $LN1@operator@10
  00097	8a 50 09	 mov	 dl, BYTE PTR [eax+9]
  0009a	84 d2		 test	 dl, dl
  0009c	74 40		 je	 SHORT $LN87@operator@10
  0009e	80 f2 ec	 xor	 dl, -20			; ffffffecH
  000a1	88 55 f5	 mov	 BYTE PTR __t$[ebp+9], dl
  000a4	8a 50 0a	 mov	 dl, BYTE PTR [eax+10]
  000a7	84 d2		 test	 dl, dl
  000a9	74 2d		 je	 SHORT $LN86@operator@10
  000ab	80 f2 eb	 xor	 dl, -21			; ffffffebH
  000ae	88 55 f6	 mov	 BYTE PTR __t$[ebp+10], dl
  000b1	8a 50 0b	 mov	 dl, BYTE PTR [eax+11]
  000b4	84 d2		 test	 dl, dl
  000b6	74 1a		 je	 SHORT $LN85@operator@10
  000b8	8a 40 0c	 mov	 al, BYTE PTR [eax+12]
  000bb	80 f2 ea	 xor	 dl, -22			; ffffffeaH
  000be	88 55 f7	 mov	 BYTE PTR __t$[ebp+11], dl
  000c1	84 c0		 test	 al, al
  000c3	74 07		 je	 SHORT $LN84@operator@10
  000c5	34 ed		 xor	 al, -19			; ffffffedH
  000c7	88 45 f8	 mov	 BYTE PTR __t$[ebp+12], al
  000ca	eb 46		 jmp	 SHORT $LN1@operator@10
$LN84@operator@10:
  000cc	c6 45 f8 ed	 mov	 BYTE PTR __t$[ebp+12], -19 ; ffffffedH
  000d0	eb 40		 jmp	 SHORT $LN1@operator@10
$LN85@operator@10:
  000d2	c6 45 f7 ea	 mov	 BYTE PTR __t$[ebp+11], -22 ; ffffffeaH
  000d6	eb 3a		 jmp	 SHORT $LN1@operator@10
$LN86@operator@10:
  000d8	c6 45 f6 eb	 mov	 BYTE PTR __t$[ebp+10], -21 ; ffffffebH
  000dc	eb 34		 jmp	 SHORT $LN1@operator@10
$LN87@operator@10:
  000de	c6 45 f5 ec	 mov	 BYTE PTR __t$[ebp+9], -20 ; ffffffecH
  000e2	eb 2e		 jmp	 SHORT $LN1@operator@10
$LN89@operator@10:
  000e4	c6 45 f3 ea	 mov	 BYTE PTR __t$[ebp+7], -22 ; ffffffeaH
  000e8	eb 28		 jmp	 SHORT $LN1@operator@10
$LN90@operator@10:
  000ea	c6 45 f2 eb	 mov	 BYTE PTR __t$[ebp+6], -21 ; ffffffebH
  000ee	eb 22		 jmp	 SHORT $LN1@operator@10
$LN91@operator@10:
  000f0	c6 45 f1 ec	 mov	 BYTE PTR __t$[ebp+5], -20 ; ffffffecH
  000f4	eb 1c		 jmp	 SHORT $LN1@operator@10
$LN92@operator@10:
  000f6	c6 45 f0 ed	 mov	 BYTE PTR __t$[ebp+4], -19 ; ffffffedH
  000fa	eb 16		 jmp	 SHORT $LN1@operator@10
$LN93@operator@10:
  000fc	c6 45 ef ea	 mov	 BYTE PTR __t$[ebp+3], -22 ; ffffffeaH
  00100	eb 10		 jmp	 SHORT $LN1@operator@10
$LN94@operator@10:
  00102	c6 45 ee eb	 mov	 BYTE PTR __t$[ebp+2], -21 ; ffffffebH
  00106	eb 0a		 jmp	 SHORT $LN1@operator@10
$LN95@operator@10:
  00108	c6 45 ed ec	 mov	 BYTE PTR __t$[ebp+1], -20 ; ffffffecH
  0010c	eb 04		 jmp	 SHORT $LN1@operator@10
$LN96@operator@10:
  0010e	c6 45 ec ed	 mov	 BYTE PTR __t$[ebp], -19	; ffffffedH
$LN1@operator@10:
  00112	6a 02		 push	 2
  00114	8d 45 ec	 lea	 eax, DWORD PTR __t$[ebp]
  00117	c6 45 f4 00	 mov	 BYTE PTR __t$[ebp+8], 0
  0011b	5a		 pop	 edx
$LL104@operator@10:
  0011c	81 30 ed ec eb
	ea		 xor	 DWORD PTR [eax], -353637139 ; eaebecedH
  00122	83 c0 04	 add	 eax, 4
  00125	4a		 dec	 edx
  00126	75 f4		 jne	 SHORT $LL104@operator@10
  00128	56		 push	 esi
  00129	8d 75 ec	 lea	 esi, DWORD PTR __t$[ebp]
  0012c	ff 15 00 00 00
	00		 call	 DWORD PTR __imp_?c_str@ioHashString@@QBEPBDXZ
$LL111@operator@10:
  00132	8a 08		 mov	 cl, BYTE PTR [eax]
  00134	3a 0e		 cmp	 cl, BYTE PTR [esi]
  00136	75 1a		 jne	 SHORT $LN112@operator@10
  00138	84 c9		 test	 cl, cl
  0013a	74 12		 je	 SHORT $LN113@operator@10
  0013c	8a 48 01	 mov	 cl, BYTE PTR [eax+1]
  0013f	3a 4e 01	 cmp	 cl, BYTE PTR [esi+1]
  00142	75 0e		 jne	 SHORT $LN112@operator@10
  00144	83 c0 02	 add	 eax, 2
  00147	83 c6 02	 add	 esi, 2
  0014a	84 c9		 test	 cl, cl
  0014c	75 e4		 jne	 SHORT $LL111@operator@10
$LN113@operator@10:
  0014e	33 c0		 xor	 eax, eax
  00150	eb 05		 jmp	 SHORT $LN114@operator@10
$LN112@operator@10:
  00152	1b c0		 sbb	 eax, eax
  00154	83 d8 ff	 sbb	 eax, -1
$LN114@operator@10:
  00157	33 c9		 xor	 ecx, ecx
  00159	85 c0		 test	 eax, eax
  0015b	0f 94 c0	 sete	 al

; 148  : }

  0015e	8b 4d fc	 mov	 ecx, DWORD PTR __$ArrayPad$[ebp]
  00161	33 cd		 xor	 ecx, ebp
  00163	5e		 pop	 esi
  00164	e8 00 00 00 00	 call	 @__security_check_cookie@4
  00169	c9		 leave
  0016a	c3		 ret	 0
??$?8$08@@YA_NABVioHashString@@AAY08$$CBD@Z ENDP	; operator==<9>
_TEXT	ENDS
PUBLIC	__$ArrayPad$
PUBLIC	??$?8$0M@@@YA_NABVioHashString@@AAY0M@$$CBD@Z	; operator==<12>
; Function compile flags: /Ogsp
;	COMDAT ??$?8$0M@@@YA_NABVioHashString@@AAY0M@$$CBD@Z
_TEXT	SEGMENT
__t$ = -20						; size = 12
__$ArrayPad$ = -4					; size = 4
_lhs$ = 8						; size = 4
_t$ = 12						; size = 4
??$?8$0M@@@YA_NABVioHashString@@AAY0M@$$CBD@Z PROC	; operator==<12>, COMDAT

; 146  : {

  00000	55		 push	 ebp
  00001	8b ec		 mov	 ebp, esp
  00003	83 ec 14	 sub	 esp, 20			; 00000014H
  00006	a1 00 00 00 00	 mov	 eax, DWORD PTR ___security_cookie
  0000b	33 c5		 xor	 eax, ebp
  0000d	89 45 fc	 mov	 DWORD PTR __$ArrayPad$[ebp], eax
  00010	8b 45 0c	 mov	 eax, DWORD PTR _t$[ebp]

; 147  : 	_ENCSTR(t, _t); return ( strcmp( lhs.c_str(), _t ) == 0 );

  00013	8a 10		 mov	 dl, BYTE PTR [eax]
  00015	56		 push	 esi
  00016	57		 push	 edi
  00017	8b 7d 08	 mov	 edi, DWORD PTR _lhs$[ebp]
  0001a	84 d2		 test	 dl, dl
  0001c	0f 84 32 01 00
	00		 je	 $LN96@operator@11
  00022	80 f2 ed	 xor	 dl, -19			; ffffffedH
  00025	88 55 ec	 mov	 BYTE PTR __t$[ebp], dl
  00028	8a 50 01	 mov	 dl, BYTE PTR [eax+1]
  0002b	84 d2		 test	 dl, dl
  0002d	0f 84 1b 01 00
	00		 je	 $LN95@operator@11
  00033	80 f2 ec	 xor	 dl, -20			; ffffffecH
  00036	88 55 ed	 mov	 BYTE PTR __t$[ebp+1], dl
  00039	8a 50 02	 mov	 dl, BYTE PTR [eax+2]
  0003c	84 d2		 test	 dl, dl
  0003e	0f 84 04 01 00
	00		 je	 $LN94@operator@11
  00044	b1 eb		 mov	 cl, -21			; ffffffebH
  00046	32 d1		 xor	 dl, cl
  00048	88 55 ee	 mov	 BYTE PTR __t$[ebp+2], dl
  0004b	8a 50 03	 mov	 dl, BYTE PTR [eax+3]
  0004e	84 d2		 test	 dl, dl
  00050	0f 84 ec 00 00
	00		 je	 $LN93@operator@11
  00056	80 f2 ea	 xor	 dl, -22			; ffffffeaH
  00059	88 55 ef	 mov	 BYTE PTR __t$[ebp+3], dl
  0005c	8a 50 04	 mov	 dl, BYTE PTR [eax+4]
  0005f	84 d2		 test	 dl, dl
  00061	0f 84 d5 00 00
	00		 je	 $LN92@operator@11
  00067	80 f2 ed	 xor	 dl, -19			; ffffffedH
  0006a	88 55 f0	 mov	 BYTE PTR __t$[ebp+4], dl
  0006d	8a 50 05	 mov	 dl, BYTE PTR [eax+5]
  00070	84 d2		 test	 dl, dl
  00072	0f 84 be 00 00
	00		 je	 $LN91@operator@11
  00078	80 f2 ec	 xor	 dl, -20			; ffffffecH
  0007b	88 55 f1	 mov	 BYTE PTR __t$[ebp+5], dl
  0007e	8a 50 06	 mov	 dl, BYTE PTR [eax+6]
  00081	84 d2		 test	 dl, dl
  00083	0f 84 a8 00 00
	00		 je	 $LN90@operator@11
  00089	32 d1		 xor	 dl, cl
  0008b	88 55 f2	 mov	 BYTE PTR __t$[ebp+6], dl
  0008e	8a 50 07	 mov	 dl, BYTE PTR [eax+7]
  00091	84 d2		 test	 dl, dl
  00093	0f 84 92 00 00
	00		 je	 $LN89@operator@11
  00099	80 f2 ea	 xor	 dl, -22			; ffffffeaH
  0009c	88 55 f3	 mov	 BYTE PTR __t$[ebp+7], dl
  0009f	8a 50 08	 mov	 dl, BYTE PTR [eax+8]
  000a2	84 d2		 test	 dl, dl
  000a4	74 7f		 je	 SHORT $LN88@operator@11
  000a6	80 f2 ed	 xor	 dl, -19			; ffffffedH
  000a9	88 55 f4	 mov	 BYTE PTR __t$[ebp+8], dl
  000ac	8a 50 09	 mov	 dl, BYTE PTR [eax+9]
  000af	84 d2		 test	 dl, dl
  000b1	74 6c		 je	 SHORT $LN87@operator@11
  000b3	80 f2 ec	 xor	 dl, -20			; ffffffecH
  000b6	88 55 f5	 mov	 BYTE PTR __t$[ebp+9], dl
  000b9	8a 50 0a	 mov	 dl, BYTE PTR [eax+10]
  000bc	84 d2		 test	 dl, dl
  000be	74 5a		 je	 SHORT $LN86@operator@11
  000c0	32 d1		 xor	 dl, cl
  000c2	80 78 0b 00	 cmp	 BYTE PTR [eax+11], 0
  000c6	88 55 f6	 mov	 BYTE PTR __t$[ebp+10], dl
  000c9	0f 84 89 00 00
	00		 je	 $LN1@operator@11
  000cf	8a 50 0c	 mov	 dl, BYTE PTR [eax+12]
  000d2	84 d2		 test	 dl, dl
  000d4	74 3e		 je	 SHORT $LN84@operator@11
  000d6	80 f2 ed	 xor	 dl, -19			; ffffffedH
  000d9	88 55 f8	 mov	 BYTE PTR __t$[ebp+12], dl
  000dc	8a 50 0d	 mov	 dl, BYTE PTR [eax+13]
  000df	84 d2		 test	 dl, dl
  000e1	74 2b		 je	 SHORT $LN83@operator@11
  000e3	80 f2 ec	 xor	 dl, -20			; ffffffecH
  000e6	88 55 f9	 mov	 BYTE PTR __t$[ebp+13], dl
  000e9	8a 50 0e	 mov	 dl, BYTE PTR [eax+14]
  000ec	84 d2		 test	 dl, dl
  000ee	74 19		 je	 SHORT $LN82@operator@11
  000f0	8a 40 0f	 mov	 al, BYTE PTR [eax+15]
  000f3	32 d1		 xor	 dl, cl
  000f5	88 55 fa	 mov	 BYTE PTR __t$[ebp+14], dl
  000f8	84 c0		 test	 al, al
  000fa	74 07		 je	 SHORT $LN81@operator@11
  000fc	34 ea		 xor	 al, -22			; ffffffeaH
  000fe	88 45 fb	 mov	 BYTE PTR __t$[ebp+15], al
  00101	eb 55		 jmp	 SHORT $LN1@operator@11
$LN81@operator@11:
  00103	c6 45 fb ea	 mov	 BYTE PTR __t$[ebp+15], -22 ; ffffffeaH
  00107	eb 4f		 jmp	 SHORT $LN1@operator@11
$LN82@operator@11:
  00109	88 4d fa	 mov	 BYTE PTR __t$[ebp+14], cl
  0010c	eb 4a		 jmp	 SHORT $LN1@operator@11
$LN83@operator@11:
  0010e	c6 45 f9 ec	 mov	 BYTE PTR __t$[ebp+13], -20 ; ffffffecH
  00112	eb 44		 jmp	 SHORT $LN1@operator@11
$LN84@operator@11:
  00114	c6 45 f8 ed	 mov	 BYTE PTR __t$[ebp+12], -19 ; ffffffedH
  00118	eb 3e		 jmp	 SHORT $LN1@operator@11
$LN86@operator@11:
  0011a	88 4d f6	 mov	 BYTE PTR __t$[ebp+10], cl
  0011d	eb 39		 jmp	 SHORT $LN1@operator@11
$LN87@operator@11:
  0011f	c6 45 f5 ec	 mov	 BYTE PTR __t$[ebp+9], -20 ; ffffffecH
  00123	eb 33		 jmp	 SHORT $LN1@operator@11
$LN88@operator@11:
  00125	c6 45 f4 ed	 mov	 BYTE PTR __t$[ebp+8], -19 ; ffffffedH
  00129	eb 2d		 jmp	 SHORT $LN1@operator@11
$LN89@operator@11:
  0012b	c6 45 f3 ea	 mov	 BYTE PTR __t$[ebp+7], -22 ; ffffffeaH
  0012f	eb 27		 jmp	 SHORT $LN1@operator@11
$LN90@operator@11:
  00131	88 4d f2	 mov	 BYTE PTR __t$[ebp+6], cl
  00134	eb 22		 jmp	 SHORT $LN1@operator@11
$LN91@operator@11:
  00136	c6 45 f1 ec	 mov	 BYTE PTR __t$[ebp+5], -20 ; ffffffecH
  0013a	eb 1c		 jmp	 SHORT $LN1@operator@11
$LN92@operator@11:
  0013c	c6 45 f0 ed	 mov	 BYTE PTR __t$[ebp+4], -19 ; ffffffedH
  00140	eb 16		 jmp	 SHORT $LN1@operator@11
$LN93@operator@11:
  00142	c6 45 ef ea	 mov	 BYTE PTR __t$[ebp+3], -22 ; ffffffeaH
  00146	eb 10		 jmp	 SHORT $LN1@operator@11
$LN94@operator@11:
  00148	c6 45 ee eb	 mov	 BYTE PTR __t$[ebp+2], -21 ; ffffffebH
  0014c	eb 0a		 jmp	 SHORT $LN1@operator@11
$LN95@operator@11:
  0014e	c6 45 ed ec	 mov	 BYTE PTR __t$[ebp+1], -20 ; ffffffecH
  00152	eb 04		 jmp	 SHORT $LN1@operator@11
$LN96@operator@11:
  00154	c6 45 ec ed	 mov	 BYTE PTR __t$[ebp], -19	; ffffffedH
$LN1@operator@11:
  00158	6a 02		 push	 2
  0015a	8d 45 ec	 lea	 eax, DWORD PTR __t$[ebp]
  0015d	c6 45 f7 00	 mov	 BYTE PTR __t$[ebp+11], 0
  00161	5a		 pop	 edx
$LL104@operator@11:
  00162	81 30 ed ec eb
	ea		 xor	 DWORD PTR [eax], -353637139 ; eaebecedH
  00168	83 c0 04	 add	 eax, 4
  0016b	4a		 dec	 edx
  0016c	75 f4		 jne	 SHORT $LL104@operator@11
  0016e	6a 08		 push	 8
  00170	58		 pop	 eax
$LL101@operator@11:
  00171	8b c8		 mov	 ecx, eax
  00173	81 e1 03 00 00
	80		 and	 ecx, -2147483645	; 80000003H
  00179	79 05		 jns	 SHORT $LN115@operator@11
  0017b	49		 dec	 ecx
  0017c	83 c9 fc	 or	 ecx, -4			; fffffffcH
  0017f	41		 inc	 ecx
$LN115@operator@11:
  00180	b2 ed		 mov	 dl, -19			; ffffffedH
  00182	2a d1		 sub	 dl, cl
  00184	30 54 05 ec	 xor	 BYTE PTR __t$[ebp+eax], dl
  00188	40		 inc	 eax
  00189	83 f8 0b	 cmp	 eax, 11			; 0000000bH
  0018c	7c e3		 jl	 SHORT $LL101@operator@11
  0018e	8b cf		 mov	 ecx, edi
  00190	8d 75 ec	 lea	 esi, DWORD PTR __t$[ebp]
  00193	ff 15 00 00 00
	00		 call	 DWORD PTR __imp_?c_str@ioHashString@@QBEPBDXZ
$LL111@operator@11:
  00199	8a 08		 mov	 cl, BYTE PTR [eax]
  0019b	3a 0e		 cmp	 cl, BYTE PTR [esi]
  0019d	75 1a		 jne	 SHORT $LN112@operator@11
  0019f	84 c9		 test	 cl, cl
  001a1	74 12		 je	 SHORT $LN113@operator@11
  001a3	8a 48 01	 mov	 cl, BYTE PTR [eax+1]
  001a6	3a 4e 01	 cmp	 cl, BYTE PTR [esi+1]
  001a9	75 0e		 jne	 SHORT $LN112@operator@11
  001ab	83 c0 02	 add	 eax, 2
  001ae	83 c6 02	 add	 esi, 2
  001b1	84 c9		 test	 cl, cl
  001b3	75 e4		 jne	 SHORT $LL111@operator@11
$LN113@operator@11:
  001b5	33 c0		 xor	 eax, eax
  001b7	eb 05		 jmp	 SHORT $LN114@operator@11
$LN112@operator@11:
  001b9	1b c0		 sbb	 eax, eax
  001bb	83 d8 ff	 sbb	 eax, -1
$LN114@operator@11:
  001be	33 c9		 xor	 ecx, ecx
  001c0	85 c0		 test	 eax, eax
  001c2	0f 94 c0	 sete	 al

; 148  : }

  001c5	8b 4d fc	 mov	 ecx, DWORD PTR __$ArrayPad$[ebp]
  001c8	5f		 pop	 edi
  001c9	33 cd		 xor	 ecx, ebp
  001cb	5e		 pop	 esi
  001cc	e8 00 00 00 00	 call	 @__security_check_cookie@4
  001d1	c9		 leave
  001d2	c3		 ret	 0
??$?8$0M@@@YA_NABVioHashString@@AAY0M@$$CBD@Z ENDP	; operator==<12>
_TEXT	ENDS
PUBLIC	__$ArrayPad$
PUBLIC	??$GetBoolAttribute_e@$08@ioXMLElement@@QBE_NAAY08$$CBD@Z ; ioXMLElement::GetBoolAttribute_e<9>
EXTRN	__imp_?GetBoolAttribute@ioXMLElement@@QBE_NPBD@Z:PROC
; Function compile flags: /Ogsp
; File d:\lost saga for developer\youtube\tutorial\source\src\io3dengine\ioxmlelement.h
;	COMDAT ??$GetBoolAttribute_e@$08@ioXMLElement@@QBE_NAAY08$$CBD@Z
_TEXT	SEGMENT
__k$ = -20						; size = 9
__$ArrayPad$ = -4					; size = 4
_k$ = 8							; size = 4
??$GetBoolAttribute_e@$08@ioXMLElement@@QBE_NAAY08$$CBD@Z PROC ; ioXMLElement::GetBoolAttribute_e<9>, COMDAT
; _this$ = ecx

; 93   : 	{

  00000	55		 push	 ebp
  00001	8b ec		 mov	 ebp, esp
  00003	83 ec 14	 sub	 esp, 20			; 00000014H
  00006	a1 00 00 00 00	 mov	 eax, DWORD PTR ___security_cookie
  0000b	33 c5		 xor	 eax, ebp
  0000d	89 45 fc	 mov	 DWORD PTR __$ArrayPad$[ebp], eax
  00010	8b 45 08	 mov	 eax, DWORD PTR _k$[ebp]

; 94   : 		_ENCSTR(k, _k);

  00013	8a 10		 mov	 dl, BYTE PTR [eax]
  00015	84 d2		 test	 dl, dl
  00017	0f 84 ee 00 00
	00		 je	 $LN96@GetBoolAtt
  0001d	80 f2 ed	 xor	 dl, -19			; ffffffedH
  00020	88 55 ec	 mov	 BYTE PTR __k$[ebp], dl
  00023	8a 50 01	 mov	 dl, BYTE PTR [eax+1]
  00026	84 d2		 test	 dl, dl
  00028	0f 84 d7 00 00
	00		 je	 $LN95@GetBoolAtt
  0002e	80 f2 ec	 xor	 dl, -20			; ffffffecH
  00031	88 55 ed	 mov	 BYTE PTR __k$[ebp+1], dl
  00034	8a 50 02	 mov	 dl, BYTE PTR [eax+2]
  00037	84 d2		 test	 dl, dl
  00039	0f 84 c0 00 00
	00		 je	 $LN94@GetBoolAtt
  0003f	80 f2 eb	 xor	 dl, -21			; ffffffebH
  00042	88 55 ee	 mov	 BYTE PTR __k$[ebp+2], dl
  00045	8a 50 03	 mov	 dl, BYTE PTR [eax+3]
  00048	84 d2		 test	 dl, dl
  0004a	0f 84 a9 00 00
	00		 je	 $LN93@GetBoolAtt
  00050	80 f2 ea	 xor	 dl, -22			; ffffffeaH
  00053	88 55 ef	 mov	 BYTE PTR __k$[ebp+3], dl
  00056	8a 50 04	 mov	 dl, BYTE PTR [eax+4]
  00059	84 d2		 test	 dl, dl
  0005b	0f 84 92 00 00
	00		 je	 $LN92@GetBoolAtt
  00061	80 f2 ed	 xor	 dl, -19			; ffffffedH
  00064	88 55 f0	 mov	 BYTE PTR __k$[ebp+4], dl
  00067	8a 50 05	 mov	 dl, BYTE PTR [eax+5]
  0006a	84 d2		 test	 dl, dl
  0006c	74 7f		 je	 SHORT $LN91@GetBoolAtt
  0006e	80 f2 ec	 xor	 dl, -20			; ffffffecH
  00071	88 55 f1	 mov	 BYTE PTR __k$[ebp+5], dl
  00074	8a 50 06	 mov	 dl, BYTE PTR [eax+6]
  00077	84 d2		 test	 dl, dl
  00079	74 6c		 je	 SHORT $LN90@GetBoolAtt
  0007b	80 f2 eb	 xor	 dl, -21			; ffffffebH
  0007e	88 55 f2	 mov	 BYTE PTR __k$[ebp+6], dl
  00081	8a 50 07	 mov	 dl, BYTE PTR [eax+7]
  00084	84 d2		 test	 dl, dl
  00086	74 59		 je	 SHORT $LN89@GetBoolAtt
  00088	80 f2 ea	 xor	 dl, -22			; ffffffeaH
  0008b	80 78 08 00	 cmp	 BYTE PTR [eax+8], 0
  0008f	88 55 f3	 mov	 BYTE PTR __k$[ebp+7], dl
  00092	74 7b		 je	 SHORT $LN1@GetBoolAtt
  00094	8a 50 09	 mov	 dl, BYTE PTR [eax+9]
  00097	84 d2		 test	 dl, dl
  00099	74 40		 je	 SHORT $LN87@GetBoolAtt
  0009b	80 f2 ec	 xor	 dl, -20			; ffffffecH
  0009e	88 55 f5	 mov	 BYTE PTR __k$[ebp+9], dl
  000a1	8a 50 0a	 mov	 dl, BYTE PTR [eax+10]
  000a4	84 d2		 test	 dl, dl
  000a6	74 2d		 je	 SHORT $LN86@GetBoolAtt
  000a8	80 f2 eb	 xor	 dl, -21			; ffffffebH
  000ab	88 55 f6	 mov	 BYTE PTR __k$[ebp+10], dl
  000ae	8a 50 0b	 mov	 dl, BYTE PTR [eax+11]
  000b1	84 d2		 test	 dl, dl
  000b3	74 1a		 je	 SHORT $LN85@GetBoolAtt
  000b5	8a 40 0c	 mov	 al, BYTE PTR [eax+12]
  000b8	80 f2 ea	 xor	 dl, -22			; ffffffeaH
  000bb	88 55 f7	 mov	 BYTE PTR __k$[ebp+11], dl
  000be	84 c0		 test	 al, al
  000c0	74 07		 je	 SHORT $LN84@GetBoolAtt
  000c2	34 ed		 xor	 al, -19			; ffffffedH
  000c4	88 45 f8	 mov	 BYTE PTR __k$[ebp+12], al
  000c7	eb 46		 jmp	 SHORT $LN1@GetBoolAtt
$LN84@GetBoolAtt:
  000c9	c6 45 f8 ed	 mov	 BYTE PTR __k$[ebp+12], -19 ; ffffffedH
  000cd	eb 40		 jmp	 SHORT $LN1@GetBoolAtt
$LN85@GetBoolAtt:
  000cf	c6 45 f7 ea	 mov	 BYTE PTR __k$[ebp+11], -22 ; ffffffeaH
  000d3	eb 3a		 jmp	 SHORT $LN1@GetBoolAtt
$LN86@GetBoolAtt:
  000d5	c6 45 f6 eb	 mov	 BYTE PTR __k$[ebp+10], -21 ; ffffffebH
  000d9	eb 34		 jmp	 SHORT $LN1@GetBoolAtt
$LN87@GetBoolAtt:
  000db	c6 45 f5 ec	 mov	 BYTE PTR __k$[ebp+9], -20 ; ffffffecH
  000df	eb 2e		 jmp	 SHORT $LN1@GetBoolAtt
$LN89@GetBoolAtt:
  000e1	c6 45 f3 ea	 mov	 BYTE PTR __k$[ebp+7], -22 ; ffffffeaH
  000e5	eb 28		 jmp	 SHORT $LN1@GetBoolAtt
$LN90@GetBoolAtt:
  000e7	c6 45 f2 eb	 mov	 BYTE PTR __k$[ebp+6], -21 ; ffffffebH
  000eb	eb 22		 jmp	 SHORT $LN1@GetBoolAtt
$LN91@GetBoolAtt:
  000ed	c6 45 f1 ec	 mov	 BYTE PTR __k$[ebp+5], -20 ; ffffffecH
  000f1	eb 1c		 jmp	 SHORT $LN1@GetBoolAtt
$LN92@GetBoolAtt:
  000f3	c6 45 f0 ed	 mov	 BYTE PTR __k$[ebp+4], -19 ; ffffffedH
  000f7	eb 16		 jmp	 SHORT $LN1@GetBoolAtt
$LN93@GetBoolAtt:
  000f9	c6 45 ef ea	 mov	 BYTE PTR __k$[ebp+3], -22 ; ffffffeaH
  000fd	eb 10		 jmp	 SHORT $LN1@GetBoolAtt
$LN94@GetBoolAtt:
  000ff	c6 45 ee eb	 mov	 BYTE PTR __k$[ebp+2], -21 ; ffffffebH
  00103	eb 0a		 jmp	 SHORT $LN1@GetBoolAtt
$LN95@GetBoolAtt:
  00105	c6 45 ed ec	 mov	 BYTE PTR __k$[ebp+1], -20 ; ffffffecH
  00109	eb 04		 jmp	 SHORT $LN1@GetBoolAtt
$LN96@GetBoolAtt:
  0010b	c6 45 ec ed	 mov	 BYTE PTR __k$[ebp], -19	; ffffffedH
$LN1@GetBoolAtt:
  0010f	6a 02		 push	 2
  00111	8d 45 ec	 lea	 eax, DWORD PTR __k$[ebp]
  00114	c6 45 f4 00	 mov	 BYTE PTR __k$[ebp+8], 0
  00118	5a		 pop	 edx
$LL104@GetBoolAtt:
  00119	81 30 ed ec eb
	ea		 xor	 DWORD PTR [eax], -353637139 ; eaebecedH
  0011f	83 c0 04	 add	 eax, 4
  00122	4a		 dec	 edx
  00123	75 f4		 jne	 SHORT $LL104@GetBoolAtt

; 95   : 		return GetBoolAttribute(_k);

  00125	8d 45 ec	 lea	 eax, DWORD PTR __k$[ebp]
  00128	50		 push	 eax
  00129	ff 15 00 00 00
	00		 call	 DWORD PTR __imp_?GetBoolAttribute@ioXMLElement@@QBE_NPBD@Z

; 96   : 	}

  0012f	8b 4d fc	 mov	 ecx, DWORD PTR __$ArrayPad$[ebp]
  00132	33 cd		 xor	 ecx, ebp
  00134	e8 00 00 00 00	 call	 @__security_check_cookie@4
  00139	c9		 leave
  0013a	c2 04 00	 ret	 4
??$GetBoolAttribute_e@$08@ioXMLElement@@QBE_NAAY08$$CBD@Z ENDP ; ioXMLElement::GetBoolAttribute_e<9>
_TEXT	ENDS
PUBLIC	__$ArrayPad$
PUBLIC	??$GetIntAttribute_e@$0L@@ioXMLElement@@QBEHAAY0L@$$CBD@Z ; ioXMLElement::GetIntAttribute_e<11>
EXTRN	__imp_?GetIntAttribute@ioXMLElement@@QBEHPBD@Z:PROC
; Function compile flags: /Ogsp
;	COMDAT ??$GetIntAttribute_e@$0L@@ioXMLElement@@QBEHAAY0L@$$CBD@Z
_TEXT	SEGMENT
__k$ = -20						; size = 11
__$ArrayPad$ = -4					; size = 4
_k$ = 8							; size = 4
??$GetIntAttribute_e@$0L@@ioXMLElement@@QBEHAAY0L@$$CBD@Z PROC ; ioXMLElement::GetIntAttribute_e<11>, COMDAT
; _this$ = ecx

; 86   : 	{

  00000	55		 push	 ebp
  00001	8b ec		 mov	 ebp, esp
  00003	83 ec 14	 sub	 esp, 20			; 00000014H
  00006	a1 00 00 00 00	 mov	 eax, DWORD PTR ___security_cookie
  0000b	33 c5		 xor	 eax, ebp
  0000d	89 45 fc	 mov	 DWORD PTR __$ArrayPad$[ebp], eax
  00010	8b 45 08	 mov	 eax, DWORD PTR _k$[ebp]

; 87   : 		_ENCSTR(k, _k);

  00013	8a 10		 mov	 dl, BYTE PTR [eax]
  00015	56		 push	 esi
  00016	8b f1		 mov	 esi, ecx
  00018	84 d2		 test	 dl, dl
  0001a	0f 84 24 01 00
	00		 je	 $LN96@GetIntAttr
  00020	80 f2 ed	 xor	 dl, -19			; ffffffedH
  00023	88 55 ec	 mov	 BYTE PTR __k$[ebp], dl
  00026	8a 50 01	 mov	 dl, BYTE PTR [eax+1]
  00029	84 d2		 test	 dl, dl
  0002b	0f 84 0d 01 00
	00		 je	 $LN95@GetIntAttr
  00031	80 f2 ec	 xor	 dl, -20			; ffffffecH
  00034	88 55 ed	 mov	 BYTE PTR __k$[ebp+1], dl
  00037	8a 50 02	 mov	 dl, BYTE PTR [eax+2]
  0003a	84 d2		 test	 dl, dl
  0003c	0f 84 f6 00 00
	00		 je	 $LN94@GetIntAttr
  00042	80 f2 eb	 xor	 dl, -21			; ffffffebH
  00045	88 55 ee	 mov	 BYTE PTR __k$[ebp+2], dl
  00048	8a 50 03	 mov	 dl, BYTE PTR [eax+3]
  0004b	84 d2		 test	 dl, dl
  0004d	0f 84 df 00 00
	00		 je	 $LN93@GetIntAttr
  00053	80 f2 ea	 xor	 dl, -22			; ffffffeaH
  00056	88 55 ef	 mov	 BYTE PTR __k$[ebp+3], dl
  00059	8a 50 04	 mov	 dl, BYTE PTR [eax+4]
  0005c	84 d2		 test	 dl, dl
  0005e	0f 84 c8 00 00
	00		 je	 $LN92@GetIntAttr
  00064	80 f2 ed	 xor	 dl, -19			; ffffffedH
  00067	88 55 f0	 mov	 BYTE PTR __k$[ebp+4], dl
  0006a	8a 50 05	 mov	 dl, BYTE PTR [eax+5]
  0006d	84 d2		 test	 dl, dl
  0006f	0f 84 b1 00 00
	00		 je	 $LN91@GetIntAttr
  00075	80 f2 ec	 xor	 dl, -20			; ffffffecH
  00078	88 55 f1	 mov	 BYTE PTR __k$[ebp+5], dl
  0007b	8a 50 06	 mov	 dl, BYTE PTR [eax+6]
  0007e	84 d2		 test	 dl, dl
  00080	0f 84 9a 00 00
	00		 je	 $LN90@GetIntAttr
  00086	80 f2 eb	 xor	 dl, -21			; ffffffebH
  00089	88 55 f2	 mov	 BYTE PTR __k$[ebp+6], dl
  0008c	8a 50 07	 mov	 dl, BYTE PTR [eax+7]
  0008f	84 d2		 test	 dl, dl
  00091	0f 84 83 00 00
	00		 je	 $LN89@GetIntAttr
  00097	80 f2 ea	 xor	 dl, -22			; ffffffeaH
  0009a	88 55 f3	 mov	 BYTE PTR __k$[ebp+7], dl
  0009d	8a 50 08	 mov	 dl, BYTE PTR [eax+8]
  000a0	84 d2		 test	 dl, dl
  000a2	74 70		 je	 SHORT $LN88@GetIntAttr
  000a4	80 f2 ed	 xor	 dl, -19			; ffffffedH
  000a7	88 55 f4	 mov	 BYTE PTR __k$[ebp+8], dl
  000aa	8a 50 09	 mov	 dl, BYTE PTR [eax+9]
  000ad	84 d2		 test	 dl, dl
  000af	74 5d		 je	 SHORT $LN87@GetIntAttr
  000b1	80 f2 ec	 xor	 dl, -20			; ffffffecH
  000b4	80 78 0a 00	 cmp	 BYTE PTR [eax+10], 0
  000b8	88 55 f5	 mov	 BYTE PTR __k$[ebp+9], dl
  000bb	0f 84 87 00 00
	00		 je	 $LN1@GetIntAttr
  000c1	8a 50 0b	 mov	 dl, BYTE PTR [eax+11]
  000c4	84 d2		 test	 dl, dl
  000c6	74 40		 je	 SHORT $LN85@GetIntAttr
  000c8	80 f2 ea	 xor	 dl, -22			; ffffffeaH
  000cb	88 55 f7	 mov	 BYTE PTR __k$[ebp+11], dl
  000ce	8a 50 0c	 mov	 dl, BYTE PTR [eax+12]
  000d1	84 d2		 test	 dl, dl
  000d3	74 2d		 je	 SHORT $LN84@GetIntAttr
  000d5	80 f2 ed	 xor	 dl, -19			; ffffffedH
  000d8	88 55 f8	 mov	 BYTE PTR __k$[ebp+12], dl
  000db	8a 50 0d	 mov	 dl, BYTE PTR [eax+13]
  000de	84 d2		 test	 dl, dl
  000e0	74 1a		 je	 SHORT $LN83@GetIntAttr
  000e2	8a 40 0e	 mov	 al, BYTE PTR [eax+14]
  000e5	80 f2 ec	 xor	 dl, -20			; ffffffecH
  000e8	88 55 f9	 mov	 BYTE PTR __k$[ebp+13], dl
  000eb	84 c0		 test	 al, al
  000ed	74 07		 je	 SHORT $LN82@GetIntAttr
  000ef	34 eb		 xor	 al, -21			; ffffffebH
  000f1	88 45 fa	 mov	 BYTE PTR __k$[ebp+14], al
  000f4	eb 52		 jmp	 SHORT $LN1@GetIntAttr
$LN82@GetIntAttr:
  000f6	c6 45 fa eb	 mov	 BYTE PTR __k$[ebp+14], -21 ; ffffffebH
  000fa	eb 4c		 jmp	 SHORT $LN1@GetIntAttr
$LN83@GetIntAttr:
  000fc	c6 45 f9 ec	 mov	 BYTE PTR __k$[ebp+13], -20 ; ffffffecH
  00100	eb 46		 jmp	 SHORT $LN1@GetIntAttr
$LN84@GetIntAttr:
  00102	c6 45 f8 ed	 mov	 BYTE PTR __k$[ebp+12], -19 ; ffffffedH
  00106	eb 40		 jmp	 SHORT $LN1@GetIntAttr
$LN85@GetIntAttr:
  00108	c6 45 f7 ea	 mov	 BYTE PTR __k$[ebp+11], -22 ; ffffffeaH
  0010c	eb 3a		 jmp	 SHORT $LN1@GetIntAttr
$LN87@GetIntAttr:
  0010e	c6 45 f5 ec	 mov	 BYTE PTR __k$[ebp+9], -20 ; ffffffecH
  00112	eb 34		 jmp	 SHORT $LN1@GetIntAttr
$LN88@GetIntAttr:
  00114	c6 45 f4 ed	 mov	 BYTE PTR __k$[ebp+8], -19 ; ffffffedH
  00118	eb 2e		 jmp	 SHORT $LN1@GetIntAttr
$LN89@GetIntAttr:
  0011a	c6 45 f3 ea	 mov	 BYTE PTR __k$[ebp+7], -22 ; ffffffeaH
  0011e	eb 28		 jmp	 SHORT $LN1@GetIntAttr
$LN90@GetIntAttr:
  00120	c6 45 f2 eb	 mov	 BYTE PTR __k$[ebp+6], -21 ; ffffffebH
  00124	eb 22		 jmp	 SHORT $LN1@GetIntAttr
$LN91@GetIntAttr:
  00126	c6 45 f1 ec	 mov	 BYTE PTR __k$[ebp+5], -20 ; ffffffecH
  0012a	eb 1c		 jmp	 SHORT $LN1@GetIntAttr
$LN92@GetIntAttr:
  0012c	c6 45 f0 ed	 mov	 BYTE PTR __k$[ebp+4], -19 ; ffffffedH
  00130	eb 16		 jmp	 SHORT $LN1@GetIntAttr
$LN93@GetIntAttr:
  00132	c6 45 ef ea	 mov	 BYTE PTR __k$[ebp+3], -22 ; ffffffeaH
  00136	eb 10		 jmp	 SHORT $LN1@GetIntAttr
$LN94@GetIntAttr:
  00138	c6 45 ee eb	 mov	 BYTE PTR __k$[ebp+2], -21 ; ffffffebH
  0013c	eb 0a		 jmp	 SHORT $LN1@GetIntAttr
$LN95@GetIntAttr:
  0013e	c6 45 ed ec	 mov	 BYTE PTR __k$[ebp+1], -20 ; ffffffecH
  00142	eb 04		 jmp	 SHORT $LN1@GetIntAttr
$LN96@GetIntAttr:
  00144	c6 45 ec ed	 mov	 BYTE PTR __k$[ebp], -19	; ffffffedH
$LN1@GetIntAttr:
  00148	6a 02		 push	 2
  0014a	8d 45 ec	 lea	 eax, DWORD PTR __k$[ebp]
  0014d	c6 45 f6 00	 mov	 BYTE PTR __k$[ebp+10], 0
  00151	5a		 pop	 edx
$LL104@GetIntAttr:
  00152	81 30 ed ec eb
	ea		 xor	 DWORD PTR [eax], -353637139 ; eaebecedH
  00158	83 c0 04	 add	 eax, 4
  0015b	4a		 dec	 edx
  0015c	75 f4		 jne	 SHORT $LL104@GetIntAttr
  0015e	6a 08		 push	 8
  00160	58		 pop	 eax
$LL101@GetIntAttr:
  00161	8b c8		 mov	 ecx, eax
  00163	81 e1 03 00 00
	80		 and	 ecx, -2147483645	; 80000003H
  00169	79 05		 jns	 SHORT $LN111@GetIntAttr
  0016b	49		 dec	 ecx
  0016c	83 c9 fc	 or	 ecx, -4			; fffffffcH
  0016f	41		 inc	 ecx
$LN111@GetIntAttr:
  00170	b2 ed		 mov	 dl, -19			; ffffffedH
  00172	2a d1		 sub	 dl, cl
  00174	30 54 05 ec	 xor	 BYTE PTR __k$[ebp+eax], dl
  00178	40		 inc	 eax
  00179	83 f8 0a	 cmp	 eax, 10			; 0000000aH
  0017c	7c e3		 jl	 SHORT $LL101@GetIntAttr

; 88   : 		return GetIntAttribute(_k);

  0017e	8d 45 ec	 lea	 eax, DWORD PTR __k$[ebp]
  00181	50		 push	 eax
  00182	8b ce		 mov	 ecx, esi
  00184	ff 15 00 00 00
	00		 call	 DWORD PTR __imp_?GetIntAttribute@ioXMLElement@@QBEHPBD@Z

; 89   : 	}

  0018a	8b 4d fc	 mov	 ecx, DWORD PTR __$ArrayPad$[ebp]
  0018d	33 cd		 xor	 ecx, ebp
  0018f	5e		 pop	 esi
  00190	e8 00 00 00 00	 call	 @__security_check_cookie@4
  00195	c9		 leave
  00196	c2 04 00	 ret	 4
??$GetIntAttribute_e@$0L@@ioXMLElement@@QBEHAAY0L@$$CBD@Z ENDP ; ioXMLElement::GetIntAttribute_e<11>
_TEXT	ENDS
PUBLIC	__$ArrayPad$
PUBLIC	??$GetIntAttribute_e@$0BC@@ioXMLElement@@QBEHAAY0BC@$$CBD@Z ; ioXMLElement::GetIntAttribute_e<18>
; Function compile flags: /Ogsp
;	COMDAT ??$GetIntAttribute_e@$0BC@@ioXMLElement@@QBEHAAY0BC@$$CBD@Z
_TEXT	SEGMENT
__k$ = -28						; size = 18
__$ArrayPad$ = -4					; size = 4
_k$ = 8							; size = 4
??$GetIntAttribute_e@$0BC@@ioXMLElement@@QBEHAAY0BC@$$CBD@Z PROC ; ioXMLElement::GetIntAttribute_e<18>, COMDAT
; _this$ = ecx

; 86   : 	{

  00000	55		 push	 ebp
  00001	8b ec		 mov	 ebp, esp
  00003	83 ec 1c	 sub	 esp, 28			; 0000001cH
  00006	a1 00 00 00 00	 mov	 eax, DWORD PTR ___security_cookie
  0000b	33 c5		 xor	 eax, ebp
  0000d	89 45 fc	 mov	 DWORD PTR __$ArrayPad$[ebp], eax
  00010	8b 45 08	 mov	 eax, DWORD PTR _k$[ebp]

; 87   : 		_ENCSTR(k, _k);

  00013	8a 10		 mov	 dl, BYTE PTR [eax]
  00015	56		 push	 esi
  00016	8b f1		 mov	 esi, ecx
  00018	84 d2		 test	 dl, dl
  0001a	0f 84 be 01 00
	00		 je	 $LN96@GetIntAttr@2
  00020	80 f2 ed	 xor	 dl, -19			; ffffffedH
  00023	88 55 e4	 mov	 BYTE PTR __k$[ebp], dl
  00026	8a 50 01	 mov	 dl, BYTE PTR [eax+1]
  00029	84 d2		 test	 dl, dl
  0002b	0f 84 a7 01 00
	00		 je	 $LN95@GetIntAttr@2
  00031	80 f2 ec	 xor	 dl, -20			; ffffffecH
  00034	88 55 e5	 mov	 BYTE PTR __k$[ebp+1], dl
  00037	8a 50 02	 mov	 dl, BYTE PTR [eax+2]
  0003a	84 d2		 test	 dl, dl
  0003c	0f 84 90 01 00
	00		 je	 $LN94@GetIntAttr@2
  00042	b1 eb		 mov	 cl, -21			; ffffffebH
  00044	32 d1		 xor	 dl, cl
  00046	88 55 e6	 mov	 BYTE PTR __k$[ebp+2], dl
  00049	8a 50 03	 mov	 dl, BYTE PTR [eax+3]
  0004c	84 d2		 test	 dl, dl
  0004e	0f 84 78 01 00
	00		 je	 $LN93@GetIntAttr@2
  00054	80 f2 ea	 xor	 dl, -22			; ffffffeaH
  00057	88 55 e7	 mov	 BYTE PTR __k$[ebp+3], dl
  0005a	8a 50 04	 mov	 dl, BYTE PTR [eax+4]
  0005d	84 d2		 test	 dl, dl
  0005f	0f 84 61 01 00
	00		 je	 $LN92@GetIntAttr@2
  00065	80 f2 ed	 xor	 dl, -19			; ffffffedH
  00068	88 55 e8	 mov	 BYTE PTR __k$[ebp+4], dl
  0006b	8a 50 05	 mov	 dl, BYTE PTR [eax+5]
  0006e	84 d2		 test	 dl, dl
  00070	0f 84 4a 01 00
	00		 je	 $LN91@GetIntAttr@2
  00076	80 f2 ec	 xor	 dl, -20			; ffffffecH
  00079	88 55 e9	 mov	 BYTE PTR __k$[ebp+5], dl
  0007c	8a 50 06	 mov	 dl, BYTE PTR [eax+6]
  0007f	84 d2		 test	 dl, dl
  00081	0f 84 34 01 00
	00		 je	 $LN90@GetIntAttr@2
  00087	32 d1		 xor	 dl, cl
  00089	88 55 ea	 mov	 BYTE PTR __k$[ebp+6], dl
  0008c	8a 50 07	 mov	 dl, BYTE PTR [eax+7]
  0008f	84 d2		 test	 dl, dl
  00091	0f 84 1e 01 00
	00		 je	 $LN89@GetIntAttr@2
  00097	80 f2 ea	 xor	 dl, -22			; ffffffeaH
  0009a	88 55 eb	 mov	 BYTE PTR __k$[ebp+7], dl
  0009d	8a 50 08	 mov	 dl, BYTE PTR [eax+8]
  000a0	84 d2		 test	 dl, dl
  000a2	0f 84 07 01 00
	00		 je	 $LN88@GetIntAttr@2
  000a8	80 f2 ed	 xor	 dl, -19			; ffffffedH
  000ab	88 55 ec	 mov	 BYTE PTR __k$[ebp+8], dl
  000ae	8a 50 09	 mov	 dl, BYTE PTR [eax+9]
  000b1	84 d2		 test	 dl, dl
  000b3	0f 84 f0 00 00
	00		 je	 $LN87@GetIntAttr@2
  000b9	80 f2 ec	 xor	 dl, -20			; ffffffecH
  000bc	88 55 ed	 mov	 BYTE PTR __k$[ebp+9], dl
  000bf	8a 50 0a	 mov	 dl, BYTE PTR [eax+10]
  000c2	84 d2		 test	 dl, dl
  000c4	0f 84 da 00 00
	00		 je	 $LN86@GetIntAttr@2
  000ca	32 d1		 xor	 dl, cl
  000cc	88 55 ee	 mov	 BYTE PTR __k$[ebp+10], dl
  000cf	8a 50 0b	 mov	 dl, BYTE PTR [eax+11]
  000d2	84 d2		 test	 dl, dl
  000d4	0f 84 c4 00 00
	00		 je	 $LN85@GetIntAttr@2
  000da	80 f2 ea	 xor	 dl, -22			; ffffffeaH
  000dd	88 55 ef	 mov	 BYTE PTR __k$[ebp+11], dl
  000e0	8a 50 0c	 mov	 dl, BYTE PTR [eax+12]
  000e3	84 d2		 test	 dl, dl
  000e5	0f 84 ad 00 00
	00		 je	 $LN84@GetIntAttr@2
  000eb	80 f2 ed	 xor	 dl, -19			; ffffffedH
  000ee	88 55 f0	 mov	 BYTE PTR __k$[ebp+12], dl
  000f1	8a 50 0d	 mov	 dl, BYTE PTR [eax+13]
  000f4	84 d2		 test	 dl, dl
  000f6	0f 84 96 00 00
	00		 je	 $LN83@GetIntAttr@2
  000fc	80 f2 ec	 xor	 dl, -20			; ffffffecH
  000ff	88 55 f1	 mov	 BYTE PTR __k$[ebp+13], dl
  00102	8a 50 0e	 mov	 dl, BYTE PTR [eax+14]
  00105	84 d2		 test	 dl, dl
  00107	0f 84 80 00 00
	00		 je	 $LN82@GetIntAttr@2
  0010d	32 d1		 xor	 dl, cl
  0010f	88 55 f2	 mov	 BYTE PTR __k$[ebp+14], dl
  00112	8a 50 0f	 mov	 dl, BYTE PTR [eax+15]
  00115	84 d2		 test	 dl, dl
  00117	74 6e		 je	 SHORT $LN81@GetIntAttr@2
  00119	80 f2 ea	 xor	 dl, -22			; ffffffeaH
  0011c	88 55 f3	 mov	 BYTE PTR __k$[ebp+15], dl
  0011f	8a 50 10	 mov	 dl, BYTE PTR [eax+16]
  00122	84 d2		 test	 dl, dl
  00124	74 5b		 je	 SHORT $LN80@GetIntAttr@2
  00126	80 f2 ed	 xor	 dl, -19			; ffffffedH
  00129	80 78 11 00	 cmp	 BYTE PTR [eax+17], 0
  0012d	88 55 f4	 mov	 BYTE PTR __k$[ebp+16], dl
  00130	0f 84 ac 00 00
	00		 je	 $LN1@GetIntAttr@2
  00136	8a 50 12	 mov	 dl, BYTE PTR [eax+18]
  00139	84 d2		 test	 dl, dl
  0013b	74 3f		 je	 SHORT $LN78@GetIntAttr@2
  0013d	32 d1		 xor	 dl, cl
  0013f	88 55 f6	 mov	 BYTE PTR __k$[ebp+18], dl
  00142	8a 50 13	 mov	 dl, BYTE PTR [eax+19]
  00145	84 d2		 test	 dl, dl
  00147	74 2d		 je	 SHORT $LN77@GetIntAttr@2
  00149	80 f2 ea	 xor	 dl, -22			; ffffffeaH
  0014c	88 55 f7	 mov	 BYTE PTR __k$[ebp+19], dl
  0014f	8a 50 14	 mov	 dl, BYTE PTR [eax+20]
  00152	84 d2		 test	 dl, dl
  00154	74 1a		 je	 SHORT $LN76@GetIntAttr@2
  00156	8a 40 15	 mov	 al, BYTE PTR [eax+21]
  00159	80 f2 ed	 xor	 dl, -19			; ffffffedH
  0015c	88 55 f8	 mov	 BYTE PTR __k$[ebp+20], dl
  0015f	84 c0		 test	 al, al
  00161	74 07		 je	 SHORT $LN75@GetIntAttr@2
  00163	34 ec		 xor	 al, -20			; ffffffecH
  00165	88 45 f9	 mov	 BYTE PTR __k$[ebp+21], al
  00168	eb 78		 jmp	 SHORT $LN1@GetIntAttr@2
$LN75@GetIntAttr@2:
  0016a	c6 45 f9 ec	 mov	 BYTE PTR __k$[ebp+21], -20 ; ffffffecH
  0016e	eb 72		 jmp	 SHORT $LN1@GetIntAttr@2
$LN76@GetIntAttr@2:
  00170	c6 45 f8 ed	 mov	 BYTE PTR __k$[ebp+20], -19 ; ffffffedH
  00174	eb 6c		 jmp	 SHORT $LN1@GetIntAttr@2
$LN77@GetIntAttr@2:
  00176	c6 45 f7 ea	 mov	 BYTE PTR __k$[ebp+19], -22 ; ffffffeaH
  0017a	eb 66		 jmp	 SHORT $LN1@GetIntAttr@2
$LN78@GetIntAttr@2:
  0017c	88 4d f6	 mov	 BYTE PTR __k$[ebp+18], cl
  0017f	eb 61		 jmp	 SHORT $LN1@GetIntAttr@2
$LN80@GetIntAttr@2:
  00181	c6 45 f4 ed	 mov	 BYTE PTR __k$[ebp+16], -19 ; ffffffedH
  00185	eb 5b		 jmp	 SHORT $LN1@GetIntAttr@2
$LN81@GetIntAttr@2:
  00187	c6 45 f3 ea	 mov	 BYTE PTR __k$[ebp+15], -22 ; ffffffeaH
  0018b	eb 55		 jmp	 SHORT $LN1@GetIntAttr@2
$LN82@GetIntAttr@2:
  0018d	88 4d f2	 mov	 BYTE PTR __k$[ebp+14], cl
  00190	eb 50		 jmp	 SHORT $LN1@GetIntAttr@2
$LN83@GetIntAttr@2:
  00192	c6 45 f1 ec	 mov	 BYTE PTR __k$[ebp+13], -20 ; ffffffecH
  00196	eb 4a		 jmp	 SHORT $LN1@GetIntAttr@2
$LN84@GetIntAttr@2:
  00198	c6 45 f0 ed	 mov	 BYTE PTR __k$[ebp+12], -19 ; ffffffedH
  0019c	eb 44		 jmp	 SHORT $LN1@GetIntAttr@2
$LN85@GetIntAttr@2:
  0019e	c6 45 ef ea	 mov	 BYTE PTR __k$[ebp+11], -22 ; ffffffeaH
  001a2	eb 3e		 jmp	 SHORT $LN1@GetIntAttr@2
$LN86@GetIntAttr@2:
  001a4	88 4d ee	 mov	 BYTE PTR __k$[ebp+10], cl
  001a7	eb 39		 jmp	 SHORT $LN1@GetIntAttr@2
$LN87@GetIntAttr@2:
  001a9	c6 45 ed ec	 mov	 BYTE PTR __k$[ebp+9], -20 ; ffffffecH
  001ad	eb 33		 jmp	 SHORT $LN1@GetIntAttr@2
$LN88@GetIntAttr@2:
  001af	c6 45 ec ed	 mov	 BYTE PTR __k$[ebp+8], -19 ; ffffffedH
  001b3	eb 2d		 jmp	 SHORT $LN1@GetIntAttr@2
$LN89@GetIntAttr@2:
  001b5	c6 45 eb ea	 mov	 BYTE PTR __k$[ebp+7], -22 ; ffffffeaH
  001b9	eb 27		 jmp	 SHORT $LN1@GetIntAttr@2
$LN90@GetIntAttr@2:
  001bb	88 4d ea	 mov	 BYTE PTR __k$[ebp+6], cl
  001be	eb 22		 jmp	 SHORT $LN1@GetIntAttr@2
$LN91@GetIntAttr@2:
  001c0	c6 45 e9 ec	 mov	 BYTE PTR __k$[ebp+5], -20 ; ffffffecH
  001c4	eb 1c		 jmp	 SHORT $LN1@GetIntAttr@2
$LN92@GetIntAttr@2:
  001c6	c6 45 e8 ed	 mov	 BYTE PTR __k$[ebp+4], -19 ; ffffffedH
  001ca	eb 16		 jmp	 SHORT $LN1@GetIntAttr@2
$LN93@GetIntAttr@2:
  001cc	c6 45 e7 ea	 mov	 BYTE PTR __k$[ebp+3], -22 ; ffffffeaH
  001d0	eb 10		 jmp	 SHORT $LN1@GetIntAttr@2
$LN94@GetIntAttr@2:
  001d2	c6 45 e6 eb	 mov	 BYTE PTR __k$[ebp+2], -21 ; ffffffebH
  001d6	eb 0a		 jmp	 SHORT $LN1@GetIntAttr@2
$LN95@GetIntAttr@2:
  001d8	c6 45 e5 ec	 mov	 BYTE PTR __k$[ebp+1], -20 ; ffffffecH
  001dc	eb 04		 jmp	 SHORT $LN1@GetIntAttr@2
$LN96@GetIntAttr@2:
  001de	c6 45 e4 ed	 mov	 BYTE PTR __k$[ebp], -19	; ffffffedH
$LN1@GetIntAttr@2:
  001e2	6a 04		 push	 4
  001e4	8d 45 e4	 lea	 eax, DWORD PTR __k$[ebp]
  001e7	c6 45 f5 00	 mov	 BYTE PTR __k$[ebp+17], 0
  001eb	5a		 pop	 edx
$LL104@GetIntAttr@2:
  001ec	81 30 ed ec eb
	ea		 xor	 DWORD PTR [eax], -353637139 ; eaebecedH
  001f2	83 c0 04	 add	 eax, 4
  001f5	4a		 dec	 edx
  001f6	75 f4		 jne	 SHORT $LL104@GetIntAttr@2
  001f8	80 75 f4 ed	 xor	 BYTE PTR __k$[ebp+16], -19 ; ffffffedH

; 88   : 		return GetIntAttribute(_k);

  001fc	8d 45 e4	 lea	 eax, DWORD PTR __k$[ebp]
  001ff	50		 push	 eax
  00200	8b ce		 mov	 ecx, esi
  00202	ff 15 00 00 00
	00		 call	 DWORD PTR __imp_?GetIntAttribute@ioXMLElement@@QBEHPBD@Z

; 89   : 	}

  00208	8b 4d fc	 mov	 ecx, DWORD PTR __$ArrayPad$[ebp]
  0020b	33 cd		 xor	 ecx, ebp
  0020d	5e		 pop	 esi
  0020e	e8 00 00 00 00	 call	 @__security_check_cookie@4
  00213	c9		 leave
  00214	c2 04 00	 ret	 4
??$GetIntAttribute_e@$0BC@@ioXMLElement@@QBEHAAY0BC@$$CBD@Z ENDP ; ioXMLElement::GetIntAttribute_e<18>
_TEXT	ENDS
PUBLIC	??$_Cons_val@V?$allocator@UtagShopItemInfo@@@std@@UtagShopItemInfo@@AAU3@@std@@YAXAAV?$allocator@UtagShopItemInfo@@@0@PAUtagShopItemInfo@@AAU2@@Z ; std::_Cons_val<std::allocator<tagShopItemInfo>,tagShopItemInfo,tagShopItemInfo &>
; Function compile flags: /Ogsp
; File c:\program files (x86)\microsoft visual studio 10.0\vc\include\xmemory
;	COMDAT ??$_Cons_val@V?$allocator@UtagShopItemInfo@@@std@@UtagShopItemInfo@@AAU3@@std@@YAXAAV?$allocator@UtagShopItemInfo@@@0@PAUtagShopItemInfo@@AAU2@@Z
_TEXT	SEGMENT
__Alval$ = 8						; size = 4
__Pdest$ = 12						; size = 4
__Src$ = 16						; size = 4
??$_Cons_val@V?$allocator@UtagShopItemInfo@@@std@@UtagShopItemInfo@@AAU3@@std@@YAXAAV?$allocator@UtagShopItemInfo@@@0@PAUtagShopItemInfo@@AAU2@@Z PROC ; std::_Cons_val<std::allocator<tagShopItemInfo>,tagShopItemInfo,tagShopItemInfo &>, COMDAT

; 279  : 	{	// construct using allocator

  00000	55		 push	 ebp
  00001	8b ec		 mov	 ebp, esp
  00003	57		 push	 edi

; 280  : 	_Alval.construct(_Pdest, _STD forward<_Ty2>(_Src));

  00004	8b 7d 0c	 mov	 edi, DWORD PTR __Pdest$[ebp]
  00007	85 ff		 test	 edi, edi
  00009	74 0a		 je	 SHORT $LN7@Cons_val
  0000b	56		 push	 esi
  0000c	8b 75 10	 mov	 esi, DWORD PTR __Src$[ebp]
  0000f	6a 0b		 push	 11			; 0000000bH
  00011	59		 pop	 ecx
  00012	f3 a5		 rep movsd
  00014	5e		 pop	 esi
$LN7@Cons_val:
  00015	5f		 pop	 edi

; 281  : 	}

  00016	5d		 pop	 ebp
  00017	c3		 ret	 0
??$_Cons_val@V?$allocator@UtagShopItemInfo@@@std@@UtagShopItemInfo@@AAU3@@std@@YAXAAV?$allocator@UtagShopItemInfo@@@0@PAUtagShopItemInfo@@AAU2@@Z ENDP ; std::_Cons_val<std::allocator<tagShopItemInfo>,tagShopItemInfo,tagShopItemInfo &>
_TEXT	ENDS
PUBLIC	?construct@?$allocator@UtagShopItemInfo@@@std@@QAEXPAUtagShopItemInfo@@ABU3@@Z ; std::allocator<tagShopItemInfo>::construct
; Function compile flags: /Ogsp
;	COMDAT ?construct@?$allocator@UtagShopItemInfo@@@std@@QAEXPAUtagShopItemInfo@@ABU3@@Z
_TEXT	SEGMENT
__Ptr$ = 8						; size = 4
__Val$ = 12						; size = 4
?construct@?$allocator@UtagShopItemInfo@@@std@@QAEXPAUtagShopItemInfo@@ABU3@@Z PROC ; std::allocator<tagShopItemInfo>::construct, COMDAT
; _this$ = ecx

; 196  : 		{	// construct object at _Ptr with value _Val

  00000	55		 push	 ebp
  00001	8b ec		 mov	 ebp, esp
  00003	57		 push	 edi

; 197  : 		_Construct(_Ptr, _Val);

  00004	8b 7d 08	 mov	 edi, DWORD PTR __Ptr$[ebp]
  00007	85 ff		 test	 edi, edi
  00009	74 0a		 je	 SHORT $LN5@construct@2
  0000b	56		 push	 esi
  0000c	8b 75 0c	 mov	 esi, DWORD PTR __Val$[ebp]
  0000f	6a 0b		 push	 11			; 0000000bH
  00011	59		 pop	 ecx
  00012	f3 a5		 rep movsd
  00014	5e		 pop	 esi
$LN5@construct@2:
  00015	5f		 pop	 edi

; 198  : 		}

  00016	5d		 pop	 ebp
  00017	c2 08 00	 ret	 8
?construct@?$allocator@UtagShopItemInfo@@@std@@QAEXPAUtagShopItemInfo@@ABU3@@Z ENDP ; std::allocator<tagShopItemInfo>::construct
_TEXT	ENDS
PUBLIC	??G?$_Vector_iterator@V?$_Vector_val@UtagShopItemInfo@@V?$allocator@UtagShopItemInfo@@@std@@@std@@@std@@QBEHABV?$_Vector_const_iterator@V?$_Vector_val@UtagShopItemInfo@@V?$allocator@UtagShopItemInfo@@@std@@@std@@@1@@Z ; std::_Vector_iterator<std::_Vector_val<tagShopItemInfo,std::allocator<tagShopItemInfo> > >::operator-
; Function compile flags: /Ogsp
; File c:\program files (x86)\microsoft visual studio 10.0\vc\include\vector
;	COMDAT ??G?$_Vector_iterator@V?$_Vector_val@UtagShopItemInfo@@V?$allocator@UtagShopItemInfo@@@std@@@std@@@std@@QBEHABV?$_Vector_const_iterator@V?$_Vector_val@UtagShopItemInfo@@V?$allocator@UtagShopItemInfo@@@std@@@std@@@1@@Z
_TEXT	SEGMENT
__Right$ = 8						; size = 4
??G?$_Vector_iterator@V?$_Vector_val@UtagShopItemInfo@@V?$allocator@UtagShopItemInfo@@@std@@@std@@@std@@QBEHABV?$_Vector_const_iterator@V?$_Vector_val@UtagShopItemInfo@@V?$allocator@UtagShopItemInfo@@@std@@@std@@@1@@Z PROC ; std::_Vector_iterator<std::_Vector_val<tagShopItemInfo,std::allocator<tagShopItemInfo> > >::operator-, COMDAT
; _this$ = ecx

; 380  : 		{	// return difference of iterators

  00000	55		 push	 ebp
  00001	8b ec		 mov	 ebp, esp

; 381  : 		return (*(_Mybase *)this - _Right);

  00003	8b 01		 mov	 eax, DWORD PTR [ecx]
  00005	8b 4d 08	 mov	 ecx, DWORD PTR __Right$[ebp]
  00008	2b 01		 sub	 eax, DWORD PTR [ecx]
  0000a	6a 2c		 push	 44			; 0000002cH
  0000c	99		 cdq
  0000d	59		 pop	 ecx
  0000e	f7 f9		 idiv	 ecx

; 382  : 		}

  00010	5d		 pop	 ebp
  00011	c2 04 00	 ret	 4
??G?$_Vector_iterator@V?$_Vector_val@UtagShopItemInfo@@V?$allocator@UtagShopItemInfo@@@std@@@std@@@std@@QBEHABV?$_Vector_const_iterator@V?$_Vector_val@UtagShopItemInfo@@V?$allocator@UtagShopItemInfo@@@std@@@std@@@1@@Z ENDP ; std::_Vector_iterator<std::_Vector_val<tagShopItemInfo,std::allocator<tagShopItemInfo> > >::operator-
_TEXT	ENDS
PUBLIC	??$_Unchecked@V?$_Vector_val@UtagShopItemInfo@@V?$allocator@UtagShopItemInfo@@@std@@@std@@@std@@YAPAUtagShopItemInfo@@V?$_Vector_iterator@V?$_Vector_val@UtagShopItemInfo@@V?$allocator@UtagShopItemInfo@@@std@@@std@@@0@@Z ; std::_Unchecked<std::_Vector_val<tagShopItemInfo,std::allocator<tagShopItemInfo> > >
; Function compile flags: /Ogsp
;	COMDAT ??$_Unchecked@V?$_Vector_val@UtagShopItemInfo@@V?$allocator@UtagShopItemInfo@@@std@@@std@@@std@@YAPAUtagShopItemInfo@@V?$_Vector_iterator@V?$_Vector_val@UtagShopItemInfo@@V?$allocator@UtagShopItemInfo@@@std@@@std@@@0@@Z
_TEXT	SEGMENT
__Iter$ = 8						; size = 4
??$_Unchecked@V?$_Vector_val@UtagShopItemInfo@@V?$allocator@UtagShopItemInfo@@@std@@@std@@@std@@YAPAUtagShopItemInfo@@V?$_Vector_iterator@V?$_Vector_val@UtagShopItemInfo@@V?$allocator@UtagShopItemInfo@@@std@@@std@@@0@@Z PROC ; std::_Unchecked<std::_Vector_val<tagShopItemInfo,std::allocator<tagShopItemInfo> > >, COMDAT

; 393  : 	{	// convert to unchecked

  00000	55		 push	 ebp
  00001	8b ec		 mov	 ebp, esp

; 394  : 	return (_Iter._Unchecked());

  00003	8b 45 08	 mov	 eax, DWORD PTR __Iter$[ebp]

; 395  : 	}

  00006	5d		 pop	 ebp
  00007	c3		 ret	 0
??$_Unchecked@V?$_Vector_val@UtagShopItemInfo@@V?$allocator@UtagShopItemInfo@@@std@@@std@@@std@@YAPAUtagShopItemInfo@@V?$_Vector_iterator@V?$_Vector_val@UtagShopItemInfo@@V?$allocator@UtagShopItemInfo@@@std@@@std@@@0@@Z ENDP ; std::_Unchecked<std::_Vector_val<tagShopItemInfo,std::allocator<tagShopItemInfo> > >
_TEXT	ENDS
PUBLIC	??$_Move@PAUtagShopItemInfo@@PAU1@@std@@YAPAUtagShopItemInfo@@PAU1@00U_Nonscalar_ptr_iterator_tag@0@@Z ; std::_Move<tagShopItemInfo *,tagShopItemInfo *>
; Function compile flags: /Ogsp
; File c:\program files (x86)\microsoft visual studio 10.0\vc\include\xutility
;	COMDAT ??$_Move@PAUtagShopItemInfo@@PAU1@@std@@YAPAUtagShopItemInfo@@PAU1@00U_Nonscalar_ptr_iterator_tag@0@@Z
_TEXT	SEGMENT
__First$ = 8						; size = 4
__Last$ = 12						; size = 4
__Dest$ = 16						; size = 4
___formal$ = 20						; size = 1
??$_Move@PAUtagShopItemInfo@@PAU1@@std@@YAPAUtagShopItemInfo@@PAU1@00U_Nonscalar_ptr_iterator_tag@0@@Z PROC ; std::_Move<tagShopItemInfo *,tagShopItemInfo *>, COMDAT

; 2512 : 	{	// move [_First, _Last) to [_Dest, ...), arbitrary iterators

  00000	55		 push	 ebp
  00001	8b ec		 mov	 ebp, esp

; 2513 : 	for (; _First != _Last; ++_Dest, ++_First)

  00003	8b 45 08	 mov	 eax, DWORD PTR __First$[ebp]
  00006	3b 45 0c	 cmp	 eax, DWORD PTR __Last$[ebp]
  00009	74 1a		 je	 SHORT $LN10@Move
  0000b	56		 push	 esi
  0000c	57		 push	 edi
$LL3@Move:

; 2514 : 		*_Dest = _STD move(*_First);

  0000d	8b 7d 10	 mov	 edi, DWORD PTR __Dest$[ebp]
  00010	83 45 10 2c	 add	 DWORD PTR __Dest$[ebp], 44 ; 0000002cH
  00014	8b f0		 mov	 esi, eax
  00016	6a 0b		 push	 11			; 0000000bH
  00018	83 c0 2c	 add	 eax, 44			; 0000002cH
  0001b	59		 pop	 ecx
  0001c	f3 a5		 rep movsd
  0001e	3b 45 0c	 cmp	 eax, DWORD PTR __Last$[ebp]
  00021	75 ea		 jne	 SHORT $LL3@Move
  00023	5f		 pop	 edi
  00024	5e		 pop	 esi
$LN10@Move:

; 2515 : 	return (_Dest);

  00025	8b 45 10	 mov	 eax, DWORD PTR __Dest$[ebp]

; 2516 : 	}

  00028	5d		 pop	 ebp
  00029	c3		 ret	 0
??$_Move@PAUtagShopItemInfo@@PAU1@@std@@YAPAUtagShopItemInfo@@PAU1@00U_Nonscalar_ptr_iterator_tag@0@@Z ENDP ; std::_Move<tagShopItemInfo *,tagShopItemInfo *>
_TEXT	ENDS
PUBLIC	?destroy@?$allocator@UtagShopItemInfo@@@std@@QAEXPAUtagShopItemInfo@@@Z ; std::allocator<tagShopItemInfo>::destroy
; Function compile flags: /Ogsp
; File c:\program files (x86)\microsoft visual studio 10.0\vc\include\xmemory
;	COMDAT ?destroy@?$allocator@UtagShopItemInfo@@@std@@QAEXPAUtagShopItemInfo@@@Z
_TEXT	SEGMENT
__Ptr$ = 8						; size = 4
?destroy@?$allocator@UtagShopItemInfo@@@std@@QAEXPAUtagShopItemInfo@@@Z PROC ; std::allocator<tagShopItemInfo>::destroy, COMDAT
; _this$ = ecx

; 213  : 		_Destroy(_Ptr);
; 214  : 		}

  00000	c2 04 00	 ret	 4
?destroy@?$allocator@UtagShopItemInfo@@@std@@QAEXPAUtagShopItemInfo@@@Z ENDP ; std::allocator<tagShopItemInfo>::destroy
_TEXT	ENDS
PUBLIC	??$?0AAPAUtagShopItemInfo@@AAPAU0@@?$pair@PAUtagShopItemInfo@@PAU1@@std@@QAE@AAPAUtagShopItemInfo@@0@Z ; std::pair<tagShopItemInfo *,tagShopItemInfo *>::pair<tagShopItemInfo *,tagShopItemInfo *><tagShopItemInfo * &,tagShopItemInfo * &>
; Function compile flags: /Ogsp
; File c:\program files (x86)\microsoft visual studio 10.0\vc\include\utility
;	COMDAT ??$?0AAPAUtagShopItemInfo@@AAPAU0@@?$pair@PAUtagShopItemInfo@@PAU1@@std@@QAE@AAPAUtagShopItemInfo@@0@Z
_TEXT	SEGMENT
__Val1$ = 8						; size = 4
__Val2$ = 12						; size = 4
??$?0AAPAUtagShopItemInfo@@AAPAU0@@?$pair@PAUtagShopItemInfo@@PAU1@@std@@QAE@AAPAUtagShopItemInfo@@0@Z PROC ; std::pair<tagShopItemInfo *,tagShopItemInfo *>::pair<tagShopItemInfo *,tagShopItemInfo *><tagShopItemInfo * &,tagShopItemInfo * &>, COMDAT
; _this$ = ecx

; 247  : 		{	// construct from moved values

  00000	55		 push	 ebp
  00001	8b ec		 mov	 ebp, esp
  00003	8b c1		 mov	 eax, ecx
  00005	8b 4d 08	 mov	 ecx, DWORD PTR __Val1$[ebp]
  00008	8b 09		 mov	 ecx, DWORD PTR [ecx]
  0000a	89 08		 mov	 DWORD PTR [eax], ecx
  0000c	8b 4d 0c	 mov	 ecx, DWORD PTR __Val2$[ebp]
  0000f	8b 09		 mov	 ecx, DWORD PTR [ecx]
  00011	89 48 04	 mov	 DWORD PTR [eax+4], ecx

; 248  : 		}

  00014	5d		 pop	 ebp
  00015	c2 08 00	 ret	 8
??$?0AAPAUtagShopItemInfo@@AAPAU0@@?$pair@PAUtagShopItemInfo@@PAU1@@std@@QAE@AAPAUtagShopItemInfo@@0@Z ENDP ; std::pair<tagShopItemInfo *,tagShopItemInfo *>::pair<tagShopItemInfo *,tagShopItemInfo *><tagShopItemInfo * &,tagShopItemInfo * &>
_TEXT	ENDS
PUBLIC	?construct@?$allocator@UtagShopItemInfo@@@std@@QAEXPAUtagShopItemInfo@@$$QAU3@@Z ; std::allocator<tagShopItemInfo>::construct
; Function compile flags: /Ogsp
; File c:\program files (x86)\microsoft visual studio 10.0\vc\include\xmemory
;	COMDAT ?construct@?$allocator@UtagShopItemInfo@@@std@@QAEXPAUtagShopItemInfo@@$$QAU3@@Z
_TEXT	SEGMENT
__Ptr$ = 8						; size = 4
__Val$ = 12						; size = 4
?construct@?$allocator@UtagShopItemInfo@@@std@@QAEXPAUtagShopItemInfo@@$$QAU3@@Z PROC ; std::allocator<tagShopItemInfo>::construct, COMDAT
; _this$ = ecx

; 201  : 		{	// construct object at _Ptr with value _Val

  00000	55		 push	 ebp
  00001	8b ec		 mov	 ebp, esp
  00003	57		 push	 edi

; 202  : 		::new ((void _FARQ *)_Ptr) _Ty(_STD forward<_Ty>(_Val));

  00004	8b 7d 08	 mov	 edi, DWORD PTR __Ptr$[ebp]
  00007	85 ff		 test	 edi, edi
  00009	74 0a		 je	 SHORT $LN3@construct@3
  0000b	56		 push	 esi
  0000c	8b 75 0c	 mov	 esi, DWORD PTR __Val$[ebp]
  0000f	6a 0b		 push	 11			; 0000000bH
  00011	59		 pop	 ecx
  00012	f3 a5		 rep movsd
  00014	5e		 pop	 esi
$LN3@construct@3:
  00015	5f		 pop	 edi

; 203  : 		}

  00016	5d		 pop	 ebp
  00017	c2 08 00	 ret	 8
?construct@?$allocator@UtagShopItemInfo@@@std@@QAEXPAUtagShopItemInfo@@$$QAU3@@Z ENDP ; std::allocator<tagShopItemInfo>::construct
_TEXT	ENDS
PUBLIC	??$swap@UtagShopItemInfo@@@std@@YAXAAUtagShopItemInfo@@0@Z ; std::swap<tagShopItemInfo>
; Function compile flags: /Ogsp
; File c:\program files (x86)\microsoft visual studio 10.0\vc\include\utility
;	COMDAT ??$swap@UtagShopItemInfo@@@std@@YAXAAUtagShopItemInfo@@0@Z
_TEXT	SEGMENT
__Tmp$ = -44						; size = 44
__Left$ = 8						; size = 4
__Right$ = 12						; size = 4
??$swap@UtagShopItemInfo@@@std@@YAXAAUtagShopItemInfo@@0@Z PROC ; std::swap<tagShopItemInfo>, COMDAT

; 101  : 	{	// exchange values stored at _Left and _Right

  00000	55		 push	 ebp
  00001	8b ec		 mov	 ebp, esp
  00003	83 ec 2c	 sub	 esp, 44			; 0000002cH
  00006	56		 push	 esi

; 102  : 	_Ty _Tmp = _Move(_Left);

  00007	8b 75 08	 mov	 esi, DWORD PTR __Left$[ebp]
  0000a	57		 push	 edi
  0000b	6a 0b		 push	 11			; 0000000bH
  0000d	59		 pop	 ecx

; 103  : 	_Left = _Move(_Right);

  0000e	6a 0b		 push	 11			; 0000000bH
  00010	8d 7d d4	 lea	 edi, DWORD PTR __Tmp$[ebp]
  00013	f3 a5		 rep movsd
  00015	8b 75 0c	 mov	 esi, DWORD PTR __Right$[ebp]
  00018	8b 7d 08	 mov	 edi, DWORD PTR __Left$[ebp]
  0001b	59		 pop	 ecx
  0001c	f3 a5		 rep movsd

; 104  : 	_Right = _Move(_Tmp);

  0001e	8b 7d 0c	 mov	 edi, DWORD PTR __Right$[ebp]
  00021	6a 0b		 push	 11			; 0000000bH
  00023	59		 pop	 ecx
  00024	8d 75 d4	 lea	 esi, DWORD PTR __Tmp$[ebp]
  00027	f3 a5		 rep movsd
  00029	5f		 pop	 edi
  0002a	5e		 pop	 esi

; 105  : 	}

  0002b	c9		 leave
  0002c	c3		 ret	 0
??$swap@UtagShopItemInfo@@@std@@YAXAAUtagShopItemInfo@@0@Z ENDP ; std::swap<tagShopItemInfo>
_TEXT	ENDS
PUBLIC	??$_Adjust_heap@PAUtagShopItemInfo@@HU1@VShopItemInfoSort@@@std@@YAXPAUtagShopItemInfo@@HH$$QAU1@VShopItemInfoSort@@@Z ; std::_Adjust_heap<tagShopItemInfo *,int,tagShopItemInfo,ShopItemInfoSort>
; Function compile flags: /Ogsp
; File c:\program files (x86)\microsoft visual studio 10.0\vc\include\algorithm
;	COMDAT ??$_Adjust_heap@PAUtagShopItemInfo@@HU1@VShopItemInfoSort@@@std@@YAXPAUtagShopItemInfo@@HH$$QAU1@VShopItemInfoSort@@@Z
_TEXT	SEGMENT
__First$ = 8						; size = 4
__Top$ = 12						; size = 4
__Hole$ = 12						; size = 4
__Bottom$ = 16						; size = 4
__Val$ = 20						; size = 4
__Pred$ = 24						; size = 1
??$_Adjust_heap@PAUtagShopItemInfo@@HU1@VShopItemInfoSort@@@std@@YAXPAUtagShopItemInfo@@HH$$QAU1@VShopItemInfoSort@@@Z PROC ; std::_Adjust_heap<tagShopItemInfo *,int,tagShopItemInfo,ShopItemInfoSort>, COMDAT

; 2565 : 	{	// percolate _Hole to _Bottom, then push _Val, using _Pred

  00000	55		 push	 ebp
  00001	8b ec		 mov	 ebp, esp
  00003	53		 push	 ebx
  00004	56		 push	 esi
  00005	57		 push	 edi

; 2566 : 	_Diff _Top = _Hole;

  00006	8b 7d 0c	 mov	 edi, DWORD PTR __Hole$[ebp]
  00009	89 7d 0c	 mov	 DWORD PTR __Top$[ebp], edi

; 2567 : 	_Diff _Idx = 2 * _Hole + 2;

  0000c	8d 5c 3f 02	 lea	 ebx, DWORD PTR [edi+edi+2]
  00010	eb 33		 jmp	 SHORT $LN17@Adjust_hea
$LL5@Adjust_hea:

; 2570 : 		{	// move _Hole down to larger child
; 2571 : 		if (_DEBUG_LT_PRED(_Pred, *(_First + _Idx), *(_First + (_Idx - 1))))

  00012	8b c3		 mov	 eax, ebx
  00014	6b c0 2c	 imul	 eax, 44			; 0000002cH
  00017	03 45 08	 add	 eax, DWORD PTR __First$[ebp]
  0001a	8d 48 d4	 lea	 ecx, DWORD PTR [eax-44]
  0001d	51		 push	 ecx
  0001e	50		 push	 eax
  0001f	8d 4d 18	 lea	 ecx, DWORD PTR __Pred$[ebp]
  00022	e8 00 00 00 00	 call	 ??RShopItemInfoSort@@QBE_NABUtagShopItemInfo@@0@Z ; ShopItemInfoSort::operator()
  00027	84 c0		 test	 al, al
  00029	74 01		 je	 SHORT $LN2@Adjust_hea

; 2572 : 			--_Idx;

  0002b	4b		 dec	 ebx
$LN2@Adjust_hea:

; 2573 : 		*(_First + _Hole) = _Move(*(_First + _Idx));

  0002c	8b f3		 mov	 esi, ebx
  0002e	6b ff 2c	 imul	 edi, 44			; 0000002cH
  00031	6b f6 2c	 imul	 esi, 44			; 0000002cH
  00034	03 75 08	 add	 esi, DWORD PTR __First$[ebp]
  00037	03 7d 08	 add	 edi, DWORD PTR __First$[ebp]
  0003a	6a 0b		 push	 11			; 0000000bH
  0003c	59		 pop	 ecx
  0003d	f3 a5		 rep movsd

; 2574 : 		_Hole = _Idx;

  0003f	8b fb		 mov	 edi, ebx
  00041	8d 5c 1b 02	 lea	 ebx, DWORD PTR [ebx+ebx+2]
$LN17@Adjust_hea:

; 2568 : 
; 2569 : 	for (; _Idx < _Bottom; _Idx = 2 * _Idx + 2)

  00045	3b 5d 10	 cmp	 ebx, DWORD PTR __Bottom$[ebp]
  00048	7c c8		 jl	 SHORT $LL5@Adjust_hea

; 2575 : 		}
; 2576 : 
; 2577 : 	if (_Idx == _Bottom)

  0004a	75 1b		 jne	 SHORT $LN16@Adjust_hea

; 2578 : 		{	// only child at bottom, move _Hole down to it
; 2579 : 		*(_First + _Hole) = _Move(*(_First + (_Bottom - 1)));

  0004c	8b 4d 10	 mov	 ecx, DWORD PTR __Bottom$[ebp]
  0004f	6b ff 2c	 imul	 edi, 44			; 0000002cH
  00052	8b 45 08	 mov	 eax, DWORD PTR __First$[ebp]
  00055	6b c9 2c	 imul	 ecx, 44			; 0000002cH
  00058	8d 74 01 d4	 lea	 esi, DWORD PTR [ecx+eax-44]
  0005c	03 f8		 add	 edi, eax
  0005e	6a 0b		 push	 11			; 0000000bH
  00060	59		 pop	 ecx
  00061	f3 a5		 rep movsd

; 2580 : 		_Hole = _Bottom - 1;

  00063	8b 7d 10	 mov	 edi, DWORD PTR __Bottom$[ebp]
  00066	4f		 dec	 edi
$LN16@Adjust_hea:

; 2581 : 		}
; 2582 : 	_Push_heap(_First, _Hole, _Top, _Move(_Val), _Pred);

  00067	ff 75 18	 push	 DWORD PTR __Pred$[ebp]
  0006a	ff 75 14	 push	 DWORD PTR __Val$[ebp]
  0006d	ff 75 0c	 push	 DWORD PTR __Top$[ebp]
  00070	57		 push	 edi
  00071	ff 75 08	 push	 DWORD PTR __First$[ebp]
  00074	e8 00 00 00 00	 call	 ??$_Push_heap@PAUtagShopItemInfo@@HU1@VShopItemInfoSort@@@std@@YAXPAUtagShopItemInfo@@HH$$QAU1@VShopItemInfoSort@@@Z ; std::_Push_heap<tagShopItemInfo *,int,tagShopItemInfo,ShopItemInfoSort>
  00079	83 c4 14	 add	 esp, 20			; 00000014H
  0007c	5f		 pop	 edi
  0007d	5e		 pop	 esi
  0007e	5b		 pop	 ebx

; 2583 : 	}

  0007f	5d		 pop	 ebp
  00080	c3		 ret	 0
??$_Adjust_heap@PAUtagShopItemInfo@@HU1@VShopItemInfoSort@@@std@@YAXPAUtagShopItemInfo@@HH$$QAU1@VShopItemInfoSort@@@Z ENDP ; std::_Adjust_heap<tagShopItemInfo *,int,tagShopItemInfo,ShopItemInfoSort>
_TEXT	ENDS
PUBLIC	??$_Move_backward@PAUtagShopItemInfo@@PAU1@@std@@YAPAUtagShopItemInfo@@PAU1@00@Z ; std::_Move_backward<tagShopItemInfo *,tagShopItemInfo *>
; Function compile flags: /Ogsp
; File c:\program files (x86)\microsoft visual studio 10.0\vc\include\xutility
;	COMDAT ??$_Move_backward@PAUtagShopItemInfo@@PAU1@@std@@YAPAUtagShopItemInfo@@PAU1@00@Z
_TEXT	SEGMENT
__Cat$555439 = -4					; size = 1
__First$ = 8						; size = 4
__Last$ = 12						; size = 4
__Dest$ = 16						; size = 4
??$_Move_backward@PAUtagShopItemInfo@@PAU1@@std@@YAPAUtagShopItemInfo@@PAU1@00@Z PROC ; std::_Move_backward<tagShopItemInfo *,tagShopItemInfo *>, COMDAT

; 2638 : 	{	// move [_First, _Last) backwards to [..., _Dest), unchecked

  00000	55		 push	 ebp
  00001	8b ec		 mov	 ebp, esp
  00003	51		 push	 ecx

; 2639 : 	return (_Move_backward(_First, _Last,
; 2640 : 		_Dest, _Ptr_cat(_First, _Dest)));

  00004	ff 75 fc	 push	 DWORD PTR __Cat$555439[ebp]
  00007	ff 75 10	 push	 DWORD PTR __Dest$[ebp]
  0000a	ff 75 0c	 push	 DWORD PTR __Last$[ebp]
  0000d	ff 75 08	 push	 DWORD PTR __First$[ebp]
  00010	e8 00 00 00 00	 call	 ??$_Move_backward@PAUtagShopItemInfo@@PAU1@@std@@YAPAUtagShopItemInfo@@PAU1@00U_Nonscalar_ptr_iterator_tag@0@@Z ; std::_Move_backward<tagShopItemInfo *,tagShopItemInfo *>
  00015	83 c4 10	 add	 esp, 16			; 00000010H

; 2641 : 	}

  00018	c9		 leave
  00019	c3		 ret	 0
??$_Move_backward@PAUtagShopItemInfo@@PAU1@@std@@YAPAUtagShopItemInfo@@PAU1@00@Z ENDP ; std::_Move_backward<tagShopItemInfo *,tagShopItemInfo *>
_TEXT	ENDS
PUBLIC	??$_Pop_heap@PAUtagShopItemInfo@@HU1@VShopItemInfoSort@@@std@@YAXPAUtagShopItemInfo@@00$$QAU1@VShopItemInfoSort@@PAH@Z ; std::_Pop_heap<tagShopItemInfo *,int,tagShopItemInfo,ShopItemInfoSort>
; Function compile flags: /Ogsp
; File c:\program files (x86)\microsoft visual studio 10.0\vc\include\algorithm
;	COMDAT ??$_Pop_heap@PAUtagShopItemInfo@@HU1@VShopItemInfoSort@@@std@@YAXPAUtagShopItemInfo@@00$$QAU1@VShopItemInfoSort@@PAH@Z
_TEXT	SEGMENT
__First$ = 8						; size = 4
__Last$ = 12						; size = 4
__Dest$ = 16						; size = 4
__Val$ = 20						; size = 4
__Pred$ = 24						; size = 1
___formal$ = 28						; size = 4
??$_Pop_heap@PAUtagShopItemInfo@@HU1@VShopItemInfoSort@@@std@@YAXPAUtagShopItemInfo@@00$$QAU1@VShopItemInfoSort@@PAH@Z PROC ; std::_Pop_heap<tagShopItemInfo *,int,tagShopItemInfo,ShopItemInfoSort>, COMDAT

; 2591 : 	{	// pop *_First to *_Dest and reheap, using _Pred

  00000	55		 push	 ebp
  00001	8b ec		 mov	 ebp, esp

; 2592 : 	*_Dest = _Move(*_First);
; 2593 : 	_Adjust_heap(_First, _Diff(0), _Diff(_Last - _First),
; 2594 : 		_Move(_Val), _Pred);

  00003	8b 45 0c	 mov	 eax, DWORD PTR __Last$[ebp]
  00006	2b 45 08	 sub	 eax, DWORD PTR __First$[ebp]
  00009	56		 push	 esi
  0000a	8b 75 08	 mov	 esi, DWORD PTR __First$[ebp]
  0000d	57		 push	 edi
  0000e	8b 7d 10	 mov	 edi, DWORD PTR __Dest$[ebp]
  00011	6a 0b		 push	 11			; 0000000bH
  00013	59		 pop	 ecx
  00014	ff 75 18	 push	 DWORD PTR __Pred$[ebp]
  00017	f3 a5		 rep movsd
  00019	ff 75 14	 push	 DWORD PTR __Val$[ebp]
  0001c	99		 cdq
  0001d	6a 2c		 push	 44			; 0000002cH
  0001f	59		 pop	 ecx
  00020	f7 f9		 idiv	 ecx
  00022	50		 push	 eax
  00023	6a 00		 push	 0
  00025	ff 75 08	 push	 DWORD PTR __First$[ebp]
  00028	e8 00 00 00 00	 call	 ??$_Adjust_heap@PAUtagShopItemInfo@@HU1@VShopItemInfoSort@@@std@@YAXPAUtagShopItemInfo@@HH$$QAU1@VShopItemInfoSort@@@Z ; std::_Adjust_heap<tagShopItemInfo *,int,tagShopItemInfo,ShopItemInfoSort>
  0002d	83 c4 14	 add	 esp, 20			; 00000014H
  00030	5f		 pop	 edi
  00031	5e		 pop	 esi

; 2595 : 	}

  00032	5d		 pop	 ebp
  00033	c3		 ret	 0
??$_Pop_heap@PAUtagShopItemInfo@@HU1@VShopItemInfoSort@@@std@@YAXPAUtagShopItemInfo@@00$$QAU1@VShopItemInfoSort@@PAH@Z ENDP ; std::_Pop_heap<tagShopItemInfo *,int,tagShopItemInfo,ShopItemInfoSort>
_TEXT	ENDS
PUBLIC	?MaxClassPrice@ioClassPrice@@QAEHXZ		; ioClassPrice::MaxClassPrice
; Function compile flags: /Ogsp
; File d:\lost saga for developer\youtube\tutorial\source\src\lsclient\ioclassprice.h
;	COMDAT ?MaxClassPrice@ioClassPrice@@QAEHXZ
_TEXT	SEGMENT
?MaxClassPrice@ioClassPrice@@QAEHXZ PROC		; ioClassPrice::MaxClassPrice, COMDAT
; _this$ = ecx

; 114  : 	int MaxClassPrice(){ return m_vPriceData.size(); }

  00000	8b 41 08	 mov	 eax, DWORD PTR [ecx+8]
  00003	2b 41 04	 sub	 eax, DWORD PTR [ecx+4]
  00006	c1 f8 02	 sar	 eax, 2
  00009	c3		 ret	 0
?MaxClassPrice@ioClassPrice@@QAEHXZ ENDP		; ioClassPrice::MaxClassPrice
_TEXT	ENDS
PUBLIC	??B?$CEncrypt@K@@QBEKXZ				; CEncrypt<unsigned long>::operator unsigned long
; Function compile flags: /Ogsp
; File d:\lost saga for developer\youtube\tutorial\source\src\lsclient\encryptvalue.h
;	COMDAT ??B?$CEncrypt@K@@QBEKXZ
_TEXT	SEGMENT
_value$ = -4						; size = 4
??B?$CEncrypt@K@@QBEKXZ PROC				; CEncrypt<unsigned long>::operator unsigned long, COMDAT
; _this$ = ecx

; 145  : 	{

  00000	55		 push	 ebp
  00001	8b ec		 mov	 ebp, esp
  00003	51		 push	 ecx

; 146  : 		//UJ 130829, const    --start
; 147  : 		type value;
; 148  : 		CEncrypt<type>* pThis = const_cast<CEncrypt<type>*>(this);
; 149  : 		pThis->DecryptValueToPool(&value);

  00004	8d 45 fc	 lea	 eax, DWORD PTR _value$[ebp]
  00007	50		 push	 eax
  00008	e8 00 00 00 00	 call	 ?DecryptValueToPool@?$CEncrypt@K@@QAEXPAK@Z ; CEncrypt<unsigned long>::DecryptValueToPool

; 150  : 		//// const DecryptValueToPool     .
; 151  :  		//type value;
; 152  : 		//char szTempMem[MAX_ENCRYPT];
; 153  : 		//m_RC5.DecryptByte( m_MemPool, szTempMem, max(m_ValueSize, DEFAULT_ENCRYPT) );
; 154  : 		//memcpy( &value, szTempMem, m_ValueSize );
; 155  : 		//UJ --end
; 156  : 
; 157  : #ifdef _NOTUSE
; 158  : 		Debug();
; 159  : #endif
; 160  : 		return value;

  0000d	8b 45 fc	 mov	 eax, DWORD PTR _value$[ebp]

; 161  : 	}

  00010	c9		 leave
  00011	c3		 ret	 0
??B?$CEncrypt@K@@QBEKXZ ENDP				; CEncrypt<unsigned long>::operator unsigned long
_TEXT	ENDS
PUBLIC	?GetExperienceMode@ioBaseChar@@QBE?BKXZ		; ioBaseChar::GetExperienceMode
; Function compile flags: /Ogsp
; File d:\lost saga for developer\youtube\tutorial\source\src\lsclient\iobasechar.h
;	COMDAT ?GetExperienceMode@ioBaseChar@@QBE?BKXZ
_TEXT	SEGMENT
_value$555462 = -4					; size = 4
?GetExperienceMode@ioBaseChar@@QBE?BKXZ PROC		; ioBaseChar::GetExperienceMode, COMDAT
; _this$ = ecx

; 3193 : 	inline const DWORD GetExperienceMode() const { return m_ExperienceMode; }

  00000	55		 push	 ebp
  00001	8b ec		 mov	 ebp, esp
  00003	51		 push	 ecx
  00004	8d 45 fc	 lea	 eax, DWORD PTR _value$555462[ebp]
  00007	50		 push	 eax
  00008	81 c1 94 1d 00
	00		 add	 ecx, 7572		; 00001d94H
  0000e	e8 00 00 00 00	 call	 ?DecryptValueToPool@?$CEncrypt@K@@QAEXPAK@Z ; CEncrypt<unsigned long>::DecryptValueToPool
  00013	8b 45 fc	 mov	 eax, DWORD PTR _value$555462[ebp]
  00016	c9		 leave
  00017	c3		 ret	 0
?GetExperienceMode@ioBaseChar@@QBE?BKXZ ENDP		; ioBaseChar::GetExperienceMode
_TEXT	ENDS
EXTRN	__imp_?GetDerivedPosY@ioWnd@@QBEHXZ:PROC
EXTRN	__imp_?GetDerivedPosX@ioWnd@@QBEHXZ:PROC
EXTRN	__imp_?OnRender@ioButton@@MAEXXZ:PROC
; Function compile flags: /Ogsp
; File d:\lost saga for developer\youtube\tutorial\source\src\lsclient\gui\soldierexercisewnd.cpp
;	COMDAT ?OnRender@SoldierExerciseBtn@@MAEXXZ
_TEXT	SEGMENT
?OnRender@SoldierExerciseBtn@@MAEXXZ PROC		; SoldierExerciseBtn::OnRender, COMDAT
; _this$ = ecx

; 191  : {

  00000	53		 push	 ebx
  00001	56		 push	 esi
  00002	57		 push	 edi
  00003	8b f1		 mov	 esi, ecx

; 192  : 	ioButton::OnRender();

  00005	ff 15 00 00 00
	00		 call	 DWORD PTR __imp_?OnRender@ioButton@@MAEXXZ

; 193  : 
; 194  : 	int iXPos = GetDerivedPosX();

  0000b	8b ce		 mov	 ecx, esi
  0000d	ff 15 00 00 00
	00		 call	 DWORD PTR __imp_?GetDerivedPosX@ioWnd@@QBEHXZ

; 195  : 	int iYPos = GetDerivedPosY();

  00013	8b ce		 mov	 ecx, esi
  00015	8b f8		 mov	 edi, eax
  00017	ff 15 00 00 00
	00		 call	 DWORD PTR __imp_?GetDerivedPosY@ioWnd@@QBEHXZ
  0001d	8b d8		 mov	 ebx, eax

; 196  : 
; 197  : 	RenderSoldierIcon( iXPos, iYPos );

  0001f	53		 push	 ebx
  00020	57		 push	 edi
  00021	8b ce		 mov	 ecx, esi
  00023	e8 00 00 00 00	 call	 ?RenderSoldierIcon@SoldierExerciseBtn@@IAEXHH@Z ; SoldierExerciseBtn::RenderSoldierIcon

; 198  : 	RenderNewMark( iXPos, iYPos );

  00028	53		 push	 ebx
  00029	57		 push	 edi
  0002a	8b ce		 mov	 ecx, esi
  0002c	e8 00 00 00 00	 call	 ?RenderNewMark@SoldierExerciseBtn@@IAEXHH@Z ; SoldierExerciseBtn::RenderNewMark

; 199  : 	RenderType( iXPos, iYPos );

  00031	53		 push	 ebx
  00032	57		 push	 edi
  00033	8b ce		 mov	 ecx, esi
  00035	e8 00 00 00 00	 call	 ?RenderType@SoldierExerciseBtn@@IAEXHH@Z ; SoldierExerciseBtn::RenderType

; 200  : 	RenderArrow( iXPos, iYPos );

  0003a	53		 push	 ebx
  0003b	57		 push	 edi
  0003c	8b ce		 mov	 ecx, esi
  0003e	e8 00 00 00 00	 call	 ?RenderArrow@SoldierExerciseBtn@@IAEXHH@Z ; SoldierExerciseBtn::RenderArrow

; 201  : 	RenderNeedLv( iXPos, iYPos );

  00043	53		 push	 ebx
  00044	57		 push	 edi
  00045	8b ce		 mov	 ecx, esi
  00047	e8 00 00 00 00	 call	 ?RenderNeedLv@SoldierExerciseBtn@@IAEXHH@Z ; SoldierExerciseBtn::RenderNeedLv
  0004c	5f		 pop	 edi
  0004d	5e		 pop	 esi
  0004e	5b		 pop	 ebx

; 202  : }

  0004f	c3		 ret	 0
?OnRender@SoldierExerciseBtn@@MAEXXZ ENDP		; SoldierExerciseBtn::OnRender
_TEXT	ENDS
PUBLIC	__real@3f400000
PUBLIC	__real@3f2b851f
PUBLIC	_pImage$GSCopy$
PUBLIC	_szType$GSCopy$
PUBLIC	__$ArrayPad$
EXTRN	__imp_?AddRenderImage@ioButton@@UAEXABVioHashString@@PAVioUIRenderImage@@@Z:PROC
;	COMDAT __real@3f400000
; File d:\lost saga for developer\youtube\tutorial\source\src\lsclient\stringprotect.h
CONST	SEGMENT
__real@3f400000 DD 03f400000r			; 0.75
CONST	ENDS
;	COMDAT __real@3f2b851f
CONST	SEGMENT
__real@3f2b851f DD 03f2b851fr			; 0.67
; Function compile flags: /Ogsp
; File d:\lost saga for developer\youtube\tutorial\source\src\lsclient\gui\soldierexercisewnd.cpp
CONST	ENDS
;	COMDAT ?AddRenderImage@SoldierExerciseBtn@@MAEXABVioHashString@@PAVioUIRenderImage@@@Z
_TEXT	SEGMENT
_szType$GSCopy$ = -316					; size = 4
_pImage$GSCopy$ = -312					; size = 4
__t$557874 = -308					; size = 9
__t$557249 = -292					; size = 9
__t$555573 = -276					; size = 5
__t$555738 = -264					; size = 6
__t$555935 = -252					; size = 15
__t$557685 = -232					; size = 14
__t$557063 = -212					; size = 10
__t$556198 = -196					; size = 14
__t$556448 = -176					; size = 16
__t$557560 = -156					; size = 12
__t$556073 = -140					; size = 10
__t$557323 = -124					; size = 11
__t$556560 = -108					; size = 15
__t$556323 = -88					; size = 11
__t$557448 = -72					; size = 10
__t$556810 = -56					; size = 10
__t$556685 = -40					; size = 8
__t$556935 = -28					; size = 8
__t$555810 = -16					; size = 8
__$ArrayPad$ = -4					; size = 4
_szType$ = 8						; size = 4
_pImage$ = 12						; size = 4
?AddRenderImage@SoldierExerciseBtn@@MAEXABVioHashString@@PAVioUIRenderImage@@@Z PROC ; SoldierExerciseBtn::AddRenderImage, COMDAT
; _this$ = ecx

; 311  : {

  00000	55		 push	 ebp
  00001	8b ec		 mov	 ebp, esp
  00003	81 ec 3c 01 00
	00		 sub	 esp, 316		; 0000013cH
  00009	a1 00 00 00 00	 mov	 eax, DWORD PTR ___security_cookie
  0000e	33 c5		 xor	 eax, ebp
  00010	89 45 fc	 mov	 DWORD PTR __$ArrayPad$[ebp], eax
  00013	8b 45 0c	 mov	 eax, DWORD PTR _pImage$[ebp]
  00016	53		 push	 ebx
  00017	56		 push	 esi
  00018	57		 push	 edi
  00019	8b f9		 mov	 edi, ecx
  0001b	8b 4d 08	 mov	 ecx, DWORD PTR _szType$[ebp]

; 312  : 	if( szType == "Lock" )

  0001e	33 db		 xor	 ebx, ebx
  00020	c7 85 ec fe ff
	ff a1 83 88 81	 mov	 DWORD PTR __t$555573[ebp], -2121759839 ; 818883a1H
  0002a	81 b5 ec fe ff
	ff ed ec eb ea	 xor	 DWORD PTR __t$555573[ebp], -353637139 ; eaebecedH

; 428  : 		ioButton::AddRenderImage( szType, pImage );

  00034	89 8d c4 fe ff
	ff		 mov	 DWORD PTR _szType$GSCopy$[ebp], ecx
  0003a	89 85 c8 fe ff
	ff		 mov	 DWORD PTR _pImage$GSCopy$[ebp], eax
  00040	88 9d f0 fe ff
	ff		 mov	 BYTE PTR __t$555573[ebp+4], bl
  00046	8d b5 ec fe ff
	ff		 lea	 esi, DWORD PTR __t$555573[ebp]
  0004c	ff 15 00 00 00
	00		 call	 DWORD PTR __imp_?c_str@ioHashString@@QBEPBDXZ
$LL2216@AddRenderI:

; 312  : 	if( szType == "Lock" )

  00052	8a 08		 mov	 cl, BYTE PTR [eax]
  00054	3a 0e		 cmp	 cl, BYTE PTR [esi]
  00056	75 1a		 jne	 SHORT $LN2217@AddRenderI
  00058	3a cb		 cmp	 cl, bl
  0005a	74 12		 je	 SHORT $LN2218@AddRenderI
  0005c	8a 48 01	 mov	 cl, BYTE PTR [eax+1]
  0005f	3a 4e 01	 cmp	 cl, BYTE PTR [esi+1]
  00062	75 0e		 jne	 SHORT $LN2217@AddRenderI
  00064	83 c0 02	 add	 eax, 2
  00067	83 c6 02	 add	 esi, 2
  0006a	3a cb		 cmp	 cl, bl
  0006c	75 e4		 jne	 SHORT $LL2216@AddRenderI
$LN2218@AddRenderI:
  0006e	33 c0		 xor	 eax, eax
  00070	eb 05		 jmp	 SHORT $LN2219@AddRenderI
$LN2217@AddRenderI:
  00072	1b c0		 sbb	 eax, eax
  00074	83 d8 ff	 sbb	 eax, -1
$LN2219@AddRenderI:
  00077	3b c3		 cmp	 eax, ebx
  00079	75 30		 jne	 SHORT $LN2198@AddRenderI

; 313  : 	{
; 314  : 		SAFEDELETE( m_pLock );

  0007b	39 9f 0c 02 00
	00		 cmp	 DWORD PTR [edi+524], ebx
  00081	74 17		 je	 SHORT $LN66@AddRenderI
  00083	8b 8f 0c 02 00
	00		 mov	 ecx, DWORD PTR [edi+524]
  00089	3b cb		 cmp	 ecx, ebx
  0008b	74 07		 je	 SHORT $LN70@AddRenderI
  0008d	8b 01		 mov	 eax, DWORD PTR [ecx]
  0008f	6a 01		 push	 1
  00091	ff 50 40	 call	 DWORD PTR [eax+64]
$LN70@AddRenderI:
  00094	89 9f 0c 02 00
	00		 mov	 DWORD PTR [edi+524], ebx
$LN66@AddRenderI:

; 315  : 		m_pLock = pImage;

  0009a	8b 85 c8 fe ff
	ff		 mov	 eax, DWORD PTR _pImage$GSCopy$[ebp]
  000a0	89 87 0c 02 00
	00		 mov	 DWORD PTR [edi+524], eax
  000a6	e9 0b 0c 00 00	 jmp	 $LN1@AddRenderI
$LN2198@AddRenderI:

; 316  : 	}
; 317  : 	else if( szType == "Arrow" )

  000ab	8b 8d c4 fe ff
	ff		 mov	 ecx, DWORD PTR _szType$GSCopy$[ebp]
  000b1	c7 85 f8 fe ff
	ff ac 9e 99 85	 mov	 DWORD PTR __t$555738[ebp], -2053529940 ; 85999eacH
  000bb	81 b5 f8 fe ff
	ff ed ec eb ea	 xor	 DWORD PTR __t$555738[ebp], -353637139 ; eaebecedH
  000c5	66 c7 85 fc fe
	ff ff 77 00	 mov	 WORD PTR __t$555738[ebp+4], 119 ; 00000077H
  000ce	8d b5 f8 fe ff
	ff		 lea	 esi, DWORD PTR __t$555738[ebp]
  000d4	ff 15 00 00 00
	00		 call	 DWORD PTR __imp_?c_str@ioHashString@@QBEPBDXZ
$LL2220@AddRenderI:
  000da	8a 08		 mov	 cl, BYTE PTR [eax]
  000dc	3a 0e		 cmp	 cl, BYTE PTR [esi]
  000de	75 1a		 jne	 SHORT $LN2221@AddRenderI
  000e0	3a cb		 cmp	 cl, bl
  000e2	74 12		 je	 SHORT $LN2222@AddRenderI
  000e4	8a 48 01	 mov	 cl, BYTE PTR [eax+1]
  000e7	3a 4e 01	 cmp	 cl, BYTE PTR [esi+1]
  000ea	75 0e		 jne	 SHORT $LN2221@AddRenderI
  000ec	83 c0 02	 add	 eax, 2
  000ef	83 c6 02	 add	 esi, 2
  000f2	3a cb		 cmp	 cl, bl
  000f4	75 e4		 jne	 SHORT $LL2220@AddRenderI
$LN2222@AddRenderI:
  000f6	33 c0		 xor	 eax, eax
  000f8	eb 05		 jmp	 SHORT $LN2223@AddRenderI
$LN2221@AddRenderI:
  000fa	1b c0		 sbb	 eax, eax
  000fc	83 d8 ff	 sbb	 eax, -1
$LN2223@AddRenderI:
  000ff	3b c3		 cmp	 eax, ebx
  00101	75 40		 jne	 SHORT $LN2199@AddRenderI

; 318  : 	{
; 319  : 		SAFEDELETE( m_pArrow );

  00103	39 9f 18 02 00
	00		 cmp	 DWORD PTR [edi+536], ebx
  00109	74 17		 je	 SHORT $LN63@AddRenderI
  0010b	8b 8f 18 02 00
	00		 mov	 ecx, DWORD PTR [edi+536]
  00111	3b cb		 cmp	 ecx, ebx
  00113	74 07		 je	 SHORT $LN72@AddRenderI
  00115	8b 01		 mov	 eax, DWORD PTR [ecx]
  00117	6a 01		 push	 1
  00119	ff 50 40	 call	 DWORD PTR [eax+64]
$LN72@AddRenderI:
  0011c	89 9f 18 02 00
	00		 mov	 DWORD PTR [edi+536], ebx
$LN63@AddRenderI:

; 320  : 		m_pArrow = pImage;

  00122	8b 85 c8 fe ff
	ff		 mov	 eax, DWORD PTR _pImage$GSCopy$[ebp]
  00128	89 87 18 02 00
	00		 mov	 DWORD PTR [edi+536], eax

; 321  : 		if( m_pArrow )

  0012e	3b c3		 cmp	 eax, ebx
  00130	0f 84 80 0b 00
	00		 je	 $LN1@AddRenderI

; 322  : 			m_pArrow->SetScale( ARROW_SCALE );

  00136	f3 0f 10 05 00
	00 00 00	 movss	 xmm0, DWORD PTR __real@3f2b851f

; 323  : 	}

  0013e	e9 50 0b 00 00	 jmp	 $LN2312@AddRenderI
$LN2199@AddRenderI:

; 324  : 	else if( szType == "LockNum" )

  00143	6a 04		 push	 4
  00145	c7 45 f0 a1 83
	88 81		 mov	 DWORD PTR __t$555810[ebp], -2121759839 ; 818883a1H
  0014c	81 75 f0 ed ec
	eb ea		 xor	 DWORD PTR __t$555810[ebp], -353637139 ; eaebecedH
  00153	c7 45 f4 a3 99
	86 00		 mov	 DWORD PTR __t$555810[ebp+4], 8821155 ; 008699a3H
  0015a	58		 pop	 eax
$LL420@AddRenderI:
  0015b	8b c8		 mov	 ecx, eax
  0015d	81 e1 03 00 00
	80		 and	 ecx, -2147483645	; 80000003H
  00163	79 05		 jns	 SHORT $LN2301@AddRenderI
  00165	49		 dec	 ecx
  00166	83 c9 fc	 or	 ecx, -4			; fffffffcH
  00169	41		 inc	 ecx
$LN2301@AddRenderI:
  0016a	b2 ed		 mov	 dl, -19			; ffffffedH
  0016c	2a d1		 sub	 dl, cl
  0016e	30 54 05 f0	 xor	 BYTE PTR __t$555810[ebp+eax], dl
  00172	40		 inc	 eax
  00173	83 f8 07	 cmp	 eax, 7
  00176	7c e3		 jl	 SHORT $LL420@AddRenderI
  00178	8b 8d c4 fe ff
	ff		 mov	 ecx, DWORD PTR _szType$GSCopy$[ebp]
  0017e	8d 75 f0	 lea	 esi, DWORD PTR __t$555810[ebp]
  00181	ff 15 00 00 00
	00		 call	 DWORD PTR __imp_?c_str@ioHashString@@QBEPBDXZ
$LL2224@AddRenderI:
  00187	8a 08		 mov	 cl, BYTE PTR [eax]
  00189	3a 0e		 cmp	 cl, BYTE PTR [esi]
  0018b	75 1a		 jne	 SHORT $LN2225@AddRenderI
  0018d	3a cb		 cmp	 cl, bl
  0018f	74 12		 je	 SHORT $LN2226@AddRenderI
  00191	8a 48 01	 mov	 cl, BYTE PTR [eax+1]
  00194	3a 4e 01	 cmp	 cl, BYTE PTR [esi+1]
  00197	75 0e		 jne	 SHORT $LN2225@AddRenderI
  00199	83 c0 02	 add	 eax, 2
  0019c	83 c6 02	 add	 esi, 2
  0019f	3a cb		 cmp	 cl, bl
  001a1	75 e4		 jne	 SHORT $LL2224@AddRenderI
$LN2226@AddRenderI:
  001a3	33 c0		 xor	 eax, eax
  001a5	eb 05		 jmp	 SHORT $LN2227@AddRenderI
$LN2225@AddRenderI:
  001a7	1b c0		 sbb	 eax, eax
  001a9	83 d8 ff	 sbb	 eax, -1
$LN2227@AddRenderI:
  001ac	3b c3		 cmp	 eax, ebx
  001ae	75 30		 jne	 SHORT $LN2200@AddRenderI

; 325  : 	{
; 326  : 		SAFEDELETE( m_pLockNum );

  001b0	39 9f 58 02 00
	00		 cmp	 DWORD PTR [edi+600], ebx
  001b6	74 17		 je	 SHORT $LN59@AddRenderI
  001b8	8b 8f 58 02 00
	00		 mov	 ecx, DWORD PTR [edi+600]
  001be	3b cb		 cmp	 ecx, ebx
  001c0	74 07		 je	 SHORT $LN74@AddRenderI
  001c2	8b 01		 mov	 eax, DWORD PTR [ecx]
  001c4	6a 01		 push	 1
  001c6	ff 50 40	 call	 DWORD PTR [eax+64]
$LN74@AddRenderI:
  001c9	89 9f 58 02 00
	00		 mov	 DWORD PTR [edi+600], ebx
$LN59@AddRenderI:

; 327  : 		m_pLockNum = pImage;

  001cf	8b 85 c8 fe ff
	ff		 mov	 eax, DWORD PTR _pImage$GSCopy$[ebp]
  001d5	89 87 58 02 00
	00		 mov	 DWORD PTR [edi+600], eax
  001db	e9 d6 0a 00 00	 jmp	 $LN1@AddRenderI
$LN2200@AddRenderI:

; 328  : 	}
; 329  : 	else if( szType == "LockBattleMark" )

  001e0	6a 03		 push	 3
  001e2	c7 85 04 ff ff
	ff a1 83 88 81	 mov	 DWORD PTR __t$555935[ebp], -2121759839 ; 818883a1H
  001ec	c7 85 08 ff ff
	ff af 8d 9f 9e	 mov	 DWORD PTR __t$555935[ebp+4], -1633710673 ; 9e9f8dafH
  001f6	c7 85 0c ff ff
	ff 81 89 a6 8b	 mov	 DWORD PTR __t$555935[ebp+8], -1952020095 ; 8ba68981H
  00200	66 c7 85 10 ff
	ff ff 9f 87	 mov	 WORD PTR __t$555935[ebp+12], 34719 ; 0000879fH
  00209	8d 85 04 ff ff
	ff		 lea	 eax, DWORD PTR __t$555935[ebp]
  0020f	88 9d 12 ff ff
	ff		 mov	 BYTE PTR __t$555935[ebp+14], bl
  00215	59		 pop	 ecx
$LL529@AddRenderI:
  00216	81 30 ed ec eb
	ea		 xor	 DWORD PTR [eax], -353637139 ; eaebecedH
  0021c	83 c0 04	 add	 eax, 4
  0021f	49		 dec	 ecx
  00220	75 f4		 jne	 SHORT $LL529@AddRenderI
  00222	6a 0c		 push	 12			; 0000000cH
  00224	58		 pop	 eax
$LL526@AddRenderI:
  00225	8b c8		 mov	 ecx, eax
  00227	81 e1 03 00 00
	80		 and	 ecx, -2147483645	; 80000003H
  0022d	79 05		 jns	 SHORT $LN2302@AddRenderI
  0022f	49		 dec	 ecx
  00230	83 c9 fc	 or	 ecx, -4			; fffffffcH
  00233	41		 inc	 ecx
$LN2302@AddRenderI:
  00234	b2 ed		 mov	 dl, -19			; ffffffedH
  00236	2a d1		 sub	 dl, cl
  00238	30 94 05 04 ff
	ff ff		 xor	 BYTE PTR __t$555935[ebp+eax], dl
  0023f	40		 inc	 eax
  00240	83 f8 0e	 cmp	 eax, 14			; 0000000eH
  00243	7c e0		 jl	 SHORT $LL526@AddRenderI
  00245	8b 8d c4 fe ff
	ff		 mov	 ecx, DWORD PTR _szType$GSCopy$[ebp]
  0024b	8d b5 04 ff ff
	ff		 lea	 esi, DWORD PTR __t$555935[ebp]
  00251	ff 15 00 00 00
	00		 call	 DWORD PTR __imp_?c_str@ioHashString@@QBEPBDXZ
$LL2228@AddRenderI:
  00257	8a 08		 mov	 cl, BYTE PTR [eax]
  00259	3a 0e		 cmp	 cl, BYTE PTR [esi]
  0025b	75 1a		 jne	 SHORT $LN2229@AddRenderI
  0025d	3a cb		 cmp	 cl, bl
  0025f	74 12		 je	 SHORT $LN2292@AddRenderI
  00261	8a 48 01	 mov	 cl, BYTE PTR [eax+1]
  00264	3a 4e 01	 cmp	 cl, BYTE PTR [esi+1]
  00267	75 0e		 jne	 SHORT $LN2229@AddRenderI
  00269	83 c0 02	 add	 eax, 2
  0026c	83 c6 02	 add	 esi, 2
  0026f	3a cb		 cmp	 cl, bl
  00271	75 e4		 jne	 SHORT $LL2228@AddRenderI
$LN2292@AddRenderI:
  00273	33 c0		 xor	 eax, eax
  00275	eb 05		 jmp	 SHORT $LN2231@AddRenderI
$LN2229@AddRenderI:
  00277	1b c0		 sbb	 eax, eax
  00279	83 d8 ff	 sbb	 eax, -1
$LN2231@AddRenderI:
  0027c	3b c3		 cmp	 eax, ebx
  0027e	75 30		 jne	 SHORT $LN2201@AddRenderI

; 330  : 	{
; 331  : 		SAFEDELETE( m_pLockBattleMark );

  00280	39 9f 5c 02 00
	00		 cmp	 DWORD PTR [edi+604], ebx
  00286	74 17		 je	 SHORT $LN56@AddRenderI
  00288	8b 8f 5c 02 00
	00		 mov	 ecx, DWORD PTR [edi+604]
  0028e	3b cb		 cmp	 ecx, ebx
  00290	74 07		 je	 SHORT $LN76@AddRenderI
  00292	8b 01		 mov	 eax, DWORD PTR [ecx]
  00294	6a 01		 push	 1
  00296	ff 50 40	 call	 DWORD PTR [eax+64]
$LN76@AddRenderI:
  00299	89 9f 5c 02 00
	00		 mov	 DWORD PTR [edi+604], ebx
$LN56@AddRenderI:

; 332  : 		m_pLockBattleMark = pImage;

  0029f	8b 85 c8 fe ff
	ff		 mov	 eax, DWORD PTR _pImage$GSCopy$[ebp]
  002a5	89 87 5c 02 00
	00		 mov	 DWORD PTR [edi+604], eax
  002ab	e9 06 0a 00 00	 jmp	 $LN1@AddRenderI
$LN2201@AddRenderI:

; 333  : 	}
; 334  : 	else if( szType == "MedalMark" )

  002b0	6a 02		 push	 2
  002b2	c7 85 74 ff ff
	ff a0 89 8f 8b	 mov	 DWORD PTR __t$556073[ebp], -1953527392 ; 8b8f89a0H
  002bc	c7 85 78 ff ff
	ff 81 a1 8a 98	 mov	 DWORD PTR __t$556073[ebp+4], -1735745151 ; 988aa181H
  002c6	8d 85 74 ff ff
	ff		 lea	 eax, DWORD PTR __t$556073[ebp]
  002cc	66 c7 85 7c ff
	ff ff 86 00	 mov	 WORD PTR __t$556073[ebp+8], 134 ; 00000086H
  002d5	59		 pop	 ecx
$LL635@AddRenderI:
  002d6	81 30 ed ec eb
	ea		 xor	 DWORD PTR [eax], -353637139 ; eaebecedH
  002dc	83 c0 04	 add	 eax, 4
  002df	49		 dec	 ecx
  002e0	75 f4		 jne	 SHORT $LL635@AddRenderI
  002e2	8b 8d c4 fe ff
	ff		 mov	 ecx, DWORD PTR _szType$GSCopy$[ebp]
  002e8	80 b5 7c ff ff
	ff ed		 xor	 BYTE PTR __t$556073[ebp+8], -19 ; ffffffedH
  002ef	8d b5 74 ff ff
	ff		 lea	 esi, DWORD PTR __t$556073[ebp]
  002f5	ff 15 00 00 00
	00		 call	 DWORD PTR __imp_?c_str@ioHashString@@QBEPBDXZ
$LL2232@AddRenderI:
  002fb	8a 08		 mov	 cl, BYTE PTR [eax]
  002fd	3a 0e		 cmp	 cl, BYTE PTR [esi]
  002ff	75 1a		 jne	 SHORT $LN2233@AddRenderI
  00301	3a cb		 cmp	 cl, bl
  00303	74 12		 je	 SHORT $LN2234@AddRenderI
  00305	8a 48 01	 mov	 cl, BYTE PTR [eax+1]
  00308	3a 4e 01	 cmp	 cl, BYTE PTR [esi+1]
  0030b	75 0e		 jne	 SHORT $LN2233@AddRenderI
  0030d	83 c0 02	 add	 eax, 2
  00310	83 c6 02	 add	 esi, 2
  00313	3a cb		 cmp	 cl, bl
  00315	75 e4		 jne	 SHORT $LL2232@AddRenderI
$LN2234@AddRenderI:
  00317	33 c0		 xor	 eax, eax
  00319	eb 05		 jmp	 SHORT $LN2235@AddRenderI
$LN2233@AddRenderI:
  0031b	1b c0		 sbb	 eax, eax
  0031d	83 d8 ff	 sbb	 eax, -1
$LN2235@AddRenderI:
  00320	3b c3		 cmp	 eax, ebx
  00322	75 30		 jne	 SHORT $LN2202@AddRenderI

; 335  : 	{
; 336  : 		SAFEDELETE( m_pLockMedalMark );

  00324	39 9f 60 02 00
	00		 cmp	 DWORD PTR [edi+608], ebx
  0032a	74 17		 je	 SHORT $LN53@AddRenderI
  0032c	8b 8f 60 02 00
	00		 mov	 ecx, DWORD PTR [edi+608]
  00332	3b cb		 cmp	 ecx, ebx
  00334	74 07		 je	 SHORT $LN78@AddRenderI
  00336	8b 01		 mov	 eax, DWORD PTR [ecx]
  00338	6a 01		 push	 1
  0033a	ff 50 40	 call	 DWORD PTR [eax+64]
$LN78@AddRenderI:
  0033d	89 9f 60 02 00
	00		 mov	 DWORD PTR [edi+608], ebx
$LN53@AddRenderI:

; 337  : 		m_pLockMedalMark = pImage;

  00343	8b 85 c8 fe ff
	ff		 mov	 eax, DWORD PTR _pImage$GSCopy$[ebp]
  00349	89 87 60 02 00
	00		 mov	 DWORD PTR [edi+608], eax
  0034f	e9 62 09 00 00	 jmp	 $LN1@AddRenderI
$LN2202@AddRenderI:

; 338  : 	}
; 339  : 	else if( szType == "LockAwardMark" )

  00354	6a 03		 push	 3
  00356	c7 85 3c ff ff
	ff a1 83 88 81	 mov	 DWORD PTR __t$556198[ebp], -2121759839 ; 818883a1H
  00360	c7 85 40 ff ff
	ff ac 9b 8a 98	 mov	 DWORD PTR __t$556198[ebp+4], -1735746644 ; 988a9bacH
  0036a	c7 85 44 ff ff
	ff 89 a1 8a 98	 mov	 DWORD PTR __t$556198[ebp+8], -1735745143 ; 988aa189H
  00374	8d 85 3c ff ff
	ff		 lea	 eax, DWORD PTR __t$556198[ebp]
  0037a	66 c7 85 48 ff
	ff ff 86 00	 mov	 WORD PTR __t$556198[ebp+12], 134 ; 00000086H
  00383	59		 pop	 ecx
$LL741@AddRenderI:
  00384	81 30 ed ec eb
	ea		 xor	 DWORD PTR [eax], -353637139 ; eaebecedH
  0038a	83 c0 04	 add	 eax, 4
  0038d	49		 dec	 ecx
  0038e	75 f4		 jne	 SHORT $LL741@AddRenderI
  00390	8b 8d c4 fe ff
	ff		 mov	 ecx, DWORD PTR _szType$GSCopy$[ebp]
  00396	80 b5 48 ff ff
	ff ed		 xor	 BYTE PTR __t$556198[ebp+12], -19 ; ffffffedH
  0039d	8d b5 3c ff ff
	ff		 lea	 esi, DWORD PTR __t$556198[ebp]
  003a3	ff 15 00 00 00
	00		 call	 DWORD PTR __imp_?c_str@ioHashString@@QBEPBDXZ
$LL2236@AddRenderI:
  003a9	8a 08		 mov	 cl, BYTE PTR [eax]
  003ab	3a 0e		 cmp	 cl, BYTE PTR [esi]
  003ad	75 1a		 jne	 SHORT $LN2237@AddRenderI
  003af	3a cb		 cmp	 cl, bl
  003b1	74 12		 je	 SHORT $LN2293@AddRenderI
  003b3	8a 48 01	 mov	 cl, BYTE PTR [eax+1]
  003b6	3a 4e 01	 cmp	 cl, BYTE PTR [esi+1]
  003b9	75 0e		 jne	 SHORT $LN2237@AddRenderI
  003bb	83 c0 02	 add	 eax, 2
  003be	83 c6 02	 add	 esi, 2
  003c1	3a cb		 cmp	 cl, bl
  003c3	75 e4		 jne	 SHORT $LL2236@AddRenderI
$LN2293@AddRenderI:
  003c5	33 c0		 xor	 eax, eax
  003c7	eb 05		 jmp	 SHORT $LN2239@AddRenderI
$LN2237@AddRenderI:
  003c9	1b c0		 sbb	 eax, eax
  003cb	83 d8 ff	 sbb	 eax, -1
$LN2239@AddRenderI:
  003ce	3b c3		 cmp	 eax, ebx
  003d0	75 30		 jne	 SHORT $LN2203@AddRenderI

; 340  : 	{
; 341  : 		SAFEDELETE( m_pLockAwardMark );

  003d2	39 9f 64 02 00
	00		 cmp	 DWORD PTR [edi+612], ebx
  003d8	74 17		 je	 SHORT $LN50@AddRenderI
  003da	8b 8f 64 02 00
	00		 mov	 ecx, DWORD PTR [edi+612]
  003e0	3b cb		 cmp	 ecx, ebx
  003e2	74 07		 je	 SHORT $LN80@AddRenderI
  003e4	8b 01		 mov	 eax, DWORD PTR [ecx]
  003e6	6a 01		 push	 1
  003e8	ff 50 40	 call	 DWORD PTR [eax+64]
$LN80@AddRenderI:
  003eb	89 9f 64 02 00
	00		 mov	 DWORD PTR [edi+612], ebx
$LN50@AddRenderI:

; 342  : 		m_pLockAwardMark = pImage;

  003f1	8b 85 c8 fe ff
	ff		 mov	 eax, DWORD PTR _pImage$GSCopy$[ebp]
  003f7	89 87 64 02 00
	00		 mov	 DWORD PTR [edi+612], eax
  003fd	e9 b4 08 00 00	 jmp	 $LN1@AddRenderI
$LN2203@AddRenderI:

; 343  : 	}
; 344  : 	else if( szType == "BoughtType" )

  00402	6a 02		 push	 2
  00404	c7 45 a8 af 83
	9e 8d		 mov	 DWORD PTR __t$556323[ebp], -1918991441 ; 8d9e83afH
  0040b	c7 45 ac 85 98
	bf 93		 mov	 DWORD PTR __t$556323[ebp+4], -1816160123 ; 93bf9885H
  00412	66 c7 45 b0 9d
	89		 mov	 WORD PTR __t$556323[ebp+8], 35229 ; 0000899dH
  00418	8d 45 a8	 lea	 eax, DWORD PTR __t$556323[ebp]
  0041b	88 5d b2	 mov	 BYTE PTR __t$556323[ebp+10], bl
  0041e	59		 pop	 ecx
$LL847@AddRenderI:
  0041f	81 30 ed ec eb
	ea		 xor	 DWORD PTR [eax], -353637139 ; eaebecedH
  00425	83 c0 04	 add	 eax, 4
  00428	49		 dec	 ecx
  00429	75 f4		 jne	 SHORT $LL847@AddRenderI
  0042b	6a 08		 push	 8
  0042d	58		 pop	 eax
$LL844@AddRenderI:
  0042e	8b c8		 mov	 ecx, eax
  00430	81 e1 03 00 00
	80		 and	 ecx, -2147483645	; 80000003H
  00436	79 05		 jns	 SHORT $LN2303@AddRenderI
  00438	49		 dec	 ecx
  00439	83 c9 fc	 or	 ecx, -4			; fffffffcH
  0043c	41		 inc	 ecx
$LN2303@AddRenderI:
  0043d	b2 ed		 mov	 dl, -19			; ffffffedH
  0043f	2a d1		 sub	 dl, cl
  00441	30 54 05 a8	 xor	 BYTE PTR __t$556323[ebp+eax], dl
  00445	40		 inc	 eax
  00446	83 f8 0a	 cmp	 eax, 10			; 0000000aH
  00449	7c e3		 jl	 SHORT $LL844@AddRenderI
  0044b	8b 8d c4 fe ff
	ff		 mov	 ecx, DWORD PTR _szType$GSCopy$[ebp]
  00451	8d 75 a8	 lea	 esi, DWORD PTR __t$556323[ebp]
  00454	ff 15 00 00 00
	00		 call	 DWORD PTR __imp_?c_str@ioHashString@@QBEPBDXZ
$LL2240@AddRenderI:
  0045a	8a 08		 mov	 cl, BYTE PTR [eax]
  0045c	3a 0e		 cmp	 cl, BYTE PTR [esi]
  0045e	75 1a		 jne	 SHORT $LN2241@AddRenderI
  00460	3a cb		 cmp	 cl, bl
  00462	74 12		 je	 SHORT $LN2242@AddRenderI
  00464	8a 48 01	 mov	 cl, BYTE PTR [eax+1]
  00467	3a 4e 01	 cmp	 cl, BYTE PTR [esi+1]
  0046a	75 0e		 jne	 SHORT $LN2241@AddRenderI
  0046c	83 c0 02	 add	 eax, 2
  0046f	83 c6 02	 add	 esi, 2
  00472	3a cb		 cmp	 cl, bl
  00474	75 e4		 jne	 SHORT $LL2240@AddRenderI
$LN2242@AddRenderI:
  00476	33 c0		 xor	 eax, eax
  00478	eb 05		 jmp	 SHORT $LN2243@AddRenderI
$LN2241@AddRenderI:
  0047a	1b c0		 sbb	 eax, eax
  0047c	83 d8 ff	 sbb	 eax, -1
$LN2243@AddRenderI:
  0047f	3b c3		 cmp	 eax, ebx
  00481	75 30		 jne	 SHORT $LN2204@AddRenderI

; 345  : 	{
; 346  : 		SAFEDELETE( m_pBoughtType );

  00483	39 9f 68 02 00
	00		 cmp	 DWORD PTR [edi+616], ebx
  00489	74 17		 je	 SHORT $LN47@AddRenderI
  0048b	8b 8f 68 02 00
	00		 mov	 ecx, DWORD PTR [edi+616]
  00491	3b cb		 cmp	 ecx, ebx
  00493	74 07		 je	 SHORT $LN82@AddRenderI
  00495	8b 01		 mov	 eax, DWORD PTR [ecx]
  00497	6a 01		 push	 1
  00499	ff 50 40	 call	 DWORD PTR [eax+64]
$LN82@AddRenderI:
  0049c	89 9f 68 02 00
	00		 mov	 DWORD PTR [edi+616], ebx
$LN47@AddRenderI:

; 347  : 		m_pBoughtType = pImage;

  004a2	8b 85 c8 fe ff
	ff		 mov	 eax, DWORD PTR _pImage$GSCopy$[ebp]
  004a8	89 87 68 02 00
	00		 mov	 DWORD PTR [edi+616], eax
  004ae	e9 03 08 00 00	 jmp	 $LN1@AddRenderI
$LN2204@AddRenderI:

; 348  : 	}
; 349  : 	else if( szType == "ExerciseGeneral" )

  004b3	6a 03		 push	 3
  004b5	c7 85 50 ff ff
	ff a8 94 8e 98	 mov	 DWORD PTR __t$556448[ebp], -1735486296 ; 988e94a8H
  004bf	c7 85 54 ff ff
	ff 8e 85 98 8f	 mov	 DWORD PTR __t$556448[ebp+4], -1885829746 ; 8f98858eH
  004c9	c7 85 58 ff ff
	ff aa 89 85 8f	 mov	 DWORD PTR __t$556448[ebp+8], -1887073878 ; 8f8589aaH
  004d3	8d 85 50 ff ff
	ff		 lea	 eax, DWORD PTR __t$556448[ebp]
  004d9	c7 85 5c ff ff
	ff 9f 8d 87 00	 mov	 DWORD PTR __t$556448[ebp+12], 8883615 ; 00878d9fH
  004e3	59		 pop	 ecx
$LL953@AddRenderI:
  004e4	81 30 ed ec eb
	ea		 xor	 DWORD PTR [eax], -353637139 ; eaebecedH
  004ea	83 c0 04	 add	 eax, 4
  004ed	49		 dec	 ecx
  004ee	75 f4		 jne	 SHORT $LL953@AddRenderI
  004f0	6a 0c		 push	 12			; 0000000cH
  004f2	58		 pop	 eax
$LL950@AddRenderI:
  004f3	8b c8		 mov	 ecx, eax
  004f5	81 e1 03 00 00
	80		 and	 ecx, -2147483645	; 80000003H
  004fb	79 05		 jns	 SHORT $LN2304@AddRenderI
  004fd	49		 dec	 ecx
  004fe	83 c9 fc	 or	 ecx, -4			; fffffffcH
  00501	41		 inc	 ecx
$LN2304@AddRenderI:
  00502	b2 ed		 mov	 dl, -19			; ffffffedH
  00504	2a d1		 sub	 dl, cl
  00506	30 94 05 50 ff
	ff ff		 xor	 BYTE PTR __t$556448[ebp+eax], dl
  0050d	40		 inc	 eax
  0050e	83 f8 0f	 cmp	 eax, 15			; 0000000fH
  00511	7c e0		 jl	 SHORT $LL950@AddRenderI
  00513	8b 8d c4 fe ff
	ff		 mov	 ecx, DWORD PTR _szType$GSCopy$[ebp]
  00519	8d b5 50 ff ff
	ff		 lea	 esi, DWORD PTR __t$556448[ebp]
  0051f	ff 15 00 00 00
	00		 call	 DWORD PTR __imp_?c_str@ioHashString@@QBEPBDXZ
$LL2244@AddRenderI:
  00525	8a 08		 mov	 cl, BYTE PTR [eax]
  00527	3a 0e		 cmp	 cl, BYTE PTR [esi]
  00529	75 1a		 jne	 SHORT $LN2245@AddRenderI
  0052b	3a cb		 cmp	 cl, bl
  0052d	74 12		 je	 SHORT $LN2246@AddRenderI
  0052f	8a 48 01	 mov	 cl, BYTE PTR [eax+1]
  00532	3a 4e 01	 cmp	 cl, BYTE PTR [esi+1]
  00535	75 0e		 jne	 SHORT $LN2245@AddRenderI
  00537	83 c0 02	 add	 eax, 2
  0053a	83 c6 02	 add	 esi, 2
  0053d	3a cb		 cmp	 cl, bl
  0053f	75 e4		 jne	 SHORT $LL2244@AddRenderI
$LN2246@AddRenderI:
  00541	33 c0		 xor	 eax, eax
  00543	eb 05		 jmp	 SHORT $LN2247@AddRenderI
$LN2245@AddRenderI:
  00545	1b c0		 sbb	 eax, eax
  00547	83 d8 ff	 sbb	 eax, -1
$LN2247@AddRenderI:
  0054a	3b c3		 cmp	 eax, ebx
  0054c	75 30		 jne	 SHORT $LN2205@AddRenderI

; 350  : 	{
; 351  : 		SAFEDELETE( m_pExerciseGeneral );

  0054e	39 9f 6c 02 00
	00		 cmp	 DWORD PTR [edi+620], ebx
  00554	74 17		 je	 SHORT $LN44@AddRenderI
  00556	8b 8f 6c 02 00
	00		 mov	 ecx, DWORD PTR [edi+620]
  0055c	3b cb		 cmp	 ecx, ebx
  0055e	74 07		 je	 SHORT $LN84@AddRenderI
  00560	8b 01		 mov	 eax, DWORD PTR [ecx]
  00562	6a 01		 push	 1
  00564	ff 50 40	 call	 DWORD PTR [eax+64]
$LN84@AddRenderI:
  00567	89 9f 6c 02 00
	00		 mov	 DWORD PTR [edi+620], ebx
$LN44@AddRenderI:

; 352  : 		m_pExerciseGeneral = pImage;

  0056d	8b 85 c8 fe ff
	ff		 mov	 eax, DWORD PTR _pImage$GSCopy$[ebp]
  00573	89 87 6c 02 00
	00		 mov	 DWORD PTR [edi+620], eax
  00579	e9 38 07 00 00	 jmp	 $LN1@AddRenderI
$LN2205@AddRenderI:

; 353  : 	}
; 354  : 	else if( szType == "ExercisePcroom" )

  0057e	6a 03		 push	 3
  00580	c7 45 94 a8 94
	8e 98		 mov	 DWORD PTR __t$556560[ebp], -1735486296 ; 988e94a8H
  00587	c7 45 98 8e 85
	98 8f		 mov	 DWORD PTR __t$556560[ebp+4], -1885829746 ; 8f98858eH
  0058e	c7 45 9c bd 8f
	99 85		 mov	 DWORD PTR __t$556560[ebp+8], -2053533763 ; 85998fbdH
  00595	66 c7 45 a0 82
	81		 mov	 WORD PTR __t$556560[ebp+12], 33154 ; 00008182H
  0059b	8d 45 94	 lea	 eax, DWORD PTR __t$556560[ebp]
  0059e	88 5d a2	 mov	 BYTE PTR __t$556560[ebp+14], bl
  005a1	59		 pop	 ecx
$LL1059@AddRenderI:
  005a2	81 30 ed ec eb
	ea		 xor	 DWORD PTR [eax], -353637139 ; eaebecedH
  005a8	83 c0 04	 add	 eax, 4
  005ab	49		 dec	 ecx
  005ac	75 f4		 jne	 SHORT $LL1059@AddRenderI
  005ae	6a 0c		 push	 12			; 0000000cH
  005b0	58		 pop	 eax
$LL1056@AddRenderI:
  005b1	8b c8		 mov	 ecx, eax
  005b3	81 e1 03 00 00
	80		 and	 ecx, -2147483645	; 80000003H
  005b9	79 05		 jns	 SHORT $LN2305@AddRenderI
  005bb	49		 dec	 ecx
  005bc	83 c9 fc	 or	 ecx, -4			; fffffffcH
  005bf	41		 inc	 ecx
$LN2305@AddRenderI:
  005c0	b2 ed		 mov	 dl, -19			; ffffffedH
  005c2	2a d1		 sub	 dl, cl
  005c4	30 54 05 94	 xor	 BYTE PTR __t$556560[ebp+eax], dl
  005c8	40		 inc	 eax
  005c9	83 f8 0e	 cmp	 eax, 14			; 0000000eH
  005cc	7c e3		 jl	 SHORT $LL1056@AddRenderI
  005ce	8b 8d c4 fe ff
	ff		 mov	 ecx, DWORD PTR _szType$GSCopy$[ebp]
  005d4	8d 75 94	 lea	 esi, DWORD PTR __t$556560[ebp]
  005d7	ff 15 00 00 00
	00		 call	 DWORD PTR __imp_?c_str@ioHashString@@QBEPBDXZ
$LL2248@AddRenderI:
  005dd	8a 08		 mov	 cl, BYTE PTR [eax]
  005df	3a 0e		 cmp	 cl, BYTE PTR [esi]
  005e1	75 1a		 jne	 SHORT $LN2249@AddRenderI
  005e3	3a cb		 cmp	 cl, bl
  005e5	74 12		 je	 SHORT $LN2250@AddRenderI
  005e7	8a 48 01	 mov	 cl, BYTE PTR [eax+1]
  005ea	3a 4e 01	 cmp	 cl, BYTE PTR [esi+1]
  005ed	75 0e		 jne	 SHORT $LN2249@AddRenderI
  005ef	83 c0 02	 add	 eax, 2
  005f2	83 c6 02	 add	 esi, 2
  005f5	3a cb		 cmp	 cl, bl
  005f7	75 e4		 jne	 SHORT $LL2248@AddRenderI
$LN2250@AddRenderI:
  005f9	33 c0		 xor	 eax, eax
  005fb	eb 05		 jmp	 SHORT $LN2251@AddRenderI
$LN2249@AddRenderI:
  005fd	1b c0		 sbb	 eax, eax
  005ff	83 d8 ff	 sbb	 eax, -1
$LN2251@AddRenderI:
  00602	3b c3		 cmp	 eax, ebx
  00604	75 30		 jne	 SHORT $LN2206@AddRenderI

; 355  : 	{
; 356  : 		SAFEDELETE( m_pExercisePcroom );

  00606	39 9f 70 02 00
	00		 cmp	 DWORD PTR [edi+624], ebx
  0060c	74 17		 je	 SHORT $LN41@AddRenderI
  0060e	8b 8f 70 02 00
	00		 mov	 ecx, DWORD PTR [edi+624]
  00614	3b cb		 cmp	 ecx, ebx
  00616	74 07		 je	 SHORT $LN86@AddRenderI
  00618	8b 01		 mov	 eax, DWORD PTR [ecx]
  0061a	6a 01		 push	 1
  0061c	ff 50 40	 call	 DWORD PTR [eax+64]
$LN86@AddRenderI:
  0061f	89 9f 70 02 00
	00		 mov	 DWORD PTR [edi+624], ebx
$LN41@AddRenderI:

; 357  : 		m_pExercisePcroom = pImage;

  00625	8b 85 c8 fe ff
	ff		 mov	 eax, DWORD PTR _pImage$GSCopy$[ebp]
  0062b	89 87 70 02 00
	00		 mov	 DWORD PTR [edi+624], eax
  00631	e9 80 06 00 00	 jmp	 $LN1@AddRenderI
$LN2206@AddRenderI:

; 358  : 	}
; 359  : 	else if( szType == "NewMark" )

  00636	6a 04		 push	 4
  00638	c7 45 d8 a3 89
	9c a7		 mov	 DWORD PTR __t$556685[ebp], -1482913373 ; a79c89a3H
  0063f	81 75 d8 ed ec
	eb ea		 xor	 DWORD PTR __t$556685[ebp], -353637139 ; eaebecedH
  00646	c7 45 dc 8c 9e
	80 00		 mov	 DWORD PTR __t$556685[ebp+4], 8429196 ; 00809e8cH
  0064d	58		 pop	 eax
$LL1162@AddRenderI:
  0064e	8b c8		 mov	 ecx, eax
  00650	81 e1 03 00 00
	80		 and	 ecx, -2147483645	; 80000003H
  00656	79 05		 jns	 SHORT $LN2306@AddRenderI
  00658	49		 dec	 ecx
  00659	83 c9 fc	 or	 ecx, -4			; fffffffcH
  0065c	41		 inc	 ecx
$LN2306@AddRenderI:
  0065d	b2 ed		 mov	 dl, -19			; ffffffedH
  0065f	2a d1		 sub	 dl, cl
  00661	30 54 05 d8	 xor	 BYTE PTR __t$556685[ebp+eax], dl
  00665	40		 inc	 eax
  00666	83 f8 07	 cmp	 eax, 7
  00669	7c e3		 jl	 SHORT $LL1162@AddRenderI
  0066b	8b 8d c4 fe ff
	ff		 mov	 ecx, DWORD PTR _szType$GSCopy$[ebp]
  00671	8d 75 d8	 lea	 esi, DWORD PTR __t$556685[ebp]
  00674	ff 15 00 00 00
	00		 call	 DWORD PTR __imp_?c_str@ioHashString@@QBEPBDXZ
$LL2252@AddRenderI:
  0067a	8a 08		 mov	 cl, BYTE PTR [eax]
  0067c	3a 0e		 cmp	 cl, BYTE PTR [esi]
  0067e	75 1a		 jne	 SHORT $LN2253@AddRenderI
  00680	3a cb		 cmp	 cl, bl
  00682	74 12		 je	 SHORT $LN2294@AddRenderI
  00684	8a 48 01	 mov	 cl, BYTE PTR [eax+1]
  00687	3a 4e 01	 cmp	 cl, BYTE PTR [esi+1]
  0068a	75 0e		 jne	 SHORT $LN2253@AddRenderI
  0068c	83 c0 02	 add	 eax, 2
  0068f	83 c6 02	 add	 esi, 2
  00692	3a cb		 cmp	 cl, bl
  00694	75 e4		 jne	 SHORT $LL2252@AddRenderI
$LN2294@AddRenderI:
  00696	33 c0		 xor	 eax, eax
  00698	eb 05		 jmp	 SHORT $LN2255@AddRenderI
$LN2253@AddRenderI:
  0069a	1b c0		 sbb	 eax, eax
  0069c	83 d8 ff	 sbb	 eax, -1
$LN2255@AddRenderI:
  0069f	3b c3		 cmp	 eax, ebx
  006a1	75 30		 jne	 SHORT $LN2207@AddRenderI

; 360  : 	{
; 361  : 		SAFEDELETE( m_pNewMark );

  006a3	39 9f 78 02 00
	00		 cmp	 DWORD PTR [edi+632], ebx
  006a9	74 17		 je	 SHORT $LN38@AddRenderI
  006ab	8b 8f 78 02 00
	00		 mov	 ecx, DWORD PTR [edi+632]
  006b1	3b cb		 cmp	 ecx, ebx
  006b3	74 07		 je	 SHORT $LN88@AddRenderI
  006b5	8b 01		 mov	 eax, DWORD PTR [ecx]
  006b7	6a 01		 push	 1
  006b9	ff 50 40	 call	 DWORD PTR [eax+64]
$LN88@AddRenderI:
  006bc	89 9f 78 02 00
	00		 mov	 DWORD PTR [edi+632], ebx
$LN38@AddRenderI:

; 362  : 		m_pNewMark = pImage;

  006c2	8b 85 c8 fe ff
	ff		 mov	 eax, DWORD PTR _pImage$GSCopy$[ebp]
  006c8	89 87 78 02 00
	00		 mov	 DWORD PTR [edi+632], eax

; 363  : 		if( m_pNewMark )
; 364  : 			m_pNewMark->SetScale( NEW_SCALE );
; 365  : 	}

  006ce	e9 b4 05 00 00	 jmp	 $LN2310@AddRenderI
$LN2207@AddRenderI:

; 366  : 	else if( szType == "NewEffect" )

  006d3	6a 02		 push	 2
  006d5	c7 45 c8 a3 89
	9c af		 mov	 DWORD PTR __t$556810[ebp], -1348695645 ; af9c89a3H
  006dc	c7 45 cc 8b 8a
	8e 89		 mov	 DWORD PTR __t$556810[ebp+4], -1987147125 ; 898e8a8bH
  006e3	8d 45 c8	 lea	 eax, DWORD PTR __t$556810[ebp]
  006e6	66 c7 45 d0 99
	00		 mov	 WORD PTR __t$556810[ebp+8], 153 ; 00000099H
  006ec	59		 pop	 ecx
$LL1271@AddRenderI:
  006ed	81 30 ed ec eb
	ea		 xor	 DWORD PTR [eax], -353637139 ; eaebecedH
  006f3	83 c0 04	 add	 eax, 4
  006f6	49		 dec	 ecx
  006f7	75 f4		 jne	 SHORT $LL1271@AddRenderI
  006f9	8b 8d c4 fe ff
	ff		 mov	 ecx, DWORD PTR _szType$GSCopy$[ebp]
  006ff	80 75 d0 ed	 xor	 BYTE PTR __t$556810[ebp+8], -19 ; ffffffedH
  00703	8d 75 c8	 lea	 esi, DWORD PTR __t$556810[ebp]
  00706	ff 15 00 00 00
	00		 call	 DWORD PTR __imp_?c_str@ioHashString@@QBEPBDXZ
$LL2256@AddRenderI:
  0070c	8a 08		 mov	 cl, BYTE PTR [eax]
  0070e	3a 0e		 cmp	 cl, BYTE PTR [esi]
  00710	75 1a		 jne	 SHORT $LN2257@AddRenderI
  00712	3a cb		 cmp	 cl, bl
  00714	74 12		 je	 SHORT $LN2258@AddRenderI
  00716	8a 48 01	 mov	 cl, BYTE PTR [eax+1]
  00719	3a 4e 01	 cmp	 cl, BYTE PTR [esi+1]
  0071c	75 0e		 jne	 SHORT $LN2257@AddRenderI
  0071e	83 c0 02	 add	 eax, 2
  00721	83 c6 02	 add	 esi, 2
  00724	3a cb		 cmp	 cl, bl
  00726	75 e4		 jne	 SHORT $LL2256@AddRenderI
$LN2258@AddRenderI:
  00728	33 c0		 xor	 eax, eax
  0072a	eb 05		 jmp	 SHORT $LN2259@AddRenderI
$LN2257@AddRenderI:
  0072c	1b c0		 sbb	 eax, eax
  0072e	83 d8 ff	 sbb	 eax, -1
$LN2259@AddRenderI:
  00731	3b c3		 cmp	 eax, ebx
  00733	75 30		 jne	 SHORT $LN2208@AddRenderI

; 367  : 	{
; 368  : 		SAFEDELETE( m_pNewEffect );

  00735	39 9f 7c 02 00
	00		 cmp	 DWORD PTR [edi+636], ebx
  0073b	74 17		 je	 SHORT $LN34@AddRenderI
  0073d	8b 8f 7c 02 00
	00		 mov	 ecx, DWORD PTR [edi+636]
  00743	3b cb		 cmp	 ecx, ebx
  00745	74 07		 je	 SHORT $LN90@AddRenderI
  00747	8b 01		 mov	 eax, DWORD PTR [ecx]
  00749	6a 01		 push	 1
  0074b	ff 50 40	 call	 DWORD PTR [eax+64]
$LN90@AddRenderI:
  0074e	89 9f 7c 02 00
	00		 mov	 DWORD PTR [edi+636], ebx
$LN34@AddRenderI:

; 369  : 		m_pNewEffect = pImage;

  00754	8b 85 c8 fe ff
	ff		 mov	 eax, DWORD PTR _pImage$GSCopy$[ebp]
  0075a	89 87 7c 02 00
	00		 mov	 DWORD PTR [edi+636], eax

; 370  : 		if( m_pNewEffect )
; 371  : 			m_pNewEffect->SetScale( NEW_SCALE );
; 372  : 	}

  00760	e9 22 05 00 00	 jmp	 $LN2310@AddRenderI
$LN2208@AddRenderI:

; 373  : 	else if( szType == "HitMark" )

  00765	6a 04		 push	 4
  00767	c7 45 e4 a5 85
	9f a7		 mov	 DWORD PTR __t$556935[ebp], -1482717787 ; a79f85a5H
  0076e	81 75 e4 ed ec
	eb ea		 xor	 DWORD PTR __t$556935[ebp], -353637139 ; eaebecedH
  00775	c7 45 e8 8c 9e
	80 00		 mov	 DWORD PTR __t$556935[ebp+4], 8429196 ; 00809e8cH
  0077c	58		 pop	 eax
$LL1374@AddRenderI:
  0077d	8b c8		 mov	 ecx, eax
  0077f	81 e1 03 00 00
	80		 and	 ecx, -2147483645	; 80000003H
  00785	79 05		 jns	 SHORT $LN2307@AddRenderI
  00787	49		 dec	 ecx
  00788	83 c9 fc	 or	 ecx, -4			; fffffffcH
  0078b	41		 inc	 ecx
$LN2307@AddRenderI:
  0078c	b2 ed		 mov	 dl, -19			; ffffffedH
  0078e	2a d1		 sub	 dl, cl
  00790	30 54 05 e4	 xor	 BYTE PTR __t$556935[ebp+eax], dl
  00794	40		 inc	 eax
  00795	83 f8 07	 cmp	 eax, 7
  00798	7c e3		 jl	 SHORT $LL1374@AddRenderI
  0079a	8b 8d c4 fe ff
	ff		 mov	 ecx, DWORD PTR _szType$GSCopy$[ebp]
  007a0	8d 75 e4	 lea	 esi, DWORD PTR __t$556935[ebp]
  007a3	ff 15 00 00 00
	00		 call	 DWORD PTR __imp_?c_str@ioHashString@@QBEPBDXZ
$LL2260@AddRenderI:
  007a9	8a 08		 mov	 cl, BYTE PTR [eax]
  007ab	3a 0e		 cmp	 cl, BYTE PTR [esi]
  007ad	75 1a		 jne	 SHORT $LN2261@AddRenderI
  007af	3a cb		 cmp	 cl, bl
  007b1	74 12		 je	 SHORT $LN2295@AddRenderI
  007b3	8a 48 01	 mov	 cl, BYTE PTR [eax+1]
  007b6	3a 4e 01	 cmp	 cl, BYTE PTR [esi+1]
  007b9	75 0e		 jne	 SHORT $LN2261@AddRenderI
  007bb	83 c0 02	 add	 eax, 2
  007be	83 c6 02	 add	 esi, 2
  007c1	3a cb		 cmp	 cl, bl
  007c3	75 e4		 jne	 SHORT $LL2260@AddRenderI
$LN2295@AddRenderI:
  007c5	33 c0		 xor	 eax, eax
  007c7	eb 05		 jmp	 SHORT $LN2263@AddRenderI
$LN2261@AddRenderI:
  007c9	1b c0		 sbb	 eax, eax
  007cb	83 d8 ff	 sbb	 eax, -1
$LN2263@AddRenderI:
  007ce	3b c3		 cmp	 eax, ebx
  007d0	75 30		 jne	 SHORT $LN2209@AddRenderI

; 374  : 	{
; 375  : 		SAFEDELETE( m_pHitMark );

  007d2	39 9f 80 02 00
	00		 cmp	 DWORD PTR [edi+640], ebx
  007d8	74 17		 je	 SHORT $LN30@AddRenderI
  007da	8b 8f 80 02 00
	00		 mov	 ecx, DWORD PTR [edi+640]
  007e0	3b cb		 cmp	 ecx, ebx
  007e2	74 07		 je	 SHORT $LN92@AddRenderI
  007e4	8b 01		 mov	 eax, DWORD PTR [ecx]
  007e6	6a 01		 push	 1
  007e8	ff 50 40	 call	 DWORD PTR [eax+64]
$LN92@AddRenderI:
  007eb	89 9f 80 02 00
	00		 mov	 DWORD PTR [edi+640], ebx
$LN30@AddRenderI:

; 376  : 		m_pHitMark = pImage;

  007f1	8b 85 c8 fe ff
	ff		 mov	 eax, DWORD PTR _pImage$GSCopy$[ebp]
  007f7	89 87 80 02 00
	00		 mov	 DWORD PTR [edi+640], eax

; 377  : 		if( m_pHitMark )
; 378  : 			m_pHitMark->SetScale( NEW_SCALE );
; 379  : 	}

  007fd	e9 85 04 00 00	 jmp	 $LN2310@AddRenderI
$LN2209@AddRenderI:

; 380  : 	else if( szType == "HitEffect" )

  00802	6a 02		 push	 2
  00804	c7 85 2c ff ff
	ff a5 85 9f af	 mov	 DWORD PTR __t$557063[ebp], -1348500059 ; af9f85a5H
  0080e	c7 85 30 ff ff
	ff 8b 8a 8e 89	 mov	 DWORD PTR __t$557063[ebp+4], -1987147125 ; 898e8a8bH
  00818	8d 85 2c ff ff
	ff		 lea	 eax, DWORD PTR __t$557063[ebp]
  0081e	66 c7 85 34 ff
	ff ff 99 00	 mov	 WORD PTR __t$557063[ebp+8], 153 ; 00000099H
  00827	59		 pop	 ecx
$LL1483@AddRenderI:
  00828	81 30 ed ec eb
	ea		 xor	 DWORD PTR [eax], -353637139 ; eaebecedH
  0082e	83 c0 04	 add	 eax, 4
  00831	49		 dec	 ecx
  00832	75 f4		 jne	 SHORT $LL1483@AddRenderI
  00834	8b 8d c4 fe ff
	ff		 mov	 ecx, DWORD PTR _szType$GSCopy$[ebp]
  0083a	80 b5 34 ff ff
	ff ed		 xor	 BYTE PTR __t$557063[ebp+8], -19 ; ffffffedH
  00841	8d b5 2c ff ff
	ff		 lea	 esi, DWORD PTR __t$557063[ebp]
  00847	ff 15 00 00 00
	00		 call	 DWORD PTR __imp_?c_str@ioHashString@@QBEPBDXZ
$LL2264@AddRenderI:
  0084d	8a 08		 mov	 cl, BYTE PTR [eax]
  0084f	3a 0e		 cmp	 cl, BYTE PTR [esi]
  00851	75 1a		 jne	 SHORT $LN2265@AddRenderI
  00853	3a cb		 cmp	 cl, bl
  00855	74 12		 je	 SHORT $LN2296@AddRenderI
  00857	8a 48 01	 mov	 cl, BYTE PTR [eax+1]
  0085a	3a 4e 01	 cmp	 cl, BYTE PTR [esi+1]
  0085d	75 0e		 jne	 SHORT $LN2265@AddRenderI
  0085f	83 c0 02	 add	 eax, 2
  00862	83 c6 02	 add	 esi, 2
  00865	3a cb		 cmp	 cl, bl
  00867	75 e4		 jne	 SHORT $LL2264@AddRenderI
$LN2296@AddRenderI:
  00869	33 c0		 xor	 eax, eax
  0086b	eb 05		 jmp	 SHORT $LN2267@AddRenderI
$LN2265@AddRenderI:
  0086d	1b c0		 sbb	 eax, eax
  0086f	83 d8 ff	 sbb	 eax, -1
$LN2267@AddRenderI:
  00872	3b c3		 cmp	 eax, ebx
  00874	75 30		 jne	 SHORT $LN2210@AddRenderI

; 381  : 	{
; 382  : 		SAFEDELETE( m_pHitEffect );

  00876	39 9f 84 02 00
	00		 cmp	 DWORD PTR [edi+644], ebx
  0087c	74 17		 je	 SHORT $LN26@AddRenderI
  0087e	8b 8f 84 02 00
	00		 mov	 ecx, DWORD PTR [edi+644]
  00884	3b cb		 cmp	 ecx, ebx
  00886	74 07		 je	 SHORT $LN94@AddRenderI
  00888	8b 01		 mov	 eax, DWORD PTR [ecx]
  0088a	6a 01		 push	 1
  0088c	ff 50 40	 call	 DWORD PTR [eax+64]
$LN94@AddRenderI:
  0088f	89 9f 84 02 00
	00		 mov	 DWORD PTR [edi+644], ebx
$LN26@AddRenderI:

; 383  : 		m_pHitEffect = pImage;

  00895	8b 85 c8 fe ff
	ff		 mov	 eax, DWORD PTR _pImage$GSCopy$[ebp]
  0089b	89 87 84 02 00
	00		 mov	 DWORD PTR [edi+644], eax

; 384  : 		if( m_pHitEffect )
; 385  : 			m_pHitEffect->SetScale( NEW_SCALE );
; 386  : 	}

  008a1	e9 e1 03 00 00	 jmp	 $LN2310@AddRenderI
$LN2210@AddRenderI:

; 387  : 	else if( szType == "SaleMark" )

  008a6	6a 02		 push	 2
  008a8	c7 85 dc fe ff
	ff be 8d 87 8f	 mov	 DWORD PTR __t$557249[ebp], -1886941762 ; 8f878dbeH
  008b2	c7 85 e0 fe ff
	ff a0 8d 99 81	 mov	 DWORD PTR __t$557249[ebp+4], -2120643168 ; 81998da0H
  008bc	8d 85 dc fe ff
	ff		 lea	 eax, DWORD PTR __t$557249[ebp]
  008c2	88 9d e4 fe ff
	ff		 mov	 BYTE PTR __t$557249[ebp+8], bl
  008c8	59		 pop	 ecx
$LL1589@AddRenderI:
  008c9	81 30 ed ec eb
	ea		 xor	 DWORD PTR [eax], -353637139 ; eaebecedH
  008cf	83 c0 04	 add	 eax, 4
  008d2	49		 dec	 ecx
  008d3	75 f4		 jne	 SHORT $LL1589@AddRenderI
  008d5	8b 8d c4 fe ff
	ff		 mov	 ecx, DWORD PTR _szType$GSCopy$[ebp]
  008db	8d b5 dc fe ff
	ff		 lea	 esi, DWORD PTR __t$557249[ebp]
  008e1	ff 15 00 00 00
	00		 call	 DWORD PTR __imp_?c_str@ioHashString@@QBEPBDXZ
$LL2268@AddRenderI:
  008e7	8a 08		 mov	 cl, BYTE PTR [eax]
  008e9	3a 0e		 cmp	 cl, BYTE PTR [esi]
  008eb	75 1a		 jne	 SHORT $LN2269@AddRenderI
  008ed	3a cb		 cmp	 cl, bl
  008ef	74 12		 je	 SHORT $LN2297@AddRenderI
  008f1	8a 48 01	 mov	 cl, BYTE PTR [eax+1]
  008f4	3a 4e 01	 cmp	 cl, BYTE PTR [esi+1]
  008f7	75 0e		 jne	 SHORT $LN2269@AddRenderI
  008f9	83 c0 02	 add	 eax, 2
  008fc	83 c6 02	 add	 esi, 2
  008ff	3a cb		 cmp	 cl, bl
  00901	75 e4		 jne	 SHORT $LL2268@AddRenderI
$LN2297@AddRenderI:
  00903	33 c0		 xor	 eax, eax
  00905	eb 05		 jmp	 SHORT $LN2271@AddRenderI
$LN2269@AddRenderI:
  00907	1b c0		 sbb	 eax, eax
  00909	83 d8 ff	 sbb	 eax, -1
$LN2271@AddRenderI:
  0090c	3b c3		 cmp	 eax, ebx
  0090e	75 30		 jne	 SHORT $LN2211@AddRenderI

; 388  : 	{
; 389  : 		SAFEDELETE( m_pSaleMark );

  00910	39 9f 88 02 00
	00		 cmp	 DWORD PTR [edi+648], ebx
  00916	74 17		 je	 SHORT $LN22@AddRenderI
  00918	8b 8f 88 02 00
	00		 mov	 ecx, DWORD PTR [edi+648]
  0091e	3b cb		 cmp	 ecx, ebx
  00920	74 07		 je	 SHORT $LN96@AddRenderI
  00922	8b 01		 mov	 eax, DWORD PTR [ecx]
  00924	6a 01		 push	 1
  00926	ff 50 40	 call	 DWORD PTR [eax+64]
$LN96@AddRenderI:
  00929	89 9f 88 02 00
	00		 mov	 DWORD PTR [edi+648], ebx
$LN22@AddRenderI:

; 390  : 		m_pSaleMark = pImage;

  0092f	8b 85 c8 fe ff
	ff		 mov	 eax, DWORD PTR _pImage$GSCopy$[ebp]
  00935	89 87 88 02 00
	00		 mov	 DWORD PTR [edi+648], eax

; 391  : 		if( m_pSaleMark )
; 392  : 			m_pSaleMark->SetScale( NEW_SCALE );
; 393  : 	}

  0093b	e9 47 03 00 00	 jmp	 $LN2310@AddRenderI
$LN2211@AddRenderI:

; 394  : 	else if( szType == "SaleEffect" )

  00940	6a 02		 push	 2
  00942	c7 45 84 be 8d
	87 8f		 mov	 DWORD PTR __t$557323[ebp], -1886941762 ; 8f878dbeH
  00949	c7 45 88 a8 8a
	8d 8f		 mov	 DWORD PTR __t$557323[ebp+4], -1886549336 ; 8f8d8aa8H
  00950	66 c7 45 8c 8e
	98		 mov	 WORD PTR __t$557323[ebp+8], 39054 ; 0000988eH
  00956	8d 45 84	 lea	 eax, DWORD PTR __t$557323[ebp]
  00959	88 5d 8e	 mov	 BYTE PTR __t$557323[ebp+10], bl
  0095c	59		 pop	 ecx
$LL1695@AddRenderI:
  0095d	81 30 ed ec eb
	ea		 xor	 DWORD PTR [eax], -353637139 ; eaebecedH
  00963	83 c0 04	 add	 eax, 4
  00966	49		 dec	 ecx
  00967	75 f4		 jne	 SHORT $LL1695@AddRenderI
  00969	6a 08		 push	 8
  0096b	58		 pop	 eax
$LL1692@AddRenderI:
  0096c	8b c8		 mov	 ecx, eax
  0096e	81 e1 03 00 00
	80		 and	 ecx, -2147483645	; 80000003H
  00974	79 05		 jns	 SHORT $LN2308@AddRenderI
  00976	49		 dec	 ecx
  00977	83 c9 fc	 or	 ecx, -4			; fffffffcH
  0097a	41		 inc	 ecx
$LN2308@AddRenderI:
  0097b	b2 ed		 mov	 dl, -19			; ffffffedH
  0097d	2a d1		 sub	 dl, cl
  0097f	30 54 05 84	 xor	 BYTE PTR __t$557323[ebp+eax], dl
  00983	40		 inc	 eax
  00984	83 f8 0a	 cmp	 eax, 10			; 0000000aH
  00987	7c e3		 jl	 SHORT $LL1692@AddRenderI
  00989	8b 8d c4 fe ff
	ff		 mov	 ecx, DWORD PTR _szType$GSCopy$[ebp]
  0098f	8d 75 84	 lea	 esi, DWORD PTR __t$557323[ebp]
  00992	ff 15 00 00 00
	00		 call	 DWORD PTR __imp_?c_str@ioHashString@@QBEPBDXZ
$LL2272@AddRenderI:
  00998	8a 08		 mov	 cl, BYTE PTR [eax]
  0099a	3a 0e		 cmp	 cl, BYTE PTR [esi]
  0099c	75 1a		 jne	 SHORT $LN2273@AddRenderI
  0099e	3a cb		 cmp	 cl, bl
  009a0	74 12		 je	 SHORT $LN2298@AddRenderI
  009a2	8a 48 01	 mov	 cl, BYTE PTR [eax+1]
  009a5	3a 4e 01	 cmp	 cl, BYTE PTR [esi+1]
  009a8	75 0e		 jne	 SHORT $LN2273@AddRenderI
  009aa	83 c0 02	 add	 eax, 2
  009ad	83 c6 02	 add	 esi, 2
  009b0	3a cb		 cmp	 cl, bl
  009b2	75 e4		 jne	 SHORT $LL2272@AddRenderI
$LN2298@AddRenderI:
  009b4	33 c0		 xor	 eax, eax
  009b6	eb 05		 jmp	 SHORT $LN2275@AddRenderI
$LN2273@AddRenderI:
  009b8	1b c0		 sbb	 eax, eax
  009ba	83 d8 ff	 sbb	 eax, -1
$LN2275@AddRenderI:
  009bd	3b c3		 cmp	 eax, ebx
  009bf	75 30		 jne	 SHORT $LN2212@AddRenderI

; 395  : 	{
; 396  : 		SAFEDELETE( m_pSaleEffect );

  009c1	39 9f 8c 02 00
	00		 cmp	 DWORD PTR [edi+652], ebx
  009c7	74 17		 je	 SHORT $LN18@AddRenderI
  009c9	8b 8f 8c 02 00
	00		 mov	 ecx, DWORD PTR [edi+652]
  009cf	3b cb		 cmp	 ecx, ebx
  009d1	74 07		 je	 SHORT $LN98@AddRenderI
  009d3	8b 01		 mov	 eax, DWORD PTR [ecx]
  009d5	6a 01		 push	 1
  009d7	ff 50 40	 call	 DWORD PTR [eax+64]
$LN98@AddRenderI:
  009da	89 9f 8c 02 00
	00		 mov	 DWORD PTR [edi+652], ebx
$LN18@AddRenderI:

; 397  : 		m_pSaleEffect = pImage;

  009e0	8b 85 c8 fe ff
	ff		 mov	 eax, DWORD PTR _pImage$GSCopy$[ebp]
  009e6	89 87 8c 02 00
	00		 mov	 DWORD PTR [edi+652], eax

; 398  : 		if( m_pSaleEffect )
; 399  : 			m_pSaleEffect->SetScale( NEW_SCALE );
; 400  : 	}

  009ec	e9 96 02 00 00	 jmp	 $LN2310@AddRenderI
$LN2212@AddRenderI:

; 401  : 	else if( szType == "EventMark" )

  009f1	6a 02		 push	 2
  009f3	c7 45 b8 a8 9a
	8e 84		 mov	 DWORD PTR __t$557448[ebp], -2071029080 ; 848e9aa8H
  009fa	c7 45 bc 99 a1
	8a 98		 mov	 DWORD PTR __t$557448[ebp+4], -1735745127 ; 988aa199H
  00a01	8d 45 b8	 lea	 eax, DWORD PTR __t$557448[ebp]
  00a04	66 c7 45 c0 86
	00		 mov	 WORD PTR __t$557448[ebp+8], 134 ; 00000086H
  00a0a	59		 pop	 ecx
$LL1801@AddRenderI:
  00a0b	81 30 ed ec eb
	ea		 xor	 DWORD PTR [eax], -353637139 ; eaebecedH
  00a11	83 c0 04	 add	 eax, 4
  00a14	49		 dec	 ecx
  00a15	75 f4		 jne	 SHORT $LL1801@AddRenderI
  00a17	8b 8d c4 fe ff
	ff		 mov	 ecx, DWORD PTR _szType$GSCopy$[ebp]
  00a1d	80 75 c0 ed	 xor	 BYTE PTR __t$557448[ebp+8], -19 ; ffffffedH
  00a21	8d 75 b8	 lea	 esi, DWORD PTR __t$557448[ebp]
  00a24	ff 15 00 00 00
	00		 call	 DWORD PTR __imp_?c_str@ioHashString@@QBEPBDXZ
$LL2276@AddRenderI:
  00a2a	8a 08		 mov	 cl, BYTE PTR [eax]
  00a2c	3a 0e		 cmp	 cl, BYTE PTR [esi]
  00a2e	75 1a		 jne	 SHORT $LN2277@AddRenderI
  00a30	3a cb		 cmp	 cl, bl
  00a32	74 12		 je	 SHORT $LN2299@AddRenderI
  00a34	8a 48 01	 mov	 cl, BYTE PTR [eax+1]
  00a37	3a 4e 01	 cmp	 cl, BYTE PTR [esi+1]
  00a3a	75 0e		 jne	 SHORT $LN2277@AddRenderI
  00a3c	83 c0 02	 add	 eax, 2
  00a3f	83 c6 02	 add	 esi, 2
  00a42	3a cb		 cmp	 cl, bl
  00a44	75 e4		 jne	 SHORT $LL2276@AddRenderI
$LN2299@AddRenderI:
  00a46	33 c0		 xor	 eax, eax
  00a48	eb 05		 jmp	 SHORT $LN2279@AddRenderI
$LN2277@AddRenderI:
  00a4a	1b c0		 sbb	 eax, eax
  00a4c	83 d8 ff	 sbb	 eax, -1
$LN2279@AddRenderI:
  00a4f	3b c3		 cmp	 eax, ebx
  00a51	75 30		 jne	 SHORT $LN2213@AddRenderI

; 402  : 	{
; 403  : 		SAFEDELETE( m_pEventMark );

  00a53	39 9f 90 02 00
	00		 cmp	 DWORD PTR [edi+656], ebx
  00a59	74 17		 je	 SHORT $LN14@AddRenderI
  00a5b	8b 8f 90 02 00
	00		 mov	 ecx, DWORD PTR [edi+656]
  00a61	3b cb		 cmp	 ecx, ebx
  00a63	74 07		 je	 SHORT $LN100@AddRenderI
  00a65	8b 01		 mov	 eax, DWORD PTR [ecx]
  00a67	6a 01		 push	 1
  00a69	ff 50 40	 call	 DWORD PTR [eax+64]
$LN100@AddRenderI:
  00a6c	89 9f 90 02 00
	00		 mov	 DWORD PTR [edi+656], ebx
$LN14@AddRenderI:

; 404  : 		m_pEventMark = pImage;

  00a72	8b 85 c8 fe ff
	ff		 mov	 eax, DWORD PTR _pImage$GSCopy$[ebp]
  00a78	89 87 90 02 00
	00		 mov	 DWORD PTR [edi+656], eax

; 405  : 		if( m_pEventMark )
; 406  : 			m_pEventMark->SetScale( NEW_SCALE );
; 407  : 	}

  00a7e	e9 04 02 00 00	 jmp	 $LN2310@AddRenderI
$LN2213@AddRenderI:

; 408  : 	else if( szType == "EventEffect" )

  00a83	6a 02		 push	 2
  00a85	c7 85 64 ff ff
	ff a8 9a 8e 84	 mov	 DWORD PTR __t$557560[ebp], -2071029080 ; 848e9aa8H
  00a8f	c7 85 68 ff ff
	ff 99 a9 8d 8c	 mov	 DWORD PTR __t$557560[ebp+4], -1936873063 ; 8c8da999H
  00a99	8d 85 64 ff ff
	ff		 lea	 eax, DWORD PTR __t$557560[ebp]
  00a9f	c7 85 6c ff ff
	ff 88 8f 9f 00	 mov	 DWORD PTR __t$557560[ebp+8], 10456968 ; 009f8f88H
  00aa9	59		 pop	 ecx
$LL1907@AddRenderI:
  00aaa	81 30 ed ec eb
	ea		 xor	 DWORD PTR [eax], -353637139 ; eaebecedH
  00ab0	83 c0 04	 add	 eax, 4
  00ab3	49		 dec	 ecx
  00ab4	75 f4		 jne	 SHORT $LL1907@AddRenderI
  00ab6	6a 08		 push	 8
  00ab8	58		 pop	 eax
$LL1904@AddRenderI:
  00ab9	8b c8		 mov	 ecx, eax
  00abb	81 e1 03 00 00
	80		 and	 ecx, -2147483645	; 80000003H
  00ac1	79 05		 jns	 SHORT $LN2309@AddRenderI
  00ac3	49		 dec	 ecx
  00ac4	83 c9 fc	 or	 ecx, -4			; fffffffcH
  00ac7	41		 inc	 ecx
$LN2309@AddRenderI:
  00ac8	b2 ed		 mov	 dl, -19			; ffffffedH
  00aca	2a d1		 sub	 dl, cl
  00acc	30 94 05 64 ff
	ff ff		 xor	 BYTE PTR __t$557560[ebp+eax], dl
  00ad3	40		 inc	 eax
  00ad4	83 f8 0b	 cmp	 eax, 11			; 0000000bH
  00ad7	7c e0		 jl	 SHORT $LL1904@AddRenderI
  00ad9	8b 8d c4 fe ff
	ff		 mov	 ecx, DWORD PTR _szType$GSCopy$[ebp]
  00adf	8d b5 64 ff ff
	ff		 lea	 esi, DWORD PTR __t$557560[ebp]
  00ae5	ff 15 00 00 00
	00		 call	 DWORD PTR __imp_?c_str@ioHashString@@QBEPBDXZ
$LL2280@AddRenderI:
  00aeb	8a 08		 mov	 cl, BYTE PTR [eax]
  00aed	3a 0e		 cmp	 cl, BYTE PTR [esi]
  00aef	75 1a		 jne	 SHORT $LN2281@AddRenderI
  00af1	3a cb		 cmp	 cl, bl
  00af3	74 12		 je	 SHORT $LN2282@AddRenderI
  00af5	8a 48 01	 mov	 cl, BYTE PTR [eax+1]
  00af8	3a 4e 01	 cmp	 cl, BYTE PTR [esi+1]
  00afb	75 0e		 jne	 SHORT $LN2281@AddRenderI
  00afd	83 c0 02	 add	 eax, 2
  00b00	83 c6 02	 add	 esi, 2
  00b03	3a cb		 cmp	 cl, bl
  00b05	75 e4		 jne	 SHORT $LL2280@AddRenderI
$LN2282@AddRenderI:
  00b07	33 c0		 xor	 eax, eax
  00b09	eb 05		 jmp	 SHORT $LN2283@AddRenderI
$LN2281@AddRenderI:
  00b0b	1b c0		 sbb	 eax, eax
  00b0d	83 d8 ff	 sbb	 eax, -1
$LN2283@AddRenderI:
  00b10	3b c3		 cmp	 eax, ebx
  00b12	75 30		 jne	 SHORT $LN2214@AddRenderI

; 409  : 	{
; 410  : 		SAFEDELETE( m_pEventEffect );

  00b14	39 9f 94 02 00
	00		 cmp	 DWORD PTR [edi+660], ebx
  00b1a	74 17		 je	 SHORT $LN10@AddRenderI
  00b1c	8b 8f 94 02 00
	00		 mov	 ecx, DWORD PTR [edi+660]
  00b22	3b cb		 cmp	 ecx, ebx
  00b24	74 07		 je	 SHORT $LN102@AddRenderI
  00b26	8b 01		 mov	 eax, DWORD PTR [ecx]
  00b28	6a 01		 push	 1
  00b2a	ff 50 40	 call	 DWORD PTR [eax+64]
$LN102@AddRenderI:
  00b2d	89 9f 94 02 00
	00		 mov	 DWORD PTR [edi+660], ebx
$LN10@AddRenderI:

; 411  : 		m_pEventEffect = pImage;

  00b33	8b 85 c8 fe ff
	ff		 mov	 eax, DWORD PTR _pImage$GSCopy$[ebp]
  00b39	89 87 94 02 00
	00		 mov	 DWORD PTR [edi+660], eax

; 412  : 		if( m_pEventEffect )
; 413  : 			m_pEventEffect->SetScale( NEW_SCALE );
; 414  : 	}

  00b3f	e9 43 01 00 00	 jmp	 $LN2310@AddRenderI
$LN2214@AddRenderI:

; 415  : 	else if( szType == "ExerciseEvent" )

  00b44	6a 03		 push	 3
  00b46	c7 85 18 ff ff
	ff a8 94 8e 98	 mov	 DWORD PTR __t$557685[ebp], -1735486296 ; 988e94a8H
  00b50	c7 85 1c ff ff
	ff 8e 85 98 8f	 mov	 DWORD PTR __t$557685[ebp+4], -1885829746 ; 8f98858eH
  00b5a	c7 85 20 ff ff
	ff a8 9a 8e 84	 mov	 DWORD PTR __t$557685[ebp+8], -2071029080 ; 848e9aa8H
  00b64	8d 85 18 ff ff
	ff		 lea	 eax, DWORD PTR __t$557685[ebp]
  00b6a	66 c7 85 24 ff
	ff ff 99 00	 mov	 WORD PTR __t$557685[ebp+12], 153 ; 00000099H
  00b73	59		 pop	 ecx
$LL2013@AddRenderI:
  00b74	81 30 ed ec eb
	ea		 xor	 DWORD PTR [eax], -353637139 ; eaebecedH
  00b7a	83 c0 04	 add	 eax, 4
  00b7d	49		 dec	 ecx
  00b7e	75 f4		 jne	 SHORT $LL2013@AddRenderI
  00b80	8b 8d c4 fe ff
	ff		 mov	 ecx, DWORD PTR _szType$GSCopy$[ebp]
  00b86	80 b5 24 ff ff
	ff ed		 xor	 BYTE PTR __t$557685[ebp+12], -19 ; ffffffedH
  00b8d	8d b5 18 ff ff
	ff		 lea	 esi, DWORD PTR __t$557685[ebp]
  00b93	ff 15 00 00 00
	00		 call	 DWORD PTR __imp_?c_str@ioHashString@@QBEPBDXZ
$LL2284@AddRenderI:
  00b99	8a 08		 mov	 cl, BYTE PTR [eax]
  00b9b	3a 0e		 cmp	 cl, BYTE PTR [esi]
  00b9d	75 1a		 jne	 SHORT $LN2285@AddRenderI
  00b9f	3a cb		 cmp	 cl, bl
  00ba1	74 12		 je	 SHORT $LN2300@AddRenderI
  00ba3	8a 48 01	 mov	 cl, BYTE PTR [eax+1]
  00ba6	3a 4e 01	 cmp	 cl, BYTE PTR [esi+1]
  00ba9	75 0e		 jne	 SHORT $LN2285@AddRenderI
  00bab	83 c0 02	 add	 eax, 2
  00bae	83 c6 02	 add	 esi, 2
  00bb1	3a cb		 cmp	 cl, bl
  00bb3	75 e4		 jne	 SHORT $LL2284@AddRenderI
$LN2300@AddRenderI:
  00bb5	33 c0		 xor	 eax, eax
  00bb7	eb 05		 jmp	 SHORT $LN2287@AddRenderI
$LN2285@AddRenderI:
  00bb9	1b c0		 sbb	 eax, eax
  00bbb	83 d8 ff	 sbb	 eax, -1
$LN2287@AddRenderI:
  00bbe	3b c3		 cmp	 eax, ebx
  00bc0	75 30		 jne	 SHORT $LN2215@AddRenderI

; 416  : 	{
; 417  : 		SAFEDELETE( m_pExerciseEvent );

  00bc2	39 9f 74 02 00
	00		 cmp	 DWORD PTR [edi+628], ebx
  00bc8	74 17		 je	 SHORT $LN6@AddRenderI
  00bca	8b 8f 74 02 00
	00		 mov	 ecx, DWORD PTR [edi+628]
  00bd0	3b cb		 cmp	 ecx, ebx
  00bd2	74 07		 je	 SHORT $LN104@AddRenderI
  00bd4	8b 01		 mov	 eax, DWORD PTR [ecx]
  00bd6	6a 01		 push	 1
  00bd8	ff 50 40	 call	 DWORD PTR [eax+64]
$LN104@AddRenderI:
  00bdb	89 9f 74 02 00
	00		 mov	 DWORD PTR [edi+628], ebx
$LN6@AddRenderI:

; 418  : 		m_pExerciseEvent = pImage;

  00be1	8b 85 c8 fe ff
	ff		 mov	 eax, DWORD PTR _pImage$GSCopy$[ebp]
  00be7	89 87 74 02 00
	00		 mov	 DWORD PTR [edi+628], eax
  00bed	e9 c4 00 00 00	 jmp	 $LN1@AddRenderI
$LN2215@AddRenderI:

; 419  : 	}
; 420  : 	else if( szType == "IconBack" )

  00bf2	6a 02		 push	 2
  00bf4	c7 85 cc fe ff
	ff a4 8f 84 84	 mov	 DWORD PTR __t$557874[ebp], -2071687260 ; 84848fa4H
  00bfe	c7 85 d0 fe ff
	ff af 8d 88 81	 mov	 DWORD PTR __t$557874[ebp+4], -2121757265 ; 81888dafH
  00c08	8d 85 cc fe ff
	ff		 lea	 eax, DWORD PTR __t$557874[ebp]
  00c0e	88 9d d4 fe ff
	ff		 mov	 BYTE PTR __t$557874[ebp+8], bl
  00c14	59		 pop	 ecx
$LL2119@AddRenderI:
  00c15	81 30 ed ec eb
	ea		 xor	 DWORD PTR [eax], -353637139 ; eaebecedH
  00c1b	83 c0 04	 add	 eax, 4
  00c1e	49		 dec	 ecx
  00c1f	75 f4		 jne	 SHORT $LL2119@AddRenderI
  00c21	8b 8d c4 fe ff
	ff		 mov	 ecx, DWORD PTR _szType$GSCopy$[ebp]
  00c27	8d b5 cc fe ff
	ff		 lea	 esi, DWORD PTR __t$557874[ebp]
  00c2d	ff 15 00 00 00
	00		 call	 DWORD PTR __imp_?c_str@ioHashString@@QBEPBDXZ
$LL2288@AddRenderI:
  00c33	8a 08		 mov	 cl, BYTE PTR [eax]
  00c35	3a 0e		 cmp	 cl, BYTE PTR [esi]
  00c37	75 1a		 jne	 SHORT $LN2289@AddRenderI
  00c39	3a cb		 cmp	 cl, bl
  00c3b	74 12		 je	 SHORT $LN2290@AddRenderI
  00c3d	8a 48 01	 mov	 cl, BYTE PTR [eax+1]
  00c40	3a 4e 01	 cmp	 cl, BYTE PTR [esi+1]
  00c43	75 0e		 jne	 SHORT $LN2289@AddRenderI
  00c45	83 c0 02	 add	 eax, 2
  00c48	83 c6 02	 add	 esi, 2
  00c4b	3a cb		 cmp	 cl, bl
  00c4d	75 e4		 jne	 SHORT $LL2288@AddRenderI
$LN2290@AddRenderI:
  00c4f	33 c0		 xor	 eax, eax
  00c51	eb 05		 jmp	 SHORT $LN2291@AddRenderI
$LN2289@AddRenderI:
  00c53	1b c0		 sbb	 eax, eax
  00c55	83 d8 ff	 sbb	 eax, -1
$LN2291@AddRenderI:
  00c58	3b c3		 cmp	 eax, ebx
  00c5a	75 46		 jne	 SHORT $LN4@AddRenderI

; 421  : 	{
; 422  : 		SAFEDELETE( m_pIconBack );

  00c5c	39 9f 98 02 00
	00		 cmp	 DWORD PTR [edi+664], ebx
  00c62	74 17		 je	 SHORT $LN3@AddRenderI
  00c64	8b 8f 98 02 00
	00		 mov	 ecx, DWORD PTR [edi+664]
  00c6a	3b cb		 cmp	 ecx, ebx
  00c6c	74 07		 je	 SHORT $LN106@AddRenderI
  00c6e	8b 01		 mov	 eax, DWORD PTR [ecx]
  00c70	6a 01		 push	 1
  00c72	ff 50 40	 call	 DWORD PTR [eax+64]
$LN106@AddRenderI:
  00c75	89 9f 98 02 00
	00		 mov	 DWORD PTR [edi+664], ebx
$LN3@AddRenderI:

; 423  : 		m_pIconBack = pImage;

  00c7b	8b 85 c8 fe ff
	ff		 mov	 eax, DWORD PTR _pImage$GSCopy$[ebp]
  00c81	89 87 98 02 00
	00		 mov	 DWORD PTR [edi+664], eax
$LN2310@AddRenderI:

; 424  : 		if( m_pIconBack )

  00c87	3b c3		 cmp	 eax, ebx
  00c89	74 2b		 je	 SHORT $LN1@AddRenderI

; 425  : 			m_pIconBack->SetScale( NEW_SCALE );

  00c8b	f3 0f 10 05 00
	00 00 00	 movss	 xmm0, DWORD PTR __real@3f400000
$LN2312@AddRenderI:
  00c93	8b c8		 mov	 ecx, eax
  00c95	8b 01		 mov	 eax, DWORD PTR [ecx]
  00c97	51		 push	 ecx
  00c98	f3 0f 11 04 24	 movss	 DWORD PTR [esp], xmm0
  00c9d	ff 50 1c	 call	 DWORD PTR [eax+28]

; 426  : 	}
; 427  : 	else

  00ca0	eb 14		 jmp	 SHORT $LN1@AddRenderI
$LN4@AddRenderI:

; 428  : 		ioButton::AddRenderImage( szType, pImage );

  00ca2	ff b5 c8 fe ff
	ff		 push	 DWORD PTR _pImage$GSCopy$[ebp]
  00ca8	8b cf		 mov	 ecx, edi
  00caa	ff b5 c4 fe ff
	ff		 push	 DWORD PTR _szType$GSCopy$[ebp]
  00cb0	ff 15 00 00 00
	00		 call	 DWORD PTR __imp_?AddRenderImage@ioButton@@UAEXABVioHashString@@PAVioUIRenderImage@@@Z
$LN1@AddRenderI:

; 429  : }

  00cb6	8b 4d fc	 mov	 ecx, DWORD PTR __$ArrayPad$[ebp]
  00cb9	5f		 pop	 edi
  00cba	5e		 pop	 esi
  00cbb	33 cd		 xor	 ecx, ebp
  00cbd	5b		 pop	 ebx
  00cbe	e8 00 00 00 00	 call	 @__security_check_cookie@4
  00cc3	c9		 leave
  00cc4	c2 08 00	 ret	 8
?AddRenderImage@SoldierExerciseBtn@@MAEXABVioHashString@@PAVioUIRenderImage@@@Z ENDP ; SoldierExerciseBtn::AddRenderImage
_TEXT	ENDS
PUBLIC	__$ArrayPad$
EXTRN	__imp_?ParseExtraInfo@ioButton@@UAEXAAVioXMLElement@@@Z:PROC
; Function compile flags: /Ogsp
;	COMDAT ?ParseExtraInfo@SoldierExerciseBtn@@UAEXAAVioXMLElement@@@Z
_TEXT	SEGMENT
__k$558398 = -28					; size = 18
__k$558273 = -24					; size = 11
__k$558148 = -20					; size = 9
__$ArrayPad$ = -4					; size = 4
_xElement$ = 8						; size = 4
?ParseExtraInfo@SoldierExerciseBtn@@UAEXAAVioXMLElement@@@Z PROC ; SoldierExerciseBtn::ParseExtraInfo, COMDAT
; _this$ = ecx

; 432  : {

  00000	55		 push	 ebp
  00001	8b ec		 mov	 ebp, esp
  00003	83 ec 1c	 sub	 esp, 28			; 0000001cH
  00006	a1 00 00 00 00	 mov	 eax, DWORD PTR ___security_cookie
  0000b	33 c5		 xor	 eax, ebp
  0000d	89 45 fc	 mov	 DWORD PTR __$ArrayPad$[ebp], eax
  00010	53		 push	 ebx
  00011	8b 5d 08	 mov	 ebx, DWORD PTR _xElement$[ebp]
  00014	56		 push	 esi
  00015	57		 push	 edi

; 433  : 	ioButton::ParseExtraInfo( xElement );

  00016	53		 push	 ebx
  00017	8b f1		 mov	 esi, ecx
  00019	ff 15 00 00 00
	00		 call	 DWORD PTR __imp_?ParseExtraInfo@ioButton@@UAEXAAVioXMLElement@@@Z

; 434  : 	m_bArrow                = xElement.GetBoolAttribute_e( "UseArrow" );

  0001f	6a 02		 push	 2
  00021	c7 45 ec b8 9f
	8e ab		 mov	 DWORD PTR __k$558148[ebp], -1416716360 ; ab8e9fb8H
  00028	c7 45 f0 9f 9e
	84 9d		 mov	 DWORD PTR __k$558148[ebp+4], -1652253025 ; 9d849e9fH
  0002f	8d 45 ec	 lea	 eax, DWORD PTR __k$558148[ebp]
  00032	c6 45 f4 00	 mov	 BYTE PTR __k$558148[ebp+8], 0
  00036	59		 pop	 ecx
$LL106@ParseExtra:
  00037	81 30 ed ec eb
	ea		 xor	 DWORD PTR [eax], -353637139 ; eaebecedH
  0003d	83 c0 04	 add	 eax, 4
  00040	49		 dec	 ecx
  00041	75 f4		 jne	 SHORT $LL106@ParseExtra
  00043	8d 45 ec	 lea	 eax, DWORD PTR __k$558148[ebp]
  00046	50		 push	 eax
  00047	8b cb		 mov	 ecx, ebx
  00049	ff 15 00 00 00
	00		 call	 DWORD PTR __imp_?GetBoolAttribute@ioXMLElement@@QBE_NPBD@Z
  0004f	6a 02		 push	 2
  00051	88 86 10 02 00
	00		 mov	 BYTE PTR [esi+528], al

; 435  : 	m_iDownHeight           = xElement.GetIntAttribute_e( "DownHeight" );

  00057	c7 45 e8 a9 83
	9c 84		 mov	 DWORD PTR __k$558273[ebp], -2070117463 ; 849c83a9H
  0005e	c7 45 ec a5 89
	82 8d		 mov	 DWORD PTR __k$558273[ebp+4], -1920824923 ; 8d8289a5H
  00065	66 c7 45 f0 85
	98		 mov	 WORD PTR __k$558273[ebp+8], 39045 ; 00009885H
  0006b	8d 45 e8	 lea	 eax, DWORD PTR __k$558273[ebp]
  0006e	c6 45 f2 00	 mov	 BYTE PTR __k$558273[ebp+10], 0
  00072	59		 pop	 ecx
$LL212@ParseExtra:
  00073	81 30 ed ec eb
	ea		 xor	 DWORD PTR [eax], -353637139 ; eaebecedH
  00079	83 c0 04	 add	 eax, 4
  0007c	49		 dec	 ecx
  0007d	75 f4		 jne	 SHORT $LL212@ParseExtra
  0007f	6a 08		 push	 8
  00081	5f		 pop	 edi
$LL209@ParseExtra:
  00082	8b c7		 mov	 eax, edi
  00084	25 03 00 00 80	 and	 eax, -2147483645	; 80000003H
  00089	79 05		 jns	 SHORT $LN333@ParseExtra
  0008b	48		 dec	 eax
  0008c	83 c8 fc	 or	 eax, -4			; fffffffcH
  0008f	40		 inc	 eax
$LN333@ParseExtra:
  00090	b1 ed		 mov	 cl, -19			; ffffffedH
  00092	2a c8		 sub	 cl, al
  00094	30 4c 3d e8	 xor	 BYTE PTR __k$558273[ebp+edi], cl
  00098	47		 inc	 edi
  00099	83 ff 0a	 cmp	 edi, 10			; 0000000aH
  0009c	7c e4		 jl	 SHORT $LL209@ParseExtra
  0009e	8b 3d 00 00 00
	00		 mov	 edi, DWORD PTR __imp_?GetIntAttribute@ioXMLElement@@QBEHPBD@Z
  000a4	8d 45 e8	 lea	 eax, DWORD PTR __k$558273[ebp]
  000a7	50		 push	 eax
  000a8	8b cb		 mov	 ecx, ebx
  000aa	ff d7		 call	 edi
  000ac	6a 04		 push	 4
  000ae	89 86 14 02 00
	00		 mov	 DWORD PTR [esi+532], eax

; 436  : 	m_dwNewEffectWaitTime   = xElement.GetIntAttribute_e( "NewEffectWaitTime" );

  000b4	c7 45 e4 a3 89
	9c af		 mov	 DWORD PTR __k$558398[ebp], -1348695645 ; af9c89a3H
  000bb	c7 45 e8 8b 8a
	8e 89		 mov	 DWORD PTR __k$558398[ebp+4], -1987147125 ; 898e8a8bH
  000c2	c7 45 ec 99 bb
	8a 83		 mov	 DWORD PTR __k$558398[ebp+8], -2088060007 ; 838abb99H
  000c9	c7 45 f0 99 b8
	82 87		 mov	 DWORD PTR __k$558398[ebp+12], -2021476199 ; 8782b899H
  000d0	8d 45 e4	 lea	 eax, DWORD PTR __k$558398[ebp]
  000d3	66 c7 45 f4 88
	00		 mov	 WORD PTR __k$558398[ebp+16], 136 ; 00000088H
  000d9	59		 pop	 ecx
$LL318@ParseExtra:
  000da	81 30 ed ec eb
	ea		 xor	 DWORD PTR [eax], -353637139 ; eaebecedH
  000e0	83 c0 04	 add	 eax, 4
  000e3	49		 dec	 ecx
  000e4	75 f4		 jne	 SHORT $LL318@ParseExtra
  000e6	80 75 f4 ed	 xor	 BYTE PTR __k$558398[ebp+16], -19 ; ffffffedH
  000ea	8d 45 e4	 lea	 eax, DWORD PTR __k$558398[ebp]
  000ed	50		 push	 eax
  000ee	8b cb		 mov	 ecx, ebx
  000f0	ff d7		 call	 edi

; 437  : }

  000f2	8b 4d fc	 mov	 ecx, DWORD PTR __$ArrayPad$[ebp]
  000f5	5f		 pop	 edi
  000f6	89 86 9c 02 00
	00		 mov	 DWORD PTR [esi+668], eax
  000fc	5e		 pop	 esi
  000fd	33 cd		 xor	 ecx, ebp
  000ff	5b		 pop	 ebx
  00100	e8 00 00 00 00	 call	 @__security_check_cookie@4
  00105	c9		 leave
  00106	c2 04 00	 ret	 4
?ParseExtraInfo@SoldierExerciseBtn@@UAEXAAVioXMLElement@@@Z ENDP ; SoldierExerciseBtn::ParseExtraInfo
_TEXT	ENDS
EXTRN	__imp_?IsShow@ioWnd@@QBE_NXZ:PROC
; Function compile flags: /Ogsp
;	COMDAT ?OnProcess@SoldierExerciseBtn@@MAEXM@Z
_TEXT	SEGMENT
_fTimePerSec$ = 8					; size = 4
?OnProcess@SoldierExerciseBtn@@MAEXM@Z PROC		; SoldierExerciseBtn::OnProcess, COMDAT
; _this$ = ecx

; 485  : {

  00000	56		 push	 esi
  00001	8b f1		 mov	 esi, ecx

; 486  : 	if( !IsShow() ) return;

  00003	ff 15 00 00 00
	00		 call	 DWORD PTR __imp_?IsShow@ioWnd@@QBE_NXZ
  00009	84 c0		 test	 al, al
  0000b	0f 84 ad 00 00
	00		 je	 $LN6@OnProcess

; 487  : 
; 488  : 	UpdateAniState();

  00011	8b ce		 mov	 ecx, esi
  00013	e8 00 00 00 00	 call	 ?UpdateAniState@SoldierExerciseBtn@@IAEXXZ ; SoldierExerciseBtn::UpdateAniState

; 489  : 
; 490  : 	if( m_pSoldierIcon )

  00018	83 be 54 02 00
	00 00		 cmp	 DWORD PTR [esi+596], 0
  0001f	0f 84 92 00 00
	00		 je	 $LN1@OnProcess

; 491  : 	{
; 492  : 		if( m_bScreenAction && 
; 493  : 			m_eBoughtType != SBT_BOUGHT && 
; 494  : 			m_eBoughtType != SBT_EXERCISE_PCROOM && 
; 495  : 			m_eBoughtType != SBT_EXERCISE_EVENT  && 
; 496  : 			!HasWndStyle( IWS_INACTIVE ) && 
; 497  : 			m_eNeedLevelType == ioSetItemInfo::NLT_NONE )

  00025	80 be 44 02 00
	00 00		 cmp	 BYTE PTR [esi+580], 0
  0002c	0f 84 85 00 00
	00		 je	 $LN1@OnProcess
  00032	8b 86 00 02 00
	00		 mov	 eax, DWORD PTR [esi+512]
  00038	83 f8 01	 cmp	 eax, 1
  0003b	74 7a		 je	 SHORT $LN1@OnProcess
  0003d	83 f8 03	 cmp	 eax, 3
  00040	74 75		 je	 SHORT $LN1@OnProcess
  00042	83 f8 04	 cmp	 eax, 4
  00045	74 70		 je	 SHORT $LN1@OnProcess
  00047	6a 02		 push	 2
  00049	8b ce		 mov	 ecx, esi
  0004b	ff 15 00 00 00
	00		 call	 DWORD PTR __imp_?HasWndStyle@ioWnd@@QBE_NK@Z
  00051	84 c0		 test	 al, al
  00053	75 62		 jne	 SHORT $LN1@OnProcess
  00055	83 be 50 02 00
	00 ff		 cmp	 DWORD PTR [esi+592], -1
  0005c	75 59		 jne	 SHORT $LN1@OnProcess

; 498  : 		{
; 499  : 			if( m_dwScreenStartTime == 0 )

  0005e	83 be 4c 02 00
	00 00		 cmp	 DWORD PTR [esi+588], 0
  00065	57		 push	 edi
  00066	8b 3d 00 00 00
	00		 mov	 edi, DWORD PTR __imp_?GetSingleton@ioFrameTimer@@SAAAV1@XZ
  0006c	75 10		 jne	 SHORT $LN2@OnProcess

; 500  : 				m_dwScreenStartTime = FRAMEGETTIME();

  0006e	ff d7		 call	 edi
  00070	8b c8		 mov	 ecx, eax
  00072	ff 15 00 00 00
	00		 call	 DWORD PTR __imp_?GetLoopSec@ioFrameTimer@@QBEKXZ
  00078	89 86 4c 02 00
	00		 mov	 DWORD PTR [esi+588], eax
$LN2@OnProcess:

; 501  : 
; 502  : 			DWORD dwGapTime = FRAMEGETTIME() - m_dwScreenStartTime;

  0007e	ff d7		 call	 edi
  00080	8b c8		 mov	 ecx, eax
  00082	ff 15 00 00 00
	00		 call	 DWORD PTR __imp_?GetLoopSec@ioFrameTimer@@QBEKXZ
  00088	2b 86 4c 02 00
	00		 sub	 eax, DWORD PTR [esi+588]

; 503  : 			if( dwGapTime > m_dwScreenTime )

  0008e	3b 86 48 02 00
	00		 cmp	 eax, DWORD PTR [esi+584]
  00094	76 20		 jbe	 SHORT $LN8@OnProcess

; 504  : 			{
; 505  : 				m_bScreenSoldier = !m_bScreenSoldier;

  00096	80 be 45 02 00
	00 00		 cmp	 BYTE PTR [esi+581], 0
  0009d	0f 94 c1	 sete	 cl
  000a0	88 8e 45 02 00
	00		 mov	 BYTE PTR [esi+581], cl

; 506  : 				m_dwScreenStartTime = FRAMEGETTIME();

  000a6	ff d7		 call	 edi
  000a8	8b c8		 mov	 ecx, eax
  000aa	ff 15 00 00 00
	00		 call	 DWORD PTR __imp_?GetLoopSec@ioFrameTimer@@QBEKXZ
  000b0	89 86 4c 02 00
	00		 mov	 DWORD PTR [esi+588], eax
$LN8@OnProcess:
  000b6	5f		 pop	 edi
$LN1@OnProcess:

; 507  : 			}
; 508  : 		}
; 509  : 	}
; 510  : 
; 511  : 	ProcessNewEffect();

  000b7	8b ce		 mov	 ecx, esi
  000b9	e8 00 00 00 00	 call	 ?ProcessNewEffect@SoldierExerciseBtn@@IAEXXZ ; SoldierExerciseBtn::ProcessNewEffect
$LN6@OnProcess:
  000be	5e		 pop	 esi

; 512  : }

  000bf	c2 04 00	 ret	 4
?OnProcess@SoldierExerciseBtn@@MAEXM@Z ENDP		; SoldierExerciseBtn::OnProcess
_TEXT	ENDS
PUBLIC	??_C@_0BN@KLDDCNHH@SoldierExerciseWnd?3?3OnRender?$AA@ ; `string'
PUBLIC	?OnRender@SoldierExerciseWnd@@MAEXXZ		; SoldierExerciseWnd::OnRender
EXTRN	__imp_?PrintText@ioFontManager@@QAAXMMMPBDZZ:PROC
EXTRN	__imp_?SetAlignType@ioFontManager@@QAEXW4TextAlignType@@@Z:PROC
EXTRN	__imp_?SetTextColor@ioFontManager@@QAEXK@Z:PROC
EXTRN	__imp_?SetTextStyle@ioFontManager@@QAEXW4TextStyle@@@Z:PROC
EXTRN	__imp_?SetBkColor@ioFontManager@@QAEXHHH@Z:PROC
EXTRN	__imp_?GetSingleton@ioFontManager@@SAAAV1@XZ:PROC
EXTRN	__imp_?OnRender@ioWnd@@MAEXXZ:PROC
;	COMDAT ??_C@_0BN@KLDDCNHH@SoldierExerciseWnd?3?3OnRender?$AA@
; File d:\lost saga for developer\youtube\tutorial\source\src\lsclient\gui\fsmstatemgr.h
CONST	SEGMENT
??_C@_0BN@KLDDCNHH@SoldierExerciseWnd?3?3OnRender?$AA@ DB 'SoldierExercis'
	DB	'eWnd::OnRender', 00H			; `string'
; Function compile flags: /Ogsp
; File d:\lost saga for developer\youtube\tutorial\source\src\lsclient\gui\soldierexercisewnd.cpp
CONST	ENDS
;	COMDAT ?OnRender@SoldierExerciseWnd@@MAEXXZ
_TEXT	SEGMENT
tv382 = -16						; size = 4
_this$ = -16						; size = 4
tv374 = -12						; size = 4
_iXPos$ = -12						; size = 4
_iYPos$ = -8						; size = 4
tv372 = -4						; size = 4
tv359 = -4						; size = 4
?OnRender@SoldierExerciseWnd@@MAEXXZ PROC		; SoldierExerciseWnd::OnRender, COMDAT
; _this$ = ecx

; 725  : {

  00000	55		 push	 ebp
  00001	8b ec		 mov	 ebp, esp
  00003	83 ec 10	 sub	 esp, 16			; 00000010H
  00006	53		 push	 ebx
  00007	56		 push	 esi
  00008	8b d9		 mov	 ebx, ecx
  0000a	57		 push	 edi
  0000b	89 5d f0	 mov	 DWORD PTR _this$[ebp], ebx

; 726  : 	ioWnd::OnRender();

  0000e	ff 15 00 00 00
	00		 call	 DWORD PTR __imp_?OnRender@ioWnd@@MAEXXZ

; 727  : 
; 728  : 	int iXPos = GetDerivedPosX();

  00014	8b cb		 mov	 ecx, ebx
  00016	ff 15 00 00 00
	00		 call	 DWORD PTR __imp_?GetDerivedPosX@ioWnd@@QBEHXZ
  0001c	8b f8		 mov	 edi, eax

; 729  : 	int iYPos = GetDerivedPosY();

  0001e	8b cb		 mov	 ecx, ebx
  00020	89 7d f4	 mov	 DWORD PTR _iXPos$[ebp], edi
  00023	ff 15 00 00 00
	00		 call	 DWORD PTR __imp_?GetDerivedPosY@ioWnd@@QBEHXZ

; 730  : 
; 731  : 	g_FontMgr.SetBkColor( 0, 0, 0 );

  00029	8b 35 00 00 00
	00		 mov	 esi, DWORD PTR __imp_?GetSingleton@ioFontManager@@SAAAV1@XZ
  0002f	89 45 f8	 mov	 DWORD PTR _iYPos$[ebp], eax
  00032	33 c0		 xor	 eax, eax
  00034	50		 push	 eax
  00035	50		 push	 eax
  00036	50		 push	 eax
  00037	ff d6		 call	 esi
  00039	8b c8		 mov	 ecx, eax
  0003b	ff 15 00 00 00
	00		 call	 DWORD PTR __imp_?SetBkColor@ioFontManager@@QAEXHHH@Z

; 732  : 	g_FontMgr.SetTextStyle( TS_OUTLINE_FULL_2X );

  00041	6a 05		 push	 5
  00043	ff d6		 call	 esi
  00045	8b c8		 mov	 ecx, eax
  00047	ff 15 00 00 00
	00		 call	 DWORD PTR __imp_?SetTextStyle@ioFontManager@@QAEXW4TextStyle@@@Z

; 733  : 	g_FontMgr.SetTextColor( TCT_DEFAULT_GRAY );

  0004d	68 6e 6e 6e ff	 push	 -9539986		; ff6e6e6eH
  00052	ff d6		 call	 esi
  00054	8b c8		 mov	 ecx, eax
  00056	ff 15 00 00 00
	00		 call	 DWORD PTR __imp_?SetTextColor@ioFontManager@@QAEXK@Z

; 734  : 	g_FontMgr.SetAlignType( TAT_LEFT );

  0005c	6a 00		 push	 0
  0005e	ff d6		 call	 esi
  00060	8b c8		 mov	 ecx, eax
  00062	ff 15 00 00 00
	00		 call	 DWORD PTR __imp_?SetAlignType@ioFontManager@@QAEXW4TextAlignType@@@Z

; 735  : 
; 736  : 	if( m_iExerciseStyle == EXERCISE_PCROOM )

  00068	8b 9b 64 01 00
	00		 mov	 ebx, DWORD PTR [ebx+356]

; 737  : 	{		
; 738  : 		g_FontMgr.PrintText( iXPos + 17, iYPos +  8,  FONT_SIZE_13, STR(1));

  0006e	83 c7 11	 add	 edi, 17			; 00000011H
  00071	0f 57 c0	 xorps	 xmm0, xmm0
  00074	f3 0f 2a c7	 cvtsi2ss xmm0, edi
  00078	6a 00		 push	 0
  0007a	f3 0f 11 45 fc	 movss	 DWORD PTR tv359[ebp], xmm0
  0007f	bf 00 00 00 00	 mov	 edi, OFFSET ??_C@_0BN@KLDDCNHH@SoldierExerciseWnd?3?3OnRender?$AA@
  00084	83 fb 02	 cmp	 ebx, 2
  00087	75 5b		 jne	 SHORT $LN8@OnRender
  00089	6a 01		 push	 1
  0008b	bb 00 00 00 00	 mov	 ebx, OFFSET ??_C@_00CNPNBAHC@?$AA@
  00090	53		 push	 ebx
  00091	57		 push	 edi
  00092	ff 15 00 00 00
	00		 call	 DWORD PTR __imp_?GetSingleton@ioStringManager@@SAAAV1@XZ
  00098	8b c8		 mov	 ecx, eax
  0009a	ff 15 00 00 00
	00		 call	 DWORD PTR __imp_?GetString@ioStringManager@@QAEPADPBD0HW4FileNamePrefix@1@@Z
  000a0	f3 0f 10 05 00
	00 00 00	 movss	 xmm0, DWORD PTR __real@3f266666
  000a8	50		 push	 eax
  000a9	8b 45 f8	 mov	 eax, DWORD PTR _iYPos$[ebp]
  000ac	83 ec 0c	 sub	 esp, 12			; 0000000cH
  000af	f3 0f 11 44 24
	08		 movss	 DWORD PTR [esp+8], xmm0
  000b5	83 c0 08	 add	 eax, 8
  000b8	0f 57 c0	 xorps	 xmm0, xmm0
  000bb	f3 0f 2a c0	 cvtsi2ss xmm0, eax
  000bf	f3 0f 11 44 24
	04		 movss	 DWORD PTR [esp+4], xmm0
  000c5	f3 0f 10 45 fc	 movss	 xmm0, DWORD PTR tv359[ebp]
  000ca	f3 0f 11 04 24	 movss	 DWORD PTR [esp], xmm0
  000cf	ff d6		 call	 esi
  000d1	50		 push	 eax
  000d2	ff 15 00 00 00
	00		 call	 DWORD PTR __imp_?PrintText@ioFontManager@@QAAXMMMPBDZZ
  000d8	83 c4 14	 add	 esp, 20			; 00000014H

; 739  : 		g_FontMgr.PrintText( iXPos + 17, iYPos + 28,  FONT_SIZE_13, STR(2));

  000db	6a 00		 push	 0
  000dd	6a 02		 push	 2
  000df	e9 ae 00 00 00	 jmp	 $LN16@OnRender
$LN8@OnRender:

; 740  : 	}
; 741  : 	else if( m_iExerciseStyle == EXERCISE_EVENT )

  000e4	83 fb 03	 cmp	 ebx, 3

; 742  : 	{
; 743  : 		g_FontMgr.PrintText( iXPos + 17, iYPos +  8,  FONT_SIZE_13, STR(3));

  000e7	bb 00 00 00 00	 mov	 ebx, OFFSET ??_C@_00CNPNBAHC@?$AA@
  000ec	75 53		 jne	 SHORT $LN6@OnRender
  000ee	6a 03		 push	 3
  000f0	53		 push	 ebx
  000f1	57		 push	 edi
  000f2	ff 15 00 00 00
	00		 call	 DWORD PTR __imp_?GetSingleton@ioStringManager@@SAAAV1@XZ
  000f8	8b c8		 mov	 ecx, eax
  000fa	ff 15 00 00 00
	00		 call	 DWORD PTR __imp_?GetString@ioStringManager@@QAEPADPBD0HW4FileNamePrefix@1@@Z
  00100	f3 0f 10 05 00
	00 00 00	 movss	 xmm0, DWORD PTR __real@3f266666
  00108	50		 push	 eax
  00109	8b 45 f8	 mov	 eax, DWORD PTR _iYPos$[ebp]
  0010c	83 ec 0c	 sub	 esp, 12			; 0000000cH
  0010f	f3 0f 11 44 24
	08		 movss	 DWORD PTR [esp+8], xmm0
  00115	83 c0 08	 add	 eax, 8
  00118	0f 57 c0	 xorps	 xmm0, xmm0
  0011b	f3 0f 2a c0	 cvtsi2ss xmm0, eax
  0011f	f3 0f 11 44 24
	04		 movss	 DWORD PTR [esp+4], xmm0
  00125	f3 0f 10 45 fc	 movss	 xmm0, DWORD PTR tv359[ebp]
  0012a	f3 0f 11 04 24	 movss	 DWORD PTR [esp], xmm0
  0012f	ff d6		 call	 esi
  00131	50		 push	 eax
  00132	ff 15 00 00 00
	00		 call	 DWORD PTR __imp_?PrintText@ioFontManager@@QAAXMMMPBDZZ
  00138	83 c4 14	 add	 esp, 20			; 00000014H

; 744  : 		g_FontMgr.PrintText( iXPos + 17, iYPos + 28,  FONT_SIZE_13, STR(4));

  0013b	6a 00		 push	 0
  0013d	6a 04		 push	 4

; 745  : 	}
; 746  : 	else 

  0013f	eb 51		 jmp	 SHORT $LN16@OnRender
$LN6@OnRender:

; 747  : 	{
; 748  : 		g_FontMgr.PrintText( iXPos + 17, iYPos +  8,  FONT_SIZE_13, STR(5));

  00141	6a 05		 push	 5
  00143	53		 push	 ebx
  00144	57		 push	 edi
  00145	ff 15 00 00 00
	00		 call	 DWORD PTR __imp_?GetSingleton@ioStringManager@@SAAAV1@XZ
  0014b	8b c8		 mov	 ecx, eax
  0014d	ff 15 00 00 00
	00		 call	 DWORD PTR __imp_?GetString@ioStringManager@@QAEPADPBD0HW4FileNamePrefix@1@@Z
  00153	f3 0f 10 05 00
	00 00 00	 movss	 xmm0, DWORD PTR __real@3f266666
  0015b	50		 push	 eax
  0015c	8b 45 f8	 mov	 eax, DWORD PTR _iYPos$[ebp]
  0015f	83 ec 0c	 sub	 esp, 12			; 0000000cH
  00162	f3 0f 11 44 24
	08		 movss	 DWORD PTR [esp+8], xmm0
  00168	83 c0 08	 add	 eax, 8
  0016b	0f 57 c0	 xorps	 xmm0, xmm0
  0016e	f3 0f 2a c0	 cvtsi2ss xmm0, eax
  00172	f3 0f 11 44 24
	04		 movss	 DWORD PTR [esp+4], xmm0
  00178	f3 0f 10 45 fc	 movss	 xmm0, DWORD PTR tv359[ebp]
  0017d	f3 0f 11 04 24	 movss	 DWORD PTR [esp], xmm0
  00182	ff d6		 call	 esi
  00184	50		 push	 eax
  00185	ff 15 00 00 00
	00		 call	 DWORD PTR __imp_?PrintText@ioFontManager@@QAAXMMMPBDZZ
  0018b	83 c4 14	 add	 esp, 20			; 00000014H

; 749  : 		g_FontMgr.PrintText( iXPos + 17, iYPos + 28,  FONT_SIZE_13, STR(6));

  0018e	6a 00		 push	 0
  00190	6a 06		 push	 6
$LN16@OnRender:
  00192	53		 push	 ebx
  00193	57		 push	 edi
  00194	ff 15 00 00 00
	00		 call	 DWORD PTR __imp_?GetSingleton@ioStringManager@@SAAAV1@XZ
  0019a	8b c8		 mov	 ecx, eax
  0019c	ff 15 00 00 00
	00		 call	 DWORD PTR __imp_?GetString@ioStringManager@@QAEPADPBD0HW4FileNamePrefix@1@@Z
  001a2	f3 0f 10 05 00
	00 00 00	 movss	 xmm0, DWORD PTR __real@3f266666
  001aa	50		 push	 eax
  001ab	8b 45 f8	 mov	 eax, DWORD PTR _iYPos$[ebp]
  001ae	83 ec 0c	 sub	 esp, 12			; 0000000cH
  001b1	f3 0f 11 44 24
	08		 movss	 DWORD PTR [esp+8], xmm0
  001b7	0f 57 c0	 xorps	 xmm0, xmm0
  001ba	83 c0 1c	 add	 eax, 28			; 0000001cH
  001bd	f3 0f 2a c0	 cvtsi2ss xmm0, eax
  001c1	f3 0f 11 44 24
	04		 movss	 DWORD PTR [esp+4], xmm0
  001c7	f3 0f 10 45 fc	 movss	 xmm0, DWORD PTR tv359[ebp]
  001cc	f3 0f 11 04 24	 movss	 DWORD PTR [esp], xmm0
  001d1	ff d6		 call	 esi
  001d3	50		 push	 eax
  001d4	ff 15 00 00 00
	00		 call	 DWORD PTR __imp_?PrintText@ioFontManager@@QAAXMMMPBDZZ

; 750  : 	}
; 751  : 
; 752  : 	// arrow animation
; 753  : 	if( m_pArrow )

  001da	8b 75 f0	 mov	 esi, DWORD PTR _this$[ebp]

; 754  : 	{
; 755  : 		enum { FRONT_X = 86, BACK_X = 78, Y_POS = 19, };
; 756  : 		m_pArrow->Render( iXPos + BACK_X, iYPos + Y_POS );

  001dd	8b 5d f4	 mov	 ebx, DWORD PTR _iXPos$[ebp]
  001e0	33 ff		 xor	 edi, edi
  001e2	83 c4 14	 add	 esp, 20			; 00000014H
  001e5	39 be c0 01 00
	00		 cmp	 DWORD PTR [esi+448], edi
  001eb	0f 84 bf 00 00
	00		 je	 $LN1@OnRender
  001f1	8b 8e c0 01 00
	00		 mov	 ecx, DWORD PTR [esi+448]
  001f7	8b 45 f8	 mov	 eax, DWORD PTR _iYPos$[ebp]
  001fa	57		 push	 edi
  001fb	57		 push	 edi
  001fc	57		 push	 edi
  001fd	83 c0 13	 add	 eax, 19			; 00000013H
  00200	57		 push	 edi
  00201	0f 57 c0	 xorps	 xmm0, xmm0
  00204	f3 0f 2a c0	 cvtsi2ss xmm0, eax
  00208	51		 push	 ecx
  00209	8d 43 4e	 lea	 eax, DWORD PTR [ebx+78]
  0020c	51		 push	 ecx
  0020d	0f 57 c9	 xorps	 xmm1, xmm1
  00210	f3 0f 2a c8	 cvtsi2ss xmm1, eax
  00214	8b 01		 mov	 eax, DWORD PTR [ecx]
  00216	f3 0f 11 44 24
	04		 movss	 DWORD PTR [esp+4], xmm0
  0021c	f3 0f 11 45 fc	 movss	 DWORD PTR tv372[ebp], xmm0
  00221	f3 0f 11 4d f4	 movss	 DWORD PTR tv374[ebp], xmm1
  00226	f3 0f 11 0c 24	 movss	 DWORD PTR [esp], xmm1
  0022b	ff 10		 call	 DWORD PTR [eax]

; 757  : 		m_pArrow->Render( iXPos + FRONT_X, iYPos + Y_POS );

  0022d	8b 8e c0 01 00
	00		 mov	 ecx, DWORD PTR [esi+448]
  00233	f3 0f 10 4d fc	 movss	 xmm1, DWORD PTR tv372[ebp]
  00238	57		 push	 edi
  00239	57		 push	 edi
  0023a	57		 push	 edi
  0023b	57		 push	 edi
  0023c	51		 push	 ecx
  0023d	8d 43 56	 lea	 eax, DWORD PTR [ebx+86]
  00240	51		 push	 ecx
  00241	0f 57 c0	 xorps	 xmm0, xmm0
  00244	f3 0f 2a c0	 cvtsi2ss xmm0, eax
  00248	8b 01		 mov	 eax, DWORD PTR [ecx]
  0024a	f3 0f 11 4c 24
	04		 movss	 DWORD PTR [esp+4], xmm1
  00250	f3 0f 11 45 f0	 movss	 DWORD PTR tv382[ebp], xmm0
  00255	f3 0f 11 04 24	 movss	 DWORD PTR [esp], xmm0
  0025a	ff 10		 call	 DWORD PTR [eax]

; 758  : 
; 759  : 		if( m_AniState.GetCurState() == AT_FRONT )

  0025c	8b 86 74 01 00
	00		 mov	 eax, DWORD PTR [esi+372]
  00262	83 f8 01	 cmp	 eax, 1
  00265	75 1e		 jne	 SHORT $LN3@OnRender

; 760  : 			m_pArrow->Render( iXPos + FRONT_X, iYPos + Y_POS , UI_RENDER_SCREEN );

  00267	8b 8e c0 01 00
	00		 mov	 ecx, DWORD PTR [esi+448]
  0026d	f3 0f 10 45 fc	 movss	 xmm0, DWORD PTR tv372[ebp]
  00272	57		 push	 edi
  00273	57		 push	 edi
  00274	57		 push	 edi
  00275	50		 push	 eax
  00276	51		 push	 ecx
  00277	51		 push	 ecx
  00278	f3 0f 11 44 24
	04		 movss	 DWORD PTR [esp+4], xmm0
  0027e	f3 0f 10 45 f0	 movss	 xmm0, DWORD PTR tv382[ebp]
  00283	eb 22		 jmp	 SHORT $LN17@OnRender
$LN3@OnRender:

; 761  : 		else if( m_AniState.GetCurState() == AT_BACK )

  00285	83 f8 02	 cmp	 eax, 2
  00288	75 26		 jne	 SHORT $LN1@OnRender

; 762  : 			m_pArrow->Render( iXPos + BACK_X, iYPos + Y_POS , UI_RENDER_SCREEN );

  0028a	8b 8e c0 01 00
	00		 mov	 ecx, DWORD PTR [esi+448]
  00290	f3 0f 10 45 fc	 movss	 xmm0, DWORD PTR tv372[ebp]
  00295	57		 push	 edi
  00296	57		 push	 edi
  00297	57		 push	 edi
  00298	6a 01		 push	 1
  0029a	51		 push	 ecx
  0029b	51		 push	 ecx
  0029c	f3 0f 11 44 24
	04		 movss	 DWORD PTR [esp+4], xmm0
  002a2	f3 0f 10 45 f4	 movss	 xmm0, DWORD PTR tv374[ebp]
$LN17@OnRender:
  002a7	8b 01		 mov	 eax, DWORD PTR [ecx]
  002a9	f3 0f 11 04 24	 movss	 DWORD PTR [esp], xmm0
  002ae	ff 10		 call	 DWORD PTR [eax]
$LN1@OnRender:

; 763  : 	}
; 764  : 
; 765  : 	// big arrow animation
; 766  : 	RenderBigArrow( iXPos, iYPos );

  002b0	ff 75 f8	 push	 DWORD PTR _iYPos$[ebp]
  002b3	8b ce		 mov	 ecx, esi
  002b5	53		 push	 ebx
  002b6	e8 00 00 00 00	 call	 ?RenderBigArrow@SoldierExerciseWnd@@IAEXHH@Z ; SoldierExerciseWnd::RenderBigArrow
  002bb	5f		 pop	 edi
  002bc	5e		 pop	 esi
  002bd	5b		 pop	 ebx

; 767  : }

  002be	c9		 leave
  002bf	c3		 ret	 0
?OnRender@SoldierExerciseWnd@@MAEXXZ ENDP		; SoldierExerciseWnd::OnRender
_TEXT	ENDS
PUBLIC	__$ArrayPad$
PUBLIC	?ParseExtraInfo@SoldierExerciseWnd@@UAEXAAVioXMLElement@@@Z ; SoldierExerciseWnd::ParseExtraInfo
; Function compile flags: /Ogsp
;	COMDAT ?ParseExtraInfo@SoldierExerciseWnd@@UAEXAAVioXMLElement@@@Z
_TEXT	SEGMENT
__k$558669 = -20					; size = 11
__k$558544 = -20					; size = 9
__$ArrayPad$ = -4					; size = 4
_xElement$ = 8						; size = 4
?ParseExtraInfo@SoldierExerciseWnd@@UAEXAAVioXMLElement@@@Z PROC ; SoldierExerciseWnd::ParseExtraInfo, COMDAT
; _this$ = ecx

; 958  : {

  00000	55		 push	 ebp
  00001	8b ec		 mov	 ebp, esp
  00003	83 ec 14	 sub	 esp, 20			; 00000014H
  00006	a1 00 00 00 00	 mov	 eax, DWORD PTR ___security_cookie
  0000b	33 c5		 xor	 eax, ebp
  0000d	89 45 fc	 mov	 DWORD PTR __$ArrayPad$[ebp], eax
  00010	53		 push	 ebx
  00011	8b 5d 08	 mov	 ebx, DWORD PTR _xElement$[ebp]
  00014	56		 push	 esi
  00015	57		 push	 edi

; 959  : 	m_bArrow                = xElement.GetBoolAttribute_e( "UseArrow" );

  00016	6a 02		 push	 2
  00018	8b f9		 mov	 edi, ecx
  0001a	c7 45 ec b8 9f
	8e ab		 mov	 DWORD PTR __k$558544[ebp], -1416716360 ; ab8e9fb8H
  00021	c7 45 f0 9f 9e
	84 9d		 mov	 DWORD PTR __k$558544[ebp+4], -1652253025 ; 9d849e9fH
  00028	8d 45 ec	 lea	 eax, DWORD PTR __k$558544[ebp]
  0002b	c6 45 f4 00	 mov	 BYTE PTR __k$558544[ebp+8], 0
  0002f	59		 pop	 ecx
  00030	be ed ec eb ea	 mov	 esi, -353637139		; eaebecedH
$LL106@ParseExtra@2:
  00035	31 30		 xor	 DWORD PTR [eax], esi
  00037	83 c0 04	 add	 eax, 4
  0003a	49		 dec	 ecx
  0003b	75 f8		 jne	 SHORT $LL106@ParseExtra@2
  0003d	8d 45 ec	 lea	 eax, DWORD PTR __k$558544[ebp]
  00040	50		 push	 eax
  00041	8b cb		 mov	 ecx, ebx
  00043	ff 15 00 00 00
	00		 call	 DWORD PTR __imp_?GetBoolAttribute@ioXMLElement@@QBE_NPBD@Z
  00049	6a 02		 push	 2
  0004b	88 87 d8 01 00
	00		 mov	 BYTE PTR [edi+472], al

; 960  : 	m_iDownHeight           = xElement.GetIntAttribute_e( "DownHeight" );

  00051	c7 45 ec a9 83
	9c 84		 mov	 DWORD PTR __k$558669[ebp], -2070117463 ; 849c83a9H
  00058	c7 45 f0 a5 89
	82 8d		 mov	 DWORD PTR __k$558669[ebp+4], -1920824923 ; 8d8289a5H
  0005f	66 c7 45 f4 85
	98		 mov	 WORD PTR __k$558669[ebp+8], 39045 ; 00009885H
  00065	8d 45 ec	 lea	 eax, DWORD PTR __k$558669[ebp]
  00068	c6 45 f6 00	 mov	 BYTE PTR __k$558669[ebp+10], 0
  0006c	59		 pop	 ecx
$LL212@ParseExtra@2:
  0006d	31 30		 xor	 DWORD PTR [eax], esi
  0006f	83 c0 04	 add	 eax, 4
  00072	49		 dec	 ecx
  00073	75 f8		 jne	 SHORT $LL212@ParseExtra@2
  00075	6a 08		 push	 8
  00077	5e		 pop	 esi
$LL209@ParseExtra@2:
  00078	8b c6		 mov	 eax, esi
  0007a	25 03 00 00 80	 and	 eax, -2147483645	; 80000003H
  0007f	79 05		 jns	 SHORT $LN223@ParseExtra@2
  00081	48		 dec	 eax
  00082	83 c8 fc	 or	 eax, -4			; fffffffcH
  00085	40		 inc	 eax
$LN223@ParseExtra@2:
  00086	b1 ed		 mov	 cl, -19			; ffffffedH
  00088	2a c8		 sub	 cl, al
  0008a	30 4c 35 ec	 xor	 BYTE PTR __k$558669[ebp+esi], cl
  0008e	46		 inc	 esi
  0008f	83 fe 0a	 cmp	 esi, 10			; 0000000aH
  00092	7c e4		 jl	 SHORT $LL209@ParseExtra@2
  00094	8d 45 ec	 lea	 eax, DWORD PTR __k$558669[ebp]
  00097	50		 push	 eax
  00098	8b cb		 mov	 ecx, ebx
  0009a	ff 15 00 00 00
	00		 call	 DWORD PTR __imp_?GetIntAttribute@ioXMLElement@@QBEHPBD@Z

; 961  : }

  000a0	8b 4d fc	 mov	 ecx, DWORD PTR __$ArrayPad$[ebp]
  000a3	89 87 dc 01 00
	00		 mov	 DWORD PTR [edi+476], eax
  000a9	5f		 pop	 edi
  000aa	5e		 pop	 esi
  000ab	33 cd		 xor	 ecx, ebp
  000ad	5b		 pop	 ebx
  000ae	e8 00 00 00 00	 call	 @__security_check_cookie@4
  000b3	c9		 leave
  000b4	c2 04 00	 ret	 4
?ParseExtraInfo@SoldierExerciseWnd@@UAEXAAVioXMLElement@@@Z ENDP ; SoldierExerciseWnd::ParseExtraInfo
_TEXT	ENDS
PUBLIC	??_C@_0CE@IMOGHCGL@SoldierExerciseWnd?3?3_UpdateChild@ ; `string'
PUBLIC	?_UpdateChildPos@SoldierExerciseWnd@@IAEXHH@Z	; SoldierExerciseWnd::_UpdateChildPos
EXTRN	?GetClassArray@ioMyInfo@@QAEHH@Z:PROC		; ioMyInfo::GetClassArray
EXTRN	?GetMySoldierIcon@ioMyInfo@@QAEPAVioUIRenderImage@@H@Z:PROC ; ioMyInfo::GetMySoldierIcon
EXTRN	?GetItemConst@ioItemMaker@@QBEPBVioItem@@KABVioHashString@@@Z:PROC ; ioItemMaker::GetItemConst
EXTRN	?GetSingleton@ioItemMaker@@SAAAV1@XZ:PROC	; ioItemMaker::GetSingleton
EXTRN	?GetSetItemCode@ioSetItemInfo@@QBEKH@Z:PROC	; ioSetItemInfo::GetSetItemCode
EXTRN	?GetSetInfoByIdx@ioSetItemInfoManager@@QBEPBVioSetItemInfo@@H@Z:PROC ; ioSetItemInfoManager::GetSetInfoByIdx
;	COMDAT ??_C@_0CE@IMOGHCGL@SoldierExerciseWnd?3?3_UpdateChild@
CONST	SEGMENT
??_C@_0CE@IMOGHCGL@SoldierExerciseWnd?3?3_UpdateChild@ DB 'SoldierExercis'
	DB	'eWnd::_UpdateChildPos', 00H			; `string'
CONST	ENDS
;	COMDAT xdata$x
xdata$x	SEGMENT
__unwindtable$?_UpdateChildPos@SoldierExerciseWnd@@IAEXHH@Z DD 0ffffffffH
	DD	FLAT:__unwindfunclet$?_UpdateChildPos@SoldierExerciseWnd@@IAEXHH@Z$0
__ehfuncinfo$?_UpdateChildPos@SoldierExerciseWnd@@IAEXHH@Z DD 019930522H
	DD	01H
	DD	FLAT:__unwindtable$?_UpdateChildPos@SoldierExerciseWnd@@IAEXHH@Z
	DD	2 DUP(00H)
	DD	2 DUP(00H)
	DD	00H
	DD	01H
; Function compile flags: /Ogsp
xdata$x	ENDS
;	COMDAT ?_UpdateChildPos@SoldierExerciseWnd@@IAEXHH@Z
_TEXT	SEGMENT
$T558793 = -28						; size = 16
__$EHRec$ = -12						; size = 12
_iArray$ = 8						; size = 4
_pItem$ = 8						; size = 4
_a_iArray$ = 8						; size = 4
_iWndID$ = 12						; size = 4
?_UpdateChildPos@SoldierExerciseWnd@@IAEXHH@Z PROC	; SoldierExerciseWnd::_UpdateChildPos, COMDAT
; _this$ = ecx

; 997  : {

  00000	6a 10		 push	 16			; 00000010H
  00002	b8 00 00 00 00	 mov	 eax, __ehhandler$?_UpdateChildPos@SoldierExerciseWnd@@IAEXHH@Z
  00007	e8 00 00 00 00	 call	 __EH_prolog3
  0000c	8b d9		 mov	 ebx, ecx

; 998  : 	if( !COMPARE( a_iArray, 0, (int) m_vItemInfoList.size()) )

  0000e	33 f6		 xor	 esi, esi
  00010	39 75 08	 cmp	 DWORD PTR _a_iArray$[ebp], esi
  00013	0f 8c 9f 01 00
	00		 jl	 $LN19@UpdateChil
  00019	8b 83 cc 01 00
	00		 mov	 eax, DWORD PTR [ebx+460]
  0001f	2b 83 c8 01 00
	00		 sub	 eax, DWORD PTR [ebx+456]
  00025	6a 2c		 push	 44			; 0000002cH
  00027	99		 cdq
  00028	59		 pop	 ecx
  00029	f7 f9		 idiv	 ecx
  0002b	39 45 08	 cmp	 DWORD PTR _a_iArray$[ebp], eax
  0002e	0f 8d 84 01 00
	00		 jge	 $LN19@UpdateChil

; 1001 : 		return;
; 1002 : 	}
; 1003 : 	int iSetIdx = GetSetIdx( a_iArray );

  00034	ff 75 08	 push	 DWORD PTR _a_iArray$[ebp]
  00037	8b cb		 mov	 ecx, ebx
  00039	e8 00 00 00 00	 call	 ?GetSetIdx@SoldierExerciseWnd@@IAEHH@Z ; SoldierExerciseWnd::GetSetIdx

; 1004 : 	const ioSetItemInfo *pInfo = g_SetItemInfoMgr.GetSetInfoByIdx( iSetIdx );

  0003e	50		 push	 eax
  0003f	e8 00 00 00 00	 call	 ?GetSingeton@ioSetItemInfoManager@@SAAAV1@XZ ; ioSetItemInfoManager::GetSingeton
  00044	8b c8		 mov	 ecx, eax
  00046	e8 00 00 00 00	 call	 ?GetSetInfoByIdx@ioSetItemInfoManager@@QBEPBVioSetItemInfo@@H@Z ; ioSetItemInfoManager::GetSetInfoByIdx
  0004b	8b f8		 mov	 edi, eax

; 1005 : 	if( !pInfo ) return;

  0004d	3b fe		 cmp	 edi, esi
  0004f	0f 84 6d 01 00
	00		 je	 $LN40@UpdateChil

; 1006 : 
; 1007 : 	SoldierExerciseBtn *pItemBtn = dynamic_cast<SoldierExerciseBtn *>( FindChildWnd( iWndID ) );

  00055	56		 push	 esi
  00056	68 00 00 00 00	 push	 OFFSET ??_R0?AVSoldierExerciseBtn@@@8
  0005b	68 00 00 00 00	 push	 OFFSET ??_R0?AVioWnd@@@8
  00060	56		 push	 esi
  00061	ff 75 0c	 push	 DWORD PTR _iWndID$[ebp]
  00064	8b cb		 mov	 ecx, ebx
  00066	ff 15 00 00 00
	00		 call	 DWORD PTR __imp_?FindChildWnd@ioWnd@@QAEPAV1@K@Z
  0006c	50		 push	 eax
  0006d	e8 00 00 00 00	 call	 ___RTDynamicCast
  00072	8b f0		 mov	 esi, eax
  00074	83 c4 14	 add	 esp, 20			; 00000014H

; 1008 : 	if( !pItemBtn ) return;

  00077	85 f6		 test	 esi, esi
  00079	0f 84 43 01 00
	00		 je	 $LN40@UpdateChil

; 1009 : 
; 1010 : 	const ioItem *pItem = g_ItemMaker.GetItemConst( pInfo->GetSetItemCode(0), __FUNCTION__ );

  0007f	68 00 00 00 00	 push	 OFFSET ??_C@_0CE@IMOGHCGL@SoldierExerciseWnd?3?3_UpdateChild@
  00084	8d 4d e4	 lea	 ecx, DWORD PTR $T558793[ebp]
  00087	ff 15 00 00 00
	00		 call	 DWORD PTR __imp_??0ioHashString@@QAE@PBD@Z
  0008d	83 65 fc 00	 and	 DWORD PTR __$EHRec$[ebp+8], 0
  00091	8d 45 e4	 lea	 eax, DWORD PTR $T558793[ebp]
  00094	50		 push	 eax
  00095	6a 00		 push	 0
  00097	8b cf		 mov	 ecx, edi
  00099	e8 00 00 00 00	 call	 ?GetSetItemCode@ioSetItemInfo@@QBEKH@Z ; ioSetItemInfo::GetSetItemCode
  0009e	50		 push	 eax
  0009f	e8 00 00 00 00	 call	 ?GetSingleton@ioItemMaker@@SAAAV1@XZ ; ioItemMaker::GetSingleton
  000a4	8b c8		 mov	 ecx, eax
  000a6	e8 00 00 00 00	 call	 ?GetItemConst@ioItemMaker@@QBEPBVioItem@@KABVioHashString@@@Z ; ioItemMaker::GetItemConst
  000ab	83 4d fc ff	 or	 DWORD PTR __$EHRec$[ebp+8], -1
  000af	8d 4d e4	 lea	 ecx, DWORD PTR $T558793[ebp]
  000b2	89 45 08	 mov	 DWORD PTR _pItem$[ebp], eax
  000b5	ff 15 00 00 00
	00		 call	 DWORD PTR __imp_??1ioHashString@@QAE@XZ

; 1011 : 	if( !pItem ) return;

  000bb	8b 45 08	 mov	 eax, DWORD PTR _pItem$[ebp]
  000be	85 c0		 test	 eax, eax
  000c0	0f 84 fc 00 00
	00		 je	 $LN40@UpdateChil

; 1012 : 
; 1013 : 	char szBuf[MAX_PATH] = "";
; 1014 : 	DWORD dwSoldierType = pItem->GetItemCode() % DEFAULT_BASIC_ITEM_CODE;

  000c6	8b 40 38	 mov	 eax, DWORD PTR [eax+56]
  000c9	33 d2		 xor	 edx, edx
  000cb	b9 a0 86 01 00	 mov	 ecx, 100000		; 000186a0H
  000d0	f7 f1		 div	 ecx

; 1015 : 	ioUIRenderImage *pImg = g_MyInfo.GetMySoldierIcon( dwSoldierType );

  000d2	52		 push	 edx
  000d3	e8 00 00 00 00	 call	 ?GetSingleton@ioMyInfo@@SAAAV1@XZ ; ioMyInfo::GetSingleton
  000d8	8b c8		 mov	 ecx, eax
  000da	e8 00 00 00 00	 call	 ?GetMySoldierIcon@ioMyInfo@@QAEPAVioUIRenderImage@@H@Z ; ioMyInfo::GetMySoldierIcon

; 1016 : 	if( !pImg )

  000df	85 c0		 test	 eax, eax
  000e1	0f 84 db 00 00
	00		 je	 $LN40@UpdateChil

; 1017 : 		return;
; 1018 : 
; 1019 : 	pItemBtn->SetMarkType( pInfo->GetShopMarkType() );

  000e7	8b 4f 6c	 mov	 ecx, DWORD PTR [edi+108]

; 1020 : 
; 1021 : 	if( m_iExerciseStyle == EXERCISE_GENERAL )
; 1022 : 		pItemBtn->SetSoldierIcon( pImg, ICON_SCALE, false );

  000ea	f3 0f 10 05 00
	00 00 00	 movss	 xmm0, DWORD PTR __real@3f266666
  000f2	89 8e a4 02 00
	00		 mov	 DWORD PTR [esi+676], ecx
  000f8	83 bb 64 01 00
	00 01		 cmp	 DWORD PTR [ebx+356], 1
  000ff	75 04		 jne	 SHORT $LN14@UpdateChil
  00101	6a 00		 push	 0

; 1023 : 	else

  00103	eb 02		 jmp	 SHORT $LN44@UpdateChil
$LN14@UpdateChil:

; 1024 : 		pItemBtn->SetSoldierIcon( pImg, ICON_SCALE, true );

  00105	6a 01		 push	 1
$LN44@UpdateChil:
  00107	51		 push	 ecx
  00108	f3 0f 11 04 24	 movss	 DWORD PTR [esp], xmm0
  0010d	50		 push	 eax
  0010e	8b ce		 mov	 ecx, esi
  00110	e8 00 00 00 00	 call	 ?SetSoldierIcon@SoldierExerciseBtn@@QAEXPAVioUIRenderImage@@M_N@Z ; SoldierExerciseBtn::SetSoldierIcon

; 1025 : 	int iClassType = pInfo->GetSetCode() - SET_ITEM_CODE;

  00115	8b 7f 1c	 mov	 edi, DWORD PTR [edi+28]
  00118	81 ef 60 ae 0a
	00		 sub	 edi, 700000		; 000aae60H

; 1026 : 	SoldierExerciseBtn::SoldierBoughtType eBoughtType = SoldierExerciseBtn::SBT_NONE;
; 1027 : 	int iArray = g_MyInfo.GetClassArray( iClassType );

  0011e	57		 push	 edi
  0011f	33 db		 xor	 ebx, ebx
  00121	e8 00 00 00 00	 call	 ?GetSingleton@ioMyInfo@@SAAAV1@XZ ; ioMyInfo::GetSingleton
  00126	8b c8		 mov	 ecx, eax
  00128	e8 00 00 00 00	 call	 ?GetClassArray@ioMyInfo@@QAEHH@Z ; ioMyInfo::GetClassArray
  0012d	89 45 08	 mov	 DWORD PTR _iArray$[ebp], eax

; 1028 : 	if( iArray != -1 )

  00130	83 f8 ff	 cmp	 eax, -1
  00133	74 58		 je	 SHORT $LN5@UpdateChil

; 1029 : 	{
; 1030 : 		if( g_MyInfo.IsCharExerciseStyle( iArray, EXERCISE_GENERAL ) )

  00135	6a 01		 push	 1
  00137	50		 push	 eax
  00138	e8 00 00 00 00	 call	 ?GetSingleton@ioMyInfo@@SAAAV1@XZ ; ioMyInfo::GetSingleton
  0013d	8b c8		 mov	 ecx, eax
  0013f	e8 00 00 00 00	 call	 ?IsCharExerciseStyle@ioMyInfo@@QAE_NHH@Z ; ioMyInfo::IsCharExerciseStyle

; 1031 : 			eBoughtType = SoldierExerciseBtn::SBT_EXERCISE_GENERAL;

  00144	6a 02		 push	 2
  00146	84 c0		 test	 al, al
  00148	75 2a		 jne	 SHORT $LN45@UpdateChil

; 1032 : 		else if( g_MyInfo.IsCharExerciseStyle( iArray, EXERCISE_PCROOM ) )

  0014a	ff 75 08	 push	 DWORD PTR _iArray$[ebp]
  0014d	e8 00 00 00 00	 call	 ?GetSingleton@ioMyInfo@@SAAAV1@XZ ; ioMyInfo::GetSingleton
  00152	8b c8		 mov	 ecx, eax
  00154	e8 00 00 00 00	 call	 ?IsCharExerciseStyle@ioMyInfo@@QAE_NHH@Z ; ioMyInfo::IsCharExerciseStyle

; 1033 : 			eBoughtType = SoldierExerciseBtn::SBT_EXERCISE_PCROOM;

  00159	6a 03		 push	 3
  0015b	84 c0		 test	 al, al
  0015d	75 15		 jne	 SHORT $LN45@UpdateChil

; 1034 : 		else if( g_MyInfo.IsCharExerciseStyle( iArray, EXERCISE_EVENT ) )

  0015f	ff 75 08	 push	 DWORD PTR _iArray$[ebp]
  00162	e8 00 00 00 00	 call	 ?GetSingleton@ioMyInfo@@SAAAV1@XZ ; ioMyInfo::GetSingleton
  00167	8b c8		 mov	 ecx, eax
  00169	e8 00 00 00 00	 call	 ?IsCharExerciseStyle@ioMyInfo@@QAE_NHH@Z ; ioMyInfo::IsCharExerciseStyle
  0016e	84 c0		 test	 al, al
  00170	74 05		 je	 SHORT $LN7@UpdateChil

; 1035 : 			eBoughtType = SoldierExerciseBtn::SBT_EXERCISE_EVENT;

  00172	6a 04		 push	 4
$LN45@UpdateChil:
  00174	5b		 pop	 ebx
  00175	eb 16		 jmp	 SHORT $LN5@UpdateChil
$LN7@UpdateChil:

; 1036 : 		else if( g_MyInfo.IsCharActive( iArray ) )

  00177	ff 75 08	 push	 DWORD PTR _iArray$[ebp]
  0017a	e8 00 00 00 00	 call	 ?GetSingleton@ioMyInfo@@SAAAV1@XZ ; ioMyInfo::GetSingleton
  0017f	8b c8		 mov	 ecx, eax
  00181	e8 00 00 00 00	 call	 ?IsCharActive@ioMyInfo@@QAE_NH@Z ; ioMyInfo::IsCharActive
  00186	84 c0		 test	 al, al
  00188	74 03		 je	 SHORT $LN5@UpdateChil

; 1037 : 			eBoughtType = SoldierExerciseBtn::SBT_BOUGHT;

  0018a	33 db		 xor	 ebx, ebx
  0018c	43		 inc	 ebx
$LN5@UpdateChil:

; 1038 : 	}
; 1039 : 	pItemBtn->SetBoughtType( eBoughtType );
; 1040 : 	pItemBtn->SetClassType( iClassType );
; 1041 : 	pItemBtn->SetActive();

  0018d	8b 06		 mov	 eax, DWORD PTR [esi]
  0018f	8b ce		 mov	 ecx, esi
  00191	89 9e 00 02 00
	00		 mov	 DWORD PTR [esi+512], ebx
  00197	89 be 04 02 00
	00		 mov	 DWORD PTR [esi+516], edi
  0019d	ff 50 20	 call	 DWORD PTR [eax+32]

; 1042 : 	pItemBtn->ShowWnd();	

  001a0	8b ce		 mov	 ecx, esi
  001a2	ff 15 00 00 00
	00		 call	 DWORD PTR __imp_?ShowWnd@ioWnd@@QAEXXZ

; 1043 : 	
; 1044 : 	int iType  = ioSetItemInfo::NLT_NONE;
; 1045 : 	int iLevel = -1;
; 1046 : 	
; 1047 : 	//EventType eEventType = EVT_CHILDRENDAY;
; 1048 : 	EventType eEventType = EVT_EXERCISESOLDIER;
; 1049 : 	if( eEventType == EVT_CHILDRENDAY)
; 1050 : 	{
; 1051 : 		//     
; 1052 : 		if( m_iExerciseStyle == EXERCISE_EVENT && g_EventMgr.GetValue( EVT_CHILDRENDAY, EA_CHILDRENDAY_IS_LIMIT ) == 1 )
; 1053 : 			g_MyInfo.GetNeedLevelInfo( pInfo, iType, iLevel );
; 1054 : 	}
; 1055 : 
; 1056 : 	if( iType == ioSetItemInfo::NLT_NONE )
; 1057 : 		pItemBtn->SetNeedTypeLv( (ioSetItemInfo::NeedLevelType)iType, -1 ); 

  001a8	83 8e 50 02 00
	00 ff		 or	 DWORD PTR [esi+592], -1
  001af	83 8e 08 02 00
	00 ff		 or	 DWORD PTR [esi+520], -1

; 1058 : 	else

  001b6	eb 0a		 jmp	 SHORT $LN40@UpdateChil
$LN19@UpdateChil:

; 999  : 	{
; 1000 : 		SetBlankIcon( iWndID );

  001b8	ff 75 0c	 push	 DWORD PTR _iWndID$[ebp]
  001bb	8b cb		 mov	 ecx, ebx
  001bd	e8 00 00 00 00	 call	 ?SetBlankIcon@SoldierExerciseWnd@@IAEXH@Z ; SoldierExerciseWnd::SetBlankIcon

; 1059 : 		pItemBtn->SetNeedTypeLv( (ioSetItemInfo::NeedLevelType)iType, iLevel );

$LN40@UpdateChil:

; 1060 : }

  001c2	e8 00 00 00 00	 call	 __EH_epilog3
  001c7	c2 08 00	 ret	 8
_TEXT	ENDS
;	COMDAT text$x
text$x	SEGMENT
__unwindfunclet$?_UpdateChildPos@SoldierExerciseWnd@@IAEXHH@Z$0:
  00000	8d 4d e4	 lea	 ecx, DWORD PTR $T558793[ebp]
  00003	ff 25 00 00 00
	00		 jmp	 DWORD PTR __imp_??1ioHashString@@QAE@XZ
__ehhandler$?_UpdateChildPos@SoldierExerciseWnd@@IAEXHH@Z:
  00009	8b 54 24 08	 mov	 edx, DWORD PTR [esp+8]
  0000d	8d 42 0c	 lea	 eax, DWORD PTR [edx+12]
  00010	8b 4a e0	 mov	 ecx, DWORD PTR [edx-32]
  00013	33 c8		 xor	 ecx, eax
  00015	e8 00 00 00 00	 call	 @__security_check_cookie@4
  0001a	b8 00 00 00 00	 mov	 eax, OFFSET __ehfuncinfo$?_UpdateChildPos@SoldierExerciseWnd@@IAEXHH@Z
  0001f	e9 00 00 00 00	 jmp	 ___CxxFrameHandler3
text$x	ENDS
?_UpdateChildPos@SoldierExerciseWnd@@IAEXHH@Z ENDP	; SoldierExerciseWnd::_UpdateChildPos
PUBLIC	?IsCanExerciseChar@SoldierExerciseWnd@@IAE_N_N@Z ; SoldierExerciseWnd::IsCanExerciseChar
EXTRN	?IsCanChangeCharState@ioBaseChar@@QAE_N_N00@Z:PROC ; ioBaseChar::IsCanChangeCharState
EXTRN	?GetCharCount@ioMyInfo@@QBEHXZ:PROC		; ioMyInfo::GetCharCount
; Function compile flags: /Ogsp
;	COMDAT ?IsCanExerciseChar@SoldierExerciseWnd@@IAE_N_N@Z
_TEXT	SEGMENT
_value$558849 = 8					; size = 4
_bSelectWait$ = 8					; size = 1
?IsCanExerciseChar@SoldierExerciseWnd@@IAE_N_N@Z PROC	; SoldierExerciseWnd::IsCanExerciseChar, COMDAT
; _this$ = ecx

; 1068 : {

  00000	55		 push	 ebp
  00001	8b ec		 mov	 ebp, esp

; 1069 : 	if( !m_pPlayStage ) return true;

  00003	8b 89 60 01 00
	00		 mov	 ecx, DWORD PTR [ecx+352]
  00009	85 c9		 test	 ecx, ecx
  0000b	75 04		 jne	 SHORT $LN5@IsCanExerc
  0000d	b0 01		 mov	 al, 1
  0000f	eb 4e		 jmp	 SHORT $LN1@IsCanExerc
$LN5@IsCanExerc:
  00011	56		 push	 esi

; 1070 : 	ioBaseChar *pOwner = m_pPlayStage->GetOwnerChar();

  00012	e8 00 00 00 00	 call	 ?GetOwnerChar@ioPlayStage@@QAEPAVioBaseChar@@XZ ; ioPlayStage::GetOwnerChar
  00017	8b f0		 mov	 esi, eax

; 1071 : 	if( !pOwner ) return true;

  00019	85 f6		 test	 esi, esi
  0001b	74 10		 je	 SHORT $LN13@IsCanExerc

; 1072 : 	if( g_MyInfo.GetCharCount() == 0 ) return true;

  0001d	e8 00 00 00 00	 call	 ?GetSingleton@ioMyInfo@@SAAAV1@XZ ; ioMyInfo::GetSingleton
  00022	8b c8		 mov	 ecx, eax
  00024	e8 00 00 00 00	 call	 ?GetCharCount@ioMyInfo@@QBEHXZ ; ioMyInfo::GetCharCount
  00029	85 c0		 test	 eax, eax
  0002b	75 04		 jne	 SHORT $LN3@IsCanExerc
$LN13@IsCanExerc:
  0002d	b0 01		 mov	 al, 1
  0002f	eb 2d		 jmp	 SHORT $LN12@IsCanExerc
$LN3@IsCanExerc:

; 1073 : 	if( bSelectWait && !pOwner->IsCanChangeCharState( true, false, false ) ) return false;

  00031	80 7d 08 00	 cmp	 BYTE PTR _bSelectWait$[ebp], 0
  00035	74 11		 je	 SHORT $LN2@IsCanExerc
  00037	6a 00		 push	 0
  00039	6a 00		 push	 0
  0003b	6a 01		 push	 1
  0003d	8b ce		 mov	 ecx, esi
  0003f	e8 00 00 00 00	 call	 ?IsCanChangeCharState@ioBaseChar@@QAE_N_N00@Z ; ioBaseChar::IsCanChangeCharState
  00044	84 c0		 test	 al, al
  00046	74 16		 je	 SHORT $LN12@IsCanExerc
$LN2@IsCanExerc:

; 1074 : 
; 1075 : 	if( pOwner->GetExperienceMode() == EMS_CHANGE_EXPERIENCE )

  00048	8d 45 08	 lea	 eax, DWORD PTR _value$558849[ebp]
  0004b	50		 push	 eax
  0004c	8d 8e 94 1d 00
	00		 lea	 ecx, DWORD PTR [esi+7572]
  00052	e8 00 00 00 00	 call	 ?DecryptValueToPool@?$CEncrypt@K@@QAEXPAK@Z ; CEncrypt<unsigned long>::DecryptValueToPool
  00057	83 7d 08 01	 cmp	 DWORD PTR _value$558849[ebp], 1
  0005b	0f 95 c0	 setne	 al
$LN12@IsCanExerc:
  0005e	5e		 pop	 esi
$LN1@IsCanExerc:

; 1076 : 		return false;
; 1077 : 
; 1078 : 	return true;
; 1079 : }

  0005f	5d		 pop	 ebp
  00060	c2 04 00	 ret	 4
?IsCanExerciseChar@SoldierExerciseWnd@@IAE_N_N@Z ENDP	; SoldierExerciseWnd::IsCanExerciseChar
_TEXT	ENDS
PUBLIC	__real@3f59999a
PUBLIC	_pImage$GSCopy$
PUBLIC	_this$GSCopy$
PUBLIC	__$ArrayPad$
PUBLIC	?AddRenderImage@SoldierExerciseWnd@@MAEXABVioHashString@@PAVioUIRenderImage@@@Z ; SoldierExerciseWnd::AddRenderImage
EXTRN	__imp_?AddRenderImage@ioWnd@@UAEXABVioHashString@@PAVioUIRenderImage@@@Z:PROC
;	COMDAT __real@3f59999a
; File d:\lost saga for developer\youtube\tutorial\source\src\lsclient\stringprotect.h
CONST	SEGMENT
__real@3f59999a DD 03f59999ar			; 0.85
; Function compile flags: /Ogsp
; File d:\lost saga for developer\youtube\tutorial\source\src\lsclient\gui\soldierexercisewnd.cpp
CONST	ENDS
;	COMDAT ?AddRenderImage@SoldierExerciseWnd@@MAEXABVioHashString@@PAVioUIRenderImage@@@Z
_TEXT	SEGMENT
_pImage$GSCopy$ = -28					; size = 4
_this$GSCopy$ = -24					; size = 4
__t$559068 = -20					; size = 9
__t$558932 = -20					; size = 6
__$ArrayPad$ = -4					; size = 4
_szType$ = 8						; size = 4
_pImage$ = 12						; size = 4
?AddRenderImage@SoldierExerciseWnd@@MAEXABVioHashString@@PAVioUIRenderImage@@@Z PROC ; SoldierExerciseWnd::AddRenderImage, COMDAT
; _this$ = ecx

; 1298 : {

  00000	55		 push	 ebp
  00001	8b ec		 mov	 ebp, esp
  00003	83 ec 1c	 sub	 esp, 28			; 0000001cH
  00006	a1 00 00 00 00	 mov	 eax, DWORD PTR ___security_cookie
  0000b	33 c5		 xor	 eax, ebp
  0000d	89 45 fc	 mov	 DWORD PTR __$ArrayPad$[ebp], eax
  00010	8b 45 0c	 mov	 eax, DWORD PTR _pImage$[ebp]
  00013	53		 push	 ebx
  00014	8b 5d 08	 mov	 ebx, DWORD PTR _szType$[ebp]
  00017	56		 push	 esi
  00018	57		 push	 edi
  00019	89 4d e8	 mov	 DWORD PTR _this$GSCopy$[ebp], ecx

; 1299 : 	if( szType == "Arrow" )

  0001c	bf ed ec eb ea	 mov	 edi, -353637139		; eaebecedH
  00021	c7 45 ec ac 9e
	99 85		 mov	 DWORD PTR __t$558932[ebp], -2053529940 ; 85999eacH
  00028	31 7d ec	 xor	 DWORD PTR __t$558932[ebp], edi
  0002b	8b cb		 mov	 ecx, ebx

; 1312 : 		ioWnd::AddRenderImage( szType, pImage );

  0002d	89 45 e4	 mov	 DWORD PTR _pImage$GSCopy$[ebp], eax
  00030	66 c7 45 f0 77
	00		 mov	 WORD PTR __t$558932[ebp+4], 119 ; 00000077H
  00036	8d 75 ec	 lea	 esi, DWORD PTR __t$558932[ebp]
  00039	ff 15 00 00 00
	00		 call	 DWORD PTR __imp_?c_str@ioHashString@@QBEPBDXZ
$LL235@AddRenderI@2:

; 1299 : 	if( szType == "Arrow" )

  0003f	8a 08		 mov	 cl, BYTE PTR [eax]
  00041	3a 0e		 cmp	 cl, BYTE PTR [esi]
  00043	75 1a		 jne	 SHORT $LN236@AddRenderI@2
  00045	84 c9		 test	 cl, cl
  00047	74 12		 je	 SHORT $LN237@AddRenderI@2
  00049	8a 48 01	 mov	 cl, BYTE PTR [eax+1]
  0004c	3a 4e 01	 cmp	 cl, BYTE PTR [esi+1]
  0004f	75 0e		 jne	 SHORT $LN236@AddRenderI@2
  00051	83 c0 02	 add	 eax, 2
  00054	83 c6 02	 add	 esi, 2
  00057	84 c9		 test	 cl, cl
  00059	75 e4		 jne	 SHORT $LL235@AddRenderI@2
$LN237@AddRenderI@2:
  0005b	33 c0		 xor	 eax, eax
  0005d	eb 05		 jmp	 SHORT $LN238@AddRenderI@2
$LN236@AddRenderI@2:
  0005f	1b c0		 sbb	 eax, eax
  00061	83 d8 ff	 sbb	 eax, -1
$LN238@AddRenderI@2:
  00064	85 c0		 test	 eax, eax
  00066	75 29		 jne	 SHORT $LN234@AddRenderI@2

; 1300 : 	{
; 1301 : 		SAFEDELETE( m_pArrow );

  00068	8b 75 e8	 mov	 esi, DWORD PTR _this$GSCopy$[ebp]
  0006b	8b 8e c0 01 00
	00		 mov	 ecx, DWORD PTR [esi+448]
  00071	85 c9		 test	 ecx, ecx
  00073	74 0e		 je	 SHORT $LN6@AddRenderI@2
  00075	8b 01		 mov	 eax, DWORD PTR [ecx]
  00077	6a 01		 push	 1
  00079	ff 50 40	 call	 DWORD PTR [eax+64]
  0007c	83 a6 c0 01 00
	00 00		 and	 DWORD PTR [esi+448], 0
$LN6@AddRenderI@2:

; 1302 : 		m_pArrow = pImage;

  00083	8b 45 e4	 mov	 eax, DWORD PTR _pImage$GSCopy$[ebp]
  00086	89 86 c0 01 00
	00		 mov	 DWORD PTR [esi+448], eax
  0008c	e9 9e 00 00 00	 jmp	 $LN1@AddRenderI@2
$LN234@AddRenderI@2:

; 1303 : 	}
; 1304 : 	else if( szType == "BigArrow" )

  00091	6a 02		 push	 2
  00093	c7 45 ec af 85
	8c ab		 mov	 DWORD PTR __t$559068[ebp], -1416854097 ; ab8c85afH
  0009a	c7 45 f0 9f 9e
	84 9d		 mov	 DWORD PTR __t$559068[ebp+4], -1652253025 ; 9d849e9fH
  000a1	8d 45 ec	 lea	 eax, DWORD PTR __t$559068[ebp]
  000a4	c6 45 f4 00	 mov	 BYTE PTR __t$559068[ebp+8], 0
  000a8	59		 pop	 ecx
$LL223@AddRenderI@2:
  000a9	31 38		 xor	 DWORD PTR [eax], edi
  000ab	83 c0 04	 add	 eax, 4
  000ae	49		 dec	 ecx
  000af	75 f8		 jne	 SHORT $LL223@AddRenderI@2
  000b1	8b cb		 mov	 ecx, ebx
  000b3	8d 75 ec	 lea	 esi, DWORD PTR __t$559068[ebp]
  000b6	ff 15 00 00 00
	00		 call	 DWORD PTR __imp_?c_str@ioHashString@@QBEPBDXZ
$LL239@AddRenderI@2:
  000bc	8a 08		 mov	 cl, BYTE PTR [eax]
  000be	3a 0e		 cmp	 cl, BYTE PTR [esi]
  000c0	75 1a		 jne	 SHORT $LN240@AddRenderI@2
  000c2	84 c9		 test	 cl, cl
  000c4	74 12		 je	 SHORT $LN241@AddRenderI@2
  000c6	8a 48 01	 mov	 cl, BYTE PTR [eax+1]
  000c9	3a 4e 01	 cmp	 cl, BYTE PTR [esi+1]
  000cc	75 0e		 jne	 SHORT $LN240@AddRenderI@2
  000ce	83 c0 02	 add	 eax, 2
  000d1	83 c6 02	 add	 esi, 2
  000d4	84 c9		 test	 cl, cl
  000d6	75 e4		 jne	 SHORT $LL239@AddRenderI@2
$LN241@AddRenderI@2:
  000d8	33 c0		 xor	 eax, eax
  000da	eb 05		 jmp	 SHORT $LN242@AddRenderI@2
$LN240@AddRenderI@2:
  000dc	1b c0		 sbb	 eax, eax
  000de	83 d8 ff	 sbb	 eax, -1
$LN242@AddRenderI@2:
  000e1	85 c0		 test	 eax, eax
  000e3	75 3d		 jne	 SHORT $LN4@AddRenderI@2

; 1305 : 	{
; 1306 : 		SAFEDELETE( m_pBigArrow );

  000e5	8b 75 e8	 mov	 esi, DWORD PTR _this$GSCopy$[ebp]
  000e8	8b 8e c4 01 00
	00		 mov	 ecx, DWORD PTR [esi+452]
  000ee	85 c9		 test	 ecx, ecx
  000f0	74 0e		 je	 SHORT $LN3@AddRenderI@2
  000f2	8b 01		 mov	 eax, DWORD PTR [ecx]
  000f4	6a 01		 push	 1
  000f6	ff 50 40	 call	 DWORD PTR [eax+64]
  000f9	83 a6 c4 01 00
	00 00		 and	 DWORD PTR [esi+452], 0
$LN3@AddRenderI@2:

; 1307 : 		m_pBigArrow = pImage;

  00100	8b 4d e4	 mov	 ecx, DWORD PTR _pImage$GSCopy$[ebp]
  00103	89 8e c4 01 00
	00		 mov	 DWORD PTR [esi+452], ecx

; 1308 : 		if( m_pBigArrow )

  00109	85 c9		 test	 ecx, ecx
  0010b	74 22		 je	 SHORT $LN1@AddRenderI@2

; 1309 : 			m_pBigArrow->SetScale( BIGARROW_SCALE );

  0010d	f3 0f 10 05 00
	00 00 00	 movss	 xmm0, DWORD PTR __real@3f59999a
  00115	8b 01		 mov	 eax, DWORD PTR [ecx]
  00117	51		 push	 ecx
  00118	f3 0f 11 04 24	 movss	 DWORD PTR [esp], xmm0
  0011d	ff 50 1c	 call	 DWORD PTR [eax+28]

; 1310 : 	}
; 1311 : 	else

  00120	eb 0d		 jmp	 SHORT $LN1@AddRenderI@2
$LN4@AddRenderI@2:

; 1312 : 		ioWnd::AddRenderImage( szType, pImage );

  00122	ff 75 e4	 push	 DWORD PTR _pImage$GSCopy$[ebp]
  00125	8b 4d e8	 mov	 ecx, DWORD PTR _this$GSCopy$[ebp]
  00128	53		 push	 ebx
  00129	ff 15 00 00 00
	00		 call	 DWORD PTR __imp_?AddRenderImage@ioWnd@@UAEXABVioHashString@@PAVioUIRenderImage@@@Z
$LN1@AddRenderI@2:

; 1313 : }

  0012f	8b 4d fc	 mov	 ecx, DWORD PTR __$ArrayPad$[ebp]
  00132	5f		 pop	 edi
  00133	5e		 pop	 esi
  00134	33 cd		 xor	 ecx, ebp
  00136	5b		 pop	 ebx
  00137	e8 00 00 00 00	 call	 @__security_check_cookie@4
  0013c	c9		 leave
  0013d	c2 08 00	 ret	 8
?AddRenderImage@SoldierExerciseWnd@@MAEXABVioHashString@@PAVioUIRenderImage@@@Z ENDP ; SoldierExerciseWnd::AddRenderImage
_TEXT	ENDS
PUBLIC	?begin@?$vector@PAVioUIRenderElement@@V?$allocator@PAVioUIRenderElement@@@std@@@std@@QAE?AV?$_Vector_iterator@V?$_Vector_val@PAVioUIRenderElement@@V?$allocator@PAVioUIRenderElement@@@std@@@std@@@2@XZ ; std::vector<ioUIRenderElement *,std::allocator<ioUIRenderElement *> >::begin
; Function compile flags: /Ogsp
; File c:\program files (x86)\microsoft visual studio 10.0\vc\include\vector
;	COMDAT ?begin@?$vector@PAVioUIRenderElement@@V?$allocator@PAVioUIRenderElement@@@std@@@std@@QAE?AV?$_Vector_iterator@V?$_Vector_val@PAVioUIRenderElement@@V?$allocator@PAVioUIRenderElement@@@std@@@std@@@2@XZ
_TEXT	SEGMENT
___$ReturnUdt$ = 8					; size = 4
?begin@?$vector@PAVioUIRenderElement@@V?$allocator@PAVioUIRenderElement@@@std@@@std@@QAE?AV?$_Vector_iterator@V?$_Vector_val@PAVioUIRenderElement@@V?$allocator@PAVioUIRenderElement@@@std@@@std@@@2@XZ PROC ; std::vector<ioUIRenderElement *,std::allocator<ioUIRenderElement *> >::begin, COMDAT
; _this$ = ecx

; 781  : 		{	// return iterator for beginning of mutable sequence

  00000	55		 push	 ebp
  00001	8b ec		 mov	 ebp, esp

; 782  : 		return (iterator(this->_Myfirst, this));

  00003	8b 09		 mov	 ecx, DWORD PTR [ecx]
  00005	8b 45 08	 mov	 eax, DWORD PTR ___$ReturnUdt$[ebp]
  00008	89 08		 mov	 DWORD PTR [eax], ecx

; 783  : 		}

  0000a	5d		 pop	 ebp
  0000b	c2 04 00	 ret	 4
?begin@?$vector@PAVioUIRenderElement@@V?$allocator@PAVioUIRenderElement@@@std@@@std@@QAE?AV?$_Vector_iterator@V?$_Vector_val@PAVioUIRenderElement@@V?$allocator@PAVioUIRenderElement@@@std@@@std@@@2@XZ ENDP ; std::vector<ioUIRenderElement *,std::allocator<ioUIRenderElement *> >::begin
_TEXT	ENDS
PUBLIC	?end@?$vector@PAVioUIRenderElement@@V?$allocator@PAVioUIRenderElement@@@std@@@std@@QAE?AV?$_Vector_iterator@V?$_Vector_val@PAVioUIRenderElement@@V?$allocator@PAVioUIRenderElement@@@std@@@std@@@2@XZ ; std::vector<ioUIRenderElement *,std::allocator<ioUIRenderElement *> >::end
; Function compile flags: /Ogsp
;	COMDAT ?end@?$vector@PAVioUIRenderElement@@V?$allocator@PAVioUIRenderElement@@@std@@@std@@QAE?AV?$_Vector_iterator@V?$_Vector_val@PAVioUIRenderElement@@V?$allocator@PAVioUIRenderElement@@@std@@@std@@@2@XZ
_TEXT	SEGMENT
___$ReturnUdt$ = 8					; size = 4
?end@?$vector@PAVioUIRenderElement@@V?$allocator@PAVioUIRenderElement@@@std@@@std@@QAE?AV?$_Vector_iterator@V?$_Vector_val@PAVioUIRenderElement@@V?$allocator@PAVioUIRenderElement@@@std@@@std@@@2@XZ PROC ; std::vector<ioUIRenderElement *,std::allocator<ioUIRenderElement *> >::end, COMDAT
; _this$ = ecx

; 791  : 		{	// return iterator for end of mutable sequence

  00000	55		 push	 ebp
  00001	8b ec		 mov	 ebp, esp

; 792  : 		return (iterator(this->_Mylast, this));

  00003	8b 49 04	 mov	 ecx, DWORD PTR [ecx+4]
  00006	8b 45 08	 mov	 eax, DWORD PTR ___$ReturnUdt$[ebp]
  00009	89 08		 mov	 DWORD PTR [eax], ecx

; 793  : 		}

  0000b	5d		 pop	 ebp
  0000c	c2 04 00	 ret	 4
?end@?$vector@PAVioUIRenderElement@@V?$allocator@PAVioUIRenderElement@@@std@@@std@@QAE?AV?$_Vector_iterator@V?$_Vector_val@PAVioUIRenderElement@@V?$allocator@PAVioUIRenderElement@@@std@@@std@@@2@XZ ENDP ; std::vector<ioUIRenderElement *,std::allocator<ioUIRenderElement *> >::end
_TEXT	ENDS
PUBLIC	??0?$vector@UtagShopItemInfo@@V?$allocator@UtagShopItemInfo@@@std@@@std@@QAE@XZ ; std::vector<tagShopItemInfo,std::allocator<tagShopItemInfo> >::vector<tagShopItemInfo,std::allocator<tagShopItemInfo> >
; Function compile flags: /Ogsp
;	COMDAT ??0?$vector@UtagShopItemInfo@@V?$allocator@UtagShopItemInfo@@@std@@@std@@QAE@XZ
_TEXT	SEGMENT
??0?$vector@UtagShopItemInfo@@V?$allocator@UtagShopItemInfo@@@std@@@std@@QAE@XZ PROC ; std::vector<tagShopItemInfo,std::allocator<tagShopItemInfo> >::vector<tagShopItemInfo,std::allocator<tagShopItemInfo> >, COMDAT
; _this$ = ecx

; 507  : 		{	// construct empty vector

  00000	8b c1		 mov	 eax, ecx
  00002	33 c9		 xor	 ecx, ecx
  00004	89 08		 mov	 DWORD PTR [eax], ecx
  00006	89 48 04	 mov	 DWORD PTR [eax+4], ecx
  00009	89 48 08	 mov	 DWORD PTR [eax+8], ecx

; 508  : 		}

  0000c	c3		 ret	 0
??0?$vector@UtagShopItemInfo@@V?$allocator@UtagShopItemInfo@@@std@@@std@@QAE@XZ ENDP ; std::vector<tagShopItemInfo,std::allocator<tagShopItemInfo> >::vector<tagShopItemInfo,std::allocator<tagShopItemInfo> >
_TEXT	ENDS
PUBLIC	?begin@?$vector@UtagShopItemInfo@@V?$allocator@UtagShopItemInfo@@@std@@@std@@QAE?AV?$_Vector_iterator@V?$_Vector_val@UtagShopItemInfo@@V?$allocator@UtagShopItemInfo@@@std@@@std@@@2@XZ ; std::vector<tagShopItemInfo,std::allocator<tagShopItemInfo> >::begin
; Function compile flags: /Ogsp
;	COMDAT ?begin@?$vector@UtagShopItemInfo@@V?$allocator@UtagShopItemInfo@@@std@@@std@@QAE?AV?$_Vector_iterator@V?$_Vector_val@UtagShopItemInfo@@V?$allocator@UtagShopItemInfo@@@std@@@std@@@2@XZ
_TEXT	SEGMENT
___$ReturnUdt$ = 8					; size = 4
?begin@?$vector@UtagShopItemInfo@@V?$allocator@UtagShopItemInfo@@@std@@@std@@QAE?AV?$_Vector_iterator@V?$_Vector_val@UtagShopItemInfo@@V?$allocator@UtagShopItemInfo@@@std@@@std@@@2@XZ PROC ; std::vector<tagShopItemInfo,std::allocator<tagShopItemInfo> >::begin, COMDAT
; _this$ = ecx

; 781  : 		{	// return iterator for beginning of mutable sequence

  00000	55		 push	 ebp
  00001	8b ec		 mov	 ebp, esp

; 782  : 		return (iterator(this->_Myfirst, this));

  00003	8b 09		 mov	 ecx, DWORD PTR [ecx]
  00005	8b 45 08	 mov	 eax, DWORD PTR ___$ReturnUdt$[ebp]
  00008	89 08		 mov	 DWORD PTR [eax], ecx

; 783  : 		}

  0000a	5d		 pop	 ebp
  0000b	c2 04 00	 ret	 4
?begin@?$vector@UtagShopItemInfo@@V?$allocator@UtagShopItemInfo@@@std@@@std@@QAE?AV?$_Vector_iterator@V?$_Vector_val@UtagShopItemInfo@@V?$allocator@UtagShopItemInfo@@@std@@@std@@@2@XZ ENDP ; std::vector<tagShopItemInfo,std::allocator<tagShopItemInfo> >::begin
_TEXT	ENDS
PUBLIC	?end@?$vector@UtagShopItemInfo@@V?$allocator@UtagShopItemInfo@@@std@@@std@@QAE?AV?$_Vector_iterator@V?$_Vector_val@UtagShopItemInfo@@V?$allocator@UtagShopItemInfo@@@std@@@std@@@2@XZ ; std::vector<tagShopItemInfo,std::allocator<tagShopItemInfo> >::end
; Function compile flags: /Ogsp
;	COMDAT ?end@?$vector@UtagShopItemInfo@@V?$allocator@UtagShopItemInfo@@@std@@@std@@QAE?AV?$_Vector_iterator@V?$_Vector_val@UtagShopItemInfo@@V?$allocator@UtagShopItemInfo@@@std@@@std@@@2@XZ
_TEXT	SEGMENT
___$ReturnUdt$ = 8					; size = 4
?end@?$vector@UtagShopItemInfo@@V?$allocator@UtagShopItemInfo@@@std@@@std@@QAE?AV?$_Vector_iterator@V?$_Vector_val@UtagShopItemInfo@@V?$allocator@UtagShopItemInfo@@@std@@@std@@@2@XZ PROC ; std::vector<tagShopItemInfo,std::allocator<tagShopItemInfo> >::end, COMDAT
; _this$ = ecx

; 791  : 		{	// return iterator for end of mutable sequence

  00000	55		 push	 ebp
  00001	8b ec		 mov	 ebp, esp

; 792  : 		return (iterator(this->_Mylast, this));

  00003	8b 49 04	 mov	 ecx, DWORD PTR [ecx+4]
  00006	8b 45 08	 mov	 eax, DWORD PTR ___$ReturnUdt$[ebp]
  00009	89 08		 mov	 DWORD PTR [eax], ecx

; 793  : 		}

  0000b	5d		 pop	 ebp
  0000c	c2 04 00	 ret	 4
?end@?$vector@UtagShopItemInfo@@V?$allocator@UtagShopItemInfo@@@std@@@std@@QAE?AV?$_Vector_iterator@V?$_Vector_val@UtagShopItemInfo@@V?$allocator@UtagShopItemInfo@@@std@@@std@@@2@XZ ENDP ; std::vector<tagShopItemInfo,std::allocator<tagShopItemInfo> >::end
_TEXT	ENDS
PUBLIC	??9?$_Vector_const_iterator@V?$_Vector_val@PAVioUIRenderElement@@V?$allocator@PAVioUIRenderElement@@@std@@@std@@@std@@QBE_NABV01@@Z ; std::_Vector_const_iterator<std::_Vector_val<ioUIRenderElement *,std::allocator<ioUIRenderElement *> > >::operator!=
; Function compile flags: /Ogsp
;	COMDAT ??9?$_Vector_const_iterator@V?$_Vector_val@PAVioUIRenderElement@@V?$allocator@PAVioUIRenderElement@@@std@@@std@@@std@@QBE_NABV01@@Z
_TEXT	SEGMENT
__Right$ = 8						; size = 4
??9?$_Vector_const_iterator@V?$_Vector_val@PAVioUIRenderElement@@V?$allocator@PAVioUIRenderElement@@@std@@@std@@@std@@QBE_NABV01@@Z PROC ; std::_Vector_const_iterator<std::_Vector_val<ioUIRenderElement *,std::allocator<ioUIRenderElement *> > >::operator!=, COMDAT
; _this$ = ecx

; 207  : 		{	// test for iterator inequality

  00000	55		 push	 ebp
  00001	8b ec		 mov	 ebp, esp

; 208  : 		return (!(*this == _Right));

  00003	8b 01		 mov	 eax, DWORD PTR [ecx]
  00005	8b 55 08	 mov	 edx, DWORD PTR __Right$[ebp]
  00008	33 c9		 xor	 ecx, ecx
  0000a	3b 02		 cmp	 eax, DWORD PTR [edx]
  0000c	0f 95 c0	 setne	 al

; 209  : 		}

  0000f	5d		 pop	 ebp
  00010	c2 04 00	 ret	 4
??9?$_Vector_const_iterator@V?$_Vector_val@PAVioUIRenderElement@@V?$allocator@PAVioUIRenderElement@@@std@@@std@@@std@@QBE_NABV01@@Z ENDP ; std::_Vector_const_iterator<std::_Vector_val<ioUIRenderElement *,std::allocator<ioUIRenderElement *> > >::operator!=
_TEXT	ENDS
PUBLIC	??9?$_Vector_const_iterator@V?$_Vector_val@UtagShopItemInfo@@V?$allocator@UtagShopItemInfo@@@std@@@std@@@std@@QBE_NABV01@@Z ; std::_Vector_const_iterator<std::_Vector_val<tagShopItemInfo,std::allocator<tagShopItemInfo> > >::operator!=
; Function compile flags: /Ogsp
;	COMDAT ??9?$_Vector_const_iterator@V?$_Vector_val@UtagShopItemInfo@@V?$allocator@UtagShopItemInfo@@@std@@@std@@@std@@QBE_NABV01@@Z
_TEXT	SEGMENT
__Right$ = 8						; size = 4
??9?$_Vector_const_iterator@V?$_Vector_val@UtagShopItemInfo@@V?$allocator@UtagShopItemInfo@@@std@@@std@@@std@@QBE_NABV01@@Z PROC ; std::_Vector_const_iterator<std::_Vector_val<tagShopItemInfo,std::allocator<tagShopItemInfo> > >::operator!=, COMDAT
; _this$ = ecx

; 207  : 		{	// test for iterator inequality

  00000	55		 push	 ebp
  00001	8b ec		 mov	 ebp, esp

; 208  : 		return (!(*this == _Right));

  00003	8b 01		 mov	 eax, DWORD PTR [ecx]
  00005	8b 55 08	 mov	 edx, DWORD PTR __Right$[ebp]
  00008	33 c9		 xor	 ecx, ecx
  0000a	3b 02		 cmp	 eax, DWORD PTR [edx]
  0000c	0f 95 c0	 setne	 al

; 209  : 		}

  0000f	5d		 pop	 ebp
  00010	c2 04 00	 ret	 4
??9?$_Vector_const_iterator@V?$_Vector_val@UtagShopItemInfo@@V?$allocator@UtagShopItemInfo@@@std@@@std@@@std@@QBE_NABV01@@Z ENDP ; std::_Vector_const_iterator<std::_Vector_val<tagShopItemInfo,std::allocator<tagShopItemInfo> > >::operator!=
_TEXT	ENDS
PUBLIC	??$_Cons_val@V?$allocator@UtagShopItemInfo@@@std@@UtagShopItemInfo@@ABU3@@std@@YAXAAV?$allocator@UtagShopItemInfo@@@0@PAUtagShopItemInfo@@ABU2@@Z ; std::_Cons_val<std::allocator<tagShopItemInfo>,tagShopItemInfo,tagShopItemInfo const &>
; Function compile flags: /Ogsp
; File c:\program files (x86)\microsoft visual studio 10.0\vc\include\xmemory
;	COMDAT ??$_Cons_val@V?$allocator@UtagShopItemInfo@@@std@@UtagShopItemInfo@@ABU3@@std@@YAXAAV?$allocator@UtagShopItemInfo@@@0@PAUtagShopItemInfo@@ABU2@@Z
_TEXT	SEGMENT
__Alval$ = 8						; size = 4
__Pdest$ = 12						; size = 4
__Src$ = 16						; size = 4
??$_Cons_val@V?$allocator@UtagShopItemInfo@@@std@@UtagShopItemInfo@@ABU3@@std@@YAXAAV?$allocator@UtagShopItemInfo@@@0@PAUtagShopItemInfo@@ABU2@@Z PROC ; std::_Cons_val<std::allocator<tagShopItemInfo>,tagShopItemInfo,tagShopItemInfo const &>, COMDAT

; 279  : 	{	// construct using allocator

  00000	55		 push	 ebp
  00001	8b ec		 mov	 ebp, esp
  00003	57		 push	 edi

; 280  : 	_Alval.construct(_Pdest, _STD forward<_Ty2>(_Src));

  00004	8b 7d 0c	 mov	 edi, DWORD PTR __Pdest$[ebp]
  00007	85 ff		 test	 edi, edi
  00009	74 0a		 je	 SHORT $LN9@Cons_val@2
  0000b	56		 push	 esi
  0000c	8b 75 10	 mov	 esi, DWORD PTR __Src$[ebp]
  0000f	6a 0b		 push	 11			; 0000000bH
  00011	59		 pop	 ecx
  00012	f3 a5		 rep movsd
  00014	5e		 pop	 esi
$LN9@Cons_val@2:
  00015	5f		 pop	 edi

; 281  : 	}

  00016	5d		 pop	 ebp
  00017	c3		 ret	 0
??$_Cons_val@V?$allocator@UtagShopItemInfo@@@std@@UtagShopItemInfo@@ABU3@@std@@YAXAAV?$allocator@UtagShopItemInfo@@@0@PAUtagShopItemInfo@@ABU2@@Z ENDP ; std::_Cons_val<std::allocator<tagShopItemInfo>,tagShopItemInfo,tagShopItemInfo const &>
_TEXT	ENDS
PUBLIC	??$_Move@PAUtagShopItemInfo@@PAU1@@std@@YAPAUtagShopItemInfo@@PAU1@00@Z ; std::_Move<tagShopItemInfo *,tagShopItemInfo *>
; Function compile flags: /Ogsp
; File c:\program files (x86)\microsoft visual studio 10.0\vc\include\xutility
;	COMDAT ??$_Move@PAUtagShopItemInfo@@PAU1@@std@@YAPAUtagShopItemInfo@@PAU1@00@Z
_TEXT	SEGMENT
__Cat$559292 = -4					; size = 1
__First$ = 8						; size = 4
__Last$ = 12						; size = 4
__Dest$ = 16						; size = 4
??$_Move@PAUtagShopItemInfo@@PAU1@@std@@YAPAUtagShopItemInfo@@PAU1@00@Z PROC ; std::_Move<tagShopItemInfo *,tagShopItemInfo *>, COMDAT

; 2533 : 	{	// move [_First, _Last) to [_Dest, ...), unchecked

  00000	55		 push	 ebp
  00001	8b ec		 mov	 ebp, esp
  00003	51		 push	 ecx

; 2534 : 	return (_Move(_First, _Last,
; 2535 : 		_Dest, _Ptr_cat(_First, _Dest)));

  00004	ff 75 fc	 push	 DWORD PTR __Cat$559292[ebp]
  00007	ff 75 10	 push	 DWORD PTR __Dest$[ebp]
  0000a	ff 75 0c	 push	 DWORD PTR __Last$[ebp]
  0000d	ff 75 08	 push	 DWORD PTR __First$[ebp]
  00010	e8 00 00 00 00	 call	 ??$_Move@PAUtagShopItemInfo@@PAU1@@std@@YAPAUtagShopItemInfo@@PAU1@00U_Nonscalar_ptr_iterator_tag@0@@Z ; std::_Move<tagShopItemInfo *,tagShopItemInfo *>
  00015	83 c4 10	 add	 esp, 16			; 00000010H

; 2536 : 	}

  00018	c9		 leave
  00019	c3		 ret	 0
??$_Move@PAUtagShopItemInfo@@PAU1@@std@@YAPAUtagShopItemInfo@@PAU1@00@Z ENDP ; std::_Move<tagShopItemInfo *,tagShopItemInfo *>
_TEXT	ENDS
PUBLIC	??$_Dest_val@V?$allocator@UtagShopItemInfo@@@std@@UtagShopItemInfo@@@std@@YAXAAV?$allocator@UtagShopItemInfo@@@0@PAUtagShopItemInfo@@@Z ; std::_Dest_val<std::allocator<tagShopItemInfo>,tagShopItemInfo>
; Function compile flags: /Ogsp
; File c:\program files (x86)\microsoft visual studio 10.0\vc\include\xmemory
;	COMDAT ??$_Dest_val@V?$allocator@UtagShopItemInfo@@@std@@UtagShopItemInfo@@@std@@YAXAAV?$allocator@UtagShopItemInfo@@@0@PAUtagShopItemInfo@@@Z
_TEXT	SEGMENT
__Alval$ = 8						; size = 4
__Pdest$ = 12						; size = 4
??$_Dest_val@V?$allocator@UtagShopItemInfo@@@std@@UtagShopItemInfo@@@std@@YAXAAV?$allocator@UtagShopItemInfo@@@0@PAUtagShopItemInfo@@@Z PROC ; std::_Dest_val<std::allocator<tagShopItemInfo>,tagShopItemInfo>, COMDAT

; 287  : 	_Alval.destroy(_Pdest);
; 288  : 	}

  00000	c3		 ret	 0
??$_Dest_val@V?$allocator@UtagShopItemInfo@@@std@@UtagShopItemInfo@@@std@@YAXAAV?$allocator@UtagShopItemInfo@@@0@PAUtagShopItemInfo@@@Z ENDP ; std::_Dest_val<std::allocator<tagShopItemInfo>,tagShopItemInfo>
_TEXT	ENDS
PUBLIC	??$iter_swap@PAUtagShopItemInfo@@PAU1@@std@@YAXPAUtagShopItemInfo@@0@Z ; std::iter_swap<tagShopItemInfo *,tagShopItemInfo *>
; Function compile flags: /Ogsp
; File c:\program files (x86)\microsoft visual studio 10.0\vc\include\xutility
;	COMDAT ??$iter_swap@PAUtagShopItemInfo@@PAU1@@std@@YAXPAUtagShopItemInfo@@0@Z
_TEXT	SEGMENT
__Left$ = 8						; size = 4
__Right$ = 12						; size = 4
??$iter_swap@PAUtagShopItemInfo@@PAU1@@std@@YAXPAUtagShopItemInfo@@0@Z PROC ; std::iter_swap<tagShopItemInfo *,tagShopItemInfo *>, COMDAT

; 2133 : 	{	// swap *_Left and *_Right

  00000	55		 push	 ebp
  00001	8b ec		 mov	 ebp, esp

; 2135 : 	}

  00003	5d		 pop	 ebp

; 2134 : 	swap(*_Left, *_Right);

  00004	e9 00 00 00 00	 jmp	 ??$swap@UtagShopItemInfo@@@std@@YAXAAUtagShopItemInfo@@0@Z ; std::swap<tagShopItemInfo>
??$iter_swap@PAUtagShopItemInfo@@PAU1@@std@@YAXPAUtagShopItemInfo@@0@Z ENDP ; std::iter_swap<tagShopItemInfo *,tagShopItemInfo *>
_TEXT	ENDS
PUBLIC	??$_Make_heap@PAUtagShopItemInfo@@HU1@VShopItemInfoSort@@@std@@YAXPAUtagShopItemInfo@@0VShopItemInfoSort@@PAH0@Z ; std::_Make_heap<tagShopItemInfo *,int,tagShopItemInfo,ShopItemInfoSort>
; Function compile flags: /Ogsp
; File c:\program files (x86)\microsoft visual studio 10.0\vc\include\algorithm
;	COMDAT ??$_Make_heap@PAUtagShopItemInfo@@HU1@VShopItemInfoSort@@@std@@YAXPAUtagShopItemInfo@@0VShopItemInfoSort@@PAH0@Z
_TEXT	SEGMENT
__Val$552701 = -48					; size = 44
__Bottom$ = -4						; size = 4
__First$ = 8						; size = 4
tv149 = 12						; size = 4
__Last$ = 12						; size = 4
__Pred$ = 16						; size = 1
___formal$ = 20						; size = 4
___formal$ = 24						; size = 4
??$_Make_heap@PAUtagShopItemInfo@@HU1@VShopItemInfoSort@@@std@@YAXPAUtagShopItemInfo@@0VShopItemInfoSort@@PAH0@Z PROC ; std::_Make_heap<tagShopItemInfo *,int,tagShopItemInfo,ShopItemInfoSort>, COMDAT

; 2658 : 	{	// make nontrivial [_First, _Last) into a heap, using _Pred

  00000	55		 push	 ebp
  00001	8b ec		 mov	 ebp, esp
  00003	83 ec 30	 sub	 esp, 48			; 00000030H

; 2659 : 	_Diff _Bottom = _Last - _First;

  00006	8b 45 0c	 mov	 eax, DWORD PTR __Last$[ebp]
  00009	2b 45 08	 sub	 eax, DWORD PTR __First$[ebp]
  0000c	53		 push	 ebx
  0000d	99		 cdq
  0000e	6a 2c		 push	 44			; 0000002cH
  00010	59		 pop	 ecx
  00011	f7 f9		 idiv	 ecx
  00013	89 45 fc	 mov	 DWORD PTR __Bottom$[ebp], eax

; 2660 : 	for (_Diff _Hole = _Bottom / 2; 0 < _Hole; )

  00016	99		 cdq
  00017	2b c2		 sub	 eax, edx
  00019	8b d8		 mov	 ebx, eax
  0001b	d1 fb		 sar	 ebx, 1
  0001d	85 db		 test	 ebx, ebx
  0001f	7e 3a		 jle	 SHORT $LN1@Make_heap

; 2659 : 	_Diff _Bottom = _Last - _First;

  00021	56		 push	 esi
  00022	8b f3		 mov	 esi, ebx
  00024	6b f6 2c	 imul	 esi, 44			; 0000002cH
  00027	03 75 08	 add	 esi, DWORD PTR __First$[ebp]
  0002a	57		 push	 edi
  0002b	eb 03		 jmp	 SHORT $LN2@Make_heap
$LL11@Make_heap:
  0002d	8b 75 0c	 mov	 esi, DWORD PTR tv149[ebp]
$LN2@Make_heap:

; 2661 : 		{	// reheap top half, bottom to top
; 2662 : 		--_Hole;
; 2663 : 		_Ty _Val = _Move(*(_First + _Hole));

  00030	6a 0b		 push	 11			; 0000000bH
  00032	59		 pop	 ecx

; 2664 : 		_Adjust_heap(_First, _Hole, _Bottom,
; 2665 : 			_Move(_Val), _Pred);

  00033	ff 75 10	 push	 DWORD PTR __Pred$[ebp]
  00036	8d 45 d0	 lea	 eax, DWORD PTR __Val$552701[ebp]
  00039	50		 push	 eax
  0003a	ff 75 fc	 push	 DWORD PTR __Bottom$[ebp]
  0003d	4b		 dec	 ebx
  0003e	83 ee 2c	 sub	 esi, 44			; 0000002cH
  00041	53		 push	 ebx
  00042	ff 75 08	 push	 DWORD PTR __First$[ebp]
  00045	8d 7d d0	 lea	 edi, DWORD PTR __Val$552701[ebp]
  00048	89 75 0c	 mov	 DWORD PTR tv149[ebp], esi
  0004b	f3 a5		 rep movsd
  0004d	e8 00 00 00 00	 call	 ??$_Adjust_heap@PAUtagShopItemInfo@@HU1@VShopItemInfoSort@@@std@@YAXPAUtagShopItemInfo@@HH$$QAU1@VShopItemInfoSort@@@Z ; std::_Adjust_heap<tagShopItemInfo *,int,tagShopItemInfo,ShopItemInfoSort>
  00052	83 c4 14	 add	 esp, 20			; 00000014H
  00055	85 db		 test	 ebx, ebx
  00057	7f d4		 jg	 SHORT $LL11@Make_heap
  00059	5f		 pop	 edi
  0005a	5e		 pop	 esi
$LN1@Make_heap:
  0005b	5b		 pop	 ebx

; 2666 : 		}
; 2667 : 	}

  0005c	c9		 leave
  0005d	c3		 ret	 0
??$_Make_heap@PAUtagShopItemInfo@@HU1@VShopItemInfoSort@@@std@@YAXPAUtagShopItemInfo@@0VShopItemInfoSort@@PAH0@Z ENDP ; std::_Make_heap<tagShopItemInfo *,int,tagShopItemInfo,ShopItemInfoSort>
_TEXT	ENDS
PUBLIC	??$_Insertion_sort1@PAUtagShopItemInfo@@VShopItemInfoSort@@U1@@std@@YAXPAUtagShopItemInfo@@0VShopItemInfoSort@@0@Z ; std::_Insertion_sort1<tagShopItemInfo *,ShopItemInfoSort,tagShopItemInfo>
; Function compile flags: /Ogsp
;	COMDAT ??$_Insertion_sort1@PAUtagShopItemInfo@@VShopItemInfoSort@@U1@@std@@YAXPAUtagShopItemInfo@@0VShopItemInfoSort@@0@Z
_TEXT	SEGMENT
__Val$552736 = -56					; size = 44
__Next1$552735 = -12					; size = 4
tv205 = -8						; size = 4
__First1$552746 = -4					; size = 4
__Cat$559334 = 8					; size = 1
__First$ = 8						; size = 4
__Last$ = 12						; size = 4
__Pred$ = 16						; size = 1
___formal$ = 20						; size = 4
??$_Insertion_sort1@PAUtagShopItemInfo@@VShopItemInfoSort@@U1@@std@@YAXPAUtagShopItemInfo@@0VShopItemInfoSort@@0@Z PROC ; std::_Insertion_sort1<tagShopItemInfo *,ShopItemInfoSort,tagShopItemInfo>, COMDAT

; 3650 : 	{	// insertion sort [_First, _Last), using _Pred

  00000	55		 push	 ebp
  00001	8b ec		 mov	 ebp, esp
  00003	83 ec 38	 sub	 esp, 56			; 00000038H
  00006	53		 push	 ebx

; 3651 : 	if (_First != _Last)

  00007	8b 5d 08	 mov	 ebx, DWORD PTR __First$[ebp]
  0000a	3b 5d 0c	 cmp	 ebx, DWORD PTR __Last$[ebp]
  0000d	0f 84 91 00 00
	00		 je	 $LN6@Insertion_

; 3652 : 		for (_BidIt _Next = _First; ++_Next != _Last; )

  00013	83 c3 2c	 add	 ebx, 44			; 0000002cH
  00016	3b 5d 0c	 cmp	 ebx, DWORD PTR __Last$[ebp]
  00019	0f 84 85 00 00
	00		 je	 $LN6@Insertion_
  0001f	8d 43 d4	 lea	 eax, DWORD PTR [ebx-44]
  00022	56		 push	 esi
  00023	89 45 f8	 mov	 DWORD PTR tv205[ebp], eax
  00026	57		 push	 edi
$LL7@Insertion_:

; 3653 : 			{	// order next element
; 3654 : 			_BidIt _Next1 = _Next;
; 3655 : 			_Ty _Val = _Move(*_Next);

  00027	6a 0b		 push	 11			; 0000000bH
  00029	59		 pop	 ecx

; 3656 : 
; 3657 : 			if (_DEBUG_LT_PRED(_Pred, _Val, *_First))

  0002a	ff 75 08	 push	 DWORD PTR __First$[ebp]
  0002d	8b f3		 mov	 esi, ebx
  0002f	8d 7d c8	 lea	 edi, DWORD PTR __Val$552736[ebp]
  00032	8d 45 c8	 lea	 eax, DWORD PTR __Val$552736[ebp]
  00035	f3 a5		 rep movsd
  00037	50		 push	 eax
  00038	8d 4d 10	 lea	 ecx, DWORD PTR __Pred$[ebp]
  0003b	89 5d f4	 mov	 DWORD PTR __Next1$552735[ebp], ebx
  0003e	e8 00 00 00 00	 call	 ??RShopItemInfoSort@@QBE_NABUtagShopItemInfo@@0@Z ; ShopItemInfoSort::operator()
  00043	84 c0		 test	 al, al

; 3658 : 				{	// found new earliest element, move to front
; 3659 : 				_Move_backward(_First, _Next, ++_Next1);

  00045	8b 45 f8	 mov	 eax, DWORD PTR tv205[ebp]
  00048	74 16		 je	 SHORT $LN5@Insertion_
  0004a	ff 75 08	 push	 DWORD PTR __Cat$559334[ebp]
  0004d	8b 7d 08	 mov	 edi, DWORD PTR __First$[ebp]
  00050	83 c0 58	 add	 eax, 88			; 00000058H
  00053	50		 push	 eax
  00054	53		 push	 ebx
  00055	57		 push	 edi
  00056	e8 00 00 00 00	 call	 ??$_Move_backward@PAUtagShopItemInfo@@PAU1@@std@@YAPAUtagShopItemInfo@@PAU1@00U_Nonscalar_ptr_iterator_tag@0@@Z ; std::_Move_backward<tagShopItemInfo *,tagShopItemInfo *>
  0005b	83 c4 10	 add	 esp, 16			; 00000010H

; 3660 : 				*_First = _Move(_Val);
; 3661 : 				}
; 3662 : 			else

  0005e	eb 2e		 jmp	 SHORT $LN28@Insertion_
$LN5@Insertion_:

; 3663 : 				{	// look for insertion point after first
; 3664 : 				for (_BidIt _First1 = _Next1;
; 3665 : 					_DEBUG_LT_PRED(_Pred, _Val, *--_First1);
; 3666 : 					_Next1 = _First1)

  00060	89 45 fc	 mov	 DWORD PTR __First1$552746[ebp], eax
  00063	50		 push	 eax
  00064	eb 15		 jmp	 SHORT $LN30@Insertion_
$LL27@Insertion_:

; 3667 : 					*_Next1 = _Move(*_First1);	// move hole down

  00066	8b 75 fc	 mov	 esi, DWORD PTR __First1$552746[ebp]
  00069	8b 45 fc	 mov	 eax, DWORD PTR __First1$552746[ebp]
  0006c	83 6d fc 2c	 sub	 DWORD PTR __First1$552746[ebp], 44 ; 0000002cH
  00070	6a 0b		 push	 11			; 0000000bH
  00072	59		 pop	 ecx
  00073	ff 75 fc	 push	 DWORD PTR __First1$552746[ebp]
  00076	f3 a5		 rep movsd
  00078	89 45 f4	 mov	 DWORD PTR __Next1$552735[ebp], eax
$LN30@Insertion_:

; 3663 : 				{	// look for insertion point after first
; 3664 : 				for (_BidIt _First1 = _Next1;
; 3665 : 					_DEBUG_LT_PRED(_Pred, _Val, *--_First1);
; 3666 : 					_Next1 = _First1)

  0007b	8d 45 c8	 lea	 eax, DWORD PTR __Val$552736[ebp]
  0007e	50		 push	 eax
  0007f	8d 4d 10	 lea	 ecx, DWORD PTR __Pred$[ebp]
  00082	e8 00 00 00 00	 call	 ??RShopItemInfoSort@@QBE_NABUtagShopItemInfo@@0@Z ; ShopItemInfoSort::operator()

; 3668 : 				*_Next1 = _Move(_Val);	// insert element in hole

  00087	8b 7d f4	 mov	 edi, DWORD PTR __Next1$552735[ebp]
  0008a	84 c0		 test	 al, al
  0008c	75 d8		 jne	 SHORT $LL27@Insertion_
$LN28@Insertion_:

; 3652 : 		for (_BidIt _Next = _First; ++_Next != _Last; )

  0008e	83 45 f8 2c	 add	 DWORD PTR tv205[ebp], 44 ; 0000002cH

; 3668 : 				*_Next1 = _Move(_Val);	// insert element in hole

  00092	6a 0b		 push	 11			; 0000000bH
  00094	83 c3 2c	 add	 ebx, 44			; 0000002cH
  00097	59		 pop	 ecx
  00098	8d 75 c8	 lea	 esi, DWORD PTR __Val$552736[ebp]
  0009b	f3 a5		 rep movsd
  0009d	3b 5d 0c	 cmp	 ebx, DWORD PTR __Last$[ebp]
  000a0	75 85		 jne	 SHORT $LL7@Insertion_
  000a2	5f		 pop	 edi
  000a3	5e		 pop	 esi
$LN6@Insertion_:
  000a4	5b		 pop	 ebx

; 3669 : 				}
; 3670 : 			}
; 3671 : 	}

  000a5	c9		 leave
  000a6	c3		 ret	 0
??$_Insertion_sort1@PAUtagShopItemInfo@@VShopItemInfoSort@@U1@@std@@YAXPAUtagShopItemInfo@@0VShopItemInfoSort@@0@Z ENDP ; std::_Insertion_sort1<tagShopItemInfo *,ShopItemInfoSort,tagShopItemInfo>
_TEXT	ENDS
PUBLIC	??$_Cons_val@V?$allocator@UtagShopItemInfo@@@std@@UtagShopItemInfo@@U3@@std@@YAXAAV?$allocator@UtagShopItemInfo@@@0@PAUtagShopItemInfo@@$$QAU2@@Z ; std::_Cons_val<std::allocator<tagShopItemInfo>,tagShopItemInfo,tagShopItemInfo>
; Function compile flags: /Ogsp
; File c:\program files (x86)\microsoft visual studio 10.0\vc\include\xmemory
;	COMDAT ??$_Cons_val@V?$allocator@UtagShopItemInfo@@@std@@UtagShopItemInfo@@U3@@std@@YAXAAV?$allocator@UtagShopItemInfo@@@0@PAUtagShopItemInfo@@$$QAU2@@Z
_TEXT	SEGMENT
__Alval$ = 8						; size = 4
__Pdest$ = 12						; size = 4
__Src$ = 16						; size = 4
??$_Cons_val@V?$allocator@UtagShopItemInfo@@@std@@UtagShopItemInfo@@U3@@std@@YAXAAV?$allocator@UtagShopItemInfo@@@0@PAUtagShopItemInfo@@$$QAU2@@Z PROC ; std::_Cons_val<std::allocator<tagShopItemInfo>,tagShopItemInfo,tagShopItemInfo>, COMDAT

; 279  : 	{	// construct using allocator

  00000	55		 push	 ebp
  00001	8b ec		 mov	 ebp, esp
  00003	57		 push	 edi

; 280  : 	_Alval.construct(_Pdest, _STD forward<_Ty2>(_Src));

  00004	8b 7d 0c	 mov	 edi, DWORD PTR __Pdest$[ebp]
  00007	85 ff		 test	 edi, edi
  00009	74 0a		 je	 SHORT $LN7@Cons_val@3
  0000b	56		 push	 esi
  0000c	8b 75 10	 mov	 esi, DWORD PTR __Src$[ebp]
  0000f	6a 0b		 push	 11			; 0000000bH
  00011	59		 pop	 ecx
  00012	f3 a5		 rep movsd
  00014	5e		 pop	 esi
$LN7@Cons_val@3:
  00015	5f		 pop	 edi

; 281  : 	}

  00016	5d		 pop	 ebp
  00017	c3		 ret	 0
??$_Cons_val@V?$allocator@UtagShopItemInfo@@@std@@UtagShopItemInfo@@U3@@std@@YAXAAV?$allocator@UtagShopItemInfo@@@0@PAUtagShopItemInfo@@$$QAU2@@Z ENDP ; std::_Cons_val<std::allocator<tagShopItemInfo>,tagShopItemInfo,tagShopItemInfo>
_TEXT	ENDS
PUBLIC	??$_Med3@PAUtagShopItemInfo@@VShopItemInfoSort@@@std@@YAXPAUtagShopItemInfo@@00VShopItemInfoSort@@@Z ; std::_Med3<tagShopItemInfo *,ShopItemInfoSort>
; Function compile flags: /Ogsp
; File c:\program files (x86)\microsoft visual studio 10.0\vc\include\algorithm
;	COMDAT ??$_Med3@PAUtagShopItemInfo@@VShopItemInfoSort@@@std@@YAXPAUtagShopItemInfo@@00VShopItemInfoSort@@@Z
_TEXT	SEGMENT
__First$ = 8						; size = 4
__Mid$ = 12						; size = 4
__Last$ = 16						; size = 4
__Pred$ = 20						; size = 1
??$_Med3@PAUtagShopItemInfo@@VShopItemInfoSort@@@std@@YAXPAUtagShopItemInfo@@00VShopItemInfoSort@@@Z PROC ; std::_Med3<tagShopItemInfo *,ShopItemInfoSort>, COMDAT

; 3683 : 	{	// sort median of three elements to middle

  00000	55		 push	 ebp
  00001	8b ec		 mov	 ebp, esp
  00003	56		 push	 esi

; 3684 : 	if (_DEBUG_LT_PRED(_Pred, *_Mid, *_First))

  00004	8b 75 0c	 mov	 esi, DWORD PTR __Mid$[ebp]
  00007	57		 push	 edi
  00008	8b 7d 08	 mov	 edi, DWORD PTR __First$[ebp]
  0000b	57		 push	 edi
  0000c	56		 push	 esi
  0000d	8d 4d 14	 lea	 ecx, DWORD PTR __Pred$[ebp]
  00010	e8 00 00 00 00	 call	 ??RShopItemInfoSort@@QBE_NABUtagShopItemInfo@@0@Z ; ShopItemInfoSort::operator()
  00015	84 c0		 test	 al, al
  00017	74 09		 je	 SHORT $LN6@Med3

; 3685 : 		_STD iter_swap(_Mid, _First);

  00019	57		 push	 edi
  0001a	56		 push	 esi
  0001b	e8 00 00 00 00	 call	 ??$swap@UtagShopItemInfo@@@std@@YAXAAUtagShopItemInfo@@0@Z ; std::swap<tagShopItemInfo>
  00020	59		 pop	 ecx
  00021	59		 pop	 ecx
$LN6@Med3:

; 3686 : 	if (_DEBUG_LT_PRED(_Pred, *_Last, *_Mid))

  00022	56		 push	 esi
  00023	ff 75 10	 push	 DWORD PTR __Last$[ebp]
  00026	8d 4d 14	 lea	 ecx, DWORD PTR __Pred$[ebp]
  00029	e8 00 00 00 00	 call	 ??RShopItemInfoSort@@QBE_NABUtagShopItemInfo@@0@Z ; ShopItemInfoSort::operator()
  0002e	84 c0		 test	 al, al
  00030	74 0b		 je	 SHORT $LN8@Med3

; 3687 : 		_STD iter_swap(_Last, _Mid);

  00032	56		 push	 esi
  00033	ff 75 10	 push	 DWORD PTR __Last$[ebp]
  00036	e8 00 00 00 00	 call	 ??$swap@UtagShopItemInfo@@@std@@YAXAAUtagShopItemInfo@@0@Z ; std::swap<tagShopItemInfo>
  0003b	59		 pop	 ecx
  0003c	59		 pop	 ecx
$LN8@Med3:

; 3688 : 	if (_DEBUG_LT_PRED(_Pred, *_Mid, *_First))

  0003d	57		 push	 edi
  0003e	56		 push	 esi
  0003f	8d 4d 14	 lea	 ecx, DWORD PTR __Pred$[ebp]
  00042	e8 00 00 00 00	 call	 ??RShopItemInfoSort@@QBE_NABUtagShopItemInfo@@0@Z ; ShopItemInfoSort::operator()
  00047	84 c0		 test	 al, al
  00049	74 09		 je	 SHORT $LN10@Med3

; 3689 : 		_STD iter_swap(_Mid, _First);

  0004b	57		 push	 edi
  0004c	56		 push	 esi
  0004d	e8 00 00 00 00	 call	 ??$swap@UtagShopItemInfo@@@std@@YAXAAUtagShopItemInfo@@0@Z ; std::swap<tagShopItemInfo>
  00052	59		 pop	 ecx
  00053	59		 pop	 ecx
$LN10@Med3:
  00054	5f		 pop	 edi
  00055	5e		 pop	 esi

; 3690 : 	}

  00056	5d		 pop	 ebp
  00057	c3		 ret	 0
??$_Med3@PAUtagShopItemInfo@@VShopItemInfoSort@@@std@@YAXPAUtagShopItemInfo@@00VShopItemInfoSort@@@Z ENDP ; std::_Med3<tagShopItemInfo *,ShopItemInfoSort>
_TEXT	ENDS
PUBLIC	??$_Pop_heap_0@PAUtagShopItemInfo@@U1@VShopItemInfoSort@@@std@@YAXPAUtagShopItemInfo@@0VShopItemInfoSort@@0@Z ; std::_Pop_heap_0<tagShopItemInfo *,tagShopItemInfo,ShopItemInfoSort>
; Function compile flags: /Ogsp
;	COMDAT ??$_Pop_heap_0@PAUtagShopItemInfo@@U1@VShopItemInfoSort@@@std@@YAXPAUtagShopItemInfo@@0VShopItemInfoSort@@0@Z
_TEXT	SEGMENT
__Val$ = -44						; size = 44
__First$ = 8						; size = 4
__Last$ = 12						; size = 4
__Pred$ = 16						; size = 1
___formal$ = 20						; size = 4
??$_Pop_heap_0@PAUtagShopItemInfo@@U1@VShopItemInfoSort@@@std@@YAXPAUtagShopItemInfo@@0VShopItemInfoSort@@0@Z PROC ; std::_Pop_heap_0<tagShopItemInfo *,tagShopItemInfo,ShopItemInfoSort>, COMDAT

; 2601 : 	{	// pop *_First to *(_Last - 1) and reheap, using _Pred

  00000	55		 push	 ebp
  00001	8b ec		 mov	 ebp, esp

; 2602 : 	_Ty _Val = _Move(*(_Last - 1));

  00003	8b 45 0c	 mov	 eax, DWORD PTR __Last$[ebp]
  00006	83 ec 2c	 sub	 esp, 44			; 0000002cH
  00009	56		 push	 esi
  0000a	57		 push	 edi
  0000b	6a 0b		 push	 11			; 0000000bH
  0000d	59		 pop	 ecx
  0000e	83 c0 d4	 add	 eax, -44		; ffffffd4H

; 2603 : 	_Pop_heap(_First, _Last - 1, _Last - 1,
; 2604 : 		_Move(_Val), _Pred, _Dist_type(_First));

  00011	6a 00		 push	 0
  00013	ff 75 10	 push	 DWORD PTR __Pred$[ebp]
  00016	8b f0		 mov	 esi, eax
  00018	8d 7d d4	 lea	 edi, DWORD PTR __Val$[ebp]
  0001b	f3 a5		 rep movsd
  0001d	8d 4d d4	 lea	 ecx, DWORD PTR __Val$[ebp]
  00020	51		 push	 ecx
  00021	50		 push	 eax
  00022	50		 push	 eax
  00023	ff 75 08	 push	 DWORD PTR __First$[ebp]
  00026	e8 00 00 00 00	 call	 ??$_Pop_heap@PAUtagShopItemInfo@@HU1@VShopItemInfoSort@@@std@@YAXPAUtagShopItemInfo@@00$$QAU1@VShopItemInfoSort@@PAH@Z ; std::_Pop_heap<tagShopItemInfo *,int,tagShopItemInfo,ShopItemInfoSort>
  0002b	83 c4 18	 add	 esp, 24			; 00000018H
  0002e	5f		 pop	 edi
  0002f	5e		 pop	 esi

; 2605 : 	}

  00030	c9		 leave
  00031	c3		 ret	 0
??$_Pop_heap_0@PAUtagShopItemInfo@@U1@VShopItemInfoSort@@@std@@YAXPAUtagShopItemInfo@@0VShopItemInfoSort@@0@Z ENDP ; std::_Pop_heap_0<tagShopItemInfo *,tagShopItemInfo,ShopItemInfoSort>
; Function compile flags: /Ogsp
; File d:\lost saga for developer\youtube\tutorial\source\src\lsclient\gui\soldierexercisewnd.cpp
_TEXT	ENDS
;	COMDAT ?RenderImageList@SoldierExerciseBtn@@MAEXHHW4UIRenderType@@@Z
_TEXT	SEGMENT
tv236 = 8						; size = 4
_iXPos$ = 8						; size = 4
tv235 = 12						; size = 4
_iYPos$ = 12						; size = 4
_eRenderType$ = 16					; size = 4
?RenderImageList@SoldierExerciseBtn@@MAEXHHW4UIRenderType@@@Z PROC ; SoldierExerciseBtn::RenderImageList, COMDAT
; _this$ = ecx

; 182  : {

  00000	55		 push	 ebp
  00001	8b ec		 mov	 ebp, esp
  00003	56		 push	 esi
  00004	57		 push	 edi
  00005	8b f9		 mov	 edi, ecx

; 183  : 	UIElementList::iterator iter;
; 184  : 	for( iter=m_ElementList.begin() ; iter!=m_ElementList.end() ; ++iter )

  00007	8b 77 68	 mov	 esi, DWORD PTR [edi+104]
  0000a	3b 77 6c	 cmp	 esi, DWORD PTR [edi+108]
  0000d	74 48		 je	 SHORT $LN1@RenderImag
  0000f	66 0f 6e 45 0c	 movd	 xmm0, DWORD PTR _iYPos$[ebp]
  00014	0f 5b c0	 cvtdq2ps xmm0, xmm0
  00017	f3 0f 11 45 0c	 movss	 DWORD PTR tv235[ebp], xmm0
  0001c	66 0f 6e 45 08	 movd	 xmm0, DWORD PTR _iXPos$[ebp]
  00021	0f 5b c0	 cvtdq2ps xmm0, xmm0
  00024	f3 0f 11 45 08	 movss	 DWORD PTR tv236[ebp], xmm0
$LL42@RenderImag:

; 185  : 	{
; 186  : 		(*iter)->Render( iXPos, iYPos, eRenderType , TFO_BILINEAR );

  00029	8b 0e		 mov	 ecx, DWORD PTR [esi]
  0002b	f3 0f 10 45 0c	 movss	 xmm0, DWORD PTR tv235[ebp]
  00030	8b 01		 mov	 eax, DWORD PTR [ecx]
  00032	6a 00		 push	 0
  00034	6a 00		 push	 0
  00036	6a 01		 push	 1
  00038	ff 75 10	 push	 DWORD PTR _eRenderType$[ebp]
  0003b	51		 push	 ecx
  0003c	51		 push	 ecx
  0003d	f3 0f 11 44 24
	04		 movss	 DWORD PTR [esp+4], xmm0
  00043	f3 0f 10 45 08	 movss	 xmm0, DWORD PTR tv236[ebp]
  00048	f3 0f 11 04 24	 movss	 DWORD PTR [esp], xmm0
  0004d	ff 10		 call	 DWORD PTR [eax]
  0004f	83 c6 04	 add	 esi, 4
  00052	3b 77 6c	 cmp	 esi, DWORD PTR [edi+108]
  00055	75 d2		 jne	 SHORT $LL42@RenderImag
$LN1@RenderImag:
  00057	5f		 pop	 edi
  00058	5e		 pop	 esi

; 187  : 	}
; 188  : }

  00059	5d		 pop	 ebp
  0005a	c2 0c 00	 ret	 12			; 0000000cH
?RenderImageList@SoldierExerciseBtn@@MAEXHHW4UIRenderType@@@Z ENDP ; SoldierExerciseBtn::RenderImageList
_TEXT	ENDS
PUBLIC	??$_Destroy_range@V?$allocator@UtagShopItemInfo@@@std@@@std@@YAXPAUtagShopItemInfo@@0AAV?$allocator@UtagShopItemInfo@@@0@U_Nonscalar_ptr_iterator_tag@0@@Z ; std::_Destroy_range<std::allocator<tagShopItemInfo> >
; Function compile flags: /Ogsp
; File c:\program files (x86)\microsoft visual studio 10.0\vc\include\xmemory
;	COMDAT ??$_Destroy_range@V?$allocator@UtagShopItemInfo@@@std@@@std@@YAXPAUtagShopItemInfo@@0AAV?$allocator@UtagShopItemInfo@@@0@U_Nonscalar_ptr_iterator_tag@0@@Z
_TEXT	SEGMENT
__First$ = 8						; size = 4
__Last$ = 12						; size = 4
__Al$ = 16						; size = 4
___formal$ = 20						; size = 1
??$_Destroy_range@V?$allocator@UtagShopItemInfo@@@std@@@std@@YAXPAUtagShopItemInfo@@0AAV?$allocator@UtagShopItemInfo@@@0@U_Nonscalar_ptr_iterator_tag@0@@Z PROC ; std::_Destroy_range<std::allocator<tagShopItemInfo> >, COMDAT

; 96   : 	for (; _First != _Last; ++_First)
; 97   : 		_Dest_val(_Al, _First);
; 98   : 	}

  00000	c3		 ret	 0
??$_Destroy_range@V?$allocator@UtagShopItemInfo@@@std@@@std@@YAXPAUtagShopItemInfo@@0AAV?$allocator@UtagShopItemInfo@@@0@U_Nonscalar_ptr_iterator_tag@0@@Z ENDP ; std::_Destroy_range<std::allocator<tagShopItemInfo> >
_TEXT	ENDS
PUBLIC	??$make_heap@PAUtagShopItemInfo@@VShopItemInfoSort@@@std@@YAXPAUtagShopItemInfo@@0VShopItemInfoSort@@@Z ; std::make_heap<tagShopItemInfo *,ShopItemInfoSort>
; Function compile flags: /Ogsp
; File c:\program files (x86)\microsoft visual studio 10.0\vc\include\algorithm
;	COMDAT ??$make_heap@PAUtagShopItemInfo@@VShopItemInfoSort@@@std@@YAXPAUtagShopItemInfo@@0VShopItemInfoSort@@@Z
_TEXT	SEGMENT
__First$ = 8						; size = 4
__Last$ = 12						; size = 4
__Pred$ = 16						; size = 1
??$make_heap@PAUtagShopItemInfo@@VShopItemInfoSort@@@std@@YAXPAUtagShopItemInfo@@0VShopItemInfoSort@@@Z PROC ; std::make_heap<tagShopItemInfo *,ShopItemInfoSort>, COMDAT

; 2672 : 	{	// make [_First, _Last) into a heap, using _Pred

  00000	55		 push	 ebp
  00001	8b ec		 mov	 ebp, esp

; 2673 : 	_DEBUG_RANGE(_First, _Last);
; 2674 : 	_DEBUG_POINTER(_Pred);
; 2675 : 	if (1 < _Last - _First)

  00003	8b 45 0c	 mov	 eax, DWORD PTR __Last$[ebp]
  00006	2b 45 08	 sub	 eax, DWORD PTR __First$[ebp]
  00009	6a 2c		 push	 44			; 0000002cH
  0000b	99		 cdq
  0000c	59		 pop	 ecx
  0000d	f7 f9		 idiv	 ecx
  0000f	83 f8 01	 cmp	 eax, 1
  00012	7e 15		 jle	 SHORT $LN1@make_heap

; 2676 : 		_Make_heap(_Unchecked(_First), _Unchecked(_Last), _Pred,
; 2677 : 			_Dist_type(_First), _Val_type(_First));

  00014	6a 00		 push	 0
  00016	6a 00		 push	 0
  00018	ff 75 10	 push	 DWORD PTR __Pred$[ebp]
  0001b	ff 75 0c	 push	 DWORD PTR __Last$[ebp]
  0001e	ff 75 08	 push	 DWORD PTR __First$[ebp]
  00021	e8 00 00 00 00	 call	 ??$_Make_heap@PAUtagShopItemInfo@@HU1@VShopItemInfoSort@@@std@@YAXPAUtagShopItemInfo@@0VShopItemInfoSort@@PAH0@Z ; std::_Make_heap<tagShopItemInfo *,int,tagShopItemInfo,ShopItemInfoSort>
  00026	83 c4 14	 add	 esp, 20			; 00000014H
$LN1@make_heap:

; 2678 : 	}

  00029	5d		 pop	 ebp
  0002a	c3		 ret	 0
??$make_heap@PAUtagShopItemInfo@@VShopItemInfoSort@@@std@@YAXPAUtagShopItemInfo@@0VShopItemInfoSort@@@Z ENDP ; std::make_heap<tagShopItemInfo *,ShopItemInfoSort>
_TEXT	ENDS
PUBLIC	??$_Insertion_sort@PAUtagShopItemInfo@@VShopItemInfoSort@@@std@@YAXPAUtagShopItemInfo@@0VShopItemInfoSort@@@Z ; std::_Insertion_sort<tagShopItemInfo *,ShopItemInfoSort>
; Function compile flags: /Ogsp
;	COMDAT ??$_Insertion_sort@PAUtagShopItemInfo@@VShopItemInfoSort@@@std@@YAXPAUtagShopItemInfo@@0VShopItemInfoSort@@@Z
_TEXT	SEGMENT
__First$ = 8						; size = 4
__Last$ = 12						; size = 4
__Pred$ = 16						; size = 1
??$_Insertion_sort@PAUtagShopItemInfo@@VShopItemInfoSort@@@std@@YAXPAUtagShopItemInfo@@0VShopItemInfoSort@@@Z PROC ; std::_Insertion_sort<tagShopItemInfo *,ShopItemInfoSort>, COMDAT

; 3676 : 	{	// insertion sort [_First, _Last), using _Pred

  00000	55		 push	 ebp
  00001	8b ec		 mov	 ebp, esp

; 3677 : 	_Insertion_sort1(_First, _Last, _Pred, _Val_type(_First));

  00003	6a 00		 push	 0
  00005	ff 75 10	 push	 DWORD PTR __Pred$[ebp]
  00008	ff 75 0c	 push	 DWORD PTR __Last$[ebp]
  0000b	ff 75 08	 push	 DWORD PTR __First$[ebp]
  0000e	e8 00 00 00 00	 call	 ??$_Insertion_sort1@PAUtagShopItemInfo@@VShopItemInfoSort@@U1@@std@@YAXPAUtagShopItemInfo@@0VShopItemInfoSort@@0@Z ; std::_Insertion_sort1<tagShopItemInfo *,ShopItemInfoSort,tagShopItemInfo>
  00013	83 c4 10	 add	 esp, 16			; 00000010H

; 3678 : 	}

  00016	5d		 pop	 ebp
  00017	c3		 ret	 0
??$_Insertion_sort@PAUtagShopItemInfo@@VShopItemInfoSort@@@std@@YAXPAUtagShopItemInfo@@0VShopItemInfoSort@@@Z ENDP ; std::_Insertion_sort<tagShopItemInfo *,ShopItemInfoSort>
_TEXT	ENDS
PUBLIC	??$_Uninit_move@PAUtagShopItemInfo@@PAU1@V?$allocator@UtagShopItemInfo@@@std@@U1@@std@@YAPAUtagShopItemInfo@@PAU1@00AAV?$allocator@UtagShopItemInfo@@@0@0U_Nonscalar_ptr_iterator_tag@0@@Z ; std::_Uninit_move<tagShopItemInfo *,tagShopItemInfo *,std::allocator<tagShopItemInfo>,tagShopItemInfo>
; Function compile flags: /Ogsp
; File c:\program files (x86)\microsoft visual studio 10.0\vc\include\memory
;	COMDAT ??$_Uninit_move@PAUtagShopItemInfo@@PAU1@V?$allocator@UtagShopItemInfo@@@std@@U1@@std@@YAPAUtagShopItemInfo@@PAU1@00AAV?$allocator@UtagShopItemInfo@@@0@0U_Nonscalar_ptr_iterator_tag@0@@Z
_TEXT	SEGMENT
__First$ = 8						; size = 4
__Last$ = 12						; size = 4
__Dest$ = 16						; size = 4
__Al$ = 20						; size = 4
___formal$ = 24						; size = 4
___formal$ = 28						; size = 1
??$_Uninit_move@PAUtagShopItemInfo@@PAU1@V?$allocator@UtagShopItemInfo@@@std@@U1@@std@@YAPAUtagShopItemInfo@@PAU1@00AAV?$allocator@UtagShopItemInfo@@@0@0U_Nonscalar_ptr_iterator_tag@0@@Z PROC ; std::_Uninit_move<tagShopItemInfo *,tagShopItemInfo *,std::allocator<tagShopItemInfo>,tagShopItemInfo>, COMDAT

; 424  : 	{	// move [_First, _Last) to raw _Dest, using _Al, arbitrary type

  00000	55		 push	 ebp
  00001	8b ec		 mov	 ebp, esp
  00003	56		 push	 esi

; 425  : 	_DEBUG_RANGE(_First, _Last);
; 426  : 	_DEBUG_POINTER(_Dest);
; 427  : 	_FwdIt _Next = _Dest;
; 428  : 
; 429  : 	_TRY_BEGIN
; 430  : 	for (; _First != _Last; ++_Dest, ++_First)

  00004	8b 75 08	 mov	 esi, DWORD PTR __First$[ebp]
  00007	eb 16		 jmp	 SHORT $LN24@Uninit_mov
$LL6@Uninit_mov:

; 431  : 		_Cons_val(_Al, _Dest, (_Valty &&)*_First);

  00009	56		 push	 esi
  0000a	ff 75 10	 push	 DWORD PTR __Dest$[ebp]
  0000d	ff 75 14	 push	 DWORD PTR __Al$[ebp]
  00010	e8 00 00 00 00	 call	 ??$_Cons_val@V?$allocator@UtagShopItemInfo@@@std@@UtagShopItemInfo@@U3@@std@@YAXAAV?$allocator@UtagShopItemInfo@@@0@PAUtagShopItemInfo@@$$QAU2@@Z ; std::_Cons_val<std::allocator<tagShopItemInfo>,tagShopItemInfo,tagShopItemInfo>
  00015	83 45 10 2c	 add	 DWORD PTR __Dest$[ebp], 44 ; 0000002cH
  00019	83 c4 0c	 add	 esp, 12			; 0000000cH
  0001c	83 c6 2c	 add	 esi, 44			; 0000002cH
$LN24@Uninit_mov:

; 425  : 	_DEBUG_RANGE(_First, _Last);
; 426  : 	_DEBUG_POINTER(_Dest);
; 427  : 	_FwdIt _Next = _Dest;
; 428  : 
; 429  : 	_TRY_BEGIN
; 430  : 	for (; _First != _Last; ++_Dest, ++_First)

  0001f	3b 75 0c	 cmp	 esi, DWORD PTR __Last$[ebp]
  00022	75 e5		 jne	 SHORT $LL6@Uninit_mov

; 432  : 	_CATCH_ALL
; 433  : 	for (; _Next != _Dest; ++_Next)
; 434  : 		_Dest_val(_Al, _Next);
; 435  : 	_RERAISE;
; 436  : 	_CATCH_END
; 437  : 	return (_Dest);

  00024	8b 45 10	 mov	 eax, DWORD PTR __Dest$[ebp]
  00027	5e		 pop	 esi

; 438  : 	}

  00028	5d		 pop	 ebp
  00029	c3		 ret	 0
??$_Uninit_move@PAUtagShopItemInfo@@PAU1@V?$allocator@UtagShopItemInfo@@@std@@U1@@std@@YAPAUtagShopItemInfo@@PAU1@00AAV?$allocator@UtagShopItemInfo@@@0@0U_Nonscalar_ptr_iterator_tag@0@@Z ENDP ; std::_Uninit_move<tagShopItemInfo *,tagShopItemInfo *,std::allocator<tagShopItemInfo>,tagShopItemInfo>
_TEXT	ENDS
PUBLIC	??$_Median@PAUtagShopItemInfo@@VShopItemInfoSort@@@std@@YAXPAUtagShopItemInfo@@00VShopItemInfoSort@@@Z ; std::_Median<tagShopItemInfo *,ShopItemInfoSort>
; Function compile flags: /Ogsp
; File c:\program files (x86)\microsoft visual studio 10.0\vc\include\algorithm
;	COMDAT ??$_Median@PAUtagShopItemInfo@@VShopItemInfoSort@@@std@@YAXPAUtagShopItemInfo@@00VShopItemInfoSort@@@Z
_TEXT	SEGMENT
tv200 = 8						; size = 4
__First$ = 8						; size = 4
__Mid$ = 12						; size = 4
tv203 = 16						; size = 4
__Last$ = 16						; size = 4
__Pred$ = 20						; size = 1
??$_Median@PAUtagShopItemInfo@@VShopItemInfoSort@@@std@@YAXPAUtagShopItemInfo@@00VShopItemInfoSort@@@Z PROC ; std::_Median<tagShopItemInfo *,ShopItemInfoSort>, COMDAT

; 3695 : 	{	// sort median element to middle

  00000	55		 push	 ebp
  00001	8b ec		 mov	 ebp, esp

; 3696 : 	if (40 < _Last - _First)

  00003	8b 4d 08	 mov	 ecx, DWORD PTR __First$[ebp]
  00006	53		 push	 ebx
  00007	8b 5d 10	 mov	 ebx, DWORD PTR __Last$[ebp]
  0000a	56		 push	 esi
  0000b	8b c3		 mov	 eax, ebx
  0000d	2b c1		 sub	 eax, ecx
  0000f	6a 2c		 push	 44			; 0000002cH
  00011	99		 cdq
  00012	5e		 pop	 esi
  00013	f7 fe		 idiv	 esi
  00015	83 f8 28	 cmp	 eax, 40			; 00000028H
  00018	7e 68		 jle	 SHORT $LN2@Median

; 3697 : 		{	// median of nine
; 3698 : 		size_t _Step = (_Last - _First + 1) / 8;

  0001a	40		 inc	 eax
  0001b	99		 cdq
  0001c	83 e2 07	 and	 edx, 7
  0001f	03 c2		 add	 eax, edx
  00021	57		 push	 edi

; 3699 : 		_Med3(_First, _First + _Step, _First + 2 * _Step, _Pred);

  00022	ff 75 14	 push	 DWORD PTR __Pred$[ebp]
  00025	c1 f8 03	 sar	 eax, 3
  00028	8b f8		 mov	 edi, eax
  0002a	8b f0		 mov	 esi, eax
  0002c	6b ff 58	 imul	 edi, 88			; 00000058H
  0002f	6b f6 2c	 imul	 esi, 44			; 0000002cH
  00032	8d 14 0f	 lea	 edx, DWORD PTR [edi+ecx]
  00035	8d 04 0e	 lea	 eax, DWORD PTR [esi+ecx]
  00038	52		 push	 edx
  00039	50		 push	 eax
  0003a	51		 push	 ecx
  0003b	89 45 08	 mov	 DWORD PTR tv200[ebp], eax
  0003e	e8 00 00 00 00	 call	 ??$_Med3@PAUtagShopItemInfo@@VShopItemInfoSort@@@std@@YAXPAUtagShopItemInfo@@00VShopItemInfoSort@@@Z ; std::_Med3<tagShopItemInfo *,ShopItemInfoSort>

; 3700 : 		_Med3(_Mid - _Step, _Mid, _Mid + _Step, _Pred);

  00043	8b 45 0c	 mov	 eax, DWORD PTR __Mid$[ebp]
  00046	ff 75 14	 push	 DWORD PTR __Pred$[ebp]
  00049	8d 0c 06	 lea	 ecx, DWORD PTR [esi+eax]
  0004c	51		 push	 ecx
  0004d	50		 push	 eax
  0004e	2b c6		 sub	 eax, esi
  00050	50		 push	 eax
  00051	e8 00 00 00 00	 call	 ??$_Med3@PAUtagShopItemInfo@@VShopItemInfoSort@@@std@@YAXPAUtagShopItemInfo@@00VShopItemInfoSort@@@Z ; std::_Med3<tagShopItemInfo *,ShopItemInfoSort>

; 3701 : 		_Med3(_Last - 2 * _Step, _Last - _Step, _Last, _Pred);

  00056	ff 75 14	 push	 DWORD PTR __Pred$[ebp]
  00059	89 5d 10	 mov	 DWORD PTR tv203[ebp], ebx
  0005c	29 75 10	 sub	 DWORD PTR tv203[ebp], esi
  0005f	53		 push	 ebx
  00060	ff 75 10	 push	 DWORD PTR tv203[ebp]
  00063	2b df		 sub	 ebx, edi
  00065	53		 push	 ebx
  00066	e8 00 00 00 00	 call	 ??$_Med3@PAUtagShopItemInfo@@VShopItemInfoSort@@@std@@YAXPAUtagShopItemInfo@@00VShopItemInfoSort@@@Z ; std::_Med3<tagShopItemInfo *,ShopItemInfoSort>

; 3702 : 		_Med3(_First + _Step, _Mid, _Last - _Step, _Pred);

  0006b	ff 75 14	 push	 DWORD PTR __Pred$[ebp]
  0006e	ff 75 10	 push	 DWORD PTR tv203[ebp]
  00071	ff 75 0c	 push	 DWORD PTR __Mid$[ebp]
  00074	ff 75 08	 push	 DWORD PTR tv200[ebp]
  00077	e8 00 00 00 00	 call	 ??$_Med3@PAUtagShopItemInfo@@VShopItemInfoSort@@@std@@YAXPAUtagShopItemInfo@@00VShopItemInfoSort@@@Z ; std::_Med3<tagShopItemInfo *,ShopItemInfoSort>
  0007c	83 c4 40	 add	 esp, 64			; 00000040H
  0007f	5f		 pop	 edi

; 3703 : 		}
; 3704 : 	else

  00080	eb 10		 jmp	 SHORT $LN1@Median
$LN2@Median:

; 3705 : 		_Med3(_First, _Mid, _Last, _Pred);

  00082	ff 75 14	 push	 DWORD PTR __Pred$[ebp]
  00085	53		 push	 ebx
  00086	ff 75 0c	 push	 DWORD PTR __Mid$[ebp]
  00089	51		 push	 ecx
  0008a	e8 00 00 00 00	 call	 ??$_Med3@PAUtagShopItemInfo@@VShopItemInfoSort@@@std@@YAXPAUtagShopItemInfo@@00VShopItemInfoSort@@@Z ; std::_Med3<tagShopItemInfo *,ShopItemInfoSort>
  0008f	83 c4 10	 add	 esp, 16			; 00000010H
$LN1@Median:
  00092	5e		 pop	 esi
  00093	5b		 pop	 ebx

; 3706 : 	}

  00094	5d		 pop	 ebp
  00095	c3		 ret	 0
??$_Median@PAUtagShopItemInfo@@VShopItemInfoSort@@@std@@YAXPAUtagShopItemInfo@@00VShopItemInfoSort@@@Z ENDP ; std::_Median<tagShopItemInfo *,ShopItemInfoSort>
_TEXT	ENDS
PUBLIC	??$_Pop_heap@PAUtagShopItemInfo@@VShopItemInfoSort@@@std@@YAXPAUtagShopItemInfo@@0VShopItemInfoSort@@@Z ; std::_Pop_heap<tagShopItemInfo *,ShopItemInfoSort>
; Function compile flags: /Ogsp
;	COMDAT ??$_Pop_heap@PAUtagShopItemInfo@@VShopItemInfoSort@@@std@@YAXPAUtagShopItemInfo@@0VShopItemInfoSort@@@Z
_TEXT	SEGMENT
__First$ = 8						; size = 4
__Last$ = 12						; size = 4
__Pred$ = 16						; size = 1
??$_Pop_heap@PAUtagShopItemInfo@@VShopItemInfoSort@@@std@@YAXPAUtagShopItemInfo@@0VShopItemInfoSort@@@Z PROC ; std::_Pop_heap<tagShopItemInfo *,ShopItemInfoSort>, COMDAT

; 2610 : 	{	// pop *_First to *(_Last - 1) and reheap, using _Pred

  00000	55		 push	 ebp
  00001	8b ec		 mov	 ebp, esp

; 2611 : 	_Pop_heap_0(_Unchecked(_First), _Unchecked(_Last), _Pred,
; 2612 : 		_Val_type(_First));

  00003	6a 00		 push	 0
  00005	ff 75 10	 push	 DWORD PTR __Pred$[ebp]
  00008	ff 75 0c	 push	 DWORD PTR __Last$[ebp]
  0000b	ff 75 08	 push	 DWORD PTR __First$[ebp]
  0000e	e8 00 00 00 00	 call	 ??$_Pop_heap_0@PAUtagShopItemInfo@@U1@VShopItemInfoSort@@@std@@YAXPAUtagShopItemInfo@@0VShopItemInfoSort@@0@Z ; std::_Pop_heap_0<tagShopItemInfo *,tagShopItemInfo,ShopItemInfoSort>
  00013	83 c4 10	 add	 esp, 16			; 00000010H

; 2613 : 	}

  00016	5d		 pop	 ebp
  00017	c3		 ret	 0
??$_Pop_heap@PAUtagShopItemInfo@@VShopItemInfoSort@@@std@@YAXPAUtagShopItemInfo@@0VShopItemInfoSort@@@Z ENDP ; std::_Pop_heap<tagShopItemInfo *,ShopItemInfoSort>
_TEXT	ENDS
PUBLIC	??$_Destroy_range@V?$allocator@UtagShopItemInfo@@@std@@@std@@YAXPAUtagShopItemInfo@@0AAV?$allocator@UtagShopItemInfo@@@0@@Z ; std::_Destroy_range<std::allocator<tagShopItemInfo> >
; Function compile flags: /Ogsp
; File c:\program files (x86)\microsoft visual studio 10.0\vc\include\xmemory
;	COMDAT ??$_Destroy_range@V?$allocator@UtagShopItemInfo@@@std@@@std@@YAXPAUtagShopItemInfo@@0AAV?$allocator@UtagShopItemInfo@@@0@@Z
_TEXT	SEGMENT
__First$ = 8						; size = 4
__Last$ = 12						; size = 4
__Al$ = 16						; size = 4
??$_Destroy_range@V?$allocator@UtagShopItemInfo@@@std@@@std@@YAXPAUtagShopItemInfo@@0AAV?$allocator@UtagShopItemInfo@@@0@@Z PROC ; std::_Destroy_range<std::allocator<tagShopItemInfo> >, COMDAT

; 88   : 	_Destroy_range(_First, _Last, _Al, _Ptr_cat(_First, _Last));
; 89   : 	}

  00000	c3		 ret	 0
??$_Destroy_range@V?$allocator@UtagShopItemInfo@@@std@@@std@@YAXPAUtagShopItemInfo@@0AAV?$allocator@UtagShopItemInfo@@@0@@Z ENDP ; std::_Destroy_range<std::allocator<tagShopItemInfo> >
_TEXT	ENDS
PUBLIC	??$_Uninitialized_move@PAUtagShopItemInfo@@PAU1@V?$allocator@UtagShopItemInfo@@@std@@@std@@YAPAUtagShopItemInfo@@PAU1@00AAV?$allocator@UtagShopItemInfo@@@0@@Z ; std::_Uninitialized_move<tagShopItemInfo *,tagShopItemInfo *,std::allocator<tagShopItemInfo> >
; Function compile flags: /Ogsp
; File c:\program files (x86)\microsoft visual studio 10.0\vc\include\memory
;	COMDAT ??$_Uninitialized_move@PAUtagShopItemInfo@@PAU1@V?$allocator@UtagShopItemInfo@@@std@@@std@@YAPAUtagShopItemInfo@@PAU1@00AAV?$allocator@UtagShopItemInfo@@@0@@Z
_TEXT	SEGMENT
__Cat$559621 = -4					; size = 1
__First$ = 8						; size = 4
__Last$ = 12						; size = 4
__Dest$ = 16						; size = 4
__Al$ = 20						; size = 4
??$_Uninitialized_move@PAUtagShopItemInfo@@PAU1@V?$allocator@UtagShopItemInfo@@@std@@@std@@YAPAUtagShopItemInfo@@PAU1@00AAV?$allocator@UtagShopItemInfo@@@0@@Z PROC ; std::_Uninitialized_move<tagShopItemInfo *,tagShopItemInfo *,std::allocator<tagShopItemInfo> >, COMDAT

; 469  : 	{	// move [_First, _Last) to raw _Dest, using _Al

  00000	55		 push	 ebp
  00001	8b ec		 mov	 ebp, esp
  00003	51		 push	 ecx

; 470  : 	return (_Uninit_move(_First, _Last, _Dest, _Al,
; 471  : 		_Val_type(_First), _Ptr_cat(_First, _Dest)));

  00004	ff 75 fc	 push	 DWORD PTR __Cat$559621[ebp]
  00007	6a 00		 push	 0
  00009	ff 75 14	 push	 DWORD PTR __Al$[ebp]
  0000c	ff 75 10	 push	 DWORD PTR __Dest$[ebp]
  0000f	ff 75 0c	 push	 DWORD PTR __Last$[ebp]
  00012	ff 75 08	 push	 DWORD PTR __First$[ebp]
  00015	e8 00 00 00 00	 call	 ??$_Uninit_move@PAUtagShopItemInfo@@PAU1@V?$allocator@UtagShopItemInfo@@@std@@U1@@std@@YAPAUtagShopItemInfo@@PAU1@00AAV?$allocator@UtagShopItemInfo@@@0@0U_Nonscalar_ptr_iterator_tag@0@@Z ; std::_Uninit_move<tagShopItemInfo *,tagShopItemInfo *,std::allocator<tagShopItemInfo>,tagShopItemInfo>
  0001a	83 c4 18	 add	 esp, 24			; 00000018H

; 472  : 	}

  0001d	c9		 leave
  0001e	c3		 ret	 0
??$_Uninitialized_move@PAUtagShopItemInfo@@PAU1@V?$allocator@UtagShopItemInfo@@@std@@@std@@YAPAUtagShopItemInfo@@PAU1@00AAV?$allocator@UtagShopItemInfo@@@0@@Z ENDP ; std::_Uninitialized_move<tagShopItemInfo *,tagShopItemInfo *,std::allocator<tagShopItemInfo> >
_TEXT	ENDS
PUBLIC	??$_Unguarded_partition@PAUtagShopItemInfo@@VShopItemInfoSort@@@std@@YA?AU?$pair@PAUtagShopItemInfo@@PAU1@@0@PAUtagShopItemInfo@@0VShopItemInfoSort@@@Z ; std::_Unguarded_partition<tagShopItemInfo *,ShopItemInfoSort>
; Function compile flags: /Ogsp
; File c:\program files (x86)\microsoft visual studio 10.0\vc\include\algorithm
;	COMDAT ??$_Unguarded_partition@PAUtagShopItemInfo@@VShopItemInfoSort@@@std@@YA?AU?$pair@PAUtagShopItemInfo@@PAU1@@0@PAUtagShopItemInfo@@0VShopItemInfoSort@@@Z
_TEXT	SEGMENT
tv352 = -8						; size = 4
tv264 = -8						; size = 4
__Glast$ = -4						; size = 4
___$ReturnUdt$ = 8					; size = 4
__First$ = 12						; size = 4
__Last$ = 16						; size = 4
__Pred$ = 20						; size = 1
??$_Unguarded_partition@PAUtagShopItemInfo@@VShopItemInfoSort@@@std@@YA?AU?$pair@PAUtagShopItemInfo@@PAU1@@0@PAUtagShopItemInfo@@0VShopItemInfoSort@@@Z PROC ; std::_Unguarded_partition<tagShopItemInfo *,ShopItemInfoSort>, COMDAT

; 3712 : 	{	// partition [_First, _Last), using _Pred

  00000	55		 push	 ebp
  00001	8b ec		 mov	 ebp, esp
  00003	51		 push	 ecx
  00004	51		 push	 ecx

; 3713 : 	_RanIt _Mid = _First + (_Last - _First) / 2;

  00005	8b 4d 10	 mov	 ecx, DWORD PTR __Last$[ebp]
  00008	53		 push	 ebx
  00009	8b 5d 0c	 mov	 ebx, DWORD PTR __First$[ebp]
  0000c	56		 push	 esi
  0000d	57		 push	 edi
  0000e	8b c1		 mov	 eax, ecx
  00010	2b c3		 sub	 eax, ebx
  00012	6a 2c		 push	 44			; 0000002cH
  00014	5e		 pop	 esi
  00015	99		 cdq
  00016	f7 fe		 idiv	 esi

; 3714 : 	_Median(_First, _Mid, _Last - 1, _Pred);

  00018	ff 75 14	 push	 DWORD PTR __Pred$[ebp]
  0001b	83 c1 d4	 add	 ecx, -44		; ffffffd4H
  0001e	51		 push	 ecx
  0001f	99		 cdq
  00020	2b c2		 sub	 eax, edx
  00022	8b f0		 mov	 esi, eax
  00024	d1 fe		 sar	 esi, 1
  00026	6b f6 2c	 imul	 esi, 44			; 0000002cH
  00029	03 f3		 add	 esi, ebx
  0002b	56		 push	 esi
  0002c	53		 push	 ebx
  0002d	e8 00 00 00 00	 call	 ??$_Median@PAUtagShopItemInfo@@VShopItemInfoSort@@@std@@YAXPAUtagShopItemInfo@@00VShopItemInfoSort@@@Z ; std::_Median<tagShopItemInfo *,ShopItemInfoSort>
  00032	83 c4 10	 add	 esp, 16			; 00000010H

; 3715 : 	_RanIt _Pfirst = _Mid;
; 3716 : 	_RanIt _Plast = _Pfirst + 1;

  00035	8d 7e 2c	 lea	 edi, DWORD PTR [esi+44]
  00038	eb 27		 jmp	 SHORT $LN72@Unguarded_
$LL27@Unguarded_:

; 3717 : 
; 3718 : 	while (_First < _Pfirst
; 3719 : 		&& !_DEBUG_LT_PRED(_Pred, *(_Pfirst - 1), *_Pfirst)
; 3720 : 		&& !_Pred(*_Pfirst, *(_Pfirst - 1)))

  0003a	8d 46 d4	 lea	 eax, DWORD PTR [esi-44]
  0003d	56		 push	 esi
  0003e	50		 push	 eax
  0003f	8d 4d 14	 lea	 ecx, DWORD PTR __Pred$[ebp]
  00042	89 45 f8	 mov	 DWORD PTR tv264[ebp], eax
  00045	e8 00 00 00 00	 call	 ??RShopItemInfoSort@@QBE_NABUtagShopItemInfo@@0@Z ; ShopItemInfoSort::operator()
  0004a	84 c0		 test	 al, al
  0004c	75 38		 jne	 SHORT $LN73@Unguarded_
  0004e	ff 75 f8	 push	 DWORD PTR tv264[ebp]
  00051	8d 4d 14	 lea	 ecx, DWORD PTR __Pred$[ebp]
  00054	56		 push	 esi
  00055	e8 00 00 00 00	 call	 ??RShopItemInfoSort@@QBE_NABUtagShopItemInfo@@0@Z ; ShopItemInfoSort::operator()
  0005a	84 c0		 test	 al, al
  0005c	75 28		 jne	 SHORT $LN73@Unguarded_

; 3721 : 		--_Pfirst;

  0005e	8b 75 f8	 mov	 esi, DWORD PTR tv264[ebp]
$LN72@Unguarded_:

; 3717 : 
; 3718 : 	while (_First < _Pfirst
; 3719 : 		&& !_DEBUG_LT_PRED(_Pred, *(_Pfirst - 1), *_Pfirst)
; 3720 : 		&& !_Pred(*_Pfirst, *(_Pfirst - 1)))

  00061	3b de		 cmp	 ebx, esi
  00063	72 d5		 jb	 SHORT $LL27@Unguarded_

; 3725 : 		++_Plast;

  00065	eb 1f		 jmp	 SHORT $LN73@Unguarded_
$LL25@Unguarded_:

; 3722 : 	while (_Plast < _Last
; 3723 : 		&& !_DEBUG_LT_PRED(_Pred, *_Plast, *_Pfirst)
; 3724 : 		&& !_Pred(*_Pfirst, *_Plast))

  00067	56		 push	 esi
  00068	57		 push	 edi
  00069	8d 4d 14	 lea	 ecx, DWORD PTR __Pred$[ebp]
  0006c	e8 00 00 00 00	 call	 ??RShopItemInfoSort@@QBE_NABUtagShopItemInfo@@0@Z ; ShopItemInfoSort::operator()
  00071	84 c0		 test	 al, al
  00073	75 16		 jne	 SHORT $LN24@Unguarded_
  00075	57		 push	 edi
  00076	56		 push	 esi
  00077	8d 4d 14	 lea	 ecx, DWORD PTR __Pred$[ebp]
  0007a	e8 00 00 00 00	 call	 ??RShopItemInfoSort@@QBE_NABUtagShopItemInfo@@0@Z ; ShopItemInfoSort::operator()
  0007f	84 c0		 test	 al, al
  00081	75 08		 jne	 SHORT $LN24@Unguarded_

; 3725 : 		++_Plast;

  00083	83 c7 2c	 add	 edi, 44			; 0000002cH
$LN73@Unguarded_:

; 3722 : 	while (_Plast < _Last
; 3723 : 		&& !_DEBUG_LT_PRED(_Pred, *_Plast, *_Pfirst)
; 3724 : 		&& !_Pred(*_Pfirst, *_Plast))

  00086	3b 7d 10	 cmp	 edi, DWORD PTR __Last$[ebp]
  00089	72 dc		 jb	 SHORT $LL25@Unguarded_
$LN24@Unguarded_:

; 3726 : 
; 3727 : 	_RanIt _Gfirst = _Plast;

  0008b	8b df		 mov	 ebx, edi

; 3728 : 	_RanIt _Glast = _Pfirst;

  0008d	89 75 fc	 mov	 DWORD PTR __Glast$[ebp], esi

; 3729 : 
; 3730 : 	for (; ; )
; 3731 : 		{	// partition
; 3732 : 		for (; _Gfirst < _Last; ++_Gfirst)

  00090	eb 2d		 jmp	 SHORT $LN75@Unguarded_
$LL21@Unguarded_:

; 3733 : 			if (_DEBUG_LT_PRED(_Pred, *_Pfirst, *_Gfirst))

  00092	53		 push	 ebx
  00093	56		 push	 esi
  00094	8d 4d 14	 lea	 ecx, DWORD PTR __Pred$[ebp]
  00097	e8 00 00 00 00	 call	 ??RShopItemInfoSort@@QBE_NABUtagShopItemInfo@@0@Z ; ShopItemInfoSort::operator()
  0009c	84 c0		 test	 al, al
  0009e	75 1c		 jne	 SHORT $LN20@Unguarded_

; 3734 : 				;
; 3735 : 			else if (_Pred(*_Gfirst, *_Pfirst))

  000a0	56		 push	 esi
  000a1	53		 push	 ebx
  000a2	8d 4d 14	 lea	 ecx, DWORD PTR __Pred$[ebp]
  000a5	e8 00 00 00 00	 call	 ??RShopItemInfoSort@@QBE_NABUtagShopItemInfo@@0@Z ; ShopItemInfoSort::operator()
  000aa	84 c0		 test	 al, al
  000ac	75 16		 jne	 SHORT $LN69@Unguarded_

; 3736 : 				break;
; 3737 : 			else
; 3738 : 				_STD iter_swap(_Plast++, _Gfirst);

  000ae	8b c7		 mov	 eax, edi
  000b0	53		 push	 ebx
  000b1	83 c7 2c	 add	 edi, 44			; 0000002cH
  000b4	50		 push	 eax
$LN76@Unguarded_:
  000b5	e8 00 00 00 00	 call	 ??$swap@UtagShopItemInfo@@@std@@YAXAAUtagShopItemInfo@@0@Z ; std::swap<tagShopItemInfo>
  000ba	59		 pop	 ecx
  000bb	59		 pop	 ecx
$LN20@Unguarded_:

; 3729 : 
; 3730 : 	for (; ; )
; 3731 : 		{	// partition
; 3732 : 		for (; _Gfirst < _Last; ++_Gfirst)

  000bc	83 c3 2c	 add	 ebx, 44			; 0000002cH
$LN75@Unguarded_:
  000bf	3b 5d 10	 cmp	 ebx, DWORD PTR __Last$[ebp]
  000c2	72 ce		 jb	 SHORT $LL21@Unguarded_
$LN69@Unguarded_:

; 3739 : 		for (; _First < _Glast; --_Glast)

  000c4	8b 45 fc	 mov	 eax, DWORD PTR __Glast$[ebp]
  000c7	39 45 0c	 cmp	 DWORD PTR __First$[ebp], eax
  000ca	73 44		 jae	 SHORT $LN71@Unguarded_
  000cc	83 c0 d4	 add	 eax, -44		; ffffffd4H
  000cf	89 45 f8	 mov	 DWORD PTR tv352[ebp], eax
$LL70@Unguarded_:

; 3740 : 			if (_DEBUG_LT_PRED(_Pred, *(_Glast - 1), *_Pfirst))

  000d2	56		 push	 esi
  000d3	ff 75 f8	 push	 DWORD PTR tv352[ebp]
  000d6	8d 4d 14	 lea	 ecx, DWORD PTR __Pred$[ebp]
  000d9	e8 00 00 00 00	 call	 ??RShopItemInfoSort@@QBE_NABUtagShopItemInfo@@0@Z ; ShopItemInfoSort::operator()
  000de	84 c0		 test	 al, al
  000e0	75 1e		 jne	 SHORT $LN13@Unguarded_

; 3741 : 				;
; 3742 : 			else if (_Pred(*_Pfirst, *(_Glast - 1)))

  000e2	ff 75 f8	 push	 DWORD PTR tv352[ebp]
  000e5	8d 4d 14	 lea	 ecx, DWORD PTR __Pred$[ebp]
  000e8	56		 push	 esi
  000e9	e8 00 00 00 00	 call	 ??RShopItemInfoSort@@QBE_NABUtagShopItemInfo@@0@Z ; ShopItemInfoSort::operator()
  000ee	84 c0		 test	 al, al
  000f0	75 1e		 jne	 SHORT $LN71@Unguarded_

; 3743 : 				break;
; 3744 : 			else
; 3745 : 				_STD iter_swap(--_Pfirst, _Glast - 1);

  000f2	ff 75 f8	 push	 DWORD PTR tv352[ebp]
  000f5	83 ee 2c	 sub	 esi, 44			; 0000002cH
  000f8	56		 push	 esi
  000f9	e8 00 00 00 00	 call	 ??$swap@UtagShopItemInfo@@@std@@YAXAAUtagShopItemInfo@@0@Z ; std::swap<tagShopItemInfo>
  000fe	59		 pop	 ecx
  000ff	59		 pop	 ecx
$LN13@Unguarded_:

; 3739 : 		for (; _First < _Glast; --_Glast)

  00100	83 6d fc 2c	 sub	 DWORD PTR __Glast$[ebp], 44 ; 0000002cH
  00104	8b 45 0c	 mov	 eax, DWORD PTR __First$[ebp]
  00107	83 6d f8 2c	 sub	 DWORD PTR tv352[ebp], 44 ; 0000002cH
  0010b	3b 45 fc	 cmp	 eax, DWORD PTR __Glast$[ebp]
  0010e	72 c2		 jb	 SHORT $LL70@Unguarded_
$LN71@Unguarded_:

; 3746 : 		if (_Glast == _First && _Gfirst == _Last)

  00110	8b 45 fc	 mov	 eax, DWORD PTR __Glast$[ebp]
  00113	3b 45 0c	 cmp	 eax, DWORD PTR __First$[ebp]
  00116	75 1f		 jne	 SHORT $LN6@Unguarded_
  00118	3b 5d 10	 cmp	 ebx, DWORD PTR __Last$[ebp]
  0011b	74 4d		 je	 SHORT $LN64@Unguarded_

; 3748 : 
; 3749 : 		if (_Glast == _First)
; 3750 : 			{	// no room at bottom, rotate pivot upward
; 3751 : 			if (_Plast != _Gfirst)

  0011d	3b fb		 cmp	 edi, ebx
  0011f	74 09		 je	 SHORT $LN46@Unguarded_

; 3752 : 				_STD iter_swap(_Pfirst, _Plast);

  00121	57		 push	 edi
  00122	56		 push	 esi
  00123	e8 00 00 00 00	 call	 ??$swap@UtagShopItemInfo@@@std@@YAXAAUtagShopItemInfo@@0@Z ; std::swap<tagShopItemInfo>
  00128	59		 pop	 ecx
  00129	59		 pop	 ecx
$LN46@Unguarded_:

; 3753 : 			++_Plast;
; 3754 : 			_STD iter_swap(_Pfirst++, _Gfirst++);

  0012a	53		 push	 ebx
  0012b	56		 push	 esi
  0012c	83 c7 2c	 add	 edi, 44			; 0000002cH
  0012f	83 c6 2c	 add	 esi, 44			; 0000002cH
  00132	83 c3 2c	 add	 ebx, 44			; 0000002cH
  00135	eb 20		 jmp	 SHORT $LN74@Unguarded_
$LN6@Unguarded_:

; 3755 : 			}
; 3756 : 		else if (_Gfirst == _Last)
; 3757 : 			{	// no room at top, rotate pivot downward
; 3758 : 			if (--_Glast != --_Pfirst)

  00137	83 e8 2c	 sub	 eax, 44			; 0000002cH
  0013a	89 45 fc	 mov	 DWORD PTR __Glast$[ebp], eax
  0013d	3b 5d 10	 cmp	 ebx, DWORD PTR __Last$[ebp]
  00140	75 21		 jne	 SHORT $LN3@Unguarded_
  00142	83 ee 2c	 sub	 esi, 44			; 0000002cH
  00145	3b c6		 cmp	 eax, esi
  00147	74 09		 je	 SHORT $LN50@Unguarded_

; 3759 : 				_STD iter_swap(_Glast, _Pfirst);

  00149	56		 push	 esi
  0014a	50		 push	 eax
  0014b	e8 00 00 00 00	 call	 ??$swap@UtagShopItemInfo@@@std@@YAXAAUtagShopItemInfo@@0@Z ; std::swap<tagShopItemInfo>
  00150	59		 pop	 ecx
  00151	59		 pop	 ecx
$LN50@Unguarded_:

; 3760 : 			_STD iter_swap(_Pfirst, --_Plast);

  00152	83 ef 2c	 sub	 edi, 44			; 0000002cH
  00155	57		 push	 edi
  00156	56		 push	 esi
$LN74@Unguarded_:
  00157	e8 00 00 00 00	 call	 ??$swap@UtagShopItemInfo@@@std@@YAXAAUtagShopItemInfo@@0@Z ; std::swap<tagShopItemInfo>
  0015c	59		 pop	 ecx
  0015d	59		 pop	 ecx

; 3761 : 			}
; 3762 : 		else

  0015e	e9 5c ff ff ff	 jmp	 $LN75@Unguarded_
$LN3@Unguarded_:

; 3763 : 			_STD iter_swap(_Gfirst++, --_Glast);

  00163	50		 push	 eax
  00164	53		 push	 ebx

; 3764 : 		}

  00165	e9 4b ff ff ff	 jmp	 $LN76@Unguarded_
$LN64@Unguarded_:

; 3747 : 			return (_STD pair<_RanIt, _RanIt>(_Pfirst, _Plast));

  0016a	8b 45 08	 mov	 eax, DWORD PTR ___$ReturnUdt$[ebp]
  0016d	89 78 04	 mov	 DWORD PTR [eax+4], edi
  00170	5f		 pop	 edi
  00171	89 30		 mov	 DWORD PTR [eax], esi
  00173	5e		 pop	 esi
  00174	5b		 pop	 ebx

; 3765 : 	}

  00175	c9		 leave
  00176	c3		 ret	 0
??$_Unguarded_partition@PAUtagShopItemInfo@@VShopItemInfoSort@@@std@@YA?AU?$pair@PAUtagShopItemInfo@@PAU1@@0@PAUtagShopItemInfo@@0VShopItemInfoSort@@@Z ENDP ; std::_Unguarded_partition<tagShopItemInfo *,ShopItemInfoSort>
_TEXT	ENDS
PUBLIC	??$_Sort_heap@PAUtagShopItemInfo@@VShopItemInfoSort@@@std@@YAXPAUtagShopItemInfo@@0VShopItemInfoSort@@@Z ; std::_Sort_heap<tagShopItemInfo *,ShopItemInfoSort>
; Function compile flags: /Ogsp
;	COMDAT ??$_Sort_heap@PAUtagShopItemInfo@@VShopItemInfoSort@@@std@@YAXPAUtagShopItemInfo@@0VShopItemInfoSort@@@Z
_TEXT	SEGMENT
__First$ = 8						; size = 4
__Last$ = 12						; size = 4
__Pred$ = 16						; size = 1
??$_Sort_heap@PAUtagShopItemInfo@@VShopItemInfoSort@@@std@@YAXPAUtagShopItemInfo@@0VShopItemInfoSort@@@Z PROC ; std::_Sort_heap<tagShopItemInfo *,ShopItemInfoSort>, COMDAT

; 2700 : 	{	// order heap by repeatedly popping, using _Pred

  00000	55		 push	 ebp
  00001	8b ec		 mov	 ebp, esp

; 2701 : 	for (; 1 < _Last - _First; --_Last)

  00003	8b 4d 0c	 mov	 ecx, DWORD PTR __Last$[ebp]
  00006	2b 4d 08	 sub	 ecx, DWORD PTR __First$[ebp]
  00009	57		 push	 edi
  0000a	8b c1		 mov	 eax, ecx
  0000c	6a 2c		 push	 44			; 0000002cH
  0000e	99		 cdq
  0000f	5f		 pop	 edi
  00010	f7 ff		 idiv	 edi
  00012	83 f8 01	 cmp	 eax, 1
  00015	7e 29		 jle	 SHORT $LN1@Sort_heap
  00017	8b f9		 mov	 edi, ecx
$LL3@Sort_heap:

; 2702 : 		_Pop_heap(_First, _Last, _Pred);

  00019	6a 00		 push	 0
  0001b	ff 75 10	 push	 DWORD PTR __Pred$[ebp]
  0001e	ff 75 0c	 push	 DWORD PTR __Last$[ebp]
  00021	ff 75 08	 push	 DWORD PTR __First$[ebp]
  00024	e8 00 00 00 00	 call	 ??$_Pop_heap_0@PAUtagShopItemInfo@@U1@VShopItemInfoSort@@@std@@YAXPAUtagShopItemInfo@@0VShopItemInfoSort@@0@Z ; std::_Pop_heap_0<tagShopItemInfo *,tagShopItemInfo,ShopItemInfoSort>
  00029	83 c4 10	 add	 esp, 16			; 00000010H
  0002c	83 ef 2c	 sub	 edi, 44			; 0000002cH
  0002f	8b c7		 mov	 eax, edi
  00031	6a 2c		 push	 44			; 0000002cH
  00033	99		 cdq
  00034	59		 pop	 ecx
  00035	f7 f9		 idiv	 ecx
  00037	83 6d 0c 2c	 sub	 DWORD PTR __Last$[ebp], 44 ; 0000002cH
  0003b	83 f8 01	 cmp	 eax, 1
  0003e	7f d9		 jg	 SHORT $LL3@Sort_heap
$LN1@Sort_heap:
  00040	5f		 pop	 edi

; 2703 : 	}

  00041	5d		 pop	 ebp
  00042	c3		 ret	 0
??$_Sort_heap@PAUtagShopItemInfo@@VShopItemInfoSort@@@std@@YAXPAUtagShopItemInfo@@0VShopItemInfoSort@@@Z ENDP ; std::_Sort_heap<tagShopItemInfo *,ShopItemInfoSort>
_TEXT	ENDS
PUBLIC	?_Destroy@?$vector@UtagShopItemInfo@@V?$allocator@UtagShopItemInfo@@@std@@@std@@IAEXPAUtagShopItemInfo@@0@Z ; std::vector<tagShopItemInfo,std::allocator<tagShopItemInfo> >::_Destroy
; Function compile flags: /Ogsp
; File c:\program files (x86)\microsoft visual studio 10.0\vc\include\vector
;	COMDAT ?_Destroy@?$vector@UtagShopItemInfo@@V?$allocator@UtagShopItemInfo@@@std@@@std@@IAEXPAUtagShopItemInfo@@0@Z
_TEXT	SEGMENT
__First$ = 8						; size = 4
__Last$ = 12						; size = 4
?_Destroy@?$vector@UtagShopItemInfo@@V?$allocator@UtagShopItemInfo@@@std@@@std@@IAEXPAUtagShopItemInfo@@0@Z PROC ; std::vector<tagShopItemInfo,std::allocator<tagShopItemInfo> >::_Destroy, COMDAT
; _this$ = ecx

; 1270 : 		_Destroy_range(_First, _Last, this->_Alval);
; 1271 : 		}

  00000	c2 08 00	 ret	 8
?_Destroy@?$vector@UtagShopItemInfo@@V?$allocator@UtagShopItemInfo@@@std@@@std@@IAEXPAUtagShopItemInfo@@0@Z ENDP ; std::vector<tagShopItemInfo,std::allocator<tagShopItemInfo> >::_Destroy
_TEXT	ENDS
PUBLIC	?_Tidy@?$vector@UtagShopItemInfo@@V?$allocator@UtagShopItemInfo@@@std@@@std@@IAEXXZ ; std::vector<tagShopItemInfo,std::allocator<tagShopItemInfo> >::_Tidy
EXTRN	__imp_?_Orphan_all@_Container_base0@std@@QAEXXZ:PROC
; Function compile flags: /Ogsp
;	COMDAT ?_Tidy@?$vector@UtagShopItemInfo@@V?$allocator@UtagShopItemInfo@@@std@@@std@@IAEXXZ
_TEXT	SEGMENT
?_Tidy@?$vector@UtagShopItemInfo@@V?$allocator@UtagShopItemInfo@@@std@@@std@@IAEXXZ PROC ; std::vector<tagShopItemInfo,std::allocator<tagShopItemInfo> >::_Tidy, COMDAT
; _this$ = ecx

; 1301 : 		{	// free all storage

  00000	56		 push	 esi
  00001	8b f1		 mov	 esi, ecx

; 1302 : 		if (this->_Myfirst != 0)

  00003	83 3e 00	 cmp	 DWORD PTR [esi], 0
  00006	74 0e		 je	 SHORT $LN21@Tidy

; 1303 : 			{	// something to free, destroy and deallocate it
; 1304 : 			this->_Orphan_all();

  00008	ff 15 00 00 00
	00		 call	 DWORD PTR __imp_?_Orphan_all@_Container_base0@std@@QAEXXZ

; 1305 : 			_Destroy(this->_Myfirst, this->_Mylast);
; 1306 : 			this->_Alval.deallocate(this->_Myfirst,
; 1307 : 				this->_Myend - this->_Myfirst);

  0000e	ff 36		 push	 DWORD PTR [esi]
  00010	e8 00 00 00 00	 call	 ??3@YAXPAX@Z		; operator delete
  00015	59		 pop	 ecx
$LN21@Tidy:

; 1308 : 			}
; 1309 : 		this->_Myfirst = 0;

  00016	83 26 00	 and	 DWORD PTR [esi], 0

; 1310 : 		this->_Mylast = 0;

  00019	83 66 04 00	 and	 DWORD PTR [esi+4], 0

; 1311 : 		this->_Myend = 0;

  0001d	83 66 08 00	 and	 DWORD PTR [esi+8], 0
  00021	5e		 pop	 esi

; 1312 : 		}

  00022	c3		 ret	 0
?_Tidy@?$vector@UtagShopItemInfo@@V?$allocator@UtagShopItemInfo@@@std@@@std@@IAEXXZ ENDP ; std::vector<tagShopItemInfo,std::allocator<tagShopItemInfo> >::_Tidy
_TEXT	ENDS
PUBLIC	??$_Umove@PAUtagShopItemInfo@@@?$vector@UtagShopItemInfo@@V?$allocator@UtagShopItemInfo@@@std@@@std@@IAEPAUtagShopItemInfo@@PAU2@00@Z ; std::vector<tagShopItemInfo,std::allocator<tagShopItemInfo> >::_Umove<tagShopItemInfo *>
; Function compile flags: /Ogsp
;	COMDAT ??$_Umove@PAUtagShopItemInfo@@@?$vector@UtagShopItemInfo@@V?$allocator@UtagShopItemInfo@@@std@@@std@@IAEPAUtagShopItemInfo@@PAU2@00@Z
_TEXT	SEGMENT
__First$ = 8						; size = 4
__Last$ = 12						; size = 4
__Ptr$ = 16						; size = 4
??$_Umove@PAUtagShopItemInfo@@@?$vector@UtagShopItemInfo@@V?$allocator@UtagShopItemInfo@@@std@@@std@@IAEPAUtagShopItemInfo@@PAU2@00@Z PROC ; std::vector<tagShopItemInfo,std::allocator<tagShopItemInfo> >::_Umove<tagShopItemInfo *>, COMDAT
; _this$ = ecx

; 1322 : 		pointer _Umove(_Iter _First, _Iter _Last, pointer _Ptr)

  00000	55		 push	 ebp
  00001	8b ec		 mov	 ebp, esp

; 1323 : 		{	// move initializing [_First, _Last), using allocator
; 1324 : 		return (_Uninitialized_move(_First, _Last,
; 1325 : 			_Ptr, this->_Alval));

  00003	83 c1 0c	 add	 ecx, 12			; 0000000cH
  00006	51		 push	 ecx
  00007	ff 75 10	 push	 DWORD PTR __Ptr$[ebp]
  0000a	ff 75 0c	 push	 DWORD PTR __Last$[ebp]
  0000d	ff 75 08	 push	 DWORD PTR __First$[ebp]
  00010	e8 00 00 00 00	 call	 ??$_Uninitialized_move@PAUtagShopItemInfo@@PAU1@V?$allocator@UtagShopItemInfo@@@std@@@std@@YAPAUtagShopItemInfo@@PAU1@00AAV?$allocator@UtagShopItemInfo@@@0@@Z ; std::_Uninitialized_move<tagShopItemInfo *,tagShopItemInfo *,std::allocator<tagShopItemInfo> >
  00015	83 c4 10	 add	 esp, 16			; 00000010H

; 1326 : 		}

  00018	5d		 pop	 ebp
  00019	c2 0c 00	 ret	 12			; 0000000cH
??$_Umove@PAUtagShopItemInfo@@@?$vector@UtagShopItemInfo@@V?$allocator@UtagShopItemInfo@@@std@@@std@@IAEPAUtagShopItemInfo@@PAU2@00@Z ENDP ; std::vector<tagShopItemInfo,std::allocator<tagShopItemInfo> >::_Umove<tagShopItemInfo *>
_TEXT	ENDS
PUBLIC	??$sort_heap@PAUtagShopItemInfo@@VShopItemInfoSort@@@std@@YAXPAUtagShopItemInfo@@0VShopItemInfoSort@@@Z ; std::sort_heap<tagShopItemInfo *,ShopItemInfoSort>
; Function compile flags: /Ogsp
; File c:\program files (x86)\microsoft visual studio 10.0\vc\include\algorithm
;	COMDAT ??$sort_heap@PAUtagShopItemInfo@@VShopItemInfoSort@@@std@@YAXPAUtagShopItemInfo@@0VShopItemInfoSort@@@Z
_TEXT	SEGMENT
__First$ = 8						; size = 4
__Last$ = 12						; size = 4
__Pred$ = 16						; size = 1
??$sort_heap@PAUtagShopItemInfo@@VShopItemInfoSort@@@std@@YAXPAUtagShopItemInfo@@0VShopItemInfoSort@@@Z PROC ; std::sort_heap<tagShopItemInfo *,ShopItemInfoSort>, COMDAT

; 2708 : 	{	// order heap by repeatedly popping, using _Pred

  00000	55		 push	 ebp
  00001	8b ec		 mov	 ebp, esp

; 2709 : 	_DEBUG_RANGE(_First, _Last);
; 2710 : 	_DEBUG_POINTER(_Pred);
; 2711 : 	_DEBUG_HEAP_PRED(_First, _Last, _Pred);
; 2712 : 	_Sort_heap(_Unchecked(_First), _Unchecked(_Last), _Pred);

  00003	ff 75 10	 push	 DWORD PTR __Pred$[ebp]
  00006	ff 75 0c	 push	 DWORD PTR __Last$[ebp]
  00009	ff 75 08	 push	 DWORD PTR __First$[ebp]
  0000c	e8 00 00 00 00	 call	 ??$_Sort_heap@PAUtagShopItemInfo@@VShopItemInfoSort@@@std@@YAXPAUtagShopItemInfo@@0VShopItemInfoSort@@@Z ; std::_Sort_heap<tagShopItemInfo *,ShopItemInfoSort>
  00011	83 c4 0c	 add	 esp, 12			; 0000000cH

; 2713 : 	}

  00014	5d		 pop	 ebp
  00015	c3		 ret	 0
??$sort_heap@PAUtagShopItemInfo@@VShopItemInfoSort@@@std@@YAXPAUtagShopItemInfo@@0VShopItemInfoSort@@@Z ENDP ; std::sort_heap<tagShopItemInfo *,ShopItemInfoSort>
_TEXT	ENDS
PUBLIC	??1?$vector@UtagShopItemInfo@@V?$allocator@UtagShopItemInfo@@@std@@@std@@QAE@XZ ; std::vector<tagShopItemInfo,std::allocator<tagShopItemInfo> >::~vector<tagShopItemInfo,std::allocator<tagShopItemInfo> >
; Function compile flags: /Ogsp
; File c:\program files (x86)\microsoft visual studio 10.0\vc\include\vector
;	COMDAT ??1?$vector@UtagShopItemInfo@@V?$allocator@UtagShopItemInfo@@@std@@@std@@QAE@XZ
_TEXT	SEGMENT
??1?$vector@UtagShopItemInfo@@V?$allocator@UtagShopItemInfo@@@std@@@std@@QAE@XZ PROC ; std::vector<tagShopItemInfo,std::allocator<tagShopItemInfo> >::~vector<tagShopItemInfo,std::allocator<tagShopItemInfo> >, COMDAT
; _this$ = ecx

; 705  : 		_Tidy();

  00000	e9 00 00 00 00	 jmp	 ?_Tidy@?$vector@UtagShopItemInfo@@V?$allocator@UtagShopItemInfo@@@std@@@std@@IAEXXZ ; std::vector<tagShopItemInfo,std::allocator<tagShopItemInfo> >::_Tidy
??1?$vector@UtagShopItemInfo@@V?$allocator@UtagShopItemInfo@@@std@@@std@@QAE@XZ ENDP ; std::vector<tagShopItemInfo,std::allocator<tagShopItemInfo> >::~vector<tagShopItemInfo,std::allocator<tagShopItemInfo> >
_TEXT	ENDS
PUBLIC	?reserve@?$vector@UtagShopItemInfo@@V?$allocator@UtagShopItemInfo@@@std@@@std@@QAEXI@Z ; std::vector<tagShopItemInfo,std::allocator<tagShopItemInfo> >::reserve
EXTRN	__EH_prolog3_catch:PROC
;	COMDAT xdata$x
; File c:\program files (x86)\microsoft visual studio 10.0\vc\include\xmemory
xdata$x	SEGMENT
__catchsym$?reserve@?$vector@UtagShopItemInfo@@V?$allocator@UtagShopItemInfo@@@std@@@std@@QAEXI@Z$2 DD 040H
	DD	00H
	DD	00H
	DD	FLAT:__catch$?reserve@?$vector@UtagShopItemInfo@@V?$allocator@UtagShopItemInfo@@@std@@@std@@QAEXI@Z$0
__unwindtable$?reserve@?$vector@UtagShopItemInfo@@V?$allocator@UtagShopItemInfo@@@std@@@std@@QAEXI@Z DD 0ffffffffH
	DD	00H
	DD	0ffffffffH
	DD	00H
__tryblocktable$?reserve@?$vector@UtagShopItemInfo@@V?$allocator@UtagShopItemInfo@@@std@@@std@@QAEXI@Z DD 00H
	DD	00H
	DD	01H
	DD	01H
	DD	FLAT:__catchsym$?reserve@?$vector@UtagShopItemInfo@@V?$allocator@UtagShopItemInfo@@@std@@@std@@QAEXI@Z$2
__ehfuncinfo$?reserve@?$vector@UtagShopItemInfo@@V?$allocator@UtagShopItemInfo@@@std@@@std@@QAEXI@Z DD 019930522H
	DD	02H
	DD	FLAT:__unwindtable$?reserve@?$vector@UtagShopItemInfo@@V?$allocator@UtagShopItemInfo@@@std@@@std@@QAEXI@Z
	DD	01H
	DD	FLAT:__tryblocktable$?reserve@?$vector@UtagShopItemInfo@@V?$allocator@UtagShopItemInfo@@@std@@@std@@QAEXI@Z
	DD	2 DUP(00H)
	DD	00H
	DD	01H
; Function compile flags: /Ogsp
; File c:\program files (x86)\microsoft visual studio 10.0\vc\include\vector
xdata$x	ENDS
;	COMDAT ?reserve@?$vector@UtagShopItemInfo@@V?$allocator@UtagShopItemInfo@@@std@@@std@@QAEXI@Z
_TEXT	SEGMENT
__$EHRec$ = -16						; size = 16
__Ptr$549303 = 8					; size = 4
__Count$ = 8						; size = 4
?reserve@?$vector@UtagShopItemInfo@@V?$allocator@UtagShopItemInfo@@@std@@@std@@QAEXI@Z PROC ; std::vector<tagShopItemInfo,std::allocator<tagShopItemInfo> >::reserve, COMDAT
; _this$ = ecx

; 746  : 		{	// determine new minimum length of allocated storage

  00000	6a 04		 push	 4
  00002	b8 00 00 00 00	 mov	 eax, __ehhandler$?reserve@?$vector@UtagShopItemInfo@@V?$allocator@UtagShopItemInfo@@@std@@@std@@QAEXI@Z
  00007	e8 00 00 00 00	 call	 __EH_prolog3_catch
  0000c	8b f1		 mov	 esi, ecx

; 747  : 		if (max_size() < _Count)

  0000e	8b 5d 08	 mov	 ebx, DWORD PTR __Count$[ebp]
  00011	81 fb 5d 74 d1
	05		 cmp	 ebx, 97612893		; 05d1745dH
  00017	76 0b		 jbe	 SHORT $LN5@reserve

; 748  : 			_Xlen();	// result too long

  00019	68 00 00 00 00	 push	 OFFSET ??_C@_0BD@OLBABOEK@vector?$DMT?$DO?5too?5long?$AA@
  0001e	ff 15 00 00 00
	00		 call	 DWORD PTR __imp_?_Xlength_error@std@@YAXPBD@Z
$LN56@reserve:
$LN5@reserve:

; 749  : 		else if (capacity() < _Count)

  00024	8b 46 08	 mov	 eax, DWORD PTR [esi+8]
  00027	2b 06		 sub	 eax, DWORD PTR [esi]
  00029	6a 2c		 push	 44			; 0000002cH
  0002b	99		 cdq
  0002c	59		 pop	 ecx
  0002d	f7 f9		 idiv	 ecx
  0002f	3b c3		 cmp	 eax, ebx
  00031	73 6b		 jae	 SHORT $LN3@reserve

; 750  : 			{	// not enough room, reallocate
; 751  : 			pointer _Ptr = this->_Alval.allocate(_Count);

  00033	6a 00		 push	 0
  00035	53		 push	 ebx
  00036	e8 00 00 00 00	 call	 ??$_Allocate@UtagShopItemInfo@@@std@@YAPAUtagShopItemInfo@@IPAU1@@Z ; std::_Allocate<tagShopItemInfo>

; 752  : 
; 753  : 			_TRY_BEGIN
; 754  : 			_Umove(this->_Myfirst, this->_Mylast, _Ptr);

  0003b	8b 0e		 mov	 ecx, DWORD PTR [esi]
  0003d	83 65 fc 00	 and	 DWORD PTR __$EHRec$[ebp+12], 0
  00041	8d 56 0c	 lea	 edx, DWORD PTR [esi+12]
  00044	52		 push	 edx
  00045	89 45 08	 mov	 DWORD PTR __Ptr$549303[ebp], eax
  00048	ff 75 08	 push	 DWORD PTR __Ptr$549303[ebp]
  0004b	8b 46 04	 mov	 eax, DWORD PTR [esi+4]
  0004e	50		 push	 eax
  0004f	51		 push	 ecx
  00050	e8 00 00 00 00	 call	 ??$_Uninitialized_move@PAUtagShopItemInfo@@PAU1@V?$allocator@UtagShopItemInfo@@@std@@@std@@YAPAUtagShopItemInfo@@PAU1@00AAV?$allocator@UtagShopItemInfo@@@0@@Z ; std::_Uninitialized_move<tagShopItemInfo *,tagShopItemInfo *,std::allocator<tagShopItemInfo> >

; 758  : 			_CATCH_END
; 759  : 
; 760  : 			size_type _Size = size();

  00055	8b 0e		 mov	 ecx, DWORD PTR [esi]
  00057	8b 46 04	 mov	 eax, DWORD PTR [esi+4]
  0005a	83 c4 18	 add	 esp, 24			; 00000018H
  0005d	2b c1		 sub	 eax, ecx
  0005f	6a 2c		 push	 44			; 0000002cH
  00061	99		 cdq
  00062	5f		 pop	 edi
  00063	f7 ff		 idiv	 edi
  00065	83 4d fc ff	 or	 DWORD PTR __$EHRec$[ebp+12], -1
  00069	8b f8		 mov	 edi, eax
  0006b	85 c9		 test	 ecx, ecx
  0006d	74 12		 je	 SHORT $LN48@reserve

; 761  : 			if (this->_Myfirst != 0)

  0006f	eb 03		 jmp	 SHORT $LN55@reserve

; 762  : 				{	// destroy and deallocate old array
; 763  : 				_Destroy(this->_Myfirst, this->_Mylast);

$LL39@reserve:
  00071	83 c1 2c	 add	 ecx, 44			; 0000002cH
$LN55@reserve:
  00074	3b 4e 04	 cmp	 ecx, DWORD PTR [esi+4]
  00077	75 f8		 jne	 SHORT $LL39@reserve

; 764  : 				this->_Alval.deallocate(this->_Myfirst,
; 765  : 					this->_Myend - this->_Myfirst);

  00079	ff 36		 push	 DWORD PTR [esi]
  0007b	e8 00 00 00 00	 call	 ??3@YAXPAX@Z		; operator delete
  00080	59		 pop	 ecx
$LN48@reserve:

; 766  : 				}
; 767  : 
; 768  : 			this->_Orphan_all();

  00081	8b ce		 mov	 ecx, esi
  00083	ff 15 00 00 00
	00		 call	 DWORD PTR __imp_?_Orphan_all@_Container_base0@std@@QAEXXZ

; 769  : 			this->_Myend = _Ptr + _Count;

  00089	6b db 2c	 imul	 ebx, 44			; 0000002cH

; 770  : 			this->_Mylast = _Ptr + _Size;

  0008c	6b ff 2c	 imul	 edi, 44			; 0000002cH
  0008f	8b 45 08	 mov	 eax, DWORD PTR __Ptr$549303[ebp]
  00092	03 d8		 add	 ebx, eax
  00094	03 f8		 add	 edi, eax
  00096	89 5e 08	 mov	 DWORD PTR [esi+8], ebx
  00099	89 7e 04	 mov	 DWORD PTR [esi+4], edi

; 771  : 			this->_Myfirst = _Ptr;

  0009c	89 06		 mov	 DWORD PTR [esi], eax
$LN3@reserve:

; 772  : 			}
; 773  : 		}

  0009e	e8 00 00 00 00	 call	 __EH_epilog3
  000a3	c2 04 00	 ret	 4
__catch$?reserve@?$vector@UtagShopItemInfo@@V?$allocator@UtagShopItemInfo@@@std@@@std@@QAEXI@Z$0:

; 755  : 			_CATCH_ALL
; 756  : 			this->_Alval.deallocate(_Ptr, _Count);

  000a6	ff 75 08	 push	 DWORD PTR __Ptr$549303[ebp]
  000a9	e8 00 00 00 00	 call	 ??3@YAXPAX@Z		; operator delete
  000ae	59		 pop	 ecx

; 757  : 			_RERAISE;

  000af	6a 00		 push	 0
  000b1	6a 00		 push	 0
  000b3	e8 00 00 00 00	 call	 __CxxThrowException@8
$LN57@reserve:
$LN54@reserve:
  000b8	cc		 int	 3
_TEXT	ENDS
;	COMDAT text$x
text$x	SEGMENT
__ehhandler$?reserve@?$vector@UtagShopItemInfo@@V?$allocator@UtagShopItemInfo@@@std@@@std@@QAEXI@Z:
  00000	8b 54 24 08	 mov	 edx, DWORD PTR [esp+8]
  00004	8d 42 0c	 lea	 eax, DWORD PTR [edx+12]
  00007	8b 4a ec	 mov	 ecx, DWORD PTR [edx-20]
  0000a	33 c8		 xor	 ecx, eax
  0000c	e8 00 00 00 00	 call	 @__security_check_cookie@4
  00011	b8 00 00 00 00	 mov	 eax, OFFSET __ehfuncinfo$?reserve@?$vector@UtagShopItemInfo@@V?$allocator@UtagShopItemInfo@@@std@@@std@@QAEXI@Z
  00016	e9 00 00 00 00	 jmp	 ___CxxFrameHandler3
text$x	ENDS
?reserve@?$vector@UtagShopItemInfo@@V?$allocator@UtagShopItemInfo@@@std@@@std@@QAEXI@Z ENDP ; std::vector<tagShopItemInfo,std::allocator<tagShopItemInfo> >::reserve
PUBLIC	?erase@?$vector@UtagShopItemInfo@@V?$allocator@UtagShopItemInfo@@@std@@@std@@QAE?AV?$_Vector_iterator@V?$_Vector_val@UtagShopItemInfo@@V?$allocator@UtagShopItemInfo@@@std@@@std@@@2@V?$_Vector_const_iterator@V?$_Vector_val@UtagShopItemInfo@@V?$allocator@UtagShopItemInfo@@@std@@@std@@@2@0@Z ; std::vector<tagShopItemInfo,std::allocator<tagShopItemInfo> >::erase
; Function compile flags: /Ogsp
;	COMDAT ?erase@?$vector@UtagShopItemInfo@@V?$allocator@UtagShopItemInfo@@@std@@@std@@QAE?AV?$_Vector_iterator@V?$_Vector_val@UtagShopItemInfo@@V?$allocator@UtagShopItemInfo@@@std@@@std@@@2@V?$_Vector_const_iterator@V?$_Vector_val@UtagShopItemInfo@@V?$allocator@UtagShopItemInfo@@@std@@@std@@@2@0@Z
_TEXT	SEGMENT
___$ReturnUdt$ = 8					; size = 4
__First_arg$ = 12					; size = 4
__Cat$560096 = 16					; size = 1
__Last_arg$ = 16					; size = 4
?erase@?$vector@UtagShopItemInfo@@V?$allocator@UtagShopItemInfo@@@std@@@std@@QAE?AV?$_Vector_iterator@V?$_Vector_val@UtagShopItemInfo@@V?$allocator@UtagShopItemInfo@@@std@@@std@@@2@V?$_Vector_const_iterator@V?$_Vector_val@UtagShopItemInfo@@V?$allocator@UtagShopItemInfo@@@std@@@std@@@2@0@Z PROC ; std::vector<tagShopItemInfo,std::allocator<tagShopItemInfo> >::erase, COMDAT
; _this$ = ecx

; 1190 : 		{	// erase [_First, _Last)

  00000	55		 push	 ebp
  00001	8b ec		 mov	 ebp, esp

; 1191 : 		iterator _First = _Make_iter(_First_arg);

  00003	8b 45 0c	 mov	 eax, DWORD PTR __First_arg$[ebp]
  00006	56		 push	 esi
  00007	57		 push	 edi
  00008	8b 7d 08	 mov	 edi, DWORD PTR ___$ReturnUdt$[ebp]
  0000b	8b f1		 mov	 esi, ecx
  0000d	89 07		 mov	 DWORD PTR [edi], eax

; 1192 : 		iterator _Last = _Make_iter(_Last_arg);
; 1193 : 
; 1194 : 		if (_First != _Last)

  0000f	3b 45 10	 cmp	 eax, DWORD PTR __Last_arg$[ebp]
  00012	74 16		 je	 SHORT $LN1@erase

; 1195 : 			{	// worth doing, copy down over hole
; 1196 :  #if _ITERATOR_DEBUG_LEVEL == 2
; 1197 : 			if (_Last < _First || _VICONT(_First) != this
; 1198 : 				|| _VIPTR(_First) < this->_Myfirst
; 1199 : 				|| this->_Mylast < _VIPTR(_Last))
; 1200 : 				_DEBUG_ERROR("vector erase iterator outside range");
; 1201 : 			pointer _Ptr = _Move(_VIPTR(_Last), this->_Mylast,
; 1202 : 				_VIPTR(_First));
; 1203 : 			_Orphan_range(_VIPTR(_First), this->_Mylast);
; 1204 : 
; 1205 :  #else /* _ITERATOR_DEBUG_LEVEL == 2 */
; 1206 : 			pointer _Ptr = _Move(_VIPTR(_Last), this->_Mylast,
; 1207 : 				_VIPTR(_First));

  00014	ff 75 10	 push	 DWORD PTR __Cat$560096[ebp]
  00017	8b 4e 04	 mov	 ecx, DWORD PTR [esi+4]
  0001a	50		 push	 eax
  0001b	51		 push	 ecx
  0001c	ff 75 10	 push	 DWORD PTR __Last_arg$[ebp]
  0001f	e8 00 00 00 00	 call	 ??$_Move@PAUtagShopItemInfo@@PAU1@@std@@YAPAUtagShopItemInfo@@PAU1@00U_Nonscalar_ptr_iterator_tag@0@@Z ; std::_Move<tagShopItemInfo *,tagShopItemInfo *>
  00024	83 c4 10	 add	 esp, 16			; 00000010H

; 1208 :  #endif /* _ITERATOR_DEBUG_LEVEL == 2 */
; 1209 : 
; 1210 : 			_Destroy(_Ptr, this->_Mylast);
; 1211 : 			this->_Mylast = _Ptr;

  00027	89 46 04	 mov	 DWORD PTR [esi+4], eax
$LN1@erase:

; 1212 : 			}
; 1213 : 		return (_First);

  0002a	8b c7		 mov	 eax, edi
  0002c	5f		 pop	 edi
  0002d	5e		 pop	 esi

; 1214 : 		}

  0002e	5d		 pop	 ebp
  0002f	c2 0c 00	 ret	 12			; 0000000cH
?erase@?$vector@UtagShopItemInfo@@V?$allocator@UtagShopItemInfo@@@std@@@std@@QAE?AV?$_Vector_iterator@V?$_Vector_val@UtagShopItemInfo@@V?$allocator@UtagShopItemInfo@@@std@@@std@@@2@V?$_Vector_const_iterator@V?$_Vector_val@UtagShopItemInfo@@V?$allocator@UtagShopItemInfo@@@std@@@std@@@2@0@Z ENDP ; std::vector<tagShopItemInfo,std::allocator<tagShopItemInfo> >::erase
_TEXT	ENDS
PUBLIC	?_Reserve@?$vector@UtagShopItemInfo@@V?$allocator@UtagShopItemInfo@@@std@@@std@@IAEXI@Z ; std::vector<tagShopItemInfo,std::allocator<tagShopItemInfo> >::_Reserve
; Function compile flags: /Ogsp
;	COMDAT ?_Reserve@?$vector@UtagShopItemInfo@@V?$allocator@UtagShopItemInfo@@@std@@@std@@IAEXI@Z
_TEXT	SEGMENT
__Count$ = 8						; size = 4
?_Reserve@?$vector@UtagShopItemInfo@@V?$allocator@UtagShopItemInfo@@@std@@@std@@IAEXI@Z PROC ; std::vector<tagShopItemInfo,std::allocator<tagShopItemInfo> >::_Reserve, COMDAT
; _this$ = ecx

; 1290 : 		{	// ensure room for _Count new elements, grow exponentially

  00000	55		 push	 ebp
  00001	8b ec		 mov	 ebp, esp
  00003	56		 push	 esi
  00004	8b f1		 mov	 esi, ecx

; 1291 : 		size_type _Size = size();

  00006	8b 0e		 mov	 ecx, DWORD PTR [esi]
  00008	8b 46 04	 mov	 eax, DWORD PTR [esi+4]
  0000b	2b c1		 sub	 eax, ecx
  0000d	57		 push	 edi
  0000e	99		 cdq
  0000f	6a 2c		 push	 44			; 0000002cH
  00011	5f		 pop	 edi
  00012	f7 ff		 idiv	 edi
  00014	8b f8		 mov	 edi, eax

; 1292 : 		if (max_size() - _Count < _Size)

  00016	b8 5d 74 d1 05	 mov	 eax, 97612893		; 05d1745dH
  0001b	2b 45 08	 sub	 eax, DWORD PTR __Count$[ebp]
  0001e	3b c7		 cmp	 eax, edi
  00020	73 0b		 jae	 SHORT $LN4@Reserve

; 1293 : 			_Xlen();

  00022	68 00 00 00 00	 push	 OFFSET ??_C@_0BD@OLBABOEK@vector?$DMT?$DO?5too?5long?$AA@
  00027	ff 15 00 00 00
	00		 call	 DWORD PTR __imp_?_Xlength_error@std@@YAXPBD@Z
$LN21@Reserve:
$LN4@Reserve:

; 1294 : 		else if ((_Size += _Count) <= capacity())

  0002d	8b 46 08	 mov	 eax, DWORD PTR [esi+8]
  00030	2b c1		 sub	 eax, ecx
  00032	6a 2c		 push	 44			; 0000002cH
  00034	99		 cdq
  00035	59		 pop	 ecx
  00036	f7 f9		 idiv	 ecx
  00038	03 7d 08	 add	 edi, DWORD PTR __Count$[ebp]
  0003b	3b f8		 cmp	 edi, eax
  0003d	76 10		 jbe	 SHORT $LN1@Reserve

; 1295 : 			;
; 1296 : 		else
; 1297 : 			reserve(_Grow_to(_Size));

  0003f	57		 push	 edi
  00040	8b ce		 mov	 ecx, esi
  00042	e8 00 00 00 00	 call	 ?_Grow_to@?$vector@UtagShopItemInfo@@V?$allocator@UtagShopItemInfo@@@std@@@std@@IBEII@Z ; std::vector<tagShopItemInfo,std::allocator<tagShopItemInfo> >::_Grow_to
  00047	50		 push	 eax
  00048	8b ce		 mov	 ecx, esi
  0004a	e8 00 00 00 00	 call	 ?reserve@?$vector@UtagShopItemInfo@@V?$allocator@UtagShopItemInfo@@@std@@@std@@QAEXI@Z ; std::vector<tagShopItemInfo,std::allocator<tagShopItemInfo> >::reserve
$LN1@Reserve:
  0004f	5f		 pop	 edi
  00050	5e		 pop	 esi

; 1298 : 		}

  00051	5d		 pop	 ebp
  00052	c2 04 00	 ret	 4
$LN20@Reserve:
?_Reserve@?$vector@UtagShopItemInfo@@V?$allocator@UtagShopItemInfo@@@std@@@std@@IAEXI@Z ENDP ; std::vector<tagShopItemInfo,std::allocator<tagShopItemInfo> >::_Reserve
_TEXT	ENDS
PUBLIC	??$_Sort@PAUtagShopItemInfo@@HVShopItemInfoSort@@@std@@YAXPAUtagShopItemInfo@@0HVShopItemInfoSort@@@Z ; std::_Sort<tagShopItemInfo *,int,ShopItemInfoSort>
; Function compile flags: /Ogsp
; File c:\program files (x86)\microsoft visual studio 10.0\vc\include\algorithm
;	COMDAT ??$_Sort@PAUtagShopItemInfo@@HVShopItemInfoSort@@@std@@YAXPAUtagShopItemInfo@@0HVShopItemInfoSort@@@Z
_TEXT	SEGMENT
__Mid$552304 = -8					; size = 8
__First$ = 8						; size = 4
__Last$ = 12						; size = 4
__Ideal$ = 16						; size = 4
__Pred$ = 20						; size = 1
??$_Sort@PAUtagShopItemInfo@@HVShopItemInfoSort@@@std@@YAXPAUtagShopItemInfo@@0HVShopItemInfoSort@@@Z PROC ; std::_Sort<tagShopItemInfo *,int,ShopItemInfoSort>, COMDAT

; 3771 : 	{	// order [_First, _Last), using _Pred

  00000	55		 push	 ebp
  00001	8b ec		 mov	 ebp, esp
  00003	51		 push	 ecx
  00004	51		 push	 ecx
  00005	53		 push	 ebx

; 3772 : 	_Diff _Count;
; 3773 : 	for (; _ISORT_MAX < (_Count = _Last - _First) && 0 < _Ideal; )

  00006	8b 5d 08	 mov	 ebx, DWORD PTR __First$[ebp]
  00009	57		 push	 edi
  0000a	8b 7d 0c	 mov	 edi, DWORD PTR __Last$[ebp]
  0000d	8b c7		 mov	 eax, edi
  0000f	2b c3		 sub	 eax, ebx
  00011	6a 2c		 push	 44			; 0000002cH
  00013	99		 cdq
  00014	59		 pop	 ecx
  00015	f7 f9		 idiv	 ecx
  00017	83 f8 20	 cmp	 eax, 32			; 00000020H
  0001a	0f 8e 9c 00 00
	00		 jle	 $LN22@Sort
  00020	56		 push	 esi
  00021	8b 75 10	 mov	 esi, DWORD PTR __Ideal$[ebp]
$LL7@Sort:
  00024	85 f6		 test	 esi, esi
  00026	7e 75		 jle	 SHORT $LN6@Sort

; 3774 : 		{	// divide and conquer by quicksort
; 3775 : 		_STD pair<_RanIt, _RanIt> _Mid =
; 3776 : 			_Unguarded_partition(_First, _Last, _Pred);

  00028	ff 75 14	 push	 DWORD PTR __Pred$[ebp]
  0002b	8d 45 f8	 lea	 eax, DWORD PTR __Mid$552304[ebp]
  0002e	57		 push	 edi
  0002f	53		 push	 ebx
  00030	50		 push	 eax
  00031	e8 00 00 00 00	 call	 ??$_Unguarded_partition@PAUtagShopItemInfo@@VShopItemInfoSort@@@std@@YA?AU?$pair@PAUtagShopItemInfo@@PAU1@@0@PAUtagShopItemInfo@@0VShopItemInfoSort@@@Z ; std::_Unguarded_partition<tagShopItemInfo *,ShopItemInfoSort>

; 3777 : 		_Ideal /= 2, _Ideal += _Ideal / 2;	// allow 1.5 log2(N) divisions

  00036	8b c6		 mov	 eax, esi
  00038	99		 cdq
  00039	2b c2		 sub	 eax, edx
  0003b	d1 f8		 sar	 eax, 1
  0003d	8b f0		 mov	 esi, eax
  0003f	99		 cdq
  00040	2b c2		 sub	 eax, edx
  00042	d1 f8		 sar	 eax, 1
  00044	03 f0		 add	 esi, eax
  00046	83 c4 10	 add	 esp, 16			; 00000010H

; 3778 : 
; 3779 : 		if (_Mid.first - _First < _Last - _Mid.second)

  00049	8b c7		 mov	 eax, edi
  0004b	2b 45 fc	 sub	 eax, DWORD PTR __Mid$552304[ebp+4]
  0004e	6a 2c		 push	 44			; 0000002cH
  00050	99		 cdq
  00051	59		 pop	 ecx
  00052	f7 f9		 idiv	 ecx
  00054	6a 2c		 push	 44			; 0000002cH
  00056	8b c8		 mov	 ecx, eax
  00058	8b 45 f8	 mov	 eax, DWORD PTR __Mid$552304[ebp]
  0005b	2b c3		 sub	 eax, ebx
  0005d	5b		 pop	 ebx
  0005e	99		 cdq
  0005f	f7 fb		 idiv	 ebx

; 3780 : 			{	// loop on second half
; 3781 : 			_Sort(_First, _Mid.first, _Ideal, _Pred);

  00061	ff 75 14	 push	 DWORD PTR __Pred$[ebp]
  00064	56		 push	 esi
  00065	3b c1		 cmp	 eax, ecx
  00067	7d 13		 jge	 SHORT $LN5@Sort
  00069	ff 75 f8	 push	 DWORD PTR __Mid$552304[ebp]
  0006c	ff 75 08	 push	 DWORD PTR __First$[ebp]
  0006f	e8 00 00 00 00	 call	 ??$_Sort@PAUtagShopItemInfo@@HVShopItemInfoSort@@@std@@YAXPAUtagShopItemInfo@@0HVShopItemInfoSort@@@Z ; std::_Sort<tagShopItemInfo *,int,ShopItemInfoSort>

; 3782 : 			_First = _Mid.second;

  00074	8b 5d fc	 mov	 ebx, DWORD PTR __Mid$552304[ebp+4]
  00077	89 5d 08	 mov	 DWORD PTR __First$[ebp], ebx

; 3783 : 			}
; 3784 : 		else

  0007a	eb 0f		 jmp	 SHORT $LN23@Sort
$LN5@Sort:

; 3785 : 			{	// loop on first half
; 3786 : 			_Sort(_Mid.second, _Last, _Ideal, _Pred);

  0007c	57		 push	 edi
  0007d	ff 75 fc	 push	 DWORD PTR __Mid$552304[ebp+4]
  00080	e8 00 00 00 00	 call	 ??$_Sort@PAUtagShopItemInfo@@HVShopItemInfoSort@@@std@@YAXPAUtagShopItemInfo@@0HVShopItemInfoSort@@@Z ; std::_Sort<tagShopItemInfo *,int,ShopItemInfoSort>

; 3787 : 			_Last = _Mid.first;

  00085	8b 7d f8	 mov	 edi, DWORD PTR __Mid$552304[ebp]
  00088	8b 5d 08	 mov	 ebx, DWORD PTR __First$[ebp]
$LN23@Sort:

; 3772 : 	_Diff _Count;
; 3773 : 	for (; _ISORT_MAX < (_Count = _Last - _First) && 0 < _Ideal; )

  0008b	83 c4 10	 add	 esp, 16			; 00000010H
  0008e	8b c7		 mov	 eax, edi
  00090	2b c3		 sub	 eax, ebx
  00092	6a 2c		 push	 44			; 0000002cH
  00094	99		 cdq
  00095	59		 pop	 ecx
  00096	f7 f9		 idiv	 ecx
  00098	83 f8 20	 cmp	 eax, 32			; 00000020H
  0009b	7f 87		 jg	 SHORT $LL7@Sort
$LN6@Sort:
  0009d	5e		 pop	 esi

; 3788 : 			}
; 3789 : 		}
; 3790 : 
; 3791 : 	if (_ISORT_MAX < _Count)

  0009e	83 f8 20	 cmp	 eax, 32			; 00000020H
  000a1	7e 19		 jle	 SHORT $LN22@Sort

; 3792 : 		{	// heap sort if too many divisions
; 3793 : 		_STD make_heap(_First, _Last, _Pred);

  000a3	ff 75 14	 push	 DWORD PTR __Pred$[ebp]
  000a6	57		 push	 edi
  000a7	53		 push	 ebx
  000a8	e8 00 00 00 00	 call	 ??$make_heap@PAUtagShopItemInfo@@VShopItemInfoSort@@@std@@YAXPAUtagShopItemInfo@@0VShopItemInfoSort@@@Z ; std::make_heap<tagShopItemInfo *,ShopItemInfoSort>

; 3794 : 		_STD sort_heap(_First, _Last, _Pred);

  000ad	ff 75 14	 push	 DWORD PTR __Pred$[ebp]
  000b0	57		 push	 edi
  000b1	53		 push	 ebx
  000b2	e8 00 00 00 00	 call	 ??$_Sort_heap@PAUtagShopItemInfo@@VShopItemInfoSort@@@std@@YAXPAUtagShopItemInfo@@0VShopItemInfoSort@@@Z ; std::_Sort_heap<tagShopItemInfo *,ShopItemInfoSort>
  000b7	83 c4 18	 add	 esp, 24			; 00000018H
  000ba	eb 14		 jmp	 SHORT $LN16@Sort
$LN22@Sort:

; 3795 : 		}
; 3796 : 	else if (1 < _Count)

  000bc	83 f8 01	 cmp	 eax, 1
  000bf	7e 0f		 jle	 SHORT $LN16@Sort

; 3797 : 		_Insertion_sort(_First, _Last, _Pred);	// small

  000c1	6a 00		 push	 0
  000c3	ff 75 14	 push	 DWORD PTR __Pred$[ebp]
  000c6	57		 push	 edi
  000c7	53		 push	 ebx
  000c8	e8 00 00 00 00	 call	 ??$_Insertion_sort1@PAUtagShopItemInfo@@VShopItemInfoSort@@U1@@std@@YAXPAUtagShopItemInfo@@0VShopItemInfoSort@@0@Z ; std::_Insertion_sort1<tagShopItemInfo *,ShopItemInfoSort,tagShopItemInfo>
  000cd	83 c4 10	 add	 esp, 16			; 00000010H
$LN16@Sort:
  000d0	5f		 pop	 edi
  000d1	5b		 pop	 ebx

; 3798 : 	}

  000d2	c9		 leave
  000d3	c3		 ret	 0
??$_Sort@PAUtagShopItemInfo@@HVShopItemInfoSort@@@std@@YAXPAUtagShopItemInfo@@0HVShopItemInfoSort@@@Z ENDP ; std::_Sort<tagShopItemInfo *,int,ShopItemInfoSort>
_TEXT	ENDS
PUBLIC	??_7SoldierExerciseWnd@@6B@			; SoldierExerciseWnd::`vftable'
PUBLIC	??0SoldierExerciseWnd@@QAE@XZ			; SoldierExerciseWnd::SoldierExerciseWnd
PUBLIC	??_R4SoldierExerciseWnd@@6B@			; SoldierExerciseWnd::`RTTI Complete Object Locator'
PUBLIC	??_R0?AVSoldierExerciseWnd@@@8			; SoldierExerciseWnd `RTTI Type Descriptor'
PUBLIC	??_R3SoldierExerciseWnd@@8			; SoldierExerciseWnd::`RTTI Class Hierarchy Descriptor'
PUBLIC	??_R2SoldierExerciseWnd@@8			; SoldierExerciseWnd::`RTTI Base Class Array'
PUBLIC	??_R1A@?0A@EA@SoldierExerciseWnd@@8		; SoldierExerciseWnd::`RTTI Base Class Descriptor at (0,-1,0,64)'
PUBLIC	?OnProcess@SoldierExerciseWnd@@MAEXM@Z		; SoldierExerciseWnd::OnProcess
PUBLIC	?iwm_command@SoldierExerciseWnd@@UAEXPAVioWnd@@HK@Z ; SoldierExerciseWnd::iwm_command
PUBLIC	?iwm_show@SoldierExerciseWnd@@UAEXXZ		; SoldierExerciseWnd::iwm_show
EXTRN	__imp_??1ioWnd@@UAE@XZ:PROC
EXTRN	__imp_??0ioWnd@@QAE@XZ:PROC
EXTRN	?AddRenderFrame@ioWnd@@UAEXABVioHashString@@PAVioUIRenderFrame@@@Z:PROC ; ioWnd::AddRenderFrame
EXTRN	?SetWindowAlpha@ioWnd@@UAEXH@Z:PROC		; ioWnd::SetWindowAlpha
EXTRN	?CheckFrameReSize@ioWnd@@MAEXHHHH@Z:PROC	; ioWnd::CheckFrameReSize
EXTRN	?RenderImageList@ioWnd@@MAEXHHW4UIRenderType@@@Z:PROC ; ioWnd::RenderImageList
EXTRN	?iwm_lbuttondown@ioWnd@@UAEXABVioMouse@@@Z:PROC	; ioWnd::iwm_lbuttondown
EXTRN	?iwm_lbuttonup@ioWnd@@UAEXABVioMouse@@@Z:PROC	; ioWnd::iwm_lbuttonup
EXTRN	?iwm_lbuttonDBLCLK@ioWnd@@UAEXABVioMouse@@@Z:PROC ; ioWnd::iwm_lbuttonDBLCLK
EXTRN	?iwm_rbuttondown@ioWnd@@UAEXABVioMouse@@@Z:PROC	; ioWnd::iwm_rbuttondown
EXTRN	?iwm_rbuttonup@ioWnd@@UAEXABVioMouse@@@Z:PROC	; ioWnd::iwm_rbuttonup
EXTRN	?iwm_mouseover@ioWnd@@UAEXABVioMouse@@@Z:PROC	; ioWnd::iwm_mouseover
EXTRN	?iwm_mouseleave@ioWnd@@UAEXABVioMouse@@@Z:PROC	; ioWnd::iwm_mouseleave
EXTRN	?GetWndType@ioWnd@@UBEKXZ:PROC			; ioWnd::GetWndType
EXTRN	?GetHeaderFileName@ioWnd@@UAEPBDXZ:PROC		; ioWnd::GetHeaderFileName
EXTRN	?GetTemplateName@ioWnd@@UAEPBDXZ:PROC		; ioWnd::GetTemplateName
EXTRN	?GetDefClassName@ioWnd@@UBEPBDXZ:PROC		; ioWnd::GetDefClassName
EXTRN	?_Clone@ioWnd@@UAEPAV1@XZ:PROC			; ioWnd::_Clone
EXTRN	?Copy@ioWnd@@UAEXPAV1@@Z:PROC			; ioWnd::Copy
EXTRN	?SetSaveData@ioWnd@@UAEXAAVioXMLElement@@@Z:PROC ; ioWnd::SetSaveData
EXTRN	?GetNumFixedRenderFrame@ioWnd@@UBEHXZ:PROC	; ioWnd::GetNumFixedRenderFrame
EXTRN	?GetFixedRenderFrameType@ioWnd@@UAEPBDH@Z:PROC	; ioWnd::GetFixedRenderFrameType
EXTRN	?GetRenderFrame@ioWnd@@UAEPAPAVioUIRenderElement@@PBD@Z:PROC ; ioWnd::GetRenderFrame
EXTRN	?GetNumFixedRenderImage@ioWnd@@UBEHXZ:PROC	; ioWnd::GetNumFixedRenderImage
EXTRN	?GetFixedRenderImageType@ioWnd@@UAEPBDH@Z:PROC	; ioWnd::GetFixedRenderImageType
EXTRN	?GetRenderImage@ioWnd@@UAEPAPAVioUIRenderElement@@PBD@Z:PROC ; ioWnd::GetRenderImage
EXTRN	??_ESoldierExerciseWnd@@UAEPAXI@Z:PROC		; SoldierExerciseWnd::`vector deleting destructor'
;	COMDAT ??_R1A@?0A@EA@SoldierExerciseWnd@@8
; File c:\program files (x86)\microsoft visual studio 10.0\vc\include\xmemory
rdata$r	SEGMENT
??_R1A@?0A@EA@SoldierExerciseWnd@@8 DD FLAT:??_R0?AVSoldierExerciseWnd@@@8 ; SoldierExerciseWnd::`RTTI Base Class Descriptor at (0,-1,0,64)'
	DD	01H
	DD	00H
	DD	0ffffffffH
	DD	00H
	DD	040H
	DD	FLAT:??_R3SoldierExerciseWnd@@8
rdata$r	ENDS
;	COMDAT ??_R2SoldierExerciseWnd@@8
rdata$r	SEGMENT
??_R2SoldierExerciseWnd@@8 DD FLAT:??_R1A@?0A@EA@SoldierExerciseWnd@@8 ; SoldierExerciseWnd::`RTTI Base Class Array'
	DD	FLAT:??_R1A@?0A@EA@ioWnd@@8
rdata$r	ENDS
;	COMDAT ??_R3SoldierExerciseWnd@@8
rdata$r	SEGMENT
??_R3SoldierExerciseWnd@@8 DD 00H			; SoldierExerciseWnd::`RTTI Class Hierarchy Descriptor'
	DD	00H
	DD	02H
	DD	FLAT:??_R2SoldierExerciseWnd@@8
rdata$r	ENDS
;	COMDAT ??_R0?AVSoldierExerciseWnd@@@8
_DATA	SEGMENT
??_R0?AVSoldierExerciseWnd@@@8 DD FLAT:??_7type_info@@6B@ ; SoldierExerciseWnd `RTTI Type Descriptor'
	DD	00H
	DB	'.?AVSoldierExerciseWnd@@', 00H
_DATA	ENDS
;	COMDAT ??_R4SoldierExerciseWnd@@6B@
rdata$r	SEGMENT
??_R4SoldierExerciseWnd@@6B@ DD 00H			; SoldierExerciseWnd::`RTTI Complete Object Locator'
	DD	00H
	DD	00H
	DD	FLAT:??_R0?AVSoldierExerciseWnd@@@8
	DD	FLAT:??_R3SoldierExerciseWnd@@8
rdata$r	ENDS
;	COMDAT ??_7SoldierExerciseWnd@@6B@
CONST	SEGMENT
??_7SoldierExerciseWnd@@6B@ DD FLAT:??_R4SoldierExerciseWnd@@6B@ ; SoldierExerciseWnd::`vftable'
	DD	FLAT:?AddRenderFrame@ioWnd@@UAEXABVioHashString@@PAVioUIRenderFrame@@@Z
	DD	FLAT:?AddRenderImage@SoldierExerciseWnd@@MAEXABVioHashString@@PAVioUIRenderImage@@@Z
	DD	FLAT:?AddTooltipHelp@ioWnd@@UAEXABVioHashString@@00@Z
	DD	FLAT:?ParseExtraInfo@SoldierExerciseWnd@@UAEXAAVioXMLElement@@@Z
	DD	FLAT:?AddNamedRenderImage@ioWnd@@UAEXABVioHashString@@PAVioUIRenderImage@@@Z
	DD	FLAT:?RemoveNamedRenderImage@ioWnd@@UAEXABVioHashString@@@Z
	DD	FLAT:?GetNamedRenderImage@ioWnd@@UBEPAVioUIRenderImage@@ABVioHashString@@@Z
	DD	FLAT:?SetWindowAlpha@ioWnd@@UAEXH@Z
	DD	FLAT:?SetActive@ioWnd@@UAEXXZ
	DD	FLAT:?SetInActive@ioWnd@@UAEXXZ
	DD	FLAT:?ClearElementImageList@ioWnd@@UAEXXZ
	DD	FLAT:?SetSize@ioWnd@@UAEXHH@Z
	DD	FLAT:?SetPositionToDefault@ioWnd@@UAEXHH_N0@Z
	DD	FLAT:?IsNeedProcess@ioWnd@@UBE_NXZ
	DD	FLAT:?IsCanMouseReaction@ioWnd@@UBE_NXZ
	DD	FLAT:?AddChild@ioWnd@@UAEXPAV1@@Z
	DD	FLAT:?DeleteChild@ioWnd@@UAEXK@Z
	DD	FLAT:?DeleteAllChild@ioWnd@@UAEXXZ
	DD	FLAT:?OnRenderShowAndHide@ioWnd@@MAE_NXZ
	DD	FLAT:?OnRenderShowAndHideByDefault@ioWnd@@MAE_NK@Z
	DD	FLAT:?OnRenderShowAndHideByTop@ioWnd@@MAE_NK@Z
	DD	FLAT:?OnRenderShowAndHideByDown@ioWnd@@MAE_NK@Z
	DD	FLAT:?OnRender@SoldierExerciseWnd@@MAEXXZ
	DD	FLAT:?OnRenderAfterChild@ioWnd@@MAEXXZ
	DD	FLAT:?OnProcess@SoldierExerciseWnd@@MAEXM@Z
	DD	FLAT:?OnMouseProcess@ioWnd@@MAEXABVioMouse@@@Z
	DD	FLAT:?CheckFrameReSize@ioWnd@@MAEXHHHH@Z
	DD	FLAT:?RenderImageList@ioWnd@@MAEXHHW4UIRenderType@@@Z
	DD	FLAT:?iwm_create@SoldierExerciseWnd@@UAEXXZ
	DD	FLAT:?iwm_destroy@ioWnd@@UAEXXZ
	DD	FLAT:?iwm_lbuttondown@ioWnd@@UAEXABVioMouse@@@Z
	DD	FLAT:?iwm_lbuttonup@ioWnd@@UAEXABVioMouse@@@Z
	DD	FLAT:?iwm_lbuttonDBLCLK@ioWnd@@UAEXABVioMouse@@@Z
	DD	FLAT:?iwm_rbuttondown@ioWnd@@UAEXABVioMouse@@@Z
	DD	FLAT:?iwm_rbuttonup@ioWnd@@UAEXABVioMouse@@@Z
	DD	FLAT:?iwm_command@SoldierExerciseWnd@@UAEXPAVioWnd@@HK@Z
	DD	FLAT:?iwm_mouseover@ioWnd@@UAEXABVioMouse@@@Z
	DD	FLAT:?iwm_mousemove@ioWnd@@UAEXABVioMouse@@@Z
	DD	FLAT:?iwm_mouseleave@ioWnd@@UAEXABVioMouse@@@Z
	DD	FLAT:?iwm_vscroll@ioWnd@@UAEXKH@Z
	DD	FLAT:?iwm_wheel@ioWnd@@UAEXH@Z
	DD	FLAT:?iwm_show@SoldierExerciseWnd@@UAEXXZ
	DD	FLAT:?iwm_hide@ioWnd@@UAEXXZ
	DD	FLAT:?iwm_esc@ioWnd@@UAE_NXZ
	DD	FLAT:?iwm_spacebar@ioWnd@@UAE_NXZ
	DD	FLAT:?iwm_gototop@ioWnd@@UAEXXZ
	DD	FLAT:?iwm_dragenter@ioWnd@@UAE?AW4IWDropEffect@@PAVioDragItem@@ABVioMouse@@@Z
	DD	FLAT:?iwm_dragover@ioWnd@@UAE?AW4IWDropEffect@@PAVioDragItem@@ABVioMouse@@@Z
	DD	FLAT:?iwm_dragleave@ioWnd@@UAEXXZ
	DD	FLAT:?iwm_dropitem@ioWnd@@UAE_NPAVioDragItem@@ABVioMouse@@PAV1@@Z
	DD	FLAT:?iwm_dropdone@ioWnd@@UAEXPAVioDragItem@@PAV1@_N@Z
	DD	FLAT:?IsEXType@ioWnd@@UBE_NXZ
	DD	FLAT:?GetWndType@ioWnd@@UBEKXZ
	DD	FLAT:?RenderWnd@ioWnd@@UAEXXZ
	DD	FLAT:?SetIDEX@ioWnd@@UAEXAAK_N@Z
	DD	FLAT:?ParseXML@ioWnd@@UAEXAAVioXMLElement@@@Z
	DD	FLAT:?GetHeaderFileName@ioWnd@@UAEPBDXZ
	DD	FLAT:?GetTemplateName@ioWnd@@UAEPBDXZ
	DD	FLAT:?GetDefClassName@ioWnd@@UBEPBDXZ
	DD	FLAT:?_Clone@ioWnd@@UAEPAV1@XZ
	DD	FLAT:?Copy@ioWnd@@UAEXPAV1@@Z
	DD	FLAT:?Save@ioWnd@@UAE_NAAVioXMLElement@@@Z
	DD	FLAT:?SetSaveData@ioWnd@@UAEXAAVioXMLElement@@@Z
	DD	FLAT:?SetPosX@ioWnd@@UAEXH@Z
	DD	FLAT:?SetPosY@ioWnd@@UAEXH@Z
	DD	FLAT:?SetWidth@ioWnd@@UAEXH@Z
	DD	FLAT:?SetHeight@ioWnd@@UAEXH@Z
	DD	FLAT:?GetNumFixedRenderFrame@ioWnd@@UBEHXZ
	DD	FLAT:?GetFixedRenderFrameType@ioWnd@@UAEPBDH@Z
	DD	FLAT:?GetRenderFrame@ioWnd@@UAEPAPAVioUIRenderElement@@PBD@Z
	DD	FLAT:?GetNumFixedRenderImage@ioWnd@@UBEHXZ
	DD	FLAT:?GetFixedRenderImageType@ioWnd@@UAEPBDH@Z
	DD	FLAT:?GetRenderImage@ioWnd@@UAEPAPAVioUIRenderElement@@PBD@Z
	DD	FLAT:?AddEffect@ioWnd@@UAEXABVioHashString@@PAVioUI3DEffectRender@@@Z
	DD	FLAT:?GetEffect@ioWnd@@UAEPAVioUI3DEffectRender@@VioHashString@@@Z
	DD	FLAT:??_ESoldierExerciseWnd@@UAEPAXI@Z
CONST	ENDS
;	COMDAT xdata$x
xdata$x	SEGMENT
__unwindtable$??0SoldierExerciseWnd@@QAE@XZ DD 0ffffffffH
	DD	FLAT:__unwindfunclet$??0SoldierExerciseWnd@@QAE@XZ$0
	DD	00H
	DD	FLAT:__unwindfunclet$??0SoldierExerciseWnd@@QAE@XZ$1
	DD	01H
	DD	FLAT:__unwindfunclet$??0SoldierExerciseWnd@@QAE@XZ$2
	DD	02H
	DD	FLAT:__unwindfunclet$??0SoldierExerciseWnd@@QAE@XZ$3
__ehfuncinfo$??0SoldierExerciseWnd@@QAE@XZ DD 019930522H
	DD	04H
	DD	FLAT:__unwindtable$??0SoldierExerciseWnd@@QAE@XZ
	DD	2 DUP(00H)
	DD	2 DUP(00H)
	DD	00H
	DD	01H
; Function compile flags: /Ogsp
; File d:\lost saga for developer\youtube\tutorial\source\src\lsclient\gui\soldierexercisewnd.cpp
xdata$x	ENDS
;	COMDAT ??0SoldierExerciseWnd@@QAE@XZ
_TEXT	SEGMENT
_this$ = -16						; size = 4
__$EHRec$ = -12						; size = 12
??0SoldierExerciseWnd@@QAE@XZ PROC			; SoldierExerciseWnd::SoldierExerciseWnd, COMDAT
; _this$ = ecx

; 703  : {

  00000	6a 04		 push	 4
  00002	b8 00 00 00 00	 mov	 eax, __ehhandler$??0SoldierExerciseWnd@@QAE@XZ
  00007	e8 00 00 00 00	 call	 __EH_prolog3
  0000c	8b f1		 mov	 esi, ecx
  0000e	89 75 f0	 mov	 DWORD PTR _this$[ebp], esi
  00011	ff 15 00 00 00
	00		 call	 DWORD PTR __imp_??0ioWnd@@QAE@XZ
  00017	33 db		 xor	 ebx, ebx
  00019	8d 8e 70 01 00
	00		 lea	 ecx, DWORD PTR [esi+368]
  0001f	89 5d fc	 mov	 DWORD PTR __$EHRec$[ebp+8], ebx
  00022	c7 06 00 00 00
	00		 mov	 DWORD PTR [esi], OFFSET ??_7SoldierExerciseWnd@@6B@
  00028	e8 00 00 00 00	 call	 ??0FSMStateMgr@@QAE@XZ	; FSMStateMgr::FSMStateMgr
  0002d	8d 8e 98 01 00
	00		 lea	 ecx, DWORD PTR [esi+408]
  00033	c6 45 fc 01	 mov	 BYTE PTR __$EHRec$[ebp+8], 1
  00037	e8 00 00 00 00	 call	 ??0FSMStateMgr@@QAE@XZ	; FSMStateMgr::FSMStateMgr
  0003c	8d 8e c8 01 00
	00		 lea	 ecx, DWORD PTR [esi+456]
  00042	89 19		 mov	 DWORD PTR [ecx], ebx
  00044	89 59 04	 mov	 DWORD PTR [ecx+4], ebx
  00047	89 59 08	 mov	 DWORD PTR [ecx+8], ebx

; 704  : 	m_iExerciseStyle     = EXERCISE_GENERAL;
; 705  : 	m_iCurPage			 = 0;
; 706  : 	m_iMaxPage			 = 0;
; 707  : 	m_pPlayStage         = NULL;
; 708  : 	m_pArrow             = NULL;
; 709  : 	m_pBigArrow          = NULL;
; 710  : 	m_bArrow             = false;
; 711  : 	m_iDownHeight        = 0;
; 712  : 	m_vItemInfoList.reserve(10);

  0004a	6a 0a		 push	 10			; 0000000aH
  0004c	c6 45 fc 03	 mov	 BYTE PTR __$EHRec$[ebp+8], 3
  00050	c7 86 64 01 00
	00 01 00 00 00	 mov	 DWORD PTR [esi+356], 1
  0005a	89 9e 68 01 00
	00		 mov	 DWORD PTR [esi+360], ebx
  00060	89 9e 6c 01 00
	00		 mov	 DWORD PTR [esi+364], ebx
  00066	89 9e 60 01 00
	00		 mov	 DWORD PTR [esi+352], ebx
  0006c	89 9e c0 01 00
	00		 mov	 DWORD PTR [esi+448], ebx
  00072	89 9e c4 01 00
	00		 mov	 DWORD PTR [esi+452], ebx
  00078	88 9e d8 01 00
	00		 mov	 BYTE PTR [esi+472], bl
  0007e	89 9e dc 01 00
	00		 mov	 DWORD PTR [esi+476], ebx
  00084	e8 00 00 00 00	 call	 ?reserve@?$vector@UtagShopItemInfo@@V?$allocator@UtagShopItemInfo@@@std@@@std@@QAEXI@Z ; std::vector<tagShopItemInfo,std::allocator<tagShopItemInfo> >::reserve

; 713  : 	InitAniState();

  00089	8b ce		 mov	 ecx, esi
  0008b	e8 00 00 00 00	 call	 ?InitAniState@SoldierExerciseWnd@@IAEXXZ ; SoldierExerciseWnd::InitAniState

; 714  : 	InitBigArrowAniState();

  00090	8b ce		 mov	 ecx, esi
  00092	e8 00 00 00 00	 call	 ?InitBigArrowAniState@SoldierExerciseWnd@@IAEXXZ ; SoldierExerciseWnd::InitBigArrowAniState

; 715  : }

  00097	8b c6		 mov	 eax, esi
  00099	e8 00 00 00 00	 call	 __EH_epilog3
  0009e	c3		 ret	 0
_TEXT	ENDS
;	COMDAT text$x
text$x	SEGMENT
__unwindfunclet$??0SoldierExerciseWnd@@QAE@XZ$0:
  00000	8b 4d f0	 mov	 ecx, DWORD PTR _this$[ebp]
  00003	ff 25 00 00 00
	00		 jmp	 DWORD PTR __imp_??1ioWnd@@UAE@XZ
__unwindfunclet$??0SoldierExerciseWnd@@QAE@XZ$1:
  00009	8b 4d f0	 mov	 ecx, DWORD PTR _this$[ebp]
  0000c	81 c1 70 01 00
	00		 add	 ecx, 368		; 00000170H
  00012	e9 00 00 00 00	 jmp	 ??1FSMStateMgr@@UAE@XZ	; FSMStateMgr::~FSMStateMgr
__unwindfunclet$??0SoldierExerciseWnd@@QAE@XZ$2:
  00017	8b 4d f0	 mov	 ecx, DWORD PTR _this$[ebp]
  0001a	81 c1 98 01 00
	00		 add	 ecx, 408		; 00000198H
  00020	e9 00 00 00 00	 jmp	 ??1FSMStateMgr@@UAE@XZ	; FSMStateMgr::~FSMStateMgr
__unwindfunclet$??0SoldierExerciseWnd@@QAE@XZ$3:
  00025	8b 4d f0	 mov	 ecx, DWORD PTR _this$[ebp]
  00028	81 c1 c8 01 00
	00		 add	 ecx, 456		; 000001c8H
  0002e	e9 00 00 00 00	 jmp	 ??1?$vector@UtagShopItemInfo@@V?$allocator@UtagShopItemInfo@@@std@@@std@@QAE@XZ ; std::vector<tagShopItemInfo,std::allocator<tagShopItemInfo> >::~vector<tagShopItemInfo,std::allocator<tagShopItemInfo> >
__ehhandler$??0SoldierExerciseWnd@@QAE@XZ:
  00033	8b 54 24 08	 mov	 edx, DWORD PTR [esp+8]
  00037	8d 42 0c	 lea	 eax, DWORD PTR [edx+12]
  0003a	8b 4a ec	 mov	 ecx, DWORD PTR [edx-20]
  0003d	33 c8		 xor	 ecx, eax
  0003f	e8 00 00 00 00	 call	 @__security_check_cookie@4
  00044	b8 00 00 00 00	 mov	 eax, OFFSET __ehfuncinfo$??0SoldierExerciseWnd@@QAE@XZ
  00049	e9 00 00 00 00	 jmp	 ___CxxFrameHandler3
text$x	ENDS
??0SoldierExerciseWnd@@QAE@XZ ENDP			; SoldierExerciseWnd::SoldierExerciseWnd
PUBLIC	?push_back@?$vector@UtagShopItemInfo@@V?$allocator@UtagShopItemInfo@@@std@@@std@@QAEXABUtagShopItemInfo@@@Z ; std::vector<tagShopItemInfo,std::allocator<tagShopItemInfo> >::push_back
; Function compile flags: /Ogsp
; File c:\program files (x86)\microsoft visual studio 10.0\vc\include\vector
;	COMDAT ?push_back@?$vector@UtagShopItemInfo@@V?$allocator@UtagShopItemInfo@@@std@@@std@@QAEXABUtagShopItemInfo@@@Z
_TEXT	SEGMENT
__Val$ = 8						; size = 4
?push_back@?$vector@UtagShopItemInfo@@V?$allocator@UtagShopItemInfo@@@std@@@std@@QAEXABUtagShopItemInfo@@@Z PROC ; std::vector<tagShopItemInfo,std::allocator<tagShopItemInfo> >::push_back, COMDAT
; _this$ = ecx

; 976  : 		{	// insert element at end

  00000	55		 push	 ebp
  00001	8b ec		 mov	 ebp, esp
  00003	56		 push	 esi
  00004	8b f1		 mov	 esi, ecx

; 977  : 		if (_Inside(_STD addressof(_Val)))

  00006	8b 4e 04	 mov	 ecx, DWORD PTR [esi+4]
  00009	57		 push	 edi
  0000a	8b 7d 08	 mov	 edi, DWORD PTR __Val$[ebp]
  0000d	3b f9		 cmp	 edi, ecx
  0000f	73 34		 jae	 SHORT $LN4@push_back
  00011	8b 16		 mov	 edx, DWORD PTR [esi]
  00013	3b d7		 cmp	 edx, edi
  00015	77 2e		 ja	 SHORT $LN4@push_back

; 978  : 			{	// push back an element
; 979  : 			size_type _Idx = _STD addressof(_Val) - this->_Myfirst;

  00017	8b c7		 mov	 eax, edi
  00019	2b c2		 sub	 eax, edx
  0001b	6a 2c		 push	 44			; 0000002cH
  0001d	99		 cdq
  0001e	5f		 pop	 edi
  0001f	f7 ff		 idiv	 edi
  00021	8b f8		 mov	 edi, eax

; 980  : 			if (this->_Mylast == this->_Myend)

  00023	3b 4e 08	 cmp	 ecx, DWORD PTR [esi+8]
  00026	75 09		 jne	 SHORT $LN3@push_back

; 981  : 				_Reserve(1);

  00028	6a 01		 push	 1
  0002a	8b ce		 mov	 ecx, esi
  0002c	e8 00 00 00 00	 call	 ?_Reserve@?$vector@UtagShopItemInfo@@V?$allocator@UtagShopItemInfo@@@std@@@std@@IAEXI@Z ; std::vector<tagShopItemInfo,std::allocator<tagShopItemInfo> >::_Reserve
$LN3@push_back:

; 982  : 			_Orphan_range(this->_Mylast, this->_Mylast);
; 983  : 			_Cons_val(this->_Alval,
; 984  : 				this->_Mylast,
; 985  : 				this->_Myfirst[_Idx]);

  00031	6b ff 2c	 imul	 edi, 44			; 0000002cH
  00034	03 3e		 add	 edi, DWORD PTR [esi]
  00036	8d 46 0c	 lea	 eax, DWORD PTR [esi+12]
  00039	57		 push	 edi
  0003a	ff 76 04	 push	 DWORD PTR [esi+4]
  0003d	50		 push	 eax
  0003e	e8 00 00 00 00	 call	 ??$_Cons_val@V?$allocator@UtagShopItemInfo@@@std@@UtagShopItemInfo@@AAU3@@std@@YAXAAV?$allocator@UtagShopItemInfo@@@0@PAUtagShopItemInfo@@AAU2@@Z ; std::_Cons_val<std::allocator<tagShopItemInfo>,tagShopItemInfo,tagShopItemInfo &>

; 986  : 			++this->_Mylast;
; 987  : 			}
; 988  : 		else

  00043	eb 1b		 jmp	 SHORT $LN20@push_back
$LN4@push_back:

; 989  : 			{	// push back a non-element
; 990  : 			if (this->_Mylast == this->_Myend)

  00045	3b 4e 08	 cmp	 ecx, DWORD PTR [esi+8]
  00048	75 09		 jne	 SHORT $LN1@push_back

; 991  : 				_Reserve(1);

  0004a	6a 01		 push	 1
  0004c	8b ce		 mov	 ecx, esi
  0004e	e8 00 00 00 00	 call	 ?_Reserve@?$vector@UtagShopItemInfo@@V?$allocator@UtagShopItemInfo@@@std@@@std@@IAEXI@Z ; std::vector<tagShopItemInfo,std::allocator<tagShopItemInfo> >::_Reserve
$LN1@push_back:

; 992  : 			_Orphan_range(this->_Mylast, this->_Mylast);
; 993  : 			_Cons_val(this->_Alval,
; 994  : 				this->_Mylast,
; 995  : 				_Val);

  00053	57		 push	 edi
  00054	ff 76 04	 push	 DWORD PTR [esi+4]
  00057	8d 46 0c	 lea	 eax, DWORD PTR [esi+12]
  0005a	50		 push	 eax
  0005b	e8 00 00 00 00	 call	 ??$_Cons_val@V?$allocator@UtagShopItemInfo@@@std@@UtagShopItemInfo@@ABU3@@std@@YAXAAV?$allocator@UtagShopItemInfo@@@0@PAUtagShopItemInfo@@ABU2@@Z ; std::_Cons_val<std::allocator<tagShopItemInfo>,tagShopItemInfo,tagShopItemInfo const &>
$LN20@push_back:
  00060	83 c4 0c	 add	 esp, 12			; 0000000cH

; 996  : 			++this->_Mylast;

  00063	83 46 04 2c	 add	 DWORD PTR [esi+4], 44	; 0000002cH
  00067	5f		 pop	 edi
  00068	5e		 pop	 esi

; 997  : 			}
; 998  : 		}

  00069	5d		 pop	 ebp
  0006a	c2 04 00	 ret	 4
?push_back@?$vector@UtagShopItemInfo@@V?$allocator@UtagShopItemInfo@@@std@@@std@@QAEXABUtagShopItemInfo@@@Z ENDP ; std::vector<tagShopItemInfo,std::allocator<tagShopItemInfo> >::push_back
_TEXT	ENDS
PUBLIC	?clear@?$vector@UtagShopItemInfo@@V?$allocator@UtagShopItemInfo@@@std@@@std@@QAEXXZ ; std::vector<tagShopItemInfo,std::allocator<tagShopItemInfo> >::clear
; Function compile flags: /Ogsp
;	COMDAT ?clear@?$vector@UtagShopItemInfo@@V?$allocator@UtagShopItemInfo@@@std@@@std@@QAEXXZ
_TEXT	SEGMENT
$T560298 = -4						; size = 4
?clear@?$vector@UtagShopItemInfo@@V?$allocator@UtagShopItemInfo@@@std@@@std@@QAEXXZ PROC ; std::vector<tagShopItemInfo,std::allocator<tagShopItemInfo> >::clear, COMDAT
; _this$ = ecx

; 1217 : 		{	// erase all

  00000	55		 push	 ebp
  00001	8b ec		 mov	 ebp, esp
  00003	51		 push	 ecx

; 1218 : 		erase(begin(), end());

  00004	8b 41 04	 mov	 eax, DWORD PTR [ecx+4]
  00007	8b 11		 mov	 edx, DWORD PTR [ecx]
  00009	50		 push	 eax
  0000a	52		 push	 edx
  0000b	8d 45 fc	 lea	 eax, DWORD PTR $T560298[ebp]
  0000e	50		 push	 eax
  0000f	e8 00 00 00 00	 call	 ?erase@?$vector@UtagShopItemInfo@@V?$allocator@UtagShopItemInfo@@@std@@@std@@QAE?AV?$_Vector_iterator@V?$_Vector_val@UtagShopItemInfo@@V?$allocator@UtagShopItemInfo@@@std@@@std@@@2@V?$_Vector_const_iterator@V?$_Vector_val@UtagShopItemInfo@@V?$allocator@UtagShopItemInfo@@@std@@@std@@@2@0@Z ; std::vector<tagShopItemInfo,std::allocator<tagShopItemInfo> >::erase

; 1219 : 		}

  00014	c9		 leave
  00015	c3		 ret	 0
?clear@?$vector@UtagShopItemInfo@@V?$allocator@UtagShopItemInfo@@@std@@@std@@QAEXXZ ENDP ; std::vector<tagShopItemInfo,std::allocator<tagShopItemInfo> >::clear
_TEXT	ENDS
PUBLIC	??$sort@V?$_Vector_iterator@V?$_Vector_val@UtagShopItemInfo@@V?$allocator@UtagShopItemInfo@@@std@@@std@@@std@@VShopItemInfoSort@@@std@@YAXV?$_Vector_iterator@V?$_Vector_val@UtagShopItemInfo@@V?$allocator@UtagShopItemInfo@@@std@@@std@@@0@0VShopItemInfoSort@@@Z ; std::sort<std::_Vector_iterator<std::_Vector_val<tagShopItemInfo,std::allocator<tagShopItemInfo> > >,ShopItemInfoSort>
; Function compile flags: /Ogsp
; File c:\program files (x86)\microsoft visual studio 10.0\vc\include\algorithm
;	COMDAT ??$sort@V?$_Vector_iterator@V?$_Vector_val@UtagShopItemInfo@@V?$allocator@UtagShopItemInfo@@@std@@@std@@@std@@VShopItemInfoSort@@@std@@YAXV?$_Vector_iterator@V?$_Vector_val@UtagShopItemInfo@@V?$allocator@UtagShopItemInfo@@@std@@@std@@@0@0VShopItemInfoSort@@@Z
_TEXT	SEGMENT
__First$ = 8						; size = 4
__Last$ = 12						; size = 4
__Pred$ = 16						; size = 1
??$sort@V?$_Vector_iterator@V?$_Vector_val@UtagShopItemInfo@@V?$allocator@UtagShopItemInfo@@@std@@@std@@@std@@VShopItemInfoSort@@@std@@YAXV?$_Vector_iterator@V?$_Vector_val@UtagShopItemInfo@@V?$allocator@UtagShopItemInfo@@@std@@@std@@@0@0VShopItemInfoSort@@@Z PROC ; std::sort<std::_Vector_iterator<std::_Vector_val<tagShopItemInfo,std::allocator<tagShopItemInfo> > >,ShopItemInfoSort>, COMDAT

; 3803 : 	{	// order [_First, _Last), using _Pred

  00000	55		 push	 ebp
  00001	8b ec		 mov	 ebp, esp

; 3804 : 	_DEBUG_RANGE(_First, _Last);
; 3805 : 	_DEBUG_POINTER(_Pred);
; 3806 : 	_Sort(_Unchecked(_First), _Unchecked(_Last), _Last - _First, _Pred);

  00003	ff 75 10	 push	 DWORD PTR __Pred$[ebp]
  00006	8b 45 0c	 mov	 eax, DWORD PTR __Last$[ebp]
  00009	2b 45 08	 sub	 eax, DWORD PTR __First$[ebp]
  0000c	6a 2c		 push	 44			; 0000002cH
  0000e	59		 pop	 ecx
  0000f	99		 cdq
  00010	f7 f9		 idiv	 ecx
  00012	50		 push	 eax
  00013	ff 75 0c	 push	 DWORD PTR __Last$[ebp]
  00016	ff 75 08	 push	 DWORD PTR __First$[ebp]
  00019	e8 00 00 00 00	 call	 ??$_Sort@PAUtagShopItemInfo@@HVShopItemInfoSort@@@std@@YAXPAUtagShopItemInfo@@0HVShopItemInfoSort@@@Z ; std::_Sort<tagShopItemInfo *,int,ShopItemInfoSort>
  0001e	83 c4 10	 add	 esp, 16			; 00000010H

; 3807 : 	}

  00021	5d		 pop	 ebp
  00022	c3		 ret	 0
??$sort@V?$_Vector_iterator@V?$_Vector_val@UtagShopItemInfo@@V?$allocator@UtagShopItemInfo@@@std@@@std@@@std@@VShopItemInfoSort@@@std@@YAXV?$_Vector_iterator@V?$_Vector_val@UtagShopItemInfo@@V?$allocator@UtagShopItemInfo@@@std@@@std@@@0@0VShopItemInfoSort@@@Z ENDP ; std::sort<std::_Vector_iterator<std::_Vector_val<tagShopItemInfo,std::allocator<tagShopItemInfo> > >,ShopItemInfoSort>
_TEXT	ENDS
PUBLIC	??1SoldierExerciseWnd@@UAE@XZ			; SoldierExerciseWnd::~SoldierExerciseWnd
;	COMDAT xdata$x
; File c:\program files (x86)\microsoft visual studio 10.0\vc\include\vector
xdata$x	SEGMENT
__unwindtable$??1SoldierExerciseWnd@@UAE@XZ DD 0ffffffffH
	DD	FLAT:__unwindfunclet$??1SoldierExerciseWnd@@UAE@XZ$0
	DD	00H
	DD	FLAT:__unwindfunclet$??1SoldierExerciseWnd@@UAE@XZ$1
	DD	01H
	DD	FLAT:__unwindfunclet$??1SoldierExerciseWnd@@UAE@XZ$2
	DD	02H
	DD	FLAT:__unwindfunclet$??1SoldierExerciseWnd@@UAE@XZ$3
__ehfuncinfo$??1SoldierExerciseWnd@@UAE@XZ DD 019930522H
	DD	04H
	DD	FLAT:__unwindtable$??1SoldierExerciseWnd@@UAE@XZ
	DD	2 DUP(00H)
	DD	2 DUP(00H)
	DD	00H
	DD	01H
; Function compile flags: /Ogsp
; File d:\lost saga for developer\youtube\tutorial\source\src\lsclient\gui\soldierexercisewnd.cpp
xdata$x	ENDS
;	COMDAT ??1SoldierExerciseWnd@@UAE@XZ
_TEXT	SEGMENT
$T560459 = -20						; size = 4
_this$ = -16						; size = 4
__$EHRec$ = -12						; size = 12
??1SoldierExerciseWnd@@UAE@XZ PROC			; SoldierExerciseWnd::~SoldierExerciseWnd, COMDAT
; _this$ = ecx

; 718  : {

  00000	6a 08		 push	 8
  00002	b8 00 00 00 00	 mov	 eax, __ehhandler$??1SoldierExerciseWnd@@UAE@XZ
  00007	e8 00 00 00 00	 call	 __EH_prolog3
  0000c	8b f1		 mov	 esi, ecx
  0000e	89 75 f0	 mov	 DWORD PTR _this$[ebp], esi
  00011	c7 06 00 00 00
	00		 mov	 DWORD PTR [esi], OFFSET ??_7SoldierExerciseWnd@@6B@

; 719  : 	SAFEDELETE( m_pArrow );

  00017	8b 8e c0 01 00
	00		 mov	 ecx, DWORD PTR [esi+448]
  0001d	c7 45 fc 03 00
	00 00		 mov	 DWORD PTR __$EHRec$[ebp+8], 3
  00024	85 c9		 test	 ecx, ecx
  00026	74 0e		 je	 SHORT $LN2@SoldierExe@2
  00028	8b 01		 mov	 eax, DWORD PTR [ecx]
  0002a	6a 01		 push	 1
  0002c	ff 50 40	 call	 DWORD PTR [eax+64]
  0002f	83 a6 c0 01 00
	00 00		 and	 DWORD PTR [esi+448], 0
$LN2@SoldierExe@2:

; 720  : 	SAFEDELETE( m_pBigArrow );

  00036	8b 8e c4 01 00
	00		 mov	 ecx, DWORD PTR [esi+452]
  0003c	85 c9		 test	 ecx, ecx
  0003e	74 0e		 je	 SHORT $LN1@SoldierExe@2
  00040	8b 01		 mov	 eax, DWORD PTR [ecx]
  00042	6a 01		 push	 1
  00044	ff 50 40	 call	 DWORD PTR [eax+64]
  00047	83 a6 c4 01 00
	00 00		 and	 DWORD PTR [esi+452], 0
$LN1@SoldierExe@2:

; 721  : 	m_vItemInfoList.clear();

  0004e	8b 86 cc 01 00
	00		 mov	 eax, DWORD PTR [esi+460]
  00054	8b 8e c8 01 00
	00		 mov	 ecx, DWORD PTR [esi+456]
  0005a	50		 push	 eax
  0005b	51		 push	 ecx
  0005c	8d 45 ec	 lea	 eax, DWORD PTR $T560459[ebp]
  0005f	50		 push	 eax
  00060	8d 8e c8 01 00
	00		 lea	 ecx, DWORD PTR [esi+456]
  00066	e8 00 00 00 00	 call	 ?erase@?$vector@UtagShopItemInfo@@V?$allocator@UtagShopItemInfo@@@std@@@std@@QAE?AV?$_Vector_iterator@V?$_Vector_val@UtagShopItemInfo@@V?$allocator@UtagShopItemInfo@@@std@@@std@@@2@V?$_Vector_const_iterator@V?$_Vector_val@UtagShopItemInfo@@V?$allocator@UtagShopItemInfo@@@std@@@std@@@2@0@Z ; std::vector<tagShopItemInfo,std::allocator<tagShopItemInfo> >::erase

; 722  : }

  0006b	8d 8e c8 01 00
	00		 lea	 ecx, DWORD PTR [esi+456]
  00071	c6 45 fc 02	 mov	 BYTE PTR __$EHRec$[ebp+8], 2
  00075	e8 00 00 00 00	 call	 ?_Tidy@?$vector@UtagShopItemInfo@@V?$allocator@UtagShopItemInfo@@@std@@@std@@IAEXXZ ; std::vector<tagShopItemInfo,std::allocator<tagShopItemInfo> >::_Tidy
  0007a	8d 8e 98 01 00
	00		 lea	 ecx, DWORD PTR [esi+408]
  00080	c6 45 fc 01	 mov	 BYTE PTR __$EHRec$[ebp+8], 1
  00084	e8 00 00 00 00	 call	 ??1FSMStateMgr@@UAE@XZ	; FSMStateMgr::~FSMStateMgr
  00089	8d 8e 70 01 00
	00		 lea	 ecx, DWORD PTR [esi+368]
  0008f	c6 45 fc 00	 mov	 BYTE PTR __$EHRec$[ebp+8], 0
  00093	e8 00 00 00 00	 call	 ??1FSMStateMgr@@UAE@XZ	; FSMStateMgr::~FSMStateMgr
  00098	83 4d fc ff	 or	 DWORD PTR __$EHRec$[ebp+8], -1
  0009c	8b ce		 mov	 ecx, esi
  0009e	ff 15 00 00 00
	00		 call	 DWORD PTR __imp_??1ioWnd@@UAE@XZ
  000a4	e8 00 00 00 00	 call	 __EH_epilog3
  000a9	c3		 ret	 0
_TEXT	ENDS
;	COMDAT text$x
text$x	SEGMENT
__unwindfunclet$??1SoldierExerciseWnd@@UAE@XZ$0:
  00000	8b 4d f0	 mov	 ecx, DWORD PTR _this$[ebp]
  00003	ff 25 00 00 00
	00		 jmp	 DWORD PTR __imp_??1ioWnd@@UAE@XZ
__unwindfunclet$??1SoldierExerciseWnd@@UAE@XZ$1:
  00009	8b 4d f0	 mov	 ecx, DWORD PTR _this$[ebp]
  0000c	81 c1 70 01 00
	00		 add	 ecx, 368		; 00000170H
  00012	e9 00 00 00 00	 jmp	 ??1FSMStateMgr@@UAE@XZ	; FSMStateMgr::~FSMStateMgr
__unwindfunclet$??1SoldierExerciseWnd@@UAE@XZ$2:
  00017	8b 4d f0	 mov	 ecx, DWORD PTR _this$[ebp]
  0001a	81 c1 98 01 00
	00		 add	 ecx, 408		; 00000198H
  00020	e9 00 00 00 00	 jmp	 ??1FSMStateMgr@@UAE@XZ	; FSMStateMgr::~FSMStateMgr
__unwindfunclet$??1SoldierExerciseWnd@@UAE@XZ$3:
  00025	8b 4d f0	 mov	 ecx, DWORD PTR _this$[ebp]
  00028	81 c1 c8 01 00
	00		 add	 ecx, 456		; 000001c8H
  0002e	e9 00 00 00 00	 jmp	 ??1?$vector@UtagShopItemInfo@@V?$allocator@UtagShopItemInfo@@@std@@@std@@QAE@XZ ; std::vector<tagShopItemInfo,std::allocator<tagShopItemInfo> >::~vector<tagShopItemInfo,std::allocator<tagShopItemInfo> >
__ehhandler$??1SoldierExerciseWnd@@UAE@XZ:
  00033	8b 54 24 08	 mov	 edx, DWORD PTR [esp+8]
  00037	8d 42 0c	 lea	 eax, DWORD PTR [edx+12]
  0003a	8b 4a e8	 mov	 ecx, DWORD PTR [edx-24]
  0003d	33 c8		 xor	 ecx, eax
  0003f	e8 00 00 00 00	 call	 @__security_check_cookie@4
  00044	b8 00 00 00 00	 mov	 eax, OFFSET __ehfuncinfo$??1SoldierExerciseWnd@@UAE@XZ
  00049	e9 00 00 00 00	 jmp	 ___CxxFrameHandler3
text$x	ENDS
??1SoldierExerciseWnd@@UAE@XZ ENDP			; SoldierExerciseWnd::~SoldierExerciseWnd
PUBLIC	?SortItemInfo@SoldierExerciseWnd@@IAEXXZ	; SoldierExerciseWnd::SortItemInfo
EXTRN	?GetNeedLevel@ioSetItemInfo@@QBEHH@Z:PROC	; ioSetItemInfo::GetNeedLevel
EXTRN	?GetNeedLevelType@ioSetItemInfo@@QBE?AW4NeedLevelType@1@H@Z:PROC ; ioSetItemInfo::GetNeedLevelType
EXTRN	?GetNeedLevelInfoListCnt@ioSetItemInfo@@QBEHXZ:PROC ; ioSetItemInfo::GetNeedLevelInfoListCnt
EXTRN	?GetClassBuyPeso@ioClassPrice@@QAEHHH_N@Z:PROC	; ioClassPrice::GetClassBuyPeso
EXTRN	?IsCanBuyItem@ioMyInfo@@QAE_NPBVioSetItemInfo@@@Z:PROC ; ioMyInfo::IsCanBuyItem
EXTRN	?ArrayToSetItemIdx@ioClassPrice@@QAEHH@Z:PROC	; ioClassPrice::ArrayToSetItemIdx
EXTRN	?IsCashOnlyByArray@ioClassPrice@@QAE_NH@Z:PROC	; ioClassPrice::IsCashOnlyByArray
EXTRN	?IsActiveClass@ioClassPrice@@QAE_NH@Z:PROC	; ioClassPrice::IsActiveClass
; Function compile flags: /Ogsp
;	COMDAT ?SortItemInfo@SoldierExerciseWnd@@IAEXXZ
_TEXT	SEGMENT
_kInfo$548883 = -60					; size = 44
$T560494 = -16						; size = 1
$T560558 = -16						; size = 4
_iMaxType$548885 = -16					; size = 4
_this$ = -12						; size = 4
_i$548874 = -8						; size = 4
_j$548886 = -4						; size = 4
_iSetIdx$548880 = -4					; size = 4
?SortItemInfo@SoldierExerciseWnd@@IAEXXZ PROC		; SoldierExerciseWnd::SortItemInfo, COMDAT
; _this$ = ecx

; 1369 : {

  00000	55		 push	 ebp
  00001	8b ec		 mov	 ebp, esp
  00003	83 ec 3c	 sub	 esp, 60			; 0000003cH
  00006	53		 push	 ebx
  00007	56		 push	 esi
  00008	8b f1		 mov	 esi, ecx

; 1370 : 	m_vItemInfoList.clear();

  0000a	8d 9e c8 01 00
	00		 lea	 ebx, DWORD PTR [esi+456]
  00010	8b 43 04	 mov	 eax, DWORD PTR [ebx+4]
  00013	8b 0b		 mov	 ecx, DWORD PTR [ebx]
  00015	57		 push	 edi
  00016	50		 push	 eax
  00017	51		 push	 ecx
  00018	8d 45 f0	 lea	 eax, DWORD PTR $T560558[ebp]
  0001b	50		 push	 eax
  0001c	8b cb		 mov	 ecx, ebx
  0001e	89 75 f4	 mov	 DWORD PTR _this$[ebp], esi
  00021	e8 00 00 00 00	 call	 ?erase@?$vector@UtagShopItemInfo@@V?$allocator@UtagShopItemInfo@@@std@@@std@@QAE?AV?$_Vector_iterator@V?$_Vector_val@UtagShopItemInfo@@V?$allocator@UtagShopItemInfo@@@std@@@std@@@2@V?$_Vector_const_iterator@V?$_Vector_val@UtagShopItemInfo@@V?$allocator@UtagShopItemInfo@@@std@@@std@@@2@0@Z ; std::vector<tagShopItemInfo,std::allocator<tagShopItemInfo> >::erase

; 1371 : 	int iMax = g_ClassPrice.MaxClassPrice();

  00026	e8 00 00 00 00	 call	 ?GetSingleton@ioClassPrice@@SAAAV1@XZ ; ioClassPrice::GetSingleton
  0002b	8b 78 08	 mov	 edi, DWORD PTR [eax+8]
  0002e	2b 78 04	 sub	 edi, DWORD PTR [eax+4]

; 1372 : 	for (int i = 0; i <  iMax; i++)

  00031	83 65 f8 00	 and	 DWORD PTR _i$548874[ebp], 0
  00035	c1 ff 02	 sar	 edi, 2
  00038	85 ff		 test	 edi, edi
  0003a	0f 8e 7b 01 00
	00		 jle	 $LN17@SortItemIn
$LL78@SortItemIn:

; 1373 : 	{
; 1374 : 		if( !g_ClassPrice.IsActiveClass( i ) )

  00040	ff 75 f8	 push	 DWORD PTR _i$548874[ebp]
  00043	e8 00 00 00 00	 call	 ?GetSingleton@ioClassPrice@@SAAAV1@XZ ; ioClassPrice::GetSingleton
  00048	8b c8		 mov	 ecx, eax
  0004a	e8 00 00 00 00	 call	 ?IsActiveClass@ioClassPrice@@QAE_NH@Z ; ioClassPrice::IsActiveClass
  0004f	84 c0		 test	 al, al
  00051	0f 84 55 01 00
	00		 je	 $LN18@SortItemIn

; 1375 : 			continue;
; 1376 : 		if( g_ClassPrice.IsCashOnlyByArray( i ) )

  00057	ff 75 f8	 push	 DWORD PTR _i$548874[ebp]
  0005a	e8 00 00 00 00	 call	 ?GetSingleton@ioClassPrice@@SAAAV1@XZ ; ioClassPrice::GetSingleton
  0005f	8b c8		 mov	 ecx, eax
  00061	e8 00 00 00 00	 call	 ?IsCashOnlyByArray@ioClassPrice@@QAE_NH@Z ; ioClassPrice::IsCashOnlyByArray
  00066	84 c0		 test	 al, al
  00068	0f 85 3e 01 00
	00		 jne	 $LN18@SortItemIn

; 1377 : 			continue;
; 1378 : 		int iSetIdx = g_ClassPrice.ArrayToSetItemIdx( i );

  0006e	ff 75 f8	 push	 DWORD PTR _i$548874[ebp]
  00071	e8 00 00 00 00	 call	 ?GetSingleton@ioClassPrice@@SAAAV1@XZ ; ioClassPrice::GetSingleton
  00076	8b c8		 mov	 ecx, eax
  00078	e8 00 00 00 00	 call	 ?ArrayToSetItemIdx@ioClassPrice@@QAEHH@Z ; ioClassPrice::ArrayToSetItemIdx

; 1379 : 		const ioSetItemInfo *pInfo = g_SetItemInfoMgr.GetSetInfoByIdx( iSetIdx );

  0007d	50		 push	 eax
  0007e	89 45 fc	 mov	 DWORD PTR _iSetIdx$548880[ebp], eax
  00081	e8 00 00 00 00	 call	 ?GetSingeton@ioSetItemInfoManager@@SAAAV1@XZ ; ioSetItemInfoManager::GetSingeton
  00086	8b c8		 mov	 ecx, eax
  00088	e8 00 00 00 00	 call	 ?GetSetInfoByIdx@ioSetItemInfoManager@@QBEPBVioSetItemInfo@@H@Z ; ioSetItemInfoManager::GetSetInfoByIdx
  0008d	8b f0		 mov	 esi, eax

; 1380 : 		if( !pInfo ) continue;

  0008f	85 f6		 test	 esi, esi
  00091	0f 84 15 01 00
	00		 je	 $LN18@SortItemIn

; 1381 : 
; 1382 : 		ShopItemInfo kInfo;

  00097	8d 4d c4	 lea	 ecx, DWORD PTR _kInfo$548883[ebp]
  0009a	e8 00 00 00 00	 call	 ??0tagShopItemInfo@@QAE@XZ ; tagShopItemInfo::tagShopItemInfo

; 1383 : 		kInfo.m_iSetItemIdx = iSetIdx;

  0009f	8b 45 fc	 mov	 eax, DWORD PTR _iSetIdx$548880[ebp]

; 1384 : 		kInfo.m_bCanBuy     = g_MyInfo.IsCanBuyItem( pInfo );

  000a2	56		 push	 esi
  000a3	89 45 c4	 mov	 DWORD PTR _kInfo$548883[ebp], eax
  000a6	e8 00 00 00 00	 call	 ?GetSingleton@ioMyInfo@@SAAAV1@XZ ; ioMyInfo::GetSingleton
  000ab	8b c8		 mov	 ecx, eax
  000ad	e8 00 00 00 00	 call	 ?IsCanBuyItem@ioMyInfo@@QAE_NPBVioSetItemInfo@@@Z ; ioMyInfo::IsCanBuyItem
  000b2	88 45 c8	 mov	 BYTE PTR _kInfo$548883[ebp+4], al

; 1385 : 		kInfo.m_iPrice      = g_ClassPrice.GetClassBuyPeso( pInfo->GetSetCode() - SET_ITEM_CODE, g_ClassPrice.GetDefaultLimit() );

  000b5	e8 00 00 00 00	 call	 ?GetSingleton@ioClassPrice@@SAAAV1@XZ ; ioClassPrice::GetSingleton
  000ba	8b 48 58	 mov	 ecx, DWORD PTR [eax+88]
  000bd	8b 46 1c	 mov	 eax, DWORD PTR [esi+28]
  000c0	6a 00		 push	 0
  000c2	51		 push	 ecx
  000c3	05 a0 51 f5 ff	 add	 eax, -700000		; fff551a0H
  000c8	50		 push	 eax
  000c9	e8 00 00 00 00	 call	 ?GetSingleton@ioClassPrice@@SAAAV1@XZ ; ioClassPrice::GetSingleton
  000ce	8b c8		 mov	 ecx, eax
  000d0	e8 00 00 00 00	 call	 ?GetClassBuyPeso@ioClassPrice@@QAEHHH_N@Z ; ioClassPrice::GetClassBuyPeso
  000d5	89 45 cc	 mov	 DWORD PTR _kInfo$548883[ebp+8], eax

; 1386 : 		kInfo.m_iPriorityOrder = pInfo->GetShopOrder();

  000d8	8b 46 64	 mov	 eax, DWORD PTR [esi+100]
  000db	89 45 e4	 mov	 DWORD PTR _kInfo$548883[ebp+32], eax

; 1387 : 		kInfo.m_iShopMarkType  = pInfo->GetShopMarkType();

  000de	8b 46 6c	 mov	 eax, DWORD PTR [esi+108]
  000e1	89 45 ec	 mov	 DWORD PTR _kInfo$548883[ebp+40], eax

; 1388 : 
; 1389 : 		if( m_iExerciseStyle == EXERCISE_PCROOM )

  000e4	8b 45 f4	 mov	 eax, DWORD PTR _this$[ebp]
  000e7	83 b8 64 01 00
	00 02		 cmp	 DWORD PTR [eax+356], 2
  000ee	0f 85 84 00 00
	00		 jne	 $LN10@SortItemIn

; 1390 : 		{
; 1391 : 			int iMaxType = pInfo->GetNeedLevelInfoListCnt();

  000f4	8b ce		 mov	 ecx, esi
  000f6	e8 00 00 00 00	 call	 ?GetNeedLevelInfoListCnt@ioSetItemInfo@@QBEHXZ ; ioSetItemInfo::GetNeedLevelInfoListCnt

; 1392 : 			for (int j = 0; j <  iMaxType; j++)

  000fb	83 65 fc 00	 and	 DWORD PTR _j$548886[ebp], 0
  000ff	89 45 f0	 mov	 DWORD PTR _iMaxType$548885[ebp], eax
  00102	85 c0		 test	 eax, eax
  00104	7e 72		 jle	 SHORT $LN10@SortItemIn
$LL76@SortItemIn:

; 1393 : 			{
; 1394 : 				if( pInfo->GetNeedLevelType(j) == ioSetItemInfo::NLT_GRADE )			

  00106	ff 75 fc	 push	 DWORD PTR _j$548886[ebp]
  00109	8b ce		 mov	 ecx, esi
  0010b	e8 00 00 00 00	 call	 ?GetNeedLevelType@ioSetItemInfo@@QBE?AW4NeedLevelType@1@H@Z ; ioSetItemInfo::GetNeedLevelType

; 1395 : 					kInfo.m_iGradeLv = pInfo->GetNeedLevel(j);

  00110	ff 75 fc	 push	 DWORD PTR _j$548886[ebp]
  00113	8b ce		 mov	 ecx, esi
  00115	83 f8 01	 cmp	 eax, 1
  00118	75 0a		 jne	 SHORT $LN9@SortItemIn
  0011a	e8 00 00 00 00	 call	 ?GetNeedLevel@ioSetItemInfo@@QBEHH@Z ; ioSetItemInfo::GetNeedLevel
  0011f	89 45 d0	 mov	 DWORD PTR _kInfo$548883[ebp+12], eax
  00122	eb 49		 jmp	 SHORT $LN11@SortItemIn
$LN9@SortItemIn:

; 1396 : 				else if( pInfo->GetNeedLevelType(j) == ioSetItemInfo::NLT_BATTLE )

  00124	e8 00 00 00 00	 call	 ?GetNeedLevelType@ioSetItemInfo@@QBE?AW4NeedLevelType@1@H@Z ; ioSetItemInfo::GetNeedLevelType

; 1397 : 					kInfo.m_iBattleLv = pInfo->GetNeedLevel(j);

  00129	ff 75 fc	 push	 DWORD PTR _j$548886[ebp]
  0012c	8b ce		 mov	 ecx, esi
  0012e	83 f8 02	 cmp	 eax, 2
  00131	75 0a		 jne	 SHORT $LN7@SortItemIn
  00133	e8 00 00 00 00	 call	 ?GetNeedLevel@ioSetItemInfo@@QBEHH@Z ; ioSetItemInfo::GetNeedLevel
  00138	89 45 d4	 mov	 DWORD PTR _kInfo$548883[ebp+16], eax
  0013b	eb 30		 jmp	 SHORT $LN11@SortItemIn
$LN7@SortItemIn:

; 1398 : 				else if( pInfo->GetNeedLevelType(j) == ioSetItemInfo::NLT_TRAINING )

  0013d	e8 00 00 00 00	 call	 ?GetNeedLevelType@ioSetItemInfo@@QBE?AW4NeedLevelType@1@H@Z ; ioSetItemInfo::GetNeedLevelType

; 1399 : 					kInfo.m_iTrainingLv = pInfo->GetNeedLevel(j);

  00142	ff 75 fc	 push	 DWORD PTR _j$548886[ebp]
  00145	8b ce		 mov	 ecx, esi
  00147	83 f8 03	 cmp	 eax, 3
  0014a	75 0a		 jne	 SHORT $LN5@SortItemIn
  0014c	e8 00 00 00 00	 call	 ?GetNeedLevel@ioSetItemInfo@@QBEHH@Z ; ioSetItemInfo::GetNeedLevel
  00151	89 45 d8	 mov	 DWORD PTR _kInfo$548883[ebp+20], eax
  00154	eb 17		 jmp	 SHORT $LN11@SortItemIn
$LN5@SortItemIn:

; 1400 : 				else if( pInfo->GetNeedLevelType(j) == ioSetItemInfo::NLT_AWARD )

  00156	e8 00 00 00 00	 call	 ?GetNeedLevelType@ioSetItemInfo@@QBE?AW4NeedLevelType@1@H@Z ; ioSetItemInfo::GetNeedLevelType
  0015b	83 f8 04	 cmp	 eax, 4
  0015e	75 0d		 jne	 SHORT $LN11@SortItemIn

; 1401 : 					kInfo.m_iAwardLv = pInfo->GetNeedLevel(j);

  00160	ff 75 fc	 push	 DWORD PTR _j$548886[ebp]
  00163	8b ce		 mov	 ecx, esi
  00165	e8 00 00 00 00	 call	 ?GetNeedLevel@ioSetItemInfo@@QBEHH@Z ; ioSetItemInfo::GetNeedLevel
  0016a	89 45 dc	 mov	 DWORD PTR _kInfo$548883[ebp+24], eax
$LN11@SortItemIn:

; 1392 : 			for (int j = 0; j <  iMaxType; j++)

  0016d	ff 45 fc	 inc	 DWORD PTR _j$548886[ebp]
  00170	8b 45 fc	 mov	 eax, DWORD PTR _j$548886[ebp]
  00173	3b 45 f0	 cmp	 eax, DWORD PTR _iMaxType$548885[ebp]
  00176	7c 8e		 jl	 SHORT $LL76@SortItemIn
$LN10@SortItemIn:

; 1402 : 			}	
; 1403 : 		}		
; 1404 : 		
; 1405 : 		int iClassType = pInfo->GetSetCode() - SET_ITEM_CODE;

  00178	8b 76 1c	 mov	 esi, DWORD PTR [esi+28]
  0017b	81 c6 a0 51 f5
	ff		 add	 esi, -700000		; fff551a0H

; 1406 : 		int iArray = g_MyInfo.GetClassArray( iClassType );

  00181	56		 push	 esi
  00182	e8 00 00 00 00	 call	 ?GetSingleton@ioMyInfo@@SAAAV1@XZ ; ioMyInfo::GetSingleton
  00187	8b c8		 mov	 ecx, eax
  00189	e8 00 00 00 00	 call	 ?GetClassArray@ioMyInfo@@QAEHH@Z ; ioMyInfo::GetClassArray

; 1407 : 		if( g_MyInfo.IsCharExerciseStyle( iArray, EXERCISE_NONE ) )

  0018e	6a 00		 push	 0
  00190	50		 push	 eax
  00191	e8 00 00 00 00	 call	 ?GetSingleton@ioMyInfo@@SAAAV1@XZ ; ioMyInfo::GetSingleton
  00196	8b c8		 mov	 ecx, eax
  00198	e8 00 00 00 00	 call	 ?IsCharExerciseStyle@ioMyInfo@@QAE_NHH@Z ; ioMyInfo::IsCharExerciseStyle
  0019d	84 c0		 test	 al, al
  0019f	75 0b		 jne	 SHORT $LN18@SortItemIn

; 1408 : 			continue;
; 1409 : 
; 1410 : 		m_vItemInfoList.push_back( kInfo );

  001a1	8d 45 c4	 lea	 eax, DWORD PTR _kInfo$548883[ebp]
  001a4	50		 push	 eax
  001a5	8b cb		 mov	 ecx, ebx
  001a7	e8 00 00 00 00	 call	 ?push_back@?$vector@UtagShopItemInfo@@V?$allocator@UtagShopItemInfo@@@std@@@std@@QAEXABUtagShopItemInfo@@@Z ; std::vector<tagShopItemInfo,std::allocator<tagShopItemInfo> >::push_back
$LN18@SortItemIn:

; 1372 : 	for (int i = 0; i <  iMax; i++)

  001ac	ff 45 f8	 inc	 DWORD PTR _i$548874[ebp]
  001af	39 7d f8	 cmp	 DWORD PTR _i$548874[ebp], edi
  001b2	0f 8c 88 fe ff
	ff		 jl	 $LL78@SortItemIn
  001b8	8b 75 f4	 mov	 esi, DWORD PTR _this$[ebp]
$LN17@SortItemIn:

; 1411 : 	}
; 1412 : 	if( m_vItemInfoList.empty() )

  001bb	8b 03		 mov	 eax, DWORD PTR [ebx]
  001bd	3b 43 04	 cmp	 eax, DWORD PTR [ebx+4]
  001c0	74 13		 je	 SHORT $LN20@SortItemIn

; 1413 : 		return;
; 1414 : 	std::sort( m_vItemInfoList.begin() , m_vItemInfoList.end(), ShopItemInfoSort() );

  001c2	ff 75 f0	 push	 DWORD PTR $T560494[ebp]
  001c5	8b 8e cc 01 00
	00		 mov	 ecx, DWORD PTR [esi+460]
  001cb	51		 push	 ecx
  001cc	50		 push	 eax
  001cd	e8 00 00 00 00	 call	 ??$sort@V?$_Vector_iterator@V?$_Vector_val@UtagShopItemInfo@@V?$allocator@UtagShopItemInfo@@@std@@@std@@@std@@VShopItemInfoSort@@@std@@YAXV?$_Vector_iterator@V?$_Vector_val@UtagShopItemInfo@@V?$allocator@UtagShopItemInfo@@@std@@@std@@@0@0VShopItemInfoSort@@@Z ; std::sort<std::_Vector_iterator<std::_Vector_val<tagShopItemInfo,std::allocator<tagShopItemInfo> > >,ShopItemInfoSort>
  001d2	83 c4 0c	 add	 esp, 12			; 0000000cH
$LN20@SortItemIn:
  001d5	5f		 pop	 edi
  001d6	5e		 pop	 esi
  001d7	5b		 pop	 ebx

; 1415 : }

  001d8	c9		 leave
  001d9	c3		 ret	 0
?SortItemInfo@SoldierExerciseWnd@@IAEXXZ ENDP		; SoldierExerciseWnd::SortItemInfo
; Function compile flags: /Ogsp
_TEXT	ENDS
;	COMDAT ??_GSoldierExerciseWnd@@UAEPAXI@Z
_TEXT	SEGMENT
___flags$ = 8						; size = 4
??_GSoldierExerciseWnd@@UAEPAXI@Z PROC			; SoldierExerciseWnd::`scalar deleting destructor', COMDAT
; _this$ = ecx
  00000	55		 push	 ebp
  00001	8b ec		 mov	 ebp, esp
  00003	56		 push	 esi
  00004	8b f1		 mov	 esi, ecx
  00006	e8 00 00 00 00	 call	 ??1SoldierExerciseWnd@@UAE@XZ ; SoldierExerciseWnd::~SoldierExerciseWnd
  0000b	f6 45 08 01	 test	 BYTE PTR ___flags$[ebp], 1
  0000f	74 07		 je	 SHORT $LN1@scalar@3
  00011	56		 push	 esi
  00012	e8 00 00 00 00	 call	 ??3@YAXPAX@Z		; operator delete
  00017	59		 pop	 ecx
$LN1@scalar@3:
  00018	8b c6		 mov	 eax, esi
  0001a	5e		 pop	 esi
  0001b	5d		 pop	 ebp
  0001c	c2 04 00	 ret	 4
??_GSoldierExerciseWnd@@UAEPAXI@Z ENDP			; SoldierExerciseWnd::`scalar deleting destructor'
_TEXT	ENDS
PUBLIC	?UpdateChildPos@SoldierExerciseWnd@@QAEXXZ	; SoldierExerciseWnd::UpdateChildPos
EXTRN	__imp_?HideWnd@ioWnd@@QAEXXZ:PROC
; Function compile flags: /Ogsp
;	COMDAT ?UpdateChildPos@SoldierExerciseWnd@@QAEXXZ
_TEXT	SEGMENT
_iWndID$ = -4						; size = 4
?UpdateChildPos@SoldierExerciseWnd@@QAEXXZ PROC		; SoldierExerciseWnd::UpdateChildPos, COMDAT
; _this$ = ecx

; 964  : {

  00000	55		 push	 ebp
  00001	8b ec		 mov	 ebp, esp
  00003	51		 push	 ecx
  00004	53		 push	 ebx
  00005	56		 push	 esi
  00006	57		 push	 edi
  00007	8b f9		 mov	 edi, ecx

; 965  : 	for (int i = ID_EXERCISE_CHAR_BUY_BTN1; i < ID_EXERCISE_CHAR_BUY_BTN10 + 1; i++)

  00009	33 f6		 xor	 esi, esi
$LL10@UpdateChil@2:

; 966  : 	{
; 967  : 		ioWnd *pBtn = FindChildWnd( i );

  0000b	56		 push	 esi
  0000c	8b cf		 mov	 ecx, edi
  0000e	ff 15 00 00 00
	00		 call	 DWORD PTR __imp_?FindChildWnd@ioWnd@@QAEPAV1@K@Z

; 968  : 		if( !pBtn ) continue;

  00014	85 c0		 test	 eax, eax
  00016	74 08		 je	 SHORT $LN9@UpdateChil@2

; 969  : 		pBtn->HideWnd();

  00018	8b c8		 mov	 ecx, eax
  0001a	ff 15 00 00 00
	00		 call	 DWORD PTR __imp_?HideWnd@ioWnd@@QAEXXZ
$LN9@UpdateChil@2:

; 965  : 	for (int i = ID_EXERCISE_CHAR_BUY_BTN1; i < ID_EXERCISE_CHAR_BUY_BTN10 + 1; i++)

  00020	46		 inc	 esi
  00021	83 fe 0a	 cmp	 esi, 10			; 0000000aH
  00024	7c e5		 jl	 SHORT $LL10@UpdateChil@2

; 970  : 	}
; 971  : 
; 972  : 	int iPreMaxPage = m_iMaxPage;

  00026	8b b7 6c 01 00
	00		 mov	 esi, DWORD PTR [edi+364]

; 973  : 	SetMaxPage();

  0002c	8b cf		 mov	 ecx, edi
  0002e	e8 00 00 00 00	 call	 ?SetMaxPage@SoldierExerciseWnd@@IAEXXZ ; SoldierExerciseWnd::SetMaxPage

; 974  : 
; 975  : 	if( iPreMaxPage != m_iMaxPage )

  00033	3b b7 6c 01 00
	00		 cmp	 esi, DWORD PTR [edi+364]
  00039	74 30		 je	 SHORT $LN4@UpdateChil@2

; 976  : 	{
; 977  : 		SetChildInActive( ID_UP_BTN );

  0003b	8b 35 00 00 00
	00		 mov	 esi, DWORD PTR __imp_?SetChildInActive@ioWnd@@QAEXK@Z
  00041	68 20 4e 00 00	 push	 20000			; 00004e20H
  00046	8b cf		 mov	 ecx, edi
  00048	ff d6		 call	 esi

; 978  : 		m_iCurPage = 0;

  0004a	83 a7 68 01 00
	00 00		 and	 DWORD PTR [edi+360], 0

; 979  : 		if( m_iMaxPage == 1 )

  00051	83 bf 6c 01 00
	00 01		 cmp	 DWORD PTR [edi+364], 1

; 980  : 			SetChildInActive( ID_DOWN_BTN );

  00058	68 21 4e 00 00	 push	 20001			; 00004e21H
  0005d	8b cf		 mov	 ecx, edi
  0005f	75 04		 jne	 SHORT $LN5@UpdateChil@2
  00061	ff d6		 call	 esi

; 981  : 		else

  00063	eb 06		 jmp	 SHORT $LN4@UpdateChil@2
$LN5@UpdateChil@2:

; 982  : 			SetChildActive( ID_DOWN_BTN );

  00065	ff 15 00 00 00
	00		 call	 DWORD PTR __imp_?SetChildActive@ioWnd@@QAEXK@Z
$LN4@UpdateChil@2:

; 983  : 	}
; 984  : 
; 985  : 	int iStart = m_iCurPage * MAX_BUY_BTN;

  0006b	8b b7 68 01 00
	00		 mov	 esi, DWORD PTR [edi+360]

; 986  : 	int iEnd = iStart + MAX_BUY_BTN;
; 987  : 	int iWndID = ID_EXERCISE_CHAR_BUY_BTN1;

  00071	83 65 fc 00	 and	 DWORD PTR _iWndID$[ebp], 0
  00075	6b f6 0a	 imul	 esi, 10			; 0000000aH

; 988  : 	SortItemInfo();

  00078	8b cf		 mov	 ecx, edi
  0007a	8d 5e 0a	 lea	 ebx, DWORD PTR [esi+10]
  0007d	e8 00 00 00 00	 call	 ?SortItemInfo@SoldierExerciseWnd@@IAEXXZ ; SoldierExerciseWnd::SortItemInfo
  00082	eb 0f		 jmp	 SHORT $LN17@UpdateChil@2
$LL3@UpdateChil@2:

; 990  : 	{
; 991  : 		_UpdateChildPos( i , iWndID);

  00084	ff 75 fc	 push	 DWORD PTR _iWndID$[ebp]
  00087	8b cf		 mov	 ecx, edi
  00089	56		 push	 esi
  0008a	e8 00 00 00 00	 call	 ?_UpdateChildPos@SoldierExerciseWnd@@IAEXHH@Z ; SoldierExerciseWnd::_UpdateChildPos

; 992  : 		iWndID++;

  0008f	ff 45 fc	 inc	 DWORD PTR _iWndID$[ebp]
  00092	46		 inc	 esi
$LN17@UpdateChil@2:

; 989  : 	for (int i = iStart; i < iEnd ; i++)

  00093	3b f3		 cmp	 esi, ebx
  00095	7c ed		 jl	 SHORT $LL3@UpdateChil@2
  00097	5f		 pop	 edi
  00098	5e		 pop	 esi
  00099	5b		 pop	 ebx

; 993  : 	}
; 994  : }

  0009a	c9		 leave
  0009b	c3		 ret	 0
?UpdateChildPos@SoldierExerciseWnd@@QAEXXZ ENDP		; SoldierExerciseWnd::UpdateChildPos
_TEXT	ENDS
PUBLIC	??_C@_0CA@JJLHEJNC@SoldierExerciseWnd?3?3iwm_command?$AA@ ; `string'
PUBLIC	??_R0?AVSoldierSelectWnd@@@8			; SoldierSelectWnd `RTTI Type Descriptor'
PUBLIC	__$ArrayPad$
EXTRN	?SetMouseBusy@ioApplication@@QAEX_N@Z:PROC	; ioApplication::SetMouseBusy
EXTRN	?GetSingleton@ioApplication@@SAAAV1@XZ:PROC	; ioApplication::GetSingleton
EXTRN	?GetExerciseCharCount@ioMyInfo@@QAEHXZ:PROC	; ioMyInfo::GetExerciseCharCount
EXTRN	?IsCharInActive@ioMyInfo@@QAE_NH@Z:PROC		; ioMyInfo::IsCharInActive
EXTRN	?ActionBuyExercise@ioTutorialManager@@QAEXXZ:PROC ; ioTutorialManager::ActionBuyExercise
EXTRN	__imp_?FindWnd@ioGUIManager@@QAEPAVioWnd@@K@Z:PROC
EXTRN	__imp_?GetID@ioWnd@@QBEKXZ:PROC
;	COMDAT ??_C@_0CA@JJLHEJNC@SoldierExerciseWnd?3?3iwm_command?$AA@
; File d:\lost saga for developer\youtube\tutorial\source\src\lsclient\ioplaystage.h
CONST	SEGMENT
??_C@_0CA@JJLHEJNC@SoldierExerciseWnd?3?3iwm_command?$AA@ DB 'SoldierExer'
	DB	'ciseWnd::iwm_command', 00H			; `string'
CONST	ENDS
;	COMDAT ??_R0?AVSoldierSelectWnd@@@8
_DATA	SEGMENT
??_R0?AVSoldierSelectWnd@@@8 DD FLAT:??_7type_info@@6B@	; SoldierSelectWnd `RTTI Type Descriptor'
	DD	00H
	DB	'.?AVSoldierSelectWnd@@', 00H
_DATA	ENDS
;	COMDAT xdata$x
xdata$x	SEGMENT
__unwindtable$?iwm_command@SoldierExerciseWnd@@UAEXPAVioWnd@@HK@Z DD 0ffffffffH
	DD	FLAT:__unwindfunclet$?iwm_command@SoldierExerciseWnd@@UAEXPAVioWnd@@HK@Z$0
__ehfuncinfo$?iwm_command@SoldierExerciseWnd@@UAEXPAVioWnd@@HK@Z DD 019930522H
	DD	01H
	DD	FLAT:__unwindtable$?iwm_command@SoldierExerciseWnd@@UAEXPAVioWnd@@HK@Z
	DD	2 DUP(00H)
	DD	2 DUP(00H)
	DD	00H
	DD	01H
; Function compile flags: /Ogsp
; File d:\lost saga for developer\youtube\tutorial\source\src\lsclient\gui\soldierexercisewnd.cpp
xdata$x	ENDS
;	COMDAT ?iwm_command@SoldierExerciseWnd@@UAEXPAVioWnd@@HK@Z
_TEXT	SEGMENT
_bCharDelete$548607 = -32820				; size = 1
_dwID$ = -32820						; size = 4
_bOneChar$548610 = -32816				; size = 1
_iCurMaxSlot$548606 = -32816				; size = 4
_bWait$548592 = -32812					; size = 1
_kPacket$548612 = -32808				; size = 32792
__$ArrayPad$ = -16					; size = 4
__$EHRec$ = -12						; size = 12
_pWnd$ = 8						; size = 4
_cmd$ = 12						; size = 4
_param$ = 16						; size = 4
?iwm_command@SoldierExerciseWnd@@UAEXPAVioWnd@@HK@Z PROC ; SoldierExerciseWnd::iwm_command, COMDAT
; _this$ = ecx

; 806  : {

  00000	55		 push	 ebp
  00001	8b ec		 mov	 ebp, esp
  00003	6a ff		 push	 -1
  00005	68 00 00 00 00	 push	 __ehhandler$?iwm_command@SoldierExerciseWnd@@UAEXPAVioWnd@@HK@Z
  0000a	64 a1 00 00 00
	00		 mov	 eax, DWORD PTR fs:0
  00010	50		 push	 eax
  00011	b8 28 80 00 00	 mov	 eax, 32808		; 00008028H
  00016	e8 00 00 00 00	 call	 __chkstk
  0001b	a1 00 00 00 00	 mov	 eax, DWORD PTR ___security_cookie
  00020	33 c5		 xor	 eax, ebp
  00022	89 45 f0	 mov	 DWORD PTR __$ArrayPad$[ebp], eax
  00025	53		 push	 ebx
  00026	56		 push	 esi
  00027	57		 push	 edi
  00028	50		 push	 eax
  00029	8d 45 f4	 lea	 eax, DWORD PTR __$EHRec$[ebp]
  0002c	64 a3 00 00 00
	00		 mov	 DWORD PTR fs:0, eax
  00032	8b f9		 mov	 edi, ecx
  00034	8b 4d 08	 mov	 ecx, DWORD PTR _pWnd$[ebp]

; 807  : 	DWORD dwID = pWnd->GetID();

  00037	ff 15 00 00 00
	00		 call	 DWORD PTR __imp_?GetID@ioWnd@@QBEKXZ
  0003d	89 85 cc 7f ff
	ff		 mov	 DWORD PTR _dwID$[ebp], eax

; 808  : 	switch( dwID )

  00043	83 f8 09	 cmp	 eax, 9
  00046	76 3f		 jbe	 SHORT $LN19@iwm_comman
  00048	3d 20 4e 00 00	 cmp	 eax, 20000		; 00004e20H
  0004d	74 19		 je	 SHORT $LN4@iwm_comman
  0004f	3d 21 4e 00 00	 cmp	 eax, 20001		; 00004e21H
  00054	0f 85 c5 02 00
	00		 jne	 $LN18@iwm_comman

; 903  : 	case ID_DOWN_BTN:
; 904  : 		if( cmd == IOBN_BTNUP )

  0005a	83 7d 0c 11	 cmp	 DWORD PTR _cmd$[ebp], 17 ; 00000011H
  0005e	0f 85 bb 02 00
	00		 jne	 $LN18@iwm_comman

; 905  : 		{
; 906  : 			UpdatePage( true );

  00064	6a 01		 push	 1

; 907  : 			UpdateChildPos();
; 908  : 		}
; 909  : 		break;

  00066	eb 0c		 jmp	 SHORT $LN38@iwm_comman
$LN4@iwm_comman:

; 895  : 		break;
; 896  : 	case ID_UP_BTN:
; 897  : 		if( cmd == IOBN_BTNUP )

  00068	83 7d 0c 11	 cmp	 DWORD PTR _cmd$[ebp], 17 ; 00000011H
  0006c	0f 85 ad 02 00
	00		 jne	 $LN18@iwm_comman

; 898  : 		{
; 899  : 			UpdatePage( false );

  00072	6a 00		 push	 0
$LN38@iwm_comman:
  00074	8b cf		 mov	 ecx, edi
  00076	e8 00 00 00 00	 call	 ?UpdatePage@SoldierExerciseWnd@@IAEX_N@Z ; SoldierExerciseWnd::UpdatePage

; 900  : 			UpdateChildPos();

  0007b	8b cf		 mov	 ecx, edi
  0007d	e8 00 00 00 00	 call	 ?UpdateChildPos@SoldierExerciseWnd@@QAEXXZ ; SoldierExerciseWnd::UpdateChildPos

; 901  : 		}
; 902  : 		break;

  00082	e9 98 02 00 00	 jmp	 $LN18@iwm_comman
$LN19@iwm_comman:

; 809  : 	{
; 810  : 	case ID_EXERCISE_CHAR_BUY_BTN1:
; 811  : 	case ID_EXERCISE_CHAR_BUY_BTN2:
; 812  : 	case ID_EXERCISE_CHAR_BUY_BTN3:
; 813  : 	case ID_EXERCISE_CHAR_BUY_BTN4:
; 814  : 	case ID_EXERCISE_CHAR_BUY_BTN5:
; 815  : 	case ID_EXERCISE_CHAR_BUY_BTN6:
; 816  : 	case ID_EXERCISE_CHAR_BUY_BTN7:
; 817  : 	case ID_EXERCISE_CHAR_BUY_BTN8:
; 818  : 	case ID_EXERCISE_CHAR_BUY_BTN9:
; 819  : 	case ID_EXERCISE_CHAR_BUY_BTN10:
; 820  : 		if( cmd == IOBN_BTNUP )

  00087	83 7d 0c 11	 cmp	 DWORD PTR _cmd$[ebp], 17 ; 00000011H
  0008b	0f 85 8e 02 00
	00		 jne	 $LN18@iwm_comman

; 821  : 		{
; 822  : 			bool bWait = false;

  00091	33 db		 xor	 ebx, ebx

; 823  : 			SoldierSelectWnd *pSelectWnd = dynamic_cast<SoldierSelectWnd*>(g_GUIMgr.FindWnd( SOLDIER_SELECT_WND ));

  00093	53		 push	 ebx
  00094	68 00 00 00 00	 push	 OFFSET ??_R0?AVSoldierSelectWnd@@@8
  00099	be 00 00 00 00	 mov	 esi, OFFSET ??_R0?AVioWnd@@@8
  0009e	56		 push	 esi
  0009f	53		 push	 ebx
  000a0	68 9f 13 00 00	 push	 5023			; 0000139fH
  000a5	88 9d d4 7f ff
	ff		 mov	 BYTE PTR _bWait$548592[ebp], bl
  000ab	e8 00 00 00 00	 call	 ?GetSingleton@ioSP2GUIManager@@SAAAV1@XZ ; ioSP2GUIManager::GetSingleton
  000b0	8b c8		 mov	 ecx, eax
  000b2	ff 15 00 00 00
	00		 call	 DWORD PTR __imp_?FindWnd@ioGUIManager@@QAEPAVioWnd@@K@Z
  000b8	50		 push	 eax
  000b9	e8 00 00 00 00	 call	 ___RTDynamicCast
  000be	83 c4 14	 add	 esp, 20			; 00000014H

; 824  : 			if( pSelectWnd && pSelectWnd->IsSelectWait() )

  000c1	3b c3		 cmp	 eax, ebx
  000c3	74 10		 je	 SHORT $LN17@iwm_comman
  000c5	83 b8 bc 01 00
	00 01		 cmp	 DWORD PTR [eax+444], 1
  000cc	75 07		 jne	 SHORT $LN17@iwm_comman

; 825  : 				bWait = true;

  000ce	c6 85 d4 7f ff
	ff 01		 mov	 BYTE PTR _bWait$548592[ebp], 1
$LN17@iwm_comman:

; 826  : 
; 827  : 			if( !IsCanExerciseChar( bWait ) )

  000d5	ff b5 d4 7f ff
	ff		 push	 DWORD PTR _bWait$548592[ebp]
  000db	8b cf		 mov	 ecx, edi
  000dd	e8 00 00 00 00	 call	 ?IsCanExerciseChar@SoldierExerciseWnd@@IAE_N_N@Z ; SoldierExerciseWnd::IsCanExerciseChar

; 828  : 			{
; 829  : 				g_GUIMgr.SetMsgBox( MB_OK, NULL, STR(1) );

  000e2	53		 push	 ebx
  000e3	84 c0		 test	 al, al
  000e5	75 4f		 jne	 SHORT $LN16@iwm_comman
  000e7	6a 01		 push	 1
  000e9	68 00 00 00 00	 push	 OFFSET ??_C@_00CNPNBAHC@?$AA@
  000ee	68 00 00 00 00	 push	 OFFSET ??_C@_0CA@JJLHEJNC@SoldierExerciseWnd?3?3iwm_command?$AA@
  000f3	ff 15 00 00 00
	00		 call	 DWORD PTR __imp_?GetSingleton@ioStringManager@@SAAAV1@XZ
  000f9	8b c8		 mov	 ecx, eax
  000fb	ff 15 00 00 00
	00		 call	 DWORD PTR __imp_?GetString@ioStringManager@@QAEPADPBD0HW4FileNamePrefix@1@@Z
  00101	50		 push	 eax
  00102	53		 push	 ebx
  00103	53		 push	 ebx
  00104	e8 00 00 00 00	 call	 ?GetSingleton@ioSP2GUIManager@@SAAAV1@XZ ; ioSP2GUIManager::GetSingleton
  00109	50		 push	 eax
  0010a	e8 00 00 00 00	 call	 ?SetMsgBox@ioSP2GUIManager@@QAAXHPAVioWnd@@PBDZZ ; ioSP2GUIManager::SetMsgBox
  0010f	83 c4 10	 add	 esp, 16			; 00000010H

; 830  : 				if( bWait )

  00112	38 9d d4 7f ff
	ff		 cmp	 BYTE PTR _bWait$548592[ebp], bl
  00118	0f 84 01 02 00
	00		 je	 $LN18@iwm_comman

; 831  : 					g_GUIMgr.HideWnd( SOLDIER_SELECT_WND );

  0011e	53		 push	 ebx
  0011f	68 9f 13 00 00	 push	 5023			; 0000139fH
  00124	e8 00 00 00 00	 call	 ?GetSingleton@ioSP2GUIManager@@SAAAV1@XZ ; ioSP2GUIManager::GetSingleton
  00129	8b c8		 mov	 ecx, eax
  0012b	ff 15 00 00 00
	00		 call	 DWORD PTR __imp_?HideWnd@ioGUIManager@@QAEXK_N@Z

; 832  : 				return;

  00131	e9 e9 01 00 00	 jmp	 $LN18@iwm_comman
$LN16@iwm_comman:

; 833  : 			}
; 834  : 
; 835  : 			SoldierExerciseBtn *pItemBtn = dynamic_cast<SoldierExerciseBtn *>( FindChildWnd( dwID ) );

  00136	68 00 00 00 00	 push	 OFFSET ??_R0?AVSoldierExerciseBtn@@@8
  0013b	56		 push	 esi
  0013c	53		 push	 ebx
  0013d	ff b5 cc 7f ff
	ff		 push	 DWORD PTR _dwID$[ebp]
  00143	8b cf		 mov	 ecx, edi
  00145	ff 15 00 00 00
	00		 call	 DWORD PTR __imp_?FindChildWnd@ioWnd@@QAEPAV1@K@Z
  0014b	50		 push	 eax
  0014c	e8 00 00 00 00	 call	 ___RTDynamicCast
  00151	8b f0		 mov	 esi, eax
  00153	83 c4 14	 add	 esp, 20			; 00000014H

; 836  : 			if( !pItemBtn ) 

  00156	3b f3		 cmp	 esi, ebx
  00158	75 31		 jne	 SHORT $LN14@iwm_comman

; 837  : 			{
; 838  : 				g_GUIMgr.SetMsgBox( MB_OK, NULL, STR(2) );

  0015a	53		 push	 ebx
  0015b	6a 02		 push	 2
$LN39@iwm_comman:
  0015d	68 00 00 00 00	 push	 OFFSET ??_C@_00CNPNBAHC@?$AA@
  00162	68 00 00 00 00	 push	 OFFSET ??_C@_0CA@JJLHEJNC@SoldierExerciseWnd?3?3iwm_command?$AA@
  00167	ff 15 00 00 00
	00		 call	 DWORD PTR __imp_?GetSingleton@ioStringManager@@SAAAV1@XZ
  0016d	8b c8		 mov	 ecx, eax
  0016f	ff 15 00 00 00
	00		 call	 DWORD PTR __imp_?GetString@ioStringManager@@QAEPADPBD0HW4FileNamePrefix@1@@Z
  00175	50		 push	 eax
  00176	53		 push	 ebx
  00177	53		 push	 ebx
  00178	e8 00 00 00 00	 call	 ?GetSingleton@ioSP2GUIManager@@SAAAV1@XZ ; ioSP2GUIManager::GetSingleton
  0017d	50		 push	 eax
  0017e	e8 00 00 00 00	 call	 ?SetMsgBox@ioSP2GUIManager@@QAAXHPAVioWnd@@PBDZZ ; ioSP2GUIManager::SetMsgBox
  00183	83 c4 10	 add	 esp, 16			; 00000010H

; 839  : 				return;

  00186	e9 94 01 00 00	 jmp	 $LN18@iwm_comman
$LN14@iwm_comman:

; 840  : 			}
; 841  : 
; 842  : 			if( !IsCanBuyLevel(pItemBtn) )

  0018b	56		 push	 esi
  0018c	8b cf		 mov	 ecx, edi
  0018e	e8 00 00 00 00	 call	 ?IsCanBuyLevel@SoldierExerciseWnd@@IAE_NPBVSoldierExerciseBtn@@@Z ; SoldierExerciseWnd::IsCanBuyLevel
  00193	84 c0		 test	 al, al
  00195	0f 84 84 01 00
	00		 je	 $LN18@iwm_comman

; 843  : 				return;
; 844  : 
; 845  : 			//             .
; 846  : 			g_TutorialMgr.ActionBuyExercise();

  0019b	e8 00 00 00 00	 call	 ?GetSingleton@ioTutorialManager@@SAAAV1@XZ ; ioTutorialManager::GetSingleton
  001a0	8b c8		 mov	 ecx, eax
  001a2	e8 00 00 00 00	 call	 ?ActionBuyExercise@ioTutorialManager@@QAEXXZ ; ioTutorialManager::ActionBuyExercise

; 847  : 
; 848  : 
; 849  : 			//   
; 850  : 			if( ChangeBoughtChar( g_MyInfo.GetClassArray( pItemBtn->GetClassType() ), bWait ) )

  001a7	8b 86 04 02 00
	00		 mov	 eax, DWORD PTR [esi+516]
  001ad	ff b5 d4 7f ff
	ff		 push	 DWORD PTR _bWait$548592[ebp]
  001b3	50		 push	 eax
  001b4	e8 00 00 00 00	 call	 ?GetSingleton@ioMyInfo@@SAAAV1@XZ ; ioMyInfo::GetSingleton
  001b9	8b c8		 mov	 ecx, eax
  001bb	e8 00 00 00 00	 call	 ?GetClassArray@ioMyInfo@@QAEHH@Z ; ioMyInfo::GetClassArray
  001c0	50		 push	 eax
  001c1	8b cf		 mov	 ecx, edi
  001c3	e8 00 00 00 00	 call	 ?ChangeBoughtChar@SoldierExerciseWnd@@IAE_NH_N@Z ; SoldierExerciseWnd::ChangeBoughtChar
  001c8	84 c0		 test	 al, al
  001ca	0f 85 4f 01 00
	00		 jne	 $LN18@iwm_comman

; 851  : 			{
; 852  : 				return;
; 853  : 			}
; 854  : 
; 855  : 			int iCurMaxSlot = g_MyInfo.GetCurMaxCharSlot();

  001d0	e8 00 00 00 00	 call	 ?GetSingleton@ioMyInfo@@SAAAV1@XZ ; ioMyInfo::GetSingleton
  001d5	8b 80 80 08 00
	00		 mov	 eax, DWORD PTR [eax+2176]

; 856  : 			bool bCharDelete = g_MyInfo.IsCharInActive( pItemBtn->GetClassType() );

  001db	ff b6 04 02 00
	00		 push	 DWORD PTR [esi+516]
  001e1	89 85 d0 7f ff
	ff		 mov	 DWORD PTR _iCurMaxSlot$548606[ebp], eax
  001e7	e8 00 00 00 00	 call	 ?GetSingleton@ioMyInfo@@SAAAV1@XZ ; ioMyInfo::GetSingleton
  001ec	8b c8		 mov	 ecx, eax
  001ee	e8 00 00 00 00	 call	 ?IsCharInActive@ioMyInfo@@QAE_NH@Z ; ioMyInfo::IsCharInActive
  001f3	88 85 cc 7f ff
	ff		 mov	 BYTE PTR _bCharDelete$548607[ebp], al

; 857  : 			if( g_MyInfo.GetCharCount() >= iCurMaxSlot && g_MyInfo.GetExerciseCharCount() == 0 )

  001f9	e8 00 00 00 00	 call	 ?GetSingleton@ioMyInfo@@SAAAV1@XZ ; ioMyInfo::GetSingleton
  001fe	8b c8		 mov	 ecx, eax
  00200	e8 00 00 00 00	 call	 ?GetCharCount@ioMyInfo@@QBEHXZ ; ioMyInfo::GetCharCount
  00205	3b 85 d0 7f ff
	ff		 cmp	 eax, DWORD PTR _iCurMaxSlot$548606[ebp]
  0020b	7c 20		 jl	 SHORT $LN10@iwm_comman
  0020d	e8 00 00 00 00	 call	 ?GetSingleton@ioMyInfo@@SAAAV1@XZ ; ioMyInfo::GetSingleton
  00212	8b c8		 mov	 ecx, eax
  00214	e8 00 00 00 00	 call	 ?GetExerciseCharCount@ioMyInfo@@QAEHXZ ; ioMyInfo::GetExerciseCharCount
  00219	85 c0		 test	 eax, eax
  0021b	75 10		 jne	 SHORT $LN10@iwm_comman

; 858  : 			{
; 859  : 				if( !bCharDelete )

  0021d	38 9d cc 7f ff
	ff		 cmp	 BYTE PTR _bCharDelete$548607[ebp], bl
  00223	75 08		 jne	 SHORT $LN10@iwm_comman

; 860  : 				{
; 861  : 					g_GUIMgr.SetMsgBox( MB_OK, NULL, STR(3) );

  00225	53		 push	 ebx
  00226	6a 03		 push	 3

; 862  : 					return;

  00228	e9 30 ff ff ff	 jmp	 $LN39@iwm_comman
$LN10@iwm_comman:

; 863  : 				}
; 864  : 			}
; 865  : 
; 866  : 			bool bOneChar = true;
; 867  : 			if( m_pPlayStage && !m_pPlayStage->IsOneMyChar() )

  0022d	8b 8f 60 01 00
	00		 mov	 ecx, DWORD PTR [edi+352]
  00233	c6 85 d0 7f ff
	ff 01		 mov	 BYTE PTR _bOneChar$548610[ebp], 1
  0023a	3b cb		 cmp	 ecx, ebx
  0023c	74 0f		 je	 SHORT $LN9@iwm_comman
  0023e	e8 00 00 00 00	 call	 ?IsOneMyChar@ioPlayStage@@QAE_NXZ ; ioPlayStage::IsOneMyChar
  00243	84 c0		 test	 al, al
  00245	75 06		 jne	 SHORT $LN9@iwm_comman

; 868  : 				bOneChar = false;

  00247	88 9d d0 7f ff
	ff		 mov	 BYTE PTR _bOneChar$548610[ebp], bl
$LN9@iwm_comman:

; 869  : 
; 870  : 			SP2Packet kPacket( CTPK_EXERCISE_EVENT_CHAR_CREATE );

  0024d	68 11 01 00 00	 push	 273			; 00000111H
  00252	8d 8d d8 7f ff
	ff		 lea	 ecx, DWORD PTR _kPacket$548612[ebp]
  00258	e8 00 00 00 00	 call	 ??0SP2Packet@@QAE@K@Z	; SP2Packet::SP2Packet

; 871  : 			kPacket << m_iExerciseStyle;

  0025d	ff b7 64 01 00
	00		 push	 DWORD PTR [edi+356]
  00263	8d 8d d8 7f ff
	ff		 lea	 ecx, DWORD PTR _kPacket$548612[ebp]
  00269	89 5d fc	 mov	 DWORD PTR __$EHRec$[ebp+8], ebx
  0026c	e8 00 00 00 00	 call	 ??6SP2Packet@@QAEAAV0@H@Z ; SP2Packet::operator<<

; 872  : 			kPacket << pItemBtn->GetClassType();

  00271	ff b6 04 02 00
	00		 push	 DWORD PTR [esi+516]
  00277	8d 8d d8 7f ff
	ff		 lea	 ecx, DWORD PTR _kPacket$548612[ebp]
  0027d	e8 00 00 00 00	 call	 ??6SP2Packet@@QAEAAV0@H@Z ; SP2Packet::operator<<

; 873  : 			kPacket << bWait;

  00282	ff b5 d4 7f ff
	ff		 push	 DWORD PTR _bWait$548592[ebp]
  00288	8d 8d d8 7f ff
	ff		 lea	 ecx, DWORD PTR _kPacket$548612[ebp]
  0028e	e8 00 00 00 00	 call	 ??6SP2Packet@@QAEAAV0@_N@Z ; SP2Packet::operator<<

; 874  : 			kPacket << bOneChar;

  00293	ff b5 d0 7f ff
	ff		 push	 DWORD PTR _bOneChar$548610[ebp]
  00299	8d 8d d8 7f ff
	ff		 lea	 ecx, DWORD PTR _kPacket$548612[ebp]
  0029f	e8 00 00 00 00	 call	 ??6SP2Packet@@QAEAAV0@_N@Z ; SP2Packet::operator<<

; 875  : 			kPacket << bCharDelete;

  002a4	ff b5 cc 7f ff
	ff		 push	 DWORD PTR _bCharDelete$548607[ebp]
  002aa	8d 8d d8 7f ff
	ff		 lea	 ecx, DWORD PTR _kPacket$548612[ebp]
  002b0	e8 00 00 00 00	 call	 ??6SP2Packet@@QAEAAV0@_N@Z ; SP2Packet::operator<<

; 876  : 			TCPNetwork::SendToServer( kPacket );

  002b5	8d 85 d8 7f ff
	ff		 lea	 eax, DWORD PTR _kPacket$548612[ebp]
  002bb	50		 push	 eax
  002bc	e8 00 00 00 00	 call	 ?SendToServer@TCPNetwork@@YAXAAVSP2Packet@@@Z ; TCPNetwork::SendToServer
  002c1	59		 pop	 ecx

; 877  : 			g_App.SetMouseBusy( true );

  002c2	6a 01		 push	 1
  002c4	e8 00 00 00 00	 call	 ?GetSingleton@ioApplication@@SAAAV1@XZ ; ioApplication::GetSingleton
  002c9	8b c8		 mov	 ecx, eax
  002cb	e8 00 00 00 00	 call	 ?SetMouseBusy@ioApplication@@QAEX_N@Z ; ioApplication::SetMouseBusy

; 878  : 
; 879  : 			if( bWait )

  002d0	38 9d d4 7f ff
	ff		 cmp	 BYTE PTR _bWait$548592[ebp], bl
  002d6	74 1c		 je	 SHORT $LN8@iwm_comman

; 880  : 			{
; 881  : 				SetOwnerChangeWaitState();

  002d8	8b cf		 mov	 ecx, edi
  002da	e8 00 00 00 00	 call	 ?SetOwnerChangeWaitState@SoldierExerciseWnd@@IAEXXZ ; SoldierExerciseWnd::SetOwnerChangeWaitState

; 882  : 				g_GUIMgr.HideWnd( SOLDIER_SELECT_WND );

  002df	53		 push	 ebx
  002e0	68 9f 13 00 00	 push	 5023			; 0000139fH
  002e5	e8 00 00 00 00	 call	 ?GetSingleton@ioSP2GUIManager@@SAAAV1@XZ ; ioSP2GUIManager::GetSingleton
  002ea	8b c8		 mov	 ecx, eax
  002ec	ff 15 00 00 00
	00		 call	 DWORD PTR __imp_?HideWnd@ioGUIManager@@QAEXK_N@Z

; 883  : 			}
; 884  : 			else

  002f2	eb 1c		 jmp	 SHORT $LN5@iwm_comman
$LN8@iwm_comman:

; 885  : 			{   
; 886  : 				//   
; 887  : 				if( m_pPlayStage)

  002f4	8b bf 60 01 00
	00		 mov	 edi, DWORD PTR [edi+352]
  002fa	3b fb		 cmp	 edi, ebx
  002fc	74 12		 je	 SHORT $LN5@iwm_comman

; 888  : 				{
; 889  : 					ioPlayMode *pPlayMode = m_pPlayStage->GetPlayMode();

  002fe	8b 8f 10 01 00
	00		 mov	 ecx, DWORD PTR [edi+272]

; 890  : 					if( pPlayMode )

  00304	3b cb		 cmp	 ecx, ebx
  00306	74 08		 je	 SHORT $LN5@iwm_comman

; 891  : 						pPlayMode->EndChangeCharacter();

  00308	8b 01		 mov	 eax, DWORD PTR [ecx]
  0030a	ff 90 c0 01 00
	00		 call	 DWORD PTR [eax+448]
$LN5@iwm_comman:

; 892  : 				}
; 893  : 			}
; 894  : 		}

  00310	83 4d fc ff	 or	 DWORD PTR __$EHRec$[ebp+8], -1
  00314	8d 8d d8 7f ff
	ff		 lea	 ecx, DWORD PTR _kPacket$548612[ebp]
  0031a	e8 00 00 00 00	 call	 ??1SP2Packet@@UAE@XZ	; SP2Packet::~SP2Packet
$LN18@iwm_comman:

; 910  : 	}
; 911  : }

  0031f	8b 4d f4	 mov	 ecx, DWORD PTR __$EHRec$[ebp]
  00322	64 89 0d 00 00
	00 00		 mov	 DWORD PTR fs:0, ecx
  00329	59		 pop	 ecx
  0032a	5f		 pop	 edi
  0032b	5e		 pop	 esi
  0032c	5b		 pop	 ebx
  0032d	8b 4d f0	 mov	 ecx, DWORD PTR __$ArrayPad$[ebp]
  00330	33 cd		 xor	 ecx, ebp
  00332	e8 00 00 00 00	 call	 @__security_check_cookie@4
  00337	c9		 leave
  00338	c2 0c 00	 ret	 12			; 0000000cH
_TEXT	ENDS
;	COMDAT text$x
text$x	SEGMENT
__unwindfunclet$?iwm_command@SoldierExerciseWnd@@UAEXPAVioWnd@@HK@Z$0:
  00000	8d 8d d8 7f ff
	ff		 lea	 ecx, DWORD PTR _kPacket$548612[ebp]
  00006	e9 00 00 00 00	 jmp	 ??1SP2Packet@@UAE@XZ	; SP2Packet::~SP2Packet
__ehhandler$?iwm_command@SoldierExerciseWnd@@UAEXPAVioWnd@@HK@Z:
  0000b	8b 54 24 08	 mov	 edx, DWORD PTR [esp+8]
  0000f	8d 42 0c	 lea	 eax, DWORD PTR [edx+12]
  00012	8b 8a c8 7f ff
	ff		 mov	 ecx, DWORD PTR [edx-32824]
  00018	33 c8		 xor	 ecx, eax
  0001a	e8 00 00 00 00	 call	 @__security_check_cookie@4
  0001f	8b 4a fc	 mov	 ecx, DWORD PTR [edx-4]
  00022	33 c8		 xor	 ecx, eax
  00024	e8 00 00 00 00	 call	 @__security_check_cookie@4
  00029	b8 00 00 00 00	 mov	 eax, OFFSET __ehfuncinfo$?iwm_command@SoldierExerciseWnd@@UAEXPAVioWnd@@HK@Z
  0002e	e9 00 00 00 00	 jmp	 ___CxxFrameHandler3
text$x	ENDS
?iwm_command@SoldierExerciseWnd@@UAEXPAVioWnd@@HK@Z ENDP ; SoldierExerciseWnd::iwm_command
PUBLIC	?SetExerciseStyle@SoldierExerciseWnd@@IAEXXZ	; SoldierExerciseWnd::SetExerciseStyle
EXTRN	?IsAlive@ioEventManager@@QAE_NW4EventType@@W4ChannelingType@@@Z:PROC ; ioEventManager::IsAlive
EXTRN	?GetSingleton@ioEventManager@@SAAAV1@XZ:PROC	; ioEventManager::GetSingleton
EXTRN	?GetChannelingType@ioMyInfo@@QBE?AW4ChannelingType@@XZ:PROC ; ioMyInfo::GetChannelingType
; Function compile flags: /Ogsp
;	COMDAT ?SetExerciseStyle@SoldierExerciseWnd@@IAEXXZ
_TEXT	SEGMENT
?SetExerciseStyle@SoldierExerciseWnd@@IAEXXZ PROC	; SoldierExerciseWnd::SetExerciseStyle, COMDAT
; _this$ = ecx

; 919  : {

  00000	57		 push	 edi
  00001	8b f9		 mov	 edi, ecx

; 920  : 	if( !m_pPlayStage ) return;

  00003	83 bf 60 01 00
	00 00		 cmp	 DWORD PTR [edi+352], 0
  0000a	74 79		 je	 SHORT $LN1@SetExercis

; 921  : 
; 922  : 	int iChangeStyle = m_iExerciseStyle;

  0000c	56		 push	 esi
  0000d	8b b7 64 01 00
	00		 mov	 esi, DWORD PTR [edi+356]

; 923  : 	if( iChangeStyle == EXERCISE_GENERAL )

  00013	83 fe 01	 cmp	 esi, 1
  00016	75 3f		 jne	 SHORT $LN10@SetExercis

; 924  : 	{
; 925  : 		//EventType eEventType = EVT_CHILDRENDAY;
; 926  : 		EventType eEventType = EVT_EXERCISESOLDIER;
; 927  : 
; 928  : 		//  - >   
; 929  : 		if( g_MyInfo.GetPCRoomAuthority() )

  00018	e8 00 00 00 00	 call	 ?GetSingleton@ioMyInfo@@SAAAV1@XZ ; ioMyInfo::GetSingleton
  0001d	83 b8 34 08 00
	00 00		 cmp	 DWORD PTR [eax+2100], 0

; 930  : 			iChangeStyle = EXERCISE_PCROOM;

  00024	75 44		 jne	 SHORT $LN23@SetExercis

; 931  : 		else if( g_MyInfo.IsUserEvent() )

  00026	e8 00 00 00 00	 call	 ?GetSingleton@ioMyInfo@@SAAAV1@XZ ; ioMyInfo::GetSingleton
  0002b	80 b8 39 08 00
	00 00		 cmp	 BYTE PTR [eax+2105], 0

; 932  : 			iChangeStyle = EXERCISE_PCROOM;

  00032	75 36		 jne	 SHORT $LN23@SetExercis

; 933  : 		else if( g_EventMgr.IsAlive( eEventType, g_MyInfo.GetChannelingType() ) ) 

  00034	e8 00 00 00 00	 call	 ?GetSingleton@ioMyInfo@@SAAAV1@XZ ; ioMyInfo::GetSingleton
  00039	8b c8		 mov	 ecx, eax
  0003b	e8 00 00 00 00	 call	 ?GetChannelingType@ioMyInfo@@QBE?AW4ChannelingType@@XZ ; ioMyInfo::GetChannelingType
  00040	50		 push	 eax
  00041	6a 12		 push	 18			; 00000012H
  00043	e8 00 00 00 00	 call	 ?GetSingleton@ioEventManager@@SAAAV1@XZ ; ioEventManager::GetSingleton
  00048	8b c8		 mov	 ecx, eax
  0004a	e8 00 00 00 00	 call	 ?IsAlive@ioEventManager@@QAE_NW4EventType@@W4ChannelingType@@@Z ; ioEventManager::IsAlive
  0004f	84 c0		 test	 al, al
  00051	74 1a		 je	 SHORT $LN2@SetExercis

; 934  : 			iChangeStyle = EXERCISE_EVENT;

  00053	6a 03		 push	 3

; 935  : 	}

  00055	eb 15		 jmp	 SHORT $LN24@SetExercis
$LN10@SetExercis:

; 936  : 	else if( iChangeStyle == EXERCISE_EVENT )

  00057	83 fe 03	 cmp	 esi, 3
  0005a	75 11		 jne	 SHORT $LN2@SetExercis

; 937  : 	{
; 938  : 		if( g_MyInfo.GetPCRoomAuthority() )

  0005c	e8 00 00 00 00	 call	 ?GetSingleton@ioMyInfo@@SAAAV1@XZ ; ioMyInfo::GetSingleton
  00061	83 b8 34 08 00
	00 00		 cmp	 DWORD PTR [eax+2100], 0
  00068	74 03		 je	 SHORT $LN2@SetExercis
$LN23@SetExercis:

; 939  : 			iChangeStyle = EXERCISE_PCROOM;

  0006a	6a 02		 push	 2
$LN24@SetExercis:
  0006c	5e		 pop	 esi
$LN2@SetExercis:

; 940  : 	}
; 941  : 
; 942  : 	if( iChangeStyle != m_iExerciseStyle )

  0006d	3b b7 64 01 00
	00		 cmp	 esi, DWORD PTR [edi+356]
  00073	74 0f		 je	 SHORT $LN20@SetExercis

; 943  : 	{
; 944  : 		m_iExerciseStyle = iChangeStyle;

  00075	89 b7 64 01 00
	00		 mov	 DWORD PTR [edi+356], esi
  0007b	5e		 pop	 esi

; 945  : 		UpdateChildPos();

  0007c	8b cf		 mov	 ecx, edi
  0007e	5f		 pop	 edi
  0007f	e9 00 00 00 00	 jmp	 ?UpdateChildPos@SoldierExerciseWnd@@QAEXXZ ; SoldierExerciseWnd::UpdateChildPos
$LN20@SetExercis:
  00084	5e		 pop	 esi
$LN1@SetExercis:
  00085	5f		 pop	 edi

; 946  : 	}	
; 947  : }

  00086	c3		 ret	 0
?SetExerciseStyle@SoldierExerciseWnd@@IAEXXZ ENDP	; SoldierExerciseWnd::SetExerciseStyle
; Function compile flags: /Ogsp
_TEXT	ENDS
;	COMDAT ?iwm_show@SoldierExerciseWnd@@UAEXXZ
_TEXT	SEGMENT
?iwm_show@SoldierExerciseWnd@@UAEXXZ PROC		; SoldierExerciseWnd::iwm_show, COMDAT
; _this$ = ecx

; 950  : {

  00000	56		 push	 esi
  00001	8b f1		 mov	 esi, ecx

; 951  : 	m_iExerciseStyle = EXERCISE_GENERAL;

  00003	c7 86 64 01 00
	00 01 00 00 00	 mov	 DWORD PTR [esi+356], 1

; 952  : 	SetExerciseStyle();

  0000d	e8 00 00 00 00	 call	 ?SetExerciseStyle@SoldierExerciseWnd@@IAEXXZ ; SoldierExerciseWnd::SetExerciseStyle

; 953  : 
; 954  : 	UpdateChildPos();

  00012	8b ce		 mov	 ecx, esi
  00014	5e		 pop	 esi
  00015	e9 00 00 00 00	 jmp	 ?UpdateChildPos@SoldierExerciseWnd@@QAEXXZ ; SoldierExerciseWnd::UpdateChildPos
?iwm_show@SoldierExerciseWnd@@UAEXXZ ENDP		; SoldierExerciseWnd::iwm_show
; Function compile flags: /Ogsp
_TEXT	ENDS
;	COMDAT ?OnProcess@SoldierExerciseWnd@@MAEXM@Z
_TEXT	SEGMENT
_fTimePerSec$ = 8					; size = 4
?OnProcess@SoldierExerciseWnd@@MAEXM@Z PROC		; SoldierExerciseWnd::OnProcess, COMDAT
; _this$ = ecx

; 795  : {

  00000	56		 push	 esi
  00001	8b f1		 mov	 esi, ecx

; 796  : 	if( !IsShow() ) return ;

  00003	ff 15 00 00 00
	00		 call	 DWORD PTR __imp_?IsShow@ioWnd@@QBE_NXZ
  00009	84 c0		 test	 al, al
  0000b	74 1d		 je	 SHORT $LN2@OnProcess@2

; 797  : 
; 798  : 	m_AniState.UpdateTime();

  0000d	8d 8e 70 01 00
	00		 lea	 ecx, DWORD PTR [esi+368]
  00013	e8 00 00 00 00	 call	 ?UpdateTime@FSMStateMgr@@QAEXXZ ; FSMStateMgr::UpdateTime

; 799  : 	m_BigArrowAniState.UpdateTime();

  00018	8d 8e 98 01 00
	00		 lea	 ecx, DWORD PTR [esi+408]
  0001e	e8 00 00 00 00	 call	 ?UpdateTime@FSMStateMgr@@QAEXXZ ; FSMStateMgr::UpdateTime

; 800  : 
; 801  : 	SetExerciseStyle();

  00023	8b ce		 mov	 ecx, esi
  00025	e8 00 00 00 00	 call	 ?SetExerciseStyle@SoldierExerciseWnd@@IAEXXZ ; SoldierExerciseWnd::SetExerciseStyle
$LN2@OnProcess@2:
  0002a	5e		 pop	 esi

; 802  : }

  0002b	c2 04 00	 ret	 4
?OnProcess@SoldierExerciseWnd@@MAEXM@Z ENDP		; SoldierExerciseWnd::OnProcess
_TEXT	ENDS
END
