; Listing generated by Microsoft (R) Optimizing Compiler Version 16.00.30319.01 

	TITLE	D:\Lost Saga For Developer\Youtube\Tutorial\Source\src\LSClient\GUI\TimeGateSearchShuffle.cpp
	.686P
	.XMM
	include listing.inc
	.model	flat

INCLUDELIB MSVCRT
INCLUDELIB OLDNAMES

PUBLIC	?GetMaxModeCount@ioShuffleRoomMgr@@QAEHXZ	; ioShuffleRoomMgr::GetMaxModeCount
; Function compile flags: /Ogsp
; File d:\lost saga for developer\youtube\tutorial\source\src\lsclient\ioshuffleroommgr.h
;	COMDAT ?GetMaxModeCount@ioShuffleRoomMgr@@QAEHXZ
_TEXT	SEGMENT
?GetMaxModeCount@ioShuffleRoomMgr@@QAEHXZ PROC		; ioShuffleRoomMgr::GetMaxModeCount, COMDAT
; _this$ = ecx

; 179  : 	__forceinline int GetMaxModeCount(){ return m_nModeMaxCount; }

  00000	8b 41 74	 mov	 eax, DWORD PTR [ecx+116]
  00003	c3		 ret	 0
?GetMaxModeCount@ioShuffleRoomMgr@@QAEHXZ ENDP		; ioShuffleRoomMgr::GetMaxModeCount
_TEXT	ENDS
PUBLIC	?InitGlobalSearchingShuffleCount@ioShuffleRoomMgr@@QAEXXZ ; ioShuffleRoomMgr::InitGlobalSearchingShuffleCount
; Function compile flags: /Ogsp
;	COMDAT ?InitGlobalSearchingShuffleCount@ioShuffleRoomMgr@@QAEXXZ
_TEXT	SEGMENT
?InitGlobalSearchingShuffleCount@ioShuffleRoomMgr@@QAEXXZ PROC ; ioShuffleRoomMgr::InitGlobalSearchingShuffleCount, COMDAT
; _this$ = ecx

; 213  : 	void InitGlobalSearchingShuffleCount(){ m_iGlobalSearchingShuffleCount = 0; }

  00000	83 a1 f4 00 00
	00 00		 and	 DWORD PTR [ecx+244], 0
  00007	c3		 ret	 0
?InitGlobalSearchingShuffleCount@ioShuffleRoomMgr@@QAEXXZ ENDP ; ioShuffleRoomMgr::InitGlobalSearchingShuffleCount
_TEXT	ENDS
PUBLIC	?IncreaseGlobalSearchingShuffleCount@ioShuffleRoomMgr@@QAEXXZ ; ioShuffleRoomMgr::IncreaseGlobalSearchingShuffleCount
; Function compile flags: /Ogsp
;	COMDAT ?IncreaseGlobalSearchingShuffleCount@ioShuffleRoomMgr@@QAEXXZ
_TEXT	SEGMENT
?IncreaseGlobalSearchingShuffleCount@ioShuffleRoomMgr@@QAEXXZ PROC ; ioShuffleRoomMgr::IncreaseGlobalSearchingShuffleCount, COMDAT
; _this$ = ecx

; 214  : 	void IncreaseGlobalSearchingShuffleCount(){ m_iGlobalSearchingShuffleCount++; }

  00000	ff 81 f4 00 00
	00		 inc	 DWORD PTR [ecx+244]
  00006	c3		 ret	 0
?IncreaseGlobalSearchingShuffleCount@ioShuffleRoomMgr@@QAEXXZ ENDP ; ioShuffleRoomMgr::IncreaseGlobalSearchingShuffleCount
_TEXT	ENDS
PUBLIC	?GetGlobalSearchingShuffleCount@ioShuffleRoomMgr@@QAEHXZ ; ioShuffleRoomMgr::GetGlobalSearchingShuffleCount
; Function compile flags: /Ogsp
;	COMDAT ?GetGlobalSearchingShuffleCount@ioShuffleRoomMgr@@QAEHXZ
_TEXT	SEGMENT
?GetGlobalSearchingShuffleCount@ioShuffleRoomMgr@@QAEHXZ PROC ; ioShuffleRoomMgr::GetGlobalSearchingShuffleCount, COMDAT
; _this$ = ecx

; 215  : 	int  GetGlobalSearchingShuffleCount(){ return m_iGlobalSearchingShuffleCount; }

  00000	8b 81 f4 00 00
	00		 mov	 eax, DWORD PTR [ecx+244]
  00006	c3		 ret	 0
?GetGlobalSearchingShuffleCount@ioShuffleRoomMgr@@QAEHXZ ENDP ; ioShuffleRoomMgr::GetGlobalSearchingShuffleCount
_TEXT	ENDS
PUBLIC	?SendSearch@TimeGateSearchShuffle@@IAEXXZ	; TimeGateSearchShuffle::SendSearch
EXTRN	__imp_?GetLoopSec@ioFrameTimer@@QBEKXZ:PROC
EXTRN	__imp_?GetSingleton@ioFrameTimer@@SAAAV1@XZ:PROC
EXTRN	?IsMouseBusy@ioApplication@@QAE_NXZ:PROC	; ioApplication::IsMouseBusy
EXTRN	?GetSingleton@ioApplication@@SAAAV1@XZ:PROC	; ioApplication::GetSingleton
; Function compile flags: /Ogsp
; File d:\lost saga for developer\youtube\tutorial\source\src\lsclient\gui\timegatesearchshuffle.cpp
;	COMDAT ?SendSearch@TimeGateSearchShuffle@@IAEXXZ
_TEXT	SEGMENT
?SendSearch@TimeGateSearchShuffle@@IAEXXZ PROC		; TimeGateSearchShuffle::SendSearch, COMDAT
; _this$ = ecx

; 80   : {

  00000	56		 push	 esi
  00001	8b f1		 mov	 esi, ecx

; 81   : 	if( g_App.IsMouseBusy() )

  00003	e8 00 00 00 00	 call	 ?GetSingleton@ioApplication@@SAAAV1@XZ ; ioApplication::GetSingleton
  00008	8b c8		 mov	 ecx, eax
  0000a	e8 00 00 00 00	 call	 ?IsMouseBusy@ioApplication@@QAE_NXZ ; ioApplication::IsMouseBusy
  0000f	84 c0		 test	 al, al
  00011	75 14		 jne	 SHORT $LN2@SendSearch

; 82   : 		return;
; 83   : 
; 84   : 	m_dwCurrSerachTime = FRAMEGETTIME();

  00013	ff 15 00 00 00
	00		 call	 DWORD PTR __imp_?GetSingleton@ioFrameTimer@@SAAAV1@XZ
  00019	8b c8		 mov	 ecx, eax
  0001b	ff 15 00 00 00
	00		 call	 DWORD PTR __imp_?GetLoopSec@ioFrameTimer@@QBEKXZ
  00021	89 86 9c 01 00
	00		 mov	 DWORD PTR [esi+412], eax
$LN2@SendSearch:
  00027	5e		 pop	 esi

; 85   : }

  00028	c3		 ret	 0
?SendSearch@TimeGateSearchShuffle@@IAEXXZ ENDP		; TimeGateSearchShuffle::SendSearch
_TEXT	ENDS
PUBLIC	__$ArrayPad$
PUBLIC	?SendCancel@TimeGateSearchShuffle@@IAEXXZ	; TimeGateSearchShuffle::SendCancel
EXTRN	??1SP2Packet@@UAE@XZ:PROC			; SP2Packet::~SP2Packet
EXTRN	?SendToServer@TCPNetwork@@YAXAAVSP2Packet@@@Z:PROC ; TCPNetwork::SendToServer
EXTRN	??0SP2Packet@@QAE@K@Z:PROC			; SP2Packet::SP2Packet
EXTRN	___security_cookie:DWORD
EXTRN	___CxxFrameHandler3:PROC
EXTRN	@__security_check_cookie@4:PROC
EXTRN	__chkstk:PROC
;	COMDAT xdata$x
xdata$x	SEGMENT
__unwindtable$?SendCancel@TimeGateSearchShuffle@@IAEXXZ DD 0ffffffffH
	DD	FLAT:__unwindfunclet$?SendCancel@TimeGateSearchShuffle@@IAEXXZ$0
__ehfuncinfo$?SendCancel@TimeGateSearchShuffle@@IAEXXZ DD 019930522H
	DD	01H
	DD	FLAT:__unwindtable$?SendCancel@TimeGateSearchShuffle@@IAEXXZ
	DD	2 DUP(00H)
	DD	2 DUP(00H)
	DD	00H
	DD	01H
; Function compile flags: /Ogsp
xdata$x	ENDS
;	COMDAT ?SendCancel@TimeGateSearchShuffle@@IAEXXZ
_TEXT	SEGMENT
_kPacket$ = -32808					; size = 32792
__$ArrayPad$ = -16					; size = 4
__$EHRec$ = -12						; size = 12
?SendCancel@TimeGateSearchShuffle@@IAEXXZ PROC		; TimeGateSearchShuffle::SendCancel, COMDAT
; _this$ = ecx

; 88   : {

  00000	55		 push	 ebp
  00001	8b ec		 mov	 ebp, esp
  00003	6a ff		 push	 -1
  00005	68 00 00 00 00	 push	 __ehhandler$?SendCancel@TimeGateSearchShuffle@@IAEXXZ
  0000a	64 a1 00 00 00
	00		 mov	 eax, DWORD PTR fs:0
  00010	50		 push	 eax
  00011	b8 1c 80 00 00	 mov	 eax, 32796		; 0000801cH
  00016	e8 00 00 00 00	 call	 __chkstk
  0001b	a1 00 00 00 00	 mov	 eax, DWORD PTR ___security_cookie
  00020	33 c5		 xor	 eax, ebp
  00022	89 45 f0	 mov	 DWORD PTR __$ArrayPad$[ebp], eax
  00025	56		 push	 esi
  00026	50		 push	 eax
  00027	8d 45 f4	 lea	 eax, DWORD PTR __$EHRec$[ebp]
  0002a	64 a3 00 00 00
	00		 mov	 DWORD PTR fs:0, eax
  00030	8b f1		 mov	 esi, ecx

; 89   : 	SP2Packet kPacket( CTPK_SHUFFLEROOM_JOIN_CANCEL );

  00032	68 17 03 00 00	 push	 791			; 00000317H
  00037	8d 8d d8 7f ff
	ff		 lea	 ecx, DWORD PTR _kPacket$[ebp]
  0003d	e8 00 00 00 00	 call	 ??0SP2Packet@@QAE@K@Z	; SP2Packet::SP2Packet
  00042	83 65 fc 00	 and	 DWORD PTR __$EHRec$[ebp+8], 0

; 90   : 	TCPNetwork::SendToServer( kPacket );

  00046	8d 85 d8 7f ff
	ff		 lea	 eax, DWORD PTR _kPacket$[ebp]
  0004c	50		 push	 eax
  0004d	e8 00 00 00 00	 call	 ?SendToServer@TCPNetwork@@YAXAAVSP2Packet@@@Z ; TCPNetwork::SendToServer

; 91   : 	m_dwCurrSerachTime = 0;

  00052	83 a6 9c 01 00
	00 00		 and	 DWORD PTR [esi+412], 0

; 92   : }

  00059	83 4d fc ff	 or	 DWORD PTR __$EHRec$[ebp+8], -1
  0005d	59		 pop	 ecx
  0005e	8d 8d d8 7f ff
	ff		 lea	 ecx, DWORD PTR _kPacket$[ebp]
  00064	e8 00 00 00 00	 call	 ??1SP2Packet@@UAE@XZ	; SP2Packet::~SP2Packet
  00069	8b 4d f4	 mov	 ecx, DWORD PTR __$EHRec$[ebp]
  0006c	64 89 0d 00 00
	00 00		 mov	 DWORD PTR fs:0, ecx
  00073	59		 pop	 ecx
  00074	5e		 pop	 esi
  00075	8b 4d f0	 mov	 ecx, DWORD PTR __$ArrayPad$[ebp]
  00078	33 cd		 xor	 ecx, ebp
  0007a	e8 00 00 00 00	 call	 @__security_check_cookie@4
  0007f	c9		 leave
  00080	c3		 ret	 0
_TEXT	ENDS
;	COMDAT text$x
text$x	SEGMENT
__unwindfunclet$?SendCancel@TimeGateSearchShuffle@@IAEXXZ$0:
  00000	8d 8d d8 7f ff
	ff		 lea	 ecx, DWORD PTR _kPacket$[ebp]
  00006	e9 00 00 00 00	 jmp	 ??1SP2Packet@@UAE@XZ	; SP2Packet::~SP2Packet
__ehhandler$?SendCancel@TimeGateSearchShuffle@@IAEXXZ:
  0000b	8b 54 24 08	 mov	 edx, DWORD PTR [esp+8]
  0000f	8d 42 0c	 lea	 eax, DWORD PTR [edx+12]
  00012	8b 8a dc 7f ff
	ff		 mov	 ecx, DWORD PTR [edx-32804]
  00018	33 c8		 xor	 ecx, eax
  0001a	e8 00 00 00 00	 call	 @__security_check_cookie@4
  0001f	8b 4a fc	 mov	 ecx, DWORD PTR [edx-4]
  00022	33 c8		 xor	 ecx, eax
  00024	e8 00 00 00 00	 call	 @__security_check_cookie@4
  00029	b8 00 00 00 00	 mov	 eax, OFFSET __ehfuncinfo$?SendCancel@TimeGateSearchShuffle@@IAEXXZ
  0002e	e9 00 00 00 00	 jmp	 ___CxxFrameHandler3
text$x	ENDS
?SendCancel@TimeGateSearchShuffle@@IAEXXZ ENDP		; TimeGateSearchShuffle::SendCancel
PUBLIC	?ChangeProcessCircle@TimeGateSearchShuffle@@IAEXXZ ; TimeGateSearchShuffle::ChangeProcessCircle
; Function compile flags: /Ogsp
;	COMDAT ?ChangeProcessCircle@TimeGateSearchShuffle@@IAEXXZ
_TEXT	SEGMENT
?ChangeProcessCircle@TimeGateSearchShuffle@@IAEXXZ PROC	; TimeGateSearchShuffle::ChangeProcessCircle, COMDAT
; _this$ = ecx

; 95   : {

  00000	56		 push	 esi
  00001	57		 push	 edi

; 96   : 	if( m_dwChangeProcessCicleTime < FRAMEGETTIME() )

  00002	8b 3d 00 00 00
	00		 mov	 edi, DWORD PTR __imp_?GetSingleton@ioFrameTimer@@SAAAV1@XZ
  00008	8b f1		 mov	 esi, ecx
  0000a	ff d7		 call	 edi
  0000c	8b c8		 mov	 ecx, eax
  0000e	ff 15 00 00 00
	00		 call	 DWORD PTR __imp_?GetLoopSec@ioFrameTimer@@QBEKXZ
  00014	39 86 8c 01 00
	00		 cmp	 DWORD PTR [esi+396], eax
  0001a	73 26		 jae	 SHORT $LN2@ChangeProc

; 97   : 	{
; 98   : 		m_dwChangeProcessCicleTime = FRAMEGETTIME() + CHANGE_DURATION_PROCESS_CIRCLE;

  0001c	ff d7		 call	 edi
  0001e	8b c8		 mov	 ecx, eax
  00020	ff 15 00 00 00
	00		 call	 DWORD PTR __imp_?GetLoopSec@ioFrameTimer@@QBEKXZ

; 99   : 		if( m_iProcessArray == 0 )

  00026	33 c9		 xor	 ecx, ecx
  00028	05 c8 00 00 00	 add	 eax, 200		; 000000c8H
  0002d	39 8e 94 01 00
	00		 cmp	 DWORD PTR [esi+404], ecx
  00033	89 86 8c 01 00
	00		 mov	 DWORD PTR [esi+396], eax
  00039	0f 94 c1	 sete	 cl
  0003c	89 8e 94 01 00
	00		 mov	 DWORD PTR [esi+404], ecx
$LN2@ChangeProc:

; 100  : 			m_iProcessArray = 1;
; 101  : 		else
; 102  : 			m_iProcessArray = 0;
; 103  : 	}
; 104  : 	m_pCurProcessCircle = m_pProcessCircle[m_iProcessArray];

  00042	8b 86 94 01 00
	00		 mov	 eax, DWORD PTR [esi+404]
  00048	8b 84 86 60 01
	00 00		 mov	 eax, DWORD PTR [esi+eax*4+352]
  0004f	5f		 pop	 edi
  00050	89 86 7c 01 00
	00		 mov	 DWORD PTR [esi+380], eax
  00056	5e		 pop	 esi

; 105  : }

  00057	c3		 ret	 0
?ChangeProcessCircle@TimeGateSearchShuffle@@IAEXXZ ENDP	; TimeGateSearchShuffle::ChangeProcessCircle
_TEXT	ENDS
PUBLIC	?ChangeModeImage@TimeGateSearchShuffle@@IAEXXZ	; TimeGateSearchShuffle::ChangeModeImage
EXTRN	?GetModeIcon@ioModeResourceManager@@QAEPAVioUIRenderImage@@H@Z:PROC ; ioModeResourceManager::GetModeIcon
EXTRN	?GetSingleton@ioModeResourceManager@@SAAAV1@XZ:PROC ; ioModeResourceManager::GetSingleton
EXTRN	?GetTodayModeType@ioShuffleRoomMgr@@QAEHHH@Z:PROC ; ioShuffleRoomMgr::GetTodayModeType
EXTRN	?GetTodayOfWeek@DateHelp@@YAHXZ:PROC		; DateHelp::GetTodayOfWeek
EXTRN	?GetSingleton@ioShuffleRoomMgr@@SAAAV1@XZ:PROC	; ioShuffleRoomMgr::GetSingleton
; Function compile flags: /Ogsp
;	COMDAT ?ChangeModeImage@TimeGateSearchShuffle@@IAEXXZ
_TEXT	SEGMENT
?ChangeModeImage@TimeGateSearchShuffle@@IAEXXZ PROC	; TimeGateSearchShuffle::ChangeModeImage, COMDAT
; _this$ = ecx

; 110  : {

  00000	56		 push	 esi

; 111  : 	if( m_dwChangeModeImageTime < FRAMEGETTIME() )

  00001	8b 35 00 00 00
	00		 mov	 esi, DWORD PTR __imp_?GetSingleton@ioFrameTimer@@SAAAV1@XZ
  00007	57		 push	 edi
  00008	8b f9		 mov	 edi, ecx
  0000a	ff d6		 call	 esi
  0000c	8b c8		 mov	 ecx, eax
  0000e	ff 15 00 00 00
	00		 call	 DWORD PTR __imp_?GetLoopSec@ioFrameTimer@@QBEKXZ
  00014	39 87 90 01 00
	00		 cmp	 DWORD PTR [edi+400], eax
  0001a	73 32		 jae	 SHORT $LN1@ChangeMode

; 112  : 	{
; 113  : 		m_dwChangeModeImageTime = FRAMEGETTIME() + CHANGE_DURATION_MODE_IMAGE;

  0001c	ff d6		 call	 esi
  0001e	8b c8		 mov	 ecx, eax
  00020	ff 15 00 00 00
	00		 call	 DWORD PTR __imp_?GetLoopSec@ioFrameTimer@@QBEKXZ
  00026	05 58 02 00 00	 add	 eax, 600		; 00000258H

; 114  : 		m_iModeArray++;

  0002b	ff 87 98 01 00
	00		 inc	 DWORD PTR [edi+408]
  00031	89 87 90 01 00
	00		 mov	 DWORD PTR [edi+400], eax

; 115  : 		if( m_iModeArray >= g_ShuffleRoomMgr.GetMaxModeCount() )

  00037	e8 00 00 00 00	 call	 ?GetSingleton@ioShuffleRoomMgr@@SAAAV1@XZ ; ioShuffleRoomMgr::GetSingleton
  0003c	8b 8f 98 01 00
	00		 mov	 ecx, DWORD PTR [edi+408]
  00042	3b 48 74	 cmp	 ecx, DWORD PTR [eax+116]
  00045	7c 07		 jl	 SHORT $LN1@ChangeMode

; 116  : 			m_iModeArray = 0;

  00047	83 a7 98 01 00
	00 00		 and	 DWORD PTR [edi+408], 0
$LN1@ChangeMode:

; 117  : 	}
; 118  : 		
; 119  : 	m_pCurModeImage = g_ModeResourceMgr.GetModeIcon( g_ShuffleRoomMgr.GetTodayModeType( DateHelp::GetTodayOfWeek(), m_iModeArray ) );

  0004e	ff b7 98 01 00
	00		 push	 DWORD PTR [edi+408]
  00054	e8 00 00 00 00	 call	 ?GetTodayOfWeek@DateHelp@@YAHXZ ; DateHelp::GetTodayOfWeek
  00059	50		 push	 eax
  0005a	e8 00 00 00 00	 call	 ?GetSingleton@ioShuffleRoomMgr@@SAAAV1@XZ ; ioShuffleRoomMgr::GetSingleton
  0005f	8b c8		 mov	 ecx, eax
  00061	e8 00 00 00 00	 call	 ?GetTodayModeType@ioShuffleRoomMgr@@QAEHHH@Z ; ioShuffleRoomMgr::GetTodayModeType
  00066	50		 push	 eax
  00067	e8 00 00 00 00	 call	 ?GetSingleton@ioModeResourceManager@@SAAAV1@XZ ; ioModeResourceManager::GetSingleton
  0006c	8b c8		 mov	 ecx, eax
  0006e	e8 00 00 00 00	 call	 ?GetModeIcon@ioModeResourceManager@@QAEPAVioUIRenderImage@@H@Z ; ioModeResourceManager::GetModeIcon
  00073	89 87 80 01 00
	00		 mov	 DWORD PTR [edi+384], eax
  00079	5f		 pop	 edi
  0007a	5e		 pop	 esi

; 120  : }

  0007b	c3		 ret	 0
?ChangeModeImage@TimeGateSearchShuffle@@IAEXXZ ENDP	; TimeGateSearchShuffle::ChangeModeImage
_TEXT	ENDS
PUBLIC	?iwm_create@TimeGateSearchShuffle@@UAEXXZ	; TimeGateSearchShuffle::iwm_create
; Function compile flags: /Ogsp
;	COMDAT ?iwm_create@TimeGateSearchShuffle@@UAEXXZ
_TEXT	SEGMENT
?iwm_create@TimeGateSearchShuffle@@UAEXXZ PROC		; TimeGateSearchShuffle::iwm_create, COMDAT
; _this$ = ecx

; 124  : }

  00000	c3		 ret	 0
?iwm_create@TimeGateSearchShuffle@@UAEXXZ ENDP		; TimeGateSearchShuffle::iwm_create
_TEXT	ENDS
PUBLIC	__$ArrayPad$
PUBLIC	?iwm_show@TimeGateSearchShuffle@@UAEXXZ		; TimeGateSearchShuffle::iwm_show
EXTRN	__imp_?HideWnd@ioWnd@@QAEXXZ:PROC
EXTRN	__imp_?ShowWnd@ioWnd@@QAEXXZ:PROC
EXTRN	__imp_?FindChildWnd@ioWnd@@QAEPAV1@K@Z:PROC
EXTRN	?GetServerTime@ioMyInfo@@QAEXAAU_SYSTEMTIME@@@Z:PROC ; ioMyInfo::GetServerTime
EXTRN	?GetSingleton@ioMyInfo@@SAAAV1@XZ:PROC		; ioMyInfo::GetSingleton
; Function compile flags: /Ogsp
;	COMDAT ?iwm_show@TimeGateSearchShuffle@@UAEXXZ
_TEXT	SEGMENT
_iDayOfWeek$ = -24					; size = 4
_rkServerTime$ = -20					; size = 16
__$ArrayPad$ = -4					; size = 4
?iwm_show@TimeGateSearchShuffle@@UAEXXZ PROC		; TimeGateSearchShuffle::iwm_show, COMDAT
; _this$ = ecx

; 127  : {

  00000	55		 push	 ebp
  00001	8b ec		 mov	 ebp, esp
  00003	83 ec 18	 sub	 esp, 24			; 00000018H
  00006	a1 00 00 00 00	 mov	 eax, DWORD PTR ___security_cookie
  0000b	33 c5		 xor	 eax, ebp
  0000d	89 45 fc	 mov	 DWORD PTR __$ArrayPad$[ebp], eax
  00010	53		 push	 ebx
  00011	56		 push	 esi
  00012	57		 push	 edi
  00013	8b f1		 mov	 esi, ecx

; 128  : 	g_ShuffleRoomMgr.InitGlobalSearchingShuffleCount();

  00015	e8 00 00 00 00	 call	 ?GetSingleton@ioShuffleRoomMgr@@SAAAV1@XZ ; ioShuffleRoomMgr::GetSingleton

; 129  : 
; 130  : 	m_dwChangeProcessCicleTime = FRAMEGETTIME() + CHANGE_DURATION_PROCESS_CIRCLE;

  0001a	8b 3d 00 00 00
	00		 mov	 edi, DWORD PTR __imp_?GetSingleton@ioFrameTimer@@SAAAV1@XZ
  00020	33 db		 xor	 ebx, ebx
  00022	89 98 f4 00 00
	00		 mov	 DWORD PTR [eax+244], ebx
  00028	ff d7		 call	 edi
  0002a	8b c8		 mov	 ecx, eax
  0002c	ff 15 00 00 00
	00		 call	 DWORD PTR __imp_?GetLoopSec@ioFrameTimer@@QBEKXZ
  00032	05 c8 00 00 00	 add	 eax, 200		; 000000c8H
  00037	89 86 8c 01 00
	00		 mov	 DWORD PTR [esi+396], eax

; 131  : 	m_dwChangeModeImageTime    = FRAMEGETTIME() + CHANGE_DURATION_MODE_IMAGE;

  0003d	ff d7		 call	 edi
  0003f	8b c8		 mov	 ecx, eax
  00041	ff 15 00 00 00
	00		 call	 DWORD PTR __imp_?GetLoopSec@ioFrameTimer@@QBEKXZ
  00047	05 58 02 00 00	 add	 eax, 600		; 00000258H
  0004c	89 86 90 01 00
	00		 mov	 DWORD PTR [esi+400], eax

; 132  : 	m_dwChangeTime = FRAMEGETTIME() + m_dwChangeDuration;

  00052	ff d7		 call	 edi
  00054	8b c8		 mov	 ecx, eax
  00056	ff 15 00 00 00
	00		 call	 DWORD PTR __imp_?GetLoopSec@ioFrameTimer@@QBEKXZ
  0005c	03 86 84 01 00
	00		 add	 eax, DWORD PTR [esi+388]

; 133  : 
; 134  : 	m_pCurProcessCircle = NULL;

  00062	89 9e 7c 01 00
	00		 mov	 DWORD PTR [esi+380], ebx
  00068	89 86 88 01 00
	00		 mov	 DWORD PTR [esi+392], eax

; 135  : 	m_pCurModeImage     = NULL;
; 136  : 	m_iProcessArray     = 0;
; 137  : 	m_iModeArray        = 0;
; 138  : 	m_dwCurrSerachTime  = 0;
; 139  : 
; 140  : 	int iDayOfWeek = DEFAULT;
; 141  : #ifdef SHIPPING	
; 142  : 	SYSTEMTIME rkServerTime;
; 143  : 	g_MyInfo.GetServerTime( rkServerTime );	

  0006e	8d 45 ec	 lea	 eax, DWORD PTR _rkServerTime$[ebp]
  00071	50		 push	 eax
  00072	89 9e 80 01 00
	00		 mov	 DWORD PTR [esi+384], ebx
  00078	89 9e 94 01 00
	00		 mov	 DWORD PTR [esi+404], ebx
  0007e	89 9e 98 01 00
	00		 mov	 DWORD PTR [esi+408], ebx
  00084	89 9e 9c 01 00
	00		 mov	 DWORD PTR [esi+412], ebx
  0008a	e8 00 00 00 00	 call	 ?GetSingleton@ioMyInfo@@SAAAV1@XZ ; ioMyInfo::GetSingleton
  0008f	8b c8		 mov	 ecx, eax
  00091	e8 00 00 00 00	 call	 ?GetServerTime@ioMyInfo@@QAEXAAU_SYSTEMTIME@@@Z ; ioMyInfo::GetServerTime

; 144  : 	iDayOfWeek = rkServerTime.wDayOfWeek;

  00096	0f b7 45 f0	 movzx	 eax, WORD PTR _rkServerTime$[ebp+4]

; 145  : #else
; 146  : 	SYSTEMTIME systime;
; 147  : 	GetSystemTime(&systime);
; 148  : 	iDayOfWeek = systime.wDayOfWeek;
; 149  : #endif
; 150  : 
; 151  : 	int i = 0;
; 152  : 	for( int iDay = SUN_; iDay <= DEFAULT; ++iDay, ++i )

  0009a	6a 64		 push	 100			; 00000064H
  0009c	89 45 e8	 mov	 DWORD PTR _iDayOfWeek$[ebp], eax
  0009f	5f		 pop	 edi
$LL6@iwm_show:

; 153  : 	{
; 154  : 		ioRichLabel* pLabel = (ioRichLabel*)( FindChildWnd( iDay ) );

  000a0	57		 push	 edi
  000a1	8b ce		 mov	 ecx, esi
  000a3	ff 15 00 00 00
	00		 call	 DWORD PTR __imp_?FindChildWnd@ioWnd@@QAEPAV1@K@Z
  000a9	8b c8		 mov	 ecx, eax

; 155  : 		if( pLabel )

  000ab	3b cb		 cmp	 ecx, ebx
  000ad	74 16		 je	 SHORT $LN5@iwm_show

; 156  : 		{
; 157  : 			if( iDayOfWeek == i )

  000af	8d 47 9c	 lea	 eax, DWORD PTR [edi-100]
  000b2	39 45 e8	 cmp	 DWORD PTR _iDayOfWeek$[ebp], eax
  000b5	75 08		 jne	 SHORT $LN2@iwm_show

; 158  : 			{
; 159  : 				pLabel->ShowWnd();				

  000b7	ff 15 00 00 00
	00		 call	 DWORD PTR __imp_?ShowWnd@ioWnd@@QAEXXZ

; 160  : 			}
; 161  : 			else

  000bd	eb 06		 jmp	 SHORT $LN5@iwm_show
$LN2@iwm_show:

; 162  : 			{
; 163  : 				pLabel->HideWnd();

  000bf	ff 15 00 00 00
	00		 call	 DWORD PTR __imp_?HideWnd@ioWnd@@QAEXXZ
$LN5@iwm_show:

; 145  : #else
; 146  : 	SYSTEMTIME systime;
; 147  : 	GetSystemTime(&systime);
; 148  : 	iDayOfWeek = systime.wDayOfWeek;
; 149  : #endif
; 150  : 
; 151  : 	int i = 0;
; 152  : 	for( int iDay = SUN_; iDay <= DEFAULT; ++iDay, ++i )

  000c5	47		 inc	 edi
  000c6	83 ff 6b	 cmp	 edi, 107		; 0000006bH
  000c9	7e d5		 jle	 SHORT $LL6@iwm_show

; 164  : 			}
; 165  : 		}
; 166  : 	}
; 167  : }

  000cb	8b 4d fc	 mov	 ecx, DWORD PTR __$ArrayPad$[ebp]
  000ce	5f		 pop	 edi
  000cf	5e		 pop	 esi
  000d0	33 cd		 xor	 ecx, ebp
  000d2	5b		 pop	 ebx
  000d3	e8 00 00 00 00	 call	 @__security_check_cookie@4
  000d8	c9		 leave
  000d9	c3		 ret	 0
?iwm_show@TimeGateSearchShuffle@@UAEXXZ ENDP		; TimeGateSearchShuffle::iwm_show
_TEXT	ENDS
PUBLIC	?iwm_hide@TimeGateSearchShuffle@@UAEXXZ		; TimeGateSearchShuffle::iwm_hide
; Function compile flags: /Ogsp
;	COMDAT ?iwm_hide@TimeGateSearchShuffle@@UAEXXZ
_TEXT	SEGMENT
?iwm_hide@TimeGateSearchShuffle@@UAEXXZ PROC		; TimeGateSearchShuffle::iwm_hide, COMDAT
; _this$ = ecx

; 170  : {

  00000	56		 push	 esi

; 171  : 	m_pCurProcessCircle = NULL;

  00001	33 f6		 xor	 esi, esi
  00003	89 b1 7c 01 00
	00		 mov	 DWORD PTR [ecx+380], esi

; 172  : 	m_pCurModeImage     = NULL;

  00009	89 b1 80 01 00
	00		 mov	 DWORD PTR [ecx+384], esi

; 173  : 	m_iProcessArray     = 0;

  0000f	89 b1 94 01 00
	00		 mov	 DWORD PTR [ecx+404], esi

; 174  : 	m_iModeArray        = 0;

  00015	89 b1 98 01 00
	00		 mov	 DWORD PTR [ecx+408], esi

; 175  : 	m_dwCurrSerachTime  = 0;

  0001b	89 b1 9c 01 00
	00		 mov	 DWORD PTR [ecx+412], esi

; 176  : 
; 177  : 	g_ShuffleRoomMgr.InitGlobalSearchingShuffleCount();

  00021	e8 00 00 00 00	 call	 ?GetSingleton@ioShuffleRoomMgr@@SAAAV1@XZ ; ioShuffleRoomMgr::GetSingleton
  00026	89 b0 f4 00 00
	00		 mov	 DWORD PTR [eax+244], esi
  0002c	5e		 pop	 esi

; 178  : }

  0002d	c3		 ret	 0
?iwm_hide@TimeGateSearchShuffle@@UAEXXZ ENDP		; TimeGateSearchShuffle::iwm_hide
_TEXT	ENDS
PUBLIC	__$ArrayPad$
PUBLIC	?OnProcess@TimeGateSearchShuffle@@MAEXM@Z	; TimeGateSearchShuffle::OnProcess
EXTRN	__imp_?ShowWnd@ioGUIManager@@QAEXK_N@Z:PROC
EXTRN	?GetSingleton@ioSP2GUIManager@@SAAAV1@XZ:PROC	; ioSP2GUIManager::GetSingleton
EXTRN	??6SP2Packet@@QAEAAV0@H@Z:PROC			; SP2Packet::operator<<
EXTRN	?GetMatchConditionMaxCount@ioShuffleRoomMgr@@QAEHH@Z:PROC ; ioShuffleRoomMgr::GetMatchConditionMaxCount
EXTRN	?GetKillDeathLevel@ioMyInfo@@QAEHXZ:PROC	; ioMyInfo::GetKillDeathLevel
EXTRN	__imp_?OnProcess@ioWnd@@MAEXM@Z:PROC
EXTRN	__imp_?IsShow@ioWnd@@QBE_NXZ:PROC
EXTRN	__fltused:DWORD
;	COMDAT xdata$x
; File d:\lost saga for developer\youtube\tutorial\source\src\lsclient\ioshuffleroommgr.h
xdata$x	SEGMENT
__unwindtable$?OnProcess@TimeGateSearchShuffle@@MAEXM@Z DD 0ffffffffH
	DD	FLAT:__unwindfunclet$?OnProcess@TimeGateSearchShuffle@@MAEXM@Z$0
__ehfuncinfo$?OnProcess@TimeGateSearchShuffle@@MAEXM@Z DD 019930522H
	DD	01H
	DD	FLAT:__unwindtable$?OnProcess@TimeGateSearchShuffle@@MAEXM@Z
	DD	2 DUP(00H)
	DD	2 DUP(00H)
	DD	00H
	DD	01H
; Function compile flags: /Ogsp
; File d:\lost saga for developer\youtube\tutorial\source\src\lsclient\gui\timegatesearchshuffle.cpp
xdata$x	ENDS
;	COMDAT ?OnProcess@TimeGateSearchShuffle@@MAEXM@Z
_TEXT	SEGMENT
_iMaxCount$ = -32812					; size = 4
_kPacket$508904 = -32808				; size = 32792
__$ArrayPad$ = -16					; size = 4
__$EHRec$ = -12						; size = 12
_fTimePerSec$ = 8					; size = 4
?OnProcess@TimeGateSearchShuffle@@MAEXM@Z PROC		; TimeGateSearchShuffle::OnProcess, COMDAT
; _this$ = ecx

; 181  : {

  00000	55		 push	 ebp
  00001	8b ec		 mov	 ebp, esp
  00003	6a ff		 push	 -1
  00005	68 00 00 00 00	 push	 __ehhandler$?OnProcess@TimeGateSearchShuffle@@MAEXM@Z
  0000a	64 a1 00 00 00
	00		 mov	 eax, DWORD PTR fs:0
  00010	50		 push	 eax
  00011	b8 20 80 00 00	 mov	 eax, 32800		; 00008020H
  00016	e8 00 00 00 00	 call	 __chkstk
  0001b	a1 00 00 00 00	 mov	 eax, DWORD PTR ___security_cookie
  00020	33 c5		 xor	 eax, ebp
  00022	89 45 f0	 mov	 DWORD PTR __$ArrayPad$[ebp], eax
  00025	53		 push	 ebx
  00026	56		 push	 esi
  00027	57		 push	 edi
  00028	50		 push	 eax
  00029	8d 45 f4	 lea	 eax, DWORD PTR __$EHRec$[ebp]
  0002c	64 a3 00 00 00
	00		 mov	 DWORD PTR fs:0, eax
  00032	8b f1		 mov	 esi, ecx

; 182  : 	if( !IsShow() ) return;

  00034	ff 15 00 00 00
	00		 call	 DWORD PTR __imp_?IsShow@ioWnd@@QBE_NXZ
  0003a	84 c0		 test	 al, al
  0003c	0f 84 19 01 00
	00		 je	 $LN12@OnProcess

; 183  : 
; 184  : 	DWORD dwCurTime = FRAMEGETTIME();

  00042	8b 3d 00 00 00
	00		 mov	 edi, DWORD PTR __imp_?GetSingleton@ioFrameTimer@@SAAAV1@XZ
  00048	ff d7		 call	 edi
  0004a	8b c8		 mov	 ecx, eax
  0004c	ff 15 00 00 00
	00		 call	 DWORD PTR __imp_?GetLoopSec@ioFrameTimer@@QBEKXZ

; 185  : 
; 186  : 	ioWnd::OnProcess( fTimePerSec );

  00052	f3 0f 10 45 08	 movss	 xmm0, DWORD PTR _fTimePerSec$[ebp]
  00057	51		 push	 ecx
  00058	8b ce		 mov	 ecx, esi
  0005a	f3 0f 11 04 24	 movss	 DWORD PTR [esp], xmm0
  0005f	ff 15 00 00 00
	00		 call	 DWORD PTR __imp_?OnProcess@ioWnd@@MAEXM@Z

; 187  : 
; 188  : 	ChangeProcessCircle();

  00065	8b ce		 mov	 ecx, esi
  00067	e8 00 00 00 00	 call	 ?ChangeProcessCircle@TimeGateSearchShuffle@@IAEXXZ ; TimeGateSearchShuffle::ChangeProcessCircle

; 189  : 	ChangeModeImage();

  0006c	8b ce		 mov	 ecx, esi
  0006e	e8 00 00 00 00	 call	 ?ChangeModeImage@TimeGateSearchShuffle@@IAEXXZ ; TimeGateSearchShuffle::ChangeModeImage

; 190  : 
; 191  : 	int iCurrTryCount = g_ShuffleRoomMgr.GetGlobalSearchingShuffleCount();

  00073	e8 00 00 00 00	 call	 ?GetSingleton@ioShuffleRoomMgr@@SAAAV1@XZ ; ioShuffleRoomMgr::GetSingleton
  00078	8b 98 f4 00 00
	00		 mov	 ebx, DWORD PTR [eax+244]

; 192  : 	int iMaxCount     = g_ShuffleRoomMgr.GetMatchConditionMaxCount( g_MyInfo.GetKillDeathLevel() );

  0007e	e8 00 00 00 00	 call	 ?GetSingleton@ioMyInfo@@SAAAV1@XZ ; ioMyInfo::GetSingleton
  00083	8b c8		 mov	 ecx, eax
  00085	e8 00 00 00 00	 call	 ?GetKillDeathLevel@ioMyInfo@@QAEHXZ ; ioMyInfo::GetKillDeathLevel
  0008a	50		 push	 eax
  0008b	e8 00 00 00 00	 call	 ?GetSingleton@ioShuffleRoomMgr@@SAAAV1@XZ ; ioShuffleRoomMgr::GetSingleton
  00090	8b c8		 mov	 ecx, eax
  00092	e8 00 00 00 00	 call	 ?GetMatchConditionMaxCount@ioShuffleRoomMgr@@QAEHH@Z ; ioShuffleRoomMgr::GetMatchConditionMaxCount

; 193  : 
; 194  : 	if( 0 < m_dwCurrSerachTime && m_dwCurrSerachTime <= FRAMEGETTIME() )

  00097	83 be 9c 01 00
	00 00		 cmp	 DWORD PTR [esi+412], 0
  0009e	89 85 d4 7f ff
	ff		 mov	 DWORD PTR _iMaxCount$[ebp], eax
  000a4	0f 86 b1 00 00
	00		 jbe	 $LN12@OnProcess
  000aa	ff d7		 call	 edi
  000ac	8b c8		 mov	 ecx, eax
  000ae	ff 15 00 00 00
	00		 call	 DWORD PTR __imp_?GetLoopSec@ioFrameTimer@@QBEKXZ
  000b4	39 86 9c 01 00
	00		 cmp	 DWORD PTR [esi+412], eax
  000ba	0f 87 9b 00 00
	00		 ja	 $LN12@OnProcess

; 195  : 	{
; 196  : 		if( iCurrTryCount < iMaxCount )

  000c0	3b 9d d4 7f ff
	ff		 cmp	 ebx, DWORD PTR _iMaxCount$[ebp]
  000c6	7d 5e		 jge	 SHORT $LN2@OnProcess

; 197  : 		{
; 198  : 			SP2Packet kPacket( CTPK_SHUFFLEROOM_JOIN );

  000c8	68 16 03 00 00	 push	 790			; 00000316H
  000cd	8d 8d d8 7f ff
	ff		 lea	 ecx, DWORD PTR _kPacket$508904[ebp]
  000d3	e8 00 00 00 00	 call	 ??0SP2Packet@@QAE@K@Z	; SP2Packet::SP2Packet
  000d8	83 65 fc 00	 and	 DWORD PTR __$EHRec$[ebp+8], 0

; 199  : 			kPacket << iCurrTryCount;

  000dc	53		 push	 ebx
  000dd	8d 8d d8 7f ff
	ff		 lea	 ecx, DWORD PTR _kPacket$508904[ebp]
  000e3	e8 00 00 00 00	 call	 ??6SP2Packet@@QAEAAV0@H@Z ; SP2Packet::operator<<

; 200  : 			TCPNetwork::SendToServer( kPacket );

  000e8	8d 85 d8 7f ff
	ff		 lea	 eax, DWORD PTR _kPacket$508904[ebp]
  000ee	50		 push	 eax
  000ef	e8 00 00 00 00	 call	 ?SendToServer@TCPNetwork@@YAXAAVSP2Packet@@@Z ; TCPNetwork::SendToServer
  000f4	59		 pop	 ecx

; 201  : 
; 202  : 			g_ShuffleRoomMgr.IncreaseGlobalSearchingShuffleCount();

  000f5	e8 00 00 00 00	 call	 ?GetSingleton@ioShuffleRoomMgr@@SAAAV1@XZ ; ioShuffleRoomMgr::GetSingleton
  000fa	ff 80 f4 00 00
	00		 inc	 DWORD PTR [eax+244]

; 203  : 			m_dwCurrSerachTime = FRAMEGETTIME() + 1500;

  00100	ff d7		 call	 edi
  00102	8b c8		 mov	 ecx, eax
  00104	ff 15 00 00 00
	00		 call	 DWORD PTR __imp_?GetLoopSec@ioFrameTimer@@QBEKXZ

; 204  : 
; 205  : #ifndef SHIPPING
; 206  : 			LOG.PrintTimeAndLog(0, "%s Serach Start - %d : my kill-death lv : %d", __FUNCTION__, FRAMEGETTIME(), g_MyInfo.GetKillDeathLevel() );
; 207  : #endif
; 208  : 			
; 209  : 		}

  0010a	83 4d fc ff	 or	 DWORD PTR __$EHRec$[ebp+8], -1
  0010e	05 dc 05 00 00	 add	 eax, 1500		; 000005dcH
  00113	8d 8d d8 7f ff
	ff		 lea	 ecx, DWORD PTR _kPacket$508904[ebp]
  00119	89 86 9c 01 00
	00		 mov	 DWORD PTR [esi+412], eax
  0011f	e8 00 00 00 00	 call	 ??1SP2Packet@@UAE@XZ	; SP2Packet::~SP2Packet

; 210  : 		else

  00124	eb 35		 jmp	 SHORT $LN12@OnProcess
$LN2@OnProcess:

; 211  : 		{
; 212  : 			HideWnd();

  00126	8b ce		 mov	 ecx, esi
  00128	ff 15 00 00 00
	00		 call	 DWORD PTR __imp_?HideWnd@ioWnd@@QAEXXZ

; 213  : 			g_GUIMgr.ShowWnd( TIMEGATE_SEARCH_SHUFFLE_RESULT );

  0012e	33 ff		 xor	 edi, edi
  00130	57		 push	 edi
  00131	68 26 27 00 00	 push	 10022			; 00002726H
  00136	e8 00 00 00 00	 call	 ?GetSingleton@ioSP2GUIManager@@SAAAV1@XZ ; ioSP2GUIManager::GetSingleton
  0013b	8b c8		 mov	 ecx, eax
  0013d	ff 15 00 00 00
	00		 call	 DWORD PTR __imp_?ShowWnd@ioGUIManager@@QAEXK_N@Z

; 214  : 			m_dwCurrSerachTime = 0;
; 215  : 			SendCancel();

  00143	8b ce		 mov	 ecx, esi
  00145	89 be 9c 01 00
	00		 mov	 DWORD PTR [esi+412], edi
  0014b	e8 00 00 00 00	 call	 ?SendCancel@TimeGateSearchShuffle@@IAEXXZ ; TimeGateSearchShuffle::SendCancel

; 216  : 			g_ShuffleRoomMgr.InitGlobalSearchingShuffleCount();

  00150	e8 00 00 00 00	 call	 ?GetSingleton@ioShuffleRoomMgr@@SAAAV1@XZ ; ioShuffleRoomMgr::GetSingleton
  00155	89 b8 f4 00 00
	00		 mov	 DWORD PTR [eax+244], edi
$LN12@OnProcess:

; 217  : 
; 218  : #ifndef SHIPPING
; 219  : 			LOG.PrintTimeAndLog(0, "%s Serach End - %d : my kill-death lv : %d", __FUNCTION__, FRAMEGETTIME(), g_MyInfo.GetKillDeathLevel() );
; 220  : #endif			
; 221  : 		}
; 222  : 	}
; 223  : }

  0015b	8b 4d f4	 mov	 ecx, DWORD PTR __$EHRec$[ebp]
  0015e	64 89 0d 00 00
	00 00		 mov	 DWORD PTR fs:0, ecx
  00165	59		 pop	 ecx
  00166	5f		 pop	 edi
  00167	5e		 pop	 esi
  00168	5b		 pop	 ebx
  00169	8b 4d f0	 mov	 ecx, DWORD PTR __$ArrayPad$[ebp]
  0016c	33 cd		 xor	 ecx, ebp
  0016e	e8 00 00 00 00	 call	 @__security_check_cookie@4
  00173	c9		 leave
  00174	c2 04 00	 ret	 4
_TEXT	ENDS
;	COMDAT text$x
text$x	SEGMENT
__unwindfunclet$?OnProcess@TimeGateSearchShuffle@@MAEXM@Z$0:
  00000	8d 8d d8 7f ff
	ff		 lea	 ecx, DWORD PTR _kPacket$508904[ebp]
  00006	e9 00 00 00 00	 jmp	 ??1SP2Packet@@UAE@XZ	; SP2Packet::~SP2Packet
__ehhandler$?OnProcess@TimeGateSearchShuffle@@MAEXM@Z:
  0000b	8b 54 24 08	 mov	 edx, DWORD PTR [esp+8]
  0000f	8d 42 0c	 lea	 eax, DWORD PTR [edx+12]
  00012	8b 8a d0 7f ff
	ff		 mov	 ecx, DWORD PTR [edx-32816]
  00018	33 c8		 xor	 ecx, eax
  0001a	e8 00 00 00 00	 call	 @__security_check_cookie@4
  0001f	8b 4a fc	 mov	 ecx, DWORD PTR [edx-4]
  00022	33 c8		 xor	 ecx, eax
  00024	e8 00 00 00 00	 call	 @__security_check_cookie@4
  00029	b8 00 00 00 00	 mov	 eax, OFFSET __ehfuncinfo$?OnProcess@TimeGateSearchShuffle@@MAEXM@Z
  0002e	e9 00 00 00 00	 jmp	 ___CxxFrameHandler3
text$x	ENDS
?OnProcess@TimeGateSearchShuffle@@MAEXM@Z ENDP		; TimeGateSearchShuffle::OnProcess
PUBLIC	?SetSearching@TimeGateSearchShuffle@@QAEXXZ	; TimeGateSearchShuffle::SetSearching
; Function compile flags: /Ogsp
;	COMDAT ?SetSearching@TimeGateSearchShuffle@@QAEXXZ
_TEXT	SEGMENT
?SetSearching@TimeGateSearchShuffle@@QAEXXZ PROC	; TimeGateSearchShuffle::SetSearching, COMDAT
; _this$ = ecx

; 226  : {

  00000	56		 push	 esi
  00001	8b f1		 mov	 esi, ecx

; 227  : 	ShowWnd();

  00003	ff 15 00 00 00
	00		 call	 DWORD PTR __imp_?ShowWnd@ioWnd@@QAEXXZ

; 228  : 	SendSearch();

  00009	8b ce		 mov	 ecx, esi
  0000b	5e		 pop	 esi
  0000c	e9 00 00 00 00	 jmp	 ?SendSearch@TimeGateSearchShuffle@@IAEXXZ ; TimeGateSearchShuffle::SendSearch
?SetSearching@TimeGateSearchShuffle@@QAEXXZ ENDP	; TimeGateSearchShuffle::SetSearching
_TEXT	ENDS
PUBLIC	?iwm_esc@TimeGateSearchShuffle@@UAE_NXZ		; TimeGateSearchShuffle::iwm_esc
EXTRN	__imp_?HasWndStyle@ioWnd@@QBE_NK@Z:PROC
; Function compile flags: /Ogsp
;	COMDAT ?iwm_esc@TimeGateSearchShuffle@@UAE_NXZ
_TEXT	SEGMENT
?iwm_esc@TimeGateSearchShuffle@@UAE_NXZ PROC		; TimeGateSearchShuffle::iwm_esc, COMDAT
; _this$ = ecx

; 232  : {

  00000	57		 push	 edi

; 233  : 
; 234  : // 해외 버전에서는 ESC 키를 막도록 함.	JCLEE 140806
; 235  : //#if !defined( SHIPPING )
; 236  : 	if( HasWndStyle( IWS_EXIT_ESC ) )

  00001	6a 20		 push	 32			; 00000020H
  00003	8b f9		 mov	 edi, ecx
  00005	ff 15 00 00 00
	00		 call	 DWORD PTR __imp_?HasWndStyle@ioWnd@@QBE_NK@Z
  0000b	84 c0		 test	 al, al
  0000d	74 1f		 je	 SHORT $LN1@iwm_esc

; 237  : 	{
; 238  : 		iwm_command( FindChildWnd( ID_EXIT ), IOBN_BTNUP, 0 );

  0000f	56		 push	 esi
  00010	8b 37		 mov	 esi, DWORD PTR [edi]
  00012	6a 00		 push	 0
  00014	6a 11		 push	 17			; 00000011H
  00016	6a 01		 push	 1
  00018	8b cf		 mov	 ecx, edi
  0001a	ff 15 00 00 00
	00		 call	 DWORD PTR __imp_?FindChildWnd@ioWnd@@QAEPAV1@K@Z
  00020	50		 push	 eax
  00021	8b cf		 mov	 ecx, edi
  00023	ff 96 8c 00 00
	00		 call	 DWORD PTR [esi+140]
  00029	5e		 pop	 esi

; 239  : 		return true;

  0002a	b0 01		 mov	 al, 1
  0002c	5f		 pop	 edi

; 244  : }

  0002d	c3		 ret	 0
$LN1@iwm_esc:

; 240  : 	}
; 241  : //#endif
; 242  : 
; 243  : 	return false;

  0002e	32 c0		 xor	 al, al
  00030	5f		 pop	 edi

; 244  : }

  00031	c3		 ret	 0
?iwm_esc@TimeGateSearchShuffle@@UAE_NXZ ENDP		; TimeGateSearchShuffle::iwm_esc
_TEXT	ENDS
PUBLIC	?iwm_command@TimeGateSearchShuffle@@UAEXPAVioWnd@@HK@Z ; TimeGateSearchShuffle::iwm_command
EXTRN	__imp_?GetID@ioWnd@@QBEKXZ:PROC
; Function compile flags: /Ogsp
;	COMDAT ?iwm_command@TimeGateSearchShuffle@@UAEXPAVioWnd@@HK@Z
_TEXT	SEGMENT
_pWnd$ = 8						; size = 4
_cmd$ = 12						; size = 4
_param$ = 16						; size = 4
?iwm_command@TimeGateSearchShuffle@@UAEXPAVioWnd@@HK@Z PROC ; TimeGateSearchShuffle::iwm_command, COMDAT
; _this$ = ecx

; 247  : {

  00000	55		 push	 ebp
  00001	8b ec		 mov	 ebp, esp
  00003	56		 push	 esi
  00004	8b f1		 mov	 esi, ecx

; 248  : 	DWORD dwID = pWnd->GetID();

  00006	8b 4d 08	 mov	 ecx, DWORD PTR _pWnd$[ebp]
  00009	ff 15 00 00 00
	00		 call	 DWORD PTR __imp_?GetID@ioWnd@@QBEKXZ

; 249  : 	
; 250  : 	switch( dwID )

  0000f	48		 dec	 eax
  00010	83 f8 01	 cmp	 eax, 1
  00013	77 15		 ja	 SHORT $LN1@iwm_comman

; 251  : 	{
; 252  : 	case ID_EXIT:
; 253  : 	case ID_CANCEL:
; 254  : 		if( cmd == IOBN_BTNUP )

  00015	83 7d 0c 11	 cmp	 DWORD PTR _cmd$[ebp], 17 ; 00000011H
  00019	75 0f		 jne	 SHORT $LN1@iwm_comman

; 255  : 		{
; 256  : 			SendCancel();

  0001b	8b ce		 mov	 ecx, esi
  0001d	e8 00 00 00 00	 call	 ?SendCancel@TimeGateSearchShuffle@@IAEXXZ ; TimeGateSearchShuffle::SendCancel

; 257  : 			HideWnd();

  00022	8b ce		 mov	 ecx, esi
  00024	ff 15 00 00 00
	00		 call	 DWORD PTR __imp_?HideWnd@ioWnd@@QAEXXZ
$LN1@iwm_comman:
  0002a	5e		 pop	 esi

; 258  : 		}
; 259  : 		break;
; 260  : 	}
; 261  : }

  0002b	5d		 pop	 ebp
  0002c	c2 0c 00	 ret	 12			; 0000000cH
?iwm_command@TimeGateSearchShuffle@@UAEXPAVioWnd@@HK@Z ENDP ; TimeGateSearchShuffle::iwm_command
_TEXT	ENDS
PUBLIC	?OnRender@TimeGateSearchShuffle@@MAEXXZ		; TimeGateSearchShuffle::OnRender
EXTRN	__imp_?GetDerivedPosY@ioWnd@@QBEHXZ:PROC
EXTRN	__imp_?GetDerivedPosX@ioWnd@@QBEHXZ:PROC
EXTRN	__imp_?OnRender@ioWnd@@MAEXXZ:PROC
; Function compile flags: /Ogsp
;	COMDAT ?OnRender@TimeGateSearchShuffle@@MAEXXZ
_TEXT	SEGMENT
_iYPos$ = -12						; size = 4
tv211 = -8						; size = 4
tv209 = -4						; size = 4
?OnRender@TimeGateSearchShuffle@@MAEXXZ PROC		; TimeGateSearchShuffle::OnRender, COMDAT
; _this$ = ecx

; 265  : {

  00000	55		 push	 ebp
  00001	8b ec		 mov	 ebp, esp
  00003	83 ec 0c	 sub	 esp, 12			; 0000000cH
  00006	53		 push	 ebx
  00007	56		 push	 esi
  00008	57		 push	 edi
  00009	8b f9		 mov	 edi, ecx

; 266  : 	ioWnd::OnRender();

  0000b	ff 15 00 00 00
	00		 call	 DWORD PTR __imp_?OnRender@ioWnd@@MAEXXZ

; 267  : 
; 268  : 	int iXPos = GetDerivedPosX();

  00011	8b cf		 mov	 ecx, edi
  00013	ff 15 00 00 00
	00		 call	 DWORD PTR __imp_?GetDerivedPosX@ioWnd@@QBEHXZ

; 269  : 	int iYPos = GetDerivedPosY();

  00019	8b cf		 mov	 ecx, edi
  0001b	8b d8		 mov	 ebx, eax
  0001d	ff 15 00 00 00
	00		 call	 DWORD PTR __imp_?GetDerivedPosY@ioWnd@@QBEHXZ

; 270  : 
; 271  : 	if( !m_pCurModeImage || !m_pCurProcessCircle || !m_pModeImageBack )

  00023	33 f6		 xor	 esi, esi
  00025	89 45 f4	 mov	 DWORD PTR _iYPos$[ebp], eax
  00028	39 b7 80 01 00
	00		 cmp	 DWORD PTR [edi+384], esi
  0002e	0f 84 af 00 00
	00		 je	 $LN1@OnRender
  00034	39 b7 7c 01 00
	00		 cmp	 DWORD PTR [edi+380], esi
  0003a	0f 84 a3 00 00
	00		 je	 $LN1@OnRender
  00040	39 b7 68 01 00
	00		 cmp	 DWORD PTR [edi+360], esi
  00046	0f 84 97 00 00
	00		 je	 $LN1@OnRender

; 272  : 		return;
; 273  : 
; 274  : 	m_pModeImageBack->Render( iXPos + 151, iYPos + 199, UI_RENDER_MULTIPLY );

  0004c	8b 8f 68 01 00
	00		 mov	 ecx, DWORD PTR [edi+360]
  00052	56		 push	 esi
  00053	56		 push	 esi
  00054	56		 push	 esi
  00055	05 c7 00 00 00	 add	 eax, 199		; 000000c7H
  0005a	6a 08		 push	 8
  0005c	0f 57 c0	 xorps	 xmm0, xmm0
  0005f	f3 0f 2a c0	 cvtsi2ss xmm0, eax
  00063	51		 push	 ecx
  00064	8d 83 97 00 00
	00		 lea	 eax, DWORD PTR [ebx+151]
  0006a	51		 push	 ecx
  0006b	0f 57 c9	 xorps	 xmm1, xmm1
  0006e	f3 0f 2a c8	 cvtsi2ss xmm1, eax
  00072	8b 01		 mov	 eax, DWORD PTR [ecx]
  00074	f3 0f 11 44 24
	04		 movss	 DWORD PTR [esp+4], xmm0
  0007a	f3 0f 11 45 fc	 movss	 DWORD PTR tv209[ebp], xmm0
  0007f	f3 0f 11 4d f8	 movss	 DWORD PTR tv211[ebp], xmm1
  00084	f3 0f 11 0c 24	 movss	 DWORD PTR [esp], xmm1
  00089	ff 10		 call	 DWORD PTR [eax]

; 275  : 	m_pCurModeImage->Render( iXPos + 151, iYPos + 199 );

  0008b	8b 8f 80 01 00
	00		 mov	 ecx, DWORD PTR [edi+384]
  00091	f3 0f 10 45 fc	 movss	 xmm0, DWORD PTR tv209[ebp]
  00096	8b 01		 mov	 eax, DWORD PTR [ecx]
  00098	56		 push	 esi
  00099	56		 push	 esi
  0009a	56		 push	 esi
  0009b	56		 push	 esi
  0009c	51		 push	 ecx
  0009d	51		 push	 ecx
  0009e	f3 0f 11 44 24
	04		 movss	 DWORD PTR [esp+4], xmm0
  000a4	f3 0f 10 45 f8	 movss	 xmm0, DWORD PTR tv211[ebp]
  000a9	f3 0f 11 04 24	 movss	 DWORD PTR [esp], xmm0
  000ae	ff 10		 call	 DWORD PTR [eax]

; 276  : 	m_pCurProcessCircle->Render( iXPos + 71, iYPos + 119, UI_RENDER_MULTIPLY );

  000b0	8b 8f 7c 01 00
	00		 mov	 ecx, DWORD PTR [edi+380]
  000b6	8b 55 f4	 mov	 edx, DWORD PTR _iYPos$[ebp]
  000b9	8b 01		 mov	 eax, DWORD PTR [ecx]
  000bb	56		 push	 esi
  000bc	56		 push	 esi
  000bd	56		 push	 esi
  000be	6a 08		 push	 8
  000c0	0f 57 c0	 xorps	 xmm0, xmm0
  000c3	51		 push	 ecx
  000c4	83 c2 77	 add	 edx, 119		; 00000077H
  000c7	f3 0f 2a c2	 cvtsi2ss xmm0, edx
  000cb	51		 push	 ecx
  000cc	f3 0f 11 44 24
	04		 movss	 DWORD PTR [esp+4], xmm0
  000d2	83 c3 47	 add	 ebx, 71			; 00000047H
  000d5	0f 57 c0	 xorps	 xmm0, xmm0
  000d8	f3 0f 2a c3	 cvtsi2ss xmm0, ebx
  000dc	f3 0f 11 04 24	 movss	 DWORD PTR [esp], xmm0
  000e1	ff 10		 call	 DWORD PTR [eax]
$LN1@OnRender:
  000e3	5f		 pop	 edi
  000e4	5e		 pop	 esi
  000e5	5b		 pop	 ebx

; 277  : }

  000e6	c9		 leave
  000e7	c3		 ret	 0
?OnRender@TimeGateSearchShuffle@@MAEXXZ ENDP		; TimeGateSearchShuffle::OnRender
_TEXT	ENDS
PUBLIC	??_7TimeGateSearchShuffleResult@@6B@		; TimeGateSearchShuffleResult::`vftable'
PUBLIC	??0TimeGateSearchShuffleResult@@QAE@XZ		; TimeGateSearchShuffleResult::TimeGateSearchShuffleResult
PUBLIC	??_R4TimeGateSearchShuffleResult@@6B@		; TimeGateSearchShuffleResult::`RTTI Complete Object Locator'
PUBLIC	??_R0?AVTimeGateSearchShuffleResult@@@8		; TimeGateSearchShuffleResult `RTTI Type Descriptor'
PUBLIC	??_R3TimeGateSearchShuffleResult@@8		; TimeGateSearchShuffleResult::`RTTI Class Hierarchy Descriptor'
PUBLIC	??_R2TimeGateSearchShuffleResult@@8		; TimeGateSearchShuffleResult::`RTTI Base Class Array'
PUBLIC	??_R1A@?0A@EA@TimeGateSearchShuffleResult@@8	; TimeGateSearchShuffleResult::`RTTI Base Class Descriptor at (0,-1,0,64)'
PUBLIC	??_R1A@?0A@EA@ioWnd@@8				; ioWnd::`RTTI Base Class Descriptor at (0,-1,0,64)'
PUBLIC	??_R0?AVioWnd@@@8				; ioWnd `RTTI Type Descriptor'
PUBLIC	??_R3ioWnd@@8					; ioWnd::`RTTI Class Hierarchy Descriptor'
PUBLIC	??_R2ioWnd@@8					; ioWnd::`RTTI Base Class Array'
PUBLIC	?iwm_command@TimeGateSearchShuffleResult@@UAEXPAVioWnd@@HK@Z ; TimeGateSearchShuffleResult::iwm_command
PUBLIC	?iwm_show@TimeGateSearchShuffleResult@@UAEXXZ	; TimeGateSearchShuffleResult::iwm_show
PUBLIC	?iwm_spacebar@TimeGateSearchShuffleResult@@UAE_NXZ ; TimeGateSearchShuffleResult::iwm_spacebar
EXTRN	__imp_??0ioWnd@@QAE@XZ:PROC
EXTRN	??_7type_info@@6B@:QWORD			; type_info::`vftable'
EXTRN	?AddRenderFrame@ioWnd@@UAEXABVioHashString@@PAVioUIRenderFrame@@@Z:PROC ; ioWnd::AddRenderFrame
EXTRN	?AddRenderImage@ioWnd@@UAEXABVioHashString@@PAVioUIRenderImage@@@Z:PROC ; ioWnd::AddRenderImage
EXTRN	?AddTooltipHelp@ioWnd@@UAEXABVioHashString@@00@Z:PROC ; ioWnd::AddTooltipHelp
EXTRN	?ParseExtraInfo@ioWnd@@UAEXAAVioXMLElement@@@Z:PROC ; ioWnd::ParseExtraInfo
EXTRN	?AddNamedRenderImage@ioWnd@@UAEXABVioHashString@@PAVioUIRenderImage@@@Z:PROC ; ioWnd::AddNamedRenderImage
EXTRN	?RemoveNamedRenderImage@ioWnd@@UAEXABVioHashString@@@Z:PROC ; ioWnd::RemoveNamedRenderImage
EXTRN	?GetNamedRenderImage@ioWnd@@UBEPAVioUIRenderImage@@ABVioHashString@@@Z:PROC ; ioWnd::GetNamedRenderImage
EXTRN	?SetWindowAlpha@ioWnd@@UAEXH@Z:PROC		; ioWnd::SetWindowAlpha
EXTRN	?SetActive@ioWnd@@UAEXXZ:PROC			; ioWnd::SetActive
EXTRN	?SetInActive@ioWnd@@UAEXXZ:PROC			; ioWnd::SetInActive
EXTRN	?ClearElementImageList@ioWnd@@UAEXXZ:PROC	; ioWnd::ClearElementImageList
EXTRN	?SetSize@ioWnd@@UAEXHH@Z:PROC			; ioWnd::SetSize
EXTRN	?SetPositionToDefault@ioWnd@@UAEXHH_N0@Z:PROC	; ioWnd::SetPositionToDefault
EXTRN	?IsNeedProcess@ioWnd@@UBE_NXZ:PROC		; ioWnd::IsNeedProcess
EXTRN	?IsCanMouseReaction@ioWnd@@UBE_NXZ:PROC		; ioWnd::IsCanMouseReaction
EXTRN	?AddChild@ioWnd@@UAEXPAV1@@Z:PROC		; ioWnd::AddChild
EXTRN	?DeleteChild@ioWnd@@UAEXK@Z:PROC		; ioWnd::DeleteChild
EXTRN	?DeleteAllChild@ioWnd@@UAEXXZ:PROC		; ioWnd::DeleteAllChild
EXTRN	?OnRenderShowAndHide@ioWnd@@MAE_NXZ:PROC	; ioWnd::OnRenderShowAndHide
EXTRN	?OnRenderShowAndHideByDefault@ioWnd@@MAE_NK@Z:PROC ; ioWnd::OnRenderShowAndHideByDefault
EXTRN	?OnRenderShowAndHideByTop@ioWnd@@MAE_NK@Z:PROC	; ioWnd::OnRenderShowAndHideByTop
EXTRN	?OnRenderShowAndHideByDown@ioWnd@@MAE_NK@Z:PROC	; ioWnd::OnRenderShowAndHideByDown
EXTRN	?OnRender@ioWnd@@MAEXXZ:PROC			; ioWnd::OnRender
EXTRN	?OnRenderAfterChild@ioWnd@@MAEXXZ:PROC		; ioWnd::OnRenderAfterChild
EXTRN	?OnProcess@ioWnd@@MAEXM@Z:PROC			; ioWnd::OnProcess
EXTRN	?OnMouseProcess@ioWnd@@MAEXABVioMouse@@@Z:PROC	; ioWnd::OnMouseProcess
EXTRN	?CheckFrameReSize@ioWnd@@MAEXHHHH@Z:PROC	; ioWnd::CheckFrameReSize
EXTRN	?RenderImageList@ioWnd@@MAEXHHW4UIRenderType@@@Z:PROC ; ioWnd::RenderImageList
EXTRN	?iwm_create@ioWnd@@UAEXXZ:PROC			; ioWnd::iwm_create
EXTRN	?iwm_destroy@ioWnd@@UAEXXZ:PROC			; ioWnd::iwm_destroy
EXTRN	?iwm_lbuttondown@ioWnd@@UAEXABVioMouse@@@Z:PROC	; ioWnd::iwm_lbuttondown
EXTRN	?iwm_lbuttonup@ioWnd@@UAEXABVioMouse@@@Z:PROC	; ioWnd::iwm_lbuttonup
EXTRN	?iwm_lbuttonDBLCLK@ioWnd@@UAEXABVioMouse@@@Z:PROC ; ioWnd::iwm_lbuttonDBLCLK
EXTRN	?iwm_rbuttondown@ioWnd@@UAEXABVioMouse@@@Z:PROC	; ioWnd::iwm_rbuttondown
EXTRN	?iwm_rbuttonup@ioWnd@@UAEXABVioMouse@@@Z:PROC	; ioWnd::iwm_rbuttonup
EXTRN	?iwm_mouseover@ioWnd@@UAEXABVioMouse@@@Z:PROC	; ioWnd::iwm_mouseover
EXTRN	?iwm_mousemove@ioWnd@@UAEXABVioMouse@@@Z:PROC	; ioWnd::iwm_mousemove
EXTRN	?iwm_mouseleave@ioWnd@@UAEXABVioMouse@@@Z:PROC	; ioWnd::iwm_mouseleave
EXTRN	?iwm_vscroll@ioWnd@@UAEXKH@Z:PROC		; ioWnd::iwm_vscroll
EXTRN	?iwm_wheel@ioWnd@@UAEXH@Z:PROC			; ioWnd::iwm_wheel
EXTRN	?iwm_hide@ioWnd@@UAEXXZ:PROC			; ioWnd::iwm_hide
EXTRN	?iwm_esc@ioWnd@@UAE_NXZ:PROC			; ioWnd::iwm_esc
EXTRN	?iwm_gototop@ioWnd@@UAEXXZ:PROC			; ioWnd::iwm_gototop
EXTRN	?iwm_dragenter@ioWnd@@UAE?AW4IWDropEffect@@PAVioDragItem@@ABVioMouse@@@Z:PROC ; ioWnd::iwm_dragenter
EXTRN	?iwm_dragover@ioWnd@@UAE?AW4IWDropEffect@@PAVioDragItem@@ABVioMouse@@@Z:PROC ; ioWnd::iwm_dragover
EXTRN	?iwm_dragleave@ioWnd@@UAEXXZ:PROC		; ioWnd::iwm_dragleave
EXTRN	?iwm_dropitem@ioWnd@@UAE_NPAVioDragItem@@ABVioMouse@@PAV1@@Z:PROC ; ioWnd::iwm_dropitem
EXTRN	?iwm_dropdone@ioWnd@@UAEXPAVioDragItem@@PAV1@_N@Z:PROC ; ioWnd::iwm_dropdone
EXTRN	?IsEXType@ioWnd@@UBE_NXZ:PROC			; ioWnd::IsEXType
EXTRN	?GetWndType@ioWnd@@UBEKXZ:PROC			; ioWnd::GetWndType
EXTRN	?RenderWnd@ioWnd@@UAEXXZ:PROC			; ioWnd::RenderWnd
EXTRN	?SetIDEX@ioWnd@@UAEXAAK_N@Z:PROC		; ioWnd::SetIDEX
EXTRN	?ParseXML@ioWnd@@UAEXAAVioXMLElement@@@Z:PROC	; ioWnd::ParseXML
EXTRN	?GetHeaderFileName@ioWnd@@UAEPBDXZ:PROC		; ioWnd::GetHeaderFileName
EXTRN	?GetTemplateName@ioWnd@@UAEPBDXZ:PROC		; ioWnd::GetTemplateName
EXTRN	?GetDefClassName@ioWnd@@UBEPBDXZ:PROC		; ioWnd::GetDefClassName
EXTRN	?_Clone@ioWnd@@UAEPAV1@XZ:PROC			; ioWnd::_Clone
EXTRN	?Copy@ioWnd@@UAEXPAV1@@Z:PROC			; ioWnd::Copy
EXTRN	?Save@ioWnd@@UAE_NAAVioXMLElement@@@Z:PROC	; ioWnd::Save
EXTRN	?SetSaveData@ioWnd@@UAEXAAVioXMLElement@@@Z:PROC ; ioWnd::SetSaveData
EXTRN	?SetPosX@ioWnd@@UAEXH@Z:PROC			; ioWnd::SetPosX
EXTRN	?SetPosY@ioWnd@@UAEXH@Z:PROC			; ioWnd::SetPosY
EXTRN	?SetWidth@ioWnd@@UAEXH@Z:PROC			; ioWnd::SetWidth
EXTRN	?SetHeight@ioWnd@@UAEXH@Z:PROC			; ioWnd::SetHeight
EXTRN	?GetNumFixedRenderFrame@ioWnd@@UBEHXZ:PROC	; ioWnd::GetNumFixedRenderFrame
EXTRN	?GetFixedRenderFrameType@ioWnd@@UAEPBDH@Z:PROC	; ioWnd::GetFixedRenderFrameType
EXTRN	?GetRenderFrame@ioWnd@@UAEPAPAVioUIRenderElement@@PBD@Z:PROC ; ioWnd::GetRenderFrame
EXTRN	?GetNumFixedRenderImage@ioWnd@@UBEHXZ:PROC	; ioWnd::GetNumFixedRenderImage
EXTRN	?GetFixedRenderImageType@ioWnd@@UAEPBDH@Z:PROC	; ioWnd::GetFixedRenderImageType
EXTRN	?GetRenderImage@ioWnd@@UAEPAPAVioUIRenderElement@@PBD@Z:PROC ; ioWnd::GetRenderImage
EXTRN	?AddEffect@ioWnd@@UAEXABVioHashString@@PAVioUI3DEffectRender@@@Z:PROC ; ioWnd::AddEffect
EXTRN	?GetEffect@ioWnd@@UAEPAVioUI3DEffectRender@@VioHashString@@@Z:PROC ; ioWnd::GetEffect
EXTRN	??_ETimeGateSearchShuffleResult@@UAEPAXI@Z:PROC	; TimeGateSearchShuffleResult::`vector deleting destructor'
;	COMDAT ??_R2ioWnd@@8
rdata$r	SEGMENT
??_R2ioWnd@@8 DD FLAT:??_R1A@?0A@EA@ioWnd@@8		; ioWnd::`RTTI Base Class Array'
rdata$r	ENDS
;	COMDAT ??_R3ioWnd@@8
rdata$r	SEGMENT
??_R3ioWnd@@8 DD 00H					; ioWnd::`RTTI Class Hierarchy Descriptor'
	DD	00H
	DD	01H
	DD	FLAT:??_R2ioWnd@@8
rdata$r	ENDS
;	COMDAT ??_R0?AVioWnd@@@8
_DATA	SEGMENT
??_R0?AVioWnd@@@8 DD FLAT:??_7type_info@@6B@		; ioWnd `RTTI Type Descriptor'
	DD	00H
	DB	'.?AVioWnd@@', 00H
_DATA	ENDS
;	COMDAT ??_R1A@?0A@EA@ioWnd@@8
rdata$r	SEGMENT
??_R1A@?0A@EA@ioWnd@@8 DD FLAT:??_R0?AVioWnd@@@8	; ioWnd::`RTTI Base Class Descriptor at (0,-1,0,64)'
	DD	00H
	DD	00H
	DD	0ffffffffH
	DD	00H
	DD	040H
	DD	FLAT:??_R3ioWnd@@8
rdata$r	ENDS
;	COMDAT ??_R1A@?0A@EA@TimeGateSearchShuffleResult@@8
rdata$r	SEGMENT
??_R1A@?0A@EA@TimeGateSearchShuffleResult@@8 DD FLAT:??_R0?AVTimeGateSearchShuffleResult@@@8 ; TimeGateSearchShuffleResult::`RTTI Base Class Descriptor at (0,-1,0,64)'
	DD	01H
	DD	00H
	DD	0ffffffffH
	DD	00H
	DD	040H
	DD	FLAT:??_R3TimeGateSearchShuffleResult@@8
rdata$r	ENDS
;	COMDAT ??_R2TimeGateSearchShuffleResult@@8
rdata$r	SEGMENT
??_R2TimeGateSearchShuffleResult@@8 DD FLAT:??_R1A@?0A@EA@TimeGateSearchShuffleResult@@8 ; TimeGateSearchShuffleResult::`RTTI Base Class Array'
	DD	FLAT:??_R1A@?0A@EA@ioWnd@@8
rdata$r	ENDS
;	COMDAT ??_R3TimeGateSearchShuffleResult@@8
rdata$r	SEGMENT
??_R3TimeGateSearchShuffleResult@@8 DD 00H		; TimeGateSearchShuffleResult::`RTTI Class Hierarchy Descriptor'
	DD	00H
	DD	02H
	DD	FLAT:??_R2TimeGateSearchShuffleResult@@8
rdata$r	ENDS
;	COMDAT ??_R0?AVTimeGateSearchShuffleResult@@@8
_DATA	SEGMENT
??_R0?AVTimeGateSearchShuffleResult@@@8 DD FLAT:??_7type_info@@6B@ ; TimeGateSearchShuffleResult `RTTI Type Descriptor'
	DD	00H
	DB	'.?AVTimeGateSearchShuffleResult@@', 00H
_DATA	ENDS
;	COMDAT ??_R4TimeGateSearchShuffleResult@@6B@
rdata$r	SEGMENT
??_R4TimeGateSearchShuffleResult@@6B@ DD 00H		; TimeGateSearchShuffleResult::`RTTI Complete Object Locator'
	DD	00H
	DD	00H
	DD	FLAT:??_R0?AVTimeGateSearchShuffleResult@@@8
	DD	FLAT:??_R3TimeGateSearchShuffleResult@@8
rdata$r	ENDS
;	COMDAT ??_7TimeGateSearchShuffleResult@@6B@
CONST	SEGMENT
??_7TimeGateSearchShuffleResult@@6B@ DD FLAT:??_R4TimeGateSearchShuffleResult@@6B@ ; TimeGateSearchShuffleResult::`vftable'
	DD	FLAT:?AddRenderFrame@ioWnd@@UAEXABVioHashString@@PAVioUIRenderFrame@@@Z
	DD	FLAT:?AddRenderImage@ioWnd@@UAEXABVioHashString@@PAVioUIRenderImage@@@Z
	DD	FLAT:?AddTooltipHelp@ioWnd@@UAEXABVioHashString@@00@Z
	DD	FLAT:?ParseExtraInfo@ioWnd@@UAEXAAVioXMLElement@@@Z
	DD	FLAT:?AddNamedRenderImage@ioWnd@@UAEXABVioHashString@@PAVioUIRenderImage@@@Z
	DD	FLAT:?RemoveNamedRenderImage@ioWnd@@UAEXABVioHashString@@@Z
	DD	FLAT:?GetNamedRenderImage@ioWnd@@UBEPAVioUIRenderImage@@ABVioHashString@@@Z
	DD	FLAT:?SetWindowAlpha@ioWnd@@UAEXH@Z
	DD	FLAT:?SetActive@ioWnd@@UAEXXZ
	DD	FLAT:?SetInActive@ioWnd@@UAEXXZ
	DD	FLAT:?ClearElementImageList@ioWnd@@UAEXXZ
	DD	FLAT:?SetSize@ioWnd@@UAEXHH@Z
	DD	FLAT:?SetPositionToDefault@ioWnd@@UAEXHH_N0@Z
	DD	FLAT:?IsNeedProcess@ioWnd@@UBE_NXZ
	DD	FLAT:?IsCanMouseReaction@ioWnd@@UBE_NXZ
	DD	FLAT:?AddChild@ioWnd@@UAEXPAV1@@Z
	DD	FLAT:?DeleteChild@ioWnd@@UAEXK@Z
	DD	FLAT:?DeleteAllChild@ioWnd@@UAEXXZ
	DD	FLAT:?OnRenderShowAndHide@ioWnd@@MAE_NXZ
	DD	FLAT:?OnRenderShowAndHideByDefault@ioWnd@@MAE_NK@Z
	DD	FLAT:?OnRenderShowAndHideByTop@ioWnd@@MAE_NK@Z
	DD	FLAT:?OnRenderShowAndHideByDown@ioWnd@@MAE_NK@Z
	DD	FLAT:?OnRender@ioWnd@@MAEXXZ
	DD	FLAT:?OnRenderAfterChild@ioWnd@@MAEXXZ
	DD	FLAT:?OnProcess@ioWnd@@MAEXM@Z
	DD	FLAT:?OnMouseProcess@ioWnd@@MAEXABVioMouse@@@Z
	DD	FLAT:?CheckFrameReSize@ioWnd@@MAEXHHHH@Z
	DD	FLAT:?RenderImageList@ioWnd@@MAEXHHW4UIRenderType@@@Z
	DD	FLAT:?iwm_create@ioWnd@@UAEXXZ
	DD	FLAT:?iwm_destroy@ioWnd@@UAEXXZ
	DD	FLAT:?iwm_lbuttondown@ioWnd@@UAEXABVioMouse@@@Z
	DD	FLAT:?iwm_lbuttonup@ioWnd@@UAEXABVioMouse@@@Z
	DD	FLAT:?iwm_lbuttonDBLCLK@ioWnd@@UAEXABVioMouse@@@Z
	DD	FLAT:?iwm_rbuttondown@ioWnd@@UAEXABVioMouse@@@Z
	DD	FLAT:?iwm_rbuttonup@ioWnd@@UAEXABVioMouse@@@Z
	DD	FLAT:?iwm_command@TimeGateSearchShuffleResult@@UAEXPAVioWnd@@HK@Z
	DD	FLAT:?iwm_mouseover@ioWnd@@UAEXABVioMouse@@@Z
	DD	FLAT:?iwm_mousemove@ioWnd@@UAEXABVioMouse@@@Z
	DD	FLAT:?iwm_mouseleave@ioWnd@@UAEXABVioMouse@@@Z
	DD	FLAT:?iwm_vscroll@ioWnd@@UAEXKH@Z
	DD	FLAT:?iwm_wheel@ioWnd@@UAEXH@Z
	DD	FLAT:?iwm_show@TimeGateSearchShuffleResult@@UAEXXZ
	DD	FLAT:?iwm_hide@ioWnd@@UAEXXZ
	DD	FLAT:?iwm_esc@ioWnd@@UAE_NXZ
	DD	FLAT:?iwm_spacebar@TimeGateSearchShuffleResult@@UAE_NXZ
	DD	FLAT:?iwm_gototop@ioWnd@@UAEXXZ
	DD	FLAT:?iwm_dragenter@ioWnd@@UAE?AW4IWDropEffect@@PAVioDragItem@@ABVioMouse@@@Z
	DD	FLAT:?iwm_dragover@ioWnd@@UAE?AW4IWDropEffect@@PAVioDragItem@@ABVioMouse@@@Z
	DD	FLAT:?iwm_dragleave@ioWnd@@UAEXXZ
	DD	FLAT:?iwm_dropitem@ioWnd@@UAE_NPAVioDragItem@@ABVioMouse@@PAV1@@Z
	DD	FLAT:?iwm_dropdone@ioWnd@@UAEXPAVioDragItem@@PAV1@_N@Z
	DD	FLAT:?IsEXType@ioWnd@@UBE_NXZ
	DD	FLAT:?GetWndType@ioWnd@@UBEKXZ
	DD	FLAT:?RenderWnd@ioWnd@@UAEXXZ
	DD	FLAT:?SetIDEX@ioWnd@@UAEXAAK_N@Z
	DD	FLAT:?ParseXML@ioWnd@@UAEXAAVioXMLElement@@@Z
	DD	FLAT:?GetHeaderFileName@ioWnd@@UAEPBDXZ
	DD	FLAT:?GetTemplateName@ioWnd@@UAEPBDXZ
	DD	FLAT:?GetDefClassName@ioWnd@@UBEPBDXZ
	DD	FLAT:?_Clone@ioWnd@@UAEPAV1@XZ
	DD	FLAT:?Copy@ioWnd@@UAEXPAV1@@Z
	DD	FLAT:?Save@ioWnd@@UAE_NAAVioXMLElement@@@Z
	DD	FLAT:?SetSaveData@ioWnd@@UAEXAAVioXMLElement@@@Z
	DD	FLAT:?SetPosX@ioWnd@@UAEXH@Z
	DD	FLAT:?SetPosY@ioWnd@@UAEXH@Z
	DD	FLAT:?SetWidth@ioWnd@@UAEXH@Z
	DD	FLAT:?SetHeight@ioWnd@@UAEXH@Z
	DD	FLAT:?GetNumFixedRenderFrame@ioWnd@@UBEHXZ
	DD	FLAT:?GetFixedRenderFrameType@ioWnd@@UAEPBDH@Z
	DD	FLAT:?GetRenderFrame@ioWnd@@UAEPAPAVioUIRenderElement@@PBD@Z
	DD	FLAT:?GetNumFixedRenderImage@ioWnd@@UBEHXZ
	DD	FLAT:?GetFixedRenderImageType@ioWnd@@UAEPBDH@Z
	DD	FLAT:?GetRenderImage@ioWnd@@UAEPAPAVioUIRenderElement@@PBD@Z
	DD	FLAT:?AddEffect@ioWnd@@UAEXABVioHashString@@PAVioUI3DEffectRender@@@Z
	DD	FLAT:?GetEffect@ioWnd@@UAEPAVioUI3DEffectRender@@VioHashString@@@Z
	DD	FLAT:??_ETimeGateSearchShuffleResult@@UAEPAXI@Z
; Function compile flags: /Ogsp
CONST	ENDS
;	COMDAT ??0TimeGateSearchShuffleResult@@QAE@XZ
_TEXT	SEGMENT
??0TimeGateSearchShuffleResult@@QAE@XZ PROC		; TimeGateSearchShuffleResult::TimeGateSearchShuffleResult, COMDAT
; _this$ = ecx

; 281  : {

  00000	56		 push	 esi
  00001	8b f1		 mov	 esi, ecx
  00003	ff 15 00 00 00
	00		 call	 DWORD PTR __imp_??0ioWnd@@QAE@XZ
  00009	c7 06 00 00 00
	00		 mov	 DWORD PTR [esi], OFFSET ??_7TimeGateSearchShuffleResult@@6B@

; 282  : 
; 283  : }

  0000f	8b c6		 mov	 eax, esi
  00011	5e		 pop	 esi
  00012	c3		 ret	 0
??0TimeGateSearchShuffleResult@@QAE@XZ ENDP		; TimeGateSearchShuffleResult::TimeGateSearchShuffleResult
_TEXT	ENDS
PUBLIC	??1TimeGateSearchShuffleResult@@UAE@XZ		; TimeGateSearchShuffleResult::~TimeGateSearchShuffleResult
EXTRN	__imp_??1ioWnd@@UAE@XZ:PROC
; Function compile flags: /Ogsp
;	COMDAT ??1TimeGateSearchShuffleResult@@UAE@XZ
_TEXT	SEGMENT
??1TimeGateSearchShuffleResult@@UAE@XZ PROC		; TimeGateSearchShuffleResult::~TimeGateSearchShuffleResult, COMDAT
; _this$ = ecx

; 286  : {

  00000	c7 01 00 00 00
	00		 mov	 DWORD PTR [ecx], OFFSET ??_7TimeGateSearchShuffleResult@@6B@

; 287  : 
; 288  : }

  00006	ff 25 00 00 00
	00		 jmp	 DWORD PTR __imp_??1ioWnd@@UAE@XZ
??1TimeGateSearchShuffleResult@@UAE@XZ ENDP		; TimeGateSearchShuffleResult::~TimeGateSearchShuffleResult
; Function compile flags: /Ogsp
_TEXT	ENDS
;	COMDAT ?iwm_spacebar@TimeGateSearchShuffleResult@@UAE_NXZ
_TEXT	SEGMENT
?iwm_spacebar@TimeGateSearchShuffleResult@@UAE_NXZ PROC	; TimeGateSearchShuffleResult::iwm_spacebar, COMDAT
; _this$ = ecx

; 291  : {

  00000	56		 push	 esi
  00001	57		 push	 edi

; 292  : 	ioWnd *pBtn = FindChildWnd( ID_RESEARCH );

  00002	6a 02		 push	 2
  00004	8b f1		 mov	 esi, ecx
  00006	ff 15 00 00 00
	00		 call	 DWORD PTR __imp_?FindChildWnd@ioWnd@@QAEPAV1@K@Z
  0000c	8b f8		 mov	 edi, eax

; 293  : 	if( !pBtn ) return false;

  0000e	85 ff		 test	 edi, edi
  00010	75 04		 jne	 SHORT $LN2@iwm_spaceb
$LN5@iwm_spaceb:
  00012	32 c0		 xor	 al, al
  00014	eb 1d		 jmp	 SHORT $LN3@iwm_spaceb
$LN2@iwm_spaceb:

; 294  : 	if( !pBtn->IsShow() ) return false;

  00016	8b cf		 mov	 ecx, edi
  00018	ff 15 00 00 00
	00		 call	 DWORD PTR __imp_?IsShow@ioWnd@@QBE_NXZ
  0001e	84 c0		 test	 al, al
  00020	74 f0		 je	 SHORT $LN5@iwm_spaceb

; 295  : 
; 296  : 	iwm_command( pBtn, IOBN_BTNUP, 0 );

  00022	8b 06		 mov	 eax, DWORD PTR [esi]
  00024	6a 00		 push	 0
  00026	6a 11		 push	 17			; 00000011H
  00028	57		 push	 edi
  00029	8b ce		 mov	 ecx, esi
  0002b	ff 90 8c 00 00
	00		 call	 DWORD PTR [eax+140]

; 297  : 	return true;

  00031	b0 01		 mov	 al, 1
$LN3@iwm_spaceb:

; 298  : }

  00033	5f		 pop	 edi
  00034	5e		 pop	 esi
  00035	c3		 ret	 0
?iwm_spacebar@TimeGateSearchShuffleResult@@UAE_NXZ ENDP	; TimeGateSearchShuffleResult::iwm_spacebar
_TEXT	ENDS
EXTRN	__imp_?FindWnd@ioGUIManager@@QAEPAVioWnd@@K@Z:PROC
; Function compile flags: /Ogsp
;	COMDAT ?iwm_command@TimeGateSearchShuffleResult@@UAEXPAVioWnd@@HK@Z
_TEXT	SEGMENT
_pWnd$ = 8						; size = 4
_cmd$ = 12						; size = 4
_param$ = 16						; size = 4
?iwm_command@TimeGateSearchShuffleResult@@UAEXPAVioWnd@@HK@Z PROC ; TimeGateSearchShuffleResult::iwm_command, COMDAT
; _this$ = ecx

; 301  : {

  00000	55		 push	 ebp
  00001	8b ec		 mov	 ebp, esp
  00003	56		 push	 esi
  00004	8b f1		 mov	 esi, ecx

; 302  : 	DWORD dwID = pWnd->GetID();

  00006	8b 4d 08	 mov	 ecx, DWORD PTR _pWnd$[ebp]
  00009	ff 15 00 00 00
	00		 call	 DWORD PTR __imp_?GetID@ioWnd@@QBEKXZ

; 303  : 	switch( dwID )

  0000f	48		 dec	 eax
  00010	74 06		 je	 SHORT $LN5@iwm_comman@2
  00012	48		 dec	 eax
  00013	74 16		 je	 SHORT $LN3@iwm_comman@2
  00015	48		 dec	 eax
  00016	75 0e		 jne	 SHORT $LN4@iwm_comman@2
$LN5@iwm_comman@2:

; 304  : 	{
; 305  : 	case ID_EXIT:
; 306  : 	case ID_CLOSE:
; 307  : 		if( cmd == IOBN_BTNUP )

  00018	83 7d 0c 11	 cmp	 DWORD PTR _cmd$[ebp], 17 ; 00000011H
  0001c	75 08		 jne	 SHORT $LN4@iwm_comman@2

; 308  : 			HideWnd();

  0001e	8b ce		 mov	 ecx, esi
  00020	ff 15 00 00 00
	00		 call	 DWORD PTR __imp_?HideWnd@ioWnd@@QAEXXZ
$LN4@iwm_comman@2:
  00026	5e		 pop	 esi

; 321  : 	}
; 322  : }

  00027	5d		 pop	 ebp
  00028	c2 0c 00	 ret	 12			; 0000000cH
$LN3@iwm_comman@2:

; 309  : 		break;
; 310  : 	case ID_RESEARCH:
; 311  : 		if( cmd == IOBN_BTNUP )

  0002b	83 7d 0c 11	 cmp	 DWORD PTR _cmd$[ebp], 17 ; 00000011H
  0002f	75 f5		 jne	 SHORT $LN4@iwm_comman@2

; 312  : 		{
; 313  : 			HideWnd();

  00031	8b ce		 mov	 ecx, esi
  00033	ff 15 00 00 00
	00		 call	 DWORD PTR __imp_?HideWnd@ioWnd@@QAEXXZ

; 314  : 			TimeGateSearchShuffle *pSearchWnd = (TimeGateSearchShuffle*)( g_GUIMgr.FindWnd( TIMEGATE_SEARCH_SHUFFLE ) );

  00039	68 25 27 00 00	 push	 10021			; 00002725H
  0003e	e8 00 00 00 00	 call	 ?GetSingleton@ioSP2GUIManager@@SAAAV1@XZ ; ioSP2GUIManager::GetSingleton
  00043	8b c8		 mov	 ecx, eax
  00045	ff 15 00 00 00
	00		 call	 DWORD PTR __imp_?FindWnd@ioGUIManager@@QAEPAVioWnd@@K@Z

; 315  : 			if( pSearchWnd )

  0004b	85 c0		 test	 eax, eax
  0004d	74 d7		 je	 SHORT $LN4@iwm_comman@2

; 316  : 			{
; 317  : 				pSearchWnd->SetSearching();

  0004f	8b c8		 mov	 ecx, eax
  00051	e8 00 00 00 00	 call	 ?SetSearching@TimeGateSearchShuffle@@QAEXXZ ; TimeGateSearchShuffle::SetSearching

; 318  : 			}
; 319  : 		}
; 320  : 		break;

  00056	eb ce		 jmp	 SHORT $LN4@iwm_comman@2
?iwm_command@TimeGateSearchShuffleResult@@UAEXPAVioWnd@@HK@Z ENDP ; TimeGateSearchShuffleResult::iwm_command
_TEXT	ENDS
PUBLIC	__$ArrayPad$
; Function compile flags: /Ogsp
;	COMDAT ?iwm_show@TimeGateSearchShuffleResult@@UAEXXZ
_TEXT	SEGMENT
_rkServerTime$ = -20					; size = 16
__$ArrayPad$ = -4					; size = 4
?iwm_show@TimeGateSearchShuffleResult@@UAEXXZ PROC	; TimeGateSearchShuffleResult::iwm_show, COMDAT
; _this$ = ecx

; 325  : {

  00000	55		 push	 ebp
  00001	8b ec		 mov	 ebp, esp
  00003	83 ec 14	 sub	 esp, 20			; 00000014H
  00006	a1 00 00 00 00	 mov	 eax, DWORD PTR ___security_cookie
  0000b	33 c5		 xor	 eax, ebp
  0000d	89 45 fc	 mov	 DWORD PTR __$ArrayPad$[ebp], eax
  00010	53		 push	 ebx
  00011	56		 push	 esi

; 326  : 	int iDayOfWeek = DEFAULT;
; 327  : #ifdef SHIPPING	
; 328  : 	SYSTEMTIME rkServerTime;
; 329  : 	g_MyInfo.GetServerTime( rkServerTime );	

  00012	8d 45 ec	 lea	 eax, DWORD PTR _rkServerTime$[ebp]
  00015	57		 push	 edi
  00016	50		 push	 eax
  00017	8b d9		 mov	 ebx, ecx
  00019	e8 00 00 00 00	 call	 ?GetSingleton@ioMyInfo@@SAAAV1@XZ ; ioMyInfo::GetSingleton
  0001e	8b c8		 mov	 ecx, eax
  00020	e8 00 00 00 00	 call	 ?GetServerTime@ioMyInfo@@QAEXAAU_SYSTEMTIME@@@Z ; ioMyInfo::GetServerTime

; 330  : 	iDayOfWeek = rkServerTime.wDayOfWeek;

  00025	0f b7 7d f0	 movzx	 edi, WORD PTR _rkServerTime$[ebp+4]

; 331  : #else
; 332  : 	SYSTEMTIME systime;
; 333  : 	GetSystemTime(&systime);
; 334  : 	iDayOfWeek = systime.wDayOfWeek;
; 335  : #endif
; 336  : 
; 337  : 	int i = 0;
; 338  : 	for( int iDay = SUN_; iDay <= DEFAULT; ++iDay, ++i )

  00029	6a 64		 push	 100			; 00000064H
  0002b	5e		 pop	 esi
$LL6@iwm_show@2:

; 339  : 	{
; 340  : 		ioRichLabel* pLabel = (ioRichLabel*)( FindChildWnd( iDay ) );

  0002c	56		 push	 esi
  0002d	8b cb		 mov	 ecx, ebx
  0002f	ff 15 00 00 00
	00		 call	 DWORD PTR __imp_?FindChildWnd@ioWnd@@QAEPAV1@K@Z
  00035	8b c8		 mov	 ecx, eax

; 341  : 		if( pLabel )

  00037	85 c9		 test	 ecx, ecx
  00039	74 15		 je	 SHORT $LN5@iwm_show@2

; 342  : 		{
; 343  : 			if( iDayOfWeek == i )

  0003b	8d 46 9c	 lea	 eax, DWORD PTR [esi-100]
  0003e	3b f8		 cmp	 edi, eax
  00040	75 08		 jne	 SHORT $LN2@iwm_show@2

; 344  : 			{
; 345  : 				pLabel->ShowWnd();				

  00042	ff 15 00 00 00
	00		 call	 DWORD PTR __imp_?ShowWnd@ioWnd@@QAEXXZ

; 346  : 			}
; 347  : 			else

  00048	eb 06		 jmp	 SHORT $LN5@iwm_show@2
$LN2@iwm_show@2:

; 348  : 			{
; 349  : 				pLabel->HideWnd();

  0004a	ff 15 00 00 00
	00		 call	 DWORD PTR __imp_?HideWnd@ioWnd@@QAEXXZ
$LN5@iwm_show@2:

; 331  : #else
; 332  : 	SYSTEMTIME systime;
; 333  : 	GetSystemTime(&systime);
; 334  : 	iDayOfWeek = systime.wDayOfWeek;
; 335  : #endif
; 336  : 
; 337  : 	int i = 0;
; 338  : 	for( int iDay = SUN_; iDay <= DEFAULT; ++iDay, ++i )

  00050	46		 inc	 esi
  00051	83 fe 6b	 cmp	 esi, 107		; 0000006bH
  00054	7e d6		 jle	 SHORT $LL6@iwm_show@2

; 350  : 			}
; 351  : 		}
; 352  : 	}
; 353  : }

  00056	8b 4d fc	 mov	 ecx, DWORD PTR __$ArrayPad$[ebp]
  00059	5f		 pop	 edi
  0005a	5e		 pop	 esi
  0005b	33 cd		 xor	 ecx, ebp
  0005d	5b		 pop	 ebx
  0005e	e8 00 00 00 00	 call	 @__security_check_cookie@4
  00063	c9		 leave
  00064	c3		 ret	 0
?iwm_show@TimeGateSearchShuffleResult@@UAEXXZ ENDP	; TimeGateSearchShuffleResult::iwm_show
_TEXT	ENDS
PUBLIC	??1?$_Vector_val@PAVioUIRenderImage@@V?$allocator@PAVioUIRenderImage@@@std@@@std@@QAE@XZ ; std::_Vector_val<ioUIRenderImage *,std::allocator<ioUIRenderImage *> >::~_Vector_val<ioUIRenderImage *,std::allocator<ioUIRenderImage *> >
; Function compile flags: /Ogsp
; File c:\program files (x86)\microsoft visual studio 10.0\vc\include\vector
;	COMDAT ??1?$_Vector_val@PAVioUIRenderImage@@V?$allocator@PAVioUIRenderImage@@@std@@@std@@QAE@XZ
_TEXT	SEGMENT
??1?$_Vector_val@PAVioUIRenderImage@@V?$allocator@PAVioUIRenderImage@@@std@@@std@@QAE@XZ PROC ; std::_Vector_val<ioUIRenderImage *,std::allocator<ioUIRenderImage *> >::~_Vector_val<ioUIRenderImage *,std::allocator<ioUIRenderImage *> >, COMDAT
; _this$ = ecx

; 434  : 		}

  00000	c3		 ret	 0
??1?$_Vector_val@PAVioUIRenderImage@@V?$allocator@PAVioUIRenderImage@@@std@@@std@@QAE@XZ ENDP ; std::_Vector_val<ioUIRenderImage *,std::allocator<ioUIRenderImage *> >::~_Vector_val<ioUIRenderImage *,std::allocator<ioUIRenderImage *> >
_TEXT	ENDS
PUBLIC	??0?$allocator@PAVioUIRenderImage@@@std@@QAE@XZ	; std::allocator<ioUIRenderImage *>::allocator<ioUIRenderImage *>
; Function compile flags: /Ogsp
; File c:\program files (x86)\microsoft visual studio 10.0\vc\include\xmemory
;	COMDAT ??0?$allocator@PAVioUIRenderImage@@@std@@QAE@XZ
_TEXT	SEGMENT
??0?$allocator@PAVioUIRenderImage@@@std@@QAE@XZ PROC	; std::allocator<ioUIRenderImage *>::allocator<ioUIRenderImage *>, COMDAT
; _this$ = ecx

; 161  : 	_ALLOCATOR() _THROW0()

  00000	8b c1		 mov	 eax, ecx

; 162  : 		{	// construct default allocator (do nothing)
; 163  : 		}

  00002	c3		 ret	 0
??0?$allocator@PAVioUIRenderImage@@@std@@QAE@XZ ENDP	; std::allocator<ioUIRenderImage *>::allocator<ioUIRenderImage *>
_TEXT	ENDS
PUBLIC	??D?$_Vector_const_iterator@V?$_Vector_val@PAVioUIRenderImage@@V?$allocator@PAVioUIRenderImage@@@std@@@std@@@std@@QBEABQAVioUIRenderImage@@XZ ; std::_Vector_const_iterator<std::_Vector_val<ioUIRenderImage *,std::allocator<ioUIRenderImage *> > >::operator*
; Function compile flags: /Ogsp
; File c:\program files (x86)\microsoft visual studio 10.0\vc\include\vector
;	COMDAT ??D?$_Vector_const_iterator@V?$_Vector_val@PAVioUIRenderImage@@V?$allocator@PAVioUIRenderImage@@@std@@@std@@@std@@QBEABQAVioUIRenderImage@@XZ
_TEXT	SEGMENT
??D?$_Vector_const_iterator@V?$_Vector_val@PAVioUIRenderImage@@V?$allocator@PAVioUIRenderImage@@@std@@@std@@@std@@QBEABQAVioUIRenderImage@@XZ PROC ; std::_Vector_const_iterator<std::_Vector_val<ioUIRenderImage *,std::allocator<ioUIRenderImage *> > >::operator*, COMDAT
; _this$ = ecx

; 64   :  #if _ITERATOR_DEBUG_LEVEL == 2
; 65   : 		if (this->_Getcont() == 0
; 66   : 			|| this->_Ptr == 0
; 67   : 			|| this->_Ptr < ((_Myvec *)this->_Getcont())->_Myfirst
; 68   : 			|| ((_Myvec *)this->_Getcont())->_Mylast <= this->_Ptr)
; 69   : 			{	// report error
; 70   : 			_DEBUG_ERROR("vector iterator not dereferencable");
; 71   : 			_SCL_SECURE_OUT_OF_RANGE;
; 72   : 			}
; 73   : 
; 74   :  #elif _ITERATOR_DEBUG_LEVEL == 1
; 75   : 		_SCL_SECURE_VALIDATE(this->_Getcont() != 0);
; 76   : 		_SCL_SECURE_VALIDATE_RANGE(
; 77   : 			this->_Ptr != 0
; 78   : 			&& ((_Myvec *)this->_Getcont())->_Myfirst <= this->_Ptr
; 79   : 			&& this->_Ptr < ((_Myvec *)this->_Getcont())->_Mylast);
; 80   :  #endif /* _ITERATOR_DEBUG_LEVEL */
; 81   : 
; 82   : 		__analysis_assume(this->_Ptr != 0);
; 83   : 
; 84   : 		return (*this->_Ptr);

  00000	8b 01		 mov	 eax, DWORD PTR [ecx]

; 85   : 		}

  00002	c3		 ret	 0
??D?$_Vector_const_iterator@V?$_Vector_val@PAVioUIRenderImage@@V?$allocator@PAVioUIRenderImage@@@std@@@std@@@std@@QBEABQAVioUIRenderImage@@XZ ENDP ; std::_Vector_const_iterator<std::_Vector_val<ioUIRenderImage *,std::allocator<ioUIRenderImage *> > >::operator*
_TEXT	ENDS
PUBLIC	??E?$_Vector_const_iterator@V?$_Vector_val@PAVioUIRenderImage@@V?$allocator@PAVioUIRenderImage@@@std@@@std@@@std@@QAEAAV01@XZ ; std::_Vector_const_iterator<std::_Vector_val<ioUIRenderImage *,std::allocator<ioUIRenderImage *> > >::operator++
; Function compile flags: /Ogsp
;	COMDAT ??E?$_Vector_const_iterator@V?$_Vector_val@PAVioUIRenderImage@@V?$allocator@PAVioUIRenderImage@@@std@@@std@@@std@@QAEAAV01@XZ
_TEXT	SEGMENT
??E?$_Vector_const_iterator@V?$_Vector_val@PAVioUIRenderImage@@V?$allocator@PAVioUIRenderImage@@@std@@@std@@@std@@QAEAAV01@XZ PROC ; std::_Vector_const_iterator<std::_Vector_val<ioUIRenderImage *,std::allocator<ioUIRenderImage *> > >::operator++, COMDAT
; _this$ = ecx

; 93   : 		{	// preincrement

  00000	8b c1		 mov	 eax, ecx

; 94   :  #if _ITERATOR_DEBUG_LEVEL == 2
; 95   : 		if (this->_Getcont() == 0
; 96   : 			|| this->_Ptr == 0
; 97   : 			|| ((_Myvec *)this->_Getcont())->_Mylast <= this->_Ptr)
; 98   : 			{	// report error
; 99   : 			_DEBUG_ERROR("vector iterator not incrementable");
; 100  : 			_SCL_SECURE_OUT_OF_RANGE;
; 101  : 			}
; 102  : 
; 103  :  #elif _ITERATOR_DEBUG_LEVEL == 1
; 104  : 		_SCL_SECURE_VALIDATE(this->_Getcont() != 0);
; 105  : 		_SCL_SECURE_VALIDATE_RANGE(
; 106  : 			this->_Ptr != 0
; 107  : 			&& this->_Ptr < ((_Myvec *)this->_Getcont())->_Mylast);
; 108  :  #endif /* _ITERATOR_DEBUG_LEVEL */
; 109  : 
; 110  : 		++this->_Ptr;

  00002	83 00 04	 add	 DWORD PTR [eax], 4

; 111  : 		return (*this);
; 112  : 		}

  00005	c3		 ret	 0
??E?$_Vector_const_iterator@V?$_Vector_val@PAVioUIRenderImage@@V?$allocator@PAVioUIRenderImage@@@std@@@std@@@std@@QAEAAV01@XZ ENDP ; std::_Vector_const_iterator<std::_Vector_val<ioUIRenderImage *,std::allocator<ioUIRenderImage *> > >::operator++
_TEXT	ENDS
PUBLIC	??0?$allocator@PAVioUIRenderImage@@@std@@QAE@ABV01@@Z ; std::allocator<ioUIRenderImage *>::allocator<ioUIRenderImage *>
; Function compile flags: /Ogsp
; File c:\program files (x86)\microsoft visual studio 10.0\vc\include\xmemory
;	COMDAT ??0?$allocator@PAVioUIRenderImage@@@std@@QAE@ABV01@@Z
_TEXT	SEGMENT
___formal$ = 8						; size = 4
??0?$allocator@PAVioUIRenderImage@@@std@@QAE@ABV01@@Z PROC ; std::allocator<ioUIRenderImage *>::allocator<ioUIRenderImage *>, COMDAT
; _this$ = ecx

; 165  : 	_ALLOCATOR(const _ALLOCATOR<_Ty>&) _THROW0()

  00000	8b c1		 mov	 eax, ecx

; 166  : 		{	// construct by copying (do nothing)
; 167  : 		}

  00002	c2 04 00	 ret	 4
??0?$allocator@PAVioUIRenderImage@@@std@@QAE@ABV01@@Z ENDP ; std::allocator<ioUIRenderImage *>::allocator<ioUIRenderImage *>
_TEXT	ENDS
PUBLIC	?deallocate@?$allocator@PAVioUIRenderImage@@@std@@QAEXPAPAVioUIRenderImage@@I@Z ; std::allocator<ioUIRenderImage *>::deallocate
EXTRN	??3@YAXPAX@Z:PROC				; operator delete
; Function compile flags: /Ogsp
;	COMDAT ?deallocate@?$allocator@PAVioUIRenderImage@@@std@@QAEXPAPAVioUIRenderImage@@I@Z
_TEXT	SEGMENT
__Ptr$ = 8						; size = 4
___formal$ = 12						; size = 4
?deallocate@?$allocator@PAVioUIRenderImage@@@std@@QAEXPAPAVioUIRenderImage@@I@Z PROC ; std::allocator<ioUIRenderImage *>::deallocate, COMDAT
; _this$ = ecx

; 181  : 		{	// deallocate object at _Ptr, ignore size

  00000	55		 push	 ebp
  00001	8b ec		 mov	 ebp, esp

; 182  : 		::operator delete(_Ptr);

  00003	ff 75 08	 push	 DWORD PTR __Ptr$[ebp]
  00006	e8 00 00 00 00	 call	 ??3@YAXPAX@Z		; operator delete
  0000b	59		 pop	 ecx

; 183  : 		}

  0000c	5d		 pop	 ebp
  0000d	c2 08 00	 ret	 8
?deallocate@?$allocator@PAVioUIRenderImage@@@std@@QAEXPAPAVioUIRenderImage@@I@Z ENDP ; std::allocator<ioUIRenderImage *>::deallocate
_TEXT	ENDS
PUBLIC	?_Compat@?$_Vector_const_iterator@V?$_Vector_val@PAVioUIRenderImage@@V?$allocator@PAVioUIRenderImage@@@std@@@std@@@std@@QBEXABV12@@Z ; std::_Vector_const_iterator<std::_Vector_val<ioUIRenderImage *,std::allocator<ioUIRenderImage *> > >::_Compat
; Function compile flags: /Ogsp
; File c:\program files (x86)\microsoft visual studio 10.0\vc\include\vector
;	COMDAT ?_Compat@?$_Vector_const_iterator@V?$_Vector_val@PAVioUIRenderImage@@V?$allocator@PAVioUIRenderImage@@@std@@@std@@@std@@QBEXABV12@@Z
_TEXT	SEGMENT
___formal$ = 8						; size = 4
?_Compat@?$_Vector_const_iterator@V?$_Vector_val@PAVioUIRenderImage@@V?$allocator@PAVioUIRenderImage@@@std@@@std@@@std@@QBEXABV12@@Z PROC ; std::_Vector_const_iterator<std::_Vector_val<ioUIRenderImage *,std::allocator<ioUIRenderImage *> > >::_Compat, COMDAT
; _this$ = ecx

; 253  : 		}

  00000	c2 04 00	 ret	 4
?_Compat@?$_Vector_const_iterator@V?$_Vector_val@PAVioUIRenderImage@@V?$allocator@PAVioUIRenderImage@@@std@@@std@@@std@@QBEXABV12@@Z ENDP ; std::_Vector_const_iterator<std::_Vector_val<ioUIRenderImage *,std::allocator<ioUIRenderImage *> > >::_Compat
_TEXT	ENDS
PUBLIC	?_Adopt@_Iterator_base0@std@@QAEXPBX@Z		; std::_Iterator_base0::_Adopt
; Function compile flags: /Ogsp
; File c:\program files (x86)\microsoft visual studio 10.0\vc\include\xutility
;	COMDAT ?_Adopt@_Iterator_base0@std@@QAEXPBX@Z
_TEXT	SEGMENT
___formal$ = 8						; size = 4
?_Adopt@_Iterator_base0@std@@QAEXPBX@Z PROC		; std::_Iterator_base0::_Adopt, COMDAT
; _this$ = ecx

; 49   : 		}

  00000	c2 04 00	 ret	 4
?_Adopt@_Iterator_base0@std@@QAEXPBX@Z ENDP		; std::_Iterator_base0::_Adopt
_TEXT	ENDS
PUBLIC	??$_Ptr_cat@PAVioUIRenderImage@@PAV1@@std@@YA?AU_Scalar_ptr_iterator_tag@0@PAPAVioUIRenderImage@@0@Z ; std::_Ptr_cat<ioUIRenderImage *,ioUIRenderImage *>
; Function compile flags: /Ogsp
;	COMDAT ??$_Ptr_cat@PAVioUIRenderImage@@PAV1@@std@@YA?AU_Scalar_ptr_iterator_tag@0@PAPAVioUIRenderImage@@0@Z
_TEXT	SEGMENT
__Cat$ = -1						; size = 1
___formal$ = 8						; size = 4
___formal$ = 12						; size = 4
??$_Ptr_cat@PAVioUIRenderImage@@PAV1@@std@@YA?AU_Scalar_ptr_iterator_tag@0@PAPAVioUIRenderImage@@0@Z PROC ; std::_Ptr_cat<ioUIRenderImage *,ioUIRenderImage *>, COMDAT

; 516  : 	{	// return pointer category from pointers

  00000	55		 push	 ebp
  00001	8b ec		 mov	 ebp, esp
  00003	51		 push	 ecx

; 517  : 	typename _Ptr_cat_helper<_Elem1, _Elem2>::_Type _Cat;
; 518  : 	return (_Cat);

  00004	8a 45 ff	 mov	 al, BYTE PTR __Cat$[ebp]

; 519  : 	}

  00007	c9		 leave
  00008	c3		 ret	 0
??$_Ptr_cat@PAVioUIRenderImage@@PAV1@@std@@YA?AU_Scalar_ptr_iterator_tag@0@PAPAVioUIRenderImage@@0@Z ENDP ; std::_Ptr_cat<ioUIRenderImage *,ioUIRenderImage *>
_TEXT	ENDS
PUBLIC	??$_Move@PAPAVioUIRenderImage@@PAPAV1@@std@@YAPAPAVioUIRenderImage@@PAPAV1@00U_Scalar_ptr_iterator_tag@0@@Z ; std::_Move<ioUIRenderImage * *,ioUIRenderImage * *>
EXTRN	__imp__memmove:PROC
; Function compile flags: /Ogsp
;	COMDAT ??$_Move@PAPAVioUIRenderImage@@PAPAV1@@std@@YAPAPAVioUIRenderImage@@PAPAV1@00U_Scalar_ptr_iterator_tag@0@@Z
_TEXT	SEGMENT
__First$ = 8						; size = 4
__Last$ = 12						; size = 4
__Dest$ = 16						; size = 4
___formal$ = 20						; size = 1
??$_Move@PAPAVioUIRenderImage@@PAPAV1@@std@@YAPAPAVioUIRenderImage@@PAPAV1@00U_Scalar_ptr_iterator_tag@0@@Z PROC ; std::_Move<ioUIRenderImage * *,ioUIRenderImage * *>, COMDAT

; 2522 : 	{	// move [_First, _Last) to [_Dest, ...), pointers to scalars

  00000	55		 push	 ebp
  00001	8b ec		 mov	 ebp, esp
  00003	56		 push	 esi

; 2523 : 	ptrdiff_t _Count = _Last - _First;

  00004	8b 75 0c	 mov	 esi, DWORD PTR __Last$[ebp]
  00007	2b 75 08	 sub	 esi, DWORD PTR __First$[ebp]
  0000a	57		 push	 edi

; 2524 : 	_CSTD memmove(&*_Dest, &*_First,
; 2525 : 		_Count * sizeof (*_First));

  0000b	8b 7d 10	 mov	 edi, DWORD PTR __Dest$[ebp]
  0000e	c1 fe 02	 sar	 esi, 2
  00011	c1 e6 02	 shl	 esi, 2
  00014	56		 push	 esi
  00015	ff 75 08	 push	 DWORD PTR __First$[ebp]
  00018	57		 push	 edi
  00019	ff 15 00 00 00
	00		 call	 DWORD PTR __imp__memmove
  0001f	83 c4 0c	 add	 esp, 12			; 0000000cH

; 2526 : 	return (_Dest + _Count);

  00022	8d 04 3e	 lea	 eax, DWORD PTR [esi+edi]
  00025	5f		 pop	 edi
  00026	5e		 pop	 esi

; 2527 : 	}

  00027	5d		 pop	 ebp
  00028	c3		 ret	 0
??$_Move@PAPAVioUIRenderImage@@PAPAV1@@std@@YAPAPAVioUIRenderImage@@PAPAV1@00U_Scalar_ptr_iterator_tag@0@@Z ENDP ; std::_Move<ioUIRenderImage * *,ioUIRenderImage * *>
_TEXT	ENDS
PUBLIC	??$_Destroy_range@V?$allocator@PAVioUIRenderImage@@@std@@@std@@YAXPAPAVioUIRenderImage@@0AAV?$allocator@PAVioUIRenderImage@@@0@U_Scalar_ptr_iterator_tag@0@@Z ; std::_Destroy_range<std::allocator<ioUIRenderImage *> >
; Function compile flags: /Ogsp
; File c:\program files (x86)\microsoft visual studio 10.0\vc\include\xmemory
;	COMDAT ??$_Destroy_range@V?$allocator@PAVioUIRenderImage@@@std@@@std@@YAXPAPAVioUIRenderImage@@0AAV?$allocator@PAVioUIRenderImage@@@0@U_Scalar_ptr_iterator_tag@0@@Z
_TEXT	SEGMENT
__First$ = 8						; size = 4
__Last$ = 12						; size = 4
__Al$ = 16						; size = 4
___formal$ = 20						; size = 1
??$_Destroy_range@V?$allocator@PAVioUIRenderImage@@@std@@@std@@YAXPAPAVioUIRenderImage@@0AAV?$allocator@PAVioUIRenderImage@@@0@U_Scalar_ptr_iterator_tag@0@@Z PROC ; std::_Destroy_range<std::allocator<ioUIRenderImage *> >, COMDAT

; 105  : 	}

  00000	c3		 ret	 0
??$_Destroy_range@V?$allocator@PAVioUIRenderImage@@@std@@@std@@YAXPAPAVioUIRenderImage@@0AAV?$allocator@PAVioUIRenderImage@@@0@U_Scalar_ptr_iterator_tag@0@@Z ENDP ; std::_Destroy_range<std::allocator<ioUIRenderImage *> >
_TEXT	ENDS
PUBLIC	?_DECSTR@@YAXPADH@Z				; _DECSTR
; Function compile flags: /Ogsp
; File d:\lost saga for developer\youtube\tutorial\source\src\lsclient\stringprotect.h
;	COMDAT ?_DECSTR@@YAXPADH@Z
_TEXT	SEGMENT
_s$ = 8							; size = 4
_l$ = 12						; size = 4
?_DECSTR@@YAXPADH@Z PROC				; _DECSTR, COMDAT

; 40   : __forceinline void _DECSTR(char* s, int l){int i=0,l4=(l-1)/4,*p=(int*)s;s[l-1]=0;for(;i<l4;++i)*(p++)^=0xEAEBECED;for(i=l4*4;i<l-1;++i)s[i]^=0xED-i%4;}

  00000	55		 push	 ebp
  00001	8b ec		 mov	 ebp, esp
  00003	8b 4d 0c	 mov	 ecx, DWORD PTR _l$[ebp]
  00006	56		 push	 esi
  00007	8b 75 08	 mov	 esi, DWORD PTR _s$[ebp]
  0000a	57		 push	 edi
  0000b	8d 79 ff	 lea	 edi, DWORD PTR [ecx-1]
  0000e	8b c7		 mov	 eax, edi
  00010	99		 cdq
  00011	83 e2 03	 and	 edx, 3
  00014	03 c2		 add	 eax, edx
  00016	c1 f8 02	 sar	 eax, 2
  00019	8b d6		 mov	 edx, esi
  0001b	c6 44 0e ff 00	 mov	 BYTE PTR [esi+ecx-1], 0
  00020	85 c0		 test	 eax, eax
  00022	7e 0e		 jle	 SHORT $LN4@DECSTR
  00024	8b c8		 mov	 ecx, eax
$LL6@DECSTR:
  00026	81 32 ed ec eb
	ea		 xor	 DWORD PTR [edx], -353637139 ; eaebecedH
  0002c	83 c2 04	 add	 edx, 4
  0002f	49		 dec	 ecx
  00030	75 f4		 jne	 SHORT $LL6@DECSTR
$LN4@DECSTR:
  00032	c1 e0 02	 shl	 eax, 2
  00035	eb 17		 jmp	 SHORT $LN14@DECSTR
$LL3@DECSTR:
  00037	8b c8		 mov	 ecx, eax
  00039	81 e1 03 00 00
	80		 and	 ecx, -2147483645	; 80000003H
  0003f	79 05		 jns	 SHORT $LN13@DECSTR
  00041	49		 dec	 ecx
  00042	83 c9 fc	 or	 ecx, -4			; fffffffcH
  00045	41		 inc	 ecx
$LN13@DECSTR:
  00046	b2 ed		 mov	 dl, -19			; ffffffedH
  00048	2a d1		 sub	 dl, cl
  0004a	30 14 30	 xor	 BYTE PTR [eax+esi], dl
  0004d	40		 inc	 eax
$LN14@DECSTR:
  0004e	3b c7		 cmp	 eax, edi
  00050	7c e5		 jl	 SHORT $LL3@DECSTR
  00052	5f		 pop	 edi
  00053	5e		 pop	 esi
  00054	5d		 pop	 ebp
  00055	c3		 ret	 0
?_DECSTR@@YAXPADH@Z ENDP				; _DECSTR
; Function compile flags: /Ogsp
_TEXT	ENDS
;	COMDAT ??_GTimeGateSearchShuffleResult@@UAEPAXI@Z
_TEXT	SEGMENT
___flags$ = 8						; size = 4
??_GTimeGateSearchShuffleResult@@UAEPAXI@Z PROC		; TimeGateSearchShuffleResult::`scalar deleting destructor', COMDAT
; _this$ = ecx
  00000	55		 push	 ebp
  00001	8b ec		 mov	 ebp, esp
  00003	56		 push	 esi
  00004	8b f1		 mov	 esi, ecx
  00006	e8 00 00 00 00	 call	 ??1TimeGateSearchShuffleResult@@UAE@XZ ; TimeGateSearchShuffleResult::~TimeGateSearchShuffleResult
  0000b	f6 45 08 01	 test	 BYTE PTR ___flags$[ebp], 1
  0000f	74 07		 je	 SHORT $LN1@scalar
  00011	56		 push	 esi
  00012	e8 00 00 00 00	 call	 ??3@YAXPAX@Z		; operator delete
  00017	59		 pop	 ecx
$LN1@scalar:
  00018	8b c6		 mov	 eax, esi
  0001a	5e		 pop	 esi
  0001b	5d		 pop	 ebp
  0001c	c2 04 00	 ret	 4
??_GTimeGateSearchShuffleResult@@UAEPAXI@Z ENDP		; TimeGateSearchShuffleResult::`scalar deleting destructor'
_TEXT	ENDS
PUBLIC	??D?$_Vector_iterator@V?$_Vector_val@PAVioUIRenderImage@@V?$allocator@PAVioUIRenderImage@@@std@@@std@@@std@@QBEAAPAVioUIRenderImage@@XZ ; std::_Vector_iterator<std::_Vector_val<ioUIRenderImage *,std::allocator<ioUIRenderImage *> > >::operator*
; Function compile flags: /Ogsp
; File c:\program files (x86)\microsoft visual studio 10.0\vc\include\vector
;	COMDAT ??D?$_Vector_iterator@V?$_Vector_val@PAVioUIRenderImage@@V?$allocator@PAVioUIRenderImage@@@std@@@std@@@std@@QBEAAPAVioUIRenderImage@@XZ
_TEXT	SEGMENT
??D?$_Vector_iterator@V?$_Vector_val@PAVioUIRenderImage@@V?$allocator@PAVioUIRenderImage@@@std@@@std@@@std@@QBEAAPAVioUIRenderImage@@XZ PROC ; std::_Vector_iterator<std::_Vector_val<ioUIRenderImage *,std::allocator<ioUIRenderImage *> > >::operator*, COMDAT
; _this$ = ecx

; 322  : 		return ((reference)**(_Mybase *)this);

  00000	8b 01		 mov	 eax, DWORD PTR [ecx]

; 323  : 		}

  00002	c3		 ret	 0
??D?$_Vector_iterator@V?$_Vector_val@PAVioUIRenderImage@@V?$allocator@PAVioUIRenderImage@@@std@@@std@@@std@@QBEAAPAVioUIRenderImage@@XZ ENDP ; std::_Vector_iterator<std::_Vector_val<ioUIRenderImage *,std::allocator<ioUIRenderImage *> > >::operator*
_TEXT	ENDS
PUBLIC	??E?$_Vector_iterator@V?$_Vector_val@PAVioUIRenderImage@@V?$allocator@PAVioUIRenderImage@@@std@@@std@@@std@@QAEAAV01@XZ ; std::_Vector_iterator<std::_Vector_val<ioUIRenderImage *,std::allocator<ioUIRenderImage *> > >::operator++
; Function compile flags: /Ogsp
;	COMDAT ??E?$_Vector_iterator@V?$_Vector_val@PAVioUIRenderImage@@V?$allocator@PAVioUIRenderImage@@@std@@@std@@@std@@QAEAAV01@XZ
_TEXT	SEGMENT
??E?$_Vector_iterator@V?$_Vector_val@PAVioUIRenderImage@@V?$allocator@PAVioUIRenderImage@@@std@@@std@@@std@@QAEAAV01@XZ PROC ; std::_Vector_iterator<std::_Vector_val<ioUIRenderImage *,std::allocator<ioUIRenderImage *> > >::operator++, COMDAT
; _this$ = ecx

; 331  : 		{	// preincrement

  00000	8b c1		 mov	 eax, ecx

; 332  : 		++*(_Mybase *)this;

  00002	83 00 04	 add	 DWORD PTR [eax], 4

; 333  : 		return (*this);
; 334  : 		}

  00005	c3		 ret	 0
??E?$_Vector_iterator@V?$_Vector_val@PAVioUIRenderImage@@V?$allocator@PAVioUIRenderImage@@@std@@@std@@@std@@QAEAAV01@XZ ENDP ; std::_Vector_iterator<std::_Vector_val<ioUIRenderImage *,std::allocator<ioUIRenderImage *> > >::operator++
_TEXT	ENDS
PUBLIC	??0?$_Vector_val@PAVioUIRenderImage@@V?$allocator@PAVioUIRenderImage@@@std@@@std@@QAE@V?$allocator@PAVioUIRenderImage@@@1@@Z ; std::_Vector_val<ioUIRenderImage *,std::allocator<ioUIRenderImage *> >::_Vector_val<ioUIRenderImage *,std::allocator<ioUIRenderImage *> >
; Function compile flags: /Ogsp
;	COMDAT ??0?$_Vector_val@PAVioUIRenderImage@@V?$allocator@PAVioUIRenderImage@@@std@@@std@@QAE@V?$allocator@PAVioUIRenderImage@@@1@@Z
_TEXT	SEGMENT
__Al$ = 8						; size = 1
??0?$_Vector_val@PAVioUIRenderImage@@V?$allocator@PAVioUIRenderImage@@@std@@@std@@QAE@V?$allocator@PAVioUIRenderImage@@@1@@Z PROC ; std::_Vector_val<ioUIRenderImage *,std::allocator<ioUIRenderImage *> >::_Vector_val<ioUIRenderImage *,std::allocator<ioUIRenderImage *> >, COMDAT
; _this$ = ecx

; 426  : 		{	// construct allocator from _Al

  00000	8b c1		 mov	 eax, ecx

; 427  : 		_Myfirst = 0;

  00002	33 c9		 xor	 ecx, ecx
  00004	89 08		 mov	 DWORD PTR [eax], ecx

; 428  : 		_Mylast = 0;

  00006	89 48 04	 mov	 DWORD PTR [eax+4], ecx

; 429  : 		_Myend = 0;

  00009	89 48 08	 mov	 DWORD PTR [eax+8], ecx

; 430  : 		}

  0000c	c2 04 00	 ret	 4
??0?$_Vector_val@PAVioUIRenderImage@@V?$allocator@PAVioUIRenderImage@@@std@@@std@@QAE@V?$allocator@PAVioUIRenderImage@@@1@@Z ENDP ; std::_Vector_val<ioUIRenderImage *,std::allocator<ioUIRenderImage *> >::_Vector_val<ioUIRenderImage *,std::allocator<ioUIRenderImage *> >
_TEXT	ENDS
PUBLIC	??8?$_Vector_const_iterator@V?$_Vector_val@PAVioUIRenderImage@@V?$allocator@PAVioUIRenderImage@@@std@@@std@@@std@@QBE_NABV01@@Z ; std::_Vector_const_iterator<std::_Vector_val<ioUIRenderImage *,std::allocator<ioUIRenderImage *> > >::operator==
; Function compile flags: /Ogsp
;	COMDAT ??8?$_Vector_const_iterator@V?$_Vector_val@PAVioUIRenderImage@@V?$allocator@PAVioUIRenderImage@@@std@@@std@@@std@@QBE_NABV01@@Z
_TEXT	SEGMENT
__Right$ = 8						; size = 4
??8?$_Vector_const_iterator@V?$_Vector_val@PAVioUIRenderImage@@V?$allocator@PAVioUIRenderImage@@@std@@@std@@@std@@QBE_NABV01@@Z PROC ; std::_Vector_const_iterator<std::_Vector_val<ioUIRenderImage *,std::allocator<ioUIRenderImage *> > >::operator==, COMDAT
; _this$ = ecx

; 201  : 		{	// test for iterator equality

  00000	55		 push	 ebp
  00001	8b ec		 mov	 ebp, esp

; 202  : 		_Compat(_Right);
; 203  : 		return (this->_Ptr == _Right._Ptr);

  00003	8b 01		 mov	 eax, DWORD PTR [ecx]
  00005	8b 4d 08	 mov	 ecx, DWORD PTR __Right$[ebp]
  00008	2b 01		 sub	 eax, DWORD PTR [ecx]
  0000a	f7 d8		 neg	 eax
  0000c	1b c0		 sbb	 eax, eax
  0000e	40		 inc	 eax

; 204  : 		}

  0000f	5d		 pop	 ebp
  00010	c2 04 00	 ret	 4
??8?$_Vector_const_iterator@V?$_Vector_val@PAVioUIRenderImage@@V?$allocator@PAVioUIRenderImage@@@std@@@std@@@std@@QBE_NABV01@@Z ENDP ; std::_Vector_const_iterator<std::_Vector_val<ioUIRenderImage *,std::allocator<ioUIRenderImage *> > >::operator==
_TEXT	ENDS
PUBLIC	??0?$_Vector_const_iterator@V?$_Vector_val@PAVioUIRenderImage@@V?$allocator@PAVioUIRenderImage@@@std@@@std@@@std@@QAE@PAPAVioUIRenderImage@@PBU_Container_base0@1@@Z ; std::_Vector_const_iterator<std::_Vector_val<ioUIRenderImage *,std::allocator<ioUIRenderImage *> > >::_Vector_const_iterator<std::_Vector_val<ioUIRenderImage *,std::allocator<ioUIRenderImage *> > >
; Function compile flags: /Ogsp
;	COMDAT ??0?$_Vector_const_iterator@V?$_Vector_val@PAVioUIRenderImage@@V?$allocator@PAVioUIRenderImage@@@std@@@std@@@std@@QAE@PAPAVioUIRenderImage@@PBU_Container_base0@1@@Z
_TEXT	SEGMENT
__Parg$ = 8						; size = 4
__Pvector$ = 12						; size = 4
??0?$_Vector_const_iterator@V?$_Vector_val@PAVioUIRenderImage@@V?$allocator@PAVioUIRenderImage@@@std@@@std@@@std@@QAE@PAPAVioUIRenderImage@@PBU_Container_base0@1@@Z PROC ; std::_Vector_const_iterator<std::_Vector_val<ioUIRenderImage *,std::allocator<ioUIRenderImage *> > >::_Vector_const_iterator<std::_Vector_val<ioUIRenderImage *,std::allocator<ioUIRenderImage *> > >, COMDAT
; _this$ = ecx

; 45   : 		{	// construct with pointer _Parg

  00000	55		 push	 ebp
  00001	8b ec		 mov	 ebp, esp
  00003	8b c1		 mov	 eax, ecx
  00005	8b 4d 08	 mov	 ecx, DWORD PTR __Parg$[ebp]
  00008	89 08		 mov	 DWORD PTR [eax], ecx

; 46   : 		this->_Adopt(_Pvector);
; 47   : 		}

  0000a	5d		 pop	 ebp
  0000b	c2 08 00	 ret	 8
??0?$_Vector_const_iterator@V?$_Vector_val@PAVioUIRenderImage@@V?$allocator@PAVioUIRenderImage@@@std@@@std@@@std@@QAE@PAPAVioUIRenderImage@@PBU_Container_base0@1@@Z ENDP ; std::_Vector_const_iterator<std::_Vector_val<ioUIRenderImage *,std::allocator<ioUIRenderImage *> > >::_Vector_const_iterator<std::_Vector_val<ioUIRenderImage *,std::allocator<ioUIRenderImage *> > >
_TEXT	ENDS
PUBLIC	__$ArrayPad$
PUBLIC	??$?8$0P@@@YA_NABVioHashString@@AAY0P@$$CBD@Z	; operator==<15>
EXTRN	__imp_?c_str@ioHashString@@QBEPBDXZ:PROC
; Function compile flags: /Ogsp
; File d:\lost saga for developer\youtube\tutorial\source\src\io3dengine\iohashstring.h
;	COMDAT ??$?8$0P@@@YA_NABVioHashString@@AAY0P@$$CBD@Z
_TEXT	SEGMENT
__t$ = -24						; size = 15
__$ArrayPad$ = -4					; size = 4
_lhs$ = 8						; size = 4
_t$ = 12						; size = 4
??$?8$0P@@@YA_NABVioHashString@@AAY0P@$$CBD@Z PROC	; operator==<15>, COMDAT

; 146  : {

  00000	55		 push	 ebp
  00001	8b ec		 mov	 ebp, esp
  00003	83 ec 18	 sub	 esp, 24			; 00000018H
  00006	a1 00 00 00 00	 mov	 eax, DWORD PTR ___security_cookie
  0000b	33 c5		 xor	 eax, ebp
  0000d	89 45 fc	 mov	 DWORD PTR __$ArrayPad$[ebp], eax
  00010	8b 45 0c	 mov	 eax, DWORD PTR _t$[ebp]

; 147  : 	_ENCSTR(t, _t); return ( strcmp( lhs.c_str(), _t ) == 0 );

  00013	8a 10		 mov	 dl, BYTE PTR [eax]
  00015	56		 push	 esi
  00016	57		 push	 edi
  00017	8b 7d 08	 mov	 edi, DWORD PTR _lhs$[ebp]
  0001a	84 d2		 test	 dl, dl
  0001c	0f 84 75 01 00
	00		 je	 $LN96@operator
  00022	80 f2 ed	 xor	 dl, -19			; ffffffedH
  00025	88 55 e8	 mov	 BYTE PTR __t$[ebp], dl
  00028	8a 50 01	 mov	 dl, BYTE PTR [eax+1]
  0002b	84 d2		 test	 dl, dl
  0002d	0f 84 5e 01 00
	00		 je	 $LN95@operator
  00033	b1 ec		 mov	 cl, -20			; ffffffecH
  00035	32 d1		 xor	 dl, cl
  00037	88 55 e9	 mov	 BYTE PTR __t$[ebp+1], dl
  0003a	8a 50 02	 mov	 dl, BYTE PTR [eax+2]
  0003d	84 d2		 test	 dl, dl
  0003f	0f 84 46 01 00
	00		 je	 $LN94@operator
  00045	80 f2 eb	 xor	 dl, -21			; ffffffebH
  00048	88 55 ea	 mov	 BYTE PTR __t$[ebp+2], dl
  0004b	8a 50 03	 mov	 dl, BYTE PTR [eax+3]
  0004e	84 d2		 test	 dl, dl
  00050	0f 84 2f 01 00
	00		 je	 $LN93@operator
  00056	80 f2 ea	 xor	 dl, -22			; ffffffeaH
  00059	88 55 eb	 mov	 BYTE PTR __t$[ebp+3], dl
  0005c	8a 50 04	 mov	 dl, BYTE PTR [eax+4]
  0005f	84 d2		 test	 dl, dl
  00061	0f 84 18 01 00
	00		 je	 $LN92@operator
  00067	80 f2 ed	 xor	 dl, -19			; ffffffedH
  0006a	88 55 ec	 mov	 BYTE PTR __t$[ebp+4], dl
  0006d	8a 50 05	 mov	 dl, BYTE PTR [eax+5]
  00070	84 d2		 test	 dl, dl
  00072	0f 84 02 01 00
	00		 je	 $LN91@operator
  00078	32 d1		 xor	 dl, cl
  0007a	88 55 ed	 mov	 BYTE PTR __t$[ebp+5], dl
  0007d	8a 50 06	 mov	 dl, BYTE PTR [eax+6]
  00080	84 d2		 test	 dl, dl
  00082	0f 84 ec 00 00
	00		 je	 $LN90@operator
  00088	80 f2 eb	 xor	 dl, -21			; ffffffebH
  0008b	88 55 ee	 mov	 BYTE PTR __t$[ebp+6], dl
  0008e	8a 50 07	 mov	 dl, BYTE PTR [eax+7]
  00091	84 d2		 test	 dl, dl
  00093	0f 84 d5 00 00
	00		 je	 $LN89@operator
  00099	80 f2 ea	 xor	 dl, -22			; ffffffeaH
  0009c	88 55 ef	 mov	 BYTE PTR __t$[ebp+7], dl
  0009f	8a 50 08	 mov	 dl, BYTE PTR [eax+8]
  000a2	84 d2		 test	 dl, dl
  000a4	0f 84 be 00 00
	00		 je	 $LN88@operator
  000aa	80 f2 ed	 xor	 dl, -19			; ffffffedH
  000ad	88 55 f0	 mov	 BYTE PTR __t$[ebp+8], dl
  000b0	8a 50 09	 mov	 dl, BYTE PTR [eax+9]
  000b3	84 d2		 test	 dl, dl
  000b5	0f 84 a8 00 00
	00		 je	 $LN87@operator
  000bb	32 d1		 xor	 dl, cl
  000bd	88 55 f1	 mov	 BYTE PTR __t$[ebp+9], dl
  000c0	8a 50 0a	 mov	 dl, BYTE PTR [eax+10]
  000c3	84 d2		 test	 dl, dl
  000c5	0f 84 92 00 00
	00		 je	 $LN86@operator
  000cb	80 f2 eb	 xor	 dl, -21			; ffffffebH
  000ce	88 55 f2	 mov	 BYTE PTR __t$[ebp+10], dl
  000d1	8a 50 0b	 mov	 dl, BYTE PTR [eax+11]
  000d4	84 d2		 test	 dl, dl
  000d6	74 7f		 je	 SHORT $LN85@operator
  000d8	80 f2 ea	 xor	 dl, -22			; ffffffeaH
  000db	88 55 f3	 mov	 BYTE PTR __t$[ebp+11], dl
  000de	8a 50 0c	 mov	 dl, BYTE PTR [eax+12]
  000e1	84 d2		 test	 dl, dl
  000e3	74 6c		 je	 SHORT $LN84@operator
  000e5	80 f2 ed	 xor	 dl, -19			; ffffffedH
  000e8	88 55 f4	 mov	 BYTE PTR __t$[ebp+12], dl
  000eb	8a 50 0d	 mov	 dl, BYTE PTR [eax+13]
  000ee	84 d2		 test	 dl, dl
  000f0	74 5a		 je	 SHORT $LN83@operator
  000f2	32 d1		 xor	 dl, cl
  000f4	80 78 0e 00	 cmp	 BYTE PTR [eax+14], 0
  000f8	88 55 f5	 mov	 BYTE PTR __t$[ebp+13], dl
  000fb	0f 84 9a 00 00
	00		 je	 $LN1@operator
  00101	8a 50 0f	 mov	 dl, BYTE PTR [eax+15]
  00104	84 d2		 test	 dl, dl
  00106	74 3e		 je	 SHORT $LN81@operator
  00108	80 f2 ea	 xor	 dl, -22			; ffffffeaH
  0010b	88 55 f7	 mov	 BYTE PTR __t$[ebp+15], dl
  0010e	8a 50 10	 mov	 dl, BYTE PTR [eax+16]
  00111	84 d2		 test	 dl, dl
  00113	74 2b		 je	 SHORT $LN80@operator
  00115	80 f2 ed	 xor	 dl, -19			; ffffffedH
  00118	88 55 f8	 mov	 BYTE PTR __t$[ebp+16], dl
  0011b	8a 50 11	 mov	 dl, BYTE PTR [eax+17]
  0011e	84 d2		 test	 dl, dl
  00120	74 19		 je	 SHORT $LN79@operator
  00122	8a 40 12	 mov	 al, BYTE PTR [eax+18]
  00125	32 d1		 xor	 dl, cl
  00127	88 55 f9	 mov	 BYTE PTR __t$[ebp+17], dl
  0012a	84 c0		 test	 al, al
  0012c	74 07		 je	 SHORT $LN78@operator
  0012e	34 eb		 xor	 al, -21			; ffffffebH
  00130	88 45 fa	 mov	 BYTE PTR __t$[ebp+18], al
  00133	eb 66		 jmp	 SHORT $LN1@operator
$LN78@operator:
  00135	c6 45 fa eb	 mov	 BYTE PTR __t$[ebp+18], -21 ; ffffffebH
  00139	eb 60		 jmp	 SHORT $LN1@operator
$LN79@operator:
  0013b	88 4d f9	 mov	 BYTE PTR __t$[ebp+17], cl
  0013e	eb 5b		 jmp	 SHORT $LN1@operator
$LN80@operator:
  00140	c6 45 f8 ed	 mov	 BYTE PTR __t$[ebp+16], -19 ; ffffffedH
  00144	eb 55		 jmp	 SHORT $LN1@operator
$LN81@operator:
  00146	c6 45 f7 ea	 mov	 BYTE PTR __t$[ebp+15], -22 ; ffffffeaH
  0014a	eb 4f		 jmp	 SHORT $LN1@operator
$LN83@operator:
  0014c	88 4d f5	 mov	 BYTE PTR __t$[ebp+13], cl
  0014f	eb 4a		 jmp	 SHORT $LN1@operator
$LN84@operator:
  00151	c6 45 f4 ed	 mov	 BYTE PTR __t$[ebp+12], -19 ; ffffffedH
  00155	eb 44		 jmp	 SHORT $LN1@operator
$LN85@operator:
  00157	c6 45 f3 ea	 mov	 BYTE PTR __t$[ebp+11], -22 ; ffffffeaH
  0015b	eb 3e		 jmp	 SHORT $LN1@operator
$LN86@operator:
  0015d	c6 45 f2 eb	 mov	 BYTE PTR __t$[ebp+10], -21 ; ffffffebH
  00161	eb 38		 jmp	 SHORT $LN1@operator
$LN87@operator:
  00163	88 4d f1	 mov	 BYTE PTR __t$[ebp+9], cl
  00166	eb 33		 jmp	 SHORT $LN1@operator
$LN88@operator:
  00168	c6 45 f0 ed	 mov	 BYTE PTR __t$[ebp+8], -19 ; ffffffedH
  0016c	eb 2d		 jmp	 SHORT $LN1@operator
$LN89@operator:
  0016e	c6 45 ef ea	 mov	 BYTE PTR __t$[ebp+7], -22 ; ffffffeaH
  00172	eb 27		 jmp	 SHORT $LN1@operator
$LN90@operator:
  00174	c6 45 ee eb	 mov	 BYTE PTR __t$[ebp+6], -21 ; ffffffebH
  00178	eb 21		 jmp	 SHORT $LN1@operator
$LN91@operator:
  0017a	88 4d ed	 mov	 BYTE PTR __t$[ebp+5], cl
  0017d	eb 1c		 jmp	 SHORT $LN1@operator
$LN92@operator:
  0017f	c6 45 ec ed	 mov	 BYTE PTR __t$[ebp+4], -19 ; ffffffedH
  00183	eb 16		 jmp	 SHORT $LN1@operator
$LN93@operator:
  00185	c6 45 eb ea	 mov	 BYTE PTR __t$[ebp+3], -22 ; ffffffeaH
  00189	eb 10		 jmp	 SHORT $LN1@operator
$LN94@operator:
  0018b	c6 45 ea eb	 mov	 BYTE PTR __t$[ebp+2], -21 ; ffffffebH
  0018f	eb 0a		 jmp	 SHORT $LN1@operator
$LN95@operator:
  00191	c6 45 e9 ec	 mov	 BYTE PTR __t$[ebp+1], -20 ; ffffffecH
  00195	eb 04		 jmp	 SHORT $LN1@operator
$LN96@operator:
  00197	c6 45 e8 ed	 mov	 BYTE PTR __t$[ebp], -19	; ffffffedH
$LN1@operator:
  0019b	6a 03		 push	 3
  0019d	8d 45 e8	 lea	 eax, DWORD PTR __t$[ebp]
  001a0	c6 45 f6 00	 mov	 BYTE PTR __t$[ebp+14], 0
  001a4	5a		 pop	 edx
$LL104@operator:
  001a5	81 30 ed ec eb
	ea		 xor	 DWORD PTR [eax], -353637139 ; eaebecedH
  001ab	83 c0 04	 add	 eax, 4
  001ae	4a		 dec	 edx
  001af	75 f4		 jne	 SHORT $LL104@operator
  001b1	6a 0c		 push	 12			; 0000000cH
  001b3	58		 pop	 eax
$LL101@operator:
  001b4	8b c8		 mov	 ecx, eax
  001b6	81 e1 03 00 00
	80		 and	 ecx, -2147483645	; 80000003H
  001bc	79 05		 jns	 SHORT $LN115@operator
  001be	49		 dec	 ecx
  001bf	83 c9 fc	 or	 ecx, -4			; fffffffcH
  001c2	41		 inc	 ecx
$LN115@operator:
  001c3	b2 ed		 mov	 dl, -19			; ffffffedH
  001c5	2a d1		 sub	 dl, cl
  001c7	30 54 05 e8	 xor	 BYTE PTR __t$[ebp+eax], dl
  001cb	40		 inc	 eax
  001cc	83 f8 0e	 cmp	 eax, 14			; 0000000eH
  001cf	7c e3		 jl	 SHORT $LL101@operator
  001d1	8b cf		 mov	 ecx, edi
  001d3	8d 75 e8	 lea	 esi, DWORD PTR __t$[ebp]
  001d6	ff 15 00 00 00
	00		 call	 DWORD PTR __imp_?c_str@ioHashString@@QBEPBDXZ
$LL111@operator:
  001dc	8a 08		 mov	 cl, BYTE PTR [eax]
  001de	3a 0e		 cmp	 cl, BYTE PTR [esi]
  001e0	75 1a		 jne	 SHORT $LN112@operator
  001e2	84 c9		 test	 cl, cl
  001e4	74 12		 je	 SHORT $LN113@operator
  001e6	8a 48 01	 mov	 cl, BYTE PTR [eax+1]
  001e9	3a 4e 01	 cmp	 cl, BYTE PTR [esi+1]
  001ec	75 0e		 jne	 SHORT $LN112@operator
  001ee	83 c0 02	 add	 eax, 2
  001f1	83 c6 02	 add	 esi, 2
  001f4	84 c9		 test	 cl, cl
  001f6	75 e4		 jne	 SHORT $LL111@operator
$LN113@operator:
  001f8	33 c0		 xor	 eax, eax
  001fa	eb 05		 jmp	 SHORT $LN114@operator
$LN112@operator:
  001fc	1b c0		 sbb	 eax, eax
  001fe	83 d8 ff	 sbb	 eax, -1
$LN114@operator:
  00201	33 c9		 xor	 ecx, ecx
  00203	85 c0		 test	 eax, eax
  00205	0f 94 c0	 sete	 al

; 148  : }

  00208	8b 4d fc	 mov	 ecx, DWORD PTR __$ArrayPad$[ebp]
  0020b	5f		 pop	 edi
  0020c	33 cd		 xor	 ecx, ebp
  0020e	5e		 pop	 esi
  0020f	e8 00 00 00 00	 call	 @__security_check_cookie@4
  00214	c9		 leave
  00215	c3		 ret	 0
??$?8$0P@@@YA_NABVioHashString@@AAY0P@$$CBD@Z ENDP	; operator==<15>
_TEXT	ENDS
PUBLIC	__$ArrayPad$
PUBLIC	??$?8$0O@@@YA_NABVioHashString@@AAY0O@$$CBD@Z	; operator==<14>
; Function compile flags: /Ogsp
;	COMDAT ??$?8$0O@@@YA_NABVioHashString@@AAY0O@$$CBD@Z
_TEXT	SEGMENT
__t$ = -24						; size = 14
__$ArrayPad$ = -4					; size = 4
_lhs$ = 8						; size = 4
_t$ = 12						; size = 4
??$?8$0O@@@YA_NABVioHashString@@AAY0O@$$CBD@Z PROC	; operator==<14>, COMDAT

; 146  : {

  00000	55		 push	 ebp
  00001	8b ec		 mov	 ebp, esp
  00003	83 ec 18	 sub	 esp, 24			; 00000018H
  00006	a1 00 00 00 00	 mov	 eax, DWORD PTR ___security_cookie
  0000b	33 c5		 xor	 eax, ebp
  0000d	89 45 fc	 mov	 DWORD PTR __$ArrayPad$[ebp], eax
  00010	8b 45 0c	 mov	 eax, DWORD PTR _t$[ebp]

; 147  : 	_ENCSTR(t, _t); return ( strcmp( lhs.c_str(), _t ) == 0 );

  00013	8a 10		 mov	 dl, BYTE PTR [eax]
  00015	56		 push	 esi
  00016	57		 push	 edi
  00017	8b 7d 08	 mov	 edi, DWORD PTR _lhs$[ebp]
  0001a	84 d2		 test	 dl, dl
  0001c	0f 84 64 01 00
	00		 je	 $LN96@operator@2
  00022	80 f2 ed	 xor	 dl, -19			; ffffffedH
  00025	88 55 e8	 mov	 BYTE PTR __t$[ebp], dl
  00028	8a 50 01	 mov	 dl, BYTE PTR [eax+1]
  0002b	84 d2		 test	 dl, dl
  0002d	0f 84 4d 01 00
	00		 je	 $LN95@operator@2
  00033	80 f2 ec	 xor	 dl, -20			; ffffffecH
  00036	88 55 e9	 mov	 BYTE PTR __t$[ebp+1], dl
  00039	8a 50 02	 mov	 dl, BYTE PTR [eax+2]
  0003c	84 d2		 test	 dl, dl
  0003e	0f 84 36 01 00
	00		 je	 $LN94@operator@2
  00044	b1 eb		 mov	 cl, -21			; ffffffebH
  00046	32 d1		 xor	 dl, cl
  00048	88 55 ea	 mov	 BYTE PTR __t$[ebp+2], dl
  0004b	8a 50 03	 mov	 dl, BYTE PTR [eax+3]
  0004e	84 d2		 test	 dl, dl
  00050	0f 84 1e 01 00
	00		 je	 $LN93@operator@2
  00056	80 f2 ea	 xor	 dl, -22			; ffffffeaH
  00059	88 55 eb	 mov	 BYTE PTR __t$[ebp+3], dl
  0005c	8a 50 04	 mov	 dl, BYTE PTR [eax+4]
  0005f	84 d2		 test	 dl, dl
  00061	0f 84 07 01 00
	00		 je	 $LN92@operator@2
  00067	80 f2 ed	 xor	 dl, -19			; ffffffedH
  0006a	88 55 ec	 mov	 BYTE PTR __t$[ebp+4], dl
  0006d	8a 50 05	 mov	 dl, BYTE PTR [eax+5]
  00070	84 d2		 test	 dl, dl
  00072	0f 84 f0 00 00
	00		 je	 $LN91@operator@2
  00078	80 f2 ec	 xor	 dl, -20			; ffffffecH
  0007b	88 55 ed	 mov	 BYTE PTR __t$[ebp+5], dl
  0007e	8a 50 06	 mov	 dl, BYTE PTR [eax+6]
  00081	84 d2		 test	 dl, dl
  00083	0f 84 da 00 00
	00		 je	 $LN90@operator@2
  00089	32 d1		 xor	 dl, cl
  0008b	88 55 ee	 mov	 BYTE PTR __t$[ebp+6], dl
  0008e	8a 50 07	 mov	 dl, BYTE PTR [eax+7]
  00091	84 d2		 test	 dl, dl
  00093	0f 84 c4 00 00
	00		 je	 $LN89@operator@2
  00099	80 f2 ea	 xor	 dl, -22			; ffffffeaH
  0009c	88 55 ef	 mov	 BYTE PTR __t$[ebp+7], dl
  0009f	8a 50 08	 mov	 dl, BYTE PTR [eax+8]
  000a2	84 d2		 test	 dl, dl
  000a4	0f 84 ad 00 00
	00		 je	 $LN88@operator@2
  000aa	80 f2 ed	 xor	 dl, -19			; ffffffedH
  000ad	88 55 f0	 mov	 BYTE PTR __t$[ebp+8], dl
  000b0	8a 50 09	 mov	 dl, BYTE PTR [eax+9]
  000b3	84 d2		 test	 dl, dl
  000b5	0f 84 96 00 00
	00		 je	 $LN87@operator@2
  000bb	80 f2 ec	 xor	 dl, -20			; ffffffecH
  000be	88 55 f1	 mov	 BYTE PTR __t$[ebp+9], dl
  000c1	8a 50 0a	 mov	 dl, BYTE PTR [eax+10]
  000c4	84 d2		 test	 dl, dl
  000c6	0f 84 80 00 00
	00		 je	 $LN86@operator@2
  000cc	32 d1		 xor	 dl, cl
  000ce	88 55 f2	 mov	 BYTE PTR __t$[ebp+10], dl
  000d1	8a 50 0b	 mov	 dl, BYTE PTR [eax+11]
  000d4	84 d2		 test	 dl, dl
  000d6	74 6e		 je	 SHORT $LN85@operator@2
  000d8	80 f2 ea	 xor	 dl, -22			; ffffffeaH
  000db	88 55 f3	 mov	 BYTE PTR __t$[ebp+11], dl
  000de	8a 50 0c	 mov	 dl, BYTE PTR [eax+12]
  000e1	84 d2		 test	 dl, dl
  000e3	74 5b		 je	 SHORT $LN84@operator@2
  000e5	80 f2 ed	 xor	 dl, -19			; ffffffedH
  000e8	80 78 0d 00	 cmp	 BYTE PTR [eax+13], 0
  000ec	88 55 f4	 mov	 BYTE PTR __t$[ebp+12], dl
  000ef	0f 84 95 00 00
	00		 je	 $LN1@operator@2
  000f5	8a 50 0e	 mov	 dl, BYTE PTR [eax+14]
  000f8	84 d2		 test	 dl, dl
  000fa	74 3f		 je	 SHORT $LN82@operator@2
  000fc	32 d1		 xor	 dl, cl
  000fe	88 55 f6	 mov	 BYTE PTR __t$[ebp+14], dl
  00101	8a 50 0f	 mov	 dl, BYTE PTR [eax+15]
  00104	84 d2		 test	 dl, dl
  00106	74 2d		 je	 SHORT $LN81@operator@2
  00108	80 f2 ea	 xor	 dl, -22			; ffffffeaH
  0010b	88 55 f7	 mov	 BYTE PTR __t$[ebp+15], dl
  0010e	8a 50 10	 mov	 dl, BYTE PTR [eax+16]
  00111	84 d2		 test	 dl, dl
  00113	74 1a		 je	 SHORT $LN80@operator@2
  00115	8a 40 11	 mov	 al, BYTE PTR [eax+17]
  00118	80 f2 ed	 xor	 dl, -19			; ffffffedH
  0011b	88 55 f8	 mov	 BYTE PTR __t$[ebp+16], dl
  0011e	84 c0		 test	 al, al
  00120	74 07		 je	 SHORT $LN79@operator@2
  00122	34 ec		 xor	 al, -20			; ffffffecH
  00124	88 45 f9	 mov	 BYTE PTR __t$[ebp+17], al
  00127	eb 61		 jmp	 SHORT $LN1@operator@2
$LN79@operator@2:
  00129	c6 45 f9 ec	 mov	 BYTE PTR __t$[ebp+17], -20 ; ffffffecH
  0012d	eb 5b		 jmp	 SHORT $LN1@operator@2
$LN80@operator@2:
  0012f	c6 45 f8 ed	 mov	 BYTE PTR __t$[ebp+16], -19 ; ffffffedH
  00133	eb 55		 jmp	 SHORT $LN1@operator@2
$LN81@operator@2:
  00135	c6 45 f7 ea	 mov	 BYTE PTR __t$[ebp+15], -22 ; ffffffeaH
  00139	eb 4f		 jmp	 SHORT $LN1@operator@2
$LN82@operator@2:
  0013b	88 4d f6	 mov	 BYTE PTR __t$[ebp+14], cl
  0013e	eb 4a		 jmp	 SHORT $LN1@operator@2
$LN84@operator@2:
  00140	c6 45 f4 ed	 mov	 BYTE PTR __t$[ebp+12], -19 ; ffffffedH
  00144	eb 44		 jmp	 SHORT $LN1@operator@2
$LN85@operator@2:
  00146	c6 45 f3 ea	 mov	 BYTE PTR __t$[ebp+11], -22 ; ffffffeaH
  0014a	eb 3e		 jmp	 SHORT $LN1@operator@2
$LN86@operator@2:
  0014c	88 4d f2	 mov	 BYTE PTR __t$[ebp+10], cl
  0014f	eb 39		 jmp	 SHORT $LN1@operator@2
$LN87@operator@2:
  00151	c6 45 f1 ec	 mov	 BYTE PTR __t$[ebp+9], -20 ; ffffffecH
  00155	eb 33		 jmp	 SHORT $LN1@operator@2
$LN88@operator@2:
  00157	c6 45 f0 ed	 mov	 BYTE PTR __t$[ebp+8], -19 ; ffffffedH
  0015b	eb 2d		 jmp	 SHORT $LN1@operator@2
$LN89@operator@2:
  0015d	c6 45 ef ea	 mov	 BYTE PTR __t$[ebp+7], -22 ; ffffffeaH
  00161	eb 27		 jmp	 SHORT $LN1@operator@2
$LN90@operator@2:
  00163	88 4d ee	 mov	 BYTE PTR __t$[ebp+6], cl
  00166	eb 22		 jmp	 SHORT $LN1@operator@2
$LN91@operator@2:
  00168	c6 45 ed ec	 mov	 BYTE PTR __t$[ebp+5], -20 ; ffffffecH
  0016c	eb 1c		 jmp	 SHORT $LN1@operator@2
$LN92@operator@2:
  0016e	c6 45 ec ed	 mov	 BYTE PTR __t$[ebp+4], -19 ; ffffffedH
  00172	eb 16		 jmp	 SHORT $LN1@operator@2
$LN93@operator@2:
  00174	c6 45 eb ea	 mov	 BYTE PTR __t$[ebp+3], -22 ; ffffffeaH
  00178	eb 10		 jmp	 SHORT $LN1@operator@2
$LN94@operator@2:
  0017a	c6 45 ea eb	 mov	 BYTE PTR __t$[ebp+2], -21 ; ffffffebH
  0017e	eb 0a		 jmp	 SHORT $LN1@operator@2
$LN95@operator@2:
  00180	c6 45 e9 ec	 mov	 BYTE PTR __t$[ebp+1], -20 ; ffffffecH
  00184	eb 04		 jmp	 SHORT $LN1@operator@2
$LN96@operator@2:
  00186	c6 45 e8 ed	 mov	 BYTE PTR __t$[ebp], -19	; ffffffedH
$LN1@operator@2:
  0018a	6a 03		 push	 3
  0018c	8d 45 e8	 lea	 eax, DWORD PTR __t$[ebp]
  0018f	c6 45 f5 00	 mov	 BYTE PTR __t$[ebp+13], 0
  00193	5a		 pop	 edx
$LL104@operator@2:
  00194	81 30 ed ec eb
	ea		 xor	 DWORD PTR [eax], -353637139 ; eaebecedH
  0019a	83 c0 04	 add	 eax, 4
  0019d	4a		 dec	 edx
  0019e	75 f4		 jne	 SHORT $LL104@operator@2
  001a0	80 75 f4 ed	 xor	 BYTE PTR __t$[ebp+12], -19 ; ffffffedH
  001a4	8b cf		 mov	 ecx, edi
  001a6	8d 75 e8	 lea	 esi, DWORD PTR __t$[ebp]
  001a9	ff 15 00 00 00
	00		 call	 DWORD PTR __imp_?c_str@ioHashString@@QBEPBDXZ
$LL111@operator@2:
  001af	8a 08		 mov	 cl, BYTE PTR [eax]
  001b1	3a 0e		 cmp	 cl, BYTE PTR [esi]
  001b3	75 1a		 jne	 SHORT $LN112@operator@2
  001b5	84 c9		 test	 cl, cl
  001b7	74 12		 je	 SHORT $LN113@operator@2
  001b9	8a 48 01	 mov	 cl, BYTE PTR [eax+1]
  001bc	3a 4e 01	 cmp	 cl, BYTE PTR [esi+1]
  001bf	75 0e		 jne	 SHORT $LN112@operator@2
  001c1	83 c0 02	 add	 eax, 2
  001c4	83 c6 02	 add	 esi, 2
  001c7	84 c9		 test	 cl, cl
  001c9	75 e4		 jne	 SHORT $LL111@operator@2
$LN113@operator@2:
  001cb	33 c0		 xor	 eax, eax
  001cd	eb 05		 jmp	 SHORT $LN114@operator@2
$LN112@operator@2:
  001cf	1b c0		 sbb	 eax, eax
  001d1	83 d8 ff	 sbb	 eax, -1
$LN114@operator@2:
  001d4	33 c9		 xor	 ecx, ecx
  001d6	85 c0		 test	 eax, eax
  001d8	0f 94 c0	 sete	 al

; 148  : }

  001db	8b 4d fc	 mov	 ecx, DWORD PTR __$ArrayPad$[ebp]
  001de	5f		 pop	 edi
  001df	33 cd		 xor	 ecx, ebp
  001e1	5e		 pop	 esi
  001e2	e8 00 00 00 00	 call	 @__security_check_cookie@4
  001e7	c9		 leave
  001e8	c3		 ret	 0
??$?8$0O@@@YA_NABVioHashString@@AAY0O@$$CBD@Z ENDP	; operator==<14>
_TEXT	ENDS
PUBLIC	??$_Move@PAPAVioUIRenderImage@@PAPAV1@@std@@YAPAPAVioUIRenderImage@@PAPAV1@00@Z ; std::_Move<ioUIRenderImage * *,ioUIRenderImage * *>
; Function compile flags: /Ogsp
; File c:\program files (x86)\microsoft visual studio 10.0\vc\include\xutility
;	COMDAT ??$_Move@PAPAVioUIRenderImage@@PAPAV1@@std@@YAPAPAVioUIRenderImage@@PAPAV1@00@Z
_TEXT	SEGMENT
__Cat$511010 = -4					; size = 1
__First$ = 8						; size = 4
__Last$ = 12						; size = 4
__Dest$ = 16						; size = 4
??$_Move@PAPAVioUIRenderImage@@PAPAV1@@std@@YAPAPAVioUIRenderImage@@PAPAV1@00@Z PROC ; std::_Move<ioUIRenderImage * *,ioUIRenderImage * *>, COMDAT

; 2533 : 	{	// move [_First, _Last) to [_Dest, ...), unchecked

  00000	55		 push	 ebp
  00001	8b ec		 mov	 ebp, esp
  00003	51		 push	 ecx

; 2534 : 	return (_Move(_First, _Last,
; 2535 : 		_Dest, _Ptr_cat(_First, _Dest)));

  00004	ff 75 fc	 push	 DWORD PTR __Cat$511010[ebp]
  00007	ff 75 10	 push	 DWORD PTR __Dest$[ebp]
  0000a	ff 75 0c	 push	 DWORD PTR __Last$[ebp]
  0000d	ff 75 08	 push	 DWORD PTR __First$[ebp]
  00010	e8 00 00 00 00	 call	 ??$_Move@PAPAVioUIRenderImage@@PAPAV1@@std@@YAPAPAVioUIRenderImage@@PAPAV1@00U_Scalar_ptr_iterator_tag@0@@Z ; std::_Move<ioUIRenderImage * *,ioUIRenderImage * *>
  00015	83 c4 10	 add	 esp, 16			; 00000010H

; 2536 : 	}

  00018	c9		 leave
  00019	c3		 ret	 0
??$_Move@PAPAVioUIRenderImage@@PAPAV1@@std@@YAPAPAVioUIRenderImage@@PAPAV1@00@Z ENDP ; std::_Move<ioUIRenderImage * *,ioUIRenderImage * *>
_TEXT	ENDS
PUBLIC	??$_Destroy_range@V?$allocator@PAVioUIRenderImage@@@std@@@std@@YAXPAPAVioUIRenderImage@@0AAV?$allocator@PAVioUIRenderImage@@@0@@Z ; std::_Destroy_range<std::allocator<ioUIRenderImage *> >
; Function compile flags: /Ogsp
; File c:\program files (x86)\microsoft visual studio 10.0\vc\include\xmemory
;	COMDAT ??$_Destroy_range@V?$allocator@PAVioUIRenderImage@@@std@@@std@@YAXPAPAVioUIRenderImage@@0AAV?$allocator@PAVioUIRenderImage@@@0@@Z
_TEXT	SEGMENT
__First$ = 8						; size = 4
__Last$ = 12						; size = 4
__Al$ = 16						; size = 4
??$_Destroy_range@V?$allocator@PAVioUIRenderImage@@@std@@@std@@YAXPAPAVioUIRenderImage@@0AAV?$allocator@PAVioUIRenderImage@@@0@@Z PROC ; std::_Destroy_range<std::allocator<ioUIRenderImage *> >, COMDAT

; 88   : 	_Destroy_range(_First, _Last, _Al, _Ptr_cat(_First, _Last));
; 89   : 	}

  00000	c3		 ret	 0
??$_Destroy_range@V?$allocator@PAVioUIRenderImage@@@std@@@std@@YAXPAPAVioUIRenderImage@@0AAV?$allocator@PAVioUIRenderImage@@@0@@Z ENDP ; std::_Destroy_range<std::allocator<ioUIRenderImage *> >
_TEXT	ENDS
PUBLIC	_pImage$GSCopy$
PUBLIC	_this$GSCopy$
PUBLIC	_szType$GSCopy$
PUBLIC	__$ArrayPad$
PUBLIC	?AddRenderImage@TimeGateSearchShuffle@@UAEXABVioHashString@@PAVioUIRenderImage@@@Z ; TimeGateSearchShuffle::AddRenderImage
EXTRN	__imp_?AddRenderImage@ioWnd@@UAEXABVioHashString@@PAVioUIRenderImage@@@Z:PROC
; Function compile flags: /Ogsp
; File d:\lost saga for developer\youtube\tutorial\source\src\lsclient\gui\timegatesearchshuffle.cpp
;	COMDAT ?AddRenderImage@TimeGateSearchShuffle@@UAEXABVioHashString@@PAVioUIRenderImage@@@Z
_TEXT	SEGMENT
_pImage$GSCopy$ = -36					; size = 4
_this$GSCopy$ = -32					; size = 4
_szType$GSCopy$ = -28					; size = 4
__t$511314 = -24					; size = 14
__t$511189 = -24					; size = 15
__t$511064 = -24					; size = 15
__$ArrayPad$ = -4					; size = 4
_szType$ = 8						; size = 4
_pImage$ = 12						; size = 4
?AddRenderImage@TimeGateSearchShuffle@@UAEXABVioHashString@@PAVioUIRenderImage@@@Z PROC ; TimeGateSearchShuffle::AddRenderImage, COMDAT
; _this$ = ecx

; 57   : {

  00000	55		 push	 ebp
  00001	8b ec		 mov	 ebp, esp
  00003	83 ec 24	 sub	 esp, 36			; 00000024H
  00006	a1 00 00 00 00	 mov	 eax, DWORD PTR ___security_cookie
  0000b	33 c5		 xor	 eax, ebp
  0000d	89 45 fc	 mov	 DWORD PTR __$ArrayPad$[ebp], eax
  00010	8b 45 08	 mov	 eax, DWORD PTR _szType$[ebp]
  00013	53		 push	 ebx
  00014	56		 push	 esi
  00015	57		 push	 edi

; 67   : 	}
; 68   : 	else if( szType == "ModeImageBack" )

  00016	89 45 e4	 mov	 DWORD PTR _szType$GSCopy$[ebp], eax
  00019	8b 45 0c	 mov	 eax, DWORD PTR _pImage$[ebp]
  0001c	33 db		 xor	 ebx, ebx
  0001e	6a 03		 push	 3
  00020	89 4d e0	 mov	 DWORD PTR _this$GSCopy$[ebp], ecx
  00023	89 45 dc	 mov	 DWORD PTR _pImage$GSCopy$[ebp], eax
  00026	c7 45 e8 bd 9e
	84 89		 mov	 DWORD PTR __t$511064[ebp], -1987797315 ; 89849ebdH
  0002d	c7 45 ec 88 9f
	98 a9		 mov	 DWORD PTR __t$511064[ebp+4], -1449615480 ; a9989f88H
  00034	c7 45 f0 84 9e
	88 86		 mov	 DWORD PTR __t$511064[ebp+8], -2037866876 ; 86889e84H
  0003b	66 c7 45 f4 88
	ad		 mov	 WORD PTR __t$511064[ebp+12], 44424 ; 0000ad88H
  00041	8d 45 e8	 lea	 eax, DWORD PTR __t$511064[ebp]
  00044	88 5d f6	 mov	 BYTE PTR __t$511064[ebp+14], bl
  00047	59		 pop	 ecx
  00048	bf ed ec eb ea	 mov	 edi, -353637139		; eaebecedH
$LL121@AddRenderI:

; 58   : 	if( szType == "ProcessCircleA" )

  0004d	31 38		 xor	 DWORD PTR [eax], edi
  0004f	83 c0 04	 add	 eax, 4
  00052	49		 dec	 ecx
  00053	75 f8		 jne	 SHORT $LL121@AddRenderI
  00055	6a 0c		 push	 12			; 0000000cH
  00057	58		 pop	 eax
$LL118@AddRenderI:
  00058	8b c8		 mov	 ecx, eax
  0005a	81 e1 03 00 00
	80		 and	 ecx, -2147483645	; 80000003H
  00060	79 05		 jns	 SHORT $LN362@AddRenderI
  00062	49		 dec	 ecx
  00063	83 c9 fc	 or	 ecx, -4			; fffffffcH
  00066	41		 inc	 ecx
$LN362@AddRenderI:
  00067	b2 ed		 mov	 dl, -19			; ffffffedH
  00069	2a d1		 sub	 dl, cl
  0006b	30 54 05 e8	 xor	 BYTE PTR __t$511064[ebp+eax], dl
  0006f	40		 inc	 eax
  00070	83 f8 0e	 cmp	 eax, 14			; 0000000eH
  00073	7c e3		 jl	 SHORT $LL118@AddRenderI
  00075	8b 4d e4	 mov	 ecx, DWORD PTR _szType$GSCopy$[ebp]
  00078	8d 75 e8	 lea	 esi, DWORD PTR __t$511064[ebp]
  0007b	ff 15 00 00 00
	00		 call	 DWORD PTR __imp_?c_str@ioHashString@@QBEPBDXZ
$LL350@AddRenderI:
  00081	8a 08		 mov	 cl, BYTE PTR [eax]
  00083	3a 0e		 cmp	 cl, BYTE PTR [esi]
  00085	75 1a		 jne	 SHORT $LN351@AddRenderI
  00087	3a cb		 cmp	 cl, bl
  00089	74 12		 je	 SHORT $LN352@AddRenderI
  0008b	8a 48 01	 mov	 cl, BYTE PTR [eax+1]
  0008e	3a 4e 01	 cmp	 cl, BYTE PTR [esi+1]
  00091	75 0e		 jne	 SHORT $LN351@AddRenderI
  00093	83 c0 02	 add	 eax, 2
  00096	83 c6 02	 add	 esi, 2
  00099	3a cb		 cmp	 cl, bl
  0009b	75 e4		 jne	 SHORT $LL350@AddRenderI
$LN352@AddRenderI:
  0009d	33 c0		 xor	 eax, eax
  0009f	eb 05		 jmp	 SHORT $LN353@AddRenderI
$LN351@AddRenderI:
  000a1	1b c0		 sbb	 eax, eax
  000a3	83 d8 ff	 sbb	 eax, -1
$LN353@AddRenderI:
  000a6	3b c3		 cmp	 eax, ebx
  000a8	75 28		 jne	 SHORT $LN348@AddRenderI

; 59   : 	{
; 60   : 		SAFEDELETE( m_pProcessCircle[0] );

  000aa	8b 75 e0	 mov	 esi, DWORD PTR _this$GSCopy$[ebp]
  000ad	8b 8e 60 01 00
	00		 mov	 ecx, DWORD PTR [esi+352]
  000b3	3b cb		 cmp	 ecx, ebx
  000b5	74 0d		 je	 SHORT $LN8@AddRenderI
  000b7	8b 01		 mov	 eax, DWORD PTR [ecx]
  000b9	6a 01		 push	 1
  000bb	ff 50 40	 call	 DWORD PTR [eax+64]
  000be	89 9e 60 01 00
	00		 mov	 DWORD PTR [esi+352], ebx
$LN8@AddRenderI:

; 61   : 		m_pProcessCircle[0] = pImage;

  000c4	8b 45 dc	 mov	 eax, DWORD PTR _pImage$GSCopy$[ebp]
  000c7	89 86 60 01 00
	00		 mov	 DWORD PTR [esi+352], eax
  000cd	e9 3f 01 00 00	 jmp	 $LN1@AddRenderI
$LN348@AddRenderI:

; 62   : 	}
; 63   : 	else if( szType == "ProcessCircleB" )

  000d2	6a 03		 push	 3
  000d4	c7 45 e8 bd 9e
	84 89		 mov	 DWORD PTR __t$511189[ebp], -1987797315 ; 89849ebdH
  000db	c7 45 ec 88 9f
	98 a9		 mov	 DWORD PTR __t$511189[ebp+4], -1449615480 ; a9989f88H
  000e2	c7 45 f0 84 9e
	88 86		 mov	 DWORD PTR __t$511189[ebp+8], -2037866876 ; 86889e84H
  000e9	66 c7 45 f4 88
	ae		 mov	 WORD PTR __t$511189[ebp+12], 44680 ; 0000ae88H
  000ef	8d 45 e8	 lea	 eax, DWORD PTR __t$511189[ebp]
  000f2	88 5d f6	 mov	 BYTE PTR __t$511189[ebp+14], bl
  000f5	59		 pop	 ecx
$LL227@AddRenderI:
  000f6	31 38		 xor	 DWORD PTR [eax], edi
  000f8	83 c0 04	 add	 eax, 4
  000fb	49		 dec	 ecx
  000fc	75 f8		 jne	 SHORT $LL227@AddRenderI
  000fe	6a 0c		 push	 12			; 0000000cH
  00100	58		 pop	 eax
$LL224@AddRenderI:
  00101	8b c8		 mov	 ecx, eax
  00103	81 e1 03 00 00
	80		 and	 ecx, -2147483645	; 80000003H
  00109	79 05		 jns	 SHORT $LN363@AddRenderI
  0010b	49		 dec	 ecx
  0010c	83 c9 fc	 or	 ecx, -4			; fffffffcH
  0010f	41		 inc	 ecx
$LN363@AddRenderI:
  00110	b2 ed		 mov	 dl, -19			; ffffffedH
  00112	2a d1		 sub	 dl, cl
  00114	30 54 05 e8	 xor	 BYTE PTR __t$511189[ebp+eax], dl
  00118	40		 inc	 eax
  00119	83 f8 0e	 cmp	 eax, 14			; 0000000eH
  0011c	7c e3		 jl	 SHORT $LL224@AddRenderI
  0011e	8b 4d e4	 mov	 ecx, DWORD PTR _szType$GSCopy$[ebp]
  00121	8d 75 e8	 lea	 esi, DWORD PTR __t$511189[ebp]
  00124	ff 15 00 00 00
	00		 call	 DWORD PTR __imp_?c_str@ioHashString@@QBEPBDXZ
$LL354@AddRenderI:
  0012a	8a 08		 mov	 cl, BYTE PTR [eax]
  0012c	3a 0e		 cmp	 cl, BYTE PTR [esi]
  0012e	75 1a		 jne	 SHORT $LN355@AddRenderI
  00130	3a cb		 cmp	 cl, bl
  00132	74 12		 je	 SHORT $LN356@AddRenderI
  00134	8a 48 01	 mov	 cl, BYTE PTR [eax+1]
  00137	3a 4e 01	 cmp	 cl, BYTE PTR [esi+1]
  0013a	75 0e		 jne	 SHORT $LN355@AddRenderI
  0013c	83 c0 02	 add	 eax, 2
  0013f	83 c6 02	 add	 esi, 2
  00142	3a cb		 cmp	 cl, bl
  00144	75 e4		 jne	 SHORT $LL354@AddRenderI
$LN356@AddRenderI:
  00146	33 c0		 xor	 eax, eax
  00148	eb 05		 jmp	 SHORT $LN357@AddRenderI
$LN355@AddRenderI:
  0014a	1b c0		 sbb	 eax, eax
  0014c	83 d8 ff	 sbb	 eax, -1
$LN357@AddRenderI:
  0014f	3b c3		 cmp	 eax, ebx
  00151	75 28		 jne	 SHORT $LN349@AddRenderI

; 64   : 	{
; 65   : 		SAFEDELETE( m_pProcessCircle[1] );

  00153	8b 75 e0	 mov	 esi, DWORD PTR _this$GSCopy$[ebp]
  00156	8b 8e 64 01 00
	00		 mov	 ecx, DWORD PTR [esi+356]
  0015c	3b cb		 cmp	 ecx, ebx
  0015e	74 0d		 je	 SHORT $LN5@AddRenderI
  00160	8b 01		 mov	 eax, DWORD PTR [ecx]
  00162	6a 01		 push	 1
  00164	ff 50 40	 call	 DWORD PTR [eax+64]
  00167	89 9e 64 01 00
	00		 mov	 DWORD PTR [esi+356], ebx
$LN5@AddRenderI:

; 66   : 		m_pProcessCircle[1] = pImage;

  0016d	8b 45 dc	 mov	 eax, DWORD PTR _pImage$GSCopy$[ebp]
  00170	89 86 64 01 00
	00		 mov	 DWORD PTR [esi+356], eax
  00176	e9 96 00 00 00	 jmp	 $LN1@AddRenderI
$LN349@AddRenderI:

; 67   : 	}
; 68   : 	else if( szType == "ModeImageBack" )

  0017b	6a 03		 push	 3
  0017d	c7 45 e8 a0 83
	8f 8f		 mov	 DWORD PTR __t$511314[ebp], -1886420064 ; 8f8f83a0H
  00184	c7 45 ec a4 81
	8a 8d		 mov	 DWORD PTR __t$511314[ebp+4], -1920302684 ; 8d8a81a4H
  0018b	c7 45 f0 88 ae
	8a 89		 mov	 DWORD PTR __t$511314[ebp+8], -1987400056 ; 898aae88H
  00192	8d 45 e8	 lea	 eax, DWORD PTR __t$511314[ebp]
  00195	66 c7 45 f4 86
	00		 mov	 WORD PTR __t$511314[ebp+12], 134 ; 00000086H
  0019b	59		 pop	 ecx
$LL333@AddRenderI:
  0019c	31 38		 xor	 DWORD PTR [eax], edi
  0019e	83 c0 04	 add	 eax, 4
  001a1	49		 dec	 ecx
  001a2	75 f8		 jne	 SHORT $LL333@AddRenderI
  001a4	8b 4d e4	 mov	 ecx, DWORD PTR _szType$GSCopy$[ebp]
  001a7	80 75 f4 ed	 xor	 BYTE PTR __t$511314[ebp+12], -19 ; ffffffedH
  001ab	8d 75 e8	 lea	 esi, DWORD PTR __t$511314[ebp]
  001ae	ff 15 00 00 00
	00		 call	 DWORD PTR __imp_?c_str@ioHashString@@QBEPBDXZ
$LL358@AddRenderI:
  001b4	8a 08		 mov	 cl, BYTE PTR [eax]
  001b6	3a 0e		 cmp	 cl, BYTE PTR [esi]
  001b8	75 1a		 jne	 SHORT $LN359@AddRenderI
  001ba	3a cb		 cmp	 cl, bl
  001bc	74 12		 je	 SHORT $LN360@AddRenderI
  001be	8a 48 01	 mov	 cl, BYTE PTR [eax+1]
  001c1	3a 4e 01	 cmp	 cl, BYTE PTR [esi+1]
  001c4	75 0e		 jne	 SHORT $LN359@AddRenderI
  001c6	83 c0 02	 add	 eax, 2
  001c9	83 c6 02	 add	 esi, 2
  001cc	3a cb		 cmp	 cl, bl
  001ce	75 e4		 jne	 SHORT $LL358@AddRenderI
$LN360@AddRenderI:
  001d0	33 c0		 xor	 eax, eax
  001d2	eb 05		 jmp	 SHORT $LN361@AddRenderI
$LN359@AddRenderI:
  001d4	1b c0		 sbb	 eax, eax
  001d6	83 d8 ff	 sbb	 eax, -1
$LN361@AddRenderI:
  001d9	3b c3		 cmp	 eax, ebx
  001db	75 25		 jne	 SHORT $LN3@AddRenderI

; 69   : 	{
; 70   : 		SAFEDELETE( m_pModeImageBack );

  001dd	8b 75 e0	 mov	 esi, DWORD PTR _this$GSCopy$[ebp]
  001e0	8b 8e 68 01 00
	00		 mov	 ecx, DWORD PTR [esi+360]
  001e6	3b cb		 cmp	 ecx, ebx
  001e8	74 0d		 je	 SHORT $LN2@AddRenderI
  001ea	8b 01		 mov	 eax, DWORD PTR [ecx]
  001ec	6a 01		 push	 1
  001ee	ff 50 40	 call	 DWORD PTR [eax+64]
  001f1	89 9e 68 01 00
	00		 mov	 DWORD PTR [esi+360], ebx
$LN2@AddRenderI:

; 71   : 		m_pModeImageBack = pImage;

  001f7	8b 45 dc	 mov	 eax, DWORD PTR _pImage$GSCopy$[ebp]
  001fa	89 86 68 01 00
	00		 mov	 DWORD PTR [esi+360], eax

; 72   : 	}
; 73   : 	else

  00200	eb 0f		 jmp	 SHORT $LN1@AddRenderI
$LN3@AddRenderI:

; 74   : 	{
; 75   : 		ioWnd::AddRenderImage( szType, pImage );

  00202	ff 75 dc	 push	 DWORD PTR _pImage$GSCopy$[ebp]
  00205	8b 4d e0	 mov	 ecx, DWORD PTR _this$GSCopy$[ebp]
  00208	ff 75 e4	 push	 DWORD PTR _szType$GSCopy$[ebp]
  0020b	ff 15 00 00 00
	00		 call	 DWORD PTR __imp_?AddRenderImage@ioWnd@@UAEXABVioHashString@@PAVioUIRenderImage@@@Z
$LN1@AddRenderI:

; 76   : 	}
; 77   : }

  00211	8b 4d fc	 mov	 ecx, DWORD PTR __$ArrayPad$[ebp]
  00214	5f		 pop	 edi
  00215	5e		 pop	 esi
  00216	33 cd		 xor	 ecx, ebp
  00218	5b		 pop	 ebx
  00219	e8 00 00 00 00	 call	 @__security_check_cookie@4
  0021e	c9		 leave
  0021f	c2 08 00	 ret	 8
?AddRenderImage@TimeGateSearchShuffle@@UAEXABVioHashString@@PAVioUIRenderImage@@@Z ENDP ; TimeGateSearchShuffle::AddRenderImage
_TEXT	ENDS
PUBLIC	??0?$vector@PAVioUIRenderImage@@V?$allocator@PAVioUIRenderImage@@@std@@@std@@QAE@XZ ; std::vector<ioUIRenderImage *,std::allocator<ioUIRenderImage *> >::vector<ioUIRenderImage *,std::allocator<ioUIRenderImage *> >
; Function compile flags: /Ogsp
; File c:\program files (x86)\microsoft visual studio 10.0\vc\include\vector
;	COMDAT ??0?$vector@PAVioUIRenderImage@@V?$allocator@PAVioUIRenderImage@@@std@@@std@@QAE@XZ
_TEXT	SEGMENT
??0?$vector@PAVioUIRenderImage@@V?$allocator@PAVioUIRenderImage@@@std@@@std@@QAE@XZ PROC ; std::vector<ioUIRenderImage *,std::allocator<ioUIRenderImage *> >::vector<ioUIRenderImage *,std::allocator<ioUIRenderImage *> >, COMDAT
; _this$ = ecx

; 507  : 		{	// construct empty vector

  00000	8b c1		 mov	 eax, ecx
  00002	33 c9		 xor	 ecx, ecx
  00004	89 08		 mov	 DWORD PTR [eax], ecx
  00006	89 48 04	 mov	 DWORD PTR [eax+4], ecx
  00009	89 48 08	 mov	 DWORD PTR [eax+8], ecx

; 508  : 		}

  0000c	c3		 ret	 0
??0?$vector@PAVioUIRenderImage@@V?$allocator@PAVioUIRenderImage@@@std@@@std@@QAE@XZ ENDP ; std::vector<ioUIRenderImage *,std::allocator<ioUIRenderImage *> >::vector<ioUIRenderImage *,std::allocator<ioUIRenderImage *> >
_TEXT	ENDS
PUBLIC	??9?$_Vector_const_iterator@V?$_Vector_val@PAVioUIRenderImage@@V?$allocator@PAVioUIRenderImage@@@std@@@std@@@std@@QBE_NABV01@@Z ; std::_Vector_const_iterator<std::_Vector_val<ioUIRenderImage *,std::allocator<ioUIRenderImage *> > >::operator!=
; Function compile flags: /Ogsp
;	COMDAT ??9?$_Vector_const_iterator@V?$_Vector_val@PAVioUIRenderImage@@V?$allocator@PAVioUIRenderImage@@@std@@@std@@@std@@QBE_NABV01@@Z
_TEXT	SEGMENT
__Right$ = 8						; size = 4
??9?$_Vector_const_iterator@V?$_Vector_val@PAVioUIRenderImage@@V?$allocator@PAVioUIRenderImage@@@std@@@std@@@std@@QBE_NABV01@@Z PROC ; std::_Vector_const_iterator<std::_Vector_val<ioUIRenderImage *,std::allocator<ioUIRenderImage *> > >::operator!=, COMDAT
; _this$ = ecx

; 207  : 		{	// test for iterator inequality

  00000	55		 push	 ebp
  00001	8b ec		 mov	 ebp, esp

; 208  : 		return (!(*this == _Right));

  00003	8b 01		 mov	 eax, DWORD PTR [ecx]
  00005	8b 55 08	 mov	 edx, DWORD PTR __Right$[ebp]
  00008	33 c9		 xor	 ecx, ecx
  0000a	3b 02		 cmp	 eax, DWORD PTR [edx]
  0000c	0f 95 c0	 setne	 al

; 209  : 		}

  0000f	5d		 pop	 ebp
  00010	c2 04 00	 ret	 4
??9?$_Vector_const_iterator@V?$_Vector_val@PAVioUIRenderImage@@V?$allocator@PAVioUIRenderImage@@@std@@@std@@@std@@QBE_NABV01@@Z ENDP ; std::_Vector_const_iterator<std::_Vector_val<ioUIRenderImage *,std::allocator<ioUIRenderImage *> > >::operator!=
_TEXT	ENDS
PUBLIC	??0?$_Vector_iterator@V?$_Vector_val@PAVioUIRenderImage@@V?$allocator@PAVioUIRenderImage@@@std@@@std@@@std@@QAE@PAPAVioUIRenderImage@@PBU_Container_base0@1@@Z ; std::_Vector_iterator<std::_Vector_val<ioUIRenderImage *,std::allocator<ioUIRenderImage *> > >::_Vector_iterator<std::_Vector_val<ioUIRenderImage *,std::allocator<ioUIRenderImage *> > >
; Function compile flags: /Ogsp
;	COMDAT ??0?$_Vector_iterator@V?$_Vector_val@PAVioUIRenderImage@@V?$allocator@PAVioUIRenderImage@@@std@@@std@@@std@@QAE@PAPAVioUIRenderImage@@PBU_Container_base0@1@@Z
_TEXT	SEGMENT
__Parg$ = 8						; size = 4
__Pvector$ = 12						; size = 4
??0?$_Vector_iterator@V?$_Vector_val@PAVioUIRenderImage@@V?$allocator@PAVioUIRenderImage@@@std@@@std@@@std@@QAE@PAPAVioUIRenderImage@@PBU_Container_base0@1@@Z PROC ; std::_Vector_iterator<std::_Vector_val<ioUIRenderImage *,std::allocator<ioUIRenderImage *> > >::_Vector_iterator<std::_Vector_val<ioUIRenderImage *,std::allocator<ioUIRenderImage *> > >, COMDAT
; _this$ = ecx

; 304  : 		{	// construct with pointer _Parg

  00000	55		 push	 ebp
  00001	8b ec		 mov	 ebp, esp
  00003	8b c1		 mov	 eax, ecx
  00005	8b 4d 08	 mov	 ecx, DWORD PTR __Parg$[ebp]
  00008	89 08		 mov	 DWORD PTR [eax], ecx

; 305  : 		}

  0000a	5d		 pop	 ebp
  0000b	c2 08 00	 ret	 8
??0?$_Vector_iterator@V?$_Vector_val@PAVioUIRenderImage@@V?$allocator@PAVioUIRenderImage@@@std@@@std@@@std@@QAE@PAPAVioUIRenderImage@@PBU_Container_base0@1@@Z ENDP ; std::_Vector_iterator<std::_Vector_val<ioUIRenderImage *,std::allocator<ioUIRenderImage *> > >::_Vector_iterator<std::_Vector_val<ioUIRenderImage *,std::allocator<ioUIRenderImage *> > >
_TEXT	ENDS
PUBLIC	?_Make_iter@?$vector@PAVioUIRenderImage@@V?$allocator@PAVioUIRenderImage@@@std@@@std@@QBE?AV?$_Vector_iterator@V?$_Vector_val@PAVioUIRenderImage@@V?$allocator@PAVioUIRenderImage@@@std@@@std@@@2@V?$_Vector_const_iterator@V?$_Vector_val@PAVioUIRenderImage@@V?$allocator@PAVioUIRenderImage@@@std@@@std@@@2@@Z ; std::vector<ioUIRenderImage *,std::allocator<ioUIRenderImage *> >::_Make_iter
; Function compile flags: /Ogsp
;	COMDAT ?_Make_iter@?$vector@PAVioUIRenderImage@@V?$allocator@PAVioUIRenderImage@@@std@@@std@@QBE?AV?$_Vector_iterator@V?$_Vector_val@PAVioUIRenderImage@@V?$allocator@PAVioUIRenderImage@@@std@@@std@@@2@V?$_Vector_const_iterator@V?$_Vector_val@PAVioUIRenderImage@@V?$allocator@PAVioUIRenderImage@@@std@@@std@@@2@@Z
_TEXT	SEGMENT
___$ReturnUdt$ = 8					; size = 4
__Where$ = 12						; size = 4
?_Make_iter@?$vector@PAVioUIRenderImage@@V?$allocator@PAVioUIRenderImage@@@std@@@std@@QBE?AV?$_Vector_iterator@V?$_Vector_val@PAVioUIRenderImage@@V?$allocator@PAVioUIRenderImage@@@std@@@std@@@2@V?$_Vector_const_iterator@V?$_Vector_val@PAVioUIRenderImage@@V?$allocator@PAVioUIRenderImage@@@std@@@std@@@2@@Z PROC ; std::vector<ioUIRenderImage *,std::allocator<ioUIRenderImage *> >::_Make_iter, COMDAT
; _this$ = ecx

; 801  : 		{	// make iterator from const_iterator

  00000	55		 push	 ebp
  00001	8b ec		 mov	 ebp, esp

; 802  : 		return (iterator(_Where._Ptr, this));

  00003	8b 45 08	 mov	 eax, DWORD PTR ___$ReturnUdt$[ebp]
  00006	8b 4d 0c	 mov	 ecx, DWORD PTR __Where$[ebp]
  00009	89 08		 mov	 DWORD PTR [eax], ecx

; 803  : 		}

  0000b	5d		 pop	 ebp
  0000c	c2 08 00	 ret	 8
?_Make_iter@?$vector@PAVioUIRenderImage@@V?$allocator@PAVioUIRenderImage@@@std@@@std@@QBE?AV?$_Vector_iterator@V?$_Vector_val@PAVioUIRenderImage@@V?$allocator@PAVioUIRenderImage@@@std@@@std@@@2@V?$_Vector_const_iterator@V?$_Vector_val@PAVioUIRenderImage@@V?$allocator@PAVioUIRenderImage@@@std@@@std@@@2@@Z ENDP ; std::vector<ioUIRenderImage *,std::allocator<ioUIRenderImage *> >::_Make_iter
_TEXT	ENDS
PUBLIC	?_Destroy@?$vector@PAVioUIRenderImage@@V?$allocator@PAVioUIRenderImage@@@std@@@std@@IAEXPAPAVioUIRenderImage@@0@Z ; std::vector<ioUIRenderImage *,std::allocator<ioUIRenderImage *> >::_Destroy
; Function compile flags: /Ogsp
;	COMDAT ?_Destroy@?$vector@PAVioUIRenderImage@@V?$allocator@PAVioUIRenderImage@@@std@@@std@@IAEXPAPAVioUIRenderImage@@0@Z
_TEXT	SEGMENT
__First$ = 8						; size = 4
__Last$ = 12						; size = 4
?_Destroy@?$vector@PAVioUIRenderImage@@V?$allocator@PAVioUIRenderImage@@@std@@@std@@IAEXPAPAVioUIRenderImage@@0@Z PROC ; std::vector<ioUIRenderImage *,std::allocator<ioUIRenderImage *> >::_Destroy, COMDAT
; _this$ = ecx

; 1270 : 		_Destroy_range(_First, _Last, this->_Alval);
; 1271 : 		}

  00000	c2 08 00	 ret	 8
?_Destroy@?$vector@PAVioUIRenderImage@@V?$allocator@PAVioUIRenderImage@@@std@@@std@@IAEXPAPAVioUIRenderImage@@0@Z ENDP ; std::vector<ioUIRenderImage *,std::allocator<ioUIRenderImage *> >::_Destroy
_TEXT	ENDS
PUBLIC	?begin@?$vector@PAVioUIRenderImage@@V?$allocator@PAVioUIRenderImage@@@std@@@std@@QAE?AV?$_Vector_iterator@V?$_Vector_val@PAVioUIRenderImage@@V?$allocator@PAVioUIRenderImage@@@std@@@std@@@2@XZ ; std::vector<ioUIRenderImage *,std::allocator<ioUIRenderImage *> >::begin
; Function compile flags: /Ogsp
;	COMDAT ?begin@?$vector@PAVioUIRenderImage@@V?$allocator@PAVioUIRenderImage@@@std@@@std@@QAE?AV?$_Vector_iterator@V?$_Vector_val@PAVioUIRenderImage@@V?$allocator@PAVioUIRenderImage@@@std@@@std@@@2@XZ
_TEXT	SEGMENT
___$ReturnUdt$ = 8					; size = 4
?begin@?$vector@PAVioUIRenderImage@@V?$allocator@PAVioUIRenderImage@@@std@@@std@@QAE?AV?$_Vector_iterator@V?$_Vector_val@PAVioUIRenderImage@@V?$allocator@PAVioUIRenderImage@@@std@@@std@@@2@XZ PROC ; std::vector<ioUIRenderImage *,std::allocator<ioUIRenderImage *> >::begin, COMDAT
; _this$ = ecx

; 781  : 		{	// return iterator for beginning of mutable sequence

  00000	55		 push	 ebp
  00001	8b ec		 mov	 ebp, esp

; 782  : 		return (iterator(this->_Myfirst, this));

  00003	8b 09		 mov	 ecx, DWORD PTR [ecx]
  00005	8b 45 08	 mov	 eax, DWORD PTR ___$ReturnUdt$[ebp]
  00008	89 08		 mov	 DWORD PTR [eax], ecx

; 783  : 		}

  0000a	5d		 pop	 ebp
  0000b	c2 04 00	 ret	 4
?begin@?$vector@PAVioUIRenderImage@@V?$allocator@PAVioUIRenderImage@@@std@@@std@@QAE?AV?$_Vector_iterator@V?$_Vector_val@PAVioUIRenderImage@@V?$allocator@PAVioUIRenderImage@@@std@@@std@@@2@XZ ENDP ; std::vector<ioUIRenderImage *,std::allocator<ioUIRenderImage *> >::begin
_TEXT	ENDS
PUBLIC	?end@?$vector@PAVioUIRenderImage@@V?$allocator@PAVioUIRenderImage@@@std@@@std@@QAE?AV?$_Vector_iterator@V?$_Vector_val@PAVioUIRenderImage@@V?$allocator@PAVioUIRenderImage@@@std@@@std@@@2@XZ ; std::vector<ioUIRenderImage *,std::allocator<ioUIRenderImage *> >::end
; Function compile flags: /Ogsp
;	COMDAT ?end@?$vector@PAVioUIRenderImage@@V?$allocator@PAVioUIRenderImage@@@std@@@std@@QAE?AV?$_Vector_iterator@V?$_Vector_val@PAVioUIRenderImage@@V?$allocator@PAVioUIRenderImage@@@std@@@std@@@2@XZ
_TEXT	SEGMENT
___$ReturnUdt$ = 8					; size = 4
?end@?$vector@PAVioUIRenderImage@@V?$allocator@PAVioUIRenderImage@@@std@@@std@@QAE?AV?$_Vector_iterator@V?$_Vector_val@PAVioUIRenderImage@@V?$allocator@PAVioUIRenderImage@@@std@@@std@@@2@XZ PROC ; std::vector<ioUIRenderImage *,std::allocator<ioUIRenderImage *> >::end, COMDAT
; _this$ = ecx

; 791  : 		{	// return iterator for end of mutable sequence

  00000	55		 push	 ebp
  00001	8b ec		 mov	 ebp, esp

; 792  : 		return (iterator(this->_Mylast, this));

  00003	8b 49 04	 mov	 ecx, DWORD PTR [ecx+4]
  00006	8b 45 08	 mov	 eax, DWORD PTR ___$ReturnUdt$[ebp]
  00009	89 08		 mov	 DWORD PTR [eax], ecx

; 793  : 		}

  0000b	5d		 pop	 ebp
  0000c	c2 04 00	 ret	 4
?end@?$vector@PAVioUIRenderImage@@V?$allocator@PAVioUIRenderImage@@@std@@@std@@QAE?AV?$_Vector_iterator@V?$_Vector_val@PAVioUIRenderImage@@V?$allocator@PAVioUIRenderImage@@@std@@@std@@@2@XZ ENDP ; std::vector<ioUIRenderImage *,std::allocator<ioUIRenderImage *> >::end
_TEXT	ENDS
PUBLIC	?erase@?$vector@PAVioUIRenderImage@@V?$allocator@PAVioUIRenderImage@@@std@@@std@@QAE?AV?$_Vector_iterator@V?$_Vector_val@PAVioUIRenderImage@@V?$allocator@PAVioUIRenderImage@@@std@@@std@@@2@V?$_Vector_const_iterator@V?$_Vector_val@PAVioUIRenderImage@@V?$allocator@PAVioUIRenderImage@@@std@@@std@@@2@0@Z ; std::vector<ioUIRenderImage *,std::allocator<ioUIRenderImage *> >::erase
; Function compile flags: /Ogsp
;	COMDAT ?erase@?$vector@PAVioUIRenderImage@@V?$allocator@PAVioUIRenderImage@@@std@@@std@@QAE?AV?$_Vector_iterator@V?$_Vector_val@PAVioUIRenderImage@@V?$allocator@PAVioUIRenderImage@@@std@@@std@@@2@V?$_Vector_const_iterator@V?$_Vector_val@PAVioUIRenderImage@@V?$allocator@PAVioUIRenderImage@@@std@@@std@@@2@0@Z
_TEXT	SEGMENT
___$ReturnUdt$ = 8					; size = 4
__First_arg$ = 12					; size = 4
__Cat$511626 = 16					; size = 1
__Last_arg$ = 16					; size = 4
?erase@?$vector@PAVioUIRenderImage@@V?$allocator@PAVioUIRenderImage@@@std@@@std@@QAE?AV?$_Vector_iterator@V?$_Vector_val@PAVioUIRenderImage@@V?$allocator@PAVioUIRenderImage@@@std@@@std@@@2@V?$_Vector_const_iterator@V?$_Vector_val@PAVioUIRenderImage@@V?$allocator@PAVioUIRenderImage@@@std@@@std@@@2@0@Z PROC ; std::vector<ioUIRenderImage *,std::allocator<ioUIRenderImage *> >::erase, COMDAT
; _this$ = ecx

; 1190 : 		{	// erase [_First, _Last)

  00000	55		 push	 ebp
  00001	8b ec		 mov	 ebp, esp

; 1191 : 		iterator _First = _Make_iter(_First_arg);

  00003	8b 45 0c	 mov	 eax, DWORD PTR __First_arg$[ebp]
  00006	56		 push	 esi
  00007	57		 push	 edi
  00008	8b 7d 08	 mov	 edi, DWORD PTR ___$ReturnUdt$[ebp]
  0000b	8b f1		 mov	 esi, ecx
  0000d	89 07		 mov	 DWORD PTR [edi], eax

; 1192 : 		iterator _Last = _Make_iter(_Last_arg);
; 1193 : 
; 1194 : 		if (_First != _Last)

  0000f	3b 45 10	 cmp	 eax, DWORD PTR __Last_arg$[ebp]
  00012	74 16		 je	 SHORT $LN1@erase

; 1195 : 			{	// worth doing, copy down over hole
; 1196 :  #if _ITERATOR_DEBUG_LEVEL == 2
; 1197 : 			if (_Last < _First || _VICONT(_First) != this
; 1198 : 				|| _VIPTR(_First) < this->_Myfirst
; 1199 : 				|| this->_Mylast < _VIPTR(_Last))
; 1200 : 				_DEBUG_ERROR("vector erase iterator outside range");
; 1201 : 			pointer _Ptr = _Move(_VIPTR(_Last), this->_Mylast,
; 1202 : 				_VIPTR(_First));
; 1203 : 			_Orphan_range(_VIPTR(_First), this->_Mylast);
; 1204 : 
; 1205 :  #else /* _ITERATOR_DEBUG_LEVEL == 2 */
; 1206 : 			pointer _Ptr = _Move(_VIPTR(_Last), this->_Mylast,
; 1207 : 				_VIPTR(_First));

  00014	ff 75 10	 push	 DWORD PTR __Cat$511626[ebp]
  00017	8b 4e 04	 mov	 ecx, DWORD PTR [esi+4]
  0001a	50		 push	 eax
  0001b	51		 push	 ecx
  0001c	ff 75 10	 push	 DWORD PTR __Last_arg$[ebp]
  0001f	e8 00 00 00 00	 call	 ??$_Move@PAPAVioUIRenderImage@@PAPAV1@@std@@YAPAPAVioUIRenderImage@@PAPAV1@00U_Scalar_ptr_iterator_tag@0@@Z ; std::_Move<ioUIRenderImage * *,ioUIRenderImage * *>
  00024	83 c4 10	 add	 esp, 16			; 00000010H

; 1208 :  #endif /* _ITERATOR_DEBUG_LEVEL == 2 */
; 1209 : 
; 1210 : 			_Destroy(_Ptr, this->_Mylast);
; 1211 : 			this->_Mylast = _Ptr;

  00027	89 46 04	 mov	 DWORD PTR [esi+4], eax
$LN1@erase:

; 1212 : 			}
; 1213 : 		return (_First);

  0002a	8b c7		 mov	 eax, edi
  0002c	5f		 pop	 edi
  0002d	5e		 pop	 esi

; 1214 : 		}

  0002e	5d		 pop	 ebp
  0002f	c2 0c 00	 ret	 12			; 0000000cH
?erase@?$vector@PAVioUIRenderImage@@V?$allocator@PAVioUIRenderImage@@@std@@@std@@QAE?AV?$_Vector_iterator@V?$_Vector_val@PAVioUIRenderImage@@V?$allocator@PAVioUIRenderImage@@@std@@@std@@@2@V?$_Vector_const_iterator@V?$_Vector_val@PAVioUIRenderImage@@V?$allocator@PAVioUIRenderImage@@@std@@@std@@@2@0@Z ENDP ; std::vector<ioUIRenderImage *,std::allocator<ioUIRenderImage *> >::erase
_TEXT	ENDS
PUBLIC	?_Tidy@?$vector@PAVioUIRenderImage@@V?$allocator@PAVioUIRenderImage@@@std@@@std@@IAEXXZ ; std::vector<ioUIRenderImage *,std::allocator<ioUIRenderImage *> >::_Tidy
EXTRN	__imp_?_Orphan_all@_Container_base0@std@@QAEXXZ:PROC
; Function compile flags: /Ogsp
;	COMDAT ?_Tidy@?$vector@PAVioUIRenderImage@@V?$allocator@PAVioUIRenderImage@@@std@@@std@@IAEXXZ
_TEXT	SEGMENT
?_Tidy@?$vector@PAVioUIRenderImage@@V?$allocator@PAVioUIRenderImage@@@std@@@std@@IAEXXZ PROC ; std::vector<ioUIRenderImage *,std::allocator<ioUIRenderImage *> >::_Tidy, COMDAT
; _this$ = ecx

; 1301 : 		{	// free all storage

  00000	56		 push	 esi
  00001	8b f1		 mov	 esi, ecx

; 1302 : 		if (this->_Myfirst != 0)

  00003	83 3e 00	 cmp	 DWORD PTR [esi], 0
  00006	74 0e		 je	 SHORT $LN12@Tidy

; 1303 : 			{	// something to free, destroy and deallocate it
; 1304 : 			this->_Orphan_all();

  00008	ff 15 00 00 00
	00		 call	 DWORD PTR __imp_?_Orphan_all@_Container_base0@std@@QAEXXZ

; 1305 : 			_Destroy(this->_Myfirst, this->_Mylast);
; 1306 : 			this->_Alval.deallocate(this->_Myfirst,
; 1307 : 				this->_Myend - this->_Myfirst);

  0000e	ff 36		 push	 DWORD PTR [esi]
  00010	e8 00 00 00 00	 call	 ??3@YAXPAX@Z		; operator delete
  00015	59		 pop	 ecx
$LN12@Tidy:

; 1308 : 			}
; 1309 : 		this->_Myfirst = 0;

  00016	83 26 00	 and	 DWORD PTR [esi], 0

; 1310 : 		this->_Mylast = 0;

  00019	83 66 04 00	 and	 DWORD PTR [esi+4], 0

; 1311 : 		this->_Myend = 0;

  0001d	83 66 08 00	 and	 DWORD PTR [esi+8], 0
  00021	5e		 pop	 esi

; 1312 : 		}

  00022	c3		 ret	 0
?_Tidy@?$vector@PAVioUIRenderImage@@V?$allocator@PAVioUIRenderImage@@@std@@@std@@IAEXXZ ENDP ; std::vector<ioUIRenderImage *,std::allocator<ioUIRenderImage *> >::_Tidy
_TEXT	ENDS
PUBLIC	??1?$vector@PAVioUIRenderImage@@V?$allocator@PAVioUIRenderImage@@@std@@@std@@QAE@XZ ; std::vector<ioUIRenderImage *,std::allocator<ioUIRenderImage *> >::~vector<ioUIRenderImage *,std::allocator<ioUIRenderImage *> >
; Function compile flags: /Ogsp
;	COMDAT ??1?$vector@PAVioUIRenderImage@@V?$allocator@PAVioUIRenderImage@@@std@@@std@@QAE@XZ
_TEXT	SEGMENT
??1?$vector@PAVioUIRenderImage@@V?$allocator@PAVioUIRenderImage@@@std@@@std@@QAE@XZ PROC ; std::vector<ioUIRenderImage *,std::allocator<ioUIRenderImage *> >::~vector<ioUIRenderImage *,std::allocator<ioUIRenderImage *> >, COMDAT
; _this$ = ecx

; 705  : 		_Tidy();

  00000	e9 00 00 00 00	 jmp	 ?_Tidy@?$vector@PAVioUIRenderImage@@V?$allocator@PAVioUIRenderImage@@@std@@@std@@IAEXXZ ; std::vector<ioUIRenderImage *,std::allocator<ioUIRenderImage *> >::_Tidy
??1?$vector@PAVioUIRenderImage@@V?$allocator@PAVioUIRenderImage@@@std@@@std@@QAE@XZ ENDP ; std::vector<ioUIRenderImage *,std::allocator<ioUIRenderImage *> >::~vector<ioUIRenderImage *,std::allocator<ioUIRenderImage *> >
_TEXT	ENDS
PUBLIC	?clear@?$vector@PAVioUIRenderImage@@V?$allocator@PAVioUIRenderImage@@@std@@@std@@QAEXXZ ; std::vector<ioUIRenderImage *,std::allocator<ioUIRenderImage *> >::clear
; Function compile flags: /Ogsp
;	COMDAT ?clear@?$vector@PAVioUIRenderImage@@V?$allocator@PAVioUIRenderImage@@@std@@@std@@QAEXXZ
_TEXT	SEGMENT
$T511709 = -4						; size = 4
?clear@?$vector@PAVioUIRenderImage@@V?$allocator@PAVioUIRenderImage@@@std@@@std@@QAEXXZ PROC ; std::vector<ioUIRenderImage *,std::allocator<ioUIRenderImage *> >::clear, COMDAT
; _this$ = ecx

; 1217 : 		{	// erase all

  00000	55		 push	 ebp
  00001	8b ec		 mov	 ebp, esp
  00003	51		 push	 ecx

; 1218 : 		erase(begin(), end());

  00004	8b 41 04	 mov	 eax, DWORD PTR [ecx+4]
  00007	8b 11		 mov	 edx, DWORD PTR [ecx]
  00009	50		 push	 eax
  0000a	52		 push	 edx
  0000b	8d 45 fc	 lea	 eax, DWORD PTR $T511709[ebp]
  0000e	50		 push	 eax
  0000f	e8 00 00 00 00	 call	 ?erase@?$vector@PAVioUIRenderImage@@V?$allocator@PAVioUIRenderImage@@@std@@@std@@QAE?AV?$_Vector_iterator@V?$_Vector_val@PAVioUIRenderImage@@V?$allocator@PAVioUIRenderImage@@@std@@@std@@@2@V?$_Vector_const_iterator@V?$_Vector_val@PAVioUIRenderImage@@V?$allocator@PAVioUIRenderImage@@@std@@@std@@@2@0@Z ; std::vector<ioUIRenderImage *,std::allocator<ioUIRenderImage *> >::erase

; 1219 : 		}

  00014	c9		 leave
  00015	c3		 ret	 0
?clear@?$vector@PAVioUIRenderImage@@V?$allocator@PAVioUIRenderImage@@@std@@@std@@QAEXXZ ENDP ; std::vector<ioUIRenderImage *,std::allocator<ioUIRenderImage *> >::clear
_TEXT	ENDS
PUBLIC	??_7TimeGateSearchShuffle@@6B@			; TimeGateSearchShuffle::`vftable'
PUBLIC	??0TimeGateSearchShuffle@@QAE@XZ		; TimeGateSearchShuffle::TimeGateSearchShuffle
PUBLIC	??_R4TimeGateSearchShuffle@@6B@			; TimeGateSearchShuffle::`RTTI Complete Object Locator'
PUBLIC	??_R0?AVTimeGateSearchShuffle@@@8		; TimeGateSearchShuffle `RTTI Type Descriptor'
PUBLIC	??_R3TimeGateSearchShuffle@@8			; TimeGateSearchShuffle::`RTTI Class Hierarchy Descriptor'
PUBLIC	??_R2TimeGateSearchShuffle@@8			; TimeGateSearchShuffle::`RTTI Base Class Array'
PUBLIC	??_R1A@?0A@EA@TimeGateSearchShuffle@@8		; TimeGateSearchShuffle::`RTTI Base Class Descriptor at (0,-1,0,64)'
EXTRN	__EH_epilog3:PROC
EXTRN	__EH_prolog3:PROC
EXTRN	?iwm_spacebar@ioWnd@@UAE_NXZ:PROC		; ioWnd::iwm_spacebar
EXTRN	??_ETimeGateSearchShuffle@@UAEPAXI@Z:PROC	; TimeGateSearchShuffle::`vector deleting destructor'
;	COMDAT ??_R1A@?0A@EA@TimeGateSearchShuffle@@8
; File c:\program files (x86)\microsoft visual studio 10.0\vc\include\xutility
rdata$r	SEGMENT
??_R1A@?0A@EA@TimeGateSearchShuffle@@8 DD FLAT:??_R0?AVTimeGateSearchShuffle@@@8 ; TimeGateSearchShuffle::`RTTI Base Class Descriptor at (0,-1,0,64)'
	DD	01H
	DD	00H
	DD	0ffffffffH
	DD	00H
	DD	040H
	DD	FLAT:??_R3TimeGateSearchShuffle@@8
rdata$r	ENDS
;	COMDAT ??_R2TimeGateSearchShuffle@@8
rdata$r	SEGMENT
??_R2TimeGateSearchShuffle@@8 DD FLAT:??_R1A@?0A@EA@TimeGateSearchShuffle@@8 ; TimeGateSearchShuffle::`RTTI Base Class Array'
	DD	FLAT:??_R1A@?0A@EA@ioWnd@@8
rdata$r	ENDS
;	COMDAT ??_R3TimeGateSearchShuffle@@8
rdata$r	SEGMENT
??_R3TimeGateSearchShuffle@@8 DD 00H			; TimeGateSearchShuffle::`RTTI Class Hierarchy Descriptor'
	DD	00H
	DD	02H
	DD	FLAT:??_R2TimeGateSearchShuffle@@8
rdata$r	ENDS
;	COMDAT ??_R0?AVTimeGateSearchShuffle@@@8
_DATA	SEGMENT
??_R0?AVTimeGateSearchShuffle@@@8 DD FLAT:??_7type_info@@6B@ ; TimeGateSearchShuffle `RTTI Type Descriptor'
	DD	00H
	DB	'.?AVTimeGateSearchShuffle@@', 00H
_DATA	ENDS
;	COMDAT ??_R4TimeGateSearchShuffle@@6B@
rdata$r	SEGMENT
??_R4TimeGateSearchShuffle@@6B@ DD 00H			; TimeGateSearchShuffle::`RTTI Complete Object Locator'
	DD	00H
	DD	00H
	DD	FLAT:??_R0?AVTimeGateSearchShuffle@@@8
	DD	FLAT:??_R3TimeGateSearchShuffle@@8
rdata$r	ENDS
;	COMDAT ??_7TimeGateSearchShuffle@@6B@
CONST	SEGMENT
??_7TimeGateSearchShuffle@@6B@ DD FLAT:??_R4TimeGateSearchShuffle@@6B@ ; TimeGateSearchShuffle::`vftable'
	DD	FLAT:?AddRenderFrame@ioWnd@@UAEXABVioHashString@@PAVioUIRenderFrame@@@Z
	DD	FLAT:?AddRenderImage@TimeGateSearchShuffle@@UAEXABVioHashString@@PAVioUIRenderImage@@@Z
	DD	FLAT:?AddTooltipHelp@ioWnd@@UAEXABVioHashString@@00@Z
	DD	FLAT:?ParseExtraInfo@ioWnd@@UAEXAAVioXMLElement@@@Z
	DD	FLAT:?AddNamedRenderImage@ioWnd@@UAEXABVioHashString@@PAVioUIRenderImage@@@Z
	DD	FLAT:?RemoveNamedRenderImage@ioWnd@@UAEXABVioHashString@@@Z
	DD	FLAT:?GetNamedRenderImage@ioWnd@@UBEPAVioUIRenderImage@@ABVioHashString@@@Z
	DD	FLAT:?SetWindowAlpha@ioWnd@@UAEXH@Z
	DD	FLAT:?SetActive@ioWnd@@UAEXXZ
	DD	FLAT:?SetInActive@ioWnd@@UAEXXZ
	DD	FLAT:?ClearElementImageList@ioWnd@@UAEXXZ
	DD	FLAT:?SetSize@ioWnd@@UAEXHH@Z
	DD	FLAT:?SetPositionToDefault@ioWnd@@UAEXHH_N0@Z
	DD	FLAT:?IsNeedProcess@ioWnd@@UBE_NXZ
	DD	FLAT:?IsCanMouseReaction@ioWnd@@UBE_NXZ
	DD	FLAT:?AddChild@ioWnd@@UAEXPAV1@@Z
	DD	FLAT:?DeleteChild@ioWnd@@UAEXK@Z
	DD	FLAT:?DeleteAllChild@ioWnd@@UAEXXZ
	DD	FLAT:?OnRenderShowAndHide@ioWnd@@MAE_NXZ
	DD	FLAT:?OnRenderShowAndHideByDefault@ioWnd@@MAE_NK@Z
	DD	FLAT:?OnRenderShowAndHideByTop@ioWnd@@MAE_NK@Z
	DD	FLAT:?OnRenderShowAndHideByDown@ioWnd@@MAE_NK@Z
	DD	FLAT:?OnRender@TimeGateSearchShuffle@@MAEXXZ
	DD	FLAT:?OnRenderAfterChild@ioWnd@@MAEXXZ
	DD	FLAT:?OnProcess@TimeGateSearchShuffle@@MAEXM@Z
	DD	FLAT:?OnMouseProcess@ioWnd@@MAEXABVioMouse@@@Z
	DD	FLAT:?CheckFrameReSize@ioWnd@@MAEXHHHH@Z
	DD	FLAT:?RenderImageList@ioWnd@@MAEXHHW4UIRenderType@@@Z
	DD	FLAT:?iwm_create@TimeGateSearchShuffle@@UAEXXZ
	DD	FLAT:?iwm_destroy@ioWnd@@UAEXXZ
	DD	FLAT:?iwm_lbuttondown@ioWnd@@UAEXABVioMouse@@@Z
	DD	FLAT:?iwm_lbuttonup@ioWnd@@UAEXABVioMouse@@@Z
	DD	FLAT:?iwm_lbuttonDBLCLK@ioWnd@@UAEXABVioMouse@@@Z
	DD	FLAT:?iwm_rbuttondown@ioWnd@@UAEXABVioMouse@@@Z
	DD	FLAT:?iwm_rbuttonup@ioWnd@@UAEXABVioMouse@@@Z
	DD	FLAT:?iwm_command@TimeGateSearchShuffle@@UAEXPAVioWnd@@HK@Z
	DD	FLAT:?iwm_mouseover@ioWnd@@UAEXABVioMouse@@@Z
	DD	FLAT:?iwm_mousemove@ioWnd@@UAEXABVioMouse@@@Z
	DD	FLAT:?iwm_mouseleave@ioWnd@@UAEXABVioMouse@@@Z
	DD	FLAT:?iwm_vscroll@ioWnd@@UAEXKH@Z
	DD	FLAT:?iwm_wheel@ioWnd@@UAEXH@Z
	DD	FLAT:?iwm_show@TimeGateSearchShuffle@@UAEXXZ
	DD	FLAT:?iwm_hide@TimeGateSearchShuffle@@UAEXXZ
	DD	FLAT:?iwm_esc@TimeGateSearchShuffle@@UAE_NXZ
	DD	FLAT:?iwm_spacebar@ioWnd@@UAE_NXZ
	DD	FLAT:?iwm_gototop@ioWnd@@UAEXXZ
	DD	FLAT:?iwm_dragenter@ioWnd@@UAE?AW4IWDropEffect@@PAVioDragItem@@ABVioMouse@@@Z
	DD	FLAT:?iwm_dragover@ioWnd@@UAE?AW4IWDropEffect@@PAVioDragItem@@ABVioMouse@@@Z
	DD	FLAT:?iwm_dragleave@ioWnd@@UAEXXZ
	DD	FLAT:?iwm_dropitem@ioWnd@@UAE_NPAVioDragItem@@ABVioMouse@@PAV1@@Z
	DD	FLAT:?iwm_dropdone@ioWnd@@UAEXPAVioDragItem@@PAV1@_N@Z
	DD	FLAT:?IsEXType@ioWnd@@UBE_NXZ
	DD	FLAT:?GetWndType@ioWnd@@UBEKXZ
	DD	FLAT:?RenderWnd@ioWnd@@UAEXXZ
	DD	FLAT:?SetIDEX@ioWnd@@UAEXAAK_N@Z
	DD	FLAT:?ParseXML@ioWnd@@UAEXAAVioXMLElement@@@Z
	DD	FLAT:?GetHeaderFileName@ioWnd@@UAEPBDXZ
	DD	FLAT:?GetTemplateName@ioWnd@@UAEPBDXZ
	DD	FLAT:?GetDefClassName@ioWnd@@UBEPBDXZ
	DD	FLAT:?_Clone@ioWnd@@UAEPAV1@XZ
	DD	FLAT:?Copy@ioWnd@@UAEXPAV1@@Z
	DD	FLAT:?Save@ioWnd@@UAE_NAAVioXMLElement@@@Z
	DD	FLAT:?SetSaveData@ioWnd@@UAEXAAVioXMLElement@@@Z
	DD	FLAT:?SetPosX@ioWnd@@UAEXH@Z
	DD	FLAT:?SetPosY@ioWnd@@UAEXH@Z
	DD	FLAT:?SetWidth@ioWnd@@UAEXH@Z
	DD	FLAT:?SetHeight@ioWnd@@UAEXH@Z
	DD	FLAT:?GetNumFixedRenderFrame@ioWnd@@UBEHXZ
	DD	FLAT:?GetFixedRenderFrameType@ioWnd@@UAEPBDH@Z
	DD	FLAT:?GetRenderFrame@ioWnd@@UAEPAPAVioUIRenderElement@@PBD@Z
	DD	FLAT:?GetNumFixedRenderImage@ioWnd@@UBEHXZ
	DD	FLAT:?GetFixedRenderImageType@ioWnd@@UAEPBDH@Z
	DD	FLAT:?GetRenderImage@ioWnd@@UAEPAPAVioUIRenderElement@@PBD@Z
	DD	FLAT:?AddEffect@ioWnd@@UAEXABVioHashString@@PAVioUI3DEffectRender@@@Z
	DD	FLAT:?GetEffect@ioWnd@@UAEPAVioUI3DEffectRender@@VioHashString@@@Z
	DD	FLAT:??_ETimeGateSearchShuffle@@UAEPAXI@Z
CONST	ENDS
;	COMDAT xdata$x
xdata$x	SEGMENT
__unwindtable$??0TimeGateSearchShuffle@@QAE@XZ DD 0ffffffffH
	DD	FLAT:__unwindfunclet$??0TimeGateSearchShuffle@@QAE@XZ$0
	DD	00H
	DD	FLAT:__unwindfunclet$??0TimeGateSearchShuffle@@QAE@XZ$1
__ehfuncinfo$??0TimeGateSearchShuffle@@QAE@XZ DD 019930522H
	DD	02H
	DD	FLAT:__unwindtable$??0TimeGateSearchShuffle@@QAE@XZ
	DD	2 DUP(00H)
	DD	2 DUP(00H)
	DD	00H
	DD	01H
; Function compile flags: /Ogsp
; File d:\lost saga for developer\youtube\tutorial\source\src\lsclient\gui\timegatesearchshuffle.cpp
xdata$x	ENDS
;	COMDAT ??0TimeGateSearchShuffle@@QAE@XZ
_TEXT	SEGMENT
$T511953 = -16						; size = 4
_this$ = -16						; size = 4
__$EHRec$ = -12						; size = 12
??0TimeGateSearchShuffle@@QAE@XZ PROC			; TimeGateSearchShuffle::TimeGateSearchShuffle, COMDAT
; _this$ = ecx

; 25   : {

  00000	6a 04		 push	 4
  00002	b8 00 00 00 00	 mov	 eax, __ehhandler$??0TimeGateSearchShuffle@@QAE@XZ
  00007	e8 00 00 00 00	 call	 __EH_prolog3
  0000c	8b f1		 mov	 esi, ecx
  0000e	89 75 f0	 mov	 DWORD PTR _this$[ebp], esi
  00011	ff 15 00 00 00
	00		 call	 DWORD PTR __imp_??0ioWnd@@QAE@XZ
  00017	33 d2		 xor	 edx, edx
  00019	c7 06 00 00 00
	00		 mov	 DWORD PTR [esi], OFFSET ??_7TimeGateSearchShuffle@@6B@
  0001f	89 55 fc	 mov	 DWORD PTR __$EHRec$[ebp+8], edx
  00022	89 96 6c 01 00
	00		 mov	 DWORD PTR [esi+364], edx
  00028	89 96 70 01 00
	00		 mov	 DWORD PTR [esi+368], edx
  0002e	89 96 74 01 00
	00		 mov	 DWORD PTR [esi+372], edx
  00034	8d be 60 01 00
	00		 lea	 edi, DWORD PTR [esi+352]

; 26   : 	for( int i=0; i<2; ++i )
; 27   : 		m_pProcessCircle[i] = NULL;

  0003a	33 c0		 xor	 eax, eax
  0003c	ab		 stosd
  0003d	ab		 stosd

; 28   : 
; 29   : 	m_pModeImageBack			= NULL;
; 30   : 	m_dwChangeTime				= 0;
; 31   : 	m_dwChangeDuration			= 200;
; 32   : 
; 33   : 	m_dwChangeProcessCicleTime	= 0;
; 34   : 	m_dwChangeModeImageTime		= 0;
; 35   : 
; 36   : 	m_pCurProcessCircle			= NULL;
; 37   : 	m_pCurModeImage				= NULL;
; 38   : 	m_dwCurrSerachTime			= 0;
; 39   : 
; 40   : 	for( UIRenderImageVec::iterator iter = m_pModeImageVec.begin(); iter != m_pModeImageVec.end(); ++iter )

  0003e	8b be 6c 01 00
	00		 mov	 edi, DWORD PTR [esi+364]
  00044	c6 45 fc 01	 mov	 BYTE PTR __$EHRec$[ebp+8], 1
  00048	89 96 68 01 00
	00		 mov	 DWORD PTR [esi+360], edx
  0004e	89 96 88 01 00
	00		 mov	 DWORD PTR [esi+392], edx
  00054	c7 86 84 01 00
	00 c8 00 00 00	 mov	 DWORD PTR [esi+388], 200 ; 000000c8H
  0005e	89 96 8c 01 00
	00		 mov	 DWORD PTR [esi+396], edx
  00064	89 96 90 01 00
	00		 mov	 DWORD PTR [esi+400], edx
  0006a	89 96 7c 01 00
	00		 mov	 DWORD PTR [esi+380], edx
  00070	89 96 80 01 00
	00		 mov	 DWORD PTR [esi+384], edx
  00076	89 96 9c 01 00
	00		 mov	 DWORD PTR [esi+412], edx
  0007c	eb 15		 jmp	 SHORT $LN83@TimeGateSe
$LL32@TimeGateSe:

; 41   : 	{
; 42   : 		SAFEDELETE( *iter );

  0007e	8b 0f		 mov	 ecx, DWORD PTR [edi]
  00080	3b ca		 cmp	 ecx, edx
  00082	74 0c		 je	 SHORT $LN3@TimeGateSe
  00084	8b 01		 mov	 eax, DWORD PTR [ecx]
  00086	6a 01		 push	 1
  00088	ff 50 40	 call	 DWORD PTR [eax+64]
  0008b	83 27 00	 and	 DWORD PTR [edi], 0
  0008e	33 d2		 xor	 edx, edx
$LN3@TimeGateSe:

; 28   : 
; 29   : 	m_pModeImageBack			= NULL;
; 30   : 	m_dwChangeTime				= 0;
; 31   : 	m_dwChangeDuration			= 200;
; 32   : 
; 33   : 	m_dwChangeProcessCicleTime	= 0;
; 34   : 	m_dwChangeModeImageTime		= 0;
; 35   : 
; 36   : 	m_pCurProcessCircle			= NULL;
; 37   : 	m_pCurModeImage				= NULL;
; 38   : 	m_dwCurrSerachTime			= 0;
; 39   : 
; 40   : 	for( UIRenderImageVec::iterator iter = m_pModeImageVec.begin(); iter != m_pModeImageVec.end(); ++iter )

  00090	83 c7 04	 add	 edi, 4
$LN83@TimeGateSe:
  00093	3b be 70 01 00
	00		 cmp	 edi, DWORD PTR [esi+368]
  00099	75 e3		 jne	 SHORT $LL32@TimeGateSe

; 43   : 	}
; 44   : 	m_pModeImageVec.clear();

  0009b	8b 86 70 01 00
	00		 mov	 eax, DWORD PTR [esi+368]
  000a1	8b 8e 6c 01 00
	00		 mov	 ecx, DWORD PTR [esi+364]
  000a7	50		 push	 eax
  000a8	51		 push	 ecx
  000a9	8d 45 f0	 lea	 eax, DWORD PTR $T511953[ebp]
  000ac	50		 push	 eax
  000ad	8d 8e 6c 01 00
	00		 lea	 ecx, DWORD PTR [esi+364]
  000b3	e8 00 00 00 00	 call	 ?erase@?$vector@PAVioUIRenderImage@@V?$allocator@PAVioUIRenderImage@@@std@@@std@@QAE?AV?$_Vector_iterator@V?$_Vector_val@PAVioUIRenderImage@@V?$allocator@PAVioUIRenderImage@@@std@@@std@@@2@V?$_Vector_const_iterator@V?$_Vector_val@PAVioUIRenderImage@@V?$allocator@PAVioUIRenderImage@@@std@@@std@@@2@0@Z ; std::vector<ioUIRenderImage *,std::allocator<ioUIRenderImage *> >::erase

; 45   : 	
; 46   : }

  000b8	8b c6		 mov	 eax, esi
  000ba	e8 00 00 00 00	 call	 __EH_epilog3
  000bf	c3		 ret	 0
_TEXT	ENDS
;	COMDAT text$x
text$x	SEGMENT
__unwindfunclet$??0TimeGateSearchShuffle@@QAE@XZ$0:
  00000	8b 4d f0	 mov	 ecx, DWORD PTR _this$[ebp]
  00003	ff 25 00 00 00
	00		 jmp	 DWORD PTR __imp_??1ioWnd@@UAE@XZ
__unwindfunclet$??0TimeGateSearchShuffle@@QAE@XZ$1:
  00009	8b 4d f0	 mov	 ecx, DWORD PTR _this$[ebp]
  0000c	81 c1 6c 01 00
	00		 add	 ecx, 364		; 0000016cH
  00012	e9 00 00 00 00	 jmp	 ??1?$vector@PAVioUIRenderImage@@V?$allocator@PAVioUIRenderImage@@@std@@@std@@QAE@XZ ; std::vector<ioUIRenderImage *,std::allocator<ioUIRenderImage *> >::~vector<ioUIRenderImage *,std::allocator<ioUIRenderImage *> >
__ehhandler$??0TimeGateSearchShuffle@@QAE@XZ:
  00017	8b 54 24 08	 mov	 edx, DWORD PTR [esp+8]
  0001b	8d 42 0c	 lea	 eax, DWORD PTR [edx+12]
  0001e	8b 4a ec	 mov	 ecx, DWORD PTR [edx-20]
  00021	33 c8		 xor	 ecx, eax
  00023	e8 00 00 00 00	 call	 @__security_check_cookie@4
  00028	b8 00 00 00 00	 mov	 eax, OFFSET __ehfuncinfo$??0TimeGateSearchShuffle@@QAE@XZ
  0002d	e9 00 00 00 00	 jmp	 ___CxxFrameHandler3
text$x	ENDS
??0TimeGateSearchShuffle@@QAE@XZ ENDP			; TimeGateSearchShuffle::TimeGateSearchShuffle
PUBLIC	??1TimeGateSearchShuffle@@UAE@XZ		; TimeGateSearchShuffle::~TimeGateSearchShuffle
;	COMDAT xdata$x
; File c:\program files (x86)\microsoft visual studio 10.0\vc\include\vector
xdata$x	SEGMENT
__unwindtable$??1TimeGateSearchShuffle@@UAE@XZ DD 0ffffffffH
	DD	FLAT:__unwindfunclet$??1TimeGateSearchShuffle@@UAE@XZ$0
	DD	00H
	DD	FLAT:__unwindfunclet$??1TimeGateSearchShuffle@@UAE@XZ$1
__ehfuncinfo$??1TimeGateSearchShuffle@@UAE@XZ DD 019930522H
	DD	02H
	DD	FLAT:__unwindtable$??1TimeGateSearchShuffle@@UAE@XZ
	DD	2 DUP(00H)
	DD	2 DUP(00H)
	DD	00H
	DD	01H
; Function compile flags: /Ogsp
; File d:\lost saga for developer\youtube\tutorial\source\src\lsclient\gui\timegatesearchshuffle.cpp
xdata$x	ENDS
;	COMDAT ??1TimeGateSearchShuffle@@UAE@XZ
_TEXT	SEGMENT
_this$ = -20						; size = 4
tv66 = -16						; size = 4
__$EHRec$ = -12						; size = 12
??1TimeGateSearchShuffle@@UAE@XZ PROC			; TimeGateSearchShuffle::~TimeGateSearchShuffle, COMDAT
; _this$ = ecx

; 49   : {

  00000	6a 08		 push	 8
  00002	b8 00 00 00 00	 mov	 eax, __ehhandler$??1TimeGateSearchShuffle@@UAE@XZ
  00007	e8 00 00 00 00	 call	 __EH_prolog3
  0000c	8b f9		 mov	 edi, ecx
  0000e	89 7d ec	 mov	 DWORD PTR _this$[ebp], edi
  00011	c7 07 00 00 00
	00		 mov	 DWORD PTR [edi], OFFSET ??_7TimeGateSearchShuffle@@6B@
  00017	c7 45 fc 01 00
	00 00		 mov	 DWORD PTR __$EHRec$[ebp+8], 1
  0001e	8d b7 60 01 00
	00		 lea	 esi, DWORD PTR [edi+352]
  00024	c7 45 f0 02 00
	00 00		 mov	 DWORD PTR tv66[ebp], 2
$LL5@TimeGateSe@2:

; 51   : 		SAFEDELETE( m_pProcessCircle[i] )

  0002b	8b 0e		 mov	 ecx, DWORD PTR [esi]
  0002d	85 c9		 test	 ecx, ecx
  0002f	74 0a		 je	 SHORT $LN4@TimeGateSe@2
  00031	8b 01		 mov	 eax, DWORD PTR [ecx]
  00033	6a 01		 push	 1
  00035	ff 50 40	 call	 DWORD PTR [eax+64]
  00038	83 26 00	 and	 DWORD PTR [esi], 0
$LN4@TimeGateSe@2:

; 50   : 	for( int i=0; i<2; ++i )

  0003b	83 c6 04	 add	 esi, 4
  0003e	ff 4d f0	 dec	 DWORD PTR tv66[ebp]
  00041	75 e8		 jne	 SHORT $LL5@TimeGateSe@2

; 52   : 
; 53   : 	SAFEDELETE( m_pModeImageBack );

  00043	8b 8f 68 01 00
	00		 mov	 ecx, DWORD PTR [edi+360]
  00049	85 c9		 test	 ecx, ecx
  0004b	74 0e		 je	 SHORT $LN1@TimeGateSe@2
  0004d	8b 01		 mov	 eax, DWORD PTR [ecx]
  0004f	6a 01		 push	 1
  00051	ff 50 40	 call	 DWORD PTR [eax+64]
  00054	83 a7 68 01 00
	00 00		 and	 DWORD PTR [edi+360], 0
$LN1@TimeGateSe@2:

; 54   : }

  0005b	8d 8f 6c 01 00
	00		 lea	 ecx, DWORD PTR [edi+364]
  00061	c6 45 fc 00	 mov	 BYTE PTR __$EHRec$[ebp+8], 0
  00065	e8 00 00 00 00	 call	 ?_Tidy@?$vector@PAVioUIRenderImage@@V?$allocator@PAVioUIRenderImage@@@std@@@std@@IAEXXZ ; std::vector<ioUIRenderImage *,std::allocator<ioUIRenderImage *> >::_Tidy
  0006a	83 4d fc ff	 or	 DWORD PTR __$EHRec$[ebp+8], -1
  0006e	8b cf		 mov	 ecx, edi
  00070	ff 15 00 00 00
	00		 call	 DWORD PTR __imp_??1ioWnd@@UAE@XZ
  00076	e8 00 00 00 00	 call	 __EH_epilog3
  0007b	c3		 ret	 0
_TEXT	ENDS
;	COMDAT text$x
text$x	SEGMENT
__unwindfunclet$??1TimeGateSearchShuffle@@UAE@XZ$0:
  00000	8b 4d ec	 mov	 ecx, DWORD PTR _this$[ebp]
  00003	ff 25 00 00 00
	00		 jmp	 DWORD PTR __imp_??1ioWnd@@UAE@XZ
__unwindfunclet$??1TimeGateSearchShuffle@@UAE@XZ$1:
  00009	8b 4d ec	 mov	 ecx, DWORD PTR _this$[ebp]
  0000c	81 c1 6c 01 00
	00		 add	 ecx, 364		; 0000016cH
  00012	e9 00 00 00 00	 jmp	 ??1?$vector@PAVioUIRenderImage@@V?$allocator@PAVioUIRenderImage@@@std@@@std@@QAE@XZ ; std::vector<ioUIRenderImage *,std::allocator<ioUIRenderImage *> >::~vector<ioUIRenderImage *,std::allocator<ioUIRenderImage *> >
__ehhandler$??1TimeGateSearchShuffle@@UAE@XZ:
  00017	8b 54 24 08	 mov	 edx, DWORD PTR [esp+8]
  0001b	8d 42 0c	 lea	 eax, DWORD PTR [edx+12]
  0001e	8b 4a e8	 mov	 ecx, DWORD PTR [edx-24]
  00021	33 c8		 xor	 ecx, eax
  00023	e8 00 00 00 00	 call	 @__security_check_cookie@4
  00028	b8 00 00 00 00	 mov	 eax, OFFSET __ehfuncinfo$??1TimeGateSearchShuffle@@UAE@XZ
  0002d	e9 00 00 00 00	 jmp	 ___CxxFrameHandler3
text$x	ENDS
??1TimeGateSearchShuffle@@UAE@XZ ENDP			; TimeGateSearchShuffle::~TimeGateSearchShuffle
; Function compile flags: /Ogsp
;	COMDAT ??_GTimeGateSearchShuffle@@UAEPAXI@Z
_TEXT	SEGMENT
___flags$ = 8						; size = 4
??_GTimeGateSearchShuffle@@UAEPAXI@Z PROC		; TimeGateSearchShuffle::`scalar deleting destructor', COMDAT
; _this$ = ecx
  00000	55		 push	 ebp
  00001	8b ec		 mov	 ebp, esp
  00003	56		 push	 esi
  00004	8b f1		 mov	 esi, ecx
  00006	e8 00 00 00 00	 call	 ??1TimeGateSearchShuffle@@UAE@XZ ; TimeGateSearchShuffle::~TimeGateSearchShuffle
  0000b	f6 45 08 01	 test	 BYTE PTR ___flags$[ebp], 1
  0000f	74 07		 je	 SHORT $LN1@scalar@2
  00011	56		 push	 esi
  00012	e8 00 00 00 00	 call	 ??3@YAXPAX@Z		; operator delete
  00017	59		 pop	 ecx
$LN1@scalar@2:
  00018	8b c6		 mov	 eax, esi
  0001a	5e		 pop	 esi
  0001b	5d		 pop	 ebp
  0001c	c2 04 00	 ret	 4
??_GTimeGateSearchShuffle@@UAEPAXI@Z ENDP		; TimeGateSearchShuffle::`scalar deleting destructor'
_TEXT	ENDS
END
