; Listing generated by Microsoft (R) Optimizing Compiler Version 16.00.30319.01 

	TITLE	D:\Lost Saga For Developer\Youtube\Tutorial\Source\src\LSClient\GUI\TooltipHelpWnd.cpp
	.686P
	.XMM
	include listing.inc
	.model	flat

INCLUDELIB MSVCRT
INCLUDELIB OLDNAMES

PUBLIC	??_7TooltipHelpWnd@@6B@				; TooltipHelpWnd::`vftable'
PUBLIC	??0TooltipHelpWnd@@QAE@XZ			; TooltipHelpWnd::TooltipHelpWnd
PUBLIC	??_R4TooltipHelpWnd@@6B@			; TooltipHelpWnd::`RTTI Complete Object Locator'
PUBLIC	??_R0?AVTooltipHelpWnd@@@8			; TooltipHelpWnd `RTTI Type Descriptor'
PUBLIC	??_R3TooltipHelpWnd@@8				; TooltipHelpWnd::`RTTI Class Hierarchy Descriptor'
PUBLIC	??_R2TooltipHelpWnd@@8				; TooltipHelpWnd::`RTTI Base Class Array'
PUBLIC	??_R1A@?0A@EA@TooltipHelpWnd@@8			; TooltipHelpWnd::`RTTI Base Class Descriptor at (0,-1,0,64)'
PUBLIC	??_R1A@?0A@EA@ioWnd@@8				; ioWnd::`RTTI Base Class Descriptor at (0,-1,0,64)'
PUBLIC	??_R0?AVioWnd@@@8				; ioWnd `RTTI Type Descriptor'
PUBLIC	??_R3ioWnd@@8					; ioWnd::`RTTI Class Hierarchy Descriptor'
PUBLIC	??_R2ioWnd@@8					; ioWnd::`RTTI Base Class Array'
PUBLIC	?AddRenderImage@TooltipHelpWnd@@UAEXABVioHashString@@PAVioUIRenderImage@@@Z ; TooltipHelpWnd::AddRenderImage
PUBLIC	?OnRender@TooltipHelpWnd@@MAEXXZ		; TooltipHelpWnd::OnRender
PUBLIC	?OnProcess@TooltipHelpWnd@@MAEXM@Z		; TooltipHelpWnd::OnProcess
PUBLIC	?iwm_show@TooltipHelpWnd@@UAEXXZ		; TooltipHelpWnd::iwm_show
PUBLIC	?iwm_hide@TooltipHelpWnd@@UAEXXZ		; TooltipHelpWnd::iwm_hide
EXTRN	__imp_??0ioWnd@@QAE@XZ:PROC
EXTRN	??_7type_info@@6B@:QWORD			; type_info::`vftable'
EXTRN	?AddRenderFrame@ioWnd@@UAEXABVioHashString@@PAVioUIRenderFrame@@@Z:PROC ; ioWnd::AddRenderFrame
EXTRN	?AddTooltipHelp@ioWnd@@UAEXABVioHashString@@00@Z:PROC ; ioWnd::AddTooltipHelp
EXTRN	?ParseExtraInfo@ioWnd@@UAEXAAVioXMLElement@@@Z:PROC ; ioWnd::ParseExtraInfo
EXTRN	?AddNamedRenderImage@ioWnd@@UAEXABVioHashString@@PAVioUIRenderImage@@@Z:PROC ; ioWnd::AddNamedRenderImage
EXTRN	?RemoveNamedRenderImage@ioWnd@@UAEXABVioHashString@@@Z:PROC ; ioWnd::RemoveNamedRenderImage
EXTRN	?GetNamedRenderImage@ioWnd@@UBEPAVioUIRenderImage@@ABVioHashString@@@Z:PROC ; ioWnd::GetNamedRenderImage
EXTRN	?SetWindowAlpha@ioWnd@@UAEXH@Z:PROC		; ioWnd::SetWindowAlpha
EXTRN	?SetActive@ioWnd@@UAEXXZ:PROC			; ioWnd::SetActive
EXTRN	?SetInActive@ioWnd@@UAEXXZ:PROC			; ioWnd::SetInActive
EXTRN	?ClearElementImageList@ioWnd@@UAEXXZ:PROC	; ioWnd::ClearElementImageList
EXTRN	?SetSize@ioWnd@@UAEXHH@Z:PROC			; ioWnd::SetSize
EXTRN	?SetPositionToDefault@ioWnd@@UAEXHH_N0@Z:PROC	; ioWnd::SetPositionToDefault
EXTRN	?IsNeedProcess@ioWnd@@UBE_NXZ:PROC		; ioWnd::IsNeedProcess
EXTRN	?IsCanMouseReaction@ioWnd@@UBE_NXZ:PROC		; ioWnd::IsCanMouseReaction
EXTRN	?AddChild@ioWnd@@UAEXPAV1@@Z:PROC		; ioWnd::AddChild
EXTRN	?DeleteChild@ioWnd@@UAEXK@Z:PROC		; ioWnd::DeleteChild
EXTRN	?DeleteAllChild@ioWnd@@UAEXXZ:PROC		; ioWnd::DeleteAllChild
EXTRN	?OnRenderShowAndHide@ioWnd@@MAE_NXZ:PROC	; ioWnd::OnRenderShowAndHide
EXTRN	?OnRenderShowAndHideByDefault@ioWnd@@MAE_NK@Z:PROC ; ioWnd::OnRenderShowAndHideByDefault
EXTRN	?OnRenderShowAndHideByTop@ioWnd@@MAE_NK@Z:PROC	; ioWnd::OnRenderShowAndHideByTop
EXTRN	?OnRenderShowAndHideByDown@ioWnd@@MAE_NK@Z:PROC	; ioWnd::OnRenderShowAndHideByDown
EXTRN	?OnRenderAfterChild@ioWnd@@MAEXXZ:PROC		; ioWnd::OnRenderAfterChild
EXTRN	?OnMouseProcess@ioWnd@@MAEXABVioMouse@@@Z:PROC	; ioWnd::OnMouseProcess
EXTRN	?CheckFrameReSize@ioWnd@@MAEXHHHH@Z:PROC	; ioWnd::CheckFrameReSize
EXTRN	?RenderImageList@ioWnd@@MAEXHHW4UIRenderType@@@Z:PROC ; ioWnd::RenderImageList
EXTRN	?iwm_create@ioWnd@@UAEXXZ:PROC			; ioWnd::iwm_create
EXTRN	?iwm_destroy@ioWnd@@UAEXXZ:PROC			; ioWnd::iwm_destroy
EXTRN	?iwm_lbuttondown@ioWnd@@UAEXABVioMouse@@@Z:PROC	; ioWnd::iwm_lbuttondown
EXTRN	?iwm_lbuttonup@ioWnd@@UAEXABVioMouse@@@Z:PROC	; ioWnd::iwm_lbuttonup
EXTRN	?iwm_lbuttonDBLCLK@ioWnd@@UAEXABVioMouse@@@Z:PROC ; ioWnd::iwm_lbuttonDBLCLK
EXTRN	?iwm_rbuttondown@ioWnd@@UAEXABVioMouse@@@Z:PROC	; ioWnd::iwm_rbuttondown
EXTRN	?iwm_rbuttonup@ioWnd@@UAEXABVioMouse@@@Z:PROC	; ioWnd::iwm_rbuttonup
EXTRN	?iwm_command@ioWnd@@UAEXPAV1@HK@Z:PROC		; ioWnd::iwm_command
EXTRN	?iwm_mouseover@ioWnd@@UAEXABVioMouse@@@Z:PROC	; ioWnd::iwm_mouseover
EXTRN	?iwm_mousemove@ioWnd@@UAEXABVioMouse@@@Z:PROC	; ioWnd::iwm_mousemove
EXTRN	?iwm_mouseleave@ioWnd@@UAEXABVioMouse@@@Z:PROC	; ioWnd::iwm_mouseleave
EXTRN	?iwm_vscroll@ioWnd@@UAEXKH@Z:PROC		; ioWnd::iwm_vscroll
EXTRN	?iwm_wheel@ioWnd@@UAEXH@Z:PROC			; ioWnd::iwm_wheel
EXTRN	?iwm_esc@ioWnd@@UAE_NXZ:PROC			; ioWnd::iwm_esc
EXTRN	?iwm_spacebar@ioWnd@@UAE_NXZ:PROC		; ioWnd::iwm_spacebar
EXTRN	?iwm_gototop@ioWnd@@UAEXXZ:PROC			; ioWnd::iwm_gototop
EXTRN	?iwm_dragenter@ioWnd@@UAE?AW4IWDropEffect@@PAVioDragItem@@ABVioMouse@@@Z:PROC ; ioWnd::iwm_dragenter
EXTRN	?iwm_dragover@ioWnd@@UAE?AW4IWDropEffect@@PAVioDragItem@@ABVioMouse@@@Z:PROC ; ioWnd::iwm_dragover
EXTRN	?iwm_dragleave@ioWnd@@UAEXXZ:PROC		; ioWnd::iwm_dragleave
EXTRN	?iwm_dropitem@ioWnd@@UAE_NPAVioDragItem@@ABVioMouse@@PAV1@@Z:PROC ; ioWnd::iwm_dropitem
EXTRN	?iwm_dropdone@ioWnd@@UAEXPAVioDragItem@@PAV1@_N@Z:PROC ; ioWnd::iwm_dropdone
EXTRN	?IsEXType@ioWnd@@UBE_NXZ:PROC			; ioWnd::IsEXType
EXTRN	?GetWndType@ioWnd@@UBEKXZ:PROC			; ioWnd::GetWndType
EXTRN	?RenderWnd@ioWnd@@UAEXXZ:PROC			; ioWnd::RenderWnd
EXTRN	?SetIDEX@ioWnd@@UAEXAAK_N@Z:PROC		; ioWnd::SetIDEX
EXTRN	?ParseXML@ioWnd@@UAEXAAVioXMLElement@@@Z:PROC	; ioWnd::ParseXML
EXTRN	?GetHeaderFileName@ioWnd@@UAEPBDXZ:PROC		; ioWnd::GetHeaderFileName
EXTRN	?GetTemplateName@ioWnd@@UAEPBDXZ:PROC		; ioWnd::GetTemplateName
EXTRN	?GetDefClassName@ioWnd@@UBEPBDXZ:PROC		; ioWnd::GetDefClassName
EXTRN	?_Clone@ioWnd@@UAEPAV1@XZ:PROC			; ioWnd::_Clone
EXTRN	?Copy@ioWnd@@UAEXPAV1@@Z:PROC			; ioWnd::Copy
EXTRN	?Save@ioWnd@@UAE_NAAVioXMLElement@@@Z:PROC	; ioWnd::Save
EXTRN	?SetSaveData@ioWnd@@UAEXAAVioXMLElement@@@Z:PROC ; ioWnd::SetSaveData
EXTRN	?SetPosX@ioWnd@@UAEXH@Z:PROC			; ioWnd::SetPosX
EXTRN	?SetPosY@ioWnd@@UAEXH@Z:PROC			; ioWnd::SetPosY
EXTRN	?SetWidth@ioWnd@@UAEXH@Z:PROC			; ioWnd::SetWidth
EXTRN	?SetHeight@ioWnd@@UAEXH@Z:PROC			; ioWnd::SetHeight
EXTRN	?GetNumFixedRenderFrame@ioWnd@@UBEHXZ:PROC	; ioWnd::GetNumFixedRenderFrame
EXTRN	?GetFixedRenderFrameType@ioWnd@@UAEPBDH@Z:PROC	; ioWnd::GetFixedRenderFrameType
EXTRN	?GetRenderFrame@ioWnd@@UAEPAPAVioUIRenderElement@@PBD@Z:PROC ; ioWnd::GetRenderFrame
EXTRN	?GetNumFixedRenderImage@ioWnd@@UBEHXZ:PROC	; ioWnd::GetNumFixedRenderImage
EXTRN	?GetFixedRenderImageType@ioWnd@@UAEPBDH@Z:PROC	; ioWnd::GetFixedRenderImageType
EXTRN	?GetRenderImage@ioWnd@@UAEPAPAVioUIRenderElement@@PBD@Z:PROC ; ioWnd::GetRenderImage
EXTRN	?AddEffect@ioWnd@@UAEXABVioHashString@@PAVioUI3DEffectRender@@@Z:PROC ; ioWnd::AddEffect
EXTRN	?GetEffect@ioWnd@@UAEPAVioUI3DEffectRender@@VioHashString@@@Z:PROC ; ioWnd::GetEffect
EXTRN	??_ETooltipHelpWnd@@UAEPAXI@Z:PROC		; TooltipHelpWnd::`vector deleting destructor'
;	COMDAT ??_R2ioWnd@@8
; File d:\lost saga for developer\youtube\tutorial\source\src\lsclient\gui\tooltiphelpwnd.cpp
rdata$r	SEGMENT
??_R2ioWnd@@8 DD FLAT:??_R1A@?0A@EA@ioWnd@@8		; ioWnd::`RTTI Base Class Array'
rdata$r	ENDS
;	COMDAT ??_R3ioWnd@@8
rdata$r	SEGMENT
??_R3ioWnd@@8 DD 00H					; ioWnd::`RTTI Class Hierarchy Descriptor'
	DD	00H
	DD	01H
	DD	FLAT:??_R2ioWnd@@8
rdata$r	ENDS
;	COMDAT ??_R0?AVioWnd@@@8
_DATA	SEGMENT
??_R0?AVioWnd@@@8 DD FLAT:??_7type_info@@6B@		; ioWnd `RTTI Type Descriptor'
	DD	00H
	DB	'.?AVioWnd@@', 00H
_DATA	ENDS
;	COMDAT ??_R1A@?0A@EA@ioWnd@@8
rdata$r	SEGMENT
??_R1A@?0A@EA@ioWnd@@8 DD FLAT:??_R0?AVioWnd@@@8	; ioWnd::`RTTI Base Class Descriptor at (0,-1,0,64)'
	DD	00H
	DD	00H
	DD	0ffffffffH
	DD	00H
	DD	040H
	DD	FLAT:??_R3ioWnd@@8
rdata$r	ENDS
;	COMDAT ??_R1A@?0A@EA@TooltipHelpWnd@@8
rdata$r	SEGMENT
??_R1A@?0A@EA@TooltipHelpWnd@@8 DD FLAT:??_R0?AVTooltipHelpWnd@@@8 ; TooltipHelpWnd::`RTTI Base Class Descriptor at (0,-1,0,64)'
	DD	01H
	DD	00H
	DD	0ffffffffH
	DD	00H
	DD	040H
	DD	FLAT:??_R3TooltipHelpWnd@@8
rdata$r	ENDS
;	COMDAT ??_R2TooltipHelpWnd@@8
rdata$r	SEGMENT
??_R2TooltipHelpWnd@@8 DD FLAT:??_R1A@?0A@EA@TooltipHelpWnd@@8 ; TooltipHelpWnd::`RTTI Base Class Array'
	DD	FLAT:??_R1A@?0A@EA@ioWnd@@8
rdata$r	ENDS
;	COMDAT ??_R3TooltipHelpWnd@@8
rdata$r	SEGMENT
??_R3TooltipHelpWnd@@8 DD 00H				; TooltipHelpWnd::`RTTI Class Hierarchy Descriptor'
	DD	00H
	DD	02H
	DD	FLAT:??_R2TooltipHelpWnd@@8
rdata$r	ENDS
;	COMDAT ??_R0?AVTooltipHelpWnd@@@8
_DATA	SEGMENT
??_R0?AVTooltipHelpWnd@@@8 DD FLAT:??_7type_info@@6B@	; TooltipHelpWnd `RTTI Type Descriptor'
	DD	00H
	DB	'.?AVTooltipHelpWnd@@', 00H
_DATA	ENDS
;	COMDAT ??_R4TooltipHelpWnd@@6B@
rdata$r	SEGMENT
??_R4TooltipHelpWnd@@6B@ DD 00H				; TooltipHelpWnd::`RTTI Complete Object Locator'
	DD	00H
	DD	00H
	DD	FLAT:??_R0?AVTooltipHelpWnd@@@8
	DD	FLAT:??_R3TooltipHelpWnd@@8
rdata$r	ENDS
;	COMDAT ??_7TooltipHelpWnd@@6B@
CONST	SEGMENT
??_7TooltipHelpWnd@@6B@ DD FLAT:??_R4TooltipHelpWnd@@6B@ ; TooltipHelpWnd::`vftable'
	DD	FLAT:?AddRenderFrame@ioWnd@@UAEXABVioHashString@@PAVioUIRenderFrame@@@Z
	DD	FLAT:?AddRenderImage@TooltipHelpWnd@@UAEXABVioHashString@@PAVioUIRenderImage@@@Z
	DD	FLAT:?AddTooltipHelp@ioWnd@@UAEXABVioHashString@@00@Z
	DD	FLAT:?ParseExtraInfo@ioWnd@@UAEXAAVioXMLElement@@@Z
	DD	FLAT:?AddNamedRenderImage@ioWnd@@UAEXABVioHashString@@PAVioUIRenderImage@@@Z
	DD	FLAT:?RemoveNamedRenderImage@ioWnd@@UAEXABVioHashString@@@Z
	DD	FLAT:?GetNamedRenderImage@ioWnd@@UBEPAVioUIRenderImage@@ABVioHashString@@@Z
	DD	FLAT:?SetWindowAlpha@ioWnd@@UAEXH@Z
	DD	FLAT:?SetActive@ioWnd@@UAEXXZ
	DD	FLAT:?SetInActive@ioWnd@@UAEXXZ
	DD	FLAT:?ClearElementImageList@ioWnd@@UAEXXZ
	DD	FLAT:?SetSize@ioWnd@@UAEXHH@Z
	DD	FLAT:?SetPositionToDefault@ioWnd@@UAEXHH_N0@Z
	DD	FLAT:?IsNeedProcess@ioWnd@@UBE_NXZ
	DD	FLAT:?IsCanMouseReaction@ioWnd@@UBE_NXZ
	DD	FLAT:?AddChild@ioWnd@@UAEXPAV1@@Z
	DD	FLAT:?DeleteChild@ioWnd@@UAEXK@Z
	DD	FLAT:?DeleteAllChild@ioWnd@@UAEXXZ
	DD	FLAT:?OnRenderShowAndHide@ioWnd@@MAE_NXZ
	DD	FLAT:?OnRenderShowAndHideByDefault@ioWnd@@MAE_NK@Z
	DD	FLAT:?OnRenderShowAndHideByTop@ioWnd@@MAE_NK@Z
	DD	FLAT:?OnRenderShowAndHideByDown@ioWnd@@MAE_NK@Z
	DD	FLAT:?OnRender@TooltipHelpWnd@@MAEXXZ
	DD	FLAT:?OnRenderAfterChild@ioWnd@@MAEXXZ
	DD	FLAT:?OnProcess@TooltipHelpWnd@@MAEXM@Z
	DD	FLAT:?OnMouseProcess@ioWnd@@MAEXABVioMouse@@@Z
	DD	FLAT:?CheckFrameReSize@ioWnd@@MAEXHHHH@Z
	DD	FLAT:?RenderImageList@ioWnd@@MAEXHHW4UIRenderType@@@Z
	DD	FLAT:?iwm_create@ioWnd@@UAEXXZ
	DD	FLAT:?iwm_destroy@ioWnd@@UAEXXZ
	DD	FLAT:?iwm_lbuttondown@ioWnd@@UAEXABVioMouse@@@Z
	DD	FLAT:?iwm_lbuttonup@ioWnd@@UAEXABVioMouse@@@Z
	DD	FLAT:?iwm_lbuttonDBLCLK@ioWnd@@UAEXABVioMouse@@@Z
	DD	FLAT:?iwm_rbuttondown@ioWnd@@UAEXABVioMouse@@@Z
	DD	FLAT:?iwm_rbuttonup@ioWnd@@UAEXABVioMouse@@@Z
	DD	FLAT:?iwm_command@ioWnd@@UAEXPAV1@HK@Z
	DD	FLAT:?iwm_mouseover@ioWnd@@UAEXABVioMouse@@@Z
	DD	FLAT:?iwm_mousemove@ioWnd@@UAEXABVioMouse@@@Z
	DD	FLAT:?iwm_mouseleave@ioWnd@@UAEXABVioMouse@@@Z
	DD	FLAT:?iwm_vscroll@ioWnd@@UAEXKH@Z
	DD	FLAT:?iwm_wheel@ioWnd@@UAEXH@Z
	DD	FLAT:?iwm_show@TooltipHelpWnd@@UAEXXZ
	DD	FLAT:?iwm_hide@TooltipHelpWnd@@UAEXXZ
	DD	FLAT:?iwm_esc@ioWnd@@UAE_NXZ
	DD	FLAT:?iwm_spacebar@ioWnd@@UAE_NXZ
	DD	FLAT:?iwm_gototop@ioWnd@@UAEXXZ
	DD	FLAT:?iwm_dragenter@ioWnd@@UAE?AW4IWDropEffect@@PAVioDragItem@@ABVioMouse@@@Z
	DD	FLAT:?iwm_dragover@ioWnd@@UAE?AW4IWDropEffect@@PAVioDragItem@@ABVioMouse@@@Z
	DD	FLAT:?iwm_dragleave@ioWnd@@UAEXXZ
	DD	FLAT:?iwm_dropitem@ioWnd@@UAE_NPAVioDragItem@@ABVioMouse@@PAV1@@Z
	DD	FLAT:?iwm_dropdone@ioWnd@@UAEXPAVioDragItem@@PAV1@_N@Z
	DD	FLAT:?IsEXType@ioWnd@@UBE_NXZ
	DD	FLAT:?GetWndType@ioWnd@@UBEKXZ
	DD	FLAT:?RenderWnd@ioWnd@@UAEXXZ
	DD	FLAT:?SetIDEX@ioWnd@@UAEXAAK_N@Z
	DD	FLAT:?ParseXML@ioWnd@@UAEXAAVioXMLElement@@@Z
	DD	FLAT:?GetHeaderFileName@ioWnd@@UAEPBDXZ
	DD	FLAT:?GetTemplateName@ioWnd@@UAEPBDXZ
	DD	FLAT:?GetDefClassName@ioWnd@@UBEPBDXZ
	DD	FLAT:?_Clone@ioWnd@@UAEPAV1@XZ
	DD	FLAT:?Copy@ioWnd@@UAEXPAV1@@Z
	DD	FLAT:?Save@ioWnd@@UAE_NAAVioXMLElement@@@Z
	DD	FLAT:?SetSaveData@ioWnd@@UAEXAAVioXMLElement@@@Z
	DD	FLAT:?SetPosX@ioWnd@@UAEXH@Z
	DD	FLAT:?SetPosY@ioWnd@@UAEXH@Z
	DD	FLAT:?SetWidth@ioWnd@@UAEXH@Z
	DD	FLAT:?SetHeight@ioWnd@@UAEXH@Z
	DD	FLAT:?GetNumFixedRenderFrame@ioWnd@@UBEHXZ
	DD	FLAT:?GetFixedRenderFrameType@ioWnd@@UAEPBDH@Z
	DD	FLAT:?GetRenderFrame@ioWnd@@UAEPAPAVioUIRenderElement@@PBD@Z
	DD	FLAT:?GetNumFixedRenderImage@ioWnd@@UBEHXZ
	DD	FLAT:?GetFixedRenderImageType@ioWnd@@UAEPBDH@Z
	DD	FLAT:?GetRenderImage@ioWnd@@UAEPAPAVioUIRenderElement@@PBD@Z
	DD	FLAT:?AddEffect@ioWnd@@UAEXABVioHashString@@PAVioUI3DEffectRender@@@Z
	DD	FLAT:?GetEffect@ioWnd@@UAEPAVioUI3DEffectRender@@VioHashString@@@Z
	DD	FLAT:??_ETooltipHelpWnd@@UAEPAXI@Z
; Function compile flags: /Ogsp
CONST	ENDS
;	COMDAT ??0TooltipHelpWnd@@QAE@XZ
_TEXT	SEGMENT
??0TooltipHelpWnd@@QAE@XZ PROC				; TooltipHelpWnd::TooltipHelpWnd, COMDAT
; _this$ = ecx

; 22   : {

  00000	56		 push	 esi
  00001	8b f1		 mov	 esi, ecx
  00003	ff 15 00 00 00
	00		 call	 DWORD PTR __imp_??0ioWnd@@QAE@XZ

; 23   : 	m_iTooltipType	  = TOOLTIP_LEFTTOP;
; 24   : 	m_pPrevTooltipWnd = NULL;

  00009	33 c0		 xor	 eax, eax
  0000b	89 86 88 01 00
	00		 mov	 DWORD PTR [esi+392], eax

; 25   : 
; 26   : 	m_pTopLeft	  = NULL;

  00011	89 86 60 01 00
	00		 mov	 DWORD PTR [esi+352], eax

; 27   : 	m_pTopEdge	  = NULL;

  00017	89 86 64 01 00
	00		 mov	 DWORD PTR [esi+356], eax

; 28   : 	m_pTopRight	  = NULL;

  0001d	89 86 68 01 00
	00		 mov	 DWORD PTR [esi+360], eax

; 29   : 	m_pLeftEdge   = NULL;

  00023	89 86 6c 01 00
	00		 mov	 DWORD PTR [esi+364], eax

; 30   : 	m_pCenter	  = NULL;

  00029	89 86 70 01 00
	00		 mov	 DWORD PTR [esi+368], eax

; 31   : 	m_pRightEdge  = NULL;

  0002f	89 86 74 01 00
	00		 mov	 DWORD PTR [esi+372], eax

; 32   : 	m_pBottomLeft = NULL;

  00035	89 86 78 01 00
	00		 mov	 DWORD PTR [esi+376], eax

; 33   : 	m_pBottomEdge = NULL;

  0003b	89 86 7c 01 00
	00		 mov	 DWORD PTR [esi+380], eax

; 34   : 	m_pBottomRight= NULL;

  00041	89 86 80 01 00
	00		 mov	 DWORD PTR [esi+384], eax
  00047	c7 06 00 00 00
	00		 mov	 DWORD PTR [esi], OFFSET ??_7TooltipHelpWnd@@6B@
  0004d	c7 86 84 01 00
	00 01 00 00 00	 mov	 DWORD PTR [esi+388], 1

; 35   : }

  00057	8b c6		 mov	 eax, esi
  00059	5e		 pop	 esi
  0005a	c3		 ret	 0
??0TooltipHelpWnd@@QAE@XZ ENDP				; TooltipHelpWnd::TooltipHelpWnd
_TEXT	ENDS
PUBLIC	??1TooltipHelpWnd@@UAE@XZ			; TooltipHelpWnd::~TooltipHelpWnd
EXTRN	__imp_??1ioWnd@@UAE@XZ:PROC
EXTRN	___CxxFrameHandler3:PROC
EXTRN	@__security_check_cookie@4:PROC
EXTRN	__EH_epilog3:PROC
EXTRN	__EH_prolog3:PROC
;	COMDAT xdata$x
xdata$x	SEGMENT
__unwindtable$??1TooltipHelpWnd@@UAE@XZ DD 0ffffffffH
	DD	FLAT:__unwindfunclet$??1TooltipHelpWnd@@UAE@XZ$0
__ehfuncinfo$??1TooltipHelpWnd@@UAE@XZ DD 019930522H
	DD	01H
	DD	FLAT:__unwindtable$??1TooltipHelpWnd@@UAE@XZ
	DD	2 DUP(00H)
	DD	2 DUP(00H)
	DD	00H
	DD	01H
; Function compile flags: /Ogsp
xdata$x	ENDS
;	COMDAT ??1TooltipHelpWnd@@UAE@XZ
_TEXT	SEGMENT
_this$ = -16						; size = 4
__$EHRec$ = -12						; size = 12
??1TooltipHelpWnd@@UAE@XZ PROC				; TooltipHelpWnd::~TooltipHelpWnd, COMDAT
; _this$ = ecx

; 38   : {

  00000	6a 04		 push	 4
  00002	b8 00 00 00 00	 mov	 eax, __ehhandler$??1TooltipHelpWnd@@UAE@XZ
  00007	e8 00 00 00 00	 call	 __EH_prolog3
  0000c	8b f1		 mov	 esi, ecx
  0000e	89 75 f0	 mov	 DWORD PTR _this$[ebp], esi
  00011	c7 06 00 00 00
	00		 mov	 DWORD PTR [esi], OFFSET ??_7TooltipHelpWnd@@6B@

; 39   : 	SAFEDELETE( m_pTopLeft );

  00017	8b 8e 60 01 00
	00		 mov	 ecx, DWORD PTR [esi+352]
  0001d	33 db		 xor	 ebx, ebx
  0001f	89 5d fc	 mov	 DWORD PTR __$EHRec$[ebp+8], ebx
  00022	3b cb		 cmp	 ecx, ebx
  00024	74 0d		 je	 SHORT $LN9@TooltipHel
  00026	8b 01		 mov	 eax, DWORD PTR [ecx]
  00028	6a 01		 push	 1
  0002a	ff 50 40	 call	 DWORD PTR [eax+64]
  0002d	89 9e 60 01 00
	00		 mov	 DWORD PTR [esi+352], ebx
$LN9@TooltipHel:

; 40   : 	SAFEDELETE( m_pTopEdge );

  00033	8b 8e 64 01 00
	00		 mov	 ecx, DWORD PTR [esi+356]
  00039	3b cb		 cmp	 ecx, ebx
  0003b	74 0d		 je	 SHORT $LN8@TooltipHel
  0003d	8b 01		 mov	 eax, DWORD PTR [ecx]
  0003f	6a 01		 push	 1
  00041	ff 50 40	 call	 DWORD PTR [eax+64]
  00044	89 9e 64 01 00
	00		 mov	 DWORD PTR [esi+356], ebx
$LN8@TooltipHel:

; 41   : 	SAFEDELETE( m_pTopRight );

  0004a	8b 8e 68 01 00
	00		 mov	 ecx, DWORD PTR [esi+360]
  00050	3b cb		 cmp	 ecx, ebx
  00052	74 0d		 je	 SHORT $LN7@TooltipHel
  00054	8b 01		 mov	 eax, DWORD PTR [ecx]
  00056	6a 01		 push	 1
  00058	ff 50 40	 call	 DWORD PTR [eax+64]
  0005b	89 9e 68 01 00
	00		 mov	 DWORD PTR [esi+360], ebx
$LN7@TooltipHel:

; 42   : 	SAFEDELETE( m_pLeftEdge );

  00061	8b 8e 6c 01 00
	00		 mov	 ecx, DWORD PTR [esi+364]
  00067	3b cb		 cmp	 ecx, ebx
  00069	74 0d		 je	 SHORT $LN6@TooltipHel
  0006b	8b 01		 mov	 eax, DWORD PTR [ecx]
  0006d	6a 01		 push	 1
  0006f	ff 50 40	 call	 DWORD PTR [eax+64]
  00072	89 9e 6c 01 00
	00		 mov	 DWORD PTR [esi+364], ebx
$LN6@TooltipHel:

; 43   : 	SAFEDELETE( m_pCenter );

  00078	8b 8e 70 01 00
	00		 mov	 ecx, DWORD PTR [esi+368]
  0007e	3b cb		 cmp	 ecx, ebx
  00080	74 0d		 je	 SHORT $LN5@TooltipHel
  00082	8b 01		 mov	 eax, DWORD PTR [ecx]
  00084	6a 01		 push	 1
  00086	ff 50 40	 call	 DWORD PTR [eax+64]
  00089	89 9e 70 01 00
	00		 mov	 DWORD PTR [esi+368], ebx
$LN5@TooltipHel:

; 44   : 	SAFEDELETE( m_pRightEdge );

  0008f	8b 8e 74 01 00
	00		 mov	 ecx, DWORD PTR [esi+372]
  00095	3b cb		 cmp	 ecx, ebx
  00097	74 0d		 je	 SHORT $LN4@TooltipHel
  00099	8b 01		 mov	 eax, DWORD PTR [ecx]
  0009b	6a 01		 push	 1
  0009d	ff 50 40	 call	 DWORD PTR [eax+64]
  000a0	89 9e 74 01 00
	00		 mov	 DWORD PTR [esi+372], ebx
$LN4@TooltipHel:

; 45   : 	SAFEDELETE( m_pBottomLeft );

  000a6	8b 8e 78 01 00
	00		 mov	 ecx, DWORD PTR [esi+376]
  000ac	3b cb		 cmp	 ecx, ebx
  000ae	74 0d		 je	 SHORT $LN3@TooltipHel
  000b0	8b 01		 mov	 eax, DWORD PTR [ecx]
  000b2	6a 01		 push	 1
  000b4	ff 50 40	 call	 DWORD PTR [eax+64]
  000b7	89 9e 78 01 00
	00		 mov	 DWORD PTR [esi+376], ebx
$LN3@TooltipHel:

; 46   : 	SAFEDELETE( m_pBottomEdge );

  000bd	8b 8e 7c 01 00
	00		 mov	 ecx, DWORD PTR [esi+380]
  000c3	3b cb		 cmp	 ecx, ebx
  000c5	74 0d		 je	 SHORT $LN2@TooltipHel
  000c7	8b 01		 mov	 eax, DWORD PTR [ecx]
  000c9	6a 01		 push	 1
  000cb	ff 50 40	 call	 DWORD PTR [eax+64]
  000ce	89 9e 7c 01 00
	00		 mov	 DWORD PTR [esi+380], ebx
$LN2@TooltipHel:

; 47   : 	SAFEDELETE( m_pBottomRight );

  000d4	8b 8e 80 01 00
	00		 mov	 ecx, DWORD PTR [esi+384]
  000da	3b cb		 cmp	 ecx, ebx
  000dc	74 0d		 je	 SHORT $LN1@TooltipHel
  000de	8b 01		 mov	 eax, DWORD PTR [ecx]
  000e0	6a 01		 push	 1
  000e2	ff 50 40	 call	 DWORD PTR [eax+64]
  000e5	89 9e 80 01 00
	00		 mov	 DWORD PTR [esi+384], ebx
$LN1@TooltipHel:

; 48   : }

  000eb	83 4d fc ff	 or	 DWORD PTR __$EHRec$[ebp+8], -1
  000ef	8b ce		 mov	 ecx, esi
  000f1	ff 15 00 00 00
	00		 call	 DWORD PTR __imp_??1ioWnd@@UAE@XZ
  000f7	e8 00 00 00 00	 call	 __EH_epilog3
  000fc	c3		 ret	 0
_TEXT	ENDS
;	COMDAT text$x
text$x	SEGMENT
__unwindfunclet$??1TooltipHelpWnd@@UAE@XZ$0:
  00000	8b 4d f0	 mov	 ecx, DWORD PTR _this$[ebp]
  00003	ff 25 00 00 00
	00		 jmp	 DWORD PTR __imp_??1ioWnd@@UAE@XZ
__ehhandler$??1TooltipHelpWnd@@UAE@XZ:
  00009	8b 54 24 08	 mov	 edx, DWORD PTR [esp+8]
  0000d	8d 42 0c	 lea	 eax, DWORD PTR [edx+12]
  00010	8b 4a ec	 mov	 ecx, DWORD PTR [edx-20]
  00013	33 c8		 xor	 ecx, eax
  00015	e8 00 00 00 00	 call	 @__security_check_cookie@4
  0001a	b8 00 00 00 00	 mov	 eax, OFFSET __ehfuncinfo$??1TooltipHelpWnd@@UAE@XZ
  0001f	e9 00 00 00 00	 jmp	 ___CxxFrameHandler3
text$x	ENDS
??1TooltipHelpWnd@@UAE@XZ ENDP				; TooltipHelpWnd::~TooltipHelpWnd
; Function compile flags: /Ogsp
;	COMDAT ?iwm_show@TooltipHelpWnd@@UAEXXZ
_TEXT	SEGMENT
?iwm_show@TooltipHelpWnd@@UAEXXZ PROC			; TooltipHelpWnd::iwm_show, COMDAT
; _this$ = ecx

; 52   : 
; 53   : }

  00000	c3		 ret	 0
?iwm_show@TooltipHelpWnd@@UAEXXZ ENDP			; TooltipHelpWnd::iwm_show
; Function compile flags: /Ogsp
_TEXT	ENDS
;	COMDAT ?iwm_hide@TooltipHelpWnd@@UAEXXZ
_TEXT	SEGMENT
?iwm_hide@TooltipHelpWnd@@UAEXXZ PROC			; TooltipHelpWnd::iwm_hide, COMDAT
; _this$ = ecx

; 57   : 
; 58   : }

  00000	c3		 ret	 0
?iwm_hide@TooltipHelpWnd@@UAEXXZ ENDP			; TooltipHelpWnd::iwm_hide
_TEXT	ENDS
PUBLIC	?IsResourceNULL@TooltipHelpWnd@@IAE_NXZ		; TooltipHelpWnd::IsResourceNULL
; Function compile flags: /Ogsp
;	COMDAT ?IsResourceNULL@TooltipHelpWnd@@IAE_NXZ
_TEXT	SEGMENT
?IsResourceNULL@TooltipHelpWnd@@IAE_NXZ PROC		; TooltipHelpWnd::IsResourceNULL, COMDAT
; _this$ = ecx

; 125  : 	if( !m_pTopLeft || !m_pTopEdge || !m_pTopRight || !m_pLeftEdge || !m_pCenter || !m_pRightEdge ||
; 126  :         !m_pBottomLeft || !m_pBottomEdge || !m_pBottomRight )

  00000	33 c0		 xor	 eax, eax
  00002	39 81 60 01 00
	00		 cmp	 DWORD PTR [ecx+352], eax
  00008	74 43		 je	 SHORT $LN1@IsResource
  0000a	39 81 64 01 00
	00		 cmp	 DWORD PTR [ecx+356], eax
  00010	74 3b		 je	 SHORT $LN1@IsResource
  00012	39 81 68 01 00
	00		 cmp	 DWORD PTR [ecx+360], eax
  00018	74 33		 je	 SHORT $LN1@IsResource
  0001a	39 81 6c 01 00
	00		 cmp	 DWORD PTR [ecx+364], eax
  00020	74 2b		 je	 SHORT $LN1@IsResource
  00022	39 81 70 01 00
	00		 cmp	 DWORD PTR [ecx+368], eax
  00028	74 23		 je	 SHORT $LN1@IsResource
  0002a	39 81 74 01 00
	00		 cmp	 DWORD PTR [ecx+372], eax
  00030	74 1b		 je	 SHORT $LN1@IsResource
  00032	39 81 78 01 00
	00		 cmp	 DWORD PTR [ecx+376], eax
  00038	74 13		 je	 SHORT $LN1@IsResource
  0003a	39 81 7c 01 00
	00		 cmp	 DWORD PTR [ecx+380], eax
  00040	74 0b		 je	 SHORT $LN1@IsResource
  00042	39 81 80 01 00
	00		 cmp	 DWORD PTR [ecx+384], eax
  00048	74 03		 je	 SHORT $LN1@IsResource

; 128  : 	return false;

  0004a	32 c0		 xor	 al, al

; 129  : }

  0004c	c3		 ret	 0
$LN1@IsResource:

; 127  : 		return true;

  0004d	b0 01		 mov	 al, 1

; 129  : }

  0004f	c3		 ret	 0
?IsResourceNULL@TooltipHelpWnd@@IAE_NXZ ENDP		; TooltipHelpWnd::IsResourceNULL
_TEXT	ENDS
PUBLIC	??_7bad_alloc@std@@6B@				; std::bad_alloc::`vftable'
PUBLIC	??0bad_alloc@std@@QAE@PBD@Z			; std::bad_alloc::bad_alloc
PUBLIC	??_R4bad_alloc@std@@6B@				; std::bad_alloc::`RTTI Complete Object Locator'
PUBLIC	??_R0?AVbad_alloc@std@@@8			; std::bad_alloc `RTTI Type Descriptor'
PUBLIC	??_R3bad_alloc@std@@8				; std::bad_alloc::`RTTI Class Hierarchy Descriptor'
PUBLIC	??_R2bad_alloc@std@@8				; std::bad_alloc::`RTTI Base Class Array'
PUBLIC	??_R1A@?0A@EA@bad_alloc@std@@8			; std::bad_alloc::`RTTI Base Class Descriptor at (0,-1,0,64)'
PUBLIC	??_R1A@?0A@EA@exception@std@@8			; std::exception::`RTTI Base Class Descriptor at (0,-1,0,64)'
PUBLIC	??_R0?AVexception@std@@@8			; std::exception `RTTI Type Descriptor'
PUBLIC	??_R3exception@std@@8				; std::exception::`RTTI Class Hierarchy Descriptor'
PUBLIC	??_R2exception@std@@8				; std::exception::`RTTI Base Class Array'
EXTRN	__imp_??0exception@std@@QAE@ABQBD@Z:PROC
EXTRN	??_Ebad_alloc@std@@UAEPAXI@Z:PROC		; std::bad_alloc::`vector deleting destructor'
EXTRN	?what@exception@std@@UBEPBDXZ:PROC		; std::exception::what
;	COMDAT ??_R2exception@std@@8
; File c:\program files (x86)\microsoft visual studio 10.0\vc\include\exception
rdata$r	SEGMENT
??_R2exception@std@@8 DD FLAT:??_R1A@?0A@EA@exception@std@@8 ; std::exception::`RTTI Base Class Array'
rdata$r	ENDS
;	COMDAT ??_R3exception@std@@8
rdata$r	SEGMENT
??_R3exception@std@@8 DD 00H				; std::exception::`RTTI Class Hierarchy Descriptor'
	DD	00H
	DD	01H
	DD	FLAT:??_R2exception@std@@8
rdata$r	ENDS
;	COMDAT ??_R0?AVexception@std@@@8
_DATA	SEGMENT
??_R0?AVexception@std@@@8 DD FLAT:??_7type_info@@6B@	; std::exception `RTTI Type Descriptor'
	DD	00H
	DB	'.?AVexception@std@@', 00H
_DATA	ENDS
;	COMDAT ??_R1A@?0A@EA@exception@std@@8
rdata$r	SEGMENT
??_R1A@?0A@EA@exception@std@@8 DD FLAT:??_R0?AVexception@std@@@8 ; std::exception::`RTTI Base Class Descriptor at (0,-1,0,64)'
	DD	00H
	DD	00H
	DD	0ffffffffH
	DD	00H
	DD	040H
	DD	FLAT:??_R3exception@std@@8
rdata$r	ENDS
;	COMDAT ??_R1A@?0A@EA@bad_alloc@std@@8
rdata$r	SEGMENT
??_R1A@?0A@EA@bad_alloc@std@@8 DD FLAT:??_R0?AVbad_alloc@std@@@8 ; std::bad_alloc::`RTTI Base Class Descriptor at (0,-1,0,64)'
	DD	01H
	DD	00H
	DD	0ffffffffH
	DD	00H
	DD	040H
	DD	FLAT:??_R3bad_alloc@std@@8
rdata$r	ENDS
;	COMDAT ??_R2bad_alloc@std@@8
rdata$r	SEGMENT
??_R2bad_alloc@std@@8 DD FLAT:??_R1A@?0A@EA@bad_alloc@std@@8 ; std::bad_alloc::`RTTI Base Class Array'
	DD	FLAT:??_R1A@?0A@EA@exception@std@@8
rdata$r	ENDS
;	COMDAT ??_R3bad_alloc@std@@8
rdata$r	SEGMENT
??_R3bad_alloc@std@@8 DD 00H				; std::bad_alloc::`RTTI Class Hierarchy Descriptor'
	DD	00H
	DD	02H
	DD	FLAT:??_R2bad_alloc@std@@8
rdata$r	ENDS
;	COMDAT ??_R0?AVbad_alloc@std@@@8
_DATA	SEGMENT
??_R0?AVbad_alloc@std@@@8 DD FLAT:??_7type_info@@6B@	; std::bad_alloc `RTTI Type Descriptor'
	DD	00H
	DB	'.?AVbad_alloc@std@@', 00H
_DATA	ENDS
;	COMDAT ??_R4bad_alloc@std@@6B@
rdata$r	SEGMENT
??_R4bad_alloc@std@@6B@ DD 00H				; std::bad_alloc::`RTTI Complete Object Locator'
	DD	00H
	DD	00H
	DD	FLAT:??_R0?AVbad_alloc@std@@@8
	DD	FLAT:??_R3bad_alloc@std@@8
rdata$r	ENDS
;	COMDAT ??_7bad_alloc@std@@6B@
CONST	SEGMENT
??_7bad_alloc@std@@6B@ DD FLAT:??_R4bad_alloc@std@@6B@	; std::bad_alloc::`vftable'
	DD	FLAT:??_Ebad_alloc@std@@UAEPAXI@Z
	DD	FLAT:?what@exception@std@@UBEPBDXZ
; Function compile flags: /Ogsp
CONST	ENDS
;	COMDAT ??0bad_alloc@std@@QAE@PBD@Z
_TEXT	SEGMENT
__Message$ = 8						; size = 4
??0bad_alloc@std@@QAE@PBD@Z PROC			; std::bad_alloc::bad_alloc, COMDAT
; _this$ = ecx

; 345  : 		{	// construct from message string

  00000	55		 push	 ebp
  00001	8b ec		 mov	 ebp, esp
  00003	56		 push	 esi
  00004	8d 45 08	 lea	 eax, DWORD PTR __Message$[ebp]
  00007	50		 push	 eax
  00008	8b f1		 mov	 esi, ecx
  0000a	ff 15 00 00 00
	00		 call	 DWORD PTR __imp_??0exception@std@@QAE@ABQBD@Z
  00010	c7 06 00 00 00
	00		 mov	 DWORD PTR [esi], OFFSET ??_7bad_alloc@std@@6B@

; 346  : 		}

  00016	8b c6		 mov	 eax, esi
  00018	5e		 pop	 esi
  00019	5d		 pop	 ebp
  0001a	c2 04 00	 ret	 4
??0bad_alloc@std@@QAE@PBD@Z ENDP			; std::bad_alloc::bad_alloc
_TEXT	ENDS
PUBLIC	??1bad_alloc@std@@UAE@XZ			; std::bad_alloc::~bad_alloc
EXTRN	__imp_??1exception@std@@UAE@XZ:PROC
; Function compile flags: /Ogsp
;	COMDAT ??1bad_alloc@std@@UAE@XZ
_TEXT	SEGMENT
??1bad_alloc@std@@UAE@XZ PROC				; std::bad_alloc::~bad_alloc, COMDAT
; _this$ = ecx

; 354  : 		{	// destroy the object

  00000	c7 01 00 00 00
	00		 mov	 DWORD PTR [ecx], OFFSET ??_7bad_alloc@std@@6B@

; 355  : 		}

  00006	ff 25 00 00 00
	00		 jmp	 DWORD PTR __imp_??1exception@std@@UAE@XZ
??1bad_alloc@std@@UAE@XZ ENDP				; std::bad_alloc::~bad_alloc
_TEXT	ENDS
EXTRN	??3@YAXPAX@Z:PROC				; operator delete
; Function compile flags: /Ogsp
;	COMDAT ??_Gbad_alloc@std@@UAEPAXI@Z
_TEXT	SEGMENT
___flags$ = 8						; size = 4
??_Gbad_alloc@std@@UAEPAXI@Z PROC			; std::bad_alloc::`scalar deleting destructor', COMDAT
; _this$ = ecx
  00000	55		 push	 ebp
  00001	8b ec		 mov	 ebp, esp
  00003	56		 push	 esi
  00004	8b f1		 mov	 esi, ecx
  00006	c7 06 00 00 00
	00		 mov	 DWORD PTR [esi], OFFSET ??_7bad_alloc@std@@6B@
  0000c	ff 15 00 00 00
	00		 call	 DWORD PTR __imp_??1exception@std@@UAE@XZ
  00012	f6 45 08 01	 test	 BYTE PTR ___flags$[ebp], 1
  00016	74 07		 je	 SHORT $LN1@scalar
  00018	56		 push	 esi
  00019	e8 00 00 00 00	 call	 ??3@YAXPAX@Z		; operator delete
  0001e	59		 pop	 ecx
$LN1@scalar:
  0001f	8b c6		 mov	 eax, esi
  00021	5e		 pop	 esi
  00022	5d		 pop	 ebp
  00023	c2 04 00	 ret	 4
??_Gbad_alloc@std@@UAEPAXI@Z ENDP			; std::bad_alloc::`scalar deleting destructor'
_TEXT	ENDS
PUBLIC	??2@YAPAXIPAX@Z					; operator new
; Function compile flags: /Ogsp
; File c:\program files (x86)\microsoft visual studio 10.0\vc\include\new
;	COMDAT ??2@YAPAXIPAX@Z
_TEXT	SEGMENT
___formal$ = 8						; size = 4
__Where$ = 12						; size = 4
??2@YAPAXIPAX@Z PROC					; operator new, COMDAT

; 56   : 	{	// construct array with placement at _Where

  00000	55		 push	 ebp
  00001	8b ec		 mov	 ebp, esp

; 57   : 	return (_Where);

  00003	8b 45 0c	 mov	 eax, DWORD PTR __Where$[ebp]

; 58   : 	}

  00006	5d		 pop	 ebp
  00007	c3		 ret	 0
??2@YAPAXIPAX@Z ENDP					; operator new
_TEXT	ENDS
PUBLIC	??3@YAXPAX0@Z					; operator delete
; Function compile flags: /Ogsp
;	COMDAT ??3@YAXPAX0@Z
_TEXT	SEGMENT
___formal$ = 8						; size = 4
___formal$ = 12						; size = 4
??3@YAXPAX0@Z PROC					; operator delete, COMDAT

; 62   : 	}

  00000	c3		 ret	 0
??3@YAXPAX0@Z ENDP					; operator delete
_TEXT	ENDS
PUBLIC	??_7TooltipGuildPointHelpWnd@@6B@		; TooltipGuildPointHelpWnd::`vftable'
PUBLIC	??0TooltipGuildPointHelpWnd@@QAE@XZ		; TooltipGuildPointHelpWnd::TooltipGuildPointHelpWnd
PUBLIC	??_R4TooltipGuildPointHelpWnd@@6B@		; TooltipGuildPointHelpWnd::`RTTI Complete Object Locator'
PUBLIC	??_R0?AVTooltipGuildPointHelpWnd@@@8		; TooltipGuildPointHelpWnd `RTTI Type Descriptor'
PUBLIC	??_R3TooltipGuildPointHelpWnd@@8		; TooltipGuildPointHelpWnd::`RTTI Class Hierarchy Descriptor'
PUBLIC	??_R2TooltipGuildPointHelpWnd@@8		; TooltipGuildPointHelpWnd::`RTTI Base Class Array'
PUBLIC	??_R1A@?0A@EA@TooltipGuildPointHelpWnd@@8	; TooltipGuildPointHelpWnd::`RTTI Base Class Descriptor at (0,-1,0,64)'
EXTRN	??_ETooltipGuildPointHelpWnd@@UAEPAXI@Z:PROC	; TooltipGuildPointHelpWnd::`vector deleting destructor'
;	COMDAT ??_R1A@?0A@EA@TooltipGuildPointHelpWnd@@8
; File d:\lost saga for developer\youtube\tutorial\source\src\lsclient\gui\tooltiphelpwnd.cpp
rdata$r	SEGMENT
??_R1A@?0A@EA@TooltipGuildPointHelpWnd@@8 DD FLAT:??_R0?AVTooltipGuildPointHelpWnd@@@8 ; TooltipGuildPointHelpWnd::`RTTI Base Class Descriptor at (0,-1,0,64)'
	DD	02H
	DD	00H
	DD	0ffffffffH
	DD	00H
	DD	040H
	DD	FLAT:??_R3TooltipGuildPointHelpWnd@@8
rdata$r	ENDS
;	COMDAT ??_R2TooltipGuildPointHelpWnd@@8
rdata$r	SEGMENT
??_R2TooltipGuildPointHelpWnd@@8 DD FLAT:??_R1A@?0A@EA@TooltipGuildPointHelpWnd@@8 ; TooltipGuildPointHelpWnd::`RTTI Base Class Array'
	DD	FLAT:??_R1A@?0A@EA@TooltipHelpWnd@@8
	DD	FLAT:??_R1A@?0A@EA@ioWnd@@8
rdata$r	ENDS
;	COMDAT ??_R3TooltipGuildPointHelpWnd@@8
rdata$r	SEGMENT
??_R3TooltipGuildPointHelpWnd@@8 DD 00H			; TooltipGuildPointHelpWnd::`RTTI Class Hierarchy Descriptor'
	DD	00H
	DD	03H
	DD	FLAT:??_R2TooltipGuildPointHelpWnd@@8
rdata$r	ENDS
;	COMDAT ??_R0?AVTooltipGuildPointHelpWnd@@@8
_DATA	SEGMENT
??_R0?AVTooltipGuildPointHelpWnd@@@8 DD FLAT:??_7type_info@@6B@ ; TooltipGuildPointHelpWnd `RTTI Type Descriptor'
	DD	00H
	DB	'.?AVTooltipGuildPointHelpWnd@@', 00H
_DATA	ENDS
;	COMDAT ??_R4TooltipGuildPointHelpWnd@@6B@
rdata$r	SEGMENT
??_R4TooltipGuildPointHelpWnd@@6B@ DD 00H		; TooltipGuildPointHelpWnd::`RTTI Complete Object Locator'
	DD	00H
	DD	00H
	DD	FLAT:??_R0?AVTooltipGuildPointHelpWnd@@@8
	DD	FLAT:??_R3TooltipGuildPointHelpWnd@@8
rdata$r	ENDS
;	COMDAT ??_7TooltipGuildPointHelpWnd@@6B@
CONST	SEGMENT
??_7TooltipGuildPointHelpWnd@@6B@ DD FLAT:??_R4TooltipGuildPointHelpWnd@@6B@ ; TooltipGuildPointHelpWnd::`vftable'
	DD	FLAT:?AddRenderFrame@ioWnd@@UAEXABVioHashString@@PAVioUIRenderFrame@@@Z
	DD	FLAT:?AddRenderImage@TooltipHelpWnd@@UAEXABVioHashString@@PAVioUIRenderImage@@@Z
	DD	FLAT:?AddTooltipHelp@ioWnd@@UAEXABVioHashString@@00@Z
	DD	FLAT:?ParseExtraInfo@ioWnd@@UAEXAAVioXMLElement@@@Z
	DD	FLAT:?AddNamedRenderImage@ioWnd@@UAEXABVioHashString@@PAVioUIRenderImage@@@Z
	DD	FLAT:?RemoveNamedRenderImage@ioWnd@@UAEXABVioHashString@@@Z
	DD	FLAT:?GetNamedRenderImage@ioWnd@@UBEPAVioUIRenderImage@@ABVioHashString@@@Z
	DD	FLAT:?SetWindowAlpha@ioWnd@@UAEXH@Z
	DD	FLAT:?SetActive@ioWnd@@UAEXXZ
	DD	FLAT:?SetInActive@ioWnd@@UAEXXZ
	DD	FLAT:?ClearElementImageList@ioWnd@@UAEXXZ
	DD	FLAT:?SetSize@ioWnd@@UAEXHH@Z
	DD	FLAT:?SetPositionToDefault@ioWnd@@UAEXHH_N0@Z
	DD	FLAT:?IsNeedProcess@ioWnd@@UBE_NXZ
	DD	FLAT:?IsCanMouseReaction@ioWnd@@UBE_NXZ
	DD	FLAT:?AddChild@ioWnd@@UAEXPAV1@@Z
	DD	FLAT:?DeleteChild@ioWnd@@UAEXK@Z
	DD	FLAT:?DeleteAllChild@ioWnd@@UAEXXZ
	DD	FLAT:?OnRenderShowAndHide@ioWnd@@MAE_NXZ
	DD	FLAT:?OnRenderShowAndHideByDefault@ioWnd@@MAE_NK@Z
	DD	FLAT:?OnRenderShowAndHideByTop@ioWnd@@MAE_NK@Z
	DD	FLAT:?OnRenderShowAndHideByDown@ioWnd@@MAE_NK@Z
	DD	FLAT:?OnRender@TooltipHelpWnd@@MAEXXZ
	DD	FLAT:?OnRenderAfterChild@ioWnd@@MAEXXZ
	DD	FLAT:?OnProcess@TooltipHelpWnd@@MAEXM@Z
	DD	FLAT:?OnMouseProcess@ioWnd@@MAEXABVioMouse@@@Z
	DD	FLAT:?CheckFrameReSize@ioWnd@@MAEXHHHH@Z
	DD	FLAT:?RenderImageList@ioWnd@@MAEXHHW4UIRenderType@@@Z
	DD	FLAT:?iwm_create@ioWnd@@UAEXXZ
	DD	FLAT:?iwm_destroy@ioWnd@@UAEXXZ
	DD	FLAT:?iwm_lbuttondown@ioWnd@@UAEXABVioMouse@@@Z
	DD	FLAT:?iwm_lbuttonup@ioWnd@@UAEXABVioMouse@@@Z
	DD	FLAT:?iwm_lbuttonDBLCLK@ioWnd@@UAEXABVioMouse@@@Z
	DD	FLAT:?iwm_rbuttondown@ioWnd@@UAEXABVioMouse@@@Z
	DD	FLAT:?iwm_rbuttonup@ioWnd@@UAEXABVioMouse@@@Z
	DD	FLAT:?iwm_command@ioWnd@@UAEXPAV1@HK@Z
	DD	FLAT:?iwm_mouseover@ioWnd@@UAEXABVioMouse@@@Z
	DD	FLAT:?iwm_mousemove@ioWnd@@UAEXABVioMouse@@@Z
	DD	FLAT:?iwm_mouseleave@ioWnd@@UAEXABVioMouse@@@Z
	DD	FLAT:?iwm_vscroll@ioWnd@@UAEXKH@Z
	DD	FLAT:?iwm_wheel@ioWnd@@UAEXH@Z
	DD	FLAT:?iwm_show@TooltipHelpWnd@@UAEXXZ
	DD	FLAT:?iwm_hide@TooltipHelpWnd@@UAEXXZ
	DD	FLAT:?iwm_esc@ioWnd@@UAE_NXZ
	DD	FLAT:?iwm_spacebar@ioWnd@@UAE_NXZ
	DD	FLAT:?iwm_gototop@ioWnd@@UAEXXZ
	DD	FLAT:?iwm_dragenter@ioWnd@@UAE?AW4IWDropEffect@@PAVioDragItem@@ABVioMouse@@@Z
	DD	FLAT:?iwm_dragover@ioWnd@@UAE?AW4IWDropEffect@@PAVioDragItem@@ABVioMouse@@@Z
	DD	FLAT:?iwm_dragleave@ioWnd@@UAEXXZ
	DD	FLAT:?iwm_dropitem@ioWnd@@UAE_NPAVioDragItem@@ABVioMouse@@PAV1@@Z
	DD	FLAT:?iwm_dropdone@ioWnd@@UAEXPAVioDragItem@@PAV1@_N@Z
	DD	FLAT:?IsEXType@ioWnd@@UBE_NXZ
	DD	FLAT:?GetWndType@ioWnd@@UBEKXZ
	DD	FLAT:?RenderWnd@ioWnd@@UAEXXZ
	DD	FLAT:?SetIDEX@ioWnd@@UAEXAAK_N@Z
	DD	FLAT:?ParseXML@ioWnd@@UAEXAAVioXMLElement@@@Z
	DD	FLAT:?GetHeaderFileName@ioWnd@@UAEPBDXZ
	DD	FLAT:?GetTemplateName@ioWnd@@UAEPBDXZ
	DD	FLAT:?GetDefClassName@ioWnd@@UBEPBDXZ
	DD	FLAT:?_Clone@ioWnd@@UAEPAV1@XZ
	DD	FLAT:?Copy@ioWnd@@UAEXPAV1@@Z
	DD	FLAT:?Save@ioWnd@@UAE_NAAVioXMLElement@@@Z
	DD	FLAT:?SetSaveData@ioWnd@@UAEXAAVioXMLElement@@@Z
	DD	FLAT:?SetPosX@ioWnd@@UAEXH@Z
	DD	FLAT:?SetPosY@ioWnd@@UAEXH@Z
	DD	FLAT:?SetWidth@ioWnd@@UAEXH@Z
	DD	FLAT:?SetHeight@ioWnd@@UAEXH@Z
	DD	FLAT:?GetNumFixedRenderFrame@ioWnd@@UBEHXZ
	DD	FLAT:?GetFixedRenderFrameType@ioWnd@@UAEPBDH@Z
	DD	FLAT:?GetRenderFrame@ioWnd@@UAEPAPAVioUIRenderElement@@PBD@Z
	DD	FLAT:?GetNumFixedRenderImage@ioWnd@@UBEHXZ
	DD	FLAT:?GetFixedRenderImageType@ioWnd@@UAEPBDH@Z
	DD	FLAT:?GetRenderImage@ioWnd@@UAEPAPAVioUIRenderElement@@PBD@Z
	DD	FLAT:?AddEffect@ioWnd@@UAEXABVioHashString@@PAVioUI3DEffectRender@@@Z
	DD	FLAT:?GetEffect@ioWnd@@UAEPAVioUI3DEffectRender@@VioHashString@@@Z
	DD	FLAT:??_ETooltipGuildPointHelpWnd@@UAEPAXI@Z
; Function compile flags: /Ogsp
CONST	ENDS
;	COMDAT ??0TooltipGuildPointHelpWnd@@QAE@XZ
_TEXT	SEGMENT
??0TooltipGuildPointHelpWnd@@QAE@XZ PROC		; TooltipGuildPointHelpWnd::TooltipGuildPointHelpWnd, COMDAT
; _this$ = ecx

; 424  : {

  00000	56		 push	 esi
  00001	8b f1		 mov	 esi, ecx
  00003	e8 00 00 00 00	 call	 ??0TooltipHelpWnd@@QAE@XZ ; TooltipHelpWnd::TooltipHelpWnd
  00008	c7 06 00 00 00
	00		 mov	 DWORD PTR [esi], OFFSET ??_7TooltipGuildPointHelpWnd@@6B@

; 425  : }

  0000e	8b c6		 mov	 eax, esi
  00010	5e		 pop	 esi
  00011	c3		 ret	 0
??0TooltipGuildPointHelpWnd@@QAE@XZ ENDP		; TooltipGuildPointHelpWnd::TooltipGuildPointHelpWnd
_TEXT	ENDS
PUBLIC	??1TooltipGuildPointHelpWnd@@UAE@XZ		; TooltipGuildPointHelpWnd::~TooltipGuildPointHelpWnd
; Function compile flags: /Ogsp
;	COMDAT ??1TooltipGuildPointHelpWnd@@UAE@XZ
_TEXT	SEGMENT
??1TooltipGuildPointHelpWnd@@UAE@XZ PROC		; TooltipGuildPointHelpWnd::~TooltipGuildPointHelpWnd, COMDAT
; _this$ = ecx

; 428  : {

  00000	c7 01 00 00 00
	00		 mov	 DWORD PTR [ecx], OFFSET ??_7TooltipGuildPointHelpWnd@@6B@

; 429  : }

  00006	e9 00 00 00 00	 jmp	 ??1TooltipHelpWnd@@UAE@XZ ; TooltipHelpWnd::~TooltipHelpWnd
??1TooltipGuildPointHelpWnd@@UAE@XZ ENDP		; TooltipGuildPointHelpWnd::~TooltipGuildPointHelpWnd
_TEXT	ENDS
PUBLIC	??0Tooltip@ioWnd@@QAE@XZ			; ioWnd::Tooltip::Tooltip
EXTRN	__imp_??0ioHashString@@QAE@XZ:PROC
; Function compile flags: /Ogsp
;	COMDAT ??0Tooltip@ioWnd@@QAE@XZ
_TEXT	SEGMENT
??0Tooltip@ioWnd@@QAE@XZ PROC				; ioWnd::Tooltip::Tooltip, COMDAT
; _this$ = ecx
  00000	56		 push	 esi
  00001	8b f1		 mov	 esi, ecx
  00003	8d 4e 08	 lea	 ecx, DWORD PTR [esi+8]
  00006	ff 15 00 00 00
	00		 call	 DWORD PTR __imp_??0ioHashString@@QAE@XZ
  0000c	8b c6		 mov	 eax, esi
  0000e	5e		 pop	 esi
  0000f	c3		 ret	 0
??0Tooltip@ioWnd@@QAE@XZ ENDP				; ioWnd::Tooltip::Tooltip
_TEXT	ENDS
PUBLIC	??1Tooltip@ioWnd@@QAE@XZ			; ioWnd::Tooltip::~Tooltip
EXTRN	__imp_??1ioHashString@@QAE@XZ:PROC
; Function compile flags: /Ogsp
;	COMDAT ??1Tooltip@ioWnd@@QAE@XZ
_TEXT	SEGMENT
??1Tooltip@ioWnd@@QAE@XZ PROC				; ioWnd::Tooltip::~Tooltip, COMDAT
; _this$ = ecx
  00000	83 c1 08	 add	 ecx, 8
  00003	ff 25 00 00 00
	00		 jmp	 DWORD PTR __imp_??1ioHashString@@QAE@XZ
??1Tooltip@ioWnd@@QAE@XZ ENDP				; ioWnd::Tooltip::~Tooltip
_TEXT	ENDS
PUBLIC	?empty@?$vector@UTooltip@ioWnd@@V?$allocator@UTooltip@ioWnd@@@std@@@std@@QBE_NXZ ; std::vector<ioWnd::Tooltip,std::allocator<ioWnd::Tooltip> >::empty
; Function compile flags: /Ogsp
; File c:\program files (x86)\microsoft visual studio 10.0\vc\include\vector
;	COMDAT ?empty@?$vector@UTooltip@ioWnd@@V?$allocator@UTooltip@ioWnd@@@std@@@std@@QBE_NXZ
_TEXT	SEGMENT
?empty@?$vector@UTooltip@ioWnd@@V?$allocator@UTooltip@ioWnd@@@std@@@std@@QBE_NXZ PROC ; std::vector<ioWnd::Tooltip,std::allocator<ioWnd::Tooltip> >::empty, COMDAT
; _this$ = ecx

; 889  : 		return (this->_Myfirst == this->_Mylast);

  00000	8b 01		 mov	 eax, DWORD PTR [ecx]
  00002	2b 41 04	 sub	 eax, DWORD PTR [ecx+4]
  00005	f7 d8		 neg	 eax
  00007	1b c0		 sbb	 eax, eax
  00009	40		 inc	 eax

; 890  : 		}

  0000a	c3		 ret	 0
?empty@?$vector@UTooltip@ioWnd@@V?$allocator@UTooltip@ioWnd@@@std@@@std@@QBE_NXZ ENDP ; std::vector<ioWnd::Tooltip,std::allocator<ioWnd::Tooltip> >::empty
_TEXT	ENDS
PUBLIC	??A?$vector@UTooltip@ioWnd@@V?$allocator@UTooltip@ioWnd@@@std@@@std@@QAEAAUTooltip@ioWnd@@I@Z ; std::vector<ioWnd::Tooltip,std::allocator<ioWnd::Tooltip> >::operator[]
; Function compile flags: /Ogsp
;	COMDAT ??A?$vector@UTooltip@ioWnd@@V?$allocator@UTooltip@ioWnd@@@std@@@std@@QAEAAUTooltip@ioWnd@@I@Z
_TEXT	SEGMENT
__Pos$ = 8						; size = 4
??A?$vector@UTooltip@ioWnd@@V?$allocator@UTooltip@ioWnd@@@std@@@std@@QAEAAUTooltip@ioWnd@@I@Z PROC ; std::vector<ioWnd::Tooltip,std::allocator<ioWnd::Tooltip> >::operator[], COMDAT
; _this$ = ecx

; 928  : 		{	// subscript mutable sequence

  00000	55		 push	 ebp
  00001	8b ec		 mov	 ebp, esp

; 929  :  #if _ITERATOR_DEBUG_LEVEL == 2
; 930  : 		if (size() <= _Pos)
; 931  : 			{	// report error
; 932  : 			_DEBUG_ERROR("vector subscript out of range");
; 933  : 			_SCL_SECURE_OUT_OF_RANGE;
; 934  : 			}
; 935  : 
; 936  :  #elif _ITERATOR_DEBUG_LEVEL == 1
; 937  : 		_SCL_SECURE_VALIDATE_RANGE(_Pos < size());
; 938  :  #endif /* _ITERATOR_DEBUG_LEVEL */
; 939  : 
; 940  : 		return (*(this->_Myfirst + _Pos));

  00003	8b 45 08	 mov	 eax, DWORD PTR __Pos$[ebp]
  00006	6b c0 18	 imul	 eax, 24			; 00000018H
  00009	03 01		 add	 eax, DWORD PTR [ecx]

; 941  : 		}

  0000b	5d		 pop	 ebp
  0000c	c2 04 00	 ret	 4
??A?$vector@UTooltip@ioWnd@@V?$allocator@UTooltip@ioWnd@@@std@@@std@@QAEAAUTooltip@ioWnd@@I@Z ENDP ; std::vector<ioWnd::Tooltip,std::allocator<ioWnd::Tooltip> >::operator[]
_TEXT	ENDS
PUBLIC	?_Inside@?$vector@UTooltip@ioWnd@@V?$allocator@UTooltip@ioWnd@@@std@@@std@@IBE_NPBUTooltip@ioWnd@@@Z ; std::vector<ioWnd::Tooltip,std::allocator<ioWnd::Tooltip> >::_Inside
; Function compile flags: /Ogsp
;	COMDAT ?_Inside@?$vector@UTooltip@ioWnd@@V?$allocator@UTooltip@ioWnd@@@std@@@std@@IBE_NPBUTooltip@ioWnd@@@Z
_TEXT	SEGMENT
__Ptr$ = 8						; size = 4
?_Inside@?$vector@UTooltip@ioWnd@@V?$allocator@UTooltip@ioWnd@@@std@@@std@@IBE_NPBUTooltip@ioWnd@@@Z PROC ; std::vector<ioWnd::Tooltip,std::allocator<ioWnd::Tooltip> >::_Inside, COMDAT
; _this$ = ecx

; 1285 : 		{	// test if _Ptr points inside vector

  00000	55		 push	 ebp
  00001	8b ec		 mov	 ebp, esp

; 1286 : 		return (_Ptr < this->_Mylast && this->_Myfirst <= _Ptr);

  00003	8b 45 08	 mov	 eax, DWORD PTR __Ptr$[ebp]
  00006	3b 41 04	 cmp	 eax, DWORD PTR [ecx+4]
  00009	73 09		 jae	 SHORT $LN3@Inside
  0000b	39 01		 cmp	 DWORD PTR [ecx], eax
  0000d	77 05		 ja	 SHORT $LN3@Inside
  0000f	33 c0		 xor	 eax, eax
  00011	40		 inc	 eax
  00012	eb 02		 jmp	 SHORT $LN4@Inside
$LN3@Inside:
  00014	33 c0		 xor	 eax, eax
$LN4@Inside:

; 1287 : 		}

  00016	5d		 pop	 ebp
  00017	c2 04 00	 ret	 4
?_Inside@?$vector@UTooltip@ioWnd@@V?$allocator@UTooltip@ioWnd@@@std@@@std@@IBE_NPBUTooltip@ioWnd@@@Z ENDP ; std::vector<ioWnd::Tooltip,std::allocator<ioWnd::Tooltip> >::_Inside
_TEXT	ENDS
PUBLIC	?_Orphan_range@?$vector@UTooltip@ioWnd@@V?$allocator@UTooltip@ioWnd@@@std@@@std@@IBEXPAUTooltip@ioWnd@@0@Z ; std::vector<ioWnd::Tooltip,std::allocator<ioWnd::Tooltip> >::_Orphan_range
; Function compile flags: /Ogsp
;	COMDAT ?_Orphan_range@?$vector@UTooltip@ioWnd@@V?$allocator@UTooltip@ioWnd@@@std@@@std@@IBEXPAUTooltip@ioWnd@@0@Z
_TEXT	SEGMENT
___formal$ = 8						; size = 4
___formal$ = 12						; size = 4
?_Orphan_range@?$vector@UTooltip@ioWnd@@V?$allocator@UTooltip@ioWnd@@@std@@@std@@IBEXPAUTooltip@ioWnd@@0@Z PROC ; std::vector<ioWnd::Tooltip,std::allocator<ioWnd::Tooltip> >::_Orphan_range, COMDAT
; _this$ = ecx

; 1454 : 		}

  00000	c2 08 00	 ret	 8
?_Orphan_range@?$vector@UTooltip@ioWnd@@V?$allocator@UTooltip@ioWnd@@@std@@@std@@IBEXPAUTooltip@ioWnd@@0@Z ENDP ; std::vector<ioWnd::Tooltip,std::allocator<ioWnd::Tooltip> >::_Orphan_range
_TEXT	ENDS
PUBLIC	?capacity@?$vector@UTooltip@ioWnd@@V?$allocator@UTooltip@ioWnd@@@std@@@std@@QBEIXZ ; std::vector<ioWnd::Tooltip,std::allocator<ioWnd::Tooltip> >::capacity
; Function compile flags: /Ogsp
;	COMDAT ?capacity@?$vector@UTooltip@ioWnd@@V?$allocator@UTooltip@ioWnd@@@std@@@std@@QBEIXZ
_TEXT	SEGMENT
?capacity@?$vector@UTooltip@ioWnd@@V?$allocator@UTooltip@ioWnd@@@std@@@std@@QBEIXZ PROC ; std::vector<ioWnd::Tooltip,std::allocator<ioWnd::Tooltip> >::capacity, COMDAT
; _this$ = ecx

; 777  : 		return (this->_Myend - this->_Myfirst);

  00000	8b 41 08	 mov	 eax, DWORD PTR [ecx+8]
  00003	2b 01		 sub	 eax, DWORD PTR [ecx]
  00005	6a 18		 push	 24			; 00000018H
  00007	99		 cdq
  00008	59		 pop	 ecx
  00009	f7 f9		 idiv	 ecx

; 778  : 		}

  0000b	c3		 ret	 0
?capacity@?$vector@UTooltip@ioWnd@@V?$allocator@UTooltip@ioWnd@@@std@@@std@@QBEIXZ ENDP ; std::vector<ioWnd::Tooltip,std::allocator<ioWnd::Tooltip> >::capacity
_TEXT	ENDS
PUBLIC	??_C@_0BD@OLBABOEK@vector?$DMT?$DO?5too?5long?$AA@ ; `string'
PUBLIC	?_Xlen@?$vector@UTooltip@ioWnd@@V?$allocator@UTooltip@ioWnd@@@std@@@std@@IBEXXZ ; std::vector<ioWnd::Tooltip,std::allocator<ioWnd::Tooltip> >::_Xlen
EXTRN	__imp_?_Xlength_error@std@@YAXPBD@Z:PROC
;	COMDAT ??_C@_0BD@OLBABOEK@vector?$DMT?$DO?5too?5long?$AA@
CONST	SEGMENT
??_C@_0BD@OLBABOEK@vector?$DMT?$DO?5too?5long?$AA@ DB 'vector<T> too long'
	DB	00H						; `string'
; Function compile flags: /Ogsp
CONST	ENDS
;	COMDAT ?_Xlen@?$vector@UTooltip@ioWnd@@V?$allocator@UTooltip@ioWnd@@@std@@@std@@IBEXXZ
_TEXT	SEGMENT
?_Xlen@?$vector@UTooltip@ioWnd@@V?$allocator@UTooltip@ioWnd@@@std@@@std@@IBEXXZ PROC ; std::vector<ioWnd::Tooltip,std::allocator<ioWnd::Tooltip> >::_Xlen, COMDAT
; _this$ = ecx

; 1427 : 		_Xlength_error("vector<T> too long");

  00000	68 00 00 00 00	 push	 OFFSET ??_C@_0BD@OLBABOEK@vector?$DMT?$DO?5too?5long?$AA@
  00005	ff 15 00 00 00
	00		 call	 DWORD PTR __imp_?_Xlength_error@std@@YAXPBD@Z
$LN4@Xlen:
$LN3@Xlen:
  0000b	cc		 int	 3
?_Xlen@?$vector@UTooltip@ioWnd@@V?$allocator@UTooltip@ioWnd@@@std@@@std@@IBEXXZ ENDP ; std::vector<ioWnd::Tooltip,std::allocator<ioWnd::Tooltip> >::_Xlen
_TEXT	ENDS
PUBLIC	?deallocate@?$allocator@UTooltip@ioWnd@@@std@@QAEXPAUTooltip@ioWnd@@I@Z ; std::allocator<ioWnd::Tooltip>::deallocate
; Function compile flags: /Ogsp
; File c:\program files (x86)\microsoft visual studio 10.0\vc\include\xmemory
;	COMDAT ?deallocate@?$allocator@UTooltip@ioWnd@@@std@@QAEXPAUTooltip@ioWnd@@I@Z
_TEXT	SEGMENT
__Ptr$ = 8						; size = 4
___formal$ = 12						; size = 4
?deallocate@?$allocator@UTooltip@ioWnd@@@std@@QAEXPAUTooltip@ioWnd@@I@Z PROC ; std::allocator<ioWnd::Tooltip>::deallocate, COMDAT
; _this$ = ecx

; 181  : 		{	// deallocate object at _Ptr, ignore size

  00000	55		 push	 ebp
  00001	8b ec		 mov	 ebp, esp

; 182  : 		::operator delete(_Ptr);

  00003	ff 75 08	 push	 DWORD PTR __Ptr$[ebp]
  00006	e8 00 00 00 00	 call	 ??3@YAXPAX@Z		; operator delete
  0000b	59		 pop	 ecx

; 183  : 		}

  0000c	5d		 pop	 ebp
  0000d	c2 08 00	 ret	 8
?deallocate@?$allocator@UTooltip@ioWnd@@@std@@QAEXPAUTooltip@ioWnd@@I@Z ENDP ; std::allocator<ioWnd::Tooltip>::deallocate
_TEXT	ENDS
PUBLIC	?max_size@?$allocator@UTooltip@ioWnd@@@std@@QBEIXZ ; std::allocator<ioWnd::Tooltip>::max_size
; Function compile flags: /Ogsp
;	COMDAT ?max_size@?$allocator@UTooltip@ioWnd@@@std@@QBEIXZ
_TEXT	SEGMENT
?max_size@?$allocator@UTooltip@ioWnd@@@std@@QBEIXZ PROC	; std::allocator<ioWnd::Tooltip>::max_size, COMDAT
; _this$ = ecx

; 218  : 		_SIZT _Count = (_SIZT)(-1) / sizeof (_Ty);
; 219  : 		return (0 < _Count ? _Count : 1);

  00000	b8 aa aa aa 0a	 mov	 eax, 178956970		; 0aaaaaaaH

; 220  : 		}

  00005	c3		 ret	 0
?max_size@?$allocator@UTooltip@ioWnd@@@std@@QBEIXZ ENDP	; std::allocator<ioWnd::Tooltip>::max_size
_TEXT	ENDS
PUBLIC	?_Compat@?$_Vector_const_iterator@V?$_Vector_val@UTooltip@ioWnd@@V?$allocator@UTooltip@ioWnd@@@std@@@std@@@std@@QBEXABV12@@Z ; std::_Vector_const_iterator<std::_Vector_val<ioWnd::Tooltip,std::allocator<ioWnd::Tooltip> > >::_Compat
; Function compile flags: /Ogsp
; File c:\program files (x86)\microsoft visual studio 10.0\vc\include\vector
;	COMDAT ?_Compat@?$_Vector_const_iterator@V?$_Vector_val@UTooltip@ioWnd@@V?$allocator@UTooltip@ioWnd@@@std@@@std@@@std@@QBEXABV12@@Z
_TEXT	SEGMENT
___formal$ = 8						; size = 4
?_Compat@?$_Vector_const_iterator@V?$_Vector_val@UTooltip@ioWnd@@V?$allocator@UTooltip@ioWnd@@@std@@@std@@@std@@QBEXABV12@@Z PROC ; std::_Vector_const_iterator<std::_Vector_val<ioWnd::Tooltip,std::allocator<ioWnd::Tooltip> > >::_Compat, COMDAT
; _this$ = ecx

; 253  : 		}

  00000	c2 04 00	 ret	 4
?_Compat@?$_Vector_const_iterator@V?$_Vector_val@UTooltip@ioWnd@@V?$allocator@UTooltip@ioWnd@@@std@@@std@@@std@@QBEXABV12@@Z ENDP ; std::_Vector_const_iterator<std::_Vector_val<ioWnd::Tooltip,std::allocator<ioWnd::Tooltip> > >::_Compat
_TEXT	ENDS
PUBLIC	?_Adopt@_Iterator_base0@std@@QAEXPBX@Z		; std::_Iterator_base0::_Adopt
; Function compile flags: /Ogsp
; File c:\program files (x86)\microsoft visual studio 10.0\vc\include\xutility
;	COMDAT ?_Adopt@_Iterator_base0@std@@QAEXPBX@Z
_TEXT	SEGMENT
___formal$ = 8						; size = 4
?_Adopt@_Iterator_base0@std@@QAEXPBX@Z PROC		; std::_Iterator_base0::_Adopt, COMDAT
; _this$ = ecx

; 49   : 		}

  00000	c2 04 00	 ret	 4
?_Adopt@_Iterator_base0@std@@QAEXPBX@Z ENDP		; std::_Iterator_base0::_Adopt
_TEXT	ENDS
PUBLIC	??$addressof@$$CBUTooltip@ioWnd@@@std@@YAPBUTooltip@ioWnd@@ABU12@@Z ; std::addressof<ioWnd::Tooltip const >
; Function compile flags: /Ogsp
; File c:\program files (x86)\microsoft visual studio 10.0\vc\include\xmemory
;	COMDAT ??$addressof@$$CBUTooltip@ioWnd@@@std@@YAPBUTooltip@ioWnd@@ABU12@@Z
_TEXT	SEGMENT
__Val$ = 8						; size = 4
??$addressof@$$CBUTooltip@ioWnd@@@std@@YAPBUTooltip@ioWnd@@ABU12@@Z PROC ; std::addressof<ioWnd::Tooltip const >, COMDAT

; 110  : 	{	// return address of _Val

  00000	55		 push	 ebp
  00001	8b ec		 mov	 ebp, esp

; 111  : 	return ((_Ty *) &(char&)_Val);

  00003	8b 45 08	 mov	 eax, DWORD PTR __Val$[ebp]

; 112  : 	}

  00006	5d		 pop	 ebp
  00007	c3		 ret	 0
??$addressof@$$CBUTooltip@ioWnd@@@std@@YAPBUTooltip@ioWnd@@ABU12@@Z ENDP ; std::addressof<ioWnd::Tooltip const >
_TEXT	ENDS
PUBLIC	__TI2?AVbad_alloc@std@@
PUBLIC	??$_Allocate@UTooltip@ioWnd@@@std@@YAPAUTooltip@ioWnd@@IPAU12@@Z ; std::_Allocate<ioWnd::Tooltip>
PUBLIC	__CTA2?AVbad_alloc@std@@
PUBLIC	__CT??_R0?AVbad_alloc@std@@@8??0bad_alloc@std@@QAE@ABV01@@Z12
PUBLIC	??0bad_alloc@std@@QAE@ABV01@@Z			; std::bad_alloc::bad_alloc
PUBLIC	__CT??_R0?AVexception@std@@@8??0exception@std@@QAE@ABV01@@Z12
EXTRN	??2@YAPAXI@Z:PROC				; operator new
EXTRN	__CxxThrowException@8:PROC
EXTRN	??0exception@std@@QAE@ABV01@@Z:PROC		; std::exception::exception
;	COMDAT __CT??_R0?AVexception@std@@@8??0exception@std@@QAE@ABV01@@Z12
; File c:\program files (x86)\microsoft visual studio 10.0\vc\include\exception
xdata$x	SEGMENT
__CT??_R0?AVexception@std@@@8??0exception@std@@QAE@ABV01@@Z12 DD 00H
	DD	FLAT:??_R0?AVexception@std@@@8
	DD	00H
	DD	0ffffffffH
	ORG $+4
	DD	0cH
	DD	FLAT:??0exception@std@@QAE@ABV01@@Z
xdata$x	ENDS
;	COMDAT __CT??_R0?AVbad_alloc@std@@@8??0bad_alloc@std@@QAE@ABV01@@Z12
xdata$x	SEGMENT
__CT??_R0?AVbad_alloc@std@@@8??0bad_alloc@std@@QAE@ABV01@@Z12 DD 00H
	DD	FLAT:??_R0?AVbad_alloc@std@@@8
	DD	00H
	DD	0ffffffffH
	ORG $+4
	DD	0cH
	DD	FLAT:??0bad_alloc@std@@QAE@ABV01@@Z
xdata$x	ENDS
;	COMDAT __CTA2?AVbad_alloc@std@@
xdata$x	SEGMENT
__CTA2?AVbad_alloc@std@@ DD 02H
	DD	FLAT:__CT??_R0?AVbad_alloc@std@@@8??0bad_alloc@std@@QAE@ABV01@@Z12
	DD	FLAT:__CT??_R0?AVexception@std@@@8??0exception@std@@QAE@ABV01@@Z12
xdata$x	ENDS
;	COMDAT __TI2?AVbad_alloc@std@@
xdata$x	SEGMENT
__TI2?AVbad_alloc@std@@ DD 00H
	DD	FLAT:??1bad_alloc@std@@UAE@XZ
	DD	00H
	DD	FLAT:__CTA2?AVbad_alloc@std@@
; Function compile flags: /Ogsp
; File c:\program files (x86)\microsoft visual studio 10.0\vc\include\xmemory
xdata$x	ENDS
;	COMDAT ??$_Allocate@UTooltip@ioWnd@@@std@@YAPAUTooltip@ioWnd@@IPAU12@@Z
_TEXT	SEGMENT
$T507540 = -12						; size = 12
$T507545 = 8						; size = 4
__Count$ = 8						; size = 4
___formal$ = 12						; size = 4
??$_Allocate@UTooltip@ioWnd@@@std@@YAPAUTooltip@ioWnd@@IPAU12@@Z PROC ; std::_Allocate<ioWnd::Tooltip>, COMDAT

; 30   : 	{	// allocate storage for _Count elements of type _Ty

  00000	55		 push	 ebp
  00001	8b ec		 mov	 ebp, esp

; 31   : 	void *_Ptr = 0;
; 32   : 
; 33   : 	if (_Count <= 0)

  00003	8b 4d 08	 mov	 ecx, DWORD PTR __Count$[ebp]
  00006	83 ec 0c	 sub	 esp, 12			; 0000000cH
  00009	33 c0		 xor	 eax, eax
  0000b	85 c9		 test	 ecx, ecx

; 34   : 		_Count = 0;
; 35   : 	else if (((_SIZT)(-1) / sizeof (_Ty) < _Count)

  0000d	74 3c		 je	 SHORT $LN5@Allocate

; 36   : 		|| (_Ptr = ::operator new(_Count * sizeof (_Ty))) == 0)

  0000f	81 f9 aa aa aa
	0a		 cmp	 ecx, 178956970		; 0aaaaaaaH
  00015	77 0e		 ja	 SHORT $LN1@Allocate
  00017	6b c9 18	 imul	 ecx, 24			; 00000018H
  0001a	51		 push	 ecx
  0001b	e8 00 00 00 00	 call	 ??2@YAPAXI@Z		; operator new
  00020	59		 pop	 ecx
  00021	85 c0		 test	 eax, eax

; 38   : 
; 39   : 	return ((_Ty _FARQ *)_Ptr);

  00023	75 26		 jne	 SHORT $LN5@Allocate
$LN1@Allocate:

; 37   : 		_THROW_NCEE(bad_alloc, 0);

  00025	83 65 08 00	 and	 DWORD PTR $T507545[ebp], 0
  00029	8d 45 08	 lea	 eax, DWORD PTR $T507545[ebp]
  0002c	50		 push	 eax
  0002d	8d 4d f4	 lea	 ecx, DWORD PTR $T507540[ebp]
  00030	ff 15 00 00 00
	00		 call	 DWORD PTR __imp_??0exception@std@@QAE@ABQBD@Z
  00036	68 00 00 00 00	 push	 OFFSET __TI2?AVbad_alloc@std@@
  0003b	8d 45 f4	 lea	 eax, DWORD PTR $T507540[ebp]
  0003e	50		 push	 eax
  0003f	c7 45 f4 00 00
	00 00		 mov	 DWORD PTR $T507540[ebp], OFFSET ??_7bad_alloc@std@@6B@
  00046	e8 00 00 00 00	 call	 __CxxThrowException@8
$LN10@Allocate:
$LN5@Allocate:

; 40   : 	}

  0004b	c9		 leave
  0004c	c3		 ret	 0
$LN9@Allocate:
??$_Allocate@UTooltip@ioWnd@@@std@@YAPAUTooltip@ioWnd@@IPAU12@@Z ENDP ; std::_Allocate<ioWnd::Tooltip>
_TEXT	ENDS
PUBLIC	??$forward@AAUTooltip@ioWnd@@@std@@YAAAUTooltip@ioWnd@@AAU12@@Z ; std::forward<ioWnd::Tooltip &>
; Function compile flags: /Ogsp
; File c:\program files (x86)\microsoft visual studio 10.0\vc\include\utility
;	COMDAT ??$forward@AAUTooltip@ioWnd@@@std@@YAAAUTooltip@ioWnd@@AAU12@@Z
_TEXT	SEGMENT
__Arg$ = 8						; size = 4
??$forward@AAUTooltip@ioWnd@@@std@@YAAAUTooltip@ioWnd@@AAU12@@Z PROC ; std::forward<ioWnd::Tooltip &>, COMDAT

; 78   : 	{	// forward _Arg, given explicitly specified type parameter

  00000	55		 push	 ebp
  00001	8b ec		 mov	 ebp, esp

; 79   : 	return ((_Ty&&)_Arg);

  00003	8b 45 08	 mov	 eax, DWORD PTR __Arg$[ebp]

; 80   : 	}

  00006	5d		 pop	 ebp
  00007	c3		 ret	 0
??$forward@AAUTooltip@ioWnd@@@std@@YAAAUTooltip@ioWnd@@AAU12@@Z ENDP ; std::forward<ioWnd::Tooltip &>
_TEXT	ENDS
PUBLIC	??$forward@ABUTooltip@ioWnd@@@std@@YAABUTooltip@ioWnd@@ABU12@@Z ; std::forward<ioWnd::Tooltip const &>
; Function compile flags: /Ogsp
;	COMDAT ??$forward@ABUTooltip@ioWnd@@@std@@YAABUTooltip@ioWnd@@ABU12@@Z
_TEXT	SEGMENT
__Arg$ = 8						; size = 4
??$forward@ABUTooltip@ioWnd@@@std@@YAABUTooltip@ioWnd@@ABU12@@Z PROC ; std::forward<ioWnd::Tooltip const &>, COMDAT

; 78   : 	{	// forward _Arg, given explicitly specified type parameter

  00000	55		 push	 ebp
  00001	8b ec		 mov	 ebp, esp

; 79   : 	return ((_Ty&&)_Arg);

  00003	8b 45 08	 mov	 eax, DWORD PTR __Arg$[ebp]

; 80   : 	}

  00006	5d		 pop	 ebp
  00007	c3		 ret	 0
??$forward@ABUTooltip@ioWnd@@@std@@YAABUTooltip@ioWnd@@ABU12@@Z ENDP ; std::forward<ioWnd::Tooltip const &>
_TEXT	ENDS
PUBLIC	??$_Ptr_cat@UTooltip@ioWnd@@U12@@std@@YA?AU_Nonscalar_ptr_iterator_tag@0@PAUTooltip@ioWnd@@0@Z ; std::_Ptr_cat<ioWnd::Tooltip,ioWnd::Tooltip>
; Function compile flags: /Ogsp
; File c:\program files (x86)\microsoft visual studio 10.0\vc\include\xutility
;	COMDAT ??$_Ptr_cat@UTooltip@ioWnd@@U12@@std@@YA?AU_Nonscalar_ptr_iterator_tag@0@PAUTooltip@ioWnd@@0@Z
_TEXT	SEGMENT
__Cat$ = -1						; size = 1
___formal$ = 8						; size = 4
___formal$ = 12						; size = 4
??$_Ptr_cat@UTooltip@ioWnd@@U12@@std@@YA?AU_Nonscalar_ptr_iterator_tag@0@PAUTooltip@ioWnd@@0@Z PROC ; std::_Ptr_cat<ioWnd::Tooltip,ioWnd::Tooltip>, COMDAT

; 516  : 	{	// return pointer category from pointers

  00000	55		 push	 ebp
  00001	8b ec		 mov	 ebp, esp
  00003	51		 push	 ecx

; 517  : 	typename _Ptr_cat_helper<_Elem1, _Elem2>::_Type _Cat;
; 518  : 	return (_Cat);

  00004	8a 45 ff	 mov	 al, BYTE PTR __Cat$[ebp]

; 519  : 	}

  00007	c9		 leave
  00008	c3		 ret	 0
??$_Ptr_cat@UTooltip@ioWnd@@U12@@std@@YA?AU_Nonscalar_ptr_iterator_tag@0@PAUTooltip@ioWnd@@0@Z ENDP ; std::_Ptr_cat<ioWnd::Tooltip,ioWnd::Tooltip>
_TEXT	ENDS
PUBLIC	??0Tooltip@ioWnd@@QAE@ABU01@@Z			; ioWnd::Tooltip::Tooltip
EXTRN	__imp_??0ioHashString@@QAE@ABV0@@Z:PROC
; Function compile flags: /Ogsp
;	COMDAT ??0Tooltip@ioWnd@@QAE@ABU01@@Z
_TEXT	SEGMENT
___that$ = 8						; size = 4
??0Tooltip@ioWnd@@QAE@ABU01@@Z PROC			; ioWnd::Tooltip::Tooltip, COMDAT
; _this$ = ecx
  00000	55		 push	 ebp
  00001	8b ec		 mov	 ebp, esp
  00003	8b 45 08	 mov	 eax, DWORD PTR ___that$[ebp]
  00006	56		 push	 esi
  00007	8b f1		 mov	 esi, ecx
  00009	8b 08		 mov	 ecx, DWORD PTR [eax]
  0000b	89 0e		 mov	 DWORD PTR [esi], ecx
  0000d	8b 48 04	 mov	 ecx, DWORD PTR [eax+4]
  00010	83 c0 08	 add	 eax, 8
  00013	89 4e 04	 mov	 DWORD PTR [esi+4], ecx
  00016	50		 push	 eax
  00017	8d 4e 08	 lea	 ecx, DWORD PTR [esi+8]
  0001a	ff 15 00 00 00
	00		 call	 DWORD PTR __imp_??0ioHashString@@QAE@ABV0@@Z
  00020	8b c6		 mov	 eax, esi
  00022	5e		 pop	 esi
  00023	5d		 pop	 ebp
  00024	c2 04 00	 ret	 4
??0Tooltip@ioWnd@@QAE@ABU01@@Z ENDP			; ioWnd::Tooltip::Tooltip
_TEXT	ENDS
PUBLIC	??4Tooltip@ioWnd@@QAEAAU01@ABU01@@Z		; ioWnd::Tooltip::operator=
EXTRN	__imp_??4ioHashString@@QAEAAV0@ABV0@@Z:PROC
; Function compile flags: /Ogsp
;	COMDAT ??4Tooltip@ioWnd@@QAEAAU01@ABU01@@Z
_TEXT	SEGMENT
___that$ = 8						; size = 4
??4Tooltip@ioWnd@@QAEAAU01@ABU01@@Z PROC		; ioWnd::Tooltip::operator=, COMDAT
; _this$ = ecx
  00000	55		 push	 ebp
  00001	8b ec		 mov	 ebp, esp
  00003	8b 45 08	 mov	 eax, DWORD PTR ___that$[ebp]
  00006	56		 push	 esi
  00007	8b f1		 mov	 esi, ecx
  00009	8b 08		 mov	 ecx, DWORD PTR [eax]
  0000b	89 0e		 mov	 DWORD PTR [esi], ecx
  0000d	8b 48 04	 mov	 ecx, DWORD PTR [eax+4]
  00010	83 c0 08	 add	 eax, 8
  00013	89 4e 04	 mov	 DWORD PTR [esi+4], ecx
  00016	50		 push	 eax
  00017	8d 4e 08	 lea	 ecx, DWORD PTR [esi+8]
  0001a	ff 15 00 00 00
	00		 call	 DWORD PTR __imp_??4ioHashString@@QAEAAV0@ABV0@@Z
  00020	8b c6		 mov	 eax, esi
  00022	5e		 pop	 esi
  00023	5d		 pop	 ebp
  00024	c2 04 00	 ret	 4
??4Tooltip@ioWnd@@QAEAAU01@ABU01@@Z ENDP		; ioWnd::Tooltip::operator=
_TEXT	ENDS
PUBLIC	??$move@AAUTooltip@ioWnd@@@std@@YA$$QAUTooltip@ioWnd@@AAU12@@Z ; std::move<ioWnd::Tooltip &>
; Function compile flags: /Ogsp
; File c:\program files (x86)\microsoft visual studio 10.0\vc\include\utility
;	COMDAT ??$move@AAUTooltip@ioWnd@@@std@@YA$$QAUTooltip@ioWnd@@AAU12@@Z
_TEXT	SEGMENT
__Arg$ = 8						; size = 4
??$move@AAUTooltip@ioWnd@@@std@@YA$$QAUTooltip@ioWnd@@AAU12@@Z PROC ; std::move<ioWnd::Tooltip &>, COMDAT

; 86   : 	{	// forward _Arg as movable

  00000	55		 push	 ebp
  00001	8b ec		 mov	 ebp, esp

; 87   : 	return ((typename tr1::_Remove_reference<_Ty>::_Type&&)_Arg);

  00003	8b 45 08	 mov	 eax, DWORD PTR __Arg$[ebp]

; 88   : 	}

  00006	5d		 pop	 ebp
  00007	c3		 ret	 0
??$move@AAUTooltip@ioWnd@@@std@@YA$$QAUTooltip@ioWnd@@AAU12@@Z ENDP ; std::move<ioWnd::Tooltip &>
_TEXT	ENDS
PUBLIC	??$_Val_type@PAUTooltip@ioWnd@@@std@@YAPAUTooltip@ioWnd@@PAU12@@Z ; std::_Val_type<ioWnd::Tooltip *>
; Function compile flags: /Ogsp
; File c:\program files (x86)\microsoft visual studio 10.0\vc\include\xutility
;	COMDAT ??$_Val_type@PAUTooltip@ioWnd@@@std@@YAPAUTooltip@ioWnd@@PAU12@@Z
_TEXT	SEGMENT
___formal$ = 8						; size = 4
??$_Val_type@PAUTooltip@ioWnd@@@std@@YAPAUTooltip@ioWnd@@PAU12@@Z PROC ; std::_Val_type<ioWnd::Tooltip *>, COMDAT

; 790  : 	return (0);

  00000	33 c0		 xor	 eax, eax

; 791  : 	}

  00002	c3		 ret	 0
??$_Val_type@PAUTooltip@ioWnd@@@std@@YAPAUTooltip@ioWnd@@PAU12@@Z ENDP ; std::_Val_type<ioWnd::Tooltip *>
_TEXT	ENDS
PUBLIC	??_GTooltip@ioWnd@@QAEPAXI@Z			; ioWnd::Tooltip::`scalar deleting destructor'
; Function compile flags: /Ogsp
;	COMDAT ??_GTooltip@ioWnd@@QAEPAXI@Z
_TEXT	SEGMENT
___flags$ = 8						; size = 4
??_GTooltip@ioWnd@@QAEPAXI@Z PROC			; ioWnd::Tooltip::`scalar deleting destructor', COMDAT
; _this$ = ecx
  00000	55		 push	 ebp
  00001	8b ec		 mov	 ebp, esp
  00003	56		 push	 esi
  00004	8b f1		 mov	 esi, ecx
  00006	8d 4e 08	 lea	 ecx, DWORD PTR [esi+8]
  00009	ff 15 00 00 00
	00		 call	 DWORD PTR __imp_??1ioHashString@@QAE@XZ
  0000f	f6 45 08 01	 test	 BYTE PTR ___flags$[ebp], 1
  00013	74 07		 je	 SHORT $LN1@scalar@2
  00015	56		 push	 esi
  00016	e8 00 00 00 00	 call	 ??3@YAXPAX@Z		; operator delete
  0001b	59		 pop	 ecx
$LN1@scalar@2:
  0001c	8b c6		 mov	 eax, esi
  0001e	5e		 pop	 esi
  0001f	5d		 pop	 ebp
  00020	c2 04 00	 ret	 4
??_GTooltip@ioWnd@@QAEPAXI@Z ENDP			; ioWnd::Tooltip::`scalar deleting destructor'
_TEXT	ENDS
PUBLIC	??$forward@UTooltip@ioWnd@@@std@@YA$$QAUTooltip@ioWnd@@AAU12@@Z ; std::forward<ioWnd::Tooltip>
; Function compile flags: /Ogsp
; File c:\program files (x86)\microsoft visual studio 10.0\vc\include\utility
;	COMDAT ??$forward@UTooltip@ioWnd@@@std@@YA$$QAUTooltip@ioWnd@@AAU12@@Z
_TEXT	SEGMENT
__Arg$ = 8						; size = 4
??$forward@UTooltip@ioWnd@@@std@@YA$$QAUTooltip@ioWnd@@AAU12@@Z PROC ; std::forward<ioWnd::Tooltip>, COMDAT

; 78   : 	{	// forward _Arg, given explicitly specified type parameter

  00000	55		 push	 ebp
  00001	8b ec		 mov	 ebp, esp

; 79   : 	return ((_Ty&&)_Arg);

  00003	8b 45 08	 mov	 eax, DWORD PTR __Arg$[ebp]

; 80   : 	}

  00006	5d		 pop	 ebp
  00007	c3		 ret	 0
??$forward@UTooltip@ioWnd@@@std@@YA$$QAUTooltip@ioWnd@@AAU12@@Z ENDP ; std::forward<ioWnd::Tooltip>
_TEXT	ENDS
PUBLIC	?_DECSTR@@YAXPADH@Z				; _DECSTR
; Function compile flags: /Ogsp
; File d:\lost saga for developer\youtube\tutorial\source\src\lsclient\stringprotect.h
;	COMDAT ?_DECSTR@@YAXPADH@Z
_TEXT	SEGMENT
_s$ = 8							; size = 4
_l$ = 12						; size = 4
?_DECSTR@@YAXPADH@Z PROC				; _DECSTR, COMDAT

; 40   : __forceinline void _DECSTR(char* s, int l){int i=0,l4=(l-1)/4,*p=(int*)s;s[l-1]=0;for(;i<l4;++i)*(p++)^=0xEAEBECED;for(i=l4*4;i<l-1;++i)s[i]^=0xED-i%4;}

  00000	55		 push	 ebp
  00001	8b ec		 mov	 ebp, esp
  00003	8b 4d 0c	 mov	 ecx, DWORD PTR _l$[ebp]
  00006	56		 push	 esi
  00007	8b 75 08	 mov	 esi, DWORD PTR _s$[ebp]
  0000a	57		 push	 edi
  0000b	8d 79 ff	 lea	 edi, DWORD PTR [ecx-1]
  0000e	8b c7		 mov	 eax, edi
  00010	99		 cdq
  00011	83 e2 03	 and	 edx, 3
  00014	03 c2		 add	 eax, edx
  00016	c1 f8 02	 sar	 eax, 2
  00019	8b d6		 mov	 edx, esi
  0001b	c6 44 0e ff 00	 mov	 BYTE PTR [esi+ecx-1], 0
  00020	85 c0		 test	 eax, eax
  00022	7e 0e		 jle	 SHORT $LN4@DECSTR
  00024	8b c8		 mov	 ecx, eax
$LL6@DECSTR:
  00026	81 32 ed ec eb
	ea		 xor	 DWORD PTR [edx], -353637139 ; eaebecedH
  0002c	83 c2 04	 add	 edx, 4
  0002f	49		 dec	 ecx
  00030	75 f4		 jne	 SHORT $LL6@DECSTR
$LN4@DECSTR:
  00032	c1 e0 02	 shl	 eax, 2
  00035	eb 17		 jmp	 SHORT $LN14@DECSTR
$LL3@DECSTR:
  00037	8b c8		 mov	 ecx, eax
  00039	81 e1 03 00 00
	80		 and	 ecx, -2147483645	; 80000003H
  0003f	79 05		 jns	 SHORT $LN13@DECSTR
  00041	49		 dec	 ecx
  00042	83 c9 fc	 or	 ecx, -4			; fffffffcH
  00045	41		 inc	 ecx
$LN13@DECSTR:
  00046	b2 ed		 mov	 dl, -19			; ffffffedH
  00048	2a d1		 sub	 dl, cl
  0004a	30 14 30	 xor	 BYTE PTR [eax+esi], dl
  0004d	40		 inc	 eax
$LN14@DECSTR:
  0004e	3b c7		 cmp	 eax, edi
  00050	7c e5		 jl	 SHORT $LL3@DECSTR
  00052	5f		 pop	 edi
  00053	5e		 pop	 esi
  00054	5d		 pop	 ebp
  00055	c3		 ret	 0
?_DECSTR@@YAXPADH@Z ENDP				; _DECSTR
_TEXT	ENDS
PUBLIC	?GetPreOverWnd@ioSP2GUIManager@@QAEPAVioWnd@@XZ	; ioSP2GUIManager::GetPreOverWnd
; Function compile flags: /Ogsp
; File d:\lost saga for developer\youtube\tutorial\source\src\lsclient\gui\iosp2guimanager.h
;	COMDAT ?GetPreOverWnd@ioSP2GUIManager@@QAEPAVioWnd@@XZ
_TEXT	SEGMENT
?GetPreOverWnd@ioSP2GUIManager@@QAEPAVioWnd@@XZ PROC	; ioSP2GUIManager::GetPreOverWnd, COMDAT
; _this$ = ecx

; 220  : 	ioWnd *GetPreOverWnd(){ return m_pPreOverWnd; }

  00000	8b 41 10	 mov	 eax, DWORD PTR [ecx+16]
  00003	c3		 ret	 0
?GetPreOverWnd@ioSP2GUIManager@@QAEPAVioWnd@@XZ ENDP	; ioSP2GUIManager::GetPreOverWnd
_TEXT	ENDS
PUBLIC	?size@?$vector@UTooltip@ioWnd@@V?$allocator@UTooltip@ioWnd@@@std@@@std@@QBEIXZ ; std::vector<ioWnd::Tooltip,std::allocator<ioWnd::Tooltip> >::size
; Function compile flags: /Ogsp
; File c:\program files (x86)\microsoft visual studio 10.0\vc\include\vector
;	COMDAT ?size@?$vector@UTooltip@ioWnd@@V?$allocator@UTooltip@ioWnd@@@std@@@std@@QBEIXZ
_TEXT	SEGMENT
?size@?$vector@UTooltip@ioWnd@@V?$allocator@UTooltip@ioWnd@@@std@@@std@@QBEIXZ PROC ; std::vector<ioWnd::Tooltip,std::allocator<ioWnd::Tooltip> >::size, COMDAT
; _this$ = ecx

; 879  : 		return (this->_Mylast - this->_Myfirst);

  00000	8b 41 04	 mov	 eax, DWORD PTR [ecx+4]
  00003	2b 01		 sub	 eax, DWORD PTR [ecx]
  00005	6a 18		 push	 24			; 00000018H
  00007	99		 cdq
  00008	59		 pop	 ecx
  00009	f7 f9		 idiv	 ecx

; 880  : 		}

  0000b	c3		 ret	 0
?size@?$vector@UTooltip@ioWnd@@V?$allocator@UTooltip@ioWnd@@@std@@@std@@QBEIXZ ENDP ; std::vector<ioWnd::Tooltip,std::allocator<ioWnd::Tooltip> >::size
_TEXT	ENDS
EXTRN	__imp_??0exception@std@@QAE@ABV01@@Z:PROC
; Function compile flags: /Ogsp
;	COMDAT ??0bad_alloc@std@@QAE@ABV01@@Z
_TEXT	SEGMENT
___that$ = 8						; size = 4
??0bad_alloc@std@@QAE@ABV01@@Z PROC			; std::bad_alloc::bad_alloc, COMDAT
; _this$ = ecx
  00000	55		 push	 ebp
  00001	8b ec		 mov	 ebp, esp
  00003	56		 push	 esi
  00004	ff 75 08	 push	 DWORD PTR ___that$[ebp]
  00007	8b f1		 mov	 esi, ecx
  00009	ff 15 00 00 00
	00		 call	 DWORD PTR __imp_??0exception@std@@QAE@ABV01@@Z
  0000f	c7 06 00 00 00
	00		 mov	 DWORD PTR [esi], OFFSET ??_7bad_alloc@std@@6B@
  00015	8b c6		 mov	 eax, esi
  00017	5e		 pop	 esi
  00018	5d		 pop	 ebp
  00019	c2 04 00	 ret	 4
??0bad_alloc@std@@QAE@ABV01@@Z ENDP			; std::bad_alloc::bad_alloc
; Function compile flags: /Ogsp
_TEXT	ENDS
;	COMDAT ??_GTooltipHelpWnd@@UAEPAXI@Z
_TEXT	SEGMENT
___flags$ = 8						; size = 4
??_GTooltipHelpWnd@@UAEPAXI@Z PROC			; TooltipHelpWnd::`scalar deleting destructor', COMDAT
; _this$ = ecx
  00000	55		 push	 ebp
  00001	8b ec		 mov	 ebp, esp
  00003	56		 push	 esi
  00004	8b f1		 mov	 esi, ecx
  00006	e8 00 00 00 00	 call	 ??1TooltipHelpWnd@@UAE@XZ ; TooltipHelpWnd::~TooltipHelpWnd
  0000b	f6 45 08 01	 test	 BYTE PTR ___flags$[ebp], 1
  0000f	74 07		 je	 SHORT $LN1@scalar@3
  00011	56		 push	 esi
  00012	e8 00 00 00 00	 call	 ??3@YAXPAX@Z		; operator delete
  00017	59		 pop	 ecx
$LN1@scalar@3:
  00018	8b c6		 mov	 eax, esi
  0001a	5e		 pop	 esi
  0001b	5d		 pop	 ebp
  0001c	c2 04 00	 ret	 4
??_GTooltipHelpWnd@@UAEPAXI@Z ENDP			; TooltipHelpWnd::`scalar deleting destructor'
_TEXT	ENDS
PUBLIC	__real@3f0f5c29
PUBLIC	?OnRenderPrintHelp@TooltipHelpWnd@@IAEXHHHH@Z	; TooltipHelpWnd::OnRenderPrintHelp
EXTRN	__imp_?c_str@ioHashString@@QBEPBDXZ:PROC
EXTRN	__imp_?SetAlignType@ioFontManager@@QAEXW4TextAlignType@@@Z:PROC
EXTRN	__imp_?SetTextColor@ioFontManager@@QAEXK@Z:PROC
EXTRN	__imp_?PrintText@ioFontManager@@QAAXMMMPBDZZ:PROC
EXTRN	__imp_?SetTextStyle@ioFontManager@@QAEXW4TextStyle@@@Z:PROC
EXTRN	__imp_?SetBkColor@ioFontManager@@QAEXHHH@Z:PROC
EXTRN	__imp_?GetSingleton@ioFontManager@@SAAAV1@XZ:PROC
EXTRN	__fltused:DWORD
;	COMDAT __real@3f0f5c29
CONST	SEGMENT
__real@3f0f5c29 DD 03f0f5c29r			; 0.56
; Function compile flags: /Ogsp
; File d:\lost saga for developer\youtube\tutorial\source\src\lsclient\gui\tooltiphelpwnd.cpp
CONST	ENDS
;	COMDAT ?OnRenderPrintHelp@TooltipHelpWnd@@IAEXHHHH@Z
_TEXT	SEGMENT
_this$ = -12						; size = 4
tv205 = -8						; size = 4
tv288 = -4						; size = 4
_iXPos$ = 8						; size = 4
tv307 = 12						; size = 4
_iYPos$ = 12						; size = 4
_iWidth$ = 16						; size = 4
_iHeight$ = 20						; size = 4
?OnRenderPrintHelp@TooltipHelpWnd@@IAEXHHHH@Z PROC	; TooltipHelpWnd::OnRenderPrintHelp, COMDAT
; _this$ = ecx

; 398  : {

  00000	55		 push	 ebp
  00001	8b ec		 mov	 ebp, esp
  00003	83 ec 0c	 sub	 esp, 12			; 0000000cH
  00006	53		 push	 ebx
  00007	56		 push	 esi
  00008	57		 push	 edi

; 399  : 	g_FontMgr.SetBkColor( 0, 0, 0 );

  00009	8b 3d 00 00 00
	00		 mov	 edi, DWORD PTR __imp_?GetSingleton@ioFontManager@@SAAAV1@XZ
  0000f	33 db		 xor	 ebx, ebx
  00011	53		 push	 ebx
  00012	8b f1		 mov	 esi, ecx
  00014	53		 push	 ebx
  00015	53		 push	 ebx
  00016	89 75 f4	 mov	 DWORD PTR _this$[ebp], esi
  00019	ff d7		 call	 edi
  0001b	8b c8		 mov	 ecx, eax
  0001d	ff 15 00 00 00
	00		 call	 DWORD PTR __imp_?SetBkColor@ioFontManager@@QAEXHHH@Z

; 400  : 	g_FontMgr.SetTextStyle( TS_OUTLINE_FULL_2X );

  00023	6a 05		 push	 5
  00025	ff d7		 call	 edi
  00027	8b c8		 mov	 ecx, eax
  00029	ff 15 00 00 00
	00		 call	 DWORD PTR __imp_?SetTextStyle@ioFontManager@@QAEXW4TextStyle@@@Z

; 401  : 	
; 402  : 	int iSize = m_TooltipList.size();

  0002f	8b 86 8c 00 00
	00		 mov	 eax, DWORD PTR [esi+140]
  00035	2b 86 88 00 00
	00		 sub	 eax, DWORD PTR [esi+136]
  0003b	6a 18		 push	 24			; 00000018H
  0003d	99		 cdq
  0003e	59		 pop	 ecx
  0003f	f7 f9		 idiv	 ecx

; 403  : 	for(int i = 0;i < iSize;i++)

  00041	3b c3		 cmp	 eax, ebx
  00043	0f 8e bf 00 00
	00		 jle	 $LN6@OnRenderPr

; 399  : 	g_FontMgr.SetBkColor( 0, 0, 0 );

  00049	8b 4d 0c	 mov	 ecx, DWORD PTR _iYPos$[ebp]
  0004c	83 c1 0b	 add	 ecx, 11			; 0000000bH
  0004f	89 5d fc	 mov	 DWORD PTR tv288[ebp], ebx
  00052	8b 1d 00 00 00
	00		 mov	 ebx, DWORD PTR __imp_?PrintText@ioFontManager@@QAAXMMMPBDZZ
  00058	89 4d 0c	 mov	 DWORD PTR tv307[ebp], ecx
  0005b	89 45 f8	 mov	 DWORD PTR tv205[ebp], eax
  0005e	eb 03		 jmp	 SHORT $LN8@OnRenderPr
$LL17@OnRenderPr:
  00060	8b 75 f4	 mov	 esi, DWORD PTR _this$[ebp]
$LN8@OnRenderPr:

; 404  : 	{
; 405  : 		Tooltip &kTooltip = m_TooltipList[i];

  00063	8b b6 88 00 00
	00		 mov	 esi, DWORD PTR [esi+136]
  00069	03 75 fc	 add	 esi, DWORD PTR tv288[ebp]

; 406  : 		g_FontMgr.SetTextColor( kTooltip.m_dwTextColor );

  0006c	ff 76 04	 push	 DWORD PTR [esi+4]
  0006f	ff d7		 call	 edi
  00071	8b c8		 mov	 ecx, eax
  00073	ff 15 00 00 00
	00		 call	 DWORD PTR __imp_?SetTextColor@ioFontManager@@QAEXK@Z

; 407  : 		g_FontMgr.SetAlignType( kTooltip.m_TextAlign );

  00079	ff 36		 push	 DWORD PTR [esi]
  0007b	ff d7		 call	 edi
  0007d	8b c8		 mov	 ecx, eax
  0007f	ff 15 00 00 00
	00		 call	 DWORD PTR __imp_?SetAlignType@ioFontManager@@QAEXW4TextAlignType@@@Z

; 408  : 		switch( kTooltip.m_TextAlign )

  00085	8b 06		 mov	 eax, DWORD PTR [esi]
  00087	48		 dec	 eax

; 416  : 		default:
; 417  : 			g_FontMgr.PrintText( iXPos + 7, iYPos + 11 + ( i * 20 ), 0.56f, kTooltip.m_szHelp.c_str() );

  00088	8d 4e 08	 lea	 ecx, DWORD PTR [esi+8]
  0008b	74 25		 je	 SHORT $LN3@OnRenderPr

; 408  : 		switch( kTooltip.m_TextAlign )

  0008d	48		 dec	 eax
  0008e	74 0f		 je	 SHORT $LN2@OnRenderPr

; 416  : 		default:
; 417  : 			g_FontMgr.PrintText( iXPos + 7, iYPos + 11 + ( i * 20 ), 0.56f, kTooltip.m_szHelp.c_str() );

  00090	ff 15 00 00 00
	00		 call	 DWORD PTR __imp_?c_str@ioHashString@@QBEPBDXZ
  00096	50		 push	 eax
  00097	8b 45 08	 mov	 eax, DWORD PTR _iXPos$[ebp]
  0009a	83 c0 07	 add	 eax, 7

; 418  : 			break;

  0009d	eb 25		 jmp	 SHORT $LN18@OnRenderPr
$LN2@OnRenderPr:

; 412  : 			break;
; 413  : 		case TAT_RIGHT:
; 414  : 			g_FontMgr.PrintText( iXPos + iWidth - 7, iYPos + 11 + ( i * 20 ), 0.56f, kTooltip.m_szHelp.c_str() );

  0009f	ff 15 00 00 00
	00		 call	 DWORD PTR __imp_?c_str@ioHashString@@QBEPBDXZ
  000a5	8b 4d 10	 mov	 ecx, DWORD PTR _iWidth$[ebp]
  000a8	50		 push	 eax
  000a9	8b 45 08	 mov	 eax, DWORD PTR _iXPos$[ebp]
  000ac	8d 44 08 f9	 lea	 eax, DWORD PTR [eax+ecx-7]

; 415  : 			break;

  000b0	eb 12		 jmp	 SHORT $LN18@OnRenderPr
$LN3@OnRenderPr:

; 409  : 		{
; 410  : 		case TAT_CENTER:
; 411  : 			g_FontMgr.PrintText( iXPos + ( iWidth / 2 ), iYPos + 11 + ( i * 20 ), 0.56f, kTooltip.m_szHelp.c_str() );

  000b2	ff 15 00 00 00
	00		 call	 DWORD PTR __imp_?c_str@ioHashString@@QBEPBDXZ
  000b8	50		 push	 eax
  000b9	8b 45 10	 mov	 eax, DWORD PTR _iWidth$[ebp]
  000bc	99		 cdq
  000bd	2b c2		 sub	 eax, edx
  000bf	d1 f8		 sar	 eax, 1
  000c1	03 45 08	 add	 eax, DWORD PTR _iXPos$[ebp]
$LN18@OnRenderPr:
  000c4	f3 0f 10 05 00
	00 00 00	 movss	 xmm0, DWORD PTR __real@3f0f5c29
  000cc	83 ec 0c	 sub	 esp, 12			; 0000000cH
  000cf	f3 0f 11 44 24
	08		 movss	 DWORD PTR [esp+8], xmm0
  000d5	66 0f 6e 45 0c	 movd	 xmm0, DWORD PTR tv307[ebp]
  000da	0f 5b c0	 cvtdq2ps xmm0, xmm0
  000dd	f3 0f 11 44 24
	04		 movss	 DWORD PTR [esp+4], xmm0
  000e3	0f 57 c0	 xorps	 xmm0, xmm0
  000e6	f3 0f 2a c0	 cvtsi2ss xmm0, eax
  000ea	f3 0f 11 04 24	 movss	 DWORD PTR [esp], xmm0
  000ef	ff d7		 call	 edi
  000f1	50		 push	 eax
  000f2	ff d3		 call	 ebx
  000f4	83 45 fc 18	 add	 DWORD PTR tv288[ebp], 24 ; 00000018H
  000f8	83 45 0c 14	 add	 DWORD PTR tv307[ebp], 20 ; 00000014H
  000fc	83 c4 14	 add	 esp, 20			; 00000014H
  000ff	ff 4d f8	 dec	 DWORD PTR tv205[ebp]
  00102	0f 85 58 ff ff
	ff		 jne	 $LL17@OnRenderPr
$LN6@OnRenderPr:
  00108	5f		 pop	 edi
  00109	5e		 pop	 esi
  0010a	5b		 pop	 ebx

; 419  : 		}
; 420  : 	}
; 421  : }

  0010b	c9		 leave
  0010c	c2 10 00	 ret	 16			; 00000010H
?OnRenderPrintHelp@TooltipHelpWnd@@IAEXHHHH@Z ENDP	; TooltipHelpWnd::OnRenderPrintHelp
; Function compile flags: /Ogsp
_TEXT	ENDS
;	COMDAT ??_GTooltipGuildPointHelpWnd@@UAEPAXI@Z
_TEXT	SEGMENT
___flags$ = 8						; size = 4
??_GTooltipGuildPointHelpWnd@@UAEPAXI@Z PROC		; TooltipGuildPointHelpWnd::`scalar deleting destructor', COMDAT
; _this$ = ecx
  00000	55		 push	 ebp
  00001	8b ec		 mov	 ebp, esp
  00003	56		 push	 esi
  00004	8b f1		 mov	 esi, ecx
  00006	c7 06 00 00 00
	00		 mov	 DWORD PTR [esi], OFFSET ??_7TooltipGuildPointHelpWnd@@6B@
  0000c	e8 00 00 00 00	 call	 ??1TooltipHelpWnd@@UAE@XZ ; TooltipHelpWnd::~TooltipHelpWnd
  00011	f6 45 08 01	 test	 BYTE PTR ___flags$[ebp], 1
  00015	74 07		 je	 SHORT $LN1@scalar@4
  00017	56		 push	 esi
  00018	e8 00 00 00 00	 call	 ??3@YAXPAX@Z		; operator delete
  0001d	59		 pop	 ecx
$LN1@scalar@4:
  0001e	8b c6		 mov	 eax, esi
  00020	5e		 pop	 esi
  00021	5d		 pop	 ebp
  00022	c2 04 00	 ret	 4
??_GTooltipGuildPointHelpWnd@@UAEPAXI@Z ENDP		; TooltipGuildPointHelpWnd::`scalar deleting destructor'
_TEXT	ENDS
PUBLIC	?max_size@?$vector@UTooltip@ioWnd@@V?$allocator@UTooltip@ioWnd@@@std@@@std@@QBEIXZ ; std::vector<ioWnd::Tooltip,std::allocator<ioWnd::Tooltip> >::max_size
; Function compile flags: /Ogsp
; File c:\program files (x86)\microsoft visual studio 10.0\vc\include\vector
;	COMDAT ?max_size@?$vector@UTooltip@ioWnd@@V?$allocator@UTooltip@ioWnd@@@std@@@std@@QBEIXZ
_TEXT	SEGMENT
?max_size@?$vector@UTooltip@ioWnd@@V?$allocator@UTooltip@ioWnd@@@std@@@std@@QBEIXZ PROC ; std::vector<ioWnd::Tooltip,std::allocator<ioWnd::Tooltip> >::max_size, COMDAT
; _this$ = ecx

; 884  : 		return (this->_Alval.max_size());

  00000	b8 aa aa aa 0a	 mov	 eax, 178956970		; 0aaaaaaaH

; 885  : 		}

  00005	c3		 ret	 0
?max_size@?$vector@UTooltip@ioWnd@@V?$allocator@UTooltip@ioWnd@@@std@@@std@@QBEIXZ ENDP ; std::vector<ioWnd::Tooltip,std::allocator<ioWnd::Tooltip> >::max_size
_TEXT	ENDS
PUBLIC	?_Grow_to@?$vector@UTooltip@ioWnd@@V?$allocator@UTooltip@ioWnd@@@std@@@std@@IBEII@Z ; std::vector<ioWnd::Tooltip,std::allocator<ioWnd::Tooltip> >::_Grow_to
; Function compile flags: /Ogsp
;	COMDAT ?_Grow_to@?$vector@UTooltip@ioWnd@@V?$allocator@UTooltip@ioWnd@@@std@@@std@@IBEII@Z
_TEXT	SEGMENT
__Count$ = 8						; size = 4
?_Grow_to@?$vector@UTooltip@ioWnd@@V?$allocator@UTooltip@ioWnd@@@std@@@std@@IBEII@Z PROC ; std::vector<ioWnd::Tooltip,std::allocator<ioWnd::Tooltip> >::_Grow_to, COMDAT
; _this$ = ecx

; 1274 : 		{	// grow by 50% or at least to _Count

  00000	55		 push	 ebp
  00001	8b ec		 mov	 ebp, esp

; 1275 : 		size_type _Capacity = capacity();

  00003	8b 41 08	 mov	 eax, DWORD PTR [ecx+8]
  00006	2b 01		 sub	 eax, DWORD PTR [ecx]
  00008	6a 18		 push	 24			; 00000018H
  0000a	99		 cdq
  0000b	59		 pop	 ecx
  0000c	f7 f9		 idiv	 ecx

; 1276 : 
; 1277 : 		_Capacity = max_size() - _Capacity / 2 < _Capacity
; 1278 : 			? 0 : _Capacity + _Capacity / 2;	// try to grow by 50%

  0000e	ba aa aa aa 0a	 mov	 edx, 178956970		; 0aaaaaaaH
  00013	8b c8		 mov	 ecx, eax
  00015	d1 e9		 shr	 ecx, 1
  00017	2b d1		 sub	 edx, ecx
  00019	3b d0		 cmp	 edx, eax
  0001b	73 04		 jae	 SHORT $LN4@Grow_to
  0001d	33 c0		 xor	 eax, eax
  0001f	eb 02		 jmp	 SHORT $LN5@Grow_to
$LN4@Grow_to:
  00021	03 c1		 add	 eax, ecx
$LN5@Grow_to:

; 1279 : 		if (_Capacity < _Count)

  00023	3b 45 08	 cmp	 eax, DWORD PTR __Count$[ebp]

; 1280 : 			_Capacity = _Count;

  00026	0f 42 45 08	 cmovb	 eax, DWORD PTR __Count$[ebp]

; 1281 : 		return (_Capacity);
; 1282 : 		}

  0002a	5d		 pop	 ebp
  0002b	c2 04 00	 ret	 4
?_Grow_to@?$vector@UTooltip@ioWnd@@V?$allocator@UTooltip@ioWnd@@@std@@@std@@IBEII@Z ENDP ; std::vector<ioWnd::Tooltip,std::allocator<ioWnd::Tooltip> >::_Grow_to
_TEXT	ENDS
PUBLIC	?allocate@?$allocator@UTooltip@ioWnd@@@std@@QAEPAUTooltip@ioWnd@@I@Z ; std::allocator<ioWnd::Tooltip>::allocate
; Function compile flags: /Ogsp
; File c:\program files (x86)\microsoft visual studio 10.0\vc\include\xmemory
;	COMDAT ?allocate@?$allocator@UTooltip@ioWnd@@@std@@QAEPAUTooltip@ioWnd@@I@Z
_TEXT	SEGMENT
__Count$ = 8						; size = 4
?allocate@?$allocator@UTooltip@ioWnd@@@std@@QAEPAUTooltip@ioWnd@@I@Z PROC ; std::allocator<ioWnd::Tooltip>::allocate, COMDAT
; _this$ = ecx

; 186  : 		{	// allocate array of _Count elements

  00000	55		 push	 ebp
  00001	8b ec		 mov	 ebp, esp

; 187  : 		return (_Allocate(_Count, (pointer)0));

  00003	6a 00		 push	 0
  00005	ff 75 08	 push	 DWORD PTR __Count$[ebp]
  00008	e8 00 00 00 00	 call	 ??$_Allocate@UTooltip@ioWnd@@@std@@YAPAUTooltip@ioWnd@@IPAU12@@Z ; std::_Allocate<ioWnd::Tooltip>
  0000d	59		 pop	 ecx
  0000e	59		 pop	 ecx

; 188  : 		}

  0000f	5d		 pop	 ebp
  00010	c2 04 00	 ret	 4
?allocate@?$allocator@UTooltip@ioWnd@@@std@@QAEPAUTooltip@ioWnd@@I@Z ENDP ; std::allocator<ioWnd::Tooltip>::allocate
_TEXT	ENDS
PUBLIC	??0?$_Vector_const_iterator@V?$_Vector_val@UTooltip@ioWnd@@V?$allocator@UTooltip@ioWnd@@@std@@@std@@@std@@QAE@PAUTooltip@ioWnd@@PBU_Container_base0@1@@Z ; std::_Vector_const_iterator<std::_Vector_val<ioWnd::Tooltip,std::allocator<ioWnd::Tooltip> > >::_Vector_const_iterator<std::_Vector_val<ioWnd::Tooltip,std::allocator<ioWnd::Tooltip> > >
; Function compile flags: /Ogsp
; File c:\program files (x86)\microsoft visual studio 10.0\vc\include\vector
;	COMDAT ??0?$_Vector_const_iterator@V?$_Vector_val@UTooltip@ioWnd@@V?$allocator@UTooltip@ioWnd@@@std@@@std@@@std@@QAE@PAUTooltip@ioWnd@@PBU_Container_base0@1@@Z
_TEXT	SEGMENT
__Parg$ = 8						; size = 4
__Pvector$ = 12						; size = 4
??0?$_Vector_const_iterator@V?$_Vector_val@UTooltip@ioWnd@@V?$allocator@UTooltip@ioWnd@@@std@@@std@@@std@@QAE@PAUTooltip@ioWnd@@PBU_Container_base0@1@@Z PROC ; std::_Vector_const_iterator<std::_Vector_val<ioWnd::Tooltip,std::allocator<ioWnd::Tooltip> > >::_Vector_const_iterator<std::_Vector_val<ioWnd::Tooltip,std::allocator<ioWnd::Tooltip> > >, COMDAT
; _this$ = ecx

; 45   : 		{	// construct with pointer _Parg

  00000	55		 push	 ebp
  00001	8b ec		 mov	 ebp, esp
  00003	8b c1		 mov	 eax, ecx
  00005	8b 4d 08	 mov	 ecx, DWORD PTR __Parg$[ebp]
  00008	89 08		 mov	 DWORD PTR [eax], ecx

; 46   : 		this->_Adopt(_Pvector);
; 47   : 		}

  0000a	5d		 pop	 ebp
  0000b	c2 08 00	 ret	 8
??0?$_Vector_const_iterator@V?$_Vector_val@UTooltip@ioWnd@@V?$allocator@UTooltip@ioWnd@@@std@@@std@@@std@@QAE@PAUTooltip@ioWnd@@PBU_Container_base0@1@@Z ENDP ; std::_Vector_const_iterator<std::_Vector_val<ioWnd::Tooltip,std::allocator<ioWnd::Tooltip> > >::_Vector_const_iterator<std::_Vector_val<ioWnd::Tooltip,std::allocator<ioWnd::Tooltip> > >
_TEXT	ENDS
PUBLIC	??8?$_Vector_const_iterator@V?$_Vector_val@UTooltip@ioWnd@@V?$allocator@UTooltip@ioWnd@@@std@@@std@@@std@@QBE_NABV01@@Z ; std::_Vector_const_iterator<std::_Vector_val<ioWnd::Tooltip,std::allocator<ioWnd::Tooltip> > >::operator==
; Function compile flags: /Ogsp
;	COMDAT ??8?$_Vector_const_iterator@V?$_Vector_val@UTooltip@ioWnd@@V?$allocator@UTooltip@ioWnd@@@std@@@std@@@std@@QBE_NABV01@@Z
_TEXT	SEGMENT
__Right$ = 8						; size = 4
??8?$_Vector_const_iterator@V?$_Vector_val@UTooltip@ioWnd@@V?$allocator@UTooltip@ioWnd@@@std@@@std@@@std@@QBE_NABV01@@Z PROC ; std::_Vector_const_iterator<std::_Vector_val<ioWnd::Tooltip,std::allocator<ioWnd::Tooltip> > >::operator==, COMDAT
; _this$ = ecx

; 201  : 		{	// test for iterator equality

  00000	55		 push	 ebp
  00001	8b ec		 mov	 ebp, esp

; 202  : 		_Compat(_Right);
; 203  : 		return (this->_Ptr == _Right._Ptr);

  00003	8b 01		 mov	 eax, DWORD PTR [ecx]
  00005	8b 4d 08	 mov	 ecx, DWORD PTR __Right$[ebp]
  00008	2b 01		 sub	 eax, DWORD PTR [ecx]
  0000a	f7 d8		 neg	 eax
  0000c	1b c0		 sbb	 eax, eax
  0000e	40		 inc	 eax

; 204  : 		}

  0000f	5d		 pop	 ebp
  00010	c2 04 00	 ret	 4
??8?$_Vector_const_iterator@V?$_Vector_val@UTooltip@ioWnd@@V?$allocator@UTooltip@ioWnd@@@std@@@std@@@std@@QBE_NABV01@@Z ENDP ; std::_Vector_const_iterator<std::_Vector_val<ioWnd::Tooltip,std::allocator<ioWnd::Tooltip> > >::operator==
_TEXT	ENDS
PUBLIC	__$ArrayPad$
PUBLIC	??$?8$07@@YA_NABVioHashString@@AAY07$$CBD@Z	; operator==<8>
EXTRN	___security_cookie:DWORD
; Function compile flags: /Ogsp
; File d:\lost saga for developer\youtube\tutorial\source\src\io3dengine\iohashstring.h
;	COMDAT ??$?8$07@@YA_NABVioHashString@@AAY07$$CBD@Z
_TEXT	SEGMENT
__t$ = -16						; size = 8
__$ArrayPad$ = -4					; size = 4
_lhs$ = 8						; size = 4
_t$ = 12						; size = 4
??$?8$07@@YA_NABVioHashString@@AAY07$$CBD@Z PROC	; operator==<8>, COMDAT

; 146  : {

  00000	55		 push	 ebp
  00001	8b ec		 mov	 ebp, esp
  00003	83 ec 10	 sub	 esp, 16			; 00000010H
  00006	a1 00 00 00 00	 mov	 eax, DWORD PTR ___security_cookie
  0000b	33 c5		 xor	 eax, ebp
  0000d	89 45 fc	 mov	 DWORD PTR __$ArrayPad$[ebp], eax
  00010	8b 45 0c	 mov	 eax, DWORD PTR _t$[ebp]

; 147  : 	_ENCSTR(t, _t); return ( strcmp( lhs.c_str(), _t ) == 0 );

  00013	8a 10		 mov	 dl, BYTE PTR [eax]
  00015	56		 push	 esi
  00016	57		 push	 edi
  00017	8b 7d 08	 mov	 edi, DWORD PTR _lhs$[ebp]
  0001a	84 d2		 test	 dl, dl
  0001c	0f 84 d7 00 00
	00		 je	 $LN96@operator
  00022	80 f2 ed	 xor	 dl, -19			; ffffffedH
  00025	88 55 f0	 mov	 BYTE PTR __t$[ebp], dl
  00028	8a 50 01	 mov	 dl, BYTE PTR [eax+1]
  0002b	84 d2		 test	 dl, dl
  0002d	0f 84 c0 00 00
	00		 je	 $LN95@operator
  00033	80 f2 ec	 xor	 dl, -20			; ffffffecH
  00036	88 55 f1	 mov	 BYTE PTR __t$[ebp+1], dl
  00039	8a 50 02	 mov	 dl, BYTE PTR [eax+2]
  0003c	84 d2		 test	 dl, dl
  0003e	0f 84 a9 00 00
	00		 je	 $LN94@operator
  00044	80 f2 eb	 xor	 dl, -21			; ffffffebH
  00047	88 55 f2	 mov	 BYTE PTR __t$[ebp+2], dl
  0004a	8a 50 03	 mov	 dl, BYTE PTR [eax+3]
  0004d	84 d2		 test	 dl, dl
  0004f	0f 84 92 00 00
	00		 je	 $LN93@operator
  00055	80 f2 ea	 xor	 dl, -22			; ffffffeaH
  00058	88 55 f3	 mov	 BYTE PTR __t$[ebp+3], dl
  0005b	8a 50 04	 mov	 dl, BYTE PTR [eax+4]
  0005e	84 d2		 test	 dl, dl
  00060	74 7f		 je	 SHORT $LN92@operator
  00062	80 f2 ed	 xor	 dl, -19			; ffffffedH
  00065	88 55 f4	 mov	 BYTE PTR __t$[ebp+4], dl
  00068	8a 50 05	 mov	 dl, BYTE PTR [eax+5]
  0006b	84 d2		 test	 dl, dl
  0006d	74 6c		 je	 SHORT $LN91@operator
  0006f	80 f2 ec	 xor	 dl, -20			; ffffffecH
  00072	88 55 f5	 mov	 BYTE PTR __t$[ebp+5], dl
  00075	8a 50 06	 mov	 dl, BYTE PTR [eax+6]
  00078	84 d2		 test	 dl, dl
  0007a	74 59		 je	 SHORT $LN90@operator
  0007c	80 f2 eb	 xor	 dl, -21			; ffffffebH
  0007f	80 78 07 00	 cmp	 BYTE PTR [eax+7], 0
  00083	88 55 f6	 mov	 BYTE PTR __t$[ebp+6], dl
  00086	74 75		 je	 SHORT $LN1@operator
  00088	8a 50 08	 mov	 dl, BYTE PTR [eax+8]
  0008b	84 d2		 test	 dl, dl
  0008d	74 40		 je	 SHORT $LN88@operator
  0008f	80 f2 ed	 xor	 dl, -19			; ffffffedH
  00092	88 55 f8	 mov	 BYTE PTR __t$[ebp+8], dl
  00095	8a 50 09	 mov	 dl, BYTE PTR [eax+9]
  00098	84 d2		 test	 dl, dl
  0009a	74 2d		 je	 SHORT $LN87@operator
  0009c	80 f2 ec	 xor	 dl, -20			; ffffffecH
  0009f	88 55 f9	 mov	 BYTE PTR __t$[ebp+9], dl
  000a2	8a 50 0a	 mov	 dl, BYTE PTR [eax+10]
  000a5	84 d2		 test	 dl, dl
  000a7	74 1a		 je	 SHORT $LN86@operator
  000a9	8a 40 0b	 mov	 al, BYTE PTR [eax+11]
  000ac	80 f2 eb	 xor	 dl, -21			; ffffffebH
  000af	88 55 fa	 mov	 BYTE PTR __t$[ebp+10], dl
  000b2	84 c0		 test	 al, al
  000b4	74 07		 je	 SHORT $LN85@operator
  000b6	34 ea		 xor	 al, -22			; ffffffeaH
  000b8	88 45 fb	 mov	 BYTE PTR __t$[ebp+11], al
  000bb	eb 40		 jmp	 SHORT $LN1@operator
$LN85@operator:
  000bd	c6 45 fb ea	 mov	 BYTE PTR __t$[ebp+11], -22 ; ffffffeaH
  000c1	eb 3a		 jmp	 SHORT $LN1@operator
$LN86@operator:
  000c3	c6 45 fa eb	 mov	 BYTE PTR __t$[ebp+10], -21 ; ffffffebH
  000c7	eb 34		 jmp	 SHORT $LN1@operator
$LN87@operator:
  000c9	c6 45 f9 ec	 mov	 BYTE PTR __t$[ebp+9], -20 ; ffffffecH
  000cd	eb 2e		 jmp	 SHORT $LN1@operator
$LN88@operator:
  000cf	c6 45 f8 ed	 mov	 BYTE PTR __t$[ebp+8], -19 ; ffffffedH
  000d3	eb 28		 jmp	 SHORT $LN1@operator
$LN90@operator:
  000d5	c6 45 f6 eb	 mov	 BYTE PTR __t$[ebp+6], -21 ; ffffffebH
  000d9	eb 22		 jmp	 SHORT $LN1@operator
$LN91@operator:
  000db	c6 45 f5 ec	 mov	 BYTE PTR __t$[ebp+5], -20 ; ffffffecH
  000df	eb 1c		 jmp	 SHORT $LN1@operator
$LN92@operator:
  000e1	c6 45 f4 ed	 mov	 BYTE PTR __t$[ebp+4], -19 ; ffffffedH
  000e5	eb 16		 jmp	 SHORT $LN1@operator
$LN93@operator:
  000e7	c6 45 f3 ea	 mov	 BYTE PTR __t$[ebp+3], -22 ; ffffffeaH
  000eb	eb 10		 jmp	 SHORT $LN1@operator
$LN94@operator:
  000ed	c6 45 f2 eb	 mov	 BYTE PTR __t$[ebp+2], -21 ; ffffffebH
  000f1	eb 0a		 jmp	 SHORT $LN1@operator
$LN95@operator:
  000f3	c6 45 f1 ec	 mov	 BYTE PTR __t$[ebp+1], -20 ; ffffffecH
  000f7	eb 04		 jmp	 SHORT $LN1@operator
$LN96@operator:
  000f9	c6 45 f0 ed	 mov	 BYTE PTR __t$[ebp], -19	; ffffffedH
$LN1@operator:
  000fd	81 75 f0 ed ec
	eb ea		 xor	 DWORD PTR __t$[ebp], -353637139 ; eaebecedH
  00104	6a 04		 push	 4
  00106	c6 45 f7 00	 mov	 BYTE PTR __t$[ebp+7], 0
  0010a	58		 pop	 eax
$LL101@operator:
  0010b	8b c8		 mov	 ecx, eax
  0010d	81 e1 03 00 00
	80		 and	 ecx, -2147483645	; 80000003H
  00113	79 05		 jns	 SHORT $LN115@operator
  00115	49		 dec	 ecx
  00116	83 c9 fc	 or	 ecx, -4			; fffffffcH
  00119	41		 inc	 ecx
$LN115@operator:
  0011a	b2 ed		 mov	 dl, -19			; ffffffedH
  0011c	2a d1		 sub	 dl, cl
  0011e	30 54 05 f0	 xor	 BYTE PTR __t$[ebp+eax], dl
  00122	40		 inc	 eax
  00123	83 f8 07	 cmp	 eax, 7
  00126	7c e3		 jl	 SHORT $LL101@operator
  00128	8b cf		 mov	 ecx, edi
  0012a	8d 75 f0	 lea	 esi, DWORD PTR __t$[ebp]
  0012d	ff 15 00 00 00
	00		 call	 DWORD PTR __imp_?c_str@ioHashString@@QBEPBDXZ
$LL111@operator:
  00133	8a 08		 mov	 cl, BYTE PTR [eax]
  00135	3a 0e		 cmp	 cl, BYTE PTR [esi]
  00137	75 1a		 jne	 SHORT $LN112@operator
  00139	84 c9		 test	 cl, cl
  0013b	74 12		 je	 SHORT $LN113@operator
  0013d	8a 48 01	 mov	 cl, BYTE PTR [eax+1]
  00140	3a 4e 01	 cmp	 cl, BYTE PTR [esi+1]
  00143	75 0e		 jne	 SHORT $LN112@operator
  00145	83 c0 02	 add	 eax, 2
  00148	83 c6 02	 add	 esi, 2
  0014b	84 c9		 test	 cl, cl
  0014d	75 e4		 jne	 SHORT $LL111@operator
$LN113@operator:
  0014f	33 c0		 xor	 eax, eax
  00151	eb 05		 jmp	 SHORT $LN114@operator
$LN112@operator:
  00153	1b c0		 sbb	 eax, eax
  00155	83 d8 ff	 sbb	 eax, -1
$LN114@operator:
  00158	33 c9		 xor	 ecx, ecx
  0015a	85 c0		 test	 eax, eax
  0015c	0f 94 c0	 sete	 al

; 148  : }

  0015f	8b 4d fc	 mov	 ecx, DWORD PTR __$ArrayPad$[ebp]
  00162	5f		 pop	 edi
  00163	33 cd		 xor	 ecx, ebp
  00165	5e		 pop	 esi
  00166	e8 00 00 00 00	 call	 @__security_check_cookie@4
  0016b	c9		 leave
  0016c	c3		 ret	 0
??$?8$07@@YA_NABVioHashString@@AAY07$$CBD@Z ENDP	; operator==<8>
_TEXT	ENDS
PUBLIC	__$ArrayPad$
PUBLIC	??$?8$08@@YA_NABVioHashString@@AAY08$$CBD@Z	; operator==<9>
; Function compile flags: /Ogsp
;	COMDAT ??$?8$08@@YA_NABVioHashString@@AAY08$$CBD@Z
_TEXT	SEGMENT
__t$ = -20						; size = 9
__$ArrayPad$ = -4					; size = 4
_lhs$ = 8						; size = 4
_t$ = 12						; size = 4
??$?8$08@@YA_NABVioHashString@@AAY08$$CBD@Z PROC	; operator==<9>, COMDAT

; 146  : {

  00000	55		 push	 ebp
  00001	8b ec		 mov	 ebp, esp
  00003	83 ec 14	 sub	 esp, 20			; 00000014H
  00006	a1 00 00 00 00	 mov	 eax, DWORD PTR ___security_cookie
  0000b	33 c5		 xor	 eax, ebp
  0000d	89 45 fc	 mov	 DWORD PTR __$ArrayPad$[ebp], eax
  00010	8b 45 0c	 mov	 eax, DWORD PTR _t$[ebp]

; 147  : 	_ENCSTR(t, _t); return ( strcmp( lhs.c_str(), _t ) == 0 );

  00013	8a 10		 mov	 dl, BYTE PTR [eax]
  00015	8b 4d 08	 mov	 ecx, DWORD PTR _lhs$[ebp]
  00018	84 d2		 test	 dl, dl
  0001a	0f 84 ee 00 00
	00		 je	 $LN96@operator@2
  00020	80 f2 ed	 xor	 dl, -19			; ffffffedH
  00023	88 55 ec	 mov	 BYTE PTR __t$[ebp], dl
  00026	8a 50 01	 mov	 dl, BYTE PTR [eax+1]
  00029	84 d2		 test	 dl, dl
  0002b	0f 84 d7 00 00
	00		 je	 $LN95@operator@2
  00031	80 f2 ec	 xor	 dl, -20			; ffffffecH
  00034	88 55 ed	 mov	 BYTE PTR __t$[ebp+1], dl
  00037	8a 50 02	 mov	 dl, BYTE PTR [eax+2]
  0003a	84 d2		 test	 dl, dl
  0003c	0f 84 c0 00 00
	00		 je	 $LN94@operator@2
  00042	80 f2 eb	 xor	 dl, -21			; ffffffebH
  00045	88 55 ee	 mov	 BYTE PTR __t$[ebp+2], dl
  00048	8a 50 03	 mov	 dl, BYTE PTR [eax+3]
  0004b	84 d2		 test	 dl, dl
  0004d	0f 84 a9 00 00
	00		 je	 $LN93@operator@2
  00053	80 f2 ea	 xor	 dl, -22			; ffffffeaH
  00056	88 55 ef	 mov	 BYTE PTR __t$[ebp+3], dl
  00059	8a 50 04	 mov	 dl, BYTE PTR [eax+4]
  0005c	84 d2		 test	 dl, dl
  0005e	0f 84 92 00 00
	00		 je	 $LN92@operator@2
  00064	80 f2 ed	 xor	 dl, -19			; ffffffedH
  00067	88 55 f0	 mov	 BYTE PTR __t$[ebp+4], dl
  0006a	8a 50 05	 mov	 dl, BYTE PTR [eax+5]
  0006d	84 d2		 test	 dl, dl
  0006f	74 7f		 je	 SHORT $LN91@operator@2
  00071	80 f2 ec	 xor	 dl, -20			; ffffffecH
  00074	88 55 f1	 mov	 BYTE PTR __t$[ebp+5], dl
  00077	8a 50 06	 mov	 dl, BYTE PTR [eax+6]
  0007a	84 d2		 test	 dl, dl
  0007c	74 6c		 je	 SHORT $LN90@operator@2
  0007e	80 f2 eb	 xor	 dl, -21			; ffffffebH
  00081	88 55 f2	 mov	 BYTE PTR __t$[ebp+6], dl
  00084	8a 50 07	 mov	 dl, BYTE PTR [eax+7]
  00087	84 d2		 test	 dl, dl
  00089	74 59		 je	 SHORT $LN89@operator@2
  0008b	80 f2 ea	 xor	 dl, -22			; ffffffeaH
  0008e	80 78 08 00	 cmp	 BYTE PTR [eax+8], 0
  00092	88 55 f3	 mov	 BYTE PTR __t$[ebp+7], dl
  00095	74 7b		 je	 SHORT $LN1@operator@2
  00097	8a 50 09	 mov	 dl, BYTE PTR [eax+9]
  0009a	84 d2		 test	 dl, dl
  0009c	74 40		 je	 SHORT $LN87@operator@2
  0009e	80 f2 ec	 xor	 dl, -20			; ffffffecH
  000a1	88 55 f5	 mov	 BYTE PTR __t$[ebp+9], dl
  000a4	8a 50 0a	 mov	 dl, BYTE PTR [eax+10]
  000a7	84 d2		 test	 dl, dl
  000a9	74 2d		 je	 SHORT $LN86@operator@2
  000ab	80 f2 eb	 xor	 dl, -21			; ffffffebH
  000ae	88 55 f6	 mov	 BYTE PTR __t$[ebp+10], dl
  000b1	8a 50 0b	 mov	 dl, BYTE PTR [eax+11]
  000b4	84 d2		 test	 dl, dl
  000b6	74 1a		 je	 SHORT $LN85@operator@2
  000b8	8a 40 0c	 mov	 al, BYTE PTR [eax+12]
  000bb	80 f2 ea	 xor	 dl, -22			; ffffffeaH
  000be	88 55 f7	 mov	 BYTE PTR __t$[ebp+11], dl
  000c1	84 c0		 test	 al, al
  000c3	74 07		 je	 SHORT $LN84@operator@2
  000c5	34 ed		 xor	 al, -19			; ffffffedH
  000c7	88 45 f8	 mov	 BYTE PTR __t$[ebp+12], al
  000ca	eb 46		 jmp	 SHORT $LN1@operator@2
$LN84@operator@2:
  000cc	c6 45 f8 ed	 mov	 BYTE PTR __t$[ebp+12], -19 ; ffffffedH
  000d0	eb 40		 jmp	 SHORT $LN1@operator@2
$LN85@operator@2:
  000d2	c6 45 f7 ea	 mov	 BYTE PTR __t$[ebp+11], -22 ; ffffffeaH
  000d6	eb 3a		 jmp	 SHORT $LN1@operator@2
$LN86@operator@2:
  000d8	c6 45 f6 eb	 mov	 BYTE PTR __t$[ebp+10], -21 ; ffffffebH
  000dc	eb 34		 jmp	 SHORT $LN1@operator@2
$LN87@operator@2:
  000de	c6 45 f5 ec	 mov	 BYTE PTR __t$[ebp+9], -20 ; ffffffecH
  000e2	eb 2e		 jmp	 SHORT $LN1@operator@2
$LN89@operator@2:
  000e4	c6 45 f3 ea	 mov	 BYTE PTR __t$[ebp+7], -22 ; ffffffeaH
  000e8	eb 28		 jmp	 SHORT $LN1@operator@2
$LN90@operator@2:
  000ea	c6 45 f2 eb	 mov	 BYTE PTR __t$[ebp+6], -21 ; ffffffebH
  000ee	eb 22		 jmp	 SHORT $LN1@operator@2
$LN91@operator@2:
  000f0	c6 45 f1 ec	 mov	 BYTE PTR __t$[ebp+5], -20 ; ffffffecH
  000f4	eb 1c		 jmp	 SHORT $LN1@operator@2
$LN92@operator@2:
  000f6	c6 45 f0 ed	 mov	 BYTE PTR __t$[ebp+4], -19 ; ffffffedH
  000fa	eb 16		 jmp	 SHORT $LN1@operator@2
$LN93@operator@2:
  000fc	c6 45 ef ea	 mov	 BYTE PTR __t$[ebp+3], -22 ; ffffffeaH
  00100	eb 10		 jmp	 SHORT $LN1@operator@2
$LN94@operator@2:
  00102	c6 45 ee eb	 mov	 BYTE PTR __t$[ebp+2], -21 ; ffffffebH
  00106	eb 0a		 jmp	 SHORT $LN1@operator@2
$LN95@operator@2:
  00108	c6 45 ed ec	 mov	 BYTE PTR __t$[ebp+1], -20 ; ffffffecH
  0010c	eb 04		 jmp	 SHORT $LN1@operator@2
$LN96@operator@2:
  0010e	c6 45 ec ed	 mov	 BYTE PTR __t$[ebp], -19	; ffffffedH
$LN1@operator@2:
  00112	6a 02		 push	 2
  00114	8d 45 ec	 lea	 eax, DWORD PTR __t$[ebp]
  00117	c6 45 f4 00	 mov	 BYTE PTR __t$[ebp+8], 0
  0011b	5a		 pop	 edx
$LL104@operator@2:
  0011c	81 30 ed ec eb
	ea		 xor	 DWORD PTR [eax], -353637139 ; eaebecedH
  00122	83 c0 04	 add	 eax, 4
  00125	4a		 dec	 edx
  00126	75 f4		 jne	 SHORT $LL104@operator@2
  00128	56		 push	 esi
  00129	8d 75 ec	 lea	 esi, DWORD PTR __t$[ebp]
  0012c	ff 15 00 00 00
	00		 call	 DWORD PTR __imp_?c_str@ioHashString@@QBEPBDXZ
$LL111@operator@2:
  00132	8a 08		 mov	 cl, BYTE PTR [eax]
  00134	3a 0e		 cmp	 cl, BYTE PTR [esi]
  00136	75 1a		 jne	 SHORT $LN112@operator@2
  00138	84 c9		 test	 cl, cl
  0013a	74 12		 je	 SHORT $LN113@operator@2
  0013c	8a 48 01	 mov	 cl, BYTE PTR [eax+1]
  0013f	3a 4e 01	 cmp	 cl, BYTE PTR [esi+1]
  00142	75 0e		 jne	 SHORT $LN112@operator@2
  00144	83 c0 02	 add	 eax, 2
  00147	83 c6 02	 add	 esi, 2
  0014a	84 c9		 test	 cl, cl
  0014c	75 e4		 jne	 SHORT $LL111@operator@2
$LN113@operator@2:
  0014e	33 c0		 xor	 eax, eax
  00150	eb 05		 jmp	 SHORT $LN114@operator@2
$LN112@operator@2:
  00152	1b c0		 sbb	 eax, eax
  00154	83 d8 ff	 sbb	 eax, -1
$LN114@operator@2:
  00157	33 c9		 xor	 ecx, ecx
  00159	85 c0		 test	 eax, eax
  0015b	0f 94 c0	 sete	 al

; 148  : }

  0015e	8b 4d fc	 mov	 ecx, DWORD PTR __$ArrayPad$[ebp]
  00161	33 cd		 xor	 ecx, ebp
  00163	5e		 pop	 esi
  00164	e8 00 00 00 00	 call	 @__security_check_cookie@4
  00169	c9		 leave
  0016a	c3		 ret	 0
??$?8$08@@YA_NABVioHashString@@AAY08$$CBD@Z ENDP	; operator==<9>
_TEXT	ENDS
PUBLIC	__$ArrayPad$
PUBLIC	??$?8$06@@YA_NABVioHashString@@AAY06$$CBD@Z	; operator==<7>
; Function compile flags: /Ogsp
;	COMDAT ??$?8$06@@YA_NABVioHashString@@AAY06$$CBD@Z
_TEXT	SEGMENT
__t$ = -16						; size = 7
__$ArrayPad$ = -4					; size = 4
_lhs$ = 8						; size = 4
_t$ = 12						; size = 4
??$?8$06@@YA_NABVioHashString@@AAY06$$CBD@Z PROC	; operator==<7>, COMDAT

; 146  : {

  00000	55		 push	 ebp
  00001	8b ec		 mov	 ebp, esp
  00003	83 ec 10	 sub	 esp, 16			; 00000010H
  00006	a1 00 00 00 00	 mov	 eax, DWORD PTR ___security_cookie
  0000b	33 c5		 xor	 eax, ebp
  0000d	89 45 fc	 mov	 DWORD PTR __$ArrayPad$[ebp], eax
  00010	8b 45 0c	 mov	 eax, DWORD PTR _t$[ebp]

; 147  : 	_ENCSTR(t, _t); return ( strcmp( lhs.c_str(), _t ) == 0 );

  00013	8a 10		 mov	 dl, BYTE PTR [eax]
  00015	56		 push	 esi
  00016	57		 push	 edi
  00017	8b 7d 08	 mov	 edi, DWORD PTR _lhs$[ebp]
  0001a	84 d2		 test	 dl, dl
  0001c	0f 84 c0 00 00
	00		 je	 $LN96@operator@3
  00022	80 f2 ed	 xor	 dl, -19			; ffffffedH
  00025	88 55 f0	 mov	 BYTE PTR __t$[ebp], dl
  00028	8a 50 01	 mov	 dl, BYTE PTR [eax+1]
  0002b	84 d2		 test	 dl, dl
  0002d	0f 84 a9 00 00
	00		 je	 $LN95@operator@3
  00033	80 f2 ec	 xor	 dl, -20			; ffffffecH
  00036	88 55 f1	 mov	 BYTE PTR __t$[ebp+1], dl
  00039	8a 50 02	 mov	 dl, BYTE PTR [eax+2]
  0003c	84 d2		 test	 dl, dl
  0003e	0f 84 92 00 00
	00		 je	 $LN94@operator@3
  00044	80 f2 eb	 xor	 dl, -21			; ffffffebH
  00047	88 55 f2	 mov	 BYTE PTR __t$[ebp+2], dl
  0004a	8a 50 03	 mov	 dl, BYTE PTR [eax+3]
  0004d	84 d2		 test	 dl, dl
  0004f	74 7f		 je	 SHORT $LN93@operator@3
  00051	80 f2 ea	 xor	 dl, -22			; ffffffeaH
  00054	88 55 f3	 mov	 BYTE PTR __t$[ebp+3], dl
  00057	8a 50 04	 mov	 dl, BYTE PTR [eax+4]
  0005a	84 d2		 test	 dl, dl
  0005c	74 6c		 je	 SHORT $LN92@operator@3
  0005e	80 f2 ed	 xor	 dl, -19			; ffffffedH
  00061	88 55 f4	 mov	 BYTE PTR __t$[ebp+4], dl
  00064	8a 50 05	 mov	 dl, BYTE PTR [eax+5]
  00067	84 d2		 test	 dl, dl
  00069	74 59		 je	 SHORT $LN91@operator@3
  0006b	80 f2 ec	 xor	 dl, -20			; ffffffecH
  0006e	80 78 06 00	 cmp	 BYTE PTR [eax+6], 0
  00072	88 55 f5	 mov	 BYTE PTR __t$[ebp+5], dl
  00075	74 6f		 je	 SHORT $LN1@operator@3
  00077	8a 50 07	 mov	 dl, BYTE PTR [eax+7]
  0007a	84 d2		 test	 dl, dl
  0007c	74 40		 je	 SHORT $LN89@operator@3
  0007e	80 f2 ea	 xor	 dl, -22			; ffffffeaH
  00081	88 55 f7	 mov	 BYTE PTR __t$[ebp+7], dl
  00084	8a 50 08	 mov	 dl, BYTE PTR [eax+8]
  00087	84 d2		 test	 dl, dl
  00089	74 2d		 je	 SHORT $LN88@operator@3
  0008b	80 f2 ed	 xor	 dl, -19			; ffffffedH
  0008e	88 55 f8	 mov	 BYTE PTR __t$[ebp+8], dl
  00091	8a 50 09	 mov	 dl, BYTE PTR [eax+9]
  00094	84 d2		 test	 dl, dl
  00096	74 1a		 je	 SHORT $LN87@operator@3
  00098	8a 40 0a	 mov	 al, BYTE PTR [eax+10]
  0009b	80 f2 ec	 xor	 dl, -20			; ffffffecH
  0009e	88 55 f9	 mov	 BYTE PTR __t$[ebp+9], dl
  000a1	84 c0		 test	 al, al
  000a3	74 07		 je	 SHORT $LN86@operator@3
  000a5	34 eb		 xor	 al, -21			; ffffffebH
  000a7	88 45 fa	 mov	 BYTE PTR __t$[ebp+10], al
  000aa	eb 3a		 jmp	 SHORT $LN1@operator@3
$LN86@operator@3:
  000ac	c6 45 fa eb	 mov	 BYTE PTR __t$[ebp+10], -21 ; ffffffebH
  000b0	eb 34		 jmp	 SHORT $LN1@operator@3
$LN87@operator@3:
  000b2	c6 45 f9 ec	 mov	 BYTE PTR __t$[ebp+9], -20 ; ffffffecH
  000b6	eb 2e		 jmp	 SHORT $LN1@operator@3
$LN88@operator@3:
  000b8	c6 45 f8 ed	 mov	 BYTE PTR __t$[ebp+8], -19 ; ffffffedH
  000bc	eb 28		 jmp	 SHORT $LN1@operator@3
$LN89@operator@3:
  000be	c6 45 f7 ea	 mov	 BYTE PTR __t$[ebp+7], -22 ; ffffffeaH
  000c2	eb 22		 jmp	 SHORT $LN1@operator@3
$LN91@operator@3:
  000c4	c6 45 f5 ec	 mov	 BYTE PTR __t$[ebp+5], -20 ; ffffffecH
  000c8	eb 1c		 jmp	 SHORT $LN1@operator@3
$LN92@operator@3:
  000ca	c6 45 f4 ed	 mov	 BYTE PTR __t$[ebp+4], -19 ; ffffffedH
  000ce	eb 16		 jmp	 SHORT $LN1@operator@3
$LN93@operator@3:
  000d0	c6 45 f3 ea	 mov	 BYTE PTR __t$[ebp+3], -22 ; ffffffeaH
  000d4	eb 10		 jmp	 SHORT $LN1@operator@3
$LN94@operator@3:
  000d6	c6 45 f2 eb	 mov	 BYTE PTR __t$[ebp+2], -21 ; ffffffebH
  000da	eb 0a		 jmp	 SHORT $LN1@operator@3
$LN95@operator@3:
  000dc	c6 45 f1 ec	 mov	 BYTE PTR __t$[ebp+1], -20 ; ffffffecH
  000e0	eb 04		 jmp	 SHORT $LN1@operator@3
$LN96@operator@3:
  000e2	c6 45 f0 ed	 mov	 BYTE PTR __t$[ebp], -19	; ffffffedH
$LN1@operator@3:
  000e6	81 75 f0 ed ec
	eb ea		 xor	 DWORD PTR __t$[ebp], -353637139 ; eaebecedH
  000ed	6a 04		 push	 4
  000ef	c6 45 f6 00	 mov	 BYTE PTR __t$[ebp+6], 0
  000f3	58		 pop	 eax
$LL101@operator@3:
  000f4	8b c8		 mov	 ecx, eax
  000f6	81 e1 03 00 00
	80		 and	 ecx, -2147483645	; 80000003H
  000fc	79 05		 jns	 SHORT $LN115@operator@3
  000fe	49		 dec	 ecx
  000ff	83 c9 fc	 or	 ecx, -4			; fffffffcH
  00102	41		 inc	 ecx
$LN115@operator@3:
  00103	b2 ed		 mov	 dl, -19			; ffffffedH
  00105	2a d1		 sub	 dl, cl
  00107	30 54 05 f0	 xor	 BYTE PTR __t$[ebp+eax], dl
  0010b	40		 inc	 eax
  0010c	83 f8 06	 cmp	 eax, 6
  0010f	7c e3		 jl	 SHORT $LL101@operator@3
  00111	8b cf		 mov	 ecx, edi
  00113	8d 75 f0	 lea	 esi, DWORD PTR __t$[ebp]
  00116	ff 15 00 00 00
	00		 call	 DWORD PTR __imp_?c_str@ioHashString@@QBEPBDXZ
$LL111@operator@3:
  0011c	8a 08		 mov	 cl, BYTE PTR [eax]
  0011e	3a 0e		 cmp	 cl, BYTE PTR [esi]
  00120	75 1a		 jne	 SHORT $LN112@operator@3
  00122	84 c9		 test	 cl, cl
  00124	74 12		 je	 SHORT $LN113@operator@3
  00126	8a 48 01	 mov	 cl, BYTE PTR [eax+1]
  00129	3a 4e 01	 cmp	 cl, BYTE PTR [esi+1]
  0012c	75 0e		 jne	 SHORT $LN112@operator@3
  0012e	83 c0 02	 add	 eax, 2
  00131	83 c6 02	 add	 esi, 2
  00134	84 c9		 test	 cl, cl
  00136	75 e4		 jne	 SHORT $LL111@operator@3
$LN113@operator@3:
  00138	33 c0		 xor	 eax, eax
  0013a	eb 05		 jmp	 SHORT $LN114@operator@3
$LN112@operator@3:
  0013c	1b c0		 sbb	 eax, eax
  0013e	83 d8 ff	 sbb	 eax, -1
$LN114@operator@3:
  00141	33 c9		 xor	 ecx, ecx
  00143	85 c0		 test	 eax, eax
  00145	0f 94 c0	 sete	 al

; 148  : }

  00148	8b 4d fc	 mov	 ecx, DWORD PTR __$ArrayPad$[ebp]
  0014b	5f		 pop	 edi
  0014c	33 cd		 xor	 ecx, ebp
  0014e	5e		 pop	 esi
  0014f	e8 00 00 00 00	 call	 @__security_check_cookie@4
  00154	c9		 leave
  00155	c3		 ret	 0
??$?8$06@@YA_NABVioHashString@@AAY06$$CBD@Z ENDP	; operator==<7>
_TEXT	ENDS
PUBLIC	__$ArrayPad$
PUBLIC	??$?8$09@@YA_NABVioHashString@@AAY09$$CBD@Z	; operator==<10>
; Function compile flags: /Ogsp
;	COMDAT ??$?8$09@@YA_NABVioHashString@@AAY09$$CBD@Z
_TEXT	SEGMENT
__t$ = -20						; size = 10
__$ArrayPad$ = -4					; size = 4
_lhs$ = 8						; size = 4
_t$ = 12						; size = 4
??$?8$09@@YA_NABVioHashString@@AAY09$$CBD@Z PROC	; operator==<10>, COMDAT

; 146  : {

  00000	55		 push	 ebp
  00001	8b ec		 mov	 ebp, esp
  00003	83 ec 14	 sub	 esp, 20			; 00000014H
  00006	a1 00 00 00 00	 mov	 eax, DWORD PTR ___security_cookie
  0000b	33 c5		 xor	 eax, ebp
  0000d	89 45 fc	 mov	 DWORD PTR __$ArrayPad$[ebp], eax
  00010	8b 45 0c	 mov	 eax, DWORD PTR _t$[ebp]

; 147  : 	_ENCSTR(t, _t); return ( strcmp( lhs.c_str(), _t ) == 0 );

  00013	8a 10		 mov	 dl, BYTE PTR [eax]
  00015	8b 4d 08	 mov	 ecx, DWORD PTR _lhs$[ebp]
  00018	84 d2		 test	 dl, dl
  0001a	0f 84 0d 01 00
	00		 je	 $LN96@operator@4
  00020	80 f2 ed	 xor	 dl, -19			; ffffffedH
  00023	88 55 ec	 mov	 BYTE PTR __t$[ebp], dl
  00026	8a 50 01	 mov	 dl, BYTE PTR [eax+1]
  00029	84 d2		 test	 dl, dl
  0002b	0f 84 f6 00 00
	00		 je	 $LN95@operator@4
  00031	80 f2 ec	 xor	 dl, -20			; ffffffecH
  00034	88 55 ed	 mov	 BYTE PTR __t$[ebp+1], dl
  00037	8a 50 02	 mov	 dl, BYTE PTR [eax+2]
  0003a	84 d2		 test	 dl, dl
  0003c	0f 84 df 00 00
	00		 je	 $LN94@operator@4
  00042	80 f2 eb	 xor	 dl, -21			; ffffffebH
  00045	88 55 ee	 mov	 BYTE PTR __t$[ebp+2], dl
  00048	8a 50 03	 mov	 dl, BYTE PTR [eax+3]
  0004b	84 d2		 test	 dl, dl
  0004d	0f 84 c8 00 00
	00		 je	 $LN93@operator@4
  00053	80 f2 ea	 xor	 dl, -22			; ffffffeaH
  00056	88 55 ef	 mov	 BYTE PTR __t$[ebp+3], dl
  00059	8a 50 04	 mov	 dl, BYTE PTR [eax+4]
  0005c	84 d2		 test	 dl, dl
  0005e	0f 84 b1 00 00
	00		 je	 $LN92@operator@4
  00064	80 f2 ed	 xor	 dl, -19			; ffffffedH
  00067	88 55 f0	 mov	 BYTE PTR __t$[ebp+4], dl
  0006a	8a 50 05	 mov	 dl, BYTE PTR [eax+5]
  0006d	84 d2		 test	 dl, dl
  0006f	0f 84 9a 00 00
	00		 je	 $LN91@operator@4
  00075	80 f2 ec	 xor	 dl, -20			; ffffffecH
  00078	88 55 f1	 mov	 BYTE PTR __t$[ebp+5], dl
  0007b	8a 50 06	 mov	 dl, BYTE PTR [eax+6]
  0007e	84 d2		 test	 dl, dl
  00080	0f 84 83 00 00
	00		 je	 $LN90@operator@4
  00086	80 f2 eb	 xor	 dl, -21			; ffffffebH
  00089	88 55 f2	 mov	 BYTE PTR __t$[ebp+6], dl
  0008c	8a 50 07	 mov	 dl, BYTE PTR [eax+7]
  0008f	84 d2		 test	 dl, dl
  00091	74 70		 je	 SHORT $LN89@operator@4
  00093	80 f2 ea	 xor	 dl, -22			; ffffffeaH
  00096	88 55 f3	 mov	 BYTE PTR __t$[ebp+7], dl
  00099	8a 50 08	 mov	 dl, BYTE PTR [eax+8]
  0009c	84 d2		 test	 dl, dl
  0009e	74 5d		 je	 SHORT $LN88@operator@4
  000a0	80 f2 ed	 xor	 dl, -19			; ffffffedH
  000a3	80 78 09 00	 cmp	 BYTE PTR [eax+9], 0
  000a7	88 55 f4	 mov	 BYTE PTR __t$[ebp+8], dl
  000aa	0f 84 81 00 00
	00		 je	 $LN1@operator@4
  000b0	8a 50 0a	 mov	 dl, BYTE PTR [eax+10]
  000b3	84 d2		 test	 dl, dl
  000b5	74 40		 je	 SHORT $LN86@operator@4
  000b7	80 f2 eb	 xor	 dl, -21			; ffffffebH
  000ba	88 55 f6	 mov	 BYTE PTR __t$[ebp+10], dl
  000bd	8a 50 0b	 mov	 dl, BYTE PTR [eax+11]
  000c0	84 d2		 test	 dl, dl
  000c2	74 2d		 je	 SHORT $LN85@operator@4
  000c4	80 f2 ea	 xor	 dl, -22			; ffffffeaH
  000c7	88 55 f7	 mov	 BYTE PTR __t$[ebp+11], dl
  000ca	8a 50 0c	 mov	 dl, BYTE PTR [eax+12]
  000cd	84 d2		 test	 dl, dl
  000cf	74 1a		 je	 SHORT $LN84@operator@4
  000d1	8a 40 0d	 mov	 al, BYTE PTR [eax+13]
  000d4	80 f2 ed	 xor	 dl, -19			; ffffffedH
  000d7	88 55 f8	 mov	 BYTE PTR __t$[ebp+12], dl
  000da	84 c0		 test	 al, al
  000dc	74 07		 je	 SHORT $LN83@operator@4
  000de	34 ec		 xor	 al, -20			; ffffffecH
  000e0	88 45 f9	 mov	 BYTE PTR __t$[ebp+13], al
  000e3	eb 4c		 jmp	 SHORT $LN1@operator@4
$LN83@operator@4:
  000e5	c6 45 f9 ec	 mov	 BYTE PTR __t$[ebp+13], -20 ; ffffffecH
  000e9	eb 46		 jmp	 SHORT $LN1@operator@4
$LN84@operator@4:
  000eb	c6 45 f8 ed	 mov	 BYTE PTR __t$[ebp+12], -19 ; ffffffedH
  000ef	eb 40		 jmp	 SHORT $LN1@operator@4
$LN85@operator@4:
  000f1	c6 45 f7 ea	 mov	 BYTE PTR __t$[ebp+11], -22 ; ffffffeaH
  000f5	eb 3a		 jmp	 SHORT $LN1@operator@4
$LN86@operator@4:
  000f7	c6 45 f6 eb	 mov	 BYTE PTR __t$[ebp+10], -21 ; ffffffebH
  000fb	eb 34		 jmp	 SHORT $LN1@operator@4
$LN88@operator@4:
  000fd	c6 45 f4 ed	 mov	 BYTE PTR __t$[ebp+8], -19 ; ffffffedH
  00101	eb 2e		 jmp	 SHORT $LN1@operator@4
$LN89@operator@4:
  00103	c6 45 f3 ea	 mov	 BYTE PTR __t$[ebp+7], -22 ; ffffffeaH
  00107	eb 28		 jmp	 SHORT $LN1@operator@4
$LN90@operator@4:
  00109	c6 45 f2 eb	 mov	 BYTE PTR __t$[ebp+6], -21 ; ffffffebH
  0010d	eb 22		 jmp	 SHORT $LN1@operator@4
$LN91@operator@4:
  0010f	c6 45 f1 ec	 mov	 BYTE PTR __t$[ebp+5], -20 ; ffffffecH
  00113	eb 1c		 jmp	 SHORT $LN1@operator@4
$LN92@operator@4:
  00115	c6 45 f0 ed	 mov	 BYTE PTR __t$[ebp+4], -19 ; ffffffedH
  00119	eb 16		 jmp	 SHORT $LN1@operator@4
$LN93@operator@4:
  0011b	c6 45 ef ea	 mov	 BYTE PTR __t$[ebp+3], -22 ; ffffffeaH
  0011f	eb 10		 jmp	 SHORT $LN1@operator@4
$LN94@operator@4:
  00121	c6 45 ee eb	 mov	 BYTE PTR __t$[ebp+2], -21 ; ffffffebH
  00125	eb 0a		 jmp	 SHORT $LN1@operator@4
$LN95@operator@4:
  00127	c6 45 ed ec	 mov	 BYTE PTR __t$[ebp+1], -20 ; ffffffecH
  0012b	eb 04		 jmp	 SHORT $LN1@operator@4
$LN96@operator@4:
  0012d	c6 45 ec ed	 mov	 BYTE PTR __t$[ebp], -19	; ffffffedH
$LN1@operator@4:
  00131	6a 02		 push	 2
  00133	8d 45 ec	 lea	 eax, DWORD PTR __t$[ebp]
  00136	c6 45 f5 00	 mov	 BYTE PTR __t$[ebp+9], 0
  0013a	5a		 pop	 edx
$LL104@operator@4:
  0013b	81 30 ed ec eb
	ea		 xor	 DWORD PTR [eax], -353637139 ; eaebecedH
  00141	83 c0 04	 add	 eax, 4
  00144	4a		 dec	 edx
  00145	75 f4		 jne	 SHORT $LL104@operator@4
  00147	80 75 f4 ed	 xor	 BYTE PTR __t$[ebp+8], -19 ; ffffffedH
  0014b	56		 push	 esi
  0014c	8d 75 ec	 lea	 esi, DWORD PTR __t$[ebp]
  0014f	ff 15 00 00 00
	00		 call	 DWORD PTR __imp_?c_str@ioHashString@@QBEPBDXZ
$LL111@operator@4:
  00155	8a 08		 mov	 cl, BYTE PTR [eax]
  00157	3a 0e		 cmp	 cl, BYTE PTR [esi]
  00159	75 1a		 jne	 SHORT $LN112@operator@4
  0015b	84 c9		 test	 cl, cl
  0015d	74 12		 je	 SHORT $LN113@operator@4
  0015f	8a 48 01	 mov	 cl, BYTE PTR [eax+1]
  00162	3a 4e 01	 cmp	 cl, BYTE PTR [esi+1]
  00165	75 0e		 jne	 SHORT $LN112@operator@4
  00167	83 c0 02	 add	 eax, 2
  0016a	83 c6 02	 add	 esi, 2
  0016d	84 c9		 test	 cl, cl
  0016f	75 e4		 jne	 SHORT $LL111@operator@4
$LN113@operator@4:
  00171	33 c0		 xor	 eax, eax
  00173	eb 05		 jmp	 SHORT $LN114@operator@4
$LN112@operator@4:
  00175	1b c0		 sbb	 eax, eax
  00177	83 d8 ff	 sbb	 eax, -1
$LN114@operator@4:
  0017a	33 c9		 xor	 ecx, ecx
  0017c	85 c0		 test	 eax, eax
  0017e	0f 94 c0	 sete	 al

; 148  : }

  00181	8b 4d fc	 mov	 ecx, DWORD PTR __$ArrayPad$[ebp]
  00184	33 cd		 xor	 ecx, ebp
  00186	5e		 pop	 esi
  00187	e8 00 00 00 00	 call	 @__security_check_cookie@4
  0018c	c9		 leave
  0018d	c3		 ret	 0
??$?8$09@@YA_NABVioHashString@@AAY09$$CBD@Z ENDP	; operator==<10>
_TEXT	ENDS
PUBLIC	__$ArrayPad$
PUBLIC	??$?8$0L@@@YA_NABVioHashString@@AAY0L@$$CBD@Z	; operator==<11>
; Function compile flags: /Ogsp
;	COMDAT ??$?8$0L@@@YA_NABVioHashString@@AAY0L@$$CBD@Z
_TEXT	SEGMENT
__t$ = -20						; size = 11
__$ArrayPad$ = -4					; size = 4
_lhs$ = 8						; size = 4
_t$ = 12						; size = 4
??$?8$0L@@@YA_NABVioHashString@@AAY0L@$$CBD@Z PROC	; operator==<11>, COMDAT

; 146  : {

  00000	55		 push	 ebp
  00001	8b ec		 mov	 ebp, esp
  00003	83 ec 14	 sub	 esp, 20			; 00000014H
  00006	a1 00 00 00 00	 mov	 eax, DWORD PTR ___security_cookie
  0000b	33 c5		 xor	 eax, ebp
  0000d	89 45 fc	 mov	 DWORD PTR __$ArrayPad$[ebp], eax
  00010	8b 45 0c	 mov	 eax, DWORD PTR _t$[ebp]

; 147  : 	_ENCSTR(t, _t); return ( strcmp( lhs.c_str(), _t ) == 0 );

  00013	8a 10		 mov	 dl, BYTE PTR [eax]
  00015	56		 push	 esi
  00016	57		 push	 edi
  00017	8b 7d 08	 mov	 edi, DWORD PTR _lhs$[ebp]
  0001a	84 d2		 test	 dl, dl
  0001c	0f 84 24 01 00
	00		 je	 $LN96@operator@5
  00022	80 f2 ed	 xor	 dl, -19			; ffffffedH
  00025	88 55 ec	 mov	 BYTE PTR __t$[ebp], dl
  00028	8a 50 01	 mov	 dl, BYTE PTR [eax+1]
  0002b	84 d2		 test	 dl, dl
  0002d	0f 84 0d 01 00
	00		 je	 $LN95@operator@5
  00033	80 f2 ec	 xor	 dl, -20			; ffffffecH
  00036	88 55 ed	 mov	 BYTE PTR __t$[ebp+1], dl
  00039	8a 50 02	 mov	 dl, BYTE PTR [eax+2]
  0003c	84 d2		 test	 dl, dl
  0003e	0f 84 f6 00 00
	00		 je	 $LN94@operator@5
  00044	80 f2 eb	 xor	 dl, -21			; ffffffebH
  00047	88 55 ee	 mov	 BYTE PTR __t$[ebp+2], dl
  0004a	8a 50 03	 mov	 dl, BYTE PTR [eax+3]
  0004d	84 d2		 test	 dl, dl
  0004f	0f 84 df 00 00
	00		 je	 $LN93@operator@5
  00055	80 f2 ea	 xor	 dl, -22			; ffffffeaH
  00058	88 55 ef	 mov	 BYTE PTR __t$[ebp+3], dl
  0005b	8a 50 04	 mov	 dl, BYTE PTR [eax+4]
  0005e	84 d2		 test	 dl, dl
  00060	0f 84 c8 00 00
	00		 je	 $LN92@operator@5
  00066	80 f2 ed	 xor	 dl, -19			; ffffffedH
  00069	88 55 f0	 mov	 BYTE PTR __t$[ebp+4], dl
  0006c	8a 50 05	 mov	 dl, BYTE PTR [eax+5]
  0006f	84 d2		 test	 dl, dl
  00071	0f 84 b1 00 00
	00		 je	 $LN91@operator@5
  00077	80 f2 ec	 xor	 dl, -20			; ffffffecH
  0007a	88 55 f1	 mov	 BYTE PTR __t$[ebp+5], dl
  0007d	8a 50 06	 mov	 dl, BYTE PTR [eax+6]
  00080	84 d2		 test	 dl, dl
  00082	0f 84 9a 00 00
	00		 je	 $LN90@operator@5
  00088	80 f2 eb	 xor	 dl, -21			; ffffffebH
  0008b	88 55 f2	 mov	 BYTE PTR __t$[ebp+6], dl
  0008e	8a 50 07	 mov	 dl, BYTE PTR [eax+7]
  00091	84 d2		 test	 dl, dl
  00093	0f 84 83 00 00
	00		 je	 $LN89@operator@5
  00099	80 f2 ea	 xor	 dl, -22			; ffffffeaH
  0009c	88 55 f3	 mov	 BYTE PTR __t$[ebp+7], dl
  0009f	8a 50 08	 mov	 dl, BYTE PTR [eax+8]
  000a2	84 d2		 test	 dl, dl
  000a4	74 70		 je	 SHORT $LN88@operator@5
  000a6	80 f2 ed	 xor	 dl, -19			; ffffffedH
  000a9	88 55 f4	 mov	 BYTE PTR __t$[ebp+8], dl
  000ac	8a 50 09	 mov	 dl, BYTE PTR [eax+9]
  000af	84 d2		 test	 dl, dl
  000b1	74 5d		 je	 SHORT $LN87@operator@5
  000b3	80 f2 ec	 xor	 dl, -20			; ffffffecH
  000b6	80 78 0a 00	 cmp	 BYTE PTR [eax+10], 0
  000ba	88 55 f5	 mov	 BYTE PTR __t$[ebp+9], dl
  000bd	0f 84 87 00 00
	00		 je	 $LN1@operator@5
  000c3	8a 50 0b	 mov	 dl, BYTE PTR [eax+11]
  000c6	84 d2		 test	 dl, dl
  000c8	74 40		 je	 SHORT $LN85@operator@5
  000ca	80 f2 ea	 xor	 dl, -22			; ffffffeaH
  000cd	88 55 f7	 mov	 BYTE PTR __t$[ebp+11], dl
  000d0	8a 50 0c	 mov	 dl, BYTE PTR [eax+12]
  000d3	84 d2		 test	 dl, dl
  000d5	74 2d		 je	 SHORT $LN84@operator@5
  000d7	80 f2 ed	 xor	 dl, -19			; ffffffedH
  000da	88 55 f8	 mov	 BYTE PTR __t$[ebp+12], dl
  000dd	8a 50 0d	 mov	 dl, BYTE PTR [eax+13]
  000e0	84 d2		 test	 dl, dl
  000e2	74 1a		 je	 SHORT $LN83@operator@5
  000e4	8a 40 0e	 mov	 al, BYTE PTR [eax+14]
  000e7	80 f2 ec	 xor	 dl, -20			; ffffffecH
  000ea	88 55 f9	 mov	 BYTE PTR __t$[ebp+13], dl
  000ed	84 c0		 test	 al, al
  000ef	74 07		 je	 SHORT $LN82@operator@5
  000f1	34 eb		 xor	 al, -21			; ffffffebH
  000f3	88 45 fa	 mov	 BYTE PTR __t$[ebp+14], al
  000f6	eb 52		 jmp	 SHORT $LN1@operator@5
$LN82@operator@5:
  000f8	c6 45 fa eb	 mov	 BYTE PTR __t$[ebp+14], -21 ; ffffffebH
  000fc	eb 4c		 jmp	 SHORT $LN1@operator@5
$LN83@operator@5:
  000fe	c6 45 f9 ec	 mov	 BYTE PTR __t$[ebp+13], -20 ; ffffffecH
  00102	eb 46		 jmp	 SHORT $LN1@operator@5
$LN84@operator@5:
  00104	c6 45 f8 ed	 mov	 BYTE PTR __t$[ebp+12], -19 ; ffffffedH
  00108	eb 40		 jmp	 SHORT $LN1@operator@5
$LN85@operator@5:
  0010a	c6 45 f7 ea	 mov	 BYTE PTR __t$[ebp+11], -22 ; ffffffeaH
  0010e	eb 3a		 jmp	 SHORT $LN1@operator@5
$LN87@operator@5:
  00110	c6 45 f5 ec	 mov	 BYTE PTR __t$[ebp+9], -20 ; ffffffecH
  00114	eb 34		 jmp	 SHORT $LN1@operator@5
$LN88@operator@5:
  00116	c6 45 f4 ed	 mov	 BYTE PTR __t$[ebp+8], -19 ; ffffffedH
  0011a	eb 2e		 jmp	 SHORT $LN1@operator@5
$LN89@operator@5:
  0011c	c6 45 f3 ea	 mov	 BYTE PTR __t$[ebp+7], -22 ; ffffffeaH
  00120	eb 28		 jmp	 SHORT $LN1@operator@5
$LN90@operator@5:
  00122	c6 45 f2 eb	 mov	 BYTE PTR __t$[ebp+6], -21 ; ffffffebH
  00126	eb 22		 jmp	 SHORT $LN1@operator@5
$LN91@operator@5:
  00128	c6 45 f1 ec	 mov	 BYTE PTR __t$[ebp+5], -20 ; ffffffecH
  0012c	eb 1c		 jmp	 SHORT $LN1@operator@5
$LN92@operator@5:
  0012e	c6 45 f0 ed	 mov	 BYTE PTR __t$[ebp+4], -19 ; ffffffedH
  00132	eb 16		 jmp	 SHORT $LN1@operator@5
$LN93@operator@5:
  00134	c6 45 ef ea	 mov	 BYTE PTR __t$[ebp+3], -22 ; ffffffeaH
  00138	eb 10		 jmp	 SHORT $LN1@operator@5
$LN94@operator@5:
  0013a	c6 45 ee eb	 mov	 BYTE PTR __t$[ebp+2], -21 ; ffffffebH
  0013e	eb 0a		 jmp	 SHORT $LN1@operator@5
$LN95@operator@5:
  00140	c6 45 ed ec	 mov	 BYTE PTR __t$[ebp+1], -20 ; ffffffecH
  00144	eb 04		 jmp	 SHORT $LN1@operator@5
$LN96@operator@5:
  00146	c6 45 ec ed	 mov	 BYTE PTR __t$[ebp], -19	; ffffffedH
$LN1@operator@5:
  0014a	6a 02		 push	 2
  0014c	8d 45 ec	 lea	 eax, DWORD PTR __t$[ebp]
  0014f	c6 45 f6 00	 mov	 BYTE PTR __t$[ebp+10], 0
  00153	5a		 pop	 edx
$LL104@operator@5:
  00154	81 30 ed ec eb
	ea		 xor	 DWORD PTR [eax], -353637139 ; eaebecedH
  0015a	83 c0 04	 add	 eax, 4
  0015d	4a		 dec	 edx
  0015e	75 f4		 jne	 SHORT $LL104@operator@5
  00160	6a 08		 push	 8
  00162	58		 pop	 eax
$LL101@operator@5:
  00163	8b c8		 mov	 ecx, eax
  00165	81 e1 03 00 00
	80		 and	 ecx, -2147483645	; 80000003H
  0016b	79 05		 jns	 SHORT $LN115@operator@5
  0016d	49		 dec	 ecx
  0016e	83 c9 fc	 or	 ecx, -4			; fffffffcH
  00171	41		 inc	 ecx
$LN115@operator@5:
  00172	b2 ed		 mov	 dl, -19			; ffffffedH
  00174	2a d1		 sub	 dl, cl
  00176	30 54 05 ec	 xor	 BYTE PTR __t$[ebp+eax], dl
  0017a	40		 inc	 eax
  0017b	83 f8 0a	 cmp	 eax, 10			; 0000000aH
  0017e	7c e3		 jl	 SHORT $LL101@operator@5
  00180	8b cf		 mov	 ecx, edi
  00182	8d 75 ec	 lea	 esi, DWORD PTR __t$[ebp]
  00185	ff 15 00 00 00
	00		 call	 DWORD PTR __imp_?c_str@ioHashString@@QBEPBDXZ
$LL111@operator@5:
  0018b	8a 08		 mov	 cl, BYTE PTR [eax]
  0018d	3a 0e		 cmp	 cl, BYTE PTR [esi]
  0018f	75 1a		 jne	 SHORT $LN112@operator@5
  00191	84 c9		 test	 cl, cl
  00193	74 12		 je	 SHORT $LN113@operator@5
  00195	8a 48 01	 mov	 cl, BYTE PTR [eax+1]
  00198	3a 4e 01	 cmp	 cl, BYTE PTR [esi+1]
  0019b	75 0e		 jne	 SHORT $LN112@operator@5
  0019d	83 c0 02	 add	 eax, 2
  001a0	83 c6 02	 add	 esi, 2
  001a3	84 c9		 test	 cl, cl
  001a5	75 e4		 jne	 SHORT $LL111@operator@5
$LN113@operator@5:
  001a7	33 c0		 xor	 eax, eax
  001a9	eb 05		 jmp	 SHORT $LN114@operator@5
$LN112@operator@5:
  001ab	1b c0		 sbb	 eax, eax
  001ad	83 d8 ff	 sbb	 eax, -1
$LN114@operator@5:
  001b0	33 c9		 xor	 ecx, ecx
  001b2	85 c0		 test	 eax, eax
  001b4	0f 94 c0	 sete	 al

; 148  : }

  001b7	8b 4d fc	 mov	 ecx, DWORD PTR __$ArrayPad$[ebp]
  001ba	5f		 pop	 edi
  001bb	33 cd		 xor	 ecx, ebp
  001bd	5e		 pop	 esi
  001be	e8 00 00 00 00	 call	 @__security_check_cookie@4
  001c3	c9		 leave
  001c4	c3		 ret	 0
??$?8$0L@@@YA_NABVioHashString@@AAY0L@$$CBD@Z ENDP	; operator==<11>
_TEXT	ENDS
PUBLIC	__$ArrayPad$
PUBLIC	??$?8$0M@@@YA_NABVioHashString@@AAY0M@$$CBD@Z	; operator==<12>
; Function compile flags: /Ogsp
;	COMDAT ??$?8$0M@@@YA_NABVioHashString@@AAY0M@$$CBD@Z
_TEXT	SEGMENT
__t$ = -20						; size = 12
__$ArrayPad$ = -4					; size = 4
_lhs$ = 8						; size = 4
_t$ = 12						; size = 4
??$?8$0M@@@YA_NABVioHashString@@AAY0M@$$CBD@Z PROC	; operator==<12>, COMDAT

; 146  : {

  00000	55		 push	 ebp
  00001	8b ec		 mov	 ebp, esp
  00003	83 ec 14	 sub	 esp, 20			; 00000014H
  00006	a1 00 00 00 00	 mov	 eax, DWORD PTR ___security_cookie
  0000b	33 c5		 xor	 eax, ebp
  0000d	89 45 fc	 mov	 DWORD PTR __$ArrayPad$[ebp], eax
  00010	8b 45 0c	 mov	 eax, DWORD PTR _t$[ebp]

; 147  : 	_ENCSTR(t, _t); return ( strcmp( lhs.c_str(), _t ) == 0 );

  00013	8a 10		 mov	 dl, BYTE PTR [eax]
  00015	56		 push	 esi
  00016	57		 push	 edi
  00017	8b 7d 08	 mov	 edi, DWORD PTR _lhs$[ebp]
  0001a	84 d2		 test	 dl, dl
  0001c	0f 84 32 01 00
	00		 je	 $LN96@operator@6
  00022	80 f2 ed	 xor	 dl, -19			; ffffffedH
  00025	88 55 ec	 mov	 BYTE PTR __t$[ebp], dl
  00028	8a 50 01	 mov	 dl, BYTE PTR [eax+1]
  0002b	84 d2		 test	 dl, dl
  0002d	0f 84 1b 01 00
	00		 je	 $LN95@operator@6
  00033	80 f2 ec	 xor	 dl, -20			; ffffffecH
  00036	88 55 ed	 mov	 BYTE PTR __t$[ebp+1], dl
  00039	8a 50 02	 mov	 dl, BYTE PTR [eax+2]
  0003c	84 d2		 test	 dl, dl
  0003e	0f 84 04 01 00
	00		 je	 $LN94@operator@6
  00044	b1 eb		 mov	 cl, -21			; ffffffebH
  00046	32 d1		 xor	 dl, cl
  00048	88 55 ee	 mov	 BYTE PTR __t$[ebp+2], dl
  0004b	8a 50 03	 mov	 dl, BYTE PTR [eax+3]
  0004e	84 d2		 test	 dl, dl
  00050	0f 84 ec 00 00
	00		 je	 $LN93@operator@6
  00056	80 f2 ea	 xor	 dl, -22			; ffffffeaH
  00059	88 55 ef	 mov	 BYTE PTR __t$[ebp+3], dl
  0005c	8a 50 04	 mov	 dl, BYTE PTR [eax+4]
  0005f	84 d2		 test	 dl, dl
  00061	0f 84 d5 00 00
	00		 je	 $LN92@operator@6
  00067	80 f2 ed	 xor	 dl, -19			; ffffffedH
  0006a	88 55 f0	 mov	 BYTE PTR __t$[ebp+4], dl
  0006d	8a 50 05	 mov	 dl, BYTE PTR [eax+5]
  00070	84 d2		 test	 dl, dl
  00072	0f 84 be 00 00
	00		 je	 $LN91@operator@6
  00078	80 f2 ec	 xor	 dl, -20			; ffffffecH
  0007b	88 55 f1	 mov	 BYTE PTR __t$[ebp+5], dl
  0007e	8a 50 06	 mov	 dl, BYTE PTR [eax+6]
  00081	84 d2		 test	 dl, dl
  00083	0f 84 a8 00 00
	00		 je	 $LN90@operator@6
  00089	32 d1		 xor	 dl, cl
  0008b	88 55 f2	 mov	 BYTE PTR __t$[ebp+6], dl
  0008e	8a 50 07	 mov	 dl, BYTE PTR [eax+7]
  00091	84 d2		 test	 dl, dl
  00093	0f 84 92 00 00
	00		 je	 $LN89@operator@6
  00099	80 f2 ea	 xor	 dl, -22			; ffffffeaH
  0009c	88 55 f3	 mov	 BYTE PTR __t$[ebp+7], dl
  0009f	8a 50 08	 mov	 dl, BYTE PTR [eax+8]
  000a2	84 d2		 test	 dl, dl
  000a4	74 7f		 je	 SHORT $LN88@operator@6
  000a6	80 f2 ed	 xor	 dl, -19			; ffffffedH
  000a9	88 55 f4	 mov	 BYTE PTR __t$[ebp+8], dl
  000ac	8a 50 09	 mov	 dl, BYTE PTR [eax+9]
  000af	84 d2		 test	 dl, dl
  000b1	74 6c		 je	 SHORT $LN87@operator@6
  000b3	80 f2 ec	 xor	 dl, -20			; ffffffecH
  000b6	88 55 f5	 mov	 BYTE PTR __t$[ebp+9], dl
  000b9	8a 50 0a	 mov	 dl, BYTE PTR [eax+10]
  000bc	84 d2		 test	 dl, dl
  000be	74 5a		 je	 SHORT $LN86@operator@6
  000c0	32 d1		 xor	 dl, cl
  000c2	80 78 0b 00	 cmp	 BYTE PTR [eax+11], 0
  000c6	88 55 f6	 mov	 BYTE PTR __t$[ebp+10], dl
  000c9	0f 84 89 00 00
	00		 je	 $LN1@operator@6
  000cf	8a 50 0c	 mov	 dl, BYTE PTR [eax+12]
  000d2	84 d2		 test	 dl, dl
  000d4	74 3e		 je	 SHORT $LN84@operator@6
  000d6	80 f2 ed	 xor	 dl, -19			; ffffffedH
  000d9	88 55 f8	 mov	 BYTE PTR __t$[ebp+12], dl
  000dc	8a 50 0d	 mov	 dl, BYTE PTR [eax+13]
  000df	84 d2		 test	 dl, dl
  000e1	74 2b		 je	 SHORT $LN83@operator@6
  000e3	80 f2 ec	 xor	 dl, -20			; ffffffecH
  000e6	88 55 f9	 mov	 BYTE PTR __t$[ebp+13], dl
  000e9	8a 50 0e	 mov	 dl, BYTE PTR [eax+14]
  000ec	84 d2		 test	 dl, dl
  000ee	74 19		 je	 SHORT $LN82@operator@6
  000f0	8a 40 0f	 mov	 al, BYTE PTR [eax+15]
  000f3	32 d1		 xor	 dl, cl
  000f5	88 55 fa	 mov	 BYTE PTR __t$[ebp+14], dl
  000f8	84 c0		 test	 al, al
  000fa	74 07		 je	 SHORT $LN81@operator@6
  000fc	34 ea		 xor	 al, -22			; ffffffeaH
  000fe	88 45 fb	 mov	 BYTE PTR __t$[ebp+15], al
  00101	eb 55		 jmp	 SHORT $LN1@operator@6
$LN81@operator@6:
  00103	c6 45 fb ea	 mov	 BYTE PTR __t$[ebp+15], -22 ; ffffffeaH
  00107	eb 4f		 jmp	 SHORT $LN1@operator@6
$LN82@operator@6:
  00109	88 4d fa	 mov	 BYTE PTR __t$[ebp+14], cl
  0010c	eb 4a		 jmp	 SHORT $LN1@operator@6
$LN83@operator@6:
  0010e	c6 45 f9 ec	 mov	 BYTE PTR __t$[ebp+13], -20 ; ffffffecH
  00112	eb 44		 jmp	 SHORT $LN1@operator@6
$LN84@operator@6:
  00114	c6 45 f8 ed	 mov	 BYTE PTR __t$[ebp+12], -19 ; ffffffedH
  00118	eb 3e		 jmp	 SHORT $LN1@operator@6
$LN86@operator@6:
  0011a	88 4d f6	 mov	 BYTE PTR __t$[ebp+10], cl
  0011d	eb 39		 jmp	 SHORT $LN1@operator@6
$LN87@operator@6:
  0011f	c6 45 f5 ec	 mov	 BYTE PTR __t$[ebp+9], -20 ; ffffffecH
  00123	eb 33		 jmp	 SHORT $LN1@operator@6
$LN88@operator@6:
  00125	c6 45 f4 ed	 mov	 BYTE PTR __t$[ebp+8], -19 ; ffffffedH
  00129	eb 2d		 jmp	 SHORT $LN1@operator@6
$LN89@operator@6:
  0012b	c6 45 f3 ea	 mov	 BYTE PTR __t$[ebp+7], -22 ; ffffffeaH
  0012f	eb 27		 jmp	 SHORT $LN1@operator@6
$LN90@operator@6:
  00131	88 4d f2	 mov	 BYTE PTR __t$[ebp+6], cl
  00134	eb 22		 jmp	 SHORT $LN1@operator@6
$LN91@operator@6:
  00136	c6 45 f1 ec	 mov	 BYTE PTR __t$[ebp+5], -20 ; ffffffecH
  0013a	eb 1c		 jmp	 SHORT $LN1@operator@6
$LN92@operator@6:
  0013c	c6 45 f0 ed	 mov	 BYTE PTR __t$[ebp+4], -19 ; ffffffedH
  00140	eb 16		 jmp	 SHORT $LN1@operator@6
$LN93@operator@6:
  00142	c6 45 ef ea	 mov	 BYTE PTR __t$[ebp+3], -22 ; ffffffeaH
  00146	eb 10		 jmp	 SHORT $LN1@operator@6
$LN94@operator@6:
  00148	c6 45 ee eb	 mov	 BYTE PTR __t$[ebp+2], -21 ; ffffffebH
  0014c	eb 0a		 jmp	 SHORT $LN1@operator@6
$LN95@operator@6:
  0014e	c6 45 ed ec	 mov	 BYTE PTR __t$[ebp+1], -20 ; ffffffecH
  00152	eb 04		 jmp	 SHORT $LN1@operator@6
$LN96@operator@6:
  00154	c6 45 ec ed	 mov	 BYTE PTR __t$[ebp], -19	; ffffffedH
$LN1@operator@6:
  00158	6a 02		 push	 2
  0015a	8d 45 ec	 lea	 eax, DWORD PTR __t$[ebp]
  0015d	c6 45 f7 00	 mov	 BYTE PTR __t$[ebp+11], 0
  00161	5a		 pop	 edx
$LL104@operator@6:
  00162	81 30 ed ec eb
	ea		 xor	 DWORD PTR [eax], -353637139 ; eaebecedH
  00168	83 c0 04	 add	 eax, 4
  0016b	4a		 dec	 edx
  0016c	75 f4		 jne	 SHORT $LL104@operator@6
  0016e	6a 08		 push	 8
  00170	58		 pop	 eax
$LL101@operator@6:
  00171	8b c8		 mov	 ecx, eax
  00173	81 e1 03 00 00
	80		 and	 ecx, -2147483645	; 80000003H
  00179	79 05		 jns	 SHORT $LN115@operator@6
  0017b	49		 dec	 ecx
  0017c	83 c9 fc	 or	 ecx, -4			; fffffffcH
  0017f	41		 inc	 ecx
$LN115@operator@6:
  00180	b2 ed		 mov	 dl, -19			; ffffffedH
  00182	2a d1		 sub	 dl, cl
  00184	30 54 05 ec	 xor	 BYTE PTR __t$[ebp+eax], dl
  00188	40		 inc	 eax
  00189	83 f8 0b	 cmp	 eax, 11			; 0000000bH
  0018c	7c e3		 jl	 SHORT $LL101@operator@6
  0018e	8b cf		 mov	 ecx, edi
  00190	8d 75 ec	 lea	 esi, DWORD PTR __t$[ebp]
  00193	ff 15 00 00 00
	00		 call	 DWORD PTR __imp_?c_str@ioHashString@@QBEPBDXZ
$LL111@operator@6:
  00199	8a 08		 mov	 cl, BYTE PTR [eax]
  0019b	3a 0e		 cmp	 cl, BYTE PTR [esi]
  0019d	75 1a		 jne	 SHORT $LN112@operator@6
  0019f	84 c9		 test	 cl, cl
  001a1	74 12		 je	 SHORT $LN113@operator@6
  001a3	8a 48 01	 mov	 cl, BYTE PTR [eax+1]
  001a6	3a 4e 01	 cmp	 cl, BYTE PTR [esi+1]
  001a9	75 0e		 jne	 SHORT $LN112@operator@6
  001ab	83 c0 02	 add	 eax, 2
  001ae	83 c6 02	 add	 esi, 2
  001b1	84 c9		 test	 cl, cl
  001b3	75 e4		 jne	 SHORT $LL111@operator@6
$LN113@operator@6:
  001b5	33 c0		 xor	 eax, eax
  001b7	eb 05		 jmp	 SHORT $LN114@operator@6
$LN112@operator@6:
  001b9	1b c0		 sbb	 eax, eax
  001bb	83 d8 ff	 sbb	 eax, -1
$LN114@operator@6:
  001be	33 c9		 xor	 ecx, ecx
  001c0	85 c0		 test	 eax, eax
  001c2	0f 94 c0	 sete	 al

; 148  : }

  001c5	8b 4d fc	 mov	 ecx, DWORD PTR __$ArrayPad$[ebp]
  001c8	5f		 pop	 edi
  001c9	33 cd		 xor	 ecx, ebp
  001cb	5e		 pop	 esi
  001cc	e8 00 00 00 00	 call	 @__security_check_cookie@4
  001d1	c9		 leave
  001d2	c3		 ret	 0
??$?8$0M@@@YA_NABVioHashString@@AAY0M@$$CBD@Z ENDP	; operator==<12>
_TEXT	ENDS
PUBLIC	??$construct@AAUTooltip@ioWnd@@@?$allocator@UTooltip@ioWnd@@@std@@QAEXPAUTooltip@ioWnd@@AAU23@@Z ; std::allocator<ioWnd::Tooltip>::construct<ioWnd::Tooltip &>
;	COMDAT xdata$x
; File c:\program files (x86)\microsoft visual studio 10.0\vc\include\utility
xdata$x	SEGMENT
__unwindtable$??$construct@AAUTooltip@ioWnd@@@?$allocator@UTooltip@ioWnd@@@std@@QAEXPAUTooltip@ioWnd@@AAU23@@Z DD 0ffffffffH
	DD	FLAT:__unwindfunclet$??$construct@AAUTooltip@ioWnd@@@?$allocator@UTooltip@ioWnd@@@std@@QAEXPAUTooltip@ioWnd@@AAU23@@Z$0
__ehfuncinfo$??$construct@AAUTooltip@ioWnd@@@?$allocator@UTooltip@ioWnd@@@std@@QAEXPAUTooltip@ioWnd@@AAU23@@Z DD 019930522H
	DD	01H
	DD	FLAT:__unwindtable$??$construct@AAUTooltip@ioWnd@@@?$allocator@UTooltip@ioWnd@@@std@@QAEXPAUTooltip@ioWnd@@AAU23@@Z
	DD	2 DUP(00H)
	DD	2 DUP(00H)
	DD	00H
	DD	01H
; Function compile flags: /Ogsp
; File c:\program files (x86)\microsoft visual studio 10.0\vc\include\xmemory
xdata$x	ENDS
;	COMDAT ??$construct@AAUTooltip@ioWnd@@@?$allocator@UTooltip@ioWnd@@@std@@QAEXPAUTooltip@ioWnd@@AAU23@@Z
_TEXT	SEGMENT
$T507817 = -16						; size = 4
__$EHRec$ = -12						; size = 12
__Ptr$ = 8						; size = 4
__Val$ = 12						; size = 4
??$construct@AAUTooltip@ioWnd@@@?$allocator@UTooltip@ioWnd@@@std@@QAEXPAUTooltip@ioWnd@@AAU23@@Z PROC ; std::allocator<ioWnd::Tooltip>::construct<ioWnd::Tooltip &>, COMDAT
; _this$ = ecx

; 206  : 		void construct(pointer _Ptr, _Other&& _Val)

  00000	6a 04		 push	 4
  00002	b8 00 00 00 00	 mov	 eax, __ehhandler$??$construct@AAUTooltip@ioWnd@@@?$allocator@UTooltip@ioWnd@@@std@@QAEXPAUTooltip@ioWnd@@AAU23@@Z
  00007	e8 00 00 00 00	 call	 __EH_prolog3

; 207  : 		{	// construct object at _Ptr with value _Val
; 208  : 		::new ((void _FARQ *)_Ptr) _Ty(_STD forward<_Other>(_Val));

  0000c	8b 4d 08	 mov	 ecx, DWORD PTR __Ptr$[ebp]
  0000f	89 4d f0	 mov	 DWORD PTR $T507817[ebp], ecx
  00012	83 65 fc 00	 and	 DWORD PTR __$EHRec$[ebp+8], 0
  00016	85 c9		 test	 ecx, ecx
  00018	74 08		 je	 SHORT $LN3@construct
  0001a	ff 75 0c	 push	 DWORD PTR __Val$[ebp]
  0001d	e8 00 00 00 00	 call	 ??0Tooltip@ioWnd@@QAE@ABU01@@Z
$LN3@construct:

; 209  : 		}

  00022	e8 00 00 00 00	 call	 __EH_epilog3
  00027	c2 08 00	 ret	 8
_TEXT	ENDS
;	COMDAT text$x
text$x	SEGMENT
__unwindfunclet$??$construct@AAUTooltip@ioWnd@@@?$allocator@UTooltip@ioWnd@@@std@@QAEXPAUTooltip@ioWnd@@AAU23@@Z$0:
  00000	ff 75 08	 push	 DWORD PTR __Ptr$[ebp]
  00003	ff 75 f0	 push	 DWORD PTR $T507817[ebp]
  00006	e8 00 00 00 00	 call	 ??3@YAXPAX0@Z		; operator delete
  0000b	59		 pop	 ecx
  0000c	59		 pop	 ecx
  0000d	c3		 ret	 0
__ehhandler$??$construct@AAUTooltip@ioWnd@@@?$allocator@UTooltip@ioWnd@@@std@@QAEXPAUTooltip@ioWnd@@AAU23@@Z:
  0000e	8b 54 24 08	 mov	 edx, DWORD PTR [esp+8]
  00012	8d 42 0c	 lea	 eax, DWORD PTR [edx+12]
  00015	8b 4a ec	 mov	 ecx, DWORD PTR [edx-20]
  00018	33 c8		 xor	 ecx, eax
  0001a	e8 00 00 00 00	 call	 @__security_check_cookie@4
  0001f	b8 00 00 00 00	 mov	 eax, OFFSET __ehfuncinfo$??$construct@AAUTooltip@ioWnd@@@?$allocator@UTooltip@ioWnd@@@std@@QAEXPAUTooltip@ioWnd@@AAU23@@Z
  00024	e9 00 00 00 00	 jmp	 ___CxxFrameHandler3
text$x	ENDS
??$construct@AAUTooltip@ioWnd@@@?$allocator@UTooltip@ioWnd@@@std@@QAEXPAUTooltip@ioWnd@@AAU23@@Z ENDP ; std::allocator<ioWnd::Tooltip>::construct<ioWnd::Tooltip &>
PUBLIC	??$_Move@PAUTooltip@ioWnd@@PAU12@@std@@YAPAUTooltip@ioWnd@@PAU12@00U_Nonscalar_ptr_iterator_tag@0@@Z ; std::_Move<ioWnd::Tooltip *,ioWnd::Tooltip *>
; Function compile flags: /Ogsp
; File c:\program files (x86)\microsoft visual studio 10.0\vc\include\xutility
;	COMDAT ??$_Move@PAUTooltip@ioWnd@@PAU12@@std@@YAPAUTooltip@ioWnd@@PAU12@00U_Nonscalar_ptr_iterator_tag@0@@Z
_TEXT	SEGMENT
__First$ = 8						; size = 4
__Last$ = 12						; size = 4
__Dest$ = 16						; size = 4
___formal$ = 20						; size = 1
??$_Move@PAUTooltip@ioWnd@@PAU12@@std@@YAPAUTooltip@ioWnd@@PAU12@00U_Nonscalar_ptr_iterator_tag@0@@Z PROC ; std::_Move<ioWnd::Tooltip *,ioWnd::Tooltip *>, COMDAT

; 2512 : 	{	// move [_First, _Last) to [_Dest, ...), arbitrary iterators

  00000	55		 push	 ebp
  00001	8b ec		 mov	 ebp, esp
  00003	56		 push	 esi

; 2513 : 	for (; _First != _Last; ++_Dest, ++_First)

  00004	8b 75 08	 mov	 esi, DWORD PTR __First$[ebp]
  00007	eb 10		 jmp	 SHORT $LN11@Move
$LL3@Move:

; 2514 : 		*_Dest = _STD move(*_First);

  00009	8b 4d 10	 mov	 ecx, DWORD PTR __Dest$[ebp]
  0000c	56		 push	 esi
  0000d	e8 00 00 00 00	 call	 ??4Tooltip@ioWnd@@QAEAAU01@ABU01@@Z
  00012	83 45 10 18	 add	 DWORD PTR __Dest$[ebp], 24 ; 00000018H
  00016	83 c6 18	 add	 esi, 24			; 00000018H
$LN11@Move:

; 2513 : 	for (; _First != _Last; ++_Dest, ++_First)

  00019	3b 75 0c	 cmp	 esi, DWORD PTR __Last$[ebp]
  0001c	75 eb		 jne	 SHORT $LL3@Move

; 2515 : 	return (_Dest);

  0001e	8b 45 10	 mov	 eax, DWORD PTR __Dest$[ebp]
  00021	5e		 pop	 esi

; 2516 : 	}

  00022	5d		 pop	 ebp
  00023	c3		 ret	 0
??$_Move@PAUTooltip@ioWnd@@PAU12@@std@@YAPAUTooltip@ioWnd@@PAU12@00U_Nonscalar_ptr_iterator_tag@0@@Z ENDP ; std::_Move<ioWnd::Tooltip *,ioWnd::Tooltip *>
_TEXT	ENDS
PUBLIC	??$_Construct@UTooltip@ioWnd@@ABU12@@std@@YAXPAUTooltip@ioWnd@@ABU12@@Z ; std::_Construct<ioWnd::Tooltip,ioWnd::Tooltip const &>
;	COMDAT xdata$x
; File c:\program files (x86)\microsoft visual studio 10.0\vc\include\utility
xdata$x	SEGMENT
__unwindtable$??$_Construct@UTooltip@ioWnd@@ABU12@@std@@YAXPAUTooltip@ioWnd@@ABU12@@Z DD 0ffffffffH
	DD	FLAT:__unwindfunclet$??$_Construct@UTooltip@ioWnd@@ABU12@@std@@YAXPAUTooltip@ioWnd@@ABU12@@Z$0
__ehfuncinfo$??$_Construct@UTooltip@ioWnd@@ABU12@@std@@YAXPAUTooltip@ioWnd@@ABU12@@Z DD 019930522H
	DD	01H
	DD	FLAT:__unwindtable$??$_Construct@UTooltip@ioWnd@@ABU12@@std@@YAXPAUTooltip@ioWnd@@ABU12@@Z
	DD	2 DUP(00H)
	DD	2 DUP(00H)
	DD	00H
	DD	01H
; Function compile flags: /Ogsp
; File c:\program files (x86)\microsoft visual studio 10.0\vc\include\xmemory
xdata$x	ENDS
;	COMDAT ??$_Construct@UTooltip@ioWnd@@ABU12@@std@@YAXPAUTooltip@ioWnd@@ABU12@@Z
_TEXT	SEGMENT
$T507845 = -16						; size = 4
__$EHRec$ = -12						; size = 12
__Vptr$ = 8						; size = 4
__Ptr$ = 8						; size = 4
__Val$ = 12						; size = 4
??$_Construct@UTooltip@ioWnd@@ABU12@@std@@YAXPAUTooltip@ioWnd@@ABU12@@Z PROC ; std::_Construct<ioWnd::Tooltip,ioWnd::Tooltip const &>, COMDAT

; 46   : 	{	// construct object at _Ptr with value _Val

  00000	6a 04		 push	 4
  00002	b8 00 00 00 00	 mov	 eax, __ehhandler$??$_Construct@UTooltip@ioWnd@@ABU12@@std@@YAXPAUTooltip@ioWnd@@ABU12@@Z
  00007	e8 00 00 00 00	 call	 __EH_prolog3

; 47   : 	void _FARQ *_Vptr = _Ptr;

  0000c	8b 4d 08	 mov	 ecx, DWORD PTR __Ptr$[ebp]
  0000f	89 4d 08	 mov	 DWORD PTR __Vptr$[ebp], ecx

; 48   : 	::new (_Vptr) _Ty1(_STD forward<_Ty2>(_Val));

  00012	89 4d f0	 mov	 DWORD PTR $T507845[ebp], ecx
  00015	83 65 fc 00	 and	 DWORD PTR __$EHRec$[ebp+8], 0
  00019	85 c9		 test	 ecx, ecx
  0001b	74 08		 je	 SHORT $LN3@Construct
  0001d	ff 75 0c	 push	 DWORD PTR __Val$[ebp]
  00020	e8 00 00 00 00	 call	 ??0Tooltip@ioWnd@@QAE@ABU01@@Z
$LN3@Construct:

; 49   : 	}

  00025	e8 00 00 00 00	 call	 __EH_epilog3
  0002a	c3		 ret	 0
_TEXT	ENDS
;	COMDAT text$x
text$x	SEGMENT
__unwindfunclet$??$_Construct@UTooltip@ioWnd@@ABU12@@std@@YAXPAUTooltip@ioWnd@@ABU12@@Z$0:
  00000	ff 75 08	 push	 DWORD PTR __Vptr$[ebp]
  00003	ff 75 f0	 push	 DWORD PTR $T507845[ebp]
  00006	e8 00 00 00 00	 call	 ??3@YAXPAX0@Z		; operator delete
  0000b	59		 pop	 ecx
  0000c	59		 pop	 ecx
  0000d	c3		 ret	 0
__ehhandler$??$_Construct@UTooltip@ioWnd@@ABU12@@std@@YAXPAUTooltip@ioWnd@@ABU12@@Z:
  0000e	8b 54 24 08	 mov	 edx, DWORD PTR [esp+8]
  00012	8d 42 0c	 lea	 eax, DWORD PTR [edx+12]
  00015	8b 4a ec	 mov	 ecx, DWORD PTR [edx-20]
  00018	33 c8		 xor	 ecx, eax
  0001a	e8 00 00 00 00	 call	 @__security_check_cookie@4
  0001f	b8 00 00 00 00	 mov	 eax, OFFSET __ehfuncinfo$??$_Construct@UTooltip@ioWnd@@ABU12@@std@@YAXPAUTooltip@ioWnd@@ABU12@@Z
  00024	e9 00 00 00 00	 jmp	 ___CxxFrameHandler3
text$x	ENDS
??$_Construct@UTooltip@ioWnd@@ABU12@@std@@YAXPAUTooltip@ioWnd@@ABU12@@Z ENDP ; std::_Construct<ioWnd::Tooltip,ioWnd::Tooltip const &>
PUBLIC	??$_Destroy@UTooltip@ioWnd@@@std@@YAXPAUTooltip@ioWnd@@@Z ; std::_Destroy<ioWnd::Tooltip>
; Function compile flags: /Ogsp
;	COMDAT ??$_Destroy@UTooltip@ioWnd@@@std@@YAXPAUTooltip@ioWnd@@@Z
_TEXT	SEGMENT
__Ptr$ = 8						; size = 4
??$_Destroy@UTooltip@ioWnd@@@std@@YAXPAUTooltip@ioWnd@@@Z PROC ; std::_Destroy<ioWnd::Tooltip>, COMDAT

; 62   : 	{	// destroy object at _Ptr

  00000	55		 push	 ebp
  00001	8b ec		 mov	 ebp, esp

; 63   : 	_Ptr->~_Ty();

  00003	8b 4d 08	 mov	 ecx, DWORD PTR __Ptr$[ebp]
  00006	83 c1 08	 add	 ecx, 8

; 64   : 	}

  00009	5d		 pop	 ebp

; 63   : 	_Ptr->~_Ty();

  0000a	ff 25 00 00 00
	00		 jmp	 DWORD PTR __imp_??1ioHashString@@QAE@XZ
??$_Destroy@UTooltip@ioWnd@@@std@@YAXPAUTooltip@ioWnd@@@Z ENDP ; std::_Destroy<ioWnd::Tooltip>
_TEXT	ENDS
PUBLIC	?construct@?$allocator@UTooltip@ioWnd@@@std@@QAEXPAUTooltip@ioWnd@@$$QAU34@@Z ; std::allocator<ioWnd::Tooltip>::construct
;	COMDAT xdata$x
; File c:\program files (x86)\microsoft visual studio 10.0\vc\include\utility
xdata$x	SEGMENT
__unwindtable$?construct@?$allocator@UTooltip@ioWnd@@@std@@QAEXPAUTooltip@ioWnd@@$$QAU34@@Z DD 0ffffffffH
	DD	FLAT:__unwindfunclet$?construct@?$allocator@UTooltip@ioWnd@@@std@@QAEXPAUTooltip@ioWnd@@$$QAU34@@Z$0
__ehfuncinfo$?construct@?$allocator@UTooltip@ioWnd@@@std@@QAEXPAUTooltip@ioWnd@@$$QAU34@@Z DD 019930522H
	DD	01H
	DD	FLAT:__unwindtable$?construct@?$allocator@UTooltip@ioWnd@@@std@@QAEXPAUTooltip@ioWnd@@$$QAU34@@Z
	DD	2 DUP(00H)
	DD	2 DUP(00H)
	DD	00H
	DD	01H
; Function compile flags: /Ogsp
; File c:\program files (x86)\microsoft visual studio 10.0\vc\include\xmemory
xdata$x	ENDS
;	COMDAT ?construct@?$allocator@UTooltip@ioWnd@@@std@@QAEXPAUTooltip@ioWnd@@$$QAU34@@Z
_TEXT	SEGMENT
$T507877 = -16						; size = 4
__$EHRec$ = -12						; size = 12
__Ptr$ = 8						; size = 4
__Val$ = 12						; size = 4
?construct@?$allocator@UTooltip@ioWnd@@@std@@QAEXPAUTooltip@ioWnd@@$$QAU34@@Z PROC ; std::allocator<ioWnd::Tooltip>::construct, COMDAT
; _this$ = ecx

; 201  : 		{	// construct object at _Ptr with value _Val

  00000	6a 04		 push	 4
  00002	b8 00 00 00 00	 mov	 eax, __ehhandler$?construct@?$allocator@UTooltip@ioWnd@@@std@@QAEXPAUTooltip@ioWnd@@$$QAU34@@Z
  00007	e8 00 00 00 00	 call	 __EH_prolog3

; 202  : 		::new ((void _FARQ *)_Ptr) _Ty(_STD forward<_Ty>(_Val));

  0000c	8b 4d 08	 mov	 ecx, DWORD PTR __Ptr$[ebp]
  0000f	89 4d f0	 mov	 DWORD PTR $T507877[ebp], ecx
  00012	83 65 fc 00	 and	 DWORD PTR __$EHRec$[ebp+8], 0
  00016	85 c9		 test	 ecx, ecx
  00018	74 08		 je	 SHORT $LN3@construct@2
  0001a	ff 75 0c	 push	 DWORD PTR __Val$[ebp]
  0001d	e8 00 00 00 00	 call	 ??0Tooltip@ioWnd@@QAE@ABU01@@Z
$LN3@construct@2:

; 203  : 		}

  00022	e8 00 00 00 00	 call	 __EH_epilog3
  00027	c2 08 00	 ret	 8
_TEXT	ENDS
;	COMDAT text$x
text$x	SEGMENT
__unwindfunclet$?construct@?$allocator@UTooltip@ioWnd@@@std@@QAEXPAUTooltip@ioWnd@@$$QAU34@@Z$0:
  00000	ff 75 08	 push	 DWORD PTR __Ptr$[ebp]
  00003	ff 75 f0	 push	 DWORD PTR $T507877[ebp]
  00006	e8 00 00 00 00	 call	 ??3@YAXPAX0@Z		; operator delete
  0000b	59		 pop	 ecx
  0000c	59		 pop	 ecx
  0000d	c3		 ret	 0
__ehhandler$?construct@?$allocator@UTooltip@ioWnd@@@std@@QAEXPAUTooltip@ioWnd@@$$QAU34@@Z:
  0000e	8b 54 24 08	 mov	 edx, DWORD PTR [esp+8]
  00012	8d 42 0c	 lea	 eax, DWORD PTR [edx+12]
  00015	8b 4a ec	 mov	 ecx, DWORD PTR [edx-20]
  00018	33 c8		 xor	 ecx, eax
  0001a	e8 00 00 00 00	 call	 @__security_check_cookie@4
  0001f	b8 00 00 00 00	 mov	 eax, OFFSET __ehfuncinfo$?construct@?$allocator@UTooltip@ioWnd@@@std@@QAEXPAUTooltip@ioWnd@@$$QAU34@@Z
  00024	e9 00 00 00 00	 jmp	 ___CxxFrameHandler3
text$x	ENDS
?construct@?$allocator@UTooltip@ioWnd@@@std@@QAEXPAUTooltip@ioWnd@@$$QAU34@@Z ENDP ; std::allocator<ioWnd::Tooltip>::construct
PUBLIC	_this$GSCopy$
PUBLIC	_pImage$GSCopy$
PUBLIC	_szType$GSCopy$
PUBLIC	__$ArrayPad$
EXTRN	__imp_?AddRenderImage@ioWnd@@UAEXABVioHashString@@PAVioUIRenderImage@@@Z:PROC
EXTRN	__imp_?SetVertFormatting@ioUIRenderImage@@QAEXW4VertFormatting@1@@Z:PROC
EXTRN	__imp_?SetHorzFormatting@ioUIRenderImage@@QAEXW4HorzFormatting@1@@Z:PROC
; Function compile flags: /Ogsp
; File d:\lost saga for developer\youtube\tutorial\source\src\lsclient\gui\tooltiphelpwnd.cpp
;	COMDAT ?AddRenderImage@TooltipHelpWnd@@UAEXABVioHashString@@PAVioUIRenderImage@@@Z
_TEXT	SEGMENT
_szType$GSCopy$ = -32					; size = 4
_pImage$GSCopy$ = -28					; size = 4
_this$GSCopy$ = -24					; size = 4
__t$508959 = -20					; size = 12
__t$508821 = -20					; size = 11
__t$508696 = -20					; size = 11
__t$508571 = -20					; size = 10
__t$508321 = -20					; size = 9
__t$508196 = -20					; size = 9
__t$508446 = -16					; size = 7
__t$508094 = -16					; size = 8
__t$507969 = -16					; size = 8
__$ArrayPad$ = -4					; size = 4
_szType$ = 8						; size = 4
_pImage$ = 12						; size = 4
?AddRenderImage@TooltipHelpWnd@@UAEXABVioHashString@@PAVioUIRenderImage@@@Z PROC ; TooltipHelpWnd::AddRenderImage, COMDAT
; _this$ = ecx

; 61   : {

  00000	55		 push	 ebp
  00001	8b ec		 mov	 ebp, esp
  00003	83 ec 20	 sub	 esp, 32			; 00000020H
  00006	a1 00 00 00 00	 mov	 eax, DWORD PTR ___security_cookie
  0000b	33 c5		 xor	 eax, ebp
  0000d	89 45 fc	 mov	 DWORD PTR __$ArrayPad$[ebp], eax
  00010	8b 45 08	 mov	 eax, DWORD PTR _szType$[ebp]
  00013	53		 push	 ebx
  00014	56		 push	 esi
  00015	57		 push	 edi

; 111  : 	}
; 112  : 	else if( szType == "BottomRight" )

  00016	89 45 e0	 mov	 DWORD PTR _szType$GSCopy$[ebp], eax
  00019	8b 45 0c	 mov	 eax, DWORD PTR _pImage$[ebp]
  0001c	bf ed ec eb ea	 mov	 edi, -353637139		; eaebecedH
  00021	6a 04		 push	 4
  00023	89 45 e4	 mov	 DWORD PTR _pImage$GSCopy$[ebp], eax
  00026	c7 45 f0 b9 83
	9b a6		 mov	 DWORD PTR __t$507969[ebp], -1499757639 ; a69b83b9H
  0002d	33 db		 xor	 ebx, ebx
  0002f	31 7d f0	 xor	 DWORD PTR __t$507969[ebp], edi
  00032	89 4d e8	 mov	 DWORD PTR _this$GSCopy$[ebp], ecx
  00035	c7 45 f4 88 8a
	9f 00		 mov	 DWORD PTR __t$507969[ebp+4], 10455688 ; 009f8a88H
  0003c	58		 pop	 eax
$LL148@AddRenderI:

; 62   : 	if( szType == "TopLeft" )

  0003d	8b c8		 mov	 ecx, eax
  0003f	81 e1 03 00 00
	80		 and	 ecx, -2147483645	; 80000003H
  00045	79 05		 jns	 SHORT $LN1093@AddRenderI
  00047	49		 dec	 ecx
  00048	83 c9 fc	 or	 ecx, -4			; fffffffcH
  0004b	41		 inc	 ecx
$LN1093@AddRenderI:
  0004c	b2 ed		 mov	 dl, -19			; ffffffedH
  0004e	2a d1		 sub	 dl, cl
  00050	30 54 05 f0	 xor	 BYTE PTR __t$507969[ebp+eax], dl
  00054	40		 inc	 eax
  00055	83 f8 07	 cmp	 eax, 7
  00058	7c e3		 jl	 SHORT $LL148@AddRenderI
  0005a	8b 4d e0	 mov	 ecx, DWORD PTR _szType$GSCopy$[ebp]
  0005d	8d 75 f0	 lea	 esi, DWORD PTR __t$507969[ebp]
  00060	ff 15 00 00 00
	00		 call	 DWORD PTR __imp_?c_str@ioHashString@@QBEPBDXZ
$LL1046@AddRenderI:
  00066	8a 08		 mov	 cl, BYTE PTR [eax]
  00068	3a 0e		 cmp	 cl, BYTE PTR [esi]
  0006a	75 1a		 jne	 SHORT $LN1047@AddRenderI
  0006c	3a cb		 cmp	 cl, bl
  0006e	74 12		 je	 SHORT $LN1048@AddRenderI
  00070	8a 48 01	 mov	 cl, BYTE PTR [eax+1]
  00073	3a 4e 01	 cmp	 cl, BYTE PTR [esi+1]
  00076	75 0e		 jne	 SHORT $LN1047@AddRenderI
  00078	83 c0 02	 add	 eax, 2
  0007b	83 c6 02	 add	 esi, 2
  0007e	3a cb		 cmp	 cl, bl
  00080	75 e4		 jne	 SHORT $LL1046@AddRenderI
$LN1048@AddRenderI:
  00082	33 c0		 xor	 eax, eax
  00084	eb 05		 jmp	 SHORT $LN1049@AddRenderI
$LN1047@AddRenderI:
  00086	1b c0		 sbb	 eax, eax
  00088	83 d8 ff	 sbb	 eax, -1
$LN1049@AddRenderI:
  0008b	3b c3		 cmp	 eax, ebx
  0008d	75 28		 jne	 SHORT $LN1038@AddRenderI

; 63   : 	{
; 64   : 		SAFEDELETE( m_pTopLeft );

  0008f	8b 75 e8	 mov	 esi, DWORD PTR _this$GSCopy$[ebp]
  00092	8b 8e 60 01 00
	00		 mov	 ecx, DWORD PTR [esi+352]
  00098	3b cb		 cmp	 ecx, ebx
  0009a	74 0d		 je	 SHORT $LN26@AddRenderI
  0009c	8b 01		 mov	 eax, DWORD PTR [ecx]
  0009e	6a 01		 push	 1
  000a0	ff 50 40	 call	 DWORD PTR [eax+64]
  000a3	89 9e 60 01 00
	00		 mov	 DWORD PTR [esi+352], ebx
$LN26@AddRenderI:

; 65   : 		m_pTopLeft = pImage;

  000a9	8b 45 e4	 mov	 eax, DWORD PTR _pImage$GSCopy$[ebp]
  000ac	89 86 60 01 00
	00		 mov	 DWORD PTR [esi+352], eax
  000b2	e9 fa 04 00 00	 jmp	 $LN1@AddRenderI
$LN1038@AddRenderI:

; 66   : 	}
; 67   : 	else if( szType == "TopEdge" )

  000b7	6a 04		 push	 4
  000b9	c7 45 f0 b9 83
	9b af		 mov	 DWORD PTR __t$508094[ebp], -1348762695 ; af9b83b9H
  000c0	31 7d f0	 xor	 DWORD PTR __t$508094[ebp], edi
  000c3	c7 45 f4 89 8b
	8e 00		 mov	 DWORD PTR __t$508094[ebp+4], 9341833 ; 008e8b89H
  000ca	58		 pop	 eax
$LL254@AddRenderI:
  000cb	8b c8		 mov	 ecx, eax
  000cd	81 e1 03 00 00
	80		 and	 ecx, -2147483645	; 80000003H
  000d3	79 05		 jns	 SHORT $LN1094@AddRenderI
  000d5	49		 dec	 ecx
  000d6	83 c9 fc	 or	 ecx, -4			; fffffffcH
  000d9	41		 inc	 ecx
$LN1094@AddRenderI:
  000da	b2 ed		 mov	 dl, -19			; ffffffedH
  000dc	2a d1		 sub	 dl, cl
  000de	30 54 05 f0	 xor	 BYTE PTR __t$508094[ebp+eax], dl
  000e2	40		 inc	 eax
  000e3	83 f8 07	 cmp	 eax, 7
  000e6	7c e3		 jl	 SHORT $LL254@AddRenderI
  000e8	8b 4d e0	 mov	 ecx, DWORD PTR _szType$GSCopy$[ebp]
  000eb	8d 75 f0	 lea	 esi, DWORD PTR __t$508094[ebp]
  000ee	ff 15 00 00 00
	00		 call	 DWORD PTR __imp_?c_str@ioHashString@@QBEPBDXZ
$LL1050@AddRenderI:
  000f4	8a 08		 mov	 cl, BYTE PTR [eax]
  000f6	3a 0e		 cmp	 cl, BYTE PTR [esi]
  000f8	75 1a		 jne	 SHORT $LN1051@AddRenderI
  000fa	3a cb		 cmp	 cl, bl
  000fc	74 12		 je	 SHORT $LN1087@AddRenderI
  000fe	8a 48 01	 mov	 cl, BYTE PTR [eax+1]
  00101	3a 4e 01	 cmp	 cl, BYTE PTR [esi+1]
  00104	75 0e		 jne	 SHORT $LN1051@AddRenderI
  00106	83 c0 02	 add	 eax, 2
  00109	83 c6 02	 add	 esi, 2
  0010c	3a cb		 cmp	 cl, bl
  0010e	75 e4		 jne	 SHORT $LL1050@AddRenderI
$LN1087@AddRenderI:
  00110	33 c0		 xor	 eax, eax
  00112	eb 05		 jmp	 SHORT $LN1053@AddRenderI
$LN1051@AddRenderI:
  00114	1b c0		 sbb	 eax, eax
  00116	83 d8 ff	 sbb	 eax, -1
$LN1053@AddRenderI:
  00119	3b c3		 cmp	 eax, ebx
  0011b	75 3d		 jne	 SHORT $LN1039@AddRenderI

; 68   : 	{
; 69   : 		SAFEDELETE( m_pTopEdge );

  0011d	8b 45 e8	 mov	 eax, DWORD PTR _this$GSCopy$[ebp]
  00120	8b 88 64 01 00
	00		 mov	 ecx, DWORD PTR [eax+356]
  00126	3b cb		 cmp	 ecx, ebx
  00128	74 12		 je	 SHORT $LN1082@AddRenderI
  0012a	8b 01		 mov	 eax, DWORD PTR [ecx]
  0012c	6a 01		 push	 1
  0012e	ff 50 40	 call	 DWORD PTR [eax+64]
  00131	8b 75 e8	 mov	 esi, DWORD PTR _this$GSCopy$[ebp]
  00134	89 9e 64 01 00
	00		 mov	 DWORD PTR [esi+356], ebx
  0013a	eb 02		 jmp	 SHORT $LN23@AddRenderI
$LN1082@AddRenderI:
  0013c	8b f0		 mov	 esi, eax
$LN23@AddRenderI:

; 70   : 		m_pTopEdge = pImage;

  0013e	8b 4d e4	 mov	 ecx, DWORD PTR _pImage$GSCopy$[ebp]

; 71   : 		m_pTopEdge->SetHorzFormatting( ioUIRenderImage::HF_STRETCH );

  00141	6a 03		 push	 3
  00143	89 8e 64 01 00
	00		 mov	 DWORD PTR [esi+356], ecx
  00149	ff 15 00 00 00
	00		 call	 DWORD PTR __imp_?SetHorzFormatting@ioUIRenderImage@@QAEXW4HorzFormatting@1@@Z

; 72   : 		m_pTopEdge->SetVertFormatting( ioUIRenderImage::VF_STRETCH );

  0014f	8b 8e 64 01 00
	00		 mov	 ecx, DWORD PTR [esi+356]
  00155	e9 9e 03 00 00	 jmp	 $LN1099@AddRenderI
$LN1039@AddRenderI:

; 73   : 	}
; 74   : 	else if( szType == "TopRight" )

  0015a	6a 02		 push	 2
  0015c	c7 45 ec b9 83
	9b b8		 mov	 DWORD PTR __t$508196[ebp], -1197767751 ; b89b83b9H
  00163	c7 45 f0 84 8b
	83 9e		 mov	 DWORD PTR __t$508196[ebp+4], -1635546236 ; 9e838b84H
  0016a	8d 45 ec	 lea	 eax, DWORD PTR __t$508196[ebp]
  0016d	88 5d f4	 mov	 BYTE PTR __t$508196[ebp+8], bl
  00170	59		 pop	 ecx
$LL363@AddRenderI:
  00171	31 38		 xor	 DWORD PTR [eax], edi
  00173	83 c0 04	 add	 eax, 4
  00176	49		 dec	 ecx
  00177	75 f8		 jne	 SHORT $LL363@AddRenderI
  00179	8b 4d e0	 mov	 ecx, DWORD PTR _szType$GSCopy$[ebp]
  0017c	8d 75 ec	 lea	 esi, DWORD PTR __t$508196[ebp]
  0017f	ff 15 00 00 00
	00		 call	 DWORD PTR __imp_?c_str@ioHashString@@QBEPBDXZ
$LL1054@AddRenderI:
  00185	8a 08		 mov	 cl, BYTE PTR [eax]
  00187	3a 0e		 cmp	 cl, BYTE PTR [esi]
  00189	75 1a		 jne	 SHORT $LN1055@AddRenderI
  0018b	3a cb		 cmp	 cl, bl
  0018d	74 12		 je	 SHORT $LN1088@AddRenderI
  0018f	8a 48 01	 mov	 cl, BYTE PTR [eax+1]
  00192	3a 4e 01	 cmp	 cl, BYTE PTR [esi+1]
  00195	75 0e		 jne	 SHORT $LN1055@AddRenderI
  00197	83 c0 02	 add	 eax, 2
  0019a	83 c6 02	 add	 esi, 2
  0019d	3a cb		 cmp	 cl, bl
  0019f	75 e4		 jne	 SHORT $LL1054@AddRenderI
$LN1088@AddRenderI:
  001a1	33 c0		 xor	 eax, eax
  001a3	eb 05		 jmp	 SHORT $LN1057@AddRenderI
$LN1055@AddRenderI:
  001a5	1b c0		 sbb	 eax, eax
  001a7	83 d8 ff	 sbb	 eax, -1
$LN1057@AddRenderI:
  001aa	3b c3		 cmp	 eax, ebx
  001ac	75 28		 jne	 SHORT $LN1040@AddRenderI

; 75   : 	{
; 76   : 		SAFEDELETE( m_pTopRight );

  001ae	8b 75 e8	 mov	 esi, DWORD PTR _this$GSCopy$[ebp]
  001b1	8b 8e 68 01 00
	00		 mov	 ecx, DWORD PTR [esi+360]
  001b7	3b cb		 cmp	 ecx, ebx
  001b9	74 0d		 je	 SHORT $LN20@AddRenderI
  001bb	8b 01		 mov	 eax, DWORD PTR [ecx]
  001bd	6a 01		 push	 1
  001bf	ff 50 40	 call	 DWORD PTR [eax+64]
  001c2	89 9e 68 01 00
	00		 mov	 DWORD PTR [esi+360], ebx
$LN20@AddRenderI:

; 77   : 		m_pTopRight = pImage;

  001c8	8b 45 e4	 mov	 eax, DWORD PTR _pImage$GSCopy$[ebp]
  001cb	89 86 68 01 00
	00		 mov	 DWORD PTR [esi+360], eax
  001d1	e9 db 03 00 00	 jmp	 $LN1@AddRenderI
$LN1040@AddRenderI:

; 78   : 	}
; 79   : 	else if( szType == "LeftEdge" )

  001d6	6a 02		 push	 2
  001d8	c7 45 ec a1 89
	8d 9e		 mov	 DWORD PTR __t$508321[ebp], -1634891359 ; 9e8d89a1H
  001df	c7 45 f0 a8 88
	8c 8f		 mov	 DWORD PTR __t$508321[ebp+4], -1886615384 ; 8f8c88a8H
  001e6	8d 45 ec	 lea	 eax, DWORD PTR __t$508321[ebp]
  001e9	88 5d f4	 mov	 BYTE PTR __t$508321[ebp+8], bl
  001ec	59		 pop	 ecx
$LL469@AddRenderI:
  001ed	31 38		 xor	 DWORD PTR [eax], edi
  001ef	83 c0 04	 add	 eax, 4
  001f2	49		 dec	 ecx
  001f3	75 f8		 jne	 SHORT $LL469@AddRenderI
  001f5	8b 4d e0	 mov	 ecx, DWORD PTR _szType$GSCopy$[ebp]
  001f8	8d 75 ec	 lea	 esi, DWORD PTR __t$508321[ebp]
  001fb	ff 15 00 00 00
	00		 call	 DWORD PTR __imp_?c_str@ioHashString@@QBEPBDXZ
$LL1058@AddRenderI:
  00201	8a 08		 mov	 cl, BYTE PTR [eax]
  00203	3a 0e		 cmp	 cl, BYTE PTR [esi]
  00205	75 1a		 jne	 SHORT $LN1059@AddRenderI
  00207	3a cb		 cmp	 cl, bl
  00209	74 12		 je	 SHORT $LN1060@AddRenderI
  0020b	8a 48 01	 mov	 cl, BYTE PTR [eax+1]
  0020e	3a 4e 01	 cmp	 cl, BYTE PTR [esi+1]
  00211	75 0e		 jne	 SHORT $LN1059@AddRenderI
  00213	83 c0 02	 add	 eax, 2
  00216	83 c6 02	 add	 esi, 2
  00219	3a cb		 cmp	 cl, bl
  0021b	75 e4		 jne	 SHORT $LL1058@AddRenderI
$LN1060@AddRenderI:
  0021d	33 c0		 xor	 eax, eax
  0021f	eb 05		 jmp	 SHORT $LN1061@AddRenderI
$LN1059@AddRenderI:
  00221	1b c0		 sbb	 eax, eax
  00223	83 d8 ff	 sbb	 eax, -1
$LN1061@AddRenderI:
  00226	3b c3		 cmp	 eax, ebx
  00228	75 3d		 jne	 SHORT $LN1041@AddRenderI

; 80   : 	{
; 81   : 		SAFEDELETE( m_pLeftEdge );

  0022a	8b 45 e8	 mov	 eax, DWORD PTR _this$GSCopy$[ebp]
  0022d	8b 88 6c 01 00
	00		 mov	 ecx, DWORD PTR [eax+364]
  00233	3b cb		 cmp	 ecx, ebx
  00235	74 12		 je	 SHORT $LN1083@AddRenderI
  00237	8b 01		 mov	 eax, DWORD PTR [ecx]
  00239	6a 01		 push	 1
  0023b	ff 50 40	 call	 DWORD PTR [eax+64]
  0023e	8b 75 e8	 mov	 esi, DWORD PTR _this$GSCopy$[ebp]
  00241	89 9e 6c 01 00
	00		 mov	 DWORD PTR [esi+364], ebx
  00247	eb 02		 jmp	 SHORT $LN17@AddRenderI
$LN1083@AddRenderI:
  00249	8b f0		 mov	 esi, eax
$LN17@AddRenderI:

; 82   : 		m_pLeftEdge = pImage;

  0024b	8b 4d e4	 mov	 ecx, DWORD PTR _pImage$GSCopy$[ebp]

; 83   : 		m_pLeftEdge->SetHorzFormatting( ioUIRenderImage::HF_STRETCH );

  0024e	6a 03		 push	 3
  00250	89 8e 6c 01 00
	00		 mov	 DWORD PTR [esi+364], ecx
  00256	ff 15 00 00 00
	00		 call	 DWORD PTR __imp_?SetHorzFormatting@ioUIRenderImage@@QAEXW4HorzFormatting@1@@Z

; 84   : 		m_pLeftEdge->SetVertFormatting( ioUIRenderImage::VF_STRETCH );

  0025c	8b 8e 6c 01 00
	00		 mov	 ecx, DWORD PTR [esi+364]
  00262	e9 91 02 00 00	 jmp	 $LN1099@AddRenderI
$LN1041@AddRenderI:

; 85   : 	}
; 86   : 	else if( szType == "Center" )

  00267	6a 04		 push	 4
  00269	c7 45 f0 ae 89
	85 9e		 mov	 DWORD PTR __t$508446[ebp], -1635415634 ; 9e8589aeH
  00270	31 7d f0	 xor	 DWORD PTR __t$508446[ebp], edi
  00273	66 c7 45 f4 88
	9e		 mov	 WORD PTR __t$508446[ebp+4], 40584 ; 00009e88H
  00279	88 5d f6	 mov	 BYTE PTR __t$508446[ebp+6], bl
  0027c	58		 pop	 eax
$LL572@AddRenderI:
  0027d	8b c8		 mov	 ecx, eax
  0027f	81 e1 03 00 00
	80		 and	 ecx, -2147483645	; 80000003H
  00285	79 05		 jns	 SHORT $LN1095@AddRenderI
  00287	49		 dec	 ecx
  00288	83 c9 fc	 or	 ecx, -4			; fffffffcH
  0028b	41		 inc	 ecx
$LN1095@AddRenderI:
  0028c	b2 ed		 mov	 dl, -19			; ffffffedH
  0028e	2a d1		 sub	 dl, cl
  00290	30 54 05 f0	 xor	 BYTE PTR __t$508446[ebp+eax], dl
  00294	40		 inc	 eax
  00295	83 f8 06	 cmp	 eax, 6
  00298	7c e3		 jl	 SHORT $LL572@AddRenderI
  0029a	8b 4d e0	 mov	 ecx, DWORD PTR _szType$GSCopy$[ebp]
  0029d	8d 75 f0	 lea	 esi, DWORD PTR __t$508446[ebp]
  002a0	ff 15 00 00 00
	00		 call	 DWORD PTR __imp_?c_str@ioHashString@@QBEPBDXZ
$LL1062@AddRenderI:
  002a6	8a 08		 mov	 cl, BYTE PTR [eax]
  002a8	3a 0e		 cmp	 cl, BYTE PTR [esi]
  002aa	75 1a		 jne	 SHORT $LN1063@AddRenderI
  002ac	3a cb		 cmp	 cl, bl
  002ae	74 12		 je	 SHORT $LN1089@AddRenderI
  002b0	8a 48 01	 mov	 cl, BYTE PTR [eax+1]
  002b3	3a 4e 01	 cmp	 cl, BYTE PTR [esi+1]
  002b6	75 0e		 jne	 SHORT $LN1063@AddRenderI
  002b8	83 c0 02	 add	 eax, 2
  002bb	83 c6 02	 add	 esi, 2
  002be	3a cb		 cmp	 cl, bl
  002c0	75 e4		 jne	 SHORT $LL1062@AddRenderI
$LN1089@AddRenderI:
  002c2	33 c0		 xor	 eax, eax
  002c4	eb 05		 jmp	 SHORT $LN1065@AddRenderI
$LN1063@AddRenderI:
  002c6	1b c0		 sbb	 eax, eax
  002c8	83 d8 ff	 sbb	 eax, -1
$LN1065@AddRenderI:
  002cb	3b c3		 cmp	 eax, ebx
  002cd	75 3d		 jne	 SHORT $LN1042@AddRenderI

; 87   : 	{
; 88   : 		SAFEDELETE( m_pCenter );

  002cf	8b 45 e8	 mov	 eax, DWORD PTR _this$GSCopy$[ebp]
  002d2	8b 88 70 01 00
	00		 mov	 ecx, DWORD PTR [eax+368]
  002d8	3b cb		 cmp	 ecx, ebx
  002da	74 12		 je	 SHORT $LN1084@AddRenderI
  002dc	8b 01		 mov	 eax, DWORD PTR [ecx]
  002de	6a 01		 push	 1
  002e0	ff 50 40	 call	 DWORD PTR [eax+64]
  002e3	8b 75 e8	 mov	 esi, DWORD PTR _this$GSCopy$[ebp]
  002e6	89 9e 70 01 00
	00		 mov	 DWORD PTR [esi+368], ebx
  002ec	eb 02		 jmp	 SHORT $LN14@AddRenderI
$LN1084@AddRenderI:
  002ee	8b f0		 mov	 esi, eax
$LN14@AddRenderI:

; 89   : 		m_pCenter = pImage;

  002f0	8b 4d e4	 mov	 ecx, DWORD PTR _pImage$GSCopy$[ebp]

; 90   : 		m_pCenter->SetHorzFormatting( ioUIRenderImage::HF_STRETCH );

  002f3	6a 03		 push	 3
  002f5	89 8e 70 01 00
	00		 mov	 DWORD PTR [esi+368], ecx
  002fb	ff 15 00 00 00
	00		 call	 DWORD PTR __imp_?SetHorzFormatting@ioUIRenderImage@@QAEXW4HorzFormatting@1@@Z

; 91   : 		m_pCenter->SetVertFormatting( ioUIRenderImage::VF_STRETCH );

  00301	8b 8e 70 01 00
	00		 mov	 ecx, DWORD PTR [esi+368]
  00307	e9 ec 01 00 00	 jmp	 $LN1099@AddRenderI
$LN1042@AddRenderI:

; 92   : 	}
; 93   : 	else if( szType == "RightEdge" )

  0030c	6a 02		 push	 2
  0030e	c7 45 ec bf 85
	8c 82		 mov	 DWORD PTR __t$508571[ebp], -2104719937 ; 828c85bfH
  00315	c7 45 f0 99 a9
	8f 8d		 mov	 DWORD PTR __t$508571[ebp+4], -1919964775 ; 8d8fa999H
  0031c	8d 45 ec	 lea	 eax, DWORD PTR __t$508571[ebp]
  0031f	66 c7 45 f4 88
	00		 mov	 WORD PTR __t$508571[ebp+8], 136 ; 00000088H
  00325	59		 pop	 ecx
$LL681@AddRenderI:
  00326	31 38		 xor	 DWORD PTR [eax], edi
  00328	83 c0 04	 add	 eax, 4
  0032b	49		 dec	 ecx
  0032c	75 f8		 jne	 SHORT $LL681@AddRenderI
  0032e	8b 4d e0	 mov	 ecx, DWORD PTR _szType$GSCopy$[ebp]
  00331	80 75 f4 ed	 xor	 BYTE PTR __t$508571[ebp+8], -19 ; ffffffedH
  00335	8d 75 ec	 lea	 esi, DWORD PTR __t$508571[ebp]
  00338	ff 15 00 00 00
	00		 call	 DWORD PTR __imp_?c_str@ioHashString@@QBEPBDXZ
$LL1066@AddRenderI:
  0033e	8a 08		 mov	 cl, BYTE PTR [eax]
  00340	3a 0e		 cmp	 cl, BYTE PTR [esi]
  00342	75 1a		 jne	 SHORT $LN1067@AddRenderI
  00344	3a cb		 cmp	 cl, bl
  00346	74 12		 je	 SHORT $LN1090@AddRenderI
  00348	8a 48 01	 mov	 cl, BYTE PTR [eax+1]
  0034b	3a 4e 01	 cmp	 cl, BYTE PTR [esi+1]
  0034e	75 0e		 jne	 SHORT $LN1067@AddRenderI
  00350	83 c0 02	 add	 eax, 2
  00353	83 c6 02	 add	 esi, 2
  00356	3a cb		 cmp	 cl, bl
  00358	75 e4		 jne	 SHORT $LL1066@AddRenderI
$LN1090@AddRenderI:
  0035a	33 c0		 xor	 eax, eax
  0035c	eb 05		 jmp	 SHORT $LN1069@AddRenderI
$LN1067@AddRenderI:
  0035e	1b c0		 sbb	 eax, eax
  00360	83 d8 ff	 sbb	 eax, -1
$LN1069@AddRenderI:
  00363	3b c3		 cmp	 eax, ebx
  00365	75 3d		 jne	 SHORT $LN1043@AddRenderI

; 94   : 	{
; 95   : 		SAFEDELETE( m_pRightEdge );

  00367	8b 45 e8	 mov	 eax, DWORD PTR _this$GSCopy$[ebp]
  0036a	8b 88 74 01 00
	00		 mov	 ecx, DWORD PTR [eax+372]
  00370	3b cb		 cmp	 ecx, ebx
  00372	74 12		 je	 SHORT $LN1085@AddRenderI
  00374	8b 01		 mov	 eax, DWORD PTR [ecx]
  00376	6a 01		 push	 1
  00378	ff 50 40	 call	 DWORD PTR [eax+64]
  0037b	8b 75 e8	 mov	 esi, DWORD PTR _this$GSCopy$[ebp]
  0037e	89 9e 74 01 00
	00		 mov	 DWORD PTR [esi+372], ebx
  00384	eb 02		 jmp	 SHORT $LN11@AddRenderI
$LN1085@AddRenderI:
  00386	8b f0		 mov	 esi, eax
$LN11@AddRenderI:

; 96   : 		m_pRightEdge = pImage;

  00388	8b 4d e4	 mov	 ecx, DWORD PTR _pImage$GSCopy$[ebp]

; 97   : 		m_pRightEdge->SetHorzFormatting( ioUIRenderImage::HF_STRETCH );

  0038b	6a 03		 push	 3
  0038d	89 8e 74 01 00
	00		 mov	 DWORD PTR [esi+372], ecx
  00393	ff 15 00 00 00
	00		 call	 DWORD PTR __imp_?SetHorzFormatting@ioUIRenderImage@@QAEXW4HorzFormatting@1@@Z

; 98   : 		m_pRightEdge->SetVertFormatting( ioUIRenderImage::VF_STRETCH );

  00399	8b 8e 74 01 00
	00		 mov	 ecx, DWORD PTR [esi+372]
  0039f	e9 54 01 00 00	 jmp	 $LN1099@AddRenderI
$LN1043@AddRenderI:

; 99   : 	}
; 100  : 	else if( szType == "BottomLeft" )

  003a4	6a 02		 push	 2
  003a6	c7 45 ec af 83
	9f 9e		 mov	 DWORD PTR __t$508696[ebp], -1633713233 ; 9e9f83afH
  003ad	c7 45 f0 82 81
	a7 8f		 mov	 DWORD PTR __t$508696[ebp+4], -1884847742 ; 8fa78182H
  003b4	66 c7 45 f4 8b
	98		 mov	 WORD PTR __t$508696[ebp+8], 39051 ; 0000988bH
  003ba	8d 45 ec	 lea	 eax, DWORD PTR __t$508696[ebp]
  003bd	88 5d f6	 mov	 BYTE PTR __t$508696[ebp+10], bl
  003c0	59		 pop	 ecx
$LL787@AddRenderI:
  003c1	31 38		 xor	 DWORD PTR [eax], edi
  003c3	83 c0 04	 add	 eax, 4
  003c6	49		 dec	 ecx
  003c7	75 f8		 jne	 SHORT $LL787@AddRenderI
  003c9	6a 08		 push	 8
  003cb	58		 pop	 eax
$LL784@AddRenderI:
  003cc	8b c8		 mov	 ecx, eax
  003ce	81 e1 03 00 00
	80		 and	 ecx, -2147483645	; 80000003H
  003d4	79 05		 jns	 SHORT $LN1096@AddRenderI
  003d6	49		 dec	 ecx
  003d7	83 c9 fc	 or	 ecx, -4			; fffffffcH
  003da	41		 inc	 ecx
$LN1096@AddRenderI:
  003db	b2 ed		 mov	 dl, -19			; ffffffedH
  003dd	2a d1		 sub	 dl, cl
  003df	30 54 05 ec	 xor	 BYTE PTR __t$508696[ebp+eax], dl
  003e3	40		 inc	 eax
  003e4	83 f8 0a	 cmp	 eax, 10			; 0000000aH
  003e7	7c e3		 jl	 SHORT $LL784@AddRenderI
  003e9	8b 4d e0	 mov	 ecx, DWORD PTR _szType$GSCopy$[ebp]
  003ec	8d 75 ec	 lea	 esi, DWORD PTR __t$508696[ebp]
  003ef	ff 15 00 00 00
	00		 call	 DWORD PTR __imp_?c_str@ioHashString@@QBEPBDXZ
$LL1070@AddRenderI:
  003f5	8a 08		 mov	 cl, BYTE PTR [eax]
  003f7	3a 0e		 cmp	 cl, BYTE PTR [esi]
  003f9	75 1a		 jne	 SHORT $LN1071@AddRenderI
  003fb	3a cb		 cmp	 cl, bl
  003fd	74 12		 je	 SHORT $LN1091@AddRenderI
  003ff	8a 48 01	 mov	 cl, BYTE PTR [eax+1]
  00402	3a 4e 01	 cmp	 cl, BYTE PTR [esi+1]
  00405	75 0e		 jne	 SHORT $LN1071@AddRenderI
  00407	83 c0 02	 add	 eax, 2
  0040a	83 c6 02	 add	 esi, 2
  0040d	3a cb		 cmp	 cl, bl
  0040f	75 e4		 jne	 SHORT $LL1070@AddRenderI
$LN1091@AddRenderI:
  00411	33 c0		 xor	 eax, eax
  00413	eb 05		 jmp	 SHORT $LN1073@AddRenderI
$LN1071@AddRenderI:
  00415	1b c0		 sbb	 eax, eax
  00417	83 d8 ff	 sbb	 eax, -1
$LN1073@AddRenderI:
  0041a	3b c3		 cmp	 eax, ebx
  0041c	75 28		 jne	 SHORT $LN1044@AddRenderI

; 101  : 	{
; 102  : 		SAFEDELETE( m_pBottomLeft );

  0041e	8b 75 e8	 mov	 esi, DWORD PTR _this$GSCopy$[ebp]
  00421	8b 8e 78 01 00
	00		 mov	 ecx, DWORD PTR [esi+376]
  00427	3b cb		 cmp	 ecx, ebx
  00429	74 0d		 je	 SHORT $LN8@AddRenderI
  0042b	8b 01		 mov	 eax, DWORD PTR [ecx]
  0042d	6a 01		 push	 1
  0042f	ff 50 40	 call	 DWORD PTR [eax+64]
  00432	89 9e 78 01 00
	00		 mov	 DWORD PTR [esi+376], ebx
$LN8@AddRenderI:

; 103  : 		m_pBottomLeft = pImage;

  00438	8b 45 e4	 mov	 eax, DWORD PTR _pImage$GSCopy$[ebp]
  0043b	89 86 78 01 00
	00		 mov	 DWORD PTR [esi+376], eax
  00441	e9 6b 01 00 00	 jmp	 $LN1@AddRenderI
$LN1044@AddRenderI:

; 104  : 	}
; 105  : 	else if( szType == "BottomEdge" )

  00446	6a 02		 push	 2
  00448	c7 45 ec af 83
	9f 9e		 mov	 DWORD PTR __t$508821[ebp], -1633713233 ; 9e9f83afH
  0044f	c7 45 f0 82 81
	ae 8e		 mov	 DWORD PTR __t$508821[ebp+4], -1901166206 ; 8eae8182H
  00456	66 c7 45 f4 8a
	89		 mov	 WORD PTR __t$508821[ebp+8], 35210 ; 0000898aH
  0045c	8d 45 ec	 lea	 eax, DWORD PTR __t$508821[ebp]
  0045f	88 5d f6	 mov	 BYTE PTR __t$508821[ebp+10], bl
  00462	59		 pop	 ecx
$LL893@AddRenderI:
  00463	31 38		 xor	 DWORD PTR [eax], edi
  00465	83 c0 04	 add	 eax, 4
  00468	49		 dec	 ecx
  00469	75 f8		 jne	 SHORT $LL893@AddRenderI
  0046b	6a 08		 push	 8
  0046d	58		 pop	 eax
$LL890@AddRenderI:
  0046e	8b c8		 mov	 ecx, eax
  00470	81 e1 03 00 00
	80		 and	 ecx, -2147483645	; 80000003H
  00476	79 05		 jns	 SHORT $LN1097@AddRenderI
  00478	49		 dec	 ecx
  00479	83 c9 fc	 or	 ecx, -4			; fffffffcH
  0047c	41		 inc	 ecx
$LN1097@AddRenderI:
  0047d	b2 ed		 mov	 dl, -19			; ffffffedH
  0047f	2a d1		 sub	 dl, cl
  00481	30 54 05 ec	 xor	 BYTE PTR __t$508821[ebp+eax], dl
  00485	40		 inc	 eax
  00486	83 f8 0a	 cmp	 eax, 10			; 0000000aH
  00489	7c e3		 jl	 SHORT $LL890@AddRenderI
  0048b	8b 4d e0	 mov	 ecx, DWORD PTR _szType$GSCopy$[ebp]
  0048e	8d 75 ec	 lea	 esi, DWORD PTR __t$508821[ebp]
  00491	ff 15 00 00 00
	00		 call	 DWORD PTR __imp_?c_str@ioHashString@@QBEPBDXZ
$LL1074@AddRenderI:
  00497	8a 08		 mov	 cl, BYTE PTR [eax]
  00499	3a 0e		 cmp	 cl, BYTE PTR [esi]
  0049b	75 1a		 jne	 SHORT $LN1075@AddRenderI
  0049d	3a cb		 cmp	 cl, bl
  0049f	74 12		 je	 SHORT $LN1092@AddRenderI
  004a1	8a 48 01	 mov	 cl, BYTE PTR [eax+1]
  004a4	3a 4e 01	 cmp	 cl, BYTE PTR [esi+1]
  004a7	75 0e		 jne	 SHORT $LN1075@AddRenderI
  004a9	83 c0 02	 add	 eax, 2
  004ac	83 c6 02	 add	 esi, 2
  004af	3a cb		 cmp	 cl, bl
  004b1	75 e4		 jne	 SHORT $LL1074@AddRenderI
$LN1092@AddRenderI:
  004b3	33 c0		 xor	 eax, eax
  004b5	eb 05		 jmp	 SHORT $LN1077@AddRenderI
$LN1075@AddRenderI:
  004b7	1b c0		 sbb	 eax, eax
  004b9	83 d8 ff	 sbb	 eax, -1
$LN1077@AddRenderI:
  004bc	3b c3		 cmp	 eax, ebx
  004be	75 45		 jne	 SHORT $LN1045@AddRenderI

; 106  : 	{
; 107  : 		SAFEDELETE( m_pBottomEdge );

  004c0	8b 45 e8	 mov	 eax, DWORD PTR _this$GSCopy$[ebp]
  004c3	8b 88 7c 01 00
	00		 mov	 ecx, DWORD PTR [eax+380]
  004c9	3b cb		 cmp	 ecx, ebx
  004cb	74 12		 je	 SHORT $LN1086@AddRenderI
  004cd	8b 01		 mov	 eax, DWORD PTR [ecx]
  004cf	6a 01		 push	 1
  004d1	ff 50 40	 call	 DWORD PTR [eax+64]
  004d4	8b 75 e8	 mov	 esi, DWORD PTR _this$GSCopy$[ebp]
  004d7	89 9e 7c 01 00
	00		 mov	 DWORD PTR [esi+380], ebx
  004dd	eb 02		 jmp	 SHORT $LN5@AddRenderI
$LN1086@AddRenderI:
  004df	8b f0		 mov	 esi, eax
$LN5@AddRenderI:

; 108  : 		m_pBottomEdge = pImage;

  004e1	8b 4d e4	 mov	 ecx, DWORD PTR _pImage$GSCopy$[ebp]

; 109  : 		m_pBottomEdge->SetHorzFormatting( ioUIRenderImage::HF_STRETCH );

  004e4	6a 03		 push	 3
  004e6	89 8e 7c 01 00
	00		 mov	 DWORD PTR [esi+380], ecx
  004ec	ff 15 00 00 00
	00		 call	 DWORD PTR __imp_?SetHorzFormatting@ioUIRenderImage@@QAEXW4HorzFormatting@1@@Z

; 110  : 		m_pBottomEdge->SetVertFormatting( ioUIRenderImage::VF_STRETCH );

  004f2	8b 8e 7c 01 00
	00		 mov	 ecx, DWORD PTR [esi+380]
$LN1099@AddRenderI:
  004f8	6a 03		 push	 3
  004fa	ff 15 00 00 00
	00		 call	 DWORD PTR __imp_?SetVertFormatting@ioUIRenderImage@@QAEXW4VertFormatting@1@@Z
  00500	e9 ac 00 00 00	 jmp	 $LN1@AddRenderI
$LN1045@AddRenderI:

; 111  : 	}
; 112  : 	else if( szType == "BottomRight" )

  00505	6a 02		 push	 2
  00507	c7 45 ec af 83
	9f 9e		 mov	 DWORD PTR __t$508959[ebp], -1633713233 ; 9e9f83afH
  0050e	c7 45 f0 82 81
	b9 83		 mov	 DWORD PTR __t$508959[ebp+4], -2084994686 ; 83b98182H
  00515	8d 45 ec	 lea	 eax, DWORD PTR __t$508959[ebp]
  00518	c7 45 f4 8a 84
	9f 00		 mov	 DWORD PTR __t$508959[ebp+8], 10454154 ; 009f848aH
  0051f	59		 pop	 ecx
$LL999@AddRenderI:
  00520	31 38		 xor	 DWORD PTR [eax], edi
  00522	83 c0 04	 add	 eax, 4
  00525	49		 dec	 ecx
  00526	75 f8		 jne	 SHORT $LL999@AddRenderI
  00528	6a 08		 push	 8
  0052a	58		 pop	 eax
$LL996@AddRenderI:
  0052b	8b c8		 mov	 ecx, eax
  0052d	81 e1 03 00 00
	80		 and	 ecx, -2147483645	; 80000003H
  00533	79 05		 jns	 SHORT $LN1098@AddRenderI
  00535	49		 dec	 ecx
  00536	83 c9 fc	 or	 ecx, -4			; fffffffcH
  00539	41		 inc	 ecx
$LN1098@AddRenderI:
  0053a	b2 ed		 mov	 dl, -19			; ffffffedH
  0053c	2a d1		 sub	 dl, cl
  0053e	30 54 05 ec	 xor	 BYTE PTR __t$508959[ebp+eax], dl
  00542	40		 inc	 eax
  00543	83 f8 0b	 cmp	 eax, 11			; 0000000bH
  00546	7c e3		 jl	 SHORT $LL996@AddRenderI
  00548	8b 4d e0	 mov	 ecx, DWORD PTR _szType$GSCopy$[ebp]
  0054b	8d 75 ec	 lea	 esi, DWORD PTR __t$508959[ebp]
  0054e	ff 15 00 00 00
	00		 call	 DWORD PTR __imp_?c_str@ioHashString@@QBEPBDXZ
$LL1078@AddRenderI:
  00554	8a 08		 mov	 cl, BYTE PTR [eax]
  00556	3a 0e		 cmp	 cl, BYTE PTR [esi]
  00558	75 1a		 jne	 SHORT $LN1079@AddRenderI
  0055a	3a cb		 cmp	 cl, bl
  0055c	74 12		 je	 SHORT $LN1080@AddRenderI
  0055e	8a 48 01	 mov	 cl, BYTE PTR [eax+1]
  00561	3a 4e 01	 cmp	 cl, BYTE PTR [esi+1]
  00564	75 0e		 jne	 SHORT $LN1079@AddRenderI
  00566	83 c0 02	 add	 eax, 2
  00569	83 c6 02	 add	 esi, 2
  0056c	3a cb		 cmp	 cl, bl
  0056e	75 e4		 jne	 SHORT $LL1078@AddRenderI
$LN1080@AddRenderI:
  00570	33 c0		 xor	 eax, eax
  00572	eb 05		 jmp	 SHORT $LN1081@AddRenderI
$LN1079@AddRenderI:
  00574	1b c0		 sbb	 eax, eax
  00576	83 d8 ff	 sbb	 eax, -1
$LN1081@AddRenderI:
  00579	3b c3		 cmp	 eax, ebx
  0057b	75 25		 jne	 SHORT $LN3@AddRenderI

; 113  : 	{
; 114  : 		SAFEDELETE( m_pBottomRight );

  0057d	8b 75 e8	 mov	 esi, DWORD PTR _this$GSCopy$[ebp]
  00580	8b 8e 80 01 00
	00		 mov	 ecx, DWORD PTR [esi+384]
  00586	3b cb		 cmp	 ecx, ebx
  00588	74 0d		 je	 SHORT $LN2@AddRenderI
  0058a	8b 01		 mov	 eax, DWORD PTR [ecx]
  0058c	6a 01		 push	 1
  0058e	ff 50 40	 call	 DWORD PTR [eax+64]
  00591	89 9e 80 01 00
	00		 mov	 DWORD PTR [esi+384], ebx
$LN2@AddRenderI:

; 115  : 		m_pBottomRight = pImage;

  00597	8b 45 e4	 mov	 eax, DWORD PTR _pImage$GSCopy$[ebp]
  0059a	89 86 80 01 00
	00		 mov	 DWORD PTR [esi+384], eax

; 116  : 	}
; 117  : 	else

  005a0	eb 0f		 jmp	 SHORT $LN1@AddRenderI
$LN3@AddRenderI:

; 118  : 	{
; 119  : 		ioWnd::AddRenderImage( szType, pImage );

  005a2	ff 75 e4	 push	 DWORD PTR _pImage$GSCopy$[ebp]
  005a5	8b 4d e8	 mov	 ecx, DWORD PTR _this$GSCopy$[ebp]
  005a8	ff 75 e0	 push	 DWORD PTR _szType$GSCopy$[ebp]
  005ab	ff 15 00 00 00
	00		 call	 DWORD PTR __imp_?AddRenderImage@ioWnd@@UAEXABVioHashString@@PAVioUIRenderImage@@@Z
$LN1@AddRenderI:

; 120  : 	}
; 121  : }

  005b1	8b 4d fc	 mov	 ecx, DWORD PTR __$ArrayPad$[ebp]
  005b4	5f		 pop	 edi
  005b5	5e		 pop	 esi
  005b6	33 cd		 xor	 ecx, ebp
  005b8	5b		 pop	 ebx
  005b9	e8 00 00 00 00	 call	 @__security_check_cookie@4
  005be	c9		 leave
  005bf	c2 08 00	 ret	 8
?AddRenderImage@TooltipHelpWnd@@UAEXABVioHashString@@PAVioUIRenderImage@@@Z ENDP ; TooltipHelpWnd::AddRenderImage
_TEXT	ENDS
PUBLIC	?OnRenderLeftTop@TooltipHelpWnd@@IAEXHHHH@Z	; TooltipHelpWnd::OnRenderLeftTop
EXTRN	__imp_?GetWidth@ioUIRenderElement@@QBEHXZ:PROC
EXTRN	__imp_?GetHeight@ioUIRenderElement@@QBEHXZ:PROC
EXTRN	__imp_?SetReverseFormatting@ioUIRenderImage@@QAEXW4ReverseFormatting@1@@Z:PROC
; Function compile flags: /Ogsp
;	COMDAT ?OnRenderLeftTop@TooltipHelpWnd@@IAEXHHHH@Z
_TEXT	SEGMENT
tv488 = -20						; size = 4
tv521 = -16						; size = 4
tv501 = -16						; size = 4
tv509 = -12						; size = 4
tv490 = -8						; size = 4
tv540 = -4						; size = 4
tv489 = -4						; size = 4
_iAxisXPos$ = 8						; size = 4
tv581 = 12						; size = 4
_iAxisYPos$ = 12					; size = 4
_iWidth$ = 16						; size = 4
_iHeight$ = 20						; size = 4
?OnRenderLeftTop@TooltipHelpWnd@@IAEXHHHH@Z PROC	; TooltipHelpWnd::OnRenderLeftTop, COMDAT
; _this$ = ecx

; 230  : {

  00000	55		 push	 ebp
  00001	8b ec		 mov	 ebp, esp
  00003	83 ec 14	 sub	 esp, 20			; 00000014H
  00006	56		 push	 esi
  00007	8b f1		 mov	 esi, ecx

; 231  : 	if( IsResourceNULL() ) return;

  00009	e8 00 00 00 00	 call	 ?IsResourceNULL@TooltipHelpWnd@@IAE_NXZ ; TooltipHelpWnd::IsResourceNULL
  0000e	84 c0		 test	 al, al
  00010	0f 85 d0 02 00
	00		 jne	 $LN2@OnRenderLe

; 232  : 	
; 233  : 	// 
; 234  : 	m_pTopLeft->SetReverseFormatting( ioUIRenderImage::RF_NONE_REVERSE );

  00016	8b 8e 60 01 00
	00		 mov	 ecx, DWORD PTR [esi+352]
  0001c	53		 push	 ebx
  0001d	57		 push	 edi
  0001e	33 ff		 xor	 edi, edi
  00020	57		 push	 edi
  00021	ff 15 00 00 00
	00		 call	 DWORD PTR __imp_?SetReverseFormatting@ioUIRenderImage@@QAEXW4ReverseFormatting@1@@Z

; 235  : 	m_pTopLeft->Render( iAxisXPos, iAxisYPos - iHeight );

  00027	8b 8e 60 01 00
	00		 mov	 ecx, DWORD PTR [esi+352]
  0002d	8b 45 0c	 mov	 eax, DWORD PTR _iAxisYPos$[ebp]
  00030	2b 45 14	 sub	 eax, DWORD PTR _iHeight$[ebp]
  00033	66 0f 6e 4d 08	 movd	 xmm1, DWORD PTR _iAxisXPos$[ebp]
  00038	57		 push	 edi
  00039	57		 push	 edi
  0003a	57		 push	 edi
  0003b	57		 push	 edi
  0003c	51		 push	 ecx
  0003d	51		 push	 ecx
  0003e	0f 57 c0	 xorps	 xmm0, xmm0
  00041	f3 0f 2a c0	 cvtsi2ss xmm0, eax
  00045	89 45 ec	 mov	 DWORD PTR tv488[ebp], eax
  00048	8b 01		 mov	 eax, DWORD PTR [ecx]
  0004a	0f 5b c9	 cvtdq2ps xmm1, xmm1
  0004d	f3 0f 11 44 24
	04		 movss	 DWORD PTR [esp+4], xmm0
  00053	f3 0f 11 45 fc	 movss	 DWORD PTR tv489[ebp], xmm0
  00058	f3 0f 11 4d f8	 movss	 DWORD PTR tv490[ebp], xmm1
  0005d	f3 0f 11 0c 24	 movss	 DWORD PTR [esp], xmm1
  00062	ff 10		 call	 DWORD PTR [eax]

; 236  : 
; 237  : 	m_pTopEdge->SetReverseFormatting( ioUIRenderImage::RF_NONE_REVERSE );

  00064	8b 8e 64 01 00
	00		 mov	 ecx, DWORD PTR [esi+356]
  0006a	57		 push	 edi
  0006b	ff 15 00 00 00
	00		 call	 DWORD PTR __imp_?SetReverseFormatting@ioUIRenderImage@@QAEXW4ReverseFormatting@1@@Z

; 238  : 	m_pTopEdge->SetSize( iWidth - 30, m_pTopEdge->GetHeight() );

  00071	8b 86 64 01 00
	00		 mov	 eax, DWORD PTR [esi+356]
  00077	8b 18		 mov	 ebx, DWORD PTR [eax]
  00079	8b 45 10	 mov	 eax, DWORD PTR _iWidth$[ebp]
  0007c	8b 8e 64 01 00
	00		 mov	 ecx, DWORD PTR [esi+356]
  00082	83 c0 e2	 add	 eax, -30		; ffffffe2H
  00085	89 45 f0	 mov	 DWORD PTR tv501[ebp], eax
  00088	ff 15 00 00 00
	00		 call	 DWORD PTR __imp_?GetHeight@ioUIRenderElement@@QBEHXZ
  0008e	8b 8e 64 01 00
	00		 mov	 ecx, DWORD PTR [esi+356]
  00094	50		 push	 eax
  00095	ff 75 f0	 push	 DWORD PTR tv501[ebp]
  00098	ff 53 10	 call	 DWORD PTR [ebx+16]

; 239  : 	m_pTopEdge->Render( iAxisXPos + 15, iAxisYPos - iHeight );

  0009b	8b 8e 64 01 00
	00		 mov	 ecx, DWORD PTR [esi+356]
  000a1	8b 45 08	 mov	 eax, DWORD PTR _iAxisXPos$[ebp]
  000a4	f3 0f 10 4d fc	 movss	 xmm1, DWORD PTR tv489[ebp]
  000a9	57		 push	 edi
  000aa	57		 push	 edi
  000ab	57		 push	 edi
  000ac	57		 push	 edi
  000ad	83 c0 0f	 add	 eax, 15			; 0000000fH
  000b0	51		 push	 ecx
  000b1	51		 push	 ecx
  000b2	0f 57 c0	 xorps	 xmm0, xmm0
  000b5	f3 0f 2a c0	 cvtsi2ss xmm0, eax
  000b9	8b 01		 mov	 eax, DWORD PTR [ecx]
  000bb	f3 0f 11 4c 24
	04		 movss	 DWORD PTR [esp+4], xmm1
  000c1	f3 0f 11 45 f4	 movss	 DWORD PTR tv509[ebp], xmm0
  000c6	f3 0f 11 04 24	 movss	 DWORD PTR [esp], xmm0
  000cb	ff 10		 call	 DWORD PTR [eax]

; 240  : 	
; 241  : 	m_pTopRight->SetReverseFormatting( ioUIRenderImage::RF_NONE_REVERSE );

  000cd	8b 8e 68 01 00
	00		 mov	 ecx, DWORD PTR [esi+360]
  000d3	57		 push	 edi
  000d4	ff 15 00 00 00
	00		 call	 DWORD PTR __imp_?SetReverseFormatting@ioUIRenderImage@@QAEXW4ReverseFormatting@1@@Z

; 242  : 	m_pTopRight->Render( iAxisXPos + ( iWidth - 15 ), iAxisYPos - iHeight );

  000da	8b 4d 10	 mov	 ecx, DWORD PTR _iWidth$[ebp]
  000dd	8b 45 08	 mov	 eax, DWORD PTR _iAxisXPos$[ebp]
  000e0	8b 9e 68 01 00
	00		 mov	 ebx, DWORD PTR [esi+360]
  000e6	f3 0f 10 4d fc	 movss	 xmm1, DWORD PTR tv489[ebp]
  000eb	57		 push	 edi
  000ec	57		 push	 edi
  000ed	57		 push	 edi
  000ee	57		 push	 edi
  000ef	8d 44 08 f1	 lea	 eax, DWORD PTR [eax+ecx-15]
  000f3	51		 push	 ecx
  000f4	51		 push	 ecx
  000f5	0f 57 c0	 xorps	 xmm0, xmm0
  000f8	f3 0f 2a c0	 cvtsi2ss xmm0, eax
  000fc	8b 03		 mov	 eax, DWORD PTR [ebx]
  000fe	f3 0f 11 4c 24
	04		 movss	 DWORD PTR [esp+4], xmm1
  00104	8b cb		 mov	 ecx, ebx
  00106	f3 0f 11 45 f0	 movss	 DWORD PTR tv521[ebp], xmm0
  0010b	f3 0f 11 04 24	 movss	 DWORD PTR [esp], xmm0
  00110	ff 10		 call	 DWORD PTR [eax]

; 243  : 
; 244  : 	// 
; 245  : 	m_pLeftEdge->SetReverseFormatting( ioUIRenderImage::RF_NONE_REVERSE );

  00112	8b 8e 6c 01 00
	00		 mov	 ecx, DWORD PTR [esi+364]
  00118	57		 push	 edi
  00119	ff 15 00 00 00
	00		 call	 DWORD PTR __imp_?SetReverseFormatting@ioUIRenderImage@@QAEXW4ReverseFormatting@1@@Z

; 246  : 	m_pLeftEdge->SetSize( m_pLeftEdge->GetWidth(), iHeight - 30 );

  0011f	8b 86 6c 01 00
	00		 mov	 eax, DWORD PTR [esi+364]
  00125	8b 18		 mov	 ebx, DWORD PTR [eax]
  00127	8b 45 14	 mov	 eax, DWORD PTR _iHeight$[ebp]
  0012a	8b 8e 6c 01 00
	00		 mov	 ecx, DWORD PTR [esi+364]
  00130	83 c0 e2	 add	 eax, -30		; ffffffe2H
  00133	50		 push	 eax
  00134	ff 15 00 00 00
	00		 call	 DWORD PTR __imp_?GetWidth@ioUIRenderElement@@QBEHXZ
  0013a	8b 8e 6c 01 00
	00		 mov	 ecx, DWORD PTR [esi+364]
  00140	50		 push	 eax
  00141	ff 53 10	 call	 DWORD PTR [ebx+16]

; 247  : 	m_pLeftEdge->Render( iAxisXPos, iAxisYPos - ( iHeight - 15 ) );

  00144	8b 8e 6c 01 00
	00		 mov	 ecx, DWORD PTR [esi+364]
  0014a	8b 45 ec	 mov	 eax, DWORD PTR tv488[ebp]
  0014d	57		 push	 edi
  0014e	57		 push	 edi
  0014f	57		 push	 edi
  00150	57		 push	 edi
  00151	83 c0 0f	 add	 eax, 15			; 0000000fH
  00154	51		 push	 ecx
  00155	0f 57 c0	 xorps	 xmm0, xmm0
  00158	f3 0f 2a c0	 cvtsi2ss xmm0, eax
  0015c	8b 01		 mov	 eax, DWORD PTR [ecx]
  0015e	51		 push	 ecx
  0015f	f3 0f 11 44 24
	04		 movss	 DWORD PTR [esp+4], xmm0
  00165	f3 0f 11 45 fc	 movss	 DWORD PTR tv540[ebp], xmm0
  0016a	f3 0f 10 45 f8	 movss	 xmm0, DWORD PTR tv490[ebp]
  0016f	f3 0f 11 04 24	 movss	 DWORD PTR [esp], xmm0
  00174	ff 10		 call	 DWORD PTR [eax]

; 248  : 
; 249  : 	m_pCenter->SetSize( iWidth - 30, iHeight - 30 );

  00176	8b 45 14	 mov	 eax, DWORD PTR _iHeight$[ebp]
  00179	8b 8e 70 01 00
	00		 mov	 ecx, DWORD PTR [esi+368]
  0017f	8b 11		 mov	 edx, DWORD PTR [ecx]
  00181	83 c0 e2	 add	 eax, -30		; ffffffe2H
  00184	50		 push	 eax
  00185	8b 45 10	 mov	 eax, DWORD PTR _iWidth$[ebp]
  00188	83 c0 e2	 add	 eax, -30		; ffffffe2H
  0018b	50		 push	 eax
  0018c	ff 52 10	 call	 DWORD PTR [edx+16]

; 250  : 	m_pCenter->Render( iAxisXPos + 15, iAxisYPos - ( iHeight - 15 ) );

  0018f	8b 9e 70 01 00
	00		 mov	 ebx, DWORD PTR [esi+368]
  00195	f3 0f 10 45 fc	 movss	 xmm0, DWORD PTR tv540[ebp]
  0019a	8b 03		 mov	 eax, DWORD PTR [ebx]
  0019c	57		 push	 edi
  0019d	57		 push	 edi
  0019e	57		 push	 edi
  0019f	57		 push	 edi
  001a0	51		 push	 ecx
  001a1	51		 push	 ecx
  001a2	f3 0f 11 44 24
	04		 movss	 DWORD PTR [esp+4], xmm0
  001a8	f3 0f 10 45 f4	 movss	 xmm0, DWORD PTR tv509[ebp]
  001ad	8b cb		 mov	 ecx, ebx
  001af	f3 0f 11 04 24	 movss	 DWORD PTR [esp], xmm0
  001b4	ff 10		 call	 DWORD PTR [eax]

; 251  : 
; 252  : 	m_pRightEdge->SetReverseFormatting( ioUIRenderImage::RF_NONE_REVERSE );

  001b6	8b 8e 74 01 00
	00		 mov	 ecx, DWORD PTR [esi+372]
  001bc	57		 push	 edi
  001bd	ff 15 00 00 00
	00		 call	 DWORD PTR __imp_?SetReverseFormatting@ioUIRenderImage@@QAEXW4ReverseFormatting@1@@Z

; 253  : 	m_pRightEdge->SetSize( m_pRightEdge->GetWidth(), iHeight - 30 );

  001c3	8b 86 74 01 00
	00		 mov	 eax, DWORD PTR [esi+372]
  001c9	8b 18		 mov	 ebx, DWORD PTR [eax]
  001cb	8b 45 14	 mov	 eax, DWORD PTR _iHeight$[ebp]
  001ce	8b 8e 74 01 00
	00		 mov	 ecx, DWORD PTR [esi+372]
  001d4	83 c0 e2	 add	 eax, -30		; ffffffe2H
  001d7	50		 push	 eax
  001d8	ff 15 00 00 00
	00		 call	 DWORD PTR __imp_?GetWidth@ioUIRenderElement@@QBEHXZ
  001de	8b 8e 74 01 00
	00		 mov	 ecx, DWORD PTR [esi+372]
  001e4	50		 push	 eax
  001e5	ff 53 10	 call	 DWORD PTR [ebx+16]

; 254  : 	m_pRightEdge->Render( iAxisXPos + ( iWidth - 15), iAxisYPos - ( iHeight - 15 ) );

  001e8	8b 8e 74 01 00
	00		 mov	 ecx, DWORD PTR [esi+372]
  001ee	f3 0f 10 45 fc	 movss	 xmm0, DWORD PTR tv540[ebp]
  001f3	8b 01		 mov	 eax, DWORD PTR [ecx]
  001f5	57		 push	 edi
  001f6	57		 push	 edi
  001f7	57		 push	 edi
  001f8	57		 push	 edi
  001f9	51		 push	 ecx
  001fa	51		 push	 ecx
  001fb	f3 0f 11 44 24
	04		 movss	 DWORD PTR [esp+4], xmm0
  00201	f3 0f 10 45 f0	 movss	 xmm0, DWORD PTR tv521[ebp]
  00206	f3 0f 11 04 24	 movss	 DWORD PTR [esp], xmm0
  0020b	ff 10		 call	 DWORD PTR [eax]

; 255  : 
; 256  : 	// 
; 257  : 	m_pBottomLeft->SetReverseFormatting( ioUIRenderImage::RF_NONE_REVERSE );

  0020d	8b 8e 78 01 00
	00		 mov	 ecx, DWORD PTR [esi+376]
  00213	57		 push	 edi
  00214	ff 15 00 00 00
	00		 call	 DWORD PTR __imp_?SetReverseFormatting@ioUIRenderImage@@QAEXW4ReverseFormatting@1@@Z

; 258  : 	m_pBottomLeft->Render( iAxisXPos, iAxisYPos - 15 );

  0021a	8b 8e 78 01 00
	00		 mov	 ecx, DWORD PTR [esi+376]
  00220	8b 45 0c	 mov	 eax, DWORD PTR _iAxisYPos$[ebp]
  00223	57		 push	 edi
  00224	57		 push	 edi
  00225	57		 push	 edi
  00226	57		 push	 edi
  00227	83 c0 f1	 add	 eax, -15		; fffffff1H
  0022a	51		 push	 ecx
  0022b	0f 57 c0	 xorps	 xmm0, xmm0
  0022e	f3 0f 2a c0	 cvtsi2ss xmm0, eax
  00232	8b 01		 mov	 eax, DWORD PTR [ecx]
  00234	51		 push	 ecx
  00235	f3 0f 11 44 24
	04		 movss	 DWORD PTR [esp+4], xmm0
  0023b	f3 0f 11 45 0c	 movss	 DWORD PTR tv581[ebp], xmm0
  00240	f3 0f 10 45 f8	 movss	 xmm0, DWORD PTR tv490[ebp]
  00245	f3 0f 11 04 24	 movss	 DWORD PTR [esp], xmm0
  0024a	ff 10		 call	 DWORD PTR [eax]

; 259  : 
; 260  : 	m_pBottomEdge->SetReverseFormatting( ioUIRenderImage::RF_NONE_REVERSE );

  0024c	8b 8e 7c 01 00
	00		 mov	 ecx, DWORD PTR [esi+380]
  00252	57		 push	 edi
  00253	ff 15 00 00 00
	00		 call	 DWORD PTR __imp_?SetReverseFormatting@ioUIRenderImage@@QAEXW4ReverseFormatting@1@@Z

; 261  : 	m_pBottomEdge->SetSize( iWidth - 30, m_pBottomEdge->GetHeight() );

  00259	8b 86 7c 01 00
	00		 mov	 eax, DWORD PTR [esi+380]
  0025f	8b 18		 mov	 ebx, DWORD PTR [eax]
  00261	8b c8		 mov	 ecx, eax
  00263	ff 15 00 00 00
	00		 call	 DWORD PTR __imp_?GetHeight@ioUIRenderElement@@QBEHXZ
  00269	8b 8e 7c 01 00
	00		 mov	 ecx, DWORD PTR [esi+380]
  0026f	50		 push	 eax
  00270	8b 45 10	 mov	 eax, DWORD PTR _iWidth$[ebp]
  00273	83 c0 e2	 add	 eax, -30		; ffffffe2H
  00276	50		 push	 eax
  00277	ff 53 10	 call	 DWORD PTR [ebx+16]

; 262  : 	m_pBottomEdge->Render( iAxisXPos + 15, iAxisYPos - 15 );

  0027a	8b 8e 7c 01 00
	00		 mov	 ecx, DWORD PTR [esi+380]
  00280	f3 0f 10 45 0c	 movss	 xmm0, DWORD PTR tv581[ebp]
  00285	8b 01		 mov	 eax, DWORD PTR [ecx]
  00287	57		 push	 edi
  00288	57		 push	 edi
  00289	57		 push	 edi
  0028a	57		 push	 edi
  0028b	51		 push	 ecx
  0028c	51		 push	 ecx
  0028d	f3 0f 11 44 24
	04		 movss	 DWORD PTR [esp+4], xmm0
  00293	f3 0f 10 45 f4	 movss	 xmm0, DWORD PTR tv509[ebp]
  00298	f3 0f 11 04 24	 movss	 DWORD PTR [esp], xmm0
  0029d	ff 10		 call	 DWORD PTR [eax]

; 263  : 
; 264  : 	m_pBottomRight->SetReverseFormatting( ioUIRenderImage::RF_NONE_REVERSE );

  0029f	8b 8e 80 01 00
	00		 mov	 ecx, DWORD PTR [esi+384]
  002a5	57		 push	 edi
  002a6	ff 15 00 00 00
	00		 call	 DWORD PTR __imp_?SetReverseFormatting@ioUIRenderImage@@QAEXW4ReverseFormatting@1@@Z

; 265  : 	m_pBottomRight->Render( iAxisXPos + ( iWidth - 15 ), iAxisYPos - 15 );

  002ac	8b 8e 80 01 00
	00		 mov	 ecx, DWORD PTR [esi+384]
  002b2	f3 0f 10 45 0c	 movss	 xmm0, DWORD PTR tv581[ebp]
  002b7	8b 01		 mov	 eax, DWORD PTR [ecx]
  002b9	57		 push	 edi
  002ba	57		 push	 edi
  002bb	57		 push	 edi
  002bc	57		 push	 edi
  002bd	51		 push	 ecx
  002be	51		 push	 ecx
  002bf	f3 0f 11 44 24
	04		 movss	 DWORD PTR [esp+4], xmm0
  002c5	f3 0f 10 45 f0	 movss	 xmm0, DWORD PTR tv521[ebp]
  002ca	f3 0f 11 04 24	 movss	 DWORD PTR [esp], xmm0
  002cf	ff 10		 call	 DWORD PTR [eax]

; 266  : 
; 267  : 	// 
; 268  : 	OnRenderPrintHelp( iAxisXPos, iAxisYPos - iHeight, iWidth, iHeight );

  002d1	ff 75 14	 push	 DWORD PTR _iHeight$[ebp]
  002d4	8b ce		 mov	 ecx, esi
  002d6	ff 75 10	 push	 DWORD PTR _iWidth$[ebp]
  002d9	ff 75 ec	 push	 DWORD PTR tv488[ebp]
  002dc	ff 75 08	 push	 DWORD PTR _iAxisXPos$[ebp]
  002df	e8 00 00 00 00	 call	 ?OnRenderPrintHelp@TooltipHelpWnd@@IAEXHHHH@Z ; TooltipHelpWnd::OnRenderPrintHelp
  002e4	5f		 pop	 edi
  002e5	5b		 pop	 ebx
$LN2@OnRenderLe:
  002e6	5e		 pop	 esi

; 269  : }

  002e7	c9		 leave
  002e8	c2 10 00	 ret	 16			; 00000010H
?OnRenderLeftTop@TooltipHelpWnd@@IAEXHHHH@Z ENDP	; TooltipHelpWnd::OnRenderLeftTop
_TEXT	ENDS
PUBLIC	?OnRenderRightTop@TooltipHelpWnd@@IAEXHHHH@Z	; TooltipHelpWnd::OnRenderRightTop
; Function compile flags: /Ogsp
;	COMDAT ?OnRenderRightTop@TooltipHelpWnd@@IAEXHHHH@Z
_TEXT	SEGMENT
tv522 = -28						; size = 4
tv520 = -24						; size = 4
tv626 = -20						; size = 4
tv553 = -20						; size = 4
tv542 = -16						; size = 4
tv523 = -12						; size = 4
tv521 = -8						; size = 4
tv534 = -4						; size = 4
tv613 = 8						; size = 4
tv572 = 8						; size = 4
_iAxisXPos$ = 8						; size = 4
_iAxisYPos$ = 12					; size = 4
_iWidth$ = 16						; size = 4
_iHeight$ = 20						; size = 4
?OnRenderRightTop@TooltipHelpWnd@@IAEXHHHH@Z PROC	; TooltipHelpWnd::OnRenderRightTop, COMDAT
; _this$ = ecx

; 272  : {

  00000	55		 push	 ebp
  00001	8b ec		 mov	 ebp, esp
  00003	83 ec 1c	 sub	 esp, 28			; 0000001cH
  00006	56		 push	 esi
  00007	8b f1		 mov	 esi, ecx

; 273  : 	if( IsResourceNULL() ) return;

  00009	e8 00 00 00 00	 call	 ?IsResourceNULL@TooltipHelpWnd@@IAE_NXZ ; TooltipHelpWnd::IsResourceNULL
  0000e	84 c0		 test	 al, al
  00010	0f 85 dd 02 00
	00		 jne	 $LN2@OnRenderRi

; 274  : 
; 275  : 	// 
; 276  : 	m_pTopLeft->SetReverseFormatting( ioUIRenderImage::RF_NONE_REVERSE );

  00016	8b 8e 60 01 00
	00		 mov	 ecx, DWORD PTR [esi+352]
  0001c	53		 push	 ebx
  0001d	57		 push	 edi
  0001e	33 ff		 xor	 edi, edi
  00020	57		 push	 edi
  00021	ff 15 00 00 00
	00		 call	 DWORD PTR __imp_?SetReverseFormatting@ioUIRenderImage@@QAEXW4ReverseFormatting@1@@Z

; 277  : 	m_pTopLeft->Render( iAxisXPos - iWidth, iAxisYPos - iHeight );

  00027	8b 8e 60 01 00
	00		 mov	 ecx, DWORD PTR [esi+352]
  0002d	8b 45 0c	 mov	 eax, DWORD PTR _iAxisYPos$[ebp]
  00030	2b 45 14	 sub	 eax, DWORD PTR _iHeight$[ebp]
  00033	8b 5d 08	 mov	 ebx, DWORD PTR _iAxisXPos$[ebp]
  00036	2b 5d 10	 sub	 ebx, DWORD PTR _iWidth$[ebp]
  00039	57		 push	 edi
  0003a	57		 push	 edi
  0003b	57		 push	 edi
  0003c	57		 push	 edi
  0003d	51		 push	 ecx
  0003e	51		 push	 ecx
  0003f	0f 57 c0	 xorps	 xmm0, xmm0
  00042	f3 0f 2a c0	 cvtsi2ss xmm0, eax
  00046	89 45 e8	 mov	 DWORD PTR tv520[ebp], eax
  00049	8b 01		 mov	 eax, DWORD PTR [ecx]
  0004b	0f 57 c9	 xorps	 xmm1, xmm1
  0004e	f3 0f 2a cb	 cvtsi2ss xmm1, ebx
  00052	f3 0f 11 44 24
	04		 movss	 DWORD PTR [esp+4], xmm0
  00058	f3 0f 11 45 f8	 movss	 DWORD PTR tv521[ebp], xmm0
  0005d	89 5d e4	 mov	 DWORD PTR tv522[ebp], ebx
  00060	f3 0f 11 4d f4	 movss	 DWORD PTR tv523[ebp], xmm1
  00065	f3 0f 11 0c 24	 movss	 DWORD PTR [esp], xmm1
  0006a	ff 10		 call	 DWORD PTR [eax]

; 278  : 
; 279  : 	m_pTopEdge->SetReverseFormatting( ioUIRenderImage::RF_NONE_REVERSE );

  0006c	8b 8e 64 01 00
	00		 mov	 ecx, DWORD PTR [esi+356]
  00072	57		 push	 edi
  00073	ff 15 00 00 00
	00		 call	 DWORD PTR __imp_?SetReverseFormatting@ioUIRenderImage@@QAEXW4ReverseFormatting@1@@Z

; 280  : 	m_pTopEdge->SetSize( iWidth - 30, m_pTopEdge->GetHeight() );

  00079	8b 86 64 01 00
	00		 mov	 eax, DWORD PTR [esi+356]
  0007f	8b 00		 mov	 eax, DWORD PTR [eax]
  00081	8b 8e 64 01 00
	00		 mov	 ecx, DWORD PTR [esi+356]
  00087	89 45 ec	 mov	 DWORD PTR tv626[ebp], eax
  0008a	8b 45 10	 mov	 eax, DWORD PTR _iWidth$[ebp]
  0008d	83 c0 e2	 add	 eax, -30		; ffffffe2H
  00090	89 45 fc	 mov	 DWORD PTR tv534[ebp], eax
  00093	ff 15 00 00 00
	00		 call	 DWORD PTR __imp_?GetHeight@ioUIRenderElement@@QBEHXZ
  00099	8b 8e 64 01 00
	00		 mov	 ecx, DWORD PTR [esi+356]
  0009f	50		 push	 eax
  000a0	ff 75 fc	 push	 DWORD PTR tv534[ebp]
  000a3	8b 45 ec	 mov	 eax, DWORD PTR tv626[ebp]
  000a6	ff 50 10	 call	 DWORD PTR [eax+16]

; 281  : 	m_pTopEdge->Render( iAxisXPos - ( iWidth - 15 ), iAxisYPos - iHeight );

  000a9	8b 8e 64 01 00
	00		 mov	 ecx, DWORD PTR [esi+356]
  000af	f3 0f 10 4d f8	 movss	 xmm1, DWORD PTR tv521[ebp]
  000b4	8b 01		 mov	 eax, DWORD PTR [ecx]
  000b6	57		 push	 edi
  000b7	57		 push	 edi
  000b8	57		 push	 edi
  000b9	57		 push	 edi
  000ba	51		 push	 ecx
  000bb	51		 push	 ecx
  000bc	83 c3 0f	 add	 ebx, 15			; 0000000fH
  000bf	0f 57 c0	 xorps	 xmm0, xmm0
  000c2	f3 0f 2a c3	 cvtsi2ss xmm0, ebx
  000c6	f3 0f 11 4c 24
	04		 movss	 DWORD PTR [esp+4], xmm1
  000cc	f3 0f 11 45 f0	 movss	 DWORD PTR tv542[ebp], xmm0
  000d1	f3 0f 11 04 24	 movss	 DWORD PTR [esp], xmm0
  000d6	ff 10		 call	 DWORD PTR [eax]

; 282  : 
; 283  : 	m_pTopRight->SetReverseFormatting( ioUIRenderImage::RF_NONE_REVERSE );

  000d8	8b 8e 68 01 00
	00		 mov	 ecx, DWORD PTR [esi+360]
  000de	57		 push	 edi
  000df	ff 15 00 00 00
	00		 call	 DWORD PTR __imp_?SetReverseFormatting@ioUIRenderImage@@QAEXW4ReverseFormatting@1@@Z

; 284  : 	m_pTopRight->Render( iAxisXPos - 15, iAxisYPos - iHeight );

  000e5	8b 45 08	 mov	 eax, DWORD PTR _iAxisXPos$[ebp]
  000e8	8b 9e 68 01 00
	00		 mov	 ebx, DWORD PTR [esi+360]
  000ee	f3 0f 10 4d f8	 movss	 xmm1, DWORD PTR tv521[ebp]
  000f3	57		 push	 edi
  000f4	57		 push	 edi
  000f5	57		 push	 edi
  000f6	57		 push	 edi
  000f7	51		 push	 ecx
  000f8	51		 push	 ecx
  000f9	83 c0 f1	 add	 eax, -15		; fffffff1H
  000fc	0f 57 c0	 xorps	 xmm0, xmm0
  000ff	f3 0f 2a c0	 cvtsi2ss xmm0, eax
  00103	8b 03		 mov	 eax, DWORD PTR [ebx]
  00105	f3 0f 11 4c 24
	04		 movss	 DWORD PTR [esp+4], xmm1
  0010b	f3 0f 11 45 ec	 movss	 DWORD PTR tv553[ebp], xmm0
  00110	f3 0f 11 04 24	 movss	 DWORD PTR [esp], xmm0
  00115	8b cb		 mov	 ecx, ebx
  00117	ff 10		 call	 DWORD PTR [eax]

; 285  : 
; 286  : 	// 
; 287  : 	m_pRightEdge->SetReverseFormatting( ioUIRenderImage::RF_HORZ_REVERSE );

  00119	8b 8e 74 01 00
	00		 mov	 ecx, DWORD PTR [esi+372]
  0011f	6a 01		 push	 1
  00121	ff 15 00 00 00
	00		 call	 DWORD PTR __imp_?SetReverseFormatting@ioUIRenderImage@@QAEXW4ReverseFormatting@1@@Z

; 288  : 	m_pRightEdge->SetSize( m_pRightEdge->GetWidth(), iHeight - 30 );

  00127	8b 86 74 01 00
	00		 mov	 eax, DWORD PTR [esi+372]
  0012d	8b 18		 mov	 ebx, DWORD PTR [eax]
  0012f	8b 45 14	 mov	 eax, DWORD PTR _iHeight$[ebp]
  00132	8b 8e 74 01 00
	00		 mov	 ecx, DWORD PTR [esi+372]
  00138	83 c0 e2	 add	 eax, -30		; ffffffe2H
  0013b	50		 push	 eax
  0013c	ff 15 00 00 00
	00		 call	 DWORD PTR __imp_?GetWidth@ioUIRenderElement@@QBEHXZ
  00142	8b 8e 74 01 00
	00		 mov	 ecx, DWORD PTR [esi+372]
  00148	50		 push	 eax
  00149	ff 53 10	 call	 DWORD PTR [ebx+16]

; 289  : 	m_pRightEdge->Render( iAxisXPos - iWidth, iAxisYPos - ( iHeight - 15 ) );

  0014c	8b 8e 74 01 00
	00		 mov	 ecx, DWORD PTR [esi+372]
  00152	8b 45 e8	 mov	 eax, DWORD PTR tv520[ebp]
  00155	57		 push	 edi
  00156	57		 push	 edi
  00157	57		 push	 edi
  00158	57		 push	 edi
  00159	83 c0 0f	 add	 eax, 15			; 0000000fH
  0015c	51		 push	 ecx
  0015d	0f 57 c0	 xorps	 xmm0, xmm0
  00160	f3 0f 2a c0	 cvtsi2ss xmm0, eax
  00164	8b 01		 mov	 eax, DWORD PTR [ecx]
  00166	51		 push	 ecx
  00167	f3 0f 11 44 24
	04		 movss	 DWORD PTR [esp+4], xmm0
  0016d	f3 0f 11 45 08	 movss	 DWORD PTR tv572[ebp], xmm0
  00172	f3 0f 10 45 f4	 movss	 xmm0, DWORD PTR tv523[ebp]
  00177	f3 0f 11 04 24	 movss	 DWORD PTR [esp], xmm0
  0017c	ff 10		 call	 DWORD PTR [eax]

; 290  : 
; 291  : 	m_pCenter->SetSize( iWidth - 30, iHeight - 30 );

  0017e	8b 45 14	 mov	 eax, DWORD PTR _iHeight$[ebp]
  00181	8b 8e 70 01 00
	00		 mov	 ecx, DWORD PTR [esi+368]
  00187	8b 11		 mov	 edx, DWORD PTR [ecx]
  00189	83 c0 e2	 add	 eax, -30		; ffffffe2H
  0018c	50		 push	 eax
  0018d	8b 45 10	 mov	 eax, DWORD PTR _iWidth$[ebp]
  00190	83 c0 e2	 add	 eax, -30		; ffffffe2H
  00193	50		 push	 eax
  00194	89 45 fc	 mov	 DWORD PTR tv534[ebp], eax
  00197	ff 52 10	 call	 DWORD PTR [edx+16]

; 292  : 	m_pCenter->Render( iAxisXPos - ( iWidth - 15 ), iAxisYPos - ( iHeight - 15 ) );

  0019a	8b 9e 70 01 00
	00		 mov	 ebx, DWORD PTR [esi+368]
  001a0	f3 0f 10 45 08	 movss	 xmm0, DWORD PTR tv572[ebp]
  001a5	8b 03		 mov	 eax, DWORD PTR [ebx]
  001a7	57		 push	 edi
  001a8	57		 push	 edi
  001a9	57		 push	 edi
  001aa	57		 push	 edi
  001ab	51		 push	 ecx
  001ac	51		 push	 ecx
  001ad	f3 0f 11 44 24
	04		 movss	 DWORD PTR [esp+4], xmm0
  001b3	f3 0f 10 45 f0	 movss	 xmm0, DWORD PTR tv542[ebp]
  001b8	8b cb		 mov	 ecx, ebx
  001ba	f3 0f 11 04 24	 movss	 DWORD PTR [esp], xmm0
  001bf	ff 10		 call	 DWORD PTR [eax]

; 293  : 
; 294  : 	m_pLeftEdge->SetReverseFormatting( ioUIRenderImage::RF_HORZ_REVERSE );

  001c1	8b 8e 6c 01 00
	00		 mov	 ecx, DWORD PTR [esi+364]
  001c7	6a 01		 push	 1
  001c9	ff 15 00 00 00
	00		 call	 DWORD PTR __imp_?SetReverseFormatting@ioUIRenderImage@@QAEXW4ReverseFormatting@1@@Z

; 295  : 	m_pLeftEdge->SetSize( m_pLeftEdge->GetWidth(), iHeight - 30 );

  001cf	8b 86 6c 01 00
	00		 mov	 eax, DWORD PTR [esi+364]
  001d5	8b 18		 mov	 ebx, DWORD PTR [eax]
  001d7	8b 45 14	 mov	 eax, DWORD PTR _iHeight$[ebp]
  001da	8b 8e 6c 01 00
	00		 mov	 ecx, DWORD PTR [esi+364]
  001e0	83 c0 e2	 add	 eax, -30		; ffffffe2H
  001e3	50		 push	 eax
  001e4	ff 15 00 00 00
	00		 call	 DWORD PTR __imp_?GetWidth@ioUIRenderElement@@QBEHXZ
  001ea	8b 8e 6c 01 00
	00		 mov	 ecx, DWORD PTR [esi+364]
  001f0	50		 push	 eax
  001f1	ff 53 10	 call	 DWORD PTR [ebx+16]

; 296  : 	m_pLeftEdge->Render( iAxisXPos - 15, iAxisYPos - ( iHeight - 15 ) );

  001f4	8b 8e 6c 01 00
	00		 mov	 ecx, DWORD PTR [esi+364]
  001fa	f3 0f 10 45 08	 movss	 xmm0, DWORD PTR tv572[ebp]
  001ff	8b 01		 mov	 eax, DWORD PTR [ecx]
  00201	57		 push	 edi
  00202	57		 push	 edi
  00203	57		 push	 edi
  00204	57		 push	 edi
  00205	51		 push	 ecx
  00206	51		 push	 ecx
  00207	f3 0f 11 44 24
	04		 movss	 DWORD PTR [esp+4], xmm0
  0020d	f3 0f 10 45 ec	 movss	 xmm0, DWORD PTR tv553[ebp]
  00212	f3 0f 11 04 24	 movss	 DWORD PTR [esp], xmm0
  00217	ff 10		 call	 DWORD PTR [eax]

; 297  : 
; 298  : 	// 
; 299  : 	m_pBottomRight->SetReverseFormatting( ioUIRenderImage::RF_HORZ_REVERSE );

  00219	8b 8e 80 01 00
	00		 mov	 ecx, DWORD PTR [esi+384]
  0021f	6a 01		 push	 1
  00221	ff 15 00 00 00
	00		 call	 DWORD PTR __imp_?SetReverseFormatting@ioUIRenderImage@@QAEXW4ReverseFormatting@1@@Z

; 300  : 	m_pBottomRight->Render( iAxisXPos - iWidth, iAxisYPos - 15 );

  00227	8b 45 0c	 mov	 eax, DWORD PTR _iAxisYPos$[ebp]
  0022a	8b 9e 80 01 00
	00		 mov	 ebx, DWORD PTR [esi+384]
  00230	57		 push	 edi
  00231	57		 push	 edi
  00232	57		 push	 edi
  00233	57		 push	 edi
  00234	51		 push	 ecx
  00235	83 c0 f1	 add	 eax, -15		; fffffff1H
  00238	51		 push	 ecx
  00239	0f 57 c0	 xorps	 xmm0, xmm0
  0023c	f3 0f 2a c0	 cvtsi2ss xmm0, eax
  00240	8b 03		 mov	 eax, DWORD PTR [ebx]
  00242	f3 0f 11 44 24
	04		 movss	 DWORD PTR [esp+4], xmm0
  00248	f3 0f 11 45 08	 movss	 DWORD PTR tv613[ebp], xmm0
  0024d	f3 0f 10 45 f4	 movss	 xmm0, DWORD PTR tv523[ebp]
  00252	8b cb		 mov	 ecx, ebx
  00254	f3 0f 11 04 24	 movss	 DWORD PTR [esp], xmm0
  00259	ff 10		 call	 DWORD PTR [eax]

; 301  : 
; 302  : 	m_pBottomEdge->SetReverseFormatting( ioUIRenderImage::RF_HORZ_REVERSE );

  0025b	8b 8e 7c 01 00
	00		 mov	 ecx, DWORD PTR [esi+380]
  00261	6a 01		 push	 1
  00263	ff 15 00 00 00
	00		 call	 DWORD PTR __imp_?SetReverseFormatting@ioUIRenderImage@@QAEXW4ReverseFormatting@1@@Z

; 303  : 	m_pBottomEdge->SetSize( iWidth - 30, m_pBottomEdge->GetHeight() );

  00269	8b 86 7c 01 00
	00		 mov	 eax, DWORD PTR [esi+380]
  0026f	8b 18		 mov	 ebx, DWORD PTR [eax]
  00271	8b c8		 mov	 ecx, eax
  00273	ff 15 00 00 00
	00		 call	 DWORD PTR __imp_?GetHeight@ioUIRenderElement@@QBEHXZ
  00279	8b 8e 7c 01 00
	00		 mov	 ecx, DWORD PTR [esi+380]
  0027f	50		 push	 eax
  00280	ff 75 fc	 push	 DWORD PTR tv534[ebp]
  00283	ff 53 10	 call	 DWORD PTR [ebx+16]

; 304  : 	m_pBottomEdge->Render( iAxisXPos - ( iWidth - 15 ), iAxisYPos - 15 );

  00286	8b 8e 7c 01 00
	00		 mov	 ecx, DWORD PTR [esi+380]
  0028c	f3 0f 10 45 08	 movss	 xmm0, DWORD PTR tv613[ebp]
  00291	8b 01		 mov	 eax, DWORD PTR [ecx]
  00293	57		 push	 edi
  00294	57		 push	 edi
  00295	57		 push	 edi
  00296	57		 push	 edi
  00297	51		 push	 ecx
  00298	51		 push	 ecx
  00299	f3 0f 11 44 24
	04		 movss	 DWORD PTR [esp+4], xmm0
  0029f	f3 0f 10 45 f0	 movss	 xmm0, DWORD PTR tv542[ebp]
  002a4	f3 0f 11 04 24	 movss	 DWORD PTR [esp], xmm0
  002a9	ff 10		 call	 DWORD PTR [eax]

; 305  : 
; 306  : 	m_pBottomLeft->SetReverseFormatting( ioUIRenderImage::RF_HORZ_REVERSE );

  002ab	8b 8e 78 01 00
	00		 mov	 ecx, DWORD PTR [esi+376]
  002b1	6a 01		 push	 1
  002b3	ff 15 00 00 00
	00		 call	 DWORD PTR __imp_?SetReverseFormatting@ioUIRenderImage@@QAEXW4ReverseFormatting@1@@Z

; 307  : 	m_pBottomLeft->Render( iAxisXPos - 15, iAxisYPos - 15 );

  002b9	8b 8e 78 01 00
	00		 mov	 ecx, DWORD PTR [esi+376]
  002bf	f3 0f 10 45 08	 movss	 xmm0, DWORD PTR tv613[ebp]
  002c4	8b 01		 mov	 eax, DWORD PTR [ecx]
  002c6	57		 push	 edi
  002c7	57		 push	 edi
  002c8	57		 push	 edi
  002c9	57		 push	 edi
  002ca	51		 push	 ecx
  002cb	51		 push	 ecx
  002cc	f3 0f 11 44 24
	04		 movss	 DWORD PTR [esp+4], xmm0
  002d2	f3 0f 10 45 ec	 movss	 xmm0, DWORD PTR tv553[ebp]
  002d7	f3 0f 11 04 24	 movss	 DWORD PTR [esp], xmm0
  002dc	ff 10		 call	 DWORD PTR [eax]

; 308  : 	
; 309  : 	// 
; 310  : 	OnRenderPrintHelp( iAxisXPos - iWidth, iAxisYPos - iHeight, iWidth, iHeight );

  002de	ff 75 14	 push	 DWORD PTR _iHeight$[ebp]
  002e1	8b ce		 mov	 ecx, esi
  002e3	ff 75 10	 push	 DWORD PTR _iWidth$[ebp]
  002e6	ff 75 e8	 push	 DWORD PTR tv520[ebp]
  002e9	ff 75 e4	 push	 DWORD PTR tv522[ebp]
  002ec	e8 00 00 00 00	 call	 ?OnRenderPrintHelp@TooltipHelpWnd@@IAEXHHHH@Z ; TooltipHelpWnd::OnRenderPrintHelp
  002f1	5f		 pop	 edi
  002f2	5b		 pop	 ebx
$LN2@OnRenderRi:
  002f3	5e		 pop	 esi

; 311  : }

  002f4	c9		 leave
  002f5	c2 10 00	 ret	 16			; 00000010H
?OnRenderRightTop@TooltipHelpWnd@@IAEXHHHH@Z ENDP	; TooltipHelpWnd::OnRenderRightTop
_TEXT	ENDS
PUBLIC	?OnRenderLeftBottom@TooltipHelpWnd@@IAEXHHHH@Z	; TooltipHelpWnd::OnRenderLeftBottom
; Function compile flags: /Ogsp
;	COMDAT ?OnRenderLeftBottom@TooltipHelpWnd@@IAEXHHHH@Z
_TEXT	SEGMENT
tv488 = -16						; size = 4
tv468 = -16						; size = 4
tv476 = -12						; size = 4
tv457 = -8						; size = 4
tv549 = -4						; size = 4
tv507 = -4						; size = 4
tv456 = -4						; size = 4
_iAxisXPos$ = 8						; size = 4
_iAxisYPos$ = 12					; size = 4
_iWidth$ = 16						; size = 4
_iHeight$ = 20						; size = 4
?OnRenderLeftBottom@TooltipHelpWnd@@IAEXHHHH@Z PROC	; TooltipHelpWnd::OnRenderLeftBottom, COMDAT
; _this$ = ecx

; 314  : {

  00000	55		 push	 ebp
  00001	8b ec		 mov	 ebp, esp
  00003	83 ec 10	 sub	 esp, 16			; 00000010H
  00006	56		 push	 esi
  00007	8b f1		 mov	 esi, ecx

; 315  : 	if( IsResourceNULL() ) return;

  00009	e8 00 00 00 00	 call	 ?IsResourceNULL@TooltipHelpWnd@@IAE_NXZ ; TooltipHelpWnd::IsResourceNULL
  0000e	84 c0		 test	 al, al
  00010	0f 85 d4 02 00
	00		 jne	 $LN2@OnRenderLe@2

; 316  : 
; 317  : 	// 
; 318  : 	m_pBottomLeft->SetReverseFormatting( ioUIRenderImage::RF_VERT_REVERSE );

  00016	8b 8e 78 01 00
	00		 mov	 ecx, DWORD PTR [esi+376]
  0001c	53		 push	 ebx
  0001d	57		 push	 edi
  0001e	6a 02		 push	 2
  00020	ff 15 00 00 00
	00		 call	 DWORD PTR __imp_?SetReverseFormatting@ioUIRenderImage@@QAEXW4ReverseFormatting@1@@Z

; 319  : 	m_pBottomLeft->Render( iAxisXPos, iAxisYPos );

  00026	8b 8e 78 01 00
	00		 mov	 ecx, DWORD PTR [esi+376]
  0002c	66 0f 6e 45 0c	 movd	 xmm0, DWORD PTR _iAxisYPos$[ebp]
  00031	66 0f 6e 4d 08	 movd	 xmm1, DWORD PTR _iAxisXPos$[ebp]
  00036	8b 01		 mov	 eax, DWORD PTR [ecx]
  00038	33 ff		 xor	 edi, edi
  0003a	57		 push	 edi
  0003b	57		 push	 edi
  0003c	57		 push	 edi
  0003d	57		 push	 edi
  0003e	51		 push	 ecx
  0003f	51		 push	 ecx
  00040	0f 5b c0	 cvtdq2ps xmm0, xmm0
  00043	0f 5b c9	 cvtdq2ps xmm1, xmm1
  00046	f3 0f 11 44 24
	04		 movss	 DWORD PTR [esp+4], xmm0
  0004c	f3 0f 11 45 fc	 movss	 DWORD PTR tv456[ebp], xmm0
  00051	f3 0f 11 4d f8	 movss	 DWORD PTR tv457[ebp], xmm1
  00056	f3 0f 11 0c 24	 movss	 DWORD PTR [esp], xmm1
  0005b	ff 10		 call	 DWORD PTR [eax]

; 320  : 
; 321  : 	m_pBottomEdge->SetReverseFormatting( ioUIRenderImage::RF_VERT_REVERSE );

  0005d	8b 8e 7c 01 00
	00		 mov	 ecx, DWORD PTR [esi+380]
  00063	6a 02		 push	 2
  00065	ff 15 00 00 00
	00		 call	 DWORD PTR __imp_?SetReverseFormatting@ioUIRenderImage@@QAEXW4ReverseFormatting@1@@Z

; 322  : 	m_pBottomEdge->SetSize( iWidth - 30, m_pBottomEdge->GetHeight() );

  0006b	8b 86 7c 01 00
	00		 mov	 eax, DWORD PTR [esi+380]
  00071	8b 18		 mov	 ebx, DWORD PTR [eax]
  00073	8b 45 10	 mov	 eax, DWORD PTR _iWidth$[ebp]
  00076	8b 8e 7c 01 00
	00		 mov	 ecx, DWORD PTR [esi+380]
  0007c	83 c0 e2	 add	 eax, -30		; ffffffe2H
  0007f	89 45 f0	 mov	 DWORD PTR tv468[ebp], eax
  00082	ff 15 00 00 00
	00		 call	 DWORD PTR __imp_?GetHeight@ioUIRenderElement@@QBEHXZ
  00088	8b 8e 7c 01 00
	00		 mov	 ecx, DWORD PTR [esi+380]
  0008e	50		 push	 eax
  0008f	ff 75 f0	 push	 DWORD PTR tv468[ebp]
  00092	ff 53 10	 call	 DWORD PTR [ebx+16]

; 323  : 	m_pBottomEdge->Render( iAxisXPos + 15, iAxisYPos );

  00095	8b 8e 7c 01 00
	00		 mov	 ecx, DWORD PTR [esi+380]
  0009b	8b 45 08	 mov	 eax, DWORD PTR _iAxisXPos$[ebp]
  0009e	f3 0f 10 4d fc	 movss	 xmm1, DWORD PTR tv456[ebp]
  000a3	57		 push	 edi
  000a4	57		 push	 edi
  000a5	57		 push	 edi
  000a6	57		 push	 edi
  000a7	83 c0 0f	 add	 eax, 15			; 0000000fH
  000aa	51		 push	 ecx
  000ab	51		 push	 ecx
  000ac	0f 57 c0	 xorps	 xmm0, xmm0
  000af	f3 0f 2a c0	 cvtsi2ss xmm0, eax
  000b3	8b 01		 mov	 eax, DWORD PTR [ecx]
  000b5	f3 0f 11 4c 24
	04		 movss	 DWORD PTR [esp+4], xmm1
  000bb	f3 0f 11 45 f4	 movss	 DWORD PTR tv476[ebp], xmm0
  000c0	f3 0f 11 04 24	 movss	 DWORD PTR [esp], xmm0
  000c5	ff 10		 call	 DWORD PTR [eax]

; 324  : 
; 325  : 	m_pBottomRight->SetReverseFormatting( ioUIRenderImage::RF_VERT_REVERSE );

  000c7	8b 8e 80 01 00
	00		 mov	 ecx, DWORD PTR [esi+384]
  000cd	6a 02		 push	 2
  000cf	ff 15 00 00 00
	00		 call	 DWORD PTR __imp_?SetReverseFormatting@ioUIRenderImage@@QAEXW4ReverseFormatting@1@@Z

; 326  : 	m_pBottomRight->Render( iAxisXPos + ( iWidth - 15 ), iAxisYPos );

  000d5	8b 4d 10	 mov	 ecx, DWORD PTR _iWidth$[ebp]
  000d8	8b 45 08	 mov	 eax, DWORD PTR _iAxisXPos$[ebp]
  000db	8b 9e 80 01 00
	00		 mov	 ebx, DWORD PTR [esi+384]
  000e1	f3 0f 10 4d fc	 movss	 xmm1, DWORD PTR tv456[ebp]
  000e6	57		 push	 edi
  000e7	57		 push	 edi
  000e8	57		 push	 edi
  000e9	57		 push	 edi
  000ea	8d 44 08 f1	 lea	 eax, DWORD PTR [eax+ecx-15]
  000ee	51		 push	 ecx
  000ef	51		 push	 ecx
  000f0	0f 57 c0	 xorps	 xmm0, xmm0
  000f3	f3 0f 2a c0	 cvtsi2ss xmm0, eax
  000f7	8b 03		 mov	 eax, DWORD PTR [ebx]
  000f9	f3 0f 11 4c 24
	04		 movss	 DWORD PTR [esp+4], xmm1
  000ff	8b cb		 mov	 ecx, ebx
  00101	f3 0f 11 45 f0	 movss	 DWORD PTR tv488[ebp], xmm0
  00106	f3 0f 11 04 24	 movss	 DWORD PTR [esp], xmm0
  0010b	ff 10		 call	 DWORD PTR [eax]

; 327  : 
; 328  : 	// 
; 329  : 	m_pLeftEdge->SetReverseFormatting( ioUIRenderImage::RF_NONE_REVERSE );

  0010d	8b 8e 6c 01 00
	00		 mov	 ecx, DWORD PTR [esi+364]
  00113	57		 push	 edi
  00114	ff 15 00 00 00
	00		 call	 DWORD PTR __imp_?SetReverseFormatting@ioUIRenderImage@@QAEXW4ReverseFormatting@1@@Z

; 330  : 	m_pLeftEdge->SetSize( m_pLeftEdge->GetWidth(), iHeight - 30 );

  0011a	8b 86 6c 01 00
	00		 mov	 eax, DWORD PTR [esi+364]
  00120	8b 18		 mov	 ebx, DWORD PTR [eax]
  00122	8b 45 14	 mov	 eax, DWORD PTR _iHeight$[ebp]
  00125	8b 8e 6c 01 00
	00		 mov	 ecx, DWORD PTR [esi+364]
  0012b	83 c0 e2	 add	 eax, -30		; ffffffe2H
  0012e	50		 push	 eax
  0012f	ff 15 00 00 00
	00		 call	 DWORD PTR __imp_?GetWidth@ioUIRenderElement@@QBEHXZ
  00135	8b 8e 6c 01 00
	00		 mov	 ecx, DWORD PTR [esi+364]
  0013b	50		 push	 eax
  0013c	ff 53 10	 call	 DWORD PTR [ebx+16]

; 331  : 	m_pLeftEdge->Render( iAxisXPos, iAxisYPos + 15 );

  0013f	8b 8e 6c 01 00
	00		 mov	 ecx, DWORD PTR [esi+364]
  00145	8b 45 0c	 mov	 eax, DWORD PTR _iAxisYPos$[ebp]
  00148	57		 push	 edi
  00149	57		 push	 edi
  0014a	57		 push	 edi
  0014b	57		 push	 edi
  0014c	83 c0 0f	 add	 eax, 15			; 0000000fH
  0014f	51		 push	 ecx
  00150	0f 57 c0	 xorps	 xmm0, xmm0
  00153	f3 0f 2a c0	 cvtsi2ss xmm0, eax
  00157	8b 01		 mov	 eax, DWORD PTR [ecx]
  00159	51		 push	 ecx
  0015a	f3 0f 11 44 24
	04		 movss	 DWORD PTR [esp+4], xmm0
  00160	f3 0f 11 45 fc	 movss	 DWORD PTR tv507[ebp], xmm0
  00165	f3 0f 10 45 f8	 movss	 xmm0, DWORD PTR tv457[ebp]
  0016a	f3 0f 11 04 24	 movss	 DWORD PTR [esp], xmm0
  0016f	ff 10		 call	 DWORD PTR [eax]

; 332  : 
; 333  : 	m_pCenter->SetSize( iWidth - 30, iHeight - 30 );

  00171	8b 45 14	 mov	 eax, DWORD PTR _iHeight$[ebp]
  00174	8b 8e 70 01 00
	00		 mov	 ecx, DWORD PTR [esi+368]
  0017a	8b 11		 mov	 edx, DWORD PTR [ecx]
  0017c	83 c0 e2	 add	 eax, -30		; ffffffe2H
  0017f	50		 push	 eax
  00180	8b 45 10	 mov	 eax, DWORD PTR _iWidth$[ebp]
  00183	83 c0 e2	 add	 eax, -30		; ffffffe2H
  00186	50		 push	 eax
  00187	ff 52 10	 call	 DWORD PTR [edx+16]

; 334  : 	m_pCenter->Render( iAxisXPos + 15, iAxisYPos + 15 );

  0018a	8b 9e 70 01 00
	00		 mov	 ebx, DWORD PTR [esi+368]
  00190	f3 0f 10 45 fc	 movss	 xmm0, DWORD PTR tv507[ebp]
  00195	8b 03		 mov	 eax, DWORD PTR [ebx]
  00197	57		 push	 edi
  00198	57		 push	 edi
  00199	57		 push	 edi
  0019a	57		 push	 edi
  0019b	51		 push	 ecx
  0019c	51		 push	 ecx
  0019d	f3 0f 11 44 24
	04		 movss	 DWORD PTR [esp+4], xmm0
  001a3	f3 0f 10 45 f4	 movss	 xmm0, DWORD PTR tv476[ebp]
  001a8	8b cb		 mov	 ecx, ebx
  001aa	f3 0f 11 04 24	 movss	 DWORD PTR [esp], xmm0
  001af	ff 10		 call	 DWORD PTR [eax]

; 335  : 
; 336  : 	m_pRightEdge->SetReverseFormatting( ioUIRenderImage::RF_NONE_REVERSE );

  001b1	8b 8e 74 01 00
	00		 mov	 ecx, DWORD PTR [esi+372]
  001b7	57		 push	 edi
  001b8	ff 15 00 00 00
	00		 call	 DWORD PTR __imp_?SetReverseFormatting@ioUIRenderImage@@QAEXW4ReverseFormatting@1@@Z

; 337  : 	m_pRightEdge->SetSize( m_pRightEdge->GetWidth(), iHeight - 30 );

  001be	8b 86 74 01 00
	00		 mov	 eax, DWORD PTR [esi+372]
  001c4	8b 18		 mov	 ebx, DWORD PTR [eax]
  001c6	8b 45 14	 mov	 eax, DWORD PTR _iHeight$[ebp]
  001c9	8b 8e 74 01 00
	00		 mov	 ecx, DWORD PTR [esi+372]
  001cf	83 c0 e2	 add	 eax, -30		; ffffffe2H
  001d2	50		 push	 eax
  001d3	ff 15 00 00 00
	00		 call	 DWORD PTR __imp_?GetWidth@ioUIRenderElement@@QBEHXZ
  001d9	8b 8e 74 01 00
	00		 mov	 ecx, DWORD PTR [esi+372]
  001df	50		 push	 eax
  001e0	ff 53 10	 call	 DWORD PTR [ebx+16]

; 338  : 	m_pRightEdge->Render( iAxisXPos + ( iWidth - 15), iAxisYPos + 15 );

  001e3	8b 8e 74 01 00
	00		 mov	 ecx, DWORD PTR [esi+372]
  001e9	f3 0f 10 45 fc	 movss	 xmm0, DWORD PTR tv507[ebp]
  001ee	8b 01		 mov	 eax, DWORD PTR [ecx]
  001f0	57		 push	 edi
  001f1	57		 push	 edi
  001f2	57		 push	 edi
  001f3	57		 push	 edi
  001f4	51		 push	 ecx
  001f5	51		 push	 ecx
  001f6	f3 0f 11 44 24
	04		 movss	 DWORD PTR [esp+4], xmm0
  001fc	f3 0f 10 45 f0	 movss	 xmm0, DWORD PTR tv488[ebp]
  00201	f3 0f 11 04 24	 movss	 DWORD PTR [esp], xmm0
  00206	ff 10		 call	 DWORD PTR [eax]

; 339  : 
; 340  : 	// 
; 341  : 	m_pTopLeft->SetReverseFormatting( ioUIRenderImage::RF_VERT_REVERSE );

  00208	8b 8e 60 01 00
	00		 mov	 ecx, DWORD PTR [esi+352]
  0020e	6a 02		 push	 2
  00210	ff 15 00 00 00
	00		 call	 DWORD PTR __imp_?SetReverseFormatting@ioUIRenderImage@@QAEXW4ReverseFormatting@1@@Z

; 342  : 	m_pTopLeft->Render( iAxisXPos, iAxisYPos + ( iHeight - 15 ) );

  00216	8b 45 0c	 mov	 eax, DWORD PTR _iAxisYPos$[ebp]
  00219	8b 4d 14	 mov	 ecx, DWORD PTR _iHeight$[ebp]
  0021c	8b 9e 60 01 00
	00		 mov	 ebx, DWORD PTR [esi+352]
  00222	8d 44 08 f1	 lea	 eax, DWORD PTR [eax+ecx-15]
  00226	57		 push	 edi
  00227	57		 push	 edi
  00228	57		 push	 edi
  00229	57		 push	 edi
  0022a	51		 push	 ecx
  0022b	51		 push	 ecx
  0022c	0f 57 c0	 xorps	 xmm0, xmm0
  0022f	f3 0f 2a c0	 cvtsi2ss xmm0, eax
  00233	8b 03		 mov	 eax, DWORD PTR [ebx]
  00235	f3 0f 11 44 24
	04		 movss	 DWORD PTR [esp+4], xmm0
  0023b	f3 0f 11 45 fc	 movss	 DWORD PTR tv549[ebp], xmm0
  00240	f3 0f 10 45 f8	 movss	 xmm0, DWORD PTR tv457[ebp]
  00245	8b cb		 mov	 ecx, ebx
  00247	f3 0f 11 04 24	 movss	 DWORD PTR [esp], xmm0
  0024c	ff 10		 call	 DWORD PTR [eax]

; 343  : 
; 344  : 	m_pTopEdge->SetReverseFormatting( ioUIRenderImage::RF_VERT_REVERSE );

  0024e	8b 8e 64 01 00
	00		 mov	 ecx, DWORD PTR [esi+356]
  00254	6a 02		 push	 2
  00256	ff 15 00 00 00
	00		 call	 DWORD PTR __imp_?SetReverseFormatting@ioUIRenderImage@@QAEXW4ReverseFormatting@1@@Z

; 345  : 	m_pTopEdge->SetSize( iWidth - 30, m_pTopEdge->GetHeight() );

  0025c	8b 86 64 01 00
	00		 mov	 eax, DWORD PTR [esi+356]
  00262	8b 18		 mov	 ebx, DWORD PTR [eax]
  00264	8b c8		 mov	 ecx, eax
  00266	ff 15 00 00 00
	00		 call	 DWORD PTR __imp_?GetHeight@ioUIRenderElement@@QBEHXZ
  0026c	8b 8e 64 01 00
	00		 mov	 ecx, DWORD PTR [esi+356]
  00272	50		 push	 eax
  00273	8b 45 10	 mov	 eax, DWORD PTR _iWidth$[ebp]
  00276	83 c0 e2	 add	 eax, -30		; ffffffe2H
  00279	50		 push	 eax
  0027a	ff 53 10	 call	 DWORD PTR [ebx+16]

; 346  : 	m_pTopEdge->Render( iAxisXPos + 15, iAxisYPos + ( iHeight - 15 ) );	

  0027d	8b 8e 64 01 00
	00		 mov	 ecx, DWORD PTR [esi+356]
  00283	f3 0f 10 45 fc	 movss	 xmm0, DWORD PTR tv549[ebp]
  00288	8b 01		 mov	 eax, DWORD PTR [ecx]
  0028a	57		 push	 edi
  0028b	57		 push	 edi
  0028c	57		 push	 edi
  0028d	57		 push	 edi
  0028e	51		 push	 ecx
  0028f	51		 push	 ecx
  00290	f3 0f 11 44 24
	04		 movss	 DWORD PTR [esp+4], xmm0
  00296	f3 0f 10 45 f4	 movss	 xmm0, DWORD PTR tv476[ebp]
  0029b	f3 0f 11 04 24	 movss	 DWORD PTR [esp], xmm0
  002a0	ff 10		 call	 DWORD PTR [eax]

; 347  : 
; 348  : 	m_pTopRight->SetReverseFormatting( ioUIRenderImage::RF_VERT_REVERSE );

  002a2	8b 8e 68 01 00
	00		 mov	 ecx, DWORD PTR [esi+360]
  002a8	6a 02		 push	 2
  002aa	ff 15 00 00 00
	00		 call	 DWORD PTR __imp_?SetReverseFormatting@ioUIRenderImage@@QAEXW4ReverseFormatting@1@@Z

; 349  : 	m_pTopRight->Render( iAxisXPos + ( iWidth - 15 ), iAxisYPos + ( iHeight - 15 ) );

  002b0	8b 8e 68 01 00
	00		 mov	 ecx, DWORD PTR [esi+360]
  002b6	f3 0f 10 45 fc	 movss	 xmm0, DWORD PTR tv549[ebp]
  002bb	8b 01		 mov	 eax, DWORD PTR [ecx]
  002bd	57		 push	 edi
  002be	57		 push	 edi
  002bf	57		 push	 edi
  002c0	57		 push	 edi
  002c1	51		 push	 ecx
  002c2	51		 push	 ecx
  002c3	f3 0f 11 44 24
	04		 movss	 DWORD PTR [esp+4], xmm0
  002c9	f3 0f 10 45 f0	 movss	 xmm0, DWORD PTR tv488[ebp]
  002ce	f3 0f 11 04 24	 movss	 DWORD PTR [esp], xmm0
  002d3	ff 10		 call	 DWORD PTR [eax]

; 350  : 
; 351  : 	// 
; 352  : 	OnRenderPrintHelp( iAxisXPos, iAxisYPos, iWidth, iHeight );

  002d5	ff 75 14	 push	 DWORD PTR _iHeight$[ebp]
  002d8	8b ce		 mov	 ecx, esi
  002da	ff 75 10	 push	 DWORD PTR _iWidth$[ebp]
  002dd	ff 75 0c	 push	 DWORD PTR _iAxisYPos$[ebp]
  002e0	ff 75 08	 push	 DWORD PTR _iAxisXPos$[ebp]
  002e3	e8 00 00 00 00	 call	 ?OnRenderPrintHelp@TooltipHelpWnd@@IAEXHHHH@Z ; TooltipHelpWnd::OnRenderPrintHelp
  002e8	5f		 pop	 edi
  002e9	5b		 pop	 ebx
$LN2@OnRenderLe@2:
  002ea	5e		 pop	 esi

; 353  : }

  002eb	c9		 leave
  002ec	c2 10 00	 ret	 16			; 00000010H
?OnRenderLeftBottom@TooltipHelpWnd@@IAEXHHHH@Z ENDP	; TooltipHelpWnd::OnRenderLeftBottom
_TEXT	ENDS
PUBLIC	?OnRenderRightBottom@TooltipHelpWnd@@IAEXHHHH@Z	; TooltipHelpWnd::OnRenderRightBottom
; Function compile flags: /Ogsp
;	COMDAT ?OnRenderRightBottom@TooltipHelpWnd@@IAEXHHHH@Z
_TEXT	SEGMENT
tv489 = -24						; size = 4
tv594 = -20						; size = 4
tv520 = -20						; size = 4
tv509 = -16						; size = 4
tv490 = -12						; size = 4
tv488 = -8						; size = 4
tv501 = -4						; size = 4
tv581 = 8						; size = 4
tv539 = 8						; size = 4
_iAxisXPos$ = 8						; size = 4
_iAxisYPos$ = 12					; size = 4
_iWidth$ = 16						; size = 4
_iHeight$ = 20						; size = 4
?OnRenderRightBottom@TooltipHelpWnd@@IAEXHHHH@Z PROC	; TooltipHelpWnd::OnRenderRightBottom, COMDAT
; _this$ = ecx

; 356  : {

  00000	55		 push	 ebp
  00001	8b ec		 mov	 ebp, esp
  00003	83 ec 18	 sub	 esp, 24			; 00000018H
  00006	56		 push	 esi
  00007	8b f1		 mov	 esi, ecx

; 357  : 	if( IsResourceNULL() ) return;

  00009	e8 00 00 00 00	 call	 ?IsResourceNULL@TooltipHelpWnd@@IAE_NXZ ; TooltipHelpWnd::IsResourceNULL
  0000e	84 c0		 test	 al, al
  00010	0f 85 dc 02 00
	00		 jne	 $LN2@OnRenderRi@2

; 358  : 
; 359  : 	// 
; 360  : 	m_pBottomRight->SetReverseFormatting( ioUIRenderImage::RF_HORZ_VERT_REVERSE );

  00016	8b 8e 80 01 00
	00		 mov	 ecx, DWORD PTR [esi+384]
  0001c	53		 push	 ebx
  0001d	57		 push	 edi
  0001e	6a 03		 push	 3
  00020	ff 15 00 00 00
	00		 call	 DWORD PTR __imp_?SetReverseFormatting@ioUIRenderImage@@QAEXW4ReverseFormatting@1@@Z

; 361  : 	m_pBottomRight->Render( iAxisXPos - iWidth, iAxisYPos );

  00026	8b 8e 80 01 00
	00		 mov	 ecx, DWORD PTR [esi+384]
  0002c	8b 5d 08	 mov	 ebx, DWORD PTR _iAxisXPos$[ebp]
  0002f	2b 5d 10	 sub	 ebx, DWORD PTR _iWidth$[ebp]
  00032	66 0f 6e 45 0c	 movd	 xmm0, DWORD PTR _iAxisYPos$[ebp]
  00037	8b 01		 mov	 eax, DWORD PTR [ecx]
  00039	33 ff		 xor	 edi, edi
  0003b	57		 push	 edi
  0003c	57		 push	 edi
  0003d	57		 push	 edi
  0003e	57		 push	 edi
  0003f	51		 push	 ecx
  00040	51		 push	 ecx
  00041	0f 5b c0	 cvtdq2ps xmm0, xmm0
  00044	0f 57 c9	 xorps	 xmm1, xmm1
  00047	f3 0f 2a cb	 cvtsi2ss xmm1, ebx
  0004b	f3 0f 11 44 24
	04		 movss	 DWORD PTR [esp+4], xmm0
  00051	f3 0f 11 45 f8	 movss	 DWORD PTR tv488[ebp], xmm0
  00056	89 5d e8	 mov	 DWORD PTR tv489[ebp], ebx
  00059	f3 0f 11 4d f4	 movss	 DWORD PTR tv490[ebp], xmm1
  0005e	f3 0f 11 0c 24	 movss	 DWORD PTR [esp], xmm1
  00063	ff 10		 call	 DWORD PTR [eax]

; 362  : 
; 363  : 	m_pBottomEdge->SetReverseFormatting( ioUIRenderImage::RF_HORZ_VERT_REVERSE );

  00065	8b 8e 7c 01 00
	00		 mov	 ecx, DWORD PTR [esi+380]
  0006b	6a 03		 push	 3
  0006d	ff 15 00 00 00
	00		 call	 DWORD PTR __imp_?SetReverseFormatting@ioUIRenderImage@@QAEXW4ReverseFormatting@1@@Z

; 364  : 	m_pBottomEdge->SetSize( iWidth - 30, m_pBottomEdge->GetHeight() );

  00073	8b 86 7c 01 00
	00		 mov	 eax, DWORD PTR [esi+380]
  00079	8b 00		 mov	 eax, DWORD PTR [eax]
  0007b	8b 8e 7c 01 00
	00		 mov	 ecx, DWORD PTR [esi+380]
  00081	89 45 ec	 mov	 DWORD PTR tv594[ebp], eax
  00084	8b 45 10	 mov	 eax, DWORD PTR _iWidth$[ebp]
  00087	83 c0 e2	 add	 eax, -30		; ffffffe2H
  0008a	89 45 fc	 mov	 DWORD PTR tv501[ebp], eax
  0008d	ff 15 00 00 00
	00		 call	 DWORD PTR __imp_?GetHeight@ioUIRenderElement@@QBEHXZ
  00093	8b 8e 7c 01 00
	00		 mov	 ecx, DWORD PTR [esi+380]
  00099	50		 push	 eax
  0009a	ff 75 fc	 push	 DWORD PTR tv501[ebp]
  0009d	8b 45 ec	 mov	 eax, DWORD PTR tv594[ebp]
  000a0	ff 50 10	 call	 DWORD PTR [eax+16]

; 365  : 	m_pBottomEdge->Render( iAxisXPos - ( iWidth - 15 ), iAxisYPos );

  000a3	8b 8e 7c 01 00
	00		 mov	 ecx, DWORD PTR [esi+380]
  000a9	f3 0f 10 4d f8	 movss	 xmm1, DWORD PTR tv488[ebp]
  000ae	8b 01		 mov	 eax, DWORD PTR [ecx]
  000b0	57		 push	 edi
  000b1	57		 push	 edi
  000b2	57		 push	 edi
  000b3	57		 push	 edi
  000b4	51		 push	 ecx
  000b5	51		 push	 ecx
  000b6	83 c3 0f	 add	 ebx, 15			; 0000000fH
  000b9	0f 57 c0	 xorps	 xmm0, xmm0
  000bc	f3 0f 2a c3	 cvtsi2ss xmm0, ebx
  000c0	f3 0f 11 4c 24
	04		 movss	 DWORD PTR [esp+4], xmm1
  000c6	f3 0f 11 45 f0	 movss	 DWORD PTR tv509[ebp], xmm0
  000cb	f3 0f 11 04 24	 movss	 DWORD PTR [esp], xmm0
  000d0	ff 10		 call	 DWORD PTR [eax]

; 366  : 
; 367  : 	m_pBottomLeft->SetReverseFormatting( ioUIRenderImage::RF_HORZ_VERT_REVERSE );

  000d2	8b 8e 78 01 00
	00		 mov	 ecx, DWORD PTR [esi+376]
  000d8	6a 03		 push	 3
  000da	ff 15 00 00 00
	00		 call	 DWORD PTR __imp_?SetReverseFormatting@ioUIRenderImage@@QAEXW4ReverseFormatting@1@@Z

; 368  : 	m_pBottomLeft->Render( iAxisXPos - 15, iAxisYPos );	

  000e0	8b 45 08	 mov	 eax, DWORD PTR _iAxisXPos$[ebp]
  000e3	8b 9e 78 01 00
	00		 mov	 ebx, DWORD PTR [esi+376]
  000e9	f3 0f 10 4d f8	 movss	 xmm1, DWORD PTR tv488[ebp]
  000ee	57		 push	 edi
  000ef	57		 push	 edi
  000f0	57		 push	 edi
  000f1	57		 push	 edi
  000f2	51		 push	 ecx
  000f3	83 c0 f1	 add	 eax, -15		; fffffff1H
  000f6	51		 push	 ecx
  000f7	0f 57 c0	 xorps	 xmm0, xmm0
  000fa	f3 0f 2a c0	 cvtsi2ss xmm0, eax
  000fe	8b 03		 mov	 eax, DWORD PTR [ebx]
  00100	f3 0f 11 4c 24
	04		 movss	 DWORD PTR [esp+4], xmm1
  00106	8b cb		 mov	 ecx, ebx
  00108	f3 0f 11 45 ec	 movss	 DWORD PTR tv520[ebp], xmm0
  0010d	f3 0f 11 04 24	 movss	 DWORD PTR [esp], xmm0
  00112	ff 10		 call	 DWORD PTR [eax]

; 369  : 
; 370  : 	// 
; 371  : 	m_pRightEdge->SetReverseFormatting( ioUIRenderImage::RF_HORZ_VERT_REVERSE );

  00114	8b 8e 74 01 00
	00		 mov	 ecx, DWORD PTR [esi+372]
  0011a	6a 03		 push	 3
  0011c	ff 15 00 00 00
	00		 call	 DWORD PTR __imp_?SetReverseFormatting@ioUIRenderImage@@QAEXW4ReverseFormatting@1@@Z

; 372  : 	m_pRightEdge->SetSize( m_pRightEdge->GetWidth(), iHeight - 30 );

  00122	8b 86 74 01 00
	00		 mov	 eax, DWORD PTR [esi+372]
  00128	8b 18		 mov	 ebx, DWORD PTR [eax]
  0012a	8b 45 14	 mov	 eax, DWORD PTR _iHeight$[ebp]
  0012d	8b 8e 74 01 00
	00		 mov	 ecx, DWORD PTR [esi+372]
  00133	83 c0 e2	 add	 eax, -30		; ffffffe2H
  00136	50		 push	 eax
  00137	ff 15 00 00 00
	00		 call	 DWORD PTR __imp_?GetWidth@ioUIRenderElement@@QBEHXZ
  0013d	8b 8e 74 01 00
	00		 mov	 ecx, DWORD PTR [esi+372]
  00143	50		 push	 eax
  00144	ff 53 10	 call	 DWORD PTR [ebx+16]

; 373  : 	m_pRightEdge->Render( iAxisXPos - iWidth, iAxisYPos + 15 );

  00147	8b 8e 74 01 00
	00		 mov	 ecx, DWORD PTR [esi+372]
  0014d	8b 45 0c	 mov	 eax, DWORD PTR _iAxisYPos$[ebp]
  00150	57		 push	 edi
  00151	57		 push	 edi
  00152	57		 push	 edi
  00153	57		 push	 edi
  00154	83 c0 0f	 add	 eax, 15			; 0000000fH
  00157	51		 push	 ecx
  00158	0f 57 c0	 xorps	 xmm0, xmm0
  0015b	f3 0f 2a c0	 cvtsi2ss xmm0, eax
  0015f	8b 01		 mov	 eax, DWORD PTR [ecx]
  00161	51		 push	 ecx
  00162	f3 0f 11 44 24
	04		 movss	 DWORD PTR [esp+4], xmm0
  00168	f3 0f 11 45 08	 movss	 DWORD PTR tv539[ebp], xmm0
  0016d	f3 0f 10 45 f4	 movss	 xmm0, DWORD PTR tv490[ebp]
  00172	f3 0f 11 04 24	 movss	 DWORD PTR [esp], xmm0
  00177	ff 10		 call	 DWORD PTR [eax]

; 374  : 
; 375  : 	m_pCenter->SetSize( iWidth - 30, iHeight - 30 );

  00179	8b 45 14	 mov	 eax, DWORD PTR _iHeight$[ebp]
  0017c	8b 8e 70 01 00
	00		 mov	 ecx, DWORD PTR [esi+368]
  00182	8b 11		 mov	 edx, DWORD PTR [ecx]
  00184	83 c0 e2	 add	 eax, -30		; ffffffe2H
  00187	50		 push	 eax
  00188	8b 45 10	 mov	 eax, DWORD PTR _iWidth$[ebp]
  0018b	83 c0 e2	 add	 eax, -30		; ffffffe2H
  0018e	50		 push	 eax
  0018f	89 45 fc	 mov	 DWORD PTR tv501[ebp], eax
  00192	ff 52 10	 call	 DWORD PTR [edx+16]

; 376  : 	m_pCenter->Render( iAxisXPos - ( iWidth - 15 ), iAxisYPos + 15 );

  00195	8b 9e 70 01 00
	00		 mov	 ebx, DWORD PTR [esi+368]
  0019b	f3 0f 10 45 08	 movss	 xmm0, DWORD PTR tv539[ebp]
  001a0	8b 03		 mov	 eax, DWORD PTR [ebx]
  001a2	57		 push	 edi
  001a3	57		 push	 edi
  001a4	57		 push	 edi
  001a5	57		 push	 edi
  001a6	51		 push	 ecx
  001a7	51		 push	 ecx
  001a8	f3 0f 11 44 24
	04		 movss	 DWORD PTR [esp+4], xmm0
  001ae	f3 0f 10 45 f0	 movss	 xmm0, DWORD PTR tv509[ebp]
  001b3	8b cb		 mov	 ecx, ebx
  001b5	f3 0f 11 04 24	 movss	 DWORD PTR [esp], xmm0
  001ba	ff 10		 call	 DWORD PTR [eax]

; 377  : 
; 378  : 	m_pLeftEdge->SetReverseFormatting( ioUIRenderImage::RF_HORZ_VERT_REVERSE );

  001bc	8b 8e 6c 01 00
	00		 mov	 ecx, DWORD PTR [esi+364]
  001c2	6a 03		 push	 3
  001c4	ff 15 00 00 00
	00		 call	 DWORD PTR __imp_?SetReverseFormatting@ioUIRenderImage@@QAEXW4ReverseFormatting@1@@Z

; 379  : 	m_pLeftEdge->SetSize( m_pLeftEdge->GetWidth(), iHeight - 30 );

  001ca	8b 86 6c 01 00
	00		 mov	 eax, DWORD PTR [esi+364]
  001d0	8b 18		 mov	 ebx, DWORD PTR [eax]
  001d2	8b 45 14	 mov	 eax, DWORD PTR _iHeight$[ebp]
  001d5	8b 8e 6c 01 00
	00		 mov	 ecx, DWORD PTR [esi+364]
  001db	83 c0 e2	 add	 eax, -30		; ffffffe2H
  001de	50		 push	 eax
  001df	ff 15 00 00 00
	00		 call	 DWORD PTR __imp_?GetWidth@ioUIRenderElement@@QBEHXZ
  001e5	8b 8e 6c 01 00
	00		 mov	 ecx, DWORD PTR [esi+364]
  001eb	50		 push	 eax
  001ec	ff 53 10	 call	 DWORD PTR [ebx+16]

; 380  : 	m_pLeftEdge->Render( iAxisXPos - 15, iAxisYPos + 15 );

  001ef	8b 8e 6c 01 00
	00		 mov	 ecx, DWORD PTR [esi+364]
  001f5	f3 0f 10 45 08	 movss	 xmm0, DWORD PTR tv539[ebp]
  001fa	8b 01		 mov	 eax, DWORD PTR [ecx]
  001fc	57		 push	 edi
  001fd	57		 push	 edi
  001fe	57		 push	 edi
  001ff	57		 push	 edi
  00200	51		 push	 ecx
  00201	51		 push	 ecx
  00202	f3 0f 11 44 24
	04		 movss	 DWORD PTR [esp+4], xmm0
  00208	f3 0f 10 45 ec	 movss	 xmm0, DWORD PTR tv520[ebp]
  0020d	f3 0f 11 04 24	 movss	 DWORD PTR [esp], xmm0
  00212	ff 10		 call	 DWORD PTR [eax]

; 381  : 	
; 382  : 	// 
; 383  : 	m_pTopRight->SetReverseFormatting( ioUIRenderImage::RF_HORZ_VERT_REVERSE );

  00214	8b 8e 68 01 00
	00		 mov	 ecx, DWORD PTR [esi+360]
  0021a	6a 03		 push	 3
  0021c	ff 15 00 00 00
	00		 call	 DWORD PTR __imp_?SetReverseFormatting@ioUIRenderImage@@QAEXW4ReverseFormatting@1@@Z

; 384  : 	m_pTopRight->Render( iAxisXPos - iWidth, iAxisYPos + ( iHeight - 15 ) );

  00222	8b 4d 14	 mov	 ecx, DWORD PTR _iHeight$[ebp]
  00225	8b 45 0c	 mov	 eax, DWORD PTR _iAxisYPos$[ebp]
  00228	8b 9e 68 01 00
	00		 mov	 ebx, DWORD PTR [esi+360]
  0022e	57		 push	 edi
  0022f	57		 push	 edi
  00230	57		 push	 edi
  00231	57		 push	 edi
  00232	8d 44 08 f1	 lea	 eax, DWORD PTR [eax+ecx-15]
  00236	51		 push	 ecx
  00237	51		 push	 ecx
  00238	0f 57 c0	 xorps	 xmm0, xmm0
  0023b	f3 0f 2a c0	 cvtsi2ss xmm0, eax
  0023f	8b 03		 mov	 eax, DWORD PTR [ebx]
  00241	f3 0f 11 44 24
	04		 movss	 DWORD PTR [esp+4], xmm0
  00247	f3 0f 11 45 08	 movss	 DWORD PTR tv581[ebp], xmm0
  0024c	f3 0f 10 45 f4	 movss	 xmm0, DWORD PTR tv490[ebp]
  00251	8b cb		 mov	 ecx, ebx
  00253	f3 0f 11 04 24	 movss	 DWORD PTR [esp], xmm0
  00258	ff 10		 call	 DWORD PTR [eax]

; 385  : 
; 386  : 	m_pTopEdge->SetReverseFormatting( ioUIRenderImage::RF_HORZ_VERT_REVERSE );

  0025a	8b 8e 64 01 00
	00		 mov	 ecx, DWORD PTR [esi+356]
  00260	6a 03		 push	 3
  00262	ff 15 00 00 00
	00		 call	 DWORD PTR __imp_?SetReverseFormatting@ioUIRenderImage@@QAEXW4ReverseFormatting@1@@Z

; 387  : 	m_pTopEdge->SetSize( iWidth - 30, m_pTopEdge->GetHeight() );

  00268	8b 86 64 01 00
	00		 mov	 eax, DWORD PTR [esi+356]
  0026e	8b 18		 mov	 ebx, DWORD PTR [eax]
  00270	8b c8		 mov	 ecx, eax
  00272	ff 15 00 00 00
	00		 call	 DWORD PTR __imp_?GetHeight@ioUIRenderElement@@QBEHXZ
  00278	8b 8e 64 01 00
	00		 mov	 ecx, DWORD PTR [esi+356]
  0027e	50		 push	 eax
  0027f	ff 75 fc	 push	 DWORD PTR tv501[ebp]
  00282	ff 53 10	 call	 DWORD PTR [ebx+16]

; 388  : 	m_pTopEdge->Render( iAxisXPos - ( iWidth - 15 ), iAxisYPos + ( iHeight - 15 ) );	

  00285	8b 8e 64 01 00
	00		 mov	 ecx, DWORD PTR [esi+356]
  0028b	f3 0f 10 45 08	 movss	 xmm0, DWORD PTR tv581[ebp]
  00290	8b 01		 mov	 eax, DWORD PTR [ecx]
  00292	57		 push	 edi
  00293	57		 push	 edi
  00294	57		 push	 edi
  00295	57		 push	 edi
  00296	51		 push	 ecx
  00297	51		 push	 ecx
  00298	f3 0f 11 44 24
	04		 movss	 DWORD PTR [esp+4], xmm0
  0029e	f3 0f 10 45 f0	 movss	 xmm0, DWORD PTR tv509[ebp]
  002a3	f3 0f 11 04 24	 movss	 DWORD PTR [esp], xmm0
  002a8	ff 10		 call	 DWORD PTR [eax]

; 389  : 
; 390  : 	m_pTopLeft->SetReverseFormatting( ioUIRenderImage::RF_HORZ_VERT_REVERSE );

  002aa	8b 8e 60 01 00
	00		 mov	 ecx, DWORD PTR [esi+352]
  002b0	6a 03		 push	 3
  002b2	ff 15 00 00 00
	00		 call	 DWORD PTR __imp_?SetReverseFormatting@ioUIRenderImage@@QAEXW4ReverseFormatting@1@@Z

; 391  : 	m_pTopLeft->Render( iAxisXPos - 15, iAxisYPos + ( iHeight - 15 ) );	

  002b8	8b 8e 60 01 00
	00		 mov	 ecx, DWORD PTR [esi+352]
  002be	f3 0f 10 45 08	 movss	 xmm0, DWORD PTR tv581[ebp]
  002c3	8b 01		 mov	 eax, DWORD PTR [ecx]
  002c5	57		 push	 edi
  002c6	57		 push	 edi
  002c7	57		 push	 edi
  002c8	57		 push	 edi
  002c9	51		 push	 ecx
  002ca	51		 push	 ecx
  002cb	f3 0f 11 44 24
	04		 movss	 DWORD PTR [esp+4], xmm0
  002d1	f3 0f 10 45 ec	 movss	 xmm0, DWORD PTR tv520[ebp]
  002d6	f3 0f 11 04 24	 movss	 DWORD PTR [esp], xmm0
  002db	ff 10		 call	 DWORD PTR [eax]

; 392  : 
; 393  : 	// 
; 394  : 	OnRenderPrintHelp( iAxisXPos - iWidth, iAxisYPos, iWidth, iHeight );

  002dd	ff 75 14	 push	 DWORD PTR _iHeight$[ebp]
  002e0	8b ce		 mov	 ecx, esi
  002e2	ff 75 10	 push	 DWORD PTR _iWidth$[ebp]
  002e5	ff 75 0c	 push	 DWORD PTR _iAxisYPos$[ebp]
  002e8	ff 75 e8	 push	 DWORD PTR tv489[ebp]
  002eb	e8 00 00 00 00	 call	 ?OnRenderPrintHelp@TooltipHelpWnd@@IAEXHHHH@Z ; TooltipHelpWnd::OnRenderPrintHelp
  002f0	5f		 pop	 edi
  002f1	5b		 pop	 ebx
$LN2@OnRenderRi@2:
  002f2	5e		 pop	 esi

; 395  : }

  002f3	c9		 leave
  002f4	c2 10 00	 ret	 16			; 00000010H
?OnRenderRightBottom@TooltipHelpWnd@@IAEXHHHH@Z ENDP	; TooltipHelpWnd::OnRenderRightBottom
_TEXT	ENDS
PUBLIC	??0?$_Vector_iterator@V?$_Vector_val@UTooltip@ioWnd@@V?$allocator@UTooltip@ioWnd@@@std@@@std@@@std@@QAE@PAUTooltip@ioWnd@@PBU_Container_base0@1@@Z ; std::_Vector_iterator<std::_Vector_val<ioWnd::Tooltip,std::allocator<ioWnd::Tooltip> > >::_Vector_iterator<std::_Vector_val<ioWnd::Tooltip,std::allocator<ioWnd::Tooltip> > >
; Function compile flags: /Ogsp
; File c:\program files (x86)\microsoft visual studio 10.0\vc\include\vector
;	COMDAT ??0?$_Vector_iterator@V?$_Vector_val@UTooltip@ioWnd@@V?$allocator@UTooltip@ioWnd@@@std@@@std@@@std@@QAE@PAUTooltip@ioWnd@@PBU_Container_base0@1@@Z
_TEXT	SEGMENT
__Parg$ = 8						; size = 4
__Pvector$ = 12						; size = 4
??0?$_Vector_iterator@V?$_Vector_val@UTooltip@ioWnd@@V?$allocator@UTooltip@ioWnd@@@std@@@std@@@std@@QAE@PAUTooltip@ioWnd@@PBU_Container_base0@1@@Z PROC ; std::_Vector_iterator<std::_Vector_val<ioWnd::Tooltip,std::allocator<ioWnd::Tooltip> > >::_Vector_iterator<std::_Vector_val<ioWnd::Tooltip,std::allocator<ioWnd::Tooltip> > >, COMDAT
; _this$ = ecx

; 304  : 		{	// construct with pointer _Parg

  00000	55		 push	 ebp
  00001	8b ec		 mov	 ebp, esp
  00003	8b c1		 mov	 eax, ecx
  00005	8b 4d 08	 mov	 ecx, DWORD PTR __Parg$[ebp]
  00008	89 08		 mov	 DWORD PTR [eax], ecx

; 305  : 		}

  0000a	5d		 pop	 ebp
  0000b	c2 08 00	 ret	 8
??0?$_Vector_iterator@V?$_Vector_val@UTooltip@ioWnd@@V?$allocator@UTooltip@ioWnd@@@std@@@std@@@std@@QAE@PAUTooltip@ioWnd@@PBU_Container_base0@1@@Z ENDP ; std::_Vector_iterator<std::_Vector_val<ioWnd::Tooltip,std::allocator<ioWnd::Tooltip> > >::_Vector_iterator<std::_Vector_val<ioWnd::Tooltip,std::allocator<ioWnd::Tooltip> > >
_TEXT	ENDS
PUBLIC	??9?$_Vector_const_iterator@V?$_Vector_val@UTooltip@ioWnd@@V?$allocator@UTooltip@ioWnd@@@std@@@std@@@std@@QBE_NABV01@@Z ; std::_Vector_const_iterator<std::_Vector_val<ioWnd::Tooltip,std::allocator<ioWnd::Tooltip> > >::operator!=
; Function compile flags: /Ogsp
;	COMDAT ??9?$_Vector_const_iterator@V?$_Vector_val@UTooltip@ioWnd@@V?$allocator@UTooltip@ioWnd@@@std@@@std@@@std@@QBE_NABV01@@Z
_TEXT	SEGMENT
__Right$ = 8						; size = 4
??9?$_Vector_const_iterator@V?$_Vector_val@UTooltip@ioWnd@@V?$allocator@UTooltip@ioWnd@@@std@@@std@@@std@@QBE_NABV01@@Z PROC ; std::_Vector_const_iterator<std::_Vector_val<ioWnd::Tooltip,std::allocator<ioWnd::Tooltip> > >::operator!=, COMDAT
; _this$ = ecx

; 207  : 		{	// test for iterator inequality

  00000	55		 push	 ebp
  00001	8b ec		 mov	 ebp, esp

; 208  : 		return (!(*this == _Right));

  00003	8b 01		 mov	 eax, DWORD PTR [ecx]
  00005	8b 55 08	 mov	 edx, DWORD PTR __Right$[ebp]
  00008	33 c9		 xor	 ecx, ecx
  0000a	3b 02		 cmp	 eax, DWORD PTR [edx]
  0000c	0f 95 c0	 setne	 al

; 209  : 		}

  0000f	5d		 pop	 ebp
  00010	c2 04 00	 ret	 4
??9?$_Vector_const_iterator@V?$_Vector_val@UTooltip@ioWnd@@V?$allocator@UTooltip@ioWnd@@@std@@@std@@@std@@QBE_NABV01@@Z ENDP ; std::_Vector_const_iterator<std::_Vector_val<ioWnd::Tooltip,std::allocator<ioWnd::Tooltip> > >::operator!=
_TEXT	ENDS
PUBLIC	??$_Cons_val@V?$allocator@UTooltip@ioWnd@@@std@@UTooltip@ioWnd@@AAU34@@std@@YAXAAV?$allocator@UTooltip@ioWnd@@@0@PAUTooltip@ioWnd@@AAU23@@Z ; std::_Cons_val<std::allocator<ioWnd::Tooltip>,ioWnd::Tooltip,ioWnd::Tooltip &>
;	COMDAT xdata$x
; File c:\program files (x86)\microsoft visual studio 10.0\vc\include\utility
xdata$x	SEGMENT
__unwindtable$??$_Cons_val@V?$allocator@UTooltip@ioWnd@@@std@@UTooltip@ioWnd@@AAU34@@std@@YAXAAV?$allocator@UTooltip@ioWnd@@@0@PAUTooltip@ioWnd@@AAU23@@Z DD 0ffffffffH
	DD	FLAT:__unwindfunclet$??$_Cons_val@V?$allocator@UTooltip@ioWnd@@@std@@UTooltip@ioWnd@@AAU34@@std@@YAXAAV?$allocator@UTooltip@ioWnd@@@0@PAUTooltip@ioWnd@@AAU23@@Z$0
__ehfuncinfo$??$_Cons_val@V?$allocator@UTooltip@ioWnd@@@std@@UTooltip@ioWnd@@AAU34@@std@@YAXAAV?$allocator@UTooltip@ioWnd@@@0@PAUTooltip@ioWnd@@AAU23@@Z DD 019930522H
	DD	01H
	DD	FLAT:__unwindtable$??$_Cons_val@V?$allocator@UTooltip@ioWnd@@@std@@UTooltip@ioWnd@@AAU34@@std@@YAXAAV?$allocator@UTooltip@ioWnd@@@0@PAUTooltip@ioWnd@@AAU23@@Z
	DD	2 DUP(00H)
	DD	2 DUP(00H)
	DD	00H
	DD	01H
; Function compile flags: /Ogsp
; File c:\program files (x86)\microsoft visual studio 10.0\vc\include\xmemory
xdata$x	ENDS
;	COMDAT ??$_Cons_val@V?$allocator@UTooltip@ioWnd@@@std@@UTooltip@ioWnd@@AAU34@@std@@YAXAAV?$allocator@UTooltip@ioWnd@@@0@PAUTooltip@ioWnd@@AAU23@@Z
_TEXT	SEGMENT
$T509205 = -16						; size = 4
__$EHRec$ = -12						; size = 12
__Alval$ = 8						; size = 4
__Pdest$ = 12						; size = 4
__Src$ = 16						; size = 4
??$_Cons_val@V?$allocator@UTooltip@ioWnd@@@std@@UTooltip@ioWnd@@AAU34@@std@@YAXAAV?$allocator@UTooltip@ioWnd@@@0@PAUTooltip@ioWnd@@AAU23@@Z PROC ; std::_Cons_val<std::allocator<ioWnd::Tooltip>,ioWnd::Tooltip,ioWnd::Tooltip &>, COMDAT

; 279  : 	{	// construct using allocator

  00000	6a 04		 push	 4
  00002	b8 00 00 00 00	 mov	 eax, __ehhandler$??$_Cons_val@V?$allocator@UTooltip@ioWnd@@@std@@UTooltip@ioWnd@@AAU34@@std@@YAXAAV?$allocator@UTooltip@ioWnd@@@0@PAUTooltip@ioWnd@@AAU23@@Z
  00007	e8 00 00 00 00	 call	 __EH_prolog3

; 280  : 	_Alval.construct(_Pdest, _STD forward<_Ty2>(_Src));

  0000c	8b 4d 0c	 mov	 ecx, DWORD PTR __Pdest$[ebp]
  0000f	89 4d f0	 mov	 DWORD PTR $T509205[ebp], ecx
  00012	83 65 fc 00	 and	 DWORD PTR __$EHRec$[ebp+8], 0
  00016	85 c9		 test	 ecx, ecx
  00018	74 08		 je	 SHORT $LN7@Cons_val
  0001a	ff 75 10	 push	 DWORD PTR __Src$[ebp]
  0001d	e8 00 00 00 00	 call	 ??0Tooltip@ioWnd@@QAE@ABU01@@Z
$LN7@Cons_val:

; 281  : 	}

  00022	e8 00 00 00 00	 call	 __EH_epilog3
  00027	c3		 ret	 0
_TEXT	ENDS
;	COMDAT text$x
text$x	SEGMENT
__unwindfunclet$??$_Cons_val@V?$allocator@UTooltip@ioWnd@@@std@@UTooltip@ioWnd@@AAU34@@std@@YAXAAV?$allocator@UTooltip@ioWnd@@@0@PAUTooltip@ioWnd@@AAU23@@Z$0:
  00000	ff 75 0c	 push	 DWORD PTR __Pdest$[ebp]
  00003	ff 75 f0	 push	 DWORD PTR $T509205[ebp]
  00006	e8 00 00 00 00	 call	 ??3@YAXPAX0@Z		; operator delete
  0000b	59		 pop	 ecx
  0000c	59		 pop	 ecx
  0000d	c3		 ret	 0
__ehhandler$??$_Cons_val@V?$allocator@UTooltip@ioWnd@@@std@@UTooltip@ioWnd@@AAU34@@std@@YAXAAV?$allocator@UTooltip@ioWnd@@@0@PAUTooltip@ioWnd@@AAU23@@Z:
  0000e	8b 54 24 08	 mov	 edx, DWORD PTR [esp+8]
  00012	8d 42 0c	 lea	 eax, DWORD PTR [edx+12]
  00015	8b 4a ec	 mov	 ecx, DWORD PTR [edx-20]
  00018	33 c8		 xor	 ecx, eax
  0001a	e8 00 00 00 00	 call	 @__security_check_cookie@4
  0001f	b8 00 00 00 00	 mov	 eax, OFFSET __ehfuncinfo$??$_Cons_val@V?$allocator@UTooltip@ioWnd@@@std@@UTooltip@ioWnd@@AAU34@@std@@YAXAAV?$allocator@UTooltip@ioWnd@@@0@PAUTooltip@ioWnd@@AAU23@@Z
  00024	e9 00 00 00 00	 jmp	 ___CxxFrameHandler3
text$x	ENDS
??$_Cons_val@V?$allocator@UTooltip@ioWnd@@@std@@UTooltip@ioWnd@@AAU34@@std@@YAXAAV?$allocator@UTooltip@ioWnd@@@0@PAUTooltip@ioWnd@@AAU23@@Z ENDP ; std::_Cons_val<std::allocator<ioWnd::Tooltip>,ioWnd::Tooltip,ioWnd::Tooltip &>
PUBLIC	??$_Move@PAUTooltip@ioWnd@@PAU12@@std@@YAPAUTooltip@ioWnd@@PAU12@00@Z ; std::_Move<ioWnd::Tooltip *,ioWnd::Tooltip *>
; Function compile flags: /Ogsp
; File c:\program files (x86)\microsoft visual studio 10.0\vc\include\xutility
;	COMDAT ??$_Move@PAUTooltip@ioWnd@@PAU12@@std@@YAPAUTooltip@ioWnd@@PAU12@00@Z
_TEXT	SEGMENT
__Cat$509223 = -4					; size = 1
__First$ = 8						; size = 4
__Last$ = 12						; size = 4
__Dest$ = 16						; size = 4
??$_Move@PAUTooltip@ioWnd@@PAU12@@std@@YAPAUTooltip@ioWnd@@PAU12@00@Z PROC ; std::_Move<ioWnd::Tooltip *,ioWnd::Tooltip *>, COMDAT

; 2533 : 	{	// move [_First, _Last) to [_Dest, ...), unchecked

  00000	55		 push	 ebp
  00001	8b ec		 mov	 ebp, esp
  00003	51		 push	 ecx

; 2534 : 	return (_Move(_First, _Last,
; 2535 : 		_Dest, _Ptr_cat(_First, _Dest)));

  00004	ff 75 fc	 push	 DWORD PTR __Cat$509223[ebp]
  00007	ff 75 10	 push	 DWORD PTR __Dest$[ebp]
  0000a	ff 75 0c	 push	 DWORD PTR __Last$[ebp]
  0000d	ff 75 08	 push	 DWORD PTR __First$[ebp]
  00010	e8 00 00 00 00	 call	 ??$_Move@PAUTooltip@ioWnd@@PAU12@@std@@YAPAUTooltip@ioWnd@@PAU12@00U_Nonscalar_ptr_iterator_tag@0@@Z ; std::_Move<ioWnd::Tooltip *,ioWnd::Tooltip *>
  00015	83 c4 10	 add	 esp, 16			; 00000010H

; 2536 : 	}

  00018	c9		 leave
  00019	c3		 ret	 0
??$_Move@PAUTooltip@ioWnd@@PAU12@@std@@YAPAUTooltip@ioWnd@@PAU12@00@Z ENDP ; std::_Move<ioWnd::Tooltip *,ioWnd::Tooltip *>
_TEXT	ENDS
PUBLIC	?construct@?$allocator@UTooltip@ioWnd@@@std@@QAEXPAUTooltip@ioWnd@@ABU34@@Z ; std::allocator<ioWnd::Tooltip>::construct
; Function compile flags: /Ogsp
; File c:\program files (x86)\microsoft visual studio 10.0\vc\include\xmemory
;	COMDAT ?construct@?$allocator@UTooltip@ioWnd@@@std@@QAEXPAUTooltip@ioWnd@@ABU34@@Z
_TEXT	SEGMENT
__Ptr$ = 8						; size = 4
__Val$ = 12						; size = 4
?construct@?$allocator@UTooltip@ioWnd@@@std@@QAEXPAUTooltip@ioWnd@@ABU34@@Z PROC ; std::allocator<ioWnd::Tooltip>::construct, COMDAT
; _this$ = ecx

; 196  : 		{	// construct object at _Ptr with value _Val

  00000	55		 push	 ebp
  00001	8b ec		 mov	 ebp, esp

; 197  : 		_Construct(_Ptr, _Val);

  00003	ff 75 0c	 push	 DWORD PTR __Val$[ebp]
  00006	ff 75 08	 push	 DWORD PTR __Ptr$[ebp]
  00009	e8 00 00 00 00	 call	 ??$_Construct@UTooltip@ioWnd@@ABU12@@std@@YAXPAUTooltip@ioWnd@@ABU12@@Z ; std::_Construct<ioWnd::Tooltip,ioWnd::Tooltip const &>
  0000e	59		 pop	 ecx
  0000f	59		 pop	 ecx

; 198  : 		}

  00010	5d		 pop	 ebp
  00011	c2 08 00	 ret	 8
?construct@?$allocator@UTooltip@ioWnd@@@std@@QAEXPAUTooltip@ioWnd@@ABU34@@Z ENDP ; std::allocator<ioWnd::Tooltip>::construct
_TEXT	ENDS
PUBLIC	?destroy@?$allocator@UTooltip@ioWnd@@@std@@QAEXPAUTooltip@ioWnd@@@Z ; std::allocator<ioWnd::Tooltip>::destroy
; Function compile flags: /Ogsp
;	COMDAT ?destroy@?$allocator@UTooltip@ioWnd@@@std@@QAEXPAUTooltip@ioWnd@@@Z
_TEXT	SEGMENT
__Ptr$ = 8						; size = 4
?destroy@?$allocator@UTooltip@ioWnd@@@std@@QAEXPAUTooltip@ioWnd@@@Z PROC ; std::allocator<ioWnd::Tooltip>::destroy, COMDAT
; _this$ = ecx

; 212  : 		{	// destroy object at _Ptr

  00000	55		 push	 ebp
  00001	8b ec		 mov	 ebp, esp

; 213  : 		_Destroy(_Ptr);

  00003	8b 4d 08	 mov	 ecx, DWORD PTR __Ptr$[ebp]
  00006	83 c1 08	 add	 ecx, 8
  00009	ff 15 00 00 00
	00		 call	 DWORD PTR __imp_??1ioHashString@@QAE@XZ

; 214  : 		}

  0000f	5d		 pop	 ebp
  00010	c2 04 00	 ret	 4
?destroy@?$allocator@UTooltip@ioWnd@@@std@@QAEXPAUTooltip@ioWnd@@@Z ENDP ; std::allocator<ioWnd::Tooltip>::destroy
_TEXT	ENDS
PUBLIC	??$_Cons_val@V?$allocator@UTooltip@ioWnd@@@std@@UTooltip@ioWnd@@U34@@std@@YAXAAV?$allocator@UTooltip@ioWnd@@@0@PAUTooltip@ioWnd@@$$QAU23@@Z ; std::_Cons_val<std::allocator<ioWnd::Tooltip>,ioWnd::Tooltip,ioWnd::Tooltip>
;	COMDAT xdata$x
; File c:\program files (x86)\microsoft visual studio 10.0\vc\include\utility
xdata$x	SEGMENT
__unwindtable$??$_Cons_val@V?$allocator@UTooltip@ioWnd@@@std@@UTooltip@ioWnd@@U34@@std@@YAXAAV?$allocator@UTooltip@ioWnd@@@0@PAUTooltip@ioWnd@@$$QAU23@@Z DD 0ffffffffH
	DD	FLAT:__unwindfunclet$??$_Cons_val@V?$allocator@UTooltip@ioWnd@@@std@@UTooltip@ioWnd@@U34@@std@@YAXAAV?$allocator@UTooltip@ioWnd@@@0@PAUTooltip@ioWnd@@$$QAU23@@Z$0
__ehfuncinfo$??$_Cons_val@V?$allocator@UTooltip@ioWnd@@@std@@UTooltip@ioWnd@@U34@@std@@YAXAAV?$allocator@UTooltip@ioWnd@@@0@PAUTooltip@ioWnd@@$$QAU23@@Z DD 019930522H
	DD	01H
	DD	FLAT:__unwindtable$??$_Cons_val@V?$allocator@UTooltip@ioWnd@@@std@@UTooltip@ioWnd@@U34@@std@@YAXAAV?$allocator@UTooltip@ioWnd@@@0@PAUTooltip@ioWnd@@$$QAU23@@Z
	DD	2 DUP(00H)
	DD	2 DUP(00H)
	DD	00H
	DD	01H
; Function compile flags: /Ogsp
; File c:\program files (x86)\microsoft visual studio 10.0\vc\include\xmemory
xdata$x	ENDS
;	COMDAT ??$_Cons_val@V?$allocator@UTooltip@ioWnd@@@std@@UTooltip@ioWnd@@U34@@std@@YAXAAV?$allocator@UTooltip@ioWnd@@@0@PAUTooltip@ioWnd@@$$QAU23@@Z
_TEXT	SEGMENT
$T509267 = -16						; size = 4
__$EHRec$ = -12						; size = 12
__Alval$ = 8						; size = 4
__Pdest$ = 12						; size = 4
__Src$ = 16						; size = 4
??$_Cons_val@V?$allocator@UTooltip@ioWnd@@@std@@UTooltip@ioWnd@@U34@@std@@YAXAAV?$allocator@UTooltip@ioWnd@@@0@PAUTooltip@ioWnd@@$$QAU23@@Z PROC ; std::_Cons_val<std::allocator<ioWnd::Tooltip>,ioWnd::Tooltip,ioWnd::Tooltip>, COMDAT

; 279  : 	{	// construct using allocator

  00000	6a 04		 push	 4
  00002	b8 00 00 00 00	 mov	 eax, __ehhandler$??$_Cons_val@V?$allocator@UTooltip@ioWnd@@@std@@UTooltip@ioWnd@@U34@@std@@YAXAAV?$allocator@UTooltip@ioWnd@@@0@PAUTooltip@ioWnd@@$$QAU23@@Z
  00007	e8 00 00 00 00	 call	 __EH_prolog3

; 280  : 	_Alval.construct(_Pdest, _STD forward<_Ty2>(_Src));

  0000c	8b 4d 0c	 mov	 ecx, DWORD PTR __Pdest$[ebp]
  0000f	89 4d f0	 mov	 DWORD PTR $T509267[ebp], ecx
  00012	83 65 fc 00	 and	 DWORD PTR __$EHRec$[ebp+8], 0
  00016	85 c9		 test	 ecx, ecx
  00018	74 08		 je	 SHORT $LN7@Cons_val@2
  0001a	ff 75 10	 push	 DWORD PTR __Src$[ebp]
  0001d	e8 00 00 00 00	 call	 ??0Tooltip@ioWnd@@QAE@ABU01@@Z
$LN7@Cons_val@2:

; 281  : 	}

  00022	e8 00 00 00 00	 call	 __EH_epilog3
  00027	c3		 ret	 0
_TEXT	ENDS
;	COMDAT text$x
text$x	SEGMENT
__unwindfunclet$??$_Cons_val@V?$allocator@UTooltip@ioWnd@@@std@@UTooltip@ioWnd@@U34@@std@@YAXAAV?$allocator@UTooltip@ioWnd@@@0@PAUTooltip@ioWnd@@$$QAU23@@Z$0:
  00000	ff 75 0c	 push	 DWORD PTR __Pdest$[ebp]
  00003	ff 75 f0	 push	 DWORD PTR $T509267[ebp]
  00006	e8 00 00 00 00	 call	 ??3@YAXPAX0@Z		; operator delete
  0000b	59		 pop	 ecx
  0000c	59		 pop	 ecx
  0000d	c3		 ret	 0
__ehhandler$??$_Cons_val@V?$allocator@UTooltip@ioWnd@@@std@@UTooltip@ioWnd@@U34@@std@@YAXAAV?$allocator@UTooltip@ioWnd@@@0@PAUTooltip@ioWnd@@$$QAU23@@Z:
  0000e	8b 54 24 08	 mov	 edx, DWORD PTR [esp+8]
  00012	8d 42 0c	 lea	 eax, DWORD PTR [edx+12]
  00015	8b 4a ec	 mov	 ecx, DWORD PTR [edx-20]
  00018	33 c8		 xor	 ecx, eax
  0001a	e8 00 00 00 00	 call	 @__security_check_cookie@4
  0001f	b8 00 00 00 00	 mov	 eax, OFFSET __ehfuncinfo$??$_Cons_val@V?$allocator@UTooltip@ioWnd@@@std@@UTooltip@ioWnd@@U34@@std@@YAXAAV?$allocator@UTooltip@ioWnd@@@0@PAUTooltip@ioWnd@@$$QAU23@@Z
  00024	e9 00 00 00 00	 jmp	 ___CxxFrameHandler3
text$x	ENDS
??$_Cons_val@V?$allocator@UTooltip@ioWnd@@@std@@UTooltip@ioWnd@@U34@@std@@YAXAAV?$allocator@UTooltip@ioWnd@@@0@PAUTooltip@ioWnd@@$$QAU23@@Z ENDP ; std::_Cons_val<std::allocator<ioWnd::Tooltip>,ioWnd::Tooltip,ioWnd::Tooltip>
EXTRN	__imp_?GetDerivedPosX@ioWnd@@QBEHXZ:PROC
EXTRN	__imp_?GetDerivedPosY@ioWnd@@QBEHXZ:PROC
EXTRN	__imp_?GetWidth@ioWnd@@QBEHXZ:PROC
EXTRN	__imp_?GetHeight@ioWnd@@QBEHXZ:PROC
EXTRN	__imp_?OnRender@ioWnd@@MAEXXZ:PROC
; Function compile flags: /Ogsp
; File d:\lost saga for developer\youtube\tutorial\source\src\lsclient\gui\tooltiphelpwnd.cpp
;	COMDAT ?OnRender@TooltipHelpWnd@@MAEXXZ
_TEXT	SEGMENT
?OnRender@TooltipHelpWnd@@MAEXXZ PROC			; TooltipHelpWnd::OnRender, COMDAT
; _this$ = ecx

; 209  : {

  00000	56		 push	 esi
  00001	8b f1		 mov	 esi, ecx

; 210  : 	ioWnd::OnRender();

  00003	ff 15 00 00 00
	00		 call	 DWORD PTR __imp_?OnRender@ioWnd@@MAEXXZ

; 211  :  
; 212  : 	switch( m_iTooltipType )

  00009	8b 86 84 01 00
	00		 mov	 eax, DWORD PTR [esi+388]
  0000f	48		 dec	 eax
  00010	0f 84 94 00 00
	00		 je	 $LN4@OnRender
  00016	48		 dec	 eax
  00017	74 64		 je	 SHORT $LN3@OnRender
  00019	48		 dec	 eax
  0001a	74 34		 je	 SHORT $LN2@OnRender
  0001c	48		 dec	 eax
  0001d	0f 85 b2 00 00
	00		 jne	 $LN5@OnRender

; 222  : 		break;
; 223  : 	case TOOLTIP_RIGHTBOTTOM:
; 224  : 		OnRenderRightBottom( GetDerivedPosX(),GetDerivedPosY(), GetWidth(), GetHeight() );

  00023	8b ce		 mov	 ecx, esi
  00025	ff 15 00 00 00
	00		 call	 DWORD PTR __imp_?GetHeight@ioWnd@@QBEHXZ
  0002b	50		 push	 eax
  0002c	8b ce		 mov	 ecx, esi
  0002e	ff 15 00 00 00
	00		 call	 DWORD PTR __imp_?GetWidth@ioWnd@@QBEHXZ
  00034	50		 push	 eax
  00035	8b ce		 mov	 ecx, esi
  00037	ff 15 00 00 00
	00		 call	 DWORD PTR __imp_?GetDerivedPosY@ioWnd@@QBEHXZ
  0003d	50		 push	 eax
  0003e	8b ce		 mov	 ecx, esi
  00040	ff 15 00 00 00
	00		 call	 DWORD PTR __imp_?GetDerivedPosX@ioWnd@@QBEHXZ
  00046	50		 push	 eax
  00047	8b ce		 mov	 ecx, esi
  00049	e8 00 00 00 00	 call	 ?OnRenderRightBottom@TooltipHelpWnd@@IAEXHHHH@Z ; TooltipHelpWnd::OnRenderRightBottom
  0004e	5e		 pop	 esi

; 225  : 		break;
; 226  : 	}	
; 227  : }

  0004f	c3		 ret	 0
$LN2@OnRender:

; 219  : 		break;
; 220  : 	case TOOLTIP_LEFTBOTTOM:
; 221  : 		OnRenderLeftBottom( GetDerivedPosX(),GetDerivedPosY(), GetWidth(), GetHeight() );

  00050	8b ce		 mov	 ecx, esi
  00052	ff 15 00 00 00
	00		 call	 DWORD PTR __imp_?GetHeight@ioWnd@@QBEHXZ
  00058	50		 push	 eax
  00059	8b ce		 mov	 ecx, esi
  0005b	ff 15 00 00 00
	00		 call	 DWORD PTR __imp_?GetWidth@ioWnd@@QBEHXZ
  00061	50		 push	 eax
  00062	8b ce		 mov	 ecx, esi
  00064	ff 15 00 00 00
	00		 call	 DWORD PTR __imp_?GetDerivedPosY@ioWnd@@QBEHXZ
  0006a	50		 push	 eax
  0006b	8b ce		 mov	 ecx, esi
  0006d	ff 15 00 00 00
	00		 call	 DWORD PTR __imp_?GetDerivedPosX@ioWnd@@QBEHXZ
  00073	50		 push	 eax
  00074	8b ce		 mov	 ecx, esi
  00076	e8 00 00 00 00	 call	 ?OnRenderLeftBottom@TooltipHelpWnd@@IAEXHHHH@Z ; TooltipHelpWnd::OnRenderLeftBottom
  0007b	5e		 pop	 esi

; 225  : 		break;
; 226  : 	}	
; 227  : }

  0007c	c3		 ret	 0
$LN3@OnRender:

; 216  : 		break;
; 217  : 	case TOOLTIP_RIGHTTOP:
; 218  : 		OnRenderRightTop( GetDerivedPosX(),GetDerivedPosY(), GetWidth(), GetHeight() );

  0007d	8b ce		 mov	 ecx, esi
  0007f	ff 15 00 00 00
	00		 call	 DWORD PTR __imp_?GetHeight@ioWnd@@QBEHXZ
  00085	50		 push	 eax
  00086	8b ce		 mov	 ecx, esi
  00088	ff 15 00 00 00
	00		 call	 DWORD PTR __imp_?GetWidth@ioWnd@@QBEHXZ
  0008e	50		 push	 eax
  0008f	8b ce		 mov	 ecx, esi
  00091	ff 15 00 00 00
	00		 call	 DWORD PTR __imp_?GetDerivedPosY@ioWnd@@QBEHXZ
  00097	50		 push	 eax
  00098	8b ce		 mov	 ecx, esi
  0009a	ff 15 00 00 00
	00		 call	 DWORD PTR __imp_?GetDerivedPosX@ioWnd@@QBEHXZ
  000a0	50		 push	 eax
  000a1	8b ce		 mov	 ecx, esi
  000a3	e8 00 00 00 00	 call	 ?OnRenderRightTop@TooltipHelpWnd@@IAEXHHHH@Z ; TooltipHelpWnd::OnRenderRightTop
  000a8	5e		 pop	 esi

; 225  : 		break;
; 226  : 	}	
; 227  : }

  000a9	c3		 ret	 0
$LN4@OnRender:

; 213  : 	{
; 214  : 	case TOOLTIP_LEFTTOP:
; 215  : 		OnRenderLeftTop( GetDerivedPosX(),GetDerivedPosY(), GetWidth(), GetHeight() );

  000aa	8b ce		 mov	 ecx, esi
  000ac	ff 15 00 00 00
	00		 call	 DWORD PTR __imp_?GetHeight@ioWnd@@QBEHXZ
  000b2	50		 push	 eax
  000b3	8b ce		 mov	 ecx, esi
  000b5	ff 15 00 00 00
	00		 call	 DWORD PTR __imp_?GetWidth@ioWnd@@QBEHXZ
  000bb	50		 push	 eax
  000bc	8b ce		 mov	 ecx, esi
  000be	ff 15 00 00 00
	00		 call	 DWORD PTR __imp_?GetDerivedPosY@ioWnd@@QBEHXZ
  000c4	50		 push	 eax
  000c5	8b ce		 mov	 ecx, esi
  000c7	ff 15 00 00 00
	00		 call	 DWORD PTR __imp_?GetDerivedPosX@ioWnd@@QBEHXZ
  000cd	50		 push	 eax
  000ce	8b ce		 mov	 ecx, esi
  000d0	e8 00 00 00 00	 call	 ?OnRenderLeftTop@TooltipHelpWnd@@IAEXHHHH@Z ; TooltipHelpWnd::OnRenderLeftTop
$LN5@OnRender:
  000d5	5e		 pop	 esi

; 225  : 		break;
; 226  : 	}	
; 227  : }

  000d6	c3		 ret	 0
?OnRender@TooltipHelpWnd@@MAEXXZ ENDP			; TooltipHelpWnd::OnRender
_TEXT	ENDS
PUBLIC	?begin@?$vector@UTooltip@ioWnd@@V?$allocator@UTooltip@ioWnd@@@std@@@std@@QAE?AV?$_Vector_iterator@V?$_Vector_val@UTooltip@ioWnd@@V?$allocator@UTooltip@ioWnd@@@std@@@std@@@2@XZ ; std::vector<ioWnd::Tooltip,std::allocator<ioWnd::Tooltip> >::begin
; Function compile flags: /Ogsp
; File c:\program files (x86)\microsoft visual studio 10.0\vc\include\vector
;	COMDAT ?begin@?$vector@UTooltip@ioWnd@@V?$allocator@UTooltip@ioWnd@@@std@@@std@@QAE?AV?$_Vector_iterator@V?$_Vector_val@UTooltip@ioWnd@@V?$allocator@UTooltip@ioWnd@@@std@@@std@@@2@XZ
_TEXT	SEGMENT
___$ReturnUdt$ = 8					; size = 4
?begin@?$vector@UTooltip@ioWnd@@V?$allocator@UTooltip@ioWnd@@@std@@@std@@QAE?AV?$_Vector_iterator@V?$_Vector_val@UTooltip@ioWnd@@V?$allocator@UTooltip@ioWnd@@@std@@@std@@@2@XZ PROC ; std::vector<ioWnd::Tooltip,std::allocator<ioWnd::Tooltip> >::begin, COMDAT
; _this$ = ecx

; 781  : 		{	// return iterator for beginning of mutable sequence

  00000	55		 push	 ebp
  00001	8b ec		 mov	 ebp, esp

; 782  : 		return (iterator(this->_Myfirst, this));

  00003	8b 09		 mov	 ecx, DWORD PTR [ecx]
  00005	8b 45 08	 mov	 eax, DWORD PTR ___$ReturnUdt$[ebp]
  00008	89 08		 mov	 DWORD PTR [eax], ecx

; 783  : 		}

  0000a	5d		 pop	 ebp
  0000b	c2 04 00	 ret	 4
?begin@?$vector@UTooltip@ioWnd@@V?$allocator@UTooltip@ioWnd@@@std@@@std@@QAE?AV?$_Vector_iterator@V?$_Vector_val@UTooltip@ioWnd@@V?$allocator@UTooltip@ioWnd@@@std@@@std@@@2@XZ ENDP ; std::vector<ioWnd::Tooltip,std::allocator<ioWnd::Tooltip> >::begin
_TEXT	ENDS
PUBLIC	?end@?$vector@UTooltip@ioWnd@@V?$allocator@UTooltip@ioWnd@@@std@@@std@@QAE?AV?$_Vector_iterator@V?$_Vector_val@UTooltip@ioWnd@@V?$allocator@UTooltip@ioWnd@@@std@@@std@@@2@XZ ; std::vector<ioWnd::Tooltip,std::allocator<ioWnd::Tooltip> >::end
; Function compile flags: /Ogsp
;	COMDAT ?end@?$vector@UTooltip@ioWnd@@V?$allocator@UTooltip@ioWnd@@@std@@@std@@QAE?AV?$_Vector_iterator@V?$_Vector_val@UTooltip@ioWnd@@V?$allocator@UTooltip@ioWnd@@@std@@@std@@@2@XZ
_TEXT	SEGMENT
___$ReturnUdt$ = 8					; size = 4
?end@?$vector@UTooltip@ioWnd@@V?$allocator@UTooltip@ioWnd@@@std@@@std@@QAE?AV?$_Vector_iterator@V?$_Vector_val@UTooltip@ioWnd@@V?$allocator@UTooltip@ioWnd@@@std@@@std@@@2@XZ PROC ; std::vector<ioWnd::Tooltip,std::allocator<ioWnd::Tooltip> >::end, COMDAT
; _this$ = ecx

; 791  : 		{	// return iterator for end of mutable sequence

  00000	55		 push	 ebp
  00001	8b ec		 mov	 ebp, esp

; 792  : 		return (iterator(this->_Mylast, this));

  00003	8b 49 04	 mov	 ecx, DWORD PTR [ecx+4]
  00006	8b 45 08	 mov	 eax, DWORD PTR ___$ReturnUdt$[ebp]
  00009	89 08		 mov	 DWORD PTR [eax], ecx

; 793  : 		}

  0000b	5d		 pop	 ebp
  0000c	c2 04 00	 ret	 4
?end@?$vector@UTooltip@ioWnd@@V?$allocator@UTooltip@ioWnd@@@std@@@std@@QAE?AV?$_Vector_iterator@V?$_Vector_val@UTooltip@ioWnd@@V?$allocator@UTooltip@ioWnd@@@std@@@std@@@2@XZ ENDP ; std::vector<ioWnd::Tooltip,std::allocator<ioWnd::Tooltip> >::end
_TEXT	ENDS
PUBLIC	?_Make_iter@?$vector@UTooltip@ioWnd@@V?$allocator@UTooltip@ioWnd@@@std@@@std@@QBE?AV?$_Vector_iterator@V?$_Vector_val@UTooltip@ioWnd@@V?$allocator@UTooltip@ioWnd@@@std@@@std@@@2@V?$_Vector_const_iterator@V?$_Vector_val@UTooltip@ioWnd@@V?$allocator@UTooltip@ioWnd@@@std@@@std@@@2@@Z ; std::vector<ioWnd::Tooltip,std::allocator<ioWnd::Tooltip> >::_Make_iter
; Function compile flags: /Ogsp
;	COMDAT ?_Make_iter@?$vector@UTooltip@ioWnd@@V?$allocator@UTooltip@ioWnd@@@std@@@std@@QBE?AV?$_Vector_iterator@V?$_Vector_val@UTooltip@ioWnd@@V?$allocator@UTooltip@ioWnd@@@std@@@std@@@2@V?$_Vector_const_iterator@V?$_Vector_val@UTooltip@ioWnd@@V?$allocator@UTooltip@ioWnd@@@std@@@std@@@2@@Z
_TEXT	SEGMENT
___$ReturnUdt$ = 8					; size = 4
__Where$ = 12						; size = 4
?_Make_iter@?$vector@UTooltip@ioWnd@@V?$allocator@UTooltip@ioWnd@@@std@@@std@@QBE?AV?$_Vector_iterator@V?$_Vector_val@UTooltip@ioWnd@@V?$allocator@UTooltip@ioWnd@@@std@@@std@@@2@V?$_Vector_const_iterator@V?$_Vector_val@UTooltip@ioWnd@@V?$allocator@UTooltip@ioWnd@@@std@@@std@@@2@@Z PROC ; std::vector<ioWnd::Tooltip,std::allocator<ioWnd::Tooltip> >::_Make_iter, COMDAT
; _this$ = ecx

; 801  : 		{	// make iterator from const_iterator

  00000	55		 push	 ebp
  00001	8b ec		 mov	 ebp, esp

; 802  : 		return (iterator(_Where._Ptr, this));

  00003	8b 45 08	 mov	 eax, DWORD PTR ___$ReturnUdt$[ebp]
  00006	8b 4d 0c	 mov	 ecx, DWORD PTR __Where$[ebp]
  00009	89 08		 mov	 DWORD PTR [eax], ecx

; 803  : 		}

  0000b	5d		 pop	 ebp
  0000c	c2 08 00	 ret	 8
?_Make_iter@?$vector@UTooltip@ioWnd@@V?$allocator@UTooltip@ioWnd@@@std@@@std@@QBE?AV?$_Vector_iterator@V?$_Vector_val@UTooltip@ioWnd@@V?$allocator@UTooltip@ioWnd@@@std@@@std@@@2@V?$_Vector_const_iterator@V?$_Vector_val@UTooltip@ioWnd@@V?$allocator@UTooltip@ioWnd@@@std@@@std@@@2@@Z ENDP ; std::vector<ioWnd::Tooltip,std::allocator<ioWnd::Tooltip> >::_Make_iter
_TEXT	ENDS
PUBLIC	??$_Cons_val@V?$allocator@UTooltip@ioWnd@@@std@@UTooltip@ioWnd@@ABU34@@std@@YAXAAV?$allocator@UTooltip@ioWnd@@@0@PAUTooltip@ioWnd@@ABU23@@Z ; std::_Cons_val<std::allocator<ioWnd::Tooltip>,ioWnd::Tooltip,ioWnd::Tooltip const &>
; Function compile flags: /Ogsp
; File c:\program files (x86)\microsoft visual studio 10.0\vc\include\xmemory
;	COMDAT ??$_Cons_val@V?$allocator@UTooltip@ioWnd@@@std@@UTooltip@ioWnd@@ABU34@@std@@YAXAAV?$allocator@UTooltip@ioWnd@@@0@PAUTooltip@ioWnd@@ABU23@@Z
_TEXT	SEGMENT
__Alval$ = 8						; size = 4
__Pdest$ = 12						; size = 4
__Src$ = 16						; size = 4
??$_Cons_val@V?$allocator@UTooltip@ioWnd@@@std@@UTooltip@ioWnd@@ABU34@@std@@YAXAAV?$allocator@UTooltip@ioWnd@@@0@PAUTooltip@ioWnd@@ABU23@@Z PROC ; std::_Cons_val<std::allocator<ioWnd::Tooltip>,ioWnd::Tooltip,ioWnd::Tooltip const &>, COMDAT

; 279  : 	{	// construct using allocator

  00000	55		 push	 ebp
  00001	8b ec		 mov	 ebp, esp

; 280  : 	_Alval.construct(_Pdest, _STD forward<_Ty2>(_Src));

  00003	ff 75 10	 push	 DWORD PTR __Src$[ebp]
  00006	ff 75 0c	 push	 DWORD PTR __Pdest$[ebp]
  00009	e8 00 00 00 00	 call	 ??$_Construct@UTooltip@ioWnd@@ABU12@@std@@YAXPAUTooltip@ioWnd@@ABU12@@Z ; std::_Construct<ioWnd::Tooltip,ioWnd::Tooltip const &>
  0000e	59		 pop	 ecx
  0000f	59		 pop	 ecx

; 281  : 	}

  00010	5d		 pop	 ebp
  00011	c3		 ret	 0
??$_Cons_val@V?$allocator@UTooltip@ioWnd@@@std@@UTooltip@ioWnd@@ABU34@@std@@YAXAAV?$allocator@UTooltip@ioWnd@@@0@PAUTooltip@ioWnd@@ABU23@@Z ENDP ; std::_Cons_val<std::allocator<ioWnd::Tooltip>,ioWnd::Tooltip,ioWnd::Tooltip const &>
_TEXT	ENDS
PUBLIC	??$_Dest_val@V?$allocator@UTooltip@ioWnd@@@std@@UTooltip@ioWnd@@@std@@YAXAAV?$allocator@UTooltip@ioWnd@@@0@PAUTooltip@ioWnd@@@Z ; std::_Dest_val<std::allocator<ioWnd::Tooltip>,ioWnd::Tooltip>
; Function compile flags: /Ogsp
;	COMDAT ??$_Dest_val@V?$allocator@UTooltip@ioWnd@@@std@@UTooltip@ioWnd@@@std@@YAXAAV?$allocator@UTooltip@ioWnd@@@0@PAUTooltip@ioWnd@@@Z
_TEXT	SEGMENT
__Alval$ = 8						; size = 4
__Pdest$ = 12						; size = 4
??$_Dest_val@V?$allocator@UTooltip@ioWnd@@@std@@UTooltip@ioWnd@@@std@@YAXAAV?$allocator@UTooltip@ioWnd@@@0@PAUTooltip@ioWnd@@@Z PROC ; std::_Dest_val<std::allocator<ioWnd::Tooltip>,ioWnd::Tooltip>, COMDAT

; 286  : 	{	// destroy using allocator

  00000	55		 push	 ebp
  00001	8b ec		 mov	 ebp, esp

; 287  : 	_Alval.destroy(_Pdest);

  00003	8b 4d 0c	 mov	 ecx, DWORD PTR __Pdest$[ebp]
  00006	83 c1 08	 add	 ecx, 8

; 288  : 	}

  00009	5d		 pop	 ebp

; 287  : 	_Alval.destroy(_Pdest);

  0000a	ff 25 00 00 00
	00		 jmp	 DWORD PTR __imp_??1ioHashString@@QAE@XZ
??$_Dest_val@V?$allocator@UTooltip@ioWnd@@@std@@UTooltip@ioWnd@@@std@@YAXAAV?$allocator@UTooltip@ioWnd@@@0@PAUTooltip@ioWnd@@@Z ENDP ; std::_Dest_val<std::allocator<ioWnd::Tooltip>,ioWnd::Tooltip>
_TEXT	ENDS
PUBLIC	??$_Destroy_range@V?$allocator@UTooltip@ioWnd@@@std@@@std@@YAXPAUTooltip@ioWnd@@0AAV?$allocator@UTooltip@ioWnd@@@0@U_Nonscalar_ptr_iterator_tag@0@@Z ; std::_Destroy_range<std::allocator<ioWnd::Tooltip> >
; Function compile flags: /Ogsp
;	COMDAT ??$_Destroy_range@V?$allocator@UTooltip@ioWnd@@@std@@@std@@YAXPAUTooltip@ioWnd@@0AAV?$allocator@UTooltip@ioWnd@@@0@U_Nonscalar_ptr_iterator_tag@0@@Z
_TEXT	SEGMENT
__First$ = 8						; size = 4
__Last$ = 12						; size = 4
__Al$ = 16						; size = 4
___formal$ = 20						; size = 1
??$_Destroy_range@V?$allocator@UTooltip@ioWnd@@@std@@@std@@YAXPAUTooltip@ioWnd@@0AAV?$allocator@UTooltip@ioWnd@@@0@U_Nonscalar_ptr_iterator_tag@0@@Z PROC ; std::_Destroy_range<std::allocator<ioWnd::Tooltip> >, COMDAT

; 95   : 	{	// destroy [_First, _Last), arbitrary type

  00000	55		 push	 ebp
  00001	8b ec		 mov	 ebp, esp
  00003	56		 push	 esi

; 96   : 	for (; _First != _Last; ++_First)

  00004	8b 75 08	 mov	 esi, DWORD PTR __First$[ebp]
  00007	eb 0c		 jmp	 SHORT $LN20@Destroy_ra
$LL3@Destroy_ra:

; 97   : 		_Dest_val(_Al, _First);

  00009	8d 4e 08	 lea	 ecx, DWORD PTR [esi+8]
  0000c	ff 15 00 00 00
	00		 call	 DWORD PTR __imp_??1ioHashString@@QAE@XZ
  00012	83 c6 18	 add	 esi, 24			; 00000018H
$LN20@Destroy_ra:

; 96   : 	for (; _First != _Last; ++_First)

  00015	3b 75 0c	 cmp	 esi, DWORD PTR __Last$[ebp]
  00018	75 ef		 jne	 SHORT $LL3@Destroy_ra
  0001a	5e		 pop	 esi

; 98   : 	}

  0001b	5d		 pop	 ebp
  0001c	c3		 ret	 0
??$_Destroy_range@V?$allocator@UTooltip@ioWnd@@@std@@@std@@YAXPAUTooltip@ioWnd@@0AAV?$allocator@UTooltip@ioWnd@@@0@U_Nonscalar_ptr_iterator_tag@0@@Z ENDP ; std::_Destroy_range<std::allocator<ioWnd::Tooltip> >
_TEXT	ENDS
PUBLIC	??$_Uninit_move@PAUTooltip@ioWnd@@PAU12@V?$allocator@UTooltip@ioWnd@@@std@@U12@@std@@YAPAUTooltip@ioWnd@@PAU12@00AAV?$allocator@UTooltip@ioWnd@@@0@0U_Nonscalar_ptr_iterator_tag@0@@Z ; std::_Uninit_move<ioWnd::Tooltip *,ioWnd::Tooltip *,std::allocator<ioWnd::Tooltip>,ioWnd::Tooltip>
EXTRN	__EH_prolog3_catch:PROC
;	COMDAT xdata$x
; File d:\lost saga for developer\youtube\tutorial\source\src\lsclient\gui\tooltiphelpwnd.cpp
xdata$x	SEGMENT
__catchsym$??$_Uninit_move@PAUTooltip@ioWnd@@PAU12@V?$allocator@UTooltip@ioWnd@@@std@@U12@@std@@YAPAUTooltip@ioWnd@@PAU12@00AAV?$allocator@UTooltip@ioWnd@@@0@0U_Nonscalar_ptr_iterator_tag@0@@Z$3 DD 040H
	DD	00H
	DD	00H
	DD	FLAT:__catch$??$_Uninit_move@PAUTooltip@ioWnd@@PAU12@V?$allocator@UTooltip@ioWnd@@@std@@U12@@std@@YAPAUTooltip@ioWnd@@PAU12@00AAV?$allocator@UTooltip@ioWnd@@@0@0U_Nonscalar_ptr_iterator_tag@0@@Z$0
__unwindtable$??$_Uninit_move@PAUTooltip@ioWnd@@PAU12@V?$allocator@UTooltip@ioWnd@@@std@@U12@@std@@YAPAUTooltip@ioWnd@@PAU12@00AAV?$allocator@UTooltip@ioWnd@@@0@0U_Nonscalar_ptr_iterator_tag@0@@Z DD 0ffffffffH
	DD	00H
	DD	0ffffffffH
	DD	00H
__tryblocktable$??$_Uninit_move@PAUTooltip@ioWnd@@PAU12@V?$allocator@UTooltip@ioWnd@@@std@@U12@@std@@YAPAUTooltip@ioWnd@@PAU12@00AAV?$allocator@UTooltip@ioWnd@@@0@0U_Nonscalar_ptr_iterator_tag@0@@Z DD 00H
	DD	00H
	DD	01H
	DD	01H
	DD	FLAT:__catchsym$??$_Uninit_move@PAUTooltip@ioWnd@@PAU12@V?$allocator@UTooltip@ioWnd@@@std@@U12@@std@@YAPAUTooltip@ioWnd@@PAU12@00AAV?$allocator@UTooltip@ioWnd@@@0@0U_Nonscalar_ptr_iterator_tag@0@@Z$3
__ehfuncinfo$??$_Uninit_move@PAUTooltip@ioWnd@@PAU12@V?$allocator@UTooltip@ioWnd@@@std@@U12@@std@@YAPAUTooltip@ioWnd@@PAU12@00AAV?$allocator@UTooltip@ioWnd@@@0@0U_Nonscalar_ptr_iterator_tag@0@@Z DD 019930522H
	DD	02H
	DD	FLAT:__unwindtable$??$_Uninit_move@PAUTooltip@ioWnd@@PAU12@V?$allocator@UTooltip@ioWnd@@@std@@U12@@std@@YAPAUTooltip@ioWnd@@PAU12@00AAV?$allocator@UTooltip@ioWnd@@@0@0U_Nonscalar_ptr_iterator_tag@0@@Z
	DD	01H
	DD	FLAT:__tryblocktable$??$_Uninit_move@PAUTooltip@ioWnd@@PAU12@V?$allocator@UTooltip@ioWnd@@@std@@U12@@std@@YAPAUTooltip@ioWnd@@PAU12@00AAV?$allocator@UTooltip@ioWnd@@@0@0U_Nonscalar_ptr_iterator_tag@0@@Z
	DD	2 DUP(00H)
	DD	00H
	DD	01H
; Function compile flags: /Ogsp
; File c:\program files (x86)\microsoft visual studio 10.0\vc\include\memory
xdata$x	ENDS
;	COMDAT ??$_Uninit_move@PAUTooltip@ioWnd@@PAU12@V?$allocator@UTooltip@ioWnd@@@std@@U12@@std@@YAPAUTooltip@ioWnd@@PAU12@00AAV?$allocator@UTooltip@ioWnd@@@0@0U_Nonscalar_ptr_iterator_tag@0@@Z
_TEXT	SEGMENT
__Next$ = -20						; size = 4
__$EHRec$ = -16						; size = 16
__First$ = 8						; size = 4
__Last$ = 12						; size = 4
__Dest$ = 16						; size = 4
__Al$ = 20						; size = 4
___formal$ = 24						; size = 4
___formal$ = 28						; size = 1
??$_Uninit_move@PAUTooltip@ioWnd@@PAU12@V?$allocator@UTooltip@ioWnd@@@std@@U12@@std@@YAPAUTooltip@ioWnd@@PAU12@00AAV?$allocator@UTooltip@ioWnd@@@0@0U_Nonscalar_ptr_iterator_tag@0@@Z PROC ; std::_Uninit_move<ioWnd::Tooltip *,ioWnd::Tooltip *,std::allocator<ioWnd::Tooltip>,ioWnd::Tooltip>, COMDAT

; 424  : 	{	// move [_First, _Last) to raw _Dest, using _Al, arbitrary type

  00000	6a 08		 push	 8
  00002	b8 00 00 00 00	 mov	 eax, __ehhandler$??$_Uninit_move@PAUTooltip@ioWnd@@PAU12@V?$allocator@UTooltip@ioWnd@@@std@@U12@@std@@YAPAUTooltip@ioWnd@@PAU12@00AAV?$allocator@UTooltip@ioWnd@@@0@0U_Nonscalar_ptr_iterator_tag@0@@Z
  00007	e8 00 00 00 00	 call	 __EH_prolog3_catch

; 425  : 	_DEBUG_RANGE(_First, _Last);
; 426  : 	_DEBUG_POINTER(_Dest);
; 427  : 	_FwdIt _Next = _Dest;

  0000c	8b 45 10	 mov	 eax, DWORD PTR __Dest$[ebp]

; 428  : 
; 429  : 	_TRY_BEGIN

  0000f	83 65 fc 00	 and	 DWORD PTR __$EHRec$[ebp+12], 0
  00013	8b 75 08	 mov	 esi, DWORD PTR __First$[ebp]
  00016	89 45 ec	 mov	 DWORD PTR __Next$[ebp], eax
$LL6@Uninit_mov:

; 430  : 	for (; _First != _Last; ++_Dest, ++_First)

  00019	3b 75 0c	 cmp	 esi, DWORD PTR __Last$[ebp]
  0001c	74 37		 je	 SHORT $LN4@Uninit_mov

; 431  : 		_Cons_val(_Al, _Dest, (_Valty &&)*_First);

  0001e	56		 push	 esi
  0001f	ff 75 10	 push	 DWORD PTR __Dest$[ebp]
  00022	ff 75 14	 push	 DWORD PTR __Al$[ebp]
  00025	e8 00 00 00 00	 call	 ??$_Cons_val@V?$allocator@UTooltip@ioWnd@@@std@@UTooltip@ioWnd@@U34@@std@@YAXAAV?$allocator@UTooltip@ioWnd@@@0@PAUTooltip@ioWnd@@$$QAU23@@Z ; std::_Cons_val<std::allocator<ioWnd::Tooltip>,ioWnd::Tooltip,ioWnd::Tooltip>
  0002a	83 45 10 18	 add	 DWORD PTR __Dest$[ebp], 24 ; 00000018H
  0002e	83 c4 0c	 add	 esp, 12			; 0000000cH
  00031	83 c6 18	 add	 esi, 24			; 00000018H
  00034	eb e3		 jmp	 SHORT $LL6@Uninit_mov
__catch$??$_Uninit_move@PAUTooltip@ioWnd@@PAU12@V?$allocator@UTooltip@ioWnd@@@std@@U12@@std@@YAPAUTooltip@ioWnd@@PAU12@00AAV?$allocator@UTooltip@ioWnd@@@0@0U_Nonscalar_ptr_iterator_tag@0@@Z$0:

; 432  : 	_CATCH_ALL
; 433  : 	for (; _Next != _Dest; ++_Next)

  00036	8b 75 ec	 mov	 esi, DWORD PTR __Next$[ebp]
  00039	eb 0c		 jmp	 SHORT $LN32@Uninit_mov
$LL3@Uninit_mov:

; 434  : 		_Dest_val(_Al, _Next);

  0003b	8d 4e 08	 lea	 ecx, DWORD PTR [esi+8]
  0003e	ff 15 00 00 00
	00		 call	 DWORD PTR __imp_??1ioHashString@@QAE@XZ
  00044	83 c6 18	 add	 esi, 24			; 00000018H
$LN32@Uninit_mov:

; 432  : 	_CATCH_ALL
; 433  : 	for (; _Next != _Dest; ++_Next)

  00047	3b 75 10	 cmp	 esi, DWORD PTR __Dest$[ebp]
  0004a	75 ef		 jne	 SHORT $LL3@Uninit_mov

; 435  : 	_RERAISE;

  0004c	6a 00		 push	 0
  0004e	6a 00		 push	 0
  00050	e8 00 00 00 00	 call	 __CxxThrowException@8
$LN33@Uninit_mov:
$LN4@Uninit_mov:

; 436  : 	_CATCH_END
; 437  : 	return (_Dest);

  00055	8b 45 10	 mov	 eax, DWORD PTR __Dest$[ebp]

; 438  : 	}

  00058	e8 00 00 00 00	 call	 __EH_epilog3
  0005d	c3		 ret	 0
$LN31@Uninit_mov:
_TEXT	ENDS
;	COMDAT text$x
text$x	SEGMENT
__ehhandler$??$_Uninit_move@PAUTooltip@ioWnd@@PAU12@V?$allocator@UTooltip@ioWnd@@@std@@U12@@std@@YAPAUTooltip@ioWnd@@PAU12@00AAV?$allocator@UTooltip@ioWnd@@@0@0U_Nonscalar_ptr_iterator_tag@0@@Z:
  00000	8b 54 24 08	 mov	 edx, DWORD PTR [esp+8]
  00004	8d 42 0c	 lea	 eax, DWORD PTR [edx+12]
  00007	8b 4a e8	 mov	 ecx, DWORD PTR [edx-24]
  0000a	33 c8		 xor	 ecx, eax
  0000c	e8 00 00 00 00	 call	 @__security_check_cookie@4
  00011	b8 00 00 00 00	 mov	 eax, OFFSET __ehfuncinfo$??$_Uninit_move@PAUTooltip@ioWnd@@PAU12@V?$allocator@UTooltip@ioWnd@@@std@@U12@@std@@YAPAUTooltip@ioWnd@@PAU12@00AAV?$allocator@UTooltip@ioWnd@@@0@0U_Nonscalar_ptr_iterator_tag@0@@Z
  00016	e9 00 00 00 00	 jmp	 ___CxxFrameHandler3
text$x	ENDS
??$_Uninit_move@PAUTooltip@ioWnd@@PAU12@V?$allocator@UTooltip@ioWnd@@@std@@U12@@std@@YAPAUTooltip@ioWnd@@PAU12@00AAV?$allocator@UTooltip@ioWnd@@@0@0U_Nonscalar_ptr_iterator_tag@0@@Z ENDP ; std::_Uninit_move<ioWnd::Tooltip *,ioWnd::Tooltip *,std::allocator<ioWnd::Tooltip>,ioWnd::Tooltip>
PUBLIC	??$_Destroy_range@V?$allocator@UTooltip@ioWnd@@@std@@@std@@YAXPAUTooltip@ioWnd@@0AAV?$allocator@UTooltip@ioWnd@@@0@@Z ; std::_Destroy_range<std::allocator<ioWnd::Tooltip> >
; Function compile flags: /Ogsp
; File c:\program files (x86)\microsoft visual studio 10.0\vc\include\xmemory
;	COMDAT ??$_Destroy_range@V?$allocator@UTooltip@ioWnd@@@std@@@std@@YAXPAUTooltip@ioWnd@@0AAV?$allocator@UTooltip@ioWnd@@@0@@Z
_TEXT	SEGMENT
__First$ = 8						; size = 4
__Last$ = 12						; size = 4
__Al$ = 16						; size = 4
??$_Destroy_range@V?$allocator@UTooltip@ioWnd@@@std@@@std@@YAXPAUTooltip@ioWnd@@0AAV?$allocator@UTooltip@ioWnd@@@0@@Z PROC ; std::_Destroy_range<std::allocator<ioWnd::Tooltip> >, COMDAT

; 87   : 	{	// destroy [_First, _Last)

  00000	55		 push	 ebp
  00001	8b ec		 mov	 ebp, esp
  00003	56		 push	 esi

; 88   : 	_Destroy_range(_First, _Last, _Al, _Ptr_cat(_First, _Last));

  00004	8b 75 08	 mov	 esi, DWORD PTR __First$[ebp]
  00007	eb 0c		 jmp	 SHORT $LN24@Destroy_ra@2
$LL7@Destroy_ra@2:
  00009	8d 4e 08	 lea	 ecx, DWORD PTR [esi+8]
  0000c	ff 15 00 00 00
	00		 call	 DWORD PTR __imp_??1ioHashString@@QAE@XZ
  00012	83 c6 18	 add	 esi, 24			; 00000018H
$LN24@Destroy_ra@2:
  00015	3b 75 0c	 cmp	 esi, DWORD PTR __Last$[ebp]
  00018	75 ef		 jne	 SHORT $LL7@Destroy_ra@2
  0001a	5e		 pop	 esi

