; Listing generated by Microsoft (R) Optimizing Compiler Version 16.00.30319.01 

	TITLE	D:\Lost Saga For Developer\Youtube\Tutorial\Source\src\LSClient\GUI\TotalResultMainWnd.cpp
	.686P
	.XMM
	include listing.inc
	.model	flat

INCLUDELIB MSVCRT
INCLUDELIB OLDNAMES

PUBLIC	?_EEM_DS@?$deque@UD3DXVECTOR3@@V?$allocator@UD3DXVECTOR3@@@std@@@std@@2HB ; std::deque<D3DXVECTOR3,std::allocator<D3DXVECTOR3> >::_EEM_DS
PUBLIC	?sg_iMyAwardCount@AwardSlotWnd@@1HA		; AwardSlotWnd::sg_iMyAwardCount
PUBLIC	?sg_bHelpBarShow@TotalResultMainWnd@@1_NA	; TotalResultMainWnd::sg_bHelpBarShow
PUBLIC	?sg_bLevelGaugeAniEnd@TotalResultMainWnd@@1_NA	; TotalResultMainWnd::sg_bLevelGaugeAniEnd
_BSS	SEGMENT
?sg_iMyAwardCount@AwardSlotWnd@@1HA DD 01H DUP (?)	; AwardSlotWnd::sg_iMyAwardCount
?sg_bHelpBarShow@TotalResultMainWnd@@1_NA DB 01H DUP (?) ; TotalResultMainWnd::sg_bHelpBarShow
	ALIGN	4

?sg_bLevelGaugeAniEnd@TotalResultMainWnd@@1_NA DB 01H DUP (?) ; TotalResultMainWnd::sg_bLevelGaugeAniEnd
_BSS	ENDS
;	COMDAT ?_EEM_DS@?$deque@UD3DXVECTOR3@@V?$allocator@UD3DXVECTOR3@@@std@@@std@@2HB
CONST	SEGMENT
?_EEM_DS@?$deque@UD3DXVECTOR3@@V?$allocator@UD3DXVECTOR3@@@std@@@std@@2HB DD 01H ; std::deque<D3DXVECTOR3,std::allocator<D3DXVECTOR3> >::_EEM_DS
CONST	ENDS
PUBLIC	?return1@@YAIXZ					; return1
; Function compile flags: /Ogsp
; File d:\lost saga for developer\youtube\tutorial\source\src\lsclient\stdafx.h
;	COMDAT ?return1@@YAIXZ
_TEXT	SEGMENT
?return1@@YAIXZ PROC					; return1, COMDAT

; 17   : 	__forceinline unsigned int return1() { __asm mov eax, 1 };

  00000	b8 01 00 00 00	 mov	 eax, 1
  00005	c3		 ret	 0
?return1@@YAIXZ ENDP					; return1
_TEXT	ENDS
PUBLIC	?return5@@YAIXZ					; return5
; Function compile flags: /Ogsp
;	COMDAT ?return5@@YAIXZ
_TEXT	SEGMENT
?return5@@YAIXZ PROC					; return5, COMDAT

; 18   : 	__forceinline unsigned int return5() { __asm mov eax, 5 };

  00000	b8 05 00 00 00	 mov	 eax, 5
  00005	c3		 ret	 0
?return5@@YAIXZ ENDP					; return5
_TEXT	ENDS
PUBLIC	?return8@@YAIXZ					; return8
; Function compile flags: /Ogsp
;	COMDAT ?return8@@YAIXZ
_TEXT	SEGMENT
?return8@@YAIXZ PROC					; return8, COMDAT

; 19   : 	__forceinline unsigned int return8() { __asm mov eax, 8 };

  00000	b8 08 00 00 00	 mov	 eax, 8
  00005	c3		 ret	 0
?return8@@YAIXZ ENDP					; return8
_TEXT	ENDS
PUBLIC	?return10@@YAIXZ				; return10
; Function compile flags: /Ogsp
;	COMDAT ?return10@@YAIXZ
_TEXT	SEGMENT
?return10@@YAIXZ PROC					; return10, COMDAT

; 21   : 	__forceinline unsigned int return10() { __asm mov eax, 10 };

  00000	b8 0a 00 00 00	 mov	 eax, 10			; 0000000aH
  00005	c3		 ret	 0
?return10@@YAIXZ ENDP					; return10
_TEXT	ENDS
PUBLIC	?return90@@YAIXZ				; return90
; Function compile flags: /Ogsp
;	COMDAT ?return90@@YAIXZ
_TEXT	SEGMENT
?return90@@YAIXZ PROC					; return90, COMDAT

; 24   : 	__forceinline unsigned int return90() { __asm mov eax, 90 };

  00000	b8 5a 00 00 00	 mov	 eax, 90			; 0000005aH
  00005	c3		 ret	 0
?return90@@YAIXZ ENDP					; return90
_TEXT	ENDS
PUBLIC	?return100@@YAIXZ				; return100
; Function compile flags: /Ogsp
;	COMDAT ?return100@@YAIXZ
_TEXT	SEGMENT
?return100@@YAIXZ PROC					; return100, COMDAT

; 25   : 	__forceinline unsigned int return100() { __asm mov eax, 100 };

  00000	b8 64 00 00 00	 mov	 eax, 100		; 00000064H
  00005	c3		 ret	 0
?return100@@YAIXZ ENDP					; return100
_TEXT	ENDS
PUBLIC	?return1000@@YAIXZ				; return1000
; Function compile flags: /Ogsp
;	COMDAT ?return1000@@YAIXZ
_TEXT	SEGMENT
?return1000@@YAIXZ PROC					; return1000, COMDAT

; 29   : 	__forceinline unsigned int return1000() { __asm mov eax, 1000 };

  00000	b8 e8 03 00 00	 mov	 eax, 1000		; 000003e8H
  00005	c3		 ret	 0
?return1000@@YAIXZ ENDP					; return1000
_TEXT	ENDS
PUBLIC	?return1000000000@@YAIXZ			; return1000000000
; Function compile flags: /Ogsp
;	COMDAT ?return1000000000@@YAIXZ
_TEXT	SEGMENT
?return1000000000@@YAIXZ PROC				; return1000000000, COMDAT

; 30   : 	__forceinline unsigned int return1000000000() { __asm mov eax, 1000000000 };

  00000	b8 00 ca 9a 3b	 mov	 eax, 1000000000		; 3b9aca00H
  00005	c3		 ret	 0
?return1000000000@@YAIXZ ENDP				; return1000000000
_TEXT	ENDS
PUBLIC	?return_PI@@YAIXZ				; return_PI
; Function compile flags: /Ogsp
;	COMDAT ?return_PI@@YAIXZ
_TEXT	SEGMENT
?return_PI@@YAIXZ PROC					; return_PI, COMDAT

; 31   : 	__forceinline unsigned int return_PI() { __asm mov eax,   3141592654 };

  00000	b8 4e e6 40 bb	 mov	 eax, -1153374642	; bb40e64eH
  00005	c3		 ret	 0
?return_PI@@YAIXZ ENDP					; return_PI
_TEXT	ENDS
PUBLIC	?GetState@TournamentNode@@QBE?BEXZ		; TournamentNode::GetState
; Function compile flags: /Ogsp
; File d:\lost saga for developer\youtube\tutorial\source\src\lsclient\tournamentnode.h
;	COMDAT ?GetState@TournamentNode@@QBE?BEXZ
_TEXT	SEGMENT
?GetState@TournamentNode@@QBE?BEXZ PROC			; TournamentNode::GetState, COMDAT
; _this$ = ecx

; 336  : 	inline const BYTE GetState() const{ return m_State; }

  00000	8a 81 a1 00 00
	00		 mov	 al, BYTE PTR [ecx+161]
  00006	c3		 ret	 0
?GetState@TournamentNode@@QBE?BEXZ ENDP			; TournamentNode::GetState
_TEXT	ENDS
PUBLIC	?GetTournamentStartTeamCount@TournamentNode@@QAEKXZ ; TournamentNode::GetTournamentStartTeamCount
; Function compile flags: /Ogsp
;	COMDAT ?GetTournamentStartTeamCount@TournamentNode@@QAEKXZ
_TEXT	SEGMENT
?GetTournamentStartTeamCount@TournamentNode@@QAEKXZ PROC ; TournamentNode::GetTournamentStartTeamCount, COMDAT
; _this$ = ecx

; 350  : 	inline DWORD GetTournamentStartTeamCount(){ return m_TournamentStartTeamCount; }

  00000	8b 41 18	 mov	 eax, DWORD PTR [ecx+24]
  00003	c3		 ret	 0
?GetTournamentStartTeamCount@TournamentNode@@QAEKXZ ENDP ; TournamentNode::GetTournamentStartTeamCount
_TEXT	ENDS
PUBLIC	?GetTournamentMaxRound@TournamentNode@@QAEKXZ	; TournamentNode::GetTournamentMaxRound
; Function compile flags: /Ogsp
;	COMDAT ?GetTournamentMaxRound@TournamentNode@@QAEKXZ
_TEXT	SEGMENT
?GetTournamentMaxRound@TournamentNode@@QAEKXZ PROC	; TournamentNode::GetTournamentMaxRound, COMDAT
; _this$ = ecx

; 351  : 	inline DWORD GetTournamentMaxRound(){ return m_TournamentMaxRound; }

  00000	8b 41 1c	 mov	 eax, DWORD PTR [ecx+28]
  00003	c3		 ret	 0
?GetTournamentMaxRound@TournamentNode@@QAEKXZ ENDP	; TournamentNode::GetTournamentMaxRound
_TEXT	ENDS
PUBLIC	?GetResultWinMotion@TournamentNode@@QAE?BVioHashString@@XZ ; TournamentNode::GetResultWinMotion
EXTRN	__imp_??0ioHashString@@QAE@ABV0@@Z:PROC
; Function compile flags: /Ogsp
;	COMDAT ?GetResultWinMotion@TournamentNode@@QAE?BVioHashString@@XZ
_TEXT	SEGMENT
$T555222 = -4						; size = 4
___$ReturnUdt$ = 8					; size = 4
?GetResultWinMotion@TournamentNode@@QAE?BVioHashString@@XZ PROC ; TournamentNode::GetResultWinMotion, COMDAT
; _this$ = ecx

; 362  : 	inline const ioHashString GetResultWinMotion(){ return m_szResultWinMotion; }

  00000	55		 push	 ebp
  00001	8b ec		 mov	 ebp, esp
  00003	51		 push	 ecx
  00004	83 65 fc 00	 and	 DWORD PTR $T555222[ebp], 0
  00008	81 c1 28 01 00
	00		 add	 ecx, 296		; 00000128H
  0000e	51		 push	 ecx
  0000f	8b 4d 08	 mov	 ecx, DWORD PTR ___$ReturnUdt$[ebp]
  00012	ff 15 00 00 00
	00		 call	 DWORD PTR __imp_??0ioHashString@@QAE@ABV0@@Z
  00018	8b 45 08	 mov	 eax, DWORD PTR ___$ReturnUdt$[ebp]
  0001b	c9		 leave
  0001c	c2 04 00	 ret	 4
?GetResultWinMotion@TournamentNode@@QAE?BVioHashString@@XZ ENDP ; TournamentNode::GetResultWinMotion
_TEXT	ENDS
PUBLIC	?GetResultLoseMotion@TournamentNode@@QAE?BVioHashString@@XZ ; TournamentNode::GetResultLoseMotion
; Function compile flags: /Ogsp
;	COMDAT ?GetResultLoseMotion@TournamentNode@@QAE?BVioHashString@@XZ
_TEXT	SEGMENT
$T555227 = -4						; size = 4
___$ReturnUdt$ = 8					; size = 4
?GetResultLoseMotion@TournamentNode@@QAE?BVioHashString@@XZ PROC ; TournamentNode::GetResultLoseMotion, COMDAT
; _this$ = ecx

; 363  : 	inline const ioHashString GetResultLoseMotion(){ return m_szResultLoseMotion; }

  00000	55		 push	 ebp
  00001	8b ec		 mov	 ebp, esp
  00003	51		 push	 ecx
  00004	83 65 fc 00	 and	 DWORD PTR $T555227[ebp], 0
  00008	81 c1 38 01 00
	00		 add	 ecx, 312		; 00000138H
  0000e	51		 push	 ecx
  0000f	8b 4d 08	 mov	 ecx, DWORD PTR ___$ReturnUdt$[ebp]
  00012	ff 15 00 00 00
	00		 call	 DWORD PTR __imp_??0ioHashString@@QAE@ABV0@@Z
  00018	8b 45 08	 mov	 eax, DWORD PTR ___$ReturnUdt$[ebp]
  0001b	c9		 leave
  0001c	c2 04 00	 ret	 4
?GetResultLoseMotion@TournamentNode@@QAE?BVioHashString@@XZ ENDP ; TournamentNode::GetResultLoseMotion
_TEXT	ENDS
PUBLIC	?GetTeamName@TeamGlobalData@@QAEAAVioHashString@@XZ ; TeamGlobalData::GetTeamName
; Function compile flags: /Ogsp
; File d:\lost saga for developer\youtube\tutorial\source\src\lsclient\iotournamentteammanager.h
;	COMDAT ?GetTeamName@TeamGlobalData@@QAEAAVioHashString@@XZ
_TEXT	SEGMENT
?GetTeamName@TeamGlobalData@@QAEAAVioHashString@@XZ PROC ; TeamGlobalData::GetTeamName, COMDAT
; _this$ = ecx

; 38   : 	inline ioHashString &GetTeamName(){ return m_DefaultData.m_szTeamName; }

  00000	8d 41 10	 lea	 eax, DWORD PTR [ecx+16]
  00003	c3		 ret	 0
?GetTeamName@TeamGlobalData@@QAEAAVioHashString@@XZ ENDP ; TeamGlobalData::GetTeamName
_TEXT	ENDS
PUBLIC	?GetTourPos@TeamGlobalData@@QAEEXZ		; TeamGlobalData::GetTourPos
; Function compile flags: /Ogsp
;	COMDAT ?GetTourPos@TeamGlobalData@@QAEEXZ
_TEXT	SEGMENT
?GetTourPos@TeamGlobalData@@QAEEXZ PROC			; TeamGlobalData::GetTourPos, COMDAT
; _this$ = ecx

; 43   : 	inline BYTE  GetTourPos(){ return m_TourPos; }

  00000	8a 41 38	 mov	 al, BYTE PTR [ecx+56]
  00003	c3		 ret	 0
?GetTourPos@TeamGlobalData@@QAEEXZ ENDP			; TeamGlobalData::GetTourPos
_TEXT	ENDS
PUBLIC	_sinf
EXTRN	__fltused:DWORD
EXTRN	__CIsin:PROC
; Function compile flags: /Ogsp
; File c:\program files (x86)\microsoft visual studio 10.0\vc\include\math.h
;	COMDAT _sinf
_TEXT	SEGMENT
tv69 = 8						; size = 4
__X$ = 8						; size = 4
_sinf	PROC						; COMDAT

; 430  :         {return ((float)sin((double)_X)); }

  00000	55		 push	 ebp
  00001	8b ec		 mov	 ebp, esp
  00003	d9 45 08	 fld	 DWORD PTR __X$[ebp]
  00006	e8 00 00 00 00	 call	 __CIsin
  0000b	d9 5d 08	 fstp	 DWORD PTR tv69[ebp]
  0000e	d9 45 08	 fld	 DWORD PTR tv69[ebp]
  00011	5d		 pop	 ebp
  00012	c3		 ret	 0
_sinf	ENDP
_TEXT	ENDS
PUBLIC	?abs@@YANN@Z					; abs
; Function compile flags: /Ogsp
;	COMDAT ?abs@@YANN@Z
_TEXT	SEGMENT
__X$ = 8						; size = 8
?abs@@YANN@Z PROC					; abs, COMDAT

; 496  :         {return (fabs(_X)); }

  00000	55		 push	 ebp
  00001	8b ec		 mov	 ebp, esp
  00003	dd 45 08	 fld	 QWORD PTR __X$[ebp]
  00006	d9 e1		 fabs
  00008	5d		 pop	 ebp
  00009	c3		 ret	 0
?abs@@YANN@Z ENDP					; abs
_TEXT	ENDS
PUBLIC	?sin@@YAMM@Z					; sin
; Function compile flags: /Ogsp
;	COMDAT ?sin@@YAMM@Z
_TEXT	SEGMENT
tv73 = 8						; size = 4
__X$ = 8						; size = 4
?sin@@YAMM@Z PROC					; sin, COMDAT

; 538  :         {return (sinf(_X)); }

  00000	55		 push	 ebp
  00001	8b ec		 mov	 ebp, esp
  00003	d9 45 08	 fld	 DWORD PTR __X$[ebp]
  00006	e8 00 00 00 00	 call	 __CIsin
  0000b	d9 5d 08	 fstp	 DWORD PTR tv73[ebp]
  0000e	d9 45 08	 fld	 DWORD PTR tv73[ebp]
  00011	5d		 pop	 ebp
  00012	c3		 ret	 0
?sin@@YAMM@Z ENDP					; sin
_TEXT	ENDS
PUBLIC	?GetShuffleStarCnt@ioShuffleRoomMgr@@QAEHXZ	; ioShuffleRoomMgr::GetShuffleStarCnt
; Function compile flags: /Ogsp
; File d:\lost saga for developer\youtube\tutorial\source\src\lsclient\ioshuffleroommgr.h
;	COMDAT ?GetShuffleStarCnt@ioShuffleRoomMgr@@QAEHXZ
_TEXT	SEGMENT
?GetShuffleStarCnt@ioShuffleRoomMgr@@QAEHXZ PROC	; ioShuffleRoomMgr::GetShuffleStarCnt, COMDAT
; _this$ = ecx

; 282  : 	inline int GetShuffleStarCnt() { return m_iShuffleStarCnt; }

  00000	8b 81 0c 01 00
	00		 mov	 eax, DWORD PTR [ecx+268]
  00006	c3		 ret	 0
?GetShuffleStarCnt@ioShuffleRoomMgr@@QAEHXZ ENDP	; ioShuffleRoomMgr::GetShuffleStarCnt
_TEXT	ENDS
PUBLIC	?GetShuffleStarByCalcBonus@ioShuffleRoomMgr@@QAEHXZ ; ioShuffleRoomMgr::GetShuffleStarByCalcBonus
; Function compile flags: /Ogsp
;	COMDAT ?GetShuffleStarByCalcBonus@ioShuffleRoomMgr@@QAEHXZ
_TEXT	SEGMENT
?GetShuffleStarByCalcBonus@ioShuffleRoomMgr@@QAEHXZ PROC ; ioShuffleRoomMgr::GetShuffleStarByCalcBonus, COMDAT
; _this$ = ecx

; 285  : 	inline int GetShuffleStarByCalcBonus() { return m_iShuffleStarCntByCalcBonus; }

  00000	8b 81 10 01 00
	00		 mov	 eax, DWORD PTR [ecx+272]
  00006	c3		 ret	 0
?GetShuffleStarByCalcBonus@ioShuffleRoomMgr@@QAEHXZ ENDP ; ioShuffleRoomMgr::GetShuffleStarByCalcBonus
_TEXT	ENDS
PUBLIC	?GetShuffleBonusPercent@ioShuffleRoomMgr@@QAEMXZ ; ioShuffleRoomMgr::GetShuffleBonusPercent
; Function compile flags: /Ogsp
;	COMDAT ?GetShuffleBonusPercent@ioShuffleRoomMgr@@QAEMXZ
_TEXT	SEGMENT
?GetShuffleBonusPercent@ioShuffleRoomMgr@@QAEMXZ PROC	; ioShuffleRoomMgr::GetShuffleBonusPercent, COMDAT
; _this$ = ecx

; 288  : 	inline float GetShuffleBonusPercent() { return m_fShuffleBonusPercent; }

  00000	d9 81 14 01 00
	00		 fld	 DWORD PTR [ecx+276]
  00006	c3		 ret	 0
?GetShuffleBonusPercent@ioShuffleRoomMgr@@QAEMXZ ENDP	; ioShuffleRoomMgr::GetShuffleBonusPercent
_TEXT	ENDS
PUBLIC	??_7bad_alloc@std@@6B@				; std::bad_alloc::`vftable'
PUBLIC	??0bad_alloc@std@@QAE@PBD@Z			; std::bad_alloc::bad_alloc
PUBLIC	??_R4bad_alloc@std@@6B@				; std::bad_alloc::`RTTI Complete Object Locator'
PUBLIC	??_R0?AVbad_alloc@std@@@8			; std::bad_alloc `RTTI Type Descriptor'
PUBLIC	??_R3bad_alloc@std@@8				; std::bad_alloc::`RTTI Class Hierarchy Descriptor'
PUBLIC	??_R2bad_alloc@std@@8				; std::bad_alloc::`RTTI Base Class Array'
PUBLIC	??_R1A@?0A@EA@bad_alloc@std@@8			; std::bad_alloc::`RTTI Base Class Descriptor at (0,-1,0,64)'
PUBLIC	??_R1A@?0A@EA@exception@std@@8			; std::exception::`RTTI Base Class Descriptor at (0,-1,0,64)'
PUBLIC	??_R0?AVexception@std@@@8			; std::exception `RTTI Type Descriptor'
PUBLIC	??_R3exception@std@@8				; std::exception::`RTTI Class Hierarchy Descriptor'
PUBLIC	??_R2exception@std@@8				; std::exception::`RTTI Base Class Array'
EXTRN	__imp_??0exception@std@@QAE@ABQBD@Z:PROC
EXTRN	??_7type_info@@6B@:QWORD			; type_info::`vftable'
EXTRN	??_Ebad_alloc@std@@UAEPAXI@Z:PROC		; std::bad_alloc::`vector deleting destructor'
EXTRN	?what@exception@std@@UBEPBDXZ:PROC		; std::exception::what
;	COMDAT ??_R2exception@std@@8
; File c:\program files (x86)\microsoft visual studio 10.0\vc\include\exception
rdata$r	SEGMENT
??_R2exception@std@@8 DD FLAT:??_R1A@?0A@EA@exception@std@@8 ; std::exception::`RTTI Base Class Array'
rdata$r	ENDS
;	COMDAT ??_R3exception@std@@8
rdata$r	SEGMENT
??_R3exception@std@@8 DD 00H				; std::exception::`RTTI Class Hierarchy Descriptor'
	DD	00H
	DD	01H
	DD	FLAT:??_R2exception@std@@8
rdata$r	ENDS
;	COMDAT ??_R0?AVexception@std@@@8
_DATA	SEGMENT
??_R0?AVexception@std@@@8 DD FLAT:??_7type_info@@6B@	; std::exception `RTTI Type Descriptor'
	DD	00H
	DB	'.?AVexception@std@@', 00H
_DATA	ENDS
;	COMDAT ??_R1A@?0A@EA@exception@std@@8
rdata$r	SEGMENT
??_R1A@?0A@EA@exception@std@@8 DD FLAT:??_R0?AVexception@std@@@8 ; std::exception::`RTTI Base Class Descriptor at (0,-1,0,64)'
	DD	00H
	DD	00H
	DD	0ffffffffH
	DD	00H
	DD	040H
	DD	FLAT:??_R3exception@std@@8
rdata$r	ENDS
;	COMDAT ??_R1A@?0A@EA@bad_alloc@std@@8
rdata$r	SEGMENT
??_R1A@?0A@EA@bad_alloc@std@@8 DD FLAT:??_R0?AVbad_alloc@std@@@8 ; std::bad_alloc::`RTTI Base Class Descriptor at (0,-1,0,64)'
	DD	01H
	DD	00H
	DD	0ffffffffH
	DD	00H
	DD	040H
	DD	FLAT:??_R3bad_alloc@std@@8
rdata$r	ENDS
;	COMDAT ??_R2bad_alloc@std@@8
rdata$r	SEGMENT
??_R2bad_alloc@std@@8 DD FLAT:??_R1A@?0A@EA@bad_alloc@std@@8 ; std::bad_alloc::`RTTI Base Class Array'
	DD	FLAT:??_R1A@?0A@EA@exception@std@@8
rdata$r	ENDS
;	COMDAT ??_R3bad_alloc@std@@8
rdata$r	SEGMENT
??_R3bad_alloc@std@@8 DD 00H				; std::bad_alloc::`RTTI Class Hierarchy Descriptor'
	DD	00H
	DD	02H
	DD	FLAT:??_R2bad_alloc@std@@8
rdata$r	ENDS
;	COMDAT ??_R0?AVbad_alloc@std@@@8
_DATA	SEGMENT
??_R0?AVbad_alloc@std@@@8 DD FLAT:??_7type_info@@6B@	; std::bad_alloc `RTTI Type Descriptor'
	DD	00H
	DB	'.?AVbad_alloc@std@@', 00H
_DATA	ENDS
;	COMDAT ??_R4bad_alloc@std@@6B@
rdata$r	SEGMENT
??_R4bad_alloc@std@@6B@ DD 00H				; std::bad_alloc::`RTTI Complete Object Locator'
	DD	00H
	DD	00H
	DD	FLAT:??_R0?AVbad_alloc@std@@@8
	DD	FLAT:??_R3bad_alloc@std@@8
rdata$r	ENDS
;	COMDAT ??_7bad_alloc@std@@6B@
CONST	SEGMENT
??_7bad_alloc@std@@6B@ DD FLAT:??_R4bad_alloc@std@@6B@	; std::bad_alloc::`vftable'
	DD	FLAT:??_Ebad_alloc@std@@UAEPAXI@Z
	DD	FLAT:?what@exception@std@@UBEPBDXZ
; Function compile flags: /Ogsp
CONST	ENDS
;	COMDAT ??0bad_alloc@std@@QAE@PBD@Z
_TEXT	SEGMENT
__Message$ = 8						; size = 4
??0bad_alloc@std@@QAE@PBD@Z PROC			; std::bad_alloc::bad_alloc, COMDAT
; _this$ = ecx

; 345  : 		{	// construct from message string

  00000	55		 push	 ebp
  00001	8b ec		 mov	 ebp, esp
  00003	56		 push	 esi
  00004	8d 45 08	 lea	 eax, DWORD PTR __Message$[ebp]
  00007	50		 push	 eax
  00008	8b f1		 mov	 esi, ecx
  0000a	ff 15 00 00 00
	00		 call	 DWORD PTR __imp_??0exception@std@@QAE@ABQBD@Z
  00010	c7 06 00 00 00
	00		 mov	 DWORD PTR [esi], OFFSET ??_7bad_alloc@std@@6B@

; 346  : 		}

  00016	8b c6		 mov	 eax, esi
  00018	5e		 pop	 esi
  00019	5d		 pop	 ebp
  0001a	c2 04 00	 ret	 4
??0bad_alloc@std@@QAE@PBD@Z ENDP			; std::bad_alloc::bad_alloc
_TEXT	ENDS
PUBLIC	??1bad_alloc@std@@UAE@XZ			; std::bad_alloc::~bad_alloc
EXTRN	__imp_??1exception@std@@UAE@XZ:PROC
; Function compile flags: /Ogsp
;	COMDAT ??1bad_alloc@std@@UAE@XZ
_TEXT	SEGMENT
??1bad_alloc@std@@UAE@XZ PROC				; std::bad_alloc::~bad_alloc, COMDAT
; _this$ = ecx

; 354  : 		{	// destroy the object

  00000	c7 01 00 00 00
	00		 mov	 DWORD PTR [ecx], OFFSET ??_7bad_alloc@std@@6B@

; 355  : 		}

  00006	ff 25 00 00 00
	00		 jmp	 DWORD PTR __imp_??1exception@std@@UAE@XZ
??1bad_alloc@std@@UAE@XZ ENDP				; std::bad_alloc::~bad_alloc
_TEXT	ENDS
EXTRN	??3@YAXPAX@Z:PROC				; operator delete
; Function compile flags: /Ogsp
;	COMDAT ??_Gbad_alloc@std@@UAEPAXI@Z
_TEXT	SEGMENT
___flags$ = 8						; size = 4
??_Gbad_alloc@std@@UAEPAXI@Z PROC			; std::bad_alloc::`scalar deleting destructor', COMDAT
; _this$ = ecx
  00000	55		 push	 ebp
  00001	8b ec		 mov	 ebp, esp
  00003	56		 push	 esi
  00004	8b f1		 mov	 esi, ecx
  00006	c7 06 00 00 00
	00		 mov	 DWORD PTR [esi], OFFSET ??_7bad_alloc@std@@6B@
  0000c	ff 15 00 00 00
	00		 call	 DWORD PTR __imp_??1exception@std@@UAE@XZ
  00012	f6 45 08 01	 test	 BYTE PTR ___flags$[ebp], 1
  00016	74 07		 je	 SHORT $LN1@scalar
  00018	56		 push	 esi
  00019	e8 00 00 00 00	 call	 ??3@YAXPAX@Z		; operator delete
  0001e	59		 pop	 ecx
$LN1@scalar:
  0001f	8b c6		 mov	 eax, esi
  00021	5e		 pop	 esi
  00022	5d		 pop	 ebp
  00023	c2 04 00	 ret	 4
??_Gbad_alloc@std@@UAEPAXI@Z ENDP			; std::bad_alloc::`scalar deleting destructor'
_TEXT	ENDS
PUBLIC	??2@YAPAXIPAX@Z					; operator new
; Function compile flags: /Ogsp
; File c:\program files (x86)\microsoft visual studio 10.0\vc\include\new
;	COMDAT ??2@YAPAXIPAX@Z
_TEXT	SEGMENT
___formal$ = 8						; size = 4
__Where$ = 12						; size = 4
??2@YAPAXIPAX@Z PROC					; operator new, COMDAT

; 56   : 	{	// construct array with placement at _Where

  00000	55		 push	 ebp
  00001	8b ec		 mov	 ebp, esp

; 57   : 	return (_Where);

  00003	8b 45 0c	 mov	 eax, DWORD PTR __Where$[ebp]

; 58   : 	}

  00006	5d		 pop	 ebp
  00007	c3		 ret	 0
??2@YAPAXIPAX@Z ENDP					; operator new
_TEXT	ENDS
PUBLIC	??3@YAXPAX0@Z					; operator delete
; Function compile flags: /Ogsp
;	COMDAT ??3@YAXPAX0@Z
_TEXT	SEGMENT
___formal$ = 8						; size = 4
___formal$ = 12						; size = 4
??3@YAXPAX0@Z PROC					; operator delete, COMDAT

; 62   : 	}

  00000	c3		 ret	 0
??3@YAXPAX0@Z ENDP					; operator delete
_TEXT	ENDS
PUBLIC	?GetTotalResultTime@BriefingWnd@@QAEKXZ		; BriefingWnd::GetTotalResultTime
; Function compile flags: /Ogsp
; File d:\lost saga for developer\youtube\tutorial\source\src\lsclient\gui\briefingwnd.h
;	COMDAT ?GetTotalResultTime@BriefingWnd@@QAEKXZ
_TEXT	SEGMENT
?GetTotalResultTime@BriefingWnd@@QAEKXZ PROC		; BriefingWnd::GetTotalResultTime, COMDAT
; _this$ = ecx

; 147  : 	DWORD GetTotalResultTime(){ return m_dwBriefingTotalResultTime; }

  00000	8b 81 f4 01 00
	00		 mov	 eax, DWORD PTR [ecx+500]
  00006	c3		 ret	 0
?GetTotalResultTime@BriefingWnd@@QAEKXZ ENDP		; BriefingWnd::GetTotalResultTime
_TEXT	ENDS
PUBLIC	??0ChatBubble@AwardChatBubbleWnd@@QAE@XZ	; AwardChatBubbleWnd::ChatBubble::ChatBubble
EXTRN	__imp_??0ioHashString@@QAE@XZ:PROC
; Function compile flags: /Ogsp
; File d:\lost saga for developer\youtube\tutorial\source\src\lsclient\gui\totalresultmainwnd.h
;	COMDAT ??0ChatBubble@AwardChatBubbleWnd@@QAE@XZ
_TEXT	SEGMENT
??0ChatBubble@AwardChatBubbleWnd@@QAE@XZ PROC		; AwardChatBubbleWnd::ChatBubble::ChatBubble, COMDAT
; _this$ = ecx

; 41   : 		ChatBubble()

  00000	56		 push	 esi
  00001	8b f1		 mov	 esi, ecx
  00003	8d 4e 04	 lea	 ecx, DWORD PTR [esi+4]
  00006	ff 15 00 00 00
	00		 call	 DWORD PTR __imp_??0ioHashString@@QAE@XZ

; 42   : 		{
; 43   : 			m_dwTextColor = 0;

  0000c	83 26 00	 and	 DWORD PTR [esi], 0

; 44   : 		}

  0000f	8b c6		 mov	 eax, esi
  00011	5e		 pop	 esi
  00012	c3		 ret	 0
??0ChatBubble@AwardChatBubbleWnd@@QAE@XZ ENDP		; AwardChatBubbleWnd::ChatBubble::ChatBubble
_TEXT	ENDS
PUBLIC	?GetName@AwardSlotNameBtn@@QAEABVioHashString@@XZ ; AwardSlotNameBtn::GetName
; Function compile flags: /Ogsp
;	COMDAT ?GetName@AwardSlotNameBtn@@QAEABVioHashString@@XZ
_TEXT	SEGMENT
?GetName@AwardSlotNameBtn@@QAEABVioHashString@@XZ PROC	; AwardSlotNameBtn::GetName, COMDAT
; _this$ = ecx

; 89   : 	const ioHashString &GetName(){ return m_szName; }

  00000	8d 81 18 02 00
	00		 lea	 eax, DWORD PTR [ecx+536]
  00006	c3		 ret	 0
?GetName@AwardSlotNameBtn@@QAEABVioHashString@@XZ ENDP	; AwardSlotNameBtn::GetName
_TEXT	ENDS
PUBLIC	?GetName@TotalResultTreasureCardBtn@@QAEABVioHashString@@XZ ; TotalResultTreasureCardBtn::GetName
; Function compile flags: /Ogsp
;	COMDAT ?GetName@TotalResultTreasureCardBtn@@QAEABVioHashString@@XZ
_TEXT	SEGMENT
?GetName@TotalResultTreasureCardBtn@@QAEABVioHashString@@XZ PROC ; TotalResultTreasureCardBtn::GetName, COMDAT
; _this$ = ecx

; 360  : 	const ioHashString &GetName(){ return m_Name; }

  00000	8d 81 10 02 00
	00		 lea	 eax, DWORD PTR [ecx+528]
  00006	c3		 ret	 0
?GetName@TotalResultTreasureCardBtn@@QAEABVioHashString@@XZ ENDP ; TotalResultTreasureCardBtn::GetName
_TEXT	ENDS
PUBLIC	?IsEmptyCard@TotalResultTreasureCardBtn@@QAE_NXZ ; TotalResultTreasureCardBtn::IsEmptyCard
; Function compile flags: /Ogsp
;	COMDAT ?IsEmptyCard@TotalResultTreasureCardBtn@@QAE_NXZ
_TEXT	SEGMENT
?IsEmptyCard@TotalResultTreasureCardBtn@@QAE_NXZ PROC	; TotalResultTreasureCardBtn::IsEmptyCard, COMDAT
; _this$ = ecx

; 361  : 	bool IsEmptyCard(){ return (m_iPresentType == 0); }

  00000	33 c0		 xor	 eax, eax
  00002	66 39 81 20 02
	00 00		 cmp	 WORD PTR [ecx+544], ax
  00009	0f 94 c0	 sete	 al
  0000c	c3		 ret	 0
?IsEmptyCard@TotalResultTreasureCardBtn@@QAE_NXZ ENDP	; TotalResultTreasureCardBtn::IsEmptyCard
_TEXT	ENDS
PUBLIC	?IsEmptySlot@ResultRaidScoreUserBtn@@QAE_NXZ	; ResultRaidScoreUserBtn::IsEmptySlot
EXTRN	__imp_?IsEmpty@ioHashString@@QBE_NXZ:PROC
; Function compile flags: /Ogsp
;	COMDAT ?IsEmptySlot@ResultRaidScoreUserBtn@@QAE_NXZ
_TEXT	SEGMENT
?IsEmptySlot@ResultRaidScoreUserBtn@@QAE_NXZ PROC	; ResultRaidScoreUserBtn::IsEmptySlot, COMDAT
; _this$ = ecx

; 945  : 	bool IsEmptySlot(){ return m_FinalUser.m_szName.IsEmpty(); }

  00000	81 c1 48 02 00
	00		 add	 ecx, 584		; 00000248H
  00006	ff 25 00 00 00
	00		 jmp	 DWORD PTR __imp_?IsEmpty@ioHashString@@QBE_NXZ
?IsEmptySlot@ResultRaidScoreUserBtn@@QAE_NXZ ENDP	; ResultRaidScoreUserBtn::IsEmptySlot
_TEXT	ENDS
PUBLIC	?GetUserNameA@ResultRaidScoreUserBtn@@QAEABVioHashString@@XZ ; ResultRaidScoreUserBtn::GetUserNameA
; Function compile flags: /Ogsp
;	COMDAT ?GetUserNameA@ResultRaidScoreUserBtn@@QAEABVioHashString@@XZ
_TEXT	SEGMENT
?GetUserNameA@ResultRaidScoreUserBtn@@QAEABVioHashString@@XZ PROC ; ResultRaidScoreUserBtn::GetUserNameA, COMDAT
; _this$ = ecx

; 948  : 	const ioHashString &GetUserName(){ return m_FinalUser.m_szName; }

  00000	8d 81 48 02 00
	00		 lea	 eax, DWORD PTR [ecx+584]
  00006	c3		 ret	 0
?GetUserNameA@ResultRaidScoreUserBtn@@QAEABVioHashString@@XZ ENDP ; ResultRaidScoreUserBtn::GetUserNameA
_TEXT	ENDS
PUBLIC	?GetState@ResultRaidScoreUserBtn@@QAEKXZ	; ResultRaidScoreUserBtn::GetState
; Function compile flags: /Ogsp
;	COMDAT ?GetState@ResultRaidScoreUserBtn@@QAEKXZ
_TEXT	SEGMENT
?GetState@ResultRaidScoreUserBtn@@QAEKXZ PROC		; ResultRaidScoreUserBtn::GetState, COMDAT
; _this$ = ecx

; 949  : 	DWORD GetState(){ return m_dwState; }

  00000	8b 81 3c 03 00
	00		 mov	 eax, DWORD PTR [ecx+828]
  00006	c3		 ret	 0
?GetState@ResultRaidScoreUserBtn@@QAEKXZ ENDP		; ResultRaidScoreUserBtn::GetState
_TEXT	ENDS
PUBLIC	?GetName@TotalResultRaidCardBtn@@QAEABVioHashString@@XZ ; TotalResultRaidCardBtn::GetName
; Function compile flags: /Ogsp
;	COMDAT ?GetName@TotalResultRaidCardBtn@@QAEABVioHashString@@XZ
_TEXT	SEGMENT
?GetName@TotalResultRaidCardBtn@@QAEABVioHashString@@XZ PROC ; TotalResultRaidCardBtn::GetName, COMDAT
; _this$ = ecx

; 1236 : 	const ioHashString &GetName(){ return m_Name; }

  00000	8d 81 10 02 00
	00		 lea	 eax, DWORD PTR [ecx+528]
  00006	c3		 ret	 0
?GetName@TotalResultRaidCardBtn@@QAEABVioHashString@@XZ ENDP ; TotalResultRaidCardBtn::GetName
_TEXT	ENDS
PUBLIC	?IsEmptyCard@TotalResultRaidCardBtn@@QAE_NXZ	; TotalResultRaidCardBtn::IsEmptyCard
; Function compile flags: /Ogsp
;	COMDAT ?IsEmptyCard@TotalResultRaidCardBtn@@QAE_NXZ
_TEXT	SEGMENT
?IsEmptyCard@TotalResultRaidCardBtn@@QAE_NXZ PROC	; TotalResultRaidCardBtn::IsEmptyCard, COMDAT
; _this$ = ecx

; 1237 : 	bool IsEmptyCard(){ return (m_iPresentType == 0); }

  00000	33 c0		 xor	 eax, eax
  00002	66 39 81 20 02
	00 00		 cmp	 WORD PTR [ecx+544], ax
  00009	0f 94 c0	 sete	 al
  0000c	c3		 ret	 0
?IsEmptyCard@TotalResultRaidCardBtn@@QAE_NXZ ENDP	; TotalResultRaidCardBtn::IsEmptyCard
_TEXT	ENDS
PUBLIC	?_Adopt@_Iterator_base0@std@@QAEXPBX@Z		; std::_Iterator_base0::_Adopt
; Function compile flags: /Ogsp
; File c:\program files (x86)\microsoft visual studio 10.0\vc\include\xutility
;	COMDAT ?_Adopt@_Iterator_base0@std@@QAEXPBX@Z
_TEXT	SEGMENT
___formal$ = 8						; size = 4
?_Adopt@_Iterator_base0@std@@QAEXPBX@Z PROC		; std::_Iterator_base0::_Adopt, COMDAT
; _this$ = ecx

; 49   : 		}

  00000	c2 04 00	 ret	 4
?_Adopt@_Iterator_base0@std@@QAEXPBX@Z ENDP		; std::_Iterator_base0::_Adopt
_TEXT	ENDS
PUBLIC	?iwm_show@AwardChatBubbleWnd@@UAEXXZ		; AwardChatBubbleWnd::iwm_show
; Function compile flags: /Ogsp
; File d:\lost saga for developer\youtube\tutorial\source\src\lsclient\gui\totalresultmainwnd.cpp
;	COMDAT ?iwm_show@AwardChatBubbleWnd@@UAEXXZ
_TEXT	SEGMENT
?iwm_show@AwardChatBubbleWnd@@UAEXXZ PROC		; AwardChatBubbleWnd::iwm_show, COMDAT
; _this$ = ecx

; 76   : 	
; 77   : }

  00000	c3		 ret	 0
?iwm_show@AwardChatBubbleWnd@@UAEXXZ ENDP		; AwardChatBubbleWnd::iwm_show
_TEXT	ENDS
PUBLIC	?iwm_hide@AwardChatBubbleWnd@@UAEXXZ		; AwardChatBubbleWnd::iwm_hide
; Function compile flags: /Ogsp
;	COMDAT ?iwm_hide@AwardChatBubbleWnd@@UAEXXZ
_TEXT	SEGMENT
?iwm_hide@AwardChatBubbleWnd@@UAEXXZ PROC		; AwardChatBubbleWnd::iwm_hide, COMDAT
; _this$ = ecx

; 81   : }

  00000	c3		 ret	 0
?iwm_hide@AwardChatBubbleWnd@@UAEXXZ ENDP		; AwardChatBubbleWnd::iwm_hide
_TEXT	ENDS
PUBLIC	??1ChatBubble@AwardChatBubbleWnd@@QAE@XZ	; AwardChatBubbleWnd::ChatBubble::~ChatBubble
EXTRN	__imp_??1ioHashString@@QAE@XZ:PROC
; Function compile flags: /Ogsp
;	COMDAT ??1ChatBubble@AwardChatBubbleWnd@@QAE@XZ
_TEXT	SEGMENT
??1ChatBubble@AwardChatBubbleWnd@@QAE@XZ PROC		; AwardChatBubbleWnd::ChatBubble::~ChatBubble, COMDAT
; _this$ = ecx
  00000	83 c1 04	 add	 ecx, 4
  00003	ff 25 00 00 00
	00		 jmp	 DWORD PTR __imp_??1ioHashString@@QAE@XZ
??1ChatBubble@AwardChatBubbleWnd@@QAE@XZ ENDP		; AwardChatBubbleWnd::ChatBubble::~ChatBubble
_TEXT	ENDS
PUBLIC	?OnProcess@AwardChatBubbleWnd@@MAEXM@Z		; AwardChatBubbleWnd::OnProcess
EXTRN	__imp_?HideWnd@ioWnd@@QAEXXZ:PROC
EXTRN	__imp_?GetLoopSec@ioFrameTimer@@QBEKXZ:PROC
EXTRN	__imp_?GetSingleton@ioFrameTimer@@SAAAV1@XZ:PROC
EXTRN	__imp_?IsShow@ioWnd@@QBE_NXZ:PROC
; Function compile flags: /Ogsp
;	COMDAT ?OnProcess@AwardChatBubbleWnd@@MAEXM@Z
_TEXT	SEGMENT
_fTimePerSec$ = 8					; size = 4
?OnProcess@AwardChatBubbleWnd@@MAEXM@Z PROC		; AwardChatBubbleWnd::OnProcess, COMDAT
; _this$ = ecx

; 136  : {

  00000	56		 push	 esi
  00001	8b f1		 mov	 esi, ecx

; 137  : 	if( !IsShow() ) return;

  00003	ff 15 00 00 00
	00		 call	 DWORD PTR __imp_?IsShow@ioWnd@@QBE_NXZ
  00009	84 c0		 test	 al, al
  0000b	74 24		 je	 SHORT $LN1@OnProcess

; 138  : 
; 139  : 	if( FRAMEGETTIME() - m_dwStartTime > m_dwShowTime )

  0000d	ff 15 00 00 00
	00		 call	 DWORD PTR __imp_?GetSingleton@ioFrameTimer@@SAAAV1@XZ
  00013	8b c8		 mov	 ecx, eax
  00015	ff 15 00 00 00
	00		 call	 DWORD PTR __imp_?GetLoopSec@ioFrameTimer@@QBEKXZ
  0001b	2b 86 a0 01 00
	00		 sub	 eax, DWORD PTR [esi+416]
  00021	3b 86 88 01 00
	00		 cmp	 eax, DWORD PTR [esi+392]
  00027	76 08		 jbe	 SHORT $LN1@OnProcess

; 140  : 	{
; 141  : 		HideWnd();

  00029	8b ce		 mov	 ecx, esi
  0002b	ff 15 00 00 00
	00		 call	 DWORD PTR __imp_?HideWnd@ioWnd@@QAEXXZ
$LN1@OnProcess:
  00031	5e		 pop	 esi

; 142  : 	}
; 143  : }

  00032	c2 04 00	 ret	 4
?OnProcess@AwardChatBubbleWnd@@MAEXM@Z ENDP		; AwardChatBubbleWnd::OnProcess
_TEXT	ENDS
PUBLIC	__real@3fc99999a0000000
PUBLIC	__real@0000000000000000
PUBLIC	__real@4f800000
PUBLIC	?OnRenderShowAndHide@AwardChatBubbleWnd@@MAE_NXZ ; AwardChatBubbleWnd::OnRenderShowAndHide
EXTRN	__imp_?GetDerivedPosY@ioWnd@@QBEHXZ:PROC
EXTRN	__imp_?GetDerivedPosX@ioWnd@@QBEHXZ:PROC
EXTRN	__imp_?GetWidth@ioWnd@@QBEHXZ:PROC
EXTRN	__imp_?GetHeight@ioWnd@@QBEHXZ:PROC
;	COMDAT __real@3fc99999a0000000
; File d:\lost saga for developer\youtube\tutorial\source\src\lsclient\stdafx.h
CONST	SEGMENT
__real@3fc99999a0000000 DQ 03fc99999a0000000r	; 0.2
CONST	ENDS
;	COMDAT __real@0000000000000000
CONST	SEGMENT
__real@0000000000000000 DQ 00000000000000000r	; 0
CONST	ENDS
;	COMDAT __real@4f800000
CONST	SEGMENT
__real@4f800000 DD 04f800000r			; 4.29497e+009
; Function compile flags: /Ogsp
; File d:\lost saga for developer\youtube\tutorial\source\src\lsclient\gui\totalresultmainwnd.cpp
CONST	ENDS
;	COMDAT ?OnRenderShowAndHide@AwardChatBubbleWnd@@MAE_NXZ
_TEXT	SEGMENT
tv244 = -16						; size = 8
tv483 = -12						; size = 4
tv479 = -12						; size = 4
tv471 = -12						; size = 4
tv467 = -12						; size = 4
tv459 = -12						; size = 4
tv455 = -12						; size = 4
tv441 = -12						; size = 4
tv437 = -12						; size = 4
tv423 = -12						; size = 4
tv418 = -12						; size = 4
tv146 = -12						; size = 4
tv95 = -12						; size = 4
_iWidth$537969 = -12					; size = 4
tv451 = -8						; size = 4
tv433 = -8						; size = 4
tv392 = -8						; size = 4
tv331 = -8						; size = 4
tv207 = -8						; size = 4
_iHeight$537970 = -8					; size = 4
tv475 = -4						; size = 4
tv381 = -4						; size = 4
tv318 = -4						; size = 4
_fTimeRate$ = -4					; size = 4
?OnRenderShowAndHide@AwardChatBubbleWnd@@MAE_NXZ PROC	; AwardChatBubbleWnd::OnRenderShowAndHide, COMDAT
; _this$ = ecx

; 146  : {

  00000	55		 push	 ebp
  00001	8b ec		 mov	 ebp, esp
  00003	83 ec 10	 sub	 esp, 16			; 00000010H
  00006	53		 push	 ebx
  00007	56		 push	 esi
  00008	8b f1		 mov	 esi, ecx

; 147  : 	if( m_dwShowAniTime == 0 || m_dwShowEventTime == 0 ) return false;

  0000a	83 be a4 01 00
	00 00		 cmp	 DWORD PTR [esi+420], 0
  00011	57		 push	 edi
  00012	74 55		 je	 SHORT $LN6@OnRenderSh
  00014	83 be 8c 01 00
	00 00		 cmp	 DWORD PTR [esi+396], 0
  0001b	74 4c		 je	 SHORT $LN6@OnRenderSh

; 148  : 	if( FRAMEGETTIME() - m_dwShowAniTime > m_dwShowEventTime )

  0001d	8b 1d 00 00 00
	00		 mov	 ebx, DWORD PTR __imp_?GetSingleton@ioFrameTimer@@SAAAV1@XZ
  00023	ff d3		 call	 ebx
  00025	8b c8		 mov	 ecx, eax
  00027	ff 15 00 00 00
	00		 call	 DWORD PTR __imp_?GetLoopSec@ioFrameTimer@@QBEKXZ
  0002d	2b 86 a4 01 00
	00		 sub	 eax, DWORD PTR [esi+420]
  00033	3b 86 8c 01 00
	00		 cmp	 eax, DWORD PTR [esi+396]
  00039	76 35		 jbe	 SHORT $LN5@OnRenderSh

; 149  : 	{
; 150  : 		m_dwShowAniTime = 0;
; 151  : 		if( m_pSelectedFrm )

  0003b	8b 86 ac 00 00
	00		 mov	 eax, DWORD PTR [esi+172]
  00041	83 a6 a4 01 00
	00 00		 and	 DWORD PTR [esi+420], 0
  00048	85 c0		 test	 eax, eax
  0004a	74 1d		 je	 SHORT $LN6@OnRenderSh

; 152  : 		{
; 153  : 			m_pSelectedFrm->SetSize( GetWidth(), GetHeight() );

  0004c	8b 38		 mov	 edi, DWORD PTR [eax]
  0004e	8b ce		 mov	 ecx, esi
  00050	ff 15 00 00 00
	00		 call	 DWORD PTR __imp_?GetHeight@ioWnd@@QBEHXZ
  00056	50		 push	 eax
  00057	8b ce		 mov	 ecx, esi
  00059	ff 15 00 00 00
	00		 call	 DWORD PTR __imp_?GetWidth@ioWnd@@QBEHXZ
  0005f	8b 8e ac 00 00
	00		 mov	 ecx, DWORD PTR [esi+172]
  00065	50		 push	 eax
  00066	ff 57 10	 call	 DWORD PTR [edi+16]
$LN6@OnRenderSh:

; 147  : 	if( m_dwShowAniTime == 0 || m_dwShowEventTime == 0 ) return false;

  00069	32 c0		 xor	 al, al
$LN8@OnRenderSh:
  0006b	5f		 pop	 edi
  0006c	5e		 pop	 esi
  0006d	5b		 pop	 ebx

; 180  : }

  0006e	c9		 leave
  0006f	c3		 ret	 0
$LN5@OnRenderSh:

; 154  : 		}
; 155  : 		return false;
; 156  : 	}
; 157  : 
; 158  : 	// 확대 & 축소를 20% ~ 100% 사이만 진행 시킨다.
; 159  : 	DWORD dwGapTime = FRAMEGETTIME() - m_dwShowAniTime;

  00070	ff d3		 call	 ebx
  00072	8b c8		 mov	 ecx, eax
  00074	ff 15 00 00 00
	00		 call	 DWORD PTR __imp_?GetLoopSec@ioFrameTimer@@QBEKXZ
  0007a	8b c8		 mov	 ecx, eax
  0007c	2b 8e a4 01 00
	00		 sub	 ecx, DWORD PTR [esi+420]

; 160  : 	float fTimeRate = ( (float)dwGapTime / m_dwShowEventTime ) * FLOAT08;

  00082	b8 08 00 00 00	 mov	 eax, 8
  00087	8b d0		 mov	 edx, eax
  00089	b8 0a 00 00 00	 mov	 eax, 10			; 0000000aH
  0008e	89 55 f4	 mov	 DWORD PTR tv483[ebp], edx
  00091	db 45 f4	 fild	 DWORD PTR tv483[ebp]
  00094	85 d2		 test	 edx, edx
  00096	79 06		 jns	 SHORT $LN34@OnRenderSh
  00098	d8 05 00 00 00
	00		 fadd	 DWORD PTR __real@4f800000
$LN34@OnRenderSh:
  0009e	89 45 f4	 mov	 DWORD PTR tv479[ebp], eax
  000a1	db 45 f4	 fild	 DWORD PTR tv479[ebp]
  000a4	85 c0		 test	 eax, eax
  000a6	79 06		 jns	 SHORT $LN35@OnRenderSh
  000a8	d8 05 00 00 00
	00		 fadd	 DWORD PTR __real@4f800000
$LN35@OnRenderSh:
  000ae	de f9		 fdivp	 ST(1), ST(0)
  000b0	89 4d f4	 mov	 DWORD PTR tv471[ebp], ecx
  000b3	d9 5d fc	 fstp	 DWORD PTR tv475[ebp]
  000b6	d9 45 fc	 fld	 DWORD PTR tv475[ebp]
  000b9	db 45 f4	 fild	 DWORD PTR tv471[ebp]
  000bc	85 c9		 test	 ecx, ecx
  000be	79 06		 jns	 SHORT $LN36@OnRenderSh
  000c0	d8 05 00 00 00
	00		 fadd	 DWORD PTR __real@4f800000
$LN36@OnRenderSh:
  000c6	8b 86 8c 01 00
	00		 mov	 eax, DWORD PTR [esi+396]
  000cc	db 86 8c 01 00
	00		 fild	 DWORD PTR [esi+396]
  000d2	85 c0		 test	 eax, eax
  000d4	79 06		 jns	 SHORT $LN37@OnRenderSh
  000d6	d8 05 00 00 00
	00		 fadd	 DWORD PTR __real@4f800000
$LN37@OnRenderSh:
  000dc	de f9		 fdivp	 ST(1), ST(0)

; 161  : 	if( IsShow() )

  000de	8b ce		 mov	 ecx, esi
  000e0	de c9		 fmulp	 ST(1), ST(0)
  000e2	d9 5d fc	 fstp	 DWORD PTR _fTimeRate$[ebp]
  000e5	ff 15 00 00 00
	00		 call	 DWORD PTR __imp_?IsShow@ioWnd@@QBE_NXZ
  000eb	84 c0		 test	 al, al
  000ed	0f 84 88 00 00
	00		 je	 $LN3@OnRenderSh

; 162  : 	{
; 163  : 		fTimeRate = min( FLOAT08, fTimeRate ) + 0.2f;

  000f3	b8 08 00 00 00	 mov	 eax, 8
  000f8	8b c8		 mov	 ecx, eax
  000fa	b8 0a 00 00 00	 mov	 eax, 10			; 0000000aH
  000ff	89 4d f4	 mov	 DWORD PTR tv459[ebp], ecx
  00102	db 45 f4	 fild	 DWORD PTR tv459[ebp]
  00105	85 c9		 test	 ecx, ecx
  00107	79 06		 jns	 SHORT $LN38@OnRenderSh
  00109	d8 05 00 00 00
	00		 fadd	 DWORD PTR __real@4f800000
$LN38@OnRenderSh:
  0010f	89 45 f4	 mov	 DWORD PTR tv455[ebp], eax
  00112	db 45 f4	 fild	 DWORD PTR tv455[ebp]
  00115	85 c0		 test	 eax, eax
  00117	79 06		 jns	 SHORT $LN39@OnRenderSh
  00119	d8 05 00 00 00
	00		 fadd	 DWORD PTR __real@4f800000
$LN39@OnRenderSh:
  0011f	de f9		 fdivp	 ST(1), ST(0)
  00121	d9 5d f8	 fstp	 DWORD PTR tv451[ebp]
  00124	d9 45 f8	 fld	 DWORD PTR tv451[ebp]
  00127	d9 45 fc	 fld	 DWORD PTR _fTimeRate$[ebp]
  0012a	df f1		 fcomip	 ST(1)
  0012c	dd d8		 fstp	 ST(0)
  0012e	76 3e		 jbe	 SHORT $LN10@OnRenderSh
  00130	b8 08 00 00 00	 mov	 eax, 8
  00135	8b c8		 mov	 ecx, eax
  00137	b8 0a 00 00 00	 mov	 eax, 10			; 0000000aH
  0013c	89 4d f4	 mov	 DWORD PTR tv441[ebp], ecx
  0013f	db 45 f4	 fild	 DWORD PTR tv441[ebp]
  00142	85 c9		 test	 ecx, ecx
  00144	79 06		 jns	 SHORT $LN40@OnRenderSh
  00146	d8 05 00 00 00
	00		 fadd	 DWORD PTR __real@4f800000
$LN40@OnRenderSh:
  0014c	89 45 f4	 mov	 DWORD PTR tv437[ebp], eax
  0014f	db 45 f4	 fild	 DWORD PTR tv437[ebp]
  00152	85 c0		 test	 eax, eax
  00154	79 06		 jns	 SHORT $LN41@OnRenderSh
  00156	d8 05 00 00 00
	00		 fadd	 DWORD PTR __real@4f800000
$LN41@OnRenderSh:
  0015c	de f9		 fdivp	 ST(1), ST(0)
  0015e	d9 5d f8	 fstp	 DWORD PTR tv433[ebp]
  00161	d9 45 f8	 fld	 DWORD PTR tv433[ebp]
  00164	d9 5d f8	 fstp	 DWORD PTR tv207[ebp]
  00167	f3 0f 10 45 f8	 movss	 xmm0, DWORD PTR tv207[ebp]
  0016c	eb 05		 jmp	 SHORT $LN11@OnRenderSh
$LN10@OnRenderSh:
  0016e	f3 0f 10 45 fc	 movss	 xmm0, DWORD PTR _fTimeRate$[ebp]
$LN11@OnRenderSh:
  00173	0f 5a c0	 cvtps2pd xmm0, xmm0

; 164  : 	}
; 165  : 	else

  00176	e9 83 00 00 00	 jmp	 $LN13@OnRenderSh
$LN3@OnRenderSh:

; 166  : 	{
; 167  : 		fTimeRate = max( 0.0f, FLOAT08 - fTimeRate ) + 0.2f;

  0017b	b8 08 00 00 00	 mov	 eax, 8
  00180	8b c8		 mov	 ecx, eax
  00182	b8 0a 00 00 00	 mov	 eax, 10			; 0000000aH
  00187	89 4d f4	 mov	 DWORD PTR tv423[ebp], ecx
  0018a	db 45 f4	 fild	 DWORD PTR tv423[ebp]
  0018d	85 c9		 test	 ecx, ecx
  0018f	79 06		 jns	 SHORT $LN42@OnRenderSh
  00191	d8 05 00 00 00
	00		 fadd	 DWORD PTR __real@4f800000
$LN42@OnRenderSh:
  00197	89 45 f4	 mov	 DWORD PTR tv418[ebp], eax
  0019a	db 45 f4	 fild	 DWORD PTR tv418[ebp]
  0019d	85 c0		 test	 eax, eax
  0019f	79 06		 jns	 SHORT $LN43@OnRenderSh
  001a1	d8 05 00 00 00
	00		 fadd	 DWORD PTR __real@4f800000
$LN43@OnRenderSh:
  001a7	de f9		 fdivp	 ST(1), ST(0)
  001a9	d9 5d f8	 fstp	 DWORD PTR tv331[ebp]
  001ac	d9 45 f8	 fld	 DWORD PTR tv331[ebp]
  001af	d8 65 fc	 fsub	 DWORD PTR _fTimeRate$[ebp]
  001b2	d9 ee		 fldz
  001b4	df f1		 fcomip	 ST(1)
  001b6	dd d8		 fstp	 ST(0)
  001b8	76 05		 jbe	 SHORT $LN12@OnRenderSh
  001ba	0f 57 c0	 xorps	 xmm0, xmm0
  001bd	eb 3f		 jmp	 SHORT $LN13@OnRenderSh
$LN12@OnRenderSh:
  001bf	b8 08 00 00 00	 mov	 eax, 8
  001c4	8b c8		 mov	 ecx, eax
  001c6	b8 0a 00 00 00	 mov	 eax, 10			; 0000000aH
  001cb	89 4d f4	 mov	 DWORD PTR tv146[ebp], ecx
  001ce	db 45 f4	 fild	 DWORD PTR tv146[ebp]
  001d1	85 c9		 test	 ecx, ecx
  001d3	79 06		 jns	 SHORT $LN44@OnRenderSh
  001d5	d8 05 00 00 00
	00		 fadd	 DWORD PTR __real@4f800000
$LN44@OnRenderSh:
  001db	89 45 f4	 mov	 DWORD PTR tv95[ebp], eax
  001de	db 45 f4	 fild	 DWORD PTR tv95[ebp]
  001e1	85 c0		 test	 eax, eax
  001e3	79 06		 jns	 SHORT $LN45@OnRenderSh
  001e5	d8 05 00 00 00
	00		 fadd	 DWORD PTR __real@4f800000
$LN45@OnRenderSh:
  001eb	de f9		 fdivp	 ST(1), ST(0)
  001ed	d9 5d f8	 fstp	 DWORD PTR tv392[ebp]
  001f0	d9 45 f8	 fld	 DWORD PTR tv392[ebp]
  001f3	d8 65 fc	 fsub	 DWORD PTR _fTimeRate$[ebp]
  001f6	dd 5d f0	 fstp	 QWORD PTR tv244[ebp]
  001f9	f2 0f 10 45 f0	 movsd	 xmm0, QWORD PTR tv244[ebp]
$LN13@OnRenderSh:

; 168  : 	}
; 169  : 
; 170  : 	if( m_pSelectedFrm )

  001fe	83 be ac 00 00
	00 00		 cmp	 DWORD PTR [esi+172], 0
  00205	f2 0f 58 05 00
	00 00 00	 addsd	 xmm0, QWORD PTR __real@3fc99999a0000000
  0020d	66 0f 5a c0	 cvtpd2ps xmm0, xmm0
  00211	f3 0f 11 45 fc	 movss	 DWORD PTR _fTimeRate$[ebp], xmm0
  00216	0f 84 c8 00 00
	00		 je	 $LN1@OnRenderSh

; 171  : 	{
; 172  : 		int iWidth = GetWidth() * fTimeRate;

  0021c	8b ce		 mov	 ecx, esi
  0021e	ff 15 00 00 00
	00		 call	 DWORD PTR __imp_?GetWidth@ioWnd@@QBEHXZ
  00224	f3 0f 10 4d fc	 movss	 xmm1, DWORD PTR _fTimeRate$[ebp]
  00229	0f 57 c0	 xorps	 xmm0, xmm0
  0022c	f3 0f 2a c0	 cvtsi2ss xmm0, eax
  00230	0f 5a c0	 cvtps2pd xmm0, xmm0
  00233	0f 5a c9	 cvtps2pd xmm1, xmm1
  00236	f2 0f 59 c1	 mulsd	 xmm0, xmm1
  0023a	f2 0f 2c f8	 cvttsd2si edi, xmm0

; 173  : 		int iHeight= GetHeight() * fTimeRate;

  0023e	8b ce		 mov	 ecx, esi
  00240	89 7d f4	 mov	 DWORD PTR _iWidth$537969[ebp], edi
  00243	ff 15 00 00 00
	00		 call	 DWORD PTR __imp_?GetHeight@ioWnd@@QBEHXZ
  00249	f3 0f 10 4d fc	 movss	 xmm1, DWORD PTR _fTimeRate$[ebp]
  0024e	0f 57 c0	 xorps	 xmm0, xmm0
  00251	f3 0f 2a c0	 cvtsi2ss xmm0, eax
  00255	0f 5a c0	 cvtps2pd xmm0, xmm0
  00258	0f 5a c9	 cvtps2pd xmm1, xmm1
  0025b	f2 0f 59 c1	 mulsd	 xmm0, xmm1
  0025f	f2 0f 2c d8	 cvttsd2si ebx, xmm0

; 174  : 		int iXPos  = GetDerivedPosX() + ( ( GetWidth() - iWidth ) / 2 );

  00263	8b ce		 mov	 ecx, esi
  00265	89 5d f8	 mov	 DWORD PTR _iHeight$537970[ebp], ebx
  00268	ff 15 00 00 00
	00		 call	 DWORD PTR __imp_?GetWidth@ioWnd@@QBEHXZ
  0026e	2b c7		 sub	 eax, edi
  00270	99		 cdq
  00271	2b c2		 sub	 eax, edx
  00273	89 45 fc	 mov	 DWORD PTR tv318[ebp], eax
  00276	d1 7d fc	 sar	 DWORD PTR tv318[ebp], 1
  00279	8b ce		 mov	 ecx, esi
  0027b	ff 15 00 00 00
	00		 call	 DWORD PTR __imp_?GetDerivedPosX@ioWnd@@QBEHXZ
  00281	8b f8		 mov	 edi, eax
  00283	03 7d fc	 add	 edi, DWORD PTR tv318[ebp]

; 175  : 		int iYPos  = GetDerivedPosY() + ( ( GetHeight() - iHeight ) / 2 );

  00286	8b ce		 mov	 ecx, esi
  00288	ff 15 00 00 00
	00		 call	 DWORD PTR __imp_?GetHeight@ioWnd@@QBEHXZ
  0028e	2b c3		 sub	 eax, ebx
  00290	99		 cdq
  00291	2b c2		 sub	 eax, edx
  00293	89 45 fc	 mov	 DWORD PTR tv381[ebp], eax
  00296	d1 7d fc	 sar	 DWORD PTR tv381[ebp], 1
  00299	8b ce		 mov	 ecx, esi
  0029b	ff 15 00 00 00
	00		 call	 DWORD PTR __imp_?GetDerivedPosY@ioWnd@@QBEHXZ

; 176  : 		m_pSelectedFrm->SetSize( iWidth, iHeight );

  002a1	ff 75 f8	 push	 DWORD PTR _iHeight$537970[ebp]
  002a4	8b 8e ac 00 00
	00		 mov	 ecx, DWORD PTR [esi+172]
  002aa	ff 75 f4	 push	 DWORD PTR _iWidth$537969[ebp]
  002ad	8b d8		 mov	 ebx, eax
  002af	8b 01		 mov	 eax, DWORD PTR [ecx]
  002b1	03 5d fc	 add	 ebx, DWORD PTR tv381[ebp]
  002b4	ff 50 10	 call	 DWORD PTR [eax+16]

; 177  : 		m_pSelectedFrm->Render( iXPos, iYPos );

  002b7	8b b6 ac 00 00
	00		 mov	 esi, DWORD PTR [esi+172]
  002bd	8b 16		 mov	 edx, DWORD PTR [esi]
  002bf	33 c0		 xor	 eax, eax
  002c1	50		 push	 eax
  002c2	50		 push	 eax
  002c3	50		 push	 eax
  002c4	50		 push	 eax
  002c5	51		 push	 ecx
  002c6	0f 57 c0	 xorps	 xmm0, xmm0
  002c9	51		 push	 ecx
  002ca	f3 0f 2a c3	 cvtsi2ss xmm0, ebx
  002ce	f3 0f 11 44 24
	04		 movss	 DWORD PTR [esp+4], xmm0
  002d4	0f 57 c0	 xorps	 xmm0, xmm0
  002d7	f3 0f 2a c7	 cvtsi2ss xmm0, edi
  002db	8b ce		 mov	 ecx, esi
  002dd	f3 0f 11 04 24	 movss	 DWORD PTR [esp], xmm0
  002e2	ff 12		 call	 DWORD PTR [edx]
$LN1@OnRenderSh:

; 178  : 	}		
; 179  : 	return true;

  002e4	b0 01		 mov	 al, 1
  002e6	e9 80 fd ff ff	 jmp	 $LN8@OnRenderSh
?OnRenderShowAndHide@AwardChatBubbleWnd@@MAE_NXZ ENDP	; AwardChatBubbleWnd::OnRenderShowAndHide
_TEXT	ENDS
PUBLIC	??_7AwardSlotNameBtn@@6B@			; AwardSlotNameBtn::`vftable'
PUBLIC	??0AwardSlotNameBtn@@QAE@XZ			; AwardSlotNameBtn::AwardSlotNameBtn
PUBLIC	??_R4AwardSlotNameBtn@@6B@			; AwardSlotNameBtn::`RTTI Complete Object Locator'
PUBLIC	??_R0?AVAwardSlotNameBtn@@@8			; AwardSlotNameBtn `RTTI Type Descriptor'
PUBLIC	??_R3AwardSlotNameBtn@@8			; AwardSlotNameBtn::`RTTI Class Hierarchy Descriptor'
PUBLIC	??_R2AwardSlotNameBtn@@8			; AwardSlotNameBtn::`RTTI Base Class Array'
PUBLIC	??_R1A@?0A@EA@AwardSlotNameBtn@@8		; AwardSlotNameBtn::`RTTI Base Class Descriptor at (0,-1,0,64)'
PUBLIC	??_R1A@?0A@EA@ioButton@@8			; ioButton::`RTTI Base Class Descriptor at (0,-1,0,64)'
PUBLIC	??_R0?AVioButton@@@8				; ioButton `RTTI Type Descriptor'
PUBLIC	??_R3ioButton@@8				; ioButton::`RTTI Class Hierarchy Descriptor'
PUBLIC	??_R2ioButton@@8				; ioButton::`RTTI Base Class Array'
PUBLIC	??_R1A@?0A@EA@ioWnd@@8				; ioWnd::`RTTI Base Class Descriptor at (0,-1,0,64)'
PUBLIC	??_R0?AVioWnd@@@8				; ioWnd `RTTI Type Descriptor'
PUBLIC	??_R3ioWnd@@8					; ioWnd::`RTTI Class Hierarchy Descriptor'
PUBLIC	??_R2ioWnd@@8					; ioWnd::`RTTI Base Class Array'
PUBLIC	?AddRenderFrame@AwardSlotNameBtn@@UAEXABVioHashString@@PAVioUIRenderFrame@@@Z ; AwardSlotNameBtn::AddRenderFrame
PUBLIC	?OnRender@AwardSlotNameBtn@@MAEXXZ		; AwardSlotNameBtn::OnRender
PUBLIC	?OnProcess@AwardSlotNameBtn@@MAEXM@Z		; AwardSlotNameBtn::OnProcess
PUBLIC	?iwm_show@AwardSlotNameBtn@@UAEXXZ		; AwardSlotNameBtn::iwm_show
EXTRN	__imp_??1ioButton@@UAE@XZ:PROC
EXTRN	__imp_??0ioButton@@QAE@XZ:PROC
EXTRN	___CxxFrameHandler3:PROC
EXTRN	@__security_check_cookie@4:PROC
EXTRN	__EH_epilog3:PROC
EXTRN	__EH_prolog3:PROC
EXTRN	?AddRenderImage@ioButton@@UAEXABVioHashString@@PAVioUIRenderImage@@@Z:PROC ; ioButton::AddRenderImage
EXTRN	?AddTooltipHelp@ioWnd@@UAEXABVioHashString@@00@Z:PROC ; ioWnd::AddTooltipHelp
EXTRN	?ParseExtraInfo@ioButton@@UAEXAAVioXMLElement@@@Z:PROC ; ioButton::ParseExtraInfo
EXTRN	?AddNamedRenderImage@ioWnd@@UAEXABVioHashString@@PAVioUIRenderImage@@@Z:PROC ; ioWnd::AddNamedRenderImage
EXTRN	?RemoveNamedRenderImage@ioWnd@@UAEXABVioHashString@@@Z:PROC ; ioWnd::RemoveNamedRenderImage
EXTRN	?GetNamedRenderImage@ioWnd@@UBEPAVioUIRenderImage@@ABVioHashString@@@Z:PROC ; ioWnd::GetNamedRenderImage
EXTRN	?SetWindowAlpha@ioButton@@UAEXH@Z:PROC		; ioButton::SetWindowAlpha
EXTRN	?SetActive@ioWnd@@UAEXXZ:PROC			; ioWnd::SetActive
EXTRN	?SetInActive@ioWnd@@UAEXXZ:PROC			; ioWnd::SetInActive
EXTRN	?ClearElementImageList@ioWnd@@UAEXXZ:PROC	; ioWnd::ClearElementImageList
EXTRN	?SetSize@ioWnd@@UAEXHH@Z:PROC			; ioWnd::SetSize
EXTRN	?SetPositionToDefault@ioWnd@@UAEXHH_N0@Z:PROC	; ioWnd::SetPositionToDefault
EXTRN	?IsNeedProcess@ioWnd@@UBE_NXZ:PROC		; ioWnd::IsNeedProcess
EXTRN	?IsCanMouseReaction@ioWnd@@UBE_NXZ:PROC		; ioWnd::IsCanMouseReaction
EXTRN	?AddChild@ioWnd@@UAEXPAV1@@Z:PROC		; ioWnd::AddChild
EXTRN	?DeleteChild@ioWnd@@UAEXK@Z:PROC		; ioWnd::DeleteChild
EXTRN	?DeleteAllChild@ioWnd@@UAEXXZ:PROC		; ioWnd::DeleteAllChild
EXTRN	?OnRenderShowAndHide@ioWnd@@MAE_NXZ:PROC	; ioWnd::OnRenderShowAndHide
EXTRN	?OnRenderShowAndHideByDefault@ioWnd@@MAE_NK@Z:PROC ; ioWnd::OnRenderShowAndHideByDefault
EXTRN	?OnRenderShowAndHideByTop@ioWnd@@MAE_NK@Z:PROC	; ioWnd::OnRenderShowAndHideByTop
EXTRN	?OnRenderShowAndHideByDown@ioWnd@@MAE_NK@Z:PROC	; ioWnd::OnRenderShowAndHideByDown
EXTRN	?OnRenderAfterChild@ioWnd@@MAEXXZ:PROC		; ioWnd::OnRenderAfterChild
EXTRN	?OnMouseProcess@ioWnd@@MAEXABVioMouse@@@Z:PROC	; ioWnd::OnMouseProcess
EXTRN	?CheckFrameReSize@ioButton@@MAEXHHHH@Z:PROC	; ioButton::CheckFrameReSize
EXTRN	?RenderImageList@ioWnd@@MAEXHHW4UIRenderType@@@Z:PROC ; ioWnd::RenderImageList
EXTRN	?iwm_create@ioWnd@@UAEXXZ:PROC			; ioWnd::iwm_create
EXTRN	?iwm_destroy@ioWnd@@UAEXXZ:PROC			; ioWnd::iwm_destroy
EXTRN	?iwm_lbuttondown@ioButton@@UAEXABVioMouse@@@Z:PROC ; ioButton::iwm_lbuttondown
EXTRN	?iwm_lbuttonup@ioButton@@UAEXABVioMouse@@@Z:PROC ; ioButton::iwm_lbuttonup
EXTRN	?iwm_lbuttonDBLCLK@ioButton@@UAEXABVioMouse@@@Z:PROC ; ioButton::iwm_lbuttonDBLCLK
EXTRN	?iwm_rbuttondown@ioButton@@UAEXABVioMouse@@@Z:PROC ; ioButton::iwm_rbuttondown
EXTRN	?iwm_rbuttonup@ioButton@@UAEXABVioMouse@@@Z:PROC ; ioButton::iwm_rbuttonup
EXTRN	?iwm_command@ioWnd@@UAEXPAV1@HK@Z:PROC		; ioWnd::iwm_command
EXTRN	?iwm_mouseover@ioButton@@UAEXABVioMouse@@@Z:PROC ; ioButton::iwm_mouseover
EXTRN	?iwm_mousemove@ioWnd@@UAEXABVioMouse@@@Z:PROC	; ioWnd::iwm_mousemove
EXTRN	?iwm_mouseleave@ioWnd@@UAEXABVioMouse@@@Z:PROC	; ioWnd::iwm_mouseleave
EXTRN	?iwm_vscroll@ioWnd@@UAEXKH@Z:PROC		; ioWnd::iwm_vscroll
EXTRN	?iwm_wheel@ioWnd@@UAEXH@Z:PROC			; ioWnd::iwm_wheel
EXTRN	?iwm_hide@ioWnd@@UAEXXZ:PROC			; ioWnd::iwm_hide
EXTRN	?iwm_esc@ioWnd@@UAE_NXZ:PROC			; ioWnd::iwm_esc
EXTRN	?iwm_spacebar@ioWnd@@UAE_NXZ:PROC		; ioWnd::iwm_spacebar
EXTRN	?iwm_gototop@ioWnd@@UAEXXZ:PROC			; ioWnd::iwm_gototop
EXTRN	?iwm_dragenter@ioWnd@@UAE?AW4IWDropEffect@@PAVioDragItem@@ABVioMouse@@@Z:PROC ; ioWnd::iwm_dragenter
EXTRN	?iwm_dragover@ioWnd@@UAE?AW4IWDropEffect@@PAVioDragItem@@ABVioMouse@@@Z:PROC ; ioWnd::iwm_dragover
EXTRN	?iwm_dragleave@ioWnd@@UAEXXZ:PROC		; ioWnd::iwm_dragleave
EXTRN	?iwm_dropitem@ioWnd@@UAE_NPAVioDragItem@@ABVioMouse@@PAV1@@Z:PROC ; ioWnd::iwm_dropitem
EXTRN	?iwm_dropdone@ioWnd@@UAEXPAVioDragItem@@PAV1@_N@Z:PROC ; ioWnd::iwm_dropdone
EXTRN	?IsEXType@ioWnd@@UBE_NXZ:PROC			; ioWnd::IsEXType
EXTRN	?GetWndType@ioButton@@UBEKXZ:PROC		; ioButton::GetWndType
EXTRN	?RenderWnd@ioWnd@@UAEXXZ:PROC			; ioWnd::RenderWnd
EXTRN	?SetIDEX@ioWnd@@UAEXAAK_N@Z:PROC		; ioWnd::SetIDEX
EXTRN	?ParseXML@ioWnd@@UAEXAAVioXMLElement@@@Z:PROC	; ioWnd::ParseXML
EXTRN	?GetHeaderFileName@ioButton@@UAEPBDXZ:PROC	; ioButton::GetHeaderFileName
EXTRN	?GetTemplateName@ioButton@@UAEPBDXZ:PROC	; ioButton::GetTemplateName
EXTRN	?GetDefClassName@ioButton@@UBEPBDXZ:PROC	; ioButton::GetDefClassName
EXTRN	?_Clone@ioButton@@UAEPAVioWnd@@XZ:PROC		; ioButton::_Clone
EXTRN	?Copy@ioButton@@UAEXPAVioWnd@@@Z:PROC		; ioButton::Copy
EXTRN	?Save@ioWnd@@UAE_NAAVioXMLElement@@@Z:PROC	; ioWnd::Save
EXTRN	?SetSaveData@ioButton@@UAEXAAVioXMLElement@@@Z:PROC ; ioButton::SetSaveData
EXTRN	?SetPosX@ioWnd@@UAEXH@Z:PROC			; ioWnd::SetPosX
EXTRN	?SetPosY@ioWnd@@UAEXH@Z:PROC			; ioWnd::SetPosY
EXTRN	?SetWidth@ioWnd@@UAEXH@Z:PROC			; ioWnd::SetWidth
EXTRN	?SetHeight@ioWnd@@UAEXH@Z:PROC			; ioWnd::SetHeight
EXTRN	?GetNumFixedRenderFrame@ioButton@@UBEHXZ:PROC	; ioButton::GetNumFixedRenderFrame
EXTRN	?GetFixedRenderFrameType@ioButton@@UAEPBDH@Z:PROC ; ioButton::GetFixedRenderFrameType
EXTRN	?GetRenderFrame@ioButton@@UAEPAPAVioUIRenderElement@@PBD@Z:PROC ; ioButton::GetRenderFrame
EXTRN	?GetNumFixedRenderImage@ioButton@@UBEHXZ:PROC	; ioButton::GetNumFixedRenderImage
EXTRN	?GetFixedRenderImageType@ioButton@@UAEPBDH@Z:PROC ; ioButton::GetFixedRenderImageType
EXTRN	?GetRenderImage@ioButton@@UAEPAPAVioUIRenderElement@@PBD@Z:PROC ; ioButton::GetRenderImage
EXTRN	?AddEffect@ioWnd@@UAEXABVioHashString@@PAVioUI3DEffectRender@@@Z:PROC ; ioWnd::AddEffect
EXTRN	?GetEffect@ioWnd@@UAEPAVioUI3DEffectRender@@VioHashString@@@Z:PROC ; ioWnd::GetEffect
EXTRN	??_EAwardSlotNameBtn@@UAEPAXI@Z:PROC		; AwardSlotNameBtn::`vector deleting destructor'
EXTRN	?OnDrawNormal@ioButton@@MAEXHH@Z:PROC		; ioButton::OnDrawNormal
EXTRN	?OnDrawOvered@ioButton@@MAEXHH@Z:PROC		; ioButton::OnDrawOvered
EXTRN	?OnDrawOveredAdd@ioButton@@MAEXHH@Z:PROC	; ioButton::OnDrawOveredAdd
EXTRN	?OnDrawPushed@ioButton@@MAEXHH@Z:PROC		; ioButton::OnDrawPushed
EXTRN	?OnDrawDisabled@ioButton@@MAEXHH@Z:PROC		; ioButton::OnDrawDisabled
EXTRN	?OnDrawExDisabledNormal@ioButton@@MAEXHH@Z:PROC	; ioButton::OnDrawExDisabledNormal
EXTRN	?OnDrawExDisabledOvered@ioButton@@MAEXHH@Z:PROC	; ioButton::OnDrawExDisabledOvered
EXTRN	?OnDrawExDisabledPushed@ioButton@@MAEXHH@Z:PROC	; ioButton::OnDrawExDisabledPushed
EXTRN	?OnDrawBack@ioButton@@MAEXHH@Z:PROC		; ioButton::OnDrawBack
EXTRN	?OnDrawNormalList@ioButton@@MAEXHH@Z:PROC	; ioButton::OnDrawNormalList
EXTRN	?OnDrawDisableList@ioButton@@MAEXHH@Z:PROC	; ioButton::OnDrawDisableList
;	COMDAT ??_R2ioWnd@@8
rdata$r	SEGMENT
??_R2ioWnd@@8 DD FLAT:??_R1A@?0A@EA@ioWnd@@8		; ioWnd::`RTTI Base Class Array'
rdata$r	ENDS
;	COMDAT ??_R3ioWnd@@8
rdata$r	SEGMENT
??_R3ioWnd@@8 DD 00H					; ioWnd::`RTTI Class Hierarchy Descriptor'
	DD	00H
	DD	01H
	DD	FLAT:??_R2ioWnd@@8
rdata$r	ENDS
;	COMDAT ??_R0?AVioWnd@@@8
_DATA	SEGMENT
??_R0?AVioWnd@@@8 DD FLAT:??_7type_info@@6B@		; ioWnd `RTTI Type Descriptor'
	DD	00H
	DB	'.?AVioWnd@@', 00H
_DATA	ENDS
;	COMDAT ??_R1A@?0A@EA@ioWnd@@8
rdata$r	SEGMENT
??_R1A@?0A@EA@ioWnd@@8 DD FLAT:??_R0?AVioWnd@@@8	; ioWnd::`RTTI Base Class Descriptor at (0,-1,0,64)'
	DD	00H
	DD	00H
	DD	0ffffffffH
	DD	00H
	DD	040H
	DD	FLAT:??_R3ioWnd@@8
rdata$r	ENDS
;	COMDAT ??_R2ioButton@@8
rdata$r	SEGMENT
??_R2ioButton@@8 DD FLAT:??_R1A@?0A@EA@ioButton@@8	; ioButton::`RTTI Base Class Array'
	DD	FLAT:??_R1A@?0A@EA@ioWnd@@8
rdata$r	ENDS
;	COMDAT ??_R3ioButton@@8
rdata$r	SEGMENT
??_R3ioButton@@8 DD 00H					; ioButton::`RTTI Class Hierarchy Descriptor'
	DD	00H
	DD	02H
	DD	FLAT:??_R2ioButton@@8
rdata$r	ENDS
;	COMDAT ??_R0?AVioButton@@@8
_DATA	SEGMENT
??_R0?AVioButton@@@8 DD FLAT:??_7type_info@@6B@		; ioButton `RTTI Type Descriptor'
	DD	00H
	DB	'.?AVioButton@@', 00H
_DATA	ENDS
;	COMDAT ??_R1A@?0A@EA@ioButton@@8
rdata$r	SEGMENT
??_R1A@?0A@EA@ioButton@@8 DD FLAT:??_R0?AVioButton@@@8	; ioButton::`RTTI Base Class Descriptor at (0,-1,0,64)'
	DD	01H
	DD	00H
	DD	0ffffffffH
	DD	00H
	DD	040H
	DD	FLAT:??_R3ioButton@@8
rdata$r	ENDS
;	COMDAT ??_R1A@?0A@EA@AwardSlotNameBtn@@8
rdata$r	SEGMENT
??_R1A@?0A@EA@AwardSlotNameBtn@@8 DD FLAT:??_R0?AVAwardSlotNameBtn@@@8 ; AwardSlotNameBtn::`RTTI Base Class Descriptor at (0,-1,0,64)'
	DD	02H
	DD	00H
	DD	0ffffffffH
	DD	00H
	DD	040H
	DD	FLAT:??_R3AwardSlotNameBtn@@8
rdata$r	ENDS
;	COMDAT ??_R2AwardSlotNameBtn@@8
rdata$r	SEGMENT
??_R2AwardSlotNameBtn@@8 DD FLAT:??_R1A@?0A@EA@AwardSlotNameBtn@@8 ; AwardSlotNameBtn::`RTTI Base Class Array'
	DD	FLAT:??_R1A@?0A@EA@ioButton@@8
	DD	FLAT:??_R1A@?0A@EA@ioWnd@@8
rdata$r	ENDS
;	COMDAT ??_R3AwardSlotNameBtn@@8
rdata$r	SEGMENT
??_R3AwardSlotNameBtn@@8 DD 00H				; AwardSlotNameBtn::`RTTI Class Hierarchy Descriptor'
	DD	00H
	DD	03H
	DD	FLAT:??_R2AwardSlotNameBtn@@8
rdata$r	ENDS
;	COMDAT ??_R0?AVAwardSlotNameBtn@@@8
_DATA	SEGMENT
??_R0?AVAwardSlotNameBtn@@@8 DD FLAT:??_7type_info@@6B@	; AwardSlotNameBtn `RTTI Type Descriptor'
	DD	00H
	DB	'.?AVAwardSlotNameBtn@@', 00H
_DATA	ENDS
;	COMDAT ??_R4AwardSlotNameBtn@@6B@
rdata$r	SEGMENT
??_R4AwardSlotNameBtn@@6B@ DD 00H			; AwardSlotNameBtn::`RTTI Complete Object Locator'
	DD	00H
	DD	00H
	DD	FLAT:??_R0?AVAwardSlotNameBtn@@@8
	DD	FLAT:??_R3AwardSlotNameBtn@@8
rdata$r	ENDS
;	COMDAT ??_7AwardSlotNameBtn@@6B@
CONST	SEGMENT
??_7AwardSlotNameBtn@@6B@ DD FLAT:??_R4AwardSlotNameBtn@@6B@ ; AwardSlotNameBtn::`vftable'
	DD	FLAT:?AddRenderFrame@AwardSlotNameBtn@@UAEXABVioHashString@@PAVioUIRenderFrame@@@Z
	DD	FLAT:?AddRenderImage@ioButton@@UAEXABVioHashString@@PAVioUIRenderImage@@@Z
	DD	FLAT:?AddTooltipHelp@ioWnd@@UAEXABVioHashString@@00@Z
	DD	FLAT:?ParseExtraInfo@ioButton@@UAEXAAVioXMLElement@@@Z
	DD	FLAT:?AddNamedRenderImage@ioWnd@@UAEXABVioHashString@@PAVioUIRenderImage@@@Z
	DD	FLAT:?RemoveNamedRenderImage@ioWnd@@UAEXABVioHashString@@@Z
	DD	FLAT:?GetNamedRenderImage@ioWnd@@UBEPAVioUIRenderImage@@ABVioHashString@@@Z
	DD	FLAT:?SetWindowAlpha@ioButton@@UAEXH@Z
	DD	FLAT:?SetActive@ioWnd@@UAEXXZ
	DD	FLAT:?SetInActive@ioWnd@@UAEXXZ
	DD	FLAT:?ClearElementImageList@ioWnd@@UAEXXZ
	DD	FLAT:?SetSize@ioWnd@@UAEXHH@Z
	DD	FLAT:?SetPositionToDefault@ioWnd@@UAEXHH_N0@Z
	DD	FLAT:?IsNeedProcess@ioWnd@@UBE_NXZ
	DD	FLAT:?IsCanMouseReaction@ioWnd@@UBE_NXZ
	DD	FLAT:?AddChild@ioWnd@@UAEXPAV1@@Z
	DD	FLAT:?DeleteChild@ioWnd@@UAEXK@Z
	DD	FLAT:?DeleteAllChild@ioWnd@@UAEXXZ
	DD	FLAT:?OnRenderShowAndHide@ioWnd@@MAE_NXZ
	DD	FLAT:?OnRenderShowAndHideByDefault@ioWnd@@MAE_NK@Z
	DD	FLAT:?OnRenderShowAndHideByTop@ioWnd@@MAE_NK@Z
	DD	FLAT:?OnRenderShowAndHideByDown@ioWnd@@MAE_NK@Z
	DD	FLAT:?OnRender@AwardSlotNameBtn@@MAEXXZ
	DD	FLAT:?OnRenderAfterChild@ioWnd@@MAEXXZ
	DD	FLAT:?OnProcess@AwardSlotNameBtn@@MAEXM@Z
	DD	FLAT:?OnMouseProcess@ioWnd@@MAEXABVioMouse@@@Z
	DD	FLAT:?CheckFrameReSize@ioButton@@MAEXHHHH@Z
	DD	FLAT:?RenderImageList@ioWnd@@MAEXHHW4UIRenderType@@@Z
	DD	FLAT:?iwm_create@ioWnd@@UAEXXZ
	DD	FLAT:?iwm_destroy@ioWnd@@UAEXXZ
	DD	FLAT:?iwm_lbuttondown@ioButton@@UAEXABVioMouse@@@Z
	DD	FLAT:?iwm_lbuttonup@ioButton@@UAEXABVioMouse@@@Z
	DD	FLAT:?iwm_lbuttonDBLCLK@ioButton@@UAEXABVioMouse@@@Z
	DD	FLAT:?iwm_rbuttondown@ioButton@@UAEXABVioMouse@@@Z
	DD	FLAT:?iwm_rbuttonup@ioButton@@UAEXABVioMouse@@@Z
	DD	FLAT:?iwm_command@ioWnd@@UAEXPAV1@HK@Z
	DD	FLAT:?iwm_mouseover@ioButton@@UAEXABVioMouse@@@Z
	DD	FLAT:?iwm_mousemove@ioWnd@@UAEXABVioMouse@@@Z
	DD	FLAT:?iwm_mouseleave@ioWnd@@UAEXABVioMouse@@@Z
	DD	FLAT:?iwm_vscroll@ioWnd@@UAEXKH@Z
	DD	FLAT:?iwm_wheel@ioWnd@@UAEXH@Z
	DD	FLAT:?iwm_show@AwardSlotNameBtn@@UAEXXZ
	DD	FLAT:?iwm_hide@ioWnd@@UAEXXZ
	DD	FLAT:?iwm_esc@ioWnd@@UAE_NXZ
	DD	FLAT:?iwm_spacebar@ioWnd@@UAE_NXZ
	DD	FLAT:?iwm_gototop@ioWnd@@UAEXXZ
	DD	FLAT:?iwm_dragenter@ioWnd@@UAE?AW4IWDropEffect@@PAVioDragItem@@ABVioMouse@@@Z
	DD	FLAT:?iwm_dragover@ioWnd@@UAE?AW4IWDropEffect@@PAVioDragItem@@ABVioMouse@@@Z
	DD	FLAT:?iwm_dragleave@ioWnd@@UAEXXZ
	DD	FLAT:?iwm_dropitem@ioWnd@@UAE_NPAVioDragItem@@ABVioMouse@@PAV1@@Z
	DD	FLAT:?iwm_dropdone@ioWnd@@UAEXPAVioDragItem@@PAV1@_N@Z
	DD	FLAT:?IsEXType@ioWnd@@UBE_NXZ
	DD	FLAT:?GetWndType@ioButton@@UBEKXZ
	DD	FLAT:?RenderWnd@ioWnd@@UAEXXZ
	DD	FLAT:?SetIDEX@ioWnd@@UAEXAAK_N@Z
	DD	FLAT:?ParseXML@ioWnd@@UAEXAAVioXMLElement@@@Z
	DD	FLAT:?GetHeaderFileName@ioButton@@UAEPBDXZ
	DD	FLAT:?GetTemplateName@ioButton@@UAEPBDXZ
	DD	FLAT:?GetDefClassName@ioButton@@UBEPBDXZ
	DD	FLAT:?_Clone@ioButton@@UAEPAVioWnd@@XZ
	DD	FLAT:?Copy@ioButton@@UAEXPAVioWnd@@@Z
	DD	FLAT:?Save@ioWnd@@UAE_NAAVioXMLElement@@@Z
	DD	FLAT:?SetSaveData@ioButton@@UAEXAAVioXMLElement@@@Z
	DD	FLAT:?SetPosX@ioWnd@@UAEXH@Z
	DD	FLAT:?SetPosY@ioWnd@@UAEXH@Z
	DD	FLAT:?SetWidth@ioWnd@@UAEXH@Z
	DD	FLAT:?SetHeight@ioWnd@@UAEXH@Z
	DD	FLAT:?GetNumFixedRenderFrame@ioButton@@UBEHXZ
	DD	FLAT:?GetFixedRenderFrameType@ioButton@@UAEPBDH@Z
	DD	FLAT:?GetRenderFrame@ioButton@@UAEPAPAVioUIRenderElement@@PBD@Z
	DD	FLAT:?GetNumFixedRenderImage@ioButton@@UBEHXZ
	DD	FLAT:?GetFixedRenderImageType@ioButton@@UAEPBDH@Z
	DD	FLAT:?GetRenderImage@ioButton@@UAEPAPAVioUIRenderElement@@PBD@Z
	DD	FLAT:?AddEffect@ioWnd@@UAEXABVioHashString@@PAVioUI3DEffectRender@@@Z
	DD	FLAT:?GetEffect@ioWnd@@UAEPAVioUI3DEffectRender@@VioHashString@@@Z
	DD	FLAT:??_EAwardSlotNameBtn@@UAEPAXI@Z
	DD	FLAT:?OnDrawNormal@ioButton@@MAEXHH@Z
	DD	FLAT:?OnDrawOvered@ioButton@@MAEXHH@Z
	DD	FLAT:?OnDrawOveredAdd@ioButton@@MAEXHH@Z
	DD	FLAT:?OnDrawPushed@ioButton@@MAEXHH@Z
	DD	FLAT:?OnDrawDisabled@ioButton@@MAEXHH@Z
	DD	FLAT:?OnDrawExDisabledNormal@ioButton@@MAEXHH@Z
	DD	FLAT:?OnDrawExDisabledOvered@ioButton@@MAEXHH@Z
	DD	FLAT:?OnDrawExDisabledPushed@ioButton@@MAEXHH@Z
	DD	FLAT:?OnDrawBack@ioButton@@MAEXHH@Z
	DD	FLAT:?OnDrawNormalList@ioButton@@MAEXHH@Z
	DD	FLAT:?OnDrawDisableList@ioButton@@MAEXHH@Z
CONST	ENDS
;	COMDAT xdata$x
xdata$x	SEGMENT
__unwindtable$??0AwardSlotNameBtn@@QAE@XZ DD 0ffffffffH
	DD	FLAT:__unwindfunclet$??0AwardSlotNameBtn@@QAE@XZ$0
__ehfuncinfo$??0AwardSlotNameBtn@@QAE@XZ DD 019930522H
	DD	01H
	DD	FLAT:__unwindtable$??0AwardSlotNameBtn@@QAE@XZ
	DD	2 DUP(00H)
	DD	2 DUP(00H)
	DD	00H
	DD	01H
; Function compile flags: /Ogsp
xdata$x	ENDS
;	COMDAT ??0AwardSlotNameBtn@@QAE@XZ
_TEXT	SEGMENT
_this$ = -16						; size = 4
__$EHRec$ = -12						; size = 12
??0AwardSlotNameBtn@@QAE@XZ PROC			; AwardSlotNameBtn::AwardSlotNameBtn, COMDAT
; _this$ = ecx

; 214  : {

  00000	6a 04		 push	 4
  00002	b8 00 00 00 00	 mov	 eax, __ehhandler$??0AwardSlotNameBtn@@QAE@XZ
  00007	e8 00 00 00 00	 call	 __EH_prolog3
  0000c	8b f1		 mov	 esi, ecx
  0000e	89 75 f0	 mov	 DWORD PTR _this$[ebp], esi
  00011	ff 15 00 00 00
	00		 call	 DWORD PTR __imp_??0ioButton@@QAE@XZ
  00017	33 db		 xor	 ebx, ebx
  00019	8d 8e 18 02 00
	00		 lea	 ecx, DWORD PTR [esi+536]
  0001f	89 5d fc	 mov	 DWORD PTR __$EHRec$[ebp+8], ebx
  00022	c7 06 00 00 00
	00		 mov	 DWORD PTR [esi], OFFSET ??_7AwardSlotNameBtn@@6B@
  00028	ff 15 00 00 00
	00		 call	 DWORD PTR __imp_??0ioHashString@@QAE@XZ

; 215  : 	m_pThickBlueFrm = NULL;
; 216  : 	m_pLightBlueFrm = NULL;
; 217  : 	m_pThickRedFrm  = NULL;
; 218  : 	m_pLightRedFrm  = NULL;
; 219  : 
; 220  : 	m_iClassType	= -1;

  0002e	83 8e 10 02 00
	00 ff		 or	 DWORD PTR [esi+528], -1
  00035	89 9e fc 01 00
	00		 mov	 DWORD PTR [esi+508], ebx
  0003b	89 9e 00 02 00
	00		 mov	 DWORD PTR [esi+512], ebx
  00041	89 9e 04 02 00
	00		 mov	 DWORD PTR [esi+516], ebx
  00047	89 9e 08 02 00
	00		 mov	 DWORD PTR [esi+520], ebx

; 221  : 	m_iGradeLevel	= 0;

  0004d	89 9e 0c 02 00
	00		 mov	 DWORD PTR [esi+524], ebx

; 222  : 	m_eTeam			= TEAM_NONE;

  00053	89 9e 14 02 00
	00		 mov	 DWORD PTR [esi+532], ebx

; 223  : 	m_bOriginal     = false;

  00059	88 9e 28 02 00
	00		 mov	 BYTE PTR [esi+552], bl

; 224  : }

  0005f	8b c6		 mov	 eax, esi
  00061	e8 00 00 00 00	 call	 __EH_epilog3
  00066	c3		 ret	 0
_TEXT	ENDS
;	COMDAT text$x
text$x	SEGMENT
__unwindfunclet$??0AwardSlotNameBtn@@QAE@XZ$0:
  00000	8b 4d f0	 mov	 ecx, DWORD PTR _this$[ebp]
  00003	ff 25 00 00 00
	00		 jmp	 DWORD PTR __imp_??1ioButton@@UAE@XZ
__ehhandler$??0AwardSlotNameBtn@@QAE@XZ:
  00009	8b 54 24 08	 mov	 edx, DWORD PTR [esp+8]
  0000d	8d 42 0c	 lea	 eax, DWORD PTR [edx+12]
  00010	8b 4a ec	 mov	 ecx, DWORD PTR [edx-20]
  00013	33 c8		 xor	 ecx, eax
  00015	e8 00 00 00 00	 call	 @__security_check_cookie@4
  0001a	b8 00 00 00 00	 mov	 eax, OFFSET __ehfuncinfo$??0AwardSlotNameBtn@@QAE@XZ
  0001f	e9 00 00 00 00	 jmp	 ___CxxFrameHandler3
text$x	ENDS
??0AwardSlotNameBtn@@QAE@XZ ENDP			; AwardSlotNameBtn::AwardSlotNameBtn
PUBLIC	??1AwardSlotNameBtn@@UAE@XZ			; AwardSlotNameBtn::~AwardSlotNameBtn
;	COMDAT xdata$x
xdata$x	SEGMENT
__unwindtable$??1AwardSlotNameBtn@@UAE@XZ DD 0ffffffffH
	DD	FLAT:__unwindfunclet$??1AwardSlotNameBtn@@UAE@XZ$0
	DD	00H
	DD	FLAT:__unwindfunclet$??1AwardSlotNameBtn@@UAE@XZ$1
__ehfuncinfo$??1AwardSlotNameBtn@@UAE@XZ DD 019930522H
	DD	02H
	DD	FLAT:__unwindtable$??1AwardSlotNameBtn@@UAE@XZ
	DD	2 DUP(00H)
	DD	2 DUP(00H)
	DD	00H
	DD	01H
; Function compile flags: /Ogsp
xdata$x	ENDS
;	COMDAT ??1AwardSlotNameBtn@@UAE@XZ
_TEXT	SEGMENT
_this$ = -16						; size = 4
__$EHRec$ = -12						; size = 12
??1AwardSlotNameBtn@@UAE@XZ PROC			; AwardSlotNameBtn::~AwardSlotNameBtn, COMDAT
; _this$ = ecx

; 227  : {

  00000	6a 04		 push	 4
  00002	b8 00 00 00 00	 mov	 eax, __ehhandler$??1AwardSlotNameBtn@@UAE@XZ
  00007	e8 00 00 00 00	 call	 __EH_prolog3
  0000c	8b f1		 mov	 esi, ecx
  0000e	89 75 f0	 mov	 DWORD PTR _this$[ebp], esi
  00011	c7 06 00 00 00
	00		 mov	 DWORD PTR [esi], OFFSET ??_7AwardSlotNameBtn@@6B@

; 228  : 	SAFEDELETE( m_pThickBlueFrm );

  00017	8b 8e fc 01 00
	00		 mov	 ecx, DWORD PTR [esi+508]
  0001d	33 db		 xor	 ebx, ebx
  0001f	43		 inc	 ebx
  00020	89 5d fc	 mov	 DWORD PTR __$EHRec$[ebp+8], ebx
  00023	85 c9		 test	 ecx, ecx
  00025	74 0d		 je	 SHORT $LN4@AwardSlotN
  00027	8b 01		 mov	 eax, DWORD PTR [ecx]
  00029	53		 push	 ebx
  0002a	ff 50 40	 call	 DWORD PTR [eax+64]
  0002d	83 a6 fc 01 00
	00 00		 and	 DWORD PTR [esi+508], 0
$LN4@AwardSlotN:

; 229  : 	SAFEDELETE( m_pLightBlueFrm );

  00034	8b 8e 00 02 00
	00		 mov	 ecx, DWORD PTR [esi+512]
  0003a	85 c9		 test	 ecx, ecx
  0003c	74 0d		 je	 SHORT $LN3@AwardSlotN
  0003e	8b 01		 mov	 eax, DWORD PTR [ecx]
  00040	53		 push	 ebx
  00041	ff 50 40	 call	 DWORD PTR [eax+64]
  00044	83 a6 00 02 00
	00 00		 and	 DWORD PTR [esi+512], 0
$LN3@AwardSlotN:

; 230  : 	SAFEDELETE( m_pThickRedFrm );

  0004b	8b 8e 04 02 00
	00		 mov	 ecx, DWORD PTR [esi+516]
  00051	85 c9		 test	 ecx, ecx
  00053	74 0d		 je	 SHORT $LN2@AwardSlotN
  00055	8b 01		 mov	 eax, DWORD PTR [ecx]
  00057	53		 push	 ebx
  00058	ff 50 40	 call	 DWORD PTR [eax+64]
  0005b	83 a6 04 02 00
	00 00		 and	 DWORD PTR [esi+516], 0
$LN2@AwardSlotN:

; 231  : 	SAFEDELETE( m_pLightRedFrm );

  00062	8b 8e 08 02 00
	00		 mov	 ecx, DWORD PTR [esi+520]
  00068	85 c9		 test	 ecx, ecx
  0006a	74 0d		 je	 SHORT $LN1@AwardSlotN
  0006c	8b 01		 mov	 eax, DWORD PTR [ecx]
  0006e	53		 push	 ebx
  0006f	ff 50 40	 call	 DWORD PTR [eax+64]
  00072	83 a6 08 02 00
	00 00		 and	 DWORD PTR [esi+520], 0
$LN1@AwardSlotN:

; 232  : }

  00079	8d 8e 18 02 00
	00		 lea	 ecx, DWORD PTR [esi+536]
  0007f	c6 45 fc 00	 mov	 BYTE PTR __$EHRec$[ebp+8], 0
  00083	ff 15 00 00 00
	00		 call	 DWORD PTR __imp_??1ioHashString@@QAE@XZ
  00089	83 4d fc ff	 or	 DWORD PTR __$EHRec$[ebp+8], -1
  0008d	8b ce		 mov	 ecx, esi
  0008f	ff 15 00 00 00
	00		 call	 DWORD PTR __imp_??1ioButton@@UAE@XZ
  00095	e8 00 00 00 00	 call	 __EH_epilog3
  0009a	c3		 ret	 0
_TEXT	ENDS
;	COMDAT text$x
text$x	SEGMENT
__unwindfunclet$??1AwardSlotNameBtn@@UAE@XZ$0:
  00000	8b 4d f0	 mov	 ecx, DWORD PTR _this$[ebp]
  00003	ff 25 00 00 00
	00		 jmp	 DWORD PTR __imp_??1ioButton@@UAE@XZ
__unwindfunclet$??1AwardSlotNameBtn@@UAE@XZ$1:
  00009	8b 4d f0	 mov	 ecx, DWORD PTR _this$[ebp]
  0000c	81 c1 18 02 00
	00		 add	 ecx, 536		; 00000218H
  00012	ff 25 00 00 00
	00		 jmp	 DWORD PTR __imp_??1ioHashString@@QAE@XZ
__ehhandler$??1AwardSlotNameBtn@@UAE@XZ:
  00018	8b 54 24 08	 mov	 edx, DWORD PTR [esp+8]
  0001c	8d 42 0c	 lea	 eax, DWORD PTR [edx+12]
  0001f	8b 4a ec	 mov	 ecx, DWORD PTR [edx-20]
  00022	33 c8		 xor	 ecx, eax
  00024	e8 00 00 00 00	 call	 @__security_check_cookie@4
  00029	b8 00 00 00 00	 mov	 eax, OFFSET __ehfuncinfo$??1AwardSlotNameBtn@@UAE@XZ
  0002e	e9 00 00 00 00	 jmp	 ___CxxFrameHandler3
text$x	ENDS
??1AwardSlotNameBtn@@UAE@XZ ENDP			; AwardSlotNameBtn::~AwardSlotNameBtn
PUBLIC	?SetAwardName@AwardSlotNameBtn@@QAEXHHW4TeamType@@ABVioHashString@@_N@Z ; AwardSlotNameBtn::SetAwardName
EXTRN	__imp_??4ioHashString@@QAEAAV0@ABV0@@Z:PROC
; Function compile flags: /Ogsp
;	COMDAT ?SetAwardName@AwardSlotNameBtn@@QAEXHHW4TeamType@@ABVioHashString@@_N@Z
_TEXT	SEGMENT
_iClassType$ = 8					; size = 4
_iLevel$ = 12						; size = 4
_eTeam$ = 16						; size = 4
_szName$ = 20						; size = 4
_bOriginal$ = 24					; size = 1
?SetAwardName@AwardSlotNameBtn@@QAEXHHW4TeamType@@ABVioHashString@@_N@Z PROC ; AwardSlotNameBtn::SetAwardName, COMDAT
; _this$ = ecx

; 235  : {

  00000	55		 push	 ebp
  00001	8b ec		 mov	 ebp, esp

; 236  : 	m_iClassType  = iClassType;

  00003	8b 45 08	 mov	 eax, DWORD PTR _iClassType$[ebp]
  00006	56		 push	 esi

; 237  : 	m_iGradeLevel = iLevel;
; 238  : 	m_eTeam       = eTeam;
; 239  : 	m_szName      = szName;

  00007	ff 75 14	 push	 DWORD PTR _szName$[ebp]
  0000a	8b f1		 mov	 esi, ecx
  0000c	89 86 10 02 00
	00		 mov	 DWORD PTR [esi+528], eax
  00012	8b 45 0c	 mov	 eax, DWORD PTR _iLevel$[ebp]
  00015	89 86 0c 02 00
	00		 mov	 DWORD PTR [esi+524], eax
  0001b	8b 45 10	 mov	 eax, DWORD PTR _eTeam$[ebp]
  0001e	8d 8e 18 02 00
	00		 lea	 ecx, DWORD PTR [esi+536]
  00024	89 86 14 02 00
	00		 mov	 DWORD PTR [esi+532], eax
  0002a	ff 15 00 00 00
	00		 call	 DWORD PTR __imp_??4ioHashString@@QAEAAV0@ABV0@@Z

; 240  : 	m_bOriginal   = bOriginal;

  00030	8a 45 18	 mov	 al, BYTE PTR _bOriginal$[ebp]
  00033	88 86 28 02 00
	00		 mov	 BYTE PTR [esi+552], al

; 241  : 	if( m_bOriginal )

  00039	84 c0		 test	 al, al

; 242  : 		SetActive();

  0003b	8b 06		 mov	 eax, DWORD PTR [esi]
  0003d	8b ce		 mov	 ecx, esi
  0003f	74 05		 je	 SHORT $LN2@SetAwardNa
  00041	ff 50 20	 call	 DWORD PTR [eax+32]

; 243  : 	else

  00044	eb 03		 jmp	 SHORT $LN1@SetAwardNa
$LN2@SetAwardNa:

; 244  : 		SetInActive();

  00046	ff 50 24	 call	 DWORD PTR [eax+36]
$LN1@SetAwardNa:
  00049	5e		 pop	 esi

; 245  : }

  0004a	5d		 pop	 ebp
  0004b	c2 14 00	 ret	 20			; 00000014H
?SetAwardName@AwardSlotNameBtn@@QAEXHHW4TeamType@@ABVioHashString@@_N@Z ENDP ; AwardSlotNameBtn::SetAwardName
; Function compile flags: /Ogsp
_TEXT	ENDS
;	COMDAT ?iwm_show@AwardSlotNameBtn@@UAEXXZ
_TEXT	SEGMENT
?iwm_show@AwardSlotNameBtn@@UAEXXZ PROC			; AwardSlotNameBtn::iwm_show, COMDAT
; _this$ = ecx

; 249  : }

  00000	c3		 ret	 0
?iwm_show@AwardSlotNameBtn@@UAEXXZ ENDP			; AwardSlotNameBtn::iwm_show
_TEXT	ENDS
PUBLIC	??_C@_0BL@HACJINFC@XML?1awardchatbubblewnd?4xml?$AA@ ; `string'
PUBLIC	??_C@_0CE@FCMGKOOH@config?1sp2_stage_charselect_map?4@ ; `string'
PUBLIC	??_C@_09EINHMOLK@award_cam?$AA@			; `string'
PUBLIC	?iwm_create@AwardSlotWnd@@UAEXXZ		; AwardSlotWnd::iwm_create
EXTRN	__imp_?AddWnd@ioGUIManager@@QAEPAVioWnd@@PBDPAV2@@Z:PROC
EXTRN	?GetSingleton@ioSP2GUIManager@@SAAAV1@XZ:PROC	; ioSP2GUIManager::GetSingleton
EXTRN	?Initialize@ioUI3DRender@@QAEXPBD0@Z:PROC	; ioUI3DRender::Initialize
EXTRN	??0ioUI3DRender@@QAE@XZ:PROC			; ioUI3DRender::ioUI3DRender
EXTRN	??2@YAPAXI@Z:PROC				; operator new
;	COMDAT ??_C@_0BL@HACJINFC@XML?1awardchatbubblewnd?4xml?$AA@
CONST	SEGMENT
??_C@_0BL@HACJINFC@XML?1awardchatbubblewnd?4xml?$AA@ DB 'XML/awardchatbub'
	DB	'blewnd.xml', 00H				; `string'
CONST	ENDS
;	COMDAT ??_C@_0CE@FCMGKOOH@config?1sp2_stage_charselect_map?4@
CONST	SEGMENT
??_C@_0CE@FCMGKOOH@config?1sp2_stage_charselect_map?4@ DB 'config/sp2_sta'
	DB	'ge_charselect_map.ini', 00H			; `string'
CONST	ENDS
;	COMDAT ??_C@_09EINHMOLK@award_cam?$AA@
CONST	SEGMENT
??_C@_09EINHMOLK@award_cam?$AA@ DB 'award_cam', 00H	; `string'
CONST	ENDS
;	COMDAT xdata$x
xdata$x	SEGMENT
__unwindtable$?iwm_create@AwardSlotWnd@@UAEXXZ DD 0ffffffffH
	DD	FLAT:__unwindfunclet$?iwm_create@AwardSlotWnd@@UAEXXZ$0
__ehfuncinfo$?iwm_create@AwardSlotWnd@@UAEXXZ DD 019930522H
	DD	01H
	DD	FLAT:__unwindtable$?iwm_create@AwardSlotWnd@@UAEXXZ
	DD	2 DUP(00H)
	DD	2 DUP(00H)
	DD	00H
	DD	01H
; Function compile flags: /Ogsp
xdata$x	ENDS
;	COMDAT ?iwm_create@AwardSlotWnd@@UAEXXZ
_TEXT	SEGMENT
$T555436 = -16						; size = 4
__$EHRec$ = -12						; size = 12
?iwm_create@AwardSlotWnd@@UAEXXZ PROC			; AwardSlotWnd::iwm_create, COMDAT
; _this$ = ecx

; 392  : {

  00000	6a 04		 push	 4
  00002	b8 00 00 00 00	 mov	 eax, __ehhandler$?iwm_create@AwardSlotWnd@@UAEXXZ
  00007	e8 00 00 00 00	 call	 __EH_prolog3
  0000c	8b f1		 mov	 esi, ecx

; 393  : 	SAFEDELETE( m_pUI3DRender );

  0000e	8b 8e 60 01 00
	00		 mov	 ecx, DWORD PTR [esi+352]
  00014	85 c9		 test	 ecx, ecx
  00016	74 0d		 je	 SHORT $LN1@iwm_create
  00018	8b 01		 mov	 eax, DWORD PTR [ecx]
  0001a	6a 01		 push	 1
  0001c	ff 10		 call	 DWORD PTR [eax]
  0001e	83 a6 60 01 00
	00 00		 and	 DWORD PTR [esi+352], 0
$LN1@iwm_create:

; 394  : 
; 395  : 	m_pUI3DRender = new ioUI3DRender;

  00025	6a 48		 push	 72			; 00000048H
  00027	e8 00 00 00 00	 call	 ??2@YAPAXI@Z		; operator new
  0002c	59		 pop	 ecx
  0002d	8b c8		 mov	 ecx, eax
  0002f	89 4d f0	 mov	 DWORD PTR $T555436[ebp], ecx
  00032	83 65 fc 00	 and	 DWORD PTR __$EHRec$[ebp+8], 0
  00036	85 c9		 test	 ecx, ecx
  00038	74 07		 je	 SHORT $LN6@iwm_create
  0003a	e8 00 00 00 00	 call	 ??0ioUI3DRender@@QAE@XZ	; ioUI3DRender::ioUI3DRender
  0003f	eb 02		 jmp	 SHORT $LN7@iwm_create
$LN6@iwm_create:
  00041	33 c0		 xor	 eax, eax
$LN7@iwm_create:
  00043	83 4d fc ff	 or	 DWORD PTR __$EHRec$[ebp+8], -1

; 396  : 	m_pUI3DRender->Initialize( "config/sp2_stage_charselect_map.ini", "award_cam" );

  00047	68 00 00 00 00	 push	 OFFSET ??_C@_09EINHMOLK@award_cam?$AA@
  0004c	68 00 00 00 00	 push	 OFFSET ??_C@_0CE@FCMGKOOH@config?1sp2_stage_charselect_map?4@
  00051	8b c8		 mov	 ecx, eax
  00053	89 86 60 01 00
	00		 mov	 DWORD PTR [esi+352], eax
  00059	e8 00 00 00 00	 call	 ?Initialize@ioUI3DRender@@QAEXPBD0@Z ; ioUI3DRender::Initialize

; 397  : 
; 398  : 	g_GUIMgr.AddWnd( "XML/awardchatbubblewnd.xml", this );

  0005e	56		 push	 esi
  0005f	68 00 00 00 00	 push	 OFFSET ??_C@_0BL@HACJINFC@XML?1awardchatbubblewnd?4xml?$AA@
  00064	e8 00 00 00 00	 call	 ?GetSingleton@ioSP2GUIManager@@SAAAV1@XZ ; ioSP2GUIManager::GetSingleton
  00069	8b c8		 mov	 ecx, eax
  0006b	ff 15 00 00 00
	00		 call	 DWORD PTR __imp_?AddWnd@ioGUIManager@@QAEPAVioWnd@@PBDPAV2@@Z

; 399  : }

  00071	e8 00 00 00 00	 call	 __EH_epilog3
  00076	c3		 ret	 0
_TEXT	ENDS
;	COMDAT text$x
text$x	SEGMENT
__unwindfunclet$?iwm_create@AwardSlotWnd@@UAEXXZ$0:
  00000	ff 75 f0	 push	 DWORD PTR $T555436[ebp]
  00003	e8 00 00 00 00	 call	 ??3@YAXPAX@Z		; operator delete
  00008	59		 pop	 ecx
  00009	c3		 ret	 0
__ehhandler$?iwm_create@AwardSlotWnd@@UAEXXZ:
  0000a	8b 54 24 08	 mov	 edx, DWORD PTR [esp+8]
  0000e	8d 42 0c	 lea	 eax, DWORD PTR [edx+12]
  00011	8b 4a ec	 mov	 ecx, DWORD PTR [edx-20]
  00014	33 c8		 xor	 ecx, eax
  00016	e8 00 00 00 00	 call	 @__security_check_cookie@4
  0001b	b8 00 00 00 00	 mov	 eax, OFFSET __ehfuncinfo$?iwm_create@AwardSlotWnd@@UAEXXZ
  00020	e9 00 00 00 00	 jmp	 ___CxxFrameHandler3
text$x	ENDS
?iwm_create@AwardSlotWnd@@UAEXXZ ENDP			; AwardSlotWnd::iwm_create
PUBLIC	?iwm_hide@AwardSlotWnd@@UAEXXZ			; AwardSlotWnd::iwm_hide
EXTRN	__imp_?HideChildWnd@ioWnd@@QAEXK_N@Z:PROC
; Function compile flags: /Ogsp
;	COMDAT ?iwm_hide@AwardSlotWnd@@UAEXXZ
_TEXT	SEGMENT
?iwm_hide@AwardSlotWnd@@UAEXXZ PROC			; AwardSlotWnd::iwm_hide, COMDAT
; _this$ = ecx

; 443  : 	HideChildWnd( ID_DUMMY );

  00000	6a 00		 push	 0
  00002	6a 02		 push	 2
  00004	ff 15 00 00 00
	00		 call	 DWORD PTR __imp_?HideChildWnd@ioWnd@@QAEXK_N@Z

; 444  : }

  0000a	c3		 ret	 0
?iwm_hide@AwardSlotWnd@@UAEXXZ ENDP			; AwardSlotWnd::iwm_hide
_TEXT	ENDS
PUBLIC	?iwm_command@AwardSlotWnd@@UAEXPAVioWnd@@HK@Z	; AwardSlotWnd::iwm_command
EXTRN	?OpenMannerWnd@ioApplication@@QAEXPBD_NW4ChatType@@@Z:PROC ; ioApplication::OpenMannerWnd
EXTRN	?GetSingleton@ioApplication@@SAAAV1@XZ:PROC	; ioApplication::GetSingleton
EXTRN	__imp_?c_str@ioHashString@@QBEPBDXZ:PROC
EXTRN	__imp_?GetID@ioWnd@@QBEKXZ:PROC
EXTRN	___RTDynamicCast:PROC
; Function compile flags: /Ogsp
;	COMDAT ?iwm_command@AwardSlotWnd@@UAEXPAVioWnd@@HK@Z
_TEXT	SEGMENT
_pWnd$ = 8						; size = 4
_cmd$ = 12						; size = 4
_param$ = 16						; size = 4
?iwm_command@AwardSlotWnd@@UAEXPAVioWnd@@HK@Z PROC	; AwardSlotWnd::iwm_command, COMDAT
; _this$ = ecx

; 447  : {

  00000	55		 push	 ebp
  00001	8b ec		 mov	 ebp, esp
  00003	56		 push	 esi
  00004	8b f1		 mov	 esi, ecx

; 448  : 	DWORD dwID = pWnd->GetID();

  00006	8b 4d 08	 mov	 ecx, DWORD PTR _pWnd$[ebp]
  00009	ff 15 00 00 00
	00		 call	 DWORD PTR __imp_?GetID@ioWnd@@QBEKXZ

; 449  : 	switch( dwID )

  0000f	48		 dec	 eax
  00010	74 1a		 je	 SHORT $LN14@iwm_comman
  00012	48		 dec	 eax
  00013	75 7d		 jne	 SHORT $LN6@iwm_comman

; 469  : 		}
; 470  : 		break;
; 471  : 	case ID_DUMMY:
; 472  : 		if( m_bOriginal )

  00015	38 86 61 09 00
	00		 cmp	 BYTE PTR [esi+2401], al
  0001b	74 75		 je	 SHORT $LN6@iwm_comman
$LN12@iwm_comman:

; 465  : 			else if( cmd == IOWN_OVERED )

  0001d	83 7d 0c 04	 cmp	 DWORD PTR _cmd$[ebp], 4
  00021	75 62		 jne	 SHORT $LN8@iwm_comman

; 466  : 				m_bCharOver = true;

  00023	c6 86 60 09 00
	00 01		 mov	 BYTE PTR [esi+2400], 1
  0002a	eb 66		 jmp	 SHORT $LN6@iwm_comman
$LN14@iwm_comman:

; 450  : 	{
; 451  : 	case ID_NAME:
; 452  : 		if( m_bOriginal )

  0002c	80 be 61 09 00
	00 00		 cmp	 BYTE PTR [esi+2401], 0
  00033	74 5d		 je	 SHORT $LN6@iwm_comman

; 453  : 		{
; 454  : 			if( cmd == IOBN_BTNUP )

  00035	83 7d 0c 11	 cmp	 DWORD PTR _cmd$[ebp], 17 ; 00000011H
  00039	75 e2		 jne	 SHORT $LN12@iwm_comman

; 455  : 			{
; 456  : 				AwardSlotNameBtn *pNameBtn = dynamic_cast<AwardSlotNameBtn *>(pWnd);

  0003b	6a 00		 push	 0
  0003d	68 00 00 00 00	 push	 OFFSET ??_R0?AVAwardSlotNameBtn@@@8
  00042	68 00 00 00 00	 push	 OFFSET ??_R0?AVioWnd@@@8
  00047	6a 00		 push	 0
  00049	ff 75 08	 push	 DWORD PTR _pWnd$[ebp]
  0004c	e8 00 00 00 00	 call	 ___RTDynamicCast
  00051	83 c4 14	 add	 esp, 20			; 00000014H

; 457  : 				if( pNameBtn )

  00054	85 c0		 test	 eax, eax
  00056	74 3a		 je	 SHORT $LN6@iwm_comman

; 458  : 				{
; 459  : 					if( !pNameBtn->GetName().IsEmpty() )

  00058	8d b0 18 02 00
	00		 lea	 esi, DWORD PTR [eax+536]
  0005e	8b ce		 mov	 ecx, esi
  00060	ff 15 00 00 00
	00		 call	 DWORD PTR __imp_?IsEmpty@ioHashString@@QBE_NXZ
  00066	84 c0		 test	 al, al
  00068	75 28		 jne	 SHORT $LN6@iwm_comman

; 460  : 					{
; 461  : 						g_App.OpenMannerWnd( pNameBtn->GetName().c_str(), true );

  0006a	6a ff		 push	 -1
  0006c	6a 01		 push	 1
  0006e	8b ce		 mov	 ecx, esi
  00070	ff 15 00 00 00
	00		 call	 DWORD PTR __imp_?c_str@ioHashString@@QBEPBDXZ
  00076	50		 push	 eax
  00077	e8 00 00 00 00	 call	 ?GetSingleton@ioApplication@@SAAAV1@XZ ; ioApplication::GetSingleton
  0007c	8b c8		 mov	 ecx, eax
  0007e	e8 00 00 00 00	 call	 ?OpenMannerWnd@ioApplication@@QAEXPBD_NW4ChatType@@@Z ; ioApplication::OpenMannerWnd

; 462  : 					}
; 463  : 				}
; 464  : 			}

  00083	eb 0d		 jmp	 SHORT $LN6@iwm_comman
$LN8@iwm_comman:

; 467  : 			else if( cmd == IOWN_LEAVED )

  00085	83 7d 0c 03	 cmp	 DWORD PTR _cmd$[ebp], 3
  00089	75 07		 jne	 SHORT $LN6@iwm_comman

; 468  : 				m_bCharOver = false;

  0008b	c6 86 60 09 00
	00 00		 mov	 BYTE PTR [esi+2400], 0
$LN6@iwm_comman:
  00092	5e		 pop	 esi

; 473  : 		{
; 474  : 			if( cmd == IOWN_OVERED )
; 475  : 				m_bCharOver = true;
; 476  : 			else if( cmd == IOWN_LEAVED )
; 477  : 				m_bCharOver = false;
; 478  : 		}
; 479  : 		break;
; 480  : 	}
; 481  : }

  00093	5d		 pop	 ebp
  00094	c2 0c 00	 ret	 12			; 0000000cH
?iwm_command@AwardSlotWnd@@UAEXPAVioWnd@@HK@Z ENDP	; AwardSlotWnd::iwm_command
_TEXT	ENDS
PUBLIC	?OnProcessOriginal@AwardSlotWnd@@IAEXXZ		; AwardSlotWnd::OnProcessOriginal
; Function compile flags: /Ogsp
;	COMDAT ?OnProcessOriginal@AwardSlotWnd@@IAEXXZ
_TEXT	SEGMENT
tv173 = -8						; size = 4
tv166 = -8						; size = 4
tv187 = -4						; size = 4
tv183 = -4						; size = 4
tv179 = -4						; size = 4
_fRate$538692 = -4					; size = 4
?OnProcessOriginal@AwardSlotWnd@@IAEXXZ PROC		; AwardSlotWnd::OnProcessOriginal, COMDAT
; _this$ = ecx

; 802  : {

  00000	55		 push	 ebp
  00001	8b ec		 mov	 ebp, esp
  00003	51		 push	 ecx
  00004	51		 push	 ecx
  00005	56		 push	 esi
  00006	8b f1		 mov	 esi, ecx

; 803  : 	if( !m_bOriginal ) return;

  00008	80 be 61 09 00
	00 00		 cmp	 BYTE PTR [esi+2401], 0
  0000f	0f 84 b8 00 00
	00		 je	 $LN1@OnProcessO

; 804  : 	if( m_dwOriginalTime == 0 ) return;

  00015	83 be 50 09 00
	00 00		 cmp	 DWORD PTR [esi+2384], 0
  0001c	57		 push	 edi
  0001d	0f 84 a9 00 00
	00		 je	 $LN14@OnProcessO

; 805  : 	if( m_dwCurTimer == 0 ) return;

  00023	83 be 40 09 00
	00 00		 cmp	 DWORD PTR [esi+2368], 0
  0002a	0f 84 9c 00 00
	00		 je	 $LN14@OnProcessO

; 806  : 	
; 807  : 	DWORD dwGap = FRAMEGETTIME() - m_dwCurTimer;

  00030	ff 15 00 00 00
	00		 call	 DWORD PTR __imp_?GetSingleton@ioFrameTimer@@SAAAV1@XZ
  00036	8b c8		 mov	 ecx, eax
  00038	ff 15 00 00 00
	00		 call	 DWORD PTR __imp_?GetLoopSec@ioFrameTimer@@QBEKXZ
  0003e	8b c8		 mov	 ecx, eax
  00040	2b 8e 40 09 00
	00		 sub	 ecx, DWORD PTR [esi+2368]

; 808  : 	if( dwGap < m_dwOriginalTime )

  00046	3b 8e 50 09 00
	00		 cmp	 ecx, DWORD PTR [esi+2384]
  0004c	73 5c		 jae	 SHORT $LN2@OnProcessO

; 809  : 	{
; 810  : 		float fRate = FLOAT1 - ( (float)dwGap / m_dwOriginalTime );

  0004e	b8 01 00 00 00	 mov	 eax, 1
  00053	89 45 fc	 mov	 DWORD PTR tv187[ebp], eax
  00056	db 45 fc	 fild	 DWORD PTR tv187[ebp]
  00059	85 c0		 test	 eax, eax
  0005b	79 06		 jns	 SHORT $LN15@OnProcessO
  0005d	d8 05 00 00 00
	00		 fadd	 DWORD PTR __real@4f800000
$LN15@OnProcessO:
  00063	89 4d fc	 mov	 DWORD PTR tv183[ebp], ecx
  00066	db 45 fc	 fild	 DWORD PTR tv183[ebp]
  00069	85 c9		 test	 ecx, ecx
  0006b	79 06		 jns	 SHORT $LN16@OnProcessO
  0006d	d8 05 00 00 00
	00		 fadd	 DWORD PTR __real@4f800000
$LN16@OnProcessO:
  00073	8b 86 50 09 00
	00		 mov	 eax, DWORD PTR [esi+2384]
  00079	db 86 50 09 00
	00		 fild	 DWORD PTR [esi+2384]
  0007f	85 c0		 test	 eax, eax
  00081	79 06		 jns	 SHORT $LN17@OnProcessO
  00083	d8 05 00 00 00
	00		 fadd	 DWORD PTR __real@4f800000
$LN17@OnProcessO:
  00089	de f9		 fdivp	 ST(1), ST(0)
  0008b	de e9		 fsubp	 ST(1), ST(0)
  0008d	d9 5d fc	 fstp	 DWORD PTR _fRate$538692[ebp]

; 811  : 		m_fOriginalRate = FLOAT1 + fRate;

  00090	b8 01 00 00 00	 mov	 eax, 1
  00095	89 45 f8	 mov	 DWORD PTR tv173[ebp], eax
  00098	db 45 f8	 fild	 DWORD PTR tv173[ebp]
  0009b	85 c0		 test	 eax, eax
  0009d	79 06		 jns	 SHORT $LN18@OnProcessO
  0009f	d8 05 00 00 00
	00		 fadd	 DWORD PTR __real@4f800000
$LN18@OnProcessO:
  000a5	d8 45 fc	 fadd	 DWORD PTR _fRate$538692[ebp]

; 812  : 	}
; 813  : 	else

  000a8	eb 1c		 jmp	 SHORT $LN19@OnProcessO
$LN2@OnProcessO:

; 814  : 	{
; 815  : 		m_dwCurTimer = 0;

  000aa	83 a6 40 09 00
	00 00		 and	 DWORD PTR [esi+2368], 0

; 816  : 		m_fOriginalRate = FLOAT1;

  000b1	b8 01 00 00 00	 mov	 eax, 1
  000b6	89 45 f8	 mov	 DWORD PTR tv166[ebp], eax
  000b9	db 45 f8	 fild	 DWORD PTR tv166[ebp]
  000bc	85 c0		 test	 eax, eax
  000be	79 06		 jns	 SHORT $LN19@OnProcessO
  000c0	d8 05 00 00 00
	00		 fadd	 DWORD PTR __real@4f800000
$LN19@OnProcessO:
  000c6	d9 9e 5c 09 00
	00		 fstp	 DWORD PTR [esi+2396]
$LN14@OnProcessO:
  000cc	5f		 pop	 edi
$LN1@OnProcessO:
  000cd	5e		 pop	 esi

; 817  : 	}
; 818  : }

  000ce	c9		 leave
  000cf	c3		 ret	 0
?OnProcessOriginal@AwardSlotWnd@@IAEXXZ ENDP		; AwardSlotWnd::OnProcessOriginal
_TEXT	ENDS
PUBLIC	__real@c0800000
PUBLIC	__real@3f800000
PUBLIC	__real@4027cccce0000000
PUBLIC	?RenderNumInfo@AwardSlotWnd@@IAEXHH@Z		; AwardSlotWnd::RenderNumInfo
EXTRN	__imp_?RenderNum@ioUIRenderImage@@QAEXMMHMMW4UIRenderType@@W4TextureFilterOption@@0W4RenerNumerFormatting@1@@Z:PROC
;	COMDAT __real@c0800000
; File d:\lost saga for developer\youtube\tutorial\source\src\lsclient\stdafx.h
CONST	SEGMENT
__real@c0800000 DD 0c0800000r			; -4
CONST	ENDS
;	COMDAT __real@3f800000
CONST	SEGMENT
__real@3f800000 DD 03f800000r			; 1
CONST	ENDS
;	COMDAT __real@4027cccce0000000
CONST	SEGMENT
__real@4027cccce0000000 DQ 04027cccce0000000r	; 11.9
; Function compile flags: /Ogsp
; File d:\lost saga for developer\youtube\tutorial\source\src\lsclient\gui\totalresultmainwnd.cpp
CONST	ENDS
;	COMDAT ?RenderNumInfo@AwardSlotWnd@@IAEXHH@Z
_TEXT	SEGMENT
_iXPos$ = 8						; size = 4
tv225 = 12						; size = 4
tv221 = 12						; size = 4
_iYPos$ = 12						; size = 4
?RenderNumInfo@AwardSlotWnd@@IAEXHH@Z PROC		; AwardSlotWnd::RenderNumInfo, COMDAT
; _this$ = ecx

; 1010 : {

  00000	55		 push	 ebp
  00001	8b ec		 mov	 ebp, esp
  00003	53		 push	 ebx
  00004	57		 push	 edi
  00005	8b f9		 mov	 edi, ecx

; 1011 : 	if( !m_pEtcItemNum || !m_pEtcItemPlus )

  00007	33 db		 xor	 ebx, ebx
  00009	39 9f 34 09 00
	00		 cmp	 DWORD PTR [edi+2356], ebx
  0000f	0f 84 ee 00 00
	00		 je	 $LN6@RenderNumI
  00015	39 9f 38 09 00
	00		 cmp	 DWORD PTR [edi+2360], ebx
  0001b	0f 84 e2 00 00
	00		 je	 $LN6@RenderNumI

; 1012 : 		return;
; 1013 : 	if( m_CurAwardInfo.m_iEtcItemCount <= 0 )

  00021	8b 87 f8 08 00
	00		 mov	 eax, DWORD PTR [edi+2296]
  00027	3b c3		 cmp	 eax, ebx
  00029	0f 8e d4 00 00
	00		 jle	 $LN6@RenderNumI

; 1014 : 		return;
; 1015 : 
; 1016 : 	int iNewXPos = iXPos;
; 1017 : 	int iNewYPos = iYPos;
; 1018 : 
; 1019 : 	// Num
; 1020 : 	enum
; 1021 : 	{
; 1022 : 		REINFORCE_Y	= 14,
; 1023 : 
; 1024 : 		NUM_SIZE	= 20,
; 1025 : 		PLUS_SIZE	= 14,
; 1026 : 
; 1027 : 		NUM_GAP		= 4,
; 1028 : 	};
; 1029 : 
; 1030 : 
; 1031 : 	int iCurPos = 0;
; 1032 : 	int iDefaultPos = iNewXPos;
; 1033 : 
; 1034 : 	int iCurYPos = iNewYPos+(REINFORCE_Y * 0.85f);

  0002f	66 0f 6e 45 0c	 movd	 xmm0, DWORD PTR _iYPos$[ebp]
  00034	0f 5b c0	 cvtdq2ps xmm0, xmm0
  00037	f3 0f 5a c0	 cvtss2sd xmm0, xmm0
  0003b	f2 0f 58 05 00
	00 00 00	 addsd	 xmm0, QWORD PTR __real@4027cccce0000000
  00043	f2 0f 2c c8	 cvttsd2si ecx, xmm0

; 1035 : 
; 1036 : 	int iTotalSize = 0;
; 1037 : 	if( m_CurAwardInfo.m_iEtcItemCount < 10 )

  00047	83 f8 0a	 cmp	 eax, 10			; 0000000aH
  0004a	7d 04		 jge	 SHORT $LN4@RenderNumI

; 1038 : 		iTotalSize = PLUS_SIZE + NUM_SIZE - NUM_GAP;

  0004c	6a 1e		 push	 30			; 0000001eH
  0004e	eb 27		 jmp	 SHORT $LN13@RenderNumI
$LN4@RenderNumI:

; 1039 : 	else if( m_CurAwardInfo.m_iEtcItemCount < FLOAT100 )

  00050	b8 64 00 00 00	 mov	 eax, 100		; 00000064H
  00055	db 87 f8 08 00
	00		 fild	 DWORD PTR [edi+2296]
  0005b	89 45 0c	 mov	 DWORD PTR tv225[ebp], eax
  0005e	db 45 0c	 fild	 DWORD PTR tv225[ebp]
  00061	85 c0		 test	 eax, eax
  00063	79 06		 jns	 SHORT $LN12@RenderNumI
  00065	d8 05 00 00 00
	00		 fadd	 DWORD PTR __real@4f800000
$LN12@RenderNumI:
  0006b	df f1		 fcomip	 ST(1)
  0006d	dd d8		 fstp	 ST(0)
  0006f	76 04		 jbe	 SHORT $LN2@RenderNumI

; 1040 : 		iTotalSize = PLUS_SIZE + NUM_SIZE*2 - NUM_GAP*2;

  00071	6a 2e		 push	 46			; 0000002eH

; 1041 : 	else

  00073	eb 02		 jmp	 SHORT $LN13@RenderNumI
$LN2@RenderNumI:

; 1042 : 		iTotalSize = PLUS_SIZE + NUM_SIZE*3 - NUM_GAP*3;

  00075	6a 3e		 push	 62			; 0000003eH
$LN13@RenderNumI:
  00077	58		 pop	 eax
  00078	56		 push	 esi

; 1043 : 
; 1044 : 	iCurPos = iDefaultPos - (iTotalSize / 2);

  00079	8b 75 08	 mov	 esi, DWORD PTR _iXPos$[ebp]

; 1045 : 
; 1046 : 	m_pEtcItemPlus->Render( iCurPos, iCurYPos );

  0007c	53		 push	 ebx
  0007d	53		 push	 ebx
  0007e	99		 cdq
  0007f	53		 push	 ebx
  00080	2b c2		 sub	 eax, edx
  00082	53		 push	 ebx
  00083	51		 push	 ecx
  00084	d1 f8		 sar	 eax, 1
  00086	0f 57 c0	 xorps	 xmm0, xmm0
  00089	f3 0f 2a c1	 cvtsi2ss xmm0, ecx
  0008d	51		 push	 ecx
  0008e	2b f0		 sub	 esi, eax
  00090	8b 87 38 09 00
	00		 mov	 eax, DWORD PTR [edi+2360]
  00096	8b 10		 mov	 edx, DWORD PTR [eax]
  00098	f3 0f 11 44 24
	04		 movss	 DWORD PTR [esp+4], xmm0
  0009e	f3 0f 11 45 0c	 movss	 DWORD PTR tv221[ebp], xmm0
  000a3	0f 57 c0	 xorps	 xmm0, xmm0
  000a6	f3 0f 2a c6	 cvtsi2ss xmm0, esi
  000aa	8b c8		 mov	 ecx, eax
  000ac	f3 0f 11 04 24	 movss	 DWORD PTR [esp], xmm0
  000b1	ff 12		 call	 DWORD PTR [edx]

; 1047 : 
; 1048 : 	iCurPos += (PLUS_SIZE-NUM_GAP);
; 1049 : 
; 1050 : 	m_pEtcItemNum->RenderNum( iCurPos, iCurYPos, m_CurAwardInfo.m_iEtcItemCount, -NUM_GAP );

  000b3	f3 0f 10 05 00
	00 00 00	 movss	 xmm0, DWORD PTR __real@3f800000
  000bb	53		 push	 ebx
  000bc	53		 push	 ebx
  000bd	53		 push	 ebx
  000be	53		 push	 ebx
  000bf	51		 push	 ecx
  000c0	51		 push	 ecx
  000c1	f3 0f 11 44 24
	04		 movss	 DWORD PTR [esp+4], xmm0
  000c7	f3 0f 10 05 00
	00 00 00	 movss	 xmm0, DWORD PTR __real@c0800000
  000cf	f3 0f 11 04 24	 movss	 DWORD PTR [esp], xmm0
  000d4	ff b7 f8 08 00
	00		 push	 DWORD PTR [edi+2296]
  000da	f3 0f 10 45 0c	 movss	 xmm0, DWORD PTR tv221[ebp]
  000df	51		 push	 ecx
  000e0	51		 push	 ecx
  000e1	8b 8f 34 09 00
	00		 mov	 ecx, DWORD PTR [edi+2356]
  000e7	f3 0f 11 44 24
	04		 movss	 DWORD PTR [esp+4], xmm0
  000ed	83 c6 0a	 add	 esi, 10			; 0000000aH
  000f0	0f 57 c0	 xorps	 xmm0, xmm0
  000f3	f3 0f 2a c6	 cvtsi2ss xmm0, esi
  000f7	f3 0f 11 04 24	 movss	 DWORD PTR [esp], xmm0
  000fc	ff 15 00 00 00
	00		 call	 DWORD PTR __imp_?RenderNum@ioUIRenderImage@@QAEXMMHMMW4UIRenderType@@W4TextureFilterOption@@0W4RenerNumerFormatting@1@@Z
  00102	5e		 pop	 esi
$LN6@RenderNumI:
  00103	5f		 pop	 edi
  00104	5b		 pop	 ebx

; 1051 : }

  00105	5d		 pop	 ebp
  00106	c2 08 00	 ret	 8
?RenderNumInfo@AwardSlotWnd@@IAEXHH@Z ENDP		; AwardSlotWnd::RenderNumInfo
_TEXT	ENDS
PUBLIC	?GetCharName@AwardSlotWnd@@QAEABVioHashString@@XZ ; AwardSlotWnd::GetCharName
; Function compile flags: /Ogsp
;	COMDAT ?GetCharName@AwardSlotWnd@@QAEABVioHashString@@XZ
_TEXT	SEGMENT
?GetCharName@AwardSlotWnd@@QAEABVioHashString@@XZ PROC	; AwardSlotWnd::GetCharName, COMDAT
; _this$ = ecx

; 1055 : 	return m_AwardInfo.m_szName;

  00000	8d 81 74 01 00
	00		 lea	 eax, DWORD PTR [ecx+372]

; 1056 : }

  00006	c3		 ret	 0
?GetCharName@AwardSlotWnd@@QAEABVioHashString@@XZ ENDP	; AwardSlotWnd::GetCharName
_TEXT	ENDS
PUBLIC	?GetAwardType@AwardSlotWnd@@QAEHXZ		; AwardSlotWnd::GetAwardType
; Function compile flags: /Ogsp
;	COMDAT ?GetAwardType@AwardSlotWnd@@QAEHXZ
_TEXT	SEGMENT
?GetAwardType@AwardSlotWnd@@QAEHXZ PROC			; AwardSlotWnd::GetAwardType, COMDAT
; _this$ = ecx

; 1060 : 	return m_AwardInfo.m_iType;

  00000	8b 81 68 01 00
	00		 mov	 eax, DWORD PTR [ecx+360]

; 1061 : }

  00006	c3		 ret	 0
?GetAwardType@AwardSlotWnd@@QAEHXZ ENDP			; AwardSlotWnd::GetAwardType
_TEXT	ENDS
PUBLIC	?GetItemReinforce@AwardSlotWnd@@QAEHH@Z		; AwardSlotWnd::GetItemReinforce
; Function compile flags: /Ogsp
;	COMDAT ?GetItemReinforce@AwardSlotWnd@@QAEHH@Z
_TEXT	SEGMENT
_iSlot$ = 8						; size = 4
?GetItemReinforce@AwardSlotWnd@@QAEHH@Z PROC		; AwardSlotWnd::GetItemReinforce, COMDAT
; _this$ = ecx

; 1064 : {

  00000	55		 push	 ebp
  00001	8b ec		 mov	 ebp, esp

; 1065 : 	if( COMPARE( iSlot, 0, MAX_INVENTORY ) )

  00003	8b 45 08	 mov	 eax, DWORD PTR _iSlot$[ebp]
  00006	83 f8 03	 cmp	 eax, 3
  00009	77 0c		 ja	 SHORT $LN1@GetItemRei

; 1066 : 		return m_AwardInfo.m_EquipItem[iSlot].m_item_reinforce;

  0000b	6b c0 14	 imul	 eax, 20			; 00000014H
  0000e	8b 84 08 c0 04
	00 00		 mov	 eax, DWORD PTR [eax+ecx+1216]
  00015	eb 02		 jmp	 SHORT $LN2@GetItemRei
$LN1@GetItemRei:

; 1067 : 
; 1068 : 	return 0;

  00017	33 c0		 xor	 eax, eax
$LN2@GetItemRei:

; 1069 : }

  00019	5d		 pop	 ebp
  0001a	c2 04 00	 ret	 4
?GetItemReinforce@AwardSlotWnd@@QAEHH@Z ENDP		; AwardSlotWnd::GetItemReinforce
_TEXT	ENDS
PUBLIC	?GetCharLevel@AwardSlotWnd@@QAEHXZ		; AwardSlotWnd::GetCharLevel
; Function compile flags: /Ogsp
;	COMDAT ?GetCharLevel@AwardSlotWnd@@QAEHXZ
_TEXT	SEGMENT
?GetCharLevel@AwardSlotWnd@@QAEHXZ PROC			; AwardSlotWnd::GetCharLevel, COMDAT
; _this$ = ecx

; 1073 : 	return m_AwardInfo.m_iClassLevel;

  00000	8b 81 b8 04 00
	00		 mov	 eax, DWORD PTR [ecx+1208]

; 1074 : }

  00006	c3		 ret	 0
?GetCharLevel@AwardSlotWnd@@QAEHXZ ENDP			; AwardSlotWnd::GetCharLevel
_TEXT	ENDS
PUBLIC	?SetPlayStage@TotalResultAwardWnd@@QAEXPAVioPlayStage@@@Z ; TotalResultAwardWnd::SetPlayStage
; Function compile flags: /Ogsp
;	COMDAT ?SetPlayStage@TotalResultAwardWnd@@QAEXPAVioPlayStage@@@Z
_TEXT	SEGMENT
_pPlayStage$ = 8					; size = 4
?SetPlayStage@TotalResultAwardWnd@@QAEXPAVioPlayStage@@@Z PROC ; TotalResultAwardWnd::SetPlayStage, COMDAT
; _this$ = ecx

; 1129 : {

  00000	55		 push	 ebp
  00001	8b ec		 mov	 ebp, esp

; 1130 : 	m_pPlayStage = pPlayStage;

  00003	8b 45 08	 mov	 eax, DWORD PTR _pPlayStage$[ebp]
  00006	89 81 60 01 00
	00		 mov	 DWORD PTR [ecx+352], eax

; 1131 : }

  0000c	5d		 pop	 ebp
  0000d	c2 04 00	 ret	 4
?SetPlayStage@TotalResultAwardWnd@@QAEXPAVioPlayStage@@@Z ENDP ; TotalResultAwardWnd::SetPlayStage
_TEXT	ENDS
PUBLIC	?iwm_show@TotalResultAwardWnd@@UAEXXZ		; TotalResultAwardWnd::iwm_show
EXTRN	?PlaySoundA@ioExtendSoundManager@@QAEXW4ExSoundType@ExSound@@@Z:PROC ; ioExtendSoundManager::PlaySoundA
EXTRN	?GetSingleton@ioExtendSoundManager@@SAAAV1@XZ:PROC ; ioExtendSoundManager::GetSingleton
EXTRN	__imp_?PlaySoundA@ioSoundManager@@QAEKABVioHashString@@HK@Z:PROC
EXTRN	__imp_?GetSingleton@ioSoundManager@@SAAAV1@XZ:PROC
EXTRN	?HideHelpDirectly@ioModeHelpManager@@QAEXXZ:PROC ; ioModeHelpManager::HideHelpDirectly
EXTRN	?GetSingleton@ioModeHelpManager@@SAAAV1@XZ:PROC	; ioModeHelpManager::GetSingleton
EXTRN	__imp_?HideWnd@ioGUIManager@@QAEXK_N@Z:PROC
EXTRN	__imp_?ShowChildWnd@ioWnd@@QAEXK_N@Z:PROC
; Function compile flags: /Ogsp
;	COMDAT ?iwm_show@TotalResultAwardWnd@@UAEXXZ
_TEXT	SEGMENT
?iwm_show@TotalResultAwardWnd@@UAEXXZ PROC		; TotalResultAwardWnd::iwm_show, COMDAT
; _this$ = ecx

; 1139 : {

  00000	53		 push	 ebx
  00001	56		 push	 esi

; 1140 : 	ShowChildWnd( ID_AWARD_1 );

  00002	8b 35 00 00 00
	00		 mov	 esi, DWORD PTR __imp_?ShowChildWnd@ioWnd@@QAEXK_N@Z
  00008	57		 push	 edi
  00009	33 ff		 xor	 edi, edi
  0000b	57		 push	 edi
  0000c	6a 01		 push	 1
  0000e	8b d9		 mov	 ebx, ecx
  00010	ff d6		 call	 esi

; 1141 : 	ShowChildWnd( ID_AWARD_2 );

  00012	57		 push	 edi
  00013	6a 02		 push	 2
  00015	8b cb		 mov	 ecx, ebx
  00017	ff d6		 call	 esi

; 1142 : 	ShowChildWnd( ID_AWARD_3 );

  00019	57		 push	 edi
  0001a	6a 03		 push	 3
  0001c	8b cb		 mov	 ecx, ebx
  0001e	ff d6		 call	 esi

; 1143 : 	ShowChildWnd( ID_AWARD_4 );

  00020	57		 push	 edi
  00021	6a 04		 push	 4
  00023	8b cb		 mov	 ecx, ebx
  00025	ff d6		 call	 esi

; 1144 : 
; 1145 : 	m_dwCurTime = FRAMEGETTIME();

  00027	ff 15 00 00 00
	00		 call	 DWORD PTR __imp_?GetSingleton@ioFrameTimer@@SAAAV1@XZ
  0002d	8b c8		 mov	 ecx, eax
  0002f	ff 15 00 00 00
	00		 call	 DWORD PTR __imp_?GetLoopSec@ioFrameTimer@@QBEKXZ

; 1146 : 
; 1147 : 	g_GUIMgr.HideWnd( MINIMAP_WND );

  00035	57		 push	 edi
  00036	68 74 17 00 00	 push	 6004			; 00001774H
  0003b	89 83 84 01 00
	00		 mov	 DWORD PTR [ebx+388], eax
  00041	e8 00 00 00 00	 call	 ?GetSingleton@ioSP2GUIManager@@SAAAV1@XZ ; ioSP2GUIManager::GetSingleton
  00046	8b 35 00 00 00
	00		 mov	 esi, DWORD PTR __imp_?HideWnd@ioGUIManager@@QAEXK_N@Z
  0004c	8b c8		 mov	 ecx, eax
  0004e	ff d6		 call	 esi

; 1148 : 	g_GUIMgr.HideWnd( TIME_SCORE_WND );

  00050	57		 push	 edi
  00051	68 b9 13 00 00	 push	 5049			; 000013b9H
  00056	e8 00 00 00 00	 call	 ?GetSingleton@ioSP2GUIManager@@SAAAV1@XZ ; ioSP2GUIManager::GetSingleton
  0005b	8b c8		 mov	 ecx, eax
  0005d	ff d6		 call	 esi

; 1149 : 	g_GUIMgr.HideWnd( SKILL_LIST_WND );

  0005f	57		 push	 edi
  00060	68 89 13 00 00	 push	 5001			; 00001389H
  00065	e8 00 00 00 00	 call	 ?GetSingleton@ioSP2GUIManager@@SAAAV1@XZ ; ioSP2GUIManager::GetSingleton
  0006a	8b c8		 mov	 ecx, eax
  0006c	ff d6		 call	 esi

; 1150 : 	g_GUIMgr.HideWnd( ACCESSORY_SKILL_LIST_WND );

  0006e	57		 push	 edi
  0006f	68 9c 18 00 00	 push	 6300			; 0000189cH
  00074	e8 00 00 00 00	 call	 ?GetSingleton@ioSP2GUIManager@@SAAAV1@XZ ; ioSP2GUIManager::GetSingleton
  00079	8b c8		 mov	 ecx, eax
  0007b	ff d6		 call	 esi

; 1151 : 	g_GUIMgr.HideWnd( CENTER_INFO_WND );

  0007d	57		 push	 edi
  0007e	68 b8 13 00 00	 push	 5048			; 000013b8H
  00083	e8 00 00 00 00	 call	 ?GetSingleton@ioSP2GUIManager@@SAAAV1@XZ ; ioSP2GUIManager::GetSingleton
  00088	8b c8		 mov	 ecx, eax
  0008a	ff d6		 call	 esi

; 1152 : 	g_GUIMgr.HideWnd( MONSTER_BOSS_GAUGE_WND );

  0008c	57		 push	 edi
  0008d	68 c7 13 00 00	 push	 5063			; 000013c7H
  00092	e8 00 00 00 00	 call	 ?GetSingleton@ioSP2GUIManager@@SAAAV1@XZ ; ioSP2GUIManager::GetSingleton
  00097	8b c8		 mov	 ecx, eax
  00099	ff d6		 call	 esi

; 1153 : 	g_GUIMgr.HideWnd( MODE_RANK_WND );

  0009b	57		 push	 edi
  0009c	68 8d 13 00 00	 push	 5005			; 0000138dH
  000a1	e8 00 00 00 00	 call	 ?GetSingleton@ioSP2GUIManager@@SAAAV1@XZ ; ioSP2GUIManager::GetSingleton
  000a6	8b c8		 mov	 ecx, eax
  000a8	ff d6		 call	 esi

; 1154 : 	g_GUIMgr.HideWnd( KO_CHAT_MSG_WND );

  000aa	57		 push	 edi
  000ab	68 91 13 00 00	 push	 5009			; 00001391H
  000b0	e8 00 00 00 00	 call	 ?GetSingleton@ioSP2GUIManager@@SAAAV1@XZ ; ioSP2GUIManager::GetSingleton
  000b5	8b c8		 mov	 ecx, eax
  000b7	ff d6		 call	 esi

; 1155 : 	g_GUIMgr.HideWnd( FIGHTCLUB_TIME_GAUGE_WND );

  000b9	57		 push	 edi
  000ba	68 d1 13 00 00	 push	 5073			; 000013d1H
  000bf	e8 00 00 00 00	 call	 ?GetSingleton@ioSP2GUIManager@@SAAAV1@XZ ; ioSP2GUIManager::GetSingleton
  000c4	8b c8		 mov	 ecx, eax
  000c6	ff d6		 call	 esi

; 1156 : 	g_GUIMgr.HideWnd( FIGHTCLUB_ROUND_END_WND );

  000c8	57		 push	 edi
  000c9	68 d3 13 00 00	 push	 5075			; 000013d3H
  000ce	e8 00 00 00 00	 call	 ?GetSingleton@ioSP2GUIManager@@SAAAV1@XZ ; ioSP2GUIManager::GetSingleton
  000d3	8b c8		 mov	 ecx, eax
  000d5	ff d6		 call	 esi

; 1157 : 	g_GUIMgr.HideWnd( TOWERDEF_USER_GAUGE_WND );

  000d7	57		 push	 edi
  000d8	68 d4 13 00 00	 push	 5076			; 000013d4H
  000dd	e8 00 00 00 00	 call	 ?GetSingleton@ioSP2GUIManager@@SAAAV1@XZ ; ioSP2GUIManager::GetSingleton
  000e2	8b c8		 mov	 ecx, eax
  000e4	ff d6		 call	 esi

; 1158 : 	g_GUIMgr.HideWnd( MINI_SOLDIER_SELECT_WND );

  000e6	57		 push	 edi
  000e7	68 a0 13 00 00	 push	 5024			; 000013a0H
  000ec	e8 00 00 00 00	 call	 ?GetSingleton@ioSP2GUIManager@@SAAAV1@XZ ; ioSP2GUIManager::GetSingleton
  000f1	8b c8		 mov	 ecx, eax
  000f3	ff d6		 call	 esi

; 1159 : 	g_GUIMgr.HideWnd( TUTORIAL_KEYBOARD_WND );

  000f5	57		 push	 edi
  000f6	68 a2 13 00 00	 push	 5026			; 000013a2H
  000fb	e8 00 00 00 00	 call	 ?GetSingleton@ioSP2GUIManager@@SAAAV1@XZ ; ioSP2GUIManager::GetSingleton
  00100	8b c8		 mov	 ecx, eax
  00102	ff d6		 call	 esi

; 1160 : 	g_GUIMgr.HideWnd( FIGHTCLUB_CHALLENGER_WND );

  00104	57		 push	 edi
  00105	68 d5 13 00 00	 push	 5077			; 000013d5H
  0010a	e8 00 00 00 00	 call	 ?GetSingleton@ioSP2GUIManager@@SAAAV1@XZ ; ioSP2GUIManager::GetSingleton
  0010f	8b c8		 mov	 ecx, eax
  00111	ff d6		 call	 esi

; 1161 : 	g_GUIMgr.HideWnd( FIGHTCLUB_CONTINUE_WND );

  00113	57		 push	 edi
  00114	68 d6 13 00 00	 push	 5078			; 000013d6H
  00119	e8 00 00 00 00	 call	 ?GetSingleton@ioSP2GUIManager@@SAAAV1@XZ ; ioSP2GUIManager::GetSingleton
  0011e	8b c8		 mov	 ecx, eax
  00120	ff d6		 call	 esi

; 1162 : 	g_GUIMgr.HideWnd( TRAINING_FUNC_MENU );

  00122	57		 push	 edi
  00123	68 87 18 00 00	 push	 6279			; 00001887H
  00128	e8 00 00 00 00	 call	 ?GetSingleton@ioSP2GUIManager@@SAAAV1@XZ ; ioSP2GUIManager::GetSingleton
  0012d	8b c8		 mov	 ecx, eax
  0012f	ff d6		 call	 esi

; 1163 : 	g_ModeHelpMgr.HideHelpDirectly();

  00131	e8 00 00 00 00	 call	 ?GetSingleton@ioModeHelpManager@@SAAAV1@XZ ; ioModeHelpManager::GetSingleton
  00136	8b c8		 mov	 ecx, eax
  00138	e8 00 00 00 00	 call	 ?HideHelpDirectly@ioModeHelpManager@@QAEXXZ ; ioModeHelpManager::HideHelpDirectly

; 1164 : 
; 1165 : 	if( !m_BackSound.IsEmpty() )

  0013d	8d b3 74 01 00
	00		 lea	 esi, DWORD PTR [ebx+372]
  00143	8b ce		 mov	 ecx, esi
  00145	ff 15 00 00 00
	00		 call	 DWORD PTR __imp_?IsEmpty@ioHashString@@QBE_NXZ
  0014b	84 c0		 test	 al, al
  0014d	75 12		 jne	 SHORT $LN1@iwm_show

; 1166 : 		g_SoundMgr.PlaySound( m_BackSound );

  0014f	6a 04		 push	 4
  00151	57		 push	 edi
  00152	56		 push	 esi
  00153	ff 15 00 00 00
	00		 call	 DWORD PTR __imp_?GetSingleton@ioSoundManager@@SAAAV1@XZ
  00159	8b c8		 mov	 ecx, eax
  0015b	ff 15 00 00 00
	00		 call	 DWORD PTR __imp_?PlaySoundA@ioSoundManager@@QAEKABVioHashString@@HK@Z
$LN1@iwm_show:

; 1167 : 
; 1168 : 	g_ExSoundMgr.PlaySound( ExSound::EST_AWARD );

  00161	6a 12		 push	 18			; 00000012H
  00163	e8 00 00 00 00	 call	 ?GetSingleton@ioExtendSoundManager@@SAAAV1@XZ ; ioExtendSoundManager::GetSingleton
  00168	8b c8		 mov	 ecx, eax
  0016a	e8 00 00 00 00	 call	 ?PlaySoundA@ioExtendSoundManager@@QAEXW4ExSoundType@ExSound@@@Z ; ioExtendSoundManager::PlaySoundA
  0016f	5f		 pop	 edi
  00170	5e		 pop	 esi
  00171	5b		 pop	 ebx

; 1169 : }

  00172	c3		 ret	 0
?iwm_show@TotalResultAwardWnd@@UAEXXZ ENDP		; TotalResultAwardWnd::iwm_show
_TEXT	ENDS
PUBLIC	?iwm_hide@TotalResultAwardWnd@@UAEXXZ		; TotalResultAwardWnd::iwm_hide
EXTRN	__imp_?GetParent@ioWnd@@QAEPAV1@XZ:PROC
; Function compile flags: /Ogsp
;	COMDAT ?iwm_hide@TotalResultAwardWnd@@UAEXXZ
_TEXT	SEGMENT
?iwm_hide@TotalResultAwardWnd@@UAEXXZ PROC		; TotalResultAwardWnd::iwm_hide, COMDAT
; _this$ = ecx

; 1172 : {

  00000	53		 push	 ebx
  00001	56		 push	 esi

; 1173 : 	HideChildWnd( ID_AWARD_1 );

  00002	8b 35 00 00 00
	00		 mov	 esi, DWORD PTR __imp_?HideChildWnd@ioWnd@@QAEXK_N@Z
  00008	57		 push	 edi
  00009	33 db		 xor	 ebx, ebx
  0000b	53		 push	 ebx
  0000c	6a 01		 push	 1
  0000e	8b f9		 mov	 edi, ecx
  00010	ff d6		 call	 esi

; 1174 : 	HideChildWnd( ID_AWARD_2 );

  00012	53		 push	 ebx
  00013	6a 02		 push	 2
  00015	8b cf		 mov	 ecx, edi
  00017	ff d6		 call	 esi

; 1175 : 	HideChildWnd( ID_AWARD_3 );

  00019	53		 push	 ebx
  0001a	6a 03		 push	 3
  0001c	8b cf		 mov	 ecx, edi
  0001e	ff d6		 call	 esi

; 1176 : 	HideChildWnd( ID_AWARD_4 );

  00020	53		 push	 ebx
  00021	6a 04		 push	 4
  00023	8b cf		 mov	 ecx, edi
  00025	ff d6		 call	 esi

; 1177 : 
; 1178 : 	if( GetParent() )

  00027	8b cf		 mov	 ecx, edi
  00029	ff 15 00 00 00
	00		 call	 DWORD PTR __imp_?GetParent@ioWnd@@QAEPAV1@XZ
  0002f	85 c0		 test	 eax, eax
  00031	74 19		 je	 SHORT $LN1@iwm_hide

; 1179 : 		GetParent()->iwm_command( this, AWARD_TIME_END, 0 );

  00033	8b cf		 mov	 ecx, edi
  00035	ff 15 00 00 00
	00		 call	 DWORD PTR __imp_?GetParent@ioWnd@@QAEPAV1@XZ
  0003b	8b 10		 mov	 edx, DWORD PTR [eax]
  0003d	53		 push	 ebx
  0003e	68 e9 03 00 00	 push	 1001			; 000003e9H
  00043	57		 push	 edi
  00044	8b c8		 mov	 ecx, eax
  00046	ff 92 8c 00 00
	00		 call	 DWORD PTR [edx+140]
$LN1@iwm_hide:

; 1180 : }

  0004c	5f		 pop	 edi
  0004d	5e		 pop	 esi
  0004e	5b		 pop	 ebx
  0004f	c3		 ret	 0
?iwm_hide@TotalResultAwardWnd@@UAEXXZ ENDP		; TotalResultAwardWnd::iwm_hide
_TEXT	ENDS
PUBLIC	?OnProcess@TotalResultAwardWnd@@MAEXM@Z		; TotalResultAwardWnd::OnProcess
; Function compile flags: /Ogsp
;	COMDAT ?OnProcess@TotalResultAwardWnd@@MAEXM@Z
_TEXT	SEGMENT
_fTimePerSec$ = 8					; size = 4
?OnProcess@TotalResultAwardWnd@@MAEXM@Z PROC		; TotalResultAwardWnd::OnProcess, COMDAT
; _this$ = ecx

; 1212 : {

  00000	56		 push	 esi
  00001	8b f1		 mov	 esi, ecx

; 1213 : 	if( !IsShow() ) return;    	

  00003	ff 15 00 00 00
	00		 call	 DWORD PTR __imp_?IsShow@ioWnd@@QBE_NXZ
  00009	84 c0		 test	 al, al
  0000b	74 3d		 je	 SHORT $LN1@OnProcess@2

; 1214 : 
; 1215 : 	if( m_dwCurTime != 0 )

  0000d	83 be 84 01 00
	00 00		 cmp	 DWORD PTR [esi+388], 0
  00014	74 2c		 je	 SHORT $LN8@OnProcess@2

; 1216 : 	{
; 1217 : 		if( FRAMEGETTIME() - m_dwCurTime > m_dwShowTime )

  00016	ff 15 00 00 00
	00		 call	 DWORD PTR __imp_?GetSingleton@ioFrameTimer@@SAAAV1@XZ
  0001c	8b c8		 mov	 ecx, eax
  0001e	ff 15 00 00 00
	00		 call	 DWORD PTR __imp_?GetLoopSec@ioFrameTimer@@QBEKXZ
  00024	2b 86 84 01 00
	00		 sub	 eax, DWORD PTR [esi+388]
  0002a	3b 86 88 01 00
	00		 cmp	 eax, DWORD PTR [esi+392]
  00030	76 07		 jbe	 SHORT $LN2@OnProcess@2

; 1218 : 		{
; 1219 : 			m_dwCurTime = 0;			

  00032	83 a6 84 01 00
	00 00		 and	 DWORD PTR [esi+388], 0
$LN2@OnProcess@2:

; 1220 : 		}
; 1221 : 	}	
; 1222 : 
; 1223 : 	if( m_dwCurTime == 0 )

  00039	83 be 84 01 00
	00 00		 cmp	 DWORD PTR [esi+388], 0
  00040	75 08		 jne	 SHORT $LN1@OnProcess@2
$LN8@OnProcess@2:

; 1224 : 		HideWnd();

  00042	8b ce		 mov	 ecx, esi
  00044	ff 15 00 00 00
	00		 call	 DWORD PTR __imp_?HideWnd@ioWnd@@QAEXXZ
$LN1@OnProcess@2:
  0004a	5e		 pop	 esi

; 1225 : }

  0004b	c2 04 00	 ret	 4
?OnProcess@TotalResultAwardWnd@@MAEXM@Z ENDP		; TotalResultAwardWnd::OnProcess
_TEXT	ENDS
PUBLIC	?GetAwardCharItemReinforce@TotalResultAwardWnd@@QAEHABVioHashString@@H@Z ; TotalResultAwardWnd::GetAwardCharItemReinforce
EXTRN	__imp_??8ioHashString@@QBE_NABV0@@Z:PROC
EXTRN	__imp_?FindChildWnd@ioWnd@@QAEPAV1@K@Z:PROC
; Function compile flags: /Ogsp
;	COMDAT ?GetAwardCharItemReinforce@TotalResultAwardWnd@@QAEHABVioHashString@@H@Z
_TEXT	SEGMENT
_szName$ = 8						; size = 4
_iSlot$ = 12						; size = 4
?GetAwardCharItemReinforce@TotalResultAwardWnd@@QAEHABVioHashString@@H@Z PROC ; TotalResultAwardWnd::GetAwardCharItemReinforce, COMDAT
; _this$ = ecx

; 1308 : {

  00000	55		 push	 ebp
  00001	8b ec		 mov	 ebp, esp
  00003	57		 push	 edi
  00004	8b f9		 mov	 edi, ecx

; 1309 : 	if( szName.IsEmpty() )

  00006	8b 4d 08	 mov	 ecx, DWORD PTR _szName$[ebp]
  00009	ff 15 00 00 00
	00		 call	 DWORD PTR __imp_?IsEmpty@ioHashString@@QBE_NXZ
  0000f	84 c0		 test	 al, al
  00011	74 04		 je	 SHORT $LN5@GetAwardCh

; 1310 : 		return 0;

  00013	33 c0		 xor	 eax, eax
  00015	eb 3f		 jmp	 SHORT $LN6@GetAwardCh
$LN5@GetAwardCh:

; 1311 : 
; 1312 : 	for( int i = 0;i < m_iAwardCount;i++)

  00017	33 c0		 xor	 eax, eax
  00019	53		 push	 ebx
  0001a	56		 push	 esi
  0001b	39 87 8c 01 00
	00		 cmp	 DWORD PTR [edi+396], eax
  00021	7e 2f		 jle	 SHORT $LN2@GetAwardCh
$LL4@GetAwardCh:

; 1313 : 	{
; 1314 : 		AwardSlotWnd *pAward = (AwardSlotWnd *)FindChildWnd( ID_AWARD_1 + i );

  00023	8d 70 01	 lea	 esi, DWORD PTR [eax+1]
  00026	56		 push	 esi
  00027	8b cf		 mov	 ecx, edi
  00029	ff 15 00 00 00
	00		 call	 DWORD PTR __imp_?FindChildWnd@ioWnd@@QAEPAV1@K@Z
  0002f	8b d8		 mov	 ebx, eax

; 1315 : 		if( pAward && pAward->GetCharName() == szName )

  00031	85 db		 test	 ebx, ebx
  00033	74 13		 je	 SHORT $LN3@GetAwardCh
  00035	ff 75 08	 push	 DWORD PTR _szName$[ebp]
  00038	8d 8b 74 01 00
	00		 lea	 ecx, DWORD PTR [ebx+372]
  0003e	ff 15 00 00 00
	00		 call	 DWORD PTR __imp_??8ioHashString@@QBE_NABV0@@Z
  00044	84 c0		 test	 al, al
  00046	75 13		 jne	 SHORT $LN11@GetAwardCh
$LN3@GetAwardCh:

; 1311 : 
; 1312 : 	for( int i = 0;i < m_iAwardCount;i++)

  00048	8b c6		 mov	 eax, esi
  0004a	3b 87 8c 01 00
	00		 cmp	 eax, DWORD PTR [edi+396]
  00050	7c d1		 jl	 SHORT $LL4@GetAwardCh
$LN2@GetAwardCh:

; 1318 : 		}
; 1319 : 	}
; 1320 : 	return 0;

  00052	33 c0		 xor	 eax, eax
$LN13@GetAwardCh:
  00054	5e		 pop	 esi
  00055	5b		 pop	 ebx
$LN6@GetAwardCh:
  00056	5f		 pop	 edi

; 1321 : }

  00057	5d		 pop	 ebp
  00058	c2 08 00	 ret	 8
$LN11@GetAwardCh:

; 1316 : 		{
; 1317 : 			return pAward->GetItemReinforce( iSlot );

  0005b	ff 75 0c	 push	 DWORD PTR _iSlot$[ebp]
  0005e	8b cb		 mov	 ecx, ebx
  00060	e8 00 00 00 00	 call	 ?GetItemReinforce@AwardSlotWnd@@QAEHH@Z ; AwardSlotWnd::GetItemReinforce
  00065	eb ed		 jmp	 SHORT $LN13@GetAwardCh
?GetAwardCharItemReinforce@TotalResultAwardWnd@@QAEHABVioHashString@@H@Z ENDP ; TotalResultAwardWnd::GetAwardCharItemReinforce
_TEXT	ENDS
PUBLIC	?GetAwardCharLevel@TotalResultAwardWnd@@QAEHABVioHashString@@@Z ; TotalResultAwardWnd::GetAwardCharLevel
; Function compile flags: /Ogsp
;	COMDAT ?GetAwardCharLevel@TotalResultAwardWnd@@QAEHABVioHashString@@@Z
_TEXT	SEGMENT
_szName$ = 8						; size = 4
?GetAwardCharLevel@TotalResultAwardWnd@@QAEHABVioHashString@@@Z PROC ; TotalResultAwardWnd::GetAwardCharLevel, COMDAT
; _this$ = ecx

; 1324 : {

  00000	55		 push	 ebp
  00001	8b ec		 mov	 ebp, esp
  00003	57		 push	 edi
  00004	8b f9		 mov	 edi, ecx

; 1325 : 	if( szName.IsEmpty() )

  00006	8b 4d 08	 mov	 ecx, DWORD PTR _szName$[ebp]
  00009	ff 15 00 00 00
	00		 call	 DWORD PTR __imp_?IsEmpty@ioHashString@@QBE_NXZ
  0000f	84 c0		 test	 al, al
  00011	74 04		 je	 SHORT $LN5@GetAwardCh@2

; 1326 : 		return 0;

  00013	33 c0		 xor	 eax, eax
  00015	eb 3f		 jmp	 SHORT $LN6@GetAwardCh@2
$LN5@GetAwardCh@2:

; 1327 : 
; 1328 : 	for( int i = 0;i < m_iAwardCount;i++)

  00017	33 c0		 xor	 eax, eax
  00019	53		 push	 ebx
  0001a	56		 push	 esi
  0001b	39 87 8c 01 00
	00		 cmp	 DWORD PTR [edi+396], eax
  00021	7e 2f		 jle	 SHORT $LN2@GetAwardCh@2
$LL4@GetAwardCh@2:

; 1329 : 	{
; 1330 : 		AwardSlotWnd *pAward = (AwardSlotWnd *)FindChildWnd( ID_AWARD_1 + i );

  00023	8d 70 01	 lea	 esi, DWORD PTR [eax+1]
  00026	56		 push	 esi
  00027	8b cf		 mov	 ecx, edi
  00029	ff 15 00 00 00
	00		 call	 DWORD PTR __imp_?FindChildWnd@ioWnd@@QAEPAV1@K@Z
  0002f	8b d8		 mov	 ebx, eax

; 1331 : 		if( pAward && pAward->GetCharName() == szName )

  00031	85 db		 test	 ebx, ebx
  00033	74 13		 je	 SHORT $LN3@GetAwardCh@2
  00035	ff 75 08	 push	 DWORD PTR _szName$[ebp]
  00038	8d 8b 74 01 00
	00		 lea	 ecx, DWORD PTR [ebx+372]
  0003e	ff 15 00 00 00
	00		 call	 DWORD PTR __imp_??8ioHashString@@QBE_NABV0@@Z
  00044	84 c0		 test	 al, al
  00046	75 13		 jne	 SHORT $LN13@GetAwardCh@2
$LN3@GetAwardCh@2:

; 1327 : 
; 1328 : 	for( int i = 0;i < m_iAwardCount;i++)

  00048	8b c6		 mov	 eax, esi
  0004a	3b 87 8c 01 00
	00		 cmp	 eax, DWORD PTR [edi+396]
  00050	7c d1		 jl	 SHORT $LL4@GetAwardCh@2
$LN2@GetAwardCh@2:

; 1334 : 		}
; 1335 : 	}
; 1336 : 	return 0;

  00052	33 c0		 xor	 eax, eax
$LN15@GetAwardCh@2:
  00054	5e		 pop	 esi
  00055	5b		 pop	 ebx
$LN6@GetAwardCh@2:
  00056	5f		 pop	 edi

; 1337 : }

  00057	5d		 pop	 ebp
  00058	c2 04 00	 ret	 4
$LN13@GetAwardCh@2:

; 1332 : 		{
; 1333 : 			return pAward->GetCharLevel();

  0005b	8b 83 b8 04 00
	00		 mov	 eax, DWORD PTR [ebx+1208]
  00061	eb f1		 jmp	 SHORT $LN15@GetAwardCh@2
?GetAwardCharLevel@TotalResultAwardWnd@@QAEHABVioHashString@@@Z ENDP ; TotalResultAwardWnd::GetAwardCharLevel
_TEXT	ENDS
PUBLIC	??_7TotalResultTreasureCardBtn@@6B@		; TotalResultTreasureCardBtn::`vftable'
PUBLIC	??0TotalResultTreasureCardBtn@@QAE@XZ		; TotalResultTreasureCardBtn::TotalResultTreasureCardBtn
PUBLIC	??_R4TotalResultTreasureCardBtn@@6B@		; TotalResultTreasureCardBtn::`RTTI Complete Object Locator'
PUBLIC	??_R0?AVTotalResultTreasureCardBtn@@@8		; TotalResultTreasureCardBtn `RTTI Type Descriptor'
PUBLIC	??_R3TotalResultTreasureCardBtn@@8		; TotalResultTreasureCardBtn::`RTTI Class Hierarchy Descriptor'
PUBLIC	??_R2TotalResultTreasureCardBtn@@8		; TotalResultTreasureCardBtn::`RTTI Base Class Array'
PUBLIC	??_R1A@?0A@EA@TotalResultTreasureCardBtn@@8	; TotalResultTreasureCardBtn::`RTTI Base Class Descriptor at (0,-1,0,64)'
PUBLIC	?AddRenderImage@TotalResultTreasureCardBtn@@MAEXABVioHashString@@PAVioUIRenderImage@@@Z ; TotalResultTreasureCardBtn::AddRenderImage
PUBLIC	?OnRender@TotalResultTreasureCardBtn@@MAEXXZ	; TotalResultTreasureCardBtn::OnRender
PUBLIC	?OnProcess@TotalResultTreasureCardBtn@@MAEXM@Z	; TotalResultTreasureCardBtn::OnProcess
EXTRN	?AddRenderFrame@ioButton@@UAEXABVioHashString@@PAVioUIRenderFrame@@@Z:PROC ; ioButton::AddRenderFrame
EXTRN	?iwm_show@ioWnd@@UAEXXZ:PROC			; ioWnd::iwm_show
EXTRN	??_ETotalResultTreasureCardBtn@@UAEPAXI@Z:PROC	; TotalResultTreasureCardBtn::`vector deleting destructor'
;	COMDAT ??_R1A@?0A@EA@TotalResultTreasureCardBtn@@8
rdata$r	SEGMENT
??_R1A@?0A@EA@TotalResultTreasureCardBtn@@8 DD FLAT:??_R0?AVTotalResultTreasureCardBtn@@@8 ; TotalResultTreasureCardBtn::`RTTI Base Class Descriptor at (0,-1,0,64)'
	DD	02H
	DD	00H
	DD	0ffffffffH
	DD	00H
	DD	040H
	DD	FLAT:??_R3TotalResultTreasureCardBtn@@8
rdata$r	ENDS
;	COMDAT ??_R2TotalResultTreasureCardBtn@@8
rdata$r	SEGMENT
??_R2TotalResultTreasureCardBtn@@8 DD FLAT:??_R1A@?0A@EA@TotalResultTreasureCardBtn@@8 ; TotalResultTreasureCardBtn::`RTTI Base Class Array'
	DD	FLAT:??_R1A@?0A@EA@ioButton@@8
	DD	FLAT:??_R1A@?0A@EA@ioWnd@@8
rdata$r	ENDS
;	COMDAT ??_R3TotalResultTreasureCardBtn@@8
rdata$r	SEGMENT
??_R3TotalResultTreasureCardBtn@@8 DD 00H		; TotalResultTreasureCardBtn::`RTTI Class Hierarchy Descriptor'
	DD	00H
	DD	03H
	DD	FLAT:??_R2TotalResultTreasureCardBtn@@8
rdata$r	ENDS
;	COMDAT ??_R0?AVTotalResultTreasureCardBtn@@@8
_DATA	SEGMENT
??_R0?AVTotalResultTreasureCardBtn@@@8 DD FLAT:??_7type_info@@6B@ ; TotalResultTreasureCardBtn `RTTI Type Descriptor'
	DD	00H
	DB	'.?AVTotalResultTreasureCardBtn@@', 00H
_DATA	ENDS
;	COMDAT ??_R4TotalResultTreasureCardBtn@@6B@
rdata$r	SEGMENT
??_R4TotalResultTreasureCardBtn@@6B@ DD 00H		; TotalResultTreasureCardBtn::`RTTI Complete Object Locator'
	DD	00H
	DD	00H
	DD	FLAT:??_R0?AVTotalResultTreasureCardBtn@@@8
	DD	FLAT:??_R3TotalResultTreasureCardBtn@@8
rdata$r	ENDS
;	COMDAT ??_7TotalResultTreasureCardBtn@@6B@
CONST	SEGMENT
??_7TotalResultTreasureCardBtn@@6B@ DD FLAT:??_R4TotalResultTreasureCardBtn@@6B@ ; TotalResultTreasureCardBtn::`vftable'
	DD	FLAT:?AddRenderFrame@ioButton@@UAEXABVioHashString@@PAVioUIRenderFrame@@@Z
	DD	FLAT:?AddRenderImage@TotalResultTreasureCardBtn@@MAEXABVioHashString@@PAVioUIRenderImage@@@Z
	DD	FLAT:?AddTooltipHelp@ioWnd@@UAEXABVioHashString@@00@Z
	DD	FLAT:?ParseExtraInfo@ioButton@@UAEXAAVioXMLElement@@@Z
	DD	FLAT:?AddNamedRenderImage@ioWnd@@UAEXABVioHashString@@PAVioUIRenderImage@@@Z
	DD	FLAT:?RemoveNamedRenderImage@ioWnd@@UAEXABVioHashString@@@Z
	DD	FLAT:?GetNamedRenderImage@ioWnd@@UBEPAVioUIRenderImage@@ABVioHashString@@@Z
	DD	FLAT:?SetWindowAlpha@ioButton@@UAEXH@Z
	DD	FLAT:?SetActive@ioWnd@@UAEXXZ
	DD	FLAT:?SetInActive@ioWnd@@UAEXXZ
	DD	FLAT:?ClearElementImageList@ioWnd@@UAEXXZ
	DD	FLAT:?SetSize@ioWnd@@UAEXHH@Z
	DD	FLAT:?SetPositionToDefault@ioWnd@@UAEXHH_N0@Z
	DD	FLAT:?IsNeedProcess@ioWnd@@UBE_NXZ
	DD	FLAT:?IsCanMouseReaction@ioWnd@@UBE_NXZ
	DD	FLAT:?AddChild@ioWnd@@UAEXPAV1@@Z
	DD	FLAT:?DeleteChild@ioWnd@@UAEXK@Z
	DD	FLAT:?DeleteAllChild@ioWnd@@UAEXXZ
	DD	FLAT:?OnRenderShowAndHide@ioWnd@@MAE_NXZ
	DD	FLAT:?OnRenderShowAndHideByDefault@ioWnd@@MAE_NK@Z
	DD	FLAT:?OnRenderShowAndHideByTop@ioWnd@@MAE_NK@Z
	DD	FLAT:?OnRenderShowAndHideByDown@ioWnd@@MAE_NK@Z
	DD	FLAT:?OnRender@TotalResultTreasureCardBtn@@MAEXXZ
	DD	FLAT:?OnRenderAfterChild@ioWnd@@MAEXXZ
	DD	FLAT:?OnProcess@TotalResultTreasureCardBtn@@MAEXM@Z
	DD	FLAT:?OnMouseProcess@ioWnd@@MAEXABVioMouse@@@Z
	DD	FLAT:?CheckFrameReSize@ioButton@@MAEXHHHH@Z
	DD	FLAT:?RenderImageList@ioWnd@@MAEXHHW4UIRenderType@@@Z
	DD	FLAT:?iwm_create@ioWnd@@UAEXXZ
	DD	FLAT:?iwm_destroy@ioWnd@@UAEXXZ
	DD	FLAT:?iwm_lbuttondown@ioButton@@UAEXABVioMouse@@@Z
	DD	FLAT:?iwm_lbuttonup@ioButton@@UAEXABVioMouse@@@Z
	DD	FLAT:?iwm_lbuttonDBLCLK@ioButton@@UAEXABVioMouse@@@Z
	DD	FLAT:?iwm_rbuttondown@ioButton@@UAEXABVioMouse@@@Z
	DD	FLAT:?iwm_rbuttonup@ioButton@@UAEXABVioMouse@@@Z
	DD	FLAT:?iwm_command@ioWnd@@UAEXPAV1@HK@Z
	DD	FLAT:?iwm_mouseover@ioButton@@UAEXABVioMouse@@@Z
	DD	FLAT:?iwm_mousemove@ioWnd@@UAEXABVioMouse@@@Z
	DD	FLAT:?iwm_mouseleave@ioWnd@@UAEXABVioMouse@@@Z
	DD	FLAT:?iwm_vscroll@ioWnd@@UAEXKH@Z
	DD	FLAT:?iwm_wheel@ioWnd@@UAEXH@Z
	DD	FLAT:?iwm_show@ioWnd@@UAEXXZ
	DD	FLAT:?iwm_hide@ioWnd@@UAEXXZ
	DD	FLAT:?iwm_esc@ioWnd@@UAE_NXZ
	DD	FLAT:?iwm_spacebar@ioWnd@@UAE_NXZ
	DD	FLAT:?iwm_gototop@ioWnd@@UAEXXZ
	DD	FLAT:?iwm_dragenter@ioWnd@@UAE?AW4IWDropEffect@@PAVioDragItem@@ABVioMouse@@@Z
	DD	FLAT:?iwm_dragover@ioWnd@@UAE?AW4IWDropEffect@@PAVioDragItem@@ABVioMouse@@@Z
	DD	FLAT:?iwm_dragleave@ioWnd@@UAEXXZ
	DD	FLAT:?iwm_dropitem@ioWnd@@UAE_NPAVioDragItem@@ABVioMouse@@PAV1@@Z
	DD	FLAT:?iwm_dropdone@ioWnd@@UAEXPAVioDragItem@@PAV1@_N@Z
	DD	FLAT:?IsEXType@ioWnd@@UBE_NXZ
	DD	FLAT:?GetWndType@ioButton@@UBEKXZ
	DD	FLAT:?RenderWnd@ioWnd@@UAEXXZ
	DD	FLAT:?SetIDEX@ioWnd@@UAEXAAK_N@Z
	DD	FLAT:?ParseXML@ioWnd@@UAEXAAVioXMLElement@@@Z
	DD	FLAT:?GetHeaderFileName@ioButton@@UAEPBDXZ
	DD	FLAT:?GetTemplateName@ioButton@@UAEPBDXZ
	DD	FLAT:?GetDefClassName@ioButton@@UBEPBDXZ
	DD	FLAT:?_Clone@ioButton@@UAEPAVioWnd@@XZ
	DD	FLAT:?Copy@ioButton@@UAEXPAVioWnd@@@Z
	DD	FLAT:?Save@ioWnd@@UAE_NAAVioXMLElement@@@Z
	DD	FLAT:?SetSaveData@ioButton@@UAEXAAVioXMLElement@@@Z
	DD	FLAT:?SetPosX@ioWnd@@UAEXH@Z
	DD	FLAT:?SetPosY@ioWnd@@UAEXH@Z
	DD	FLAT:?SetWidth@ioWnd@@UAEXH@Z
	DD	FLAT:?SetHeight@ioWnd@@UAEXH@Z
	DD	FLAT:?GetNumFixedRenderFrame@ioButton@@UBEHXZ
	DD	FLAT:?GetFixedRenderFrameType@ioButton@@UAEPBDH@Z
	DD	FLAT:?GetRenderFrame@ioButton@@UAEPAPAVioUIRenderElement@@PBD@Z
	DD	FLAT:?GetNumFixedRenderImage@ioButton@@UBEHXZ
	DD	FLAT:?GetFixedRenderImageType@ioButton@@UAEPBDH@Z
	DD	FLAT:?GetRenderImage@ioButton@@UAEPAPAVioUIRenderElement@@PBD@Z
	DD	FLAT:?AddEffect@ioWnd@@UAEXABVioHashString@@PAVioUI3DEffectRender@@@Z
	DD	FLAT:?GetEffect@ioWnd@@UAEPAVioUI3DEffectRender@@VioHashString@@@Z
	DD	FLAT:??_ETotalResultTreasureCardBtn@@UAEPAXI@Z
	DD	FLAT:?OnDrawNormal@ioButton@@MAEXHH@Z
	DD	FLAT:?OnDrawOvered@ioButton@@MAEXHH@Z
	DD	FLAT:?OnDrawOveredAdd@ioButton@@MAEXHH@Z
	DD	FLAT:?OnDrawPushed@ioButton@@MAEXHH@Z
	DD	FLAT:?OnDrawDisabled@ioButton@@MAEXHH@Z
	DD	FLAT:?OnDrawExDisabledNormal@ioButton@@MAEXHH@Z
	DD	FLAT:?OnDrawExDisabledOvered@ioButton@@MAEXHH@Z
	DD	FLAT:?OnDrawExDisabledPushed@ioButton@@MAEXHH@Z
	DD	FLAT:?OnDrawBack@ioButton@@MAEXHH@Z
	DD	FLAT:?OnDrawNormalList@ioButton@@MAEXHH@Z
	DD	FLAT:?OnDrawDisableList@ioButton@@MAEXHH@Z
CONST	ENDS
;	COMDAT xdata$x
xdata$x	SEGMENT
__unwindtable$??0TotalResultTreasureCardBtn@@QAE@XZ DD 0ffffffffH
	DD	FLAT:__unwindfunclet$??0TotalResultTreasureCardBtn@@QAE@XZ$0
__ehfuncinfo$??0TotalResultTreasureCardBtn@@QAE@XZ DD 019930522H
	DD	01H
	DD	FLAT:__unwindtable$??0TotalResultTreasureCardBtn@@QAE@XZ
	DD	2 DUP(00H)
	DD	2 DUP(00H)
	DD	00H
	DD	01H
; Function compile flags: /Ogsp
xdata$x	ENDS
;	COMDAT ??0TotalResultTreasureCardBtn@@QAE@XZ
_TEXT	SEGMENT
_this$ = -16						; size = 4
__$EHRec$ = -12						; size = 12
??0TotalResultTreasureCardBtn@@QAE@XZ PROC		; TotalResultTreasureCardBtn::TotalResultTreasureCardBtn, COMDAT
; _this$ = ecx

; 1369 : {

  00000	6a 04		 push	 4
  00002	b8 00 00 00 00	 mov	 eax, __ehhandler$??0TotalResultTreasureCardBtn@@QAE@XZ
  00007	e8 00 00 00 00	 call	 __EH_prolog3
  0000c	8b f1		 mov	 esi, ecx
  0000e	89 75 f0	 mov	 DWORD PTR _this$[ebp], esi
  00011	ff 15 00 00 00
	00		 call	 DWORD PTR __imp_??0ioButton@@QAE@XZ
  00017	33 db		 xor	 ebx, ebx
  00019	8d 8e 10 02 00
	00		 lea	 ecx, DWORD PTR [esi+528]
  0001f	89 5d fc	 mov	 DWORD PTR __$EHRec$[ebp+8], ebx
  00022	c7 06 00 00 00
	00		 mov	 DWORD PTR [esi], OFFSET ??_7TotalResultTreasureCardBtn@@6B@
  00028	ff 15 00 00 00
	00		 call	 DWORD PTR __imp_??0ioHashString@@QAE@XZ

; 1370 : 	m_pCardCover = NULL;
; 1371 : 	m_pPresentCover = NULL;
; 1372 : 	m_pPresentCoverOverAdd = NULL;
; 1373 : 	m_pPresentCoverMe = NULL;
; 1374 : 
; 1375 : 	m_pPresentIcon = NULL;
; 1376 : 
; 1377 : 	m_iPresentType = 0;

  0002e	33 c0		 xor	 eax, eax
  00030	66 89 86 20 02
	00 00		 mov	 WORD PTR [esi+544], ax
  00037	89 9e fc 01 00
	00		 mov	 DWORD PTR [esi+508], ebx
  0003d	89 9e 00 02 00
	00		 mov	 DWORD PTR [esi+512], ebx
  00043	89 9e 04 02 00
	00		 mov	 DWORD PTR [esi+516], ebx
  00049	89 9e 08 02 00
	00		 mov	 DWORD PTR [esi+520], ebx
  0004f	89 9e 0c 02 00
	00		 mov	 DWORD PTR [esi+524], ebx

; 1378 : 	m_iPresentValue1 = m_iPresentValue2 = 0;

  00055	89 9e 28 02 00
	00		 mov	 DWORD PTR [esi+552], ebx
  0005b	89 9e 24 02 00
	00		 mov	 DWORD PTR [esi+548], ebx

; 1379 : 
; 1380 : 	m_bScreenStart = false;

  00061	66 89 9e 2c 02
	00 00		 mov	 WORD PTR [esi+556], bx

; 1381 : 	m_bScreen = false;
; 1382 : 	m_dwCurrentTime = 0;

  00068	89 9e 30 02 00
	00		 mov	 DWORD PTR [esi+560], ebx

; 1383 : }

  0006e	8b c6		 mov	 eax, esi
  00070	e8 00 00 00 00	 call	 __EH_epilog3
  00075	c3		 ret	 0
_TEXT	ENDS
;	COMDAT text$x
text$x	SEGMENT
__unwindfunclet$??0TotalResultTreasureCardBtn@@QAE@XZ$0:
  00000	8b 4d f0	 mov	 ecx, DWORD PTR _this$[ebp]
  00003	ff 25 00 00 00
	00		 jmp	 DWORD PTR __imp_??1ioButton@@UAE@XZ
__ehhandler$??0TotalResultTreasureCardBtn@@QAE@XZ:
  00009	8b 54 24 08	 mov	 edx, DWORD PTR [esp+8]
  0000d	8d 42 0c	 lea	 eax, DWORD PTR [edx+12]
  00010	8b 4a ec	 mov	 ecx, DWORD PTR [edx-20]
  00013	33 c8		 xor	 ecx, eax
  00015	e8 00 00 00 00	 call	 @__security_check_cookie@4
  0001a	b8 00 00 00 00	 mov	 eax, OFFSET __ehfuncinfo$??0TotalResultTreasureCardBtn@@QAE@XZ
  0001f	e9 00 00 00 00	 jmp	 ___CxxFrameHandler3
text$x	ENDS
??0TotalResultTreasureCardBtn@@QAE@XZ ENDP		; TotalResultTreasureCardBtn::TotalResultTreasureCardBtn
PUBLIC	??1TotalResultTreasureCardBtn@@UAE@XZ		; TotalResultTreasureCardBtn::~TotalResultTreasureCardBtn
;	COMDAT xdata$x
xdata$x	SEGMENT
__unwindtable$??1TotalResultTreasureCardBtn@@UAE@XZ DD 0ffffffffH
	DD	FLAT:__unwindfunclet$??1TotalResultTreasureCardBtn@@UAE@XZ$0
	DD	00H
	DD	FLAT:__unwindfunclet$??1TotalResultTreasureCardBtn@@UAE@XZ$1
__ehfuncinfo$??1TotalResultTreasureCardBtn@@UAE@XZ DD 019930522H
	DD	02H
	DD	FLAT:__unwindtable$??1TotalResultTreasureCardBtn@@UAE@XZ
	DD	2 DUP(00H)
	DD	2 DUP(00H)
	DD	00H
	DD	01H
; Function compile flags: /Ogsp
xdata$x	ENDS
;	COMDAT ??1TotalResultTreasureCardBtn@@UAE@XZ
_TEXT	SEGMENT
_this$ = -16						; size = 4
__$EHRec$ = -12						; size = 12
??1TotalResultTreasureCardBtn@@UAE@XZ PROC		; TotalResultTreasureCardBtn::~TotalResultTreasureCardBtn, COMDAT
; _this$ = ecx

; 1386 : {

  00000	6a 04		 push	 4
  00002	b8 00 00 00 00	 mov	 eax, __ehhandler$??1TotalResultTreasureCardBtn@@UAE@XZ
  00007	e8 00 00 00 00	 call	 __EH_prolog3
  0000c	8b f1		 mov	 esi, ecx
  0000e	89 75 f0	 mov	 DWORD PTR _this$[ebp], esi
  00011	c7 06 00 00 00
	00		 mov	 DWORD PTR [esi], OFFSET ??_7TotalResultTreasureCardBtn@@6B@

; 1387 : 	SAFEDELETE( m_pCardCover );

  00017	8b 8e fc 01 00
	00		 mov	 ecx, DWORD PTR [esi+508]
  0001d	33 c0		 xor	 eax, eax
  0001f	40		 inc	 eax
  00020	33 db		 xor	 ebx, ebx
  00022	89 45 fc	 mov	 DWORD PTR __$EHRec$[ebp+8], eax
  00025	3b cb		 cmp	 ecx, ebx
  00027	74 0c		 je	 SHORT $LN5@TotalResul
  00029	8b 11		 mov	 edx, DWORD PTR [ecx]
  0002b	50		 push	 eax
  0002c	ff 52 40	 call	 DWORD PTR [edx+64]
  0002f	89 9e fc 01 00
	00		 mov	 DWORD PTR [esi+508], ebx
$LN5@TotalResul:

; 1388 : 	SAFEDELETE( m_pPresentCover );

  00035	8b 8e 00 02 00
	00		 mov	 ecx, DWORD PTR [esi+512]
  0003b	3b cb		 cmp	 ecx, ebx
  0003d	74 0d		 je	 SHORT $LN4@TotalResul
  0003f	8b 01		 mov	 eax, DWORD PTR [ecx]
  00041	6a 01		 push	 1
  00043	ff 50 40	 call	 DWORD PTR [eax+64]
  00046	89 9e 00 02 00
	00		 mov	 DWORD PTR [esi+512], ebx
$LN4@TotalResul:

; 1389 : 	SAFEDELETE( m_pPresentCoverOverAdd );

  0004c	8b 8e 04 02 00
	00		 mov	 ecx, DWORD PTR [esi+516]
  00052	3b cb		 cmp	 ecx, ebx
  00054	74 0d		 je	 SHORT $LN3@TotalResul
  00056	8b 01		 mov	 eax, DWORD PTR [ecx]
  00058	6a 01		 push	 1
  0005a	ff 50 40	 call	 DWORD PTR [eax+64]
  0005d	89 9e 04 02 00
	00		 mov	 DWORD PTR [esi+516], ebx
$LN3@TotalResul:

; 1390 : 	SAFEDELETE( m_pPresentCoverMe );

  00063	8b 8e 08 02 00
	00		 mov	 ecx, DWORD PTR [esi+520]
  00069	3b cb		 cmp	 ecx, ebx
  0006b	74 0d		 je	 SHORT $LN2@TotalResul
  0006d	8b 01		 mov	 eax, DWORD PTR [ecx]
  0006f	6a 01		 push	 1
  00071	ff 50 40	 call	 DWORD PTR [eax+64]
  00074	89 9e 08 02 00
	00		 mov	 DWORD PTR [esi+520], ebx
$LN2@TotalResul:

; 1391 : 
; 1392 : 	SAFEDELETE( m_pPresentIcon );

  0007a	8b 8e 0c 02 00
	00		 mov	 ecx, DWORD PTR [esi+524]
  00080	3b cb		 cmp	 ecx, ebx
  00082	74 0d		 je	 SHORT $LN1@TotalResul
  00084	8b 01		 mov	 eax, DWORD PTR [ecx]
  00086	6a 01		 push	 1
  00088	ff 50 40	 call	 DWORD PTR [eax+64]
  0008b	89 9e 0c 02 00
	00		 mov	 DWORD PTR [esi+524], ebx
$LN1@TotalResul:

; 1393 : }

  00091	8d 8e 10 02 00
	00		 lea	 ecx, DWORD PTR [esi+528]
  00097	88 5d fc	 mov	 BYTE PTR __$EHRec$[ebp+8], bl
  0009a	ff 15 00 00 00
	00		 call	 DWORD PTR __imp_??1ioHashString@@QAE@XZ
  000a0	83 4d fc ff	 or	 DWORD PTR __$EHRec$[ebp+8], -1
  000a4	8b ce		 mov	 ecx, esi
  000a6	ff 15 00 00 00
	00		 call	 DWORD PTR __imp_??1ioButton@@UAE@XZ
  000ac	e8 00 00 00 00	 call	 __EH_epilog3
  000b1	c3		 ret	 0
_TEXT	ENDS
;	COMDAT text$x
text$x	SEGMENT
__unwindfunclet$??1TotalResultTreasureCardBtn@@UAE@XZ$0:
  00000	8b 4d f0	 mov	 ecx, DWORD PTR _this$[ebp]
  00003	ff 25 00 00 00
	00		 jmp	 DWORD PTR __imp_??1ioButton@@UAE@XZ
__unwindfunclet$??1TotalResultTreasureCardBtn@@UAE@XZ$1:
  00009	8b 4d f0	 mov	 ecx, DWORD PTR _this$[ebp]
  0000c	81 c1 10 02 00
	00		 add	 ecx, 528		; 00000210H
  00012	ff 25 00 00 00
	00		 jmp	 DWORD PTR __imp_??1ioHashString@@QAE@XZ
__ehhandler$??1TotalResultTreasureCardBtn@@UAE@XZ:
  00018	8b 54 24 08	 mov	 edx, DWORD PTR [esp+8]
  0001c	8d 42 0c	 lea	 eax, DWORD PTR [edx+12]
  0001f	8b 4a ec	 mov	 ecx, DWORD PTR [edx-20]
  00022	33 c8		 xor	 ecx, eax
  00024	e8 00 00 00 00	 call	 @__security_check_cookie@4
  00029	b8 00 00 00 00	 mov	 eax, OFFSET __ehfuncinfo$??1TotalResultTreasureCardBtn@@UAE@XZ
  0002e	e9 00 00 00 00	 jmp	 ___CxxFrameHandler3
text$x	ENDS
??1TotalResultTreasureCardBtn@@UAE@XZ ENDP		; TotalResultTreasureCardBtn::~TotalResultTreasureCardBtn
PUBLIC	?SetName@TotalResultTreasureCardBtn@@QAEXABVioHashString@@@Z ; TotalResultTreasureCardBtn::SetName
; Function compile flags: /Ogsp
;	COMDAT ?SetName@TotalResultTreasureCardBtn@@QAEXABVioHashString@@@Z
_TEXT	SEGMENT
_rkName$ = 8						; size = 4
?SetName@TotalResultTreasureCardBtn@@QAEXABVioHashString@@@Z PROC ; TotalResultTreasureCardBtn::SetName, COMDAT
; _this$ = ecx

; 1424 : {

  00000	55		 push	 ebp
  00001	8b ec		 mov	 ebp, esp

; 1425 : 	m_Name = rkName;

  00003	81 c1 10 02 00
	00		 add	 ecx, 528		; 00000210H

; 1426 : }

  00009	5d		 pop	 ebp

; 1425 : 	m_Name = rkName;

  0000a	ff 25 00 00 00
	00		 jmp	 DWORD PTR __imp_??4ioHashString@@QAEAAV0@ABV0@@Z
?SetName@TotalResultTreasureCardBtn@@QAEXABVioHashString@@@Z ENDP ; TotalResultTreasureCardBtn::SetName
_TEXT	ENDS
PUBLIC	?SetPresent@TotalResultTreasureCardBtn@@QAEXFHH@Z ; TotalResultTreasureCardBtn::SetPresent
EXTRN	__imp_?CreateImageByFullName@ioUIImageSetManager@@QAEPAVioUIRenderImage@@ABVioHashString@@_N@Z:PROC
EXTRN	__imp_?GetSingleton@ioUIImageSetManager@@SAAAV1@XZ:PROC
EXTRN	?GetPresentIconText@ioPresentMgr@@QAEABVioHashString@@FHH@Z:PROC ; ioPresentMgr::GetPresentIconText
EXTRN	?GetSingleton@ioPresentMgr@@SAAAV1@XZ:PROC	; ioPresentMgr::GetSingleton
; Function compile flags: /Ogsp
;	COMDAT ?SetPresent@TotalResultTreasureCardBtn@@QAEXFHH@Z
_TEXT	SEGMENT
_iPresentType$ = 8					; size = 2
_iPresentValue1$ = 12					; size = 4
_iPresentValue2$ = 16					; size = 4
?SetPresent@TotalResultTreasureCardBtn@@QAEXFHH@Z PROC	; TotalResultTreasureCardBtn::SetPresent, COMDAT
; _this$ = ecx

; 1429 : {

  00000	55		 push	 ebp
  00001	8b ec		 mov	 ebp, esp

; 1430 : 	m_iPresentType	= iPresentType;

  00003	66 8b 45 08	 mov	 ax, WORD PTR _iPresentType$[ebp]
  00007	56		 push	 esi
  00008	8b f1		 mov	 esi, ecx

; 1431 : 	m_iPresentValue1= iPresentValue1;
; 1432 : 	m_iPresentValue2= iPresentValue2;
; 1433 : 
; 1434 : 	SAFEDELETE( m_pPresentIcon );

  0000a	8b 8e 0c 02 00
	00		 mov	 ecx, DWORD PTR [esi+524]
  00010	66 89 86 20 02
	00 00		 mov	 WORD PTR [esi+544], ax
  00017	8b 45 0c	 mov	 eax, DWORD PTR _iPresentValue1$[ebp]
  0001a	89 86 24 02 00
	00		 mov	 DWORD PTR [esi+548], eax
  00020	8b 45 10	 mov	 eax, DWORD PTR _iPresentValue2$[ebp]
  00023	89 86 28 02 00
	00		 mov	 DWORD PTR [esi+552], eax
  00029	85 c9		 test	 ecx, ecx
  0002b	74 0e		 je	 SHORT $LN1@SetPresent
  0002d	8b 01		 mov	 eax, DWORD PTR [ecx]
  0002f	6a 01		 push	 1
  00031	ff 50 40	 call	 DWORD PTR [eax+64]
  00034	83 a6 0c 02 00
	00 00		 and	 DWORD PTR [esi+524], 0
$LN1@SetPresent:

; 1435 : 	const ioHashString &rkPresentIcon = g_PresentMgr.GetPresentIconText( m_iPresentType, m_iPresentValue1, m_iPresentValue2 );

  0003b	ff b6 28 02 00
	00		 push	 DWORD PTR [esi+552]
  00041	0f b7 86 20 02
	00 00		 movzx	 eax, WORD PTR [esi+544]
  00048	ff b6 24 02 00
	00		 push	 DWORD PTR [esi+548]
  0004e	50		 push	 eax
  0004f	e8 00 00 00 00	 call	 ?GetSingleton@ioPresentMgr@@SAAAV1@XZ ; ioPresentMgr::GetSingleton
  00054	8b c8		 mov	 ecx, eax
  00056	e8 00 00 00 00	 call	 ?GetPresentIconText@ioPresentMgr@@QAEABVioHashString@@FHH@Z ; ioPresentMgr::GetPresentIconText

; 1436 : 	m_pPresentIcon = g_UIImageSetMgr.CreateImageByFullName( rkPresentIcon );

  0005b	6a 00		 push	 0
  0005d	50		 push	 eax
  0005e	ff 15 00 00 00
	00		 call	 DWORD PTR __imp_?GetSingleton@ioUIImageSetManager@@SAAAV1@XZ
  00064	8b c8		 mov	 ecx, eax
  00066	ff 15 00 00 00
	00		 call	 DWORD PTR __imp_?CreateImageByFullName@ioUIImageSetManager@@QAEPAVioUIRenderImage@@ABVioHashString@@_N@Z
  0006c	89 86 0c 02 00
	00		 mov	 DWORD PTR [esi+524], eax
  00072	5e		 pop	 esi

; 1437 : }

  00073	5d		 pop	 ebp
  00074	c2 0c 00	 ret	 12			; 0000000cH
?SetPresent@TotalResultTreasureCardBtn@@QAEXFHH@Z ENDP	; TotalResultTreasureCardBtn::SetPresent
_TEXT	ENDS
PUBLIC	?SetScreenStart@TotalResultTreasureCardBtn@@QAEXXZ ; TotalResultTreasureCardBtn::SetScreenStart
; Function compile flags: /Ogsp
;	COMDAT ?SetScreenStart@TotalResultTreasureCardBtn@@QAEXXZ
_TEXT	SEGMENT
?SetScreenStart@TotalResultTreasureCardBtn@@QAEXXZ PROC	; TotalResultTreasureCardBtn::SetScreenStart, COMDAT
; _this$ = ecx

; 1440 : {

  00000	56		 push	 esi
  00001	8b f1		 mov	 esi, ecx

; 1441 : 	if( m_Name.IsEmpty() )

  00003	8d 8e 10 02 00
	00		 lea	 ecx, DWORD PTR [esi+528]
  00009	ff 15 00 00 00
	00		 call	 DWORD PTR __imp_?IsEmpty@ioHashString@@QBE_NXZ
  0000f	84 c0		 test	 al, al
  00011	75 1b		 jne	 SHORT $LN2@SetScreenS

; 1442 : 		return;
; 1443 : 
; 1444 : 	m_bScreenStart = true;

  00013	c6 86 2c 02 00
	00 01		 mov	 BYTE PTR [esi+556], 1

; 1445 : 	m_dwCurrentTime= FRAMEGETTIME();

  0001a	ff 15 00 00 00
	00		 call	 DWORD PTR __imp_?GetSingleton@ioFrameTimer@@SAAAV1@XZ
  00020	8b c8		 mov	 ecx, eax
  00022	ff 15 00 00 00
	00		 call	 DWORD PTR __imp_?GetLoopSec@ioFrameTimer@@QBEKXZ
  00028	89 86 30 02 00
	00		 mov	 DWORD PTR [esi+560], eax
$LN2@SetScreenS:
  0002e	5e		 pop	 esi

; 1446 : }

  0002f	c3		 ret	 0
?SetScreenStart@TotalResultTreasureCardBtn@@QAEXXZ ENDP	; TotalResultTreasureCardBtn::SetScreenStart
; Function compile flags: /Ogsp
_TEXT	ENDS
;	COMDAT ?OnProcess@TotalResultTreasureCardBtn@@MAEXM@Z
_TEXT	SEGMENT
_fTimePerSec$ = 8					; size = 4
?OnProcess@TotalResultTreasureCardBtn@@MAEXM@Z PROC	; TotalResultTreasureCardBtn::OnProcess, COMDAT
; _this$ = ecx

; 1449 : {

  00000	56		 push	 esi
  00001	8b f1		 mov	 esi, ecx

; 1450 : 	if( !IsShow() ) return;

  00003	ff 15 00 00 00
	00		 call	 DWORD PTR __imp_?IsShow@ioWnd@@QBE_NXZ
  00009	84 c0		 test	 al, al
  0000b	74 48		 je	 SHORT $LN1@OnProcess@3

; 1451 : 
; 1452 : 	if( m_bScreenStart )

  0000d	80 be 2c 02 00
	00 00		 cmp	 BYTE PTR [esi+556], 0
  00014	74 3f		 je	 SHORT $LN1@OnProcess@3

; 1453 : 	{
; 1454 : 		if( FRAMEGETTIME() - m_dwCurrentTime > 200 )

  00016	57		 push	 edi
  00017	8b 3d 00 00 00
	00		 mov	 edi, DWORD PTR __imp_?GetSingleton@ioFrameTimer@@SAAAV1@XZ
  0001d	ff d7		 call	 edi
  0001f	8b c8		 mov	 ecx, eax
  00021	ff 15 00 00 00
	00		 call	 DWORD PTR __imp_?GetLoopSec@ioFrameTimer@@QBEKXZ
  00027	2b 86 30 02 00
	00		 sub	 eax, DWORD PTR [esi+560]
  0002d	3d c8 00 00 00	 cmp	 eax, 200		; 000000c8H
  00032	76 20		 jbe	 SHORT $LN6@OnProcess@3

; 1455 : 		{
; 1456 : 			m_dwCurrentTime = FRAMEGETTIME();

  00034	ff d7		 call	 edi
  00036	8b c8		 mov	 ecx, eax
  00038	ff 15 00 00 00
	00		 call	 DWORD PTR __imp_?GetLoopSec@ioFrameTimer@@QBEKXZ

; 1457 : 			m_bScreen = !m_bScreen;

  0003e	80 be 2d 02 00
	00 00		 cmp	 BYTE PTR [esi+557], 0
  00045	89 86 30 02 00
	00		 mov	 DWORD PTR [esi+560], eax
  0004b	0f 94 c1	 sete	 cl
  0004e	88 8e 2d 02 00
	00		 mov	 BYTE PTR [esi+557], cl
$LN6@OnProcess@3:
  00054	5f		 pop	 edi
$LN1@OnProcess@3:
  00055	5e		 pop	 esi

; 1458 : 		}
; 1459 : 	}
; 1460 : }

  00056	c2 04 00	 ret	 4
?OnProcess@TotalResultTreasureCardBtn@@MAEXM@Z ENDP	; TotalResultTreasureCardBtn::OnProcess
_TEXT	ENDS
PUBLIC	?iwm_create@TotalResultTreasureCardWnd@@UAEXXZ	; TotalResultTreasureCardWnd::iwm_create
; Function compile flags: /Ogsp
;	COMDAT ?iwm_create@TotalResultTreasureCardWnd@@UAEXXZ
_TEXT	SEGMENT
?iwm_create@TotalResultTreasureCardWnd@@UAEXXZ PROC	; TotalResultTreasureCardWnd::iwm_create, COMDAT
; _this$ = ecx

; 1638 : 
; 1639 : }

  00000	c3		 ret	 0
?iwm_create@TotalResultTreasureCardWnd@@UAEXXZ ENDP	; TotalResultTreasureCardWnd::iwm_create
_TEXT	ENDS
PUBLIC	?iwm_hide@TotalResultTreasureCardWnd@@UAEXXZ	; TotalResultTreasureCardWnd::iwm_hide
EXTRN	__imp_?StopSound@ioSoundManager@@QAEXABVioHashString@@K@Z:PROC
; Function compile flags: /Ogsp
;	COMDAT ?iwm_hide@TotalResultTreasureCardWnd@@UAEXXZ
_TEXT	SEGMENT
?iwm_hide@TotalResultTreasureCardWnd@@UAEXXZ PROC	; TotalResultTreasureCardWnd::iwm_hide, COMDAT
; _this$ = ecx

; 1664 : {

  00000	56		 push	 esi

; 1665 : 	if( !m_BackSound.IsEmpty() )

  00001	8d b1 a4 01 00
	00		 lea	 esi, DWORD PTR [ecx+420]
  00007	8b ce		 mov	 ecx, esi
  00009	ff 15 00 00 00
	00		 call	 DWORD PTR __imp_?IsEmpty@ioHashString@@QBE_NXZ
  0000f	84 c0		 test	 al, al
  00011	75 11		 jne	 SHORT $LN1@iwm_hide@2

; 1666 : 		g_SoundMgr.StopSound( m_BackSound, 0 );

  00013	6a 00		 push	 0
  00015	56		 push	 esi
  00016	ff 15 00 00 00
	00		 call	 DWORD PTR __imp_?GetSingleton@ioSoundManager@@SAAAV1@XZ
  0001c	8b c8		 mov	 ecx, eax
  0001e	ff 15 00 00 00
	00		 call	 DWORD PTR __imp_?StopSound@ioSoundManager@@QAEXABVioHashString@@K@Z
$LN1@iwm_hide@2:
  00024	5e		 pop	 esi

; 1667 : }

  00025	c3		 ret	 0
?iwm_hide@TotalResultTreasureCardWnd@@UAEXXZ ENDP	; TotalResultTreasureCardWnd::iwm_hide
_TEXT	ENDS
PUBLIC	__$ArrayPad$
PUBLIC	?iwm_command@TotalResultTreasureCardWnd@@UAEXPAVioWnd@@HK@Z ; TotalResultTreasureCardWnd::iwm_command
EXTRN	??1SP2Packet@@UAE@XZ:PROC			; SP2Packet::~SP2Packet
EXTRN	?MouseBusy@TCPNetwork@@YAX_N@Z:PROC		; TCPNetwork::MouseBusy
EXTRN	?SendToServer@TCPNetwork@@YAXAAVSP2Packet@@@Z:PROC ; TCPNetwork::SendToServer
EXTRN	??6SP2Packet@@QAEAAV0@K@Z:PROC			; SP2Packet::operator<<
EXTRN	??6SP2Packet@@QAEAAV0@H@Z:PROC			; SP2Packet::operator<<
EXTRN	??0SP2Packet@@QAE@K@Z:PROC			; SP2Packet::SP2Packet
EXTRN	___security_cookie:DWORD
EXTRN	__chkstk:PROC
;	COMDAT xdata$x
xdata$x	SEGMENT
__unwindtable$?iwm_command@TotalResultTreasureCardWnd@@UAEXPAVioWnd@@HK@Z DD 0ffffffffH
	DD	FLAT:__unwindfunclet$?iwm_command@TotalResultTreasureCardWnd@@UAEXPAVioWnd@@HK@Z$0
__ehfuncinfo$?iwm_command@TotalResultTreasureCardWnd@@UAEXPAVioWnd@@HK@Z DD 019930522H
	DD	01H
	DD	FLAT:__unwindtable$?iwm_command@TotalResultTreasureCardWnd@@UAEXPAVioWnd@@HK@Z
	DD	2 DUP(00H)
	DD	2 DUP(00H)
	DD	00H
	DD	01H
; Function compile flags: /Ogsp
xdata$x	ENDS
;	COMDAT ?iwm_command@TotalResultTreasureCardWnd@@UAEXPAVioWnd@@HK@Z
_TEXT	SEGMENT
_kPacket$539339 = -32808				; size = 32792
__$ArrayPad$ = -16					; size = 4
__$EHRec$ = -12						; size = 12
_pWnd$ = 8						; size = 4
_cmd$ = 12						; size = 4
_param$ = 16						; size = 4
?iwm_command@TotalResultTreasureCardWnd@@UAEXPAVioWnd@@HK@Z PROC ; TotalResultTreasureCardWnd::iwm_command, COMDAT
; _this$ = ecx

; 1670 : {

  00000	55		 push	 ebp
  00001	8b ec		 mov	 ebp, esp
  00003	6a ff		 push	 -1
  00005	68 00 00 00 00	 push	 __ehhandler$?iwm_command@TotalResultTreasureCardWnd@@UAEXPAVioWnd@@HK@Z
  0000a	64 a1 00 00 00
	00		 mov	 eax, DWORD PTR fs:0
  00010	50		 push	 eax
  00011	b8 1c 80 00 00	 mov	 eax, 32796		; 0000801cH
  00016	e8 00 00 00 00	 call	 __chkstk
  0001b	a1 00 00 00 00	 mov	 eax, DWORD PTR ___security_cookie
  00020	33 c5		 xor	 eax, ebp
  00022	89 45 f0	 mov	 DWORD PTR __$ArrayPad$[ebp], eax
  00025	56		 push	 esi
  00026	57		 push	 edi
  00027	50		 push	 eax
  00028	8d 45 f4	 lea	 eax, DWORD PTR __$EHRec$[ebp]
  0002b	64 a3 00 00 00
	00		 mov	 DWORD PTR fs:0, eax
  00031	8b f1		 mov	 esi, ecx
  00033	8b 4d 08	 mov	 ecx, DWORD PTR _pWnd$[ebp]

; 1671 : 	DWORD dwID = pWnd->GetID();

  00036	ff 15 00 00 00
	00		 call	 DWORD PTR __imp_?GetID@ioWnd@@QBEKXZ
  0003c	8b f8		 mov	 edi, eax

; 1672 : 	if( COMPARE( dwID, ID_CARD_1, ID_CARD_21 + 1 ) )

  0003e	8d 47 ff	 lea	 eax, DWORD PTR [edi-1]
  00041	83 f8 14	 cmp	 eax, 20			; 00000014H
  00044	77 68		 ja	 SHORT $LN1@iwm_comman@2

; 1673 : 	{
; 1674 : 		if( m_dwState == STATE_CLICK )

  00046	81 be d8 01 00
	00 e9 03 00 00	 cmp	 DWORD PTR [esi+472], 1001 ; 000003e9H
  00050	75 5c		 jne	 SHORT $LN1@iwm_comman@2

; 1675 : 		{
; 1676 : 			if( cmd == IOBN_BTNUP )

  00052	83 7d 0c 11	 cmp	 DWORD PTR _cmd$[ebp], 17 ; 00000011H
  00056	75 56		 jne	 SHORT $LN1@iwm_comman@2

; 1677 : 			{
; 1678 : 				if( m_iCurrentTreasureCount > 0 )

  00058	83 be a0 01 00
	00 00		 cmp	 DWORD PTR [esi+416], 0
  0005f	7e 4d		 jle	 SHORT $LN1@iwm_comman@2

; 1679 : 				{
; 1680 : 					SP2Packet kPacket( CTPK_TREASURE_CARD_COMMAND );

  00061	68 62 02 00 00	 push	 610			; 00000262H
  00066	8d 8d d8 7f ff
	ff		 lea	 ecx, DWORD PTR _kPacket$539339[ebp]
  0006c	e8 00 00 00 00	 call	 ??0SP2Packet@@QAE@K@Z	; SP2Packet::SP2Packet
  00071	83 65 fc 00	 and	 DWORD PTR __$EHRec$[ebp+8], 0

; 1681 : 					kPacket << TREASURE_CARD_CMD_CLICK << dwID;

  00075	57		 push	 edi
  00076	6a 02		 push	 2
  00078	8d 8d d8 7f ff
	ff		 lea	 ecx, DWORD PTR _kPacket$539339[ebp]
  0007e	e8 00 00 00 00	 call	 ??6SP2Packet@@QAEAAV0@H@Z ; SP2Packet::operator<<
  00083	8b c8		 mov	 ecx, eax
  00085	e8 00 00 00 00	 call	 ??6SP2Packet@@QAEAAV0@K@Z ; SP2Packet::operator<<

; 1682 : 					TCPNetwork::SendToServer( kPacket );

  0008a	8d 85 d8 7f ff
	ff		 lea	 eax, DWORD PTR _kPacket$539339[ebp]
  00090	50		 push	 eax
  00091	e8 00 00 00 00	 call	 ?SendToServer@TCPNetwork@@YAXAAVSP2Packet@@@Z ; TCPNetwork::SendToServer

; 1683 : 					TCPNetwork::MouseBusy( true );

  00096	6a 01		 push	 1
  00098	e8 00 00 00 00	 call	 ?MouseBusy@TCPNetwork@@YAX_N@Z ; TCPNetwork::MouseBusy

; 1684 : 				}

  0009d	83 4d fc ff	 or	 DWORD PTR __$EHRec$[ebp+8], -1
  000a1	59		 pop	 ecx
  000a2	59		 pop	 ecx
  000a3	8d 8d d8 7f ff
	ff		 lea	 ecx, DWORD PTR _kPacket$539339[ebp]
  000a9	e8 00 00 00 00	 call	 ??1SP2Packet@@UAE@XZ	; SP2Packet::~SP2Packet
$LN1@iwm_comman@2:

; 1685 : 			}
; 1686 : 		}
; 1687 : 	}
; 1688 : }

  000ae	8b 4d f4	 mov	 ecx, DWORD PTR __$EHRec$[ebp]
  000b1	64 89 0d 00 00
	00 00		 mov	 DWORD PTR fs:0, ecx
  000b8	59		 pop	 ecx
  000b9	5f		 pop	 edi
  000ba	5e		 pop	 esi
  000bb	8b 4d f0	 mov	 ecx, DWORD PTR __$ArrayPad$[ebp]
  000be	33 cd		 xor	 ecx, ebp
  000c0	e8 00 00 00 00	 call	 @__security_check_cookie@4
  000c5	c9		 leave
  000c6	c2 0c 00	 ret	 12			; 0000000cH
_TEXT	ENDS
;	COMDAT text$x
text$x	SEGMENT
__unwindfunclet$?iwm_command@TotalResultTreasureCardWnd@@UAEXPAVioWnd@@HK@Z$0:
  00000	8d 8d d8 7f ff
	ff		 lea	 ecx, DWORD PTR _kPacket$539339[ebp]
  00006	e9 00 00 00 00	 jmp	 ??1SP2Packet@@UAE@XZ	; SP2Packet::~SP2Packet
__ehhandler$?iwm_command@TotalResultTreasureCardWnd@@UAEXPAVioWnd@@HK@Z:
  0000b	8b 54 24 08	 mov	 edx, DWORD PTR [esp+8]
  0000f	8d 42 0c	 lea	 eax, DWORD PTR [edx+12]
  00012	8b 8a d8 7f ff
	ff		 mov	 ecx, DWORD PTR [edx-32808]
  00018	33 c8		 xor	 ecx, eax
  0001a	e8 00 00 00 00	 call	 @__security_check_cookie@4
  0001f	8b 4a fc	 mov	 ecx, DWORD PTR [edx-4]
  00022	33 c8		 xor	 ecx, eax
  00024	e8 00 00 00 00	 call	 @__security_check_cookie@4
  00029	b8 00 00 00 00	 mov	 eax, OFFSET __ehfuncinfo$?iwm_command@TotalResultTreasureCardWnd@@UAEXPAVioWnd@@HK@Z
  0002e	e9 00 00 00 00	 jmp	 ___CxxFrameHandler3
text$x	ENDS
?iwm_command@TotalResultTreasureCardWnd@@UAEXPAVioWnd@@HK@Z ENDP ; TotalResultTreasureCardWnd::iwm_command
PUBLIC	?IsPresentAlarmBlock@TotalResultTreasureCardWnd@@QAE_NXZ ; TotalResultTreasureCardWnd::IsPresentAlarmBlock
; Function compile flags: /Ogsp
;	COMDAT ?IsPresentAlarmBlock@TotalResultTreasureCardWnd@@QAE_NXZ
_TEXT	SEGMENT
?IsPresentAlarmBlock@TotalResultTreasureCardWnd@@QAE_NXZ PROC ; TotalResultTreasureCardWnd::IsPresentAlarmBlock, COMDAT
; _this$ = ecx

; 1704 : 	if( !m_bPresentAlarmBlock ) 

  00000	80 b9 98 01 00
	00 00		 cmp	 BYTE PTR [ecx+408], 0

; 1705 : 		return false;

  00007	74 16		 je	 SHORT $LN5@IsPresentA

; 1706 : 	
; 1707 : 	// 보물카드를 뒤집지 않았으면 블럭
; 1708 : 	if( m_dwState != STATE_CLEAR )

  00009	81 b9 d8 01 00
	00 ec 03 00 00	 cmp	 DWORD PTR [ecx+472], 1004 ; 000003ecH
  00013	74 03		 je	 SHORT $LN1@IsPresentA

; 1709 : 		return true;

  00015	b0 01		 mov	 al, 1

; 1713 : }

  00017	c3		 ret	 0
$LN1@IsPresentA:

; 1710 : 
; 1711 : 	m_bPresentAlarmBlock = false;

  00018	c6 81 98 01 00
	00 00		 mov	 BYTE PTR [ecx+408], 0
$LN5@IsPresentA:

; 1712 : 	return m_bPresentAlarmBlock;

  0001f	32 c0		 xor	 al, al

; 1713 : }

  00021	c3		 ret	 0
?IsPresentAlarmBlock@TotalResultTreasureCardWnd@@QAE_NXZ ENDP ; TotalResultTreasureCardWnd::IsPresentAlarmBlock
_TEXT	ENDS
PUBLIC	?SetStartTreasure@TotalResultTreasureCardWnd@@QAEXH@Z ; TotalResultTreasureCardWnd::SetStartTreasure
; Function compile flags: /Ogsp
;	COMDAT ?SetStartTreasure@TotalResultTreasureCardWnd@@QAEXH@Z
_TEXT	SEGMENT
_iTreasureCount$ = 8					; size = 4
?SetStartTreasure@TotalResultTreasureCardWnd@@QAEXH@Z PROC ; TotalResultTreasureCardWnd::SetStartTreasure, COMDAT
; _this$ = ecx

; 1716 : {

  00000	55		 push	 ebp
  00001	8b ec		 mov	 ebp, esp

; 1717 : 	m_iStartTreasureCount = iTreasureCount;

  00003	8b 45 08	 mov	 eax, DWORD PTR _iTreasureCount$[ebp]
  00006	56		 push	 esi
  00007	8b f1		 mov	 esi, ecx
  00009	89 86 9c 01 00
	00		 mov	 DWORD PTR [esi+412], eax

; 1718 : 	m_iCurrentTreasureCount = iTreasureCount;

  0000f	89 86 a0 01 00
	00		 mov	 DWORD PTR [esi+416], eax

; 1719 : 
; 1720 : 	m_dwState        = STATE_START;

  00015	c7 86 d8 01 00
	00 e8 03 00 00	 mov	 DWORD PTR [esi+472], 1000 ; 000003e8H

; 1721 : 	m_dwCurrentTime  = FRAMEGETTIME();

  0001f	ff 15 00 00 00
	00		 call	 DWORD PTR __imp_?GetSingleton@ioFrameTimer@@SAAAV1@XZ
  00025	8b c8		 mov	 ecx, eax
  00027	ff 15 00 00 00
	00		 call	 DWORD PTR __imp_?GetLoopSec@ioFrameTimer@@QBEKXZ

; 1722 : 
; 1723 : 	m_iCurrentStateXPos = 400;
; 1724 : 	m_iCurrentStateYPos = 0;
; 1725 : 	m_fCurrentStateRate = 0.0f;

  0002d	0f 57 c0	 xorps	 xmm0, xmm0
  00030	83 a6 f0 01 00
	00 00		 and	 DWORD PTR [esi+496], 0
  00037	89 86 dc 01 00
	00		 mov	 DWORD PTR [esi+476], eax
  0003d	c7 86 ec 01 00
	00 90 01 00 00	 mov	 DWORD PTR [esi+492], 400 ; 00000190H
  00047	f3 0f 11 86 f4
	01 00 00	 movss	 DWORD PTR [esi+500], xmm0
  0004f	5e		 pop	 esi

; 1726 : }

  00050	5d		 pop	 ebp
  00051	c2 04 00	 ret	 4
?SetStartTreasure@TotalResultTreasureCardWnd@@QAEXH@Z ENDP ; TotalResultTreasureCardWnd::SetStartTreasure
_TEXT	ENDS
PUBLIC	?SetPlayStage@TotalResultTreasureCardWnd@@QAEXPAVioPlayStage@@@Z ; TotalResultTreasureCardWnd::SetPlayStage
; Function compile flags: /Ogsp
;	COMDAT ?SetPlayStage@TotalResultTreasureCardWnd@@QAEXPAVioPlayStage@@@Z
_TEXT	SEGMENT
_pPlayStage$ = 8					; size = 4
?SetPlayStage@TotalResultTreasureCardWnd@@QAEXPAVioPlayStage@@@Z PROC ; TotalResultTreasureCardWnd::SetPlayStage, COMDAT
; _this$ = ecx

; 1729 : {

  00000	55		 push	 ebp
  00001	8b ec		 mov	 ebp, esp

; 1730 : 	m_pPlayStage = pPlayStage;

  00003	8b 45 08	 mov	 eax, DWORD PTR _pPlayStage$[ebp]
  00006	89 81 84 01 00
	00		 mov	 DWORD PTR [ecx+388], eax

; 1731 : }

  0000c	5d		 pop	 ebp
  0000d	c2 04 00	 ret	 4
?SetPlayStage@TotalResultTreasureCardWnd@@QAEXPAVioPlayStage@@@Z ENDP ; TotalResultTreasureCardWnd::SetPlayStage
_TEXT	ENDS
PUBLIC	?SetAllCardScreenStart@TotalResultTreasureCardWnd@@QAEXXZ ; TotalResultTreasureCardWnd::SetAllCardScreenStart
; Function compile flags: /Ogsp
;	COMDAT ?SetAllCardScreenStart@TotalResultTreasureCardWnd@@QAEXXZ
_TEXT	SEGMENT
?SetAllCardScreenStart@TotalResultTreasureCardWnd@@QAEXXZ PROC ; TotalResultTreasureCardWnd::SetAllCardScreenStart, COMDAT
; _this$ = ecx

; 1739 : {

  00000	56		 push	 esi

; 1740 : 	for(int i = ID_CARD_1;i < ID_CARD_21 + 1;i++)

  00001	33 f6		 xor	 esi, esi
  00003	57		 push	 edi
  00004	8b f9		 mov	 edi, ecx
  00006	46		 inc	 esi
$LL4@SetAllCard:

; 1741 : 	{
; 1742 : 		TotalResultTreasureCardBtn *pCardBtn = dynamic_cast< TotalResultTreasureCardBtn * >( FindChildWnd( i ) );

  00007	6a 00		 push	 0
  00009	68 00 00 00 00	 push	 OFFSET ??_R0?AVTotalResultTreasureCardBtn@@@8
  0000e	68 00 00 00 00	 push	 OFFSET ??_R0?AVioWnd@@@8
  00013	6a 00		 push	 0
  00015	56		 push	 esi
  00016	8b cf		 mov	 ecx, edi
  00018	ff 15 00 00 00
	00		 call	 DWORD PTR __imp_?FindChildWnd@ioWnd@@QAEPAV1@K@Z
  0001e	50		 push	 eax
  0001f	e8 00 00 00 00	 call	 ___RTDynamicCast
  00024	83 c4 14	 add	 esp, 20			; 00000014H

; 1743 : 		if( !pCardBtn ) continue;

  00027	85 c0		 test	 eax, eax
  00029	74 07		 je	 SHORT $LN3@SetAllCard

; 1744 : 
; 1745 : 		pCardBtn->SetScreenStart();

  0002b	8b c8		 mov	 ecx, eax
  0002d	e8 00 00 00 00	 call	 ?SetScreenStart@TotalResultTreasureCardBtn@@QAEXXZ ; TotalResultTreasureCardBtn::SetScreenStart
$LN3@SetAllCard:

; 1740 : 	for(int i = ID_CARD_1;i < ID_CARD_21 + 1;i++)

  00032	46		 inc	 esi
  00033	83 fe 16	 cmp	 esi, 22			; 00000016H
  00036	7c cf		 jl	 SHORT $LL4@SetAllCard

; 1746 : 	}
; 1747 : }

  00038	5f		 pop	 edi
  00039	5e		 pop	 esi
  0003a	c3		 ret	 0
?SetAllCardScreenStart@TotalResultTreasureCardWnd@@QAEXXZ ENDP ; TotalResultTreasureCardWnd::SetAllCardScreenStart
_TEXT	ENDS
PUBLIC	?SetAllCardActive@TotalResultTreasureCardWnd@@QAEX_N@Z ; TotalResultTreasureCardWnd::SetAllCardActive
; Function compile flags: /Ogsp
;	COMDAT ?SetAllCardActive@TotalResultTreasureCardWnd@@QAEX_N@Z
_TEXT	SEGMENT
_bActive$ = 8						; size = 1
?SetAllCardActive@TotalResultTreasureCardWnd@@QAEX_N@Z PROC ; TotalResultTreasureCardWnd::SetAllCardActive, COMDAT
; _this$ = ecx

; 1750 : {

  00000	55		 push	 ebp
  00001	8b ec		 mov	 ebp, esp
  00003	56		 push	 esi

; 1751 : 	for(int i = ID_CARD_1;i < ID_CARD_21 + 1;i++)

  00004	33 f6		 xor	 esi, esi
  00006	57		 push	 edi
  00007	8b f9		 mov	 edi, ecx
  00009	46		 inc	 esi
$LL6@SetAllCard@2:

; 1752 : 	{
; 1753 : 		TotalResultTreasureCardBtn *pCardBtn = dynamic_cast< TotalResultTreasureCardBtn * >( FindChildWnd( i ) );

  0000a	6a 00		 push	 0
  0000c	68 00 00 00 00	 push	 OFFSET ??_R0?AVTotalResultTreasureCardBtn@@@8
  00011	68 00 00 00 00	 push	 OFFSET ??_R0?AVioWnd@@@8
  00016	6a 00		 push	 0
  00018	56		 push	 esi
  00019	8b cf		 mov	 ecx, edi
  0001b	ff 15 00 00 00
	00		 call	 DWORD PTR __imp_?FindChildWnd@ioWnd@@QAEPAV1@K@Z
  00021	50		 push	 eax
  00022	e8 00 00 00 00	 call	 ___RTDynamicCast
  00027	8b c8		 mov	 ecx, eax
  00029	83 c4 14	 add	 esp, 20			; 00000014H

; 1754 : 		if( !pCardBtn ) continue;

  0002c	85 c9		 test	 ecx, ecx
  0002e	74 10		 je	 SHORT $LN5@SetAllCard@2

; 1755 : 
; 1756 : 		if( bActive )

  00030	80 7d 08 00	 cmp	 BYTE PTR _bActive$[ebp], 0

; 1757 : 			pCardBtn->SetActive();

  00034	8b 01		 mov	 eax, DWORD PTR [ecx]
  00036	74 05		 je	 SHORT $LN2@SetAllCard@2
  00038	ff 50 20	 call	 DWORD PTR [eax+32]

; 1758 : 		else

  0003b	eb 03		 jmp	 SHORT $LN5@SetAllCard@2
$LN2@SetAllCard@2:

; 1759 : 			pCardBtn->SetInActive();

  0003d	ff 50 24	 call	 DWORD PTR [eax+36]
$LN5@SetAllCard@2:

; 1751 : 	for(int i = ID_CARD_1;i < ID_CARD_21 + 1;i++)

  00040	46		 inc	 esi
  00041	83 fe 16	 cmp	 esi, 22			; 00000016H
  00044	7c c4		 jl	 SHORT $LL6@SetAllCard@2
  00046	5f		 pop	 edi
  00047	5e		 pop	 esi

; 1760 : 	}
; 1761 : }

  00048	5d		 pop	 ebp
  00049	c2 04 00	 ret	 4
?SetAllCardActive@TotalResultTreasureCardWnd@@QAEX_N@Z ENDP ; TotalResultTreasureCardWnd::SetAllCardActive
_TEXT	ENDS
PUBLIC	?GetEmptyCardCount@TotalResultTreasureCardWnd@@IAEHXZ ; TotalResultTreasureCardWnd::GetEmptyCardCount
; Function compile flags: /Ogsp
;	COMDAT ?GetEmptyCardCount@TotalResultTreasureCardWnd@@IAEHXZ
_TEXT	SEGMENT
_iReturn$ = -4						; size = 4
?GetEmptyCardCount@TotalResultTreasureCardWnd@@IAEHXZ PROC ; TotalResultTreasureCardWnd::GetEmptyCardCount, COMDAT
; _this$ = ecx

; 1868 : {

  00000	55		 push	 ebp
  00001	8b ec		 mov	 ebp, esp
  00003	51		 push	 ecx

; 1869 : 	int iReturn = 0;

  00004	83 65 fc 00	 and	 DWORD PTR _iReturn$[ebp], 0
  00008	53		 push	 ebx
  00009	57		 push	 edi

; 1870 : 	for(int i = ID_CARD_1;i < ID_CARD_21 + 1;i++)

  0000a	33 ff		 xor	 edi, edi
  0000c	8b d9		 mov	 ebx, ecx
  0000e	47		 inc	 edi
$LL5@GetEmptyCa:

; 1871 : 	{
; 1872 : 		TotalResultTreasureCardBtn *pCardBtn = dynamic_cast< TotalResultTreasureCardBtn * >( FindChildWnd( i ) );

  0000f	6a 00		 push	 0
  00011	68 00 00 00 00	 push	 OFFSET ??_R0?AVTotalResultTreasureCardBtn@@@8
  00016	68 00 00 00 00	 push	 OFFSET ??_R0?AVioWnd@@@8
  0001b	6a 00		 push	 0
  0001d	57		 push	 edi
  0001e	8b cb		 mov	 ecx, ebx
  00020	ff 15 00 00 00
	00		 call	 DWORD PTR __imp_?FindChildWnd@ioWnd@@QAEPAV1@K@Z
  00026	50		 push	 eax
  00027	e8 00 00 00 00	 call	 ___RTDynamicCast
  0002c	83 c4 14	 add	 esp, 20			; 00000014H

; 1873 : 		if( !pCardBtn ) continue;

  0002f	85 c0		 test	 eax, eax
  00031	74 0d		 je	 SHORT $LN4@GetEmptyCa

; 1874 : 		if( !pCardBtn->IsEmptyCard() ) continue;

  00033	66 83 b8 20 02
	00 00 00	 cmp	 WORD PTR [eax+544], 0
  0003b	75 03		 jne	 SHORT $LN4@GetEmptyCa

; 1875 : 
; 1876 : 		iReturn++;

  0003d	ff 45 fc	 inc	 DWORD PTR _iReturn$[ebp]
$LN4@GetEmptyCa:

; 1870 : 	for(int i = ID_CARD_1;i < ID_CARD_21 + 1;i++)

  00040	47		 inc	 edi
  00041	83 ff 16	 cmp	 edi, 22			; 00000016H
  00044	7c c9		 jl	 SHORT $LL5@GetEmptyCa

; 1877 : 	}
; 1878 : 	return iReturn;

  00046	8b 45 fc	 mov	 eax, DWORD PTR _iReturn$[ebp]
  00049	5f		 pop	 edi
  0004a	5b		 pop	 ebx

; 1879 : }

  0004b	c9		 leave
  0004c	c3		 ret	 0
?GetEmptyCardCount@TotalResultTreasureCardWnd@@IAEHXZ ENDP ; TotalResultTreasureCardWnd::GetEmptyCardCount
_TEXT	ENDS
PUBLIC	?ProcessRandomCard@TotalResultTreasureCardWnd@@IAEX_N@Z ; TotalResultTreasureCardWnd::ProcessRandomCard
EXTRN	?TreasureCardRandom@ioPlayStage@@QAEXAAFAAH1@Z:PROC ; ioPlayStage::TreasureCardRandom
; Function compile flags: /Ogsp
;	COMDAT ?ProcessRandomCard@TotalResultTreasureCardWnd@@IAEX_N@Z
_TEXT	SEGMENT
_iPresentType$539480 = -16				; size = 2
_iPresentValue1$539481 = -12				; size = 4
_iPresentValue2$539482 = -8				; size = 4
_i$539472 = -4						; size = 4
_bOneCard$ = 8						; size = 1
?ProcessRandomCard@TotalResultTreasureCardWnd@@IAEX_N@Z PROC ; TotalResultTreasureCardWnd::ProcessRandomCard, COMDAT
; _this$ = ecx

; 1894 : {

  00000	55		 push	 ebp
  00001	8b ec		 mov	 ebp, esp
  00003	83 ec 10	 sub	 esp, 16			; 00000010H
  00006	53		 push	 ebx
  00007	57		 push	 edi
  00008	8b f9		 mov	 edi, ecx

; 1895 : 	if( m_pPlayStage )

  0000a	33 db		 xor	 ebx, ebx
  0000c	39 9f 84 01 00
	00		 cmp	 DWORD PTR [edi+388], ebx
  00012	74 74		 je	 SHORT $LN13@ProcessRan

; 1896 : 	{
; 1897 : 		for(int i = ID_CARD_1;i < ID_CARD_21 + 1;i++)

  00014	c7 45 fc 01 00
	00 00		 mov	 DWORD PTR _i$539472[ebp], 1
  0001b	56		 push	 esi
$LL15@ProcessRan:

; 1898 : 		{
; 1899 : 			TotalResultTreasureCardBtn *pCardBtn = dynamic_cast< TotalResultTreasureCardBtn * >( FindChildWnd( i ) );

  0001c	53		 push	 ebx
  0001d	68 00 00 00 00	 push	 OFFSET ??_R0?AVTotalResultTreasureCardBtn@@@8
  00022	68 00 00 00 00	 push	 OFFSET ??_R0?AVioWnd@@@8
  00027	53		 push	 ebx
  00028	ff 75 fc	 push	 DWORD PTR _i$539472[ebp]
  0002b	8b cf		 mov	 ecx, edi
  0002d	ff 15 00 00 00
	00		 call	 DWORD PTR __imp_?FindChildWnd@ioWnd@@QAEPAV1@K@Z
  00033	50		 push	 eax
  00034	e8 00 00 00 00	 call	 ___RTDynamicCast
  00039	8b f0		 mov	 esi, eax
  0003b	83 c4 14	 add	 esp, 20			; 00000014H

; 1900 : 			if( !pCardBtn ) continue;

  0003e	3b f3		 cmp	 esi, ebx
  00040	74 3c		 je	 SHORT $LN5@ProcessRan

; 1901 : 			if( !pCardBtn->IsEmptyCard() ) continue;

  00042	66 39 9e 20 02
	00 00		 cmp	 WORD PTR [esi+544], bx
  00049	75 33		 jne	 SHORT $LN5@ProcessRan

; 1902 : 
; 1903 : 			short iPresentType;
; 1904 : 			int iPresentValue1, iPresentValue2;
; 1905 : 			m_pPlayStage->TreasureCardRandom( iPresentType, iPresentValue1, iPresentValue2 );

  0004b	8b 8f 84 01 00
	00		 mov	 ecx, DWORD PTR [edi+388]
  00051	8d 45 f8	 lea	 eax, DWORD PTR _iPresentValue2$539482[ebp]
  00054	50		 push	 eax
  00055	8d 45 f4	 lea	 eax, DWORD PTR _iPresentValue1$539481[ebp]
  00058	50		 push	 eax
  00059	8d 45 f0	 lea	 eax, DWORD PTR _iPresentType$539480[ebp]
  0005c	50		 push	 eax
  0005d	e8 00 00 00 00	 call	 ?TreasureCardRandom@ioPlayStage@@QAEXAAFAAH1@Z ; ioPlayStage::TreasureCardRandom

; 1906 : 			pCardBtn->SetPresent( iPresentType, iPresentValue1, iPresentValue2 );

  00062	ff 75 f8	 push	 DWORD PTR _iPresentValue2$539482[ebp]
  00065	8b ce		 mov	 ecx, esi
  00067	ff 75 f4	 push	 DWORD PTR _iPresentValue1$539481[ebp]
  0006a	ff 75 f0	 push	 DWORD PTR _iPresentType$539480[ebp]
  0006d	e8 00 00 00 00	 call	 ?SetPresent@TotalResultTreasureCardBtn@@QAEXFHH@Z ; TotalResultTreasureCardBtn::SetPresent

; 1907 : 			pCardBtn->SetInActive();

  00072	8b 06		 mov	 eax, DWORD PTR [esi]
  00074	8b ce		 mov	 ecx, esi
  00076	ff 50 24	 call	 DWORD PTR [eax+36]

; 1908 : 			if( bOneCard )

  00079	38 5d 08	 cmp	 BYTE PTR _bOneCard$[ebp], bl
  0007c	75 09		 jne	 SHORT $LN16@ProcessRan
$LN5@ProcessRan:

; 1896 : 	{
; 1897 : 		for(int i = ID_CARD_1;i < ID_CARD_21 + 1;i++)

  0007e	ff 45 fc	 inc	 DWORD PTR _i$539472[ebp]
  00081	83 7d fc 16	 cmp	 DWORD PTR _i$539472[ebp], 22 ; 00000016H
  00085	7c 95		 jl	 SHORT $LL15@ProcessRan
$LN16@ProcessRan:
  00087	5e		 pop	 esi
$LN13@ProcessRan:
  00088	5f		 pop	 edi
  00089	5b		 pop	 ebx

; 1909 : 				break;
; 1910 : 		}
; 1911 : 	}
; 1912 : }

  0008a	c9		 leave
  0008b	c2 04 00	 ret	 4
?ProcessRandomCard@TotalResultTreasureCardWnd@@IAEX_N@Z ENDP ; TotalResultTreasureCardWnd::ProcessRandomCard
_TEXT	ENDS
PUBLIC	??_C@_0CI@IEJHEFI@TotalResultTreasureCardWnd?3?3Send@ ; `string'
PUBLIC	??_C@_00CNPNBAHC@?$AA@				; `string'
PUBLIC	__$ArrayPad$
PUBLIC	?SendTimeOut@TotalResultTreasureCardWnd@@IAEXXZ	; TotalResultTreasureCardWnd::SendTimeOut
EXTRN	__imp_?SetTitleText@ioWnd@@QAEXPBD0H@Z:PROC
EXTRN	__imp_?GetString@ioStringManager@@QAEPADPBD0HW4FileNamePrefix@1@@Z:PROC
EXTRN	__imp_?GetSingleton@ioStringManager@@SAAAV1@XZ:PROC
;	COMDAT ??_C@_0CI@IEJHEFI@TotalResultTreasureCardWnd?3?3Send@
CONST	SEGMENT
??_C@_0CI@IEJHEFI@TotalResultTreasureCardWnd?3?3Send@ DB 'TotalResultTrea'
	DB	'sureCardWnd::SendTimeOut', 00H		; `string'
CONST	ENDS
;	COMDAT ??_C@_00CNPNBAHC@?$AA@
CONST	SEGMENT
??_C@_00CNPNBAHC@?$AA@ DB 00H				; `string'
CONST	ENDS
;	COMDAT xdata$x
xdata$x	SEGMENT
__unwindtable$?SendTimeOut@TotalResultTreasureCardWnd@@IAEXXZ DD 0ffffffffH
	DD	FLAT:__unwindfunclet$?SendTimeOut@TotalResultTreasureCardWnd@@IAEXXZ$0
__ehfuncinfo$?SendTimeOut@TotalResultTreasureCardWnd@@IAEXXZ DD 019930522H
	DD	01H
	DD	FLAT:__unwindtable$?SendTimeOut@TotalResultTreasureCardWnd@@IAEXXZ
	DD	2 DUP(00H)
	DD	2 DUP(00H)
	DD	00H
	DD	01H
; Function compile flags: /Ogsp
xdata$x	ENDS
;	COMDAT ?SendTimeOut@TotalResultTreasureCardWnd@@IAEXXZ
_TEXT	SEGMENT
_kPacket$ = -32808					; size = 32792
__$ArrayPad$ = -16					; size = 4
__$EHRec$ = -12						; size = 12
?SendTimeOut@TotalResultTreasureCardWnd@@IAEXXZ PROC	; TotalResultTreasureCardWnd::SendTimeOut, COMDAT
; _this$ = ecx

; 1915 : {

  00000	55		 push	 ebp
  00001	8b ec		 mov	 ebp, esp
  00003	6a ff		 push	 -1
  00005	68 00 00 00 00	 push	 __ehhandler$?SendTimeOut@TotalResultTreasureCardWnd@@IAEXXZ
  0000a	64 a1 00 00 00
	00		 mov	 eax, DWORD PTR fs:0
  00010	50		 push	 eax
  00011	b8 1c 80 00 00	 mov	 eax, 32796		; 0000801cH
  00016	e8 00 00 00 00	 call	 __chkstk
  0001b	a1 00 00 00 00	 mov	 eax, DWORD PTR ___security_cookie
  00020	33 c5		 xor	 eax, ebp
  00022	89 45 f0	 mov	 DWORD PTR __$ArrayPad$[ebp], eax
  00025	56		 push	 esi
  00026	50		 push	 eax
  00027	8d 45 f4	 lea	 eax, DWORD PTR __$EHRec$[ebp]
  0002a	64 a3 00 00 00
	00		 mov	 DWORD PTR fs:0, eax
  00030	8b f1		 mov	 esi, ecx

; 1916 : 	m_dwState       = STATE_DELAY;

  00032	c7 86 d8 01 00
	00 ea 03 00 00	 mov	 DWORD PTR [esi+472], 1002 ; 000003eaH

; 1917 : 	m_dwCurrentTime = FRAMEGETTIME();

  0003c	ff 15 00 00 00
	00		 call	 DWORD PTR __imp_?GetSingleton@ioFrameTimer@@SAAAV1@XZ
  00042	8b c8		 mov	 ecx, eax
  00044	ff 15 00 00 00
	00		 call	 DWORD PTR __imp_?GetLoopSec@ioFrameTimer@@QBEKXZ

; 1918 : 
; 1919 : 	SetTitleText( STR(2) );

  0004a	6a 00		 push	 0
  0004c	89 86 dc 01 00
	00		 mov	 DWORD PTR [esi+476], eax
  00052	b8 00 00 00 00	 mov	 eax, OFFSET ??_C@_00CNPNBAHC@?$AA@
  00057	50		 push	 eax
  00058	6a 00		 push	 0
  0005a	6a 02		 push	 2
  0005c	50		 push	 eax
  0005d	68 00 00 00 00	 push	 OFFSET ??_C@_0CI@IEJHEFI@TotalResultTreasureCardWnd?3?3Send@
  00062	ff 15 00 00 00
	00		 call	 DWORD PTR __imp_?GetSingleton@ioStringManager@@SAAAV1@XZ
  00068	8b c8		 mov	 ecx, eax
  0006a	ff 15 00 00 00
	00		 call	 DWORD PTR __imp_?GetString@ioStringManager@@QAEPADPBD0HW4FileNamePrefix@1@@Z
  00070	50		 push	 eax
  00071	8b ce		 mov	 ecx, esi
  00073	ff 15 00 00 00
	00		 call	 DWORD PTR __imp_?SetTitleText@ioWnd@@QAEXPBD0H@Z

; 1920 : 	SP2Packet kPacket( CTPK_TREASURE_CARD_COMMAND );

  00079	68 62 02 00 00	 push	 610			; 00000262H
  0007e	8d 8d d8 7f ff
	ff		 lea	 ecx, DWORD PTR _kPacket$[ebp]
  00084	e8 00 00 00 00	 call	 ??0SP2Packet@@QAE@K@Z	; SP2Packet::SP2Packet
  00089	83 65 fc 00	 and	 DWORD PTR __$EHRec$[ebp+8], 0

; 1921 : 	kPacket << TREASURE_CARD_CMD_TIME_OUT;

  0008d	6a 01		 push	 1
  0008f	8d 8d d8 7f ff
	ff		 lea	 ecx, DWORD PTR _kPacket$[ebp]
  00095	e8 00 00 00 00	 call	 ??6SP2Packet@@QAEAAV0@H@Z ; SP2Packet::operator<<

; 1922 : 	TCPNetwork::SendToServer( kPacket );

  0009a	8d 85 d8 7f ff
	ff		 lea	 eax, DWORD PTR _kPacket$[ebp]
  000a0	50		 push	 eax
  000a1	e8 00 00 00 00	 call	 ?SendToServer@TCPNetwork@@YAXAAVSP2Packet@@@Z ; TCPNetwork::SendToServer

; 1923 : }

  000a6	83 4d fc ff	 or	 DWORD PTR __$EHRec$[ebp+8], -1
  000aa	59		 pop	 ecx
  000ab	8d 8d d8 7f ff
	ff		 lea	 ecx, DWORD PTR _kPacket$[ebp]
  000b1	e8 00 00 00 00	 call	 ??1SP2Packet@@UAE@XZ	; SP2Packet::~SP2Packet
  000b6	8b 4d f4	 mov	 ecx, DWORD PTR __$EHRec$[ebp]
  000b9	64 89 0d 00 00
	00 00		 mov	 DWORD PTR fs:0, ecx
  000c0	59		 pop	 ecx
  000c1	5e		 pop	 esi
  000c2	8b 4d f0	 mov	 ecx, DWORD PTR __$ArrayPad$[ebp]
  000c5	33 cd		 xor	 ecx, ebp
  000c7	e8 00 00 00 00	 call	 @__security_check_cookie@4
  000cc	c9		 leave
  000cd	c3		 ret	 0
_TEXT	ENDS
;	COMDAT text$x
text$x	SEGMENT
__unwindfunclet$?SendTimeOut@TotalResultTreasureCardWnd@@IAEXXZ$0:
  00000	8d 8d d8 7f ff
	ff		 lea	 ecx, DWORD PTR _kPacket$[ebp]
  00006	e9 00 00 00 00	 jmp	 ??1SP2Packet@@UAE@XZ	; SP2Packet::~SP2Packet
__ehhandler$?SendTimeOut@TotalResultTreasureCardWnd@@IAEXXZ:
  0000b	8b 54 24 08	 mov	 edx, DWORD PTR [esp+8]
  0000f	8d 42 0c	 lea	 eax, DWORD PTR [edx+12]
  00012	8b 8a dc 7f ff
	ff		 mov	 ecx, DWORD PTR [edx-32804]
  00018	33 c8		 xor	 ecx, eax
  0001a	e8 00 00 00 00	 call	 @__security_check_cookie@4
  0001f	8b 4a fc	 mov	 ecx, DWORD PTR [edx-4]
  00022	33 c8		 xor	 ecx, eax
  00024	e8 00 00 00 00	 call	 @__security_check_cookie@4
  00029	b8 00 00 00 00	 mov	 eax, OFFSET __ehfuncinfo$?SendTimeOut@TotalResultTreasureCardWnd@@IAEXXZ
  0002e	e9 00 00 00 00	 jmp	 ___CxxFrameHandler3
text$x	ENDS
?SendTimeOut@TotalResultTreasureCardWnd@@IAEXXZ ENDP	; TotalResultTreasureCardWnd::SendTimeOut
PUBLIC	?OnRender@TotalResultTreasureCardWnd@@MAEXXZ	; TotalResultTreasureCardWnd::OnRender
EXTRN	__imp_?OnRender@ioWnd@@MAEXXZ:PROC
; Function compile flags: /Ogsp
;	COMDAT ?OnRender@TotalResultTreasureCardWnd@@MAEXXZ
_TEXT	SEGMENT
?OnRender@TotalResultTreasureCardWnd@@MAEXXZ PROC	; TotalResultTreasureCardWnd::OnRender, COMDAT
; _this$ = ecx

; 2052 : 	ioWnd::OnRender();

  00000	ff 25 00 00 00
	00		 jmp	 DWORD PTR __imp_?OnRender@ioWnd@@MAEXXZ
?OnRender@TotalResultTreasureCardWnd@@MAEXXZ ENDP	; TotalResultTreasureCardWnd::OnRender
_TEXT	ENDS
PUBLIC	__real@406fe00000000000
PUBLIC	?OnRenderStartMent@TotalResultTreasureCardWnd@@IAEXHH@Z ; TotalResultTreasureCardWnd::OnRenderStartMent
;	COMDAT __real@406fe00000000000
CONST	SEGMENT
__real@406fe00000000000 DQ 0406fe00000000000r	; 255
; Function compile flags: /Ogsp
CONST	ENDS
;	COMDAT ?OnRenderStartMent@TotalResultTreasureCardWnd@@IAEXHH@Z
_TEXT	SEGMENT
tv360 = 8						; size = 4
_iXPos$ = 8						; size = 4
tv375 = 12						; size = 4
_iYPos$ = 12						; size = 4
?OnRenderStartMent@TotalResultTreasureCardWnd@@IAEXHH@Z PROC ; TotalResultTreasureCardWnd::OnRenderStartMent, COMDAT
; _this$ = ecx

; 2075 : {

  00000	55		 push	 ebp
  00001	8b ec		 mov	 ebp, esp
  00003	56		 push	 esi
  00004	8b f1		 mov	 esi, ecx

; 2076 : 	if( m_dwState != STATE_START ) return;

  00006	81 be d8 01 00
	00 e8 03 00 00	 cmp	 DWORD PTR [esi+472], 1000 ; 000003e8H
  00010	0f 85 33 02 00
	00		 jne	 $LN1@OnRenderSt

; 2077 : 
; 2078 : 	iXPos += m_iCurrentStateXPos;

  00016	53		 push	 ebx
  00017	8b 5d 08	 mov	 ebx, DWORD PTR _iXPos$[ebp]
  0001a	03 9e ec 01 00
	00		 add	 ebx, DWORD PTR [esi+492]
  00020	57		 push	 edi

; 2079 : 
; 2080 : 	if( m_iStartTreasureCount == 0 )

  00021	33 ff		 xor	 edi, edi
  00023	39 be 9c 01 00
	00		 cmp	 DWORD PTR [esi+412], edi
  00029	0f 85 c7 00 00
	00		 jne	 $LN6@OnRenderSt

; 2081 : 	{
; 2082 : 		if( !m_pNoneCardText1 || !m_pNoneCardText2 ) return;

  0002f	39 be 6c 01 00
	00		 cmp	 DWORD PTR [esi+364], edi
  00035	0f 84 0c 02 00
	00		 je	 $LN10@OnRenderSt
  0003b	39 be 70 01 00
	00		 cmp	 DWORD PTR [esi+368], edi
  00041	0f 84 00 02 00
	00		 je	 $LN10@OnRenderSt

; 2083 : 
; 2084 : 		m_pNoneCardText1->SetAlpha( MAX_ALPHA_RATE * m_fCurrentStateRate );

  00047	f3 0f 10 86 f4
	01 00 00	 movss	 xmm0, DWORD PTR [esi+500]
  0004f	8b 8e 6c 01 00
	00		 mov	 ecx, DWORD PTR [esi+364]
  00055	8b 01		 mov	 eax, DWORD PTR [ecx]
  00057	0f 5a c0	 cvtps2pd xmm0, xmm0
  0005a	f2 0f 59 05 00
	00 00 00	 mulsd	 xmm0, QWORD PTR __real@406fe00000000000
  00062	f2 0f 2c d0	 cvttsd2si edx, xmm0
  00066	0f b6 d2	 movzx	 edx, dl
  00069	52		 push	 edx
  0006a	ff 50 30	 call	 DWORD PTR [eax+48]

; 2085 : 		m_pNoneCardText1->Render( iXPos + 85, iYPos + 141 );

  0006d	8b 8e 6c 01 00
	00		 mov	 ecx, DWORD PTR [esi+364]
  00073	8b 01		 mov	 eax, DWORD PTR [ecx]
  00075	57		 push	 edi
  00076	57		 push	 edi
  00077	57		 push	 edi
  00078	83 c3 55	 add	 ebx, 85			; 00000055H
  0007b	0f 57 c0	 xorps	 xmm0, xmm0
  0007e	f3 0f 2a c3	 cvtsi2ss xmm0, ebx
  00082	8b 5d 0c	 mov	 ebx, DWORD PTR _iYPos$[ebp]
  00085	57		 push	 edi
  00086	51		 push	 ecx
  00087	8d 93 8d 00 00
	00		 lea	 edx, DWORD PTR [ebx+141]
  0008d	51		 push	 ecx
  0008e	0f 57 c9	 xorps	 xmm1, xmm1
  00091	f3 0f 2a ca	 cvtsi2ss xmm1, edx
  00095	f3 0f 11 4c 24
	04		 movss	 DWORD PTR [esp+4], xmm1
  0009b	f3 0f 11 45 08	 movss	 DWORD PTR tv360[ebp], xmm0
  000a0	f3 0f 11 04 24	 movss	 DWORD PTR [esp], xmm0
  000a5	ff 10		 call	 DWORD PTR [eax]

; 2086 : 
; 2087 : 		m_pNoneCardText2->SetAlpha( MAX_ALPHA_RATE * m_fCurrentStateRate );

  000a7	f3 0f 10 86 f4
	01 00 00	 movss	 xmm0, DWORD PTR [esi+500]
  000af	8b 8e 70 01 00
	00		 mov	 ecx, DWORD PTR [esi+368]
  000b5	8b 01		 mov	 eax, DWORD PTR [ecx]
  000b7	0f 5a c0	 cvtps2pd xmm0, xmm0
  000ba	f2 0f 59 05 00
	00 00 00	 mulsd	 xmm0, QWORD PTR __real@406fe00000000000
  000c2	f2 0f 2c d0	 cvttsd2si edx, xmm0
  000c6	0f b6 d2	 movzx	 edx, dl
  000c9	52		 push	 edx
  000ca	ff 50 30	 call	 DWORD PTR [eax+48]

; 2088 : 		m_pNoneCardText2->Render( iXPos + 85, iYPos + 201 );

  000cd	8b 8e 70 01 00
	00		 mov	 ecx, DWORD PTR [esi+368]
  000d3	57		 push	 edi
  000d4	57		 push	 edi
  000d5	57		 push	 edi
  000d6	57		 push	 edi
  000d7	51		 push	 ecx
  000d8	81 c3 c9 00 00
	00		 add	 ebx, 201		; 000000c9H
  000de	0f 57 c0	 xorps	 xmm0, xmm0
  000e1	f3 0f 2a c3	 cvtsi2ss xmm0, ebx
  000e5	51		 push	 ecx
  000e6	f3 0f 11 44 24
	04		 movss	 DWORD PTR [esp+4], xmm0
  000ec	f3 0f 10 45 08	 movss	 xmm0, DWORD PTR tv360[ebp]

; 2089 : 	}
; 2090 : 	else

  000f1	e9 48 01 00 00	 jmp	 $LN12@OnRenderSt
$LN6@OnRenderSt:

; 2091 : 	{
; 2092 : 		if( !m_pCardText1 || !m_pCardText2 || !m_pCardTextNum ) return;

  000f6	39 be 60 01 00
	00		 cmp	 DWORD PTR [esi+352], edi
  000fc	0f 84 45 01 00
	00		 je	 $LN10@OnRenderSt
  00102	39 be 64 01 00
	00		 cmp	 DWORD PTR [esi+356], edi
  00108	0f 84 39 01 00
	00		 je	 $LN10@OnRenderSt
  0010e	39 be 68 01 00
	00		 cmp	 DWORD PTR [esi+360], edi
  00114	0f 84 2d 01 00
	00		 je	 $LN10@OnRenderSt

; 2093 : 
; 2094 : 		m_pCardText1->SetAlpha( MAX_ALPHA_RATE * m_fCurrentStateRate );

  0011a	f3 0f 10 86 f4
	01 00 00	 movss	 xmm0, DWORD PTR [esi+500]
  00122	8b 8e 60 01 00
	00		 mov	 ecx, DWORD PTR [esi+352]
  00128	8b 01		 mov	 eax, DWORD PTR [ecx]
  0012a	0f 5a c0	 cvtps2pd xmm0, xmm0
  0012d	f2 0f 59 05 00
	00 00 00	 mulsd	 xmm0, QWORD PTR __real@406fe00000000000
  00135	f2 0f 2c d0	 cvttsd2si edx, xmm0
  00139	0f b6 d2	 movzx	 edx, dl
  0013c	52		 push	 edx
  0013d	ff 50 30	 call	 DWORD PTR [eax+48]

; 2095 : 		m_pCardText1->Render( iXPos + 121, iYPos + 141 );

  00140	8b 8e 60 01 00
	00		 mov	 ecx, DWORD PTR [esi+352]
  00146	8b 55 0c	 mov	 edx, DWORD PTR _iYPos$[ebp]
  00149	8b 01		 mov	 eax, DWORD PTR [ecx]
  0014b	57		 push	 edi
  0014c	57		 push	 edi
  0014d	57		 push	 edi
  0014e	57		 push	 edi
  0014f	81 c2 8d 00 00
	00		 add	 edx, 141		; 0000008dH
  00155	0f 57 c0	 xorps	 xmm0, xmm0
  00158	f3 0f 2a c2	 cvtsi2ss xmm0, edx
  0015c	51		 push	 ecx
  0015d	51		 push	 ecx
  0015e	f3 0f 11 44 24
	04		 movss	 DWORD PTR [esp+4], xmm0
  00164	8d 53 79	 lea	 edx, DWORD PTR [ebx+121]
  00167	0f 57 c0	 xorps	 xmm0, xmm0
  0016a	f3 0f 2a c2	 cvtsi2ss xmm0, edx
  0016e	f3 0f 11 04 24	 movss	 DWORD PTR [esp], xmm0
  00173	ff 10		 call	 DWORD PTR [eax]

; 2096 : 
; 2097 : 		m_pCardTextNum->SetAlpha( MAX_ALPHA_RATE * m_fCurrentStateRate );

  00175	f3 0f 10 86 f4
	01 00 00	 movss	 xmm0, DWORD PTR [esi+500]
  0017d	8b 8e 68 01 00
	00		 mov	 ecx, DWORD PTR [esi+360]
  00183	8b 01		 mov	 eax, DWORD PTR [ecx]
  00185	0f 5a c0	 cvtps2pd xmm0, xmm0
  00188	f2 0f 59 05 00
	00 00 00	 mulsd	 xmm0, QWORD PTR __real@406fe00000000000
  00190	f2 0f 2c d0	 cvttsd2si edx, xmm0
  00194	0f b6 d2	 movzx	 edx, dl
  00197	52		 push	 edx
  00198	ff 50 30	 call	 DWORD PTR [eax+48]

; 2098 : 		m_pCardTextNum->RenderNum( iXPos + 93, iYPos + 201, m_iStartTreasureCount );

  0019b	f3 0f 10 0d 00
	00 00 00	 movss	 xmm1, DWORD PTR __real@3f800000
  001a3	8b 45 0c	 mov	 eax, DWORD PTR _iYPos$[ebp]
  001a6	57		 push	 edi
  001a7	57		 push	 edi
  001a8	57		 push	 edi
  001a9	57		 push	 edi
  001aa	51		 push	 ecx
  001ab	51		 push	 ecx
  001ac	f3 0f 11 4c 24
	04		 movss	 DWORD PTR [esp+4], xmm1
  001b2	0f 57 c9	 xorps	 xmm1, xmm1
  001b5	f3 0f 11 0c 24	 movss	 DWORD PTR [esp], xmm1
  001ba	ff b6 9c 01 00
	00		 push	 DWORD PTR [esi+412]
  001c0	05 c9 00 00 00	 add	 eax, 201		; 000000c9H
  001c5	51		 push	 ecx
  001c6	0f 57 c0	 xorps	 xmm0, xmm0
  001c9	f3 0f 2a c0	 cvtsi2ss xmm0, eax
  001cd	51		 push	 ecx
  001ce	8b 8e 68 01 00
	00		 mov	 ecx, DWORD PTR [esi+360]
  001d4	f3 0f 11 44 24
	04		 movss	 DWORD PTR [esp+4], xmm0
  001da	f3 0f 11 45 0c	 movss	 DWORD PTR tv375[ebp], xmm0
  001df	8d 43 5d	 lea	 eax, DWORD PTR [ebx+93]
  001e2	0f 57 c0	 xorps	 xmm0, xmm0
  001e5	f3 0f 2a c0	 cvtsi2ss xmm0, eax
  001e9	f3 0f 11 04 24	 movss	 DWORD PTR [esp], xmm0
  001ee	ff 15 00 00 00
	00		 call	 DWORD PTR __imp_?RenderNum@ioUIRenderImage@@QAEXMMHMMW4UIRenderType@@W4TextureFilterOption@@0W4RenerNumerFormatting@1@@Z

; 2099 : 
; 2100 : 		m_pCardText2->SetAlpha( MAX_ALPHA_RATE * m_fCurrentStateRate );

  001f4	f3 0f 10 86 f4
	01 00 00	 movss	 xmm0, DWORD PTR [esi+500]
  001fc	8b 8e 64 01 00
	00		 mov	 ecx, DWORD PTR [esi+356]
  00202	8b 01		 mov	 eax, DWORD PTR [ecx]
  00204	0f 5a c0	 cvtps2pd xmm0, xmm0
  00207	f2 0f 59 05 00
	00 00 00	 mulsd	 xmm0, QWORD PTR __real@406fe00000000000
  0020f	f2 0f 2c d0	 cvttsd2si edx, xmm0
  00213	0f b6 d2	 movzx	 edx, dl
  00216	52		 push	 edx
  00217	ff 50 30	 call	 DWORD PTR [eax+48]

; 2101 : 		m_pCardText2->Render( iXPos + 132, iYPos + 201 );

  0021a	8b 8e 64 01 00
	00		 mov	 ecx, DWORD PTR [esi+356]
  00220	f3 0f 10 45 0c	 movss	 xmm0, DWORD PTR tv375[ebp]
  00225	57		 push	 edi
  00226	57		 push	 edi
  00227	57		 push	 edi
  00228	57		 push	 edi
  00229	51		 push	 ecx
  0022a	51		 push	 ecx
  0022b	f3 0f 11 44 24
	04		 movss	 DWORD PTR [esp+4], xmm0
  00231	81 c3 84 00 00
	00		 add	 ebx, 132		; 00000084H
  00237	0f 57 c0	 xorps	 xmm0, xmm0
  0023a	f3 0f 2a c3	 cvtsi2ss xmm0, ebx
$LN12@OnRenderSt:
  0023e	8b 01		 mov	 eax, DWORD PTR [ecx]
  00240	f3 0f 11 04 24	 movss	 DWORD PTR [esp], xmm0
  00245	ff 10		 call	 DWORD PTR [eax]
$LN10@OnRenderSt:
  00247	5f		 pop	 edi
  00248	5b		 pop	 ebx
$LN1@OnRenderSt:
  00249	5e		 pop	 esi

; 2102 : 	}
; 2103 : }

  0024a	5d		 pop	 ebp
  0024b	c2 08 00	 ret	 8
?OnRenderStartMent@TotalResultTreasureCardWnd@@IAEXHH@Z ENDP ; TotalResultTreasureCardWnd::OnRenderStartMent
_TEXT	ENDS
PUBLIC	?SetPlayStage@TotalResultTournamentWnd@@QAEXPAVioPlayStage@@@Z ; TotalResultTournamentWnd::SetPlayStage
; Function compile flags: /Ogsp
;	COMDAT ?SetPlayStage@TotalResultTournamentWnd@@QAEXPAVioPlayStage@@@Z
_TEXT	SEGMENT
_pPlayStage$ = 8					; size = 4
?SetPlayStage@TotalResultTournamentWnd@@QAEXPAVioPlayStage@@@Z PROC ; TotalResultTournamentWnd::SetPlayStage, COMDAT
; _this$ = ecx

; 2436 : {

  00000	55		 push	 ebp
  00001	8b ec		 mov	 ebp, esp

; 2437 : 	m_pPlayStage = pPlayStage;

  00003	8b 45 08	 mov	 eax, DWORD PTR _pPlayStage$[ebp]
  00006	89 81 18 02 00
	00		 mov	 DWORD PTR [ecx+536], eax

; 2438 : }

  0000c	5d		 pop	 ebp
  0000d	c2 04 00	 ret	 4
?SetPlayStage@TotalResultTournamentWnd@@QAEXPAVioPlayStage@@@Z ENDP ; TotalResultTournamentWnd::SetPlayStage
_TEXT	ENDS
PUBLIC	__real@407b800000000000
PUBLIC	?SetGaugeValue@TotalResultTournamentWnd@@QAEXXZ	; TotalResultTournamentWnd::SetGaugeValue
EXTRN	__ftol2_sse:PROC
;	COMDAT __real@407b800000000000
; File d:\lost saga for developer\youtube\tutorial\source\src\lsclient\stdafx.h
CONST	SEGMENT
__real@407b800000000000 DQ 0407b800000000000r	; 440
; Function compile flags: /Ogsp
; File d:\lost saga for developer\youtube\tutorial\source\src\lsclient\gui\totalresultmainwnd.cpp
CONST	ENDS
;	COMDAT ?SetGaugeValue@TotalResultTournamentWnd@@QAEXXZ
_TEXT	SEGMENT
tv285 = -8						; size = 4
tv268 = -8						; size = 4
tv275 = -4						; size = 4
tv151 = -4						; size = 4
tv130 = -4						; size = 4
?SetGaugeValue@TotalResultTournamentWnd@@QAEXXZ PROC	; TotalResultTournamentWnd::SetGaugeValue, COMDAT
; _this$ = ecx

; 2599 : {

  00000	55		 push	 ebp
  00001	8b ec		 mov	 ebp, esp
  00003	51		 push	 ecx
  00004	51		 push	 ecx
  00005	56		 push	 esi
  00006	8b f1		 mov	 esi, ecx

; 2600 : 	//페이지 수 구하기
; 2601 : 	m_iTournamentPageMax =  max( 0, m_iTournamentMaxRound - TOURNAMENT_VIEW_MAX );

  00008	8b 86 1c 02 00
	00		 mov	 eax, DWORD PTR [esi+540]
  0000e	8d 48 f8	 lea	 ecx, DWORD PTR [eax-8]
  00011	57		 push	 edi
  00012	85 c9		 test	 ecx, ecx
  00014	79 04		 jns	 SHORT $LN6@SetGaugeVa
  00016	33 ff		 xor	 edi, edi
  00018	eb 02		 jmp	 SHORT $LN7@SetGaugeVa
$LN6@SetGaugeVa:
  0001a	8b f9		 mov	 edi, ecx
$LN7@SetGaugeVa:
  0001c	89 be 2c 02 00
	00		 mov	 DWORD PTR [esi+556], edi

; 2602 : 
; 2603 : 
; 2604 : 	m_iTournamentPageMaxRound = TOURNAMENT_VIEW_MAX;		//최대 8라운드 표시

  00022	c7 86 30 02 00
	00 08 00 00 00	 mov	 DWORD PTR [esi+560], 8

; 2605 : 	if( m_iTournamentMaxRound < m_iTournamentPageMaxRound ) //대회가 8라운드 이하의 대회 일 경우 라운드 수만큼 그리기

  0002c	83 f8 08	 cmp	 eax, 8
  0002f	7d 06		 jge	 SHORT $LN3@SetGaugeVa

; 2606 : 		m_iTournamentPageMaxRound = m_iTournamentMaxRound;

  00031	89 86 30 02 00
	00		 mov	 DWORD PTR [esi+560], eax
$LN3@SetGaugeVa:

; 2607 : 	
; 2608 : 	//현재 페이지의 라운드가 4라운드 이상 진행瑛만 페이지를 넘겨준다.
; 2609 : 	if( GAGUE_MIDDILE < m_iTournamentCurPos && TOURNAMENT_VIEW_MAX < m_iTournamentMaxRound )

  00037	8b 8e 24 02 00
	00		 mov	 ecx, DWORD PTR [esi+548]
  0003d	83 f9 04	 cmp	 ecx, 4
  00040	7e 58		 jle	 SHORT $LN2@SetGaugeVa
  00042	83 f8 08	 cmp	 eax, 8
  00045	7e 53		 jle	 SHORT $LN2@SetGaugeVa

; 2610 : 	{
; 2611 : 		m_iTournamentCurPage = m_iTournamentCurPos - GAGUE_MIDDILE;

  00047	8d 41 fc	 lea	 eax, DWORD PTR [ecx-4]

; 2612 : 		m_iTournamentCurPage = min( m_iTournamentCurPage, m_iTournamentPageMax );

  0004a	3b c7		 cmp	 eax, edi
  0004c	0f 4d c7	 cmovge	 eax, edi

; 2613 : 
; 2614 : 		//하단 게이지 넓이
; 2615 : 		m_iTournamentGaugeWidth = GAUGE_WIDTH * ( FLOAT1 / max( 1, m_iTournamentPageMaxRound ) ) * ( m_iTournamentCurPos - m_iTournamentCurPage );

  0004f	33 c9		 xor	 ecx, ecx
  00051	89 86 34 02 00
	00		 mov	 DWORD PTR [esi+564], eax
  00057	8b 86 30 02 00
	00		 mov	 eax, DWORD PTR [esi+560]
  0005d	41		 inc	 ecx
  0005e	89 4d fc	 mov	 DWORD PTR tv130[ebp], ecx
  00061	3b c1		 cmp	 eax, ecx
  00063	7c 03		 jl	 SHORT $LN11@SetGaugeVa
  00065	89 45 fc	 mov	 DWORD PTR tv130[ebp], eax
$LN11@SetGaugeVa:
  00068	b8 01 00 00 00	 mov	 eax, 1
  0006d	89 45 f8	 mov	 DWORD PTR tv285[ebp], eax
  00070	db 45 f8	 fild	 DWORD PTR tv285[ebp]
  00073	85 c0		 test	 eax, eax
  00075	79 06		 jns	 SHORT $LN18@SetGaugeVa
  00077	d8 05 00 00 00
	00		 fadd	 DWORD PTR __real@4f800000
$LN18@SetGaugeVa:
  0007d	da 75 fc	 fidiv	 DWORD PTR tv130[ebp]
  00080	8b 86 24 02 00
	00		 mov	 eax, DWORD PTR [esi+548]
  00086	2b 86 34 02 00
	00		 sub	 eax, DWORD PTR [esi+564]
  0008c	89 45 fc	 mov	 DWORD PTR tv275[ebp], eax
  0008f	dc 0d 00 00 00
	00		 fmul	 QWORD PTR __real@407b800000000000
  00095	da 4d fc	 fimul	 DWORD PTR tv275[ebp]

; 2616 : 		
; 2617 : 	}
; 2618 : 	else

  00098	eb 37		 jmp	 SHORT $LN20@SetGaugeVa
$LN2@SetGaugeVa:

; 2619 : 	{
; 2620 : 		//하단 게이지 넓이
; 2621 : 		m_iTournamentGaugeWidth = GAUGE_WIDTH * ( FLOAT1 / max( 1, m_iTournamentPageMaxRound ) ) * m_iTournamentCurPos;

  0009a	8b 86 30 02 00
	00		 mov	 eax, DWORD PTR [esi+560]
  000a0	33 c9		 xor	 ecx, ecx
  000a2	41		 inc	 ecx
  000a3	89 4d fc	 mov	 DWORD PTR tv151[ebp], ecx
  000a6	3b c1		 cmp	 eax, ecx
  000a8	7c 03		 jl	 SHORT $LN13@SetGaugeVa
  000aa	89 45 fc	 mov	 DWORD PTR tv151[ebp], eax
$LN13@SetGaugeVa:
  000ad	b8 01 00 00 00	 mov	 eax, 1
  000b2	89 45 f8	 mov	 DWORD PTR tv268[ebp], eax
  000b5	db 45 f8	 fild	 DWORD PTR tv268[ebp]
  000b8	85 c0		 test	 eax, eax
  000ba	79 06		 jns	 SHORT $LN19@SetGaugeVa
  000bc	d8 05 00 00 00
	00		 fadd	 DWORD PTR __real@4f800000
$LN19@SetGaugeVa:
  000c2	da 75 fc	 fidiv	 DWORD PTR tv151[ebp]
  000c5	dc 0d 00 00 00
	00		 fmul	 QWORD PTR __real@407b800000000000
  000cb	da 8e 24 02 00
	00		 fimul	 DWORD PTR [esi+548]
$LN20@SetGaugeVa:
  000d1	e8 00 00 00 00	 call	 __ftol2_sse
  000d6	5f		 pop	 edi
  000d7	89 86 38 02 00
	00		 mov	 DWORD PTR [esi+568], eax
  000dd	5e		 pop	 esi

; 2622 : 	}
; 2623 : }

  000de	c9		 leave
  000df	c3		 ret	 0
?SetGaugeValue@TotalResultTournamentWnd@@QAEXXZ ENDP	; TotalResultTournamentWnd::SetGaugeValue
_TEXT	ENDS
PUBLIC	??0D3DXVECTOR3@@QAE@MMM@Z			; D3DXVECTOR3::D3DXVECTOR3
; Function compile flags: /Ogsp
; File c:\program files (x86)\microsoft directx sdk (june 2010)\include\d3dx9math.inl
;	COMDAT ??0D3DXVECTOR3@@QAE@MMM@Z
_TEXT	SEGMENT
_fx$ = 8						; size = 4
_fy$ = 12						; size = 4
_fz$ = 16						; size = 4
??0D3DXVECTOR3@@QAE@MMM@Z PROC				; D3DXVECTOR3::D3DXVECTOR3, COMDAT
; _this$ = ecx

; 303  : {

  00000	55		 push	 ebp
  00001	8b ec		 mov	 ebp, esp

; 304  :     x = fx;

  00003	f3 0f 10 45 08	 movss	 xmm0, DWORD PTR _fx$[ebp]
  00008	8b c1		 mov	 eax, ecx
  0000a	f3 0f 11 00	 movss	 DWORD PTR [eax], xmm0

; 305  :     y = fy;

  0000e	f3 0f 10 45 0c	 movss	 xmm0, DWORD PTR _fy$[ebp]
  00013	f3 0f 11 40 04	 movss	 DWORD PTR [eax+4], xmm0

; 306  :     z = fz;

  00018	f3 0f 10 45 10	 movss	 xmm0, DWORD PTR _fz$[ebp]
  0001d	f3 0f 11 40 08	 movss	 DWORD PTR [eax+8], xmm0

; 307  : }

  00022	5d		 pop	 ebp
  00023	c2 0c 00	 ret	 12			; 0000000cH
??0D3DXVECTOR3@@QAE@MMM@Z ENDP				; D3DXVECTOR3::D3DXVECTOR3
_TEXT	ENDS
PUBLIC	?SetTeamScore@TotalResultTournamentWnd@@QAEXW4TeamType@@MM@Z ; TotalResultTournamentWnd::SetTeamScore
; Function compile flags: /Ogsp
; File d:\lost saga for developer\youtube\tutorial\source\src\lsclient\gui\totalresultmainwnd.cpp
;	COMDAT ?SetTeamScore@TotalResultTournamentWnd@@QAEXW4TeamType@@MM@Z
_TEXT	SEGMENT
_eMyTeam$ = 8						; size = 4
_fBlueWin$ = 12						; size = 4
_fRedWin$ = 16						; size = 4
?SetTeamScore@TotalResultTournamentWnd@@QAEXW4TeamType@@MM@Z PROC ; TotalResultTournamentWnd::SetTeamScore, COMDAT
; _this$ = ecx

; 2626 : {

  00000	55		 push	 ebp
  00001	8b ec		 mov	 ebp, esp

; 2627 : 	if( !m_pPlayStage ) return;

  00003	83 b9 18 02 00
	00 00		 cmp	 DWORD PTR [ecx+536], 0
  0000a	74 55		 je	 SHORT $LN1@SetTeamSco

; 2628 : 	
; 2629 : 	m_eMyTeam = eMyTeam;
; 2630 : 	m_eWinner = WTT_DRAW;
; 2631 : 
; 2632 : 	if( fBlueWin > fRedWin )

  0000c	f3 0f 10 45 0c	 movss	 xmm0, DWORD PTR _fBlueWin$[ebp]
  00011	f3 0f 10 4d 10	 movss	 xmm1, DWORD PTR _fRedWin$[ebp]
  00016	8b 45 08	 mov	 eax, DWORD PTR _eMyTeam$[ebp]
  00019	0f 5a c0	 cvtps2pd xmm0, xmm0
  0001c	0f 5a c9	 cvtps2pd xmm1, xmm1
  0001f	66 0f 2f c1	 comisd	 xmm0, xmm1
  00023	89 81 4c 02 00
	00		 mov	 DWORD PTR [ecx+588], eax
  00029	c7 81 48 02 00
	00 03 00 00 00	 mov	 DWORD PTR [ecx+584], 3

; 2633 : 		m_eWinner = WTT_BLUE_TEAM;

  00033	77 22		 ja	 SHORT $LN2@SetTeamSco

; 2634 : 	else if( fBlueWin < fRedWin )

  00035	f3 0f 10 45 0c	 movss	 xmm0, DWORD PTR _fBlueWin$[ebp]
  0003a	f3 0f 10 4d 10	 movss	 xmm1, DWORD PTR _fRedWin$[ebp]
  0003f	0f 5a c0	 cvtps2pd xmm0, xmm0
  00042	0f 5a c9	 cvtps2pd xmm1, xmm1
  00045	66 0f 2f c8	 comisd	 xmm1, xmm0
  00049	76 0c		 jbe	 SHORT $LN2@SetTeamSco

; 2635 : 		m_eWinner = WTT_RED_TEAM;

  0004b	c7 81 48 02 00
	00 01 00 00 00	 mov	 DWORD PTR [ecx+584], 1

; 2636 : 	else 

  00055	eb 0a		 jmp	 SHORT $LN1@SetTeamSco
$LN2@SetTeamSco:

; 2637 : 		m_eWinner = WTT_BLUE_TEAM;

  00057	c7 81 48 02 00
	00 02 00 00 00	 mov	 DWORD PTR [ecx+584], 2
$LN1@SetTeamSco:

; 2638 : }

  00061	5d		 pop	 ebp
  00062	c2 0c 00	 ret	 12			; 0000000cH
?SetTeamScore@TotalResultTournamentWnd@@QAEXW4TeamType@@MM@Z ENDP ; TotalResultTournamentWnd::SetTeamScore
_TEXT	ENDS
PUBLIC	?SetPesoValue@TotalResultTournamentWnd@@QAEXH@Z	; TotalResultTournamentWnd::SetPesoValue
; Function compile flags: /Ogsp
;	COMDAT ?SetPesoValue@TotalResultTournamentWnd@@QAEXH@Z
_TEXT	SEGMENT
_iPeso$ = 8						; size = 4
?SetPesoValue@TotalResultTournamentWnd@@QAEXH@Z PROC	; TotalResultTournamentWnd::SetPesoValue, COMDAT
; _this$ = ecx

; 2641 : {

  00000	55		 push	 ebp
  00001	8b ec		 mov	 ebp, esp

; 2642 : 	m_iPesoOrgValue = iPeso;

  00003	8b 45 08	 mov	 eax, DWORD PTR _iPeso$[ebp]
  00006	89 81 3c 02 00
	00		 mov	 DWORD PTR [ecx+572], eax

; 2643 : }

  0000c	5d		 pop	 ebp
  0000d	c2 04 00	 ret	 4
?SetPesoValue@TotalResultTournamentWnd@@QAEXH@Z ENDP	; TotalResultTournamentWnd::SetPesoValue
_TEXT	ENDS
PUBLIC	??_C@_0L@DAEPCAMJ@ladder_cam?$AA@		; `string'
PUBLIC	?iwm_create@TotalResultTournamentWnd@@UAEXXZ	; TotalResultTournamentWnd::iwm_create
;	COMDAT ??_C@_0L@DAEPCAMJ@ladder_cam?$AA@
CONST	SEGMENT
??_C@_0L@DAEPCAMJ@ladder_cam?$AA@ DB 'ladder_cam', 00H	; `string'
CONST	ENDS
;	COMDAT xdata$x
xdata$x	SEGMENT
__unwindtable$?iwm_create@TotalResultTournamentWnd@@UAEXXZ DD 0ffffffffH
	DD	FLAT:__unwindfunclet$?iwm_create@TotalResultTournamentWnd@@UAEXXZ$0
__ehfuncinfo$?iwm_create@TotalResultTournamentWnd@@UAEXXZ DD 019930522H
	DD	01H
	DD	FLAT:__unwindtable$?iwm_create@TotalResultTournamentWnd@@UAEXXZ
	DD	2 DUP(00H)
	DD	2 DUP(00H)
	DD	00H
	DD	01H
; Function compile flags: /Ogsp
xdata$x	ENDS
;	COMDAT ?iwm_create@TotalResultTournamentWnd@@UAEXXZ
_TEXT	SEGMENT
$T555712 = -16						; size = 4
__$EHRec$ = -12						; size = 12
?iwm_create@TotalResultTournamentWnd@@UAEXXZ PROC	; TotalResultTournamentWnd::iwm_create, COMDAT
; _this$ = ecx

; 2646 : {

  00000	6a 04		 push	 4
  00002	b8 00 00 00 00	 mov	 eax, __ehhandler$?iwm_create@TotalResultTournamentWnd@@UAEXXZ
  00007	e8 00 00 00 00	 call	 __EH_prolog3
  0000c	8b f1		 mov	 esi, ecx

; 2647 : 	SAFEDELETE( m_pUI3DRender );

  0000e	8b 8e 60 02 00
	00		 mov	 ecx, DWORD PTR [esi+608]
  00014	85 c9		 test	 ecx, ecx
  00016	74 0d		 je	 SHORT $LN1@iwm_create@2
  00018	8b 01		 mov	 eax, DWORD PTR [ecx]
  0001a	6a 01		 push	 1
  0001c	ff 10		 call	 DWORD PTR [eax]
  0001e	83 a6 60 02 00
	00 00		 and	 DWORD PTR [esi+608], 0
$LN1@iwm_create@2:

; 2648 : 
; 2649 : 	m_pUI3DRender = new ioUI3DRender;

  00025	6a 48		 push	 72			; 00000048H
  00027	e8 00 00 00 00	 call	 ??2@YAPAXI@Z		; operator new
  0002c	59		 pop	 ecx
  0002d	8b c8		 mov	 ecx, eax
  0002f	89 4d f0	 mov	 DWORD PTR $T555712[ebp], ecx
  00032	83 65 fc 00	 and	 DWORD PTR __$EHRec$[ebp+8], 0
  00036	85 c9		 test	 ecx, ecx
  00038	74 07		 je	 SHORT $LN6@iwm_create@2
  0003a	e8 00 00 00 00	 call	 ??0ioUI3DRender@@QAE@XZ	; ioUI3DRender::ioUI3DRender
  0003f	eb 02		 jmp	 SHORT $LN7@iwm_create@2
$LN6@iwm_create@2:
  00041	33 c0		 xor	 eax, eax
$LN7@iwm_create@2:
  00043	83 4d fc ff	 or	 DWORD PTR __$EHRec$[ebp+8], -1

; 2650 : 	m_pUI3DRender->Initialize( "config/sp2_stage_charselect_map.ini", "ladder_cam" );

  00047	68 00 00 00 00	 push	 OFFSET ??_C@_0L@DAEPCAMJ@ladder_cam?$AA@
  0004c	68 00 00 00 00	 push	 OFFSET ??_C@_0CE@FCMGKOOH@config?1sp2_stage_charselect_map?4@
  00051	8b c8		 mov	 ecx, eax
  00053	89 86 60 02 00
	00		 mov	 DWORD PTR [esi+608], eax
  00059	e8 00 00 00 00	 call	 ?Initialize@ioUI3DRender@@QAEXPBD0@Z ; ioUI3DRender::Initialize

; 2651 : }

  0005e	e8 00 00 00 00	 call	 __EH_epilog3
  00063	c3		 ret	 0
_TEXT	ENDS
;	COMDAT text$x
text$x	SEGMENT
__unwindfunclet$?iwm_create@TotalResultTournamentWnd@@UAEXXZ$0:
  00000	ff 75 f0	 push	 DWORD PTR $T555712[ebp]
  00003	e8 00 00 00 00	 call	 ??3@YAXPAX@Z		; operator delete
  00008	59		 pop	 ecx
  00009	c3		 ret	 0
__ehhandler$?iwm_create@TotalResultTournamentWnd@@UAEXXZ:
  0000a	8b 54 24 08	 mov	 edx, DWORD PTR [esp+8]
  0000e	8d 42 0c	 lea	 eax, DWORD PTR [edx+12]
  00011	8b 4a ec	 mov	 ecx, DWORD PTR [edx-20]
  00014	33 c8		 xor	 ecx, eax
  00016	e8 00 00 00 00	 call	 @__security_check_cookie@4
  0001b	b8 00 00 00 00	 mov	 eax, OFFSET __ehfuncinfo$?iwm_create@TotalResultTournamentWnd@@UAEXXZ
  00020	e9 00 00 00 00	 jmp	 ___CxxFrameHandler3
text$x	ENDS
?iwm_create@TotalResultTournamentWnd@@UAEXXZ ENDP	; TotalResultTournamentWnd::iwm_create
PUBLIC	?iwm_show@TotalResultTournamentWnd@@UAEXXZ	; TotalResultTournamentWnd::iwm_show
; Function compile flags: /Ogsp
;	COMDAT ?iwm_show@TotalResultTournamentWnd@@UAEXXZ
_TEXT	SEGMENT
?iwm_show@TotalResultTournamentWnd@@UAEXXZ PROC		; TotalResultTournamentWnd::iwm_show, COMDAT
; _this$ = ecx

; 2654 : {

  00000	53		 push	 ebx
  00001	56		 push	 esi
  00002	57		 push	 edi

; 2655 : 	g_GUIMgr.HideWnd( MINIMAP_WND );

  00003	33 db		 xor	 ebx, ebx
  00005	53		 push	 ebx
  00006	68 74 17 00 00	 push	 6004			; 00001774H
  0000b	8b f9		 mov	 edi, ecx
  0000d	e8 00 00 00 00	 call	 ?GetSingleton@ioSP2GUIManager@@SAAAV1@XZ ; ioSP2GUIManager::GetSingleton
  00012	8b 35 00 00 00
	00		 mov	 esi, DWORD PTR __imp_?HideWnd@ioGUIManager@@QAEXK_N@Z
  00018	8b c8		 mov	 ecx, eax
  0001a	ff d6		 call	 esi

; 2656 : 	g_GUIMgr.HideWnd( TIME_SCORE_WND );

  0001c	53		 push	 ebx
  0001d	68 b9 13 00 00	 push	 5049			; 000013b9H
  00022	e8 00 00 00 00	 call	 ?GetSingleton@ioSP2GUIManager@@SAAAV1@XZ ; ioSP2GUIManager::GetSingleton
  00027	8b c8		 mov	 ecx, eax
  00029	ff d6		 call	 esi

; 2657 : 	g_GUIMgr.HideWnd( SKILL_LIST_WND );

  0002b	53		 push	 ebx
  0002c	68 89 13 00 00	 push	 5001			; 00001389H
  00031	e8 00 00 00 00	 call	 ?GetSingleton@ioSP2GUIManager@@SAAAV1@XZ ; ioSP2GUIManager::GetSingleton
  00036	8b c8		 mov	 ecx, eax
  00038	ff d6		 call	 esi

; 2658 : 	g_GUIMgr.HideWnd( ACCESSORY_SKILL_LIST_WND );

  0003a	53		 push	 ebx
  0003b	68 9c 18 00 00	 push	 6300			; 0000189cH
  00040	e8 00 00 00 00	 call	 ?GetSingleton@ioSP2GUIManager@@SAAAV1@XZ ; ioSP2GUIManager::GetSingleton
  00045	8b c8		 mov	 ecx, eax
  00047	ff d6		 call	 esi

; 2659 : 	g_GUIMgr.HideWnd( CENTER_INFO_WND );

  00049	53		 push	 ebx
  0004a	68 b8 13 00 00	 push	 5048			; 000013b8H
  0004f	e8 00 00 00 00	 call	 ?GetSingleton@ioSP2GUIManager@@SAAAV1@XZ ; ioSP2GUIManager::GetSingleton
  00054	8b c8		 mov	 ecx, eax
  00056	ff d6		 call	 esi

; 2660 : 	g_GUIMgr.HideWnd( MONSTER_BOSS_GAUGE_WND );

  00058	53		 push	 ebx
  00059	68 c7 13 00 00	 push	 5063			; 000013c7H
  0005e	e8 00 00 00 00	 call	 ?GetSingleton@ioSP2GUIManager@@SAAAV1@XZ ; ioSP2GUIManager::GetSingleton
  00063	8b c8		 mov	 ecx, eax
  00065	ff d6		 call	 esi

; 2661 : 	g_GUIMgr.HideWnd( MODE_RANK_WND );

  00067	53		 push	 ebx
  00068	68 8d 13 00 00	 push	 5005			; 0000138dH
  0006d	e8 00 00 00 00	 call	 ?GetSingleton@ioSP2GUIManager@@SAAAV1@XZ ; ioSP2GUIManager::GetSingleton
  00072	8b c8		 mov	 ecx, eax
  00074	ff d6		 call	 esi

; 2662 : 	g_GUIMgr.HideWnd( KO_CHAT_MSG_WND );

  00076	53		 push	 ebx
  00077	68 91 13 00 00	 push	 5009			; 00001391H
  0007c	e8 00 00 00 00	 call	 ?GetSingleton@ioSP2GUIManager@@SAAAV1@XZ ; ioSP2GUIManager::GetSingleton
  00081	8b c8		 mov	 ecx, eax
  00083	ff d6		 call	 esi

; 2663 : 	g_GUIMgr.HideWnd( FIGHTCLUB_TIME_GAUGE_WND );

  00085	53		 push	 ebx
  00086	68 d1 13 00 00	 push	 5073			; 000013d1H
  0008b	e8 00 00 00 00	 call	 ?GetSingleton@ioSP2GUIManager@@SAAAV1@XZ ; ioSP2GUIManager::GetSingleton
  00090	8b c8		 mov	 ecx, eax
  00092	ff d6		 call	 esi

; 2664 : 	g_GUIMgr.HideWnd( FIGHTCLUB_ROUND_END_WND );

  00094	53		 push	 ebx
  00095	68 d3 13 00 00	 push	 5075			; 000013d3H
  0009a	e8 00 00 00 00	 call	 ?GetSingleton@ioSP2GUIManager@@SAAAV1@XZ ; ioSP2GUIManager::GetSingleton
  0009f	8b c8		 mov	 ecx, eax
  000a1	ff d6		 call	 esi

; 2665 : 	g_GUIMgr.HideWnd( TOWERDEF_USER_GAUGE_WND );

  000a3	53		 push	 ebx
  000a4	68 d4 13 00 00	 push	 5076			; 000013d4H
  000a9	e8 00 00 00 00	 call	 ?GetSingleton@ioSP2GUIManager@@SAAAV1@XZ ; ioSP2GUIManager::GetSingleton
  000ae	8b c8		 mov	 ecx, eax
  000b0	ff d6		 call	 esi

; 2666 : 	g_GUIMgr.HideWnd( MINI_SOLDIER_SELECT_WND );

  000b2	53		 push	 ebx
  000b3	68 a0 13 00 00	 push	 5024			; 000013a0H
  000b8	e8 00 00 00 00	 call	 ?GetSingleton@ioSP2GUIManager@@SAAAV1@XZ ; ioSP2GUIManager::GetSingleton
  000bd	8b c8		 mov	 ecx, eax
  000bf	ff d6		 call	 esi

; 2667 : 	g_GUIMgr.HideWnd( TUTORIAL_KEYBOARD_WND );

  000c1	53		 push	 ebx
  000c2	68 a2 13 00 00	 push	 5026			; 000013a2H
  000c7	e8 00 00 00 00	 call	 ?GetSingleton@ioSP2GUIManager@@SAAAV1@XZ ; ioSP2GUIManager::GetSingleton
  000cc	8b c8		 mov	 ecx, eax
  000ce	ff d6		 call	 esi

; 2668 : 	g_GUIMgr.HideWnd( FIGHTCLUB_CHALLENGER_WND );

  000d0	53		 push	 ebx
  000d1	68 d5 13 00 00	 push	 5077			; 000013d5H
  000d6	e8 00 00 00 00	 call	 ?GetSingleton@ioSP2GUIManager@@SAAAV1@XZ ; ioSP2GUIManager::GetSingleton
  000db	8b c8		 mov	 ecx, eax
  000dd	ff d6		 call	 esi

; 2669 : 	g_GUIMgr.HideWnd( FIGHTCLUB_CONTINUE_WND );

  000df	53		 push	 ebx
  000e0	68 d6 13 00 00	 push	 5078			; 000013d6H
  000e5	e8 00 00 00 00	 call	 ?GetSingleton@ioSP2GUIManager@@SAAAV1@XZ ; ioSP2GUIManager::GetSingleton
  000ea	8b c8		 mov	 ecx, eax
  000ec	ff d6		 call	 esi

; 2670 : 	g_GUIMgr.HideWnd( TRAINING_FUNC_MENU );

  000ee	53		 push	 ebx
  000ef	68 87 18 00 00	 push	 6279			; 00001887H
  000f4	e8 00 00 00 00	 call	 ?GetSingleton@ioSP2GUIManager@@SAAAV1@XZ ; ioSP2GUIManager::GetSingleton
  000f9	8b c8		 mov	 ecx, eax
  000fb	ff d6		 call	 esi

; 2671 : 	g_ModeHelpMgr.HideHelpDirectly();

  000fd	e8 00 00 00 00	 call	 ?GetSingleton@ioModeHelpManager@@SAAAV1@XZ ; ioModeHelpManager::GetSingleton
  00102	8b c8		 mov	 ecx, eax
  00104	e8 00 00 00 00	 call	 ?HideHelpDirectly@ioModeHelpManager@@QAEXXZ ; ioModeHelpManager::HideHelpDirectly

; 2672 : 
; 2673 : 	m_dwStartTime = FRAMEGETTIME();

  00109	ff 15 00 00 00
	00		 call	 DWORD PTR __imp_?GetSingleton@ioFrameTimer@@SAAAV1@XZ
  0010f	8b c8		 mov	 ecx, eax
  00111	ff 15 00 00 00
	00		 call	 DWORD PTR __imp_?GetLoopSec@ioFrameTimer@@QBEKXZ

; 2674 : 
; 2675 : 	m_bResultTextSound = true;
; 2676 : 	m_bPesoRollingSound = true;
; 2677 : 	m_bGaugeStrechSound = true;
; 2678 : 
; 2679 : 	if( m_eMyTeam == TEAM_BLUE )

  00117	83 bf 4c 02 00
	00 02		 cmp	 DWORD PTR [edi+588], 2
  0011e	89 87 ac 05 00
	00		 mov	 DWORD PTR [edi+1452], eax
  00124	66 c7 87 14 02
	00 00 01 01	 mov	 WORD PTR [edi+532], 257	; 00000101H
  0012d	c6 87 16 02 00
	00 01		 mov	 BYTE PTR [edi+534], 1
  00134	75 11		 jne	 SHORT $LN10@iwm_show@2

; 2680 : 	{
; 2681 : 		if( m_eWinner == WTT_BLUE_TEAM )

  00136	83 bf 48 02 00
	00 02		 cmp	 DWORD PTR [edi+584], 2
  0013d	75 17		 jne	 SHORT $LN4@iwm_show@2

; 2682 : 		{
; 2683 : 			if( !m_szWinBackSound.IsEmpty() )

  0013f	8d b7 c4 01 00
	00		 lea	 esi, DWORD PTR [edi+452]

; 2684 : 				g_SoundMgr.PlaySound( m_szWinBackSound );
; 2685 : 		}
; 2686 : 		else

  00145	eb 15		 jmp	 SHORT $LN13@iwm_show@2
$LN10@iwm_show@2:

; 2687 : 		{
; 2688 : 			if( !m_szLoseBackSound.IsEmpty() )
; 2689 : 				g_SoundMgr.PlaySound( m_szLoseBackSound );
; 2690 : 		}
; 2691 : 	}
; 2692 : 	else
; 2693 : 	{
; 2694 : 		if( m_eWinner == WTT_RED_TEAM )

  00147	83 bf 48 02 00
	00 01		 cmp	 DWORD PTR [edi+584], 1

; 2695 : 		{
; 2696 : 			if( !m_szWinBackSound.IsEmpty() )

  0014e	8d b7 c4 01 00
	00		 lea	 esi, DWORD PTR [edi+452]
  00154	74 06		 je	 SHORT $LN13@iwm_show@2
$LN4@iwm_show@2:

; 2697 : 				g_SoundMgr.PlaySound( m_szWinBackSound );
; 2698 : 		}
; 2699 : 		else
; 2700 : 		{
; 2701 : 			if( !m_szLoseBackSound.IsEmpty() )

  00156	8d b7 d4 01 00
	00		 lea	 esi, DWORD PTR [edi+468]
$LN13@iwm_show@2:
  0015c	8b ce		 mov	 ecx, esi
  0015e	ff 15 00 00 00
	00		 call	 DWORD PTR __imp_?IsEmpty@ioHashString@@QBE_NXZ
  00164	84 c0		 test	 al, al
  00166	75 12		 jne	 SHORT $LN1@iwm_show@2

; 2702 : 				g_SoundMgr.PlaySound( m_szLoseBackSound );

  00168	6a 04		 push	 4
  0016a	53		 push	 ebx
  0016b	56		 push	 esi
  0016c	ff 15 00 00 00
	00		 call	 DWORD PTR __imp_?GetSingleton@ioSoundManager@@SAAAV1@XZ
  00172	8b c8		 mov	 ecx, eax
  00174	ff 15 00 00 00
	00		 call	 DWORD PTR __imp_?PlaySoundA@ioSoundManager@@QAEKABVioHashString@@HK@Z
$LN1@iwm_show@2:

; 2703 : 		}
; 2704 : 	}
; 2705 : }

  0017a	5f		 pop	 edi
  0017b	5e		 pop	 esi
  0017c	5b		 pop	 ebx
  0017d	c3		 ret	 0
?iwm_show@TotalResultTournamentWnd@@UAEXXZ ENDP		; TotalResultTournamentWnd::iwm_show
_TEXT	ENDS
PUBLIC	?iwm_hide@TotalResultTournamentWnd@@UAEXXZ	; TotalResultTournamentWnd::iwm_hide
; Function compile flags: /Ogsp
;	COMDAT ?iwm_hide@TotalResultTournamentWnd@@UAEXXZ
_TEXT	SEGMENT
?iwm_hide@TotalResultTournamentWnd@@UAEXXZ PROC		; TotalResultTournamentWnd::iwm_hide, COMDAT
; _this$ = ecx

; 2709 : }

  00000	c3		 ret	 0
?iwm_hide@TotalResultTournamentWnd@@UAEXXZ ENDP		; TotalResultTournamentWnd::iwm_hide
_TEXT	ENDS
PUBLIC	?OnTeamNameMoveProcess@TotalResultTournamentWnd@@IAEXM@Z ; TotalResultTournamentWnd::OnTeamNameMoveProcess
EXTRN	__ftol2:PROC
; Function compile flags: /Ogsp
;	COMDAT ?OnTeamNameMoveProcess@TotalResultTournamentWnd@@IAEXM@Z
_TEXT	SEGMENT
tv194 = 8						; size = 4
tv174 = 8						; size = 4
tv171 = 8						; size = 4
tv165 = 8						; size = 4
_dwCurTime$ = 8						; size = 4
?OnTeamNameMoveProcess@TotalResultTournamentWnd@@IAEXM@Z PROC ; TotalResultTournamentWnd::OnTeamNameMoveProcess, COMDAT
; _this$ = ecx

; 2712 : {

  00000	55		 push	 ebp
  00001	8b ec		 mov	 ebp, esp

; 2713 : 	//팀명
; 2714 : 	DWORD dwGapTime = dwCurTime - m_dwStartTime;

  00003	d9 45 08	 fld	 DWORD PTR _dwCurTime$[ebp]
  00006	56		 push	 esi
  00007	8b f1		 mov	 esi, ecx
  00009	8b 86 ac 05 00
	00		 mov	 eax, DWORD PTR [esi+1452]
  0000f	db 86 ac 05 00
	00		 fild	 DWORD PTR [esi+1452]
  00015	85 c0		 test	 eax, eax
  00017	79 06		 jns	 SHORT $LN9@OnTeamName
  00019	d8 05 00 00 00
	00		 fadd	 DWORD PTR __real@4f800000
$LN9@OnTeamName:
  0001f	de e9		 fsubp	 ST(1), ST(0)
  00021	e8 00 00 00 00	 call	 __ftol2

; 2715 : 	if( dwGapTime > m_dwTeamNameStartTime )

  00026	8b 8e b4 05 00
	00		 mov	 ecx, DWORD PTR [esi+1460]
  0002c	3b c1		 cmp	 eax, ecx
  0002e	76 4d		 jbe	 SHORT $LN4@OnTeamName

; 2716 : 	{
; 2717 : 		dwGapTime -= m_dwTeamNameStartTime;

  00030	2b c1		 sub	 eax, ecx

; 2718 : 		if( dwGapTime < m_dwTeamNameGapTime )

  00032	8b 8e b8 05 00
	00		 mov	 ecx, DWORD PTR [esi+1464]
  00038	3b c1		 cmp	 eax, ecx
  0003a	73 24		 jae	 SHORT $LN3@OnTeamName

; 2719 : 		{
; 2720 : 			m_fTournamentTeamAniRate = (float)dwGapTime / m_dwTeamNameGapTime;

  0003c	89 45 08	 mov	 DWORD PTR tv174[ebp], eax
  0003f	db 45 08	 fild	 DWORD PTR tv174[ebp]
  00042	85 c0		 test	 eax, eax
  00044	79 06		 jns	 SHORT $LN10@OnTeamName
  00046	d8 05 00 00 00
	00		 fadd	 DWORD PTR __real@4f800000
$LN10@OnTeamName:
  0004c	89 4d 08	 mov	 DWORD PTR tv171[ebp], ecx
  0004f	db 45 08	 fild	 DWORD PTR tv171[ebp]
  00052	85 c9		 test	 ecx, ecx
  00054	79 06		 jns	 SHORT $LN11@OnTeamName
  00056	d8 05 00 00 00
	00		 fadd	 DWORD PTR __real@4f800000
$LN11@OnTeamName:
  0005c	de f9		 fdivp	 ST(1), ST(0)

; 2721 : 		}
; 2722 : 		else

  0005e	eb 15		 jmp	 SHORT $LN12@OnTeamName
$LN3@OnTeamName:

; 2723 : 		{
; 2724 : 			m_fTournamentTeamAniRate = FLOAT1;

  00060	b8 01 00 00 00	 mov	 eax, 1
  00065	89 45 08	 mov	 DWORD PTR tv165[ebp], eax
  00068	db 45 08	 fild	 DWORD PTR tv165[ebp]
  0006b	85 c0		 test	 eax, eax
  0006d	79 06		 jns	 SHORT $LN12@OnTeamName
  0006f	d8 05 00 00 00
	00		 fadd	 DWORD PTR __real@4f800000
$LN12@OnTeamName:
  00075	d9 9e 00 06 00
	00		 fstp	 DWORD PTR [esi+1536]

; 2725 : 		}
; 2726 : 	}
; 2727 : 	else

  0007b	eb 0b		 jmp	 SHORT $LN1@OnTeamName
$LN4@OnTeamName:

; 2728 : 	{
; 2729 : 		m_fTournamentTeamAniRate = 0.0f;

  0007d	0f 57 c0	 xorps	 xmm0, xmm0
  00080	f3 0f 11 86 00
	06 00 00	 movss	 DWORD PTR [esi+1536], xmm0
$LN1@OnTeamName:
  00088	5e		 pop	 esi

; 2730 : 	}
; 2731 : }

  00089	5d		 pop	 ebp
  0008a	c2 04 00	 ret	 4
?OnTeamNameMoveProcess@TotalResultTournamentWnd@@IAEXM@Z ENDP ; TotalResultTournamentWnd::OnTeamNameMoveProcess
_TEXT	ENDS
PUBLIC	?OnResultTextMoveProcess@TotalResultTournamentWnd@@IAEXM@Z ; TotalResultTournamentWnd::OnResultTextMoveProcess
; Function compile flags: /Ogsp
;	COMDAT ?OnResultTextMoveProcess@TotalResultTournamentWnd@@IAEXM@Z
_TEXT	SEGMENT
tv194 = 8						; size = 4
tv174 = 8						; size = 4
tv171 = 8						; size = 4
tv165 = 8						; size = 4
_dwCurTime$ = 8						; size = 4
?OnResultTextMoveProcess@TotalResultTournamentWnd@@IAEXM@Z PROC ; TotalResultTournamentWnd::OnResultTextMoveProcess, COMDAT
; _this$ = ecx

; 2734 : {

  00000	55		 push	 ebp
  00001	8b ec		 mov	 ebp, esp

; 2735 : 	//토너먼트진출결과
; 2736 : 	DWORD dwGapTime = dwCurTime - m_dwStartTime;

  00003	d9 45 08	 fld	 DWORD PTR _dwCurTime$[ebp]
  00006	56		 push	 esi
  00007	8b f1		 mov	 esi, ecx
  00009	8b 86 ac 05 00
	00		 mov	 eax, DWORD PTR [esi+1452]
  0000f	db 86 ac 05 00
	00		 fild	 DWORD PTR [esi+1452]
  00015	85 c0		 test	 eax, eax
  00017	79 06		 jns	 SHORT $LN9@OnResultTe
  00019	d8 05 00 00 00
	00		 fadd	 DWORD PTR __real@4f800000
$LN9@OnResultTe:
  0001f	de e9		 fsubp	 ST(1), ST(0)
  00021	e8 00 00 00 00	 call	 __ftol2

; 2737 : 	if( dwGapTime > m_dwResultTextStartTime )

  00026	8b 8e c0 05 00
	00		 mov	 ecx, DWORD PTR [esi+1472]
  0002c	3b c1		 cmp	 eax, ecx
  0002e	76 4d		 jbe	 SHORT $LN4@OnResultTe

; 2738 : 	{
; 2739 : 		dwGapTime -= m_dwResultTextStartTime;

  00030	2b c1		 sub	 eax, ecx

; 2740 : 		if( dwGapTime < m_dwResultTextGapTime )

  00032	8b 8e c4 05 00
	00		 mov	 ecx, DWORD PTR [esi+1476]
  00038	3b c1		 cmp	 eax, ecx
  0003a	73 24		 jae	 SHORT $LN3@OnResultTe

; 2741 : 		{
; 2742 : 			m_fTournamentResultTextAniRate = (float)dwGapTime / m_dwResultTextGapTime;

  0003c	89 45 08	 mov	 DWORD PTR tv174[ebp], eax
  0003f	db 45 08	 fild	 DWORD PTR tv174[ebp]
  00042	85 c0		 test	 eax, eax
  00044	79 06		 jns	 SHORT $LN10@OnResultTe
  00046	d8 05 00 00 00
	00		 fadd	 DWORD PTR __real@4f800000
$LN10@OnResultTe:
  0004c	89 4d 08	 mov	 DWORD PTR tv171[ebp], ecx
  0004f	db 45 08	 fild	 DWORD PTR tv171[ebp]
  00052	85 c9		 test	 ecx, ecx
  00054	79 06		 jns	 SHORT $LN11@OnResultTe
  00056	d8 05 00 00 00
	00		 fadd	 DWORD PTR __real@4f800000
$LN11@OnResultTe:
  0005c	de f9		 fdivp	 ST(1), ST(0)

; 2743 : 		}
; 2744 : 		else

  0005e	eb 15		 jmp	 SHORT $LN12@OnResultTe
$LN3@OnResultTe:

; 2745 : 		{
; 2746 : 			m_fTournamentResultTextAniRate = FLOAT1;

  00060	b8 01 00 00 00	 mov	 eax, 1
  00065	89 45 08	 mov	 DWORD PTR tv165[ebp], eax
  00068	db 45 08	 fild	 DWORD PTR tv165[ebp]
  0006b	85 c0		 test	 eax, eax
  0006d	79 06		 jns	 SHORT $LN12@OnResultTe
  0006f	d8 05 00 00 00
	00		 fadd	 DWORD PTR __real@4f800000
$LN12@OnResultTe:
  00075	d9 9e 04 06 00
	00		 fstp	 DWORD PTR [esi+1540]

; 2747 : 		}
; 2748 : 	}
; 2749 : 	else

  0007b	eb 0b		 jmp	 SHORT $LN1@OnResultTe
$LN4@OnResultTe:

; 2750 : 	{
; 2751 : 		m_fTournamentResultTextAniRate = 0.0f;

  0007d	0f 57 c0	 xorps	 xmm0, xmm0
  00080	f3 0f 11 86 04
	06 00 00	 movss	 DWORD PTR [esi+1540], xmm0
$LN1@OnResultTe:
  00088	5e		 pop	 esi

; 2752 : 	}
; 2753 : }

  00089	5d		 pop	 ebp
  0008a	c2 04 00	 ret	 4
?OnResultTextMoveProcess@TotalResultTournamentWnd@@IAEXM@Z ENDP ; TotalResultTournamentWnd::OnResultTextMoveProcess
_TEXT	ENDS
PUBLIC	?OnResultTextBackProcess@TotalResultTournamentWnd@@IAEXM@Z ; TotalResultTournamentWnd::OnResultTextBackProcess
; Function compile flags: /Ogsp
;	COMDAT ?OnResultTextBackProcess@TotalResultTournamentWnd@@IAEXM@Z
_TEXT	SEGMENT
tv178 = -4						; size = 4
tv175 = -4						; size = 4
tv169 = -4						; size = 4
_dwCurTime$ = 8						; size = 4
?OnResultTextBackProcess@TotalResultTournamentWnd@@IAEXM@Z PROC ; TotalResultTournamentWnd::OnResultTextBackProcess, COMDAT
; _this$ = ecx

; 2756 : {

  00000	55		 push	 ebp
  00001	8b ec		 mov	 ebp, esp
  00003	51		 push	 ecx
  00004	56		 push	 esi
  00005	8b f1		 mov	 esi, ecx

; 2757 : 	//팀명배경
; 2758 : 	DWORD dwGapTime = FRAMEGETTIME() - m_dwStartTime;

  00007	ff 15 00 00 00
	00		 call	 DWORD PTR __imp_?GetSingleton@ioFrameTimer@@SAAAV1@XZ
  0000d	8b c8		 mov	 ecx, eax
  0000f	ff 15 00 00 00
	00		 call	 DWORD PTR __imp_?GetLoopSec@ioFrameTimer@@QBEKXZ
  00015	2b 86 ac 05 00
	00		 sub	 eax, DWORD PTR [esi+1452]

; 2759 : 	if( dwGapTime > m_dwResultTextBackStartTime )

  0001b	8b 8e c8 05 00
	00		 mov	 ecx, DWORD PTR [esi+1480]
  00021	3b c1		 cmp	 eax, ecx
  00023	76 4d		 jbe	 SHORT $LN4@OnResultTe@2

; 2760 : 	{
; 2761 : 		dwGapTime -= m_dwResultTextBackStartTime;

  00025	2b c1		 sub	 eax, ecx

; 2762 : 		if( dwGapTime < m_dwResultTextBackGapTime )

  00027	8b 8e cc 05 00
	00		 mov	 ecx, DWORD PTR [esi+1484]
  0002d	3b c1		 cmp	 eax, ecx
  0002f	73 24		 jae	 SHORT $LN3@OnResultTe@2

; 2763 : 		{
; 2764 : 			m_fTournamentResultTextBackAniRate = (float)dwGapTime / m_dwResultTextBackGapTime;

  00031	89 45 fc	 mov	 DWORD PTR tv178[ebp], eax
  00034	db 45 fc	 fild	 DWORD PTR tv178[ebp]
  00037	85 c0		 test	 eax, eax
  00039	79 06		 jns	 SHORT $LN9@OnResultTe@2
  0003b	d8 05 00 00 00
	00		 fadd	 DWORD PTR __real@4f800000
$LN9@OnResultTe@2:
  00041	89 4d fc	 mov	 DWORD PTR tv175[ebp], ecx
  00044	db 45 fc	 fild	 DWORD PTR tv175[ebp]
  00047	85 c9		 test	 ecx, ecx
  00049	79 06		 jns	 SHORT $LN10@OnResultTe@2
  0004b	d8 05 00 00 00
	00		 fadd	 DWORD PTR __real@4f800000
$LN10@OnResultTe@2:
  00051	de f9		 fdivp	 ST(1), ST(0)

; 2765 : 		}
; 2766 : 		else

  00053	eb 15		 jmp	 SHORT $LN11@OnResultTe@2
$LN3@OnResultTe@2:

; 2767 : 		{
; 2768 : 			m_fTournamentResultTextBackAniRate = FLOAT1;

  00055	b8 01 00 00 00	 mov	 eax, 1
  0005a	89 45 fc	 mov	 DWORD PTR tv169[ebp], eax
  0005d	db 45 fc	 fild	 DWORD PTR tv169[ebp]
  00060	85 c0		 test	 eax, eax
  00062	79 06		 jns	 SHORT $LN11@OnResultTe@2
  00064	d8 05 00 00 00
	00		 fadd	 DWORD PTR __real@4f800000
$LN11@OnResultTe@2:
  0006a	d9 9e 08 06 00
	00		 fstp	 DWORD PTR [esi+1544]

; 2769 : 		}
; 2770 : 	}
; 2771 : 	else

  00070	eb 0b		 jmp	 SHORT $LN1@OnResultTe@2
$LN4@OnResultTe@2:

; 2772 : 	{
; 2773 : 		m_fTournamentResultTextBackAniRate = 0.0f;

  00072	0f 57 c0	 xorps	 xmm0, xmm0
  00075	f3 0f 11 86 08
	06 00 00	 movss	 DWORD PTR [esi+1544], xmm0
$LN1@OnResultTe@2:
  0007d	5e		 pop	 esi

; 2774 : 	}
; 2775 : }

  0007e	c9		 leave
  0007f	c2 04 00	 ret	 4
?OnResultTextBackProcess@TotalResultTournamentWnd@@IAEXM@Z ENDP ; TotalResultTournamentWnd::OnResultTextBackProcess
_TEXT	ENDS
PUBLIC	?OnResultTextBlinkProcess@TotalResultTournamentWnd@@IAEXM@Z ; TotalResultTournamentWnd::OnResultTextBlinkProcess
; Function compile flags: /Ogsp
;	COMDAT ?OnResultTextBlinkProcess@TotalResultTournamentWnd@@IAEXM@Z
_TEXT	SEGMENT
tv235 = 8						; size = 4
tv220 = 8						; size = 4
tv218 = 8						; size = 4
tv215 = 8						; size = 4
tv207 = 8						; size = 4
tv202 = 8						; size = 4
_dwCurTime$ = 8						; size = 4
?OnResultTextBlinkProcess@TotalResultTournamentWnd@@IAEXM@Z PROC ; TotalResultTournamentWnd::OnResultTextBlinkProcess, COMDAT
; _this$ = ecx

; 2778 : {

  00000	55		 push	 ebp
  00001	8b ec		 mov	 ebp, esp

; 2779 : 	DWORD dwGapTime = dwCurTime - m_dwStartTime;

  00003	d9 45 08	 fld	 DWORD PTR _dwCurTime$[ebp]
  00006	56		 push	 esi
  00007	8b f1		 mov	 esi, ecx
  00009	8b 86 ac 05 00
	00		 mov	 eax, DWORD PTR [esi+1452]
  0000f	db 86 ac 05 00
	00		 fild	 DWORD PTR [esi+1452]
  00015	57		 push	 edi
  00016	85 c0		 test	 eax, eax
  00018	79 06		 jns	 SHORT $LN13@OnResultTe@3
  0001a	d8 05 00 00 00
	00		 fadd	 DWORD PTR __real@4f800000
$LN13@OnResultTe@3:
  00020	de e9		 fsubp	 ST(1), ST(0)
  00022	e8 00 00 00 00	 call	 __ftol2
  00027	8b f8		 mov	 edi, eax

; 2780 : 	if( dwGapTime > m_dwResultTextBlinkStartTime )

  00029	3b be d0 05 00
	00		 cmp	 edi, DWORD PTR [esi+1488]
  0002f	0f 86 b2 00 00
	00		 jbe	 $LN5@OnResultTe@3

; 2781 : 	{
; 2782 : 		if( m_bResultTextSound && !m_szResultTextSound.IsEmpty() )

  00035	80 be 14 02 00
	00 00		 cmp	 BYTE PTR [esi+532], 0
  0003c	74 2e		 je	 SHORT $LN4@OnResultTe@3
  0003e	53		 push	 ebx
  0003f	8d 9e e4 01 00
	00		 lea	 ebx, DWORD PTR [esi+484]
  00045	8b cb		 mov	 ecx, ebx
  00047	ff 15 00 00 00
	00		 call	 DWORD PTR __imp_?IsEmpty@ioHashString@@QBE_NXZ
  0004d	84 c0		 test	 al, al
  0004f	75 1a		 jne	 SHORT $LN12@OnResultTe@3

; 2783 : 		{
; 2784 : 			g_SoundMgr.PlaySound( m_szResultTextSound );

  00051	6a 04		 push	 4
  00053	6a 00		 push	 0
  00055	53		 push	 ebx
  00056	ff 15 00 00 00
	00		 call	 DWORD PTR __imp_?GetSingleton@ioSoundManager@@SAAAV1@XZ
  0005c	8b c8		 mov	 ecx, eax
  0005e	ff 15 00 00 00
	00		 call	 DWORD PTR __imp_?PlaySoundA@ioSoundManager@@QAEKABVioHashString@@HK@Z

; 2785 : 			m_bResultTextSound = false;

  00064	c6 86 14 02 00
	00 00		 mov	 BYTE PTR [esi+532], 0
$LN12@OnResultTe@3:
  0006b	5b		 pop	 ebx
$LN4@OnResultTe@3:

; 2786 : 		}
; 2787 : 
; 2788 : 		dwGapTime -= m_dwResultTextBlinkStartTime;

  0006c	2b be d0 05 00
	00		 sub	 edi, DWORD PTR [esi+1488]

; 2789 : 		if( dwGapTime < m_dwResultTextBlinkGapTime )

  00072	8b 86 d4 05 00
	00		 mov	 eax, DWORD PTR [esi+1492]
  00078	3b f8		 cmp	 edi, eax
  0007a	73 33		 jae	 SHORT $LN3@OnResultTe@3

; 2790 : 		{
; 2791 : 			m_fTournamentResultTextBlinkAniRate = (float)dwGapTime / m_dwResultTextBlinkGapTime;

  0007c	89 7d 08	 mov	 DWORD PTR tv218[ebp], edi
  0007f	db 45 08	 fild	 DWORD PTR tv218[ebp]
  00082	85 ff		 test	 edi, edi
  00084	79 06		 jns	 SHORT $LN14@OnResultTe@3
  00086	d8 05 00 00 00
	00		 fadd	 DWORD PTR __real@4f800000
$LN14@OnResultTe@3:
  0008c	89 45 08	 mov	 DWORD PTR tv215[ebp], eax
  0008f	db 45 08	 fild	 DWORD PTR tv215[ebp]
  00092	85 c0		 test	 eax, eax
  00094	79 06		 jns	 SHORT $LN15@OnResultTe@3
  00096	d8 05 00 00 00
	00		 fadd	 DWORD PTR __real@4f800000
$LN15@OnResultTe@3:
  0009c	de f9		 fdivp	 ST(1), ST(0)
  0009e	d9 5d 08	 fstp	 DWORD PTR tv220[ebp]
  000a1	d9 45 08	 fld	 DWORD PTR tv220[ebp]
  000a4	d9 9e 0c 06 00
	00		 fstp	 DWORD PTR [esi+1548]

; 2792 : 			m_fTournamentPesoScalingAniRate = (float)dwGapTime / m_dwResultTextBlinkGapTime;

  000aa	d9 45 08	 fld	 DWORD PTR tv220[ebp]

; 2793 : 		}
; 2794 : 		else

  000ad	eb 30		 jmp	 SHORT $LN17@OnResultTe@3
$LN3@OnResultTe@3:

; 2795 : 		{
; 2796 : 			m_fTournamentResultTextBlinkAniRate = FLOAT1;

  000af	b8 01 00 00 00	 mov	 eax, 1
  000b4	89 45 08	 mov	 DWORD PTR tv207[ebp], eax
  000b7	db 45 08	 fild	 DWORD PTR tv207[ebp]
  000ba	85 c0		 test	 eax, eax
  000bc	79 06		 jns	 SHORT $LN16@OnResultTe@3
  000be	d8 05 00 00 00
	00		 fadd	 DWORD PTR __real@4f800000
$LN16@OnResultTe@3:
  000c4	d9 9e 0c 06 00
	00		 fstp	 DWORD PTR [esi+1548]

; 2797 : 			m_fTournamentPesoScalingAniRate = FLOAT1;

  000ca	b8 01 00 00 00	 mov	 eax, 1
  000cf	89 45 08	 mov	 DWORD PTR tv202[ebp], eax
  000d2	db 45 08	 fild	 DWORD PTR tv202[ebp]
  000d5	85 c0		 test	 eax, eax
  000d7	79 06		 jns	 SHORT $LN17@OnResultTe@3
  000d9	d8 05 00 00 00
	00		 fadd	 DWORD PTR __real@4f800000
$LN17@OnResultTe@3:
  000df	d9 9e 14 06 00
	00		 fstp	 DWORD PTR [esi+1556]

; 2798 : 		}
; 2799 : 	}
; 2800 : 	else

  000e5	eb 13		 jmp	 SHORT $LN1@OnResultTe@3
$LN5@OnResultTe@3:

; 2801 : 	{
; 2802 : 		m_fTournamentResultTextBlinkAniRate = 0.0f;

  000e7	0f 57 c0	 xorps	 xmm0, xmm0
  000ea	f3 0f 11 86 0c
	06 00 00	 movss	 DWORD PTR [esi+1548], xmm0

; 2803 : 		m_fTournamentPesoScalingAniRate = 0.0f;

  000f2	f3 0f 11 86 14
	06 00 00	 movss	 DWORD PTR [esi+1556], xmm0
$LN1@OnResultTe@3:
  000fa	5f		 pop	 edi
  000fb	5e		 pop	 esi

; 2804 : 	}
; 2805 : }

  000fc	5d		 pop	 ebp
  000fd	c2 04 00	 ret	 4
?OnResultTextBlinkProcess@TotalResultTournamentWnd@@IAEXM@Z ENDP ; TotalResultTournamentWnd::OnResultTextBlinkProcess
_TEXT	ENDS
PUBLIC	?OnPesoRollingProcess@TotalResultTournamentWnd@@IAEXM@Z ; TotalResultTournamentWnd::OnPesoRollingProcess
EXTRN	__imp__rand:PROC
EXTRN	__CIpow:PROC
; Function compile flags: /Ogsp
;	COMDAT ?OnPesoRollingProcess@TotalResultTournamentWnd@@IAEXM@Z
_TEXT	SEGMENT
tv238 = -4						; size = 4
tv232 = -4						; size = 4
tv229 = -4						; size = 4
tv224 = -4						; size = 4
tv221 = -4						; size = 4
tv213 = -4						; size = 4
tv210 = -4						; size = 4
tv172 = 8						; size = 4
_dwCurTime$ = 8						; size = 4
?OnPesoRollingProcess@TotalResultTournamentWnd@@IAEXM@Z PROC ; TotalResultTournamentWnd::OnPesoRollingProcess, COMDAT
; _this$ = ecx

; 2808 : {

  00000	55		 push	 ebp
  00001	8b ec		 mov	 ebp, esp
  00003	51		 push	 ecx

; 2809 : 	DWORD dwGapTime = dwCurTime - m_dwStartTime;

  00004	d9 45 08	 fld	 DWORD PTR _dwCurTime$[ebp]
  00007	56		 push	 esi
  00008	8b f1		 mov	 esi, ecx
  0000a	8b 86 ac 05 00
	00		 mov	 eax, DWORD PTR [esi+1452]
  00010	db 86 ac 05 00
	00		 fild	 DWORD PTR [esi+1452]
  00016	57		 push	 edi
  00017	85 c0		 test	 eax, eax
  00019	79 06		 jns	 SHORT $LN12@OnPesoRoll
  0001b	d8 05 00 00 00
	00		 fadd	 DWORD PTR __real@4f800000
$LN12@OnPesoRoll:
  00021	de e9		 fsubp	 ST(1), ST(0)
  00023	e8 00 00 00 00	 call	 __ftol2

; 2810 : 	if( dwGapTime > m_dwPesoRollingStartTime )

  00028	8b 8e d8 05 00
	00		 mov	 ecx, DWORD PTR [esi+1496]
  0002e	3b c1		 cmp	 eax, ecx
  00030	0f 86 f4 00 00
	00		 jbe	 $LN5@OnPesoRoll

; 2811 : 	{
; 2812 : 		dwGapTime -= m_dwPesoRollingStartTime;

  00036	2b c1		 sub	 eax, ecx

; 2813 : 		if( dwGapTime < m_dwPesoRollingGapTime )

  00038	8b 8e dc 05 00
	00		 mov	 ecx, DWORD PTR [esi+1500]
  0003e	3b c1		 cmp	 eax, ecx
  00040	0f 83 bb 00 00
	00		 jae	 $LN4@OnPesoRoll

; 2814 : 		{
; 2815 : 			m_fTournamentPesoRollingAniRate = (float)dwGapTime / m_dwPesoRollingGapTime;

  00046	89 45 fc	 mov	 DWORD PTR tv232[ebp], eax
  00049	db 45 fc	 fild	 DWORD PTR tv232[ebp]
  0004c	85 c0		 test	 eax, eax
  0004e	79 06		 jns	 SHORT $LN13@OnPesoRoll
  00050	d8 05 00 00 00
	00		 fadd	 DWORD PTR __real@4f800000
$LN13@OnPesoRoll:
  00056	89 4d fc	 mov	 DWORD PTR tv229[ebp], ecx
  00059	db 45 fc	 fild	 DWORD PTR tv229[ebp]
  0005c	85 c9		 test	 ecx, ecx
  0005e	79 06		 jns	 SHORT $LN14@OnPesoRoll
  00060	d8 05 00 00 00
	00		 fadd	 DWORD PTR __real@4f800000
$LN14@OnPesoRoll:
  00066	de f9		 fdivp	 ST(1), ST(0)

; 2816 : 			if( dwCurTime - m_dwRolliningStartTime > m_dwPesoRollingTime )

  00068	8b 86 b0 05 00
	00		 mov	 eax, DWORD PTR [esi+1456]
  0006e	d9 9e 10 06 00
	00		 fstp	 DWORD PTR [esi+1552]
  00074	d9 45 08	 fld	 DWORD PTR _dwCurTime$[ebp]
  00077	db 86 b0 05 00
	00		 fild	 DWORD PTR [esi+1456]
  0007d	85 c0		 test	 eax, eax
  0007f	79 06		 jns	 SHORT $LN15@OnPesoRoll
  00081	d8 05 00 00 00
	00		 fadd	 DWORD PTR __real@4f800000
$LN15@OnPesoRoll:
  00087	8b 86 e0 05 00
	00		 mov	 eax, DWORD PTR [esi+1504]
  0008d	de e9		 fsubp	 ST(1), ST(0)
  0008f	db 86 e0 05 00
	00		 fild	 DWORD PTR [esi+1504]
  00095	85 c0		 test	 eax, eax
  00097	79 06		 jns	 SHORT $LN16@OnPesoRoll
  00099	d8 05 00 00 00
	00		 fadd	 DWORD PTR __real@4f800000
$LN16@OnPesoRoll:
  0009f	d9 c9		 fxch	 ST(1)
  000a1	df f1		 fcomip	 ST(1)
  000a3	dd d8		 fstp	 ST(0)
  000a5	0f 86 96 00 00
	00		 jbe	 $LN1@OnPesoRoll

; 2817 : 			{
; 2818 : 				int iSize = (int)pow(double(FLOAT10), (double)(m_iPesoSize-1));

  000ab	53		 push	 ebx
  000ac	b8 0a 00 00 00	 mov	 eax, 10			; 0000000aH
  000b1	89 45 fc	 mov	 DWORD PTR tv213[ebp], eax
  000b4	db 45 fc	 fild	 DWORD PTR tv213[ebp]
  000b7	85 c0		 test	 eax, eax
  000b9	79 06		 jns	 SHORT $LN17@OnPesoRoll
  000bb	d8 05 00 00 00
	00		 fadd	 DWORD PTR __real@4f800000
$LN17@OnPesoRoll:
  000c1	8b 86 44 02 00
	00		 mov	 eax, DWORD PTR [esi+580]
  000c7	48		 dec	 eax
  000c8	89 45 fc	 mov	 DWORD PTR tv210[ebp], eax
  000cb	db 45 fc	 fild	 DWORD PTR tv210[ebp]
  000ce	e8 00 00 00 00	 call	 __CIpow
  000d3	e8 00 00 00 00	 call	 __ftol2_sse
  000d8	8b d8		 mov	 ebx, eax

; 2819 : 				m_iPesoCurValue = rand() % (iSize * 9) + iSize;

  000da	ff 15 00 00 00
	00		 call	 DWORD PTR __imp__rand

; 2820 : 				m_dwRolliningStartTime = dwCurTime;

  000e0	d9 45 08	 fld	 DWORD PTR _dwCurTime$[ebp]
  000e3	8b cb		 mov	 ecx, ebx
  000e5	6b c9 09	 imul	 ecx, 9
  000e8	99		 cdq
  000e9	f7 f9		 idiv	 ecx
  000eb	03 d3		 add	 edx, ebx
  000ed	89 96 40 02 00
	00		 mov	 DWORD PTR [esi+576], edx
  000f3	e8 00 00 00 00	 call	 __ftol2
  000f8	89 86 b0 05 00
	00		 mov	 DWORD PTR [esi+1456], eax
  000fe	5b		 pop	 ebx

; 2821 : 			}
; 2822 : 		}
; 2823 : 		else

  000ff	eb 40		 jmp	 SHORT $LN1@OnPesoRoll
$LN4@OnPesoRoll:

; 2824 : 		{
; 2825 : 			m_iPesoCurValue = m_iPesoOrgValue;

  00101	8b 86 3c 02 00
	00		 mov	 eax, DWORD PTR [esi+572]
  00107	89 86 40 02 00
	00		 mov	 DWORD PTR [esi+576], eax

; 2826 : 			m_fTournamentPesoRollingAniRate = FLOAT1;

  0010d	b8 01 00 00 00	 mov	 eax, 1
  00112	89 45 08	 mov	 DWORD PTR tv172[ebp], eax
  00115	db 45 08	 fild	 DWORD PTR tv172[ebp]
  00118	85 c0		 test	 eax, eax
  0011a	79 06		 jns	 SHORT $LN18@OnPesoRoll
  0011c	d8 05 00 00 00
	00		 fadd	 DWORD PTR __real@4f800000
$LN18@OnPesoRoll:
  00122	d9 9e 10 06 00
	00		 fstp	 DWORD PTR [esi+1552]

; 2827 : 		}
; 2828 : 	}
; 2829 : 	else

  00128	eb 17		 jmp	 SHORT $LN1@OnPesoRoll
$LN5@OnPesoRoll:

; 2830 : 	{
; 2831 : 		m_iPesoCurValue = m_iPesoOrgValue;

  0012a	8b 86 3c 02 00
	00		 mov	 eax, DWORD PTR [esi+572]

; 2832 : 		m_fTournamentPesoRollingAniRate = 0.0f;

  00130	0f 57 c0	 xorps	 xmm0, xmm0
  00133	89 86 40 02 00
	00		 mov	 DWORD PTR [esi+576], eax
  00139	f3 0f 11 86 10
	06 00 00	 movss	 DWORD PTR [esi+1552], xmm0
$LN1@OnPesoRoll:
  00141	5f		 pop	 edi
  00142	5e		 pop	 esi

; 2833 : 	}
; 2834 : }

  00143	c9		 leave
  00144	c2 04 00	 ret	 4
?OnPesoRollingProcess@TotalResultTournamentWnd@@IAEXM@Z ENDP ; TotalResultTournamentWnd::OnPesoRollingProcess
_TEXT	ENDS
PUBLIC	?OnPesoBlinkProcess@TotalResultTournamentWnd@@IAEXM@Z ; TotalResultTournamentWnd::OnPesoBlinkProcess
; Function compile flags: /Ogsp
;	COMDAT ?OnPesoBlinkProcess@TotalResultTournamentWnd@@IAEXM@Z
_TEXT	SEGMENT
tv202 = 8						; size = 4
tv180 = 8						; size = 4
tv177 = 8						; size = 4
tv170 = 8						; size = 4
_dwCurTime$ = 8						; size = 4
?OnPesoBlinkProcess@TotalResultTournamentWnd@@IAEXM@Z PROC ; TotalResultTournamentWnd::OnPesoBlinkProcess, COMDAT
; _this$ = ecx

; 2837 : {

  00000	55		 push	 ebp
  00001	8b ec		 mov	 ebp, esp

; 2838 : 	DWORD dwGapTime = dwCurTime - m_dwStartTime;

  00003	d9 45 08	 fld	 DWORD PTR _dwCurTime$[ebp]
  00006	56		 push	 esi
  00007	8b f1		 mov	 esi, ecx
  00009	8b 86 ac 05 00
	00		 mov	 eax, DWORD PTR [esi+1452]
  0000f	db 86 ac 05 00
	00		 fild	 DWORD PTR [esi+1452]
  00015	57		 push	 edi
  00016	85 c0		 test	 eax, eax
  00018	79 06		 jns	 SHORT $LN11@OnPesoBlin
  0001a	d8 05 00 00 00
	00		 fadd	 DWORD PTR __real@4f800000
$LN11@OnPesoBlin:
  00020	de e9		 fsubp	 ST(1), ST(0)
  00022	e8 00 00 00 00	 call	 __ftol2
  00027	8b f8		 mov	 edi, eax

; 2839 : 	if( dwGapTime > m_dwPesoBlinkStartTime )

  00029	3b be e4 05 00
	00		 cmp	 edi, DWORD PTR [esi+1508]
  0002f	0f 86 88 00 00
	00		 jbe	 $LN5@OnPesoBlin

; 2840 : 	{
; 2841 : 		if( m_bPesoRollingSound && !m_szPesoRollingSound.IsEmpty() )

  00035	80 be 15 02 00
	00 00		 cmp	 BYTE PTR [esi+533], 0
  0003c	74 2e		 je	 SHORT $LN4@OnPesoBlin
  0003e	53		 push	 ebx
  0003f	8d 9e f4 01 00
	00		 lea	 ebx, DWORD PTR [esi+500]
  00045	8b cb		 mov	 ecx, ebx
  00047	ff 15 00 00 00
	00		 call	 DWORD PTR __imp_?IsEmpty@ioHashString@@QBE_NXZ
  0004d	84 c0		 test	 al, al
  0004f	75 1a		 jne	 SHORT $LN10@OnPesoBlin

; 2842 : 		{
; 2843 : 			g_SoundMgr.PlaySound( m_szPesoRollingSound );

  00051	6a 04		 push	 4
  00053	6a 00		 push	 0
  00055	53		 push	 ebx
  00056	ff 15 00 00 00
	00		 call	 DWORD PTR __imp_?GetSingleton@ioSoundManager@@SAAAV1@XZ
  0005c	8b c8		 mov	 ecx, eax
  0005e	ff 15 00 00 00
	00		 call	 DWORD PTR __imp_?PlaySoundA@ioSoundManager@@QAEKABVioHashString@@HK@Z

; 2844 : 			m_bPesoRollingSound = false;

  00064	c6 86 15 02 00
	00 00		 mov	 BYTE PTR [esi+533], 0
$LN10@OnPesoBlin:
  0006b	5b		 pop	 ebx
$LN4@OnPesoBlin:

; 2845 : 		}
; 2846 : 
; 2847 : 		dwGapTime -= m_dwPesoBlinkStartTime;

  0006c	2b be e4 05 00
	00		 sub	 edi, DWORD PTR [esi+1508]

; 2848 : 		if( dwGapTime < m_dwPesoBlinkGapTime )

  00072	8b 86 e8 05 00
	00		 mov	 eax, DWORD PTR [esi+1512]
  00078	3b f8		 cmp	 edi, eax
  0007a	73 24		 jae	 SHORT $LN3@OnPesoBlin

; 2849 : 		{
; 2850 : 			m_fTournamentPesoBlinkAniRate = (float)dwGapTime / m_dwPesoBlinkGapTime;

  0007c	89 7d 08	 mov	 DWORD PTR tv180[ebp], edi
  0007f	db 45 08	 fild	 DWORD PTR tv180[ebp]
  00082	85 ff		 test	 edi, edi
  00084	79 06		 jns	 SHORT $LN12@OnPesoBlin
  00086	d8 05 00 00 00
	00		 fadd	 DWORD PTR __real@4f800000
$LN12@OnPesoBlin:
  0008c	89 45 08	 mov	 DWORD PTR tv177[ebp], eax
  0008f	db 45 08	 fild	 DWORD PTR tv177[ebp]
  00092	85 c0		 test	 eax, eax
  00094	79 06		 jns	 SHORT $LN13@OnPesoBlin
  00096	d8 05 00 00 00
	00		 fadd	 DWORD PTR __real@4f800000
$LN13@OnPesoBlin:
  0009c	de f9		 fdivp	 ST(1), ST(0)

; 2851 : 		}
; 2852 : 		else

  0009e	eb 15		 jmp	 SHORT $LN14@OnPesoBlin
$LN3@OnPesoBlin:

; 2853 : 		{
; 2854 : 			m_fTournamentPesoBlinkAniRate = FLOAT1;

  000a0	b8 01 00 00 00	 mov	 eax, 1
  000a5	89 45 08	 mov	 DWORD PTR tv170[ebp], eax
  000a8	db 45 08	 fild	 DWORD PTR tv170[ebp]
  000ab	85 c0		 test	 eax, eax
  000ad	79 06		 jns	 SHORT $LN14@OnPesoBlin
  000af	d8 05 00 00 00
	00		 fadd	 DWORD PTR __real@4f800000
$LN14@OnPesoBlin:
  000b5	d9 9e 18 06 00
	00		 fstp	 DWORD PTR [esi+1560]

; 2855 : 		}
; 2856 : 	}
; 2857 : 	else

  000bb	eb 0b		 jmp	 SHORT $LN1@OnPesoBlin
$LN5@OnPesoBlin:

; 2858 : 	{
; 2859 : 		m_fTournamentPesoBlinkAniRate = 0.0f;

  000bd	0f 57 c0	 xorps	 xmm0, xmm0
  000c0	f3 0f 11 86 18
	06 00 00	 movss	 DWORD PTR [esi+1560], xmm0
$LN1@OnPesoBlin:
  000c8	5f		 pop	 edi
  000c9	5e		 pop	 esi

; 2860 : 	}
; 2861 : }

  000ca	5d		 pop	 ebp
  000cb	c2 04 00	 ret	 4
?OnPesoBlinkProcess@TotalResultTournamentWnd@@IAEXM@Z ENDP ; TotalResultTournamentWnd::OnPesoBlinkProcess
_TEXT	ENDS
PUBLIC	?OnGaugeStrechProcess@TotalResultTournamentWnd@@IAEXM@Z ; TotalResultTournamentWnd::OnGaugeStrechProcess
; Function compile flags: /Ogsp
;	COMDAT ?OnGaugeStrechProcess@TotalResultTournamentWnd@@IAEXM@Z
_TEXT	SEGMENT
tv235 = 8						; size = 4
tv224 = 8						; size = 4
tv220 = 8						; size = 4
tv215 = 8						; size = 4
_dwCurTime$ = 8						; size = 4
?OnGaugeStrechProcess@TotalResultTournamentWnd@@IAEXM@Z PROC ; TotalResultTournamentWnd::OnGaugeStrechProcess, COMDAT
; _this$ = ecx

; 2864 : {

  00000	55		 push	 ebp
  00001	8b ec		 mov	 ebp, esp

; 2865 : 	DWORD dwGapTime = dwCurTime - m_dwStartTime;

  00003	d9 45 08	 fld	 DWORD PTR _dwCurTime$[ebp]
  00006	53		 push	 ebx
  00007	56		 push	 esi
  00008	8b f1		 mov	 esi, ecx
  0000a	8b 86 ac 05 00
	00		 mov	 eax, DWORD PTR [esi+1452]
  00010	db 86 ac 05 00
	00		 fild	 DWORD PTR [esi+1452]
  00016	57		 push	 edi
  00017	85 c0		 test	 eax, eax
  00019	79 06		 jns	 SHORT $LN11@OnGaugeStr
  0001b	d8 05 00 00 00
	00		 fadd	 DWORD PTR __real@4f800000
$LN11@OnGaugeStr:
  00021	de e9		 fsubp	 ST(1), ST(0)
  00023	e8 00 00 00 00	 call	 __ftol2
  00028	8b d8		 mov	 ebx, eax

; 2866 : 	if( dwGapTime > m_dwGagueStrechStartTime )

  0002a	8b 86 f0 05 00
	00		 mov	 eax, DWORD PTR [esi+1520]
  00030	3b d8		 cmp	 ebx, eax
  00032	0f 86 b1 00 00
	00		 jbe	 $LN6@OnGaugeStr

; 2867 : 	{
; 2868 : 		dwGapTime -= m_dwGagueStrechStartTime;

  00038	2b d8		 sub	 ebx, eax

; 2869 : 		if( dwGapTime < m_dwGagueStrechGapTime )

  0003a	3b 9e f4 05 00
	00		 cmp	 ebx, DWORD PTR [esi+1524]
  00040	0f 83 86 00 00
	00		 jae	 $LN5@OnGaugeStr

; 2870 : 		{
; 2871 : 			if( m_bGaugeStrechSound && !m_szGaugeStrechSound.IsEmpty() )

  00046	80 be 16 02 00
	00 00		 cmp	 BYTE PTR [esi+534], 0
  0004d	74 53		 je	 SHORT $LN4@OnGaugeStr
  0004f	8d 8e 04 02 00
	00		 lea	 ecx, DWORD PTR [esi+516]
  00055	ff 15 00 00 00
	00		 call	 DWORD PTR __imp_?IsEmpty@ioHashString@@QBE_NXZ
  0005b	84 c0		 test	 al, al
  0005d	75 43		 jne	 SHORT $LN4@OnGaugeStr

; 2872 : 			{
; 2873 : 				if( GetParent() )

  0005f	8b ce		 mov	 ecx, esi
  00061	ff 15 00 00 00
	00		 call	 DWORD PTR __imp_?GetParent@ioWnd@@QAEPAV1@XZ
  00067	85 c0		 test	 eax, eax
  00069	74 17		 je	 SHORT $LN3@OnGaugeStr

; 2874 : 					GetParent()->iwm_command( this, TORUNAMENT_GUAGE_COMPLETE, 0 );

  0006b	8b ce		 mov	 ecx, esi
  0006d	ff 15 00 00 00
	00		 call	 DWORD PTR __imp_?GetParent@ioWnd@@QAEPAV1@XZ
  00073	8b 10		 mov	 edx, DWORD PTR [eax]
  00075	6a 00		 push	 0
  00077	6a 00		 push	 0
  00079	56		 push	 esi
  0007a	8b c8		 mov	 ecx, eax
  0007c	ff 92 8c 00 00
	00		 call	 DWORD PTR [edx+140]
$LN3@OnGaugeStr:

; 2875 : 
; 2876 : 				g_SoundMgr.PlaySound( m_szGaugeStrechSound );

  00082	6a 04		 push	 4
  00084	8d 86 04 02 00
	00		 lea	 eax, DWORD PTR [esi+516]
  0008a	6a 00		 push	 0
  0008c	50		 push	 eax
  0008d	ff 15 00 00 00
	00		 call	 DWORD PTR __imp_?GetSingleton@ioSoundManager@@SAAAV1@XZ
  00093	8b c8		 mov	 ecx, eax
  00095	ff 15 00 00 00
	00		 call	 DWORD PTR __imp_?PlaySoundA@ioSoundManager@@QAEKABVioHashString@@HK@Z

; 2877 : 				m_bGaugeStrechSound = false;

  0009b	c6 86 16 02 00
	00 00		 mov	 BYTE PTR [esi+534], 0
$LN4@OnGaugeStr:

; 2878 : 			}
; 2879 : 
; 2880 : 			m_fTournamentGaugeStrechAniRate = (float)dwGapTime / m_dwGagueStrechGapTime;

  000a2	89 5d 08	 mov	 DWORD PTR tv224[ebp], ebx
  000a5	db 45 08	 fild	 DWORD PTR tv224[ebp]
  000a8	85 db		 test	 ebx, ebx
  000aa	79 06		 jns	 SHORT $LN12@OnGaugeStr
  000ac	d8 05 00 00 00
	00		 fadd	 DWORD PTR __real@4f800000
$LN12@OnGaugeStr:
  000b2	8b 86 f4 05 00
	00		 mov	 eax, DWORD PTR [esi+1524]
  000b8	db 86 f4 05 00
	00		 fild	 DWORD PTR [esi+1524]
  000be	85 c0		 test	 eax, eax
  000c0	79 06		 jns	 SHORT $LN13@OnGaugeStr
  000c2	d8 05 00 00 00
	00		 fadd	 DWORD PTR __real@4f800000
$LN13@OnGaugeStr:
  000c8	de f9		 fdivp	 ST(1), ST(0)

; 2881 : 		}
; 2882 : 		else

  000ca	eb 15		 jmp	 SHORT $LN14@OnGaugeStr
$LN5@OnGaugeStr:

; 2883 : 		{
; 2884 : 			m_fTournamentGaugeStrechAniRate = FLOAT1;	

  000cc	b8 01 00 00 00	 mov	 eax, 1
  000d1	89 45 08	 mov	 DWORD PTR tv215[ebp], eax
  000d4	db 45 08	 fild	 DWORD PTR tv215[ebp]
  000d7	85 c0		 test	 eax, eax
  000d9	79 06		 jns	 SHORT $LN14@OnGaugeStr
  000db	d8 05 00 00 00
	00		 fadd	 DWORD PTR __real@4f800000
$LN14@OnGaugeStr:
  000e1	d9 9e 1c 06 00
	00		 fstp	 DWORD PTR [esi+1564]

; 2885 : 		}
; 2886 : 	}
; 2887 : 	else

  000e7	eb 0b		 jmp	 SHORT $LN1@OnGaugeStr
$LN6@OnGaugeStr:

; 2888 : 	{
; 2889 : 		m_fTournamentGaugeStrechAniRate = 0.0f;

  000e9	0f 57 c0	 xorps	 xmm0, xmm0
  000ec	f3 0f 11 86 1c
	06 00 00	 movss	 DWORD PTR [esi+1564], xmm0
$LN1@OnGaugeStr:
  000f4	5f		 pop	 edi
  000f5	5e		 pop	 esi
  000f6	5b		 pop	 ebx

; 2890 : 	}
; 2891 : }

  000f7	5d		 pop	 ebp
  000f8	c2 04 00	 ret	 4
?OnGaugeStrechProcess@TotalResultTournamentWnd@@IAEXM@Z ENDP ; TotalResultTournamentWnd::OnGaugeStrechProcess
_TEXT	ENDS
PUBLIC	?OnGaugeTextAlphaProcess@TotalResultTournamentWnd@@IAEXM@Z ; TotalResultTournamentWnd::OnGaugeTextAlphaProcess
; Function compile flags: /Ogsp
;	COMDAT ?OnGaugeTextAlphaProcess@TotalResultTournamentWnd@@IAEXM@Z
_TEXT	SEGMENT
tv194 = 8						; size = 4
tv174 = 8						; size = 4
tv171 = 8						; size = 4
tv165 = 8						; size = 4
_dwCurTime$ = 8						; size = 4
?OnGaugeTextAlphaProcess@TotalResultTournamentWnd@@IAEXM@Z PROC ; TotalResultTournamentWnd::OnGaugeTextAlphaProcess, COMDAT
; _this$ = ecx

; 2894 : {

  00000	55		 push	 ebp
  00001	8b ec		 mov	 ebp, esp

; 2895 : 	DWORD dwGapTime = dwCurTime - m_dwStartTime;

  00003	d9 45 08	 fld	 DWORD PTR _dwCurTime$[ebp]
  00006	56		 push	 esi
  00007	8b f1		 mov	 esi, ecx
  00009	8b 86 ac 05 00
	00		 mov	 eax, DWORD PTR [esi+1452]
  0000f	db 86 ac 05 00
	00		 fild	 DWORD PTR [esi+1452]
  00015	85 c0		 test	 eax, eax
  00017	79 06		 jns	 SHORT $LN9@OnGaugeTex
  00019	d8 05 00 00 00
	00		 fadd	 DWORD PTR __real@4f800000
$LN9@OnGaugeTex:
  0001f	de e9		 fsubp	 ST(1), ST(0)
  00021	e8 00 00 00 00	 call	 __ftol2

; 2896 : 	if( dwGapTime > m_dwRoundTextStartTime )

  00026	8b 8e f8 05 00
	00		 mov	 ecx, DWORD PTR [esi+1528]
  0002c	3b c1		 cmp	 eax, ecx
  0002e	76 4d		 jbe	 SHORT $LN4@OnGaugeTex

; 2897 : 	{
; 2898 : 		dwGapTime -= m_dwRoundTextStartTime;

  00030	2b c1		 sub	 eax, ecx

; 2899 : 		if( dwGapTime < m_dwRoundTextGapTime )

  00032	8b 8e fc 05 00
	00		 mov	 ecx, DWORD PTR [esi+1532]
  00038	3b c1		 cmp	 eax, ecx
  0003a	73 24		 jae	 SHORT $LN3@OnGaugeTex

; 2900 : 		{
; 2901 : 			m_fTournamentGaugeAlphaAniRate = (float)dwGapTime / m_dwRoundTextGapTime;

  0003c	89 45 08	 mov	 DWORD PTR tv174[ebp], eax
  0003f	db 45 08	 fild	 DWORD PTR tv174[ebp]
  00042	85 c0		 test	 eax, eax
  00044	79 06		 jns	 SHORT $LN10@OnGaugeTex
  00046	d8 05 00 00 00
	00		 fadd	 DWORD PTR __real@4f800000
$LN10@OnGaugeTex:
  0004c	89 4d 08	 mov	 DWORD PTR tv171[ebp], ecx
  0004f	db 45 08	 fild	 DWORD PTR tv171[ebp]
  00052	85 c9		 test	 ecx, ecx
  00054	79 06		 jns	 SHORT $LN11@OnGaugeTex
  00056	d8 05 00 00 00
	00		 fadd	 DWORD PTR __real@4f800000
$LN11@OnGaugeTex:
  0005c	de f9		 fdivp	 ST(1), ST(0)

; 2902 : 		}
; 2903 : 		else

  0005e	eb 15		 jmp	 SHORT $LN12@OnGaugeTex
$LN3@OnGaugeTex:

; 2904 : 		{
; 2905 : 			m_fTournamentGaugeAlphaAniRate = FLOAT1;

  00060	b8 01 00 00 00	 mov	 eax, 1
  00065	89 45 08	 mov	 DWORD PTR tv165[ebp], eax
  00068	db 45 08	 fild	 DWORD PTR tv165[ebp]
  0006b	85 c0		 test	 eax, eax
  0006d	79 06		 jns	 SHORT $LN12@OnGaugeTex
  0006f	d8 05 00 00 00
	00		 fadd	 DWORD PTR __real@4f800000
$LN12@OnGaugeTex:
  00075	d9 9e 20 06 00
	00		 fstp	 DWORD PTR [esi+1568]

; 2906 : 		}
; 2907 : 	}
; 2908 : 	else

  0007b	eb 0b		 jmp	 SHORT $LN1@OnGaugeTex
$LN4@OnGaugeTex:

; 2909 : 	{
; 2910 : 		m_fTournamentGaugeAlphaAniRate = 0.0f;

  0007d	0f 57 c0	 xorps	 xmm0, xmm0
  00080	f3 0f 11 86 20
	06 00 00	 movss	 DWORD PTR [esi+1568], xmm0
$LN1@OnGaugeTex:
  00088	5e		 pop	 esi

; 2911 : 	}
; 2912 : }

  00089	5d		 pop	 ebp
  0008a	c2 04 00	 ret	 4
?OnGaugeTextAlphaProcess@TotalResultTournamentWnd@@IAEXM@Z ENDP ; TotalResultTournamentWnd::OnGaugeTextAlphaProcess
_TEXT	ENDS
PUBLIC	?OnProcess@TotalResultTournamentWnd@@MAEXM@Z	; TotalResultTournamentWnd::OnProcess
EXTRN	?Update@ioCreateChar@@QAEXM@Z:PROC		; ioCreateChar::Update
; Function compile flags: /Ogsp
;	COMDAT ?OnProcess@TotalResultTournamentWnd@@MAEXM@Z
_TEXT	SEGMENT
tv165 = 8						; size = 4
tv128 = 8						; size = 4
_fTimePerSec$ = 8					; size = 4
?OnProcess@TotalResultTournamentWnd@@MAEXM@Z PROC	; TotalResultTournamentWnd::OnProcess, COMDAT
; _this$ = ecx

; 2915 : {

  00000	55		 push	 ebp
  00001	8b ec		 mov	 ebp, esp
  00003	56		 push	 esi
  00004	8b f1		 mov	 esi, ecx

; 2916 : 	if( !IsShow() ) return;

  00006	ff 15 00 00 00
	00		 call	 DWORD PTR __imp_?IsShow@ioWnd@@QBE_NXZ
  0000c	84 c0		 test	 al, al
  0000e	0f 84 cb 00 00
	00		 je	 $LN3@OnProcess@4

; 2917 : 
; 2918 : 	if( m_aMyChar )

  00014	8b 8e 64 02 00
	00		 mov	 ecx, DWORD PTR [esi+612]
  0001a	85 c9		 test	 ecx, ecx
  0001c	74 10		 je	 SHORT $LN1@OnProcess@4

; 2919 : 		m_aMyChar->Update( fTimePerSec );

  0001e	f3 0f 10 45 08	 movss	 xmm0, DWORD PTR _fTimePerSec$[ebp]
  00023	51		 push	 ecx
  00024	f3 0f 11 04 24	 movss	 DWORD PTR [esp], xmm0
  00029	e8 00 00 00 00	 call	 ?Update@ioCreateChar@@QAEXM@Z ; ioCreateChar::Update
$LN1@OnProcess@4:

; 2920 : 	
; 2921 : 	DWORD dwCurTime = FRAMEGETTIME();

  0002e	ff 15 00 00 00
	00		 call	 DWORD PTR __imp_?GetSingleton@ioFrameTimer@@SAAAV1@XZ
  00034	8b c8		 mov	 ecx, eax
  00036	ff 15 00 00 00
	00		 call	 DWORD PTR __imp_?GetLoopSec@ioFrameTimer@@QBEKXZ

; 2922 : 
; 2923 : 	OnTeamNameMoveProcess( dwCurTime );

  0003c	89 45 08	 mov	 DWORD PTR tv128[ebp], eax
  0003f	db 45 08	 fild	 DWORD PTR tv128[ebp]
  00042	85 c0		 test	 eax, eax
  00044	79 06		 jns	 SHORT $LN5@OnProcess@4
  00046	d8 05 00 00 00
	00		 fadd	 DWORD PTR __real@4f800000
$LN5@OnProcess@4:
  0004c	51		 push	 ecx
  0004d	d9 5d 08	 fstp	 DWORD PTR tv165[ebp]
  00050	f3 0f 10 45 08	 movss	 xmm0, DWORD PTR tv165[ebp]
  00055	8b ce		 mov	 ecx, esi
  00057	f3 0f 11 04 24	 movss	 DWORD PTR [esp], xmm0
  0005c	e8 00 00 00 00	 call	 ?OnTeamNameMoveProcess@TotalResultTournamentWnd@@IAEXM@Z ; TotalResultTournamentWnd::OnTeamNameMoveProcess

; 2924 : 	OnResultTextMoveProcess( dwCurTime );

  00061	f3 0f 10 45 08	 movss	 xmm0, DWORD PTR tv165[ebp]
  00066	51		 push	 ecx
  00067	8b ce		 mov	 ecx, esi
  00069	f3 0f 11 04 24	 movss	 DWORD PTR [esp], xmm0
  0006e	e8 00 00 00 00	 call	 ?OnResultTextMoveProcess@TotalResultTournamentWnd@@IAEXM@Z ; TotalResultTournamentWnd::OnResultTextMoveProcess

; 2925 : 	OnResultTextBackProcess( dwCurTime );

  00073	f3 0f 10 45 08	 movss	 xmm0, DWORD PTR tv165[ebp]
  00078	51		 push	 ecx
  00079	8b ce		 mov	 ecx, esi
  0007b	f3 0f 11 04 24	 movss	 DWORD PTR [esp], xmm0
  00080	e8 00 00 00 00	 call	 ?OnResultTextBackProcess@TotalResultTournamentWnd@@IAEXM@Z ; TotalResultTournamentWnd::OnResultTextBackProcess

; 2926 : 	OnResultTextBlinkProcess( dwCurTime );

  00085	f3 0f 10 45 08	 movss	 xmm0, DWORD PTR tv165[ebp]
  0008a	51		 push	 ecx
  0008b	8b ce		 mov	 ecx, esi
  0008d	f3 0f 11 04 24	 movss	 DWORD PTR [esp], xmm0
  00092	e8 00 00 00 00	 call	 ?OnResultTextBlinkProcess@TotalResultTournamentWnd@@IAEXM@Z ; TotalResultTournamentWnd::OnResultTextBlinkProcess

; 2927 : 	OnPesoRollingProcess( dwCurTime );

  00097	f3 0f 10 45 08	 movss	 xmm0, DWORD PTR tv165[ebp]
  0009c	51		 push	 ecx
  0009d	8b ce		 mov	 ecx, esi
  0009f	f3 0f 11 04 24	 movss	 DWORD PTR [esp], xmm0
  000a4	e8 00 00 00 00	 call	 ?OnPesoRollingProcess@TotalResultTournamentWnd@@IAEXM@Z ; TotalResultTournamentWnd::OnPesoRollingProcess

; 2928 : 	OnPesoBlinkProcess( dwCurTime );

  000a9	f3 0f 10 45 08	 movss	 xmm0, DWORD PTR tv165[ebp]
  000ae	51		 push	 ecx
  000af	8b ce		 mov	 ecx, esi
  000b1	f3 0f 11 04 24	 movss	 DWORD PTR [esp], xmm0
  000b6	e8 00 00 00 00	 call	 ?OnPesoBlinkProcess@TotalResultTournamentWnd@@IAEXM@Z ; TotalResultTournamentWnd::OnPesoBlinkProcess

; 2929 : 	OnGaugeStrechProcess( dwCurTime );

  000bb	f3 0f 10 45 08	 movss	 xmm0, DWORD PTR tv165[ebp]
  000c0	51		 push	 ecx
  000c1	8b ce		 mov	 ecx, esi
  000c3	f3 0f 11 04 24	 movss	 DWORD PTR [esp], xmm0
  000c8	e8 00 00 00 00	 call	 ?OnGaugeStrechProcess@TotalResultTournamentWnd@@IAEXM@Z ; TotalResultTournamentWnd::OnGaugeStrechProcess

; 2930 : 	OnGaugeTextAlphaProcess( dwCurTime );

  000cd	f3 0f 10 45 08	 movss	 xmm0, DWORD PTR tv165[ebp]
  000d2	51		 push	 ecx
  000d3	8b ce		 mov	 ecx, esi
  000d5	f3 0f 11 04 24	 movss	 DWORD PTR [esp], xmm0
  000da	e8 00 00 00 00	 call	 ?OnGaugeTextAlphaProcess@TotalResultTournamentWnd@@IAEXM@Z ; TotalResultTournamentWnd::OnGaugeTextAlphaProcess
$LN3@OnProcess@4:
  000df	5e		 pop	 esi

; 2931 : } 

  000e0	5d		 pop	 ebp
  000e1	c2 04 00	 ret	 4
?OnProcess@TotalResultTournamentWnd@@MAEXM@Z ENDP	; TotalResultTournamentWnd::OnProcess
_TEXT	ENDS
PUBLIC	??_C@_0CL@NJDLMOCN@TotalResultTournamentWnd?3?3OnTeam@ ; `string'
PUBLIC	?OnTeamNameRender@TotalResultTournamentWnd@@IAEXHH@Z ; TotalResultTournamentWnd::OnTeamNameRender
EXTRN	__imp_?PrintTextAlpha@ioFontManager@@QAEXMMMEPBD0@Z:PROC
EXTRN	__imp_?SetTextColor@ioFontManager@@QAEXK@Z:PROC
EXTRN	__imp_?SetBkColor@ioFontManager@@QAEXHHH@Z:PROC
EXTRN	__imp_?SetAlignType@ioFontManager@@QAEXW4TextAlignType@@@Z:PROC
EXTRN	__imp_?SetTextStyle@ioFontManager@@QAEXW4TextStyle@@@Z:PROC
EXTRN	__imp_?GetSingleton@ioFontManager@@SAAAV1@XZ:PROC
;	COMDAT ??_C@_0CL@NJDLMOCN@TotalResultTournamentWnd?3?3OnTeam@
; File c:\program files (x86)\microsoft visual studio 10.0\vc\include\math.h
CONST	SEGMENT
??_C@_0CL@NJDLMOCN@TotalResultTournamentWnd?3?3OnTeam@ DB 'TotalResultTou'
	DB	'rnamentWnd::OnTeamNameRender', 00H		; `string'
; Function compile flags: /Ogsp
; File d:\lost saga for developer\youtube\tutorial\source\src\lsclient\gui\totalresultmainwnd.cpp
CONST	ENDS
;	COMDAT ?OnTeamNameRender@TotalResultTournamentWnd@@IAEXHH@Z
_TEXT	SEGMENT
tv273 = -16						; size = 8
tv323 = -12						; size = 4
tv319 = -12						; size = 4
tv315 = -12						; size = 4
tv306 = -12						; size = 4
tv303 = -12						; size = 4
tv256 = -12						; size = 4
_iCurXPos$ = -12					; size = 4
tv299 = -8						; size = 4
tv296 = -8						; size = 4
tv289 = -8						; size = 4
tv261 = -8						; size = 4
tv244 = -8						; size = 4
tv240 = -8						; size = 4
tv236 = -8						; size = 4
tv230 = -8						; size = 4
tv166 = -8						; size = 4
tv150 = -8						; size = 4
$T555883 = -8						; size = 4
$T555870 = -8						; size = 4
$T555840 = -8						; size = 4
tv310 = -4						; size = 4
$T555874 = -4						; size = 4
$T555844 = -4						; size = 4
_iXPos$ = 8						; size = 4
_iYPos$ = 12						; size = 4
?OnTeamNameRender@TotalResultTournamentWnd@@IAEXHH@Z PROC ; TotalResultTournamentWnd::OnTeamNameRender, COMDAT
; _this$ = ecx

; 2963 : {

  00000	55		 push	 ebp
  00001	8b ec		 mov	 ebp, esp
  00003	83 ec 10	 sub	 esp, 16			; 00000010H
  00006	53		 push	 ebx
  00007	56		 push	 esi

; 2964 : 	g_FontMgr.SetTextStyle( TS_NORMAL );

  00008	8b 35 00 00 00
	00		 mov	 esi, DWORD PTR __imp_?GetSingleton@ioFontManager@@SAAAV1@XZ
  0000e	57		 push	 edi
  0000f	33 db		 xor	 ebx, ebx
  00011	53		 push	 ebx
  00012	8b f9		 mov	 edi, ecx
  00014	ff d6		 call	 esi
  00016	8b c8		 mov	 ecx, eax
  00018	ff 15 00 00 00
	00		 call	 DWORD PTR __imp_?SetTextStyle@ioFontManager@@QAEXW4TextStyle@@@Z

; 2965 : 	g_FontMgr.SetAlignType( TAT_RIGHT );

  0001e	6a 02		 push	 2
  00020	ff d6		 call	 esi
  00022	8b c8		 mov	 ecx, eax
  00024	ff 15 00 00 00
	00		 call	 DWORD PTR __imp_?SetAlignType@ioFontManager@@QAEXW4TextAlignType@@@Z

; 2966 : 	g_FontMgr.SetBkColor( 0, 0, 0 );

  0002a	53		 push	 ebx
  0002b	53		 push	 ebx
  0002c	53		 push	 ebx
  0002d	ff d6		 call	 esi
  0002f	8b c8		 mov	 ecx, eax
  00031	ff 15 00 00 00
	00		 call	 DWORD PTR __imp_?SetBkColor@ioFontManager@@QAEXHHH@Z

; 2967 : 	g_FontMgr.SetTextColor( TCT_DEFAULT_DARKGRAY );

  00037	68 3a 3a 3a ff	 push	 -12961222		; ff3a3a3aH
  0003c	ff d6		 call	 esi
  0003e	8b c8		 mov	 ecx, eax
  00040	ff 15 00 00 00
	00		 call	 DWORD PTR __imp_?SetTextColor@ioFontManager@@QAEXK@Z

; 2968 : 	
; 2969 : 	int iCurXPos = (FLOAT1 - sin( FLOAT_PI * FLOAT05 * m_fTournamentTeamAniRate)) * m_dwTeamNameXPos;

  00046	b8 01 00 00 00	 mov	 eax, 1
  0004b	8b c8		 mov	 ecx, eax
  0004d	b8 4e e6 40 bb	 mov	 eax, -1153374642	; bb40e64eH
  00052	8b d0		 mov	 edx, eax
  00054	b8 00 ca 9a 3b	 mov	 eax, 1000000000		; 3b9aca00H
  00059	89 45 f8	 mov	 DWORD PTR $T555840[ebp], eax
  0005c	b8 05 00 00 00	 mov	 eax, 5
  00061	89 45 fc	 mov	 DWORD PTR $T555844[ebp], eax
  00064	b8 0a 00 00 00	 mov	 eax, 10			; 0000000aH
  00069	89 4d f4	 mov	 DWORD PTR tv323[ebp], ecx
  0006c	db 45 f4	 fild	 DWORD PTR tv323[ebp]
  0006f	85 c9		 test	 ecx, ecx
  00071	79 06		 jns	 SHORT $LN29@OnTeamName@2
  00073	d8 05 00 00 00
	00		 fadd	 DWORD PTR __real@4f800000
$LN29@OnTeamName@2:
  00079	8b 4d fc	 mov	 ecx, DWORD PTR $T555844[ebp]
  0007c	db 45 fc	 fild	 DWORD PTR $T555844[ebp]
  0007f	85 c9		 test	 ecx, ecx
  00081	79 06		 jns	 SHORT $LN30@OnTeamName@2
  00083	d8 05 00 00 00
	00		 fadd	 DWORD PTR __real@4f800000
$LN30@OnTeamName@2:
  00089	89 45 f4	 mov	 DWORD PTR tv315[ebp], eax
  0008c	db 45 f4	 fild	 DWORD PTR tv315[ebp]
  0008f	85 c0		 test	 eax, eax
  00091	79 06		 jns	 SHORT $LN31@OnTeamName@2
  00093	d8 05 00 00 00
	00		 fadd	 DWORD PTR __real@4f800000
$LN31@OnTeamName@2:
  00099	de f9		 fdivp	 ST(1), ST(0)
  0009b	89 55 f4	 mov	 DWORD PTR tv306[ebp], edx
  0009e	d9 5d fc	 fstp	 DWORD PTR tv310[ebp]
  000a1	d9 45 fc	 fld	 DWORD PTR tv310[ebp]
  000a4	db 45 f4	 fild	 DWORD PTR tv306[ebp]
  000a7	85 d2		 test	 edx, edx
  000a9	79 06		 jns	 SHORT $LN32@OnTeamName@2
  000ab	d8 05 00 00 00
	00		 fadd	 DWORD PTR __real@4f800000
$LN32@OnTeamName@2:
  000b1	8b 45 f8	 mov	 eax, DWORD PTR $T555840[ebp]
  000b4	db 45 f8	 fild	 DWORD PTR $T555840[ebp]
  000b7	85 c0		 test	 eax, eax
  000b9	79 06		 jns	 SHORT $LN33@OnTeamName@2
  000bb	d8 05 00 00 00
	00		 fadd	 DWORD PTR __real@4f800000
$LN33@OnTeamName@2:
  000c1	de f9		 fdivp	 ST(1), ST(0)
  000c3	d9 5d f8	 fstp	 DWORD PTR tv299[ebp]
  000c6	d8 4d f8	 fmul	 DWORD PTR tv299[ebp]
  000c9	d8 8f 00 06 00
	00		 fmul	 DWORD PTR [edi+1536]
  000cf	d9 5d f8	 fstp	 DWORD PTR tv296[ebp]
  000d2	d9 45 f8	 fld	 DWORD PTR tv296[ebp]
  000d5	d9 c9		 fxch	 ST(1)
  000d7	dd 5d f0	 fstp	 QWORD PTR tv273[ebp]
  000da	e8 00 00 00 00	 call	 __CIsin
  000df	d9 5d f8	 fstp	 DWORD PTR tv289[ebp]
  000e2	d9 45 f8	 fld	 DWORD PTR tv289[ebp]
  000e5	8b 87 bc 05 00
	00		 mov	 eax, DWORD PTR [edi+1468]
  000eb	dc 6d f0	 fsubr	 QWORD PTR tv273[ebp]
  000ee	db 87 bc 05 00
	00		 fild	 DWORD PTR [edi+1468]
  000f4	85 c0		 test	 eax, eax
  000f6	79 06		 jns	 SHORT $LN34@OnTeamName@2
  000f8	d8 05 00 00 00
	00		 fadd	 DWORD PTR __real@4f800000
$LN34@OnTeamName@2:
  000fe	de c9		 fmulp	 ST(1), ST(0)
  00100	e8 00 00 00 00	 call	 __ftol2_sse
  00105	89 45 f4	 mov	 DWORD PTR _iCurXPos$[ebp], eax

; 2970 : 	BYTE Alpha = sin( FLOAT_PI * FLOAT05 * m_fTournamentTeamAniRate) * 255;

  00108	b8 4e e6 40 bb	 mov	 eax, -1153374642	; bb40e64eH
  0010d	8b c8		 mov	 ecx, eax
  0010f	b8 00 ca 9a 3b	 mov	 eax, 1000000000		; 3b9aca00H
  00114	8b d0		 mov	 edx, eax
  00116	b8 05 00 00 00	 mov	 eax, 5
  0011b	89 45 f8	 mov	 DWORD PTR $T555870[ebp], eax
  0011e	b8 0a 00 00 00	 mov	 eax, 10			; 0000000aH
  00123	db 45 f8	 fild	 DWORD PTR $T555870[ebp]
  00126	89 45 fc	 mov	 DWORD PTR $T555874[ebp], eax
  00129	8b 45 f8	 mov	 eax, DWORD PTR $T555870[ebp]
  0012c	85 c0		 test	 eax, eax
  0012e	79 06		 jns	 SHORT $LN35@OnTeamName@2
  00130	d8 05 00 00 00
	00		 fadd	 DWORD PTR __real@4f800000
$LN35@OnTeamName@2:
  00136	8b 45 fc	 mov	 eax, DWORD PTR $T555874[ebp]
  00139	db 45 fc	 fild	 DWORD PTR $T555874[ebp]
  0013c	85 c0		 test	 eax, eax
  0013e	79 06		 jns	 SHORT $LN36@OnTeamName@2
  00140	d8 05 00 00 00
	00		 fadd	 DWORD PTR __real@4f800000
$LN36@OnTeamName@2:
  00146	de f9		 fdivp	 ST(1), ST(0)
  00148	d9 5d f8	 fstp	 DWORD PTR tv236[ebp]
  0014b	d9 45 f8	 fld	 DWORD PTR tv236[ebp]
  0014e	89 4d f8	 mov	 DWORD PTR tv230[ebp], ecx
  00151	db 45 f8	 fild	 DWORD PTR tv230[ebp]
  00154	85 c9		 test	 ecx, ecx
  00156	79 06		 jns	 SHORT $LN37@OnTeamName@2
  00158	d8 05 00 00 00
	00		 fadd	 DWORD PTR __real@4f800000
$LN37@OnTeamName@2:
  0015e	89 55 f8	 mov	 DWORD PTR tv150[ebp], edx
  00161	db 45 f8	 fild	 DWORD PTR tv150[ebp]
  00164	85 d2		 test	 edx, edx
  00166	79 06		 jns	 SHORT $LN38@OnTeamName@2
  00168	d8 05 00 00 00
	00		 fadd	 DWORD PTR __real@4f800000
$LN38@OnTeamName@2:
  0016e	de f9		 fdivp	 ST(1), ST(0)

; 2971 : 	
; 2972 : 	g_FontMgr.PrintTextAlpha( iXPos + 512 + iCurXPos, iYPos + 68, FONT_SIZE_20, Alpha, STR(1), m_szTournamentTeamName.c_str() );	

  00170	8d 8f 50 02 00
	00		 lea	 ecx, DWORD PTR [edi+592]
  00176	d9 5d f8	 fstp	 DWORD PTR tv261[ebp]
  00179	d8 4d f8	 fmul	 DWORD PTR tv261[ebp]
  0017c	d8 8f 00 06 00
	00		 fmul	 DWORD PTR [edi+1536]
  00182	d9 5d f8	 fstp	 DWORD PTR $T555883[ebp]
  00185	ff 15 00 00 00
	00		 call	 DWORD PTR __imp_?c_str@ioHashString@@QBEPBDXZ
  0018b	50		 push	 eax
  0018c	53		 push	 ebx
  0018d	6a 01		 push	 1
  0018f	68 00 00 00 00	 push	 OFFSET ??_C@_00CNPNBAHC@?$AA@
  00194	68 00 00 00 00	 push	 OFFSET ??_C@_0CL@NJDLMOCN@TotalResultTournamentWnd?3?3OnTeam@
  00199	ff 15 00 00 00
	00		 call	 DWORD PTR __imp_?GetSingleton@ioStringManager@@SAAAV1@XZ
  0019f	8b c8		 mov	 ecx, eax
  001a1	ff 15 00 00 00
	00		 call	 DWORD PTR __imp_?GetString@ioStringManager@@QAEPADPBD0HW4FileNamePrefix@1@@Z
  001a7	d9 45 f8	 fld	 DWORD PTR $T555883[ebp]
  001aa	50		 push	 eax
  001ab	e8 00 00 00 00	 call	 __CIsin
  001b0	d9 5d f8	 fstp	 DWORD PTR tv166[ebp]
  001b3	d9 45 f8	 fld	 DWORD PTR tv166[ebp]
  001b6	dc 0d 00 00 00
	00		 fmul	 QWORD PTR __real@406fe00000000000
  001bc	e8 00 00 00 00	 call	 __ftol2
  001c1	f3 0f 10 05 00
	00 00 00	 movss	 xmm0, DWORD PTR __real@3f800000
  001c9	8b 4d f4	 mov	 ecx, DWORD PTR _iCurXPos$[ebp]
  001cc	0f b6 c0	 movzx	 eax, al
  001cf	50		 push	 eax
  001d0	8b 45 0c	 mov	 eax, DWORD PTR _iYPos$[ebp]
  001d3	83 ec 0c	 sub	 esp, 12			; 0000000cH
  001d6	f3 0f 11 44 24
	08		 movss	 DWORD PTR [esp+8], xmm0
  001dc	83 c0 44	 add	 eax, 68			; 00000044H
  001df	0f 57 c0	 xorps	 xmm0, xmm0
  001e2	f3 0f 2a c0	 cvtsi2ss xmm0, eax
  001e6	8b 45 08	 mov	 eax, DWORD PTR _iXPos$[ebp]
  001e9	f3 0f 11 44 24
	04		 movss	 DWORD PTR [esp+4], xmm0
  001ef	8d 84 01 00 02
	00 00		 lea	 eax, DWORD PTR [ecx+eax+512]
  001f6	0f 57 c0	 xorps	 xmm0, xmm0
  001f9	f3 0f 2a c0	 cvtsi2ss xmm0, eax
  001fd	f3 0f 11 04 24	 movss	 DWORD PTR [esp], xmm0
  00202	ff d6		 call	 esi
  00204	8b c8		 mov	 ecx, eax
  00206	ff 15 00 00 00
	00		 call	 DWORD PTR __imp_?PrintTextAlpha@ioFontManager@@QAEXMMMEPBD0@Z
  0020c	5f		 pop	 edi
  0020d	5e		 pop	 esi
  0020e	5b		 pop	 ebx

; 2973 : }

  0020f	c9		 leave
  00210	c2 08 00	 ret	 8
?OnTeamNameRender@TotalResultTournamentWnd@@IAEXHH@Z ENDP ; TotalResultTournamentWnd::OnTeamNameRender
_TEXT	ENDS
PUBLIC	__real@4041800000000000
PUBLIC	__real@4004000000000000
PUBLIC	__real@c042000000000000
PUBLIC	__real@c052000000000000
PUBLIC	?OnTournamentTextRender@TotalResultTournamentWnd@@IAEXHH@Z ; TotalResultTournamentWnd::OnTournamentTextRender
EXTRN	__imp_?GetNumberCount@@YAHH@Z:PROC
EXTRN	__imp_?GetWidth@ioUIRenderElement@@QBEHXZ:PROC
EXTRN	__imp_?SetHorzFormatting@ioUIRenderImage@@QAEXW4HorzFormatting@1@@Z:PROC
;	COMDAT __real@4041800000000000
; File d:\lost saga for developer\youtube\tutorial\source\src\lsclient\stdafx.h
CONST	SEGMENT
__real@4041800000000000 DQ 04041800000000000r	; 35
CONST	ENDS
;	COMDAT __real@4004000000000000
CONST	SEGMENT
__real@4004000000000000 DQ 04004000000000000r	; 2.5
CONST	ENDS
;	COMDAT __real@c042000000000000
CONST	SEGMENT
__real@c042000000000000 DQ 0c042000000000000r	; -36
CONST	ENDS
;	COMDAT __real@c052000000000000
CONST	SEGMENT
__real@c052000000000000 DQ 0c052000000000000r	; -72
; Function compile flags: /Ogsp
; File d:\lost saga for developer\youtube\tutorial\source\src\lsclient\gui\totalresultmainwnd.cpp
CONST	ENDS
;	COMDAT ?OnTournamentTextRender@TotalResultTournamentWnd@@IAEXHH@Z
_TEXT	SEGMENT
tv2049 = -16						; size = 4
tv2044 = -16						; size = 4
tv2035 = -16						; size = 4
tv2032 = -16						; size = 4
tv1964 = -16						; size = 4
$T556025 = -16						; size = 4
$T556004 = -16						; size = 4
$T555963 = -16						; size = 4
$T555926 = -16						; size = 4
tv2040 = -12						; size = 4
tv2027 = -12						; size = 4
tv2016 = -12						; size = 4
tv2012 = -12						; size = 4
tv2007 = -12						; size = 4
tv2002 = -12						; size = 4
tv1999 = -12						; size = 4
tv1994 = -12						; size = 4
tv1991 = -12						; size = 4
tv1983 = -12						; size = 4
tv1972 = -12						; size = 4
tv1944 = -12						; size = 4
tv1866 = -12						; size = 4
tv1823 = -12						; size = 4
tv1633 = -12						; size = 4
tv1631 = -12						; size = 4
tv1629 = -12						; size = 4
$T555938 = -12						; size = 4
tv1610 = -8						; size = 4
tv1608 = -8						; size = 4
_Alpha$ = -8						; size = 1
$T555942 = -8						; size = 4
$T555901 = -4						; size = 4
_fScale$ = -4						; size = 4
tv1939 = 8						; size = 4
tv1935 = 8						; size = 4
tv1930 = 8						; size = 4
tv1925 = 8						; size = 4
tv1922 = 8						; size = 4
tv1917 = 8						; size = 4
tv1913 = 8						; size = 4
tv1905 = 8						; size = 4
tv1896 = 8						; size = 4
tv1885 = 8						; size = 4
tv1876 = 8						; size = 4
tv1871 = 8						; size = 4
tv1867 = 8						; size = 4
tv1861 = 8						; size = 4
tv1858 = 8						; size = 4
tv1853 = 8						; size = 4
tv1850 = 8						; size = 4
tv1842 = 8						; size = 4
tv1819 = 8						; size = 4
tv1815 = 8						; size = 4
tv1811 = 8						; size = 4
tv1807 = 8						; size = 4
tv1804 = 8						; size = 4
tv1800 = 8						; size = 4
tv1797 = 8						; size = 4
tv1790 = 8						; size = 4
tv1686 = 8						; size = 4
tv1682 = 8						; size = 4
tv1677 = 8						; size = 4
tv1657 = 8						; size = 4
tv1654 = 8						; size = 4
tv1649 = 8						; size = 4
$T556029 = 8						; size = 4
$T556000 = 8						; size = 4
$T555967 = 8						; size = 4
_dwColor$ = 8						; size = 4
_iXPos$ = 8						; size = 4
_iWidth$ = 12						; size = 4
_iYPos$ = 12						; size = 4
?OnTournamentTextRender@TotalResultTournamentWnd@@IAEXHH@Z PROC ; TotalResultTournamentWnd::OnTournamentTextRender, COMDAT
; _this$ = ecx

; 2976 : {

  00000	55		 push	 ebp
  00001	8b ec		 mov	 ebp, esp
  00003	83 ec 10	 sub	 esp, 16			; 00000010H
  00006	53		 push	 ebx
  00007	56		 push	 esi
  00008	8b f1		 mov	 esi, ecx

; 2977 : 	if( !m_pResultTextBack			||
; 2978 : 		!m_pRedHalfChampionText		||
; 2979 : 		!m_pBlueChampionText		||
; 2980 : 		!m_pBlueHalfChampionText	||
; 2981 : 		!m_pRedChampionText			||
; 2982 : 		!m_pBlueFinalRoundText		||
; 2983 : 		!m_pRedFinalRoundText		||
; 2984 : 		!m_pBlueNextGoText			||
; 2985 : 		!m_pBlueNextFailText		||
; 2986 : 		!m_pBlueRoundText			||
; 2987 : 		!m_pBlueRoundNum			||
; 2988 : 		!m_pRedNextGoText			||
; 2989 : 		!m_pRedNextFailText			||
; 2990 : 		!m_pRedRoundText			||
; 2991 : 		!m_pRedRoundNum )

  0000a	33 db		 xor	 ebx, ebx
  0000c	39 9e 60 01 00
	00		 cmp	 DWORD PTR [esi+352], ebx
  00012	0f 84 3e 0c 00
	00		 je	 $LN29@OnTourname
  00018	39 9e c0 01 00
	00		 cmp	 DWORD PTR [esi+448], ebx
  0001e	0f 84 32 0c 00
	00		 je	 $LN29@OnTourname
  00024	39 9e a0 01 00
	00		 cmp	 DWORD PTR [esi+416], ebx
  0002a	0f 84 26 0c 00
	00		 je	 $LN29@OnTourname
  00030	39 9e a4 01 00
	00		 cmp	 DWORD PTR [esi+420], ebx
  00036	0f 84 1a 0c 00
	00		 je	 $LN29@OnTourname
  0003c	39 9e bc 01 00
	00		 cmp	 DWORD PTR [esi+444], ebx
  00042	0f 84 0e 0c 00
	00		 je	 $LN29@OnTourname
  00048	39 9e 94 01 00
	00		 cmp	 DWORD PTR [esi+404], ebx
  0004e	0f 84 02 0c 00
	00		 je	 $LN29@OnTourname
  00054	39 9e b0 01 00
	00		 cmp	 DWORD PTR [esi+432], ebx
  0005a	0f 84 f6 0b 00
	00		 je	 $LN29@OnTourname
  00060	39 9e 98 01 00
	00		 cmp	 DWORD PTR [esi+408], ebx
  00066	0f 84 ea 0b 00
	00		 je	 $LN29@OnTourname
  0006c	39 9e 9c 01 00
	00		 cmp	 DWORD PTR [esi+412], ebx
  00072	0f 84 de 0b 00
	00		 je	 $LN29@OnTourname
  00078	39 9e 90 01 00
	00		 cmp	 DWORD PTR [esi+400], ebx
  0007e	0f 84 d2 0b 00
	00		 je	 $LN29@OnTourname
  00084	39 9e 8c 01 00
	00		 cmp	 DWORD PTR [esi+396], ebx
  0008a	0f 84 c6 0b 00
	00		 je	 $LN29@OnTourname
  00090	39 9e b4 01 00
	00		 cmp	 DWORD PTR [esi+436], ebx
  00096	0f 84 ba 0b 00
	00		 je	 $LN29@OnTourname
  0009c	39 9e b8 01 00
	00		 cmp	 DWORD PTR [esi+440], ebx
  000a2	0f 84 ae 0b 00
	00		 je	 $LN29@OnTourname
  000a8	39 9e ac 01 00
	00		 cmp	 DWORD PTR [esi+428], ebx
  000ae	0f 84 a2 0b 00
	00		 je	 $LN29@OnTourname
  000b4	39 9e a8 01 00
	00		 cmp	 DWORD PTR [esi+424], ebx
  000ba	0f 84 96 0b 00
	00		 je	 $LN29@OnTourname

; 2992 : 		return;
; 2993 : 	
; 2994 : 
; 2995 : 	enum{ IYPOS = 36, IHEIGHT = 72 };
; 2996 : 
; 2997 : 	int iCurYPos = ( FLOAT1 - sin( FLOAT_PI * FLOAT05 * m_fTournamentResultTextBackAniRate )) * IYPOS;

  000c0	57		 push	 edi
  000c1	b8 01 00 00 00	 mov	 eax, 1
  000c6	89 45 fc	 mov	 DWORD PTR $T555901[ebp], eax
  000c9	b8 4e e6 40 bb	 mov	 eax, -1153374642	; bb40e64eH
  000ce	8b c8		 mov	 ecx, eax
  000d0	b8 00 ca 9a 3b	 mov	 eax, 1000000000		; 3b9aca00H
  000d5	8b d0		 mov	 edx, eax
  000d7	b8 05 00 00 00	 mov	 eax, 5
  000dc	8b f8		 mov	 edi, eax
  000de	b8 0a 00 00 00	 mov	 eax, 10			; 0000000aH
  000e3	89 7d f0	 mov	 DWORD PTR tv2049[ebp], edi
  000e6	db 45 f0	 fild	 DWORD PTR tv2049[ebp]
  000e9	85 ff		 test	 edi, edi
  000eb	79 06		 jns	 SHORT $LN114@OnTourname
  000ed	d8 05 00 00 00
	00		 fadd	 DWORD PTR __real@4f800000
$LN114@OnTourname:
  000f3	89 45 f0	 mov	 DWORD PTR tv2044[ebp], eax
  000f6	db 45 f0	 fild	 DWORD PTR tv2044[ebp]
  000f9	85 c0		 test	 eax, eax
  000fb	79 06		 jns	 SHORT $LN115@OnTourname
  000fd	d8 05 00 00 00
	00		 fadd	 DWORD PTR __real@4f800000
$LN115@OnTourname:
  00103	de f9		 fdivp	 ST(1), ST(0)
  00105	89 4d f0	 mov	 DWORD PTR tv2035[ebp], ecx
  00108	d9 5d f4	 fstp	 DWORD PTR tv2040[ebp]
  0010b	d9 45 f4	 fld	 DWORD PTR tv2040[ebp]
  0010e	db 45 f0	 fild	 DWORD PTR tv2035[ebp]
  00111	85 c9		 test	 ecx, ecx
  00113	79 06		 jns	 SHORT $LN116@OnTourname
  00115	d8 05 00 00 00
	00		 fadd	 DWORD PTR __real@4f800000
$LN116@OnTourname:
  0011b	89 55 f0	 mov	 DWORD PTR tv2032[ebp], edx
  0011e	db 45 f0	 fild	 DWORD PTR tv2032[ebp]
  00121	85 d2		 test	 edx, edx
  00123	79 06		 jns	 SHORT $LN117@OnTourname
  00125	d8 05 00 00 00
	00		 fadd	 DWORD PTR __real@4f800000
$LN117@OnTourname:
  0012b	de f9		 fdivp	 ST(1), ST(0)
  0012d	d9 5d f4	 fstp	 DWORD PTR tv2027[ebp]
  00130	d8 4d f4	 fmul	 DWORD PTR tv2027[ebp]
  00133	d8 8e 08 06 00
	00		 fmul	 DWORD PTR [esi+1544]
  00139	d9 5d f0	 fstp	 DWORD PTR $T555926[ebp]

; 2998 : 	int iCurHeight = sin( FLOAT_PI * FLOAT05 * m_fTournamentResultTextBackAniRate ) * IHEIGHT;

  0013c	b8 4e e6 40 bb	 mov	 eax, -1153374642	; bb40e64eH
  00141	8b d0		 mov	 edx, eax
  00143	b8 00 ca 9a 3b	 mov	 eax, 1000000000		; 3b9aca00H
  00148	8b f8		 mov	 edi, eax
  0014a	b8 05 00 00 00	 mov	 eax, 5
  0014f	89 45 f4	 mov	 DWORD PTR $T555938[ebp], eax
  00152	b8 0a 00 00 00	 mov	 eax, 10			; 0000000aH

; 2999 : 
; 3000 : 	m_pResultTextBack->SetSize( 293, 2 + iCurHeight );	

  00157	db 45 f4	 fild	 DWORD PTR $T555938[ebp]
  0015a	8b 8e 60 01 00
	00		 mov	 ecx, DWORD PTR [esi+352]
  00160	89 45 f8	 mov	 DWORD PTR $T555942[ebp], eax
  00163	8b 01		 mov	 eax, DWORD PTR [ecx]
  00165	8b 4d f4	 mov	 ecx, DWORD PTR $T555938[ebp]
  00168	85 c9		 test	 ecx, ecx
  0016a	79 06		 jns	 SHORT $LN118@OnTourname
  0016c	d8 05 00 00 00
	00		 fadd	 DWORD PTR __real@4f800000
$LN118@OnTourname:
  00172	8b 4d f8	 mov	 ecx, DWORD PTR $T555942[ebp]
  00175	db 45 f8	 fild	 DWORD PTR $T555942[ebp]
  00178	85 c9		 test	 ecx, ecx
  0017a	79 06		 jns	 SHORT $LN119@OnTourname
  0017c	d8 05 00 00 00
	00		 fadd	 DWORD PTR __real@4f800000
$LN119@OnTourname:

; 2998 : 	int iCurHeight = sin( FLOAT_PI * FLOAT05 * m_fTournamentResultTextBackAniRate ) * IHEIGHT;

  00182	de f9		 fdivp	 ST(1), ST(0)

; 2999 : 
; 3000 : 	m_pResultTextBack->SetSize( 293, 2 + iCurHeight );	

  00184	d9 5d f4	 fstp	 DWORD PTR tv2007[ebp]
  00187	d9 45 f4	 fld	 DWORD PTR tv2007[ebp]
  0018a	89 55 f4	 mov	 DWORD PTR tv2002[ebp], edx
  0018d	db 45 f4	 fild	 DWORD PTR tv2002[ebp]
  00190	85 d2		 test	 edx, edx
  00192	79 06		 jns	 SHORT $LN120@OnTourname
  00194	d8 05 00 00 00
	00		 fadd	 DWORD PTR __real@4f800000
$LN120@OnTourname:
  0019a	89 7d f4	 mov	 DWORD PTR tv1999[ebp], edi
  0019d	db 45 f4	 fild	 DWORD PTR tv1999[ebp]
  001a0	85 ff		 test	 edi, edi
  001a2	79 06		 jns	 SHORT $LN121@OnTourname
  001a4	d8 05 00 00 00
	00		 fadd	 DWORD PTR __real@4f800000
$LN121@OnTourname:

; 2998 : 	int iCurHeight = sin( FLOAT_PI * FLOAT05 * m_fTournamentResultTextBackAniRate ) * IHEIGHT;

  001aa	de f9		 fdivp	 ST(1), ST(0)
  001ac	89 45 f8	 mov	 DWORD PTR tv1610[ebp], eax

; 2999 : 
; 3000 : 	m_pResultTextBack->SetSize( 293, 2 + iCurHeight );	

  001af	d9 5d f4	 fstp	 DWORD PTR tv1994[ebp]
  001b2	d8 4d f4	 fmul	 DWORD PTR tv1994[ebp]
  001b5	d8 8e 08 06 00
	00		 fmul	 DWORD PTR [esi+1544]
  001bb	d9 5d f4	 fstp	 DWORD PTR tv1991[ebp]
  001be	d9 45 f4	 fld	 DWORD PTR tv1991[ebp]
  001c1	e8 00 00 00 00	 call	 __CIsin
  001c6	d9 5d f4	 fstp	 DWORD PTR tv1983[ebp]
  001c9	d9 45 f4	 fld	 DWORD PTR tv1983[ebp]
  001cc	dc 0d 00 00 00
	00		 fmul	 QWORD PTR __real@c052000000000000
  001d2	e8 00 00 00 00	 call	 __ftol2_sse
  001d7	6a 02		 push	 2
  001d9	59		 pop	 ecx
  001da	2b c8		 sub	 ecx, eax
  001dc	8b 45 f8	 mov	 eax, DWORD PTR tv1610[ebp]
  001df	51		 push	 ecx
  001e0	8b 8e 60 01 00
	00		 mov	 ecx, DWORD PTR [esi+352]
  001e6	68 25 01 00 00	 push	 293			; 00000125H
  001eb	ff 50 10	 call	 DWORD PTR [eax+16]

; 3001 : 	m_pResultTextBack->Render( iXPos + 246, iYPos + 93 + iCurYPos );

  001ee	db 45 fc	 fild	 DWORD PTR $T555901[ebp]
  001f1	8b 4d fc	 mov	 ecx, DWORD PTR $T555901[ebp]
  001f4	8b 86 60 01 00
	00		 mov	 eax, DWORD PTR [esi+352]
  001fa	8b 00		 mov	 eax, DWORD PTR [eax]
  001fc	53		 push	 ebx
  001fd	53		 push	 ebx
  001fe	53		 push	 ebx
  001ff	53		 push	 ebx
  00200	85 c9		 test	 ecx, ecx
  00202	79 06		 jns	 SHORT $LN122@OnTourname
  00204	d8 05 00 00 00
	00		 fadd	 DWORD PTR __real@4f800000
$LN122@OnTourname:

; 2992 : 		return;
; 2993 : 	
; 2994 : 
; 2995 : 	enum{ IYPOS = 36, IHEIGHT = 72 };
; 2996 : 
; 2997 : 	int iCurYPos = ( FLOAT1 - sin( FLOAT_PI * FLOAT05 * m_fTournamentResultTextBackAniRate )) * IYPOS;

  0020a	d9 5d f4	 fstp	 DWORD PTR tv1629[ebp]
  0020d	89 45 f8	 mov	 DWORD PTR tv1608[ebp], eax

; 3001 : 	m_pResultTextBack->Render( iXPos + 246, iYPos + 93 + iCurYPos );

  00210	d9 45 f0	 fld	 DWORD PTR $T555926[ebp]
  00213	e8 00 00 00 00	 call	 __CIsin
  00218	d9 5d f0	 fstp	 DWORD PTR tv1964[ebp]
  0021b	d9 45 f0	 fld	 DWORD PTR tv1964[ebp]
  0021e	d8 6d f4	 fsubr	 DWORD PTR tv1629[ebp]
  00221	dc 0d 00 00 00
	00		 fmul	 QWORD PTR __real@c042000000000000
  00227	e8 00 00 00 00	 call	 __ftol2_sse
  0022c	8b 4d 0c	 mov	 ecx, DWORD PTR _iYPos$[ebp]
  0022f	8b 7d 08	 mov	 edi, DWORD PTR _iXPos$[ebp]
  00232	2b c8		 sub	 ecx, eax
  00234	83 c1 5d	 add	 ecx, 93			; 0000005dH
  00237	51		 push	 ecx
  00238	0f 57 c0	 xorps	 xmm0, xmm0
  0023b	f3 0f 2a c1	 cvtsi2ss xmm0, ecx
  0023f	51		 push	 ecx
  00240	8b 8e 60 01 00
	00		 mov	 ecx, DWORD PTR [esi+352]
  00246	f3 0f 11 44 24
	04		 movss	 DWORD PTR [esp+4], xmm0
  0024c	8d 87 f6 00 00
	00		 lea	 eax, DWORD PTR [edi+246]
  00252	0f 57 c0	 xorps	 xmm0, xmm0
  00255	f3 0f 2a c0	 cvtsi2ss xmm0, eax
  00259	8b 45 f8	 mov	 eax, DWORD PTR tv1608[ebp]
  0025c	f3 0f 11 04 24	 movss	 DWORD PTR [esp], xmm0
  00261	ff 10		 call	 DWORD PTR [eax]

; 3002 : 	
; 3003 : 	float SCALE_RATE = 2.5f;
; 3004 : 	float fScale = ( FLOAT1 - sin( FLOAT_PI * FLOAT05 * m_fTournamentResultTextAniRate )) * SCALE_RATE;

  00263	b8 01 00 00 00	 mov	 eax, 1
  00268	8b c8		 mov	 ecx, eax
  0026a	b8 4e e6 40 bb	 mov	 eax, -1153374642	; bb40e64eH
  0026f	8b d0		 mov	 edx, eax
  00271	b8 00 ca 9a 3b	 mov	 eax, 1000000000		; 3b9aca00H
  00276	89 45 f0	 mov	 DWORD PTR $T555963[ebp], eax
  00279	b8 05 00 00 00	 mov	 eax, 5
  0027e	89 45 08	 mov	 DWORD PTR $T555967[ebp], eax
  00281	b8 0a 00 00 00	 mov	 eax, 10			; 0000000aH
  00286	89 4d f4	 mov	 DWORD PTR tv1944[ebp], ecx
  00289	db 45 f4	 fild	 DWORD PTR tv1944[ebp]
  0028c	85 c9		 test	 ecx, ecx
  0028e	79 06		 jns	 SHORT $LN123@OnTourname
  00290	d8 05 00 00 00
	00		 fadd	 DWORD PTR __real@4f800000
$LN123@OnTourname:
  00296	8b 4d 08	 mov	 ecx, DWORD PTR $T555967[ebp]
  00299	d9 5d f4	 fstp	 DWORD PTR tv1631[ebp]
  0029c	db 45 08	 fild	 DWORD PTR $T555967[ebp]
  0029f	85 c9		 test	 ecx, ecx
  002a1	79 06		 jns	 SHORT $LN124@OnTourname
  002a3	d8 05 00 00 00
	00		 fadd	 DWORD PTR __real@4f800000
$LN124@OnTourname:
  002a9	89 45 08	 mov	 DWORD PTR tv1935[ebp], eax
  002ac	db 45 08	 fild	 DWORD PTR tv1935[ebp]
  002af	85 c0		 test	 eax, eax
  002b1	79 06		 jns	 SHORT $LN125@OnTourname
  002b3	d8 05 00 00 00
	00		 fadd	 DWORD PTR __real@4f800000
$LN125@OnTourname:
  002b9	de f9		 fdivp	 ST(1), ST(0)
  002bb	d9 5d 08	 fstp	 DWORD PTR tv1930[ebp]
  002be	d9 45 08	 fld	 DWORD PTR tv1930[ebp]
  002c1	89 55 08	 mov	 DWORD PTR tv1925[ebp], edx
  002c4	db 45 08	 fild	 DWORD PTR tv1925[ebp]
  002c7	85 d2		 test	 edx, edx
  002c9	79 06		 jns	 SHORT $LN126@OnTourname
  002cb	d8 05 00 00 00
	00		 fadd	 DWORD PTR __real@4f800000
$LN126@OnTourname:
  002d1	8b 45 f0	 mov	 eax, DWORD PTR $T555963[ebp]
  002d4	db 45 f0	 fild	 DWORD PTR $T555963[ebp]
  002d7	85 c0		 test	 eax, eax
  002d9	79 06		 jns	 SHORT $LN127@OnTourname
  002db	d8 05 00 00 00
	00		 fadd	 DWORD PTR __real@4f800000
$LN127@OnTourname:
  002e1	de f9		 fdivp	 ST(1), ST(0)
  002e3	d9 5d 08	 fstp	 DWORD PTR tv1917[ebp]
  002e6	d8 4d 08	 fmul	 DWORD PTR tv1917[ebp]
  002e9	d8 8e 04 06 00
	00		 fmul	 DWORD PTR [esi+1540]
  002ef	d9 5d 08	 fstp	 DWORD PTR tv1913[ebp]
  002f2	d9 45 08	 fld	 DWORD PTR tv1913[ebp]
  002f5	e8 00 00 00 00	 call	 __CIsin
  002fa	d9 5d 08	 fstp	 DWORD PTR tv1905[ebp]
  002fd	d9 45 08	 fld	 DWORD PTR tv1905[ebp]
  00300	d8 6d f4	 fsubr	 DWORD PTR tv1631[ebp]
  00303	dc 0d 00 00 00
	00		 fmul	 QWORD PTR __real@4004000000000000
  00309	d9 5d fc	 fstp	 DWORD PTR _fScale$[ebp]

; 3005 : 	fScale = max( fScale, FLOAT1 );

  0030c	b8 01 00 00 00	 mov	 eax, 1
  00311	d9 45 fc	 fld	 DWORD PTR _fScale$[ebp]
  00314	89 45 08	 mov	 DWORD PTR tv1896[ebp], eax
  00317	db 45 08	 fild	 DWORD PTR tv1896[ebp]
  0031a	85 c0		 test	 eax, eax
  0031c	79 06		 jns	 SHORT $LN128@OnTourname
  0031e	d8 05 00 00 00
	00		 fadd	 DWORD PTR __real@4f800000
$LN128@OnTourname:
  00324	d9 c9		 fxch	 ST(1)
  00326	df f1		 fcomip	 ST(1)
  00328	dd d8		 fstp	 ST(0)
  0032a	77 18		 ja	 SHORT $LN34@OnTourname
  0032c	b8 01 00 00 00	 mov	 eax, 1
  00331	89 45 08	 mov	 DWORD PTR tv1885[ebp], eax
  00334	db 45 08	 fild	 DWORD PTR tv1885[ebp]
  00337	85 c0		 test	 eax, eax
  00339	79 06		 jns	 SHORT $LN129@OnTourname
  0033b	d8 05 00 00 00
	00		 fadd	 DWORD PTR __real@4f800000
$LN129@OnTourname:
  00341	d9 5d fc	 fstp	 DWORD PTR _fScale$[ebp]
$LN34@OnTourname:

