; Listing generated by Microsoft (R) Optimizing Compiler Version 16.00.30319.01 

	TITLE	D:\Lost Saga For Developer\Youtube\Tutorial\Source\src\LSClient\GUI\TowerDefWnd.cpp
	.686P
	.XMM
	include listing.inc
	.model	flat

INCLUDELIB MSVCRT
INCLUDELIB OLDNAMES

PUBLIC	?m_bPosToDefault@TowerDefUserGaugeWnd@@1_NA	; TowerDefUserGaugeWnd::m_bPosToDefault
PUBLIC	?m_bPosToDefault@ConsumptionWnd@@1_NA		; ConsumptionWnd::m_bPosToDefault
_BSS	SEGMENT
?m_bPosToDefault@TowerDefUserGaugeWnd@@1_NA DB 01H DUP (?) ; TowerDefUserGaugeWnd::m_bPosToDefault
?m_bPosToDefault@ConsumptionWnd@@1_NA DB 01H DUP (?)	; ConsumptionWnd::m_bPosToDefault
_BSS	ENDS
PUBLIC	?return1@@YAIXZ					; return1
; Function compile flags: /Ogsp
; File d:\lost saga for developer\youtube\tutorial\source\src\lsclient\stdafx.h
;	COMDAT ?return1@@YAIXZ
_TEXT	SEGMENT
?return1@@YAIXZ PROC					; return1, COMDAT

; 17   : 	__forceinline unsigned int return1() { __asm mov eax, 1 };

  00000	b8 01 00 00 00	 mov	 eax, 1
  00005	c3		 ret	 0
?return1@@YAIXZ ENDP					; return1
_TEXT	ENDS
PUBLIC	?return5@@YAIXZ					; return5
; Function compile flags: /Ogsp
;	COMDAT ?return5@@YAIXZ
_TEXT	SEGMENT
?return5@@YAIXZ PROC					; return5, COMDAT

; 18   : 	__forceinline unsigned int return5() { __asm mov eax, 5 };

  00000	b8 05 00 00 00	 mov	 eax, 5
  00005	c3		 ret	 0
?return5@@YAIXZ ENDP					; return5
_TEXT	ENDS
PUBLIC	?return10@@YAIXZ				; return10
; Function compile flags: /Ogsp
;	COMDAT ?return10@@YAIXZ
_TEXT	SEGMENT
?return10@@YAIXZ PROC					; return10, COMDAT

; 21   : 	__forceinline unsigned int return10() { __asm mov eax, 10 };

  00000	b8 0a 00 00 00	 mov	 eax, 10			; 0000000aH
  00005	c3		 ret	 0
?return10@@YAIXZ ENDP					; return10
_TEXT	ENDS
PUBLIC	?return100@@YAIXZ				; return100
; Function compile flags: /Ogsp
;	COMDAT ?return100@@YAIXZ
_TEXT	SEGMENT
?return100@@YAIXZ PROC					; return100, COMDAT

; 25   : 	__forceinline unsigned int return100() { __asm mov eax, 100 };

  00000	b8 64 00 00 00	 mov	 eax, 100		; 00000064H
  00005	c3		 ret	 0
?return100@@YAIXZ ENDP					; return100
_TEXT	ENDS
PUBLIC	?return1000@@YAIXZ				; return1000
; Function compile flags: /Ogsp
;	COMDAT ?return1000@@YAIXZ
_TEXT	SEGMENT
?return1000@@YAIXZ PROC					; return1000, COMDAT

; 29   : 	__forceinline unsigned int return1000() { __asm mov eax, 1000 };

  00000	b8 e8 03 00 00	 mov	 eax, 1000		; 000003e8H
  00005	c3		 ret	 0
?return1000@@YAIXZ ENDP					; return1000
_TEXT	ENDS
PUBLIC	?return1000000000@@YAIXZ			; return1000000000
; Function compile flags: /Ogsp
;	COMDAT ?return1000000000@@YAIXZ
_TEXT	SEGMENT
?return1000000000@@YAIXZ PROC				; return1000000000, COMDAT

; 30   : 	__forceinline unsigned int return1000000000() { __asm mov eax, 1000000000 };

  00000	b8 00 ca 9a 3b	 mov	 eax, 1000000000		; 3b9aca00H
  00005	c3		 ret	 0
?return1000000000@@YAIXZ ENDP				; return1000000000
_TEXT	ENDS
PUBLIC	?return_PI@@YAIXZ				; return_PI
; Function compile flags: /Ogsp
;	COMDAT ?return_PI@@YAIXZ
_TEXT	SEGMENT
?return_PI@@YAIXZ PROC					; return_PI, COMDAT

; 31   : 	__forceinline unsigned int return_PI() { __asm mov eax,   3141592654 };

  00000	b8 4e e6 40 bb	 mov	 eax, -1153374642	; bb40e64eH
  00005	c3		 ret	 0
?return_PI@@YAIXZ ENDP					; return_PI
_TEXT	ENDS
PUBLIC	?IsOwnerChar@ioBaseChar@@QBE_NXZ		; ioBaseChar::IsOwnerChar
; Function compile flags: /Ogsp
; File d:\lost saga for developer\youtube\tutorial\source\src\lsclient\iobasechar.h
;	COMDAT ?IsOwnerChar@ioBaseChar@@QBE_NXZ
_TEXT	SEGMENT
?IsOwnerChar@ioBaseChar@@QBE_NXZ PROC			; ioBaseChar::IsOwnerChar, COMDAT
; _this$ = ecx

; 1467 : 	inline bool IsOwnerChar() const { return m_bOwnerChar; }

  00000	8a 81 84 13 00
	00		 mov	 al, BYTE PTR [ecx+4996]
  00006	c3		 ret	 0
?IsOwnerChar@ioBaseChar@@QBE_NXZ ENDP			; ioBaseChar::IsOwnerChar
_TEXT	ENDS
PUBLIC	?GetCharName@ioBaseChar@@QBEABVioHashString@@XZ	; ioBaseChar::GetCharName
; Function compile flags: /Ogsp
;	COMDAT ?GetCharName@ioBaseChar@@QBEABVioHashString@@XZ
_TEXT	SEGMENT
?GetCharName@ioBaseChar@@QBEABVioHashString@@XZ PROC	; ioBaseChar::GetCharName, COMDAT
; _this$ = ecx

; 2594 : 	inline const ioHashString& GetCharName() const { return m_Name; }

  00000	8d 81 d4 02 00
	00		 lea	 eax, DWORD PTR [ecx+724]
  00006	c3		 ret	 0
?GetCharName@ioBaseChar@@QBEABVioHashString@@XZ ENDP	; ioBaseChar::GetCharName
_TEXT	ENDS
PUBLIC	_cosf
EXTRN	__fltused:DWORD
EXTRN	__CIcos:PROC
; Function compile flags: /Ogsp
; File c:\program files (x86)\microsoft visual studio 10.0\vc\include\math.h
;	COMDAT _cosf
_TEXT	SEGMENT
tv69 = 8						; size = 4
__X$ = 8						; size = 4
_cosf	PROC						; COMDAT

; 410  :         {return ((float)cos((double)_X)); }

  00000	55		 push	 ebp
  00001	8b ec		 mov	 ebp, esp
  00003	d9 45 08	 fld	 DWORD PTR __X$[ebp]
  00006	e8 00 00 00 00	 call	 __CIcos
  0000b	d9 5d 08	 fstp	 DWORD PTR tv69[ebp]
  0000e	d9 45 08	 fld	 DWORD PTR tv69[ebp]
  00011	5d		 pop	 ebp
  00012	c3		 ret	 0
_cosf	ENDP
_TEXT	ENDS
PUBLIC	_sinf
EXTRN	__CIsin:PROC
; Function compile flags: /Ogsp
;	COMDAT _sinf
_TEXT	SEGMENT
tv69 = 8						; size = 4
__X$ = 8						; size = 4
_sinf	PROC						; COMDAT

; 430  :         {return ((float)sin((double)_X)); }

  00000	55		 push	 ebp
  00001	8b ec		 mov	 ebp, esp
  00003	d9 45 08	 fld	 DWORD PTR __X$[ebp]
  00006	e8 00 00 00 00	 call	 __CIsin
  0000b	d9 5d 08	 fstp	 DWORD PTR tv69[ebp]
  0000e	d9 45 08	 fld	 DWORD PTR tv69[ebp]
  00011	5d		 pop	 ebp
  00012	c3		 ret	 0
_sinf	ENDP
_TEXT	ENDS
PUBLIC	?cos@@YAMM@Z					; cos
; Function compile flags: /Ogsp
;	COMDAT ?cos@@YAMM@Z
_TEXT	SEGMENT
tv73 = 8						; size = 4
__X$ = 8						; size = 4
?cos@@YAMM@Z PROC					; cos, COMDAT

; 512  :         {return (cosf(_X)); }

  00000	55		 push	 ebp
  00001	8b ec		 mov	 ebp, esp
  00003	d9 45 08	 fld	 DWORD PTR __X$[ebp]
  00006	e8 00 00 00 00	 call	 __CIcos
  0000b	d9 5d 08	 fstp	 DWORD PTR tv73[ebp]
  0000e	d9 45 08	 fld	 DWORD PTR tv73[ebp]
  00011	5d		 pop	 ebp
  00012	c3		 ret	 0
?cos@@YAMM@Z ENDP					; cos
_TEXT	ENDS
PUBLIC	?GetCharacterInfo@ioBaseChar@@QBEABUCHARACTER@@XZ ; ioBaseChar::GetCharacterInfo
; Function compile flags: /Ogsp
; File d:\lost saga for developer\youtube\tutorial\source\src\lsclient\iobasechar.h
;	COMDAT ?GetCharacterInfo@ioBaseChar@@QBEABUCHARACTER@@XZ
_TEXT	SEGMENT
?GetCharacterInfo@ioBaseChar@@QBEABUCHARACTER@@XZ PROC	; ioBaseChar::GetCharacterInfo, COMDAT
; _this$ = ecx

; 2777 : 	inline const CHARACTER& GetCharacterInfo() const { return m_CharInfo; }

  00000	8d 81 58 03 00
	00		 lea	 eax, DWORD PTR [ecx+856]
  00006	c3		 ret	 0
?GetCharacterInfo@ioBaseChar@@QBEABUCHARACTER@@XZ ENDP	; ioBaseChar::GetCharacterInfo
_TEXT	ENDS
PUBLIC	?sin@@YAMM@Z					; sin
; Function compile flags: /Ogsp
; File c:\program files (x86)\microsoft visual studio 10.0\vc\include\math.h
;	COMDAT ?sin@@YAMM@Z
_TEXT	SEGMENT
tv73 = 8						; size = 4
__X$ = 8						; size = 4
?sin@@YAMM@Z PROC					; sin, COMDAT

; 538  :         {return (sinf(_X)); }

  00000	55		 push	 ebp
  00001	8b ec		 mov	 ebp, esp
  00003	d9 45 08	 fld	 DWORD PTR __X$[ebp]
  00006	e8 00 00 00 00	 call	 __CIsin
  0000b	d9 5d 08	 fstp	 DWORD PTR tv73[ebp]
  0000e	d9 45 08	 fld	 DWORD PTR tv73[ebp]
  00011	5d		 pop	 ebp
  00012	c3		 ret	 0
?sin@@YAMM@Z ENDP					; sin
_TEXT	ENDS
PUBLIC	??_7bad_alloc@std@@6B@				; std::bad_alloc::`vftable'
PUBLIC	??0bad_alloc@std@@QAE@PBD@Z			; std::bad_alloc::bad_alloc
PUBLIC	??_R4bad_alloc@std@@6B@				; std::bad_alloc::`RTTI Complete Object Locator'
PUBLIC	??_R0?AVbad_alloc@std@@@8			; std::bad_alloc `RTTI Type Descriptor'
PUBLIC	??_R3bad_alloc@std@@8				; std::bad_alloc::`RTTI Class Hierarchy Descriptor'
PUBLIC	??_R2bad_alloc@std@@8				; std::bad_alloc::`RTTI Base Class Array'
PUBLIC	??_R1A@?0A@EA@bad_alloc@std@@8			; std::bad_alloc::`RTTI Base Class Descriptor at (0,-1,0,64)'
PUBLIC	??_R1A@?0A@EA@exception@std@@8			; std::exception::`RTTI Base Class Descriptor at (0,-1,0,64)'
PUBLIC	??_R0?AVexception@std@@@8			; std::exception `RTTI Type Descriptor'
PUBLIC	??_R3exception@std@@8				; std::exception::`RTTI Class Hierarchy Descriptor'
PUBLIC	??_R2exception@std@@8				; std::exception::`RTTI Base Class Array'
EXTRN	__imp_??0exception@std@@QAE@ABQBD@Z:PROC
EXTRN	??_7type_info@@6B@:QWORD			; type_info::`vftable'
EXTRN	??_Ebad_alloc@std@@UAEPAXI@Z:PROC		; std::bad_alloc::`vector deleting destructor'
EXTRN	?what@exception@std@@UBEPBDXZ:PROC		; std::exception::what
;	COMDAT ??_R2exception@std@@8
; File c:\program files (x86)\microsoft visual studio 10.0\vc\include\exception
rdata$r	SEGMENT
??_R2exception@std@@8 DD FLAT:??_R1A@?0A@EA@exception@std@@8 ; std::exception::`RTTI Base Class Array'
rdata$r	ENDS
;	COMDAT ??_R3exception@std@@8
rdata$r	SEGMENT
??_R3exception@std@@8 DD 00H				; std::exception::`RTTI Class Hierarchy Descriptor'
	DD	00H
	DD	01H
	DD	FLAT:??_R2exception@std@@8
rdata$r	ENDS
;	COMDAT ??_R0?AVexception@std@@@8
_DATA	SEGMENT
??_R0?AVexception@std@@@8 DD FLAT:??_7type_info@@6B@	; std::exception `RTTI Type Descriptor'
	DD	00H
	DB	'.?AVexception@std@@', 00H
_DATA	ENDS
;	COMDAT ??_R1A@?0A@EA@exception@std@@8
rdata$r	SEGMENT
??_R1A@?0A@EA@exception@std@@8 DD FLAT:??_R0?AVexception@std@@@8 ; std::exception::`RTTI Base Class Descriptor at (0,-1,0,64)'
	DD	00H
	DD	00H
	DD	0ffffffffH
	DD	00H
	DD	040H
	DD	FLAT:??_R3exception@std@@8
rdata$r	ENDS
;	COMDAT ??_R1A@?0A@EA@bad_alloc@std@@8
rdata$r	SEGMENT
??_R1A@?0A@EA@bad_alloc@std@@8 DD FLAT:??_R0?AVbad_alloc@std@@@8 ; std::bad_alloc::`RTTI Base Class Descriptor at (0,-1,0,64)'
	DD	01H
	DD	00H
	DD	0ffffffffH
	DD	00H
	DD	040H
	DD	FLAT:??_R3bad_alloc@std@@8
rdata$r	ENDS
;	COMDAT ??_R2bad_alloc@std@@8
rdata$r	SEGMENT
??_R2bad_alloc@std@@8 DD FLAT:??_R1A@?0A@EA@bad_alloc@std@@8 ; std::bad_alloc::`RTTI Base Class Array'
	DD	FLAT:??_R1A@?0A@EA@exception@std@@8
rdata$r	ENDS
;	COMDAT ??_R3bad_alloc@std@@8
rdata$r	SEGMENT
??_R3bad_alloc@std@@8 DD 00H				; std::bad_alloc::`RTTI Class Hierarchy Descriptor'
	DD	00H
	DD	02H
	DD	FLAT:??_R2bad_alloc@std@@8
rdata$r	ENDS
;	COMDAT ??_R0?AVbad_alloc@std@@@8
_DATA	SEGMENT
??_R0?AVbad_alloc@std@@@8 DD FLAT:??_7type_info@@6B@	; std::bad_alloc `RTTI Type Descriptor'
	DD	00H
	DB	'.?AVbad_alloc@std@@', 00H
_DATA	ENDS
;	COMDAT ??_R4bad_alloc@std@@6B@
rdata$r	SEGMENT
??_R4bad_alloc@std@@6B@ DD 00H				; std::bad_alloc::`RTTI Complete Object Locator'
	DD	00H
	DD	00H
	DD	FLAT:??_R0?AVbad_alloc@std@@@8
	DD	FLAT:??_R3bad_alloc@std@@8
rdata$r	ENDS
;	COMDAT ??_7bad_alloc@std@@6B@
CONST	SEGMENT
??_7bad_alloc@std@@6B@ DD FLAT:??_R4bad_alloc@std@@6B@	; std::bad_alloc::`vftable'
	DD	FLAT:??_Ebad_alloc@std@@UAEPAXI@Z
	DD	FLAT:?what@exception@std@@UBEPBDXZ
; Function compile flags: /Ogsp
CONST	ENDS
;	COMDAT ??0bad_alloc@std@@QAE@PBD@Z
_TEXT	SEGMENT
__Message$ = 8						; size = 4
??0bad_alloc@std@@QAE@PBD@Z PROC			; std::bad_alloc::bad_alloc, COMDAT
; _this$ = ecx

; 345  : 		{	// construct from message string

  00000	55		 push	 ebp
  00001	8b ec		 mov	 ebp, esp
  00003	56		 push	 esi
  00004	8d 45 08	 lea	 eax, DWORD PTR __Message$[ebp]
  00007	50		 push	 eax
  00008	8b f1		 mov	 esi, ecx
  0000a	ff 15 00 00 00
	00		 call	 DWORD PTR __imp_??0exception@std@@QAE@ABQBD@Z
  00010	c7 06 00 00 00
	00		 mov	 DWORD PTR [esi], OFFSET ??_7bad_alloc@std@@6B@

; 346  : 		}

  00016	8b c6		 mov	 eax, esi
  00018	5e		 pop	 esi
  00019	5d		 pop	 ebp
  0001a	c2 04 00	 ret	 4
??0bad_alloc@std@@QAE@PBD@Z ENDP			; std::bad_alloc::bad_alloc
_TEXT	ENDS
PUBLIC	??1bad_alloc@std@@UAE@XZ			; std::bad_alloc::~bad_alloc
EXTRN	__imp_??1exception@std@@UAE@XZ:PROC
; Function compile flags: /Ogsp
;	COMDAT ??1bad_alloc@std@@UAE@XZ
_TEXT	SEGMENT
??1bad_alloc@std@@UAE@XZ PROC				; std::bad_alloc::~bad_alloc, COMDAT
; _this$ = ecx

; 354  : 		{	// destroy the object

  00000	c7 01 00 00 00
	00		 mov	 DWORD PTR [ecx], OFFSET ??_7bad_alloc@std@@6B@

; 355  : 		}

  00006	ff 25 00 00 00
	00		 jmp	 DWORD PTR __imp_??1exception@std@@UAE@XZ
??1bad_alloc@std@@UAE@XZ ENDP				; std::bad_alloc::~bad_alloc
_TEXT	ENDS
EXTRN	??3@YAXPAX@Z:PROC				; operator delete
; Function compile flags: /Ogsp
;	COMDAT ??_Gbad_alloc@std@@UAEPAXI@Z
_TEXT	SEGMENT
___flags$ = 8						; size = 4
??_Gbad_alloc@std@@UAEPAXI@Z PROC			; std::bad_alloc::`scalar deleting destructor', COMDAT
; _this$ = ecx
  00000	55		 push	 ebp
  00001	8b ec		 mov	 ebp, esp
  00003	56		 push	 esi
  00004	8b f1		 mov	 esi, ecx
  00006	c7 06 00 00 00
	00		 mov	 DWORD PTR [esi], OFFSET ??_7bad_alloc@std@@6B@
  0000c	ff 15 00 00 00
	00		 call	 DWORD PTR __imp_??1exception@std@@UAE@XZ
  00012	f6 45 08 01	 test	 BYTE PTR ___flags$[ebp], 1
  00016	74 07		 je	 SHORT $LN1@scalar
  00018	56		 push	 esi
  00019	e8 00 00 00 00	 call	 ??3@YAXPAX@Z		; operator delete
  0001e	59		 pop	 ecx
$LN1@scalar:
  0001f	8b c6		 mov	 eax, esi
  00021	5e		 pop	 esi
  00022	5d		 pop	 ebp
  00023	c2 04 00	 ret	 4
??_Gbad_alloc@std@@UAEPAXI@Z ENDP			; std::bad_alloc::`scalar deleting destructor'
_TEXT	ENDS
PUBLIC	??2@YAPAXIPAX@Z					; operator new
; Function compile flags: /Ogsp
; File c:\program files (x86)\microsoft visual studio 10.0\vc\include\new
;	COMDAT ??2@YAPAXIPAX@Z
_TEXT	SEGMENT
___formal$ = 8						; size = 4
__Where$ = 12						; size = 4
??2@YAPAXIPAX@Z PROC					; operator new, COMDAT

; 56   : 	{	// construct array with placement at _Where

  00000	55		 push	 ebp
  00001	8b ec		 mov	 ebp, esp

; 57   : 	return (_Where);

  00003	8b 45 0c	 mov	 eax, DWORD PTR __Where$[ebp]

; 58   : 	}

  00006	5d		 pop	 ebp
  00007	c3		 ret	 0
??2@YAPAXIPAX@Z ENDP					; operator new
_TEXT	ENDS
PUBLIC	??3@YAXPAX0@Z					; operator delete
; Function compile flags: /Ogsp
;	COMDAT ??3@YAXPAX0@Z
_TEXT	SEGMENT
___formal$ = 8						; size = 4
___formal$ = 12						; size = 4
??3@YAXPAX0@Z PROC					; operator delete, COMDAT

; 62   : 	}

  00000	c3		 ret	 0
??3@YAXPAX0@Z ENDP					; operator delete
_TEXT	ENDS
PUBLIC	?GetViewName@ioNpcChar@@QAEABVioHashString@@XZ	; ioNpcChar::GetViewName
; Function compile flags: /Ogsp
; File d:\lost saga for developer\youtube\tutorial\source\src\lsclient\ionpcchar.h
;	COMDAT ?GetViewName@ioNpcChar@@QAEABVioHashString@@XZ
_TEXT	SEGMENT
?GetViewName@ioNpcChar@@QAEABVioHashString@@XZ PROC	; ioNpcChar::GetViewName, COMDAT
; _this$ = ecx

; 321  : 	const ioHashString &GetViewName(){ return m_szNpcViewName; }

  00000	8d 81 b4 47 00
	00		 lea	 eax, DWORD PTR [ecx+18356]
  00006	c3		 ret	 0
?GetViewName@ioNpcChar@@QAEABVioHashString@@XZ ENDP	; ioNpcChar::GetViewName
_TEXT	ENDS
PUBLIC	?GetMonsterIcon@ioNpcChar@@QAEABVioHashString@@XZ ; ioNpcChar::GetMonsterIcon
; Function compile flags: /Ogsp
;	COMDAT ?GetMonsterIcon@ioNpcChar@@QAEABVioHashString@@XZ
_TEXT	SEGMENT
?GetMonsterIcon@ioNpcChar@@QAEABVioHashString@@XZ PROC	; ioNpcChar::GetMonsterIcon, COMDAT
; _this$ = ecx

; 323  : 	const ioHashString &GetMonsterIcon(){ return m_szMonsterIcon; }

  00000	8d 81 80 48 00
	00		 lea	 eax, DWORD PTR [ecx+18560]
  00006	c3		 ret	 0
?GetMonsterIcon@ioNpcChar@@QAEABVioHashString@@XZ ENDP	; ioNpcChar::GetMonsterIcon
_TEXT	ENDS
PUBLIC	?GetCTFrame@ioSlotItem@@QAE?BKXZ		; ioSlotItem::GetCTFrame
; Function compile flags: /Ogsp
; File d:\lost saga for developer\youtube\tutorial\source\src\lsclient\ioslotmgr.h
;	COMDAT ?GetCTFrame@ioSlotItem@@QAE?BKXZ
_TEXT	SEGMENT
?GetCTFrame@ioSlotItem@@QAE?BKXZ PROC			; ioSlotItem::GetCTFrame, COMDAT
; _this$ = ecx

; 97   : 	const DWORD GetCTFrame() {return m_dwSetCT;}

  00000	8b 41 48	 mov	 eax, DWORD PTR [ecx+72]
  00003	c3		 ret	 0
?GetCTFrame@ioSlotItem@@QAE?BKXZ ENDP			; ioSlotItem::GetCTFrame
_TEXT	ENDS
PUBLIC	?GetCountItem@ioSlotItem@@QAE?BHXZ		; ioSlotItem::GetCountItem
; Function compile flags: /Ogsp
;	COMDAT ?GetCountItem@ioSlotItem@@QAE?BHXZ
_TEXT	SEGMENT
?GetCountItem@ioSlotItem@@QAE?BHXZ PROC			; ioSlotItem::GetCountItem, COMDAT
; _this$ = ecx

; 98   : 	const int GetCountItem() {return m_nCount;}

  00000	8b 41 3c	 mov	 eax, DWORD PTR [ecx+60]
  00003	c3		 ret	 0
?GetCountItem@ioSlotItem@@QAE?BHXZ ENDP			; ioSlotItem::GetCountItem
_TEXT	ENDS
PUBLIC	?GetKeyName@ioSlotItem@@QAE?BGXZ		; ioSlotItem::GetKeyName
; Function compile flags: /Ogsp
;	COMDAT ?GetKeyName@ioSlotItem@@QAE?BGXZ
_TEXT	SEGMENT
?GetKeyName@ioSlotItem@@QAE?BGXZ PROC			; ioSlotItem::GetKeyName, COMDAT
; _this$ = ecx

; 99   : 	const WORD GetKeyName() {return m_wKey;}

  00000	66 8b 41 40	 mov	 ax, WORD PTR [ecx+64]
  00004	c3		 ret	 0
?GetKeyName@ioSlotItem@@QAE?BGXZ ENDP			; ioSlotItem::GetKeyName
_TEXT	ENDS
PUBLIC	?GetImg@ioSlotItem@@QAEABVioHashString@@XZ	; ioSlotItem::GetImg
; Function compile flags: /Ogsp
;	COMDAT ?GetImg@ioSlotItem@@QAEABVioHashString@@XZ
_TEXT	SEGMENT
?GetImg@ioSlotItem@@QAEABVioHashString@@XZ PROC		; ioSlotItem::GetImg, COMDAT
; _this$ = ecx

; 101  : 	const ioHashString& GetImg() {return m_strItemImg;}

  00000	8d 41 04	 lea	 eax, DWORD PTR [ecx+4]
  00003	c3		 ret	 0
?GetImg@ioSlotItem@@QAEABVioHashString@@XZ ENDP		; ioSlotItem::GetImg
_TEXT	ENDS
PUBLIC	?GetBackImg@ioSlotItem@@QAEABVioHashString@@XZ	; ioSlotItem::GetBackImg
; Function compile flags: /Ogsp
;	COMDAT ?GetBackImg@ioSlotItem@@QAEABVioHashString@@XZ
_TEXT	SEGMENT
?GetBackImg@ioSlotItem@@QAEABVioHashString@@XZ PROC	; ioSlotItem::GetBackImg, COMDAT
; _this$ = ecx

; 102  : 	const ioHashString& GetBackImg() {return m_strItemBackImg;}

  00000	8d 41 14	 lea	 eax, DWORD PTR [ecx+20]
  00003	c3		 ret	 0
?GetBackImg@ioSlotItem@@QAEABVioHashString@@XZ ENDP	; ioSlotItem::GetBackImg
_TEXT	ENDS
PUBLIC	__real@4f800000
PUBLIC	?SetSurrender@TowerDefUserGaugeWnd@@QAEX_N@Z	; TowerDefUserGaugeWnd::SetSurrender
EXTRN	__imp_?GetLoopSec@ioFrameTimer@@QBEKXZ:PROC
EXTRN	__imp_?GetSingleton@ioFrameTimer@@SAAAV1@XZ:PROC
;	COMDAT __real@4f800000
; File d:\lost saga for developer\youtube\tutorial\source\src\lsclient\gui\towerdefwnd.h
CONST	SEGMENT
__real@4f800000 DD 04f800000r			; 4.29497e+009
; Function compile flags: /Ogsp
CONST	ENDS
;	COMDAT ?SetSurrender@TowerDefUserGaugeWnd@@QAEX_N@Z
_TEXT	SEGMENT
tv132 = 8						; size = 4
_bSurrender$ = 8					; size = 1
?SetSurrender@TowerDefUserGaugeWnd@@QAEX_N@Z PROC	; TowerDefUserGaugeWnd::SetSurrender, COMDAT
; _this$ = ecx

; 212  : 	void SetSurrender(bool bSurrender) {m_bSurrender = bSurrender; m_fSurrenderTime = (float)FRAMEGETTIME();}

  00000	55		 push	 ebp
  00001	8b ec		 mov	 ebp, esp
  00003	8a 45 08	 mov	 al, BYTE PTR _bSurrender$[ebp]
  00006	56		 push	 esi
  00007	8b f1		 mov	 esi, ecx
  00009	88 86 15 02 00
	00		 mov	 BYTE PTR [esi+533], al
  0000f	ff 15 00 00 00
	00		 call	 DWORD PTR __imp_?GetSingleton@ioFrameTimer@@SAAAV1@XZ
  00015	8b c8		 mov	 ecx, eax
  00017	ff 15 00 00 00
	00		 call	 DWORD PTR __imp_?GetLoopSec@ioFrameTimer@@QBEKXZ
  0001d	89 45 08	 mov	 DWORD PTR tv132[ebp], eax
  00020	db 45 08	 fild	 DWORD PTR tv132[ebp]
  00023	85 c0		 test	 eax, eax
  00025	79 06		 jns	 SHORT $LN3@SetSurrend
  00027	d8 05 00 00 00
	00		 fadd	 DWORD PTR __real@4f800000
$LN3@SetSurrend:
  0002d	d9 9e 10 02 00
	00		 fstp	 DWORD PTR [esi+528]
  00033	5e		 pop	 esi
  00034	5d		 pop	 ebp
  00035	c2 04 00	 ret	 4
?SetSurrender@TowerDefUserGaugeWnd@@QAEX_N@Z ENDP	; TowerDefUserGaugeWnd::SetSurrender
_TEXT	ENDS
PUBLIC	?GetName@TowerDefUserGaugeWnd@@QAEABVioHashString@@XZ ; TowerDefUserGaugeWnd::GetName
; Function compile flags: /Ogsp
;	COMDAT ?GetName@TowerDefUserGaugeWnd@@QAEABVioHashString@@XZ
_TEXT	SEGMENT
?GetName@TowerDefUserGaugeWnd@@QAEABVioHashString@@XZ PROC ; TowerDefUserGaugeWnd::GetName, COMDAT
; _this$ = ecx

; 236  : 	const ioHashString &GetName(){ return m_szUserName; }

  00000	8d 81 18 02 00
	00		 lea	 eax, DWORD PTR [ecx+536]
  00006	c3		 ret	 0
?GetName@TowerDefUserGaugeWnd@@QAEABVioHashString@@XZ ENDP ; TowerDefUserGaugeWnd::GetName
_TEXT	ENDS
PUBLIC	??0TowerDef3DChar@@QAE@XZ			; TowerDef3DChar::TowerDef3DChar
; Function compile flags: /Ogsp
; File d:\lost saga for developer\youtube\tutorial\source\src\lsclient\gui\towerdefwnd.cpp
;	COMDAT ??0TowerDef3DChar@@QAE@XZ
_TEXT	SEGMENT
??0TowerDef3DChar@@QAE@XZ PROC				; TowerDef3DChar::TowerDef3DChar, COMDAT
; _this$ = ecx

; 17   : {

  00000	8b c1		 mov	 eax, ecx

; 18   : 	m_pUI3DRender = NULL;

  00002	33 c9		 xor	 ecx, ecx
  00004	89 08		 mov	 DWORD PTR [eax], ecx

; 19   : 	m_pAvata      = NULL;

  00006	89 48 04	 mov	 DWORD PTR [eax+4], ecx

; 20   : 	
; 21   : 	m_iOffsetXPos = 0;

  00009	89 48 08	 mov	 DWORD PTR [eax+8], ecx

; 22   : 	m_iOffsetYPos = 0;

  0000c	89 48 0c	 mov	 DWORD PTR [eax+12], ecx

; 23   : }

  0000f	c3		 ret	 0
??0TowerDef3DChar@@QAE@XZ ENDP				; TowerDef3DChar::TowerDef3DChar
_TEXT	ENDS
PUBLIC	??1TowerDef3DChar@@QAE@XZ			; TowerDef3DChar::~TowerDef3DChar
; Function compile flags: /Ogsp
;	COMDAT ??1TowerDef3DChar@@QAE@XZ
_TEXT	SEGMENT
??1TowerDef3DChar@@QAE@XZ PROC				; TowerDef3DChar::~TowerDef3DChar, COMDAT
; _this$ = ecx

; 26   : {

  00000	56		 push	 esi
  00001	8b f1		 mov	 esi, ecx

; 27   : 	SAFEDELETE( m_pAvata );

  00003	8b 4e 04	 mov	 ecx, DWORD PTR [esi+4]
  00006	85 c9		 test	 ecx, ecx
  00008	74 0b		 je	 SHORT $LN2@TowerDef3D
  0000a	8b 01		 mov	 eax, DWORD PTR [ecx]
  0000c	6a 01		 push	 1
  0000e	ff 50 04	 call	 DWORD PTR [eax+4]
  00011	83 66 04 00	 and	 DWORD PTR [esi+4], 0
$LN2@TowerDef3D:

; 28   : 	SAFEDELETE( m_pUI3DRender );

  00015	8b 0e		 mov	 ecx, DWORD PTR [esi]
  00017	85 c9		 test	 ecx, ecx
  00019	74 09		 je	 SHORT $LN1@TowerDef3D
  0001b	8b 01		 mov	 eax, DWORD PTR [ecx]
  0001d	6a 01		 push	 1
  0001f	ff 10		 call	 DWORD PTR [eax]
  00021	83 26 00	 and	 DWORD PTR [esi], 0
$LN1@TowerDef3D:
  00024	5e		 pop	 esi

; 29   : }

  00025	c3		 ret	 0
??1TowerDef3DChar@@QAE@XZ ENDP				; TowerDef3DChar::~TowerDef3DChar
_TEXT	ENDS
PUBLIC	??_C@_0CE@FCMGKOOH@config?1sp2_stage_charselect_map?4@ ; `string'
PUBLIC	??_C@_0L@DAEPCAMJ@ladder_cam?$AA@		; `string'
PUBLIC	?Initialize@TowerDef3DChar@@QAEXXZ		; TowerDef3DChar::Initialize
EXTRN	?Initialize@ioUI3DRender@@QAEXPBD0@Z:PROC	; ioUI3DRender::Initialize
EXTRN	??0ioUI3DRender@@QAE@XZ:PROC			; ioUI3DRender::ioUI3DRender
EXTRN	??2@YAPAXI@Z:PROC				; operator new
EXTRN	___CxxFrameHandler3:PROC
EXTRN	@__security_check_cookie@4:PROC
EXTRN	__EH_epilog3:PROC
EXTRN	__EH_prolog3:PROC
;	COMDAT ??_C@_0CE@FCMGKOOH@config?1sp2_stage_charselect_map?4@
CONST	SEGMENT
??_C@_0CE@FCMGKOOH@config?1sp2_stage_charselect_map?4@ DB 'config/sp2_sta'
	DB	'ge_charselect_map.ini', 00H			; `string'
CONST	ENDS
;	COMDAT ??_C@_0L@DAEPCAMJ@ladder_cam?$AA@
CONST	SEGMENT
??_C@_0L@DAEPCAMJ@ladder_cam?$AA@ DB 'ladder_cam', 00H	; `string'
CONST	ENDS
;	COMDAT xdata$x
xdata$x	SEGMENT
__unwindtable$?Initialize@TowerDef3DChar@@QAEXXZ DD 0ffffffffH
	DD	FLAT:__unwindfunclet$?Initialize@TowerDef3DChar@@QAEXXZ$0
__ehfuncinfo$?Initialize@TowerDef3DChar@@QAEXXZ DD 019930522H
	DD	01H
	DD	FLAT:__unwindtable$?Initialize@TowerDef3DChar@@QAEXXZ
	DD	2 DUP(00H)
	DD	2 DUP(00H)
	DD	00H
	DD	01H
; Function compile flags: /Ogsp
xdata$x	ENDS
;	COMDAT ?Initialize@TowerDef3DChar@@QAEXXZ
_TEXT	SEGMENT
$T528469 = -16						; size = 4
__$EHRec$ = -12						; size = 12
?Initialize@TowerDef3DChar@@QAEXXZ PROC			; TowerDef3DChar::Initialize, COMDAT
; _this$ = ecx

; 32   : {

  00000	6a 04		 push	 4
  00002	b8 00 00 00 00	 mov	 eax, __ehhandler$?Initialize@TowerDef3DChar@@QAEXXZ
  00007	e8 00 00 00 00	 call	 __EH_prolog3
  0000c	8b f1		 mov	 esi, ecx

; 33   : 	SAFEDELETE( m_pUI3DRender );

  0000e	8b 0e		 mov	 ecx, DWORD PTR [esi]
  00010	85 c9		 test	 ecx, ecx
  00012	74 09		 je	 SHORT $LN1@Initialize
  00014	8b 01		 mov	 eax, DWORD PTR [ecx]
  00016	6a 01		 push	 1
  00018	ff 10		 call	 DWORD PTR [eax]
  0001a	83 26 00	 and	 DWORD PTR [esi], 0
$LN1@Initialize:

; 34   : 	m_pUI3DRender = new ioUI3DRender;

  0001d	6a 48		 push	 72			; 00000048H
  0001f	e8 00 00 00 00	 call	 ??2@YAPAXI@Z		; operator new
  00024	59		 pop	 ecx
  00025	8b c8		 mov	 ecx, eax
  00027	89 4d f0	 mov	 DWORD PTR $T528469[ebp], ecx
  0002a	83 65 fc 00	 and	 DWORD PTR __$EHRec$[ebp+8], 0
  0002e	85 c9		 test	 ecx, ecx
  00030	74 07		 je	 SHORT $LN6@Initialize
  00032	e8 00 00 00 00	 call	 ??0ioUI3DRender@@QAE@XZ	; ioUI3DRender::ioUI3DRender
  00037	eb 02		 jmp	 SHORT $LN7@Initialize
$LN6@Initialize:
  00039	33 c0		 xor	 eax, eax
$LN7@Initialize:
  0003b	83 4d fc ff	 or	 DWORD PTR __$EHRec$[ebp+8], -1

; 35   : 	m_pUI3DRender->Initialize( "config/sp2_stage_charselect_map.ini", "ladder_cam" );

  0003f	68 00 00 00 00	 push	 OFFSET ??_C@_0L@DAEPCAMJ@ladder_cam?$AA@
  00044	68 00 00 00 00	 push	 OFFSET ??_C@_0CE@FCMGKOOH@config?1sp2_stage_charselect_map?4@
  00049	8b c8		 mov	 ecx, eax
  0004b	89 06		 mov	 DWORD PTR [esi], eax
  0004d	e8 00 00 00 00	 call	 ?Initialize@ioUI3DRender@@QAEXPBD0@Z ; ioUI3DRender::Initialize

; 36   : }

  00052	e8 00 00 00 00	 call	 __EH_epilog3
  00057	c3		 ret	 0
_TEXT	ENDS
;	COMDAT text$x
text$x	SEGMENT
__unwindfunclet$?Initialize@TowerDef3DChar@@QAEXXZ$0:
  00000	ff 75 f0	 push	 DWORD PTR $T528469[ebp]
  00003	e8 00 00 00 00	 call	 ??3@YAXPAX@Z		; operator delete
  00008	59		 pop	 ecx
  00009	c3		 ret	 0
__ehhandler$?Initialize@TowerDef3DChar@@QAEXXZ:
  0000a	8b 54 24 08	 mov	 edx, DWORD PTR [esp+8]
  0000e	8d 42 0c	 lea	 eax, DWORD PTR [edx+12]
  00011	8b 4a ec	 mov	 ecx, DWORD PTR [edx-20]
  00014	33 c8		 xor	 ecx, eax
  00016	e8 00 00 00 00	 call	 @__security_check_cookie@4
  0001b	b8 00 00 00 00	 mov	 eax, OFFSET __ehfuncinfo$?Initialize@TowerDef3DChar@@QAEXXZ
  00020	e9 00 00 00 00	 jmp	 ___CxxFrameHandler3
text$x	ENDS
?Initialize@TowerDef3DChar@@QAEXXZ ENDP			; TowerDef3DChar::Initialize
PUBLIC	__$ArrayPad$
PUBLIC	?Render@TowerDef3DChar@@QAEXHH@Z		; TowerDef3DChar::Render
EXTRN	?RenderViewPort@ioUI3DRender@@QAEXPBU_D3DRECT@@_N@Z:PROC ; ioUI3DRender::RenderViewPort
EXTRN	___security_cookie:DWORD
; Function compile flags: /Ogsp
;	COMDAT ?Render@TowerDef3DChar@@QAEXHH@Z
_TEXT	SEGMENT
_rcD3D$525551 = -20					; size = 16
__$ArrayPad$ = -4					; size = 4
_iXPos$ = 8						; size = 4
_iYPos$ = 12						; size = 4
?Render@TowerDef3DChar@@QAEXHH@Z PROC			; TowerDef3DChar::Render, COMDAT
; _this$ = ecx

; 78   : {

  00000	55		 push	 ebp
  00001	8b ec		 mov	 ebp, esp
  00003	83 ec 14	 sub	 esp, 20			; 00000014H
  00006	a1 00 00 00 00	 mov	 eax, DWORD PTR ___security_cookie
  0000b	33 c5		 xor	 eax, ebp
  0000d	89 45 fc	 mov	 DWORD PTR __$ArrayPad$[ebp], eax
  00010	8b c1		 mov	 eax, ecx

; 79   : 	if( m_pAvata && m_pUI3DRender )

  00012	83 78 04 00	 cmp	 DWORD PTR [eax+4], 0
  00016	74 2f		 je	 SHORT $LN1@Render
  00018	8b 08		 mov	 ecx, DWORD PTR [eax]
  0001a	85 c9		 test	 ecx, ecx
  0001c	74 29		 je	 SHORT $LN1@Render

; 80   : 	{
; 81   : 		D3DRECT rcD3D;
; 82   : 		rcD3D.x1 = iXPos + 2;//max( 0, iXPos );

  0001e	8b 45 08	 mov	 eax, DWORD PTR _iXPos$[ebp]

; 83   : 		rcD3D.y1 = iYPos + 2;//max( 0, iYPos );

  00021	8b 55 0c	 mov	 edx, DWORD PTR _iYPos$[ebp]
  00024	83 c0 02	 add	 eax, 2
  00027	89 45 ec	 mov	 DWORD PTR _rcD3D$525551[ebp], eax

; 84   : 		rcD3D.x2 = rcD3D.x1 + VIEW_WIDTH;

  0002a	83 c0 23	 add	 eax, 35			; 00000023H
  0002d	83 c2 02	 add	 edx, 2
  00030	89 45 f4	 mov	 DWORD PTR _rcD3D$525551[ebp+8], eax
  00033	89 55 f0	 mov	 DWORD PTR _rcD3D$525551[ebp+4], edx

; 85   : 		rcD3D.y2 = rcD3D.y1 + VIEW_HEIGHT;
; 86   : 		m_pUI3DRender->RenderViewPort( &rcD3D, true );

  00036	6a 01		 push	 1
  00038	8d 45 ec	 lea	 eax, DWORD PTR _rcD3D$525551[ebp]
  0003b	83 c2 23	 add	 edx, 35			; 00000023H
  0003e	50		 push	 eax
  0003f	89 55 f8	 mov	 DWORD PTR _rcD3D$525551[ebp+12], edx
  00042	e8 00 00 00 00	 call	 ?RenderViewPort@ioUI3DRender@@QAEXPBU_D3DRECT@@_N@Z ; ioUI3DRender::RenderViewPort
$LN1@Render:

; 87   : 	}
; 88   : }

  00047	8b 4d fc	 mov	 ecx, DWORD PTR __$ArrayPad$[ebp]
  0004a	33 cd		 xor	 ecx, ebp
  0004c	e8 00 00 00 00	 call	 @__security_check_cookie@4
  00051	c9		 leave
  00052	c2 08 00	 ret	 8
?Render@TowerDef3DChar@@QAEXHH@Z ENDP			; TowerDef3DChar::Render
_TEXT	ENDS
PUBLIC	?FaceChange@TowerDef3DChar@@QAEXPBDH@Z		; TowerDef3DChar::FaceChange
EXTRN	?DirectFaceChange@ioCreateChar@@QAEXPBDH@Z:PROC	; ioCreateChar::DirectFaceChange
; Function compile flags: /Ogsp
;	COMDAT ?FaceChange@TowerDef3DChar@@QAEXPBDH@Z
_TEXT	SEGMENT
_szTexPostfix$ = 8					; size = 4
_iDuration$ = 12					; size = 4
?FaceChange@TowerDef3DChar@@QAEXPBDH@Z PROC		; TowerDef3DChar::FaceChange, COMDAT
; _this$ = ecx

; 91   : {

  00000	55		 push	 ebp
  00001	8b ec		 mov	 ebp, esp

; 92   : 	if( m_pAvata )

  00003	8b 49 04	 mov	 ecx, DWORD PTR [ecx+4]
  00006	85 c9		 test	 ecx, ecx
  00008	74 06		 je	 SHORT $LN1@FaceChange

; 95   : 	}
; 96   : }

  0000a	5d		 pop	 ebp

; 93   : 	{
; 94   : 		m_pAvata->DirectFaceChange( szTexPostfix, iDuration );

  0000b	e9 00 00 00 00	 jmp	 ?DirectFaceChange@ioCreateChar@@QAEXPBDH@Z ; ioCreateChar::DirectFaceChange
$LN1@FaceChange:

; 95   : 	}
; 96   : }

  00010	5d		 pop	 ebp
  00011	c2 08 00	 ret	 8
?FaceChange@TowerDef3DChar@@QAEXPBDH@Z ENDP		; TowerDef3DChar::FaceChange
_TEXT	ENDS
PUBLIC	?Update@TowerDef3DChar@@QAEXM@Z			; TowerDef3DChar::Update
EXTRN	?Update@ioCreateChar@@QAEXM@Z:PROC		; ioCreateChar::Update
; Function compile flags: /Ogsp
;	COMDAT ?Update@TowerDef3DChar@@QAEXM@Z
_TEXT	SEGMENT
_fTimePerSec$ = 8					; size = 4
?Update@TowerDef3DChar@@QAEXM@Z PROC			; TowerDef3DChar::Update, COMDAT
; _this$ = ecx

; 114  : {

  00000	55		 push	 ebp
  00001	8b ec		 mov	 ebp, esp

; 115  : 	if( m_pAvata )

  00003	8b 49 04	 mov	 ecx, DWORD PTR [ecx+4]
  00006	85 c9		 test	 ecx, ecx
  00008	74 10		 je	 SHORT $LN1@Update

; 116  : 	{
; 117  : 		m_pAvata->Update( fTimePerSec );

  0000a	f3 0f 10 45 08	 movss	 xmm0, DWORD PTR _fTimePerSec$[ebp]
  0000f	51		 push	 ecx
  00010	f3 0f 11 04 24	 movss	 DWORD PTR [esp], xmm0
  00015	e8 00 00 00 00	 call	 ?Update@ioCreateChar@@QAEXM@Z ; ioCreateChar::Update
$LN1@Update:

; 118  : 
; 119  : 		// TEST
; 120  : /*		ioINILoader_e kLoader( "test.ini" );
; 121  : 		kLoader.SetTitle_e( "common2" );
; 122  : 		D3DXVECTOR3 vCharPos( kLoader.LoadFloat_e( "px", 0.0f ), kLoader.LoadFloat_e( "py", 0.0f ), kLoader.LoadFloat_e( "pz", FLOAT500 ) );
; 123  : 		m_pAvata->SetPosition( vCharPos );
; 124  : 		m_pAvata->SetScale( kLoader.LoadFloat_e( "ps", FLOAT1 ) );
; 125  : 		m_pAvata->SetYaw( kLoader.LoadFloat_e( "yaw", FLOAT10 ) );
; 126  : 		m_pUI3DRender->SetLookAt( vCharPos );
; 127  : 
; 128  : 		m_iOffsetXPos = kLoader.LoadInt_e( "offX", 0 );
; 129  : 		m_iOffsetYPos = kLoader.LoadInt_e( "offY", 0 );
; 130  : */
; 131  : //		m_pAvata->SetPosition( kLoader.LoadFloat_e( "px", 0.0f ), kLoader.LoadFloat_e( "py", -FLOAT90 ), kLoader.LoadFloat_e( "pz", 900.0f ) );
; 132  : //		m_pAvata->SetYaw( kLoader.LoadFloat_e( "yaw", FLOAT10 ) );
; 133  : //		m_pUI3DRender->SetLookAt( kLoader.LoadFloat_e( "lax", 0.0f ), kLoader.LoadFloat_e( "lay", 0.0f ), kLoader.LoadFloat_e( "laz", 900.0f ) );
; 134  : 	}
; 135  : }

  0001a	5d		 pop	 ebp
  0001b	c2 04 00	 ret	 4
?Update@TowerDef3DChar@@QAEXM@Z ENDP			; TowerDef3DChar::Update
_TEXT	ENDS
PUBLIC	??0stUserGauge@TowerDefWnd@@QAE@XZ		; TowerDefWnd::stUserGauge::stUserGauge
EXTRN	__imp_??0ioHashString@@QAE@XZ:PROC
; Function compile flags: /Ogsp
;	COMDAT ??0stUserGauge@TowerDefWnd@@QAE@XZ
_TEXT	SEGMENT
??0stUserGauge@TowerDefWnd@@QAE@XZ PROC			; TowerDefWnd::stUserGauge::stUserGauge, COMDAT
; _this$ = ecx
  00000	56		 push	 esi
  00001	8b f1		 mov	 esi, ecx
  00003	8d 4e 04	 lea	 ecx, DWORD PTR [esi+4]
  00006	ff 15 00 00 00
	00		 call	 DWORD PTR __imp_??0ioHashString@@QAE@XZ
  0000c	8b c6		 mov	 eax, esi
  0000e	5e		 pop	 esi
  0000f	c3		 ret	 0
??0stUserGauge@TowerDefWnd@@QAE@XZ ENDP			; TowerDefWnd::stUserGauge::stUserGauge
_TEXT	ENDS
PUBLIC	??1stUserGauge@TowerDefWnd@@QAE@XZ		; TowerDefWnd::stUserGauge::~stUserGauge
EXTRN	__imp_??1ioHashString@@QAE@XZ:PROC
; Function compile flags: /Ogsp
;	COMDAT ??1stUserGauge@TowerDefWnd@@QAE@XZ
_TEXT	SEGMENT
??1stUserGauge@TowerDefWnd@@QAE@XZ PROC			; TowerDefWnd::stUserGauge::~stUserGauge, COMDAT
; _this$ = ecx
  00000	83 c1 04	 add	 ecx, 4
  00003	ff 25 00 00 00
	00		 jmp	 DWORD PTR __imp_??1ioHashString@@QAE@XZ
??1stUserGauge@TowerDefWnd@@QAE@XZ ENDP			; TowerDefWnd::stUserGauge::~stUserGauge
_TEXT	ENDS
PUBLIC	??_7TowerDefWnd@@6B@				; TowerDefWnd::`vftable'
PUBLIC	??1TowerDefWnd@@UAE@XZ				; TowerDefWnd::~TowerDefWnd
PUBLIC	??_R4TowerDefWnd@@6B@				; TowerDefWnd::`RTTI Complete Object Locator'
PUBLIC	??_R0?AVTowerDefWnd@@@8				; TowerDefWnd `RTTI Type Descriptor'
PUBLIC	??_R3TowerDefWnd@@8				; TowerDefWnd::`RTTI Class Hierarchy Descriptor'
PUBLIC	??_R2TowerDefWnd@@8				; TowerDefWnd::`RTTI Base Class Array'
PUBLIC	??_R1A@?0A@EA@TowerDefWnd@@8			; TowerDefWnd::`RTTI Base Class Descriptor at (0,-1,0,64)'
PUBLIC	??_R1A@?0A@EA@ioMovingWnd@@8			; ioMovingWnd::`RTTI Base Class Descriptor at (0,-1,0,64)'
PUBLIC	??_R0?AVioMovingWnd@@@8				; ioMovingWnd `RTTI Type Descriptor'
PUBLIC	??_R3ioMovingWnd@@8				; ioMovingWnd::`RTTI Class Hierarchy Descriptor'
PUBLIC	??_R2ioMovingWnd@@8				; ioMovingWnd::`RTTI Base Class Array'
PUBLIC	??_R1A@?0A@EA@ioWnd@@8				; ioWnd::`RTTI Base Class Descriptor at (0,-1,0,64)'
PUBLIC	??_R0?AVioWnd@@@8				; ioWnd `RTTI Type Descriptor'
PUBLIC	??_R3ioWnd@@8					; ioWnd::`RTTI Class Hierarchy Descriptor'
PUBLIC	??_R2ioWnd@@8					; ioWnd::`RTTI Base Class Array'
EXTRN	__imp_??1ioMovingWnd@@UAE@XZ:PROC
EXTRN	??1FSMStateMgr@@UAE@XZ:PROC			; FSMStateMgr::~FSMStateMgr
EXTRN	??_M@YGXPAXIHP6EX0@Z@Z:PROC			; `eh vector destructor iterator'
EXTRN	?AddRenderFrame@ioWnd@@UAEXABVioHashString@@PAVioUIRenderFrame@@@Z:PROC ; ioWnd::AddRenderFrame
EXTRN	?AddRenderImage@ioWnd@@UAEXABVioHashString@@PAVioUIRenderImage@@@Z:PROC ; ioWnd::AddRenderImage
EXTRN	?AddTooltipHelp@ioWnd@@UAEXABVioHashString@@00@Z:PROC ; ioWnd::AddTooltipHelp
EXTRN	?ParseExtraInfo@ioWnd@@UAEXAAVioXMLElement@@@Z:PROC ; ioWnd::ParseExtraInfo
EXTRN	?AddNamedRenderImage@ioWnd@@UAEXABVioHashString@@PAVioUIRenderImage@@@Z:PROC ; ioWnd::AddNamedRenderImage
EXTRN	?RemoveNamedRenderImage@ioWnd@@UAEXABVioHashString@@@Z:PROC ; ioWnd::RemoveNamedRenderImage
EXTRN	?GetNamedRenderImage@ioWnd@@UBEPAVioUIRenderImage@@ABVioHashString@@@Z:PROC ; ioWnd::GetNamedRenderImage
EXTRN	?SetWindowAlpha@ioWnd@@UAEXH@Z:PROC		; ioWnd::SetWindowAlpha
EXTRN	?SetActive@ioWnd@@UAEXXZ:PROC			; ioWnd::SetActive
EXTRN	?SetInActive@ioWnd@@UAEXXZ:PROC			; ioWnd::SetInActive
EXTRN	?ClearElementImageList@ioWnd@@UAEXXZ:PROC	; ioWnd::ClearElementImageList
EXTRN	?SetSize@ioWnd@@UAEXHH@Z:PROC			; ioWnd::SetSize
EXTRN	?SetPositionToDefault@ioMovingWnd@@UAEXHH_N0@Z:PROC ; ioMovingWnd::SetPositionToDefault
EXTRN	?IsNeedProcess@ioWnd@@UBE_NXZ:PROC		; ioWnd::IsNeedProcess
EXTRN	?IsCanMouseReaction@ioWnd@@UBE_NXZ:PROC		; ioWnd::IsCanMouseReaction
EXTRN	?AddChild@ioWnd@@UAEXPAV1@@Z:PROC		; ioWnd::AddChild
EXTRN	?DeleteChild@ioWnd@@UAEXK@Z:PROC		; ioWnd::DeleteChild
EXTRN	?DeleteAllChild@ioWnd@@UAEXXZ:PROC		; ioWnd::DeleteAllChild
EXTRN	?OnRenderShowAndHide@ioWnd@@MAE_NXZ:PROC	; ioWnd::OnRenderShowAndHide
EXTRN	?OnRenderShowAndHideByDefault@ioWnd@@MAE_NK@Z:PROC ; ioWnd::OnRenderShowAndHideByDefault
EXTRN	?OnRenderShowAndHideByTop@ioWnd@@MAE_NK@Z:PROC	; ioWnd::OnRenderShowAndHideByTop
EXTRN	?OnRenderShowAndHideByDown@ioWnd@@MAE_NK@Z:PROC	; ioWnd::OnRenderShowAndHideByDown
EXTRN	?OnRender@ioWnd@@MAEXXZ:PROC			; ioWnd::OnRender
EXTRN	?OnRenderAfterChild@ioWnd@@MAEXXZ:PROC		; ioWnd::OnRenderAfterChild
EXTRN	?OnProcess@ioWnd@@MAEXM@Z:PROC			; ioWnd::OnProcess
EXTRN	?OnMouseProcess@ioMovingWnd@@MAEXABVioMouse@@@Z:PROC ; ioMovingWnd::OnMouseProcess
EXTRN	?CheckFrameReSize@ioWnd@@MAEXHHHH@Z:PROC	; ioWnd::CheckFrameReSize
EXTRN	?RenderImageList@ioWnd@@MAEXHHW4UIRenderType@@@Z:PROC ; ioWnd::RenderImageList
EXTRN	?iwm_create@ioWnd@@UAEXXZ:PROC			; ioWnd::iwm_create
EXTRN	?iwm_destroy@ioWnd@@UAEXXZ:PROC			; ioWnd::iwm_destroy
EXTRN	?iwm_lbuttondown@ioMovingWnd@@UAEXABVioMouse@@@Z:PROC ; ioMovingWnd::iwm_lbuttondown
EXTRN	?iwm_lbuttonup@ioMovingWnd@@UAEXABVioMouse@@@Z:PROC ; ioMovingWnd::iwm_lbuttonup
EXTRN	?iwm_lbuttonDBLCLK@ioWnd@@UAEXABVioMouse@@@Z:PROC ; ioWnd::iwm_lbuttonDBLCLK
EXTRN	?iwm_rbuttondown@ioWnd@@UAEXABVioMouse@@@Z:PROC	; ioWnd::iwm_rbuttondown
EXTRN	?iwm_rbuttonup@ioWnd@@UAEXABVioMouse@@@Z:PROC	; ioWnd::iwm_rbuttonup
EXTRN	?iwm_command@ioWnd@@UAEXPAV1@HK@Z:PROC		; ioWnd::iwm_command
EXTRN	?iwm_mouseover@ioWnd@@UAEXABVioMouse@@@Z:PROC	; ioWnd::iwm_mouseover
EXTRN	?iwm_mousemove@ioWnd@@UAEXABVioMouse@@@Z:PROC	; ioWnd::iwm_mousemove
EXTRN	?iwm_mouseleave@ioWnd@@UAEXABVioMouse@@@Z:PROC	; ioWnd::iwm_mouseleave
EXTRN	?iwm_vscroll@ioWnd@@UAEXKH@Z:PROC		; ioWnd::iwm_vscroll
EXTRN	?iwm_wheel@ioWnd@@UAEXH@Z:PROC			; ioWnd::iwm_wheel
EXTRN	?iwm_show@ioWnd@@UAEXXZ:PROC			; ioWnd::iwm_show
EXTRN	?iwm_hide@ioWnd@@UAEXXZ:PROC			; ioWnd::iwm_hide
EXTRN	?iwm_esc@ioWnd@@UAE_NXZ:PROC			; ioWnd::iwm_esc
EXTRN	?iwm_spacebar@ioWnd@@UAE_NXZ:PROC		; ioWnd::iwm_spacebar
EXTRN	?iwm_gototop@ioWnd@@UAEXXZ:PROC			; ioWnd::iwm_gototop
EXTRN	?iwm_dragenter@ioWnd@@UAE?AW4IWDropEffect@@PAVioDragItem@@ABVioMouse@@@Z:PROC ; ioWnd::iwm_dragenter
EXTRN	?iwm_dragover@ioWnd@@UAE?AW4IWDropEffect@@PAVioDragItem@@ABVioMouse@@@Z:PROC ; ioWnd::iwm_dragover
EXTRN	?iwm_dragleave@ioWnd@@UAEXXZ:PROC		; ioWnd::iwm_dragleave
EXTRN	?iwm_dropitem@ioWnd@@UAE_NPAVioDragItem@@ABVioMouse@@PAV1@@Z:PROC ; ioWnd::iwm_dropitem
EXTRN	?iwm_dropdone@ioWnd@@UAEXPAVioDragItem@@PAV1@_N@Z:PROC ; ioWnd::iwm_dropdone
EXTRN	?IsEXType@ioWnd@@UBE_NXZ:PROC			; ioWnd::IsEXType
EXTRN	?GetWndType@ioWnd@@UBEKXZ:PROC			; ioWnd::GetWndType
EXTRN	?RenderWnd@ioWnd@@UAEXXZ:PROC			; ioWnd::RenderWnd
EXTRN	?SetIDEX@ioWnd@@UAEXAAK_N@Z:PROC		; ioWnd::SetIDEX
EXTRN	?ParseXML@ioWnd@@UAEXAAVioXMLElement@@@Z:PROC	; ioWnd::ParseXML
EXTRN	?GetHeaderFileName@ioWnd@@UAEPBDXZ:PROC		; ioWnd::GetHeaderFileName
EXTRN	?GetTemplateName@ioWnd@@UAEPBDXZ:PROC		; ioWnd::GetTemplateName
EXTRN	?GetDefClassName@ioWnd@@UBEPBDXZ:PROC		; ioWnd::GetDefClassName
EXTRN	?_Clone@ioWnd@@UAEPAV1@XZ:PROC			; ioWnd::_Clone
EXTRN	?Copy@ioWnd@@UAEXPAV1@@Z:PROC			; ioWnd::Copy
EXTRN	?Save@ioWnd@@UAE_NAAVioXMLElement@@@Z:PROC	; ioWnd::Save
EXTRN	?SetSaveData@ioWnd@@UAEXAAVioXMLElement@@@Z:PROC ; ioWnd::SetSaveData
EXTRN	?SetPosX@ioWnd@@UAEXH@Z:PROC			; ioWnd::SetPosX
EXTRN	?SetPosY@ioWnd@@UAEXH@Z:PROC			; ioWnd::SetPosY
EXTRN	?SetWidth@ioWnd@@UAEXH@Z:PROC			; ioWnd::SetWidth
EXTRN	?SetHeight@ioWnd@@UAEXH@Z:PROC			; ioWnd::SetHeight
EXTRN	?GetNumFixedRenderFrame@ioWnd@@UBEHXZ:PROC	; ioWnd::GetNumFixedRenderFrame
EXTRN	?GetFixedRenderFrameType@ioWnd@@UAEPBDH@Z:PROC	; ioWnd::GetFixedRenderFrameType
EXTRN	?GetRenderFrame@ioWnd@@UAEPAPAVioUIRenderElement@@PBD@Z:PROC ; ioWnd::GetRenderFrame
EXTRN	?GetNumFixedRenderImage@ioWnd@@UBEHXZ:PROC	; ioWnd::GetNumFixedRenderImage
EXTRN	?GetFixedRenderImageType@ioWnd@@UAEPBDH@Z:PROC	; ioWnd::GetFixedRenderImageType
EXTRN	?GetRenderImage@ioWnd@@UAEPAPAVioUIRenderElement@@PBD@Z:PROC ; ioWnd::GetRenderImage
EXTRN	?AddEffect@ioWnd@@UAEXABVioHashString@@PAVioUI3DEffectRender@@@Z:PROC ; ioWnd::AddEffect
EXTRN	?GetEffect@ioWnd@@UAEPAVioUI3DEffectRender@@VioHashString@@@Z:PROC ; ioWnd::GetEffect
EXTRN	??_ETowerDefWnd@@UAEPAXI@Z:PROC			; TowerDefWnd::`vector deleting destructor'
;	COMDAT ??_R2ioWnd@@8
rdata$r	SEGMENT
??_R2ioWnd@@8 DD FLAT:??_R1A@?0A@EA@ioWnd@@8		; ioWnd::`RTTI Base Class Array'
rdata$r	ENDS
;	COMDAT ??_R3ioWnd@@8
rdata$r	SEGMENT
??_R3ioWnd@@8 DD 00H					; ioWnd::`RTTI Class Hierarchy Descriptor'
	DD	00H
	DD	01H
	DD	FLAT:??_R2ioWnd@@8
rdata$r	ENDS
;	COMDAT ??_R0?AVioWnd@@@8
_DATA	SEGMENT
??_R0?AVioWnd@@@8 DD FLAT:??_7type_info@@6B@		; ioWnd `RTTI Type Descriptor'
	DD	00H
	DB	'.?AVioWnd@@', 00H
_DATA	ENDS
;	COMDAT ??_R1A@?0A@EA@ioWnd@@8
rdata$r	SEGMENT
??_R1A@?0A@EA@ioWnd@@8 DD FLAT:??_R0?AVioWnd@@@8	; ioWnd::`RTTI Base Class Descriptor at (0,-1,0,64)'
	DD	00H
	DD	00H
	DD	0ffffffffH
	DD	00H
	DD	040H
	DD	FLAT:??_R3ioWnd@@8
rdata$r	ENDS
;	COMDAT ??_R2ioMovingWnd@@8
rdata$r	SEGMENT
??_R2ioMovingWnd@@8 DD FLAT:??_R1A@?0A@EA@ioMovingWnd@@8 ; ioMovingWnd::`RTTI Base Class Array'
	DD	FLAT:??_R1A@?0A@EA@ioWnd@@8
rdata$r	ENDS
;	COMDAT ??_R3ioMovingWnd@@8
rdata$r	SEGMENT
??_R3ioMovingWnd@@8 DD 00H				; ioMovingWnd::`RTTI Class Hierarchy Descriptor'
	DD	00H
	DD	02H
	DD	FLAT:??_R2ioMovingWnd@@8
rdata$r	ENDS
;	COMDAT ??_R0?AVioMovingWnd@@@8
_DATA	SEGMENT
??_R0?AVioMovingWnd@@@8 DD FLAT:??_7type_info@@6B@	; ioMovingWnd `RTTI Type Descriptor'
	DD	00H
	DB	'.?AVioMovingWnd@@', 00H
_DATA	ENDS
;	COMDAT ??_R1A@?0A@EA@ioMovingWnd@@8
rdata$r	SEGMENT
??_R1A@?0A@EA@ioMovingWnd@@8 DD FLAT:??_R0?AVioMovingWnd@@@8 ; ioMovingWnd::`RTTI Base Class Descriptor at (0,-1,0,64)'
	DD	01H
	DD	00H
	DD	0ffffffffH
	DD	00H
	DD	040H
	DD	FLAT:??_R3ioMovingWnd@@8
rdata$r	ENDS
;	COMDAT ??_R1A@?0A@EA@TowerDefWnd@@8
rdata$r	SEGMENT
??_R1A@?0A@EA@TowerDefWnd@@8 DD FLAT:??_R0?AVTowerDefWnd@@@8 ; TowerDefWnd::`RTTI Base Class Descriptor at (0,-1,0,64)'
	DD	02H
	DD	00H
	DD	0ffffffffH
	DD	00H
	DD	040H
	DD	FLAT:??_R3TowerDefWnd@@8
rdata$r	ENDS
;	COMDAT ??_R2TowerDefWnd@@8
rdata$r	SEGMENT
??_R2TowerDefWnd@@8 DD FLAT:??_R1A@?0A@EA@TowerDefWnd@@8 ; TowerDefWnd::`RTTI Base Class Array'
	DD	FLAT:??_R1A@?0A@EA@ioMovingWnd@@8
	DD	FLAT:??_R1A@?0A@EA@ioWnd@@8
rdata$r	ENDS
;	COMDAT ??_R3TowerDefWnd@@8
rdata$r	SEGMENT
??_R3TowerDefWnd@@8 DD 00H				; TowerDefWnd::`RTTI Class Hierarchy Descriptor'
	DD	00H
	DD	03H
	DD	FLAT:??_R2TowerDefWnd@@8
rdata$r	ENDS
;	COMDAT ??_R0?AVTowerDefWnd@@@8
_DATA	SEGMENT
??_R0?AVTowerDefWnd@@@8 DD FLAT:??_7type_info@@6B@	; TowerDefWnd `RTTI Type Descriptor'
	DD	00H
	DB	'.?AVTowerDefWnd@@', 00H
_DATA	ENDS
;	COMDAT ??_R4TowerDefWnd@@6B@
rdata$r	SEGMENT
??_R4TowerDefWnd@@6B@ DD 00H				; TowerDefWnd::`RTTI Complete Object Locator'
	DD	00H
	DD	00H
	DD	FLAT:??_R0?AVTowerDefWnd@@@8
	DD	FLAT:??_R3TowerDefWnd@@8
rdata$r	ENDS
;	COMDAT ??_7TowerDefWnd@@6B@
CONST	SEGMENT
??_7TowerDefWnd@@6B@ DD FLAT:??_R4TowerDefWnd@@6B@	; TowerDefWnd::`vftable'
	DD	FLAT:?AddRenderFrame@ioWnd@@UAEXABVioHashString@@PAVioUIRenderFrame@@@Z
	DD	FLAT:?AddRenderImage@ioWnd@@UAEXABVioHashString@@PAVioUIRenderImage@@@Z
	DD	FLAT:?AddTooltipHelp@ioWnd@@UAEXABVioHashString@@00@Z
	DD	FLAT:?ParseExtraInfo@ioWnd@@UAEXAAVioXMLElement@@@Z
	DD	FLAT:?AddNamedRenderImage@ioWnd@@UAEXABVioHashString@@PAVioUIRenderImage@@@Z
	DD	FLAT:?RemoveNamedRenderImage@ioWnd@@UAEXABVioHashString@@@Z
	DD	FLAT:?GetNamedRenderImage@ioWnd@@UBEPAVioUIRenderImage@@ABVioHashString@@@Z
	DD	FLAT:?SetWindowAlpha@ioWnd@@UAEXH@Z
	DD	FLAT:?SetActive@ioWnd@@UAEXXZ
	DD	FLAT:?SetInActive@ioWnd@@UAEXXZ
	DD	FLAT:?ClearElementImageList@ioWnd@@UAEXXZ
	DD	FLAT:?SetSize@ioWnd@@UAEXHH@Z
	DD	FLAT:?SetPositionToDefault@ioMovingWnd@@UAEXHH_N0@Z
	DD	FLAT:?IsNeedProcess@ioWnd@@UBE_NXZ
	DD	FLAT:?IsCanMouseReaction@ioWnd@@UBE_NXZ
	DD	FLAT:?AddChild@ioWnd@@UAEXPAV1@@Z
	DD	FLAT:?DeleteChild@ioWnd@@UAEXK@Z
	DD	FLAT:?DeleteAllChild@ioWnd@@UAEXXZ
	DD	FLAT:?OnRenderShowAndHide@ioWnd@@MAE_NXZ
	DD	FLAT:?OnRenderShowAndHideByDefault@ioWnd@@MAE_NK@Z
	DD	FLAT:?OnRenderShowAndHideByTop@ioWnd@@MAE_NK@Z
	DD	FLAT:?OnRenderShowAndHideByDown@ioWnd@@MAE_NK@Z
	DD	FLAT:?OnRender@ioWnd@@MAEXXZ
	DD	FLAT:?OnRenderAfterChild@ioWnd@@MAEXXZ
	DD	FLAT:?OnProcess@ioWnd@@MAEXM@Z
	DD	FLAT:?OnMouseProcess@ioMovingWnd@@MAEXABVioMouse@@@Z
	DD	FLAT:?CheckFrameReSize@ioWnd@@MAEXHHHH@Z
	DD	FLAT:?RenderImageList@ioWnd@@MAEXHHW4UIRenderType@@@Z
	DD	FLAT:?iwm_create@ioWnd@@UAEXXZ
	DD	FLAT:?iwm_destroy@ioWnd@@UAEXXZ
	DD	FLAT:?iwm_lbuttondown@ioMovingWnd@@UAEXABVioMouse@@@Z
	DD	FLAT:?iwm_lbuttonup@ioMovingWnd@@UAEXABVioMouse@@@Z
	DD	FLAT:?iwm_lbuttonDBLCLK@ioWnd@@UAEXABVioMouse@@@Z
	DD	FLAT:?iwm_rbuttondown@ioWnd@@UAEXABVioMouse@@@Z
	DD	FLAT:?iwm_rbuttonup@ioWnd@@UAEXABVioMouse@@@Z
	DD	FLAT:?iwm_command@ioWnd@@UAEXPAV1@HK@Z
	DD	FLAT:?iwm_mouseover@ioWnd@@UAEXABVioMouse@@@Z
	DD	FLAT:?iwm_mousemove@ioWnd@@UAEXABVioMouse@@@Z
	DD	FLAT:?iwm_mouseleave@ioWnd@@UAEXABVioMouse@@@Z
	DD	FLAT:?iwm_vscroll@ioWnd@@UAEXKH@Z
	DD	FLAT:?iwm_wheel@ioWnd@@UAEXH@Z
	DD	FLAT:?iwm_show@ioWnd@@UAEXXZ
	DD	FLAT:?iwm_hide@ioWnd@@UAEXXZ
	DD	FLAT:?iwm_esc@ioWnd@@UAE_NXZ
	DD	FLAT:?iwm_spacebar@ioWnd@@UAE_NXZ
	DD	FLAT:?iwm_gototop@ioWnd@@UAEXXZ
	DD	FLAT:?iwm_dragenter@ioWnd@@UAE?AW4IWDropEffect@@PAVioDragItem@@ABVioMouse@@@Z
	DD	FLAT:?iwm_dragover@ioWnd@@UAE?AW4IWDropEffect@@PAVioDragItem@@ABVioMouse@@@Z
	DD	FLAT:?iwm_dragleave@ioWnd@@UAEXXZ
	DD	FLAT:?iwm_dropitem@ioWnd@@UAE_NPAVioDragItem@@ABVioMouse@@PAV1@@Z
	DD	FLAT:?iwm_dropdone@ioWnd@@UAEXPAVioDragItem@@PAV1@_N@Z
	DD	FLAT:?IsEXType@ioWnd@@UBE_NXZ
	DD	FLAT:?GetWndType@ioWnd@@UBEKXZ
	DD	FLAT:?RenderWnd@ioWnd@@UAEXXZ
	DD	FLAT:?SetIDEX@ioWnd@@UAEXAAK_N@Z
	DD	FLAT:?ParseXML@ioWnd@@UAEXAAVioXMLElement@@@Z
	DD	FLAT:?GetHeaderFileName@ioWnd@@UAEPBDXZ
	DD	FLAT:?GetTemplateName@ioWnd@@UAEPBDXZ
	DD	FLAT:?GetDefClassName@ioWnd@@UBEPBDXZ
	DD	FLAT:?_Clone@ioWnd@@UAEPAV1@XZ
	DD	FLAT:?Copy@ioWnd@@UAEXPAV1@@Z
	DD	FLAT:?Save@ioWnd@@UAE_NAAVioXMLElement@@@Z
	DD	FLAT:?SetSaveData@ioWnd@@UAEXAAVioXMLElement@@@Z
	DD	FLAT:?SetPosX@ioWnd@@UAEXH@Z
	DD	FLAT:?SetPosY@ioWnd@@UAEXH@Z
	DD	FLAT:?SetWidth@ioWnd@@UAEXH@Z
	DD	FLAT:?SetHeight@ioWnd@@UAEXH@Z
	DD	FLAT:?GetNumFixedRenderFrame@ioWnd@@UBEHXZ
	DD	FLAT:?GetFixedRenderFrameType@ioWnd@@UAEPBDH@Z
	DD	FLAT:?GetRenderFrame@ioWnd@@UAEPAPAVioUIRenderElement@@PBD@Z
	DD	FLAT:?GetNumFixedRenderImage@ioWnd@@UBEHXZ
	DD	FLAT:?GetFixedRenderImageType@ioWnd@@UAEPBDH@Z
	DD	FLAT:?GetRenderImage@ioWnd@@UAEPAPAVioUIRenderElement@@PBD@Z
	DD	FLAT:?AddEffect@ioWnd@@UAEXABVioHashString@@PAVioUI3DEffectRender@@@Z
	DD	FLAT:?GetEffect@ioWnd@@UAEPAVioUI3DEffectRender@@VioHashString@@@Z
	DD	FLAT:??_ETowerDefWnd@@UAEPAXI@Z
CONST	ENDS
;	COMDAT xdata$x
xdata$x	SEGMENT
__unwindtable$??1TowerDefWnd@@UAE@XZ DD 0ffffffffH
	DD	FLAT:__unwindfunclet$??1TowerDefWnd@@UAE@XZ$0
	DD	00H
	DD	FLAT:__unwindfunclet$??1TowerDefWnd@@UAE@XZ$1
	DD	01H
	DD	FLAT:__unwindfunclet$??1TowerDefWnd@@UAE@XZ$2
__ehfuncinfo$??1TowerDefWnd@@UAE@XZ DD 019930522H
	DD	03H
	DD	FLAT:__unwindtable$??1TowerDefWnd@@UAE@XZ
	DD	2 DUP(00H)
	DD	2 DUP(00H)
	DD	00H
	DD	01H
; Function compile flags: /Ogsp
xdata$x	ENDS
;	COMDAT ??1TowerDefWnd@@UAE@XZ
_TEXT	SEGMENT
_this$ = -16						; size = 4
__$EHRec$ = -12						; size = 12
??1TowerDefWnd@@UAE@XZ PROC				; TowerDefWnd::~TowerDefWnd, COMDAT
; _this$ = ecx

; 148  : {

  00000	6a 04		 push	 4
  00002	b8 00 00 00 00	 mov	 eax, __ehhandler$??1TowerDefWnd@@UAE@XZ
  00007	e8 00 00 00 00	 call	 __EH_prolog3
  0000c	8b f1		 mov	 esi, ecx
  0000e	89 75 f0	 mov	 DWORD PTR _this$[ebp], esi
  00011	c7 06 00 00 00
	00		 mov	 DWORD PTR [esi], OFFSET ??_7TowerDefWnd@@6B@

; 149  : 
; 150  : }

  00017	8d 8e 20 02 00
	00		 lea	 ecx, DWORD PTR [esi+544]
  0001d	c7 45 fc 02 00
	00 00		 mov	 DWORD PTR __$EHRec$[ebp+8], 2
  00024	ff 15 00 00 00
	00		 call	 DWORD PTR __imp_??1ioHashString@@QAE@XZ
  0002a	68 00 00 00 00	 push	 OFFSET ??1stUserGauge@TowerDefWnd@@QAE@XZ
  0002f	6a 04		 push	 4
  00031	6a 18		 push	 24			; 00000018H
  00033	8d 86 c0 01 00
	00		 lea	 eax, DWORD PTR [esi+448]
  00039	50		 push	 eax
  0003a	c6 45 fc 01	 mov	 BYTE PTR __$EHRec$[ebp+8], 1
  0003e	e8 00 00 00 00	 call	 ??_M@YGXPAXIHP6EX0@Z@Z
  00043	8d 8e 90 01 00
	00		 lea	 ecx, DWORD PTR [esi+400]
  00049	c6 45 fc 00	 mov	 BYTE PTR __$EHRec$[ebp+8], 0
  0004d	e8 00 00 00 00	 call	 ??1FSMStateMgr@@UAE@XZ	; FSMStateMgr::~FSMStateMgr
  00052	83 4d fc ff	 or	 DWORD PTR __$EHRec$[ebp+8], -1
  00056	8b ce		 mov	 ecx, esi
  00058	ff 15 00 00 00
	00		 call	 DWORD PTR __imp_??1ioMovingWnd@@UAE@XZ
  0005e	e8 00 00 00 00	 call	 __EH_epilog3
  00063	c3		 ret	 0
_TEXT	ENDS
;	COMDAT text$x
text$x	SEGMENT
__unwindfunclet$??1TowerDefWnd@@UAE@XZ$0:
  00000	8b 4d f0	 mov	 ecx, DWORD PTR _this$[ebp]
  00003	ff 25 00 00 00
	00		 jmp	 DWORD PTR __imp_??1ioMovingWnd@@UAE@XZ
__unwindfunclet$??1TowerDefWnd@@UAE@XZ$1:
  00009	8b 4d f0	 mov	 ecx, DWORD PTR _this$[ebp]
  0000c	81 c1 90 01 00
	00		 add	 ecx, 400		; 00000190H
  00012	e9 00 00 00 00	 jmp	 ??1FSMStateMgr@@UAE@XZ	; FSMStateMgr::~FSMStateMgr
__unwindfunclet$??1TowerDefWnd@@UAE@XZ$2:
  00017	68 00 00 00 00	 push	 OFFSET ??1stUserGauge@TowerDefWnd@@QAE@XZ
  0001c	6a 04		 push	 4
  0001e	6a 18		 push	 24			; 00000018H
  00020	8b 45 f0	 mov	 eax, DWORD PTR _this$[ebp]
  00023	05 c0 01 00 00	 add	 eax, 448		; 000001c0H
  00028	50		 push	 eax
  00029	e8 00 00 00 00	 call	 ??_M@YGXPAXIHP6EX0@Z@Z
  0002e	c3		 ret	 0
__ehhandler$??1TowerDefWnd@@UAE@XZ:
  0002f	8b 54 24 08	 mov	 edx, DWORD PTR [esp+8]
  00033	8d 42 0c	 lea	 eax, DWORD PTR [edx+12]
  00036	8b 4a ec	 mov	 ecx, DWORD PTR [edx-20]
  00039	33 c8		 xor	 ecx, eax
  0003b	e8 00 00 00 00	 call	 @__security_check_cookie@4
  00040	b8 00 00 00 00	 mov	 eax, OFFSET __ehfuncinfo$??1TowerDefWnd@@UAE@XZ
  00045	e9 00 00 00 00	 jmp	 ___CxxFrameHandler3
text$x	ENDS
??1TowerDefWnd@@UAE@XZ ENDP				; TowerDefWnd::~TowerDefWnd
PUBLIC	?SetSurrender@TowerDefWnd@@QAEXABVioHashString@@_N@Z ; TowerDefWnd::SetSurrender
EXTRN	__imp_??8ioHashString@@QBE_NABV0@@Z:PROC
; Function compile flags: /Ogsp
;	COMDAT ?SetSurrender@TowerDefWnd@@QAEXABVioHashString@@_N@Z
_TEXT	SEGMENT
_szName$ = 8						; size = 4
_bSurrender$ = 12					; size = 1
?SetSurrender@TowerDefWnd@@QAEXABVioHashString@@_N@Z PROC ; TowerDefWnd::SetSurrender, COMDAT
; _this$ = ecx

; 218  : {

  00000	55		 push	 ebp
  00001	8b ec		 mov	 ebp, esp
  00003	53		 push	 ebx
  00004	56		 push	 esi
  00005	57		 push	 edi
  00006	8b f9		 mov	 edi, ecx

; 219  : 	for(int i = 0; i < MAX_USER; i++)

  00008	33 f6		 xor	 esi, esi
  0000a	8d 9f c4 01 00
	00		 lea	 ebx, DWORD PTR [edi+452]
$LL5@SetSurrend@2:

; 220  : 	{
; 221  : 		if(m_stUserGauge[i].szUserName == szName)

  00010	ff 75 08	 push	 DWORD PTR _szName$[ebp]
  00013	8b cb		 mov	 ecx, ebx
  00015	ff 15 00 00 00
	00		 call	 DWORD PTR __imp_??8ioHashString@@QBE_NABV0@@Z
  0001b	84 c0		 test	 al, al
  0001d	75 0b		 jne	 SHORT $LN9@SetSurrend@2

; 219  : 	for(int i = 0; i < MAX_USER; i++)

  0001f	46		 inc	 esi
  00020	83 c3 18	 add	 ebx, 24			; 00000018H
  00023	83 fe 04	 cmp	 esi, 4
  00026	7c e8		 jl	 SHORT $LL5@SetSurrend@2

; 220  : 	{
; 221  : 		if(m_stUserGauge[i].szUserName == szName)

  00028	eb 16		 jmp	 SHORT $LN1@SetSurrend@2
$LN9@SetSurrend@2:

; 222  : 		{
; 223  : 			if(m_stUserGauge[i].pGaugeWnd)

  0002a	6b f6 18	 imul	 esi, 24			; 00000018H
  0002d	8b 8c 3e d4 01
	00 00		 mov	 ecx, DWORD PTR [esi+edi+468]
  00034	85 c9		 test	 ecx, ecx
  00036	74 08		 je	 SHORT $LN1@SetSurrend@2

; 224  : 				m_stUserGauge[i].pGaugeWnd->SetSurrender(bSurrender);

  00038	ff 75 0c	 push	 DWORD PTR _bSurrender$[ebp]
  0003b	e8 00 00 00 00	 call	 ?SetSurrender@TowerDefUserGaugeWnd@@QAEX_N@Z ; TowerDefUserGaugeWnd::SetSurrender
$LN1@SetSurrend@2:
  00040	5f		 pop	 edi
  00041	5e		 pop	 esi
  00042	5b		 pop	 ebx

; 225  : 
; 226  : 			break;
; 227  : 		}
; 228  : 	}
; 229  : }

  00043	5d		 pop	 ebp
  00044	c2 08 00	 ret	 8
?SetSurrender@TowerDefWnd@@QAEXABVioHashString@@_N@Z ENDP ; TowerDefWnd::SetSurrender
_TEXT	ENDS
PUBLIC	??_R0?AVTowerDefUserGaugeWnd@@@8		; TowerDefUserGaugeWnd `RTTI Type Descriptor'
PUBLIC	?GetNpcName@TowerDefWnd@@QAEABVioHashString@@XZ	; TowerDefWnd::GetNpcName
EXTRN	__imp_?IsShow@ioWnd@@QBE_NXZ:PROC
EXTRN	__imp_?FindChildWnd@ioWnd@@QAEPAV1@K@Z:PROC
EXTRN	___RTDynamicCast:PROC
;	COMDAT ??_R0?AVTowerDefUserGaugeWnd@@@8
; File d:\lost saga for developer\youtube\tutorial\source\src\lsclient\gui\towerdefwnd.h
_DATA	SEGMENT
??_R0?AVTowerDefUserGaugeWnd@@@8 DD FLAT:??_7type_info@@6B@ ; TowerDefUserGaugeWnd `RTTI Type Descriptor'
	DD	00H
	DB	'.?AVTowerDefUserGaugeWnd@@', 00H
; Function compile flags: /Ogsp
; File d:\lost saga for developer\youtube\tutorial\source\src\lsclient\gui\towerdefwnd.cpp
_DATA	ENDS
;	COMDAT ?GetNpcName@TowerDefWnd@@QAEABVioHashString@@XZ
_TEXT	SEGMENT
_this$ = -8						; size = 4
_pWnd$ = -4						; size = 4
?GetNpcName@TowerDefWnd@@QAEABVioHashString@@XZ PROC	; TowerDefWnd::GetNpcName, COMDAT
; _this$ = ecx

; 311  : {

  00000	55		 push	 ebp
  00001	8b ec		 mov	 ebp, esp
  00003	51		 push	 ecx
  00004	51		 push	 ecx
  00005	53		 push	 ebx
  00006	56		 push	 esi

; 312  : 	TowerDefUserGaugeWnd* pWnd = dynamic_cast<TowerDefUserGaugeWnd*>( FindChildWnd(NPC_GAUGE_WND) );

  00007	8b 35 00 00 00
	00		 mov	 esi, DWORD PTR __imp_?FindChildWnd@ioWnd@@QAEPAV1@K@Z
  0000d	57		 push	 edi
  0000e	6a 00		 push	 0
  00010	bb 00 00 00 00	 mov	 ebx, OFFSET ??_R0?AVTowerDefUserGaugeWnd@@@8
  00015	53		 push	 ebx
  00016	bf 00 00 00 00	 mov	 edi, OFFSET ??_R0?AVioWnd@@@8
  0001b	57		 push	 edi
  0001c	6a 00		 push	 0
  0001e	6a 68		 push	 104			; 00000068H
  00020	89 4d f8	 mov	 DWORD PTR _this$[ebp], ecx
  00023	ff d6		 call	 esi
  00025	50		 push	 eax
  00026	e8 00 00 00 00	 call	 ___RTDynamicCast
  0002b	8b c8		 mov	 ecx, eax
  0002d	83 c4 14	 add	 esp, 20			; 00000014H
  00030	89 4d fc	 mov	 DWORD PTR _pWnd$[ebp], ecx

; 313  : 
; 314  : 	if( pWnd && pWnd->IsShow())

  00033	85 c9		 test	 ecx, ecx
  00035	74 14		 je	 SHORT $LN9@GetNpcName
  00037	ff 15 00 00 00
	00		 call	 DWORD PTR __imp_?IsShow@ioWnd@@QBE_NXZ
  0003d	84 c0		 test	 al, al
  0003f	74 0a		 je	 SHORT $LN9@GetNpcName

; 315  : 		return pWnd->GetName();

  00041	8b 45 fc	 mov	 eax, DWORD PTR _pWnd$[ebp]
  00044	05 18 02 00 00	 add	 eax, 536		; 00000218H
  00049	eb 36		 jmp	 SHORT $LN3@GetNpcName
$LN9@GetNpcName:

; 316  : 
; 317  : 	pWnd = dynamic_cast<TowerDefUserGaugeWnd*>( FindChildWnd(NPC_BOSS_WND) );

  0004b	6a 00		 push	 0
  0004d	53		 push	 ebx
  0004e	57		 push	 edi
  0004f	8b 7d f8	 mov	 edi, DWORD PTR _this$[ebp]
  00052	6a 00		 push	 0
  00054	6a 69		 push	 105			; 00000069H
  00056	8b cf		 mov	 ecx, edi
  00058	ff d6		 call	 esi
  0005a	50		 push	 eax
  0005b	e8 00 00 00 00	 call	 ___RTDynamicCast
  00060	8b f0		 mov	 esi, eax
  00062	83 c4 14	 add	 esp, 20			; 00000014H

; 318  : 
; 319  : 	if( pWnd && pWnd->IsShow())

  00065	85 f6		 test	 esi, esi
  00067	74 12		 je	 SHORT $LN1@GetNpcName
  00069	8b ce		 mov	 ecx, esi
  0006b	ff 15 00 00 00
	00		 call	 DWORD PTR __imp_?IsShow@ioWnd@@QBE_NXZ
  00071	84 c0		 test	 al, al

; 320  : 		return pWnd->GetName();

  00073	8d 86 18 02 00
	00		 lea	 eax, DWORD PTR [esi+536]
  00079	75 06		 jne	 SHORT $LN3@GetNpcName
$LN1@GetNpcName:

; 321  : 
; 322  : 	return m_szNpcName;

  0007b	8d 87 20 02 00
	00		 lea	 eax, DWORD PTR [edi+544]
$LN3@GetNpcName:
  00081	5f		 pop	 edi
  00082	5e		 pop	 esi
  00083	5b		 pop	 ebx

; 323  : }

  00084	c9		 leave
  00085	c3		 ret	 0
?GetNpcName@TowerDefWnd@@QAEABVioHashString@@XZ ENDP	; TowerDefWnd::GetNpcName
_TEXT	ENDS
PUBLIC	??_GTowerDef3DChar@@QAEPAXI@Z			; TowerDef3DChar::`scalar deleting destructor'
; Function compile flags: /Ogsp
;	COMDAT ??_GTowerDef3DChar@@QAEPAXI@Z
_TEXT	SEGMENT
___flags$ = 8						; size = 4
??_GTowerDef3DChar@@QAEPAXI@Z PROC			; TowerDef3DChar::`scalar deleting destructor', COMDAT
; _this$ = ecx
  00000	55		 push	 ebp
  00001	8b ec		 mov	 ebp, esp
  00003	56		 push	 esi
  00004	8b f1		 mov	 esi, ecx
  00006	e8 00 00 00 00	 call	 ??1TowerDef3DChar@@QAE@XZ ; TowerDef3DChar::~TowerDef3DChar
  0000b	f6 45 08 01	 test	 BYTE PTR ___flags$[ebp], 1
  0000f	74 07		 je	 SHORT $LN1@scalar@2
  00011	56		 push	 esi
  00012	e8 00 00 00 00	 call	 ??3@YAXPAX@Z		; operator delete
  00017	59		 pop	 ecx
$LN1@scalar@2:
  00018	8b c6		 mov	 eax, esi
  0001a	5e		 pop	 esi
  0001b	5d		 pop	 ebp
  0001c	c2 04 00	 ret	 4
??_GTowerDef3DChar@@QAEPAXI@Z ENDP			; TowerDef3DChar::`scalar deleting destructor'
_TEXT	ENDS
PUBLIC	?SetFaceChange@TowerDefUserGaugeWnd@@QAEXABVioHashString@@PBDH@Z ; TowerDefUserGaugeWnd::SetFaceChange
; Function compile flags: /Ogsp
;	COMDAT ?SetFaceChange@TowerDefUserGaugeWnd@@QAEXABVioHashString@@PBDH@Z
_TEXT	SEGMENT
_rkName$ = 8						; size = 4
_szTexPostfix$ = 12					; size = 4
_iDuration$ = 16					; size = 4
?SetFaceChange@TowerDefUserGaugeWnd@@QAEXABVioHashString@@PBDH@Z PROC ; TowerDefUserGaugeWnd::SetFaceChange, COMDAT
; _this$ = ecx

; 578  : {

  00000	55		 push	 ebp
  00001	8b ec		 mov	 ebp, esp
  00003	56		 push	 esi

; 579  : 	if( m_szUserName == rkName)

  00004	ff 75 08	 push	 DWORD PTR _rkName$[ebp]
  00007	8b f1		 mov	 esi, ecx
  00009	8d 8e 18 02 00
	00		 lea	 ecx, DWORD PTR [esi+536]
  0000f	ff 15 00 00 00
	00		 call	 DWORD PTR __imp_??8ioHashString@@QBE_NABV0@@Z
  00015	84 c0		 test	 al, al
  00017	74 1e		 je	 SHORT $LN5@SetFaceCha

; 580  : 	{
; 581  : 		if( m_pCharPotrait )

  00019	8b 86 a4 01 00
	00		 mov	 eax, DWORD PTR [esi+420]
  0001f	85 c0		 test	 eax, eax
  00021	74 14		 je	 SHORT $LN5@SetFaceCha

; 582  : 			m_pCharPotrait->FaceChange( szTexPostfix, iDuration );

  00023	8b 40 04	 mov	 eax, DWORD PTR [eax+4]
  00026	85 c0		 test	 eax, eax
  00028	74 0d		 je	 SHORT $LN5@SetFaceCha
  0002a	ff 75 10	 push	 DWORD PTR _iDuration$[ebp]
  0002d	8b c8		 mov	 ecx, eax
  0002f	ff 75 0c	 push	 DWORD PTR _szTexPostfix$[ebp]
  00032	e8 00 00 00 00	 call	 ?DirectFaceChange@ioCreateChar@@QAEXPBDH@Z ; ioCreateChar::DirectFaceChange
$LN5@SetFaceCha:
  00037	5e		 pop	 esi

; 583  : 	}
; 584  : }

  00038	5d		 pop	 ebp
  00039	c2 0c 00	 ret	 12			; 0000000cH
?SetFaceChange@TowerDefUserGaugeWnd@@QAEXABVioHashString@@PBDH@Z ENDP ; TowerDefUserGaugeWnd::SetFaceChange
_TEXT	ENDS
PUBLIC	__real@408f400000000000
PUBLIC	__real@406fe00000000000
PUBLIC	__real@407f400000000000
PUBLIC	?UpdateGaugeAni@TowerDefUserGaugeWnd@@IAEXXZ	; TowerDefUserGaugeWnd::UpdateGaugeAni
EXTRN	__ftol2:PROC
;	COMDAT __real@408f400000000000
; File d:\lost saga for developer\youtube\tutorial\source\src\lsclient\stdafx.h
CONST	SEGMENT
__real@408f400000000000 DQ 0408f400000000000r	; 1000
CONST	ENDS
;	COMDAT __real@406fe00000000000
CONST	SEGMENT
__real@406fe00000000000 DQ 0406fe00000000000r	; 255
CONST	ENDS
;	COMDAT __real@407f400000000000
CONST	SEGMENT
__real@407f400000000000 DQ 0407f400000000000r	; 500
; Function compile flags: /Ogsp
; File d:\lost saga for developer\youtube\tutorial\source\src\lsclient\gui\towerdefwnd.cpp
CONST	ENDS
;	COMDAT ?UpdateGaugeAni@TowerDefUserGaugeWnd@@IAEXXZ
_TEXT	SEGMENT
tv349 = -8						; size = 4
tv346 = -8						; size = 4
tv331 = -8						; size = 4
tv304 = -8						; size = 4
tv297 = -8						; size = 4
_fTick$526107 = -8					; size = 4
_fGetTime$ = -4						; size = 4
?UpdateGaugeAni@TowerDefUserGaugeWnd@@IAEXXZ PROC	; TowerDefUserGaugeWnd::UpdateGaugeAni, COMDAT
; _this$ = ecx

; 606  : {	

  00000	55		 push	 ebp
  00001	8b ec		 mov	 ebp, esp
  00003	51		 push	 ecx
  00004	51		 push	 ecx
  00005	56		 push	 esi
  00006	8b f1		 mov	 esi, ecx

; 607  : 	float fGetTime = (float)FRAMEGETTIME();

  00008	ff 15 00 00 00
	00		 call	 DWORD PTR __imp_?GetSingleton@ioFrameTimer@@SAAAV1@XZ
  0000e	8b c8		 mov	 ecx, eax
  00010	ff 15 00 00 00
	00		 call	 DWORD PTR __imp_?GetLoopSec@ioFrameTimer@@QBEKXZ
  00016	89 45 f8	 mov	 DWORD PTR tv349[ebp], eax
  00019	db 45 f8	 fild	 DWORD PTR tv349[ebp]
  0001c	85 c0		 test	 eax, eax
  0001e	79 06		 jns	 SHORT $LN19@UpdateGaug
  00020	d8 05 00 00 00
	00		 fadd	 DWORD PTR __real@4f800000
$LN19@UpdateGaug:
  00026	d9 5d fc	 fstp	 DWORD PTR _fGetTime$[ebp]

; 608  : 	if( fGetTime - m_fScreenTime > FLOAT100 )

  00029	b8 64 00 00 00	 mov	 eax, 100		; 00000064H
  0002e	d9 45 fc	 fld	 DWORD PTR _fGetTime$[ebp]
  00031	89 45 f8	 mov	 DWORD PTR tv346[ebp], eax
  00034	d8 a6 08 02 00
	00		 fsub	 DWORD PTR [esi+520]
  0003a	db 45 f8	 fild	 DWORD PTR tv346[ebp]
  0003d	85 c0		 test	 eax, eax
  0003f	79 06		 jns	 SHORT $LN20@UpdateGaug
  00041	d8 05 00 00 00
	00		 fadd	 DWORD PTR __real@4f800000
$LN20@UpdateGaug:
  00047	f3 0f 10 5d fc	 movss	 xmm3, DWORD PTR _fGetTime$[ebp]
  0004c	d9 c9		 fxch	 ST(1)
  0004e	df f1		 fcomip	 ST(1)
  00050	dd d8		 fstp	 ST(0)
  00052	76 18		 jbe	 SHORT $LN8@UpdateGaug

; 609  : 	{
; 610  : 		m_fScreenTime = fGetTime;
; 611  : 		m_bScreen = !m_bScreen;

  00054	80 be 14 02 00
	00 00		 cmp	 BYTE PTR [esi+532], 0
  0005b	f3 0f 11 9e 08
	02 00 00	 movss	 DWORD PTR [esi+520], xmm3
  00063	0f 94 c1	 sete	 cl
  00066	88 8e 14 02 00
	00		 mov	 BYTE PTR [esi+532], cl
$LN8@UpdateGaug:

; 612  : 	}
; 613  : 
; 614  : 	if( m_fAniHP > m_fCurHP )

  0006c	f3 0f 10 86 04
	02 00 00	 movss	 xmm0, DWORD PTR [esi+516]
  00074	f3 0f 10 8e 00
	02 00 00	 movss	 xmm1, DWORD PTR [esi+512]
  0007c	0f 5a c0	 cvtps2pd xmm0, xmm0
  0007f	0f 5a c9	 cvtps2pd xmm1, xmm1
  00082	66 0f 2f c1	 comisd	 xmm0, xmm1
  00086	0f 86 8e 00 00
	00		 jbe	 $LN6@UpdateGaug

; 615  : 	{
; 616  : 		float fTick = FLOAT1000;

  0008c	b8 e8 03 00 00	 mov	 eax, 1000		; 000003e8H
  00091	89 45 f8	 mov	 DWORD PTR tv331[ebp], eax
  00094	db 45 f8	 fild	 DWORD PTR tv331[ebp]
  00097	85 c0		 test	 eax, eax
  00099	79 06		 jns	 SHORT $LN21@UpdateGaug
  0009b	d8 05 00 00 00
	00		 fadd	 DWORD PTR __real@4f800000
$LN21@UpdateGaug:

; 617  : 		float fGapTime = fGetTime - m_fCurAniTime;

  000a1	f3 0f 10 8e 0c
	02 00 00	 movss	 xmm1, DWORD PTR [esi+524]
  000a9	d9 5d f8	 fstp	 DWORD PTR _fTick$526107[ebp]

; 618  : 		m_fAniHP = max( m_fCurHP, m_fAniHP - ( fGapTime / fTick ) );

  000ac	f3 0f 10 6d f8	 movss	 xmm5, DWORD PTR _fTick$526107[ebp]
  000b1	0f 5a c3	 cvtps2pd xmm0, xmm3
  000b4	0f 5a c9	 cvtps2pd xmm1, xmm1
  000b7	f2 0f 5c c1	 subsd	 xmm0, xmm1
  000bb	f3 0f 10 8e 00
	02 00 00	 movss	 xmm1, DWORD PTR [esi+512]
  000c3	0f 57 d2	 xorps	 xmm2, xmm2
  000c6	66 0f 5a d0	 cvtpd2ps xmm2, xmm0
  000ca	f3 0f 10 86 04
	02 00 00	 movss	 xmm0, DWORD PTR [esi+516]
  000d2	0f 5a e2	 cvtps2pd xmm4, xmm2
  000d5	0f 5a ed	 cvtps2pd xmm5, xmm5
  000d8	f2 0f 5e e5	 divsd	 xmm4, xmm5
  000dc	0f 5a c0	 cvtps2pd xmm0, xmm0
  000df	f2 0f 5c c4	 subsd	 xmm0, xmm4
  000e3	0f 5a e1	 cvtps2pd xmm4, xmm1
  000e6	66 0f 2f e0	 comisd	 xmm4, xmm0
  000ea	76 06		 jbe	 SHORT $LN11@UpdateGaug
  000ec	0f 57 c0	 xorps	 xmm0, xmm0
  000ef	0f 5a c1	 cvtps2pd xmm0, xmm1
$LN11@UpdateGaug:

; 619  : 		if( fGapTime >= fTick )

  000f2	f3 0f 10 4d f8	 movss	 xmm1, DWORD PTR _fTick$526107[ebp]
  000f7	66 0f 5a c0	 cvtpd2ps xmm0, xmm0
  000fb	f3 0f 11 86 04
	02 00 00	 movss	 DWORD PTR [esi+516], xmm0
  00103	0f 57 c0	 xorps	 xmm0, xmm0
  00106	0f 5a c2	 cvtps2pd xmm0, xmm2
  00109	0f 5a c9	 cvtps2pd xmm1, xmm1
  0010c	66 0f 2f c1	 comisd	 xmm0, xmm1
  00110	72 08		 jb	 SHORT $LN6@UpdateGaug

; 620  : 			m_fCurAniTime = fGetTime;

  00112	f3 0f 11 9e 0c
	02 00 00	 movss	 DWORD PTR [esi+524], xmm3
$LN6@UpdateGaug:

; 621  : 	}
; 622  : 
; 623  : 	if( m_bSurrender && m_pSurrender)

  0011a	80 be 15 02 00
	00 00		 cmp	 BYTE PTR [esi+533], 0
  00121	0f 84 cb 00 00
	00		 je	 $LN1@UpdateGaug
  00127	8b 8e a0 01 00
	00		 mov	 ecx, DWORD PTR [esi+416]
  0012d	85 c9		 test	 ecx, ecx
  0012f	0f 84 bd 00 00
	00		 je	 $LN1@UpdateGaug

; 624  : 	{
; 625  : 		if(fGetTime < (500.f + m_fSurrenderTime))

  00135	f3 0f 10 8e 10
	02 00 00	 movss	 xmm1, DWORD PTR [esi+528]
  0013d	f2 0f 10 05 00
	00 00 00	 movsd	 xmm0, QWORD PTR __real@407f400000000000
  00145	0f 5a e1	 cvtps2pd xmm4, xmm1
  00148	0f 5a d3	 cvtps2pd xmm2, xmm3
  0014b	f2 0f 58 e0	 addsd	 xmm4, xmm0
  0014f	66 0f 2f e2	 comisd	 xmm4, xmm2
  00153	76 4e		 jbe	 SHORT $LN4@UpdateGaug

; 626  : 		{
; 627  : 			float fSurrenderAlpha = FLOAT1 - ((fGetTime - m_fSurrenderTime)/500.f);

  00155	53		 push	 ebx
  00156	57		 push	 edi
  00157	b8 01 00 00 00	 mov	 eax, 1

; 628  : 			m_pSurrender->SetAlpha( (BYTE)(fSurrenderAlpha * 0xff) );

  0015c	8b be a0 01 00
	00		 mov	 edi, DWORD PTR [esi+416]
  00162	8b 1f		 mov	 ebx, DWORD PTR [edi]
  00164	89 45 f8	 mov	 DWORD PTR tv304[ebp], eax
  00167	db 45 f8	 fild	 DWORD PTR tv304[ebp]
  0016a	85 c0		 test	 eax, eax
  0016c	79 06		 jns	 SHORT $LN22@UpdateGaug
  0016e	d8 05 00 00 00
	00		 fadd	 DWORD PTR __real@4f800000
$LN22@UpdateGaug:
  00174	d9 45 fc	 fld	 DWORD PTR _fGetTime$[ebp]
  00177	d8 a6 10 02 00
	00		 fsub	 DWORD PTR [esi+528]
  0017d	dc 35 00 00 00
	00		 fdiv	 QWORD PTR __real@407f400000000000
  00183	de e9		 fsubp	 ST(1), ST(0)
  00185	d9 5d f8	 fstp	 DWORD PTR tv297[ebp]
  00188	d9 45 f8	 fld	 DWORD PTR tv297[ebp]
  0018b	dc 0d 00 00 00
	00		 fmul	 QWORD PTR __real@406fe00000000000
  00191	e8 00 00 00 00	 call	 __ftol2
  00196	0f b6 c0	 movzx	 eax, al
  00199	50		 push	 eax
  0019a	8b cf		 mov	 ecx, edi
  0019c	ff 53 30	 call	 DWORD PTR [ebx+48]
  0019f	5f		 pop	 edi
  001a0	5b		 pop	 ebx
  001a1	eb 4f		 jmp	 SHORT $LN1@UpdateGaug
$LN4@UpdateGaug:

; 629  : 		}
; 630  : 		else if(fGetTime < (1000.f + m_fSurrenderTime))

  001a3	0f 5a e1	 cvtps2pd xmm4, xmm1
  001a6	f2 0f 58 25 00
	00 00 00	 addsd	 xmm4, QWORD PTR __real@408f400000000000
  001ae	0f 5a d3	 cvtps2pd xmm2, xmm3
  001b1	66 0f 2f e2	 comisd	 xmm4, xmm2
  001b5	76 33		 jbe	 SHORT $LN2@UpdateGaug

; 631  : 		{
; 632  : 			float fSurrenderAlpha = ( fGetTime - m_fSurrenderTime - 500.f)/500.f;
; 633  : 			m_pSurrender->SetAlpha( (BYTE)(fSurrenderAlpha * 0xff) );

  001b7	8b 01		 mov	 eax, DWORD PTR [ecx]
  001b9	0f 5a d3	 cvtps2pd xmm2, xmm3
  001bc	0f 5a c9	 cvtps2pd xmm1, xmm1
  001bf	f2 0f 5c d1	 subsd	 xmm2, xmm1
  001c3	f2 0f 5c d0	 subsd	 xmm2, xmm0
  001c7	f2 0f 5e d0	 divsd	 xmm2, xmm0
  001cb	0f 57 c0	 xorps	 xmm0, xmm0
  001ce	66 0f 5a c2	 cvtpd2ps xmm0, xmm2
  001d2	0f 5a c0	 cvtps2pd xmm0, xmm0
  001d5	f2 0f 59 05 00
	00 00 00	 mulsd	 xmm0, QWORD PTR __real@406fe00000000000
  001dd	f2 0f 2c d0	 cvttsd2si edx, xmm0
  001e1	0f b6 d2	 movzx	 edx, dl
  001e4	52		 push	 edx
  001e5	ff 50 30	 call	 DWORD PTR [eax+48]

; 634  : 		}
; 635  : 		else

  001e8	eb 08		 jmp	 SHORT $LN1@UpdateGaug
$LN2@UpdateGaug:

; 636  : 		{
; 637  : 			m_fSurrenderTime = fGetTime;

  001ea	f3 0f 11 9e 10
	02 00 00	 movss	 DWORD PTR [esi+528], xmm3
$LN1@UpdateGaug:
  001f2	5e		 pop	 esi

; 638  : 		}
; 639  : 	}
; 640  : }

  001f3	c9		 leave
  001f4	c3		 ret	 0
?UpdateGaugeAni@TowerDefUserGaugeWnd@@IAEXXZ ENDP	; TowerDefUserGaugeWnd::UpdateGaugeAni
_TEXT	ENDS
PUBLIC	__real@3e99999a
PUBLIC	__real@3f19999a
PUBLIC	__real@43480000
PUBLIC	??_C@_0CD@JNBDECMN@TowerDefUserGaugeWnd?3?3OnRenderUs@ ; `string'
PUBLIC	??_C@_00CNPNBAHC@?$AA@				; `string'
PUBLIC	?OnRenderUser@TowerDefUserGaugeWnd@@IAEXHH@Z	; TowerDefUserGaugeWnd::OnRenderUser
EXTRN	__imp_?PrintTextAlpha@ioFontManager@@QAEXMMMEPBDH@Z:PROC
EXTRN	__imp_?RenderWidthCut@ioUIRenderImage@@QAEXMMHHW4UIRenderType@@W4TextureFilterOption@@0@Z:PROC
EXTRN	__imp_?GetWidth@ioUIRenderElement@@QBEHXZ:PROC
EXTRN	__imp_?PrintTextWidthCut@ioFontManager@@QAEXMMMMPBD0@Z:PROC
EXTRN	__imp_?GetString@ioStringManager@@QAEPADPBD0HW4FileNamePrefix@1@@Z:PROC
EXTRN	__imp_?GetSingleton@ioStringManager@@SAAAV1@XZ:PROC
EXTRN	__imp_?c_str@ioHashString@@QBEPBDXZ:PROC
EXTRN	__imp_?SetBkColor@ioFontManager@@QAEXHHH@Z:PROC
EXTRN	__imp_?SetTextColor@ioFontManager@@QAEXHHH@Z:PROC
EXTRN	__imp_?SetTextStyle@ioFontManager@@QAEXW4TextStyle@@@Z:PROC
EXTRN	__imp_?SetAlignType@ioFontManager@@QAEXW4TextAlignType@@@Z:PROC
EXTRN	__imp_?GetSingleton@ioFontManager@@SAAAV1@XZ:PROC
;	COMDAT __real@3e99999a
CONST	SEGMENT
__real@3e99999a DD 03e99999ar			; 0.3
CONST	ENDS
;	COMDAT __real@3f19999a
CONST	SEGMENT
__real@3f19999a DD 03f19999ar			; 0.6
CONST	ENDS
;	COMDAT __real@43480000
CONST	SEGMENT
__real@43480000 DD 043480000r			; 200
CONST	ENDS
;	COMDAT ??_C@_0CD@JNBDECMN@TowerDefUserGaugeWnd?3?3OnRenderUs@
CONST	SEGMENT
??_C@_0CD@JNBDECMN@TowerDefUserGaugeWnd?3?3OnRenderUs@ DB 'TowerDefUserGa'
	DB	'ugeWnd::OnRenderUser', 00H			; `string'
CONST	ENDS
;	COMDAT ??_C@_00CNPNBAHC@?$AA@
CONST	SEGMENT
??_C@_00CNPNBAHC@?$AA@ DB 00H				; `string'
; Function compile flags: /Ogsp
CONST	ENDS
;	COMDAT ?OnRenderUser@TowerDefUserGaugeWnd@@IAEXHH@Z
_TEXT	SEGMENT
tv550 = -20						; size = 4
tv518 = -20						; size = 4
_fAniHPRate$526137 = -20				; size = 4
tv553 = -16						; size = 4
_fWidth$526131 = -16					; size = 4
tv522 = -12						; size = 4
_fHPRate$ = -8						; size = 4
tv520 = -4						; size = 4
_iXPos$ = 8						; size = 4
_iYPos$ = 12						; size = 4
?OnRenderUser@TowerDefUserGaugeWnd@@IAEXHH@Z PROC	; TowerDefUserGaugeWnd::OnRenderUser, COMDAT
; _this$ = ecx

; 643  : {

  00000	55		 push	 ebp
  00001	8b ec		 mov	 ebp, esp
  00003	83 ec 14	 sub	 esp, 20			; 00000014H
  00006	53		 push	 ebx
  00007	56		 push	 esi
  00008	8b f1		 mov	 esi, ecx

; 644  : 	if( m_pGaugeFrame )

  0000a	33 db		 xor	 ebx, ebx
  0000c	39 9e a8 01 00
	00		 cmp	 DWORD PTR [esi+424], ebx
  00012	74 35		 je	 SHORT $LN10@OnRenderUs

; 645  : 		m_pGaugeFrame->Render( iXPos + 37, iYPos + 19 );

  00014	8b 8e a8 01 00
	00		 mov	 ecx, DWORD PTR [esi+424]
  0001a	8b 55 0c	 mov	 edx, DWORD PTR _iYPos$[ebp]
  0001d	8b 01		 mov	 eax, DWORD PTR [ecx]
  0001f	53		 push	 ebx
  00020	53		 push	 ebx
  00021	53		 push	 ebx
  00022	53		 push	 ebx
  00023	83 c2 13	 add	 edx, 19			; 00000013H
  00026	0f 57 c0	 xorps	 xmm0, xmm0
  00029	f3 0f 2a c2	 cvtsi2ss xmm0, edx
  0002d	8b 55 08	 mov	 edx, DWORD PTR _iXPos$[ebp]
  00030	51		 push	 ecx
  00031	51		 push	 ecx
  00032	f3 0f 11 44 24
	04		 movss	 DWORD PTR [esp+4], xmm0
  00038	83 c2 25	 add	 edx, 37			; 00000025H
  0003b	0f 57 c0	 xorps	 xmm0, xmm0
  0003e	f3 0f 2a c2	 cvtsi2ss xmm0, edx
  00042	f3 0f 11 04 24	 movss	 DWORD PTR [esp], xmm0
  00047	ff 10		 call	 DWORD PTR [eax]
$LN10@OnRenderUs:

; 646  : 
; 647  : 	float fNameWidth = 200.0f;
; 648  : 	g_FontMgr.SetAlignType( TAT_LEFT );

  00049	57		 push	 edi
  0004a	8b 3d 00 00 00
	00		 mov	 edi, DWORD PTR __imp_?GetSingleton@ioFontManager@@SAAAV1@XZ
  00050	53		 push	 ebx
  00051	ff d7		 call	 edi
  00053	8b c8		 mov	 ecx, eax
  00055	ff 15 00 00 00
	00		 call	 DWORD PTR __imp_?SetAlignType@ioFontManager@@QAEXW4TextAlignType@@@Z

; 649  : 	g_FontMgr.SetTextStyle( TS_OUTLINE_FULL_2X );

  0005b	6a 05		 push	 5
  0005d	ff d7		 call	 edi
  0005f	8b c8		 mov	 ecx, eax
  00061	ff 15 00 00 00
	00		 call	 DWORD PTR __imp_?SetTextStyle@ioFontManager@@QAEXW4TextStyle@@@Z

; 650  : 	g_FontMgr.SetTextColor( 255, 255, 255);

  00067	b8 ff 00 00 00	 mov	 eax, 255		; 000000ffH
  0006c	50		 push	 eax
  0006d	50		 push	 eax
  0006e	50		 push	 eax
  0006f	ff d7		 call	 edi
  00071	8b c8		 mov	 ecx, eax
  00073	ff 15 00 00 00
	00		 call	 DWORD PTR __imp_?SetTextColor@ioFontManager@@QAEXHHH@Z

; 651  : 	g_FontMgr.SetBkColor( 0, 0, 0 );

  00079	53		 push	 ebx
  0007a	53		 push	 ebx
  0007b	53		 push	 ebx
  0007c	ff d7		 call	 edi
  0007e	8b c8		 mov	 ecx, eax
  00080	ff 15 00 00 00
	00		 call	 DWORD PTR __imp_?SetBkColor@ioFontManager@@QAEXHHH@Z

; 652  : 	g_FontMgr.PrintTextWidthCut( iXPos + 40, iYPos + 3, FONT_SIZE_12, fNameWidth, STR(3), m_szShowName.c_str() );

  00086	8d 8e 28 02 00
	00		 lea	 ecx, DWORD PTR [esi+552]
  0008c	ff 15 00 00 00
	00		 call	 DWORD PTR __imp_?c_str@ioHashString@@QBEPBDXZ
  00092	50		 push	 eax
  00093	53		 push	 ebx
  00094	6a 03		 push	 3
  00096	68 00 00 00 00	 push	 OFFSET ??_C@_00CNPNBAHC@?$AA@
  0009b	68 00 00 00 00	 push	 OFFSET ??_C@_0CD@JNBDECMN@TowerDefUserGaugeWnd?3?3OnRenderUs@
  000a0	ff 15 00 00 00
	00		 call	 DWORD PTR __imp_?GetSingleton@ioStringManager@@SAAAV1@XZ
  000a6	8b c8		 mov	 ecx, eax
  000a8	ff 15 00 00 00
	00		 call	 DWORD PTR __imp_?GetString@ioStringManager@@QAEPADPBD0HW4FileNamePrefix@1@@Z
  000ae	f3 0f 10 05 00
	00 00 00	 movss	 xmm0, DWORD PTR __real@43480000
  000b6	50		 push	 eax
  000b7	8b 45 0c	 mov	 eax, DWORD PTR _iYPos$[ebp]
  000ba	83 ec 10	 sub	 esp, 16			; 00000010H
  000bd	f3 0f 11 44 24
	0c		 movss	 DWORD PTR [esp+12], xmm0
  000c3	f3 0f 10 05 00
	00 00 00	 movss	 xmm0, DWORD PTR __real@3f19999a
  000cb	f3 0f 11 44 24
	08		 movss	 DWORD PTR [esp+8], xmm0
  000d1	83 c0 03	 add	 eax, 3
  000d4	0f 57 c0	 xorps	 xmm0, xmm0
  000d7	f3 0f 2a c0	 cvtsi2ss xmm0, eax
  000db	8b 45 08	 mov	 eax, DWORD PTR _iXPos$[ebp]
  000de	f3 0f 11 44 24
	04		 movss	 DWORD PTR [esp+4], xmm0
  000e4	83 c0 28	 add	 eax, 40			; 00000028H
  000e7	0f 57 c0	 xorps	 xmm0, xmm0
  000ea	f3 0f 2a c0	 cvtsi2ss xmm0, eax
  000ee	f3 0f 11 04 24	 movss	 DWORD PTR [esp], xmm0
  000f3	ff d7		 call	 edi
  000f5	8b c8		 mov	 ecx, eax
  000f7	ff 15 00 00 00
	00		 call	 DWORD PTR __imp_?PrintTextWidthCut@ioFontManager@@QAEXMMMMPBD0@Z

; 653  : 
; 654  : 	float fHPRate = m_fCurHP / m_fMaxHP;

  000fd	f3 0f 10 86 00
	02 00 00	 movss	 xmm0, DWORD PTR [esi+512]
  00105	f3 0f 10 8e fc
	01 00 00	 movss	 xmm1, DWORD PTR [esi+508]

; 655  : 
; 656  : 	if( m_pGauge )

  0010d	8b 8e 98 01 00
	00		 mov	 ecx, DWORD PTR [esi+408]
  00113	0f 5a c0	 cvtps2pd xmm0, xmm0
  00116	0f 5a c9	 cvtps2pd xmm1, xmm1
  00119	f2 0f 5e c1	 divsd	 xmm0, xmm1
  0011d	66 0f 5a c0	 cvtpd2ps xmm0, xmm0
  00121	f3 0f 11 45 f8	 movss	 DWORD PTR _fHPRate$[ebp], xmm0
  00126	3b cb		 cmp	 ecx, ebx
  00128	0f 84 e0 01 00
	00		 je	 $LN6@OnRenderUs

; 657  : 	{
; 658  : 		float fWidth = m_pGauge->GetWidth() * fHPRate;

  0012e	ff 15 00 00 00
	00		 call	 DWORD PTR __imp_?GetWidth@ioUIRenderElement@@QBEHXZ
  00134	f3 0f 10 4d f8	 movss	 xmm1, DWORD PTR _fHPRate$[ebp]

; 659  : 		m_pGauge->RenderWidthCut( iXPos + 39, iYPos + 21, 0, static_cast<int>(fWidth) );

  00139	8b 4d 0c	 mov	 ecx, DWORD PTR _iYPos$[ebp]
  0013c	0f 57 c0	 xorps	 xmm0, xmm0
  0013f	f3 0f 2a c0	 cvtsi2ss xmm0, eax
  00143	53		 push	 ebx
  00144	0f 5a c0	 cvtps2pd xmm0, xmm0
  00147	0f 5a c9	 cvtps2pd xmm1, xmm1
  0014a	f2 0f 59 c1	 mulsd	 xmm0, xmm1
  0014e	53		 push	 ebx
  0014f	66 0f 5a c0	 cvtpd2ps xmm0, xmm0
  00153	f3 0f 2c c0	 cvttss2si eax, xmm0
  00157	83 c1 15	 add	 ecx, 21			; 00000015H
  0015a	53		 push	 ebx
  0015b	f3 0f 11 45 f0	 movss	 DWORD PTR _fWidth$526131[ebp], xmm0
  00160	0f 57 c0	 xorps	 xmm0, xmm0
  00163	f3 0f 2a c1	 cvtsi2ss xmm0, ecx
  00167	8b 4d 08	 mov	 ecx, DWORD PTR _iXPos$[ebp]
  0016a	50		 push	 eax
  0016b	83 c1 27	 add	 ecx, 39			; 00000027H
  0016e	53		 push	 ebx
  0016f	51		 push	 ecx
  00170	51		 push	 ecx
  00171	0f 57 c9	 xorps	 xmm1, xmm1
  00174	f3 0f 2a c9	 cvtsi2ss xmm1, ecx
  00178	8b 8e 98 01 00
	00		 mov	 ecx, DWORD PTR [esi+408]
  0017e	f3 0f 11 44 24
	04		 movss	 DWORD PTR [esp+4], xmm0
  00184	89 45 ec	 mov	 DWORD PTR tv518[ebp], eax
  00187	f3 0f 11 45 fc	 movss	 DWORD PTR tv520[ebp], xmm0
  0018c	f3 0f 11 4d f4	 movss	 DWORD PTR tv522[ebp], xmm1
  00191	f3 0f 11 0c 24	 movss	 DWORD PTR [esp], xmm1
  00196	ff 15 00 00 00
	00		 call	 DWORD PTR __imp_?RenderWidthCut@ioUIRenderImage@@QAEXMMHHW4UIRenderType@@W4TextureFilterOption@@0@Z

; 660  : 		if( fHPRate <= 0.30f && m_bScreen )

  0019c	f3 0f 10 05 00
	00 00 00	 movss	 xmm0, DWORD PTR __real@3e99999a
  001a4	0f 2f 45 f8	 comiss	 xmm0, DWORD PTR _fHPRate$[ebp]
  001a8	72 7d		 jb	 SHORT $LN7@OnRenderUs
  001aa	38 9e 14 02 00
	00		 cmp	 BYTE PTR [esi+532], bl
  001b0	74 75		 je	 SHORT $LN7@OnRenderUs

; 661  : 		{
; 662  : 			// Screen x 1
; 663  : 			m_pGauge->RenderWidthCut( iXPos + 39, iYPos + 21, 0, static_cast<int>(fWidth), UI_RENDER_SCREEN );

  001b2	f3 0f 10 45 fc	 movss	 xmm0, DWORD PTR tv520[ebp]
  001b7	53		 push	 ebx
  001b8	53		 push	 ebx
  001b9	6a 01		 push	 1
  001bb	ff 75 ec	 push	 DWORD PTR tv518[ebp]
  001be	53		 push	 ebx
  001bf	51		 push	 ecx
  001c0	51		 push	 ecx
  001c1	8b 8e 98 01 00
	00		 mov	 ecx, DWORD PTR [esi+408]
  001c7	f3 0f 11 44 24
	04		 movss	 DWORD PTR [esp+4], xmm0
  001cd	f3 0f 10 45 f4	 movss	 xmm0, DWORD PTR tv522[ebp]
  001d2	f3 0f 11 04 24	 movss	 DWORD PTR [esp], xmm0
  001d7	ff 15 00 00 00
	00		 call	 DWORD PTR __imp_?RenderWidthCut@ioUIRenderImage@@QAEXMMHHW4UIRenderType@@W4TextureFilterOption@@0@Z

; 664  : 
; 665  : 			if( m_fCurHP <= 0.f && m_pGaugeFrame )

  001dd	0f 57 c0	 xorps	 xmm0, xmm0
  001e0	0f 2f 86 00 02
	00 00		 comiss	 xmm0, DWORD PTR [esi+512]
  001e7	72 3e		 jb	 SHORT $LN7@OnRenderUs
  001e9	39 9e a8 01 00
	00		 cmp	 DWORD PTR [esi+424], ebx
  001ef	74 36		 je	 SHORT $LN7@OnRenderUs

; 666  : 				m_pGaugeFrame->Render( iXPos + 37, iYPos + 19, UI_RENDER_SCREEN );

  001f1	8b 8e a8 01 00
	00		 mov	 ecx, DWORD PTR [esi+424]
  001f7	8b 55 0c	 mov	 edx, DWORD PTR _iYPos$[ebp]
  001fa	8b 01		 mov	 eax, DWORD PTR [ecx]
  001fc	53		 push	 ebx
  001fd	53		 push	 ebx
  001fe	53		 push	 ebx
  001ff	6a 01		 push	 1
  00201	83 c2 13	 add	 edx, 19			; 00000013H
  00204	0f 57 c0	 xorps	 xmm0, xmm0
  00207	f3 0f 2a c2	 cvtsi2ss xmm0, edx
  0020b	8b 55 08	 mov	 edx, DWORD PTR _iXPos$[ebp]
  0020e	51		 push	 ecx
  0020f	51		 push	 ecx
  00210	f3 0f 11 44 24
	04		 movss	 DWORD PTR [esp+4], xmm0
  00216	83 c2 25	 add	 edx, 37			; 00000025H
  00219	0f 57 c0	 xorps	 xmm0, xmm0
  0021c	f3 0f 2a c2	 cvtsi2ss xmm0, edx
  00220	f3 0f 11 04 24	 movss	 DWORD PTR [esp], xmm0
  00225	ff 10		 call	 DWORD PTR [eax]
$LN7@OnRenderUs:

; 667  : 
; 668  : 		}
; 669  : 
; 670  : 		if( m_fAniHP > m_fCurHP )

  00227	f3 0f 10 86 04
	02 00 00	 movss	 xmm0, DWORD PTR [esi+516]
  0022f	f3 0f 10 96 00
	02 00 00	 movss	 xmm2, DWORD PTR [esi+512]
  00237	0f 57 c9	 xorps	 xmm1, xmm1
  0023a	0f 5a c8	 cvtps2pd xmm1, xmm0
  0023d	0f 5a d2	 cvtps2pd xmm2, xmm2
  00240	66 0f 2f ca	 comisd	 xmm1, xmm2
  00244	0f 86 c4 00 00
	00		 jbe	 $LN6@OnRenderUs

; 671  : 		{
; 672  : 			float fAniHPRate = m_fAniHP / m_fMaxHP;

  0024a	f3 0f 10 8e fc
	01 00 00	 movss	 xmm1, DWORD PTR [esi+508]

; 673  : 			float fAniWidth = m_pGauge->GetWidth() * fAniHPRate;

  00252	8b 8e 98 01 00
	00		 mov	 ecx, DWORD PTR [esi+408]
  00258	0f 5a c0	 cvtps2pd xmm0, xmm0
  0025b	0f 5a c9	 cvtps2pd xmm1, xmm1
  0025e	f2 0f 5e c1	 divsd	 xmm0, xmm1
  00262	66 0f 5a c0	 cvtpd2ps xmm0, xmm0
  00266	f3 0f 11 45 ec	 movss	 DWORD PTR _fAniHPRate$526137[ebp], xmm0
  0026b	ff 15 00 00 00
	00		 call	 DWORD PTR __imp_?GetWidth@ioUIRenderElement@@QBEHXZ
  00271	f3 0f 10 4d ec	 movss	 xmm1, DWORD PTR _fAniHPRate$526137[ebp]
  00276	0f 57 c0	 xorps	 xmm0, xmm0
  00279	f3 0f 2a c0	 cvtsi2ss xmm0, eax
  0027d	0f 5a c0	 cvtps2pd xmm0, xmm0
  00280	0f 5a c9	 cvtps2pd xmm1, xmm1
  00283	f2 0f 59 c1	 mulsd	 xmm0, xmm1

; 674  : 			// Screen x 2
; 675  : 			m_pGauge->RenderWidthCut( iXPos + 39 + fWidth, iYPos + 21, 0, static_cast<int>(fAniWidth - fWidth), UI_RENDER_SCREEN );

  00287	f3 0f 10 4d f0	 movss	 xmm1, DWORD PTR _fWidth$526131[ebp]
  0028c	53		 push	 ebx
  0028d	66 0f 5a c0	 cvtpd2ps xmm0, xmm0
  00291	53		 push	 ebx
  00292	f3 0f 5a c0	 cvtss2sd xmm0, xmm0
  00296	0f 5a c9	 cvtps2pd xmm1, xmm1
  00299	f2 0f 5c c1	 subsd	 xmm0, xmm1
  0029d	f3 0f 10 4d f0	 movss	 xmm1, DWORD PTR _fWidth$526131[ebp]
  002a2	f2 0f 2c c0	 cvttsd2si eax, xmm0
  002a6	f3 0f 10 45 f4	 movss	 xmm0, DWORD PTR tv522[ebp]
  002ab	6a 01		 push	 1
  002ad	50		 push	 eax
  002ae	53		 push	 ebx
  002af	51		 push	 ecx
  002b0	0f 5a c0	 cvtps2pd xmm0, xmm0
  002b3	0f 5a c9	 cvtps2pd xmm1, xmm1
  002b6	51		 push	 ecx
  002b7	8b 8e 98 01 00
	00		 mov	 ecx, DWORD PTR [esi+408]
  002bd	f2 0f 58 c1	 addsd	 xmm0, xmm1
  002c1	f3 0f 10 4d fc	 movss	 xmm1, DWORD PTR tv520[ebp]
  002c6	f2 0f 5a c0	 cvtsd2ss xmm0, xmm0
  002ca	f3 0f 11 4c 24
	04		 movss	 DWORD PTR [esp+4], xmm1
  002d0	89 45 ec	 mov	 DWORD PTR tv550[ebp], eax
  002d3	f3 0f 11 45 f0	 movss	 DWORD PTR tv553[ebp], xmm0
  002d8	f3 0f 11 04 24	 movss	 DWORD PTR [esp], xmm0
  002dd	ff 15 00 00 00
	00		 call	 DWORD PTR __imp_?RenderWidthCut@ioUIRenderImage@@QAEXMMHHW4UIRenderType@@W4TextureFilterOption@@0@Z

; 676  : 			m_pGauge->RenderWidthCut( iXPos + 39 + fWidth, iYPos + 21, 0, static_cast<int>(fAniWidth - fWidth), UI_RENDER_SCREEN );

  002e3	f3 0f 10 45 fc	 movss	 xmm0, DWORD PTR tv520[ebp]
  002e8	53		 push	 ebx
  002e9	53		 push	 ebx
  002ea	6a 01		 push	 1
  002ec	ff 75 ec	 push	 DWORD PTR tv550[ebp]
  002ef	53		 push	 ebx
  002f0	51		 push	 ecx
  002f1	51		 push	 ecx
  002f2	8b 8e 98 01 00
	00		 mov	 ecx, DWORD PTR [esi+408]
  002f8	f3 0f 11 44 24
	04		 movss	 DWORD PTR [esp+4], xmm0
  002fe	f3 0f 10 45 f0	 movss	 xmm0, DWORD PTR tv553[ebp]
  00303	f3 0f 11 04 24	 movss	 DWORD PTR [esp], xmm0
  00308	ff 15 00 00 00
	00		 call	 DWORD PTR __imp_?RenderWidthCut@ioUIRenderImage@@QAEXMMHHW4UIRenderType@@W4TextureFilterOption@@0@Z
$LN6@OnRenderUs:

; 677  : 		}
; 678  : 	}
; 679  : 
; 680  : 	if( m_pGaugeFrameOver )

  0030e	39 9e ac 01 00
	00		 cmp	 DWORD PTR [esi+428], ebx
  00314	74 36		 je	 SHORT $LN5@OnRenderUs

; 681  : 		m_pGaugeFrameOver->Render( iXPos + 37, iYPos + 19, UI_RENDER_ADD );

  00316	8b 8e ac 01 00
	00		 mov	 ecx, DWORD PTR [esi+428]
  0031c	8b 55 0c	 mov	 edx, DWORD PTR _iYPos$[ebp]
  0031f	8b 01		 mov	 eax, DWORD PTR [ecx]
  00321	53		 push	 ebx
  00322	53		 push	 ebx
  00323	53		 push	 ebx
  00324	6a 03		 push	 3
  00326	83 c2 13	 add	 edx, 19			; 00000013H
  00329	0f 57 c0	 xorps	 xmm0, xmm0
  0032c	f3 0f 2a c2	 cvtsi2ss xmm0, edx
  00330	8b 55 08	 mov	 edx, DWORD PTR _iXPos$[ebp]
  00333	51		 push	 ecx
  00334	51		 push	 ecx
  00335	f3 0f 11 44 24
	04		 movss	 DWORD PTR [esp+4], xmm0
  0033b	83 c2 25	 add	 edx, 37			; 00000025H
  0033e	0f 57 c0	 xorps	 xmm0, xmm0
  00341	f3 0f 2a c2	 cvtsi2ss xmm0, edx
  00345	f3 0f 11 04 24	 movss	 DWORD PTR [esp], xmm0
  0034a	ff 10		 call	 DWORD PTR [eax]
$LN5@OnRenderUs:

; 682  : 
; 683  : 	g_FontMgr.SetTextStyle( TS_NORMAL );

  0034c	53		 push	 ebx
  0034d	ff d7		 call	 edi
  0034f	8b c8		 mov	 ecx, eax
  00351	ff 15 00 00 00
	00		 call	 DWORD PTR __imp_?SetTextStyle@ioFontManager@@QAEXW4TextStyle@@@Z

; 684  : 	g_FontMgr.SetTextColor( 255, 255, 255);

  00357	b8 ff 00 00 00	 mov	 eax, 255		; 000000ffH
  0035c	50		 push	 eax
  0035d	50		 push	 eax
  0035e	50		 push	 eax
  0035f	ff d7		 call	 edi
  00361	8b c8		 mov	 ecx, eax
  00363	ff 15 00 00 00
	00		 call	 DWORD PTR __imp_?SetTextColor@ioFontManager@@QAEXHHH@Z

; 685  : 	g_FontMgr.PrintTextAlpha( iXPos + 42, iYPos + 22, FONT_SIZE_12, 176, STR(4), m_nLevel+1);

  00369	8b 86 38 02 00
	00		 mov	 eax, DWORD PTR [esi+568]
  0036f	40		 inc	 eax
  00370	50		 push	 eax
  00371	53		 push	 ebx
  00372	6a 04		 push	 4
  00374	68 00 00 00 00	 push	 OFFSET ??_C@_00CNPNBAHC@?$AA@
  00379	68 00 00 00 00	 push	 OFFSET ??_C@_0CD@JNBDECMN@TowerDefUserGaugeWnd?3?3OnRenderUs@
  0037e	ff 15 00 00 00
	00		 call	 DWORD PTR __imp_?GetSingleton@ioStringManager@@SAAAV1@XZ
  00384	8b c8		 mov	 ecx, eax
  00386	ff 15 00 00 00
	00		 call	 DWORD PTR __imp_?GetString@ioStringManager@@QAEPADPBD0HW4FileNamePrefix@1@@Z
  0038c	f3 0f 10 05 00
	00 00 00	 movss	 xmm0, DWORD PTR __real@3f19999a
  00394	50		 push	 eax
  00395	8b 45 0c	 mov	 eax, DWORD PTR _iYPos$[ebp]
  00398	68 b0 00 00 00	 push	 176			; 000000b0H
  0039d	83 ec 0c	 sub	 esp, 12			; 0000000cH
  003a0	f3 0f 11 44 24
	08		 movss	 DWORD PTR [esp+8], xmm0
  003a6	83 c0 16	 add	 eax, 22			; 00000016H
  003a9	0f 57 c0	 xorps	 xmm0, xmm0
  003ac	f3 0f 2a c0	 cvtsi2ss xmm0, eax
  003b0	8b 45 08	 mov	 eax, DWORD PTR _iXPos$[ebp]
  003b3	f3 0f 11 44 24
	04		 movss	 DWORD PTR [esp+4], xmm0
  003b9	83 c0 2a	 add	 eax, 42			; 0000002aH
  003bc	0f 57 c0	 xorps	 xmm0, xmm0
  003bf	f3 0f 2a c0	 cvtsi2ss xmm0, eax
  003c3	f3 0f 11 04 24	 movss	 DWORD PTR [esp], xmm0
  003c8	ff d7		 call	 edi
  003ca	8b c8		 mov	 ecx, eax
  003cc	ff 15 00 00 00
	00		 call	 DWORD PTR __imp_?PrintTextAlpha@ioFontManager@@QAEXMMMEPBDH@Z
  003d2	5f		 pop	 edi

; 686  : 
; 687  : 	if( m_pPotrait[IMG_POTRAIT_BACK] )

  003d3	39 9e 90 01 00
	00		 cmp	 DWORD PTR [esi+400], ebx
  003d9	74 2d		 je	 SHORT $LN13@OnRenderUs

; 688  : 		m_pPotrait[IMG_POTRAIT_BACK]->Render(iXPos, iYPos );

  003db	66 0f 6e 45 0c	 movd	 xmm0, DWORD PTR _iYPos$[ebp]
  003e0	8b 86 90 01 00
	00		 mov	 eax, DWORD PTR [esi+400]
  003e6	8b 10		 mov	 edx, DWORD PTR [eax]
  003e8	53		 push	 ebx
  003e9	53		 push	 ebx
  003ea	53		 push	 ebx
  003eb	53		 push	 ebx
  003ec	51		 push	 ecx
  003ed	51		 push	 ecx
  003ee	0f 5b c0	 cvtdq2ps xmm0, xmm0
  003f1	f3 0f 11 44 24
	04		 movss	 DWORD PTR [esp+4], xmm0
  003f7	66 0f 6e 45 08	 movd	 xmm0, DWORD PTR _iXPos$[ebp]
  003fc	0f 5b c0	 cvtdq2ps xmm0, xmm0
  003ff	8b c8		 mov	 ecx, eax
  00401	f3 0f 11 04 24	 movss	 DWORD PTR [esp], xmm0
  00406	ff 12		 call	 DWORD PTR [edx]
$LN13@OnRenderUs:

; 689  : 
; 690  : 	if( m_pCharPotrait )

  00408	8b 8e a4 01 00
	00		 mov	 ecx, DWORD PTR [esi+420]
  0040e	3b cb		 cmp	 ecx, ebx
  00410	74 0b		 je	 SHORT $LN14@OnRenderUs

; 691  : 		m_pCharPotrait->Render(iXPos, iYPos);

  00412	ff 75 0c	 push	 DWORD PTR _iYPos$[ebp]
  00415	ff 75 08	 push	 DWORD PTR _iXPos$[ebp]
  00418	e8 00 00 00 00	 call	 ?Render@TowerDef3DChar@@QAEXHH@Z ; TowerDef3DChar::Render
$LN14@OnRenderUs:

; 692  : 
; 693  : 	if( m_pPotrait[IMG_POTRAIT_OVERBACK] )

  0041d	39 9e 94 01 00
	00		 cmp	 DWORD PTR [esi+404], ebx
  00423	74 2c		 je	 SHORT $LN15@OnRenderUs

; 694  : 		m_pPotrait[IMG_POTRAIT_OVERBACK]->Render(iXPos, iYPos, UI_RENDER_ADD );

  00425	8b 8e 94 01 00
	00		 mov	 ecx, DWORD PTR [esi+404]
  0042b	66 0f 6e 45 0c	 movd	 xmm0, DWORD PTR _iYPos$[ebp]
  00430	8b 01		 mov	 eax, DWORD PTR [ecx]
  00432	53		 push	 ebx
  00433	53		 push	 ebx
  00434	53		 push	 ebx
  00435	6a 03		 push	 3
  00437	51		 push	 ecx
  00438	0f 5b c0	 cvtdq2ps xmm0, xmm0
  0043b	51		 push	 ecx
  0043c	f3 0f 11 44 24
	04		 movss	 DWORD PTR [esp+4], xmm0
  00442	66 0f 6e 45 08	 movd	 xmm0, DWORD PTR _iXPos$[ebp]
  00447	0f 5b c0	 cvtdq2ps xmm0, xmm0
  0044a	f3 0f 11 04 24	 movss	 DWORD PTR [esp], xmm0
  0044f	ff 10		 call	 DWORD PTR [eax]
$LN15@OnRenderUs:

; 695  : 
; 696  : 	if(m_bSurrender && m_pSurrender)

  00451	38 9e 15 02 00
	00		 cmp	 BYTE PTR [esi+533], bl
  00457	74 33		 je	 SHORT $LN1@OnRenderUs
  00459	39 9e a0 01 00
	00		 cmp	 DWORD PTR [esi+416], ebx
  0045f	74 2b		 je	 SHORT $LN1@OnRenderUs

; 697  : 		m_pSurrender->Render(iXPos, iYPos);

  00461	8b 8e a0 01 00
	00		 mov	 ecx, DWORD PTR [esi+416]
  00467	66 0f 6e 45 0c	 movd	 xmm0, DWORD PTR _iYPos$[ebp]
  0046c	8b 01		 mov	 eax, DWORD PTR [ecx]
  0046e	53		 push	 ebx
  0046f	53		 push	 ebx
  00470	53		 push	 ebx
  00471	53		 push	 ebx
  00472	51		 push	 ecx
  00473	0f 5b c0	 cvtdq2ps xmm0, xmm0
  00476	51		 push	 ecx
  00477	f3 0f 11 44 24
	04		 movss	 DWORD PTR [esp+4], xmm0
  0047d	66 0f 6e 45 08	 movd	 xmm0, DWORD PTR _iXPos$[ebp]
  00482	0f 5b c0	 cvtdq2ps xmm0, xmm0
  00485	f3 0f 11 04 24	 movss	 DWORD PTR [esp], xmm0
  0048a	ff 10		 call	 DWORD PTR [eax]
$LN1@OnRenderUs:
  0048c	5e		 pop	 esi
  0048d	5b		 pop	 ebx

; 698  : 
; 699  : }

  0048e	c9		 leave
  0048f	c2 08 00	 ret	 8
?OnRenderUser@TowerDefUserGaugeWnd@@IAEXHH@Z ENDP	; TowerDefUserGaugeWnd::OnRenderUser
_TEXT	ENDS
PUBLIC	??_C@_0CC@BPDNJJG@TowerDefUserGaugeWnd?3?3OnRenderNP@ ; `string'
PUBLIC	?OnRenderNPC@TowerDefUserGaugeWnd@@IAEXHH@Z	; TowerDefUserGaugeWnd::OnRenderNPC
;	COMDAT ??_C@_0CC@BPDNJJG@TowerDefUserGaugeWnd?3?3OnRenderNP@
CONST	SEGMENT
??_C@_0CC@BPDNJJG@TowerDefUserGaugeWnd?3?3OnRenderNP@ DB 'TowerDefUserGau'
	DB	'geWnd::OnRenderNPC', 00H			; `string'
; Function compile flags: /Ogsp
CONST	ENDS
;	COMDAT ?OnRenderNPC@TowerDefUserGaugeWnd@@IAEXHH@Z
_TEXT	SEGMENT
tv509 = -16						; size = 4
tv490 = -16						; size = 4
tv506 = -12						; size = 4
_fAniHPRate$526159 = -12				; size = 4
tv488 = -8						; size = 4
_fHPRate$526155 = -8					; size = 4
_fWidth$526156 = -4					; size = 4
_iXPos$ = 8						; size = 4
_iYPos$ = 12						; size = 4
?OnRenderNPC@TowerDefUserGaugeWnd@@IAEXHH@Z PROC	; TowerDefUserGaugeWnd::OnRenderNPC, COMDAT
; _this$ = ecx

; 702  : {

  00000	55		 push	 ebp
  00001	8b ec		 mov	 ebp, esp
  00003	83 ec 10	 sub	 esp, 16			; 00000010H
  00006	53		 push	 ebx
  00007	56		 push	 esi
  00008	57		 push	 edi
  00009	8b f9		 mov	 edi, ecx

; 703  : 	if( m_pGaugeFrame )

  0000b	33 f6		 xor	 esi, esi
  0000d	39 b7 a8 01 00
	00		 cmp	 DWORD PTR [edi+424], esi
  00013	74 37		 je	 SHORT $LN7@OnRenderNP

; 704  : 		m_pGaugeFrame->Render( iXPos + 37, iYPos + 19 );

  00015	8b 4d 0c	 mov	 ecx, DWORD PTR _iYPos$[ebp]
  00018	8b 87 a8 01 00
	00		 mov	 eax, DWORD PTR [edi+424]
  0001e	8b 10		 mov	 edx, DWORD PTR [eax]
  00020	56		 push	 esi
  00021	56		 push	 esi
  00022	83 c1 13	 add	 ecx, 19			; 00000013H
  00025	56		 push	 esi
  00026	56		 push	 esi
  00027	51		 push	 ecx
  00028	51		 push	 ecx
  00029	0f 57 c0	 xorps	 xmm0, xmm0
  0002c	f3 0f 2a c1	 cvtsi2ss xmm0, ecx
  00030	8b 4d 08	 mov	 ecx, DWORD PTR _iXPos$[ebp]
  00033	f3 0f 11 44 24
	04		 movss	 DWORD PTR [esp+4], xmm0
  00039	83 c1 25	 add	 ecx, 37			; 00000025H
  0003c	0f 57 c0	 xorps	 xmm0, xmm0
  0003f	f3 0f 2a c1	 cvtsi2ss xmm0, ecx
  00043	8b c8		 mov	 ecx, eax
  00045	f3 0f 11 04 24	 movss	 DWORD PTR [esp], xmm0
  0004a	ff 12		 call	 DWORD PTR [edx]
$LN7@OnRenderNP:

; 705  : 
; 706  : 	float fNameWidth = 200.0f;
; 707  : 	g_FontMgr.SetAlignType( TAT_LEFT );

  0004c	56		 push	 esi
  0004d	8b 35 00 00 00
	00		 mov	 esi, DWORD PTR __imp_?GetSingleton@ioFontManager@@SAAAV1@XZ
  00053	ff d6		 call	 esi
  00055	8b c8		 mov	 ecx, eax
  00057	ff 15 00 00 00
	00		 call	 DWORD PTR __imp_?SetAlignType@ioFontManager@@QAEXW4TextAlignType@@@Z

; 708  : 	g_FontMgr.SetTextStyle( TS_OUTLINE_FULL_2X );

  0005d	6a 05		 push	 5
  0005f	ff d6		 call	 esi
  00061	8b c8		 mov	 ecx, eax
  00063	ff 15 00 00 00
	00		 call	 DWORD PTR __imp_?SetTextStyle@ioFontManager@@QAEXW4TextStyle@@@Z

; 709  : 	g_FontMgr.SetTextColor( 255, 255, 255);

  00069	bb ff 00 00 00	 mov	 ebx, 255		; 000000ffH
  0006e	53		 push	 ebx
  0006f	53		 push	 ebx
  00070	53		 push	 ebx
  00071	ff d6		 call	 esi
  00073	8b c8		 mov	 ecx, eax
  00075	ff 15 00 00 00
	00		 call	 DWORD PTR __imp_?SetTextColor@ioFontManager@@QAEXHHH@Z

; 710  : 	g_FontMgr.SetBkColor( 0, 0, 0 );

  0007b	33 c0		 xor	 eax, eax
  0007d	50		 push	 eax
  0007e	50		 push	 eax
  0007f	50		 push	 eax
  00080	ff d6		 call	 esi
  00082	8b c8		 mov	 ecx, eax
  00084	ff 15 00 00 00
	00		 call	 DWORD PTR __imp_?SetBkColor@ioFontManager@@QAEXHHH@Z

; 711  : 	g_FontMgr.PrintTextWidthCut( iXPos + 40, iYPos + 3, FONT_SIZE_12, fNameWidth, STR(3), m_szShowName.c_str() );

  0008a	8d 8f 28 02 00
	00		 lea	 ecx, DWORD PTR [edi+552]
  00090	ff 15 00 00 00
	00		 call	 DWORD PTR __imp_?c_str@ioHashString@@QBEPBDXZ
  00096	50		 push	 eax
  00097	6a 00		 push	 0
  00099	6a 03		 push	 3
  0009b	68 00 00 00 00	 push	 OFFSET ??_C@_00CNPNBAHC@?$AA@
  000a0	68 00 00 00 00	 push	 OFFSET ??_C@_0CC@BPDNJJG@TowerDefUserGaugeWnd?3?3OnRenderNP@
  000a5	ff 15 00 00 00
	00		 call	 DWORD PTR __imp_?GetSingleton@ioStringManager@@SAAAV1@XZ
  000ab	8b c8		 mov	 ecx, eax
  000ad	ff 15 00 00 00
	00		 call	 DWORD PTR __imp_?GetString@ioStringManager@@QAEPADPBD0HW4FileNamePrefix@1@@Z
  000b3	f3 0f 10 05 00
	00 00 00	 movss	 xmm0, DWORD PTR __real@43480000
  000bb	50		 push	 eax
  000bc	8b 45 0c	 mov	 eax, DWORD PTR _iYPos$[ebp]
  000bf	83 ec 10	 sub	 esp, 16			; 00000010H
  000c2	f3 0f 11 44 24
	0c		 movss	 DWORD PTR [esp+12], xmm0
  000c8	f3 0f 10 05 00
	00 00 00	 movss	 xmm0, DWORD PTR __real@3f19999a
  000d0	f3 0f 11 44 24
	08		 movss	 DWORD PTR [esp+8], xmm0
  000d6	83 c0 03	 add	 eax, 3
  000d9	0f 57 c0	 xorps	 xmm0, xmm0
  000dc	f3 0f 2a c0	 cvtsi2ss xmm0, eax
  000e0	8b 45 08	 mov	 eax, DWORD PTR _iXPos$[ebp]
  000e3	f3 0f 11 44 24
	04		 movss	 DWORD PTR [esp+4], xmm0
  000e9	83 c0 28	 add	 eax, 40			; 00000028H
  000ec	0f 57 c0	 xorps	 xmm0, xmm0
  000ef	f3 0f 2a c0	 cvtsi2ss xmm0, eax
  000f3	f3 0f 11 04 24	 movss	 DWORD PTR [esp], xmm0
  000f8	ff d6		 call	 esi
  000fa	8b c8		 mov	 ecx, eax
  000fc	ff 15 00 00 00
	00		 call	 DWORD PTR __imp_?PrintTextWidthCut@ioFontManager@@QAEXMMMMPBD0@Z

; 712  : 
; 713  : 	if( m_pGauge )

  00102	8b 8f 98 01 00
	00		 mov	 ecx, DWORD PTR [edi+408]
  00108	85 c9		 test	 ecx, ecx
  0010a	0f 84 7e 01 00
	00		 je	 $LN10@OnRenderNP

; 714  : 	{
; 715  : 		float fHPRate = m_fCurHP / m_fMaxHP;

  00110	f3 0f 10 87 00
	02 00 00	 movss	 xmm0, DWORD PTR [edi+512]
  00118	f3 0f 10 8f fc
	01 00 00	 movss	 xmm1, DWORD PTR [edi+508]
  00120	0f 5a c0	 cvtps2pd xmm0, xmm0
  00123	0f 5a c9	 cvtps2pd xmm1, xmm1
  00126	f2 0f 5e c1	 divsd	 xmm0, xmm1
  0012a	66 0f 5a c0	 cvtpd2ps xmm0, xmm0
  0012e	f3 0f 11 45 f8	 movss	 DWORD PTR _fHPRate$526155[ebp], xmm0

; 716  : 		float fWidth = m_pGauge->GetWidth() * fHPRate;

  00133	ff 15 00 00 00
	00		 call	 DWORD PTR __imp_?GetWidth@ioUIRenderElement@@QBEHXZ
  00139	f3 0f 10 4d f8	 movss	 xmm1, DWORD PTR _fHPRate$526155[ebp]
  0013e	0f 57 c0	 xorps	 xmm0, xmm0
  00141	f3 0f 2a c0	 cvtsi2ss xmm0, eax

; 717  : 		m_pGauge->RenderWidthCut( iXPos + 39, iYPos + 21, 0, static_cast<int>(fWidth) );

  00145	8b 45 0c	 mov	 eax, DWORD PTR _iYPos$[ebp]
  00148	0f 5a c0	 cvtps2pd xmm0, xmm0
  0014b	0f 5a c9	 cvtps2pd xmm1, xmm1
  0014e	f2 0f 59 c1	 mulsd	 xmm0, xmm1
  00152	83 c0 15	 add	 eax, 21			; 00000015H
  00155	0f 57 d2	 xorps	 xmm2, xmm2
  00158	66 0f 5a d0	 cvtpd2ps xmm2, xmm0
  0015c	0f 57 c0	 xorps	 xmm0, xmm0
  0015f	f3 0f 2a c0	 cvtsi2ss xmm0, eax
  00163	8b 45 08	 mov	 eax, DWORD PTR _iXPos$[ebp]
  00166	83 c0 27	 add	 eax, 39			; 00000027H
  00169	0f 57 c9	 xorps	 xmm1, xmm1
  0016c	f3 0f 2a c8	 cvtsi2ss xmm1, eax
  00170	33 c0		 xor	 eax, eax
  00172	50		 push	 eax
  00173	50		 push	 eax
  00174	50		 push	 eax
  00175	f3 0f 2c ca	 cvttss2si ecx, xmm2
  00179	51		 push	 ecx
  0017a	50		 push	 eax
  0017b	51		 push	 ecx
  0017c	51		 push	 ecx
  0017d	8b 8f 98 01 00
	00		 mov	 ecx, DWORD PTR [edi+408]
  00183	f3 0f 11 44 24
	04		 movss	 DWORD PTR [esp+4], xmm0
  00189	f3 0f 11 55 fc	 movss	 DWORD PTR _fWidth$526156[ebp], xmm2
  0018e	f3 0f 11 45 f8	 movss	 DWORD PTR tv488[ebp], xmm0
  00193	f3 0f 11 4d f0	 movss	 DWORD PTR tv490[ebp], xmm1
  00198	f3 0f 11 0c 24	 movss	 DWORD PTR [esp], xmm1
  0019d	ff 15 00 00 00
	00		 call	 DWORD PTR __imp_?RenderWidthCut@ioUIRenderImage@@QAEXMMHHW4UIRenderType@@W4TextureFilterOption@@0@Z

; 718  : 
; 719  : 		if( m_fAniHP > m_fCurHP )

  001a3	f3 0f 10 87 04
	02 00 00	 movss	 xmm0, DWORD PTR [edi+516]
  001ab	f3 0f 10 97 00
	02 00 00	 movss	 xmm2, DWORD PTR [edi+512]
  001b3	0f 57 c9	 xorps	 xmm1, xmm1
  001b6	0f 5a c8	 cvtps2pd xmm1, xmm0
  001b9	0f 5a d2	 cvtps2pd xmm2, xmm2
  001bc	66 0f 2f ca	 comisd	 xmm1, xmm2
  001c0	0f 86 c8 00 00
	00		 jbe	 $LN10@OnRenderNP

; 720  : 		{
; 721  : 			float fAniHPRate = m_fAniHP / m_fMaxHP;

  001c6	f3 0f 10 8f fc
	01 00 00	 movss	 xmm1, DWORD PTR [edi+508]

; 722  : 			float fAniWidth = m_pGauge->GetWidth() * fAniHPRate;

  001ce	8b 8f 98 01 00
	00		 mov	 ecx, DWORD PTR [edi+408]
  001d4	0f 5a c0	 cvtps2pd xmm0, xmm0
  001d7	0f 5a c9	 cvtps2pd xmm1, xmm1
  001da	f2 0f 5e c1	 divsd	 xmm0, xmm1
  001de	66 0f 5a c0	 cvtpd2ps xmm0, xmm0
  001e2	f3 0f 11 45 f4	 movss	 DWORD PTR _fAniHPRate$526159[ebp], xmm0
  001e7	ff 15 00 00 00
	00		 call	 DWORD PTR __imp_?GetWidth@ioUIRenderElement@@QBEHXZ
  001ed	f3 0f 10 4d f4	 movss	 xmm1, DWORD PTR _fAniHPRate$526159[ebp]
  001f2	0f 57 c0	 xorps	 xmm0, xmm0
  001f5	f3 0f 2a c0	 cvtsi2ss xmm0, eax
  001f9	0f 5a c0	 cvtps2pd xmm0, xmm0

; 723  : 			// Screen x 2
; 724  : 			m_pGauge->RenderWidthCut( iXPos + 39 + fWidth, iYPos + 21, 0, static_cast<int>(fAniWidth - fWidth), UI_RENDER_SCREEN );

  001fc	33 c9		 xor	 ecx, ecx
  001fe	51		 push	 ecx
  001ff	0f 5a c9	 cvtps2pd xmm1, xmm1
  00202	f2 0f 59 c1	 mulsd	 xmm0, xmm1
  00206	f3 0f 10 4d fc	 movss	 xmm1, DWORD PTR _fWidth$526156[ebp]
  0020b	66 0f 5a c0	 cvtpd2ps xmm0, xmm0
  0020f	51		 push	 ecx
  00210	f3 0f 5a c0	 cvtss2sd xmm0, xmm0
  00214	0f 5a c9	 cvtps2pd xmm1, xmm1
  00217	f2 0f 5c c1	 subsd	 xmm0, xmm1
  0021b	f3 0f 10 4d fc	 movss	 xmm1, DWORD PTR _fWidth$526156[ebp]
  00220	f2 0f 2c c0	 cvttsd2si eax, xmm0
  00224	f3 0f 10 45 f0	 movss	 xmm0, DWORD PTR tv490[ebp]
  00229	6a 01		 push	 1
  0022b	50		 push	 eax
  0022c	51		 push	 ecx
  0022d	51		 push	 ecx
  0022e	0f 5a c0	 cvtps2pd xmm0, xmm0
  00231	0f 5a c9	 cvtps2pd xmm1, xmm1
  00234	51		 push	 ecx
  00235	8b 8f 98 01 00
	00		 mov	 ecx, DWORD PTR [edi+408]
  0023b	f2 0f 58 c1	 addsd	 xmm0, xmm1
  0023f	f3 0f 10 4d f8	 movss	 xmm1, DWORD PTR tv488[ebp]
  00244	f2 0f 5a c0	 cvtsd2ss xmm0, xmm0
  00248	f3 0f 11 4c 24
	04		 movss	 DWORD PTR [esp+4], xmm1
  0024e	89 45 f4	 mov	 DWORD PTR tv506[ebp], eax
  00251	f3 0f 11 45 f0	 movss	 DWORD PTR tv509[ebp], xmm0
  00256	f3 0f 11 04 24	 movss	 DWORD PTR [esp], xmm0
  0025b	ff 15 00 00 00
	00		 call	 DWORD PTR __imp_?RenderWidthCut@ioUIRenderImage@@QAEXMMHHW4UIRenderType@@W4TextureFilterOption@@0@Z

; 725  : 			m_pGauge->RenderWidthCut( iXPos + 39 + fWidth, iYPos + 21, 0, static_cast<int>(fAniWidth - fWidth), UI_RENDER_SCREEN );

  00261	f3 0f 10 45 f8	 movss	 xmm0, DWORD PTR tv488[ebp]
  00266	33 c0		 xor	 eax, eax
  00268	50		 push	 eax
  00269	50		 push	 eax
  0026a	6a 01		 push	 1
  0026c	ff 75 f4	 push	 DWORD PTR tv506[ebp]
  0026f	50		 push	 eax
  00270	51		 push	 ecx
  00271	51		 push	 ecx
  00272	8b 8f 98 01 00
	00		 mov	 ecx, DWORD PTR [edi+408]
  00278	f3 0f 11 44 24
	04		 movss	 DWORD PTR [esp+4], xmm0
  0027e	f3 0f 10 45 f0	 movss	 xmm0, DWORD PTR tv509[ebp]
  00283	f3 0f 11 04 24	 movss	 DWORD PTR [esp], xmm0
  00288	ff 15 00 00 00
	00		 call	 DWORD PTR __imp_?RenderWidthCut@ioUIRenderImage@@QAEXMMHHW4UIRenderType@@W4TextureFilterOption@@0@Z
$LN10@OnRenderNP:

; 726  : 		}
; 727  : 	}
; 728  : 
; 729  : 	if( m_pGaugeFrameOver )

  0028e	33 d2		 xor	 edx, edx
  00290	39 97 ac 01 00
	00		 cmp	 DWORD PTR [edi+428], edx
  00296	74 36		 je	 SHORT $LN4@OnRenderNP

; 730  : 		m_pGaugeFrameOver->Render( iXPos + 37, iYPos + 19, UI_RENDER_ADD );

  00298	8b 8f ac 01 00
	00		 mov	 ecx, DWORD PTR [edi+428]
  0029e	8b 01		 mov	 eax, DWORD PTR [ecx]
  002a0	52		 push	 edx
  002a1	52		 push	 edx
  002a2	52		 push	 edx
  002a3	8b 55 0c	 mov	 edx, DWORD PTR _iYPos$[ebp]
  002a6	6a 03		 push	 3
  002a8	83 c2 13	 add	 edx, 19			; 00000013H
  002ab	0f 57 c0	 xorps	 xmm0, xmm0
  002ae	f3 0f 2a c2	 cvtsi2ss xmm0, edx
  002b2	8b 55 08	 mov	 edx, DWORD PTR _iXPos$[ebp]
  002b5	51		 push	 ecx
  002b6	51		 push	 ecx
  002b7	f3 0f 11 44 24
	04		 movss	 DWORD PTR [esp+4], xmm0
  002bd	83 c2 25	 add	 edx, 37			; 00000025H
  002c0	0f 57 c0	 xorps	 xmm0, xmm0
  002c3	f3 0f 2a c2	 cvtsi2ss xmm0, edx
  002c7	f3 0f 11 04 24	 movss	 DWORD PTR [esp], xmm0
  002cc	ff 10		 call	 DWORD PTR [eax]
$LN4@OnRenderNP:

; 731  : 
; 732  : 	g_FontMgr.SetTextStyle( TS_NORMAL );

  002ce	6a 00		 push	 0
  002d0	ff d6		 call	 esi
  002d2	8b c8		 mov	 ecx, eax
  002d4	ff 15 00 00 00
	00		 call	 DWORD PTR __imp_?SetTextStyle@ioFontManager@@QAEXW4TextStyle@@@Z

; 733  : 	g_FontMgr.SetTextColor( 255, 255, 255);

  002da	53		 push	 ebx
  002db	53		 push	 ebx
  002dc	53		 push	 ebx
  002dd	ff d6		 call	 esi
  002df	8b c8		 mov	 ecx, eax
  002e1	ff 15 00 00 00
	00		 call	 DWORD PTR __imp_?SetTextColor@ioFontManager@@QAEXHHH@Z

; 734  : 	g_FontMgr.PrintTextAlpha( iXPos + 42, iYPos + 22, FONT_SIZE_12, 176, STR(4), m_nLevel+1);

  002e7	8b 87 38 02 00
	00		 mov	 eax, DWORD PTR [edi+568]
  002ed	40		 inc	 eax
  002ee	50		 push	 eax
  002ef	33 db		 xor	 ebx, ebx
  002f1	53		 push	 ebx
  002f2	6a 04		 push	 4
  002f4	68 00 00 00 00	 push	 OFFSET ??_C@_00CNPNBAHC@?$AA@
  002f9	68 00 00 00 00	 push	 OFFSET ??_C@_0CC@BPDNJJG@TowerDefUserGaugeWnd?3?3OnRenderNP@
  002fe	ff 15 00 00 00
	00		 call	 DWORD PTR __imp_?GetSingleton@ioStringManager@@SAAAV1@XZ
  00304	8b c8		 mov	 ecx, eax
  00306	ff 15 00 00 00
	00		 call	 DWORD PTR __imp_?GetString@ioStringManager@@QAEPADPBD0HW4FileNamePrefix@1@@Z
  0030c	f3 0f 10 05 00
	00 00 00	 movss	 xmm0, DWORD PTR __real@3f19999a
  00314	50		 push	 eax
  00315	8b 45 0c	 mov	 eax, DWORD PTR _iYPos$[ebp]
  00318	68 b0 00 00 00	 push	 176			; 000000b0H
  0031d	83 ec 0c	 sub	 esp, 12			; 0000000cH
  00320	f3 0f 11 44 24
	08		 movss	 DWORD PTR [esp+8], xmm0
  00326	83 c0 16	 add	 eax, 22			; 00000016H
  00329	0f 57 c0	 xorps	 xmm0, xmm0
  0032c	f3 0f 2a c0	 cvtsi2ss xmm0, eax
  00330	8b 45 08	 mov	 eax, DWORD PTR _iXPos$[ebp]
  00333	f3 0f 11 44 24
	04		 movss	 DWORD PTR [esp+4], xmm0
  00339	83 c0 2a	 add	 eax, 42			; 0000002aH
  0033c	0f 57 c0	 xorps	 xmm0, xmm0
  0033f	f3 0f 2a c0	 cvtsi2ss xmm0, eax
  00343	f3 0f 11 04 24	 movss	 DWORD PTR [esp], xmm0
  00348	ff d6		 call	 esi
  0034a	8b c8		 mov	 ecx, eax
  0034c	ff 15 00 00 00
	00		 call	 DWORD PTR __imp_?PrintTextAlpha@ioFontManager@@QAEXMMMEPBDH@Z

; 735  : 
; 736  : 	if( m_pPotrait[IMG_POTRAIT_BACK] )

  00352	39 9f 90 01 00
	00		 cmp	 DWORD PTR [edi+400], ebx
  00358	74 2d		 je	 SHORT $LN11@OnRenderNP

; 737  : 		m_pPotrait[IMG_POTRAIT_BACK]->Render(iXPos, iYPos );

  0035a	66 0f 6e 45 0c	 movd	 xmm0, DWORD PTR _iYPos$[ebp]
  0035f	8b 87 90 01 00
	00		 mov	 eax, DWORD PTR [edi+400]
  00365	8b 10		 mov	 edx, DWORD PTR [eax]
  00367	53		 push	 ebx
  00368	53		 push	 ebx
  00369	53		 push	 ebx
  0036a	53		 push	 ebx
  0036b	51		 push	 ecx
  0036c	51		 push	 ecx
  0036d	0f 5b c0	 cvtdq2ps xmm0, xmm0
  00370	f3 0f 11 44 24
	04		 movss	 DWORD PTR [esp+4], xmm0
  00376	66 0f 6e 45 08	 movd	 xmm0, DWORD PTR _iXPos$[ebp]
  0037b	0f 5b c0	 cvtdq2ps xmm0, xmm0
  0037e	8b c8		 mov	 ecx, eax
  00380	f3 0f 11 04 24	 movss	 DWORD PTR [esp], xmm0
  00385	ff 12		 call	 DWORD PTR [edx]
$LN11@OnRenderNP:

; 738  : 
; 739  : 	if( m_pNpcFace )

  00387	39 9f 9c 01 00
	00		 cmp	 DWORD PTR [edi+412], ebx
  0038d	74 35		 je	 SHORT $LN12@OnRenderNP

; 740  : 		m_pNpcFace->Render(iXPos+2, iYPos+2);

  0038f	8b 8f 9c 01 00
	00		 mov	 ecx, DWORD PTR [edi+412]
  00395	8b 55 0c	 mov	 edx, DWORD PTR _iYPos$[ebp]
  00398	8b 01		 mov	 eax, DWORD PTR [ecx]
  0039a	53		 push	 ebx
  0039b	53		 push	 ebx
  0039c	53		 push	 ebx
  0039d	53		 push	 ebx
  0039e	83 c2 02	 add	 edx, 2
  003a1	0f 57 c0	 xorps	 xmm0, xmm0
  003a4	f3 0f 2a c2	 cvtsi2ss xmm0, edx
  003a8	8b 55 08	 mov	 edx, DWORD PTR _iXPos$[ebp]
  003ab	51		 push	 ecx
  003ac	51		 push	 ecx
  003ad	f3 0f 11 44 24
	04		 movss	 DWORD PTR [esp+4], xmm0
  003b3	83 c2 02	 add	 edx, 2
  003b6	0f 57 c0	 xorps	 xmm0, xmm0
  003b9	f3 0f 2a c2	 cvtsi2ss xmm0, edx
  003bd	f3 0f 11 04 24	 movss	 DWORD PTR [esp], xmm0
  003c2	ff 10		 call	 DWORD PTR [eax]
$LN12@OnRenderNP:

; 741  : 
; 742  : 	if( m_pPotrait[IMG_POTRAIT_OVERBACK] )

  003c4	39 9f 94 01 00
	00		 cmp	 DWORD PTR [edi+404], ebx
  003ca	74 2c		 je	 SHORT $LN1@OnRenderNP

; 743  : 		m_pPotrait[IMG_POTRAIT_OVERBACK]->Render(iXPos, iYPos, UI_RENDER_ADD );

  003cc	8b 8f 94 01 00
	00		 mov	 ecx, DWORD PTR [edi+404]
  003d2	66 0f 6e 45 0c	 movd	 xmm0, DWORD PTR _iYPos$[ebp]
  003d7	8b 01		 mov	 eax, DWORD PTR [ecx]
  003d9	53		 push	 ebx
  003da	53		 push	 ebx
  003db	53		 push	 ebx
  003dc	6a 03		 push	 3
  003de	51		 push	 ecx
  003df	0f 5b c0	 cvtdq2ps xmm0, xmm0
  003e2	51		 push	 ecx
  003e3	f3 0f 11 44 24
	04		 movss	 DWORD PTR [esp+4], xmm0
  003e9	66 0f 6e 45 08	 movd	 xmm0, DWORD PTR _iXPos$[ebp]
  003ee	0f 5b c0	 cvtdq2ps xmm0, xmm0
  003f1	f3 0f 11 04 24	 movss	 DWORD PTR [esp], xmm0
  003f6	ff 10		 call	 DWORD PTR [eax]
$LN1@OnRenderNP:
  003f8	5f		 pop	 edi
  003f9	5e		 pop	 esi
  003fa	5b		 pop	 ebx

; 744  : }

  003fb	c9		 leave
  003fc	c2 08 00	 ret	 8
?OnRenderNPC@TowerDefUserGaugeWnd@@IAEXHH@Z ENDP	; TowerDefUserGaugeWnd::OnRenderNPC
_TEXT	ENDS
PUBLIC	??_C@_0CD@FEKMAPPL@TowerDefUserGaugeWnd?3?3OnRenderBo@ ; `string'
PUBLIC	?OnRenderBoss@TowerDefUserGaugeWnd@@IAEXHH@Z	; TowerDefUserGaugeWnd::OnRenderBoss
;	COMDAT ??_C@_0CD@FEKMAPPL@TowerDefUserGaugeWnd?3?3OnRenderBo@
CONST	SEGMENT
??_C@_0CD@FEKMAPPL@TowerDefUserGaugeWnd?3?3OnRenderBo@ DB 'TowerDefUserGa'
	DB	'ugeWnd::OnRenderBoss', 00H			; `string'
; Function compile flags: /Ogsp
CONST	ENDS
;	COMDAT ?OnRenderBoss@TowerDefUserGaugeWnd@@IAEXHH@Z
_TEXT	SEGMENT
tv503 = -16						; size = 4
tv484 = -16						; size = 4
tv500 = -12						; size = 4
_fAniHPRate$526178 = -12				; size = 4
tv482 = -8						; size = 4
_fHPRate$526174 = -8					; size = 4
_fWidth$526175 = -4					; size = 4
_iXPos$ = 8						; size = 4
_iYPos$ = 12						; size = 4
?OnRenderBoss@TowerDefUserGaugeWnd@@IAEXHH@Z PROC	; TowerDefUserGaugeWnd::OnRenderBoss, COMDAT
; _this$ = ecx

; 747  : {

  00000	55		 push	 ebp
  00001	8b ec		 mov	 ebp, esp
  00003	83 ec 10	 sub	 esp, 16			; 00000010H
  00006	53		 push	 ebx
  00007	56		 push	 esi
  00008	8b d9		 mov	 ebx, ecx

; 748  : 	if( m_pGaugeFrame )

  0000a	33 f6		 xor	 esi, esi
  0000c	57		 push	 edi
  0000d	39 b3 a8 01 00
	00		 cmp	 DWORD PTR [ebx+424], esi
  00013	74 32		 je	 SHORT $LN10@OnRenderBo

; 749  : 		m_pGaugeFrame->Render( iXPos + 37, iYPos + 0 );

  00015	66 0f 6e 45 0c	 movd	 xmm0, DWORD PTR _iYPos$[ebp]
  0001a	8b 83 a8 01 00
	00		 mov	 eax, DWORD PTR [ebx+424]
  00020	8b 10		 mov	 edx, DWORD PTR [eax]
  00022	56		 push	 esi
  00023	56		 push	 esi
  00024	56		 push	 esi
  00025	56		 push	 esi
  00026	51		 push	 ecx
  00027	51		 push	 ecx
  00028	8b 4d 08	 mov	 ecx, DWORD PTR _iXPos$[ebp]
  0002b	0f 5b c0	 cvtdq2ps xmm0, xmm0
  0002e	f3 0f 11 44 24
	04		 movss	 DWORD PTR [esp+4], xmm0
  00034	83 c1 25	 add	 ecx, 37			; 00000025H
  00037	0f 57 c0	 xorps	 xmm0, xmm0
  0003a	f3 0f 2a c1	 cvtsi2ss xmm0, ecx
  0003e	8b c8		 mov	 ecx, eax
  00040	f3 0f 11 04 24	 movss	 DWORD PTR [esp], xmm0
  00045	ff 12		 call	 DWORD PTR [edx]
$LN10@OnRenderBo:

; 750  : 
; 751  : 	if( m_pGauge )

  00047	8b 8b 98 01 00
	00		 mov	 ecx, DWORD PTR [ebx+408]
  0004d	3b ce		 cmp	 ecx, esi
  0004f	0f 84 72 01 00
	00		 je	 $LN12@OnRenderBo

; 752  : 	{
; 753  : 		float fHPRate = m_fCurHP / m_fMaxHP;

  00055	f3 0f 10 83 00
	02 00 00	 movss	 xmm0, DWORD PTR [ebx+512]
  0005d	f3 0f 10 8b fc
	01 00 00	 movss	 xmm1, DWORD PTR [ebx+508]
  00065	0f 5a c0	 cvtps2pd xmm0, xmm0
  00068	0f 5a c9	 cvtps2pd xmm1, xmm1
  0006b	f2 0f 5e c1	 divsd	 xmm0, xmm1
  0006f	66 0f 5a c0	 cvtpd2ps xmm0, xmm0
  00073	f3 0f 11 45 f8	 movss	 DWORD PTR _fHPRate$526174[ebp], xmm0

; 754  : 		float fWidth = m_pGauge->GetWidth() * fHPRate;

  00078	ff 15 00 00 00
	00		 call	 DWORD PTR __imp_?GetWidth@ioUIRenderElement@@QBEHXZ
  0007e	f3 0f 10 4d f8	 movss	 xmm1, DWORD PTR _fHPRate$526174[ebp]

; 755  : 		m_pGauge->RenderWidthCut( iXPos + 39, iYPos + 2, 0, static_cast<int>(fWidth) );

  00083	8b 3d 00 00 00
	00		 mov	 edi, DWORD PTR __imp_?RenderWidthCut@ioUIRenderImage@@QAEXMMHHW4UIRenderType@@W4TextureFilterOption@@0@Z
  00089	0f 57 c0	 xorps	 xmm0, xmm0
  0008c	f3 0f 2a c0	 cvtsi2ss xmm0, eax
  00090	8b 45 0c	 mov	 eax, DWORD PTR _iYPos$[ebp]
  00093	0f 5a c0	 cvtps2pd xmm0, xmm0
  00096	0f 5a c9	 cvtps2pd xmm1, xmm1
  00099	f2 0f 59 c1	 mulsd	 xmm0, xmm1
  0009d	83 c0 02	 add	 eax, 2
  000a0	56		 push	 esi
  000a1	0f 57 d2	 xorps	 xmm2, xmm2
  000a4	66 0f 5a d0	 cvtpd2ps xmm2, xmm0
  000a8	0f 57 c0	 xorps	 xmm0, xmm0
  000ab	f3 0f 2a c0	 cvtsi2ss xmm0, eax
  000af	8b 45 08	 mov	 eax, DWORD PTR _iXPos$[ebp]
  000b2	56		 push	 esi
  000b3	83 c0 27	 add	 eax, 39			; 00000027H
  000b6	56		 push	 esi
  000b7	0f 57 c9	 xorps	 xmm1, xmm1
  000ba	f3 0f 2a c8	 cvtsi2ss xmm1, eax
  000be	f3 0f 2c c2	 cvttss2si eax, xmm2
  000c2	50		 push	 eax
  000c3	56		 push	 esi
  000c4	51		 push	 ecx
  000c5	51		 push	 ecx
  000c6	8b 8b 98 01 00
	00		 mov	 ecx, DWORD PTR [ebx+408]
  000cc	f3 0f 11 44 24
	04		 movss	 DWORD PTR [esp+4], xmm0
  000d2	f3 0f 11 55 fc	 movss	 DWORD PTR _fWidth$526175[ebp], xmm2
  000d7	f3 0f 11 45 f8	 movss	 DWORD PTR tv482[ebp], xmm0
  000dc	f3 0f 11 4d f0	 movss	 DWORD PTR tv484[ebp], xmm1
  000e1	f3 0f 11 0c 24	 movss	 DWORD PTR [esp], xmm1
  000e6	ff d7		 call	 edi

; 756  : 
; 757  : 		if( m_fAniHP > m_fCurHP )

  000e8	f3 0f 10 83 04
	02 00 00	 movss	 xmm0, DWORD PTR [ebx+516]
  000f0	f3 0f 10 93 00
	02 00 00	 movss	 xmm2, DWORD PTR [ebx+512]
  000f8	0f 57 c9	 xorps	 xmm1, xmm1
  000fb	0f 5a c8	 cvtps2pd xmm1, xmm0
  000fe	0f 5a d2	 cvtps2pd xmm2, xmm2
  00101	66 0f 2f ca	 comisd	 xmm1, xmm2
  00105	0f 86 bc 00 00
	00		 jbe	 $LN12@OnRenderBo

; 758  : 		{
; 759  : 			float fAniHPRate = m_fAniHP / m_fMaxHP;

  0010b	f3 0f 10 8b fc
	01 00 00	 movss	 xmm1, DWORD PTR [ebx+508]

; 760  : 			float fAniWidth = m_pGauge->GetWidth() * fAniHPRate;

  00113	8b 8b 98 01 00
	00		 mov	 ecx, DWORD PTR [ebx+408]
  00119	0f 5a c0	 cvtps2pd xmm0, xmm0
  0011c	0f 5a c9	 cvtps2pd xmm1, xmm1
  0011f	f2 0f 5e c1	 divsd	 xmm0, xmm1
  00123	66 0f 5a c0	 cvtpd2ps xmm0, xmm0
  00127	f3 0f 11 45 f4	 movss	 DWORD PTR _fAniHPRate$526178[ebp], xmm0
  0012c	ff 15 00 00 00
	00		 call	 DWORD PTR __imp_?GetWidth@ioUIRenderElement@@QBEHXZ
  00132	f3 0f 10 4d f4	 movss	 xmm1, DWORD PTR _fAniHPRate$526178[ebp]
  00137	0f 57 c0	 xorps	 xmm0, xmm0
  0013a	f3 0f 2a c0	 cvtsi2ss xmm0, eax
  0013e	0f 5a c0	 cvtps2pd xmm0, xmm0
  00141	0f 5a c9	 cvtps2pd xmm1, xmm1
  00144	f2 0f 59 c1	 mulsd	 xmm0, xmm1

; 761  : 			// Screen x 2
; 762  : 			m_pGauge->RenderWidthCut( iXPos + 39 + fWidth, iYPos + 2, 0, static_cast<int>(fAniWidth - fWidth), UI_RENDER_SCREEN );

  00148	f3 0f 10 4d fc	 movss	 xmm1, DWORD PTR _fWidth$526175[ebp]
  0014d	56		 push	 esi
  0014e	66 0f 5a c0	 cvtpd2ps xmm0, xmm0
  00152	56		 push	 esi
  00153	f3 0f 5a c0	 cvtss2sd xmm0, xmm0
  00157	0f 5a c9	 cvtps2pd xmm1, xmm1
  0015a	f2 0f 5c c1	 subsd	 xmm0, xmm1
  0015e	f3 0f 10 4d fc	 movss	 xmm1, DWORD PTR _fWidth$526175[ebp]
  00163	f2 0f 2c c0	 cvttsd2si eax, xmm0
  00167	f3 0f 10 45 f0	 movss	 xmm0, DWORD PTR tv484[ebp]
  0016c	6a 01		 push	 1
  0016e	50		 push	 eax
  0016f	56		 push	 esi
  00170	51		 push	 ecx
  00171	0f 5a c0	 cvtps2pd xmm0, xmm0
  00174	0f 5a c9	 cvtps2pd xmm1, xmm1
  00177	51		 push	 ecx
  00178	8b 8b 98 01 00
	00		 mov	 ecx, DWORD PTR [ebx+408]
  0017e	f2 0f 58 c1	 addsd	 xmm0, xmm1
  00182	f3 0f 10 4d f8	 movss	 xmm1, DWORD PTR tv482[ebp]
  00187	f2 0f 5a c0	 cvtsd2ss xmm0, xmm0
  0018b	f3 0f 11 4c 24
	04		 movss	 DWORD PTR [esp+4], xmm1
  00191	89 45 f4	 mov	 DWORD PTR tv500[ebp], eax
  00194	f3 0f 11 45 f0	 movss	 DWORD PTR tv503[ebp], xmm0
  00199	f3 0f 11 04 24	 movss	 DWORD PTR [esp], xmm0
  0019e	ff d7		 call	 edi

; 763  : 			m_pGauge->RenderWidthCut( iXPos + 39 + fWidth, iYPos + 2, 0, static_cast<int>(fAniWidth - fWidth), UI_RENDER_SCREEN );

  001a0	f3 0f 10 45 f8	 movss	 xmm0, DWORD PTR tv482[ebp]
  001a5	56		 push	 esi
  001a6	56		 push	 esi
  001a7	6a 01		 push	 1
  001a9	ff 75 f4	 push	 DWORD PTR tv500[ebp]
  001ac	56		 push	 esi
  001ad	51		 push	 ecx
  001ae	51		 push	 ecx
  001af	8b 8b 98 01 00
	00		 mov	 ecx, DWORD PTR [ebx+408]
  001b5	f3 0f 11 44 24
	04		 movss	 DWORD PTR [esp+4], xmm0
  001bb	f3 0f 10 45 f0	 movss	 xmm0, DWORD PTR tv503[ebp]
  001c0	f3 0f 11 04 24	 movss	 DWORD PTR [esp], xmm0
  001c5	ff d7		 call	 edi
$LN12@OnRenderBo:

; 764  : 		}
; 765  : 	}
; 766  : 
; 767  : 	if( m_pGaugeFrameOver )

  001c7	39 b3 ac 01 00
	00		 cmp	 DWORD PTR [ebx+428], esi
  001cd	74 31		 je	 SHORT $LN4@OnRenderBo

; 768  : 		m_pGaugeFrameOver->Render( iXPos + 37, iYPos + 0, UI_RENDER_ADD );

  001cf	8b 8b ac 01 00
	00		 mov	 ecx, DWORD PTR [ebx+428]
  001d5	66 0f 6e 45 0c	 movd	 xmm0, DWORD PTR _iYPos$[ebp]
  001da	8b 55 08	 mov	 edx, DWORD PTR _iXPos$[ebp]
  001dd	8b 01		 mov	 eax, DWORD PTR [ecx]
  001df	56		 push	 esi
  001e0	56		 push	 esi
  001e1	56		 push	 esi
  001e2	6a 03		 push	 3
  001e4	51		 push	 ecx
  001e5	0f 5b c0	 cvtdq2ps xmm0, xmm0
  001e8	51		 push	 ecx
  001e9	f3 0f 11 44 24
	04		 movss	 DWORD PTR [esp+4], xmm0
  001ef	83 c2 25	 add	 edx, 37			; 00000025H
  001f2	0f 57 c0	 xorps	 xmm0, xmm0
  001f5	f3 0f 2a c2	 cvtsi2ss xmm0, edx
  001f9	f3 0f 11 04 24	 movss	 DWORD PTR [esp], xmm0
  001fe	ff 10		 call	 DWORD PTR [eax]
$LN4@OnRenderBo:

; 769  : 
; 770  : 	float fNameWidth = 200.0f;
; 771  : 	g_FontMgr.SetAlignType( TAT_LEFT );

  00200	56		 push	 esi
  00201	8b 35 00 00 00
	00		 mov	 esi, DWORD PTR __imp_?GetSingleton@ioFontManager@@SAAAV1@XZ
  00207	ff d6		 call	 esi
  00209	8b c8		 mov	 ecx, eax
  0020b	ff 15 00 00 00
	00		 call	 DWORD PTR __imp_?SetAlignType@ioFontManager@@QAEXW4TextAlignType@@@Z

; 772  : 	g_FontMgr.SetTextStyle( TS_OUTLINE_FULL_2X );

  00211	6a 05		 push	 5
  00213	ff d6		 call	 esi
  00215	8b c8		 mov	 ecx, eax
  00217	ff 15 00 00 00
	00		 call	 DWORD PTR __imp_?SetTextStyle@ioFontManager@@QAEXW4TextStyle@@@Z

; 773  : 	g_FontMgr.SetTextColor( 255, 255, 255);

  0021d	bf ff 00 00 00	 mov	 edi, 255		; 000000ffH
  00222	57		 push	 edi
  00223	57		 push	 edi
  00224	57		 push	 edi
  00225	ff d6		 call	 esi
  00227	8b c8		 mov	 ecx, eax
  00229	ff 15 00 00 00
	00		 call	 DWORD PTR __imp_?SetTextColor@ioFontManager@@QAEXHHH@Z

; 774  : 	g_FontMgr.SetBkColor( 0, 0, 0 );

  0022f	33 c0		 xor	 eax, eax
  00231	50		 push	 eax
  00232	50		 push	 eax
  00233	50		 push	 eax
  00234	ff d6		 call	 esi
  00236	8b c8		 mov	 ecx, eax
  00238	ff 15 00 00 00
	00		 call	 DWORD PTR __imp_?SetBkColor@ioFontManager@@QAEXHHH@Z

; 775  : 	g_FontMgr.PrintTextWidthCut( iXPos + 40, iYPos + 3, FONT_SIZE_12, fNameWidth, STR(3), m_szShowName.c_str() );

  0023e	8d 8b 28 02 00
	00		 lea	 ecx, DWORD PTR [ebx+552]
  00244	ff 15 00 00 00
	00		 call	 DWORD PTR __imp_?c_str@ioHashString@@QBEPBDXZ
  0024a	50		 push	 eax
  0024b	6a 00		 push	 0
  0024d	6a 03		 push	 3
  0024f	68 00 00 00 00	 push	 OFFSET ??_C@_00CNPNBAHC@?$AA@
  00254	68 00 00 00 00	 push	 OFFSET ??_C@_0CD@FEKMAPPL@TowerDefUserGaugeWnd?3?3OnRenderBo@
  00259	ff 15 00 00 00
	00		 call	 DWORD PTR __imp_?GetSingleton@ioStringManager@@SAAAV1@XZ
  0025f	8b c8		 mov	 ecx, eax
  00261	ff 15 00 00 00
	00		 call	 DWORD PTR __imp_?GetString@ioStringManager@@QAEPADPBD0HW4FileNamePrefix@1@@Z
  00267	f3 0f 10 05 00
	00 00 00	 movss	 xmm0, DWORD PTR __real@43480000
  0026f	50		 push	 eax
  00270	8b 45 0c	 mov	 eax, DWORD PTR _iYPos$[ebp]
  00273	83 ec 10	 sub	 esp, 16			; 00000010H
  00276	f3 0f 11 44 24
	0c		 movss	 DWORD PTR [esp+12], xmm0
  0027c	f3 0f 10 05 00
	00 00 00	 movss	 xmm0, DWORD PTR __real@3f19999a
  00284	f3 0f 11 44 24
	08		 movss	 DWORD PTR [esp+8], xmm0
  0028a	83 c0 03	 add	 eax, 3
  0028d	0f 57 c0	 xorps	 xmm0, xmm0
  00290	f3 0f 2a c0	 cvtsi2ss xmm0, eax
  00294	8b 45 08	 mov	 eax, DWORD PTR _iXPos$[ebp]
  00297	f3 0f 11 44 24
	04		 movss	 DWORD PTR [esp+4], xmm0
  0029d	83 c0 28	 add	 eax, 40			; 00000028H
  002a0	0f 57 c0	 xorps	 xmm0, xmm0
  002a3	f3 0f 2a c0	 cvtsi2ss xmm0, eax
  002a7	f3 0f 11 04 24	 movss	 DWORD PTR [esp], xmm0
  002ac	ff d6		 call	 esi
  002ae	8b c8		 mov	 ecx, eax
  002b0	ff 15 00 00 00
	00		 call	 DWORD PTR __imp_?PrintTextWidthCut@ioFontManager@@QAEXMMMMPBD0@Z

; 776  : 
; 777  : 	g_FontMgr.SetTextStyle( TS_NORMAL );

  002b6	6a 00		 push	 0
  002b8	ff d6		 call	 esi
  002ba	8b c8		 mov	 ecx, eax
  002bc	ff 15 00 00 00
	00		 call	 DWORD PTR __imp_?SetTextStyle@ioFontManager@@QAEXW4TextStyle@@@Z

; 778  : 	g_FontMgr.SetTextColor( 255, 255, 255);

  002c2	57		 push	 edi
  002c3	57		 push	 edi
  002c4	57		 push	 edi
  002c5	ff d6		 call	 esi
  002c7	8b c8		 mov	 ecx, eax
  002c9	ff 15 00 00 00
	00		 call	 DWORD PTR __imp_?SetTextColor@ioFontManager@@QAEXHHH@Z

; 779  : 	g_FontMgr.PrintTextAlpha( iXPos + 42, iYPos + 22, FONT_SIZE_12, 176, STR(4), m_nLevel+1);

  002cf	8b 83 38 02 00
	00		 mov	 eax, DWORD PTR [ebx+568]
  002d5	40		 inc	 eax
  002d6	50		 push	 eax
  002d7	33 ff		 xor	 edi, edi
  002d9	57		 push	 edi
  002da	6a 04		 push	 4
  002dc	68 00 00 00 00	 push	 OFFSET ??_C@_00CNPNBAHC@?$AA@
  002e1	68 00 00 00 00	 push	 OFFSET ??_C@_0CD@FEKMAPPL@TowerDefUserGaugeWnd?3?3OnRenderBo@
  002e6	ff 15 00 00 00
	00		 call	 DWORD PTR __imp_?GetSingleton@ioStringManager@@SAAAV1@XZ
  002ec	8b c8		 mov	 ecx, eax
  002ee	ff 15 00 00 00
	00		 call	 DWORD PTR __imp_?GetString@ioStringManager@@QAEPADPBD0HW4FileNamePrefix@1@@Z
  002f4	f3 0f 10 05 00
	00 00 00	 movss	 xmm0, DWORD PTR __real@3f19999a
  002fc	50		 push	 eax
  002fd	8b 45 0c	 mov	 eax, DWORD PTR _iYPos$[ebp]
  00300	68 b0 00 00 00	 push	 176			; 000000b0H
  00305	83 ec 0c	 sub	 esp, 12			; 0000000cH
  00308	f3 0f 11 44 24
	08		 movss	 DWORD PTR [esp+8], xmm0
  0030e	83 c0 16	 add	 eax, 22			; 00000016H
  00311	0f 57 c0	 xorps	 xmm0, xmm0
  00314	f3 0f 2a c0	 cvtsi2ss xmm0, eax
  00318	8b 45 08	 mov	 eax, DWORD PTR _iXPos$[ebp]
  0031b	f3 0f 11 44 24
	04		 movss	 DWORD PTR [esp+4], xmm0
  00321	83 c0 2a	 add	 eax, 42			; 0000002aH
  00324	0f 57 c0	 xorps	 xmm0, xmm0
  00327	f3 0f 2a c0	 cvtsi2ss xmm0, eax
  0032b	f3 0f 11 04 24	 movss	 DWORD PTR [esp], xmm0
  00330	ff d6		 call	 esi
  00332	8b c8		 mov	 ecx, eax
  00334	ff 15 00 00 00
	00		 call	 DWORD PTR __imp_?PrintTextAlpha@ioFontManager@@QAEXMMMEPBDH@Z

; 780  : 
; 781  : 	if( m_pPotrait[IMG_POTRAIT_BACK] )

  0033a	39 bb 90 01 00
	00		 cmp	 DWORD PTR [ebx+400], edi
  00340	74 2d		 je	 SHORT $LN11@OnRenderBo

; 782  : 		m_pPotrait[IMG_POTRAIT_BACK]->Render(iXPos, iYPos );

  00342	66 0f 6e 45 0c	 movd	 xmm0, DWORD PTR _iYPos$[ebp]
  00347	8b 83 90 01 00
	00		 mov	 eax, DWORD PTR [ebx+400]
  0034d	8b 10		 mov	 edx, DWORD PTR [eax]
  0034f	57		 push	 edi
  00350	57		 push	 edi
  00351	57		 push	 edi
  00352	57		 push	 edi
  00353	51		 push	 ecx
  00354	51		 push	 ecx
  00355	0f 5b c0	 cvtdq2ps xmm0, xmm0
  00358	f3 0f 11 44 24
	04		 movss	 DWORD PTR [esp+4], xmm0
  0035e	66 0f 6e 45 08	 movd	 xmm0, DWORD PTR _iXPos$[ebp]
  00363	0f 5b c0	 cvtdq2ps xmm0, xmm0
  00366	8b c8		 mov	 ecx, eax
  00368	f3 0f 11 04 24	 movss	 DWORD PTR [esp], xmm0
  0036d	ff 12		 call	 DWORD PTR [edx]
$LN11@OnRenderBo:

; 783  : 
; 784  : 	if( m_pNpcFace )

  0036f	39 bb 9c 01 00
	00		 cmp	 DWORD PTR [ebx+412], edi
  00375	74 35		 je	 SHORT $LN13@OnRenderBo

; 785  : 		m_pNpcFace->Render(iXPos+2, iYPos+2);

  00377	8b 8b 9c 01 00
	00		 mov	 ecx, DWORD PTR [ebx+412]
  0037d	8b 55 0c	 mov	 edx, DWORD PTR _iYPos$[ebp]
  00380	8b 01		 mov	 eax, DWORD PTR [ecx]
  00382	57		 push	 edi
  00383	57		 push	 edi
  00384	57		 push	 edi
  00385	57		 push	 edi
  00386	83 c2 02	 add	 edx, 2
  00389	0f 57 c0	 xorps	 xmm0, xmm0
  0038c	f3 0f 2a c2	 cvtsi2ss xmm0, edx
  00390	8b 55 08	 mov	 edx, DWORD PTR _iXPos$[ebp]
  00393	51		 push	 ecx
  00394	51		 push	 ecx
  00395	f3 0f 11 44 24
	04		 movss	 DWORD PTR [esp+4], xmm0
  0039b	83 c2 02	 add	 edx, 2
  0039e	0f 57 c0	 xorps	 xmm0, xmm0
  003a1	f3 0f 2a c2	 cvtsi2ss xmm0, edx
  003a5	f3 0f 11 04 24	 movss	 DWORD PTR [esp], xmm0
  003aa	ff 10		 call	 DWORD PTR [eax]
$LN13@OnRenderBo:

; 786  : 
; 787  : 	if( m_pPotrait[IMG_POTRAIT_OVERBACK] )

  003ac	39 bb 94 01 00
	00		 cmp	 DWORD PTR [ebx+404], edi
  003b2	74 2c		 je	 SHORT $LN1@OnRenderBo

; 788  : 		m_pPotrait[IMG_POTRAIT_OVERBACK]->Render(iXPos, iYPos, UI_RENDER_ADD );

  003b4	8b 8b 94 01 00
	00		 mov	 ecx, DWORD PTR [ebx+404]
  003ba	66 0f 6e 45 0c	 movd	 xmm0, DWORD PTR _iYPos$[ebp]
  003bf	8b 01		 mov	 eax, DWORD PTR [ecx]
  003c1	57		 push	 edi
  003c2	57		 push	 edi
  003c3	57		 push	 edi
  003c4	6a 03		 push	 3
  003c6	51		 push	 ecx
  003c7	0f 5b c0	 cvtdq2ps xmm0, xmm0
  003ca	51		 push	 ecx
  003cb	f3 0f 11 44 24
	04		 movss	 DWORD PTR [esp+4], xmm0
  003d1	66 0f 6e 45 08	 movd	 xmm0, DWORD PTR _iXPos$[ebp]
  003d6	0f 5b c0	 cvtdq2ps xmm0, xmm0
  003d9	f3 0f 11 04 24	 movss	 DWORD PTR [esp], xmm0
  003de	ff 10		 call	 DWORD PTR [eax]
$LN1@OnRenderBo:
  003e0	5f		 pop	 edi
  003e1	5e		 pop	 esi
  003e2	5b		 pop	 ebx

; 789  : }

  003e3	c9		 leave
  003e4	c2 08 00	 ret	 8
?OnRenderBoss@TowerDefUserGaugeWnd@@IAEXHH@Z ENDP	; TowerDefUserGaugeWnd::OnRenderBoss
_TEXT	ENDS
PUBLIC	?UpdateGauge@TowerDefUserGaugeWnd@@QAEXMMH@Z	; TowerDefUserGaugeWnd::UpdateGauge
EXTRN	__imp_?HideWnd@ioWnd@@QAEXXZ:PROC
; Function compile flags: /Ogsp
;	COMDAT ?UpdateGauge@TowerDefUserGaugeWnd@@QAEXMMH@Z
_TEXT	SEGMENT
tv193 = 8						; size = 4
_fCurHP$ = 8						; size = 4
_fMaxHP$ = 12						; size = 4
_nInstantLv$ = 16					; size = 4
?UpdateGauge@TowerDefUserGaugeWnd@@QAEXMMH@Z PROC	; TowerDefUserGaugeWnd::UpdateGauge, COMDAT
; _this$ = ecx

; 860  : {

  00000	55		 push	 ebp
  00001	8b ec		 mov	 ebp, esp

; 861  : 	float fPrevHP = m_fCurHP;
; 862  : 	m_fCurHP = fCurHP;
; 863  : 	m_fMaxHP = fMaxHP;
; 864  : 
; 865  : 	if( m_fAniHP == 0.0f && m_fCurHP > 0.0f )

  00003	0f 57 c9	 xorps	 xmm1, xmm1
  00006	f3 0f 10 45 08	 movss	 xmm0, DWORD PTR _fCurHP$[ebp]
  0000b	f3 0f 10 5d 0c	 movss	 xmm3, DWORD PTR _fMaxHP$[ebp]
  00010	56		 push	 esi
  00011	8b f1		 mov	 esi, ecx
  00013	f3 0f 10 a6 04
	02 00 00	 movss	 xmm4, DWORD PTR [esi+516]
  0001b	f3 0f 10 96 00
	02 00 00	 movss	 xmm2, DWORD PTR [esi+512]
  00023	0f 2e e1	 ucomiss xmm4, xmm1
  00026	9f		 lahf
  00027	f3 0f 11 86 00
	02 00 00	 movss	 DWORD PTR [esi+512], xmm0
  0002f	f3 0f 11 9e fc
	01 00 00	 movss	 DWORD PTR [esi+508], xmm3
  00037	f6 c4 44	 test	 ah, 68			; 00000044H
  0003a	7a 0f		 jp	 SHORT $LN7@UpdateGaug@2
  0003c	0f 2f c1	 comiss	 xmm0, xmm1
  0003f	76 0a		 jbe	 SHORT $LN7@UpdateGaug@2

; 866  : 	{	
; 867  : 		m_fAniHP = fMaxHP;

  00041	f3 0f 11 9e 04
	02 00 00	 movss	 DWORD PTR [esi+516], xmm3
  00049	eb 48		 jmp	 SHORT $LN5@UpdateGaug@2
$LN7@UpdateGaug@2:

; 868  : 	}
; 869  : 	else if( fPrevHP != m_fCurHP )

  0004b	0f 5a ca	 cvtps2pd xmm1, xmm2
  0004e	0f 5a d8	 cvtps2pd xmm3, xmm0
  00051	66 0f 2e cb	 ucomisd xmm1, xmm3
  00055	9f		 lahf
  00056	f6 c4 44	 test	 ah, 68			; 00000044H
  00059	7b 38		 jnp	 SHORT $LN5@UpdateGaug@2

; 870  : 	{
; 871  : 		if( m_fCurHP > fPrevHP)

  0005b	0f 5a c8	 cvtps2pd xmm1, xmm0
  0005e	0f 5a d2	 cvtps2pd xmm2, xmm2
  00061	66 0f 2f ca	 comisd	 xmm1, xmm2
  00065	76 08		 jbe	 SHORT $LN4@UpdateGaug@2

; 872  : 			m_fAniHP = m_fCurHP;

  00067	f3 0f 11 86 04
	02 00 00	 movss	 DWORD PTR [esi+516], xmm0
$LN4@UpdateGaug@2:

; 873  : 
; 874  : 		m_fCurAniTime = FRAMEGETTIME();

  0006f	ff 15 00 00 00
	00		 call	 DWORD PTR __imp_?GetSingleton@ioFrameTimer@@SAAAV1@XZ
  00075	8b c8		 mov	 ecx, eax
  00077	ff 15 00 00 00
	00		 call	 DWORD PTR __imp_?GetLoopSec@ioFrameTimer@@QBEKXZ
  0007d	89 45 08	 mov	 DWORD PTR tv193[ebp], eax
  00080	db 45 08	 fild	 DWORD PTR tv193[ebp]
  00083	85 c0		 test	 eax, eax
  00085	79 06		 jns	 SHORT $LN10@UpdateGaug@2
  00087	d8 05 00 00 00
	00		 fadd	 DWORD PTR __real@4f800000
$LN10@UpdateGaug@2:
  0008d	d9 9e 0c 02 00
	00		 fstp	 DWORD PTR [esi+524]
$LN5@UpdateGaug@2:

; 875  : 	}
; 876  : 
; 877  : 	m_nLevel = nInstantLv;
; 878  : 	if(m_eGaugeType != TowerDefWnd::GAUGE_USER)

  00093	83 be e8 01 00
	00 00		 cmp	 DWORD PTR [esi+488], 0
  0009a	8b 45 10	 mov	 eax, DWORD PTR _nInstantLv$[ebp]
  0009d	89 86 38 02 00
	00		 mov	 DWORD PTR [esi+568], eax
  000a3	74 39		 je	 SHORT $LN1@UpdateGaug@2

; 879  : 	{
; 880  : 		if(IsShow())

  000a5	8b ce		 mov	 ecx, esi
  000a7	ff 15 00 00 00
	00		 call	 DWORD PTR __imp_?IsShow@ioWnd@@QBE_NXZ
  000ad	84 c0		 test	 al, al
  000af	74 2d		 je	 SHORT $LN1@UpdateGaug@2

; 881  : 		{
; 882  : 			if( m_fCurHP == 0 && m_fAniHP == 0 )

  000b1	f3 0f 10 8e 00
	02 00 00	 movss	 xmm1, DWORD PTR [esi+512]
  000b9	0f 57 c0	 xorps	 xmm0, xmm0
  000bc	0f 2e c8	 ucomiss xmm1, xmm0
  000bf	9f		 lahf
  000c0	f6 c4 44	 test	 ah, 68			; 00000044H
  000c3	7a 19		 jp	 SHORT $LN1@UpdateGaug@2
  000c5	f3 0f 10 8e 04
	02 00 00	 movss	 xmm1, DWORD PTR [esi+516]
  000cd	0f 2e c8	 ucomiss xmm1, xmm0
  000d0	9f		 lahf
  000d1	f6 c4 44	 test	 ah, 68			; 00000044H
  000d4	7a 08		 jp	 SHORT $LN1@UpdateGaug@2

; 883  : 				HideWnd();

  000d6	8b ce		 mov	 ecx, esi
  000d8	ff 15 00 00 00
	00		 call	 DWORD PTR __imp_?HideWnd@ioWnd@@QAEXXZ
$LN1@UpdateGaug@2:
  000de	5e		 pop	 esi

; 884  : 		}
; 885  : 		
; 886  : 	}
; 887  : }

  000df	5d		 pop	 ebp
  000e0	c2 0c 00	 ret	 12			; 0000000cH
?UpdateGauge@TowerDefUserGaugeWnd@@QAEXMMH@Z ENDP	; TowerDefUserGaugeWnd::UpdateGauge
_TEXT	ENDS
PUBLIC	?SetBlindOffSet@TowerDefUserGaugeWnd@@QAEXH@Z	; TowerDefUserGaugeWnd::SetBlindOffSet
; Function compile flags: /Ogsp
;	COMDAT ?SetBlindOffSet@TowerDefUserGaugeWnd@@QAEXH@Z
_TEXT	SEGMENT
_iYOffSet$ = 8						; size = 4
?SetBlindOffSet@TowerDefUserGaugeWnd@@QAEXH@Z PROC	; TowerDefUserGaugeWnd::SetBlindOffSet, COMDAT
; _this$ = ecx

; 890  : {

  00000	55		 push	 ebp
  00001	8b ec		 mov	 ebp, esp

; 891  : 	m_iBlindOffSetY = iYOffSet;

  00003	8b 45 08	 mov	 eax, DWORD PTR _iYOffSet$[ebp]
  00006	89 81 d8 01 00
	00		 mov	 DWORD PTR [ecx+472], eax

; 892  : }

  0000c	5d		 pop	 ebp
  0000d	c2 04 00	 ret	 4
?SetBlindOffSet@TowerDefUserGaugeWnd@@QAEXH@Z ENDP	; TowerDefUserGaugeWnd::SetBlindOffSet
_TEXT	ENDS
PUBLIC	?InitAniState@TowerDefUserGaugeWnd@@QAEXXZ	; TowerDefUserGaugeWnd::InitAniState
EXTRN	?SetCurState@FSMStateMgr@@QAEXH@Z:PROC		; FSMStateMgr::SetCurState
; Function compile flags: /Ogsp
;	COMDAT ?InitAniState@TowerDefUserGaugeWnd@@QAEXXZ
_TEXT	SEGMENT
?InitAniState@TowerDefUserGaugeWnd@@QAEXXZ PROC		; TowerDefUserGaugeWnd::InitAniState, COMDAT
; _this$ = ecx

; 896  : 	m_ShowAniState.SetCurState( SAT_NONE );

  00000	6a 00		 push	 0
  00002	81 c1 b0 01 00
	00		 add	 ecx, 432		; 000001b0H
  00008	e8 00 00 00 00	 call	 ?SetCurState@FSMStateMgr@@QAEXH@Z ; FSMStateMgr::SetCurState

; 897  : }

  0000d	c3		 ret	 0
?InitAniState@TowerDefUserGaugeWnd@@QAEXXZ ENDP		; TowerDefUserGaugeWnd::InitAniState
_TEXT	ENDS
PUBLIC	?InitShowAniState@TowerDefUserGaugeWnd@@IAEXXZ	; TowerDefUserGaugeWnd::InitShowAniState
EXTRN	?Add@FSMStateMgr@@QAEXPAVFSMState@@@Z:PROC	; FSMStateMgr::Add
EXTRN	?Add@FSMState@@QAEXHHH@Z:PROC			; FSMState::Add
EXTRN	??0FSMState@@QAE@H@Z:PROC			; FSMState::FSMState
;	COMDAT xdata$x
xdata$x	SEGMENT
__ehfuncinfo$?InitShowAniState@TowerDefUserGaugeWnd@@IAEXXZ DD 019930522H
	DD	08H
	DD	FLAT:__unwindtable$?InitShowAniState@TowerDefUserGaugeWnd@@IAEXXZ
	DD	2 DUP(00H)
	DD	2 DUP(00H)
	DD	00H
	DD	01H
__unwindtable$?InitShowAniState@TowerDefUserGaugeWnd@@IAEXXZ DD 0ffffffffH
	DD	FLAT:__unwindfunclet$?InitShowAniState@TowerDefUserGaugeWnd@@IAEXXZ$0
	DD	0ffffffffH
	DD	FLAT:__unwindfunclet$?InitShowAniState@TowerDefUserGaugeWnd@@IAEXXZ$1
	DD	0ffffffffH
	DD	FLAT:__unwindfunclet$?InitShowAniState@TowerDefUserGaugeWnd@@IAEXXZ$2
	DD	0ffffffffH
	DD	FLAT:__unwindfunclet$?InitShowAniState@TowerDefUserGaugeWnd@@IAEXXZ$3
	DD	0ffffffffH
	DD	FLAT:__unwindfunclet$?InitShowAniState@TowerDefUserGaugeWnd@@IAEXXZ$4
	DD	0ffffffffH
	DD	FLAT:__unwindfunclet$?InitShowAniState@TowerDefUserGaugeWnd@@IAEXXZ$5
	DD	0ffffffffH
	DD	FLAT:__unwindfunclet$?InitShowAniState@TowerDefUserGaugeWnd@@IAEXXZ$6
	DD	0ffffffffH
	DD	FLAT:__unwindfunclet$?InitShowAniState@TowerDefUserGaugeWnd@@IAEXXZ$7
; Function compile flags: /Ogsp
xdata$x	ENDS
;	COMDAT ?InitShowAniState@TowerDefUserGaugeWnd@@IAEXXZ
_TEXT	SEGMENT
$T528630 = -20						; size = 4
$T528626 = -20						; size = 4
$T528622 = -20						; size = 4
$T528618 = -20						; size = 4
$T528614 = -20						; size = 4
$T528610 = -20						; size = 4
$T528606 = -20						; size = 4
$T528602 = -20						; size = 4
tv256 = -16						; size = 4
__$EHRec$ = -12						; size = 12
?InitShowAniState@TowerDefUserGaugeWnd@@IAEXXZ PROC	; TowerDefUserGaugeWnd::InitShowAniState, COMDAT
; _this$ = ecx

; 900  : {

  00000	6a 08		 push	 8
  00002	b8 00 00 00 00	 mov	 eax, __ehhandler$?InitShowAniState@TowerDefUserGaugeWnd@@IAEXXZ
  00007	e8 00 00 00 00	 call	 __EH_prolog3

; 901  : 	enum { DELAY_DELAY = 165, DELAY_UP = 198, DELAY_DOWN = 66, DELAY_UP_STOP = 66, };
; 902  : 
; 903  : 	m_ShowAniState.SetCurState( SAT_NONE );

  0000c	81 c1 b0 01 00
	00		 add	 ecx, 432		; 000001b0H
  00012	33 db		 xor	 ebx, ebx
  00014	53		 push	 ebx
  00015	89 4d f0	 mov	 DWORD PTR tv256[ebp], ecx
  00018	e8 00 00 00 00	 call	 ?SetCurState@FSMStateMgr@@QAEXH@Z ; FSMStateMgr::SetCurState

; 904  : 
; 905  : 	FSMState *pState = new FSMState(SAT_NONE);

  0001d	6a 38		 push	 56			; 00000038H
  0001f	e8 00 00 00 00	 call	 ??2@YAPAXI@Z		; operator new
  00024	59		 pop	 ecx
  00025	89 45 ec	 mov	 DWORD PTR $T528602[ebp], eax
  00028	89 5d fc	 mov	 DWORD PTR __$EHRec$[ebp+8], ebx
  0002b	3b c3		 cmp	 eax, ebx
  0002d	74 0c		 je	 SHORT $LN11@InitShowAn
  0002f	53		 push	 ebx
  00030	8b c8		 mov	 ecx, eax
  00032	e8 00 00 00 00	 call	 ??0FSMState@@QAE@H@Z	; FSMState::FSMState
  00037	8b f0		 mov	 esi, eax
  00039	eb 02		 jmp	 SHORT $LN12@InitShowAn
$LN11@InitShowAn:
  0003b	33 f6		 xor	 esi, esi
$LN12@InitShowAn:
  0003d	83 4d fc ff	 or	 DWORD PTR __$EHRec$[ebp+8], -1

; 906  : 	if( pState )

  00041	6a 02		 push	 2
  00043	5f		 pop	 edi
  00044	3b f3		 cmp	 esi, ebx
  00046	74 25		 je	 SHORT $LN8@InitShowAn

; 907  : 	{
; 908  : 		pState->Add( SAT_DELAY,  SAT_DELAY );

  00048	6a ff		 push	 -1
  0004a	57		 push	 edi
  0004b	57		 push	 edi
  0004c	8b ce		 mov	 ecx, esi
  0004e	e8 00 00 00 00	 call	 ?Add@FSMState@@QAEXHHH@Z ; FSMState::Add

; 909  : 		pState->Add( SAT_START_ROUND, SAT_START_ROUND );

  00053	6a ff		 push	 -1
  00055	6a 01		 push	 1
  00057	6a 01		 push	 1
  00059	8b ce		 mov	 ecx, esi
  0005b	e8 00 00 00 00	 call	 ?Add@FSMState@@QAEXHHH@Z ; FSMState::Add

; 910  : 		pState->Add( SAT_END,  SAT_END );

  00060	6a ff		 push	 -1
  00062	6a 07		 push	 7
  00064	6a 07		 push	 7
  00066	8b ce		 mov	 ecx, esi
  00068	e8 00 00 00 00	 call	 ?Add@FSMState@@QAEXHHH@Z ; FSMState::Add
$LN8@InitShowAn:

; 911  : 	}
; 912  : 	m_ShowAniState.Add( pState );

  0006d	8b 4d f0	 mov	 ecx, DWORD PTR tv256[ebp]
  00070	56		 push	 esi
  00071	e8 00 00 00 00	 call	 ?Add@FSMStateMgr@@QAEXPAVFSMState@@@Z ; FSMStateMgr::Add

; 913  : 
; 914  : 	pState = new FSMState(SAT_START_ROUND);

  00076	6a 38		 push	 56			; 00000038H
  00078	e8 00 00 00 00	 call	 ??2@YAPAXI@Z		; operator new
  0007d	59		 pop	 ecx
  0007e	89 45 ec	 mov	 DWORD PTR $T528606[ebp], eax
  00081	33 c9		 xor	 ecx, ecx
  00083	41		 inc	 ecx
  00084	89 4d fc	 mov	 DWORD PTR __$EHRec$[ebp+8], ecx
  00087	3b c3		 cmp	 eax, ebx
  00089	74 0c		 je	 SHORT $LN13@InitShowAn
  0008b	51		 push	 ecx
  0008c	8b c8		 mov	 ecx, eax
  0008e	e8 00 00 00 00	 call	 ??0FSMState@@QAE@H@Z	; FSMState::FSMState
  00093	8b f0		 mov	 esi, eax
  00095	eb 02		 jmp	 SHORT $LN14@InitShowAn
$LN13@InitShowAn:
  00097	33 f6		 xor	 esi, esi
$LN14@InitShowAn:
  00099	83 4d fc ff	 or	 DWORD PTR __$EHRec$[ebp+8], -1

; 915  : 	if( pState )

  0009d	3b f3		 cmp	 esi, ebx
  0009f	74 16		 je	 SHORT $LN7@InitShowAn

; 916  : 	{
; 917  : 		pState->Add( SAT_DELAY,  SAT_DELAY);

  000a1	6a ff		 push	 -1
  000a3	57		 push	 edi
  000a4	57		 push	 edi
  000a5	8b ce		 mov	 ecx, esi
  000a7	e8 00 00 00 00	 call	 ?Add@FSMState@@QAEXHHH@Z ; FSMState::Add

; 918  : 		pState->Add( SAT_NONE,  SAT_NONE );

  000ac	6a ff		 push	 -1
  000ae	53		 push	 ebx
  000af	53		 push	 ebx
  000b0	8b ce		 mov	 ecx, esi
  000b2	e8 00 00 00 00	 call	 ?Add@FSMState@@QAEXHHH@Z ; FSMState::Add
$LN7@InitShowAn:

; 919  : 	}
; 920  : 	m_ShowAniState.Add( pState );	

  000b7	8b 4d f0	 mov	 ecx, DWORD PTR tv256[ebp]
  000ba	56		 push	 esi
  000bb	e8 00 00 00 00	 call	 ?Add@FSMStateMgr@@QAEXPAVFSMState@@@Z ; FSMStateMgr::Add

; 921  : 
; 922  : 	pState = new FSMState(SAT_DELAY);

  000c0	6a 38		 push	 56			; 00000038H
  000c2	e8 00 00 00 00	 call	 ??2@YAPAXI@Z		; operator new
  000c7	59		 pop	 ecx
  000c8	89 45 ec	 mov	 DWORD PTR $T528610[ebp], eax
  000cb	89 7d fc	 mov	 DWORD PTR __$EHRec$[ebp+8], edi
  000ce	3b c3		 cmp	 eax, ebx
  000d0	74 0c		 je	 SHORT $LN15@InitShowAn
  000d2	57		 push	 edi
  000d3	8b c8		 mov	 ecx, eax
  000d5	e8 00 00 00 00	 call	 ??0FSMState@@QAE@H@Z	; FSMState::FSMState
  000da	8b f0		 mov	 esi, eax
  000dc	eb 02		 jmp	 SHORT $LN16@InitShowAn
$LN15@InitShowAn:
  000de	33 f6		 xor	 esi, esi
$LN16@InitShowAn:
  000e0	83 4d fc ff	 or	 DWORD PTR __$EHRec$[ebp+8], -1

; 923  : 	if( pState )

  000e4	6a 03		 push	 3
  000e6	5b		 pop	 ebx
  000e7	85 f6		 test	 esi, esi
  000e9	74 0e		 je	 SHORT $LN6@InitShowAn

; 924  : 		pState->Add( SAT_DELAY,  SAT_UP , DELAY_DELAY);

  000eb	68 a5 00 00 00	 push	 165			; 000000a5H
  000f0	53		 push	 ebx
  000f1	57		 push	 edi
  000f2	8b ce		 mov	 ecx, esi
  000f4	e8 00 00 00 00	 call	 ?Add@FSMState@@QAEXHHH@Z ; FSMState::Add
$LN6@InitShowAn:

; 925  : 	m_ShowAniState.Add( pState );	

  000f9	8b 4d f0	 mov	 ecx, DWORD PTR tv256[ebp]
  000fc	56		 push	 esi
  000fd	e8 00 00 00 00	 call	 ?Add@FSMStateMgr@@QAEXPAVFSMState@@@Z ; FSMStateMgr::Add

; 926  : 
; 927  : 	pState = new FSMState(SAT_UP);

  00102	6a 38		 push	 56			; 00000038H
  00104	e8 00 00 00 00	 call	 ??2@YAPAXI@Z		; operator new
  00109	59		 pop	 ecx
  0010a	89 45 ec	 mov	 DWORD PTR $T528614[ebp], eax
  0010d	89 5d fc	 mov	 DWORD PTR __$EHRec$[ebp+8], ebx
  00110	85 c0		 test	 eax, eax
  00112	74 0c		 je	 SHORT $LN17@InitShowAn
  00114	53		 push	 ebx
  00115	8b c8		 mov	 ecx, eax
  00117	e8 00 00 00 00	 call	 ??0FSMState@@QAE@H@Z	; FSMState::FSMState
  0011c	8b f8		 mov	 edi, eax
  0011e	eb 02		 jmp	 SHORT $LN18@InitShowAn
$LN17@InitShowAn:
  00120	33 ff		 xor	 edi, edi
$LN18@InitShowAn:
  00122	83 4d fc ff	 or	 DWORD PTR __$EHRec$[ebp+8], -1

; 928  : 	if( pState )

  00126	6a 04		 push	 4
  00128	5e		 pop	 esi
  00129	85 ff		 test	 edi, edi
  0012b	74 0e		 je	 SHORT $LN5@InitShowAn

; 929  : 		pState->Add( SAT_UP,  SAT_DOWN , DELAY_UP);

  0012d	68 c6 00 00 00	 push	 198			; 000000c6H
  00132	56		 push	 esi
  00133	53		 push	 ebx
  00134	8b cf		 mov	 ecx, edi
  00136	e8 00 00 00 00	 call	 ?Add@FSMState@@QAEXHHH@Z ; FSMState::Add
$LN5@InitShowAn:

; 930  : 	m_ShowAniState.Add( pState );

  0013b	8b 4d f0	 mov	 ecx, DWORD PTR tv256[ebp]
  0013e	57		 push	 edi
  0013f	e8 00 00 00 00	 call	 ?Add@FSMStateMgr@@QAEXPAVFSMState@@@Z ; FSMStateMgr::Add

; 931  : 
; 932  : 	pState = new FSMState(SAT_DOWN);

  00144	6a 38		 push	 56			; 00000038H
  00146	e8 00 00 00 00	 call	 ??2@YAPAXI@Z		; operator new
  0014b	59		 pop	 ecx
  0014c	89 45 ec	 mov	 DWORD PTR $T528618[ebp], eax
  0014f	89 75 fc	 mov	 DWORD PTR __$EHRec$[ebp+8], esi
  00152	85 c0		 test	 eax, eax
  00154	74 0c		 je	 SHORT $LN19@InitShowAn
  00156	56		 push	 esi
  00157	8b c8		 mov	 ecx, eax
  00159	e8 00 00 00 00	 call	 ??0FSMState@@QAE@H@Z	; FSMState::FSMState
  0015e	8b d8		 mov	 ebx, eax
  00160	eb 02		 jmp	 SHORT $LN20@InitShowAn
$LN19@InitShowAn:
  00162	33 db		 xor	 ebx, ebx
$LN20@InitShowAn:
  00164	83 4d fc ff	 or	 DWORD PTR __$EHRec$[ebp+8], -1

; 933  : 	if( pState )

  00168	6a 05		 push	 5
  0016a	5f		 pop	 edi
  0016b	85 db		 test	 ebx, ebx
  0016d	74 0b		 je	 SHORT $LN4@InitShowAn

; 934  : 		pState->Add( SAT_DOWN,  SAT_UP_STOP , DELAY_DOWN );

  0016f	6a 42		 push	 66			; 00000042H
  00171	57		 push	 edi
  00172	56		 push	 esi
  00173	8b cb		 mov	 ecx, ebx
  00175	e8 00 00 00 00	 call	 ?Add@FSMState@@QAEXHHH@Z ; FSMState::Add
$LN4@InitShowAn:

; 935  : 	m_ShowAniState.Add( pState );

  0017a	8b 4d f0	 mov	 ecx, DWORD PTR tv256[ebp]
  0017d	53		 push	 ebx
  0017e	e8 00 00 00 00	 call	 ?Add@FSMStateMgr@@QAEXPAVFSMState@@@Z ; FSMStateMgr::Add

; 936  : 
; 937  : 	pState = new FSMState(SAT_UP_STOP);

  00183	6a 38		 push	 56			; 00000038H
  00185	e8 00 00 00 00	 call	 ??2@YAPAXI@Z		; operator new
  0018a	59		 pop	 ecx
  0018b	89 45 ec	 mov	 DWORD PTR $T528622[ebp], eax
  0018e	89 7d fc	 mov	 DWORD PTR __$EHRec$[ebp+8], edi
  00191	85 c0		 test	 eax, eax
  00193	74 0c		 je	 SHORT $LN21@InitShowAn
  00195	57		 push	 edi
  00196	8b c8		 mov	 ecx, eax
  00198	e8 00 00 00 00	 call	 ??0FSMState@@QAE@H@Z	; FSMState::FSMState
  0019d	8b d8		 mov	 ebx, eax
  0019f	eb 02		 jmp	 SHORT $LN22@InitShowAn
$LN21@InitShowAn:
  001a1	33 db		 xor	 ebx, ebx
$LN22@InitShowAn:
  001a3	83 4d fc ff	 or	 DWORD PTR __$EHRec$[ebp+8], -1

; 938  : 	if( pState )

  001a7	6a 06		 push	 6
  001a9	5e		 pop	 esi
  001aa	85 db		 test	 ebx, ebx
  001ac	74 0b		 je	 SHORT $LN3@InitShowAn

; 939  : 		pState->Add( SAT_UP_STOP,  SAT_STOP , DELAY_UP_STOP );

  001ae	6a 42		 push	 66			; 00000042H
  001b0	56		 push	 esi
  001b1	57		 push	 edi
  001b2	8b cb		 mov	 ecx, ebx
  001b4	e8 00 00 00 00	 call	 ?Add@FSMState@@QAEXHHH@Z ; FSMState::Add
$LN3@InitShowAn:

; 940  : 	m_ShowAniState.Add( pState );

  001b9	8b 4d f0	 mov	 ecx, DWORD PTR tv256[ebp]
  001bc	53		 push	 ebx
  001bd	e8 00 00 00 00	 call	 ?Add@FSMStateMgr@@QAEXPAVFSMState@@@Z ; FSMStateMgr::Add

; 941  : 
; 942  : 	pState = new FSMState(SAT_STOP);

  001c2	6a 38		 push	 56			; 00000038H
  001c4	e8 00 00 00 00	 call	 ??2@YAPAXI@Z		; operator new
  001c9	59		 pop	 ecx
  001ca	89 45 ec	 mov	 DWORD PTR $T528626[ebp], eax
  001cd	89 75 fc	 mov	 DWORD PTR __$EHRec$[ebp+8], esi
  001d0	85 c0		 test	 eax, eax
  001d2	74 0c		 je	 SHORT $LN23@InitShowAn
  001d4	56		 push	 esi
  001d5	8b c8		 mov	 ecx, eax
  001d7	e8 00 00 00 00	 call	 ??0FSMState@@QAE@H@Z	; FSMState::FSMState
  001dc	8b f0		 mov	 esi, eax
  001de	eb 02		 jmp	 SHORT $LN24@InitShowAn
$LN23@InitShowAn:
  001e0	33 f6		 xor	 esi, esi
$LN24@InitShowAn:
  001e2	83 cf ff	 or	 edi, -1
  001e5	89 7d fc	 mov	 DWORD PTR __$EHRec$[ebp+8], edi

; 943  : 	if( pState )

  001e8	85 f6		 test	 esi, esi
  001ea	74 0c		 je	 SHORT $LN2@InitShowAn

; 944  : 		pState->Add( SAT_END,  SAT_END );

  001ec	57		 push	 edi
  001ed	6a 07		 push	 7
  001ef	6a 07		 push	 7
  001f1	8b ce		 mov	 ecx, esi
  001f3	e8 00 00 00 00	 call	 ?Add@FSMState@@QAEXHHH@Z ; FSMState::Add
$LN2@InitShowAn:

; 945  : 	m_ShowAniState.Add( pState );

  001f8	8b 4d f0	 mov	 ecx, DWORD PTR tv256[ebp]
  001fb	56		 push	 esi
  001fc	e8 00 00 00 00	 call	 ?Add@FSMStateMgr@@QAEXPAVFSMState@@@Z ; FSMStateMgr::Add

; 946  : 
; 947  : 	pState = new FSMState(SAT_END);

  00201	6a 38		 push	 56			; 00000038H
  00203	e8 00 00 00 00	 call	 ??2@YAPAXI@Z		; operator new
  00208	59		 pop	 ecx
  00209	89 45 ec	 mov	 DWORD PTR $T528630[ebp], eax
  0020c	6a 07		 push	 7
  0020e	59		 pop	 ecx
  0020f	89 4d fc	 mov	 DWORD PTR __$EHRec$[ebp+8], ecx
  00212	85 c0		 test	 eax, eax
  00214	74 0c		 je	 SHORT $LN25@InitShowAn
  00216	51		 push	 ecx
  00217	8b c8		 mov	 ecx, eax
  00219	e8 00 00 00 00	 call	 ??0FSMState@@QAE@H@Z	; FSMState::FSMState
  0021e	8b f0		 mov	 esi, eax
  00220	eb 02		 jmp	 SHORT $LN26@InitShowAn
$LN25@InitShowAn:
  00222	33 f6		 xor	 esi, esi
$LN26@InitShowAn:
  00224	89 7d fc	 mov	 DWORD PTR __$EHRec$[ebp+8], edi

; 948  : 	if( pState )

  00227	85 f6		 test	 esi, esi
  00229	74 18		 je	 SHORT $LN1@InitShowAn

; 949  : 	{
; 950  : 		pState->Add( SAT_NONE,  SAT_NONE );

  0022b	57		 push	 edi
  0022c	6a 00		 push	 0
  0022e	6a 00		 push	 0
  00230	8b ce		 mov	 ecx, esi
  00232	e8 00 00 00 00	 call	 ?Add@FSMState@@QAEXHHH@Z ; FSMState::Add

; 951  : 		pState->Add( SAT_START_ROUND, SAT_START_ROUND );

  00237	57		 push	 edi
  00238	6a 01		 push	 1
  0023a	6a 01		 push	 1
  0023c	8b ce		 mov	 ecx, esi
  0023e	e8 00 00 00 00	 call	 ?Add@FSMState@@QAEXHHH@Z ; FSMState::Add
$LN1@InitShowAn:

; 952  : 	}
; 953  : 	m_ShowAniState.Add( pState );

  00243	8b 4d f0	 mov	 ecx, DWORD PTR tv256[ebp]
  00246	56		 push	 esi
  00247	e8 00 00 00 00	 call	 ?Add@FSMStateMgr@@QAEXPAVFSMState@@@Z ; FSMStateMgr::Add

; 954  : }

  0024c	e8 00 00 00 00	 call	 __EH_epilog3
  00251	c3		 ret	 0
_TEXT	ENDS
;	COMDAT text$x
text$x	SEGMENT
__unwindfunclet$?InitShowAniState@TowerDefUserGaugeWnd@@IAEXXZ$0:
  00000	ff 75 ec	 push	 DWORD PTR $T528602[ebp]
  00003	e8 00 00 00 00	 call	 ??3@YAXPAX@Z		; operator delete
  00008	59		 pop	 ecx
  00009	c3		 ret	 0
__unwindfunclet$?InitShowAniState@TowerDefUserGaugeWnd@@IAEXXZ$1:
  0000a	ff 75 ec	 push	 DWORD PTR $T528606[ebp]
  0000d	e8 00 00 00 00	 call	 ??3@YAXPAX@Z		; operator delete
  00012	59		 pop	 ecx
  00013	c3		 ret	 0
__unwindfunclet$?InitShowAniState@TowerDefUserGaugeWnd@@IAEXXZ$2:
  00014	ff 75 ec	 push	 DWORD PTR $T528610[ebp]
  00017	e8 00 00 00 00	 call	 ??3@YAXPAX@Z		; operator delete
  0001c	59		 pop	 ecx
  0001d	c3		 ret	 0
__unwindfunclet$?InitShowAniState@TowerDefUserGaugeWnd@@IAEXXZ$3:
  0001e	ff 75 ec	 push	 DWORD PTR $T528614[ebp]
  00021	e8 00 00 00 00	 call	 ??3@YAXPAX@Z		; operator delete
  00026	59		 pop	 ecx
  00027	c3		 ret	 0
__unwindfunclet$?InitShowAniState@TowerDefUserGaugeWnd@@IAEXXZ$4:
  00028	ff 75 ec	 push	 DWORD PTR $T528618[ebp]
  0002b	e8 00 00 00 00	 call	 ??3@YAXPAX@Z		; operator delete
  00030	59		 pop	 ecx
  00031	c3		 ret	 0
__unwindfunclet$?InitShowAniState@TowerDefUserGaugeWnd@@IAEXXZ$5:
  00032	ff 75 ec	 push	 DWORD PTR $T528622[ebp]
  00035	e8 00 00 00 00	 call	 ??3@YAXPAX@Z		; operator delete
  0003a	59		 pop	 ecx
  0003b	c3		 ret	 0
__unwindfunclet$?InitShowAniState@TowerDefUserGaugeWnd@@IAEXXZ$6:
  0003c	ff 75 ec	 push	 DWORD PTR $T528626[ebp]
  0003f	e8 00 00 00 00	 call	 ??3@YAXPAX@Z		; operator delete
  00044	59		 pop	 ecx
  00045	c3		 ret	 0
__unwindfunclet$?InitShowAniState@TowerDefUserGaugeWnd@@IAEXXZ$7:
  00046	ff 75 ec	 push	 DWORD PTR $T528630[ebp]
  00049	e8 00 00 00 00	 call	 ??3@YAXPAX@Z		; operator delete
  0004e	59		 pop	 ecx
  0004f	c3		 ret	 0
__ehhandler$?InitShowAniState@TowerDefUserGaugeWnd@@IAEXXZ:
  00050	8b 54 24 08	 mov	 edx, DWORD PTR [esp+8]
  00054	8d 42 0c	 lea	 eax, DWORD PTR [edx+12]
  00057	8b 4a e8	 mov	 ecx, DWORD PTR [edx-24]
  0005a	33 c8		 xor	 ecx, eax
  0005c	e8 00 00 00 00	 call	 @__security_check_cookie@4
  00061	b8 00 00 00 00	 mov	 eax, OFFSET __ehfuncinfo$?InitShowAniState@TowerDefUserGaugeWnd@@IAEXXZ
  00066	e9 00 00 00 00	 jmp	 ___CxxFrameHandler3
text$x	ENDS
?InitShowAniState@TowerDefUserGaugeWnd@@IAEXXZ ENDP	; TowerDefUserGaugeWnd::InitShowAniState
PUBLIC	?ChangeShowAniState@TowerDefUserGaugeWnd@@QAEXW4ShowAniType@1@@Z ; TowerDefUserGaugeWnd::ChangeShowAniState
EXTRN	?ChangeState@FSMStateMgr@@QAEHH@Z:PROC		; FSMStateMgr::ChangeState
; Function compile flags: /Ogsp
;	COMDAT ?ChangeShowAniState@TowerDefUserGaugeWnd@@QAEXW4ShowAniType@1@@Z
_TEXT	SEGMENT
_eShowAniType$ = 8					; size = 4
?ChangeShowAniState@TowerDefUserGaugeWnd@@QAEXW4ShowAniType@1@@Z PROC ; TowerDefUserGaugeWnd::ChangeShowAniState, COMDAT
; _this$ = ecx

; 975  : {

  00000	55		 push	 ebp
  00001	8b ec		 mov	 ebp, esp

; 976  : 	m_ShowAniState.ChangeState( (int) eShowAniType );

  00003	81 c1 b0 01 00
	00		 add	 ecx, 432		; 000001b0H

; 977  : }

  00009	5d		 pop	 ebp

; 976  : 	m_ShowAniState.ChangeState( (int) eShowAniType );

  0000a	e9 00 00 00 00	 jmp	 ?ChangeState@FSMStateMgr@@QAEHH@Z ; FSMStateMgr::ChangeState
?ChangeShowAniState@TowerDefUserGaugeWnd@@QAEXW4ShowAniType@1@@Z ENDP ; TowerDefUserGaugeWnd::ChangeShowAniState
_TEXT	ENDS
PUBLIC	?UpdateDefaultPos@TowerDefUserGaugeWnd@@IAEXXZ	; TowerDefUserGaugeWnd::UpdateDefaultPos
EXTRN	?Height@Setting@@SAHXZ:PROC			; Setting::Height
EXTRN	__imp_?GetHeight@ioWnd@@QBEHXZ:PROC
EXTRN	__imp_?GetYPos@ioWnd@@QBEHXZ:PROC
EXTRN	?Width@Setting@@SAHXZ:PROC			; Setting::Width
EXTRN	__imp_?GetWidth@ioWnd@@QBEHXZ:PROC
EXTRN	__imp_?GetXPos@ioWnd@@QBEHXZ:PROC
EXTRN	__imp_?IsMoving@ioMovingWnd@@QAE_NXZ:PROC
EXTRN	?IsDragMove@ioSP2GUIManager@@QBE_NK@Z:PROC	; ioSP2GUIManager::IsDragMove
EXTRN	?GetSingleton@ioSP2GUIManager@@SAAAV1@XZ:PROC	; ioSP2GUIManager::GetSingleton
; Function compile flags: /Ogsp
;	COMDAT ?UpdateDefaultPos@TowerDefUserGaugeWnd@@IAEXXZ
_TEXT	SEGMENT
?UpdateDefaultPos@TowerDefUserGaugeWnd@@IAEXXZ PROC	; TowerDefUserGaugeWnd::UpdateDefaultPos, COMDAT
; _this$ = ecx

; 1030 : {

  00000	56		 push	 esi
  00001	8b f1		 mov	 esi, ecx

; 1031 : 	if( g_GUIMgr.IsDragMove( m_dwID ) || IsMoving() )

  00003	ff 76 14	 push	 DWORD PTR [esi+20]
  00006	e8 00 00 00 00	 call	 ?GetSingleton@ioSP2GUIManager@@SAAAV1@XZ ; ioSP2GUIManager::GetSingleton
  0000b	8b c8		 mov	 ecx, eax
  0000d	e8 00 00 00 00	 call	 ?IsDragMove@ioSP2GUIManager@@QBE_NK@Z ; ioSP2GUIManager::IsDragMove
  00012	84 c0		 test	 al, al
  00014	75 10		 jne	 SHORT $LN5@UpdateDefa
  00016	8b ce		 mov	 ecx, esi
  00018	ff 15 00 00 00
	00		 call	 DWORD PTR __imp_?IsMoving@ioMovingWnd@@QAE_NXZ
  0001e	84 c0		 test	 al, al
  00020	0f 84 8d 00 00
	00		 je	 $LN1@UpdateDefa
$LN5@UpdateDefa:
  00026	53		 push	 ebx
  00027	57		 push	 edi

; 1032 : 	{
; 1033 : 		if( m_iDefaultX != GetXPos() )

  00028	8b ce		 mov	 ecx, esi
  0002a	ff 15 00 00 00
	00		 call	 DWORD PTR __imp_?GetXPos@ioWnd@@QBEHXZ
  00030	33 db		 xor	 ebx, ebx
  00032	43		 inc	 ebx
  00033	39 86 e0 01 00
	00		 cmp	 DWORD PTR [esi+480], eax
  00039	74 39		 je	 SHORT $LN3@UpdateDefa

; 1034 : 		{
; 1035 : 			if( COMPARE( GetXPos(), 0, (Setting::Width() - GetWidth() ) + 1 ))

  0003b	8b ce		 mov	 ecx, esi
  0003d	ff 15 00 00 00
	00		 call	 DWORD PTR __imp_?GetXPos@ioWnd@@QBEHXZ
  00043	85 c0		 test	 eax, eax
  00045	78 2d		 js	 SHORT $LN3@UpdateDefa
  00047	8b ce		 mov	 ecx, esi
  00049	ff 15 00 00 00
	00		 call	 DWORD PTR __imp_?GetWidth@ioWnd@@QBEHXZ
  0004f	8b fb		 mov	 edi, ebx
  00051	2b f8		 sub	 edi, eax
  00053	e8 00 00 00 00	 call	 ?Width@Setting@@SAHXZ	; Setting::Width
  00058	8b ce		 mov	 ecx, esi
  0005a	03 f8		 add	 edi, eax
  0005c	ff 15 00 00 00
	00		 call	 DWORD PTR __imp_?GetXPos@ioWnd@@QBEHXZ
  00062	3b c7		 cmp	 eax, edi
  00064	7d 0e		 jge	 SHORT $LN3@UpdateDefa

; 1036 : 				m_iDefaultX = GetXPos();

  00066	8b ce		 mov	 ecx, esi
  00068	ff 15 00 00 00
	00		 call	 DWORD PTR __imp_?GetXPos@ioWnd@@QBEHXZ
  0006e	89 86 e0 01 00
	00		 mov	 DWORD PTR [esi+480], eax
$LN3@UpdateDefa:

; 1037 : 		}
; 1038 : 
; 1039 : 		if( m_iDefaultY != GetYPos() )

  00074	8b ce		 mov	 ecx, esi
  00076	ff 15 00 00 00
	00		 call	 DWORD PTR __imp_?GetYPos@ioWnd@@QBEHXZ
  0007c	39 86 e4 01 00
	00		 cmp	 DWORD PTR [esi+484], eax
  00082	74 2d		 je	 SHORT $LN9@UpdateDefa

; 1040 : 		{
; 1041 : 			int iYPos = GetYPos() - m_iBlindOffSetY;

  00084	8b ce		 mov	 ecx, esi
  00086	ff 15 00 00 00
	00		 call	 DWORD PTR __imp_?GetYPos@ioWnd@@QBEHXZ
  0008c	8b f8		 mov	 edi, eax
  0008e	2b be d8 01 00
	00		 sub	 edi, DWORD PTR [esi+472]

; 1042 : 			if( COMPARE( iYPos, 0, (Setting::Height() - GetHeight() ) + 1 ))

  00094	78 1b		 js	 SHORT $LN9@UpdateDefa
  00096	8b ce		 mov	 ecx, esi
  00098	ff 15 00 00 00
	00		 call	 DWORD PTR __imp_?GetHeight@ioWnd@@QBEHXZ
  0009e	2b d8		 sub	 ebx, eax
  000a0	e8 00 00 00 00	 call	 ?Height@Setting@@SAHXZ	; Setting::Height
  000a5	03 c3		 add	 eax, ebx
  000a7	3b f8		 cmp	 edi, eax
  000a9	7d 06		 jge	 SHORT $LN9@UpdateDefa

; 1043 : 				m_iDefaultY = iYPos;

  000ab	89 be e4 01 00
	00		 mov	 DWORD PTR [esi+484], edi
$LN9@UpdateDefa:
  000b1	5f		 pop	 edi
  000b2	5b		 pop	 ebx
$LN1@UpdateDefa:
  000b3	5e		 pop	 esi

; 1044 : 		}
; 1045 : 	}
; 1046 : }

  000b4	c3		 ret	 0
?UpdateDefaultPos@TowerDefUserGaugeWnd@@IAEXXZ ENDP	; TowerDefUserGaugeWnd::UpdateDefaultPos
_TEXT	ENDS
PUBLIC	?SetPositionToDefault@TowerDefUserGaugeWnd@@UAEXHH_N0@Z ; TowerDefUserGaugeWnd::SetPositionToDefault
EXTRN	__imp_?SetWndPos@ioWnd@@QAEXHH@Z:PROC
EXTRN	__imp_?SetPositionToDefault@ioMovingWnd@@UAEXHH_N0@Z:PROC
; Function compile flags: /Ogsp
;	COMDAT ?SetPositionToDefault@TowerDefUserGaugeWnd@@UAEXHH_N0@Z
_TEXT	SEGMENT
_iParentWidth$ = 8					; size = 4
_iParentHeight$ = 12					; size = 4
_bChildMove$ = 16					; size = 1
_bCreate$ = 20						; size = 1
?SetPositionToDefault@TowerDefUserGaugeWnd@@UAEXHH_N0@Z PROC ; TowerDefUserGaugeWnd::SetPositionToDefault, COMDAT
; _this$ = ecx

; 1049 : {

  00000	55		 push	 ebp
  00001	8b ec		 mov	 ebp, esp
  00003	56		 push	 esi

; 1050 : 	ioMovingWnd::SetPositionToDefault( iParentWidth, iParentHeight, bChildMove, bCreate );

  00004	ff 75 14	 push	 DWORD PTR _bCreate$[ebp]
  00007	8b f1		 mov	 esi, ecx
  00009	ff 75 10	 push	 DWORD PTR _bChildMove$[ebp]
  0000c	ff 75 0c	 push	 DWORD PTR _iParentHeight$[ebp]
  0000f	ff 75 08	 push	 DWORD PTR _iParentWidth$[ebp]
  00012	ff 15 00 00 00
	00		 call	 DWORD PTR __imp_?SetPositionToDefault@ioMovingWnd@@UAEXHH_N0@Z

; 1051 : 
; 1052 : 	if( !bCreate )

  00018	80 7d 14 00	 cmp	 BYTE PTR _bCreate$[ebp], 0
  0001c	75 2d		 jne	 SHORT $LN1@SetPositio

; 1053 : 	{
; 1054 : 		m_iDefaultX = GetXPos();

  0001e	57		 push	 edi
  0001f	8b ce		 mov	 ecx, esi
  00021	ff 15 00 00 00
	00		 call	 DWORD PTR __imp_?GetXPos@ioWnd@@QBEHXZ

; 1055 : 		m_iDefaultY = GetYPos();

  00027	8b ce		 mov	 ecx, esi
  00029	89 86 e0 01 00
	00		 mov	 DWORD PTR [esi+480], eax
  0002f	ff 15 00 00 00
	00		 call	 DWORD PTR __imp_?GetYPos@ioWnd@@QBEHXZ

; 1056 : 		SetWndPos( m_iDefaultX, m_iDefaultY );

  00035	50		 push	 eax
  00036	ff b6 e0 01 00
	00		 push	 DWORD PTR [esi+480]
  0003c	8b ce		 mov	 ecx, esi
  0003e	89 86 e4 01 00
	00		 mov	 DWORD PTR [esi+484], eax
  00044	ff 15 00 00 00
	00		 call	 DWORD PTR __imp_?SetWndPos@ioWnd@@QAEXHH@Z
  0004a	5f		 pop	 edi
$LN1@SetPositio:
  0004b	5e		 pop	 esi

; 1057 : 	}
; 1058 : }

  0004c	5d		 pop	 ebp
  0004d	c2 10 00	 ret	 16			; 00000010H
?SetPositionToDefault@TowerDefUserGaugeWnd@@UAEXHH_N0@Z ENDP ; TowerDefUserGaugeWnd::SetPositionToDefault
_TEXT	ENDS
PUBLIC	??_C@_04IAEKAMNC@YPos?$AA@			; `string'
PUBLIC	??_C@_04LNCKCFGC@XPos?$AA@			; `string'
PUBLIC	??_C@_0P@CJHLHMOA@ConsumptionWnd?$AA@		; `string'
PUBLIC	??_7ConsumptionWnd@@6B@				; ConsumptionWnd::`vftable'
PUBLIC	??1ConsumptionWnd@@UAE@XZ			; ConsumptionWnd::~ConsumptionWnd
PUBLIC	??_R4ConsumptionWnd@@6B@			; ConsumptionWnd::`RTTI Complete Object Locator'
PUBLIC	??_R0?AVConsumptionWnd@@@8			; ConsumptionWnd `RTTI Type Descriptor'
PUBLIC	??_R3ConsumptionWnd@@8				; ConsumptionWnd::`RTTI Class Hierarchy Descriptor'
PUBLIC	??_R2ConsumptionWnd@@8				; ConsumptionWnd::`RTTI Base Class Array'
PUBLIC	??_R1A@?0A@EA@ConsumptionWnd@@8			; ConsumptionWnd::`RTTI Base Class Descriptor at (0,-1,0,64)'
PUBLIC	?SetPositionToDefault@ConsumptionWnd@@UAEXHH_N0@Z ; ConsumptionWnd::SetPositionToDefault
PUBLIC	?OnRender@ConsumptionWnd@@MAEXXZ		; ConsumptionWnd::OnRender
PUBLIC	?OnProcess@ConsumptionWnd@@MAEXM@Z		; ConsumptionWnd::OnProcess
PUBLIC	?iwm_create@ConsumptionWnd@@UAEXXZ		; ConsumptionWnd::iwm_create
PUBLIC	?iwm_command@ConsumptionWnd@@UAEXPAVioWnd@@HK@Z	; ConsumptionWnd::iwm_command
EXTRN	?GUIPosSaveInt@ioSP2GUIManager@@QAEHPBD0HH@Z:PROC ; ioSP2GUIManager::GUIPosSaveInt
EXTRN	??_EConsumptionWnd@@UAEPAXI@Z:PROC		; ConsumptionWnd::`vector deleting destructor'
;	COMDAT ??_R1A@?0A@EA@ConsumptionWnd@@8
rdata$r	SEGMENT
??_R1A@?0A@EA@ConsumptionWnd@@8 DD FLAT:??_R0?AVConsumptionWnd@@@8 ; ConsumptionWnd::`RTTI Base Class Descriptor at (0,-1,0,64)'
	DD	02H
	DD	00H
	DD	0ffffffffH
	DD	00H
	DD	040H
	DD	FLAT:??_R3ConsumptionWnd@@8
rdata$r	ENDS
;	COMDAT ??_R2ConsumptionWnd@@8
rdata$r	SEGMENT
??_R2ConsumptionWnd@@8 DD FLAT:??_R1A@?0A@EA@ConsumptionWnd@@8 ; ConsumptionWnd::`RTTI Base Class Array'
	DD	FLAT:??_R1A@?0A@EA@ioMovingWnd@@8
	DD	FLAT:??_R1A@?0A@EA@ioWnd@@8
rdata$r	ENDS
;	COMDAT ??_R3ConsumptionWnd@@8
rdata$r	SEGMENT
??_R3ConsumptionWnd@@8 DD 00H				; ConsumptionWnd::`RTTI Class Hierarchy Descriptor'
	DD	00H
	DD	03H
	DD	FLAT:??_R2ConsumptionWnd@@8
rdata$r	ENDS
;	COMDAT ??_R0?AVConsumptionWnd@@@8
_DATA	SEGMENT
??_R0?AVConsumptionWnd@@@8 DD FLAT:??_7type_info@@6B@	; ConsumptionWnd `RTTI Type Descriptor'
	DD	00H
	DB	'.?AVConsumptionWnd@@', 00H
_DATA	ENDS
;	COMDAT ??_R4ConsumptionWnd@@6B@
rdata$r	SEGMENT
??_R4ConsumptionWnd@@6B@ DD 00H				; ConsumptionWnd::`RTTI Complete Object Locator'
	DD	00H
	DD	00H
	DD	FLAT:??_R0?AVConsumptionWnd@@@8
	DD	FLAT:??_R3ConsumptionWnd@@8
rdata$r	ENDS
;	COMDAT ??_C@_04IAEKAMNC@YPos?$AA@
CONST	SEGMENT
??_C@_04IAEKAMNC@YPos?$AA@ DB 'YPos', 00H		; `string'
CONST	ENDS
;	COMDAT ??_C@_04LNCKCFGC@XPos?$AA@
CONST	SEGMENT
??_C@_04LNCKCFGC@XPos?$AA@ DB 'XPos', 00H		; `string'
CONST	ENDS
;	COMDAT ??_C@_0P@CJHLHMOA@ConsumptionWnd?$AA@
CONST	SEGMENT
??_C@_0P@CJHLHMOA@ConsumptionWnd?$AA@ DB 'ConsumptionWnd', 00H ; `string'
CONST	ENDS
;	COMDAT ??_7ConsumptionWnd@@6B@
CONST	SEGMENT
??_7ConsumptionWnd@@6B@ DD FLAT:??_R4ConsumptionWnd@@6B@ ; ConsumptionWnd::`vftable'
	DD	FLAT:?AddRenderFrame@ioWnd@@UAEXABVioHashString@@PAVioUIRenderFrame@@@Z
	DD	FLAT:?AddRenderImage@ioWnd@@UAEXABVioHashString@@PAVioUIRenderImage@@@Z
	DD	FLAT:?AddTooltipHelp@ioWnd@@UAEXABVioHashString@@00@Z
	DD	FLAT:?ParseExtraInfo@ioWnd@@UAEXAAVioXMLElement@@@Z
	DD	FLAT:?AddNamedRenderImage@ioWnd@@UAEXABVioHashString@@PAVioUIRenderImage@@@Z
	DD	FLAT:?RemoveNamedRenderImage@ioWnd@@UAEXABVioHashString@@@Z
	DD	FLAT:?GetNamedRenderImage@ioWnd@@UBEPAVioUIRenderImage@@ABVioHashString@@@Z
	DD	FLAT:?SetWindowAlpha@ioWnd@@UAEXH@Z
	DD	FLAT:?SetActive@ioWnd@@UAEXXZ
	DD	FLAT:?SetInActive@ioWnd@@UAEXXZ
	DD	FLAT:?ClearElementImageList@ioWnd@@UAEXXZ
	DD	FLAT:?SetSize@ioWnd@@UAEXHH@Z
	DD	FLAT:?SetPositionToDefault@ConsumptionWnd@@UAEXHH_N0@Z
	DD	FLAT:?IsNeedProcess@ioWnd@@UBE_NXZ
	DD	FLAT:?IsCanMouseReaction@ioWnd@@UBE_NXZ
	DD	FLAT:?AddChild@ioWnd@@UAEXPAV1@@Z
	DD	FLAT:?DeleteChild@ioWnd@@UAEXK@Z
	DD	FLAT:?DeleteAllChild@ioWnd@@UAEXXZ
	DD	FLAT:?OnRenderShowAndHide@ioWnd@@MAE_NXZ
	DD	FLAT:?OnRenderShowAndHideByDefault@ioWnd@@MAE_NK@Z
	DD	FLAT:?OnRenderShowAndHideByTop@ioWnd@@MAE_NK@Z
	DD	FLAT:?OnRenderShowAndHideByDown@ioWnd@@MAE_NK@Z
	DD	FLAT:?OnRender@ConsumptionWnd@@MAEXXZ
	DD	FLAT:?OnRenderAfterChild@ioWnd@@MAEXXZ
	DD	FLAT:?OnProcess@ConsumptionWnd@@MAEXM@Z
	DD	FLAT:?OnMouseProcess@ioMovingWnd@@MAEXABVioMouse@@@Z
	DD	FLAT:?CheckFrameReSize@ioWnd@@MAEXHHHH@Z
	DD	FLAT:?RenderImageList@ioWnd@@MAEXHHW4UIRenderType@@@Z
	DD	FLAT:?iwm_create@ConsumptionWnd@@UAEXXZ
	DD	FLAT:?iwm_destroy@ioWnd@@UAEXXZ
	DD	FLAT:?iwm_lbuttondown@ioMovingWnd@@UAEXABVioMouse@@@Z
	DD	FLAT:?iwm_lbuttonup@ioMovingWnd@@UAEXABVioMouse@@@Z
	DD	FLAT:?iwm_lbuttonDBLCLK@ioWnd@@UAEXABVioMouse@@@Z
	DD	FLAT:?iwm_rbuttondown@ioWnd@@UAEXABVioMouse@@@Z
	DD	FLAT:?iwm_rbuttonup@ioWnd@@UAEXABVioMouse@@@Z
	DD	FLAT:?iwm_command@ConsumptionWnd@@UAEXPAVioWnd@@HK@Z
	DD	FLAT:?iwm_mouseover@ioWnd@@UAEXABVioMouse@@@Z
	DD	FLAT:?iwm_mousemove@ioWnd@@UAEXABVioMouse@@@Z
	DD	FLAT:?iwm_mouseleave@ioWnd@@UAEXABVioMouse@@@Z
	DD	FLAT:?iwm_vscroll@ioWnd@@UAEXKH@Z
	DD	FLAT:?iwm_wheel@ioWnd@@UAEXH@Z
	DD	FLAT:?iwm_show@ioWnd@@UAEXXZ
	DD	FLAT:?iwm_hide@ioWnd@@UAEXXZ
	DD	FLAT:?iwm_esc@ioWnd@@UAE_NXZ
	DD	FLAT:?iwm_spacebar@ioWnd@@UAE_NXZ
	DD	FLAT:?iwm_gototop@ioWnd@@UAEXXZ
	DD	FLAT:?iwm_dragenter@ioWnd@@UAE?AW4IWDropEffect@@PAVioDragItem@@ABVioMouse@@@Z
	DD	FLAT:?iwm_dragover@ioWnd@@UAE?AW4IWDropEffect@@PAVioDragItem@@ABVioMouse@@@Z
	DD	FLAT:?iwm_dragleave@ioWnd@@UAEXXZ
	DD	FLAT:?iwm_dropitem@ioWnd@@UAE_NPAVioDragItem@@ABVioMouse@@PAV1@@Z
	DD	FLAT:?iwm_dropdone@ioWnd@@UAEXPAVioDragItem@@PAV1@_N@Z
	DD	FLAT:?IsEXType@ioWnd@@UBE_NXZ
	DD	FLAT:?GetWndType@ioWnd@@UBEKXZ
	DD	FLAT:?RenderWnd@ioWnd@@UAEXXZ
	DD	FLAT:?SetIDEX@ioWnd@@UAEXAAK_N@Z
	DD	FLAT:?ParseXML@ioWnd@@UAEXAAVioXMLElement@@@Z
	DD	FLAT:?GetHeaderFileName@ioWnd@@UAEPBDXZ
	DD	FLAT:?GetTemplateName@ioWnd@@UAEPBDXZ
	DD	FLAT:?GetDefClassName@ioWnd@@UBEPBDXZ
	DD	FLAT:?_Clone@ioWnd@@UAEPAV1@XZ
	DD	FLAT:?Copy@ioWnd@@UAEXPAV1@@Z
	DD	FLAT:?Save@ioWnd@@UAE_NAAVioXMLElement@@@Z
	DD	FLAT:?SetSaveData@ioWnd@@UAEXAAVioXMLElement@@@Z
	DD	FLAT:?SetPosX@ioWnd@@UAEXH@Z
	DD	FLAT:?SetPosY@ioWnd@@UAEXH@Z
	DD	FLAT:?SetWidth@ioWnd@@UAEXH@Z
	DD	FLAT:?SetHeight@ioWnd@@UAEXH@Z
	DD	FLAT:?GetNumFixedRenderFrame@ioWnd@@UBEHXZ
	DD	FLAT:?GetFixedRenderFrameType@ioWnd@@UAEPBDH@Z
	DD	FLAT:?GetRenderFrame@ioWnd@@UAEPAPAVioUIRenderElement@@PBD@Z
	DD	FLAT:?GetNumFixedRenderImage@ioWnd@@UBEHXZ
	DD	FLAT:?GetFixedRenderImageType@ioWnd@@UAEPBDH@Z
	DD	FLAT:?GetRenderImage@ioWnd@@UAEPAPAVioUIRenderElement@@PBD@Z
	DD	FLAT:?AddEffect@ioWnd@@UAEXABVioHashString@@PAVioUI3DEffectRender@@@Z
	DD	FLAT:?GetEffect@ioWnd@@UAEPAVioUI3DEffectRender@@VioHashString@@@Z
	DD	FLAT:??_EConsumptionWnd@@UAEPAXI@Z
CONST	ENDS
;	COMDAT xdata$x
xdata$x	SEGMENT
__unwindtable$??1ConsumptionWnd@@UAE@XZ DD 0ffffffffH
	DD	FLAT:__unwindfunclet$??1ConsumptionWnd@@UAE@XZ$0
	DD	00H
	DD	FLAT:__unwindfunclet$??1ConsumptionWnd@@UAE@XZ$1
__ehfuncinfo$??1ConsumptionWnd@@UAE@XZ DD 019930522H
	DD	02H
	DD	FLAT:__unwindtable$??1ConsumptionWnd@@UAE@XZ
	DD	2 DUP(00H)
	DD	2 DUP(00H)
	DD	00H
	DD	01H
; Function compile flags: /Ogsp
xdata$x	ENDS
;	COMDAT ??1ConsumptionWnd@@UAE@XZ
_TEXT	SEGMENT
_this$ = -16						; size = 4
__$EHRec$ = -12						; size = 12
??1ConsumptionWnd@@UAE@XZ PROC				; ConsumptionWnd::~ConsumptionWnd, COMDAT
; _this$ = ecx

; 1074 : {

  00000	6a 04		 push	 4
  00002	b8 00 00 00 00	 mov	 eax, __ehhandler$??1ConsumptionWnd@@UAE@XZ
  00007	e8 00 00 00 00	 call	 __EH_prolog3
  0000c	8b f1		 mov	 esi, ecx
  0000e	89 75 f0	 mov	 DWORD PTR _this$[ebp], esi
  00011	c7 06 00 00 00
	00		 mov	 DWORD PTR [esi], OFFSET ??_7ConsumptionWnd@@6B@

; 1075 : 	if( !COMPARE( m_iDefaultX, 0, Setting::Width() ) || 
; 1076 : 		!COMPARE( m_iDefaultY, 0, Setting::Height() ) )

  00017	83 be c0 01 00
	00 00		 cmp	 DWORD PTR [esi+448], 0
  0001e	c7 45 fc 01 00
	00 00		 mov	 DWORD PTR __$EHRec$[ebp+8], 1
  00025	7c 5c		 jl	 SHORT $LN1@Consumptio
  00027	e8 00 00 00 00	 call	 ?Width@Setting@@SAHXZ	; Setting::Width
  0002c	39 86 c0 01 00
	00		 cmp	 DWORD PTR [esi+448], eax
  00032	7d 4f		 jge	 SHORT $LN1@Consumptio
  00034	83 be c4 01 00
	00 00		 cmp	 DWORD PTR [esi+452], 0
  0003b	7c 46		 jl	 SHORT $LN1@Consumptio
  0003d	e8 00 00 00 00	 call	 ?Height@Setting@@SAHXZ	; Setting::Height
  00042	39 86 c4 01 00
	00		 cmp	 DWORD PTR [esi+452], eax
  00048	7d 39		 jge	 SHORT $LN1@Consumptio

; 1077 : 		return;
; 1078 : 
; 1079 : 	g_GUIMgr.GUIPosSaveInt( "ConsumptionWnd", "XPos", m_iDefaultX ,POS_SAVE_VERSION );

  0004a	6a 04		 push	 4
  0004c	ff b6 c0 01 00
	00		 push	 DWORD PTR [esi+448]
  00052	bf 00 00 00 00	 mov	 edi, OFFSET ??_C@_0P@CJHLHMOA@ConsumptionWnd?$AA@
  00057	68 00 00 00 00	 push	 OFFSET ??_C@_04LNCKCFGC@XPos?$AA@
  0005c	57		 push	 edi
  0005d	e8 00 00 00 00	 call	 ?GetSingleton@ioSP2GUIManager@@SAAAV1@XZ ; ioSP2GUIManager::GetSingleton
  00062	8b c8		 mov	 ecx, eax
  00064	e8 00 00 00 00	 call	 ?GUIPosSaveInt@ioSP2GUIManager@@QAEHPBD0HH@Z ; ioSP2GUIManager::GUIPosSaveInt

; 1080 : 	g_GUIMgr.GUIPosSaveInt( "ConsumptionWnd", "YPos", m_iDefaultY ,POS_SAVE_VERSION );

  00069	6a 04		 push	 4
  0006b	ff b6 c4 01 00
	00		 push	 DWORD PTR [esi+452]
  00071	68 00 00 00 00	 push	 OFFSET ??_C@_04IAEKAMNC@YPos?$AA@
  00076	57		 push	 edi
  00077	e8 00 00 00 00	 call	 ?GetSingleton@ioSP2GUIManager@@SAAAV1@XZ ; ioSP2GUIManager::GetSingleton
  0007c	8b c8		 mov	 ecx, eax
  0007e	e8 00 00 00 00	 call	 ?GUIPosSaveInt@ioSP2GUIManager@@QAEHPBD0HH@Z ; ioSP2GUIManager::GUIPosSaveInt
$LN1@Consumptio:

; 1081 : }

  00083	8d 8e 90 01 00
	00		 lea	 ecx, DWORD PTR [esi+400]
  00089	c6 45 fc 00	 mov	 BYTE PTR __$EHRec$[ebp+8], 0
  0008d	e8 00 00 00 00	 call	 ??1FSMStateMgr@@UAE@XZ	; FSMStateMgr::~FSMStateMgr
  00092	83 4d fc ff	 or	 DWORD PTR __$EHRec$[ebp+8], -1
  00096	8b ce		 mov	 ecx, esi
  00098	ff 15 00 00 00
	00		 call	 DWORD PTR __imp_??1ioMovingWnd@@UAE@XZ
  0009e	e8 00 00 00 00	 call	 __EH_epilog3
  000a3	c3		 ret	 0
_TEXT	ENDS
;	COMDAT text$x
text$x	SEGMENT
__unwindfunclet$??1ConsumptionWnd@@UAE@XZ$0:
  00000	8b 4d f0	 mov	 ecx, DWORD PTR _this$[ebp]
  00003	ff 25 00 00 00
	00		 jmp	 DWORD PTR __imp_??1ioMovingWnd@@UAE@XZ
__unwindfunclet$??1ConsumptionWnd@@UAE@XZ$1:
  00009	8b 4d f0	 mov	 ecx, DWORD PTR _this$[ebp]
  0000c	81 c1 90 01 00
	00		 add	 ecx, 400		; 00000190H
  00012	e9 00 00 00 00	 jmp	 ??1FSMStateMgr@@UAE@XZ	; FSMStateMgr::~FSMStateMgr
__ehhandler$??1ConsumptionWnd@@UAE@XZ:
  00017	8b 54 24 08	 mov	 edx, DWORD PTR [esp+8]
  0001b	8d 42 0c	 lea	 eax, DWORD PTR [edx+12]
  0001e	8b 4a ec	 mov	 ecx, DWORD PTR [edx-20]
  00021	33 c8		 xor	 ecx, eax
  00023	e8 00 00 00 00	 call	 @__security_check_cookie@4
  00028	b8 00 00 00 00	 mov	 eax, OFFSET __ehfuncinfo$??1ConsumptionWnd@@UAE@XZ
  0002d	e9 00 00 00 00	 jmp	 ___CxxFrameHandler3
text$x	ENDS
??1ConsumptionWnd@@UAE@XZ ENDP				; ConsumptionWnd::~ConsumptionWnd
EXTRN	__imp_?GetDerivedPosY@ioWnd@@QBEHXZ:PROC
EXTRN	__imp_?GetDerivedPosX@ioWnd@@QBEHXZ:PROC
EXTRN	?GUIPosLoadInt@ioSP2GUIManager@@QAEHPBD0HH@Z:PROC ; ioSP2GUIManager::GUIPosLoadInt
; Function compile flags: /Ogsp
;	COMDAT ?iwm_create@ConsumptionWnd@@UAEXXZ
_TEXT	SEGMENT
?iwm_create@ConsumptionWnd@@UAEXXZ PROC			; ConsumptionWnd::iwm_create, COMDAT
; _this$ = ecx

; 1103 : {

  00000	53		 push	 ebx
  00001	56		 push	 esi
  00002	57		 push	 edi

; 1104 : 	int iXPos = g_GUIMgr.GUIPosLoadInt( "ConsumptionWnd", "XPos", GetXPos() ,POS_SAVE_VERSION );

  00003	6a 04		 push	 4
  00005	8b f9		 mov	 edi, ecx
  00007	ff 15 00 00 00
	00		 call	 DWORD PTR __imp_?GetXPos@ioWnd@@QBEHXZ
  0000d	50		 push	 eax
  0000e	68 00 00 00 00	 push	 OFFSET ??_C@_04LNCKCFGC@XPos?$AA@
  00013	be 00 00 00 00	 mov	 esi, OFFSET ??_C@_0P@CJHLHMOA@ConsumptionWnd?$AA@
  00018	56		 push	 esi
  00019	e8 00 00 00 00	 call	 ?GetSingleton@ioSP2GUIManager@@SAAAV1@XZ ; ioSP2GUIManager::GetSingleton
  0001e	8b c8		 mov	 ecx, eax
  00020	e8 00 00 00 00	 call	 ?GUIPosLoadInt@ioSP2GUIManager@@QAEHPBD0HH@Z ; ioSP2GUIManager::GUIPosLoadInt

; 1105 : 	int iYPos = g_GUIMgr.GUIPosLoadInt( "ConsumptionWnd", "YPos", GetYPos() ,POS_SAVE_VERSION );

  00025	6a 04		 push	 4
  00027	8b cf		 mov	 ecx, edi
  00029	8b d8		 mov	 ebx, eax
  0002b	ff 15 00 00 00
	00		 call	 DWORD PTR __imp_?GetYPos@ioWnd@@QBEHXZ
  00031	50		 push	 eax
  00032	68 00 00 00 00	 push	 OFFSET ??_C@_04IAEKAMNC@YPos?$AA@
  00037	56		 push	 esi
  00038	e8 00 00 00 00	 call	 ?GetSingleton@ioSP2GUIManager@@SAAAV1@XZ ; ioSP2GUIManager::GetSingleton
  0003d	8b c8		 mov	 ecx, eax
  0003f	e8 00 00 00 00	 call	 ?GUIPosLoadInt@ioSP2GUIManager@@QAEHPBD0HH@Z ; ioSP2GUIManager::GUIPosLoadInt
  00044	8b f0		 mov	 esi, eax

; 1106 : 
; 1107 : 	if( COMPARE( iXPos, 0, Setting::Width() ) && 
; 1108 : 		COMPARE( iYPos, 0, Setting::Height() ) )

  00046	85 db		 test	 ebx, ebx
  00048	78 20		 js	 SHORT $LN2@iwm_create
  0004a	e8 00 00 00 00	 call	 ?Width@Setting@@SAHXZ	; Setting::Width
  0004f	3b d8		 cmp	 ebx, eax
  00051	7d 17		 jge	 SHORT $LN2@iwm_create
  00053	85 f6		 test	 esi, esi
  00055	78 13		 js	 SHORT $LN2@iwm_create
  00057	e8 00 00 00 00	 call	 ?Height@Setting@@SAHXZ	; Setting::Height
  0005c	3b f0		 cmp	 esi, eax
  0005e	7d 0a		 jge	 SHORT $LN2@iwm_create

; 1109 : 	{
; 1110 : 		SetWndPos( iXPos, iYPos );

  00060	56		 push	 esi
  00061	53		 push	 ebx
  00062	8b cf		 mov	 ecx, edi
  00064	ff 15 00 00 00
	00		 call	 DWORD PTR __imp_?SetWndPos@ioWnd@@QAEXHH@Z
$LN2@iwm_create:

; 1111 : 	}
; 1112 : 
; 1113 : 	m_iDefaultX = GetDerivedPosX();

  0006a	8b cf		 mov	 ecx, edi
  0006c	ff 15 00 00 00
	00		 call	 DWORD PTR __imp_?GetDerivedPosX@ioWnd@@QBEHXZ

; 1114 : 	m_iDefaultY = GetDerivedPosY();

  00072	8b cf		 mov	 ecx, edi
  00074	89 87 c0 01 00
	00		 mov	 DWORD PTR [edi+448], eax
  0007a	ff 15 00 00 00
	00		 call	 DWORD PTR __imp_?GetDerivedPosY@ioWnd@@QBEHXZ
  00080	89 87 c4 01 00
	00		 mov	 DWORD PTR [edi+452], eax

; 1115 : 
; 1116 : 	if( m_bPosToDefault )

  00086	80 3d 00 00 00
	00 00		 cmp	 BYTE PTR ?m_bPosToDefault@ConsumptionWnd@@1_NA, 0 ; ConsumptionWnd::m_bPosToDefault
  0008d	74 1e		 je	 SHORT $LN1@iwm_create

; 1117 : 	{
; 1118 : 		m_bPosToDefault = false;
; 1119 : 		SetPositionToDefault( Setting::Width(), Setting::Height(), true );

  0008f	6a 00		 push	 0
  00091	c6 05 00 00 00
	00 00		 mov	 BYTE PTR ?m_bPosToDefault@ConsumptionWnd@@1_NA, 0 ; ConsumptionWnd::m_bPosToDefault
  00098	8b 37		 mov	 esi, DWORD PTR [edi]
  0009a	6a 01		 push	 1
  0009c	e8 00 00 00 00	 call	 ?Height@Setting@@SAHXZ	; Setting::Height
  000a1	50		 push	 eax
  000a2	e8 00 00 00 00	 call	 ?Width@Setting@@SAHXZ	; Setting::Width
  000a7	50		 push	 eax
  000a8	8b cf		 mov	 ecx, edi
  000aa	ff 56 30	 call	 DWORD PTR [esi+48]
$LN1@iwm_create:

; 1120 : 	}
; 1121 : }

  000ad	5f		 pop	 edi
  000ae	5e		 pop	 esi
  000af	5b		 pop	 ebx
  000b0	c3		 ret	 0
?iwm_create@ConsumptionWnd@@UAEXXZ ENDP			; ConsumptionWnd::iwm_create
_TEXT	ENDS
PUBLIC	??_R0?AVEtcItemSlotWnd@@@8			; EtcItemSlotWnd `RTTI Type Descriptor'
EXTRN	?ShowSlotWnd@EtcItemSlotWnd@@QAEXXZ:PROC	; EtcItemSlotWnd::ShowSlotWnd
EXTRN	__imp_?GoToTop@ioWnd@@QAEXXZ:PROC
EXTRN	__imp_?FindWnd@ioGUIManager@@QAEPAVioWnd@@K@Z:PROC
EXTRN	__imp_?GetID@ioWnd@@QBEKXZ:PROC
;	COMDAT ??_R0?AVEtcItemSlotWnd@@@8
_DATA	SEGMENT
??_R0?AVEtcItemSlotWnd@@@8 DD FLAT:??_7type_info@@6B@	; EtcItemSlotWnd `RTTI Type Descriptor'
	DD	00H
	DB	'.?AVEtcItemSlotWnd@@', 00H
; Function compile flags: /Ogsp
_DATA	ENDS
;	COMDAT ?iwm_command@ConsumptionWnd@@UAEXPAVioWnd@@HK@Z
_TEXT	SEGMENT
_pWnd$ = 8						; size = 4
_cmd$ = 12						; size = 4
_param$ = 16						; size = 4
?iwm_command@ConsumptionWnd@@UAEXPAVioWnd@@HK@Z PROC	; ConsumptionWnd::iwm_command, COMDAT
; _this$ = ecx

; 1124 : {

  00000	55		 push	 ebp
  00001	8b ec		 mov	 ebp, esp

; 1125 : 	DWORD dwID = pWnd->GetID();

  00003	8b 4d 08	 mov	 ecx, DWORD PTR _pWnd$[ebp]
  00006	ff 15 00 00 00
	00		 call	 DWORD PTR __imp_?GetID@ioWnd@@QBEKXZ

; 1126 : 	switch( dwID )

  0000c	83 f8 03	 cmp	 eax, 3
  0000f	77 4e		 ja	 SHORT $LN1@iwm_comman

; 1127 : 	{
; 1128 : 	case SLOT_1:
; 1129 : 	case SLOT_2:
; 1130 : 	case SLOT_3:
; 1131 : 	case SLOT_4:
; 1132 : 		if( cmd == IOBN_BTNUP )

  00011	83 7d 0c 11	 cmp	 DWORD PTR _cmd$[ebp], 17 ; 00000011H
  00015	75 48		 jne	 SHORT $LN1@iwm_comman

; 1133 : 		{
; 1134 : 			EtcItemSlotWnd *pSlotWnd = dynamic_cast< EtcItemSlotWnd * >( g_GUIMgr.FindWnd( ETC_ITEM_SLOT_WND ) );

  00017	56		 push	 esi
  00018	6a 00		 push	 0
  0001a	68 00 00 00 00	 push	 OFFSET ??_R0?AVEtcItemSlotWnd@@@8
  0001f	68 00 00 00 00	 push	 OFFSET ??_R0?AVioWnd@@@8
  00024	6a 00		 push	 0
  00026	68 41 18 00 00	 push	 6209			; 00001841H
  0002b	e8 00 00 00 00	 call	 ?GetSingleton@ioSP2GUIManager@@SAAAV1@XZ ; ioSP2GUIManager::GetSingleton
  00030	8b c8		 mov	 ecx, eax
  00032	ff 15 00 00 00
	00		 call	 DWORD PTR __imp_?FindWnd@ioGUIManager@@QAEPAVioWnd@@K@Z
  00038	50		 push	 eax
  00039	e8 00 00 00 00	 call	 ___RTDynamicCast
  0003e	8b f0		 mov	 esi, eax
  00040	83 c4 14	 add	 esp, 20			; 00000014H

; 1135 : 			if(pSlotWnd->IsShow())

  00043	8b ce		 mov	 ecx, esi
  00045	ff 15 00 00 00
	00		 call	 DWORD PTR __imp_?IsShow@ioWnd@@QBE_NXZ

; 1136 : 				pSlotWnd->GoToTop();

  0004b	8b ce		 mov	 ecx, esi
  0004d	84 c0		 test	 al, al
  0004f	74 08		 je	 SHORT $LN2@iwm_comman
  00051	ff 15 00 00 00
	00		 call	 DWORD PTR __imp_?GoToTop@ioWnd@@QAEXXZ

; 1137 : 			else

  00057	eb 05		 jmp	 SHORT $LN9@iwm_comman
$LN2@iwm_comman:

; 1138 : 				pSlotWnd->ShowSlotWnd();

  00059	e8 00 00 00 00	 call	 ?ShowSlotWnd@EtcItemSlotWnd@@QAEXXZ ; EtcItemSlotWnd::ShowSlotWnd
$LN9@iwm_comman:
  0005e	5e		 pop	 esi
$LN1@iwm_comman:

; 1139 : 		}
; 1140 : 		break;
; 1141 : 	}
; 1142 : }

  0005f	5d		 pop	 ebp
  00060	c2 0c 00	 ret	 12			; 0000000cH
?iwm_command@ConsumptionWnd@@UAEXPAVioWnd@@HK@Z ENDP	; ConsumptionWnd::iwm_command
_TEXT	ENDS
PUBLIC	?SetBlindOffSet@ConsumptionWnd@@QAEXH@Z		; ConsumptionWnd::SetBlindOffSet
; Function compile flags: /Ogsp
;	COMDAT ?SetBlindOffSet@ConsumptionWnd@@QAEXH@Z
_TEXT	SEGMENT
_iYOffSet$ = 8						; size = 4
?SetBlindOffSet@ConsumptionWnd@@QAEXH@Z PROC		; ConsumptionWnd::SetBlindOffSet, COMDAT
; _this$ = ecx

; 1146 : {

  00000	55		 push	 ebp
  00001	8b ec		 mov	 ebp, esp

; 1147 : 	m_iBlindOffSetY = iYOffSet;

  00003	8b 45 08	 mov	 eax, DWORD PTR _iYOffSet$[ebp]
  00006	89 81 b8 01 00
	00		 mov	 DWORD PTR [ecx+440], eax

; 1148 : }

  0000c	5d		 pop	 ebp
  0000d	c2 04 00	 ret	 4
?SetBlindOffSet@ConsumptionWnd@@QAEXH@Z ENDP		; ConsumptionWnd::SetBlindOffSet
_TEXT	ENDS
PUBLIC	?InitAniState@ConsumptionWnd@@QAEXXZ		; ConsumptionWnd::InitAniState
; Function compile flags: /Ogsp
;	COMDAT ?InitAniState@ConsumptionWnd@@QAEXXZ
_TEXT	SEGMENT
?InitAniState@ConsumptionWnd@@QAEXXZ PROC		; ConsumptionWnd::InitAniState, COMDAT
; _this$ = ecx

; 1152 : 	m_ShowAniState.SetCurState( SAT_NONE );

  00000	6a 00		 push	 0
  00002	81 c1 90 01 00
	00		 add	 ecx, 400		; 00000190H
  00008	e8 00 00 00 00	 call	 ?SetCurState@FSMStateMgr@@QAEXH@Z ; FSMStateMgr::SetCurState

; 1153 : }

  0000d	c3		 ret	 0
?InitAniState@ConsumptionWnd@@QAEXXZ ENDP		; ConsumptionWnd::InitAniState
_TEXT	ENDS
PUBLIC	?InitShowAniState@ConsumptionWnd@@IAEXXZ	; ConsumptionWnd::InitShowAniState
;	COMDAT xdata$x
xdata$x	SEGMENT
__ehfuncinfo$?InitShowAniState@ConsumptionWnd@@IAEXXZ DD 019930522H
	DD	08H
	DD	FLAT:__unwindtable$?InitShowAniState@ConsumptionWnd@@IAEXXZ
	DD	2 DUP(00H)
	DD	2 DUP(00H)
	DD	00H
	DD	01H
__unwindtable$?InitShowAniState@ConsumptionWnd@@IAEXXZ DD 0ffffffffH
	DD	FLAT:__unwindfunclet$?InitShowAniState@ConsumptionWnd@@IAEXXZ$0
	DD	0ffffffffH
	DD	FLAT:__unwindfunclet$?InitShowAniState@ConsumptionWnd@@IAEXXZ$1
	DD	0ffffffffH
	DD	FLAT:__unwindfunclet$?InitShowAniState@ConsumptionWnd@@IAEXXZ$2
	DD	0ffffffffH
	DD	FLAT:__unwindfunclet$?InitShowAniState@ConsumptionWnd@@IAEXXZ$3
	DD	0ffffffffH
	DD	FLAT:__unwindfunclet$?InitShowAniState@ConsumptionWnd@@IAEXXZ$4
	DD	0ffffffffH
	DD	FLAT:__unwindfunclet$?InitShowAniState@ConsumptionWnd@@IAEXXZ$5
	DD	0ffffffffH
	DD	FLAT:__unwindfunclet$?InitShowAniState@ConsumptionWnd@@IAEXXZ$6
	DD	0ffffffffH
	DD	FLAT:__unwindfunclet$?InitShowAniState@ConsumptionWnd@@IAEXXZ$7
; Function compile flags: /Ogsp
xdata$x	ENDS
;	COMDAT ?InitShowAniState@ConsumptionWnd@@IAEXXZ
_TEXT	SEGMENT
$T528712 = -20						; size = 4
$T528708 = -20						; size = 4
$T528704 = -20						; size = 4
$T528700 = -20						; size = 4
$T528696 = -20						; size = 4
$T528692 = -20						; size = 4
$T528688 = -20						; size = 4
$T528684 = -20						; size = 4
tv256 = -16						; size = 4
__$EHRec$ = -12						; size = 12
?InitShowAniState@ConsumptionWnd@@IAEXXZ PROC		; ConsumptionWnd::InitShowAniState, COMDAT
; _this$ = ecx

; 1156 : {

  00000	6a 08		 push	 8
  00002	b8 00 00 00 00	 mov	 eax, __ehhandler$?InitShowAniState@ConsumptionWnd@@IAEXXZ
  00007	e8 00 00 00 00	 call	 __EH_prolog3

; 1157 : 	enum { DELAY_DELAY = 165, DELAY_UP = 198, DELAY_DOWN = 66, DELAY_UP_STOP = 66, };
; 1158 : 
; 1159 : 	m_ShowAniState.SetCurState( SAT_NONE );

  0000c	81 c1 90 01 00
	00		 add	 ecx, 400		; 00000190H
  00012	33 db		 xor	 ebx, ebx
  00014	53		 push	 ebx
  00015	89 4d f0	 mov	 DWORD PTR tv256[ebp], ecx
  00018	e8 00 00 00 00	 call	 ?SetCurState@FSMStateMgr@@QAEXH@Z ; FSMStateMgr::SetCurState

; 1160 : 
; 1161 : 	FSMState *pState = new FSMState(SAT_NONE);

  0001d	6a 38		 push	 56			; 00000038H
  0001f	e8 00 00 00 00	 call	 ??2@YAPAXI@Z		; operator new
  00024	59		 pop	 ecx
  00025	89 45 ec	 mov	 DWORD PTR $T528684[ebp], eax
  00028	89 5d fc	 mov	 DWORD PTR __$EHRec$[ebp+8], ebx
  0002b	3b c3		 cmp	 eax, ebx
  0002d	74 0c		 je	 SHORT $LN11@InitShowAn@2
  0002f	53		 push	 ebx
  00030	8b c8		 mov	 ecx, eax
  00032	e8 00 00 00 00	 call	 ??0FSMState@@QAE@H@Z	; FSMState::FSMState
  00037	8b f0		 mov	 esi, eax
  00039	eb 02		 jmp	 SHORT $LN12@InitShowAn@2
$LN11@InitShowAn@2:
  0003b	33 f6		 xor	 esi, esi
$LN12@InitShowAn@2:
  0003d	83 4d fc ff	 or	 DWORD PTR __$EHRec$[ebp+8], -1

; 1162 : 	if( pState )

  00041	6a 02		 push	 2
  00043	5f		 pop	 edi
  00044	3b f3		 cmp	 esi, ebx
  00046	74 25		 je	 SHORT $LN8@InitShowAn@2

; 1163 : 	{
; 1164 : 		pState->Add( SAT_DELAY,  SAT_DELAY );

  00048	6a ff		 push	 -1
  0004a	57		 push	 edi
  0004b	57		 push	 edi
  0004c	8b ce		 mov	 ecx, esi
  0004e	e8 00 00 00 00	 call	 ?Add@FSMState@@QAEXHHH@Z ; FSMState::Add

; 1165 : 		pState->Add( SAT_START_ROUND, SAT_START_ROUND );

  00053	6a ff		 push	 -1
  00055	6a 01		 push	 1
  00057	6a 01		 push	 1
  00059	8b ce		 mov	 ecx, esi
  0005b	e8 00 00 00 00	 call	 ?Add@FSMState@@QAEXHHH@Z ; FSMState::Add

; 1166 : 		pState->Add( SAT_END,  SAT_END );

  00060	6a ff		 push	 -1
  00062	6a 07		 push	 7
  00064	6a 07		 push	 7
  00066	8b ce		 mov	 ecx, esi
  00068	e8 00 00 00 00	 call	 ?Add@FSMState@@QAEXHHH@Z ; FSMState::Add
$LN8@InitShowAn@2:

; 1167 : 	}
; 1168 : 	m_ShowAniState.Add( pState );

  0006d	8b 4d f0	 mov	 ecx, DWORD PTR tv256[ebp]
  00070	56		 push	 esi
  00071	e8 00 00 00 00	 call	 ?Add@FSMStateMgr@@QAEXPAVFSMState@@@Z ; FSMStateMgr::Add

; 1169 : 
; 1170 : 	pState = new FSMState(SAT_START_ROUND);

  00076	6a 38		 push	 56			; 00000038H
  00078	e8 00 00 00 00	 call	 ??2@YAPAXI@Z		; operator new
  0007d	59		 pop	 ecx
  0007e	89 45 ec	 mov	 DWORD PTR $T528688[ebp], eax
  00081	33 c9		 xor	 ecx, ecx
  00083	41		 inc	 ecx
  00084	89 4d fc	 mov	 DWORD PTR __$EHRec$[ebp+8], ecx
  00087	3b c3		 cmp	 eax, ebx
  00089	74 0c		 je	 SHORT $LN13@InitShowAn@2
  0008b	51		 push	 ecx
  0008c	8b c8		 mov	 ecx, eax
  0008e	e8 00 00 00 00	 call	 ??0FSMState@@QAE@H@Z	; FSMState::FSMState
  00093	8b f0		 mov	 esi, eax
  00095	eb 02		 jmp	 SHORT $LN14@InitShowAn@2
$LN13@InitShowAn@2:
  00097	33 f6		 xor	 esi, esi
$LN14@InitShowAn@2:
  00099	83 4d fc ff	 or	 DWORD PTR __$EHRec$[ebp+8], -1

; 1171 : 	if( pState )

  0009d	3b f3		 cmp	 esi, ebx
  0009f	74 16		 je	 SHORT $LN7@InitShowAn@2

; 1172 : 	{
; 1173 : 		pState->Add( SAT_DELAY,  SAT_DELAY);

  000a1	6a ff		 push	 -1
  000a3	57		 push	 edi
  000a4	57		 push	 edi
  000a5	8b ce		 mov	 ecx, esi
  000a7	e8 00 00 00 00	 call	 ?Add@FSMState@@QAEXHHH@Z ; FSMState::Add

; 1174 : 		pState->Add( SAT_NONE,  SAT_NONE );

  000ac	6a ff		 push	 -1
  000ae	53		 push	 ebx
  000af	53		 push	 ebx
  000b0	8b ce		 mov	 ecx, esi
  000b2	e8 00 00 00 00	 call	 ?Add@FSMState@@QAEXHHH@Z ; FSMState::Add
$LN7@InitShowAn@2:

; 1175 : 	}
; 1176 : 	m_ShowAniState.Add( pState );	

  000b7	8b 4d f0	 mov	 ecx, DWORD PTR tv256[ebp]
  000ba	56		 push	 esi
  000bb	e8 00 00 00 00	 call	 ?Add@FSMStateMgr@@QAEXPAVFSMState@@@Z ; FSMStateMgr::Add

; 1177 : 
; 1178 : 	pState = new FSMState(SAT_DELAY);

  000c0	6a 38		 push	 56			; 00000038H
  000c2	e8 00 00 00 00	 call	 ??2@YAPAXI@Z		; operator new
  000c7	59		 pop	 ecx
  000c8	89 45 ec	 mov	 DWORD PTR $T528692[ebp], eax
  000cb	89 7d fc	 mov	 DWORD PTR __$EHRec$[ebp+8], edi
  000ce	3b c3		 cmp	 eax, ebx
  000d0	74 0c		 je	 SHORT $LN15@InitShowAn@2
  000d2	57		 push	 edi
  000d3	8b c8		 mov	 ecx, eax
  000d5	e8 00 00 00 00	 call	 ??0FSMState@@QAE@H@Z	; FSMState::FSMState
  000da	8b f0		 mov	 esi, eax
  000dc	eb 02		 jmp	 SHORT $LN16@InitShowAn@2
$LN15@InitShowAn@2:
  000de	33 f6		 xor	 esi, esi
$LN16@InitShowAn@2:
  000e0	83 4d fc ff	 or	 DWORD PTR __$EHRec$[ebp+8], -1

; 1179 : 	if( pState )

  000e4	6a 03		 push	 3
  000e6	5b		 pop	 ebx
  000e7	85 f6		 test	 esi, esi
  000e9	74 0e		 je	 SHORT $LN6@InitShowAn@2

; 1180 : 		pState->Add( SAT_DELAY,  SAT_UP , DELAY_DELAY);

  000eb	68 a5 00 00 00	 push	 165			; 000000a5H
  000f0	53		 push	 ebx
  000f1	57		 push	 edi
  000f2	8b ce		 mov	 ecx, esi
  000f4	e8 00 00 00 00	 call	 ?Add@FSMState@@QAEXHHH@Z ; FSMState::Add
$LN6@InitShowAn@2:

; 1181 : 	m_ShowAniState.Add( pState );	

  000f9	8b 4d f0	 mov	 ecx, DWORD PTR tv256[ebp]
  000fc	56		 push	 esi
  000fd	e8 00 00 00 00	 call	 ?Add@FSMStateMgr@@QAEXPAVFSMState@@@Z ; FSMStateMgr::Add

; 1182 : 
; 1183 : 	pState = new FSMState(SAT_UP);

  00102	6a 38		 push	 56			; 00000038H
  00104	e8 00 00 00 00	 call	 ??2@YAPAXI@Z		; operator new
  00109	59		 pop	 ecx
  0010a	89 45 ec	 mov	 DWORD PTR $T528696[ebp], eax
  0010d	89 5d fc	 mov	 DWORD PTR __$EHRec$[ebp+8], ebx
  00110	85 c0		 test	 eax, eax
  00112	74 0c		 je	 SHORT $LN17@InitShowAn@2
  00114	53		 push	 ebx
  00115	8b c8		 mov	 ecx, eax
  00117	e8 00 00 00 00	 call	 ??0FSMState@@QAE@H@Z	; FSMState::FSMState
  0011c	8b f8		 mov	 edi, eax
  0011e	eb 02		 jmp	 SHORT $LN18@InitShowAn@2
$LN17@InitShowAn@2:
  00120	33 ff		 xor	 edi, edi
$LN18@InitShowAn@2:
  00122	83 4d fc ff	 or	 DWORD PTR __$EHRec$[ebp+8], -1

; 1184 : 	if( pState )

  00126	6a 04		 push	 4
  00128	5e		 pop	 esi
  00129	85 ff		 test	 edi, edi
  0012b	74 0e		 je	 SHORT $LN5@InitShowAn@2

; 1185 : 		pState->Add( SAT_UP,  SAT_DOWN , DELAY_UP);

  0012d	68 c6 00 00 00	 push	 198			; 000000c6H
  00132	56		 push	 esi
  00133	53		 push	 ebx
  00134	8b cf		 mov	 ecx, edi
  00136	e8 00 00 00 00	 call	 ?Add@FSMState@@QAEXHHH@Z ; FSMState::Add
$LN5@InitShowAn@2:

; 1186 : 	m_ShowAniState.Add( pState );

  0013b	8b 4d f0	 mov	 ecx, DWORD PTR tv256[ebp]
  0013e	57		 push	 edi
  0013f	e8 00 00 00 00	 call	 ?Add@FSMStateMgr@@QAEXPAVFSMState@@@Z ; FSMStateMgr::Add

; 1187 : 
; 1188 : 	pState = new FSMState(SAT_DOWN);

  00144	6a 38		 push	 56			; 00000038H
  00146	e8 00 00 00 00	 call	 ??2@YAPAXI@Z		; operator new
  0014b	59		 pop	 ecx
  0014c	89 45 ec	 mov	 DWORD PTR $T528700[ebp], eax
  0014f	89 75 fc	 mov	 DWORD PTR __$EHRec$[ebp+8], esi
  00152	85 c0		 test	 eax, eax
  00154	74 0c		 je	 SHORT $LN19@InitShowAn@2
  00156	56		 push	 esi
  00157	8b c8		 mov	 ecx, eax
  00159	e8 00 00 00 00	 call	 ??0FSMState@@QAE@H@Z	; FSMState::FSMState
  0015e	8b d8		 mov	 ebx, eax
  00160	eb 02		 jmp	 SHORT $LN20@InitShowAn@2
$LN19@InitShowAn@2:
  00162	33 db		 xor	 ebx, ebx
$LN20@InitShowAn@2:
  00164	83 4d fc ff	 or	 DWORD PTR __$EHRec$[ebp+8], -1

; 1189 : 	if( pState )

  00168	6a 05		 push	 5
  0016a	5f		 pop	 edi
  0016b	85 db		 test	 ebx, ebx
  0016d	74 0b		 je	 SHORT $LN4@InitShowAn@2

; 1190 : 		pState->Add( SAT_DOWN,  SAT_UP_STOP , DELAY_DOWN );

  0016f	6a 42		 push	 66			; 00000042H
  00171	57		 push	 edi
  00172	56		 push	 esi
  00173	8b cb		 mov	 ecx, ebx
  00175	e8 00 00 00 00	 call	 ?Add@FSMState@@QAEXHHH@Z ; FSMState::Add
$LN4@InitShowAn@2:

; 1191 : 	m_ShowAniState.Add( pState );

  0017a	8b 4d f0	 mov	 ecx, DWORD PTR tv256[ebp]
  0017d	53		 push	 ebx
  0017e	e8 00 00 00 00	 call	 ?Add@FSMStateMgr@@QAEXPAVFSMState@@@Z ; FSMStateMgr::Add

; 1192 : 
; 1193 : 	pState = new FSMState(SAT_UP_STOP);

  00183	6a 38		 push	 56			; 00000038H
  00185	e8 00 00 00 00	 call	 ??2@YAPAXI@Z		; operator new
  0018a	59		 pop	 ecx
  0018b	89 45 ec	 mov	 DWORD PTR $T528704[ebp], eax
  0018e	89 7d fc	 mov	 DWORD PTR __$EHRec$[ebp+8], edi
  00191	85 c0		 test	 eax, eax
  00193	74 0c		 je	 SHORT $LN21@InitShowAn@2
  00195	57		 push	 edi
  00196	8b c8		 mov	 ecx, eax
  00198	e8 00 00 00 00	 call	 ??0FSMState@@QAE@H@Z	; FSMState::FSMState
  0019d	8b d8		 mov	 ebx, eax
  0019f	eb 02		 jmp	 SHORT $LN22@InitShowAn@2
$LN21@InitShowAn@2:
  001a1	33 db		 xor	 ebx, ebx
$LN22@InitShowAn@2:
  001a3	83 4d fc ff	 or	 DWORD PTR __$EHRec$[ebp+8], -1

; 1194 : 	if( pState )

  001a7	6a 06		 push	 6
  001a9	5e		 pop	 esi
  001aa	85 db		 test	 ebx, ebx
  001ac	74 0b		 je	 SHORT $LN3@InitShowAn@2

; 1195 : 		pState->Add( SAT_UP_STOP,  SAT_STOP , DELAY_UP_STOP );

  001ae	6a 42		 push	 66			; 00000042H
  001b0	56		 push	 esi
  001b1	57		 push	 edi
  001b2	8b cb		 mov	 ecx, ebx
  001b4	e8 00 00 00 00	 call	 ?Add@FSMState@@QAEXHHH@Z ; FSMState::Add
$LN3@InitShowAn@2:

; 1196 : 	m_ShowAniState.Add( pState );

  001b9	8b 4d f0	 mov	 ecx, DWORD PTR tv256[ebp]
  001bc	53		 push	 ebx
  001bd	e8 00 00 00 00	 call	 ?Add@FSMStateMgr@@QAEXPAVFSMState@@@Z ; FSMStateMgr::Add

; 1197 : 
; 1198 : 	pState = new FSMState(SAT_STOP);

  001c2	6a 38		 push	 56			; 00000038H
  001c4	e8 00 00 00 00	 call	 ??2@YAPAXI@Z		; operator new
  001c9	59		 pop	 ecx
  001ca	89 45 ec	 mov	 DWORD PTR $T528708[ebp], eax
  001cd	89 75 fc	 mov	 DWORD PTR __$EHRec$[ebp+8], esi
  001d0	85 c0		 test	 eax, eax
  001d2	74 0c		 je	 SHORT $LN23@InitShowAn@2
  001d4	56		 push	 esi
  001d5	8b c8		 mov	 ecx, eax
  001d7	e8 00 00 00 00	 call	 ??0FSMState@@QAE@H@Z	; FSMState::FSMState
  001dc	8b f0		 mov	 esi, eax
  001de	eb 02		 jmp	 SHORT $LN24@InitShowAn@2
$LN23@InitShowAn@2:
  001e0	33 f6		 xor	 esi, esi
$LN24@InitShowAn@2:
  001e2	83 cf ff	 or	 edi, -1
  001e5	89 7d fc	 mov	 DWORD PTR __$EHRec$[ebp+8], edi

; 1199 : 	if( pState )

  001e8	85 f6		 test	 esi, esi
  001ea	74 0c		 je	 SHORT $LN2@InitShowAn@2

; 1200 : 		pState->Add( SAT_END,  SAT_END );

  001ec	57		 push	 edi
  001ed	6a 07		 push	 7
  001ef	6a 07		 push	 7
  001f1	8b ce		 mov	 ecx, esi
  001f3	e8 00 00 00 00	 call	 ?Add@FSMState@@QAEXHHH@Z ; FSMState::Add
$LN2@InitShowAn@2:

; 1201 : 	m_ShowAniState.Add( pState );

  001f8	8b 4d f0	 mov	 ecx, DWORD PTR tv256[ebp]
  001fb	56		 push	 esi
  001fc	e8 00 00 00 00	 call	 ?Add@FSMStateMgr@@QAEXPAVFSMState@@@Z ; FSMStateMgr::Add

; 1202 : 
; 1203 : 	pState = new FSMState(SAT_END);

  00201	6a 38		 push	 56			; 00000038H
  00203	e8 00 00 00 00	 call	 ??2@YAPAXI@Z		; operator new
  00208	59		 pop	 ecx
  00209	89 45 ec	 mov	 DWORD PTR $T528712[ebp], eax
  0020c	6a 07		 push	 7
  0020e	59		 pop	 ecx
  0020f	89 4d fc	 mov	 DWORD PTR __$EHRec$[ebp+8], ecx
  00212	85 c0		 test	 eax, eax
  00214	74 0c		 je	 SHORT $LN25@InitShowAn@2
  00216	51		 push	 ecx
  00217	8b c8		 mov	 ecx, eax
  00219	e8 00 00 00 00	 call	 ??0FSMState@@QAE@H@Z	; FSMState::FSMState
  0021e	8b f0		 mov	 esi, eax
  00220	eb 02		 jmp	 SHORT $LN26@InitShowAn@2
$LN25@InitShowAn@2:
  00222	33 f6		 xor	 esi, esi
$LN26@InitShowAn@2:
  00224	89 7d fc	 mov	 DWORD PTR __$EHRec$[ebp+8], edi

; 1204 : 	if( pState )

  00227	85 f6		 test	 esi, esi
  00229	74 18		 je	 SHORT $LN1@InitShowAn@2

; 1205 : 	{
; 1206 : 		pState->Add( SAT_NONE,  SAT_NONE );

  0022b	57		 push	 edi
  0022c	6a 00		 push	 0
  0022e	6a 00		 push	 0
  00230	8b ce		 mov	 ecx, esi
  00232	e8 00 00 00 00	 call	 ?Add@FSMState@@QAEXHHH@Z ; FSMState::Add

; 1207 : 		pState->Add( SAT_START_ROUND, SAT_START_ROUND );

  00237	57		 push	 edi
  00238	6a 01		 push	 1
  0023a	6a 01		 push	 1
  0023c	8b ce		 mov	 ecx, esi
  0023e	e8 00 00 00 00	 call	 ?Add@FSMState@@QAEXHHH@Z ; FSMState::Add
$LN1@InitShowAn@2:

; 1208 : 	}
; 1209 : 	m_ShowAniState.Add( pState );

  00243	8b 4d f0	 mov	 ecx, DWORD PTR tv256[ebp]
  00246	56		 push	 esi
  00247	e8 00 00 00 00	 call	 ?Add@FSMStateMgr@@QAEXPAVFSMState@@@Z ; FSMStateMgr::Add

; 1210 : }

  0024c	e8 00 00 00 00	 call	 __EH_epilog3
  00251	c3		 ret	 0
_TEXT	ENDS
;	COMDAT text$x
text$x	SEGMENT
__unwindfunclet$?InitShowAniState@ConsumptionWnd@@IAEXXZ$0:
  00000	ff 75 ec	 push	 DWORD PTR $T528684[ebp]
  00003	e8 00 00 00 00	 call	 ??3@YAXPAX@Z		; operator delete
  00008	59		 pop	 ecx
  00009	c3		 ret	 0
__unwindfunclet$?InitShowAniState@ConsumptionWnd@@IAEXXZ$1:
  0000a	ff 75 ec	 push	 DWORD PTR $T528688[ebp]
  0000d	e8 00 00 00 00	 call	 ??3@YAXPAX@Z		; operator delete
  00012	59		 pop	 ecx
  00013	c3		 ret	 0
__unwindfunclet$?InitShowAniState@ConsumptionWnd@@IAEXXZ$2:
  00014	ff 75 ec	 push	 DWORD PTR $T528692[ebp]
  00017	e8 00 00 00 00	 call	 ??3@YAXPAX@Z		; operator delete
  0001c	59		 pop	 ecx
  0001d	c3		 ret	 0
__unwindfunclet$?InitShowAniState@ConsumptionWnd@@IAEXXZ$3:
  0001e	ff 75 ec	 push	 DWORD PTR $T528696[ebp]
  00021	e8 00 00 00 00	 call	 ??3@YAXPAX@Z		; operator delete
  00026	59		 pop	 ecx
  00027	c3		 ret	 0
__unwindfunclet$?InitShowAniState@ConsumptionWnd@@IAEXXZ$4:
  00028	ff 75 ec	 push	 DWORD PTR $T528700[ebp]
  0002b	e8 00 00 00 00	 call	 ??3@YAXPAX@Z		; operator delete
  00030	59		 pop	 ecx
  00031	c3		 ret	 0
__unwindfunclet$?InitShowAniState@ConsumptionWnd@@IAEXXZ$5:
  00032	ff 75 ec	 push	 DWORD PTR $T528704[ebp]
  00035	e8 00 00 00 00	 call	 ??3@YAXPAX@Z		; operator delete
  0003a	59		 pop	 ecx
  0003b	c3		 ret	 0
__unwindfunclet$?InitShowAniState@ConsumptionWnd@@IAEXXZ$6:
  0003c	ff 75 ec	 push	 DWORD PTR $T528708[ebp]
  0003f	e8 00 00 00 00	 call	 ??3@YAXPAX@Z		; operator delete
  00044	59		 pop	 ecx
  00045	c3		 ret	 0
__unwindfunclet$?InitShowAniState@ConsumptionWnd@@IAEXXZ$7:
  00046	ff 75 ec	 push	 DWORD PTR $T528712[ebp]
  00049	e8 00 00 00 00	 call	 ??3@YAXPAX@Z		; operator delete
  0004e	59		 pop	 ecx
  0004f	c3		 ret	 0
__ehhandler$?InitShowAniState@ConsumptionWnd@@IAEXXZ:
  00050	8b 54 24 08	 mov	 edx, DWORD PTR [esp+8]
  00054	8d 42 0c	 lea	 eax, DWORD PTR [edx+12]
  00057	8b 4a e8	 mov	 ecx, DWORD PTR [edx-24]
  0005a	33 c8		 xor	 ecx, eax
  0005c	e8 00 00 00 00	 call	 @__security_check_cookie@4
  00061	b8 00 00 00 00	 mov	 eax, OFFSET __ehfuncinfo$?InitShowAniState@ConsumptionWnd@@IAEXXZ
  00066	e9 00 00 00 00	 jmp	 ___CxxFrameHandler3
text$x	ENDS
?InitShowAniState@ConsumptionWnd@@IAEXXZ ENDP		; ConsumptionWnd::InitShowAniState
PUBLIC	?ChangeShowAniState@ConsumptionWnd@@QAEXW4ShowAniType@1@@Z ; ConsumptionWnd::ChangeShowAniState
; Function compile flags: /Ogsp
;	COMDAT ?ChangeShowAniState@ConsumptionWnd@@QAEXW4ShowAniType@1@@Z
_TEXT	SEGMENT
_eShowAniType$ = 8					; size = 4
?ChangeShowAniState@ConsumptionWnd@@QAEXW4ShowAniType@1@@Z PROC ; ConsumptionWnd::ChangeShowAniState, COMDAT
; _this$ = ecx

; 1231 : {

  00000	55		 push	 ebp
  00001	8b ec		 mov	 ebp, esp

; 1232 : 	m_ShowAniState.ChangeState( (int) eShowAniType );

  00003	81 c1 90 01 00
	00		 add	 ecx, 400		; 00000190H

; 1233 : }

  00009	5d		 pop	 ebp

; 1232 : 	m_ShowAniState.ChangeState( (int) eShowAniType );

  0000a	e9 00 00 00 00	 jmp	 ?ChangeState@FSMStateMgr@@QAEHH@Z ; FSMStateMgr::ChangeState
?ChangeShowAniState@ConsumptionWnd@@QAEXW4ShowAniType@1@@Z ENDP ; ConsumptionWnd::ChangeShowAniState
_TEXT	ENDS
PUBLIC	?UpdateDefaultPos@ConsumptionWnd@@IAEXXZ	; ConsumptionWnd::UpdateDefaultPos
; Function compile flags: /Ogsp
;	COMDAT ?UpdateDefaultPos@ConsumptionWnd@@IAEXXZ
_TEXT	SEGMENT
?UpdateDefaultPos@ConsumptionWnd@@IAEXXZ PROC		; ConsumptionWnd::UpdateDefaultPos, COMDAT
; _this$ = ecx

; 1286 : {

  00000	56		 push	 esi
  00001	8b f1		 mov	 esi, ecx

; 1287 : 	if( g_GUIMgr.IsDragMove( m_dwID ) || IsMoving() )

  00003	ff 76 14	 push	 DWORD PTR [esi+20]
  00006	e8 00 00 00 00	 call	 ?GetSingleton@ioSP2GUIManager@@SAAAV1@XZ ; ioSP2GUIManager::GetSingleton
  0000b	8b c8		 mov	 ecx, eax
  0000d	e8 00 00 00 00	 call	 ?IsDragMove@ioSP2GUIManager@@QBE_NK@Z ; ioSP2GUIManager::IsDragMove
  00012	84 c0		 test	 al, al
  00014	75 10		 jne	 SHORT $LN5@UpdateDefa@2
  00016	8b ce		 mov	 ecx, esi
  00018	ff 15 00 00 00
	00		 call	 DWORD PTR __imp_?IsMoving@ioMovingWnd@@QAE_NXZ
  0001e	84 c0		 test	 al, al
  00020	0f 84 8d 00 00
	00		 je	 $LN1@UpdateDefa@2
$LN5@UpdateDefa@2:
  00026	53		 push	 ebx
  00027	57		 push	 edi

; 1288 : 	{
; 1289 : 		if( m_iDefaultX != GetXPos() )

  00028	8b ce		 mov	 ecx, esi
  0002a	ff 15 00 00 00
	00		 call	 DWORD PTR __imp_?GetXPos@ioWnd@@QBEHXZ
  00030	33 db		 xor	 ebx, ebx
  00032	43		 inc	 ebx
  00033	39 86 c0 01 00
	00		 cmp	 DWORD PTR [esi+448], eax
  00039	74 39		 je	 SHORT $LN3@UpdateDefa@2

; 1290 : 		{
; 1291 : 			if( COMPARE( GetXPos(), 0, (Setting::Width() - GetWidth() ) + 1 ))

  0003b	8b ce		 mov	 ecx, esi
  0003d	ff 15 00 00 00
	00		 call	 DWORD PTR __imp_?GetXPos@ioWnd@@QBEHXZ
  00043	85 c0		 test	 eax, eax
  00045	78 2d		 js	 SHORT $LN3@UpdateDefa@2
  00047	8b ce		 mov	 ecx, esi
  00049	ff 15 00 00 00
	00		 call	 DWORD PTR __imp_?GetWidth@ioWnd@@QBEHXZ
  0004f	8b fb		 mov	 edi, ebx
  00051	2b f8		 sub	 edi, eax
  00053	e8 00 00 00 00	 call	 ?Width@Setting@@SAHXZ	; Setting::Width
  00058	8b ce		 mov	 ecx, esi
  0005a	03 f8		 add	 edi, eax
  0005c	ff 15 00 00 00
	00		 call	 DWORD PTR __imp_?GetXPos@ioWnd@@QBEHXZ
  00062	3b c7		 cmp	 eax, edi
  00064	7d 0e		 jge	 SHORT $LN3@UpdateDefa@2

; 1292 : 				m_iDefaultX = GetXPos();

  00066	8b ce		 mov	 ecx, esi
  00068	ff 15 00 00 00
	00		 call	 DWORD PTR __imp_?GetXPos@ioWnd@@QBEHXZ
  0006e	89 86 c0 01 00
	00		 mov	 DWORD PTR [esi+448], eax
$LN3@UpdateDefa@2:

; 1293 : 		}
; 1294 : 
; 1295 : 		if( m_iDefaultY != GetYPos() )

  00074	8b ce		 mov	 ecx, esi
  00076	ff 15 00 00 00
	00		 call	 DWORD PTR __imp_?GetYPos@ioWnd@@QBEHXZ
  0007c	39 86 c4 01 00
	00		 cmp	 DWORD PTR [esi+452], eax
  00082	74 2d		 je	 SHORT $LN9@UpdateDefa@2

; 1296 : 		{
; 1297 : 			int iYPos = GetYPos() - m_iBlindOffSetY;

  00084	8b ce		 mov	 ecx, esi
  00086	ff 15 00 00 00
	00		 call	 DWORD PTR __imp_?GetYPos@ioWnd@@QBEHXZ
  0008c	8b f8		 mov	 edi, eax
  0008e	2b be b8 01 00
	00		 sub	 edi, DWORD PTR [esi+440]

; 1298 : 			if( COMPARE( iYPos, 0, (Setting::Height() - GetHeight() ) + 1 ))

  00094	78 1b		 js	 SHORT $LN9@UpdateDefa@2
  00096	8b ce		 mov	 ecx, esi
  00098	ff 15 00 00 00
	00		 call	 DWORD PTR __imp_?GetHeight@ioWnd@@QBEHXZ
  0009e	2b d8		 sub	 ebx, eax
  000a0	e8 00 00 00 00	 call	 ?Height@Setting@@SAHXZ	; Setting::Height
  000a5	03 c3		 add	 eax, ebx
  000a7	3b f8		 cmp	 edi, eax
  000a9	7d 06		 jge	 SHORT $LN9@UpdateDefa@2

; 1299 : 				m_iDefaultY = iYPos;

  000ab	89 be c4 01 00
	00		 mov	 DWORD PTR [esi+452], edi
$LN9@UpdateDefa@2:
  000b1	5f		 pop	 edi
  000b2	5b		 pop	 ebx
$LN1@UpdateDefa@2:
  000b3	5e		 pop	 esi

; 1300 : 		}
; 1301 : 	}
; 1302 : }

  000b4	c3		 ret	 0
?UpdateDefaultPos@ConsumptionWnd@@IAEXXZ ENDP		; ConsumptionWnd::UpdateDefaultPos
; Function compile flags: /Ogsp
_TEXT	ENDS
;	COMDAT ?SetPositionToDefault@ConsumptionWnd@@UAEXHH_N0@Z
_TEXT	SEGMENT
_iParentWidth$ = 8					; size = 4
_iParentHeight$ = 12					; size = 4
_bChildMove$ = 16					; size = 1
_bCreate$ = 20						; size = 1
?SetPositionToDefault@ConsumptionWnd@@UAEXHH_N0@Z PROC	; ConsumptionWnd::SetPositionToDefault, COMDAT
; _this$ = ecx

; 1305 : {

  00000	55		 push	 ebp
  00001	8b ec		 mov	 ebp, esp
  00003	56		 push	 esi

; 1306 : 	ioMovingWnd::SetPositionToDefault( iParentWidth, iParentHeight, bChildMove, bCreate );

  00004	ff 75 14	 push	 DWORD PTR _bCreate$[ebp]
  00007	8b f1		 mov	 esi, ecx
  00009	ff 75 10	 push	 DWORD PTR _bChildMove$[ebp]
  0000c	ff 75 0c	 push	 DWORD PTR _iParentHeight$[ebp]
  0000f	ff 75 08	 push	 DWORD PTR _iParentWidth$[ebp]
  00012	ff 15 00 00 00
	00		 call	 DWORD PTR __imp_?SetPositionToDefault@ioMovingWnd@@UAEXHH_N0@Z

; 1307 : 
; 1308 : 	if( !bCreate )

  00018	80 7d 14 00	 cmp	 BYTE PTR _bCreate$[ebp], 0
  0001c	75 33		 jne	 SHORT $LN1@SetPositio@2

; 1309 : 	{
; 1310 : 		m_iDefaultX = GetXPos();

  0001e	8b ce		 mov	 ecx, esi
  00020	ff 15 00 00 00
	00		 call	 DWORD PTR __imp_?GetXPos@ioWnd@@QBEHXZ

; 1311 : 		m_iDefaultY = GetYPos();

  00026	8b ce		 mov	 ecx, esi
  00028	89 86 c0 01 00
	00		 mov	 DWORD PTR [esi+448], eax
  0002e	ff 15 00 00 00
	00		 call	 DWORD PTR __imp_?GetYPos@ioWnd@@QBEHXZ

; 1312 : 		SetWndPos( m_iDefaultX, m_iDefaultY + m_iBlindOffSetY );

  00034	8b 8e b8 01 00
	00		 mov	 ecx, DWORD PTR [esi+440]
  0003a	03 c8		 add	 ecx, eax
  0003c	51		 push	 ecx
  0003d	ff b6 c0 01 00
	00		 push	 DWORD PTR [esi+448]
  00043	8b ce		 mov	 ecx, esi
  00045	89 86 c4 01 00
	00		 mov	 DWORD PTR [esi+452], eax
  0004b	ff 15 00 00 00
	00		 call	 DWORD PTR __imp_?SetWndPos@ioWnd@@QAEXHH@Z
$LN1@SetPositio@2:
  00051	5e		 pop	 esi

; 1313 : 	}
; 1314 : }

  00052	5d		 pop	 ebp
  00053	c2 10 00	 ret	 16			; 00000010H
?SetPositionToDefault@ConsumptionWnd@@UAEXHH_N0@Z ENDP	; ConsumptionWnd::SetPositionToDefault
_TEXT	ENDS
PUBLIC	??_7ConsumptionSlotBtn@@6B@			; ConsumptionSlotBtn::`vftable'
PUBLIC	??0ConsumptionSlotBtn@@QAE@XZ			; ConsumptionSlotBtn::ConsumptionSlotBtn
PUBLIC	??_R4ConsumptionSlotBtn@@6B@			; ConsumptionSlotBtn::`RTTI Complete Object Locator'
PUBLIC	??_R0?AVConsumptionSlotBtn@@@8			; ConsumptionSlotBtn `RTTI Type Descriptor'
PUBLIC	??_R3ConsumptionSlotBtn@@8			; ConsumptionSlotBtn::`RTTI Class Hierarchy Descriptor'
PUBLIC	??_R2ConsumptionSlotBtn@@8			; ConsumptionSlotBtn::`RTTI Base Class Array'
PUBLIC	??_R1A@?0A@EA@ConsumptionSlotBtn@@8		; ConsumptionSlotBtn::`RTTI Base Class Descriptor at (0,-1,0,64)'
PUBLIC	??_R1A@?0A@EA@ioButton@@8			; ioButton::`RTTI Base Class Descriptor at (0,-1,0,64)'
PUBLIC	??_R0?AVioButton@@@8				; ioButton `RTTI Type Descriptor'
PUBLIC	??_R3ioButton@@8				; ioButton::`RTTI Class Hierarchy Descriptor'
PUBLIC	??_R2ioButton@@8				; ioButton::`RTTI Base Class Array'
PUBLIC	?AddRenderImage@ConsumptionSlotBtn@@MAEXABVioHashString@@PAVioUIRenderImage@@@Z ; ConsumptionSlotBtn::AddRenderImage
PUBLIC	?OnRender@ConsumptionSlotBtn@@MAEXXZ		; ConsumptionSlotBtn::OnRender
PUBLIC	?OnProcess@ConsumptionSlotBtn@@MAEXM@Z		; ConsumptionSlotBtn::OnProcess
PUBLIC	?iwm_create@ConsumptionSlotBtn@@UAEXXZ		; ConsumptionSlotBtn::iwm_create
EXTRN	__imp_??1ioButton@@UAE@XZ:PROC
EXTRN	__imp_??0ioButton@@QAE@XZ:PROC
EXTRN	?AddRenderFrame@ioButton@@UAEXABVioHashString@@PAVioUIRenderFrame@@@Z:PROC ; ioButton::AddRenderFrame
EXTRN	?ParseExtraInfo@ioButton@@UAEXAAVioXMLElement@@@Z:PROC ; ioButton::ParseExtraInfo
EXTRN	?SetWindowAlpha@ioButton@@UAEXH@Z:PROC		; ioButton::SetWindowAlpha
EXTRN	?SetPositionToDefault@ioWnd@@UAEXHH_N0@Z:PROC	; ioWnd::SetPositionToDefault
EXTRN	?OnMouseProcess@ioWnd@@MAEXABVioMouse@@@Z:PROC	; ioWnd::OnMouseProcess
EXTRN	?CheckFrameReSize@ioButton@@MAEXHHHH@Z:PROC	; ioButton::CheckFrameReSize
EXTRN	?iwm_lbuttondown@ioButton@@UAEXABVioMouse@@@Z:PROC ; ioButton::iwm_lbuttondown
EXTRN	?iwm_lbuttonup@ioButton@@UAEXABVioMouse@@@Z:PROC ; ioButton::iwm_lbuttonup
EXTRN	?iwm_lbuttonDBLCLK@ioButton@@UAEXABVioMouse@@@Z:PROC ; ioButton::iwm_lbuttonDBLCLK
EXTRN	?iwm_rbuttondown@ioButton@@UAEXABVioMouse@@@Z:PROC ; ioButton::iwm_rbuttondown
EXTRN	?iwm_rbuttonup@ioButton@@UAEXABVioMouse@@@Z:PROC ; ioButton::iwm_rbuttonup
EXTRN	?iwm_mouseover@ioButton@@UAEXABVioMouse@@@Z:PROC ; ioButton::iwm_mouseover
EXTRN	?GetWndType@ioButton@@UBEKXZ:PROC		; ioButton::GetWndType
EXTRN	?GetHeaderFileName@ioButton@@UAEPBDXZ:PROC	; ioButton::GetHeaderFileName
EXTRN	?GetTemplateName@ioButton@@UAEPBDXZ:PROC	; ioButton::GetTemplateName
EXTRN	?GetDefClassName@ioButton@@UBEPBDXZ:PROC	; ioButton::GetDefClassName
EXTRN	?_Clone@ioButton@@UAEPAVioWnd@@XZ:PROC		; ioButton::_Clone
EXTRN	?Copy@ioButton@@UAEXPAVioWnd@@@Z:PROC		; ioButton::Copy
EXTRN	?SetSaveData@ioButton@@UAEXAAVioXMLElement@@@Z:PROC ; ioButton::SetSaveData
EXTRN	?GetNumFixedRenderFrame@ioButton@@UBEHXZ:PROC	; ioButton::GetNumFixedRenderFrame
EXTRN	?GetFixedRenderFrameType@ioButton@@UAEPBDH@Z:PROC ; ioButton::GetFixedRenderFrameType
EXTRN	?GetRenderFrame@ioButton@@UAEPAPAVioUIRenderElement@@PBD@Z:PROC ; ioButton::GetRenderFrame
EXTRN	?GetNumFixedRenderImage@ioButton@@UBEHXZ:PROC	; ioButton::GetNumFixedRenderImage
EXTRN	?GetFixedRenderImageType@ioButton@@UAEPBDH@Z:PROC ; ioButton::GetFixedRenderImageType
EXTRN	?GetRenderImage@ioButton@@UAEPAPAVioUIRenderElement@@PBD@Z:PROC ; ioButton::GetRenderImage
EXTRN	??_EConsumptionSlotBtn@@UAEPAXI@Z:PROC		; ConsumptionSlotBtn::`vector deleting destructor'
EXTRN	?OnDrawNormal@ioButton@@MAEXHH@Z:PROC		; ioButton::OnDrawNormal
EXTRN	?OnDrawOvered@ioButton@@MAEXHH@Z:PROC		; ioButton::OnDrawOvered
EXTRN	?OnDrawOveredAdd@ioButton@@MAEXHH@Z:PROC	; ioButton::OnDrawOveredAdd
EXTRN	?OnDrawPushed@ioButton@@MAEXHH@Z:PROC		; ioButton::OnDrawPushed
EXTRN	?OnDrawDisabled@ioButton@@MAEXHH@Z:PROC		; ioButton::OnDrawDisabled
EXTRN	?OnDrawExDisabledNormal@ioButton@@MAEXHH@Z:PROC	; ioButton::OnDrawExDisabledNormal
EXTRN	?OnDrawExDisabledOvered@ioButton@@MAEXHH@Z:PROC	; ioButton::OnDrawExDisabledOvered
EXTRN	?OnDrawExDisabledPushed@ioButton@@MAEXHH@Z:PROC	; ioButton::OnDrawExDisabledPushed
EXTRN	?OnDrawBack@ioButton@@MAEXHH@Z:PROC		; ioButton::OnDrawBack
EXTRN	?OnDrawNormalList@ioButton@@MAEXHH@Z:PROC	; ioButton::OnDrawNormalList
EXTRN	?OnDrawDisableList@ioButton@@MAEXHH@Z:PROC	; ioButton::OnDrawDisableList
;	COMDAT ??_R2ioButton@@8
rdata$r	SEGMENT
??_R2ioButton@@8 DD FLAT:??_R1A@?0A@EA@ioButton@@8	; ioButton::`RTTI Base Class Array'
	DD	FLAT:??_R1A@?0A@EA@ioWnd@@8
rdata$r	ENDS
;	COMDAT ??_R3ioButton@@8
rdata$r	SEGMENT
??_R3ioButton@@8 DD 00H					; ioButton::`RTTI Class Hierarchy Descriptor'
	DD	00H
	DD	02H
	DD	FLAT:??_R2ioButton@@8
rdata$r	ENDS
;	COMDAT ??_R0?AVioButton@@@8
_DATA	SEGMENT
??_R0?AVioButton@@@8 DD FLAT:??_7type_info@@6B@		; ioButton `RTTI Type Descriptor'
	DD	00H
	DB	'.?AVioButton@@', 00H
_DATA	ENDS
;	COMDAT ??_R1A@?0A@EA@ioButton@@8
rdata$r	SEGMENT
??_R1A@?0A@EA@ioButton@@8 DD FLAT:??_R0?AVioButton@@@8	; ioButton::`RTTI Base Class Descriptor at (0,-1,0,64)'
	DD	01H
	DD	00H
	DD	0ffffffffH
	DD	00H
	DD	040H
	DD	FLAT:??_R3ioButton@@8
rdata$r	ENDS
;	COMDAT ??_R1A@?0A@EA@ConsumptionSlotBtn@@8
rdata$r	SEGMENT
??_R1A@?0A@EA@ConsumptionSlotBtn@@8 DD FLAT:??_R0?AVConsumptionSlotBtn@@@8 ; ConsumptionSlotBtn::`RTTI Base Class Descriptor at (0,-1,0,64)'
	DD	02H
	DD	00H
	DD	0ffffffffH
	DD	00H
	DD	040H
	DD	FLAT:??_R3ConsumptionSlotBtn@@8
rdata$r	ENDS
;	COMDAT ??_R2ConsumptionSlotBtn@@8
rdata$r	SEGMENT
??_R2ConsumptionSlotBtn@@8 DD FLAT:??_R1A@?0A@EA@ConsumptionSlotBtn@@8 ; ConsumptionSlotBtn::`RTTI Base Class Array'
	DD	FLAT:??_R1A@?0A@EA@ioButton@@8
	DD	FLAT:??_R1A@?0A@EA@ioWnd@@8
rdata$r	ENDS
;	COMDAT ??_R3ConsumptionSlotBtn@@8
rdata$r	SEGMENT
??_R3ConsumptionSlotBtn@@8 DD 00H			; ConsumptionSlotBtn::`RTTI Class Hierarchy Descriptor'
	DD	00H
	DD	03H
	DD	FLAT:??_R2ConsumptionSlotBtn@@8
rdata$r	ENDS
;	COMDAT ??_R0?AVConsumptionSlotBtn@@@8
_DATA	SEGMENT
??_R0?AVConsumptionSlotBtn@@@8 DD FLAT:??_7type_info@@6B@ ; ConsumptionSlotBtn `RTTI Type Descriptor'
	DD	00H
	DB	'.?AVConsumptionSlotBtn@@', 00H
_DATA	ENDS
;	COMDAT ??_R4ConsumptionSlotBtn@@6B@
rdata$r	SEGMENT
??_R4ConsumptionSlotBtn@@6B@ DD 00H			; ConsumptionSlotBtn::`RTTI Complete Object Locator'
	DD	00H
	DD	00H
	DD	FLAT:??_R0?AVConsumptionSlotBtn@@@8
	DD	FLAT:??_R3ConsumptionSlotBtn@@8
rdata$r	ENDS
;	COMDAT ??_7ConsumptionSlotBtn@@6B@
CONST	SEGMENT
??_7ConsumptionSlotBtn@@6B@ DD FLAT:??_R4ConsumptionSlotBtn@@6B@ ; ConsumptionSlotBtn::`vftable'
	DD	FLAT:?AddRenderFrame@ioButton@@UAEXABVioHashString@@PAVioUIRenderFrame@@@Z
	DD	FLAT:?AddRenderImage@ConsumptionSlotBtn@@MAEXABVioHashString@@PAVioUIRenderImage@@@Z
	DD	FLAT:?AddTooltipHelp@ioWnd@@UAEXABVioHashString@@00@Z
	DD	FLAT:?ParseExtraInfo@ioButton@@UAEXAAVioXMLElement@@@Z
	DD	FLAT:?AddNamedRenderImage@ioWnd@@UAEXABVioHashString@@PAVioUIRenderImage@@@Z
	DD	FLAT:?RemoveNamedRenderImage@ioWnd@@UAEXABVioHashString@@@Z
	DD	FLAT:?GetNamedRenderImage@ioWnd@@UBEPAVioUIRenderImage@@ABVioHashString@@@Z
	DD	FLAT:?SetWindowAlpha@ioButton@@UAEXH@Z
	DD	FLAT:?SetActive@ioWnd@@UAEXXZ
	DD	FLAT:?SetInActive@ioWnd@@UAEXXZ
	DD	FLAT:?ClearElementImageList@ioWnd@@UAEXXZ
	DD	FLAT:?SetSize@ioWnd@@UAEXHH@Z
	DD	FLAT:?SetPositionToDefault@ioWnd@@UAEXHH_N0@Z
	DD	FLAT:?IsNeedProcess@ioWnd@@UBE_NXZ
	DD	FLAT:?IsCanMouseReaction@ioWnd@@UBE_NXZ
	DD	FLAT:?AddChild@ioWnd@@UAEXPAV1@@Z
	DD	FLAT:?DeleteChild@ioWnd@@UAEXK@Z
	DD	FLAT:?DeleteAllChild@ioWnd@@UAEXXZ
	DD	FLAT:?OnRenderShowAndHide@ioWnd@@MAE_NXZ
	DD	FLAT:?OnRenderShowAndHideByDefault@ioWnd@@MAE_NK@Z
	DD	FLAT:?OnRenderShowAndHideByTop@ioWnd@@MAE_NK@Z
	DD	FLAT:?OnRenderShowAndHideByDown@ioWnd@@MAE_NK@Z
	DD	FLAT:?OnRender@ConsumptionSlotBtn@@MAEXXZ
	DD	FLAT:?OnRenderAfterChild@ioWnd@@MAEXXZ
	DD	FLAT:?OnProcess@ConsumptionSlotBtn@@MAEXM@Z
	DD	FLAT:?OnMouseProcess@ioWnd@@MAEXABVioMouse@@@Z
	DD	FLAT:?CheckFrameReSize@ioButton@@MAEXHHHH@Z
	DD	FLAT:?RenderImageList@ioWnd@@MAEXHHW4UIRenderType@@@Z
	DD	FLAT:?iwm_create@ConsumptionSlotBtn@@UAEXXZ
	DD	FLAT:?iwm_destroy@ioWnd@@UAEXXZ
	DD	FLAT:?iwm_lbuttondown@ioButton@@UAEXABVioMouse@@@Z
	DD	FLAT:?iwm_lbuttonup@ioButton@@UAEXABVioMouse@@@Z
	DD	FLAT:?iwm_lbuttonDBLCLK@ioButton@@UAEXABVioMouse@@@Z
	DD	FLAT:?iwm_rbuttondown@ioButton@@UAEXABVioMouse@@@Z
	DD	FLAT:?iwm_rbuttonup@ioButton@@UAEXABVioMouse@@@Z
	DD	FLAT:?iwm_command@ioWnd@@UAEXPAV1@HK@Z
	DD	FLAT:?iwm_mouseover@ioButton@@UAEXABVioMouse@@@Z
	DD	FLAT:?iwm_mousemove@ioWnd@@UAEXABVioMouse@@@Z
	DD	FLAT:?iwm_mouseleave@ioWnd@@UAEXABVioMouse@@@Z
	DD	FLAT:?iwm_vscroll@ioWnd@@UAEXKH@Z
	DD	FLAT:?iwm_wheel@ioWnd@@UAEXH@Z
	DD	FLAT:?iwm_show@ioWnd@@UAEXXZ
	DD	FLAT:?iwm_hide@ioWnd@@UAEXXZ
	DD	FLAT:?iwm_esc@ioWnd@@UAE_NXZ
	DD	FLAT:?iwm_spacebar@ioWnd@@UAE_NXZ
	DD	FLAT:?iwm_gototop@ioWnd@@UAEXXZ
	DD	FLAT:?iwm_dragenter@ioWnd@@UAE?AW4IWDropEffect@@PAVioDragItem@@ABVioMouse@@@Z
	DD	FLAT:?iwm_dragover@ioWnd@@UAE?AW4IWDropEffect@@PAVioDragItem@@ABVioMouse@@@Z
	DD	FLAT:?iwm_dragleave@ioWnd@@UAEXXZ
	DD	FLAT:?iwm_dropitem@ioWnd@@UAE_NPAVioDragItem@@ABVioMouse@@PAV1@@Z
	DD	FLAT:?iwm_dropdone@ioWnd@@UAEXPAVioDragItem@@PAV1@_N@Z
	DD	FLAT:?IsEXType@ioWnd@@UBE_NXZ
	DD	FLAT:?GetWndType@ioButton@@UBEKXZ
	DD	FLAT:?RenderWnd@ioWnd@@UAEXXZ
	DD	FLAT:?SetIDEX@ioWnd@@UAEXAAK_N@Z
	DD	FLAT:?ParseXML@ioWnd@@UAEXAAVioXMLElement@@@Z
	DD	FLAT:?GetHeaderFileName@ioButton@@UAEPBDXZ
	DD	FLAT:?GetTemplateName@ioButton@@UAEPBDXZ
	DD	FLAT:?GetDefClassName@ioButton@@UBEPBDXZ
	DD	FLAT:?_Clone@ioButton@@UAEPAVioWnd@@XZ
	DD	FLAT:?Copy@ioButton@@UAEXPAVioWnd@@@Z
	DD	FLAT:?Save@ioWnd@@UAE_NAAVioXMLElement@@@Z
	DD	FLAT:?SetSaveData@ioButton@@UAEXAAVioXMLElement@@@Z
	DD	FLAT:?SetPosX@ioWnd@@UAEXH@Z
	DD	FLAT:?SetPosY@ioWnd@@UAEXH@Z
	DD	FLAT:?SetWidth@ioWnd@@UAEXH@Z
	DD	FLAT:?SetHeight@ioWnd@@UAEXH@Z
	DD	FLAT:?GetNumFixedRenderFrame@ioButton@@UBEHXZ
	DD	FLAT:?GetFixedRenderFrameType@ioButton@@UAEPBDH@Z
	DD	FLAT:?GetRenderFrame@ioButton@@UAEPAPAVioUIRenderElement@@PBD@Z
	DD	FLAT:?GetNumFixedRenderImage@ioButton@@UBEHXZ
	DD	FLAT:?GetFixedRenderImageType@ioButton@@UAEPBDH@Z
	DD	FLAT:?GetRenderImage@ioButton@@UAEPAPAVioUIRenderElement@@PBD@Z
	DD	FLAT:?AddEffect@ioWnd@@UAEXABVioHashString@@PAVioUI3DEffectRender@@@Z
	DD	FLAT:?GetEffect@ioWnd@@UAEPAVioUI3DEffectRender@@VioHashString@@@Z
	DD	FLAT:??_EConsumptionSlotBtn@@UAEPAXI@Z
	DD	FLAT:?OnDrawNormal@ioButton@@MAEXHH@Z
	DD	FLAT:?OnDrawOvered@ioButton@@MAEXHH@Z
	DD	FLAT:?OnDrawOveredAdd@ioButton@@MAEXHH@Z
	DD	FLAT:?OnDrawPushed@ioButton@@MAEXHH@Z
	DD	FLAT:?OnDrawDisabled@ioButton@@MAEXHH@Z
	DD	FLAT:?OnDrawExDisabledNormal@ioButton@@MAEXHH@Z
	DD	FLAT:?OnDrawExDisabledOvered@ioButton@@MAEXHH@Z
	DD	FLAT:?OnDrawExDisabledPushed@ioButton@@MAEXHH@Z
	DD	FLAT:?OnDrawBack@ioButton@@MAEXHH@Z
	DD	FLAT:?OnDrawNormalList@ioButton@@MAEXHH@Z
	DD	FLAT:?OnDrawDisableList@ioButton@@MAEXHH@Z
CONST	ENDS
;	COMDAT xdata$x
xdata$x	SEGMENT
__unwindtable$??0ConsumptionSlotBtn@@QAE@XZ DD 0ffffffffH
	DD	FLAT:__unwindfunclet$??0ConsumptionSlotBtn@@QAE@XZ$0
__ehfuncinfo$??0ConsumptionSlotBtn@@QAE@XZ DD 019930522H
	DD	01H
	DD	FLAT:__unwindtable$??0ConsumptionSlotBtn@@QAE@XZ
	DD	2 DUP(00H)
	DD	2 DUP(00H)
	DD	00H
	DD	01H
; Function compile flags: /Ogsp
xdata$x	ENDS
;	COMDAT ??0ConsumptionSlotBtn@@QAE@XZ
_TEXT	SEGMENT
_this$ = -16						; size = 4
__$EHRec$ = -12						; size = 12
??0ConsumptionSlotBtn@@QAE@XZ PROC			; ConsumptionSlotBtn::ConsumptionSlotBtn, COMDAT
; _this$ = ecx

; 1329 : {

  00000	6a 04		 push	 4
  00002	b8 00 00 00 00	 mov	 eax, __ehhandler$??0ConsumptionSlotBtn@@QAE@XZ
  00007	e8 00 00 00 00	 call	 __EH_prolog3
  0000c	8b f1		 mov	 esi, ecx
  0000e	89 75 f0	 mov	 DWORD PTR _this$[ebp], esi
  00011	ff 15 00 00 00
	00		 call	 DWORD PTR __imp_??0ioButton@@QAE@XZ
  00017	33 ff		 xor	 edi, edi
  00019	8d 8e 08 02 00
	00		 lea	 ecx, DWORD PTR [esi+520]
  0001f	89 7d fc	 mov	 DWORD PTR __$EHRec$[ebp+8], edi
  00022	c7 06 00 00 00
	00		 mov	 DWORD PTR [esi], OFFSET ??_7ConsumptionSlotBtn@@6B@
  00028	ff 15 00 00 00
	00		 call	 DWORD PTR __imp_??0ioHashString@@QAE@XZ

; 1330 : 	m_pEmptySlotImg = NULL;

  0002e	89 be fc 01 00
	00		 mov	 DWORD PTR [esi+508], edi

; 1331 : 	m_pItemIcon = NULL;

  00034	89 be 00 02 00
	00		 mov	 DWORD PTR [esi+512], edi

; 1332 : 	m_pItemBackImg = NULL;

  0003a	89 be 04 02 00
	00		 mov	 DWORD PTR [esi+516], edi

; 1333 : 
; 1334 : 	m_dwCoolTime = 0;

  00040	89 be 1c 02 00
	00		 mov	 DWORD PTR [esi+540], edi

; 1335 : 	m_nItem = 0;

  00046	89 be 18 02 00
	00		 mov	 DWORD PTR [esi+536], edi

; 1336 : }

  0004c	8b c6		 mov	 eax, esi
  0004e	e8 00 00 00 00	 call	 __EH_epilog3
  00053	c3		 ret	 0
_TEXT	ENDS
;	COMDAT text$x
text$x	SEGMENT
__unwindfunclet$??0ConsumptionSlotBtn@@QAE@XZ$0:
  00000	8b 4d f0	 mov	 ecx, DWORD PTR _this$[ebp]
  00003	ff 25 00 00 00
	00		 jmp	 DWORD PTR __imp_??1ioButton@@UAE@XZ
__ehhandler$??0ConsumptionSlotBtn@@QAE@XZ:
  00009	8b 54 24 08	 mov	 edx, DWORD PTR [esp+8]
  0000d	8d 42 0c	 lea	 eax, DWORD PTR [edx+12]
  00010	8b 4a ec	 mov	 ecx, DWORD PTR [edx-20]
  00013	33 c8		 xor	 ecx, eax
  00015	e8 00 00 00 00	 call	 @__security_check_cookie@4
  0001a	b8 00 00 00 00	 mov	 eax, OFFSET __ehfuncinfo$??0ConsumptionSlotBtn@@QAE@XZ
  0001f	e9 00 00 00 00	 jmp	 ___CxxFrameHandler3
text$x	ENDS
??0ConsumptionSlotBtn@@QAE@XZ ENDP			; ConsumptionSlotBtn::ConsumptionSlotBtn
PUBLIC	??1ConsumptionSlotBtn@@UAE@XZ			; ConsumptionSlotBtn::~ConsumptionSlotBtn
;	COMDAT xdata$x
xdata$x	SEGMENT
__unwindtable$??1ConsumptionSlotBtn@@UAE@XZ DD 0ffffffffH
	DD	FLAT:__unwindfunclet$??1ConsumptionSlotBtn@@UAE@XZ$0
	DD	00H
	DD	FLAT:__unwindfunclet$??1ConsumptionSlotBtn@@UAE@XZ$1
__ehfuncinfo$??1ConsumptionSlotBtn@@UAE@XZ DD 019930522H
	DD	02H
	DD	FLAT:__unwindtable$??1ConsumptionSlotBtn@@UAE@XZ
	DD	2 DUP(00H)
	DD	2 DUP(00H)
	DD	00H
	DD	01H
; Function compile flags: /Ogsp
xdata$x	ENDS
;	COMDAT ??1ConsumptionSlotBtn@@UAE@XZ
_TEXT	SEGMENT
_this$ = -16						; size = 4
__$EHRec$ = -12						; size = 12
??1ConsumptionSlotBtn@@UAE@XZ PROC			; ConsumptionSlotBtn::~ConsumptionSlotBtn, COMDAT
; _this$ = ecx

; 1339 : {

  00000	6a 04		 push	 4
  00002	b8 00 00 00 00	 mov	 eax, __ehhandler$??1ConsumptionSlotBtn@@UAE@XZ
  00007	e8 00 00 00 00	 call	 __EH_prolog3
  0000c	8b f1		 mov	 esi, ecx
  0000e	89 75 f0	 mov	 DWORD PTR _this$[ebp], esi
  00011	c7 06 00 00 00
	00		 mov	 DWORD PTR [esi], OFFSET ??_7ConsumptionSlotBtn@@6B@

; 1340 : 	SAFEDELETE(m_pEmptySlotImg);

  00017	8b 8e fc 01 00
	00		 mov	 ecx, DWORD PTR [esi+508]
  0001d	33 db		 xor	 ebx, ebx
  0001f	43		 inc	 ebx
  00020	89 5d fc	 mov	 DWORD PTR __$EHRec$[ebp+8], ebx
  00023	85 c9		 test	 ecx, ecx
  00025	74 0d		 je	 SHORT $LN3@Consumptio@2
  00027	8b 01		 mov	 eax, DWORD PTR [ecx]
  00029	53		 push	 ebx
  0002a	ff 50 40	 call	 DWORD PTR [eax+64]
  0002d	83 a6 fc 01 00
	00 00		 and	 DWORD PTR [esi+508], 0
$LN3@Consumptio@2:

; 1341 : 	SAFEDELETE(m_pItemIcon);

  00034	8b 8e 00 02 00
	00		 mov	 ecx, DWORD PTR [esi+512]
  0003a	85 c9		 test	 ecx, ecx
  0003c	74 0d		 je	 SHORT $LN2@Consumptio@2
  0003e	8b 01		 mov	 eax, DWORD PTR [ecx]
  00040	53		 push	 ebx
  00041	ff 50 40	 call	 DWORD PTR [eax+64]
  00044	83 a6 00 02 00
	00 00		 and	 DWORD PTR [esi+512], 0
$LN2@Consumptio@2:

; 1342 : 	SAFEDELETE(m_pItemBackImg);

  0004b	8b 8e 04 02 00
	00		 mov	 ecx, DWORD PTR [esi+516]
  00051	85 c9		 test	 ecx, ecx
  00053	74 0d		 je	 SHORT $LN1@Consumptio@2
  00055	8b 01		 mov	 eax, DWORD PTR [ecx]
  00057	53		 push	 ebx
  00058	ff 50 40	 call	 DWORD PTR [eax+64]
  0005b	83 a6 04 02 00
	00 00		 and	 DWORD PTR [esi+516], 0
$LN1@Consumptio@2:

; 1343 : }

  00062	8d 8e 08 02 00
	00		 lea	 ecx, DWORD PTR [esi+520]
  00068	c6 45 fc 00	 mov	 BYTE PTR __$EHRec$[ebp+8], 0
  0006c	ff 15 00 00 00
	00		 call	 DWORD PTR __imp_??1ioHashString@@QAE@XZ
  00072	83 4d fc ff	 or	 DWORD PTR __$EHRec$[ebp+8], -1
  00076	8b ce		 mov	 ecx, esi
  00078	ff 15 00 00 00
	00		 call	 DWORD PTR __imp_??1ioButton@@UAE@XZ
  0007e	e8 00 00 00 00	 call	 __EH_epilog3
  00083	c3		 ret	 0
_TEXT	ENDS
;	COMDAT text$x
text$x	SEGMENT
__unwindfunclet$??1ConsumptionSlotBtn@@UAE@XZ$0:
  00000	8b 4d f0	 mov	 ecx, DWORD PTR _this$[ebp]
  00003	ff 25 00 00 00
	00		 jmp	 DWORD PTR __imp_??1ioButton@@UAE@XZ
__unwindfunclet$??1ConsumptionSlotBtn@@UAE@XZ$1:
  00009	8b 4d f0	 mov	 ecx, DWORD PTR _this$[ebp]
  0000c	81 c1 08 02 00
	00		 add	 ecx, 520		; 00000208H
  00012	ff 25 00 00 00
	00		 jmp	 DWORD PTR __imp_??1ioHashString@@QAE@XZ
__ehhandler$??1ConsumptionSlotBtn@@UAE@XZ:
  00018	8b 54 24 08	 mov	 edx, DWORD PTR [esp+8]
  0001c	8d 42 0c	 lea	 eax, DWORD PTR [edx+12]
  0001f	8b 4a ec	 mov	 ecx, DWORD PTR [edx-20]
  00022	33 c8		 xor	 ecx, eax
  00024	e8 00 00 00 00	 call	 @__security_check_cookie@4
  00029	b8 00 00 00 00	 mov	 eax, OFFSET __ehfuncinfo$??1ConsumptionSlotBtn@@UAE@XZ
  0002e	e9 00 00 00 00	 jmp	 ___CxxFrameHandler3
text$x	ENDS
??1ConsumptionSlotBtn@@UAE@XZ ENDP			; ConsumptionSlotBtn::~ConsumptionSlotBtn
; Function compile flags: /Ogsp
;	COMDAT ?iwm_create@ConsumptionSlotBtn@@UAEXXZ
_TEXT	SEGMENT
?iwm_create@ConsumptionSlotBtn@@UAEXXZ PROC		; ConsumptionSlotBtn::iwm_create, COMDAT
; _this$ = ecx

; 1360 : }

  00000	c3		 ret	 0
?iwm_create@ConsumptionSlotBtn@@UAEXXZ ENDP		; ConsumptionSlotBtn::iwm_create
; Function compile flags: /Ogsp
_TEXT	ENDS
;	COMDAT ?OnProcess@ConsumptionSlotBtn@@MAEXM@Z
_TEXT	SEGMENT
_fTimePerSec$ = 8					; size = 4
?OnProcess@ConsumptionSlotBtn@@MAEXM@Z PROC		; ConsumptionSlotBtn::OnProcess, COMDAT
; _this$ = ecx

; 1450 : 	if( !IsShow() ) return;

  00000	ff 15 00 00 00
	00		 call	 DWORD PTR __imp_?IsShow@ioWnd@@QBE_NXZ

; 1451 : 
; 1452 : }

  00006	c2 04 00	 ret	 4
?OnProcess@ConsumptionSlotBtn@@MAEXM@Z ENDP		; ConsumptionSlotBtn::OnProcess
_TEXT	ENDS
PUBLIC	?_Inside@?$vector@VioHashString@@V?$allocator@VioHashString@@@std@@@std@@IBE_NPBVioHashString@@@Z ; std::vector<ioHashString,std::allocator<ioHashString> >::_Inside
; Function compile flags: /Ogsp
; File c:\program files (x86)\microsoft visual studio 10.0\vc\include\vector
;	COMDAT ?_Inside@?$vector@VioHashString@@V?$allocator@VioHashString@@@std@@@std@@IBE_NPBVioHashString@@@Z
_TEXT	SEGMENT
__Ptr$ = 8						; size = 4
?_Inside@?$vector@VioHashString@@V?$allocator@VioHashString@@@std@@@std@@IBE_NPBVioHashString@@@Z PROC ; std::vector<ioHashString,std::allocator<ioHashString> >::_Inside, COMDAT
; _this$ = ecx

; 1285 : 		{	// test if _Ptr points inside vector

  00000	55		 push	 ebp
  00001	8b ec		 mov	 ebp, esp

; 1286 : 		return (_Ptr < this->_Mylast && this->_Myfirst <= _Ptr);

  00003	8b 45 08	 mov	 eax, DWORD PTR __Ptr$[ebp]
  00006	3b 41 04	 cmp	 eax, DWORD PTR [ecx+4]
  00009	73 09		 jae	 SHORT $LN3@Inside
  0000b	39 01		 cmp	 DWORD PTR [ecx], eax
  0000d	77 05		 ja	 SHORT $LN3@Inside
  0000f	33 c0		 xor	 eax, eax
  00011	40		 inc	 eax
  00012	eb 02		 jmp	 SHORT $LN4@Inside
$LN3@Inside:
  00014	33 c0		 xor	 eax, eax
$LN4@Inside:

; 1287 : 		}

  00016	5d		 pop	 ebp
  00017	c2 04 00	 ret	 4
?_Inside@?$vector@VioHashString@@V?$allocator@VioHashString@@@std@@@std@@IBE_NPBVioHashString@@@Z ENDP ; std::vector<ioHashString,std::allocator<ioHashString> >::_Inside
_TEXT	ENDS
PUBLIC	?_Orphan_range@?$vector@VioHashString@@V?$allocator@VioHashString@@@std@@@std@@IBEXPAVioHashString@@0@Z ; std::vector<ioHashString,std::allocator<ioHashString> >::_Orphan_range
; Function compile flags: /Ogsp
;	COMDAT ?_Orphan_range@?$vector@VioHashString@@V?$allocator@VioHashString@@@std@@@std@@IBEXPAVioHashString@@0@Z
_TEXT	SEGMENT
___formal$ = 8						; size = 4
___formal$ = 12						; size = 4
?_Orphan_range@?$vector@VioHashString@@V?$allocator@VioHashString@@@std@@@std@@IBEXPAVioHashString@@0@Z PROC ; std::vector<ioHashString,std::allocator<ioHashString> >::_Orphan_range, COMDAT
; _this$ = ecx

; 1454 : 		}

  00000	c2 08 00	 ret	 8
?_Orphan_range@?$vector@VioHashString@@V?$allocator@VioHashString@@@std@@@std@@IBEXPAVioHashString@@0@Z ENDP ; std::vector<ioHashString,std::allocator<ioHashString> >::_Orphan_range
_TEXT	ENDS
PUBLIC	?capacity@?$vector@VioHashString@@V?$allocator@VioHashString@@@std@@@std@@QBEIXZ ; std::vector<ioHashString,std::allocator<ioHashString> >::capacity
; Function compile flags: /Ogsp
;	COMDAT ?capacity@?$vector@VioHashString@@V?$allocator@VioHashString@@@std@@@std@@QBEIXZ
_TEXT	SEGMENT
?capacity@?$vector@VioHashString@@V?$allocator@VioHashString@@@std@@@std@@QBEIXZ PROC ; std::vector<ioHashString,std::allocator<ioHashString> >::capacity, COMDAT
; _this$ = ecx

; 777  : 		return (this->_Myend - this->_Myfirst);

  00000	8b 41 08	 mov	 eax, DWORD PTR [ecx+8]
  00003	2b 01		 sub	 eax, DWORD PTR [ecx]
  00005	c1 f8 04	 sar	 eax, 4

; 778  : 		}

  00008	c3		 ret	 0
?capacity@?$vector@VioHashString@@V?$allocator@VioHashString@@@std@@@std@@QBEIXZ ENDP ; std::vector<ioHashString,std::allocator<ioHashString> >::capacity
_TEXT	ENDS
PUBLIC	??$addressof@$$CBVioHashString@@@std@@YAPBVioHashString@@ABV1@@Z ; std::addressof<ioHashString const >
; Function compile flags: /Ogsp
; File c:\program files (x86)\microsoft visual studio 10.0\vc\include\xmemory
;	COMDAT ??$addressof@$$CBVioHashString@@@std@@YAPBVioHashString@@ABV1@@Z
_TEXT	SEGMENT
__Val$ = 8						; size = 4
??$addressof@$$CBVioHashString@@@std@@YAPBVioHashString@@ABV1@@Z PROC ; std::addressof<ioHashString const >, COMDAT

; 110  : 	{	// return address of _Val

  00000	55		 push	 ebp
  00001	8b ec		 mov	 ebp, esp

; 111  : 	return ((_Ty *) &(char&)_Val);

  00003	8b 45 08	 mov	 eax, DWORD PTR __Val$[ebp]

; 112  : 	}

  00006	5d		 pop	 ebp
  00007	c3		 ret	 0
??$addressof@$$CBVioHashString@@@std@@YAPBVioHashString@@ABV1@@Z ENDP ; std::addressof<ioHashString const >
_TEXT	ENDS
PUBLIC	??$_Val_type@PAVioHashString@@@std@@YAPAVioHashString@@PAV1@@Z ; std::_Val_type<ioHashString *>
; Function compile flags: /Ogsp
; File c:\program files (x86)\microsoft visual studio 10.0\vc\include\xutility
;	COMDAT ??$_Val_type@PAVioHashString@@@std@@YAPAVioHashString@@PAV1@@Z
_TEXT	SEGMENT
___formal$ = 8						; size = 4
??$_Val_type@PAVioHashString@@@std@@YAPAVioHashString@@PAV1@@Z PROC ; std::_Val_type<ioHashString *>, COMDAT

; 790  : 	return (0);

  00000	33 c0		 xor	 eax, eax

; 791  : 	}

  00002	c3		 ret	 0
??$_Val_type@PAVioHashString@@@std@@YAPAVioHashString@@PAV1@@Z ENDP ; std::_Val_type<ioHashString *>
_TEXT	ENDS
PUBLIC	??$forward@VioHashString@@@std@@YA$$QAVioHashString@@AAV1@@Z ; std::forward<ioHashString>
; Function compile flags: /Ogsp
; File c:\program files (x86)\microsoft visual studio 10.0\vc\include\utility
;	COMDAT ??$forward@VioHashString@@@std@@YA$$QAVioHashString@@AAV1@@Z
_TEXT	SEGMENT
__Arg$ = 8						; size = 4
??$forward@VioHashString@@@std@@YA$$QAVioHashString@@AAV1@@Z PROC ; std::forward<ioHashString>, COMDAT

; 78   : 	{	// forward _Arg, given explicitly specified type parameter

  00000	55		 push	 ebp
  00001	8b ec		 mov	 ebp, esp

; 79   : 	return ((_Ty&&)_Arg);

  00003	8b 45 08	 mov	 eax, DWORD PTR __Arg$[ebp]

; 80   : 	}

  00006	5d		 pop	 ebp
  00007	c3		 ret	 0
??$forward@VioHashString@@@std@@YA$$QAVioHashString@@AAV1@@Z ENDP ; std::forward<ioHashString>
; Function compile flags: /Ogsp
; File c:\program files (x86)\microsoft sdks\windows\v7.0a\include\strsafe.h
_TEXT	ENDS
;	COMDAT ?StringValidateDestA@@YGJPBDII@Z
_TEXT	SEGMENT
_cchMax$ = 8						; size = 4
?StringValidateDestA@@YGJPBDII@Z PROC			; StringValidateDestA, COMDAT
; _cchDest$ = ecx

; 8721 : {

  00000	55		 push	 ebp
  00001	8b ec		 mov	 ebp, esp

; 8722 :     HRESULT hr = S_OK;

  00003	33 c0		 xor	 eax, eax

; 8723 : 
; 8724 :     if ((cchDest == 0) || (cchDest > cchMax))

  00005	85 c9		 test	 ecx, ecx
  00007	74 05		 je	 SHORT $LN1@StringVali
  00009	3b 4d 08	 cmp	 ecx, DWORD PTR _cchMax$[ebp]
  0000c	76 05		 jbe	 SHORT $LN2@StringVali
$LN1@StringVali:

; 8725 :     {
; 8726 :         hr = STRSAFE_E_INVALID_PARAMETER;

  0000e	b8 57 00 07 80	 mov	 eax, -2147024809	; 80070057H
$LN2@StringVali:

; 8727 :     }
; 8728 : 
; 8729 :     return hr;
; 8730 : }

  00013	5d		 pop	 ebp
  00014	c2 04 00	 ret	 4
?StringValidateDestA@@YGJPBDII@Z ENDP			; StringValidateDestA
; Function compile flags: /Ogsp
_TEXT	ENDS
;	COMDAT ?StringCopyWorkerA@@YGJPADIPAIPBDI@Z
_TEXT	SEGMENT
_hr$ = -4						; size = 4
_pcchNewDestLength$ = 8					; size = 4
_pszSrc$ = 12						; size = 4
_cchToCopy$ = 16					; size = 4
?StringCopyWorkerA@@YGJPADIPAIPBDI@Z PROC		; StringCopyWorkerA, COMDAT
; _pszDest$ = ecx
; _cchDest$ = eax

; 8947 : {

  00000	55		 push	 ebp
  00001	8b ec		 mov	 ebp, esp
  00003	51		 push	 ecx

; 8948 :     HRESULT hr = S_OK;

  00004	83 65 fc 00	 and	 DWORD PTR _hr$[ebp], 0
  00008	57		 push	 edi
  00009	8b f8		 mov	 edi, eax

; 8949 :     size_t cchNewDestLength = 0;

  0000b	33 c0		 xor	 eax, eax

; 8950 :     
; 8951 :     // ASSERT(cchDest != 0);
; 8952 : 
; 8953 :     while (cchDest && cchToCopy && (*pszSrc != '\0'))

  0000d	85 ff		 test	 edi, edi
  0000f	74 23		 je	 SHORT $LN9@StringCopy

; 8948 :     HRESULT hr = S_OK;

  00011	53		 push	 ebx
  00012	8b 5d 10	 mov	 ebx, DWORD PTR _cchToCopy$[ebp]
  00015	56		 push	 esi

; 8950 :     
; 8951 :     // ASSERT(cchDest != 0);
; 8952 : 
; 8953 :     while (cchDest && cchToCopy && (*pszSrc != '\0'))

  00016	8b 75 0c	 mov	 esi, DWORD PTR _pszSrc$[ebp]
  00019	2b f1		 sub	 esi, ecx
$LL4@StringCopy:
  0001b	85 db		 test	 ebx, ebx
  0001d	74 0f		 je	 SHORT $LN11@StringCopy
  0001f	8a 14 0e	 mov	 dl, BYTE PTR [esi+ecx]
  00022	84 d2		 test	 dl, dl
  00024	74 08		 je	 SHORT $LN11@StringCopy

; 8954 :     {
; 8955 :         *pszDest++ = *pszSrc++;

  00026	88 11		 mov	 BYTE PTR [ecx], dl
  00028	41		 inc	 ecx

; 8956 :         cchDest--;

  00029	4b		 dec	 ebx

; 8957 :         cchToCopy--;
; 8958 : 
; 8959 :         cchNewDestLength++;

  0002a	40		 inc	 eax
  0002b	4f		 dec	 edi
  0002c	75 ed		 jne	 SHORT $LL4@StringCopy
$LN11@StringCopy:
  0002e	5e		 pop	 esi
  0002f	5b		 pop	 ebx

; 8960 :     }
; 8961 : 
; 8962 :     if (cchDest == 0)

  00030	85 ff		 test	 edi, edi
  00032	75 09		 jne	 SHORT $LN2@StringCopy
$LN9@StringCopy:

; 8963 :     {
; 8964 :         // we are going to truncate pszDest
; 8965 :         pszDest--;

  00034	49		 dec	 ecx

; 8966 :         cchNewDestLength--;

  00035	48		 dec	 eax

; 8967 : 
; 8968 :         hr = STRSAFE_E_INSUFFICIENT_BUFFER;

  00036	c7 45 fc 7a 00
	07 80		 mov	 DWORD PTR _hr$[ebp], -2147024774 ; 8007007aH
$LN2@StringCopy:

; 8969 :     }
; 8970 : 
; 8971 :     *pszDest = '\0';

  0003d	c6 01 00	 mov	 BYTE PTR [ecx], 0

; 8972 : 
; 8973 :     if (pcchNewDestLength)

  00040	8b 4d 08	 mov	 ecx, DWORD PTR _pcchNewDestLength$[ebp]
  00043	5f		 pop	 edi
  00044	85 c9		 test	 ecx, ecx
  00046	74 02		 je	 SHORT $LN1@StringCopy

; 8974 :     {
; 8975 :         *pcchNewDestLength = cchNewDestLength;

  00048	89 01		 mov	 DWORD PTR [ecx], eax
$LN1@StringCopy:

; 8976 :     }
; 8977 : 
; 8978 :     return hr;

  0004a	8b 45 fc	 mov	 eax, DWORD PTR _hr$[ebp]

; 8979 : }

  0004d	c9		 leave
  0004e	c2 0c 00	 ret	 12			; 0000000cH
?StringCopyWorkerA@@YGJPADIPAIPBDI@Z ENDP		; StringCopyWorkerA
_TEXT	ENDS
PUBLIC	?_DECSTR@@YAXPADH@Z				; _DECSTR
; Function compile flags: /Ogsp
; File d:\lost saga for developer\youtube\tutorial\source\src\lsclient\stringprotect.h
;	COMDAT ?_DECSTR@@YAXPADH@Z
_TEXT	SEGMENT
_s$ = 8							; size = 4
_l$ = 12						; size = 4
?_DECSTR@@YAXPADH@Z PROC				; _DECSTR, COMDAT

; 40   : __forceinline void _DECSTR(char* s, int l){int i=0,l4=(l-1)/4,*p=(int*)s;s[l-1]=0;for(;i<l4;++i)*(p++)^=0xEAEBECED;for(i=l4*4;i<l-1;++i)s[i]^=0xED-i%4;}

  00000	55		 push	 ebp
  00001	8b ec		 mov	 ebp, esp
  00003	8b 4d 0c	 mov	 ecx, DWORD PTR _l$[ebp]
  00006	56		 push	 esi
  00007	8b 75 08	 mov	 esi, DWORD PTR _s$[ebp]
  0000a	57		 push	 edi
  0000b	8d 79 ff	 lea	 edi, DWORD PTR [ecx-1]
  0000e	8b c7		 mov	 eax, edi
  00010	99		 cdq
  00011	83 e2 03	 and	 edx, 3
  00014	03 c2		 add	 eax, edx
  00016	c1 f8 02	 sar	 eax, 2
  00019	8b d6		 mov	 edx, esi
  0001b	c6 44 0e ff 00	 mov	 BYTE PTR [esi+ecx-1], 0
  00020	85 c0		 test	 eax, eax
  00022	7e 0e		 jle	 SHORT $LN4@DECSTR
  00024	8b c8		 mov	 ecx, eax
$LL6@DECSTR:
  00026	81 32 ed ec eb
	ea		 xor	 DWORD PTR [edx], -353637139 ; eaebecedH
  0002c	83 c2 04	 add	 edx, 4
  0002f	49		 dec	 ecx
  00030	75 f4		 jne	 SHORT $LL6@DECSTR
$LN4@DECSTR:
  00032	c1 e0 02	 shl	 eax, 2
  00035	eb 17		 jmp	 SHORT $LN14@DECSTR
$LL3@DECSTR:
  00037	8b c8		 mov	 ecx, eax
  00039	81 e1 03 00 00
	80		 and	 ecx, -2147483645	; 80000003H
  0003f	79 05		 jns	 SHORT $LN13@DECSTR
  00041	49		 dec	 ecx
  00042	83 c9 fc	 or	 ecx, -4			; fffffffcH
  00045	41		 inc	 ecx
$LN13@DECSTR:
  00046	b2 ed		 mov	 dl, -19			; ffffffedH
  00048	2a d1		 sub	 dl, cl
  0004a	30 14 30	 xor	 BYTE PTR [eax+esi], dl
  0004d	40		 inc	 eax
$LN14@DECSTR:
  0004e	3b c7		 cmp	 eax, edi
  00050	7c e5		 jl	 SHORT $LL3@DECSTR
  00052	5f		 pop	 edi
  00053	5e		 pop	 esi
  00054	5d		 pop	 ebp
  00055	c3		 ret	 0
?_DECSTR@@YAXPADH@Z ENDP				; _DECSTR
_TEXT	ENDS
PUBLIC	?GetHP@ioPlayEntity@@QAEAAUStatusValue@@XZ	; ioPlayEntity::GetHP
; Function compile flags: /Ogsp
; File d:\lost saga for developer\youtube\tutorial\source\src\lsclient\ioplayentity.h
;	COMDAT ?GetHP@ioPlayEntity@@QAEAAUStatusValue@@XZ
_TEXT	SEGMENT
?GetHP@ioPlayEntity@@QAEAAUStatusValue@@XZ PROC		; ioPlayEntity::GetHP, COMDAT
; _this$ = ecx

; 96   : 	inline StatusValue& GetHP() { return m_HP; }

  00000	8d 81 c0 00 00
	00		 lea	 eax, DWORD PTR [ecx+192]
  00006	c3		 ret	 0
?GetHP@ioPlayEntity@@QAEAAUStatusValue@@XZ ENDP		; ioPlayEntity::GetHP
_TEXT	ENDS
PUBLIC	??_R0?AVioGameEntity@@@8			; ioGameEntity `RTTI Type Descriptor'
PUBLIC	??_R0?AVioPlayEntity@@@8			; ioPlayEntity `RTTI Type Descriptor'
PUBLIC	?ToPlayEntity@@YAPAVioPlayEntity@@PAVioGameEntity@@@Z ; ToPlayEntity
;	COMDAT ??_R0?AVioGameEntity@@@8
_DATA	SEGMENT
??_R0?AVioGameEntity@@@8 DD FLAT:??_7type_info@@6B@	; ioGameEntity `RTTI Type Descriptor'
	DD	00H
	DB	'.?AVioGameEntity@@', 00H
_DATA	ENDS
;	COMDAT ??_R0?AVioPlayEntity@@@8
_DATA	SEGMENT
??_R0?AVioPlayEntity@@@8 DD FLAT:??_7type_info@@6B@	; ioPlayEntity `RTTI Type Descriptor'
	DD	00H
	DB	'.?AVioPlayEntity@@', 00H
; Function compile flags: /Ogsp
_DATA	ENDS
;	COMDAT ?ToPlayEntity@@YAPAVioPlayEntity@@PAVioGameEntity@@@Z
_TEXT	SEGMENT
_pObj$ = 8						; size = 4
?ToPlayEntity@@YAPAVioPlayEntity@@PAVioGameEntity@@@Z PROC ; ToPlayEntity, COMDAT

; 121  : {

  00000	55		 push	 ebp
  00001	8b ec		 mov	 ebp, esp
  00003	56		 push	 esi

; 122  : 	if( !pObj || pObj->GetTypeID() != ioGameEntity::GET_PLAY_ENTITY )

  00004	8b 75 08	 mov	 esi, DWORD PTR _pObj$[ebp]
  00007	85 f6		 test	 esi, esi
  00009	74 25		 je	 SHORT $LN1@ToPlayEnti
  0000b	8b 06		 mov	 eax, DWORD PTR [esi]
  0000d	8b ce		 mov	 ecx, esi
  0000f	ff 50 10	 call	 DWORD PTR [eax+16]
  00012	83 f8 01	 cmp	 eax, 1
  00015	75 19		 jne	 SHORT $LN1@ToPlayEnti

; 124  : 
; 125  : 	return dynamic_cast< ioPlayEntity* >( pObj );

  00017	6a 00		 push	 0
  00019	68 00 00 00 00	 push	 OFFSET ??_R0?AVioPlayEntity@@@8
  0001e	68 00 00 00 00	 push	 OFFSET ??_R0?AVioGameEntity@@@8
  00023	6a 00		 push	 0
  00025	56		 push	 esi
  00026	e8 00 00 00 00	 call	 ___RTDynamicCast
  0002b	83 c4 14	 add	 esp, 20			; 00000014H
  0002e	eb 02		 jmp	 SHORT $LN3@ToPlayEnti
$LN1@ToPlayEnti:

; 123  : 		return NULL;

  00030	33 c0		 xor	 eax, eax
$LN3@ToPlayEnti:
  00032	5e		 pop	 esi

; 126  : }

  00033	5d		 pop	 ebp
  00034	c3		 ret	 0
?ToPlayEntity@@YAPAVioPlayEntity@@PAVioGameEntity@@@Z ENDP ; ToPlayEntity
_TEXT	ENDS
PUBLIC	?GetItemCode@ioItem@@QBEKXZ			; ioItem::GetItemCode
; Function compile flags: /Ogsp
; File d:\lost saga for developer\youtube\tutorial\source\src\lsclient\ioitem.h
;	COMDAT ?GetItemCode@ioItem@@QBEKXZ
_TEXT	SEGMENT
?GetItemCode@ioItem@@QBEKXZ PROC			; ioItem::GetItemCode, COMDAT
; _this$ = ecx

; 264  : 	inline DWORD GetItemCode() const { return m_dwItemCode; }

  00000	8b 41 38	 mov	 eax, DWORD PTR [ecx+56]
  00003	c3		 ret	 0
?GetItemCode@ioItem@@QBEKXZ ENDP			; ioItem::GetItemCode
_TEXT	ENDS
PUBLIC	?GetCurState@FSMStateMgr@@QBEHXZ		; FSMStateMgr::GetCurState
; Function compile flags: /Ogsp
; File d:\lost saga for developer\youtube\tutorial\source\src\lsclient\gui\fsmstatemgr.h
;	COMDAT ?GetCurState@FSMStateMgr@@QBEHXZ
_TEXT	SEGMENT
?GetCurState@FSMStateMgr@@QBEHXZ PROC			; FSMStateMgr::GetCurState, COMDAT
; _this$ = ecx

; 52   : 	inline int GetCurState() const { return m_iCurState; }

  00000	8b 41 04	 mov	 eax, DWORD PTR [ecx+4]
  00003	c3		 ret	 0
?GetCurState@FSMStateMgr@@QBEHXZ ENDP			; FSMStateMgr::GetCurState
_TEXT	ENDS
PUBLIC	?GetCurTime@FSMStateMgr@@QBEKXZ			; FSMStateMgr::GetCurTime
; Function compile flags: /Ogsp
;	COMDAT ?GetCurTime@FSMStateMgr@@QBEKXZ
_TEXT	SEGMENT
?GetCurTime@FSMStateMgr@@QBEKXZ PROC			; FSMStateMgr::GetCurTime, COMDAT
; _this$ = ecx

; 55   : 	inline DWORD GetCurTime() const { return m_dwCurTime; }

  00000	8b 41 0c	 mov	 eax, DWORD PTR [ecx+12]
  00003	c3		 ret	 0
?GetCurTime@FSMStateMgr@@QBEKXZ ENDP			; FSMStateMgr::GetCurTime
_TEXT	ENDS
PUBLIC	?GetDelay@FSMStateMgr@@QBEHXZ			; FSMStateMgr::GetDelay
; Function compile flags: /Ogsp
;	COMDAT ?GetDelay@FSMStateMgr@@QBEHXZ
_TEXT	SEGMENT
?GetDelay@FSMStateMgr@@QBEHXZ PROC			; FSMStateMgr::GetDelay, COMDAT
; _this$ = ecx

; 61   : 	inline int GetDelay() const { return m_iCurDelay; }

  00000	8b 41 10	 mov	 eax, DWORD PTR [ecx+16]
  00003	c3		 ret	 0
?GetDelay@FSMStateMgr@@QBEHXZ ENDP			; FSMStateMgr::GetDelay
_TEXT	ENDS
PUBLIC	?IsSkipUIByBlind@ioSP2GUIManager@@QBE_NXZ	; ioSP2GUIManager::IsSkipUIByBlind
; Function compile flags: /Ogsp
; File d:\lost saga for developer\youtube\tutorial\source\src\lsclient\gui\iosp2guimanager.h
;	COMDAT ?IsSkipUIByBlind@ioSP2GUIManager@@QBE_NXZ
_TEXT	SEGMENT
?IsSkipUIByBlind@ioSP2GUIManager@@QBE_NXZ PROC		; ioSP2GUIManager::IsSkipUIByBlind, COMDAT
; _this$ = ecx

; 236  : 	inline bool IsSkipUIByBlind() const { return m_bSkipUIByBlind; }	

  00000	8a 81 e0 04 00
	00		 mov	 al, BYTE PTR [ecx+1248]
  00006	c3		 ret	 0
?IsSkipUIByBlind@ioSP2GUIManager@@QBE_NXZ ENDP		; ioSP2GUIManager::IsSkipUIByBlind
_TEXT	ENDS
PUBLIC	?size@?$vector@VioHashString@@V?$allocator@VioHashString@@@std@@@std@@QBEIXZ ; std::vector<ioHashString,std::allocator<ioHashString> >::size
; Function compile flags: /Ogsp
; File c:\program files (x86)\microsoft visual studio 10.0\vc\include\vector
;	COMDAT ?size@?$vector@VioHashString@@V?$allocator@VioHashString@@@std@@@std@@QBEIXZ
_TEXT	SEGMENT
?size@?$vector@VioHashString@@V?$allocator@VioHashString@@@std@@@std@@QBEIXZ PROC ; std::vector<ioHashString,std::allocator<ioHashString> >::size, COMDAT
; _this$ = ecx

; 879  : 		return (this->_Mylast - this->_Myfirst);

  00000	8b 41 04	 mov	 eax, DWORD PTR [ecx+4]
  00003	2b 01		 sub	 eax, DWORD PTR [ecx]
  00005	c1 f8 04	 sar	 eax, 4

; 880  : 		}

  00008	c3		 ret	 0
?size@?$vector@VioHashString@@V?$allocator@VioHashString@@@std@@@std@@QBEIXZ ENDP ; std::vector<ioHashString,std::allocator<ioHashString> >::size
_TEXT	ENDS
PUBLIC	?DecryptValueToPool@?$CEncrypt@M@@QAEXPAM@Z	; CEncrypt<float>::DecryptValueToPool
EXTRN	?DecryptByte@ccddaabb@@QBEXPBDPADH@Z:PROC	; ccddaabb::DecryptByte
; Function compile flags: /Ogsp
; File d:\lost saga for developer\youtube\tutorial\source\src\lsclient\encryptvalue.h
;	COMDAT ?DecryptValueToPool@?$CEncrypt@M@@QAEXPAM@Z
_TEXT	SEGMENT
_value$ = 8						; size = 4
?DecryptValueToPool@?$CEncrypt@M@@QAEXPAM@Z PROC	; CEncrypt<float>::DecryptValueToPool, COMDAT
; _this$ = ecx

; 1648 : 	{

  00000	55		 push	 ebp
  00001	8b ec		 mov	 ebp, esp
  00003	56		 push	 esi

; 1649 : 		m_RC5.DecryptByte( m_MemPool, m_TempMem, 4 );

  00004	8d 71 28	 lea	 esi, DWORD PTR [ecx+40]
  00007	6a 04		 push	 4
  00009	8d 41 1c	 lea	 eax, DWORD PTR [ecx+28]
  0000c	56		 push	 esi
  0000d	50		 push	 eax
  0000e	83 c1 0c	 add	 ecx, 12			; 0000000cH
  00011	e8 00 00 00 00	 call	 ?DecryptByte@ccddaabb@@QBEXPBDPADH@Z ; ccddaabb::DecryptByte

; 1650 : 		*value = *((float*)m_TempMem);

  00016	d9 06		 fld	 DWORD PTR [esi]
  00018	8b 45 08	 mov	 eax, DWORD PTR _value$[ebp]
  0001b	d9 18		 fstp	 DWORD PTR [eax]
  0001d	5e		 pop	 esi

; 1651 : 	}

  0001e	5d		 pop	 ebp
  0001f	c2 04 00	 ret	 4
?DecryptValueToPool@?$CEncrypt@M@@QAEXPAM@Z ENDP	; CEncrypt<float>::DecryptValueToPool
_TEXT	ENDS
PUBLIC	??_C@_0BD@OLBABOEK@vector?$DMT?$DO?5too?5long?$AA@ ; `string'
PUBLIC	?_Xlen@?$vector@VioHashString@@V?$allocator@VioHashString@@@std@@@std@@IBEXXZ ; std::vector<ioHashString,std::allocator<ioHashString> >::_Xlen
EXTRN	__imp_?_Xlength_error@std@@YAXPBD@Z:PROC
;	COMDAT ??_C@_0BD@OLBABOEK@vector?$DMT?$DO?5too?5long?$AA@
; File c:\program files (x86)\microsoft visual studio 10.0\vc\include\vector
CONST	SEGMENT
??_C@_0BD@OLBABOEK@vector?$DMT?$DO?5too?5long?$AA@ DB 'vector<T> too long'
	DB	00H						; `string'
; Function compile flags: /Ogsp
CONST	ENDS
;	COMDAT ?_Xlen@?$vector@VioHashString@@V?$allocator@VioHashString@@@std@@@std@@IBEXXZ
_TEXT	SEGMENT
?_Xlen@?$vector@VioHashString@@V?$allocator@VioHashString@@@std@@@std@@IBEXXZ PROC ; std::vector<ioHashString,std::allocator<ioHashString> >::_Xlen, COMDAT
; _this$ = ecx

; 1427 : 		_Xlength_error("vector<T> too long");

  00000	68 00 00 00 00	 push	 OFFSET ??_C@_0BD@OLBABOEK@vector?$DMT?$DO?5too?5long?$AA@
  00005	ff 15 00 00 00
	00		 call	 DWORD PTR __imp_?_Xlength_error@std@@YAXPBD@Z
$LN4@Xlen:
$LN3@Xlen:
  0000b	cc		 int	 3
?_Xlen@?$vector@VioHashString@@V?$allocator@VioHashString@@@std@@@std@@IBEXXZ ENDP ; std::vector<ioHashString,std::allocator<ioHashString> >::_Xlen
_TEXT	ENDS
PUBLIC	?deallocate@?$allocator@VioHashString@@@std@@QAEXPAVioHashString@@I@Z ; std::allocator<ioHashString>::deallocate
; Function compile flags: /Ogsp
; File c:\program files (x86)\microsoft visual studio 10.0\vc\include\xmemory
;	COMDAT ?deallocate@?$allocator@VioHashString@@@std@@QAEXPAVioHashString@@I@Z
_TEXT	SEGMENT
__Ptr$ = 8						; size = 4
___formal$ = 12						; size = 4
?deallocate@?$allocator@VioHashString@@@std@@QAEXPAVioHashString@@I@Z PROC ; std::allocator<ioHashString>::deallocate, COMDAT
; _this$ = ecx

; 181  : 		{	// deallocate object at _Ptr, ignore size

  00000	55		 push	 ebp
  00001	8b ec		 mov	 ebp, esp

; 182  : 		::operator delete(_Ptr);

  00003	ff 75 08	 push	 DWORD PTR __Ptr$[ebp]
  00006	e8 00 00 00 00	 call	 ??3@YAXPAX@Z		; operator delete
  0000b	59		 pop	 ecx

; 183  : 		}

  0000c	5d		 pop	 ebp
  0000d	c2 08 00	 ret	 8
?deallocate@?$allocator@VioHashString@@@std@@QAEXPAVioHashString@@I@Z ENDP ; std::allocator<ioHashString>::deallocate
_TEXT	ENDS
PUBLIC	?max_size@?$allocator@VioHashString@@@std@@QBEIXZ ; std::allocator<ioHashString>::max_size
; Function compile flags: /Ogsp
;	COMDAT ?max_size@?$allocator@VioHashString@@@std@@QBEIXZ
_TEXT	SEGMENT
?max_size@?$allocator@VioHashString@@@std@@QBEIXZ PROC	; std::allocator<ioHashString>::max_size, COMDAT
; _this$ = ecx

; 218  : 		_SIZT _Count = (_SIZT)(-1) / sizeof (_Ty);
; 219  : 		return (0 < _Count ? _Count : 1);

  00000	b8 ff ff ff 0f	 mov	 eax, 268435455		; 0fffffffH

; 220  : 		}

  00005	c3		 ret	 0
?max_size@?$allocator@VioHashString@@@std@@QBEIXZ ENDP	; std::allocator<ioHashString>::max_size
_TEXT	ENDS
PUBLIC	__TI2?AVbad_alloc@std@@
PUBLIC	??$_Allocate@VioHashString@@@std@@YAPAVioHashString@@IPAV1@@Z ; std::_Allocate<ioHashString>
PUBLIC	__CTA2?AVbad_alloc@std@@
PUBLIC	__CT??_R0?AVbad_alloc@std@@@8??0bad_alloc@std@@QAE@ABV01@@Z12
PUBLIC	??0bad_alloc@std@@QAE@ABV01@@Z			; std::bad_alloc::bad_alloc
PUBLIC	__CT??_R0?AVexception@std@@@8??0exception@std@@QAE@ABV01@@Z12
EXTRN	__CxxThrowException@8:PROC
EXTRN	??0exception@std@@QAE@ABV01@@Z:PROC		; std::exception::exception
;	COMDAT __CT??_R0?AVexception@std@@@8??0exception@std@@QAE@ABV01@@Z12
; File c:\program files (x86)\microsoft visual studio 10.0\vc\include\exception
xdata$x	SEGMENT
__CT??_R0?AVexception@std@@@8??0exception@std@@QAE@ABV01@@Z12 DD 00H
	DD	FLAT:??_R0?AVexception@std@@@8
	DD	00H
	DD	0ffffffffH
	ORG $+4
	DD	0cH
	DD	FLAT:??0exception@std@@QAE@ABV01@@Z
xdata$x	ENDS
;	COMDAT __CT??_R0?AVbad_alloc@std@@@8??0bad_alloc@std@@QAE@ABV01@@Z12
xdata$x	SEGMENT
__CT??_R0?AVbad_alloc@std@@@8??0bad_alloc@std@@QAE@ABV01@@Z12 DD 00H
	DD	FLAT:??_R0?AVbad_alloc@std@@@8
	DD	00H
	DD	0ffffffffH
	ORG $+4
	DD	0cH
	DD	FLAT:??0bad_alloc@std@@QAE@ABV01@@Z
xdata$x	ENDS
;	COMDAT __CTA2?AVbad_alloc@std@@
xdata$x	SEGMENT
__CTA2?AVbad_alloc@std@@ DD 02H
	DD	FLAT:__CT??_R0?AVbad_alloc@std@@@8??0bad_alloc@std@@QAE@ABV01@@Z12
	DD	FLAT:__CT??_R0?AVexception@std@@@8??0exception@std@@QAE@ABV01@@Z12
xdata$x	ENDS
;	COMDAT __TI2?AVbad_alloc@std@@
xdata$x	SEGMENT
__TI2?AVbad_alloc@std@@ DD 00H
	DD	FLAT:??1bad_alloc@std@@UAE@XZ
	DD	00H
	DD	FLAT:__CTA2?AVbad_alloc@std@@
; Function compile flags: /Ogsp
; File c:\program files (x86)\microsoft visual studio 10.0\vc\include\xmemory
xdata$x	ENDS
;	COMDAT ??$_Allocate@VioHashString@@@std@@YAPAVioHashString@@IPAV1@@Z
_TEXT	SEGMENT
$T528853 = -12						; size = 12
$T528858 = 8						; size = 4
__Count$ = 8						; size = 4
___formal$ = 12						; size = 4
??$_Allocate@VioHashString@@@std@@YAPAVioHashString@@IPAV1@@Z PROC ; std::_Allocate<ioHashString>, COMDAT

; 30   : 	{	// allocate storage for _Count elements of type _Ty

  00000	55		 push	 ebp
  00001	8b ec		 mov	 ebp, esp

; 31   : 	void *_Ptr = 0;
; 32   : 
; 33   : 	if (_Count <= 0)

  00003	8b 4d 08	 mov	 ecx, DWORD PTR __Count$[ebp]
  00006	83 ec 0c	 sub	 esp, 12			; 0000000cH
  00009	33 c0		 xor	 eax, eax
  0000b	85 c9		 test	 ecx, ecx

; 34   : 		_Count = 0;
; 35   : 	else if (((_SIZT)(-1) / sizeof (_Ty) < _Count)

  0000d	74 3c		 je	 SHORT $LN5@Allocate

; 36   : 		|| (_Ptr = ::operator new(_Count * sizeof (_Ty))) == 0)

  0000f	81 f9 ff ff ff
	0f		 cmp	 ecx, 268435455		; 0fffffffH
  00015	77 0e		 ja	 SHORT $LN1@Allocate
  00017	c1 e1 04	 shl	 ecx, 4
  0001a	51		 push	 ecx
  0001b	e8 00 00 00 00	 call	 ??2@YAPAXI@Z		; operator new
  00020	59		 pop	 ecx
  00021	85 c0		 test	 eax, eax

; 38   : 
; 39   : 	return ((_Ty _FARQ *)_Ptr);

  00023	75 26		 jne	 SHORT $LN5@Allocate
$LN1@Allocate:

; 37   : 		_THROW_NCEE(bad_alloc, 0);

  00025	83 65 08 00	 and	 DWORD PTR $T528858[ebp], 0
  00029	8d 45 08	 lea	 eax, DWORD PTR $T528858[ebp]
  0002c	50		 push	 eax
  0002d	8d 4d f4	 lea	 ecx, DWORD PTR $T528853[ebp]
  00030	ff 15 00 00 00
	00		 call	 DWORD PTR __imp_??0exception@std@@QAE@ABQBD@Z
  00036	68 00 00 00 00	 push	 OFFSET __TI2?AVbad_alloc@std@@
  0003b	8d 45 f4	 lea	 eax, DWORD PTR $T528853[ebp]
  0003e	50		 push	 eax
  0003f	c7 45 f4 00 00
	00 00		 mov	 DWORD PTR $T528853[ebp], OFFSET ??_7bad_alloc@std@@6B@
  00046	e8 00 00 00 00	 call	 __CxxThrowException@8
$LN10@Allocate:
$LN5@Allocate:

; 40   : 	}

  0004b	c9		 leave
  0004c	c3		 ret	 0
$LN9@Allocate:
??$_Allocate@VioHashString@@@std@@YAPAVioHashString@@IPAV1@@Z ENDP ; std::_Allocate<ioHashString>
_TEXT	ENDS
EXTRN	__imp_??0exception@std@@QAE@ABV01@@Z:PROC
; Function compile flags: /Ogsp
;	COMDAT ??0bad_alloc@std@@QAE@ABV01@@Z
_TEXT	SEGMENT
___that$ = 8						; size = 4
??0bad_alloc@std@@QAE@ABV01@@Z PROC			; std::bad_alloc::bad_alloc, COMDAT
; _this$ = ecx
  00000	55		 push	 ebp
  00001	8b ec		 mov	 ebp, esp
  00003	56		 push	 esi
  00004	ff 75 08	 push	 DWORD PTR ___that$[ebp]
  00007	8b f1		 mov	 esi, ecx
  00009	ff 15 00 00 00
	00		 call	 DWORD PTR __imp_??0exception@std@@QAE@ABV01@@Z
  0000f	c7 06 00 00 00
	00		 mov	 DWORD PTR [esi], OFFSET ??_7bad_alloc@std@@6B@
  00015	8b c6		 mov	 eax, esi
  00017	5e		 pop	 esi
  00018	5d		 pop	 ebp
  00019	c2 04 00	 ret	 4
??0bad_alloc@std@@QAE@ABV01@@Z ENDP			; std::bad_alloc::bad_alloc
_TEXT	ENDS
PUBLIC	??$forward@ABVioHashString@@@std@@YAABVioHashString@@ABV1@@Z ; std::forward<ioHashString const &>
; Function compile flags: /Ogsp
; File c:\program files (x86)\microsoft visual studio 10.0\vc\include\utility
;	COMDAT ??$forward@ABVioHashString@@@std@@YAABVioHashString@@ABV1@@Z
_TEXT	SEGMENT
__Arg$ = 8						; size = 4
??$forward@ABVioHashString@@@std@@YAABVioHashString@@ABV1@@Z PROC ; std::forward<ioHashString const &>, COMDAT

; 78   : 	{	// forward _Arg, given explicitly specified type parameter

  00000	55		 push	 ebp
  00001	8b ec		 mov	 ebp, esp

; 79   : 	return ((_Ty&&)_Arg);

  00003	8b 45 08	 mov	 eax, DWORD PTR __Arg$[ebp]

; 80   : 	}

  00006	5d		 pop	 ebp
  00007	c3		 ret	 0
??$forward@ABVioHashString@@@std@@YAABVioHashString@@ABV1@@Z ENDP ; std::forward<ioHashString const &>
_TEXT	ENDS
PUBLIC	??$forward@AAVioHashString@@@std@@YAAAVioHashString@@AAV1@@Z ; std::forward<ioHashString &>
; Function compile flags: /Ogsp
;	COMDAT ??$forward@AAVioHashString@@@std@@YAAAVioHashString@@AAV1@@Z
_TEXT	SEGMENT
__Arg$ = 8						; size = 4
??$forward@AAVioHashString@@@std@@YAAAVioHashString@@AAV1@@Z PROC ; std::forward<ioHashString &>, COMDAT

; 78   : 	{	// forward _Arg, given explicitly specified type parameter

  00000	55		 push	 ebp
  00001	8b ec		 mov	 ebp, esp

; 79   : 	return ((_Ty&&)_Arg);

  00003	8b 45 08	 mov	 eax, DWORD PTR __Arg$[ebp]

; 80   : 	}

  00006	5d		 pop	 ebp
  00007	c3		 ret	 0
??$forward@AAVioHashString@@@std@@YAAAVioHashString@@AAV1@@Z ENDP ; std::forward<ioHashString &>
_TEXT	ENDS
PUBLIC	??$_Ptr_cat@VioHashString@@V1@@std@@YA?AU_Nonscalar_ptr_iterator_tag@0@PAVioHashString@@0@Z ; std::_Ptr_cat<ioHashString,ioHashString>
; Function compile flags: /Ogsp
; File c:\program files (x86)\microsoft visual studio 10.0\vc\include\xutility
;	COMDAT ??$_Ptr_cat@VioHashString@@V1@@std@@YA?AU_Nonscalar_ptr_iterator_tag@0@PAVioHashString@@0@Z
_TEXT	SEGMENT
__Cat$ = -1						; size = 1
___formal$ = 8						; size = 4
___formal$ = 12						; size = 4
??$_Ptr_cat@VioHashString@@V1@@std@@YA?AU_Nonscalar_ptr_iterator_tag@0@PAVioHashString@@0@Z PROC ; std::_Ptr_cat<ioHashString,ioHashString>, COMDAT

; 516  : 	{	// return pointer category from pointers

  00000	55		 push	 ebp
  00001	8b ec		 mov	 ebp, esp
  00003	51		 push	 ecx

; 517  : 	typename _Ptr_cat_helper<_Elem1, _Elem2>::_Type _Cat;
; 518  : 	return (_Cat);

  00004	8a 45 ff	 mov	 al, BYTE PTR __Cat$[ebp]

; 519  : 	}

  00007	c9		 leave
  00008	c3		 ret	 0
??$_Ptr_cat@VioHashString@@V1@@std@@YA?AU_Nonscalar_ptr_iterator_tag@0@PAVioHashString@@0@Z ENDP ; std::_Ptr_cat<ioHashString,ioHashString>
_TEXT	ENDS
PUBLIC	??_GioHashString@@QAEPAXI@Z			; ioHashString::`scalar deleting destructor'
; Function compile flags: /Ogsp
;	COMDAT ??_GioHashString@@QAEPAXI@Z
_TEXT	SEGMENT
___flags$ = 8						; size = 4
??_GioHashString@@QAEPAXI@Z PROC			; ioHashString::`scalar deleting destructor', COMDAT
; _this$ = ecx
  00000	55		 push	 ebp
  00001	8b ec		 mov	 ebp, esp
  00003	56		 push	 esi
  00004	8b f1		 mov	 esi, ecx
  00006	ff 15 00 00 00
	00		 call	 DWORD PTR __imp_??1ioHashString@@QAE@XZ
  0000c	f6 45 08 01	 test	 BYTE PTR ___flags$[ebp], 1
  00010	74 07		 je	 SHORT $LN1@scalar@3
  00012	56		 push	 esi
  00013	e8 00 00 00 00	 call	 ??3@YAXPAX@Z		; operator delete
  00018	59		 pop	 ecx
$LN1@scalar@3:
  00019	8b c6		 mov	 eax, esi
  0001b	5e		 pop	 esi
  0001c	5d		 pop	 ebp
  0001d	c2 04 00	 ret	 4
??_GioHashString@@QAEPAXI@Z ENDP			; ioHashString::`scalar deleting destructor'
_TEXT	ENDS
PUBLIC	??$_Construct@VioHashString@@ABV1@@std@@YAXPAVioHashString@@ABV1@@Z ; std::_Construct<ioHashString,ioHashString const &>
EXTRN	__imp_??0ioHashString@@QAE@ABV0@@Z:PROC
;	COMDAT xdata$x
; File c:\program files (x86)\microsoft visual studio 10.0\vc\include\utility
xdata$x	SEGMENT
__unwindtable$??$_Construct@VioHashString@@ABV1@@std@@YAXPAVioHashString@@ABV1@@Z DD 0ffffffffH
	DD	FLAT:__unwindfunclet$??$_Construct@VioHashString@@ABV1@@std@@YAXPAVioHashString@@ABV1@@Z$0
__ehfuncinfo$??$_Construct@VioHashString@@ABV1@@std@@YAXPAVioHashString@@ABV1@@Z DD 019930522H
	DD	01H
	DD	FLAT:__unwindtable$??$_Construct@VioHashString@@ABV1@@std@@YAXPAVioHashString@@ABV1@@Z
	DD	2 DUP(00H)
	DD	2 DUP(00H)
	DD	00H
	DD	01H
; Function compile flags: /Ogsp
; File c:\program files (x86)\microsoft visual studio 10.0\vc\include\xmemory
xdata$x	ENDS
;	COMDAT ??$_Construct@VioHashString@@ABV1@@std@@YAXPAVioHashString@@ABV1@@Z
_TEXT	SEGMENT
$T528875 = -16						; size = 4
__$EHRec$ = -12						; size = 12
__Vptr$ = 8						; size = 4
__Ptr$ = 8						; size = 4
__Val$ = 12						; size = 4
??$_Construct@VioHashString@@ABV1@@std@@YAXPAVioHashString@@ABV1@@Z PROC ; std::_Construct<ioHashString,ioHashString const &>, COMDAT

; 46   : 	{	// construct object at _Ptr with value _Val

  00000	6a 04		 push	 4
  00002	b8 00 00 00 00	 mov	 eax, __ehhandler$??$_Construct@VioHashString@@ABV1@@std@@YAXPAVioHashString@@ABV1@@Z
  00007	e8 00 00 00 00	 call	 __EH_prolog3

; 47   : 	void _FARQ *_Vptr = _Ptr;

  0000c	8b 4d 08	 mov	 ecx, DWORD PTR __Ptr$[ebp]
  0000f	89 4d 08	 mov	 DWORD PTR __Vptr$[ebp], ecx

; 48   : 	::new (_Vptr) _Ty1(_STD forward<_Ty2>(_Val));

  00012	89 4d f0	 mov	 DWORD PTR $T528875[ebp], ecx
  00015	83 65 fc 00	 and	 DWORD PTR __$EHRec$[ebp+8], 0
  00019	85 c9		 test	 ecx, ecx
  0001b	74 09		 je	 SHORT $LN3@Construct
  0001d	ff 75 0c	 push	 DWORD PTR __Val$[ebp]
  00020	ff 15 00 00 00
	00		 call	 DWORD PTR __imp_??0ioHashString@@QAE@ABV0@@Z
$LN3@Construct:

; 49   : 	}

  00026	e8 00 00 00 00	 call	 __EH_epilog3
  0002b	c3		 ret	 0
_TEXT	ENDS
;	COMDAT text$x
text$x	SEGMENT
__unwindfunclet$??$_Construct@VioHashString@@ABV1@@std@@YAXPAVioHashString@@ABV1@@Z$0:
  00000	ff 75 08	 push	 DWORD PTR __Vptr$[ebp]
  00003	ff 75 f0	 push	 DWORD PTR $T528875[ebp]
  00006	e8 00 00 00 00	 call	 ??3@YAXPAX0@Z		; operator delete
  0000b	59		 pop	 ecx
  0000c	59		 pop	 ecx
  0000d	c3		 ret	 0
__ehhandler$??$_Construct@VioHashString@@ABV1@@std@@YAXPAVioHashString@@ABV1@@Z:
  0000e	8b 54 24 08	 mov	 edx, DWORD PTR [esp+8]
  00012	8d 42 0c	 lea	 eax, DWORD PTR [edx+12]
  00015	8b 4a ec	 mov	 ecx, DWORD PTR [edx-20]
  00018	33 c8		 xor	 ecx, eax
  0001a	e8 00 00 00 00	 call	 @__security_check_cookie@4
  0001f	b8 00 00 00 00	 mov	 eax, OFFSET __ehfuncinfo$??$_Construct@VioHashString@@ABV1@@std@@YAXPAVioHashString@@ABV1@@Z
  00024	e9 00 00 00 00	 jmp	 ___CxxFrameHandler3
text$x	ENDS
??$_Construct@VioHashString@@ABV1@@std@@YAXPAVioHashString@@ABV1@@Z ENDP ; std::_Construct<ioHashString,ioHashString const &>
PUBLIC	??_R0?AVioBaseChar@@@8				; ioBaseChar `RTTI Type Descriptor'
PUBLIC	?ToBaseChar@@YAPAVioBaseChar@@PAVioGameEntity@@@Z ; ToBaseChar
;	COMDAT ??_R0?AVioBaseChar@@@8
; File d:\lost saga for developer\youtube\tutorial\source\src\lsclient\iobasechar.h
_DATA	SEGMENT
??_R0?AVioBaseChar@@@8 DD FLAT:??_7type_info@@6B@	; ioBaseChar `RTTI Type Descriptor'
	DD	00H
	DB	'.?AVioBaseChar@@', 00H
; Function compile flags: /Ogsp
_DATA	ENDS
;	COMDAT ?ToBaseChar@@YAPAVioBaseChar@@PAVioGameEntity@@@Z
_TEXT	SEGMENT
_pObj$ = 8						; size = 4
?ToBaseChar@@YAPAVioBaseChar@@PAVioGameEntity@@@Z PROC	; ToBaseChar, COMDAT

; 4326 : {

  00000	55		 push	 ebp
  00001	8b ec		 mov	 ebp, esp
  00003	56		 push	 esi

; 4327 : 	ioPlayEntity *pPlay = ToPlayEntity( pObj );

  00004	ff 75 08	 push	 DWORD PTR _pObj$[ebp]
  00007	e8 00 00 00 00	 call	 ?ToPlayEntity@@YAPAVioPlayEntity@@PAVioGameEntity@@@Z ; ToPlayEntity
  0000c	8b f0		 mov	 esi, eax
  0000e	59		 pop	 ecx

; 4328 : 	if( !pPlay || pPlay->GetSubType() != ioPlayEntity::PST_CHAR )

  0000f	85 f6		 test	 esi, esi
  00011	74 25		 je	 SHORT $LN1@ToBaseChar
  00013	8b 06		 mov	 eax, DWORD PTR [esi]
  00015	8b ce		 mov	 ecx, esi
  00017	ff 90 a4 00 00
	00		 call	 DWORD PTR [eax+164]
  0001d	85 c0		 test	 eax, eax
  0001f	75 17		 jne	 SHORT $LN1@ToBaseChar

; 4330 : 
; 4331 : 	return dynamic_cast< ioBaseChar* >( pPlay );

  00021	50		 push	 eax
  00022	68 00 00 00 00	 push	 OFFSET ??_R0?AVioBaseChar@@@8
  00027	68 00 00 00 00	 push	 OFFSET ??_R0?AVioPlayEntity@@@8
  0002c	50		 push	 eax
  0002d	56		 push	 esi
  0002e	e8 00 00 00 00	 call	 ___RTDynamicCast
  00033	83 c4 14	 add	 esp, 20			; 00000014H
  00036	eb 02		 jmp	 SHORT $LN3@ToBaseChar
$LN1@ToBaseChar:

; 4329 : 		return NULL;

  00038	33 c0		 xor	 eax, eax
$LN3@ToBaseChar:
  0003a	5e		 pop	 esi

; 4332 : }

  0003b	5d		 pop	 ebp
  0003c	c3		 ret	 0
?ToBaseChar@@YAPAVioBaseChar@@PAVioGameEntity@@@Z ENDP	; ToBaseChar
_TEXT	ENDS
PUBLIC	??_R0?AVioNpcChar@@@8				; ioNpcChar `RTTI Type Descriptor'
PUBLIC	?ToNpcChar@@YAPAVioNpcChar@@PAVioGameEntity@@@Z	; ToNpcChar
;	COMDAT ??_R0?AVioNpcChar@@@8
; File d:\lost saga for developer\youtube\tutorial\source\src\lsclient\ionpcchar.h
_DATA	SEGMENT
??_R0?AVioNpcChar@@@8 DD FLAT:??_7type_info@@6B@	; ioNpcChar `RTTI Type Descriptor'
	DD	00H
	DB	'.?AVioNpcChar@@', 00H
; Function compile flags: /Ogsp
_DATA	ENDS
;	COMDAT ?ToNpcChar@@YAPAVioNpcChar@@PAVioGameEntity@@@Z
_TEXT	SEGMENT
_pObj$ = 8						; size = 4
?ToNpcChar@@YAPAVioNpcChar@@PAVioGameEntity@@@Z PROC	; ToNpcChar, COMDAT

; 361  : {

  00000	55		 push	 ebp
  00001	8b ec		 mov	 ebp, esp
  00003	56		 push	 esi

; 362  : 	ioBaseChar *pChar = ToBaseChar( pObj );

  00004	ff 75 08	 push	 DWORD PTR _pObj$[ebp]
  00007	e8 00 00 00 00	 call	 ?ToBaseChar@@YAPAVioBaseChar@@PAVioGameEntity@@@Z ; ToBaseChar
  0000c	8b f0		 mov	 esi, eax
  0000e	59		 pop	 ecx

; 363  : 	if( !pChar || pChar->GetControlType() != CONTROL_AI )

  0000f	85 f6		 test	 esi, esi
  00011	74 28		 je	 SHORT $LN1@ToNpcChar
  00013	8b 06		 mov	 eax, DWORD PTR [esi]
  00015	8b ce		 mov	 ecx, esi
  00017	ff 90 ec 00 00
	00		 call	 DWORD PTR [eax+236]
  0001d	83 f8 02	 cmp	 eax, 2
  00020	75 19		 jne	 SHORT $LN1@ToNpcChar

; 365  : 
; 366  : 	return dynamic_cast< ioNpcChar* >(pChar);

  00022	6a 00		 push	 0
  00024	68 00 00 00 00	 push	 OFFSET ??_R0?AVioNpcChar@@@8
  00029	68 00 00 00 00	 push	 OFFSET ??_R0?AVioBaseChar@@@8
  0002e	6a 00		 push	 0
  00030	56		 push	 esi
  00031	e8 00 00 00 00	 call	 ___RTDynamicCast
  00036	83 c4 14	 add	 esp, 20			; 00000014H
  00039	eb 02		 jmp	 SHORT $LN3@ToNpcChar
$LN1@ToNpcChar:

; 364  : 		return NULL;

  0003b	33 c0		 xor	 eax, eax
$LN3@ToNpcChar:
  0003d	5e		 pop	 esi

; 367  : }

  0003e	5d		 pop	 ebp
  0003f	c3		 ret	 0
?ToNpcChar@@YAPAVioNpcChar@@PAVioGameEntity@@@Z ENDP	; ToNpcChar
_TEXT	ENDS
PUBLIC	??_C@_0BG@DPCEICE@public_shop_delay?4ani?$AA@	; `string'
PUBLIC	__real@44160000
PUBLIC	__real@42340000
PUBLIC	__real@3f800000
PUBLIC	__real@41700000
PUBLIC	__real@c1000000
PUBLIC	__real@c2f40000
PUBLIC	__real@44328000
PUBLIC	??_C@_0CM@PDOHFKGB@TowerDef3DChar?3?3SetAvata?5?9?5Creat@ ; `string'
PUBLIC	??_C@_0L@MHICKLHG@ResultChar?$AA@		; `string'
PUBLIC	?SetChar@TowerDef3DChar@@QAEXPAVioBaseChar@@@Z	; TowerDef3DChar::SetChar
EXTRN	?SetLoopAni@ioCreateChar@@QAEXABVioHashString@@M@Z:PROC ; ioCreateChar::SetLoopAni
EXTRN	?ReleaseItem@ioCreateChar@@QAEXH@Z:PROC		; ioCreateChar::ReleaseItem
EXTRN	?EquipItem@ioCreateChar@@QAEXKKKHH@Z:PROC	; ioCreateChar::EquipItem
EXTRN	?GetItemMaleCustom@ioItem@@QBEKXZ:PROC		; ioItem::GetItemMaleCustom
EXTRN	?GetItemFemaleCustom@ioItem@@QBEKXZ:PROC	; ioItem::GetItemFemaleCustom
EXTRN	?GetCostumeCode@ioItem@@QAEHXZ:PROC		; ioItem::GetCostumeCode
EXTRN	?GetHelmet@ioBaseChar@@QBEPAVioHelmetItem@@XZ:PROC ; ioBaseChar::GetHelmet
EXTRN	?SetProjection@ioUI3DRender@@QAEXMMMM@Z:PROC	; ioUI3DRender::SetProjection
EXTRN	?SetLookAt@ioUI3DRender@@QAEXMMM@Z:PROC		; ioUI3DRender::SetLookAt
EXTRN	?SetPitch@ioCreateChar@@QAEXM@Z:PROC		; ioCreateChar::SetPitch
EXTRN	?SetPosition@ioCreateChar@@QAEXMMM@Z:PROC	; ioCreateChar::SetPosition
EXTRN	?DestroyHandAndBody@ioCreateChar@@QAEXXZ:PROC	; ioCreateChar::DestroyHandAndBody
EXTRN	__imp_?PrintTimeAndLog@CLog@@QAAXHPADZZ:PROC
EXTRN	__imp_?LOG@@3VCLog@@A:BYTE
EXTRN	?CreateChar@ioUI3DRender@@QAEPAVioCreateChar@@ABUCHARACTER@@ABVioHashString@@_N@Z:PROC ; ioUI3DRender::CreateChar
EXTRN	__imp_??0ioHashString@@QAE@PBD@Z:PROC
;	COMDAT ??_C@_0BG@DPCEICE@public_shop_delay?4ani?$AA@
; File d:\lost saga for developer\youtube\tutorial\source\src\lsclient\ioitem.h
CONST	SEGMENT
??_C@_0BG@DPCEICE@public_shop_delay?4ani?$AA@ DB 'public_shop_delay.ani', 00H ; `string'
CONST	ENDS
;	COMDAT __real@44160000
CONST	SEGMENT
__real@44160000 DD 044160000r			; 600
CONST	ENDS
;	COMDAT __real@42340000
CONST	SEGMENT
__real@42340000 DD 042340000r			; 45
CONST	ENDS
;	COMDAT __real@3f800000
CONST	SEGMENT
__real@3f800000 DD 03f800000r			; 1
CONST	ENDS
;	COMDAT __real@41700000
CONST	SEGMENT
__real@41700000 DD 041700000r			; 15
CONST	ENDS
;	COMDAT __real@c1000000
CONST	SEGMENT
__real@c1000000 DD 0c1000000r			; -8
CONST	ENDS
;	COMDAT __real@c2f40000
CONST	SEGMENT
__real@c2f40000 DD 0c2f40000r			; -122
CONST	ENDS
;	COMDAT __real@44328000
CONST	SEGMENT
__real@44328000 DD 044328000r			; 714
CONST	ENDS
;	COMDAT ??_C@_0CM@PDOHFKGB@TowerDef3DChar?3?3SetAvata?5?9?5Creat@
CONST	SEGMENT
??_C@_0CM@PDOHFKGB@TowerDef3DChar?3?3SetAvata?5?9?5Creat@ DB 'TowerDef3DC'
	DB	'har::SetAvata - CreateAvata Fail', 00H	; `string'
CONST	ENDS
;	COMDAT ??_C@_0L@MHICKLHG@ResultChar?$AA@
CONST	SEGMENT
??_C@_0L@MHICKLHG@ResultChar?$AA@ DB 'ResultChar', 00H	; `string'
CONST	ENDS
;	COMDAT xdata$x
xdata$x	SEGMENT
__unwindtable$?SetChar@TowerDef3DChar@@QAEXPAVioBaseChar@@@Z DD 0ffffffffH
	DD	FLAT:__unwindfunclet$?SetChar@TowerDef3DChar@@QAEXPAVioBaseChar@@@Z$0
	DD	0ffffffffH
	DD	FLAT:__unwindfunclet$?SetChar@TowerDef3DChar@@QAEXPAVioBaseChar@@@Z$1
__ehfuncinfo$?SetChar@TowerDef3DChar@@QAEXPAVioBaseChar@@@Z DD 019930522H
	DD	02H
	DD	FLAT:__unwindtable$?SetChar@TowerDef3DChar@@QAEXPAVioBaseChar@@@Z
	DD	2 DUP(00H)
	DD	2 DUP(00H)
	DD	00H
	DD	01H
; Function compile flags: /Ogsp
; File d:\lost saga for developer\youtube\tutorial\source\src\lsclient\gui\towerdefwnd.cpp
xdata$x	ENDS
;	COMDAT ?SetChar@TowerDef3DChar@@QAEXPAVioBaseChar@@@Z
_TEXT	SEGMENT
$T528902 = -48						; size = 16
$T528901 = -32						; size = 16
tv238 = -16						; size = 4
tv231 = -16						; size = 4
__$EHRec$ = -12						; size = 12
$T528915 = 8						; size = 4
_pChar$ = 8						; size = 4
?SetChar@TowerDef3DChar@@QAEXPAVioBaseChar@@@Z PROC	; TowerDef3DChar::SetChar, COMDAT
; _this$ = ecx

; 39   : {

  00000	6a 24		 push	 36			; 00000024H
  00002	b8 00 00 00 00	 mov	 eax, __ehhandler$?SetChar@TowerDef3DChar@@QAEXPAVioBaseChar@@@Z
  00007	e8 00 00 00 00	 call	 __EH_prolog3
  0000c	8b f1		 mov	 esi, ecx

; 40   : 	if( !pChar ) return;

  0000e	8b 7d 08	 mov	 edi, DWORD PTR _pChar$[ebp]
  00011	85 ff		 test	 edi, edi
  00013	0f 84 b3 01 00
	00		 je	 $LN7@SetChar

; 41   : 	if( !m_pUI3DRender )	return;

  00019	83 3e 00	 cmp	 DWORD PTR [esi], 0
  0001c	0f 84 aa 01 00
	00		 je	 $LN7@SetChar

; 42   : 
; 43   : 	const CHARACTER &rkInfo = pChar->GetCharacterInfo();
; 44   : 
; 45   : 	SAFEDELETE( m_pAvata );

  00022	8b 4e 04	 mov	 ecx, DWORD PTR [esi+4]
  00025	81 c7 58 03 00
	00		 add	 edi, 856		; 00000358H
  0002b	85 c9		 test	 ecx, ecx
  0002d	74 0b		 je	 SHORT $LN4@SetChar
  0002f	8b 01		 mov	 eax, DWORD PTR [ecx]
  00031	6a 01		 push	 1
  00033	ff 50 04	 call	 DWORD PTR [eax+4]
  00036	83 66 04 00	 and	 DWORD PTR [esi+4], 0
$LN4@SetChar:

; 46   : 	m_pAvata = m_pUI3DRender->CreateChar( rkInfo, "ResultChar" );

  0003a	8b 1d 00 00 00
	00		 mov	 ebx, DWORD PTR __imp_??0ioHashString@@QAE@PBD@Z
  00040	68 00 00 00 00	 push	 OFFSET ??_C@_0L@MHICKLHG@ResultChar?$AA@
  00045	8d 4d e0	 lea	 ecx, DWORD PTR $T528901[ebp]
  00048	ff d3		 call	 ebx
  0004a	8b 0e		 mov	 ecx, DWORD PTR [esi]
  0004c	83 65 fc 00	 and	 DWORD PTR __$EHRec$[ebp+8], 0
  00050	6a 01		 push	 1
  00052	8d 45 e0	 lea	 eax, DWORD PTR $T528901[ebp]
  00055	50		 push	 eax
  00056	57		 push	 edi
  00057	e8 00 00 00 00	 call	 ?CreateChar@ioUI3DRender@@QAEPAVioCreateChar@@ABUCHARACTER@@ABVioHashString@@_N@Z ; ioUI3DRender::CreateChar
  0005c	83 4d fc ff	 or	 DWORD PTR __$EHRec$[ebp+8], -1
  00060	8d 4d e0	 lea	 ecx, DWORD PTR $T528901[ebp]
  00063	89 46 04	 mov	 DWORD PTR [esi+4], eax
  00066	ff 15 00 00 00
	00		 call	 DWORD PTR __imp_??1ioHashString@@QAE@XZ

; 47   : 	if( !m_pAvata )

  0006c	8b 4e 04	 mov	 ecx, DWORD PTR [esi+4]
  0006f	85 c9		 test	 ecx, ecx
  00071	75 1a		 jne	 SHORT $LN3@SetChar

; 48   : 	{
; 49   : 		LOG.PrintTimeAndLog( 0, "TowerDef3DChar::SetAvata - CreateAvata Fail" );

  00073	68 00 00 00 00	 push	 OFFSET ??_C@_0CM@PDOHFKGB@TowerDef3DChar?3?3SetAvata?5?9?5Creat@
  00078	51		 push	 ecx
  00079	ff 35 00 00 00
	00		 push	 DWORD PTR __imp_?LOG@@3VCLog@@A
  0007f	ff 15 00 00 00
	00		 call	 DWORD PTR __imp_?PrintTimeAndLog@CLog@@QAAXHPADZZ
  00085	83 c4 0c	 add	 esp, 12			; 0000000cH

; 50   : 		return;

  00088	e9 3f 01 00 00	 jmp	 $LN7@SetChar
$LN3@SetChar:

; 51   : 	}
; 52   : 
; 53   : 	m_pAvata->DestroyHandAndBody();

  0008d	e8 00 00 00 00	 call	 ?DestroyHandAndBody@ioCreateChar@@QAEXXZ ; ioCreateChar::DestroyHandAndBody

; 54   : 
; 55   : 	m_pAvata->SetPosition( -8.f, -122.f, 714.0f );

  00092	f3 0f 10 05 00
	00 00 00	 movss	 xmm0, DWORD PTR __real@44328000
  0009a	8b 4e 04	 mov	 ecx, DWORD PTR [esi+4]
  0009d	83 ec 0c	 sub	 esp, 12			; 0000000cH
  000a0	f3 0f 11 44 24
	08		 movss	 DWORD PTR [esp+8], xmm0
  000a6	f3 0f 10 05 00
	00 00 00	 movss	 xmm0, DWORD PTR __real@c2f40000
  000ae	f3 0f 11 44 24
	04		 movss	 DWORD PTR [esp+4], xmm0
  000b4	f3 0f 10 05 00
	00 00 00	 movss	 xmm0, DWORD PTR __real@c1000000
  000bc	f3 0f 11 04 24	 movss	 DWORD PTR [esp], xmm0
  000c1	e8 00 00 00 00	 call	 ?SetPosition@ioCreateChar@@QAEXMMM@Z ; ioCreateChar::SetPosition

; 56   : 	m_pAvata->SetPitch(15.f);

  000c6	8b 4e 04	 mov	 ecx, DWORD PTR [esi+4]
  000c9	f3 0f 10 05 00
	00 00 00	 movss	 xmm0, DWORD PTR __real@41700000
  000d1	51		 push	 ecx
  000d2	f3 0f 11 04 24	 movss	 DWORD PTR [esp], xmm0
  000d7	e8 00 00 00 00	 call	 ?SetPitch@ioCreateChar@@QAEXM@Z ; ioCreateChar::SetPitch

; 57   : 	m_pUI3DRender->SetLookAt( 0.0f, 0.0f, 714.0f );

  000dc	f3 0f 10 05 00
	00 00 00	 movss	 xmm0, DWORD PTR __real@44328000
  000e4	8b 0e		 mov	 ecx, DWORD PTR [esi]
  000e6	83 ec 0c	 sub	 esp, 12			; 0000000cH
  000e9	f3 0f 11 44 24
	08		 movss	 DWORD PTR [esp+8], xmm0
  000ef	0f 57 c0	 xorps	 xmm0, xmm0
  000f2	f3 0f 11 44 24
	04		 movss	 DWORD PTR [esp+4], xmm0
  000f8	f3 0f 11 04 24	 movss	 DWORD PTR [esp], xmm0
  000fd	e8 00 00 00 00	 call	 ?SetLookAt@ioUI3DRender@@QAEXMMM@Z ; ioUI3DRender::SetLookAt

; 58   : 
; 59   : 	m_pUI3DRender->SetProjection( FLOAT1, 600.0f, 45.0f, (float)VIEW_WIDTH/(float)VIEW_HEIGHT );

  00102	b8 01 00 00 00	 mov	 eax, 1
  00107	f3 0f 10 05 00
	00 00 00	 movss	 xmm0, DWORD PTR __real@3f800000
  0010f	83 ec 10	 sub	 esp, 16			; 00000010H
  00112	f3 0f 11 44 24
	0c		 movss	 DWORD PTR [esp+12], xmm0
  00118	f3 0f 10 05 00
	00 00 00	 movss	 xmm0, DWORD PTR __real@42340000
  00120	f3 0f 11 44 24
	08		 movss	 DWORD PTR [esp+8], xmm0
  00126	f3 0f 10 05 00
	00 00 00	 movss	 xmm0, DWORD PTR __real@44160000
  0012e	89 45 f0	 mov	 DWORD PTR tv238[ebp], eax
  00131	db 45 f0	 fild	 DWORD PTR tv238[ebp]
  00134	f3 0f 11 44 24
	04		 movss	 DWORD PTR [esp+4], xmm0
  0013a	85 c0		 test	 eax, eax
  0013c	79 06		 jns	 SHORT $LN21@SetChar
  0013e	d8 05 00 00 00
	00		 fadd	 DWORD PTR __real@4f800000
$LN21@SetChar:
  00144	8b 0e		 mov	 ecx, DWORD PTR [esi]
  00146	d9 1c 24	 fstp	 DWORD PTR [esp]
  00149	e8 00 00 00 00	 call	 ?SetProjection@ioUI3DRender@@QAEXMMMM@Z ; ioUI3DRender::SetProjection

; 60   : 
; 61   : 	//   ( )
; 62   : 	int TempCostume = 200001;
; 63   : 
; 64   : 	ioHelmetItem *pItem = pChar->GetHelmet();

  0014e	8b 4d 08	 mov	 ecx, DWORD PTR _pChar$[ebp]
  00151	e8 00 00 00 00	 call	 ?GetHelmet@ioBaseChar@@QBEPAVioHelmetItem@@XZ ; ioBaseChar::GetHelmet
  00156	8b f8		 mov	 edi, eax

; 65   : 	if( pItem )

  00158	85 ff		 test	 edi, edi
  0015a	74 33		 je	 SHORT $LN2@SetChar

; 66   : 	{
; 67   : 		m_pAvata->EquipItem( pItem->GetItemCode(), pItem->GetItemMaleCustom(), pItem->GetItemFemaleCustom(), pItem->GetCostumeCode() );

  0015c	8b 47 38	 mov	 eax, DWORD PTR [edi+56]
  0015f	89 45 08	 mov	 DWORD PTR $T528915[ebp], eax
  00162	8b 46 04	 mov	 eax, DWORD PTR [esi+4]
  00165	6a 00		 push	 0
  00167	8b cf		 mov	 ecx, edi
  00169	89 45 f0	 mov	 DWORD PTR tv231[ebp], eax
  0016c	e8 00 00 00 00	 call	 ?GetCostumeCode@ioItem@@QAEHXZ ; ioItem::GetCostumeCode
  00171	50		 push	 eax
  00172	8b cf		 mov	 ecx, edi
  00174	e8 00 00 00 00	 call	 ?GetItemFemaleCustom@ioItem@@QBEKXZ ; ioItem::GetItemFemaleCustom
  00179	50		 push	 eax
  0017a	8b cf		 mov	 ecx, edi
  0017c	e8 00 00 00 00	 call	 ?GetItemMaleCustom@ioItem@@QBEKXZ ; ioItem::GetItemMaleCustom
  00181	8b 4d f0	 mov	 ecx, DWORD PTR tv231[ebp]
  00184	50		 push	 eax
  00185	ff 75 08	 push	 DWORD PTR $T528915[ebp]
  00188	e8 00 00 00 00	 call	 ?EquipItem@ioCreateChar@@QAEXKKKHH@Z ; ioCreateChar::EquipItem

; 68   : 	}
; 69   : 	else

  0018d	eb 0a		 jmp	 SHORT $LN1@SetChar
$LN2@SetChar:

; 70   : 	{
; 71   : 		m_pAvata->ReleaseItem( ES_HELMET );

  0018f	8b 4e 04	 mov	 ecx, DWORD PTR [esi+4]
  00192	6a 02		 push	 2
  00194	e8 00 00 00 00	 call	 ?ReleaseItem@ioCreateChar@@QAEXH@Z ; ioCreateChar::ReleaseItem
$LN1@SetChar:

; 72   : 	}
; 73   : 
; 74   : 	m_pAvata->SetLoopAni( "public_shop_delay.ani" );

  00199	68 00 00 00 00	 push	 OFFSET ??_C@_0BG@DPCEICE@public_shop_delay?4ani?$AA@
  0019e	8d 4d d0	 lea	 ecx, DWORD PTR $T528902[ebp]
  001a1	ff d3		 call	 ebx
  001a3	8b 4e 04	 mov	 ecx, DWORD PTR [esi+4]
  001a6	0f 57 c0	 xorps	 xmm0, xmm0
  001a9	51		 push	 ecx
  001aa	8d 45 d0	 lea	 eax, DWORD PTR $T528902[ebp]
  001ad	f3 0f 11 04 24	 movss	 DWORD PTR [esp], xmm0
  001b2	50		 push	 eax
  001b3	c7 45 fc 01 00
	00 00		 mov	 DWORD PTR __$EHRec$[ebp+8], 1
  001ba	e8 00 00 00 00	 call	 ?SetLoopAni@ioCreateChar@@QAEXABVioHashString@@M@Z ; ioCreateChar::SetLoopAni
  001bf	83 4d fc ff	 or	 DWORD PTR __$EHRec$[ebp+8], -1
  001c3	8d 4d d0	 lea	 ecx, DWORD PTR $T528902[ebp]
  001c6	ff 15 00 00 00
	00		 call	 DWORD PTR __imp_??1ioHashString@@QAE@XZ
$LN7@SetChar:

; 75   : }

  001cc	e8 00 00 00 00	 call	 __EH_epilog3
  001d1	c2 04 00	 ret	 4
_TEXT	ENDS
;	COMDAT text$x
text$x	SEGMENT
__unwindfunclet$?SetChar@TowerDef3DChar@@QAEXPAVioBaseChar@@@Z$0:
  00000	8d 4d e0	 lea	 ecx, DWORD PTR $T528901[ebp]
  00003	ff 25 00 00 00
	00		 jmp	 DWORD PTR __imp_??1ioHashString@@QAE@XZ
__unwindfunclet$?SetChar@TowerDef3DChar@@QAEXPAVioBaseChar@@@Z$1:
  00009	8d 4d d0	 lea	 ecx, DWORD PTR $T528902[ebp]
  0000c	ff 25 00 00 00
	00		 jmp	 DWORD PTR __imp_??1ioHashString@@QAE@XZ
__ehhandler$?SetChar@TowerDef3DChar@@QAEXPAVioBaseChar@@@Z:
  00012	8b 54 24 08	 mov	 edx, DWORD PTR [esp+8]
  00016	8d 42 0c	 lea	 eax, DWORD PTR [edx+12]
  00019	8b 4a cc	 mov	 ecx, DWORD PTR [edx-52]
  0001c	33 c8		 xor	 ecx, eax
  0001e	e8 00 00 00 00	 call	 @__security_check_cookie@4
  00023	b8 00 00 00 00	 mov	 eax, OFFSET __ehfuncinfo$?SetChar@TowerDef3DChar@@QAEXPAVioBaseChar@@@Z
  00028	e9 00 00 00 00	 jmp	 ___CxxFrameHandler3
text$x	ENDS
?SetChar@TowerDef3DChar@@QAEXPAVioBaseChar@@@Z ENDP	; TowerDef3DChar::SetChar
PUBLIC	?SetHelmChange@TowerDef3DChar@@QAEXPAVioBaseChar@@@Z ; TowerDef3DChar::SetHelmChange
; Function compile flags: /Ogsp
;	COMDAT ?SetHelmChange@TowerDef3DChar@@QAEXPAVioBaseChar@@@Z
_TEXT	SEGMENT
_pChar$ = 8						; size = 4
?SetHelmChange@TowerDef3DChar@@QAEXPAVioBaseChar@@@Z PROC ; TowerDef3DChar::SetHelmChange, COMDAT
; _this$ = ecx

; 99   : {

  00000	55		 push	 ebp
  00001	8b ec		 mov	 ebp, esp
  00003	57		 push	 edi
  00004	8b f9		 mov	 edi, ecx

; 100  : 	if( pChar == NULL ) 

  00006	8b 4d 08	 mov	 ecx, DWORD PTR _pChar$[ebp]
  00009	85 c9		 test	 ecx, ecx
  0000b	74 41		 je	 SHORT $LN1@SetHelmCha

; 101  : 		return;
; 102  : 
; 103  : 	if( m_pAvata )

  0000d	83 7f 04 00	 cmp	 DWORD PTR [edi+4], 0
  00011	74 3b		 je	 SHORT $LN1@SetHelmCha

; 104  : 	{
; 105  : 		ioHelmetItem *pHelmet = pChar->GetHelmet();

  00013	56		 push	 esi
  00014	e8 00 00 00 00	 call	 ?GetHelmet@ioBaseChar@@QBEPAVioHelmetItem@@XZ ; ioBaseChar::GetHelmet
  00019	8b f0		 mov	 esi, eax

; 106  : 		if( pHelmet )

  0001b	85 f6		 test	 esi, esi
  0001d	74 24		 je	 SHORT $LN2@SetHelmCha

; 107  : 			m_pAvata->EquipItem( pHelmet->GetItemCode(), pHelmet->GetItemMaleCustom(), pHelmet->GetItemFemaleCustom() );

  0001f	53		 push	 ebx
  00020	8b 5e 38	 mov	 ebx, DWORD PTR [esi+56]
  00023	6a 00		 push	 0
  00025	6a 00		 push	 0
  00027	8b ce		 mov	 ecx, esi
  00029	e8 00 00 00 00	 call	 ?GetItemFemaleCustom@ioItem@@QBEKXZ ; ioItem::GetItemFemaleCustom
  0002e	50		 push	 eax
  0002f	8b ce		 mov	 ecx, esi
  00031	e8 00 00 00 00	 call	 ?GetItemMaleCustom@ioItem@@QBEKXZ ; ioItem::GetItemMaleCustom
  00036	8b 4f 04	 mov	 ecx, DWORD PTR [edi+4]
  00039	50		 push	 eax
  0003a	53		 push	 ebx
  0003b	e8 00 00 00 00	 call	 ?EquipItem@ioCreateChar@@QAEXKKKHH@Z ; ioCreateChar::EquipItem
  00040	5b		 pop	 ebx

; 108  : 		else

  00041	eb 0a		 jmp	 SHORT $LN9@SetHelmCha
$LN2@SetHelmCha:

; 109  : 			m_pAvata->ReleaseItem( ES_HELMET );

  00043	8b 4f 04	 mov	 ecx, DWORD PTR [edi+4]
  00046	6a 02		 push	 2
  00048	e8 00 00 00 00	 call	 ?ReleaseItem@ioCreateChar@@QAEXH@Z ; ioCreateChar::ReleaseItem
$LN9@SetHelmCha:
  0004d	5e		 pop	 esi
$LN1@SetHelmCha:
  0004e	5f		 pop	 edi

; 110  : 	}
; 111  : }

  0004f	5d		 pop	 ebp
  00050	c2 04 00	 ret	 4
?SetHelmChange@TowerDef3DChar@@QAEXPAVioBaseChar@@@Z ENDP ; TowerDef3DChar::SetHelmChange
_TEXT	ENDS
PUBLIC	??_C@_06LLKNBCJH@jalnan?$AA@			; `string'
PUBLIC	??0TowerDefWnd@@QAE@XZ				; TowerDefWnd::TowerDefWnd
EXTRN	__imp_??4ioHashString@@QAEAAV0@PBD@Z:PROC
EXTRN	??_L@YGXPAXIHP6EX0@Z1@Z:PROC			; `eh vector constructor iterator'
EXTRN	??0FSMStateMgr@@QAE@XZ:PROC			; FSMStateMgr::FSMStateMgr
EXTRN	__imp_??0ioMovingWnd@@QAE@XZ:PROC
EXTRN	_memset:PROC
;	COMDAT ??_C@_06LLKNBCJH@jalnan?$AA@
CONST	SEGMENT
??_C@_06LLKNBCJH@jalnan?$AA@ DB 'jalnan', 00H		; `string'
CONST	ENDS
;	COMDAT xdata$x
xdata$x	SEGMENT
__unwindtable$??0TowerDefWnd@@QAE@XZ DD 0ffffffffH
	DD	FLAT:__unwindfunclet$??0TowerDefWnd@@QAE@XZ$0
	DD	00H
	DD	FLAT:__unwindfunclet$??0TowerDefWnd@@QAE@XZ$1
	DD	01H
	DD	FLAT:__unwindfunclet$??0TowerDefWnd@@QAE@XZ$2
	DD	02H
	DD	FLAT:__unwindfunclet$??0TowerDefWnd@@QAE@XZ$3
__ehfuncinfo$??0TowerDefWnd@@QAE@XZ DD 019930522H
	DD	04H
	DD	FLAT:__unwindtable$??0TowerDefWnd@@QAE@XZ
	DD	2 DUP(00H)
	DD	2 DUP(00H)
	DD	00H
	DD	01H
; Function compile flags: /Ogsp
xdata$x	ENDS
;	COMDAT ??0TowerDefWnd@@QAE@XZ
_TEXT	SEGMENT
_this$ = -16						; size = 4
__$EHRec$ = -12						; size = 12
??0TowerDefWnd@@QAE@XZ PROC				; TowerDefWnd::TowerDefWnd, COMDAT
; _this$ = ecx

; 142  : {

  00000	6a 04		 push	 4
  00002	b8 00 00 00 00	 mov	 eax, __ehhandler$??0TowerDefWnd@@QAE@XZ
  00007	e8 00 00 00 00	 call	 __EH_prolog3
  0000c	8b f1		 mov	 esi, ecx
  0000e	89 75 f0	 mov	 DWORD PTR _this$[ebp], esi
  00011	ff 15 00 00 00
	00		 call	 DWORD PTR __imp_??0ioMovingWnd@@QAE@XZ
  00017	83 65 fc 00	 and	 DWORD PTR __$EHRec$[ebp+8], 0
  0001b	8d 8e 90 01 00
	00		 lea	 ecx, DWORD PTR [esi+400]
  00021	c7 06 00 00 00
	00		 mov	 DWORD PTR [esi], OFFSET ??_7TowerDefWnd@@6B@
  00027	e8 00 00 00 00	 call	 ??0FSMStateMgr@@QAE@XZ	; FSMStateMgr::FSMStateMgr
  0002c	68 00 00 00 00	 push	 OFFSET ??1stUserGauge@TowerDefWnd@@QAE@XZ
  00031	68 00 00 00 00	 push	 OFFSET ??0stUserGauge@TowerDefWnd@@QAE@XZ
  00036	6a 04		 push	 4
  00038	6a 18		 push	 24			; 00000018H
  0003a	8d be c0 01 00
	00		 lea	 edi, DWORD PTR [esi+448]
  00040	57		 push	 edi
  00041	c6 45 fc 01	 mov	 BYTE PTR __$EHRec$[ebp+8], 1
  00045	e8 00 00 00 00	 call	 ??_L@YGXPAXIHP6EX0@Z1@Z
  0004a	8d 8e 20 02 00
	00		 lea	 ecx, DWORD PTR [esi+544]
  00050	c6 45 fc 02	 mov	 BYTE PTR __$EHRec$[ebp+8], 2
  00054	ff 15 00 00 00
	00		 call	 DWORD PTR __imp_??0ioHashString@@QAE@XZ

; 143  : 	ZeroMemory(m_stUserGauge, sizeof(stUserGauge) * MAX_USER);

  0005a	6a 60		 push	 96			; 00000060H
  0005c	6a 00		 push	 0
  0005e	57		 push	 edi
  0005f	c6 45 fc 03	 mov	 BYTE PTR __$EHRec$[ebp+8], 3
  00063	e8 00 00 00 00	 call	 _memset
  00068	83 c4 0c	 add	 esp, 12			; 0000000cH

; 144  : 	m_szNpcName = "jalnan";

  0006b	68 00 00 00 00	 push	 OFFSET ??_C@_06LLKNBCJH@jalnan?$AA@
  00070	8d 8e 20 02 00
	00		 lea	 ecx, DWORD PTR [esi+544]
  00076	ff 15 00 00 00
	00		 call	 DWORD PTR __imp_??4ioHashString@@QAEAAV0@PBD@Z

; 145  : }

  0007c	8b c6		 mov	 eax, esi
  0007e	e8 00 00 00 00	 call	 __EH_epilog3
  00083	c3		 ret	 0
_TEXT	ENDS
;	COMDAT text$x
text$x	SEGMENT
__unwindfunclet$??0TowerDefWnd@@QAE@XZ$0:
  00000	8b 4d f0	 mov	 ecx, DWORD PTR _this$[ebp]
  00003	ff 25 00 00 00
	00		 jmp	 DWORD PTR __imp_??1ioMovingWnd@@UAE@XZ
__unwindfunclet$??0TowerDefWnd@@QAE@XZ$1:
  00009	8b 4d f0	 mov	 ecx, DWORD PTR _this$[ebp]
  0000c	81 c1 90 01 00
	00		 add	 ecx, 400		; 00000190H
  00012	e9 00 00 00 00	 jmp	 ??1FSMStateMgr@@UAE@XZ	; FSMStateMgr::~FSMStateMgr
__unwindfunclet$??0TowerDefWnd@@QAE@XZ$2:
  00017	68 00 00 00 00	 push	 OFFSET ??1stUserGauge@TowerDefWnd@@QAE@XZ
  0001c	6a 04		 push	 4
  0001e	6a 18		 push	 24			; 00000018H
  00020	8b 45 f0	 mov	 eax, DWORD PTR _this$[ebp]
  00023	05 c0 01 00 00	 add	 eax, 448		; 000001c0H
  00028	50		 push	 eax
  00029	e8 00 00 00 00	 call	 ??_M@YGXPAXIHP6EX0@Z@Z
  0002e	c3		 ret	 0
__unwindfunclet$??0TowerDefWnd@@QAE@XZ$3:
  0002f	8b 4d f0	 mov	 ecx, DWORD PTR _this$[ebp]
  00032	81 c1 20 02 00
	00		 add	 ecx, 544		; 00000220H
  00038	ff 25 00 00 00
	00		 jmp	 DWORD PTR __imp_??1ioHashString@@QAE@XZ
__ehhandler$??0TowerDefWnd@@QAE@XZ:
  0003e	8b 54 24 08	 mov	 edx, DWORD PTR [esp+8]
  00042	8d 42 0c	 lea	 eax, DWORD PTR [edx+12]
  00045	8b 4a ec	 mov	 ecx, DWORD PTR [edx-20]
  00048	33 c8		 xor	 ecx, eax
  0004a	e8 00 00 00 00	 call	 @__security_check_cookie@4
  0004f	b8 00 00 00 00	 mov	 eax, OFFSET __ehfuncinfo$??0TowerDefWnd@@QAE@XZ
  00054	e9 00 00 00 00	 jmp	 ___CxxFrameHandler3
text$x	ENDS
??0TowerDefWnd@@QAE@XZ ENDP				; TowerDefWnd::TowerDefWnd
; Function compile flags: /Ogsp
;	COMDAT ??_GTowerDefWnd@@UAEPAXI@Z
_TEXT	SEGMENT
___flags$ = 8						; size = 4
??_GTowerDefWnd@@UAEPAXI@Z PROC				; TowerDefWnd::`scalar deleting destructor', COMDAT
; _this$ = ecx
  00000	55		 push	 ebp
  00001	8b ec		 mov	 ebp, esp
  00003	56		 push	 esi
  00004	8b f1		 mov	 esi, ecx
  00006	e8 00 00 00 00	 call	 ??1TowerDefWnd@@UAE@XZ	; TowerDefWnd::~TowerDefWnd
  0000b	f6 45 08 01	 test	 BYTE PTR ___flags$[ebp], 1
  0000f	74 07		 je	 SHORT $LN1@scalar@4
  00011	56		 push	 esi
  00012	e8 00 00 00 00	 call	 ??3@YAXPAX@Z		; operator delete
  00017	59		 pop	 ecx
$LN1@scalar@4:
  00018	8b c6		 mov	 eax, esi
  0001a	5e		 pop	 esi
  0001b	5d		 pop	 ebp
  0001c	c2 04 00	 ret	 4
??_GTowerDefWnd@@UAEPAXI@Z ENDP				; TowerDefWnd::`scalar deleting destructor'
_TEXT	ENDS
PUBLIC	?UpdateNpcGauge@TowerDefWnd@@QAEXABVioHashString@@MMH@Z ; TowerDefWnd::UpdateNpcGauge
; Function compile flags: /Ogsp
;	COMDAT ?UpdateNpcGauge@TowerDefWnd@@QAEXABVioHashString@@MMH@Z
_TEXT	SEGMENT
_this$ = -8						; size = 4
_pWnd$ = -4						; size = 4
_rkName$ = 8						; size = 4
_fCurHP$ = 12						; size = 4
_fMaxHP$ = 16						; size = 4
_nInstantLv$ = 20					; size = 4
?UpdateNpcGauge@TowerDefWnd@@QAEXABVioHashString@@MMH@Z PROC ; TowerDefWnd::UpdateNpcGauge, COMDAT
; _this$ = ecx

; 268  : {

  00000	55		 push	 ebp
  00001	8b ec		 mov	 ebp, esp
  00003	51		 push	 ecx
  00004	51		 push	 ecx
  00005	53		 push	 ebx
  00006	56		 push	 esi

; 269  : 	TowerDefUserGaugeWnd* pWnd = dynamic_cast<TowerDefUserGaugeWnd*>( FindChildWnd(NPC_GAUGE_WND) );

  00007	8b 35 00 00 00
	00		 mov	 esi, DWORD PTR __imp_?FindChildWnd@ioWnd@@QAEPAV1@K@Z
  0000d	57		 push	 edi
  0000e	6a 00		 push	 0
  00010	bb 00 00 00 00	 mov	 ebx, OFFSET ??_R0?AVTowerDefUserGaugeWnd@@@8
  00015	53		 push	 ebx
  00016	bf 00 00 00 00	 mov	 edi, OFFSET ??_R0?AVioWnd@@@8
  0001b	57		 push	 edi
  0001c	6a 00		 push	 0
  0001e	6a 68		 push	 104			; 00000068H
  00020	89 4d f8	 mov	 DWORD PTR _this$[ebp], ecx
  00023	ff d6		 call	 esi
  00025	50		 push	 eax
  00026	e8 00 00 00 00	 call	 ___RTDynamicCast
  0002b	83 c4 14	 add	 esp, 20			; 00000014H
  0002e	89 45 fc	 mov	 DWORD PTR _pWnd$[ebp], eax

; 270  : 
; 271  : 	if(pWnd)

  00031	85 c0		 test	 eax, eax
  00033	74 6d		 je	 SHORT $LN1@UpdateNpcG

; 272  : 	{
; 273  : 		if( pWnd->GetName() == rkName )

  00035	ff 75 08	 push	 DWORD PTR _rkName$[ebp]
  00038	8d 88 18 02 00
	00		 lea	 ecx, DWORD PTR [eax+536]
  0003e	ff 15 00 00 00
	00		 call	 DWORD PTR __imp_??8ioHashString@@QBE_NABV0@@Z
  00044	84 c0		 test	 al, al
  00046	74 0a		 je	 SHORT $LN4@UpdateNpcG

; 274  : 		{
; 275  : 			pWnd->UpdateGauge(fCurHP, fMaxHP, nInstantLv);

  00048	ff 75 14	 push	 DWORD PTR _nInstantLv$[ebp]
  0004b	51		 push	 ecx
  0004c	51		 push	 ecx
  0004d	8b 4d fc	 mov	 ecx, DWORD PTR _pWnd$[ebp]

; 276  : 		}
; 277  : 		else

  00050	eb 36		 jmp	 SHORT $LN12@UpdateNpcG
$LN4@UpdateNpcG:

; 278  : 		{
; 279  : 			pWnd = dynamic_cast<TowerDefUserGaugeWnd*>( FindChildWnd(NPC_BOSS_WND) );

  00052	8b 4d f8	 mov	 ecx, DWORD PTR _this$[ebp]
  00055	6a 00		 push	 0
  00057	53		 push	 ebx
  00058	57		 push	 edi
  00059	6a 00		 push	 0
  0005b	6a 69		 push	 105			; 00000069H
  0005d	ff d6		 call	 esi
  0005f	50		 push	 eax
  00060	e8 00 00 00 00	 call	 ___RTDynamicCast
  00065	8b f0		 mov	 esi, eax
  00067	83 c4 14	 add	 esp, 20			; 00000014H

; 280  : 
; 281  : 			if(pWnd)

  0006a	85 f6		 test	 esi, esi
  0006c	74 34		 je	 SHORT $LN1@UpdateNpcG

; 282  : 			{
; 283  : 				if( pWnd->GetName() == rkName )

  0006e	ff 75 08	 push	 DWORD PTR _rkName$[ebp]
  00071	8d 8e 18 02 00
	00		 lea	 ecx, DWORD PTR [esi+536]
  00077	ff 15 00 00 00
	00		 call	 DWORD PTR __imp_??8ioHashString@@QBE_NABV0@@Z
  0007d	84 c0		 test	 al, al
  0007f	74 21		 je	 SHORT $LN1@UpdateNpcG

; 284  : 				{
; 285  : 					pWnd->UpdateGauge(fCurHP, fMaxHP, nInstantLv);

  00081	ff 75 14	 push	 DWORD PTR _nInstantLv$[ebp]
  00084	51		 push	 ecx
  00085	51		 push	 ecx
  00086	8b ce		 mov	 ecx, esi
$LN12@UpdateNpcG:
  00088	f3 0f 10 45 10	 movss	 xmm0, DWORD PTR _fMaxHP$[ebp]
  0008d	f3 0f 11 44 24
	04		 movss	 DWORD PTR [esp+4], xmm0
  00093	f3 0f 10 45 0c	 movss	 xmm0, DWORD PTR _fCurHP$[ebp]
  00098	f3 0f 11 04 24	 movss	 DWORD PTR [esp], xmm0
  0009d	e8 00 00 00 00	 call	 ?UpdateGauge@TowerDefUserGaugeWnd@@QAEXMMH@Z ; TowerDefUserGaugeWnd::UpdateGauge
$LN1@UpdateNpcG:
  000a2	5f		 pop	 edi
  000a3	5e		 pop	 esi
  000a4	5b		 pop	 ebx

; 286  : 				}
; 287  : 			}
; 288  : 		}
; 289  : 	}
; 290  : }

  000a5	c9		 leave
  000a6	c2 10 00	 ret	 16			; 00000010H
?UpdateNpcGauge@TowerDefWnd@@QAEXABVioHashString@@MMH@Z ENDP ; TowerDefWnd::UpdateNpcGauge
_TEXT	ENDS
PUBLIC	?ResetNpcGauge@TowerDefWnd@@QAEXXZ		; TowerDefWnd::ResetNpcGauge
; Function compile flags: /Ogsp
;	COMDAT ?ResetNpcGauge@TowerDefWnd@@QAEXXZ
_TEXT	SEGMENT
_this$ = -8						; size = 4
_pWnd$ = -4						; size = 4
?ResetNpcGauge@TowerDefWnd@@QAEXXZ PROC			; TowerDefWnd::ResetNpcGauge, COMDAT
; _this$ = ecx

; 293  : {

  00000	55		 push	 ebp
  00001	8b ec		 mov	 ebp, esp
  00003	51		 push	 ecx
  00004	51		 push	 ecx
  00005	53		 push	 ebx
  00006	56		 push	 esi

; 294  : 	TowerDefUserGaugeWnd* pWnd = dynamic_cast<TowerDefUserGaugeWnd*>( FindChildWnd(NPC_GAUGE_WND) );

  00007	8b 35 00 00 00
	00		 mov	 esi, DWORD PTR __imp_?FindChildWnd@ioWnd@@QAEPAV1@K@Z
  0000d	57		 push	 edi
  0000e	6a 00		 push	 0
  00010	bb 00 00 00 00	 mov	 ebx, OFFSET ??_R0?AVTowerDefUserGaugeWnd@@@8
  00015	53		 push	 ebx
  00016	bf 00 00 00 00	 mov	 edi, OFFSET ??_R0?AVioWnd@@@8
  0001b	57		 push	 edi
  0001c	6a 00		 push	 0
  0001e	6a 68		 push	 104			; 00000068H
  00020	89 4d f8	 mov	 DWORD PTR _this$[ebp], ecx
  00023	ff d6		 call	 esi
  00025	50		 push	 eax
  00026	e8 00 00 00 00	 call	 ___RTDynamicCast
  0002b	8b c8		 mov	 ecx, eax
  0002d	83 c4 14	 add	 esp, 20			; 00000014H
  00030	89 4d fc	 mov	 DWORD PTR _pWnd$[ebp], ecx

; 295  : 	if(pWnd)

  00033	85 c9		 test	 ecx, ecx
  00035	74 0e		 je	 SHORT $LN2@ResetNpcGa

; 296  : 	{
; 297  : 		pWnd->InitAniState();

  00037	e8 00 00 00 00	 call	 ?InitAniState@TowerDefUserGaugeWnd@@QAEXXZ ; TowerDefUserGaugeWnd::InitAniState

; 298  : 		pWnd->HideWnd();

  0003c	8b 4d fc	 mov	 ecx, DWORD PTR _pWnd$[ebp]
  0003f	ff 15 00 00 00
	00		 call	 DWORD PTR __imp_?HideWnd@ioWnd@@QAEXXZ
$LN2@ResetNpcGa:

; 299  : 	}
; 300  : 
; 301  : 	pWnd = dynamic_cast<TowerDefUserGaugeWnd*>( FindChildWnd(NPC_BOSS_WND) );

  00045	8b 4d f8	 mov	 ecx, DWORD PTR _this$[ebp]
  00048	6a 00		 push	 0
  0004a	53		 push	 ebx
  0004b	57		 push	 edi
  0004c	6a 00		 push	 0
  0004e	6a 69		 push	 105			; 00000069H
  00050	ff d6		 call	 esi
  00052	50		 push	 eax
  00053	e8 00 00 00 00	 call	 ___RTDynamicCast
  00058	8b f0		 mov	 esi, eax
  0005a	83 c4 14	 add	 esp, 20			; 00000014H

; 302  : 	if(pWnd)

  0005d	85 f6		 test	 esi, esi
  0005f	74 0f		 je	 SHORT $LN1@ResetNpcGa

; 303  : 	{
; 304  : 		pWnd->InitAniState();

  00061	8b ce		 mov	 ecx, esi
  00063	e8 00 00 00 00	 call	 ?InitAniState@TowerDefUserGaugeWnd@@QAEXXZ ; TowerDefUserGaugeWnd::InitAniState

; 305  : 		pWnd->HideWnd();

  00068	8b ce		 mov	 ecx, esi
  0006a	ff 15 00 00 00
	00		 call	 DWORD PTR __imp_?HideWnd@ioWnd@@QAEXXZ
$LN1@ResetNpcGa:
  00070	5f		 pop	 edi
  00071	5e		 pop	 esi
  00072	5b		 pop	 ebx

; 306  : 	}
; 307  : }

  00073	c9		 leave
  00074	c3		 ret	 0
?ResetNpcGauge@TowerDefWnd@@QAEXXZ ENDP			; TowerDefWnd::ResetNpcGauge
_TEXT	ENDS
PUBLIC	?ResetAllGauge@TowerDefWnd@@QAEXXZ		; TowerDefWnd::ResetAllGauge
; Function compile flags: /Ogsp
;	COMDAT ?ResetAllGauge@TowerDefWnd@@QAEXXZ
_TEXT	SEGMENT
tv170 = -12						; size = 4
tv143 = -8						; size = 4
tv195 = -4						; size = 4
?ResetAllGauge@TowerDefWnd@@QAEXXZ PROC			; TowerDefWnd::ResetAllGauge, COMDAT
; _this$ = ecx

; 326  : {

  00000	55		 push	 ebp
  00001	8b ec		 mov	 ebp, esp
  00003	83 ec 0c	 sub	 esp, 12			; 0000000cH
  00006	56		 push	 esi
  00007	57		 push	 edi
  00008	8b f9		 mov	 edi, ecx

; 327  : 	for(int i = 0; i < MAX_USER; i++)

  0000a	8d 87 c0 01 00
	00		 lea	 eax, DWORD PTR [edi+448]
  00010	89 45 f4	 mov	 DWORD PTR tv170[ebp], eax
  00013	89 45 fc	 mov	 DWORD PTR tv195[ebp], eax
  00016	c7 45 f8 04 00
	00 00		 mov	 DWORD PTR tv143[ebp], 4
$LL5@ResetAllGa:

; 328  : 	{
; 329  : 		if(m_stUserGauge[i].eID != GAUGE_NONE)

  0001d	8b 45 fc	 mov	 eax, DWORD PTR tv195[ebp]
  00020	8b 00		 mov	 eax, DWORD PTR [eax]
  00022	85 c0		 test	 eax, eax
  00024	74 35		 je	 SHORT $LN4@ResetAllGa

; 330  : 		{
; 331  : 			TowerDefUserGaugeWnd* pWnd = dynamic_cast<TowerDefUserGaugeWnd*>( FindChildWnd(m_stUserGauge[i].eID) );

  00026	6a 00		 push	 0
  00028	68 00 00 00 00	 push	 OFFSET ??_R0?AVTowerDefUserGaugeWnd@@@8
  0002d	68 00 00 00 00	 push	 OFFSET ??_R0?AVioWnd@@@8
  00032	6a 00		 push	 0
  00034	50		 push	 eax
  00035	8b cf		 mov	 ecx, edi
  00037	ff 15 00 00 00
	00		 call	 DWORD PTR __imp_?FindChildWnd@ioWnd@@QAEPAV1@K@Z
  0003d	50		 push	 eax
  0003e	e8 00 00 00 00	 call	 ___RTDynamicCast
  00043	8b f0		 mov	 esi, eax
  00045	83 c4 14	 add	 esp, 20			; 00000014H

; 332  : 			if(pWnd)

  00048	85 f6		 test	 esi, esi
  0004a	74 0f		 je	 SHORT $LN4@ResetAllGa

; 333  : 			{
; 334  : 				pWnd->HideWnd();

  0004c	8b ce		 mov	 ecx, esi
  0004e	ff 15 00 00 00
	00		 call	 DWORD PTR __imp_?HideWnd@ioWnd@@QAEXXZ

; 335  : 				pWnd->InitAniState();

  00054	8b ce		 mov	 ecx, esi
  00056	e8 00 00 00 00	 call	 ?InitAniState@TowerDefUserGaugeWnd@@QAEXXZ ; TowerDefUserGaugeWnd::InitAniState
$LN4@ResetAllGa:

; 327  : 	for(int i = 0; i < MAX_USER; i++)

  0005b	83 45 fc 18	 add	 DWORD PTR tv195[ebp], 24 ; 00000018H
  0005f	ff 4d f8	 dec	 DWORD PTR tv143[ebp]
  00062	75 b9		 jne	 SHORT $LL5@ResetAllGa

; 336  : 			}
; 337  : 		}
; 338  : 	}
; 339  : 
; 340  : 	ZeroMemory(m_stUserGauge, sizeof(stUserGauge) * MAX_USER);

  00064	6a 60		 push	 96			; 00000060H
  00066	6a 00		 push	 0
  00068	ff 75 f4	 push	 DWORD PTR tv170[ebp]
  0006b	e8 00 00 00 00	 call	 _memset
  00070	83 c4 0c	 add	 esp, 12			; 0000000cH
  00073	5f		 pop	 edi
  00074	5e		 pop	 esi

; 341  : }

  00075	c9		 leave
  00076	c3		 ret	 0
?ResetAllGauge@TowerDefWnd@@QAEXXZ ENDP			; TowerDefWnd::ResetAllGauge
_TEXT	ENDS
PUBLIC	?HideWnd@TowerDefWnd@@QAEXXZ			; TowerDefWnd::HideWnd
; Function compile flags: /Ogsp
;	COMDAT ?HideWnd@TowerDefWnd@@QAEXXZ
_TEXT	SEGMENT
?HideWnd@TowerDefWnd@@QAEXXZ PROC			; TowerDefWnd::HideWnd, COMDAT
; _this$ = ecx

; 344  : {

  00000	56		 push	 esi
  00001	8b f1		 mov	 esi, ecx

; 345  : 	ioWnd::HideWnd();

  00003	ff 15 00 00 00
	00		 call	 DWORD PTR __imp_?HideWnd@ioWnd@@QAEXXZ

; 346  : 	ResetAllGauge();

  00009	8b ce		 mov	 ecx, esi
  0000b	e8 00 00 00 00	 call	 ?ResetAllGauge@TowerDefWnd@@QAEXXZ ; TowerDefWnd::ResetAllGauge

; 347  : 	ResetNpcGauge();

  00010	8b ce		 mov	 ecx, esi
  00012	5e		 pop	 esi
  00013	e9 00 00 00 00	 jmp	 ?ResetNpcGauge@TowerDefWnd@@QAEXXZ ; TowerDefWnd::ResetNpcGauge
?HideWnd@TowerDefWnd@@QAEXXZ ENDP			; TowerDefWnd::HideWnd
_TEXT	ENDS
PUBLIC	?SetFaceChange@TowerDefWnd@@QAEXABVioHashString@@PBDH@Z ; TowerDefWnd::SetFaceChange
; Function compile flags: /Ogsp
;	COMDAT ?SetFaceChange@TowerDefWnd@@QAEXABVioHashString@@PBDH@Z
_TEXT	SEGMENT
_rkName$ = 8						; size = 4
_szTexPostfix$ = 12					; size = 4
_iDuration$ = 16					; size = 4
?SetFaceChange@TowerDefWnd@@QAEXABVioHashString@@PBDH@Z PROC ; TowerDefWnd::SetFaceChange, COMDAT
; _this$ = ecx

; 366  : {

  00000	55		 push	 ebp
  00001	8b ec		 mov	 ebp, esp
  00003	53		 push	 ebx
  00004	56		 push	 esi
  00005	8b d9		 mov	 ebx, ecx
  00007	57		 push	 edi

; 367  : 	for(int i = 0; i < MAX_USER; i++)

  00008	33 f6		 xor	 esi, esi
  0000a	8d bb d4 01 00
	00		 lea	 edi, DWORD PTR [ebx+468]
$LL5@SetFaceCha@2:

; 368  : 	{
; 369  : 		if( m_stUserGauge[i].szUserName == rkName)

  00010	ff 75 08	 push	 DWORD PTR _rkName$[ebp]
  00013	8d 4f f0	 lea	 ecx, DWORD PTR [edi-16]
  00016	ff 15 00 00 00
	00		 call	 DWORD PTR __imp_??8ioHashString@@QBE_NABV0@@Z
  0001c	84 c0		 test	 al, al
  0001e	74 05		 je	 SHORT $LN4@SetFaceCha@2

; 370  : 		{
; 371  : 			if(m_stUserGauge[i].pGaugeWnd)

  00020	83 3f 00	 cmp	 DWORD PTR [edi], 0
  00023	75 0b		 jne	 SHORT $LN9@SetFaceCha@2
$LN4@SetFaceCha@2:

; 367  : 	for(int i = 0; i < MAX_USER; i++)

  00025	46		 inc	 esi
  00026	83 c7 18	 add	 edi, 24			; 00000018H
  00029	83 fe 04	 cmp	 esi, 4
  0002c	7c e2		 jl	 SHORT $LL5@SetFaceCha@2

; 370  : 		{
; 371  : 			if(m_stUserGauge[i].pGaugeWnd)

  0002e	eb 18		 jmp	 SHORT $LN3@SetFaceCha@2
$LN9@SetFaceCha@2:

; 372  : 			{
; 373  : 				m_stUserGauge[i].pGaugeWnd->SetFaceChange(rkName, szTexPostfix, iDuration );

  00030	ff 75 10	 push	 DWORD PTR _iDuration$[ebp]
  00033	6b f6 18	 imul	 esi, 24			; 00000018H
  00036	ff 75 0c	 push	 DWORD PTR _szTexPostfix$[ebp]
  00039	8b 8c 1e d4 01
	00 00		 mov	 ecx, DWORD PTR [esi+ebx+468]
  00040	ff 75 08	 push	 DWORD PTR _rkName$[ebp]
  00043	e8 00 00 00 00	 call	 ?SetFaceChange@TowerDefUserGaugeWnd@@QAEXABVioHashString@@PBDH@Z ; TowerDefUserGaugeWnd::SetFaceChange
$LN3@SetFaceCha@2:
  00048	5f		 pop	 edi
  00049	5e		 pop	 esi
  0004a	5b		 pop	 ebx

; 374  : 				break;
; 375  : 			}
; 376  : 		}
; 377  : 	}
; 378  : }

  0004b	5d		 pop	 ebp
  0004c	c2 0c 00	 ret	 12			; 0000000cH
?SetFaceChange@TowerDefWnd@@QAEXABVioHashString@@PBDH@Z ENDP ; TowerDefWnd::SetFaceChange
_TEXT	ENDS
PUBLIC	?ChangeShowAniState@TowerDefWnd@@QAEXW4ShowAniType@1@@Z ; TowerDefWnd::ChangeShowAniState
; Function compile flags: /Ogsp
;	COMDAT ?ChangeShowAniState@TowerDefWnd@@QAEXW4ShowAniType@1@@Z
_TEXT	SEGMENT
_this$ = -4						; size = 4
_eShowAniType$ = 8					; size = 4
?ChangeShowAniState@TowerDefWnd@@QAEXW4ShowAniType@1@@Z PROC ; TowerDefWnd::ChangeShowAniState, COMDAT
; _this$ = ecx

; 398  : {

  00000	55		 push	 ebp
  00001	8b ec		 mov	 ebp, esp
  00003	51		 push	 ecx
  00004	53		 push	 ebx
  00005	56		 push	 esi

; 399  : 	for(int i = 0; i < END_GAUGE; i++)

  00006	8b 35 00 00 00
	00		 mov	 esi, DWORD PTR __imp_?FindChildWnd@ioWnd@@QAEPAV1@K@Z
  0000c	57		 push	 edi
  0000d	89 4d fc	 mov	 DWORD PTR _this$[ebp], ecx
  00010	33 db		 xor	 ebx, ebx
  00012	bf 00 00 00 00	 mov	 edi, OFFSET ??_R0?AVioWnd@@@8
$LL14@ChangeShow:

; 400  : 	{
; 401  : 		TowerDefUserGaugeWnd *pWnd = dynamic_cast<TowerDefUserGaugeWnd*>( FindChildWnd(GAUGE_WND1 + i) );

  00017	8b 4d fc	 mov	 ecx, DWORD PTR _this$[ebp]
  0001a	6a 00		 push	 0
  0001c	68 00 00 00 00	 push	 OFFSET ??_R0?AVTowerDefUserGaugeWnd@@@8
  00021	57		 push	 edi
  00022	6a 00		 push	 0
  00024	8d 43 64	 lea	 eax, DWORD PTR [ebx+100]
  00027	50		 push	 eax
  00028	ff d6		 call	 esi
  0002a	50		 push	 eax
  0002b	e8 00 00 00 00	 call	 ___RTDynamicCast
  00030	83 c4 14	 add	 esp, 20			; 00000014H

; 402  : 		if( pWnd)

  00033	85 c0		 test	 eax, eax
  00035	74 0e		 je	 SHORT $LN4@ChangeShow

; 403  : 			pWnd->ChangeShowAniState((TowerDefUserGaugeWnd::ShowAniType)eShowAniType);

  00037	ff 75 08	 push	 DWORD PTR _eShowAniType$[ebp]
  0003a	8d 88 b0 01 00
	00		 lea	 ecx, DWORD PTR [eax+432]
  00040	e8 00 00 00 00	 call	 ?ChangeState@FSMStateMgr@@QAEHH@Z ; FSMStateMgr::ChangeState
$LN4@ChangeShow:

; 399  : 	for(int i = 0; i < END_GAUGE; i++)

  00045	43		 inc	 ebx
  00046	83 fb 06	 cmp	 ebx, 6
  00049	7c cc		 jl	 SHORT $LL14@ChangeShow

; 404  : 	}
; 405  : 
; 406  : 	ConsumptionWnd *pSlotWnd = dynamic_cast<ConsumptionWnd*>( FindChildWnd(SLOT_WND) );

  0004b	8b 4d fc	 mov	 ecx, DWORD PTR _this$[ebp]
  0004e	6a 00		 push	 0
  00050	68 00 00 00 00	 push	 OFFSET ??_R0?AVConsumptionWnd@@@8
  00055	57		 push	 edi
  00056	6a 00		 push	 0
  00058	6a 6a		 push	 106			; 0000006aH
  0005a	ff d6		 call	 esi
  0005c	50		 push	 eax
  0005d	e8 00 00 00 00	 call	 ___RTDynamicCast
  00062	83 c4 14	 add	 esp, 20			; 00000014H
  00065	5f		 pop	 edi
  00066	5e		 pop	 esi
  00067	5b		 pop	 ebx

; 407  : 	if(pSlotWnd)

  00068	85 c0		 test	 eax, eax
  0006a	74 0e		 je	 SHORT $LN10@ChangeShow

; 408  : 		pSlotWnd->ChangeShowAniState((ConsumptionWnd::ShowAniType)eShowAniType);

  0006c	ff 75 08	 push	 DWORD PTR _eShowAniType$[ebp]
  0006f	8d 88 90 01 00
	00		 lea	 ecx, DWORD PTR [eax+400]
  00075	e8 00 00 00 00	 call	 ?ChangeState@FSMStateMgr@@QAEHH@Z ; FSMStateMgr::ChangeState
$LN10@ChangeShow:

; 409  : }

  0007a	c9		 leave
  0007b	c2 04 00	 ret	 4
?ChangeShowAniState@TowerDefWnd@@QAEXW4ShowAniType@1@@Z ENDP ; TowerDefWnd::ChangeShowAniState
_TEXT	ENDS
PUBLIC	?UpdateGauge@TowerDefWnd@@QAEXABVioHashString@@MMH@Z ; TowerDefWnd::UpdateGauge
; Function compile flags: /Ogsp
;	COMDAT ?UpdateGauge@TowerDefWnd@@QAEXABVioHashString@@MMH@Z
_TEXT	SEGMENT
_rkName$ = 8						; size = 4
_fCurHP$ = 12						; size = 4
_fMaxHP$ = 16						; size = 4
_nInstantLv$ = 20					; size = 4
?UpdateGauge@TowerDefWnd@@QAEXABVioHashString@@MMH@Z PROC ; TowerDefWnd::UpdateGauge, COMDAT
; _this$ = ecx

; 412  : {

  00000	55		 push	 ebp
  00001	8b ec		 mov	 ebp, esp
  00003	53		 push	 ebx
  00004	56		 push	 esi
  00005	8b d9		 mov	 ebx, ecx
  00007	57		 push	 edi

; 413  : 	for(int i = 0; i < MAX_USER; i++)

  00008	33 ff		 xor	 edi, edi
  0000a	8d b3 d4 01 00
	00		 lea	 esi, DWORD PTR [ebx+468]
$LL6@UpdateGaug@3:

; 414  : 	{
; 415  : 		if( m_stUserGauge[i].szUserName == rkName)

  00010	ff 75 08	 push	 DWORD PTR _rkName$[ebp]
  00013	8d 4e f0	 lea	 ecx, DWORD PTR [esi-16]
  00016	ff 15 00 00 00
	00		 call	 DWORD PTR __imp_??8ioHashString@@QBE_NABV0@@Z
  0001c	84 c0		 test	 al, al
  0001e	74 10		 je	 SHORT $LN5@UpdateGaug@3

; 416  : 		{
; 417  : 			if( m_stUserGauge[i].pGaugeWnd)

  00020	8b 0e		 mov	 ecx, DWORD PTR [esi]
  00022	85 c9		 test	 ecx, ecx
  00024	74 0a		 je	 SHORT $LN5@UpdateGaug@3

; 418  : 			{
; 419  : 				if(m_stUserGauge[i].pGaugeWnd->IsShow())

  00026	ff 15 00 00 00
	00		 call	 DWORD PTR __imp_?IsShow@ioWnd@@QBE_NXZ
  0002c	84 c0		 test	 al, al
  0002e	75 0b		 jne	 SHORT $LN10@UpdateGaug@3
$LN5@UpdateGaug@3:

; 413  : 	for(int i = 0; i < MAX_USER; i++)

  00030	47		 inc	 edi
  00031	83 c6 18	 add	 esi, 24			; 00000018H
  00034	83 ff 04	 cmp	 edi, 4
  00037	7c d7		 jl	 SHORT $LL6@UpdateGaug@3

; 418  : 			{
; 419  : 				if(m_stUserGauge[i].pGaugeWnd->IsShow())

  00039	eb 29		 jmp	 SHORT $LN4@UpdateGaug@3
$LN10@UpdateGaug@3:

; 420  : 				{
; 421  : 					m_stUserGauge[i].pGaugeWnd->UpdateGauge(fCurHP, fMaxHP, nInstantLv);

  0003b	ff 75 14	 push	 DWORD PTR _nInstantLv$[ebp]
  0003e	6b ff 18	 imul	 edi, 24			; 00000018H
  00041	f3 0f 10 45 10	 movss	 xmm0, DWORD PTR _fMaxHP$[ebp]
  00046	51		 push	 ecx
  00047	51		 push	 ecx
  00048	8b 8c 1f d4 01
	00 00		 mov	 ecx, DWORD PTR [edi+ebx+468]
  0004f	f3 0f 11 44 24
	04		 movss	 DWORD PTR [esp+4], xmm0
  00055	f3 0f 10 45 0c	 movss	 xmm0, DWORD PTR _fCurHP$[ebp]
  0005a	f3 0f 11 04 24	 movss	 DWORD PTR [esp], xmm0
  0005f	e8 00 00 00 00	 call	 ?UpdateGauge@TowerDefUserGaugeWnd@@QAEXMMH@Z ; TowerDefUserGaugeWnd::UpdateGauge
$LN4@UpdateGaug@3:
  00064	5f		 pop	 edi
  00065	5e		 pop	 esi
  00066	5b		 pop	 ebx

; 422  : 					break;
; 423  : 				}
; 424  : 			}
; 425  : 		}
; 426  : 	}
; 427  : }

  00067	5d		 pop	 ebp
  00068	c2 10 00	 ret	 16			; 00000010H
?UpdateGauge@TowerDefWnd@@QAEXABVioHashString@@MMH@Z ENDP ; TowerDefWnd::UpdateGauge
_TEXT	ENDS
PUBLIC	??_7TowerDefUserGaugeWnd@@6B@			; TowerDefUserGaugeWnd::`vftable'
PUBLIC	??0TowerDefUserGaugeWnd@@QAE@XZ			; TowerDefUserGaugeWnd::TowerDefUserGaugeWnd
PUBLIC	??_R4TowerDefUserGaugeWnd@@6B@			; TowerDefUserGaugeWnd::`RTTI Complete Object Locator'
PUBLIC	??_R3TowerDefUserGaugeWnd@@8			; TowerDefUserGaugeWnd::`RTTI Class Hierarchy Descriptor'
PUBLIC	??_R2TowerDefUserGaugeWnd@@8			; TowerDefUserGaugeWnd::`RTTI Base Class Array'
PUBLIC	??_R1A@?0A@EA@TowerDefUserGaugeWnd@@8		; TowerDefUserGaugeWnd::`RTTI Base Class Descriptor at (0,-1,0,64)'
PUBLIC	?AddRenderFrame@TowerDefUserGaugeWnd@@MAEXABVioHashString@@PAVioUIRenderFrame@@@Z ; TowerDefUserGaugeWnd::AddRenderFrame
PUBLIC	?AddRenderImage@TowerDefUserGaugeWnd@@UAEXABVioHashString@@PAVioUIRenderImage@@@Z ; TowerDefUserGaugeWnd::AddRenderImage
PUBLIC	?OnRender@TowerDefUserGaugeWnd@@MAEXXZ		; TowerDefUserGaugeWnd::OnRender
PUBLIC	?OnProcess@TowerDefUserGaugeWnd@@MAEXM@Z	; TowerDefUserGaugeWnd::OnProcess
PUBLIC	?iwm_create@TowerDefUserGaugeWnd@@UAEXXZ	; TowerDefUserGaugeWnd::iwm_create
EXTRN	??_ETowerDefUserGaugeWnd@@UAEPAXI@Z:PROC	; TowerDefUserGaugeWnd::`vector deleting destructor'
;	COMDAT ??_R1A@?0A@EA@TowerDefUserGaugeWnd@@8
rdata$r	SEGMENT
??_R1A@?0A@EA@TowerDefUserGaugeWnd@@8 DD FLAT:??_R0?AVTowerDefUserGaugeWnd@@@8 ; TowerDefUserGaugeWnd::`RTTI Base Class Descriptor at (0,-1,0,64)'
	DD	02H
	DD	00H
	DD	0ffffffffH
	DD	00H
	DD	040H
	DD	FLAT:??_R3TowerDefUserGaugeWnd@@8
rdata$r	ENDS
;	COMDAT ??_R2TowerDefUserGaugeWnd@@8
rdata$r	SEGMENT
??_R2TowerDefUserGaugeWnd@@8 DD FLAT:??_R1A@?0A@EA@TowerDefUserGaugeWnd@@8 ; TowerDefUserGaugeWnd::`RTTI Base Class Array'
	DD	FLAT:??_R1A@?0A@EA@ioMovingWnd@@8
	DD	FLAT:??_R1A@?0A@EA@ioWnd@@8
rdata$r	ENDS
;	COMDAT ??_R3TowerDefUserGaugeWnd@@8
rdata$r	SEGMENT
??_R3TowerDefUserGaugeWnd@@8 DD 00H			; TowerDefUserGaugeWnd::`RTTI Class Hierarchy Descriptor'
	DD	00H
	DD	03H
	DD	FLAT:??_R2TowerDefUserGaugeWnd@@8
rdata$r	ENDS
;	COMDAT ??_R4TowerDefUserGaugeWnd@@6B@
rdata$r	SEGMENT
??_R4TowerDefUserGaugeWnd@@6B@ DD 00H			; TowerDefUserGaugeWnd::`RTTI Complete Object Locator'
	DD	00H
	DD	00H
	DD	FLAT:??_R0?AVTowerDefUserGaugeWnd@@@8
	DD	FLAT:??_R3TowerDefUserGaugeWnd@@8
rdata$r	ENDS
;	COMDAT ??_7TowerDefUserGaugeWnd@@6B@
CONST	SEGMENT
??_7TowerDefUserGaugeWnd@@6B@ DD FLAT:??_R4TowerDefUserGaugeWnd@@6B@ ; TowerDefUserGaugeWnd::`vftable'
	DD	FLAT:?AddRenderFrame@TowerDefUserGaugeWnd@@MAEXABVioHashString@@PAVioUIRenderFrame@@@Z
	DD	FLAT:?AddRenderImage@TowerDefUserGaugeWnd@@UAEXABVioHashString@@PAVioUIRenderImage@@@Z
	DD	FLAT:?AddTooltipHelp@ioWnd@@UAEXABVioHashString@@00@Z
	DD	FLAT:?ParseExtraInfo@ioWnd@@UAEXAAVioXMLElement@@@Z
	DD	FLAT:?AddNamedRenderImage@ioWnd@@UAEXABVioHashString@@PAVioUIRenderImage@@@Z
	DD	FLAT:?RemoveNamedRenderImage@ioWnd@@UAEXABVioHashString@@@Z
	DD	FLAT:?GetNamedRenderImage@ioWnd@@UBEPAVioUIRenderImage@@ABVioHashString@@@Z
	DD	FLAT:?SetWindowAlpha@ioWnd@@UAEXH@Z
	DD	FLAT:?SetActive@ioWnd@@UAEXXZ
	DD	FLAT:?SetInActive@ioWnd@@UAEXXZ
	DD	FLAT:?ClearElementImageList@ioWnd@@UAEXXZ
	DD	FLAT:?SetSize@ioWnd@@UAEXHH@Z
	DD	FLAT:?SetPositionToDefault@TowerDefUserGaugeWnd@@UAEXHH_N0@Z
	DD	FLAT:?IsNeedProcess@ioWnd@@UBE_NXZ
	DD	FLAT:?IsCanMouseReaction@ioWnd@@UBE_NXZ
	DD	FLAT:?AddChild@ioWnd@@UAEXPAV1@@Z
	DD	FLAT:?DeleteChild@ioWnd@@UAEXK@Z
	DD	FLAT:?DeleteAllChild@ioWnd@@UAEXXZ
	DD	FLAT:?OnRenderShowAndHide@ioWnd@@MAE_NXZ
	DD	FLAT:?OnRenderShowAndHideByDefault@ioWnd@@MAE_NK@Z
	DD	FLAT:?OnRenderShowAndHideByTop@ioWnd@@MAE_NK@Z
	DD	FLAT:?OnRenderShowAndHideByDown@ioWnd@@MAE_NK@Z
	DD	FLAT:?OnRender@TowerDefUserGaugeWnd@@MAEXXZ
	DD	FLAT:?OnRenderAfterChild@ioWnd@@MAEXXZ
	DD	FLAT:?OnProcess@TowerDefUserGaugeWnd@@MAEXM@Z
	DD	FLAT:?OnMouseProcess@ioMovingWnd@@MAEXABVioMouse@@@Z
	DD	FLAT:?CheckFrameReSize@ioWnd@@MAEXHHHH@Z
	DD	FLAT:?RenderImageList@ioWnd@@MAEXHHW4UIRenderType@@@Z
	DD	FLAT:?iwm_create@TowerDefUserGaugeWnd@@UAEXXZ
	DD	FLAT:?iwm_destroy@ioWnd@@UAEXXZ
	DD	FLAT:?iwm_lbuttondown@ioMovingWnd@@UAEXABVioMouse@@@Z
	DD	FLAT:?iwm_lbuttonup@ioMovingWnd@@UAEXABVioMouse@@@Z
	DD	FLAT:?iwm_lbuttonDBLCLK@ioWnd@@UAEXABVioMouse@@@Z
	DD	FLAT:?iwm_rbuttondown@ioWnd@@UAEXABVioMouse@@@Z
	DD	FLAT:?iwm_rbuttonup@ioWnd@@UAEXABVioMouse@@@Z
	DD	FLAT:?iwm_command@ioWnd@@UAEXPAV1@HK@Z
	DD	FLAT:?iwm_mouseover@ioWnd@@UAEXABVioMouse@@@Z
	DD	FLAT:?iwm_mousemove@ioWnd@@UAEXABVioMouse@@@Z
	DD	FLAT:?iwm_mouseleave@ioWnd@@UAEXABVioMouse@@@Z
	DD	FLAT:?iwm_vscroll@ioWnd@@UAEXKH@Z
	DD	FLAT:?iwm_wheel@ioWnd@@UAEXH@Z
	DD	FLAT:?iwm_show@ioWnd@@UAEXXZ
	DD	FLAT:?iwm_hide@ioWnd@@UAEXXZ
	DD	FLAT:?iwm_esc@ioWnd@@UAE_NXZ
	DD	FLAT:?iwm_spacebar@ioWnd@@UAE_NXZ
	DD	FLAT:?iwm_gototop@ioWnd@@UAEXXZ
	DD	FLAT:?iwm_dragenter@ioWnd@@UAE?AW4IWDropEffect@@PAVioDragItem@@ABVioMouse@@@Z
	DD	FLAT:?iwm_dragover@ioWnd@@UAE?AW4IWDropEffect@@PAVioDragItem@@ABVioMouse@@@Z
	DD	FLAT:?iwm_dragleave@ioWnd@@UAEXXZ
	DD	FLAT:?iwm_dropitem@ioWnd@@UAE_NPAVioDragItem@@ABVioMouse@@PAV1@@Z
	DD	FLAT:?iwm_dropdone@ioWnd@@UAEXPAVioDragItem@@PAV1@_N@Z
	DD	FLAT:?IsEXType@ioWnd@@UBE_NXZ
	DD	FLAT:?GetWndType@ioWnd@@UBEKXZ
	DD	FLAT:?RenderWnd@ioWnd@@UAEXXZ
	DD	FLAT:?SetIDEX@ioWnd@@UAEXAAK_N@Z
	DD	FLAT:?ParseXML@ioWnd@@UAEXAAVioXMLElement@@@Z
	DD	FLAT:?GetHeaderFileName@ioWnd@@UAEPBDXZ
	DD	FLAT:?GetTemplateName@ioWnd@@UAEPBDXZ
	DD	FLAT:?GetDefClassName@ioWnd@@UBEPBDXZ
	DD	FLAT:?_Clone@ioWnd@@UAEPAV1@XZ
	DD	FLAT:?Copy@ioWnd@@UAEXPAV1@@Z
	DD	FLAT:?Save@ioWnd@@UAE_NAAVioXMLElement@@@Z
	DD	FLAT:?SetSaveData@ioWnd@@UAEXAAVioXMLElement@@@Z
	DD	FLAT:?SetPosX@ioWnd@@UAEXH@Z
	DD	FLAT:?SetPosY@ioWnd@@UAEXH@Z
	DD	FLAT:?SetWidth@ioWnd@@UAEXH@Z
	DD	FLAT:?SetHeight@ioWnd@@UAEXH@Z
	DD	FLAT:?GetNumFixedRenderFrame@ioWnd@@UBEHXZ
	DD	FLAT:?GetFixedRenderFrameType@ioWnd@@UAEPBDH@Z
	DD	FLAT:?GetRenderFrame@ioWnd@@UAEPAPAVioUIRenderElement@@PBD@Z
	DD	FLAT:?GetNumFixedRenderImage@ioWnd@@UBEHXZ
	DD	FLAT:?GetFixedRenderImageType@ioWnd@@UAEPBDH@Z
	DD	FLAT:?GetRenderImage@ioWnd@@UAEPAPAVioUIRenderElement@@PBD@Z
	DD	FLAT:?AddEffect@ioWnd@@UAEXABVioHashString@@PAVioUI3DEffectRender@@@Z
	DD	FLAT:?GetEffect@ioWnd@@UAEPAVioUI3DEffectRender@@VioHashString@@@Z
	DD	FLAT:??_ETowerDefUserGaugeWnd@@UAEPAXI@Z
CONST	ENDS
;	COMDAT xdata$x
xdata$x	SEGMENT
__ehfuncinfo$??0TowerDefUserGaugeWnd@@QAE@XZ DD 019930522H
	DD	05H
	DD	FLAT:__unwindtable$??0TowerDefUserGaugeWnd@@QAE@XZ
	DD	2 DUP(00H)
	DD	2 DUP(00H)
	DD	00H
	DD	01H
__unwindtable$??0TowerDefUserGaugeWnd@@QAE@XZ DD 0ffffffffH
	DD	FLAT:__unwindfunclet$??0TowerDefUserGaugeWnd@@QAE@XZ$0
	DD	00H
	DD	FLAT:__unwindfunclet$??0TowerDefUserGaugeWnd@@QAE@XZ$1
	DD	01H
	DD	FLAT:__unwindfunclet$??0TowerDefUserGaugeWnd@@QAE@XZ$2
	DD	02H
	DD	FLAT:__unwindfunclet$??0TowerDefUserGaugeWnd@@QAE@XZ$3
	DD	03H
	DD	FLAT:__unwindfunclet$??0TowerDefUserGaugeWnd@@QAE@XZ$4
; Function compile flags: /Ogsp
xdata$x	ENDS
;	COMDAT ??0TowerDefUserGaugeWnd@@QAE@XZ
_TEXT	SEGMENT
_this$ = -16						; size = 4
__$EHRec$ = -12						; size = 12
??0TowerDefUserGaugeWnd@@QAE@XZ PROC			; TowerDefUserGaugeWnd::TowerDefUserGaugeWnd, COMDAT
; _this$ = ecx

; 436  : {

  00000	6a 04		 push	 4
  00002	b8 00 00 00 00	 mov	 eax, __ehhandler$??0TowerDefUserGaugeWnd@@QAE@XZ
  00007	e8 00 00 00 00	 call	 __EH_prolog3
  0000c	8b f1		 mov	 esi, ecx
  0000e	89 75 f0	 mov	 DWORD PTR _this$[ebp], esi
  00011	ff 15 00 00 00
	00		 call	 DWORD PTR __imp_??0ioMovingWnd@@QAE@XZ
  00017	33 db		 xor	 ebx, ebx
  00019	8d 8e b0 01 00
	00		 lea	 ecx, DWORD PTR [esi+432]
  0001f	89 5d fc	 mov	 DWORD PTR __$EHRec$[ebp+8], ebx
  00022	c7 06 00 00 00
	00		 mov	 DWORD PTR [esi], OFFSET ??_7TowerDefUserGaugeWnd@@6B@
  00028	e8 00 00 00 00	 call	 ??0FSMStateMgr@@QAE@XZ	; FSMStateMgr::FSMStateMgr
  0002d	8b 3d 00 00 00
	00		 mov	 edi, DWORD PTR __imp_??0ioHashString@@QAE@XZ
  00033	8d 8e ec 01 00
	00		 lea	 ecx, DWORD PTR [esi+492]
  00039	c6 45 fc 01	 mov	 BYTE PTR __$EHRec$[ebp+8], 1
  0003d	ff d7		 call	 edi
  0003f	8d 8e 18 02 00
	00		 lea	 ecx, DWORD PTR [esi+536]
  00045	c6 45 fc 02	 mov	 BYTE PTR __$EHRec$[ebp+8], 2
  00049	ff d7		 call	 edi
  0004b	8d 8e 28 02 00
	00		 lea	 ecx, DWORD PTR [esi+552]
  00051	c6 45 fc 03	 mov	 BYTE PTR __$EHRec$[ebp+8], 3
  00055	ff d7		 call	 edi

; 437  : 	m_pPotrait[IMG_POTRAIT_BACK] = NULL;
; 438  : 	m_pPotrait[IMG_POTRAIT_OVERBACK] = NULL;
; 439  : 
; 440  : 	m_pCharPotrait = NULL;
; 441  : 	m_pNpcFace = NULL;
; 442  : 
; 443  : 	m_pGauge = NULL;
; 444  : 	m_pSurrender = NULL;
; 445  : 
; 446  : 	m_pGaugeFrame = NULL;
; 447  : 	m_pGaugeFrameOver = NULL;
; 448  : 
; 449  : 	m_iBlindOffSetY   = 0;
; 450  : 	m_iPreBlindOffSetY= 0;
; 451  : 	m_iDefaultX       = 0;
; 452  : 	m_iDefaultY       = 0;
; 453  : 
; 454  : 	m_fMaxHP = m_fCurHP = m_fAniHP = 0.f;

  00057	0f 57 c0	 xorps	 xmm0, xmm0

; 455  : 
; 456  : 	m_fCurAniTime = 0.0f;
; 457  : 
; 458  : 	m_bScreen = false;
; 459  : 	m_fScreenTime = 0.0f;
; 460  : 
; 461  : 	m_bSurrender = false;
; 462  : 	m_fSurrenderTime = 0.f;
; 463  : 
; 464  : 	m_eGaugeType = TowerDefWnd::GAUGE_USER;
; 465  : 
; 466  : 	InitShowAniState();

  0005a	8b ce		 mov	 ecx, esi
  0005c	c6 45 fc 04	 mov	 BYTE PTR __$EHRec$[ebp+8], 4
  00060	89 9e 90 01 00
	00		 mov	 DWORD PTR [esi+400], ebx
  00066	89 9e 94 01 00
	00		 mov	 DWORD PTR [esi+404], ebx
  0006c	89 9e a4 01 00
	00		 mov	 DWORD PTR [esi+420], ebx
  00072	89 9e 9c 01 00
	00		 mov	 DWORD PTR [esi+412], ebx
  00078	89 9e 98 01 00
	00		 mov	 DWORD PTR [esi+408], ebx
  0007e	89 9e a0 01 00
	00		 mov	 DWORD PTR [esi+416], ebx
  00084	89 9e a8 01 00
	00		 mov	 DWORD PTR [esi+424], ebx
  0008a	89 9e ac 01 00
	00		 mov	 DWORD PTR [esi+428], ebx
  00090	89 9e d8 01 00
	00		 mov	 DWORD PTR [esi+472], ebx
  00096	89 9e dc 01 00
	00		 mov	 DWORD PTR [esi+476], ebx
  0009c	89 9e e0 01 00
	00		 mov	 DWORD PTR [esi+480], ebx
  000a2	89 9e e4 01 00
	00		 mov	 DWORD PTR [esi+484], ebx
  000a8	f3 0f 11 86 04
	02 00 00	 movss	 DWORD PTR [esi+516], xmm0
  000b0	f3 0f 11 86 00
	02 00 00	 movss	 DWORD PTR [esi+512], xmm0
  000b8	f3 0f 11 86 fc
	01 00 00	 movss	 DWORD PTR [esi+508], xmm0
  000c0	f3 0f 11 86 0c
	02 00 00	 movss	 DWORD PTR [esi+524], xmm0
  000c8	f3 0f 11 86 08
	02 00 00	 movss	 DWORD PTR [esi+520], xmm0
  000d0	66 89 9e 14 02
	00 00		 mov	 WORD PTR [esi+532], bx
  000d7	f3 0f 11 86 10
	02 00 00	 movss	 DWORD PTR [esi+528], xmm0
  000df	89 9e e8 01 00
	00		 mov	 DWORD PTR [esi+488], ebx
  000e5	e8 00 00 00 00	 call	 ?InitShowAniState@TowerDefUserGaugeWnd@@IAEXXZ ; TowerDefUserGaugeWnd::InitShowAniState

; 467  : }

  000ea	8b c6		 mov	 eax, esi
  000ec	e8 00 00 00 00	 call	 __EH_epilog3
  000f1	c3		 ret	 0
_TEXT	ENDS
;	COMDAT text$x
text$x	SEGMENT
__unwindfunclet$??0TowerDefUserGaugeWnd@@QAE@XZ$0:
  00000	8b 4d f0	 mov	 ecx, DWORD PTR _this$[ebp]
  00003	ff 25 00 00 00
	00		 jmp	 DWORD PTR __imp_??1ioMovingWnd@@UAE@XZ
__unwindfunclet$??0TowerDefUserGaugeWnd@@QAE@XZ$1:
  00009	8b 4d f0	 mov	 ecx, DWORD PTR _this$[ebp]
  0000c	81 c1 b0 01 00
	00		 add	 ecx, 432		; 000001b0H
  00012	e9 00 00 00 00	 jmp	 ??1FSMStateMgr@@UAE@XZ	; FSMStateMgr::~FSMStateMgr
__unwindfunclet$??0TowerDefUserGaugeWnd@@QAE@XZ$2:
  00017	8b 4d f0	 mov	 ecx, DWORD PTR _this$[ebp]
  0001a	81 c1 ec 01 00
	00		 add	 ecx, 492		; 000001ecH
  00020	ff 25 00 00 00
	00		 jmp	 DWORD PTR __imp_??1ioHashString@@QAE@XZ
__unwindfunclet$??0TowerDefUserGaugeWnd@@QAE@XZ$3:
  00026	8b 4d f0	 mov	 ecx, DWORD PTR _this$[ebp]
  00029	81 c1 18 02 00
	00		 add	 ecx, 536		; 00000218H
  0002f	ff 25 00 00 00
	00		 jmp	 DWORD PTR __imp_??1ioHashString@@QAE@XZ
__unwindfunclet$??0TowerDefUserGaugeWnd@@QAE@XZ$4:
  00035	8b 4d f0	 mov	 ecx, DWORD PTR _this$[ebp]
  00038	81 c1 28 02 00
	00		 add	 ecx, 552		; 00000228H
  0003e	ff 25 00 00 00
	00		 jmp	 DWORD PTR __imp_??1ioHashString@@QAE@XZ
__ehhandler$??0TowerDefUserGaugeWnd@@QAE@XZ:
  00044	8b 54 24 08	 mov	 edx, DWORD PTR [esp+8]
  00048	8d 42 0c	 lea	 eax, DWORD PTR [edx+12]
  0004b	8b 4a ec	 mov	 ecx, DWORD PTR [edx-20]
  0004e	33 c8		 xor	 ecx, eax
  00050	e8 00 00 00 00	 call	 @__security_check_cookie@4
  00055	b8 00 00 00 00	 mov	 eax, OFFSET __ehfuncinfo$??0TowerDefUserGaugeWnd@@QAE@XZ
  0005a	e9 00 00 00 00	 jmp	 ___CxxFrameHandler3
text$x	ENDS
??0TowerDefUserGaugeWnd@@QAE@XZ ENDP			; TowerDefUserGaugeWnd::TowerDefUserGaugeWnd
PUBLIC	_this$GSCopy$
PUBLIC	??1TowerDefUserGaugeWnd@@UAE@XZ			; TowerDefUserGaugeWnd::~TowerDefUserGaugeWnd
EXTRN	__imp__sprintf:PROC
EXTRN	__EH_epilog3_GS:PROC
EXTRN	__EH_prolog3_GS:PROC
;	COMDAT xdata$x
; File d:\lost saga for developer\youtube\tutorial\source\src\lsclient\stringprotect.h
xdata$x	SEGMENT
__ehfuncinfo$??1TowerDefUserGaugeWnd@@UAE@XZ DD 019930522H
	DD	05H
	DD	FLAT:__unwindtable$??1TowerDefUserGaugeWnd@@UAE@XZ
	DD	2 DUP(00H)
	DD	2 DUP(00H)
	DD	00H
	DD	01H
__unwindtable$??1TowerDefUserGaugeWnd@@UAE@XZ DD 0ffffffffH
	DD	FLAT:__unwindfunclet$??1TowerDefUserGaugeWnd@@UAE@XZ$0
	DD	00H
	DD	FLAT:__unwindfunclet$??1TowerDefUserGaugeWnd@@UAE@XZ$1
	DD	01H
	DD	FLAT:__unwindfunclet$??1TowerDefUserGaugeWnd@@UAE@XZ$2
	DD	02H
	DD	FLAT:__unwindfunclet$??1TowerDefUserGaugeWnd@@UAE@XZ$3
	DD	03H
	DD	FLAT:__unwindfunclet$??1TowerDefUserGaugeWnd@@UAE@XZ$4
; Function compile flags: /Ogsp
; File d:\lost saga for developer\youtube\tutorial\source\src\lsclient\gui\towerdefwnd.cpp
xdata$x	ENDS
;	COMDAT ??1TowerDefUserGaugeWnd@@UAE@XZ
_TEXT	SEGMENT
_this$GSCopy$ = -312					; size = 4
tv919 = -308						; size = 4
_szTitle$ = -304					; size = 260
___encStr$525824 = -44					; size = 23
__$EHRec$ = -12						; size = 12
??1TowerDefUserGaugeWnd@@UAE@XZ PROC			; TowerDefUserGaugeWnd::~TowerDefUserGaugeWnd, COMDAT
; _this$ = ecx

; 470  : {

  00000	68 2c 01 00 00	 push	 300			; 0000012cH
  00005	b8 00 00 00 00	 mov	 eax, __ehhandler$??1TowerDefUserGaugeWnd@@UAE@XZ
  0000a	e8 00 00 00 00	 call	 __EH_prolog3_GS
  0000f	8b f1		 mov	 esi, ecx
  00011	89 b5 c8 fe ff
	ff		 mov	 DWORD PTR _this$GSCopy$[ebp], esi
  00017	c7 06 00 00 00
	00		 mov	 DWORD PTR [esi], OFFSET ??_7TowerDefUserGaugeWnd@@6B@

; 471  : 	SAFEDELETE(m_pPotrait[IMG_POTRAIT_BACK]);

  0001d	8b 8e 90 01 00
	00		 mov	 ecx, DWORD PTR [esi+400]
  00023	33 db		 xor	 ebx, ebx
  00025	c7 45 fc 04 00
	00 00		 mov	 DWORD PTR __$EHRec$[ebp+8], 4
  0002c	3b cb		 cmp	 ecx, ebx
  0002e	74 0d		 je	 SHORT $LN110@TowerDefUs
  00030	8b 01		 mov	 eax, DWORD PTR [ecx]
  00032	6a 01		 push	 1
  00034	ff 50 40	 call	 DWORD PTR [eax+64]
  00037	89 9e 90 01 00
	00		 mov	 DWORD PTR [esi+400], ebx
$LN110@TowerDefUs:

; 472  : 	SAFEDELETE(m_pPotrait[IMG_POTRAIT_OVERBACK]);

  0003d	8b 8e 94 01 00
	00		 mov	 ecx, DWORD PTR [esi+404]
  00043	3b cb		 cmp	 ecx, ebx
  00045	74 0d		 je	 SHORT $LN109@TowerDefUs
  00047	8b 01		 mov	 eax, DWORD PTR [ecx]
  00049	6a 01		 push	 1
  0004b	ff 50 40	 call	 DWORD PTR [eax+64]
  0004e	89 9e 94 01 00
	00		 mov	 DWORD PTR [esi+404], ebx
$LN109@TowerDefUs:

; 473  : 	SAFEDELETE(m_pCharPotrait);

  00054	8b 8e a4 01 00
	00		 mov	 ecx, DWORD PTR [esi+420]
  0005a	89 8d cc fe ff
	ff		 mov	 DWORD PTR tv919[ebp], ecx
  00060	3b cb		 cmp	 ecx, ebx
  00062	74 17		 je	 SHORT $LN108@TowerDefUs
  00064	e8 00 00 00 00	 call	 ??1TowerDef3DChar@@QAE@XZ ; TowerDef3DChar::~TowerDef3DChar
  00069	ff b5 cc fe ff
	ff		 push	 DWORD PTR tv919[ebp]
  0006f	e8 00 00 00 00	 call	 ??3@YAXPAX@Z		; operator delete
  00074	59		 pop	 ecx
  00075	89 9e a4 01 00
	00		 mov	 DWORD PTR [esi+420], ebx
$LN108@TowerDefUs:

; 474  : 	SAFEDELETE(m_pNpcFace);

  0007b	8b 8e 9c 01 00
	00		 mov	 ecx, DWORD PTR [esi+412]
  00081	3b cb		 cmp	 ecx, ebx
  00083	74 0d		 je	 SHORT $LN107@TowerDefUs
  00085	8b 01		 mov	 eax, DWORD PTR [ecx]
  00087	6a 01		 push	 1
  00089	ff 50 40	 call	 DWORD PTR [eax+64]
  0008c	89 9e 9c 01 00
	00		 mov	 DWORD PTR [esi+412], ebx
$LN107@TowerDefUs:

; 475  : 
; 476  : 	SAFEDELETE(m_pGauge);

  00092	8b 8e 98 01 00
	00		 mov	 ecx, DWORD PTR [esi+408]
  00098	3b cb		 cmp	 ecx, ebx
  0009a	74 0d		 je	 SHORT $LN106@TowerDefUs
  0009c	8b 01		 mov	 eax, DWORD PTR [ecx]
  0009e	6a 01		 push	 1
  000a0	ff 50 40	 call	 DWORD PTR [eax+64]
  000a3	89 9e 98 01 00
	00		 mov	 DWORD PTR [esi+408], ebx
$LN106@TowerDefUs:

; 477  : 	SAFEDELETE(m_pSurrender);

  000a9	8b 8e a0 01 00
	00		 mov	 ecx, DWORD PTR [esi+416]
  000af	3b cb		 cmp	 ecx, ebx
  000b1	74 0d		 je	 SHORT $LN105@TowerDefUs
  000b3	8b 01		 mov	 eax, DWORD PTR [ecx]
  000b5	6a 01		 push	 1
  000b7	ff 50 40	 call	 DWORD PTR [eax+64]
  000ba	89 9e a0 01 00
	00		 mov	 DWORD PTR [esi+416], ebx
$LN105@TowerDefUs:

; 478  : 
; 479  : 	SAFEDELETE(m_pGaugeFrame);

  000c0	8b 8e a8 01 00
	00		 mov	 ecx, DWORD PTR [esi+424]
  000c6	3b cb		 cmp	 ecx, ebx
  000c8	74 0d		 je	 SHORT $LN104@TowerDefUs
  000ca	8b 01		 mov	 eax, DWORD PTR [ecx]
  000cc	6a 01		 push	 1
  000ce	ff 50 40	 call	 DWORD PTR [eax+64]
  000d1	89 9e a8 01 00
	00		 mov	 DWORD PTR [esi+424], ebx
$LN104@TowerDefUs:

; 480  : 	SAFEDELETE(m_pGaugeFrameOver);

  000d7	8b 8e ac 01 00
	00		 mov	 ecx, DWORD PTR [esi+428]
  000dd	3b cb		 cmp	 ecx, ebx
  000df	74 0d		 je	 SHORT $LN103@TowerDefUs
  000e1	8b 01		 mov	 eax, DWORD PTR [ecx]
  000e3	6a 01		 push	 1
  000e5	ff 50 40	 call	 DWORD PTR [eax+64]
  000e8	89 9e ac 01 00
	00		 mov	 DWORD PTR [esi+428], ebx
$LN103@TowerDefUs:

; 481  : 
; 482  : 
; 483  : 	if( !COMPARE( m_iDefaultX, 0, Setting::Width() ) || 
; 484  : 		!COMPARE( m_iDefaultY, 0, Setting::Height() ) )

  000ee	39 9e e0 01 00
	00		 cmp	 DWORD PTR [esi+480], ebx
  000f4	0f 8c 03 01 00
	00		 jl	 $LN100@TowerDefUs
  000fa	e8 00 00 00 00	 call	 ?Width@Setting@@SAHXZ	; Setting::Width
  000ff	39 86 e0 01 00
	00		 cmp	 DWORD PTR [esi+480], eax
  00105	0f 8d f2 00 00
	00		 jge	 $LN100@TowerDefUs
  0010b	39 9e e4 01 00
	00		 cmp	 DWORD PTR [esi+484], ebx
  00111	0f 8c e6 00 00
	00		 jl	 $LN100@TowerDefUs
  00117	e8 00 00 00 00	 call	 ?Height@Setting@@SAHXZ	; Setting::Height
  0011c	39 86 e4 01 00
	00		 cmp	 DWORD PTR [esi+484], eax
  00122	0f 8d d5 00 00
	00		 jge	 $LN100@TowerDefUs

; 485  : 		return;
; 486  : 
; 487  : 	char szTitle[MAX_PATH] = "";

  00128	68 03 01 00 00	 push	 259			; 00000103H
  0012d	8d 85 d1 fe ff
	ff		 lea	 eax, DWORD PTR _szTitle$[ebp+1]
  00133	53		 push	 ebx
  00134	50		 push	 eax
  00135	88 9d d0 fe ff
	ff		 mov	 BYTE PTR _szTitle$[ebp], bl
  0013b	e8 00 00 00 00	 call	 _memset
  00140	83 c4 0c	 add	 esp, 12			; 0000000cH
  00143	6a 05		 push	 5

; 488  : 	sprintf_e( szTitle, "TowerDefUserGaugeWnd%d", ioWnd::GetID() );

  00145	c7 45 d4 b9 83
	9c 8f		 mov	 DWORD PTR ___encStr$525824[ebp], -1885568071 ; 8f9c83b9H
  0014c	c7 45 d8 9f a8
	8e 8c		 mov	 DWORD PTR ___encStr$525824[ebp+4], -1936807777 ; 8c8ea89fH
  00153	c7 45 dc b8 9f
	8e 98		 mov	 DWORD PTR ___encStr$525824[ebp+8], -1735483464 ; 988e9fb8H
  0015a	c7 45 e0 aa 8d
	9e 8d		 mov	 DWORD PTR ___encStr$525824[ebp+12], -1918988886 ; 8d9e8daaH
  00161	c7 45 e4 88 bb
	85 8e		 mov	 DWORD PTR ___encStr$525824[ebp+16], -1903838328 ; 8e85bb88H
  00168	66 c7 45 e8 c8
	88		 mov	 WORD PTR ___encStr$525824[ebp+20], 35016 ; 000088c8H
  0016e	8d 45 d4	 lea	 eax, DWORD PTR ___encStr$525824[ebp]
  00171	88 5d ea	 mov	 BYTE PTR ___encStr$525824[ebp+22], bl
  00174	59		 pop	 ecx
$LL142@TowerDefUs:
  00175	81 30 ed ec eb
	ea		 xor	 DWORD PTR [eax], -353637139 ; eaebecedH
  0017b	83 c0 04	 add	 eax, 4
  0017e	49		 dec	 ecx
  0017f	75 f4		 jne	 SHORT $LL142@TowerDefUs
  00181	6a 14		 push	 20			; 00000014H
  00183	5f		 pop	 edi
$LL139@TowerDefUs:
  00184	8b c7		 mov	 eax, edi
  00186	25 03 00 00 80	 and	 eax, -2147483645	; 80000003H
  0018b	79 05		 jns	 SHORT $LN151@TowerDefUs
  0018d	48		 dec	 eax
  0018e	83 c8 fc	 or	 eax, -4			; fffffffcH
  00191	40		 inc	 eax
$LN151@TowerDefUs:
  00192	b1 ed		 mov	 cl, -19			; ffffffedH
  00194	2a c8		 sub	 cl, al
  00196	30 4c 3d d4	 xor	 BYTE PTR ___encStr$525824[ebp+edi], cl
  0019a	47		 inc	 edi
  0019b	83 ff 16	 cmp	 edi, 22			; 00000016H
  0019e	7c e4		 jl	 SHORT $LL139@TowerDefUs
  001a0	8b ce		 mov	 ecx, esi
  001a2	ff 15 00 00 00
	00		 call	 DWORD PTR __imp_?GetID@ioWnd@@QBEKXZ
  001a8	50		 push	 eax
  001a9	8d 45 d4	 lea	 eax, DWORD PTR ___encStr$525824[ebp]
  001ac	50		 push	 eax
  001ad	8d 85 d0 fe ff
	ff		 lea	 eax, DWORD PTR _szTitle$[ebp]
  001b3	50		 push	 eax
  001b4	ff 15 00 00 00
	00		 call	 DWORD PTR __imp__sprintf
  001ba	83 c4 0c	 add	 esp, 12			; 0000000cH

; 489  : 
; 490  :  	g_GUIMgr.GUIPosSaveInt( szTitle, "XPos", m_iDefaultX ,POS_SAVE_VERSION );

  001bd	6a 04		 push	 4
  001bf	ff b6 e0 01 00
	00		 push	 DWORD PTR [esi+480]
  001c5	8d 85 d0 fe ff
	ff		 lea	 eax, DWORD PTR _szTitle$[ebp]
  001cb	68 00 00 00 00	 push	 OFFSET ??_C@_04LNCKCFGC@XPos?$AA@
  001d0	50		 push	 eax
  001d1	e8 00 00 00 00	 call	 ?GetSingleton@ioSP2GUIManager@@SAAAV1@XZ ; ioSP2GUIManager::GetSingleton
  001d6	8b c8		 mov	 ecx, eax
  001d8	e8 00 00 00 00	 call	 ?GUIPosSaveInt@ioSP2GUIManager@@QAEHPBD0HH@Z ; ioSP2GUIManager::GUIPosSaveInt

; 491  :  	g_GUIMgr.GUIPosSaveInt( szTitle, "YPos", m_iDefaultY ,POS_SAVE_VERSION );

  001dd	6a 04		 push	 4
  001df	ff b6 e4 01 00
	00		 push	 DWORD PTR [esi+484]
  001e5	8d 85 d0 fe ff
	ff		 lea	 eax, DWORD PTR _szTitle$[ebp]
  001eb	68 00 00 00 00	 push	 OFFSET ??_C@_04IAEKAMNC@YPos?$AA@
  001f0	50		 push	 eax
  001f1	e8 00 00 00 00	 call	 ?GetSingleton@ioSP2GUIManager@@SAAAV1@XZ ; ioSP2GUIManager::GetSingleton
  001f6	8b c8		 mov	 ecx, eax
  001f8	e8 00 00 00 00	 call	 ?GUIPosSaveInt@ioSP2GUIManager@@QAEHPBD0HH@Z ; ioSP2GUIManager::GUIPosSaveInt
$LN100@TowerDefUs:

; 492  : }

  001fd	8b 3d 00 00 00
	00		 mov	 edi, DWORD PTR __imp_??1ioHashString@@QAE@XZ
  00203	8d 8e 28 02 00
	00		 lea	 ecx, DWORD PTR [esi+552]
  00209	c6 45 fc 03	 mov	 BYTE PTR __$EHRec$[ebp+8], 3
  0020d	ff d7		 call	 edi
  0020f	8d 8e 18 02 00
	00		 lea	 ecx, DWORD PTR [esi+536]
  00215	c6 45 fc 02	 mov	 BYTE PTR __$EHRec$[ebp+8], 2
  00219	ff d7		 call	 edi
  0021b	8d 8e ec 01 00
	00		 lea	 ecx, DWORD PTR [esi+492]
  00221	c6 45 fc 01	 mov	 BYTE PTR __$EHRec$[ebp+8], 1
  00225	ff d7		 call	 edi
  00227	8d 8e b0 01 00
	00		 lea	 ecx, DWORD PTR [esi+432]
  0022d	88 5d fc	 mov	 BYTE PTR __$EHRec$[ebp+8], bl
  00230	e8 00 00 00 00	 call	 ??1FSMStateMgr@@UAE@XZ	; FSMStateMgr::~FSMStateMgr
  00235	83 4d fc ff	 or	 DWORD PTR __$EHRec$[ebp+8], -1
  00239	8b ce		 mov	 ecx, esi
  0023b	ff 15 00 00 00
	00		 call	 DWORD PTR __imp_??1ioMovingWnd@@UAE@XZ
  00241	e8 00 00 00 00	 call	 __EH_epilog3_GS
  00246	c3		 ret	 0
_TEXT	ENDS
;	COMDAT text$x
text$x	SEGMENT
__unwindfunclet$??1TowerDefUserGaugeWnd@@UAE@XZ$0:
  00000	8b 8d c8 fe ff
	ff		 mov	 ecx, DWORD PTR _this$GSCopy$[ebp]
  00006	ff 25 00 00 00
	00		 jmp	 DWORD PTR __imp_??1ioMovingWnd@@UAE@XZ
__unwindfunclet$??1TowerDefUserGaugeWnd@@UAE@XZ$1:
  0000c	8b 8d c8 fe ff
	ff		 mov	 ecx, DWORD PTR _this$GSCopy$[ebp]
  00012	81 c1 b0 01 00
	00		 add	 ecx, 432		; 000001b0H
  00018	e9 00 00 00 00	 jmp	 ??1FSMStateMgr@@UAE@XZ	; FSMStateMgr::~FSMStateMgr
__unwindfunclet$??1TowerDefUserGaugeWnd@@UAE@XZ$2:
  0001d	8b 8d c8 fe ff
	ff		 mov	 ecx, DWORD PTR _this$GSCopy$[ebp]
  00023	81 c1 ec 01 00
	00		 add	 ecx, 492		; 000001ecH
  00029	ff 25 00 00 00
	00		 jmp	 DWORD PTR __imp_??1ioHashString@@QAE@XZ
__unwindfunclet$??1TowerDefUserGaugeWnd@@UAE@XZ$3:
  0002f	8b 8d c8 fe ff
	ff		 mov	 ecx, DWORD PTR _this$GSCopy$[ebp]
  00035	81 c1 18 02 00
	00		 add	 ecx, 536		; 00000218H
  0003b	ff 25 00 00 00
	00		 jmp	 DWORD PTR __imp_??1ioHashString@@QAE@XZ
__unwindfunclet$??1TowerDefUserGaugeWnd@@UAE@XZ$4:
  00041	8b 8d c8 fe ff
	ff		 mov	 ecx, DWORD PTR _this$GSCopy$[ebp]
  00047	81 c1 28 02 00
	00		 add	 ecx, 552		; 00000228H
  0004d	ff 25 00 00 00
	00		 jmp	 DWORD PTR __imp_??1ioHashString@@QAE@XZ
__ehhandler$??1TowerDefUserGaugeWnd@@UAE@XZ:
  00053	8b 54 24 08	 mov	 edx, DWORD PTR [esp+8]
  00057	8d 42 0c	 lea	 eax, DWORD PTR [edx+12]
  0005a	8b 8a c4 fe ff
	ff		 mov	 ecx, DWORD PTR [edx-316]
  00060	33 c8		 xor	 ecx, eax
  00062	e8 00 00 00 00	 call	 @__security_check_cookie@4
  00067	8b 4a fc	 mov	 ecx, DWORD PTR [edx-4]
  0006a	33 c8		 xor	 ecx, eax
  0006c	e8 00 00 00 00	 call	 @__security_check_cookie@4
  00071	b8 00 00 00 00	 mov	 eax, OFFSET __ehfuncinfo$??1TowerDefUserGaugeWnd@@UAE@XZ
  00076	e9 00 00 00 00	 jmp	 ___CxxFrameHandler3
text$x	ENDS
??1TowerDefUserGaugeWnd@@UAE@XZ ENDP			; TowerDefUserGaugeWnd::~TowerDefUserGaugeWnd
PUBLIC	?SetCharChange@TowerDefUserGaugeWnd@@QAEXPAVioBaseChar@@@Z ; TowerDefUserGaugeWnd::SetCharChange
; Function compile flags: /Ogsp
;	COMDAT ?SetCharChange@TowerDefUserGaugeWnd@@QAEXPAVioBaseChar@@@Z
_TEXT	SEGMENT
_pChar$ = 8						; size = 4
?SetCharChange@TowerDefUserGaugeWnd@@QAEXPAVioBaseChar@@@Z PROC ; TowerDefUserGaugeWnd::SetCharChange, COMDAT
; _this$ = ecx

; 587  : {

  00000	55		 push	 ebp
  00001	8b ec		 mov	 ebp, esp
  00003	56		 push	 esi
  00004	8b f1		 mov	 esi, ecx
  00006	57		 push	 edi

; 588  : 	if( pChar->GetCharName() == m_szUserName )

  00007	8b 7d 08	 mov	 edi, DWORD PTR _pChar$[ebp]
  0000a	8d 86 18 02 00
	00		 lea	 eax, DWORD PTR [esi+536]
  00010	50		 push	 eax
  00011	8d 8f d4 02 00
	00		 lea	 ecx, DWORD PTR [edi+724]
  00017	ff 15 00 00 00
	00		 call	 DWORD PTR __imp_??8ioHashString@@QBE_NABV0@@Z
  0001d	84 c0		 test	 al, al
  0001f	74 10		 je	 SHORT $LN1@SetCharCha

; 589  : 	{
; 590  : 		if( m_pCharPotrait )

  00021	8b 8e a4 01 00
	00		 mov	 ecx, DWORD PTR [esi+420]
  00027	85 c9		 test	 ecx, ecx
  00029	74 06		 je	 SHORT $LN1@SetCharCha

; 591  : 			m_pCharPotrait->SetChar( pChar );

  0002b	57		 push	 edi
  0002c	e8 00 00 00 00	 call	 ?SetChar@TowerDef3DChar@@QAEXPAVioBaseChar@@@Z ; TowerDef3DChar::SetChar
$LN1@SetCharCha:
  00031	5f		 pop	 edi
  00032	5e		 pop	 esi

; 592  : 	}
; 593  : }

  00033	5d		 pop	 ebp
  00034	c2 04 00	 ret	 4
?SetCharChange@TowerDefUserGaugeWnd@@QAEXPAVioBaseChar@@@Z ENDP ; TowerDefUserGaugeWnd::SetCharChange
_TEXT	ENDS
PUBLIC	?SetHelmChange@TowerDefUserGaugeWnd@@QAEXPAVioBaseChar@@@Z ; TowerDefUserGaugeWnd::SetHelmChange
; Function compile flags: /Ogsp
;	COMDAT ?SetHelmChange@TowerDefUserGaugeWnd@@QAEXPAVioBaseChar@@@Z
_TEXT	SEGMENT
_pChar$ = 8						; size = 4
?SetHelmChange@TowerDefUserGaugeWnd@@QAEXPAVioBaseChar@@@Z PROC ; TowerDefUserGaugeWnd::SetHelmChange, COMDAT
; _this$ = ecx

; 596  : {

  00000	55		 push	 ebp
  00001	8b ec		 mov	 ebp, esp
  00003	56		 push	 esi
  00004	8b f1		 mov	 esi, ecx
  00006	57		 push	 edi

; 597  : 	if( pChar->GetCharName() == m_szUserName )

  00007	8b 7d 08	 mov	 edi, DWORD PTR _pChar$[ebp]
  0000a	8d 86 18 02 00
	00		 lea	 eax, DWORD PTR [esi+536]
  00010	50		 push	 eax
  00011	8d 8f d4 02 00
	00		 lea	 ecx, DWORD PTR [edi+724]
  00017	ff 15 00 00 00
	00		 call	 DWORD PTR __imp_??8ioHashString@@QBE_NABV0@@Z
  0001d	84 c0		 test	 al, al
  0001f	74 10		 je	 SHORT $LN1@SetHelmCha@2

; 598  : 	{
; 599  : 		if( m_pCharPotrait )

  00021	8b 8e a4 01 00
	00		 mov	 ecx, DWORD PTR [esi+420]
  00027	85 c9		 test	 ecx, ecx
  00029	74 06		 je	 SHORT $LN1@SetHelmCha@2

; 600  : 			m_pCharPotrait->SetHelmChange( pChar );

  0002b	57		 push	 edi
  0002c	e8 00 00 00 00	 call	 ?SetHelmChange@TowerDef3DChar@@QAEXPAVioBaseChar@@@Z ; TowerDef3DChar::SetHelmChange
$LN1@SetHelmCha@2:
  00031	5f		 pop	 edi
  00032	5e		 pop	 esi

; 601  : 	}
; 602  : }

  00033	5d		 pop	 ebp
  00034	c2 04 00	 ret	 4
?SetHelmChange@TowerDefUserGaugeWnd@@QAEXPAVioBaseChar@@@Z ENDP ; TowerDefUserGaugeWnd::SetHelmChange
_TEXT	ENDS
EXTRN	__imp_?OnRender@ioWnd@@MAEXXZ:PROC
; Function compile flags: /Ogsp
;	COMDAT ?OnRender@TowerDefUserGaugeWnd@@MAEXXZ
_TEXT	SEGMENT
tv183 = -8						; size = 4
tv174 = -8						; size = 4
tv171 = -4						; size = 4
tv137 = -4						; size = 4
?OnRender@TowerDefUserGaugeWnd@@MAEXXZ PROC		; TowerDefUserGaugeWnd::OnRender, COMDAT
; _this$ = ecx

; 794  : {

  00000	55		 push	 ebp
  00001	8b ec		 mov	 ebp, esp
  00003	51		 push	 ecx
  00004	51		 push	 ecx
  00005	56		 push	 esi
  00006	8b f1		 mov	 esi, ecx

; 795  : 	if( m_ShowAniState.GetCurState() == SAT_DELAY || 
; 796  : 		m_ShowAniState.GetCurState() == SAT_START_ROUND ) 

  00008	8b 86 b4 01 00
	00		 mov	 eax, DWORD PTR [esi+436]
  0000e	83 f8 02	 cmp	 eax, 2
  00011	0f 84 aa 00 00
	00		 je	 $LN6@OnRender
  00017	83 f8 01	 cmp	 eax, 1
  0001a	0f 84 a1 00 00
	00		 je	 $LN6@OnRender

; 797  : 		return;
; 798  : 
; 799  : 	ioWnd::OnRender();

  00020	57		 push	 edi
  00021	ff 15 00 00 00
	00		 call	 DWORD PTR __imp_?OnRender@ioWnd@@MAEXXZ

; 800  : 
; 801  : 	int iXPos = GetDerivedPosX();

  00027	8b ce		 mov	 ecx, esi
  00029	ff 15 00 00 00
	00		 call	 DWORD PTR __imp_?GetDerivedPosX@ioWnd@@QBEHXZ

; 802  : 	int iYPos = GetDerivedPosY();	

  0002f	8b ce		 mov	 ecx, esi
  00031	8b f8		 mov	 edi, eax
  00033	ff 15 00 00 00
	00		 call	 DWORD PTR __imp_?GetDerivedPosY@ioWnd@@QBEHXZ
  00039	8b c8		 mov	 ecx, eax

; 803  : 
; 804  : 	m_fMaxHP = max( FLOAT1, m_fMaxHP );      //

  0003b	b8 01 00 00 00	 mov	 eax, 1
  00040	d9 86 fc 01 00
	00		 fld	 DWORD PTR [esi+508]
  00046	89 45 f8	 mov	 DWORD PTR tv183[ebp], eax
  00049	d9 5d fc	 fstp	 DWORD PTR tv171[ebp]
  0004c	db 45 f8	 fild	 DWORD PTR tv183[ebp]
  0004f	85 c0		 test	 eax, eax
  00051	79 06		 jns	 SHORT $LN21@OnRender
  00053	d8 05 00 00 00
	00		 fadd	 DWORD PTR __real@4f800000
$LN21@OnRender:
  00059	d9 45 fc	 fld	 DWORD PTR tv171[ebp]
  0005c	d9 c9		 fxch	 ST(1)
  0005e	df f1		 fcomip	 ST(1)
  00060	dd d8		 fstp	 ST(0)
  00062	76 1f		 jbe	 SHORT $LN10@OnRender
  00064	b8 01 00 00 00	 mov	 eax, 1
  00069	89 45 f8	 mov	 DWORD PTR tv174[ebp], eax
  0006c	db 45 f8	 fild	 DWORD PTR tv174[ebp]
  0006f	85 c0		 test	 eax, eax
  00071	79 06		 jns	 SHORT $LN22@OnRender
  00073	d8 05 00 00 00
	00		 fadd	 DWORD PTR __real@4f800000
$LN22@OnRender:
  00079	d9 5d fc	 fstp	 DWORD PTR tv137[ebp]
  0007c	f3 0f 10 45 fc	 movss	 xmm0, DWORD PTR tv137[ebp]
  00081	eb 05		 jmp	 SHORT $LN11@OnRender
$LN10@OnRender:
  00083	f3 0f 10 45 fc	 movss	 xmm0, DWORD PTR tv171[ebp]
$LN11@OnRender:

; 805  : 
; 806  : 	switch(m_eGaugeType)

  00088	8b 86 e8 01 00
	00		 mov	 eax, DWORD PTR [esi+488]
  0008e	83 e8 00	 sub	 eax, 0
  00091	f3 0f 11 86 fc
	01 00 00	 movss	 DWORD PTR [esi+508], xmm0
  00099	74 1c		 je	 SHORT $LN3@OnRender
  0009b	48		 dec	 eax
  0009c	74 0e		 je	 SHORT $LN2@OnRender
  0009e	48		 dec	 eax
  0009f	75 1f		 jne	 SHORT $LN20@OnRender

; 815  : 
; 816  : 	case TowerDefWnd::GAUGE_NPC_BOSS:
; 817  : 		OnRenderBoss(iXPos, iYPos);

  000a1	51		 push	 ecx
  000a2	57		 push	 edi
  000a3	8b ce		 mov	 ecx, esi
  000a5	e8 00 00 00 00	 call	 ?OnRenderBoss@TowerDefUserGaugeWnd@@IAEXHH@Z ; TowerDefUserGaugeWnd::OnRenderBoss

; 818  : 		break;

  000aa	eb 14		 jmp	 SHORT $LN20@OnRender
$LN2@OnRender:

; 810  : 		break;
; 811  : 
; 812  : 	case TowerDefWnd::GAUGE_NPC:
; 813  : 		OnRenderNPC(iXPos, iYPos);

  000ac	51		 push	 ecx
  000ad	57		 push	 edi
  000ae	8b ce		 mov	 ecx, esi
  000b0	e8 00 00 00 00	 call	 ?OnRenderNPC@TowerDefUserGaugeWnd@@IAEXHH@Z ; TowerDefUserGaugeWnd::OnRenderNPC

; 814  : 		break;

  000b5	eb 09		 jmp	 SHORT $LN20@OnRender
$LN3@OnRender:

; 807  : 	{
; 808  : 	case TowerDefWnd::GAUGE_USER:
; 809  : 		OnRenderUser(iXPos, iYPos);

  000b7	51		 push	 ecx
  000b8	57		 push	 edi
  000b9	8b ce		 mov	 ecx, esi
  000bb	e8 00 00 00 00	 call	 ?OnRenderUser@TowerDefUserGaugeWnd@@IAEXHH@Z ; TowerDefUserGaugeWnd::OnRenderUser
$LN20@OnRender:
  000c0	5f		 pop	 edi
$LN6@OnRender:
  000c1	5e		 pop	 esi

; 819  : 	}
; 820  : }

  000c2	c9		 leave
  000c3	c3		 ret	 0
?OnRender@TowerDefUserGaugeWnd@@MAEXXZ ENDP		; TowerDefUserGaugeWnd::OnRender
_TEXT	ENDS
PUBLIC	__$ArrayPad$
; Function compile flags: /Ogsp
;	COMDAT ?iwm_create@TowerDefUserGaugeWnd@@UAEXXZ
_TEXT	SEGMENT
_iYPos$ = -296						; size = 4
_szTitle$ = -292					; size = 260
___encStr$526217 = -32					; size = 23
__$ArrayPad$ = -4					; size = 4
?iwm_create@TowerDefUserGaugeWnd@@UAEXXZ PROC		; TowerDefUserGaugeWnd::iwm_create, COMDAT
; _this$ = ecx

; 835  : {

  00000	55		 push	 ebp
  00001	8b ec		 mov	 ebp, esp
  00003	81 ec 28 01 00
	00		 sub	 esp, 296		; 00000128H
  00009	a1 00 00 00 00	 mov	 eax, DWORD PTR ___security_cookie
  0000e	33 c5		 xor	 eax, ebp
  00010	89 45 fc	 mov	 DWORD PTR __$ArrayPad$[ebp], eax
  00013	53		 push	 ebx
  00014	56		 push	 esi
  00015	57		 push	 edi

; 836  : 	char szTitle[MAX_PATH] = "";

  00016	33 db		 xor	 ebx, ebx
  00018	68 03 01 00 00	 push	 259			; 00000103H
  0001d	8d 85 dd fe ff
	ff		 lea	 eax, DWORD PTR _szTitle$[ebp+1]
  00023	53		 push	 ebx
  00024	50		 push	 eax
  00025	8b f1		 mov	 esi, ecx
  00027	88 9d dc fe ff
	ff		 mov	 BYTE PTR _szTitle$[ebp], bl
  0002d	e8 00 00 00 00	 call	 _memset
  00032	83 c4 0c	 add	 esp, 12			; 0000000cH

; 837  : 	sprintf_e( szTitle, "TowerDefUserGaugeWnd%d", ioWnd::GetID() );

  00035	6a 05		 push	 5
  00037	c7 45 e0 b9 83
	9c 8f		 mov	 DWORD PTR ___encStr$526217[ebp], -1885568071 ; 8f9c83b9H
  0003e	c7 45 e4 9f a8
	8e 8c		 mov	 DWORD PTR ___encStr$526217[ebp+4], -1936807777 ; 8c8ea89fH
  00045	c7 45 e8 b8 9f
	8e 98		 mov	 DWORD PTR ___encStr$526217[ebp+8], -1735483464 ; 988e9fb8H
  0004c	c7 45 ec aa 8d
	9e 8d		 mov	 DWORD PTR ___encStr$526217[ebp+12], -1918988886 ; 8d9e8daaH
  00053	c7 45 f0 88 bb
	85 8e		 mov	 DWORD PTR ___encStr$526217[ebp+16], -1903838328 ; 8e85bb88H
  0005a	66 c7 45 f4 c8
	88		 mov	 WORD PTR ___encStr$526217[ebp+20], 35016 ; 000088c8H
  00060	8d 45 e0	 lea	 eax, DWORD PTR ___encStr$526217[ebp]
  00063	88 5d f6	 mov	 BYTE PTR ___encStr$526217[ebp+22], bl
  00066	59		 pop	 ecx
$LL109@iwm_create@2:
  00067	81 30 ed ec eb
	ea		 xor	 DWORD PTR [eax], -353637139 ; eaebecedH
  0006d	83 c0 04	 add	 eax, 4
  00070	49		 dec	 ecx
  00071	75 f4		 jne	 SHORT $LL109@iwm_create@2
  00073	6a 14		 push	 20			; 00000014H
  00075	5f		 pop	 edi
$LL106@iwm_create@2:
  00076	8b c7		 mov	 eax, edi
  00078	25 03 00 00 80	 and	 eax, -2147483645	; 80000003H
  0007d	79 05		 jns	 SHORT $LN116@iwm_create@2
  0007f	48		 dec	 eax
  00080	83 c8 fc	 or	 eax, -4			; fffffffcH
  00083	40		 inc	 eax
$LN116@iwm_create@2:
  00084	b1 ed		 mov	 cl, -19			; ffffffedH
  00086	2a c8		 sub	 cl, al
  00088	30 4c 3d e0	 xor	 BYTE PTR ___encStr$526217[ebp+edi], cl
  0008c	47		 inc	 edi
  0008d	83 ff 16	 cmp	 edi, 22			; 00000016H
  00090	7c e4		 jl	 SHORT $LL106@iwm_create@2
  00092	8b ce		 mov	 ecx, esi
  00094	ff 15 00 00 00
	00		 call	 DWORD PTR __imp_?GetID@ioWnd@@QBEKXZ
  0009a	50		 push	 eax
  0009b	8d 45 e0	 lea	 eax, DWORD PTR ___encStr$526217[ebp]
  0009e	50		 push	 eax
  0009f	8d 85 dc fe ff
	ff		 lea	 eax, DWORD PTR _szTitle$[ebp]
  000a5	50		 push	 eax
  000a6	ff 15 00 00 00
	00		 call	 DWORD PTR __imp__sprintf
  000ac	83 c4 0c	 add	 esp, 12			; 0000000cH

; 838  : 
; 839  :  	int iXPos = g_GUIMgr.GUIPosLoadInt( szTitle, "XPos", GetXPos() ,POS_SAVE_VERSION );

  000af	6a 04		 push	 4
  000b1	8b ce		 mov	 ecx, esi
  000b3	ff 15 00 00 00
	00		 call	 DWORD PTR __imp_?GetXPos@ioWnd@@QBEHXZ
  000b9	50		 push	 eax
  000ba	8d 85 dc fe ff
	ff		 lea	 eax, DWORD PTR _szTitle$[ebp]
  000c0	68 00 00 00 00	 push	 OFFSET ??_C@_04LNCKCFGC@XPos?$AA@
  000c5	50		 push	 eax
  000c6	e8 00 00 00 00	 call	 ?GetSingleton@ioSP2GUIManager@@SAAAV1@XZ ; ioSP2GUIManager::GetSingleton
  000cb	8b c8		 mov	 ecx, eax
  000cd	e8 00 00 00 00	 call	 ?GUIPosLoadInt@ioSP2GUIManager@@QAEHPBD0HH@Z ; ioSP2GUIManager::GUIPosLoadInt

; 840  :  	int iYPos = g_GUIMgr.GUIPosLoadInt( szTitle, "YPos", GetYPos() ,POS_SAVE_VERSION );

  000d2	6a 04		 push	 4
  000d4	8b ce		 mov	 ecx, esi
  000d6	8b f8		 mov	 edi, eax
  000d8	ff 15 00 00 00
	00		 call	 DWORD PTR __imp_?GetYPos@ioWnd@@QBEHXZ
  000de	50		 push	 eax
  000df	8d 85 dc fe ff
	ff		 lea	 eax, DWORD PTR _szTitle$[ebp]
  000e5	68 00 00 00 00	 push	 OFFSET ??_C@_04IAEKAMNC@YPos?$AA@
  000ea	50		 push	 eax
  000eb	e8 00 00 00 00	 call	 ?GetSingleton@ioSP2GUIManager@@SAAAV1@XZ ; ioSP2GUIManager::GetSingleton
  000f0	8b c8		 mov	 ecx, eax
  000f2	e8 00 00 00 00	 call	 ?GUIPosLoadInt@ioSP2GUIManager@@QAEHPBD0HH@Z ; ioSP2GUIManager::GUIPosLoadInt
  000f7	89 85 d8 fe ff
	ff		 mov	 DWORD PTR _iYPos$[ebp], eax

; 841  : 
; 842  : 	if( COMPARE( iXPos, 0, Setting::Width() ) && 
; 843  : 		COMPARE( iYPos, 0, Setting::Height() ) )

  000fd	3b fb		 cmp	 edi, ebx
  000ff	7c 2d		 jl	 SHORT $LN2@iwm_create@2
  00101	e8 00 00 00 00	 call	 ?Width@Setting@@SAHXZ	; Setting::Width
  00106	3b f8		 cmp	 edi, eax
  00108	7d 24		 jge	 SHORT $LN2@iwm_create@2
  0010a	39 9d d8 fe ff
	ff		 cmp	 DWORD PTR _iYPos$[ebp], ebx
  00110	7c 1c		 jl	 SHORT $LN2@iwm_create@2
  00112	e8 00 00 00 00	 call	 ?Height@Setting@@SAHXZ	; Setting::Height
  00117	39 85 d8 fe ff
	ff		 cmp	 DWORD PTR _iYPos$[ebp], eax
  0011d	7d 0f		 jge	 SHORT $LN2@iwm_create@2

; 844  : 	{
; 845  : 		SetWndPos( iXPos, iYPos );

  0011f	ff b5 d8 fe ff
	ff		 push	 DWORD PTR _iYPos$[ebp]
  00125	8b ce		 mov	 ecx, esi
  00127	57		 push	 edi
  00128	ff 15 00 00 00
	00		 call	 DWORD PTR __imp_?SetWndPos@ioWnd@@QAEXHH@Z
$LN2@iwm_create@2:

; 846  : 	}
; 847  : 
; 848  : 	m_iDefaultX = GetDerivedPosX();

  0012e	8b ce		 mov	 ecx, esi
  00130	ff 15 00 00 00
	00		 call	 DWORD PTR __imp_?GetDerivedPosX@ioWnd@@QBEHXZ

; 849  : 	m_iDefaultY = GetDerivedPosY();

  00136	8b ce		 mov	 ecx, esi
  00138	89 86 e0 01 00
	00		 mov	 DWORD PTR [esi+480], eax
  0013e	ff 15 00 00 00
	00		 call	 DWORD PTR __imp_?GetDerivedPosY@ioWnd@@QBEHXZ
  00144	89 86 e4 01 00
	00		 mov	 DWORD PTR [esi+484], eax

; 850  : 
; 851  : 	if( m_bPosToDefault )

  0014a	38 1d 00 00 00
	00		 cmp	 BYTE PTR ?m_bPosToDefault@TowerDefUserGaugeWnd@@1_NA, bl ; TowerDefUserGaugeWnd::m_bPosToDefault
  00150	74 1c		 je	 SHORT $LN1@iwm_create@2

; 852  : 	{
; 853  : 		m_bPosToDefault = false;
; 854  : 		SetPositionToDefault( Setting::Width(), Setting::Height(), true );

  00152	53		 push	 ebx
  00153	88 1d 00 00 00
	00		 mov	 BYTE PTR ?m_bPosToDefault@TowerDefUserGaugeWnd@@1_NA, bl ; TowerDefUserGaugeWnd::m_bPosToDefault
  00159	8b 3e		 mov	 edi, DWORD PTR [esi]
  0015b	6a 01		 push	 1
  0015d	e8 00 00 00 00	 call	 ?Height@Setting@@SAHXZ	; Setting::Height
  00162	50		 push	 eax
  00163	e8 00 00 00 00	 call	 ?Width@Setting@@SAHXZ	; Setting::Width
  00168	50		 push	 eax
  00169	8b ce		 mov	 ecx, esi
  0016b	ff 57 30	 call	 DWORD PTR [edi+48]
$LN1@iwm_create@2:

; 855  : 	}
; 856  : }

  0016e	8b 4d fc	 mov	 ecx, DWORD PTR __$ArrayPad$[ebp]
  00171	5f		 pop	 edi
  00172	5e		 pop	 esi
  00173	33 cd		 xor	 ecx, ebp
  00175	5b		 pop	 ebx
  00176	e8 00 00 00 00	 call	 @__security_check_cookie@4
  0017b	c9		 leave
  0017c	c3		 ret	 0
?iwm_create@TowerDefUserGaugeWnd@@UAEXXZ ENDP		; TowerDefUserGaugeWnd::iwm_create
_TEXT	ENDS
PUBLIC	__real@4026000000000000
PUBLIC	?UpdateShowAni@TowerDefUserGaugeWnd@@IAE_NXZ	; TowerDefUserGaugeWnd::UpdateShowAni
EXTRN	?UpdateTime@FSMStateMgr@@QAEXXZ:PROC		; FSMStateMgr::UpdateTime
EXTRN	__ftol2_sse:PROC
;	COMDAT __real@4026000000000000
; File d:\lost saga for developer\youtube\tutorial\source\src\lsclient\gui\fsmstatemgr.h
CONST	SEGMENT
__real@4026000000000000 DQ 04026000000000000r	; 11
; Function compile flags: /Ogsp
; File d:\lost saga for developer\youtube\tutorial\source\src\lsclient\gui\towerdefwnd.cpp
CONST	ENDS
;	COMDAT ?UpdateShowAni@TowerDefUserGaugeWnd@@IAE_NXZ
_TEXT	SEGMENT
tv304 = -16						; size = 8
tv302 = -16						; size = 8
tv295 = -16						; size = 8
tv529 = -8						; size = 4
tv525 = -8						; size = 4
tv521 = -8						; size = 4
tv517 = -8						; size = 4
tv514 = -8						; size = 4
tv510 = -8						; size = 4
tv506 = -8						; size = 4
tv502 = -8						; size = 4
tv495 = -8						; size = 4
tv430 = -8						; size = 4
tv426 = -8						; size = 4
tv421 = -8						; size = 4
tv417 = -8						; size = 4
tv382 = -8						; size = 4
tv378 = -8						; size = 4
tv373 = -8						; size = 4
tv368 = -8						; size = 4
tv362 = -8						; size = 4
_iStartYPos$526461 = -8					; size = 4
tv580 = -4						; size = 4
tv575 = -4						; size = 4
tv571 = -4						; size = 4
tv567 = -4						; size = 4
tv564 = -4						; size = 4
tv560 = -4						; size = 4
tv556 = -4						; size = 4
tv552 = -4						; size = 4
tv546 = -4						; size = 4
?UpdateShowAni@TowerDefUserGaugeWnd@@IAE_NXZ PROC	; TowerDefUserGaugeWnd::UpdateShowAni, COMDAT
; _this$ = ecx

; 980  : {

  00000	55		 push	 ebp
  00001	8b ec		 mov	 ebp, esp
  00003	83 ec 10	 sub	 esp, 16			; 00000010H
  00006	53		 push	 ebx
  00007	56		 push	 esi
  00008	57		 push	 edi
  00009	8b f1		 mov	 esi, ecx

; 981  : 	if( !g_GUIMgr.IsSkipUIByBlind() && m_ShowAniState.GetCurState() == SAT_NONE )

  0000b	e8 00 00 00 00	 call	 ?GetSingleton@ioSP2GUIManager@@SAAAV1@XZ ; ioSP2GUIManager::GetSingleton
  00010	33 db		 xor	 ebx, ebx
  00012	38 98 e0 04 00
	00		 cmp	 BYTE PTR [eax+1248], bl
  00018	75 15		 jne	 SHORT $LN81@UpdateShow
  0001a	39 9e b4 01 00
	00		 cmp	 DWORD PTR [esi+436], ebx
  00020	75 0d		 jne	 SHORT $LN81@UpdateShow

; 982  : 		m_ShowAniState.ChangeState( SAT_END );

  00022	6a 07		 push	 7
  00024	8d 8e b0 01 00
	00		 lea	 ecx, DWORD PTR [esi+432]
  0002a	e8 00 00 00 00	 call	 ?ChangeState@FSMStateMgr@@QAEHH@Z ; FSMStateMgr::ChangeState
$LN81@UpdateShow:

; 983  : 
; 984  : 	if( !g_GUIMgr.IsSkipUIByBlind() && m_ShowAniState.GetCurState() == SAT_START_ROUND )

  0002f	e8 00 00 00 00	 call	 ?GetSingleton@ioSP2GUIManager@@SAAAV1@XZ ; ioSP2GUIManager::GetSingleton
  00034	38 98 e0 04 00
	00		 cmp	 BYTE PTR [eax+1248], bl
  0003a	75 16		 jne	 SHORT $LN9@UpdateShow
  0003c	83 be b4 01 00
	00 01		 cmp	 DWORD PTR [esi+436], 1
  00043	75 0d		 jne	 SHORT $LN9@UpdateShow

; 985  : 		m_ShowAniState.ChangeState( SAT_DELAY );

  00045	6a 02		 push	 2
  00047	8d 8e b0 01 00
	00		 lea	 ecx, DWORD PTR [esi+432]
  0004d	e8 00 00 00 00	 call	 ?ChangeState@FSMStateMgr@@QAEHH@Z ; FSMStateMgr::ChangeState
$LN9@UpdateShow:

; 986  : 
; 987  : 	if( g_GUIMgr.IsSkipUIByBlind() && m_ShowAniState.GetCurState() == SAT_END )

  00052	e8 00 00 00 00	 call	 ?GetSingleton@ioSP2GUIManager@@SAAAV1@XZ ; ioSP2GUIManager::GetSingleton
  00057	38 98 e0 04 00
	00		 cmp	 BYTE PTR [eax+1248], bl
  0005d	74 15		 je	 SHORT $LN8@UpdateShow
  0005f	83 be b4 01 00
	00 07		 cmp	 DWORD PTR [esi+436], 7
  00066	75 0c		 jne	 SHORT $LN8@UpdateShow

; 988  : 		m_ShowAniState.ChangeState( SAT_NONE );

  00068	53		 push	 ebx
  00069	8d 8e b0 01 00
	00		 lea	 ecx, DWORD PTR [esi+432]
  0006f	e8 00 00 00 00	 call	 ?ChangeState@FSMStateMgr@@QAEHH@Z ; FSMStateMgr::ChangeState
$LN8@UpdateShow:

; 989  : 
; 990  : 	m_ShowAniState.UpdateTime();

  00074	8d 8e b0 01 00
	00		 lea	 ecx, DWORD PTR [esi+432]
  0007a	e8 00 00 00 00	 call	 ?UpdateTime@FSMStateMgr@@QAEXXZ ; FSMStateMgr::UpdateTime

; 991  : 
; 992  : 	if( m_ShowAniState.GetCurState() == SAT_UP )

  0007f	8b 86 b4 01 00
	00		 mov	 eax, DWORD PTR [esi+436]
  00085	83 f8 03	 cmp	 eax, 3
  00088	0f 85 d3 00 00
	00		 jne	 $LN7@UpdateShow

; 993  : 	{
; 994  : 		enum { MINUS_Y_POS = 140 };
; 995  : 		int iStartYPos = MINUS_Y_POS + m_iDefaultY;

  0008e	8b 86 e4 01 00
	00		 mov	 eax, DWORD PTR [esi+484]
  00094	05 8c 00 00 00	 add	 eax, 140		; 0000008cH
  00099	89 45 f8	 mov	 DWORD PTR _iStartYPos$526461[ebp], eax

; 996  : 		int iCurYpos = m_iDefaultY - ( cos( (FLOAT_PI * FLOAT05 * m_ShowAniState.GetCurTime()  ) / m_ShowAniState.GetDelay() ) * iStartYPos );	

  0009c	b8 4e e6 40 bb	 mov	 eax, -1153374642	; bb40e64eH
  000a1	8b d0		 mov	 edx, eax
  000a3	b8 00 ca 9a 3b	 mov	 eax, 1000000000		; 3b9aca00H
  000a8	8b f8		 mov	 edi, eax
  000aa	b8 05 00 00 00	 mov	 eax, 5
  000af	8b d8		 mov	 ebx, eax
  000b1	b8 0a 00 00 00	 mov	 eax, 10			; 0000000aH

; 997  : 		SetWndPos( m_iDefaultX, iCurYpos );

  000b6	db 86 e4 01 00
	00		 fild	 DWORD PTR [esi+484]
  000bc	89 5d fc	 mov	 DWORD PTR tv580[ebp], ebx
  000bf	db 45 fc	 fild	 DWORD PTR tv580[ebp]
  000c2	85 db		 test	 ebx, ebx
  000c4	79 06		 jns	 SHORT $LN82@UpdateShow
  000c6	d8 05 00 00 00
	00		 fadd	 DWORD PTR __real@4f800000
$LN82@UpdateShow:
  000cc	89 45 fc	 mov	 DWORD PTR tv575[ebp], eax
  000cf	db 45 fc	 fild	 DWORD PTR tv575[ebp]
  000d2	85 c0		 test	 eax, eax
  000d4	79 06		 jns	 SHORT $LN83@UpdateShow
  000d6	d8 05 00 00 00
	00		 fadd	 DWORD PTR __real@4f800000
$LN83@UpdateShow:

; 996  : 		int iCurYpos = m_iDefaultY - ( cos( (FLOAT_PI * FLOAT05 * m_ShowAniState.GetCurTime()  ) / m_ShowAniState.GetDelay() ) * iStartYPos );	

  000dc	de f9		 fdivp	 ST(1), ST(0)

; 997  : 		SetWndPos( m_iDefaultX, iCurYpos );

  000de	d9 5d fc	 fstp	 DWORD PTR tv571[ebp]
  000e1	d9 45 fc	 fld	 DWORD PTR tv571[ebp]
  000e4	89 55 fc	 mov	 DWORD PTR tv567[ebp], edx
  000e7	db 45 fc	 fild	 DWORD PTR tv567[ebp]
  000ea	85 d2		 test	 edx, edx
  000ec	79 06		 jns	 SHORT $LN84@UpdateShow
  000ee	d8 05 00 00 00
	00		 fadd	 DWORD PTR __real@4f800000
$LN84@UpdateShow:
  000f4	89 7d fc	 mov	 DWORD PTR tv564[ebp], edi
  000f7	db 45 fc	 fild	 DWORD PTR tv564[ebp]
  000fa	85 ff		 test	 edi, edi
  000fc	79 06		 jns	 SHORT $LN85@UpdateShow
  000fe	d8 05 00 00 00
	00		 fadd	 DWORD PTR __real@4f800000
$LN85@UpdateShow:

; 996  : 		int iCurYpos = m_iDefaultY - ( cos( (FLOAT_PI * FLOAT05 * m_ShowAniState.GetCurTime()  ) / m_ShowAniState.GetDelay() ) * iStartYPos );	

  00104	de f9		 fdivp	 ST(1), ST(0)

; 997  : 		SetWndPos( m_iDefaultX, iCurYpos );

  00106	8b 86 bc 01 00
	00		 mov	 eax, DWORD PTR [esi+444]
  0010c	d9 5d fc	 fstp	 DWORD PTR tv560[ebp]
  0010f	d8 4d fc	 fmul	 DWORD PTR tv560[ebp]
  00112	db 86 bc 01 00
	00		 fild	 DWORD PTR [esi+444]
  00118	85 c0		 test	 eax, eax
  0011a	79 06		 jns	 SHORT $LN86@UpdateShow
  0011c	d8 05 00 00 00
	00		 fadd	 DWORD PTR __real@4f800000
$LN86@UpdateShow:

; 996  : 		int iCurYpos = m_iDefaultY - ( cos( (FLOAT_PI * FLOAT05 * m_ShowAniState.GetCurTime()  ) / m_ShowAniState.GetDelay() ) * iStartYPos );	

  00122	de c9		 fmulp	 ST(1), ST(0)

; 997  : 		SetWndPos( m_iDefaultX, iCurYpos );

  00124	da b6 c0 01 00
	00		 fidiv	 DWORD PTR [esi+448]
  0012a	d9 5d fc	 fstp	 DWORD PTR tv552[ebp]
  0012d	d9 45 fc	 fld	 DWORD PTR tv552[ebp]
  00130	d9 c9		 fxch	 ST(1)
  00132	dd 5d f0	 fstp	 QWORD PTR tv304[ebp]
  00135	e8 00 00 00 00	 call	 __CIcos
  0013a	d9 5d fc	 fstp	 DWORD PTR tv546[ebp]
  0013d	d9 45 fc	 fld	 DWORD PTR tv546[ebp]
  00140	da 4d f8	 fimul	 DWORD PTR _iStartYPos$526461[ebp]
  00143	dc 6d f0	 fsubr	 QWORD PTR tv304[ebp]
$LN97@UpdateShow:
  00146	e8 00 00 00 00	 call	 __ftol2_sse
  0014b	50		 push	 eax
  0014c	ff b6 e0 01 00
	00		 push	 DWORD PTR [esi+480]
  00152	8b ce		 mov	 ecx, esi
  00154	ff 15 00 00 00
	00		 call	 DWORD PTR __imp_?SetWndPos@ioWnd@@QAEXHH@Z
$LN98@UpdateShow:

; 998  : 		return true;

  0015a	b0 01		 mov	 al, 1
  0015c	e9 a3 01 00 00	 jmp	 $LN11@UpdateShow
$LN7@UpdateShow:

; 999  : 	}
; 1000 : 	else if( m_ShowAniState.GetCurState() == SAT_DOWN )

  00161	83 f8 04	 cmp	 eax, 4
  00164	0f 85 b2 00 00
	00		 jne	 $LN5@UpdateShow

; 1001 : 	{
; 1002 : 		enum { MAX_OFFSET_YPOS = 11 };
; 1003 : 		int iCurYpos = m_iDefaultY - ( sin( (FLOAT_PI * FLOAT05 * m_ShowAniState.GetCurTime()  ) / m_ShowAniState.GetDelay() ) * MAX_OFFSET_YPOS );	

  0016a	b8 4e e6 40 bb	 mov	 eax, -1153374642	; bb40e64eH
  0016f	8b c8		 mov	 ecx, eax
  00171	b8 00 ca 9a 3b	 mov	 eax, 1000000000		; 3b9aca00H
  00176	8b d0		 mov	 edx, eax
  00178	b8 05 00 00 00	 mov	 eax, 5
  0017d	8b f8		 mov	 edi, eax
  0017f	b8 0a 00 00 00	 mov	 eax, 10			; 0000000aH

; 1004 : 		SetWndPos( m_iDefaultX, iCurYpos );

  00184	db 86 e4 01 00
	00		 fild	 DWORD PTR [esi+484]
  0018a	89 7d f8	 mov	 DWORD PTR tv529[ebp], edi
  0018d	db 45 f8	 fild	 DWORD PTR tv529[ebp]
  00190	85 ff		 test	 edi, edi
  00192	79 06		 jns	 SHORT $LN87@UpdateShow
  00194	d8 05 00 00 00
	00		 fadd	 DWORD PTR __real@4f800000
$LN87@UpdateShow:
  0019a	89 45 f8	 mov	 DWORD PTR tv525[ebp], eax
  0019d	db 45 f8	 fild	 DWORD PTR tv525[ebp]
  001a0	85 c0		 test	 eax, eax
  001a2	79 06		 jns	 SHORT $LN88@UpdateShow
  001a4	d8 05 00 00 00
	00		 fadd	 DWORD PTR __real@4f800000
$LN88@UpdateShow:

; 1001 : 	{
; 1002 : 		enum { MAX_OFFSET_YPOS = 11 };
; 1003 : 		int iCurYpos = m_iDefaultY - ( sin( (FLOAT_PI * FLOAT05 * m_ShowAniState.GetCurTime()  ) / m_ShowAniState.GetDelay() ) * MAX_OFFSET_YPOS );	

  001aa	de f9		 fdivp	 ST(1), ST(0)

; 1004 : 		SetWndPos( m_iDefaultX, iCurYpos );

  001ac	d9 5d f8	 fstp	 DWORD PTR tv521[ebp]
  001af	d9 45 f8	 fld	 DWORD PTR tv521[ebp]
  001b2	89 4d f8	 mov	 DWORD PTR tv517[ebp], ecx
  001b5	db 45 f8	 fild	 DWORD PTR tv517[ebp]
  001b8	85 c9		 test	 ecx, ecx
  001ba	79 06		 jns	 SHORT $LN89@UpdateShow
  001bc	d8 05 00 00 00
	00		 fadd	 DWORD PTR __real@4f800000
$LN89@UpdateShow:
  001c2	89 55 f8	 mov	 DWORD PTR tv514[ebp], edx
  001c5	db 45 f8	 fild	 DWORD PTR tv514[ebp]
  001c8	85 d2		 test	 edx, edx
  001ca	79 06		 jns	 SHORT $LN90@UpdateShow
  001cc	d8 05 00 00 00
	00		 fadd	 DWORD PTR __real@4f800000
$LN90@UpdateShow:

; 1001 : 	{
; 1002 : 		enum { MAX_OFFSET_YPOS = 11 };
; 1003 : 		int iCurYpos = m_iDefaultY - ( sin( (FLOAT_PI * FLOAT05 * m_ShowAniState.GetCurTime()  ) / m_ShowAniState.GetDelay() ) * MAX_OFFSET_YPOS );	

  001d2	de f9		 fdivp	 ST(1), ST(0)

; 1004 : 		SetWndPos( m_iDefaultX, iCurYpos );

  001d4	8b 86 bc 01 00
	00		 mov	 eax, DWORD PTR [esi+444]
  001da	d9 5d f8	 fstp	 DWORD PTR tv510[ebp]
  001dd	d8 4d f8	 fmul	 DWORD PTR tv510[ebp]
  001e0	db 86 bc 01 00
	00		 fild	 DWORD PTR [esi+444]
  001e6	85 c0		 test	 eax, eax
  001e8	79 06		 jns	 SHORT $LN91@UpdateShow
  001ea	d8 05 00 00 00
	00		 fadd	 DWORD PTR __real@4f800000
$LN91@UpdateShow:

; 1001 : 	{
; 1002 : 		enum { MAX_OFFSET_YPOS = 11 };
; 1003 : 		int iCurYpos = m_iDefaultY - ( sin( (FLOAT_PI * FLOAT05 * m_ShowAniState.GetCurTime()  ) / m_ShowAniState.GetDelay() ) * MAX_OFFSET_YPOS );	

  001f0	de c9		 fmulp	 ST(1), ST(0)

; 1004 : 		SetWndPos( m_iDefaultX, iCurYpos );

  001f2	da b6 c0 01 00
	00		 fidiv	 DWORD PTR [esi+448]
  001f8	d9 5d f8	 fstp	 DWORD PTR tv502[ebp]
  001fb	d9 45 f8	 fld	 DWORD PTR tv502[ebp]
  001fe	d9 c9		 fxch	 ST(1)
  00200	dd 5d f0	 fstp	 QWORD PTR tv302[ebp]
  00203	e8 00 00 00 00	 call	 __CIsin
  00208	d9 5d f8	 fstp	 DWORD PTR tv495[ebp]
  0020b	d9 45 f8	 fld	 DWORD PTR tv495[ebp]
  0020e	dc 0d 00 00 00
	00		 fmul	 QWORD PTR __real@4026000000000000
  00214	dc 6d f0	 fsubr	 QWORD PTR tv302[ebp]

; 1005 : 		return true;

  00217	e9 2a ff ff ff	 jmp	 $LN97@UpdateShow
$LN5@UpdateShow:

; 1006 : 	}
; 1007 : 	else if( m_ShowAniState.GetCurState() == SAT_UP_STOP )

  0021c	83 f8 05	 cmp	 eax, 5
  0021f	0f 85 b2 00 00
	00		 jne	 $LN3@UpdateShow

; 1008 : 	{
; 1009 : 		enum { MAX_OFFSET_YPOS = 11 };
; 1010 : 		int iCurYpos = m_iDefaultY - ( cos( (FLOAT_PI * FLOAT05 * m_ShowAniState.GetCurTime()  ) / m_ShowAniState.GetDelay() ) * MAX_OFFSET_YPOS );	

  00225	b8 4e e6 40 bb	 mov	 eax, -1153374642	; bb40e64eH
  0022a	8b c8		 mov	 ecx, eax
  0022c	b8 00 ca 9a 3b	 mov	 eax, 1000000000		; 3b9aca00H
  00231	8b d0		 mov	 edx, eax
  00233	b8 05 00 00 00	 mov	 eax, 5
  00238	8b f8		 mov	 edi, eax
  0023a	b8 0a 00 00 00	 mov	 eax, 10			; 0000000aH

; 1011 : 		SetWndPos( m_iDefaultX, iCurYpos );

  0023f	db 86 e4 01 00
	00		 fild	 DWORD PTR [esi+484]
  00245	89 7d f8	 mov	 DWORD PTR tv430[ebp], edi
  00248	db 45 f8	 fild	 DWORD PTR tv430[ebp]
  0024b	85 ff		 test	 edi, edi
  0024d	79 06		 jns	 SHORT $LN92@UpdateShow
  0024f	d8 05 00 00 00
	00		 fadd	 DWORD PTR __real@4f800000
$LN92@UpdateShow:
  00255	89 45 f8	 mov	 DWORD PTR tv426[ebp], eax
  00258	db 45 f8	 fild	 DWORD PTR tv426[ebp]
  0025b	85 c0		 test	 eax, eax
  0025d	79 06		 jns	 SHORT $LN93@UpdateShow
  0025f	d8 05 00 00 00
	00		 fadd	 DWORD PTR __real@4f800000
$LN93@UpdateShow:

; 1008 : 	{
; 1009 : 		enum { MAX_OFFSET_YPOS = 11 };
; 1010 : 		int iCurYpos = m_iDefaultY - ( cos( (FLOAT_PI * FLOAT05 * m_ShowAniState.GetCurTime()  ) / m_ShowAniState.GetDelay() ) * MAX_OFFSET_YPOS );	

  00265	de f9		 fdivp	 ST(1), ST(0)

; 1011 : 		SetWndPos( m_iDefaultX, iCurYpos );

  00267	d9 5d f8	 fstp	 DWORD PTR tv421[ebp]
  0026a	d9 45 f8	 fld	 DWORD PTR tv421[ebp]
  0026d	89 4d f8	 mov	 DWORD PTR tv417[ebp], ecx
  00270	db 45 f8	 fild	 DWORD PTR tv417[ebp]
  00273	85 c9		 test	 ecx, ecx
  00275	79 06		 jns	 SHORT $LN94@UpdateShow
  00277	d8 05 00 00 00
	00		 fadd	 DWORD PTR __real@4f800000
$LN94@UpdateShow:
  0027d	89 55 f8	 mov	 DWORD PTR tv382[ebp], edx
  00280	db 45 f8	 fild	 DWORD PTR tv382[ebp]
  00283	85 d2		 test	 edx, edx
  00285	79 06		 jns	 SHORT $LN95@UpdateShow
  00287	d8 05 00 00 00
	00		 fadd	 DWORD PTR __real@4f800000
$LN95@UpdateShow:

; 1008 : 	{
; 1009 : 		enum { MAX_OFFSET_YPOS = 11 };
; 1010 : 		int iCurYpos = m_iDefaultY - ( cos( (FLOAT_PI * FLOAT05 * m_ShowAniState.GetCurTime()  ) / m_ShowAniState.GetDelay() ) * MAX_OFFSET_YPOS );	

  0028d	de f9		 fdivp	 ST(1), ST(0)

; 1011 : 		SetWndPos( m_iDefaultX, iCurYpos );

  0028f	8b 86 bc 01 00
	00		 mov	 eax, DWORD PTR [esi+444]
  00295	d9 5d f8	 fstp	 DWORD PTR tv378[ebp]
  00298	d8 4d f8	 fmul	 DWORD PTR tv378[ebp]
  0029b	db 86 bc 01 00
	00		 fild	 DWORD PTR [esi+444]
  002a1	85 c0		 test	 eax, eax
  002a3	79 06		 jns	 SHORT $LN96@UpdateShow
  002a5	d8 05 00 00 00
	00		 fadd	 DWORD PTR __real@4f800000
$LN96@UpdateShow:

; 1008 : 	{
; 1009 : 		enum { MAX_OFFSET_YPOS = 11 };
; 1010 : 		int iCurYpos = m_iDefaultY - ( cos( (FLOAT_PI * FLOAT05 * m_ShowAniState.GetCurTime()  ) / m_ShowAniState.GetDelay() ) * MAX_OFFSET_YPOS );	

  002ab	de c9		 fmulp	 ST(1), ST(0)

; 1011 : 		SetWndPos( m_iDefaultX, iCurYpos );

  002ad	da b6 c0 01 00
	00		 fidiv	 DWORD PTR [esi+448]
  002b3	d9 5d f8	 fstp	 DWORD PTR tv368[ebp]
  002b6	d9 45 f8	 fld	 DWORD PTR tv368[ebp]
  002b9	d9 c9		 fxch	 ST(1)
  002bb	dd 5d f0	 fstp	 QWORD PTR tv295[ebp]
  002be	e8 00 00 00 00	 call	 __CIcos
  002c3	d9 5d f8	 fstp	 DWORD PTR tv362[ebp]
  002c6	d9 45 f8	 fld	 DWORD PTR tv362[ebp]
  002c9	dc 0d 00 00 00
	00		 fmul	 QWORD PTR __real@4026000000000000
  002cf	dc 6d f0	 fsubr	 QWORD PTR tv295[ebp]

; 1012 : 		return true;

  002d2	e9 6f fe ff ff	 jmp	 $LN97@UpdateShow
$LN3@UpdateShow:

; 1013 : 	}
; 1014 : 	else if( m_ShowAniState.GetCurState() == SAT_STOP )

  002d7	83 f8 06	 cmp	 eax, 6
  002da	75 26		 jne	 SHORT $LN1@UpdateShow

; 1015 : 	{
; 1016 : 		SetWndPos( m_iDefaultX, m_iDefaultY );

  002dc	ff b6 e4 01 00
	00		 push	 DWORD PTR [esi+484]
  002e2	8b ce		 mov	 ecx, esi
  002e4	ff b6 e0 01 00
	00		 push	 DWORD PTR [esi+480]
  002ea	ff 15 00 00 00
	00		 call	 DWORD PTR __imp_?SetWndPos@ioWnd@@QAEXHH@Z

; 1017 : 		m_ShowAniState.ChangeState( SAT_END );

  002f0	6a 07		 push	 7
  002f2	8d 8e b0 01 00
	00		 lea	 ecx, DWORD PTR [esi+432]
  002f8	e8 00 00 00 00	 call	 ?ChangeState@FSMStateMgr@@QAEHH@Z ; FSMStateMgr::ChangeState

; 1018 : 		return true;

  002fd	e9 58 fe ff ff	 jmp	 $LN98@UpdateShow
$LN1@UpdateShow:

; 1019 : 	}
; 1020 : 
; 1021 : 	return false;

  00302	32 c0		 xor	 al, al
$LN11@UpdateShow:
  00304	5f		 pop	 edi
  00305	5e		 pop	 esi
  00306	5b		 pop	 ebx

; 1022 : }

  00307	c9		 leave
  00308	c3		 ret	 0
?UpdateShowAni@TowerDefUserGaugeWnd@@IAE_NXZ ENDP	; TowerDefUserGaugeWnd::UpdateShowAni
_TEXT	ENDS
PUBLIC	?GetCurShowAniState@TowerDefUserGaugeWnd@@QAEHXZ ; TowerDefUserGaugeWnd::GetCurShowAniState
; Function compile flags: /Ogsp
;	COMDAT ?GetCurShowAniState@TowerDefUserGaugeWnd@@QAEHXZ
_TEXT	SEGMENT
?GetCurShowAniState@TowerDefUserGaugeWnd@@QAEHXZ PROC	; TowerDefUserGaugeWnd::GetCurShowAniState, COMDAT
; _this$ = ecx

; 1026 : 	return m_ShowAniState.GetCurState();

  00000	8b 81 b4 01 00
	00		 mov	 eax, DWORD PTR [ecx+436]

; 1027 : }

  00006	c3		 ret	 0
?GetCurShowAniState@TowerDefUserGaugeWnd@@QAEHXZ ENDP	; TowerDefUserGaugeWnd::GetCurShowAniState
_TEXT	ENDS
PUBLIC	??0ConsumptionWnd@@QAE@XZ			; ConsumptionWnd::ConsumptionWnd
;	COMDAT xdata$x
xdata$x	SEGMENT
__unwindtable$??0ConsumptionWnd@@QAE@XZ DD 0ffffffffH
	DD	FLAT:__unwindfunclet$??0ConsumptionWnd@@QAE@XZ$0
	DD	00H
	DD	FLAT:__unwindfunclet$??0ConsumptionWnd@@QAE@XZ$1
__ehfuncinfo$??0ConsumptionWnd@@QAE@XZ DD 019930522H
	DD	02H
	DD	FLAT:__unwindtable$??0ConsumptionWnd@@QAE@XZ
	DD	2 DUP(00H)
	DD	2 DUP(00H)
	DD	00H
	DD	01H
; Function compile flags: /Ogsp
xdata$x	ENDS
;	COMDAT ??0ConsumptionWnd@@QAE@XZ
_TEXT	SEGMENT
_this$ = -16						; size = 4
__$EHRec$ = -12						; size = 12
??0ConsumptionWnd@@QAE@XZ PROC				; ConsumptionWnd::ConsumptionWnd, COMDAT
; _this$ = ecx

; 1064 : {

  00000	6a 04		 push	 4
  00002	b8 00 00 00 00	 mov	 eax, __ehhandler$??0ConsumptionWnd@@QAE@XZ
  00007	e8 00 00 00 00	 call	 __EH_prolog3
  0000c	8b f1		 mov	 esi, ecx
  0000e	89 75 f0	 mov	 DWORD PTR _this$[ebp], esi
  00011	ff 15 00 00 00
	00		 call	 DWORD PTR __imp_??0ioMovingWnd@@QAE@XZ
  00017	33 ff		 xor	 edi, edi
  00019	8d 8e 90 01 00
	00		 lea	 ecx, DWORD PTR [esi+400]
  0001f	89 7d fc	 mov	 DWORD PTR __$EHRec$[ebp+8], edi
  00022	c7 06 00 00 00
	00		 mov	 DWORD PTR [esi], OFFSET ??_7ConsumptionWnd@@6B@
  00028	e8 00 00 00 00	 call	 ??0FSMStateMgr@@QAE@XZ	; FSMStateMgr::FSMStateMgr

; 1065 : 	m_iBlindOffSetY   = 0;
; 1066 : 	m_iPreBlindOffSetY= 0;
; 1067 : 	m_iDefaultX       = 0;
; 1068 : 	m_iDefaultY       = 0;
; 1069 : 
; 1070 : 	InitShowAniState();

  0002d	8b ce		 mov	 ecx, esi
  0002f	c6 45 fc 01	 mov	 BYTE PTR __$EHRec$[ebp+8], 1
  00033	89 be b8 01 00
	00		 mov	 DWORD PTR [esi+440], edi
  00039	89 be bc 01 00
	00		 mov	 DWORD PTR [esi+444], edi
  0003f	89 be c0 01 00
	00		 mov	 DWORD PTR [esi+448], edi
  00045	89 be c4 01 00
	00		 mov	 DWORD PTR [esi+452], edi
  0004b	e8 00 00 00 00	 call	 ?InitShowAniState@ConsumptionWnd@@IAEXXZ ; ConsumptionWnd::InitShowAniState

; 1071 : }

  00050	8b c6		 mov	 eax, esi
  00052	e8 00 00 00 00	 call	 __EH_epilog3
  00057	c3		 ret	 0
_TEXT	ENDS
;	COMDAT text$x
text$x	SEGMENT
__unwindfunclet$??0ConsumptionWnd@@QAE@XZ$0:
  00000	8b 4d f0	 mov	 ecx, DWORD PTR _this$[ebp]
  00003	ff 25 00 00 00
	00		 jmp	 DWORD PTR __imp_??1ioMovingWnd@@UAE@XZ
__unwindfunclet$??0ConsumptionWnd@@QAE@XZ$1:
  00009	8b 4d f0	 mov	 ecx, DWORD PTR _this$[ebp]
  0000c	81 c1 90 01 00
	00		 add	 ecx, 400		; 00000190H
  00012	e9 00 00 00 00	 jmp	 ??1FSMStateMgr@@UAE@XZ	; FSMStateMgr::~FSMStateMgr
__ehhandler$??0ConsumptionWnd@@QAE@XZ:
  00017	8b 54 24 08	 mov	 edx, DWORD PTR [esp+8]
  0001b	8d 42 0c	 lea	 eax, DWORD PTR [edx+12]
  0001e	8b 4a ec	 mov	 ecx, DWORD PTR [edx-20]
  00021	33 c8		 xor	 ecx, eax
  00023	e8 00 00 00 00	 call	 @__security_check_cookie@4
  00028	b8 00 00 00 00	 mov	 eax, OFFSET __ehfuncinfo$??0ConsumptionWnd@@QAE@XZ
  0002d	e9 00 00 00 00	 jmp	 ___CxxFrameHandler3
text$x	ENDS
??0ConsumptionWnd@@QAE@XZ ENDP				; ConsumptionWnd::ConsumptionWnd
; Function compile flags: /Ogsp
;	COMDAT ??_GConsumptionWnd@@UAEPAXI@Z
_TEXT	SEGMENT
___flags$ = 8						; size = 4
??_GConsumptionWnd@@UAEPAXI@Z PROC			; ConsumptionWnd::`scalar deleting destructor', COMDAT
; _this$ = ecx
  00000	55		 push	 ebp
  00001	8b ec		 mov	 ebp, esp
  00003	56		 push	 esi
  00004	8b f1		 mov	 esi, ecx
  00006	e8 00 00 00 00	 call	 ??1ConsumptionWnd@@UAE@XZ ; ConsumptionWnd::~ConsumptionWnd
  0000b	f6 45 08 01	 test	 BYTE PTR ___flags$[ebp], 1
  0000f	74 07		 je	 SHORT $LN1@scalar@5
  00011	56		 push	 esi
  00012	e8 00 00 00 00	 call	 ??3@YAXPAX@Z		; operator delete
  00017	59		 pop	 ecx
$LN1@scalar@5:
  00018	8b c6		 mov	 eax, esi
  0001a	5e		 pop	 esi
  0001b	5d		 pop	 ebp
  0001c	c2 04 00	 ret	 4
??_GConsumptionWnd@@UAEPAXI@Z ENDP			; ConsumptionWnd::`scalar deleting destructor'
; Function compile flags: /Ogsp
_TEXT	ENDS
;	COMDAT ?OnRender@ConsumptionWnd@@MAEXXZ
_TEXT	SEGMENT
?OnRender@ConsumptionWnd@@MAEXXZ PROC			; ConsumptionWnd::OnRender, COMDAT
; _this$ = ecx

; 1087 : 	if( m_ShowAniState.GetCurState() == SAT_DELAY || 
; 1088 : 		m_ShowAniState.GetCurState() == SAT_START_ROUND ) 

  00000	8b 81 94 01 00
	00		 mov	 eax, DWORD PTR [ecx+404]
  00006	83 f8 02	 cmp	 eax, 2
  00009	74 0b		 je	 SHORT $LN1@OnRender@2
  0000b	83 f8 01	 cmp	 eax, 1
  0000e	74 06		 je	 SHORT $LN1@OnRender@2

; 1089 : 		return;
; 1090 : 
; 1091 : 	ioWnd::OnRender();

  00010	ff 25 00 00 00
	00		 jmp	 DWORD PTR __imp_?OnRender@ioWnd@@MAEXXZ
$LN1@OnRender@2:

; 1092 : }

  00016	c3		 ret	 0
?OnRender@ConsumptionWnd@@MAEXXZ ENDP			; ConsumptionWnd::OnRender
_TEXT	ENDS
PUBLIC	?UpdateShowAni@ConsumptionWnd@@IAE_NXZ		; ConsumptionWnd::UpdateShowAni
; Function compile flags: /Ogsp
;	COMDAT ?UpdateShowAni@ConsumptionWnd@@IAE_NXZ
_TEXT	SEGMENT
tv304 = -16						; size = 8
tv302 = -16						; size = 8
tv295 = -16						; size = 8
tv529 = -8						; size = 4
tv525 = -8						; size = 4
tv521 = -8						; size = 4
tv517 = -8						; size = 4
tv514 = -8						; size = 4
tv510 = -8						; size = 4
tv506 = -8						; size = 4
tv502 = -8						; size = 4
tv495 = -8						; size = 4
tv430 = -8						; size = 4
tv426 = -8						; size = 4
tv421 = -8						; size = 4
tv417 = -8						; size = 4
tv382 = -8						; size = 4
tv378 = -8						; size = 4
tv373 = -8						; size = 4
tv368 = -8						; size = 4
tv362 = -8						; size = 4
_iStartYPos$526638 = -8					; size = 4
tv580 = -4						; size = 4
tv575 = -4						; size = 4
tv571 = -4						; size = 4
tv567 = -4						; size = 4
tv564 = -4						; size = 4
tv560 = -4						; size = 4
tv556 = -4						; size = 4
tv552 = -4						; size = 4
tv546 = -4						; size = 4
?UpdateShowAni@ConsumptionWnd@@IAE_NXZ PROC		; ConsumptionWnd::UpdateShowAni, COMDAT
; _this$ = ecx

; 1236 : {

  00000	55		 push	 ebp
  00001	8b ec		 mov	 ebp, esp
  00003	83 ec 10	 sub	 esp, 16			; 00000010H
  00006	53		 push	 ebx
  00007	56		 push	 esi
  00008	57		 push	 edi
  00009	8b f1		 mov	 esi, ecx

; 1237 : 	if( !g_GUIMgr.IsSkipUIByBlind() && m_ShowAniState.GetCurState() == SAT_NONE )

  0000b	e8 00 00 00 00	 call	 ?GetSingleton@ioSP2GUIManager@@SAAAV1@XZ ; ioSP2GUIManager::GetSingleton
  00010	33 db		 xor	 ebx, ebx
  00012	38 98 e0 04 00
	00		 cmp	 BYTE PTR [eax+1248], bl
  00018	75 15		 jne	 SHORT $LN81@UpdateShow@2
  0001a	39 9e 94 01 00
	00		 cmp	 DWORD PTR [esi+404], ebx
  00020	75 0d		 jne	 SHORT $LN81@UpdateShow@2

; 1238 : 		m_ShowAniState.ChangeState( SAT_END );

  00022	6a 07		 push	 7
  00024	8d 8e 90 01 00
	00		 lea	 ecx, DWORD PTR [esi+400]
  0002a	e8 00 00 00 00	 call	 ?ChangeState@FSMStateMgr@@QAEHH@Z ; FSMStateMgr::ChangeState
$LN81@UpdateShow@2:

; 1239 : 
; 1240 : 	if( !g_GUIMgr.IsSkipUIByBlind() && m_ShowAniState.GetCurState() == SAT_START_ROUND )

  0002f	e8 00 00 00 00	 call	 ?GetSingleton@ioSP2GUIManager@@SAAAV1@XZ ; ioSP2GUIManager::GetSingleton
  00034	38 98 e0 04 00
	00		 cmp	 BYTE PTR [eax+1248], bl
  0003a	75 16		 jne	 SHORT $LN9@UpdateShow@2
  0003c	83 be 94 01 00
	00 01		 cmp	 DWORD PTR [esi+404], 1
  00043	75 0d		 jne	 SHORT $LN9@UpdateShow@2

; 1241 : 		m_ShowAniState.ChangeState( SAT_DELAY );

  00045	6a 02		 push	 2
  00047	8d 8e 90 01 00
	00		 lea	 ecx, DWORD PTR [esi+400]
  0004d	e8 00 00 00 00	 call	 ?ChangeState@FSMStateMgr@@QAEHH@Z ; FSMStateMgr::ChangeState
$LN9@UpdateShow@2:

; 1242 : 
; 1243 : 	if( g_GUIMgr.IsSkipUIByBlind() && m_ShowAniState.GetCurState() == SAT_END )

  00052	e8 00 00 00 00	 call	 ?GetSingleton@ioSP2GUIManager@@SAAAV1@XZ ; ioSP2GUIManager::GetSingleton
  00057	38 98 e0 04 00
	00		 cmp	 BYTE PTR [eax+1248], bl
  0005d	74 15		 je	 SHORT $LN8@UpdateShow@2
  0005f	83 be 94 01 00
	00 07		 cmp	 DWORD PTR [esi+404], 7
  00066	75 0c		 jne	 SHORT $LN8@UpdateShow@2

; 1244 : 		m_ShowAniState.ChangeState( SAT_NONE );

  00068	53		 push	 ebx
  00069	8d 8e 90 01 00
	00		 lea	 ecx, DWORD PTR [esi+400]
  0006f	e8 00 00 00 00	 call	 ?ChangeState@FSMStateMgr@@QAEHH@Z ; FSMStateMgr::ChangeState
$LN8@UpdateShow@2:

; 1245 : 
; 1246 : 	m_ShowAniState.UpdateTime();

  00074	8d 8e 90 01 00
	00		 lea	 ecx, DWORD PTR [esi+400]
  0007a	e8 00 00 00 00	 call	 ?UpdateTime@FSMStateMgr@@QAEXXZ ; FSMStateMgr::UpdateTime

; 1247 : 
; 1248 : 	if( m_ShowAniState.GetCurState() == SAT_UP )

  0007f	8b 86 94 01 00
	00		 mov	 eax, DWORD PTR [esi+404]
  00085	83 f8 03	 cmp	 eax, 3
  00088	0f 85 d3 00 00
	00		 jne	 $LN7@UpdateShow@2

; 1249 : 	{
; 1250 : 		enum { MINUS_Y_POS = 140 };
; 1251 : 		int iStartYPos = MINUS_Y_POS + m_iDefaultY;

  0008e	8b 86 c4 01 00
	00		 mov	 eax, DWORD PTR [esi+452]
  00094	05 8c 00 00 00	 add	 eax, 140		; 0000008cH
  00099	89 45 f8	 mov	 DWORD PTR _iStartYPos$526638[ebp], eax

; 1252 : 		int iCurYpos = m_iDefaultY - ( cos( (FLOAT_PI * FLOAT05 * m_ShowAniState.GetCurTime()  ) / m_ShowAniState.GetDelay() ) * iStartYPos );	

  0009c	b8 4e e6 40 bb	 mov	 eax, -1153374642	; bb40e64eH
  000a1	8b d0		 mov	 edx, eax
  000a3	b8 00 ca 9a 3b	 mov	 eax, 1000000000		; 3b9aca00H
  000a8	8b f8		 mov	 edi, eax
  000aa	b8 05 00 00 00	 mov	 eax, 5
  000af	8b d8		 mov	 ebx, eax
  000b1	b8 0a 00 00 00	 mov	 eax, 10			; 0000000aH

; 1253 : 		SetWndPos( m_iDefaultX, iCurYpos );

  000b6	db 86 c4 01 00
	00		 fild	 DWORD PTR [esi+452]
  000bc	89 5d fc	 mov	 DWORD PTR tv580[ebp], ebx
  000bf	db 45 fc	 fild	 DWORD PTR tv580[ebp]
  000c2	85 db		 test	 ebx, ebx
  000c4	79 06		 jns	 SHORT $LN82@UpdateShow@2
  000c6	d8 05 00 00 00
	00		 fadd	 DWORD PTR __real@4f800000
$LN82@UpdateShow@2:
  000cc	89 45 fc	 mov	 DWORD PTR tv575[ebp], eax
  000cf	db 45 fc	 fild	 DWORD PTR tv575[ebp]
  000d2	85 c0		 test	 eax, eax
  000d4	79 06		 jns	 SHORT $LN83@UpdateShow@2
  000d6	d8 05 00 00 00
	00		 fadd	 DWORD PTR __real@4f800000
$LN83@UpdateShow@2:

; 1252 : 		int iCurYpos = m_iDefaultY - ( cos( (FLOAT_PI * FLOAT05 * m_ShowAniState.GetCurTime()  ) / m_ShowAniState.GetDelay() ) * iStartYPos );	

  000dc	de f9		 fdivp	 ST(1), ST(0)

; 1253 : 		SetWndPos( m_iDefaultX, iCurYpos );

  000de	d9 5d fc	 fstp	 DWORD PTR tv571[ebp]
  000e1	d9 45 fc	 fld	 DWORD PTR tv571[ebp]
  000e4	89 55 fc	 mov	 DWORD PTR tv567[ebp], edx
  000e7	db 45 fc	 fild	 DWORD PTR tv567[ebp]
  000ea	85 d2		 test	 edx, edx
  000ec	79 06		 jns	 SHORT $LN84@UpdateShow@2
  000ee	d8 05 00 00 00
	00		 fadd	 DWORD PTR __real@4f800000
$LN84@UpdateShow@2:
  000f4	89 7d fc	 mov	 DWORD PTR tv564[ebp], edi
  000f7	db 45 fc	 fild	 DWORD PTR tv564[ebp]
  000fa	85 ff		 test	 edi, edi
  000fc	79 06		 jns	 SHORT $LN85@UpdateShow@2
  000fe	d8 05 00 00 00
	00		 fadd	 DWORD PTR __real@4f800000
$LN85@UpdateShow@2:

; 1252 : 		int iCurYpos = m_iDefaultY - ( cos( (FLOAT_PI * FLOAT05 * m_ShowAniState.GetCurTime()  ) / m_ShowAniState.GetDelay() ) * iStartYPos );	

  00104	de f9		 fdivp	 ST(1), ST(0)

; 1253 : 		SetWndPos( m_iDefaultX, iCurYpos );

  00106	8b 86 9c 01 00
	00		 mov	 eax, DWORD PTR [esi+412]
  0010c	d9 5d fc	 fstp	 DWORD PTR tv560[ebp]
  0010f	d8 4d fc	 fmul	 DWORD PTR tv560[ebp]
  00112	db 86 9c 01 00
	00		 fild	 DWORD PTR [esi+412]
  00118	85 c0		 test	 eax, eax
  0011a	79 06		 jns	 SHORT $LN86@UpdateShow@2
  0011c	d8 05 00 00 00
	00		 fadd	 DWORD PTR __real@4f800000
$LN86@UpdateShow@2:

; 1252 : 		int iCurYpos = m_iDefaultY - ( cos( (FLOAT_PI * FLOAT05 * m_ShowAniState.GetCurTime()  ) / m_ShowAniState.GetDelay() ) * iStartYPos );	

  00122	de c9		 fmulp	 ST(1), ST(0)

; 1253 : 		SetWndPos( m_iDefaultX, iCurYpos );

  00124	da b6 a0 01 00
	00		 fidiv	 DWORD PTR [esi+416]
  0012a	d9 5d fc	 fstp	 DWORD PTR tv552[ebp]
  0012d	d9 45 fc	 fld	 DWORD PTR tv552[ebp]
  00130	d9 c9		 fxch	 ST(1)
  00132	dd 5d f0	 fstp	 QWORD PTR tv304[ebp]
  00135	e8 00 00 00 00	 call	 __CIcos
  0013a	d9 5d fc	 fstp	 DWORD PTR tv546[ebp]
  0013d	d9 45 fc	 fld	 DWORD PTR tv546[ebp]
  00140	da 4d f8	 fimul	 DWORD PTR _iStartYPos$526638[ebp]
  00143	dc 6d f0	 fsubr	 QWORD PTR tv304[ebp]
$LN97@UpdateShow@2:
  00146	e8 00 00 00 00	 call	 __ftol2_sse
  0014b	50		 push	 eax
  0014c	ff b6 c0 01 00
	00		 push	 DWORD PTR [esi+448]
  00152	8b ce		 mov	 ecx, esi
  00154	ff 15 00 00 00
	00		 call	 DWORD PTR __imp_?SetWndPos@ioWnd@@QAEXHH@Z
$LN98@UpdateShow@2:

; 1254 : 		return true;

  0015a	b0 01		 mov	 al, 1
  0015c	e9 a3 01 00 00	 jmp	 $LN11@UpdateShow@2
$LN7@UpdateShow@2:

; 1255 : 	}
; 1256 : 	else if( m_ShowAniState.GetCurState() == SAT_DOWN )

  00161	83 f8 04	 cmp	 eax, 4
  00164	0f 85 b2 00 00
	00		 jne	 $LN5@UpdateShow@2

; 1257 : 	{
; 1258 : 		enum { MAX_OFFSET_YPOS = 11 };
; 1259 : 		int iCurYpos = m_iDefaultY - ( sin( (FLOAT_PI * FLOAT05 * m_ShowAniState.GetCurTime()  ) / m_ShowAniState.GetDelay() ) * MAX_OFFSET_YPOS );	

  0016a	b8 4e e6 40 bb	 mov	 eax, -1153374642	; bb40e64eH
  0016f	8b c8		 mov	 ecx, eax
  00171	b8 00 ca 9a 3b	 mov	 eax, 1000000000		; 3b9aca00H
  00176	8b d0		 mov	 edx, eax
  00178	b8 05 00 00 00	 mov	 eax, 5
  0017d	8b f8		 mov	 edi, eax
  0017f	b8 0a 00 00 00	 mov	 eax, 10			; 0000000aH

; 1260 : 		SetWndPos( m_iDefaultX, iCurYpos );

  00184	db 86 c4 01 00
	00		 fild	 DWORD PTR [esi+452]
  0018a	89 7d f8	 mov	 DWORD PTR tv529[ebp], edi
  0018d	db 45 f8	 fild	 DWORD PTR tv529[ebp]
  00190	85 ff		 test	 edi, edi
  00192	79 06		 jns	 SHORT $LN87@UpdateShow@2
  00194	d8 05 00 00 00
	00		 fadd	 DWORD PTR __real@4f800000
$LN87@UpdateShow@2:
  0019a	89 45 f8	 mov	 DWORD PTR tv525[ebp], eax
  0019d	db 45 f8	 fild	 DWORD PTR tv525[ebp]
  001a0	85 c0		 test	 eax, eax
  001a2	79 06		 jns	 SHORT $LN88@UpdateShow@2
  001a4	d8 05 00 00 00
	00		 fadd	 DWORD PTR __real@4f800000
$LN88@UpdateShow@2:

; 1257 : 	{
; 1258 : 		enum { MAX_OFFSET_YPOS = 11 };
; 1259 : 		int iCurYpos = m_iDefaultY - ( sin( (FLOAT_PI * FLOAT05 * m_ShowAniState.GetCurTime()  ) / m_ShowAniState.GetDelay() ) * MAX_OFFSET_YPOS );	

  001aa	de f9		 fdivp	 ST(1), ST(0)

; 1260 : 		SetWndPos( m_iDefaultX, iCurYpos );

  001ac	d9 5d f8	 fstp	 DWORD PTR tv521[ebp]
  001af	d9 45 f8	 fld	 DWORD PTR tv521[ebp]
  001b2	89 4d f8	 mov	 DWORD PTR tv517[ebp], ecx
  001b5	db 45 f8	 fild	 DWORD PTR tv517[ebp]
  001b8	85 c9		 test	 ecx, ecx
  001ba	79 06		 jns	 SHORT $LN89@UpdateShow@2
  001bc	d8 05 00 00 00
	00		 fadd	 DWORD PTR __real@4f800000
$LN89@UpdateShow@2:
  001c2	89 55 f8	 mov	 DWORD PTR tv514[ebp], edx
  001c5	db 45 f8	 fild	 DWORD PTR tv514[ebp]
  001c8	85 d2		 test	 edx, edx
  001ca	79 06		 jns	 SHORT $LN90@UpdateShow@2
  001cc	d8 05 00 00 00
	00		 fadd	 DWORD PTR __real@4f800000
$LN90@UpdateShow@2:

; 1257 : 	{
; 1258 : 		enum { MAX_OFFSET_YPOS = 11 };
; 1259 : 		int iCurYpos = m_iDefaultY - ( sin( (FLOAT_PI * FLOAT05 * m_ShowAniState.GetCurTime()  ) / m_ShowAniState.GetDelay() ) * MAX_OFFSET_YPOS );	

  001d2	de f9		 fdivp	 ST(1), ST(0)

; 1260 : 		SetWndPos( m_iDefaultX, iCurYpos );

  001d4	8b 86 9c 01 00
	00		 mov	 eax, DWORD PTR [esi+412]
  001da	d9 5d f8	 fstp	 DWORD PTR tv510[ebp]
  001dd	d8 4d f8	 fmul	 DWORD PTR tv510[ebp]
  001e0	db 86 9c 01 00
	00		 fild	 DWORD PTR [esi+412]
  001e6	85 c0		 test	 eax, eax
  001e8	79 06		 jns	 SHORT $LN91@UpdateShow@2
  001ea	d8 05 00 00 00
	00		 fadd	 DWORD PTR __real@4f800000
$LN91@UpdateShow@2:

; 1257 : 	{
; 1258 : 		enum { MAX_OFFSET_YPOS = 11 };
; 1259 : 		int iCurYpos = m_iDefaultY - ( sin( (FLOAT_PI * FLOAT05 * m_ShowAniState.GetCurTime()  ) / m_ShowAniState.GetDelay() ) * MAX_OFFSET_YPOS );	

  001f0	de c9		 fmulp	 ST(1), ST(0)

; 1260 : 		SetWndPos( m_iDefaultX, iCurYpos );

  001f2	da b6 a0 01 00
	00		 fidiv	 DWORD PTR [esi+416]
  001f8	d9 5d f8	 fstp	 DWORD PTR tv502[ebp]
  001fb	d9 45 f8	 fld	 DWORD PTR tv502[ebp]
  001fe	d9 c9		 fxch	 ST(1)
  00200	dd 5d f0	 fstp	 QWORD PTR tv302[ebp]
  00203	e8 00 00 00 00	 call	 __CIsin
  00208	d9 5d f8	 fstp	 DWORD PTR tv495[ebp]
  0020b	d9 45 f8	 fld	 DWORD PTR tv495[ebp]
  0020e	dc 0d 00 00 00
	00		 fmul	 QWORD PTR __real@4026000000000000
  00214	dc 6d f0	 fsubr	 QWORD PTR tv302[ebp]

; 1261 : 		return true;

  00217	e9 2a ff ff ff	 jmp	 $LN97@UpdateShow@2
$LN5@UpdateShow@2:

; 1262 : 	}
; 1263 : 	else if( m_ShowAniState.GetCurState() == SAT_UP_STOP )

  0021c	83 f8 05	 cmp	 eax, 5
  0021f	0f 85 b2 00 00
	00		 jne	 $LN3@UpdateShow@2

; 1264 : 	{
; 1265 : 		enum { MAX_OFFSET_YPOS = 11 };
; 1266 : 		int iCurYpos = m_iDefaultY - ( cos( (FLOAT_PI * FLOAT05 * m_ShowAniState.GetCurTime()  ) / m_ShowAniState.GetDelay() ) * MAX_OFFSET_YPOS );	

  00225	b8 4e e6 40 bb	 mov	 eax, -1153374642	; bb40e64eH
  0022a	8b c8		 mov	 ecx, eax
  0022c	b8 00 ca 9a 3b	 mov	 eax, 1000000000		; 3b9aca00H
  00231	8b d0		 mov	 edx, eax
  00233	b8 05 00 00 00	 mov	 eax, 5
  00238	8b f8		 mov	 edi, eax
  0023a	b8 0a 00 00 00	 mov	 eax, 10			; 0000000aH

; 1267 : 		SetWndPos( m_iDefaultX, iCurYpos );

  0023f	db 86 c4 01 00
	00		 fild	 DWORD PTR [esi+452]
  00245	89 7d f8	 mov	 DWORD PTR tv430[ebp], edi
  00248	db 45 f8	 fild	 DWORD PTR tv430[ebp]
  0024b	85 ff		 test	 edi, edi
  0024d	79 06		 jns	 SHORT $LN92@UpdateShow@2
  0024f	d8 05 00 00 00
	00		 fadd	 DWORD PTR __real@4f800000
$LN92@UpdateShow@2:
  00255	89 45 f8	 mov	 DWORD PTR tv426[ebp], eax
  00258	db 45 f8	 fild	 DWORD PTR tv426[ebp]
  0025b	85 c0		 test	 eax, eax
  0025d	79 06		 jns	 SHORT $LN93@UpdateShow@2
  0025f	d8 05 00 00 00
	00		 fadd	 DWORD PTR __real@4f800000
$LN93@UpdateShow@2:

; 1264 : 	{
; 1265 : 		enum { MAX_OFFSET_YPOS = 11 };
; 1266 : 		int iCurYpos = m_iDefaultY - ( cos( (FLOAT_PI * FLOAT05 * m_ShowAniState.GetCurTime()  ) / m_ShowAniState.GetDelay() ) * MAX_OFFSET_YPOS );	

  00265	de f9		 fdivp	 ST(1), ST(0)

; 1267 : 		SetWndPos( m_iDefaultX, iCurYpos );

  00267	d9 5d f8	 fstp	 DWORD PTR tv421[ebp]
  0026a	d9 45 f8	 fld	 DWORD PTR tv421[ebp]
  0026d	89 4d f8	 mov	 DWORD PTR tv417[ebp], ecx
  00270	db 45 f8	 fild	 DWORD PTR tv417[ebp]
  00273	85 c9		 test	 ecx, ecx
  00275	79 06		 jns	 SHORT $LN94@UpdateShow@2
  00277	d8 05 00 00 00
	00		 fadd	 DWORD PTR __real@4f800000
$LN94@UpdateShow@2:
  0027d	89 55 f8	 mov	 DWORD PTR tv382[ebp], edx
  00280	db 45 f8	 fild	 DWORD PTR tv382[ebp]
  00283	85 d2		 test	 edx, edx
  00285	79 06		 jns	 SHORT $LN95@UpdateShow@2
  00287	d8 05 00 00 00
	00		 fadd	 DWORD PTR __real@4f800000
$LN95@UpdateShow@2:

; 1264 : 	{
; 1265 : 		enum { MAX_OFFSET_YPOS = 11 };
; 1266 : 		int iCurYpos = m_iDefaultY - ( cos( (FLOAT_PI * FLOAT05 * m_ShowAniState.GetCurTime()  ) / m_ShowAniState.GetDelay() ) * MAX_OFFSET_YPOS );	

  0028d	de f9		 fdivp	 ST(1), ST(0)

; 1267 : 		SetWndPos( m_iDefaultX, iCurYpos );

  0028f	8b 86 9c 01 00
	00		 mov	 eax, DWORD PTR [esi+412]
  00295	d9 5d f8	 fstp	 DWORD PTR tv378[ebp]
  00298	d8 4d f8	 fmul	 DWORD PTR tv378[ebp]
  0029b	db 86 9c 01 00
	00		 fild	 DWORD PTR [esi+412]
  002a1	85 c0		 test	 eax, eax
  002a3	79 06		 jns	 SHORT $LN96@UpdateShow@2
  002a5	d8 05 00 00 00
	00		 fadd	 DWORD PTR __real@4f800000
$LN96@UpdateShow@2:

; 1264 : 	{
; 1265 : 		enum { MAX_OFFSET_YPOS = 11 };
; 1266 : 		int iCurYpos = m_iDefaultY - ( cos( (FLOAT_PI * FLOAT05 * m_ShowAniState.GetCurTime()  ) / m_ShowAniState.GetDelay() ) * MAX_OFFSET_YPOS );	

  002ab	de c9		 fmulp	 ST(1), ST(0)

; 1267 : 		SetWndPos( m_iDefaultX, iCurYpos );

  002ad	da b6 a0 01 00
	00		 fidiv	 DWORD PTR [esi+416]
  002b3	d9 5d f8	 fstp	 DWORD PTR tv368[ebp]
  002b6	d9 45 f8	 fld	 DWORD PTR tv368[ebp]
  002b9	d9 c9		 fxch	 ST(1)
  002bb	dd 5d f0	 fstp	 QWORD PTR tv295[ebp]
  002be	e8 00 00 00 00	 call	 __CIcos
  002c3	d9 5d f8	 fstp	 DWORD PTR tv362[ebp]
  002c6	d9 45 f8	 fld	 DWORD PTR tv362[ebp]
  002c9	dc 0d 00 00 00
	00		 fmul	 QWORD PTR __real@4026000000000000
  002cf	dc 6d f0	 fsubr	 QWORD PTR tv295[ebp]

; 1268 : 		return true;

  002d2	e9 6f fe ff ff	 jmp	 $LN97@UpdateShow@2
$LN3@UpdateShow@2:

; 1269 : 	}
; 1270 : 	else if( m_ShowAniState.GetCurState() == SAT_STOP )

  002d7	83 f8 06	 cmp	 eax, 6
  002da	75 26		 jne	 SHORT $LN1@UpdateShow@2

; 1271 : 	{
; 1272 : 		SetWndPos( m_iDefaultX, m_iDefaultY );

  002dc	ff b6 c4 01 00
	00		 push	 DWORD PTR [esi+452]
  002e2	8b ce		 mov	 ecx, esi
  002e4	ff b6 c0 01 00
	00		 push	 DWORD PTR [esi+448]
  002ea	ff 15 00 00 00
	00		 call	 DWORD PTR __imp_?SetWndPos@ioWnd@@QAEXHH@Z

; 1273 : 		m_ShowAniState.ChangeState( SAT_END );

  002f0	6a 07		 push	 7
  002f2	8d 8e 90 01 00
	00		 lea	 ecx, DWORD PTR [esi+400]
  002f8	e8 00 00 00 00	 call	 ?ChangeState@FSMStateMgr@@QAEHH@Z ; FSMStateMgr::ChangeState

; 1274 : 		return true;

  002fd	e9 58 fe ff ff	 jmp	 $LN98@UpdateShow@2
$LN1@UpdateShow@2:

; 1275 : 	}
; 1276 : 
; 1277 : 	return false;

  00302	32 c0		 xor	 al, al
$LN11@UpdateShow@2:
  00304	5f		 pop	 edi
  00305	5e		 pop	 esi
  00306	5b		 pop	 ebx

; 1278 : }

  00307	c9		 leave
  00308	c3		 ret	 0
?UpdateShowAni@ConsumptionWnd@@IAE_NXZ ENDP		; ConsumptionWnd::UpdateShowAni
_TEXT	ENDS
PUBLIC	?GetCurShowAniState@ConsumptionWnd@@QAEHXZ	; ConsumptionWnd::GetCurShowAniState
; Function compile flags: /Ogsp
;	COMDAT ?GetCurShowAniState@ConsumptionWnd@@QAEHXZ
_TEXT	SEGMENT
?GetCurShowAniState@ConsumptionWnd@@QAEHXZ PROC		; ConsumptionWnd::GetCurShowAniState, COMDAT
; _this$ = ecx

; 1282 : 	return m_ShowAniState.GetCurState();

  00000	8b 81 94 01 00
	00		 mov	 eax, DWORD PTR [ecx+404]

; 1283 : }

  00006	c3		 ret	 0
?GetCurShowAniState@ConsumptionWnd@@QAEHXZ ENDP		; ConsumptionWnd::GetCurShowAniState
; Function compile flags: /Ogsp
_TEXT	ENDS
;	COMDAT ??_GConsumptionSlotBtn@@UAEPAXI@Z
_TEXT	SEGMENT
___flags$ = 8						; size = 4
??_GConsumptionSlotBtn@@UAEPAXI@Z PROC			; ConsumptionSlotBtn::`scalar deleting destructor', COMDAT
; _this$ = ecx
  00000	55		 push	 ebp
  00001	8b ec		 mov	 ebp, esp
  00003	56		 push	 esi
  00004	8b f1		 mov	 esi, ecx
  00006	e8 00 00 00 00	 call	 ??1ConsumptionSlotBtn@@UAE@XZ ; ConsumptionSlotBtn::~ConsumptionSlotBtn
  0000b	f6 45 08 01	 test	 BYTE PTR ___flags$[ebp], 1
  0000f	74 07		 je	 SHORT $LN1@scalar@6
  00011	56		 push	 esi
  00012	e8 00 00 00 00	 call	 ??3@YAXPAX@Z		; operator delete
  00017	59		 pop	 ecx
$LN1@scalar@6:
  00018	8b c6		 mov	 eax, esi
  0001a	5e		 pop	 esi
  0001b	5d		 pop	 ebp
  0001c	c2 04 00	 ret	 4
??_GConsumptionSlotBtn@@UAEPAXI@Z ENDP			; ConsumptionSlotBtn::`scalar deleting destructor'
_TEXT	ENDS
PUBLIC	__real@3f0ccccd
PUBLIC	__real@3f266666
PUBLIC	??_C@_0BN@MJABNKHB@ConsumptionSlotBtn?3?3OnRender?$AA@ ; `string'
PUBLIC	__real@3ecccccd
PUBLIC	__real@3ed70a3d
EXTRN	__imp_?PrintText@ioFontManager@@QAEXMMMPBDH@Z:PROC
EXTRN	__imp_?PrintText@ioFontManager@@QAAXMMMPBDZZ:PROC
EXTRN	__imp_?SetTextColor@ioFontManager@@QAEXK@Z:PROC
EXTRN	__imp_?IsEmpty@ioHashString@@QBE_NXZ:PROC
EXTRN	__imp_?PrintText@ioFontManager@@QAEXMMMPBDM@Z:PROC
EXTRN	__imp_?OnRender@ioButton@@MAEXXZ:PROC
EXTRN	__imp_?GetParent@ioWnd@@QAEPAV1@XZ:PROC
;	COMDAT __real@3f0ccccd
; File d:\lost saga for developer\youtube\tutorial\source\src\lsclient\stdafx.h
CONST	SEGMENT
__real@3f0ccccd DD 03f0ccccdr			; 0.55
CONST	ENDS
;	COMDAT __real@3f266666
CONST	SEGMENT
__real@3f266666 DD 03f266666r			; 0.65
CONST	ENDS
;	COMDAT ??_C@_0BN@MJABNKHB@ConsumptionSlotBtn?3?3OnRender?$AA@
CONST	SEGMENT
??_C@_0BN@MJABNKHB@ConsumptionSlotBtn?3?3OnRender?$AA@ DB 'ConsumptionSlo'
	DB	'tBtn::OnRender', 00H			; `string'
CONST	ENDS
;	COMDAT __real@3ecccccd
CONST	SEGMENT
__real@3ecccccd DD 03ecccccdr			; 0.4
CONST	ENDS
;	COMDAT __real@3ed70a3d
CONST	SEGMENT
__real@3ed70a3d DD 03ed70a3dr			; 0.42
; Function compile flags: /Ogsp
; File d:\lost saga for developer\youtube\tutorial\source\src\lsclient\gui\towerdefwnd.cpp
CONST	ENDS
;	COMDAT ?OnRender@ConsumptionSlotBtn@@MAEXXZ
_TEXT	SEGMENT
tv513 = -16						; size = 4
tv510 = -16						; size = 4
tv507 = -12						; size = 4
tv466 = -12						; size = 4
$T529529 = -12						; size = 4
_iYPos$ = -8						; size = 4
_iXPos$ = -4						; size = 4
?OnRender@ConsumptionSlotBtn@@MAEXXZ PROC		; ConsumptionSlotBtn::OnRender, COMDAT
; _this$ = ecx

; 1364 : {

  00000	55		 push	 ebp
  00001	8b ec		 mov	 ebp, esp
  00003	83 ec 10	 sub	 esp, 16			; 00000010H
  00006	53		 push	 ebx
  00007	57		 push	 edi

; 1365 : 	ConsumptionWnd* pConsumptionWnd = dynamic_cast<ConsumptionWnd*>( GetParent() );

  00008	33 ff		 xor	 edi, edi
  0000a	57		 push	 edi
  0000b	68 00 00 00 00	 push	 OFFSET ??_R0?AVConsumptionWnd@@@8
  00010	68 00 00 00 00	 push	 OFFSET ??_R0?AVioWnd@@@8
  00015	57		 push	 edi
  00016	8b d9		 mov	 ebx, ecx
  00018	ff 15 00 00 00
	00		 call	 DWORD PTR __imp_?GetParent@ioWnd@@QAEPAV1@XZ
  0001e	50		 push	 eax
  0001f	e8 00 00 00 00	 call	 ___RTDynamicCast
  00024	83 c4 14	 add	 esp, 20			; 00000014H

; 1366 : 	if ( pConsumptionWnd )

  00027	3b c7		 cmp	 eax, edi
  00029	74 18		 je	 SHORT $LN28@OnRender@3

; 1367 : 	{
; 1368 : 		if( pConsumptionWnd->GetCurShowAniState() == ConsumptionWnd::SAT_DELAY || 
; 1369 : 			pConsumptionWnd->GetCurShowAniState() == ConsumptionWnd::SAT_START_ROUND ) 

  0002b	8b 80 94 01 00
	00		 mov	 eax, DWORD PTR [eax+404]
  00031	83 f8 02	 cmp	 eax, 2
  00034	0f 84 17 04 00
	00		 je	 $LN1@OnRender@3
  0003a	83 f8 01	 cmp	 eax, 1

; 1370 : 			return;

  0003d	0f 84 0e 04 00
	00		 je	 $LN1@OnRender@3
$LN28@OnRender@3:

; 1371 : 	}
; 1372 : 
; 1373 : 	ioButton::OnRender();

  00043	8b cb		 mov	 ecx, ebx
  00045	ff 15 00 00 00
	00		 call	 DWORD PTR __imp_?OnRender@ioButton@@MAEXXZ

; 1374 : 
; 1375 : 	int iXPos, iYPos;
; 1376 : 	iXPos = GetDerivedPosX();

  0004b	8b cb		 mov	 ecx, ebx
  0004d	ff 15 00 00 00
	00		 call	 DWORD PTR __imp_?GetDerivedPosX@ioWnd@@QBEHXZ

; 1377 : 	iYPos = GetDerivedPosY();

  00053	8b cb		 mov	 ecx, ebx
  00055	89 45 fc	 mov	 DWORD PTR _iXPos$[ebp], eax
  00058	ff 15 00 00 00
	00		 call	 DWORD PTR __imp_?GetDerivedPosY@ioWnd@@QBEHXZ
  0005e	89 45 f8	 mov	 DWORD PTR _iYPos$[ebp], eax

; 1378 : 
; 1379 : 	if( m_nItem == 0)

  00061	39 bb 18 02 00
	00		 cmp	 DWORD PTR [ebx+536], edi
  00067	75 3d		 jne	 SHORT $LN12@OnRender@3

; 1380 : 	{
; 1381 : 		if( m_pEmptySlotImg)

  00069	39 bb fc 01 00
	00		 cmp	 DWORD PTR [ebx+508], edi
  0006f	0f 84 dc 03 00
	00		 je	 $LN1@OnRender@3

; 1382 : 		{
; 1383 : 			m_pEmptySlotImg->Render(iXPos, iYPos, UI_RENDER_MULTIPLY);

  00075	8b 8b fc 01 00
	00		 mov	 ecx, DWORD PTR [ebx+508]
  0007b	66 0f 6e 45 f8	 movd	 xmm0, DWORD PTR _iYPos$[ebp]
  00080	8b 01		 mov	 eax, DWORD PTR [ecx]
  00082	57		 push	 edi
  00083	57		 push	 edi
  00084	57		 push	 edi
  00085	6a 08		 push	 8
  00087	51		 push	 ecx
  00088	0f 5b c0	 cvtdq2ps xmm0, xmm0
  0008b	51		 push	 ecx
  0008c	f3 0f 11 44 24
	04		 movss	 DWORD PTR [esp+4], xmm0
  00092	66 0f 6e 45 fc	 movd	 xmm0, DWORD PTR _iXPos$[ebp]
  00097	0f 5b c0	 cvtdq2ps xmm0, xmm0
  0009a	f3 0f 11 04 24	 movss	 DWORD PTR [esp], xmm0
  0009f	ff 10		 call	 DWORD PTR [eax]

; 1384 : 		}
; 1385 : 	}
; 1386 : 	else

  000a1	e9 ab 03 00 00	 jmp	 $LN1@OnRender@3
$LN12@OnRender@3:
  000a6	56		 push	 esi

; 1387 : 	{
; 1388 : 		if(m_dwCoolTime > FRAMEGETTIME())

  000a7	ff 15 00 00 00
	00		 call	 DWORD PTR __imp_?GetSingleton@ioFrameTimer@@SAAAV1@XZ
  000ad	8b c8		 mov	 ecx, eax
  000af	ff 15 00 00 00
	00		 call	 DWORD PTR __imp_?GetLoopSec@ioFrameTimer@@QBEKXZ
  000b5	39 83 1c 02 00
	00		 cmp	 DWORD PTR [ebx+540], eax
  000bb	0f 86 88 01 00
	00		 jbe	 $LN9@OnRender@3

; 1389 : 		{
; 1390 : 			if(m_pItemBackImg)

  000c1	39 bb 04 02 00
	00		 cmp	 DWORD PTR [ebx+516], edi
  000c7	74 46		 je	 SHORT $LN8@OnRender@3

; 1391 : 			{
; 1392 : 				m_pItemBackImg->SetScale(0.42f);

  000c9	8b 8b 04 02 00
	00		 mov	 ecx, DWORD PTR [ebx+516]
  000cf	f3 0f 10 05 00
	00 00 00	 movss	 xmm0, DWORD PTR __real@3ed70a3d
  000d7	8b 01		 mov	 eax, DWORD PTR [ecx]
  000d9	51		 push	 ecx
  000da	f3 0f 11 04 24	 movss	 DWORD PTR [esp], xmm0
  000df	ff 50 1c	 call	 DWORD PTR [eax+28]

; 1393 : 				m_pItemBackImg->Render(iXPos, iYPos, UI_RENDER_MULTIPLY, TFO_BILINEAR);

  000e2	8b 8b 04 02 00
	00		 mov	 ecx, DWORD PTR [ebx+516]
  000e8	66 0f 6e 45 f8	 movd	 xmm0, DWORD PTR _iYPos$[ebp]
  000ed	8b 01		 mov	 eax, DWORD PTR [ecx]
  000ef	57		 push	 edi
  000f0	57		 push	 edi
  000f1	6a 01		 push	 1
  000f3	6a 08		 push	 8
  000f5	51		 push	 ecx
  000f6	0f 5b c0	 cvtdq2ps xmm0, xmm0
  000f9	51		 push	 ecx
  000fa	f3 0f 11 44 24
	04		 movss	 DWORD PTR [esp+4], xmm0
  00100	66 0f 6e 45 fc	 movd	 xmm0, DWORD PTR _iXPos$[ebp]
  00105	0f 5b c0	 cvtdq2ps xmm0, xmm0
  00108	f3 0f 11 04 24	 movss	 DWORD PTR [esp], xmm0
  0010d	ff 10		 call	 DWORD PTR [eax]
$LN8@OnRender@3:

; 1394 : 			}
; 1395 : 			
; 1396 : 			if(m_pItemIcon)

  0010f	39 bb 00 02 00
	00		 cmp	 DWORD PTR [ebx+512], edi
  00115	0f 84 35 03 00
	00		 je	 $LN29@OnRender@3

; 1397 : 			{
; 1398 : 				m_pItemIcon->SetScale(0.40f);

  0011b	8b 8b 00 02 00
	00		 mov	 ecx, DWORD PTR [ebx+512]
  00121	f3 0f 10 05 00
	00 00 00	 movss	 xmm0, DWORD PTR __real@3ecccccd
  00129	8b 01		 mov	 eax, DWORD PTR [ecx]
  0012b	51		 push	 ecx
  0012c	f3 0f 11 04 24	 movss	 DWORD PTR [esp], xmm0
  00131	ff 50 1c	 call	 DWORD PTR [eax+28]

; 1399 : 				m_pItemIcon->Render(iXPos, iYPos, UI_RENDER_GRAY, TFO_BILINEAR);

  00134	66 0f 6e 45 f8	 movd	 xmm0, DWORD PTR _iYPos$[ebp]
  00139	8b b3 00 02 00
	00		 mov	 esi, DWORD PTR [ebx+512]
  0013f	8b 06		 mov	 eax, DWORD PTR [esi]
  00141	57		 push	 edi
  00142	57		 push	 edi
  00143	6a 01		 push	 1
  00145	6a 02		 push	 2
  00147	51		 push	 ecx
  00148	51		 push	 ecx
  00149	0f 5b c0	 cvtdq2ps xmm0, xmm0
  0014c	f3 0f 11 44 24
	04		 movss	 DWORD PTR [esp+4], xmm0
  00152	66 0f 6e 45 fc	 movd	 xmm0, DWORD PTR _iXPos$[ebp]
  00157	0f 5b c0	 cvtdq2ps xmm0, xmm0
  0015a	8b ce		 mov	 ecx, esi
  0015c	f3 0f 11 04 24	 movss	 DWORD PTR [esp], xmm0
  00161	ff 10		 call	 DWORD PTR [eax]

; 1400 : 
; 1401 : 				g_FontMgr.SetAlignType(TAT_CENTER);

  00163	8b 35 00 00 00
	00		 mov	 esi, DWORD PTR __imp_?GetSingleton@ioFontManager@@SAAAV1@XZ
  00169	6a 01		 push	 1
  0016b	ff d6		 call	 esi
  0016d	8b c8		 mov	 ecx, eax
  0016f	ff 15 00 00 00
	00		 call	 DWORD PTR __imp_?SetAlignType@ioFontManager@@QAEXW4TextAlignType@@@Z

; 1402 : 				g_FontMgr.SetTextStyle(TS_OUTLINE_FULL_2X );

  00175	6a 05		 push	 5
  00177	ff d6		 call	 esi
  00179	8b c8		 mov	 ecx, eax
  0017b	ff 15 00 00 00
	00		 call	 DWORD PTR __imp_?SetTextStyle@ioFontManager@@QAEXW4TextStyle@@@Z

; 1403 : 				g_FontMgr.SetBkColor(0, 0, 0);

  00181	57		 push	 edi
  00182	57		 push	 edi
  00183	57		 push	 edi
  00184	ff d6		 call	 esi
  00186	8b c8		 mov	 ecx, eax
  00188	ff 15 00 00 00
	00		 call	 DWORD PTR __imp_?SetBkColor@ioFontManager@@QAEXHHH@Z

; 1404 : 				g_FontMgr.SetTextColor(255, 60, 0);

  0018e	57		 push	 edi
  0018f	6a 3c		 push	 60			; 0000003cH
  00191	68 ff 00 00 00	 push	 255			; 000000ffH
  00196	ff d6		 call	 esi
  00198	8b c8		 mov	 ecx, eax
  0019a	ff 15 00 00 00
	00		 call	 DWORD PTR __imp_?SetTextColor@ioFontManager@@QAEXHHH@Z

; 1405 : 				g_FontMgr.PrintText( iXPos + 2, iYPos - 8, FONT_SIZE_13, STR(3), (m_dwCoolTime - FRAMEGETTIME())/FLOAT1000 );

  001a0	b8 e8 03 00 00	 mov	 eax, 1000		; 000003e8H
  001a5	89 45 f4	 mov	 DWORD PTR $T529529[ebp], eax
  001a8	ff 15 00 00 00
	00		 call	 DWORD PTR __imp_?GetSingleton@ioFrameTimer@@SAAAV1@XZ
  001ae	8b c8		 mov	 ecx, eax
  001b0	ff 15 00 00 00
	00		 call	 DWORD PTR __imp_?GetLoopSec@ioFrameTimer@@QBEKXZ
  001b6	8b 8b 1c 02 00
	00		 mov	 ecx, DWORD PTR [ebx+540]
  001bc	2b c8		 sub	 ecx, eax
  001be	89 4d f0	 mov	 DWORD PTR tv513[ebp], ecx
  001c1	db 45 f0	 fild	 DWORD PTR tv513[ebp]
  001c4	79 06		 jns	 SHORT $LN30@OnRender@3
  001c6	d8 05 00 00 00
	00		 fadd	 DWORD PTR __real@4f800000
$LN30@OnRender@3:
  001cc	8b 45 f4	 mov	 eax, DWORD PTR $T529529[ebp]
  001cf	db 45 f4	 fild	 DWORD PTR $T529529[ebp]
  001d2	85 c0		 test	 eax, eax
  001d4	79 06		 jns	 SHORT $LN31@OnRender@3
  001d6	d8 05 00 00 00
	00		 fadd	 DWORD PTR __real@4f800000
$LN31@OnRender@3:
  001dc	de f9		 fdivp	 ST(1), ST(0)
  001de	51		 push	 ecx
  001df	d9 5d f4	 fstp	 DWORD PTR tv507[ebp]
  001e2	d9 45 f4	 fld	 DWORD PTR tv507[ebp]
  001e5	d9 1c 24	 fstp	 DWORD PTR [esp]
  001e8	57		 push	 edi
  001e9	6a 03		 push	 3
  001eb	68 00 00 00 00	 push	 OFFSET ??_C@_00CNPNBAHC@?$AA@
  001f0	68 00 00 00 00	 push	 OFFSET ??_C@_0BN@MJABNKHB@ConsumptionSlotBtn?3?3OnRender?$AA@
  001f5	ff 15 00 00 00
	00		 call	 DWORD PTR __imp_?GetSingleton@ioStringManager@@SAAAV1@XZ
  001fb	8b c8		 mov	 ecx, eax
  001fd	ff 15 00 00 00
	00		 call	 DWORD PTR __imp_?GetString@ioStringManager@@QAEPADPBD0HW4FileNamePrefix@1@@Z
  00203	f3 0f 10 05 00
	00 00 00	 movss	 xmm0, DWORD PTR __real@3f266666
  0020b	50		 push	 eax
  0020c	8b 45 f8	 mov	 eax, DWORD PTR _iYPos$[ebp]
  0020f	83 ec 0c	 sub	 esp, 12			; 0000000cH
  00212	f3 0f 11 44 24
	08		 movss	 DWORD PTR [esp+8], xmm0
  00218	83 c0 f8	 add	 eax, -8			; fffffff8H
  0021b	0f 57 c0	 xorps	 xmm0, xmm0
  0021e	f3 0f 2a c0	 cvtsi2ss xmm0, eax
  00222	8b 45 fc	 mov	 eax, DWORD PTR _iXPos$[ebp]
  00225	f3 0f 11 44 24
	04		 movss	 DWORD PTR [esp+4], xmm0
  0022b	83 c0 02	 add	 eax, 2
  0022e	0f 57 c0	 xorps	 xmm0, xmm0
  00231	f3 0f 2a c0	 cvtsi2ss xmm0, eax
  00235	f3 0f 11 04 24	 movss	 DWORD PTR [esp], xmm0
  0023a	ff d6		 call	 esi
  0023c	8b c8		 mov	 ecx, eax
  0023e	ff 15 00 00 00
	00		 call	 DWORD PTR __imp_?PrintText@ioFontManager@@QAEXMMMPBDM@Z

; 1406 : 			}
; 1407 : 		}
; 1408 : 		else

  00244	e9 07 02 00 00	 jmp	 $LN29@OnRender@3
$LN9@OnRender@3:

; 1409 : 		{
; 1410 : 			if(m_pItemBackImg)

  00249	39 bb 04 02 00
	00		 cmp	 DWORD PTR [ebx+516], edi
  0024f	74 46		 je	 SHORT $LN5@OnRender@3

; 1411 : 			{
; 1412 : 				m_pItemBackImg->SetScale(0.42f);

  00251	8b 8b 04 02 00
	00		 mov	 ecx, DWORD PTR [ebx+516]
  00257	f3 0f 10 05 00
	00 00 00	 movss	 xmm0, DWORD PTR __real@3ed70a3d
  0025f	8b 01		 mov	 eax, DWORD PTR [ecx]
  00261	51		 push	 ecx
  00262	f3 0f 11 04 24	 movss	 DWORD PTR [esp], xmm0
  00267	ff 50 1c	 call	 DWORD PTR [eax+28]

; 1413 : 				m_pItemBackImg->Render(iXPos, iYPos, UI_RENDER_MULTIPLY, TFO_BILINEAR);

  0026a	8b 8b 04 02 00
	00		 mov	 ecx, DWORD PTR [ebx+516]
  00270	66 0f 6e 45 f8	 movd	 xmm0, DWORD PTR _iYPos$[ebp]
  00275	8b 01		 mov	 eax, DWORD PTR [ecx]
  00277	57		 push	 edi
  00278	57		 push	 edi
  00279	6a 01		 push	 1
  0027b	6a 08		 push	 8
  0027d	51		 push	 ecx
  0027e	0f 5b c0	 cvtdq2ps xmm0, xmm0
  00281	51		 push	 ecx
  00282	f3 0f 11 44 24
	04		 movss	 DWORD PTR [esp+4], xmm0
  00288	66 0f 6e 45 fc	 movd	 xmm0, DWORD PTR _iXPos$[ebp]
  0028d	0f 5b c0	 cvtdq2ps xmm0, xmm0
  00290	f3 0f 11 04 24	 movss	 DWORD PTR [esp], xmm0
  00295	ff 10		 call	 DWORD PTR [eax]
$LN5@OnRender@3:

; 1414 : 			}
; 1415 : 
; 1416 : 			if(m_pItemIcon)

  00297	39 bb 00 02 00
	00		 cmp	 DWORD PTR [ebx+512], edi
  0029d	0f 84 79 01 00
	00		 je	 $LN4@OnRender@3

; 1417 : 			{
; 1418 : 				m_pItemIcon->SetScale(0.40f);

  002a3	8b 8b 00 02 00
	00		 mov	 ecx, DWORD PTR [ebx+512]
  002a9	f3 0f 10 05 00
	00 00 00	 movss	 xmm0, DWORD PTR __real@3ecccccd
  002b1	8b 01		 mov	 eax, DWORD PTR [ecx]
  002b3	51		 push	 ecx
  002b4	f3 0f 11 04 24	 movss	 DWORD PTR [esp], xmm0
  002b9	ff 50 1c	 call	 DWORD PTR [eax+28]

; 1419 : 				m_pItemIcon->Render(iXPos, iYPos, UI_RENDER_NORMAL, TFO_BILINEAR);

  002bc	66 0f 6e 45 f8	 movd	 xmm0, DWORD PTR _iYPos$[ebp]
  002c1	8b b3 00 02 00
	00		 mov	 esi, DWORD PTR [ebx+512]
  002c7	8b 06		 mov	 eax, DWORD PTR [esi]
  002c9	57		 push	 edi
  002ca	57		 push	 edi
  002cb	6a 01		 push	 1
  002cd	57		 push	 edi
  002ce	51		 push	 ecx
  002cf	0f 5b c0	 cvtdq2ps xmm0, xmm0
  002d2	51		 push	 ecx
  002d3	f3 0f 11 44 24
	04		 movss	 DWORD PTR [esp+4], xmm0
  002d9	f3 0f 11 45 f4	 movss	 DWORD PTR tv466[ebp], xmm0
  002de	66 0f 6e 45 fc	 movd	 xmm0, DWORD PTR _iXPos$[ebp]
  002e3	0f 5b c0	 cvtdq2ps xmm0, xmm0
  002e6	8b ce		 mov	 ecx, esi
  002e8	f3 0f 11 04 24	 movss	 DWORD PTR [esp], xmm0
  002ed	ff 10		 call	 DWORD PTR [eax]

; 1420 : 
; 1421 : 				if(!m_strKey.IsEmpty())

  002ef	8d 8b 08 02 00
	00		 lea	 ecx, DWORD PTR [ebx+520]
  002f5	ff 15 00 00 00
	00		 call	 DWORD PTR __imp_?IsEmpty@ioHashString@@QBE_NXZ
  002fb	84 c0		 test	 al, al
  002fd	0f 85 4d 01 00
	00		 jne	 $LN29@OnRender@3

; 1422 : 				{
; 1423 : 					g_FontMgr.SetAlignType(TAT_CENTER);

  00303	8b 35 00 00 00
	00		 mov	 esi, DWORD PTR __imp_?GetSingleton@ioFontManager@@SAAAV1@XZ
  00309	6a 01		 push	 1
  0030b	ff d6		 call	 esi
  0030d	8b c8		 mov	 ecx, eax
  0030f	ff 15 00 00 00
	00		 call	 DWORD PTR __imp_?SetAlignType@ioFontManager@@QAEXW4TextAlignType@@@Z

; 1424 : 					g_FontMgr.SetTextStyle(TS_OUTLINE_FULL_2X );

  00315	6a 05		 push	 5
  00317	ff d6		 call	 esi
  00319	8b c8		 mov	 ecx, eax
  0031b	ff 15 00 00 00
	00		 call	 DWORD PTR __imp_?SetTextStyle@ioFontManager@@QAEXW4TextStyle@@@Z

; 1425 : 					g_FontMgr.SetBkColor(18, 78, 148);

  00321	68 94 00 00 00	 push	 148			; 00000094H
  00326	6a 4e		 push	 78			; 0000004eH
  00328	6a 12		 push	 18			; 00000012H
  0032a	ff d6		 call	 esi
  0032c	8b c8		 mov	 ecx, eax
  0032e	ff 15 00 00 00
	00		 call	 DWORD PTR __imp_?SetBkColor@ioFontManager@@QAEXHHH@Z

; 1426 : 					g_FontMgr.SetTextColor(TCT_DEFAULT_WHITE);

  00334	6a ff		 push	 -1
  00336	ff d6		 call	 esi
  00338	8b c8		 mov	 ecx, eax
  0033a	ff 15 00 00 00
	00		 call	 DWORD PTR __imp_?SetTextColor@ioFontManager@@QAEXK@Z

; 1427 : 					g_FontMgr.PrintText( iXPos - 11, iYPos - 17, FONT_SIZE_11, m_strKey.c_str() );

  00340	8d 8b 08 02 00
	00		 lea	 ecx, DWORD PTR [ebx+520]
  00346	ff 15 00 00 00
	00		 call	 DWORD PTR __imp_?c_str@ioHashString@@QBEPBDXZ
  0034c	f3 0f 10 05 00
	00 00 00	 movss	 xmm0, DWORD PTR __real@3f0ccccd
  00354	50		 push	 eax
  00355	8b 45 f8	 mov	 eax, DWORD PTR _iYPos$[ebp]
  00358	83 ec 0c	 sub	 esp, 12			; 0000000cH
  0035b	f3 0f 11 44 24
	08		 movss	 DWORD PTR [esp+8], xmm0
  00361	83 c0 ef	 add	 eax, -17		; ffffffefH
  00364	0f 57 c0	 xorps	 xmm0, xmm0
  00367	f3 0f 2a c0	 cvtsi2ss xmm0, eax
  0036b	8b 45 fc	 mov	 eax, DWORD PTR _iXPos$[ebp]
  0036e	f3 0f 11 44 24
	04		 movss	 DWORD PTR [esp+4], xmm0
  00374	83 c0 f5	 add	 eax, -11		; fffffff5H
  00377	0f 57 c0	 xorps	 xmm0, xmm0
  0037a	f3 0f 2a c0	 cvtsi2ss xmm0, eax
  0037e	f3 0f 11 04 24	 movss	 DWORD PTR [esp], xmm0
  00383	ff d6		 call	 esi
  00385	50		 push	 eax
  00386	ff 15 00 00 00
	00		 call	 DWORD PTR __imp_?PrintText@ioFontManager@@QAAXMMMPBDZZ
  0038c	83 c4 14	 add	 esp, 20			; 00000014H

; 1428 : 
; 1429 : 					g_FontMgr.SetAlignType(TAT_CENTER);

  0038f	6a 01		 push	 1
  00391	ff d6		 call	 esi
  00393	8b c8		 mov	 ecx, eax
  00395	ff 15 00 00 00
	00		 call	 DWORD PTR __imp_?SetAlignType@ioFontManager@@QAEXW4TextAlignType@@@Z

; 1430 : 					g_FontMgr.SetTextStyle(TS_OUTLINE_FULL_3X );

  0039b	6a 06		 push	 6
  0039d	ff d6		 call	 esi
  0039f	8b c8		 mov	 ecx, eax
  003a1	ff 15 00 00 00
	00		 call	 DWORD PTR __imp_?SetTextStyle@ioFontManager@@QAEXW4TextStyle@@@Z

; 1431 : 					g_FontMgr.SetBkColor(0, 0, 0);

  003a7	57		 push	 edi
  003a8	57		 push	 edi
  003a9	57		 push	 edi
  003aa	ff d6		 call	 esi
  003ac	8b c8		 mov	 ecx, eax
  003ae	ff 15 00 00 00
	00		 call	 DWORD PTR __imp_?SetBkColor@ioFontManager@@QAEXHHH@Z

; 1432 : 					g_FontMgr.SetTextColor(TCT_DEFAULT_WHITE);

  003b4	6a ff		 push	 -1
  003b6	ff d6		 call	 esi
  003b8	8b c8		 mov	 ecx, eax
  003ba	ff 15 00 00 00
	00		 call	 DWORD PTR __imp_?SetTextColor@ioFontManager@@QAEXK@Z

; 1433 : 					g_FontMgr.PrintText( iXPos + 11, iYPos, FONT_SIZE_11, STR(4), m_nItem );

  003c0	ff b3 18 02 00
	00		 push	 DWORD PTR [ebx+536]
  003c6	57		 push	 edi
  003c7	6a 04		 push	 4
  003c9	68 00 00 00 00	 push	 OFFSET ??_C@_00CNPNBAHC@?$AA@
  003ce	68 00 00 00 00	 push	 OFFSET ??_C@_0BN@MJABNKHB@ConsumptionSlotBtn?3?3OnRender?$AA@
  003d3	ff 15 00 00 00
	00		 call	 DWORD PTR __imp_?GetSingleton@ioStringManager@@SAAAV1@XZ
  003d9	8b c8		 mov	 ecx, eax
  003db	ff 15 00 00 00
	00		 call	 DWORD PTR __imp_?GetString@ioStringManager@@QAEPADPBD0HW4FileNamePrefix@1@@Z
  003e1	f3 0f 10 05 00
	00 00 00	 movss	 xmm0, DWORD PTR __real@3f0ccccd
  003e9	50		 push	 eax
  003ea	8b 45 fc	 mov	 eax, DWORD PTR _iXPos$[ebp]
  003ed	83 ec 0c	 sub	 esp, 12			; 0000000cH
  003f0	f3 0f 11 44 24
	08		 movss	 DWORD PTR [esp+8], xmm0
  003f6	f3 0f 10 45 f4	 movss	 xmm0, DWORD PTR tv466[ebp]
  003fb	f3 0f 11 44 24
	04		 movss	 DWORD PTR [esp+4], xmm0
  00401	83 c0 0b	 add	 eax, 11			; 0000000bH
  00404	0f 57 c0	 xorps	 xmm0, xmm0
  00407	f3 0f 2a c0	 cvtsi2ss xmm0, eax
  0040b	f3 0f 11 04 24	 movss	 DWORD PTR [esp], xmm0
  00410	ff d6		 call	 esi
  00412	8b c8		 mov	 ecx, eax
  00414	ff 15 00 00 00
	00		 call	 DWORD PTR __imp_?PrintText@ioFontManager@@QAEXMMMPBDH@Z

; 1434 : 				}
; 1435 : 			}
; 1436 : 			else

  0041a	eb 34		 jmp	 SHORT $LN29@OnRender@3
$LN4@OnRender@3:

; 1437 : 			{
; 1438 : 				if( m_pEmptySlotImg)

  0041c	39 bb fc 01 00
	00		 cmp	 DWORD PTR [ebx+508], edi
  00422	74 2c		 je	 SHORT $LN29@OnRender@3

; 1439 : 				{
; 1440 : 					m_pEmptySlotImg->Render(iXPos, iYPos, UI_RENDER_MULTIPLY);

  00424	8b 8b fc 01 00
	00		 mov	 ecx, DWORD PTR [ebx+508]
  0042a	66 0f 6e 45 f8	 movd	 xmm0, DWORD PTR _iYPos$[ebp]
  0042f	8b 01		 mov	 eax, DWORD PTR [ecx]
  00431	57		 push	 edi
  00432	57		 push	 edi
  00433	57		 push	 edi
  00434	6a 08		 push	 8
  00436	51		 push	 ecx
  00437	0f 5b c0	 cvtdq2ps xmm0, xmm0
  0043a	51		 push	 ecx
  0043b	f3 0f 11 44 24
	04		 movss	 DWORD PTR [esp+4], xmm0
  00441	66 0f 6e 45 fc	 movd	 xmm0, DWORD PTR _iXPos$[ebp]
  00446	0f 5b c0	 cvtdq2ps xmm0, xmm0
  00449	f3 0f 11 04 24	 movss	 DWORD PTR [esp], xmm0
  0044e	ff 10		 call	 DWORD PTR [eax]
$LN29@OnRender@3:
  00450	5e		 pop	 esi
$LN1@OnRender@3:
  00451	5f		 pop	 edi
  00452	5b		 pop	 ebx

; 1441 : 				}
; 1442 : 			}
; 1443 : 		}
; 1444 : 		
; 1445 : 	}
; 1446 : }

  00453	c9		 leave
  00454	c3		 ret	 0
?OnRender@ConsumptionSlotBtn@@MAEXXZ ENDP		; ConsumptionSlotBtn::OnRender
_TEXT	ENDS
PUBLIC	__$ArrayPad$
PUBLIC	??$?8$0P@@@YA_NABVioHashString@@AAY0P@$$CBD@Z	; operator==<15>
; Function compile flags: /Ogsp
; File d:\lost saga for developer\youtube\tutorial\source\src\io3dengine\iohashstring.h
;	COMDAT ??$?8$0P@@@YA_NABVioHashString@@AAY0P@$$CBD@Z
_TEXT	SEGMENT
__t$ = -24						; size = 15
__$ArrayPad$ = -4					; size = 4
_lhs$ = 8						; size = 4
_t$ = 12						; size = 4
??$?8$0P@@@YA_NABVioHashString@@AAY0P@$$CBD@Z PROC	; operator==<15>, COMDAT

; 146  : {

  00000	55		 push	 ebp
  00001	8b ec		 mov	 ebp, esp
  00003	83 ec 18	 sub	 esp, 24			; 00000018H
  00006	a1 00 00 00 00	 mov	 eax, DWORD PTR ___security_cookie
  0000b	33 c5		 xor	 eax, ebp
  0000d	89 45 fc	 mov	 DWORD PTR __$ArrayPad$[ebp], eax
  00010	8b 45 0c	 mov	 eax, DWORD PTR _t$[ebp]

; 147  : 	_ENCSTR(t, _t); return ( strcmp( lhs.c_str(), _t ) == 0 );

  00013	8a 10		 mov	 dl, BYTE PTR [eax]
  00015	56		 push	 esi
  00016	57		 push	 edi
  00017	8b 7d 08	 mov	 edi, DWORD PTR _lhs$[ebp]
  0001a	84 d2		 test	 dl, dl
  0001c	0f 84 75 01 00
	00		 je	 $LN96@operator
  00022	80 f2 ed	 xor	 dl, -19			; ffffffedH
  00025	88 55 e8	 mov	 BYTE PTR __t$[ebp], dl
  00028	8a 50 01	 mov	 dl, BYTE PTR [eax+1]
  0002b	84 d2		 test	 dl, dl
  0002d	0f 84 5e 01 00
	00		 je	 $LN95@operator
  00033	b1 ec		 mov	 cl, -20			; ffffffecH
  00035	32 d1		 xor	 dl, cl
  00037	88 55 e9	 mov	 BYTE PTR __t$[ebp+1], dl
  0003a	8a 50 02	 mov	 dl, BYTE PTR [eax+2]
  0003d	84 d2		 test	 dl, dl
  0003f	0f 84 46 01 00
	00		 je	 $LN94@operator
  00045	80 f2 eb	 xor	 dl, -21			; ffffffebH
  00048	88 55 ea	 mov	 BYTE PTR __t$[ebp+2], dl
  0004b	8a 50 03	 mov	 dl, BYTE PTR [eax+3]
  0004e	84 d2		 test	 dl, dl
  00050	0f 84 2f 01 00
	00		 je	 $LN93@operator
  00056	80 f2 ea	 xor	 dl, -22			; ffffffeaH
  00059	88 55 eb	 mov	 BYTE PTR __t$[ebp+3], dl
  0005c	8a 50 04	 mov	 dl, BYTE PTR [eax+4]
  0005f	84 d2		 test	 dl, dl
  00061	0f 84 18 01 00
	00		 je	 $LN92@operator
  00067	80 f2 ed	 xor	 dl, -19			; ffffffedH
  0006a	88 55 ec	 mov	 BYTE PTR __t$[ebp+4], dl
  0006d	8a 50 05	 mov	 dl, BYTE PTR [eax+5]
  00070	84 d2		 test	 dl, dl
  00072	0f 84 02 01 00
	00		 je	 $LN91@operator
  00078	32 d1		 xor	 dl, cl
  0007a	88 55 ed	 mov	 BYTE PTR __t$[ebp+5], dl
  0007d	8a 50 06	 mov	 dl, BYTE PTR [eax+6]
  00080	84 d2		 test	 dl, dl
  00082	0f 84 ec 00 00
	00		 je	 $LN90@operator
  00088	80 f2 eb	 xor	 dl, -21			; ffffffebH
  0008b	88 55 ee	 mov	 BYTE PTR __t$[ebp+6], dl
  0008e	8a 50 07	 mov	 dl, BYTE PTR [eax+7]
  00091	84 d2		 test	 dl, dl
  00093	0f 84 d5 00 00
	00		 je	 $LN89@operator
  00099	80 f2 ea	 xor	 dl, -22			; ffffffeaH
  0009c	88 55 ef	 mov	 BYTE PTR __t$[ebp+7], dl
  0009f	8a 50 08	 mov	 dl, BYTE PTR [eax+8]
  000a2	84 d2		 test	 dl, dl
  000a4	0f 84 be 00 00
	00		 je	 $LN88@operator
  000aa	80 f2 ed	 xor	 dl, -19			; ffffffedH
  000ad	88 55 f0	 mov	 BYTE PTR __t$[ebp+8], dl
  000b0	8a 50 09	 mov	 dl, BYTE PTR [eax+9]
  000b3	84 d2		 test	 dl, dl
  000b5	0f 84 a8 00 00
	00		 je	 $LN87@operator
  000bb	32 d1		 xor	 dl, cl
  000bd	88 55 f1	 mov	 BYTE PTR __t$[ebp+9], dl
  000c0	8a 50 0a	 mov	 dl, BYTE PTR [eax+10]
  000c3	84 d2		 test	 dl, dl
  000c5	0f 84 92 00 00
	00		 je	 $LN86@operator
  000cb	80 f2 eb	 xor	 dl, -21			; ffffffebH
  000ce	88 55 f2	 mov	 BYTE PTR __t$[ebp+10], dl
  000d1	8a 50 0b	 mov	 dl, BYTE PTR [eax+11]
  000d4	84 d2		 test	 dl, dl
  000d6	74 7f		 je	 SHORT $LN85@operator
  000d8	80 f2 ea	 xor	 dl, -22			; ffffffeaH
  000db	88 55 f3	 mov	 BYTE PTR __t$[ebp+11], dl
  000de	8a 50 0c	 mov	 dl, BYTE PTR [eax+12]
  000e1	84 d2		 test	 dl, dl
  000e3	74 6c		 je	 SHORT $LN84@operator
  000e5	80 f2 ed	 xor	 dl, -19			; ffffffedH
  000e8	88 55 f4	 mov	 BYTE PTR __t$[ebp+12], dl
  000eb	8a 50 0d	 mov	 dl, BYTE PTR [eax+13]
  000ee	84 d2		 test	 dl, dl
  000f0	74 5a		 je	 SHORT $LN83@operator
  000f2	32 d1		 xor	 dl, cl
  000f4	80 78 0e 00	 cmp	 BYTE PTR [eax+14], 0
  000f8	88 55 f5	 mov	 BYTE PTR __t$[ebp+13], dl
  000fb	0f 84 9a 00 00
	00		 je	 $LN1@operator
  00101	8a 50 0f	 mov	 dl, BYTE PTR [eax+15]
  00104	84 d2		 test	 dl, dl
  00106	74 3e		 je	 SHORT $LN81@operator
  00108	80 f2 ea	 xor	 dl, -22			; ffffffeaH
  0010b	88 55 f7	 mov	 BYTE PTR __t$[ebp+15], dl
  0010e	8a 50 10	 mov	 dl, BYTE PTR [eax+16]
  00111	84 d2		 test	 dl, dl
  00113	74 2b		 je	 SHORT $LN80@operator
  00115	80 f2 ed	 xor	 dl, -19			; ffffffedH
  00118	88 55 f8	 mov	 BYTE PTR __t$[ebp+16], dl
  0011b	8a 50 11	 mov	 dl, BYTE PTR [eax+17]
  0011e	84 d2		 test	 dl, dl
  00120	74 19		 je	 SHORT $LN79@operator
  00122	8a 40 12	 mov	 al, BYTE PTR [eax+18]
  00125	32 d1		 xor	 dl, cl
  00127	88 55 f9	 mov	 BYTE PTR __t$[ebp+17], dl
  0012a	84 c0		 test	 al, al
  0012c	74 07		 je	 SHORT $LN78@operator
  0012e	34 eb		 xor	 al, -21			; ffffffebH
  00130	88 45 fa	 mov	 BYTE PTR __t$[ebp+18], al
  00133	eb 66		 jmp	 SHORT $LN1@operator
$LN78@operator:
  00135	c6 45 fa eb	 mov	 BYTE PTR __t$[ebp+18], -21 ; ffffffebH
  00139	eb 60		 jmp	 SHORT $LN1@operator
$LN79@operator:
  0013b	88 4d f9	 mov	 BYTE PTR __t$[ebp+17], cl
  0013e	eb 5b		 jmp	 SHORT $LN1@operator
$LN80@operator:
  00140	c6 45 f8 ed	 mov	 BYTE PTR __t$[ebp+16], -19 ; ffffffedH
  00144	eb 55		 jmp	 SHORT $LN1@operator
$LN81@operator:
  00146	c6 45 f7 ea	 mov	 BYTE PTR __t$[ebp+15], -22 ; ffffffeaH
  0014a	eb 4f		 jmp	 SHORT $LN1@operator
$LN83@operator:
  0014c	88 4d f5	 mov	 BYTE PTR __t$[ebp+13], cl
  0014f	eb 4a		 jmp	 SHORT $LN1@operator
$LN84@operator:
  00151	c6 45 f4 ed	 mov	 BYTE PTR __t$[ebp+12], -19 ; ffffffedH
  00155	eb 44		 jmp	 SHORT $LN1@operator
$LN85@operator:
  00157	c6 45 f3 ea	 mov	 BYTE PTR __t$[ebp+11], -22 ; ffffffeaH
  0015b	eb 3e		 jmp	 SHORT $LN1@operator
$LN86@operator:
  0015d	c6 45 f2 eb	 mov	 BYTE PTR __t$[ebp+10], -21 ; ffffffebH
  00161	eb 38		 jmp	 SHORT $LN1@operator
$LN87@operator:
  00163	88 4d f1	 mov	 BYTE PTR __t$[ebp+9], cl
  00166	eb 33		 jmp	 SHORT $LN1@operator
$LN88@operator:
  00168	c6 45 f0 ed	 mov	 BYTE PTR __t$[ebp+8], -19 ; ffffffedH
  0016c	eb 2d		 jmp	 SHORT $LN1@operator
$LN89@operator:
  0016e	c6 45 ef ea	 mov	 BYTE PTR __t$[ebp+7], -22 ; ffffffeaH
  00172	eb 27		 jmp	 SHORT $LN1@operator
$LN90@operator:
  00174	c6 45 ee eb	 mov	 BYTE PTR __t$[ebp+6], -21 ; ffffffebH
  00178	eb 21		 jmp	 SHORT $LN1@operator
$LN91@operator:
  0017a	88 4d ed	 mov	 BYTE PTR __t$[ebp+5], cl
  0017d	eb 1c		 jmp	 SHORT $LN1@operator
$LN92@operator:
  0017f	c6 45 ec ed	 mov	 BYTE PTR __t$[ebp+4], -19 ; ffffffedH
  00183	eb 16		 jmp	 SHORT $LN1@operator
$LN93@operator:
  00185	c6 45 eb ea	 mov	 BYTE PTR __t$[ebp+3], -22 ; ffffffeaH
  00189	eb 10		 jmp	 SHORT $LN1@operator
$LN94@operator:
  0018b	c6 45 ea eb	 mov	 BYTE PTR __t$[ebp+2], -21 ; ffffffebH
  0018f	eb 0a		 jmp	 SHORT $LN1@operator
$LN95@operator:
  00191	c6 45 e9 ec	 mov	 BYTE PTR __t$[ebp+1], -20 ; ffffffecH
  00195	eb 04		 jmp	 SHORT $LN1@operator
$LN96@operator:
  00197	c6 45 e8 ed	 mov	 BYTE PTR __t$[ebp], -19	; ffffffedH
$LN1@operator:
  0019b	6a 03		 push	 3
  0019d	8d 45 e8	 lea	 eax, DWORD PTR __t$[ebp]
  001a0	c6 45 f6 00	 mov	 BYTE PTR __t$[ebp+14], 0
  001a4	5a		 pop	 edx
$LL104@operator:
  001a5	81 30 ed ec eb
	ea		 xor	 DWORD PTR [eax], -353637139 ; eaebecedH
  001ab	83 c0 04	 add	 eax, 4
  001ae	4a		 dec	 edx
  001af	75 f4		 jne	 SHORT $LL104@operator
  001b1	6a 0c		 push	 12			; 0000000cH
  001b3	58		 pop	 eax
$LL101@operator:
  001b4	8b c8		 mov	 ecx, eax
  001b6	81 e1 03 00 00
	80		 and	 ecx, -2147483645	; 80000003H
  001bc	79 05		 jns	 SHORT $LN115@operator
  001be	49		 dec	 ecx
  001bf	83 c9 fc	 or	 ecx, -4			; fffffffcH
  001c2	41		 inc	 ecx
$LN115@operator:
  001c3	b2 ed		 mov	 dl, -19			; ffffffedH
  001c5	2a d1		 sub	 dl, cl
  001c7	30 54 05 e8	 xor	 BYTE PTR __t$[ebp+eax], dl
  001cb	40		 inc	 eax
  001cc	83 f8 0e	 cmp	 eax, 14			; 0000000eH
  001cf	7c e3		 jl	 SHORT $LL101@operator
  001d1	8b cf		 mov	 ecx, edi
  001d3	8d 75 e8	 lea	 esi, DWORD PTR __t$[ebp]
  001d6	ff 15 00 00 00
	00		 call	 DWORD PTR __imp_?c_str@ioHashString@@QBEPBDXZ
$LL111@operator:
  001dc	8a 08		 mov	 cl, BYTE PTR [eax]
  001de	3a 0e		 cmp	 cl, BYTE PTR [esi]
  001e0	75 1a		 jne	 SHORT $LN112@operator
  001e2	84 c9		 test	 cl, cl
  001e4	74 12		 je	 SHORT $LN113@operator
  001e6	8a 48 01	 mov	 cl, BYTE PTR [eax+1]
  001e9	3a 4e 01	 cmp	 cl, BYTE PTR [esi+1]
  001ec	75 0e		 jne	 SHORT $LN112@operator
  001ee	83 c0 02	 add	 eax, 2
  001f1	83 c6 02	 add	 esi, 2
  001f4	84 c9		 test	 cl, cl
  001f6	75 e4		 jne	 SHORT $LL111@operator
$LN113@operator:
  001f8	33 c0		 xor	 eax, eax
  001fa	eb 05		 jmp	 SHORT $LN114@operator
$LN112@operator:
  001fc	1b c0		 sbb	 eax, eax
  001fe	83 d8 ff	 sbb	 eax, -1
$LN114@operator:
  00201	33 c9		 xor	 ecx, ecx
  00203	85 c0		 test	 eax, eax
  00205	0f 94 c0	 sete	 al

; 148  : }

  00208	8b 4d fc	 mov	 ecx, DWORD PTR __$ArrayPad$[ebp]
  0020b	5f		 pop	 edi
  0020c	33 cd		 xor	 ecx, ebp
  0020e	5e		 pop	 esi
  0020f	e8 00 00 00 00	 call	 @__security_check_cookie@4
  00214	c9		 leave
  00215	c3		 ret	 0
??$?8$0P@@@YA_NABVioHashString@@AAY0P@$$CBD@Z ENDP	; operator==<15>
_TEXT	ENDS
PUBLIC	__$ArrayPad$
PUBLIC	??$?8$0BD@@@YA_NABVioHashString@@AAY0BD@$$CBD@Z	; operator==<19>
; Function compile flags: /Ogsp
;	COMDAT ??$?8$0BD@@@YA_NABVioHashString@@AAY0BD@$$CBD@Z
_TEXT	SEGMENT
__t$ = -28						; size = 19
__$ArrayPad$ = -4					; size = 4
_lhs$ = 8						; size = 4
_t$ = 12						; size = 4
??$?8$0BD@@@YA_NABVioHashString@@AAY0BD@$$CBD@Z PROC	; operator==<19>, COMDAT

; 146  : {

  00000	55		 push	 ebp
  00001	8b ec		 mov	 ebp, esp
  00003	83 ec 1c	 sub	 esp, 28			; 0000001cH
  00006	a1 00 00 00 00	 mov	 eax, DWORD PTR ___security_cookie
  0000b	33 c5		 xor	 eax, ebp
  0000d	89 45 fc	 mov	 DWORD PTR __$ArrayPad$[ebp], eax
  00010	8b 45 0c	 mov	 eax, DWORD PTR _t$[ebp]

; 147  : 	_ENCSTR(t, _t); return ( strcmp( lhs.c_str(), _t ) == 0 );

  00013	8a 10		 mov	 dl, BYTE PTR [eax]
  00015	56		 push	 esi
  00016	57		 push	 edi
  00017	8b 7d 08	 mov	 edi, DWORD PTR _lhs$[ebp]
  0001a	84 d2		 test	 dl, dl
  0001c	0f 84 cf 01 00
	00		 je	 $LN96@operator@2
  00022	80 f2 ed	 xor	 dl, -19			; ffffffedH
  00025	88 55 e4	 mov	 BYTE PTR __t$[ebp], dl
  00028	8a 50 01	 mov	 dl, BYTE PTR [eax+1]
  0002b	84 d2		 test	 dl, dl
  0002d	0f 84 b8 01 00
	00		 je	 $LN95@operator@2
  00033	b1 ec		 mov	 cl, -20			; ffffffecH
  00035	32 d1		 xor	 dl, cl
  00037	88 55 e5	 mov	 BYTE PTR __t$[ebp+1], dl
  0003a	8a 50 02	 mov	 dl, BYTE PTR [eax+2]
  0003d	84 d2		 test	 dl, dl
  0003f	0f 84 a0 01 00
	00		 je	 $LN94@operator@2
  00045	80 f2 eb	 xor	 dl, -21			; ffffffebH
  00048	88 55 e6	 mov	 BYTE PTR __t$[ebp+2], dl
  0004b	8a 50 03	 mov	 dl, BYTE PTR [eax+3]
  0004e	84 d2		 test	 dl, dl
  00050	0f 84 89 01 00
	00		 je	 $LN93@operator@2
  00056	80 f2 ea	 xor	 dl, -22			; ffffffeaH
  00059	88 55 e7	 mov	 BYTE PTR __t$[ebp+3], dl
  0005c	8a 50 04	 mov	 dl, BYTE PTR [eax+4]
  0005f	84 d2		 test	 dl, dl
  00061	0f 84 72 01 00
	00		 je	 $LN92@operator@2
  00067	80 f2 ed	 xor	 dl, -19			; ffffffedH
  0006a	88 55 e8	 mov	 BYTE PTR __t$[ebp+4], dl
  0006d	8a 50 05	 mov	 dl, BYTE PTR [eax+5]
  00070	84 d2		 test	 dl, dl
  00072	0f 84 5c 01 00
	00		 je	 $LN91@operator@2
  00078	32 d1		 xor	 dl, cl
  0007a	88 55 e9	 mov	 BYTE PTR __t$[ebp+5], dl
  0007d	8a 50 06	 mov	 dl, BYTE PTR [eax+6]
  00080	84 d2		 test	 dl, dl
  00082	0f 84 46 01 00
	00		 je	 $LN90@operator@2
  00088	80 f2 eb	 xor	 dl, -21			; ffffffebH
  0008b	88 55 ea	 mov	 BYTE PTR __t$[ebp+6], dl
  0008e	8a 50 07	 mov	 dl, BYTE PTR [eax+7]
  00091	84 d2		 test	 dl, dl
  00093	0f 84 2f 01 00
	00		 je	 $LN89@operator@2
  00099	80 f2 ea	 xor	 dl, -22			; ffffffeaH
  0009c	88 55 eb	 mov	 BYTE PTR __t$[ebp+7], dl
  0009f	8a 50 08	 mov	 dl, BYTE PTR [eax+8]
  000a2	84 d2		 test	 dl, dl
  000a4	0f 84 18 01 00
	00		 je	 $LN88@operator@2
  000aa	80 f2 ed	 xor	 dl, -19			; ffffffedH
  000ad	88 55 ec	 mov	 BYTE PTR __t$[ebp+8], dl
  000b0	8a 50 09	 mov	 dl, BYTE PTR [eax+9]
  000b3	84 d2		 test	 dl, dl
  000b5	0f 84 02 01 00
	00		 je	 $LN87@operator@2
  000bb	32 d1		 xor	 dl, cl
  000bd	88 55 ed	 mov	 BYTE PTR __t$[ebp+9], dl
  000c0	8a 50 0a	 mov	 dl, BYTE PTR [eax+10]
  000c3	84 d2		 test	 dl, dl
  000c5	0f 84 ec 00 00
	00		 je	 $LN86@operator@2
  000cb	80 f2 eb	 xor	 dl, -21			; ffffffebH
  000ce	88 55 ee	 mov	 BYTE PTR __t$[ebp+10], dl
  000d1	8a 50 0b	 mov	 dl, BYTE PTR [eax+11]
  000d4	84 d2		 test	 dl, dl
  000d6	0f 84 d5 00 00
	00		 je	 $LN85@operator@2
  000dc	80 f2 ea	 xor	 dl, -22			; ffffffeaH
  000df	88 55 ef	 mov	 BYTE PTR __t$[ebp+11], dl
  000e2	8a 50 0c	 mov	 dl, BYTE PTR [eax+12]
  000e5	84 d2		 test	 dl, dl
  000e7	0f 84 be 00 00
	00		 je	 $LN84@operator@2
  000ed	80 f2 ed	 xor	 dl, -19			; ffffffedH
  000f0	88 55 f0	 mov	 BYTE PTR __t$[ebp+12], dl
  000f3	8a 50 0d	 mov	 dl, BYTE PTR [eax+13]
  000f6	84 d2		 test	 dl, dl
  000f8	0f 84 a8 00 00
	00		 je	 $LN83@operator@2
  000fe	32 d1		 xor	 dl, cl
  00100	88 55 f1	 mov	 BYTE PTR __t$[ebp+13], dl
  00103	8a 50 0e	 mov	 dl, BYTE PTR [eax+14]
  00106	84 d2		 test	 dl, dl
  00108	0f 84 92 00 00
	00		 je	 $LN82@operator@2
  0010e	80 f2 eb	 xor	 dl, -21			; ffffffebH
  00111	88 55 f2	 mov	 BYTE PTR __t$[ebp+14], dl
  00114	8a 50 0f	 mov	 dl, BYTE PTR [eax+15]
  00117	84 d2		 test	 dl, dl
  00119	74 7f		 je	 SHORT $LN81@operator@2
  0011b	80 f2 ea	 xor	 dl, -22			; ffffffeaH
  0011e	88 55 f3	 mov	 BYTE PTR __t$[ebp+15], dl
  00121	8a 50 10	 mov	 dl, BYTE PTR [eax+16]
  00124	84 d2		 test	 dl, dl
  00126	74 6c		 je	 SHORT $LN80@operator@2
  00128	80 f2 ed	 xor	 dl, -19			; ffffffedH
  0012b	88 55 f4	 mov	 BYTE PTR __t$[ebp+16], dl
  0012e	8a 50 11	 mov	 dl, BYTE PTR [eax+17]
  00131	84 d2		 test	 dl, dl
  00133	74 5a		 je	 SHORT $LN79@operator@2
  00135	32 d1		 xor	 dl, cl
  00137	80 78 12 00	 cmp	 BYTE PTR [eax+18], 0
  0013b	88 55 f5	 mov	 BYTE PTR __t$[ebp+17], dl
  0013e	0f 84 b1 00 00
	00		 je	 $LN1@operator@2
  00144	8a 50 13	 mov	 dl, BYTE PTR [eax+19]
  00147	84 d2		 test	 dl, dl
  00149	74 3e		 je	 SHORT $LN77@operator@2
  0014b	80 f2 ea	 xor	 dl, -22			; ffffffeaH
  0014e	88 55 f7	 mov	 BYTE PTR __t$[ebp+19], dl
  00151	8a 50 14	 mov	 dl, BYTE PTR [eax+20]
  00154	84 d2		 test	 dl, dl
  00156	74 2b		 je	 SHORT $LN76@operator@2
  00158	80 f2 ed	 xor	 dl, -19			; ffffffedH
  0015b	88 55 f8	 mov	 BYTE PTR __t$[ebp+20], dl
  0015e	8a 50 15	 mov	 dl, BYTE PTR [eax+21]
  00161	84 d2		 test	 dl, dl
  00163	74 19		 je	 SHORT $LN75@operator@2
  00165	8a 40 16	 mov	 al, BYTE PTR [eax+22]
  00168	32 d1		 xor	 dl, cl
  0016a	88 55 f9	 mov	 BYTE PTR __t$[ebp+21], dl
  0016d	84 c0		 test	 al, al
  0016f	74 07		 je	 SHORT $LN74@operator@2
  00171	34 eb		 xor	 al, -21			; ffffffebH
  00173	88 45 fa	 mov	 BYTE PTR __t$[ebp+22], al
  00176	eb 7d		 jmp	 SHORT $LN1@operator@2
$LN74@operator@2:
  00178	c6 45 fa eb	 mov	 BYTE PTR __t$[ebp+22], -21 ; ffffffebH
  0017c	eb 77		 jmp	 SHORT $LN1@operator@2
$LN75@operator@2:
  0017e	88 4d f9	 mov	 BYTE PTR __t$[ebp+21], cl
  00181	eb 72		 jmp	 SHORT $LN1@operator@2
$LN76@operator@2:
  00183	c6 45 f8 ed	 mov	 BYTE PTR __t$[ebp+20], -19 ; ffffffedH
  00187	eb 6c		 jmp	 SHORT $LN1@operator@2
$LN77@operator@2:
  00189	c6 45 f7 ea	 mov	 BYTE PTR __t$[ebp+19], -22 ; ffffffeaH
  0018d	eb 66		 jmp	 SHORT $LN1@operator@2
$LN79@operator@2:
  0018f	88 4d f5	 mov	 BYTE PTR __t$[ebp+17], cl
  00192	eb 61		 jmp	 SHORT $LN1@operator@2
$LN80@operator@2:
  00194	c6 45 f4 ed	 mov	 BYTE PTR __t$[ebp+16], -19 ; ffffffedH
  00198	eb 5b		 jmp	 SHORT $LN1@operator@2
$LN81@operator@2:
  0019a	c6 45 f3 ea	 mov	 BYTE PTR __t$[ebp+15], -22 ; ffffffeaH
  0019e	eb 55		 jmp	 SHORT $LN1@operator@2
$LN82@operator@2:
  001a0	c6 45 f2 eb	 mov	 BYTE PTR __t$[ebp+14], -21 ; ffffffebH
  001a4	eb 4f		 jmp	 SHORT $LN1@operator@2
$LN83@operator@2:
  001a6	88 4d f1	 mov	 BYTE PTR __t$[ebp+13], cl
  001a9	eb 4a		 jmp	 SHORT $LN1@operator@2
$LN84@operator@2:
  001ab	c6 45 f0 ed	 mov	 BYTE PTR __t$[ebp+12], -19 ; ffffffedH
  001af	eb 44		 jmp	 SHORT $LN1@operator@2
$LN85@operator@2:
  001b1	c6 45 ef ea	 mov	 BYTE PTR __t$[ebp+11], -22 ; ffffffeaH
  001b5	eb 3e		 jmp	 SHORT $LN1@operator@2
$LN86@operator@2:
  001b7	c6 45 ee eb	 mov	 BYTE PTR __t$[ebp+10], -21 ; ffffffebH
  001bb	eb 38		 jmp	 SHORT $LN1@operator@2
$LN87@operator@2:
  001bd	88 4d ed	 mov	 BYTE PTR __t$[ebp+9], cl
  001c0	eb 33		 jmp	 SHORT $LN1@operator@2
$LN88@operator@2:
  001c2	c6 45 ec ed	 mov	 BYTE PTR __t$[ebp+8], -19 ; ffffffedH
  001c6	eb 2d		 jmp	 SHORT $LN1@operator@2
$LN89@operator@2:
  001c8	c6 45 eb ea	 mov	 BYTE PTR __t$[ebp+7], -22 ; ffffffeaH
  001cc	eb 27		 jmp	 SHORT $LN1@operator@2
$LN90@operator@2:
  001ce	c6 45 ea eb	 mov	 BYTE PTR __t$[ebp+6], -21 ; ffffffebH
  001d2	eb 21		 jmp	 SHORT $LN1@operator@2
$LN91@operator@2:
  001d4	88 4d e9	 mov	 BYTE PTR __t$[ebp+5], cl
  001d7	eb 1c		 jmp	 SHORT $LN1@operator@2
$LN92@operator@2:
  001d9	c6 45 e8 ed	 mov	 BYTE PTR __t$[ebp+4], -19 ; ffffffedH
  001dd	eb 16		 jmp	 SHORT $LN1@operator@2
$LN93@operator@2:
  001df	c6 45 e7 ea	 mov	 BYTE PTR __t$[ebp+3], -22 ; ffffffeaH
  001e3	eb 10		 jmp	 SHORT $LN1@operator@2
$LN94@operator@2:
  001e5	c6 45 e6 eb	 mov	 BYTE PTR __t$[ebp+2], -21 ; ffffffebH
  001e9	eb 0a		 jmp	 SHORT $LN1@operator@2
$LN95@operator@2:
  001eb	c6 45 e5 ec	 mov	 BYTE PTR __t$[ebp+1], -20 ; ffffffecH
  001ef	eb 04		 jmp	 SHORT $LN1@operator@2
$LN96@operator@2:
  001f1	c6 45 e4 ed	 mov	 BYTE PTR __t$[ebp], -19	; ffffffedH
$LN1@operator@2:
  001f5	6a 04		 push	 4
  001f7	8d 45 e4	 lea	 eax, DWORD PTR __t$[ebp]
  001fa	c6 45 f6 00	 mov	 BYTE PTR __t$[ebp+18], 0
  001fe	5a		 pop	 edx
$LL104@operator@2:
  001ff	81 30 ed ec eb
	ea		 xor	 DWORD PTR [eax], -353637139 ; eaebecedH
  00205	83 c0 04	 add	 eax, 4
  00208	4a		 dec	 edx
  00209	75 f4		 jne	 SHORT $LL104@operator@2
  0020b	6a 10		 push	 16			; 00000010H
  0020d	58		 pop	 eax
$LL101@operator@2:
  0020e	8b c8		 mov	 ecx, eax
  00210	81 e1 03 00 00
	80		 and	 ecx, -2147483645	; 80000003H
  00216	79 05		 jns	 SHORT $LN115@operator@2
  00218	49		 dec	 ecx
  00219	83 c9 fc	 or	 ecx, -4			; fffffffcH
  0021c	41		 inc	 ecx
$LN115@operator@2:
  0021d	b2 ed		 mov	 dl, -19			; ffffffedH
  0021f	2a d1		 sub	 dl, cl
  00221	30 54 05 e4	 xor	 BYTE PTR __t$[ebp+eax], dl
  00225	40		 inc	 eax
  00226	83 f8 12	 cmp	 eax, 18			; 00000012H
  00229	7c e3		 jl	 SHORT $LL101@operator@2
  0022b	8b cf		 mov	 ecx, edi
  0022d	8d 75 e4	 lea	 esi, DWORD PTR __t$[ebp]
  00230	ff 15 00 00 00
	00		 call	 DWORD PTR __imp_?c_str@ioHashString@@QBEPBDXZ
$LL111@operator@2:
  00236	8a 08		 mov	 cl, BYTE PTR [eax]
  00238	3a 0e		 cmp	 cl, BYTE PTR [esi]
  0023a	75 1a		 jne	 SHORT $LN112@operator@2
  0023c	84 c9		 test	 cl, cl
  0023e	74 12		 je	 SHORT $LN113@operator@2
  00240	8a 48 01	 mov	 cl, BYTE PTR [eax+1]
  00243	3a 4e 01	 cmp	 cl, BYTE PTR [esi+1]
  00246	75 0e		 jne	 SHORT $LN112@operator@2
  00248	83 c0 02	 add	 eax, 2
  0024b	83 c6 02	 add	 esi, 2
  0024e	84 c9		 test	 cl, cl
  00250	75 e4		 jne	 SHORT $LL111@operator@2
$LN113@operator@2:
  00252	33 c0		 xor	 eax, eax
  00254	eb 05		 jmp	 SHORT $LN114@operator@2
$LN112@operator@2:
  00256	1b c0		 sbb	 eax, eax
  00258	83 d8 ff	 sbb	 eax, -1
$LN114@operator@2:
  0025b	33 c9		 xor	 ecx, ecx
  0025d	85 c0		 test	 eax, eax
  0025f	0f 94 c0	 sete	 al

; 148  : }

  00262	8b 4d fc	 mov	 ecx, DWORD PTR __$ArrayPad$[ebp]
  00265	5f		 pop	 edi
  00266	33 cd		 xor	 ecx, ebp
  00268	5e		 pop	 esi
  00269	e8 00 00 00 00	 call	 @__security_check_cookie@4
  0026e	c9		 leave
  0026f	c3		 ret	 0
??$?8$0BD@@@YA_NABVioHashString@@AAY0BD@$$CBD@Z ENDP	; operator==<19>
_TEXT	ENDS
PUBLIC	__$ArrayPad$
PUBLIC	??$?8$0L@@@YA_NABVioHashString@@AAY0L@$$CBD@Z	; operator==<11>
; Function compile flags: /Ogsp
;	COMDAT ??$?8$0L@@@YA_NABVioHashString@@AAY0L@$$CBD@Z
_TEXT	SEGMENT
__t$ = -20						; size = 11
__$ArrayPad$ = -4					; size = 4
_lhs$ = 8						; size = 4
_t$ = 12						; size = 4
??$?8$0L@@@YA_NABVioHashString@@AAY0L@$$CBD@Z PROC	; operator==<11>, COMDAT

; 146  : {

  00000	55		 push	 ebp
  00001	8b ec		 mov	 ebp, esp
  00003	83 ec 14	 sub	 esp, 20			; 00000014H
  00006	a1 00 00 00 00	 mov	 eax, DWORD PTR ___security_cookie
  0000b	33 c5		 xor	 eax, ebp
  0000d	89 45 fc	 mov	 DWORD PTR __$ArrayPad$[ebp], eax
  00010	8b 45 0c	 mov	 eax, DWORD PTR _t$[ebp]

; 147  : 	_ENCSTR(t, _t); return ( strcmp( lhs.c_str(), _t ) == 0 );

  00013	8a 10		 mov	 dl, BYTE PTR [eax]
  00015	56		 push	 esi
  00016	57		 push	 edi
  00017	8b 7d 08	 mov	 edi, DWORD PTR _lhs$[ebp]
  0001a	84 d2		 test	 dl, dl
  0001c	0f 84 24 01 00
	00		 je	 $LN96@operator@3
  00022	80 f2 ed	 xor	 dl, -19			; ffffffedH
  00025	88 55 ec	 mov	 BYTE PTR __t$[ebp], dl
  00028	8a 50 01	 mov	 dl, BYTE PTR [eax+1]
  0002b	84 d2		 test	 dl, dl
  0002d	0f 84 0d 01 00
	00		 je	 $LN95@operator@3
  00033	80 f2 ec	 xor	 dl, -20			; ffffffecH
  00036	88 55 ed	 mov	 BYTE PTR __t$[ebp+1], dl
  00039	8a 50 02	 mov	 dl, BYTE PTR [eax+2]
  0003c	84 d2		 test	 dl, dl
  0003e	0f 84 f6 00 00
	00		 je	 $LN94@operator@3
  00044	80 f2 eb	 xor	 dl, -21			; ffffffebH
  00047	88 55 ee	 mov	 BYTE PTR __t$[ebp+2], dl
  0004a	8a 50 03	 mov	 dl, BYTE PTR [eax+3]
  0004d	84 d2		 test	 dl, dl
  0004f	0f 84 df 00 00
	00		 je	 $LN93@operator@3
  00055	80 f2 ea	 xor	 dl, -22			; ffffffeaH
  00058	88 55 ef	 mov	 BYTE PTR __t$[ebp+3], dl
  0005b	8a 50 04	 mov	 dl, BYTE PTR [eax+4]
  0005e	84 d2		 test	 dl, dl
  00060	0f 84 c8 00 00
	00		 je	 $LN92@operator@3
  00066	80 f2 ed	 xor	 dl, -19			; ffffffedH
  00069	88 55 f0	 mov	 BYTE PTR __t$[ebp+4], dl
  0006c	8a 50 05	 mov	 dl, BYTE PTR [eax+5]
  0006f	84 d2		 test	 dl, dl
  00071	0f 84 b1 00 00
	00		 je	 $LN91@operator@3
  00077	80 f2 ec	 xor	 dl, -20			; ffffffecH
  0007a	88 55 f1	 mov	 BYTE PTR __t$[ebp+5], dl
  0007d	8a 50 06	 mov	 dl, BYTE PTR [eax+6]
  00080	84 d2		 test	 dl, dl
  00082	0f 84 9a 00 00
	00		 je	 $LN90@operator@3
  00088	80 f2 eb	 xor	 dl, -21			; ffffffebH
  0008b	88 55 f2	 mov	 BYTE PTR __t$[ebp+6], dl
  0008e	8a 50 07	 mov	 dl, BYTE PTR [eax+7]
  00091	84 d2		 test	 dl, dl
  00093	0f 84 83 00 00
	00		 je	 $LN89@operator@3
  00099	80 f2 ea	 xor	 dl, -22			; ffffffeaH
  0009c	88 55 f3	 mov	 BYTE PTR __t$[ebp+7], dl
  0009f	8a 50 08	 mov	 dl, BYTE PTR [eax+8]
  000a2	84 d2		 test	 dl, dl
  000a4	74 70		 je	 SHORT $LN88@operator@3
  000a6	80 f2 ed	 xor	 dl, -19			; ffffffedH
  000a9	88 55 f4	 mov	 BYTE PTR __t$[ebp+8], dl
  000ac	8a 50 09	 mov	 dl, BYTE PTR [eax+9]
  000af	84 d2		 test	 dl, dl
  000b1	74 5d		 je	 SHORT $LN87@operator@3
  000b3	80 f2 ec	 xor	 dl, -20			; ffffffecH
  000b6	80 78 0a 00	 cmp	 BYTE PTR [eax+10], 0
  000ba	88 55 f5	 mov	 BYTE PTR __t$[ebp+9], dl
  000bd	0f 84 87 00 00
	00		 je	 $LN1@operator@3
  000c3	8a 50 0b	 mov	 dl, BYTE PTR [eax+11]
  000c6	84 d2		 test	 dl, dl
  000c8	74 40		 je	 SHORT $LN85@operator@3
  000ca	80 f2 ea	 xor	 dl, -22			; ffffffeaH
  000cd	88 55 f7	 mov	 BYTE PTR __t$[ebp+11], dl
  000d0	8a 50 0c	 mov	 dl, BYTE PTR [eax+12]
  000d3	84 d2		 test	 dl, dl
  000d5	74 2d		 je	 SHORT $LN84@operator@3
  000d7	80 f2 ed	 xor	 dl, -19			; ffffffedH
  000da	88 55 f8	 mov	 BYTE PTR __t$[ebp+12], dl
  000dd	8a 50 0d	 mov	 dl, BYTE PTR [eax+13]
  000e0	84 d2		 test	 dl, dl
  000e2	74 1a		 je	 SHORT $LN83@operator@3
  000e4	8a 40 0e	 mov	 al, BYTE PTR [eax+14]
  000e7	80 f2 ec	 xor	 dl, -20			; ffffffecH
  000ea	88 55 f9	 mov	 BYTE PTR __t$[ebp+13], dl
  000ed	84 c0		 test	 al, al
  000ef	74 07		 je	 SHORT $LN82@operator@3
  000f1	34 eb		 xor	 al, -21			; ffffffebH
  000f3	88 45 fa	 mov	 BYTE PTR __t$[ebp+14], al
  000f6	eb 52		 jmp	 SHORT $LN1@operator@3
$LN82@operator@3:
  000f8	c6 45 fa eb	 mov	 BYTE PTR __t$[ebp+14], -21 ; ffffffebH
  000fc	eb 4c		 jmp	 SHORT $LN1@operator@3
$LN83@operator@3:
  000fe	c6 45 f9 ec	 mov	 BYTE PTR __t$[ebp+13], -20 ; ffffffecH
  00102	eb 46		 jmp	 SHORT $LN1@operator@3
$LN84@operator@3:
  00104	c6 45 f8 ed	 mov	 BYTE PTR __t$[ebp+12], -19 ; ffffffedH
  00108	eb 40		 jmp	 SHORT $LN1@operator@3
$LN85@operator@3:
  0010a	c6 45 f7 ea	 mov	 BYTE PTR __t$[ebp+11], -22 ; ffffffeaH
  0010e	eb 3a		 jmp	 SHORT $LN1@operator@3
$LN87@operator@3:
  00110	c6 45 f5 ec	 mov	 BYTE PTR __t$[ebp+9], -20 ; ffffffecH
  00114	eb 34		 jmp	 SHORT $LN1@operator@3
$LN88@operator@3:
  00116	c6 45 f4 ed	 mov	 BYTE PTR __t$[ebp+8], -19 ; ffffffedH
  0011a	eb 2e		 jmp	 SHORT $LN1@operator@3
$LN89@operator@3:
  0011c	c6 45 f3 ea	 mov	 BYTE PTR __t$[ebp+7], -22 ; ffffffeaH
  00120	eb 28		 jmp	 SHORT $LN1@operator@3
$LN90@operator@3:
  00122	c6 45 f2 eb	 mov	 BYTE PTR __t$[ebp+6], -21 ; ffffffebH
  00126	eb 22		 jmp	 SHORT $LN1@operator@3
$LN91@operator@3:
  00128	c6 45 f1 ec	 mov	 BYTE PTR __t$[ebp+5], -20 ; ffffffecH
  0012c	eb 1c		 jmp	 SHORT $LN1@operator@3
$LN92@operator@3:
  0012e	c6 45 f0 ed	 mov	 BYTE PTR __t$[ebp+4], -19 ; ffffffedH
  00132	eb 16		 jmp	 SHORT $LN1@operator@3
$LN93@operator@3:
  00134	c6 45 ef ea	 mov	 BYTE PTR __t$[ebp+3], -22 ; ffffffeaH
  00138	eb 10		 jmp	 SHORT $LN1@operator@3
$LN94@operator@3:
  0013a	c6 45 ee eb	 mov	 BYTE PTR __t$[ebp+2], -21 ; ffffffebH
  0013e	eb 0a		 jmp	 SHORT $LN1@operator@3
$LN95@operator@3:
  00140	c6 45 ed ec	 mov	 BYTE PTR __t$[ebp+1], -20 ; ffffffecH
  00144	eb 04		 jmp	 SHORT $LN1@operator@3
$LN96@operator@3:
  00146	c6 45 ec ed	 mov	 BYTE PTR __t$[ebp], -19	; ffffffedH
$LN1@operator@3:
  0014a	6a 02		 push	 2
  0014c	8d 45 ec	 lea	 eax, DWORD PTR __t$[ebp]
  0014f	c6 45 f6 00	 mov	 BYTE PTR __t$[ebp+10], 0
  00153	5a		 pop	 edx
$LL104@operator@3:
  00154	81 30 ed ec eb
	ea		 xor	 DWORD PTR [eax], -353637139 ; eaebecedH
  0015a	83 c0 04	 add	 eax, 4
  0015d	4a		 dec	 edx
  0015e	75 f4		 jne	 SHORT $LL104@operator@3
  00160	6a 08		 push	 8
  00162	58		 pop	 eax
$LL101@operator@3:
  00163	8b c8		 mov	 ecx, eax
  00165	81 e1 03 00 00
	80		 and	 ecx, -2147483645	; 80000003H
  0016b	79 05		 jns	 SHORT $LN115@operator@3
  0016d	49		 dec	 ecx
  0016e	83 c9 fc	 or	 ecx, -4			; fffffffcH
  00171	41		 inc	 ecx
$LN115@operator@3:
  00172	b2 ed		 mov	 dl, -19			; ffffffedH
  00174	2a d1		 sub	 dl, cl
  00176	30 54 05 ec	 xor	 BYTE PTR __t$[ebp+eax], dl
  0017a	40		 inc	 eax
  0017b	83 f8 0a	 cmp	 eax, 10			; 0000000aH
  0017e	7c e3		 jl	 SHORT $LL101@operator@3
  00180	8b cf		 mov	 ecx, edi
  00182	8d 75 ec	 lea	 esi, DWORD PTR __t$[ebp]
  00185	ff 15 00 00 00
	00		 call	 DWORD PTR __imp_?c_str@ioHashString@@QBEPBDXZ
$LL111@operator@3:
  0018b	8a 08		 mov	 cl, BYTE PTR [eax]
  0018d	3a 0e		 cmp	 cl, BYTE PTR [esi]
  0018f	75 1a		 jne	 SHORT $LN112@operator@3
  00191	84 c9		 test	 cl, cl
  00193	74 12		 je	 SHORT $LN113@operator@3
  00195	8a 48 01	 mov	 cl, BYTE PTR [eax+1]
  00198	3a 4e 01	 cmp	 cl, BYTE PTR [esi+1]
  0019b	75 0e		 jne	 SHORT $LN112@operator@3
  0019d	83 c0 02	 add	 eax, 2
  001a0	83 c6 02	 add	 esi, 2
  001a3	84 c9		 test	 cl, cl
  001a5	75 e4		 jne	 SHORT $LL111@operator@3
$LN113@operator@3:
  001a7	33 c0		 xor	 eax, eax
  001a9	eb 05		 jmp	 SHORT $LN114@operator@3
$LN112@operator@3:
  001ab	1b c0		 sbb	 eax, eax
  001ad	83 d8 ff	 sbb	 eax, -1
$LN114@operator@3:
  001b0	33 c9		 xor	 ecx, ecx
  001b2	85 c0		 test	 eax, eax
  001b4	0f 94 c0	 sete	 al

; 148  : }

  001b7	8b 4d fc	 mov	 ecx, DWORD PTR __$ArrayPad$[ebp]
  001ba	5f		 pop	 edi
  001bb	33 cd		 xor	 ecx, ebp
  001bd	5e		 pop	 esi
  001be	e8 00 00 00 00	 call	 @__security_check_cookie@4
  001c3	c9		 leave
  001c4	c3		 ret	 0
??$?8$0L@@@YA_NABVioHashString@@AAY0L@$$CBD@Z ENDP	; operator==<11>
_TEXT	ENDS
PUBLIC	__$ArrayPad$
PUBLIC	??$?8$09@@YA_NABVioHashString@@AAY09$$CBD@Z	; operator==<10>
; Function compile flags: /Ogsp
;	COMDAT ??$?8$09@@YA_NABVioHashString@@AAY09$$CBD@Z
_TEXT	SEGMENT
__t$ = -20						; size = 10
__$ArrayPad$ = -4					; size = 4
_lhs$ = 8						; size = 4
_t$ = 12						; size = 4
??$?8$09@@YA_NABVioHashString@@AAY09$$CBD@Z PROC	; operator==<10>, COMDAT

; 146  : {

  00000	55		 push	 ebp
  00001	8b ec		 mov	 ebp, esp
  00003	83 ec 14	 sub	 esp, 20			; 00000014H
  00006	a1 00 00 00 00	 mov	 eax, DWORD PTR ___security_cookie
  0000b	33 c5		 xor	 eax, ebp
  0000d	89 45 fc	 mov	 DWORD PTR __$ArrayPad$[ebp], eax
  00010	8b 45 0c	 mov	 eax, DWORD PTR _t$[ebp]

; 147  : 	_ENCSTR(t, _t); return ( strcmp( lhs.c_str(), _t ) == 0 );

  00013	8a 10		 mov	 dl, BYTE PTR [eax]
  00015	8b 4d 08	 mov	 ecx, DWORD PTR _lhs$[ebp]
  00018	84 d2		 test	 dl, dl
  0001a	0f 84 0d 01 00
	00		 je	 $LN96@operator@4
  00020	80 f2 ed	 xor	 dl, -19			; ffffffedH
  00023	88 55 ec	 mov	 BYTE PTR __t$[ebp], dl
  00026	8a 50 01	 mov	 dl, BYTE PTR [eax+1]
  00029	84 d2		 test	 dl, dl
  0002b	0f 84 f6 00 00
	00		 je	 $LN95@operator@4
  00031	80 f2 ec	 xor	 dl, -20			; ffffffecH
  00034	88 55 ed	 mov	 BYTE PTR __t$[ebp+1], dl
  00037	8a 50 02	 mov	 dl, BYTE PTR [eax+2]
  0003a	84 d2		 test	 dl, dl
  0003c	0f 84 df 00 00
	00		 je	 $LN94@operator@4
  00042	80 f2 eb	 xor	 dl, -21			; ffffffebH
  00045	88 55 ee	 mov	 BYTE PTR __t$[ebp+2], dl
  00048	8a 50 03	 mov	 dl, BYTE PTR [eax+3]
  0004b	84 d2		 test	 dl, dl
  0004d	0f 84 c8 00 00
	00		 je	 $LN93@operator@4
  00053	80 f2 ea	 xor	 dl, -22			; ffffffeaH
  00056	88 55 ef	 mov	 BYTE PTR __t$[ebp+3], dl
  00059	8a 50 04	 mov	 dl, BYTE PTR [eax+4]
  0005c	84 d2		 test	 dl, dl
  0005e	0f 84 b1 00 00
	00		 je	 $LN92@operator@4
  00064	80 f2 ed	 xor	 dl, -19			; ffffffedH
  00067	88 55 f0	 mov	 BYTE PTR __t$[ebp+4], dl
  0006a	8a 50 05	 mov	 dl, BYTE PTR [eax+5]
  0006d	84 d2		 test	 dl, dl
  0006f	0f 84 9a 00 00
	00		 je	 $LN91@operator@4
  00075	80 f2 ec	 xor	 dl, -20			; ffffffecH
  00078	88 55 f1	 mov	 BYTE PTR __t$[ebp+5], dl
  0007b	8a 50 06	 mov	 dl, BYTE PTR [eax+6]
  0007e	84 d2		 test	 dl, dl
  00080	0f 84 83 00 00
	00		 je	 $LN90@operator@4
  00086	80 f2 eb	 xor	 dl, -21			; ffffffebH
  00089	88 55 f2	 mov	 BYTE PTR __t$[ebp+6], dl
  0008c	8a 50 07	 mov	 dl, BYTE PTR [eax+7]
  0008f	84 d2		 test	 dl, dl
  00091	74 70		 je	 SHORT $LN89@operator@4
  00093	80 f2 ea	 xor	 dl, -22			; ffffffeaH
  00096	88 55 f3	 mov	 BYTE PTR __t$[ebp+7], dl
  00099	8a 50 08	 mov	 dl, BYTE PTR [eax+8]
  0009c	84 d2		 test	 dl, dl
  0009e	74 5d		 je	 SHORT $LN88@operator@4
  000a0	80 f2 ed	 xor	 dl, -19			; ffffffedH
  000a3	80 78 09 00	 cmp	 BYTE PTR [eax+9], 0
  000a7	88 55 f4	 mov	 BYTE PTR __t$[ebp+8], dl
  000aa	0f 84 81 00 00
	00		 je	 $LN1@operator@4
  000b0	8a 50 0a	 mov	 dl, BYTE PTR [eax+10]
  000b3	84 d2		 test	 dl, dl
  000b5	74 40		 je	 SHORT $LN86@operator@4
  000b7	80 f2 eb	 xor	 dl, -21			; ffffffebH
  000ba	88 55 f6	 mov	 BYTE PTR __t$[ebp+10], dl
  000bd	8a 50 0b	 mov	 dl, BYTE PTR [eax+11]
  000c0	84 d2		 test	 dl, dl
  000c2	74 2d		 je	 SHORT $LN85@operator@4
  000c4	80 f2 ea	 xor	 dl, -22			; ffffffeaH
  000c7	88 55 f7	 mov	 BYTE PTR __t$[ebp+11], dl
  000ca	8a 50 0c	 mov	 dl, BYTE PTR [eax+12]
  000cd	84 d2		 test	 dl, dl
  000cf	74 1a		 je	 SHORT $LN84@operator@4
  000d1	8a 40 0d	 mov	 al, BYTE PTR [eax+13]
  000d4	80 f2 ed	 xor	 dl, -19			; ffffffedH
  000d7	88 55 f8	 mov	 BYTE PTR __t$[ebp+12], dl
  000da	84 c0		 test	 al, al
  000dc	74 07		 je	 SHORT $LN83@operator@4
  000de	34 ec		 xor	 al, -20			; ffffffecH
  000e0	88 45 f9	 mov	 BYTE PTR __t$[ebp+13], al
  000e3	eb 4c		 jmp	 SHORT $LN1@operator@4
$LN83@operator@4:
  000e5	c6 45 f9 ec	 mov	 BYTE PTR __t$[ebp+13], -20 ; ffffffecH
  000e9	eb 46		 jmp	 SHORT $LN1@operator@4
$LN84@operator@4:
  000eb	c6 45 f8 ed	 mov	 BYTE PTR __t$[ebp+12], -19 ; ffffffedH
  000ef	eb 40		 jmp	 SHORT $LN1@operator@4
$LN85@operator@4:
  000f1	c6 45 f7 ea	 mov	 BYTE PTR __t$[ebp+11], -22 ; ffffffeaH
  000f5	eb 3a		 jmp	 SHORT $LN1@operator@4
$LN86@operator@4:
  000f7	c6 45 f6 eb	 mov	 BYTE PTR __t$[ebp+10], -21 ; ffffffebH
  000fb	eb 34		 jmp	 SHORT $LN1@operator@4
$LN88@operator@4:
  000fd	c6 45 f4 ed	 mov	 BYTE PTR __t$[ebp+8], -19 ; ffffffedH
  00101	eb 2e		 jmp	 SHORT $LN1@operator@4
$LN89@operator@4:
  00103	c6 45 f3 ea	 mov	 BYTE PTR __t$[ebp+7], -22 ; ffffffeaH
  00107	eb 28		 jmp	 SHORT $LN1@operator@4
$LN90@operator@4:
  00109	c6 45 f2 eb	 mov	 BYTE PTR __t$[ebp+6], -21 ; ffffffebH
  0010d	eb 22		 jmp	 SHORT $LN1@operator@4
$LN91@operator@4:
  0010f	c6 45 f1 ec	 mov	 BYTE PTR __t$[ebp+5], -20 ; ffffffecH
  00113	eb 1c		 jmp	 SHORT $LN1@operator@4
$LN92@operator@4:
  00115	c6 45 f0 ed	 mov	 BYTE PTR __t$[ebp+4], -19 ; ffffffedH
  00119	eb 16		 jmp	 SHORT $LN1@operator@4
$LN93@operator@4:
  0011b	c6 45 ef ea	 mov	 BYTE PTR __t$[ebp+3], -22 ; ffffffeaH
  0011f	eb 10		 jmp	 SHORT $LN1@operator@4
$LN94@operator@4:
  00121	c6 45 ee eb	 mov	 BYTE PTR __t$[ebp+2], -21 ; ffffffebH
  00125	eb 0a		 jmp	 SHORT $LN1@operator@4
$LN95@operator@4:
  00127	c6 45 ed ec	 mov	 BYTE PTR __t$[ebp+1], -20 ; ffffffecH
  0012b	eb 04		 jmp	 SHORT $LN1@operator@4
$LN96@operator@4:
  0012d	c6 45 ec ed	 mov	 BYTE PTR __t$[ebp], -19	; ffffffedH
$LN1@operator@4:
  00131	6a 02		 push	 2
  00133	8d 45 ec	 lea	 eax, DWORD PTR __t$[ebp]
  00136	c6 45 f5 00	 mov	 BYTE PTR __t$[ebp+9], 0
  0013a	5a		 pop	 edx
$LL104@operator@4:
  0013b	81 30 ed ec eb
	ea		 xor	 DWORD PTR [eax], -353637139 ; eaebecedH
  00141	83 c0 04	 add	 eax, 4
  00144	4a		 dec	 edx
  00145	75 f4		 jne	 SHORT $LL104@operator@4
  00147	80 75 f4 ed	 xor	 BYTE PTR __t$[ebp+8], -19 ; ffffffedH
  0014b	56		 push	 esi
  0014c	8d 75 ec	 lea	 esi, DWORD PTR __t$[ebp]
  0014f	ff 15 00 00 00
	00		 call	 DWORD PTR __imp_?c_str@ioHashString@@QBEPBDXZ
$LL111@operator@4:
  00155	8a 08		 mov	 cl, BYTE PTR [eax]
  00157	3a 0e		 cmp	 cl, BYTE PTR [esi]
  00159	75 1a		 jne	 SHORT $LN112@operator@4
  0015b	84 c9		 test	 cl, cl
  0015d	74 12		 je	 SHORT $LN113@operator@4
  0015f	8a 48 01	 mov	 cl, BYTE PTR [eax+1]
  00162	3a 4e 01	 cmp	 cl, BYTE PTR [esi+1]
  00165	75 0e		 jne	 SHORT $LN112@operator@4
  00167	83 c0 02	 add	 eax, 2
  0016a	83 c6 02	 add	 esi, 2
  0016d	84 c9		 test	 cl, cl
  0016f	75 e4		 jne	 SHORT $LL111@operator@4
$LN113@operator@4:
  00171	33 c0		 xor	 eax, eax
  00173	eb 05		 jmp	 SHORT $LN114@operator@4
$LN112@operator@4:
  00175	1b c0		 sbb	 eax, eax
  00177	83 d8 ff	 sbb	 eax, -1
$LN114@operator@4:
  0017a	33 c9		 xor	 ecx, ecx
  0017c	85 c0		 test	 eax, eax
  0017e	0f 94 c0	 sete	 al

; 148  : }

  00181	8b 4d fc	 mov	 ecx, DWORD PTR __$ArrayPad$[ebp]
  00184	33 cd		 xor	 ecx, ebp
  00186	5e		 pop	 esi
  00187	e8 00 00 00 00	 call	 @__security_check_cookie@4
  0018c	c9		 leave
  0018d	c3		 ret	 0
??$?8$09@@YA_NABVioHashString@@AAY09$$CBD@Z ENDP	; operator==<10>
_TEXT	ENDS
PUBLIC	??$construct@AAVioHashString@@@?$allocator@VioHashString@@@std@@QAEXPAVioHashString@@AAV2@@Z ; std::allocator<ioHashString>::construct<ioHashString &>
;	COMDAT xdata$x
; File c:\program files (x86)\microsoft visual studio 10.0\vc\include\utility
xdata$x	SEGMENT
__unwindtable$??$construct@AAVioHashString@@@?$allocator@VioHashString@@@std@@QAEXPAVioHashString@@AAV2@@Z DD 0ffffffffH
	DD	FLAT:__unwindfunclet$??$construct@AAVioHashString@@@?$allocator@VioHashString@@@std@@QAEXPAVioHashString@@AAV2@@Z$0
__ehfuncinfo$??$construct@AAVioHashString@@@?$allocator@VioHashString@@@std@@QAEXPAVioHashString@@AAV2@@Z DD 019930522H
	DD	01H
	DD	FLAT:__unwindtable$??$construct@AAVioHashString@@@?$allocator@VioHashString@@@std@@QAEXPAVioHashString@@AAV2@@Z
	DD	2 DUP(00H)
	DD	2 DUP(00H)
	DD	00H
	DD	01H
; Function compile flags: /Ogsp
; File c:\program files (x86)\microsoft visual studio 10.0\vc\include\xmemory
xdata$x	ENDS
;	COMDAT ??$construct@AAVioHashString@@@?$allocator@VioHashString@@@std@@QAEXPAVioHashString@@AAV2@@Z
_TEXT	SEGMENT
$T529648 = -16						; size = 4
__$EHRec$ = -12						; size = 12
__Ptr$ = 8						; size = 4
__Val$ = 12						; size = 4
??$construct@AAVioHashString@@@?$allocator@VioHashString@@@std@@QAEXPAVioHashString@@AAV2@@Z PROC ; std::allocator<ioHashString>::construct<ioHashString &>, COMDAT
; _this$ = ecx

; 206  : 		void construct(pointer _Ptr, _Other&& _Val)

  00000	6a 04		 push	 4
  00002	b8 00 00 00 00	 mov	 eax, __ehhandler$??$construct@AAVioHashString@@@?$allocator@VioHashString@@@std@@QAEXPAVioHashString@@AAV2@@Z
  00007	e8 00 00 00 00	 call	 __EH_prolog3

; 207  : 		{	// construct object at _Ptr with value _Val
; 208  : 		::new ((void _FARQ *)_Ptr) _Ty(_STD forward<_Other>(_Val));

  0000c	8b 4d 08	 mov	 ecx, DWORD PTR __Ptr$[ebp]
  0000f	89 4d f0	 mov	 DWORD PTR $T529648[ebp], ecx
  00012	83 65 fc 00	 and	 DWORD PTR __$EHRec$[ebp+8], 0
  00016	85 c9		 test	 ecx, ecx
  00018	74 09		 je	 SHORT $LN3@construct
  0001a	ff 75 0c	 push	 DWORD PTR __Val$[ebp]
  0001d	ff 15 00 00 00
	00		 call	 DWORD PTR __imp_??0ioHashString@@QAE@ABV0@@Z
$LN3@construct:

; 209  : 		}

  00023	e8 00 00 00 00	 call	 __EH_epilog3
  00028	c2 08 00	 ret	 8
_TEXT	ENDS
;	COMDAT text$x
text$x	SEGMENT
__unwindfunclet$??$construct@AAVioHashString@@@?$allocator@VioHashString@@@std@@QAEXPAVioHashString@@AAV2@@Z$0:
  00000	ff 75 08	 push	 DWORD PTR __Ptr$[ebp]
  00003	ff 75 f0	 push	 DWORD PTR $T529648[ebp]
  00006	e8 00 00 00 00	 call	 ??3@YAXPAX0@Z		; operator delete
  0000b	59		 pop	 ecx
  0000c	59		 pop	 ecx
  0000d	c3		 ret	 0
__ehhandler$??$construct@AAVioHashString@@@?$allocator@VioHashString@@@std@@QAEXPAVioHashString@@AAV2@@Z:
  0000e	8b 54 24 08	 mov	 edx, DWORD PTR [esp+8]
  00012	8d 42 0c	 lea	 eax, DWORD PTR [edx+12]
  00015	8b 4a ec	 mov	 ecx, DWORD PTR [edx-20]
  00018	33 c8		 xor	 ecx, eax
  0001a	e8 00 00 00 00	 call	 @__security_check_cookie@4
  0001f	b8 00 00 00 00	 mov	 eax, OFFSET __ehfuncinfo$??$construct@AAVioHashString@@@?$allocator@VioHashString@@@std@@QAEXPAVioHashString@@AAV2@@Z
  00024	e9 00 00 00 00	 jmp	 ___CxxFrameHandler3
text$x	ENDS
??$construct@AAVioHashString@@@?$allocator@VioHashString@@@std@@QAEXPAVioHashString@@AAV2@@Z ENDP ; std::allocator<ioHashString>::construct<ioHashString &>
PUBLIC	?construct@?$allocator@VioHashString@@@std@@QAEXPAVioHashString@@$$QAV3@@Z ; std::allocator<ioHashString>::construct
;	COMDAT xdata$x
; File c:\program files (x86)\microsoft visual studio 10.0\vc\include\utility
xdata$x	SEGMENT
__unwindtable$?construct@?$allocator@VioHashString@@@std@@QAEXPAVioHashString@@$$QAV3@@Z DD 0ffffffffH
	DD	FLAT:__unwindfunclet$?construct@?$allocator@VioHashString@@@std@@QAEXPAVioHashString@@$$QAV3@@Z$0
__ehfuncinfo$?construct@?$allocator@VioHashString@@@std@@QAEXPAVioHashString@@$$QAV3@@Z DD 019930522H
	DD	01H
	DD	FLAT:__unwindtable$?construct@?$allocator@VioHashString@@@std@@QAEXPAVioHashString@@$$QAV3@@Z
	DD	2 DUP(00H)
	DD	2 DUP(00H)
	DD	00H
	DD	01H
; Function compile flags: /Ogsp
; File c:\program files (x86)\microsoft visual studio 10.0\vc\include\xmemory
xdata$x	ENDS
;	COMDAT ?construct@?$allocator@VioHashString@@@std@@QAEXPAVioHashString@@$$QAV3@@Z
_TEXT	SEGMENT
$T529667 = -16						; size = 4
__$EHRec$ = -12						; size = 12
__Ptr$ = 8						; size = 4
__Val$ = 12						; size = 4
?construct@?$allocator@VioHashString@@@std@@QAEXPAVioHashString@@$$QAV3@@Z PROC ; std::allocator<ioHashString>::construct, COMDAT
; _this$ = ecx

; 201  : 		{	// construct object at _Ptr with value _Val

  00000	6a 04		 push	 4
  00002	b8 00 00 00 00	 mov	 eax, __ehhandler$?construct@?$allocator@VioHashString@@@std@@QAEXPAVioHashString@@$$QAV3@@Z
  00007	e8 00 00 00 00	 call	 __EH_prolog3

; 202  : 		::new ((void _FARQ *)_Ptr) _Ty(_STD forward<_Ty>(_Val));

  0000c	8b 4d 08	 mov	 ecx, DWORD PTR __Ptr$[ebp]
  0000f	89 4d f0	 mov	 DWORD PTR $T529667[ebp], ecx
  00012	83 65 fc 00	 and	 DWORD PTR __$EHRec$[ebp+8], 0
  00016	85 c9		 test	 ecx, ecx
  00018	74 09		 je	 SHORT $LN3@construct@2
  0001a	ff 75 0c	 push	 DWORD PTR __Val$[ebp]
  0001d	ff 15 00 00 00
	00		 call	 DWORD PTR __imp_??0ioHashString@@QAE@ABV0@@Z
$LN3@construct@2:

; 203  : 		}

  00023	e8 00 00 00 00	 call	 __EH_epilog3
  00028	c2 08 00	 ret	 8
_TEXT	ENDS
;	COMDAT text$x
text$x	SEGMENT
__unwindfunclet$?construct@?$allocator@VioHashString@@@std@@QAEXPAVioHashString@@$$QAV3@@Z$0:
  00000	ff 75 08	 push	 DWORD PTR __Ptr$[ebp]
  00003	ff 75 f0	 push	 DWORD PTR $T529667[ebp]
  00006	e8 00 00 00 00	 call	 ??3@YAXPAX0@Z		; operator delete
  0000b	59		 pop	 ecx
  0000c	59		 pop	 ecx
  0000d	c3		 ret	 0
__ehhandler$?construct@?$allocator@VioHashString@@@std@@QAEXPAVioHashString@@$$QAV3@@Z:
  0000e	8b 54 24 08	 mov	 edx, DWORD PTR [esp+8]
  00012	8d 42 0c	 lea	 eax, DWORD PTR [edx+12]
  00015	8b 4a ec	 mov	 ecx, DWORD PTR [edx-20]
  00018	33 c8		 xor	 ecx, eax
  0001a	e8 00 00 00 00	 call	 @__security_check_cookie@4
  0001f	b8 00 00 00 00	 mov	 eax, OFFSET __ehfuncinfo$?construct@?$allocator@VioHashString@@@std@@QAEXPAVioHashString@@$$QAV3@@Z
  00024	e9 00 00 00 00	 jmp	 ___CxxFrameHandler3
text$x	ENDS
?construct@?$allocator@VioHashString@@@std@@QAEXPAVioHashString@@$$QAV3@@Z ENDP ; std::allocator<ioHashString>::construct
PUBLIC	?StringCbCopyA@@YGJPADIPBD@Z			; StringCbCopyA
; Function compile flags: /Ogsp
; File c:\program files (x86)\microsoft sdks\windows\v7.0a\include\strsafe.h
;	COMDAT ?StringCbCopyA@@YGJPADIPBD@Z
_TEXT	SEGMENT
_pszDest$ = 8						; size = 4
_cbDest$ = 12						; size = 4
_pszSrc$ = 16						; size = 4
?StringCbCopyA@@YGJPADIPBD@Z PROC			; StringCbCopyA, COMDAT

; 582  : {

  00000	55		 push	 ebp
  00001	8b ec		 mov	 ebp, esp

; 583  :     HRESULT hr;
; 584  :     size_t cchDest = cbDest / sizeof(char);
; 585  : 
; 586  :     hr = StringValidateDestA(pszDest, cchDest, STRSAFE_MAX_CCH);

  00003	8b 4d 0c	 mov	 ecx, DWORD PTR _cbDest$[ebp]
  00006	33 c0		 xor	 eax, eax
  00008	85 c9		 test	 ecx, ecx
  0000a	74 08		 je	 SHORT $LN4@StringCbCo
  0000c	81 f9 ff ff ff
	7f		 cmp	 ecx, 2147483647		; 7fffffffH
  00012	76 05		 jbe	 SHORT $LN5@StringCbCo
$LN4@StringCbCo:
  00014	b8 57 00 07 80	 mov	 eax, -2147024809	; 80070057H
$LN5@StringCbCo:

; 587  : 
; 588  :     if (SUCCEEDED(hr))

  00019	85 c0		 test	 eax, eax
  0001b	78 40		 js	 SHORT $LN1@StringCbCo

; 589  :     {
; 590  :         hr = StringCopyWorkerA(pszDest,
; 591  :                                cchDest,
; 592  :                                NULL,
; 593  :                                pszSrc,
; 594  :                                STRSAFE_MAX_LENGTH);

  0001d	8b 45 08	 mov	 eax, DWORD PTR _pszDest$[ebp]
  00020	53		 push	 ebx
  00021	33 db		 xor	 ebx, ebx
  00023	56		 push	 esi
  00024	8b f1		 mov	 esi, ecx
  00026	85 c9		 test	 ecx, ecx
  00028	74 26		 je	 SHORT $LN16@StringCbCo
  0002a	8b 55 10	 mov	 edx, DWORD PTR _pszSrc$[ebp]
  0002d	57		 push	 edi
  0002e	bf fe ff ff 7f	 mov	 edi, 2147483646		; 7ffffffeH
  00033	2b f9		 sub	 edi, ecx
  00035	2b d0		 sub	 edx, eax
$LL11@StringCbCo:
  00037	8d 0c 37	 lea	 ecx, DWORD PTR [edi+esi]
  0003a	85 c9		 test	 ecx, ecx
  0003c	74 0d		 je	 SHORT $LN10@StringCbCo
  0003e	8a 0c 02	 mov	 cl, BYTE PTR [edx+eax]
  00041	84 c9		 test	 cl, cl
  00043	74 06		 je	 SHORT $LN10@StringCbCo
  00045	88 08		 mov	 BYTE PTR [eax], cl
  00047	40		 inc	 eax
  00048	4e		 dec	 esi
  00049	75 ec		 jne	 SHORT $LL11@StringCbCo
$LN10@StringCbCo:
  0004b	5f		 pop	 edi
  0004c	85 f6		 test	 esi, esi
  0004e	75 06		 jne	 SHORT $LN9@StringCbCo
$LN16@StringCbCo:
  00050	48		 dec	 eax
  00051	bb 7a 00 07 80	 mov	 ebx, -2147024774	; 8007007aH
$LN9@StringCbCo:
  00056	c6 00 00	 mov	 BYTE PTR [eax], 0
  00059	5e		 pop	 esi
  0005a	8b c3		 mov	 eax, ebx
  0005c	5b		 pop	 ebx
$LN1@StringCbCo:

; 595  :     }
; 596  : 
; 597  :     return hr;
; 598  : }

  0005d	5d		 pop	 ebp
  0005e	c2 0c 00	 ret	 12			; 0000000cH
?StringCbCopyA@@YGJPADIPBD@Z ENDP			; StringCbCopyA
_TEXT	ENDS
PUBLIC	??B?$CEncrypt@M@@QAEMXZ				; CEncrypt<float>::operator float
; Function compile flags: /Ogsp
; File d:\lost saga for developer\youtube\tutorial\source\src\lsclient\encryptvalue.h
;	COMDAT ??B?$CEncrypt@M@@QAEMXZ
_TEXT	SEGMENT
_value$ = -4						; size = 4
??B?$CEncrypt@M@@QAEMXZ PROC				; CEncrypt<float>::operator float, COMDAT
; _this$ = ecx

; 134  : 	{

  00000	55		 push	 ebp
  00001	8b ec		 mov	 ebp, esp
  00003	51		 push	 ecx

; 135  : 		type value;
; 136  : 		DecryptValueToPool(&value);

  00004	8d 45 fc	 lea	 eax, DWORD PTR _value$[ebp]
  00007	50		 push	 eax
  00008	e8 00 00 00 00	 call	 ?DecryptValueToPool@?$CEncrypt@M@@QAEXPAM@Z ; CEncrypt<float>::DecryptValueToPool

; 137  : 
; 138  : #ifdef _NOTUSE
; 139  : 		Debug();
; 140  : #endif
; 141  : 		return value;

  0000d	d9 45 fc	 fld	 DWORD PTR _value$[ebp]

; 142  : 	}

  00010	c9		 leave
  00011	c3		 ret	 0
??B?$CEncrypt@M@@QAEMXZ ENDP				; CEncrypt<float>::operator float
_TEXT	ENDS
PUBLIC	?max_size@?$vector@VioHashString@@V?$allocator@VioHashString@@@std@@@std@@QBEIXZ ; std::vector<ioHashString,std::allocator<ioHashString> >::max_size
; Function compile flags: /Ogsp
; File c:\program files (x86)\microsoft visual studio 10.0\vc\include\vector
;	COMDAT ?max_size@?$vector@VioHashString@@V?$allocator@VioHashString@@@std@@@std@@QBEIXZ
_TEXT	SEGMENT
?max_size@?$vector@VioHashString@@V?$allocator@VioHashString@@@std@@@std@@QBEIXZ PROC ; std::vector<ioHashString,std::allocator<ioHashString> >::max_size, COMDAT
; _this$ = ecx

; 884  : 		return (this->_Alval.max_size());

  00000	b8 ff ff ff 0f	 mov	 eax, 268435455		; 0fffffffH

; 885  : 		}

  00005	c3		 ret	 0
?max_size@?$vector@VioHashString@@V?$allocator@VioHashString@@@std@@@std@@QBEIXZ ENDP ; std::vector<ioHashString,std::allocator<ioHashString> >::max_size
_TEXT	ENDS
PUBLIC	?allocate@?$allocator@VioHashString@@@std@@QAEPAVioHashString@@I@Z ; std::allocator<ioHashString>::allocate
; Function compile flags: /Ogsp
; File c:\program files (x86)\microsoft visual studio 10.0\vc\include\xmemory
;	COMDAT ?allocate@?$allocator@VioHashString@@@std@@QAEPAVioHashString@@I@Z
_TEXT	SEGMENT
__Count$ = 8						; size = 4
?allocate@?$allocator@VioHashString@@@std@@QAEPAVioHashString@@I@Z PROC ; std::allocator<ioHashString>::allocate, COMDAT
; _this$ = ecx

; 186  : 		{	// allocate array of _Count elements

  00000	55		 push	 ebp
  00001	8b ec		 mov	 ebp, esp

; 187  : 		return (_Allocate(_Count, (pointer)0));

  00003	6a 00		 push	 0
  00005	ff 75 08	 push	 DWORD PTR __Count$[ebp]
  00008	e8 00 00 00 00	 call	 ??$_Allocate@VioHashString@@@std@@YAPAVioHashString@@IPAV1@@Z ; std::_Allocate<ioHashString>
  0000d	59		 pop	 ecx
  0000e	59		 pop	 ecx

; 188  : 		}

  0000f	5d		 pop	 ebp
  00010	c2 04 00	 ret	 4
?allocate@?$allocator@VioHashString@@@std@@QAEPAVioHashString@@I@Z ENDP ; std::allocator<ioHashString>::allocate
_TEXT	ENDS
PUBLIC	??$_Destroy@VioHashString@@@std@@YAXPAVioHashString@@@Z ; std::_Destroy<ioHashString>
; Function compile flags: /Ogsp
;	COMDAT ??$_Destroy@VioHashString@@@std@@YAXPAVioHashString@@@Z
_TEXT	SEGMENT
__Ptr$ = 8						; size = 4
??$_Destroy@VioHashString@@@std@@YAXPAVioHashString@@@Z PROC ; std::_Destroy<ioHashString>, COMDAT

; 62   : 	{	// destroy object at _Ptr

  00000	55		 push	 ebp
  00001	8b ec		 mov	 ebp, esp

; 63   : 	_Ptr->~_Ty();

  00003	8b 4d 08	 mov	 ecx, DWORD PTR __Ptr$[ebp]

; 64   : 	}

  00006	5d		 pop	 ebp

; 63   : 	_Ptr->~_Ty();

  00007	ff 25 00 00 00
	00		 jmp	 DWORD PTR __imp_??1ioHashString@@QAE@XZ
??$_Destroy@VioHashString@@@std@@YAXPAVioHashString@@@Z ENDP ; std::_Destroy<ioHashString>
_TEXT	ENDS
PUBLIC	?construct@?$allocator@VioHashString@@@std@@QAEXPAVioHashString@@ABV3@@Z ; std::allocator<ioHashString>::construct
; Function compile flags: /Ogsp
;	COMDAT ?construct@?$allocator@VioHashString@@@std@@QAEXPAVioHashString@@ABV3@@Z
_TEXT	SEGMENT
__Ptr$ = 8						; size = 4
__Val$ = 12						; size = 4
?construct@?$allocator@VioHashString@@@std@@QAEXPAVioHashString@@ABV3@@Z PROC ; std::allocator<ioHashString>::construct, COMDAT
; _this$ = ecx

; 196  : 		{	// construct object at _Ptr with value _Val

  00000	55		 push	 ebp
  00001	8b ec		 mov	 ebp, esp

; 197  : 		_Construct(_Ptr, _Val);

  00003	ff 75 0c	 push	 DWORD PTR __Val$[ebp]
  00006	ff 75 08	 push	 DWORD PTR __Ptr$[ebp]
  00009	e8 00 00 00 00	 call	 ??$_Construct@VioHashString@@ABV1@@std@@YAXPAVioHashString@@ABV1@@Z ; std::_Construct<ioHashString,ioHashString const &>
  0000e	59		 pop	 ecx
  0000f	59		 pop	 ecx

; 198  : 		}

  00010	5d		 pop	 ebp
  00011	c2 08 00	 ret	 8
?construct@?$allocator@VioHashString@@@std@@QAEXPAVioHashString@@ABV3@@Z ENDP ; std::allocator<ioHashString>::construct
_TEXT	ENDS
PUBLIC	?SetCharChange@TowerDefWnd@@QAEXPAVioBaseChar@@@Z ; TowerDefWnd::SetCharChange
; Function compile flags: /Ogsp
; File d:\lost saga for developer\youtube\tutorial\source\src\lsclient\gui\towerdefwnd.cpp
;	COMDAT ?SetCharChange@TowerDefWnd@@QAEXPAVioBaseChar@@@Z
_TEXT	SEGMENT
_pChar$ = 8						; size = 4
?SetCharChange@TowerDefWnd@@QAEXPAVioBaseChar@@@Z PROC	; TowerDefWnd::SetCharChange, COMDAT
; _this$ = ecx

; 351  : {

  00000	55		 push	 ebp
  00001	8b ec		 mov	 ebp, esp
  00003	53		 push	 ebx
  00004	56		 push	 esi
  00005	8b d9		 mov	 ebx, ecx
  00007	57		 push	 edi

; 352  : 	for(int i = 0; i < MAX_USER; i++)

  00008	33 f6		 xor	 esi, esi
  0000a	8d bb d4 01 00
	00		 lea	 edi, DWORD PTR [ebx+468]
$LL13@SetCharCha@2:

; 353  : 	{
; 354  : 		if( m_stUserGauge[i].szUserName == pChar->GetCharName())

  00010	8b 45 08	 mov	 eax, DWORD PTR _pChar$[ebp]
  00013	05 d4 02 00 00	 add	 eax, 724		; 000002d4H
  00018	50		 push	 eax
  00019	8d 4f f0	 lea	 ecx, DWORD PTR [edi-16]
  0001c	ff 15 00 00 00
	00		 call	 DWORD PTR __imp_??8ioHashString@@QBE_NABV0@@Z
  00022	84 c0		 test	 al, al
  00024	74 05		 je	 SHORT $LN4@SetCharCha@2

; 355  : 		{
; 356  : 			if(m_stUserGauge[i].pGaugeWnd)

  00026	83 3f 00	 cmp	 DWORD PTR [edi], 0
  00029	75 0b		 jne	 SHORT $LN11@SetCharCha@2
$LN4@SetCharCha@2:

; 352  : 	for(int i = 0; i < MAX_USER; i++)

  0002b	46		 inc	 esi
  0002c	83 c7 18	 add	 edi, 24			; 00000018H
  0002f	83 fe 04	 cmp	 esi, 4
  00032	7c dc		 jl	 SHORT $LL13@SetCharCha@2

; 355  : 		{
; 356  : 			if(m_stUserGauge[i].pGaugeWnd)

  00034	eb 12		 jmp	 SHORT $LN3@SetCharCha@2
$LN11@SetCharCha@2:

; 357  : 			{
; 358  : 				m_stUserGauge[i].pGaugeWnd->SetCharChange(pChar);

  00036	ff 75 08	 push	 DWORD PTR _pChar$[ebp]
  00039	6b f6 18	 imul	 esi, 24			; 00000018H
  0003c	8b 8c 1e d4 01
	00 00		 mov	 ecx, DWORD PTR [esi+ebx+468]
  00043	e8 00 00 00 00	 call	 ?SetCharChange@TowerDefUserGaugeWnd@@QAEXPAVioBaseChar@@@Z ; TowerDefUserGaugeWnd::SetCharChange
$LN3@SetCharCha@2:
  00048	5f		 pop	 edi
  00049	5e		 pop	 esi
  0004a	5b		 pop	 ebx

; 359  : 				break;
; 360  : 			}
; 361  : 		}
; 362  : 	}
; 363  : }

  0004b	5d		 pop	 ebp
  0004c	c2 04 00	 ret	 4
?SetCharChange@TowerDefWnd@@QAEXPAVioBaseChar@@@Z ENDP	; TowerDefWnd::SetCharChange
_TEXT	ENDS
PUBLIC	?SetHelmChange@TowerDefWnd@@QAEXPAVioBaseChar@@@Z ; TowerDefWnd::SetHelmChange
; Function compile flags: /Ogsp
;	COMDAT ?SetHelmChange@TowerDefWnd@@QAEXPAVioBaseChar@@@Z
_TEXT	SEGMENT
_pChar$ = 8						; size = 4
?SetHelmChange@TowerDefWnd@@QAEXPAVioBaseChar@@@Z PROC	; TowerDefWnd::SetHelmChange, COMDAT
; _this$ = ecx

; 383  : {

  00000	55		 push	 ebp
  00001	8b ec		 mov	 ebp, esp
  00003	53		 push	 ebx
  00004	56		 push	 esi
  00005	8b d9		 mov	 ebx, ecx
  00007	57		 push	 edi

; 384  : 	for(int i = 0; i < MAX_USER; i++)

  00008	33 f6		 xor	 esi, esi
  0000a	8d bb d4 01 00
	00		 lea	 edi, DWORD PTR [ebx+468]
$LL13@SetHelmCha@3:

; 385  : 	{
; 386  : 		if( m_stUserGauge[i].szUserName == pChar->GetCharName())

  00010	8b 45 08	 mov	 eax, DWORD PTR _pChar$[ebp]
  00013	05 d4 02 00 00	 add	 eax, 724		; 000002d4H
  00018	50		 push	 eax
  00019	8d 4f f0	 lea	 ecx, DWORD PTR [edi-16]
  0001c	ff 15 00 00 00
	00		 call	 DWORD PTR __imp_??8ioHashString@@QBE_NABV0@@Z
  00022	84 c0		 test	 al, al
  00024	74 05		 je	 SHORT $LN4@SetHelmCha@3

; 387  : 		{
; 388  : 			if(m_stUserGauge[i].pGaugeWnd)

  00026	83 3f 00	 cmp	 DWORD PTR [edi], 0
  00029	75 0b		 jne	 SHORT $LN11@SetHelmCha@3
$LN4@SetHelmCha@3:

; 384  : 	for(int i = 0; i < MAX_USER; i++)

  0002b	46		 inc	 esi
  0002c	83 c7 18	 add	 edi, 24			; 00000018H
  0002f	83 fe 04	 cmp	 esi, 4
  00032	7c dc		 jl	 SHORT $LL13@SetHelmCha@3

; 387  : 		{
; 388  : 			if(m_stUserGauge[i].pGaugeWnd)

  00034	eb 12		 jmp	 SHORT $LN3@SetHelmCha@3
$LN11@SetHelmCha@3:

; 389  : 			{
; 390  : 				m_stUserGauge[i].pGaugeWnd->SetHelmChange(pChar);

  00036	ff 75 08	 push	 DWORD PTR _pChar$[ebp]
  00039	6b f6 18	 imul	 esi, 24			; 00000018H
  0003c	8b 8c 1e d4 01
	00 00		 mov	 ecx, DWORD PTR [esi+ebx+468]
  00043	e8 00 00 00 00	 call	 ?SetHelmChange@TowerDefUserGaugeWnd@@QAEXPAVioBaseChar@@@Z ; TowerDefUserGaugeWnd::SetHelmChange
$LN3@SetHelmCha@3:
  00048	5f		 pop	 edi
  00049	5e		 pop	 esi
  0004a	5b		 pop	 ebx

; 391  : 				break;
; 392  : 			}
; 393  : 		}
; 394  : 	}
; 395  : }

  0004b	5d		 pop	 ebp
  0004c	c2 04 00	 ret	 4
?SetHelmChange@TowerDefWnd@@QAEXPAVioBaseChar@@@Z ENDP	; TowerDefWnd::SetHelmChange
; Function compile flags: /Ogsp
_TEXT	ENDS
;	COMDAT ??_GTowerDefUserGaugeWnd@@UAEPAXI@Z
_TEXT	SEGMENT
___flags$ = 8						; size = 4
??_GTowerDefUserGaugeWnd@@UAEPAXI@Z PROC		; TowerDefUserGaugeWnd::`scalar deleting destructor', COMDAT
; _this$ = ecx
  00000	55		 push	 ebp
  00001	8b ec		 mov	 ebp, esp
  00003	56		 push	 esi
  00004	8b f1		 mov	 esi, ecx
  00006	e8 00 00 00 00	 call	 ??1TowerDefUserGaugeWnd@@UAE@XZ ; TowerDefUserGaugeWnd::~TowerDefUserGaugeWnd
  0000b	f6 45 08 01	 test	 BYTE PTR ___flags$[ebp], 1
  0000f	74 07		 je	 SHORT $LN1@scalar@7
  00011	56		 push	 esi
  00012	e8 00 00 00 00	 call	 ??3@YAXPAX@Z		; operator delete
  00017	59		 pop	 ecx
$LN1@scalar@7:
  00018	8b c6		 mov	 eax, esi
  0001a	5e		 pop	 esi
  0001b	5d		 pop	 ebp
  0001c	c2 04 00	 ret	 4
??_GTowerDefUserGaugeWnd@@UAEPAXI@Z ENDP		; TowerDefUserGaugeWnd::`scalar deleting destructor'
_TEXT	ENDS
PUBLIC	_pFrame$GSCopy$
PUBLIC	_this$GSCopy$
PUBLIC	__$ArrayPad$
EXTRN	__imp_?AddRenderFrame@ioWnd@@UAEXABVioHashString@@PAVioUIRenderFrame@@@Z:PROC
; Function compile flags: /Ogsp
;	COMDAT ?AddRenderFrame@TowerDefUserGaugeWnd@@MAEXABVioHashString@@PAVioUIRenderFrame@@@Z
_TEXT	SEGMENT
_pFrame$GSCopy$ = -36					; size = 4
_this$GSCopy$ = -32					; size = 4
__t$529914 = -28					; size = 19
__t$529789 = -24					; size = 15
__$ArrayPad$ = -4					; size = 4
_szType$ = 8						; size = 4
_pFrame$ = 12						; size = 4
?AddRenderFrame@TowerDefUserGaugeWnd@@MAEXABVioHashString@@PAVioUIRenderFrame@@@Z PROC ; TowerDefUserGaugeWnd::AddRenderFrame, COMDAT
; _this$ = ecx

; 495  : {

  00000	55		 push	 ebp
  00001	8b ec		 mov	 ebp, esp
  00003	83 ec 24	 sub	 esp, 36			; 00000024H
  00006	a1 00 00 00 00	 mov	 eax, DWORD PTR ___security_cookie
  0000b	33 c5		 xor	 eax, ebp
  0000d	89 45 fc	 mov	 DWORD PTR __$ArrayPad$[ebp], eax
  00010	8b 45 0c	 mov	 eax, DWORD PTR _pFrame$[ebp]
  00013	56		 push	 esi
  00014	57		 push	 edi
  00015	8b 7d 08	 mov	 edi, DWORD PTR _szType$[ebp]

; 496  : 	if( szType == "UserGaugeFrame" )

  00018	6a 03		 push	 3
  0001a	89 4d e0	 mov	 DWORD PTR _this$GSCopy$[ebp], ecx

; 507  : 	{
; 508  : 		ioWnd::AddRenderFrame( szType, pFrame );

  0001d	89 45 dc	 mov	 DWORD PTR _pFrame$GSCopy$[ebp], eax
  00020	c7 45 e8 b8 9f
	8e 98		 mov	 DWORD PTR __t$529789[ebp], -1735483464 ; 988e9fb8H
  00027	c7 45 ec aa 8d
	9e 8d		 mov	 DWORD PTR __t$529789[ebp+4], -1918988886 ; 8d9e8daaH
  0002e	c7 45 f0 88 aa
	99 8b		 mov	 DWORD PTR __t$529789[ebp+8], -1952863608 ; 8b99aa88H
  00035	66 c7 45 f4 80
	89		 mov	 WORD PTR __t$529789[ebp+12], 35200 ; 00008980H
  0003b	8d 45 e8	 lea	 eax, DWORD PTR __t$529789[ebp]
  0003e	c6 45 f6 00	 mov	 BYTE PTR __t$529789[ebp+14], 0
  00042	59		 pop	 ecx
$LL116@AddRenderF:

; 496  : 	if( szType == "UserGaugeFrame" )

  00043	81 30 ed ec eb
	ea		 xor	 DWORD PTR [eax], -353637139 ; eaebecedH
  00049	83 c0 04	 add	 eax, 4
  0004c	49		 dec	 ecx
  0004d	75 f4		 jne	 SHORT $LL116@AddRenderF
  0004f	6a 0c		 push	 12			; 0000000cH
  00051	58		 pop	 eax
$LL113@AddRenderF:
  00052	8b c8		 mov	 ecx, eax
  00054	81 e1 03 00 00
	80		 and	 ecx, -2147483645	; 80000003H
  0005a	79 05		 jns	 SHORT $LN242@AddRenderF
  0005c	49		 dec	 ecx
  0005d	83 c9 fc	 or	 ecx, -4			; fffffffcH
  00060	41		 inc	 ecx
$LN242@AddRenderF:
  00061	b2 ed		 mov	 dl, -19			; ffffffedH
  00063	2a d1		 sub	 dl, cl
  00065	30 54 05 e8	 xor	 BYTE PTR __t$529789[ebp+eax], dl
  00069	40		 inc	 eax
  0006a	83 f8 0e	 cmp	 eax, 14			; 0000000eH
  0006d	7c e3		 jl	 SHORT $LL113@AddRenderF
  0006f	8b cf		 mov	 ecx, edi
  00071	8d 75 e8	 lea	 esi, DWORD PTR __t$529789[ebp]
  00074	ff 15 00 00 00
	00		 call	 DWORD PTR __imp_?c_str@ioHashString@@QBEPBDXZ
$LL234@AddRenderF:
  0007a	8a 08		 mov	 cl, BYTE PTR [eax]
  0007c	3a 0e		 cmp	 cl, BYTE PTR [esi]
  0007e	75 1a		 jne	 SHORT $LN235@AddRenderF
  00080	84 c9		 test	 cl, cl
  00082	74 12		 je	 SHORT $LN236@AddRenderF
  00084	8a 48 01	 mov	 cl, BYTE PTR [eax+1]
  00087	3a 4e 01	 cmp	 cl, BYTE PTR [esi+1]
  0008a	75 0e		 jne	 SHORT $LN235@AddRenderF
  0008c	83 c0 02	 add	 eax, 2
  0008f	83 c6 02	 add	 esi, 2
  00092	84 c9		 test	 cl, cl
  00094	75 e4		 jne	 SHORT $LL234@AddRenderF
$LN236@AddRenderF:
  00096	33 c0		 xor	 eax, eax
  00098	eb 05		 jmp	 SHORT $LN237@AddRenderF
$LN235@AddRenderF:
  0009a	1b c0		 sbb	 eax, eax
  0009c	83 d8 ff	 sbb	 eax, -1
$LN237@AddRenderF:
  0009f	85 c0		 test	 eax, eax
  000a1	75 29		 jne	 SHORT $LN233@AddRenderF

; 497  : 	{
; 498  : 		SAFEDELETE( m_pGaugeFrame );

  000a3	8b 75 e0	 mov	 esi, DWORD PTR _this$GSCopy$[ebp]
  000a6	8b 8e a8 01 00
	00		 mov	 ecx, DWORD PTR [esi+424]
  000ac	85 c9		 test	 ecx, ecx
  000ae	74 0e		 je	 SHORT $LN5@AddRenderF
  000b0	8b 01		 mov	 eax, DWORD PTR [ecx]
  000b2	6a 01		 push	 1
  000b4	ff 50 40	 call	 DWORD PTR [eax+64]
  000b7	83 a6 a8 01 00
	00 00		 and	 DWORD PTR [esi+424], 0
$LN5@AddRenderF:

; 499  : 		m_pGaugeFrame = pFrame;

  000be	8b 45 dc	 mov	 eax, DWORD PTR _pFrame$GSCopy$[ebp]
  000c1	89 86 a8 01 00
	00		 mov	 DWORD PTR [esi+424], eax
  000c7	e9 bf 00 00 00	 jmp	 $LN1@AddRenderF
$LN233@AddRenderF:

; 500  : 	}
; 501  : 	else if( szType == "UserGaugeFrameOver" )

  000cc	6a 04		 push	 4
  000ce	c7 45 e4 b8 9f
	8e 98		 mov	 DWORD PTR __t$529914[ebp], -1735483464 ; 988e9fb8H
  000d5	c7 45 e8 aa 8d
	9e 8d		 mov	 DWORD PTR __t$529914[ebp+4], -1918988886 ; 8d9e8daaH
  000dc	c7 45 ec 88 aa
	99 8b		 mov	 DWORD PTR __t$529914[ebp+8], -1952863608 ; 8b99aa88H
  000e3	c7 45 f0 80 89
	a4 9c		 mov	 DWORD PTR __t$529914[ebp+12], -1666938496 ; 9ca48980H
  000ea	66 c7 45 f4 88
	9e		 mov	 WORD PTR __t$529914[ebp+16], 40584 ; 00009e88H
  000f0	8d 45 e4	 lea	 eax, DWORD PTR __t$529914[ebp]
  000f3	c6 45 f6 00	 mov	 BYTE PTR __t$529914[ebp+18], 0
  000f7	59		 pop	 ecx
$LL222@AddRenderF:
  000f8	81 30 ed ec eb
	ea		 xor	 DWORD PTR [eax], -353637139 ; eaebecedH
  000fe	83 c0 04	 add	 eax, 4
  00101	49		 dec	 ecx
  00102	75 f4		 jne	 SHORT $LL222@AddRenderF
  00104	6a 10		 push	 16			; 00000010H
  00106	58		 pop	 eax
$LL219@AddRenderF:
  00107	8b c8		 mov	 ecx, eax
  00109	81 e1 03 00 00
	80		 and	 ecx, -2147483645	; 80000003H
  0010f	79 05		 jns	 SHORT $LN243@AddRenderF
  00111	49		 dec	 ecx
  00112	83 c9 fc	 or	 ecx, -4			; fffffffcH
  00115	41		 inc	 ecx
$LN243@AddRenderF:
  00116	b2 ed		 mov	 dl, -19			; ffffffedH
  00118	2a d1		 sub	 dl, cl
  0011a	30 54 05 e4	 xor	 BYTE PTR __t$529914[ebp+eax], dl
  0011e	40		 inc	 eax
  0011f	83 f8 12	 cmp	 eax, 18			; 00000012H
  00122	7c e3		 jl	 SHORT $LL219@AddRenderF
  00124	8b cf		 mov	 ecx, edi
  00126	8d 75 e4	 lea	 esi, DWORD PTR __t$529914[ebp]
  00129	ff 15 00 00 00
	00		 call	 DWORD PTR __imp_?c_str@ioHashString@@QBEPBDXZ
$LL238@AddRenderF:
  0012f	8a 08		 mov	 cl, BYTE PTR [eax]
  00131	3a 0e		 cmp	 cl, BYTE PTR [esi]
  00133	75 1a		 jne	 SHORT $LN239@AddRenderF
  00135	84 c9		 test	 cl, cl
  00137	74 12		 je	 SHORT $LN240@AddRenderF
  00139	8a 48 01	 mov	 cl, BYTE PTR [eax+1]
  0013c	3a 4e 01	 cmp	 cl, BYTE PTR [esi+1]
  0013f	75 0e		 jne	 SHORT $LN239@AddRenderF
  00141	83 c0 02	 add	 eax, 2
  00144	83 c6 02	 add	 esi, 2
  00147	84 c9		 test	 cl, cl
  00149	75 e4		 jne	 SHORT $LL238@AddRenderF
$LN240@AddRenderF:
  0014b	33 c0		 xor	 eax, eax
  0014d	eb 05		 jmp	 SHORT $LN241@AddRenderF
$LN239@AddRenderF:
  0014f	1b c0		 sbb	 eax, eax
  00151	83 d8 ff	 sbb	 eax, -1
$LN241@AddRenderF:
  00154	85 c0		 test	 eax, eax
  00156	75 26		 jne	 SHORT $LN3@AddRenderF

; 502  : 	{
; 503  : 		SAFEDELETE( m_pGaugeFrameOver );

  00158	8b 75 e0	 mov	 esi, DWORD PTR _this$GSCopy$[ebp]
  0015b	8b 8e ac 01 00
	00		 mov	 ecx, DWORD PTR [esi+428]
  00161	85 c9		 test	 ecx, ecx
  00163	74 0e		 je	 SHORT $LN2@AddRenderF
  00165	8b 01		 mov	 eax, DWORD PTR [ecx]
  00167	6a 01		 push	 1
  00169	ff 50 40	 call	 DWORD PTR [eax+64]
  0016c	83 a6 ac 01 00
	00 00		 and	 DWORD PTR [esi+428], 0
$LN2@AddRenderF:

; 504  : 		m_pGaugeFrameOver = pFrame;

  00173	8b 45 dc	 mov	 eax, DWORD PTR _pFrame$GSCopy$[ebp]
  00176	89 86 ac 01 00
	00		 mov	 DWORD PTR [esi+428], eax

; 505  : 	}
; 506  : 	else

  0017c	eb 0d		 jmp	 SHORT $LN1@AddRenderF
$LN3@AddRenderF:

; 507  : 	{
; 508  : 		ioWnd::AddRenderFrame( szType, pFrame );

  0017e	ff 75 dc	 push	 DWORD PTR _pFrame$GSCopy$[ebp]
  00181	8b 4d e0	 mov	 ecx, DWORD PTR _this$GSCopy$[ebp]
  00184	57		 push	 edi
  00185	ff 15 00 00 00
	00		 call	 DWORD PTR __imp_?AddRenderFrame@ioWnd@@UAEXABVioHashString@@PAVioUIRenderFrame@@@Z
$LN1@AddRenderF:

; 509  : 	}
; 510  : }

  0018b	8b 4d fc	 mov	 ecx, DWORD PTR __$ArrayPad$[ebp]
  0018e	5f		 pop	 edi
  0018f	33 cd		 xor	 ecx, ebp
  00191	5e		 pop	 esi
  00192	e8 00 00 00 00	 call	 @__security_check_cookie@4
  00197	c9		 leave
  00198	c2 08 00	 ret	 8
?AddRenderFrame@TowerDefUserGaugeWnd@@MAEXABVioHashString@@PAVioUIRenderFrame@@@Z ENDP ; TowerDefUserGaugeWnd::AddRenderFrame
_TEXT	ENDS
PUBLIC	_pImage$GSCopy$
PUBLIC	_this$GSCopy$
PUBLIC	_szType$GSCopy$
PUBLIC	__$ArrayPad$
EXTRN	__imp_?AddRenderImage@ioWnd@@UAEXABVioHashString@@PAVioUIRenderImage@@@Z:PROC
; Function compile flags: /Ogsp
;	COMDAT ?AddRenderImage@TowerDefUserGaugeWnd@@UAEXABVioHashString@@PAVioUIRenderImage@@@Z
_TEXT	SEGMENT
_pImage$GSCopy$ = -36					; size = 4
_this$GSCopy$ = -32					; size = 4
_szType$GSCopy$ = -28					; size = 4
__t$530191 = -24					; size = 15
__t$530449 = -20					; size = 10
__t$530316 = -20					; size = 10
__t$530088 = -20					; size = 11
__$ArrayPad$ = -4					; size = 4
_szType$ = 8						; size = 4
_pImage$ = 12						; size = 4
?AddRenderImage@TowerDefUserGaugeWnd@@UAEXABVioHashString@@PAVioUIRenderImage@@@Z PROC ; TowerDefUserGaugeWnd::AddRenderImage, COMDAT
; _this$ = ecx

; 513  : {	

  00000	55		 push	 ebp
  00001	8b ec		 mov	 ebp, esp
  00003	83 ec 24	 sub	 esp, 36			; 00000024H
  00006	a1 00 00 00 00	 mov	 eax, DWORD PTR ___security_cookie
  0000b	33 c5		 xor	 eax, ebp
  0000d	89 45 fc	 mov	 DWORD PTR __$ArrayPad$[ebp], eax
  00010	8b 45 08	 mov	 eax, DWORD PTR _szType$[ebp]
  00013	53		 push	 ebx
  00014	56		 push	 esi
  00015	57		 push	 edi

; 528  : 	}
; 529  : 	else if( szType == "Surrender" )

  00016	89 45 e4	 mov	 DWORD PTR _szType$GSCopy$[ebp], eax
  00019	8b 45 0c	 mov	 eax, DWORD PTR _pImage$[ebp]
  0001c	6a 02		 push	 2
  0001e	33 db		 xor	 ebx, ebx
  00020	5f		 pop	 edi
  00021	89 4d e0	 mov	 DWORD PTR _this$GSCopy$[ebp], ecx
  00024	89 45 dc	 mov	 DWORD PTR _pImage$GSCopy$[ebp], eax
  00027	c7 45 ec b8 9f
	8e 98		 mov	 DWORD PTR __t$530088[ebp], -1735483464 ; 988e9fb8H
  0002e	c7 45 f0 ab 8d
	88 8f		 mov	 DWORD PTR __t$530088[ebp+4], -1886876245 ; 8f888dabH
  00035	66 c7 45 f4 af
	ab		 mov	 WORD PTR __t$530088[ebp+8], 43951 ; 0000abafH
  0003b	8d 45 ec	 lea	 eax, DWORD PTR __t$530088[ebp]
  0003e	88 5d f6	 mov	 BYTE PTR __t$530088[ebp+10], bl
  00041	8b cf		 mov	 ecx, edi
$LL126@AddRenderI:

; 514  : 	if( szType == "UserFaceBG" )

  00043	81 30 ed ec eb
	ea		 xor	 DWORD PTR [eax], -353637139 ; eaebecedH
  00049	83 c0 04	 add	 eax, 4
  0004c	49		 dec	 ecx
  0004d	75 f4		 jne	 SHORT $LL126@AddRenderI
  0004f	6a 08		 push	 8
  00051	58		 pop	 eax
$LL123@AddRenderI:
  00052	8b c8		 mov	 ecx, eax
  00054	81 e1 03 00 00
	80		 and	 ecx, -2147483645	; 80000003H
  0005a	79 05		 jns	 SHORT $LN482@AddRenderI
  0005c	49		 dec	 ecx
  0005d	83 c9 fc	 or	 ecx, -4			; fffffffcH
  00060	41		 inc	 ecx
$LN482@AddRenderI:
  00061	b2 ed		 mov	 dl, -19			; ffffffedH
  00063	2a d1		 sub	 dl, cl
  00065	30 54 05 ec	 xor	 BYTE PTR __t$530088[ebp+eax], dl
  00069	40		 inc	 eax
  0006a	83 f8 0a	 cmp	 eax, 10			; 0000000aH
  0006d	7c e3		 jl	 SHORT $LL123@AddRenderI
  0006f	8b 4d e4	 mov	 ecx, DWORD PTR _szType$GSCopy$[ebp]
  00072	8d 75 ec	 lea	 esi, DWORD PTR __t$530088[ebp]
  00075	ff 15 00 00 00
	00		 call	 DWORD PTR __imp_?c_str@ioHashString@@QBEPBDXZ
$LL466@AddRenderI:
  0007b	8a 08		 mov	 cl, BYTE PTR [eax]
  0007d	3a 0e		 cmp	 cl, BYTE PTR [esi]
  0007f	75 18		 jne	 SHORT $LN467@AddRenderI
  00081	3a cb		 cmp	 cl, bl
  00083	74 10		 je	 SHORT $LN468@AddRenderI
  00085	8a 48 01	 mov	 cl, BYTE PTR [eax+1]
  00088	3a 4e 01	 cmp	 cl, BYTE PTR [esi+1]
  0008b	75 0c		 jne	 SHORT $LN467@AddRenderI
  0008d	03 c7		 add	 eax, edi
  0008f	03 f7		 add	 esi, edi
  00091	3a cb		 cmp	 cl, bl
  00093	75 e6		 jne	 SHORT $LL466@AddRenderI
$LN468@AddRenderI:
  00095	33 c0		 xor	 eax, eax
  00097	eb 05		 jmp	 SHORT $LN469@AddRenderI
$LN467@AddRenderI:
  00099	1b c0		 sbb	 eax, eax
  0009b	83 d8 ff	 sbb	 eax, -1
$LN469@AddRenderI:
  0009e	3b c3		 cmp	 eax, ebx
  000a0	75 28		 jne	 SHORT $LN463@AddRenderI

; 515  : 	{
; 516  : 		SAFEDELETE( m_pPotrait[IMG_POTRAIT_BACK] );

  000a2	8b 75 e0	 mov	 esi, DWORD PTR _this$GSCopy$[ebp]
  000a5	8b 8e 90 01 00
	00		 mov	 ecx, DWORD PTR [esi+400]
  000ab	3b cb		 cmp	 ecx, ebx
  000ad	74 0d		 je	 SHORT $LN11@AddRenderI
  000af	8b 01		 mov	 eax, DWORD PTR [ecx]
  000b1	6a 01		 push	 1
  000b3	ff 50 40	 call	 DWORD PTR [eax+64]
  000b6	89 9e 90 01 00
	00		 mov	 DWORD PTR [esi+400], ebx
$LN11@AddRenderI:

; 517  : 		m_pPotrait[IMG_POTRAIT_BACK] = pImage;

  000bc	8b 45 dc	 mov	 eax, DWORD PTR _pImage$GSCopy$[ebp]
  000bf	89 86 90 01 00
	00		 mov	 DWORD PTR [esi+400], eax
  000c5	e9 bf 01 00 00	 jmp	 $LN1@AddRenderI
$LN463@AddRenderI:

; 518  : 	}
; 519  : 	else if( szType == "UserFaceOverBG" )

  000ca	6a 03		 push	 3
  000cc	c7 45 e8 b8 9f
	8e 98		 mov	 DWORD PTR __t$530191[ebp], -1735483464 ; 988e9fb8H
  000d3	c7 45 ec ab 8d
	88 8f		 mov	 DWORD PTR __t$530191[ebp+4], -1886876245 ; 8f888dabH
  000da	c7 45 f0 a2 9a
	8e 98		 mov	 DWORD PTR __t$530191[ebp+8], -1735484766 ; 988e9aa2H
  000e1	66 c7 45 f4 af
	ab		 mov	 WORD PTR __t$530191[ebp+12], 43951 ; 0000abafH
  000e7	8d 45 e8	 lea	 eax, DWORD PTR __t$530191[ebp]
  000ea	88 5d f6	 mov	 BYTE PTR __t$530191[ebp+14], bl
  000ed	59		 pop	 ecx
$LL232@AddRenderI:
  000ee	81 30 ed ec eb
	ea		 xor	 DWORD PTR [eax], -353637139 ; eaebecedH
  000f4	83 c0 04	 add	 eax, 4
  000f7	49		 dec	 ecx
  000f8	75 f4		 jne	 SHORT $LL232@AddRenderI
  000fa	6a 0c		 push	 12			; 0000000cH
  000fc	58		 pop	 eax
$LL229@AddRenderI:
  000fd	8b c8		 mov	 ecx, eax
  000ff	81 e1 03 00 00
	80		 and	 ecx, -2147483645	; 80000003H
  00105	79 05		 jns	 SHORT $LN483@AddRenderI
  00107	49		 dec	 ecx
  00108	83 c9 fc	 or	 ecx, -4			; fffffffcH
  0010b	41		 inc	 ecx
$LN483@AddRenderI:
  0010c	b2 ed		 mov	 dl, -19			; ffffffedH
  0010e	2a d1		 sub	 dl, cl
  00110	30 54 05 e8	 xor	 BYTE PTR __t$530191[ebp+eax], dl
  00114	40		 inc	 eax
  00115	83 f8 0e	 cmp	 eax, 14			; 0000000eH
  00118	7c e3		 jl	 SHORT $LL229@AddRenderI
  0011a	8b 4d e4	 mov	 ecx, DWORD PTR _szType$GSCopy$[ebp]
  0011d	8d 75 e8	 lea	 esi, DWORD PTR __t$530191[ebp]
  00120	ff 15 00 00 00
	00		 call	 DWORD PTR __imp_?c_str@ioHashString@@QBEPBDXZ
$LL470@AddRenderI:
  00126	8a 08		 mov	 cl, BYTE PTR [eax]
  00128	3a 0e		 cmp	 cl, BYTE PTR [esi]
  0012a	75 18		 jne	 SHORT $LN471@AddRenderI
  0012c	3a cb		 cmp	 cl, bl
  0012e	74 10		 je	 SHORT $LN472@AddRenderI
  00130	8a 48 01	 mov	 cl, BYTE PTR [eax+1]
  00133	3a 4e 01	 cmp	 cl, BYTE PTR [esi+1]
  00136	75 0c		 jne	 SHORT $LN471@AddRenderI
  00138	03 c7		 add	 eax, edi
  0013a	03 f7		 add	 esi, edi
  0013c	3a cb		 cmp	 cl, bl
  0013e	75 e6		 jne	 SHORT $LL470@AddRenderI
$LN472@AddRenderI:
  00140	33 c0		 xor	 eax, eax
  00142	eb 05		 jmp	 SHORT $LN473@AddRenderI
$LN471@AddRenderI:
  00144	1b c0		 sbb	 eax, eax
  00146	83 d8 ff	 sbb	 eax, -1
$LN473@AddRenderI:
  00149	3b c3		 cmp	 eax, ebx
  0014b	75 28		 jne	 SHORT $LN464@AddRenderI

; 520  : 	{
; 521  : 		SAFEDELETE( m_pPotrait[IMG_POTRAIT_OVERBACK] );

  0014d	8b 75 e0	 mov	 esi, DWORD PTR _this$GSCopy$[ebp]
  00150	8b 8e 94 01 00
	00		 mov	 ecx, DWORD PTR [esi+404]
  00156	3b cb		 cmp	 ecx, ebx
  00158	74 0d		 je	 SHORT $LN8@AddRenderI
  0015a	8b 01		 mov	 eax, DWORD PTR [ecx]
  0015c	6a 01		 push	 1
  0015e	ff 50 40	 call	 DWORD PTR [eax+64]
  00161	89 9e 94 01 00
	00		 mov	 DWORD PTR [esi+404], ebx
$LN8@AddRenderI:

; 522  : 		m_pPotrait[IMG_POTRAIT_OVERBACK] = pImage;

  00167	8b 45 dc	 mov	 eax, DWORD PTR _pImage$GSCopy$[ebp]
  0016a	89 86 94 01 00
	00		 mov	 DWORD PTR [esi+404], eax
  00170	e9 14 01 00 00	 jmp	 $LN1@AddRenderI
$LN464@AddRenderI:

; 523  : 	}
; 524  : 	else if( szType == "GaugeBlue" )

  00175	c7 45 ec aa 8d
	9e 8d		 mov	 DWORD PTR __t$530316[ebp], -1918988886 ; 8d9e8daaH
  0017c	c7 45 f0 88 ae
	87 9f		 mov	 DWORD PTR __t$530316[ebp+4], -1618497912 ; 9f87ae88H
  00183	8d 45 ec	 lea	 eax, DWORD PTR __t$530316[ebp]
  00186	66 c7 45 f4 88
	00		 mov	 WORD PTR __t$530316[ebp+8], 136 ; 00000088H
  0018c	8b cf		 mov	 ecx, edi
$LL338@AddRenderI:
  0018e	81 30 ed ec eb
	ea		 xor	 DWORD PTR [eax], -353637139 ; eaebecedH
  00194	83 c0 04	 add	 eax, 4
  00197	49		 dec	 ecx
  00198	75 f4		 jne	 SHORT $LL338@AddRenderI
  0019a	8b 4d e4	 mov	 ecx, DWORD PTR _szType$GSCopy$[ebp]
  0019d	80 75 f4 ed	 xor	 BYTE PTR __t$530316[ebp+8], -19 ; ffffffedH
  001a1	8d 75 ec	 lea	 esi, DWORD PTR __t$530316[ebp]
  001a4	ff 15 00 00 00
	00		 call	 DWORD PTR __imp_?c_str@ioHashString@@QBEPBDXZ
$LL474@AddRenderI:
  001aa	8a 08		 mov	 cl, BYTE PTR [eax]
  001ac	3a 0e		 cmp	 cl, BYTE PTR [esi]
  001ae	75 18		 jne	 SHORT $LN475@AddRenderI
  001b0	3a cb		 cmp	 cl, bl
  001b2	74 10		 je	 SHORT $LN476@AddRenderI
  001b4	8a 48 01	 mov	 cl, BYTE PTR [eax+1]
  001b7	3a 4e 01	 cmp	 cl, BYTE PTR [esi+1]
  001ba	75 0c		 jne	 SHORT $LN475@AddRenderI
  001bc	03 c7		 add	 eax, edi
  001be	03 f7		 add	 esi, edi
  001c0	3a cb		 cmp	 cl, bl
  001c2	75 e6		 jne	 SHORT $LL474@AddRenderI
$LN476@AddRenderI:
  001c4	33 c0		 xor	 eax, eax
  001c6	eb 05		 jmp	 SHORT $LN477@AddRenderI
$LN475@AddRenderI:
  001c8	1b c0		 sbb	 eax, eax
  001ca	83 d8 ff	 sbb	 eax, -1
$LN477@AddRenderI:
  001cd	3b c3		 cmp	 eax, ebx
  001cf	75 28		 jne	 SHORT $LN465@AddRenderI

; 525  : 	{
; 526  : 		SAFEDELETE( m_pGauge );

  001d1	8b 75 e0	 mov	 esi, DWORD PTR _this$GSCopy$[ebp]
  001d4	8b 8e 98 01 00
	00		 mov	 ecx, DWORD PTR [esi+408]
  001da	3b cb		 cmp	 ecx, ebx
  001dc	74 0d		 je	 SHORT $LN5@AddRenderI
  001de	8b 01		 mov	 eax, DWORD PTR [ecx]
  001e0	6a 01		 push	 1
  001e2	ff 50 40	 call	 DWORD PTR [eax+64]
  001e5	89 9e 98 01 00
	00		 mov	 DWORD PTR [esi+408], ebx
$LN5@AddRenderI:

; 527  : 		m_pGauge = pImage;

  001eb	8b 45 dc	 mov	 eax, DWORD PTR _pImage$GSCopy$[ebp]
  001ee	89 86 98 01 00
	00		 mov	 DWORD PTR [esi+408], eax
  001f4	e9 90 00 00 00	 jmp	 $LN1@AddRenderI
$LN465@AddRenderI:

; 528  : 	}
; 529  : 	else if( szType == "Surrender" )

  001f9	c7 45 ec be 99
	99 98		 mov	 DWORD PTR __t$530449[ebp], -1734764098 ; 989999beH
  00200	c7 45 f0 88 82
	8f 8f		 mov	 DWORD PTR __t$530449[ebp+4], -1886420344 ; 8f8f8288H
  00207	8d 45 ec	 lea	 eax, DWORD PTR __t$530449[ebp]
  0020a	66 c7 45 f4 9f
	00		 mov	 WORD PTR __t$530449[ebp+8], 159 ; 0000009fH
  00210	8b cf		 mov	 ecx, edi
$LL444@AddRenderI:
  00212	81 30 ed ec eb
	ea		 xor	 DWORD PTR [eax], -353637139 ; eaebecedH
  00218	83 c0 04	 add	 eax, 4
  0021b	49		 dec	 ecx
  0021c	75 f4		 jne	 SHORT $LL444@AddRenderI
  0021e	8b 4d e4	 mov	 ecx, DWORD PTR _szType$GSCopy$[ebp]
  00221	80 75 f4 ed	 xor	 BYTE PTR __t$530449[ebp+8], -19 ; ffffffedH
  00225	8d 75 ec	 lea	 esi, DWORD PTR __t$530449[ebp]
  00228	ff 15 00 00 00
	00		 call	 DWORD PTR __imp_?c_str@ioHashString@@QBEPBDXZ
$LL478@AddRenderI:
  0022e	8a 08		 mov	 cl, BYTE PTR [eax]
  00230	3a 0e		 cmp	 cl, BYTE PTR [esi]
  00232	75 18		 jne	 SHORT $LN479@AddRenderI
  00234	3a cb		 cmp	 cl, bl
  00236	74 10		 je	 SHORT $LN480@AddRenderI
  00238	8a 48 01	 mov	 cl, BYTE PTR [eax+1]
  0023b	3a 4e 01	 cmp	 cl, BYTE PTR [esi+1]
  0023e	75 0c		 jne	 SHORT $LN479@AddRenderI
  00240	03 c7		 add	 eax, edi
  00242	03 f7		 add	 esi, edi
  00244	3a cb		 cmp	 cl, bl
  00246	75 e6		 jne	 SHORT $LL478@AddRenderI
$LN480@AddRenderI:
  00248	33 c0		 xor	 eax, eax
  0024a	eb 05		 jmp	 SHORT $LN481@AddRenderI
$LN479@AddRenderI:
  0024c	1b c0		 sbb	 eax, eax
  0024e	83 d8 ff	 sbb	 eax, -1
$LN481@AddRenderI:
  00251	3b c3		 cmp	 eax, ebx
  00253	75 25		 jne	 SHORT $LN3@AddRenderI

; 530  : 	{
; 531  : 		SAFEDELETE( m_pSurrender );

  00255	8b 75 e0	 mov	 esi, DWORD PTR _this$GSCopy$[ebp]
  00258	8b 8e a0 01 00
	00		 mov	 ecx, DWORD PTR [esi+416]
  0025e	3b cb		 cmp	 ecx, ebx
  00260	74 0d		 je	 SHORT $LN2@AddRenderI
  00262	8b 01		 mov	 eax, DWORD PTR [ecx]
  00264	6a 01		 push	 1
  00266	ff 50 40	 call	 DWORD PTR [eax+64]
  00269	89 9e a0 01 00
	00		 mov	 DWORD PTR [esi+416], ebx
$LN2@AddRenderI:

; 532  : 		m_pSurrender = pImage;

  0026f	8b 45 dc	 mov	 eax, DWORD PTR _pImage$GSCopy$[ebp]
  00272	89 86 a0 01 00
	00		 mov	 DWORD PTR [esi+416], eax

; 533  : 	}
; 534  : 	else

  00278	eb 0f		 jmp	 SHORT $LN1@AddRenderI
$LN3@AddRenderI:

; 535  : 	{
; 536  : 		ioWnd::AddRenderImage( szType, pImage );

  0027a	ff 75 dc	 push	 DWORD PTR _pImage$GSCopy$[ebp]
  0027d	8b 4d e0	 mov	 ecx, DWORD PTR _this$GSCopy$[ebp]
  00280	ff 75 e4	 push	 DWORD PTR _szType$GSCopy$[ebp]
  00283	ff 15 00 00 00
	00		 call	 DWORD PTR __imp_?AddRenderImage@ioWnd@@UAEXABVioHashString@@PAVioUIRenderImage@@@Z
$LN1@AddRenderI:

; 537  : 	}
; 538  : }

  00289	8b 4d fc	 mov	 ecx, DWORD PTR __$ArrayPad$[ebp]
  0028c	5f		 pop	 edi
  0028d	5e		 pop	 esi
  0028e	33 cd		 xor	 ecx, ebp
  00290	5b		 pop	 ebx
  00291	e8 00 00 00 00	 call	 @__security_check_cookie@4
  00296	c9		 leave
  00297	c2 08 00	 ret	 8
?AddRenderImage@TowerDefUserGaugeWnd@@UAEXABVioHashString@@PAVioUIRenderImage@@@Z ENDP ; TowerDefUserGaugeWnd::AddRenderImage
_TEXT	ENDS
PUBLIC	?SetUser@TowerDefUserGaugeWnd@@QAEXPAVioBaseChar@@HW4GaugeType@TowerDefWnd@@@Z ; TowerDefUserGaugeWnd::SetUser
EXTRN	__imp_?CreateImageByFullName@ioUIImageSetManager@@QAEPAVioUIRenderImage@@ABVioHashString@@_N@Z:PROC
EXTRN	__imp_?GetSingleton@ioUIImageSetManager@@SAAAV1@XZ:PROC
EXTRN	__imp_??4ioHashString@@QAEAAV0@ABV0@@Z:PROC
; Function compile flags: /Ogsp
;	COMDAT ?SetUser@TowerDefUserGaugeWnd@@QAEXPAVioBaseChar@@HW4GaugeType@TowerDefWnd@@@Z
_TEXT	SEGMENT
_value$530633 = 8					; size = 4
_pChar$ = 8						; size = 4
_nInstantLv$ = 12					; size = 4
_eGaugeType$ = 16					; size = 4
?SetUser@TowerDefUserGaugeWnd@@QAEXPAVioBaseChar@@HW4GaugeType@TowerDefWnd@@@Z PROC ; TowerDefUserGaugeWnd::SetUser, COMDAT
; _this$ = ecx

; 542  : {

  00000	55		 push	 ebp
  00001	8b ec		 mov	 ebp, esp

; 543  : 	m_eGaugeType = eGaugeType;

  00003	8b 45 10	 mov	 eax, DWORD PTR _eGaugeType$[ebp]
  00006	53		 push	 ebx
  00007	56		 push	 esi
  00008	8b f1		 mov	 esi, ecx

; 544  : 
; 545  : 	if( m_eGaugeType == TowerDefWnd::GAUGE_USER)

  0000a	33 db		 xor	 ebx, ebx
  0000c	57		 push	 edi

; 546  : 	{
; 547  : 		m_szUserName = m_szShowName = pChar->GetCharName();

  0000d	8b 3d 00 00 00
	00		 mov	 edi, DWORD PTR __imp_??4ioHashString@@QAEAAV0@ABV0@@Z
  00013	89 86 e8 01 00
	00		 mov	 DWORD PTR [esi+488], eax
  00019	8d 8e 28 02 00
	00		 lea	 ecx, DWORD PTR [esi+552]
  0001f	3b c3		 cmp	 eax, ebx
  00021	0f 85 85 00 00
	00		 jne	 $LN6@SetUser
  00027	8b 45 08	 mov	 eax, DWORD PTR _pChar$[ebp]
  0002a	05 d4 02 00 00	 add	 eax, 724		; 000002d4H
  0002f	50		 push	 eax
  00030	ff d7		 call	 edi
  00032	50		 push	 eax
  00033	8d 8e 18 02 00
	00		 lea	 ecx, DWORD PTR [esi+536]
  00039	ff d7		 call	 edi

; 548  : 		m_nLevel = nInstantLv;

  0003b	8b 45 0c	 mov	 eax, DWORD PTR _nInstantLv$[ebp]

; 549  : 		SetSurrender(false);

  0003e	53		 push	 ebx
  0003f	8b ce		 mov	 ecx, esi
  00041	89 86 38 02 00
	00		 mov	 DWORD PTR [esi+568], eax
  00047	e8 00 00 00 00	 call	 ?SetSurrender@TowerDefUserGaugeWnd@@QAEX_N@Z ; TowerDefUserGaugeWnd::SetSurrender

; 550  : 
; 551  : 		SAFEDELETE(m_pCharPotrait);

  0004c	8b be a4 01 00
	00		 mov	 edi, DWORD PTR [esi+420]
  00052	3b fb		 cmp	 edi, ebx
  00054	74 14		 je	 SHORT $LN5@SetUser
  00056	8b cf		 mov	 ecx, edi
  00058	e8 00 00 00 00	 call	 ??1TowerDef3DChar@@QAE@XZ ; TowerDef3DChar::~TowerDef3DChar
  0005d	57		 push	 edi
  0005e	e8 00 00 00 00	 call	 ??3@YAXPAX@Z		; operator delete
  00063	59		 pop	 ecx
  00064	89 9e a4 01 00
	00		 mov	 DWORD PTR [esi+420], ebx
$LN5@SetUser:

; 552  : 
; 553  : 		m_pCharPotrait = new TowerDef3DChar;

  0006a	6a 10		 push	 16			; 00000010H
  0006c	e8 00 00 00 00	 call	 ??2@YAPAXI@Z		; operator new
  00071	59		 pop	 ecx
  00072	3b c3		 cmp	 eax, ebx
  00074	74 0d		 je	 SHORT $LN11@SetUser
  00076	89 18		 mov	 DWORD PTR [eax], ebx
  00078	89 58 04	 mov	 DWORD PTR [eax+4], ebx
  0007b	89 58 08	 mov	 DWORD PTR [eax+8], ebx
  0007e	89 58 0c	 mov	 DWORD PTR [eax+12], ebx
  00081	eb 02		 jmp	 SHORT $LN12@SetUser
$LN11@SetUser:
  00083	33 c0		 xor	 eax, eax
$LN12@SetUser:

; 554  : 		m_pCharPotrait->Initialize();

  00085	8b c8		 mov	 ecx, eax
  00087	89 86 a4 01 00
	00		 mov	 DWORD PTR [esi+420], eax
  0008d	e8 00 00 00 00	 call	 ?Initialize@TowerDef3DChar@@QAEXXZ ; TowerDef3DChar::Initialize

; 555  : 
; 556  : 		if( m_pCharPotrait )

  00092	8b 8e a4 01 00
	00		 mov	 ecx, DWORD PTR [esi+420]
  00098	3b cb		 cmp	 ecx, ebx
  0009a	74 08		 je	 SHORT $LN4@SetUser

; 557  : 			m_pCharPotrait->SetChar( pChar );

  0009c	ff 75 08	 push	 DWORD PTR _pChar$[ebp]
  0009f	e8 00 00 00 00	 call	 ?SetChar@TowerDef3DChar@@QAEXPAVioBaseChar@@@Z ; TowerDef3DChar::SetChar
$LN4@SetUser:

; 558  : 
; 559  : 		m_fAniHP = 0.f;

  000a4	0f 57 c0	 xorps	 xmm0, xmm0

; 560  : 	}
; 561  : 	else

  000a7	e9 8d 00 00 00	 jmp	 $LN33@SetUser
$LN6@SetUser:

; 562  : 	{
; 563  : 		m_szUserName = m_szShowName = pChar->GetCharName();

  000ac	8b 5d 08	 mov	 ebx, DWORD PTR _pChar$[ebp]
  000af	8d 83 d4 02 00
	00		 lea	 eax, DWORD PTR [ebx+724]
  000b5	50		 push	 eax
  000b6	ff d7		 call	 edi
  000b8	50		 push	 eax
  000b9	8d 8e 18 02 00
	00		 lea	 ecx, DWORD PTR [esi+536]
  000bf	ff d7		 call	 edi

; 564  : 		if(ToNpcChar(pChar))

  000c1	53		 push	 ebx
  000c2	e8 00 00 00 00	 call	 ?ToNpcChar@@YAPAVioNpcChar@@PAVioGameEntity@@@Z ; ToNpcChar
  000c7	59		 pop	 ecx
  000c8	85 c0		 test	 eax, eax
  000ca	74 50		 je	 SHORT $LN2@SetUser

; 565  : 		{
; 566  : 			m_szShowName = ToNpcChar(pChar)->GetViewName();

  000cc	53		 push	 ebx
  000cd	e8 00 00 00 00	 call	 ?ToNpcChar@@YAPAVioNpcChar@@PAVioGameEntity@@@Z ; ToNpcChar
  000d2	59		 pop	 ecx
  000d3	05 b4 47 00 00	 add	 eax, 18356		; 000047b4H
  000d8	50		 push	 eax
  000d9	8d 8e 28 02 00
	00		 lea	 ecx, DWORD PTR [esi+552]
  000df	ff d7		 call	 edi

; 567  : 			SAFEDELETE( m_pNpcFace );

  000e1	8b 8e 9c 01 00
	00		 mov	 ecx, DWORD PTR [esi+412]
  000e7	85 c9		 test	 ecx, ecx
  000e9	74 0e		 je	 SHORT $LN1@SetUser
  000eb	8b 01		 mov	 eax, DWORD PTR [ecx]
  000ed	6a 01		 push	 1
  000ef	ff 50 40	 call	 DWORD PTR [eax+64]
  000f2	83 a6 9c 01 00
	00 00		 and	 DWORD PTR [esi+412], 0
$LN1@SetUser:

; 568  : 			m_pNpcFace = g_UIImageSetMgr.CreateImageByFullName(ToNpcChar(pChar)->GetMonsterIcon());

  000f9	53		 push	 ebx
  000fa	e8 00 00 00 00	 call	 ?ToNpcChar@@YAPAVioNpcChar@@PAVioGameEntity@@@Z ; ToNpcChar
  000ff	59		 pop	 ecx
  00100	05 80 48 00 00	 add	 eax, 18560		; 00004880H
  00105	6a 00		 push	 0
  00107	50		 push	 eax
  00108	ff 15 00 00 00
	00		 call	 DWORD PTR __imp_?GetSingleton@ioUIImageSetManager@@SAAAV1@XZ
  0010e	8b c8		 mov	 ecx, eax
  00110	ff 15 00 00 00
	00		 call	 DWORD PTR __imp_?CreateImageByFullName@ioUIImageSetManager@@QAEPAVioUIRenderImage@@ABVioHashString@@_N@Z
  00116	89 86 9c 01 00
	00		 mov	 DWORD PTR [esi+412], eax
$LN2@SetUser:

; 569  : 		}
; 570  : 		m_nLevel = nInstantLv;

  0011c	8b 45 0c	 mov	 eax, DWORD PTR _nInstantLv$[ebp]
  0011f	89 86 38 02 00
	00		 mov	 DWORD PTR [esi+568], eax

; 571  : 		StatusValue &pHp = pChar->GetHP();
; 572  : 		
; 573  : 		m_fAniHP = pHp.m_fCurValue;

  00125	8d 45 08	 lea	 eax, DWORD PTR _value$530633[ebp]
  00128	50		 push	 eax
  00129	8d 8b c0 00 00
	00		 lea	 ecx, DWORD PTR [ebx+192]
  0012f	e8 00 00 00 00	 call	 ?DecryptValueToPool@?$CEncrypt@M@@QAEXPAM@Z ; CEncrypt<float>::DecryptValueToPool
  00134	f3 0f 10 45 08	 movss	 xmm0, DWORD PTR _value$530633[ebp]
$LN33@SetUser:
  00139	5f		 pop	 edi
  0013a	f3 0f 11 86 04
	02 00 00	 movss	 DWORD PTR [esi+516], xmm0
  00142	5e		 pop	 esi
  00143	5b		 pop	 ebx

; 574  : 	}
; 575  : }

  00144	5d		 pop	 ebp
  00145	c2 0c 00	 ret	 12			; 0000000cH
?SetUser@TowerDefUserGaugeWnd@@QAEXPAVioBaseChar@@HW4GaugeType@TowerDefWnd@@@Z ENDP ; TowerDefUserGaugeWnd::SetUser
_TEXT	ENDS
PUBLIC	?UpdateAniState@TowerDefUserGaugeWnd@@IAEXXZ	; TowerDefUserGaugeWnd::UpdateAniState
; Function compile flags: /Ogsp
;	COMDAT ?UpdateAniState@TowerDefUserGaugeWnd@@IAEXXZ
_TEXT	SEGMENT
?UpdateAniState@TowerDefUserGaugeWnd@@IAEXXZ PROC	; TowerDefUserGaugeWnd::UpdateAniState, COMDAT
; _this$ = ecx

; 957  : {

  00000	56		 push	 esi
  00001	8b f1		 mov	 esi, ecx

; 958  : 	if( UpdateShowAni() )

  00003	e8 00 00 00 00	 call	 ?UpdateShowAni@TowerDefUserGaugeWnd@@IAE_NXZ ; TowerDefUserGaugeWnd::UpdateShowAni
  00008	84 c0		 test	 al, al
  0000a	75 56		 jne	 SHORT $LN1@UpdateAniS

; 959  : 		return;
; 960  : 
; 961  : 	UpdateDefaultPos();

  0000c	8b ce		 mov	 ecx, esi
  0000e	e8 00 00 00 00	 call	 ?UpdateDefaultPos@TowerDefUserGaugeWnd@@IAEXXZ ; TowerDefUserGaugeWnd::UpdateDefaultPos

; 962  : 
; 963  : 	// blind ani
; 964  : 	if( m_iBlindOffSetY != m_iPreBlindOffSetY )

  00013	8b 86 d8 01 00
	00		 mov	 eax, DWORD PTR [esi+472]
  00019	3b 86 dc 01 00
	00		 cmp	 eax, DWORD PTR [esi+476]
  0001f	74 41		 je	 SHORT $LN1@UpdateAniS

; 965  : 	{
; 966  : 		int iCurYPos = m_iDefaultY + m_iBlindOffSetY;

  00021	57		 push	 edi
  00022	8b be e4 01 00
	00		 mov	 edi, DWORD PTR [esi+484]
  00028	03 f8		 add	 edi, eax

; 967  : 		if( !COMPARE( iCurYPos, 0, ( Setting::Height() - GetHeight() ) + 1) )

  0002a	78 35		 js	 SHORT $LN7@UpdateAniS
  0002c	53		 push	 ebx
  0002d	8b ce		 mov	 ecx, esi
  0002f	ff 15 00 00 00
	00		 call	 DWORD PTR __imp_?GetHeight@ioWnd@@QBEHXZ
  00035	33 db		 xor	 ebx, ebx
  00037	43		 inc	 ebx
  00038	2b d8		 sub	 ebx, eax
  0003a	e8 00 00 00 00	 call	 ?Height@Setting@@SAHXZ	; Setting::Height
  0003f	03 c3		 add	 eax, ebx
  00041	5b		 pop	 ebx
  00042	3b f8		 cmp	 edi, eax
  00044	7d 1b		 jge	 SHORT $LN7@UpdateAniS

; 968  : 			return;
; 969  : 		SetWndPos( m_iDefaultX, iCurYPos );

  00046	57		 push	 edi
  00047	ff b6 e0 01 00
	00		 push	 DWORD PTR [esi+480]
  0004d	8b ce		 mov	 ecx, esi
  0004f	ff 15 00 00 00
	00		 call	 DWORD PTR __imp_?SetWndPos@ioWnd@@QAEXHH@Z

; 970  : 		m_iPreBlindOffSetY = m_iBlindOffSetY;	

  00055	8b 86 d8 01 00
	00		 mov	 eax, DWORD PTR [esi+472]
  0005b	89 86 dc 01 00
	00		 mov	 DWORD PTR [esi+476], eax
$LN7@UpdateAniS:
  00061	5f		 pop	 edi
$LN1@UpdateAniS:
  00062	5e		 pop	 esi

; 971  : 	}
; 972  : }

  00063	c3		 ret	 0
?UpdateAniState@TowerDefUserGaugeWnd@@IAEXXZ ENDP	; TowerDefUserGaugeWnd::UpdateAniState
_TEXT	ENDS
PUBLIC	?UpdateAniState@ConsumptionWnd@@IAEXXZ		; ConsumptionWnd::UpdateAniState
; Function compile flags: /Ogsp
;	COMDAT ?UpdateAniState@ConsumptionWnd@@IAEXXZ
_TEXT	SEGMENT
?UpdateAniState@ConsumptionWnd@@IAEXXZ PROC		; ConsumptionWnd::UpdateAniState, COMDAT
; _this$ = ecx

; 1213 : {

  00000	56		 push	 esi
  00001	8b f1		 mov	 esi, ecx

; 1214 : 	if( UpdateShowAni() )

  00003	e8 00 00 00 00	 call	 ?UpdateShowAni@ConsumptionWnd@@IAE_NXZ ; ConsumptionWnd::UpdateShowAni
  00008	84 c0		 test	 al, al
  0000a	75 56		 jne	 SHORT $LN1@UpdateAniS@2

; 1215 : 		return;
; 1216 : 
; 1217 : 	UpdateDefaultPos();

  0000c	8b ce		 mov	 ecx, esi
  0000e	e8 00 00 00 00	 call	 ?UpdateDefaultPos@ConsumptionWnd@@IAEXXZ ; ConsumptionWnd::UpdateDefaultPos

; 1218 : 
; 1219 : 	// blind ani
; 1220 : 	if( m_iBlindOffSetY != m_iPreBlindOffSetY )

  00013	8b 86 b8 01 00
	00		 mov	 eax, DWORD PTR [esi+440]
  00019	3b 86 bc 01 00
	00		 cmp	 eax, DWORD PTR [esi+444]
  0001f	74 41		 je	 SHORT $LN1@UpdateAniS@2

; 1221 : 	{
; 1222 : 		int iCurYPos = m_iDefaultY + m_iBlindOffSetY;

  00021	57		 push	 edi
  00022	8b be c4 01 00
	00		 mov	 edi, DWORD PTR [esi+452]
  00028	03 f8		 add	 edi, eax

; 1223 : 		if( !COMPARE( iCurYPos, 0, ( Setting::Height() - GetHeight() ) + 1) )

  0002a	78 35		 js	 SHORT $LN7@UpdateAniS@2
  0002c	53		 push	 ebx
  0002d	8b ce		 mov	 ecx, esi
  0002f	ff 15 00 00 00
	00		 call	 DWORD PTR __imp_?GetHeight@ioWnd@@QBEHXZ
  00035	33 db		 xor	 ebx, ebx
  00037	43		 inc	 ebx
  00038	2b d8		 sub	 ebx, eax
  0003a	e8 00 00 00 00	 call	 ?Height@Setting@@SAHXZ	; Setting::Height
  0003f	03 c3		 add	 eax, ebx
  00041	5b		 pop	 ebx
  00042	3b f8		 cmp	 edi, eax
  00044	7d 1b		 jge	 SHORT $LN7@UpdateAniS@2

; 1224 : 			return;
; 1225 : 		SetWndPos( m_iDefaultX, iCurYPos );

  00046	57		 push	 edi
  00047	ff b6 c0 01 00
	00		 push	 DWORD PTR [esi+448]
  0004d	8b ce		 mov	 ecx, esi
  0004f	ff 15 00 00 00
	00		 call	 DWORD PTR __imp_?SetWndPos@ioWnd@@QAEXHH@Z

; 1226 : 		m_iPreBlindOffSetY = m_iBlindOffSetY;	

  00055	8b 86 b8 01 00
	00		 mov	 eax, DWORD PTR [esi+440]
  0005b	89 86 bc 01 00
	00		 mov	 DWORD PTR [esi+444], eax
$LN7@UpdateAniS@2:
  00061	5f		 pop	 edi
$LN1@UpdateAniS@2:
  00062	5e		 pop	 esi

; 1227 : 	}
; 1228 : }

  00063	c3		 ret	 0
?UpdateAniState@ConsumptionWnd@@IAEXXZ ENDP		; ConsumptionWnd::UpdateAniState
_TEXT	ENDS
PUBLIC	_this$GSCopy$
PUBLIC	__$ArrayPad$
EXTRN	__imp_?AddRenderImage@ioButton@@UAEXABVioHashString@@PAVioUIRenderImage@@@Z:PROC
; Function compile flags: /Ogsp
;	COMDAT ?AddRenderImage@ConsumptionSlotBtn@@MAEXABVioHashString@@PAVioUIRenderImage@@@Z
_TEXT	SEGMENT
_this$GSCopy$ = -24					; size = 4
__t$530664 = -20					; size = 10
__$ArrayPad$ = -4					; size = 4
_szType$ = 8						; size = 4
_pImage$ = 12						; size = 4
?AddRenderImage@ConsumptionSlotBtn@@MAEXABVioHashString@@PAVioUIRenderImage@@@Z PROC ; ConsumptionSlotBtn::AddRenderImage, COMDAT
; _this$ = ecx

; 1346 : {

  00000	55		 push	 ebp
  00001	8b ec		 mov	 ebp, esp
  00003	83 ec 18	 sub	 esp, 24			; 00000018H
  00006	a1 00 00 00 00	 mov	 eax, DWORD PTR ___security_cookie
  0000b	33 c5		 xor	 eax, ebp
  0000d	89 45 fc	 mov	 DWORD PTR __$ArrayPad$[ebp], eax
  00010	53		 push	 ebx
  00011	8b 5d 0c	 mov	 ebx, DWORD PTR _pImage$[ebp]
  00014	56		 push	 esi
  00015	57		 push	 edi
  00016	8b 7d 08	 mov	 edi, DWORD PTR _szType$[ebp]

; 1347 : 	if( szType == "EmptySlot" )

  00019	6a 02		 push	 2
  0001b	89 4d e8	 mov	 DWORD PTR _this$GSCopy$[ebp], ecx
  0001e	c7 45 ec a8 81
	9b 9e		 mov	 DWORD PTR __t$530664[ebp], -1633975896 ; 9e9b81a8H
  00025	c7 45 f0 94 bf
	87 85		 mov	 DWORD PTR __t$530664[ebp+4], -2054701164 ; 8587bf94H
  0002c	8d 45 ec	 lea	 eax, DWORD PTR __t$530664[ebp]
  0002f	66 c7 45 f4 99
	00		 mov	 WORD PTR __t$530664[ebp+8], 153 ; 00000099H
  00035	59		 pop	 ecx
$LL111@AddRenderI@2:
  00036	81 30 ed ec eb
	ea		 xor	 DWORD PTR [eax], -353637139 ; eaebecedH
  0003c	83 c0 04	 add	 eax, 4
  0003f	49		 dec	 ecx
  00040	75 f4		 jne	 SHORT $LL111@AddRenderI@2
  00042	80 75 f4 ed	 xor	 BYTE PTR __t$530664[ebp+8], -19 ; ffffffedH
  00046	8b cf		 mov	 ecx, edi
  00048	8d 75 ec	 lea	 esi, DWORD PTR __t$530664[ebp]
  0004b	ff 15 00 00 00
	00		 call	 DWORD PTR __imp_?c_str@ioHashString@@QBEPBDXZ
$LL118@AddRenderI@2:
  00051	8a 08		 mov	 cl, BYTE PTR [eax]
  00053	3a 0e		 cmp	 cl, BYTE PTR [esi]
  00055	75 1a		 jne	 SHORT $LN119@AddRenderI@2
  00057	84 c9		 test	 cl, cl
  00059	74 12		 je	 SHORT $LN120@AddRenderI@2
  0005b	8a 48 01	 mov	 cl, BYTE PTR [eax+1]
  0005e	3a 4e 01	 cmp	 cl, BYTE PTR [esi+1]
  00061	75 0e		 jne	 SHORT $LN119@AddRenderI@2
  00063	83 c0 02	 add	 eax, 2
  00066	83 c6 02	 add	 esi, 2
  00069	84 c9		 test	 cl, cl
  0006b	75 e4		 jne	 SHORT $LL118@AddRenderI@2
$LN120@AddRenderI@2:
  0006d	33 c0		 xor	 eax, eax
  0006f	eb 05		 jmp	 SHORT $LN121@AddRenderI@2
$LN119@AddRenderI@2:
  00071	1b c0		 sbb	 eax, eax
  00073	83 d8 ff	 sbb	 eax, -1
$LN121@AddRenderI@2:
  00076	85 c0		 test	 eax, eax
  00078	75 23		 jne	 SHORT $LN3@AddRenderI@2

; 1348 : 	{
; 1349 : 		SAFEDELETE(m_pEmptySlotImg);

  0007a	8b 75 e8	 mov	 esi, DWORD PTR _this$GSCopy$[ebp]
  0007d	8b 8e fc 01 00
	00		 mov	 ecx, DWORD PTR [esi+508]
  00083	85 c9		 test	 ecx, ecx
  00085	74 0e		 je	 SHORT $LN2@AddRenderI@2
  00087	8b 01		 mov	 eax, DWORD PTR [ecx]
  00089	6a 01		 push	 1
  0008b	ff 50 40	 call	 DWORD PTR [eax+64]
  0008e	83 a6 fc 01 00
	00 00		 and	 DWORD PTR [esi+508], 0
$LN2@AddRenderI@2:

; 1350 : 		m_pEmptySlotImg = pImage;

  00095	89 9e fc 01 00
	00		 mov	 DWORD PTR [esi+508], ebx

; 1351 : 	}
; 1352 : 	else

  0009b	eb 0b		 jmp	 SHORT $LN1@AddRenderI@2
$LN3@AddRenderI@2:

; 1353 : 	{
; 1354 : 		ioButton::AddRenderImage( szType, pImage );

  0009d	8b 4d e8	 mov	 ecx, DWORD PTR _this$GSCopy$[ebp]
  000a0	53		 push	 ebx
  000a1	57		 push	 edi
  000a2	ff 15 00 00 00
	00		 call	 DWORD PTR __imp_?AddRenderImage@ioButton@@UAEXABVioHashString@@PAVioUIRenderImage@@@Z
$LN1@AddRenderI@2:

; 1355 : 	}
; 1356 : }

  000a8	8b 4d fc	 mov	 ecx, DWORD PTR __$ArrayPad$[ebp]
  000ab	5f		 pop	 edi
  000ac	5e		 pop	 esi
  000ad	33 cd		 xor	 ecx, ebp
  000af	5b		 pop	 ebx
  000b0	e8 00 00 00 00	 call	 @__security_check_cookie@4
  000b5	c9		 leave
  000b6	c2 08 00	 ret	 8
?AddRenderImage@ConsumptionSlotBtn@@MAEXABVioHashString@@PAVioUIRenderImage@@@Z ENDP ; ConsumptionSlotBtn::AddRenderImage
_TEXT	ENDS
PUBLIC	??_C@_0BN@DGFHCJHI@ConsumptionSlotBtn?3?3InitItem?$AA@ ; `string'
PUBLIC	__$ArrayPad$
PUBLIC	?InitItem@ConsumptionSlotBtn@@QAEXPAVioSlotItem@@@Z ; ConsumptionSlotBtn::InitItem
EXTRN	?GetKeyText@ioKeyManager@@QAEPBDG@Z:PROC	; ioKeyManager::GetKeyText
EXTRN	?GetSingleton@ioKeyManager@@SAAAV1@XZ:PROC	; ioKeyManager::GetSingleton
;	COMDAT ??_C@_0BN@DGFHCJHI@ConsumptionSlotBtn?3?3InitItem?$AA@
; File d:\lost saga for developer\youtube\tutorial\source\src\lsclient\ioslotmgr.h
CONST	SEGMENT
??_C@_0BN@DGFHCJHI@ConsumptionSlotBtn?3?3InitItem?$AA@ DB 'ConsumptionSlo'
	DB	'tBtn::InitItem', 00H			; `string'
; Function compile flags: /Ogsp
; File d:\lost saga for developer\youtube\tutorial\source\src\lsclient\gui\towerdefwnd.cpp
CONST	ENDS
;	COMDAT ?InitItem@ConsumptionSlotBtn@@QAEXPAVioSlotItem@@@Z
_TEXT	SEGMENT
_szKeyText$ = -264					; size = 260
__$ArrayPad$ = -4					; size = 4
_pItem$ = 8						; size = 4
?InitItem@ConsumptionSlotBtn@@QAEXPAVioSlotItem@@@Z PROC ; ConsumptionSlotBtn::InitItem, COMDAT
; _this$ = ecx

; 1455 : {

  00000	55		 push	 ebp
  00001	8b ec		 mov	 ebp, esp
  00003	81 ec 08 01 00
	00		 sub	 esp, 264		; 00000108H
  00009	a1 00 00 00 00	 mov	 eax, DWORD PTR ___security_cookie
  0000e	33 c5		 xor	 eax, ebp
  00010	89 45 fc	 mov	 DWORD PTR __$ArrayPad$[ebp], eax
  00013	56		 push	 esi
  00014	57		 push	 edi
  00015	8b 7d 08	 mov	 edi, DWORD PTR _pItem$[ebp]
  00018	8b f1		 mov	 esi, ecx

; 1456 : 	if(pItem == NULL)

  0001a	85 ff		 test	 edi, edi
  0001c	0f 84 21 01 00
	00		 je	 $LN5@InitItem

; 1457 : 		return;
; 1458 : 
; 1459 : 	SAFEDELETE(m_pItemIcon);

  00022	8b 8e 00 02 00
	00		 mov	 ecx, DWORD PTR [esi+512]
  00028	85 c9		 test	 ecx, ecx
  0002a	74 0e		 je	 SHORT $LN3@InitItem
  0002c	8b 01		 mov	 eax, DWORD PTR [ecx]
  0002e	6a 01		 push	 1
  00030	ff 50 40	 call	 DWORD PTR [eax+64]
  00033	83 a6 00 02 00
	00 00		 and	 DWORD PTR [esi+512], 0
$LN3@InitItem:

; 1460 : 	m_pItemIcon = g_UIImageSetMgr.CreateImageByFullName(pItem->GetImg());

  0003a	53		 push	 ebx
  0003b	8b 1d 00 00 00
	00		 mov	 ebx, DWORD PTR __imp_?GetSingleton@ioUIImageSetManager@@SAAAV1@XZ
  00041	8d 47 04	 lea	 eax, DWORD PTR [edi+4]
  00044	6a 00		 push	 0
  00046	50		 push	 eax
  00047	ff d3		 call	 ebx
  00049	8b c8		 mov	 ecx, eax
  0004b	ff 15 00 00 00
	00		 call	 DWORD PTR __imp_?CreateImageByFullName@ioUIImageSetManager@@QAEPAVioUIRenderImage@@ABVioHashString@@_N@Z

; 1461 : 
; 1462 : 	SAFEDELETE(m_pItemBackImg);

  00051	8b 8e 04 02 00
	00		 mov	 ecx, DWORD PTR [esi+516]
  00057	89 86 00 02 00
	00		 mov	 DWORD PTR [esi+512], eax
  0005d	85 c9		 test	 ecx, ecx
  0005f	74 0e		 je	 SHORT $LN2@InitItem
  00061	8b 01		 mov	 eax, DWORD PTR [ecx]
  00063	6a 01		 push	 1
  00065	ff 50 40	 call	 DWORD PTR [eax+64]
  00068	83 a6 04 02 00
	00 00		 and	 DWORD PTR [esi+516], 0
$LN2@InitItem:

; 1463 : 	m_pItemBackImg = g_UIImageSetMgr.CreateImageByFullName(pItem->GetBackImg());

  0006f	8d 47 14	 lea	 eax, DWORD PTR [edi+20]
  00072	6a 00		 push	 0
  00074	50		 push	 eax
  00075	ff d3		 call	 ebx
  00077	8b c8		 mov	 ecx, eax
  00079	ff 15 00 00 00
	00		 call	 DWORD PTR __imp_?CreateImageByFullName@ioUIImageSetManager@@QAEPAVioUIRenderImage@@ABVioHashString@@_N@Z

; 1464 : 
; 1465 : 	char szKeyText[MAX_PATH] = "";

  0007f	68 03 01 00 00	 push	 259			; 00000103H
  00084	89 86 04 02 00
	00		 mov	 DWORD PTR [esi+516], eax
  0008a	8d 85 f9 fe ff
	ff		 lea	 eax, DWORD PTR _szKeyText$[ebp+1]
  00090	6a 00		 push	 0
  00092	50		 push	 eax
  00093	c6 85 f8 fe ff
	ff 00		 mov	 BYTE PTR _szKeyText$[ebp], 0
  0009a	e8 00 00 00 00	 call	 _memset

; 1466 : 	StringCbCopy( szKeyText, sizeof( szKeyText ), g_KeyManager.GetKeyText(pItem->GetKeyName()));

  0009f	0f b7 47 40	 movzx	 eax, WORD PTR [edi+64]
  000a3	83 c4 0c	 add	 esp, 12			; 0000000cH
  000a6	50		 push	 eax
  000a7	e8 00 00 00 00	 call	 ?GetSingleton@ioKeyManager@@SAAAV1@XZ ; ioKeyManager::GetSingleton
  000ac	8b c8		 mov	 ecx, eax
  000ae	e8 00 00 00 00	 call	 ?GetKeyText@ioKeyManager@@QAEPBDG@Z ; ioKeyManager::GetKeyText
  000b3	50		 push	 eax
  000b4	68 04 01 00 00	 push	 260			; 00000104H
  000b9	8d 85 f8 fe ff
	ff		 lea	 eax, DWORD PTR _szKeyText$[ebp]
  000bf	50		 push	 eax
  000c0	e8 00 00 00 00	 call	 ?StringCbCopyA@@YGJPADIPBD@Z ; StringCbCopyA

; 1467 : 
; 1468 : 	if( strcmp( szKeyText, STR(2) ) == 0 )

  000c5	6a 00		 push	 0
  000c7	6a 02		 push	 2
  000c9	68 00 00 00 00	 push	 OFFSET ??_C@_00CNPNBAHC@?$AA@
  000ce	68 00 00 00 00	 push	 OFFSET ??_C@_0BN@DGFHCJHI@ConsumptionSlotBtn?3?3InitItem?$AA@
  000d3	ff 15 00 00 00
	00		 call	 DWORD PTR __imp_?GetSingleton@ioStringManager@@SAAAV1@XZ
  000d9	8b c8		 mov	 ecx, eax
  000db	ff 15 00 00 00
	00		 call	 DWORD PTR __imp_?GetString@ioStringManager@@QAEPADPBD0HW4FileNamePrefix@1@@Z
  000e1	8d 8d f8 fe ff
	ff		 lea	 ecx, DWORD PTR _szKeyText$[ebp]
  000e7	5b		 pop	 ebx
$LL21@InitItem:
  000e8	8a 11		 mov	 dl, BYTE PTR [ecx]
  000ea	3a 10		 cmp	 dl, BYTE PTR [eax]
  000ec	75 1a		 jne	 SHORT $LN22@InitItem
  000ee	84 d2		 test	 dl, dl
  000f0	74 12		 je	 SHORT $LN23@InitItem
  000f2	8a 51 01	 mov	 dl, BYTE PTR [ecx+1]
  000f5	3a 50 01	 cmp	 dl, BYTE PTR [eax+1]
  000f8	75 0e		 jne	 SHORT $LN22@InitItem
  000fa	83 c1 02	 add	 ecx, 2
  000fd	83 c0 02	 add	 eax, 2
  00100	84 d2		 test	 dl, dl
  00102	75 e4		 jne	 SHORT $LL21@InitItem
$LN23@InitItem:
  00104	33 c0		 xor	 eax, eax
  00106	eb 05		 jmp	 SHORT $LN24@InitItem
$LN22@InitItem:
  00108	1b c0		 sbb	 eax, eax
  0010a	83 d8 ff	 sbb	 eax, -1
$LN24@InitItem:
  0010d	85 c0		 test	 eax, eax
  0010f	75 06		 jne	 SHORT $LN1@InitItem

; 1469 : 		strcpy(szKeyText, "");

  00111	88 85 f8 fe ff
	ff		 mov	 BYTE PTR _szKeyText$[ebp], al
$LN1@InitItem:

; 1470 : 
; 1471 : 	szKeyText[2] = NULL;
; 1472 : 	m_strKey = szKeyText;

  00117	8d 85 f8 fe ff
	ff		 lea	 eax, DWORD PTR _szKeyText$[ebp]
  0011d	50		 push	 eax
  0011e	8d 8e 08 02 00
	00		 lea	 ecx, DWORD PTR [esi+520]
  00124	c6 85 fa fe ff
	ff 00		 mov	 BYTE PTR _szKeyText$[ebp+2], 0
  0012b	ff 15 00 00 00
	00		 call	 DWORD PTR __imp_??4ioHashString@@QAEAAV0@PBD@Z

; 1473 : 
; 1474 : 	m_nItem = pItem->GetCountItem();

  00131	8b 47 3c	 mov	 eax, DWORD PTR [edi+60]
  00134	89 86 18 02 00
	00		 mov	 DWORD PTR [esi+536], eax

; 1475 : 	m_dwCoolTime = pItem->GetCTFrame();

  0013a	8b 47 48	 mov	 eax, DWORD PTR [edi+72]
  0013d	89 86 1c 02 00
	00		 mov	 DWORD PTR [esi+540], eax
$LN5@InitItem:

; 1476 : }

  00143	8b 4d fc	 mov	 ecx, DWORD PTR __$ArrayPad$[ebp]
  00146	5f		 pop	 edi
  00147	33 cd		 xor	 ecx, ebp
  00149	5e		 pop	 esi
  0014a	e8 00 00 00 00	 call	 @__security_check_cookie@4
  0014f	c9		 leave
  00150	c2 04 00	 ret	 4
?InitItem@ConsumptionSlotBtn@@QAEXPAVioSlotItem@@@Z ENDP ; ConsumptionSlotBtn::InitItem
_TEXT	ENDS
PUBLIC	??_C@_0BP@ELJKLBBH@ConsumptionSlotBtn?3?3UpdateItem?$AA@ ; `string'
PUBLIC	__$ArrayPad$
PUBLIC	?UpdateItem@ConsumptionSlotBtn@@QAEXPAVioSlotItem@@@Z ; ConsumptionSlotBtn::UpdateItem
;	COMDAT ??_C@_0BP@ELJKLBBH@ConsumptionSlotBtn?3?3UpdateItem?$AA@
; File d:\lost saga for developer\youtube\tutorial\source\src\lsclient\ioslotmgr.h
CONST	SEGMENT
??_C@_0BP@ELJKLBBH@ConsumptionSlotBtn?3?3UpdateItem?$AA@ DB 'ConsumptionS'
	DB	'lotBtn::UpdateItem', 00H			; `string'
; Function compile flags: /Ogsp
; File d:\lost saga for developer\youtube\tutorial\source\src\lsclient\gui\towerdefwnd.cpp
CONST	ENDS
;	COMDAT ?UpdateItem@ConsumptionSlotBtn@@QAEXPAVioSlotItem@@@Z
_TEXT	SEGMENT
_szKeyText$ = -264					; size = 260
__$ArrayPad$ = -4					; size = 4
_pItem$ = 8						; size = 4
?UpdateItem@ConsumptionSlotBtn@@QAEXPAVioSlotItem@@@Z PROC ; ConsumptionSlotBtn::UpdateItem, COMDAT
; _this$ = ecx

; 1479 : {

  00000	55		 push	 ebp
  00001	8b ec		 mov	 ebp, esp
  00003	81 ec 08 01 00
	00		 sub	 esp, 264		; 00000108H
  00009	a1 00 00 00 00	 mov	 eax, DWORD PTR ___security_cookie
  0000e	33 c5		 xor	 eax, ebp
  00010	89 45 fc	 mov	 DWORD PTR __$ArrayPad$[ebp], eax
  00013	53		 push	 ebx
  00014	56		 push	 esi
  00015	8b 75 08	 mov	 esi, DWORD PTR _pItem$[ebp]

; 1480 : 	if(pItem == NULL)

  00018	33 db		 xor	 ebx, ebx
  0001a	57		 push	 edi
  0001b	8b f9		 mov	 edi, ecx
  0001d	3b f3		 cmp	 esi, ebx
  0001f	0f 84 b9 00 00
	00		 je	 $LN3@UpdateItem

; 1481 : 		return;
; 1482 : 
; 1483 : 	char szKeyText[MAX_PATH] = "";

  00025	68 03 01 00 00	 push	 259			; 00000103H
  0002a	8d 85 f9 fe ff
	ff		 lea	 eax, DWORD PTR _szKeyText$[ebp+1]
  00030	53		 push	 ebx
  00031	50		 push	 eax
  00032	88 9d f8 fe ff
	ff		 mov	 BYTE PTR _szKeyText$[ebp], bl
  00038	e8 00 00 00 00	 call	 _memset

; 1484 : 	StringCbCopy( szKeyText, sizeof( szKeyText ), g_KeyManager.GetKeyText(pItem->GetKeyName()));

  0003d	0f b7 46 40	 movzx	 eax, WORD PTR [esi+64]
  00041	83 c4 0c	 add	 esp, 12			; 0000000cH
  00044	50		 push	 eax
  00045	e8 00 00 00 00	 call	 ?GetSingleton@ioKeyManager@@SAAAV1@XZ ; ioKeyManager::GetSingleton
  0004a	8b c8		 mov	 ecx, eax
  0004c	e8 00 00 00 00	 call	 ?GetKeyText@ioKeyManager@@QAEPBDG@Z ; ioKeyManager::GetKeyText
  00051	50		 push	 eax
  00052	68 04 01 00 00	 push	 260			; 00000104H
  00057	8d 85 f8 fe ff
	ff		 lea	 eax, DWORD PTR _szKeyText$[ebp]
  0005d	50		 push	 eax
  0005e	e8 00 00 00 00	 call	 ?StringCbCopyA@@YGJPADIPBD@Z ; StringCbCopyA

; 1485 : 
; 1486 : 	if( strcmp( szKeyText, STR(2) ) == 0 )

  00063	53		 push	 ebx
  00064	6a 02		 push	 2
  00066	68 00 00 00 00	 push	 OFFSET ??_C@_00CNPNBAHC@?$AA@
  0006b	68 00 00 00 00	 push	 OFFSET ??_C@_0BP@ELJKLBBH@ConsumptionSlotBtn?3?3UpdateItem?$AA@
  00070	ff 15 00 00 00
	00		 call	 DWORD PTR __imp_?GetSingleton@ioStringManager@@SAAAV1@XZ
  00076	8b c8		 mov	 ecx, eax
  00078	ff 15 00 00 00
	00		 call	 DWORD PTR __imp_?GetString@ioStringManager@@QAEPADPBD0HW4FileNamePrefix@1@@Z
  0007e	8d 8d f8 fe ff
	ff		 lea	 ecx, DWORD PTR _szKeyText$[ebp]
$LL11@UpdateItem:
  00084	8a 11		 mov	 dl, BYTE PTR [ecx]
  00086	3a 10		 cmp	 dl, BYTE PTR [eax]
  00088	75 1a		 jne	 SHORT $LN12@UpdateItem
  0008a	3a d3		 cmp	 dl, bl
  0008c	74 12		 je	 SHORT $LN13@UpdateItem
  0008e	8a 51 01	 mov	 dl, BYTE PTR [ecx+1]
  00091	3a 50 01	 cmp	 dl, BYTE PTR [eax+1]
  00094	75 0e		 jne	 SHORT $LN12@UpdateItem
  00096	83 c1 02	 add	 ecx, 2
  00099	83 c0 02	 add	 eax, 2
  0009c	3a d3		 cmp	 dl, bl
  0009e	75 e4		 jne	 SHORT $LL11@UpdateItem
$LN13@UpdateItem:
  000a0	33 c0		 xor	 eax, eax
  000a2	eb 05		 jmp	 SHORT $LN14@UpdateItem
$LN12@UpdateItem:
  000a4	1b c0		 sbb	 eax, eax
  000a6	83 d8 ff	 sbb	 eax, -1
$LN14@UpdateItem:
  000a9	3b c3		 cmp	 eax, ebx
  000ab	75 06		 jne	 SHORT $LN1@UpdateItem

; 1487 : 		strcpy(szKeyText, "");

  000ad	88 9d f8 fe ff
	ff		 mov	 BYTE PTR _szKeyText$[ebp], bl
$LN1@UpdateItem:

; 1488 : 
; 1489 : 	szKeyText[2] = NULL;
; 1490 : 	m_strKey = szKeyText;

  000b3	8d 85 f8 fe ff
	ff		 lea	 eax, DWORD PTR _szKeyText$[ebp]
  000b9	50		 push	 eax
  000ba	8d 8f 08 02 00
	00		 lea	 ecx, DWORD PTR [edi+520]
  000c0	88 9d fa fe ff
	ff		 mov	 BYTE PTR _szKeyText$[ebp+2], bl
  000c6	ff 15 00 00 00
	00		 call	 DWORD PTR __imp_??4ioHashString@@QAEAAV0@PBD@Z

; 1491 : 
; 1492 : 	m_nItem = pItem->GetCountItem();

  000cc	8b 46 3c	 mov	 eax, DWORD PTR [esi+60]
  000cf	89 87 18 02 00
	00		 mov	 DWORD PTR [edi+536], eax

; 1493 : 	m_dwCoolTime = pItem->GetCTFrame();

  000d5	8b 46 48	 mov	 eax, DWORD PTR [esi+72]
  000d8	89 87 1c 02 00
	00		 mov	 DWORD PTR [edi+540], eax
$LN3@UpdateItem:

; 1494 : }

  000de	8b 4d fc	 mov	 ecx, DWORD PTR __$ArrayPad$[ebp]
  000e1	5f		 pop	 edi
  000e2	5e		 pop	 esi
  000e3	33 cd		 xor	 ecx, ebp
  000e5	5b		 pop	 ebx
  000e6	e8 00 00 00 00	 call	 @__security_check_cookie@4
  000eb	c9		 leave
  000ec	c2 04 00	 ret	 4
?UpdateItem@ConsumptionSlotBtn@@QAEXPAVioSlotItem@@@Z ENDP ; ConsumptionSlotBtn::UpdateItem
_TEXT	ENDS
PUBLIC	?_Grow_to@?$vector@VioHashString@@V?$allocator@VioHashString@@@std@@@std@@IBEII@Z ; std::vector<ioHashString,std::allocator<ioHashString> >::_Grow_to
; Function compile flags: /Ogsp
; File c:\program files (x86)\microsoft visual studio 10.0\vc\include\vector
;	COMDAT ?_Grow_to@?$vector@VioHashString@@V?$allocator@VioHashString@@@std@@@std@@IBEII@Z
_TEXT	SEGMENT
__Count$ = 8						; size = 4
?_Grow_to@?$vector@VioHashString@@V?$allocator@VioHashString@@@std@@@std@@IBEII@Z PROC ; std::vector<ioHashString,std::allocator<ioHashString> >::_Grow_to, COMDAT
; _this$ = ecx

; 1274 : 		{	// grow by 50% or at least to _Count

  00000	55		 push	 ebp
  00001	8b ec		 mov	 ebp, esp

; 1275 : 		size_type _Capacity = capacity();

  00003	8b 41 08	 mov	 eax, DWORD PTR [ecx+8]
  00006	2b 01		 sub	 eax, DWORD PTR [ecx]

; 1276 : 
; 1277 : 		_Capacity = max_size() - _Capacity / 2 < _Capacity
; 1278 : 			? 0 : _Capacity + _Capacity / 2;	// try to grow by 50%

  00008	ba ff ff ff 0f	 mov	 edx, 268435455		; 0fffffffH
  0000d	c1 f8 04	 sar	 eax, 4
  00010	8b c8		 mov	 ecx, eax
  00012	d1 e9		 shr	 ecx, 1
  00014	2b d1		 sub	 edx, ecx
  00016	3b d0		 cmp	 edx, eax
  00018	73 04		 jae	 SHORT $LN4@Grow_to
  0001a	33 c0		 xor	 eax, eax
  0001c	eb 02		 jmp	 SHORT $LN5@Grow_to
$LN4@Grow_to:
  0001e	03 c1		 add	 eax, ecx
$LN5@Grow_to:

; 1279 : 		if (_Capacity < _Count)

  00020	3b 45 08	 cmp	 eax, DWORD PTR __Count$[ebp]

; 1280 : 			_Capacity = _Count;

  00023	0f 42 45 08	 cmovb	 eax, DWORD PTR __Count$[ebp]

; 1281 : 		return (_Capacity);
; 1282 : 		}

  00027	5d		 pop	 ebp
  00028	c2 04 00	 ret	 4
?_Grow_to@?$vector@VioHashString@@V?$allocator@VioHashString@@@std@@@std@@IBEII@Z ENDP ; std::vector<ioHashString,std::allocator<ioHashString> >::_Grow_to
_TEXT	ENDS
PUBLIC	??$_Cons_val@V?$allocator@VioHashString@@@std@@VioHashString@@AAV3@@std@@YAXAAV?$allocator@VioHashString@@@0@PAVioHashString@@AAV2@@Z ; std::_Cons_val<std::allocator<ioHashString>,ioHashString,ioHashString &>
; Function compile flags: /Ogsp
; File c:\program files (x86)\microsoft visual studio 10.0\vc\include\xmemory
;	COMDAT ??$_Cons_val@V?$allocator@VioHashString@@@std@@VioHashString@@AAV3@@std@@YAXAAV?$allocator@VioHashString@@@0@PAVioHashString@@AAV2@@Z
_TEXT	SEGMENT
__Alval$ = 8						; size = 4
__Pdest$ = 12						; size = 4
__Src$ = 16						; size = 4
??$_Cons_val@V?$allocator@VioHashString@@@std@@VioHashString@@AAV3@@std@@YAXAAV?$allocator@VioHashString@@@0@PAVioHashString@@AAV2@@Z PROC ; std::_Cons_val<std::allocator<ioHashString>,ioHashString,ioHashString &>, COMDAT

; 279  : 	{	// construct using allocator

  00000	55		 push	 ebp
  00001	8b ec		 mov	 ebp, esp

; 280  : 	_Alval.construct(_Pdest, _STD forward<_Ty2>(_Src));

  00003	ff 75 10	 push	 DWORD PTR __Src$[ebp]
  00006	8b 4d 08	 mov	 ecx, DWORD PTR __Alval$[ebp]
  00009	ff 75 0c	 push	 DWORD PTR __Pdest$[ebp]
  0000c	e8 00 00 00 00	 call	 ??$construct@AAVioHashString@@@?$allocator@VioHashString@@@std@@QAEXPAVioHashString@@AAV2@@Z ; std::allocator<ioHashString>::construct<ioHashString &>

; 281  : 	}

  00011	5d		 pop	 ebp
  00012	c3		 ret	 0
??$_Cons_val@V?$allocator@VioHashString@@@std@@VioHashString@@AAV3@@std@@YAXAAV?$allocator@VioHashString@@@0@PAVioHashString@@AAV2@@Z ENDP ; std::_Cons_val<std::allocator<ioHashString>,ioHashString,ioHashString &>
_TEXT	ENDS
PUBLIC	??$_Cons_val@V?$allocator@VioHashString@@@std@@VioHashString@@V3@@std@@YAXAAV?$allocator@VioHashString@@@0@PAVioHashString@@$$QAV2@@Z ; std::_Cons_val<std::allocator<ioHashString>,ioHashString,ioHashString>
; Function compile flags: /Ogsp
;	COMDAT ??$_Cons_val@V?$allocator@VioHashString@@@std@@VioHashString@@V3@@std@@YAXAAV?$allocator@VioHashString@@@0@PAVioHashString@@$$QAV2@@Z
_TEXT	SEGMENT
__Alval$ = 8						; size = 4
__Pdest$ = 12						; size = 4
__Src$ = 16						; size = 4
??$_Cons_val@V?$allocator@VioHashString@@@std@@VioHashString@@V3@@std@@YAXAAV?$allocator@VioHashString@@@0@PAVioHashString@@$$QAV2@@Z PROC ; std::_Cons_val<std::allocator<ioHashString>,ioHashString,ioHashString>, COMDAT

; 279  : 	{	// construct using allocator

  00000	55		 push	 ebp
  00001	8b ec		 mov	 ebp, esp

; 280  : 	_Alval.construct(_Pdest, _STD forward<_Ty2>(_Src));

  00003	ff 75 10	 push	 DWORD PTR __Src$[ebp]
  00006	8b 4d 08	 mov	 ecx, DWORD PTR __Alval$[ebp]
  00009	ff 75 0c	 push	 DWORD PTR __Pdest$[ebp]
  0000c	e8 00 00 00 00	 call	 ?construct@?$allocator@VioHashString@@@std@@QAEXPAVioHashString@@$$QAV3@@Z ; std::allocator<ioHashString>::construct

; 281  : 	}

  00011	5d		 pop	 ebp
  00012	c3		 ret	 0
??$_Cons_val@V?$allocator@VioHashString@@@std@@VioHashString@@V3@@std@@YAXAAV?$allocator@VioHashString@@@0@PAVioHashString@@$$QAV2@@Z ENDP ; std::_Cons_val<std::allocator<ioHashString>,ioHashString,ioHashString>
_TEXT	ENDS
PUBLIC	?destroy@?$allocator@VioHashString@@@std@@QAEXPAVioHashString@@@Z ; std::allocator<ioHashString>::destroy
; Function compile flags: /Ogsp
;	COMDAT ?destroy@?$allocator@VioHashString@@@std@@QAEXPAVioHashString@@@Z
_TEXT	SEGMENT
__Ptr$ = 8						; size = 4
?destroy@?$allocator@VioHashString@@@std@@QAEXPAVioHashString@@@Z PROC ; std::allocator<ioHashString>::destroy, COMDAT
; _this$ = ecx

; 212  : 		{	// destroy object at _Ptr

  00000	55		 push	 ebp
  00001	8b ec		 mov	 ebp, esp

; 213  : 		_Destroy(_Ptr);

  00003	8b 4d 08	 mov	 ecx, DWORD PTR __Ptr$[ebp]
  00006	ff 15 00 00 00
	00		 call	 DWORD PTR __imp_??1ioHashString@@QAE@XZ

; 214  : 		}

  0000c	5d		 pop	 ebp
  0000d	c2 04 00	 ret	 4
?destroy@?$allocator@VioHashString@@@std@@QAEXPAVioHashString@@@Z ENDP ; std::allocator<ioHashString>::destroy
_TEXT	ENDS
PUBLIC	??$_Cons_val@V?$allocator@VioHashString@@@std@@VioHashString@@ABV3@@std@@YAXAAV?$allocator@VioHashString@@@0@PAVioHashString@@ABV2@@Z ; std::_Cons_val<std::allocator<ioHashString>,ioHashString,ioHashString const &>
; Function compile flags: /Ogsp
;	COMDAT ??$_Cons_val@V?$allocator@VioHashString@@@std@@VioHashString@@ABV3@@std@@YAXAAV?$allocator@VioHashString@@@0@PAVioHashString@@ABV2@@Z
_TEXT	SEGMENT
__Alval$ = 8						; size = 4
__Pdest$ = 12						; size = 4
__Src$ = 16						; size = 4
??$_Cons_val@V?$allocator@VioHashString@@@std@@VioHashString@@ABV3@@std@@YAXAAV?$allocator@VioHashString@@@0@PAVioHashString@@ABV2@@Z PROC ; std::_Cons_val<std::allocator<ioHashString>,ioHashString,ioHashString const &>, COMDAT

; 279  : 	{	// construct using allocator

  00000	55		 push	 ebp
  00001	8b ec		 mov	 ebp, esp

; 280  : 	_Alval.construct(_Pdest, _STD forward<_Ty2>(_Src));

  00003	ff 75 10	 push	 DWORD PTR __Src$[ebp]
  00006	ff 75 0c	 push	 DWORD PTR __Pdest$[ebp]
  00009	e8 00 00 00 00	 call	 ??$_Construct@VioHashString@@ABV1@@std@@YAXPAVioHashString@@ABV1@@Z ; std::_Construct<ioHashString,ioHashString const &>
  0000e	59		 pop	 ecx
  0000f	59		 pop	 ecx

; 281  : 	}

  00010	5d		 pop	 ebp
  00011	c3		 ret	 0
??$_Cons_val@V?$allocator@VioHashString@@@std@@VioHashString@@ABV3@@std@@YAXAAV?$allocator@VioHashString@@@0@PAVioHashString@@ABV2@@Z ENDP ; std::_Cons_val<std::allocator<ioHashString>,ioHashString,ioHashString const &>
_TEXT	ENDS
PUBLIC	?UpdateSlotItem@TowerDefWnd@@QAEXH@Z		; TowerDefWnd::UpdateSlotItem
EXTRN	?GetSlot@ioSlotMgr@@QAEPAVioSlotItem@@H@Z:PROC	; ioSlotMgr::GetSlot
EXTRN	?GetSingleton@ioSlotMgr@@SAAAV1@XZ:PROC		; ioSlotMgr::GetSingleton
; Function compile flags: /Ogsp
; File d:\lost saga for developer\youtube\tutorial\source\src\lsclient\gui\towerdefwnd.cpp
;	COMDAT ?UpdateSlotItem@TowerDefWnd@@QAEXH@Z
_TEXT	SEGMENT
_nSlot$ = 8						; size = 4
?UpdateSlotItem@TowerDefWnd@@QAEXH@Z PROC		; TowerDefWnd::UpdateSlotItem, COMDAT
; _this$ = ecx

; 200  : {

  00000	55		 push	 ebp
  00001	8b ec		 mov	 ebp, esp
  00003	56		 push	 esi

; 201  : 	ConsumptionWnd* pWnd = dynamic_cast<ConsumptionWnd*>( FindChildWnd(SLOT_WND) );

  00004	8b 35 00 00 00
	00		 mov	 esi, DWORD PTR __imp_?FindChildWnd@ioWnd@@QAEPAV1@K@Z
  0000a	57		 push	 edi
  0000b	6a 00		 push	 0
  0000d	68 00 00 00 00	 push	 OFFSET ??_R0?AVConsumptionWnd@@@8
  00012	bf 00 00 00 00	 mov	 edi, OFFSET ??_R0?AVioWnd@@@8
  00017	57		 push	 edi
  00018	6a 00		 push	 0
  0001a	6a 6a		 push	 106			; 0000006aH
  0001c	ff d6		 call	 esi
  0001e	50		 push	 eax
  0001f	e8 00 00 00 00	 call	 ___RTDynamicCast
  00024	83 c4 14	 add	 esp, 20			; 00000014H

; 202  : 	if(pWnd)

  00027	85 c0		 test	 eax, eax
  00029	74 37		 je	 SHORT $LN1@UpdateSlot

; 203  : 	{
; 204  : 		ConsumptionSlotBtn* pBtn = dynamic_cast<ConsumptionSlotBtn*>( pWnd->FindChildWnd(nSlot) );

  0002b	6a 00		 push	 0
  0002d	68 00 00 00 00	 push	 OFFSET ??_R0?AVConsumptionSlotBtn@@@8
  00032	57		 push	 edi
  00033	6a 00		 push	 0
  00035	ff 75 08	 push	 DWORD PTR _nSlot$[ebp]
  00038	8b c8		 mov	 ecx, eax
  0003a	ff d6		 call	 esi
  0003c	50		 push	 eax
  0003d	e8 00 00 00 00	 call	 ___RTDynamicCast
  00042	8b f0		 mov	 esi, eax
  00044	83 c4 14	 add	 esp, 20			; 00000014H

; 205  : 		if(pBtn)

  00047	85 f6		 test	 esi, esi
  00049	74 17		 je	 SHORT $LN1@UpdateSlot

; 206  : 			pBtn->UpdateItem(g_SlotMgr.GetSlot(nSlot));

  0004b	ff 75 08	 push	 DWORD PTR _nSlot$[ebp]
  0004e	e8 00 00 00 00	 call	 ?GetSingleton@ioSlotMgr@@SAAAV1@XZ ; ioSlotMgr::GetSingleton
  00053	8b c8		 mov	 ecx, eax
  00055	e8 00 00 00 00	 call	 ?GetSlot@ioSlotMgr@@QAEPAVioSlotItem@@H@Z ; ioSlotMgr::GetSlot
  0005a	50		 push	 eax
  0005b	8b ce		 mov	 ecx, esi
  0005d	e8 00 00 00 00	 call	 ?UpdateItem@ConsumptionSlotBtn@@QAEXPAVioSlotItem@@@Z ; ConsumptionSlotBtn::UpdateItem
$LN1@UpdateSlot:
  00062	5f		 pop	 edi
  00063	5e		 pop	 esi

; 207  : 	}
; 208  : }

  00064	5d		 pop	 ebp
  00065	c2 04 00	 ret	 4
?UpdateSlotItem@TowerDefWnd@@QAEXH@Z ENDP		; TowerDefWnd::UpdateSlotItem
_TEXT	ENDS
PUBLIC	?SetNPC@TowerDefWnd@@QAEXPAVioNpcChar@@H_N@Z	; TowerDefWnd::SetNPC
EXTRN	__imp_?ShowWnd@ioWnd@@QAEXXZ:PROC
; Function compile flags: /Ogsp
;	COMDAT ?SetNPC@TowerDefWnd@@QAEXPAVioNpcChar@@H_N@Z
_TEXT	SEGMENT
_this$ = -4						; size = 4
_value$530921 = 8					; size = 4
_pNpc$ = 8						; size = 4
_nGradeLv$ = 12						; size = 4
_value$530916 = 16					; size = 4
_bBoss$ = 16						; size = 1
?SetNPC@TowerDefWnd@@QAEXPAVioNpcChar@@H_N@Z PROC	; TowerDefWnd::SetNPC, COMDAT
; _this$ = ecx

; 232  : {

  00000	55		 push	 ebp
  00001	8b ec		 mov	 ebp, esp
  00003	51		 push	 ecx
  00004	53		 push	 ebx
  00005	56		 push	 esi
  00006	57		 push	 edi

; 233  : 	if( bBoss)

  00007	33 db		 xor	 ebx, ebx

; 234  : 	{
; 235  : 		TowerDefUserGaugeWnd* pWnd = dynamic_cast<TowerDefUserGaugeWnd*>( FindChildWnd(NPC_GAUGE_WND) );

  00009	53		 push	 ebx
  0000a	bf 00 00 00 00	 mov	 edi, OFFSET ??_R0?AVTowerDefUserGaugeWnd@@@8
  0000f	57		 push	 edi
  00010	be 00 00 00 00	 mov	 esi, OFFSET ??_R0?AVioWnd@@@8
  00015	56		 push	 esi
  00016	89 4d fc	 mov	 DWORD PTR _this$[ebp], ecx
  00019	53		 push	 ebx
  0001a	38 5d 10	 cmp	 BYTE PTR _bBoss$[ebp], bl
  0001d	74 4b		 je	 SHORT $LN6@SetNPC
  0001f	6a 68		 push	 104			; 00000068H
  00021	ff 15 00 00 00
	00		 call	 DWORD PTR __imp_?FindChildWnd@ioWnd@@QAEPAV1@K@Z
  00027	50		 push	 eax
  00028	e8 00 00 00 00	 call	 ___RTDynamicCast
  0002d	83 c4 14	 add	 esp, 20			; 00000014H

; 236  : 		if(pWnd)

  00030	3b c3		 cmp	 eax, ebx
  00032	74 08		 je	 SHORT $LN5@SetNPC

; 237  : 			pWnd->HideWnd();

  00034	8b c8		 mov	 ecx, eax
  00036	ff 15 00 00 00
	00		 call	 DWORD PTR __imp_?HideWnd@ioWnd@@QAEXXZ
$LN5@SetNPC:

; 238  : 
; 239  : 		pWnd = dynamic_cast<TowerDefUserGaugeWnd*>( FindChildWnd(NPC_BOSS_WND) );

  0003c	8b 4d fc	 mov	 ecx, DWORD PTR _this$[ebp]
  0003f	53		 push	 ebx
  00040	57		 push	 edi
  00041	56		 push	 esi
  00042	53		 push	 ebx
  00043	6a 69		 push	 105			; 00000069H
  00045	ff 15 00 00 00
	00		 call	 DWORD PTR __imp_?FindChildWnd@ioWnd@@QAEPAV1@K@Z
  0004b	50		 push	 eax
  0004c	e8 00 00 00 00	 call	 ___RTDynamicCast
  00051	8b f8		 mov	 edi, eax
  00053	83 c4 14	 add	 esp, 20			; 00000014H

; 240  : 		if(pWnd)

  00056	3b fb		 cmp	 edi, ebx
  00058	0f 84 9e 00 00
	00		 je	 $LN1@SetNPC

; 241  : 		{
; 242  : 			pWnd->ShowWnd();

  0005e	8b cf		 mov	 ecx, edi
  00060	ff 15 00 00 00
	00		 call	 DWORD PTR __imp_?ShowWnd@ioWnd@@QAEXXZ

; 243  : 			pWnd->SetUser((ioBaseChar*)pNpc, nGradeLv, GAUGE_NPC_BOSS);

  00066	6a 02		 push	 2

; 244  : 
; 245  : 			StatusValue &stHp = ((ioBaseChar*)pNpc)->GetHP();
; 246  : 			pWnd->UpdateGauge(stHp.m_fCurValue, stHp.m_fMaxValue, nGradeLv);
; 247  : 		}
; 248  : 	}
; 249  : 	else

  00068	eb 45		 jmp	 SHORT $LN21@SetNPC
$LN6@SetNPC:

; 250  : 	{
; 251  : 		TowerDefUserGaugeWnd* pWnd =  dynamic_cast<TowerDefUserGaugeWnd*>( FindChildWnd(NPC_BOSS_WND) );

  0006a	6a 69		 push	 105			; 00000069H
  0006c	ff 15 00 00 00
	00		 call	 DWORD PTR __imp_?FindChildWnd@ioWnd@@QAEPAV1@K@Z
  00072	50		 push	 eax
  00073	e8 00 00 00 00	 call	 ___RTDynamicCast
  00078	83 c4 14	 add	 esp, 20			; 00000014H

; 252  : 		if(pWnd)

  0007b	3b c3		 cmp	 eax, ebx
  0007d	74 08		 je	 SHORT $LN2@SetNPC

; 253  : 			pWnd->HideWnd();

  0007f	8b c8		 mov	 ecx, eax
  00081	ff 15 00 00 00
	00		 call	 DWORD PTR __imp_?HideWnd@ioWnd@@QAEXXZ
$LN2@SetNPC:

; 254  : 
; 255  : 		pWnd = dynamic_cast<TowerDefUserGaugeWnd*>( FindChildWnd(NPC_GAUGE_WND) );

  00087	8b 4d fc	 mov	 ecx, DWORD PTR _this$[ebp]
  0008a	53		 push	 ebx
  0008b	57		 push	 edi
  0008c	56		 push	 esi
  0008d	53		 push	 ebx
  0008e	6a 68		 push	 104			; 00000068H
  00090	ff 15 00 00 00
	00		 call	 DWORD PTR __imp_?FindChildWnd@ioWnd@@QAEPAV1@K@Z
  00096	50		 push	 eax
  00097	e8 00 00 00 00	 call	 ___RTDynamicCast
  0009c	8b f8		 mov	 edi, eax
  0009e	83 c4 14	 add	 esp, 20			; 00000014H

; 256  : 		if(pWnd)

  000a1	3b fb		 cmp	 edi, ebx
  000a3	74 57		 je	 SHORT $LN1@SetNPC

; 257  : 		{
; 258  : 			pWnd->ShowWnd();

  000a5	8b cf		 mov	 ecx, edi
  000a7	ff 15 00 00 00
	00		 call	 DWORD PTR __imp_?ShowWnd@ioWnd@@QAEXXZ

; 259  : 			pWnd->SetUser((ioBaseChar*)pNpc, nGradeLv, GAUGE_NPC);

  000ad	6a 01		 push	 1
$LN21@SetNPC:
  000af	ff 75 0c	 push	 DWORD PTR _nGradeLv$[ebp]
  000b2	8b 75 08	 mov	 esi, DWORD PTR _pNpc$[ebp]
  000b5	56		 push	 esi
  000b6	8b cf		 mov	 ecx, edi
  000b8	e8 00 00 00 00	 call	 ?SetUser@TowerDefUserGaugeWnd@@QAEXPAVioBaseChar@@HW4GaugeType@TowerDefWnd@@@Z ; TowerDefUserGaugeWnd::SetUser

; 260  : 
; 261  : 			StatusValue &stHp = ((ioBaseChar*)pNpc)->GetHP();
; 262  : 			pWnd->UpdateGauge(stHp.m_fCurValue, stHp.m_fMaxValue, nGradeLv);

  000bd	8d 45 10	 lea	 eax, DWORD PTR _value$530916[ebp]
  000c0	50		 push	 eax
  000c1	8d 8e f0 00 00
	00		 lea	 ecx, DWORD PTR [esi+240]
  000c7	e8 00 00 00 00	 call	 ?DecryptValueToPool@?$CEncrypt@M@@QAEXPAM@Z ; CEncrypt<float>::DecryptValueToPool
  000cc	8d 45 08	 lea	 eax, DWORD PTR _value$530921[ebp]
  000cf	50		 push	 eax
  000d0	8d 8e c0 00 00
	00		 lea	 ecx, DWORD PTR [esi+192]
  000d6	e8 00 00 00 00	 call	 ?DecryptValueToPool@?$CEncrypt@M@@QAEXPAM@Z ; CEncrypt<float>::DecryptValueToPool
  000db	ff 75 0c	 push	 DWORD PTR _nGradeLv$[ebp]
  000de	f3 0f 10 45 10	 movss	 xmm0, DWORD PTR _value$530916[ebp]
  000e3	51		 push	 ecx
  000e4	51		 push	 ecx
  000e5	f3 0f 11 44 24
	04		 movss	 DWORD PTR [esp+4], xmm0
  000eb	f3 0f 10 45 08	 movss	 xmm0, DWORD PTR _value$530921[ebp]
  000f0	8b cf		 mov	 ecx, edi
  000f2	f3 0f 11 04 24	 movss	 DWORD PTR [esp], xmm0
  000f7	e8 00 00 00 00	 call	 ?UpdateGauge@TowerDefUserGaugeWnd@@QAEXMMH@Z ; TowerDefUserGaugeWnd::UpdateGauge
$LN1@SetNPC:
  000fc	5f		 pop	 edi
  000fd	5e		 pop	 esi
  000fe	5b		 pop	 ebx

; 263  : 		}
; 264  : 	}
; 265  : }

  000ff	c9		 leave
  00100	c2 0c 00	 ret	 12			; 0000000cH
?SetNPC@TowerDefWnd@@QAEXPAVioNpcChar@@H_N@Z ENDP	; TowerDefWnd::SetNPC
_TEXT	ENDS
EXTRN	__imp_?OnProcess@ioWnd@@MAEXM@Z:PROC
; Function compile flags: /Ogsp
;	COMDAT ?OnProcess@TowerDefUserGaugeWnd@@MAEXM@Z
_TEXT	SEGMENT
_fTimePerSec$ = 8					; size = 4
?OnProcess@TowerDefUserGaugeWnd@@MAEXM@Z PROC		; TowerDefUserGaugeWnd::OnProcess, COMDAT
; _this$ = ecx

; 823  : {

  00000	55		 push	 ebp
  00001	8b ec		 mov	 ebp, esp
  00003	56		 push	 esi
  00004	8b f1		 mov	 esi, ecx

; 824  : 	if( !IsShow() ) return;

  00006	ff 15 00 00 00
	00		 call	 DWORD PTR __imp_?IsShow@ioWnd@@QBE_NXZ
  0000c	84 c0		 test	 al, al
  0000e	74 3b		 je	 SHORT $LN1@OnProcess

; 825  : 
; 826  : 	UpdateAniState();

  00010	8b ce		 mov	 ecx, esi
  00012	e8 00 00 00 00	 call	 ?UpdateAniState@TowerDefUserGaugeWnd@@IAEXXZ ; TowerDefUserGaugeWnd::UpdateAniState

; 827  : 	UpdateGaugeAni();

  00017	8b ce		 mov	 ecx, esi
  00019	e8 00 00 00 00	 call	 ?UpdateGaugeAni@TowerDefUserGaugeWnd@@IAEXXZ ; TowerDefUserGaugeWnd::UpdateGaugeAni

; 828  : 	ioMovingWnd::OnProcess( fTimePerSec );

  0001e	f3 0f 10 45 08	 movss	 xmm0, DWORD PTR _fTimePerSec$[ebp]
  00023	51		 push	 ecx
  00024	8b ce		 mov	 ecx, esi
  00026	f3 0f 11 04 24	 movss	 DWORD PTR [esp], xmm0
  0002b	ff 15 00 00 00
	00		 call	 DWORD PTR __imp_?OnProcess@ioWnd@@MAEXM@Z

; 829  : 
; 830  : 	if( m_pCharPotrait )

  00031	8b 8e a4 01 00
	00		 mov	 ecx, DWORD PTR [esi+420]
  00037	85 c9		 test	 ecx, ecx
  00039	74 10		 je	 SHORT $LN1@OnProcess

; 831  : 		m_pCharPotrait->Update( fTimePerSec );

  0003b	f3 0f 10 45 08	 movss	 xmm0, DWORD PTR _fTimePerSec$[ebp]
  00040	51		 push	 ecx
  00041	f3 0f 11 04 24	 movss	 DWORD PTR [esp], xmm0
  00046	e8 00 00 00 00	 call	 ?Update@TowerDef3DChar@@QAEXM@Z ; TowerDef3DChar::Update
$LN1@OnProcess:
  0004b	5e		 pop	 esi

; 832  : }

  0004c	5d		 pop	 ebp
  0004d	c2 04 00	 ret	 4
?OnProcess@TowerDefUserGaugeWnd@@MAEXM@Z ENDP		; TowerDefUserGaugeWnd::OnProcess
; Function compile flags: /Ogsp
_TEXT	ENDS
;	COMDAT ?OnProcess@ConsumptionWnd@@MAEXM@Z
_TEXT	SEGMENT
_fTimePerSec$ = 8					; size = 4
?OnProcess@ConsumptionWnd@@MAEXM@Z PROC			; ConsumptionWnd::OnProcess, COMDAT
; _this$ = ecx

; 1095 : {

  00000	55		 push	 ebp
  00001	8b ec		 mov	 ebp, esp
  00003	56		 push	 esi
  00004	8b f1		 mov	 esi, ecx

; 1096 : 	if( !IsShow() ) return;

  00006	ff 15 00 00 00
	00		 call	 DWORD PTR __imp_?IsShow@ioWnd@@QBE_NXZ
  0000c	84 c0		 test	 al, al
  0000e	74 1a		 je	 SHORT $LN2@OnProcess@2

; 1097 : 
; 1098 : 	UpdateAniState();

  00010	8b ce		 mov	 ecx, esi
  00012	e8 00 00 00 00	 call	 ?UpdateAniState@ConsumptionWnd@@IAEXXZ ; ConsumptionWnd::UpdateAniState

; 1099 : 	ioMovingWnd::OnProcess( fTimePerSec );

  00017	f3 0f 10 45 08	 movss	 xmm0, DWORD PTR _fTimePerSec$[ebp]
  0001c	51		 push	 ecx
  0001d	8b ce		 mov	 ecx, esi
  0001f	f3 0f 11 04 24	 movss	 DWORD PTR [esp], xmm0
  00024	ff 15 00 00 00
	00		 call	 DWORD PTR __imp_?OnProcess@ioWnd@@MAEXM@Z
$LN2@OnProcess@2:
  0002a	5e		 pop	 esi

; 1100 : }

  0002b	5d		 pop	 ebp
  0002c	c2 04 00	 ret	 4
?OnProcess@ConsumptionWnd@@MAEXM@Z ENDP			; ConsumptionWnd::OnProcess
_TEXT	ENDS
PUBLIC	?SetSlotWnd@ConsumptionWnd@@QAEXXZ		; ConsumptionWnd::SetSlotWnd
; Function compile flags: /Ogsp
;	COMDAT ?SetSlotWnd@ConsumptionWnd@@QAEXXZ
_TEXT	SEGMENT
?SetSlotWnd@ConsumptionWnd@@QAEXXZ PROC			; ConsumptionWnd::SetSlotWnd, COMDAT
; _this$ = ecx

; 1317 : {

  00000	53		 push	 ebx
  00001	56		 push	 esi
  00002	57		 push	 edi
  00003	8b d9		 mov	 ebx, ecx

; 1318 : 	for(int i = 0; i < MAX_SLOT; i++)

  00005	33 ff		 xor	 edi, edi
$LL4@SetSlotWnd:

; 1319 : 	{
; 1320 : 		ConsumptionSlotBtn* pBtn = (ConsumptionSlotBtn*)FindChildWnd(i);

  00007	57		 push	 edi
  00008	8b cb		 mov	 ecx, ebx
  0000a	ff 15 00 00 00
	00		 call	 DWORD PTR __imp_?FindChildWnd@ioWnd@@QAEPAV1@K@Z
  00010	8b f0		 mov	 esi, eax

; 1321 : 		if(pBtn)

  00012	85 f6		 test	 esi, esi
  00014	74 15		 je	 SHORT $LN3@SetSlotWnd

; 1322 : 			pBtn->InitItem(g_SlotMgr.GetSlot(i));

  00016	57		 push	 edi
  00017	e8 00 00 00 00	 call	 ?GetSingleton@ioSlotMgr@@SAAAV1@XZ ; ioSlotMgr::GetSingleton
  0001c	8b c8		 mov	 ecx, eax
  0001e	e8 00 00 00 00	 call	 ?GetSlot@ioSlotMgr@@QAEPAVioSlotItem@@H@Z ; ioSlotMgr::GetSlot
  00023	50		 push	 eax
  00024	8b ce		 mov	 ecx, esi
  00026	e8 00 00 00 00	 call	 ?InitItem@ConsumptionSlotBtn@@QAEXPAVioSlotItem@@@Z ; ConsumptionSlotBtn::InitItem
$LN3@SetSlotWnd:

; 1318 : 	for(int i = 0; i < MAX_SLOT; i++)

  0002b	47		 inc	 edi
  0002c	83 ff 04	 cmp	 edi, 4
  0002f	7c d6		 jl	 SHORT $LL4@SetSlotWnd

; 1323 : 	}
; 1324 : }

  00031	5f		 pop	 edi
  00032	5e		 pop	 esi
  00033	5b		 pop	 ebx
  00034	c3		 ret	 0
?SetSlotWnd@ConsumptionWnd@@QAEXXZ ENDP			; ConsumptionWnd::SetSlotWnd
_TEXT	ENDS
PUBLIC	??$_Dest_val@V?$allocator@VioHashString@@@std@@VioHashString@@@std@@YAXAAV?$allocator@VioHashString@@@0@PAVioHashString@@@Z ; std::_Dest_val<std::allocator<ioHashString>,ioHashString>
; Function compile flags: /Ogsp
; File c:\program files (x86)\microsoft visual studio 10.0\vc\include\xmemory
;	COMDAT ??$_Dest_val@V?$allocator@VioHashString@@@std@@VioHashString@@@std@@YAXAAV?$allocator@VioHashString@@@0@PAVioHashString@@@Z
_TEXT	SEGMENT
__Alval$ = 8						; size = 4
__Pdest$ = 12						; size = 4
??$_Dest_val@V?$allocator@VioHashString@@@std@@VioHashString@@@std@@YAXAAV?$allocator@VioHashString@@@0@PAVioHashString@@@Z PROC ; std::_Dest_val<std::allocator<ioHashString>,ioHashString>, COMDAT

; 286  : 	{	// destroy using allocator

  00000	55		 push	 ebp
  00001	8b ec		 mov	 ebp, esp

; 287  : 	_Alval.destroy(_Pdest);

  00003	8b 4d 0c	 mov	 ecx, DWORD PTR __Pdest$[ebp]

; 288  : 	}

  00006	5d		 pop	 ebp

; 287  : 	_Alval.destroy(_Pdest);

  00007	ff 25 00 00 00
	00		 jmp	 DWORD PTR __imp_??1ioHashString@@QAE@XZ
??$_Dest_val@V?$allocator@VioHashString@@@std@@VioHashString@@@std@@YAXAAV?$allocator@VioHashString@@@0@PAVioHashString@@@Z ENDP ; std::_Dest_val<std::allocator<ioHashString>,ioHashString>
_TEXT	ENDS
PUBLIC	?SetUser@TowerDefWnd@@QAEXPAVioBaseChar@@H@Z	; TowerDefWnd::SetUser
; Function compile flags: /Ogsp
; File d:\lost saga for developer\youtube\tutorial\source\src\lsclient\gui\towerdefwnd.cpp
;	COMDAT ?SetUser@TowerDefWnd@@QAEXPAVioBaseChar@@H@Z
_TEXT	SEGMENT
_this$ = -8						; size = 4
_value$530969 = -4					; size = 4
_value$530964 = 8					; size = 4
_pChar$ = 8						; size = 4
_nInstantLv$ = 12					; size = 4
?SetUser@TowerDefWnd@@QAEXPAVioBaseChar@@H@Z PROC	; TowerDefWnd::SetUser, COMDAT
; _this$ = ecx

; 164  : {

  00000	55		 push	 ebp
  00001	8b ec		 mov	 ebp, esp
  00003	51		 push	 ecx
  00004	51		 push	 ecx
  00005	53		 push	 ebx
  00006	57		 push	 edi

; 165  : 	if(!pChar)

  00007	8b 7d 08	 mov	 edi, DWORD PTR _pChar$[ebp]
  0000a	8b d9		 mov	 ebx, ecx
  0000c	89 5d f8	 mov	 DWORD PTR _this$[ebp], ebx
  0000f	85 ff		 test	 edi, edi
  00011	0f 84 09 01 00
	00		 je	 $LN1@SetUser@2

; 166  : 		return;
; 167  : 
; 168  : 	for(int i = 0; i < MAX_USER; i++)

  00017	33 c0		 xor	 eax, eax
  00019	8d 8b c0 01 00
	00		 lea	 ecx, DWORD PTR [ebx+448]
$LL7@SetUser@2:

; 169  : 	{
; 170  : 		if(m_stUserGauge[i].eID == GAUGE_NONE)

  0001f	83 39 00	 cmp	 DWORD PTR [ecx], 0
  00022	74 0e		 je	 SHORT $LN22@SetUser@2

; 166  : 		return;
; 167  : 
; 168  : 	for(int i = 0; i < MAX_USER; i++)

  00024	40		 inc	 eax
  00025	83 c1 18	 add	 ecx, 24			; 00000018H
  00028	83 f8 04	 cmp	 eax, 4
  0002b	7c f2		 jl	 SHORT $LL7@SetUser@2

; 169  : 	{
; 170  : 		if(m_stUserGauge[i].eID == GAUGE_NONE)

  0002d	e9 ee 00 00 00	 jmp	 $LN1@SetUser@2
$LN22@SetUser@2:
  00032	56		 push	 esi

; 171  : 		{
; 172  : 			m_stUserGauge[i].eID = (eGaugeWndID)(GAUGE_WND1+i);

  00033	8b f0		 mov	 esi, eax
  00035	6b f6 18	 imul	 esi, 24			; 00000018H
  00038	83 c0 64	 add	 eax, 100		; 00000064H
  0003b	03 f3		 add	 esi, ebx
  0003d	89 86 c0 01 00
	00		 mov	 DWORD PTR [esi+448], eax

; 173  : 			m_stUserGauge[i].szUserName = pChar->GetCharName();

  00043	8d 87 d4 02 00
	00		 lea	 eax, DWORD PTR [edi+724]
  00049	50		 push	 eax
  0004a	8d 8e c4 01 00
	00		 lea	 ecx, DWORD PTR [esi+452]
  00050	ff 15 00 00 00
	00		 call	 DWORD PTR __imp_??4ioHashString@@QAEAAV0@ABV0@@Z

; 174  : 
; 175  : 			TowerDefUserGaugeWnd* pWnd = dynamic_cast<TowerDefUserGaugeWnd*>( FindChildWnd(m_stUserGauge[i].eID) );

  00056	6a 00		 push	 0
  00058	68 00 00 00 00	 push	 OFFSET ??_R0?AVTowerDefUserGaugeWnd@@@8
  0005d	68 00 00 00 00	 push	 OFFSET ??_R0?AVioWnd@@@8
  00062	6a 00		 push	 0
  00064	ff b6 c0 01 00
	00		 push	 DWORD PTR [esi+448]
  0006a	8b cb		 mov	 ecx, ebx
  0006c	ff 15 00 00 00
	00		 call	 DWORD PTR __imp_?FindChildWnd@ioWnd@@QAEPAV1@K@Z
  00072	50		 push	 eax
  00073	e8 00 00 00 00	 call	 ___RTDynamicCast
  00078	8b d8		 mov	 ebx, eax
  0007a	83 c4 14	 add	 esp, 20			; 00000014H

; 176  : 			if(!pWnd)

  0007d	85 db		 test	 ebx, ebx
  0007f	0f 84 9a 00 00
	00		 je	 $LN24@SetUser@2

; 177  : 				break;
; 178  : 
; 179  : 			pWnd->SetUser(pChar, nInstantLv);

  00085	6a 00		 push	 0
  00087	ff 75 0c	 push	 DWORD PTR _nInstantLv$[ebp]
  0008a	8b cb		 mov	 ecx, ebx
  0008c	57		 push	 edi
  0008d	e8 00 00 00 00	 call	 ?SetUser@TowerDefUserGaugeWnd@@QAEXPAVioBaseChar@@HW4GaugeType@TowerDefWnd@@@Z ; TowerDefUserGaugeWnd::SetUser

; 180  : 			StatusValue &stHp = pChar->GetHP();
; 181  : 			pWnd->UpdateGauge(stHp.m_fCurValue, stHp.m_fMaxValue, nInstantLv);

  00092	8d 45 08	 lea	 eax, DWORD PTR _value$530964[ebp]
  00095	50		 push	 eax
  00096	8d 8f f0 00 00
	00		 lea	 ecx, DWORD PTR [edi+240]
  0009c	e8 00 00 00 00	 call	 ?DecryptValueToPool@?$CEncrypt@M@@QAEXPAM@Z ; CEncrypt<float>::DecryptValueToPool
  000a1	8d 45 fc	 lea	 eax, DWORD PTR _value$530969[ebp]
  000a4	50		 push	 eax
  000a5	8d 8f c0 00 00
	00		 lea	 ecx, DWORD PTR [edi+192]
  000ab	e8 00 00 00 00	 call	 ?DecryptValueToPool@?$CEncrypt@M@@QAEXPAM@Z ; CEncrypt<float>::DecryptValueToPool
  000b0	ff 75 0c	 push	 DWORD PTR _nInstantLv$[ebp]
  000b3	f3 0f 10 45 08	 movss	 xmm0, DWORD PTR _value$530964[ebp]
  000b8	51		 push	 ecx
  000b9	51		 push	 ecx
  000ba	f3 0f 11 44 24
	04		 movss	 DWORD PTR [esp+4], xmm0
  000c0	f3 0f 10 45 fc	 movss	 xmm0, DWORD PTR _value$530969[ebp]
  000c5	8b cb		 mov	 ecx, ebx
  000c7	f3 0f 11 04 24	 movss	 DWORD PTR [esp], xmm0
  000cc	e8 00 00 00 00	 call	 ?UpdateGauge@TowerDefUserGaugeWnd@@QAEXMMH@Z ; TowerDefUserGaugeWnd::UpdateGauge

; 182  : 			pWnd->ShowWnd();

  000d1	8b cb		 mov	 ecx, ebx
  000d3	ff 15 00 00 00
	00		 call	 DWORD PTR __imp_?ShowWnd@ioWnd@@QAEXXZ

; 183  : 			m_stUserGauge[i].pGaugeWnd = pWnd;

  000d9	89 9e d4 01 00
	00		 mov	 DWORD PTR [esi+468], ebx

; 184  : 
; 185  : 			if( pChar->IsOwnerChar())

  000df	80 bf 84 13 00
	00 00		 cmp	 BYTE PTR [edi+4996], 0
  000e6	74 37		 je	 SHORT $LN24@SetUser@2

; 186  : 			{
; 187  : 				ConsumptionWnd* pWnd = dynamic_cast<ConsumptionWnd*>( FindChildWnd(SLOT_WND) );

  000e8	8b 4d f8	 mov	 ecx, DWORD PTR _this$[ebp]
  000eb	6a 00		 push	 0
  000ed	68 00 00 00 00	 push	 OFFSET ??_R0?AVConsumptionWnd@@@8
  000f2	68 00 00 00 00	 push	 OFFSET ??_R0?AVioWnd@@@8
  000f7	6a 00		 push	 0
  000f9	6a 6a		 push	 106			; 0000006aH
  000fb	ff 15 00 00 00
	00		 call	 DWORD PTR __imp_?FindChildWnd@ioWnd@@QAEPAV1@K@Z
  00101	50		 push	 eax
  00102	e8 00 00 00 00	 call	 ___RTDynamicCast
  00107	8b f0		 mov	 esi, eax
  00109	83 c4 14	 add	 esp, 20			; 00000014H

; 188  : 				if(pWnd)

  0010c	85 f6		 test	 esi, esi
  0010e	74 0f		 je	 SHORT $LN24@SetUser@2

; 189  : 				{
; 190  : 					pWnd->ShowWnd();

  00110	8b ce		 mov	 ecx, esi
  00112	ff 15 00 00 00
	00		 call	 DWORD PTR __imp_?ShowWnd@ioWnd@@QAEXXZ

; 191  : 					pWnd->SetSlotWnd();

  00118	8b ce		 mov	 ecx, esi
  0011a	e8 00 00 00 00	 call	 ?SetSlotWnd@ConsumptionWnd@@QAEXXZ ; ConsumptionWnd::SetSlotWnd
$LN24@SetUser@2:
  0011f	5e		 pop	 esi
$LN1@SetUser@2:
  00120	5f		 pop	 edi
  00121	5b		 pop	 ebx

; 192  : 				}
; 193  : 			}
; 194  : 			break;
; 195  : 		}
; 196  : 	}
; 197  : }

  00122	c9		 leave
  00123	c2 08 00	 ret	 8
?SetUser@TowerDefWnd@@QAEXPAVioBaseChar@@H@Z ENDP	; TowerDefWnd::SetUser
_TEXT	ENDS
PUBLIC	?InitSlotItem@TowerDefWnd@@QAEXXZ		; TowerDefWnd::InitSlotItem
; Function compile flags: /Ogsp
;	COMDAT ?InitSlotItem@TowerDefWnd@@QAEXXZ
_TEXT	SEGMENT
?InitSlotItem@TowerDefWnd@@QAEXXZ PROC			; TowerDefWnd::InitSlotItem, COMDAT
; _this$ = ecx

; 212  : 	ConsumptionWnd* pWnd = dynamic_cast<ConsumptionWnd*>( FindChildWnd(SLOT_WND) );

  00000	6a 00		 push	 0
  00002	68 00 00 00 00	 push	 OFFSET ??_R0?AVConsumptionWnd@@@8
  00007	68 00 00 00 00	 push	 OFFSET ??_R0?AVioWnd@@@8
  0000c	6a 00		 push	 0
  0000e	6a 6a		 push	 106			; 0000006aH
  00010	ff 15 00 00 00
	00		 call	 DWORD PTR __imp_?FindChildWnd@ioWnd@@QAEPAV1@K@Z
  00016	50		 push	 eax
  00017	e8 00 00 00 00	 call	 ___RTDynamicCast
  0001c	83 c4 14	 add	 esp, 20			; 00000014H

; 213  : 	if(pWnd)

  0001f	85 c0		 test	 eax, eax
  00021	74 07		 je	 SHORT $LN1@InitSlotIt

; 214  : 		pWnd->SetSlotWnd();

  00023	8b c8		 mov	 ecx, eax
  00025	e9 00 00 00 00	 jmp	 ?SetSlotWnd@ConsumptionWnd@@QAEXXZ ; ConsumptionWnd::SetSlotWnd
$LN1@InitSlotIt:

; 215  : }

  0002a	c3		 ret	 0
?InitSlotItem@TowerDefWnd@@QAEXXZ ENDP			; TowerDefWnd::InitSlotItem
_TEXT	ENDS
PUBLIC	??$_Uninit_move@PAVioHashString@@PAV1@V?$allocator@VioHashString@@@std@@V1@@std@@YAPAVioHashString@@PAV1@00AAV?$allocator@VioHashString@@@0@0U_Nonscalar_ptr_iterator_tag@0@@Z ; std::_Uninit_move<ioHashString *,ioHashString *,std::allocator<ioHashString>,ioHashString>
EXTRN	__EH_prolog3_catch:PROC
;	COMDAT xdata$x
; File c:\program files (x86)\microsoft visual studio 10.0\vc\include\vector
xdata$x	SEGMENT
__catchsym$??$_Uninit_move@PAVioHashString@@PAV1@V?$allocator@VioHashString@@@std@@V1@@std@@YAPAVioHashString@@PAV1@00AAV?$allocator@VioHashString@@@0@0U_Nonscalar_ptr_iterator_tag@0@@Z$2 DD 040H
	DD	00H
	DD	00H
	DD	FLAT:__catch$??$_Uninit_move@PAVioHashString@@PAV1@V?$allocator@VioHashString@@@std@@V1@@std@@YAPAVioHashString@@PAV1@00AAV?$allocator@VioHashString@@@0@0U_Nonscalar_ptr_iterator_tag@0@@Z$0
__unwindtable$??$_Uninit_move@PAVioHashString@@PAV1@V?$allocator@VioHashString@@@std@@V1@@std@@YAPAVioHashString@@PAV1@00AAV?$allocator@VioHashString@@@0@0U_Nonscalar_ptr_iterator_tag@0@@Z DD 0ffffffffH
	DD	00H
	DD	0ffffffffH
	DD	00H
__tryblocktable$??$_Uninit_move@PAVioHashString@@PAV1@V?$allocator@VioHashString@@@std@@V1@@std@@YAPAVioHashString@@PAV1@00AAV?$allocator@VioHashString@@@0@0U_Nonscalar_ptr_iterator_tag@0@@Z DD 00H
	DD	00H
	DD	01H
	DD	01H
	DD	FLAT:__catchsym$??$_Uninit_move@PAVioHashString@@PAV1@V?$allocator@VioHashString@@@std@@V1@@std@@YAPAVioHashString@@PAV1@00AAV?$allocator@VioHashString@@@0@0U_Nonscalar_ptr_iterator_tag@0@@Z$2
__ehfuncinfo$??$_Uninit_move@PAVioHashString@@PAV1@V?$allocator@VioHashString@@@std@@V1@@std@@YAPAVioHashString@@PAV1@00AAV?$allocator@VioHashString@@@0@0U_Nonscalar_ptr_iterator_tag@0@@Z DD 019930522H
	DD	02H
	DD	FLAT:__unwindtable$??$_Uninit_move@PAVioHashString@@PAV1@V?$allocator@VioHashString@@@std@@V1@@std@@YAPAVioHashString@@PAV1@00AAV?$allocator@VioHashString@@@0@0U_Nonscalar_ptr_iterator_tag@0@@Z
	DD	01H
	DD	FLAT:__tryblocktable$??$_Uninit_move@PAVioHashString@@PAV1@V?$allocator@VioHashString@@@std@@V1@@std@@YAPAVioHashString@@PAV1@00AAV?$allocator@VioHashString@@@0@0U_Nonscalar_ptr_iterator_tag@0@@Z
	DD	2 DUP(00H)
	DD	00H
	DD	01H
; Function compile flags: /Ogsp
; File c:\program files (x86)\microsoft visual studio 10.0\vc\include\memory
xdata$x	ENDS
;	COMDAT ??$_Uninit_move@PAVioHashString@@PAV1@V?$allocator@VioHashString@@@std@@V1@@std@@YAPAVioHashString@@PAV1@00AAV?$allocator@VioHashString@@@0@0U_Nonscalar_ptr_iterator_tag@0@@Z
_TEXT	SEGMENT
__Next$ = -20						; size = 4
__$EHRec$ = -16						; size = 16
__First$ = 8						; size = 4
__Last$ = 12						; size = 4
__Dest$ = 16						; size = 4
__Al$ = 20						; size = 4
___formal$ = 24						; size = 4
___formal$ = 28						; size = 1
??$_Uninit_move@PAVioHashString@@PAV1@V?$allocator@VioHashString@@@std@@V1@@std@@YAPAVioHashString@@PAV1@00AAV?$allocator@VioHashString@@@0@0U_Nonscalar_ptr_iterator_tag@0@@Z PROC ; std::_Uninit_move<ioHashString *,ioHashString *,std::allocator<ioHashString>,ioHashString>, COMDAT

; 424  : 	{	// move [_First, _Last) to raw _Dest, using _Al, arbitrary type

  00000	6a 08		 push	 8
  00002	b8 00 00 00 00	 mov	 eax, __ehhandler$??$_Uninit_move@PAVioHashString@@PAV1@V?$allocator@VioHashString@@@std@@V1@@std@@YAPAVioHashString@@PAV1@00AAV?$allocator@VioHashString@@@0@0U_Nonscalar_ptr_iterator_tag@0@@Z
  00007	e8 00 00 00 00	 call	 __EH_prolog3_catch

; 425  : 	_DEBUG_RANGE(_First, _Last);
; 426  : 	_DEBUG_POINTER(_Dest);
; 427  : 	_FwdIt _Next = _Dest;

  0000c	8b 45 10	 mov	 eax, DWORD PTR __Dest$[ebp]

; 428  : 
; 429  : 	_TRY_BEGIN

  0000f	83 65 fc 00	 and	 DWORD PTR __$EHRec$[ebp+12], 0
  00013	8b 75 08	 mov	 esi, DWORD PTR __First$[ebp]
  00016	89 45 ec	 mov	 DWORD PTR __Next$[ebp], eax
$LL6@Uninit_mov:

; 430  : 	for (; _First != _Last; ++_Dest, ++_First)

  00019	3b 75 0c	 cmp	 esi, DWORD PTR __Last$[ebp]
  0001c	74 33		 je	 SHORT $LN4@Uninit_mov

; 431  : 		_Cons_val(_Al, _Dest, (_Valty &&)*_First);

  0001e	8b 4d 14	 mov	 ecx, DWORD PTR __Al$[ebp]
  00021	56		 push	 esi
  00022	ff 75 10	 push	 DWORD PTR __Dest$[ebp]
  00025	e8 00 00 00 00	 call	 ?construct@?$allocator@VioHashString@@@std@@QAEXPAVioHashString@@$$QAV3@@Z ; std::allocator<ioHashString>::construct
  0002a	83 45 10 10	 add	 DWORD PTR __Dest$[ebp], 16 ; 00000010H
  0002e	83 c6 10	 add	 esi, 16			; 00000010H
  00031	eb e6		 jmp	 SHORT $LL6@Uninit_mov
__catch$??$_Uninit_move@PAVioHashString@@PAV1@V?$allocator@VioHashString@@@std@@V1@@std@@YAPAVioHashString@@PAV1@00AAV?$allocator@VioHashString@@@0@0U_Nonscalar_ptr_iterator_tag@0@@Z$0:

; 432  : 	_CATCH_ALL
; 433  : 	for (; _Next != _Dest; ++_Next)

  00033	8b 75 ec	 mov	 esi, DWORD PTR __Next$[ebp]
  00036	eb 0b		 jmp	 SHORT $LN33@Uninit_mov
$LL3@Uninit_mov:

; 434  : 		_Dest_val(_Al, _Next);

  00038	8b ce		 mov	 ecx, esi
  0003a	ff 15 00 00 00
	00		 call	 DWORD PTR __imp_??1ioHashString@@QAE@XZ
  00040	83 c6 10	 add	 esi, 16			; 00000010H
$LN33@Uninit_mov:

; 432  : 	_CATCH_ALL
; 433  : 	for (; _Next != _Dest; ++_Next)

  00043	3b 75 10	 cmp	 esi, DWORD PTR __Dest$[ebp]
  00046	75 f0		 jne	 SHORT $LL3@Uninit_mov

; 435  : 	_RERAISE;

  00048	6a 00		 push	 0
  0004a	6a 00		 push	 0
  0004c	e8 00 00 00 00	 call	 __CxxThrowException@8
$LN34@Uninit_mov:
$LN4@Uninit_mov:

; 436  : 	_CATCH_END
; 437  : 	return (_Dest);

  00051	8b 45 10	 mov	 eax, DWORD PTR __Dest$[ebp]

; 438  : 	}

  00054	e8 00 00 00 00	 call	 __EH_epilog3
  00059	c3		 ret	 0
$LN32@Uninit_mov:
_TEXT	ENDS
;	COMDAT text$x
text$x	SEGMENT
__ehhandler$??$_Uninit_move@PAVioHashString@@PAV1@V?$allocator@VioHashString@@@std@@V1@@std@@YAPAVioHashString@@PAV1@00AAV?$allocator@VioHashString@@@0@0U_Nonscalar_ptr_iterator_tag@0@@Z:
  00000	8b 54 24 08	 mov	 edx, DWORD PTR [esp+8]
  00004	8d 42 0c	 lea	 eax, DWORD PTR [edx+12]
  00007	8b 4a e8	 mov	 ecx, DWORD PTR [edx-24]
  0000a	33 c8		 xor	 ecx, eax
  0000c	e8 00 00 00 00	 call	 @__security_check_cookie@4
  00011	b8 00 00 00 00	 mov	 eax, OFFSET __ehfuncinfo$??$_Uninit_move@PAVioHashString@@PAV1@V?$allocator@VioHashString@@@std@@V1@@std@@YAPAVioHashString@@PAV1@00AAV?$allocator@VioHashString@@@0@0U_Nonscalar_ptr_iterator_tag@0@@Z
  00016	e9 00 00 00 00	 jmp	 ___CxxFrameHandler3
text$x	ENDS
??$_Uninit_move@PAVioHashString@@PAV1@V?$allocator@VioHashString@@@std@@V1@@std@@YAPAVioHashString@@PAV1@00AAV?$allocator@VioHashString@@@0@0U_Nonscalar_ptr_iterator_tag@0@@Z ENDP ; std::_Uninit_move<ioHashString *,ioHashString *,std::allocator<ioHashString>,ioHashString>
PUBLIC	??$_Destroy_range@V?$allocator@VioHashString@@@std@@@std@@YAXPAVioHashString@@0AAV?$allocator@VioHashString@@@0@U_Nonscalar_ptr_iterator_tag@0@@Z ; std::_Destroy_range<std::allocator<ioHashString> >
; Function compile flags: /Ogsp
; File c:\program files (x86)\microsoft visual studio 10.0\vc\include\xmemory
;	COMDAT ??$_Destroy_range@V?$allocator@VioHashString@@@std@@@std@@YAXPAVioHashString@@0AAV?$allocator@VioHashString@@@0@U_Nonscalar_ptr_iterator_tag@0@@Z
_TEXT	SEGMENT
__First$ = 8						; size = 4
__Last$ = 12						; size = 4
__Al$ = 16						; size = 4
___formal$ = 20						; size = 1
??$_Destroy_range@V?$allocator@VioHashString@@@std@@@std@@YAXPAVioHashString@@0AAV?$allocator@VioHashString@@@0@U_Nonscalar_ptr_iterator_tag@0@@Z PROC ; std::_Destroy_range<std::allocator<ioHashString> >, COMDAT

; 95   : 	{	// destroy [_First, _Last), arbitrary type

  00000	55		 push	 ebp
  00001	8b ec		 mov	 ebp, esp
  00003	56		 push	 esi

; 96   : 	for (; _First != _Last; ++_First)

  00004	8b 75 08	 mov	 esi, DWORD PTR __First$[ebp]
  00007	eb 0b		 jmp	 SHORT $LN17@Destroy_ra
$LL3@Destroy_ra:

; 97   : 		_Dest_val(_Al, _First);

  00009	8b ce		 mov	 ecx, esi
  0000b	ff 15 00 00 00
	00		 call	 DWORD PTR __imp_??1ioHashString@@QAE@XZ
  00011	83 c6 10	 add	 esi, 16			; 00000010H
$LN17@Destroy_ra:

; 96   : 	for (; _First != _Last; ++_First)

  00014	3b 75 0c	 cmp	 esi, DWORD PTR __Last$[ebp]
  00017	75 f0		 jne	 SHORT $LL3@Destroy_ra
  00019	5e		 pop	 esi

; 98   : 	}

  0001a	5d		 pop	 ebp
  0001b	c3		 ret	 0
??$_Destroy_range@V?$allocator@VioHashString@@@std@@@std@@YAXPAVioHashString@@0AAV?$allocator@VioHashString@@@0@U_Nonscalar_ptr_iterator_tag@0@@Z ENDP ; std::_Destroy_range<std::allocator<ioHashString> >
_TEXT	ENDS
PUBLIC	??$_Uninitialized_move@PAVioHashString@@PAV1@V?$allocator@VioHashString@@@std@@@std@@YAPAVioHashString@@PAV1@00AAV?$allocator@VioHashString@@@0@@Z ; std::_Uninitialized_move<ioHashString *,ioHashString *,std::allocator<ioHashString> >
; Function compile flags: /Ogsp
; File c:\program files (x86)\microsoft visual studio 10.0\vc\include\memory
;	COMDAT ??$_Uninitialized_move@PAVioHashString@@PAV1@V?$allocator@VioHashString@@@std@@@std@@YAPAVioHashString@@PAV1@00AAV?$allocator@VioHashString@@@0@@Z
_TEXT	SEGMENT
__Cat$531078 = -4					; size = 1
__First$ = 8						; size = 4
__Last$ = 12						; size = 4
__Dest$ = 16						; size = 4
__Al$ = 20						; size = 4
??$_Uninitialized_move@PAVioHashString@@PAV1@V?$allocator@VioHashString@@@std@@@std@@YAPAVioHashString@@PAV1@00AAV?$allocator@VioHashString@@@0@@Z PROC ; std::_Uninitialized_move<ioHashString *,ioHashString *,std::allocator<ioHashString> >, COMDAT

; 469  : 	{	// move [_First, _Last) to raw _Dest, using _Al

  00000	55		 push	 ebp
  00001	8b ec		 mov	 ebp, esp
  00003	51		 push	 ecx

; 470  : 	return (_Uninit_move(_First, _Last, _Dest, _Al,
; 471  : 		_Val_type(_First), _Ptr_cat(_First, _Dest)));

  00004	ff 75 fc	 push	 DWORD PTR __Cat$531078[ebp]
  00007	6a 00		 push	 0
  00009	ff 75 14	 push	 DWORD PTR __Al$[ebp]
  0000c	ff 75 10	 push	 DWORD PTR __Dest$[ebp]
  0000f	ff 75 0c	 push	 DWORD PTR __Last$[ebp]
  00012	ff 75 08	 push	 DWORD PTR __First$[ebp]
  00015	e8 00 00 00 00	 call	 ??$_Uninit_move@PAVioHashString@@PAV1@V?$allocator@VioHashString@@@std@@V1@@std@@YAPAVioHashString@@PAV1@00AAV?$allocator@VioHashString@@@0@0U_Nonscalar_ptr_iterator_tag@0@@Z ; std::_Uninit_move<ioHashString *,ioHashString *,std::allocator<ioHashString>,ioHashString>
  0001a	83 c4 18	 add	 esp, 24			; 00000018H

; 472  : 	}

  0001d	c9		 leave
  0001e	c3		 ret	 0
??$_Uninitialized_move@PAVioHashString@@PAV1@V?$allocator@VioHashString@@@std@@@std@@YAPAVioHashString@@PAV1@00AAV?$allocator@VioHashString@@@0@@Z ENDP ; std::_Uninitialized_move<ioHashString *,ioHashString *,std::allocator<ioHashString> >
_TEXT	ENDS
PUBLIC	??$_Destroy_range@V?$allocator@VioHashString@@@std@@@std@@YAXPAVioHashString@@0AAV?$allocator@VioHashString@@@0@@Z ; std::_Destroy_range<std::allocator<ioHashString> >
; Function compile flags: /Ogsp
; File c:\program files (x86)\microsoft visual studio 10.0\vc\include\xmemory
;	COMDAT ??$_Destroy_range@V?$allocator@VioHashString@@@std@@@std@@YAXPAVioHashString@@0AAV?$allocator@VioHashString@@@0@@Z
_TEXT	SEGMENT
__First$ = 8						; size = 4
__Last$ = 12						; size = 4
__Al$ = 16						; size = 4
??$_Destroy_range@V?$allocator@VioHashString@@@std@@@std@@YAXPAVioHashString@@0AAV?$allocator@VioHashString@@@0@@Z PROC ; std::_Destroy_range<std::allocator<ioHashString> >, COMDAT

; 87   : 	{	// destroy [_First, _Last)

  00000	55		 push	 ebp
  00001	8b ec		 mov	 ebp, esp
  00003	56		 push	 esi

; 88   : 	_Destroy_range(_First, _Last, _Al, _Ptr_cat(_First, _Last));

  00004	8b 75 08	 mov	 esi, DWORD PTR __First$[ebp]
  00007	eb 0b		 jmp	 SHORT $LN21@Destroy_ra@2
$LL7@Destroy_ra@2:
  00009	8b ce		 mov	 ecx, esi
  0000b	ff 15 00 00 00
	00		 call	 DWORD PTR __imp_??1ioHashString@@QAE@XZ
  00011	83 c6 10	 add	 esi, 16			; 00000010H
$LN21@Destroy_ra@2:
  00014	3b 75 0c	 cmp	 esi, DWORD PTR __Last$[ebp]
  00017	75 f0		 jne	 SHORT $LL7@Destroy_ra@2
  00019	5e		 pop	 esi

; 89   : 	}

  0001a	5d		 pop	 ebp
  0001b	c3		 ret	 0
??$_Destroy_range@V?$allocator@VioHashString@@@std@@@std@@YAXPAVioHashString@@0AAV?$allocator@VioHashString@@@0@@Z ENDP ; std::_Destroy_range<std::allocator<ioHashString> >
_TEXT	ENDS
PUBLIC	??$_Umove@PAVioHashString@@@?$vector@VioHashString@@V?$allocator@VioHashString@@@std@@@std@@IAEPAVioHashString@@PAV2@00@Z ; std::vector<ioHashString,std::allocator<ioHashString> >::_Umove<ioHashString *>
; Function compile flags: /Ogsp
; File c:\program files (x86)\microsoft visual studio 10.0\vc\include\vector
;	COMDAT ??$_Umove@PAVioHashString@@@?$vector@VioHashString@@V?$allocator@VioHashString@@@std@@@std@@IAEPAVioHashString@@PAV2@00@Z
_TEXT	SEGMENT
__First$ = 8						; size = 4
__Last$ = 12						; size = 4
__Ptr$ = 16						; size = 4
??$_Umove@PAVioHashString@@@?$vector@VioHashString@@V?$allocator@VioHashString@@@std@@@std@@IAEPAVioHashString@@PAV2@00@Z PROC ; std::vector<ioHashString,std::allocator<ioHashString> >::_Umove<ioHashString *>, COMDAT
; _this$ = ecx

; 1322 : 		pointer _Umove(_Iter _First, _Iter _Last, pointer _Ptr)

  00000	55		 push	 ebp
  00001	8b ec		 mov	 ebp, esp

; 1323 : 		{	// move initializing [_First, _Last), using allocator
; 1324 : 		return (_Uninitialized_move(_First, _Last,
; 1325 : 			_Ptr, this->_Alval));

  00003	83 c1 0c	 add	 ecx, 12			; 0000000cH
  00006	51		 push	 ecx
  00007	ff 75 10	 push	 DWORD PTR __Ptr$[ebp]
  0000a	ff 75 0c	 push	 DWORD PTR __Last$[ebp]
  0000d	ff 75 08	 push	 DWORD PTR __First$[ebp]
  00010	e8 00 00 00 00	 call	 ??$_Uninitialized_move@PAVioHashString@@PAV1@V?$allocator@VioHashString@@@std@@@std@@YAPAVioHashString@@PAV1@00AAV?$allocator@VioHashString@@@0@@Z ; std::_Uninitialized_move<ioHashString *,ioHashString *,std::allocator<ioHashString> >
  00015	83 c4 10	 add	 esp, 16			; 00000010H

; 1326 : 		}

  00018	5d		 pop	 ebp
  00019	c2 0c 00	 ret	 12			; 0000000cH
??$_Umove@PAVioHashString@@@?$vector@VioHashString@@V?$allocator@VioHashString@@@std@@@std@@IAEPAVioHashString@@PAV2@00@Z ENDP ; std::vector<ioHashString,std::allocator<ioHashString> >::_Umove<ioHashString *>
_TEXT	ENDS
PUBLIC	?_Destroy@?$vector@VioHashString@@V?$allocator@VioHashString@@@std@@@std@@IAEXPAVioHashString@@0@Z ; std::vector<ioHashString,std::allocator<ioHashString> >::_Destroy
; Function compile flags: /Ogsp
;	COMDAT ?_Destroy@?$vector@VioHashString@@V?$allocator@VioHashString@@@std@@@std@@IAEXPAVioHashString@@0@Z
_TEXT	SEGMENT
__First$ = 8						; size = 4
__Last$ = 12						; size = 4
?_Destroy@?$vector@VioHashString@@V?$allocator@VioHashString@@@std@@@std@@IAEXPAVioHashString@@0@Z PROC ; std::vector<ioHashString,std::allocator<ioHashString> >::_Destroy, COMDAT
; _this$ = ecx

; 1269 : 		{	// destroy [_First, _Last) using allocator

  00000	55		 push	 ebp
  00001	8b ec		 mov	 ebp, esp
  00003	56		 push	 esi

; 1270 : 		_Destroy_range(_First, _Last, this->_Alval);

  00004	8b 75 08	 mov	 esi, DWORD PTR __First$[ebp]
  00007	eb 0b		 jmp	 SHORT $LN23@Destroy
$LL9@Destroy:
  00009	8b ce		 mov	 ecx, esi
  0000b	ff 15 00 00 00
	00		 call	 DWORD PTR __imp_??1ioHashString@@QAE@XZ
  00011	83 c6 10	 add	 esi, 16			; 00000010H
$LN23@Destroy:
  00014	3b 75 0c	 cmp	 esi, DWORD PTR __Last$[ebp]
  00017	75 f0		 jne	 SHORT $LL9@Destroy
  00019	5e		 pop	 esi

; 1271 : 		}

  0001a	5d		 pop	 ebp
  0001b	c2 08 00	 ret	 8
?_Destroy@?$vector@VioHashString@@V?$allocator@VioHashString@@@std@@@std@@IAEXPAVioHashString@@0@Z ENDP ; std::vector<ioHashString,std::allocator<ioHashString> >::_Destroy
_TEXT	ENDS
PUBLIC	?reserve@?$vector@VioHashString@@V?$allocator@VioHashString@@@std@@@std@@QAEXI@Z ; std::vector<ioHashString,std::allocator<ioHashString> >::reserve
EXTRN	__imp_?_Orphan_all@_Container_base0@std@@QAEXXZ:PROC
;	COMDAT xdata$x
; File c:\program files (x86)\microsoft visual studio 10.0\vc\include\xmemory
xdata$x	SEGMENT
__catchsym$?reserve@?$vector@VioHashString@@V?$allocator@VioHashString@@@std@@@std@@QAEXI@Z$2 DD 040H
	DD	00H
	DD	00H
	DD	FLAT:__catch$?reserve@?$vector@VioHashString@@V?$allocator@VioHashString@@@std@@@std@@QAEXI@Z$0
__unwindtable$?reserve@?$vector@VioHashString@@V?$allocator@VioHashString@@@std@@@std@@QAEXI@Z DD 0ffffffffH
	DD	00H
	DD	0ffffffffH
	DD	00H
__tryblocktable$?reserve@?$vector@VioHashString@@V?$allocator@VioHashString@@@std@@@std@@QAEXI@Z DD 00H
	DD	00H
	DD	01H
	DD	01H
	DD	FLAT:__catchsym$?reserve@?$vector@VioHashString@@V?$allocator@VioHashString@@@std@@@std@@QAEXI@Z$2
__ehfuncinfo$?reserve@?$vector@VioHashString@@V?$allocator@VioHashString@@@std@@@std@@QAEXI@Z DD 019930522H
	DD	02H
	DD	FLAT:__unwindtable$?reserve@?$vector@VioHashString@@V?$allocator@VioHashString@@@std@@@std@@QAEXI@Z
	DD	01H
	DD	FLAT:__tryblocktable$?reserve@?$vector@VioHashString@@V?$allocator@VioHashString@@@std@@@std@@QAEXI@Z
	DD	2 DUP(00H)
	DD	00H
	DD	01H
; Function compile flags: /Ogsp
; File c:\program files (x86)\microsoft visual studio 10.0\vc\include\vector
xdata$x	ENDS
;	COMDAT ?reserve@?$vector@VioHashString@@V?$allocator@VioHashString@@@std@@@std@@QAEXI@Z
_TEXT	SEGMENT
tv300 = -24						; size = 4
__Ptr$526916 = -20					; size = 4
__$EHRec$ = -16						; size = 16
$T531307 = 8						; size = 4
__Count$ = 8						; size = 4
?reserve@?$vector@VioHashString@@V?$allocator@VioHashString@@@std@@@std@@QAEXI@Z PROC ; std::vector<ioHashString,std::allocator<ioHashString> >::reserve, COMDAT
; _this$ = ecx

; 746  : 		{	// determine new minimum length of allocated storage

  00000	6a 0c		 push	 12			; 0000000cH
  00002	b8 00 00 00 00	 mov	 eax, __ehhandler$?reserve@?$vector@VioHashString@@V?$allocator@VioHashString@@@std@@@std@@QAEXI@Z
  00007	e8 00 00 00 00	 call	 __EH_prolog3_catch
  0000c	8b f1		 mov	 esi, ecx

; 747  : 		if (max_size() < _Count)

  0000e	8b 5d 08	 mov	 ebx, DWORD PTR __Count$[ebp]
  00011	81 fb ff ff ff
	0f		 cmp	 ebx, 268435455		; 0fffffffH
  00017	76 0b		 jbe	 SHORT $LN5@reserve

; 748  : 			_Xlen();	// result too long

  00019	68 00 00 00 00	 push	 OFFSET ??_C@_0BD@OLBABOEK@vector?$DMT?$DO?5too?5long?$AA@
  0001e	ff 15 00 00 00
	00		 call	 DWORD PTR __imp_?_Xlength_error@std@@YAXPBD@Z
$LN59@reserve:
$LN5@reserve:

; 749  : 		else if (capacity() < _Count)

  00024	8b 46 08	 mov	 eax, DWORD PTR [esi+8]
  00027	2b 06		 sub	 eax, DWORD PTR [esi]
  00029	c1 f8 04	 sar	 eax, 4
  0002c	3b c3		 cmp	 eax, ebx
  0002e	73 7a		 jae	 SHORT $LN3@reserve

; 750  : 			{	// not enough room, reallocate
; 751  : 			pointer _Ptr = this->_Alval.allocate(_Count);

  00030	6a 00		 push	 0
  00032	53		 push	 ebx
  00033	e8 00 00 00 00	 call	 ??$_Allocate@VioHashString@@@std@@YAPAVioHashString@@IPAV1@@Z ; std::_Allocate<ioHashString>

; 752  : 
; 753  : 			_TRY_BEGIN
; 754  : 			_Umove(this->_Myfirst, this->_Mylast, _Ptr);

  00038	8b 0e		 mov	 ecx, DWORD PTR [esi]
  0003a	83 65 fc 00	 and	 DWORD PTR __$EHRec$[ebp+12], 0
  0003e	8d 56 0c	 lea	 edx, DWORD PTR [esi+12]
  00041	52		 push	 edx
  00042	89 45 ec	 mov	 DWORD PTR __Ptr$526916[ebp], eax
  00045	ff 75 ec	 push	 DWORD PTR __Ptr$526916[ebp]
  00048	8b 46 04	 mov	 eax, DWORD PTR [esi+4]
  0004b	50		 push	 eax
  0004c	51		 push	 ecx
  0004d	e8 00 00 00 00	 call	 ??$_Uninitialized_move@PAVioHashString@@PAV1@V?$allocator@VioHashString@@@std@@@std@@YAPAVioHashString@@PAV1@00AAV?$allocator@VioHashString@@@0@@Z ; std::_Uninitialized_move<ioHashString *,ioHashString *,std::allocator<ioHashString> >

; 758  : 			_CATCH_END
; 759  : 
; 760  : 			size_type _Size = size();

  00052	8b 4e 04	 mov	 ecx, DWORD PTR [esi+4]
  00055	8b 06		 mov	 eax, DWORD PTR [esi]
  00057	83 4d fc ff	 or	 DWORD PTR __$EHRec$[ebp+12], -1
  0005b	8b f9		 mov	 edi, ecx
  0005d	83 c4 18	 add	 esp, 24			; 00000018H
  00060	2b f8		 sub	 edi, eax
  00062	89 4d e8	 mov	 DWORD PTR tv300[ebp], ecx
  00065	85 c0		 test	 eax, eax
  00067	74 24		 je	 SHORT $LN51@reserve

; 761  : 			if (this->_Myfirst != 0)
; 762  : 				{	// destroy and deallocate old array
; 763  : 				_Destroy(this->_Myfirst, this->_Mylast);

  00069	89 45 08	 mov	 DWORD PTR $T531307[ebp], eax
  0006c	3b c1		 cmp	 eax, ecx
  0006e	74 15		 je	 SHORT $LN37@reserve
$LN39@reserve:
  00070	8b 4d 08	 mov	 ecx, DWORD PTR $T531307[ebp]
  00073	ff 15 00 00 00
	00		 call	 DWORD PTR __imp_??1ioHashString@@QAE@XZ
  00079	83 45 08 10	 add	 DWORD PTR $T531307[ebp], 16 ; 00000010H
  0007d	8b 45 08	 mov	 eax, DWORD PTR $T531307[ebp]
  00080	3b 45 e8	 cmp	 eax, DWORD PTR tv300[ebp]
  00083	75 eb		 jne	 SHORT $LN39@reserve
$LN37@reserve:

; 764  : 				this->_Alval.deallocate(this->_Myfirst,
; 765  : 					this->_Myend - this->_Myfirst);

  00085	ff 36		 push	 DWORD PTR [esi]
  00087	e8 00 00 00 00	 call	 ??3@YAXPAX@Z		; operator delete
  0008c	59		 pop	 ecx
$LN51@reserve:

; 766  : 				}
; 767  : 
; 768  : 			this->_Orphan_all();

  0008d	8b ce		 mov	 ecx, esi
  0008f	ff 15 00 00 00
	00		 call	 DWORD PTR __imp_?_Orphan_all@_Container_base0@std@@QAEXXZ

; 769  : 			this->_Myend = _Ptr + _Count;

  00095	8b 45 ec	 mov	 eax, DWORD PTR __Ptr$526916[ebp]
  00098	c1 e3 04	 shl	 ebx, 4
  0009b	03 d8		 add	 ebx, eax

; 770  : 			this->_Mylast = _Ptr + _Size;

  0009d	83 e7 f0	 and	 edi, -16		; fffffff0H
  000a0	03 f8		 add	 edi, eax
  000a2	89 5e 08	 mov	 DWORD PTR [esi+8], ebx
  000a5	89 7e 04	 mov	 DWORD PTR [esi+4], edi

; 771  : 			this->_Myfirst = _Ptr;

  000a8	89 06		 mov	 DWORD PTR [esi], eax
$LN3@reserve:

; 772  : 			}
; 773  : 		}

  000aa	e8 00 00 00 00	 call	 __EH_epilog3
  000af	c2 04 00	 ret	 4
__catch$?reserve@?$vector@VioHashString@@V?$allocator@VioHashString@@@std@@@std@@QAEXI@Z$0:

; 755  : 			_CATCH_ALL
; 756  : 			this->_Alval.deallocate(_Ptr, _Count);

  000b2	ff 75 ec	 push	 DWORD PTR __Ptr$526916[ebp]
  000b5	e8 00 00 00 00	 call	 ??3@YAXPAX@Z		; operator delete
  000ba	59		 pop	 ecx

; 757  : 			_RERAISE;

  000bb	6a 00		 push	 0
  000bd	6a 00		 push	 0
  000bf	e8 00 00 00 00	 call	 __CxxThrowException@8
$LN60@reserve:
$LN58@reserve:
  000c4	cc		 int	 3
_TEXT	ENDS
;	COMDAT text$x
text$x	SEGMENT
__ehhandler$?reserve@?$vector@VioHashString@@V?$allocator@VioHashString@@@std@@@std@@QAEXI@Z:
  00000	8b 54 24 08	 mov	 edx, DWORD PTR [esp+8]
  00004	8d 42 0c	 lea	 eax, DWORD PTR [edx+12]
  00007	8b 4a e4	 mov	 ecx, DWORD PTR [edx-28]
  0000a	33 c8		 xor	 ecx, eax
  0000c	e8 00 00 00 00	 call	 @__security_check_cookie@4
  00011	b8 00 00 00 00	 mov	 eax, OFFSET __ehfuncinfo$?reserve@?$vector@VioHashString@@V?$allocator@VioHashString@@@std@@@std@@QAEXI@Z
  00016	e9 00 00 00 00	 jmp	 ___CxxFrameHandler3
text$x	ENDS
?reserve@?$vector@VioHashString@@V?$allocator@VioHashString@@@std@@@std@@QAEXI@Z ENDP ; std::vector<ioHashString,std::allocator<ioHashString> >::reserve
PUBLIC	?_Reserve@?$vector@VioHashString@@V?$allocator@VioHashString@@@std@@@std@@IAEXI@Z ; std::vector<ioHashString,std::allocator<ioHashString> >::_Reserve
; Function compile flags: /Ogsp
;	COMDAT ?_Reserve@?$vector@VioHashString@@V?$allocator@VioHashString@@@std@@@std@@IAEXI@Z
_TEXT	SEGMENT
__Count$ = 8						; size = 4
?_Reserve@?$vector@VioHashString@@V?$allocator@VioHashString@@@std@@@std@@IAEXI@Z PROC ; std::vector<ioHashString,std::allocator<ioHashString> >::_Reserve, COMDAT
; _this$ = ecx

; 1290 : 		{	// ensure room for _Count new elements, grow exponentially

  00000	55		 push	 ebp
  00001	8b ec		 mov	 ebp, esp
  00003	56		 push	 esi
  00004	8b f1		 mov	 esi, ecx

; 1291 : 		size_type _Size = size();

  00006	8b 0e		 mov	 ecx, DWORD PTR [esi]
  00008	8b 46 04	 mov	 eax, DWORD PTR [esi+4]
  0000b	2b c1		 sub	 eax, ecx

; 1292 : 		if (max_size() - _Count < _Size)

  0000d	ba ff ff ff 0f	 mov	 edx, 268435455		; 0fffffffH
  00012	2b 55 08	 sub	 edx, DWORD PTR __Count$[ebp]
  00015	c1 f8 04	 sar	 eax, 4
  00018	3b d0		 cmp	 edx, eax
  0001a	73 0b		 jae	 SHORT $LN4@Reserve

; 1293 : 			_Xlen();

  0001c	68 00 00 00 00	 push	 OFFSET ??_C@_0BD@OLBABOEK@vector?$DMT?$DO?5too?5long?$AA@
  00021	ff 15 00 00 00
	00		 call	 DWORD PTR __imp_?_Xlength_error@std@@YAXPBD@Z
$LN21@Reserve:
$LN4@Reserve:

; 1294 : 		else if ((_Size += _Count) <= capacity())

  00027	8b 56 08	 mov	 edx, DWORD PTR [esi+8]
  0002a	03 45 08	 add	 eax, DWORD PTR __Count$[ebp]
  0002d	2b d1		 sub	 edx, ecx
  0002f	c1 fa 04	 sar	 edx, 4
  00032	3b c2		 cmp	 eax, edx
  00034	76 10		 jbe	 SHORT $LN1@Reserve

; 1295 : 			;
; 1296 : 		else
; 1297 : 			reserve(_Grow_to(_Size));

  00036	50		 push	 eax
  00037	8b ce		 mov	 ecx, esi
  00039	e8 00 00 00 00	 call	 ?_Grow_to@?$vector@VioHashString@@V?$allocator@VioHashString@@@std@@@std@@IBEII@Z ; std::vector<ioHashString,std::allocator<ioHashString> >::_Grow_to
  0003e	50		 push	 eax
  0003f	8b ce		 mov	 ecx, esi
  00041	e8 00 00 00 00	 call	 ?reserve@?$vector@VioHashString@@V?$allocator@VioHashString@@@std@@@std@@QAEXI@Z ; std::vector<ioHashString,std::allocator<ioHashString> >::reserve
$LN1@Reserve:
  00046	5e		 pop	 esi

; 1298 : 		}

  00047	5d		 pop	 ebp
  00048	c2 04 00	 ret	 4
$LN20@Reserve:
?_Reserve@?$vector@VioHashString@@V?$allocator@VioHashString@@@std@@@std@@IAEXI@Z ENDP ; std::vector<ioHashString,std::allocator<ioHashString> >::_Reserve
_TEXT	ENDS
PUBLIC	?push_back@?$vector@VioHashString@@V?$allocator@VioHashString@@@std@@@std@@QAEXABVioHashString@@@Z ; std::vector<ioHashString,std::allocator<ioHashString> >::push_back
; Function compile flags: /Ogsp
;	COMDAT ?push_back@?$vector@VioHashString@@V?$allocator@VioHashString@@@std@@@std@@QAEXABVioHashString@@@Z
_TEXT	SEGMENT
__Val$ = 8						; size = 4
?push_back@?$vector@VioHashString@@V?$allocator@VioHashString@@@std@@@std@@QAEXABVioHashString@@@Z PROC ; std::vector<ioHashString,std::allocator<ioHashString> >::push_back, COMDAT
; _this$ = ecx

; 976  : 		{	// insert element at end

  00000	55		 push	 ebp
  00001	8b ec		 mov	 ebp, esp
  00003	56		 push	 esi
  00004	8b f1		 mov	 esi, ecx

; 977  : 		if (_Inside(_STD addressof(_Val)))

  00006	8b 46 04	 mov	 eax, DWORD PTR [esi+4]
  00009	57		 push	 edi
  0000a	8b 7d 08	 mov	 edi, DWORD PTR __Val$[ebp]
  0000d	3b f8		 cmp	 edi, eax
  0000f	73 29		 jae	 SHORT $LN4@push_back
  00011	8b 0e		 mov	 ecx, DWORD PTR [esi]
  00013	3b cf		 cmp	 ecx, edi
  00015	77 23		 ja	 SHORT $LN4@push_back

; 978  : 			{	// push back an element
; 979  : 			size_type _Idx = _STD addressof(_Val) - this->_Myfirst;

  00017	2b f9		 sub	 edi, ecx

; 980  : 			if (this->_Mylast == this->_Myend)

  00019	3b 46 08	 cmp	 eax, DWORD PTR [esi+8]
  0001c	75 09		 jne	 SHORT $LN3@push_back

; 981  : 				_Reserve(1);

  0001e	6a 01		 push	 1
  00020	8b ce		 mov	 ecx, esi
  00022	e8 00 00 00 00	 call	 ?_Reserve@?$vector@VioHashString@@V?$allocator@VioHashString@@@std@@@std@@IAEXI@Z ; std::vector<ioHashString,std::allocator<ioHashString> >::_Reserve
$LN3@push_back:

; 982  : 			_Orphan_range(this->_Mylast, this->_Mylast);
; 983  : 			_Cons_val(this->_Alval,
; 984  : 				this->_Mylast,
; 985  : 				this->_Myfirst[_Idx]);

  00027	83 e7 f0	 and	 edi, -16		; fffffff0H
  0002a	03 3e		 add	 edi, DWORD PTR [esi]
  0002c	8d 4e 0c	 lea	 ecx, DWORD PTR [esi+12]
  0002f	57		 push	 edi
  00030	ff 76 04	 push	 DWORD PTR [esi+4]
  00033	e8 00 00 00 00	 call	 ??$construct@AAVioHashString@@@?$allocator@VioHashString@@@std@@QAEXPAVioHashString@@AAV2@@Z ; std::allocator<ioHashString>::construct<ioHashString &>

; 986  : 			++this->_Mylast;
; 987  : 			}
; 988  : 		else

  00038	eb 19		 jmp	 SHORT $LN30@push_back
$LN4@push_back:

; 989  : 			{	// push back a non-element
; 990  : 			if (this->_Mylast == this->_Myend)

  0003a	3b 46 08	 cmp	 eax, DWORD PTR [esi+8]
  0003d	75 09		 jne	 SHORT $LN1@push_back

; 991  : 				_Reserve(1);

  0003f	6a 01		 push	 1
  00041	8b ce		 mov	 ecx, esi
  00043	e8 00 00 00 00	 call	 ?_Reserve@?$vector@VioHashString@@V?$allocator@VioHashString@@@std@@@std@@IAEXI@Z ; std::vector<ioHashString,std::allocator<ioHashString> >::_Reserve
$LN1@push_back:

; 992  : 			_Orphan_range(this->_Mylast, this->_Mylast);
; 993  : 			_Cons_val(this->_Alval,
; 994  : 				this->_Mylast,
; 995  : 				_Val);

  00048	57		 push	 edi
  00049	ff 76 04	 push	 DWORD PTR [esi+4]
  0004c	e8 00 00 00 00	 call	 ??$_Construct@VioHashString@@ABV1@@std@@YAXPAVioHashString@@ABV1@@Z ; std::_Construct<ioHashString,ioHashString const &>
  00051	59		 pop	 ecx
  00052	59		 pop	 ecx
$LN30@push_back:

; 996  : 			++this->_Mylast;

  00053	83 46 04 10	 add	 DWORD PTR [esi+4], 16	; 00000010H
  00057	5f		 pop	 edi
  00058	5e		 pop	 esi

; 997  : 			}
; 998  : 		}

  00059	5d		 pop	 ebp
  0005a	c2 04 00	 ret	 4
?push_back@?$vector@VioHashString@@V?$allocator@VioHashString@@@std@@@std@@QAEXABVioHashString@@@Z ENDP ; std::vector<ioHashString,std::allocator<ioHashString> >::push_back
_TEXT	ENDS
PUBLIC	?GetUserNameList@TowerDefWnd@@QAEXAAV?$vector@VioHashString@@V?$allocator@VioHashString@@@std@@@std@@@Z ; TowerDefWnd::GetUserNameList
; Function compile flags: /Ogsp
; File d:\lost saga for developer\youtube\tutorial\source\src\lsclient\gui\towerdefwnd.cpp
;	COMDAT ?GetUserNameList@TowerDefWnd@@QAEXAAV?$vector@VioHashString@@V?$allocator@VioHashString@@@std@@@std@@@Z
_TEXT	SEGMENT
_vecName$ = 8						; size = 4
?GetUserNameList@TowerDefWnd@@QAEXAAV?$vector@VioHashString@@V?$allocator@VioHashString@@@std@@@std@@@Z PROC ; TowerDefWnd::GetUserNameList, COMDAT
; _this$ = ecx

; 153  : {

  00000	55		 push	 ebp
  00001	8b ec		 mov	 ebp, esp
  00003	56		 push	 esi
  00004	57		 push	 edi

; 154  : 	for(int i = 0; i < MAX_USER; i++)

  00005	6a 04		 push	 4
  00007	8d b1 c4 01 00
	00		 lea	 esi, DWORD PTR [ecx+452]
  0000d	5f		 pop	 edi
$LL4@GetUserNam:

; 155  : 	{
; 156  : 		if(m_stUserGauge[i].eID != GAUGE_NONE)

  0000e	83 7e fc 00	 cmp	 DWORD PTR [esi-4], 0
  00012	74 09		 je	 SHORT $LN3@GetUserNam

; 157  : 		{
; 158  : 			vecName.push_back(m_stUserGauge[i].szUserName);

  00014	8b 4d 08	 mov	 ecx, DWORD PTR _vecName$[ebp]
  00017	56		 push	 esi
  00018	e8 00 00 00 00	 call	 ?push_back@?$vector@VioHashString@@V?$allocator@VioHashString@@@std@@@std@@QAEXABVioHashString@@@Z ; std::vector<ioHashString,std::allocator<ioHashString> >::push_back
$LN3@GetUserNam:

; 154  : 	for(int i = 0; i < MAX_USER; i++)

  0001d	83 c6 18	 add	 esi, 24			; 00000018H
  00020	4f		 dec	 edi
  00021	75 eb		 jne	 SHORT $LL4@GetUserNam
  00023	5f		 pop	 edi
  00024	5e		 pop	 esi

; 159  : 		}
; 160  : 	}
; 161  : }

  00025	5d		 pop	 ebp
  00026	c2 04 00	 ret	 4
?GetUserNameList@TowerDefWnd@@QAEXAAV?$vector@VioHashString@@V?$allocator@VioHashString@@@std@@@std@@@Z ENDP ; TowerDefWnd::GetUserNameList
_TEXT	ENDS
END
