; Listing generated by Microsoft (R) Optimizing Compiler Version 16.00.30319.01 

	TITLE	D:\Lost Saga For Developer\Youtube\Tutorial\Source\src\LSClient\GUI\TradeItemRegisterWnd.cpp
	.686P
	.XMM
	include listing.inc
	.model	flat

INCLUDELIB MSVCRT
INCLUDELIB OLDNAMES

PUBLIC	?SetMarkType@TradeIconBtn@@QAEXH@Z		; TradeIconBtn::SetMarkType
; Function compile flags: /Ogsp
; File d:\lost saga for developer\youtube\tutorial\source\src\lsclient\gui\changetradestatewnd.h
;	COMDAT ?SetMarkType@TradeIconBtn@@QAEXH@Z
_TEXT	SEGMENT
_iMarkType$ = 8						; size = 4
?SetMarkType@TradeIconBtn@@QAEXH@Z PROC			; TradeIconBtn::SetMarkType, COMDAT
; _this$ = ecx

; 55   : 	void SetMarkType( int iMarkType ) { m_iMarkType = iMarkType; } 

  00000	55		 push	 ebp
  00001	8b ec		 mov	 ebp, esp
  00003	8b 45 08	 mov	 eax, DWORD PTR _iMarkType$[ebp]
  00006	89 81 18 02 00
	00		 mov	 DWORD PTR [ecx+536], eax
  0000c	5d		 pop	 ebp
  0000d	c2 04 00	 ret	 4
?SetMarkType@TradeIconBtn@@QAEXH@Z ENDP			; TradeIconBtn::SetMarkType
_TEXT	ENDS
PUBLIC	?SetCustomItem@TradeIconBtn@@QAEX_N@Z		; TradeIconBtn::SetCustomItem
; Function compile flags: /Ogsp
;	COMDAT ?SetCustomItem@TradeIconBtn@@QAEX_N@Z
_TEXT	SEGMENT
_bCustomItem$ = 8					; size = 1
?SetCustomItem@TradeIconBtn@@QAEX_N@Z PROC		; TradeIconBtn::SetCustomItem, COMDAT
; _this$ = ecx

; 56   : 	void SetCustomItem( bool bCustomItem ){ m_bCustomItem = bCustomItem; }

  00000	55		 push	 ebp
  00001	8b ec		 mov	 ebp, esp
  00003	8a 45 08	 mov	 al, BYTE PTR _bCustomItem$[ebp]
  00006	88 81 1c 02 00
	00		 mov	 BYTE PTR [ecx+540], al
  0000c	5d		 pop	 ebp
  0000d	c2 04 00	 ret	 4
?SetCustomItem@TradeIconBtn@@QAEX_N@Z ENDP		; TradeIconBtn::SetCustomItem
_TEXT	ENDS
PUBLIC	?SetGradeType@TradeIconBtn@@QAEXH@Z		; TradeIconBtn::SetGradeType
; Function compile flags: /Ogsp
;	COMDAT ?SetGradeType@TradeIconBtn@@QAEXH@Z
_TEXT	SEGMENT
_nGradeType$ = 8					; size = 4
?SetGradeType@TradeIconBtn@@QAEXH@Z PROC		; TradeIconBtn::SetGradeType, COMDAT
; _this$ = ecx

; 57   : 	void SetGradeType( int nGradeType ){ m_nGradeType = nGradeType; }

  00000	55		 push	 ebp
  00001	8b ec		 mov	 ebp, esp
  00003	8b 45 08	 mov	 eax, DWORD PTR _nGradeType$[ebp]
  00006	89 81 2c 02 00
	00		 mov	 DWORD PTR [ecx+556], eax
  0000c	5d		 pop	 ebp
  0000d	c2 04 00	 ret	 4
?SetGradeType@TradeIconBtn@@QAEXH@Z ENDP		; TradeIconBtn::SetGradeType
_TEXT	ENDS
PUBLIC	?GetExtraItemIndex@TradeItemInfoWnd@@QBEHXZ	; TradeItemInfoWnd::GetExtraItemIndex
; Function compile flags: /Ogsp
;	COMDAT ?GetExtraItemIndex@TradeItemInfoWnd@@QBEHXZ
_TEXT	SEGMENT
?GetExtraItemIndex@TradeItemInfoWnd@@QBEHXZ PROC	; TradeItemInfoWnd::GetExtraItemIndex, COMDAT
; _this$ = ecx

; 193  : 	inline int GetExtraItemIndex() const { return m_iExtraItemIndex; }	

  00000	8b 81 ac 02 00
	00		 mov	 eax, DWORD PTR [ecx+684]
  00006	c3		 ret	 0
?GetExtraItemIndex@TradeItemInfoWnd@@QBEHXZ ENDP	; TradeItemInfoWnd::GetExtraItemIndex
_TEXT	ENDS
PUBLIC	?return1@@YAIXZ					; return1
; Function compile flags: /Ogsp
; File d:\lost saga for developer\youtube\tutorial\source\src\lsclient\stdafx.h
;	COMDAT ?return1@@YAIXZ
_TEXT	SEGMENT
?return1@@YAIXZ PROC					; return1, COMDAT

; 17   : 	__forceinline unsigned int return1() { __asm mov eax, 1 };

  00000	b8 01 00 00 00	 mov	 eax, 1
  00005	c3		 ret	 0
?return1@@YAIXZ ENDP					; return1
_TEXT	ENDS
PUBLIC	?return100@@YAIXZ				; return100
; Function compile flags: /Ogsp
;	COMDAT ?return100@@YAIXZ
_TEXT	SEGMENT
?return100@@YAIXZ PROC					; return100, COMDAT

; 25   : 	__forceinline unsigned int return100() { __asm mov eax, 100 };

  00000	b8 64 00 00 00	 mov	 eax, 100		; 00000064H
  00005	c3		 ret	 0
?return100@@YAIXZ ENDP					; return100
_TEXT	ENDS
PUBLIC	??_7TradeItemRegisterConfirmWnd@@6B@		; TradeItemRegisterConfirmWnd::`vftable'
PUBLIC	??1TradeItemRegisterConfirmWnd@@UAE@XZ		; TradeItemRegisterConfirmWnd::~TradeItemRegisterConfirmWnd
PUBLIC	??_R4TradeItemRegisterConfirmWnd@@6B@		; TradeItemRegisterConfirmWnd::`RTTI Complete Object Locator'
PUBLIC	??_R0?AVTradeItemRegisterConfirmWnd@@@8		; TradeItemRegisterConfirmWnd `RTTI Type Descriptor'
PUBLIC	??_R3TradeItemRegisterConfirmWnd@@8		; TradeItemRegisterConfirmWnd::`RTTI Class Hierarchy Descriptor'
PUBLIC	??_R2TradeItemRegisterConfirmWnd@@8		; TradeItemRegisterConfirmWnd::`RTTI Base Class Array'
PUBLIC	??_R1A@?0A@EA@TradeItemRegisterConfirmWnd@@8	; TradeItemRegisterConfirmWnd::`RTTI Base Class Descriptor at (0,-1,0,64)'
PUBLIC	??_R1A@?0A@EA@ioMovingWnd@@8			; ioMovingWnd::`RTTI Base Class Descriptor at (0,-1,0,64)'
PUBLIC	??_R0?AVioMovingWnd@@@8				; ioMovingWnd `RTTI Type Descriptor'
PUBLIC	??_R3ioMovingWnd@@8				; ioMovingWnd::`RTTI Class Hierarchy Descriptor'
PUBLIC	??_R2ioMovingWnd@@8				; ioMovingWnd::`RTTI Base Class Array'
PUBLIC	??_R1A@?0A@EA@ioWnd@@8				; ioWnd::`RTTI Base Class Descriptor at (0,-1,0,64)'
PUBLIC	??_R0?AVioWnd@@@8				; ioWnd `RTTI Type Descriptor'
PUBLIC	??_R3ioWnd@@8					; ioWnd::`RTTI Class Hierarchy Descriptor'
PUBLIC	??_R2ioWnd@@8					; ioWnd::`RTTI Base Class Array'
PUBLIC	?AddRenderFrame@TradeItemRegisterConfirmWnd@@MAEXABVioHashString@@PAVioUIRenderFrame@@@Z ; TradeItemRegisterConfirmWnd::AddRenderFrame
PUBLIC	?AddRenderImage@TradeItemRegisterConfirmWnd@@MAEXABVioHashString@@PAVioUIRenderImage@@@Z ; TradeItemRegisterConfirmWnd::AddRenderImage
PUBLIC	?OnRender@TradeItemRegisterConfirmWnd@@MAEXXZ	; TradeItemRegisterConfirmWnd::OnRender
PUBLIC	?iwm_command@TradeItemRegisterConfirmWnd@@UAEXPAVioWnd@@HK@Z ; TradeItemRegisterConfirmWnd::iwm_command
EXTRN	__imp_??1ioMovingWnd@@UAE@XZ:PROC
EXTRN	??_M@YGXPAXIHP6EX0@Z@Z:PROC			; `eh vector destructor iterator'
EXTRN	??1ioComplexStringPrinter@@QAE@XZ:PROC		; ioComplexStringPrinter::~ioComplexStringPrinter
EXTRN	___CxxFrameHandler3:PROC
EXTRN	@__security_check_cookie@4:PROC
EXTRN	__EH_epilog3:PROC
EXTRN	__EH_prolog3:PROC
EXTRN	??_7type_info@@6B@:QWORD			; type_info::`vftable'
EXTRN	?AddTooltipHelp@ioWnd@@UAEXABVioHashString@@00@Z:PROC ; ioWnd::AddTooltipHelp
EXTRN	?ParseExtraInfo@ioWnd@@UAEXAAVioXMLElement@@@Z:PROC ; ioWnd::ParseExtraInfo
EXTRN	?AddNamedRenderImage@ioWnd@@UAEXABVioHashString@@PAVioUIRenderImage@@@Z:PROC ; ioWnd::AddNamedRenderImage
EXTRN	?RemoveNamedRenderImage@ioWnd@@UAEXABVioHashString@@@Z:PROC ; ioWnd::RemoveNamedRenderImage
EXTRN	?GetNamedRenderImage@ioWnd@@UBEPAVioUIRenderImage@@ABVioHashString@@@Z:PROC ; ioWnd::GetNamedRenderImage
EXTRN	?SetWindowAlpha@ioWnd@@UAEXH@Z:PROC		; ioWnd::SetWindowAlpha
EXTRN	?SetActive@ioWnd@@UAEXXZ:PROC			; ioWnd::SetActive
EXTRN	?SetInActive@ioWnd@@UAEXXZ:PROC			; ioWnd::SetInActive
EXTRN	?ClearElementImageList@ioWnd@@UAEXXZ:PROC	; ioWnd::ClearElementImageList
EXTRN	?SetSize@ioWnd@@UAEXHH@Z:PROC			; ioWnd::SetSize
EXTRN	?SetPositionToDefault@ioMovingWnd@@UAEXHH_N0@Z:PROC ; ioMovingWnd::SetPositionToDefault
EXTRN	?IsNeedProcess@ioWnd@@UBE_NXZ:PROC		; ioWnd::IsNeedProcess
EXTRN	?IsCanMouseReaction@ioWnd@@UBE_NXZ:PROC		; ioWnd::IsCanMouseReaction
EXTRN	?AddChild@ioWnd@@UAEXPAV1@@Z:PROC		; ioWnd::AddChild
EXTRN	?DeleteChild@ioWnd@@UAEXK@Z:PROC		; ioWnd::DeleteChild
EXTRN	?DeleteAllChild@ioWnd@@UAEXXZ:PROC		; ioWnd::DeleteAllChild
EXTRN	?OnRenderShowAndHide@ioWnd@@MAE_NXZ:PROC	; ioWnd::OnRenderShowAndHide
EXTRN	?OnRenderShowAndHideByDefault@ioWnd@@MAE_NK@Z:PROC ; ioWnd::OnRenderShowAndHideByDefault
EXTRN	?OnRenderShowAndHideByTop@ioWnd@@MAE_NK@Z:PROC	; ioWnd::OnRenderShowAndHideByTop
EXTRN	?OnRenderShowAndHideByDown@ioWnd@@MAE_NK@Z:PROC	; ioWnd::OnRenderShowAndHideByDown
EXTRN	?OnRenderAfterChild@ioWnd@@MAEXXZ:PROC		; ioWnd::OnRenderAfterChild
EXTRN	?OnProcess@ioWnd@@MAEXM@Z:PROC			; ioWnd::OnProcess
EXTRN	?OnMouseProcess@ioMovingWnd@@MAEXABVioMouse@@@Z:PROC ; ioMovingWnd::OnMouseProcess
EXTRN	?CheckFrameReSize@ioWnd@@MAEXHHHH@Z:PROC	; ioWnd::CheckFrameReSize
EXTRN	?RenderImageList@ioWnd@@MAEXHHW4UIRenderType@@@Z:PROC ; ioWnd::RenderImageList
EXTRN	?iwm_create@ioWnd@@UAEXXZ:PROC			; ioWnd::iwm_create
EXTRN	?iwm_destroy@ioWnd@@UAEXXZ:PROC			; ioWnd::iwm_destroy
EXTRN	?iwm_lbuttondown@ioMovingWnd@@UAEXABVioMouse@@@Z:PROC ; ioMovingWnd::iwm_lbuttondown
EXTRN	?iwm_lbuttonup@ioMovingWnd@@UAEXABVioMouse@@@Z:PROC ; ioMovingWnd::iwm_lbuttonup
EXTRN	?iwm_lbuttonDBLCLK@ioWnd@@UAEXABVioMouse@@@Z:PROC ; ioWnd::iwm_lbuttonDBLCLK
EXTRN	?iwm_rbuttondown@ioWnd@@UAEXABVioMouse@@@Z:PROC	; ioWnd::iwm_rbuttondown
EXTRN	?iwm_rbuttonup@ioWnd@@UAEXABVioMouse@@@Z:PROC	; ioWnd::iwm_rbuttonup
EXTRN	?iwm_mouseover@ioWnd@@UAEXABVioMouse@@@Z:PROC	; ioWnd::iwm_mouseover
EXTRN	?iwm_mousemove@ioWnd@@UAEXABVioMouse@@@Z:PROC	; ioWnd::iwm_mousemove
EXTRN	?iwm_mouseleave@ioWnd@@UAEXABVioMouse@@@Z:PROC	; ioWnd::iwm_mouseleave
EXTRN	?iwm_vscroll@ioWnd@@UAEXKH@Z:PROC		; ioWnd::iwm_vscroll
EXTRN	?iwm_wheel@ioWnd@@UAEXH@Z:PROC			; ioWnd::iwm_wheel
EXTRN	?iwm_show@ioWnd@@UAEXXZ:PROC			; ioWnd::iwm_show
EXTRN	?iwm_hide@ioWnd@@UAEXXZ:PROC			; ioWnd::iwm_hide
EXTRN	?iwm_esc@ioWnd@@UAE_NXZ:PROC			; ioWnd::iwm_esc
EXTRN	?iwm_spacebar@ioWnd@@UAE_NXZ:PROC		; ioWnd::iwm_spacebar
EXTRN	?iwm_gototop@ioWnd@@UAEXXZ:PROC			; ioWnd::iwm_gototop
EXTRN	?iwm_dragenter@ioWnd@@UAE?AW4IWDropEffect@@PAVioDragItem@@ABVioMouse@@@Z:PROC ; ioWnd::iwm_dragenter
EXTRN	?iwm_dragover@ioWnd@@UAE?AW4IWDropEffect@@PAVioDragItem@@ABVioMouse@@@Z:PROC ; ioWnd::iwm_dragover
EXTRN	?iwm_dragleave@ioWnd@@UAEXXZ:PROC		; ioWnd::iwm_dragleave
EXTRN	?iwm_dropitem@ioWnd@@UAE_NPAVioDragItem@@ABVioMouse@@PAV1@@Z:PROC ; ioWnd::iwm_dropitem
EXTRN	?iwm_dropdone@ioWnd@@UAEXPAVioDragItem@@PAV1@_N@Z:PROC ; ioWnd::iwm_dropdone
EXTRN	?IsEXType@ioWnd@@UBE_NXZ:PROC			; ioWnd::IsEXType
EXTRN	?GetWndType@ioWnd@@UBEKXZ:PROC			; ioWnd::GetWndType
EXTRN	?RenderWnd@ioWnd@@UAEXXZ:PROC			; ioWnd::RenderWnd
EXTRN	?SetIDEX@ioWnd@@UAEXAAK_N@Z:PROC		; ioWnd::SetIDEX
EXTRN	?ParseXML@ioWnd@@UAEXAAVioXMLElement@@@Z:PROC	; ioWnd::ParseXML
EXTRN	?GetHeaderFileName@ioWnd@@UAEPBDXZ:PROC		; ioWnd::GetHeaderFileName
EXTRN	?GetTemplateName@ioWnd@@UAEPBDXZ:PROC		; ioWnd::GetTemplateName
EXTRN	?GetDefClassName@ioWnd@@UBEPBDXZ:PROC		; ioWnd::GetDefClassName
EXTRN	?_Clone@ioWnd@@UAEPAV1@XZ:PROC			; ioWnd::_Clone
EXTRN	?Copy@ioWnd@@UAEXPAV1@@Z:PROC			; ioWnd::Copy
EXTRN	?Save@ioWnd@@UAE_NAAVioXMLElement@@@Z:PROC	; ioWnd::Save
EXTRN	?SetSaveData@ioWnd@@UAEXAAVioXMLElement@@@Z:PROC ; ioWnd::SetSaveData
EXTRN	?SetPosX@ioWnd@@UAEXH@Z:PROC			; ioWnd::SetPosX
EXTRN	?SetPosY@ioWnd@@UAEXH@Z:PROC			; ioWnd::SetPosY
EXTRN	?SetWidth@ioWnd@@UAEXH@Z:PROC			; ioWnd::SetWidth
EXTRN	?SetHeight@ioWnd@@UAEXH@Z:PROC			; ioWnd::SetHeight
EXTRN	?GetNumFixedRenderFrame@ioWnd@@UBEHXZ:PROC	; ioWnd::GetNumFixedRenderFrame
EXTRN	?GetFixedRenderFrameType@ioWnd@@UAEPBDH@Z:PROC	; ioWnd::GetFixedRenderFrameType
EXTRN	?GetRenderFrame@ioWnd@@UAEPAPAVioUIRenderElement@@PBD@Z:PROC ; ioWnd::GetRenderFrame
EXTRN	?GetNumFixedRenderImage@ioWnd@@UBEHXZ:PROC	; ioWnd::GetNumFixedRenderImage
EXTRN	?GetFixedRenderImageType@ioWnd@@UAEPBDH@Z:PROC	; ioWnd::GetFixedRenderImageType
EXTRN	?GetRenderImage@ioWnd@@UAEPAPAVioUIRenderElement@@PBD@Z:PROC ; ioWnd::GetRenderImage
EXTRN	?AddEffect@ioWnd@@UAEXABVioHashString@@PAVioUI3DEffectRender@@@Z:PROC ; ioWnd::AddEffect
EXTRN	?GetEffect@ioWnd@@UAEPAVioUI3DEffectRender@@VioHashString@@@Z:PROC ; ioWnd::GetEffect
EXTRN	??_ETradeItemRegisterConfirmWnd@@UAEPAXI@Z:PROC	; TradeItemRegisterConfirmWnd::`vector deleting destructor'
;	COMDAT ??_R2ioWnd@@8
; File d:\lost saga for developer\youtube\tutorial\source\src\lsclient\gui\tradeitemregisterwnd.cpp
rdata$r	SEGMENT
??_R2ioWnd@@8 DD FLAT:??_R1A@?0A@EA@ioWnd@@8		; ioWnd::`RTTI Base Class Array'
rdata$r	ENDS
;	COMDAT ??_R3ioWnd@@8
rdata$r	SEGMENT
??_R3ioWnd@@8 DD 00H					; ioWnd::`RTTI Class Hierarchy Descriptor'
	DD	00H
	DD	01H
	DD	FLAT:??_R2ioWnd@@8
rdata$r	ENDS
;	COMDAT ??_R0?AVioWnd@@@8
_DATA	SEGMENT
??_R0?AVioWnd@@@8 DD FLAT:??_7type_info@@6B@		; ioWnd `RTTI Type Descriptor'
	DD	00H
	DB	'.?AVioWnd@@', 00H
_DATA	ENDS
;	COMDAT ??_R1A@?0A@EA@ioWnd@@8
rdata$r	SEGMENT
??_R1A@?0A@EA@ioWnd@@8 DD FLAT:??_R0?AVioWnd@@@8	; ioWnd::`RTTI Base Class Descriptor at (0,-1,0,64)'
	DD	00H
	DD	00H
	DD	0ffffffffH
	DD	00H
	DD	040H
	DD	FLAT:??_R3ioWnd@@8
rdata$r	ENDS
;	COMDAT ??_R2ioMovingWnd@@8
rdata$r	SEGMENT
??_R2ioMovingWnd@@8 DD FLAT:??_R1A@?0A@EA@ioMovingWnd@@8 ; ioMovingWnd::`RTTI Base Class Array'
	DD	FLAT:??_R1A@?0A@EA@ioWnd@@8
rdata$r	ENDS
;	COMDAT ??_R3ioMovingWnd@@8
rdata$r	SEGMENT
??_R3ioMovingWnd@@8 DD 00H				; ioMovingWnd::`RTTI Class Hierarchy Descriptor'
	DD	00H
	DD	02H
	DD	FLAT:??_R2ioMovingWnd@@8
rdata$r	ENDS
;	COMDAT ??_R0?AVioMovingWnd@@@8
_DATA	SEGMENT
??_R0?AVioMovingWnd@@@8 DD FLAT:??_7type_info@@6B@	; ioMovingWnd `RTTI Type Descriptor'
	DD	00H
	DB	'.?AVioMovingWnd@@', 00H
_DATA	ENDS
;	COMDAT ??_R1A@?0A@EA@ioMovingWnd@@8
rdata$r	SEGMENT
??_R1A@?0A@EA@ioMovingWnd@@8 DD FLAT:??_R0?AVioMovingWnd@@@8 ; ioMovingWnd::`RTTI Base Class Descriptor at (0,-1,0,64)'
	DD	01H
	DD	00H
	DD	0ffffffffH
	DD	00H
	DD	040H
	DD	FLAT:??_R3ioMovingWnd@@8
rdata$r	ENDS
;	COMDAT ??_R1A@?0A@EA@TradeItemRegisterConfirmWnd@@8
rdata$r	SEGMENT
??_R1A@?0A@EA@TradeItemRegisterConfirmWnd@@8 DD FLAT:??_R0?AVTradeItemRegisterConfirmWnd@@@8 ; TradeItemRegisterConfirmWnd::`RTTI Base Class Descriptor at (0,-1,0,64)'
	DD	02H
	DD	00H
	DD	0ffffffffH
	DD	00H
	DD	040H
	DD	FLAT:??_R3TradeItemRegisterConfirmWnd@@8
rdata$r	ENDS
;	COMDAT ??_R2TradeItemRegisterConfirmWnd@@8
rdata$r	SEGMENT
??_R2TradeItemRegisterConfirmWnd@@8 DD FLAT:??_R1A@?0A@EA@TradeItemRegisterConfirmWnd@@8 ; TradeItemRegisterConfirmWnd::`RTTI Base Class Array'
	DD	FLAT:??_R1A@?0A@EA@ioMovingWnd@@8
	DD	FLAT:??_R1A@?0A@EA@ioWnd@@8
rdata$r	ENDS
;	COMDAT ??_R3TradeItemRegisterConfirmWnd@@8
rdata$r	SEGMENT
??_R3TradeItemRegisterConfirmWnd@@8 DD 00H		; TradeItemRegisterConfirmWnd::`RTTI Class Hierarchy Descriptor'
	DD	00H
	DD	03H
	DD	FLAT:??_R2TradeItemRegisterConfirmWnd@@8
rdata$r	ENDS
;	COMDAT ??_R0?AVTradeItemRegisterConfirmWnd@@@8
_DATA	SEGMENT
??_R0?AVTradeItemRegisterConfirmWnd@@@8 DD FLAT:??_7type_info@@6B@ ; TradeItemRegisterConfirmWnd `RTTI Type Descriptor'
	DD	00H
	DB	'.?AVTradeItemRegisterConfirmWnd@@', 00H
_DATA	ENDS
;	COMDAT ??_R4TradeItemRegisterConfirmWnd@@6B@
rdata$r	SEGMENT
??_R4TradeItemRegisterConfirmWnd@@6B@ DD 00H		; TradeItemRegisterConfirmWnd::`RTTI Complete Object Locator'
	DD	00H
	DD	00H
	DD	FLAT:??_R0?AVTradeItemRegisterConfirmWnd@@@8
	DD	FLAT:??_R3TradeItemRegisterConfirmWnd@@8
rdata$r	ENDS
;	COMDAT ??_7TradeItemRegisterConfirmWnd@@6B@
CONST	SEGMENT
??_7TradeItemRegisterConfirmWnd@@6B@ DD FLAT:??_R4TradeItemRegisterConfirmWnd@@6B@ ; TradeItemRegisterConfirmWnd::`vftable'
	DD	FLAT:?AddRenderFrame@TradeItemRegisterConfirmWnd@@MAEXABVioHashString@@PAVioUIRenderFrame@@@Z
	DD	FLAT:?AddRenderImage@TradeItemRegisterConfirmWnd@@MAEXABVioHashString@@PAVioUIRenderImage@@@Z
	DD	FLAT:?AddTooltipHelp@ioWnd@@UAEXABVioHashString@@00@Z
	DD	FLAT:?ParseExtraInfo@ioWnd@@UAEXAAVioXMLElement@@@Z
	DD	FLAT:?AddNamedRenderImage@ioWnd@@UAEXABVioHashString@@PAVioUIRenderImage@@@Z
	DD	FLAT:?RemoveNamedRenderImage@ioWnd@@UAEXABVioHashString@@@Z
	DD	FLAT:?GetNamedRenderImage@ioWnd@@UBEPAVioUIRenderImage@@ABVioHashString@@@Z
	DD	FLAT:?SetWindowAlpha@ioWnd@@UAEXH@Z
	DD	FLAT:?SetActive@ioWnd@@UAEXXZ
	DD	FLAT:?SetInActive@ioWnd@@UAEXXZ
	DD	FLAT:?ClearElementImageList@ioWnd@@UAEXXZ
	DD	FLAT:?SetSize@ioWnd@@UAEXHH@Z
	DD	FLAT:?SetPositionToDefault@ioMovingWnd@@UAEXHH_N0@Z
	DD	FLAT:?IsNeedProcess@ioWnd@@UBE_NXZ
	DD	FLAT:?IsCanMouseReaction@ioWnd@@UBE_NXZ
	DD	FLAT:?AddChild@ioWnd@@UAEXPAV1@@Z
	DD	FLAT:?DeleteChild@ioWnd@@UAEXK@Z
	DD	FLAT:?DeleteAllChild@ioWnd@@UAEXXZ
	DD	FLAT:?OnRenderShowAndHide@ioWnd@@MAE_NXZ
	DD	FLAT:?OnRenderShowAndHideByDefault@ioWnd@@MAE_NK@Z
	DD	FLAT:?OnRenderShowAndHideByTop@ioWnd@@MAE_NK@Z
	DD	FLAT:?OnRenderShowAndHideByDown@ioWnd@@MAE_NK@Z
	DD	FLAT:?OnRender@TradeItemRegisterConfirmWnd@@MAEXXZ
	DD	FLAT:?OnRenderAfterChild@ioWnd@@MAEXXZ
	DD	FLAT:?OnProcess@ioWnd@@MAEXM@Z
	DD	FLAT:?OnMouseProcess@ioMovingWnd@@MAEXABVioMouse@@@Z
	DD	FLAT:?CheckFrameReSize@ioWnd@@MAEXHHHH@Z
	DD	FLAT:?RenderImageList@ioWnd@@MAEXHHW4UIRenderType@@@Z
	DD	FLAT:?iwm_create@ioWnd@@UAEXXZ
	DD	FLAT:?iwm_destroy@ioWnd@@UAEXXZ
	DD	FLAT:?iwm_lbuttondown@ioMovingWnd@@UAEXABVioMouse@@@Z
	DD	FLAT:?iwm_lbuttonup@ioMovingWnd@@UAEXABVioMouse@@@Z
	DD	FLAT:?iwm_lbuttonDBLCLK@ioWnd@@UAEXABVioMouse@@@Z
	DD	FLAT:?iwm_rbuttondown@ioWnd@@UAEXABVioMouse@@@Z
	DD	FLAT:?iwm_rbuttonup@ioWnd@@UAEXABVioMouse@@@Z
	DD	FLAT:?iwm_command@TradeItemRegisterConfirmWnd@@UAEXPAVioWnd@@HK@Z
	DD	FLAT:?iwm_mouseover@ioWnd@@UAEXABVioMouse@@@Z
	DD	FLAT:?iwm_mousemove@ioWnd@@UAEXABVioMouse@@@Z
	DD	FLAT:?iwm_mouseleave@ioWnd@@UAEXABVioMouse@@@Z
	DD	FLAT:?iwm_vscroll@ioWnd@@UAEXKH@Z
	DD	FLAT:?iwm_wheel@ioWnd@@UAEXH@Z
	DD	FLAT:?iwm_show@ioWnd@@UAEXXZ
	DD	FLAT:?iwm_hide@ioWnd@@UAEXXZ
	DD	FLAT:?iwm_esc@ioWnd@@UAE_NXZ
	DD	FLAT:?iwm_spacebar@ioWnd@@UAE_NXZ
	DD	FLAT:?iwm_gototop@ioWnd@@UAEXXZ
	DD	FLAT:?iwm_dragenter@ioWnd@@UAE?AW4IWDropEffect@@PAVioDragItem@@ABVioMouse@@@Z
	DD	FLAT:?iwm_dragover@ioWnd@@UAE?AW4IWDropEffect@@PAVioDragItem@@ABVioMouse@@@Z
	DD	FLAT:?iwm_dragleave@ioWnd@@UAEXXZ
	DD	FLAT:?iwm_dropitem@ioWnd@@UAE_NPAVioDragItem@@ABVioMouse@@PAV1@@Z
	DD	FLAT:?iwm_dropdone@ioWnd@@UAEXPAVioDragItem@@PAV1@_N@Z
	DD	FLAT:?IsEXType@ioWnd@@UBE_NXZ
	DD	FLAT:?GetWndType@ioWnd@@UBEKXZ
	DD	FLAT:?RenderWnd@ioWnd@@UAEXXZ
	DD	FLAT:?SetIDEX@ioWnd@@UAEXAAK_N@Z
	DD	FLAT:?ParseXML@ioWnd@@UAEXAAVioXMLElement@@@Z
	DD	FLAT:?GetHeaderFileName@ioWnd@@UAEPBDXZ
	DD	FLAT:?GetTemplateName@ioWnd@@UAEPBDXZ
	DD	FLAT:?GetDefClassName@ioWnd@@UBEPBDXZ
	DD	FLAT:?_Clone@ioWnd@@UAEPAV1@XZ
	DD	FLAT:?Copy@ioWnd@@UAEXPAV1@@Z
	DD	FLAT:?Save@ioWnd@@UAE_NAAVioXMLElement@@@Z
	DD	FLAT:?SetSaveData@ioWnd@@UAEXAAVioXMLElement@@@Z
	DD	FLAT:?SetPosX@ioWnd@@UAEXH@Z
	DD	FLAT:?SetPosY@ioWnd@@UAEXH@Z
	DD	FLAT:?SetWidth@ioWnd@@UAEXH@Z
	DD	FLAT:?SetHeight@ioWnd@@UAEXH@Z
	DD	FLAT:?GetNumFixedRenderFrame@ioWnd@@UBEHXZ
	DD	FLAT:?GetFixedRenderFrameType@ioWnd@@UAEPBDH@Z
	DD	FLAT:?GetRenderFrame@ioWnd@@UAEPAPAVioUIRenderElement@@PBD@Z
	DD	FLAT:?GetNumFixedRenderImage@ioWnd@@UBEHXZ
	DD	FLAT:?GetFixedRenderImageType@ioWnd@@UAEPBDH@Z
	DD	FLAT:?GetRenderImage@ioWnd@@UAEPAPAVioUIRenderElement@@PBD@Z
	DD	FLAT:?AddEffect@ioWnd@@UAEXABVioHashString@@PAVioUI3DEffectRender@@@Z
	DD	FLAT:?GetEffect@ioWnd@@UAEPAVioUI3DEffectRender@@VioHashString@@@Z
	DD	FLAT:??_ETradeItemRegisterConfirmWnd@@UAEPAXI@Z
CONST	ENDS
;	COMDAT xdata$x
xdata$x	SEGMENT
__unwindtable$??1TradeItemRegisterConfirmWnd@@UAE@XZ DD 0ffffffffH
	DD	FLAT:__unwindfunclet$??1TradeItemRegisterConfirmWnd@@UAE@XZ$0
	DD	00H
	DD	FLAT:__unwindfunclet$??1TradeItemRegisterConfirmWnd@@UAE@XZ$1
__ehfuncinfo$??1TradeItemRegisterConfirmWnd@@UAE@XZ DD 019930522H
	DD	02H
	DD	FLAT:__unwindtable$??1TradeItemRegisterConfirmWnd@@UAE@XZ
	DD	2 DUP(00H)
	DD	2 DUP(00H)
	DD	00H
	DD	01H
; Function compile flags: /Ogsp
xdata$x	ENDS
;	COMDAT ??1TradeItemRegisterConfirmWnd@@UAE@XZ
_TEXT	SEGMENT
_this$ = -16						; size = 4
__$EHRec$ = -12						; size = 12
??1TradeItemRegisterConfirmWnd@@UAE@XZ PROC		; TradeItemRegisterConfirmWnd::~TradeItemRegisterConfirmWnd, COMDAT
; _this$ = ecx

; 61   : {

  00000	6a 04		 push	 4
  00002	b8 00 00 00 00	 mov	 eax, __ehhandler$??1TradeItemRegisterConfirmWnd@@UAE@XZ
  00007	e8 00 00 00 00	 call	 __EH_prolog3
  0000c	8b f1		 mov	 esi, ecx
  0000e	89 75 f0	 mov	 DWORD PTR _this$[ebp], esi
  00011	c7 06 00 00 00
	00		 mov	 DWORD PTR [esi], OFFSET ??_7TradeItemRegisterConfirmWnd@@6B@

; 62   : 	SAFEDELETE(m_pEditFrm);

  00017	8b 8e 10 02 00
	00		 mov	 ecx, DWORD PTR [esi+528]
  0001d	c7 45 fc 01 00
	00 00		 mov	 DWORD PTR __$EHRec$[ebp+8], 1
  00024	85 c9		 test	 ecx, ecx
  00026	74 0e		 je	 SHORT $LN2@TradeItemR
  00028	8b 01		 mov	 eax, DWORD PTR [ecx]
  0002a	6a 01		 push	 1
  0002c	ff 50 40	 call	 DWORD PTR [eax+64]
  0002f	83 a6 10 02 00
	00 00		 and	 DWORD PTR [esi+528], 0
$LN2@TradeItemR:

; 63   : 	SAFEDELETE(m_pTexFrm);

  00036	8b 8e 14 02 00
	00		 mov	 ecx, DWORD PTR [esi+532]
  0003c	85 c9		 test	 ecx, ecx
  0003e	74 0e		 je	 SHORT $LN1@TradeItemR
  00040	8b 01		 mov	 eax, DWORD PTR [ecx]
  00042	6a 01		 push	 1
  00044	ff 50 40	 call	 DWORD PTR [eax+64]
  00047	83 a6 14 02 00
	00 00		 and	 DWORD PTR [esi+532], 0
$LN1@TradeItemR:

; 64   : }

  0004e	68 00 00 00 00	 push	 OFFSET ??1ioComplexStringPrinter@@QAE@XZ ; ioComplexStringPrinter::~ioComplexStringPrinter
  00053	6a 03		 push	 3
  00055	6a 20		 push	 32			; 00000020H
  00057	8d 86 ac 01 00
	00		 lea	 eax, DWORD PTR [esi+428]
  0005d	50		 push	 eax
  0005e	c6 45 fc 00	 mov	 BYTE PTR __$EHRec$[ebp+8], 0
  00062	e8 00 00 00 00	 call	 ??_M@YGXPAXIHP6EX0@Z@Z
  00067	83 4d fc ff	 or	 DWORD PTR __$EHRec$[ebp+8], -1
  0006b	8b ce		 mov	 ecx, esi
  0006d	ff 15 00 00 00
	00		 call	 DWORD PTR __imp_??1ioMovingWnd@@UAE@XZ
  00073	e8 00 00 00 00	 call	 __EH_epilog3
  00078	c3		 ret	 0
_TEXT	ENDS
;	COMDAT text$x
text$x	SEGMENT
__unwindfunclet$??1TradeItemRegisterConfirmWnd@@UAE@XZ$0:
  00000	8b 4d f0	 mov	 ecx, DWORD PTR _this$[ebp]
  00003	ff 25 00 00 00
	00		 jmp	 DWORD PTR __imp_??1ioMovingWnd@@UAE@XZ
__unwindfunclet$??1TradeItemRegisterConfirmWnd@@UAE@XZ$1:
  00009	68 00 00 00 00	 push	 OFFSET ??1ioComplexStringPrinter@@QAE@XZ ; ioComplexStringPrinter::~ioComplexStringPrinter
  0000e	6a 03		 push	 3
  00010	6a 20		 push	 32			; 00000020H
  00012	8b 45 f0	 mov	 eax, DWORD PTR _this$[ebp]
  00015	05 ac 01 00 00	 add	 eax, 428		; 000001acH
  0001a	50		 push	 eax
  0001b	e8 00 00 00 00	 call	 ??_M@YGXPAXIHP6EX0@Z@Z
  00020	c3		 ret	 0
__ehhandler$??1TradeItemRegisterConfirmWnd@@UAE@XZ:
  00021	8b 54 24 08	 mov	 edx, DWORD PTR [esp+8]
  00025	8d 42 0c	 lea	 eax, DWORD PTR [edx+12]
  00028	8b 4a ec	 mov	 ecx, DWORD PTR [edx-20]
  0002b	33 c8		 xor	 ecx, eax
  0002d	e8 00 00 00 00	 call	 @__security_check_cookie@4
  00032	b8 00 00 00 00	 mov	 eax, OFFSET __ehfuncinfo$??1TradeItemRegisterConfirmWnd@@UAE@XZ
  00037	e9 00 00 00 00	 jmp	 ___CxxFrameHandler3
text$x	ENDS
??1TradeItemRegisterConfirmWnd@@UAE@XZ ENDP		; TradeItemRegisterConfirmWnd::~TradeItemRegisterConfirmWnd
PUBLIC	?ClearDesc@TradeItemRegisterConfirmWnd@@IAEXXZ	; TradeItemRegisterConfirmWnd::ClearDesc
EXTRN	?ClearList@ioComplexStringPrinter@@QAEXXZ:PROC	; ioComplexStringPrinter::ClearList
; Function compile flags: /Ogsp
;	COMDAT ?ClearDesc@TradeItemRegisterConfirmWnd@@IAEXXZ
_TEXT	SEGMENT
?ClearDesc@TradeItemRegisterConfirmWnd@@IAEXXZ PROC	; TradeItemRegisterConfirmWnd::ClearDesc, COMDAT
; _this$ = ecx

; 67   : {

  00000	56		 push	 esi
  00001	57		 push	 edi

; 68   : 	for(int i = 0; i < MAX_DESC; i++)

  00002	6a 03		 push	 3
  00004	8d b1 ac 01 00
	00		 lea	 esi, DWORD PTR [ecx+428]
  0000a	5f		 pop	 edi
$LL3@ClearDesc:

; 69   : 	{
; 70   : 		m_szDescArray[i].ClearList();

  0000b	8b ce		 mov	 ecx, esi
  0000d	e8 00 00 00 00	 call	 ?ClearList@ioComplexStringPrinter@@QAEXXZ ; ioComplexStringPrinter::ClearList
  00012	83 c6 20	 add	 esi, 32			; 00000020H
  00015	4f		 dec	 edi
  00016	75 f3		 jne	 SHORT $LL3@ClearDesc

; 71   : 	}
; 72   : }

  00018	5f		 pop	 edi
  00019	5e		 pop	 esi
  0001a	c3		 ret	 0
?ClearDesc@TradeItemRegisterConfirmWnd@@IAEXXZ ENDP	; TradeItemRegisterConfirmWnd::ClearDesc
_TEXT	ENDS
EXTRN	__imp_?AddRenderImage@ioWnd@@UAEXABVioHashString@@PAVioUIRenderImage@@@Z:PROC
; Function compile flags: /Ogsp
;	COMDAT ?AddRenderImage@TradeItemRegisterConfirmWnd@@MAEXABVioHashString@@PAVioUIRenderImage@@@Z
_TEXT	SEGMENT
_szType$ = 8						; size = 4
_pImage$ = 12						; size = 4
?AddRenderImage@TradeItemRegisterConfirmWnd@@MAEXABVioHashString@@PAVioUIRenderImage@@@Z PROC ; TradeItemRegisterConfirmWnd::AddRenderImage, COMDAT
; _this$ = ecx

; 93   : {

  00000	55		 push	 ebp
  00001	8b ec		 mov	 ebp, esp

; 95   : }

  00003	5d		 pop	 ebp

; 94   : 	ioMovingWnd::AddRenderImage( szType, pImage );	

  00004	ff 25 00 00 00
	00		 jmp	 DWORD PTR __imp_?AddRenderImage@ioWnd@@UAEXABVioHashString@@PAVioUIRenderImage@@@Z
?AddRenderImage@TradeItemRegisterConfirmWnd@@MAEXABVioHashString@@PAVioUIRenderImage@@@Z ENDP ; TradeItemRegisterConfirmWnd::AddRenderImage
_TEXT	ENDS
PUBLIC	??1EXTRAITEMSLOT@@QAE@XZ			; EXTRAITEMSLOT::~EXTRAITEMSLOT
EXTRN	__imp_??1ioHashString@@QAE@XZ:PROC
;	COMDAT xdata$x
xdata$x	SEGMENT
__unwindtable$??1EXTRAITEMSLOT@@QAE@XZ DD 0ffffffffH
	DD	FLAT:__unwindfunclet$??1EXTRAITEMSLOT@@QAE@XZ$0
__ehfuncinfo$??1EXTRAITEMSLOT@@QAE@XZ DD 019930522H
	DD	01H
	DD	FLAT:__unwindtable$??1EXTRAITEMSLOT@@QAE@XZ
	DD	2 DUP(00H)
	DD	2 DUP(00H)
	DD	00H
	DD	01H
; Function compile flags: /Ogsp
xdata$x	ENDS
;	COMDAT ??1EXTRAITEMSLOT@@QAE@XZ
_TEXT	SEGMENT
_this$ = -16						; size = 4
__$EHRec$ = -12						; size = 12
??1EXTRAITEMSLOT@@QAE@XZ PROC				; EXTRAITEMSLOT::~EXTRAITEMSLOT, COMDAT
; _this$ = ecx
  00000	6a 04		 push	 4
  00002	b8 00 00 00 00	 mov	 eax, __ehhandler$??1EXTRAITEMSLOT@@QAE@XZ
  00007	e8 00 00 00 00	 call	 __EH_prolog3
  0000c	8b f9		 mov	 edi, ecx
  0000e	89 7d f0	 mov	 DWORD PTR _this$[ebp], edi
  00011	8b 35 00 00 00
	00		 mov	 esi, DWORD PTR __imp_??1ioHashString@@QAE@XZ
  00017	83 65 fc 00	 and	 DWORD PTR __$EHRec$[ebp+8], 0
  0001b	8d 4f 38	 lea	 ecx, DWORD PTR [edi+56]
  0001e	ff d6		 call	 esi
  00020	83 4d fc ff	 or	 DWORD PTR __$EHRec$[ebp+8], -1
  00024	8d 4f 28	 lea	 ecx, DWORD PTR [edi+40]
  00027	ff d6		 call	 esi
  00029	e8 00 00 00 00	 call	 __EH_epilog3
  0002e	c3		 ret	 0
_TEXT	ENDS
;	COMDAT text$x
text$x	SEGMENT
__unwindfunclet$??1EXTRAITEMSLOT@@QAE@XZ$0:
  00000	8b 4d f0	 mov	 ecx, DWORD PTR _this$[ebp]
  00003	83 c1 28	 add	 ecx, 40			; 00000028H
  00006	ff 25 00 00 00
	00		 jmp	 DWORD PTR __imp_??1ioHashString@@QAE@XZ
__ehhandler$??1EXTRAITEMSLOT@@QAE@XZ:
  0000c	8b 54 24 08	 mov	 edx, DWORD PTR [esp+8]
  00010	8d 42 0c	 lea	 eax, DWORD PTR [edx+12]
  00013	8b 4a ec	 mov	 ecx, DWORD PTR [edx-20]
  00016	33 c8		 xor	 ecx, eax
  00018	e8 00 00 00 00	 call	 @__security_check_cookie@4
  0001d	b8 00 00 00 00	 mov	 eax, OFFSET __ehfuncinfo$??1EXTRAITEMSLOT@@QAE@XZ
  00022	e9 00 00 00 00	 jmp	 ___CxxFrameHandler3
text$x	ENDS
??1EXTRAITEMSLOT@@QAE@XZ ENDP				; EXTRAITEMSLOT::~EXTRAITEMSLOT
PUBLIC	?SetPriceEditFocus@TradeItemRegisterConfirmWnd@@IAEXXZ ; TradeItemRegisterConfirmWnd::SetPriceEditFocus
EXTRN	__imp_?ClearString@ioEdit@@QAEXXZ:PROC
EXTRN	__imp_?FindChildWnd@ioWnd@@QAEPAV1@K@Z:PROC
; Function compile flags: /Ogsp
;	COMDAT ?SetPriceEditFocus@TradeItemRegisterConfirmWnd@@IAEXXZ
_TEXT	SEGMENT
?SetPriceEditFocus@TradeItemRegisterConfirmWnd@@IAEXXZ PROC ; TradeItemRegisterConfirmWnd::SetPriceEditFocus, COMDAT
; _this$ = ecx

; 340  : {

  00000	56		 push	 esi

; 341  : 	ioEdit *pEdit = (ioEdit*)FindChildWnd( ID_PRICE_EDIT );

  00001	6a 05		 push	 5
  00003	ff 15 00 00 00
	00		 call	 DWORD PTR __imp_?FindChildWnd@ioWnd@@QAEPAV1@K@Z
  00009	8b f0		 mov	 esi, eax

; 342  : 	if( pEdit )

  0000b	85 f6		 test	 esi, esi
  0000d	74 13		 je	 SHORT $LN1@SetPriceEd

; 343  : 	{
; 344  : 		pEdit->ClearString();

  0000f	8b ce		 mov	 ecx, esi
  00011	ff 15 00 00 00
	00		 call	 DWORD PTR __imp_?ClearString@ioEdit@@QAEXXZ

; 345  : 		pEdit->SetKeyFocus();

  00017	8b 06		 mov	 eax, DWORD PTR [esi]
  00019	8b ce		 mov	 ecx, esi
  0001b	5e		 pop	 esi
  0001c	ff a0 30 01 00
	00		 jmp	 DWORD PTR [eax+304]
$LN1@SetPriceEd:
  00022	5e		 pop	 esi

; 346  : 	}
; 347  : }

  00023	c3		 ret	 0
?SetPriceEditFocus@TradeItemRegisterConfirmWnd@@IAEXXZ ENDP ; TradeItemRegisterConfirmWnd::SetPriceEditFocus
_TEXT	ENDS
PUBLIC	??_7TradeItemRegisterResultWnd@@6B@		; TradeItemRegisterResultWnd::`vftable'
PUBLIC	??0TradeItemRegisterResultWnd@@QAE@XZ		; TradeItemRegisterResultWnd::TradeItemRegisterResultWnd
PUBLIC	??_R4TradeItemRegisterResultWnd@@6B@		; TradeItemRegisterResultWnd::`RTTI Complete Object Locator'
PUBLIC	??_R0?AVTradeItemRegisterResultWnd@@@8		; TradeItemRegisterResultWnd `RTTI Type Descriptor'
PUBLIC	??_R3TradeItemRegisterResultWnd@@8		; TradeItemRegisterResultWnd::`RTTI Class Hierarchy Descriptor'
PUBLIC	??_R2TradeItemRegisterResultWnd@@8		; TradeItemRegisterResultWnd::`RTTI Base Class Array'
PUBLIC	??_R1A@?0A@EA@TradeItemRegisterResultWnd@@8	; TradeItemRegisterResultWnd::`RTTI Base Class Descriptor at (0,-1,0,64)'
PUBLIC	?AddRenderImage@TradeItemRegisterResultWnd@@MAEXABVioHashString@@PAVioUIRenderImage@@@Z ; TradeItemRegisterResultWnd::AddRenderImage
PUBLIC	?OnRender@TradeItemRegisterResultWnd@@MAEXXZ	; TradeItemRegisterResultWnd::OnRender
PUBLIC	?iwm_command@TradeItemRegisterResultWnd@@UAEXPAVioWnd@@HK@Z ; TradeItemRegisterResultWnd::iwm_command
EXTRN	__imp_??0ioHashString@@QAE@XZ:PROC
EXTRN	__imp_??0ioMovingWnd@@QAE@XZ:PROC
EXTRN	?AddRenderFrame@ioWnd@@UAEXABVioHashString@@PAVioUIRenderFrame@@@Z:PROC ; ioWnd::AddRenderFrame
EXTRN	??_ETradeItemRegisterResultWnd@@UAEPAXI@Z:PROC	; TradeItemRegisterResultWnd::`vector deleting destructor'
;	COMDAT ??_R1A@?0A@EA@TradeItemRegisterResultWnd@@8
rdata$r	SEGMENT
??_R1A@?0A@EA@TradeItemRegisterResultWnd@@8 DD FLAT:??_R0?AVTradeItemRegisterResultWnd@@@8 ; TradeItemRegisterResultWnd::`RTTI Base Class Descriptor at (0,-1,0,64)'
	DD	02H
	DD	00H
	DD	0ffffffffH
	DD	00H
	DD	040H
	DD	FLAT:??_R3TradeItemRegisterResultWnd@@8
rdata$r	ENDS
;	COMDAT ??_R2TradeItemRegisterResultWnd@@8
rdata$r	SEGMENT
??_R2TradeItemRegisterResultWnd@@8 DD FLAT:??_R1A@?0A@EA@TradeItemRegisterResultWnd@@8 ; TradeItemRegisterResultWnd::`RTTI Base Class Array'
	DD	FLAT:??_R1A@?0A@EA@ioMovingWnd@@8
	DD	FLAT:??_R1A@?0A@EA@ioWnd@@8
rdata$r	ENDS
;	COMDAT ??_R3TradeItemRegisterResultWnd@@8
rdata$r	SEGMENT
??_R3TradeItemRegisterResultWnd@@8 DD 00H		; TradeItemRegisterResultWnd::`RTTI Class Hierarchy Descriptor'
	DD	00H
	DD	03H
	DD	FLAT:??_R2TradeItemRegisterResultWnd@@8
rdata$r	ENDS
;	COMDAT ??_R0?AVTradeItemRegisterResultWnd@@@8
_DATA	SEGMENT
??_R0?AVTradeItemRegisterResultWnd@@@8 DD FLAT:??_7type_info@@6B@ ; TradeItemRegisterResultWnd `RTTI Type Descriptor'
	DD	00H
	DB	'.?AVTradeItemRegisterResultWnd@@', 00H
_DATA	ENDS
;	COMDAT ??_R4TradeItemRegisterResultWnd@@6B@
rdata$r	SEGMENT
??_R4TradeItemRegisterResultWnd@@6B@ DD 00H		; TradeItemRegisterResultWnd::`RTTI Complete Object Locator'
	DD	00H
	DD	00H
	DD	FLAT:??_R0?AVTradeItemRegisterResultWnd@@@8
	DD	FLAT:??_R3TradeItemRegisterResultWnd@@8
rdata$r	ENDS
;	COMDAT ??_7TradeItemRegisterResultWnd@@6B@
CONST	SEGMENT
??_7TradeItemRegisterResultWnd@@6B@ DD FLAT:??_R4TradeItemRegisterResultWnd@@6B@ ; TradeItemRegisterResultWnd::`vftable'
	DD	FLAT:?AddRenderFrame@ioWnd@@UAEXABVioHashString@@PAVioUIRenderFrame@@@Z
	DD	FLAT:?AddRenderImage@TradeItemRegisterResultWnd@@MAEXABVioHashString@@PAVioUIRenderImage@@@Z
	DD	FLAT:?AddTooltipHelp@ioWnd@@UAEXABVioHashString@@00@Z
	DD	FLAT:?ParseExtraInfo@ioWnd@@UAEXAAVioXMLElement@@@Z
	DD	FLAT:?AddNamedRenderImage@ioWnd@@UAEXABVioHashString@@PAVioUIRenderImage@@@Z
	DD	FLAT:?RemoveNamedRenderImage@ioWnd@@UAEXABVioHashString@@@Z
	DD	FLAT:?GetNamedRenderImage@ioWnd@@UBEPAVioUIRenderImage@@ABVioHashString@@@Z
	DD	FLAT:?SetWindowAlpha@ioWnd@@UAEXH@Z
	DD	FLAT:?SetActive@ioWnd@@UAEXXZ
	DD	FLAT:?SetInActive@ioWnd@@UAEXXZ
	DD	FLAT:?ClearElementImageList@ioWnd@@UAEXXZ
	DD	FLAT:?SetSize@ioWnd@@UAEXHH@Z
	DD	FLAT:?SetPositionToDefault@ioMovingWnd@@UAEXHH_N0@Z
	DD	FLAT:?IsNeedProcess@ioWnd@@UBE_NXZ
	DD	FLAT:?IsCanMouseReaction@ioWnd@@UBE_NXZ
	DD	FLAT:?AddChild@ioWnd@@UAEXPAV1@@Z
	DD	FLAT:?DeleteChild@ioWnd@@UAEXK@Z
	DD	FLAT:?DeleteAllChild@ioWnd@@UAEXXZ
	DD	FLAT:?OnRenderShowAndHide@ioWnd@@MAE_NXZ
	DD	FLAT:?OnRenderShowAndHideByDefault@ioWnd@@MAE_NK@Z
	DD	FLAT:?OnRenderShowAndHideByTop@ioWnd@@MAE_NK@Z
	DD	FLAT:?OnRenderShowAndHideByDown@ioWnd@@MAE_NK@Z
	DD	FLAT:?OnRender@TradeItemRegisterResultWnd@@MAEXXZ
	DD	FLAT:?OnRenderAfterChild@ioWnd@@MAEXXZ
	DD	FLAT:?OnProcess@ioWnd@@MAEXM@Z
	DD	FLAT:?OnMouseProcess@ioMovingWnd@@MAEXABVioMouse@@@Z
	DD	FLAT:?CheckFrameReSize@ioWnd@@MAEXHHHH@Z
	DD	FLAT:?RenderImageList@ioWnd@@MAEXHHW4UIRenderType@@@Z
	DD	FLAT:?iwm_create@ioWnd@@UAEXXZ
	DD	FLAT:?iwm_destroy@ioWnd@@UAEXXZ
	DD	FLAT:?iwm_lbuttondown@ioMovingWnd@@UAEXABVioMouse@@@Z
	DD	FLAT:?iwm_lbuttonup@ioMovingWnd@@UAEXABVioMouse@@@Z
	DD	FLAT:?iwm_lbuttonDBLCLK@ioWnd@@UAEXABVioMouse@@@Z
	DD	FLAT:?iwm_rbuttondown@ioWnd@@UAEXABVioMouse@@@Z
	DD	FLAT:?iwm_rbuttonup@ioWnd@@UAEXABVioMouse@@@Z
	DD	FLAT:?iwm_command@TradeItemRegisterResultWnd@@UAEXPAVioWnd@@HK@Z
	DD	FLAT:?iwm_mouseover@ioWnd@@UAEXABVioMouse@@@Z
	DD	FLAT:?iwm_mousemove@ioWnd@@UAEXABVioMouse@@@Z
	DD	FLAT:?iwm_mouseleave@ioWnd@@UAEXABVioMouse@@@Z
	DD	FLAT:?iwm_vscroll@ioWnd@@UAEXKH@Z
	DD	FLAT:?iwm_wheel@ioWnd@@UAEXH@Z
	DD	FLAT:?iwm_show@ioWnd@@UAEXXZ
	DD	FLAT:?iwm_hide@ioWnd@@UAEXXZ
	DD	FLAT:?iwm_esc@ioWnd@@UAE_NXZ
	DD	FLAT:?iwm_spacebar@ioWnd@@UAE_NXZ
	DD	FLAT:?iwm_gototop@ioWnd@@UAEXXZ
	DD	FLAT:?iwm_dragenter@ioWnd@@UAE?AW4IWDropEffect@@PAVioDragItem@@ABVioMouse@@@Z
	DD	FLAT:?iwm_dragover@ioWnd@@UAE?AW4IWDropEffect@@PAVioDragItem@@ABVioMouse@@@Z
	DD	FLAT:?iwm_dragleave@ioWnd@@UAEXXZ
	DD	FLAT:?iwm_dropitem@ioWnd@@UAE_NPAVioDragItem@@ABVioMouse@@PAV1@@Z
	DD	FLAT:?iwm_dropdone@ioWnd@@UAEXPAVioDragItem@@PAV1@_N@Z
	DD	FLAT:?IsEXType@ioWnd@@UBE_NXZ
	DD	FLAT:?GetWndType@ioWnd@@UBEKXZ
	DD	FLAT:?RenderWnd@ioWnd@@UAEXXZ
	DD	FLAT:?SetIDEX@ioWnd@@UAEXAAK_N@Z
	DD	FLAT:?ParseXML@ioWnd@@UAEXAAVioXMLElement@@@Z
	DD	FLAT:?GetHeaderFileName@ioWnd@@UAEPBDXZ
	DD	FLAT:?GetTemplateName@ioWnd@@UAEPBDXZ
	DD	FLAT:?GetDefClassName@ioWnd@@UBEPBDXZ
	DD	FLAT:?_Clone@ioWnd@@UAEPAV1@XZ
	DD	FLAT:?Copy@ioWnd@@UAEXPAV1@@Z
	DD	FLAT:?Save@ioWnd@@UAE_NAAVioXMLElement@@@Z
	DD	FLAT:?SetSaveData@ioWnd@@UAEXAAVioXMLElement@@@Z
	DD	FLAT:?SetPosX@ioWnd@@UAEXH@Z
	DD	FLAT:?SetPosY@ioWnd@@UAEXH@Z
	DD	FLAT:?SetWidth@ioWnd@@UAEXH@Z
	DD	FLAT:?SetHeight@ioWnd@@UAEXH@Z
	DD	FLAT:?GetNumFixedRenderFrame@ioWnd@@UBEHXZ
	DD	FLAT:?GetFixedRenderFrameType@ioWnd@@UAEPBDH@Z
	DD	FLAT:?GetRenderFrame@ioWnd@@UAEPAPAVioUIRenderElement@@PBD@Z
	DD	FLAT:?GetNumFixedRenderImage@ioWnd@@UBEHXZ
	DD	FLAT:?GetFixedRenderImageType@ioWnd@@UAEPBDH@Z
	DD	FLAT:?GetRenderImage@ioWnd@@UAEPAPAVioUIRenderElement@@PBD@Z
	DD	FLAT:?AddEffect@ioWnd@@UAEXABVioHashString@@PAVioUI3DEffectRender@@@Z
	DD	FLAT:?GetEffect@ioWnd@@UAEPAVioUI3DEffectRender@@VioHashString@@@Z
	DD	FLAT:??_ETradeItemRegisterResultWnd@@UAEPAXI@Z
CONST	ENDS
;	COMDAT xdata$x
xdata$x	SEGMENT
__unwindtable$??0TradeItemRegisterResultWnd@@QAE@XZ DD 0ffffffffH
	DD	FLAT:__unwindfunclet$??0TradeItemRegisterResultWnd@@QAE@XZ$0
__ehfuncinfo$??0TradeItemRegisterResultWnd@@QAE@XZ DD 019930522H
	DD	01H
	DD	FLAT:__unwindtable$??0TradeItemRegisterResultWnd@@QAE@XZ
	DD	2 DUP(00H)
	DD	2 DUP(00H)
	DD	00H
	DD	01H
; Function compile flags: /Ogsp
xdata$x	ENDS
;	COMDAT ??0TradeItemRegisterResultWnd@@QAE@XZ
_TEXT	SEGMENT
_this$ = -16						; size = 4
__$EHRec$ = -12						; size = 12
??0TradeItemRegisterResultWnd@@QAE@XZ PROC		; TradeItemRegisterResultWnd::TradeItemRegisterResultWnd, COMDAT
; _this$ = ecx

; 352  : {

  00000	6a 04		 push	 4
  00002	b8 00 00 00 00	 mov	 eax, __ehhandler$??0TradeItemRegisterResultWnd@@QAE@XZ
  00007	e8 00 00 00 00	 call	 __EH_prolog3
  0000c	8b f1		 mov	 esi, ecx
  0000e	89 75 f0	 mov	 DWORD PTR _this$[ebp], esi
  00011	ff 15 00 00 00
	00		 call	 DWORD PTR __imp_??0ioMovingWnd@@QAE@XZ
  00017	83 65 fc 00	 and	 DWORD PTR __$EHRec$[ebp+8], 0
  0001b	8d 8e 90 01 00
	00		 lea	 ecx, DWORD PTR [esi+400]
  00021	c7 06 00 00 00
	00		 mov	 DWORD PTR [esi], OFFSET ??_7TradeItemRegisterResultWnd@@6B@
  00027	ff 15 00 00 00
	00		 call	 DWORD PTR __imp_??0ioHashString@@QAE@XZ

; 353  : 
; 354  : }

  0002d	8b c6		 mov	 eax, esi
  0002f	e8 00 00 00 00	 call	 __EH_epilog3
  00034	c3		 ret	 0
_TEXT	ENDS
;	COMDAT text$x
text$x	SEGMENT
__unwindfunclet$??0TradeItemRegisterResultWnd@@QAE@XZ$0:
  00000	8b 4d f0	 mov	 ecx, DWORD PTR _this$[ebp]
  00003	ff 25 00 00 00
	00		 jmp	 DWORD PTR __imp_??1ioMovingWnd@@UAE@XZ
__ehhandler$??0TradeItemRegisterResultWnd@@QAE@XZ:
  00009	8b 54 24 08	 mov	 edx, DWORD PTR [esp+8]
  0000d	8d 42 0c	 lea	 eax, DWORD PTR [edx+12]
  00010	8b 4a ec	 mov	 ecx, DWORD PTR [edx-20]
  00013	33 c8		 xor	 ecx, eax
  00015	e8 00 00 00 00	 call	 @__security_check_cookie@4
  0001a	b8 00 00 00 00	 mov	 eax, OFFSET __ehfuncinfo$??0TradeItemRegisterResultWnd@@QAE@XZ
  0001f	e9 00 00 00 00	 jmp	 ___CxxFrameHandler3
text$x	ENDS
??0TradeItemRegisterResultWnd@@QAE@XZ ENDP		; TradeItemRegisterResultWnd::TradeItemRegisterResultWnd
PUBLIC	??1TradeItemRegisterResultWnd@@UAE@XZ		; TradeItemRegisterResultWnd::~TradeItemRegisterResultWnd
;	COMDAT xdata$x
xdata$x	SEGMENT
__unwindtable$??1TradeItemRegisterResultWnd@@UAE@XZ DD 0ffffffffH
	DD	FLAT:__unwindfunclet$??1TradeItemRegisterResultWnd@@UAE@XZ$0
__ehfuncinfo$??1TradeItemRegisterResultWnd@@UAE@XZ DD 019930522H
	DD	01H
	DD	FLAT:__unwindtable$??1TradeItemRegisterResultWnd@@UAE@XZ
	DD	2 DUP(00H)
	DD	2 DUP(00H)
	DD	00H
	DD	01H
; Function compile flags: /Ogsp
xdata$x	ENDS
;	COMDAT ??1TradeItemRegisterResultWnd@@UAE@XZ
_TEXT	SEGMENT
_this$ = -16						; size = 4
__$EHRec$ = -12						; size = 12
??1TradeItemRegisterResultWnd@@UAE@XZ PROC		; TradeItemRegisterResultWnd::~TradeItemRegisterResultWnd, COMDAT
; _this$ = ecx

; 357  : {

  00000	6a 04		 push	 4
  00002	b8 00 00 00 00	 mov	 eax, __ehhandler$??1TradeItemRegisterResultWnd@@UAE@XZ
  00007	e8 00 00 00 00	 call	 __EH_prolog3
  0000c	8b f1		 mov	 esi, ecx
  0000e	89 75 f0	 mov	 DWORD PTR _this$[ebp], esi
  00011	c7 06 00 00 00
	00		 mov	 DWORD PTR [esi], OFFSET ??_7TradeItemRegisterResultWnd@@6B@
  00017	83 65 fc 00	 and	 DWORD PTR __$EHRec$[ebp+8], 0

; 358  : }

  0001b	8d 8e 90 01 00
	00		 lea	 ecx, DWORD PTR [esi+400]
  00021	ff 15 00 00 00
	00		 call	 DWORD PTR __imp_??1ioHashString@@QAE@XZ
  00027	83 4d fc ff	 or	 DWORD PTR __$EHRec$[ebp+8], -1
  0002b	8b ce		 mov	 ecx, esi
  0002d	ff 15 00 00 00
	00		 call	 DWORD PTR __imp_??1ioMovingWnd@@UAE@XZ
  00033	e8 00 00 00 00	 call	 __EH_epilog3
  00038	c3		 ret	 0
_TEXT	ENDS
;	COMDAT text$x
text$x	SEGMENT
__unwindfunclet$??1TradeItemRegisterResultWnd@@UAE@XZ$0:
  00000	8b 4d f0	 mov	 ecx, DWORD PTR _this$[ebp]
  00003	ff 25 00 00 00
	00		 jmp	 DWORD PTR __imp_??1ioMovingWnd@@UAE@XZ
__ehhandler$??1TradeItemRegisterResultWnd@@UAE@XZ:
  00009	8b 54 24 08	 mov	 edx, DWORD PTR [esp+8]
  0000d	8d 42 0c	 lea	 eax, DWORD PTR [edx+12]
  00010	8b 4a ec	 mov	 ecx, DWORD PTR [edx-20]
  00013	33 c8		 xor	 ecx, eax
  00015	e8 00 00 00 00	 call	 @__security_check_cookie@4
  0001a	b8 00 00 00 00	 mov	 eax, OFFSET __ehfuncinfo$??1TradeItemRegisterResultWnd@@UAE@XZ
  0001f	e9 00 00 00 00	 jmp	 ___CxxFrameHandler3
text$x	ENDS
??1TradeItemRegisterResultWnd@@UAE@XZ ENDP		; TradeItemRegisterResultWnd::~TradeItemRegisterResultWnd
; Function compile flags: /Ogsp
;	COMDAT ?AddRenderImage@TradeItemRegisterResultWnd@@MAEXABVioHashString@@PAVioUIRenderImage@@@Z
_TEXT	SEGMENT
_szType$ = 8						; size = 4
_pImage$ = 12						; size = 4
?AddRenderImage@TradeItemRegisterResultWnd@@MAEXABVioHashString@@PAVioUIRenderImage@@@Z PROC ; TradeItemRegisterResultWnd::AddRenderImage, COMDAT
; _this$ = ecx

; 361  : {

  00000	55		 push	 ebp
  00001	8b ec		 mov	 ebp, esp

; 363  : }

  00003	5d		 pop	 ebp

; 362  : 	ioMovingWnd::AddRenderImage( szType, pImage );

  00004	ff 25 00 00 00
	00		 jmp	 DWORD PTR __imp_?AddRenderImage@ioWnd@@UAEXABVioHashString@@PAVioUIRenderImage@@@Z
?AddRenderImage@TradeItemRegisterResultWnd@@MAEXABVioHashString@@PAVioUIRenderImage@@@Z ENDP ; TradeItemRegisterResultWnd::AddRenderImage
_TEXT	ENDS
EXTRN	__imp_?HideWnd@ioWnd@@QAEXXZ:PROC
EXTRN	__imp_?GetID@ioWnd@@QBEKXZ:PROC
; Function compile flags: /Ogsp
;	COMDAT ?iwm_command@TradeItemRegisterResultWnd@@UAEXPAVioWnd@@HK@Z
_TEXT	SEGMENT
_pWnd$ = 8						; size = 4
_cmd$ = 12						; size = 4
_param$ = 16						; size = 4
?iwm_command@TradeItemRegisterResultWnd@@UAEXPAVioWnd@@HK@Z PROC ; TradeItemRegisterResultWnd::iwm_command, COMDAT
; _this$ = ecx

; 396  : {

  00000	55		 push	 ebp
  00001	8b ec		 mov	 ebp, esp
  00003	56		 push	 esi
  00004	8b f1		 mov	 esi, ecx

; 397  : 	DWORD dwID = pWnd->GetID();

  00006	8b 4d 08	 mov	 ecx, DWORD PTR _pWnd$[ebp]
  00009	ff 15 00 00 00
	00		 call	 DWORD PTR __imp_?GetID@ioWnd@@QBEKXZ

; 398  : 	switch( dwID )

  0000f	83 c0 fe	 add	 eax, -2			; fffffffeH
  00012	83 f8 01	 cmp	 eax, 1
  00015	77 0e		 ja	 SHORT $LN1@iwm_comman

; 399  : 	{
; 400  : 	case ID_OK_BTN:
; 401  : 	case ID_EXIT_BTN:
; 402  : 		if( cmd == IOBN_BTNUP )

  00017	83 7d 0c 11	 cmp	 DWORD PTR _cmd$[ebp], 17 ; 00000011H
  0001b	75 08		 jne	 SHORT $LN1@iwm_comman

; 403  : 		{
; 404  : 			HideWnd();

  0001d	8b ce		 mov	 ecx, esi
  0001f	ff 15 00 00 00
	00		 call	 DWORD PTR __imp_?HideWnd@ioWnd@@QAEXXZ
$LN1@iwm_comman:
  00025	5e		 pop	 esi

; 405  : 		}
; 406  : 		break;
; 407  : 	}
; 408  : }

  00026	5d		 pop	 ebp
  00027	c2 0c 00	 ret	 12			; 0000000cH
?iwm_command@TradeItemRegisterResultWnd@@UAEXPAVioWnd@@HK@Z ENDP ; TradeItemRegisterResultWnd::iwm_command
_TEXT	ENDS
PUBLIC	__real@3f266666
PUBLIC	__real@3f59999a
PUBLIC	??_C@_0CF@MGIOOEKE@TradeItemRegisterResultWnd?3?3OnRe@ ; `string'
PUBLIC	??_C@_00CNPNBAHC@?$AA@				; `string'
PUBLIC	_this$GSCopy$
EXTRN	?AddTextPiece@ioComplexStringPrinter@@QAAXMPBDZZ:PROC ; ioComplexStringPrinter::AddTextPiece
EXTRN	?ConvertNumToStrComma@Help@@YAXHPADH@Z:PROC	; Help::ConvertNumToStrComma
EXTRN	?PrintFullText@ioComplexStringPrinter@@QAEXMMW4TextAlignType@@E@Z:PROC ; ioComplexStringPrinter::PrintFullText
EXTRN	?AddTextPiece@ioComplexStringPrinter@@QAEXMPBD0@Z:PROC ; ioComplexStringPrinter::AddTextPiece
EXTRN	__imp_?GetString@ioStringManager@@QAEPADPBD0HW4FileNamePrefix@1@@Z:PROC
EXTRN	__imp_?GetSingleton@ioStringManager@@SAAAV1@XZ:PROC
EXTRN	__imp_?c_str@ioHashString@@QBEPBDXZ:PROC
EXTRN	?SetTextColor@ioComplexStringPrinter@@QAEXK@Z:PROC ; ioComplexStringPrinter::SetTextColor
EXTRN	?SetBkColor@ioComplexStringPrinter@@QAEXHHH@Z:PROC ; ioComplexStringPrinter::SetBkColor
EXTRN	?SetTextStyle@ioComplexStringPrinter@@QAEXW4TextStyle@@@Z:PROC ; ioComplexStringPrinter::SetTextStyle
EXTRN	??0ioComplexStringPrinter@@QAE@XZ:PROC		; ioComplexStringPrinter::ioComplexStringPrinter
EXTRN	__imp_?OnRender@ioWnd@@MAEXXZ:PROC
EXTRN	__imp_?GetDerivedPosY@ioWnd@@QBEHXZ:PROC
EXTRN	__imp_?GetDerivedPosX@ioWnd@@QBEHXZ:PROC
EXTRN	__fltused:DWORD
EXTRN	__EH_epilog3_GS:PROC
EXTRN	__EH_prolog3_GS:PROC
EXTRN	_memset:PROC
;	COMDAT __real@3f266666
CONST	SEGMENT
__real@3f266666 DD 03f266666r			; 0.65
CONST	ENDS
;	COMDAT __real@3f59999a
CONST	SEGMENT
__real@3f59999a DD 03f59999ar			; 0.85
CONST	ENDS
;	COMDAT ??_C@_0CF@MGIOOEKE@TradeItemRegisterResultWnd?3?3OnRe@
CONST	SEGMENT
??_C@_0CF@MGIOOEKE@TradeItemRegisterResultWnd?3?3OnRe@ DB 'TradeItemRegis'
	DB	'terResultWnd::OnRender', 00H		; `string'
CONST	ENDS
;	COMDAT ??_C@_00CNPNBAHC@?$AA@
CONST	SEGMENT
??_C@_00CNPNBAHC@?$AA@ DB 00H				; `string'
CONST	ENDS
;	COMDAT xdata$x
xdata$x	SEGMENT
__unwindtable$?OnRender@TradeItemRegisterResultWnd@@MAEXXZ DD 0ffffffffH
	DD	FLAT:__unwindfunclet$?OnRender@TradeItemRegisterResultWnd@@MAEXXZ$0
__ehfuncinfo$?OnRender@TradeItemRegisterResultWnd@@MAEXXZ DD 019930522H
	DD	01H
	DD	FLAT:__unwindtable$?OnRender@TradeItemRegisterResultWnd@@MAEXXZ
	DD	2 DUP(00H)
	DD	2 DUP(00H)
	DD	00H
	DD	01H
; Function compile flags: /Ogsp
xdata$x	ENDS
;	COMDAT ?OnRender@TradeItemRegisterResultWnd@@MAEXXZ
_TEXT	SEGMENT
_this$GSCopy$ = -320					; size = 4
_kPrinter$ = -316					; size = 32
_iYPos$ = -284						; size = 4
tv292 = -280						; size = 4
_iXPos$ = -280						; size = 4
_szPeso$ = -276						; size = 260
__$EHRec$ = -12						; size = 12
?OnRender@TradeItemRegisterResultWnd@@MAEXXZ PROC	; TradeItemRegisterResultWnd::OnRender, COMDAT
; _this$ = ecx

; 411  : {

  00000	68 34 01 00 00	 push	 308			; 00000134H
  00005	b8 00 00 00 00	 mov	 eax, __ehhandler$?OnRender@TradeItemRegisterResultWnd@@MAEXXZ
  0000a	e8 00 00 00 00	 call	 __EH_prolog3_GS
  0000f	8b f1		 mov	 esi, ecx

; 412  : 	int iXPos = GetDerivedPosX();

  00011	89 b5 c0 fe ff
	ff		 mov	 DWORD PTR _this$GSCopy$[ebp], esi
  00017	ff 15 00 00 00
	00		 call	 DWORD PTR __imp_?GetDerivedPosX@ioWnd@@QBEHXZ

; 413  : 	int iYPos = GetDerivedPosY();

  0001d	8b ce		 mov	 ecx, esi
  0001f	89 85 e8 fe ff
	ff		 mov	 DWORD PTR _iXPos$[ebp], eax
  00025	ff 15 00 00 00
	00		 call	 DWORD PTR __imp_?GetDerivedPosY@ioWnd@@QBEHXZ

; 414  : 
; 415  : 	ioMovingWnd::OnRender();

  0002b	8b ce		 mov	 ecx, esi
  0002d	89 85 e4 fe ff
	ff		 mov	 DWORD PTR _iYPos$[ebp], eax
  00033	ff 15 00 00 00
	00		 call	 DWORD PTR __imp_?OnRender@ioWnd@@MAEXXZ

; 416  : 
; 417  : 	enum
; 418  : 	{
; 419  : 		NAME_X		= 103,
; 420  : 		NAME_Y		= 149,
; 421  : 
; 422  : 		TEXT_X		= 103,
; 423  : 		TEXT_Y		= 199,
; 424  : 	};
; 425  : 
; 426  : 	ioComplexStringPrinter kPrinter;

  00039	8d 8d c4 fe ff
	ff		 lea	 ecx, DWORD PTR _kPrinter$[ebp]
  0003f	e8 00 00 00 00	 call	 ??0ioComplexStringPrinter@@QAE@XZ ; ioComplexStringPrinter::ioComplexStringPrinter
  00044	33 db		 xor	 ebx, ebx

; 427  : 	kPrinter.SetTextStyle( TS_NORMAL );

  00046	53		 push	 ebx
  00047	8d 8d c4 fe ff
	ff		 lea	 ecx, DWORD PTR _kPrinter$[ebp]
  0004d	89 5d fc	 mov	 DWORD PTR __$EHRec$[ebp+8], ebx
  00050	e8 00 00 00 00	 call	 ?SetTextStyle@ioComplexStringPrinter@@QAEXW4TextStyle@@@Z ; ioComplexStringPrinter::SetTextStyle

; 428  : 	kPrinter.SetBkColor( 0, 0, 0 );

  00055	53		 push	 ebx
  00056	53		 push	 ebx
  00057	53		 push	 ebx
  00058	8d 8d c4 fe ff
	ff		 lea	 ecx, DWORD PTR _kPrinter$[ebp]
  0005e	e8 00 00 00 00	 call	 ?SetBkColor@ioComplexStringPrinter@@QAEXHHH@Z ; ioComplexStringPrinter::SetBkColor

; 429  : 	kPrinter.SetTextColor( TCT_DEFAULT_DARKGRAY );

  00063	68 3a 3a 3a ff	 push	 -12961222		; ff3a3a3aH
  00068	8d 8d c4 fe ff
	ff		 lea	 ecx, DWORD PTR _kPrinter$[ebp]
  0006e	e8 00 00 00 00	 call	 ?SetTextColor@ioComplexStringPrinter@@QAEXK@Z ; ioComplexStringPrinter::SetTextColor

; 430  : 	kPrinter.AddTextPiece( FONT_SIZE_17, STR(1), m_szName.c_str() );

  00073	8d 8e 90 01 00
	00		 lea	 ecx, DWORD PTR [esi+400]
  00079	ff 15 00 00 00
	00		 call	 DWORD PTR __imp_?c_str@ioHashString@@QBEPBDXZ
  0007f	8b 35 00 00 00
	00		 mov	 esi, DWORD PTR __imp_?GetSingleton@ioStringManager@@SAAAV1@XZ
  00085	50		 push	 eax
  00086	53		 push	 ebx
  00087	6a 01		 push	 1
  00089	68 00 00 00 00	 push	 OFFSET ??_C@_00CNPNBAHC@?$AA@
  0008e	68 00 00 00 00	 push	 OFFSET ??_C@_0CF@MGIOOEKE@TradeItemRegisterResultWnd?3?3OnRe@
  00093	ff d6		 call	 esi
  00095	8b 3d 00 00 00
	00		 mov	 edi, DWORD PTR __imp_?GetString@ioStringManager@@QAEPADPBD0HW4FileNamePrefix@1@@Z
  0009b	8b c8		 mov	 ecx, eax
  0009d	ff d7		 call	 edi
  0009f	f3 0f 10 05 00
	00 00 00	 movss	 xmm0, DWORD PTR __real@3f59999a
  000a7	50		 push	 eax
  000a8	51		 push	 ecx
  000a9	8d 8d c4 fe ff
	ff		 lea	 ecx, DWORD PTR _kPrinter$[ebp]
  000af	f3 0f 11 04 24	 movss	 DWORD PTR [esp], xmm0
  000b4	e8 00 00 00 00	 call	 ?AddTextPiece@ioComplexStringPrinter@@QAEXMPBD0@Z ; ioComplexStringPrinter::AddTextPiece

; 431  : 	kPrinter.PrintFullText( iXPos+NAME_X, iYPos+NAME_Y, TAT_CENTER );

  000b9	8b 85 e8 fe ff
	ff		 mov	 eax, DWORD PTR _iXPos$[ebp]
  000bf	83 c0 67	 add	 eax, 103		; 00000067H
  000c2	68 ff 00 00 00	 push	 255			; 000000ffH
  000c7	0f 57 c0	 xorps	 xmm0, xmm0
  000ca	f3 0f 2a c0	 cvtsi2ss xmm0, eax
  000ce	8b 85 e4 fe ff
	ff		 mov	 eax, DWORD PTR _iYPos$[ebp]
  000d4	6a 01		 push	 1
  000d6	51		 push	 ecx
  000d7	51		 push	 ecx
  000d8	05 95 00 00 00	 add	 eax, 149		; 00000095H
  000dd	0f 57 c9	 xorps	 xmm1, xmm1
  000e0	f3 0f 2a c8	 cvtsi2ss xmm1, eax
  000e4	f3 0f 11 4c 24
	04		 movss	 DWORD PTR [esp+4], xmm1
  000ea	8d 8d c4 fe ff
	ff		 lea	 ecx, DWORD PTR _kPrinter$[ebp]
  000f0	f3 0f 11 85 e8
	fe ff ff	 movss	 DWORD PTR tv292[ebp], xmm0
  000f8	f3 0f 11 04 24	 movss	 DWORD PTR [esp], xmm0
  000fd	e8 00 00 00 00	 call	 ?PrintFullText@ioComplexStringPrinter@@QAEXMMW4TextAlignType@@E@Z ; ioComplexStringPrinter::PrintFullText

; 432  : 	kPrinter.ClearList();

  00102	8d 8d c4 fe ff
	ff		 lea	 ecx, DWORD PTR _kPrinter$[ebp]
  00108	e8 00 00 00 00	 call	 ?ClearList@ioComplexStringPrinter@@QAEXXZ ; ioComplexStringPrinter::ClearList

; 433  : 
; 434  : 	char szPeso[MAX_PATH]="";

  0010d	68 03 01 00 00	 push	 259			; 00000103H
  00112	8d 85 ed fe ff
	ff		 lea	 eax, DWORD PTR _szPeso$[ebp+1]
  00118	53		 push	 ebx
  00119	50		 push	 eax
  0011a	88 9d ec fe ff
	ff		 mov	 BYTE PTR _szPeso$[ebp], bl
  00120	e8 00 00 00 00	 call	 _memset

; 435  : 	Help::ConvertNumToStrComma( m_iPrice, szPeso, sizeof( szPeso ) );

  00125	68 04 01 00 00	 push	 260			; 00000104H
  0012a	8d 85 ec fe ff
	ff		 lea	 eax, DWORD PTR _szPeso$[ebp]
  00130	50		 push	 eax
  00131	8b 85 c0 fe ff
	ff		 mov	 eax, DWORD PTR _this$GSCopy$[ebp]
  00137	ff b0 a0 01 00
	00		 push	 DWORD PTR [eax+416]
  0013d	e8 00 00 00 00	 call	 ?ConvertNumToStrComma@Help@@YAXHPADH@Z ; Help::ConvertNumToStrComma
  00142	83 c4 18	 add	 esp, 24			; 00000018H

; 436  : 
; 437  : 	kPrinter.SetTextStyle( TS_NORMAL );

  00145	53		 push	 ebx
  00146	8d 8d c4 fe ff
	ff		 lea	 ecx, DWORD PTR _kPrinter$[ebp]
  0014c	e8 00 00 00 00	 call	 ?SetTextStyle@ioComplexStringPrinter@@QAEXW4TextStyle@@@Z ; ioComplexStringPrinter::SetTextStyle

; 438  : 	kPrinter.SetBkColor( 0, 0, 0 );

  00151	53		 push	 ebx
  00152	53		 push	 ebx
  00153	53		 push	 ebx
  00154	8d 8d c4 fe ff
	ff		 lea	 ecx, DWORD PTR _kPrinter$[ebp]
  0015a	e8 00 00 00 00	 call	 ?SetBkColor@ioComplexStringPrinter@@QAEXHHH@Z ; ioComplexStringPrinter::SetBkColor

; 439  : 	kPrinter.SetTextColor( TCT_DEFAULT_BLUE );

  0015f	68 b2 46 16 ff	 push	 -15317326		; ff1646b2H
  00164	8d 8d c4 fe ff
	ff		 lea	 ecx, DWORD PTR _kPrinter$[ebp]
  0016a	e8 00 00 00 00	 call	 ?SetTextColor@ioComplexStringPrinter@@QAEXK@Z ; ioComplexStringPrinter::SetTextColor

; 440  : 	kPrinter.AddTextPiece( FONT_SIZE_17, STR(2), szPeso );

  0016f	8d 85 ec fe ff
	ff		 lea	 eax, DWORD PTR _szPeso$[ebp]
  00175	50		 push	 eax
  00176	53		 push	 ebx
  00177	6a 02		 push	 2
  00179	68 00 00 00 00	 push	 OFFSET ??_C@_00CNPNBAHC@?$AA@
  0017e	68 00 00 00 00	 push	 OFFSET ??_C@_0CF@MGIOOEKE@TradeItemRegisterResultWnd?3?3OnRe@
  00183	ff d6		 call	 esi
  00185	8b c8		 mov	 ecx, eax
  00187	ff d7		 call	 edi
  00189	f3 0f 10 05 00
	00 00 00	 movss	 xmm0, DWORD PTR __real@3f59999a
  00191	50		 push	 eax
  00192	51		 push	 ecx
  00193	8d 8d c4 fe ff
	ff		 lea	 ecx, DWORD PTR _kPrinter$[ebp]
  00199	f3 0f 11 04 24	 movss	 DWORD PTR [esp], xmm0
  0019e	e8 00 00 00 00	 call	 ?AddTextPiece@ioComplexStringPrinter@@QAEXMPBD0@Z ; ioComplexStringPrinter::AddTextPiece

; 441  : 	kPrinter.PrintFullText( iXPos+NAME_X, iYPos+NAME_Y+21, TAT_CENTER );

  001a3	8b 85 e4 fe ff
	ff		 mov	 eax, DWORD PTR _iYPos$[ebp]
  001a9	68 ff 00 00 00	 push	 255			; 000000ffH
  001ae	6a 01		 push	 1
  001b0	51		 push	 ecx
  001b1	51		 push	 ecx
  001b2	05 aa 00 00 00	 add	 eax, 170		; 000000aaH
  001b7	0f 57 c0	 xorps	 xmm0, xmm0
  001ba	f3 0f 2a c0	 cvtsi2ss xmm0, eax
  001be	f3 0f 11 44 24
	04		 movss	 DWORD PTR [esp+4], xmm0
  001c4	f3 0f 10 85 e8
	fe ff ff	 movss	 xmm0, DWORD PTR tv292[ebp]
  001cc	8d 8d c4 fe ff
	ff		 lea	 ecx, DWORD PTR _kPrinter$[ebp]
  001d2	f3 0f 11 04 24	 movss	 DWORD PTR [esp], xmm0
  001d7	e8 00 00 00 00	 call	 ?PrintFullText@ioComplexStringPrinter@@QAEXMMW4TextAlignType@@E@Z ; ioComplexStringPrinter::PrintFullText

; 442  : 	kPrinter.ClearList();

  001dc	8d 8d c4 fe ff
	ff		 lea	 ecx, DWORD PTR _kPrinter$[ebp]
  001e2	e8 00 00 00 00	 call	 ?ClearList@ioComplexStringPrinter@@QAEXXZ ; ioComplexStringPrinter::ClearList

; 443  : 
; 444  : 	kPrinter.SetTextStyle( TS_NORMAL );

  001e7	53		 push	 ebx
  001e8	8d 8d c4 fe ff
	ff		 lea	 ecx, DWORD PTR _kPrinter$[ebp]
  001ee	e8 00 00 00 00	 call	 ?SetTextStyle@ioComplexStringPrinter@@QAEXW4TextStyle@@@Z ; ioComplexStringPrinter::SetTextStyle

; 445  : 	kPrinter.SetBkColor( 0, 0, 0 );

  001f3	53		 push	 ebx
  001f4	53		 push	 ebx
  001f5	53		 push	 ebx
  001f6	8d 8d c4 fe ff
	ff		 lea	 ecx, DWORD PTR _kPrinter$[ebp]
  001fc	e8 00 00 00 00	 call	 ?SetBkColor@ioComplexStringPrinter@@QAEXHHH@Z ; ioComplexStringPrinter::SetBkColor

; 446  : 	kPrinter.SetTextColor( TCT_DEFAULT_DARKGRAY );

  00201	68 3a 3a 3a ff	 push	 -12961222		; ff3a3a3aH
  00206	8d 8d c4 fe ff
	ff		 lea	 ecx, DWORD PTR _kPrinter$[ebp]
  0020c	e8 00 00 00 00	 call	 ?SetTextColor@ioComplexStringPrinter@@QAEXK@Z ; ioComplexStringPrinter::SetTextColor

; 447  : 	kPrinter.AddTextPiece( FONT_SIZE_13, STR(3) );

  00211	53		 push	 ebx
  00212	6a 03		 push	 3
  00214	68 00 00 00 00	 push	 OFFSET ??_C@_00CNPNBAHC@?$AA@
  00219	68 00 00 00 00	 push	 OFFSET ??_C@_0CF@MGIOOEKE@TradeItemRegisterResultWnd?3?3OnRe@
  0021e	ff d6		 call	 esi
  00220	8b c8		 mov	 ecx, eax
  00222	ff d7		 call	 edi
  00224	f3 0f 10 05 00
	00 00 00	 movss	 xmm0, DWORD PTR __real@3f266666
  0022c	50		 push	 eax
  0022d	51		 push	 ecx
  0022e	8d 85 c4 fe ff
	ff		 lea	 eax, DWORD PTR _kPrinter$[ebp]
  00234	f3 0f 11 04 24	 movss	 DWORD PTR [esp], xmm0
  00239	50		 push	 eax
  0023a	e8 00 00 00 00	 call	 ?AddTextPiece@ioComplexStringPrinter@@QAAXMPBDZZ ; ioComplexStringPrinter::AddTextPiece

; 448  : 	kPrinter.PrintFullText( iXPos+TEXT_X, iYPos+TEXT_Y, TAT_CENTER );

  0023f	8b 85 e4 fe ff
	ff		 mov	 eax, DWORD PTR _iYPos$[ebp]
  00245	83 c4 0c	 add	 esp, 12			; 0000000cH
  00248	68 ff 00 00 00	 push	 255			; 000000ffH
  0024d	6a 01		 push	 1
  0024f	51		 push	 ecx
  00250	51		 push	 ecx
  00251	05 c7 00 00 00	 add	 eax, 199		; 000000c7H
  00256	0f 57 c0	 xorps	 xmm0, xmm0
  00259	f3 0f 2a c0	 cvtsi2ss xmm0, eax
  0025d	f3 0f 11 44 24
	04		 movss	 DWORD PTR [esp+4], xmm0
  00263	f3 0f 10 85 e8
	fe ff ff	 movss	 xmm0, DWORD PTR tv292[ebp]
  0026b	8d 8d c4 fe ff
	ff		 lea	 ecx, DWORD PTR _kPrinter$[ebp]
  00271	f3 0f 11 04 24	 movss	 DWORD PTR [esp], xmm0
  00276	e8 00 00 00 00	 call	 ?PrintFullText@ioComplexStringPrinter@@QAEXMMW4TextAlignType@@E@Z ; ioComplexStringPrinter::PrintFullText

; 449  : 	kPrinter.ClearList();

  0027b	8d 8d c4 fe ff
	ff		 lea	 ecx, DWORD PTR _kPrinter$[ebp]
  00281	e8 00 00 00 00	 call	 ?ClearList@ioComplexStringPrinter@@QAEXXZ ; ioComplexStringPrinter::ClearList

; 450  : 
; 451  : 	kPrinter.SetTextStyle( TS_NORMAL );

  00286	53		 push	 ebx
  00287	8d 8d c4 fe ff
	ff		 lea	 ecx, DWORD PTR _kPrinter$[ebp]
  0028d	e8 00 00 00 00	 call	 ?SetTextStyle@ioComplexStringPrinter@@QAEXW4TextStyle@@@Z ; ioComplexStringPrinter::SetTextStyle

; 452  : 	kPrinter.SetBkColor( 0, 0, 0 );

  00292	53		 push	 ebx
  00293	53		 push	 ebx
  00294	53		 push	 ebx
  00295	8d 8d c4 fe ff
	ff		 lea	 ecx, DWORD PTR _kPrinter$[ebp]
  0029b	e8 00 00 00 00	 call	 ?SetBkColor@ioComplexStringPrinter@@QAEXHHH@Z ; ioComplexStringPrinter::SetBkColor

; 453  : 	kPrinter.SetTextColor( TCT_DEFAULT_DARKGRAY );

  002a0	68 3a 3a 3a ff	 push	 -12961222		; ff3a3a3aH
  002a5	8d 8d c4 fe ff
	ff		 lea	 ecx, DWORD PTR _kPrinter$[ebp]
  002ab	e8 00 00 00 00	 call	 ?SetTextColor@ioComplexStringPrinter@@QAEXK@Z ; ioComplexStringPrinter::SetTextColor

; 454  : 	kPrinter.AddTextPiece( FONT_SIZE_13, STR(4) );

  002b0	53		 push	 ebx
  002b1	6a 04		 push	 4
  002b3	68 00 00 00 00	 push	 OFFSET ??_C@_00CNPNBAHC@?$AA@
  002b8	68 00 00 00 00	 push	 OFFSET ??_C@_0CF@MGIOOEKE@TradeItemRegisterResultWnd?3?3OnRe@
  002bd	ff d6		 call	 esi
  002bf	8b c8		 mov	 ecx, eax
  002c1	ff d7		 call	 edi
  002c3	f3 0f 10 05 00
	00 00 00	 movss	 xmm0, DWORD PTR __real@3f266666
  002cb	50		 push	 eax
  002cc	51		 push	 ecx
  002cd	8d 85 c4 fe ff
	ff		 lea	 eax, DWORD PTR _kPrinter$[ebp]
  002d3	f3 0f 11 04 24	 movss	 DWORD PTR [esp], xmm0
  002d8	50		 push	 eax
  002d9	e8 00 00 00 00	 call	 ?AddTextPiece@ioComplexStringPrinter@@QAAXMPBDZZ ; ioComplexStringPrinter::AddTextPiece

; 455  : 	kPrinter.PrintFullText( iXPos+TEXT_X, iYPos+TEXT_Y+20, TAT_CENTER );

  002de	8b 85 e4 fe ff
	ff		 mov	 eax, DWORD PTR _iYPos$[ebp]
  002e4	83 c4 0c	 add	 esp, 12			; 0000000cH
  002e7	68 ff 00 00 00	 push	 255			; 000000ffH
  002ec	6a 01		 push	 1
  002ee	51		 push	 ecx
  002ef	51		 push	 ecx
  002f0	05 db 00 00 00	 add	 eax, 219		; 000000dbH
  002f5	0f 57 c0	 xorps	 xmm0, xmm0
  002f8	f3 0f 2a c0	 cvtsi2ss xmm0, eax
  002fc	f3 0f 11 44 24
	04		 movss	 DWORD PTR [esp+4], xmm0
  00302	f3 0f 10 85 e8
	fe ff ff	 movss	 xmm0, DWORD PTR tv292[ebp]
  0030a	8d 8d c4 fe ff
	ff		 lea	 ecx, DWORD PTR _kPrinter$[ebp]
  00310	f3 0f 11 04 24	 movss	 DWORD PTR [esp], xmm0
  00315	e8 00 00 00 00	 call	 ?PrintFullText@ioComplexStringPrinter@@QAEXMMW4TextAlignType@@E@Z ; ioComplexStringPrinter::PrintFullText

; 456  : 	kPrinter.ClearList();

  0031a	8d 8d c4 fe ff
	ff		 lea	 ecx, DWORD PTR _kPrinter$[ebp]
  00320	e8 00 00 00 00	 call	 ?ClearList@ioComplexStringPrinter@@QAEXXZ ; ioComplexStringPrinter::ClearList

; 457  : 
; 458  : 	kPrinter.SetTextStyle( TS_NORMAL );

  00325	53		 push	 ebx
  00326	8d 8d c4 fe ff
	ff		 lea	 ecx, DWORD PTR _kPrinter$[ebp]
  0032c	e8 00 00 00 00	 call	 ?SetTextStyle@ioComplexStringPrinter@@QAEXW4TextStyle@@@Z ; ioComplexStringPrinter::SetTextStyle

; 459  : 	kPrinter.SetBkColor( 0, 0, 0 );

  00331	53		 push	 ebx
  00332	53		 push	 ebx
  00333	53		 push	 ebx
  00334	8d 8d c4 fe ff
	ff		 lea	 ecx, DWORD PTR _kPrinter$[ebp]
  0033a	e8 00 00 00 00	 call	 ?SetBkColor@ioComplexStringPrinter@@QAEXHHH@Z ; ioComplexStringPrinter::SetBkColor

; 460  : 	kPrinter.SetTextColor( TCT_DEFAULT_DARKGRAY );

  0033f	68 3a 3a 3a ff	 push	 -12961222		; ff3a3a3aH
  00344	8d 8d c4 fe ff
	ff		 lea	 ecx, DWORD PTR _kPrinter$[ebp]
  0034a	e8 00 00 00 00	 call	 ?SetTextColor@ioComplexStringPrinter@@QAEXK@Z ; ioComplexStringPrinter::SetTextColor

; 461  : 	kPrinter.AddTextPiece( FONT_SIZE_13, STR(5) );

  0034f	53		 push	 ebx
  00350	6a 05		 push	 5
  00352	68 00 00 00 00	 push	 OFFSET ??_C@_00CNPNBAHC@?$AA@
  00357	68 00 00 00 00	 push	 OFFSET ??_C@_0CF@MGIOOEKE@TradeItemRegisterResultWnd?3?3OnRe@
  0035c	ff d6		 call	 esi
  0035e	8b c8		 mov	 ecx, eax
  00360	ff d7		 call	 edi
  00362	f3 0f 10 05 00
	00 00 00	 movss	 xmm0, DWORD PTR __real@3f266666
  0036a	50		 push	 eax
  0036b	51		 push	 ecx
  0036c	8d 85 c4 fe ff
	ff		 lea	 eax, DWORD PTR _kPrinter$[ebp]
  00372	f3 0f 11 04 24	 movss	 DWORD PTR [esp], xmm0
  00377	50		 push	 eax
  00378	e8 00 00 00 00	 call	 ?AddTextPiece@ioComplexStringPrinter@@QAAXMPBDZZ ; ioComplexStringPrinter::AddTextPiece

; 462  : 	kPrinter.PrintFullText( iXPos+TEXT_X, iYPos+TEXT_Y+40, TAT_CENTER );

  0037d	8b 85 e4 fe ff
	ff		 mov	 eax, DWORD PTR _iYPos$[ebp]
  00383	83 c4 0c	 add	 esp, 12			; 0000000cH
  00386	68 ff 00 00 00	 push	 255			; 000000ffH
  0038b	6a 01		 push	 1
  0038d	51		 push	 ecx
  0038e	51		 push	 ecx
  0038f	05 ef 00 00 00	 add	 eax, 239		; 000000efH
  00394	0f 57 c0	 xorps	 xmm0, xmm0
  00397	f3 0f 2a c0	 cvtsi2ss xmm0, eax
  0039b	f3 0f 11 44 24
	04		 movss	 DWORD PTR [esp+4], xmm0
  003a1	f3 0f 10 85 e8
	fe ff ff	 movss	 xmm0, DWORD PTR tv292[ebp]
  003a9	8d 8d c4 fe ff
	ff		 lea	 ecx, DWORD PTR _kPrinter$[ebp]
  003af	f3 0f 11 04 24	 movss	 DWORD PTR [esp], xmm0
  003b4	e8 00 00 00 00	 call	 ?PrintFullText@ioComplexStringPrinter@@QAEXMMW4TextAlignType@@E@Z ; ioComplexStringPrinter::PrintFullText

; 463  : 	kPrinter.ClearList();

  003b9	8d 8d c4 fe ff
	ff		 lea	 ecx, DWORD PTR _kPrinter$[ebp]
  003bf	e8 00 00 00 00	 call	 ?ClearList@ioComplexStringPrinter@@QAEXXZ ; ioComplexStringPrinter::ClearList

; 464  : }

  003c4	83 4d fc ff	 or	 DWORD PTR __$EHRec$[ebp+8], -1
  003c8	8d 8d c4 fe ff
	ff		 lea	 ecx, DWORD PTR _kPrinter$[ebp]
  003ce	e8 00 00 00 00	 call	 ??1ioComplexStringPrinter@@QAE@XZ ; ioComplexStringPrinter::~ioComplexStringPrinter
  003d3	e8 00 00 00 00	 call	 __EH_epilog3_GS
  003d8	c3		 ret	 0
_TEXT	ENDS
;	COMDAT text$x
text$x	SEGMENT
__unwindfunclet$?OnRender@TradeItemRegisterResultWnd@@MAEXXZ$0:
  00000	8d 8d c4 fe ff
	ff		 lea	 ecx, DWORD PTR _kPrinter$[ebp]
  00006	e9 00 00 00 00	 jmp	 ??1ioComplexStringPrinter@@QAE@XZ ; ioComplexStringPrinter::~ioComplexStringPrinter
__ehhandler$?OnRender@TradeItemRegisterResultWnd@@MAEXXZ:
  0000b	8b 54 24 08	 mov	 edx, DWORD PTR [esp+8]
  0000f	8d 42 0c	 lea	 eax, DWORD PTR [edx+12]
  00012	8b 8a bc fe ff
	ff		 mov	 ecx, DWORD PTR [edx-324]
  00018	33 c8		 xor	 ecx, eax
  0001a	e8 00 00 00 00	 call	 @__security_check_cookie@4
  0001f	8b 4a fc	 mov	 ecx, DWORD PTR [edx-4]
  00022	33 c8		 xor	 ecx, eax
  00024	e8 00 00 00 00	 call	 @__security_check_cookie@4
  00029	b8 00 00 00 00	 mov	 eax, OFFSET __ehfuncinfo$?OnRender@TradeItemRegisterResultWnd@@MAEXXZ
  0002e	e9 00 00 00 00	 jmp	 ___CxxFrameHandler3
text$x	ENDS
?OnRender@TradeItemRegisterResultWnd@@MAEXXZ ENDP	; TradeItemRegisterResultWnd::OnRender
PUBLIC	??_7bad_alloc@std@@6B@				; std::bad_alloc::`vftable'
PUBLIC	??0bad_alloc@std@@QAE@PBD@Z			; std::bad_alloc::bad_alloc
PUBLIC	??_R4bad_alloc@std@@6B@				; std::bad_alloc::`RTTI Complete Object Locator'
PUBLIC	??_R0?AVbad_alloc@std@@@8			; std::bad_alloc `RTTI Type Descriptor'
PUBLIC	??_R3bad_alloc@std@@8				; std::bad_alloc::`RTTI Class Hierarchy Descriptor'
PUBLIC	??_R2bad_alloc@std@@8				; std::bad_alloc::`RTTI Base Class Array'
PUBLIC	??_R1A@?0A@EA@bad_alloc@std@@8			; std::bad_alloc::`RTTI Base Class Descriptor at (0,-1,0,64)'
PUBLIC	??_R1A@?0A@EA@exception@std@@8			; std::exception::`RTTI Base Class Descriptor at (0,-1,0,64)'
PUBLIC	??_R0?AVexception@std@@@8			; std::exception `RTTI Type Descriptor'
PUBLIC	??_R3exception@std@@8				; std::exception::`RTTI Class Hierarchy Descriptor'
PUBLIC	??_R2exception@std@@8				; std::exception::`RTTI Base Class Array'
EXTRN	__imp_??0exception@std@@QAE@ABQBD@Z:PROC
EXTRN	??_Ebad_alloc@std@@UAEPAXI@Z:PROC		; std::bad_alloc::`vector deleting destructor'
EXTRN	?what@exception@std@@UBEPBDXZ:PROC		; std::exception::what
;	COMDAT ??_R2exception@std@@8
; File c:\program files (x86)\microsoft visual studio 10.0\vc\include\exception
rdata$r	SEGMENT
??_R2exception@std@@8 DD FLAT:??_R1A@?0A@EA@exception@std@@8 ; std::exception::`RTTI Base Class Array'
rdata$r	ENDS
;	COMDAT ??_R3exception@std@@8
rdata$r	SEGMENT
??_R3exception@std@@8 DD 00H				; std::exception::`RTTI Class Hierarchy Descriptor'
	DD	00H
	DD	01H
	DD	FLAT:??_R2exception@std@@8
rdata$r	ENDS
;	COMDAT ??_R0?AVexception@std@@@8
_DATA	SEGMENT
??_R0?AVexception@std@@@8 DD FLAT:??_7type_info@@6B@	; std::exception `RTTI Type Descriptor'
	DD	00H
	DB	'.?AVexception@std@@', 00H
_DATA	ENDS
;	COMDAT ??_R1A@?0A@EA@exception@std@@8
rdata$r	SEGMENT
??_R1A@?0A@EA@exception@std@@8 DD FLAT:??_R0?AVexception@std@@@8 ; std::exception::`RTTI Base Class Descriptor at (0,-1,0,64)'
	DD	00H
	DD	00H
	DD	0ffffffffH
	DD	00H
	DD	040H
	DD	FLAT:??_R3exception@std@@8
rdata$r	ENDS
;	COMDAT ??_R1A@?0A@EA@bad_alloc@std@@8
rdata$r	SEGMENT
??_R1A@?0A@EA@bad_alloc@std@@8 DD FLAT:??_R0?AVbad_alloc@std@@@8 ; std::bad_alloc::`RTTI Base Class Descriptor at (0,-1,0,64)'
	DD	01H
	DD	00H
	DD	0ffffffffH
	DD	00H
	DD	040H
	DD	FLAT:??_R3bad_alloc@std@@8
rdata$r	ENDS
;	COMDAT ??_R2bad_alloc@std@@8
rdata$r	SEGMENT
??_R2bad_alloc@std@@8 DD FLAT:??_R1A@?0A@EA@bad_alloc@std@@8 ; std::bad_alloc::`RTTI Base Class Array'
	DD	FLAT:??_R1A@?0A@EA@exception@std@@8
rdata$r	ENDS
;	COMDAT ??_R3bad_alloc@std@@8
rdata$r	SEGMENT
??_R3bad_alloc@std@@8 DD 00H				; std::bad_alloc::`RTTI Class Hierarchy Descriptor'
	DD	00H
	DD	02H
	DD	FLAT:??_R2bad_alloc@std@@8
rdata$r	ENDS
;	COMDAT ??_R0?AVbad_alloc@std@@@8
_DATA	SEGMENT
??_R0?AVbad_alloc@std@@@8 DD FLAT:??_7type_info@@6B@	; std::bad_alloc `RTTI Type Descriptor'
	DD	00H
	DB	'.?AVbad_alloc@std@@', 00H
_DATA	ENDS
;	COMDAT ??_R4bad_alloc@std@@6B@
rdata$r	SEGMENT
??_R4bad_alloc@std@@6B@ DD 00H				; std::bad_alloc::`RTTI Complete Object Locator'
	DD	00H
	DD	00H
	DD	FLAT:??_R0?AVbad_alloc@std@@@8
	DD	FLAT:??_R3bad_alloc@std@@8
rdata$r	ENDS
;	COMDAT ??_7bad_alloc@std@@6B@
CONST	SEGMENT
??_7bad_alloc@std@@6B@ DD FLAT:??_R4bad_alloc@std@@6B@	; std::bad_alloc::`vftable'
	DD	FLAT:??_Ebad_alloc@std@@UAEPAXI@Z
	DD	FLAT:?what@exception@std@@UBEPBDXZ
; Function compile flags: /Ogsp
CONST	ENDS
;	COMDAT ??0bad_alloc@std@@QAE@PBD@Z
_TEXT	SEGMENT
__Message$ = 8						; size = 4
??0bad_alloc@std@@QAE@PBD@Z PROC			; std::bad_alloc::bad_alloc, COMDAT
; _this$ = ecx

; 345  : 		{	// construct from message string

  00000	55		 push	 ebp
  00001	8b ec		 mov	 ebp, esp
  00003	56		 push	 esi
  00004	8d 45 08	 lea	 eax, DWORD PTR __Message$[ebp]
  00007	50		 push	 eax
  00008	8b f1		 mov	 esi, ecx
  0000a	ff 15 00 00 00
	00		 call	 DWORD PTR __imp_??0exception@std@@QAE@ABQBD@Z
  00010	c7 06 00 00 00
	00		 mov	 DWORD PTR [esi], OFFSET ??_7bad_alloc@std@@6B@

; 346  : 		}

  00016	8b c6		 mov	 eax, esi
  00018	5e		 pop	 esi
  00019	5d		 pop	 ebp
  0001a	c2 04 00	 ret	 4
??0bad_alloc@std@@QAE@PBD@Z ENDP			; std::bad_alloc::bad_alloc
_TEXT	ENDS
PUBLIC	??1bad_alloc@std@@UAE@XZ			; std::bad_alloc::~bad_alloc
EXTRN	__imp_??1exception@std@@UAE@XZ:PROC
; Function compile flags: /Ogsp
;	COMDAT ??1bad_alloc@std@@UAE@XZ
_TEXT	SEGMENT
??1bad_alloc@std@@UAE@XZ PROC				; std::bad_alloc::~bad_alloc, COMDAT
; _this$ = ecx

; 354  : 		{	// destroy the object

  00000	c7 01 00 00 00
	00		 mov	 DWORD PTR [ecx], OFFSET ??_7bad_alloc@std@@6B@

; 355  : 		}

  00006	ff 25 00 00 00
	00		 jmp	 DWORD PTR __imp_??1exception@std@@UAE@XZ
??1bad_alloc@std@@UAE@XZ ENDP				; std::bad_alloc::~bad_alloc
_TEXT	ENDS
EXTRN	??3@YAXPAX@Z:PROC				; operator delete
; Function compile flags: /Ogsp
;	COMDAT ??_Gbad_alloc@std@@UAEPAXI@Z
_TEXT	SEGMENT
___flags$ = 8						; size = 4
??_Gbad_alloc@std@@UAEPAXI@Z PROC			; std::bad_alloc::`scalar deleting destructor', COMDAT
; _this$ = ecx
  00000	55		 push	 ebp
  00001	8b ec		 mov	 ebp, esp
  00003	56		 push	 esi
  00004	8b f1		 mov	 esi, ecx
  00006	c7 06 00 00 00
	00		 mov	 DWORD PTR [esi], OFFSET ??_7bad_alloc@std@@6B@
  0000c	ff 15 00 00 00
	00		 call	 DWORD PTR __imp_??1exception@std@@UAE@XZ
  00012	f6 45 08 01	 test	 BYTE PTR ___flags$[ebp], 1
  00016	74 07		 je	 SHORT $LN1@scalar
  00018	56		 push	 esi
  00019	e8 00 00 00 00	 call	 ??3@YAXPAX@Z		; operator delete
  0001e	59		 pop	 ecx
$LN1@scalar:
  0001f	8b c6		 mov	 eax, esi
  00021	5e		 pop	 esi
  00022	5d		 pop	 ebp
  00023	c2 04 00	 ret	 4
??_Gbad_alloc@std@@UAEPAXI@Z ENDP			; std::bad_alloc::`scalar deleting destructor'
_TEXT	ENDS
PUBLIC	?iwm_create@TradeItemRegisterWnd@@UAEXXZ	; TradeItemRegisterWnd::iwm_create
; Function compile flags: /Ogsp
; File d:\lost saga for developer\youtube\tutorial\source\src\lsclient\gui\tradeitemregisterwnd.cpp
;	COMDAT ?iwm_create@TradeItemRegisterWnd@@UAEXXZ
_TEXT	SEGMENT
?iwm_create@TradeItemRegisterWnd@@UAEXXZ PROC		; TradeItemRegisterWnd::iwm_create, COMDAT
; _this$ = ecx

; 481  : }

  00000	c3		 ret	 0
?iwm_create@TradeItemRegisterWnd@@UAEXXZ ENDP		; TradeItemRegisterWnd::iwm_create
_TEXT	ENDS
PUBLIC	??2@YAPAXIPAX@Z					; operator new
; Function compile flags: /Ogsp
; File c:\program files (x86)\microsoft visual studio 10.0\vc\include\new
;	COMDAT ??2@YAPAXIPAX@Z
_TEXT	SEGMENT
___formal$ = 8						; size = 4
__Where$ = 12						; size = 4
??2@YAPAXIPAX@Z PROC					; operator new, COMDAT

; 56   : 	{	// construct array with placement at _Where

  00000	55		 push	 ebp
  00001	8b ec		 mov	 ebp, esp

; 57   : 	return (_Where);

  00003	8b 45 0c	 mov	 eax, DWORD PTR __Where$[ebp]

; 58   : 	}

  00006	5d		 pop	 ebp
  00007	c3		 ret	 0
??2@YAPAXIPAX@Z ENDP					; operator new
_TEXT	ENDS
PUBLIC	?iwm_hide@TradeItemRegisterWnd@@UAEXXZ		; TradeItemRegisterWnd::iwm_hide
EXTRN	__imp_?HideChildWnd@ioWnd@@QAEXK_N@Z:PROC
; Function compile flags: /Ogsp
; File d:\lost saga for developer\youtube\tutorial\source\src\lsclient\gui\tradeitemregisterwnd.cpp
;	COMDAT ?iwm_hide@TradeItemRegisterWnd@@UAEXXZ
_TEXT	SEGMENT
?iwm_hide@TradeItemRegisterWnd@@UAEXXZ PROC		; TradeItemRegisterWnd::iwm_hide, COMDAT
; _this$ = ecx

; 506  : {

  00000	56		 push	 esi
  00001	57		 push	 edi
  00002	8b f9		 mov	 edi, ecx

; 507  : 	for (int i = 0; i < MAX_ITEM_INFO_WND_BTN ; i++)

  00004	33 f6		 xor	 esi, esi
$LL3@iwm_hide:

; 508  : 		HideChildWnd( ID_ITEM_INFO_WND_1_BTN + i );

  00006	6a 00		 push	 0
  00008	8d 86 c9 00 00
	00		 lea	 eax, DWORD PTR [esi+201]
  0000e	50		 push	 eax
  0000f	8b cf		 mov	 ecx, edi
  00011	ff 15 00 00 00
	00		 call	 DWORD PTR __imp_?HideChildWnd@ioWnd@@QAEXK_N@Z
  00017	46		 inc	 esi
  00018	83 fe 08	 cmp	 esi, 8
  0001b	7c e9		 jl	 SHORT $LL3@iwm_hide

; 509  : }

  0001d	5f		 pop	 edi
  0001e	5e		 pop	 esi
  0001f	c3		 ret	 0
?iwm_hide@TradeItemRegisterWnd@@UAEXXZ ENDP		; TradeItemRegisterWnd::iwm_hide
_TEXT	ENDS
PUBLIC	??3@YAXPAX0@Z					; operator delete
; Function compile flags: /Ogsp
; File c:\program files (x86)\microsoft visual studio 10.0\vc\include\new
;	COMDAT ??3@YAXPAX0@Z
_TEXT	SEGMENT
___formal$ = 8						; size = 4
___formal$ = 12						; size = 4
??3@YAXPAX0@Z PROC					; operator delete, COMDAT

; 62   : 	}

  00000	c3		 ret	 0
??3@YAXPAX0@Z ENDP					; operator delete
_TEXT	ENDS
PUBLIC	??1tagInventoryItemInfo@@QAE@XZ			; tagInventoryItemInfo::~tagInventoryItemInfo
; Function compile flags: /Ogsp
;	COMDAT ??1tagInventoryItemInfo@@QAE@XZ
_TEXT	SEGMENT
??1tagInventoryItemInfo@@QAE@XZ PROC			; tagInventoryItemInfo::~tagInventoryItemInfo, COMDAT
; _this$ = ecx
  00000	83 c1 24	 add	 ecx, 36			; 00000024H
  00003	ff 25 00 00 00
	00		 jmp	 DWORD PTR __imp_??1ioHashString@@QAE@XZ
??1tagInventoryItemInfo@@QAE@XZ ENDP			; tagInventoryItemInfo::~tagInventoryItemInfo
_TEXT	ENDS
PUBLIC	??0tagInventoryItemInfo@@QAE@ABU0@@Z		; tagInventoryItemInfo::tagInventoryItemInfo
EXTRN	__imp_??0ioHashString@@QAE@ABV0@@Z:PROC
; Function compile flags: /Ogsp
;	COMDAT ??0tagInventoryItemInfo@@QAE@ABU0@@Z
_TEXT	SEGMENT
___that$ = 8						; size = 4
??0tagInventoryItemInfo@@QAE@ABU0@@Z PROC		; tagInventoryItemInfo::tagInventoryItemInfo, COMDAT
; _this$ = ecx
  00000	55		 push	 ebp
  00001	8b ec		 mov	 ebp, esp
  00003	56		 push	 esi
  00004	8b f1		 mov	 esi, ecx
  00006	57		 push	 edi
  00007	8b 7d 08	 mov	 edi, DWORD PTR ___that$[ebp]
  0000a	8b 07		 mov	 eax, DWORD PTR [edi]
  0000c	89 06		 mov	 DWORD PTR [esi], eax
  0000e	8b 47 04	 mov	 eax, DWORD PTR [edi+4]
  00011	89 46 04	 mov	 DWORD PTR [esi+4], eax
  00014	8b 47 08	 mov	 eax, DWORD PTR [edi+8]
  00017	89 46 08	 mov	 DWORD PTR [esi+8], eax
  0001a	8b 47 0c	 mov	 eax, DWORD PTR [edi+12]
  0001d	89 46 0c	 mov	 DWORD PTR [esi+12], eax
  00020	8b 47 10	 mov	 eax, DWORD PTR [edi+16]
  00023	89 46 10	 mov	 DWORD PTR [esi+16], eax
  00026	8a 47 14	 mov	 al, BYTE PTR [edi+20]
  00029	88 46 14	 mov	 BYTE PTR [esi+20], al
  0002c	8b 47 18	 mov	 eax, DWORD PTR [edi+24]
  0002f	89 46 18	 mov	 DWORD PTR [esi+24], eax
  00032	8b 47 1c	 mov	 eax, DWORD PTR [edi+28]
  00035	89 46 1c	 mov	 DWORD PTR [esi+28], eax
  00038	8b 47 20	 mov	 eax, DWORD PTR [edi+32]
  0003b	89 46 20	 mov	 DWORD PTR [esi+32], eax
  0003e	8d 47 24	 lea	 eax, DWORD PTR [edi+36]
  00041	50		 push	 eax
  00042	8d 4e 24	 lea	 ecx, DWORD PTR [esi+36]
  00045	ff 15 00 00 00
	00		 call	 DWORD PTR __imp_??0ioHashString@@QAE@ABV0@@Z
  0004b	8b 47 34	 mov	 eax, DWORD PTR [edi+52]
  0004e	89 46 34	 mov	 DWORD PTR [esi+52], eax
  00051	8b 47 38	 mov	 eax, DWORD PTR [edi+56]
  00054	89 46 38	 mov	 DWORD PTR [esi+56], eax
  00057	8a 47 3c	 mov	 al, BYTE PTR [edi+60]
  0005a	88 46 3c	 mov	 BYTE PTR [esi+60], al
  0005d	8b 47 40	 mov	 eax, DWORD PTR [edi+64]
  00060	89 46 40	 mov	 DWORD PTR [esi+64], eax
  00063	8b 47 44	 mov	 eax, DWORD PTR [edi+68]
  00066	89 46 44	 mov	 DWORD PTR [esi+68], eax
  00069	5f		 pop	 edi
  0006a	8b c6		 mov	 eax, esi
  0006c	5e		 pop	 esi
  0006d	5d		 pop	 ebp
  0006e	c2 04 00	 ret	 4
??0tagInventoryItemInfo@@QAE@ABU0@@Z ENDP		; tagInventoryItemInfo::tagInventoryItemInfo
_TEXT	ENDS
PUBLIC	?GetTabType@TradeItemRegisterWnd@@IAEHK@Z	; TradeItemRegisterWnd::GetTabType
; Function compile flags: /Ogsp
; File d:\lost saga for developer\youtube\tutorial\source\src\lsclient\gui\tradeitemregisterwnd.cpp
;	COMDAT ?GetTabType@TradeItemRegisterWnd@@IAEHK@Z
_TEXT	SEGMENT
_dwTabID$ = 8						; size = 4
?GetTabType@TradeItemRegisterWnd@@IAEHK@Z PROC		; TradeItemRegisterWnd::GetTabType, COMDAT
; _this$ = ecx

; 868  : {

  00000	55		 push	 ebp
  00001	8b ec		 mov	 ebp, esp

; 869  : 	int iArray = ( dwTabID - ID_TAB_1_BTN );

  00003	8b 4d 08	 mov	 ecx, DWORD PTR _dwTabID$[ebp]
  00006	8d 41 9b	 lea	 eax, DWORD PTR [ecx-101]

; 870  : 	if( !COMPARE( iArray, 0, MAX_TAB_BTN ) )

  00009	83 f8 04	 cmp	 eax, 4
  0000c	77 20		 ja	 SHORT $LN7@GetTabType

; 872  : 
; 873  : 	switch( dwTabID )

  0000e	83 e9 66	 sub	 ecx, 102		; 00000066H
  00011	74 16		 je	 SHORT $LN4@GetTabType
  00013	49		 dec	 ecx
  00014	74 0e		 je	 SHORT $LN3@GetTabType
  00016	49		 dec	 ecx
  00017	74 07		 je	 SHORT $LN2@GetTabType
  00019	49		 dec	 ecx

; 883  : 	}
; 884  : 
; 885  : 	return -1;

  0001a	75 12		 jne	 SHORT $LN7@GetTabType

; 881  : 	case ID_TAB_5_BTN:
; 882  : 		return 4;

  0001c	6a 04		 push	 4
  0001e	eb 06		 jmp	 SHORT $LN11@GetTabType
$LN2@GetTabType:

; 879  : 	case ID_TAB_4_BTN:
; 880  : 		return 3;

  00020	6a 03		 push	 3
  00022	eb 02		 jmp	 SHORT $LN11@GetTabType
$LN3@GetTabType:

; 877  : 	case ID_TAB_3_BTN:
; 878  : 		return 2;

  00024	6a 02		 push	 2
$LN11@GetTabType:
  00026	58		 pop	 eax
  00027	eb 08		 jmp	 SHORT $LN9@GetTabType
$LN4@GetTabType:

; 874  : 	{
; 875  : 	case ID_TAB_2_BTN:
; 876  : 		return 1;

  00029	33 c0		 xor	 eax, eax
  0002b	40		 inc	 eax
  0002c	eb 03		 jmp	 SHORT $LN9@GetTabType
$LN7@GetTabType:

; 871  : 		return -1;

  0002e	83 c8 ff	 or	 eax, -1
$LN9@GetTabType:

; 886  : }

  00031	5d		 pop	 ebp
  00032	c2 04 00	 ret	 4
?GetTabType@TradeItemRegisterWnd@@IAEHK@Z ENDP		; TradeItemRegisterWnd::GetTabType
_TEXT	ENDS
PUBLIC	?IsRightTab@TradeItemRegisterWnd@@IAE_NKH@Z	; TradeItemRegisterWnd::IsRightTab
; Function compile flags: /Ogsp
;	COMDAT ?IsRightTab@TradeItemRegisterWnd@@IAE_NKH@Z
_TEXT	SEGMENT
_dwTabID$ = 8						; size = 4
_iValue1$ = 12						; size = 4
?IsRightTab@TradeItemRegisterWnd@@IAE_NKH@Z PROC	; TradeItemRegisterWnd::IsRightTab, COMDAT
; _this$ = ecx

; 889  : {

  00000	55		 push	 ebp
  00001	8b ec		 mov	 ebp, esp

; 890  : 	if( dwTabID == ID_TAB_1_BTN )

  00003	83 7d 08 65	 cmp	 DWORD PTR _dwTabID$[ebp], 101 ; 00000065H
  00007	75 04		 jne	 SHORT $LN3@IsRightTab

; 891  : 		return true;

  00009	b0 01		 mov	 al, 1
  0000b	eb 0e		 jmp	 SHORT $LN1@IsRightTab
$LN3@IsRightTab:

; 892  : 	else if( iValue1 == GetTabType(dwTabID) )

  0000d	ff 75 08	 push	 DWORD PTR _dwTabID$[ebp]
  00010	e8 00 00 00 00	 call	 ?GetTabType@TradeItemRegisterWnd@@IAEHK@Z ; TradeItemRegisterWnd::GetTabType
  00015	39 45 0c	 cmp	 DWORD PTR _iValue1$[ebp], eax
  00018	0f 94 c0	 sete	 al
$LN1@IsRightTab:

; 893  : 		return true;
; 894  : 
; 895  : 	return false;
; 896  : }

  0001b	5d		 pop	 ebp
  0001c	c2 08 00	 ret	 8
?IsRightTab@TradeItemRegisterWnd@@IAE_NKH@Z ENDP	; TradeItemRegisterWnd::IsRightTab
_TEXT	ENDS
PUBLIC	??4tagInventoryItemInfo@@QAEAAU0@ABU0@@Z	; tagInventoryItemInfo::operator=
EXTRN	__imp_??4ioHashString@@QAEAAV0@ABV0@@Z:PROC
; Function compile flags: /Ogsp
;	COMDAT ??4tagInventoryItemInfo@@QAEAAU0@ABU0@@Z
_TEXT	SEGMENT
___that$ = 8						; size = 4
??4tagInventoryItemInfo@@QAEAAU0@ABU0@@Z PROC		; tagInventoryItemInfo::operator=, COMDAT
; _this$ = ecx
  00000	55		 push	 ebp
  00001	8b ec		 mov	 ebp, esp
  00003	56		 push	 esi
  00004	8b f1		 mov	 esi, ecx
  00006	57		 push	 edi
  00007	8b 7d 08	 mov	 edi, DWORD PTR ___that$[ebp]
  0000a	8b 07		 mov	 eax, DWORD PTR [edi]
  0000c	89 06		 mov	 DWORD PTR [esi], eax
  0000e	8b 47 04	 mov	 eax, DWORD PTR [edi+4]
  00011	89 46 04	 mov	 DWORD PTR [esi+4], eax
  00014	8b 47 08	 mov	 eax, DWORD PTR [edi+8]
  00017	89 46 08	 mov	 DWORD PTR [esi+8], eax
  0001a	8b 47 0c	 mov	 eax, DWORD PTR [edi+12]
  0001d	89 46 0c	 mov	 DWORD PTR [esi+12], eax
  00020	8b 47 10	 mov	 eax, DWORD PTR [edi+16]
  00023	89 46 10	 mov	 DWORD PTR [esi+16], eax
  00026	8a 47 14	 mov	 al, BYTE PTR [edi+20]
  00029	88 46 14	 mov	 BYTE PTR [esi+20], al
  0002c	8b 47 18	 mov	 eax, DWORD PTR [edi+24]
  0002f	89 46 18	 mov	 DWORD PTR [esi+24], eax
  00032	8b 47 1c	 mov	 eax, DWORD PTR [edi+28]
  00035	89 46 1c	 mov	 DWORD PTR [esi+28], eax
  00038	8b 47 20	 mov	 eax, DWORD PTR [edi+32]
  0003b	89 46 20	 mov	 DWORD PTR [esi+32], eax
  0003e	8d 47 24	 lea	 eax, DWORD PTR [edi+36]
  00041	50		 push	 eax
  00042	8d 4e 24	 lea	 ecx, DWORD PTR [esi+36]
  00045	ff 15 00 00 00
	00		 call	 DWORD PTR __imp_??4ioHashString@@QAEAAV0@ABV0@@Z
  0004b	8b 47 34	 mov	 eax, DWORD PTR [edi+52]
  0004e	89 46 34	 mov	 DWORD PTR [esi+52], eax
  00051	8b 47 38	 mov	 eax, DWORD PTR [edi+56]
  00054	89 46 38	 mov	 DWORD PTR [esi+56], eax
  00057	8a 47 3c	 mov	 al, BYTE PTR [edi+60]
  0005a	88 46 3c	 mov	 BYTE PTR [esi+60], al
  0005d	8b 47 40	 mov	 eax, DWORD PTR [edi+64]
  00060	89 46 40	 mov	 DWORD PTR [esi+64], eax
  00063	8b 47 44	 mov	 eax, DWORD PTR [edi+68]
  00066	89 46 44	 mov	 DWORD PTR [esi+68], eax
  00069	5f		 pop	 edi
  0006a	8b c6		 mov	 eax, esi
  0006c	5e		 pop	 esi
  0006d	5d		 pop	 ebp
  0006e	c2 04 00	 ret	 4
??4tagInventoryItemInfo@@QAEAAU0@ABU0@@Z ENDP		; tagInventoryItemInfo::operator=
_TEXT	ENDS
PUBLIC	?size@?$vector@UtagInventoryItemInfo@@V?$allocator@UtagInventoryItemInfo@@@std@@@std@@QBEIXZ ; std::vector<tagInventoryItemInfo,std::allocator<tagInventoryItemInfo> >::size
; Function compile flags: /Ogsp
; File c:\program files (x86)\microsoft visual studio 10.0\vc\include\vector
;	COMDAT ?size@?$vector@UtagInventoryItemInfo@@V?$allocator@UtagInventoryItemInfo@@@std@@@std@@QBEIXZ
_TEXT	SEGMENT
?size@?$vector@UtagInventoryItemInfo@@V?$allocator@UtagInventoryItemInfo@@@std@@@std@@QBEIXZ PROC ; std::vector<tagInventoryItemInfo,std::allocator<tagInventoryItemInfo> >::size, COMDAT
; _this$ = ecx

; 879  : 		return (this->_Mylast - this->_Myfirst);

  00000	8b 41 04	 mov	 eax, DWORD PTR [ecx+4]
  00003	2b 01		 sub	 eax, DWORD PTR [ecx]
  00005	6a 48		 push	 72			; 00000048H
  00007	99		 cdq
  00008	59		 pop	 ecx
  00009	f7 f9		 idiv	 ecx

; 880  : 		}

  0000b	c3		 ret	 0
?size@?$vector@UtagInventoryItemInfo@@V?$allocator@UtagInventoryItemInfo@@@std@@@std@@QBEIXZ ENDP ; std::vector<tagInventoryItemInfo,std::allocator<tagInventoryItemInfo> >::size
_TEXT	ENDS
PUBLIC	?empty@?$vector@UtagInventoryItemInfo@@V?$allocator@UtagInventoryItemInfo@@@std@@@std@@QBE_NXZ ; std::vector<tagInventoryItemInfo,std::allocator<tagInventoryItemInfo> >::empty
; Function compile flags: /Ogsp
;	COMDAT ?empty@?$vector@UtagInventoryItemInfo@@V?$allocator@UtagInventoryItemInfo@@@std@@@std@@QBE_NXZ
_TEXT	SEGMENT
?empty@?$vector@UtagInventoryItemInfo@@V?$allocator@UtagInventoryItemInfo@@@std@@@std@@QBE_NXZ PROC ; std::vector<tagInventoryItemInfo,std::allocator<tagInventoryItemInfo> >::empty, COMDAT
; _this$ = ecx

; 889  : 		return (this->_Myfirst == this->_Mylast);

  00000	8b 01		 mov	 eax, DWORD PTR [ecx]
  00002	2b 41 04	 sub	 eax, DWORD PTR [ecx+4]
  00005	f7 d8		 neg	 eax
  00007	1b c0		 sbb	 eax, eax
  00009	40		 inc	 eax

; 890  : 		}

  0000a	c3		 ret	 0
?empty@?$vector@UtagInventoryItemInfo@@V?$allocator@UtagInventoryItemInfo@@@std@@@std@@QBE_NXZ ENDP ; std::vector<tagInventoryItemInfo,std::allocator<tagInventoryItemInfo> >::empty
_TEXT	ENDS
PUBLIC	??A?$vector@UtagInventoryItemInfo@@V?$allocator@UtagInventoryItemInfo@@@std@@@std@@QAEAAUtagInventoryItemInfo@@I@Z ; std::vector<tagInventoryItemInfo,std::allocator<tagInventoryItemInfo> >::operator[]
; Function compile flags: /Ogsp
;	COMDAT ??A?$vector@UtagInventoryItemInfo@@V?$allocator@UtagInventoryItemInfo@@@std@@@std@@QAEAAUtagInventoryItemInfo@@I@Z
_TEXT	SEGMENT
__Pos$ = 8						; size = 4
??A?$vector@UtagInventoryItemInfo@@V?$allocator@UtagInventoryItemInfo@@@std@@@std@@QAEAAUtagInventoryItemInfo@@I@Z PROC ; std::vector<tagInventoryItemInfo,std::allocator<tagInventoryItemInfo> >::operator[], COMDAT
; _this$ = ecx

; 928  : 		{	// subscript mutable sequence

  00000	55		 push	 ebp
  00001	8b ec		 mov	 ebp, esp

; 929  :  #if _ITERATOR_DEBUG_LEVEL == 2
; 930  : 		if (size() <= _Pos)
; 931  : 			{	// report error
; 932  : 			_DEBUG_ERROR("vector subscript out of range");
; 933  : 			_SCL_SECURE_OUT_OF_RANGE;
; 934  : 			}
; 935  : 
; 936  :  #elif _ITERATOR_DEBUG_LEVEL == 1
; 937  : 		_SCL_SECURE_VALIDATE_RANGE(_Pos < size());
; 938  :  #endif /* _ITERATOR_DEBUG_LEVEL */
; 939  : 
; 940  : 		return (*(this->_Myfirst + _Pos));

  00003	8b 45 08	 mov	 eax, DWORD PTR __Pos$[ebp]
  00006	6b c0 48	 imul	 eax, 72			; 00000048H
  00009	03 01		 add	 eax, DWORD PTR [ecx]

; 941  : 		}

  0000b	5d		 pop	 ebp
  0000c	c2 04 00	 ret	 4
??A?$vector@UtagInventoryItemInfo@@V?$allocator@UtagInventoryItemInfo@@@std@@@std@@QAEAAUtagInventoryItemInfo@@I@Z ENDP ; std::vector<tagInventoryItemInfo,std::allocator<tagInventoryItemInfo> >::operator[]
_TEXT	ENDS
PUBLIC	?_Adopt@_Iterator_base0@std@@QAEXPBX@Z		; std::_Iterator_base0::_Adopt
; Function compile flags: /Ogsp
; File c:\program files (x86)\microsoft visual studio 10.0\vc\include\xutility
;	COMDAT ?_Adopt@_Iterator_base0@std@@QAEXPBX@Z
_TEXT	SEGMENT
___formal$ = 8						; size = 4
?_Adopt@_Iterator_base0@std@@QAEXPBX@Z PROC		; std::_Iterator_base0::_Adopt, COMDAT
; _this$ = ecx

; 49   : 		}

  00000	c2 04 00	 ret	 4
?_Adopt@_Iterator_base0@std@@QAEXPBX@Z ENDP		; std::_Iterator_base0::_Adopt
_TEXT	ENDS
PUBLIC	?_Inside@?$vector@UtagInventoryItemInfo@@V?$allocator@UtagInventoryItemInfo@@@std@@@std@@IBE_NPBUtagInventoryItemInfo@@@Z ; std::vector<tagInventoryItemInfo,std::allocator<tagInventoryItemInfo> >::_Inside
; Function compile flags: /Ogsp
; File c:\program files (x86)\microsoft visual studio 10.0\vc\include\vector
;	COMDAT ?_Inside@?$vector@UtagInventoryItemInfo@@V?$allocator@UtagInventoryItemInfo@@@std@@@std@@IBE_NPBUtagInventoryItemInfo@@@Z
_TEXT	SEGMENT
__Ptr$ = 8						; size = 4
?_Inside@?$vector@UtagInventoryItemInfo@@V?$allocator@UtagInventoryItemInfo@@@std@@@std@@IBE_NPBUtagInventoryItemInfo@@@Z PROC ; std::vector<tagInventoryItemInfo,std::allocator<tagInventoryItemInfo> >::_Inside, COMDAT
; _this$ = ecx

; 1285 : 		{	// test if _Ptr points inside vector

  00000	55		 push	 ebp
  00001	8b ec		 mov	 ebp, esp

; 1286 : 		return (_Ptr < this->_Mylast && this->_Myfirst <= _Ptr);

  00003	8b 45 08	 mov	 eax, DWORD PTR __Ptr$[ebp]
  00006	3b 41 04	 cmp	 eax, DWORD PTR [ecx+4]
  00009	73 09		 jae	 SHORT $LN3@Inside
  0000b	39 01		 cmp	 DWORD PTR [ecx], eax
  0000d	77 05		 ja	 SHORT $LN3@Inside
  0000f	33 c0		 xor	 eax, eax
  00011	40		 inc	 eax
  00012	eb 02		 jmp	 SHORT $LN4@Inside
$LN3@Inside:
  00014	33 c0		 xor	 eax, eax
$LN4@Inside:

; 1287 : 		}

  00016	5d		 pop	 ebp
  00017	c2 04 00	 ret	 4
?_Inside@?$vector@UtagInventoryItemInfo@@V?$allocator@UtagInventoryItemInfo@@@std@@@std@@IBE_NPBUtagInventoryItemInfo@@@Z ENDP ; std::vector<tagInventoryItemInfo,std::allocator<tagInventoryItemInfo> >::_Inside
_TEXT	ENDS
PUBLIC	?_Orphan_range@?$vector@UtagInventoryItemInfo@@V?$allocator@UtagInventoryItemInfo@@@std@@@std@@IBEXPAUtagInventoryItemInfo@@0@Z ; std::vector<tagInventoryItemInfo,std::allocator<tagInventoryItemInfo> >::_Orphan_range
; Function compile flags: /Ogsp
;	COMDAT ?_Orphan_range@?$vector@UtagInventoryItemInfo@@V?$allocator@UtagInventoryItemInfo@@@std@@@std@@IBEXPAUtagInventoryItemInfo@@0@Z
_TEXT	SEGMENT
___formal$ = 8						; size = 4
___formal$ = 12						; size = 4
?_Orphan_range@?$vector@UtagInventoryItemInfo@@V?$allocator@UtagInventoryItemInfo@@@std@@@std@@IBEXPAUtagInventoryItemInfo@@0@Z PROC ; std::vector<tagInventoryItemInfo,std::allocator<tagInventoryItemInfo> >::_Orphan_range, COMDAT
; _this$ = ecx

; 1454 : 		}

  00000	c2 08 00	 ret	 8
?_Orphan_range@?$vector@UtagInventoryItemInfo@@V?$allocator@UtagInventoryItemInfo@@@std@@@std@@IBEXPAUtagInventoryItemInfo@@0@Z ENDP ; std::vector<tagInventoryItemInfo,std::allocator<tagInventoryItemInfo> >::_Orphan_range
_TEXT	ENDS
PUBLIC	??1?$_Vector_val@UtagInventoryItemInfo@@V?$allocator@UtagInventoryItemInfo@@@std@@@std@@QAE@XZ ; std::_Vector_val<tagInventoryItemInfo,std::allocator<tagInventoryItemInfo> >::~_Vector_val<tagInventoryItemInfo,std::allocator<tagInventoryItemInfo> >
; Function compile flags: /Ogsp
;	COMDAT ??1?$_Vector_val@UtagInventoryItemInfo@@V?$allocator@UtagInventoryItemInfo@@@std@@@std@@QAE@XZ
_TEXT	SEGMENT
??1?$_Vector_val@UtagInventoryItemInfo@@V?$allocator@UtagInventoryItemInfo@@@std@@@std@@QAE@XZ PROC ; std::_Vector_val<tagInventoryItemInfo,std::allocator<tagInventoryItemInfo> >::~_Vector_val<tagInventoryItemInfo,std::allocator<tagInventoryItemInfo> >, COMDAT
; _this$ = ecx

; 434  : 		}

  00000	c3		 ret	 0
??1?$_Vector_val@UtagInventoryItemInfo@@V?$allocator@UtagInventoryItemInfo@@@std@@@std@@QAE@XZ ENDP ; std::_Vector_val<tagInventoryItemInfo,std::allocator<tagInventoryItemInfo> >::~_Vector_val<tagInventoryItemInfo,std::allocator<tagInventoryItemInfo> >
_TEXT	ENDS
PUBLIC	??0?$allocator@UtagInventoryItemInfo@@@std@@QAE@XZ ; std::allocator<tagInventoryItemInfo>::allocator<tagInventoryItemInfo>
; Function compile flags: /Ogsp
; File c:\program files (x86)\microsoft visual studio 10.0\vc\include\xmemory
;	COMDAT ??0?$allocator@UtagInventoryItemInfo@@@std@@QAE@XZ
_TEXT	SEGMENT
??0?$allocator@UtagInventoryItemInfo@@@std@@QAE@XZ PROC	; std::allocator<tagInventoryItemInfo>::allocator<tagInventoryItemInfo>, COMDAT
; _this$ = ecx

; 161  : 	_ALLOCATOR() _THROW0()

  00000	8b c1		 mov	 eax, ecx

; 162  : 		{	// construct default allocator (do nothing)
; 163  : 		}

  00002	c3		 ret	 0
??0?$allocator@UtagInventoryItemInfo@@@std@@QAE@XZ ENDP	; std::allocator<tagInventoryItemInfo>::allocator<tagInventoryItemInfo>
_TEXT	ENDS
PUBLIC	?capacity@?$vector@UtagInventoryItemInfo@@V?$allocator@UtagInventoryItemInfo@@@std@@@std@@QBEIXZ ; std::vector<tagInventoryItemInfo,std::allocator<tagInventoryItemInfo> >::capacity
; Function compile flags: /Ogsp
; File c:\program files (x86)\microsoft visual studio 10.0\vc\include\vector
;	COMDAT ?capacity@?$vector@UtagInventoryItemInfo@@V?$allocator@UtagInventoryItemInfo@@@std@@@std@@QBEIXZ
_TEXT	SEGMENT
?capacity@?$vector@UtagInventoryItemInfo@@V?$allocator@UtagInventoryItemInfo@@@std@@@std@@QBEIXZ PROC ; std::vector<tagInventoryItemInfo,std::allocator<tagInventoryItemInfo> >::capacity, COMDAT
; _this$ = ecx

; 777  : 		return (this->_Myend - this->_Myfirst);

  00000	8b 41 08	 mov	 eax, DWORD PTR [ecx+8]
  00003	2b 01		 sub	 eax, DWORD PTR [ecx]
  00005	6a 48		 push	 72			; 00000048H
  00007	99		 cdq
  00008	59		 pop	 ecx
  00009	f7 f9		 idiv	 ecx

; 778  : 		}

  0000b	c3		 ret	 0
?capacity@?$vector@UtagInventoryItemInfo@@V?$allocator@UtagInventoryItemInfo@@@std@@@std@@QBEIXZ ENDP ; std::vector<tagInventoryItemInfo,std::allocator<tagInventoryItemInfo> >::capacity
_TEXT	ENDS
PUBLIC	??_C@_0BD@OLBABOEK@vector?$DMT?$DO?5too?5long?$AA@ ; `string'
PUBLIC	?_Xlen@?$vector@UtagInventoryItemInfo@@V?$allocator@UtagInventoryItemInfo@@@std@@@std@@IBEXXZ ; std::vector<tagInventoryItemInfo,std::allocator<tagInventoryItemInfo> >::_Xlen
EXTRN	__imp_?_Xlength_error@std@@YAXPBD@Z:PROC
;	COMDAT ??_C@_0BD@OLBABOEK@vector?$DMT?$DO?5too?5long?$AA@
CONST	SEGMENT
??_C@_0BD@OLBABOEK@vector?$DMT?$DO?5too?5long?$AA@ DB 'vector<T> too long'
	DB	00H						; `string'
; Function compile flags: /Ogsp
CONST	ENDS
;	COMDAT ?_Xlen@?$vector@UtagInventoryItemInfo@@V?$allocator@UtagInventoryItemInfo@@@std@@@std@@IBEXXZ
_TEXT	SEGMENT
?_Xlen@?$vector@UtagInventoryItemInfo@@V?$allocator@UtagInventoryItemInfo@@@std@@@std@@IBEXXZ PROC ; std::vector<tagInventoryItemInfo,std::allocator<tagInventoryItemInfo> >::_Xlen, COMDAT
; _this$ = ecx

; 1427 : 		_Xlength_error("vector<T> too long");

  00000	68 00 00 00 00	 push	 OFFSET ??_C@_0BD@OLBABOEK@vector?$DMT?$DO?5too?5long?$AA@
  00005	ff 15 00 00 00
	00		 call	 DWORD PTR __imp_?_Xlength_error@std@@YAXPBD@Z
$LN4@Xlen:
$LN3@Xlen:
  0000b	cc		 int	 3
?_Xlen@?$vector@UtagInventoryItemInfo@@V?$allocator@UtagInventoryItemInfo@@@std@@@std@@IBEXXZ ENDP ; std::vector<tagInventoryItemInfo,std::allocator<tagInventoryItemInfo> >::_Xlen
_TEXT	ENDS
PUBLIC	??0?$allocator@UtagInventoryItemInfo@@@std@@QAE@ABV01@@Z ; std::allocator<tagInventoryItemInfo>::allocator<tagInventoryItemInfo>
; Function compile flags: /Ogsp
; File c:\program files (x86)\microsoft visual studio 10.0\vc\include\xmemory
;	COMDAT ??0?$allocator@UtagInventoryItemInfo@@@std@@QAE@ABV01@@Z
_TEXT	SEGMENT
___formal$ = 8						; size = 4
??0?$allocator@UtagInventoryItemInfo@@@std@@QAE@ABV01@@Z PROC ; std::allocator<tagInventoryItemInfo>::allocator<tagInventoryItemInfo>, COMDAT
; _this$ = ecx

; 165  : 	_ALLOCATOR(const _ALLOCATOR<_Ty>&) _THROW0()

  00000	8b c1		 mov	 eax, ecx

; 166  : 		{	// construct by copying (do nothing)
; 167  : 		}

  00002	c2 04 00	 ret	 4
??0?$allocator@UtagInventoryItemInfo@@@std@@QAE@ABV01@@Z ENDP ; std::allocator<tagInventoryItemInfo>::allocator<tagInventoryItemInfo>
_TEXT	ENDS
PUBLIC	?deallocate@?$allocator@UtagInventoryItemInfo@@@std@@QAEXPAUtagInventoryItemInfo@@I@Z ; std::allocator<tagInventoryItemInfo>::deallocate
; Function compile flags: /Ogsp
;	COMDAT ?deallocate@?$allocator@UtagInventoryItemInfo@@@std@@QAEXPAUtagInventoryItemInfo@@I@Z
_TEXT	SEGMENT
__Ptr$ = 8						; size = 4
___formal$ = 12						; size = 4
?deallocate@?$allocator@UtagInventoryItemInfo@@@std@@QAEXPAUtagInventoryItemInfo@@I@Z PROC ; std::allocator<tagInventoryItemInfo>::deallocate, COMDAT
; _this$ = ecx

; 181  : 		{	// deallocate object at _Ptr, ignore size

  00000	55		 push	 ebp
  00001	8b ec		 mov	 ebp, esp

; 182  : 		::operator delete(_Ptr);

  00003	ff 75 08	 push	 DWORD PTR __Ptr$[ebp]
  00006	e8 00 00 00 00	 call	 ??3@YAXPAX@Z		; operator delete
  0000b	59		 pop	 ecx

; 183  : 		}

  0000c	5d		 pop	 ebp
  0000d	c2 08 00	 ret	 8
?deallocate@?$allocator@UtagInventoryItemInfo@@@std@@QAEXPAUtagInventoryItemInfo@@I@Z ENDP ; std::allocator<tagInventoryItemInfo>::deallocate
_TEXT	ENDS
PUBLIC	??0?$_Vector_const_iterator@V?$_Vector_val@UtagInventoryItemInfo@@V?$allocator@UtagInventoryItemInfo@@@std@@@std@@@std@@QAE@PAUtagInventoryItemInfo@@PBU_Container_base0@1@@Z ; std::_Vector_const_iterator<std::_Vector_val<tagInventoryItemInfo,std::allocator<tagInventoryItemInfo> > >::_Vector_const_iterator<std::_Vector_val<tagInventoryItemInfo,std::allocator<tagInventoryItemInfo> > >
; Function compile flags: /Ogsp
; File c:\program files (x86)\microsoft visual studio 10.0\vc\include\vector
;	COMDAT ??0?$_Vector_const_iterator@V?$_Vector_val@UtagInventoryItemInfo@@V?$allocator@UtagInventoryItemInfo@@@std@@@std@@@std@@QAE@PAUtagInventoryItemInfo@@PBU_Container_base0@1@@Z
_TEXT	SEGMENT
__Parg$ = 8						; size = 4
__Pvector$ = 12						; size = 4
??0?$_Vector_const_iterator@V?$_Vector_val@UtagInventoryItemInfo@@V?$allocator@UtagInventoryItemInfo@@@std@@@std@@@std@@QAE@PAUtagInventoryItemInfo@@PBU_Container_base0@1@@Z PROC ; std::_Vector_const_iterator<std::_Vector_val<tagInventoryItemInfo,std::allocator<tagInventoryItemInfo> > >::_Vector_const_iterator<std::_Vector_val<tagInventoryItemInfo,std::allocator<tagInventoryItemInfo> > >, COMDAT
; _this$ = ecx

; 45   : 		{	// construct with pointer _Parg

  00000	55		 push	 ebp
  00001	8b ec		 mov	 ebp, esp
  00003	8b c1		 mov	 eax, ecx
  00005	8b 4d 08	 mov	 ecx, DWORD PTR __Parg$[ebp]
  00008	89 08		 mov	 DWORD PTR [eax], ecx

; 46   : 		this->_Adopt(_Pvector);
; 47   : 		}

  0000a	5d		 pop	 ebp
  0000b	c2 08 00	 ret	 8
??0?$_Vector_const_iterator@V?$_Vector_val@UtagInventoryItemInfo@@V?$allocator@UtagInventoryItemInfo@@@std@@@std@@@std@@QAE@PAUtagInventoryItemInfo@@PBU_Container_base0@1@@Z ENDP ; std::_Vector_const_iterator<std::_Vector_val<tagInventoryItemInfo,std::allocator<tagInventoryItemInfo> > >::_Vector_const_iterator<std::_Vector_val<tagInventoryItemInfo,std::allocator<tagInventoryItemInfo> > >
_TEXT	ENDS
PUBLIC	?max_size@?$allocator@UtagInventoryItemInfo@@@std@@QBEIXZ ; std::allocator<tagInventoryItemInfo>::max_size
; Function compile flags: /Ogsp
; File c:\program files (x86)\microsoft visual studio 10.0\vc\include\xmemory
;	COMDAT ?max_size@?$allocator@UtagInventoryItemInfo@@@std@@QBEIXZ
_TEXT	SEGMENT
?max_size@?$allocator@UtagInventoryItemInfo@@@std@@QBEIXZ PROC ; std::allocator<tagInventoryItemInfo>::max_size, COMDAT
; _this$ = ecx

; 218  : 		_SIZT _Count = (_SIZT)(-1) / sizeof (_Ty);
; 219  : 		return (0 < _Count ? _Count : 1);

  00000	b8 e3 38 8e 03	 mov	 eax, 59652323		; 038e38e3H

; 220  : 		}

  00005	c3		 ret	 0
?max_size@?$allocator@UtagInventoryItemInfo@@@std@@QBEIXZ ENDP ; std::allocator<tagInventoryItemInfo>::max_size
_TEXT	ENDS
PUBLIC	?_Compat@?$_Vector_const_iterator@V?$_Vector_val@UtagInventoryItemInfo@@V?$allocator@UtagInventoryItemInfo@@@std@@@std@@@std@@QBEXABV12@@Z ; std::_Vector_const_iterator<std::_Vector_val<tagInventoryItemInfo,std::allocator<tagInventoryItemInfo> > >::_Compat
; Function compile flags: /Ogsp
; File c:\program files (x86)\microsoft visual studio 10.0\vc\include\vector
;	COMDAT ?_Compat@?$_Vector_const_iterator@V?$_Vector_val@UtagInventoryItemInfo@@V?$allocator@UtagInventoryItemInfo@@@std@@@std@@@std@@QBEXABV12@@Z
_TEXT	SEGMENT
___formal$ = 8						; size = 4
?_Compat@?$_Vector_const_iterator@V?$_Vector_val@UtagInventoryItemInfo@@V?$allocator@UtagInventoryItemInfo@@@std@@@std@@@std@@QBEXABV12@@Z PROC ; std::_Vector_const_iterator<std::_Vector_val<tagInventoryItemInfo,std::allocator<tagInventoryItemInfo> > >::_Compat, COMDAT
; _this$ = ecx

; 253  : 		}

  00000	c2 04 00	 ret	 4
?_Compat@?$_Vector_const_iterator@V?$_Vector_val@UtagInventoryItemInfo@@V?$allocator@UtagInventoryItemInfo@@@std@@@std@@@std@@QBEXABV12@@Z ENDP ; std::_Vector_const_iterator<std::_Vector_val<tagInventoryItemInfo,std::allocator<tagInventoryItemInfo> > >::_Compat
_TEXT	ENDS
PUBLIC	??$addressof@$$CBUtagInventoryItemInfo@@@std@@YAPBUtagInventoryItemInfo@@ABU1@@Z ; std::addressof<tagInventoryItemInfo const >
; Function compile flags: /Ogsp
; File c:\program files (x86)\microsoft visual studio 10.0\vc\include\xmemory
;	COMDAT ??$addressof@$$CBUtagInventoryItemInfo@@@std@@YAPBUtagInventoryItemInfo@@ABU1@@Z
_TEXT	SEGMENT
__Val$ = 8						; size = 4
??$addressof@$$CBUtagInventoryItemInfo@@@std@@YAPBUtagInventoryItemInfo@@ABU1@@Z PROC ; std::addressof<tagInventoryItemInfo const >, COMDAT

; 110  : 	{	// return address of _Val

  00000	55		 push	 ebp
  00001	8b ec		 mov	 ebp, esp

; 111  : 	return ((_Ty *) &(char&)_Val);

  00003	8b 45 08	 mov	 eax, DWORD PTR __Val$[ebp]

; 112  : 	}

  00006	5d		 pop	 ebp
  00007	c3		 ret	 0
??$addressof@$$CBUtagInventoryItemInfo@@@std@@YAPBUtagInventoryItemInfo@@ABU1@@Z ENDP ; std::addressof<tagInventoryItemInfo const >
_TEXT	ENDS
PUBLIC	__TI2?AVbad_alloc@std@@
PUBLIC	??$_Allocate@UtagInventoryItemInfo@@@std@@YAPAUtagInventoryItemInfo@@IPAU1@@Z ; std::_Allocate<tagInventoryItemInfo>
PUBLIC	__CTA2?AVbad_alloc@std@@
PUBLIC	__CT??_R0?AVbad_alloc@std@@@8??0bad_alloc@std@@QAE@ABV01@@Z12
PUBLIC	??0bad_alloc@std@@QAE@ABV01@@Z			; std::bad_alloc::bad_alloc
PUBLIC	__CT??_R0?AVexception@std@@@8??0exception@std@@QAE@ABV01@@Z12
EXTRN	??2@YAPAXI@Z:PROC				; operator new
EXTRN	__CxxThrowException@8:PROC
EXTRN	??0exception@std@@QAE@ABV01@@Z:PROC		; std::exception::exception
;	COMDAT __CT??_R0?AVexception@std@@@8??0exception@std@@QAE@ABV01@@Z12
; File c:\program files (x86)\microsoft visual studio 10.0\vc\include\exception
xdata$x	SEGMENT
__CT??_R0?AVexception@std@@@8??0exception@std@@QAE@ABV01@@Z12 DD 00H
	DD	FLAT:??_R0?AVexception@std@@@8
	DD	00H
	DD	0ffffffffH
	ORG $+4
	DD	0cH
	DD	FLAT:??0exception@std@@QAE@ABV01@@Z
xdata$x	ENDS
;	COMDAT __CT??_R0?AVbad_alloc@std@@@8??0bad_alloc@std@@QAE@ABV01@@Z12
xdata$x	SEGMENT
__CT??_R0?AVbad_alloc@std@@@8??0bad_alloc@std@@QAE@ABV01@@Z12 DD 00H
	DD	FLAT:??_R0?AVbad_alloc@std@@@8
	DD	00H
	DD	0ffffffffH
	ORG $+4
	DD	0cH
	DD	FLAT:??0bad_alloc@std@@QAE@ABV01@@Z
xdata$x	ENDS
;	COMDAT __CTA2?AVbad_alloc@std@@
xdata$x	SEGMENT
__CTA2?AVbad_alloc@std@@ DD 02H
	DD	FLAT:__CT??_R0?AVbad_alloc@std@@@8??0bad_alloc@std@@QAE@ABV01@@Z12
	DD	FLAT:__CT??_R0?AVexception@std@@@8??0exception@std@@QAE@ABV01@@Z12
xdata$x	ENDS
;	COMDAT __TI2?AVbad_alloc@std@@
xdata$x	SEGMENT
__TI2?AVbad_alloc@std@@ DD 00H
	DD	FLAT:??1bad_alloc@std@@UAE@XZ
	DD	00H
	DD	FLAT:__CTA2?AVbad_alloc@std@@
; Function compile flags: /Ogsp
; File c:\program files (x86)\microsoft visual studio 10.0\vc\include\xmemory
xdata$x	ENDS
;	COMDAT ??$_Allocate@UtagInventoryItemInfo@@@std@@YAPAUtagInventoryItemInfo@@IPAU1@@Z
_TEXT	SEGMENT
$T510874 = -12						; size = 12
$T510879 = 8						; size = 4
__Count$ = 8						; size = 4
___formal$ = 12						; size = 4
??$_Allocate@UtagInventoryItemInfo@@@std@@YAPAUtagInventoryItemInfo@@IPAU1@@Z PROC ; std::_Allocate<tagInventoryItemInfo>, COMDAT

; 30   : 	{	// allocate storage for _Count elements of type _Ty

  00000	55		 push	 ebp
  00001	8b ec		 mov	 ebp, esp

; 31   : 	void *_Ptr = 0;
; 32   : 
; 33   : 	if (_Count <= 0)

  00003	8b 4d 08	 mov	 ecx, DWORD PTR __Count$[ebp]
  00006	83 ec 0c	 sub	 esp, 12			; 0000000cH
  00009	33 c0		 xor	 eax, eax
  0000b	85 c9		 test	 ecx, ecx

; 34   : 		_Count = 0;
; 35   : 	else if (((_SIZT)(-1) / sizeof (_Ty) < _Count)

  0000d	74 3c		 je	 SHORT $LN5@Allocate

; 36   : 		|| (_Ptr = ::operator new(_Count * sizeof (_Ty))) == 0)

  0000f	81 f9 e3 38 8e
	03		 cmp	 ecx, 59652323		; 038e38e3H
  00015	77 0e		 ja	 SHORT $LN1@Allocate
  00017	6b c9 48	 imul	 ecx, 72			; 00000048H
  0001a	51		 push	 ecx
  0001b	e8 00 00 00 00	 call	 ??2@YAPAXI@Z		; operator new
  00020	59		 pop	 ecx
  00021	85 c0		 test	 eax, eax

; 38   : 
; 39   : 	return ((_Ty _FARQ *)_Ptr);

  00023	75 26		 jne	 SHORT $LN5@Allocate
$LN1@Allocate:

; 37   : 		_THROW_NCEE(bad_alloc, 0);

  00025	83 65 08 00	 and	 DWORD PTR $T510879[ebp], 0
  00029	8d 45 08	 lea	 eax, DWORD PTR $T510879[ebp]
  0002c	50		 push	 eax
  0002d	8d 4d f4	 lea	 ecx, DWORD PTR $T510874[ebp]
  00030	ff 15 00 00 00
	00		 call	 DWORD PTR __imp_??0exception@std@@QAE@ABQBD@Z
  00036	68 00 00 00 00	 push	 OFFSET __TI2?AVbad_alloc@std@@
  0003b	8d 45 f4	 lea	 eax, DWORD PTR $T510874[ebp]
  0003e	50		 push	 eax
  0003f	c7 45 f4 00 00
	00 00		 mov	 DWORD PTR $T510874[ebp], OFFSET ??_7bad_alloc@std@@6B@
  00046	e8 00 00 00 00	 call	 __CxxThrowException@8
$LN10@Allocate:
$LN5@Allocate:

; 40   : 	}

  0004b	c9		 leave
  0004c	c3		 ret	 0
$LN9@Allocate:
??$_Allocate@UtagInventoryItemInfo@@@std@@YAPAUtagInventoryItemInfo@@IPAU1@@Z ENDP ; std::_Allocate<tagInventoryItemInfo>
_TEXT	ENDS
PUBLIC	??G?$_Vector_const_iterator@V?$_Vector_val@UtagInventoryItemInfo@@V?$allocator@UtagInventoryItemInfo@@@std@@@std@@@std@@QBEHABV01@@Z ; std::_Vector_const_iterator<std::_Vector_val<tagInventoryItemInfo,std::allocator<tagInventoryItemInfo> > >::operator-
; Function compile flags: /Ogsp
; File c:\program files (x86)\microsoft visual studio 10.0\vc\include\vector
;	COMDAT ??G?$_Vector_const_iterator@V?$_Vector_val@UtagInventoryItemInfo@@V?$allocator@UtagInventoryItemInfo@@@std@@@std@@@std@@QBEHABV01@@Z
_TEXT	SEGMENT
__Right$ = 8						; size = 4
??G?$_Vector_const_iterator@V?$_Vector_val@UtagInventoryItemInfo@@V?$allocator@UtagInventoryItemInfo@@@std@@@std@@@std@@QBEHABV01@@Z PROC ; std::_Vector_const_iterator<std::_Vector_val<tagInventoryItemInfo,std::allocator<tagInventoryItemInfo> > >::operator-, COMDAT
; _this$ = ecx

; 190  : 		{	// return difference of iterators

  00000	55		 push	 ebp
  00001	8b ec		 mov	 ebp, esp

; 191  : 		_Compat(_Right);
; 192  : 		return (this->_Ptr - _Right._Ptr);

  00003	8b 01		 mov	 eax, DWORD PTR [ecx]
  00005	8b 4d 08	 mov	 ecx, DWORD PTR __Right$[ebp]
  00008	2b 01		 sub	 eax, DWORD PTR [ecx]
  0000a	6a 48		 push	 72			; 00000048H
  0000c	99		 cdq
  0000d	59		 pop	 ecx
  0000e	f7 f9		 idiv	 ecx

; 193  : 		}

  00010	5d		 pop	 ebp
  00011	c2 04 00	 ret	 4
??G?$_Vector_const_iterator@V?$_Vector_val@UtagInventoryItemInfo@@V?$allocator@UtagInventoryItemInfo@@@std@@@std@@@std@@QBEHABV01@@Z ENDP ; std::_Vector_const_iterator<std::_Vector_val<tagInventoryItemInfo,std::allocator<tagInventoryItemInfo> > >::operator-
_TEXT	ENDS
PUBLIC	??$forward@AAUtagInventoryItemInfo@@@std@@YAAAUtagInventoryItemInfo@@AAU1@@Z ; std::forward<tagInventoryItemInfo &>
; Function compile flags: /Ogsp
; File c:\program files (x86)\microsoft visual studio 10.0\vc\include\utility
;	COMDAT ??$forward@AAUtagInventoryItemInfo@@@std@@YAAAUtagInventoryItemInfo@@AAU1@@Z
_TEXT	SEGMENT
__Arg$ = 8						; size = 4
??$forward@AAUtagInventoryItemInfo@@@std@@YAAAUtagInventoryItemInfo@@AAU1@@Z PROC ; std::forward<tagInventoryItemInfo &>, COMDAT

; 78   : 	{	// forward _Arg, given explicitly specified type parameter

  00000	55		 push	 ebp
  00001	8b ec		 mov	 ebp, esp

; 79   : 	return ((_Ty&&)_Arg);

  00003	8b 45 08	 mov	 eax, DWORD PTR __Arg$[ebp]

; 80   : 	}

  00006	5d		 pop	 ebp
  00007	c3		 ret	 0
??$forward@AAUtagInventoryItemInfo@@@std@@YAAAUtagInventoryItemInfo@@AAU1@@Z ENDP ; std::forward<tagInventoryItemInfo &>
_TEXT	ENDS
PUBLIC	??$construct@AAUtagInventoryItemInfo@@@?$allocator@UtagInventoryItemInfo@@@std@@QAEXPAUtagInventoryItemInfo@@AAU2@@Z ; std::allocator<tagInventoryItemInfo>::construct<tagInventoryItemInfo &>
;	COMDAT xdata$x
xdata$x	SEGMENT
__unwindtable$??$construct@AAUtagInventoryItemInfo@@@?$allocator@UtagInventoryItemInfo@@@std@@QAEXPAUtagInventoryItemInfo@@AAU2@@Z DD 0ffffffffH
	DD	FLAT:__unwindfunclet$??$construct@AAUtagInventoryItemInfo@@@?$allocator@UtagInventoryItemInfo@@@std@@QAEXPAUtagInventoryItemInfo@@AAU2@@Z$0
__ehfuncinfo$??$construct@AAUtagInventoryItemInfo@@@?$allocator@UtagInventoryItemInfo@@@std@@QAEXPAUtagInventoryItemInfo@@AAU2@@Z DD 019930522H
	DD	01H
	DD	FLAT:__unwindtable$??$construct@AAUtagInventoryItemInfo@@@?$allocator@UtagInventoryItemInfo@@@std@@QAEXPAUtagInventoryItemInfo@@AAU2@@Z
	DD	2 DUP(00H)
	DD	2 DUP(00H)
	DD	00H
	DD	01H
; Function compile flags: /Ogsp
; File c:\program files (x86)\microsoft visual studio 10.0\vc\include\xmemory
xdata$x	ENDS
;	COMDAT ??$construct@AAUtagInventoryItemInfo@@@?$allocator@UtagInventoryItemInfo@@@std@@QAEXPAUtagInventoryItemInfo@@AAU2@@Z
_TEXT	SEGMENT
$T510892 = -16						; size = 4
__$EHRec$ = -12						; size = 12
__Ptr$ = 8						; size = 4
__Val$ = 12						; size = 4
??$construct@AAUtagInventoryItemInfo@@@?$allocator@UtagInventoryItemInfo@@@std@@QAEXPAUtagInventoryItemInfo@@AAU2@@Z PROC ; std::allocator<tagInventoryItemInfo>::construct<tagInventoryItemInfo &>, COMDAT
; _this$ = ecx

; 206  : 		void construct(pointer _Ptr, _Other&& _Val)

  00000	6a 04		 push	 4
  00002	b8 00 00 00 00	 mov	 eax, __ehhandler$??$construct@AAUtagInventoryItemInfo@@@?$allocator@UtagInventoryItemInfo@@@std@@QAEXPAUtagInventoryItemInfo@@AAU2@@Z
  00007	e8 00 00 00 00	 call	 __EH_prolog3

; 207  : 		{	// construct object at _Ptr with value _Val
; 208  : 		::new ((void _FARQ *)_Ptr) _Ty(_STD forward<_Other>(_Val));

  0000c	8b 4d 08	 mov	 ecx, DWORD PTR __Ptr$[ebp]
  0000f	89 4d f0	 mov	 DWORD PTR $T510892[ebp], ecx
  00012	83 65 fc 00	 and	 DWORD PTR __$EHRec$[ebp+8], 0
  00016	85 c9		 test	 ecx, ecx
  00018	74 08		 je	 SHORT $LN3@construct
  0001a	ff 75 0c	 push	 DWORD PTR __Val$[ebp]
  0001d	e8 00 00 00 00	 call	 ??0tagInventoryItemInfo@@QAE@ABU0@@Z
$LN3@construct:

; 209  : 		}

  00022	e8 00 00 00 00	 call	 __EH_epilog3
  00027	c2 08 00	 ret	 8
_TEXT	ENDS
;	COMDAT text$x
text$x	SEGMENT
__unwindfunclet$??$construct@AAUtagInventoryItemInfo@@@?$allocator@UtagInventoryItemInfo@@@std@@QAEXPAUtagInventoryItemInfo@@AAU2@@Z$0:
  00000	ff 75 08	 push	 DWORD PTR __Ptr$[ebp]
  00003	ff 75 f0	 push	 DWORD PTR $T510892[ebp]
  00006	e8 00 00 00 00	 call	 ??3@YAXPAX0@Z		; operator delete
  0000b	59		 pop	 ecx
  0000c	59		 pop	 ecx
  0000d	c3		 ret	 0
__ehhandler$??$construct@AAUtagInventoryItemInfo@@@?$allocator@UtagInventoryItemInfo@@@std@@QAEXPAUtagInventoryItemInfo@@AAU2@@Z:
  0000e	8b 54 24 08	 mov	 edx, DWORD PTR [esp+8]
  00012	8d 42 0c	 lea	 eax, DWORD PTR [edx+12]
  00015	8b 4a ec	 mov	 ecx, DWORD PTR [edx-20]
  00018	33 c8		 xor	 ecx, eax
  0001a	e8 00 00 00 00	 call	 @__security_check_cookie@4
  0001f	b8 00 00 00 00	 mov	 eax, OFFSET __ehfuncinfo$??$construct@AAUtagInventoryItemInfo@@@?$allocator@UtagInventoryItemInfo@@@std@@QAEXPAUtagInventoryItemInfo@@AAU2@@Z
  00024	e9 00 00 00 00	 jmp	 ___CxxFrameHandler3
text$x	ENDS
??$construct@AAUtagInventoryItemInfo@@@?$allocator@UtagInventoryItemInfo@@@std@@QAEXPAUtagInventoryItemInfo@@AAU2@@Z ENDP ; std::allocator<tagInventoryItemInfo>::construct<tagInventoryItemInfo &>
PUBLIC	??$forward@ABUtagInventoryItemInfo@@@std@@YAABUtagInventoryItemInfo@@ABU1@@Z ; std::forward<tagInventoryItemInfo const &>
; Function compile flags: /Ogsp
; File c:\program files (x86)\microsoft visual studio 10.0\vc\include\utility
;	COMDAT ??$forward@ABUtagInventoryItemInfo@@@std@@YAABUtagInventoryItemInfo@@ABU1@@Z
_TEXT	SEGMENT
__Arg$ = 8						; size = 4
??$forward@ABUtagInventoryItemInfo@@@std@@YAABUtagInventoryItemInfo@@ABU1@@Z PROC ; std::forward<tagInventoryItemInfo const &>, COMDAT

; 78   : 	{	// forward _Arg, given explicitly specified type parameter

  00000	55		 push	 ebp
  00001	8b ec		 mov	 ebp, esp

; 79   : 	return ((_Ty&&)_Arg);

  00003	8b 45 08	 mov	 eax, DWORD PTR __Arg$[ebp]

; 80   : 	}

  00006	5d		 pop	 ebp
  00007	c3		 ret	 0
??$forward@ABUtagInventoryItemInfo@@@std@@YAABUtagInventoryItemInfo@@ABU1@@Z ENDP ; std::forward<tagInventoryItemInfo const &>
_TEXT	ENDS
PUBLIC	??$_Ptr_cat@UtagInventoryItemInfo@@U1@@std@@YA?AU_Nonscalar_ptr_iterator_tag@0@PAUtagInventoryItemInfo@@0@Z ; std::_Ptr_cat<tagInventoryItemInfo,tagInventoryItemInfo>
; Function compile flags: /Ogsp
; File c:\program files (x86)\microsoft visual studio 10.0\vc\include\xutility
;	COMDAT ??$_Ptr_cat@UtagInventoryItemInfo@@U1@@std@@YA?AU_Nonscalar_ptr_iterator_tag@0@PAUtagInventoryItemInfo@@0@Z
_TEXT	SEGMENT
__Cat$ = -1						; size = 1
___formal$ = 8						; size = 4
___formal$ = 12						; size = 4
??$_Ptr_cat@UtagInventoryItemInfo@@U1@@std@@YA?AU_Nonscalar_ptr_iterator_tag@0@PAUtagInventoryItemInfo@@0@Z PROC ; std::_Ptr_cat<tagInventoryItemInfo,tagInventoryItemInfo>, COMDAT

; 516  : 	{	// return pointer category from pointers

  00000	55		 push	 ebp
  00001	8b ec		 mov	 ebp, esp
  00003	51		 push	 ecx

; 517  : 	typename _Ptr_cat_helper<_Elem1, _Elem2>::_Type _Cat;
; 518  : 	return (_Cat);

  00004	8a 45 ff	 mov	 al, BYTE PTR __Cat$[ebp]

; 519  : 	}

  00007	c9		 leave
  00008	c3		 ret	 0
??$_Ptr_cat@UtagInventoryItemInfo@@U1@@std@@YA?AU_Nonscalar_ptr_iterator_tag@0@PAUtagInventoryItemInfo@@0@Z ENDP ; std::_Ptr_cat<tagInventoryItemInfo,tagInventoryItemInfo>
_TEXT	ENDS
PUBLIC	??$_Construct@UtagInventoryItemInfo@@ABU1@@std@@YAXPAUtagInventoryItemInfo@@ABU1@@Z ; std::_Construct<tagInventoryItemInfo,tagInventoryItemInfo const &>
;	COMDAT xdata$x
; File c:\program files (x86)\microsoft visual studio 10.0\vc\include\utility
xdata$x	SEGMENT
__unwindtable$??$_Construct@UtagInventoryItemInfo@@ABU1@@std@@YAXPAUtagInventoryItemInfo@@ABU1@@Z DD 0ffffffffH
	DD	FLAT:__unwindfunclet$??$_Construct@UtagInventoryItemInfo@@ABU1@@std@@YAXPAUtagInventoryItemInfo@@ABU1@@Z$0
__ehfuncinfo$??$_Construct@UtagInventoryItemInfo@@ABU1@@std@@YAXPAUtagInventoryItemInfo@@ABU1@@Z DD 019930522H
	DD	01H
	DD	FLAT:__unwindtable$??$_Construct@UtagInventoryItemInfo@@ABU1@@std@@YAXPAUtagInventoryItemInfo@@ABU1@@Z
	DD	2 DUP(00H)
	DD	2 DUP(00H)
	DD	00H
	DD	01H
; Function compile flags: /Ogsp
; File c:\program files (x86)\microsoft visual studio 10.0\vc\include\xmemory
xdata$x	ENDS
;	COMDAT ??$_Construct@UtagInventoryItemInfo@@ABU1@@std@@YAXPAUtagInventoryItemInfo@@ABU1@@Z
_TEXT	SEGMENT
$T510915 = -16						; size = 4
__$EHRec$ = -12						; size = 12
__Vptr$ = 8						; size = 4
__Ptr$ = 8						; size = 4
__Val$ = 12						; size = 4
??$_Construct@UtagInventoryItemInfo@@ABU1@@std@@YAXPAUtagInventoryItemInfo@@ABU1@@Z PROC ; std::_Construct<tagInventoryItemInfo,tagInventoryItemInfo const &>, COMDAT

; 46   : 	{	// construct object at _Ptr with value _Val

  00000	6a 04		 push	 4
  00002	b8 00 00 00 00	 mov	 eax, __ehhandler$??$_Construct@UtagInventoryItemInfo@@ABU1@@std@@YAXPAUtagInventoryItemInfo@@ABU1@@Z
  00007	e8 00 00 00 00	 call	 __EH_prolog3

; 47   : 	void _FARQ *_Vptr = _Ptr;

  0000c	8b 4d 08	 mov	 ecx, DWORD PTR __Ptr$[ebp]
  0000f	89 4d 08	 mov	 DWORD PTR __Vptr$[ebp], ecx

; 48   : 	::new (_Vptr) _Ty1(_STD forward<_Ty2>(_Val));

  00012	89 4d f0	 mov	 DWORD PTR $T510915[ebp], ecx
  00015	83 65 fc 00	 and	 DWORD PTR __$EHRec$[ebp+8], 0
  00019	85 c9		 test	 ecx, ecx
  0001b	74 08		 je	 SHORT $LN3@Construct
  0001d	ff 75 0c	 push	 DWORD PTR __Val$[ebp]
  00020	e8 00 00 00 00	 call	 ??0tagInventoryItemInfo@@QAE@ABU0@@Z
$LN3@Construct:

; 49   : 	}

  00025	e8 00 00 00 00	 call	 __EH_epilog3
  0002a	c3		 ret	 0
_TEXT	ENDS
;	COMDAT text$x
text$x	SEGMENT
__unwindfunclet$??$_Construct@UtagInventoryItemInfo@@ABU1@@std@@YAXPAUtagInventoryItemInfo@@ABU1@@Z$0:
  00000	ff 75 08	 push	 DWORD PTR __Vptr$[ebp]
  00003	ff 75 f0	 push	 DWORD PTR $T510915[ebp]
  00006	e8 00 00 00 00	 call	 ??3@YAXPAX0@Z		; operator delete
  0000b	59		 pop	 ecx
  0000c	59		 pop	 ecx
  0000d	c3		 ret	 0
__ehhandler$??$_Construct@UtagInventoryItemInfo@@ABU1@@std@@YAXPAUtagInventoryItemInfo@@ABU1@@Z:
  0000e	8b 54 24 08	 mov	 edx, DWORD PTR [esp+8]
  00012	8d 42 0c	 lea	 eax, DWORD PTR [edx+12]
  00015	8b 4a ec	 mov	 ecx, DWORD PTR [edx-20]
  00018	33 c8		 xor	 ecx, eax
  0001a	e8 00 00 00 00	 call	 @__security_check_cookie@4
  0001f	b8 00 00 00 00	 mov	 eax, OFFSET __ehfuncinfo$??$_Construct@UtagInventoryItemInfo@@ABU1@@std@@YAXPAUtagInventoryItemInfo@@ABU1@@Z
  00024	e9 00 00 00 00	 jmp	 ___CxxFrameHandler3
text$x	ENDS
??$_Construct@UtagInventoryItemInfo@@ABU1@@std@@YAXPAUtagInventoryItemInfo@@ABU1@@Z ENDP ; std::_Construct<tagInventoryItemInfo,tagInventoryItemInfo const &>
PUBLIC	?_Unchecked@?$_Vector_iterator@V?$_Vector_val@UtagInventoryItemInfo@@V?$allocator@UtagInventoryItemInfo@@@std@@@std@@@std@@QBEPAUtagInventoryItemInfo@@XZ ; std::_Vector_iterator<std::_Vector_val<tagInventoryItemInfo,std::allocator<tagInventoryItemInfo> > >::_Unchecked
; Function compile flags: /Ogsp
; File c:\program files (x86)\microsoft visual studio 10.0\vc\include\vector
;	COMDAT ?_Unchecked@?$_Vector_iterator@V?$_Vector_val@UtagInventoryItemInfo@@V?$allocator@UtagInventoryItemInfo@@@std@@@std@@@std@@QBEPAUtagInventoryItemInfo@@XZ
_TEXT	SEGMENT
?_Unchecked@?$_Vector_iterator@V?$_Vector_val@UtagInventoryItemInfo@@V?$allocator@UtagInventoryItemInfo@@@std@@@std@@@std@@QBEPAUtagInventoryItemInfo@@XZ PROC ; std::_Vector_iterator<std::_Vector_val<tagInventoryItemInfo,std::allocator<tagInventoryItemInfo> > >::_Unchecked, COMDAT
; _this$ = ecx

; 317  : 		return (_Unchecked_type(this->_Ptr));

  00000	8b 01		 mov	 eax, DWORD PTR [ecx]

; 318  : 		}

  00002	c3		 ret	 0
?_Unchecked@?$_Vector_iterator@V?$_Vector_val@UtagInventoryItemInfo@@V?$allocator@UtagInventoryItemInfo@@@std@@@std@@@std@@QBEPAUtagInventoryItemInfo@@XZ ENDP ; std::_Vector_iterator<std::_Vector_val<tagInventoryItemInfo,std::allocator<tagInventoryItemInfo> > >::_Unchecked
_TEXT	ENDS
PUBLIC	??$move@AAUtagInventoryItemInfo@@@std@@YA$$QAUtagInventoryItemInfo@@AAU1@@Z ; std::move<tagInventoryItemInfo &>
; Function compile flags: /Ogsp
; File c:\program files (x86)\microsoft visual studio 10.0\vc\include\utility
;	COMDAT ??$move@AAUtagInventoryItemInfo@@@std@@YA$$QAUtagInventoryItemInfo@@AAU1@@Z
_TEXT	SEGMENT
__Arg$ = 8						; size = 4
??$move@AAUtagInventoryItemInfo@@@std@@YA$$QAUtagInventoryItemInfo@@AAU1@@Z PROC ; std::move<tagInventoryItemInfo &>, COMDAT

; 86   : 	{	// forward _Arg as movable

  00000	55		 push	 ebp
  00001	8b ec		 mov	 ebp, esp

; 87   : 	return ((typename tr1::_Remove_reference<_Ty>::_Type&&)_Arg);

  00003	8b 45 08	 mov	 eax, DWORD PTR __Arg$[ebp]

; 88   : 	}

  00006	5d		 pop	 ebp
  00007	c3		 ret	 0
??$move@AAUtagInventoryItemInfo@@@std@@YA$$QAUtagInventoryItemInfo@@AAU1@@Z ENDP ; std::move<tagInventoryItemInfo &>
_TEXT	ENDS
PUBLIC	??$_Val_type@PAUtagInventoryItemInfo@@@std@@YAPAUtagInventoryItemInfo@@PAU1@@Z ; std::_Val_type<tagInventoryItemInfo *>
; Function compile flags: /Ogsp
; File c:\program files (x86)\microsoft visual studio 10.0\vc\include\xutility
;	COMDAT ??$_Val_type@PAUtagInventoryItemInfo@@@std@@YAPAUtagInventoryItemInfo@@PAU1@@Z
_TEXT	SEGMENT
___formal$ = 8						; size = 4
??$_Val_type@PAUtagInventoryItemInfo@@@std@@YAPAUtagInventoryItemInfo@@PAU1@@Z PROC ; std::_Val_type<tagInventoryItemInfo *>, COMDAT

; 790  : 	return (0);

  00000	33 c0		 xor	 eax, eax

; 791  : 	}

  00002	c3		 ret	 0
??$_Val_type@PAUtagInventoryItemInfo@@@std@@YAPAUtagInventoryItemInfo@@PAU1@@Z ENDP ; std::_Val_type<tagInventoryItemInfo *>
_TEXT	ENDS
PUBLIC	??$_Unchecked@PAUtagInventoryItemInfo@@@std@@YAPAUtagInventoryItemInfo@@PAU1@@Z ; std::_Unchecked<tagInventoryItemInfo *>
; Function compile flags: /Ogsp
;	COMDAT ??$_Unchecked@PAUtagInventoryItemInfo@@@std@@YAPAUtagInventoryItemInfo@@PAU1@@Z
_TEXT	SEGMENT
__Src$ = 8						; size = 4
??$_Unchecked@PAUtagInventoryItemInfo@@@std@@YAPAUtagInventoryItemInfo@@PAU1@@Z PROC ; std::_Unchecked<tagInventoryItemInfo *>, COMDAT

; 266  : 	{	// construct unchecked from checked, generic

  00000	55		 push	 ebp
  00001	8b ec		 mov	 ebp, esp

; 267  : 	return (_Src);

  00003	8b 45 08	 mov	 eax, DWORD PTR __Src$[ebp]

; 268  : 	}

  00006	5d		 pop	 ebp
  00007	c3		 ret	 0
??$_Unchecked@PAUtagInventoryItemInfo@@@std@@YAPAUtagInventoryItemInfo@@PAU1@@Z ENDP ; std::_Unchecked<tagInventoryItemInfo *>
_TEXT	ENDS
PUBLIC	??$_Dist_type@PAUtagInventoryItemInfo@@@std@@YAPAHPAUtagInventoryItemInfo@@@Z ; std::_Dist_type<tagInventoryItemInfo *>
; Function compile flags: /Ogsp
;	COMDAT ??$_Dist_type@PAUtagInventoryItemInfo@@@std@@YAPAHPAUtagInventoryItemInfo@@@Z
_TEXT	SEGMENT
___formal$ = 8						; size = 4
??$_Dist_type@PAUtagInventoryItemInfo@@@std@@YAPAHPAUtagInventoryItemInfo@@@Z PROC ; std::_Dist_type<tagInventoryItemInfo *>, COMDAT

; 850  : 	return (0);

  00000	33 c0		 xor	 eax, eax

; 851  : 	}

  00002	c3		 ret	 0
??$_Dist_type@PAUtagInventoryItemInfo@@@std@@YAPAHPAUtagInventoryItemInfo@@@Z ENDP ; std::_Dist_type<tagInventoryItemInfo *>
_TEXT	ENDS
PUBLIC	??_GtagInventoryItemInfo@@QAEPAXI@Z		; tagInventoryItemInfo::`scalar deleting destructor'
; Function compile flags: /Ogsp
;	COMDAT ??_GtagInventoryItemInfo@@QAEPAXI@Z
_TEXT	SEGMENT
___flags$ = 8						; size = 4
??_GtagInventoryItemInfo@@QAEPAXI@Z PROC		; tagInventoryItemInfo::`scalar deleting destructor', COMDAT
; _this$ = ecx
  00000	55		 push	 ebp
  00001	8b ec		 mov	 ebp, esp
  00003	56		 push	 esi
  00004	8b f1		 mov	 esi, ecx
  00006	8d 4e 24	 lea	 ecx, DWORD PTR [esi+36]
  00009	ff 15 00 00 00
	00		 call	 DWORD PTR __imp_??1ioHashString@@QAE@XZ
  0000f	f6 45 08 01	 test	 BYTE PTR ___flags$[ebp], 1
  00013	74 07		 je	 SHORT $LN1@scalar@2
  00015	56		 push	 esi
  00016	e8 00 00 00 00	 call	 ??3@YAXPAX@Z		; operator delete
  0001b	59		 pop	 ecx
$LN1@scalar@2:
  0001c	8b c6		 mov	 eax, esi
  0001e	5e		 pop	 esi
  0001f	5d		 pop	 ebp
  00020	c2 04 00	 ret	 4
??_GtagInventoryItemInfo@@QAEPAXI@Z ENDP		; tagInventoryItemInfo::`scalar deleting destructor'
_TEXT	ENDS
PUBLIC	??$forward@AAPAUtagInventoryItemInfo@@@std@@YAAAPAUtagInventoryItemInfo@@AAPAU1@@Z ; std::forward<tagInventoryItemInfo * &>
; Function compile flags: /Ogsp
; File c:\program files (x86)\microsoft visual studio 10.0\vc\include\utility
;	COMDAT ??$forward@AAPAUtagInventoryItemInfo@@@std@@YAAAPAUtagInventoryItemInfo@@AAPAU1@@Z
_TEXT	SEGMENT
__Arg$ = 8						; size = 4
??$forward@AAPAUtagInventoryItemInfo@@@std@@YAAAPAUtagInventoryItemInfo@@AAPAU1@@Z PROC ; std::forward<tagInventoryItemInfo * &>, COMDAT

; 78   : 	{	// forward _Arg, given explicitly specified type parameter

  00000	55		 push	 ebp
  00001	8b ec		 mov	 ebp, esp

; 79   : 	return ((_Ty&&)_Arg);

  00003	8b 45 08	 mov	 eax, DWORD PTR __Arg$[ebp]

; 80   : 	}

  00006	5d		 pop	 ebp
  00007	c3		 ret	 0
??$forward@AAPAUtagInventoryItemInfo@@@std@@YAAAPAUtagInventoryItemInfo@@AAPAU1@@Z ENDP ; std::forward<tagInventoryItemInfo * &>
_TEXT	ENDS
PUBLIC	??$?0AAPAUtagInventoryItemInfo@@AAPAU0@@?$_Pair_base@PAUtagInventoryItemInfo@@PAU1@@std@@QAE@AAPAUtagInventoryItemInfo@@0@Z ; std::_Pair_base<tagInventoryItemInfo *,tagInventoryItemInfo *>::_Pair_base<tagInventoryItemInfo *,tagInventoryItemInfo *><tagInventoryItemInfo * &,tagInventoryItemInfo * &>
; Function compile flags: /Ogsp
;	COMDAT ??$?0AAPAUtagInventoryItemInfo@@AAPAU0@@?$_Pair_base@PAUtagInventoryItemInfo@@PAU1@@std@@QAE@AAPAUtagInventoryItemInfo@@0@Z
_TEXT	SEGMENT
__Val1$ = 8						; size = 4
__Val2$ = 12						; size = 4
??$?0AAPAUtagInventoryItemInfo@@AAPAU0@@?$_Pair_base@PAUtagInventoryItemInfo@@PAU1@@std@@QAE@AAPAUtagInventoryItemInfo@@0@Z PROC ; std::_Pair_base<tagInventoryItemInfo *,tagInventoryItemInfo *>::_Pair_base<tagInventoryItemInfo *,tagInventoryItemInfo *><tagInventoryItemInfo * &,tagInventoryItemInfo * &>, COMDAT
; _this$ = ecx

; 163  : 		{	// construct from moved values

  00000	55		 push	 ebp
  00001	8b ec		 mov	 ebp, esp
  00003	8b c1		 mov	 eax, ecx
  00005	8b 4d 08	 mov	 ecx, DWORD PTR __Val1$[ebp]
  00008	8b 09		 mov	 ecx, DWORD PTR [ecx]
  0000a	89 08		 mov	 DWORD PTR [eax], ecx
  0000c	8b 4d 0c	 mov	 ecx, DWORD PTR __Val2$[ebp]
  0000f	8b 09		 mov	 ecx, DWORD PTR [ecx]
  00011	89 48 04	 mov	 DWORD PTR [eax+4], ecx

; 164  : 		}

  00014	5d		 pop	 ebp
  00015	c2 08 00	 ret	 8
??$?0AAPAUtagInventoryItemInfo@@AAPAU0@@?$_Pair_base@PAUtagInventoryItemInfo@@PAU1@@std@@QAE@AAPAUtagInventoryItemInfo@@0@Z ENDP ; std::_Pair_base<tagInventoryItemInfo *,tagInventoryItemInfo *>::_Pair_base<tagInventoryItemInfo *,tagInventoryItemInfo *><tagInventoryItemInfo * &,tagInventoryItemInfo * &>
_TEXT	ENDS
PUBLIC	??$_Move@AAUtagInventoryItemInfo@@@std@@YA$$QAUtagInventoryItemInfo@@AAU1@@Z ; std::_Move<tagInventoryItemInfo &>
; Function compile flags: /Ogsp
;	COMDAT ??$_Move@AAUtagInventoryItemInfo@@@std@@YA$$QAUtagInventoryItemInfo@@AAU1@@Z
_TEXT	SEGMENT
__Arg$ = 8						; size = 4
??$_Move@AAUtagInventoryItemInfo@@@std@@YA$$QAUtagInventoryItemInfo@@AAU1@@Z PROC ; std::_Move<tagInventoryItemInfo &>, COMDAT

; 94   : 	{	// forward _Arg as movable

  00000	55		 push	 ebp
  00001	8b ec		 mov	 ebp, esp

; 95   : 	return ((typename tr1::_Remove_reference<_Ty>::_Type&&)_Arg);

  00003	8b 45 08	 mov	 eax, DWORD PTR __Arg$[ebp]

; 96   : 	}

  00006	5d		 pop	 ebp
  00007	c3		 ret	 0
??$_Move@AAUtagInventoryItemInfo@@@std@@YA$$QAUtagInventoryItemInfo@@AAU1@@Z ENDP ; std::_Move<tagInventoryItemInfo &>
_TEXT	ENDS
PUBLIC	??$forward@UtagInventoryItemInfo@@@std@@YA$$QAUtagInventoryItemInfo@@AAU1@@Z ; std::forward<tagInventoryItemInfo>
; Function compile flags: /Ogsp
;	COMDAT ??$forward@UtagInventoryItemInfo@@@std@@YA$$QAUtagInventoryItemInfo@@AAU1@@Z
_TEXT	SEGMENT
__Arg$ = 8						; size = 4
??$forward@UtagInventoryItemInfo@@@std@@YA$$QAUtagInventoryItemInfo@@AAU1@@Z PROC ; std::forward<tagInventoryItemInfo>, COMDAT

; 78   : 	{	// forward _Arg, given explicitly specified type parameter

  00000	55		 push	 ebp
  00001	8b ec		 mov	 ebp, esp

; 79   : 	return ((_Ty&&)_Arg);

  00003	8b 45 08	 mov	 eax, DWORD PTR __Arg$[ebp]

; 80   : 	}

  00006	5d		 pop	 ebp
  00007	c3		 ret	 0
??$forward@UtagInventoryItemInfo@@@std@@YA$$QAUtagInventoryItemInfo@@AAU1@@Z ENDP ; std::forward<tagInventoryItemInfo>
_TEXT	ENDS
PUBLIC	??$_Move_backward@PAUtagInventoryItemInfo@@PAU1@@std@@YAPAUtagInventoryItemInfo@@PAU1@00U_Nonscalar_ptr_iterator_tag@0@@Z ; std::_Move_backward<tagInventoryItemInfo *,tagInventoryItemInfo *>
; Function compile flags: /Ogsp
; File c:\program files (x86)\microsoft visual studio 10.0\vc\include\xutility
;	COMDAT ??$_Move_backward@PAUtagInventoryItemInfo@@PAU1@@std@@YAPAUtagInventoryItemInfo@@PAU1@00U_Nonscalar_ptr_iterator_tag@0@@Z
_TEXT	SEGMENT
__First$ = 8						; size = 4
__Last$ = 12						; size = 4
__Dest$ = 16						; size = 4
___formal$ = 20						; size = 1
??$_Move_backward@PAUtagInventoryItemInfo@@PAU1@@std@@YAPAUtagInventoryItemInfo@@PAU1@00U_Nonscalar_ptr_iterator_tag@0@@Z PROC ; std::_Move_backward<tagInventoryItemInfo *,tagInventoryItemInfo *>, COMDAT

; 2617 : 	{	// move [_First, _Last) backwards to [..., _Dest), arbitrary iterators

  00000	55		 push	 ebp
  00001	8b ec		 mov	 ebp, esp
  00003	56		 push	 esi

; 2618 : 	while (_First != _Last)

  00004	8b 75 0c	 mov	 esi, DWORD PTR __Last$[ebp]
  00007	39 75 08	 cmp	 DWORD PTR __First$[ebp], esi
  0000a	74 15		 je	 SHORT $LN9@Move_backw
$LL2@Move_backw:

; 2619 : 		*--_Dest = _STD move(*--_Last);

  0000c	83 6d 10 48	 sub	 DWORD PTR __Dest$[ebp], 72 ; 00000048H
  00010	8b 4d 10	 mov	 ecx, DWORD PTR __Dest$[ebp]
  00013	83 ee 48	 sub	 esi, 72			; 00000048H
  00016	56		 push	 esi
  00017	e8 00 00 00 00	 call	 ??4tagInventoryItemInfo@@QAEAAU0@ABU0@@Z
  0001c	3b 75 08	 cmp	 esi, DWORD PTR __First$[ebp]
  0001f	75 eb		 jne	 SHORT $LL2@Move_backw
$LN9@Move_backw:

; 2620 : 	return (_Dest);

  00021	8b 45 10	 mov	 eax, DWORD PTR __Dest$[ebp]
  00024	5e		 pop	 esi

; 2621 : 	}

  00025	5d		 pop	 ebp
  00026	c3		 ret	 0
??$_Move_backward@PAUtagInventoryItemInfo@@PAU1@@std@@YAPAUtagInventoryItemInfo@@PAU1@00U_Nonscalar_ptr_iterator_tag@0@@Z ENDP ; std::_Move_backward<tagInventoryItemInfo *,tagInventoryItemInfo *>
_TEXT	ENDS
PUBLIC	?_DECSTR@@YAXPADH@Z				; _DECSTR
; Function compile flags: /Ogsp
; File d:\lost saga for developer\youtube\tutorial\source\src\lsclient\stringprotect.h
;	COMDAT ?_DECSTR@@YAXPADH@Z
_TEXT	SEGMENT
_s$ = 8							; size = 4
_l$ = 12						; size = 4
?_DECSTR@@YAXPADH@Z PROC				; _DECSTR, COMDAT

; 40   : __forceinline void _DECSTR(char* s, int l){int i=0,l4=(l-1)/4,*p=(int*)s;s[l-1]=0;for(;i<l4;++i)*(p++)^=0xEAEBECED;for(i=l4*4;i<l-1;++i)s[i]^=0xED-i%4;}

  00000	55		 push	 ebp
  00001	8b ec		 mov	 ebp, esp
  00003	8b 4d 0c	 mov	 ecx, DWORD PTR _l$[ebp]
  00006	56		 push	 esi
  00007	8b 75 08	 mov	 esi, DWORD PTR _s$[ebp]
  0000a	57		 push	 edi
  0000b	8d 79 ff	 lea	 edi, DWORD PTR [ecx-1]
  0000e	8b c7		 mov	 eax, edi
  00010	99		 cdq
  00011	83 e2 03	 and	 edx, 3
  00014	03 c2		 add	 eax, edx
  00016	c1 f8 02	 sar	 eax, 2
  00019	8b d6		 mov	 edx, esi
  0001b	c6 44 0e ff 00	 mov	 BYTE PTR [esi+ecx-1], 0
  00020	85 c0		 test	 eax, eax
  00022	7e 0e		 jle	 SHORT $LN4@DECSTR
  00024	8b c8		 mov	 ecx, eax
$LL6@DECSTR:
  00026	81 32 ed ec eb
	ea		 xor	 DWORD PTR [edx], -353637139 ; eaebecedH
  0002c	83 c2 04	 add	 edx, 4
  0002f	49		 dec	 ecx
  00030	75 f4		 jne	 SHORT $LL6@DECSTR
$LN4@DECSTR:
  00032	c1 e0 02	 shl	 eax, 2
  00035	eb 17		 jmp	 SHORT $LN14@DECSTR
$LL3@DECSTR:
  00037	8b c8		 mov	 ecx, eax
  00039	81 e1 03 00 00
	80		 and	 ecx, -2147483645	; 80000003H
  0003f	79 05		 jns	 SHORT $LN13@DECSTR
  00041	49		 dec	 ecx
  00042	83 c9 fc	 or	 ecx, -4			; fffffffcH
  00045	41		 inc	 ecx
$LN13@DECSTR:
  00046	b2 ed		 mov	 dl, -19			; ffffffedH
  00048	2a d1		 sub	 dl, cl
  0004a	30 14 30	 xor	 BYTE PTR [eax+esi], dl
  0004d	40		 inc	 eax
$LN14@DECSTR:
  0004e	3b c7		 cmp	 eax, edi
  00050	7c e5		 jl	 SHORT $LL3@DECSTR
  00052	5f		 pop	 edi
  00053	5e		 pop	 esi
  00054	5d		 pop	 ebp
  00055	c3		 ret	 0
?_DECSTR@@YAXPADH@Z ENDP				; _DECSTR
_TEXT	ENDS
PUBLIC	?GetTradePeriod@TradeInfoManager@@QBEHXZ	; TradeInfoManager::GetTradePeriod
; Function compile flags: /Ogsp
; File d:\lost saga for developer\youtube\tutorial\source\src\lsclient\tradeinfomanager.h
;	COMDAT ?GetTradePeriod@TradeInfoManager@@QBEHXZ
_TEXT	SEGMENT
?GetTradePeriod@TradeInfoManager@@QBEHXZ PROC		; TradeInfoManager::GetTradePeriod, COMDAT
; _this$ = ecx

; 116  : 	inline int GetTradePeriod() const { return m_iTradePeriod; }

  00000	8b 41 34	 mov	 eax, DWORD PTR [ecx+52]
  00003	c3		 ret	 0
?GetTradePeriod@TradeInfoManager@@QBEHXZ ENDP		; TradeInfoManager::GetTradePeriod
_TEXT	ENDS
PUBLIC	?GetRegisterLimitLv@TradeInfoManager@@QBEHXZ	; TradeInfoManager::GetRegisterLimitLv
; Function compile flags: /Ogsp
;	COMDAT ?GetRegisterLimitLv@TradeInfoManager@@QBEHXZ
_TEXT	SEGMENT
?GetRegisterLimitLv@TradeInfoManager@@QBEHXZ PROC	; TradeInfoManager::GetRegisterLimitLv, COMDAT
; _this$ = ecx

; 119  : 	inline int GetRegisterLimitLv() const { return m_iRegisterLimitLevel; }

  00000	8b 41 68	 mov	 eax, DWORD PTR [ecx+104]
  00003	c3		 ret	 0
?GetRegisterLimitLv@TradeInfoManager@@QBEHXZ ENDP	; TradeInfoManager::GetRegisterLimitLv
_TEXT	ENDS
PUBLIC	?GetRegisterTexRate@TradeInfoManager@@QBEMXZ	; TradeInfoManager::GetRegisterTexRate
; Function compile flags: /Ogsp
;	COMDAT ?GetRegisterTexRate@TradeInfoManager@@QBEMXZ
_TEXT	SEGMENT
?GetRegisterTexRate@TradeInfoManager@@QBEMXZ PROC	; TradeInfoManager::GetRegisterTexRate, COMDAT
; _this$ = ecx

; 121  : 	inline float GetRegisterTexRate() const { return m_fRegisterTex; }

  00000	d9 41 70	 fld	 DWORD PTR [ecx+112]
  00003	c3		 ret	 0
?GetRegisterTexRate@TradeInfoManager@@QBEMXZ ENDP	; TradeInfoManager::GetRegisterTexRate
_TEXT	ENDS
PUBLIC	?GetPCRoomRegisterTexRate@TradeInfoManager@@QBEMXZ ; TradeInfoManager::GetPCRoomRegisterTexRate
; Function compile flags: /Ogsp
;	COMDAT ?GetPCRoomRegisterTexRate@TradeInfoManager@@QBEMXZ
_TEXT	SEGMENT
?GetPCRoomRegisterTexRate@TradeInfoManager@@QBEMXZ PROC	; TradeInfoManager::GetPCRoomRegisterTexRate, COMDAT
; _this$ = ecx

; 124  : 	inline float GetPCRoomRegisterTexRate() const { return m_fPCRoomRegisterTex; }

  00000	d9 41 78	 fld	 DWORD PTR [ecx+120]
  00003	c3		 ret	 0
?GetPCRoomRegisterTexRate@TradeInfoManager@@QBEMXZ ENDP	; TradeInfoManager::GetPCRoomRegisterTexRate
_TEXT	ENDS
PUBLIC	?GetName@ioItem@@QBEABVioHashString@@XZ		; ioItem::GetName
; Function compile flags: /Ogsp
; File d:\lost saga for developer\youtube\tutorial\source\src\lsclient\ioitem.h
;	COMDAT ?GetName@ioItem@@QBEABVioHashString@@XZ
_TEXT	SEGMENT
?GetName@ioItem@@QBEABVioHashString@@XZ PROC		; ioItem::GetName, COMDAT
; _this$ = ecx

; 269  : 	inline const ioHashString& GetName() const { return m_Name; }

  00000	8d 81 34 01 00
	00		 lea	 eax, DWORD PTR [ecx+308]
  00006	c3		 ret	 0
?GetName@ioItem@@QBEABVioHashString@@XZ ENDP		; ioItem::GetName
_TEXT	ENDS
PUBLIC	?GetItemLargeIconName@ioItem@@QBEABVioHashString@@XZ ; ioItem::GetItemLargeIconName
; Function compile flags: /Ogsp
;	COMDAT ?GetItemLargeIconName@ioItem@@QBEABVioHashString@@XZ
_TEXT	SEGMENT
?GetItemLargeIconName@ioItem@@QBEABVioHashString@@XZ PROC ; ioItem::GetItemLargeIconName, COMDAT
; _this$ = ecx

; 288  : 	inline const ioHashString& GetItemLargeIconName() const { return m_ItemLargeIconFile; }

  00000	8d 81 14 02 00
	00		 lea	 eax, DWORD PTR [ecx+532]
  00006	c3		 ret	 0
?GetItemLargeIconName@ioItem@@QBEABVioHashString@@XZ ENDP ; ioItem::GetItemLargeIconName
_TEXT	ENDS
PUBLIC	?GetEnableClass@ioItem@@QBEHXZ			; ioItem::GetEnableClass
; Function compile flags: /Ogsp
;	COMDAT ?GetEnableClass@ioItem@@QBEHXZ
_TEXT	SEGMENT
?GetEnableClass@ioItem@@QBEHXZ PROC			; ioItem::GetEnableClass, COMDAT
; _this$ = ecx

; 403  : 	inline int GetEnableClass() const { return m_iEnableClass; }

  00000	8b 81 bc 04 00
	00		 mov	 eax, DWORD PTR [ecx+1212]
  00006	c3		 ret	 0
?GetEnableClass@ioItem@@QBEHXZ ENDP			; ioItem::GetEnableClass
_TEXT	ENDS
PUBLIC	?GetGradeType@ioItem@@QBEHXZ			; ioItem::GetGradeType
; Function compile flags: /Ogsp
;	COMDAT ?GetGradeType@ioItem@@QBEHXZ
_TEXT	SEGMENT
?GetGradeType@ioItem@@QBEHXZ PROC			; ioItem::GetGradeType, COMDAT
; _this$ = ecx

; 445  : 	inline int GetGradeType() const { return m_nGradeType; }

  00000	8b 81 20 06 00
	00		 mov	 eax, DWORD PTR [ecx+1568]
  00006	c3		 ret	 0
?GetGradeType@ioItem@@QBEHXZ ENDP			; ioItem::GetGradeType
_TEXT	ENDS
PUBLIC	?Init@EXTRAITEMSLOT@@QAEXXZ			; EXTRAITEMSLOT::Init
; Function compile flags: /Ogsp
; File d:\lost saga for developer\youtube\tutorial\source\src\lsclient\iouserextraitem.h
;	COMDAT ?Init@EXTRAITEMSLOT@@QAEXXZ
_TEXT	SEGMENT
?Init@EXTRAITEMSLOT@@QAEXXZ PROC			; EXTRAITEMSLOT::Init, COMDAT
; _this$ = ecx

; 50   : 		m_iItemCode = 0;

  00000	33 c0		 xor	 eax, eax

; 51   : 		m_iReinforce = 0;
; 52   : 		m_iIndex = 0;
; 53   : 
; 54   : 		m_PeriodType = EPT_TIME;
; 55   : 		m_iValue1 = 0;
; 56   : 		m_iValue2 = 0;
; 57   : 
; 58   : 		m_iTradeState = EET_DISABLE;
; 59   : 	
; 60   : 		m_dwMaleCustom = 0;
; 61   : 		m_dwFemaleCustom = 0;
; 62   : 		m_failExp = 0;

  00002	33 d2		 xor	 edx, edx
  00004	89 01		 mov	 DWORD PTR [ecx], eax
  00006	89 41 04	 mov	 DWORD PTR [ecx+4], eax
  00009	89 41 08	 mov	 DWORD PTR [ecx+8], eax
  0000c	89 41 0c	 mov	 DWORD PTR [ecx+12], eax
  0000f	89 41 10	 mov	 DWORD PTR [ecx+16], eax
  00012	89 41 14	 mov	 DWORD PTR [ecx+20], eax
  00015	89 41 18	 mov	 DWORD PTR [ecx+24], eax
  00018	89 41 1c	 mov	 DWORD PTR [ecx+28], eax
  0001b	89 41 20	 mov	 DWORD PTR [ecx+32], eax
  0001e	66 89 51 24	 mov	 WORD PTR [ecx+36], dx

; 63   : 
; 64   : 		m_bCharEquip = false;

  00022	88 41 26	 mov	 BYTE PTR [ecx+38], al

; 65   : 	}

  00025	c3		 ret	 0
?Init@EXTRAITEMSLOT@@QAEXXZ ENDP			; EXTRAITEMSLOT::Init
_TEXT	ENDS
PUBLIC	?Init@tagInventoryItemInfo@@QAEXXZ		; tagInventoryItemInfo::Init
; Function compile flags: /Ogsp
; File d:\lost saga for developer\youtube\tutorial\source\src\lsclient\gui\myinventorywnd.h
;	COMDAT ?Init@tagInventoryItemInfo@@QAEXXZ
_TEXT	SEGMENT
?Init@tagInventoryItemInfo@@QAEXXZ PROC			; tagInventoryItemInfo::Init, COMDAT
; _this$ = ecx

; 128  : 		m_iMainType = 0;

  00000	33 c0		 xor	 eax, eax

; 129  : 		m_iMagicCode = 0;
; 130  : 		m_iMagicCodeEx = 0;
; 131  : 		m_iMagicCodeEx2= 0;
; 132  : 		m_iManualIndex = 0;
; 133  : 
; 134  : 		m_bEquip = false;
; 135  : 		m_bActive = true;
; 136  : 
; 137  : 		m_iSexType  = 0;
; 138  : 		m_iDecoType = 0;
; 139  : 		m_iDecoCode = 0;
; 140  : 		m_iPriorityOrder = 999999999; // ORDER_DEFAULT

  00002	ba ff c9 9a 3b	 mov	 edx, 999999999		; 3b9ac9ffH
  00007	89 01		 mov	 DWORD PTR [ecx], eax
  00009	89 41 04	 mov	 DWORD PTR [ecx+4], eax
  0000c	89 41 08	 mov	 DWORD PTR [ecx+8], eax
  0000f	89 41 0c	 mov	 DWORD PTR [ecx+12], eax
  00012	89 41 10	 mov	 DWORD PTR [ecx+16], eax
  00015	88 41 14	 mov	 BYTE PTR [ecx+20], al
  00018	c6 41 3c 01	 mov	 BYTE PTR [ecx+60], 1
  0001c	89 41 18	 mov	 DWORD PTR [ecx+24], eax
  0001f	89 41 1c	 mov	 DWORD PTR [ecx+28], eax
  00022	89 41 20	 mov	 DWORD PTR [ecx+32], eax
  00025	89 51 40	 mov	 DWORD PTR [ecx+64], edx

; 141  : 		m_iPriorityOrder2 = 999999999;

  00028	89 51 44	 mov	 DWORD PTR [ecx+68], edx

; 142  : 
; 143  : 		m_iSubscriptionGold = 0;

  0002b	89 41 34	 mov	 DWORD PTR [ecx+52], eax

; 144  : 		m_iSubscriptionBonusGold = 0;

  0002e	89 41 38	 mov	 DWORD PTR [ecx+56], eax

; 145  : 	}

  00031	c3		 ret	 0
?Init@tagInventoryItemInfo@@QAEXXZ ENDP			; tagInventoryItemInfo::Init
_TEXT	ENDS
PUBLIC	??RInventoryItemInfoSort2@@QBE_NABUtagInventoryItemInfo@@0@Z ; InventoryItemInfoSort2::operator()
; Function compile flags: /Ogsp
;	COMDAT ??RInventoryItemInfoSort2@@QBE_NABUtagInventoryItemInfo@@0@Z
_TEXT	SEGMENT
_lhs$ = 8						; size = 4
_rhs$ = 12						; size = 4
??RInventoryItemInfoSort2@@QBE_NABUtagInventoryItemInfo@@0@Z PROC ; InventoryItemInfoSort2::operator(), COMDAT
; _this$ = ecx

; 225  : 	{

  00000	55		 push	 ebp
  00001	8b ec		 mov	 ebp, esp

; 226  : 		if( lhs.m_iMainType == INVENTORY_ITEM_ETC && rhs.m_iMainType != INVENTORY_ITEM_ETC )

  00003	8b 45 08	 mov	 eax, DWORD PTR _lhs$[ebp]
  00006	8b 4d 0c	 mov	 ecx, DWORD PTR _rhs$[ebp]
  00009	56		 push	 esi
  0000a	8b 30		 mov	 esi, DWORD PTR [eax]
  0000c	83 fe 03	 cmp	 esi, 3
  0000f	75 1e		 jne	 SHORT $LN16@operator
  00011	39 31		 cmp	 DWORD PTR [ecx], esi
  00013	74 04		 je	 SHORT $LN13@operator
$LN20@operator:

; 227  : 			return true;

  00015	b0 01		 mov	 al, 1
  00017	eb 25		 jmp	 SHORT $LN14@operator
$LN13@operator:

; 228  : 
; 229  : 		if( lhs.m_iMainType == INVENTORY_ITEM_ETC && rhs.m_iMainType == INVENTORY_ITEM_ETC )
; 230  : 		{
; 231  : 			if( lhs.m_iMagicCode > rhs.m_iMagicCode )

  00019	8b 50 04	 mov	 edx, DWORD PTR [eax+4]
  0001c	8b 71 04	 mov	 esi, DWORD PTR [ecx+4]
  0001f	3b d6		 cmp	 edx, esi

; 232  : 				return true;

  00021	7f f2		 jg	 SHORT $LN20@operator

; 233  : 
; 234  : 			if( lhs.m_iMagicCode == rhs.m_iMagicCode )

  00023	75 17		 jne	 SHORT $LN1@operator

; 235  : 			{
; 236  : 				if( lhs.m_iPriorityOrder < rhs.m_iPriorityOrder )

  00025	8b 40 40	 mov	 eax, DWORD PTR [eax+64]
  00028	3b 41 40	 cmp	 eax, DWORD PTR [ecx+64]
  0002b	7d 0f		 jge	 SHORT $LN1@operator

; 237  : 					return true;

  0002d	eb e6		 jmp	 SHORT $LN20@operator
$LN16@operator:

; 238  : 			}
; 239  : 		}
; 240  : 		else if( lhs.m_iMainType != INVENTORY_ITEM_ETC && rhs.m_iMainType == INVENTORY_ITEM_ETC )

  0002f	8b 11		 mov	 edx, DWORD PTR [ecx]
  00031	83 fa 03	 cmp	 edx, 3

; 241  : 		{
; 242  : 			return false;

  00034	74 06		 je	 SHORT $LN1@operator

; 243  : 		}
; 244  : 		else
; 245  : 		{
; 246  : 			if( lhs.m_iMainType < rhs.m_iMainType )

  00036	3b f2		 cmp	 esi, edx

; 247  : 				return true;

  00038	7c db		 jl	 SHORT $LN20@operator

; 248  : 
; 249  : 			if( lhs.m_iMainType == rhs.m_iMainType )
; 250  : 			{
; 251  : 				if( lhs.m_iMagicCode > rhs.m_iMagicCode )
; 252  : 					return true;

  0003a	74 dd		 je	 SHORT $LN13@operator
$LN1@operator:

; 253  : 
; 254  : 				if( lhs.m_iMagicCode == rhs.m_iMagicCode )
; 255  : 				{
; 256  : 					if( lhs.m_iPriorityOrder < rhs.m_iPriorityOrder )
; 257  : 						return true;
; 258  : 				}
; 259  : 			}
; 260  : 		}
; 261  : 
; 262  : 		return false;

  0003c	32 c0		 xor	 al, al
$LN14@operator:
  0003e	5e		 pop	 esi

; 263  : 	}

  0003f	5d		 pop	 ebp
  00040	c2 08 00	 ret	 8
??RInventoryItemInfoSort2@@QBE_NABUtagInventoryItemInfo@@0@Z ENDP ; InventoryItemInfoSort2::operator()
_TEXT	ENDS
PUBLIC	??RInventoryItemInfoSort3@@QBE_NABUtagInventoryItemInfo@@0@Z ; InventoryItemInfoSort3::operator()
; Function compile flags: /Ogsp
;	COMDAT ??RInventoryItemInfoSort3@@QBE_NABUtagInventoryItemInfo@@0@Z
_TEXT	SEGMENT
_lhs$ = 8						; size = 4
_rhs$ = 12						; size = 4
??RInventoryItemInfoSort3@@QBE_NABUtagInventoryItemInfo@@0@Z PROC ; InventoryItemInfoSort3::operator(), COMDAT
; _this$ = ecx

; 270  : 	{

  00000	55		 push	 ebp
  00001	8b ec		 mov	 ebp, esp

; 271  : 		if( lhs.m_iMainType == INVENTORY_ITEM_ETC && rhs.m_iMainType != INVENTORY_ITEM_ETC )

  00003	8b 45 08	 mov	 eax, DWORD PTR _lhs$[ebp]
  00006	8b 4d 0c	 mov	 ecx, DWORD PTR _rhs$[ebp]
  00009	56		 push	 esi
  0000a	8b 30		 mov	 esi, DWORD PTR [eax]
  0000c	83 fe 03	 cmp	 esi, 3
  0000f	75 2a		 jne	 SHORT $LN20@operator@2
  00011	39 31		 cmp	 DWORD PTR [ecx], esi
  00013	74 04		 je	 SHORT $LN17@operator@2
$LN26@operator@2:

; 272  : 			return true;

  00015	b0 01		 mov	 al, 1
  00017	eb 31		 jmp	 SHORT $LN18@operator@2
$LN17@operator@2:

; 273  : 
; 274  : 		if( lhs.m_iMainType == INVENTORY_ITEM_ETC && rhs.m_iMainType == INVENTORY_ITEM_ETC )
; 275  : 		{
; 276  : 			if( lhs.m_iPriorityOrder2 < rhs.m_iPriorityOrder2 )

  00019	8b 50 44	 mov	 edx, DWORD PTR [eax+68]
  0001c	8b 71 44	 mov	 esi, DWORD PTR [ecx+68]
  0001f	3b d6		 cmp	 edx, esi

; 277  : 				return true;

  00021	7c f2		 jl	 SHORT $LN26@operator@2

; 278  : 
; 279  : 			if( lhs.m_iPriorityOrder2 == rhs.m_iPriorityOrder2 )

  00023	75 23		 jne	 SHORT $LN1@operator@2

; 280  : 			{
; 281  : 				if( lhs.m_iPriorityOrder < rhs.m_iPriorityOrder )

  00025	8b 50 40	 mov	 edx, DWORD PTR [eax+64]
  00028	8b 71 40	 mov	 esi, DWORD PTR [ecx+64]
  0002b	3b d6		 cmp	 edx, esi

; 282  : 					return true;

  0002d	7c e6		 jl	 SHORT $LN26@operator@2

; 283  : 
; 284  : 				if( lhs.m_iPriorityOrder == rhs.m_iPriorityOrder )

  0002f	75 17		 jne	 SHORT $LN1@operator@2

; 285  : 				{
; 286  : 					if( lhs.m_iMagicCode < rhs.m_iMagicCode )

  00031	8b 40 04	 mov	 eax, DWORD PTR [eax+4]
  00034	3b 41 04	 cmp	 eax, DWORD PTR [ecx+4]
  00037	7d 0f		 jge	 SHORT $LN1@operator@2

; 287  : 						return true;

  00039	eb da		 jmp	 SHORT $LN26@operator@2
$LN20@operator@2:

; 288  : 				}
; 289  : 			}
; 290  : 		}
; 291  : 		else if( lhs.m_iMainType != INVENTORY_ITEM_ETC && rhs.m_iMainType == INVENTORY_ITEM_ETC )

  0003b	8b 11		 mov	 edx, DWORD PTR [ecx]
  0003d	83 fa 03	 cmp	 edx, 3

; 292  : 		{
; 293  : 			return false;

  00040	74 06		 je	 SHORT $LN1@operator@2

; 294  : 		}
; 295  : 		else
; 296  : 		{
; 297  : 			if( lhs.m_iMainType < rhs.m_iMainType )

  00042	3b f2		 cmp	 esi, edx

; 298  : 				return true;

  00044	7c cf		 jl	 SHORT $LN26@operator@2

; 299  : 
; 300  : 			if( lhs.m_iMainType == rhs.m_iMainType )
; 301  : 			{
; 302  : 				if( lhs.m_iPriorityOrder2 < rhs.m_iPriorityOrder2 )
; 303  : 					return true;

  00046	74 d1		 je	 SHORT $LN17@operator@2
$LN1@operator@2:

; 304  : 
; 305  : 				if( lhs.m_iPriorityOrder2 == rhs.m_iPriorityOrder2 )
; 306  : 				{
; 307  : 					if( lhs.m_iPriorityOrder < rhs.m_iPriorityOrder )
; 308  : 						return true;
; 309  : 
; 310  : 					if( lhs.m_iPriorityOrder == rhs.m_iPriorityOrder )
; 311  : 					{
; 312  : 						if( lhs.m_iMagicCode < rhs.m_iMagicCode )
; 313  : 							return true;
; 314  : 					}
; 315  : 				}
; 316  : 			}
; 317  : 		}
; 318  : 
; 319  : 		return false;

  00048	32 c0		 xor	 al, al
$LN18@operator@2:
  0004a	5e		 pop	 esi

; 320  : 	}

  0004b	5d		 pop	 ebp
  0004c	c2 08 00	 ret	 8
??RInventoryItemInfoSort3@@QBE_NABUtagInventoryItemInfo@@0@Z ENDP ; InventoryItemInfoSort3::operator()
_TEXT	ENDS
PUBLIC	?GetUserExtraItem@ioMyInfo@@QAEPAVioUserExtraItem@@XZ ; ioMyInfo::GetUserExtraItem
; Function compile flags: /Ogsp
; File d:\lost saga for developer\youtube\tutorial\source\src\lsclient\iomyinfo.h
;	COMDAT ?GetUserExtraItem@ioMyInfo@@QAEPAVioUserExtraItem@@XZ
_TEXT	SEGMENT
?GetUserExtraItem@ioMyInfo@@QAEPAVioUserExtraItem@@XZ PROC ; ioMyInfo::GetUserExtraItem, COMDAT
; _this$ = ecx

; 636  : 	ioUserExtraItem* GetUserExtraItem() { return &m_UserExtraItem; }

  00000	8d 81 ac 01 00
	00		 lea	 eax, DWORD PTR [ecx+428]
  00006	c3		 ret	 0
?GetUserExtraItem@ioMyInfo@@QAEPAVioUserExtraItem@@XZ ENDP ; ioMyInfo::GetUserExtraItem
_TEXT	ENDS
PUBLIC	?GetPCRoomAuthority@ioMyInfo@@QAEKXZ		; ioMyInfo::GetPCRoomAuthority
; Function compile flags: /Ogsp
;	COMDAT ?GetPCRoomAuthority@ioMyInfo@@QAEKXZ
_TEXT	SEGMENT
?GetPCRoomAuthority@ioMyInfo@@QAEKXZ PROC		; ioMyInfo::GetPCRoomAuthority, COMDAT
; _this$ = ecx

; 836  : 	DWORD GetPCRoomAuthority(){ return m_dwPCRoomAuthority; }

  00000	8b 81 34 08 00
	00		 mov	 eax, DWORD PTR [ecx+2100]
  00006	c3		 ret	 0
?GetPCRoomAuthority@ioMyInfo@@QAEKXZ ENDP		; ioMyInfo::GetPCRoomAuthority
_TEXT	ENDS
PUBLIC	?IsUserEvent@ioMyInfo@@QAE_NXZ			; ioMyInfo::IsUserEvent
; Function compile flags: /Ogsp
;	COMDAT ?IsUserEvent@ioMyInfo@@QAE_NXZ
_TEXT	SEGMENT
?IsUserEvent@ioMyInfo@@QAE_NXZ PROC			; ioMyInfo::IsUserEvent, COMDAT
; _this$ = ecx

; 838  : 	bool IsUserEvent() { return m_bUserHeroEvent; }

  00000	8a 81 39 08 00
	00		 mov	 al, BYTE PTR [ecx+2105]
  00006	c3		 ret	 0
?IsUserEvent@ioMyInfo@@QAE_NXZ ENDP			; ioMyInfo::IsUserEvent
_TEXT	ENDS
PUBLIC	?GetPreOverWnd@ioSP2GUIManager@@QAEPAVioWnd@@XZ	; ioSP2GUIManager::GetPreOverWnd
; Function compile flags: /Ogsp
; File d:\lost saga for developer\youtube\tutorial\source\src\lsclient\gui\iosp2guimanager.h
;	COMDAT ?GetPreOverWnd@ioSP2GUIManager@@QAEPAVioWnd@@XZ
_TEXT	SEGMENT
?GetPreOverWnd@ioSP2GUIManager@@QAEPAVioWnd@@XZ PROC	; ioSP2GUIManager::GetPreOverWnd, COMDAT
; _this$ = ecx

; 220  : 	ioWnd *GetPreOverWnd(){ return m_pPreOverWnd; }

  00000	8b 41 10	 mov	 eax, DWORD PTR [ecx+16]
  00003	c3		 ret	 0
?GetPreOverWnd@ioSP2GUIManager@@QAEPAVioWnd@@XZ ENDP	; ioSP2GUIManager::GetPreOverWnd
_TEXT	ENDS
PUBLIC	?empty@?$vector@UtagTextPiece@ioComplexStringPrinter@@V?$allocator@UtagTextPiece@ioComplexStringPrinter@@@std@@@std@@QBE_NXZ ; std::vector<ioComplexStringPrinter::tagTextPiece,std::allocator<ioComplexStringPrinter::tagTextPiece> >::empty
; Function compile flags: /Ogsp
; File c:\program files (x86)\microsoft visual studio 10.0\vc\include\vector
;	COMDAT ?empty@?$vector@UtagTextPiece@ioComplexStringPrinter@@V?$allocator@UtagTextPiece@ioComplexStringPrinter@@@std@@@std@@QBE_NXZ
_TEXT	SEGMENT
?empty@?$vector@UtagTextPiece@ioComplexStringPrinter@@V?$allocator@UtagTextPiece@ioComplexStringPrinter@@@std@@@std@@QBE_NXZ PROC ; std::vector<ioComplexStringPrinter::tagTextPiece,std::allocator<ioComplexStringPrinter::tagTextPiece> >::empty, COMDAT
; _this$ = ecx

; 889  : 		return (this->_Myfirst == this->_Mylast);

  00000	8b 01		 mov	 eax, DWORD PTR [ecx]
  00002	2b 41 04	 sub	 eax, DWORD PTR [ecx+4]
  00005	f7 d8		 neg	 eax
  00007	1b c0		 sbb	 eax, eax
  00009	40		 inc	 eax

; 890  : 		}

  0000a	c3		 ret	 0
?empty@?$vector@UtagTextPiece@ioComplexStringPrinter@@V?$allocator@UtagTextPiece@ioComplexStringPrinter@@@std@@@std@@QBE_NXZ ENDP ; std::vector<ioComplexStringPrinter::tagTextPiece,std::allocator<ioComplexStringPrinter::tagTextPiece> >::empty
_TEXT	ENDS
PUBLIC	?DecryptValueToPool@?$CEncrypt@H@@QAEXPAH@Z	; CEncrypt<int>::DecryptValueToPool
EXTRN	?DecryptByte@ccddaabb@@QBEXPBDPADH@Z:PROC	; ccddaabb::DecryptByte
; Function compile flags: /Ogsp
; File d:\lost saga for developer\youtube\tutorial\source\src\lsclient\encryptvalue.h
;	COMDAT ?DecryptValueToPool@?$CEncrypt@H@@QAEXPAH@Z
_TEXT	SEGMENT
_value$ = 8						; size = 4
?DecryptValueToPool@?$CEncrypt@H@@QAEXPAH@Z PROC	; CEncrypt<int>::DecryptValueToPool, COMDAT
; _this$ = ecx

; 837  : 	{

  00000	55		 push	 ebp
  00001	8b ec		 mov	 ebp, esp
  00003	56		 push	 esi

; 838  : 		m_RC5.DecryptByte( m_MemPool, m_TempMem, 4 );

  00004	8d 71 28	 lea	 esi, DWORD PTR [ecx+40]
  00007	6a 04		 push	 4
  00009	8d 41 1c	 lea	 eax, DWORD PTR [ecx+28]
  0000c	56		 push	 esi
  0000d	50		 push	 eax
  0000e	83 c1 0c	 add	 ecx, 12			; 0000000cH
  00011	e8 00 00 00 00	 call	 ?DecryptByte@ccddaabb@@QBEXPBDPADH@Z ; ccddaabb::DecryptByte

; 839  : 		*value = *((int*)m_TempMem);

  00016	8b 06		 mov	 eax, DWORD PTR [esi]
  00018	8b 4d 08	 mov	 ecx, DWORD PTR _value$[ebp]
  0001b	89 01		 mov	 DWORD PTR [ecx], eax
  0001d	5e		 pop	 esi

; 840  : 	}

  0001e	5d		 pop	 ebp
  0001f	c2 04 00	 ret	 4
?DecryptValueToPool@?$CEncrypt@H@@QAEXPAH@Z ENDP	; CEncrypt<int>::DecryptValueToPool
_TEXT	ENDS
PUBLIC	?DecryptValueToPool@?$CEncrypt@_J@@QAEXPA_J@Z	; CEncrypt<__int64>::DecryptValueToPool
; Function compile flags: /Ogsp
;	COMDAT ?DecryptValueToPool@?$CEncrypt@_J@@QAEXPA_J@Z
_TEXT	SEGMENT
_value$ = 8						; size = 4
?DecryptValueToPool@?$CEncrypt@_J@@QAEXPA_J@Z PROC	; CEncrypt<__int64>::DecryptValueToPool, COMDAT
; _this$ = ecx

; 2036 : 	{

  00000	55		 push	 ebp
  00001	8b ec		 mov	 ebp, esp
  00003	56		 push	 esi

; 2037 : 		m_RC5.DecryptByte( m_MemPool, m_TempMem, 8 );

  00004	8d 71 28	 lea	 esi, DWORD PTR [ecx+40]
  00007	6a 08		 push	 8
  00009	8d 41 1c	 lea	 eax, DWORD PTR [ecx+28]
  0000c	56		 push	 esi
  0000d	50		 push	 eax
  0000e	83 c1 0c	 add	 ecx, 12			; 0000000cH
  00011	e8 00 00 00 00	 call	 ?DecryptByte@ccddaabb@@QBEXPBDPADH@Z ; ccddaabb::DecryptByte

; 2038 : 		*value = *((__int64*)m_TempMem);

  00016	8b 0e		 mov	 ecx, DWORD PTR [esi]
  00018	8b 45 08	 mov	 eax, DWORD PTR _value$[ebp]
  0001b	89 08		 mov	 DWORD PTR [eax], ecx
  0001d	8b 4e 04	 mov	 ecx, DWORD PTR [esi+4]
  00020	89 48 04	 mov	 DWORD PTR [eax+4], ecx
  00023	5e		 pop	 esi

; 2039 : 	}

  00024	5d		 pop	 ebp
  00025	c2 04 00	 ret	 4
?DecryptValueToPool@?$CEncrypt@_J@@QAEXPA_J@Z ENDP	; CEncrypt<__int64>::DecryptValueToPool
_TEXT	ENDS
EXTRN	__imp_??0exception@std@@QAE@ABV01@@Z:PROC
; Function compile flags: /Ogsp
;	COMDAT ??0bad_alloc@std@@QAE@ABV01@@Z
_TEXT	SEGMENT
___that$ = 8						; size = 4
??0bad_alloc@std@@QAE@ABV01@@Z PROC			; std::bad_alloc::bad_alloc, COMDAT
; _this$ = ecx
  00000	55		 push	 ebp
  00001	8b ec		 mov	 ebp, esp
  00003	56		 push	 esi
  00004	ff 75 08	 push	 DWORD PTR ___that$[ebp]
  00007	8b f1		 mov	 esi, ecx
  00009	ff 15 00 00 00
	00		 call	 DWORD PTR __imp_??0exception@std@@QAE@ABV01@@Z
  0000f	c7 06 00 00 00
	00		 mov	 DWORD PTR [esi], OFFSET ??_7bad_alloc@std@@6B@
  00015	8b c6		 mov	 eax, esi
  00017	5e		 pop	 esi
  00018	5d		 pop	 ebp
  00019	c2 04 00	 ret	 4
??0bad_alloc@std@@QAE@ABV01@@Z ENDP			; std::bad_alloc::bad_alloc
_TEXT	ENDS
PUBLIC	??0TradeItemRegisterConfirmWnd@@QAE@XZ		; TradeItemRegisterConfirmWnd::TradeItemRegisterConfirmWnd
EXTRN	??_L@YGXPAXIHP6EX0@Z1@Z:PROC			; `eh vector constructor iterator'
;	COMDAT xdata$x
; File d:\lost saga for developer\youtube\tutorial\source\src\lsclient\gui\tradeitemregisterwnd.cpp
xdata$x	SEGMENT
__unwindtable$??0TradeItemRegisterConfirmWnd@@QAE@XZ DD 0ffffffffH
	DD	FLAT:__unwindfunclet$??0TradeItemRegisterConfirmWnd@@QAE@XZ$0
	DD	00H
	DD	FLAT:__unwindfunclet$??0TradeItemRegisterConfirmWnd@@QAE@XZ$1
__ehfuncinfo$??0TradeItemRegisterConfirmWnd@@QAE@XZ DD 019930522H
	DD	02H
	DD	FLAT:__unwindtable$??0TradeItemRegisterConfirmWnd@@QAE@XZ
	DD	2 DUP(00H)
	DD	2 DUP(00H)
	DD	00H
	DD	01H
; Function compile flags: /Ogsp
xdata$x	ENDS
;	COMDAT ??0TradeItemRegisterConfirmWnd@@QAE@XZ
_TEXT	SEGMENT
_this$ = -16						; size = 4
__$EHRec$ = -12						; size = 12
??0TradeItemRegisterConfirmWnd@@QAE@XZ PROC		; TradeItemRegisterConfirmWnd::TradeItemRegisterConfirmWnd, COMDAT
; _this$ = ecx

; 49   : {

  00000	6a 04		 push	 4
  00002	b8 00 00 00 00	 mov	 eax, __ehhandler$??0TradeItemRegisterConfirmWnd@@QAE@XZ
  00007	e8 00 00 00 00	 call	 __EH_prolog3
  0000c	8b f1		 mov	 esi, ecx
  0000e	89 75 f0	 mov	 DWORD PTR _this$[ebp], esi
  00011	ff 15 00 00 00
	00		 call	 DWORD PTR __imp_??0ioMovingWnd@@QAE@XZ
  00017	68 00 00 00 00	 push	 OFFSET ??1ioComplexStringPrinter@@QAE@XZ ; ioComplexStringPrinter::~ioComplexStringPrinter
  0001c	68 00 00 00 00	 push	 OFFSET ??0ioComplexStringPrinter@@QAE@XZ ; ioComplexStringPrinter::ioComplexStringPrinter
  00021	6a 03		 push	 3
  00023	6a 20		 push	 32			; 00000020H
  00025	8d 86 ac 01 00
	00		 lea	 eax, DWORD PTR [esi+428]
  0002b	33 ff		 xor	 edi, edi
  0002d	50		 push	 eax
  0002e	89 7d fc	 mov	 DWORD PTR __$EHRec$[ebp+8], edi
  00031	c7 06 00 00 00
	00		 mov	 DWORD PTR [esi], OFFSET ??_7TradeItemRegisterConfirmWnd@@6B@
  00037	e8 00 00 00 00	 call	 ??_L@YGXPAXIHP6EX0@Z1@Z

; 50   : 	m_iExtraItemIndex = 0;
; 51   : 	m_iPrice = 0;
; 52   : 	m_iTexPrice = 0;
; 53   : 
; 54   : 	m_pEditFrm = NULL;
; 55   : 	m_pTexFrm = NULL;
; 56   : 
; 57   : 	ClearDesc();

  0003c	8b ce		 mov	 ecx, esi
  0003e	c6 45 fc 01	 mov	 BYTE PTR __$EHRec$[ebp+8], 1
  00042	89 be 90 01 00
	00		 mov	 DWORD PTR [esi+400], edi
  00048	89 be 98 01 00
	00		 mov	 DWORD PTR [esi+408], edi
  0004e	89 be 9c 01 00
	00		 mov	 DWORD PTR [esi+412], edi
  00054	89 be a0 01 00
	00		 mov	 DWORD PTR [esi+416], edi
  0005a	89 be a4 01 00
	00		 mov	 DWORD PTR [esi+420], edi
  00060	89 be 10 02 00
	00		 mov	 DWORD PTR [esi+528], edi
  00066	89 be 14 02 00
	00		 mov	 DWORD PTR [esi+532], edi
  0006c	e8 00 00 00 00	 call	 ?ClearDesc@TradeItemRegisterConfirmWnd@@IAEXXZ ; TradeItemRegisterConfirmWnd::ClearDesc

; 58   : }

  00071	8b c6		 mov	 eax, esi
  00073	e8 00 00 00 00	 call	 __EH_epilog3
  00078	c3		 ret	 0
_TEXT	ENDS
;	COMDAT text$x
text$x	SEGMENT
__unwindfunclet$??0TradeItemRegisterConfirmWnd@@QAE@XZ$0:
  00000	8b 4d f0	 mov	 ecx, DWORD PTR _this$[ebp]
  00003	ff 25 00 00 00
	00		 jmp	 DWORD PTR __imp_??1ioMovingWnd@@UAE@XZ
__unwindfunclet$??0TradeItemRegisterConfirmWnd@@QAE@XZ$1:
  00009	68 00 00 00 00	 push	 OFFSET ??1ioComplexStringPrinter@@QAE@XZ ; ioComplexStringPrinter::~ioComplexStringPrinter
  0000e	6a 03		 push	 3
  00010	6a 20		 push	 32			; 00000020H
  00012	8b 45 f0	 mov	 eax, DWORD PTR _this$[ebp]
  00015	05 ac 01 00 00	 add	 eax, 428		; 000001acH
  0001a	50		 push	 eax
  0001b	e8 00 00 00 00	 call	 ??_M@YGXPAXIHP6EX0@Z@Z
  00020	c3		 ret	 0
__ehhandler$??0TradeItemRegisterConfirmWnd@@QAE@XZ:
  00021	8b 54 24 08	 mov	 edx, DWORD PTR [esp+8]
  00025	8d 42 0c	 lea	 eax, DWORD PTR [edx+12]
  00028	8b 4a ec	 mov	 ecx, DWORD PTR [edx-20]
  0002b	33 c8		 xor	 ecx, eax
  0002d	e8 00 00 00 00	 call	 @__security_check_cookie@4
  00032	b8 00 00 00 00	 mov	 eax, OFFSET __ehfuncinfo$??0TradeItemRegisterConfirmWnd@@QAE@XZ
  00037	e9 00 00 00 00	 jmp	 ___CxxFrameHandler3
text$x	ENDS
??0TradeItemRegisterConfirmWnd@@QAE@XZ ENDP		; TradeItemRegisterConfirmWnd::TradeItemRegisterConfirmWnd
; Function compile flags: /Ogsp
;	COMDAT ??_GTradeItemRegisterConfirmWnd@@UAEPAXI@Z
_TEXT	SEGMENT
___flags$ = 8						; size = 4
??_GTradeItemRegisterConfirmWnd@@UAEPAXI@Z PROC		; TradeItemRegisterConfirmWnd::`scalar deleting destructor', COMDAT
; _this$ = ecx
  00000	55		 push	 ebp
  00001	8b ec		 mov	 ebp, esp
  00003	56		 push	 esi
  00004	8b f1		 mov	 esi, ecx
  00006	e8 00 00 00 00	 call	 ??1TradeItemRegisterConfirmWnd@@UAE@XZ ; TradeItemRegisterConfirmWnd::~TradeItemRegisterConfirmWnd
  0000b	f6 45 08 01	 test	 BYTE PTR ___flags$[ebp], 1
  0000f	74 07		 je	 SHORT $LN1@scalar@3
  00011	56		 push	 esi
  00012	e8 00 00 00 00	 call	 ??3@YAXPAX@Z		; operator delete
  00017	59		 pop	 ecx
$LN1@scalar@3:
  00018	8b c6		 mov	 eax, esi
  0001a	5e		 pop	 esi
  0001b	5d		 pop	 ebp
  0001c	c2 04 00	 ret	 4
??_GTradeItemRegisterConfirmWnd@@UAEPAXI@Z ENDP		; TradeItemRegisterConfirmWnd::`scalar deleting destructor'
; Function compile flags: /Ogsp
_TEXT	ENDS
;	COMDAT ??_GTradeItemRegisterResultWnd@@UAEPAXI@Z
_TEXT	SEGMENT
___flags$ = 8						; size = 4
??_GTradeItemRegisterResultWnd@@UAEPAXI@Z PROC		; TradeItemRegisterResultWnd::`scalar deleting destructor', COMDAT
; _this$ = ecx
  00000	55		 push	 ebp
  00001	8b ec		 mov	 ebp, esp
  00003	56		 push	 esi
  00004	8b f1		 mov	 esi, ecx
  00006	e8 00 00 00 00	 call	 ??1TradeItemRegisterResultWnd@@UAE@XZ ; TradeItemRegisterResultWnd::~TradeItemRegisterResultWnd
  0000b	f6 45 08 01	 test	 BYTE PTR ___flags$[ebp], 1
  0000f	74 07		 je	 SHORT $LN1@scalar@4
  00011	56		 push	 esi
  00012	e8 00 00 00 00	 call	 ??3@YAXPAX@Z		; operator delete
  00017	59		 pop	 ecx
$LN1@scalar@4:
  00018	8b c6		 mov	 eax, esi
  0001a	5e		 pop	 esi
  0001b	5d		 pop	 ebp
  0001c	c2 04 00	 ret	 4
??_GTradeItemRegisterResultWnd@@UAEPAXI@Z ENDP		; TradeItemRegisterResultWnd::`scalar deleting destructor'
_TEXT	ENDS
PUBLIC	__real@4f800000
PUBLIC	??_R0?AVTradeIconBtn@@@8			; TradeIconBtn `RTTI Type Descriptor'
PUBLIC	??_C@_0DC@GFCOJBPA@TradeItemRegisterResultWnd?3?3SetR@ ; `string'
PUBLIC	?SetRegisterResultInfo@TradeItemRegisterResultWnd@@QAEXKKKKK_J@Z ; TradeItemRegisterResultWnd::SetRegisterResultInfo
EXTRN	__imp_?ShowWnd@ioWnd@@QAEXXZ:PROC
EXTRN	__imp_?IsShow@ioWnd@@QBE_NXZ:PROC
EXTRN	?SetIcon@TradeIconBtn@@QAE_NPAVioUIRenderImage@@MMH@Z:PROC ; TradeIconBtn::SetIcon
EXTRN	__imp_?CreateImageByFullName@ioUIImageSetManager@@QAEPAVioUIRenderImage@@ABVioHashString@@_N@Z:PROC
EXTRN	__imp_?GetSingleton@ioUIImageSetManager@@SAAAV1@XZ:PROC
EXTRN	?GetItemConst@ioItemMaker@@QBEPBVioItem@@KABVioHashString@@@Z:PROC ; ioItemMaker::GetItemConst
EXTRN	?GetSingleton@ioItemMaker@@SAAAV1@XZ:PROC	; ioItemMaker::GetSingleton
EXTRN	__imp_??0ioHashString@@QAE@PBD@Z:PROC
EXTRN	___RTDynamicCast:PROC
;	COMDAT __real@4f800000
; File d:\lost saga for developer\youtube\tutorial\source\src\lsclient\gui\changetradestatewnd.h
CONST	SEGMENT
__real@4f800000 DD 04f800000r			; 4.29497e+009
CONST	ENDS
;	COMDAT ??_R0?AVTradeIconBtn@@@8
_DATA	SEGMENT
??_R0?AVTradeIconBtn@@@8 DD FLAT:??_7type_info@@6B@	; TradeIconBtn `RTTI Type Descriptor'
	DD	00H
	DB	'.?AVTradeIconBtn@@', 00H
_DATA	ENDS
;	COMDAT ??_C@_0DC@GFCOJBPA@TradeItemRegisterResultWnd?3?3SetR@
CONST	SEGMENT
??_C@_0DC@GFCOJBPA@TradeItemRegisterResultWnd?3?3SetR@ DB 'TradeItemRegis'
	DB	'terResultWnd::SetRegisterResultInfo', 00H	; `string'
CONST	ENDS
;	COMDAT xdata$x
xdata$x	SEGMENT
__unwindtable$?SetRegisterResultInfo@TradeItemRegisterResultWnd@@QAEXKKKKK_J@Z DD 0ffffffffH
	DD	FLAT:__unwindfunclet$?SetRegisterResultInfo@TradeItemRegisterResultWnd@@QAEXKKKKK_J@Z$0
__ehfuncinfo$?SetRegisterResultInfo@TradeItemRegisterResultWnd@@QAEXKKKKK_J@Z DD 019930522H
	DD	01H
	DD	FLAT:__unwindtable$?SetRegisterResultInfo@TradeItemRegisterResultWnd@@QAEXKKKKK_J@Z
	DD	2 DUP(00H)
	DD	2 DUP(00H)
	DD	00H
	DD	01H
; Function compile flags: /Ogsp
; File d:\lost saga for developer\youtube\tutorial\source\src\lsclient\gui\tradeitemregisterwnd.cpp
xdata$x	ENDS
;	COMDAT ?SetRegisterResultInfo@TradeItemRegisterResultWnd@@QAEXKKKKK_J@Z
_TEXT	SEGMENT
$T511064 = -28						; size = 16
__$EHRec$ = -12						; size = 12
_dwItemType$ = 8					; size = 4
_pIcon$ = 12						; size = 4
_dwMagicCode$ = 12					; size = 4
tv212 = 16						; size = 4
tv210 = 16						; size = 4
_dwValue$ = 16						; size = 4
_dwMaleCustom$ = 20					; size = 4
_dwFemaleCustom$ = 24					; size = 4
_iPrice$ = 28						; size = 8
?SetRegisterResultInfo@TradeItemRegisterResultWnd@@QAEXKKKKK_J@Z PROC ; TradeItemRegisterResultWnd::SetRegisterResultInfo, COMDAT
; _this$ = ecx

; 366  : {

  00000	6a 10		 push	 16			; 00000010H
  00002	b8 00 00 00 00	 mov	 eax, __ehhandler$?SetRegisterResultInfo@TradeItemRegisterResultWnd@@QAEXKKKKK_J@Z
  00007	e8 00 00 00 00	 call	 __EH_prolog3
  0000c	8b d9		 mov	 ebx, ecx

; 367  : 	const ioItem *pItem = g_ItemMaker.GetItemConst( dwMagicCode, __FUNCTION__ );

  0000e	68 00 00 00 00	 push	 OFFSET ??_C@_0DC@GFCOJBPA@TradeItemRegisterResultWnd?3?3SetR@
  00013	8d 4d e4	 lea	 ecx, DWORD PTR $T511064[ebp]
  00016	ff 15 00 00 00
	00		 call	 DWORD PTR __imp_??0ioHashString@@QAE@PBD@Z
  0001c	8d 45 e4	 lea	 eax, DWORD PTR $T511064[ebp]
  0001f	50		 push	 eax
  00020	ff 75 0c	 push	 DWORD PTR _dwMagicCode$[ebp]
  00023	33 f6		 xor	 esi, esi
  00025	89 75 fc	 mov	 DWORD PTR __$EHRec$[ebp+8], esi
  00028	e8 00 00 00 00	 call	 ?GetSingleton@ioItemMaker@@SAAAV1@XZ ; ioItemMaker::GetSingleton
  0002d	8b c8		 mov	 ecx, eax
  0002f	e8 00 00 00 00	 call	 ?GetItemConst@ioItemMaker@@QBEPBVioItem@@KABVioHashString@@@Z ; ioItemMaker::GetItemConst
  00034	83 4d fc ff	 or	 DWORD PTR __$EHRec$[ebp+8], -1
  00038	8d 4d e4	 lea	 ecx, DWORD PTR $T511064[ebp]
  0003b	8b f8		 mov	 edi, eax
  0003d	ff 15 00 00 00
	00		 call	 DWORD PTR __imp_??1ioHashString@@QAE@XZ

; 368  : 	if( !pItem )

  00043	3b fe		 cmp	 edi, esi
  00045	0f 84 e6 00 00
	00		 je	 $LN1@SetRegiste

; 369  : 	{
; 370  : 		return;
; 371  : 	}
; 372  : 
; 373  : 	m_szName = pItem->GetName();

  0004b	8d 87 34 01 00
	00		 lea	 eax, DWORD PTR [edi+308]
  00051	50		 push	 eax
  00052	8d 8b 90 01 00
	00		 lea	 ecx, DWORD PTR [ebx+400]
  00058	ff 15 00 00 00
	00		 call	 DWORD PTR __imp_??4ioHashString@@QAEAAV0@ABV0@@Z

; 374  : 	m_iPrice = iPrice;

  0005e	8b 45 1c	 mov	 eax, DWORD PTR _iPrice$[ebp]
  00061	89 83 a0 01 00
	00		 mov	 DWORD PTR [ebx+416], eax
  00067	8b 45 20	 mov	 eax, DWORD PTR _iPrice$[ebp+4]
  0006a	89 83 a4 01 00
	00		 mov	 DWORD PTR [ebx+420], eax

; 375  : 
; 376  : 	ioUIRenderImage *pIcon = g_UIImageSetMgr.CreateImageByFullName( pItem->GetItemLargeIconName() );

  00070	8d 87 14 02 00
	00		 lea	 eax, DWORD PTR [edi+532]
  00076	56		 push	 esi
  00077	50		 push	 eax
  00078	ff 15 00 00 00
	00		 call	 DWORD PTR __imp_?GetSingleton@ioUIImageSetManager@@SAAAV1@XZ
  0007e	8b c8		 mov	 ecx, eax
  00080	ff 15 00 00 00
	00		 call	 DWORD PTR __imp_?CreateImageByFullName@ioUIImageSetManager@@QAEPAVioUIRenderImage@@ABVioHashString@@_N@Z

; 377  : 	TradeIconBtn *pIconBtn = dynamic_cast<TradeIconBtn*>(FindChildWnd(ID_ICON_BTN));

  00086	56		 push	 esi
  00087	68 00 00 00 00	 push	 OFFSET ??_R0?AVTradeIconBtn@@@8
  0008c	68 00 00 00 00	 push	 OFFSET ??_R0?AVioWnd@@@8
  00091	56		 push	 esi
  00092	6a 01		 push	 1
  00094	8b cb		 mov	 ecx, ebx
  00096	89 45 0c	 mov	 DWORD PTR _pIcon$[ebp], eax
  00099	ff 15 00 00 00
	00		 call	 DWORD PTR __imp_?FindChildWnd@ioWnd@@QAEPAV1@K@Z
  0009f	50		 push	 eax
  000a0	e8 00 00 00 00	 call	 ___RTDynamicCast
  000a5	8b f0		 mov	 esi, eax
  000a7	83 c4 14	 add	 esp, 20			; 00000014H

; 378  : 	if( pIconBtn )

  000aa	85 f6		 test	 esi, esi
  000ac	74 6f		 je	 SHORT $LN27@SetRegiste

; 379  : 	{
; 380  : 		pIconBtn->SetIcon( pIcon, FLOAT1, FLOAT1, dwValue );

  000ae	b8 01 00 00 00	 mov	 eax, 1
  000b3	8b c8		 mov	 ecx, eax
  000b5	b8 01 00 00 00	 mov	 eax, 1
  000ba	ff 75 10	 push	 DWORD PTR _dwValue$[ebp]
  000bd	89 4d 10	 mov	 DWORD PTR tv212[ebp], ecx
  000c0	db 45 10	 fild	 DWORD PTR tv212[ebp]
  000c3	85 c9		 test	 ecx, ecx
  000c5	79 06		 jns	 SHORT $LN30@SetRegiste
  000c7	d8 05 00 00 00
	00		 fadd	 DWORD PTR __real@4f800000
$LN30@SetRegiste:
  000cd	51		 push	 ecx
  000ce	51		 push	 ecx
  000cf	89 45 10	 mov	 DWORD PTR tv210[ebp], eax
  000d2	d9 5c 24 04	 fstp	 DWORD PTR [esp+4]
  000d6	db 45 10	 fild	 DWORD PTR tv210[ebp]
  000d9	85 c0		 test	 eax, eax
  000db	79 06		 jns	 SHORT $LN31@SetRegiste
  000dd	d8 05 00 00 00
	00		 fadd	 DWORD PTR __real@4f800000
$LN31@SetRegiste:
  000e3	d9 1c 24	 fstp	 DWORD PTR [esp]
  000e6	ff 75 0c	 push	 DWORD PTR _pIcon$[ebp]
  000e9	8b ce		 mov	 ecx, esi
  000eb	e8 00 00 00 00	 call	 ?SetIcon@TradeIconBtn@@QAE_NPAVioUIRenderImage@@MMH@Z ; TradeIconBtn::SetIcon

; 381  : 		if( pItem )
; 382  : 			pIconBtn->SetGradeType( pItem->GetGradeType() );

  000f0	8b 87 20 06 00
	00		 mov	 eax, DWORD PTR [edi+1568]
  000f6	89 86 2c 02 00
	00		 mov	 DWORD PTR [esi+556], eax

; 383  : 		pIconBtn->SetMarkType( TRADE_MARK_TYPE_DISABLE );

  000fc	33 c0		 xor	 eax, eax
  000fe	89 86 18 02 00
	00		 mov	 DWORD PTR [esi+536], eax

; 384  : 
; 385  : 		if( dwMaleCustom > 0 || dwFemaleCustom > 0 )

  00104	39 45 14	 cmp	 DWORD PTR _dwMaleCustom$[ebp], eax
  00107	77 0d		 ja	 SHORT $LN3@SetRegiste
  00109	39 45 18	 cmp	 DWORD PTR _dwFemaleCustom$[ebp], eax
  0010c	77 08		 ja	 SHORT $LN3@SetRegiste

; 387  : 		else
; 388  : 			pIconBtn->SetCustomItem( false );

  0010e	88 86 1c 02 00
	00		 mov	 BYTE PTR [esi+540], al
  00114	eb 07		 jmp	 SHORT $LN27@SetRegiste
$LN3@SetRegiste:

; 386  : 			pIconBtn->SetCustomItem( true );

  00116	c6 86 1c 02 00
	00 01		 mov	 BYTE PTR [esi+540], 1

; 387  : 		else
; 388  : 			pIconBtn->SetCustomItem( false );

$LN27@SetRegiste:

; 389  : 	}
; 390  : 
; 391  : 	if( !IsShow() )

  0011d	8b cb		 mov	 ecx, ebx
  0011f	ff 15 00 00 00
	00		 call	 DWORD PTR __imp_?IsShow@ioWnd@@QBE_NXZ
  00125	84 c0		 test	 al, al
  00127	75 08		 jne	 SHORT $LN1@SetRegiste

; 392  : 		ShowWnd();

  00129	8b cb		 mov	 ecx, ebx
  0012b	ff 15 00 00 00
	00		 call	 DWORD PTR __imp_?ShowWnd@ioWnd@@QAEXXZ
$LN1@SetRegiste:

; 393  : }

  00131	e8 00 00 00 00	 call	 __EH_epilog3
  00136	c2 1c 00	 ret	 28			; 0000001cH
_TEXT	ENDS
;	COMDAT text$x
text$x	SEGMENT
__unwindfunclet$?SetRegisterResultInfo@TradeItemRegisterResultWnd@@QAEXKKKKK_J@Z$0:
  00000	8d 4d e4	 lea	 ecx, DWORD PTR $T511064[ebp]
  00003	ff 25 00 00 00
	00		 jmp	 DWORD PTR __imp_??1ioHashString@@QAE@XZ
__ehhandler$?SetRegisterResultInfo@TradeItemRegisterResultWnd@@QAEXKKKKK_J@Z:
  00009	8b 54 24 08	 mov	 edx, DWORD PTR [esp+8]
  0000d	8d 42 0c	 lea	 eax, DWORD PTR [edx+12]
  00010	8b 4a e0	 mov	 ecx, DWORD PTR [edx-32]
  00013	33 c8		 xor	 ecx, eax
  00015	e8 00 00 00 00	 call	 @__security_check_cookie@4
  0001a	b8 00 00 00 00	 mov	 eax, OFFSET __ehfuncinfo$?SetRegisterResultInfo@TradeItemRegisterResultWnd@@QAEXKKKKK_J@Z
  0001f	e9 00 00 00 00	 jmp	 ___CxxFrameHandler3
text$x	ENDS
?SetRegisterResultInfo@TradeItemRegisterResultWnd@@QAEXKKKKK_J@Z ENDP ; TradeItemRegisterResultWnd::SetRegisterResultInfo
PUBLIC	?iwm_wheel@TradeItemRegisterWnd@@UAEXH@Z	; TradeItemRegisterWnd::iwm_wheel
EXTRN	__imp_??1ioMouse@@UAE@XZ:PROC
EXTRN	__imp_??0ioMouse@@QAE@XZ:PROC
EXTRN	?GetSingleton@ioSP2GUIManager@@SAAAV1@XZ:PROC	; ioSP2GUIManager::GetSingleton
EXTRN	__imp_?iwm_wheel@ioWnd@@UAEXH@Z:PROC
;	COMDAT xdata$x
; File d:\lost saga for developer\youtube\tutorial\source\src\lsclient\gui\iosp2guimanager.h
xdata$x	SEGMENT
__unwindtable$?iwm_wheel@TradeItemRegisterWnd@@UAEXH@Z DD 0ffffffffH
	DD	FLAT:__unwindfunclet$?iwm_wheel@TradeItemRegisterWnd@@UAEXH@Z$0
	DD	0ffffffffH
	DD	FLAT:__unwindfunclet$?iwm_wheel@TradeItemRegisterWnd@@UAEXH@Z$1
__ehfuncinfo$?iwm_wheel@TradeItemRegisterWnd@@UAEXH@Z DD 019930522H
	DD	02H
	DD	FLAT:__unwindtable$?iwm_wheel@TradeItemRegisterWnd@@UAEXH@Z
	DD	2 DUP(00H)
	DD	2 DUP(00H)
	DD	00H
	DD	01H
; Function compile flags: /Ogsp
; File d:\lost saga for developer\youtube\tutorial\source\src\lsclient\gui\tradeitemregisterwnd.cpp
xdata$x	ENDS
;	COMDAT ?iwm_wheel@TradeItemRegisterWnd@@UAEXH@Z
_TEXT	SEGMENT
_NullMouse$508169 = -148				; size = 68
_NullMouse$508162 = -80					; size = 68
__$EHRec$ = -12						; size = 12
_zDelta$ = 8						; size = 4
?iwm_wheel@TradeItemRegisterWnd@@UAEXH@Z PROC		; TradeItemRegisterWnd::iwm_wheel, COMDAT
; _this$ = ecx

; 517  : {

  00000	68 88 00 00 00	 push	 136			; 00000088H
  00005	b8 00 00 00 00	 mov	 eax, __ehhandler$?iwm_wheel@TradeItemRegisterWnd@@UAEXH@Z
  0000a	e8 00 00 00 00	 call	 __EH_prolog3
  0000f	8b f1		 mov	 esi, ecx

; 518  : 	if( !IsShow() )

  00011	ff 15 00 00 00
	00		 call	 DWORD PTR __imp_?IsShow@ioWnd@@QBE_NXZ
  00017	84 c0		 test	 al, al
  00019	75 10		 jne	 SHORT $LN9@iwm_wheel

; 519  : 	{
; 520  : 		ioMovingWnd::iwm_wheel( zDelta );

  0001b	ff 75 08	 push	 DWORD PTR _zDelta$[ebp]
  0001e	8b ce		 mov	 ecx, esi
  00020	ff 15 00 00 00
	00		 call	 DWORD PTR __imp_?iwm_wheel@ioWnd@@UAEXH@Z

; 521  : 	}
; 522  : 	else

  00026	e9 cc 00 00 00	 jmp	 $LN1@iwm_wheel
$LN9@iwm_wheel:

; 523  : 	{ 
; 524  : 		//        .
; 525  : 		if( zDelta == WHEEL_DELTA )

  0002b	83 7d 08 78	 cmp	 DWORD PTR _zDelta$[ebp], 120 ; 00000078H
  0002f	75 58		 jne	 SHORT $LN7@iwm_wheel

; 526  : 		{
; 527  : 			ioScroll *pScroll = (ioScroll*)FindChildWnd( ID_VERT_SCROLL );

  00031	68 e9 03 00 00	 push	 1001			; 000003e9H
  00036	8b ce		 mov	 ecx, esi
  00038	ff 15 00 00 00
	00		 call	 DWORD PTR __imp_?FindChildWnd@ioWnd@@QAEPAV1@K@Z

; 528  : 			if( pScroll )

  0003e	85 c0		 test	 eax, eax
  00040	74 12		 je	 SHORT $LN6@iwm_wheel

; 529  : 				pScroll->SetScrollPos( m_iCurPage - 1 );

  00042	8b 8e a0 01 00
	00		 mov	 ecx, DWORD PTR [esi+416]
  00048	8b 10		 mov	 edx, DWORD PTR [eax]
  0004a	49		 dec	 ecx
  0004b	51		 push	 ecx
  0004c	8b c8		 mov	 ecx, eax
  0004e	ff 92 38 01 00
	00		 call	 DWORD PTR [edx+312]
$LN6@iwm_wheel:

; 530  : 
; 531  : 			if( g_GUIMgr.GetPreOverWnd() )

  00054	e8 00 00 00 00	 call	 ?GetSingleton@ioSP2GUIManager@@SAAAV1@XZ ; ioSP2GUIManager::GetSingleton
  00059	83 78 10 00	 cmp	 DWORD PTR [eax+16], 0
  0005d	0f 84 94 00 00
	00		 je	 $LN1@iwm_wheel

; 532  : 			{
; 533  : 				ioMouse NullMouse;

  00063	8d 4d b0	 lea	 ecx, DWORD PTR _NullMouse$508162[ebp]
  00066	ff 15 00 00 00
	00		 call	 DWORD PTR __imp_??0ioMouse@@QAE@XZ
  0006c	83 65 fc 00	 and	 DWORD PTR __$EHRec$[ebp+8], 0

; 534  : 				g_GUIMgr.GetPreOverWnd()->iwm_mouseover( NullMouse );

  00070	e8 00 00 00 00	 call	 ?GetSingleton@ioSP2GUIManager@@SAAAV1@XZ ; ioSP2GUIManager::GetSingleton
  00075	8b 48 10	 mov	 ecx, DWORD PTR [eax+16]
  00078	8b 01		 mov	 eax, DWORD PTR [ecx]
  0007a	8d 55 b0	 lea	 edx, DWORD PTR _NullMouse$508162[ebp]
  0007d	52		 push	 edx
  0007e	ff 90 90 00 00
	00		 call	 DWORD PTR [eax+144]

; 535  : 			}

  00084	8d 4d b0	 lea	 ecx, DWORD PTR _NullMouse$508162[ebp]

; 536  : 		}

  00087	eb 64		 jmp	 SHORT $LN23@iwm_wheel
$LN7@iwm_wheel:

; 537  : 		else if( zDelta == -WHEEL_DELTA )

  00089	83 7d 08 88	 cmp	 DWORD PTR _zDelta$[ebp], -120 ; ffffff88H
  0008d	75 68		 jne	 SHORT $LN1@iwm_wheel

; 538  : 		{
; 539  : 			ioScroll *pScroll = (ioScroll*)FindChildWnd( ID_VERT_SCROLL );

  0008f	68 e9 03 00 00	 push	 1001			; 000003e9H
  00094	8b ce		 mov	 ecx, esi
  00096	ff 15 00 00 00
	00		 call	 DWORD PTR __imp_?FindChildWnd@ioWnd@@QAEPAV1@K@Z

; 540  : 			if( pScroll )

  0009c	85 c0		 test	 eax, eax
  0009e	74 12		 je	 SHORT $LN2@iwm_wheel

; 541  : 				pScroll->SetScrollPos( m_iCurPage + 1 );

  000a0	8b 8e a0 01 00
	00		 mov	 ecx, DWORD PTR [esi+416]
  000a6	8b 10		 mov	 edx, DWORD PTR [eax]
  000a8	41		 inc	 ecx
  000a9	51		 push	 ecx
  000aa	8b c8		 mov	 ecx, eax
  000ac	ff 92 38 01 00
	00		 call	 DWORD PTR [edx+312]
$LN2@iwm_wheel:

; 542  : 
; 543  : 			if( g_GUIMgr.GetPreOverWnd() )

  000b2	e8 00 00 00 00	 call	 ?GetSingleton@ioSP2GUIManager@@SAAAV1@XZ ; ioSP2GUIManager::GetSingleton
  000b7	83 78 10 00	 cmp	 DWORD PTR [eax+16], 0
  000bb	74 3a		 je	 SHORT $LN1@iwm_wheel

; 544  : 			{
; 545  : 				ioMouse NullMouse;

  000bd	8d 8d 6c ff ff
	ff		 lea	 ecx, DWORD PTR _NullMouse$508169[ebp]
  000c3	ff 15 00 00 00
	00		 call	 DWORD PTR __imp_??0ioMouse@@QAE@XZ
  000c9	c7 45 fc 01 00
	00 00		 mov	 DWORD PTR __$EHRec$[ebp+8], 1

; 546  : 				g_GUIMgr.GetPreOverWnd()->iwm_mouseover( NullMouse );

  000d0	e8 00 00 00 00	 call	 ?GetSingleton@ioSP2GUIManager@@SAAAV1@XZ ; ioSP2GUIManager::GetSingleton
  000d5	8b 48 10	 mov	 ecx, DWORD PTR [eax+16]
  000d8	8b 01		 mov	 eax, DWORD PTR [ecx]
  000da	8d 95 6c ff ff
	ff		 lea	 edx, DWORD PTR _NullMouse$508169[ebp]
  000e0	52		 push	 edx
  000e1	ff 90 90 00 00
	00		 call	 DWORD PTR [eax+144]

; 547  : 			}

  000e7	8d 8d 6c ff ff
	ff		 lea	 ecx, DWORD PTR _NullMouse$508169[ebp]
$LN23@iwm_wheel:
  000ed	83 4d fc ff	 or	 DWORD PTR __$EHRec$[ebp+8], -1
  000f1	ff 15 00 00 00
	00		 call	 DWORD PTR __imp_??1ioMouse@@UAE@XZ
$LN1@iwm_wheel:

; 548  : 		}
; 549  : 	}
; 550  : }

  000f7	e8 00 00 00 00	 call	 __EH_epilog3
  000fc	c2 04 00	 ret	 4
_TEXT	ENDS
;	COMDAT text$x
text$x	SEGMENT
__unwindfunclet$?iwm_wheel@TradeItemRegisterWnd@@UAEXH@Z$0:
  00000	8d 4d b0	 lea	 ecx, DWORD PTR _NullMouse$508162[ebp]
  00003	ff 25 00 00 00
	00		 jmp	 DWORD PTR __imp_??1ioMouse@@UAE@XZ
__unwindfunclet$?iwm_wheel@TradeItemRegisterWnd@@UAEXH@Z$1:
  00009	8d 8d 6c ff ff
	ff		 lea	 ecx, DWORD PTR _NullMouse$508169[ebp]
  0000f	ff 25 00 00 00
	00		 jmp	 DWORD PTR __imp_??1ioMouse@@UAE@XZ
__ehhandler$?iwm_wheel@TradeItemRegisterWnd@@UAEXH@Z:
  00015	8b 54 24 08	 mov	 edx, DWORD PTR [esp+8]
  00019	8d 42 0c	 lea	 eax, DWORD PTR [edx+12]
  0001c	8b 8a 68 ff ff
	ff		 mov	 ecx, DWORD PTR [edx-152]
  00022	33 c8		 xor	 ecx, eax
  00024	e8 00 00 00 00	 call	 @__security_check_cookie@4
  00029	b8 00 00 00 00	 mov	 eax, OFFSET __ehfuncinfo$?iwm_wheel@TradeItemRegisterWnd@@UAEXH@Z
  0002e	e9 00 00 00 00	 jmp	 ___CxxFrameHandler3
text$x	ENDS
?iwm_wheel@TradeItemRegisterWnd@@UAEXH@Z ENDP		; TradeItemRegisterWnd::iwm_wheel
PUBLIC	??_C@_0BP@IACPCGMK@TradeItemRegisterWnd?3?3OnRender?$AA@ ; `string'
PUBLIC	?OnRender@TradeItemRegisterWnd@@MAEXXZ		; TradeItemRegisterWnd::OnRender
EXTRN	?AddTextPiece@ioComplexStringPrinter@@QAEXMPBDH@Z:PROC ; ioComplexStringPrinter::AddTextPiece
EXTRN	?GetSingleton@TradeInfoManager@@SAAAV1@XZ:PROC	; TradeInfoManager::GetSingleton
EXTRN	?GetSingleton@ioMyInfo@@SAAAV1@XZ:PROC		; ioMyInfo::GetSingleton
EXTRN	__ftol2_sse:PROC
;	COMDAT ??_C@_0BP@IACPCGMK@TradeItemRegisterWnd?3?3OnRender?$AA@
; File d:\lost saga for developer\youtube\tutorial\source\src\lsclient\tradeinfomanager.h
CONST	SEGMENT
??_C@_0BP@IACPCGMK@TradeItemRegisterWnd?3?3OnRender?$AA@ DB 'TradeItemReg'
	DB	'isterWnd::OnRender', 00H			; `string'
CONST	ENDS
;	COMDAT xdata$x
xdata$x	SEGMENT
__unwindtable$?OnRender@TradeItemRegisterWnd@@MAEXXZ DD 0ffffffffH
	DD	FLAT:__unwindfunclet$?OnRender@TradeItemRegisterWnd@@MAEXXZ$0
__ehfuncinfo$?OnRender@TradeItemRegisterWnd@@MAEXXZ DD 019930522H
	DD	01H
	DD	FLAT:__unwindtable$?OnRender@TradeItemRegisterWnd@@MAEXXZ
	DD	2 DUP(00H)
	DD	2 DUP(00H)
	DD	00H
	DD	01H
; Function compile flags: /Ogsp
; File d:\lost saga for developer\youtube\tutorial\source\src\lsclient\gui\tradeitemregisterwnd.cpp
xdata$x	ENDS
;	COMDAT ?OnRender@TradeItemRegisterWnd@@MAEXXZ
_TEXT	SEGMENT
_kPrinter$ = -60					; size = 32
tv388 = -28						; size = 4
tv377 = -28						; size = 4
_iXPos$ = -24						; size = 4
tv384 = -20						; size = 4
$T511164 = -20						; size = 4
$T511155 = -20						; size = 4
_iRate$ = -20						; size = 4
_iYPos$ = -16						; size = 4
__$EHRec$ = -12						; size = 12
?OnRender@TradeItemRegisterWnd@@MAEXXZ PROC		; TradeItemRegisterWnd::OnRender, COMDAT
; _this$ = ecx

; 736  : {

  00000	6a 30		 push	 48			; 00000030H
  00002	b8 00 00 00 00	 mov	 eax, __ehhandler$?OnRender@TradeItemRegisterWnd@@MAEXXZ
  00007	e8 00 00 00 00	 call	 __EH_prolog3
  0000c	8b f1		 mov	 esi, ecx

; 737  : 	int iXPos = GetDerivedPosX();

  0000e	ff 15 00 00 00
	00		 call	 DWORD PTR __imp_?GetDerivedPosX@ioWnd@@QBEHXZ

; 738  : 	int iYPos = GetDerivedPosY();

  00014	8b ce		 mov	 ecx, esi
  00016	89 45 e8	 mov	 DWORD PTR _iXPos$[ebp], eax
  00019	ff 15 00 00 00
	00		 call	 DWORD PTR __imp_?GetDerivedPosY@ioWnd@@QBEHXZ

; 739  : 
; 740  : 	ioMovingWnd::OnRender();

  0001f	8b ce		 mov	 ecx, esi
  00021	89 45 f0	 mov	 DWORD PTR _iYPos$[ebp], eax
  00024	ff 15 00 00 00
	00		 call	 DWORD PTR __imp_?OnRender@ioWnd@@MAEXXZ

; 741  : 
; 742  : 	enum
; 743  : 	{
; 744  : 		TEXT_X		= 17,
; 745  : 		TEXT_Y		= 474,
; 746  : 
; 747  : 		LINE_GAP	= 18,
; 748  : 	};
; 749  : 
; 750  : 	int iRate = 0;
; 751  : 	if( g_MyInfo.GetPCRoomAuthority() && !g_MyInfo.IsUserEvent() )

  0002a	e8 00 00 00 00	 call	 ?GetSingleton@ioMyInfo@@SAAAV1@XZ ; ioMyInfo::GetSingleton
  0002f	8b 80 34 08 00
	00		 mov	 eax, DWORD PTR [eax+2100]
  00035	33 f6		 xor	 esi, esi
  00037	3b c6		 cmp	 eax, esi
  00039	74 26		 je	 SHORT $LN2@OnRender
  0003b	e8 00 00 00 00	 call	 ?GetSingleton@ioMyInfo@@SAAAV1@XZ ; ioMyInfo::GetSingleton
  00040	80 b8 39 08 00
	00 00		 cmp	 BYTE PTR [eax+2105], 0
  00047	75 18		 jne	 SHORT $LN2@OnRender

; 752  : 		iRate = (int)(g_TradeInfoMgr.GetPCRoomRegisterTexRate() * FLOAT100);

  00049	e8 00 00 00 00	 call	 ?GetSingleton@TradeInfoManager@@SAAAV1@XZ ; TradeInfoManager::GetSingleton
  0004e	d9 40 78	 fld	 DWORD PTR [eax+120]
  00051	d9 5d ec	 fstp	 DWORD PTR $T511155[ebp]
  00054	b8 64 00 00 00	 mov	 eax, 100		; 00000064H
  00059	89 45 e4	 mov	 DWORD PTR tv388[ebp], eax
  0005c	db 45 e4	 fild	 DWORD PTR tv388[ebp]

; 753  : 	else

  0005f	eb 16		 jmp	 SHORT $LN24@OnRender
$LN2@OnRender:

; 754  : 		iRate = (int)(g_TradeInfoMgr.GetRegisterTexRate() * FLOAT100);

  00061	e8 00 00 00 00	 call	 ?GetSingleton@TradeInfoManager@@SAAAV1@XZ ; TradeInfoManager::GetSingleton
  00066	d9 40 70	 fld	 DWORD PTR [eax+112]
  00069	d9 5d ec	 fstp	 DWORD PTR $T511164[ebp]
  0006c	b8 64 00 00 00	 mov	 eax, 100		; 00000064H
  00071	89 45 e4	 mov	 DWORD PTR tv377[ebp], eax
  00074	db 45 e4	 fild	 DWORD PTR tv377[ebp]
$LN24@OnRender:
  00077	85 c0		 test	 eax, eax
  00079	79 06		 jns	 SHORT $LN22@OnRender
  0007b	d8 05 00 00 00
	00		 fadd	 DWORD PTR __real@4f800000
$LN22@OnRender:
  00081	d8 4d ec	 fmul	 DWORD PTR $T511164[ebp]
  00084	e8 00 00 00 00	 call	 __ftol2_sse

; 755  : 
; 756  : 	ioComplexStringPrinter kPrinter;

  00089	8d 4d c4	 lea	 ecx, DWORD PTR _kPrinter$[ebp]
  0008c	89 45 ec	 mov	 DWORD PTR _iRate$[ebp], eax
  0008f	e8 00 00 00 00	 call	 ??0ioComplexStringPrinter@@QAE@XZ ; ioComplexStringPrinter::ioComplexStringPrinter

; 757  : 	kPrinter.SetTextStyle( TS_NORMAL );

  00094	56		 push	 esi
  00095	8d 4d c4	 lea	 ecx, DWORD PTR _kPrinter$[ebp]
  00098	89 75 fc	 mov	 DWORD PTR __$EHRec$[ebp+8], esi
  0009b	e8 00 00 00 00	 call	 ?SetTextStyle@ioComplexStringPrinter@@QAEXW4TextStyle@@@Z ; ioComplexStringPrinter::SetTextStyle

; 758  : 	kPrinter.SetBkColor( 0, 0, 0 );

  000a0	56		 push	 esi
  000a1	56		 push	 esi
  000a2	56		 push	 esi
  000a3	8d 4d c4	 lea	 ecx, DWORD PTR _kPrinter$[ebp]
  000a6	e8 00 00 00 00	 call	 ?SetBkColor@ioComplexStringPrinter@@QAEXHHH@Z ; ioComplexStringPrinter::SetBkColor

; 759  : 	kPrinter.SetTextColor( TCT_DEFAULT_DARKGRAY );

  000ab	68 3a 3a 3a ff	 push	 -12961222		; ff3a3a3aH
  000b0	8d 4d c4	 lea	 ecx, DWORD PTR _kPrinter$[ebp]
  000b3	e8 00 00 00 00	 call	 ?SetTextColor@ioComplexStringPrinter@@QAEXK@Z ; ioComplexStringPrinter::SetTextColor

; 760  : 	kPrinter.AddTextPiece( FONT_SIZE_13, STR(1) );

  000b8	56		 push	 esi
  000b9	8b 35 00 00 00
	00		 mov	 esi, DWORD PTR __imp_?GetSingleton@ioStringManager@@SAAAV1@XZ
  000bf	6a 01		 push	 1
  000c1	68 00 00 00 00	 push	 OFFSET ??_C@_00CNPNBAHC@?$AA@
  000c6	bb 00 00 00 00	 mov	 ebx, OFFSET ??_C@_0BP@IACPCGMK@TradeItemRegisterWnd?3?3OnRender?$AA@
  000cb	53		 push	 ebx
  000cc	ff d6		 call	 esi
  000ce	8b 3d 00 00 00
	00		 mov	 edi, DWORD PTR __imp_?GetString@ioStringManager@@QAEPADPBD0HW4FileNamePrefix@1@@Z
  000d4	8b c8		 mov	 ecx, eax
  000d6	ff d7		 call	 edi
  000d8	f3 0f 10 05 00
	00 00 00	 movss	 xmm0, DWORD PTR __real@3f266666
  000e0	50		 push	 eax
  000e1	51		 push	 ecx
  000e2	8d 45 c4	 lea	 eax, DWORD PTR _kPrinter$[ebp]
  000e5	f3 0f 11 04 24	 movss	 DWORD PTR [esp], xmm0
  000ea	50		 push	 eax
  000eb	e8 00 00 00 00	 call	 ?AddTextPiece@ioComplexStringPrinter@@QAAXMPBDZZ ; ioComplexStringPrinter::AddTextPiece
  000f0	83 c4 0c	 add	 esp, 12			; 0000000cH

; 761  : 	kPrinter.SetTextColor( TCT_DEFAULT_GREEN );

  000f3	68 22 72 11 ff	 push	 -15633886		; ff117222H
  000f8	8d 4d c4	 lea	 ecx, DWORD PTR _kPrinter$[ebp]
  000fb	e8 00 00 00 00	 call	 ?SetTextColor@ioComplexStringPrinter@@QAEXK@Z ; ioComplexStringPrinter::SetTextColor

; 762  : 	kPrinter.AddTextPiece( FONT_SIZE_13, STR(2), g_TradeInfoMgr.GetTradePeriod() );

  00100	e8 00 00 00 00	 call	 ?GetSingleton@TradeInfoManager@@SAAAV1@XZ ; TradeInfoManager::GetSingleton
  00105	ff 70 34	 push	 DWORD PTR [eax+52]
  00108	6a 00		 push	 0
  0010a	6a 02		 push	 2
  0010c	68 00 00 00 00	 push	 OFFSET ??_C@_00CNPNBAHC@?$AA@
  00111	53		 push	 ebx
  00112	ff d6		 call	 esi
  00114	8b c8		 mov	 ecx, eax
  00116	ff d7		 call	 edi
  00118	f3 0f 10 05 00
	00 00 00	 movss	 xmm0, DWORD PTR __real@3f266666
  00120	50		 push	 eax
  00121	51		 push	 ecx
  00122	8d 4d c4	 lea	 ecx, DWORD PTR _kPrinter$[ebp]
  00125	f3 0f 11 04 24	 movss	 DWORD PTR [esp], xmm0
  0012a	e8 00 00 00 00	 call	 ?AddTextPiece@ioComplexStringPrinter@@QAEXMPBDH@Z ; ioComplexStringPrinter::AddTextPiece

; 763  : 	kPrinter.SetTextColor( TCT_DEFAULT_DARKGRAY );

  0012f	68 3a 3a 3a ff	 push	 -12961222		; ff3a3a3aH
  00134	8d 4d c4	 lea	 ecx, DWORD PTR _kPrinter$[ebp]
  00137	e8 00 00 00 00	 call	 ?SetTextColor@ioComplexStringPrinter@@QAEXK@Z ; ioComplexStringPrinter::SetTextColor

; 764  : 	kPrinter.AddTextPiece( FONT_SIZE_13, STR(3), iRate );

  0013c	ff 75 ec	 push	 DWORD PTR _iRate$[ebp]
  0013f	6a 00		 push	 0
  00141	6a 03		 push	 3
  00143	68 00 00 00 00	 push	 OFFSET ??_C@_00CNPNBAHC@?$AA@
  00148	53		 push	 ebx
  00149	ff d6		 call	 esi
  0014b	8b c8		 mov	 ecx, eax
  0014d	ff d7		 call	 edi
  0014f	f3 0f 10 05 00
	00 00 00	 movss	 xmm0, DWORD PTR __real@3f266666
  00157	50		 push	 eax
  00158	51		 push	 ecx
  00159	8d 4d c4	 lea	 ecx, DWORD PTR _kPrinter$[ebp]
  0015c	f3 0f 11 04 24	 movss	 DWORD PTR [esp], xmm0
  00161	e8 00 00 00 00	 call	 ?AddTextPiece@ioComplexStringPrinter@@QAEXMPBDH@Z ; ioComplexStringPrinter::AddTextPiece

; 765  : 	kPrinter.PrintFullText( iXPos+TEXT_X, iYPos+TEXT_Y, TAT_LEFT );

  00166	8b 45 e8	 mov	 eax, DWORD PTR _iXPos$[ebp]
  00169	83 c0 11	 add	 eax, 17			; 00000011H
  0016c	0f 57 c0	 xorps	 xmm0, xmm0
  0016f	f3 0f 2a c0	 cvtsi2ss xmm0, eax
  00173	8b 45 f0	 mov	 eax, DWORD PTR _iYPos$[ebp]
  00176	68 ff 00 00 00	 push	 255			; 000000ffH
  0017b	f3 0f 11 45 ec	 movss	 DWORD PTR tv384[ebp], xmm0
  00180	6a 00		 push	 0
  00182	05 da 01 00 00	 add	 eax, 474		; 000001daH
  00187	0f 57 c9	 xorps	 xmm1, xmm1
  0018a	51		 push	 ecx
  0018b	51		 push	 ecx
  0018c	f3 0f 2a c8	 cvtsi2ss xmm1, eax
  00190	f3 0f 11 4c 24
	04		 movss	 DWORD PTR [esp+4], xmm1
  00196	8d 4d c4	 lea	 ecx, DWORD PTR _kPrinter$[ebp]
  00199	f3 0f 11 04 24	 movss	 DWORD PTR [esp], xmm0
  0019e	e8 00 00 00 00	 call	 ?PrintFullText@ioComplexStringPrinter@@QAEXMMW4TextAlignType@@E@Z ; ioComplexStringPrinter::PrintFullText

; 766  : 	kPrinter.ClearList();

  001a3	8d 4d c4	 lea	 ecx, DWORD PTR _kPrinter$[ebp]
  001a6	e8 00 00 00 00	 call	 ?ClearList@ioComplexStringPrinter@@QAEXXZ ; ioComplexStringPrinter::ClearList

; 767  : 
; 768  : 	kPrinter.SetTextStyle( TS_NORMAL );

  001ab	6a 00		 push	 0
  001ad	8d 4d c4	 lea	 ecx, DWORD PTR _kPrinter$[ebp]
  001b0	e8 00 00 00 00	 call	 ?SetTextStyle@ioComplexStringPrinter@@QAEXW4TextStyle@@@Z ; ioComplexStringPrinter::SetTextStyle

; 769  : 	kPrinter.SetBkColor( 0, 0, 0 );

  001b5	33 c0		 xor	 eax, eax
  001b7	50		 push	 eax
  001b8	50		 push	 eax
  001b9	50		 push	 eax
  001ba	8d 4d c4	 lea	 ecx, DWORD PTR _kPrinter$[ebp]
  001bd	e8 00 00 00 00	 call	 ?SetBkColor@ioComplexStringPrinter@@QAEXHHH@Z ; ioComplexStringPrinter::SetBkColor

; 770  : 	kPrinter.SetTextColor( TCT_DEFAULT_DARKGRAY );

  001c2	68 3a 3a 3a ff	 push	 -12961222		; ff3a3a3aH
  001c7	8d 4d c4	 lea	 ecx, DWORD PTR _kPrinter$[ebp]
  001ca	e8 00 00 00 00	 call	 ?SetTextColor@ioComplexStringPrinter@@QAEXK@Z ; ioComplexStringPrinter::SetTextColor

; 771  : 	kPrinter.AddTextPiece( FONT_SIZE_13, STR(4) );

  001cf	6a 00		 push	 0
  001d1	6a 04		 push	 4
  001d3	68 00 00 00 00	 push	 OFFSET ??_C@_00CNPNBAHC@?$AA@
  001d8	53		 push	 ebx
  001d9	ff d6		 call	 esi
  001db	8b c8		 mov	 ecx, eax
  001dd	ff d7		 call	 edi
  001df	f3 0f 10 05 00
	00 00 00	 movss	 xmm0, DWORD PTR __real@3f266666
  001e7	50		 push	 eax
  001e8	51		 push	 ecx
  001e9	8d 45 c4	 lea	 eax, DWORD PTR _kPrinter$[ebp]
  001ec	f3 0f 11 04 24	 movss	 DWORD PTR [esp], xmm0
  001f1	50		 push	 eax
  001f2	e8 00 00 00 00	 call	 ?AddTextPiece@ioComplexStringPrinter@@QAAXMPBDZZ ; ioComplexStringPrinter::AddTextPiece
  001f7	83 c4 0c	 add	 esp, 12			; 0000000cH

; 772  : 	kPrinter.SetTextColor( TCT_DEFAULT_GREEN );

  001fa	68 22 72 11 ff	 push	 -15633886		; ff117222H
  001ff	8d 4d c4	 lea	 ecx, DWORD PTR _kPrinter$[ebp]
  00202	e8 00 00 00 00	 call	 ?SetTextColor@ioComplexStringPrinter@@QAEXK@Z ; ioComplexStringPrinter::SetTextColor

; 773  : 	kPrinter.AddTextPiece( FONT_SIZE_13, STR(5) );

  00207	6a 00		 push	 0
  00209	6a 05		 push	 5
  0020b	68 00 00 00 00	 push	 OFFSET ??_C@_00CNPNBAHC@?$AA@
  00210	53		 push	 ebx
  00211	ff d6		 call	 esi
  00213	8b c8		 mov	 ecx, eax
  00215	ff d7		 call	 edi
  00217	f3 0f 10 05 00
	00 00 00	 movss	 xmm0, DWORD PTR __real@3f266666
  0021f	50		 push	 eax
  00220	51		 push	 ecx
  00221	8d 45 c4	 lea	 eax, DWORD PTR _kPrinter$[ebp]
  00224	f3 0f 11 04 24	 movss	 DWORD PTR [esp], xmm0
  00229	50		 push	 eax
  0022a	e8 00 00 00 00	 call	 ?AddTextPiece@ioComplexStringPrinter@@QAAXMPBDZZ ; ioComplexStringPrinter::AddTextPiece
  0022f	83 c4 0c	 add	 esp, 12			; 0000000cH

; 774  : 	kPrinter.SetTextColor( TCT_DEFAULT_DARKGRAY );

  00232	68 3a 3a 3a ff	 push	 -12961222		; ff3a3a3aH
  00237	8d 4d c4	 lea	 ecx, DWORD PTR _kPrinter$[ebp]
  0023a	e8 00 00 00 00	 call	 ?SetTextColor@ioComplexStringPrinter@@QAEXK@Z ; ioComplexStringPrinter::SetTextColor

; 775  : 	kPrinter.AddTextPiece( FONT_SIZE_13, STR(6) );

  0023f	6a 00		 push	 0
  00241	6a 06		 push	 6
  00243	68 00 00 00 00	 push	 OFFSET ??_C@_00CNPNBAHC@?$AA@
  00248	53		 push	 ebx
  00249	ff d6		 call	 esi
  0024b	8b c8		 mov	 ecx, eax
  0024d	ff d7		 call	 edi
  0024f	f3 0f 10 05 00
	00 00 00	 movss	 xmm0, DWORD PTR __real@3f266666
  00257	50		 push	 eax
  00258	51		 push	 ecx
  00259	8d 45 c4	 lea	 eax, DWORD PTR _kPrinter$[ebp]
  0025c	f3 0f 11 04 24	 movss	 DWORD PTR [esp], xmm0
  00261	50		 push	 eax
  00262	e8 00 00 00 00	 call	 ?AddTextPiece@ioComplexStringPrinter@@QAAXMPBDZZ ; ioComplexStringPrinter::AddTextPiece

; 776  : 	kPrinter.PrintFullText( iXPos+TEXT_X, iYPos+TEXT_Y+18, TAT_LEFT );

  00267	8b 45 f0	 mov	 eax, DWORD PTR _iYPos$[ebp]
  0026a	83 c4 0c	 add	 esp, 12			; 0000000cH
  0026d	68 ff 00 00 00	 push	 255			; 000000ffH
  00272	6a 00		 push	 0
  00274	51		 push	 ecx
  00275	05 ec 01 00 00	 add	 eax, 492		; 000001ecH
  0027a	0f 57 c0	 xorps	 xmm0, xmm0
  0027d	51		 push	 ecx
  0027e	f3 0f 2a c0	 cvtsi2ss xmm0, eax
  00282	f3 0f 11 44 24
	04		 movss	 DWORD PTR [esp+4], xmm0
  00288	f3 0f 10 45 ec	 movss	 xmm0, DWORD PTR tv384[ebp]
  0028d	8d 4d c4	 lea	 ecx, DWORD PTR _kPrinter$[ebp]
  00290	f3 0f 11 04 24	 movss	 DWORD PTR [esp], xmm0
  00295	e8 00 00 00 00	 call	 ?PrintFullText@ioComplexStringPrinter@@QAEXMMW4TextAlignType@@E@Z ; ioComplexStringPrinter::PrintFullText

; 777  : 	kPrinter.ClearList();

  0029a	8d 4d c4	 lea	 ecx, DWORD PTR _kPrinter$[ebp]
  0029d	e8 00 00 00 00	 call	 ?ClearList@ioComplexStringPrinter@@QAEXXZ ; ioComplexStringPrinter::ClearList

; 778  : 
; 779  : 	kPrinter.SetTextStyle( TS_NORMAL );

  002a2	6a 00		 push	 0
  002a4	8d 4d c4	 lea	 ecx, DWORD PTR _kPrinter$[ebp]
  002a7	e8 00 00 00 00	 call	 ?SetTextStyle@ioComplexStringPrinter@@QAEXW4TextStyle@@@Z ; ioComplexStringPrinter::SetTextStyle

; 780  : 	kPrinter.SetBkColor( 0, 0, 0 );

  002ac	33 c0		 xor	 eax, eax
  002ae	50		 push	 eax
  002af	50		 push	 eax
  002b0	50		 push	 eax
  002b1	8d 4d c4	 lea	 ecx, DWORD PTR _kPrinter$[ebp]
  002b4	e8 00 00 00 00	 call	 ?SetBkColor@ioComplexStringPrinter@@QAEXHHH@Z ; ioComplexStringPrinter::SetBkColor

; 781  : 	kPrinter.SetTextColor( TCT_DEFAULT_DARKGRAY );

  002b9	68 3a 3a 3a ff	 push	 -12961222		; ff3a3a3aH
  002be	8d 4d c4	 lea	 ecx, DWORD PTR _kPrinter$[ebp]
  002c1	e8 00 00 00 00	 call	 ?SetTextColor@ioComplexStringPrinter@@QAEXK@Z ; ioComplexStringPrinter::SetTextColor

; 782  : 	kPrinter.AddTextPiece( FONT_SIZE_13, STR(7) );

  002c6	6a 00		 push	 0
  002c8	6a 07		 push	 7
  002ca	68 00 00 00 00	 push	 OFFSET ??_C@_00CNPNBAHC@?$AA@
  002cf	53		 push	 ebx
  002d0	ff d6		 call	 esi
  002d2	8b c8		 mov	 ecx, eax
  002d4	ff d7		 call	 edi
  002d6	f3 0f 10 05 00
	00 00 00	 movss	 xmm0, DWORD PTR __real@3f266666
  002de	50		 push	 eax
  002df	51		 push	 ecx
  002e0	8d 45 c4	 lea	 eax, DWORD PTR _kPrinter$[ebp]
  002e3	f3 0f 11 04 24	 movss	 DWORD PTR [esp], xmm0
  002e8	50		 push	 eax
  002e9	e8 00 00 00 00	 call	 ?AddTextPiece@ioComplexStringPrinter@@QAAXMPBDZZ ; ioComplexStringPrinter::AddTextPiece
  002ee	83 c4 0c	 add	 esp, 12			; 0000000cH

; 783  : 	kPrinter.SetTextColor( TCT_DEFAULT_GREEN );

  002f1	68 22 72 11 ff	 push	 -15633886		; ff117222H
  002f6	8d 4d c4	 lea	 ecx, DWORD PTR _kPrinter$[ebp]
  002f9	e8 00 00 00 00	 call	 ?SetTextColor@ioComplexStringPrinter@@QAEXK@Z ; ioComplexStringPrinter::SetTextColor

; 784  : 	kPrinter.AddTextPiece( FONT_SIZE_13, STR(8) );

  002fe	6a 00		 push	 0
  00300	6a 08		 push	 8
  00302	68 00 00 00 00	 push	 OFFSET ??_C@_00CNPNBAHC@?$AA@
  00307	53		 push	 ebx
  00308	ff d6		 call	 esi
  0030a	8b c8		 mov	 ecx, eax
  0030c	ff d7		 call	 edi
  0030e	f3 0f 10 05 00
	00 00 00	 movss	 xmm0, DWORD PTR __real@3f266666
  00316	50		 push	 eax
  00317	51		 push	 ecx
  00318	8d 45 c4	 lea	 eax, DWORD PTR _kPrinter$[ebp]
  0031b	f3 0f 11 04 24	 movss	 DWORD PTR [esp], xmm0
  00320	50		 push	 eax
  00321	e8 00 00 00 00	 call	 ?AddTextPiece@ioComplexStringPrinter@@QAAXMPBDZZ ; ioComplexStringPrinter::AddTextPiece
  00326	83 c4 0c	 add	 esp, 12			; 0000000cH

; 785  : 	kPrinter.SetTextColor( TCT_DEFAULT_DARKGRAY );

  00329	68 3a 3a 3a ff	 push	 -12961222		; ff3a3a3aH
  0032e	8d 4d c4	 lea	 ecx, DWORD PTR _kPrinter$[ebp]
  00331	e8 00 00 00 00	 call	 ?SetTextColor@ioComplexStringPrinter@@QAEXK@Z ; ioComplexStringPrinter::SetTextColor

; 786  : 	kPrinter.AddTextPiece( FONT_SIZE_13, STR(9) );

  00336	6a 00		 push	 0
  00338	6a 09		 push	 9
  0033a	68 00 00 00 00	 push	 OFFSET ??_C@_00CNPNBAHC@?$AA@
  0033f	53		 push	 ebx
  00340	ff d6		 call	 esi
  00342	8b c8		 mov	 ecx, eax
  00344	ff d7		 call	 edi
  00346	f3 0f 10 05 00
	00 00 00	 movss	 xmm0, DWORD PTR __real@3f266666
  0034e	50		 push	 eax
  0034f	51		 push	 ecx
  00350	8d 45 c4	 lea	 eax, DWORD PTR _kPrinter$[ebp]
  00353	f3 0f 11 04 24	 movss	 DWORD PTR [esp], xmm0
  00358	50		 push	 eax
  00359	e8 00 00 00 00	 call	 ?AddTextPiece@ioComplexStringPrinter@@QAAXMPBDZZ ; ioComplexStringPrinter::AddTextPiece

; 787  : 	kPrinter.PrintFullText( iXPos+TEXT_X, iYPos+TEXT_Y+36, TAT_LEFT );

  0035e	8b 45 f0	 mov	 eax, DWORD PTR _iYPos$[ebp]
  00361	83 c4 0c	 add	 esp, 12			; 0000000cH
  00364	68 ff 00 00 00	 push	 255			; 000000ffH
  00369	6a 00		 push	 0
  0036b	51		 push	 ecx
  0036c	51		 push	 ecx
  0036d	05 fe 01 00 00	 add	 eax, 510		; 000001feH
  00372	0f 57 c0	 xorps	 xmm0, xmm0
  00375	f3 0f 2a c0	 cvtsi2ss xmm0, eax
  00379	f3 0f 11 44 24
	04		 movss	 DWORD PTR [esp+4], xmm0
  0037f	f3 0f 10 45 ec	 movss	 xmm0, DWORD PTR tv384[ebp]
  00384	f3 0f 11 04 24	 movss	 DWORD PTR [esp], xmm0
  00389	8d 4d c4	 lea	 ecx, DWORD PTR _kPrinter$[ebp]
  0038c	e8 00 00 00 00	 call	 ?PrintFullText@ioComplexStringPrinter@@QAEXMMW4TextAlignType@@E@Z ; ioComplexStringPrinter::PrintFullText

; 788  : 	kPrinter.ClearList();

  00391	8d 4d c4	 lea	 ecx, DWORD PTR _kPrinter$[ebp]
  00394	e8 00 00 00 00	 call	 ?ClearList@ioComplexStringPrinter@@QAEXXZ ; ioComplexStringPrinter::ClearList

; 789  : }

  00399	83 4d fc ff	 or	 DWORD PTR __$EHRec$[ebp+8], -1
  0039d	8d 4d c4	 lea	 ecx, DWORD PTR _kPrinter$[ebp]
  003a0	e8 00 00 00 00	 call	 ??1ioComplexStringPrinter@@QAE@XZ ; ioComplexStringPrinter::~ioComplexStringPrinter
  003a5	e8 00 00 00 00	 call	 __EH_epilog3
  003aa	c3		 ret	 0
_TEXT	ENDS
;	COMDAT text$x
text$x	SEGMENT
__unwindfunclet$?OnRender@TradeItemRegisterWnd@@MAEXXZ$0:
  00000	8d 4d c4	 lea	 ecx, DWORD PTR _kPrinter$[ebp]
  00003	e9 00 00 00 00	 jmp	 ??1ioComplexStringPrinter@@QAE@XZ ; ioComplexStringPrinter::~ioComplexStringPrinter
__ehhandler$?OnRender@TradeItemRegisterWnd@@MAEXXZ:
  00008	8b 54 24 08	 mov	 edx, DWORD PTR [esp+8]
  0000c	8d 42 0c	 lea	 eax, DWORD PTR [edx+12]
  0000f	8b 4a c0	 mov	 ecx, DWORD PTR [edx-64]
  00012	33 c8		 xor	 ecx, eax
  00014	e8 00 00 00 00	 call	 @__security_check_cookie@4
  00019	b8 00 00 00 00	 mov	 eax, OFFSET __ehfuncinfo$?OnRender@TradeItemRegisterWnd@@MAEXXZ
  0001e	e9 00 00 00 00	 jmp	 ___CxxFrameHandler3
text$x	ENDS
?OnRender@TradeItemRegisterWnd@@MAEXXZ ENDP		; TradeItemRegisterWnd::OnRender
PUBLIC	?GetCurItemInfo@TradeItemRegisterWnd@@QAE_NAAUtagInventoryItemInfo@@K@Z ; TradeItemRegisterWnd::GetCurItemInfo
; Function compile flags: /Ogsp
;	COMDAT ?GetCurItemInfo@TradeItemRegisterWnd@@QAE_NAAUtagInventoryItemInfo@@K@Z
_TEXT	SEGMENT
_rkInfo$ = 8						; size = 4
_dwItemInfoID$ = 12					; size = 4
?GetCurItemInfo@TradeItemRegisterWnd@@QAE_NAAUtagInventoryItemInfo@@K@Z PROC ; TradeItemRegisterWnd::GetCurItemInfo, COMDAT
; _this$ = ecx

; 899  : {

  00000	55		 push	 ebp
  00001	8b ec		 mov	 ebp, esp

; 900  : 	if( !COMPARE( dwItemInfoID, ID_ITEM_INFO_WND_1_BTN, ID_ITEM_INFO_WND_8_BTN+1) )

  00003	8b 45 0c	 mov	 eax, DWORD PTR _dwItemInfoID$[ebp]
  00006	8d 90 37 ff ff
	ff		 lea	 edx, DWORD PTR [eax-201]
  0000c	56		 push	 esi
  0000d	83 fa 07	 cmp	 edx, 7
  00010	77 3c		 ja	 SHORT $LN3@GetCurItem

; 902  : 
; 903  : 	int iStartArray = m_iCurPage * PAGE_PER_ITEM_NUM;
; 904  : 	int iCurArray   = iStartArray + ( dwItemInfoID - ID_ITEM_INFO_WND_1_BTN );

  00012	8b 91 a0 01 00
	00		 mov	 edx, DWORD PTR [ecx+416]
  00018	8d b4 90 37 ff
	ff ff		 lea	 esi, DWORD PTR [eax+edx*4-201]

; 905  : 	int iSize       = m_vInventoryItemInfoList.size();

  0001f	8d 81 90 01 00
	00		 lea	 eax, DWORD PTR [ecx+400]

; 906  : 	if( !COMPARE( iCurArray, 0, iSize ) )

  00025	85 f6		 test	 esi, esi
  00027	78 25		 js	 SHORT $LN3@GetCurItem

; 905  : 	int iSize       = m_vInventoryItemInfoList.size();

  00029	8b 08		 mov	 ecx, DWORD PTR [eax]
  0002b	8b 40 04	 mov	 eax, DWORD PTR [eax+4]
  0002e	57		 push	 edi
  0002f	2b c1		 sub	 eax, ecx
  00031	6a 48		 push	 72			; 00000048H
  00033	99		 cdq
  00034	5f		 pop	 edi
  00035	f7 ff		 idiv	 edi
  00037	5f		 pop	 edi

; 906  : 	if( !COMPARE( iCurArray, 0, iSize ) )

  00038	3b f0		 cmp	 esi, eax
  0003a	7d 12		 jge	 SHORT $LN3@GetCurItem

; 907  : 		return false;
; 908  : 
; 909  : 	rkInfo = m_vInventoryItemInfoList[iCurArray];

  0003c	6b f6 48	 imul	 esi, 72			; 00000048H
  0003f	03 f1		 add	 esi, ecx
  00041	8b 4d 08	 mov	 ecx, DWORD PTR _rkInfo$[ebp]
  00044	56		 push	 esi
  00045	e8 00 00 00 00	 call	 ??4tagInventoryItemInfo@@QAEAAU0@ABU0@@Z

; 910  : 	return true;

  0004a	b0 01		 mov	 al, 1
  0004c	eb 02		 jmp	 SHORT $LN5@GetCurItem
$LN3@GetCurItem:

; 901  : 		return false;

  0004e	32 c0		 xor	 al, al
$LN5@GetCurItem:
  00050	5e		 pop	 esi

; 911  : }

  00051	5d		 pop	 ebp
  00052	c2 08 00	 ret	 8
?GetCurItemInfo@TradeItemRegisterWnd@@QAE_NAAUtagInventoryItemInfo@@K@Z ENDP ; TradeItemRegisterWnd::GetCurItemInfo
_TEXT	ENDS
PUBLIC	??0?$_Vector_val@UtagInventoryItemInfo@@V?$allocator@UtagInventoryItemInfo@@@std@@@std@@QAE@V?$allocator@UtagInventoryItemInfo@@@1@@Z ; std::_Vector_val<tagInventoryItemInfo,std::allocator<tagInventoryItemInfo> >::_Vector_val<tagInventoryItemInfo,std::allocator<tagInventoryItemInfo> >
; Function compile flags: /Ogsp
; File c:\program files (x86)\microsoft visual studio 10.0\vc\include\vector
;	COMDAT ??0?$_Vector_val@UtagInventoryItemInfo@@V?$allocator@UtagInventoryItemInfo@@@std@@@std@@QAE@V?$allocator@UtagInventoryItemInfo@@@1@@Z
_TEXT	SEGMENT
__Al$ = 8						; size = 1
??0?$_Vector_val@UtagInventoryItemInfo@@V?$allocator@UtagInventoryItemInfo@@@std@@@std@@QAE@V?$allocator@UtagInventoryItemInfo@@@1@@Z PROC ; std::_Vector_val<tagInventoryItemInfo,std::allocator<tagInventoryItemInfo> >::_Vector_val<tagInventoryItemInfo,std::allocator<tagInventoryItemInfo> >, COMDAT
; _this$ = ecx

; 426  : 		{	// construct allocator from _Al

  00000	8b c1		 mov	 eax, ecx

; 427  : 		_Myfirst = 0;

  00002	33 c9		 xor	 ecx, ecx
  00004	89 08		 mov	 DWORD PTR [eax], ecx

; 428  : 		_Mylast = 0;

  00006	89 48 04	 mov	 DWORD PTR [eax+4], ecx

; 429  : 		_Myend = 0;

  00009	89 48 08	 mov	 DWORD PTR [eax+8], ecx

; 430  : 		}

  0000c	c2 04 00	 ret	 4
??0?$_Vector_val@UtagInventoryItemInfo@@V?$allocator@UtagInventoryItemInfo@@@std@@@std@@QAE@V?$allocator@UtagInventoryItemInfo@@@1@@Z ENDP ; std::_Vector_val<tagInventoryItemInfo,std::allocator<tagInventoryItemInfo> >::_Vector_val<tagInventoryItemInfo,std::allocator<tagInventoryItemInfo> >
_TEXT	ENDS
PUBLIC	??0?$_Vector_iterator@V?$_Vector_val@UtagInventoryItemInfo@@V?$allocator@UtagInventoryItemInfo@@@std@@@std@@@std@@QAE@PAUtagInventoryItemInfo@@PBU_Container_base0@1@@Z ; std::_Vector_iterator<std::_Vector_val<tagInventoryItemInfo,std::allocator<tagInventoryItemInfo> > >::_Vector_iterator<std::_Vector_val<tagInventoryItemInfo,std::allocator<tagInventoryItemInfo> > >
; Function compile flags: /Ogsp
;	COMDAT ??0?$_Vector_iterator@V?$_Vector_val@UtagInventoryItemInfo@@V?$allocator@UtagInventoryItemInfo@@@std@@@std@@@std@@QAE@PAUtagInventoryItemInfo@@PBU_Container_base0@1@@Z
_TEXT	SEGMENT
__Parg$ = 8						; size = 4
__Pvector$ = 12						; size = 4
??0?$_Vector_iterator@V?$_Vector_val@UtagInventoryItemInfo@@V?$allocator@UtagInventoryItemInfo@@@std@@@std@@@std@@QAE@PAUtagInventoryItemInfo@@PBU_Container_base0@1@@Z PROC ; std::_Vector_iterator<std::_Vector_val<tagInventoryItemInfo,std::allocator<tagInventoryItemInfo> > >::_Vector_iterator<std::_Vector_val<tagInventoryItemInfo,std::allocator<tagInventoryItemInfo> > >, COMDAT
; _this$ = ecx

; 304  : 		{	// construct with pointer _Parg

  00000	55		 push	 ebp
  00001	8b ec		 mov	 ebp, esp
  00003	8b c1		 mov	 eax, ecx
  00005	8b 4d 08	 mov	 ecx, DWORD PTR __Parg$[ebp]
  00008	89 08		 mov	 DWORD PTR [eax], ecx

; 305  : 		}

  0000a	5d		 pop	 ebp
  0000b	c2 08 00	 ret	 8
??0?$_Vector_iterator@V?$_Vector_val@UtagInventoryItemInfo@@V?$allocator@UtagInventoryItemInfo@@@std@@@std@@@std@@QAE@PAUtagInventoryItemInfo@@PBU_Container_base0@1@@Z ENDP ; std::_Vector_iterator<std::_Vector_val<tagInventoryItemInfo,std::allocator<tagInventoryItemInfo> > >::_Vector_iterator<std::_Vector_val<tagInventoryItemInfo,std::allocator<tagInventoryItemInfo> > >
_TEXT	ENDS
PUBLIC	?_Make_iter@?$vector@UtagInventoryItemInfo@@V?$allocator@UtagInventoryItemInfo@@@std@@@std@@QBE?AV?$_Vector_iterator@V?$_Vector_val@UtagInventoryItemInfo@@V?$allocator@UtagInventoryItemInfo@@@std@@@std@@@2@V?$_Vector_const_iterator@V?$_Vector_val@UtagInventoryItemInfo@@V?$allocator@UtagInventoryItemInfo@@@std@@@std@@@2@@Z ; std::vector<tagInventoryItemInfo,std::allocator<tagInventoryItemInfo> >::_Make_iter
; Function compile flags: /Ogsp
;	COMDAT ?_Make_iter@?$vector@UtagInventoryItemInfo@@V?$allocator@UtagInventoryItemInfo@@@std@@@std@@QBE?AV?$_Vector_iterator@V?$_Vector_val@UtagInventoryItemInfo@@V?$allocator@UtagInventoryItemInfo@@@std@@@std@@@2@V?$_Vector_const_iterator@V?$_Vector_val@UtagInventoryItemInfo@@V?$allocator@UtagInventoryItemInfo@@@std@@@std@@@2@@Z
_TEXT	SEGMENT
___$ReturnUdt$ = 8					; size = 4
__Where$ = 12						; size = 4
?_Make_iter@?$vector@UtagInventoryItemInfo@@V?$allocator@UtagInventoryItemInfo@@@std@@@std@@QBE?AV?$_Vector_iterator@V?$_Vector_val@UtagInventoryItemInfo@@V?$allocator@UtagInventoryItemInfo@@@std@@@std@@@2@V?$_Vector_const_iterator@V?$_Vector_val@UtagInventoryItemInfo@@V?$allocator@UtagInventoryItemInfo@@@std@@@std@@@2@@Z PROC ; std::vector<tagInventoryItemInfo,std::allocator<tagInventoryItemInfo> >::_Make_iter, COMDAT
; _this$ = ecx

; 801  : 		{	// make iterator from const_iterator

  00000	55		 push	 ebp
  00001	8b ec		 mov	 ebp, esp

; 802  : 		return (iterator(_Where._Ptr, this));

  00003	8b 45 08	 mov	 eax, DWORD PTR ___$ReturnUdt$[ebp]
  00006	8b 4d 0c	 mov	 ecx, DWORD PTR __Where$[ebp]
  00009	89 08		 mov	 DWORD PTR [eax], ecx

; 803  : 		}

  0000b	5d		 pop	 ebp
  0000c	c2 08 00	 ret	 8
?_Make_iter@?$vector@UtagInventoryItemInfo@@V?$allocator@UtagInventoryItemInfo@@@std@@@std@@QBE?AV?$_Vector_iterator@V?$_Vector_val@UtagInventoryItemInfo@@V?$allocator@UtagInventoryItemInfo@@@std@@@std@@@2@V?$_Vector_const_iterator@V?$_Vector_val@UtagInventoryItemInfo@@V?$allocator@UtagInventoryItemInfo@@@std@@@std@@@2@@Z ENDP ; std::vector<tagInventoryItemInfo,std::allocator<tagInventoryItemInfo> >::_Make_iter
_TEXT	ENDS
PUBLIC	?max_size@?$vector@UtagInventoryItemInfo@@V?$allocator@UtagInventoryItemInfo@@@std@@@std@@QBEIXZ ; std::vector<tagInventoryItemInfo,std::allocator<tagInventoryItemInfo> >::max_size
; Function compile flags: /Ogsp
;	COMDAT ?max_size@?$vector@UtagInventoryItemInfo@@V?$allocator@UtagInventoryItemInfo@@@std@@@std@@QBEIXZ
_TEXT	SEGMENT
?max_size@?$vector@UtagInventoryItemInfo@@V?$allocator@UtagInventoryItemInfo@@@std@@@std@@QBEIXZ PROC ; std::vector<tagInventoryItemInfo,std::allocator<tagInventoryItemInfo> >::max_size, COMDAT
; _this$ = ecx

; 884  : 		return (this->_Alval.max_size());

  00000	b8 e3 38 8e 03	 mov	 eax, 59652323		; 038e38e3H

; 885  : 		}

  00005	c3		 ret	 0
?max_size@?$vector@UtagInventoryItemInfo@@V?$allocator@UtagInventoryItemInfo@@@std@@@std@@QBEIXZ ENDP ; std::vector<tagInventoryItemInfo,std::allocator<tagInventoryItemInfo> >::max_size
_TEXT	ENDS
PUBLIC	?_Grow_to@?$vector@UtagInventoryItemInfo@@V?$allocator@UtagInventoryItemInfo@@@std@@@std@@IBEII@Z ; std::vector<tagInventoryItemInfo,std::allocator<tagInventoryItemInfo> >::_Grow_to
; Function compile flags: /Ogsp
;	COMDAT ?_Grow_to@?$vector@UtagInventoryItemInfo@@V?$allocator@UtagInventoryItemInfo@@@std@@@std@@IBEII@Z
_TEXT	SEGMENT
__Count$ = 8						; size = 4
?_Grow_to@?$vector@UtagInventoryItemInfo@@V?$allocator@UtagInventoryItemInfo@@@std@@@std@@IBEII@Z PROC ; std::vector<tagInventoryItemInfo,std::allocator<tagInventoryItemInfo> >::_Grow_to, COMDAT
; _this$ = ecx

; 1274 : 		{	// grow by 50% or at least to _Count

  00000	55		 push	 ebp
  00001	8b ec		 mov	 ebp, esp

; 1275 : 		size_type _Capacity = capacity();

  00003	8b 41 08	 mov	 eax, DWORD PTR [ecx+8]
  00006	2b 01		 sub	 eax, DWORD PTR [ecx]
  00008	6a 48		 push	 72			; 00000048H
  0000a	99		 cdq
  0000b	59		 pop	 ecx
  0000c	f7 f9		 idiv	 ecx

; 1276 : 
; 1277 : 		_Capacity = max_size() - _Capacity / 2 < _Capacity
; 1278 : 			? 0 : _Capacity + _Capacity / 2;	// try to grow by 50%

  0000e	ba e3 38 8e 03	 mov	 edx, 59652323		; 038e38e3H
  00013	8b c8		 mov	 ecx, eax
  00015	d1 e9		 shr	 ecx, 1
  00017	2b d1		 sub	 edx, ecx
  00019	3b d0		 cmp	 edx, eax
  0001b	73 04		 jae	 SHORT $LN4@Grow_to
  0001d	33 c0		 xor	 eax, eax
  0001f	eb 02		 jmp	 SHORT $LN5@Grow_to
$LN4@Grow_to:
  00021	03 c1		 add	 eax, ecx
$LN5@Grow_to:

; 1279 : 		if (_Capacity < _Count)

  00023	3b 45 08	 cmp	 eax, DWORD PTR __Count$[ebp]

; 1280 : 			_Capacity = _Count;

  00026	0f 42 45 08	 cmovb	 eax, DWORD PTR __Count$[ebp]

; 1281 : 		return (_Capacity);
; 1282 : 		}

  0002a	5d		 pop	 ebp
  0002b	c2 04 00	 ret	 4
?_Grow_to@?$vector@UtagInventoryItemInfo@@V?$allocator@UtagInventoryItemInfo@@@std@@@std@@IBEII@Z ENDP ; std::vector<tagInventoryItemInfo,std::allocator<tagInventoryItemInfo> >::_Grow_to
_TEXT	ENDS
PUBLIC	?allocate@?$allocator@UtagInventoryItemInfo@@@std@@QAEPAUtagInventoryItemInfo@@I@Z ; std::allocator<tagInventoryItemInfo>::allocate
; Function compile flags: /Ogsp
; File c:\program files (x86)\microsoft visual studio 10.0\vc\include\xmemory
;	COMDAT ?allocate@?$allocator@UtagInventoryItemInfo@@@std@@QAEPAUtagInventoryItemInfo@@I@Z
_TEXT	SEGMENT
__Count$ = 8						; size = 4
?allocate@?$allocator@UtagInventoryItemInfo@@@std@@QAEPAUtagInventoryItemInfo@@I@Z PROC ; std::allocator<tagInventoryItemInfo>::allocate, COMDAT
; _this$ = ecx

; 186  : 		{	// allocate array of _Count elements

  00000	55		 push	 ebp
  00001	8b ec		 mov	 ebp, esp

; 187  : 		return (_Allocate(_Count, (pointer)0));

  00003	6a 00		 push	 0
  00005	ff 75 08	 push	 DWORD PTR __Count$[ebp]
  00008	e8 00 00 00 00	 call	 ??$_Allocate@UtagInventoryItemInfo@@@std@@YAPAUtagInventoryItemInfo@@IPAU1@@Z ; std::_Allocate<tagInventoryItemInfo>
  0000d	59		 pop	 ecx
  0000e	59		 pop	 ecx

; 188  : 		}

  0000f	5d		 pop	 ebp
  00010	c2 04 00	 ret	 4
?allocate@?$allocator@UtagInventoryItemInfo@@@std@@QAEPAUtagInventoryItemInfo@@I@Z ENDP ; std::allocator<tagInventoryItemInfo>::allocate
_TEXT	ENDS
PUBLIC	??8?$_Vector_const_iterator@V?$_Vector_val@UtagInventoryItemInfo@@V?$allocator@UtagInventoryItemInfo@@@std@@@std@@@std@@QBE_NABV01@@Z ; std::_Vector_const_iterator<std::_Vector_val<tagInventoryItemInfo,std::allocator<tagInventoryItemInfo> > >::operator==
; Function compile flags: /Ogsp
; File c:\program files (x86)\microsoft visual studio 10.0\vc\include\vector
;	COMDAT ??8?$_Vector_const_iterator@V?$_Vector_val@UtagInventoryItemInfo@@V?$allocator@UtagInventoryItemInfo@@@std@@@std@@@std@@QBE_NABV01@@Z
_TEXT	SEGMENT
__Right$ = 8						; size = 4
??8?$_Vector_const_iterator@V?$_Vector_val@UtagInventoryItemInfo@@V?$allocator@UtagInventoryItemInfo@@@std@@@std@@@std@@QBE_NABV01@@Z PROC ; std::_Vector_const_iterator<std::_Vector_val<tagInventoryItemInfo,std::allocator<tagInventoryItemInfo> > >::operator==, COMDAT
; _this$ = ecx

; 201  : 		{	// test for iterator equality

  00000	55		 push	 ebp
  00001	8b ec		 mov	 ebp, esp

; 202  : 		_Compat(_Right);
; 203  : 		return (this->_Ptr == _Right._Ptr);

  00003	8b 01		 mov	 eax, DWORD PTR [ecx]
  00005	8b 4d 08	 mov	 ecx, DWORD PTR __Right$[ebp]
  00008	2b 01		 sub	 eax, DWORD PTR [ecx]
  0000a	f7 d8		 neg	 eax
  0000c	1b c0		 sbb	 eax, eax
  0000e	40		 inc	 eax

; 204  : 		}

  0000f	5d		 pop	 ebp
  00010	c2 04 00	 ret	 4
??8?$_Vector_const_iterator@V?$_Vector_val@UtagInventoryItemInfo@@V?$allocator@UtagInventoryItemInfo@@@std@@@std@@@std@@QBE_NABV01@@Z ENDP ; std::_Vector_const_iterator<std::_Vector_val<tagInventoryItemInfo,std::allocator<tagInventoryItemInfo> > >::operator==
_TEXT	ENDS
PUBLIC	__$ArrayPad$
PUBLIC	??$?8$08@@YA_NABVioHashString@@AAY08$$CBD@Z	; operator==<9>
EXTRN	___security_cookie:DWORD
; Function compile flags: /Ogsp
; File d:\lost saga for developer\youtube\tutorial\source\src\io3dengine\iohashstring.h
;	COMDAT ??$?8$08@@YA_NABVioHashString@@AAY08$$CBD@Z
_TEXT	SEGMENT
__t$ = -20						; size = 9
__$ArrayPad$ = -4					; size = 4
_lhs$ = 8						; size = 4
_t$ = 12						; size = 4
??$?8$08@@YA_NABVioHashString@@AAY08$$CBD@Z PROC	; operator==<9>, COMDAT

; 146  : {

  00000	55		 push	 ebp
  00001	8b ec		 mov	 ebp, esp
  00003	83 ec 14	 sub	 esp, 20			; 00000014H
  00006	a1 00 00 00 00	 mov	 eax, DWORD PTR ___security_cookie
  0000b	33 c5		 xor	 eax, ebp
  0000d	89 45 fc	 mov	 DWORD PTR __$ArrayPad$[ebp], eax
  00010	8b 45 0c	 mov	 eax, DWORD PTR _t$[ebp]

; 147  : 	_ENCSTR(t, _t); return ( strcmp( lhs.c_str(), _t ) == 0 );

  00013	8a 10		 mov	 dl, BYTE PTR [eax]
  00015	8b 4d 08	 mov	 ecx, DWORD PTR _lhs$[ebp]
  00018	84 d2		 test	 dl, dl
  0001a	0f 84 ee 00 00
	00		 je	 $LN96@operator@3
  00020	80 f2 ed	 xor	 dl, -19			; ffffffedH
  00023	88 55 ec	 mov	 BYTE PTR __t$[ebp], dl
  00026	8a 50 01	 mov	 dl, BYTE PTR [eax+1]
  00029	84 d2		 test	 dl, dl
  0002b	0f 84 d7 00 00
	00		 je	 $LN95@operator@3
  00031	80 f2 ec	 xor	 dl, -20			; ffffffecH
  00034	88 55 ed	 mov	 BYTE PTR __t$[ebp+1], dl
  00037	8a 50 02	 mov	 dl, BYTE PTR [eax+2]
  0003a	84 d2		 test	 dl, dl
  0003c	0f 84 c0 00 00
	00		 je	 $LN94@operator@3
  00042	80 f2 eb	 xor	 dl, -21			; ffffffebH
  00045	88 55 ee	 mov	 BYTE PTR __t$[ebp+2], dl
  00048	8a 50 03	 mov	 dl, BYTE PTR [eax+3]
  0004b	84 d2		 test	 dl, dl
  0004d	0f 84 a9 00 00
	00		 je	 $LN93@operator@3
  00053	80 f2 ea	 xor	 dl, -22			; ffffffeaH
  00056	88 55 ef	 mov	 BYTE PTR __t$[ebp+3], dl
  00059	8a 50 04	 mov	 dl, BYTE PTR [eax+4]
  0005c	84 d2		 test	 dl, dl
  0005e	0f 84 92 00 00
	00		 je	 $LN92@operator@3
  00064	80 f2 ed	 xor	 dl, -19			; ffffffedH
  00067	88 55 f0	 mov	 BYTE PTR __t$[ebp+4], dl
  0006a	8a 50 05	 mov	 dl, BYTE PTR [eax+5]
  0006d	84 d2		 test	 dl, dl
  0006f	74 7f		 je	 SHORT $LN91@operator@3
  00071	80 f2 ec	 xor	 dl, -20			; ffffffecH
  00074	88 55 f1	 mov	 BYTE PTR __t$[ebp+5], dl
  00077	8a 50 06	 mov	 dl, BYTE PTR [eax+6]
  0007a	84 d2		 test	 dl, dl
  0007c	74 6c		 je	 SHORT $LN90@operator@3
  0007e	80 f2 eb	 xor	 dl, -21			; ffffffebH
  00081	88 55 f2	 mov	 BYTE PTR __t$[ebp+6], dl
  00084	8a 50 07	 mov	 dl, BYTE PTR [eax+7]
  00087	84 d2		 test	 dl, dl
  00089	74 59		 je	 SHORT $LN89@operator@3
  0008b	80 f2 ea	 xor	 dl, -22			; ffffffeaH
  0008e	80 78 08 00	 cmp	 BYTE PTR [eax+8], 0
  00092	88 55 f3	 mov	 BYTE PTR __t$[ebp+7], dl
  00095	74 7b		 je	 SHORT $LN1@operator@3
  00097	8a 50 09	 mov	 dl, BYTE PTR [eax+9]
  0009a	84 d2		 test	 dl, dl
  0009c	74 40		 je	 SHORT $LN87@operator@3
  0009e	80 f2 ec	 xor	 dl, -20			; ffffffecH
  000a1	88 55 f5	 mov	 BYTE PTR __t$[ebp+9], dl
  000a4	8a 50 0a	 mov	 dl, BYTE PTR [eax+10]
  000a7	84 d2		 test	 dl, dl
  000a9	74 2d		 je	 SHORT $LN86@operator@3
  000ab	80 f2 eb	 xor	 dl, -21			; ffffffebH
  000ae	88 55 f6	 mov	 BYTE PTR __t$[ebp+10], dl
  000b1	8a 50 0b	 mov	 dl, BYTE PTR [eax+11]
  000b4	84 d2		 test	 dl, dl
  000b6	74 1a		 je	 SHORT $LN85@operator@3
  000b8	8a 40 0c	 mov	 al, BYTE PTR [eax+12]
  000bb	80 f2 ea	 xor	 dl, -22			; ffffffeaH
  000be	88 55 f7	 mov	 BYTE PTR __t$[ebp+11], dl
  000c1	84 c0		 test	 al, al
  000c3	74 07		 je	 SHORT $LN84@operator@3
  000c5	34 ed		 xor	 al, -19			; ffffffedH
  000c7	88 45 f8	 mov	 BYTE PTR __t$[ebp+12], al
  000ca	eb 46		 jmp	 SHORT $LN1@operator@3
$LN84@operator@3:
  000cc	c6 45 f8 ed	 mov	 BYTE PTR __t$[ebp+12], -19 ; ffffffedH
  000d0	eb 40		 jmp	 SHORT $LN1@operator@3
$LN85@operator@3:
  000d2	c6 45 f7 ea	 mov	 BYTE PTR __t$[ebp+11], -22 ; ffffffeaH
  000d6	eb 3a		 jmp	 SHORT $LN1@operator@3
$LN86@operator@3:
  000d8	c6 45 f6 eb	 mov	 BYTE PTR __t$[ebp+10], -21 ; ffffffebH
  000dc	eb 34		 jmp	 SHORT $LN1@operator@3
$LN87@operator@3:
  000de	c6 45 f5 ec	 mov	 BYTE PTR __t$[ebp+9], -20 ; ffffffecH
  000e2	eb 2e		 jmp	 SHORT $LN1@operator@3
$LN89@operator@3:
  000e4	c6 45 f3 ea	 mov	 BYTE PTR __t$[ebp+7], -22 ; ffffffeaH
  000e8	eb 28		 jmp	 SHORT $LN1@operator@3
$LN90@operator@3:
  000ea	c6 45 f2 eb	 mov	 BYTE PTR __t$[ebp+6], -21 ; ffffffebH
  000ee	eb 22		 jmp	 SHORT $LN1@operator@3
$LN91@operator@3:
  000f0	c6 45 f1 ec	 mov	 BYTE PTR __t$[ebp+5], -20 ; ffffffecH
  000f4	eb 1c		 jmp	 SHORT $LN1@operator@3
$LN92@operator@3:
  000f6	c6 45 f0 ed	 mov	 BYTE PTR __t$[ebp+4], -19 ; ffffffedH
  000fa	eb 16		 jmp	 SHORT $LN1@operator@3
$LN93@operator@3:
  000fc	c6 45 ef ea	 mov	 BYTE PTR __t$[ebp+3], -22 ; ffffffeaH
  00100	eb 10		 jmp	 SHORT $LN1@operator@3
$LN94@operator@3:
  00102	c6 45 ee eb	 mov	 BYTE PTR __t$[ebp+2], -21 ; ffffffebH
  00106	eb 0a		 jmp	 SHORT $LN1@operator@3
$LN95@operator@3:
  00108	c6 45 ed ec	 mov	 BYTE PTR __t$[ebp+1], -20 ; ffffffecH
  0010c	eb 04		 jmp	 SHORT $LN1@operator@3
$LN96@operator@3:
  0010e	c6 45 ec ed	 mov	 BYTE PTR __t$[ebp], -19	; ffffffedH
$LN1@operator@3:
  00112	6a 02		 push	 2
  00114	8d 45 ec	 lea	 eax, DWORD PTR __t$[ebp]
  00117	c6 45 f4 00	 mov	 BYTE PTR __t$[ebp+8], 0
  0011b	5a		 pop	 edx
$LL104@operator@3:
  0011c	81 30 ed ec eb
	ea		 xor	 DWORD PTR [eax], -353637139 ; eaebecedH
  00122	83 c0 04	 add	 eax, 4
  00125	4a		 dec	 edx
  00126	75 f4		 jne	 SHORT $LL104@operator@3
  00128	56		 push	 esi
  00129	8d 75 ec	 lea	 esi, DWORD PTR __t$[ebp]
  0012c	ff 15 00 00 00
	00		 call	 DWORD PTR __imp_?c_str@ioHashString@@QBEPBDXZ
$LL111@operator@3:
  00132	8a 08		 mov	 cl, BYTE PTR [eax]
  00134	3a 0e		 cmp	 cl, BYTE PTR [esi]
  00136	75 1a		 jne	 SHORT $LN112@operator@3
  00138	84 c9		 test	 cl, cl
  0013a	74 12		 je	 SHORT $LN113@operator@3
  0013c	8a 48 01	 mov	 cl, BYTE PTR [eax+1]
  0013f	3a 4e 01	 cmp	 cl, BYTE PTR [esi+1]
  00142	75 0e		 jne	 SHORT $LN112@operator@3
  00144	83 c0 02	 add	 eax, 2
  00147	83 c6 02	 add	 esi, 2
  0014a	84 c9		 test	 cl, cl
  0014c	75 e4		 jne	 SHORT $LL111@operator@3
$LN113@operator@3:
  0014e	33 c0		 xor	 eax, eax
  00150	eb 05		 jmp	 SHORT $LN114@operator@3
$LN112@operator@3:
  00152	1b c0		 sbb	 eax, eax
  00154	83 d8 ff	 sbb	 eax, -1
$LN114@operator@3:
  00157	33 c9		 xor	 ecx, ecx
  00159	85 c0		 test	 eax, eax
  0015b	0f 94 c0	 sete	 al

; 148  : }

  0015e	8b 4d fc	 mov	 ecx, DWORD PTR __$ArrayPad$[ebp]
  00161	33 cd		 xor	 ecx, ebp
  00163	5e		 pop	 esi
  00164	e8 00 00 00 00	 call	 @__security_check_cookie@4
  00169	c9		 leave
  0016a	c3		 ret	 0
??$?8$08@@YA_NABVioHashString@@AAY08$$CBD@Z ENDP	; operator==<9>
_TEXT	ENDS
PUBLIC	__$ArrayPad$
PUBLIC	??$?8$06@@YA_NABVioHashString@@AAY06$$CBD@Z	; operator==<7>
; Function compile flags: /Ogsp
;	COMDAT ??$?8$06@@YA_NABVioHashString@@AAY06$$CBD@Z
_TEXT	SEGMENT
__t$ = -16						; size = 7
__$ArrayPad$ = -4					; size = 4
_lhs$ = 8						; size = 4
_t$ = 12						; size = 4
??$?8$06@@YA_NABVioHashString@@AAY06$$CBD@Z PROC	; operator==<7>, COMDAT

; 146  : {

  00000	55		 push	 ebp
  00001	8b ec		 mov	 ebp, esp
  00003	83 ec 10	 sub	 esp, 16			; 00000010H
  00006	a1 00 00 00 00	 mov	 eax, DWORD PTR ___security_cookie
  0000b	33 c5		 xor	 eax, ebp
  0000d	89 45 fc	 mov	 DWORD PTR __$ArrayPad$[ebp], eax
  00010	8b 45 0c	 mov	 eax, DWORD PTR _t$[ebp]

; 147  : 	_ENCSTR(t, _t); return ( strcmp( lhs.c_str(), _t ) == 0 );

  00013	8a 10		 mov	 dl, BYTE PTR [eax]
  00015	56		 push	 esi
  00016	57		 push	 edi
  00017	8b 7d 08	 mov	 edi, DWORD PTR _lhs$[ebp]
  0001a	84 d2		 test	 dl, dl
  0001c	0f 84 c0 00 00
	00		 je	 $LN96@operator@4
  00022	80 f2 ed	 xor	 dl, -19			; ffffffedH
  00025	88 55 f0	 mov	 BYTE PTR __t$[ebp], dl
  00028	8a 50 01	 mov	 dl, BYTE PTR [eax+1]
  0002b	84 d2		 test	 dl, dl
  0002d	0f 84 a9 00 00
	00		 je	 $LN95@operator@4
  00033	80 f2 ec	 xor	 dl, -20			; ffffffecH
  00036	88 55 f1	 mov	 BYTE PTR __t$[ebp+1], dl
  00039	8a 50 02	 mov	 dl, BYTE PTR [eax+2]
  0003c	84 d2		 test	 dl, dl
  0003e	0f 84 92 00 00
	00		 je	 $LN94@operator@4
  00044	80 f2 eb	 xor	 dl, -21			; ffffffebH
  00047	88 55 f2	 mov	 BYTE PTR __t$[ebp+2], dl
  0004a	8a 50 03	 mov	 dl, BYTE PTR [eax+3]
  0004d	84 d2		 test	 dl, dl
  0004f	74 7f		 je	 SHORT $LN93@operator@4
  00051	80 f2 ea	 xor	 dl, -22			; ffffffeaH
  00054	88 55 f3	 mov	 BYTE PTR __t$[ebp+3], dl
  00057	8a 50 04	 mov	 dl, BYTE PTR [eax+4]
  0005a	84 d2		 test	 dl, dl
  0005c	74 6c		 je	 SHORT $LN92@operator@4
  0005e	80 f2 ed	 xor	 dl, -19			; ffffffedH
  00061	88 55 f4	 mov	 BYTE PTR __t$[ebp+4], dl
  00064	8a 50 05	 mov	 dl, BYTE PTR [eax+5]
  00067	84 d2		 test	 dl, dl
  00069	74 59		 je	 SHORT $LN91@operator@4
  0006b	80 f2 ec	 xor	 dl, -20			; ffffffecH
  0006e	80 78 06 00	 cmp	 BYTE PTR [eax+6], 0
  00072	88 55 f5	 mov	 BYTE PTR __t$[ebp+5], dl
  00075	74 6f		 je	 SHORT $LN1@operator@4
  00077	8a 50 07	 mov	 dl, BYTE PTR [eax+7]
  0007a	84 d2		 test	 dl, dl
  0007c	74 40		 je	 SHORT $LN89@operator@4
  0007e	80 f2 ea	 xor	 dl, -22			; ffffffeaH
  00081	88 55 f7	 mov	 BYTE PTR __t$[ebp+7], dl
  00084	8a 50 08	 mov	 dl, BYTE PTR [eax+8]
  00087	84 d2		 test	 dl, dl
  00089	74 2d		 je	 SHORT $LN88@operator@4
  0008b	80 f2 ed	 xor	 dl, -19			; ffffffedH
  0008e	88 55 f8	 mov	 BYTE PTR __t$[ebp+8], dl
  00091	8a 50 09	 mov	 dl, BYTE PTR [eax+9]
  00094	84 d2		 test	 dl, dl
  00096	74 1a		 je	 SHORT $LN87@operator@4
  00098	8a 40 0a	 mov	 al, BYTE PTR [eax+10]
  0009b	80 f2 ec	 xor	 dl, -20			; ffffffecH
  0009e	88 55 f9	 mov	 BYTE PTR __t$[ebp+9], dl
  000a1	84 c0		 test	 al, al
  000a3	74 07		 je	 SHORT $LN86@operator@4
  000a5	34 eb		 xor	 al, -21			; ffffffebH
  000a7	88 45 fa	 mov	 BYTE PTR __t$[ebp+10], al
  000aa	eb 3a		 jmp	 SHORT $LN1@operator@4
$LN86@operator@4:
  000ac	c6 45 fa eb	 mov	 BYTE PTR __t$[ebp+10], -21 ; ffffffebH
  000b0	eb 34		 jmp	 SHORT $LN1@operator@4
$LN87@operator@4:
  000b2	c6 45 f9 ec	 mov	 BYTE PTR __t$[ebp+9], -20 ; ffffffecH
  000b6	eb 2e		 jmp	 SHORT $LN1@operator@4
$LN88@operator@4:
  000b8	c6 45 f8 ed	 mov	 BYTE PTR __t$[ebp+8], -19 ; ffffffedH
  000bc	eb 28		 jmp	 SHORT $LN1@operator@4
$LN89@operator@4:
  000be	c6 45 f7 ea	 mov	 BYTE PTR __t$[ebp+7], -22 ; ffffffeaH
  000c2	eb 22		 jmp	 SHORT $LN1@operator@4
$LN91@operator@4:
  000c4	c6 45 f5 ec	 mov	 BYTE PTR __t$[ebp+5], -20 ; ffffffecH
  000c8	eb 1c		 jmp	 SHORT $LN1@operator@4
$LN92@operator@4:
  000ca	c6 45 f4 ed	 mov	 BYTE PTR __t$[ebp+4], -19 ; ffffffedH
  000ce	eb 16		 jmp	 SHORT $LN1@operator@4
$LN93@operator@4:
  000d0	c6 45 f3 ea	 mov	 BYTE PTR __t$[ebp+3], -22 ; ffffffeaH
  000d4	eb 10		 jmp	 SHORT $LN1@operator@4
$LN94@operator@4:
  000d6	c6 45 f2 eb	 mov	 BYTE PTR __t$[ebp+2], -21 ; ffffffebH
  000da	eb 0a		 jmp	 SHORT $LN1@operator@4
$LN95@operator@4:
  000dc	c6 45 f1 ec	 mov	 BYTE PTR __t$[ebp+1], -20 ; ffffffecH
  000e0	eb 04		 jmp	 SHORT $LN1@operator@4
$LN96@operator@4:
  000e2	c6 45 f0 ed	 mov	 BYTE PTR __t$[ebp], -19	; ffffffedH
$LN1@operator@4:
  000e6	81 75 f0 ed ec
	eb ea		 xor	 DWORD PTR __t$[ebp], -353637139 ; eaebecedH
  000ed	6a 04		 push	 4
  000ef	c6 45 f6 00	 mov	 BYTE PTR __t$[ebp+6], 0
  000f3	58		 pop	 eax
$LL101@operator@4:
  000f4	8b c8		 mov	 ecx, eax
  000f6	81 e1 03 00 00
	80		 and	 ecx, -2147483645	; 80000003H
  000fc	79 05		 jns	 SHORT $LN115@operator@4
  000fe	49		 dec	 ecx
  000ff	83 c9 fc	 or	 ecx, -4			; fffffffcH
  00102	41		 inc	 ecx
$LN115@operator@4:
  00103	b2 ed		 mov	 dl, -19			; ffffffedH
  00105	2a d1		 sub	 dl, cl
  00107	30 54 05 f0	 xor	 BYTE PTR __t$[ebp+eax], dl
  0010b	40		 inc	 eax
  0010c	83 f8 06	 cmp	 eax, 6
  0010f	7c e3		 jl	 SHORT $LL101@operator@4
  00111	8b cf		 mov	 ecx, edi
  00113	8d 75 f0	 lea	 esi, DWORD PTR __t$[ebp]
  00116	ff 15 00 00 00
	00		 call	 DWORD PTR __imp_?c_str@ioHashString@@QBEPBDXZ
$LL111@operator@4:
  0011c	8a 08		 mov	 cl, BYTE PTR [eax]
  0011e	3a 0e		 cmp	 cl, BYTE PTR [esi]
  00120	75 1a		 jne	 SHORT $LN112@operator@4
  00122	84 c9		 test	 cl, cl
  00124	74 12		 je	 SHORT $LN113@operator@4
  00126	8a 48 01	 mov	 cl, BYTE PTR [eax+1]
  00129	3a 4e 01	 cmp	 cl, BYTE PTR [esi+1]
  0012c	75 0e		 jne	 SHORT $LN112@operator@4
  0012e	83 c0 02	 add	 eax, 2
  00131	83 c6 02	 add	 esi, 2
  00134	84 c9		 test	 cl, cl
  00136	75 e4		 jne	 SHORT $LL111@operator@4
$LN113@operator@4:
  00138	33 c0		 xor	 eax, eax
  0013a	eb 05		 jmp	 SHORT $LN114@operator@4
$LN112@operator@4:
  0013c	1b c0		 sbb	 eax, eax
  0013e	83 d8 ff	 sbb	 eax, -1
$LN114@operator@4:
  00141	33 c9		 xor	 ecx, ecx
  00143	85 c0		 test	 eax, eax
  00145	0f 94 c0	 sete	 al

; 148  : }

  00148	8b 4d fc	 mov	 ecx, DWORD PTR __$ArrayPad$[ebp]
  0014b	5f		 pop	 edi
  0014c	33 cd		 xor	 ecx, ebp
  0014e	5e		 pop	 esi
  0014f	e8 00 00 00 00	 call	 @__security_check_cookie@4
  00154	c9		 leave
  00155	c3		 ret	 0
??$?8$06@@YA_NABVioHashString@@AAY06$$CBD@Z ENDP	; operator==<7>
_TEXT	ENDS
PUBLIC	??$_Cons_val@V?$allocator@UtagInventoryItemInfo@@@std@@UtagInventoryItemInfo@@AAU3@@std@@YAXAAV?$allocator@UtagInventoryItemInfo@@@0@PAUtagInventoryItemInfo@@AAU2@@Z ; std::_Cons_val<std::allocator<tagInventoryItemInfo>,tagInventoryItemInfo,tagInventoryItemInfo &>
;	COMDAT xdata$x
; File c:\program files (x86)\microsoft visual studio 10.0\vc\include\utility
xdata$x	SEGMENT
__unwindtable$??$_Cons_val@V?$allocator@UtagInventoryItemInfo@@@std@@UtagInventoryItemInfo@@AAU3@@std@@YAXAAV?$allocator@UtagInventoryItemInfo@@@0@PAUtagInventoryItemInfo@@AAU2@@Z DD 0ffffffffH
	DD	FLAT:__unwindfunclet$??$_Cons_val@V?$allocator@UtagInventoryItemInfo@@@std@@UtagInventoryItemInfo@@AAU3@@std@@YAXAAV?$allocator@UtagInventoryItemInfo@@@0@PAUtagInventoryItemInfo@@AAU2@@Z$0
__ehfuncinfo$??$_Cons_val@V?$allocator@UtagInventoryItemInfo@@@std@@UtagInventoryItemInfo@@AAU3@@std@@YAXAAV?$allocator@UtagInventoryItemInfo@@@0@PAUtagInventoryItemInfo@@AAU2@@Z DD 019930522H
	DD	01H
	DD	FLAT:__unwindtable$??$_Cons_val@V?$allocator@UtagInventoryItemInfo@@@std@@UtagInventoryItemInfo@@AAU3@@std@@YAXAAV?$allocator@UtagInventoryItemInfo@@@0@PAUtagInventoryItemInfo@@AAU2@@Z
	DD	2 DUP(00H)
	DD	2 DUP(00H)
	DD	00H
	DD	01H
; Function compile flags: /Ogsp
; File c:\program files (x86)\microsoft visual studio 10.0\vc\include\xmemory
xdata$x	ENDS
;	COMDAT ??$_Cons_val@V?$allocator@UtagInventoryItemInfo@@@std@@UtagInventoryItemInfo@@AAU3@@std@@YAXAAV?$allocator@UtagInventoryItemInfo@@@0@PAUtagInventoryItemInfo@@AAU2@@Z
_TEXT	SEGMENT
$T511339 = -16						; size = 4
__$EHRec$ = -12						; size = 12
__Alval$ = 8						; size = 4
__Pdest$ = 12						; size = 4
__Src$ = 16						; size = 4
??$_Cons_val@V?$allocator@UtagInventoryItemInfo@@@std@@UtagInventoryItemInfo@@AAU3@@std@@YAXAAV?$allocator@UtagInventoryItemInfo@@@0@PAUtagInventoryItemInfo@@AAU2@@Z PROC ; std::_Cons_val<std::allocator<tagInventoryItemInfo>,tagInventoryItemInfo,tagInventoryItemInfo &>, COMDAT

; 279  : 	{	// construct using allocator

  00000	6a 04		 push	 4
  00002	b8 00 00 00 00	 mov	 eax, __ehhandler$??$_Cons_val@V?$allocator@UtagInventoryItemInfo@@@std@@UtagInventoryItemInfo@@AAU3@@std@@YAXAAV?$allocator@UtagInventoryItemInfo@@@0@PAUtagInventoryItemInfo@@AAU2@@Z
  00007	e8 00 00 00 00	 call	 __EH_prolog3

; 280  : 	_Alval.construct(_Pdest, _STD forward<_Ty2>(_Src));

  0000c	8b 4d 0c	 mov	 ecx, DWORD PTR __Pdest$[ebp]
  0000f	89 4d f0	 mov	 DWORD PTR $T511339[ebp], ecx
  00012	83 65 fc 00	 and	 DWORD PTR __$EHRec$[ebp+8], 0
  00016	85 c9		 test	 ecx, ecx
  00018	74 08		 je	 SHORT $LN7@Cons_val
  0001a	ff 75 10	 push	 DWORD PTR __Src$[ebp]
  0001d	e8 00 00 00 00	 call	 ??0tagInventoryItemInfo@@QAE@ABU0@@Z
$LN7@Cons_val:

; 281  : 	}

  00022	e8 00 00 00 00	 call	 __EH_epilog3
  00027	c3		 ret	 0
_TEXT	ENDS
;	COMDAT text$x
text$x	SEGMENT
__unwindfunclet$??$_Cons_val@V?$allocator@UtagInventoryItemInfo@@@std@@UtagInventoryItemInfo@@AAU3@@std@@YAXAAV?$allocator@UtagInventoryItemInfo@@@0@PAUtagInventoryItemInfo@@AAU2@@Z$0:
  00000	ff 75 0c	 push	 DWORD PTR __Pdest$[ebp]
  00003	ff 75 f0	 push	 DWORD PTR $T511339[ebp]
  00006	e8 00 00 00 00	 call	 ??3@YAXPAX0@Z		; operator delete
  0000b	59		 pop	 ecx
  0000c	59		 pop	 ecx
  0000d	c3		 ret	 0
__ehhandler$??$_Cons_val@V?$allocator@UtagInventoryItemInfo@@@std@@UtagInventoryItemInfo@@AAU3@@std@@YAXAAV?$allocator@UtagInventoryItemInfo@@@0@PAUtagInventoryItemInfo@@AAU2@@Z:
  0000e	8b 54 24 08	 mov	 edx, DWORD PTR [esp+8]
  00012	8d 42 0c	 lea	 eax, DWORD PTR [edx+12]
  00015	8b 4a ec	 mov	 ecx, DWORD PTR [edx-20]
  00018	33 c8		 xor	 ecx, eax
  0001a	e8 00 00 00 00	 call	 @__security_check_cookie@4
  0001f	b8 00 00 00 00	 mov	 eax, OFFSET __ehfuncinfo$??$_Cons_val@V?$allocator@UtagInventoryItemInfo@@@std@@UtagInventoryItemInfo@@AAU3@@std@@YAXAAV?$allocator@UtagInventoryItemInfo@@@0@PAUtagInventoryItemInfo@@AAU2@@Z
  00024	e9 00 00 00 00	 jmp	 ___CxxFrameHandler3
text$x	ENDS
??$_Cons_val@V?$allocator@UtagInventoryItemInfo@@@std@@UtagInventoryItemInfo@@AAU3@@std@@YAXAAV?$allocator@UtagInventoryItemInfo@@@0@PAUtagInventoryItemInfo@@AAU2@@Z ENDP ; std::_Cons_val<std::allocator<tagInventoryItemInfo>,tagInventoryItemInfo,tagInventoryItemInfo &>
PUBLIC	?construct@?$allocator@UtagInventoryItemInfo@@@std@@QAEXPAUtagInventoryItemInfo@@ABU3@@Z ; std::allocator<tagInventoryItemInfo>::construct
; Function compile flags: /Ogsp
;	COMDAT ?construct@?$allocator@UtagInventoryItemInfo@@@std@@QAEXPAUtagInventoryItemInfo@@ABU3@@Z
_TEXT	SEGMENT
__Ptr$ = 8						; size = 4
__Val$ = 12						; size = 4
?construct@?$allocator@UtagInventoryItemInfo@@@std@@QAEXPAUtagInventoryItemInfo@@ABU3@@Z PROC ; std::allocator<tagInventoryItemInfo>::construct, COMDAT
; _this$ = ecx

; 196  : 		{	// construct object at _Ptr with value _Val

  00000	55		 push	 ebp
  00001	8b ec		 mov	 ebp, esp

; 197  : 		_Construct(_Ptr, _Val);

  00003	ff 75 0c	 push	 DWORD PTR __Val$[ebp]
  00006	ff 75 08	 push	 DWORD PTR __Ptr$[ebp]
  00009	e8 00 00 00 00	 call	 ??$_Construct@UtagInventoryItemInfo@@ABU1@@std@@YAXPAUtagInventoryItemInfo@@ABU1@@Z ; std::_Construct<tagInventoryItemInfo,tagInventoryItemInfo const &>
  0000e	59		 pop	 ecx
  0000f	59		 pop	 ecx

; 198  : 		}

  00010	5d		 pop	 ebp
  00011	c2 08 00	 ret	 8
?construct@?$allocator@UtagInventoryItemInfo@@@std@@QAEXPAUtagInventoryItemInfo@@ABU3@@Z ENDP ; std::allocator<tagInventoryItemInfo>::construct
_TEXT	ENDS
PUBLIC	??G?$_Vector_iterator@V?$_Vector_val@UtagInventoryItemInfo@@V?$allocator@UtagInventoryItemInfo@@@std@@@std@@@std@@QBEHABV?$_Vector_const_iterator@V?$_Vector_val@UtagInventoryItemInfo@@V?$allocator@UtagInventoryItemInfo@@@std@@@std@@@1@@Z ; std::_Vector_iterator<std::_Vector_val<tagInventoryItemInfo,std::allocator<tagInventoryItemInfo> > >::operator-
; Function compile flags: /Ogsp
; File c:\program files (x86)\microsoft visual studio 10.0\vc\include\vector
;	COMDAT ??G?$_Vector_iterator@V?$_Vector_val@UtagInventoryItemInfo@@V?$allocator@UtagInventoryItemInfo@@@std@@@std@@@std@@QBEHABV?$_Vector_const_iterator@V?$_Vector_val@UtagInventoryItemInfo@@V?$allocator@UtagInventoryItemInfo@@@std@@@std@@@1@@Z
_TEXT	SEGMENT
__Right$ = 8						; size = 4
??G?$_Vector_iterator@V?$_Vector_val@UtagInventoryItemInfo@@V?$allocator@UtagInventoryItemInfo@@@std@@@std@@@std@@QBEHABV?$_Vector_const_iterator@V?$_Vector_val@UtagInventoryItemInfo@@V?$allocator@UtagInventoryItemInfo@@@std@@@std@@@1@@Z PROC ; std::_Vector_iterator<std::_Vector_val<tagInventoryItemInfo,std::allocator<tagInventoryItemInfo> > >::operator-, COMDAT
; _this$ = ecx

; 380  : 		{	// return difference of iterators

  00000	55		 push	 ebp
  00001	8b ec		 mov	 ebp, esp

; 381  : 		return (*(_Mybase *)this - _Right);

  00003	8b 01		 mov	 eax, DWORD PTR [ecx]
  00005	8b 4d 08	 mov	 ecx, DWORD PTR __Right$[ebp]
  00008	2b 01		 sub	 eax, DWORD PTR [ecx]
  0000a	6a 48		 push	 72			; 00000048H
  0000c	99		 cdq
  0000d	59		 pop	 ecx
  0000e	f7 f9		 idiv	 ecx

; 382  : 		}

  00010	5d		 pop	 ebp
  00011	c2 04 00	 ret	 4
??G?$_Vector_iterator@V?$_Vector_val@UtagInventoryItemInfo@@V?$allocator@UtagInventoryItemInfo@@@std@@@std@@@std@@QBEHABV?$_Vector_const_iterator@V?$_Vector_val@UtagInventoryItemInfo@@V?$allocator@UtagInventoryItemInfo@@@std@@@std@@@1@@Z ENDP ; std::_Vector_iterator<std::_Vector_val<tagInventoryItemInfo,std::allocator<tagInventoryItemInfo> > >::operator-
_TEXT	ENDS
PUBLIC	??$_Unchecked@V?$_Vector_val@UtagInventoryItemInfo@@V?$allocator@UtagInventoryItemInfo@@@std@@@std@@@std@@YAPAUtagInventoryItemInfo@@V?$_Vector_iterator@V?$_Vector_val@UtagInventoryItemInfo@@V?$allocator@UtagInventoryItemInfo@@@std@@@std@@@0@@Z ; std::_Unchecked<std::_Vector_val<tagInventoryItemInfo,std::allocator<tagInventoryItemInfo> > >
; Function compile flags: /Ogsp
;	COMDAT ??$_Unchecked@V?$_Vector_val@UtagInventoryItemInfo@@V?$allocator@UtagInventoryItemInfo@@@std@@@std@@@std@@YAPAUtagInventoryItemInfo@@V?$_Vector_iterator@V?$_Vector_val@UtagInventoryItemInfo@@V?$allocator@UtagInventoryItemInfo@@@std@@@std@@@0@@Z
_TEXT	SEGMENT
__Iter$ = 8						; size = 4
??$_Unchecked@V?$_Vector_val@UtagInventoryItemInfo@@V?$allocator@UtagInventoryItemInfo@@@std@@@std@@@std@@YAPAUtagInventoryItemInfo@@V?$_Vector_iterator@V?$_Vector_val@UtagInventoryItemInfo@@V?$allocator@UtagInventoryItemInfo@@@std@@@std@@@0@@Z PROC ; std::_Unchecked<std::_Vector_val<tagInventoryItemInfo,std::allocator<tagInventoryItemInfo> > >, COMDAT

; 393  : 	{	// convert to unchecked

  00000	55		 push	 ebp
  00001	8b ec		 mov	 ebp, esp

; 394  : 	return (_Iter._Unchecked());

  00003	8b 45 08	 mov	 eax, DWORD PTR __Iter$[ebp]

; 395  : 	}

  00006	5d		 pop	 ebp
  00007	c3		 ret	 0
??$_Unchecked@V?$_Vector_val@UtagInventoryItemInfo@@V?$allocator@UtagInventoryItemInfo@@@std@@@std@@@std@@YAPAUtagInventoryItemInfo@@V?$_Vector_iterator@V?$_Vector_val@UtagInventoryItemInfo@@V?$allocator@UtagInventoryItemInfo@@@std@@@std@@@0@@Z ENDP ; std::_Unchecked<std::_Vector_val<tagInventoryItemInfo,std::allocator<tagInventoryItemInfo> > >
_TEXT	ENDS
PUBLIC	??$_Move@PAUtagInventoryItemInfo@@PAU1@@std@@YAPAUtagInventoryItemInfo@@PAU1@00U_Nonscalar_ptr_iterator_tag@0@@Z ; std::_Move<tagInventoryItemInfo *,tagInventoryItemInfo *>
; Function compile flags: /Ogsp
; File c:\program files (x86)\microsoft visual studio 10.0\vc\include\xutility
;	COMDAT ??$_Move@PAUtagInventoryItemInfo@@PAU1@@std@@YAPAUtagInventoryItemInfo@@PAU1@00U_Nonscalar_ptr_iterator_tag@0@@Z
_TEXT	SEGMENT
__First$ = 8						; size = 4
__Last$ = 12						; size = 4
__Dest$ = 16						; size = 4
___formal$ = 20						; size = 1
??$_Move@PAUtagInventoryItemInfo@@PAU1@@std@@YAPAUtagInventoryItemInfo@@PAU1@00U_Nonscalar_ptr_iterator_tag@0@@Z PROC ; std::_Move<tagInventoryItemInfo *,tagInventoryItemInfo *>, COMDAT

; 2512 : 	{	// move [_First, _Last) to [_Dest, ...), arbitrary iterators

  00000	55		 push	 ebp
  00001	8b ec		 mov	 ebp, esp
  00003	56		 push	 esi

; 2513 : 	for (; _First != _Last; ++_Dest, ++_First)

  00004	8b 75 08	 mov	 esi, DWORD PTR __First$[ebp]
  00007	eb 10		 jmp	 SHORT $LN11@Move
$LL3@Move:

; 2514 : 		*_Dest = _STD move(*_First);

  00009	8b 4d 10	 mov	 ecx, DWORD PTR __Dest$[ebp]
  0000c	56		 push	 esi
  0000d	e8 00 00 00 00	 call	 ??4tagInventoryItemInfo@@QAEAAU0@ABU0@@Z
  00012	83 45 10 48	 add	 DWORD PTR __Dest$[ebp], 72 ; 00000048H
  00016	83 c6 48	 add	 esi, 72			; 00000048H
$LN11@Move:

; 2513 : 	for (; _First != _Last; ++_Dest, ++_First)

  00019	3b 75 0c	 cmp	 esi, DWORD PTR __Last$[ebp]
  0001c	75 eb		 jne	 SHORT $LL3@Move

; 2515 : 	return (_Dest);

  0001e	8b 45 10	 mov	 eax, DWORD PTR __Dest$[ebp]
  00021	5e		 pop	 esi

; 2516 : 	}

  00022	5d		 pop	 ebp
  00023	c3		 ret	 0
??$_Move@PAUtagInventoryItemInfo@@PAU1@@std@@YAPAUtagInventoryItemInfo@@PAU1@00U_Nonscalar_ptr_iterator_tag@0@@Z ENDP ; std::_Move<tagInventoryItemInfo *,tagInventoryItemInfo *>
_TEXT	ENDS
PUBLIC	??$?0AAPAUtagInventoryItemInfo@@AAPAU0@@?$pair@PAUtagInventoryItemInfo@@PAU1@@std@@QAE@AAPAUtagInventoryItemInfo@@0@Z ; std::pair<tagInventoryItemInfo *,tagInventoryItemInfo *>::pair<tagInventoryItemInfo *,tagInventoryItemInfo *><tagInventoryItemInfo * &,tagInventoryItemInfo * &>
; Function compile flags: /Ogsp
; File c:\program files (x86)\microsoft visual studio 10.0\vc\include\utility
;	COMDAT ??$?0AAPAUtagInventoryItemInfo@@AAPAU0@@?$pair@PAUtagInventoryItemInfo@@PAU1@@std@@QAE@AAPAUtagInventoryItemInfo@@0@Z
_TEXT	SEGMENT
__Val1$ = 8						; size = 4
__Val2$ = 12						; size = 4
??$?0AAPAUtagInventoryItemInfo@@AAPAU0@@?$pair@PAUtagInventoryItemInfo@@PAU1@@std@@QAE@AAPAUtagInventoryItemInfo@@0@Z PROC ; std::pair<tagInventoryItemInfo *,tagInventoryItemInfo *>::pair<tagInventoryItemInfo *,tagInventoryItemInfo *><tagInventoryItemInfo * &,tagInventoryItemInfo * &>, COMDAT
; _this$ = ecx

; 247  : 		{	// construct from moved values

  00000	55		 push	 ebp
  00001	8b ec		 mov	 ebp, esp
  00003	8b c1		 mov	 eax, ecx
  00005	8b 4d 08	 mov	 ecx, DWORD PTR __Val1$[ebp]
  00008	8b 09		 mov	 ecx, DWORD PTR [ecx]
  0000a	89 08		 mov	 DWORD PTR [eax], ecx
  0000c	8b 4d 0c	 mov	 ecx, DWORD PTR __Val2$[ebp]
  0000f	8b 09		 mov	 ecx, DWORD PTR [ecx]
  00011	89 48 04	 mov	 DWORD PTR [eax+4], ecx

; 248  : 		}

  00014	5d		 pop	 ebp
  00015	c2 08 00	 ret	 8
??$?0AAPAUtagInventoryItemInfo@@AAPAU0@@?$pair@PAUtagInventoryItemInfo@@PAU1@@std@@QAE@AAPAUtagInventoryItemInfo@@0@Z ENDP ; std::pair<tagInventoryItemInfo *,tagInventoryItemInfo *>::pair<tagInventoryItemInfo *,tagInventoryItemInfo *><tagInventoryItemInfo * &,tagInventoryItemInfo * &>
_TEXT	ENDS
PUBLIC	??$_Destroy@UtagInventoryItemInfo@@@std@@YAXPAUtagInventoryItemInfo@@@Z ; std::_Destroy<tagInventoryItemInfo>
; Function compile flags: /Ogsp
; File c:\program files (x86)\microsoft visual studio 10.0\vc\include\xmemory
;	COMDAT ??$_Destroy@UtagInventoryItemInfo@@@std@@YAXPAUtagInventoryItemInfo@@@Z
_TEXT	SEGMENT
__Ptr$ = 8						; size = 4
??$_Destroy@UtagInventoryItemInfo@@@std@@YAXPAUtagInventoryItemInfo@@@Z PROC ; std::_Destroy<tagInventoryItemInfo>, COMDAT

; 62   : 	{	// destroy object at _Ptr

  00000	55		 push	 ebp
  00001	8b ec		 mov	 ebp, esp

; 63   : 	_Ptr->~_Ty();

  00003	8b 4d 08	 mov	 ecx, DWORD PTR __Ptr$[ebp]
  00006	83 c1 24	 add	 ecx, 36			; 00000024H

; 64   : 	}

  00009	5d		 pop	 ebp

; 63   : 	_Ptr->~_Ty();

  0000a	ff 25 00 00 00
	00		 jmp	 DWORD PTR __imp_??1ioHashString@@QAE@XZ
??$_Destroy@UtagInventoryItemInfo@@@std@@YAXPAUtagInventoryItemInfo@@@Z ENDP ; std::_Destroy<tagInventoryItemInfo>
_TEXT	ENDS
PUBLIC	?construct@?$allocator@UtagInventoryItemInfo@@@std@@QAEXPAUtagInventoryItemInfo@@$$QAU3@@Z ; std::allocator<tagInventoryItemInfo>::construct
;	COMDAT xdata$x
; File c:\program files (x86)\microsoft visual studio 10.0\vc\include\utility
xdata$x	SEGMENT
__unwindtable$?construct@?$allocator@UtagInventoryItemInfo@@@std@@QAEXPAUtagInventoryItemInfo@@$$QAU3@@Z DD 0ffffffffH
	DD	FLAT:__unwindfunclet$?construct@?$allocator@UtagInventoryItemInfo@@@std@@QAEXPAUtagInventoryItemInfo@@$$QAU3@@Z$0
__ehfuncinfo$?construct@?$allocator@UtagInventoryItemInfo@@@std@@QAEXPAUtagInventoryItemInfo@@$$QAU3@@Z DD 019930522H
	DD	01H
	DD	FLAT:__unwindtable$?construct@?$allocator@UtagInventoryItemInfo@@@std@@QAEXPAUtagInventoryItemInfo@@$$QAU3@@Z
	DD	2 DUP(00H)
	DD	2 DUP(00H)
	DD	00H
	DD	01H
; Function compile flags: /Ogsp
; File c:\program files (x86)\microsoft visual studio 10.0\vc\include\xmemory
xdata$x	ENDS
;	COMDAT ?construct@?$allocator@UtagInventoryItemInfo@@@std@@QAEXPAUtagInventoryItemInfo@@$$QAU3@@Z
_TEXT	SEGMENT
$T511416 = -16						; size = 4
__$EHRec$ = -12						; size = 12
__Ptr$ = 8						; size = 4
__Val$ = 12						; size = 4
?construct@?$allocator@UtagInventoryItemInfo@@@std@@QAEXPAUtagInventoryItemInfo@@$$QAU3@@Z PROC ; std::allocator<tagInventoryItemInfo>::construct, COMDAT
; _this$ = ecx

; 201  : 		{	// construct object at _Ptr with value _Val

  00000	6a 04		 push	 4
  00002	b8 00 00 00 00	 mov	 eax, __ehhandler$?construct@?$allocator@UtagInventoryItemInfo@@@std@@QAEXPAUtagInventoryItemInfo@@$$QAU3@@Z
  00007	e8 00 00 00 00	 call	 __EH_prolog3

; 202  : 		::new ((void _FARQ *)_Ptr) _Ty(_STD forward<_Ty>(_Val));

  0000c	8b 4d 08	 mov	 ecx, DWORD PTR __Ptr$[ebp]
  0000f	89 4d f0	 mov	 DWORD PTR $T511416[ebp], ecx
  00012	83 65 fc 00	 and	 DWORD PTR __$EHRec$[ebp+8], 0
  00016	85 c9		 test	 ecx, ecx
  00018	74 08		 je	 SHORT $LN3@construct@2
  0001a	ff 75 0c	 push	 DWORD PTR __Val$[ebp]
  0001d	e8 00 00 00 00	 call	 ??0tagInventoryItemInfo@@QAE@ABU0@@Z
$LN3@construct@2:

; 203  : 		}

  00022	e8 00 00 00 00	 call	 __EH_epilog3
  00027	c2 08 00	 ret	 8
_TEXT	ENDS
;	COMDAT text$x
text$x	SEGMENT
__unwindfunclet$?construct@?$allocator@UtagInventoryItemInfo@@@std@@QAEXPAUtagInventoryItemInfo@@$$QAU3@@Z$0:
  00000	ff 75 08	 push	 DWORD PTR __Ptr$[ebp]
  00003	ff 75 f0	 push	 DWORD PTR $T511416[ebp]
  00006	e8 00 00 00 00	 call	 ??3@YAXPAX0@Z		; operator delete
  0000b	59		 pop	 ecx
  0000c	59		 pop	 ecx
  0000d	c3		 ret	 0
__ehhandler$?construct@?$allocator@UtagInventoryItemInfo@@@std@@QAEXPAUtagInventoryItemInfo@@$$QAU3@@Z:
  0000e	8b 54 24 08	 mov	 edx, DWORD PTR [esp+8]
  00012	8d 42 0c	 lea	 eax, DWORD PTR [edx+12]
  00015	8b 4a ec	 mov	 ecx, DWORD PTR [edx-20]
  00018	33 c8		 xor	 ecx, eax
  0001a	e8 00 00 00 00	 call	 @__security_check_cookie@4
  0001f	b8 00 00 00 00	 mov	 eax, OFFSET __ehfuncinfo$?construct@?$allocator@UtagInventoryItemInfo@@@std@@QAEXPAUtagInventoryItemInfo@@$$QAU3@@Z
  00024	e9 00 00 00 00	 jmp	 ___CxxFrameHandler3
text$x	ENDS
?construct@?$allocator@UtagInventoryItemInfo@@@std@@QAEXPAUtagInventoryItemInfo@@$$QAU3@@Z ENDP ; std::allocator<tagInventoryItemInfo>::construct
PUBLIC	??$swap@UtagInventoryItemInfo@@@std@@YAXAAUtagInventoryItemInfo@@0@Z ; std::swap<tagInventoryItemInfo>
;	COMDAT xdata$x
; File d:\lost saga for developer\youtube\tutorial\source\src\lsclient\gui\tradeitemregisterwnd.cpp
xdata$x	SEGMENT
__unwindtable$??$swap@UtagInventoryItemInfo@@@std@@YAXAAUtagInventoryItemInfo@@0@Z DD 0ffffffffH
	DD	FLAT:__unwindfunclet$??$swap@UtagInventoryItemInfo@@@std@@YAXAAUtagInventoryItemInfo@@0@Z$0
__ehfuncinfo$??$swap@UtagInventoryItemInfo@@@std@@YAXAAUtagInventoryItemInfo@@0@Z DD 019930522H
	DD	01H
	DD	FLAT:__unwindtable$??$swap@UtagInventoryItemInfo@@@std@@YAXAAUtagInventoryItemInfo@@0@Z
	DD	2 DUP(00H)
	DD	2 DUP(00H)
	DD	00H
	DD	01H
; Function compile flags: /Ogsp
; File c:\program files (x86)\microsoft visual studio 10.0\vc\include\utility
xdata$x	ENDS
;	COMDAT ??$swap@UtagInventoryItemInfo@@@std@@YAXAAUtagInventoryItemInfo@@0@Z
_TEXT	SEGMENT
__Tmp$ = -84						; size = 72
__$EHRec$ = -12						; size = 12
__Left$ = 8						; size = 4
__Right$ = 12						; size = 4
??$swap@UtagInventoryItemInfo@@@std@@YAXAAUtagInventoryItemInfo@@0@Z PROC ; std::swap<tagInventoryItemInfo>, COMDAT

; 101  : 	{	// exchange values stored at _Left and _Right

  00000	6a 48		 push	 72			; 00000048H
  00002	b8 00 00 00 00	 mov	 eax, __ehhandler$??$swap@UtagInventoryItemInfo@@@std@@YAXAAUtagInventoryItemInfo@@0@Z
  00007	e8 00 00 00 00	 call	 __EH_prolog3

; 102  : 	_Ty _Tmp = _Move(_Left);

  0000c	ff 75 08	 push	 DWORD PTR __Left$[ebp]
  0000f	8d 4d ac	 lea	 ecx, DWORD PTR __Tmp$[ebp]
  00012	e8 00 00 00 00	 call	 ??0tagInventoryItemInfo@@QAE@ABU0@@Z

; 103  : 	_Left = _Move(_Right);

  00017	ff 75 0c	 push	 DWORD PTR __Right$[ebp]
  0001a	8b 4d 08	 mov	 ecx, DWORD PTR __Left$[ebp]
  0001d	83 65 fc 00	 and	 DWORD PTR __$EHRec$[ebp+8], 0
  00021	e8 00 00 00 00	 call	 ??4tagInventoryItemInfo@@QAEAAU0@ABU0@@Z

; 104  : 	_Right = _Move(_Tmp);

  00026	8b 4d 0c	 mov	 ecx, DWORD PTR __Right$[ebp]
  00029	8d 45 ac	 lea	 eax, DWORD PTR __Tmp$[ebp]
  0002c	50		 push	 eax
  0002d	e8 00 00 00 00	 call	 ??4tagInventoryItemInfo@@QAEAAU0@ABU0@@Z

; 105  : 	}

  00032	83 4d fc ff	 or	 DWORD PTR __$EHRec$[ebp+8], -1
  00036	8d 4d d0	 lea	 ecx, DWORD PTR __Tmp$[ebp+36]
  00039	ff 15 00 00 00
	00		 call	 DWORD PTR __imp_??1ioHashString@@QAE@XZ
  0003f	e8 00 00 00 00	 call	 __EH_epilog3
  00044	c3		 ret	 0
_TEXT	ENDS
;	COMDAT text$x
text$x	SEGMENT
__unwindfunclet$??$swap@UtagInventoryItemInfo@@@std@@YAXAAUtagInventoryItemInfo@@0@Z$0:
  00000	8d 4d ac	 lea	 ecx, DWORD PTR __Tmp$[ebp]
  00003	e9 00 00 00 00	 jmp	 ??1tagInventoryItemInfo@@QAE@XZ
__ehhandler$??$swap@UtagInventoryItemInfo@@@std@@YAXAAUtagInventoryItemInfo@@0@Z:
  00008	8b 54 24 08	 mov	 edx, DWORD PTR [esp+8]
  0000c	8d 42 0c	 lea	 eax, DWORD PTR [edx+12]
  0000f	8b 4a a8	 mov	 ecx, DWORD PTR [edx-88]
  00012	33 c8		 xor	 ecx, eax
  00014	e8 00 00 00 00	 call	 @__security_check_cookie@4
  00019	b8 00 00 00 00	 mov	 eax, OFFSET __ehfuncinfo$??$swap@UtagInventoryItemInfo@@@std@@YAXAAUtagInventoryItemInfo@@0@Z
  0001e	e9 00 00 00 00	 jmp	 ___CxxFrameHandler3
text$x	ENDS
??$swap@UtagInventoryItemInfo@@@std@@YAXAAUtagInventoryItemInfo@@0@Z ENDP ; std::swap<tagInventoryItemInfo>
PUBLIC	??$_Move_backward@PAUtagInventoryItemInfo@@PAU1@@std@@YAPAUtagInventoryItemInfo@@PAU1@00@Z ; std::_Move_backward<tagInventoryItemInfo *,tagInventoryItemInfo *>
; Function compile flags: /Ogsp
; File c:\program files (x86)\microsoft visual studio 10.0\vc\include\xutility
;	COMDAT ??$_Move_backward@PAUtagInventoryItemInfo@@PAU1@@std@@YAPAUtagInventoryItemInfo@@PAU1@00@Z
_TEXT	SEGMENT
__Cat$511460 = -4					; size = 1
__First$ = 8						; size = 4
__Last$ = 12						; size = 4
__Dest$ = 16						; size = 4
??$_Move_backward@PAUtagInventoryItemInfo@@PAU1@@std@@YAPAUtagInventoryItemInfo@@PAU1@00@Z PROC ; std::_Move_backward<tagInventoryItemInfo *,tagInventoryItemInfo *>, COMDAT

; 2638 : 	{	// move [_First, _Last) backwards to [..., _Dest), unchecked

  00000	55		 push	 ebp
  00001	8b ec		 mov	 ebp, esp
  00003	51		 push	 ecx

; 2639 : 	return (_Move_backward(_First, _Last,
; 2640 : 		_Dest, _Ptr_cat(_First, _Dest)));

  00004	ff 75 fc	 push	 DWORD PTR __Cat$511460[ebp]
  00007	ff 75 10	 push	 DWORD PTR __Dest$[ebp]
  0000a	ff 75 0c	 push	 DWORD PTR __Last$[ebp]
  0000d	ff 75 08	 push	 DWORD PTR __First$[ebp]
  00010	e8 00 00 00 00	 call	 ??$_Move_backward@PAUtagInventoryItemInfo@@PAU1@@std@@YAPAUtagInventoryItemInfo@@PAU1@00U_Nonscalar_ptr_iterator_tag@0@@Z ; std::_Move_backward<tagInventoryItemInfo *,tagInventoryItemInfo *>
  00015	83 c4 10	 add	 esp, 16			; 00000010H

; 2641 : 	}

  00018	c9		 leave
  00019	c3		 ret	 0
??$_Move_backward@PAUtagInventoryItemInfo@@PAU1@@std@@YAPAUtagInventoryItemInfo@@PAU1@00@Z ENDP ; std::_Move_backward<tagInventoryItemInfo *,tagInventoryItemInfo *>
_TEXT	ENDS
PUBLIC	??$_Push_heap@PAUtagInventoryItemInfo@@HU1@VInventoryItemInfoSort2@@@std@@YAXPAUtagInventoryItemInfo@@HH$$QAU1@VInventoryItemInfoSort2@@@Z ; std::_Push_heap<tagInventoryItemInfo *,int,tagInventoryItemInfo,InventoryItemInfoSort2>
; Function compile flags: /Ogsp
; File c:\program files (x86)\microsoft visual studio 10.0\vc\include\algorithm
;	COMDAT ??$_Push_heap@PAUtagInventoryItemInfo@@HU1@VInventoryItemInfoSort2@@@std@@YAXPAUtagInventoryItemInfo@@HH$$QAU1@VInventoryItemInfoSort2@@@Z
_TEXT	SEGMENT
__First$ = 8						; size = 4
__Hole$ = 12						; size = 4
__Top$ = 16						; size = 4
__Val$ = 20						; size = 4
__Pred$ = 24						; size = 1
??$_Push_heap@PAUtagInventoryItemInfo@@HU1@VInventoryItemInfoSort2@@@std@@YAXPAUtagInventoryItemInfo@@HH$$QAU1@VInventoryItemInfoSort2@@@Z PROC ; std::_Push_heap<tagInventoryItemInfo *,int,tagInventoryItemInfo,InventoryItemInfoSort2>, COMDAT

; 2455 : 	{	// percolate _Hole to _Top or where _Val belongs, using operator<

  00000	55		 push	 ebp
  00001	8b ec		 mov	 ebp, esp
  00003	56		 push	 esi
  00004	57		 push	 edi

; 2456 : 	for (_Diff _Idx = (_Hole - 1) / 2;

  00005	8b 7d 0c	 mov	 edi, DWORD PTR __Hole$[ebp]
  00008	8d 47 ff	 lea	 eax, DWORD PTR [edi-1]
  0000b	99		 cdq
  0000c	2b c2		 sub	 eax, edx
  0000e	8b f0		 mov	 esi, eax
  00010	d1 fe		 sar	 esi, 1

; 2457 : 		_Top < _Hole && _DEBUG_LT_PRED(_Pred, *(_First + _Idx), _Val);
; 2458 : 		_Idx = (_Hole - 1) / 2)

  00012	39 7d 10	 cmp	 DWORD PTR __Top$[ebp], edi
  00015	7d 39		 jge	 SHORT $LN1@Push_heap
  00017	53		 push	 ebx
$LL3@Push_heap:
  00018	ff 75 14	 push	 DWORD PTR __Val$[ebp]
  0001b	8b de		 mov	 ebx, esi
  0001d	6b db 48	 imul	 ebx, 72			; 00000048H
  00020	03 5d 08	 add	 ebx, DWORD PTR __First$[ebp]
  00023	8d 4d 18	 lea	 ecx, DWORD PTR __Pred$[ebp]
  00026	53		 push	 ebx
  00027	e8 00 00 00 00	 call	 ??RInventoryItemInfoSort2@@QBE_NABUtagInventoryItemInfo@@0@Z ; InventoryItemInfoSort2::operator()
  0002c	84 c0		 test	 al, al
  0002e	74 1f		 je	 SHORT $LN12@Push_heap

; 2459 : 		{	// move _Hole up to parent
; 2460 : 		*(_First + _Hole) = _Move(*(_First + _Idx));

  00030	8b cf		 mov	 ecx, edi
  00032	6b c9 48	 imul	 ecx, 72			; 00000048H
  00035	03 4d 08	 add	 ecx, DWORD PTR __First$[ebp]
  00038	53		 push	 ebx
  00039	e8 00 00 00 00	 call	 ??4tagInventoryItemInfo@@QAEAAU0@ABU0@@Z
  0003e	8d 46 ff	 lea	 eax, DWORD PTR [esi-1]
  00041	99		 cdq
  00042	2b c2		 sub	 eax, edx

; 2461 : 		_Hole = _Idx;

  00044	8b fe		 mov	 edi, esi
  00046	d1 f8		 sar	 eax, 1
  00048	8b f0		 mov	 esi, eax
  0004a	39 7d 10	 cmp	 DWORD PTR __Top$[ebp], edi
  0004d	7c c9		 jl	 SHORT $LL3@Push_heap
$LN12@Push_heap:
  0004f	5b		 pop	 ebx
$LN1@Push_heap:

; 2462 : 		}
; 2463 : 
; 2464 : 	*(_First + _Hole) = _Move(_Val);	// drop _Val into final hole

  00050	ff 75 14	 push	 DWORD PTR __Val$[ebp]
  00053	8b cf		 mov	 ecx, edi
  00055	6b c9 48	 imul	 ecx, 72			; 00000048H
  00058	03 4d 08	 add	 ecx, DWORD PTR __First$[ebp]
  0005b	e8 00 00 00 00	 call	 ??4tagInventoryItemInfo@@QAEAAU0@ABU0@@Z
  00060	5f		 pop	 edi
  00061	5e		 pop	 esi

; 2465 : 	}

  00062	5d		 pop	 ebp
  00063	c3		 ret	 0
??$_Push_heap@PAUtagInventoryItemInfo@@HU1@VInventoryItemInfoSort2@@@std@@YAXPAUtagInventoryItemInfo@@HH$$QAU1@VInventoryItemInfoSort2@@@Z ENDP ; std::_Push_heap<tagInventoryItemInfo *,int,tagInventoryItemInfo,InventoryItemInfoSort2>
_TEXT	ENDS
PUBLIC	??$_Push_heap@PAUtagInventoryItemInfo@@HU1@VInventoryItemInfoSort3@@@std@@YAXPAUtagInventoryItemInfo@@HH$$QAU1@VInventoryItemInfoSort3@@@Z ; std::_Push_heap<tagInventoryItemInfo *,int,tagInventoryItemInfo,InventoryItemInfoSort3>
; Function compile flags: /Ogsp
;	COMDAT ??$_Push_heap@PAUtagInventoryItemInfo@@HU1@VInventoryItemInfoSort3@@@std@@YAXPAUtagInventoryItemInfo@@HH$$QAU1@VInventoryItemInfoSort3@@@Z
_TEXT	SEGMENT
__First$ = 8						; size = 4
__Hole$ = 12						; size = 4
__Top$ = 16						; size = 4
__Val$ = 20						; size = 4
__Pred$ = 24						; size = 1
??$_Push_heap@PAUtagInventoryItemInfo@@HU1@VInventoryItemInfoSort3@@@std@@YAXPAUtagInventoryItemInfo@@HH$$QAU1@VInventoryItemInfoSort3@@@Z PROC ; std::_Push_heap<tagInventoryItemInfo *,int,tagInventoryItemInfo,InventoryItemInfoSort3>, COMDAT

; 2455 : 	{	// percolate _Hole to _Top or where _Val belongs, using operator<

  00000	55		 push	 ebp
  00001	8b ec		 mov	 ebp, esp
  00003	56		 push	 esi
  00004	57		 push	 edi

; 2456 : 	for (_Diff _Idx = (_Hole - 1) / 2;

  00005	8b 7d 0c	 mov	 edi, DWORD PTR __Hole$[ebp]
  00008	8d 47 ff	 lea	 eax, DWORD PTR [edi-1]
  0000b	99		 cdq
  0000c	2b c2		 sub	 eax, edx
  0000e	8b f0		 mov	 esi, eax
  00010	d1 fe		 sar	 esi, 1

; 2457 : 		_Top < _Hole && _DEBUG_LT_PRED(_Pred, *(_First + _Idx), _Val);
; 2458 : 		_Idx = (_Hole - 1) / 2)

  00012	39 7d 10	 cmp	 DWORD PTR __Top$[ebp], edi
  00015	7d 39		 jge	 SHORT $LN1@Push_heap@2
  00017	53		 push	 ebx
$LL3@Push_heap@2:
  00018	ff 75 14	 push	 DWORD PTR __Val$[ebp]
  0001b	8b de		 mov	 ebx, esi
  0001d	6b db 48	 imul	 ebx, 72			; 00000048H
  00020	03 5d 08	 add	 ebx, DWORD PTR __First$[ebp]
  00023	8d 4d 18	 lea	 ecx, DWORD PTR __Pred$[ebp]
  00026	53		 push	 ebx
  00027	e8 00 00 00 00	 call	 ??RInventoryItemInfoSort3@@QBE_NABUtagInventoryItemInfo@@0@Z ; InventoryItemInfoSort3::operator()
  0002c	84 c0		 test	 al, al
  0002e	74 1f		 je	 SHORT $LN12@Push_heap@2

; 2459 : 		{	// move _Hole up to parent
; 2460 : 		*(_First + _Hole) = _Move(*(_First + _Idx));

  00030	8b cf		 mov	 ecx, edi
  00032	6b c9 48	 imul	 ecx, 72			; 00000048H
  00035	03 4d 08	 add	 ecx, DWORD PTR __First$[ebp]
  00038	53		 push	 ebx
  00039	e8 00 00 00 00	 call	 ??4tagInventoryItemInfo@@QAEAAU0@ABU0@@Z
  0003e	8d 46 ff	 lea	 eax, DWORD PTR [esi-1]
  00041	99		 cdq
  00042	2b c2		 sub	 eax, edx

; 2461 : 		_Hole = _Idx;

  00044	8b fe		 mov	 edi, esi
  00046	d1 f8		 sar	 eax, 1
  00048	8b f0		 mov	 esi, eax
  0004a	39 7d 10	 cmp	 DWORD PTR __Top$[ebp], edi
  0004d	7c c9		 jl	 SHORT $LL3@Push_heap@2
$LN12@Push_heap@2:
  0004f	5b		 pop	 ebx
$LN1@Push_heap@2:

; 2462 : 		}
; 2463 : 
; 2464 : 	*(_First + _Hole) = _Move(_Val);	// drop _Val into final hole

  00050	ff 75 14	 push	 DWORD PTR __Val$[ebp]
  00053	8b cf		 mov	 ecx, edi
  00055	6b c9 48	 imul	 ecx, 72			; 00000048H
  00058	03 4d 08	 add	 ecx, DWORD PTR __First$[ebp]
  0005b	e8 00 00 00 00	 call	 ??4tagInventoryItemInfo@@QAEAAU0@ABU0@@Z
  00060	5f		 pop	 edi
  00061	5e		 pop	 esi

; 2465 : 	}

  00062	5d		 pop	 ebp
  00063	c3		 ret	 0
??$_Push_heap@PAUtagInventoryItemInfo@@HU1@VInventoryItemInfoSort3@@@std@@YAXPAUtagInventoryItemInfo@@HH$$QAU1@VInventoryItemInfoSort3@@@Z ENDP ; std::_Push_heap<tagInventoryItemInfo *,int,tagInventoryItemInfo,InventoryItemInfoSort3>
_TEXT	ENDS
PUBLIC	?IsEmpty@ioComplexStringPrinter@@QBE_NXZ	; ioComplexStringPrinter::IsEmpty
; Function compile flags: /Ogsp
; File d:\lost saga for developer\youtube\tutorial\source\src\lsclient\iocomplexstringprinter.h
;	COMDAT ?IsEmpty@ioComplexStringPrinter@@QBE_NXZ
_TEXT	SEGMENT
?IsEmpty@ioComplexStringPrinter@@QBE_NXZ PROC		; ioComplexStringPrinter::IsEmpty, COMDAT
; _this$ = ecx

; 124  : 	inline bool IsEmpty() const { return m_vPieceList.empty(); }

  00000	8b 41 0c	 mov	 eax, DWORD PTR [ecx+12]
  00003	2b 41 10	 sub	 eax, DWORD PTR [ecx+16]
  00006	f7 d8		 neg	 eax
  00008	1b c0		 sbb	 eax, eax
  0000a	40		 inc	 eax
  0000b	c3		 ret	 0
?IsEmpty@ioComplexStringPrinter@@QBE_NXZ ENDP		; ioComplexStringPrinter::IsEmpty
_TEXT	ENDS
PUBLIC	??0EXTRAITEMSLOT@@QAE@XZ			; EXTRAITEMSLOT::EXTRAITEMSLOT
;	COMDAT xdata$x
; File d:\lost saga for developer\youtube\tutorial\source\src\lsclient\iouserextraitem.h
xdata$x	SEGMENT
__unwindtable$??0EXTRAITEMSLOT@@QAE@XZ DD 0ffffffffH
	DD	FLAT:__unwindfunclet$??0EXTRAITEMSLOT@@QAE@XZ$0
__ehfuncinfo$??0EXTRAITEMSLOT@@QAE@XZ DD 019930522H
	DD	01H
	DD	FLAT:__unwindtable$??0EXTRAITEMSLOT@@QAE@XZ
	DD	2 DUP(00H)
	DD	2 DUP(00H)
	DD	00H
	DD	01H
; Function compile flags: /Ogsp
xdata$x	ENDS
;	COMDAT ??0EXTRAITEMSLOT@@QAE@XZ
_TEXT	SEGMENT
_this$ = -16						; size = 4
__$EHRec$ = -12						; size = 12
??0EXTRAITEMSLOT@@QAE@XZ PROC				; EXTRAITEMSLOT::EXTRAITEMSLOT, COMDAT
; _this$ = ecx

; 43   : 	EXTRAITEMSLOT()

  00000	6a 04		 push	 4
  00002	b8 00 00 00 00	 mov	 eax, __ehhandler$??0EXTRAITEMSLOT@@QAE@XZ
  00007	e8 00 00 00 00	 call	 __EH_prolog3
  0000c	8b f1		 mov	 esi, ecx
  0000e	89 75 f0	 mov	 DWORD PTR _this$[ebp], esi
  00011	8b 3d 00 00 00
	00		 mov	 edi, DWORD PTR __imp_??0ioHashString@@QAE@XZ
  00017	8d 4e 28	 lea	 ecx, DWORD PTR [esi+40]
  0001a	ff d7		 call	 edi
  0001c	83 65 fc 00	 and	 DWORD PTR __$EHRec$[ebp+8], 0
  00020	8d 4e 38	 lea	 ecx, DWORD PTR [esi+56]
  00023	ff d7		 call	 edi

; 44   : 	{
; 45   : 		Init();

  00025	8b ce		 mov	 ecx, esi
  00027	e8 00 00 00 00	 call	 ?Init@EXTRAITEMSLOT@@QAEXXZ ; EXTRAITEMSLOT::Init

; 46   : 	}

  0002c	8b c6		 mov	 eax, esi
  0002e	e8 00 00 00 00	 call	 __EH_epilog3
  00033	c3		 ret	 0
_TEXT	ENDS
;	COMDAT text$x
text$x	SEGMENT
__unwindfunclet$??0EXTRAITEMSLOT@@QAE@XZ$0:
  00000	8b 4d f0	 mov	 ecx, DWORD PTR _this$[ebp]
  00003	83 c1 28	 add	 ecx, 40			; 00000028H
  00006	ff 25 00 00 00
	00		 jmp	 DWORD PTR __imp_??1ioHashString@@QAE@XZ
__ehhandler$??0EXTRAITEMSLOT@@QAE@XZ:
  0000c	8b 54 24 08	 mov	 edx, DWORD PTR [esp+8]
  00010	8d 42 0c	 lea	 eax, DWORD PTR [edx+12]
  00013	8b 4a ec	 mov	 ecx, DWORD PTR [edx-20]
  00016	33 c8		 xor	 ecx, eax
  00018	e8 00 00 00 00	 call	 @__security_check_cookie@4
  0001d	b8 00 00 00 00	 mov	 eax, OFFSET __ehfuncinfo$??0EXTRAITEMSLOT@@QAE@XZ
  00022	e9 00 00 00 00	 jmp	 ___CxxFrameHandler3
text$x	ENDS
??0EXTRAITEMSLOT@@QAE@XZ ENDP				; EXTRAITEMSLOT::EXTRAITEMSLOT
PUBLIC	??0tagInventoryItemInfo@@QAE@XZ			; tagInventoryItemInfo::tagInventoryItemInfo
; Function compile flags: /Ogsp
; File d:\lost saga for developer\youtube\tutorial\source\src\lsclient\gui\myinventorywnd.h
;	COMDAT ??0tagInventoryItemInfo@@QAE@XZ
_TEXT	SEGMENT
??0tagInventoryItemInfo@@QAE@XZ PROC			; tagInventoryItemInfo::tagInventoryItemInfo, COMDAT
; _this$ = ecx

; 121  : 	tagInventoryItemInfo()

  00000	56		 push	 esi
  00001	8b f1		 mov	 esi, ecx
  00003	8d 4e 24	 lea	 ecx, DWORD PTR [esi+36]
  00006	ff 15 00 00 00
	00		 call	 DWORD PTR __imp_??0ioHashString@@QAE@XZ

; 122  : 	{
; 123  : 		Init();

  0000c	8b ce		 mov	 ecx, esi
  0000e	e8 00 00 00 00	 call	 ?Init@tagInventoryItemInfo@@QAEXXZ ; tagInventoryItemInfo::Init

; 124  : 	}

  00013	8b c6		 mov	 eax, esi
  00015	5e		 pop	 esi
  00016	c3		 ret	 0
??0tagInventoryItemInfo@@QAE@XZ ENDP			; tagInventoryItemInfo::tagInventoryItemInfo
_TEXT	ENDS
PUBLIC	??B?$CEncrypt@H@@QBEHXZ				; CEncrypt<int>::operator int
; Function compile flags: /Ogsp
; File d:\lost saga for developer\youtube\tutorial\source\src\lsclient\encryptvalue.h
;	COMDAT ??B?$CEncrypt@H@@QBEHXZ
_TEXT	SEGMENT
_value$ = -4						; size = 4
??B?$CEncrypt@H@@QBEHXZ PROC				; CEncrypt<int>::operator int, COMDAT
; _this$ = ecx

; 145  : 	{

  00000	55		 push	 ebp
  00001	8b ec		 mov	 ebp, esp
  00003	51		 push	 ecx

; 146  : 		//UJ 130829, const    --start
; 147  : 		type value;
; 148  : 		CEncrypt<type>* pThis = const_cast<CEncrypt<type>*>(this);
; 149  : 		pThis->DecryptValueToPool(&value);

  00004	8d 45 fc	 lea	 eax, DWORD PTR _value$[ebp]
  00007	50		 push	 eax
  00008	e8 00 00 00 00	 call	 ?DecryptValueToPool@?$CEncrypt@H@@QAEXPAH@Z ; CEncrypt<int>::DecryptValueToPool

; 150  : 		//// const DecryptValueToPool     .
; 151  :  		//type value;
; 152  : 		//char szTempMem[MAX_ENCRYPT];
; 153  : 		//m_RC5.DecryptByte( m_MemPool, szTempMem, max(m_ValueSize, DEFAULT_ENCRYPT) );
; 154  : 		//memcpy( &value, szTempMem, m_ValueSize );
; 155  : 		//UJ --end
; 156  : 
; 157  : #ifdef _NOTUSE
; 158  : 		Debug();
; 159  : #endif
; 160  : 		return value;

  0000d	8b 45 fc	 mov	 eax, DWORD PTR _value$[ebp]

; 161  : 	}

  00010	c9		 leave
  00011	c3		 ret	 0
??B?$CEncrypt@H@@QBEHXZ ENDP				; CEncrypt<int>::operator int
_TEXT	ENDS
PUBLIC	??B?$CEncrypt@_J@@QBE_JXZ			; CEncrypt<__int64>::operator __int64
; Function compile flags: /Ogsp
;	COMDAT ??B?$CEncrypt@_J@@QBE_JXZ
_TEXT	SEGMENT
_value$ = -8						; size = 8
??B?$CEncrypt@_J@@QBE_JXZ PROC				; CEncrypt<__int64>::operator __int64, COMDAT
; _this$ = ecx

; 145  : 	{

  00000	55		 push	 ebp
  00001	8b ec		 mov	 ebp, esp
  00003	51		 push	 ecx
  00004	51		 push	 ecx

; 146  : 		//UJ 130829, const    --start
; 147  : 		type value;
; 148  : 		CEncrypt<type>* pThis = const_cast<CEncrypt<type>*>(this);
; 149  : 		pThis->DecryptValueToPool(&value);

  00005	8d 45 f8	 lea	 eax, DWORD PTR _value$[ebp]
  00008	50		 push	 eax
  00009	e8 00 00 00 00	 call	 ?DecryptValueToPool@?$CEncrypt@_J@@QAEXPA_J@Z ; CEncrypt<__int64>::DecryptValueToPool

; 150  : 		//// const DecryptValueToPool     .
; 151  :  		//type value;
; 152  : 		//char szTempMem[MAX_ENCRYPT];
; 153  : 		//m_RC5.DecryptByte( m_MemPool, szTempMem, max(m_ValueSize, DEFAULT_ENCRYPT) );
; 154  : 		//memcpy( &value, szTempMem, m_ValueSize );
; 155  : 		//UJ --end
; 156  : 
; 157  : #ifdef _NOTUSE
; 158  : 		Debug();
; 159  : #endif
; 160  : 		return value;

  0000e	8b 45 f8	 mov	 eax, DWORD PTR _value$[ebp]
  00011	8b 55 fc	 mov	 edx, DWORD PTR _value$[ebp+4]

; 161  : 	}

  00014	c9		 leave
  00015	c3		 ret	 0
??B?$CEncrypt@_J@@QBE_JXZ ENDP				; CEncrypt<__int64>::operator __int64
_TEXT	ENDS
PUBLIC	_szType$GSCopy$
PUBLIC	_pFrame$GSCopy$
PUBLIC	_this$GSCopy$
PUBLIC	__$ArrayPad$
EXTRN	__imp_?AddRenderFrame@ioWnd@@UAEXABVioHashString@@PAVioUIRenderFrame@@@Z:PROC
; Function compile flags: /Ogsp
; File d:\lost saga for developer\youtube\tutorial\source\src\lsclient\gui\tradeitemregisterwnd.cpp
;	COMDAT ?AddRenderFrame@TradeItemRegisterConfirmWnd@@MAEXABVioHashString@@PAVioUIRenderFrame@@@Z
_TEXT	SEGMENT
_szType$GSCopy$ = -32					; size = 4
_pFrame$GSCopy$ = -28					; size = 4
_this$GSCopy$ = -24					; size = 4
__t$511719 = -20					; size = 7
__t$511546 = -20					; size = 9
__$ArrayPad$ = -4					; size = 4
_szType$ = 8						; size = 4
_pFrame$ = 12						; size = 4
?AddRenderFrame@TradeItemRegisterConfirmWnd@@MAEXABVioHashString@@PAVioUIRenderFrame@@@Z PROC ; TradeItemRegisterConfirmWnd::AddRenderFrame, COMDAT
; _this$ = ecx

; 75   : {

  00000	55		 push	 ebp
  00001	8b ec		 mov	 ebp, esp
  00003	83 ec 20	 sub	 esp, 32			; 00000020H
  00006	a1 00 00 00 00	 mov	 eax, DWORD PTR ___security_cookie
  0000b	33 c5		 xor	 eax, ebp
  0000d	89 45 fc	 mov	 DWORD PTR __$ArrayPad$[ebp], eax
  00010	8b 45 0c	 mov	 eax, DWORD PTR _pFrame$[ebp]
  00013	8b 55 08	 mov	 edx, DWORD PTR _szType$[ebp]
  00016	56		 push	 esi
  00017	57		 push	 edi

; 76   : 	if( szType == "PriceFrm" )

  00018	6a 02		 push	 2
  0001a	89 4d e8	 mov	 DWORD PTR _this$GSCopy$[ebp], ecx

; 82   : 	{
; 83   : 		SAFEDELETE( m_pTexFrm );

  0001d	89 45 e4	 mov	 DWORD PTR _pFrame$GSCopy$[ebp], eax
  00020	89 55 e0	 mov	 DWORD PTR _szType$GSCopy$[ebp], edx
  00023	c7 45 ec bd 9e
	82 89		 mov	 DWORD PTR __t$511546[ebp], -1987928387 ; 89829ebdH
  0002a	c7 45 f0 88 aa
	99 87		 mov	 DWORD PTR __t$511546[ebp+4], -2019972472 ; 8799aa88H
  00031	8d 45 ec	 lea	 eax, DWORD PTR __t$511546[ebp]
  00034	c6 45 f4 00	 mov	 BYTE PTR __t$511546[ebp+8], 0
  00038	59		 pop	 ecx
  00039	bf ed ec eb ea	 mov	 edi, -353637139		; eaebecedH
$LL116@AddRenderF:

; 76   : 	if( szType == "PriceFrm" )

  0003e	31 38		 xor	 DWORD PTR [eax], edi
  00040	83 c0 04	 add	 eax, 4
  00043	49		 dec	 ecx
  00044	75 f8		 jne	 SHORT $LL116@AddRenderF
  00046	8b ca		 mov	 ecx, edx
  00048	8d 75 ec	 lea	 esi, DWORD PTR __t$511546[ebp]
  0004b	ff 15 00 00 00
	00		 call	 DWORD PTR __imp_?c_str@ioHashString@@QBEPBDXZ
$LL234@AddRenderF:
  00051	8a 08		 mov	 cl, BYTE PTR [eax]
  00053	3a 0e		 cmp	 cl, BYTE PTR [esi]
  00055	75 1a		 jne	 SHORT $LN235@AddRenderF
  00057	84 c9		 test	 cl, cl
  00059	74 12		 je	 SHORT $LN236@AddRenderF
  0005b	8a 48 01	 mov	 cl, BYTE PTR [eax+1]
  0005e	3a 4e 01	 cmp	 cl, BYTE PTR [esi+1]
  00061	75 0e		 jne	 SHORT $LN235@AddRenderF
  00063	83 c0 02	 add	 eax, 2
  00066	83 c6 02	 add	 esi, 2
  00069	84 c9		 test	 cl, cl
  0006b	75 e4		 jne	 SHORT $LL234@AddRenderF
$LN236@AddRenderF:
  0006d	33 c0		 xor	 eax, eax
  0006f	eb 05		 jmp	 SHORT $LN237@AddRenderF
$LN235@AddRenderF:
  00071	1b c0		 sbb	 eax, eax
  00073	83 d8 ff	 sbb	 eax, -1
$LN237@AddRenderF:
  00076	85 c0		 test	 eax, eax
  00078	75 29		 jne	 SHORT $LN233@AddRenderF

; 77   : 	{
; 78   : 		SAFEDELETE( m_pEditFrm );

  0007a	8b 75 e8	 mov	 esi, DWORD PTR _this$GSCopy$[ebp]
  0007d	8b 8e 10 02 00
	00		 mov	 ecx, DWORD PTR [esi+528]
  00083	85 c9		 test	 ecx, ecx
  00085	74 0e		 je	 SHORT $LN5@AddRenderF
  00087	8b 01		 mov	 eax, DWORD PTR [ecx]
  00089	6a 01		 push	 1
  0008b	ff 50 40	 call	 DWORD PTR [eax+64]
  0008e	83 a6 10 02 00
	00 00		 and	 DWORD PTR [esi+528], 0
$LN5@AddRenderF:

; 79   : 		m_pEditFrm = pFrame;

  00095	8b 45 e4	 mov	 eax, DWORD PTR _pFrame$GSCopy$[ebp]
  00098	89 86 10 02 00
	00		 mov	 DWORD PTR [esi+528], eax
  0009e	e9 9e 00 00 00	 jmp	 $LN1@AddRenderF
$LN233@AddRenderF:

; 80   : 	}
; 81   : 	else if( szType == "TexFrm" )

  000a3	6a 04		 push	 4
  000a5	c7 45 ec b9 89
	93 ac		 mov	 DWORD PTR __t$511719[ebp], -1399617095 ; ac9389b9H
  000ac	31 7d ec	 xor	 DWORD PTR __t$511719[ebp], edi
  000af	66 c7 45 f0 9f
	81		 mov	 WORD PTR __t$511719[ebp+4], 33183 ; 0000819fH
  000b5	c6 45 f2 00	 mov	 BYTE PTR __t$511719[ebp+6], 0
  000b9	58		 pop	 eax
$LL219@AddRenderF:
  000ba	8b c8		 mov	 ecx, eax
  000bc	81 e1 03 00 00
	80		 and	 ecx, -2147483645	; 80000003H
  000c2	79 05		 jns	 SHORT $LN242@AddRenderF
  000c4	49		 dec	 ecx
  000c5	83 c9 fc	 or	 ecx, -4			; fffffffcH
  000c8	41		 inc	 ecx
$LN242@AddRenderF:
  000c9	b2 ed		 mov	 dl, -19			; ffffffedH
  000cb	2a d1		 sub	 dl, cl
  000cd	30 54 05 ec	 xor	 BYTE PTR __t$511719[ebp+eax], dl
  000d1	40		 inc	 eax
  000d2	83 f8 06	 cmp	 eax, 6
  000d5	7c e3		 jl	 SHORT $LL219@AddRenderF
  000d7	8b 4d e0	 mov	 ecx, DWORD PTR _szType$GSCopy$[ebp]
  000da	8d 75 ec	 lea	 esi, DWORD PTR __t$511719[ebp]
  000dd	ff 15 00 00 00
	00		 call	 DWORD PTR __imp_?c_str@ioHashString@@QBEPBDXZ
$LL238@AddRenderF:
  000e3	8a 08		 mov	 cl, BYTE PTR [eax]
  000e5	3a 0e		 cmp	 cl, BYTE PTR [esi]
  000e7	75 1a		 jne	 SHORT $LN239@AddRenderF
