; Listing generated by Microsoft (R) Optimizing Compiler Version 16.00.30319.01 

	TITLE	D:\Lost Saga For Developer\Youtube\Tutorial\Source\src\LSClient\GUI\TradeMainWnd.cpp
	.686P
	.XMM
	include listing.inc
	.model	flat

INCLUDELIB MSVCRT
INCLUDELIB OLDNAMES

PUBLIC	?_EEM_DS@?$deque@UD3DXVECTOR3@@V?$allocator@UD3DXVECTOR3@@@std@@@std@@2HB ; std::deque<D3DXVECTOR3,std::allocator<D3DXVECTOR3> >::_EEM_DS
;	COMDAT ?_EEM_DS@?$deque@UD3DXVECTOR3@@V?$allocator@UD3DXVECTOR3@@@std@@@std@@2HB
CONST	SEGMENT
?_EEM_DS@?$deque@UD3DXVECTOR3@@V?$allocator@UD3DXVECTOR3@@@std@@@std@@2HB DD 01H ; std::deque<D3DXVECTOR3,std::allocator<D3DXVECTOR3> >::_EEM_DS
CONST	ENDS
PUBLIC	?return1@@YAIXZ					; return1
; Function compile flags: /Ogsp
; File d:\lost saga for developer\youtube\tutorial\source\src\lsclient\stdafx.h
;	COMDAT ?return1@@YAIXZ
_TEXT	SEGMENT
?return1@@YAIXZ PROC					; return1, COMDAT

; 17   : 	__forceinline unsigned int return1() { __asm mov eax, 1 };

  00000	b8 01 00 00 00	 mov	 eax, 1
  00005	c3		 ret	 0
?return1@@YAIXZ ENDP					; return1
_TEXT	ENDS
PUBLIC	?return5@@YAIXZ					; return5
; Function compile flags: /Ogsp
;	COMDAT ?return5@@YAIXZ
_TEXT	SEGMENT
?return5@@YAIXZ PROC					; return5, COMDAT

; 18   : 	__forceinline unsigned int return5() { __asm mov eax, 5 };

  00000	b8 05 00 00 00	 mov	 eax, 5
  00005	c3		 ret	 0
?return5@@YAIXZ ENDP					; return5
_TEXT	ENDS
PUBLIC	?return8@@YAIXZ					; return8
; Function compile flags: /Ogsp
;	COMDAT ?return8@@YAIXZ
_TEXT	SEGMENT
?return8@@YAIXZ PROC					; return8, COMDAT

; 19   : 	__forceinline unsigned int return8() { __asm mov eax, 8 };

  00000	b8 08 00 00 00	 mov	 eax, 8
  00005	c3		 ret	 0
?return8@@YAIXZ ENDP					; return8
_TEXT	ENDS
PUBLIC	?return10@@YAIXZ				; return10
; Function compile flags: /Ogsp
;	COMDAT ?return10@@YAIXZ
_TEXT	SEGMENT
?return10@@YAIXZ PROC					; return10, COMDAT

; 21   : 	__forceinline unsigned int return10() { __asm mov eax, 10 };

  00000	b8 0a 00 00 00	 mov	 eax, 10			; 0000000aH
  00005	c3		 ret	 0
?return10@@YAIXZ ENDP					; return10
_TEXT	ENDS
PUBLIC	?return1000@@YAIXZ				; return1000
; Function compile flags: /Ogsp
;	COMDAT ?return1000@@YAIXZ
_TEXT	SEGMENT
?return1000@@YAIXZ PROC					; return1000, COMDAT

; 29   : 	__forceinline unsigned int return1000() { __asm mov eax, 1000 };

  00000	b8 e8 03 00 00	 mov	 eax, 1000		; 000003e8H
  00005	c3		 ret	 0
?return1000@@YAIXZ ENDP					; return1000
_TEXT	ENDS
PUBLIC	?SetMarkType@TradeIconBtn@@QAEXH@Z		; TradeIconBtn::SetMarkType
; Function compile flags: /Ogsp
; File d:\lost saga for developer\youtube\tutorial\source\src\lsclient\gui\changetradestatewnd.h
;	COMDAT ?SetMarkType@TradeIconBtn@@QAEXH@Z
_TEXT	SEGMENT
_iMarkType$ = 8						; size = 4
?SetMarkType@TradeIconBtn@@QAEXH@Z PROC			; TradeIconBtn::SetMarkType, COMDAT
; _this$ = ecx

; 55   : 	void SetMarkType( int iMarkType ) { m_iMarkType = iMarkType; } 

  00000	55		 push	 ebp
  00001	8b ec		 mov	 ebp, esp
  00003	8b 45 08	 mov	 eax, DWORD PTR _iMarkType$[ebp]
  00006	89 81 18 02 00
	00		 mov	 DWORD PTR [ecx+536], eax
  0000c	5d		 pop	 ebp
  0000d	c2 04 00	 ret	 4
?SetMarkType@TradeIconBtn@@QAEXH@Z ENDP			; TradeIconBtn::SetMarkType
_TEXT	ENDS
PUBLIC	?SetCustomItem@TradeIconBtn@@QAEX_N@Z		; TradeIconBtn::SetCustomItem
; Function compile flags: /Ogsp
;	COMDAT ?SetCustomItem@TradeIconBtn@@QAEX_N@Z
_TEXT	SEGMENT
_bCustomItem$ = 8					; size = 1
?SetCustomItem@TradeIconBtn@@QAEX_N@Z PROC		; TradeIconBtn::SetCustomItem, COMDAT
; _this$ = ecx

; 56   : 	void SetCustomItem( bool bCustomItem ){ m_bCustomItem = bCustomItem; }

  00000	55		 push	 ebp
  00001	8b ec		 mov	 ebp, esp
  00003	8a 45 08	 mov	 al, BYTE PTR _bCustomItem$[ebp]
  00006	88 81 1c 02 00
	00		 mov	 BYTE PTR [ecx+540], al
  0000c	5d		 pop	 ebp
  0000d	c2 04 00	 ret	 4
?SetCustomItem@TradeIconBtn@@QAEX_N@Z ENDP		; TradeIconBtn::SetCustomItem
_TEXT	ENDS
PUBLIC	?SetGradeType@TradeIconBtn@@QAEXH@Z		; TradeIconBtn::SetGradeType
; Function compile flags: /Ogsp
;	COMDAT ?SetGradeType@TradeIconBtn@@QAEXH@Z
_TEXT	SEGMENT
_nGradeType$ = 8					; size = 4
?SetGradeType@TradeIconBtn@@QAEXH@Z PROC		; TradeIconBtn::SetGradeType, COMDAT
; _this$ = ecx

; 57   : 	void SetGradeType( int nGradeType ){ m_nGradeType = nGradeType; }

  00000	55		 push	 ebp
  00001	8b ec		 mov	 ebp, esp
  00003	8b 45 08	 mov	 eax, DWORD PTR _nGradeType$[ebp]
  00006	89 81 2c 02 00
	00		 mov	 DWORD PTR [ecx+556], eax
  0000c	5d		 pop	 ebp
  0000d	c2 04 00	 ret	 4
?SetGradeType@TradeIconBtn@@QAEXH@Z ENDP		; TradeIconBtn::SetGradeType
_TEXT	ENDS
PUBLIC	?IsEffect@NamedTitleBtn@@QBE_NXZ		; NamedTitleBtn::IsEffect
; Function compile flags: /Ogsp
; File d:\lost saga for developer\youtube\tutorial\source\src\lsclient\gui\namedtitlebtn.h
;	COMDAT ?IsEffect@NamedTitleBtn@@QBE_NXZ
_TEXT	SEGMENT
?IsEffect@NamedTitleBtn@@QBE_NXZ PROC			; NamedTitleBtn::IsEffect, COMDAT
; _this$ = ecx

; 29   : 	bool IsEffect() const { return m_bIsEffect; }

  00000	8a 81 11 02 00
	00		 mov	 al, BYTE PTR [ecx+529]
  00006	c3		 ret	 0
?IsEffect@NamedTitleBtn@@QBE_NXZ ENDP			; NamedTitleBtn::IsEffect
_TEXT	ENDS
PUBLIC	??_R0?AVioWnd@@@8				; ioWnd `RTTI Type Descriptor'
PUBLIC	??_R0?AVItemCustomGlobalDetailViewWnd@@@8	; ItemCustomGlobalDetailViewWnd `RTTI Type Descriptor'
PUBLIC	?iwm_command@TradeItemBtn@@UAEXPAVioWnd@@HK@Z	; TradeItemBtn::iwm_command
EXTRN	?CreateCharacter@ItemCustomGlobalDetailViewWnd@@QAEXKKK@Z:PROC ; ItemCustomGlobalDetailViewWnd::CreateCharacter
EXTRN	__imp_?FindWnd@ioGUIManager@@QAEPAVioWnd@@K@Z:PROC
EXTRN	?GetSingleton@ioSP2GUIManager@@SAAAV1@XZ:PROC	; ioSP2GUIManager::GetSingleton
EXTRN	__imp_?GetID@ioWnd@@QBEKXZ:PROC
EXTRN	___RTDynamicCast:PROC
EXTRN	??_7type_info@@6B@:QWORD			; type_info::`vftable'
;	COMDAT ??_R0?AVioWnd@@@8
; File d:\lost saga for developer\youtube\tutorial\source\src\lsclient\gui\trademainwnd.cpp
_DATA	SEGMENT
??_R0?AVioWnd@@@8 DD FLAT:??_7type_info@@6B@		; ioWnd `RTTI Type Descriptor'
	DD	00H
	DB	'.?AVioWnd@@', 00H
_DATA	ENDS
;	COMDAT ??_R0?AVItemCustomGlobalDetailViewWnd@@@8
_DATA	SEGMENT
??_R0?AVItemCustomGlobalDetailViewWnd@@@8 DD FLAT:??_7type_info@@6B@ ; ItemCustomGlobalDetailViewWnd `RTTI Type Descriptor'
	DD	00H
	DB	'.?AVItemCustomGlobalDetailViewWnd@@', 00H
; Function compile flags: /Ogsp
_DATA	ENDS
;	COMDAT ?iwm_command@TradeItemBtn@@UAEXPAVioWnd@@HK@Z
_TEXT	SEGMENT
_pWnd$ = 8						; size = 4
_cmd$ = 12						; size = 4
_param$ = 16						; size = 4
?iwm_command@TradeItemBtn@@UAEXPAVioWnd@@HK@Z PROC	; TradeItemBtn::iwm_command, COMDAT
; _this$ = ecx

; 70   : {

  00000	55		 push	 ebp
  00001	8b ec		 mov	 ebp, esp
  00003	56		 push	 esi
  00004	8b f1		 mov	 esi, ecx

; 71   : 	DWORD dwID = pWnd->GetID();

  00006	8b 4d 08	 mov	 ecx, DWORD PTR _pWnd$[ebp]
  00009	ff 15 00 00 00
	00		 call	 DWORD PTR __imp_?GetID@ioWnd@@QBEKXZ

; 72   : 
; 73   : 	switch( dwID )

  0000f	48		 dec	 eax
  00010	74 4d		 je	 SHORT $LN1@iwm_comman
  00012	48		 dec	 eax
  00013	75 4a		 jne	 SHORT $LN1@iwm_comman

; 74   : 	{
; 75   : 	case ID_ICON_BTN:
; 76   : 		if( cmd == IOBN_BTNUP )
; 77   : 		{
; 78   : 		}
; 79   : 		break;
; 80   : 	case ID_CUSTOM_BTN:
; 81   : 		if( cmd == IOBN_BTNUP )

  00015	83 7d 0c 11	 cmp	 DWORD PTR _cmd$[ebp], 17 ; 00000011H
  00019	75 44		 jne	 SHORT $LN1@iwm_comman

; 82   : 		{
; 83   : 			ItemCustomGlobalDetailViewWnd *pDetailViewWnd = dynamic_cast< ItemCustomGlobalDetailViewWnd * >( g_GUIMgr.FindWnd( ITEM_CUSTOM_GLOBAL_DETAIL_VIEW_WND ) );

  0001b	50		 push	 eax
  0001c	68 00 00 00 00	 push	 OFFSET ??_R0?AVItemCustomGlobalDetailViewWnd@@@8
  00021	68 00 00 00 00	 push	 OFFSET ??_R0?AVioWnd@@@8
  00026	50		 push	 eax
  00027	68 22 18 00 00	 push	 6178			; 00001822H
  0002c	e8 00 00 00 00	 call	 ?GetSingleton@ioSP2GUIManager@@SAAAV1@XZ ; ioSP2GUIManager::GetSingleton
  00031	8b c8		 mov	 ecx, eax
  00033	ff 15 00 00 00
	00		 call	 DWORD PTR __imp_?FindWnd@ioGUIManager@@QAEPAVioWnd@@K@Z
  00039	50		 push	 eax
  0003a	e8 00 00 00 00	 call	 ___RTDynamicCast
  0003f	83 c4 14	 add	 esp, 20			; 00000014H

; 84   : 			if( pDetailViewWnd )

  00042	85 c0		 test	 eax, eax
  00044	74 19		 je	 SHORT $LN1@iwm_comman

; 85   : 			{
; 86   : 				pDetailViewWnd->CreateCharacter( m_ItemInfo.m_dwItemMagicCode, m_ItemInfo.m_dwItemMaleCustom, m_ItemInfo.m_dwItemFemaleCustom );

  00046	ff b6 58 02 00
	00		 push	 DWORD PTR [esi+600]
  0004c	8b c8		 mov	 ecx, eax
  0004e	ff b6 54 02 00
	00		 push	 DWORD PTR [esi+596]
  00054	ff b6 4c 02 00
	00		 push	 DWORD PTR [esi+588]
  0005a	e8 00 00 00 00	 call	 ?CreateCharacter@ItemCustomGlobalDetailViewWnd@@QAEXKKK@Z ; ItemCustomGlobalDetailViewWnd::CreateCharacter
$LN1@iwm_comman:
  0005f	5e		 pop	 esi

; 87   : 			}
; 88   : 		}
; 89   : 		break;
; 90   : 	}
; 91   : }

  00060	5d		 pop	 ebp
  00061	c2 0c 00	 ret	 12			; 0000000cH
?iwm_command@TradeItemBtn@@UAEXPAVioWnd@@HK@Z ENDP	; TradeItemBtn::iwm_command
_TEXT	ENDS
PUBLIC	?ClearDesc@TradeItemBtn@@IAEXXZ			; TradeItemBtn::ClearDesc
EXTRN	?ClearList@ioComplexStringPrinter@@QAEXXZ:PROC	; ioComplexStringPrinter::ClearList
; Function compile flags: /Ogsp
;	COMDAT ?ClearDesc@TradeItemBtn@@IAEXXZ
_TEXT	SEGMENT
?ClearDesc@TradeItemBtn@@IAEXXZ PROC			; TradeItemBtn::ClearDesc, COMDAT
; _this$ = ecx

; 121  : {

  00000	56		 push	 esi
  00001	57		 push	 edi

; 122  : 	for (int i = 0; i < MAX_DESC ; i++)

  00002	6a 02		 push	 2
  00004	8d b1 00 02 00
	00		 lea	 esi, DWORD PTR [ecx+512]
  0000a	5f		 pop	 edi
$LL3@ClearDesc:

; 123  : 	{
; 124  : 		m_szDescArray[i].ClearList();

  0000b	8b ce		 mov	 ecx, esi
  0000d	e8 00 00 00 00	 call	 ?ClearList@ioComplexStringPrinter@@QAEXXZ ; ioComplexStringPrinter::ClearList
  00012	83 c6 20	 add	 esi, 32			; 00000020H
  00015	4f		 dec	 edi
  00016	75 f3		 jne	 SHORT $LL3@ClearDesc

; 125  : 	}
; 126  : }

  00018	5f		 pop	 edi
  00019	5e		 pop	 esi
  0001a	c3		 ret	 0
?ClearDesc@TradeItemBtn@@IAEXXZ ENDP			; TradeItemBtn::ClearDesc
_TEXT	ENDS
PUBLIC	?SetIsWidthCutDesc@TradeItemBtn@@IAEXH_N@Z	; TradeItemBtn::SetIsWidthCutDesc
; Function compile flags: /Ogsp
;	COMDAT ?SetIsWidthCutDesc@TradeItemBtn@@IAEXH_N@Z
_TEXT	SEGMENT
_iArray$ = 8						; size = 4
_bWidthCut$ = 12					; size = 1
?SetIsWidthCutDesc@TradeItemBtn@@IAEXH_N@Z PROC		; TradeItemBtn::SetIsWidthCutDesc, COMDAT
; _this$ = ecx

; 156  : {

  00000	55		 push	 ebp
  00001	8b ec		 mov	 ebp, esp

; 157  : 	if( COMPARE( iArray, 0, MAX_DESC ) )

  00003	8b 45 08	 mov	 eax, DWORD PTR _iArray$[ebp]
  00006	83 f8 01	 cmp	 eax, 1
  00009	77 0a		 ja	 SHORT $LN1@SetIsWidth

; 158  : 		m_bWidthCutDescArray[iArray] = bWidthCut;

  0000b	8a 55 0c	 mov	 dl, BYTE PTR _bWidthCut$[ebp]
  0000e	88 94 08 fc 01
	00 00		 mov	 BYTE PTR [eax+ecx+508], dl
$LN1@SetIsWidth:

; 159  : }

  00015	5d		 pop	 ebp
  00016	c2 08 00	 ret	 8
?SetIsWidthCutDesc@TradeItemBtn@@IAEXH_N@Z ENDP		; TradeItemBtn::SetIsWidthCutDesc
_TEXT	ENDS
PUBLIC	?IsWidthCutDesc@TradeItemBtn@@IAE_NH@Z		; TradeItemBtn::IsWidthCutDesc
; Function compile flags: /Ogsp
;	COMDAT ?IsWidthCutDesc@TradeItemBtn@@IAE_NH@Z
_TEXT	SEGMENT
_iArray$ = 8						; size = 4
?IsWidthCutDesc@TradeItemBtn@@IAE_NH@Z PROC		; TradeItemBtn::IsWidthCutDesc, COMDAT
; _this$ = ecx

; 162  : {

  00000	55		 push	 ebp
  00001	8b ec		 mov	 ebp, esp

; 163  : 	if( COMPARE( iArray, 0, MAX_DESC ) )

  00003	8b 45 08	 mov	 eax, DWORD PTR _iArray$[ebp]
  00006	83 f8 01	 cmp	 eax, 1
  00009	77 09		 ja	 SHORT $LN1@IsWidthCut

; 164  : 		return m_bWidthCutDescArray[iArray];

  0000b	8a 84 08 fc 01
	00 00		 mov	 al, BYTE PTR [eax+ecx+508]
  00012	eb 02		 jmp	 SHORT $LN2@IsWidthCut
$LN1@IsWidthCut:

; 165  : 
; 166  : 	return false;

  00014	32 c0		 xor	 al, al
$LN2@IsWidthCut:

; 167  : }

  00016	5d		 pop	 ebp
  00017	c2 04 00	 ret	 4
?IsWidthCutDesc@TradeItemBtn@@IAE_NH@Z ENDP		; TradeItemBtn::IsWidthCutDesc
_TEXT	ENDS
PUBLIC	?GetInfo@TradeItemBtn@@QAEAAUTradeItemInfo@@XZ	; TradeItemBtn::GetInfo
; Function compile flags: /Ogsp
;	COMDAT ?GetInfo@TradeItemBtn@@QAEAAUTradeItemInfo@@XZ
_TEXT	SEGMENT
?GetInfo@TradeItemBtn@@QAEAAUTradeItemInfo@@XZ PROC	; TradeItemBtn::GetInfo, COMDAT
; _this$ = ecx

; 232  : 	return m_ItemInfo;

  00000	8d 81 40 02 00
	00		 lea	 eax, DWORD PTR [ecx+576]

; 233  : }

  00006	c3		 ret	 0
?GetInfo@TradeItemBtn@@QAEAAUTradeItemInfo@@XZ ENDP	; TradeItemBtn::GetInfo
_TEXT	ENDS
PUBLIC	??_7bad_alloc@std@@6B@				; std::bad_alloc::`vftable'
PUBLIC	??0bad_alloc@std@@QAE@PBD@Z			; std::bad_alloc::bad_alloc
PUBLIC	??_R4bad_alloc@std@@6B@				; std::bad_alloc::`RTTI Complete Object Locator'
PUBLIC	??_R0?AVbad_alloc@std@@@8			; std::bad_alloc `RTTI Type Descriptor'
PUBLIC	??_R3bad_alloc@std@@8				; std::bad_alloc::`RTTI Class Hierarchy Descriptor'
PUBLIC	??_R2bad_alloc@std@@8				; std::bad_alloc::`RTTI Base Class Array'
PUBLIC	??_R1A@?0A@EA@bad_alloc@std@@8			; std::bad_alloc::`RTTI Base Class Descriptor at (0,-1,0,64)'
PUBLIC	??_R1A@?0A@EA@exception@std@@8			; std::exception::`RTTI Base Class Descriptor at (0,-1,0,64)'
PUBLIC	??_R0?AVexception@std@@@8			; std::exception `RTTI Type Descriptor'
PUBLIC	??_R3exception@std@@8				; std::exception::`RTTI Class Hierarchy Descriptor'
PUBLIC	??_R2exception@std@@8				; std::exception::`RTTI Base Class Array'
EXTRN	__imp_??0exception@std@@QAE@ABQBD@Z:PROC
EXTRN	??_Ebad_alloc@std@@UAEPAXI@Z:PROC		; std::bad_alloc::`vector deleting destructor'
EXTRN	?what@exception@std@@UBEPBDXZ:PROC		; std::exception::what
;	COMDAT ??_R2exception@std@@8
; File c:\program files (x86)\microsoft visual studio 10.0\vc\include\exception
rdata$r	SEGMENT
??_R2exception@std@@8 DD FLAT:??_R1A@?0A@EA@exception@std@@8 ; std::exception::`RTTI Base Class Array'
rdata$r	ENDS
;	COMDAT ??_R3exception@std@@8
rdata$r	SEGMENT
??_R3exception@std@@8 DD 00H				; std::exception::`RTTI Class Hierarchy Descriptor'
	DD	00H
	DD	01H
	DD	FLAT:??_R2exception@std@@8
rdata$r	ENDS
;	COMDAT ??_R0?AVexception@std@@@8
_DATA	SEGMENT
??_R0?AVexception@std@@@8 DD FLAT:??_7type_info@@6B@	; std::exception `RTTI Type Descriptor'
	DD	00H
	DB	'.?AVexception@std@@', 00H
_DATA	ENDS
;	COMDAT ??_R1A@?0A@EA@exception@std@@8
rdata$r	SEGMENT
??_R1A@?0A@EA@exception@std@@8 DD FLAT:??_R0?AVexception@std@@@8 ; std::exception::`RTTI Base Class Descriptor at (0,-1,0,64)'
	DD	00H
	DD	00H
	DD	0ffffffffH
	DD	00H
	DD	040H
	DD	FLAT:??_R3exception@std@@8
rdata$r	ENDS
;	COMDAT ??_R1A@?0A@EA@bad_alloc@std@@8
rdata$r	SEGMENT
??_R1A@?0A@EA@bad_alloc@std@@8 DD FLAT:??_R0?AVbad_alloc@std@@@8 ; std::bad_alloc::`RTTI Base Class Descriptor at (0,-1,0,64)'
	DD	01H
	DD	00H
	DD	0ffffffffH
	DD	00H
	DD	040H
	DD	FLAT:??_R3bad_alloc@std@@8
rdata$r	ENDS
;	COMDAT ??_R2bad_alloc@std@@8
rdata$r	SEGMENT
??_R2bad_alloc@std@@8 DD FLAT:??_R1A@?0A@EA@bad_alloc@std@@8 ; std::bad_alloc::`RTTI Base Class Array'
	DD	FLAT:??_R1A@?0A@EA@exception@std@@8
rdata$r	ENDS
;	COMDAT ??_R3bad_alloc@std@@8
rdata$r	SEGMENT
??_R3bad_alloc@std@@8 DD 00H				; std::bad_alloc::`RTTI Class Hierarchy Descriptor'
	DD	00H
	DD	02H
	DD	FLAT:??_R2bad_alloc@std@@8
rdata$r	ENDS
;	COMDAT ??_R0?AVbad_alloc@std@@@8
_DATA	SEGMENT
??_R0?AVbad_alloc@std@@@8 DD FLAT:??_7type_info@@6B@	; std::bad_alloc `RTTI Type Descriptor'
	DD	00H
	DB	'.?AVbad_alloc@std@@', 00H
_DATA	ENDS
;	COMDAT ??_R4bad_alloc@std@@6B@
rdata$r	SEGMENT
??_R4bad_alloc@std@@6B@ DD 00H				; std::bad_alloc::`RTTI Complete Object Locator'
	DD	00H
	DD	00H
	DD	FLAT:??_R0?AVbad_alloc@std@@@8
	DD	FLAT:??_R3bad_alloc@std@@8
rdata$r	ENDS
;	COMDAT ??_7bad_alloc@std@@6B@
CONST	SEGMENT
??_7bad_alloc@std@@6B@ DD FLAT:??_R4bad_alloc@std@@6B@	; std::bad_alloc::`vftable'
	DD	FLAT:??_Ebad_alloc@std@@UAEPAXI@Z
	DD	FLAT:?what@exception@std@@UBEPBDXZ
; Function compile flags: /Ogsp
CONST	ENDS
;	COMDAT ??0bad_alloc@std@@QAE@PBD@Z
_TEXT	SEGMENT
__Message$ = 8						; size = 4
??0bad_alloc@std@@QAE@PBD@Z PROC			; std::bad_alloc::bad_alloc, COMDAT
; _this$ = ecx

; 345  : 		{	// construct from message string

  00000	55		 push	 ebp
  00001	8b ec		 mov	 ebp, esp
  00003	56		 push	 esi
  00004	8d 45 08	 lea	 eax, DWORD PTR __Message$[ebp]
  00007	50		 push	 eax
  00008	8b f1		 mov	 esi, ecx
  0000a	ff 15 00 00 00
	00		 call	 DWORD PTR __imp_??0exception@std@@QAE@ABQBD@Z
  00010	c7 06 00 00 00
	00		 mov	 DWORD PTR [esi], OFFSET ??_7bad_alloc@std@@6B@

; 346  : 		}

  00016	8b c6		 mov	 eax, esi
  00018	5e		 pop	 esi
  00019	5d		 pop	 ebp
  0001a	c2 04 00	 ret	 4
??0bad_alloc@std@@QAE@PBD@Z ENDP			; std::bad_alloc::bad_alloc
_TEXT	ENDS
PUBLIC	??1bad_alloc@std@@UAE@XZ			; std::bad_alloc::~bad_alloc
EXTRN	__imp_??1exception@std@@UAE@XZ:PROC
; Function compile flags: /Ogsp
;	COMDAT ??1bad_alloc@std@@UAE@XZ
_TEXT	SEGMENT
??1bad_alloc@std@@UAE@XZ PROC				; std::bad_alloc::~bad_alloc, COMDAT
; _this$ = ecx

; 354  : 		{	// destroy the object

  00000	c7 01 00 00 00
	00		 mov	 DWORD PTR [ecx], OFFSET ??_7bad_alloc@std@@6B@

; 355  : 		}

  00006	ff 25 00 00 00
	00		 jmp	 DWORD PTR __imp_??1exception@std@@UAE@XZ
??1bad_alloc@std@@UAE@XZ ENDP				; std::bad_alloc::~bad_alloc
_TEXT	ENDS
EXTRN	??3@YAXPAX@Z:PROC				; operator delete
; Function compile flags: /Ogsp
;	COMDAT ??_Gbad_alloc@std@@UAEPAXI@Z
_TEXT	SEGMENT
___flags$ = 8						; size = 4
??_Gbad_alloc@std@@UAEPAXI@Z PROC			; std::bad_alloc::`scalar deleting destructor', COMDAT
; _this$ = ecx
  00000	55		 push	 ebp
  00001	8b ec		 mov	 ebp, esp
  00003	56		 push	 esi
  00004	8b f1		 mov	 esi, ecx
  00006	c7 06 00 00 00
	00		 mov	 DWORD PTR [esi], OFFSET ??_7bad_alloc@std@@6B@
  0000c	ff 15 00 00 00
	00		 call	 DWORD PTR __imp_??1exception@std@@UAE@XZ
  00012	f6 45 08 01	 test	 BYTE PTR ___flags$[ebp], 1
  00016	74 07		 je	 SHORT $LN1@scalar
  00018	56		 push	 esi
  00019	e8 00 00 00 00	 call	 ??3@YAXPAX@Z		; operator delete
  0001e	59		 pop	 ecx
$LN1@scalar:
  0001f	8b c6		 mov	 eax, esi
  00021	5e		 pop	 esi
  00022	5d		 pop	 ebp
  00023	c2 04 00	 ret	 4
??_Gbad_alloc@std@@UAEPAXI@Z ENDP			; std::bad_alloc::`scalar deleting destructor'
_TEXT	ENDS
PUBLIC	?OnProcess@TradeItemBtn@@MAEXM@Z		; TradeItemBtn::OnProcess
EXTRN	__imp_?IsShow@ioWnd@@QBE_NXZ:PROC
; Function compile flags: /Ogsp
; File d:\lost saga for developer\youtube\tutorial\source\src\lsclient\gui\trademainwnd.cpp
;	COMDAT ?OnProcess@TradeItemBtn@@MAEXM@Z
_TEXT	SEGMENT
_fTimePerSec$ = 8					; size = 4
?OnProcess@TradeItemBtn@@MAEXM@Z PROC			; TradeItemBtn::OnProcess, COMDAT
; _this$ = ecx

; 302  : 	if( !IsShow() )

  00000	ff 15 00 00 00
	00		 call	 DWORD PTR __imp_?IsShow@ioWnd@@QBE_NXZ

; 303  : 		return;
; 304  : }

  00006	c2 04 00	 ret	 4
?OnProcess@TradeItemBtn@@MAEXM@Z ENDP			; TradeItemBtn::OnProcess
_TEXT	ENDS
PUBLIC	??_7TradeItemBuyWnd@@6B@			; TradeItemBuyWnd::`vftable'
PUBLIC	??1TradeItemBuyWnd@@UAE@XZ			; TradeItemBuyWnd::~TradeItemBuyWnd
PUBLIC	??_R4TradeItemBuyWnd@@6B@			; TradeItemBuyWnd::`RTTI Complete Object Locator'
PUBLIC	??_R0?AVTradeItemBuyWnd@@@8			; TradeItemBuyWnd `RTTI Type Descriptor'
PUBLIC	??_R3TradeItemBuyWnd@@8				; TradeItemBuyWnd::`RTTI Class Hierarchy Descriptor'
PUBLIC	??_R2TradeItemBuyWnd@@8				; TradeItemBuyWnd::`RTTI Base Class Array'
PUBLIC	??_R1A@?0A@EA@TradeItemBuyWnd@@8		; TradeItemBuyWnd::`RTTI Base Class Descriptor at (0,-1,0,64)'
PUBLIC	??_R1A@?0A@EA@ioMovingWnd@@8			; ioMovingWnd::`RTTI Base Class Descriptor at (0,-1,0,64)'
PUBLIC	??_R0?AVioMovingWnd@@@8				; ioMovingWnd `RTTI Type Descriptor'
PUBLIC	??_R3ioMovingWnd@@8				; ioMovingWnd::`RTTI Class Hierarchy Descriptor'
PUBLIC	??_R2ioMovingWnd@@8				; ioMovingWnd::`RTTI Base Class Array'
PUBLIC	??_R1A@?0A@EA@ioWnd@@8				; ioWnd::`RTTI Base Class Descriptor at (0,-1,0,64)'
PUBLIC	??_R3ioWnd@@8					; ioWnd::`RTTI Class Hierarchy Descriptor'
PUBLIC	??_R2ioWnd@@8					; ioWnd::`RTTI Base Class Array'
PUBLIC	?AddRenderFrame@TradeItemBuyWnd@@MAEXABVioHashString@@PAVioUIRenderFrame@@@Z ; TradeItemBuyWnd::AddRenderFrame
PUBLIC	?AddRenderImage@TradeItemBuyWnd@@MAEXABVioHashString@@PAVioUIRenderImage@@@Z ; TradeItemBuyWnd::AddRenderImage
PUBLIC	?OnRender@TradeItemBuyWnd@@MAEXXZ		; TradeItemBuyWnd::OnRender
PUBLIC	?iwm_command@TradeItemBuyWnd@@UAEXPAVioWnd@@HK@Z ; TradeItemBuyWnd::iwm_command
EXTRN	__imp_??1ioMovingWnd@@UAE@XZ:PROC
EXTRN	??_M@YGXPAXIHP6EX0@Z@Z:PROC			; `eh vector destructor iterator'
EXTRN	??1ioComplexStringPrinter@@QAE@XZ:PROC		; ioComplexStringPrinter::~ioComplexStringPrinter
EXTRN	___CxxFrameHandler3:PROC
EXTRN	@__security_check_cookie@4:PROC
EXTRN	__EH_epilog3:PROC
EXTRN	__EH_prolog3:PROC
EXTRN	?AddTooltipHelp@ioWnd@@UAEXABVioHashString@@00@Z:PROC ; ioWnd::AddTooltipHelp
EXTRN	?ParseExtraInfo@ioWnd@@UAEXAAVioXMLElement@@@Z:PROC ; ioWnd::ParseExtraInfo
EXTRN	?AddNamedRenderImage@ioWnd@@UAEXABVioHashString@@PAVioUIRenderImage@@@Z:PROC ; ioWnd::AddNamedRenderImage
EXTRN	?RemoveNamedRenderImage@ioWnd@@UAEXABVioHashString@@@Z:PROC ; ioWnd::RemoveNamedRenderImage
EXTRN	?GetNamedRenderImage@ioWnd@@UBEPAVioUIRenderImage@@ABVioHashString@@@Z:PROC ; ioWnd::GetNamedRenderImage
EXTRN	?SetWindowAlpha@ioWnd@@UAEXH@Z:PROC		; ioWnd::SetWindowAlpha
EXTRN	?SetActive@ioWnd@@UAEXXZ:PROC			; ioWnd::SetActive
EXTRN	?SetInActive@ioWnd@@UAEXXZ:PROC			; ioWnd::SetInActive
EXTRN	?ClearElementImageList@ioWnd@@UAEXXZ:PROC	; ioWnd::ClearElementImageList
EXTRN	?SetSize@ioWnd@@UAEXHH@Z:PROC			; ioWnd::SetSize
EXTRN	?SetPositionToDefault@ioMovingWnd@@UAEXHH_N0@Z:PROC ; ioMovingWnd::SetPositionToDefault
EXTRN	?IsNeedProcess@ioWnd@@UBE_NXZ:PROC		; ioWnd::IsNeedProcess
EXTRN	?IsCanMouseReaction@ioWnd@@UBE_NXZ:PROC		; ioWnd::IsCanMouseReaction
EXTRN	?AddChild@ioWnd@@UAEXPAV1@@Z:PROC		; ioWnd::AddChild
EXTRN	?DeleteChild@ioWnd@@UAEXK@Z:PROC		; ioWnd::DeleteChild
EXTRN	?DeleteAllChild@ioWnd@@UAEXXZ:PROC		; ioWnd::DeleteAllChild
EXTRN	?OnRenderShowAndHide@ioWnd@@MAE_NXZ:PROC	; ioWnd::OnRenderShowAndHide
EXTRN	?OnRenderShowAndHideByDefault@ioWnd@@MAE_NK@Z:PROC ; ioWnd::OnRenderShowAndHideByDefault
EXTRN	?OnRenderShowAndHideByTop@ioWnd@@MAE_NK@Z:PROC	; ioWnd::OnRenderShowAndHideByTop
EXTRN	?OnRenderShowAndHideByDown@ioWnd@@MAE_NK@Z:PROC	; ioWnd::OnRenderShowAndHideByDown
EXTRN	?OnRenderAfterChild@ioWnd@@MAEXXZ:PROC		; ioWnd::OnRenderAfterChild
EXTRN	?OnProcess@ioWnd@@MAEXM@Z:PROC			; ioWnd::OnProcess
EXTRN	?OnMouseProcess@ioMovingWnd@@MAEXABVioMouse@@@Z:PROC ; ioMovingWnd::OnMouseProcess
EXTRN	?CheckFrameReSize@ioWnd@@MAEXHHHH@Z:PROC	; ioWnd::CheckFrameReSize
EXTRN	?RenderImageList@ioWnd@@MAEXHHW4UIRenderType@@@Z:PROC ; ioWnd::RenderImageList
EXTRN	?iwm_create@ioWnd@@UAEXXZ:PROC			; ioWnd::iwm_create
EXTRN	?iwm_destroy@ioWnd@@UAEXXZ:PROC			; ioWnd::iwm_destroy
EXTRN	?iwm_lbuttondown@ioMovingWnd@@UAEXABVioMouse@@@Z:PROC ; ioMovingWnd::iwm_lbuttondown
EXTRN	?iwm_lbuttonup@ioMovingWnd@@UAEXABVioMouse@@@Z:PROC ; ioMovingWnd::iwm_lbuttonup
EXTRN	?iwm_lbuttonDBLCLK@ioWnd@@UAEXABVioMouse@@@Z:PROC ; ioWnd::iwm_lbuttonDBLCLK
EXTRN	?iwm_rbuttondown@ioWnd@@UAEXABVioMouse@@@Z:PROC	; ioWnd::iwm_rbuttondown
EXTRN	?iwm_rbuttonup@ioWnd@@UAEXABVioMouse@@@Z:PROC	; ioWnd::iwm_rbuttonup
EXTRN	?iwm_mouseover@ioWnd@@UAEXABVioMouse@@@Z:PROC	; ioWnd::iwm_mouseover
EXTRN	?iwm_mousemove@ioWnd@@UAEXABVioMouse@@@Z:PROC	; ioWnd::iwm_mousemove
EXTRN	?iwm_mouseleave@ioWnd@@UAEXABVioMouse@@@Z:PROC	; ioWnd::iwm_mouseleave
EXTRN	?iwm_vscroll@ioWnd@@UAEXKH@Z:PROC		; ioWnd::iwm_vscroll
EXTRN	?iwm_wheel@ioWnd@@UAEXH@Z:PROC			; ioWnd::iwm_wheel
EXTRN	?iwm_show@ioWnd@@UAEXXZ:PROC			; ioWnd::iwm_show
EXTRN	?iwm_hide@ioWnd@@UAEXXZ:PROC			; ioWnd::iwm_hide
EXTRN	?iwm_esc@ioWnd@@UAE_NXZ:PROC			; ioWnd::iwm_esc
EXTRN	?iwm_spacebar@ioWnd@@UAE_NXZ:PROC		; ioWnd::iwm_spacebar
EXTRN	?iwm_gototop@ioWnd@@UAEXXZ:PROC			; ioWnd::iwm_gototop
EXTRN	?iwm_dragenter@ioWnd@@UAE?AW4IWDropEffect@@PAVioDragItem@@ABVioMouse@@@Z:PROC ; ioWnd::iwm_dragenter
EXTRN	?iwm_dragover@ioWnd@@UAE?AW4IWDropEffect@@PAVioDragItem@@ABVioMouse@@@Z:PROC ; ioWnd::iwm_dragover
EXTRN	?iwm_dragleave@ioWnd@@UAEXXZ:PROC		; ioWnd::iwm_dragleave
EXTRN	?iwm_dropitem@ioWnd@@UAE_NPAVioDragItem@@ABVioMouse@@PAV1@@Z:PROC ; ioWnd::iwm_dropitem
EXTRN	?iwm_dropdone@ioWnd@@UAEXPAVioDragItem@@PAV1@_N@Z:PROC ; ioWnd::iwm_dropdone
EXTRN	?IsEXType@ioWnd@@UBE_NXZ:PROC			; ioWnd::IsEXType
EXTRN	?GetWndType@ioWnd@@UBEKXZ:PROC			; ioWnd::GetWndType
EXTRN	?RenderWnd@ioWnd@@UAEXXZ:PROC			; ioWnd::RenderWnd
EXTRN	?SetIDEX@ioWnd@@UAEXAAK_N@Z:PROC		; ioWnd::SetIDEX
EXTRN	?ParseXML@ioWnd@@UAEXAAVioXMLElement@@@Z:PROC	; ioWnd::ParseXML
EXTRN	?GetHeaderFileName@ioWnd@@UAEPBDXZ:PROC		; ioWnd::GetHeaderFileName
EXTRN	?GetTemplateName@ioWnd@@UAEPBDXZ:PROC		; ioWnd::GetTemplateName
EXTRN	?GetDefClassName@ioWnd@@UBEPBDXZ:PROC		; ioWnd::GetDefClassName
EXTRN	?_Clone@ioWnd@@UAEPAV1@XZ:PROC			; ioWnd::_Clone
EXTRN	?Copy@ioWnd@@UAEXPAV1@@Z:PROC			; ioWnd::Copy
EXTRN	?Save@ioWnd@@UAE_NAAVioXMLElement@@@Z:PROC	; ioWnd::Save
EXTRN	?SetSaveData@ioWnd@@UAEXAAVioXMLElement@@@Z:PROC ; ioWnd::SetSaveData
EXTRN	?SetPosX@ioWnd@@UAEXH@Z:PROC			; ioWnd::SetPosX
EXTRN	?SetPosY@ioWnd@@UAEXH@Z:PROC			; ioWnd::SetPosY
EXTRN	?SetWidth@ioWnd@@UAEXH@Z:PROC			; ioWnd::SetWidth
EXTRN	?SetHeight@ioWnd@@UAEXH@Z:PROC			; ioWnd::SetHeight
EXTRN	?GetNumFixedRenderFrame@ioWnd@@UBEHXZ:PROC	; ioWnd::GetNumFixedRenderFrame
EXTRN	?GetFixedRenderFrameType@ioWnd@@UAEPBDH@Z:PROC	; ioWnd::GetFixedRenderFrameType
EXTRN	?GetRenderFrame@ioWnd@@UAEPAPAVioUIRenderElement@@PBD@Z:PROC ; ioWnd::GetRenderFrame
EXTRN	?GetNumFixedRenderImage@ioWnd@@UBEHXZ:PROC	; ioWnd::GetNumFixedRenderImage
EXTRN	?GetFixedRenderImageType@ioWnd@@UAEPBDH@Z:PROC	; ioWnd::GetFixedRenderImageType
EXTRN	?GetRenderImage@ioWnd@@UAEPAPAVioUIRenderElement@@PBD@Z:PROC ; ioWnd::GetRenderImage
EXTRN	?AddEffect@ioWnd@@UAEXABVioHashString@@PAVioUI3DEffectRender@@@Z:PROC ; ioWnd::AddEffect
EXTRN	?GetEffect@ioWnd@@UAEPAVioUI3DEffectRender@@VioHashString@@@Z:PROC ; ioWnd::GetEffect
EXTRN	??_ETradeItemBuyWnd@@UAEPAXI@Z:PROC		; TradeItemBuyWnd::`vector deleting destructor'
;	COMDAT ??_R2ioWnd@@8
rdata$r	SEGMENT
??_R2ioWnd@@8 DD FLAT:??_R1A@?0A@EA@ioWnd@@8		; ioWnd::`RTTI Base Class Array'
rdata$r	ENDS
;	COMDAT ??_R3ioWnd@@8
rdata$r	SEGMENT
??_R3ioWnd@@8 DD 00H					; ioWnd::`RTTI Class Hierarchy Descriptor'
	DD	00H
	DD	01H
	DD	FLAT:??_R2ioWnd@@8
rdata$r	ENDS
;	COMDAT ??_R1A@?0A@EA@ioWnd@@8
rdata$r	SEGMENT
??_R1A@?0A@EA@ioWnd@@8 DD FLAT:??_R0?AVioWnd@@@8	; ioWnd::`RTTI Base Class Descriptor at (0,-1,0,64)'
	DD	00H
	DD	00H
	DD	0ffffffffH
	DD	00H
	DD	040H
	DD	FLAT:??_R3ioWnd@@8
rdata$r	ENDS
;	COMDAT ??_R2ioMovingWnd@@8
rdata$r	SEGMENT
??_R2ioMovingWnd@@8 DD FLAT:??_R1A@?0A@EA@ioMovingWnd@@8 ; ioMovingWnd::`RTTI Base Class Array'
	DD	FLAT:??_R1A@?0A@EA@ioWnd@@8
rdata$r	ENDS
;	COMDAT ??_R3ioMovingWnd@@8
rdata$r	SEGMENT
??_R3ioMovingWnd@@8 DD 00H				; ioMovingWnd::`RTTI Class Hierarchy Descriptor'
	DD	00H
	DD	02H
	DD	FLAT:??_R2ioMovingWnd@@8
rdata$r	ENDS
;	COMDAT ??_R0?AVioMovingWnd@@@8
_DATA	SEGMENT
??_R0?AVioMovingWnd@@@8 DD FLAT:??_7type_info@@6B@	; ioMovingWnd `RTTI Type Descriptor'
	DD	00H
	DB	'.?AVioMovingWnd@@', 00H
_DATA	ENDS
;	COMDAT ??_R1A@?0A@EA@ioMovingWnd@@8
rdata$r	SEGMENT
??_R1A@?0A@EA@ioMovingWnd@@8 DD FLAT:??_R0?AVioMovingWnd@@@8 ; ioMovingWnd::`RTTI Base Class Descriptor at (0,-1,0,64)'
	DD	01H
	DD	00H
	DD	0ffffffffH
	DD	00H
	DD	040H
	DD	FLAT:??_R3ioMovingWnd@@8
rdata$r	ENDS
;	COMDAT ??_R1A@?0A@EA@TradeItemBuyWnd@@8
rdata$r	SEGMENT
??_R1A@?0A@EA@TradeItemBuyWnd@@8 DD FLAT:??_R0?AVTradeItemBuyWnd@@@8 ; TradeItemBuyWnd::`RTTI Base Class Descriptor at (0,-1,0,64)'
	DD	02H
	DD	00H
	DD	0ffffffffH
	DD	00H
	DD	040H
	DD	FLAT:??_R3TradeItemBuyWnd@@8
rdata$r	ENDS
;	COMDAT ??_R2TradeItemBuyWnd@@8
rdata$r	SEGMENT
??_R2TradeItemBuyWnd@@8 DD FLAT:??_R1A@?0A@EA@TradeItemBuyWnd@@8 ; TradeItemBuyWnd::`RTTI Base Class Array'
	DD	FLAT:??_R1A@?0A@EA@ioMovingWnd@@8
	DD	FLAT:??_R1A@?0A@EA@ioWnd@@8
rdata$r	ENDS
;	COMDAT ??_R3TradeItemBuyWnd@@8
rdata$r	SEGMENT
??_R3TradeItemBuyWnd@@8 DD 00H				; TradeItemBuyWnd::`RTTI Class Hierarchy Descriptor'
	DD	00H
	DD	03H
	DD	FLAT:??_R2TradeItemBuyWnd@@8
rdata$r	ENDS
;	COMDAT ??_R0?AVTradeItemBuyWnd@@@8
_DATA	SEGMENT
??_R0?AVTradeItemBuyWnd@@@8 DD FLAT:??_7type_info@@6B@	; TradeItemBuyWnd `RTTI Type Descriptor'
	DD	00H
	DB	'.?AVTradeItemBuyWnd@@', 00H
_DATA	ENDS
;	COMDAT ??_R4TradeItemBuyWnd@@6B@
rdata$r	SEGMENT
??_R4TradeItemBuyWnd@@6B@ DD 00H			; TradeItemBuyWnd::`RTTI Complete Object Locator'
	DD	00H
	DD	00H
	DD	FLAT:??_R0?AVTradeItemBuyWnd@@@8
	DD	FLAT:??_R3TradeItemBuyWnd@@8
rdata$r	ENDS
;	COMDAT ??_7TradeItemBuyWnd@@6B@
CONST	SEGMENT
??_7TradeItemBuyWnd@@6B@ DD FLAT:??_R4TradeItemBuyWnd@@6B@ ; TradeItemBuyWnd::`vftable'
	DD	FLAT:?AddRenderFrame@TradeItemBuyWnd@@MAEXABVioHashString@@PAVioUIRenderFrame@@@Z
	DD	FLAT:?AddRenderImage@TradeItemBuyWnd@@MAEXABVioHashString@@PAVioUIRenderImage@@@Z
	DD	FLAT:?AddTooltipHelp@ioWnd@@UAEXABVioHashString@@00@Z
	DD	FLAT:?ParseExtraInfo@ioWnd@@UAEXAAVioXMLElement@@@Z
	DD	FLAT:?AddNamedRenderImage@ioWnd@@UAEXABVioHashString@@PAVioUIRenderImage@@@Z
	DD	FLAT:?RemoveNamedRenderImage@ioWnd@@UAEXABVioHashString@@@Z
	DD	FLAT:?GetNamedRenderImage@ioWnd@@UBEPAVioUIRenderImage@@ABVioHashString@@@Z
	DD	FLAT:?SetWindowAlpha@ioWnd@@UAEXH@Z
	DD	FLAT:?SetActive@ioWnd@@UAEXXZ
	DD	FLAT:?SetInActive@ioWnd@@UAEXXZ
	DD	FLAT:?ClearElementImageList@ioWnd@@UAEXXZ
	DD	FLAT:?SetSize@ioWnd@@UAEXHH@Z
	DD	FLAT:?SetPositionToDefault@ioMovingWnd@@UAEXHH_N0@Z
	DD	FLAT:?IsNeedProcess@ioWnd@@UBE_NXZ
	DD	FLAT:?IsCanMouseReaction@ioWnd@@UBE_NXZ
	DD	FLAT:?AddChild@ioWnd@@UAEXPAV1@@Z
	DD	FLAT:?DeleteChild@ioWnd@@UAEXK@Z
	DD	FLAT:?DeleteAllChild@ioWnd@@UAEXXZ
	DD	FLAT:?OnRenderShowAndHide@ioWnd@@MAE_NXZ
	DD	FLAT:?OnRenderShowAndHideByDefault@ioWnd@@MAE_NK@Z
	DD	FLAT:?OnRenderShowAndHideByTop@ioWnd@@MAE_NK@Z
	DD	FLAT:?OnRenderShowAndHideByDown@ioWnd@@MAE_NK@Z
	DD	FLAT:?OnRender@TradeItemBuyWnd@@MAEXXZ
	DD	FLAT:?OnRenderAfterChild@ioWnd@@MAEXXZ
	DD	FLAT:?OnProcess@ioWnd@@MAEXM@Z
	DD	FLAT:?OnMouseProcess@ioMovingWnd@@MAEXABVioMouse@@@Z
	DD	FLAT:?CheckFrameReSize@ioWnd@@MAEXHHHH@Z
	DD	FLAT:?RenderImageList@ioWnd@@MAEXHHW4UIRenderType@@@Z
	DD	FLAT:?iwm_create@ioWnd@@UAEXXZ
	DD	FLAT:?iwm_destroy@ioWnd@@UAEXXZ
	DD	FLAT:?iwm_lbuttondown@ioMovingWnd@@UAEXABVioMouse@@@Z
	DD	FLAT:?iwm_lbuttonup@ioMovingWnd@@UAEXABVioMouse@@@Z
	DD	FLAT:?iwm_lbuttonDBLCLK@ioWnd@@UAEXABVioMouse@@@Z
	DD	FLAT:?iwm_rbuttondown@ioWnd@@UAEXABVioMouse@@@Z
	DD	FLAT:?iwm_rbuttonup@ioWnd@@UAEXABVioMouse@@@Z
	DD	FLAT:?iwm_command@TradeItemBuyWnd@@UAEXPAVioWnd@@HK@Z
	DD	FLAT:?iwm_mouseover@ioWnd@@UAEXABVioMouse@@@Z
	DD	FLAT:?iwm_mousemove@ioWnd@@UAEXABVioMouse@@@Z
	DD	FLAT:?iwm_mouseleave@ioWnd@@UAEXABVioMouse@@@Z
	DD	FLAT:?iwm_vscroll@ioWnd@@UAEXKH@Z
	DD	FLAT:?iwm_wheel@ioWnd@@UAEXH@Z
	DD	FLAT:?iwm_show@ioWnd@@UAEXXZ
	DD	FLAT:?iwm_hide@ioWnd@@UAEXXZ
	DD	FLAT:?iwm_esc@ioWnd@@UAE_NXZ
	DD	FLAT:?iwm_spacebar@ioWnd@@UAE_NXZ
	DD	FLAT:?iwm_gototop@ioWnd@@UAEXXZ
	DD	FLAT:?iwm_dragenter@ioWnd@@UAE?AW4IWDropEffect@@PAVioDragItem@@ABVioMouse@@@Z
	DD	FLAT:?iwm_dragover@ioWnd@@UAE?AW4IWDropEffect@@PAVioDragItem@@ABVioMouse@@@Z
	DD	FLAT:?iwm_dragleave@ioWnd@@UAEXXZ
	DD	FLAT:?iwm_dropitem@ioWnd@@UAE_NPAVioDragItem@@ABVioMouse@@PAV1@@Z
	DD	FLAT:?iwm_dropdone@ioWnd@@UAEXPAVioDragItem@@PAV1@_N@Z
	DD	FLAT:?IsEXType@ioWnd@@UBE_NXZ
	DD	FLAT:?GetWndType@ioWnd@@UBEKXZ
	DD	FLAT:?RenderWnd@ioWnd@@UAEXXZ
	DD	FLAT:?SetIDEX@ioWnd@@UAEXAAK_N@Z
	DD	FLAT:?ParseXML@ioWnd@@UAEXAAVioXMLElement@@@Z
	DD	FLAT:?GetHeaderFileName@ioWnd@@UAEPBDXZ
	DD	FLAT:?GetTemplateName@ioWnd@@UAEPBDXZ
	DD	FLAT:?GetDefClassName@ioWnd@@UBEPBDXZ
	DD	FLAT:?_Clone@ioWnd@@UAEPAV1@XZ
	DD	FLAT:?Copy@ioWnd@@UAEXPAV1@@Z
	DD	FLAT:?Save@ioWnd@@UAE_NAAVioXMLElement@@@Z
	DD	FLAT:?SetSaveData@ioWnd@@UAEXAAVioXMLElement@@@Z
	DD	FLAT:?SetPosX@ioWnd@@UAEXH@Z
	DD	FLAT:?SetPosY@ioWnd@@UAEXH@Z
	DD	FLAT:?SetWidth@ioWnd@@UAEXH@Z
	DD	FLAT:?SetHeight@ioWnd@@UAEXH@Z
	DD	FLAT:?GetNumFixedRenderFrame@ioWnd@@UBEHXZ
	DD	FLAT:?GetFixedRenderFrameType@ioWnd@@UAEPBDH@Z
	DD	FLAT:?GetRenderFrame@ioWnd@@UAEPAPAVioUIRenderElement@@PBD@Z
	DD	FLAT:?GetNumFixedRenderImage@ioWnd@@UBEHXZ
	DD	FLAT:?GetFixedRenderImageType@ioWnd@@UAEPBDH@Z
	DD	FLAT:?GetRenderImage@ioWnd@@UAEPAPAVioUIRenderElement@@PBD@Z
	DD	FLAT:?AddEffect@ioWnd@@UAEXABVioHashString@@PAVioUI3DEffectRender@@@Z
	DD	FLAT:?GetEffect@ioWnd@@UAEPAVioUI3DEffectRender@@VioHashString@@@Z
	DD	FLAT:??_ETradeItemBuyWnd@@UAEPAXI@Z
CONST	ENDS
;	COMDAT xdata$x
xdata$x	SEGMENT
__unwindtable$??1TradeItemBuyWnd@@UAE@XZ DD 0ffffffffH
	DD	FLAT:__unwindfunclet$??1TradeItemBuyWnd@@UAE@XZ$0
__ehfuncinfo$??1TradeItemBuyWnd@@UAE@XZ DD 019930522H
	DD	01H
	DD	FLAT:__unwindtable$??1TradeItemBuyWnd@@UAE@XZ
	DD	2 DUP(00H)
	DD	2 DUP(00H)
	DD	00H
	DD	01H
; Function compile flags: /Ogsp
xdata$x	ENDS
;	COMDAT ??1TradeItemBuyWnd@@UAE@XZ
_TEXT	SEGMENT
_this$ = -16						; size = 4
__$EHRec$ = -12						; size = 12
??1TradeItemBuyWnd@@UAE@XZ PROC				; TradeItemBuyWnd::~TradeItemBuyWnd, COMDAT
; _this$ = ecx

; 315  : {

  00000	6a 04		 push	 4
  00002	b8 00 00 00 00	 mov	 eax, __ehhandler$??1TradeItemBuyWnd@@UAE@XZ
  00007	e8 00 00 00 00	 call	 __EH_prolog3
  0000c	8b f1		 mov	 esi, ecx
  0000e	89 75 f0	 mov	 DWORD PTR _this$[ebp], esi
  00011	c7 06 00 00 00
	00		 mov	 DWORD PTR [esi], OFFSET ??_7TradeItemBuyWnd@@6B@
  00017	83 65 fc 00	 and	 DWORD PTR __$EHRec$[ebp+8], 0

; 316  : 
; 317  : }

  0001b	68 00 00 00 00	 push	 OFFSET ??1ioComplexStringPrinter@@QAE@XZ ; ioComplexStringPrinter::~ioComplexStringPrinter
  00020	6a 03		 push	 3
  00022	6a 20		 push	 32			; 00000020H
  00024	8d 86 d0 01 00
	00		 lea	 eax, DWORD PTR [esi+464]
  0002a	50		 push	 eax
  0002b	e8 00 00 00 00	 call	 ??_M@YGXPAXIHP6EX0@Z@Z
  00030	83 4d fc ff	 or	 DWORD PTR __$EHRec$[ebp+8], -1
  00034	8b ce		 mov	 ecx, esi
  00036	ff 15 00 00 00
	00		 call	 DWORD PTR __imp_??1ioMovingWnd@@UAE@XZ
  0003c	e8 00 00 00 00	 call	 __EH_epilog3
  00041	c3		 ret	 0
_TEXT	ENDS
;	COMDAT text$x
text$x	SEGMENT
__unwindfunclet$??1TradeItemBuyWnd@@UAE@XZ$0:
  00000	8b 4d f0	 mov	 ecx, DWORD PTR _this$[ebp]
  00003	ff 25 00 00 00
	00		 jmp	 DWORD PTR __imp_??1ioMovingWnd@@UAE@XZ
__ehhandler$??1TradeItemBuyWnd@@UAE@XZ:
  00009	8b 54 24 08	 mov	 edx, DWORD PTR [esp+8]
  0000d	8d 42 0c	 lea	 eax, DWORD PTR [edx+12]
  00010	8b 4a ec	 mov	 ecx, DWORD PTR [edx-20]
  00013	33 c8		 xor	 ecx, eax
  00015	e8 00 00 00 00	 call	 @__security_check_cookie@4
  0001a	b8 00 00 00 00	 mov	 eax, OFFSET __ehfuncinfo$??1TradeItemBuyWnd@@UAE@XZ
  0001f	e9 00 00 00 00	 jmp	 ___CxxFrameHandler3
text$x	ENDS
??1TradeItemBuyWnd@@UAE@XZ ENDP				; TradeItemBuyWnd::~TradeItemBuyWnd
PUBLIC	?ClearDesc@TradeItemBuyWnd@@IAEXXZ		; TradeItemBuyWnd::ClearDesc
; Function compile flags: /Ogsp
;	COMDAT ?ClearDesc@TradeItemBuyWnd@@IAEXXZ
_TEXT	SEGMENT
?ClearDesc@TradeItemBuyWnd@@IAEXXZ PROC			; TradeItemBuyWnd::ClearDesc, COMDAT
; _this$ = ecx

; 320  : {

  00000	56		 push	 esi
  00001	57		 push	 edi

; 321  : 	for (int i = 0; i < MAX_DESC ; i++)

  00002	6a 03		 push	 3
  00004	8d b1 d0 01 00
	00		 lea	 esi, DWORD PTR [ecx+464]
  0000a	5f		 pop	 edi
$LL3@ClearDesc@2:

; 322  : 	{
; 323  : 		m_szDescArray[i].ClearList();

  0000b	8b ce		 mov	 ecx, esi
  0000d	e8 00 00 00 00	 call	 ?ClearList@ioComplexStringPrinter@@QAEXXZ ; ioComplexStringPrinter::ClearList
  00012	83 c6 20	 add	 esi, 32			; 00000020H
  00015	4f		 dec	 edi
  00016	75 f3		 jne	 SHORT $LL3@ClearDesc@2

; 324  : 	}
; 325  : }

  00018	5f		 pop	 edi
  00019	5e		 pop	 esi
  0001a	c3		 ret	 0
?ClearDesc@TradeItemBuyWnd@@IAEXXZ ENDP			; TradeItemBuyWnd::ClearDesc
_TEXT	ENDS
EXTRN	__imp_?AddRenderFrame@ioWnd@@UAEXABVioHashString@@PAVioUIRenderFrame@@@Z:PROC
; Function compile flags: /Ogsp
;	COMDAT ?AddRenderFrame@TradeItemBuyWnd@@MAEXABVioHashString@@PAVioUIRenderFrame@@@Z
_TEXT	SEGMENT
_szType$ = 8						; size = 4
_pFrame$ = 12						; size = 4
?AddRenderFrame@TradeItemBuyWnd@@MAEXABVioHashString@@PAVioUIRenderFrame@@@Z PROC ; TradeItemBuyWnd::AddRenderFrame, COMDAT
; _this$ = ecx

; 328  : {

  00000	55		 push	 ebp
  00001	8b ec		 mov	 ebp, esp

; 330  : }

  00003	5d		 pop	 ebp

; 329  : 	ioMovingWnd::AddRenderFrame( szType, pFrame );

  00004	ff 25 00 00 00
	00		 jmp	 DWORD PTR __imp_?AddRenderFrame@ioWnd@@UAEXABVioHashString@@PAVioUIRenderFrame@@@Z
?AddRenderFrame@TradeItemBuyWnd@@MAEXABVioHashString@@PAVioUIRenderFrame@@@Z ENDP ; TradeItemBuyWnd::AddRenderFrame
_TEXT	ENDS
EXTRN	__imp_?AddRenderImage@ioWnd@@UAEXABVioHashString@@PAVioUIRenderImage@@@Z:PROC
; Function compile flags: /Ogsp
;	COMDAT ?AddRenderImage@TradeItemBuyWnd@@MAEXABVioHashString@@PAVioUIRenderImage@@@Z
_TEXT	SEGMENT
_szType$ = 8						; size = 4
_pImage$ = 12						; size = 4
?AddRenderImage@TradeItemBuyWnd@@MAEXABVioHashString@@PAVioUIRenderImage@@@Z PROC ; TradeItemBuyWnd::AddRenderImage, COMDAT
; _this$ = ecx

; 333  : {

  00000	55		 push	 ebp
  00001	8b ec		 mov	 ebp, esp

; 335  : }

  00003	5d		 pop	 ebp

; 334  : 	ioMovingWnd::AddRenderImage( szType, pImage );	

  00004	ff 25 00 00 00
	00		 jmp	 DWORD PTR __imp_?AddRenderImage@ioWnd@@UAEXABVioHashString@@PAVioUIRenderImage@@@Z
?AddRenderImage@TradeItemBuyWnd@@MAEXABVioHashString@@PAVioUIRenderImage@@@Z ENDP ; TradeItemBuyWnd::AddRenderImage
_TEXT	ENDS
PUBLIC	??2@YAPAXIPAX@Z					; operator new
; Function compile flags: /Ogsp
; File c:\program files (x86)\microsoft visual studio 10.0\vc\include\new
;	COMDAT ??2@YAPAXIPAX@Z
_TEXT	SEGMENT
___formal$ = 8						; size = 4
__Where$ = 12						; size = 4
??2@YAPAXIPAX@Z PROC					; operator new, COMDAT

; 56   : 	{	// construct array with placement at _Where

  00000	55		 push	 ebp
  00001	8b ec		 mov	 ebp, esp

; 57   : 	return (_Where);

  00003	8b 45 0c	 mov	 eax, DWORD PTR __Where$[ebp]

; 58   : 	}

  00006	5d		 pop	 ebp
  00007	c3		 ret	 0
??2@YAPAXIPAX@Z ENDP					; operator new
_TEXT	ENDS
PUBLIC	??3@YAXPAX0@Z					; operator delete
; Function compile flags: /Ogsp
;	COMDAT ??3@YAXPAX0@Z
_TEXT	SEGMENT
___formal$ = 8						; size = 4
___formal$ = 12						; size = 4
??3@YAXPAX0@Z PROC					; operator delete, COMDAT

; 62   : 	}

  00000	c3		 ret	 0
??3@YAXPAX0@Z ENDP					; operator delete
_TEXT	ENDS
PUBLIC	__$ArrayPad$
EXTRN	??1SP2Packet@@UAE@XZ:PROC			; SP2Packet::~SP2Packet
EXTRN	?MouseBusy@TCPNetwork@@YAX_N@Z:PROC		; TCPNetwork::MouseBusy
EXTRN	?SendToServer@TCPNetwork@@YAXAAVSP2Packet@@@Z:PROC ; TCPNetwork::SendToServer
EXTRN	??6SP2Packet@@QAEAAV0@K@Z:PROC			; SP2Packet::operator<<
EXTRN	??0SP2Packet@@QAE@K@Z:PROC			; SP2Packet::SP2Packet
EXTRN	__imp_?HideWnd@ioWnd@@QAEXXZ:PROC
EXTRN	___security_cookie:DWORD
EXTRN	__chkstk:PROC
;	COMDAT xdata$x
; File d:\lost saga for developer\youtube\tutorial\source\src\lsclient\gui\trademainwnd.cpp
xdata$x	SEGMENT
__unwindtable$?iwm_command@TradeItemBuyWnd@@UAEXPAVioWnd@@HK@Z DD 0ffffffffH
	DD	FLAT:__unwindfunclet$?iwm_command@TradeItemBuyWnd@@UAEXPAVioWnd@@HK@Z$0
__ehfuncinfo$?iwm_command@TradeItemBuyWnd@@UAEXPAVioWnd@@HK@Z DD 019930522H
	DD	01H
	DD	FLAT:__unwindtable$?iwm_command@TradeItemBuyWnd@@UAEXPAVioWnd@@HK@Z
	DD	2 DUP(00H)
	DD	2 DUP(00H)
	DD	00H
	DD	01H
; Function compile flags: /Ogsp
xdata$x	ENDS
;	COMDAT ?iwm_command@TradeItemBuyWnd@@UAEXPAVioWnd@@HK@Z
_TEXT	SEGMENT
_kPacket$518080 = -32808				; size = 32792
__$ArrayPad$ = -16					; size = 4
__$EHRec$ = -12						; size = 12
_pWnd$ = 8						; size = 4
_cmd$ = 12						; size = 4
_param$ = 16						; size = 4
?iwm_command@TradeItemBuyWnd@@UAEXPAVioWnd@@HK@Z PROC	; TradeItemBuyWnd::iwm_command, COMDAT
; _this$ = ecx

; 417  : {

  00000	55		 push	 ebp
  00001	8b ec		 mov	 ebp, esp
  00003	6a ff		 push	 -1
  00005	68 00 00 00 00	 push	 __ehhandler$?iwm_command@TradeItemBuyWnd@@UAEXPAVioWnd@@HK@Z
  0000a	64 a1 00 00 00
	00		 mov	 eax, DWORD PTR fs:0
  00010	50		 push	 eax
  00011	b8 1c 80 00 00	 mov	 eax, 32796		; 0000801cH
  00016	e8 00 00 00 00	 call	 __chkstk
  0001b	a1 00 00 00 00	 mov	 eax, DWORD PTR ___security_cookie
  00020	33 c5		 xor	 eax, ebp
  00022	89 45 f0	 mov	 DWORD PTR __$ArrayPad$[ebp], eax
  00025	56		 push	 esi
  00026	50		 push	 eax
  00027	8d 45 f4	 lea	 eax, DWORD PTR __$EHRec$[ebp]
  0002a	64 a3 00 00 00
	00		 mov	 DWORD PTR fs:0, eax
  00030	8b f1		 mov	 esi, ecx
  00032	8b 4d 08	 mov	 ecx, DWORD PTR _pWnd$[ebp]

; 418  : 	DWORD dwID = pWnd->GetID();

  00035	ff 15 00 00 00
	00		 call	 DWORD PTR __imp_?GetID@ioWnd@@QBEKXZ

; 419  : 	switch( dwID )

  0003b	83 f8 02	 cmp	 eax, 2
  0003e	74 18		 je	 SHORT $LN4@iwm_comman@2
  00040	83 c0 fd	 add	 eax, -3			; fffffffdH
  00043	83 f8 01	 cmp	 eax, 1
  00046	77 67		 ja	 SHORT $LN3@iwm_comman@2

; 431  : 		break;
; 432  : 	case ID_EXIT_BTN:
; 433  : 	case ID_CANCEL_BTN:
; 434  : 		if( cmd == IOBN_BTNUP )

  00048	83 7d 0c 11	 cmp	 DWORD PTR _cmd$[ebp], 17 ; 00000011H
  0004c	75 61		 jne	 SHORT $LN3@iwm_comman@2

; 435  : 		{
; 436  : 			HideWnd();

  0004e	8b ce		 mov	 ecx, esi
  00050	ff 15 00 00 00
	00		 call	 DWORD PTR __imp_?HideWnd@ioWnd@@QAEXXZ

; 437  : 		}
; 438  : 		break;

  00056	eb 57		 jmp	 SHORT $LN3@iwm_comman@2
$LN4@iwm_comman@2:

; 420  : 	{
; 421  : 	case ID_BUY_BTN:
; 422  : 		if( cmd == IOBN_BTNUP )

  00058	83 7d 0c 11	 cmp	 DWORD PTR _cmd$[ebp], 17 ; 00000011H
  0005c	75 51		 jne	 SHORT $LN3@iwm_comman@2

; 423  : 		{
; 424  : 			SP2Packet kPacket( CTPK_TRADE_ITEM );

  0005e	68 14 02 00 00	 push	 532			; 00000214H
  00063	8d 8d d8 7f ff
	ff		 lea	 ecx, DWORD PTR _kPacket$518080[ebp]
  00069	e8 00 00 00 00	 call	 ??0SP2Packet@@QAE@K@Z	; SP2Packet::SP2Packet

; 425  : 			kPacket << m_ItemInfo.m_dwTradeIndex;

  0006e	ff b6 94 01 00
	00		 push	 DWORD PTR [esi+404]
  00074	83 65 fc 00	 and	 DWORD PTR __$EHRec$[ebp+8], 0
  00078	8d 8d d8 7f ff
	ff		 lea	 ecx, DWORD PTR _kPacket$518080[ebp]
  0007e	e8 00 00 00 00	 call	 ??6SP2Packet@@QAEAAV0@K@Z ; SP2Packet::operator<<

; 426  : 			TCPNetwork::SendToServer( kPacket );

  00083	8d 85 d8 7f ff
	ff		 lea	 eax, DWORD PTR _kPacket$518080[ebp]
  00089	50		 push	 eax
  0008a	e8 00 00 00 00	 call	 ?SendToServer@TCPNetwork@@YAXAAVSP2Packet@@@Z ; TCPNetwork::SendToServer

; 427  : 			TCPNetwork::MouseBusy( true );

  0008f	6a 01		 push	 1
  00091	e8 00 00 00 00	 call	 ?MouseBusy@TCPNetwork@@YAX_N@Z ; TCPNetwork::MouseBusy
  00096	59		 pop	 ecx
  00097	59		 pop	 ecx

; 428  : 
; 429  : 			HideWnd();

  00098	8b ce		 mov	 ecx, esi
  0009a	ff 15 00 00 00
	00		 call	 DWORD PTR __imp_?HideWnd@ioWnd@@QAEXXZ

; 430  : 		}

  000a0	83 4d fc ff	 or	 DWORD PTR __$EHRec$[ebp+8], -1
  000a4	8d 8d d8 7f ff
	ff		 lea	 ecx, DWORD PTR _kPacket$518080[ebp]
  000aa	e8 00 00 00 00	 call	 ??1SP2Packet@@UAE@XZ	; SP2Packet::~SP2Packet
$LN3@iwm_comman@2:

; 439  : 	}
; 440  : }

  000af	8b 4d f4	 mov	 ecx, DWORD PTR __$EHRec$[ebp]
  000b2	64 89 0d 00 00
	00 00		 mov	 DWORD PTR fs:0, ecx
  000b9	59		 pop	 ecx
  000ba	5e		 pop	 esi
  000bb	8b 4d f0	 mov	 ecx, DWORD PTR __$ArrayPad$[ebp]
  000be	33 cd		 xor	 ecx, ebp
  000c0	e8 00 00 00 00	 call	 @__security_check_cookie@4
  000c5	c9		 leave
  000c6	c2 0c 00	 ret	 12			; 0000000cH
_TEXT	ENDS
;	COMDAT text$x
text$x	SEGMENT
__unwindfunclet$?iwm_command@TradeItemBuyWnd@@UAEXPAVioWnd@@HK@Z$0:
  00000	8d 8d d8 7f ff
	ff		 lea	 ecx, DWORD PTR _kPacket$518080[ebp]
  00006	e9 00 00 00 00	 jmp	 ??1SP2Packet@@UAE@XZ	; SP2Packet::~SP2Packet
__ehhandler$?iwm_command@TradeItemBuyWnd@@UAEXPAVioWnd@@HK@Z:
  0000b	8b 54 24 08	 mov	 edx, DWORD PTR [esp+8]
  0000f	8d 42 0c	 lea	 eax, DWORD PTR [edx+12]
  00012	8b 8a dc 7f ff
	ff		 mov	 ecx, DWORD PTR [edx-32804]
  00018	33 c8		 xor	 ecx, eax
  0001a	e8 00 00 00 00	 call	 @__security_check_cookie@4
  0001f	8b 4a fc	 mov	 ecx, DWORD PTR [edx-4]
  00022	33 c8		 xor	 ecx, eax
  00024	e8 00 00 00 00	 call	 @__security_check_cookie@4
  00029	b8 00 00 00 00	 mov	 eax, OFFSET __ehfuncinfo$?iwm_command@TradeItemBuyWnd@@UAEXPAVioWnd@@HK@Z
  0002e	e9 00 00 00 00	 jmp	 ___CxxFrameHandler3
text$x	ENDS
?iwm_command@TradeItemBuyWnd@@UAEXPAVioWnd@@HK@Z ENDP	; TradeItemBuyWnd::iwm_command
PUBLIC	?length@?$char_traits@D@std@@SAIPBD@Z		; std::char_traits<char>::length
; Function compile flags: /Ogsp
; File c:\program files (x86)\microsoft visual studio 10.0\vc\include\iosfwd
;	COMDAT ?length@?$char_traits@D@std@@SAIPBD@Z
_TEXT	SEGMENT
__First$ = 8						; size = 4
?length@?$char_traits@D@std@@SAIPBD@Z PROC		; std::char_traits<char>::length, COMDAT

; 490  : 		{	// find length of null-terminated string

  00000	55		 push	 ebp
  00001	8b ec		 mov	 ebp, esp

; 491  : 		return (_CSTD strlen(_First));

  00003	8b 45 08	 mov	 eax, DWORD PTR __First$[ebp]
  00006	8d 50 01	 lea	 edx, DWORD PTR [eax+1]
$LL3@length:
  00009	8a 08		 mov	 cl, BYTE PTR [eax]
  0000b	40		 inc	 eax
  0000c	84 c9		 test	 cl, cl
  0000e	75 f9		 jne	 SHORT $LL3@length
  00010	2b c2		 sub	 eax, edx

; 492  : 		}

  00012	5d		 pop	 ebp
  00013	c3		 ret	 0
?length@?$char_traits@D@std@@SAIPBD@Z ENDP		; std::char_traits<char>::length
_TEXT	ENDS
PUBLIC	?copy@?$char_traits@D@std@@SAPADPADPBDI@Z	; std::char_traits<char>::copy
EXTRN	_memcpy:PROC
; Function compile flags: /Ogsp
;	COMDAT ?copy@?$char_traits@D@std@@SAPADPADPBDI@Z
_TEXT	SEGMENT
__First1$ = 8						; size = 4
__First2$ = 12						; size = 4
__Count$ = 16						; size = 4
?copy@?$char_traits@D@std@@SAPADPADPBDI@Z PROC		; std::char_traits<char>::copy, COMDAT

; 496  : 		{	// copy [_First1, _First1 + _Count) to [_First2, ...)

  00000	55		 push	 ebp
  00001	8b ec		 mov	 ebp, esp

; 498  : 		}

  00003	5d		 pop	 ebp

; 497  : 		return ((_Elem *)_CSTD memcpy(_First1, _First2, _Count));

  00004	e9 00 00 00 00	 jmp	 _memcpy
?copy@?$char_traits@D@std@@SAPADPADPBDI@Z ENDP		; std::char_traits<char>::copy
_TEXT	ENDS
PUBLIC	?move@?$char_traits@D@std@@SAPADPADPBDI@Z	; std::char_traits<char>::move
EXTRN	__imp__memmove:PROC
; Function compile flags: /Ogsp
;	COMDAT ?move@?$char_traits@D@std@@SAPADPADPBDI@Z
_TEXT	SEGMENT
__First1$ = 8						; size = 4
__First2$ = 12						; size = 4
__Count$ = 16						; size = 4
?move@?$char_traits@D@std@@SAPADPADPBDI@Z PROC		; std::char_traits<char>::move, COMDAT

; 516  : 		{	// copy [_First1, _First1 + _Count) to [_First2, ...)

  00000	55		 push	 ebp
  00001	8b ec		 mov	 ebp, esp

; 518  : 		}

  00003	5d		 pop	 ebp

; 517  : 		return ((_Elem *)_CSTD memmove(_First1, _First2, _Count));

  00004	ff 25 00 00 00
	00		 jmp	 DWORD PTR __imp__memmove
?move@?$char_traits@D@std@@SAPADPADPBDI@Z ENDP		; std::char_traits<char>::move
_TEXT	ENDS
PUBLIC	?assign@?$char_traits@D@std@@SAXAADABD@Z	; std::char_traits<char>::assign
; Function compile flags: /Ogsp
;	COMDAT ?assign@?$char_traits@D@std@@SAXAADABD@Z
_TEXT	SEGMENT
__Left$ = 8						; size = 4
__Right$ = 12						; size = 4
?assign@?$char_traits@D@std@@SAXAADABD@Z PROC		; std::char_traits<char>::assign, COMDAT

; 526  : 		{	// assign an element

  00000	55		 push	 ebp
  00001	8b ec		 mov	 ebp, esp

; 527  : 		_Left = _Right;

  00003	8b 45 0c	 mov	 eax, DWORD PTR __Right$[ebp]
  00006	8a 00		 mov	 al, BYTE PTR [eax]
  00008	8b 4d 08	 mov	 ecx, DWORD PTR __Left$[ebp]
  0000b	88 01		 mov	 BYTE PTR [ecx], al

; 528  : 		}

  0000d	5d		 pop	 ebp
  0000e	c3		 ret	 0
?assign@?$char_traits@D@std@@SAXAADABD@Z ENDP		; std::char_traits<char>::assign
_TEXT	ENDS
PUBLIC	??_7TradeItemBuyResultWnd@@6B@			; TradeItemBuyResultWnd::`vftable'
PUBLIC	??0TradeItemBuyResultWnd@@QAE@XZ		; TradeItemBuyResultWnd::TradeItemBuyResultWnd
PUBLIC	??_R4TradeItemBuyResultWnd@@6B@			; TradeItemBuyResultWnd::`RTTI Complete Object Locator'
PUBLIC	??_R0?AVTradeItemBuyResultWnd@@@8		; TradeItemBuyResultWnd `RTTI Type Descriptor'
PUBLIC	??_R3TradeItemBuyResultWnd@@8			; TradeItemBuyResultWnd::`RTTI Class Hierarchy Descriptor'
PUBLIC	??_R2TradeItemBuyResultWnd@@8			; TradeItemBuyResultWnd::`RTTI Base Class Array'
PUBLIC	??_R1A@?0A@EA@TradeItemBuyResultWnd@@8		; TradeItemBuyResultWnd::`RTTI Base Class Descriptor at (0,-1,0,64)'
PUBLIC	?AddRenderImage@TradeItemBuyResultWnd@@MAEXABVioHashString@@PAVioUIRenderImage@@@Z ; TradeItemBuyResultWnd::AddRenderImage
PUBLIC	?OnRender@TradeItemBuyResultWnd@@MAEXXZ		; TradeItemBuyResultWnd::OnRender
PUBLIC	?iwm_command@TradeItemBuyResultWnd@@UAEXPAVioWnd@@HK@Z ; TradeItemBuyResultWnd::iwm_command
EXTRN	__imp_??0ioHashString@@QAE@XZ:PROC
EXTRN	__imp_??0ioMovingWnd@@QAE@XZ:PROC
EXTRN	?AddRenderFrame@ioWnd@@UAEXABVioHashString@@PAVioUIRenderFrame@@@Z:PROC ; ioWnd::AddRenderFrame
EXTRN	??_ETradeItemBuyResultWnd@@UAEPAXI@Z:PROC	; TradeItemBuyResultWnd::`vector deleting destructor'
;	COMDAT ??_R1A@?0A@EA@TradeItemBuyResultWnd@@8
; File d:\lost saga for developer\youtube\tutorial\source\src\lsclient\gui\trademainwnd.cpp
rdata$r	SEGMENT
??_R1A@?0A@EA@TradeItemBuyResultWnd@@8 DD FLAT:??_R0?AVTradeItemBuyResultWnd@@@8 ; TradeItemBuyResultWnd::`RTTI Base Class Descriptor at (0,-1,0,64)'
	DD	02H
	DD	00H
	DD	0ffffffffH
	DD	00H
	DD	040H
	DD	FLAT:??_R3TradeItemBuyResultWnd@@8
rdata$r	ENDS
;	COMDAT ??_R2TradeItemBuyResultWnd@@8
rdata$r	SEGMENT
??_R2TradeItemBuyResultWnd@@8 DD FLAT:??_R1A@?0A@EA@TradeItemBuyResultWnd@@8 ; TradeItemBuyResultWnd::`RTTI Base Class Array'
	DD	FLAT:??_R1A@?0A@EA@ioMovingWnd@@8
	DD	FLAT:??_R1A@?0A@EA@ioWnd@@8
rdata$r	ENDS
;	COMDAT ??_R3TradeItemBuyResultWnd@@8
rdata$r	SEGMENT
??_R3TradeItemBuyResultWnd@@8 DD 00H			; TradeItemBuyResultWnd::`RTTI Class Hierarchy Descriptor'
	DD	00H
	DD	03H
	DD	FLAT:??_R2TradeItemBuyResultWnd@@8
rdata$r	ENDS
;	COMDAT ??_R0?AVTradeItemBuyResultWnd@@@8
_DATA	SEGMENT
??_R0?AVTradeItemBuyResultWnd@@@8 DD FLAT:??_7type_info@@6B@ ; TradeItemBuyResultWnd `RTTI Type Descriptor'
	DD	00H
	DB	'.?AVTradeItemBuyResultWnd@@', 00H
_DATA	ENDS
;	COMDAT ??_R4TradeItemBuyResultWnd@@6B@
rdata$r	SEGMENT
??_R4TradeItemBuyResultWnd@@6B@ DD 00H			; TradeItemBuyResultWnd::`RTTI Complete Object Locator'
	DD	00H
	DD	00H
	DD	FLAT:??_R0?AVTradeItemBuyResultWnd@@@8
	DD	FLAT:??_R3TradeItemBuyResultWnd@@8
rdata$r	ENDS
;	COMDAT ??_7TradeItemBuyResultWnd@@6B@
CONST	SEGMENT
??_7TradeItemBuyResultWnd@@6B@ DD FLAT:??_R4TradeItemBuyResultWnd@@6B@ ; TradeItemBuyResultWnd::`vftable'
	DD	FLAT:?AddRenderFrame@ioWnd@@UAEXABVioHashString@@PAVioUIRenderFrame@@@Z
	DD	FLAT:?AddRenderImage@TradeItemBuyResultWnd@@MAEXABVioHashString@@PAVioUIRenderImage@@@Z
	DD	FLAT:?AddTooltipHelp@ioWnd@@UAEXABVioHashString@@00@Z
	DD	FLAT:?ParseExtraInfo@ioWnd@@UAEXAAVioXMLElement@@@Z
	DD	FLAT:?AddNamedRenderImage@ioWnd@@UAEXABVioHashString@@PAVioUIRenderImage@@@Z
	DD	FLAT:?RemoveNamedRenderImage@ioWnd@@UAEXABVioHashString@@@Z
	DD	FLAT:?GetNamedRenderImage@ioWnd@@UBEPAVioUIRenderImage@@ABVioHashString@@@Z
	DD	FLAT:?SetWindowAlpha@ioWnd@@UAEXH@Z
	DD	FLAT:?SetActive@ioWnd@@UAEXXZ
	DD	FLAT:?SetInActive@ioWnd@@UAEXXZ
	DD	FLAT:?ClearElementImageList@ioWnd@@UAEXXZ
	DD	FLAT:?SetSize@ioWnd@@UAEXHH@Z
	DD	FLAT:?SetPositionToDefault@ioMovingWnd@@UAEXHH_N0@Z
	DD	FLAT:?IsNeedProcess@ioWnd@@UBE_NXZ
	DD	FLAT:?IsCanMouseReaction@ioWnd@@UBE_NXZ
	DD	FLAT:?AddChild@ioWnd@@UAEXPAV1@@Z
	DD	FLAT:?DeleteChild@ioWnd@@UAEXK@Z
	DD	FLAT:?DeleteAllChild@ioWnd@@UAEXXZ
	DD	FLAT:?OnRenderShowAndHide@ioWnd@@MAE_NXZ
	DD	FLAT:?OnRenderShowAndHideByDefault@ioWnd@@MAE_NK@Z
	DD	FLAT:?OnRenderShowAndHideByTop@ioWnd@@MAE_NK@Z
	DD	FLAT:?OnRenderShowAndHideByDown@ioWnd@@MAE_NK@Z
	DD	FLAT:?OnRender@TradeItemBuyResultWnd@@MAEXXZ
	DD	FLAT:?OnRenderAfterChild@ioWnd@@MAEXXZ
	DD	FLAT:?OnProcess@ioWnd@@MAEXM@Z
	DD	FLAT:?OnMouseProcess@ioMovingWnd@@MAEXABVioMouse@@@Z
	DD	FLAT:?CheckFrameReSize@ioWnd@@MAEXHHHH@Z
	DD	FLAT:?RenderImageList@ioWnd@@MAEXHHW4UIRenderType@@@Z
	DD	FLAT:?iwm_create@ioWnd@@UAEXXZ
	DD	FLAT:?iwm_destroy@ioWnd@@UAEXXZ
	DD	FLAT:?iwm_lbuttondown@ioMovingWnd@@UAEXABVioMouse@@@Z
	DD	FLAT:?iwm_lbuttonup@ioMovingWnd@@UAEXABVioMouse@@@Z
	DD	FLAT:?iwm_lbuttonDBLCLK@ioWnd@@UAEXABVioMouse@@@Z
	DD	FLAT:?iwm_rbuttondown@ioWnd@@UAEXABVioMouse@@@Z
	DD	FLAT:?iwm_rbuttonup@ioWnd@@UAEXABVioMouse@@@Z
	DD	FLAT:?iwm_command@TradeItemBuyResultWnd@@UAEXPAVioWnd@@HK@Z
	DD	FLAT:?iwm_mouseover@ioWnd@@UAEXABVioMouse@@@Z
	DD	FLAT:?iwm_mousemove@ioWnd@@UAEXABVioMouse@@@Z
	DD	FLAT:?iwm_mouseleave@ioWnd@@UAEXABVioMouse@@@Z
	DD	FLAT:?iwm_vscroll@ioWnd@@UAEXKH@Z
	DD	FLAT:?iwm_wheel@ioWnd@@UAEXH@Z
	DD	FLAT:?iwm_show@ioWnd@@UAEXXZ
	DD	FLAT:?iwm_hide@ioWnd@@UAEXXZ
	DD	FLAT:?iwm_esc@ioWnd@@UAE_NXZ
	DD	FLAT:?iwm_spacebar@ioWnd@@UAE_NXZ
	DD	FLAT:?iwm_gototop@ioWnd@@UAEXXZ
	DD	FLAT:?iwm_dragenter@ioWnd@@UAE?AW4IWDropEffect@@PAVioDragItem@@ABVioMouse@@@Z
	DD	FLAT:?iwm_dragover@ioWnd@@UAE?AW4IWDropEffect@@PAVioDragItem@@ABVioMouse@@@Z
	DD	FLAT:?iwm_dragleave@ioWnd@@UAEXXZ
	DD	FLAT:?iwm_dropitem@ioWnd@@UAE_NPAVioDragItem@@ABVioMouse@@PAV1@@Z
	DD	FLAT:?iwm_dropdone@ioWnd@@UAEXPAVioDragItem@@PAV1@_N@Z
	DD	FLAT:?IsEXType@ioWnd@@UBE_NXZ
	DD	FLAT:?GetWndType@ioWnd@@UBEKXZ
	DD	FLAT:?RenderWnd@ioWnd@@UAEXXZ
	DD	FLAT:?SetIDEX@ioWnd@@UAEXAAK_N@Z
	DD	FLAT:?ParseXML@ioWnd@@UAEXAAVioXMLElement@@@Z
	DD	FLAT:?GetHeaderFileName@ioWnd@@UAEPBDXZ
	DD	FLAT:?GetTemplateName@ioWnd@@UAEPBDXZ
	DD	FLAT:?GetDefClassName@ioWnd@@UBEPBDXZ
	DD	FLAT:?_Clone@ioWnd@@UAEPAV1@XZ
	DD	FLAT:?Copy@ioWnd@@UAEXPAV1@@Z
	DD	FLAT:?Save@ioWnd@@UAE_NAAVioXMLElement@@@Z
	DD	FLAT:?SetSaveData@ioWnd@@UAEXAAVioXMLElement@@@Z
	DD	FLAT:?SetPosX@ioWnd@@UAEXH@Z
	DD	FLAT:?SetPosY@ioWnd@@UAEXH@Z
	DD	FLAT:?SetWidth@ioWnd@@UAEXH@Z
	DD	FLAT:?SetHeight@ioWnd@@UAEXH@Z
	DD	FLAT:?GetNumFixedRenderFrame@ioWnd@@UBEHXZ
	DD	FLAT:?GetFixedRenderFrameType@ioWnd@@UAEPBDH@Z
	DD	FLAT:?GetRenderFrame@ioWnd@@UAEPAPAVioUIRenderElement@@PBD@Z
	DD	FLAT:?GetNumFixedRenderImage@ioWnd@@UBEHXZ
	DD	FLAT:?GetFixedRenderImageType@ioWnd@@UAEPBDH@Z
	DD	FLAT:?GetRenderImage@ioWnd@@UAEPAPAVioUIRenderElement@@PBD@Z
	DD	FLAT:?AddEffect@ioWnd@@UAEXABVioHashString@@PAVioUI3DEffectRender@@@Z
	DD	FLAT:?GetEffect@ioWnd@@UAEPAVioUI3DEffectRender@@VioHashString@@@Z
	DD	FLAT:??_ETradeItemBuyResultWnd@@UAEPAXI@Z
CONST	ENDS
;	COMDAT xdata$x
xdata$x	SEGMENT
__unwindtable$??0TradeItemBuyResultWnd@@QAE@XZ DD 0ffffffffH
	DD	FLAT:__unwindfunclet$??0TradeItemBuyResultWnd@@QAE@XZ$0
__ehfuncinfo$??0TradeItemBuyResultWnd@@QAE@XZ DD 019930522H
	DD	01H
	DD	FLAT:__unwindtable$??0TradeItemBuyResultWnd@@QAE@XZ
	DD	2 DUP(00H)
	DD	2 DUP(00H)
	DD	00H
	DD	01H
; Function compile flags: /Ogsp
xdata$x	ENDS
;	COMDAT ??0TradeItemBuyResultWnd@@QAE@XZ
_TEXT	SEGMENT
_this$ = -16						; size = 4
__$EHRec$ = -12						; size = 12
??0TradeItemBuyResultWnd@@QAE@XZ PROC			; TradeItemBuyResultWnd::TradeItemBuyResultWnd, COMDAT
; _this$ = ecx

; 574  : {

  00000	6a 04		 push	 4
  00002	b8 00 00 00 00	 mov	 eax, __ehhandler$??0TradeItemBuyResultWnd@@QAE@XZ
  00007	e8 00 00 00 00	 call	 __EH_prolog3
  0000c	8b f1		 mov	 esi, ecx
  0000e	89 75 f0	 mov	 DWORD PTR _this$[ebp], esi
  00011	ff 15 00 00 00
	00		 call	 DWORD PTR __imp_??0ioMovingWnd@@QAE@XZ
  00017	83 65 fc 00	 and	 DWORD PTR __$EHRec$[ebp+8], 0
  0001b	8d 8e 90 01 00
	00		 lea	 ecx, DWORD PTR [esi+400]
  00021	c7 06 00 00 00
	00		 mov	 DWORD PTR [esi], OFFSET ??_7TradeItemBuyResultWnd@@6B@
  00027	ff 15 00 00 00
	00		 call	 DWORD PTR __imp_??0ioHashString@@QAE@XZ

; 575  : 
; 576  : }

  0002d	8b c6		 mov	 eax, esi
  0002f	e8 00 00 00 00	 call	 __EH_epilog3
  00034	c3		 ret	 0
_TEXT	ENDS
;	COMDAT text$x
text$x	SEGMENT
__unwindfunclet$??0TradeItemBuyResultWnd@@QAE@XZ$0:
  00000	8b 4d f0	 mov	 ecx, DWORD PTR _this$[ebp]
  00003	ff 25 00 00 00
	00		 jmp	 DWORD PTR __imp_??1ioMovingWnd@@UAE@XZ
__ehhandler$??0TradeItemBuyResultWnd@@QAE@XZ:
  00009	8b 54 24 08	 mov	 edx, DWORD PTR [esp+8]
  0000d	8d 42 0c	 lea	 eax, DWORD PTR [edx+12]
  00010	8b 4a ec	 mov	 ecx, DWORD PTR [edx-20]
  00013	33 c8		 xor	 ecx, eax
  00015	e8 00 00 00 00	 call	 @__security_check_cookie@4
  0001a	b8 00 00 00 00	 mov	 eax, OFFSET __ehfuncinfo$??0TradeItemBuyResultWnd@@QAE@XZ
  0001f	e9 00 00 00 00	 jmp	 ___CxxFrameHandler3
text$x	ENDS
??0TradeItemBuyResultWnd@@QAE@XZ ENDP			; TradeItemBuyResultWnd::TradeItemBuyResultWnd
PUBLIC	??1TradeItemBuyResultWnd@@UAE@XZ		; TradeItemBuyResultWnd::~TradeItemBuyResultWnd
EXTRN	__imp_??1ioHashString@@QAE@XZ:PROC
;	COMDAT xdata$x
xdata$x	SEGMENT
__unwindtable$??1TradeItemBuyResultWnd@@UAE@XZ DD 0ffffffffH
	DD	FLAT:__unwindfunclet$??1TradeItemBuyResultWnd@@UAE@XZ$0
__ehfuncinfo$??1TradeItemBuyResultWnd@@UAE@XZ DD 019930522H
	DD	01H
	DD	FLAT:__unwindtable$??1TradeItemBuyResultWnd@@UAE@XZ
	DD	2 DUP(00H)
	DD	2 DUP(00H)
	DD	00H
	DD	01H
; Function compile flags: /Ogsp
xdata$x	ENDS
;	COMDAT ??1TradeItemBuyResultWnd@@UAE@XZ
_TEXT	SEGMENT
_this$ = -16						; size = 4
__$EHRec$ = -12						; size = 12
??1TradeItemBuyResultWnd@@UAE@XZ PROC			; TradeItemBuyResultWnd::~TradeItemBuyResultWnd, COMDAT
; _this$ = ecx

; 579  : {

  00000	6a 04		 push	 4
  00002	b8 00 00 00 00	 mov	 eax, __ehhandler$??1TradeItemBuyResultWnd@@UAE@XZ
  00007	e8 00 00 00 00	 call	 __EH_prolog3
  0000c	8b f1		 mov	 esi, ecx
  0000e	89 75 f0	 mov	 DWORD PTR _this$[ebp], esi
  00011	c7 06 00 00 00
	00		 mov	 DWORD PTR [esi], OFFSET ??_7TradeItemBuyResultWnd@@6B@
  00017	83 65 fc 00	 and	 DWORD PTR __$EHRec$[ebp+8], 0

; 580  : }

  0001b	8d 8e 90 01 00
	00		 lea	 ecx, DWORD PTR [esi+400]
  00021	ff 15 00 00 00
	00		 call	 DWORD PTR __imp_??1ioHashString@@QAE@XZ
  00027	83 4d fc ff	 or	 DWORD PTR __$EHRec$[ebp+8], -1
  0002b	8b ce		 mov	 ecx, esi
  0002d	ff 15 00 00 00
	00		 call	 DWORD PTR __imp_??1ioMovingWnd@@UAE@XZ
  00033	e8 00 00 00 00	 call	 __EH_epilog3
  00038	c3		 ret	 0
_TEXT	ENDS
;	COMDAT text$x
text$x	SEGMENT
__unwindfunclet$??1TradeItemBuyResultWnd@@UAE@XZ$0:
  00000	8b 4d f0	 mov	 ecx, DWORD PTR _this$[ebp]
  00003	ff 25 00 00 00
	00		 jmp	 DWORD PTR __imp_??1ioMovingWnd@@UAE@XZ
__ehhandler$??1TradeItemBuyResultWnd@@UAE@XZ:
  00009	8b 54 24 08	 mov	 edx, DWORD PTR [esp+8]
  0000d	8d 42 0c	 lea	 eax, DWORD PTR [edx+12]
  00010	8b 4a ec	 mov	 ecx, DWORD PTR [edx-20]
  00013	33 c8		 xor	 ecx, eax
  00015	e8 00 00 00 00	 call	 @__security_check_cookie@4
  0001a	b8 00 00 00 00	 mov	 eax, OFFSET __ehfuncinfo$??1TradeItemBuyResultWnd@@UAE@XZ
  0001f	e9 00 00 00 00	 jmp	 ___CxxFrameHandler3
text$x	ENDS
??1TradeItemBuyResultWnd@@UAE@XZ ENDP			; TradeItemBuyResultWnd::~TradeItemBuyResultWnd
; Function compile flags: /Ogsp
;	COMDAT ?AddRenderImage@TradeItemBuyResultWnd@@MAEXABVioHashString@@PAVioUIRenderImage@@@Z
_TEXT	SEGMENT
_szType$ = 8						; size = 4
_pImage$ = 12						; size = 4
?AddRenderImage@TradeItemBuyResultWnd@@MAEXABVioHashString@@PAVioUIRenderImage@@@Z PROC ; TradeItemBuyResultWnd::AddRenderImage, COMDAT
; _this$ = ecx

; 583  : {

  00000	55		 push	 ebp
  00001	8b ec		 mov	 ebp, esp

; 585  : }

  00003	5d		 pop	 ebp

; 584  : 	ioMovingWnd::AddRenderImage( szType, pImage );

  00004	ff 25 00 00 00
	00		 jmp	 DWORD PTR __imp_?AddRenderImage@ioWnd@@UAEXABVioHashString@@PAVioUIRenderImage@@@Z
?AddRenderImage@TradeItemBuyResultWnd@@MAEXABVioHashString@@PAVioUIRenderImage@@@Z ENDP ; TradeItemBuyResultWnd::AddRenderImage
_TEXT	ENDS
PUBLIC	??_R0?AVMyInventoryWnd@@@8			; MyInventoryWnd `RTTI Type Descriptor'
EXTRN	?ShowPresentTabDirect@MyInventoryWnd@@QAEXXZ:PROC ; MyInventoryWnd::ShowPresentTabDirect
;	COMDAT ??_R0?AVMyInventoryWnd@@@8
_DATA	SEGMENT
??_R0?AVMyInventoryWnd@@@8 DD FLAT:??_7type_info@@6B@	; MyInventoryWnd `RTTI Type Descriptor'
	DD	00H
	DB	'.?AVMyInventoryWnd@@', 00H
; Function compile flags: /Ogsp
_DATA	ENDS
;	COMDAT ?iwm_command@TradeItemBuyResultWnd@@UAEXPAVioWnd@@HK@Z
_TEXT	SEGMENT
_pWnd$ = 8						; size = 4
_cmd$ = 12						; size = 4
_param$ = 16						; size = 4
?iwm_command@TradeItemBuyResultWnd@@UAEXPAVioWnd@@HK@Z PROC ; TradeItemBuyResultWnd::iwm_command, COMDAT
; _this$ = ecx

; 617  : {

  00000	55		 push	 ebp
  00001	8b ec		 mov	 ebp, esp
  00003	56		 push	 esi
  00004	8b f1		 mov	 esi, ecx

; 618  : 	DWORD dwID = pWnd->GetID();

  00006	8b 4d 08	 mov	 ecx, DWORD PTR _pWnd$[ebp]
  00009	ff 15 00 00 00
	00		 call	 DWORD PTR __imp_?GetID@ioWnd@@QBEKXZ

; 619  : 	switch( dwID )

  0000f	83 f8 02	 cmp	 eax, 2
  00012	74 18		 je	 SHORT $LN5@iwm_comman@3
  00014	83 c0 fd	 add	 eax, -3			; fffffffdH
  00017	83 f8 01	 cmp	 eax, 1
  0001a	77 52		 ja	 SHORT $LN3@iwm_comman@3

; 629  : 		}
; 630  : 		break;
; 631  : 	case ID_OK_BTN:
; 632  : 	case ID_EXIT_BTN:
; 633  : 		if( cmd == IOBN_BTNUP )

  0001c	83 7d 0c 11	 cmp	 DWORD PTR _cmd$[ebp], 17 ; 00000011H
  00020	75 4c		 jne	 SHORT $LN3@iwm_comman@3

; 634  : 		{
; 635  : 			HideWnd();

  00022	8b ce		 mov	 ecx, esi
  00024	ff 15 00 00 00
	00		 call	 DWORD PTR __imp_?HideWnd@ioWnd@@QAEXXZ

; 636  : 		}
; 637  : 		break;

  0002a	eb 42		 jmp	 SHORT $LN3@iwm_comman@3
$LN5@iwm_comman@3:

; 620  : 	{
; 621  : 	case ID_ITEM_GO_BTN:
; 622  : 		if( cmd == IOBN_BTNUP )

  0002c	83 7d 0c 11	 cmp	 DWORD PTR _cmd$[ebp], 17 ; 00000011H
  00030	75 3c		 jne	 SHORT $LN3@iwm_comman@3

; 623  : 		{
; 624  : 			HideWnd();

  00032	8b ce		 mov	 ecx, esi
  00034	ff 15 00 00 00
	00		 call	 DWORD PTR __imp_?HideWnd@ioWnd@@QAEXXZ

; 625  : 
; 626  : 			MyInventoryWnd *pInvenWnd = dynamic_cast<MyInventoryWnd*>(g_GUIMgr.FindWnd(MY_INVENTORY_WND));

  0003a	6a 00		 push	 0
  0003c	68 00 00 00 00	 push	 OFFSET ??_R0?AVMyInventoryWnd@@@8
  00041	68 00 00 00 00	 push	 OFFSET ??_R0?AVioWnd@@@8
  00046	6a 00		 push	 0
  00048	68 96 17 00 00	 push	 6038			; 00001796H
  0004d	e8 00 00 00 00	 call	 ?GetSingleton@ioSP2GUIManager@@SAAAV1@XZ ; ioSP2GUIManager::GetSingleton
  00052	8b c8		 mov	 ecx, eax
  00054	ff 15 00 00 00
	00		 call	 DWORD PTR __imp_?FindWnd@ioGUIManager@@QAEPAVioWnd@@K@Z
  0005a	50		 push	 eax
  0005b	e8 00 00 00 00	 call	 ___RTDynamicCast
  00060	83 c4 14	 add	 esp, 20			; 00000014H

; 627  : 			if( pInvenWnd )

  00063	85 c0		 test	 eax, eax
  00065	74 07		 je	 SHORT $LN3@iwm_comman@3

; 628  : 				pInvenWnd->ShowPresentTabDirect();

  00067	8b c8		 mov	 ecx, eax
  00069	e8 00 00 00 00	 call	 ?ShowPresentTabDirect@MyInventoryWnd@@QAEXXZ ; MyInventoryWnd::ShowPresentTabDirect
$LN3@iwm_comman@3:
  0006e	5e		 pop	 esi

; 638  : 	}
; 639  : }

  0006f	5d		 pop	 ebp
  00070	c2 0c 00	 ret	 12			; 0000000cH
?iwm_command@TradeItemBuyResultWnd@@UAEXPAVioWnd@@HK@Z ENDP ; TradeItemBuyResultWnd::iwm_command
_TEXT	ENDS
PUBLIC	__real@3f266666
PUBLIC	__real@3f59999a
PUBLIC	??_C@_0CA@OIFJPJMJ@TradeItemBuyResultWnd?3?3OnRender?$AA@ ; `string'
PUBLIC	??_C@_00CNPNBAHC@?$AA@				; `string'
PUBLIC	_this$GSCopy$
EXTRN	?AddTextPiece@ioComplexStringPrinter@@QAAXMPBDZZ:PROC ; ioComplexStringPrinter::AddTextPiece
EXTRN	?ConvertNumToStrComma@Help@@YAXHPADH@Z:PROC	; Help::ConvertNumToStrComma
EXTRN	?PrintFullText@ioComplexStringPrinter@@QAEXMMW4TextAlignType@@E@Z:PROC ; ioComplexStringPrinter::PrintFullText
EXTRN	?AddTextPiece@ioComplexStringPrinter@@QAEXMPBD0@Z:PROC ; ioComplexStringPrinter::AddTextPiece
EXTRN	__imp_?GetString@ioStringManager@@QAEPADPBD0HW4FileNamePrefix@1@@Z:PROC
EXTRN	__imp_?GetSingleton@ioStringManager@@SAAAV1@XZ:PROC
EXTRN	__imp_?c_str@ioHashString@@QBEPBDXZ:PROC
EXTRN	?SetTextColor@ioComplexStringPrinter@@QAEXK@Z:PROC ; ioComplexStringPrinter::SetTextColor
EXTRN	?SetBkColor@ioComplexStringPrinter@@QAEXHHH@Z:PROC ; ioComplexStringPrinter::SetBkColor
EXTRN	?SetTextStyle@ioComplexStringPrinter@@QAEXW4TextStyle@@@Z:PROC ; ioComplexStringPrinter::SetTextStyle
EXTRN	??0ioComplexStringPrinter@@QAE@XZ:PROC		; ioComplexStringPrinter::ioComplexStringPrinter
EXTRN	__imp_?OnRender@ioWnd@@MAEXXZ:PROC
EXTRN	__imp_?GetDerivedPosY@ioWnd@@QBEHXZ:PROC
EXTRN	__imp_?GetDerivedPosX@ioWnd@@QBEHXZ:PROC
EXTRN	__fltused:DWORD
EXTRN	__EH_epilog3_GS:PROC
EXTRN	__EH_prolog3_GS:PROC
EXTRN	_memset:PROC
;	COMDAT __real@3f266666
CONST	SEGMENT
__real@3f266666 DD 03f266666r			; 0.65
CONST	ENDS
;	COMDAT __real@3f59999a
CONST	SEGMENT
__real@3f59999a DD 03f59999ar			; 0.85
CONST	ENDS
;	COMDAT ??_C@_0CA@OIFJPJMJ@TradeItemBuyResultWnd?3?3OnRender?$AA@
CONST	SEGMENT
??_C@_0CA@OIFJPJMJ@TradeItemBuyResultWnd?3?3OnRender?$AA@ DB 'TradeItemBu'
	DB	'yResultWnd::OnRender', 00H			; `string'
CONST	ENDS
;	COMDAT ??_C@_00CNPNBAHC@?$AA@
CONST	SEGMENT
??_C@_00CNPNBAHC@?$AA@ DB 00H				; `string'
CONST	ENDS
;	COMDAT xdata$x
xdata$x	SEGMENT
__unwindtable$?OnRender@TradeItemBuyResultWnd@@MAEXXZ DD 0ffffffffH
	DD	FLAT:__unwindfunclet$?OnRender@TradeItemBuyResultWnd@@MAEXXZ$0
__ehfuncinfo$?OnRender@TradeItemBuyResultWnd@@MAEXXZ DD 019930522H
	DD	01H
	DD	FLAT:__unwindtable$?OnRender@TradeItemBuyResultWnd@@MAEXXZ
	DD	2 DUP(00H)
	DD	2 DUP(00H)
	DD	00H
	DD	01H
; Function compile flags: /Ogsp
xdata$x	ENDS
;	COMDAT ?OnRender@TradeItemBuyResultWnd@@MAEXXZ
_TEXT	SEGMENT
_this$GSCopy$ = -320					; size = 4
_kPrinter$ = -316					; size = 32
_iYPos$ = -284						; size = 4
tv292 = -280						; size = 4
_iXPos$ = -280						; size = 4
_szPeso$ = -276						; size = 260
__$EHRec$ = -12						; size = 12
?OnRender@TradeItemBuyResultWnd@@MAEXXZ PROC		; TradeItemBuyResultWnd::OnRender, COMDAT
; _this$ = ecx

; 642  : {

  00000	68 34 01 00 00	 push	 308			; 00000134H
  00005	b8 00 00 00 00	 mov	 eax, __ehhandler$?OnRender@TradeItemBuyResultWnd@@MAEXXZ
  0000a	e8 00 00 00 00	 call	 __EH_prolog3_GS
  0000f	8b f1		 mov	 esi, ecx

; 643  : 	int iXPos = GetDerivedPosX();

  00011	89 b5 c0 fe ff
	ff		 mov	 DWORD PTR _this$GSCopy$[ebp], esi
  00017	ff 15 00 00 00
	00		 call	 DWORD PTR __imp_?GetDerivedPosX@ioWnd@@QBEHXZ

; 644  : 	int iYPos = GetDerivedPosY();

  0001d	8b ce		 mov	 ecx, esi
  0001f	89 85 e8 fe ff
	ff		 mov	 DWORD PTR _iXPos$[ebp], eax
  00025	ff 15 00 00 00
	00		 call	 DWORD PTR __imp_?GetDerivedPosY@ioWnd@@QBEHXZ

; 645  : 
; 646  : 	ioMovingWnd::OnRender();

  0002b	8b ce		 mov	 ecx, esi
  0002d	89 85 e4 fe ff
	ff		 mov	 DWORD PTR _iYPos$[ebp], eax
  00033	ff 15 00 00 00
	00		 call	 DWORD PTR __imp_?OnRender@ioWnd@@MAEXXZ

; 647  : 
; 648  : 	enum
; 649  : 	{
; 650  : 		NAME_X		= 103,
; 651  : 		NAME_Y		= 149,
; 652  : 
; 653  : 		TEXT_X		= 103,
; 654  : 		TEXT_Y		= 199,
; 655  : 	};
; 656  : 
; 657  : 	ioComplexStringPrinter kPrinter;

  00039	8d 8d c4 fe ff
	ff		 lea	 ecx, DWORD PTR _kPrinter$[ebp]
  0003f	e8 00 00 00 00	 call	 ??0ioComplexStringPrinter@@QAE@XZ ; ioComplexStringPrinter::ioComplexStringPrinter
  00044	33 db		 xor	 ebx, ebx

; 658  : 	kPrinter.SetTextStyle( TS_NORMAL );

  00046	53		 push	 ebx
  00047	8d 8d c4 fe ff
	ff		 lea	 ecx, DWORD PTR _kPrinter$[ebp]
  0004d	89 5d fc	 mov	 DWORD PTR __$EHRec$[ebp+8], ebx
  00050	e8 00 00 00 00	 call	 ?SetTextStyle@ioComplexStringPrinter@@QAEXW4TextStyle@@@Z ; ioComplexStringPrinter::SetTextStyle

; 659  : 	kPrinter.SetBkColor( 0, 0, 0 );

  00055	53		 push	 ebx
  00056	53		 push	 ebx
  00057	53		 push	 ebx
  00058	8d 8d c4 fe ff
	ff		 lea	 ecx, DWORD PTR _kPrinter$[ebp]
  0005e	e8 00 00 00 00	 call	 ?SetBkColor@ioComplexStringPrinter@@QAEXHHH@Z ; ioComplexStringPrinter::SetBkColor

; 660  : 	kPrinter.SetTextColor( TCT_DEFAULT_DARKGRAY );

  00063	68 3a 3a 3a ff	 push	 -12961222		; ff3a3a3aH
  00068	8d 8d c4 fe ff
	ff		 lea	 ecx, DWORD PTR _kPrinter$[ebp]
  0006e	e8 00 00 00 00	 call	 ?SetTextColor@ioComplexStringPrinter@@QAEXK@Z ; ioComplexStringPrinter::SetTextColor

; 661  : 	kPrinter.AddTextPiece( FONT_SIZE_17, STR(1), m_szName.c_str() );

  00073	8d 8e 90 01 00
	00		 lea	 ecx, DWORD PTR [esi+400]
  00079	ff 15 00 00 00
	00		 call	 DWORD PTR __imp_?c_str@ioHashString@@QBEPBDXZ
  0007f	8b 35 00 00 00
	00		 mov	 esi, DWORD PTR __imp_?GetSingleton@ioStringManager@@SAAAV1@XZ
  00085	50		 push	 eax
  00086	53		 push	 ebx
  00087	6a 01		 push	 1
  00089	68 00 00 00 00	 push	 OFFSET ??_C@_00CNPNBAHC@?$AA@
  0008e	68 00 00 00 00	 push	 OFFSET ??_C@_0CA@OIFJPJMJ@TradeItemBuyResultWnd?3?3OnRender?$AA@
  00093	ff d6		 call	 esi
  00095	8b 3d 00 00 00
	00		 mov	 edi, DWORD PTR __imp_?GetString@ioStringManager@@QAEPADPBD0HW4FileNamePrefix@1@@Z
  0009b	8b c8		 mov	 ecx, eax
  0009d	ff d7		 call	 edi
  0009f	f3 0f 10 05 00
	00 00 00	 movss	 xmm0, DWORD PTR __real@3f59999a
  000a7	50		 push	 eax
  000a8	51		 push	 ecx
  000a9	8d 8d c4 fe ff
	ff		 lea	 ecx, DWORD PTR _kPrinter$[ebp]
  000af	f3 0f 11 04 24	 movss	 DWORD PTR [esp], xmm0
  000b4	e8 00 00 00 00	 call	 ?AddTextPiece@ioComplexStringPrinter@@QAEXMPBD0@Z ; ioComplexStringPrinter::AddTextPiece

; 662  : 	kPrinter.PrintFullText( iXPos+NAME_X, iYPos+NAME_Y, TAT_CENTER );

  000b9	8b 85 e8 fe ff
	ff		 mov	 eax, DWORD PTR _iXPos$[ebp]
  000bf	83 c0 67	 add	 eax, 103		; 00000067H
  000c2	68 ff 00 00 00	 push	 255			; 000000ffH
  000c7	0f 57 c0	 xorps	 xmm0, xmm0
  000ca	f3 0f 2a c0	 cvtsi2ss xmm0, eax
  000ce	8b 85 e4 fe ff
	ff		 mov	 eax, DWORD PTR _iYPos$[ebp]
  000d4	6a 01		 push	 1
  000d6	51		 push	 ecx
  000d7	51		 push	 ecx
  000d8	05 95 00 00 00	 add	 eax, 149		; 00000095H
  000dd	0f 57 c9	 xorps	 xmm1, xmm1
  000e0	f3 0f 2a c8	 cvtsi2ss xmm1, eax
  000e4	f3 0f 11 4c 24
	04		 movss	 DWORD PTR [esp+4], xmm1
  000ea	8d 8d c4 fe ff
	ff		 lea	 ecx, DWORD PTR _kPrinter$[ebp]
  000f0	f3 0f 11 85 e8
	fe ff ff	 movss	 DWORD PTR tv292[ebp], xmm0
  000f8	f3 0f 11 04 24	 movss	 DWORD PTR [esp], xmm0
  000fd	e8 00 00 00 00	 call	 ?PrintFullText@ioComplexStringPrinter@@QAEXMMW4TextAlignType@@E@Z ; ioComplexStringPrinter::PrintFullText

; 663  : 	kPrinter.ClearList();

  00102	8d 8d c4 fe ff
	ff		 lea	 ecx, DWORD PTR _kPrinter$[ebp]
  00108	e8 00 00 00 00	 call	 ?ClearList@ioComplexStringPrinter@@QAEXXZ ; ioComplexStringPrinter::ClearList

; 664  : 
; 665  : 	char szPeso[MAX_PATH]="";

  0010d	68 03 01 00 00	 push	 259			; 00000103H
  00112	8d 85 ed fe ff
	ff		 lea	 eax, DWORD PTR _szPeso$[ebp+1]
  00118	53		 push	 ebx
  00119	50		 push	 eax
  0011a	88 9d ec fe ff
	ff		 mov	 BYTE PTR _szPeso$[ebp], bl
  00120	e8 00 00 00 00	 call	 _memset

; 666  : 	Help::ConvertNumToStrComma( m_iPrice, szPeso, sizeof( szPeso ) );

  00125	68 04 01 00 00	 push	 260			; 00000104H
  0012a	8d 85 ec fe ff
	ff		 lea	 eax, DWORD PTR _szPeso$[ebp]
  00130	50		 push	 eax
  00131	8b 85 c0 fe ff
	ff		 mov	 eax, DWORD PTR _this$GSCopy$[ebp]
  00137	ff b0 a0 01 00
	00		 push	 DWORD PTR [eax+416]
  0013d	e8 00 00 00 00	 call	 ?ConvertNumToStrComma@Help@@YAXHPADH@Z ; Help::ConvertNumToStrComma
  00142	83 c4 18	 add	 esp, 24			; 00000018H

; 667  : 
; 668  : 	kPrinter.SetTextStyle( TS_NORMAL );

  00145	53		 push	 ebx
  00146	8d 8d c4 fe ff
	ff		 lea	 ecx, DWORD PTR _kPrinter$[ebp]
  0014c	e8 00 00 00 00	 call	 ?SetTextStyle@ioComplexStringPrinter@@QAEXW4TextStyle@@@Z ; ioComplexStringPrinter::SetTextStyle

; 669  : 	kPrinter.SetBkColor( 0, 0, 0 );

  00151	53		 push	 ebx
  00152	53		 push	 ebx
  00153	53		 push	 ebx
  00154	8d 8d c4 fe ff
	ff		 lea	 ecx, DWORD PTR _kPrinter$[ebp]
  0015a	e8 00 00 00 00	 call	 ?SetBkColor@ioComplexStringPrinter@@QAEXHHH@Z ; ioComplexStringPrinter::SetBkColor

; 670  : 	kPrinter.SetTextColor( TCT_DEFAULT_BLUE );

  0015f	68 b2 46 16 ff	 push	 -15317326		; ff1646b2H
  00164	8d 8d c4 fe ff
	ff		 lea	 ecx, DWORD PTR _kPrinter$[ebp]
  0016a	e8 00 00 00 00	 call	 ?SetTextColor@ioComplexStringPrinter@@QAEXK@Z ; ioComplexStringPrinter::SetTextColor

; 671  : 	kPrinter.AddTextPiece( FONT_SIZE_17, STR(2), szPeso );

  0016f	8d 85 ec fe ff
	ff		 lea	 eax, DWORD PTR _szPeso$[ebp]
  00175	50		 push	 eax
  00176	53		 push	 ebx
  00177	6a 02		 push	 2
  00179	68 00 00 00 00	 push	 OFFSET ??_C@_00CNPNBAHC@?$AA@
  0017e	68 00 00 00 00	 push	 OFFSET ??_C@_0CA@OIFJPJMJ@TradeItemBuyResultWnd?3?3OnRender?$AA@
  00183	ff d6		 call	 esi
  00185	8b c8		 mov	 ecx, eax
  00187	ff d7		 call	 edi
  00189	f3 0f 10 05 00
	00 00 00	 movss	 xmm0, DWORD PTR __real@3f59999a
  00191	50		 push	 eax
  00192	51		 push	 ecx
  00193	8d 8d c4 fe ff
	ff		 lea	 ecx, DWORD PTR _kPrinter$[ebp]
  00199	f3 0f 11 04 24	 movss	 DWORD PTR [esp], xmm0
  0019e	e8 00 00 00 00	 call	 ?AddTextPiece@ioComplexStringPrinter@@QAEXMPBD0@Z ; ioComplexStringPrinter::AddTextPiece

; 672  : 	kPrinter.PrintFullText( iXPos+NAME_X, iYPos+NAME_Y+21, TAT_CENTER );

  001a3	8b 85 e4 fe ff
	ff		 mov	 eax, DWORD PTR _iYPos$[ebp]
  001a9	68 ff 00 00 00	 push	 255			; 000000ffH
  001ae	6a 01		 push	 1
  001b0	51		 push	 ecx
  001b1	51		 push	 ecx
  001b2	05 aa 00 00 00	 add	 eax, 170		; 000000aaH
  001b7	0f 57 c0	 xorps	 xmm0, xmm0
  001ba	f3 0f 2a c0	 cvtsi2ss xmm0, eax
  001be	f3 0f 11 44 24
	04		 movss	 DWORD PTR [esp+4], xmm0
  001c4	f3 0f 10 85 e8
	fe ff ff	 movss	 xmm0, DWORD PTR tv292[ebp]
  001cc	8d 8d c4 fe ff
	ff		 lea	 ecx, DWORD PTR _kPrinter$[ebp]
  001d2	f3 0f 11 04 24	 movss	 DWORD PTR [esp], xmm0
  001d7	e8 00 00 00 00	 call	 ?PrintFullText@ioComplexStringPrinter@@QAEXMMW4TextAlignType@@E@Z ; ioComplexStringPrinter::PrintFullText

; 673  : 	kPrinter.ClearList();

  001dc	8d 8d c4 fe ff
	ff		 lea	 ecx, DWORD PTR _kPrinter$[ebp]
  001e2	e8 00 00 00 00	 call	 ?ClearList@ioComplexStringPrinter@@QAEXXZ ; ioComplexStringPrinter::ClearList

; 674  : 
; 675  : 	kPrinter.SetTextStyle( TS_NORMAL );

  001e7	53		 push	 ebx
  001e8	8d 8d c4 fe ff
	ff		 lea	 ecx, DWORD PTR _kPrinter$[ebp]
  001ee	e8 00 00 00 00	 call	 ?SetTextStyle@ioComplexStringPrinter@@QAEXW4TextStyle@@@Z ; ioComplexStringPrinter::SetTextStyle

; 676  : 	kPrinter.SetBkColor( 0, 0, 0 );

  001f3	53		 push	 ebx
  001f4	53		 push	 ebx
  001f5	53		 push	 ebx
  001f6	8d 8d c4 fe ff
	ff		 lea	 ecx, DWORD PTR _kPrinter$[ebp]
  001fc	e8 00 00 00 00	 call	 ?SetBkColor@ioComplexStringPrinter@@QAEXHHH@Z ; ioComplexStringPrinter::SetBkColor

; 677  : 	kPrinter.SetTextColor( TCT_DEFAULT_DARKGRAY );

  00201	68 3a 3a 3a ff	 push	 -12961222		; ff3a3a3aH
  00206	8d 8d c4 fe ff
	ff		 lea	 ecx, DWORD PTR _kPrinter$[ebp]
  0020c	e8 00 00 00 00	 call	 ?SetTextColor@ioComplexStringPrinter@@QAEXK@Z ; ioComplexStringPrinter::SetTextColor

; 678  : 	kPrinter.AddTextPiece( FONT_SIZE_13, STR(3) );

  00211	53		 push	 ebx
  00212	6a 03		 push	 3
  00214	68 00 00 00 00	 push	 OFFSET ??_C@_00CNPNBAHC@?$AA@
  00219	68 00 00 00 00	 push	 OFFSET ??_C@_0CA@OIFJPJMJ@TradeItemBuyResultWnd?3?3OnRender?$AA@
  0021e	ff d6		 call	 esi
  00220	8b c8		 mov	 ecx, eax
  00222	ff d7		 call	 edi
  00224	f3 0f 10 05 00
	00 00 00	 movss	 xmm0, DWORD PTR __real@3f266666
  0022c	50		 push	 eax
  0022d	51		 push	 ecx
  0022e	8d 85 c4 fe ff
	ff		 lea	 eax, DWORD PTR _kPrinter$[ebp]
  00234	f3 0f 11 04 24	 movss	 DWORD PTR [esp], xmm0
  00239	50		 push	 eax
  0023a	e8 00 00 00 00	 call	 ?AddTextPiece@ioComplexStringPrinter@@QAAXMPBDZZ ; ioComplexStringPrinter::AddTextPiece

; 679  : 	kPrinter.PrintFullText( iXPos+TEXT_X, iYPos+TEXT_Y, TAT_CENTER );

  0023f	8b 85 e4 fe ff
	ff		 mov	 eax, DWORD PTR _iYPos$[ebp]
  00245	83 c4 0c	 add	 esp, 12			; 0000000cH
  00248	68 ff 00 00 00	 push	 255			; 000000ffH
  0024d	6a 01		 push	 1
  0024f	51		 push	 ecx
  00250	51		 push	 ecx
  00251	05 c7 00 00 00	 add	 eax, 199		; 000000c7H
  00256	0f 57 c0	 xorps	 xmm0, xmm0
  00259	f3 0f 2a c0	 cvtsi2ss xmm0, eax
  0025d	f3 0f 11 44 24
	04		 movss	 DWORD PTR [esp+4], xmm0
  00263	f3 0f 10 85 e8
	fe ff ff	 movss	 xmm0, DWORD PTR tv292[ebp]
  0026b	8d 8d c4 fe ff
	ff		 lea	 ecx, DWORD PTR _kPrinter$[ebp]
  00271	f3 0f 11 04 24	 movss	 DWORD PTR [esp], xmm0
  00276	e8 00 00 00 00	 call	 ?PrintFullText@ioComplexStringPrinter@@QAEXMMW4TextAlignType@@E@Z ; ioComplexStringPrinter::PrintFullText

; 680  : 	kPrinter.ClearList();

  0027b	8d 8d c4 fe ff
	ff		 lea	 ecx, DWORD PTR _kPrinter$[ebp]
  00281	e8 00 00 00 00	 call	 ?ClearList@ioComplexStringPrinter@@QAEXXZ ; ioComplexStringPrinter::ClearList

; 681  : 
; 682  : 	kPrinter.SetTextStyle( TS_NORMAL );

  00286	53		 push	 ebx
  00287	8d 8d c4 fe ff
	ff		 lea	 ecx, DWORD PTR _kPrinter$[ebp]
  0028d	e8 00 00 00 00	 call	 ?SetTextStyle@ioComplexStringPrinter@@QAEXW4TextStyle@@@Z ; ioComplexStringPrinter::SetTextStyle

; 683  : 	kPrinter.SetBkColor( 0, 0, 0 );

  00292	53		 push	 ebx
  00293	53		 push	 ebx
  00294	53		 push	 ebx
  00295	8d 8d c4 fe ff
	ff		 lea	 ecx, DWORD PTR _kPrinter$[ebp]
  0029b	e8 00 00 00 00	 call	 ?SetBkColor@ioComplexStringPrinter@@QAEXHHH@Z ; ioComplexStringPrinter::SetBkColor

; 684  : 	kPrinter.SetTextColor( TCT_DEFAULT_DARKGRAY );

  002a0	68 3a 3a 3a ff	 push	 -12961222		; ff3a3a3aH
  002a5	8d 8d c4 fe ff
	ff		 lea	 ecx, DWORD PTR _kPrinter$[ebp]
  002ab	e8 00 00 00 00	 call	 ?SetTextColor@ioComplexStringPrinter@@QAEXK@Z ; ioComplexStringPrinter::SetTextColor

; 685  : 	kPrinter.AddTextPiece( FONT_SIZE_13, STR(4) );

  002b0	53		 push	 ebx
  002b1	6a 04		 push	 4
  002b3	68 00 00 00 00	 push	 OFFSET ??_C@_00CNPNBAHC@?$AA@
  002b8	68 00 00 00 00	 push	 OFFSET ??_C@_0CA@OIFJPJMJ@TradeItemBuyResultWnd?3?3OnRender?$AA@
  002bd	ff d6		 call	 esi
  002bf	8b c8		 mov	 ecx, eax
  002c1	ff d7		 call	 edi
  002c3	f3 0f 10 05 00
	00 00 00	 movss	 xmm0, DWORD PTR __real@3f266666
  002cb	50		 push	 eax
  002cc	51		 push	 ecx
  002cd	8d 85 c4 fe ff
	ff		 lea	 eax, DWORD PTR _kPrinter$[ebp]
  002d3	f3 0f 11 04 24	 movss	 DWORD PTR [esp], xmm0
  002d8	50		 push	 eax
  002d9	e8 00 00 00 00	 call	 ?AddTextPiece@ioComplexStringPrinter@@QAAXMPBDZZ ; ioComplexStringPrinter::AddTextPiece

; 686  : 	kPrinter.PrintFullText( iXPos+TEXT_X, iYPos+TEXT_Y+20, TAT_CENTER );

  002de	8b 85 e4 fe ff
	ff		 mov	 eax, DWORD PTR _iYPos$[ebp]
  002e4	83 c4 0c	 add	 esp, 12			; 0000000cH
  002e7	68 ff 00 00 00	 push	 255			; 000000ffH
  002ec	6a 01		 push	 1
  002ee	51		 push	 ecx
  002ef	51		 push	 ecx
  002f0	05 db 00 00 00	 add	 eax, 219		; 000000dbH
  002f5	0f 57 c0	 xorps	 xmm0, xmm0
  002f8	f3 0f 2a c0	 cvtsi2ss xmm0, eax
  002fc	f3 0f 11 44 24
	04		 movss	 DWORD PTR [esp+4], xmm0
  00302	f3 0f 10 85 e8
	fe ff ff	 movss	 xmm0, DWORD PTR tv292[ebp]
  0030a	8d 8d c4 fe ff
	ff		 lea	 ecx, DWORD PTR _kPrinter$[ebp]
  00310	f3 0f 11 04 24	 movss	 DWORD PTR [esp], xmm0
  00315	e8 00 00 00 00	 call	 ?PrintFullText@ioComplexStringPrinter@@QAEXMMW4TextAlignType@@E@Z ; ioComplexStringPrinter::PrintFullText

; 687  : 	kPrinter.ClearList();

  0031a	8d 8d c4 fe ff
	ff		 lea	 ecx, DWORD PTR _kPrinter$[ebp]
  00320	e8 00 00 00 00	 call	 ?ClearList@ioComplexStringPrinter@@QAEXXZ ; ioComplexStringPrinter::ClearList

; 688  : 
; 689  : 	kPrinter.SetTextStyle( TS_NORMAL );

  00325	53		 push	 ebx
  00326	8d 8d c4 fe ff
	ff		 lea	 ecx, DWORD PTR _kPrinter$[ebp]
  0032c	e8 00 00 00 00	 call	 ?SetTextStyle@ioComplexStringPrinter@@QAEXW4TextStyle@@@Z ; ioComplexStringPrinter::SetTextStyle

; 690  : 	kPrinter.SetBkColor( 0, 0, 0 );

  00331	53		 push	 ebx
  00332	53		 push	 ebx
  00333	53		 push	 ebx
  00334	8d 8d c4 fe ff
	ff		 lea	 ecx, DWORD PTR _kPrinter$[ebp]
  0033a	e8 00 00 00 00	 call	 ?SetBkColor@ioComplexStringPrinter@@QAEXHHH@Z ; ioComplexStringPrinter::SetBkColor

; 691  : 	kPrinter.SetTextColor( TCT_DEFAULT_DARKGRAY );

  0033f	68 3a 3a 3a ff	 push	 -12961222		; ff3a3a3aH
  00344	8d 8d c4 fe ff
	ff		 lea	 ecx, DWORD PTR _kPrinter$[ebp]
  0034a	e8 00 00 00 00	 call	 ?SetTextColor@ioComplexStringPrinter@@QAEXK@Z ; ioComplexStringPrinter::SetTextColor

; 692  : 	kPrinter.AddTextPiece( FONT_SIZE_13, STR(5) );

  0034f	53		 push	 ebx
  00350	6a 05		 push	 5
  00352	68 00 00 00 00	 push	 OFFSET ??_C@_00CNPNBAHC@?$AA@
  00357	68 00 00 00 00	 push	 OFFSET ??_C@_0CA@OIFJPJMJ@TradeItemBuyResultWnd?3?3OnRender?$AA@
  0035c	ff d6		 call	 esi
  0035e	8b c8		 mov	 ecx, eax
  00360	ff d7		 call	 edi
  00362	f3 0f 10 05 00
	00 00 00	 movss	 xmm0, DWORD PTR __real@3f266666
  0036a	50		 push	 eax
  0036b	51		 push	 ecx
  0036c	8d 85 c4 fe ff
	ff		 lea	 eax, DWORD PTR _kPrinter$[ebp]
  00372	f3 0f 11 04 24	 movss	 DWORD PTR [esp], xmm0
  00377	50		 push	 eax
  00378	e8 00 00 00 00	 call	 ?AddTextPiece@ioComplexStringPrinter@@QAAXMPBDZZ ; ioComplexStringPrinter::AddTextPiece

; 693  : 	kPrinter.PrintFullText( iXPos+TEXT_X, iYPos+TEXT_Y+40, TAT_CENTER );

  0037d	8b 85 e4 fe ff
	ff		 mov	 eax, DWORD PTR _iYPos$[ebp]
  00383	83 c4 0c	 add	 esp, 12			; 0000000cH
  00386	68 ff 00 00 00	 push	 255			; 000000ffH
  0038b	6a 01		 push	 1
  0038d	51		 push	 ecx
  0038e	51		 push	 ecx
  0038f	05 ef 00 00 00	 add	 eax, 239		; 000000efH
  00394	0f 57 c0	 xorps	 xmm0, xmm0
  00397	f3 0f 2a c0	 cvtsi2ss xmm0, eax
  0039b	f3 0f 11 44 24
	04		 movss	 DWORD PTR [esp+4], xmm0
  003a1	f3 0f 10 85 e8
	fe ff ff	 movss	 xmm0, DWORD PTR tv292[ebp]
  003a9	8d 8d c4 fe ff
	ff		 lea	 ecx, DWORD PTR _kPrinter$[ebp]
  003af	f3 0f 11 04 24	 movss	 DWORD PTR [esp], xmm0
  003b4	e8 00 00 00 00	 call	 ?PrintFullText@ioComplexStringPrinter@@QAEXMMW4TextAlignType@@E@Z ; ioComplexStringPrinter::PrintFullText

; 694  : 	kPrinter.ClearList();

  003b9	8d 8d c4 fe ff
	ff		 lea	 ecx, DWORD PTR _kPrinter$[ebp]
  003bf	e8 00 00 00 00	 call	 ?ClearList@ioComplexStringPrinter@@QAEXXZ ; ioComplexStringPrinter::ClearList

; 695  : }

  003c4	83 4d fc ff	 or	 DWORD PTR __$EHRec$[ebp+8], -1
  003c8	8d 8d c4 fe ff
	ff		 lea	 ecx, DWORD PTR _kPrinter$[ebp]
  003ce	e8 00 00 00 00	 call	 ??1ioComplexStringPrinter@@QAE@XZ ; ioComplexStringPrinter::~ioComplexStringPrinter
  003d3	e8 00 00 00 00	 call	 __EH_epilog3_GS
  003d8	c3		 ret	 0
_TEXT	ENDS
;	COMDAT text$x
text$x	SEGMENT
__unwindfunclet$?OnRender@TradeItemBuyResultWnd@@MAEXXZ$0:
  00000	8d 8d c4 fe ff
	ff		 lea	 ecx, DWORD PTR _kPrinter$[ebp]
  00006	e9 00 00 00 00	 jmp	 ??1ioComplexStringPrinter@@QAE@XZ ; ioComplexStringPrinter::~ioComplexStringPrinter
__ehhandler$?OnRender@TradeItemBuyResultWnd@@MAEXXZ:
  0000b	8b 54 24 08	 mov	 edx, DWORD PTR [esp+8]
  0000f	8d 42 0c	 lea	 eax, DWORD PTR [edx+12]
  00012	8b 8a bc fe ff
	ff		 mov	 ecx, DWORD PTR [edx-324]
  00018	33 c8		 xor	 ecx, eax
  0001a	e8 00 00 00 00	 call	 @__security_check_cookie@4
  0001f	8b 4a fc	 mov	 ecx, DWORD PTR [edx-4]
  00022	33 c8		 xor	 ecx, eax
  00024	e8 00 00 00 00	 call	 @__security_check_cookie@4
  00029	b8 00 00 00 00	 mov	 eax, OFFSET __ehfuncinfo$?OnRender@TradeItemBuyResultWnd@@MAEXXZ
  0002e	e9 00 00 00 00	 jmp	 ___CxxFrameHandler3
text$x	ENDS
?OnRender@TradeItemBuyResultWnd@@MAEXXZ ENDP		; TradeItemBuyResultWnd::OnRender
PUBLIC	?iwm_create@TradeMainWnd@@UAEXXZ		; TradeMainWnd::iwm_create
; Function compile flags: /Ogsp
;	COMDAT ?iwm_create@TradeMainWnd@@UAEXXZ
_TEXT	SEGMENT
?iwm_create@TradeMainWnd@@UAEXXZ PROC			; TradeMainWnd::iwm_create, COMDAT
; _this$ = ecx

; 718  : }

  00000	c3		 ret	 0
?iwm_create@TradeMainWnd@@UAEXXZ ENDP			; TradeMainWnd::iwm_create
_TEXT	ENDS
PUBLIC	??_R0?AVioEdit@@@8				; ioEdit `RTTI Type Descriptor'
PUBLIC	?EnableEditFocus@TradeMainWnd@@IAEXXZ		; TradeMainWnd::EnableEditFocus
EXTRN	__imp_?Clear@ioHashString@@QAEXXZ:PROC
EXTRN	__imp_?SetString@ioInputBox@@QAEXPBD@Z:PROC
EXTRN	__imp_?GetSingleton@ioInputBox@@SAAAV1@XZ:PROC
EXTRN	__imp_?ClearString@ioEdit@@QAEXXZ:PROC
EXTRN	__imp_?m_pKeyFocusEdit@ioEdit@@2PAV1@A:DWORD
EXTRN	__imp_?FindChildWnd@ioWnd@@QAEPAV1@K@Z:PROC
;	COMDAT ??_R0?AVioEdit@@@8
_DATA	SEGMENT
??_R0?AVioEdit@@@8 DD FLAT:??_7type_info@@6B@		; ioEdit `RTTI Type Descriptor'
	DD	00H
	DB	'.?AVioEdit@@', 00H
; Function compile flags: /Ogsp
_DATA	ENDS
;	COMDAT ?EnableEditFocus@TradeMainWnd@@IAEXXZ
_TEXT	SEGMENT
?EnableEditFocus@TradeMainWnd@@IAEXXZ PROC		; TradeMainWnd::EnableEditFocus, COMDAT
; _this$ = ecx

; 749  : {

  00000	56		 push	 esi
  00001	57		 push	 edi

; 750  : 	ioEdit *pEdit = dynamic_cast<ioEdit*>( FindChildWnd( ID_SEARCH_EDIT ) );

  00002	6a 00		 push	 0
  00004	68 00 00 00 00	 push	 OFFSET ??_R0?AVioEdit@@@8
  00009	68 00 00 00 00	 push	 OFFSET ??_R0?AVioWnd@@@8
  0000e	6a 00		 push	 0
  00010	6a 07		 push	 7
  00012	8b f9		 mov	 edi, ecx
  00014	ff 15 00 00 00
	00		 call	 DWORD PTR __imp_?FindChildWnd@ioWnd@@QAEPAV1@K@Z
  0001a	50		 push	 eax
  0001b	e8 00 00 00 00	 call	 ___RTDynamicCast
  00020	8b f0		 mov	 esi, eax
  00022	83 c4 14	 add	 esp, 20			; 00000014H

; 751  : 	if( pEdit && pEdit->IsShow() )

  00025	85 f6		 test	 esi, esi
  00027	74 55		 je	 SHORT $LN2@EnableEdit
  00029	8b ce		 mov	 ecx, esi
  0002b	ff 15 00 00 00
	00		 call	 DWORD PTR __imp_?IsShow@ioWnd@@QBE_NXZ
  00031	84 c0		 test	 al, al
  00033	74 49		 je	 SHORT $LN2@EnableEdit

; 752  : 	{
; 753  : 		if( m_pPreEdit != pEdit )

  00035	39 b7 ac 01 00
	00		 cmp	 DWORD PTR [edi+428], esi
  0003b	74 0e		 je	 SHORT $LN1@EnableEdit

; 754  : 			m_pPreEdit = ioEdit::m_pKeyFocusEdit;

  0003d	8b 0d 00 00 00
	00		 mov	 ecx, DWORD PTR __imp_?m_pKeyFocusEdit@ioEdit@@2PAV1@A
  00043	8b 09		 mov	 ecx, DWORD PTR [ecx]
  00045	89 8f ac 01 00
	00		 mov	 DWORD PTR [edi+428], ecx
$LN1@EnableEdit:

; 755  : 
; 756  : 		pEdit->ClearString();

  0004b	8b ce		 mov	 ecx, esi
  0004d	ff 15 00 00 00
	00		 call	 DWORD PTR __imp_?ClearString@ioEdit@@QAEXXZ

; 757  : 		pEdit->SetKeyFocus();

  00053	8b 06		 mov	 eax, DWORD PTR [esi]
  00055	8b ce		 mov	 ecx, esi
  00057	ff 90 30 01 00
	00		 call	 DWORD PTR [eax+304]

; 758  : 		g_InputBox.SetString( "" );

  0005d	68 00 00 00 00	 push	 OFFSET ??_C@_00CNPNBAHC@?$AA@
  00062	ff 15 00 00 00
	00		 call	 DWORD PTR __imp_?GetSingleton@ioInputBox@@SAAAV1@XZ
  00068	8b c8		 mov	 ecx, eax
  0006a	ff 15 00 00 00
	00		 call	 DWORD PTR __imp_?SetString@ioInputBox@@QAEXPBD@Z

; 759  : 		m_CurrFindKeyWord.Clear();

  00070	8d 8f b0 01 00
	00		 lea	 ecx, DWORD PTR [edi+432]
  00076	5f		 pop	 edi
  00077	5e		 pop	 esi
  00078	ff 25 00 00 00
	00		 jmp	 DWORD PTR __imp_?Clear@ioHashString@@QAEXXZ
$LN2@EnableEdit:
  0007e	5f		 pop	 edi
  0007f	5e		 pop	 esi

; 760  : 	}
; 761  : }

  00080	c3		 ret	 0
?EnableEditFocus@TradeMainWnd@@IAEXXZ ENDP		; TradeMainWnd::EnableEditFocus
_TEXT	ENDS
PUBLIC	?DisableEditFocus@TradeMainWnd@@IAEXXZ		; TradeMainWnd::DisableEditFocus
EXTRN	__imp_?GetParent@ioWnd@@QAEPAV1@XZ:PROC
; Function compile flags: /Ogsp
;	COMDAT ?DisableEditFocus@TradeMainWnd@@IAEXXZ
_TEXT	SEGMENT
?DisableEditFocus@TradeMainWnd@@IAEXXZ PROC		; TradeMainWnd::DisableEditFocus, COMDAT
; _this$ = ecx

; 764  : {

  00000	56		 push	 esi
  00001	57		 push	 edi

; 765  : 	ioEdit *pCurEdit = dynamic_cast<ioEdit*>( FindChildWnd( ID_SEARCH_EDIT ) );

  00002	6a 00		 push	 0
  00004	68 00 00 00 00	 push	 OFFSET ??_R0?AVioEdit@@@8
  00009	68 00 00 00 00	 push	 OFFSET ??_R0?AVioWnd@@@8
  0000e	6a 00		 push	 0
  00010	6a 07		 push	 7
  00012	8b f9		 mov	 edi, ecx
  00014	ff 15 00 00 00
	00		 call	 DWORD PTR __imp_?FindChildWnd@ioWnd@@QAEPAV1@K@Z
  0001a	50		 push	 eax
  0001b	e8 00 00 00 00	 call	 ___RTDynamicCast
  00020	8b f0		 mov	 esi, eax
  00022	83 c4 14	 add	 esp, 20			; 00000014H

; 766  : 	if( pCurEdit && pCurEdit->IsShow() )

  00025	85 f6		 test	 esi, esi
  00027	74 16		 je	 SHORT $LN4@DisableEdi
  00029	8b ce		 mov	 ecx, esi
  0002b	ff 15 00 00 00
	00		 call	 DWORD PTR __imp_?IsShow@ioWnd@@QBE_NXZ
  00031	84 c0		 test	 al, al
  00033	74 0a		 je	 SHORT $LN4@DisableEdi

; 767  : 		pCurEdit->KillKeyFocus();

  00035	8b 06		 mov	 eax, DWORD PTR [esi]
  00037	8b ce		 mov	 ecx, esi
  00039	ff 90 34 01 00
	00		 call	 DWORD PTR [eax+308]
$LN4@DisableEdi:

; 768  : 
; 769  : 	ioEdit* pEdit = dynamic_cast<ioEdit*>( m_pPreEdit );

  0003f	8b b7 ac 01 00
	00		 mov	 esi, DWORD PTR [edi+428]

; 770  : 	if( pEdit )	

  00045	85 f6		 test	 esi, esi
  00047	74 22		 je	 SHORT $LN1@DisableEdi

; 771  : 	{
; 772  : 		ioWnd *pParent = pEdit->GetParent();

  00049	8b ce		 mov	 ecx, esi
  0004b	ff 15 00 00 00
	00		 call	 DWORD PTR __imp_?GetParent@ioWnd@@QAEPAV1@XZ

; 773  : 		if( pParent )

  00051	85 c0		 test	 eax, eax
  00053	74 16		 je	 SHORT $LN1@DisableEdi

; 774  : 		{
; 775  : 			if( pParent->IsShow() )

  00055	8b c8		 mov	 ecx, eax
  00057	ff 15 00 00 00
	00		 call	 DWORD PTR __imp_?IsShow@ioWnd@@QBE_NXZ
  0005d	84 c0		 test	 al, al
  0005f	74 0a		 je	 SHORT $LN1@DisableEdi

; 776  : 			{
; 777  : 				pEdit->SetKeyFocus();

  00061	8b 06		 mov	 eax, DWORD PTR [esi]
  00063	8b ce		 mov	 ecx, esi
  00065	ff 90 30 01 00
	00		 call	 DWORD PTR [eax+304]
$LN1@DisableEdi:

; 778  : 			}
; 779  : 		}
; 780  : 	}
; 781  : 
; 782  : 	m_pPreEdit = NULL;

  0006b	83 a7 ac 01 00
	00 00		 and	 DWORD PTR [edi+428], 0
  00072	5f		 pop	 edi
  00073	5e		 pop	 esi

; 783  : }

  00074	c3		 ret	 0
?DisableEditFocus@TradeMainWnd@@IAEXXZ ENDP		; TradeMainWnd::DisableEditFocus
_TEXT	ENDS
PUBLIC	?ProcessKeyWord@TradeMainWnd@@IAEXXZ		; TradeMainWnd::ProcessKeyWord
EXTRN	__imp_??4ioHashString@@QAEAAV0@PBD@Z:PROC
EXTRN	__imp_?GetString@ioInputBox@@QBEPBDXZ:PROC
EXTRN	__imp_?IsEnter@ioInputBox@@QAE_NXZ:PROC
EXTRN	__imp_?IsKeyFocus@ioEdit@@QBE_NXZ:PROC
; Function compile flags: /Ogsp
;	COMDAT ?ProcessKeyWord@TradeMainWnd@@IAEXXZ
_TEXT	SEGMENT
?ProcessKeyWord@TradeMainWnd@@IAEXXZ PROC		; TradeMainWnd::ProcessKeyWord, COMDAT
; _this$ = ecx

; 786  : {

  00000	56		 push	 esi
  00001	57		 push	 edi

; 787  : 	ioEdit* pEdit = dynamic_cast<ioEdit*>( FindChildWnd( ID_SEARCH_EDIT ) );

  00002	8b 3d 00 00 00
	00		 mov	 edi, DWORD PTR __imp_?FindChildWnd@ioWnd@@QAEPAV1@K@Z
  00008	6a 00		 push	 0
  0000a	68 00 00 00 00	 push	 OFFSET ??_R0?AVioEdit@@@8
  0000f	68 00 00 00 00	 push	 OFFSET ??_R0?AVioWnd@@@8
  00014	6a 00		 push	 0
  00016	6a 07		 push	 7
  00018	8b f1		 mov	 esi, ecx
  0001a	ff d7		 call	 edi
  0001c	50		 push	 eax
  0001d	e8 00 00 00 00	 call	 ___RTDynamicCast
  00022	83 c4 14	 add	 esp, 20			; 00000014H

; 788  : 	if( pEdit && pEdit->IsKeyFocus() )

  00025	85 c0		 test	 eax, eax
  00027	74 4e		 je	 SHORT $LN1@ProcessKey
  00029	8b c8		 mov	 ecx, eax
  0002b	ff 15 00 00 00
	00		 call	 DWORD PTR __imp_?IsKeyFocus@ioEdit@@QBE_NXZ
  00031	84 c0		 test	 al, al
  00033	74 42		 je	 SHORT $LN1@ProcessKey

; 789  : 	{
; 790  : 		if( g_InputBox.IsEnter() )

  00035	53		 push	 ebx
  00036	8b 1d 00 00 00
	00		 mov	 ebx, DWORD PTR __imp_?GetSingleton@ioInputBox@@SAAAV1@XZ
  0003c	ff d3		 call	 ebx
  0003e	8b c8		 mov	 ecx, eax
  00040	ff 15 00 00 00
	00		 call	 DWORD PTR __imp_?IsEnter@ioInputBox@@QAE_NXZ
  00046	84 c0		 test	 al, al
  00048	74 2c		 je	 SHORT $LN5@ProcessKey

; 791  : 		{
; 792  : 			m_CurrFindKeyWord = g_InputBox.GetString();

  0004a	ff d3		 call	 ebx
  0004c	8b c8		 mov	 ecx, eax
  0004e	ff 15 00 00 00
	00		 call	 DWORD PTR __imp_?GetString@ioInputBox@@QBEPBDXZ
  00054	50		 push	 eax
  00055	8d 8e b0 01 00
	00		 lea	 ecx, DWORD PTR [esi+432]
  0005b	ff 15 00 00 00
	00		 call	 DWORD PTR __imp_??4ioHashString@@QAEAAV0@PBD@Z

; 793  : 			iwm_command( FindChildWnd( ID_SEARCH_BTN ), IOBN_BTNUP, 0 );

  00061	8b 1e		 mov	 ebx, DWORD PTR [esi]
  00063	6a 00		 push	 0
  00065	6a 11		 push	 17			; 00000011H
  00067	6a 05		 push	 5
  00069	8b ce		 mov	 ecx, esi
  0006b	ff d7		 call	 edi
  0006d	50		 push	 eax
  0006e	8b ce		 mov	 ecx, esi
  00070	ff 93 8c 00 00
	00		 call	 DWORD PTR [ebx+140]
$LN5@ProcessKey:
  00076	5b		 pop	 ebx
$LN1@ProcessKey:
  00077	5f		 pop	 edi
  00078	5e		 pop	 esi

; 794  : 		}
; 795  : 	}
; 796  : }

  00079	c3		 ret	 0
?ProcessKeyWord@TradeMainWnd@@IAEXXZ ENDP		; TradeMainWnd::ProcessKeyWord
_TEXT	ENDS
PUBLIC	?_Adopt@_Iterator_base0@std@@QAEXPBX@Z		; std::_Iterator_base0::_Adopt
; Function compile flags: /Ogsp
; File c:\program files (x86)\microsoft visual studio 10.0\vc\include\xutility
;	COMDAT ?_Adopt@_Iterator_base0@std@@QAEXPBX@Z
_TEXT	SEGMENT
___formal$ = 8						; size = 4
?_Adopt@_Iterator_base0@std@@QAEXPBX@Z PROC		; std::_Iterator_base0::_Adopt, COMDAT
; _this$ = ecx

; 49   : 		}

  00000	c2 04 00	 ret	 4
?_Adopt@_Iterator_base0@std@@QAEXPBX@Z ENDP		; std::_Iterator_base0::_Adopt
_TEXT	ENDS
PUBLIC	??1EXTRAITEMSLOT@@QAE@XZ			; EXTRAITEMSLOT::~EXTRAITEMSLOT
;	COMDAT xdata$x
xdata$x	SEGMENT
__unwindtable$??1EXTRAITEMSLOT@@QAE@XZ DD 0ffffffffH
	DD	FLAT:__unwindfunclet$??1EXTRAITEMSLOT@@QAE@XZ$0
__ehfuncinfo$??1EXTRAITEMSLOT@@QAE@XZ DD 019930522H
	DD	01H
	DD	FLAT:__unwindtable$??1EXTRAITEMSLOT@@QAE@XZ
	DD	2 DUP(00H)
	DD	2 DUP(00H)
	DD	00H
	DD	01H
; Function compile flags: /Ogsp
xdata$x	ENDS
;	COMDAT ??1EXTRAITEMSLOT@@QAE@XZ
_TEXT	SEGMENT
_this$ = -16						; size = 4
__$EHRec$ = -12						; size = 12
??1EXTRAITEMSLOT@@QAE@XZ PROC				; EXTRAITEMSLOT::~EXTRAITEMSLOT, COMDAT
; _this$ = ecx
  00000	6a 04		 push	 4
  00002	b8 00 00 00 00	 mov	 eax, __ehhandler$??1EXTRAITEMSLOT@@QAE@XZ
  00007	e8 00 00 00 00	 call	 __EH_prolog3
  0000c	8b f9		 mov	 edi, ecx
  0000e	89 7d f0	 mov	 DWORD PTR _this$[ebp], edi
  00011	8b 35 00 00 00
	00		 mov	 esi, DWORD PTR __imp_??1ioHashString@@QAE@XZ
  00017	83 65 fc 00	 and	 DWORD PTR __$EHRec$[ebp+8], 0
  0001b	8d 4f 38	 lea	 ecx, DWORD PTR [edi+56]
  0001e	ff d6		 call	 esi
  00020	83 4d fc ff	 or	 DWORD PTR __$EHRec$[ebp+8], -1
  00024	8d 4f 28	 lea	 ecx, DWORD PTR [edi+40]
  00027	ff d6		 call	 esi
  00029	e8 00 00 00 00	 call	 __EH_epilog3
  0002e	c3		 ret	 0
_TEXT	ENDS
;	COMDAT text$x
text$x	SEGMENT
__unwindfunclet$??1EXTRAITEMSLOT@@QAE@XZ$0:
  00000	8b 4d f0	 mov	 ecx, DWORD PTR _this$[ebp]
  00003	83 c1 28	 add	 ecx, 40			; 00000028H
  00006	ff 25 00 00 00
	00		 jmp	 DWORD PTR __imp_??1ioHashString@@QAE@XZ
__ehhandler$??1EXTRAITEMSLOT@@QAE@XZ:
  0000c	8b 54 24 08	 mov	 edx, DWORD PTR [esp+8]
  00010	8d 42 0c	 lea	 eax, DWORD PTR [edx+12]
  00013	8b 4a ec	 mov	 ecx, DWORD PTR [edx-20]
  00016	33 c8		 xor	 ecx, eax
  00018	e8 00 00 00 00	 call	 @__security_check_cookie@4
  0001d	b8 00 00 00 00	 mov	 eax, OFFSET __ehfuncinfo$??1EXTRAITEMSLOT@@QAE@XZ
  00022	e9 00 00 00 00	 jmp	 ___CxxFrameHandler3
text$x	ENDS
??1EXTRAITEMSLOT@@QAE@XZ ENDP				; EXTRAITEMSLOT::~EXTRAITEMSLOT
PUBLIC	__real@3f19999a
PUBLIC	??_C@_0BH@LDDKIPKP@TradeMainWnd?3?3OnRender?$AA@ ; `string'
PUBLIC	?OnRender@TradeMainWnd@@MAEXXZ			; TradeMainWnd::OnRender
EXTRN	__imp_?PrintText@ioFontManager@@QAEXMMMPBDH@Z:PROC
EXTRN	__imp_?SetTextColor@ioFontManager@@QAEXK@Z:PROC
EXTRN	__imp_?SetAlignType@ioFontManager@@QAEXW4TextAlignType@@@Z:PROC
EXTRN	__imp_?SetTextStyle@ioFontManager@@QAEXW4TextStyle@@@Z:PROC
EXTRN	__imp_?SetBkColor@ioFontManager@@QAEXHHH@Z:PROC
EXTRN	__imp_?GetSingleton@ioFontManager@@SAAAV1@XZ:PROC
;	COMDAT __real@3f19999a
; File d:\lost saga for developer\youtube\tutorial\source\src\lsclient\gui\trademainwnd.cpp
CONST	SEGMENT
__real@3f19999a DD 03f19999ar			; 0.6
CONST	ENDS
;	COMDAT ??_C@_0BH@LDDKIPKP@TradeMainWnd?3?3OnRender?$AA@
CONST	SEGMENT
??_C@_0BH@LDDKIPKP@TradeMainWnd?3?3OnRender?$AA@ DB 'TradeMainWnd::OnRend'
	DB	'er', 00H					; `string'
; Function compile flags: /Ogsp
CONST	ENDS
;	COMDAT ?OnRender@TradeMainWnd@@MAEXXZ
_TEXT	SEGMENT
_iYPos$ = -8						; size = 4
_iRendPage$ = -4					; size = 4
?OnRender@TradeMainWnd@@MAEXXZ PROC			; TradeMainWnd::OnRender, COMDAT
; _this$ = ecx

; 1048 : {

  00000	55		 push	 ebp
  00001	8b ec		 mov	 ebp, esp
  00003	51		 push	 ecx
  00004	51		 push	 ecx
  00005	53		 push	 ebx
  00006	56		 push	 esi
  00007	57		 push	 edi
  00008	8b f1		 mov	 esi, ecx

; 1049 : 	ioWnd::OnRender();

  0000a	ff 15 00 00 00
	00		 call	 DWORD PTR __imp_?OnRender@ioWnd@@MAEXXZ

; 1050 : 
; 1051 : 	int iXPos = GetDerivedPosX();

  00010	8b ce		 mov	 ecx, esi
  00012	ff 15 00 00 00
	00		 call	 DWORD PTR __imp_?GetDerivedPosX@ioWnd@@QBEHXZ

; 1052 : 	int iYPos = GetDerivedPosY();

  00018	8b ce		 mov	 ecx, esi
  0001a	8b d8		 mov	 ebx, eax
  0001c	ff 15 00 00 00
	00		 call	 DWORD PTR __imp_?GetDerivedPosY@ioWnd@@QBEHXZ
  00022	89 45 f8	 mov	 DWORD PTR _iYPos$[ebp], eax

; 1053 : 
; 1054 : 	int iRendPage = min( m_iCurPage, m_iMaxPage );

  00025	8b 86 64 01 00
	00		 mov	 eax, DWORD PTR [esi+356]
  0002b	8b b6 68 01 00
	00		 mov	 esi, DWORD PTR [esi+360]
  00031	89 45 fc	 mov	 DWORD PTR _iRendPage$[ebp], eax
  00034	3b c6		 cmp	 eax, esi
  00036	7c 03		 jl	 SHORT $LN4@OnRender
  00038	89 75 fc	 mov	 DWORD PTR _iRendPage$[ebp], esi
$LN4@OnRender:

; 1055 : 
; 1056 : 	g_FontMgr.SetBkColor( 0, 0, 0 );

  0003b	8b 35 00 00 00
	00		 mov	 esi, DWORD PTR __imp_?GetSingleton@ioFontManager@@SAAAV1@XZ
  00041	33 ff		 xor	 edi, edi
  00043	57		 push	 edi
  00044	57		 push	 edi
  00045	57		 push	 edi
  00046	ff d6		 call	 esi
  00048	8b c8		 mov	 ecx, eax
  0004a	ff 15 00 00 00
	00		 call	 DWORD PTR __imp_?SetBkColor@ioFontManager@@QAEXHHH@Z

; 1057 : 	g_FontMgr.SetTextStyle( TS_NORMAL );

  00050	57		 push	 edi
  00051	ff d6		 call	 esi
  00053	8b c8		 mov	 ecx, eax
  00055	ff 15 00 00 00
	00		 call	 DWORD PTR __imp_?SetTextStyle@ioFontManager@@QAEXW4TextStyle@@@Z

; 1058 : 	g_FontMgr.SetAlignType( TAT_CENTER );

  0005b	6a 01		 push	 1
  0005d	ff d6		 call	 esi
  0005f	8b c8		 mov	 ecx, eax
  00061	ff 15 00 00 00
	00		 call	 DWORD PTR __imp_?SetAlignType@ioFontManager@@QAEXW4TextAlignType@@@Z

; 1059 : 	g_FontMgr.SetTextColor( TCT_DEFAULT_DARKGRAY );

  00067	68 3a 3a 3a ff	 push	 -12961222		; ff3a3a3aH
  0006c	ff d6		 call	 esi
  0006e	8b c8		 mov	 ecx, eax
  00070	ff 15 00 00 00
	00		 call	 DWORD PTR __imp_?SetTextColor@ioFontManager@@QAEXK@Z

; 1060 : 	g_FontMgr.PrintText( iXPos + 201, iYPos + 423, FONT_SIZE_12, STR(1), iRendPage );

  00076	ff 75 fc	 push	 DWORD PTR _iRendPage$[ebp]
  00079	57		 push	 edi
  0007a	6a 01		 push	 1
  0007c	68 00 00 00 00	 push	 OFFSET ??_C@_00CNPNBAHC@?$AA@
  00081	68 00 00 00 00	 push	 OFFSET ??_C@_0BH@LDDKIPKP@TradeMainWnd?3?3OnRender?$AA@
  00086	ff 15 00 00 00
	00		 call	 DWORD PTR __imp_?GetSingleton@ioStringManager@@SAAAV1@XZ
  0008c	8b c8		 mov	 ecx, eax
  0008e	ff 15 00 00 00
	00		 call	 DWORD PTR __imp_?GetString@ioStringManager@@QAEPADPBD0HW4FileNamePrefix@1@@Z
  00094	f3 0f 10 05 00
	00 00 00	 movss	 xmm0, DWORD PTR __real@3f19999a
  0009c	50		 push	 eax
  0009d	8b 45 f8	 mov	 eax, DWORD PTR _iYPos$[ebp]
  000a0	83 ec 0c	 sub	 esp, 12			; 0000000cH
  000a3	f3 0f 11 44 24
	08		 movss	 DWORD PTR [esp+8], xmm0
  000a9	0f 57 c0	 xorps	 xmm0, xmm0
  000ac	05 a7 01 00 00	 add	 eax, 423		; 000001a7H
  000b1	f3 0f 2a c0	 cvtsi2ss xmm0, eax
  000b5	f3 0f 11 44 24
	04		 movss	 DWORD PTR [esp+4], xmm0
  000bb	81 c3 c9 00 00
	00		 add	 ebx, 201		; 000000c9H
  000c1	0f 57 c0	 xorps	 xmm0, xmm0
  000c4	f3 0f 2a c3	 cvtsi2ss xmm0, ebx
  000c8	f3 0f 11 04 24	 movss	 DWORD PTR [esp], xmm0
  000cd	ff d6		 call	 esi
  000cf	8b c8		 mov	 ecx, eax
  000d1	ff 15 00 00 00
	00		 call	 DWORD PTR __imp_?PrintText@ioFontManager@@QAEXMMMPBDH@Z
  000d7	5f		 pop	 edi
  000d8	5e		 pop	 esi
  000d9	5b		 pop	 ebx

; 1061 : }

  000da	c9		 leave
  000db	c3		 ret	 0
?OnRender@TradeMainWnd@@MAEXXZ ENDP			; TradeMainWnd::OnRender
_TEXT	ENDS
PUBLIC	?OnRefreshTradeItemList@TradeMainWnd@@QAEXXZ	; TradeMainWnd::OnRefreshTradeItemList
EXTRN	?SyncTradeList@TradeInfoManager@@QAEX_N@Z:PROC	; TradeInfoManager::SyncTradeList
EXTRN	?GetSingleton@TradeInfoManager@@SAAAV1@XZ:PROC	; TradeInfoManager::GetSingleton
; Function compile flags: /Ogsp
;	COMDAT ?OnRefreshTradeItemList@TradeMainWnd@@QAEXXZ
_TEXT	SEGMENT
?OnRefreshTradeItemList@TradeMainWnd@@QAEXXZ PROC	; TradeMainWnd::OnRefreshTradeItemList, COMDAT
; _this$ = ecx

; 1065 : 	g_TradeInfoMgr.SyncTradeList();

  00000	6a 00		 push	 0
  00002	e8 00 00 00 00	 call	 ?GetSingleton@TradeInfoManager@@SAAAV1@XZ ; TradeInfoManager::GetSingleton
  00007	8b c8		 mov	 ecx, eax
  00009	e8 00 00 00 00	 call	 ?SyncTradeList@TradeInfoManager@@QAEX_N@Z ; TradeInfoManager::SyncTradeList

; 1066 : }

  0000e	c3		 ret	 0
?OnRefreshTradeItemList@TradeMainWnd@@QAEXXZ ENDP	; TradeMainWnd::OnRefreshTradeItemList
_TEXT	ENDS
PUBLIC	??1NewShopPullDownItem@@QAE@XZ			; NewShopPullDownItem::~NewShopPullDownItem
;	COMDAT xdata$x
xdata$x	SEGMENT
__unwindtable$??1NewShopPullDownItem@@QAE@XZ DD 0ffffffffH
	DD	FLAT:__unwindfunclet$??1NewShopPullDownItem@@QAE@XZ$0
	DD	00H
	DD	FLAT:__unwindfunclet$??1NewShopPullDownItem@@QAE@XZ$1
__ehfuncinfo$??1NewShopPullDownItem@@QAE@XZ DD 019930522H
	DD	02H
	DD	FLAT:__unwindtable$??1NewShopPullDownItem@@QAE@XZ
	DD	2 DUP(00H)
	DD	2 DUP(00H)
	DD	00H
	DD	01H
; Function compile flags: /Ogsp
xdata$x	ENDS
;	COMDAT ??1NewShopPullDownItem@@QAE@XZ
_TEXT	SEGMENT
_this$ = -16						; size = 4
__$EHRec$ = -12						; size = 12
??1NewShopPullDownItem@@QAE@XZ PROC			; NewShopPullDownItem::~NewShopPullDownItem, COMDAT
; _this$ = ecx
  00000	6a 04		 push	 4
  00002	b8 00 00 00 00	 mov	 eax, __ehhandler$??1NewShopPullDownItem@@QAE@XZ
  00007	e8 00 00 00 00	 call	 __EH_prolog3
  0000c	8b f9		 mov	 edi, ecx
  0000e	89 7d f0	 mov	 DWORD PTR _this$[ebp], edi
  00011	8b 35 00 00 00
	00		 mov	 esi, DWORD PTR __imp_??1ioHashString@@QAE@XZ
  00017	8d 4f 3c	 lea	 ecx, DWORD PTR [edi+60]
  0001a	c7 45 fc 01 00
	00 00		 mov	 DWORD PTR __$EHRec$[ebp+8], 1
  00021	ff d6		 call	 esi
  00023	8d 4f 24	 lea	 ecx, DWORD PTR [edi+36]
  00026	c6 45 fc 00	 mov	 BYTE PTR __$EHRec$[ebp+8], 0
  0002a	ff d6		 call	 esi
  0002c	83 4d fc ff	 or	 DWORD PTR __$EHRec$[ebp+8], -1
  00030	8b cf		 mov	 ecx, edi
  00032	ff d6		 call	 esi
  00034	e8 00 00 00 00	 call	 __EH_epilog3
  00039	c3		 ret	 0
_TEXT	ENDS
;	COMDAT text$x
text$x	SEGMENT
__unwindfunclet$??1NewShopPullDownItem@@QAE@XZ$0:
  00000	8b 4d f0	 mov	 ecx, DWORD PTR _this$[ebp]
  00003	ff 25 00 00 00
	00		 jmp	 DWORD PTR __imp_??1ioHashString@@QAE@XZ
__unwindfunclet$??1NewShopPullDownItem@@QAE@XZ$1:
  00009	8b 4d f0	 mov	 ecx, DWORD PTR _this$[ebp]
  0000c	83 c1 24	 add	 ecx, 36			; 00000024H
  0000f	ff 25 00 00 00
	00		 jmp	 DWORD PTR __imp_??1ioHashString@@QAE@XZ
__ehhandler$??1NewShopPullDownItem@@QAE@XZ:
  00015	8b 54 24 08	 mov	 edx, DWORD PTR [esp+8]
  00019	8d 42 0c	 lea	 eax, DWORD PTR [edx+12]
  0001c	8b 4a ec	 mov	 ecx, DWORD PTR [edx-20]
  0001f	33 c8		 xor	 ecx, eax
  00021	e8 00 00 00 00	 call	 @__security_check_cookie@4
  00026	b8 00 00 00 00	 mov	 eax, OFFSET __ehfuncinfo$??1NewShopPullDownItem@@QAE@XZ
  0002b	e9 00 00 00 00	 jmp	 ___CxxFrameHandler3
text$x	ENDS
??1NewShopPullDownItem@@QAE@XZ ENDP			; NewShopPullDownItem::~NewShopPullDownItem
PUBLIC	?PrevPage@TradeMainWnd@@IAEXXZ			; TradeMainWnd::PrevPage
; Function compile flags: /Ogsp
;	COMDAT ?PrevPage@TradeMainWnd@@IAEXXZ
_TEXT	SEGMENT
?PrevPage@TradeMainWnd@@IAEXXZ PROC			; TradeMainWnd::PrevPage, COMDAT
; _this$ = ecx

; 1426 : 	if(  0 < m_iCurPage - 1 )

  00000	8d 81 64 01 00
	00		 lea	 eax, DWORD PTR [ecx+356]
  00006	8b 08		 mov	 ecx, DWORD PTR [eax]
  00008	49		 dec	 ecx
  00009	85 c9		 test	 ecx, ecx
  0000b	7e 02		 jle	 SHORT $LN1@PrevPage

; 1427 : 		m_iCurPage--;

  0000d	89 08		 mov	 DWORD PTR [eax], ecx
$LN1@PrevPage:

; 1428 : }

  0000f	c3		 ret	 0
?PrevPage@TradeMainWnd@@IAEXXZ ENDP			; TradeMainWnd::PrevPage
_TEXT	ENDS
PUBLIC	?NextPage@TradeMainWnd@@IAEXXZ			; TradeMainWnd::NextPage
; Function compile flags: /Ogsp
;	COMDAT ?NextPage@TradeMainWnd@@IAEXXZ
_TEXT	SEGMENT
?NextPage@TradeMainWnd@@IAEXXZ PROC			; TradeMainWnd::NextPage, COMDAT
; _this$ = ecx

; 1432 : 	if( m_iCurPage +1 <= m_iMaxPage )

  00000	8b 91 64 01 00
	00		 mov	 edx, DWORD PTR [ecx+356]
  00006	42		 inc	 edx
  00007	3b 91 68 01 00
	00		 cmp	 edx, DWORD PTR [ecx+360]
  0000d	7f 06		 jg	 SHORT $LN1@NextPage

; 1433 : 		m_iCurPage++;

  0000f	89 91 64 01 00
	00		 mov	 DWORD PTR [ecx+356], edx
$LN1@NextPage:

; 1434 : }

  00015	c3		 ret	 0
?NextPage@TradeMainWnd@@IAEXXZ ENDP			; TradeMainWnd::NextPage
_TEXT	ENDS
PUBLIC	??_7LobbyTradeItemCustomBtn@@6B@		; LobbyTradeItemCustomBtn::`vftable'
PUBLIC	??0LobbyTradeItemCustomBtn@@QAE@XZ		; LobbyTradeItemCustomBtn::LobbyTradeItemCustomBtn
PUBLIC	??_R4LobbyTradeItemCustomBtn@@6B@		; LobbyTradeItemCustomBtn::`RTTI Complete Object Locator'
PUBLIC	??_R0?AVLobbyTradeItemCustomBtn@@@8		; LobbyTradeItemCustomBtn `RTTI Type Descriptor'
PUBLIC	??_R3LobbyTradeItemCustomBtn@@8			; LobbyTradeItemCustomBtn::`RTTI Class Hierarchy Descriptor'
PUBLIC	??_R2LobbyTradeItemCustomBtn@@8			; LobbyTradeItemCustomBtn::`RTTI Base Class Array'
PUBLIC	??_R1A@?0A@EA@LobbyTradeItemCustomBtn@@8	; LobbyTradeItemCustomBtn::`RTTI Base Class Descriptor at (0,-1,0,64)'
PUBLIC	??_R1A@?0A@EA@ioButton@@8			; ioButton::`RTTI Base Class Descriptor at (0,-1,0,64)'
PUBLIC	??_R0?AVioButton@@@8				; ioButton `RTTI Type Descriptor'
PUBLIC	??_R3ioButton@@8				; ioButton::`RTTI Class Hierarchy Descriptor'
PUBLIC	??_R2ioButton@@8				; ioButton::`RTTI Base Class Array'
PUBLIC	?AddRenderImage@LobbyTradeItemCustomBtn@@MAEXABVioHashString@@PAVioUIRenderImage@@@Z ; LobbyTradeItemCustomBtn::AddRenderImage
PUBLIC	?OnRender@LobbyTradeItemCustomBtn@@MAEXXZ	; LobbyTradeItemCustomBtn::OnRender
EXTRN	__imp_??0ioButton@@QAE@XZ:PROC
EXTRN	?AddRenderFrame@ioButton@@UAEXABVioHashString@@PAVioUIRenderFrame@@@Z:PROC ; ioButton::AddRenderFrame
EXTRN	?ParseExtraInfo@ioButton@@UAEXAAVioXMLElement@@@Z:PROC ; ioButton::ParseExtraInfo
EXTRN	?SetWindowAlpha@ioButton@@UAEXH@Z:PROC		; ioButton::SetWindowAlpha
EXTRN	?SetPositionToDefault@ioWnd@@UAEXHH_N0@Z:PROC	; ioWnd::SetPositionToDefault
EXTRN	?OnMouseProcess@ioWnd@@MAEXABVioMouse@@@Z:PROC	; ioWnd::OnMouseProcess
EXTRN	?CheckFrameReSize@ioButton@@MAEXHHHH@Z:PROC	; ioButton::CheckFrameReSize
EXTRN	?iwm_lbuttondown@ioButton@@UAEXABVioMouse@@@Z:PROC ; ioButton::iwm_lbuttondown
EXTRN	?iwm_lbuttonup@ioButton@@UAEXABVioMouse@@@Z:PROC ; ioButton::iwm_lbuttonup
EXTRN	?iwm_lbuttonDBLCLK@ioButton@@UAEXABVioMouse@@@Z:PROC ; ioButton::iwm_lbuttonDBLCLK
EXTRN	?iwm_rbuttondown@ioButton@@UAEXABVioMouse@@@Z:PROC ; ioButton::iwm_rbuttondown
EXTRN	?iwm_rbuttonup@ioButton@@UAEXABVioMouse@@@Z:PROC ; ioButton::iwm_rbuttonup
EXTRN	?iwm_command@ioWnd@@UAEXPAV1@HK@Z:PROC		; ioWnd::iwm_command
EXTRN	?iwm_mouseover@ioButton@@UAEXABVioMouse@@@Z:PROC ; ioButton::iwm_mouseover
EXTRN	?GetWndType@ioButton@@UBEKXZ:PROC		; ioButton::GetWndType
EXTRN	?GetHeaderFileName@ioButton@@UAEPBDXZ:PROC	; ioButton::GetHeaderFileName
EXTRN	?GetTemplateName@ioButton@@UAEPBDXZ:PROC	; ioButton::GetTemplateName
EXTRN	?GetDefClassName@ioButton@@UBEPBDXZ:PROC	; ioButton::GetDefClassName
EXTRN	?_Clone@ioButton@@UAEPAVioWnd@@XZ:PROC		; ioButton::_Clone
EXTRN	?Copy@ioButton@@UAEXPAVioWnd@@@Z:PROC		; ioButton::Copy
EXTRN	?SetSaveData@ioButton@@UAEXAAVioXMLElement@@@Z:PROC ; ioButton::SetSaveData
EXTRN	?GetNumFixedRenderFrame@ioButton@@UBEHXZ:PROC	; ioButton::GetNumFixedRenderFrame
EXTRN	?GetFixedRenderFrameType@ioButton@@UAEPBDH@Z:PROC ; ioButton::GetFixedRenderFrameType
EXTRN	?GetRenderFrame@ioButton@@UAEPAPAVioUIRenderElement@@PBD@Z:PROC ; ioButton::GetRenderFrame
EXTRN	?GetNumFixedRenderImage@ioButton@@UBEHXZ:PROC	; ioButton::GetNumFixedRenderImage
EXTRN	?GetFixedRenderImageType@ioButton@@UAEPBDH@Z:PROC ; ioButton::GetFixedRenderImageType
EXTRN	?GetRenderImage@ioButton@@UAEPAPAVioUIRenderElement@@PBD@Z:PROC ; ioButton::GetRenderImage
EXTRN	??_ELobbyTradeItemCustomBtn@@UAEPAXI@Z:PROC	; LobbyTradeItemCustomBtn::`vector deleting destructor'
EXTRN	?OnDrawNormal@ioButton@@MAEXHH@Z:PROC		; ioButton::OnDrawNormal
EXTRN	?OnDrawOvered@ioButton@@MAEXHH@Z:PROC		; ioButton::OnDrawOvered
EXTRN	?OnDrawOveredAdd@ioButton@@MAEXHH@Z:PROC	; ioButton::OnDrawOveredAdd
EXTRN	?OnDrawPushed@ioButton@@MAEXHH@Z:PROC		; ioButton::OnDrawPushed
EXTRN	?OnDrawDisabled@ioButton@@MAEXHH@Z:PROC		; ioButton::OnDrawDisabled
EXTRN	?OnDrawExDisabledNormal@ioButton@@MAEXHH@Z:PROC	; ioButton::OnDrawExDisabledNormal
EXTRN	?OnDrawExDisabledOvered@ioButton@@MAEXHH@Z:PROC	; ioButton::OnDrawExDisabledOvered
EXTRN	?OnDrawExDisabledPushed@ioButton@@MAEXHH@Z:PROC	; ioButton::OnDrawExDisabledPushed
EXTRN	?OnDrawBack@ioButton@@MAEXHH@Z:PROC		; ioButton::OnDrawBack
EXTRN	?OnDrawNormalList@ioButton@@MAEXHH@Z:PROC	; ioButton::OnDrawNormalList
EXTRN	?OnDrawDisableList@ioButton@@MAEXHH@Z:PROC	; ioButton::OnDrawDisableList
;	COMDAT ??_R2ioButton@@8
rdata$r	SEGMENT
??_R2ioButton@@8 DD FLAT:??_R1A@?0A@EA@ioButton@@8	; ioButton::`RTTI Base Class Array'
	DD	FLAT:??_R1A@?0A@EA@ioWnd@@8
rdata$r	ENDS
;	COMDAT ??_R3ioButton@@8
rdata$r	SEGMENT
??_R3ioButton@@8 DD 00H					; ioButton::`RTTI Class Hierarchy Descriptor'
	DD	00H
	DD	02H
	DD	FLAT:??_R2ioButton@@8
rdata$r	ENDS
;	COMDAT ??_R0?AVioButton@@@8
_DATA	SEGMENT
??_R0?AVioButton@@@8 DD FLAT:??_7type_info@@6B@		; ioButton `RTTI Type Descriptor'
	DD	00H
	DB	'.?AVioButton@@', 00H
_DATA	ENDS
;	COMDAT ??_R1A@?0A@EA@ioButton@@8
rdata$r	SEGMENT
??_R1A@?0A@EA@ioButton@@8 DD FLAT:??_R0?AVioButton@@@8	; ioButton::`RTTI Base Class Descriptor at (0,-1,0,64)'
	DD	01H
	DD	00H
	DD	0ffffffffH
	DD	00H
	DD	040H
	DD	FLAT:??_R3ioButton@@8
rdata$r	ENDS
;	COMDAT ??_R1A@?0A@EA@LobbyTradeItemCustomBtn@@8
rdata$r	SEGMENT
??_R1A@?0A@EA@LobbyTradeItemCustomBtn@@8 DD FLAT:??_R0?AVLobbyTradeItemCustomBtn@@@8 ; LobbyTradeItemCustomBtn::`RTTI Base Class Descriptor at (0,-1,0,64)'
	DD	02H
	DD	00H
	DD	0ffffffffH
	DD	00H
	DD	040H
	DD	FLAT:??_R3LobbyTradeItemCustomBtn@@8
rdata$r	ENDS
;	COMDAT ??_R2LobbyTradeItemCustomBtn@@8
rdata$r	SEGMENT
??_R2LobbyTradeItemCustomBtn@@8 DD FLAT:??_R1A@?0A@EA@LobbyTradeItemCustomBtn@@8 ; LobbyTradeItemCustomBtn::`RTTI Base Class Array'
	DD	FLAT:??_R1A@?0A@EA@ioButton@@8
	DD	FLAT:??_R1A@?0A@EA@ioWnd@@8
rdata$r	ENDS
;	COMDAT ??_R3LobbyTradeItemCustomBtn@@8
rdata$r	SEGMENT
??_R3LobbyTradeItemCustomBtn@@8 DD 00H			; LobbyTradeItemCustomBtn::`RTTI Class Hierarchy Descriptor'
	DD	00H
	DD	03H
	DD	FLAT:??_R2LobbyTradeItemCustomBtn@@8
rdata$r	ENDS
;	COMDAT ??_R0?AVLobbyTradeItemCustomBtn@@@8
_DATA	SEGMENT
??_R0?AVLobbyTradeItemCustomBtn@@@8 DD FLAT:??_7type_info@@6B@ ; LobbyTradeItemCustomBtn `RTTI Type Descriptor'
	DD	00H
	DB	'.?AVLobbyTradeItemCustomBtn@@', 00H
_DATA	ENDS
;	COMDAT ??_R4LobbyTradeItemCustomBtn@@6B@
rdata$r	SEGMENT
??_R4LobbyTradeItemCustomBtn@@6B@ DD 00H		; LobbyTradeItemCustomBtn::`RTTI Complete Object Locator'
	DD	00H
	DD	00H
	DD	FLAT:??_R0?AVLobbyTradeItemCustomBtn@@@8
	DD	FLAT:??_R3LobbyTradeItemCustomBtn@@8
rdata$r	ENDS
;	COMDAT ??_7LobbyTradeItemCustomBtn@@6B@
CONST	SEGMENT
??_7LobbyTradeItemCustomBtn@@6B@ DD FLAT:??_R4LobbyTradeItemCustomBtn@@6B@ ; LobbyTradeItemCustomBtn::`vftable'
	DD	FLAT:?AddRenderFrame@ioButton@@UAEXABVioHashString@@PAVioUIRenderFrame@@@Z
	DD	FLAT:?AddRenderImage@LobbyTradeItemCustomBtn@@MAEXABVioHashString@@PAVioUIRenderImage@@@Z
	DD	FLAT:?AddTooltipHelp@ioWnd@@UAEXABVioHashString@@00@Z
	DD	FLAT:?ParseExtraInfo@ioButton@@UAEXAAVioXMLElement@@@Z
	DD	FLAT:?AddNamedRenderImage@ioWnd@@UAEXABVioHashString@@PAVioUIRenderImage@@@Z
	DD	FLAT:?RemoveNamedRenderImage@ioWnd@@UAEXABVioHashString@@@Z
	DD	FLAT:?GetNamedRenderImage@ioWnd@@UBEPAVioUIRenderImage@@ABVioHashString@@@Z
	DD	FLAT:?SetWindowAlpha@ioButton@@UAEXH@Z
	DD	FLAT:?SetActive@ioWnd@@UAEXXZ
	DD	FLAT:?SetInActive@ioWnd@@UAEXXZ
	DD	FLAT:?ClearElementImageList@ioWnd@@UAEXXZ
	DD	FLAT:?SetSize@ioWnd@@UAEXHH@Z
	DD	FLAT:?SetPositionToDefault@ioWnd@@UAEXHH_N0@Z
	DD	FLAT:?IsNeedProcess@ioWnd@@UBE_NXZ
	DD	FLAT:?IsCanMouseReaction@ioWnd@@UBE_NXZ
	DD	FLAT:?AddChild@ioWnd@@UAEXPAV1@@Z
	DD	FLAT:?DeleteChild@ioWnd@@UAEXK@Z
	DD	FLAT:?DeleteAllChild@ioWnd@@UAEXXZ
	DD	FLAT:?OnRenderShowAndHide@ioWnd@@MAE_NXZ
	DD	FLAT:?OnRenderShowAndHideByDefault@ioWnd@@MAE_NK@Z
	DD	FLAT:?OnRenderShowAndHideByTop@ioWnd@@MAE_NK@Z
	DD	FLAT:?OnRenderShowAndHideByDown@ioWnd@@MAE_NK@Z
	DD	FLAT:?OnRender@LobbyTradeItemCustomBtn@@MAEXXZ
	DD	FLAT:?OnRenderAfterChild@ioWnd@@MAEXXZ
	DD	FLAT:?OnProcess@ioWnd@@MAEXM@Z
	DD	FLAT:?OnMouseProcess@ioWnd@@MAEXABVioMouse@@@Z
	DD	FLAT:?CheckFrameReSize@ioButton@@MAEXHHHH@Z
	DD	FLAT:?RenderImageList@ioWnd@@MAEXHHW4UIRenderType@@@Z
	DD	FLAT:?iwm_create@ioWnd@@UAEXXZ
	DD	FLAT:?iwm_destroy@ioWnd@@UAEXXZ
	DD	FLAT:?iwm_lbuttondown@ioButton@@UAEXABVioMouse@@@Z
	DD	FLAT:?iwm_lbuttonup@ioButton@@UAEXABVioMouse@@@Z
	DD	FLAT:?iwm_lbuttonDBLCLK@ioButton@@UAEXABVioMouse@@@Z
	DD	FLAT:?iwm_rbuttondown@ioButton@@UAEXABVioMouse@@@Z
	DD	FLAT:?iwm_rbuttonup@ioButton@@UAEXABVioMouse@@@Z
	DD	FLAT:?iwm_command@ioWnd@@UAEXPAV1@HK@Z
	DD	FLAT:?iwm_mouseover@ioButton@@UAEXABVioMouse@@@Z
	DD	FLAT:?iwm_mousemove@ioWnd@@UAEXABVioMouse@@@Z
	DD	FLAT:?iwm_mouseleave@ioWnd@@UAEXABVioMouse@@@Z
	DD	FLAT:?iwm_vscroll@ioWnd@@UAEXKH@Z
	DD	FLAT:?iwm_wheel@ioWnd@@UAEXH@Z
	DD	FLAT:?iwm_show@ioWnd@@UAEXXZ
	DD	FLAT:?iwm_hide@ioWnd@@UAEXXZ
	DD	FLAT:?iwm_esc@ioWnd@@UAE_NXZ
	DD	FLAT:?iwm_spacebar@ioWnd@@UAE_NXZ
	DD	FLAT:?iwm_gototop@ioWnd@@UAEXXZ
	DD	FLAT:?iwm_dragenter@ioWnd@@UAE?AW4IWDropEffect@@PAVioDragItem@@ABVioMouse@@@Z
	DD	FLAT:?iwm_dragover@ioWnd@@UAE?AW4IWDropEffect@@PAVioDragItem@@ABVioMouse@@@Z
	DD	FLAT:?iwm_dragleave@ioWnd@@UAEXXZ
	DD	FLAT:?iwm_dropitem@ioWnd@@UAE_NPAVioDragItem@@ABVioMouse@@PAV1@@Z
	DD	FLAT:?iwm_dropdone@ioWnd@@UAEXPAVioDragItem@@PAV1@_N@Z
	DD	FLAT:?IsEXType@ioWnd@@UBE_NXZ
	DD	FLAT:?GetWndType@ioButton@@UBEKXZ
	DD	FLAT:?RenderWnd@ioWnd@@UAEXXZ
	DD	FLAT:?SetIDEX@ioWnd@@UAEXAAK_N@Z
	DD	FLAT:?ParseXML@ioWnd@@UAEXAAVioXMLElement@@@Z
	DD	FLAT:?GetHeaderFileName@ioButton@@UAEPBDXZ
	DD	FLAT:?GetTemplateName@ioButton@@UAEPBDXZ
	DD	FLAT:?GetDefClassName@ioButton@@UBEPBDXZ
	DD	FLAT:?_Clone@ioButton@@UAEPAVioWnd@@XZ
	DD	FLAT:?Copy@ioButton@@UAEXPAVioWnd@@@Z
	DD	FLAT:?Save@ioWnd@@UAE_NAAVioXMLElement@@@Z
	DD	FLAT:?SetSaveData@ioButton@@UAEXAAVioXMLElement@@@Z
	DD	FLAT:?SetPosX@ioWnd@@UAEXH@Z
	DD	FLAT:?SetPosY@ioWnd@@UAEXH@Z
	DD	FLAT:?SetWidth@ioWnd@@UAEXH@Z
	DD	FLAT:?SetHeight@ioWnd@@UAEXH@Z
	DD	FLAT:?GetNumFixedRenderFrame@ioButton@@UBEHXZ
	DD	FLAT:?GetFixedRenderFrameType@ioButton@@UAEPBDH@Z
	DD	FLAT:?GetRenderFrame@ioButton@@UAEPAPAVioUIRenderElement@@PBD@Z
	DD	FLAT:?GetNumFixedRenderImage@ioButton@@UBEHXZ
	DD	FLAT:?GetFixedRenderImageType@ioButton@@UAEPBDH@Z
	DD	FLAT:?GetRenderImage@ioButton@@UAEPAPAVioUIRenderElement@@PBD@Z
	DD	FLAT:?AddEffect@ioWnd@@UAEXABVioHashString@@PAVioUI3DEffectRender@@@Z
	DD	FLAT:?GetEffect@ioWnd@@UAEPAVioUI3DEffectRender@@VioHashString@@@Z
	DD	FLAT:??_ELobbyTradeItemCustomBtn@@UAEPAXI@Z
	DD	FLAT:?OnDrawNormal@ioButton@@MAEXHH@Z
	DD	FLAT:?OnDrawOvered@ioButton@@MAEXHH@Z
	DD	FLAT:?OnDrawOveredAdd@ioButton@@MAEXHH@Z
	DD	FLAT:?OnDrawPushed@ioButton@@MAEXHH@Z
	DD	FLAT:?OnDrawDisabled@ioButton@@MAEXHH@Z
	DD	FLAT:?OnDrawExDisabledNormal@ioButton@@MAEXHH@Z
	DD	FLAT:?OnDrawExDisabledOvered@ioButton@@MAEXHH@Z
	DD	FLAT:?OnDrawExDisabledPushed@ioButton@@MAEXHH@Z
	DD	FLAT:?OnDrawBack@ioButton@@MAEXHH@Z
	DD	FLAT:?OnDrawNormalList@ioButton@@MAEXHH@Z
	DD	FLAT:?OnDrawDisableList@ioButton@@MAEXHH@Z
; Function compile flags: /Ogsp
CONST	ENDS
;	COMDAT ??0LobbyTradeItemCustomBtn@@QAE@XZ
_TEXT	SEGMENT
??0LobbyTradeItemCustomBtn@@QAE@XZ PROC			; LobbyTradeItemCustomBtn::LobbyTradeItemCustomBtn, COMDAT
; _this$ = ecx

; 1438 : {

  00000	56		 push	 esi
  00001	8b f1		 mov	 esi, ecx
  00003	ff 15 00 00 00
	00		 call	 DWORD PTR __imp_??0ioButton@@QAE@XZ

; 1439 : 	m_pCustomImg = NULL;

  00009	83 a6 fc 01 00
	00 00		 and	 DWORD PTR [esi+508], 0
  00010	c7 06 00 00 00
	00		 mov	 DWORD PTR [esi], OFFSET ??_7LobbyTradeItemCustomBtn@@6B@

; 1440 : }

  00016	8b c6		 mov	 eax, esi
  00018	5e		 pop	 esi
  00019	c3		 ret	 0
??0LobbyTradeItemCustomBtn@@QAE@XZ ENDP			; LobbyTradeItemCustomBtn::LobbyTradeItemCustomBtn
_TEXT	ENDS
PUBLIC	??1LobbyTradeItemCustomBtn@@UAE@XZ		; LobbyTradeItemCustomBtn::~LobbyTradeItemCustomBtn
EXTRN	__imp_??1ioButton@@UAE@XZ:PROC
;	COMDAT xdata$x
xdata$x	SEGMENT
__unwindtable$??1LobbyTradeItemCustomBtn@@UAE@XZ DD 0ffffffffH
	DD	FLAT:__unwindfunclet$??1LobbyTradeItemCustomBtn@@UAE@XZ$0
__ehfuncinfo$??1LobbyTradeItemCustomBtn@@UAE@XZ DD 019930522H
	DD	01H
	DD	FLAT:__unwindtable$??1LobbyTradeItemCustomBtn@@UAE@XZ
	DD	2 DUP(00H)
	DD	2 DUP(00H)
	DD	00H
	DD	01H
; Function compile flags: /Ogsp
xdata$x	ENDS
;	COMDAT ??1LobbyTradeItemCustomBtn@@UAE@XZ
_TEXT	SEGMENT
_this$ = -16						; size = 4
__$EHRec$ = -12						; size = 12
??1LobbyTradeItemCustomBtn@@UAE@XZ PROC			; LobbyTradeItemCustomBtn::~LobbyTradeItemCustomBtn, COMDAT
; _this$ = ecx

; 1443 : {

  00000	6a 04		 push	 4
  00002	b8 00 00 00 00	 mov	 eax, __ehhandler$??1LobbyTradeItemCustomBtn@@UAE@XZ
  00007	e8 00 00 00 00	 call	 __EH_prolog3
  0000c	8b f9		 mov	 edi, ecx
  0000e	89 7d f0	 mov	 DWORD PTR _this$[ebp], edi
  00011	c7 07 00 00 00
	00		 mov	 DWORD PTR [edi], OFFSET ??_7LobbyTradeItemCustomBtn@@6B@

; 1444 : 	SAFEDELETE( m_pCustomImg );

  00017	8b 8f fc 01 00
	00		 mov	 ecx, DWORD PTR [edi+508]
  0001d	83 65 fc 00	 and	 DWORD PTR __$EHRec$[ebp+8], 0
  00021	85 c9		 test	 ecx, ecx
  00023	74 0e		 je	 SHORT $LN1@LobbyTrade
  00025	8b 01		 mov	 eax, DWORD PTR [ecx]
  00027	6a 01		 push	 1
  00029	ff 50 40	 call	 DWORD PTR [eax+64]
  0002c	83 a7 fc 01 00
	00 00		 and	 DWORD PTR [edi+508], 0
$LN1@LobbyTrade:

; 1445 : }

  00033	83 4d fc ff	 or	 DWORD PTR __$EHRec$[ebp+8], -1
  00037	8b cf		 mov	 ecx, edi
  00039	ff 15 00 00 00
	00		 call	 DWORD PTR __imp_??1ioButton@@UAE@XZ
  0003f	e8 00 00 00 00	 call	 __EH_epilog3
  00044	c3		 ret	 0
_TEXT	ENDS
;	COMDAT text$x
text$x	SEGMENT
__unwindfunclet$??1LobbyTradeItemCustomBtn@@UAE@XZ$0:
  00000	8b 4d f0	 mov	 ecx, DWORD PTR _this$[ebp]
  00003	ff 25 00 00 00
	00		 jmp	 DWORD PTR __imp_??1ioButton@@UAE@XZ
__ehhandler$??1LobbyTradeItemCustomBtn@@UAE@XZ:
  00009	8b 54 24 08	 mov	 edx, DWORD PTR [esp+8]
  0000d	8d 42 0c	 lea	 eax, DWORD PTR [edx+12]
  00010	8b 4a ec	 mov	 ecx, DWORD PTR [edx-20]
  00013	33 c8		 xor	 ecx, eax
  00015	e8 00 00 00 00	 call	 @__security_check_cookie@4
  0001a	b8 00 00 00 00	 mov	 eax, OFFSET __ehfuncinfo$??1LobbyTradeItemCustomBtn@@UAE@XZ
  0001f	e9 00 00 00 00	 jmp	 ___CxxFrameHandler3
text$x	ENDS
??1LobbyTradeItemCustomBtn@@UAE@XZ ENDP			; LobbyTradeItemCustomBtn::~LobbyTradeItemCustomBtn
PUBLIC	__real@4f800000
EXTRN	__imp_?OnRender@ioButton@@MAEXXZ:PROC
;	COMDAT __real@4f800000
; File d:\lost saga for developer\youtube\tutorial\source\src\lsclient\stdafx.h
CONST	SEGMENT
__real@4f800000 DD 04f800000r			; 4.29497e+009
; Function compile flags: /Ogsp
; File d:\lost saga for developer\youtube\tutorial\source\src\lsclient\gui\trademainwnd.cpp
CONST	ENDS
;	COMDAT ?OnRender@LobbyTradeItemCustomBtn@@MAEXXZ
_TEXT	SEGMENT
tv257 = -12						; size = 4
tv253 = -12						; size = 4
tv249 = -8						; size = 4
_iYPos$ = -8						; size = 4
tv251 = -4						; size = 4
tv247 = -4						; size = 4
$T523143 = -4						; size = 4
?OnRender@LobbyTradeItemCustomBtn@@MAEXXZ PROC		; LobbyTradeItemCustomBtn::OnRender, COMDAT
; _this$ = ecx

; 1461 : {

  00000	55		 push	 ebp
  00001	8b ec		 mov	 ebp, esp
  00003	83 ec 0c	 sub	 esp, 12			; 0000000cH
  00006	53		 push	 ebx
  00007	56		 push	 esi
  00008	57		 push	 edi
  00009	8b f1		 mov	 esi, ecx

; 1462 : 	ioButton::OnRender();

  0000b	ff 15 00 00 00
	00		 call	 DWORD PTR __imp_?OnRender@ioButton@@MAEXXZ

; 1463 : 
; 1464 : 	int iXPos = GetDerivedPosX();

  00011	8b ce		 mov	 ecx, esi
  00013	ff 15 00 00 00
	00		 call	 DWORD PTR __imp_?GetDerivedPosX@ioWnd@@QBEHXZ

; 1465 : 	int iYPos = GetDerivedPosY();

  00019	8b ce		 mov	 ecx, esi
  0001b	8b f8		 mov	 edi, eax
  0001d	ff 15 00 00 00
	00		 call	 DWORD PTR __imp_?GetDerivedPosY@ioWnd@@QBEHXZ

; 1466 : 
; 1467 : 	if( m_pCustomImg )

  00023	33 db		 xor	 ebx, ebx
  00025	89 45 f8	 mov	 DWORD PTR _iYPos$[ebp], eax
  00028	39 9e fc 01 00
	00		 cmp	 DWORD PTR [esi+508], ebx
  0002e	0f 84 ba 00 00
	00		 je	 $LN2@OnRender@2

; 1468 : 	{
; 1469 : 		m_pCustomImg->SetScale( FLOAT05 );

  00034	b8 05 00 00 00	 mov	 eax, 5
  00039	8b d0		 mov	 edx, eax
  0003b	b8 0a 00 00 00	 mov	 eax, 10			; 0000000aH
  00040	8b 8e fc 01 00
	00		 mov	 ecx, DWORD PTR [esi+508]
  00046	89 55 f4	 mov	 DWORD PTR tv257[ebp], edx
  00049	db 45 f4	 fild	 DWORD PTR tv257[ebp]
  0004c	89 45 fc	 mov	 DWORD PTR $T523143[ebp], eax
  0004f	8b 01		 mov	 eax, DWORD PTR [ecx]
  00051	85 d2		 test	 edx, edx
  00053	79 06		 jns	 SHORT $LN10@OnRender@2
  00055	d8 05 00 00 00
	00		 fadd	 DWORD PTR __real@4f800000
$LN10@OnRender@2:
  0005b	8b 55 fc	 mov	 edx, DWORD PTR $T523143[ebp]
  0005e	db 45 fc	 fild	 DWORD PTR $T523143[ebp]
  00061	85 d2		 test	 edx, edx
  00063	79 06		 jns	 SHORT $LN11@OnRender@2
  00065	d8 05 00 00 00
	00		 fadd	 DWORD PTR __real@4f800000
$LN11@OnRender@2:
  0006b	de f9		 fdivp	 ST(1), ST(0)
  0006d	51		 push	 ecx
  0006e	d9 5d fc	 fstp	 DWORD PTR tv247[ebp]
  00071	d9 45 fc	 fld	 DWORD PTR tv247[ebp]
  00074	d9 1c 24	 fstp	 DWORD PTR [esp]
  00077	ff 50 1c	 call	 DWORD PTR [eax+28]

; 1470 : 		m_pCustomImg->Render( iXPos - 10, iYPos - 8, UI_RENDER_NORMAL, TFO_BILINEAR );

  0007a	8b 8e fc 01 00
	00		 mov	 ecx, DWORD PTR [esi+508]
  00080	8b 45 f8	 mov	 eax, DWORD PTR _iYPos$[ebp]
  00083	53		 push	 ebx
  00084	53		 push	 ebx
  00085	6a 01		 push	 1
  00087	53		 push	 ebx
  00088	83 c0 f8	 add	 eax, -8			; fffffff8H
  0008b	51		 push	 ecx
  0008c	51		 push	 ecx
  0008d	0f 57 c0	 xorps	 xmm0, xmm0
  00090	f3 0f 2a c0	 cvtsi2ss xmm0, eax
  00094	8b 01		 mov	 eax, DWORD PTR [ecx]
  00096	83 c7 f6	 add	 edi, -10		; fffffff6H
  00099	0f 57 c9	 xorps	 xmm1, xmm1
  0009c	f3 0f 2a cf	 cvtsi2ss xmm1, edi
  000a0	f3 0f 11 44 24
	04		 movss	 DWORD PTR [esp+4], xmm0
  000a6	f3 0f 11 45 f8	 movss	 DWORD PTR tv249[ebp], xmm0
  000ab	f3 0f 11 4d fc	 movss	 DWORD PTR tv251[ebp], xmm1
  000b0	f3 0f 11 0c 24	 movss	 DWORD PTR [esp], xmm1
  000b5	ff 10		 call	 DWORD PTR [eax]

; 1471 : 		if( m_bOver || m_bClicked )

  000b7	38 9e a8 00 00
	00		 cmp	 BYTE PTR [esi+168], bl
  000bd	75 08		 jne	 SHORT $LN1@OnRender@2
  000bf	38 9e a6 00 00
	00		 cmp	 BYTE PTR [esi+166], bl
  000c5	74 27		 je	 SHORT $LN2@OnRender@2
$LN1@OnRender@2:

; 1472 : 			m_pCustomImg->Render( iXPos - 10, iYPos - 8, UI_RENDER_SCREEN, TFO_BILINEAR );

  000c7	8b 8e fc 01 00
	00		 mov	 ecx, DWORD PTR [esi+508]
  000cd	f3 0f 10 45 f8	 movss	 xmm0, DWORD PTR tv249[ebp]
  000d2	8b 01		 mov	 eax, DWORD PTR [ecx]
  000d4	53		 push	 ebx
  000d5	53		 push	 ebx
  000d6	6a 01		 push	 1
  000d8	6a 01		 push	 1
  000da	51		 push	 ecx
  000db	51		 push	 ecx
  000dc	f3 0f 11 44 24
	04		 movss	 DWORD PTR [esp+4], xmm0
  000e2	f3 0f 10 45 fc	 movss	 xmm0, DWORD PTR tv251[ebp]
  000e7	f3 0f 11 04 24	 movss	 DWORD PTR [esp], xmm0
  000ec	ff 10		 call	 DWORD PTR [eax]
$LN2@OnRender@2:
  000ee	5f		 pop	 edi
  000ef	5e		 pop	 esi
  000f0	5b		 pop	 ebx

; 1473 : 	}
; 1474 : }

  000f1	c9		 leave
  000f2	c3		 ret	 0
?OnRender@LobbyTradeItemCustomBtn@@MAEXXZ ENDP		; LobbyTradeItemCustomBtn::OnRender
_TEXT	ENDS
PUBLIC	?ClearDesc@LobbyTradeItemBtn@@IAEXXZ		; LobbyTradeItemBtn::ClearDesc
; Function compile flags: /Ogsp
;	COMDAT ?ClearDesc@LobbyTradeItemBtn@@IAEXXZ
_TEXT	SEGMENT
?ClearDesc@LobbyTradeItemBtn@@IAEXXZ PROC		; LobbyTradeItemBtn::ClearDesc, COMDAT
; _this$ = ecx

; 1519 : {

  00000	56		 push	 esi
  00001	57		 push	 edi

; 1520 : 	for (int i = 0; i < MAX_DESC ; i++)

  00002	6a 03		 push	 3
  00004	8d b1 fc 01 00
	00		 lea	 esi, DWORD PTR [ecx+508]
  0000a	5f		 pop	 edi
$LL3@ClearDesc@3:

; 1521 : 	{
; 1522 : 		m_szDescArray[i].ClearList();

  0000b	8b ce		 mov	 ecx, esi
  0000d	e8 00 00 00 00	 call	 ?ClearList@ioComplexStringPrinter@@QAEXXZ ; ioComplexStringPrinter::ClearList
  00012	83 c6 20	 add	 esi, 32			; 00000020H
  00015	4f		 dec	 edi
  00016	75 f3		 jne	 SHORT $LL3@ClearDesc@3

; 1523 : 	}
; 1524 : }

  00018	5f		 pop	 edi
  00019	5e		 pop	 esi
  0001a	c3		 ret	 0
?ClearDesc@LobbyTradeItemBtn@@IAEXXZ ENDP		; LobbyTradeItemBtn::ClearDesc
_TEXT	ENDS
PUBLIC	?GetInfo@LobbyTradeItemBtn@@QAEAAUTradeItemInfo@@XZ ; LobbyTradeItemBtn::GetInfo
; Function compile flags: /Ogsp
;	COMDAT ?GetInfo@LobbyTradeItemBtn@@QAEAAUTradeItemInfo@@XZ
_TEXT	SEGMENT
?GetInfo@LobbyTradeItemBtn@@QAEAAUTradeItemInfo@@XZ PROC ; LobbyTradeItemBtn::GetInfo, COMDAT
; _this$ = ecx

; 1694 : 	return m_ItemInfo;

  00000	8d 81 60 02 00
	00		 lea	 eax, DWORD PTR [ecx+608]

; 1695 : }

  00006	c3		 ret	 0
?GetInfo@LobbyTradeItemBtn@@QAEAAUTradeItemInfo@@XZ ENDP ; LobbyTradeItemBtn::GetInfo
_TEXT	ENDS
PUBLIC	??_7LobbyTradeInfoWnd@@6B@			; LobbyTradeInfoWnd::`vftable'
PUBLIC	??0LobbyTradeInfoWnd@@QAE@XZ			; LobbyTradeInfoWnd::LobbyTradeInfoWnd
PUBLIC	??_R4LobbyTradeInfoWnd@@6B@			; LobbyTradeInfoWnd::`RTTI Complete Object Locator'
PUBLIC	??_R0?AVLobbyTradeInfoWnd@@@8			; LobbyTradeInfoWnd `RTTI Type Descriptor'
PUBLIC	??_R3LobbyTradeInfoWnd@@8			; LobbyTradeInfoWnd::`RTTI Class Hierarchy Descriptor'
PUBLIC	??_R2LobbyTradeInfoWnd@@8			; LobbyTradeInfoWnd::`RTTI Base Class Array'
PUBLIC	??_R1A@?0A@EA@LobbyTradeInfoWnd@@8		; LobbyTradeInfoWnd::`RTTI Base Class Descriptor at (0,-1,0,64)'
PUBLIC	?OnRender@LobbyTradeInfoWnd@@MAEXXZ		; LobbyTradeInfoWnd::OnRender
PUBLIC	?OnProcess@LobbyTradeInfoWnd@@MAEXM@Z		; LobbyTradeInfoWnd::OnProcess
PUBLIC	?iwm_create@LobbyTradeInfoWnd@@UAEXXZ		; LobbyTradeInfoWnd::iwm_create
PUBLIC	?iwm_command@LobbyTradeInfoWnd@@UAEXPAVioWnd@@HK@Z ; LobbyTradeInfoWnd::iwm_command
PUBLIC	?iwm_show@LobbyTradeInfoWnd@@UAEXXZ		; LobbyTradeInfoWnd::iwm_show
PUBLIC	?iwm_hide@LobbyTradeInfoWnd@@UAEXXZ		; LobbyTradeInfoWnd::iwm_hide
EXTRN	__imp_??0ioWnd@@QAE@XZ:PROC
EXTRN	?AddRenderImage@ioWnd@@UAEXABVioHashString@@PAVioUIRenderImage@@@Z:PROC ; ioWnd::AddRenderImage
EXTRN	?iwm_lbuttondown@ioWnd@@UAEXABVioMouse@@@Z:PROC	; ioWnd::iwm_lbuttondown
EXTRN	?iwm_lbuttonup@ioWnd@@UAEXABVioMouse@@@Z:PROC	; ioWnd::iwm_lbuttonup
EXTRN	??_ELobbyTradeInfoWnd@@UAEPAXI@Z:PROC		; LobbyTradeInfoWnd::`vector deleting destructor'
;	COMDAT ??_R1A@?0A@EA@LobbyTradeInfoWnd@@8
rdata$r	SEGMENT
??_R1A@?0A@EA@LobbyTradeInfoWnd@@8 DD FLAT:??_R0?AVLobbyTradeInfoWnd@@@8 ; LobbyTradeInfoWnd::`RTTI Base Class Descriptor at (0,-1,0,64)'
	DD	01H
	DD	00H
	DD	0ffffffffH
	DD	00H
	DD	040H
	DD	FLAT:??_R3LobbyTradeInfoWnd@@8
rdata$r	ENDS
;	COMDAT ??_R2LobbyTradeInfoWnd@@8
rdata$r	SEGMENT
??_R2LobbyTradeInfoWnd@@8 DD FLAT:??_R1A@?0A@EA@LobbyTradeInfoWnd@@8 ; LobbyTradeInfoWnd::`RTTI Base Class Array'
	DD	FLAT:??_R1A@?0A@EA@ioWnd@@8
rdata$r	ENDS
;	COMDAT ??_R3LobbyTradeInfoWnd@@8
rdata$r	SEGMENT
??_R3LobbyTradeInfoWnd@@8 DD 00H			; LobbyTradeInfoWnd::`RTTI Class Hierarchy Descriptor'
	DD	00H
	DD	02H
	DD	FLAT:??_R2LobbyTradeInfoWnd@@8
rdata$r	ENDS
;	COMDAT ??_R0?AVLobbyTradeInfoWnd@@@8
_DATA	SEGMENT
??_R0?AVLobbyTradeInfoWnd@@@8 DD FLAT:??_7type_info@@6B@ ; LobbyTradeInfoWnd `RTTI Type Descriptor'
	DD	00H
	DB	'.?AVLobbyTradeInfoWnd@@', 00H
_DATA	ENDS
;	COMDAT ??_R4LobbyTradeInfoWnd@@6B@
rdata$r	SEGMENT
??_R4LobbyTradeInfoWnd@@6B@ DD 00H			; LobbyTradeInfoWnd::`RTTI Complete Object Locator'
	DD	00H
	DD	00H
	DD	FLAT:??_R0?AVLobbyTradeInfoWnd@@@8
	DD	FLAT:??_R3LobbyTradeInfoWnd@@8
rdata$r	ENDS
;	COMDAT ??_7LobbyTradeInfoWnd@@6B@
CONST	SEGMENT
??_7LobbyTradeInfoWnd@@6B@ DD FLAT:??_R4LobbyTradeInfoWnd@@6B@ ; LobbyTradeInfoWnd::`vftable'
	DD	FLAT:?AddRenderFrame@ioWnd@@UAEXABVioHashString@@PAVioUIRenderFrame@@@Z
	DD	FLAT:?AddRenderImage@ioWnd@@UAEXABVioHashString@@PAVioUIRenderImage@@@Z
	DD	FLAT:?AddTooltipHelp@ioWnd@@UAEXABVioHashString@@00@Z
	DD	FLAT:?ParseExtraInfo@ioWnd@@UAEXAAVioXMLElement@@@Z
	DD	FLAT:?AddNamedRenderImage@ioWnd@@UAEXABVioHashString@@PAVioUIRenderImage@@@Z
	DD	FLAT:?RemoveNamedRenderImage@ioWnd@@UAEXABVioHashString@@@Z
	DD	FLAT:?GetNamedRenderImage@ioWnd@@UBEPAVioUIRenderImage@@ABVioHashString@@@Z
	DD	FLAT:?SetWindowAlpha@ioWnd@@UAEXH@Z
	DD	FLAT:?SetActive@ioWnd@@UAEXXZ
	DD	FLAT:?SetInActive@ioWnd@@UAEXXZ
	DD	FLAT:?ClearElementImageList@ioWnd@@UAEXXZ
	DD	FLAT:?SetSize@ioWnd@@UAEXHH@Z
	DD	FLAT:?SetPositionToDefault@ioWnd@@UAEXHH_N0@Z
	DD	FLAT:?IsNeedProcess@ioWnd@@UBE_NXZ
	DD	FLAT:?IsCanMouseReaction@ioWnd@@UBE_NXZ
	DD	FLAT:?AddChild@ioWnd@@UAEXPAV1@@Z
	DD	FLAT:?DeleteChild@ioWnd@@UAEXK@Z
	DD	FLAT:?DeleteAllChild@ioWnd@@UAEXXZ
	DD	FLAT:?OnRenderShowAndHide@ioWnd@@MAE_NXZ
	DD	FLAT:?OnRenderShowAndHideByDefault@ioWnd@@MAE_NK@Z
	DD	FLAT:?OnRenderShowAndHideByTop@ioWnd@@MAE_NK@Z
	DD	FLAT:?OnRenderShowAndHideByDown@ioWnd@@MAE_NK@Z
	DD	FLAT:?OnRender@LobbyTradeInfoWnd@@MAEXXZ
	DD	FLAT:?OnRenderAfterChild@ioWnd@@MAEXXZ
	DD	FLAT:?OnProcess@LobbyTradeInfoWnd@@MAEXM@Z
	DD	FLAT:?OnMouseProcess@ioWnd@@MAEXABVioMouse@@@Z
	DD	FLAT:?CheckFrameReSize@ioWnd@@MAEXHHHH@Z
	DD	FLAT:?RenderImageList@ioWnd@@MAEXHHW4UIRenderType@@@Z
	DD	FLAT:?iwm_create@LobbyTradeInfoWnd@@UAEXXZ
	DD	FLAT:?iwm_destroy@ioWnd@@UAEXXZ
	DD	FLAT:?iwm_lbuttondown@ioWnd@@UAEXABVioMouse@@@Z
	DD	FLAT:?iwm_lbuttonup@ioWnd@@UAEXABVioMouse@@@Z
	DD	FLAT:?iwm_lbuttonDBLCLK@ioWnd@@UAEXABVioMouse@@@Z
	DD	FLAT:?iwm_rbuttondown@ioWnd@@UAEXABVioMouse@@@Z
	DD	FLAT:?iwm_rbuttonup@ioWnd@@UAEXABVioMouse@@@Z
	DD	FLAT:?iwm_command@LobbyTradeInfoWnd@@UAEXPAVioWnd@@HK@Z
	DD	FLAT:?iwm_mouseover@ioWnd@@UAEXABVioMouse@@@Z
	DD	FLAT:?iwm_mousemove@ioWnd@@UAEXABVioMouse@@@Z
	DD	FLAT:?iwm_mouseleave@ioWnd@@UAEXABVioMouse@@@Z
	DD	FLAT:?iwm_vscroll@ioWnd@@UAEXKH@Z
	DD	FLAT:?iwm_wheel@ioWnd@@UAEXH@Z
	DD	FLAT:?iwm_show@LobbyTradeInfoWnd@@UAEXXZ
	DD	FLAT:?iwm_hide@LobbyTradeInfoWnd@@UAEXXZ
	DD	FLAT:?iwm_esc@ioWnd@@UAE_NXZ
	DD	FLAT:?iwm_spacebar@ioWnd@@UAE_NXZ
	DD	FLAT:?iwm_gototop@ioWnd@@UAEXXZ
	DD	FLAT:?iwm_dragenter@ioWnd@@UAE?AW4IWDropEffect@@PAVioDragItem@@ABVioMouse@@@Z
	DD	FLAT:?iwm_dragover@ioWnd@@UAE?AW4IWDropEffect@@PAVioDragItem@@ABVioMouse@@@Z
	DD	FLAT:?iwm_dragleave@ioWnd@@UAEXXZ
	DD	FLAT:?iwm_dropitem@ioWnd@@UAE_NPAVioDragItem@@ABVioMouse@@PAV1@@Z
	DD	FLAT:?iwm_dropdone@ioWnd@@UAEXPAVioDragItem@@PAV1@_N@Z
	DD	FLAT:?IsEXType@ioWnd@@UBE_NXZ
	DD	FLAT:?GetWndType@ioWnd@@UBEKXZ
	DD	FLAT:?RenderWnd@ioWnd@@UAEXXZ
	DD	FLAT:?SetIDEX@ioWnd@@UAEXAAK_N@Z
	DD	FLAT:?ParseXML@ioWnd@@UAEXAAVioXMLElement@@@Z
	DD	FLAT:?GetHeaderFileName@ioWnd@@UAEPBDXZ
	DD	FLAT:?GetTemplateName@ioWnd@@UAEPBDXZ
	DD	FLAT:?GetDefClassName@ioWnd@@UBEPBDXZ
	DD	FLAT:?_Clone@ioWnd@@UAEPAV1@XZ
	DD	FLAT:?Copy@ioWnd@@UAEXPAV1@@Z
	DD	FLAT:?Save@ioWnd@@UAE_NAAVioXMLElement@@@Z
	DD	FLAT:?SetSaveData@ioWnd@@UAEXAAVioXMLElement@@@Z
	DD	FLAT:?SetPosX@ioWnd@@UAEXH@Z
	DD	FLAT:?SetPosY@ioWnd@@UAEXH@Z
	DD	FLAT:?SetWidth@ioWnd@@UAEXH@Z
	DD	FLAT:?SetHeight@ioWnd@@UAEXH@Z
	DD	FLAT:?GetNumFixedRenderFrame@ioWnd@@UBEHXZ
	DD	FLAT:?GetFixedRenderFrameType@ioWnd@@UAEPBDH@Z
	DD	FLAT:?GetRenderFrame@ioWnd@@UAEPAPAVioUIRenderElement@@PBD@Z
	DD	FLAT:?GetNumFixedRenderImage@ioWnd@@UBEHXZ
	DD	FLAT:?GetFixedRenderImageType@ioWnd@@UAEPBDH@Z
	DD	FLAT:?GetRenderImage@ioWnd@@UAEPAPAVioUIRenderElement@@PBD@Z
	DD	FLAT:?AddEffect@ioWnd@@UAEXABVioHashString@@PAVioUI3DEffectRender@@@Z
	DD	FLAT:?GetEffect@ioWnd@@UAEPAVioUI3DEffectRender@@VioHashString@@@Z
	DD	FLAT:??_ELobbyTradeInfoWnd@@UAEPAXI@Z
; Function compile flags: /Ogsp
CONST	ENDS
;	COMDAT ??0LobbyTradeInfoWnd@@QAE@XZ
_TEXT	SEGMENT
??0LobbyTradeInfoWnd@@QAE@XZ PROC			; LobbyTradeInfoWnd::LobbyTradeInfoWnd, COMDAT
; _this$ = ecx

; 1707 : {

  00000	56		 push	 esi
  00001	8b f1		 mov	 esi, ecx
  00003	ff 15 00 00 00
	00		 call	 DWORD PTR __imp_??0ioWnd@@QAE@XZ
  00009	c7 06 00 00 00
	00		 mov	 DWORD PTR [esi], OFFSET ??_7LobbyTradeInfoWnd@@6B@

; 1708 : 	m_bIsNoviceGrade = false;

  0000f	c6 86 60 01 00
	00 00		 mov	 BYTE PTR [esi+352], 0

; 1709 : }

  00016	8b c6		 mov	 eax, esi
  00018	5e		 pop	 esi
  00019	c3		 ret	 0
??0LobbyTradeInfoWnd@@QAE@XZ ENDP			; LobbyTradeInfoWnd::LobbyTradeInfoWnd
_TEXT	ENDS
PUBLIC	??1LobbyTradeInfoWnd@@UAE@XZ			; LobbyTradeInfoWnd::~LobbyTradeInfoWnd
EXTRN	__imp_??1ioWnd@@UAE@XZ:PROC
; Function compile flags: /Ogsp
;	COMDAT ??1LobbyTradeInfoWnd@@UAE@XZ
_TEXT	SEGMENT
??1LobbyTradeInfoWnd@@UAE@XZ PROC			; LobbyTradeInfoWnd::~LobbyTradeInfoWnd, COMDAT
; _this$ = ecx

; 1712 : {

  00000	c7 01 00 00 00
	00		 mov	 DWORD PTR [ecx], OFFSET ??_7LobbyTradeInfoWnd@@6B@

; 1713 : 
; 1714 : }

  00006	ff 25 00 00 00
	00		 jmp	 DWORD PTR __imp_??1ioWnd@@UAE@XZ
??1LobbyTradeInfoWnd@@UAE@XZ ENDP			; LobbyTradeInfoWnd::~LobbyTradeInfoWnd
_TEXT	ENDS
PUBLIC	??_C@_0BP@JJFNKFLI@XML?1LobbyOwnerTradeListWnd?4xml?$AA@ ; `string'
EXTRN	__imp_?AddWnd@ioGUIManager@@QAEPAVioWnd@@PBDPAV2@@Z:PROC
;	COMDAT ??_C@_0BP@JJFNKFLI@XML?1LobbyOwnerTradeListWnd?4xml?$AA@
CONST	SEGMENT
??_C@_0BP@JJFNKFLI@XML?1LobbyOwnerTradeListWnd?4xml?$AA@ DB 'XML/LobbyOwn'
	DB	'erTradeListWnd.xml', 00H			; `string'
; Function compile flags: /Ogsp
CONST	ENDS
;	COMDAT ?iwm_create@LobbyTradeInfoWnd@@UAEXXZ
_TEXT	SEGMENT
?iwm_create@LobbyTradeInfoWnd@@UAEXXZ PROC		; LobbyTradeInfoWnd::iwm_create, COMDAT
; _this$ = ecx

; 1718 : 	g_GUIMgr.AddWnd( "XML/LobbyOwnerTradeListWnd.xml", this );

  00000	51		 push	 ecx
  00001	68 00 00 00 00	 push	 OFFSET ??_C@_0BP@JJFNKFLI@XML?1LobbyOwnerTradeListWnd?4xml?$AA@
  00006	e8 00 00 00 00	 call	 ?GetSingleton@ioSP2GUIManager@@SAAAV1@XZ ; ioSP2GUIManager::GetSingleton
  0000b	8b c8		 mov	 ecx, eax
  0000d	ff 15 00 00 00
	00		 call	 DWORD PTR __imp_?AddWnd@ioGUIManager@@QAEPAVioWnd@@PBDPAV2@@Z

; 1719 : }

  00013	c3		 ret	 0
?iwm_create@LobbyTradeInfoWnd@@UAEXXZ ENDP		; LobbyTradeInfoWnd::iwm_create
_TEXT	ENDS
EXTRN	__imp_?HideChildWnd@ioWnd@@QAEXK_N@Z:PROC
; Function compile flags: /Ogsp
;	COMDAT ?iwm_hide@LobbyTradeInfoWnd@@UAEXXZ
_TEXT	SEGMENT
?iwm_hide@LobbyTradeInfoWnd@@UAEXXZ PROC		; LobbyTradeInfoWnd::iwm_hide, COMDAT
; _this$ = ecx

; 1739 : {

  00000	56		 push	 esi

; 1740 : 	HideChildWnd( ID_OWNER_TRADE_LIST_WND );

  00001	8b 35 00 00 00
	00		 mov	 esi, DWORD PTR __imp_?HideChildWnd@ioWnd@@QAEXK_N@Z
  00007	57		 push	 edi
  00008	6a 00		 push	 0
  0000a	6a 0a		 push	 10			; 0000000aH
  0000c	8b f9		 mov	 edi, ecx
  0000e	ff d6		 call	 esi

; 1741 : 	//HideChildWnd( ID_LOBBY_USER_LIST_WND );
; 1742 : 
; 1743 : 	HideChildWnd( ID_NOVICE_GRADE_BTN );

  00010	6a 00		 push	 0
  00012	6a 02		 push	 2
  00014	8b cf		 mov	 ecx, edi
  00016	ff d6		 call	 esi

; 1744 : 	HideChildWnd( ID_NOVICE_GRADE_TOOTIP_BTN );

  00018	6a 00		 push	 0
  0001a	6a 03		 push	 3
  0001c	8b cf		 mov	 ecx, edi
  0001e	ff d6		 call	 esi

; 1745 : 	m_bIsNoviceGrade = false;

  00020	c6 87 60 01 00
	00 00		 mov	 BYTE PTR [edi+352], 0
  00027	5f		 pop	 edi
  00028	5e		 pop	 esi

; 1746 : }

  00029	c3		 ret	 0
?iwm_hide@LobbyTradeInfoWnd@@UAEXXZ ENDP		; LobbyTradeInfoWnd::iwm_hide
_TEXT	ENDS
PUBLIC	?ApplyLobbyUserList@LobbyTradeInfoWnd@@QAEXAAVSP2Packet@@@Z ; LobbyTradeInfoWnd::ApplyLobbyUserList
; Function compile flags: /Ogsp
;	COMDAT ?ApplyLobbyUserList@LobbyTradeInfoWnd@@QAEXAAVSP2Packet@@@Z
_TEXT	SEGMENT
_rkPacket$ = 8						; size = 4
?ApplyLobbyUserList@LobbyTradeInfoWnd@@QAEXAAVSP2Packet@@@Z PROC ; LobbyTradeInfoWnd::ApplyLobbyUserList, COMDAT
; _this$ = ecx

; 1784 : }

  00000	c2 04 00	 ret	 4
?ApplyLobbyUserList@LobbyTradeInfoWnd@@QAEXAAVSP2Packet@@@Z ENDP ; LobbyTradeInfoWnd::ApplyLobbyUserList
_TEXT	ENDS
PUBLIC	?PlazaUIMove@LobbyOwnerTradeListWnd@@QAEXH@Z	; LobbyOwnerTradeListWnd::PlazaUIMove
EXTRN	__imp_?SetWndPos@ioWnd@@QAEXHH@Z:PROC
; Function compile flags: /Ogsp
;	COMDAT ?PlazaUIMove@LobbyOwnerTradeListWnd@@QAEXH@Z
_TEXT	SEGMENT
_nAddYPos$ = 8						; size = 4
?PlazaUIMove@LobbyOwnerTradeListWnd@@QAEXH@Z PROC	; LobbyOwnerTradeListWnd::PlazaUIMove, COMDAT
; _this$ = ecx

; 1855 : {

  00000	55		 push	 ebp
  00001	8b ec		 mov	 ebp, esp

; 1856 : 	m_iPageYPos = QUICK_LOBBY_PAGE_Y + nAddYPos;

  00003	8b 45 08	 mov	 eax, DWORD PTR _nAddYPos$[ebp]
  00006	53		 push	 ebx
  00007	56		 push	 esi
  00008	57		 push	 edi

; 1857 : 	ioWnd* pLeft = FindChildWnd( ID_PRE_BTN );

  00009	8b 3d 00 00 00
	00		 mov	 edi, DWORD PTR __imp_?FindChildWnd@ioWnd@@QAEPAV1@K@Z
  0000f	8b f1		 mov	 esi, ecx
  00011	05 a6 01 00 00	 add	 eax, 422		; 000001a6H
  00016	6a 01		 push	 1
  00018	89 86 68 01 00
	00		 mov	 DWORD PTR [esi+360], eax
  0001e	ff d7		 call	 edi

; 1858 : 	if( pLeft )

  00020	8b 1d 00 00 00
	00		 mov	 ebx, DWORD PTR __imp_?SetWndPos@ioWnd@@QAEXHH@Z
  00026	85 c0		 test	 eax, eax
  00028	74 10		 je	 SHORT $LN2@PlazaUIMov

; 1859 : 		pLeft->SetWndPos( pLeft->GetDefaultPosX(), m_iPageYPos );

  0002a	ff b6 68 01 00
	00		 push	 DWORD PTR [esi+360]
  00030	8b c8		 mov	 ecx, eax
  00032	ff b0 c0 00 00
	00		 push	 DWORD PTR [eax+192]
  00038	ff d3		 call	 ebx
$LN2@PlazaUIMov:

; 1860 : 
; 1861 : 	ioWnd* pRight = FindChildWnd( ID_NEXT_BTN );

  0003a	6a 02		 push	 2
  0003c	8b ce		 mov	 ecx, esi
  0003e	ff d7		 call	 edi

; 1862 : 	if( pRight )

  00040	85 c0		 test	 eax, eax
  00042	74 10		 je	 SHORT $LN1@PlazaUIMov

; 1863 : 		pRight->SetWndPos( pRight->GetDefaultPosX(), m_iPageYPos );

  00044	ff b6 68 01 00
	00		 push	 DWORD PTR [esi+360]
  0004a	8b c8		 mov	 ecx, eax
  0004c	ff b0 c0 00 00
	00		 push	 DWORD PTR [eax+192]
  00052	ff d3		 call	 ebx
$LN1@PlazaUIMov:
  00054	5f		 pop	 edi
  00055	5e		 pop	 esi
  00056	5b		 pop	 ebx

; 1864 : }

  00057	5d		 pop	 ebp
  00058	c2 04 00	 ret	 4
?PlazaUIMove@LobbyOwnerTradeListWnd@@QAEXH@Z ENDP	; LobbyOwnerTradeListWnd::PlazaUIMove
_TEXT	ENDS
PUBLIC	?iwm_hide@LobbyOwnerTradeListWnd@@UAEXXZ	; LobbyOwnerTradeListWnd::iwm_hide
; Function compile flags: /Ogsp
;	COMDAT ?iwm_hide@LobbyOwnerTradeListWnd@@UAEXXZ
_TEXT	SEGMENT
?iwm_hide@LobbyOwnerTradeListWnd@@UAEXXZ PROC		; LobbyOwnerTradeListWnd::iwm_hide, COMDAT
; _this$ = ecx

; 1875 : }

  00000	c3		 ret	 0
?iwm_hide@LobbyOwnerTradeListWnd@@UAEXXZ ENDP		; LobbyOwnerTradeListWnd::iwm_hide
_TEXT	ENDS
PUBLIC	?OnRender@LobbyOwnerTradeListWnd@@MAEXXZ	; LobbyOwnerTradeListWnd::OnRender
; Function compile flags: /Ogsp
;	COMDAT ?OnRender@LobbyOwnerTradeListWnd@@MAEXXZ
_TEXT	SEGMENT
?OnRender@LobbyOwnerTradeListWnd@@MAEXXZ PROC		; LobbyOwnerTradeListWnd::OnRender, COMDAT
; _this$ = ecx

; 1924 : {

  00000	56		 push	 esi
  00001	57		 push	 edi
  00002	8b f1		 mov	 esi, ecx

; 1925 : 	ioWnd::OnRender();

  00004	ff 15 00 00 00
	00		 call	 DWORD PTR __imp_?OnRender@ioWnd@@MAEXXZ

; 1926 : 
; 1927 : 	int iXPos = GetDerivedPosX();

  0000a	8b ce		 mov	 ecx, esi
  0000c	ff 15 00 00 00
	00		 call	 DWORD PTR __imp_?GetDerivedPosX@ioWnd@@QBEHXZ

; 1928 : 	int iYPos = GetDerivedPosY();

  00012	8b ce		 mov	 ecx, esi
  00014	8b f8		 mov	 edi, eax
  00016	ff 15 00 00 00
	00		 call	 DWORD PTR __imp_?GetDerivedPosY@ioWnd@@QBEHXZ

; 1929 : 	m_PagePrinter.PrintFullText( iXPos + 105, iYPos + m_iPageYPos, TAT_CENTER );

  0001c	8b 8e 68 01 00
	00		 mov	 ecx, DWORD PTR [esi+360]
  00022	68 ff 00 00 00	 push	 255			; 000000ffH
  00027	03 c8		 add	 ecx, eax
  00029	6a 01		 push	 1
  0002b	51		 push	 ecx
  0002c	0f 57 c0	 xorps	 xmm0, xmm0
  0002f	f3 0f 2a c1	 cvtsi2ss xmm0, ecx
  00033	51		 push	 ecx
  00034	f3 0f 11 44 24
	04		 movss	 DWORD PTR [esp+4], xmm0
  0003a	83 c7 69	 add	 edi, 105		; 00000069H
  0003d	0f 57 c0	 xorps	 xmm0, xmm0
  00040	f3 0f 2a c7	 cvtsi2ss xmm0, edi
  00044	8d 8e 80 01 00
	00		 lea	 ecx, DWORD PTR [esi+384]
  0004a	f3 0f 11 04 24	 movss	 DWORD PTR [esp], xmm0
  0004f	e8 00 00 00 00	 call	 ?PrintFullText@ioComplexStringPrinter@@QAEXMMW4TextAlignType@@E@Z ; ioComplexStringPrinter::PrintFullText
  00054	5f		 pop	 edi
  00055	5e		 pop	 esi

; 1930 : }

  00056	c3		 ret	 0
?OnRender@LobbyOwnerTradeListWnd@@MAEXXZ ENDP		; LobbyOwnerTradeListWnd::OnRender
_TEXT	ENDS
PUBLIC	?OnRefreshTradeItemList@LobbyOwnerTradeListWnd@@QAEXXZ ; LobbyOwnerTradeListWnd::OnRefreshTradeItemList
; Function compile flags: /Ogsp
;	COMDAT ?OnRefreshTradeItemList@LobbyOwnerTradeListWnd@@QAEXXZ
_TEXT	SEGMENT
?OnRefreshTradeItemList@LobbyOwnerTradeListWnd@@QAEXXZ PROC ; LobbyOwnerTradeListWnd::OnRefreshTradeItemList, COMDAT
; _this$ = ecx

; 1934 : 	g_TradeInfoMgr.SyncTradeList();

  00000	6a 00		 push	 0
  00002	e8 00 00 00 00	 call	 ?GetSingleton@TradeInfoManager@@SAAAV1@XZ ; TradeInfoManager::GetSingleton
  00007	8b c8		 mov	 ecx, eax
  00009	e8 00 00 00 00	 call	 ?SyncTradeList@TradeInfoManager@@QAEX_N@Z ; TradeInfoManager::SyncTradeList

; 1935 : }

  0000e	c3		 ret	 0
?OnRefreshTradeItemList@LobbyOwnerTradeListWnd@@QAEXXZ ENDP ; LobbyOwnerTradeListWnd::OnRefreshTradeItemList
_TEXT	ENDS
PUBLIC	?PrevPage@LobbyOwnerTradeListWnd@@IAEXXZ	; LobbyOwnerTradeListWnd::PrevPage
; Function compile flags: /Ogsp
;	COMDAT ?PrevPage@LobbyOwnerTradeListWnd@@IAEXXZ
_TEXT	SEGMENT
?PrevPage@LobbyOwnerTradeListWnd@@IAEXXZ PROC		; LobbyOwnerTradeListWnd::PrevPage, COMDAT
; _this$ = ecx

; 2048 : 	if(  0 < m_iCurPage - 1 )

  00000	8d 81 60 01 00
	00		 lea	 eax, DWORD PTR [ecx+352]
  00006	8b 08		 mov	 ecx, DWORD PTR [eax]
  00008	49		 dec	 ecx
  00009	85 c9		 test	 ecx, ecx
  0000b	7e 02		 jle	 SHORT $LN1@PrevPage@2

; 2049 : 		m_iCurPage--;

  0000d	89 08		 mov	 DWORD PTR [eax], ecx
$LN1@PrevPage@2:

; 2050 : }

  0000f	c3		 ret	 0
?PrevPage@LobbyOwnerTradeListWnd@@IAEXXZ ENDP		; LobbyOwnerTradeListWnd::PrevPage
_TEXT	ENDS
PUBLIC	?NextPage@LobbyOwnerTradeListWnd@@IAEXXZ	; LobbyOwnerTradeListWnd::NextPage
; Function compile flags: /Ogsp
;	COMDAT ?NextPage@LobbyOwnerTradeListWnd@@IAEXXZ
_TEXT	SEGMENT
?NextPage@LobbyOwnerTradeListWnd@@IAEXXZ PROC		; LobbyOwnerTradeListWnd::NextPage, COMDAT
; _this$ = ecx

; 2054 : 	if( m_iCurPage +1 <= m_iMaxPage )

  00000	8b 91 60 01 00
	00		 mov	 edx, DWORD PTR [ecx+352]
  00006	42		 inc	 edx
  00007	3b 91 64 01 00
	00		 cmp	 edx, DWORD PTR [ecx+356]
  0000d	7f 06		 jg	 SHORT $LN1@NextPage@2

; 2055 : 		m_iCurPage++;

  0000f	89 91 60 01 00
	00		 mov	 DWORD PTR [ecx+352], edx
$LN1@NextPage@2:

; 2056 : }

  00015	c3		 ret	 0
?NextPage@LobbyOwnerTradeListWnd@@IAEXXZ ENDP		; LobbyOwnerTradeListWnd::NextPage
_TEXT	ENDS
PUBLIC	??_7TradeItemCancelWnd@@6B@			; TradeItemCancelWnd::`vftable'
PUBLIC	??1TradeItemCancelWnd@@UAE@XZ			; TradeItemCancelWnd::~TradeItemCancelWnd
PUBLIC	??_R4TradeItemCancelWnd@@6B@			; TradeItemCancelWnd::`RTTI Complete Object Locator'
PUBLIC	??_R0?AVTradeItemCancelWnd@@@8			; TradeItemCancelWnd `RTTI Type Descriptor'
PUBLIC	??_R3TradeItemCancelWnd@@8			; TradeItemCancelWnd::`RTTI Class Hierarchy Descriptor'
PUBLIC	??_R2TradeItemCancelWnd@@8			; TradeItemCancelWnd::`RTTI Base Class Array'
PUBLIC	??_R1A@?0A@EA@TradeItemCancelWnd@@8		; TradeItemCancelWnd::`RTTI Base Class Descriptor at (0,-1,0,64)'
PUBLIC	?AddRenderFrame@TradeItemCancelWnd@@MAEXABVioHashString@@PAVioUIRenderFrame@@@Z ; TradeItemCancelWnd::AddRenderFrame
PUBLIC	?AddRenderImage@TradeItemCancelWnd@@MAEXABVioHashString@@PAVioUIRenderImage@@@Z ; TradeItemCancelWnd::AddRenderImage
PUBLIC	?OnRender@TradeItemCancelWnd@@MAEXXZ		; TradeItemCancelWnd::OnRender
PUBLIC	?iwm_command@TradeItemCancelWnd@@UAEXPAVioWnd@@HK@Z ; TradeItemCancelWnd::iwm_command
EXTRN	??_ETradeItemCancelWnd@@UAEPAXI@Z:PROC		; TradeItemCancelWnd::`vector deleting destructor'
;	COMDAT ??_R1A@?0A@EA@TradeItemCancelWnd@@8
rdata$r	SEGMENT
??_R1A@?0A@EA@TradeItemCancelWnd@@8 DD FLAT:??_R0?AVTradeItemCancelWnd@@@8 ; TradeItemCancelWnd::`RTTI Base Class Descriptor at (0,-1,0,64)'
	DD	02H
	DD	00H
	DD	0ffffffffH
	DD	00H
	DD	040H
	DD	FLAT:??_R3TradeItemCancelWnd@@8
rdata$r	ENDS
;	COMDAT ??_R2TradeItemCancelWnd@@8
rdata$r	SEGMENT
??_R2TradeItemCancelWnd@@8 DD FLAT:??_R1A@?0A@EA@TradeItemCancelWnd@@8 ; TradeItemCancelWnd::`RTTI Base Class Array'
	DD	FLAT:??_R1A@?0A@EA@ioMovingWnd@@8
	DD	FLAT:??_R1A@?0A@EA@ioWnd@@8
rdata$r	ENDS
;	COMDAT ??_R3TradeItemCancelWnd@@8
rdata$r	SEGMENT
??_R3TradeItemCancelWnd@@8 DD 00H			; TradeItemCancelWnd::`RTTI Class Hierarchy Descriptor'
	DD	00H
	DD	03H
	DD	FLAT:??_R2TradeItemCancelWnd@@8
rdata$r	ENDS
;	COMDAT ??_R0?AVTradeItemCancelWnd@@@8
_DATA	SEGMENT
??_R0?AVTradeItemCancelWnd@@@8 DD FLAT:??_7type_info@@6B@ ; TradeItemCancelWnd `RTTI Type Descriptor'
	DD	00H
	DB	'.?AVTradeItemCancelWnd@@', 00H
_DATA	ENDS
;	COMDAT ??_R4TradeItemCancelWnd@@6B@
rdata$r	SEGMENT
??_R4TradeItemCancelWnd@@6B@ DD 00H			; TradeItemCancelWnd::`RTTI Complete Object Locator'
	DD	00H
	DD	00H
	DD	FLAT:??_R0?AVTradeItemCancelWnd@@@8
	DD	FLAT:??_R3TradeItemCancelWnd@@8
rdata$r	ENDS
;	COMDAT ??_7TradeItemCancelWnd@@6B@
CONST	SEGMENT
??_7TradeItemCancelWnd@@6B@ DD FLAT:??_R4TradeItemCancelWnd@@6B@ ; TradeItemCancelWnd::`vftable'
	DD	FLAT:?AddRenderFrame@TradeItemCancelWnd@@MAEXABVioHashString@@PAVioUIRenderFrame@@@Z
	DD	FLAT:?AddRenderImage@TradeItemCancelWnd@@MAEXABVioHashString@@PAVioUIRenderImage@@@Z
	DD	FLAT:?AddTooltipHelp@ioWnd@@UAEXABVioHashString@@00@Z
	DD	FLAT:?ParseExtraInfo@ioWnd@@UAEXAAVioXMLElement@@@Z
	DD	FLAT:?AddNamedRenderImage@ioWnd@@UAEXABVioHashString@@PAVioUIRenderImage@@@Z
	DD	FLAT:?RemoveNamedRenderImage@ioWnd@@UAEXABVioHashString@@@Z
	DD	FLAT:?GetNamedRenderImage@ioWnd@@UBEPAVioUIRenderImage@@ABVioHashString@@@Z
	DD	FLAT:?SetWindowAlpha@ioWnd@@UAEXH@Z
	DD	FLAT:?SetActive@ioWnd@@UAEXXZ
	DD	FLAT:?SetInActive@ioWnd@@UAEXXZ
	DD	FLAT:?ClearElementImageList@ioWnd@@UAEXXZ
	DD	FLAT:?SetSize@ioWnd@@UAEXHH@Z
	DD	FLAT:?SetPositionToDefault@ioMovingWnd@@UAEXHH_N0@Z
	DD	FLAT:?IsNeedProcess@ioWnd@@UBE_NXZ
	DD	FLAT:?IsCanMouseReaction@ioWnd@@UBE_NXZ
	DD	FLAT:?AddChild@ioWnd@@UAEXPAV1@@Z
	DD	FLAT:?DeleteChild@ioWnd@@UAEXK@Z
	DD	FLAT:?DeleteAllChild@ioWnd@@UAEXXZ
	DD	FLAT:?OnRenderShowAndHide@ioWnd@@MAE_NXZ
	DD	FLAT:?OnRenderShowAndHideByDefault@ioWnd@@MAE_NK@Z
	DD	FLAT:?OnRenderShowAndHideByTop@ioWnd@@MAE_NK@Z
	DD	FLAT:?OnRenderShowAndHideByDown@ioWnd@@MAE_NK@Z
	DD	FLAT:?OnRender@TradeItemCancelWnd@@MAEXXZ
	DD	FLAT:?OnRenderAfterChild@ioWnd@@MAEXXZ
	DD	FLAT:?OnProcess@ioWnd@@MAEXM@Z
	DD	FLAT:?OnMouseProcess@ioMovingWnd@@MAEXABVioMouse@@@Z
	DD	FLAT:?CheckFrameReSize@ioWnd@@MAEXHHHH@Z
	DD	FLAT:?RenderImageList@ioWnd@@MAEXHHW4UIRenderType@@@Z
	DD	FLAT:?iwm_create@ioWnd@@UAEXXZ
	DD	FLAT:?iwm_destroy@ioWnd@@UAEXXZ
	DD	FLAT:?iwm_lbuttondown@ioMovingWnd@@UAEXABVioMouse@@@Z
	DD	FLAT:?iwm_lbuttonup@ioMovingWnd@@UAEXABVioMouse@@@Z
	DD	FLAT:?iwm_lbuttonDBLCLK@ioWnd@@UAEXABVioMouse@@@Z
	DD	FLAT:?iwm_rbuttondown@ioWnd@@UAEXABVioMouse@@@Z
	DD	FLAT:?iwm_rbuttonup@ioWnd@@UAEXABVioMouse@@@Z
	DD	FLAT:?iwm_command@TradeItemCancelWnd@@UAEXPAVioWnd@@HK@Z
	DD	FLAT:?iwm_mouseover@ioWnd@@UAEXABVioMouse@@@Z
	DD	FLAT:?iwm_mousemove@ioWnd@@UAEXABVioMouse@@@Z
	DD	FLAT:?iwm_mouseleave@ioWnd@@UAEXABVioMouse@@@Z
	DD	FLAT:?iwm_vscroll@ioWnd@@UAEXKH@Z
	DD	FLAT:?iwm_wheel@ioWnd@@UAEXH@Z
	DD	FLAT:?iwm_show@ioWnd@@UAEXXZ
	DD	FLAT:?iwm_hide@ioWnd@@UAEXXZ
	DD	FLAT:?iwm_esc@ioWnd@@UAE_NXZ
	DD	FLAT:?iwm_spacebar@ioWnd@@UAE_NXZ
	DD	FLAT:?iwm_gototop@ioWnd@@UAEXXZ
	DD	FLAT:?iwm_dragenter@ioWnd@@UAE?AW4IWDropEffect@@PAVioDragItem@@ABVioMouse@@@Z
	DD	FLAT:?iwm_dragover@ioWnd@@UAE?AW4IWDropEffect@@PAVioDragItem@@ABVioMouse@@@Z
	DD	FLAT:?iwm_dragleave@ioWnd@@UAEXXZ
	DD	FLAT:?iwm_dropitem@ioWnd@@UAE_NPAVioDragItem@@ABVioMouse@@PAV1@@Z
	DD	FLAT:?iwm_dropdone@ioWnd@@UAEXPAVioDragItem@@PAV1@_N@Z
	DD	FLAT:?IsEXType@ioWnd@@UBE_NXZ
	DD	FLAT:?GetWndType@ioWnd@@UBEKXZ
	DD	FLAT:?RenderWnd@ioWnd@@UAEXXZ
	DD	FLAT:?SetIDEX@ioWnd@@UAEXAAK_N@Z
	DD	FLAT:?ParseXML@ioWnd@@UAEXAAVioXMLElement@@@Z
	DD	FLAT:?GetHeaderFileName@ioWnd@@UAEPBDXZ
	DD	FLAT:?GetTemplateName@ioWnd@@UAEPBDXZ
	DD	FLAT:?GetDefClassName@ioWnd@@UBEPBDXZ
	DD	FLAT:?_Clone@ioWnd@@UAEPAV1@XZ
	DD	FLAT:?Copy@ioWnd@@UAEXPAV1@@Z
	DD	FLAT:?Save@ioWnd@@UAE_NAAVioXMLElement@@@Z
	DD	FLAT:?SetSaveData@ioWnd@@UAEXAAVioXMLElement@@@Z
	DD	FLAT:?SetPosX@ioWnd@@UAEXH@Z
	DD	FLAT:?SetPosY@ioWnd@@UAEXH@Z
	DD	FLAT:?SetWidth@ioWnd@@UAEXH@Z
	DD	FLAT:?SetHeight@ioWnd@@UAEXH@Z
	DD	FLAT:?GetNumFixedRenderFrame@ioWnd@@UBEHXZ
	DD	FLAT:?GetFixedRenderFrameType@ioWnd@@UAEPBDH@Z
	DD	FLAT:?GetRenderFrame@ioWnd@@UAEPAPAVioUIRenderElement@@PBD@Z
	DD	FLAT:?GetNumFixedRenderImage@ioWnd@@UBEHXZ
	DD	FLAT:?GetFixedRenderImageType@ioWnd@@UAEPBDH@Z
	DD	FLAT:?GetRenderImage@ioWnd@@UAEPAPAVioUIRenderElement@@PBD@Z
	DD	FLAT:?AddEffect@ioWnd@@UAEXABVioHashString@@PAVioUI3DEffectRender@@@Z
	DD	FLAT:?GetEffect@ioWnd@@UAEPAVioUI3DEffectRender@@VioHashString@@@Z
	DD	FLAT:??_ETradeItemCancelWnd@@UAEPAXI@Z
CONST	ENDS
;	COMDAT xdata$x
xdata$x	SEGMENT
__unwindtable$??1TradeItemCancelWnd@@UAE@XZ DD 0ffffffffH
	DD	FLAT:__unwindfunclet$??1TradeItemCancelWnd@@UAE@XZ$0
__ehfuncinfo$??1TradeItemCancelWnd@@UAE@XZ DD 019930522H
	DD	01H
	DD	FLAT:__unwindtable$??1TradeItemCancelWnd@@UAE@XZ
	DD	2 DUP(00H)
	DD	2 DUP(00H)
	DD	00H
	DD	01H
; Function compile flags: /Ogsp
xdata$x	ENDS
;	COMDAT ??1TradeItemCancelWnd@@UAE@XZ
_TEXT	SEGMENT
_this$ = -16						; size = 4
__$EHRec$ = -12						; size = 12
??1TradeItemCancelWnd@@UAE@XZ PROC			; TradeItemCancelWnd::~TradeItemCancelWnd, COMDAT
; _this$ = ecx

; 2067 : {

  00000	6a 04		 push	 4
  00002	b8 00 00 00 00	 mov	 eax, __ehhandler$??1TradeItemCancelWnd@@UAE@XZ
  00007	e8 00 00 00 00	 call	 __EH_prolog3
  0000c	8b f1		 mov	 esi, ecx
  0000e	89 75 f0	 mov	 DWORD PTR _this$[ebp], esi
  00011	c7 06 00 00 00
	00		 mov	 DWORD PTR [esi], OFFSET ??_7TradeItemCancelWnd@@6B@
  00017	83 65 fc 00	 and	 DWORD PTR __$EHRec$[ebp+8], 0

; 2068 : 
; 2069 : }

  0001b	68 00 00 00 00	 push	 OFFSET ??1ioComplexStringPrinter@@QAE@XZ ; ioComplexStringPrinter::~ioComplexStringPrinter
  00020	6a 02		 push	 2
  00022	6a 20		 push	 32			; 00000020H
  00024	8d 86 d0 01 00
	00		 lea	 eax, DWORD PTR [esi+464]
  0002a	50		 push	 eax
  0002b	e8 00 00 00 00	 call	 ??_M@YGXPAXIHP6EX0@Z@Z
  00030	83 4d fc ff	 or	 DWORD PTR __$EHRec$[ebp+8], -1
  00034	8b ce		 mov	 ecx, esi
  00036	ff 15 00 00 00
	00		 call	 DWORD PTR __imp_??1ioMovingWnd@@UAE@XZ
  0003c	e8 00 00 00 00	 call	 __EH_epilog3
  00041	c3		 ret	 0
_TEXT	ENDS
;	COMDAT text$x
text$x	SEGMENT
__unwindfunclet$??1TradeItemCancelWnd@@UAE@XZ$0:
  00000	8b 4d f0	 mov	 ecx, DWORD PTR _this$[ebp]
  00003	ff 25 00 00 00
	00		 jmp	 DWORD PTR __imp_??1ioMovingWnd@@UAE@XZ
__ehhandler$??1TradeItemCancelWnd@@UAE@XZ:
  00009	8b 54 24 08	 mov	 edx, DWORD PTR [esp+8]
  0000d	8d 42 0c	 lea	 eax, DWORD PTR [edx+12]
  00010	8b 4a ec	 mov	 ecx, DWORD PTR [edx-20]
  00013	33 c8		 xor	 ecx, eax
  00015	e8 00 00 00 00	 call	 @__security_check_cookie@4
  0001a	b8 00 00 00 00	 mov	 eax, OFFSET __ehfuncinfo$??1TradeItemCancelWnd@@UAE@XZ
  0001f	e9 00 00 00 00	 jmp	 ___CxxFrameHandler3
text$x	ENDS
??1TradeItemCancelWnd@@UAE@XZ ENDP			; TradeItemCancelWnd::~TradeItemCancelWnd
PUBLIC	?ClearDesc@TradeItemCancelWnd@@IAEXXZ		; TradeItemCancelWnd::ClearDesc
; Function compile flags: /Ogsp
;	COMDAT ?ClearDesc@TradeItemCancelWnd@@IAEXXZ
_TEXT	SEGMENT
?ClearDesc@TradeItemCancelWnd@@IAEXXZ PROC		; TradeItemCancelWnd::ClearDesc, COMDAT
; _this$ = ecx

; 2072 : {

  00000	56		 push	 esi
  00001	57		 push	 edi

; 2073 : 	for (int i = 0; i < MAX_DESC ; i++)

  00002	6a 02		 push	 2
  00004	8d b1 d0 01 00
	00		 lea	 esi, DWORD PTR [ecx+464]
  0000a	5f		 pop	 edi
$LL3@ClearDesc@4:

; 2074 : 	{
; 2075 : 		m_szDescArray[i].ClearList();

  0000b	8b ce		 mov	 ecx, esi
  0000d	e8 00 00 00 00	 call	 ?ClearList@ioComplexStringPrinter@@QAEXXZ ; ioComplexStringPrinter::ClearList
  00012	83 c6 20	 add	 esi, 32			; 00000020H
  00015	4f		 dec	 edi
  00016	75 f3		 jne	 SHORT $LL3@ClearDesc@4

; 2076 : 	}
; 2077 : }

  00018	5f		 pop	 edi
  00019	5e		 pop	 esi
  0001a	c3		 ret	 0
?ClearDesc@TradeItemCancelWnd@@IAEXXZ ENDP		; TradeItemCancelWnd::ClearDesc
; Function compile flags: /Ogsp
_TEXT	ENDS
;	COMDAT ?AddRenderFrame@TradeItemCancelWnd@@MAEXABVioHashString@@PAVioUIRenderFrame@@@Z
_TEXT	SEGMENT
_szType$ = 8						; size = 4
_pFrame$ = 12						; size = 4
?AddRenderFrame@TradeItemCancelWnd@@MAEXABVioHashString@@PAVioUIRenderFrame@@@Z PROC ; TradeItemCancelWnd::AddRenderFrame, COMDAT
; _this$ = ecx

; 2080 : {

  00000	55		 push	 ebp
  00001	8b ec		 mov	 ebp, esp

; 2082 : }

  00003	5d		 pop	 ebp

; 2081 : 	ioMovingWnd::AddRenderFrame( szType, pFrame );

  00004	ff 25 00 00 00
	00		 jmp	 DWORD PTR __imp_?AddRenderFrame@ioWnd@@UAEXABVioHashString@@PAVioUIRenderFrame@@@Z
?AddRenderFrame@TradeItemCancelWnd@@MAEXABVioHashString@@PAVioUIRenderFrame@@@Z ENDP ; TradeItemCancelWnd::AddRenderFrame
; Function compile flags: /Ogsp
_TEXT	ENDS
;	COMDAT ?AddRenderImage@TradeItemCancelWnd@@MAEXABVioHashString@@PAVioUIRenderImage@@@Z
_TEXT	SEGMENT
_szType$ = 8						; size = 4
_pImage$ = 12						; size = 4
?AddRenderImage@TradeItemCancelWnd@@MAEXABVioHashString@@PAVioUIRenderImage@@@Z PROC ; TradeItemCancelWnd::AddRenderImage, COMDAT
; _this$ = ecx

; 2085 : {

  00000	55		 push	 ebp
  00001	8b ec		 mov	 ebp, esp

; 2087 : }

  00003	5d		 pop	 ebp

; 2086 : 	ioMovingWnd::AddRenderImage( szType, pImage );	

  00004	ff 25 00 00 00
	00		 jmp	 DWORD PTR __imp_?AddRenderImage@ioWnd@@UAEXABVioHashString@@PAVioUIRenderImage@@@Z
?AddRenderImage@TradeItemCancelWnd@@MAEXABVioHashString@@PAVioUIRenderImage@@@Z ENDP ; TradeItemCancelWnd::AddRenderImage
_TEXT	ENDS
PUBLIC	__$ArrayPad$
;	COMDAT xdata$x
xdata$x	SEGMENT
__unwindtable$?iwm_command@TradeItemCancelWnd@@UAEXPAVioWnd@@HK@Z DD 0ffffffffH
	DD	FLAT:__unwindfunclet$?iwm_command@TradeItemCancelWnd@@UAEXPAVioWnd@@HK@Z$0
__ehfuncinfo$?iwm_command@TradeItemCancelWnd@@UAEXPAVioWnd@@HK@Z DD 019930522H
	DD	01H
	DD	FLAT:__unwindtable$?iwm_command@TradeItemCancelWnd@@UAEXPAVioWnd@@HK@Z
	DD	2 DUP(00H)
	DD	2 DUP(00H)
	DD	00H
	DD	01H
; Function compile flags: /Ogsp
xdata$x	ENDS
;	COMDAT ?iwm_command@TradeItemCancelWnd@@UAEXPAVioWnd@@HK@Z
_TEXT	SEGMENT
_kPacket$519210 = -32808				; size = 32792
__$ArrayPad$ = -16					; size = 4
__$EHRec$ = -12						; size = 12
_pWnd$ = 8						; size = 4
_cmd$ = 12						; size = 4
_param$ = 16						; size = 4
?iwm_command@TradeItemCancelWnd@@UAEXPAVioWnd@@HK@Z PROC ; TradeItemCancelWnd::iwm_command, COMDAT
; _this$ = ecx

; 2143 : {

  00000	55		 push	 ebp
  00001	8b ec		 mov	 ebp, esp
  00003	6a ff		 push	 -1
  00005	68 00 00 00 00	 push	 __ehhandler$?iwm_command@TradeItemCancelWnd@@UAEXPAVioWnd@@HK@Z
  0000a	64 a1 00 00 00
	00		 mov	 eax, DWORD PTR fs:0
  00010	50		 push	 eax
  00011	b8 1c 80 00 00	 mov	 eax, 32796		; 0000801cH
  00016	e8 00 00 00 00	 call	 __chkstk
  0001b	a1 00 00 00 00	 mov	 eax, DWORD PTR ___security_cookie
  00020	33 c5		 xor	 eax, ebp
  00022	89 45 f0	 mov	 DWORD PTR __$ArrayPad$[ebp], eax
  00025	56		 push	 esi
  00026	50		 push	 eax
  00027	8d 45 f4	 lea	 eax, DWORD PTR __$EHRec$[ebp]
  0002a	64 a3 00 00 00
	00		 mov	 DWORD PTR fs:0, eax
  00030	8b f1		 mov	 esi, ecx
  00032	8b 4d 08	 mov	 ecx, DWORD PTR _pWnd$[ebp]

; 2144 : 	DWORD dwID = pWnd->GetID();

  00035	ff 15 00 00 00
	00		 call	 DWORD PTR __imp_?GetID@ioWnd@@QBEKXZ

; 2145 : 	switch( dwID )

  0003b	48		 dec	 eax
  0003c	48		 dec	 eax
  0003d	74 06		 je	 SHORT $LN2@iwm_comman@4
  0003f	48		 dec	 eax
  00040	74 2b		 je	 SHORT $LN4@iwm_comman@4
  00042	48		 dec	 eax
  00043	75 0e		 jne	 SHORT $LN1@iwm_comman@4
$LN2@iwm_comman@4:

; 2156 : 	case ID_OK_BTN:
; 2157 : 	case ID_EXIT_BTN:
; 2158 : 		if( cmd == IOBN_BTNUP )

  00045	83 7d 0c 11	 cmp	 DWORD PTR _cmd$[ebp], 17 ; 00000011H
  00049	75 08		 jne	 SHORT $LN1@iwm_comman@4

; 2159 : 		{
; 2160 : 			HideWnd();

  0004b	8b ce		 mov	 ecx, esi
  0004d	ff 15 00 00 00
	00		 call	 DWORD PTR __imp_?HideWnd@ioWnd@@QAEXXZ
$LN1@iwm_comman@4:

; 2161 : 		}
; 2162 : 		break;
; 2163 : 	}
; 2164 : }

  00053	8b 4d f4	 mov	 ecx, DWORD PTR __$EHRec$[ebp]
  00056	64 89 0d 00 00
	00 00		 mov	 DWORD PTR fs:0, ecx
  0005d	59		 pop	 ecx
  0005e	5e		 pop	 esi
  0005f	8b 4d f0	 mov	 ecx, DWORD PTR __$ArrayPad$[ebp]
  00062	33 cd		 xor	 ecx, ebp
  00064	e8 00 00 00 00	 call	 @__security_check_cookie@4
  00069	c9		 leave
  0006a	c2 0c 00	 ret	 12			; 0000000cH
$LN4@iwm_comman@4:

; 2146 : 	{
; 2147 : 	case ID_ITEM_CANCEL_BTN:
; 2148 : 		if( cmd == IOBN_BTNUP )

  0006d	83 7d 0c 11	 cmp	 DWORD PTR _cmd$[ebp], 17 ; 00000011H
  00071	75 e0		 jne	 SHORT $LN1@iwm_comman@4

; 2149 : 		{
; 2150 : 			SP2Packet kPacket( CTPK_TRADE_CANCEL );

  00073	68 15 02 00 00	 push	 533			; 00000215H
  00078	8d 8d d8 7f ff
	ff		 lea	 ecx, DWORD PTR _kPacket$519210[ebp]
  0007e	e8 00 00 00 00	 call	 ??0SP2Packet@@QAE@K@Z	; SP2Packet::SP2Packet

; 2151 : 			kPacket << m_ItemInfo.m_dwTradeIndex;

  00083	ff b6 94 01 00
	00		 push	 DWORD PTR [esi+404]
  00089	83 65 fc 00	 and	 DWORD PTR __$EHRec$[ebp+8], 0
  0008d	8d 8d d8 7f ff
	ff		 lea	 ecx, DWORD PTR _kPacket$519210[ebp]
  00093	e8 00 00 00 00	 call	 ??6SP2Packet@@QAEAAV0@K@Z ; SP2Packet::operator<<

; 2152 : 			TCPNetwork::SendToServer( kPacket );

  00098	8d 85 d8 7f ff
	ff		 lea	 eax, DWORD PTR _kPacket$519210[ebp]
  0009e	50		 push	 eax
  0009f	e8 00 00 00 00	 call	 ?SendToServer@TCPNetwork@@YAXAAVSP2Packet@@@Z ; TCPNetwork::SendToServer

; 2153 : 			TCPNetwork::MouseBusy( true );

  000a4	6a 01		 push	 1
  000a6	e8 00 00 00 00	 call	 ?MouseBusy@TCPNetwork@@YAX_N@Z ; TCPNetwork::MouseBusy

; 2154 : 		}

  000ab	83 4d fc ff	 or	 DWORD PTR __$EHRec$[ebp+8], -1
  000af	59		 pop	 ecx
  000b0	59		 pop	 ecx
  000b1	8d 8d d8 7f ff
	ff		 lea	 ecx, DWORD PTR _kPacket$519210[ebp]
  000b7	e8 00 00 00 00	 call	 ??1SP2Packet@@UAE@XZ	; SP2Packet::~SP2Packet

; 2155 : 		break;

  000bc	eb 95		 jmp	 SHORT $LN1@iwm_comman@4
_TEXT	ENDS
;	COMDAT text$x
text$x	SEGMENT
__unwindfunclet$?iwm_command@TradeItemCancelWnd@@UAEXPAVioWnd@@HK@Z$0:
  00000	8d 8d d8 7f ff
	ff		 lea	 ecx, DWORD PTR _kPacket$519210[ebp]
  00006	e9 00 00 00 00	 jmp	 ??1SP2Packet@@UAE@XZ	; SP2Packet::~SP2Packet
__ehhandler$?iwm_command@TradeItemCancelWnd@@UAEXPAVioWnd@@HK@Z:
  0000b	8b 54 24 08	 mov	 edx, DWORD PTR [esp+8]
  0000f	8d 42 0c	 lea	 eax, DWORD PTR [edx+12]
  00012	8b 8a dc 7f ff
	ff		 mov	 ecx, DWORD PTR [edx-32804]
  00018	33 c8		 xor	 ecx, eax
  0001a	e8 00 00 00 00	 call	 @__security_check_cookie@4
  0001f	8b 4a fc	 mov	 ecx, DWORD PTR [edx-4]
  00022	33 c8		 xor	 ecx, eax
  00024	e8 00 00 00 00	 call	 @__security_check_cookie@4
  00029	b8 00 00 00 00	 mov	 eax, OFFSET __ehfuncinfo$?iwm_command@TradeItemCancelWnd@@UAEXPAVioWnd@@HK@Z
  0002e	e9 00 00 00 00	 jmp	 ___CxxFrameHandler3
text$x	ENDS
?iwm_command@TradeItemCancelWnd@@UAEXPAVioWnd@@HK@Z ENDP ; TradeItemCancelWnd::iwm_command
PUBLIC	??_7TradeItemCancelResultWnd@@6B@		; TradeItemCancelResultWnd::`vftable'
PUBLIC	??0TradeItemCancelResultWnd@@QAE@XZ		; TradeItemCancelResultWnd::TradeItemCancelResultWnd
PUBLIC	??_R4TradeItemCancelResultWnd@@6B@		; TradeItemCancelResultWnd::`RTTI Complete Object Locator'
PUBLIC	??_R0?AVTradeItemCancelResultWnd@@@8		; TradeItemCancelResultWnd `RTTI Type Descriptor'
PUBLIC	??_R3TradeItemCancelResultWnd@@8		; TradeItemCancelResultWnd::`RTTI Class Hierarchy Descriptor'
PUBLIC	??_R2TradeItemCancelResultWnd@@8		; TradeItemCancelResultWnd::`RTTI Base Class Array'
PUBLIC	??_R1A@?0A@EA@TradeItemCancelResultWnd@@8	; TradeItemCancelResultWnd::`RTTI Base Class Descriptor at (0,-1,0,64)'
PUBLIC	?AddRenderImage@TradeItemCancelResultWnd@@MAEXABVioHashString@@PAVioUIRenderImage@@@Z ; TradeItemCancelResultWnd::AddRenderImage
PUBLIC	?OnRender@TradeItemCancelResultWnd@@MAEXXZ	; TradeItemCancelResultWnd::OnRender
PUBLIC	?iwm_command@TradeItemCancelResultWnd@@UAEXPAVioWnd@@HK@Z ; TradeItemCancelResultWnd::iwm_command
EXTRN	??_ETradeItemCancelResultWnd@@UAEPAXI@Z:PROC	; TradeItemCancelResultWnd::`vector deleting destructor'
;	COMDAT ??_R1A@?0A@EA@TradeItemCancelResultWnd@@8
rdata$r	SEGMENT
??_R1A@?0A@EA@TradeItemCancelResultWnd@@8 DD FLAT:??_R0?AVTradeItemCancelResultWnd@@@8 ; TradeItemCancelResultWnd::`RTTI Base Class Descriptor at (0,-1,0,64)'
	DD	02H
	DD	00H
	DD	0ffffffffH
	DD	00H
	DD	040H
	DD	FLAT:??_R3TradeItemCancelResultWnd@@8
rdata$r	ENDS
;	COMDAT ??_R2TradeItemCancelResultWnd@@8
rdata$r	SEGMENT
??_R2TradeItemCancelResultWnd@@8 DD FLAT:??_R1A@?0A@EA@TradeItemCancelResultWnd@@8 ; TradeItemCancelResultWnd::`RTTI Base Class Array'
	DD	FLAT:??_R1A@?0A@EA@ioMovingWnd@@8
	DD	FLAT:??_R1A@?0A@EA@ioWnd@@8
rdata$r	ENDS
;	COMDAT ??_R3TradeItemCancelResultWnd@@8
rdata$r	SEGMENT
??_R3TradeItemCancelResultWnd@@8 DD 00H			; TradeItemCancelResultWnd::`RTTI Class Hierarchy Descriptor'
	DD	00H
	DD	03H
	DD	FLAT:??_R2TradeItemCancelResultWnd@@8
rdata$r	ENDS
;	COMDAT ??_R0?AVTradeItemCancelResultWnd@@@8
_DATA	SEGMENT
??_R0?AVTradeItemCancelResultWnd@@@8 DD FLAT:??_7type_info@@6B@ ; TradeItemCancelResultWnd `RTTI Type Descriptor'
	DD	00H
	DB	'.?AVTradeItemCancelResultWnd@@', 00H
_DATA	ENDS
;	COMDAT ??_R4TradeItemCancelResultWnd@@6B@
rdata$r	SEGMENT
??_R4TradeItemCancelResultWnd@@6B@ DD 00H		; TradeItemCancelResultWnd::`RTTI Complete Object Locator'
	DD	00H
	DD	00H
	DD	FLAT:??_R0?AVTradeItemCancelResultWnd@@@8
	DD	FLAT:??_R3TradeItemCancelResultWnd@@8
rdata$r	ENDS
;	COMDAT ??_7TradeItemCancelResultWnd@@6B@
CONST	SEGMENT
??_7TradeItemCancelResultWnd@@6B@ DD FLAT:??_R4TradeItemCancelResultWnd@@6B@ ; TradeItemCancelResultWnd::`vftable'
	DD	FLAT:?AddRenderFrame@ioWnd@@UAEXABVioHashString@@PAVioUIRenderFrame@@@Z
	DD	FLAT:?AddRenderImage@TradeItemCancelResultWnd@@MAEXABVioHashString@@PAVioUIRenderImage@@@Z
	DD	FLAT:?AddTooltipHelp@ioWnd@@UAEXABVioHashString@@00@Z
	DD	FLAT:?ParseExtraInfo@ioWnd@@UAEXAAVioXMLElement@@@Z
	DD	FLAT:?AddNamedRenderImage@ioWnd@@UAEXABVioHashString@@PAVioUIRenderImage@@@Z
	DD	FLAT:?RemoveNamedRenderImage@ioWnd@@UAEXABVioHashString@@@Z
	DD	FLAT:?GetNamedRenderImage@ioWnd@@UBEPAVioUIRenderImage@@ABVioHashString@@@Z
	DD	FLAT:?SetWindowAlpha@ioWnd@@UAEXH@Z
	DD	FLAT:?SetActive@ioWnd@@UAEXXZ
	DD	FLAT:?SetInActive@ioWnd@@UAEXXZ
	DD	FLAT:?ClearElementImageList@ioWnd@@UAEXXZ
	DD	FLAT:?SetSize@ioWnd@@UAEXHH@Z
	DD	FLAT:?SetPositionToDefault@ioMovingWnd@@UAEXHH_N0@Z
	DD	FLAT:?IsNeedProcess@ioWnd@@UBE_NXZ
	DD	FLAT:?IsCanMouseReaction@ioWnd@@UBE_NXZ
	DD	FLAT:?AddChild@ioWnd@@UAEXPAV1@@Z
	DD	FLAT:?DeleteChild@ioWnd@@UAEXK@Z
	DD	FLAT:?DeleteAllChild@ioWnd@@UAEXXZ
	DD	FLAT:?OnRenderShowAndHide@ioWnd@@MAE_NXZ
	DD	FLAT:?OnRenderShowAndHideByDefault@ioWnd@@MAE_NK@Z
	DD	FLAT:?OnRenderShowAndHideByTop@ioWnd@@MAE_NK@Z
	DD	FLAT:?OnRenderShowAndHideByDown@ioWnd@@MAE_NK@Z
	DD	FLAT:?OnRender@TradeItemCancelResultWnd@@MAEXXZ
	DD	FLAT:?OnRenderAfterChild@ioWnd@@MAEXXZ
	DD	FLAT:?OnProcess@ioWnd@@MAEXM@Z
	DD	FLAT:?OnMouseProcess@ioMovingWnd@@MAEXABVioMouse@@@Z
	DD	FLAT:?CheckFrameReSize@ioWnd@@MAEXHHHH@Z
	DD	FLAT:?RenderImageList@ioWnd@@MAEXHHW4UIRenderType@@@Z
	DD	FLAT:?iwm_create@ioWnd@@UAEXXZ
	DD	FLAT:?iwm_destroy@ioWnd@@UAEXXZ
	DD	FLAT:?iwm_lbuttondown@ioMovingWnd@@UAEXABVioMouse@@@Z
	DD	FLAT:?iwm_lbuttonup@ioMovingWnd@@UAEXABVioMouse@@@Z
	DD	FLAT:?iwm_lbuttonDBLCLK@ioWnd@@UAEXABVioMouse@@@Z
	DD	FLAT:?iwm_rbuttondown@ioWnd@@UAEXABVioMouse@@@Z
	DD	FLAT:?iwm_rbuttonup@ioWnd@@UAEXABVioMouse@@@Z
	DD	FLAT:?iwm_command@TradeItemCancelResultWnd@@UAEXPAVioWnd@@HK@Z
	DD	FLAT:?iwm_mouseover@ioWnd@@UAEXABVioMouse@@@Z
	DD	FLAT:?iwm_mousemove@ioWnd@@UAEXABVioMouse@@@Z
	DD	FLAT:?iwm_mouseleave@ioWnd@@UAEXABVioMouse@@@Z
	DD	FLAT:?iwm_vscroll@ioWnd@@UAEXKH@Z
	DD	FLAT:?iwm_wheel@ioWnd@@UAEXH@Z
	DD	FLAT:?iwm_show@ioWnd@@UAEXXZ
	DD	FLAT:?iwm_hide@ioWnd@@UAEXXZ
	DD	FLAT:?iwm_esc@ioWnd@@UAE_NXZ
	DD	FLAT:?iwm_spacebar@ioWnd@@UAE_NXZ
	DD	FLAT:?iwm_gototop@ioWnd@@UAEXXZ
	DD	FLAT:?iwm_dragenter@ioWnd@@UAE?AW4IWDropEffect@@PAVioDragItem@@ABVioMouse@@@Z
	DD	FLAT:?iwm_dragover@ioWnd@@UAE?AW4IWDropEffect@@PAVioDragItem@@ABVioMouse@@@Z
	DD	FLAT:?iwm_dragleave@ioWnd@@UAEXXZ
	DD	FLAT:?iwm_dropitem@ioWnd@@UAE_NPAVioDragItem@@ABVioMouse@@PAV1@@Z
	DD	FLAT:?iwm_dropdone@ioWnd@@UAEXPAVioDragItem@@PAV1@_N@Z
	DD	FLAT:?IsEXType@ioWnd@@UBE_NXZ
	DD	FLAT:?GetWndType@ioWnd@@UBEKXZ
	DD	FLAT:?RenderWnd@ioWnd@@UAEXXZ
	DD	FLAT:?SetIDEX@ioWnd@@UAEXAAK_N@Z
	DD	FLAT:?ParseXML@ioWnd@@UAEXAAVioXMLElement@@@Z
	DD	FLAT:?GetHeaderFileName@ioWnd@@UAEPBDXZ
	DD	FLAT:?GetTemplateName@ioWnd@@UAEPBDXZ
	DD	FLAT:?GetDefClassName@ioWnd@@UBEPBDXZ
	DD	FLAT:?_Clone@ioWnd@@UAEPAV1@XZ
	DD	FLAT:?Copy@ioWnd@@UAEXPAV1@@Z
	DD	FLAT:?Save@ioWnd@@UAE_NAAVioXMLElement@@@Z
	DD	FLAT:?SetSaveData@ioWnd@@UAEXAAVioXMLElement@@@Z
	DD	FLAT:?SetPosX@ioWnd@@UAEXH@Z
	DD	FLAT:?SetPosY@ioWnd@@UAEXH@Z
	DD	FLAT:?SetWidth@ioWnd@@UAEXH@Z
	DD	FLAT:?SetHeight@ioWnd@@UAEXH@Z
	DD	FLAT:?GetNumFixedRenderFrame@ioWnd@@UBEHXZ
	DD	FLAT:?GetFixedRenderFrameType@ioWnd@@UAEPBDH@Z
	DD	FLAT:?GetRenderFrame@ioWnd@@UAEPAPAVioUIRenderElement@@PBD@Z
	DD	FLAT:?GetNumFixedRenderImage@ioWnd@@UBEHXZ
	DD	FLAT:?GetFixedRenderImageType@ioWnd@@UAEPBDH@Z
	DD	FLAT:?GetRenderImage@ioWnd@@UAEPAPAVioUIRenderElement@@PBD@Z
	DD	FLAT:?AddEffect@ioWnd@@UAEXABVioHashString@@PAVioUI3DEffectRender@@@Z
	DD	FLAT:?GetEffect@ioWnd@@UAEPAVioUI3DEffectRender@@VioHashString@@@Z
	DD	FLAT:??_ETradeItemCancelResultWnd@@UAEPAXI@Z
CONST	ENDS
;	COMDAT xdata$x
xdata$x	SEGMENT
__unwindtable$??0TradeItemCancelResultWnd@@QAE@XZ DD 0ffffffffH
	DD	FLAT:__unwindfunclet$??0TradeItemCancelResultWnd@@QAE@XZ$0
__ehfuncinfo$??0TradeItemCancelResultWnd@@QAE@XZ DD 019930522H
	DD	01H
	DD	FLAT:__unwindtable$??0TradeItemCancelResultWnd@@QAE@XZ
	DD	2 DUP(00H)
	DD	2 DUP(00H)
	DD	00H
	DD	01H
; Function compile flags: /Ogsp
xdata$x	ENDS
;	COMDAT ??0TradeItemCancelResultWnd@@QAE@XZ
_TEXT	SEGMENT
_this$ = -16						; size = 4
__$EHRec$ = -12						; size = 12
??0TradeItemCancelResultWnd@@QAE@XZ PROC		; TradeItemCancelResultWnd::TradeItemCancelResultWnd, COMDAT
; _this$ = ecx

; 2231 : {

  00000	6a 04		 push	 4
  00002	b8 00 00 00 00	 mov	 eax, __ehhandler$??0TradeItemCancelResultWnd@@QAE@XZ
  00007	e8 00 00 00 00	 call	 __EH_prolog3
  0000c	8b f1		 mov	 esi, ecx
  0000e	89 75 f0	 mov	 DWORD PTR _this$[ebp], esi
  00011	ff 15 00 00 00
	00		 call	 DWORD PTR __imp_??0ioMovingWnd@@QAE@XZ
  00017	83 65 fc 00	 and	 DWORD PTR __$EHRec$[ebp+8], 0
  0001b	8d 8e 90 01 00
	00		 lea	 ecx, DWORD PTR [esi+400]
  00021	c7 06 00 00 00
	00		 mov	 DWORD PTR [esi], OFFSET ??_7TradeItemCancelResultWnd@@6B@
  00027	ff 15 00 00 00
	00		 call	 DWORD PTR __imp_??0ioHashString@@QAE@XZ

; 2232 : 
; 2233 : }

  0002d	8b c6		 mov	 eax, esi
  0002f	e8 00 00 00 00	 call	 __EH_epilog3
  00034	c3		 ret	 0
_TEXT	ENDS
;	COMDAT text$x
text$x	SEGMENT
__unwindfunclet$??0TradeItemCancelResultWnd@@QAE@XZ$0:
  00000	8b 4d f0	 mov	 ecx, DWORD PTR _this$[ebp]
  00003	ff 25 00 00 00
	00		 jmp	 DWORD PTR __imp_??1ioMovingWnd@@UAE@XZ
__ehhandler$??0TradeItemCancelResultWnd@@QAE@XZ:
  00009	8b 54 24 08	 mov	 edx, DWORD PTR [esp+8]
  0000d	8d 42 0c	 lea	 eax, DWORD PTR [edx+12]
  00010	8b 4a ec	 mov	 ecx, DWORD PTR [edx-20]
  00013	33 c8		 xor	 ecx, eax
  00015	e8 00 00 00 00	 call	 @__security_check_cookie@4
  0001a	b8 00 00 00 00	 mov	 eax, OFFSET __ehfuncinfo$??0TradeItemCancelResultWnd@@QAE@XZ
  0001f	e9 00 00 00 00	 jmp	 ___CxxFrameHandler3
text$x	ENDS
??0TradeItemCancelResultWnd@@QAE@XZ ENDP		; TradeItemCancelResultWnd::TradeItemCancelResultWnd
PUBLIC	??1TradeItemCancelResultWnd@@UAE@XZ		; TradeItemCancelResultWnd::~TradeItemCancelResultWnd
;	COMDAT xdata$x
xdata$x	SEGMENT
__unwindtable$??1TradeItemCancelResultWnd@@UAE@XZ DD 0ffffffffH
	DD	FLAT:__unwindfunclet$??1TradeItemCancelResultWnd@@UAE@XZ$0
__ehfuncinfo$??1TradeItemCancelResultWnd@@UAE@XZ DD 019930522H
	DD	01H
	DD	FLAT:__unwindtable$??1TradeItemCancelResultWnd@@UAE@XZ
	DD	2 DUP(00H)
	DD	2 DUP(00H)
	DD	00H
	DD	01H
; Function compile flags: /Ogsp
xdata$x	ENDS
;	COMDAT ??1TradeItemCancelResultWnd@@UAE@XZ
_TEXT	SEGMENT
_this$ = -16						; size = 4
__$EHRec$ = -12						; size = 12
??1TradeItemCancelResultWnd@@UAE@XZ PROC		; TradeItemCancelResultWnd::~TradeItemCancelResultWnd, COMDAT
; _this$ = ecx

; 2236 : {

  00000	6a 04		 push	 4
  00002	b8 00 00 00 00	 mov	 eax, __ehhandler$??1TradeItemCancelResultWnd@@UAE@XZ
  00007	e8 00 00 00 00	 call	 __EH_prolog3
  0000c	8b f1		 mov	 esi, ecx
  0000e	89 75 f0	 mov	 DWORD PTR _this$[ebp], esi
  00011	c7 06 00 00 00
	00		 mov	 DWORD PTR [esi], OFFSET ??_7TradeItemCancelResultWnd@@6B@
  00017	83 65 fc 00	 and	 DWORD PTR __$EHRec$[ebp+8], 0

; 2237 : }

  0001b	8d 8e 90 01 00
	00		 lea	 ecx, DWORD PTR [esi+400]
  00021	ff 15 00 00 00
	00		 call	 DWORD PTR __imp_??1ioHashString@@QAE@XZ
  00027	83 4d fc ff	 or	 DWORD PTR __$EHRec$[ebp+8], -1
  0002b	8b ce		 mov	 ecx, esi
  0002d	ff 15 00 00 00
	00		 call	 DWORD PTR __imp_??1ioMovingWnd@@UAE@XZ
  00033	e8 00 00 00 00	 call	 __EH_epilog3
  00038	c3		 ret	 0
_TEXT	ENDS
;	COMDAT text$x
text$x	SEGMENT
__unwindfunclet$??1TradeItemCancelResultWnd@@UAE@XZ$0:
  00000	8b 4d f0	 mov	 ecx, DWORD PTR _this$[ebp]
  00003	ff 25 00 00 00
	00		 jmp	 DWORD PTR __imp_??1ioMovingWnd@@UAE@XZ
__ehhandler$??1TradeItemCancelResultWnd@@UAE@XZ:
  00009	8b 54 24 08	 mov	 edx, DWORD PTR [esp+8]
  0000d	8d 42 0c	 lea	 eax, DWORD PTR [edx+12]
  00010	8b 4a ec	 mov	 ecx, DWORD PTR [edx-20]
  00013	33 c8		 xor	 ecx, eax
  00015	e8 00 00 00 00	 call	 @__security_check_cookie@4
  0001a	b8 00 00 00 00	 mov	 eax, OFFSET __ehfuncinfo$??1TradeItemCancelResultWnd@@UAE@XZ
  0001f	e9 00 00 00 00	 jmp	 ___CxxFrameHandler3
text$x	ENDS
??1TradeItemCancelResultWnd@@UAE@XZ ENDP		; TradeItemCancelResultWnd::~TradeItemCancelResultWnd
; Function compile flags: /Ogsp
;	COMDAT ?AddRenderImage@TradeItemCancelResultWnd@@MAEXABVioHashString@@PAVioUIRenderImage@@@Z
_TEXT	SEGMENT
_szType$ = 8						; size = 4
_pImage$ = 12						; size = 4
?AddRenderImage@TradeItemCancelResultWnd@@MAEXABVioHashString@@PAVioUIRenderImage@@@Z PROC ; TradeItemCancelResultWnd::AddRenderImage, COMDAT
; _this$ = ecx

; 2240 : {

  00000	55		 push	 ebp
  00001	8b ec		 mov	 ebp, esp

; 2242 : }

  00003	5d		 pop	 ebp

; 2241 : 	ioMovingWnd::AddRenderImage( szType, pImage );

  00004	ff 25 00 00 00
	00		 jmp	 DWORD PTR __imp_?AddRenderImage@ioWnd@@UAEXABVioHashString@@PAVioUIRenderImage@@@Z
?AddRenderImage@TradeItemCancelResultWnd@@MAEXABVioHashString@@PAVioUIRenderImage@@@Z ENDP ; TradeItemCancelResultWnd::AddRenderImage
; Function compile flags: /Ogsp
_TEXT	ENDS
;	COMDAT ?iwm_command@TradeItemCancelResultWnd@@UAEXPAVioWnd@@HK@Z
_TEXT	SEGMENT
_pWnd$ = 8						; size = 4
_cmd$ = 12						; size = 4
_param$ = 16						; size = 4
?iwm_command@TradeItemCancelResultWnd@@UAEXPAVioWnd@@HK@Z PROC ; TradeItemCancelResultWnd::iwm_command, COMDAT
; _this$ = ecx

; 2274 : {

  00000	55		 push	 ebp
  00001	8b ec		 mov	 ebp, esp
  00003	56		 push	 esi
  00004	8b f1		 mov	 esi, ecx

; 2275 : 	DWORD dwID = pWnd->GetID();

  00006	8b 4d 08	 mov	 ecx, DWORD PTR _pWnd$[ebp]
  00009	ff 15 00 00 00
	00		 call	 DWORD PTR __imp_?GetID@ioWnd@@QBEKXZ

; 2276 : 	switch( dwID )

  0000f	83 f8 02	 cmp	 eax, 2
  00012	74 18		 je	 SHORT $LN5@iwm_comman@5
  00014	83 c0 fd	 add	 eax, -3			; fffffffdH
  00017	83 f8 01	 cmp	 eax, 1
  0001a	77 52		 ja	 SHORT $LN3@iwm_comman@5

; 2286 : 		}
; 2287 : 		break;
; 2288 : 	case ID_OK_BTN:
; 2289 : 	case ID_EXIT_BTN:
; 2290 : 		if( cmd == IOBN_BTNUP )

  0001c	83 7d 0c 11	 cmp	 DWORD PTR _cmd$[ebp], 17 ; 00000011H
  00020	75 4c		 jne	 SHORT $LN3@iwm_comman@5

; 2291 : 		{
; 2292 : 			HideWnd();

  00022	8b ce		 mov	 ecx, esi
  00024	ff 15 00 00 00
	00		 call	 DWORD PTR __imp_?HideWnd@ioWnd@@QAEXXZ

; 2293 : 		}
; 2294 : 		break;

  0002a	eb 42		 jmp	 SHORT $LN3@iwm_comman@5
$LN5@iwm_comman@5:

; 2277 : 	{
; 2278 : 	case ID_ITEM_GO_BTN:
; 2279 : 		if( cmd == IOBN_BTNUP )

  0002c	83 7d 0c 11	 cmp	 DWORD PTR _cmd$[ebp], 17 ; 00000011H
  00030	75 3c		 jne	 SHORT $LN3@iwm_comman@5

; 2280 : 		{
; 2281 : 			HideWnd();

  00032	8b ce		 mov	 ecx, esi
  00034	ff 15 00 00 00
	00		 call	 DWORD PTR __imp_?HideWnd@ioWnd@@QAEXXZ

; 2282 : 
; 2283 : 			MyInventoryWnd *pInvenWnd = dynamic_cast<MyInventoryWnd*>(g_GUIMgr.FindWnd(MY_INVENTORY_WND));

  0003a	6a 00		 push	 0
  0003c	68 00 00 00 00	 push	 OFFSET ??_R0?AVMyInventoryWnd@@@8
  00041	68 00 00 00 00	 push	 OFFSET ??_R0?AVioWnd@@@8
  00046	6a 00		 push	 0
  00048	68 96 17 00 00	 push	 6038			; 00001796H
  0004d	e8 00 00 00 00	 call	 ?GetSingleton@ioSP2GUIManager@@SAAAV1@XZ ; ioSP2GUIManager::GetSingleton
  00052	8b c8		 mov	 ecx, eax
  00054	ff 15 00 00 00
	00		 call	 DWORD PTR __imp_?FindWnd@ioGUIManager@@QAEPAVioWnd@@K@Z
  0005a	50		 push	 eax
  0005b	e8 00 00 00 00	 call	 ___RTDynamicCast
  00060	83 c4 14	 add	 esp, 20			; 00000014H

; 2284 : 			if( pInvenWnd )

  00063	85 c0		 test	 eax, eax
  00065	74 07		 je	 SHORT $LN3@iwm_comman@5

; 2285 : 				pInvenWnd->ShowPresentTabDirect();

  00067	8b c8		 mov	 ecx, eax
  00069	e8 00 00 00 00	 call	 ?ShowPresentTabDirect@MyInventoryWnd@@QAEXXZ ; MyInventoryWnd::ShowPresentTabDirect
$LN3@iwm_comman@5:
  0006e	5e		 pop	 esi

; 2295 : 	}
; 2296 : }

  0006f	5d		 pop	 ebp
  00070	c2 0c 00	 ret	 12			; 0000000cH
?iwm_command@TradeItemCancelResultWnd@@UAEXPAVioWnd@@HK@Z ENDP ; TradeItemCancelResultWnd::iwm_command
_TEXT	ENDS
PUBLIC	??_C@_0CD@COCDLOEF@TradeItemCancelResultWnd?3?3OnRend@ ; `string'
PUBLIC	_this$GSCopy$
;	COMDAT ??_C@_0CD@COCDLOEF@TradeItemCancelResultWnd?3?3OnRend@
CONST	SEGMENT
??_C@_0CD@COCDLOEF@TradeItemCancelResultWnd?3?3OnRend@ DB 'TradeItemCance'
	DB	'lResultWnd::OnRender', 00H			; `string'
CONST	ENDS
;	COMDAT xdata$x
xdata$x	SEGMENT
__unwindtable$?OnRender@TradeItemCancelResultWnd@@MAEXXZ DD 0ffffffffH
	DD	FLAT:__unwindfunclet$?OnRender@TradeItemCancelResultWnd@@MAEXXZ$0
__ehfuncinfo$?OnRender@TradeItemCancelResultWnd@@MAEXXZ DD 019930522H
	DD	01H
	DD	FLAT:__unwindtable$?OnRender@TradeItemCancelResultWnd@@MAEXXZ
	DD	2 DUP(00H)
	DD	2 DUP(00H)
	DD	00H
	DD	01H
; Function compile flags: /Ogsp
xdata$x	ENDS
;	COMDAT ?OnRender@TradeItemCancelResultWnd@@MAEXXZ
_TEXT	SEGMENT
_this$GSCopy$ = -320					; size = 4
_kPrinter$ = -316					; size = 32
_iYPos$ = -284						; size = 4
tv260 = -280						; size = 4
_iXPos$ = -280						; size = 4
_szPeso$ = -276						; size = 260
__$EHRec$ = -12						; size = 12
?OnRender@TradeItemCancelResultWnd@@MAEXXZ PROC		; TradeItemCancelResultWnd::OnRender, COMDAT
; _this$ = ecx

; 2299 : {

  00000	68 34 01 00 00	 push	 308			; 00000134H
  00005	b8 00 00 00 00	 mov	 eax, __ehhandler$?OnRender@TradeItemCancelResultWnd@@MAEXXZ
  0000a	e8 00 00 00 00	 call	 __EH_prolog3_GS
  0000f	8b f1		 mov	 esi, ecx

; 2300 : 	int iXPos = GetDerivedPosX();

  00011	89 b5 c0 fe ff
	ff		 mov	 DWORD PTR _this$GSCopy$[ebp], esi
  00017	ff 15 00 00 00
	00		 call	 DWORD PTR __imp_?GetDerivedPosX@ioWnd@@QBEHXZ

; 2301 : 	int iYPos = GetDerivedPosY();

  0001d	8b ce		 mov	 ecx, esi
  0001f	89 85 e8 fe ff
	ff		 mov	 DWORD PTR _iXPos$[ebp], eax
  00025	ff 15 00 00 00
	00		 call	 DWORD PTR __imp_?GetDerivedPosY@ioWnd@@QBEHXZ

; 2302 : 
; 2303 : 	ioMovingWnd::OnRender();

  0002b	8b ce		 mov	 ecx, esi
  0002d	89 85 e4 fe ff
	ff		 mov	 DWORD PTR _iYPos$[ebp], eax
  00033	ff 15 00 00 00
	00		 call	 DWORD PTR __imp_?OnRender@ioWnd@@MAEXXZ

; 2304 : 
; 2305 : 	enum
; 2306 : 	{
; 2307 : 		NAME_X		= 103,
; 2308 : 		NAME_Y		= 149,
; 2309 : 
; 2310 : 		TEXT_X		= 103,
; 2311 : 		TEXT_Y		= 199,
; 2312 : 	};
; 2313 : 
; 2314 : 	ioComplexStringPrinter kPrinter;

  00039	8d 8d c4 fe ff
	ff		 lea	 ecx, DWORD PTR _kPrinter$[ebp]
  0003f	e8 00 00 00 00	 call	 ??0ioComplexStringPrinter@@QAE@XZ ; ioComplexStringPrinter::ioComplexStringPrinter
  00044	33 db		 xor	 ebx, ebx

; 2315 : 	kPrinter.SetTextStyle( TS_NORMAL );

  00046	53		 push	 ebx
  00047	8d 8d c4 fe ff
	ff		 lea	 ecx, DWORD PTR _kPrinter$[ebp]
  0004d	89 5d fc	 mov	 DWORD PTR __$EHRec$[ebp+8], ebx
  00050	e8 00 00 00 00	 call	 ?SetTextStyle@ioComplexStringPrinter@@QAEXW4TextStyle@@@Z ; ioComplexStringPrinter::SetTextStyle

; 2316 : 	kPrinter.SetBkColor( 0, 0, 0 );

  00055	53		 push	 ebx
  00056	53		 push	 ebx
  00057	53		 push	 ebx
  00058	8d 8d c4 fe ff
	ff		 lea	 ecx, DWORD PTR _kPrinter$[ebp]
  0005e	e8 00 00 00 00	 call	 ?SetBkColor@ioComplexStringPrinter@@QAEXHHH@Z ; ioComplexStringPrinter::SetBkColor

; 2317 : 	kPrinter.SetTextColor( TCT_DEFAULT_DARKGRAY );

  00063	68 3a 3a 3a ff	 push	 -12961222		; ff3a3a3aH
  00068	8d 8d c4 fe ff
	ff		 lea	 ecx, DWORD PTR _kPrinter$[ebp]
  0006e	e8 00 00 00 00	 call	 ?SetTextColor@ioComplexStringPrinter@@QAEXK@Z ; ioComplexStringPrinter::SetTextColor

; 2318 : 	kPrinter.AddTextPiece( FONT_SIZE_17, STR(1), m_szName.c_str() );

  00073	8d 8e 90 01 00
	00		 lea	 ecx, DWORD PTR [esi+400]
  00079	ff 15 00 00 00
	00		 call	 DWORD PTR __imp_?c_str@ioHashString@@QBEPBDXZ
  0007f	8b 35 00 00 00
	00		 mov	 esi, DWORD PTR __imp_?GetSingleton@ioStringManager@@SAAAV1@XZ
  00085	50		 push	 eax
  00086	53		 push	 ebx
  00087	6a 01		 push	 1
  00089	68 00 00 00 00	 push	 OFFSET ??_C@_00CNPNBAHC@?$AA@
  0008e	68 00 00 00 00	 push	 OFFSET ??_C@_0CD@COCDLOEF@TradeItemCancelResultWnd?3?3OnRend@
  00093	ff d6		 call	 esi
  00095	8b 3d 00 00 00
	00		 mov	 edi, DWORD PTR __imp_?GetString@ioStringManager@@QAEPADPBD0HW4FileNamePrefix@1@@Z
  0009b	8b c8		 mov	 ecx, eax
  0009d	ff d7		 call	 edi
  0009f	f3 0f 10 05 00
	00 00 00	 movss	 xmm0, DWORD PTR __real@3f59999a
  000a7	50		 push	 eax
  000a8	51		 push	 ecx
  000a9	8d 8d c4 fe ff
	ff		 lea	 ecx, DWORD PTR _kPrinter$[ebp]
  000af	f3 0f 11 04 24	 movss	 DWORD PTR [esp], xmm0
  000b4	e8 00 00 00 00	 call	 ?AddTextPiece@ioComplexStringPrinter@@QAEXMPBD0@Z ; ioComplexStringPrinter::AddTextPiece

; 2319 : 	kPrinter.PrintFullText( iXPos+NAME_X, iYPos+NAME_Y, TAT_CENTER );

  000b9	8b 85 e8 fe ff
	ff		 mov	 eax, DWORD PTR _iXPos$[ebp]
  000bf	83 c0 67	 add	 eax, 103		; 00000067H
  000c2	68 ff 00 00 00	 push	 255			; 000000ffH
  000c7	0f 57 c0	 xorps	 xmm0, xmm0
  000ca	f3 0f 2a c0	 cvtsi2ss xmm0, eax
  000ce	8b 85 e4 fe ff
	ff		 mov	 eax, DWORD PTR _iYPos$[ebp]
  000d4	6a 01		 push	 1
  000d6	51		 push	 ecx
  000d7	51		 push	 ecx
  000d8	05 95 00 00 00	 add	 eax, 149		; 00000095H
  000dd	0f 57 c9	 xorps	 xmm1, xmm1
  000e0	f3 0f 2a c8	 cvtsi2ss xmm1, eax
  000e4	f3 0f 11 4c 24
	04		 movss	 DWORD PTR [esp+4], xmm1
  000ea	8d 8d c4 fe ff
	ff		 lea	 ecx, DWORD PTR _kPrinter$[ebp]
  000f0	f3 0f 11 85 e8
	fe ff ff	 movss	 DWORD PTR tv260[ebp], xmm0
  000f8	f3 0f 11 04 24	 movss	 DWORD PTR [esp], xmm0
  000fd	e8 00 00 00 00	 call	 ?PrintFullText@ioComplexStringPrinter@@QAEXMMW4TextAlignType@@E@Z ; ioComplexStringPrinter::PrintFullText

; 2320 : 	kPrinter.ClearList();

  00102	8d 8d c4 fe ff
	ff		 lea	 ecx, DWORD PTR _kPrinter$[ebp]
  00108	e8 00 00 00 00	 call	 ?ClearList@ioComplexStringPrinter@@QAEXXZ ; ioComplexStringPrinter::ClearList

; 2321 : 
; 2322 : 	char szPeso[MAX_PATH]="";

  0010d	68 03 01 00 00	 push	 259			; 00000103H
  00112	8d 85 ed fe ff
	ff		 lea	 eax, DWORD PTR _szPeso$[ebp+1]
  00118	53		 push	 ebx
  00119	50		 push	 eax
  0011a	88 9d ec fe ff
	ff		 mov	 BYTE PTR _szPeso$[ebp], bl
  00120	e8 00 00 00 00	 call	 _memset

; 2323 : 	Help::ConvertNumToStrComma( m_iPrice, szPeso, sizeof( szPeso ) );

  00125	68 04 01 00 00	 push	 260			; 00000104H
  0012a	8d 85 ec fe ff
	ff		 lea	 eax, DWORD PTR _szPeso$[ebp]
  00130	50		 push	 eax
  00131	8b 85 c0 fe ff
	ff		 mov	 eax, DWORD PTR _this$GSCopy$[ebp]
  00137	ff b0 a0 01 00
	00		 push	 DWORD PTR [eax+416]
  0013d	e8 00 00 00 00	 call	 ?ConvertNumToStrComma@Help@@YAXHPADH@Z ; Help::ConvertNumToStrComma
  00142	83 c4 18	 add	 esp, 24			; 00000018H

; 2324 : 
; 2325 : 	kPrinter.SetTextStyle( TS_NORMAL );

  00145	53		 push	 ebx
  00146	8d 8d c4 fe ff
	ff		 lea	 ecx, DWORD PTR _kPrinter$[ebp]
  0014c	e8 00 00 00 00	 call	 ?SetTextStyle@ioComplexStringPrinter@@QAEXW4TextStyle@@@Z ; ioComplexStringPrinter::SetTextStyle

; 2326 : 	kPrinter.SetBkColor( 0, 0, 0 );

  00151	53		 push	 ebx
  00152	53		 push	 ebx
  00153	53		 push	 ebx
  00154	8d 8d c4 fe ff
	ff		 lea	 ecx, DWORD PTR _kPrinter$[ebp]
  0015a	e8 00 00 00 00	 call	 ?SetBkColor@ioComplexStringPrinter@@QAEXHHH@Z ; ioComplexStringPrinter::SetBkColor

; 2327 : 	kPrinter.SetTextColor( TCT_DEFAULT_BLUE );

  0015f	68 b2 46 16 ff	 push	 -15317326		; ff1646b2H
  00164	8d 8d c4 fe ff
	ff		 lea	 ecx, DWORD PTR _kPrinter$[ebp]
  0016a	e8 00 00 00 00	 call	 ?SetTextColor@ioComplexStringPrinter@@QAEXK@Z ; ioComplexStringPrinter::SetTextColor

; 2328 : 	kPrinter.AddTextPiece( FONT_SIZE_17, STR(2), szPeso );

  0016f	8d 85 ec fe ff
	ff		 lea	 eax, DWORD PTR _szPeso$[ebp]
  00175	50		 push	 eax
  00176	53		 push	 ebx
  00177	6a 02		 push	 2
  00179	68 00 00 00 00	 push	 OFFSET ??_C@_00CNPNBAHC@?$AA@
  0017e	68 00 00 00 00	 push	 OFFSET ??_C@_0CD@COCDLOEF@TradeItemCancelResultWnd?3?3OnRend@
  00183	ff d6		 call	 esi
  00185	8b c8		 mov	 ecx, eax
  00187	ff d7		 call	 edi
  00189	f3 0f 10 05 00
	00 00 00	 movss	 xmm0, DWORD PTR __real@3f59999a
  00191	50		 push	 eax
  00192	51		 push	 ecx
  00193	8d 8d c4 fe ff
	ff		 lea	 ecx, DWORD PTR _kPrinter$[ebp]
  00199	f3 0f 11 04 24	 movss	 DWORD PTR [esp], xmm0
  0019e	e8 00 00 00 00	 call	 ?AddTextPiece@ioComplexStringPrinter@@QAEXMPBD0@Z ; ioComplexStringPrinter::AddTextPiece

; 2329 : 	kPrinter.PrintFullText( iXPos+NAME_X, iYPos+NAME_Y+21, TAT_CENTER );

  001a3	8b 85 e4 fe ff
	ff		 mov	 eax, DWORD PTR _iYPos$[ebp]
  001a9	68 ff 00 00 00	 push	 255			; 000000ffH
  001ae	6a 01		 push	 1
  001b0	51		 push	 ecx
  001b1	51		 push	 ecx
  001b2	05 aa 00 00 00	 add	 eax, 170		; 000000aaH
  001b7	0f 57 c0	 xorps	 xmm0, xmm0
  001ba	f3 0f 2a c0	 cvtsi2ss xmm0, eax
  001be	f3 0f 11 44 24
	04		 movss	 DWORD PTR [esp+4], xmm0
  001c4	f3 0f 10 85 e8
	fe ff ff	 movss	 xmm0, DWORD PTR tv260[ebp]
  001cc	8d 8d c4 fe ff
	ff		 lea	 ecx, DWORD PTR _kPrinter$[ebp]
  001d2	f3 0f 11 04 24	 movss	 DWORD PTR [esp], xmm0
  001d7	e8 00 00 00 00	 call	 ?PrintFullText@ioComplexStringPrinter@@QAEXMMW4TextAlignType@@E@Z ; ioComplexStringPrinter::PrintFullText

; 2330 : 	kPrinter.ClearList();

  001dc	8d 8d c4 fe ff
	ff		 lea	 ecx, DWORD PTR _kPrinter$[ebp]
  001e2	e8 00 00 00 00	 call	 ?ClearList@ioComplexStringPrinter@@QAEXXZ ; ioComplexStringPrinter::ClearList

; 2331 : 
; 2332 : 	kPrinter.SetTextStyle( TS_NORMAL );

  001e7	53		 push	 ebx
  001e8	8d 8d c4 fe ff
	ff		 lea	 ecx, DWORD PTR _kPrinter$[ebp]
  001ee	e8 00 00 00 00	 call	 ?SetTextStyle@ioComplexStringPrinter@@QAEXW4TextStyle@@@Z ; ioComplexStringPrinter::SetTextStyle

; 2333 : 	kPrinter.SetBkColor( 0, 0, 0 );

  001f3	53		 push	 ebx
  001f4	53		 push	 ebx
  001f5	53		 push	 ebx
  001f6	8d 8d c4 fe ff
	ff		 lea	 ecx, DWORD PTR _kPrinter$[ebp]
  001fc	e8 00 00 00 00	 call	 ?SetBkColor@ioComplexStringPrinter@@QAEXHHH@Z ; ioComplexStringPrinter::SetBkColor

; 2334 : 	kPrinter.SetTextColor( TCT_DEFAULT_RED );

  00201	68 00 16 b9 ff	 push	 -4647424		; ffb91600H
  00206	8d 8d c4 fe ff
	ff		 lea	 ecx, DWORD PTR _kPrinter$[ebp]
  0020c	e8 00 00 00 00	 call	 ?SetTextColor@ioComplexStringPrinter@@QAEXK@Z ; ioComplexStringPrinter::SetTextColor

; 2335 : 	kPrinter.AddTextPiece( FONT_SIZE_13, STR(3) );

  00211	53		 push	 ebx
  00212	6a 03		 push	 3
  00214	68 00 00 00 00	 push	 OFFSET ??_C@_00CNPNBAHC@?$AA@
  00219	68 00 00 00 00	 push	 OFFSET ??_C@_0CD@COCDLOEF@TradeItemCancelResultWnd?3?3OnRend@
  0021e	ff d6		 call	 esi
  00220	8b c8		 mov	 ecx, eax
  00222	ff d7		 call	 edi
  00224	f3 0f 10 05 00
	00 00 00	 movss	 xmm0, DWORD PTR __real@3f266666
  0022c	50		 push	 eax
  0022d	51		 push	 ecx
  0022e	8d 85 c4 fe ff
	ff		 lea	 eax, DWORD PTR _kPrinter$[ebp]
  00234	f3 0f 11 04 24	 movss	 DWORD PTR [esp], xmm0
  00239	50		 push	 eax
  0023a	e8 00 00 00 00	 call	 ?AddTextPiece@ioComplexStringPrinter@@QAAXMPBDZZ ; ioComplexStringPrinter::AddTextPiece

; 2336 : 	kPrinter.PrintFullText( iXPos+TEXT_X, iYPos+TEXT_Y, TAT_CENTER );

  0023f	8b 85 e4 fe ff
	ff		 mov	 eax, DWORD PTR _iYPos$[ebp]
  00245	83 c4 0c	 add	 esp, 12			; 0000000cH
  00248	68 ff 00 00 00	 push	 255			; 000000ffH
  0024d	6a 01		 push	 1
  0024f	51		 push	 ecx
  00250	51		 push	 ecx
  00251	05 c7 00 00 00	 add	 eax, 199		; 000000c7H
  00256	0f 57 c0	 xorps	 xmm0, xmm0
  00259	f3 0f 2a c0	 cvtsi2ss xmm0, eax
  0025d	f3 0f 11 44 24
	04		 movss	 DWORD PTR [esp+4], xmm0
  00263	f3 0f 10 85 e8
	fe ff ff	 movss	 xmm0, DWORD PTR tv260[ebp]
  0026b	8d 8d c4 fe ff
	ff		 lea	 ecx, DWORD PTR _kPrinter$[ebp]
  00271	f3 0f 11 04 24	 movss	 DWORD PTR [esp], xmm0
  00276	e8 00 00 00 00	 call	 ?PrintFullText@ioComplexStringPrinter@@QAEXMMW4TextAlignType@@E@Z ; ioComplexStringPrinter::PrintFullText

; 2337 : 	kPrinter.ClearList();

  0027b	8d 8d c4 fe ff
	ff		 lea	 ecx, DWORD PTR _kPrinter$[ebp]
  00281	e8 00 00 00 00	 call	 ?ClearList@ioComplexStringPrinter@@QAEXXZ ; ioComplexStringPrinter::ClearList

; 2338 : }

  00286	83 4d fc ff	 or	 DWORD PTR __$EHRec$[ebp+8], -1
  0028a	8d 8d c4 fe ff
	ff		 lea	 ecx, DWORD PTR _kPrinter$[ebp]
  00290	e8 00 00 00 00	 call	 ??1ioComplexStringPrinter@@QAE@XZ ; ioComplexStringPrinter::~ioComplexStringPrinter
  00295	e8 00 00 00 00	 call	 __EH_epilog3_GS
  0029a	c3		 ret	 0
_TEXT	ENDS
;	COMDAT text$x
text$x	SEGMENT
__unwindfunclet$?OnRender@TradeItemCancelResultWnd@@MAEXXZ$0:
  00000	8d 8d c4 fe ff
	ff		 lea	 ecx, DWORD PTR _kPrinter$[ebp]
  00006	e9 00 00 00 00	 jmp	 ??1ioComplexStringPrinter@@QAE@XZ ; ioComplexStringPrinter::~ioComplexStringPrinter
__ehhandler$?OnRender@TradeItemCancelResultWnd@@MAEXXZ:
  0000b	8b 54 24 08	 mov	 edx, DWORD PTR [esp+8]
  0000f	8d 42 0c	 lea	 eax, DWORD PTR [edx+12]
  00012	8b 8a bc fe ff
	ff		 mov	 ecx, DWORD PTR [edx-324]
  00018	33 c8		 xor	 ecx, eax
  0001a	e8 00 00 00 00	 call	 @__security_check_cookie@4
  0001f	8b 4a fc	 mov	 ecx, DWORD PTR [edx-4]
  00022	33 c8		 xor	 ecx, eax
  00024	e8 00 00 00 00	 call	 @__security_check_cookie@4
  00029	b8 00 00 00 00	 mov	 eax, OFFSET __ehfuncinfo$?OnRender@TradeItemCancelResultWnd@@MAEXXZ
  0002e	e9 00 00 00 00	 jmp	 ___CxxFrameHandler3
text$x	ENDS
?OnRender@TradeItemCancelResultWnd@@MAEXXZ ENDP		; TradeItemCancelResultWnd::OnRender
PUBLIC	?size@?$vector@UTradeItemInfo@@V?$allocator@UTradeItemInfo@@@std@@@std@@QBEIXZ ; std::vector<TradeItemInfo,std::allocator<TradeItemInfo> >::size
; Function compile flags: /Ogsp
; File c:\program files (x86)\microsoft visual studio 10.0\vc\include\vector
;	COMDAT ?size@?$vector@UTradeItemInfo@@V?$allocator@UTradeItemInfo@@@std@@@std@@QBEIXZ
_TEXT	SEGMENT
?size@?$vector@UTradeItemInfo@@V?$allocator@UTradeItemInfo@@@std@@@std@@QBEIXZ PROC ; std::vector<TradeItemInfo,std::allocator<TradeItemInfo> >::size, COMDAT
; _this$ = ecx

; 879  : 		return (this->_Mylast - this->_Myfirst);

  00000	8b 41 04	 mov	 eax, DWORD PTR [ecx+4]
  00003	2b 01		 sub	 eax, DWORD PTR [ecx]
  00005	c1 f8 06	 sar	 eax, 6

; 880  : 		}

  00008	c3		 ret	 0
?size@?$vector@UTradeItemInfo@@V?$allocator@UTradeItemInfo@@@std@@@std@@QBEIXZ ENDP ; std::vector<TradeItemInfo,std::allocator<TradeItemInfo> >::size
_TEXT	ENDS
PUBLIC	?empty@?$vector@UTradeItemInfo@@V?$allocator@UTradeItemInfo@@@std@@@std@@QBE_NXZ ; std::vector<TradeItemInfo,std::allocator<TradeItemInfo> >::empty
; Function compile flags: /Ogsp
;	COMDAT ?empty@?$vector@UTradeItemInfo@@V?$allocator@UTradeItemInfo@@@std@@@std@@QBE_NXZ
_TEXT	SEGMENT
?empty@?$vector@UTradeItemInfo@@V?$allocator@UTradeItemInfo@@@std@@@std@@QBE_NXZ PROC ; std::vector<TradeItemInfo,std::allocator<TradeItemInfo> >::empty, COMDAT
; _this$ = ecx

; 889  : 		return (this->_Myfirst == this->_Mylast);

  00000	8b 01		 mov	 eax, DWORD PTR [ecx]
  00002	2b 41 04	 sub	 eax, DWORD PTR [ecx+4]
  00005	f7 d8		 neg	 eax
  00007	1b c0		 sbb	 eax, eax
  00009	40		 inc	 eax

; 890  : 		}

  0000a	c3		 ret	 0
?empty@?$vector@UTradeItemInfo@@V?$allocator@UTradeItemInfo@@@std@@@std@@QBE_NXZ ENDP ; std::vector<TradeItemInfo,std::allocator<TradeItemInfo> >::empty
_TEXT	ENDS
PUBLIC	??A?$vector@UTradeItemInfo@@V?$allocator@UTradeItemInfo@@@std@@@std@@QAEAAUTradeItemInfo@@I@Z ; std::vector<TradeItemInfo,std::allocator<TradeItemInfo> >::operator[]
; Function compile flags: /Ogsp
;	COMDAT ??A?$vector@UTradeItemInfo@@V?$allocator@UTradeItemInfo@@@std@@@std@@QAEAAUTradeItemInfo@@I@Z
_TEXT	SEGMENT
__Pos$ = 8						; size = 4
??A?$vector@UTradeItemInfo@@V?$allocator@UTradeItemInfo@@@std@@@std@@QAEAAUTradeItemInfo@@I@Z PROC ; std::vector<TradeItemInfo,std::allocator<TradeItemInfo> >::operator[], COMDAT
; _this$ = ecx

; 928  : 		{	// subscript mutable sequence

  00000	55		 push	 ebp
  00001	8b ec		 mov	 ebp, esp

; 929  :  #if _ITERATOR_DEBUG_LEVEL == 2
; 930  : 		if (size() <= _Pos)
; 931  : 			{	// report error
; 932  : 			_DEBUG_ERROR("vector subscript out of range");
; 933  : 			_SCL_SECURE_OUT_OF_RANGE;
; 934  : 			}
; 935  : 
; 936  :  #elif _ITERATOR_DEBUG_LEVEL == 1
; 937  : 		_SCL_SECURE_VALIDATE_RANGE(_Pos < size());
; 938  :  #endif /* _ITERATOR_DEBUG_LEVEL */
; 939  : 
; 940  : 		return (*(this->_Myfirst + _Pos));

  00003	8b 45 08	 mov	 eax, DWORD PTR __Pos$[ebp]
  00006	c1 e0 06	 shl	 eax, 6
  00009	03 01		 add	 eax, DWORD PTR [ecx]

; 941  : 		}

  0000b	5d		 pop	 ebp
  0000c	c2 04 00	 ret	 4
??A?$vector@UTradeItemInfo@@V?$allocator@UTradeItemInfo@@@std@@@std@@QAEAAUTradeItemInfo@@I@Z ENDP ; std::vector<TradeItemInfo,std::allocator<TradeItemInfo> >::operator[]
_TEXT	ENDS
PUBLIC	?size@?$vector@UNewShopPullDownItem@@V?$allocator@UNewShopPullDownItem@@@std@@@std@@QBEIXZ ; std::vector<NewShopPullDownItem,std::allocator<NewShopPullDownItem> >::size
; Function compile flags: /Ogsp
;	COMDAT ?size@?$vector@UNewShopPullDownItem@@V?$allocator@UNewShopPullDownItem@@@std@@@std@@QBEIXZ
_TEXT	SEGMENT
?size@?$vector@UNewShopPullDownItem@@V?$allocator@UNewShopPullDownItem@@@std@@@std@@QBEIXZ PROC ; std::vector<NewShopPullDownItem,std::allocator<NewShopPullDownItem> >::size, COMDAT
; _this$ = ecx

; 879  : 		return (this->_Mylast - this->_Myfirst);

  00000	8b 41 04	 mov	 eax, DWORD PTR [ecx+4]
  00003	2b 01		 sub	 eax, DWORD PTR [ecx]
  00005	6a 50		 push	 80			; 00000050H
  00007	99		 cdq
  00008	59		 pop	 ecx
  00009	f7 f9		 idiv	 ecx

; 880  : 		}

  0000b	c3		 ret	 0
?size@?$vector@UNewShopPullDownItem@@V?$allocator@UNewShopPullDownItem@@@std@@@std@@QBEIXZ ENDP ; std::vector<NewShopPullDownItem,std::allocator<NewShopPullDownItem> >::size
_TEXT	ENDS
PUBLIC	?empty@?$vector@UNewShopPullDownItem@@V?$allocator@UNewShopPullDownItem@@@std@@@std@@QBE_NXZ ; std::vector<NewShopPullDownItem,std::allocator<NewShopPullDownItem> >::empty
; Function compile flags: /Ogsp
;	COMDAT ?empty@?$vector@UNewShopPullDownItem@@V?$allocator@UNewShopPullDownItem@@@std@@@std@@QBE_NXZ
_TEXT	SEGMENT
?empty@?$vector@UNewShopPullDownItem@@V?$allocator@UNewShopPullDownItem@@@std@@@std@@QBE_NXZ PROC ; std::vector<NewShopPullDownItem,std::allocator<NewShopPullDownItem> >::empty, COMDAT
; _this$ = ecx

; 889  : 		return (this->_Myfirst == this->_Mylast);

  00000	8b 01		 mov	 eax, DWORD PTR [ecx]
  00002	2b 41 04	 sub	 eax, DWORD PTR [ecx+4]
  00005	f7 d8		 neg	 eax
  00007	1b c0		 sbb	 eax, eax
  00009	40		 inc	 eax

; 890  : 		}

  0000a	c3		 ret	 0
?empty@?$vector@UNewShopPullDownItem@@V?$allocator@UNewShopPullDownItem@@@std@@@std@@QBE_NXZ ENDP ; std::vector<NewShopPullDownItem,std::allocator<NewShopPullDownItem> >::empty
_TEXT	ENDS
PUBLIC	??A?$vector@UNewShopPullDownItem@@V?$allocator@UNewShopPullDownItem@@@std@@@std@@QAEAAUNewShopPullDownItem@@I@Z ; std::vector<NewShopPullDownItem,std::allocator<NewShopPullDownItem> >::operator[]
; Function compile flags: /Ogsp
;	COMDAT ??A?$vector@UNewShopPullDownItem@@V?$allocator@UNewShopPullDownItem@@@std@@@std@@QAEAAUNewShopPullDownItem@@I@Z
_TEXT	SEGMENT
__Pos$ = 8						; size = 4
??A?$vector@UNewShopPullDownItem@@V?$allocator@UNewShopPullDownItem@@@std@@@std@@QAEAAUNewShopPullDownItem@@I@Z PROC ; std::vector<NewShopPullDownItem,std::allocator<NewShopPullDownItem> >::operator[], COMDAT
; _this$ = ecx

; 928  : 		{	// subscript mutable sequence

  00000	55		 push	 ebp
  00001	8b ec		 mov	 ebp, esp

; 929  :  #if _ITERATOR_DEBUG_LEVEL == 2
; 930  : 		if (size() <= _Pos)
; 931  : 			{	// report error
; 932  : 			_DEBUG_ERROR("vector subscript out of range");
; 933  : 			_SCL_SECURE_OUT_OF_RANGE;
; 934  : 			}
; 935  : 
; 936  :  #elif _ITERATOR_DEBUG_LEVEL == 1
; 937  : 		_SCL_SECURE_VALIDATE_RANGE(_Pos < size());
; 938  :  #endif /* _ITERATOR_DEBUG_LEVEL */
; 939  : 
; 940  : 		return (*(this->_Myfirst + _Pos));

  00003	8b 45 08	 mov	 eax, DWORD PTR __Pos$[ebp]
  00006	6b c0 50	 imul	 eax, 80			; 00000050H
  00009	03 01		 add	 eax, DWORD PTR [ecx]

; 941  : 		}

  0000b	5d		 pop	 ebp
  0000c	c2 04 00	 ret	 4
??A?$vector@UNewShopPullDownItem@@V?$allocator@UNewShopPullDownItem@@@std@@@std@@QAEAAUNewShopPullDownItem@@I@Z ENDP ; std::vector<NewShopPullDownItem,std::allocator<NewShopPullDownItem> >::operator[]
_TEXT	ENDS
PUBLIC	?capacity@?$vector@UTradeItemInfo@@V?$allocator@UTradeItemInfo@@@std@@@std@@QBEIXZ ; std::vector<TradeItemInfo,std::allocator<TradeItemInfo> >::capacity
; Function compile flags: /Ogsp
;	COMDAT ?capacity@?$vector@UTradeItemInfo@@V?$allocator@UTradeItemInfo@@@std@@@std@@QBEIXZ
_TEXT	SEGMENT
?capacity@?$vector@UTradeItemInfo@@V?$allocator@UTradeItemInfo@@@std@@@std@@QBEIXZ PROC ; std::vector<TradeItemInfo,std::allocator<TradeItemInfo> >::capacity, COMDAT
; _this$ = ecx

; 777  : 		return (this->_Myend - this->_Myfirst);

  00000	8b 41 08	 mov	 eax, DWORD PTR [ecx+8]
  00003	2b 01		 sub	 eax, DWORD PTR [ecx]
  00005	c1 f8 06	 sar	 eax, 6

; 778  : 		}

  00008	c3		 ret	 0
?capacity@?$vector@UTradeItemInfo@@V?$allocator@UTradeItemInfo@@@std@@@std@@QBEIXZ ENDP ; std::vector<TradeItemInfo,std::allocator<TradeItemInfo> >::capacity
_TEXT	ENDS
PUBLIC	?_Inside@?$vector@UTradeItemInfo@@V?$allocator@UTradeItemInfo@@@std@@@std@@IBE_NPBUTradeItemInfo@@@Z ; std::vector<TradeItemInfo,std::allocator<TradeItemInfo> >::_Inside
; Function compile flags: /Ogsp
;	COMDAT ?_Inside@?$vector@UTradeItemInfo@@V?$allocator@UTradeItemInfo@@@std@@@std@@IBE_NPBUTradeItemInfo@@@Z
_TEXT	SEGMENT
__Ptr$ = 8						; size = 4
?_Inside@?$vector@UTradeItemInfo@@V?$allocator@UTradeItemInfo@@@std@@@std@@IBE_NPBUTradeItemInfo@@@Z PROC ; std::vector<TradeItemInfo,std::allocator<TradeItemInfo> >::_Inside, COMDAT
; _this$ = ecx

; 1285 : 		{	// test if _Ptr points inside vector

  00000	55		 push	 ebp
  00001	8b ec		 mov	 ebp, esp

; 1286 : 		return (_Ptr < this->_Mylast && this->_Myfirst <= _Ptr);

  00003	8b 45 08	 mov	 eax, DWORD PTR __Ptr$[ebp]
  00006	3b 41 04	 cmp	 eax, DWORD PTR [ecx+4]
  00009	73 09		 jae	 SHORT $LN3@Inside
  0000b	39 01		 cmp	 DWORD PTR [ecx], eax
  0000d	77 05		 ja	 SHORT $LN3@Inside
  0000f	33 c0		 xor	 eax, eax
  00011	40		 inc	 eax
  00012	eb 02		 jmp	 SHORT $LN4@Inside
$LN3@Inside:
  00014	33 c0		 xor	 eax, eax
$LN4@Inside:

; 1287 : 		}

  00016	5d		 pop	 ebp
  00017	c2 04 00	 ret	 4
?_Inside@?$vector@UTradeItemInfo@@V?$allocator@UTradeItemInfo@@@std@@@std@@IBE_NPBUTradeItemInfo@@@Z ENDP ; std::vector<TradeItemInfo,std::allocator<TradeItemInfo> >::_Inside
_TEXT	ENDS
PUBLIC	?_Orphan_range@?$vector@UTradeItemInfo@@V?$allocator@UTradeItemInfo@@@std@@@std@@IBEXPAUTradeItemInfo@@0@Z ; std::vector<TradeItemInfo,std::allocator<TradeItemInfo> >::_Orphan_range
; Function compile flags: /Ogsp
;	COMDAT ?_Orphan_range@?$vector@UTradeItemInfo@@V?$allocator@UTradeItemInfo@@@std@@@std@@IBEXPAUTradeItemInfo@@0@Z
_TEXT	SEGMENT
___formal$ = 8						; size = 4
___formal$ = 12						; size = 4
?_Orphan_range@?$vector@UTradeItemInfo@@V?$allocator@UTradeItemInfo@@@std@@@std@@IBEXPAUTradeItemInfo@@0@Z PROC ; std::vector<TradeItemInfo,std::allocator<TradeItemInfo> >::_Orphan_range, COMDAT
; _this$ = ecx

; 1454 : 		}

  00000	c2 08 00	 ret	 8
?_Orphan_range@?$vector@UTradeItemInfo@@V?$allocator@UTradeItemInfo@@@std@@@std@@IBEXPAUTradeItemInfo@@0@Z ENDP ; std::vector<TradeItemInfo,std::allocator<TradeItemInfo> >::_Orphan_range
_TEXT	ENDS
PUBLIC	??1?$_Vector_val@UTradeItemInfo@@V?$allocator@UTradeItemInfo@@@std@@@std@@QAE@XZ ; std::_Vector_val<TradeItemInfo,std::allocator<TradeItemInfo> >::~_Vector_val<TradeItemInfo,std::allocator<TradeItemInfo> >
; Function compile flags: /Ogsp
;	COMDAT ??1?$_Vector_val@UTradeItemInfo@@V?$allocator@UTradeItemInfo@@@std@@@std@@QAE@XZ
_TEXT	SEGMENT
??1?$_Vector_val@UTradeItemInfo@@V?$allocator@UTradeItemInfo@@@std@@@std@@QAE@XZ PROC ; std::_Vector_val<TradeItemInfo,std::allocator<TradeItemInfo> >::~_Vector_val<TradeItemInfo,std::allocator<TradeItemInfo> >, COMDAT
; _this$ = ecx

; 434  : 		}

  00000	c3		 ret	 0
??1?$_Vector_val@UTradeItemInfo@@V?$allocator@UTradeItemInfo@@@std@@@std@@QAE@XZ ENDP ; std::_Vector_val<TradeItemInfo,std::allocator<TradeItemInfo> >::~_Vector_val<TradeItemInfo,std::allocator<TradeItemInfo> >
_TEXT	ENDS
PUBLIC	??0?$allocator@UTradeItemInfo@@@std@@QAE@XZ	; std::allocator<TradeItemInfo>::allocator<TradeItemInfo>
; Function compile flags: /Ogsp
; File c:\program files (x86)\microsoft visual studio 10.0\vc\include\xmemory
;	COMDAT ??0?$allocator@UTradeItemInfo@@@std@@QAE@XZ
_TEXT	SEGMENT
??0?$allocator@UTradeItemInfo@@@std@@QAE@XZ PROC	; std::allocator<TradeItemInfo>::allocator<TradeItemInfo>, COMDAT
; _this$ = ecx

; 161  : 	_ALLOCATOR() _THROW0()

  00000	8b c1		 mov	 eax, ecx

; 162  : 		{	// construct default allocator (do nothing)
; 163  : 		}

  00002	c3		 ret	 0
??0?$allocator@UTradeItemInfo@@@std@@QAE@XZ ENDP	; std::allocator<TradeItemInfo>::allocator<TradeItemInfo>
_TEXT	ENDS
PUBLIC	?deallocate@?$allocator@UTradeItemInfo@@@std@@QAEXPAUTradeItemInfo@@I@Z ; std::allocator<TradeItemInfo>::deallocate
; Function compile flags: /Ogsp
;	COMDAT ?deallocate@?$allocator@UTradeItemInfo@@@std@@QAEXPAUTradeItemInfo@@I@Z
_TEXT	SEGMENT
__Ptr$ = 8						; size = 4
___formal$ = 12						; size = 4
?deallocate@?$allocator@UTradeItemInfo@@@std@@QAEXPAUTradeItemInfo@@I@Z PROC ; std::allocator<TradeItemInfo>::deallocate, COMDAT
; _this$ = ecx

; 181  : 		{	// deallocate object at _Ptr, ignore size

  00000	55		 push	 ebp
  00001	8b ec		 mov	 ebp, esp

; 182  : 		::operator delete(_Ptr);

  00003	ff 75 08	 push	 DWORD PTR __Ptr$[ebp]
  00006	e8 00 00 00 00	 call	 ??3@YAXPAX@Z		; operator delete
  0000b	59		 pop	 ecx

; 183  : 		}

  0000c	5d		 pop	 ebp
  0000d	c2 08 00	 ret	 8
?deallocate@?$allocator@UTradeItemInfo@@@std@@QAEXPAUTradeItemInfo@@I@Z ENDP ; std::allocator<TradeItemInfo>::deallocate
_TEXT	ENDS
PUBLIC	?_Inside@?$vector@UNewShopPullDownItem@@V?$allocator@UNewShopPullDownItem@@@std@@@std@@IBE_NPBUNewShopPullDownItem@@@Z ; std::vector<NewShopPullDownItem,std::allocator<NewShopPullDownItem> >::_Inside
; Function compile flags: /Ogsp
; File c:\program files (x86)\microsoft visual studio 10.0\vc\include\vector
;	COMDAT ?_Inside@?$vector@UNewShopPullDownItem@@V?$allocator@UNewShopPullDownItem@@@std@@@std@@IBE_NPBUNewShopPullDownItem@@@Z
_TEXT	SEGMENT
__Ptr$ = 8						; size = 4
?_Inside@?$vector@UNewShopPullDownItem@@V?$allocator@UNewShopPullDownItem@@@std@@@std@@IBE_NPBUNewShopPullDownItem@@@Z PROC ; std::vector<NewShopPullDownItem,std::allocator<NewShopPullDownItem> >::_Inside, COMDAT
; _this$ = ecx

; 1285 : 		{	// test if _Ptr points inside vector

  00000	55		 push	 ebp
  00001	8b ec		 mov	 ebp, esp

; 1286 : 		return (_Ptr < this->_Mylast && this->_Myfirst <= _Ptr);

  00003	8b 45 08	 mov	 eax, DWORD PTR __Ptr$[ebp]
  00006	3b 41 04	 cmp	 eax, DWORD PTR [ecx+4]
  00009	73 09		 jae	 SHORT $LN3@Inside@2
  0000b	39 01		 cmp	 DWORD PTR [ecx], eax
  0000d	77 05		 ja	 SHORT $LN3@Inside@2
  0000f	33 c0		 xor	 eax, eax
  00011	40		 inc	 eax
  00012	eb 02		 jmp	 SHORT $LN4@Inside@2
$LN3@Inside@2:
  00014	33 c0		 xor	 eax, eax
$LN4@Inside@2:

; 1287 : 		}

  00016	5d		 pop	 ebp
  00017	c2 04 00	 ret	 4
?_Inside@?$vector@UNewShopPullDownItem@@V?$allocator@UNewShopPullDownItem@@@std@@@std@@IBE_NPBUNewShopPullDownItem@@@Z ENDP ; std::vector<NewShopPullDownItem,std::allocator<NewShopPullDownItem> >::_Inside
_TEXT	ENDS
PUBLIC	?_Orphan_range@?$vector@UNewShopPullDownItem@@V?$allocator@UNewShopPullDownItem@@@std@@@std@@IBEXPAUNewShopPullDownItem@@0@Z ; std::vector<NewShopPullDownItem,std::allocator<NewShopPullDownItem> >::_Orphan_range
; Function compile flags: /Ogsp
;	COMDAT ?_Orphan_range@?$vector@UNewShopPullDownItem@@V?$allocator@UNewShopPullDownItem@@@std@@@std@@IBEXPAUNewShopPullDownItem@@0@Z
_TEXT	SEGMENT
___formal$ = 8						; size = 4
___formal$ = 12						; size = 4
?_Orphan_range@?$vector@UNewShopPullDownItem@@V?$allocator@UNewShopPullDownItem@@@std@@@std@@IBEXPAUNewShopPullDownItem@@0@Z PROC ; std::vector<NewShopPullDownItem,std::allocator<NewShopPullDownItem> >::_Orphan_range, COMDAT
; _this$ = ecx

; 1454 : 		}

  00000	c2 08 00	 ret	 8
?_Orphan_range@?$vector@UNewShopPullDownItem@@V?$allocator@UNewShopPullDownItem@@@std@@@std@@IBEXPAUNewShopPullDownItem@@0@Z ENDP ; std::vector<NewShopPullDownItem,std::allocator<NewShopPullDownItem> >::_Orphan_range
_TEXT	ENDS
PUBLIC	??1?$_Vector_val@UNewShopPullDownItem@@V?$allocator@UNewShopPullDownItem@@@std@@@std@@QAE@XZ ; std::_Vector_val<NewShopPullDownItem,std::allocator<NewShopPullDownItem> >::~_Vector_val<NewShopPullDownItem,std::allocator<NewShopPullDownItem> >
; Function compile flags: /Ogsp
;	COMDAT ??1?$_Vector_val@UNewShopPullDownItem@@V?$allocator@UNewShopPullDownItem@@@std@@@std@@QAE@XZ
_TEXT	SEGMENT
??1?$_Vector_val@UNewShopPullDownItem@@V?$allocator@UNewShopPullDownItem@@@std@@@std@@QAE@XZ PROC ; std::_Vector_val<NewShopPullDownItem,std::allocator<NewShopPullDownItem> >::~_Vector_val<NewShopPullDownItem,std::allocator<NewShopPullDownItem> >, COMDAT
; _this$ = ecx

; 434  : 		}

  00000	c3		 ret	 0
??1?$_Vector_val@UNewShopPullDownItem@@V?$allocator@UNewShopPullDownItem@@@std@@@std@@QAE@XZ ENDP ; std::_Vector_val<NewShopPullDownItem,std::allocator<NewShopPullDownItem> >::~_Vector_val<NewShopPullDownItem,std::allocator<NewShopPullDownItem> >
_TEXT	ENDS
PUBLIC	??0?$allocator@UNewShopPullDownItem@@@std@@QAE@XZ ; std::allocator<NewShopPullDownItem>::allocator<NewShopPullDownItem>
; Function compile flags: /Ogsp
; File c:\program files (x86)\microsoft visual studio 10.0\vc\include\xmemory
;	COMDAT ??0?$allocator@UNewShopPullDownItem@@@std@@QAE@XZ
_TEXT	SEGMENT
??0?$allocator@UNewShopPullDownItem@@@std@@QAE@XZ PROC	; std::allocator<NewShopPullDownItem>::allocator<NewShopPullDownItem>, COMDAT
; _this$ = ecx

; 161  : 	_ALLOCATOR() _THROW0()

  00000	8b c1		 mov	 eax, ecx

; 162  : 		{	// construct default allocator (do nothing)
; 163  : 		}

  00002	c3		 ret	 0
??0?$allocator@UNewShopPullDownItem@@@std@@QAE@XZ ENDP	; std::allocator<NewShopPullDownItem>::allocator<NewShopPullDownItem>
_TEXT	ENDS
PUBLIC	??D?$_Vector_const_iterator@V?$_Vector_val@UTradeItemInfo@@V?$allocator@UTradeItemInfo@@@std@@@std@@@std@@QBEABUTradeItemInfo@@XZ ; std::_Vector_const_iterator<std::_Vector_val<TradeItemInfo,std::allocator<TradeItemInfo> > >::operator*
; Function compile flags: /Ogsp
; File c:\program files (x86)\microsoft visual studio 10.0\vc\include\vector
;	COMDAT ??D?$_Vector_const_iterator@V?$_Vector_val@UTradeItemInfo@@V?$allocator@UTradeItemInfo@@@std@@@std@@@std@@QBEABUTradeItemInfo@@XZ
_TEXT	SEGMENT
??D?$_Vector_const_iterator@V?$_Vector_val@UTradeItemInfo@@V?$allocator@UTradeItemInfo@@@std@@@std@@@std@@QBEABUTradeItemInfo@@XZ PROC ; std::_Vector_const_iterator<std::_Vector_val<TradeItemInfo,std::allocator<TradeItemInfo> > >::operator*, COMDAT
; _this$ = ecx

; 64   :  #if _ITERATOR_DEBUG_LEVEL == 2
; 65   : 		if (this->_Getcont() == 0
; 66   : 			|| this->_Ptr == 0
; 67   : 			|| this->_Ptr < ((_Myvec *)this->_Getcont())->_Myfirst
; 68   : 			|| ((_Myvec *)this->_Getcont())->_Mylast <= this->_Ptr)
; 69   : 			{	// report error
; 70   : 			_DEBUG_ERROR("vector iterator not dereferencable");
; 71   : 			_SCL_SECURE_OUT_OF_RANGE;
; 72   : 			}
; 73   : 
; 74   :  #elif _ITERATOR_DEBUG_LEVEL == 1
; 75   : 		_SCL_SECURE_VALIDATE(this->_Getcont() != 0);
; 76   : 		_SCL_SECURE_VALIDATE_RANGE(
; 77   : 			this->_Ptr != 0
; 78   : 			&& ((_Myvec *)this->_Getcont())->_Myfirst <= this->_Ptr
; 79   : 			&& this->_Ptr < ((_Myvec *)this->_Getcont())->_Mylast);
; 80   :  #endif /* _ITERATOR_DEBUG_LEVEL */
; 81   : 
; 82   : 		__analysis_assume(this->_Ptr != 0);
; 83   : 
; 84   : 		return (*this->_Ptr);

  00000	8b 01		 mov	 eax, DWORD PTR [ecx]

; 85   : 		}

  00002	c3		 ret	 0
??D?$_Vector_const_iterator@V?$_Vector_val@UTradeItemInfo@@V?$allocator@UTradeItemInfo@@@std@@@std@@@std@@QBEABUTradeItemInfo@@XZ ENDP ; std::_Vector_const_iterator<std::_Vector_val<TradeItemInfo,std::allocator<TradeItemInfo> > >::operator*
_TEXT	ENDS
PUBLIC	??E?$_Vector_const_iterator@V?$_Vector_val@UTradeItemInfo@@V?$allocator@UTradeItemInfo@@@std@@@std@@@std@@QAEAAV01@XZ ; std::_Vector_const_iterator<std::_Vector_val<TradeItemInfo,std::allocator<TradeItemInfo> > >::operator++
; Function compile flags: /Ogsp
;	COMDAT ??E?$_Vector_const_iterator@V?$_Vector_val@UTradeItemInfo@@V?$allocator@UTradeItemInfo@@@std@@@std@@@std@@QAEAAV01@XZ
_TEXT	SEGMENT
??E?$_Vector_const_iterator@V?$_Vector_val@UTradeItemInfo@@V?$allocator@UTradeItemInfo@@@std@@@std@@@std@@QAEAAV01@XZ PROC ; std::_Vector_const_iterator<std::_Vector_val<TradeItemInfo,std::allocator<TradeItemInfo> > >::operator++, COMDAT
; _this$ = ecx

; 93   : 		{	// preincrement

  00000	8b c1		 mov	 eax, ecx

; 94   :  #if _ITERATOR_DEBUG_LEVEL == 2
; 95   : 		if (this->_Getcont() == 0
; 96   : 			|| this->_Ptr == 0
; 97   : 			|| ((_Myvec *)this->_Getcont())->_Mylast <= this->_Ptr)
; 98   : 			{	// report error
; 99   : 			_DEBUG_ERROR("vector iterator not incrementable");
; 100  : 			_SCL_SECURE_OUT_OF_RANGE;
; 101  : 			}
; 102  : 
; 103  :  #elif _ITERATOR_DEBUG_LEVEL == 1
; 104  : 		_SCL_SECURE_VALIDATE(this->_Getcont() != 0);
; 105  : 		_SCL_SECURE_VALIDATE_RANGE(
; 106  : 			this->_Ptr != 0
; 107  : 			&& this->_Ptr < ((_Myvec *)this->_Getcont())->_Mylast);
; 108  :  #endif /* _ITERATOR_DEBUG_LEVEL */
; 109  : 
; 110  : 		++this->_Ptr;

  00002	83 00 40	 add	 DWORD PTR [eax], 64	; 00000040H

; 111  : 		return (*this);
; 112  : 		}

  00005	c3		 ret	 0
??E?$_Vector_const_iterator@V?$_Vector_val@UTradeItemInfo@@V?$allocator@UTradeItemInfo@@@std@@@std@@@std@@QAEAAV01@XZ ENDP ; std::_Vector_const_iterator<std::_Vector_val<TradeItemInfo,std::allocator<TradeItemInfo> > >::operator++
_TEXT	ENDS
PUBLIC	??_C@_0BD@OLBABOEK@vector?$DMT?$DO?5too?5long?$AA@ ; `string'
PUBLIC	?_Xlen@?$vector@UTradeItemInfo@@V?$allocator@UTradeItemInfo@@@std@@@std@@IBEXXZ ; std::vector<TradeItemInfo,std::allocator<TradeItemInfo> >::_Xlen
EXTRN	__imp_?_Xlength_error@std@@YAXPBD@Z:PROC
;	COMDAT ??_C@_0BD@OLBABOEK@vector?$DMT?$DO?5too?5long?$AA@
CONST	SEGMENT
??_C@_0BD@OLBABOEK@vector?$DMT?$DO?5too?5long?$AA@ DB 'vector<T> too long'
	DB	00H						; `string'
; Function compile flags: /Ogsp
CONST	ENDS
;	COMDAT ?_Xlen@?$vector@UTradeItemInfo@@V?$allocator@UTradeItemInfo@@@std@@@std@@IBEXXZ
_TEXT	SEGMENT
?_Xlen@?$vector@UTradeItemInfo@@V?$allocator@UTradeItemInfo@@@std@@@std@@IBEXXZ PROC ; std::vector<TradeItemInfo,std::allocator<TradeItemInfo> >::_Xlen, COMDAT
; _this$ = ecx

; 1427 : 		_Xlength_error("vector<T> too long");

  00000	68 00 00 00 00	 push	 OFFSET ??_C@_0BD@OLBABOEK@vector?$DMT?$DO?5too?5long?$AA@
  00005	ff 15 00 00 00
	00		 call	 DWORD PTR __imp_?_Xlength_error@std@@YAXPBD@Z
$LN4@Xlen:
$LN3@Xlen:
  0000b	cc		 int	 3
?_Xlen@?$vector@UTradeItemInfo@@V?$allocator@UTradeItemInfo@@@std@@@std@@IBEXXZ ENDP ; std::vector<TradeItemInfo,std::allocator<TradeItemInfo> >::_Xlen
_TEXT	ENDS
PUBLIC	??0?$allocator@UTradeItemInfo@@@std@@QAE@ABV01@@Z ; std::allocator<TradeItemInfo>::allocator<TradeItemInfo>
; Function compile flags: /Ogsp
; File c:\program files (x86)\microsoft visual studio 10.0\vc\include\xmemory
;	COMDAT ??0?$allocator@UTradeItemInfo@@@std@@QAE@ABV01@@Z
_TEXT	SEGMENT
___formal$ = 8						; size = 4
??0?$allocator@UTradeItemInfo@@@std@@QAE@ABV01@@Z PROC	; std::allocator<TradeItemInfo>::allocator<TradeItemInfo>, COMDAT
; _this$ = ecx

; 165  : 	_ALLOCATOR(const _ALLOCATOR<_Ty>&) _THROW0()

  00000	8b c1		 mov	 eax, ecx

; 166  : 		{	// construct by copying (do nothing)
; 167  : 		}

  00002	c2 04 00	 ret	 4
??0?$allocator@UTradeItemInfo@@@std@@QAE@ABV01@@Z ENDP	; std::allocator<TradeItemInfo>::allocator<TradeItemInfo>
_TEXT	ENDS
PUBLIC	?capacity@?$vector@UNewShopPullDownItem@@V?$allocator@UNewShopPullDownItem@@@std@@@std@@QBEIXZ ; std::vector<NewShopPullDownItem,std::allocator<NewShopPullDownItem> >::capacity
; Function compile flags: /Ogsp
; File c:\program files (x86)\microsoft visual studio 10.0\vc\include\vector
;	COMDAT ?capacity@?$vector@UNewShopPullDownItem@@V?$allocator@UNewShopPullDownItem@@@std@@@std@@QBEIXZ
_TEXT	SEGMENT
?capacity@?$vector@UNewShopPullDownItem@@V?$allocator@UNewShopPullDownItem@@@std@@@std@@QBEIXZ PROC ; std::vector<NewShopPullDownItem,std::allocator<NewShopPullDownItem> >::capacity, COMDAT
; _this$ = ecx

; 777  : 		return (this->_Myend - this->_Myfirst);

  00000	8b 41 08	 mov	 eax, DWORD PTR [ecx+8]
  00003	2b 01		 sub	 eax, DWORD PTR [ecx]
  00005	6a 50		 push	 80			; 00000050H
  00007	99		 cdq
  00008	59		 pop	 ecx
  00009	f7 f9		 idiv	 ecx

; 778  : 		}

  0000b	c3		 ret	 0
?capacity@?$vector@UNewShopPullDownItem@@V?$allocator@UNewShopPullDownItem@@@std@@@std@@QBEIXZ ENDP ; std::vector<NewShopPullDownItem,std::allocator<NewShopPullDownItem> >::capacity
_TEXT	ENDS
PUBLIC	?_Xlen@?$vector@UNewShopPullDownItem@@V?$allocator@UNewShopPullDownItem@@@std@@@std@@IBEXXZ ; std::vector<NewShopPullDownItem,std::allocator<NewShopPullDownItem> >::_Xlen
; Function compile flags: /Ogsp
;	COMDAT ?_Xlen@?$vector@UNewShopPullDownItem@@V?$allocator@UNewShopPullDownItem@@@std@@@std@@IBEXXZ
_TEXT	SEGMENT
?_Xlen@?$vector@UNewShopPullDownItem@@V?$allocator@UNewShopPullDownItem@@@std@@@std@@IBEXXZ PROC ; std::vector<NewShopPullDownItem,std::allocator<NewShopPullDownItem> >::_Xlen, COMDAT
; _this$ = ecx

; 1427 : 		_Xlength_error("vector<T> too long");

  00000	68 00 00 00 00	 push	 OFFSET ??_C@_0BD@OLBABOEK@vector?$DMT?$DO?5too?5long?$AA@
  00005	ff 15 00 00 00
	00		 call	 DWORD PTR __imp_?_Xlength_error@std@@YAXPBD@Z
$LN4@Xlen@2:
$LN3@Xlen@2:
  0000b	cc		 int	 3
?_Xlen@?$vector@UNewShopPullDownItem@@V?$allocator@UNewShopPullDownItem@@@std@@@std@@IBEXXZ ENDP ; std::vector<NewShopPullDownItem,std::allocator<NewShopPullDownItem> >::_Xlen
_TEXT	ENDS
PUBLIC	??0?$allocator@UNewShopPullDownItem@@@std@@QAE@ABV01@@Z ; std::allocator<NewShopPullDownItem>::allocator<NewShopPullDownItem>
; Function compile flags: /Ogsp
; File c:\program files (x86)\microsoft visual studio 10.0\vc\include\xmemory
;	COMDAT ??0?$allocator@UNewShopPullDownItem@@@std@@QAE@ABV01@@Z
_TEXT	SEGMENT
___formal$ = 8						; size = 4
??0?$allocator@UNewShopPullDownItem@@@std@@QAE@ABV01@@Z PROC ; std::allocator<NewShopPullDownItem>::allocator<NewShopPullDownItem>, COMDAT
; _this$ = ecx

; 165  : 	_ALLOCATOR(const _ALLOCATOR<_Ty>&) _THROW0()

  00000	8b c1		 mov	 eax, ecx

; 166  : 		{	// construct by copying (do nothing)
; 167  : 		}

  00002	c2 04 00	 ret	 4
??0?$allocator@UNewShopPullDownItem@@@std@@QAE@ABV01@@Z ENDP ; std::allocator<NewShopPullDownItem>::allocator<NewShopPullDownItem>
_TEXT	ENDS
PUBLIC	?deallocate@?$allocator@UNewShopPullDownItem@@@std@@QAEXPAUNewShopPullDownItem@@I@Z ; std::allocator<NewShopPullDownItem>::deallocate
; Function compile flags: /Ogsp
;	COMDAT ?deallocate@?$allocator@UNewShopPullDownItem@@@std@@QAEXPAUNewShopPullDownItem@@I@Z
_TEXT	SEGMENT
__Ptr$ = 8						; size = 4
___formal$ = 12						; size = 4
?deallocate@?$allocator@UNewShopPullDownItem@@@std@@QAEXPAUNewShopPullDownItem@@I@Z PROC ; std::allocator<NewShopPullDownItem>::deallocate, COMDAT
; _this$ = ecx

; 181  : 		{	// deallocate object at _Ptr, ignore size

  00000	55		 push	 ebp
  00001	8b ec		 mov	 ebp, esp

; 182  : 		::operator delete(_Ptr);

  00003	ff 75 08	 push	 DWORD PTR __Ptr$[ebp]
  00006	e8 00 00 00 00	 call	 ??3@YAXPAX@Z		; operator delete
  0000b	59		 pop	 ecx

; 183  : 		}

  0000c	5d		 pop	 ebp
  0000d	c2 08 00	 ret	 8
?deallocate@?$allocator@UNewShopPullDownItem@@@std@@QAEXPAUNewShopPullDownItem@@I@Z ENDP ; std::allocator<NewShopPullDownItem>::deallocate
_TEXT	ENDS
PUBLIC	??0?$_Vector_const_iterator@V?$_Vector_val@UTradeItemInfo@@V?$allocator@UTradeItemInfo@@@std@@@std@@@std@@QAE@PAUTradeItemInfo@@PBU_Container_base0@1@@Z ; std::_Vector_const_iterator<std::_Vector_val<TradeItemInfo,std::allocator<TradeItemInfo> > >::_Vector_const_iterator<std::_Vector_val<TradeItemInfo,std::allocator<TradeItemInfo> > >
; Function compile flags: /Ogsp
; File c:\program files (x86)\microsoft visual studio 10.0\vc\include\vector
;	COMDAT ??0?$_Vector_const_iterator@V?$_Vector_val@UTradeItemInfo@@V?$allocator@UTradeItemInfo@@@std@@@std@@@std@@QAE@PAUTradeItemInfo@@PBU_Container_base0@1@@Z
_TEXT	SEGMENT
__Parg$ = 8						; size = 4
__Pvector$ = 12						; size = 4
??0?$_Vector_const_iterator@V?$_Vector_val@UTradeItemInfo@@V?$allocator@UTradeItemInfo@@@std@@@std@@@std@@QAE@PAUTradeItemInfo@@PBU_Container_base0@1@@Z PROC ; std::_Vector_const_iterator<std::_Vector_val<TradeItemInfo,std::allocator<TradeItemInfo> > >::_Vector_const_iterator<std::_Vector_val<TradeItemInfo,std::allocator<TradeItemInfo> > >, COMDAT
; _this$ = ecx

; 45   : 		{	// construct with pointer _Parg

  00000	55		 push	 ebp
  00001	8b ec		 mov	 ebp, esp
  00003	8b c1		 mov	 eax, ecx
  00005	8b 4d 08	 mov	 ecx, DWORD PTR __Parg$[ebp]
  00008	89 08		 mov	 DWORD PTR [eax], ecx

; 46   : 		this->_Adopt(_Pvector);
; 47   : 		}

  0000a	5d		 pop	 ebp
  0000b	c2 08 00	 ret	 8
??0?$_Vector_const_iterator@V?$_Vector_val@UTradeItemInfo@@V?$allocator@UTradeItemInfo@@@std@@@std@@@std@@QAE@PAUTradeItemInfo@@PBU_Container_base0@1@@Z ENDP ; std::_Vector_const_iterator<std::_Vector_val<TradeItemInfo,std::allocator<TradeItemInfo> > >::_Vector_const_iterator<std::_Vector_val<TradeItemInfo,std::allocator<TradeItemInfo> > >
_TEXT	ENDS
PUBLIC	?_Compat@?$_Vector_const_iterator@V?$_Vector_val@UTradeItemInfo@@V?$allocator@UTradeItemInfo@@@std@@@std@@@std@@QBEXABV12@@Z ; std::_Vector_const_iterator<std::_Vector_val<TradeItemInfo,std::allocator<TradeItemInfo> > >::_Compat
; Function compile flags: /Ogsp
;	COMDAT ?_Compat@?$_Vector_const_iterator@V?$_Vector_val@UTradeItemInfo@@V?$allocator@UTradeItemInfo@@@std@@@std@@@std@@QBEXABV12@@Z
_TEXT	SEGMENT
___formal$ = 8						; size = 4
?_Compat@?$_Vector_const_iterator@V?$_Vector_val@UTradeItemInfo@@V?$allocator@UTradeItemInfo@@@std@@@std@@@std@@QBEXABV12@@Z PROC ; std::_Vector_const_iterator<std::_Vector_val<TradeItemInfo,std::allocator<TradeItemInfo> > >::_Compat, COMDAT
; _this$ = ecx

; 253  : 		}

  00000	c2 04 00	 ret	 4
?_Compat@?$_Vector_const_iterator@V?$_Vector_val@UTradeItemInfo@@V?$allocator@UTradeItemInfo@@@std@@@std@@@std@@QBEXABV12@@Z ENDP ; std::_Vector_const_iterator<std::_Vector_val<TradeItemInfo,std::allocator<TradeItemInfo> > >::_Compat
_TEXT	ENDS
PUBLIC	?max_size@?$allocator@UTradeItemInfo@@@std@@QBEIXZ ; std::allocator<TradeItemInfo>::max_size
; Function compile flags: /Ogsp
; File c:\program files (x86)\microsoft visual studio 10.0\vc\include\xmemory
;	COMDAT ?max_size@?$allocator@UTradeItemInfo@@@std@@QBEIXZ
_TEXT	SEGMENT
?max_size@?$allocator@UTradeItemInfo@@@std@@QBEIXZ PROC	; std::allocator<TradeItemInfo>::max_size, COMDAT
; _this$ = ecx

; 218  : 		_SIZT _Count = (_SIZT)(-1) / sizeof (_Ty);
; 219  : 		return (0 < _Count ? _Count : 1);

  00000	b8 ff ff ff 03	 mov	 eax, 67108863		; 03ffffffH

; 220  : 		}

  00005	c3		 ret	 0
?max_size@?$allocator@UTradeItemInfo@@@std@@QBEIXZ ENDP	; std::allocator<TradeItemInfo>::max_size
_TEXT	ENDS
PUBLIC	?max_size@?$allocator@UNewShopPullDownItem@@@std@@QBEIXZ ; std::allocator<NewShopPullDownItem>::max_size
; Function compile flags: /Ogsp
;	COMDAT ?max_size@?$allocator@UNewShopPullDownItem@@@std@@QBEIXZ
_TEXT	SEGMENT
?max_size@?$allocator@UNewShopPullDownItem@@@std@@QBEIXZ PROC ; std::allocator<NewShopPullDownItem>::max_size, COMDAT
; _this$ = ecx

; 218  : 		_SIZT _Count = (_SIZT)(-1) / sizeof (_Ty);
; 219  : 		return (0 < _Count ? _Count : 1);

  00000	b8 33 33 33 03	 mov	 eax, 53687091		; 03333333H

; 220  : 		}

  00005	c3		 ret	 0
?max_size@?$allocator@UNewShopPullDownItem@@@std@@QBEIXZ ENDP ; std::allocator<NewShopPullDownItem>::max_size
_TEXT	ENDS
PUBLIC	??0?$_Vector_const_iterator@V?$_Vector_val@UNewShopPullDownItem@@V?$allocator@UNewShopPullDownItem@@@std@@@std@@@std@@QAE@PAUNewShopPullDownItem@@PBU_Container_base0@1@@Z ; std::_Vector_const_iterator<std::_Vector_val<NewShopPullDownItem,std::allocator<NewShopPullDownItem> > >::_Vector_const_iterator<std::_Vector_val<NewShopPullDownItem,std::allocator<NewShopPullDownItem> > >
; Function compile flags: /Ogsp
; File c:\program files (x86)\microsoft visual studio 10.0\vc\include\vector
;	COMDAT ??0?$_Vector_const_iterator@V?$_Vector_val@UNewShopPullDownItem@@V?$allocator@UNewShopPullDownItem@@@std@@@std@@@std@@QAE@PAUNewShopPullDownItem@@PBU_Container_base0@1@@Z
_TEXT	SEGMENT
__Parg$ = 8						; size = 4
__Pvector$ = 12						; size = 4
??0?$_Vector_const_iterator@V?$_Vector_val@UNewShopPullDownItem@@V?$allocator@UNewShopPullDownItem@@@std@@@std@@@std@@QAE@PAUNewShopPullDownItem@@PBU_Container_base0@1@@Z PROC ; std::_Vector_const_iterator<std::_Vector_val<NewShopPullDownItem,std::allocator<NewShopPullDownItem> > >::_Vector_const_iterator<std::_Vector_val<NewShopPullDownItem,std::allocator<NewShopPullDownItem> > >, COMDAT
; _this$ = ecx

; 45   : 		{	// construct with pointer _Parg

  00000	55		 push	 ebp
  00001	8b ec		 mov	 ebp, esp
  00003	8b c1		 mov	 eax, ecx
  00005	8b 4d 08	 mov	 ecx, DWORD PTR __Parg$[ebp]
  00008	89 08		 mov	 DWORD PTR [eax], ecx

; 46   : 		this->_Adopt(_Pvector);
; 47   : 		}

  0000a	5d		 pop	 ebp
  0000b	c2 08 00	 ret	 8
??0?$_Vector_const_iterator@V?$_Vector_val@UNewShopPullDownItem@@V?$allocator@UNewShopPullDownItem@@@std@@@std@@@std@@QAE@PAUNewShopPullDownItem@@PBU_Container_base0@1@@Z ENDP ; std::_Vector_const_iterator<std::_Vector_val<NewShopPullDownItem,std::allocator<NewShopPullDownItem> > >::_Vector_const_iterator<std::_Vector_val<NewShopPullDownItem,std::allocator<NewShopPullDownItem> > >
_TEXT	ENDS
PUBLIC	?_Compat@?$_Vector_const_iterator@V?$_Vector_val@UNewShopPullDownItem@@V?$allocator@UNewShopPullDownItem@@@std@@@std@@@std@@QBEXABV12@@Z ; std::_Vector_const_iterator<std::_Vector_val<NewShopPullDownItem,std::allocator<NewShopPullDownItem> > >::_Compat
; Function compile flags: /Ogsp
;	COMDAT ?_Compat@?$_Vector_const_iterator@V?$_Vector_val@UNewShopPullDownItem@@V?$allocator@UNewShopPullDownItem@@@std@@@std@@@std@@QBEXABV12@@Z
_TEXT	SEGMENT
___formal$ = 8						; size = 4
?_Compat@?$_Vector_const_iterator@V?$_Vector_val@UNewShopPullDownItem@@V?$allocator@UNewShopPullDownItem@@@std@@@std@@@std@@QBEXABV12@@Z PROC ; std::_Vector_const_iterator<std::_Vector_val<NewShopPullDownItem,std::allocator<NewShopPullDownItem> > >::_Compat, COMDAT
; _this$ = ecx

; 253  : 		}

  00000	c2 04 00	 ret	 4
?_Compat@?$_Vector_const_iterator@V?$_Vector_val@UNewShopPullDownItem@@V?$allocator@UNewShopPullDownItem@@@std@@@std@@@std@@QBEXABV12@@Z ENDP ; std::_Vector_const_iterator<std::_Vector_val<NewShopPullDownItem,std::allocator<NewShopPullDownItem> > >::_Compat
_TEXT	ENDS
PUBLIC	??$addressof@$$CBUTradeItemInfo@@@std@@YAPBUTradeItemInfo@@ABU1@@Z ; std::addressof<TradeItemInfo const >
; Function compile flags: /Ogsp
; File c:\program files (x86)\microsoft visual studio 10.0\vc\include\xmemory
;	COMDAT ??$addressof@$$CBUTradeItemInfo@@@std@@YAPBUTradeItemInfo@@ABU1@@Z
_TEXT	SEGMENT
__Val$ = 8						; size = 4
??$addressof@$$CBUTradeItemInfo@@@std@@YAPBUTradeItemInfo@@ABU1@@Z PROC ; std::addressof<TradeItemInfo const >, COMDAT

; 110  : 	{	// return address of _Val

  00000	55		 push	 ebp
  00001	8b ec		 mov	 ebp, esp

; 111  : 	return ((_Ty *) &(char&)_Val);

  00003	8b 45 08	 mov	 eax, DWORD PTR __Val$[ebp]

; 112  : 	}

  00006	5d		 pop	 ebp
  00007	c3		 ret	 0
??$addressof@$$CBUTradeItemInfo@@@std@@YAPBUTradeItemInfo@@ABU1@@Z ENDP ; std::addressof<TradeItemInfo const >
_TEXT	ENDS
PUBLIC	??$addressof@$$CBUNewShopPullDownItem@@@std@@YAPBUNewShopPullDownItem@@ABU1@@Z ; std::addressof<NewShopPullDownItem const >
; Function compile flags: /Ogsp
;	COMDAT ??$addressof@$$CBUNewShopPullDownItem@@@std@@YAPBUNewShopPullDownItem@@ABU1@@Z
_TEXT	SEGMENT
__Val$ = 8						; size = 4
??$addressof@$$CBUNewShopPullDownItem@@@std@@YAPBUNewShopPullDownItem@@ABU1@@Z PROC ; std::addressof<NewShopPullDownItem const >, COMDAT

; 110  : 	{	// return address of _Val

  00000	55		 push	 ebp
  00001	8b ec		 mov	 ebp, esp

; 111  : 	return ((_Ty *) &(char&)_Val);

  00003	8b 45 08	 mov	 eax, DWORD PTR __Val$[ebp]

; 112  : 	}

  00006	5d		 pop	 ebp
  00007	c3		 ret	 0
??$addressof@$$CBUNewShopPullDownItem@@@std@@YAPBUNewShopPullDownItem@@ABU1@@Z ENDP ; std::addressof<NewShopPullDownItem const >
_TEXT	ENDS
PUBLIC	__TI2?AVbad_alloc@std@@
PUBLIC	??$_Allocate@UTradeItemInfo@@@std@@YAPAUTradeItemInfo@@IPAU1@@Z ; std::_Allocate<TradeItemInfo>
PUBLIC	__CTA2?AVbad_alloc@std@@
PUBLIC	__CT??_R0?AVbad_alloc@std@@@8??0bad_alloc@std@@QAE@ABV01@@Z12
PUBLIC	??0bad_alloc@std@@QAE@ABV01@@Z			; std::bad_alloc::bad_alloc
PUBLIC	__CT??_R0?AVexception@std@@@8??0exception@std@@QAE@ABV01@@Z12
EXTRN	??2@YAPAXI@Z:PROC				; operator new
EXTRN	__CxxThrowException@8:PROC
EXTRN	??0exception@std@@QAE@ABV01@@Z:PROC		; std::exception::exception
;	COMDAT __CT??_R0?AVexception@std@@@8??0exception@std@@QAE@ABV01@@Z12
; File c:\program files (x86)\microsoft visual studio 10.0\vc\include\exception
xdata$x	SEGMENT
__CT??_R0?AVexception@std@@@8??0exception@std@@QAE@ABV01@@Z12 DD 00H
	DD	FLAT:??_R0?AVexception@std@@@8
	DD	00H
	DD	0ffffffffH
	ORG $+4
	DD	0cH
	DD	FLAT:??0exception@std@@QAE@ABV01@@Z
xdata$x	ENDS
;	COMDAT __CT??_R0?AVbad_alloc@std@@@8??0bad_alloc@std@@QAE@ABV01@@Z12
xdata$x	SEGMENT
__CT??_R0?AVbad_alloc@std@@@8??0bad_alloc@std@@QAE@ABV01@@Z12 DD 00H
	DD	FLAT:??_R0?AVbad_alloc@std@@@8
	DD	00H
	DD	0ffffffffH
	ORG $+4
	DD	0cH
	DD	FLAT:??0bad_alloc@std@@QAE@ABV01@@Z
xdata$x	ENDS
;	COMDAT __CTA2?AVbad_alloc@std@@
xdata$x	SEGMENT
__CTA2?AVbad_alloc@std@@ DD 02H
	DD	FLAT:__CT??_R0?AVbad_alloc@std@@@8??0bad_alloc@std@@QAE@ABV01@@Z12
	DD	FLAT:__CT??_R0?AVexception@std@@@8??0exception@std@@QAE@ABV01@@Z12
xdata$x	ENDS
;	COMDAT __TI2?AVbad_alloc@std@@
xdata$x	SEGMENT
__TI2?AVbad_alloc@std@@ DD 00H
	DD	FLAT:??1bad_alloc@std@@UAE@XZ
	DD	00H
	DD	FLAT:__CTA2?AVbad_alloc@std@@
; Function compile flags: /Ogsp
; File c:\program files (x86)\microsoft visual studio 10.0\vc\include\xmemory
xdata$x	ENDS
;	COMDAT ??$_Allocate@UTradeItemInfo@@@std@@YAPAUTradeItemInfo@@IPAU1@@Z
_TEXT	SEGMENT
$T523373 = -12						; size = 12
$T523378 = 8						; size = 4
__Count$ = 8						; size = 4
___formal$ = 12						; size = 4
??$_Allocate@UTradeItemInfo@@@std@@YAPAUTradeItemInfo@@IPAU1@@Z PROC ; std::_Allocate<TradeItemInfo>, COMDAT

; 30   : 	{	// allocate storage for _Count elements of type _Ty

  00000	55		 push	 ebp
  00001	8b ec		 mov	 ebp, esp

; 31   : 	void *_Ptr = 0;
; 32   : 
; 33   : 	if (_Count <= 0)

  00003	8b 4d 08	 mov	 ecx, DWORD PTR __Count$[ebp]
  00006	83 ec 0c	 sub	 esp, 12			; 0000000cH
  00009	33 c0		 xor	 eax, eax
  0000b	85 c9		 test	 ecx, ecx

; 34   : 		_Count = 0;
; 35   : 	else if (((_SIZT)(-1) / sizeof (_Ty) < _Count)

  0000d	74 3c		 je	 SHORT $LN5@Allocate

; 36   : 		|| (_Ptr = ::operator new(_Count * sizeof (_Ty))) == 0)

  0000f	81 f9 ff ff ff
	03		 cmp	 ecx, 67108863		; 03ffffffH
  00015	77 0e		 ja	 SHORT $LN1@Allocate
  00017	c1 e1 06	 shl	 ecx, 6
  0001a	51		 push	 ecx
  0001b	e8 00 00 00 00	 call	 ??2@YAPAXI@Z		; operator new
  00020	59		 pop	 ecx
  00021	85 c0		 test	 eax, eax

; 38   : 
; 39   : 	return ((_Ty _FARQ *)_Ptr);

  00023	75 26		 jne	 SHORT $LN5@Allocate
$LN1@Allocate:

; 37   : 		_THROW_NCEE(bad_alloc, 0);

  00025	83 65 08 00	 and	 DWORD PTR $T523378[ebp], 0
  00029	8d 45 08	 lea	 eax, DWORD PTR $T523378[ebp]
  0002c	50		 push	 eax
  0002d	8d 4d f4	 lea	 ecx, DWORD PTR $T523373[ebp]
  00030	ff 15 00 00 00
	00		 call	 DWORD PTR __imp_??0exception@std@@QAE@ABQBD@Z
  00036	68 00 00 00 00	 push	 OFFSET __TI2?AVbad_alloc@std@@
  0003b	8d 45 f4	 lea	 eax, DWORD PTR $T523373[ebp]
  0003e	50		 push	 eax
  0003f	c7 45 f4 00 00
	00 00		 mov	 DWORD PTR $T523373[ebp], OFFSET ??_7bad_alloc@std@@6B@
  00046	e8 00 00 00 00	 call	 __CxxThrowException@8
$LN10@Allocate:
$LN5@Allocate:

; 40   : 	}

  0004b	c9		 leave
  0004c	c3		 ret	 0
$LN9@Allocate:
??$_Allocate@UTradeItemInfo@@@std@@YAPAUTradeItemInfo@@IPAU1@@Z ENDP ; std::_Allocate<TradeItemInfo>
_TEXT	ENDS
PUBLIC	??$_Allocate@UNewShopPullDownItem@@@std@@YAPAUNewShopPullDownItem@@IPAU1@@Z ; std::_Allocate<NewShopPullDownItem>
; Function compile flags: /Ogsp
;	COMDAT ??$_Allocate@UNewShopPullDownItem@@@std@@YAPAUNewShopPullDownItem@@IPAU1@@Z
_TEXT	SEGMENT
$T523383 = -12						; size = 12
$T523387 = 8						; size = 4
__Count$ = 8						; size = 4
___formal$ = 12						; size = 4
??$_Allocate@UNewShopPullDownItem@@@std@@YAPAUNewShopPullDownItem@@IPAU1@@Z PROC ; std::_Allocate<NewShopPullDownItem>, COMDAT

; 30   : 	{	// allocate storage for _Count elements of type _Ty

  00000	55		 push	 ebp
  00001	8b ec		 mov	 ebp, esp

; 31   : 	void *_Ptr = 0;
; 32   : 
; 33   : 	if (_Count <= 0)

  00003	8b 4d 08	 mov	 ecx, DWORD PTR __Count$[ebp]
  00006	83 ec 0c	 sub	 esp, 12			; 0000000cH
  00009	33 c0		 xor	 eax, eax
  0000b	85 c9		 test	 ecx, ecx

; 34   : 		_Count = 0;
; 35   : 	else if (((_SIZT)(-1) / sizeof (_Ty) < _Count)

  0000d	74 3c		 je	 SHORT $LN5@Allocate@2

; 36   : 		|| (_Ptr = ::operator new(_Count * sizeof (_Ty))) == 0)

  0000f	81 f9 33 33 33
	03		 cmp	 ecx, 53687091		; 03333333H
  00015	77 0e		 ja	 SHORT $LN1@Allocate@2
  00017	6b c9 50	 imul	 ecx, 80			; 00000050H
  0001a	51		 push	 ecx
  0001b	e8 00 00 00 00	 call	 ??2@YAPAXI@Z		; operator new
  00020	59		 pop	 ecx
  00021	85 c0		 test	 eax, eax

; 38   : 
; 39   : 	return ((_Ty _FARQ *)_Ptr);

  00023	75 26		 jne	 SHORT $LN5@Allocate@2
$LN1@Allocate@2:

; 37   : 		_THROW_NCEE(bad_alloc, 0);

  00025	83 65 08 00	 and	 DWORD PTR $T523387[ebp], 0
  00029	8d 45 08	 lea	 eax, DWORD PTR $T523387[ebp]
  0002c	50		 push	 eax
  0002d	8d 4d f4	 lea	 ecx, DWORD PTR $T523383[ebp]
  00030	ff 15 00 00 00
	00		 call	 DWORD PTR __imp_??0exception@std@@QAE@ABQBD@Z
  00036	68 00 00 00 00	 push	 OFFSET __TI2?AVbad_alloc@std@@
  0003b	8d 45 f4	 lea	 eax, DWORD PTR $T523383[ebp]
  0003e	50		 push	 eax
  0003f	c7 45 f4 00 00
	00 00		 mov	 DWORD PTR $T523383[ebp], OFFSET ??_7bad_alloc@std@@6B@
  00046	e8 00 00 00 00	 call	 __CxxThrowException@8
$LN10@Allocate@2:
$LN5@Allocate@2:

; 40   : 	}

  0004b	c9		 leave
  0004c	c3		 ret	 0
$LN9@Allocate@2:
??$_Allocate@UNewShopPullDownItem@@@std@@YAPAUNewShopPullDownItem@@IPAU1@@Z ENDP ; std::_Allocate<NewShopPullDownItem>
_TEXT	ENDS
PUBLIC	??G?$_Vector_const_iterator@V?$_Vector_val@UTradeItemInfo@@V?$allocator@UTradeItemInfo@@@std@@@std@@@std@@QBEHABV01@@Z ; std::_Vector_const_iterator<std::_Vector_val<TradeItemInfo,std::allocator<TradeItemInfo> > >::operator-
; Function compile flags: /Ogsp
; File c:\program files (x86)\microsoft visual studio 10.0\vc\include\vector
;	COMDAT ??G?$_Vector_const_iterator@V?$_Vector_val@UTradeItemInfo@@V?$allocator@UTradeItemInfo@@@std@@@std@@@std@@QBEHABV01@@Z
_TEXT	SEGMENT
__Right$ = 8						; size = 4
??G?$_Vector_const_iterator@V?$_Vector_val@UTradeItemInfo@@V?$allocator@UTradeItemInfo@@@std@@@std@@@std@@QBEHABV01@@Z PROC ; std::_Vector_const_iterator<std::_Vector_val<TradeItemInfo,std::allocator<TradeItemInfo> > >::operator-, COMDAT
; _this$ = ecx

; 190  : 		{	// return difference of iterators

  00000	55		 push	 ebp
  00001	8b ec		 mov	 ebp, esp

; 191  : 		_Compat(_Right);
; 192  : 		return (this->_Ptr - _Right._Ptr);

  00003	8b 01		 mov	 eax, DWORD PTR [ecx]
  00005	8b 4d 08	 mov	 ecx, DWORD PTR __Right$[ebp]
  00008	2b 01		 sub	 eax, DWORD PTR [ecx]
  0000a	c1 f8 06	 sar	 eax, 6

; 193  : 		}

  0000d	5d		 pop	 ebp
  0000e	c2 04 00	 ret	 4
??G?$_Vector_const_iterator@V?$_Vector_val@UTradeItemInfo@@V?$allocator@UTradeItemInfo@@@std@@@std@@@std@@QBEHABV01@@Z ENDP ; std::_Vector_const_iterator<std::_Vector_val<TradeItemInfo,std::allocator<TradeItemInfo> > >::operator-
_TEXT	ENDS
PUBLIC	??$_Iter_cat@V?$_Vector_iterator@V?$_Vector_val@UTradeItemInfo@@V?$allocator@UTradeItemInfo@@@std@@@std@@@std@@@std@@YA?AUrandom_access_iterator_tag@0@ABV?$_Vector_iterator@V?$_Vector_val@UTradeItemInfo@@V?$allocator@UTradeItemInfo@@@std@@@std@@@0@@Z ; std::_Iter_cat<std::_Vector_iterator<std::_Vector_val<TradeItemInfo,std::allocator<TradeItemInfo> > > >
; Function compile flags: /Ogsp
; File c:\program files (x86)\microsoft visual studio 10.0\vc\include\xutility
;	COMDAT ??$_Iter_cat@V?$_Vector_iterator@V?$_Vector_val@UTradeItemInfo@@V?$allocator@UTradeItemInfo@@@std@@@std@@@std@@@std@@YA?AUrandom_access_iterator_tag@0@ABV?$_Vector_iterator@V?$_Vector_val@UTradeItemInfo@@V?$allocator@UTradeItemInfo@@@std@@@std@@@0@@Z
_TEXT	SEGMENT
___$ReturnUdt$ = 8					; size = 4
___formal$ = 12						; size = 4
??$_Iter_cat@V?$_Vector_iterator@V?$_Vector_val@UTradeItemInfo@@V?$allocator@UTradeItemInfo@@@std@@@std@@@std@@@std@@YA?AUrandom_access_iterator_tag@0@ABV?$_Vector_iterator@V?$_Vector_val@UTradeItemInfo@@V?$allocator@UTradeItemInfo@@@std@@@std@@@0@@Z PROC ; std::_Iter_cat<std::_Vector_iterator<std::_Vector_val<TradeItemInfo,std::allocator<TradeItemInfo> > > >, COMDAT

; 476  : 	{	// return category from iterator argument

  00000	55		 push	 ebp
  00001	8b ec		 mov	 ebp, esp

; 477  : 	typename iterator_traits<_Iter>::iterator_category _Cat;
; 478  : 	return (_Cat);

  00003	8b 45 08	 mov	 eax, DWORD PTR ___$ReturnUdt$[ebp]

; 479  : 	}

  00006	5d		 pop	 ebp
  00007	c3		 ret	 0
??$_Iter_cat@V?$_Vector_iterator@V?$_Vector_val@UTradeItemInfo@@V?$allocator@UTradeItemInfo@@@std@@@std@@@std@@@std@@YA?AUrandom_access_iterator_tag@0@ABV?$_Vector_iterator@V?$_Vector_val@UTradeItemInfo@@V?$allocator@UTradeItemInfo@@@std@@@std@@@0@@Z ENDP ; std::_Iter_cat<std::_Vector_iterator<std::_Vector_val<TradeItemInfo,std::allocator<TradeItemInfo> > > >
_TEXT	ENDS
PUBLIC	??$_Ptr_cat@UTradeItemInfo@@U1@@std@@YA?AU_Nonscalar_ptr_iterator_tag@0@PAUTradeItemInfo@@0@Z ; std::_Ptr_cat<TradeItemInfo,TradeItemInfo>
; Function compile flags: /Ogsp
;	COMDAT ??$_Ptr_cat@UTradeItemInfo@@U1@@std@@YA?AU_Nonscalar_ptr_iterator_tag@0@PAUTradeItemInfo@@0@Z
_TEXT	SEGMENT
__Cat$ = -1						; size = 1
___formal$ = 8						; size = 4
___formal$ = 12						; size = 4
??$_Ptr_cat@UTradeItemInfo@@U1@@std@@YA?AU_Nonscalar_ptr_iterator_tag@0@PAUTradeItemInfo@@0@Z PROC ; std::_Ptr_cat<TradeItemInfo,TradeItemInfo>, COMDAT

; 516  : 	{	// return pointer category from pointers

  00000	55		 push	 ebp
  00001	8b ec		 mov	 ebp, esp
  00003	51		 push	 ecx

; 517  : 	typename _Ptr_cat_helper<_Elem1, _Elem2>::_Type _Cat;
; 518  : 	return (_Cat);

  00004	8a 45 ff	 mov	 al, BYTE PTR __Cat$[ebp]

; 519  : 	}

  00007	c9		 leave
  00008	c3		 ret	 0
??$_Ptr_cat@UTradeItemInfo@@U1@@std@@YA?AU_Nonscalar_ptr_iterator_tag@0@PAUTradeItemInfo@@0@Z ENDP ; std::_Ptr_cat<TradeItemInfo,TradeItemInfo>
_TEXT	ENDS
PUBLIC	??$_Copy_impl@PAUTradeItemInfo@@PAU1@@std@@YAPAUTradeItemInfo@@PAU1@00U_Nonscalar_ptr_iterator_tag@0@@Z ; std::_Copy_impl<TradeItemInfo *,TradeItemInfo *>
; Function compile flags: /Ogsp
;	COMDAT ??$_Copy_impl@PAUTradeItemInfo@@PAU1@@std@@YAPAUTradeItemInfo@@PAU1@00U_Nonscalar_ptr_iterator_tag@0@@Z
_TEXT	SEGMENT
__First$ = 8						; size = 4
__Last$ = 12						; size = 4
__Dest$ = 16						; size = 4
___formal$ = 20						; size = 1
??$_Copy_impl@PAUTradeItemInfo@@PAU1@@std@@YAPAUTradeItemInfo@@PAU1@00U_Nonscalar_ptr_iterator_tag@0@@Z PROC ; std::_Copy_impl<TradeItemInfo *,TradeItemInfo *>, COMDAT

; 2142 : 	{	// copy [_First, _Last) to [_Dest, ...), arbitrary iterators

  00000	55		 push	 ebp
  00001	8b ec		 mov	 ebp, esp

; 2143 : 	for (; _First != _Last; ++_Dest, ++_First)

  00003	8b 45 08	 mov	 eax, DWORD PTR __First$[ebp]
  00006	3b 45 0c	 cmp	 eax, DWORD PTR __Last$[ebp]
  00009	74 1a		 je	 SHORT $LN8@Copy_impl
  0000b	56		 push	 esi
  0000c	57		 push	 edi
$LL3@Copy_impl:

; 2144 : 		*_Dest = *_First;

  0000d	8b 7d 10	 mov	 edi, DWORD PTR __Dest$[ebp]
  00010	83 45 10 40	 add	 DWORD PTR __Dest$[ebp], 64 ; 00000040H
  00014	8b f0		 mov	 esi, eax
  00016	6a 10		 push	 16			; 00000010H
  00018	83 c0 40	 add	 eax, 64			; 00000040H
  0001b	59		 pop	 ecx
  0001c	f3 a5		 rep movsd
  0001e	3b 45 0c	 cmp	 eax, DWORD PTR __Last$[ebp]
  00021	75 ea		 jne	 SHORT $LL3@Copy_impl
  00023	5f		 pop	 edi
  00024	5e		 pop	 esi
$LN8@Copy_impl:

; 2145 : 	return (_Dest);

  00025	8b 45 10	 mov	 eax, DWORD PTR __Dest$[ebp]

; 2146 : 	}

  00028	5d		 pop	 ebp
  00029	c3		 ret	 0
??$_Copy_impl@PAUTradeItemInfo@@PAU1@@std@@YAPAUTradeItemInfo@@PAU1@00U_Nonscalar_ptr_iterator_tag@0@@Z ENDP ; std::_Copy_impl<TradeItemInfo *,TradeItemInfo *>
_TEXT	ENDS
PUBLIC	??$forward@AAUTradeItemInfo@@@std@@YAAAUTradeItemInfo@@AAU1@@Z ; std::forward<TradeItemInfo &>
; Function compile flags: /Ogsp
; File c:\program files (x86)\microsoft visual studio 10.0\vc\include\utility
;	COMDAT ??$forward@AAUTradeItemInfo@@@std@@YAAAUTradeItemInfo@@AAU1@@Z
_TEXT	SEGMENT
__Arg$ = 8						; size = 4
??$forward@AAUTradeItemInfo@@@std@@YAAAUTradeItemInfo@@AAU1@@Z PROC ; std::forward<TradeItemInfo &>, COMDAT

; 78   : 	{	// forward _Arg, given explicitly specified type parameter

  00000	55		 push	 ebp
  00001	8b ec		 mov	 ebp, esp

; 79   : 	return ((_Ty&&)_Arg);

  00003	8b 45 08	 mov	 eax, DWORD PTR __Arg$[ebp]

; 80   : 	}

  00006	5d		 pop	 ebp
  00007	c3		 ret	 0
??$forward@AAUTradeItemInfo@@@std@@YAAAUTradeItemInfo@@AAU1@@Z ENDP ; std::forward<TradeItemInfo &>
_TEXT	ENDS
PUBLIC	??$construct@AAUTradeItemInfo@@@?$allocator@UTradeItemInfo@@@std@@QAEXPAUTradeItemInfo@@AAU2@@Z ; std::allocator<TradeItemInfo>::construct<TradeItemInfo &>
; Function compile flags: /Ogsp
; File c:\program files (x86)\microsoft visual studio 10.0\vc\include\xmemory
;	COMDAT ??$construct@AAUTradeItemInfo@@@?$allocator@UTradeItemInfo@@@std@@QAEXPAUTradeItemInfo@@AAU2@@Z
_TEXT	SEGMENT
__Ptr$ = 8						; size = 4
__Val$ = 12						; size = 4
??$construct@AAUTradeItemInfo@@@?$allocator@UTradeItemInfo@@@std@@QAEXPAUTradeItemInfo@@AAU2@@Z PROC ; std::allocator<TradeItemInfo>::construct<TradeItemInfo &>, COMDAT
; _this$ = ecx

; 206  : 		void construct(pointer _Ptr, _Other&& _Val)

  00000	55		 push	 ebp
  00001	8b ec		 mov	 ebp, esp
  00003	57		 push	 edi

; 207  : 		{	// construct object at _Ptr with value _Val
; 208  : 		::new ((void _FARQ *)_Ptr) _Ty(_STD forward<_Other>(_Val));

  00004	8b 7d 08	 mov	 edi, DWORD PTR __Ptr$[ebp]
  00007	85 ff		 test	 edi, edi
  00009	74 0a		 je	 SHORT $LN3@construct
  0000b	56		 push	 esi
  0000c	8b 75 0c	 mov	 esi, DWORD PTR __Val$[ebp]
  0000f	6a 10		 push	 16			; 00000010H
  00011	59		 pop	 ecx
  00012	f3 a5		 rep movsd
  00014	5e		 pop	 esi
$LN3@construct:
  00015	5f		 pop	 edi

; 209  : 		}

  00016	5d		 pop	 ebp
  00017	c2 08 00	 ret	 8
??$construct@AAUTradeItemInfo@@@?$allocator@UTradeItemInfo@@@std@@QAEXPAUTradeItemInfo@@AAU2@@Z ENDP ; std::allocator<TradeItemInfo>::construct<TradeItemInfo &>
_TEXT	ENDS
PUBLIC	??$forward@ABUTradeItemInfo@@@std@@YAABUTradeItemInfo@@ABU1@@Z ; std::forward<TradeItemInfo const &>
; Function compile flags: /Ogsp
; File c:\program files (x86)\microsoft visual studio 10.0\vc\include\utility
;	COMDAT ??$forward@ABUTradeItemInfo@@@std@@YAABUTradeItemInfo@@ABU1@@Z
_TEXT	SEGMENT
__Arg$ = 8						; size = 4
??$forward@ABUTradeItemInfo@@@std@@YAABUTradeItemInfo@@ABU1@@Z PROC ; std::forward<TradeItemInfo const &>, COMDAT

; 78   : 	{	// forward _Arg, given explicitly specified type parameter

  00000	55		 push	 ebp
  00001	8b ec		 mov	 ebp, esp

; 79   : 	return ((_Ty&&)_Arg);

  00003	8b 45 08	 mov	 eax, DWORD PTR __Arg$[ebp]

; 80   : 	}

  00006	5d		 pop	 ebp
  00007	c3		 ret	 0
??$forward@ABUTradeItemInfo@@@std@@YAABUTradeItemInfo@@ABU1@@Z ENDP ; std::forward<TradeItemInfo const &>
_TEXT	ENDS
PUBLIC	??$forward@AAUNewShopPullDownItem@@@std@@YAAAUNewShopPullDownItem@@AAU1@@Z ; std::forward<NewShopPullDownItem &>
; Function compile flags: /Ogsp
;	COMDAT ??$forward@AAUNewShopPullDownItem@@@std@@YAAAUNewShopPullDownItem@@AAU1@@Z
_TEXT	SEGMENT
__Arg$ = 8						; size = 4
??$forward@AAUNewShopPullDownItem@@@std@@YAAAUNewShopPullDownItem@@AAU1@@Z PROC ; std::forward<NewShopPullDownItem &>, COMDAT

; 78   : 	{	// forward _Arg, given explicitly specified type parameter

  00000	55		 push	 ebp
  00001	8b ec		 mov	 ebp, esp

; 79   : 	return ((_Ty&&)_Arg);

  00003	8b 45 08	 mov	 eax, DWORD PTR __Arg$[ebp]

; 80   : 	}

  00006	5d		 pop	 ebp
  00007	c3		 ret	 0
??$forward@AAUNewShopPullDownItem@@@std@@YAAAUNewShopPullDownItem@@AAU1@@Z ENDP ; std::forward<NewShopPullDownItem &>
_TEXT	ENDS
PUBLIC	??$forward@ABUNewShopPullDownItem@@@std@@YAABUNewShopPullDownItem@@ABU1@@Z ; std::forward<NewShopPullDownItem const &>
; Function compile flags: /Ogsp
;	COMDAT ??$forward@ABUNewShopPullDownItem@@@std@@YAABUNewShopPullDownItem@@ABU1@@Z
_TEXT	SEGMENT
__Arg$ = 8						; size = 4
??$forward@ABUNewShopPullDownItem@@@std@@YAABUNewShopPullDownItem@@ABU1@@Z PROC ; std::forward<NewShopPullDownItem const &>, COMDAT

; 78   : 	{	// forward _Arg, given explicitly specified type parameter

  00000	55		 push	 ebp
  00001	8b ec		 mov	 ebp, esp

; 79   : 	return ((_Ty&&)_Arg);

  00003	8b 45 08	 mov	 eax, DWORD PTR __Arg$[ebp]

; 80   : 	}

  00006	5d		 pop	 ebp
  00007	c3		 ret	 0
??$forward@ABUNewShopPullDownItem@@@std@@YAABUNewShopPullDownItem@@ABU1@@Z ENDP ; std::forward<NewShopPullDownItem const &>
_TEXT	ENDS
PUBLIC	??$_Ptr_cat@UNewShopPullDownItem@@U1@@std@@YA?AU_Nonscalar_ptr_iterator_tag@0@PAUNewShopPullDownItem@@0@Z ; std::_Ptr_cat<NewShopPullDownItem,NewShopPullDownItem>
; Function compile flags: /Ogsp
; File c:\program files (x86)\microsoft visual studio 10.0\vc\include\xutility
;	COMDAT ??$_Ptr_cat@UNewShopPullDownItem@@U1@@std@@YA?AU_Nonscalar_ptr_iterator_tag@0@PAUNewShopPullDownItem@@0@Z
_TEXT	SEGMENT
__Cat$ = -1						; size = 1
___formal$ = 8						; size = 4
___formal$ = 12						; size = 4
??$_Ptr_cat@UNewShopPullDownItem@@U1@@std@@YA?AU_Nonscalar_ptr_iterator_tag@0@PAUNewShopPullDownItem@@0@Z PROC ; std::_Ptr_cat<NewShopPullDownItem,NewShopPullDownItem>, COMDAT

; 516  : 	{	// return pointer category from pointers

  00000	55		 push	 ebp
  00001	8b ec		 mov	 ebp, esp
  00003	51		 push	 ecx

; 517  : 	typename _Ptr_cat_helper<_Elem1, _Elem2>::_Type _Cat;
; 518  : 	return (_Cat);

  00004	8a 45 ff	 mov	 al, BYTE PTR __Cat$[ebp]

; 519  : 	}

  00007	c9		 leave
  00008	c3		 ret	 0
??$_Ptr_cat@UNewShopPullDownItem@@U1@@std@@YA?AU_Nonscalar_ptr_iterator_tag@0@PAUNewShopPullDownItem@@0@Z ENDP ; std::_Ptr_cat<NewShopPullDownItem,NewShopPullDownItem>
_TEXT	ENDS
PUBLIC	??$_Construct@UTradeItemInfo@@ABU1@@std@@YAXPAUTradeItemInfo@@ABU1@@Z ; std::_Construct<TradeItemInfo,TradeItemInfo const &>
; Function compile flags: /Ogsp
; File c:\program files (x86)\microsoft visual studio 10.0\vc\include\xmemory
;	COMDAT ??$_Construct@UTradeItemInfo@@ABU1@@std@@YAXPAUTradeItemInfo@@ABU1@@Z
_TEXT	SEGMENT
__Ptr$ = 8						; size = 4
__Val$ = 12						; size = 4
??$_Construct@UTradeItemInfo@@ABU1@@std@@YAXPAUTradeItemInfo@@ABU1@@Z PROC ; std::_Construct<TradeItemInfo,TradeItemInfo const &>, COMDAT

; 46   : 	{	// construct object at _Ptr with value _Val

  00000	55		 push	 ebp
  00001	8b ec		 mov	 ebp, esp
  00003	57		 push	 edi

; 47   : 	void _FARQ *_Vptr = _Ptr;
; 48   : 	::new (_Vptr) _Ty1(_STD forward<_Ty2>(_Val));

  00004	8b 7d 08	 mov	 edi, DWORD PTR __Ptr$[ebp]
  00007	85 ff		 test	 edi, edi
  00009	74 0a		 je	 SHORT $LN3@Construct
  0000b	56		 push	 esi
  0000c	8b 75 0c	 mov	 esi, DWORD PTR __Val$[ebp]
  0000f	6a 10		 push	 16			; 00000010H
  00011	59		 pop	 ecx
  00012	f3 a5		 rep movsd
  00014	5e		 pop	 esi
$LN3@Construct:
  00015	5f		 pop	 edi

; 49   : 	}

  00016	5d		 pop	 ebp
  00017	c3		 ret	 0
??$_Construct@UTradeItemInfo@@ABU1@@std@@YAXPAUTradeItemInfo@@ABU1@@Z ENDP ; std::_Construct<TradeItemInfo,TradeItemInfo const &>
_TEXT	ENDS
PUBLIC	??0NewShopPullDownItem@@QAE@ABU0@@Z		; NewShopPullDownItem::NewShopPullDownItem
EXTRN	__imp_??0ioHashString@@QAE@ABV0@@Z:PROC
;	COMDAT xdata$x
xdata$x	SEGMENT
__unwindtable$??0NewShopPullDownItem@@QAE@ABU0@@Z DD 0ffffffffH
	DD	FLAT:__unwindfunclet$??0NewShopPullDownItem@@QAE@ABU0@@Z$0
	DD	00H
	DD	FLAT:__unwindfunclet$??0NewShopPullDownItem@@QAE@ABU0@@Z$1
__ehfuncinfo$??0NewShopPullDownItem@@QAE@ABU0@@Z DD 019930522H
	DD	02H
	DD	FLAT:__unwindtable$??0NewShopPullDownItem@@QAE@ABU0@@Z
	DD	2 DUP(00H)
	DD	2 DUP(00H)
	DD	00H
	DD	01H
; Function compile flags: /Ogsp
xdata$x	ENDS
;	COMDAT ??0NewShopPullDownItem@@QAE@ABU0@@Z
_TEXT	SEGMENT
_this$ = -16						; size = 4
__$EHRec$ = -12						; size = 12
___that$ = 8						; size = 4
??0NewShopPullDownItem@@QAE@ABU0@@Z PROC		; NewShopPullDownItem::NewShopPullDownItem, COMDAT
; _this$ = ecx
  00000	6a 04		 push	 4
  00002	b8 00 00 00 00	 mov	 eax, __ehhandler$??0NewShopPullDownItem@@QAE@ABU0@@Z
  00007	e8 00 00 00 00	 call	 __EH_prolog3
  0000c	8b f1		 mov	 esi, ecx
  0000e	89 75 f0	 mov	 DWORD PTR _this$[ebp], esi
  00011	8b 7d 08	 mov	 edi, DWORD PTR ___that$[ebp]
  00014	8b 1d 00 00 00
	00		 mov	 ebx, DWORD PTR __imp_??0ioHashString@@QAE@ABV0@@Z
  0001a	57		 push	 edi
  0001b	ff d3		 call	 ebx
  0001d	8b 47 10	 mov	 eax, DWORD PTR [edi+16]
  00020	83 65 fc 00	 and	 DWORD PTR __$EHRec$[ebp+8], 0
  00024	89 46 10	 mov	 DWORD PTR [esi+16], eax
  00027	8b 47 14	 mov	 eax, DWORD PTR [edi+20]
  0002a	89 46 14	 mov	 DWORD PTR [esi+20], eax
  0002d	8a 47 18	 mov	 al, BYTE PTR [edi+24]
  00030	88 46 18	 mov	 BYTE PTR [esi+24], al
  00033	8b 47 1c	 mov	 eax, DWORD PTR [edi+28]
  00036	89 46 1c	 mov	 DWORD PTR [esi+28], eax
  00039	8a 47 20	 mov	 al, BYTE PTR [edi+32]
  0003c	88 46 20	 mov	 BYTE PTR [esi+32], al
  0003f	8d 47 24	 lea	 eax, DWORD PTR [edi+36]
  00042	50		 push	 eax
  00043	8d 4e 24	 lea	 ecx, DWORD PTR [esi+36]
  00046	ff d3		 call	 ebx
  00048	8b 47 34	 mov	 eax, DWORD PTR [edi+52]
  0004b	89 46 34	 mov	 DWORD PTR [esi+52], eax
  0004e	8a 47 38	 mov	 al, BYTE PTR [edi+56]
  00051	88 46 38	 mov	 BYTE PTR [esi+56], al
  00054	8d 47 3c	 lea	 eax, DWORD PTR [edi+60]
  00057	50		 push	 eax
  00058	8d 4e 3c	 lea	 ecx, DWORD PTR [esi+60]
  0005b	c6 45 fc 01	 mov	 BYTE PTR __$EHRec$[ebp+8], 1
  0005f	ff d3		 call	 ebx
  00061	8b 47 4c	 mov	 eax, DWORD PTR [edi+76]
  00064	89 46 4c	 mov	 DWORD PTR [esi+76], eax
  00067	8b c6		 mov	 eax, esi
  00069	e8 00 00 00 00	 call	 __EH_epilog3
  0006e	c2 04 00	 ret	 4
_TEXT	ENDS
;	COMDAT text$x
text$x	SEGMENT
__unwindfunclet$??0NewShopPullDownItem@@QAE@ABU0@@Z$0:
  00000	8b 4d f0	 mov	 ecx, DWORD PTR _this$[ebp]
  00003	ff 25 00 00 00
	00		 jmp	 DWORD PTR __imp_??1ioHashString@@QAE@XZ
__unwindfunclet$??0NewShopPullDownItem@@QAE@ABU0@@Z$1:
  00009	8b 4d f0	 mov	 ecx, DWORD PTR _this$[ebp]
  0000c	83 c1 24	 add	 ecx, 36			; 00000024H
  0000f	ff 25 00 00 00
	00		 jmp	 DWORD PTR __imp_??1ioHashString@@QAE@XZ
__ehhandler$??0NewShopPullDownItem@@QAE@ABU0@@Z:
  00015	8b 54 24 08	 mov	 edx, DWORD PTR [esp+8]
  00019	8d 42 0c	 lea	 eax, DWORD PTR [edx+12]
  0001c	8b 4a ec	 mov	 ecx, DWORD PTR [edx-20]
  0001f	33 c8		 xor	 ecx, eax
  00021	e8 00 00 00 00	 call	 @__security_check_cookie@4
  00026	b8 00 00 00 00	 mov	 eax, OFFSET __ehfuncinfo$??0NewShopPullDownItem@@QAE@ABU0@@Z
  0002b	e9 00 00 00 00	 jmp	 ___CxxFrameHandler3
text$x	ENDS
??0NewShopPullDownItem@@QAE@ABU0@@Z ENDP		; NewShopPullDownItem::NewShopPullDownItem
PUBLIC	??4NewShopPullDownItem@@QAEAAU0@ABU0@@Z		; NewShopPullDownItem::operator=
EXTRN	__imp_??4ioHashString@@QAEAAV0@ABV0@@Z:PROC
; Function compile flags: /Ogsp
;	COMDAT ??4NewShopPullDownItem@@QAEAAU0@ABU0@@Z
_TEXT	SEGMENT
___that$ = 8						; size = 4
??4NewShopPullDownItem@@QAEAAU0@ABU0@@Z PROC		; NewShopPullDownItem::operator=, COMDAT
; _this$ = ecx
  00000	55		 push	 ebp
  00001	8b ec		 mov	 ebp, esp
  00003	53		 push	 ebx
  00004	8b 1d 00 00 00
	00		 mov	 ebx, DWORD PTR __imp_??4ioHashString@@QAEAAV0@ABV0@@Z
  0000a	56		 push	 esi
  0000b	57		 push	 edi
  0000c	8b 7d 08	 mov	 edi, DWORD PTR ___that$[ebp]
  0000f	57		 push	 edi
  00010	8b f1		 mov	 esi, ecx
  00012	ff d3		 call	 ebx
  00014	8b 47 10	 mov	 eax, DWORD PTR [edi+16]
  00017	89 46 10	 mov	 DWORD PTR [esi+16], eax
  0001a	8b 47 14	 mov	 eax, DWORD PTR [edi+20]
  0001d	89 46 14	 mov	 DWORD PTR [esi+20], eax
  00020	8a 47 18	 mov	 al, BYTE PTR [edi+24]
  00023	88 46 18	 mov	 BYTE PTR [esi+24], al
  00026	8b 47 1c	 mov	 eax, DWORD PTR [edi+28]
  00029	89 46 1c	 mov	 DWORD PTR [esi+28], eax
  0002c	8a 47 20	 mov	 al, BYTE PTR [edi+32]
  0002f	88 46 20	 mov	 BYTE PTR [esi+32], al
  00032	8d 47 24	 lea	 eax, DWORD PTR [edi+36]
  00035	50		 push	 eax
  00036	8d 4e 24	 lea	 ecx, DWORD PTR [esi+36]
  00039	ff d3		 call	 ebx
  0003b	8b 47 34	 mov	 eax, DWORD PTR [edi+52]
  0003e	89 46 34	 mov	 DWORD PTR [esi+52], eax
  00041	8a 47 38	 mov	 al, BYTE PTR [edi+56]
  00044	88 46 38	 mov	 BYTE PTR [esi+56], al
  00047	8d 47 3c	 lea	 eax, DWORD PTR [edi+60]
  0004a	50		 push	 eax
  0004b	8d 4e 3c	 lea	 ecx, DWORD PTR [esi+60]
  0004e	ff d3		 call	 ebx
  00050	8b 47 4c	 mov	 eax, DWORD PTR [edi+76]
  00053	89 46 4c	 mov	 DWORD PTR [esi+76], eax
  00056	5f		 pop	 edi
  00057	8b c6		 mov	 eax, esi
  00059	5e		 pop	 esi
  0005a	5b		 pop	 ebx
  0005b	5d		 pop	 ebp
  0005c	c2 04 00	 ret	 4
??4NewShopPullDownItem@@QAEAAU0@ABU0@@Z ENDP		; NewShopPullDownItem::operator=
_TEXT	ENDS
PUBLIC	?_Unchecked@?$_String_iterator@DU?$char_traits@D@std@@V?$allocator@D@2@@std@@QBEPADXZ ; std::_String_iterator<char,std::char_traits<char>,std::allocator<char> >::_Unchecked
; Function compile flags: /Ogsp
; File c:\program files (x86)\microsoft visual studio 10.0\vc\include\xstring
;	COMDAT ?_Unchecked@?$_String_iterator@DU?$char_traits@D@std@@V?$allocator@D@2@@std@@QBEPADXZ
_TEXT	SEGMENT
?_Unchecked@?$_String_iterator@DU?$char_traits@D@std@@V?$allocator@D@2@@std@@QBEPADXZ PROC ; std::_String_iterator<char,std::char_traits<char>,std::allocator<char> >::_Unchecked, COMDAT
; _this$ = ecx

; 338  : 		return (_Unchecked_type(this->_Ptr));

  00000	8b 01		 mov	 eax, DWORD PTR [ecx]

; 339  : 		}

  00002	c3		 ret	 0
?_Unchecked@?$_String_iterator@DU?$char_traits@D@std@@V?$allocator@D@2@@std@@QBEPADXZ ENDP ; std::_String_iterator<char,std::char_traits<char>,std::allocator<char> >::_Unchecked
_TEXT	ENDS
PUBLIC	?_Unchecked@?$_Vector_iterator@V?$_Vector_val@UTradeItemInfo@@V?$allocator@UTradeItemInfo@@@std@@@std@@@std@@QBEPAUTradeItemInfo@@XZ ; std::_Vector_iterator<std::_Vector_val<TradeItemInfo,std::allocator<TradeItemInfo> > >::_Unchecked
; Function compile flags: /Ogsp
; File c:\program files (x86)\microsoft visual studio 10.0\vc\include\vector
;	COMDAT ?_Unchecked@?$_Vector_iterator@V?$_Vector_val@UTradeItemInfo@@V?$allocator@UTradeItemInfo@@@std@@@std@@@std@@QBEPAUTradeItemInfo@@XZ
_TEXT	SEGMENT
?_Unchecked@?$_Vector_iterator@V?$_Vector_val@UTradeItemInfo@@V?$allocator@UTradeItemInfo@@@std@@@std@@@std@@QBEPAUTradeItemInfo@@XZ PROC ; std::_Vector_iterator<std::_Vector_val<TradeItemInfo,std::allocator<TradeItemInfo> > >::_Unchecked, COMDAT
; _this$ = ecx

; 317  : 		return (_Unchecked_type(this->_Ptr));

  00000	8b 01		 mov	 eax, DWORD PTR [ecx]

; 318  : 		}

  00002	c3		 ret	 0
?_Unchecked@?$_Vector_iterator@V?$_Vector_val@UTradeItemInfo@@V?$allocator@UTradeItemInfo@@@std@@@std@@@std@@QBEPAUTradeItemInfo@@XZ ENDP ; std::_Vector_iterator<std::_Vector_val<TradeItemInfo,std::allocator<TradeItemInfo> > >::_Unchecked
_TEXT	ENDS
PUBLIC	??$move@AAUTradeItemInfo@@@std@@YA$$QAUTradeItemInfo@@AAU1@@Z ; std::move<TradeItemInfo &>
; Function compile flags: /Ogsp
; File c:\program files (x86)\microsoft visual studio 10.0\vc\include\utility
;	COMDAT ??$move@AAUTradeItemInfo@@@std@@YA$$QAUTradeItemInfo@@AAU1@@Z
_TEXT	SEGMENT
__Arg$ = 8						; size = 4
??$move@AAUTradeItemInfo@@@std@@YA$$QAUTradeItemInfo@@AAU1@@Z PROC ; std::move<TradeItemInfo &>, COMDAT

; 86   : 	{	// forward _Arg as movable

  00000	55		 push	 ebp
  00001	8b ec		 mov	 ebp, esp

; 87   : 	return ((typename tr1::_Remove_reference<_Ty>::_Type&&)_Arg);

  00003	8b 45 08	 mov	 eax, DWORD PTR __Arg$[ebp]

; 88   : 	}

  00006	5d		 pop	 ebp
  00007	c3		 ret	 0
??$move@AAUTradeItemInfo@@@std@@YA$$QAUTradeItemInfo@@AAU1@@Z ENDP ; std::move<TradeItemInfo &>
_TEXT	ENDS
PUBLIC	??$move@AAUNewShopPullDownItem@@@std@@YA$$QAUNewShopPullDownItem@@AAU1@@Z ; std::move<NewShopPullDownItem &>
; Function compile flags: /Ogsp
;	COMDAT ??$move@AAUNewShopPullDownItem@@@std@@YA$$QAUNewShopPullDownItem@@AAU1@@Z
_TEXT	SEGMENT
__Arg$ = 8						; size = 4
??$move@AAUNewShopPullDownItem@@@std@@YA$$QAUNewShopPullDownItem@@AAU1@@Z PROC ; std::move<NewShopPullDownItem &>, COMDAT

; 86   : 	{	// forward _Arg as movable

  00000	55		 push	 ebp
  00001	8b ec		 mov	 ebp, esp

; 87   : 	return ((typename tr1::_Remove_reference<_Ty>::_Type&&)_Arg);

  00003	8b 45 08	 mov	 eax, DWORD PTR __Arg$[ebp]

; 88   : 	}

  00006	5d		 pop	 ebp
  00007	c3		 ret	 0
??$move@AAUNewShopPullDownItem@@@std@@YA$$QAUNewShopPullDownItem@@AAU1@@Z ENDP ; std::move<NewShopPullDownItem &>
_TEXT	ENDS
PUBLIC	??$_Val_type@PAUTradeItemInfo@@@std@@YAPAUTradeItemInfo@@PAU1@@Z ; std::_Val_type<TradeItemInfo *>
; Function compile flags: /Ogsp
; File c:\program files (x86)\microsoft visual studio 10.0\vc\include\xutility
;	COMDAT ??$_Val_type@PAUTradeItemInfo@@@std@@YAPAUTradeItemInfo@@PAU1@@Z
_TEXT	SEGMENT
___formal$ = 8						; size = 4
??$_Val_type@PAUTradeItemInfo@@@std@@YAPAUTradeItemInfo@@PAU1@@Z PROC ; std::_Val_type<TradeItemInfo *>, COMDAT

; 790  : 	return (0);

  00000	33 c0		 xor	 eax, eax

; 791  : 	}

  00002	c3		 ret	 0
??$_Val_type@PAUTradeItemInfo@@@std@@YAPAUTradeItemInfo@@PAU1@@Z ENDP ; std::_Val_type<TradeItemInfo *>
_TEXT	ENDS
PUBLIC	??$_Val_type@PAUNewShopPullDownItem@@@std@@YAPAUNewShopPullDownItem@@PAU1@@Z ; std::_Val_type<NewShopPullDownItem *>
; Function compile flags: /Ogsp
;	COMDAT ??$_Val_type@PAUNewShopPullDownItem@@@std@@YAPAUNewShopPullDownItem@@PAU1@@Z
_TEXT	SEGMENT
___formal$ = 8						; size = 4
??$_Val_type@PAUNewShopPullDownItem@@@std@@YAPAUNewShopPullDownItem@@PAU1@@Z PROC ; std::_Val_type<NewShopPullDownItem *>, COMDAT

; 790  : 	return (0);

  00000	33 c0		 xor	 eax, eax

; 791  : 	}

  00002	c3		 ret	 0
??$_Val_type@PAUNewShopPullDownItem@@@std@@YAPAUNewShopPullDownItem@@PAU1@@Z ENDP ; std::_Val_type<NewShopPullDownItem *>
_TEXT	ENDS
PUBLIC	??$_Unchecked@PAUTradeItemInfo@@@std@@YAPAUTradeItemInfo@@PAU1@@Z ; std::_Unchecked<TradeItemInfo *>
; Function compile flags: /Ogsp
;	COMDAT ??$_Unchecked@PAUTradeItemInfo@@@std@@YAPAUTradeItemInfo@@PAU1@@Z
_TEXT	SEGMENT
__Src$ = 8						; size = 4
??$_Unchecked@PAUTradeItemInfo@@@std@@YAPAUTradeItemInfo@@PAU1@@Z PROC ; std::_Unchecked<TradeItemInfo *>, COMDAT

; 266  : 	{	// construct unchecked from checked, generic

  00000	55		 push	 ebp
  00001	8b ec		 mov	 ebp, esp

; 267  : 	return (_Src);

  00003	8b 45 08	 mov	 eax, DWORD PTR __Src$[ebp]

; 268  : 	}

  00006	5d		 pop	 ebp
  00007	c3		 ret	 0
??$_Unchecked@PAUTradeItemInfo@@@std@@YAPAUTradeItemInfo@@PAU1@@Z ENDP ; std::_Unchecked<TradeItemInfo *>
_TEXT	ENDS
PUBLIC	??$_Dist_type@PAUTradeItemInfo@@@std@@YAPAHPAUTradeItemInfo@@@Z ; std::_Dist_type<TradeItemInfo *>
; Function compile flags: /Ogsp
;	COMDAT ??$_Dist_type@PAUTradeItemInfo@@@std@@YAPAHPAUTradeItemInfo@@@Z
_TEXT	SEGMENT
___formal$ = 8						; size = 4
??$_Dist_type@PAUTradeItemInfo@@@std@@YAPAHPAUTradeItemInfo@@@Z PROC ; std::_Dist_type<TradeItemInfo *>, COMDAT

; 850  : 	return (0);

  00000	33 c0		 xor	 eax, eax

; 851  : 	}

  00002	c3		 ret	 0
??$_Dist_type@PAUTradeItemInfo@@@std@@YAPAHPAUTradeItemInfo@@@Z ENDP ; std::_Dist_type<TradeItemInfo *>
_TEXT	ENDS
PUBLIC	??$_Destroy@UTradeItemInfo@@@std@@YAXPAUTradeItemInfo@@@Z ; std::_Destroy<TradeItemInfo>
; Function compile flags: /Ogsp
; File c:\program files (x86)\microsoft visual studio 10.0\vc\include\xmemory
;	COMDAT ??$_Destroy@UTradeItemInfo@@@std@@YAXPAUTradeItemInfo@@@Z
_TEXT	SEGMENT
__Ptr$ = 8						; size = 4
??$_Destroy@UTradeItemInfo@@@std@@YAXPAUTradeItemInfo@@@Z PROC ; std::_Destroy<TradeItemInfo>, COMDAT

; 63   : 	_Ptr->~_Ty();
; 64   : 	}

  00000	c3		 ret	 0
??$_Destroy@UTradeItemInfo@@@std@@YAXPAUTradeItemInfo@@@Z ENDP ; std::_Destroy<TradeItemInfo>
_TEXT	ENDS
PUBLIC	??_GNewShopPullDownItem@@QAEPAXI@Z		; NewShopPullDownItem::`scalar deleting destructor'
; Function compile flags: /Ogsp
;	COMDAT ??_GNewShopPullDownItem@@QAEPAXI@Z
_TEXT	SEGMENT
___flags$ = 8						; size = 4
??_GNewShopPullDownItem@@QAEPAXI@Z PROC			; NewShopPullDownItem::`scalar deleting destructor', COMDAT
; _this$ = ecx
  00000	55		 push	 ebp
  00001	8b ec		 mov	 ebp, esp
  00003	56		 push	 esi
  00004	8b f1		 mov	 esi, ecx
  00006	e8 00 00 00 00	 call	 ??1NewShopPullDownItem@@QAE@XZ
  0000b	f6 45 08 01	 test	 BYTE PTR ___flags$[ebp], 1
  0000f	74 07		 je	 SHORT $LN1@scalar@2
  00011	56		 push	 esi
  00012	e8 00 00 00 00	 call	 ??3@YAXPAX@Z		; operator delete
  00017	59		 pop	 ecx
$LN1@scalar@2:
  00018	8b c6		 mov	 eax, esi
  0001a	5e		 pop	 esi
  0001b	5d		 pop	 ebp
  0001c	c2 04 00	 ret	 4
??_GNewShopPullDownItem@@QAEPAXI@Z ENDP			; NewShopPullDownItem::`scalar deleting destructor'
_TEXT	ENDS
PUBLIC	??$_Move@AAUTradeItemInfo@@@std@@YA$$QAUTradeItemInfo@@AAU1@@Z ; std::_Move<TradeItemInfo &>
; Function compile flags: /Ogsp
; File c:\program files (x86)\microsoft visual studio 10.0\vc\include\utility
;	COMDAT ??$_Move@AAUTradeItemInfo@@@std@@YA$$QAUTradeItemInfo@@AAU1@@Z
_TEXT	SEGMENT
__Arg$ = 8						; size = 4
??$_Move@AAUTradeItemInfo@@@std@@YA$$QAUTradeItemInfo@@AAU1@@Z PROC ; std::_Move<TradeItemInfo &>, COMDAT

; 94   : 	{	// forward _Arg as movable

  00000	55		 push	 ebp
  00001	8b ec		 mov	 ebp, esp

; 95   : 	return ((typename tr1::_Remove_reference<_Ty>::_Type&&)_Arg);

  00003	8b 45 08	 mov	 eax, DWORD PTR __Arg$[ebp]

; 96   : 	}

  00006	5d		 pop	 ebp
  00007	c3		 ret	 0
??$_Move@AAUTradeItemInfo@@@std@@YA$$QAUTradeItemInfo@@AAU1@@Z ENDP ; std::_Move<TradeItemInfo &>
_TEXT	ENDS
