; Listing generated by Microsoft (R) Optimizing Compiler Version 16.00.30319.01 

	TITLE	D:\Lost Saga For Developer\Youtube\Tutorial\Source\src\LSClient\GUI\TradeItemRegisterWnd.cpp
	.686P
	.XMM
	include listing.inc
	.model	flat

INCLUDELIB MSVCRT
INCLUDELIB OLDNAMES

PUBLIC	?SetMarkType@TradeIconBtn@@QAEXH@Z		; TradeIconBtn::SetMarkType
; Function compile flags: /Ogsp
; File d:\lost saga for developer\youtube\tutorial\source\src\lsclient\gui\changetradestatewnd.h
;	COMDAT ?SetMarkType@TradeIconBtn@@QAEXH@Z
_TEXT	SEGMENT
_iMarkType$ = 8						; size = 4
?SetMarkType@TradeIconBtn@@QAEXH@Z PROC			; TradeIconBtn::SetMarkType, COMDAT
; _this$ = ecx

; 55   : 	void SetMarkType( int iMarkType ) { m_iMarkType = iMarkType; } 

  00000	55		 push	 ebp
  00001	8b ec		 mov	 ebp, esp
  00003	8b 45 08	 mov	 eax, DWORD PTR _iMarkType$[ebp]
  00006	89 81 18 02 00
	00		 mov	 DWORD PTR [ecx+536], eax
  0000c	5d		 pop	 ebp
  0000d	c2 04 00	 ret	 4
?SetMarkType@TradeIconBtn@@QAEXH@Z ENDP			; TradeIconBtn::SetMarkType
_TEXT	ENDS
PUBLIC	?SetCustomItem@TradeIconBtn@@QAEX_N@Z		; TradeIconBtn::SetCustomItem
; Function compile flags: /Ogsp
;	COMDAT ?SetCustomItem@TradeIconBtn@@QAEX_N@Z
_TEXT	SEGMENT
_bCustomItem$ = 8					; size = 1
?SetCustomItem@TradeIconBtn@@QAEX_N@Z PROC		; TradeIconBtn::SetCustomItem, COMDAT
; _this$ = ecx

; 56   : 	void SetCustomItem( bool bCustomItem ){ m_bCustomItem = bCustomItem; }

  00000	55		 push	 ebp
  00001	8b ec		 mov	 ebp, esp
  00003	8a 45 08	 mov	 al, BYTE PTR _bCustomItem$[ebp]
  00006	88 81 1c 02 00
	00		 mov	 BYTE PTR [ecx+540], al
  0000c	5d		 pop	 ebp
  0000d	c2 04 00	 ret	 4
?SetCustomItem@TradeIconBtn@@QAEX_N@Z ENDP		; TradeIconBtn::SetCustomItem
_TEXT	ENDS
PUBLIC	?SetGradeType@TradeIconBtn@@QAEXH@Z		; TradeIconBtn::SetGradeType
; Function compile flags: /Ogsp
;	COMDAT ?SetGradeType@TradeIconBtn@@QAEXH@Z
_TEXT	SEGMENT
_nGradeType$ = 8					; size = 4
?SetGradeType@TradeIconBtn@@QAEXH@Z PROC		; TradeIconBtn::SetGradeType, COMDAT
; _this$ = ecx

; 57   : 	void SetGradeType( int nGradeType ){ m_nGradeType = nGradeType; }

  00000	55		 push	 ebp
  00001	8b ec		 mov	 ebp, esp
  00003	8b 45 08	 mov	 eax, DWORD PTR _nGradeType$[ebp]
  00006	89 81 2c 02 00
	00		 mov	 DWORD PTR [ecx+556], eax
  0000c	5d		 pop	 ebp
  0000d	c2 04 00	 ret	 4
?SetGradeType@TradeIconBtn@@QAEXH@Z ENDP		; TradeIconBtn::SetGradeType
_TEXT	ENDS
PUBLIC	?GetExtraItemIndex@TradeItemInfoWnd@@QBEHXZ	; TradeItemInfoWnd::GetExtraItemIndex
; Function compile flags: /Ogsp
;	COMDAT ?GetExtraItemIndex@TradeItemInfoWnd@@QBEHXZ
_TEXT	SEGMENT
?GetExtraItemIndex@TradeItemInfoWnd@@QBEHXZ PROC	; TradeItemInfoWnd::GetExtraItemIndex, COMDAT
; _this$ = ecx

; 193  : 	inline int GetExtraItemIndex() const { return m_iExtraItemIndex; }	

  00000	8b 81 ac 02 00
	00		 mov	 eax, DWORD PTR [ecx+684]
  00006	c3		 ret	 0
?GetExtraItemIndex@TradeItemInfoWnd@@QBEHXZ ENDP	; TradeItemInfoWnd::GetExtraItemIndex
_TEXT	ENDS
PUBLIC	?return1@@YAIXZ					; return1
; Function compile flags: /Ogsp
; File d:\lost saga for developer\youtube\tutorial\source\src\lsclient\stdafx.h
;	COMDAT ?return1@@YAIXZ
_TEXT	SEGMENT
?return1@@YAIXZ PROC					; return1, COMDAT

; 17   : 	__forceinline unsigned int return1() { __asm mov eax, 1 };

  00000	b8 01 00 00 00	 mov	 eax, 1
  00005	c3		 ret	 0
?return1@@YAIXZ ENDP					; return1
_TEXT	ENDS
PUBLIC	?return100@@YAIXZ				; return100
; Function compile flags: /Ogsp
;	COMDAT ?return100@@YAIXZ
_TEXT	SEGMENT
?return100@@YAIXZ PROC					; return100, COMDAT

; 25   : 	__forceinline unsigned int return100() { __asm mov eax, 100 };

  00000	b8 64 00 00 00	 mov	 eax, 100		; 00000064H
  00005	c3		 ret	 0
?return100@@YAIXZ ENDP					; return100
_TEXT	ENDS
PUBLIC	??_7TradeItemRegisterConfirmWnd@@6B@		; TradeItemRegisterConfirmWnd::`vftable'
PUBLIC	??1TradeItemRegisterConfirmWnd@@UAE@XZ		; TradeItemRegisterConfirmWnd::~TradeItemRegisterConfirmWnd
PUBLIC	??_R4TradeItemRegisterConfirmWnd@@6B@		; TradeItemRegisterConfirmWnd::`RTTI Complete Object Locator'
PUBLIC	??_R0?AVTradeItemRegisterConfirmWnd@@@8		; TradeItemRegisterConfirmWnd `RTTI Type Descriptor'
PUBLIC	??_R3TradeItemRegisterConfirmWnd@@8		; TradeItemRegisterConfirmWnd::`RTTI Class Hierarchy Descriptor'
PUBLIC	??_R2TradeItemRegisterConfirmWnd@@8		; TradeItemRegisterConfirmWnd::`RTTI Base Class Array'
PUBLIC	??_R1A@?0A@EA@TradeItemRegisterConfirmWnd@@8	; TradeItemRegisterConfirmWnd::`RTTI Base Class Descriptor at (0,-1,0,64)'
PUBLIC	??_R1A@?0A@EA@ioMovingWnd@@8			; ioMovingWnd::`RTTI Base Class Descriptor at (0,-1,0,64)'
PUBLIC	??_R0?AVioMovingWnd@@@8				; ioMovingWnd `RTTI Type Descriptor'
PUBLIC	??_R3ioMovingWnd@@8				; ioMovingWnd::`RTTI Class Hierarchy Descriptor'
PUBLIC	??_R2ioMovingWnd@@8				; ioMovingWnd::`RTTI Base Class Array'
PUBLIC	??_R1A@?0A@EA@ioWnd@@8				; ioWnd::`RTTI Base Class Descriptor at (0,-1,0,64)'
PUBLIC	??_R0?AVioWnd@@@8				; ioWnd `RTTI Type Descriptor'
PUBLIC	??_R3ioWnd@@8					; ioWnd::`RTTI Class Hierarchy Descriptor'
PUBLIC	??_R2ioWnd@@8					; ioWnd::`RTTI Base Class Array'
PUBLIC	?AddRenderFrame@TradeItemRegisterConfirmWnd@@MAEXABVioHashString@@PAVioUIRenderFrame@@@Z ; TradeItemRegisterConfirmWnd::AddRenderFrame
PUBLIC	?AddRenderImage@TradeItemRegisterConfirmWnd@@MAEXABVioHashString@@PAVioUIRenderImage@@@Z ; TradeItemRegisterConfirmWnd::AddRenderImage
PUBLIC	?OnRender@TradeItemRegisterConfirmWnd@@MAEXXZ	; TradeItemRegisterConfirmWnd::OnRender
PUBLIC	?iwm_command@TradeItemRegisterConfirmWnd@@UAEXPAVioWnd@@HK@Z ; TradeItemRegisterConfirmWnd::iwm_command
EXTRN	__imp_??1ioMovingWnd@@UAE@XZ:PROC
EXTRN	??_M@YGXPAXIHP6EX0@Z@Z:PROC			; `eh vector destructor iterator'
EXTRN	??1ioComplexStringPrinter@@QAE@XZ:PROC		; ioComplexStringPrinter::~ioComplexStringPrinter
EXTRN	___CxxFrameHandler3:PROC
EXTRN	@__security_check_cookie@4:PROC
EXTRN	__EH_epilog3:PROC
EXTRN	__EH_prolog3:PROC
EXTRN	??_7type_info@@6B@:QWORD			; type_info::`vftable'
EXTRN	?AddTooltipHelp@ioWnd@@UAEXABVioHashString@@00@Z:PROC ; ioWnd::AddTooltipHelp
EXTRN	?ParseExtraInfo@ioWnd@@UAEXAAVioXMLElement@@@Z:PROC ; ioWnd::ParseExtraInfo
EXTRN	?AddNamedRenderImage@ioWnd@@UAEXABVioHashString@@PAVioUIRenderImage@@@Z:PROC ; ioWnd::AddNamedRenderImage
EXTRN	?RemoveNamedRenderImage@ioWnd@@UAEXABVioHashString@@@Z:PROC ; ioWnd::RemoveNamedRenderImage
EXTRN	?GetNamedRenderImage@ioWnd@@UBEPAVioUIRenderImage@@ABVioHashString@@@Z:PROC ; ioWnd::GetNamedRenderImage
EXTRN	?SetWindowAlpha@ioWnd@@UAEXH@Z:PROC		; ioWnd::SetWindowAlpha
EXTRN	?SetActive@ioWnd@@UAEXXZ:PROC			; ioWnd::SetActive
EXTRN	?SetInActive@ioWnd@@UAEXXZ:PROC			; ioWnd::SetInActive
EXTRN	?ClearElementImageList@ioWnd@@UAEXXZ:PROC	; ioWnd::ClearElementImageList
EXTRN	?SetSize@ioWnd@@UAEXHH@Z:PROC			; ioWnd::SetSize
EXTRN	?SetPositionToDefault@ioMovingWnd@@UAEXHH_N0@Z:PROC ; ioMovingWnd::SetPositionToDefault
EXTRN	?IsNeedProcess@ioWnd@@UBE_NXZ:PROC		; ioWnd::IsNeedProcess
EXTRN	?IsCanMouseReaction@ioWnd@@UBE_NXZ:PROC		; ioWnd::IsCanMouseReaction
EXTRN	?AddChild@ioWnd@@UAEXPAV1@@Z:PROC		; ioWnd::AddChild
EXTRN	?DeleteChild@ioWnd@@UAEXK@Z:PROC		; ioWnd::DeleteChild
EXTRN	?DeleteAllChild@ioWnd@@UAEXXZ:PROC		; ioWnd::DeleteAllChild
EXTRN	?OnRenderShowAndHide@ioWnd@@MAE_NXZ:PROC	; ioWnd::OnRenderShowAndHide
EXTRN	?OnRenderShowAndHideByDefault@ioWnd@@MAE_NK@Z:PROC ; ioWnd::OnRenderShowAndHideByDefault
EXTRN	?OnRenderShowAndHideByTop@ioWnd@@MAE_NK@Z:PROC	; ioWnd::OnRenderShowAndHideByTop
EXTRN	?OnRenderShowAndHideByDown@ioWnd@@MAE_NK@Z:PROC	; ioWnd::OnRenderShowAndHideByDown
EXTRN	?OnRenderAfterChild@ioWnd@@MAEXXZ:PROC		; ioWnd::OnRenderAfterChild
EXTRN	?OnProcess@ioWnd@@MAEXM@Z:PROC			; ioWnd::OnProcess
EXTRN	?OnMouseProcess@ioMovingWnd@@MAEXABVioMouse@@@Z:PROC ; ioMovingWnd::OnMouseProcess
EXTRN	?CheckFrameReSize@ioWnd@@MAEXHHHH@Z:PROC	; ioWnd::CheckFrameReSize
EXTRN	?RenderImageList@ioWnd@@MAEXHHW4UIRenderType@@@Z:PROC ; ioWnd::RenderImageList
EXTRN	?iwm_create@ioWnd@@UAEXXZ:PROC			; ioWnd::iwm_create
EXTRN	?iwm_destroy@ioWnd@@UAEXXZ:PROC			; ioWnd::iwm_destroy
EXTRN	?iwm_lbuttondown@ioMovingWnd@@UAEXABVioMouse@@@Z:PROC ; ioMovingWnd::iwm_lbuttondown
EXTRN	?iwm_lbuttonup@ioMovingWnd@@UAEXABVioMouse@@@Z:PROC ; ioMovingWnd::iwm_lbuttonup
EXTRN	?iwm_lbuttonDBLCLK@ioWnd@@UAEXABVioMouse@@@Z:PROC ; ioWnd::iwm_lbuttonDBLCLK
EXTRN	?iwm_rbuttondown@ioWnd@@UAEXABVioMouse@@@Z:PROC	; ioWnd::iwm_rbuttondown
EXTRN	?iwm_rbuttonup@ioWnd@@UAEXABVioMouse@@@Z:PROC	; ioWnd::iwm_rbuttonup
EXTRN	?iwm_mouseover@ioWnd@@UAEXABVioMouse@@@Z:PROC	; ioWnd::iwm_mouseover
EXTRN	?iwm_mousemove@ioWnd@@UAEXABVioMouse@@@Z:PROC	; ioWnd::iwm_mousemove
EXTRN	?iwm_mouseleave@ioWnd@@UAEXABVioMouse@@@Z:PROC	; ioWnd::iwm_mouseleave
EXTRN	?iwm_vscroll@ioWnd@@UAEXKH@Z:PROC		; ioWnd::iwm_vscroll
EXTRN	?iwm_wheel@ioWnd@@UAEXH@Z:PROC			; ioWnd::iwm_wheel
EXTRN	?iwm_show@ioWnd@@UAEXXZ:PROC			; ioWnd::iwm_show
EXTRN	?iwm_hide@ioWnd@@UAEXXZ:PROC			; ioWnd::iwm_hide
EXTRN	?iwm_esc@ioWnd@@UAE_NXZ:PROC			; ioWnd::iwm_esc
EXTRN	?iwm_spacebar@ioWnd@@UAE_NXZ:PROC		; ioWnd::iwm_spacebar
EXTRN	?iwm_gototop@ioWnd@@UAEXXZ:PROC			; ioWnd::iwm_gototop
EXTRN	?iwm_dragenter@ioWnd@@UAE?AW4IWDropEffect@@PAVioDragItem@@ABVioMouse@@@Z:PROC ; ioWnd::iwm_dragenter
EXTRN	?iwm_dragover@ioWnd@@UAE?AW4IWDropEffect@@PAVioDragItem@@ABVioMouse@@@Z:PROC ; ioWnd::iwm_dragover
EXTRN	?iwm_dragleave@ioWnd@@UAEXXZ:PROC		; ioWnd::iwm_dragleave
EXTRN	?iwm_dropitem@ioWnd@@UAE_NPAVioDragItem@@ABVioMouse@@PAV1@@Z:PROC ; ioWnd::iwm_dropitem
EXTRN	?iwm_dropdone@ioWnd@@UAEXPAVioDragItem@@PAV1@_N@Z:PROC ; ioWnd::iwm_dropdone
EXTRN	?IsEXType@ioWnd@@UBE_NXZ:PROC			; ioWnd::IsEXType
EXTRN	?GetWndType@ioWnd@@UBEKXZ:PROC			; ioWnd::GetWndType
EXTRN	?RenderWnd@ioWnd@@UAEXXZ:PROC			; ioWnd::RenderWnd
EXTRN	?SetIDEX@ioWnd@@UAEXAAK_N@Z:PROC		; ioWnd::SetIDEX
EXTRN	?ParseXML@ioWnd@@UAEXAAVioXMLElement@@@Z:PROC	; ioWnd::ParseXML
EXTRN	?GetHeaderFileName@ioWnd@@UAEPBDXZ:PROC		; ioWnd::GetHeaderFileName
EXTRN	?GetTemplateName@ioWnd@@UAEPBDXZ:PROC		; ioWnd::GetTemplateName
EXTRN	?GetDefClassName@ioWnd@@UBEPBDXZ:PROC		; ioWnd::GetDefClassName
EXTRN	?_Clone@ioWnd@@UAEPAV1@XZ:PROC			; ioWnd::_Clone
EXTRN	?Copy@ioWnd@@UAEXPAV1@@Z:PROC			; ioWnd::Copy
EXTRN	?Save@ioWnd@@UAE_NAAVioXMLElement@@@Z:PROC	; ioWnd::Save
EXTRN	?SetSaveData@ioWnd@@UAEXAAVioXMLElement@@@Z:PROC ; ioWnd::SetSaveData
EXTRN	?SetPosX@ioWnd@@UAEXH@Z:PROC			; ioWnd::SetPosX
EXTRN	?SetPosY@ioWnd@@UAEXH@Z:PROC			; ioWnd::SetPosY
EXTRN	?SetWidth@ioWnd@@UAEXH@Z:PROC			; ioWnd::SetWidth
EXTRN	?SetHeight@ioWnd@@UAEXH@Z:PROC			; ioWnd::SetHeight
EXTRN	?GetNumFixedRenderFrame@ioWnd@@UBEHXZ:PROC	; ioWnd::GetNumFixedRenderFrame
EXTRN	?GetFixedRenderFrameType@ioWnd@@UAEPBDH@Z:PROC	; ioWnd::GetFixedRenderFrameType
EXTRN	?GetRenderFrame@ioWnd@@UAEPAPAVioUIRenderElement@@PBD@Z:PROC ; ioWnd::GetRenderFrame
EXTRN	?GetNumFixedRenderImage@ioWnd@@UBEHXZ:PROC	; ioWnd::GetNumFixedRenderImage
EXTRN	?GetFixedRenderImageType@ioWnd@@UAEPBDH@Z:PROC	; ioWnd::GetFixedRenderImageType
EXTRN	?GetRenderImage@ioWnd@@UAEPAPAVioUIRenderElement@@PBD@Z:PROC ; ioWnd::GetRenderImage
EXTRN	?AddEffect@ioWnd@@UAEXABVioHashString@@PAVioUI3DEffectRender@@@Z:PROC ; ioWnd::AddEffect
EXTRN	?GetEffect@ioWnd@@UAEPAVioUI3DEffectRender@@VioHashString@@@Z:PROC ; ioWnd::GetEffect
EXTRN	??_ETradeItemRegisterConfirmWnd@@UAEPAXI@Z:PROC	; TradeItemRegisterConfirmWnd::`vector deleting destructor'
;	COMDAT ??_R2ioWnd@@8
; File d:\lost saga for developer\youtube\tutorial\source\src\lsclient\gui\tradeitemregisterwnd.cpp
rdata$r	SEGMENT
??_R2ioWnd@@8 DD FLAT:??_R1A@?0A@EA@ioWnd@@8		; ioWnd::`RTTI Base Class Array'
rdata$r	ENDS
;	COMDAT ??_R3ioWnd@@8
rdata$r	SEGMENT
??_R3ioWnd@@8 DD 00H					; ioWnd::`RTTI Class Hierarchy Descriptor'
	DD	00H
	DD	01H
	DD	FLAT:??_R2ioWnd@@8
rdata$r	ENDS
;	COMDAT ??_R0?AVioWnd@@@8
_DATA	SEGMENT
??_R0?AVioWnd@@@8 DD FLAT:??_7type_info@@6B@		; ioWnd `RTTI Type Descriptor'
	DD	00H
	DB	'.?AVioWnd@@', 00H
_DATA	ENDS
;	COMDAT ??_R1A@?0A@EA@ioWnd@@8
rdata$r	SEGMENT
??_R1A@?0A@EA@ioWnd@@8 DD FLAT:??_R0?AVioWnd@@@8	; ioWnd::`RTTI Base Class Descriptor at (0,-1,0,64)'
	DD	00H
	DD	00H
	DD	0ffffffffH
	DD	00H
	DD	040H
	DD	FLAT:??_R3ioWnd@@8
rdata$r	ENDS
;	COMDAT ??_R2ioMovingWnd@@8
rdata$r	SEGMENT
??_R2ioMovingWnd@@8 DD FLAT:??_R1A@?0A@EA@ioMovingWnd@@8 ; ioMovingWnd::`RTTI Base Class Array'
	DD	FLAT:??_R1A@?0A@EA@ioWnd@@8
rdata$r	ENDS
;	COMDAT ??_R3ioMovingWnd@@8
rdata$r	SEGMENT
??_R3ioMovingWnd@@8 DD 00H				; ioMovingWnd::`RTTI Class Hierarchy Descriptor'
	DD	00H
	DD	02H
	DD	FLAT:??_R2ioMovingWnd@@8
rdata$r	ENDS
;	COMDAT ??_R0?AVioMovingWnd@@@8
_DATA	SEGMENT
??_R0?AVioMovingWnd@@@8 DD FLAT:??_7type_info@@6B@	; ioMovingWnd `RTTI Type Descriptor'
	DD	00H
	DB	'.?AVioMovingWnd@@', 00H
_DATA	ENDS
;	COMDAT ??_R1A@?0A@EA@ioMovingWnd@@8
rdata$r	SEGMENT
??_R1A@?0A@EA@ioMovingWnd@@8 DD FLAT:??_R0?AVioMovingWnd@@@8 ; ioMovingWnd::`RTTI Base Class Descriptor at (0,-1,0,64)'
	DD	01H
	DD	00H
	DD	0ffffffffH
	DD	00H
	DD	040H
	DD	FLAT:??_R3ioMovingWnd@@8
rdata$r	ENDS
;	COMDAT ??_R1A@?0A@EA@TradeItemRegisterConfirmWnd@@8
rdata$r	SEGMENT
??_R1A@?0A@EA@TradeItemRegisterConfirmWnd@@8 DD FLAT:??_R0?AVTradeItemRegisterConfirmWnd@@@8 ; TradeItemRegisterConfirmWnd::`RTTI Base Class Descriptor at (0,-1,0,64)'
	DD	02H
	DD	00H
	DD	0ffffffffH
	DD	00H
	DD	040H
	DD	FLAT:??_R3TradeItemRegisterConfirmWnd@@8
rdata$r	ENDS
;	COMDAT ??_R2TradeItemRegisterConfirmWnd@@8
rdata$r	SEGMENT
??_R2TradeItemRegisterConfirmWnd@@8 DD FLAT:??_R1A@?0A@EA@TradeItemRegisterConfirmWnd@@8 ; TradeItemRegisterConfirmWnd::`RTTI Base Class Array'
	DD	FLAT:??_R1A@?0A@EA@ioMovingWnd@@8
	DD	FLAT:??_R1A@?0A@EA@ioWnd@@8
rdata$r	ENDS
;	COMDAT ??_R3TradeItemRegisterConfirmWnd@@8
rdata$r	SEGMENT
??_R3TradeItemRegisterConfirmWnd@@8 DD 00H		; TradeItemRegisterConfirmWnd::`RTTI Class Hierarchy Descriptor'
	DD	00H
	DD	03H
	DD	FLAT:??_R2TradeItemRegisterConfirmWnd@@8
rdata$r	ENDS
;	COMDAT ??_R0?AVTradeItemRegisterConfirmWnd@@@8
_DATA	SEGMENT
??_R0?AVTradeItemRegisterConfirmWnd@@@8 DD FLAT:??_7type_info@@6B@ ; TradeItemRegisterConfirmWnd `RTTI Type Descriptor'
	DD	00H
	DB	'.?AVTradeItemRegisterConfirmWnd@@', 00H
_DATA	ENDS
;	COMDAT ??_R4TradeItemRegisterConfirmWnd@@6B@
rdata$r	SEGMENT
??_R4TradeItemRegisterConfirmWnd@@6B@ DD 00H		; TradeItemRegisterConfirmWnd::`RTTI Complete Object Locator'
	DD	00H
	DD	00H
	DD	FLAT:??_R0?AVTradeItemRegisterConfirmWnd@@@8
	DD	FLAT:??_R3TradeItemRegisterConfirmWnd@@8
rdata$r	ENDS
;	COMDAT ??_7TradeItemRegisterConfirmWnd@@6B@
CONST	SEGMENT
??_7TradeItemRegisterConfirmWnd@@6B@ DD FLAT:??_R4TradeItemRegisterConfirmWnd@@6B@ ; TradeItemRegisterConfirmWnd::`vftable'
	DD	FLAT:?AddRenderFrame@TradeItemRegisterConfirmWnd@@MAEXABVioHashString@@PAVioUIRenderFrame@@@Z
	DD	FLAT:?AddRenderImage@TradeItemRegisterConfirmWnd@@MAEXABVioHashString@@PAVioUIRenderImage@@@Z
	DD	FLAT:?AddTooltipHelp@ioWnd@@UAEXABVioHashString@@00@Z
	DD	FLAT:?ParseExtraInfo@ioWnd@@UAEXAAVioXMLElement@@@Z
	DD	FLAT:?AddNamedRenderImage@ioWnd@@UAEXABVioHashString@@PAVioUIRenderImage@@@Z
	DD	FLAT:?RemoveNamedRenderImage@ioWnd@@UAEXABVioHashString@@@Z
	DD	FLAT:?GetNamedRenderImage@ioWnd@@UBEPAVioUIRenderImage@@ABVioHashString@@@Z
	DD	FLAT:?SetWindowAlpha@ioWnd@@UAEXH@Z
	DD	FLAT:?SetActive@ioWnd@@UAEXXZ
	DD	FLAT:?SetInActive@ioWnd@@UAEXXZ
	DD	FLAT:?ClearElementImageList@ioWnd@@UAEXXZ
	DD	FLAT:?SetSize@ioWnd@@UAEXHH@Z
	DD	FLAT:?SetPositionToDefault@ioMovingWnd@@UAEXHH_N0@Z
	DD	FLAT:?IsNeedProcess@ioWnd@@UBE_NXZ
	DD	FLAT:?IsCanMouseReaction@ioWnd@@UBE_NXZ
	DD	FLAT:?AddChild@ioWnd@@UAEXPAV1@@Z
	DD	FLAT:?DeleteChild@ioWnd@@UAEXK@Z
	DD	FLAT:?DeleteAllChild@ioWnd@@UAEXXZ
	DD	FLAT:?OnRenderShowAndHide@ioWnd@@MAE_NXZ
	DD	FLAT:?OnRenderShowAndHideByDefault@ioWnd@@MAE_NK@Z
	DD	FLAT:?OnRenderShowAndHideByTop@ioWnd@@MAE_NK@Z
	DD	FLAT:?OnRenderShowAndHideByDown@ioWnd@@MAE_NK@Z
	DD	FLAT:?OnRender@TradeItemRegisterConfirmWnd@@MAEXXZ
	DD	FLAT:?OnRenderAfterChild@ioWnd@@MAEXXZ
	DD	FLAT:?OnProcess@ioWnd@@MAEXM@Z
	DD	FLAT:?OnMouseProcess@ioMovingWnd@@MAEXABVioMouse@@@Z
	DD	FLAT:?CheckFrameReSize@ioWnd@@MAEXHHHH@Z
	DD	FLAT:?RenderImageList@ioWnd@@MAEXHHW4UIRenderType@@@Z
	DD	FLAT:?iwm_create@ioWnd@@UAEXXZ
	DD	FLAT:?iwm_destroy@ioWnd@@UAEXXZ
	DD	FLAT:?iwm_lbuttondown@ioMovingWnd@@UAEXABVioMouse@@@Z
	DD	FLAT:?iwm_lbuttonup@ioMovingWnd@@UAEXABVioMouse@@@Z
	DD	FLAT:?iwm_lbuttonDBLCLK@ioWnd@@UAEXABVioMouse@@@Z
	DD	FLAT:?iwm_rbuttondown@ioWnd@@UAEXABVioMouse@@@Z
	DD	FLAT:?iwm_rbuttonup@ioWnd@@UAEXABVioMouse@@@Z
	DD	FLAT:?iwm_command@TradeItemRegisterConfirmWnd@@UAEXPAVioWnd@@HK@Z
	DD	FLAT:?iwm_mouseover@ioWnd@@UAEXABVioMouse@@@Z
	DD	FLAT:?iwm_mousemove@ioWnd@@UAEXABVioMouse@@@Z
	DD	FLAT:?iwm_mouseleave@ioWnd@@UAEXABVioMouse@@@Z
	DD	FLAT:?iwm_vscroll@ioWnd@@UAEXKH@Z
	DD	FLAT:?iwm_wheel@ioWnd@@UAEXH@Z
	DD	FLAT:?iwm_show@ioWnd@@UAEXXZ
	DD	FLAT:?iwm_hide@ioWnd@@UAEXXZ
	DD	FLAT:?iwm_esc@ioWnd@@UAE_NXZ
	DD	FLAT:?iwm_spacebar@ioWnd@@UAE_NXZ
	DD	FLAT:?iwm_gototop@ioWnd@@UAEXXZ
	DD	FLAT:?iwm_dragenter@ioWnd@@UAE?AW4IWDropEffect@@PAVioDragItem@@ABVioMouse@@@Z
	DD	FLAT:?iwm_dragover@ioWnd@@UAE?AW4IWDropEffect@@PAVioDragItem@@ABVioMouse@@@Z
	DD	FLAT:?iwm_dragleave@ioWnd@@UAEXXZ
	DD	FLAT:?iwm_dropitem@ioWnd@@UAE_NPAVioDragItem@@ABVioMouse@@PAV1@@Z
	DD	FLAT:?iwm_dropdone@ioWnd@@UAEXPAVioDragItem@@PAV1@_N@Z
	DD	FLAT:?IsEXType@ioWnd@@UBE_NXZ
	DD	FLAT:?GetWndType@ioWnd@@UBEKXZ
	DD	FLAT:?RenderWnd@ioWnd@@UAEXXZ
	DD	FLAT:?SetIDEX@ioWnd@@UAEXAAK_N@Z
	DD	FLAT:?ParseXML@ioWnd@@UAEXAAVioXMLElement@@@Z
	DD	FLAT:?GetHeaderFileName@ioWnd@@UAEPBDXZ
	DD	FLAT:?GetTemplateName@ioWnd@@UAEPBDXZ
	DD	FLAT:?GetDefClassName@ioWnd@@UBEPBDXZ
	DD	FLAT:?_Clone@ioWnd@@UAEPAV1@XZ
	DD	FLAT:?Copy@ioWnd@@UAEXPAV1@@Z
	DD	FLAT:?Save@ioWnd@@UAE_NAAVioXMLElement@@@Z
	DD	FLAT:?SetSaveData@ioWnd@@UAEXAAVioXMLElement@@@Z
	DD	FLAT:?SetPosX@ioWnd@@UAEXH@Z
	DD	FLAT:?SetPosY@ioWnd@@UAEXH@Z
	DD	FLAT:?SetWidth@ioWnd@@UAEXH@Z
	DD	FLAT:?SetHeight@ioWnd@@UAEXH@Z
	DD	FLAT:?GetNumFixedRenderFrame@ioWnd@@UBEHXZ
	DD	FLAT:?GetFixedRenderFrameType@ioWnd@@UAEPBDH@Z
	DD	FLAT:?GetRenderFrame@ioWnd@@UAEPAPAVioUIRenderElement@@PBD@Z
	DD	FLAT:?GetNumFixedRenderImage@ioWnd@@UBEHXZ
	DD	FLAT:?GetFixedRenderImageType@ioWnd@@UAEPBDH@Z
	DD	FLAT:?GetRenderImage@ioWnd@@UAEPAPAVioUIRenderElement@@PBD@Z
	DD	FLAT:?AddEffect@ioWnd@@UAEXABVioHashString@@PAVioUI3DEffectRender@@@Z
	DD	FLAT:?GetEffect@ioWnd@@UAEPAVioUI3DEffectRender@@VioHashString@@@Z
	DD	FLAT:??_ETradeItemRegisterConfirmWnd@@UAEPAXI@Z
CONST	ENDS
;	COMDAT xdata$x
xdata$x	SEGMENT
__unwindtable$??1TradeItemRegisterConfirmWnd@@UAE@XZ DD 0ffffffffH
	DD	FLAT:__unwindfunclet$??1TradeItemRegisterConfirmWnd@@UAE@XZ$0
	DD	00H
	DD	FLAT:__unwindfunclet$??1TradeItemRegisterConfirmWnd@@UAE@XZ$1
__ehfuncinfo$??1TradeItemRegisterConfirmWnd@@UAE@XZ DD 019930522H
	DD	02H
	DD	FLAT:__unwindtable$??1TradeItemRegisterConfirmWnd@@UAE@XZ
	DD	2 DUP(00H)
	DD	2 DUP(00H)
	DD	00H
	DD	01H
; Function compile flags: /Ogsp
xdata$x	ENDS
;	COMDAT ??1TradeItemRegisterConfirmWnd@@UAE@XZ
_TEXT	SEGMENT
_this$ = -16						; size = 4
__$EHRec$ = -12						; size = 12
??1TradeItemRegisterConfirmWnd@@UAE@XZ PROC		; TradeItemRegisterConfirmWnd::~TradeItemRegisterConfirmWnd, COMDAT
; _this$ = ecx

; 61   : {

  00000	6a 04		 push	 4
  00002	b8 00 00 00 00	 mov	 eax, __ehhandler$??1TradeItemRegisterConfirmWnd@@UAE@XZ
  00007	e8 00 00 00 00	 call	 __EH_prolog3
  0000c	8b f1		 mov	 esi, ecx
  0000e	89 75 f0	 mov	 DWORD PTR _this$[ebp], esi
  00011	c7 06 00 00 00
	00		 mov	 DWORD PTR [esi], OFFSET ??_7TradeItemRegisterConfirmWnd@@6B@

; 62   : 	SAFEDELETE(m_pEditFrm);

  00017	8b 8e 10 02 00
	00		 mov	 ecx, DWORD PTR [esi+528]
  0001d	c7 45 fc 01 00
	00 00		 mov	 DWORD PTR __$EHRec$[ebp+8], 1
  00024	85 c9		 test	 ecx, ecx
  00026	74 0e		 je	 SHORT $LN2@TradeItemR
  00028	8b 01		 mov	 eax, DWORD PTR [ecx]
  0002a	6a 01		 push	 1
  0002c	ff 50 40	 call	 DWORD PTR [eax+64]
  0002f	83 a6 10 02 00
	00 00		 and	 DWORD PTR [esi+528], 0
$LN2@TradeItemR:

; 63   : 	SAFEDELETE(m_pTexFrm);

  00036	8b 8e 14 02 00
	00		 mov	 ecx, DWORD PTR [esi+532]
  0003c	85 c9		 test	 ecx, ecx
  0003e	74 0e		 je	 SHORT $LN1@TradeItemR
  00040	8b 01		 mov	 eax, DWORD PTR [ecx]
  00042	6a 01		 push	 1
  00044	ff 50 40	 call	 DWORD PTR [eax+64]
  00047	83 a6 14 02 00
	00 00		 and	 DWORD PTR [esi+532], 0
$LN1@TradeItemR:

; 64   : }

  0004e	68 00 00 00 00	 push	 OFFSET ??1ioComplexStringPrinter@@QAE@XZ ; ioComplexStringPrinter::~ioComplexStringPrinter
  00053	6a 03		 push	 3
  00055	6a 20		 push	 32			; 00000020H
  00057	8d 86 ac 01 00
	00		 lea	 eax, DWORD PTR [esi+428]
  0005d	50		 push	 eax
  0005e	c6 45 fc 00	 mov	 BYTE PTR __$EHRec$[ebp+8], 0
  00062	e8 00 00 00 00	 call	 ??_M@YGXPAXIHP6EX0@Z@Z
  00067	83 4d fc ff	 or	 DWORD PTR __$EHRec$[ebp+8], -1
  0006b	8b ce		 mov	 ecx, esi
  0006d	ff 15 00 00 00
	00		 call	 DWORD PTR __imp_??1ioMovingWnd@@UAE@XZ
  00073	e8 00 00 00 00	 call	 __EH_epilog3
  00078	c3		 ret	 0
_TEXT	ENDS
;	COMDAT text$x
text$x	SEGMENT
__unwindfunclet$??1TradeItemRegisterConfirmWnd@@UAE@XZ$0:
  00000	8b 4d f0	 mov	 ecx, DWORD PTR _this$[ebp]
  00003	ff 25 00 00 00
	00		 jmp	 DWORD PTR __imp_??1ioMovingWnd@@UAE@XZ
__unwindfunclet$??1TradeItemRegisterConfirmWnd@@UAE@XZ$1:
  00009	68 00 00 00 00	 push	 OFFSET ??1ioComplexStringPrinter@@QAE@XZ ; ioComplexStringPrinter::~ioComplexStringPrinter
  0000e	6a 03		 push	 3
  00010	6a 20		 push	 32			; 00000020H
  00012	8b 45 f0	 mov	 eax, DWORD PTR _this$[ebp]
  00015	05 ac 01 00 00	 add	 eax, 428		; 000001acH
  0001a	50		 push	 eax
  0001b	e8 00 00 00 00	 call	 ??_M@YGXPAXIHP6EX0@Z@Z
  00020	c3		 ret	 0
__ehhandler$??1TradeItemRegisterConfirmWnd@@UAE@XZ:
  00021	8b 54 24 08	 mov	 edx, DWORD PTR [esp+8]
  00025	8d 42 0c	 lea	 eax, DWORD PTR [edx+12]
  00028	8b 4a ec	 mov	 ecx, DWORD PTR [edx-20]
  0002b	33 c8		 xor	 ecx, eax
  0002d	e8 00 00 00 00	 call	 @__security_check_cookie@4
  00032	b8 00 00 00 00	 mov	 eax, OFFSET __ehfuncinfo$??1TradeItemRegisterConfirmWnd@@UAE@XZ
  00037	e9 00 00 00 00	 jmp	 ___CxxFrameHandler3
text$x	ENDS
??1TradeItemRegisterConfirmWnd@@UAE@XZ ENDP		; TradeItemRegisterConfirmWnd::~TradeItemRegisterConfirmWnd
PUBLIC	?ClearDesc@TradeItemRegisterConfirmWnd@@IAEXXZ	; TradeItemRegisterConfirmWnd::ClearDesc
EXTRN	?ClearList@ioComplexStringPrinter@@QAEXXZ:PROC	; ioComplexStringPrinter::ClearList
; Function compile flags: /Ogsp
;	COMDAT ?ClearDesc@TradeItemRegisterConfirmWnd@@IAEXXZ
_TEXT	SEGMENT
?ClearDesc@TradeItemRegisterConfirmWnd@@IAEXXZ PROC	; TradeItemRegisterConfirmWnd::ClearDesc, COMDAT
; _this$ = ecx

; 67   : {

  00000	56		 push	 esi
  00001	57		 push	 edi

; 68   : 	for(int i = 0; i < MAX_DESC; i++)

  00002	6a 03		 push	 3
  00004	8d b1 ac 01 00
	00		 lea	 esi, DWORD PTR [ecx+428]
  0000a	5f		 pop	 edi
$LL3@ClearDesc:

; 69   : 	{
; 70   : 		m_szDescArray[i].ClearList();

  0000b	8b ce		 mov	 ecx, esi
  0000d	e8 00 00 00 00	 call	 ?ClearList@ioComplexStringPrinter@@QAEXXZ ; ioComplexStringPrinter::ClearList
  00012	83 c6 20	 add	 esi, 32			; 00000020H
  00015	4f		 dec	 edi
  00016	75 f3		 jne	 SHORT $LL3@ClearDesc

; 71   : 	}
; 72   : }

  00018	5f		 pop	 edi
  00019	5e		 pop	 esi
  0001a	c3		 ret	 0
?ClearDesc@TradeItemRegisterConfirmWnd@@IAEXXZ ENDP	; TradeItemRegisterConfirmWnd::ClearDesc
_TEXT	ENDS
EXTRN	__imp_?AddRenderImage@ioWnd@@UAEXABVioHashString@@PAVioUIRenderImage@@@Z:PROC
; Function compile flags: /Ogsp
;	COMDAT ?AddRenderImage@TradeItemRegisterConfirmWnd@@MAEXABVioHashString@@PAVioUIRenderImage@@@Z
_TEXT	SEGMENT
_szType$ = 8						; size = 4
_pImage$ = 12						; size = 4
?AddRenderImage@TradeItemRegisterConfirmWnd@@MAEXABVioHashString@@PAVioUIRenderImage@@@Z PROC ; TradeItemRegisterConfirmWnd::AddRenderImage, COMDAT
; _this$ = ecx

; 93   : {

  00000	55		 push	 ebp
  00001	8b ec		 mov	 ebp, esp

; 95   : }

  00003	5d		 pop	 ebp

; 94   : 	ioMovingWnd::AddRenderImage( szType, pImage );	

  00004	ff 25 00 00 00
	00		 jmp	 DWORD PTR __imp_?AddRenderImage@ioWnd@@UAEXABVioHashString@@PAVioUIRenderImage@@@Z
?AddRenderImage@TradeItemRegisterConfirmWnd@@MAEXABVioHashString@@PAVioUIRenderImage@@@Z ENDP ; TradeItemRegisterConfirmWnd::AddRenderImage
_TEXT	ENDS
PUBLIC	??1EXTRAITEMSLOT@@QAE@XZ			; EXTRAITEMSLOT::~EXTRAITEMSLOT
EXTRN	__imp_??1ioHashString@@QAE@XZ:PROC
;	COMDAT xdata$x
xdata$x	SEGMENT
__unwindtable$??1EXTRAITEMSLOT@@QAE@XZ DD 0ffffffffH
	DD	FLAT:__unwindfunclet$??1EXTRAITEMSLOT@@QAE@XZ$0
__ehfuncinfo$??1EXTRAITEMSLOT@@QAE@XZ DD 019930522H
	DD	01H
	DD	FLAT:__unwindtable$??1EXTRAITEMSLOT@@QAE@XZ
	DD	2 DUP(00H)
	DD	2 DUP(00H)
	DD	00H
	DD	01H
; Function compile flags: /Ogsp
xdata$x	ENDS
;	COMDAT ??1EXTRAITEMSLOT@@QAE@XZ
_TEXT	SEGMENT
_this$ = -16						; size = 4
__$EHRec$ = -12						; size = 12
??1EXTRAITEMSLOT@@QAE@XZ PROC				; EXTRAITEMSLOT::~EXTRAITEMSLOT, COMDAT
; _this$ = ecx
  00000	6a 04		 push	 4
  00002	b8 00 00 00 00	 mov	 eax, __ehhandler$??1EXTRAITEMSLOT@@QAE@XZ
  00007	e8 00 00 00 00	 call	 __EH_prolog3
  0000c	8b f9		 mov	 edi, ecx
  0000e	89 7d f0	 mov	 DWORD PTR _this$[ebp], edi
  00011	8b 35 00 00 00
	00		 mov	 esi, DWORD PTR __imp_??1ioHashString@@QAE@XZ
  00017	83 65 fc 00	 and	 DWORD PTR __$EHRec$[ebp+8], 0
  0001b	8d 4f 38	 lea	 ecx, DWORD PTR [edi+56]
  0001e	ff d6		 call	 esi
  00020	83 4d fc ff	 or	 DWORD PTR __$EHRec$[ebp+8], -1
  00024	8d 4f 28	 lea	 ecx, DWORD PTR [edi+40]
  00027	ff d6		 call	 esi
  00029	e8 00 00 00 00	 call	 __EH_epilog3
  0002e	c3		 ret	 0
_TEXT	ENDS
;	COMDAT text$x
text$x	SEGMENT
__unwindfunclet$??1EXTRAITEMSLOT@@QAE@XZ$0:
  00000	8b 4d f0	 mov	 ecx, DWORD PTR _this$[ebp]
  00003	83 c1 28	 add	 ecx, 40			; 00000028H
  00006	ff 25 00 00 00
	00		 jmp	 DWORD PTR __imp_??1ioHashString@@QAE@XZ
__ehhandler$??1EXTRAITEMSLOT@@QAE@XZ:
  0000c	8b 54 24 08	 mov	 edx, DWORD PTR [esp+8]
  00010	8d 42 0c	 lea	 eax, DWORD PTR [edx+12]
  00013	8b 4a ec	 mov	 ecx, DWORD PTR [edx-20]
  00016	33 c8		 xor	 ecx, eax
  00018	e8 00 00 00 00	 call	 @__security_check_cookie@4
  0001d	b8 00 00 00 00	 mov	 eax, OFFSET __ehfuncinfo$??1EXTRAITEMSLOT@@QAE@XZ
  00022	e9 00 00 00 00	 jmp	 ___CxxFrameHandler3
text$x	ENDS
??1EXTRAITEMSLOT@@QAE@XZ ENDP				; EXTRAITEMSLOT::~EXTRAITEMSLOT
PUBLIC	?SetPriceEditFocus@TradeItemRegisterConfirmWnd@@IAEXXZ ; TradeItemRegisterConfirmWnd::SetPriceEditFocus
EXTRN	__imp_?ClearString@ioEdit@@QAEXXZ:PROC
EXTRN	__imp_?FindChildWnd@ioWnd@@QAEPAV1@K@Z:PROC
; Function compile flags: /Ogsp
;	COMDAT ?SetPriceEditFocus@TradeItemRegisterConfirmWnd@@IAEXXZ
_TEXT	SEGMENT
?SetPriceEditFocus@TradeItemRegisterConfirmWnd@@IAEXXZ PROC ; TradeItemRegisterConfirmWnd::SetPriceEditFocus, COMDAT
; _this$ = ecx

; 340  : {

  00000	56		 push	 esi

; 341  : 	ioEdit *pEdit = (ioEdit*)FindChildWnd( ID_PRICE_EDIT );

  00001	6a 05		 push	 5
  00003	ff 15 00 00 00
	00		 call	 DWORD PTR __imp_?FindChildWnd@ioWnd@@QAEPAV1@K@Z
  00009	8b f0		 mov	 esi, eax

; 342  : 	if( pEdit )

  0000b	85 f6		 test	 esi, esi
  0000d	74 13		 je	 SHORT $LN1@SetPriceEd

; 343  : 	{
; 344  : 		pEdit->ClearString();

  0000f	8b ce		 mov	 ecx, esi
  00011	ff 15 00 00 00
	00		 call	 DWORD PTR __imp_?ClearString@ioEdit@@QAEXXZ

; 345  : 		pEdit->SetKeyFocus();

  00017	8b 06		 mov	 eax, DWORD PTR [esi]
  00019	8b ce		 mov	 ecx, esi
  0001b	5e		 pop	 esi
  0001c	ff a0 30 01 00
	00		 jmp	 DWORD PTR [eax+304]
$LN1@SetPriceEd:
  00022	5e		 pop	 esi

; 346  : 	}
; 347  : }

  00023	c3		 ret	 0
?SetPriceEditFocus@TradeItemRegisterConfirmWnd@@IAEXXZ ENDP ; TradeItemRegisterConfirmWnd::SetPriceEditFocus
_TEXT	ENDS
PUBLIC	??_7TradeItemRegisterResultWnd@@6B@		; TradeItemRegisterResultWnd::`vftable'
PUBLIC	??0TradeItemRegisterResultWnd@@QAE@XZ		; TradeItemRegisterResultWnd::TradeItemRegisterResultWnd
PUBLIC	??_R4TradeItemRegisterResultWnd@@6B@		; TradeItemRegisterResultWnd::`RTTI Complete Object Locator'
PUBLIC	??_R0?AVTradeItemRegisterResultWnd@@@8		; TradeItemRegisterResultWnd `RTTI Type Descriptor'
PUBLIC	??_R3TradeItemRegisterResultWnd@@8		; TradeItemRegisterResultWnd::`RTTI Class Hierarchy Descriptor'
PUBLIC	??_R2TradeItemRegisterResultWnd@@8		; TradeItemRegisterResultWnd::`RTTI Base Class Array'
PUBLIC	??_R1A@?0A@EA@TradeItemRegisterResultWnd@@8	; TradeItemRegisterResultWnd::`RTTI Base Class Descriptor at (0,-1,0,64)'
PUBLIC	?AddRenderImage@TradeItemRegisterResultWnd@@MAEXABVioHashString@@PAVioUIRenderImage@@@Z ; TradeItemRegisterResultWnd::AddRenderImage
PUBLIC	?OnRender@TradeItemRegisterResultWnd@@MAEXXZ	; TradeItemRegisterResultWnd::OnRender
PUBLIC	?iwm_command@TradeItemRegisterResultWnd@@UAEXPAVioWnd@@HK@Z ; TradeItemRegisterResultWnd::iwm_command
EXTRN	__imp_??0ioHashString@@QAE@XZ:PROC
EXTRN	__imp_??0ioMovingWnd@@QAE@XZ:PROC
EXTRN	?AddRenderFrame@ioWnd@@UAEXABVioHashString@@PAVioUIRenderFrame@@@Z:PROC ; ioWnd::AddRenderFrame
EXTRN	??_ETradeItemRegisterResultWnd@@UAEPAXI@Z:PROC	; TradeItemRegisterResultWnd::`vector deleting destructor'
;	COMDAT ??_R1A@?0A@EA@TradeItemRegisterResultWnd@@8
rdata$r	SEGMENT
??_R1A@?0A@EA@TradeItemRegisterResultWnd@@8 DD FLAT:??_R0?AVTradeItemRegisterResultWnd@@@8 ; TradeItemRegisterResultWnd::`RTTI Base Class Descriptor at (0,-1,0,64)'
	DD	02H
	DD	00H
	DD	0ffffffffH
	DD	00H
	DD	040H
	DD	FLAT:??_R3TradeItemRegisterResultWnd@@8
rdata$r	ENDS
;	COMDAT ??_R2TradeItemRegisterResultWnd@@8
rdata$r	SEGMENT
??_R2TradeItemRegisterResultWnd@@8 DD FLAT:??_R1A@?0A@EA@TradeItemRegisterResultWnd@@8 ; TradeItemRegisterResultWnd::`RTTI Base Class Array'
	DD	FLAT:??_R1A@?0A@EA@ioMovingWnd@@8
	DD	FLAT:??_R1A@?0A@EA@ioWnd@@8
rdata$r	ENDS
;	COMDAT ??_R3TradeItemRegisterResultWnd@@8
rdata$r	SEGMENT
??_R3TradeItemRegisterResultWnd@@8 DD 00H		; TradeItemRegisterResultWnd::`RTTI Class Hierarchy Descriptor'
	DD	00H
	DD	03H
	DD	FLAT:??_R2TradeItemRegisterResultWnd@@8
rdata$r	ENDS
;	COMDAT ??_R0?AVTradeItemRegisterResultWnd@@@8
_DATA	SEGMENT
??_R0?AVTradeItemRegisterResultWnd@@@8 DD FLAT:??_7type_info@@6B@ ; TradeItemRegisterResultWnd `RTTI Type Descriptor'
	DD	00H
	DB	'.?AVTradeItemRegisterResultWnd@@', 00H
_DATA	ENDS
;	COMDAT ??_R4TradeItemRegisterResultWnd@@6B@
rdata$r	SEGMENT
??_R4TradeItemRegisterResultWnd@@6B@ DD 00H		; TradeItemRegisterResultWnd::`RTTI Complete Object Locator'
	DD	00H
	DD	00H
	DD	FLAT:??_R0?AVTradeItemRegisterResultWnd@@@8
	DD	FLAT:??_R3TradeItemRegisterResultWnd@@8
rdata$r	ENDS
;	COMDAT ??_7TradeItemRegisterResultWnd@@6B@
CONST	SEGMENT
??_7TradeItemRegisterResultWnd@@6B@ DD FLAT:??_R4TradeItemRegisterResultWnd@@6B@ ; TradeItemRegisterResultWnd::`vftable'
	DD	FLAT:?AddRenderFrame@ioWnd@@UAEXABVioHashString@@PAVioUIRenderFrame@@@Z
	DD	FLAT:?AddRenderImage@TradeItemRegisterResultWnd@@MAEXABVioHashString@@PAVioUIRenderImage@@@Z
	DD	FLAT:?AddTooltipHelp@ioWnd@@UAEXABVioHashString@@00@Z
	DD	FLAT:?ParseExtraInfo@ioWnd@@UAEXAAVioXMLElement@@@Z
	DD	FLAT:?AddNamedRenderImage@ioWnd@@UAEXABVioHashString@@PAVioUIRenderImage@@@Z
	DD	FLAT:?RemoveNamedRenderImage@ioWnd@@UAEXABVioHashString@@@Z
	DD	FLAT:?GetNamedRenderImage@ioWnd@@UBEPAVioUIRenderImage@@ABVioHashString@@@Z
	DD	FLAT:?SetWindowAlpha@ioWnd@@UAEXH@Z
	DD	FLAT:?SetActive@ioWnd@@UAEXXZ
	DD	FLAT:?SetInActive@ioWnd@@UAEXXZ
	DD	FLAT:?ClearElementImageList@ioWnd@@UAEXXZ
	DD	FLAT:?SetSize@ioWnd@@UAEXHH@Z
	DD	FLAT:?SetPositionToDefault@ioMovingWnd@@UAEXHH_N0@Z
	DD	FLAT:?IsNeedProcess@ioWnd@@UBE_NXZ
	DD	FLAT:?IsCanMouseReaction@ioWnd@@UBE_NXZ
	DD	FLAT:?AddChild@ioWnd@@UAEXPAV1@@Z
	DD	FLAT:?DeleteChild@ioWnd@@UAEXK@Z
	DD	FLAT:?DeleteAllChild@ioWnd@@UAEXXZ
	DD	FLAT:?OnRenderShowAndHide@ioWnd@@MAE_NXZ
	DD	FLAT:?OnRenderShowAndHideByDefault@ioWnd@@MAE_NK@Z
	DD	FLAT:?OnRenderShowAndHideByTop@ioWnd@@MAE_NK@Z
	DD	FLAT:?OnRenderShowAndHideByDown@ioWnd@@MAE_NK@Z
	DD	FLAT:?OnRender@TradeItemRegisterResultWnd@@MAEXXZ
	DD	FLAT:?OnRenderAfterChild@ioWnd@@MAEXXZ
	DD	FLAT:?OnProcess@ioWnd@@MAEXM@Z
	DD	FLAT:?OnMouseProcess@ioMovingWnd@@MAEXABVioMouse@@@Z
	DD	FLAT:?CheckFrameReSize@ioWnd@@MAEXHHHH@Z
	DD	FLAT:?RenderImageList@ioWnd@@MAEXHHW4UIRenderType@@@Z
	DD	FLAT:?iwm_create@ioWnd@@UAEXXZ
	DD	FLAT:?iwm_destroy@ioWnd@@UAEXXZ
	DD	FLAT:?iwm_lbuttondown@ioMovingWnd@@UAEXABVioMouse@@@Z
	DD	FLAT:?iwm_lbuttonup@ioMovingWnd@@UAEXABVioMouse@@@Z
	DD	FLAT:?iwm_lbuttonDBLCLK@ioWnd@@UAEXABVioMouse@@@Z
	DD	FLAT:?iwm_rbuttondown@ioWnd@@UAEXABVioMouse@@@Z
	DD	FLAT:?iwm_rbuttonup@ioWnd@@UAEXABVioMouse@@@Z
	DD	FLAT:?iwm_command@TradeItemRegisterResultWnd@@UAEXPAVioWnd@@HK@Z
	DD	FLAT:?iwm_mouseover@ioWnd@@UAEXABVioMouse@@@Z
	DD	FLAT:?iwm_mousemove@ioWnd@@UAEXABVioMouse@@@Z
	DD	FLAT:?iwm_mouseleave@ioWnd@@UAEXABVioMouse@@@Z
	DD	FLAT:?iwm_vscroll@ioWnd@@UAEXKH@Z
	DD	FLAT:?iwm_wheel@ioWnd@@UAEXH@Z
	DD	FLAT:?iwm_show@ioWnd@@UAEXXZ
	DD	FLAT:?iwm_hide@ioWnd@@UAEXXZ
	DD	FLAT:?iwm_esc@ioWnd@@UAE_NXZ
	DD	FLAT:?iwm_spacebar@ioWnd@@UAE_NXZ
	DD	FLAT:?iwm_gototop@ioWnd@@UAEXXZ
	DD	FLAT:?iwm_dragenter@ioWnd@@UAE?AW4IWDropEffect@@PAVioDragItem@@ABVioMouse@@@Z
	DD	FLAT:?iwm_dragover@ioWnd@@UAE?AW4IWDropEffect@@PAVioDragItem@@ABVioMouse@@@Z
	DD	FLAT:?iwm_dragleave@ioWnd@@UAEXXZ
	DD	FLAT:?iwm_dropitem@ioWnd@@UAE_NPAVioDragItem@@ABVioMouse@@PAV1@@Z
	DD	FLAT:?iwm_dropdone@ioWnd@@UAEXPAVioDragItem@@PAV1@_N@Z
	DD	FLAT:?IsEXType@ioWnd@@UBE_NXZ
	DD	FLAT:?GetWndType@ioWnd@@UBEKXZ
	DD	FLAT:?RenderWnd@ioWnd@@UAEXXZ
	DD	FLAT:?SetIDEX@ioWnd@@UAEXAAK_N@Z
	DD	FLAT:?ParseXML@ioWnd@@UAEXAAVioXMLElement@@@Z
	DD	FLAT:?GetHeaderFileName@ioWnd@@UAEPBDXZ
	DD	FLAT:?GetTemplateName@ioWnd@@UAEPBDXZ
	DD	FLAT:?GetDefClassName@ioWnd@@UBEPBDXZ
	DD	FLAT:?_Clone@ioWnd@@UAEPAV1@XZ
	DD	FLAT:?Copy@ioWnd@@UAEXPAV1@@Z
	DD	FLAT:?Save@ioWnd@@UAE_NAAVioXMLElement@@@Z
	DD	FLAT:?SetSaveData@ioWnd@@UAEXAAVioXMLElement@@@Z
	DD	FLAT:?SetPosX@ioWnd@@UAEXH@Z
	DD	FLAT:?SetPosY@ioWnd@@UAEXH@Z
	DD	FLAT:?SetWidth@ioWnd@@UAEXH@Z
	DD	FLAT:?SetHeight@ioWnd@@UAEXH@Z
	DD	FLAT:?GetNumFixedRenderFrame@ioWnd@@UBEHXZ
	DD	FLAT:?GetFixedRenderFrameType@ioWnd@@UAEPBDH@Z
	DD	FLAT:?GetRenderFrame@ioWnd@@UAEPAPAVioUIRenderElement@@PBD@Z
	DD	FLAT:?GetNumFixedRenderImage@ioWnd@@UBEHXZ
	DD	FLAT:?GetFixedRenderImageType@ioWnd@@UAEPBDH@Z
	DD	FLAT:?GetRenderImage@ioWnd@@UAEPAPAVioUIRenderElement@@PBD@Z
	DD	FLAT:?AddEffect@ioWnd@@UAEXABVioHashString@@PAVioUI3DEffectRender@@@Z
	DD	FLAT:?GetEffect@ioWnd@@UAEPAVioUI3DEffectRender@@VioHashString@@@Z
	DD	FLAT:??_ETradeItemRegisterResultWnd@@UAEPAXI@Z
CONST	ENDS
;	COMDAT xdata$x
xdata$x	SEGMENT
__unwindtable$??0TradeItemRegisterResultWnd@@QAE@XZ DD 0ffffffffH
	DD	FLAT:__unwindfunclet$??0TradeItemRegisterResultWnd@@QAE@XZ$0
__ehfuncinfo$??0TradeItemRegisterResultWnd@@QAE@XZ DD 019930522H
	DD	01H
	DD	FLAT:__unwindtable$??0TradeItemRegisterResultWnd@@QAE@XZ
	DD	2 DUP(00H)
	DD	2 DUP(00H)
	DD	00H
	DD	01H
; Function compile flags: /Ogsp
xdata$x	ENDS
;	COMDAT ??0TradeItemRegisterResultWnd@@QAE@XZ
_TEXT	SEGMENT
_this$ = -16						; size = 4
__$EHRec$ = -12						; size = 12
??0TradeItemRegisterResultWnd@@QAE@XZ PROC		; TradeItemRegisterResultWnd::TradeItemRegisterResultWnd, COMDAT
; _this$ = ecx

; 352  : {

  00000	6a 04		 push	 4
  00002	b8 00 00 00 00	 mov	 eax, __ehhandler$??0TradeItemRegisterResultWnd@@QAE@XZ
  00007	e8 00 00 00 00	 call	 __EH_prolog3
  0000c	8b f1		 mov	 esi, ecx
  0000e	89 75 f0	 mov	 DWORD PTR _this$[ebp], esi
  00011	ff 15 00 00 00
	00		 call	 DWORD PTR __imp_??0ioMovingWnd@@QAE@XZ
  00017	83 65 fc 00	 and	 DWORD PTR __$EHRec$[ebp+8], 0
  0001b	8d 8e 90 01 00
	00		 lea	 ecx, DWORD PTR [esi+400]
  00021	c7 06 00 00 00
	00		 mov	 DWORD PTR [esi], OFFSET ??_7TradeItemRegisterResultWnd@@6B@
  00027	ff 15 00 00 00
	00		 call	 DWORD PTR __imp_??0ioHashString@@QAE@XZ

; 353  : 
; 354  : }

  0002d	8b c6		 mov	 eax, esi
  0002f	e8 00 00 00 00	 call	 __EH_epilog3
  00034	c3		 ret	 0
_TEXT	ENDS
;	COMDAT text$x
text$x	SEGMENT
__unwindfunclet$??0TradeItemRegisterResultWnd@@QAE@XZ$0:
  00000	8b 4d f0	 mov	 ecx, DWORD PTR _this$[ebp]
  00003	ff 25 00 00 00
	00		 jmp	 DWORD PTR __imp_??1ioMovingWnd@@UAE@XZ
__ehhandler$??0TradeItemRegisterResultWnd@@QAE@XZ:
  00009	8b 54 24 08	 mov	 edx, DWORD PTR [esp+8]
  0000d	8d 42 0c	 lea	 eax, DWORD PTR [edx+12]
  00010	8b 4a ec	 mov	 ecx, DWORD PTR [edx-20]
  00013	33 c8		 xor	 ecx, eax
  00015	e8 00 00 00 00	 call	 @__security_check_cookie@4
  0001a	b8 00 00 00 00	 mov	 eax, OFFSET __ehfuncinfo$??0TradeItemRegisterResultWnd@@QAE@XZ
  0001f	e9 00 00 00 00	 jmp	 ___CxxFrameHandler3
text$x	ENDS
??0TradeItemRegisterResultWnd@@QAE@XZ ENDP		; TradeItemRegisterResultWnd::TradeItemRegisterResultWnd
PUBLIC	??1TradeItemRegisterResultWnd@@UAE@XZ		; TradeItemRegisterResultWnd::~TradeItemRegisterResultWnd
;	COMDAT xdata$x
xdata$x	SEGMENT
__unwindtable$??1TradeItemRegisterResultWnd@@UAE@XZ DD 0ffffffffH
	DD	FLAT:__unwindfunclet$??1TradeItemRegisterResultWnd@@UAE@XZ$0
__ehfuncinfo$??1TradeItemRegisterResultWnd@@UAE@XZ DD 019930522H
	DD	01H
	DD	FLAT:__unwindtable$??1TradeItemRegisterResultWnd@@UAE@XZ
	DD	2 DUP(00H)
	DD	2 DUP(00H)
	DD	00H
	DD	01H
; Function compile flags: /Ogsp
xdata$x	ENDS
;	COMDAT ??1TradeItemRegisterResultWnd@@UAE@XZ
_TEXT	SEGMENT
_this$ = -16						; size = 4
__$EHRec$ = -12						; size = 12
??1TradeItemRegisterResultWnd@@UAE@XZ PROC		; TradeItemRegisterResultWnd::~TradeItemRegisterResultWnd, COMDAT
; _this$ = ecx

; 357  : {

  00000	6a 04		 push	 4
  00002	b8 00 00 00 00	 mov	 eax, __ehhandler$??1TradeItemRegisterResultWnd@@UAE@XZ
  00007	e8 00 00 00 00	 call	 __EH_prolog3
  0000c	8b f1		 mov	 esi, ecx
  0000e	89 75 f0	 mov	 DWORD PTR _this$[ebp], esi
  00011	c7 06 00 00 00
	00		 mov	 DWORD PTR [esi], OFFSET ??_7TradeItemRegisterResultWnd@@6B@
  00017	83 65 fc 00	 and	 DWORD PTR __$EHRec$[ebp+8], 0

; 358  : }

  0001b	8d 8e 90 01 00
	00		 lea	 ecx, DWORD PTR [esi+400]
  00021	ff 15 00 00 00
	00		 call	 DWORD PTR __imp_??1ioHashString@@QAE@XZ
  00027	83 4d fc ff	 or	 DWORD PTR __$EHRec$[ebp+8], -1
  0002b	8b ce		 mov	 ecx, esi
  0002d	ff 15 00 00 00
	00		 call	 DWORD PTR __imp_??1ioMovingWnd@@UAE@XZ
  00033	e8 00 00 00 00	 call	 __EH_epilog3
  00038	c3		 ret	 0
_TEXT	ENDS
;	COMDAT text$x
text$x	SEGMENT
__unwindfunclet$??1TradeItemRegisterResultWnd@@UAE@XZ$0:
  00000	8b 4d f0	 mov	 ecx, DWORD PTR _this$[ebp]
  00003	ff 25 00 00 00
	00		 jmp	 DWORD PTR __imp_??1ioMovingWnd@@UAE@XZ
__ehhandler$??1TradeItemRegisterResultWnd@@UAE@XZ:
  00009	8b 54 24 08	 mov	 edx, DWORD PTR [esp+8]
  0000d	8d 42 0c	 lea	 eax, DWORD PTR [edx+12]
  00010	8b 4a ec	 mov	 ecx, DWORD PTR [edx-20]
  00013	33 c8		 xor	 ecx, eax
  00015	e8 00 00 00 00	 call	 @__security_check_cookie@4
  0001a	b8 00 00 00 00	 mov	 eax, OFFSET __ehfuncinfo$??1TradeItemRegisterResultWnd@@UAE@XZ
  0001f	e9 00 00 00 00	 jmp	 ___CxxFrameHandler3
text$x	ENDS
??1TradeItemRegisterResultWnd@@UAE@XZ ENDP		; TradeItemRegisterResultWnd::~TradeItemRegisterResultWnd
; Function compile flags: /Ogsp
;	COMDAT ?AddRenderImage@TradeItemRegisterResultWnd@@MAEXABVioHashString@@PAVioUIRenderImage@@@Z
_TEXT	SEGMENT
_szType$ = 8						; size = 4
_pImage$ = 12						; size = 4
?AddRenderImage@TradeItemRegisterResultWnd@@MAEXABVioHashString@@PAVioUIRenderImage@@@Z PROC ; TradeItemRegisterResultWnd::AddRenderImage, COMDAT
; _this$ = ecx

; 361  : {

  00000	55		 push	 ebp
  00001	8b ec		 mov	 ebp, esp

; 363  : }

  00003	5d		 pop	 ebp

; 362  : 	ioMovingWnd::AddRenderImage( szType, pImage );

  00004	ff 25 00 00 00
	00		 jmp	 DWORD PTR __imp_?AddRenderImage@ioWnd@@UAEXABVioHashString@@PAVioUIRenderImage@@@Z
?AddRenderImage@TradeItemRegisterResultWnd@@MAEXABVioHashString@@PAVioUIRenderImage@@@Z ENDP ; TradeItemRegisterResultWnd::AddRenderImage
_TEXT	ENDS
EXTRN	__imp_?HideWnd@ioWnd@@QAEXXZ:PROC
EXTRN	__imp_?GetID@ioWnd@@QBEKXZ:PROC
; Function compile flags: /Ogsp
;	COMDAT ?iwm_command@TradeItemRegisterResultWnd@@UAEXPAVioWnd@@HK@Z
_TEXT	SEGMENT
_pWnd$ = 8						; size = 4
_cmd$ = 12						; size = 4
_param$ = 16						; size = 4
?iwm_command@TradeItemRegisterResultWnd@@UAEXPAVioWnd@@HK@Z PROC ; TradeItemRegisterResultWnd::iwm_command, COMDAT
; _this$ = ecx

; 396  : {

  00000	55		 push	 ebp
  00001	8b ec		 mov	 ebp, esp
  00003	56		 push	 esi
  00004	8b f1		 mov	 esi, ecx

; 397  : 	DWORD dwID = pWnd->GetID();

  00006	8b 4d 08	 mov	 ecx, DWORD PTR _pWnd$[ebp]
  00009	ff 15 00 00 00
	00		 call	 DWORD PTR __imp_?GetID@ioWnd@@QBEKXZ

; 398  : 	switch( dwID )

  0000f	83 c0 fe	 add	 eax, -2			; fffffffeH
  00012	83 f8 01	 cmp	 eax, 1
  00015	77 0e		 ja	 SHORT $LN1@iwm_comman

; 399  : 	{
; 400  : 	case ID_OK_BTN:
; 401  : 	case ID_EXIT_BTN:
; 402  : 		if( cmd == IOBN_BTNUP )

  00017	83 7d 0c 11	 cmp	 DWORD PTR _cmd$[ebp], 17 ; 00000011H
  0001b	75 08		 jne	 SHORT $LN1@iwm_comman

; 403  : 		{
; 404  : 			HideWnd();

  0001d	8b ce		 mov	 ecx, esi
  0001f	ff 15 00 00 00
	00		 call	 DWORD PTR __imp_?HideWnd@ioWnd@@QAEXXZ
$LN1@iwm_comman:
  00025	5e		 pop	 esi

; 405  : 		}
; 406  : 		break;
; 407  : 	}
; 408  : }

  00026	5d		 pop	 ebp
  00027	c2 0c 00	 ret	 12			; 0000000cH
?iwm_command@TradeItemRegisterResultWnd@@UAEXPAVioWnd@@HK@Z ENDP ; TradeItemRegisterResultWnd::iwm_command
_TEXT	ENDS
PUBLIC	__real@3f266666
PUBLIC	__real@3f59999a
PUBLIC	??_C@_0CF@MGIOOEKE@TradeItemRegisterResultWnd?3?3OnRe@ ; `string'
PUBLIC	??_C@_00CNPNBAHC@?$AA@				; `string'
PUBLIC	_this$GSCopy$
EXTRN	?AddTextPiece@ioComplexStringPrinter@@QAAXMPBDZZ:PROC ; ioComplexStringPrinter::AddTextPiece
EXTRN	?ConvertNumToStrComma@Help@@YAXHPADH@Z:PROC	; Help::ConvertNumToStrComma
EXTRN	?PrintFullText@ioComplexStringPrinter@@QAEXMMW4TextAlignType@@E@Z:PROC ; ioComplexStringPrinter::PrintFullText
EXTRN	?AddTextPiece@ioComplexStringPrinter@@QAEXMPBD0@Z:PROC ; ioComplexStringPrinter::AddTextPiece
EXTRN	__imp_?GetString@ioStringManager@@QAEPADPBD0HW4FileNamePrefix@1@@Z:PROC
EXTRN	__imp_?GetSingleton@ioStringManager@@SAAAV1@XZ:PROC
EXTRN	__imp_?c_str@ioHashString@@QBEPBDXZ:PROC
EXTRN	?SetTextColor@ioComplexStringPrinter@@QAEXK@Z:PROC ; ioComplexStringPrinter::SetTextColor
EXTRN	?SetBkColor@ioComplexStringPrinter@@QAEXHHH@Z:PROC ; ioComplexStringPrinter::SetBkColor
EXTRN	?SetTextStyle@ioComplexStringPrinter@@QAEXW4TextStyle@@@Z:PROC ; ioComplexStringPrinter::SetTextStyle
EXTRN	??0ioComplexStringPrinter@@QAE@XZ:PROC		; ioComplexStringPrinter::ioComplexStringPrinter
EXTRN	__imp_?OnRender@ioWnd@@MAEXXZ:PROC
EXTRN	__imp_?GetDerivedPosY@ioWnd@@QBEHXZ:PROC
EXTRN	__imp_?GetDerivedPosX@ioWnd@@QBEHXZ:PROC
EXTRN	__fltused:DWORD
EXTRN	__EH_epilog3_GS:PROC
EXTRN	__EH_prolog3_GS:PROC
EXTRN	_memset:PROC
;	COMDAT __real@3f266666
CONST	SEGMENT
__real@3f266666 DD 03f266666r			; 0.65
CONST	ENDS
;	COMDAT __real@3f59999a
CONST	SEGMENT
__real@3f59999a DD 03f59999ar			; 0.85
CONST	ENDS
;	COMDAT ??_C@_0CF@MGIOOEKE@TradeItemRegisterResultWnd?3?3OnRe@
CONST	SEGMENT
??_C@_0CF@MGIOOEKE@TradeItemRegisterResultWnd?3?3OnRe@ DB 'TradeItemRegis'
	DB	'terResultWnd::OnRender', 00H		; `string'
CONST	ENDS
;	COMDAT ??_C@_00CNPNBAHC@?$AA@
CONST	SEGMENT
??_C@_00CNPNBAHC@?$AA@ DB 00H				; `string'
CONST	ENDS
;	COMDAT xdata$x
xdata$x	SEGMENT
__unwindtable$?OnRender@TradeItemRegisterResultWnd@@MAEXXZ DD 0ffffffffH
	DD	FLAT:__unwindfunclet$?OnRender@TradeItemRegisterResultWnd@@MAEXXZ$0
__ehfuncinfo$?OnRender@TradeItemRegisterResultWnd@@MAEXXZ DD 019930522H
	DD	01H
	DD	FLAT:__unwindtable$?OnRender@TradeItemRegisterResultWnd@@MAEXXZ
	DD	2 DUP(00H)
	DD	2 DUP(00H)
	DD	00H
	DD	01H
; Function compile flags: /Ogsp
xdata$x	ENDS
;	COMDAT ?OnRender@TradeItemRegisterResultWnd@@MAEXXZ
_TEXT	SEGMENT
_this$GSCopy$ = -320					; size = 4
_kPrinter$ = -316					; size = 32
_iYPos$ = -284						; size = 4
tv292 = -280						; size = 4
_iXPos$ = -280						; size = 4
_szPeso$ = -276						; size = 260
__$EHRec$ = -12						; size = 12
?OnRender@TradeItemRegisterResultWnd@@MAEXXZ PROC	; TradeItemRegisterResultWnd::OnRender, COMDAT
; _this$ = ecx

; 411  : {

  00000	68 34 01 00 00	 push	 308			; 00000134H
  00005	b8 00 00 00 00	 mov	 eax, __ehhandler$?OnRender@TradeItemRegisterResultWnd@@MAEXXZ
  0000a	e8 00 00 00 00	 call	 __EH_prolog3_GS
  0000f	8b f1		 mov	 esi, ecx

; 412  : 	int iXPos = GetDerivedPosX();

  00011	89 b5 c0 fe ff
	ff		 mov	 DWORD PTR _this$GSCopy$[ebp], esi
  00017	ff 15 00 00 00
	00		 call	 DWORD PTR __imp_?GetDerivedPosX@ioWnd@@QBEHXZ

; 413  : 	int iYPos = GetDerivedPosY();

  0001d	8b ce		 mov	 ecx, esi
  0001f	89 85 e8 fe ff
	ff		 mov	 DWORD PTR _iXPos$[ebp], eax
  00025	ff 15 00 00 00
	00		 call	 DWORD PTR __imp_?GetDerivedPosY@ioWnd@@QBEHXZ

; 414  : 
; 415  : 	ioMovingWnd::OnRender();

  0002b	8b ce		 mov	 ecx, esi
  0002d	89 85 e4 fe ff
	ff		 mov	 DWORD PTR _iYPos$[ebp], eax
  00033	ff 15 00 00 00
	00		 call	 DWORD PTR __imp_?OnRender@ioWnd@@MAEXXZ

; 416  : 
; 417  : 	enum
; 418  : 	{
; 419  : 		NAME_X		= 103,
; 420  : 		NAME_Y		= 149,
; 421  : 
; 422  : 		TEXT_X		= 103,
; 423  : 		TEXT_Y		= 199,
; 424  : 	};
; 425  : 
; 426  : 	ioComplexStringPrinter kPrinter;

  00039	8d 8d c4 fe ff
	ff		 lea	 ecx, DWORD PTR _kPrinter$[ebp]
  0003f	e8 00 00 00 00	 call	 ??0ioComplexStringPrinter@@QAE@XZ ; ioComplexStringPrinter::ioComplexStringPrinter
  00044	33 db		 xor	 ebx, ebx

; 427  : 	kPrinter.SetTextStyle( TS_NORMAL );

  00046	53		 push	 ebx
  00047	8d 8d c4 fe ff
	ff		 lea	 ecx, DWORD PTR _kPrinter$[ebp]
  0004d	89 5d fc	 mov	 DWORD PTR __$EHRec$[ebp+8], ebx
  00050	e8 00 00 00 00	 call	 ?SetTextStyle@ioComplexStringPrinter@@QAEXW4TextStyle@@@Z ; ioComplexStringPrinter::SetTextStyle

; 428  : 	kPrinter.SetBkColor( 0, 0, 0 );

  00055	53		 push	 ebx
  00056	53		 push	 ebx
  00057	53		 push	 ebx
  00058	8d 8d c4 fe ff
	ff		 lea	 ecx, DWORD PTR _kPrinter$[ebp]
  0005e	e8 00 00 00 00	 call	 ?SetBkColor@ioComplexStringPrinter@@QAEXHHH@Z ; ioComplexStringPrinter::SetBkColor

; 429  : 	kPrinter.SetTextColor( TCT_DEFAULT_DARKGRAY );

  00063	68 3a 3a 3a ff	 push	 -12961222		; ff3a3a3aH
  00068	8d 8d c4 fe ff
	ff		 lea	 ecx, DWORD PTR _kPrinter$[ebp]
  0006e	e8 00 00 00 00	 call	 ?SetTextColor@ioComplexStringPrinter@@QAEXK@Z ; ioComplexStringPrinter::SetTextColor

; 430  : 	kPrinter.AddTextPiece( FONT_SIZE_17, STR(1), m_szName.c_str() );

  00073	8d 8e 90 01 00
	00		 lea	 ecx, DWORD PTR [esi+400]
  00079	ff 15 00 00 00
	00		 call	 DWORD PTR __imp_?c_str@ioHashString@@QBEPBDXZ
  0007f	8b 35 00 00 00
	00		 mov	 esi, DWORD PTR __imp_?GetSingleton@ioStringManager@@SAAAV1@XZ
  00085	50		 push	 eax
  00086	53		 push	 ebx
  00087	6a 01		 push	 1
  00089	68 00 00 00 00	 push	 OFFSET ??_C@_00CNPNBAHC@?$AA@
  0008e	68 00 00 00 00	 push	 OFFSET ??_C@_0CF@MGIOOEKE@TradeItemRegisterResultWnd?3?3OnRe@
  00093	ff d6		 call	 esi
  00095	8b 3d 00 00 00
	00		 mov	 edi, DWORD PTR __imp_?GetString@ioStringManager@@QAEPADPBD0HW4FileNamePrefix@1@@Z
  0009b	8b c8		 mov	 ecx, eax
  0009d	ff d7		 call	 edi
  0009f	f3 0f 10 05 00
	00 00 00	 movss	 xmm0, DWORD PTR __real@3f59999a
  000a7	50		 push	 eax
  000a8	51		 push	 ecx
  000a9	8d 8d c4 fe ff
	ff		 lea	 ecx, DWORD PTR _kPrinter$[ebp]
  000af	f3 0f 11 04 24	 movss	 DWORD PTR [esp], xmm0
  000b4	e8 00 00 00 00	 call	 ?AddTextPiece@ioComplexStringPrinter@@QAEXMPBD0@Z ; ioComplexStringPrinter::AddTextPiece

; 431  : 	kPrinter.PrintFullText( iXPos+NAME_X, iYPos+NAME_Y, TAT_CENTER );

  000b9	8b 85 e8 fe ff
	ff		 mov	 eax, DWORD PTR _iXPos$[ebp]
  000bf	83 c0 67	 add	 eax, 103		; 00000067H
  000c2	68 ff 00 00 00	 push	 255			; 000000ffH
  000c7	0f 57 c0	 xorps	 xmm0, xmm0
  000ca	f3 0f 2a c0	 cvtsi2ss xmm0, eax
  000ce	8b 85 e4 fe ff
	ff		 mov	 eax, DWORD PTR _iYPos$[ebp]
  000d4	6a 01		 push	 1
  000d6	51		 push	 ecx
  000d7	51		 push	 ecx
  000d8	05 95 00 00 00	 add	 eax, 149		; 00000095H
  000dd	0f 57 c9	 xorps	 xmm1, xmm1
  000e0	f3 0f 2a c8	 cvtsi2ss xmm1, eax
  000e4	f3 0f 11 4c 24
	04		 movss	 DWORD PTR [esp+4], xmm1
  000ea	8d 8d c4 fe ff
	ff		 lea	 ecx, DWORD PTR _kPrinter$[ebp]
  000f0	f3 0f 11 85 e8
	fe ff ff	 movss	 DWORD PTR tv292[ebp], xmm0
  000f8	f3 0f 11 04 24	 movss	 DWORD PTR [esp], xmm0
  000fd	e8 00 00 00 00	 call	 ?PrintFullText@ioComplexStringPrinter@@QAEXMMW4TextAlignType@@E@Z ; ioComplexStringPrinter::PrintFullText

; 432  : 	kPrinter.ClearList();

  00102	8d 8d c4 fe ff
	ff		 lea	 ecx, DWORD PTR _kPrinter$[ebp]
  00108	e8 00 00 00 00	 call	 ?ClearList@ioComplexStringPrinter@@QAEXXZ ; ioComplexStringPrinter::ClearList

; 433  : 
; 434  : 	char szPeso[MAX_PATH]="";

  0010d	68 03 01 00 00	 push	 259			; 00000103H
  00112	8d 85 ed fe ff
	ff		 lea	 eax, DWORD PTR _szPeso$[ebp+1]
  00118	53		 push	 ebx
  00119	50		 push	 eax
  0011a	88 9d ec fe ff
	ff		 mov	 BYTE PTR _szPeso$[ebp], bl
  00120	e8 00 00 00 00	 call	 _memset

; 435  : 	Help::ConvertNumToStrComma( m_iPrice, szPeso, sizeof( szPeso ) );

  00125	68 04 01 00 00	 push	 260			; 00000104H
  0012a	8d 85 ec fe ff
	ff		 lea	 eax, DWORD PTR _szPeso$[ebp]
  00130	50		 push	 eax
  00131	8b 85 c0 fe ff
	ff		 mov	 eax, DWORD PTR _this$GSCopy$[ebp]
  00137	ff b0 a0 01 00
	00		 push	 DWORD PTR [eax+416]
  0013d	e8 00 00 00 00	 call	 ?ConvertNumToStrComma@Help@@YAXHPADH@Z ; Help::ConvertNumToStrComma
  00142	83 c4 18	 add	 esp, 24			; 00000018H

; 436  : 
; 437  : 	kPrinter.SetTextStyle( TS_NORMAL );

  00145	53		 push	 ebx
  00146	8d 8d c4 fe ff
	ff		 lea	 ecx, DWORD PTR _kPrinter$[ebp]
  0014c	e8 00 00 00 00	 call	 ?SetTextStyle@ioComplexStringPrinter@@QAEXW4TextStyle@@@Z ; ioComplexStringPrinter::SetTextStyle

; 438  : 	kPrinter.SetBkColor( 0, 0, 0 );

  00151	53		 push	 ebx
  00152	53		 push	 ebx
  00153	53		 push	 ebx
  00154	8d 8d c4 fe ff
	ff		 lea	 ecx, DWORD PTR _kPrinter$[ebp]
  0015a	e8 00 00 00 00	 call	 ?SetBkColor@ioComplexStringPrinter@@QAEXHHH@Z ; ioComplexStringPrinter::SetBkColor

; 439  : 	kPrinter.SetTextColor( TCT_DEFAULT_BLUE );

  0015f	68 b2 46 16 ff	 push	 -15317326		; ff1646b2H
  00164	8d 8d c4 fe ff
	ff		 lea	 ecx, DWORD PTR _kPrinter$[ebp]
  0016a	e8 00 00 00 00	 call	 ?SetTextColor@ioComplexStringPrinter@@QAEXK@Z ; ioComplexStringPrinter::SetTextColor

; 440  : 	kPrinter.AddTextPiece( FONT_SIZE_17, STR(2), szPeso );

  0016f	8d 85 ec fe ff
	ff		 lea	 eax, DWORD PTR _szPeso$[ebp]
  00175	50		 push	 eax
  00176	53		 push	 ebx
  00177	6a 02		 push	 2
  00179	68 00 00 00 00	 push	 OFFSET ??_C@_00CNPNBAHC@?$AA@
  0017e	68 00 00 00 00	 push	 OFFSET ??_C@_0CF@MGIOOEKE@TradeItemRegisterResultWnd?3?3OnRe@
  00183	ff d6		 call	 esi
  00185	8b c8		 mov	 ecx, eax
  00187	ff d7		 call	 edi
  00189	f3 0f 10 05 00
	00 00 00	 movss	 xmm0, DWORD PTR __real@3f59999a
  00191	50		 push	 eax
  00192	51		 push	 ecx
  00193	8d 8d c4 fe ff
	ff		 lea	 ecx, DWORD PTR _kPrinter$[ebp]
  00199	f3 0f 11 04 24	 movss	 DWORD PTR [esp], xmm0
  0019e	e8 00 00 00 00	 call	 ?AddTextPiece@ioComplexStringPrinter@@QAEXMPBD0@Z ; ioComplexStringPrinter::AddTextPiece

; 441  : 	kPrinter.PrintFullText( iXPos+NAME_X, iYPos+NAME_Y+21, TAT_CENTER );

  001a3	8b 85 e4 fe ff
	ff		 mov	 eax, DWORD PTR _iYPos$[ebp]
  001a9	68 ff 00 00 00	 push	 255			; 000000ffH
  001ae	6a 01		 push	 1
  001b0	51		 push	 ecx
  001b1	51		 push	 ecx
  001b2	05 aa 00 00 00	 add	 eax, 170		; 000000aaH
  001b7	0f 57 c0	 xorps	 xmm0, xmm0
  001ba	f3 0f 2a c0	 cvtsi2ss xmm0, eax
  001be	f3 0f 11 44 24
	04		 movss	 DWORD PTR [esp+4], xmm0
  001c4	f3 0f 10 85 e8
	fe ff ff	 movss	 xmm0, DWORD PTR tv292[ebp]
  001cc	8d 8d c4 fe ff
	ff		 lea	 ecx, DWORD PTR _kPrinter$[ebp]
  001d2	f3 0f 11 04 24	 movss	 DWORD PTR [esp], xmm0
  001d7	e8 00 00 00 00	 call	 ?PrintFullText@ioComplexStringPrinter@@QAEXMMW4TextAlignType@@E@Z ; ioComplexStringPrinter::PrintFullText

; 442  : 	kPrinter.ClearList();

  001dc	8d 8d c4 fe ff
	ff		 lea	 ecx, DWORD PTR _kPrinter$[ebp]
  001e2	e8 00 00 00 00	 call	 ?ClearList@ioComplexStringPrinter@@QAEXXZ ; ioComplexStringPrinter::ClearList

; 443  : 
; 444  : 	kPrinter.SetTextStyle( TS_NORMAL );

  001e7	53		 push	 ebx
  001e8	8d 8d c4 fe ff
	ff		 lea	 ecx, DWORD PTR _kPrinter$[ebp]
  001ee	e8 00 00 00 00	 call	 ?SetTextStyle@ioComplexStringPrinter@@QAEXW4TextStyle@@@Z ; ioComplexStringPrinter::SetTextStyle

; 445  : 	kPrinter.SetBkColor( 0, 0, 0 );

  001f3	53		 push	 ebx
  001f4	53		 push	 ebx
  001f5	53		 push	 ebx
  001f6	8d 8d c4 fe ff
	ff		 lea	 ecx, DWORD PTR _kPrinter$[ebp]
  001fc	e8 00 00 00 00	 call	 ?SetBkColor@ioComplexStringPrinter@@QAEXHHH@Z ; ioComplexStringPrinter::SetBkColor

; 446  : 	kPrinter.SetTextColor( TCT_DEFAULT_DARKGRAY );

  00201	68 3a 3a 3a ff	 push	 -12961222		; ff3a3a3aH
  00206	8d 8d c4 fe ff
	ff		 lea	 ecx, DWORD PTR _kPrinter$[ebp]
  0020c	e8 00 00 00 00	 call	 ?SetTextColor@ioComplexStringPrinter@@QAEXK@Z ; ioComplexStringPrinter::SetTextColor

; 447  : 	kPrinter.AddTextPiece( FONT_SIZE_13, STR(3) );

  00211	53		 push	 ebx
  00212	6a 03		 push	 3
  00214	68 00 00 00 00	 push	 OFFSET ??_C@_00CNPNBAHC@?$AA@
  00219	68 00 00 00 00	 push	 OFFSET ??_C@_0CF@MGIOOEKE@TradeItemRegisterResultWnd?3?3OnRe@
  0021e	ff d6		 call	 esi
  00220	8b c8		 mov	 ecx, eax
  00222	ff d7		 call	 edi
  00224	f3 0f 10 05 00
	00 00 00	 movss	 xmm0, DWORD PTR __real@3f266666
  0022c	50		 push	 eax
  0022d	51		 push	 ecx
  0022e	8d 85 c4 fe ff
	ff		 lea	 eax, DWORD PTR _kPrinter$[ebp]
  00234	f3 0f 11 04 24	 movss	 DWORD PTR [esp], xmm0
  00239	50		 push	 eax
  0023a	e8 00 00 00 00	 call	 ?AddTextPiece@ioComplexStringPrinter@@QAAXMPBDZZ ; ioComplexStringPrinter::AddTextPiece

; 448  : 	kPrinter.PrintFullText( iXPos+TEXT_X, iYPos+TEXT_Y, TAT_CENTER );

  0023f	8b 85 e4 fe ff
	ff		 mov	 eax, DWORD PTR _iYPos$[ebp]
  00245	83 c4 0c	 add	 esp, 12			; 0000000cH
  00248	68 ff 00 00 00	 push	 255			; 000000ffH
  0024d	6a 01		 push	 1
  0024f	51		 push	 ecx
  00250	51		 push	 ecx
  00251	05 c7 00 00 00	 add	 eax, 199		; 000000c7H
  00256	0f 57 c0	 xorps	 xmm0, xmm0
  00259	f3 0f 2a c0	 cvtsi2ss xmm0, eax
  0025d	f3 0f 11 44 24
	04		 movss	 DWORD PTR [esp+4], xmm0
  00263	f3 0f 10 85 e8
	fe ff ff	 movss	 xmm0, DWORD PTR tv292[ebp]
  0026b	8d 8d c4 fe ff
	ff		 lea	 ecx, DWORD PTR _kPrinter$[ebp]
  00271	f3 0f 11 04 24	 movss	 DWORD PTR [esp], xmm0
  00276	e8 00 00 00 00	 call	 ?PrintFullText@ioComplexStringPrinter@@QAEXMMW4TextAlignType@@E@Z ; ioComplexStringPrinter::PrintFullText

; 449  : 	kPrinter.ClearList();

  0027b	8d 8d c4 fe ff
	ff		 lea	 ecx, DWORD PTR _kPrinter$[ebp]
  00281	e8 00 00 00 00	 call	 ?ClearList@ioComplexStringPrinter@@QAEXXZ ; ioComplexStringPrinter::ClearList

; 450  : 
; 451  : 	kPrinter.SetTextStyle( TS_NORMAL );

  00286	53		 push	 ebx
  00287	8d 8d c4 fe ff
	ff		 lea	 ecx, DWORD PTR _kPrinter$[ebp]
  0028d	e8 00 00 00 00	 call	 ?SetTextStyle@ioComplexStringPrinter@@QAEXW4TextStyle@@@Z ; ioComplexStringPrinter::SetTextStyle

; 452  : 	kPrinter.SetBkColor( 0, 0, 0 );

  00292	53		 push	 ebx
  00293	53		 push	 ebx
  00294	53		 push	 ebx
  00295	8d 8d c4 fe ff
	ff		 lea	 ecx, DWORD PTR _kPrinter$[ebp]
  0029b	e8 00 00 00 00	 call	 ?SetBkColor@ioComplexStringPrinter@@QAEXHHH@Z ; ioComplexStringPrinter::SetBkColor

; 453  : 	kPrinter.SetTextColor( TCT_DEFAULT_DARKGRAY );

  002a0	68 3a 3a 3a ff	 push	 -12961222		; ff3a3a3aH
  002a5	8d 8d c4 fe ff
	ff		 lea	 ecx, DWORD PTR _kPrinter$[ebp]
  002ab	e8 00 00 00 00	 call	 ?SetTextColor@ioComplexStringPrinter@@QAEXK@Z ; ioComplexStringPrinter::SetTextColor

; 454  : 	kPrinter.AddTextPiece( FONT_SIZE_13, STR(4) );

  002b0	53		 push	 ebx
  002b1	6a 04		 push	 4
  002b3	68 00 00 00 00	 push	 OFFSET ??_C@_00CNPNBAHC@?$AA@
  002b8	68 00 00 00 00	 push	 OFFSET ??_C@_0CF@MGIOOEKE@TradeItemRegisterResultWnd?3?3OnRe@
  002bd	ff d6		 call	 esi
  002bf	8b c8		 mov	 ecx, eax
  002c1	ff d7		 call	 edi
  002c3	f3 0f 10 05 00
	00 00 00	 movss	 xmm0, DWORD PTR __real@3f266666
  002cb	50		 push	 eax
  002cc	51		 push	 ecx
  002cd	8d 85 c4 fe ff
	ff		 lea	 eax, DWORD PTR _kPrinter$[ebp]
  002d3	f3 0f 11 04 24	 movss	 DWORD PTR [esp], xmm0
  002d8	50		 push	 eax
  002d9	e8 00 00 00 00	 call	 ?AddTextPiece@ioComplexStringPrinter@@QAAXMPBDZZ ; ioComplexStringPrinter::AddTextPiece

; 455  : 	kPrinter.PrintFullText( iXPos+TEXT_X, iYPos+TEXT_Y+20, TAT_CENTER );

  002de	8b 85 e4 fe ff
	ff		 mov	 eax, DWORD PTR _iYPos$[ebp]
  002e4	83 c4 0c	 add	 esp, 12			; 0000000cH
  002e7	68 ff 00 00 00	 push	 255			; 000000ffH
  002ec	6a 01		 push	 1
  002ee	51		 push	 ecx
  002ef	51		 push	 ecx
  002f0	05 db 00 00 00	 add	 eax, 219		; 000000dbH
  002f5	0f 57 c0	 xorps	 xmm0, xmm0
  002f8	f3 0f 2a c0	 cvtsi2ss xmm0, eax
  002fc	f3 0f 11 44 24
	04		 movss	 DWORD PTR [esp+4], xmm0
  00302	f3 0f 10 85 e8
	fe ff ff	 movss	 xmm0, DWORD PTR tv292[ebp]
  0030a	8d 8d c4 fe ff
	ff		 lea	 ecx, DWORD PTR _kPrinter$[ebp]
  00310	f3 0f 11 04 24	 movss	 DWORD PTR [esp], xmm0
  00315	e8 00 00 00 00	 call	 ?PrintFullText@ioComplexStringPrinter@@QAEXMMW4TextAlignType@@E@Z ; ioComplexStringPrinter::PrintFullText

; 456  : 	kPrinter.ClearList();

  0031a	8d 8d c4 fe ff
	ff		 lea	 ecx, DWORD PTR _kPrinter$[ebp]
  00320	e8 00 00 00 00	 call	 ?ClearList@ioComplexStringPrinter@@QAEXXZ ; ioComplexStringPrinter::ClearList

; 457  : 
; 458  : 	kPrinter.SetTextStyle( TS_NORMAL );

  00325	53		 push	 ebx
  00326	8d 8d c4 fe ff
	ff		 lea	 ecx, DWORD PTR _kPrinter$[ebp]
  0032c	e8 00 00 00 00	 call	 ?SetTextStyle@ioComplexStringPrinter@@QAEXW4TextStyle@@@Z ; ioComplexStringPrinter::SetTextStyle

; 459  : 	kPrinter.SetBkColor( 0, 0, 0 );

  00331	53		 push	 ebx
  00332	53		 push	 ebx
  00333	53		 push	 ebx
  00334	8d 8d c4 fe ff
	ff		 lea	 ecx, DWORD PTR _kPrinter$[ebp]
  0033a	e8 00 00 00 00	 call	 ?SetBkColor@ioComplexStringPrinter@@QAEXHHH@Z ; ioComplexStringPrinter::SetBkColor

; 460  : 	kPrinter.SetTextColor( TCT_DEFAULT_DARKGRAY );

  0033f	68 3a 3a 3a ff	 push	 -12961222		; ff3a3a3aH
  00344	8d 8d c4 fe ff
	ff		 lea	 ecx, DWORD PTR _kPrinter$[ebp]
  0034a	e8 00 00 00 00	 call	 ?SetTextColor@ioComplexStringPrinter@@QAEXK@Z ; ioComplexStringPrinter::SetTextColor

; 461  : 	kPrinter.AddTextPiece( FONT_SIZE_13, STR(5) );

  0034f	53		 push	 ebx
  00350	6a 05		 push	 5
  00352	68 00 00 00 00	 push	 OFFSET ??_C@_00CNPNBAHC@?$AA@
  00357	68 00 00 00 00	 push	 OFFSET ??_C@_0CF@MGIOOEKE@TradeItemRegisterResultWnd?3?3OnRe@
  0035c	ff d6		 call	 esi
  0035e	8b c8		 mov	 ecx, eax
  00360	ff d7		 call	 edi
  00362	f3 0f 10 05 00
	00 00 00	 movss	 xmm0, DWORD PTR __real@3f266666
  0036a	50		 push	 eax
  0036b	51		 push	 ecx
  0036c	8d 85 c4 fe ff
	ff		 lea	 eax, DWORD PTR _kPrinter$[ebp]
  00372	f3 0f 11 04 24	 movss	 DWORD PTR [esp], xmm0
  00377	50		 push	 eax
  00378	e8 00 00 00 00	 call	 ?AddTextPiece@ioComplexStringPrinter@@QAAXMPBDZZ ; ioComplexStringPrinter::AddTextPiece

; 462  : 	kPrinter.PrintFullText( iXPos+TEXT_X, iYPos+TEXT_Y+40, TAT_CENTER );

  0037d	8b 85 e4 fe ff
	ff		 mov	 eax, DWORD PTR _iYPos$[ebp]
  00383	83 c4 0c	 add	 esp, 12			; 0000000cH
  00386	68 ff 00 00 00	 push	 255			; 000000ffH
  0038b	6a 01		 push	 1
  0038d	51		 push	 ecx
  0038e	51		 push	 ecx
  0038f	05 ef 00 00 00	 add	 eax, 239		; 000000efH
  00394	0f 57 c0	 xorps	 xmm0, xmm0
  00397	f3 0f 2a c0	 cvtsi2ss xmm0, eax
  0039b	f3 0f 11 44 24
	04		 movss	 DWORD PTR [esp+4], xmm0
  003a1	f3 0f 10 85 e8
	fe ff ff	 movss	 xmm0, DWORD PTR tv292[ebp]
  003a9	8d 8d c4 fe ff
	ff		 lea	 ecx, DWORD PTR _kPrinter$[ebp]
  003af	f3 0f 11 04 24	 movss	 DWORD PTR [esp], xmm0
  003b4	e8 00 00 00 00	 call	 ?PrintFullText@ioComplexStringPrinter@@QAEXMMW4TextAlignType@@E@Z ; ioComplexStringPrinter::PrintFullText

; 463  : 	kPrinter.ClearList();

  003b9	8d 8d c4 fe ff
	ff		 lea	 ecx, DWORD PTR _kPrinter$[ebp]
  003bf	e8 00 00 00 00	 call	 ?ClearList@ioComplexStringPrinter@@QAEXXZ ; ioComplexStringPrinter::ClearList

; 464  : }

  003c4	83 4d fc ff	 or	 DWORD PTR __$EHRec$[ebp+8], -1
  003c8	8d 8d c4 fe ff
	ff		 lea	 ecx, DWORD PTR _kPrinter$[ebp]
  003ce	e8 00 00 00 00	 call	 ??1ioComplexStringPrinter@@QAE@XZ ; ioComplexStringPrinter::~ioComplexStringPrinter
  003d3	e8 00 00 00 00	 call	 __EH_epilog3_GS
  003d8	c3		 ret	 0
_TEXT	ENDS
;	COMDAT text$x
text$x	SEGMENT
__unwindfunclet$?OnRender@TradeItemRegisterResultWnd@@MAEXXZ$0:
  00000	8d 8d c4 fe ff
	ff		 lea	 ecx, DWORD PTR _kPrinter$[ebp]
  00006	e9 00 00 00 00	 jmp	 ??1ioComplexStringPrinter@@QAE@XZ ; ioComplexStringPrinter::~ioComplexStringPrinter
__ehhandler$?OnRender@TradeItemRegisterResultWnd@@MAEXXZ:
  0000b	8b 54 24 08	 mov	 edx, DWORD PTR [esp+8]
  0000f	8d 42 0c	 lea	 eax, DWORD PTR [edx+12]
  00012	8b 8a bc fe ff
	ff		 mov	 ecx, DWORD PTR [edx-324]
  00018	33 c8		 xor	 ecx, eax
  0001a	e8 00 00 00 00	 call	 @__security_check_cookie@4
  0001f	8b 4a fc	 mov	 ecx, DWORD PTR [edx-4]
  00022	33 c8		 xor	 ecx, eax
  00024	e8 00 00 00 00	 call	 @__security_check_cookie@4
  00029	b8 00 00 00 00	 mov	 eax, OFFSET __ehfuncinfo$?OnRender@TradeItemRegisterResultWnd@@MAEXXZ
  0002e	e9 00 00 00 00	 jmp	 ___CxxFrameHandler3
text$x	ENDS
?OnRender@TradeItemRegisterResultWnd@@MAEXXZ ENDP	; TradeItemRegisterResultWnd::OnRender
PUBLIC	??_7bad_alloc@std@@6B@				; std::bad_alloc::`vftable'
PUBLIC	??0bad_alloc@std@@QAE@PBD@Z			; std::bad_alloc::bad_alloc
PUBLIC	??_R4bad_alloc@std@@6B@				; std::bad_alloc::`RTTI Complete Object Locator'
PUBLIC	??_R0?AVbad_alloc@std@@@8			; std::bad_alloc `RTTI Type Descriptor'
PUBLIC	??_R3bad_alloc@std@@8				; std::bad_alloc::`RTTI Class Hierarchy Descriptor'
PUBLIC	??_R2bad_alloc@std@@8				; std::bad_alloc::`RTTI Base Class Array'
PUBLIC	??_R1A@?0A@EA@bad_alloc@std@@8			; std::bad_alloc::`RTTI Base Class Descriptor at (0,-1,0,64)'
PUBLIC	??_R1A@?0A@EA@exception@std@@8			; std::exception::`RTTI Base Class Descriptor at (0,-1,0,64)'
PUBLIC	??_R0?AVexception@std@@@8			; std::exception `RTTI Type Descriptor'
PUBLIC	??_R3exception@std@@8				; std::exception::`RTTI Class Hierarchy Descriptor'
PUBLIC	??_R2exception@std@@8				; std::exception::`RTTI Base Class Array'
EXTRN	__imp_??0exception@std@@QAE@ABQBD@Z:PROC
EXTRN	??_Ebad_alloc@std@@UAEPAXI@Z:PROC		; std::bad_alloc::`vector deleting destructor'
EXTRN	?what@exception@std@@UBEPBDXZ:PROC		; std::exception::what
;	COMDAT ??_R2exception@std@@8
; File c:\program files (x86)\microsoft visual studio 10.0\vc\include\exception
rdata$r	SEGMENT
??_R2exception@std@@8 DD FLAT:??_R1A@?0A@EA@exception@std@@8 ; std::exception::`RTTI Base Class Array'
rdata$r	ENDS
;	COMDAT ??_R3exception@std@@8
rdata$r	SEGMENT
??_R3exception@std@@8 DD 00H				; std::exception::`RTTI Class Hierarchy Descriptor'
	DD	00H
	DD	01H
	DD	FLAT:??_R2exception@std@@8
rdata$r	ENDS
;	COMDAT ??_R0?AVexception@std@@@8
_DATA	SEGMENT
??_R0?AVexception@std@@@8 DD FLAT:??_7type_info@@6B@	; std::exception `RTTI Type Descriptor'
	DD	00H
	DB	'.?AVexception@std@@', 00H
_DATA	ENDS
;	COMDAT ??_R1A@?0A@EA@exception@std@@8
rdata$r	SEGMENT
??_R1A@?0A@EA@exception@std@@8 DD FLAT:??_R0?AVexception@std@@@8 ; std::exception::`RTTI Base Class Descriptor at (0,-1,0,64)'
	DD	00H
	DD	00H
	DD	0ffffffffH
	DD	00H
	DD	040H
	DD	FLAT:??_R3exception@std@@8
rdata$r	ENDS
;	COMDAT ??_R1A@?0A@EA@bad_alloc@std@@8
rdata$r	SEGMENT
??_R1A@?0A@EA@bad_alloc@std@@8 DD FLAT:??_R0?AVbad_alloc@std@@@8 ; std::bad_alloc::`RTTI Base Class Descriptor at (0,-1,0,64)'
	DD	01H
	DD	00H
	DD	0ffffffffH
	DD	00H
	DD	040H
	DD	FLAT:??_R3bad_alloc@std@@8
rdata$r	ENDS
;	COMDAT ??_R2bad_alloc@std@@8
rdata$r	SEGMENT
??_R2bad_alloc@std@@8 DD FLAT:??_R1A@?0A@EA@bad_alloc@std@@8 ; std::bad_alloc::`RTTI Base Class Array'
	DD	FLAT:??_R1A@?0A@EA@exception@std@@8
rdata$r	ENDS
;	COMDAT ??_R3bad_alloc@std@@8
rdata$r	SEGMENT
??_R3bad_alloc@std@@8 DD 00H				; std::bad_alloc::`RTTI Class Hierarchy Descriptor'
	DD	00H
	DD	02H
	DD	FLAT:??_R2bad_alloc@std@@8
rdata$r	ENDS
;	COMDAT ??_R0?AVbad_alloc@std@@@8
_DATA	SEGMENT
??_R0?AVbad_alloc@std@@@8 DD FLAT:??_7type_info@@6B@	; std::bad_alloc `RTTI Type Descriptor'
	DD	00H
	DB	'.?AVbad_alloc@std@@', 00H
_DATA	ENDS
;	COMDAT ??_R4bad_alloc@std@@6B@
rdata$r	SEGMENT
??_R4bad_alloc@std@@6B@ DD 00H				; std::bad_alloc::`RTTI Complete Object Locator'
	DD	00H
	DD	00H
	DD	FLAT:??_R0?AVbad_alloc@std@@@8
	DD	FLAT:??_R3bad_alloc@std@@8
rdata$r	ENDS
;	COMDAT ??_7bad_alloc@std@@6B@
CONST	SEGMENT
??_7bad_alloc@std@@6B@ DD FLAT:??_R4bad_alloc@std@@6B@	; std::bad_alloc::`vftable'
	DD	FLAT:??_Ebad_alloc@std@@UAEPAXI@Z
	DD	FLAT:?what@exception@std@@UBEPBDXZ
; Function compile flags: /Ogsp
CONST	ENDS
;	COMDAT ??0bad_alloc@std@@QAE@PBD@Z
_TEXT	SEGMENT
__Message$ = 8						; size = 4
??0bad_alloc@std@@QAE@PBD@Z PROC			; std::bad_alloc::bad_alloc, COMDAT
; _this$ = ecx

; 345  : 		{	// construct from message string

  00000	55		 push	 ebp
  00001	8b ec		 mov	 ebp, esp
  00003	56		 push	 esi
  00004	8d 45 08	 lea	 eax, DWORD PTR __Message$[ebp]
  00007	50		 push	 eax
  00008	8b f1		 mov	 esi, ecx
  0000a	ff 15 00 00 00
	00		 call	 DWORD PTR __imp_??0exception@std@@QAE@ABQBD@Z
  00010	c7 06 00 00 00
	00		 mov	 DWORD PTR [esi], OFFSET ??_7bad_alloc@std@@6B@

; 346  : 		}

  00016	8b c6		 mov	 eax, esi
  00018	5e		 pop	 esi
  00019	5d		 pop	 ebp
  0001a	c2 04 00	 ret	 4
??0bad_alloc@std@@QAE@PBD@Z ENDP			; std::bad_alloc::bad_alloc
_TEXT	ENDS
PUBLIC	??1bad_alloc@std@@UAE@XZ			; std::bad_alloc::~bad_alloc
EXTRN	__imp_??1exception@std@@UAE@XZ:PROC
; Function compile flags: /Ogsp
;	COMDAT ??1bad_alloc@std@@UAE@XZ
_TEXT	SEGMENT
??1bad_alloc@std@@UAE@XZ PROC				; std::bad_alloc::~bad_alloc, COMDAT
; _this$ = ecx

; 354  : 		{	// destroy the object

  00000	c7 01 00 00 00
	00		 mov	 DWORD PTR [ecx], OFFSET ??_7bad_alloc@std@@6B@

; 355  : 		}

  00006	ff 25 00 00 00
	00		 jmp	 DWORD PTR __imp_??1exception@std@@UAE@XZ
??1bad_alloc@std@@UAE@XZ ENDP				; std::bad_alloc::~bad_alloc
_TEXT	ENDS
EXTRN	??3@YAXPAX@Z:PROC				; operator delete
; Function compile flags: /Ogsp
;	COMDAT ??_Gbad_alloc@std@@UAEPAXI@Z
_TEXT	SEGMENT
___flags$ = 8						; size = 4
??_Gbad_alloc@std@@UAEPAXI@Z PROC			; std::bad_alloc::`scalar deleting destructor', COMDAT
; _this$ = ecx
  00000	55		 push	 ebp
  00001	8b ec		 mov	 ebp, esp
  00003	56		 push	 esi
  00004	8b f1		 mov	 esi, ecx
  00006	c7 06 00 00 00
	00		 mov	 DWORD PTR [esi], OFFSET ??_7bad_alloc@std@@6B@
  0000c	ff 15 00 00 00
	00		 call	 DWORD PTR __imp_??1exception@std@@UAE@XZ
  00012	f6 45 08 01	 test	 BYTE PTR ___flags$[ebp], 1
  00016	74 07		 je	 SHORT $LN1@scalar
  00018	56		 push	 esi
  00019	e8 00 00 00 00	 call	 ??3@YAXPAX@Z		; operator delete
  0001e	59		 pop	 ecx
$LN1@scalar:
  0001f	8b c6		 mov	 eax, esi
  00021	5e		 pop	 esi
  00022	5d		 pop	 ebp
  00023	c2 04 00	 ret	 4
??_Gbad_alloc@std@@UAEPAXI@Z ENDP			; std::bad_alloc::`scalar deleting destructor'
_TEXT	ENDS
PUBLIC	?iwm_create@TradeItemRegisterWnd@@UAEXXZ	; TradeItemRegisterWnd::iwm_create
; Function compile flags: /Ogsp
; File d:\lost saga for developer\youtube\tutorial\source\src\lsclient\gui\tradeitemregisterwnd.cpp
;	COMDAT ?iwm_create@TradeItemRegisterWnd@@UAEXXZ
_TEXT	SEGMENT
?iwm_create@TradeItemRegisterWnd@@UAEXXZ PROC		; TradeItemRegisterWnd::iwm_create, COMDAT
; _this$ = ecx

; 481  : }

  00000	c3		 ret	 0
?iwm_create@TradeItemRegisterWnd@@UAEXXZ ENDP		; TradeItemRegisterWnd::iwm_create
_TEXT	ENDS
PUBLIC	??2@YAPAXIPAX@Z					; operator new
; Function compile flags: /Ogsp
; File c:\program files (x86)\microsoft visual studio 10.0\vc\include\new
;	COMDAT ??2@YAPAXIPAX@Z
_TEXT	SEGMENT
___formal$ = 8						; size = 4
__Where$ = 12						; size = 4
??2@YAPAXIPAX@Z PROC					; operator new, COMDAT

; 56   : 	{	// construct array with placement at _Where

  00000	55		 push	 ebp
  00001	8b ec		 mov	 ebp, esp

; 57   : 	return (_Where);

  00003	8b 45 0c	 mov	 eax, DWORD PTR __Where$[ebp]

; 58   : 	}

  00006	5d		 pop	 ebp
  00007	c3		 ret	 0
??2@YAPAXIPAX@Z ENDP					; operator new
_TEXT	ENDS
PUBLIC	?iwm_hide@TradeItemRegisterWnd@@UAEXXZ		; TradeItemRegisterWnd::iwm_hide
EXTRN	__imp_?HideChildWnd@ioWnd@@QAEXK_N@Z:PROC
; Function compile flags: /Ogsp
; File d:\lost saga for developer\youtube\tutorial\source\src\lsclient\gui\tradeitemregisterwnd.cpp
;	COMDAT ?iwm_hide@TradeItemRegisterWnd@@UAEXXZ
_TEXT	SEGMENT
?iwm_hide@TradeItemRegisterWnd@@UAEXXZ PROC		; TradeItemRegisterWnd::iwm_hide, COMDAT
; _this$ = ecx

; 506  : {

  00000	56		 push	 esi
  00001	57		 push	 edi
  00002	8b f9		 mov	 edi, ecx

; 507  : 	for (int i = 0; i < MAX_ITEM_INFO_WND_BTN ; i++)

  00004	33 f6		 xor	 esi, esi
$LL3@iwm_hide:

; 508  : 		HideChildWnd( ID_ITEM_INFO_WND_1_BTN + i );

  00006	6a 00		 push	 0
  00008	8d 86 c9 00 00
	00		 lea	 eax, DWORD PTR [esi+201]
  0000e	50		 push	 eax
  0000f	8b cf		 mov	 ecx, edi
  00011	ff 15 00 00 00
	00		 call	 DWORD PTR __imp_?HideChildWnd@ioWnd@@QAEXK_N@Z
  00017	46		 inc	 esi
  00018	83 fe 08	 cmp	 esi, 8
  0001b	7c e9		 jl	 SHORT $LL3@iwm_hide

; 509  : }

  0001d	5f		 pop	 edi
  0001e	5e		 pop	 esi
  0001f	c3		 ret	 0
?iwm_hide@TradeItemRegisterWnd@@UAEXXZ ENDP		; TradeItemRegisterWnd::iwm_hide
_TEXT	ENDS
PUBLIC	??3@YAXPAX0@Z					; operator delete
; Function compile flags: /Ogsp
; File c:\program files (x86)\microsoft visual studio 10.0\vc\include\new
;	COMDAT ??3@YAXPAX0@Z
_TEXT	SEGMENT
___formal$ = 8						; size = 4
___formal$ = 12						; size = 4
??3@YAXPAX0@Z PROC					; operator delete, COMDAT

; 62   : 	}

  00000	c3		 ret	 0
??3@YAXPAX0@Z ENDP					; operator delete
_TEXT	ENDS
PUBLIC	??1tagInventoryItemInfo@@QAE@XZ			; tagInventoryItemInfo::~tagInventoryItemInfo
; Function compile flags: /Ogsp
;	COMDAT ??1tagInventoryItemInfo@@QAE@XZ
_TEXT	SEGMENT
??1tagInventoryItemInfo@@QAE@XZ PROC			; tagInventoryItemInfo::~tagInventoryItemInfo, COMDAT
; _this$ = ecx
  00000	83 c1 24	 add	 ecx, 36			; 00000024H
  00003	ff 25 00 00 00
	00		 jmp	 DWORD PTR __imp_??1ioHashString@@QAE@XZ
??1tagInventoryItemInfo@@QAE@XZ ENDP			; tagInventoryItemInfo::~tagInventoryItemInfo
_TEXT	ENDS
PUBLIC	??0tagInventoryItemInfo@@QAE@ABU0@@Z		; tagInventoryItemInfo::tagInventoryItemInfo
EXTRN	__imp_??0ioHashString@@QAE@ABV0@@Z:PROC
; Function compile flags: /Ogsp
;	COMDAT ??0tagInventoryItemInfo@@QAE@ABU0@@Z
_TEXT	SEGMENT
___that$ = 8						; size = 4
??0tagInventoryItemInfo@@QAE@ABU0@@Z PROC		; tagInventoryItemInfo::tagInventoryItemInfo, COMDAT
; _this$ = ecx
  00000	55		 push	 ebp
  00001	8b ec		 mov	 ebp, esp
  00003	56		 push	 esi
  00004	8b f1		 mov	 esi, ecx
  00006	57		 push	 edi
  00007	8b 7d 08	 mov	 edi, DWORD PTR ___that$[ebp]
  0000a	8b 07		 mov	 eax, DWORD PTR [edi]
  0000c	89 06		 mov	 DWORD PTR [esi], eax
  0000e	8b 47 04	 mov	 eax, DWORD PTR [edi+4]
  00011	89 46 04	 mov	 DWORD PTR [esi+4], eax
  00014	8b 47 08	 mov	 eax, DWORD PTR [edi+8]
  00017	89 46 08	 mov	 DWORD PTR [esi+8], eax
  0001a	8b 47 0c	 mov	 eax, DWORD PTR [edi+12]
  0001d	89 46 0c	 mov	 DWORD PTR [esi+12], eax
  00020	8b 47 10	 mov	 eax, DWORD PTR [edi+16]
  00023	89 46 10	 mov	 DWORD PTR [esi+16], eax
  00026	8a 47 14	 mov	 al, BYTE PTR [edi+20]
  00029	88 46 14	 mov	 BYTE PTR [esi+20], al
  0002c	8b 47 18	 mov	 eax, DWORD PTR [edi+24]
  0002f	89 46 18	 mov	 DWORD PTR [esi+24], eax
  00032	8b 47 1c	 mov	 eax, DWORD PTR [edi+28]
  00035	89 46 1c	 mov	 DWORD PTR [esi+28], eax
  00038	8b 47 20	 mov	 eax, DWORD PTR [edi+32]
  0003b	89 46 20	 mov	 DWORD PTR [esi+32], eax
  0003e	8d 47 24	 lea	 eax, DWORD PTR [edi+36]
  00041	50		 push	 eax
  00042	8d 4e 24	 lea	 ecx, DWORD PTR [esi+36]
  00045	ff 15 00 00 00
	00		 call	 DWORD PTR __imp_??0ioHashString@@QAE@ABV0@@Z
  0004b	8b 47 34	 mov	 eax, DWORD PTR [edi+52]
  0004e	89 46 34	 mov	 DWORD PTR [esi+52], eax
  00051	8b 47 38	 mov	 eax, DWORD PTR [edi+56]
  00054	89 46 38	 mov	 DWORD PTR [esi+56], eax
  00057	8a 47 3c	 mov	 al, BYTE PTR [edi+60]
  0005a	88 46 3c	 mov	 BYTE PTR [esi+60], al
  0005d	8b 47 40	 mov	 eax, DWORD PTR [edi+64]
  00060	89 46 40	 mov	 DWORD PTR [esi+64], eax
  00063	8b 47 44	 mov	 eax, DWORD PTR [edi+68]
  00066	89 46 44	 mov	 DWORD PTR [esi+68], eax
  00069	5f		 pop	 edi
  0006a	8b c6		 mov	 eax, esi
  0006c	5e		 pop	 esi
  0006d	5d		 pop	 ebp
  0006e	c2 04 00	 ret	 4
??0tagInventoryItemInfo@@QAE@ABU0@@Z ENDP		; tagInventoryItemInfo::tagInventoryItemInfo
_TEXT	ENDS
PUBLIC	?GetTabType@TradeItemRegisterWnd@@IAEHK@Z	; TradeItemRegisterWnd::GetTabType
; Function compile flags: /Ogsp
; File d:\lost saga for developer\youtube\tutorial\source\src\lsclient\gui\tradeitemregisterwnd.cpp
;	COMDAT ?GetTabType@TradeItemRegisterWnd@@IAEHK@Z
_TEXT	SEGMENT
_dwTabID$ = 8						; size = 4
?GetTabType@TradeItemRegisterWnd@@IAEHK@Z PROC		; TradeItemRegisterWnd::GetTabType, COMDAT
; _this$ = ecx

; 868  : {

  00000	55		 push	 ebp
  00001	8b ec		 mov	 ebp, esp

; 869  : 	int iArray = ( dwTabID - ID_TAB_1_BTN );

  00003	8b 4d 08	 mov	 ecx, DWORD PTR _dwTabID$[ebp]
  00006	8d 41 9b	 lea	 eax, DWORD PTR [ecx-101]

; 870  : 	if( !COMPARE( iArray, 0, MAX_TAB_BTN ) )

  00009	83 f8 04	 cmp	 eax, 4
  0000c	77 20		 ja	 SHORT $LN7@GetTabType

; 872  : 
; 873  : 	switch( dwTabID )

  0000e	83 e9 66	 sub	 ecx, 102		; 00000066H
  00011	74 16		 je	 SHORT $LN4@GetTabType
  00013	49		 dec	 ecx
  00014	74 0e		 je	 SHORT $LN3@GetTabType
  00016	49		 dec	 ecx
  00017	74 07		 je	 SHORT $LN2@GetTabType
  00019	49		 dec	 ecx

; 883  : 	}
; 884  : 
; 885  : 	return -1;

  0001a	75 12		 jne	 SHORT $LN7@GetTabType

; 881  : 	case ID_TAB_5_BTN:
; 882  : 		return 4;

  0001c	6a 04		 push	 4
  0001e	eb 06		 jmp	 SHORT $LN11@GetTabType
$LN2@GetTabType:

; 879  : 	case ID_TAB_4_BTN:
; 880  : 		return 3;

  00020	6a 03		 push	 3
  00022	eb 02		 jmp	 SHORT $LN11@GetTabType
$LN3@GetTabType:

; 877  : 	case ID_TAB_3_BTN:
; 878  : 		return 2;

  00024	6a 02		 push	 2
$LN11@GetTabType:
  00026	58		 pop	 eax
  00027	eb 08		 jmp	 SHORT $LN9@GetTabType
$LN4@GetTabType:

; 874  : 	{
; 875  : 	case ID_TAB_2_BTN:
; 876  : 		return 1;

  00029	33 c0		 xor	 eax, eax
  0002b	40		 inc	 eax
  0002c	eb 03		 jmp	 SHORT $LN9@GetTabType
$LN7@GetTabType:

; 871  : 		return -1;

  0002e	83 c8 ff	 or	 eax, -1
$LN9@GetTabType:

; 886  : }

  00031	5d		 pop	 ebp
  00032	c2 04 00	 ret	 4
?GetTabType@TradeItemRegisterWnd@@IAEHK@Z ENDP		; TradeItemRegisterWnd::GetTabType
_TEXT	ENDS
PUBLIC	?IsRightTab@TradeItemRegisterWnd@@IAE_NKH@Z	; TradeItemRegisterWnd::IsRightTab
; Function compile flags: /Ogsp
;	COMDAT ?IsRightTab@TradeItemRegisterWnd@@IAE_NKH@Z
_TEXT	SEGMENT
_dwTabID$ = 8						; size = 4
_iValue1$ = 12						; size = 4
?IsRightTab@TradeItemRegisterWnd@@IAE_NKH@Z PROC	; TradeItemRegisterWnd::IsRightTab, COMDAT
; _this$ = ecx

; 889  : {

  00000	55		 push	 ebp
  00001	8b ec		 mov	 ebp, esp

; 890  : 	if( dwTabID == ID_TAB_1_BTN )

  00003	83 7d 08 65	 cmp	 DWORD PTR _dwTabID$[ebp], 101 ; 00000065H
  00007	75 04		 jne	 SHORT $LN3@IsRightTab

; 891  : 		return true;

  00009	b0 01		 mov	 al, 1
  0000b	eb 0e		 jmp	 SHORT $LN1@IsRightTab
$LN3@IsRightTab:

; 892  : 	else if( iValue1 == GetTabType(dwTabID) )

  0000d	ff 75 08	 push	 DWORD PTR _dwTabID$[ebp]
  00010	e8 00 00 00 00	 call	 ?GetTabType@TradeItemRegisterWnd@@IAEHK@Z ; TradeItemRegisterWnd::GetTabType
  00015	39 45 0c	 cmp	 DWORD PTR _iValue1$[ebp], eax
  00018	0f 94 c0	 sete	 al
$LN1@IsRightTab:

; 893  : 		return true;
; 894  : 
; 895  : 	return false;
; 896  : }

  0001b	5d		 pop	 ebp
  0001c	c2 08 00	 ret	 8
?IsRightTab@TradeItemRegisterWnd@@IAE_NKH@Z ENDP	; TradeItemRegisterWnd::IsRightTab
_TEXT	ENDS
PUBLIC	??4tagInventoryItemInfo@@QAEAAU0@ABU0@@Z	; tagInventoryItemInfo::operator=
EXTRN	__imp_??4ioHashString@@QAEAAV0@ABV0@@Z:PROC
; Function compile flags: /Ogsp
;	COMDAT ??4tagInventoryItemInfo@@QAEAAU0@ABU0@@Z
_TEXT	SEGMENT
___that$ = 8						; size = 4
??4tagInventoryItemInfo@@QAEAAU0@ABU0@@Z PROC		; tagInventoryItemInfo::operator=, COMDAT
; _this$ = ecx
  00000	55		 push	 ebp
  00001	8b ec		 mov	 ebp, esp
  00003	56		 push	 esi
  00004	8b f1		 mov	 esi, ecx
  00006	57		 push	 edi
  00007	8b 7d 08	 mov	 edi, DWORD PTR ___that$[ebp]
  0000a	8b 07		 mov	 eax, DWORD PTR [edi]
  0000c	89 06		 mov	 DWORD PTR [esi], eax
  0000e	8b 47 04	 mov	 eax, DWORD PTR [edi+4]
  00011	89 46 04	 mov	 DWORD PTR [esi+4], eax
  00014	8b 47 08	 mov	 eax, DWORD PTR [edi+8]
  00017	89 46 08	 mov	 DWORD PTR [esi+8], eax
  0001a	8b 47 0c	 mov	 eax, DWORD PTR [edi+12]
  0001d	89 46 0c	 mov	 DWORD PTR [esi+12], eax
  00020	8b 47 10	 mov	 eax, DWORD PTR [edi+16]
  00023	89 46 10	 mov	 DWORD PTR [esi+16], eax
  00026	8a 47 14	 mov	 al, BYTE PTR [edi+20]
  00029	88 46 14	 mov	 BYTE PTR [esi+20], al
  0002c	8b 47 18	 mov	 eax, DWORD PTR [edi+24]
  0002f	89 46 18	 mov	 DWORD PTR [esi+24], eax
  00032	8b 47 1c	 mov	 eax, DWORD PTR [edi+28]
  00035	89 46 1c	 mov	 DWORD PTR [esi+28], eax
  00038	8b 47 20	 mov	 eax, DWORD PTR [edi+32]
  0003b	89 46 20	 mov	 DWORD PTR [esi+32], eax
  0003e	8d 47 24	 lea	 eax, DWORD PTR [edi+36]
  00041	50		 push	 eax
  00042	8d 4e 24	 lea	 ecx, DWORD PTR [esi+36]
  00045	ff 15 00 00 00
	00		 call	 DWORD PTR __imp_??4ioHashString@@QAEAAV0@ABV0@@Z
  0004b	8b 47 34	 mov	 eax, DWORD PTR [edi+52]
  0004e	89 46 34	 mov	 DWORD PTR [esi+52], eax
  00051	8b 47 38	 mov	 eax, DWORD PTR [edi+56]
  00054	89 46 38	 mov	 DWORD PTR [esi+56], eax
  00057	8a 47 3c	 mov	 al, BYTE PTR [edi+60]
  0005a	88 46 3c	 mov	 BYTE PTR [esi+60], al
  0005d	8b 47 40	 mov	 eax, DWORD PTR [edi+64]
  00060	89 46 40	 mov	 DWORD PTR [esi+64], eax
  00063	8b 47 44	 mov	 eax, DWORD PTR [edi+68]
  00066	89 46 44	 mov	 DWORD PTR [esi+68], eax
  00069	5f		 pop	 edi
  0006a	8b c6		 mov	 eax, esi
  0006c	5e		 pop	 esi
  0006d	5d		 pop	 ebp
  0006e	c2 04 00	 ret	 4
??4tagInventoryItemInfo@@QAEAAU0@ABU0@@Z ENDP		; tagInventoryItemInfo::operator=
_TEXT	ENDS
PUBLIC	?size@?$vector@UtagInventoryItemInfo@@V?$allocator@UtagInventoryItemInfo@@@std@@@std@@QBEIXZ ; std::vector<tagInventoryItemInfo,std::allocator<tagInventoryItemInfo> >::size
; Function compile flags: /Ogsp
; File c:\program files (x86)\microsoft visual studio 10.0\vc\include\vector
;	COMDAT ?size@?$vector@UtagInventoryItemInfo@@V?$allocator@UtagInventoryItemInfo@@@std@@@std@@QBEIXZ
_TEXT	SEGMENT
?size@?$vector@UtagInventoryItemInfo@@V?$allocator@UtagInventoryItemInfo@@@std@@@std@@QBEIXZ PROC ; std::vector<tagInventoryItemInfo,std::allocator<tagInventoryItemInfo> >::size, COMDAT
; _this$ = ecx

; 879  : 		return (this->_Mylast - this->_Myfirst);

  00000	8b 41 04	 mov	 eax, DWORD PTR [ecx+4]
  00003	2b 01		 sub	 eax, DWORD PTR [ecx]
  00005	6a 48		 push	 72			; 00000048H
  00007	99		 cdq
  00008	59		 pop	 ecx
  00009	f7 f9		 idiv	 ecx

; 880  : 		}

  0000b	c3		 ret	 0
?size@?$vector@UtagInventoryItemInfo@@V?$allocator@UtagInventoryItemInfo@@@std@@@std@@QBEIXZ ENDP ; std::vector<tagInventoryItemInfo,std::allocator<tagInventoryItemInfo> >::size
_TEXT	ENDS
PUBLIC	?empty@?$vector@UtagInventoryItemInfo@@V?$allocator@UtagInventoryItemInfo@@@std@@@std@@QBE_NXZ ; std::vector<tagInventoryItemInfo,std::allocator<tagInventoryItemInfo> >::empty
; Function compile flags: /Ogsp
;	COMDAT ?empty@?$vector@UtagInventoryItemInfo@@V?$allocator@UtagInventoryItemInfo@@@std@@@std@@QBE_NXZ
_TEXT	SEGMENT
?empty@?$vector@UtagInventoryItemInfo@@V?$allocator@UtagInventoryItemInfo@@@std@@@std@@QBE_NXZ PROC ; std::vector<tagInventoryItemInfo,std::allocator<tagInventoryItemInfo> >::empty, COMDAT
; _this$ = ecx

; 889  : 		return (this->_Myfirst == this->_Mylast);

  00000	8b 01		 mov	 eax, DWORD PTR [ecx]
  00002	2b 41 04	 sub	 eax, DWORD PTR [ecx+4]
  00005	f7 d8		 neg	 eax
  00007	1b c0		 sbb	 eax, eax
  00009	40		 inc	 eax

; 890  : 		}

  0000a	c3		 ret	 0
?empty@?$vector@UtagInventoryItemInfo@@V?$allocator@UtagInventoryItemInfo@@@std@@@std@@QBE_NXZ ENDP ; std::vector<tagInventoryItemInfo,std::allocator<tagInventoryItemInfo> >::empty
_TEXT	ENDS
PUBLIC	??A?$vector@UtagInventoryItemInfo@@V?$allocator@UtagInventoryItemInfo@@@std@@@std@@QAEAAUtagInventoryItemInfo@@I@Z ; std::vector<tagInventoryItemInfo,std::allocator<tagInventoryItemInfo> >::operator[]
; Function compile flags: /Ogsp
;	COMDAT ??A?$vector@UtagInventoryItemInfo@@V?$allocator@UtagInventoryItemInfo@@@std@@@std@@QAEAAUtagInventoryItemInfo@@I@Z
_TEXT	SEGMENT
__Pos$ = 8						; size = 4
??A?$vector@UtagInventoryItemInfo@@V?$allocator@UtagInventoryItemInfo@@@std@@@std@@QAEAAUtagInventoryItemInfo@@I@Z PROC ; std::vector<tagInventoryItemInfo,std::allocator<tagInventoryItemInfo> >::operator[], COMDAT
; _this$ = ecx

; 928  : 		{	// subscript mutable sequence

  00000	55		 push	 ebp
  00001	8b ec		 mov	 ebp, esp

; 929  :  #if _ITERATOR_DEBUG_LEVEL == 2
; 930  : 		if (size() <= _Pos)
; 931  : 			{	// report error
; 932  : 			_DEBUG_ERROR("vector subscript out of range");
; 933  : 			_SCL_SECURE_OUT_OF_RANGE;
; 934  : 			}
; 935  : 
; 936  :  #elif _ITERATOR_DEBUG_LEVEL == 1
; 937  : 		_SCL_SECURE_VALIDATE_RANGE(_Pos < size());
; 938  :  #endif /* _ITERATOR_DEBUG_LEVEL */
; 939  : 
; 940  : 		return (*(this->_Myfirst + _Pos));

  00003	8b 45 08	 mov	 eax, DWORD PTR __Pos$[ebp]
  00006	6b c0 48	 imul	 eax, 72			; 00000048H
  00009	03 01		 add	 eax, DWORD PTR [ecx]

; 941  : 		}

  0000b	5d		 pop	 ebp
  0000c	c2 04 00	 ret	 4
??A?$vector@UtagInventoryItemInfo@@V?$allocator@UtagInventoryItemInfo@@@std@@@std@@QAEAAUtagInventoryItemInfo@@I@Z ENDP ; std::vector<tagInventoryItemInfo,std::allocator<tagInventoryItemInfo> >::operator[]
_TEXT	ENDS
PUBLIC	?_Adopt@_Iterator_base0@std@@QAEXPBX@Z		; std::_Iterator_base0::_Adopt
; Function compile flags: /Ogsp
; File c:\program files (x86)\microsoft visual studio 10.0\vc\include\xutility
;	COMDAT ?_Adopt@_Iterator_base0@std@@QAEXPBX@Z
_TEXT	SEGMENT
___formal$ = 8						; size = 4
?_Adopt@_Iterator_base0@std@@QAEXPBX@Z PROC		; std::_Iterator_base0::_Adopt, COMDAT
; _this$ = ecx

; 49   : 		}

  00000	c2 04 00	 ret	 4
?_Adopt@_Iterator_base0@std@@QAEXPBX@Z ENDP		; std::_Iterator_base0::_Adopt
_TEXT	ENDS
PUBLIC	?_Inside@?$vector@UtagInventoryItemInfo@@V?$allocator@UtagInventoryItemInfo@@@std@@@std@@IBE_NPBUtagInventoryItemInfo@@@Z ; std::vector<tagInventoryItemInfo,std::allocator<tagInventoryItemInfo> >::_Inside
; Function compile flags: /Ogsp
; File c:\program files (x86)\microsoft visual studio 10.0\vc\include\vector
;	COMDAT ?_Inside@?$vector@UtagInventoryItemInfo@@V?$allocator@UtagInventoryItemInfo@@@std@@@std@@IBE_NPBUtagInventoryItemInfo@@@Z
_TEXT	SEGMENT
__Ptr$ = 8						; size = 4
?_Inside@?$vector@UtagInventoryItemInfo@@V?$allocator@UtagInventoryItemInfo@@@std@@@std@@IBE_NPBUtagInventoryItemInfo@@@Z PROC ; std::vector<tagInventoryItemInfo,std::allocator<tagInventoryItemInfo> >::_Inside, COMDAT
; _this$ = ecx

; 1285 : 		{	// test if _Ptr points inside vector

  00000	55		 push	 ebp
  00001	8b ec		 mov	 ebp, esp

; 1286 : 		return (_Ptr < this->_Mylast && this->_Myfirst <= _Ptr);

  00003	8b 45 08	 mov	 eax, DWORD PTR __Ptr$[ebp]
  00006	3b 41 04	 cmp	 eax, DWORD PTR [ecx+4]
  00009	73 09		 jae	 SHORT $LN3@Inside
  0000b	39 01		 cmp	 DWORD PTR [ecx], eax
  0000d	77 05		 ja	 SHORT $LN3@Inside
  0000f	33 c0		 xor	 eax, eax
  00011	40		 inc	 eax
  00012	eb 02		 jmp	 SHORT $LN4@Inside
$LN3@Inside:
  00014	33 c0		 xor	 eax, eax
$LN4@Inside:

; 1287 : 		}

  00016	5d		 pop	 ebp
  00017	c2 04 00	 ret	 4
?_Inside@?$vector@UtagInventoryItemInfo@@V?$allocator@UtagInventoryItemInfo@@@std@@@std@@IBE_NPBUtagInventoryItemInfo@@@Z ENDP ; std::vector<tagInventoryItemInfo,std::allocator<tagInventoryItemInfo> >::_Inside
_TEXT	ENDS
PUBLIC	?_Orphan_range@?$vector@UtagInventoryItemInfo@@V?$allocator@UtagInventoryItemInfo@@@std@@@std@@IBEXPAUtagInventoryItemInfo@@0@Z ; std::vector<tagInventoryItemInfo,std::allocator<tagInventoryItemInfo> >::_Orphan_range
; Function compile flags: /Ogsp
;	COMDAT ?_Orphan_range@?$vector@UtagInventoryItemInfo@@V?$allocator@UtagInventoryItemInfo@@@std@@@std@@IBEXPAUtagInventoryItemInfo@@0@Z
_TEXT	SEGMENT
___formal$ = 8						; size = 4
___formal$ = 12						; size = 4
?_Orphan_range@?$vector@UtagInventoryItemInfo@@V?$allocator@UtagInventoryItemInfo@@@std@@@std@@IBEXPAUtagInventoryItemInfo@@0@Z PROC ; std::vector<tagInventoryItemInfo,std::allocator<tagInventoryItemInfo> >::_Orphan_range, COMDAT
; _this$ = ecx

; 1454 : 		}

  00000	c2 08 00	 ret	 8
?_Orphan_range@?$vector@UtagInventoryItemInfo@@V?$allocator@UtagInventoryItemInfo@@@std@@@std@@IBEXPAUtagInventoryItemInfo@@0@Z ENDP ; std::vector<tagInventoryItemInfo,std::allocator<tagInventoryItemInfo> >::_Orphan_range
_TEXT	ENDS
PUBLIC	??1?$_Vector_val@UtagInventoryItemInfo@@V?$allocator@UtagInventoryItemInfo@@@std@@@std@@QAE@XZ ; std::_Vector_val<tagInventoryItemInfo,std::allocator<tagInventoryItemInfo> >::~_Vector_val<tagInventoryItemInfo,std::allocator<tagInventoryItemInfo> >
; Function compile flags: /Ogsp
;	COMDAT ??1?$_Vector_val@UtagInventoryItemInfo@@V?$allocator@UtagInventoryItemInfo@@@std@@@std@@QAE@XZ
_TEXT	SEGMENT
??1?$_Vector_val@UtagInventoryItemInfo@@V?$allocator@UtagInventoryItemInfo@@@std@@@std@@QAE@XZ PROC ; std::_Vector_val<tagInventoryItemInfo,std::allocator<tagInventoryItemInfo> >::~_Vector_val<tagInventoryItemInfo,std::allocator<tagInventoryItemInfo> >, COMDAT
; _this$ = ecx

; 434  : 		}

  00000	c3		 ret	 0
??1?$_Vector_val@UtagInventoryItemInfo@@V?$allocator@UtagInventoryItemInfo@@@std@@@std@@QAE@XZ ENDP ; std::_Vector_val<tagInventoryItemInfo,std::allocator<tagInventoryItemInfo> >::~_Vector_val<tagInventoryItemInfo,std::allocator<tagInventoryItemInfo> >
_TEXT	ENDS
PUBLIC	??0?$allocator@UtagInventoryItemInfo@@@std@@QAE@XZ ; std::allocator<tagInventoryItemInfo>::allocator<tagInventoryItemInfo>
; Function compile flags: /Ogsp
; File c:\program files (x86)\microsoft visual studio 10.0\vc\include\xmemory
;	COMDAT ??0?$allocator@UtagInventoryItemInfo@@@std@@QAE@XZ
_TEXT	SEGMENT
??0?$allocator@UtagInventoryItemInfo@@@std@@QAE@XZ PROC	; std::allocator<tagInventoryItemInfo>::allocator<tagInventoryItemInfo>, COMDAT
; _this$ = ecx

; 161  : 	_ALLOCATOR() _THROW0()

  00000	8b c1		 mov	 eax, ecx

; 162  : 		{	// construct default allocator (do nothing)
; 163  : 		}

  00002	c3		 ret	 0
??0?$allocator@UtagInventoryItemInfo@@@std@@QAE@XZ ENDP	; std::allocator<tagInventoryItemInfo>::allocator<tagInventoryItemInfo>
_TEXT	ENDS
PUBLIC	?capacity@?$vector@UtagInventoryItemInfo@@V?$allocator@UtagInventoryItemInfo@@@std@@@std@@QBEIXZ ; std::vector<tagInventoryItemInfo,std::allocator<tagInventoryItemInfo> >::capacity
; Function compile flags: /Ogsp
; File c:\program files (x86)\microsoft visual studio 10.0\vc\include\vector
;	COMDAT ?capacity@?$vector@UtagInventoryItemInfo@@V?$allocator@UtagInventoryItemInfo@@@std@@@std@@QBEIXZ
_TEXT	SEGMENT
?capacity@?$vector@UtagInventoryItemInfo@@V?$allocator@UtagInventoryItemInfo@@@std@@@std@@QBEIXZ PROC ; std::vector<tagInventoryItemInfo,std::allocator<tagInventoryItemInfo> >::capacity, COMDAT
; _this$ = ecx

; 777  : 		return (this->_Myend - this->_Myfirst);

  00000	8b 41 08	 mov	 eax, DWORD PTR [ecx+8]
  00003	2b 01		 sub	 eax, DWORD PTR [ecx]
  00005	6a 48		 push	 72			; 00000048H
  00007	99		 cdq
  00008	59		 pop	 ecx
  00009	f7 f9		 idiv	 ecx

; 778  : 		}

  0000b	c3		 ret	 0
?capacity@?$vector@UtagInventoryItemInfo@@V?$allocator@UtagInventoryItemInfo@@@std@@@std@@QBEIXZ ENDP ; std::vector<tagInventoryItemInfo,std::allocator<tagInventoryItemInfo> >::capacity
_TEXT	ENDS
PUBLIC	??_C@_0BD@OLBABOEK@vector?$DMT?$DO?5too?5long?$AA@ ; `string'
PUBLIC	?_Xlen@?$vector@UtagInventoryItemInfo@@V?$allocator@UtagInventoryItemInfo@@@std@@@std@@IBEXXZ ; std::vector<tagInventoryItemInfo,std::allocator<tagInventoryItemInfo> >::_Xlen
EXTRN	__imp_?_Xlength_error@std@@YAXPBD@Z:PROC
;	COMDAT ??_C@_0BD@OLBABOEK@vector?$DMT?$DO?5too?5long?$AA@
CONST	SEGMENT
??_C@_0BD@OLBABOEK@vector?$DMT?$DO?5too?5long?$AA@ DB 'vector<T> too long'
	DB	00H						; `string'
; Function compile flags: /Ogsp
CONST	ENDS
;	COMDAT ?_Xlen@?$vector@UtagInventoryItemInfo@@V?$allocator@UtagInventoryItemInfo@@@std@@@std@@IBEXXZ
_TEXT	SEGMENT
?_Xlen@?$vector@UtagInventoryItemInfo@@V?$allocator@UtagInventoryItemInfo@@@std@@@std@@IBEXXZ PROC ; std::vector<tagInventoryItemInfo,std::allocator<tagInventoryItemInfo> >::_Xlen, COMDAT
; _this$ = ecx

; 1427 : 		_Xlength_error("vector<T> too long");

  00000	68 00 00 00 00	 push	 OFFSET ??_C@_0BD@OLBABOEK@vector?$DMT?$DO?5too?5long?$AA@
  00005	ff 15 00 00 00
	00		 call	 DWORD PTR __imp_?_Xlength_error@std@@YAXPBD@Z
$LN4@Xlen:
$LN3@Xlen:
  0000b	cc		 int	 3
?_Xlen@?$vector@UtagInventoryItemInfo@@V?$allocator@UtagInventoryItemInfo@@@std@@@std@@IBEXXZ ENDP ; std::vector<tagInventoryItemInfo,std::allocator<tagInventoryItemInfo> >::_Xlen
_TEXT	ENDS
PUBLIC	??0?$allocator@UtagInventoryItemInfo@@@std@@QAE@ABV01@@Z ; std::allocator<tagInventoryItemInfo>::allocator<tagInventoryItemInfo>
; Function compile flags: /Ogsp
; File c:\program files (x86)\microsoft visual studio 10.0\vc\include\xmemory
;	COMDAT ??0?$allocator@UtagInventoryItemInfo@@@std@@QAE@ABV01@@Z
_TEXT	SEGMENT
___formal$ = 8						; size = 4
??0?$allocator@UtagInventoryItemInfo@@@std@@QAE@ABV01@@Z PROC ; std::allocator<tagInventoryItemInfo>::allocator<tagInventoryItemInfo>, COMDAT
; _this$ = ecx

; 165  : 	_ALLOCATOR(const _ALLOCATOR<_Ty>&) _THROW0()

  00000	8b c1		 mov	 eax, ecx

; 166  : 		{	// construct by copying (do nothing)
; 167  : 		}

  00002	c2 04 00	 ret	 4
??0?$allocator@UtagInventoryItemInfo@@@std@@QAE@ABV01@@Z ENDP ; std::allocator<tagInventoryItemInfo>::allocator<tagInventoryItemInfo>
_TEXT	ENDS
PUBLIC	?deallocate@?$allocator@UtagInventoryItemInfo@@@std@@QAEXPAUtagInventoryItemInfo@@I@Z ; std::allocator<tagInventoryItemInfo>::deallocate
; Function compile flags: /Ogsp
;	COMDAT ?deallocate@?$allocator@UtagInventoryItemInfo@@@std@@QAEXPAUtagInventoryItemInfo@@I@Z
_TEXT	SEGMENT
__Ptr$ = 8						; size = 4
___formal$ = 12						; size = 4
?deallocate@?$allocator@UtagInventoryItemInfo@@@std@@QAEXPAUtagInventoryItemInfo@@I@Z PROC ; std::allocator<tagInventoryItemInfo>::deallocate, COMDAT
; _this$ = ecx

; 181  : 		{	// deallocate object at _Ptr, ignore size

  00000	55		 push	 ebp
  00001	8b ec		 mov	 ebp, esp

; 182  : 		::operator delete(_Ptr);

  00003	ff 75 08	 push	 DWORD PTR __Ptr$[ebp]
  00006	e8 00 00 00 00	 call	 ??3@YAXPAX@Z		; operator delete
  0000b	59		 pop	 ecx

; 183  : 		}

  0000c	5d		 pop	 ebp
  0000d	c2 08 00	 ret	 8
?deallocate@?$allocator@UtagInventoryItemInfo@@@std@@QAEXPAUtagInventoryItemInfo@@I@Z ENDP ; std::allocator<tagInventoryItemInfo>::deallocate
_TEXT	ENDS
PUBLIC	??0?$_Vector_const_iterator@V?$_Vector_val@UtagInventoryItemInfo@@V?$allocator@UtagInventoryItemInfo@@@std@@@std@@@std@@QAE@PAUtagInventoryItemInfo@@PBU_Container_base0@1@@Z ; std::_Vector_const_iterator<std::_Vector_val<tagInventoryItemInfo,std::allocator<tagInventoryItemInfo> > >::_Vector_const_iterator<std::_Vector_val<tagInventoryItemInfo,std::allocator<tagInventoryItemInfo> > >
; Function compile flags: /Ogsp
; File c:\program files (x86)\microsoft visual studio 10.0\vc\include\vector
;	COMDAT ??0?$_Vector_const_iterator@V?$_Vector_val@UtagInventoryItemInfo@@V?$allocator@UtagInventoryItemInfo@@@std@@@std@@@std@@QAE@PAUtagInventoryItemInfo@@PBU_Container_base0@1@@Z
_TEXT	SEGMENT
__Parg$ = 8						; size = 4
__Pvector$ = 12						; size = 4
??0?$_Vector_const_iterator@V?$_Vector_val@UtagInventoryItemInfo@@V?$allocator@UtagInventoryItemInfo@@@std@@@std@@@std@@QAE@PAUtagInventoryItemInfo@@PBU_Container_base0@1@@Z PROC ; std::_Vector_const_iterator<std::_Vector_val<tagInventoryItemInfo,std::allocator<tagInventoryItemInfo> > >::_Vector_const_iterator<std::_Vector_val<tagInventoryItemInfo,std::allocator<tagInventoryItemInfo> > >, COMDAT
; _this$ = ecx

; 45   : 		{	// construct with pointer _Parg

  00000	55		 push	 ebp
  00001	8b ec		 mov	 ebp, esp
  00003	8b c1		 mov	 eax, ecx
  00005	8b 4d 08	 mov	 ecx, DWORD PTR __Parg$[ebp]
  00008	89 08		 mov	 DWORD PTR [eax], ecx

; 46   : 		this->_Adopt(_Pvector);
; 47   : 		}

  0000a	5d		 pop	 ebp
  0000b	c2 08 00	 ret	 8
??0?$_Vector_const_iterator@V?$_Vector_val@UtagInventoryItemInfo@@V?$allocator@UtagInventoryItemInfo@@@std@@@std@@@std@@QAE@PAUtagInventoryItemInfo@@PBU_Container_base0@1@@Z ENDP ; std::_Vector_const_iterator<std::_Vector_val<tagInventoryItemInfo,std::allocator<tagInventoryItemInfo> > >::_Vector_const_iterator<std::_Vector_val<tagInventoryItemInfo,std::allocator<tagInventoryItemInfo> > >
_TEXT	ENDS
PUBLIC	?max_size@?$allocator@UtagInventoryItemInfo@@@std@@QBEIXZ ; std::allocator<tagInventoryItemInfo>::max_size
; Function compile flags: /Ogsp
; File c:\program files (x86)\microsoft visual studio 10.0\vc\include\xmemory
;	COMDAT ?max_size@?$allocator@UtagInventoryItemInfo@@@std@@QBEIXZ
_TEXT	SEGMENT
?max_size@?$allocator@UtagInventoryItemInfo@@@std@@QBEIXZ PROC ; std::allocator<tagInventoryItemInfo>::max_size, COMDAT
; _this$ = ecx

; 218  : 		_SIZT _Count = (_SIZT)(-1) / sizeof (_Ty);
; 219  : 		return (0 < _Count ? _Count : 1);

  00000	b8 e3 38 8e 03	 mov	 eax, 59652323		; 038e38e3H

; 220  : 		}

  00005	c3		 ret	 0
?max_size@?$allocator@UtagInventoryItemInfo@@@std@@QBEIXZ ENDP ; std::allocator<tagInventoryItemInfo>::max_size
_TEXT	ENDS
PUBLIC	?_Compat@?$_Vector_const_iterator@V?$_Vector_val@UtagInventoryItemInfo@@V?$allocator@UtagInventoryItemInfo@@@std@@@std@@@std@@QBEXABV12@@Z ; std::_Vector_const_iterator<std::_Vector_val<tagInventoryItemInfo,std::allocator<tagInventoryItemInfo> > >::_Compat
; Function compile flags: /Ogsp
; File c:\program files (x86)\microsoft visual studio 10.0\vc\include\vector
;	COMDAT ?_Compat@?$_Vector_const_iterator@V?$_Vector_val@UtagInventoryItemInfo@@V?$allocator@UtagInventoryItemInfo@@@std@@@std@@@std@@QBEXABV12@@Z
_TEXT	SEGMENT
___formal$ = 8						; size = 4
?_Compat@?$_Vector_const_iterator@V?$_Vector_val@UtagInventoryItemInfo@@V?$allocator@UtagInventoryItemInfo@@@std@@@std@@@std@@QBEXABV12@@Z PROC ; std::_Vector_const_iterator<std::_Vector_val<tagInventoryItemInfo,std::allocator<tagInventoryItemInfo> > >::_Compat, COMDAT
; _this$ = ecx

; 253  : 		}

  00000	c2 04 00	 ret	 4
?_Compat@?$_Vector_const_iterator@V?$_Vector_val@UtagInventoryItemInfo@@V?$allocator@UtagInventoryItemInfo@@@std@@@std@@@std@@QBEXABV12@@Z ENDP ; std::_Vector_const_iterator<std::_Vector_val<tagInventoryItemInfo,std::allocator<tagInventoryItemInfo> > >::_Compat
_TEXT	ENDS
PUBLIC	??$addressof@$$CBUtagInventoryItemInfo@@@std@@YAPBUtagInventoryItemInfo@@ABU1@@Z ; std::addressof<tagInventoryItemInfo const >
; Function compile flags: /Ogsp
; File c:\program files (x86)\microsoft visual studio 10.0\vc\include\xmemory
;	COMDAT ??$addressof@$$CBUtagInventoryItemInfo@@@std@@YAPBUtagInventoryItemInfo@@ABU1@@Z
_TEXT	SEGMENT
__Val$ = 8						; size = 4
??$addressof@$$CBUtagInventoryItemInfo@@@std@@YAPBUtagInventoryItemInfo@@ABU1@@Z PROC ; std::addressof<tagInventoryItemInfo const >, COMDAT

; 110  : 	{	// return address of _Val

  00000	55		 push	 ebp
  00001	8b ec		 mov	 ebp, esp

; 111  : 	return ((_Ty *) &(char&)_Val);

  00003	8b 45 08	 mov	 eax, DWORD PTR __Val$[ebp]

; 112  : 	}

  00006	5d		 pop	 ebp
  00007	c3		 ret	 0
??$addressof@$$CBUtagInventoryItemInfo@@@std@@YAPBUtagInventoryItemInfo@@ABU1@@Z ENDP ; std::addressof<tagInventoryItemInfo const >
_TEXT	ENDS
PUBLIC	__TI2?AVbad_alloc@std@@
PUBLIC	??$_Allocate@UtagInventoryItemInfo@@@std@@YAPAUtagInventoryItemInfo@@IPAU1@@Z ; std::_Allocate<tagInventoryItemInfo>
PUBLIC	__CTA2?AVbad_alloc@std@@
PUBLIC	__CT??_R0?AVbad_alloc@std@@@8??0bad_alloc@std@@QAE@ABV01@@Z12
PUBLIC	??0bad_alloc@std@@QAE@ABV01@@Z			; std::bad_alloc::bad_alloc
PUBLIC	__CT??_R0?AVexception@std@@@8??0exception@std@@QAE@ABV01@@Z12
EXTRN	??2@YAPAXI@Z:PROC				; operator new
EXTRN	__CxxThrowException@8:PROC
EXTRN	??0exception@std@@QAE@ABV01@@Z:PROC		; std::exception::exception
;	COMDAT __CT??_R0?AVexception@std@@@8??0exception@std@@QAE@ABV01@@Z12
; File c:\program files (x86)\microsoft visual studio 10.0\vc\include\exception
xdata$x	SEGMENT
__CT??_R0?AVexception@std@@@8??0exception@std@@QAE@ABV01@@Z12 DD 00H
	DD	FLAT:??_R0?AVexception@std@@@8
	DD	00H
	DD	0ffffffffH
	ORG $+4
	DD	0cH
	DD	FLAT:??0exception@std@@QAE@ABV01@@Z
xdata$x	ENDS
;	COMDAT __CT??_R0?AVbad_alloc@std@@@8??0bad_alloc@std@@QAE@ABV01@@Z12
xdata$x	SEGMENT
__CT??_R0?AVbad_alloc@std@@@8??0bad_alloc@std@@QAE@ABV01@@Z12 DD 00H
	DD	FLAT:??_R0?AVbad_alloc@std@@@8
	DD	00H
	DD	0ffffffffH
	ORG $+4
	DD	0cH
	DD	FLAT:??0bad_alloc@std@@QAE@ABV01@@Z
xdata$x	ENDS
;	COMDAT __CTA2?AVbad_alloc@std@@
xdata$x	SEGMENT
__CTA2?AVbad_alloc@std@@ DD 02H
	DD	FLAT:__CT??_R0?AVbad_alloc@std@@@8??0bad_alloc@std@@QAE@ABV01@@Z12
	DD	FLAT:__CT??_R0?AVexception@std@@@8??0exception@std@@QAE@ABV01@@Z12
xdata$x	ENDS
;	COMDAT __TI2?AVbad_alloc@std@@
xdata$x	SEGMENT
__TI2?AVbad_alloc@std@@ DD 00H
	DD	FLAT:??1bad_alloc@std@@UAE@XZ
	DD	00H
	DD	FLAT:__CTA2?AVbad_alloc@std@@
; Function compile flags: /Ogsp
; File c:\program files (x86)\microsoft visual studio 10.0\vc\include\xmemory
xdata$x	ENDS
;	COMDAT ??$_Allocate@UtagInventoryItemInfo@@@std@@YAPAUtagInventoryItemInfo@@IPAU1@@Z
_TEXT	SEGMENT
$T510874 = -12						; size = 12
$T510879 = 8						; size = 4
__Count$ = 8						; size = 4
___formal$ = 12						; size = 4
??$_Allocate@UtagInventoryItemInfo@@@std@@YAPAUtagInventoryItemInfo@@IPAU1@@Z PROC ; std::_Allocate<tagInventoryItemInfo>, COMDAT

; 30   : 	{	// allocate storage for _Count elements of type _Ty

  00000	55		 push	 ebp
  00001	8b ec		 mov	 ebp, esp

; 31   : 	void *_Ptr = 0;
; 32   : 
; 33   : 	if (_Count <= 0)

  00003	8b 4d 08	 mov	 ecx, DWORD PTR __Count$[ebp]
  00006	83 ec 0c	 sub	 esp, 12			; 0000000cH
  00009	33 c0		 xor	 eax, eax
  0000b	85 c9		 test	 ecx, ecx

; 34   : 		_Count = 0;
; 35   : 	else if (((_SIZT)(-1) / sizeof (_Ty) < _Count)

  0000d	74 3c		 je	 SHORT $LN5@Allocate

; 36   : 		|| (_Ptr = ::operator new(_Count * sizeof (_Ty))) == 0)

  0000f	81 f9 e3 38 8e
	03		 cmp	 ecx, 59652323		; 038e38e3H
  00015	77 0e		 ja	 SHORT $LN1@Allocate
  00017	6b c9 48	 imul	 ecx, 72			; 00000048H
  0001a	51		 push	 ecx
  0001b	e8 00 00 00 00	 call	 ??2@YAPAXI@Z		; operator new
  00020	59		 pop	 ecx
  00021	85 c0		 test	 eax, eax

; 38   : 
; 39   : 	return ((_Ty _FARQ *)_Ptr);

  00023	75 26		 jne	 SHORT $LN5@Allocate
$LN1@Allocate:

; 37   : 		_THROW_NCEE(bad_alloc, 0);

  00025	83 65 08 00	 and	 DWORD PTR $T510879[ebp], 0
  00029	8d 45 08	 lea	 eax, DWORD PTR $T510879[ebp]
  0002c	50		 push	 eax
  0002d	8d 4d f4	 lea	 ecx, DWORD PTR $T510874[ebp]
  00030	ff 15 00 00 00
	00		 call	 DWORD PTR __imp_??0exception@std@@QAE@ABQBD@Z
  00036	68 00 00 00 00	 push	 OFFSET __TI2?AVbad_alloc@std@@
  0003b	8d 45 f4	 lea	 eax, DWORD PTR $T510874[ebp]
  0003e	50		 push	 eax
  0003f	c7 45 f4 00 00
	00 00		 mov	 DWORD PTR $T510874[ebp], OFFSET ??_7bad_alloc@std@@6B@
  00046	e8 00 00 00 00	 call	 __CxxThrowException@8
$LN10@Allocate:
$LN5@Allocate:

; 40   : 	}

  0004b	c9		 leave
  0004c	c3		 ret	 0
$LN9@Allocate:
??$_Allocate@UtagInventoryItemInfo@@@std@@YAPAUtagInventoryItemInfo@@IPAU1@@Z ENDP ; std::_Allocate<tagInventoryItemInfo>
_TEXT	ENDS
PUBLIC	??G?$_Vector_const_iterator@V?$_Vector_val@UtagInventoryItemInfo@@V?$allocator@UtagInventoryItemInfo@@@std@@@std@@@std@@QBEHABV01@@Z ; std::_Vector_const_iterator<std::_Vector_val<tagInventoryItemInfo,std::allocator<tagInventoryItemInfo> > >::operator-
; Function compile flags: /Ogsp
; File c:\program files (x86)\microsoft visual studio 10.0\vc\include\vector
;	COMDAT ??G?$_Vector_const_iterator@V?$_Vector_val@UtagInventoryItemInfo@@V?$allocator@UtagInventoryItemInfo@@@std@@@std@@@std@@QBEHABV01@@Z
_TEXT	SEGMENT
__Right$ = 8						; size = 4
??G?$_Vector_const_iterator@V?$_Vector_val@UtagInventoryItemInfo@@V?$allocator@UtagInventoryItemInfo@@@std@@@std@@@std@@QBEHABV01@@Z PROC ; std::_Vector_const_iterator<std::_Vector_val<tagInventoryItemInfo,std::allocator<tagInventoryItemInfo> > >::operator-, COMDAT
; _this$ = ecx

; 190  : 		{	// return difference of iterators

  00000	55		 push	 ebp
  00001	8b ec		 mov	 ebp, esp

; 191  : 		_Compat(_Right);
; 192  : 		return (this->_Ptr - _Right._Ptr);

  00003	8b 01		 mov	 eax, DWORD PTR [ecx]
  00005	8b 4d 08	 mov	 ecx, DWORD PTR __Right$[ebp]
  00008	2b 01		 sub	 eax, DWORD PTR [ecx]
  0000a	6a 48		 push	 72			; 00000048H
  0000c	99		 cdq
  0000d	59		 pop	 ecx
  0000e	f7 f9		 idiv	 ecx

; 193  : 		}

  00010	5d		 pop	 ebp
  00011	c2 04 00	 ret	 4
??G?$_Vector_const_iterator@V?$_Vector_val@UtagInventoryItemInfo@@V?$allocator@UtagInventoryItemInfo@@@std@@@std@@@std@@QBEHABV01@@Z ENDP ; std::_Vector_const_iterator<std::_Vector_val<tagInventoryItemInfo,std::allocator<tagInventoryItemInfo> > >::operator-
_TEXT	ENDS
PUBLIC	??$forward@AAUtagInventoryItemInfo@@@std@@YAAAUtagInventoryItemInfo@@AAU1@@Z ; std::forward<tagInventoryItemInfo &>
; Function compile flags: /Ogsp
; File c:\program files (x86)\microsoft visual studio 10.0\vc\include\utility
;	COMDAT ??$forward@AAUtagInventoryItemInfo@@@std@@YAAAUtagInventoryItemInfo@@AAU1@@Z
_TEXT	SEGMENT
__Arg$ = 8						; size = 4
??$forward@AAUtagInventoryItemInfo@@@std@@YAAAUtagInventoryItemInfo@@AAU1@@Z PROC ; std::forward<tagInventoryItemInfo &>, COMDAT

; 78   : 	{	// forward _Arg, given explicitly specified type parameter

  00000	55		 push	 ebp
  00001	8b ec		 mov	 ebp, esp

; 79   : 	return ((_Ty&&)_Arg);

  00003	8b 45 08	 mov	 eax, DWORD PTR __Arg$[ebp]

; 80   : 	}

  00006	5d		 pop	 ebp
  00007	c3		 ret	 0
??$forward@AAUtagInventoryItemInfo@@@std@@YAAAUtagInventoryItemInfo@@AAU1@@Z ENDP ; std::forward<tagInventoryItemInfo &>
_TEXT	ENDS
PUBLIC	??$construct@AAUtagInventoryItemInfo@@@?$allocator@UtagInventoryItemInfo@@@std@@QAEXPAUtagInventoryItemInfo@@AAU2@@Z ; std::allocator<tagInventoryItemInfo>::construct<tagInventoryItemInfo &>
;	COMDAT xdata$x
xdata$x	SEGMENT
__unwindtable$??$construct@AAUtagInventoryItemInfo@@@?$allocator@UtagInventoryItemInfo@@@std@@QAEXPAUtagInventoryItemInfo@@AAU2@@Z DD 0ffffffffH
	DD	FLAT:__unwindfunclet$??$construct@AAUtagInventoryItemInfo@@@?$allocator@UtagInventoryItemInfo@@@std@@QAEXPAUtagInventoryItemInfo@@AAU2@@Z$0
__ehfuncinfo$??$construct@AAUtagInventoryItemInfo@@@?$allocator@UtagInventoryItemInfo@@@std@@QAEXPAUtagInventoryItemInfo@@AAU2@@Z DD 019930522H
	DD	01H
	DD	FLAT:__unwindtable$??$construct@AAUtagInventoryItemInfo@@@?$allocator@UtagInventoryItemInfo@@@std@@QAEXPAUtagInventoryItemInfo@@AAU2@@Z
	DD	2 DUP(00H)
	DD	2 DUP(00H)
	DD	00H
	DD	01H
; Function compile flags: /Ogsp
; File c:\program files (x86)\microsoft visual studio 10.0\vc\include\xmemory
xdata$x	ENDS
;	COMDAT ??$construct@AAUtagInventoryItemInfo@@@?$allocator@UtagInventoryItemInfo@@@std@@QAEXPAUtagInventoryItemInfo@@AAU2@@Z
_TEXT	SEGMENT
$T510892 = -16						; size = 4
__$EHRec$ = -12						; size = 12
__Ptr$ = 8						; size = 4
__Val$ = 12						; size = 4
??$construct@AAUtagInventoryItemInfo@@@?$allocator@UtagInventoryItemInfo@@@std@@QAEXPAUtagInventoryItemInfo@@AAU2@@Z PROC ; std::allocator<tagInventoryItemInfo>::construct<tagInventoryItemInfo &>, COMDAT
; _this$ = ecx

; 206  : 		void construct(pointer _Ptr, _Other&& _Val)

  00000	6a 04		 push	 4
  00002	b8 00 00 00 00	 mov	 eax, __ehhandler$??$construct@AAUtagInventoryItemInfo@@@?$allocator@UtagInventoryItemInfo@@@std@@QAEXPAUtagInventoryItemInfo@@AAU2@@Z
  00007	e8 00 00 00 00	 call	 __EH_prolog3

; 207  : 		{	// construct object at _Ptr with value _Val
; 208  : 		::new ((void _FARQ *)_Ptr) _Ty(_STD forward<_Other>(_Val));

  0000c	8b 4d 08	 mov	 ecx, DWORD PTR __Ptr$[ebp]
  0000f	89 4d f0	 mov	 DWORD PTR $T510892[ebp], ecx
  00012	83 65 fc 00	 and	 DWORD PTR __$EHRec$[ebp+8], 0
  00016	85 c9		 test	 ecx, ecx
  00018	74 08		 je	 SHORT $LN3@construct
  0001a	ff 75 0c	 push	 DWORD PTR __Val$[ebp]
  0001d	e8 00 00 00 00	 call	 ??0tagInventoryItemInfo@@QAE@ABU0@@Z
$LN3@construct:

; 209  : 		}

  00022	e8 00 00 00 00	 call	 __EH_epilog3
  00027	c2 08 00	 ret	 8
_TEXT	ENDS
;	COMDAT text$x
text$x	SEGMENT
__unwindfunclet$??$construct@AAUtagInventoryItemInfo@@@?$allocator@UtagInventoryItemInfo@@@std@@QAEXPAUtagInventoryItemInfo@@AAU2@@Z$0:
  00000	ff 75 08	 push	 DWORD PTR __Ptr$[ebp]
  00003	ff 75 f0	 push	 DWORD PTR $T510892[ebp]
  00006	e8 00 00 00 00	 call	 ??3@YAXPAX0@Z		; operator delete
  0000b	59		 pop	 ecx
  0000c	59		 pop	 ecx
  0000d	c3		 ret	 0
__ehhandler$??$construct@AAUtagInventoryItemInfo@@@?$allocator@UtagInventoryItemInfo@@@std@@QAEXPAUtagInventoryItemInfo@@AAU2@@Z:
  0000e	8b 54 24 08	 mov	 edx, DWORD PTR [esp+8]
  00012	8d 42 0c	 lea	 eax, DWORD PTR [edx+12]
  00015	8b 4a ec	 mov	 ecx, DWORD PTR [edx-20]
  00018	33 c8		 xor	 ecx, eax
  0001a	e8 00 00 00 00	 call	 @__security_check_cookie@4
  0001f	b8 00 00 00 00	 mov	 eax, OFFSET __ehfuncinfo$??$construct@AAUtagInventoryItemInfo@@@?$allocator@UtagInventoryItemInfo@@@std@@QAEXPAUtagInventoryItemInfo@@AAU2@@Z
  00024	e9 00 00 00 00	 jmp	 ___CxxFrameHandler3
text$x	ENDS
??$construct@AAUtagInventoryItemInfo@@@?$allocator@UtagInventoryItemInfo@@@std@@QAEXPAUtagInventoryItemInfo@@AAU2@@Z ENDP ; std::allocator<tagInventoryItemInfo>::construct<tagInventoryItemInfo &>
PUBLIC	??$forward@ABUtagInventoryItemInfo@@@std@@YAABUtagInventoryItemInfo@@ABU1@@Z ; std::forward<tagInventoryItemInfo const &>
; Function compile flags: /Ogsp
; File c:\program files (x86)\microsoft visual studio 10.0\vc\include\utility
;	COMDAT ??$forward@ABUtagInventoryItemInfo@@@std@@YAABUtagInventoryItemInfo@@ABU1@@Z
_TEXT	SEGMENT
__Arg$ = 8						; size = 4
??$forward@ABUtagInventoryItemInfo@@@std@@YAABUtagInventoryItemInfo@@ABU1@@Z PROC ; std::forward<tagInventoryItemInfo const &>, COMDAT

; 78   : 	{	// forward _Arg, given explicitly specified type parameter

  00000	55		 push	 ebp
  00001	8b ec		 mov	 ebp, esp

; 79   : 	return ((_Ty&&)_Arg);

  00003	8b 45 08	 mov	 eax, DWORD PTR __Arg$[ebp]

; 80   : 	}

  00006	5d		 pop	 ebp
  00007	c3		 ret	 0
??$forward@ABUtagInventoryItemInfo@@@std@@YAABUtagInventoryItemInfo@@ABU1@@Z ENDP ; std::forward<tagInventoryItemInfo const &>
_TEXT	ENDS
PUBLIC	??$_Ptr_cat@UtagInventoryItemInfo@@U1@@std@@YA?AU_Nonscalar_ptr_iterator_tag@0@PAUtagInventoryItemInfo@@0@Z ; std::_Ptr_cat<tagInventoryItemInfo,tagInventoryItemInfo>
; Function compile flags: /Ogsp
; File c:\program files (x86)\microsoft visual studio 10.0\vc\include\xutility
;	COMDAT ??$_Ptr_cat@UtagInventoryItemInfo@@U1@@std@@YA?AU_Nonscalar_ptr_iterator_tag@0@PAUtagInventoryItemInfo@@0@Z
_TEXT	SEGMENT
__Cat$ = -1						; size = 1
___formal$ = 8						; size = 4
___formal$ = 12						; size = 4
??$_Ptr_cat@UtagInventoryItemInfo@@U1@@std@@YA?AU_Nonscalar_ptr_iterator_tag@0@PAUtagInventoryItemInfo@@0@Z PROC ; std::_Ptr_cat<tagInventoryItemInfo,tagInventoryItemInfo>, COMDAT

; 516  : 	{	// return pointer category from pointers

  00000	55		 push	 ebp
  00001	8b ec		 mov	 ebp, esp
  00003	51		 push	 ecx

; 517  : 	typename _Ptr_cat_helper<_Elem1, _Elem2>::_Type _Cat;
; 518  : 	return (_Cat);

  00004	8a 45 ff	 mov	 al, BYTE PTR __Cat$[ebp]

; 519  : 	}

  00007	c9		 leave
  00008	c3		 ret	 0
??$_Ptr_cat@UtagInventoryItemInfo@@U1@@std@@YA?AU_Nonscalar_ptr_iterator_tag@0@PAUtagInventoryItemInfo@@0@Z ENDP ; std::_Ptr_cat<tagInventoryItemInfo,tagInventoryItemInfo>
_TEXT	ENDS
PUBLIC	??$_Construct@UtagInventoryItemInfo@@ABU1@@std@@YAXPAUtagInventoryItemInfo@@ABU1@@Z ; std::_Construct<tagInventoryItemInfo,tagInventoryItemInfo const &>
;	COMDAT xdata$x
; File c:\program files (x86)\microsoft visual studio 10.0\vc\include\utility
xdata$x	SEGMENT
__unwindtable$??$_Construct@UtagInventoryItemInfo@@ABU1@@std@@YAXPAUtagInventoryItemInfo@@ABU1@@Z DD 0ffffffffH
	DD	FLAT:__unwindfunclet$??$_Construct@UtagInventoryItemInfo@@ABU1@@std@@YAXPAUtagInventoryItemInfo@@ABU1@@Z$0
__ehfuncinfo$??$_Construct@UtagInventoryItemInfo@@ABU1@@std@@YAXPAUtagInventoryItemInfo@@ABU1@@Z DD 019930522H
	DD	01H
	DD	FLAT:__unwindtable$??$_Construct@UtagInventoryItemInfo@@ABU1@@std@@YAXPAUtagInventoryItemInfo@@ABU1@@Z
	DD	2 DUP(00H)
	DD	2 DUP(00H)
	DD	00H
	DD	01H
; Function compile flags: /Ogsp
; File c:\program files (x86)\microsoft visual studio 10.0\vc\include\xmemory
xdata$x	ENDS
;	COMDAT ??$_Construct@UtagInventoryItemInfo@@ABU1@@std@@YAXPAUtagInventoryItemInfo@@ABU1@@Z
_TEXT	SEGMENT
$T510915 = -16						; size = 4
__$EHRec$ = -12						; size = 12
__Vptr$ = 8						; size = 4
__Ptr$ = 8						; size = 4
__Val$ = 12						; size = 4
??$_Construct@UtagInventoryItemInfo@@ABU1@@std@@YAXPAUtagInventoryItemInfo@@ABU1@@Z PROC ; std::_Construct<tagInventoryItemInfo,tagInventoryItemInfo const &>, COMDAT

; 46   : 	{	// construct object at _Ptr with value _Val

  00000	6a 04		 push	 4
  00002	b8 00 00 00 00	 mov	 eax, __ehhandler$??$_Construct@UtagInventoryItemInfo@@ABU1@@std@@YAXPAUtagInventoryItemInfo@@ABU1@@Z
  00007	e8 00 00 00 00	 call	 __EH_prolog3

; 47   : 	void _FARQ *_Vptr = _Ptr;

  0000c	8b 4d 08	 mov	 ecx, DWORD PTR __Ptr$[ebp]
  0000f	89 4d 08	 mov	 DWORD PTR __Vptr$[ebp], ecx

; 48   : 	::new (_Vptr) _Ty1(_STD forward<_Ty2>(_Val));

  00012	89 4d f0	 mov	 DWORD PTR $T510915[ebp], ecx
  00015	83 65 fc 00	 and	 DWORD PTR __$EHRec$[ebp+8], 0
  00019	85 c9		 test	 ecx, ecx
  0001b	74 08		 je	 SHORT $LN3@Construct
  0001d	ff 75 0c	 push	 DWORD PTR __Val$[ebp]
  00020	e8 00 00 00 00	 call	 ??0tagInventoryItemInfo@@QAE@ABU0@@Z
$LN3@Construct:

; 49   : 	}

  00025	e8 00 00 00 00	 call	 __EH_epilog3
  0002a	c3		 ret	 0
_TEXT	ENDS
;	COMDAT text$x
text$x	SEGMENT
__unwindfunclet$??$_Construct@UtagInventoryItemInfo@@ABU1@@std@@YAXPAUtagInventoryItemInfo@@ABU1@@Z$0:
  00000	ff 75 08	 push	 DWORD PTR __Vptr$[ebp]
  00003	ff 75 f0	 push	 DWORD PTR $T510915[ebp]
  00006	e8 00 00 00 00	 call	 ??3@YAXPAX0@Z		; operator delete
  0000b	59		 pop	 ecx
  0000c	59		 pop	 ecx
  0000d	c3		 ret	 0
__ehhandler$??$_Construct@UtagInventoryItemInfo@@ABU1@@std@@YAXPAUtagInventoryItemInfo@@ABU1@@Z:
  0000e	8b 54 24 08	 mov	 edx, DWORD PTR [esp+8]
  00012	8d 42 0c	 lea	 eax, DWORD PTR [edx+12]
  00015	8b 4a ec	 mov	 ecx, DWORD PTR [edx-20]
  00018	33 c8		 xor	 ecx, eax
  0001a	e8 00 00 00 00	 call	 @__security_check_cookie@4
  0001f	b8 00 00 00 00	 mov	 eax, OFFSET __ehfuncinfo$??$_Construct@UtagInventoryItemInfo@@ABU1@@std@@YAXPAUtagInventoryItemInfo@@ABU1@@Z
  00024	e9 00 00 00 00	 jmp	 ___CxxFrameHandler3
text$x	ENDS
??$_Construct@UtagInventoryItemInfo@@ABU1@@std@@YAXPAUtagInventoryItemInfo@@ABU1@@Z ENDP ; std::_Construct<tagInventoryItemInfo,tagInventoryItemInfo const &>
PUBLIC	?_Unchecked@?$_Vector_iterator@V?$_Vector_val@UtagInventoryItemInfo@@V?$allocator@UtagInventoryItemInfo@@@std@@@std@@@std@@QBEPAUtagInventoryItemInfo@@XZ ; std::_Vector_iterator<std::_Vector_val<tagInventoryItemInfo,std::allocator<tagInventoryItemInfo> > >::_Unchecked
; Function compile flags: /Ogsp
; File c:\program files (x86)\microsoft visual studio 10.0\vc\include\vector
;	COMDAT ?_Unchecked@?$_Vector_iterator@V?$_Vector_val@UtagInventoryItemInfo@@V?$allocator@UtagInventoryItemInfo@@@std@@@std@@@std@@QBEPAUtagInventoryItemInfo@@XZ
_TEXT	SEGMENT
?_Unchecked@?$_Vector_iterator@V?$_Vector_val@UtagInventoryItemInfo@@V?$allocator@UtagInventoryItemInfo@@@std@@@std@@@std@@QBEPAUtagInventoryItemInfo@@XZ PROC ; std::_Vector_iterator<std::_Vector_val<tagInventoryItemInfo,std::allocator<tagInventoryItemInfo> > >::_Unchecked, COMDAT
; _this$ = ecx

; 317  : 		return (_Unchecked_type(this->_Ptr));

  00000	8b 01		 mov	 eax, DWORD PTR [ecx]

; 318  : 		}

  00002	c3		 ret	 0
?_Unchecked@?$_Vector_iterator@V?$_Vector_val@UtagInventoryItemInfo@@V?$allocator@UtagInventoryItemInfo@@@std@@@std@@@std@@QBEPAUtagInventoryItemInfo@@XZ ENDP ; std::_Vector_iterator<std::_Vector_val<tagInventoryItemInfo,std::allocator<tagInventoryItemInfo> > >::_Unchecked
_TEXT	ENDS
PUBLIC	??$move@AAUtagInventoryItemInfo@@@std@@YA$$QAUtagInventoryItemInfo@@AAU1@@Z ; std::move<tagInventoryItemInfo &>
; Function compile flags: /Ogsp
; File c:\program files (x86)\microsoft visual studio 10.0\vc\include\utility
;	COMDAT ??$move@AAUtagInventoryItemInfo@@@std@@YA$$QAUtagInventoryItemInfo@@AAU1@@Z
_TEXT	SEGMENT
__Arg$ = 8						; size = 4
??$move@AAUtagInventoryItemInfo@@@std@@YA$$QAUtagInventoryItemInfo@@AAU1@@Z PROC ; std::move<tagInventoryItemInfo &>, COMDAT

; 86   : 	{	// forward _Arg as movable

  00000	55		 push	 ebp
  00001	8b ec		 mov	 ebp, esp

; 87   : 	return ((typename tr1::_Remove_reference<_Ty>::_Type&&)_Arg);

  00003	8b 45 08	 mov	 eax, DWORD PTR __Arg$[ebp]

; 88   : 	}

  00006	5d		 pop	 ebp
  00007	c3		 ret	 0
??$move@AAUtagInventoryItemInfo@@@std@@YA$$QAUtagInventoryItemInfo@@AAU1@@Z ENDP ; std::move<tagInventoryItemInfo &>
_TEXT	ENDS
PUBLIC	??$_Val_type@PAUtagInventoryItemInfo@@@std@@YAPAUtagInventoryItemInfo@@PAU1@@Z ; std::_Val_type<tagInventoryItemInfo *>
; Function compile flags: /Ogsp
; File c:\program files (x86)\microsoft visual studio 10.0\vc\include\xutility
;	COMDAT ??$_Val_type@PAUtagInventoryItemInfo@@@std@@YAPAUtagInventoryItemInfo@@PAU1@@Z
_TEXT	SEGMENT
___formal$ = 8						; size = 4
??$_Val_type@PAUtagInventoryItemInfo@@@std@@YAPAUtagInventoryItemInfo@@PAU1@@Z PROC ; std::_Val_type<tagInventoryItemInfo *>, COMDAT

; 790  : 	return (0);

  00000	33 c0		 xor	 eax, eax

; 791  : 	}

  00002	c3		 ret	 0
??$_Val_type@PAUtagInventoryItemInfo@@@std@@YAPAUtagInventoryItemInfo@@PAU1@@Z ENDP ; std::_Val_type<tagInventoryItemInfo *>
_TEXT	ENDS
PUBLIC	??$_Unchecked@PAUtagInventoryItemInfo@@@std@@YAPAUtagInventoryItemInfo@@PAU1@@Z ; std::_Unchecked<tagInventoryItemInfo *>
; Function compile flags: /Ogsp
;	COMDAT ??$_Unchecked@PAUtagInventoryItemInfo@@@std@@YAPAUtagInventoryItemInfo@@PAU1@@Z
_TEXT	SEGMENT
__Src$ = 8						; size = 4
??$_Unchecked@PAUtagInventoryItemInfo@@@std@@YAPAUtagInventoryItemInfo@@PAU1@@Z PROC ; std::_Unchecked<tagInventoryItemInfo *>, COMDAT

; 266  : 	{	// construct unchecked from checked, generic

  00000	55		 push	 ebp
  00001	8b ec		 mov	 ebp, esp

; 267  : 	return (_Src);

  00003	8b 45 08	 mov	 eax, DWORD PTR __Src$[ebp]

; 268  : 	}

  00006	5d		 pop	 ebp
  00007	c3		 ret	 0
??$_Unchecked@PAUtagInventoryItemInfo@@@std@@YAPAUtagInventoryItemInfo@@PAU1@@Z ENDP ; std::_Unchecked<tagInventoryItemInfo *>
_TEXT	ENDS
PUBLIC	??$_Dist_type@PAUtagInventoryItemInfo@@@std@@YAPAHPAUtagInventoryItemInfo@@@Z ; std::_Dist_type<tagInventoryItemInfo *>
; Function compile flags: /Ogsp
;	COMDAT ??$_Dist_type@PAUtagInventoryItemInfo@@@std@@YAPAHPAUtagInventoryItemInfo@@@Z
_TEXT	SEGMENT
___formal$ = 8						; size = 4
??$_Dist_type@PAUtagInventoryItemInfo@@@std@@YAPAHPAUtagInventoryItemInfo@@@Z PROC ; std::_Dist_type<tagInventoryItemInfo *>, COMDAT

; 850  : 	return (0);

  00000	33 c0		 xor	 eax, eax

; 851  : 	}

  00002	c3		 ret	 0
??$_Dist_type@PAUtagInventoryItemInfo@@@std@@YAPAHPAUtagInventoryItemInfo@@@Z ENDP ; std::_Dist_type<tagInventoryItemInfo *>
_TEXT	ENDS
PUBLIC	??_GtagInventoryItemInfo@@QAEPAXI@Z		; tagInventoryItemInfo::`scalar deleting destructor'
; Function compile flags: /Ogsp
;	COMDAT ??_GtagInventoryItemInfo@@QAEPAXI@Z
_TEXT	SEGMENT
___flags$ = 8						; size = 4
??_GtagInventoryItemInfo@@QAEPAXI@Z PROC		; tagInventoryItemInfo::`scalar deleting destructor', COMDAT
; _this$ = ecx
  00000	55		 push	 ebp
  00001	8b ec		 mov	 ebp, esp
  00003	56		 push	 esi
  00004	8b f1		 mov	 esi, ecx
  00006	8d 4e 24	 lea	 ecx, DWORD PTR [esi+36]
  00009	ff 15 00 00 00
	00		 call	 DWORD PTR __imp_??1ioHashString@@QAE@XZ
  0000f	f6 45 08 01	 test	 BYTE PTR ___flags$[ebp], 1
  00013	74 07		 je	 SHORT $LN1@scalar@2
  00015	56		 push	 esi
  00016	e8 00 00 00 00	 call	 ??3@YAXPAX@Z		; operator delete
  0001b	59		 pop	 ecx
$LN1@scalar@2:
  0001c	8b c6		 mov	 eax, esi
  0001e	5e		 pop	 esi
  0001f	5d		 pop	 ebp
  00020	c2 04 00	 ret	 4
??_GtagInventoryItemInfo@@QAEPAXI@Z ENDP		; tagInventoryItemInfo::`scalar deleting destructor'
_TEXT	ENDS
PUBLIC	??$forward@AAPAUtagInventoryItemInfo@@@std@@YAAAPAUtagInventoryItemInfo@@AAPAU1@@Z ; std::forward<tagInventoryItemInfo * &>
; Function compile flags: /Ogsp
; File c:\program files (x86)\microsoft visual studio 10.0\vc\include\utility
;	COMDAT ??$forward@AAPAUtagInventoryItemInfo@@@std@@YAAAPAUtagInventoryItemInfo@@AAPAU1@@Z
_TEXT	SEGMENT
__Arg$ = 8						; size = 4
??$forward@AAPAUtagInventoryItemInfo@@@std@@YAAAPAUtagInventoryItemInfo@@AAPAU1@@Z PROC ; std::forward<tagInventoryItemInfo * &>, COMDAT

; 78   : 	{	// forward _Arg, given explicitly specified type parameter

  00000	55		 push	 ebp
  00001	8b ec		 mov	 ebp, esp

; 79   : 	return ((_Ty&&)_Arg);

  00003	8b 45 08	 mov	 eax, DWORD PTR __Arg$[ebp]

; 80   : 	}

  00006	5d		 pop	 ebp
  00007	c3		 ret	 0
??$forward@AAPAUtagInventoryItemInfo@@@std@@YAAAPAUtagInventoryItemInfo@@AAPAU1@@Z ENDP ; std::forward<tagInventoryItemInfo * &>
_TEXT	ENDS
PUBLIC	??$?0AAPAUtagInventoryItemInfo@@AAPAU0@@?$_Pair_base@PAUtagInventoryItemInfo@@PAU1@@std@@QAE@AAPAUtagInventoryItemInfo@@0@Z ; std::_Pair_base<tagInventoryItemInfo *,tagInventoryItemInfo *>::_Pair_base<tagInventoryItemInfo *,tagInventoryItemInfo *><tagInventoryItemInfo * &,tagInventoryItemInfo * &>
; Function compile flags: /Ogsp
;	COMDAT ??$?0AAPAUtagInventoryItemInfo@@AAPAU0@@?$_Pair_base@PAUtagInventoryItemInfo@@PAU1@@std@@QAE@AAPAUtagInventoryItemInfo@@0@Z
_TEXT	SEGMENT
__Val1$ = 8						; size = 4
__Val2$ = 12						; size = 4
??$?0AAPAUtagInventoryItemInfo@@AAPAU0@@?$_Pair_base@PAUtagInventoryItemInfo@@PAU1@@std@@QAE@AAPAUtagInventoryItemInfo@@0@Z PROC ; std::_Pair_base<tagInventoryItemInfo *,tagInventoryItemInfo *>::_Pair_base<tagInventoryItemInfo *,tagInventoryItemInfo *><tagInventoryItemInfo * &,tagInventoryItemInfo * &>, COMDAT
; _this$ = ecx

; 163  : 		{	// construct from moved values

  00000	55		 push	 ebp
  00001	8b ec		 mov	 ebp, esp
  00003	8b c1		 mov	 eax, ecx
  00005	8b 4d 08	 mov	 ecx, DWORD PTR __Val1$[ebp]
  00008	8b 09		 mov	 ecx, DWORD PTR [ecx]
  0000a	89 08		 mov	 DWORD PTR [eax], ecx
  0000c	8b 4d 0c	 mov	 ecx, DWORD PTR __Val2$[ebp]
  0000f	8b 09		 mov	 ecx, DWORD PTR [ecx]
  00011	89 48 04	 mov	 DWORD PTR [eax+4], ecx

; 164  : 		}

  00014	5d		 pop	 ebp
  00015	c2 08 00	 ret	 8
??$?0AAPAUtagInventoryItemInfo@@AAPAU0@@?$_Pair_base@PAUtagInventoryItemInfo@@PAU1@@std@@QAE@AAPAUtagInventoryItemInfo@@0@Z ENDP ; std::_Pair_base<tagInventoryItemInfo *,tagInventoryItemInfo *>::_Pair_base<tagInventoryItemInfo *,tagInventoryItemInfo *><tagInventoryItemInfo * &,tagInventoryItemInfo * &>
_TEXT	ENDS
PUBLIC	??$_Move@AAUtagInventoryItemInfo@@@std@@YA$$QAUtagInventoryItemInfo@@AAU1@@Z ; std::_Move<tagInventoryItemInfo &>
; Function compile flags: /Ogsp
;	COMDAT ??$_Move@AAUtagInventoryItemInfo@@@std@@YA$$QAUtagInventoryItemInfo@@AAU1@@Z
_TEXT	SEGMENT
__Arg$ = 8						; size = 4
??$_Move@AAUtagInventoryItemInfo@@@std@@YA$$QAUtagInventoryItemInfo@@AAU1@@Z PROC ; std::_Move<tagInventoryItemInfo &>, COMDAT

; 94   : 	{	// forward _Arg as movable

  00000	55		 push	 ebp
  00001	8b ec		 mov	 ebp, esp

; 95   : 	return ((typename tr1::_Remove_reference<_Ty>::_Type&&)_Arg);

  00003	8b 45 08	 mov	 eax, DWORD PTR __Arg$[ebp]

; 96   : 	}

  00006	5d		 pop	 ebp
  00007	c3		 ret	 0
??$_Move@AAUtagInventoryItemInfo@@@std@@YA$$QAUtagInventoryItemInfo@@AAU1@@Z ENDP ; std::_Move<tagInventoryItemInfo &>
_TEXT	ENDS
PUBLIC	??$forward@UtagInventoryItemInfo@@@std@@YA$$QAUtagInventoryItemInfo@@AAU1@@Z ; std::forward<tagInventoryItemInfo>
; Function compile flags: /Ogsp
;	COMDAT ??$forward@UtagInventoryItemInfo@@@std@@YA$$QAUtagInventoryItemInfo@@AAU1@@Z
_TEXT	SEGMENT
__Arg$ = 8						; size = 4
??$forward@UtagInventoryItemInfo@@@std@@YA$$QAUtagInventoryItemInfo@@AAU1@@Z PROC ; std::forward<tagInventoryItemInfo>, COMDAT

; 78   : 	{	// forward _Arg, given explicitly specified type parameter

  00000	55		 push	 ebp
  00001	8b ec		 mov	 ebp, esp

; 79   : 	return ((_Ty&&)_Arg);

  00003	8b 45 08	 mov	 eax, DWORD PTR __Arg$[ebp]

; 80   : 	}

  00006	5d		 pop	 ebp
  00007	c3		 ret	 0
??$forward@UtagInventoryItemInfo@@@std@@YA$$QAUtagInventoryItemInfo@@AAU1@@Z ENDP ; std::forward<tagInventoryItemInfo>
_TEXT	ENDS
PUBLIC	??$_Move_backward@PAUtagInventoryItemInfo@@PAU1@@std@@YAPAUtagInventoryItemInfo@@PAU1@00U_Nonscalar_ptr_iterator_tag@0@@Z ; std::_Move_backward<tagInventoryItemInfo *,tagInventoryItemInfo *>
; Function compile flags: /Ogsp
; File c:\program files (x86)\microsoft visual studio 10.0\vc\include\xutility
;	COMDAT ??$_Move_backward@PAUtagInventoryItemInfo@@PAU1@@std@@YAPAUtagInventoryItemInfo@@PAU1@00U_Nonscalar_ptr_iterator_tag@0@@Z
_TEXT	SEGMENT
__First$ = 8						; size = 4
__Last$ = 12						; size = 4
__Dest$ = 16						; size = 4
___formal$ = 20						; size = 1
??$_Move_backward@PAUtagInventoryItemInfo@@PAU1@@std@@YAPAUtagInventoryItemInfo@@PAU1@00U_Nonscalar_ptr_iterator_tag@0@@Z PROC ; std::_Move_backward<tagInventoryItemInfo *,tagInventoryItemInfo *>, COMDAT

; 2617 : 	{	// move [_First, _Last) backwards to [..., _Dest), arbitrary iterators

  00000	55		 push	 ebp
  00001	8b ec		 mov	 ebp, esp
  00003	56		 push	 esi

; 2618 : 	while (_First != _Last)

  00004	8b 75 0c	 mov	 esi, DWORD PTR __Last$[ebp]
  00007	39 75 08	 cmp	 DWORD PTR __First$[ebp], esi
  0000a	74 15		 je	 SHORT $LN9@Move_backw
$LL2@Move_backw:

; 2619 : 		*--_Dest = _STD move(*--_Last);

  0000c	83 6d 10 48	 sub	 DWORD PTR __Dest$[ebp], 72 ; 00000048H
  00010	8b 4d 10	 mov	 ecx, DWORD PTR __Dest$[ebp]
  00013	83 ee 48	 sub	 esi, 72			; 00000048H
  00016	56		 push	 esi
  00017	e8 00 00 00 00	 call	 ??4tagInventoryItemInfo@@QAEAAU0@ABU0@@Z
  0001c	3b 75 08	 cmp	 esi, DWORD PTR __First$[ebp]
  0001f	75 eb		 jne	 SHORT $LL2@Move_backw
$LN9@Move_backw:

; 2620 : 	return (_Dest);

  00021	8b 45 10	 mov	 eax, DWORD PTR __Dest$[ebp]
  00024	5e		 pop	 esi

; 2621 : 	}

  00025	5d		 pop	 ebp
  00026	c3		 ret	 0
??$_Move_backward@PAUtagInventoryItemInfo@@PAU1@@std@@YAPAUtagInventoryItemInfo@@PAU1@00U_Nonscalar_ptr_iterator_tag@0@@Z ENDP ; std::_Move_backward<tagInventoryItemInfo *,tagInventoryItemInfo *>
_TEXT	ENDS
PUBLIC	?_DECSTR@@YAXPADH@Z				; _DECSTR
; Function compile flags: /Ogsp
; File d:\lost saga for developer\youtube\tutorial\source\src\lsclient\stringprotect.h
;	COMDAT ?_DECSTR@@YAXPADH@Z
_TEXT	SEGMENT
_s$ = 8							; size = 4
_l$ = 12						; size = 4
?_DECSTR@@YAXPADH@Z PROC				; _DECSTR, COMDAT

; 40   : __forceinline void _DECSTR(char* s, int l){int i=0,l4=(l-1)/4,*p=(int*)s;s[l-1]=0;for(;i<l4;++i)*(p++)^=0xEAEBECED;for(i=l4*4;i<l-1;++i)s[i]^=0xED-i%4;}

  00000	55		 push	 ebp
  00001	8b ec		 mov	 ebp, esp
  00003	8b 4d 0c	 mov	 ecx, DWORD PTR _l$[ebp]
  00006	56		 push	 esi
  00007	8b 75 08	 mov	 esi, DWORD PTR _s$[ebp]
  0000a	57		 push	 edi
  0000b	8d 79 ff	 lea	 edi, DWORD PTR [ecx-1]
  0000e	8b c7		 mov	 eax, edi
  00010	99		 cdq
  00011	83 e2 03	 and	 edx, 3
  00014	03 c2		 add	 eax, edx
  00016	c1 f8 02	 sar	 eax, 2
  00019	8b d6		 mov	 edx, esi
  0001b	c6 44 0e ff 00	 mov	 BYTE PTR [esi+ecx-1], 0
  00020	85 c0		 test	 eax, eax
  00022	7e 0e		 jle	 SHORT $LN4@DECSTR
  00024	8b c8		 mov	 ecx, eax
$LL6@DECSTR:
  00026	81 32 ed ec eb
	ea		 xor	 DWORD PTR [edx], -353637139 ; eaebecedH
  0002c	83 c2 04	 add	 edx, 4
  0002f	49		 dec	 ecx
  00030	75 f4		 jne	 SHORT $LL6@DECSTR
$LN4@DECSTR:
  00032	c1 e0 02	 shl	 eax, 2
  00035	eb 17		 jmp	 SHORT $LN14@DECSTR
$LL3@DECSTR:
  00037	8b c8		 mov	 ecx, eax
  00039	81 e1 03 00 00
	80		 and	 ecx, -2147483645	; 80000003H
  0003f	79 05		 jns	 SHORT $LN13@DECSTR
  00041	49		 dec	 ecx
  00042	83 c9 fc	 or	 ecx, -4			; fffffffcH
  00045	41		 inc	 ecx
$LN13@DECSTR:
  00046	b2 ed		 mov	 dl, -19			; ffffffedH
  00048	2a d1		 sub	 dl, cl
  0004a	30 14 30	 xor	 BYTE PTR [eax+esi], dl
  0004d	40		 inc	 eax
$LN14@DECSTR:
  0004e	3b c7		 cmp	 eax, edi
  00050	7c e5		 jl	 SHORT $LL3@DECSTR
  00052	5f		 pop	 edi
  00053	5e		 pop	 esi
  00054	5d		 pop	 ebp
  00055	c3		 ret	 0
?_DECSTR@@YAXPADH@Z ENDP				; _DECSTR
_TEXT	ENDS
PUBLIC	?GetTradePeriod@TradeInfoManager@@QBEHXZ	; TradeInfoManager::GetTradePeriod
; Function compile flags: /Ogsp
; File d:\lost saga for developer\youtube\tutorial\source\src\lsclient\tradeinfomanager.h
;	COMDAT ?GetTradePeriod@TradeInfoManager@@QBEHXZ
_TEXT	SEGMENT
?GetTradePeriod@TradeInfoManager@@QBEHXZ PROC		; TradeInfoManager::GetTradePeriod, COMDAT
; _this$ = ecx

; 116  : 	inline int GetTradePeriod() const { return m_iTradePeriod; }

  00000	8b 41 34	 mov	 eax, DWORD PTR [ecx+52]
  00003	c3		 ret	 0
?GetTradePeriod@TradeInfoManager@@QBEHXZ ENDP		; TradeInfoManager::GetTradePeriod
_TEXT	ENDS
PUBLIC	?GetRegisterLimitLv@TradeInfoManager@@QBEHXZ	; TradeInfoManager::GetRegisterLimitLv
; Function compile flags: /Ogsp
;	COMDAT ?GetRegisterLimitLv@TradeInfoManager@@QBEHXZ
_TEXT	SEGMENT
?GetRegisterLimitLv@TradeInfoManager@@QBEHXZ PROC	; TradeInfoManager::GetRegisterLimitLv, COMDAT
; _this$ = ecx

; 119  : 	inline int GetRegisterLimitLv() const { return m_iRegisterLimitLevel; }

  00000	8b 41 68	 mov	 eax, DWORD PTR [ecx+104]
  00003	c3		 ret	 0
?GetRegisterLimitLv@TradeInfoManager@@QBEHXZ ENDP	; TradeInfoManager::GetRegisterLimitLv
_TEXT	ENDS
PUBLIC	?GetRegisterTexRate@TradeInfoManager@@QBEMXZ	; TradeInfoManager::GetRegisterTexRate
; Function compile flags: /Ogsp
;	COMDAT ?GetRegisterTexRate@TradeInfoManager@@QBEMXZ
_TEXT	SEGMENT
?GetRegisterTexRate@TradeInfoManager@@QBEMXZ PROC	; TradeInfoManager::GetRegisterTexRate, COMDAT
; _this$ = ecx

; 121  : 	inline float GetRegisterTexRate() const { return m_fRegisterTex; }

  00000	d9 41 70	 fld	 DWORD PTR [ecx+112]
  00003	c3		 ret	 0
?GetRegisterTexRate@TradeInfoManager@@QBEMXZ ENDP	; TradeInfoManager::GetRegisterTexRate
_TEXT	ENDS
PUBLIC	?GetPCRoomRegisterTexRate@TradeInfoManager@@QBEMXZ ; TradeInfoManager::GetPCRoomRegisterTexRate
; Function compile flags: /Ogsp
;	COMDAT ?GetPCRoomRegisterTexRate@TradeInfoManager@@QBEMXZ
_TEXT	SEGMENT
?GetPCRoomRegisterTexRate@TradeInfoManager@@QBEMXZ PROC	; TradeInfoManager::GetPCRoomRegisterTexRate, COMDAT
; _this$ = ecx

; 124  : 	inline float GetPCRoomRegisterTexRate() const { return m_fPCRoomRegisterTex; }

  00000	d9 41 78	 fld	 DWORD PTR [ecx+120]
  00003	c3		 ret	 0
?GetPCRoomRegisterTexRate@TradeInfoManager@@QBEMXZ ENDP	; TradeInfoManager::GetPCRoomRegisterTexRate
_TEXT	ENDS
PUBLIC	?GetName@ioItem@@QBEABVioHashString@@XZ		; ioItem::GetName
; Function compile flags: /Ogsp
; File d:\lost saga for developer\youtube\tutorial\source\src\lsclient\ioitem.h
;	COMDAT ?GetName@ioItem@@QBEABVioHashString@@XZ
_TEXT	SEGMENT
?GetName@ioItem@@QBEABVioHashString@@XZ PROC		; ioItem::GetName, COMDAT
; _this$ = ecx

; 269  : 	inline const ioHashString& GetName() const { return m_Name; }

  00000	8d 81 34 01 00
	00		 lea	 eax, DWORD PTR [ecx+308]
  00006	c3		 ret	 0
?GetName@ioItem@@QBEABVioHashString@@XZ ENDP		; ioItem::GetName
_TEXT	ENDS
PUBLIC	?GetItemLargeIconName@ioItem@@QBEABVioHashString@@XZ ; ioItem::GetItemLargeIconName
; Function compile flags: /Ogsp
;	COMDAT ?GetItemLargeIconName@ioItem@@QBEABVioHashString@@XZ
_TEXT	SEGMENT
?GetItemLargeIconName@ioItem@@QBEABVioHashString@@XZ PROC ; ioItem::GetItemLargeIconName, COMDAT
; _this$ = ecx

; 288  : 	inline const ioHashString& GetItemLargeIconName() const { return m_ItemLargeIconFile; }

  00000	8d 81 14 02 00
	00		 lea	 eax, DWORD PTR [ecx+532]
  00006	c3		 ret	 0
?GetItemLargeIconName@ioItem@@QBEABVioHashString@@XZ ENDP ; ioItem::GetItemLargeIconName
_TEXT	ENDS
PUBLIC	?GetEnableClass@ioItem@@QBEHXZ			; ioItem::GetEnableClass
; Function compile flags: /Ogsp
;	COMDAT ?GetEnableClass@ioItem@@QBEHXZ
_TEXT	SEGMENT
?GetEnableClass@ioItem@@QBEHXZ PROC			; ioItem::GetEnableClass, COMDAT
; _this$ = ecx

; 403  : 	inline int GetEnableClass() const { return m_iEnableClass; }

  00000	8b 81 bc 04 00
	00		 mov	 eax, DWORD PTR [ecx+1212]
  00006	c3		 ret	 0
?GetEnableClass@ioItem@@QBEHXZ ENDP			; ioItem::GetEnableClass
_TEXT	ENDS
PUBLIC	?GetGradeType@ioItem@@QBEHXZ			; ioItem::GetGradeType
; Function compile flags: /Ogsp
;	COMDAT ?GetGradeType@ioItem@@QBEHXZ
_TEXT	SEGMENT
?GetGradeType@ioItem@@QBEHXZ PROC			; ioItem::GetGradeType, COMDAT
; _this$ = ecx

; 445  : 	inline int GetGradeType() const { return m_nGradeType; }

  00000	8b 81 20 06 00
	00		 mov	 eax, DWORD PTR [ecx+1568]
  00006	c3		 ret	 0
?GetGradeType@ioItem@@QBEHXZ ENDP			; ioItem::GetGradeType
_TEXT	ENDS
PUBLIC	?Init@EXTRAITEMSLOT@@QAEXXZ			; EXTRAITEMSLOT::Init
; Function compile flags: /Ogsp
; File d:\lost saga for developer\youtube\tutorial\source\src\lsclient\iouserextraitem.h
;	COMDAT ?Init@EXTRAITEMSLOT@@QAEXXZ
_TEXT	SEGMENT
?Init@EXTRAITEMSLOT@@QAEXXZ PROC			; EXTRAITEMSLOT::Init, COMDAT
; _this$ = ecx

; 50   : 		m_iItemCode = 0;

  00000	33 c0		 xor	 eax, eax

; 51   : 		m_iReinforce = 0;
; 52   : 		m_iIndex = 0;
; 53   : 
; 54   : 		m_PeriodType = EPT_TIME;
; 55   : 		m_iValue1 = 0;
; 56   : 		m_iValue2 = 0;
; 57   : 
; 58   : 		m_iTradeState = EET_DISABLE;
; 59   : 	
; 60   : 		m_dwMaleCustom = 0;
; 61   : 		m_dwFemaleCustom = 0;
; 62   : 		m_failExp = 0;

  00002	33 d2		 xor	 edx, edx
  00004	89 01		 mov	 DWORD PTR [ecx], eax
  00006	89 41 04	 mov	 DWORD PTR [ecx+4], eax
  00009	89 41 08	 mov	 DWORD PTR [ecx+8], eax
  0000c	89 41 0c	 mov	 DWORD PTR [ecx+12], eax
  0000f	89 41 10	 mov	 DWORD PTR [ecx+16], eax
  00012	89 41 14	 mov	 DWORD PTR [ecx+20], eax
  00015	89 41 18	 mov	 DWORD PTR [ecx+24], eax
  00018	89 41 1c	 mov	 DWORD PTR [ecx+28], eax
  0001b	89 41 20	 mov	 DWORD PTR [ecx+32], eax
  0001e	66 89 51 24	 mov	 WORD PTR [ecx+36], dx

; 63   : 
; 64   : 		m_bCharEquip = false;

  00022	88 41 26	 mov	 BYTE PTR [ecx+38], al

; 65   : 	}

  00025	c3		 ret	 0
?Init@EXTRAITEMSLOT@@QAEXXZ ENDP			; EXTRAITEMSLOT::Init
_TEXT	ENDS
PUBLIC	?Init@tagInventoryItemInfo@@QAEXXZ		; tagInventoryItemInfo::Init
; Function compile flags: /Ogsp
; File d:\lost saga for developer\youtube\tutorial\source\src\lsclient\gui\myinventorywnd.h
;	COMDAT ?Init@tagInventoryItemInfo@@QAEXXZ
_TEXT	SEGMENT
?Init@tagInventoryItemInfo@@QAEXXZ PROC			; tagInventoryItemInfo::Init, COMDAT
; _this$ = ecx

; 128  : 		m_iMainType = 0;

  00000	33 c0		 xor	 eax, eax

; 129  : 		m_iMagicCode = 0;
; 130  : 		m_iMagicCodeEx = 0;
; 131  : 		m_iMagicCodeEx2= 0;
; 132  : 		m_iManualIndex = 0;
; 133  : 
; 134  : 		m_bEquip = false;
; 135  : 		m_bActive = true;
; 136  : 
; 137  : 		m_iSexType  = 0;
; 138  : 		m_iDecoType = 0;
; 139  : 		m_iDecoCode = 0;
; 140  : 		m_iPriorityOrder = 999999999; // ORDER_DEFAULT

  00002	ba ff c9 9a 3b	 mov	 edx, 999999999		; 3b9ac9ffH
  00007	89 01		 mov	 DWORD PTR [ecx], eax
  00009	89 41 04	 mov	 DWORD PTR [ecx+4], eax
  0000c	89 41 08	 mov	 DWORD PTR [ecx+8], eax
  0000f	89 41 0c	 mov	 DWORD PTR [ecx+12], eax
  00012	89 41 10	 mov	 DWORD PTR [ecx+16], eax
  00015	88 41 14	 mov	 BYTE PTR [ecx+20], al
  00018	c6 41 3c 01	 mov	 BYTE PTR [ecx+60], 1
  0001c	89 41 18	 mov	 DWORD PTR [ecx+24], eax
  0001f	89 41 1c	 mov	 DWORD PTR [ecx+28], eax
  00022	89 41 20	 mov	 DWORD PTR [ecx+32], eax
  00025	89 51 40	 mov	 DWORD PTR [ecx+64], edx

; 141  : 		m_iPriorityOrder2 = 999999999;

  00028	89 51 44	 mov	 DWORD PTR [ecx+68], edx

; 142  : 
; 143  : 		m_iSubscriptionGold = 0;

  0002b	89 41 34	 mov	 DWORD PTR [ecx+52], eax

; 144  : 		m_iSubscriptionBonusGold = 0;

  0002e	89 41 38	 mov	 DWORD PTR [ecx+56], eax

; 145  : 	}

  00031	c3		 ret	 0
?Init@tagInventoryItemInfo@@QAEXXZ ENDP			; tagInventoryItemInfo::Init
_TEXT	ENDS
PUBLIC	??RInventoryItemInfoSort2@@QBE_NABUtagInventoryItemInfo@@0@Z ; InventoryItemInfoSort2::operator()
; Function compile flags: /Ogsp
;	COMDAT ??RInventoryItemInfoSort2@@QBE_NABUtagInventoryItemInfo@@0@Z
_TEXT	SEGMENT
_lhs$ = 8						; size = 4
_rhs$ = 12						; size = 4
??RInventoryItemInfoSort2@@QBE_NABUtagInventoryItemInfo@@0@Z PROC ; InventoryItemInfoSort2::operator(), COMDAT
; _this$ = ecx

; 225  : 	{

  00000	55		 push	 ebp
  00001	8b ec		 mov	 ebp, esp

; 226  : 		if( lhs.m_iMainType == INVENTORY_ITEM_ETC && rhs.m_iMainType != INVENTORY_ITEM_ETC )

  00003	8b 45 08	 mov	 eax, DWORD PTR _lhs$[ebp]
  00006	8b 4d 0c	 mov	 ecx, DWORD PTR _rhs$[ebp]
  00009	56		 push	 esi
  0000a	8b 30		 mov	 esi, DWORD PTR [eax]
  0000c	83 fe 03	 cmp	 esi, 3
  0000f	75 1e		 jne	 SHORT $LN16@operator
  00011	39 31		 cmp	 DWORD PTR [ecx], esi
  00013	74 04		 je	 SHORT $LN13@operator
$LN20@operator:

; 227  : 			return true;

  00015	b0 01		 mov	 al, 1
  00017	eb 25		 jmp	 SHORT $LN14@operator
$LN13@operator:

; 228  : 
; 229  : 		if( lhs.m_iMainType == INVENTORY_ITEM_ETC && rhs.m_iMainType == INVENTORY_ITEM_ETC )
; 230  : 		{
; 231  : 			if( lhs.m_iMagicCode > rhs.m_iMagicCode )

  00019	8b 50 04	 mov	 edx, DWORD PTR [eax+4]
  0001c	8b 71 04	 mov	 esi, DWORD PTR [ecx+4]
  0001f	3b d6		 cmp	 edx, esi

; 232  : 				return true;

  00021	7f f2		 jg	 SHORT $LN20@operator

; 233  : 
; 234  : 			if( lhs.m_iMagicCode == rhs.m_iMagicCode )

  00023	75 17		 jne	 SHORT $LN1@operator

; 235  : 			{
; 236  : 				if( lhs.m_iPriorityOrder < rhs.m_iPriorityOrder )

  00025	8b 40 40	 mov	 eax, DWORD PTR [eax+64]
  00028	3b 41 40	 cmp	 eax, DWORD PTR [ecx+64]
  0002b	7d 0f		 jge	 SHORT $LN1@operator

; 237  : 					return true;

  0002d	eb e6		 jmp	 SHORT $LN20@operator
$LN16@operator:

; 238  : 			}
; 239  : 		}
; 240  : 		else if( lhs.m_iMainType != INVENTORY_ITEM_ETC && rhs.m_iMainType == INVENTORY_ITEM_ETC )

  0002f	8b 11		 mov	 edx, DWORD PTR [ecx]
  00031	83 fa 03	 cmp	 edx, 3

; 241  : 		{
; 242  : 			return false;

  00034	74 06		 je	 SHORT $LN1@operator

; 243  : 		}
; 244  : 		else
; 245  : 		{
; 246  : 			if( lhs.m_iMainType < rhs.m_iMainType )

  00036	3b f2		 cmp	 esi, edx

; 247  : 				return true;

  00038	7c db		 jl	 SHORT $LN20@operator

; 248  : 
; 249  : 			if( lhs.m_iMainType == rhs.m_iMainType )
; 250  : 			{
; 251  : 				if( lhs.m_iMagicCode > rhs.m_iMagicCode )
; 252  : 					return true;

  0003a	74 dd		 je	 SHORT $LN13@operator
$LN1@operator:

; 253  : 
; 254  : 				if( lhs.m_iMagicCode == rhs.m_iMagicCode )
; 255  : 				{
; 256  : 					if( lhs.m_iPriorityOrder < rhs.m_iPriorityOrder )
; 257  : 						return true;
; 258  : 				}
; 259  : 			}
; 260  : 		}
; 261  : 
; 262  : 		return false;

  0003c	32 c0		 xor	 al, al
$LN14@operator:
  0003e	5e		 pop	 esi

; 263  : 	}

  0003f	5d		 pop	 ebp
  00040	c2 08 00	 ret	 8
??RInventoryItemInfoSort2@@QBE_NABUtagInventoryItemInfo@@0@Z ENDP ; InventoryItemInfoSort2::operator()
_TEXT	ENDS
PUBLIC	??RInventoryItemInfoSort3@@QBE_NABUtagInventoryItemInfo@@0@Z ; InventoryItemInfoSort3::operator()
; Function compile flags: /Ogsp
;	COMDAT ??RInventoryItemInfoSort3@@QBE_NABUtagInventoryItemInfo@@0@Z
_TEXT	SEGMENT
_lhs$ = 8						; size = 4
_rhs$ = 12						; size = 4
??RInventoryItemInfoSort3@@QBE_NABUtagInventoryItemInfo@@0@Z PROC ; InventoryItemInfoSort3::operator(), COMDAT
; _this$ = ecx

; 270  : 	{

  00000	55		 push	 ebp
  00001	8b ec		 mov	 ebp, esp

; 271  : 		if( lhs.m_iMainType == INVENTORY_ITEM_ETC && rhs.m_iMainType != INVENTORY_ITEM_ETC )

  00003	8b 45 08	 mov	 eax, DWORD PTR _lhs$[ebp]
  00006	8b 4d 0c	 mov	 ecx, DWORD PTR _rhs$[ebp]
  00009	56		 push	 esi
  0000a	8b 30		 mov	 esi, DWORD PTR [eax]
  0000c	83 fe 03	 cmp	 esi, 3
  0000f	75 2a		 jne	 SHORT $LN20@operator@2
  00011	39 31		 cmp	 DWORD PTR [ecx], esi
  00013	74 04		 je	 SHORT $LN17@operator@2
$LN26@operator@2:

; 272  : 			return true;

  00015	b0 01		 mov	 al, 1
  00017	eb 31		 jmp	 SHORT $LN18@operator@2
$LN17@operator@2:

; 273  : 
; 274  : 		if( lhs.m_iMainType == INVENTORY_ITEM_ETC && rhs.m_iMainType == INVENTORY_ITEM_ETC )
; 275  : 		{
; 276  : 			if( lhs.m_iPriorityOrder2 < rhs.m_iPriorityOrder2 )

  00019	8b 50 44	 mov	 edx, DWORD PTR [eax+68]
  0001c	8b 71 44	 mov	 esi, DWORD PTR [ecx+68]
  0001f	3b d6		 cmp	 edx, esi

; 277  : 				return true;

  00021	7c f2		 jl	 SHORT $LN26@operator@2

; 278  : 
; 279  : 			if( lhs.m_iPriorityOrder2 == rhs.m_iPriorityOrder2 )

  00023	75 23		 jne	 SHORT $LN1@operator@2

; 280  : 			{
; 281  : 				if( lhs.m_iPriorityOrder < rhs.m_iPriorityOrder )

  00025	8b 50 40	 mov	 edx, DWORD PTR [eax+64]
  00028	8b 71 40	 mov	 esi, DWORD PTR [ecx+64]
  0002b	3b d6		 cmp	 edx, esi

; 282  : 					return true;

  0002d	7c e6		 jl	 SHORT $LN26@operator@2

; 283  : 
; 284  : 				if( lhs.m_iPriorityOrder == rhs.m_iPriorityOrder )

  0002f	75 17		 jne	 SHORT $LN1@operator@2

; 285  : 				{
; 286  : 					if( lhs.m_iMagicCode < rhs.m_iMagicCode )

  00031	8b 40 04	 mov	 eax, DWORD PTR [eax+4]
  00034	3b 41 04	 cmp	 eax, DWORD PTR [ecx+4]
  00037	7d 0f		 jge	 SHORT $LN1@operator@2

; 287  : 						return true;

  00039	eb da		 jmp	 SHORT $LN26@operator@2
$LN20@operator@2:

; 288  : 				}
; 289  : 			}
; 290  : 		}
; 291  : 		else if( lhs.m_iMainType != INVENTORY_ITEM_ETC && rhs.m_iMainType == INVENTORY_ITEM_ETC )

  0003b	8b 11		 mov	 edx, DWORD PTR [ecx]
  0003d	83 fa 03	 cmp	 edx, 3

; 292  : 		{
; 293  : 			return false;

  00040	74 06		 je	 SHORT $LN1@operator@2

; 294  : 		}
; 295  : 		else
; 296  : 		{
; 297  : 			if( lhs.m_iMainType < rhs.m_iMainType )

  00042	3b f2		 cmp	 esi, edx

; 298  : 				return true;

  00044	7c cf		 jl	 SHORT $LN26@operator@2

; 299  : 
; 300  : 			if( lhs.m_iMainType == rhs.m_iMainType )
; 301  : 			{
; 302  : 				if( lhs.m_iPriorityOrder2 < rhs.m_iPriorityOrder2 )
; 303  : 					return true;

  00046	74 d1		 je	 SHORT $LN17@operator@2
$LN1@operator@2:

; 304  : 
; 305  : 				if( lhs.m_iPriorityOrder2 == rhs.m_iPriorityOrder2 )
; 306  : 				{
; 307  : 					if( lhs.m_iPriorityOrder < rhs.m_iPriorityOrder )
; 308  : 						return true;
; 309  : 
; 310  : 					if( lhs.m_iPriorityOrder == rhs.m_iPriorityOrder )
; 311  : 					{
; 312  : 						if( lhs.m_iMagicCode < rhs.m_iMagicCode )
; 313  : 							return true;
; 314  : 					}
; 315  : 				}
; 316  : 			}
; 317  : 		}
; 318  : 
; 319  : 		return false;

  00048	32 c0		 xor	 al, al
$LN18@operator@2:
  0004a	5e		 pop	 esi

; 320  : 	}

  0004b	5d		 pop	 ebp
  0004c	c2 08 00	 ret	 8
??RInventoryItemInfoSort3@@QBE_NABUtagInventoryItemInfo@@0@Z ENDP ; InventoryItemInfoSort3::operator()
_TEXT	ENDS
PUBLIC	?GetUserExtraItem@ioMyInfo@@QAEPAVioUserExtraItem@@XZ ; ioMyInfo::GetUserExtraItem
; Function compile flags: /Ogsp
; File d:\lost saga for developer\youtube\tutorial\source\src\lsclient\iomyinfo.h
;	COMDAT ?GetUserExtraItem@ioMyInfo@@QAEPAVioUserExtraItem@@XZ
_TEXT	SEGMENT
?GetUserExtraItem@ioMyInfo@@QAEPAVioUserExtraItem@@XZ PROC ; ioMyInfo::GetUserExtraItem, COMDAT
; _this$ = ecx

; 636  : 	ioUserExtraItem* GetUserExtraItem() { return &m_UserExtraItem; }

  00000	8d 81 ac 01 00
	00		 lea	 eax, DWORD PTR [ecx+428]
  00006	c3		 ret	 0
?GetUserExtraItem@ioMyInfo@@QAEPAVioUserExtraItem@@XZ ENDP ; ioMyInfo::GetUserExtraItem
_TEXT	ENDS
PUBLIC	?GetPCRoomAuthority@ioMyInfo@@QAEKXZ		; ioMyInfo::GetPCRoomAuthority
; Function compile flags: /Ogsp
;	COMDAT ?GetPCRoomAuthority@ioMyInfo@@QAEKXZ
_TEXT	SEGMENT
?GetPCRoomAuthority@ioMyInfo@@QAEKXZ PROC		; ioMyInfo::GetPCRoomAuthority, COMDAT
; _this$ = ecx

; 836  : 	DWORD GetPCRoomAuthority(){ return m_dwPCRoomAuthority; }

  00000	8b 81 34 08 00
	00		 mov	 eax, DWORD PTR [ecx+2100]
  00006	c3		 ret	 0
?GetPCRoomAuthority@ioMyInfo@@QAEKXZ ENDP		; ioMyInfo::GetPCRoomAuthority
_TEXT	ENDS
PUBLIC	?IsUserEvent@ioMyInfo@@QAE_NXZ			; ioMyInfo::IsUserEvent
; Function compile flags: /Ogsp
;	COMDAT ?IsUserEvent@ioMyInfo@@QAE_NXZ
_TEXT	SEGMENT
?IsUserEvent@ioMyInfo@@QAE_NXZ PROC			; ioMyInfo::IsUserEvent, COMDAT
; _this$ = ecx

; 838  : 	bool IsUserEvent() { return m_bUserHeroEvent; }

  00000	8a 81 39 08 00
	00		 mov	 al, BYTE PTR [ecx+2105]
  00006	c3		 ret	 0
?IsUserEvent@ioMyInfo@@QAE_NXZ ENDP			; ioMyInfo::IsUserEvent
_TEXT	ENDS
PUBLIC	?GetPreOverWnd@ioSP2GUIManager@@QAEPAVioWnd@@XZ	; ioSP2GUIManager::GetPreOverWnd
; Function compile flags: /Ogsp
; File d:\lost saga for developer\youtube\tutorial\source\src\lsclient\gui\iosp2guimanager.h
;	COMDAT ?GetPreOverWnd@ioSP2GUIManager@@QAEPAVioWnd@@XZ
_TEXT	SEGMENT
?GetPreOverWnd@ioSP2GUIManager@@QAEPAVioWnd@@XZ PROC	; ioSP2GUIManager::GetPreOverWnd, COMDAT
; _this$ = ecx

; 220  : 	ioWnd *GetPreOverWnd(){ return m_pPreOverWnd; }

  00000	8b 41 10	 mov	 eax, DWORD PTR [ecx+16]
  00003	c3		 ret	 0
?GetPreOverWnd@ioSP2GUIManager@@QAEPAVioWnd@@XZ ENDP	; ioSP2GUIManager::GetPreOverWnd
_TEXT	ENDS
PUBLIC	?empty@?$vector@UtagTextPiece@ioComplexStringPrinter@@V?$allocator@UtagTextPiece@ioComplexStringPrinter@@@std@@@std@@QBE_NXZ ; std::vector<ioComplexStringPrinter::tagTextPiece,std::allocator<ioComplexStringPrinter::tagTextPiece> >::empty
; Function compile flags: /Ogsp
; File c:\program files (x86)\microsoft visual studio 10.0\vc\include\vector
;	COMDAT ?empty@?$vector@UtagTextPiece@ioComplexStringPrinter@@V?$allocator@UtagTextPiece@ioComplexStringPrinter@@@std@@@std@@QBE_NXZ
_TEXT	SEGMENT
?empty@?$vector@UtagTextPiece@ioComplexStringPrinter@@V?$allocator@UtagTextPiece@ioComplexStringPrinter@@@std@@@std@@QBE_NXZ PROC ; std::vector<ioComplexStringPrinter::tagTextPiece,std::allocator<ioComplexStringPrinter::tagTextPiece> >::empty, COMDAT
; _this$ = ecx

; 889  : 		return (this->_Myfirst == this->_Mylast);

  00000	8b 01		 mov	 eax, DWORD PTR [ecx]
  00002	2b 41 04	 sub	 eax, DWORD PTR [ecx+4]
  00005	f7 d8		 neg	 eax
  00007	1b c0		 sbb	 eax, eax
  00009	40		 inc	 eax

; 890  : 		}

  0000a	c3		 ret	 0
?empty@?$vector@UtagTextPiece@ioComplexStringPrinter@@V?$allocator@UtagTextPiece@ioComplexStringPrinter@@@std@@@std@@QBE_NXZ ENDP ; std::vector<ioComplexStringPrinter::tagTextPiece,std::allocator<ioComplexStringPrinter::tagTextPiece> >::empty
_TEXT	ENDS
PUBLIC	?DecryptValueToPool@?$CEncrypt@H@@QAEXPAH@Z	; CEncrypt<int>::DecryptValueToPool
EXTRN	?DecryptByte@ccddaabb@@QBEXPBDPADH@Z:PROC	; ccddaabb::DecryptByte
; Function compile flags: /Ogsp
; File d:\lost saga for developer\youtube\tutorial\source\src\lsclient\encryptvalue.h
;	COMDAT ?DecryptValueToPool@?$CEncrypt@H@@QAEXPAH@Z
_TEXT	SEGMENT
_value$ = 8						; size = 4
?DecryptValueToPool@?$CEncrypt@H@@QAEXPAH@Z PROC	; CEncrypt<int>::DecryptValueToPool, COMDAT
; _this$ = ecx

; 837  : 	{

  00000	55		 push	 ebp
  00001	8b ec		 mov	 ebp, esp
  00003	56		 push	 esi

; 838  : 		m_RC5.DecryptByte( m_MemPool, m_TempMem, 4 );

  00004	8d 71 28	 lea	 esi, DWORD PTR [ecx+40]
  00007	6a 04		 push	 4
  00009	8d 41 1c	 lea	 eax, DWORD PTR [ecx+28]
  0000c	56		 push	 esi
  0000d	50		 push	 eax
  0000e	83 c1 0c	 add	 ecx, 12			; 0000000cH
  00011	e8 00 00 00 00	 call	 ?DecryptByte@ccddaabb@@QBEXPBDPADH@Z ; ccddaabb::DecryptByte

; 839  : 		*value = *((int*)m_TempMem);

  00016	8b 06		 mov	 eax, DWORD PTR [esi]
  00018	8b 4d 08	 mov	 ecx, DWORD PTR _value$[ebp]
  0001b	89 01		 mov	 DWORD PTR [ecx], eax
  0001d	5e		 pop	 esi

; 840  : 	}

  0001e	5d		 pop	 ebp
  0001f	c2 04 00	 ret	 4
?DecryptValueToPool@?$CEncrypt@H@@QAEXPAH@Z ENDP	; CEncrypt<int>::DecryptValueToPool
_TEXT	ENDS
PUBLIC	?DecryptValueToPool@?$CEncrypt@_J@@QAEXPA_J@Z	; CEncrypt<__int64>::DecryptValueToPool
; Function compile flags: /Ogsp
;	COMDAT ?DecryptValueToPool@?$CEncrypt@_J@@QAEXPA_J@Z
_TEXT	SEGMENT
_value$ = 8						; size = 4
?DecryptValueToPool@?$CEncrypt@_J@@QAEXPA_J@Z PROC	; CEncrypt<__int64>::DecryptValueToPool, COMDAT
; _this$ = ecx

; 2036 : 	{

  00000	55		 push	 ebp
  00001	8b ec		 mov	 ebp, esp
  00003	56		 push	 esi

; 2037 : 		m_RC5.DecryptByte( m_MemPool, m_TempMem, 8 );

  00004	8d 71 28	 lea	 esi, DWORD PTR [ecx+40]
  00007	6a 08		 push	 8
  00009	8d 41 1c	 lea	 eax, DWORD PTR [ecx+28]
  0000c	56		 push	 esi
  0000d	50		 push	 eax
  0000e	83 c1 0c	 add	 ecx, 12			; 0000000cH
  00011	e8 00 00 00 00	 call	 ?DecryptByte@ccddaabb@@QBEXPBDPADH@Z ; ccddaabb::DecryptByte

; 2038 : 		*value = *((__int64*)m_TempMem);

  00016	8b 0e		 mov	 ecx, DWORD PTR [esi]
  00018	8b 45 08	 mov	 eax, DWORD PTR _value$[ebp]
  0001b	89 08		 mov	 DWORD PTR [eax], ecx
  0001d	8b 4e 04	 mov	 ecx, DWORD PTR [esi+4]
  00020	89 48 04	 mov	 DWORD PTR [eax+4], ecx
  00023	5e		 pop	 esi

; 2039 : 	}

  00024	5d		 pop	 ebp
  00025	c2 04 00	 ret	 4
?DecryptValueToPool@?$CEncrypt@_J@@QAEXPA_J@Z ENDP	; CEncrypt<__int64>::DecryptValueToPool
_TEXT	ENDS
EXTRN	__imp_??0exception@std@@QAE@ABV01@@Z:PROC
; Function compile flags: /Ogsp
;	COMDAT ??0bad_alloc@std@@QAE@ABV01@@Z
_TEXT	SEGMENT
___that$ = 8						; size = 4
??0bad_alloc@std@@QAE@ABV01@@Z PROC			; std::bad_alloc::bad_alloc, COMDAT
; _this$ = ecx
  00000	55		 push	 ebp
  00001	8b ec		 mov	 ebp, esp
  00003	56		 push	 esi
  00004	ff 75 08	 push	 DWORD PTR ___that$[ebp]
  00007	8b f1		 mov	 esi, ecx
  00009	ff 15 00 00 00
	00		 call	 DWORD PTR __imp_??0exception@std@@QAE@ABV01@@Z
  0000f	c7 06 00 00 00
	00		 mov	 DWORD PTR [esi], OFFSET ??_7bad_alloc@std@@6B@
  00015	8b c6		 mov	 eax, esi
  00017	5e		 pop	 esi
  00018	5d		 pop	 ebp
  00019	c2 04 00	 ret	 4
??0bad_alloc@std@@QAE@ABV01@@Z ENDP			; std::bad_alloc::bad_alloc
_TEXT	ENDS
PUBLIC	??0TradeItemRegisterConfirmWnd@@QAE@XZ		; TradeItemRegisterConfirmWnd::TradeItemRegisterConfirmWnd
EXTRN	??_L@YGXPAXIHP6EX0@Z1@Z:PROC			; `eh vector constructor iterator'
;	COMDAT xdata$x
; File d:\lost saga for developer\youtube\tutorial\source\src\lsclient\gui\tradeitemregisterwnd.cpp
xdata$x	SEGMENT
__unwindtable$??0TradeItemRegisterConfirmWnd@@QAE@XZ DD 0ffffffffH
	DD	FLAT:__unwindfunclet$??0TradeItemRegisterConfirmWnd@@QAE@XZ$0
	DD	00H
	DD	FLAT:__unwindfunclet$??0TradeItemRegisterConfirmWnd@@QAE@XZ$1
__ehfuncinfo$??0TradeItemRegisterConfirmWnd@@QAE@XZ DD 019930522H
	DD	02H
	DD	FLAT:__unwindtable$??0TradeItemRegisterConfirmWnd@@QAE@XZ
	DD	2 DUP(00H)
	DD	2 DUP(00H)
	DD	00H
	DD	01H
; Function compile flags: /Ogsp
xdata$x	ENDS
;	COMDAT ??0TradeItemRegisterConfirmWnd@@QAE@XZ
_TEXT	SEGMENT
_this$ = -16						; size = 4
__$EHRec$ = -12						; size = 12
??0TradeItemRegisterConfirmWnd@@QAE@XZ PROC		; TradeItemRegisterConfirmWnd::TradeItemRegisterConfirmWnd, COMDAT
; _this$ = ecx

; 49   : {

  00000	6a 04		 push	 4
  00002	b8 00 00 00 00	 mov	 eax, __ehhandler$??0TradeItemRegisterConfirmWnd@@QAE@XZ
  00007	e8 00 00 00 00	 call	 __EH_prolog3
  0000c	8b f1		 mov	 esi, ecx
  0000e	89 75 f0	 mov	 DWORD PTR _this$[ebp], esi
  00011	ff 15 00 00 00
	00		 call	 DWORD PTR __imp_??0ioMovingWnd@@QAE@XZ
  00017	68 00 00 00 00	 push	 OFFSET ??1ioComplexStringPrinter@@QAE@XZ ; ioComplexStringPrinter::~ioComplexStringPrinter
  0001c	68 00 00 00 00	 push	 OFFSET ??0ioComplexStringPrinter@@QAE@XZ ; ioComplexStringPrinter::ioComplexStringPrinter
  00021	6a 03		 push	 3
  00023	6a 20		 push	 32			; 00000020H
  00025	8d 86 ac 01 00
	00		 lea	 eax, DWORD PTR [esi+428]
  0002b	33 ff		 xor	 edi, edi
  0002d	50		 push	 eax
  0002e	89 7d fc	 mov	 DWORD PTR __$EHRec$[ebp+8], edi
  00031	c7 06 00 00 00
	00		 mov	 DWORD PTR [esi], OFFSET ??_7TradeItemRegisterConfirmWnd@@6B@
  00037	e8 00 00 00 00	 call	 ??_L@YGXPAXIHP6EX0@Z1@Z

; 50   : 	m_iExtraItemIndex = 0;
; 51   : 	m_iPrice = 0;
; 52   : 	m_iTexPrice = 0;
; 53   : 
; 54   : 	m_pEditFrm = NULL;
; 55   : 	m_pTexFrm = NULL;
; 56   : 
; 57   : 	ClearDesc();

  0003c	8b ce		 mov	 ecx, esi
  0003e	c6 45 fc 01	 mov	 BYTE PTR __$EHRec$[ebp+8], 1
  00042	89 be 90 01 00
	00		 mov	 DWORD PTR [esi+400], edi
  00048	89 be 98 01 00
	00		 mov	 DWORD PTR [esi+408], edi
  0004e	89 be 9c 01 00
	00		 mov	 DWORD PTR [esi+412], edi
  00054	89 be a0 01 00
	00		 mov	 DWORD PTR [esi+416], edi
  0005a	89 be a4 01 00
	00		 mov	 DWORD PTR [esi+420], edi
  00060	89 be 10 02 00
	00		 mov	 DWORD PTR [esi+528], edi
  00066	89 be 14 02 00
	00		 mov	 DWORD PTR [esi+532], edi
  0006c	e8 00 00 00 00	 call	 ?ClearDesc@TradeItemRegisterConfirmWnd@@IAEXXZ ; TradeItemRegisterConfirmWnd::ClearDesc

; 58   : }

  00071	8b c6		 mov	 eax, esi
  00073	e8 00 00 00 00	 call	 __EH_epilog3
  00078	c3		 ret	 0
_TEXT	ENDS
;	COMDAT text$x
text$x	SEGMENT
__unwindfunclet$??0TradeItemRegisterConfirmWnd@@QAE@XZ$0:
  00000	8b 4d f0	 mov	 ecx, DWORD PTR _this$[ebp]
  00003	ff 25 00 00 00
	00		 jmp	 DWORD PTR __imp_??1ioMovingWnd@@UAE@XZ
__unwindfunclet$??0TradeItemRegisterConfirmWnd@@QAE@XZ$1:
  00009	68 00 00 00 00	 push	 OFFSET ??1ioComplexStringPrinter@@QAE@XZ ; ioComplexStringPrinter::~ioComplexStringPrinter
  0000e	6a 03		 push	 3
  00010	6a 20		 push	 32			; 00000020H
  00012	8b 45 f0	 mov	 eax, DWORD PTR _this$[ebp]
  00015	05 ac 01 00 00	 add	 eax, 428		; 000001acH
  0001a	50		 push	 eax
  0001b	e8 00 00 00 00	 call	 ??_M@YGXPAXIHP6EX0@Z@Z
  00020	c3		 ret	 0
__ehhandler$??0TradeItemRegisterConfirmWnd@@QAE@XZ:
  00021	8b 54 24 08	 mov	 edx, DWORD PTR [esp+8]
  00025	8d 42 0c	 lea	 eax, DWORD PTR [edx+12]
  00028	8b 4a ec	 mov	 ecx, DWORD PTR [edx-20]
  0002b	33 c8		 xor	 ecx, eax
  0002d	e8 00 00 00 00	 call	 @__security_check_cookie@4
  00032	b8 00 00 00 00	 mov	 eax, OFFSET __ehfuncinfo$??0TradeItemRegisterConfirmWnd@@QAE@XZ
  00037	e9 00 00 00 00	 jmp	 ___CxxFrameHandler3
text$x	ENDS
??0TradeItemRegisterConfirmWnd@@QAE@XZ ENDP		; TradeItemRegisterConfirmWnd::TradeItemRegisterConfirmWnd
; Function compile flags: /Ogsp
;	COMDAT ??_GTradeItemRegisterConfirmWnd@@UAEPAXI@Z
_TEXT	SEGMENT
___flags$ = 8						; size = 4
??_GTradeItemRegisterConfirmWnd@@UAEPAXI@Z PROC		; TradeItemRegisterConfirmWnd::`scalar deleting destructor', COMDAT
; _this$ = ecx
  00000	55		 push	 ebp
  00001	8b ec		 mov	 ebp, esp
  00003	56		 push	 esi
  00004	8b f1		 mov	 esi, ecx
  00006	e8 00 00 00 00	 call	 ??1TradeItemRegisterConfirmWnd@@UAE@XZ ; TradeItemRegisterConfirmWnd::~TradeItemRegisterConfirmWnd
  0000b	f6 45 08 01	 test	 BYTE PTR ___flags$[ebp], 1
  0000f	74 07		 je	 SHORT $LN1@scalar@3
  00011	56		 push	 esi
  00012	e8 00 00 00 00	 call	 ??3@YAXPAX@Z		; operator delete
  00017	59		 pop	 ecx
$LN1@scalar@3:
  00018	8b c6		 mov	 eax, esi
  0001a	5e		 pop	 esi
  0001b	5d		 pop	 ebp
  0001c	c2 04 00	 ret	 4
??_GTradeItemRegisterConfirmWnd@@UAEPAXI@Z ENDP		; TradeItemRegisterConfirmWnd::`scalar deleting destructor'
; Function compile flags: /Ogsp
_TEXT	ENDS
;	COMDAT ??_GTradeItemRegisterResultWnd@@UAEPAXI@Z
_TEXT	SEGMENT
___flags$ = 8						; size = 4
??_GTradeItemRegisterResultWnd@@UAEPAXI@Z PROC		; TradeItemRegisterResultWnd::`scalar deleting destructor', COMDAT
; _this$ = ecx
  00000	55		 push	 ebp
  00001	8b ec		 mov	 ebp, esp
  00003	56		 push	 esi
  00004	8b f1		 mov	 esi, ecx
  00006	e8 00 00 00 00	 call	 ??1TradeItemRegisterResultWnd@@UAE@XZ ; TradeItemRegisterResultWnd::~TradeItemRegisterResultWnd
  0000b	f6 45 08 01	 test	 BYTE PTR ___flags$[ebp], 1
  0000f	74 07		 je	 SHORT $LN1@scalar@4
  00011	56		 push	 esi
  00012	e8 00 00 00 00	 call	 ??3@YAXPAX@Z		; operator delete
  00017	59		 pop	 ecx
$LN1@scalar@4:
  00018	8b c6		 mov	 eax, esi
  0001a	5e		 pop	 esi
  0001b	5d		 pop	 ebp
  0001c	c2 04 00	 ret	 4
??_GTradeItemRegisterResultWnd@@UAEPAXI@Z ENDP		; TradeItemRegisterResultWnd::`scalar deleting destructor'
_TEXT	ENDS
PUBLIC	__real@4f800000
PUBLIC	??_R0?AVTradeIconBtn@@@8			; TradeIconBtn `RTTI Type Descriptor'
PUBLIC	??_C@_0DC@GFCOJBPA@TradeItemRegisterResultWnd?3?3SetR@ ; `string'
PUBLIC	?SetRegisterResultInfo@TradeItemRegisterResultWnd@@QAEXKKKKK_J@Z ; TradeItemRegisterResultWnd::SetRegisterResultInfo
EXTRN	__imp_?ShowWnd@ioWnd@@QAEXXZ:PROC
EXTRN	__imp_?IsShow@ioWnd@@QBE_NXZ:PROC
EXTRN	?SetIcon@TradeIconBtn@@QAE_NPAVioUIRenderImage@@MMH@Z:PROC ; TradeIconBtn::SetIcon
EXTRN	__imp_?CreateImageByFullName@ioUIImageSetManager@@QAEPAVioUIRenderImage@@ABVioHashString@@_N@Z:PROC
EXTRN	__imp_?GetSingleton@ioUIImageSetManager@@SAAAV1@XZ:PROC
EXTRN	?GetItemConst@ioItemMaker@@QBEPBVioItem@@KABVioHashString@@@Z:PROC ; ioItemMaker::GetItemConst
EXTRN	?GetSingleton@ioItemMaker@@SAAAV1@XZ:PROC	; ioItemMaker::GetSingleton
EXTRN	__imp_??0ioHashString@@QAE@PBD@Z:PROC
EXTRN	___RTDynamicCast:PROC
;	COMDAT __real@4f800000
; File d:\lost saga for developer\youtube\tutorial\source\src\lsclient\gui\changetradestatewnd.h
CONST	SEGMENT
__real@4f800000 DD 04f800000r			; 4.29497e+009
CONST	ENDS
;	COMDAT ??_R0?AVTradeIconBtn@@@8
_DATA	SEGMENT
??_R0?AVTradeIconBtn@@@8 DD FLAT:??_7type_info@@6B@	; TradeIconBtn `RTTI Type Descriptor'
	DD	00H
	DB	'.?AVTradeIconBtn@@', 00H
_DATA	ENDS
;	COMDAT ??_C@_0DC@GFCOJBPA@TradeItemRegisterResultWnd?3?3SetR@
CONST	SEGMENT
??_C@_0DC@GFCOJBPA@TradeItemRegisterResultWnd?3?3SetR@ DB 'TradeItemRegis'
	DB	'terResultWnd::SetRegisterResultInfo', 00H	; `string'
CONST	ENDS
;	COMDAT xdata$x
xdata$x	SEGMENT
__unwindtable$?SetRegisterResultInfo@TradeItemRegisterResultWnd@@QAEXKKKKK_J@Z DD 0ffffffffH
	DD	FLAT:__unwindfunclet$?SetRegisterResultInfo@TradeItemRegisterResultWnd@@QAEXKKKKK_J@Z$0
__ehfuncinfo$?SetRegisterResultInfo@TradeItemRegisterResultWnd@@QAEXKKKKK_J@Z DD 019930522H
	DD	01H
	DD	FLAT:__unwindtable$?SetRegisterResultInfo@TradeItemRegisterResultWnd@@QAEXKKKKK_J@Z
	DD	2 DUP(00H)
	DD	2 DUP(00H)
	DD	00H
	DD	01H
; Function compile flags: /Ogsp
; File d:\lost saga for developer\youtube\tutorial\source\src\lsclient\gui\tradeitemregisterwnd.cpp
xdata$x	ENDS
;	COMDAT ?SetRegisterResultInfo@TradeItemRegisterResultWnd@@QAEXKKKKK_J@Z
_TEXT	SEGMENT
$T511064 = -28						; size = 16
__$EHRec$ = -12						; size = 12
_dwItemType$ = 8					; size = 4
_pIcon$ = 12						; size = 4
_dwMagicCode$ = 12					; size = 4
tv212 = 16						; size = 4
tv210 = 16						; size = 4
_dwValue$ = 16						; size = 4
_dwMaleCustom$ = 20					; size = 4
_dwFemaleCustom$ = 24					; size = 4
_iPrice$ = 28						; size = 8
?SetRegisterResultInfo@TradeItemRegisterResultWnd@@QAEXKKKKK_J@Z PROC ; TradeItemRegisterResultWnd::SetRegisterResultInfo, COMDAT
; _this$ = ecx

; 366  : {

  00000	6a 10		 push	 16			; 00000010H
  00002	b8 00 00 00 00	 mov	 eax, __ehhandler$?SetRegisterResultInfo@TradeItemRegisterResultWnd@@QAEXKKKKK_J@Z
  00007	e8 00 00 00 00	 call	 __EH_prolog3
  0000c	8b d9		 mov	 ebx, ecx

; 367  : 	const ioItem *pItem = g_ItemMaker.GetItemConst( dwMagicCode, __FUNCTION__ );

  0000e	68 00 00 00 00	 push	 OFFSET ??_C@_0DC@GFCOJBPA@TradeItemRegisterResultWnd?3?3SetR@
  00013	8d 4d e4	 lea	 ecx, DWORD PTR $T511064[ebp]
  00016	ff 15 00 00 00
	00		 call	 DWORD PTR __imp_??0ioHashString@@QAE@PBD@Z
  0001c	8d 45 e4	 lea	 eax, DWORD PTR $T511064[ebp]
  0001f	50		 push	 eax
  00020	ff 75 0c	 push	 DWORD PTR _dwMagicCode$[ebp]
  00023	33 f6		 xor	 esi, esi
  00025	89 75 fc	 mov	 DWORD PTR __$EHRec$[ebp+8], esi
  00028	e8 00 00 00 00	 call	 ?GetSingleton@ioItemMaker@@SAAAV1@XZ ; ioItemMaker::GetSingleton
  0002d	8b c8		 mov	 ecx, eax
  0002f	e8 00 00 00 00	 call	 ?GetItemConst@ioItemMaker@@QBEPBVioItem@@KABVioHashString@@@Z ; ioItemMaker::GetItemConst
  00034	83 4d fc ff	 or	 DWORD PTR __$EHRec$[ebp+8], -1
  00038	8d 4d e4	 lea	 ecx, DWORD PTR $T511064[ebp]
  0003b	8b f8		 mov	 edi, eax
  0003d	ff 15 00 00 00
	00		 call	 DWORD PTR __imp_??1ioHashString@@QAE@XZ

; 368  : 	if( !pItem )

  00043	3b fe		 cmp	 edi, esi
  00045	0f 84 e6 00 00
	00		 je	 $LN1@SetRegiste

; 369  : 	{
; 370  : 		return;
; 371  : 	}
; 372  : 
; 373  : 	m_szName = pItem->GetName();

  0004b	8d 87 34 01 00
	00		 lea	 eax, DWORD PTR [edi+308]
  00051	50		 push	 eax
  00052	8d 8b 90 01 00
	00		 lea	 ecx, DWORD PTR [ebx+400]
  00058	ff 15 00 00 00
	00		 call	 DWORD PTR __imp_??4ioHashString@@QAEAAV0@ABV0@@Z

; 374  : 	m_iPrice = iPrice;

  0005e	8b 45 1c	 mov	 eax, DWORD PTR _iPrice$[ebp]
  00061	89 83 a0 01 00
	00		 mov	 DWORD PTR [ebx+416], eax
  00067	8b 45 20	 mov	 eax, DWORD PTR _iPrice$[ebp+4]
  0006a	89 83 a4 01 00
	00		 mov	 DWORD PTR [ebx+420], eax

; 375  : 
; 376  : 	ioUIRenderImage *pIcon = g_UIImageSetMgr.CreateImageByFullName( pItem->GetItemLargeIconName() );

  00070	8d 87 14 02 00
	00		 lea	 eax, DWORD PTR [edi+532]
  00076	56		 push	 esi
  00077	50		 push	 eax
  00078	ff 15 00 00 00
	00		 call	 DWORD PTR __imp_?GetSingleton@ioUIImageSetManager@@SAAAV1@XZ
  0007e	8b c8		 mov	 ecx, eax
  00080	ff 15 00 00 00
	00		 call	 DWORD PTR __imp_?CreateImageByFullName@ioUIImageSetManager@@QAEPAVioUIRenderImage@@ABVioHashString@@_N@Z

; 377  : 	TradeIconBtn *pIconBtn = dynamic_cast<TradeIconBtn*>(FindChildWnd(ID_ICON_BTN));

  00086	56		 push	 esi
  00087	68 00 00 00 00	 push	 OFFSET ??_R0?AVTradeIconBtn@@@8
  0008c	68 00 00 00 00	 push	 OFFSET ??_R0?AVioWnd@@@8
  00091	56		 push	 esi
  00092	6a 01		 push	 1
  00094	8b cb		 mov	 ecx, ebx
  00096	89 45 0c	 mov	 DWORD PTR _pIcon$[ebp], eax
  00099	ff 15 00 00 00
	00		 call	 DWORD PTR __imp_?FindChildWnd@ioWnd@@QAEPAV1@K@Z
  0009f	50		 push	 eax
  000a0	e8 00 00 00 00	 call	 ___RTDynamicCast
  000a5	8b f0		 mov	 esi, eax
  000a7	83 c4 14	 add	 esp, 20			; 00000014H

; 378  : 	if( pIconBtn )

  000aa	85 f6		 test	 esi, esi
  000ac	74 6f		 je	 SHORT $LN27@SetRegiste

; 379  : 	{
; 380  : 		pIconBtn->SetIcon( pIcon, FLOAT1, FLOAT1, dwValue );

  000ae	b8 01 00 00 00	 mov	 eax, 1
  000b3	8b c8		 mov	 ecx, eax
  000b5	b8 01 00 00 00	 mov	 eax, 1
  000ba	ff 75 10	 push	 DWORD PTR _dwValue$[ebp]
  000bd	89 4d 10	 mov	 DWORD PTR tv212[ebp], ecx
  000c0	db 45 10	 fild	 DWORD PTR tv212[ebp]
  000c3	85 c9		 test	 ecx, ecx
  000c5	79 06		 jns	 SHORT $LN30@SetRegiste
  000c7	d8 05 00 00 00
	00		 fadd	 DWORD PTR __real@4f800000
$LN30@SetRegiste:
  000cd	51		 push	 ecx
  000ce	51		 push	 ecx
  000cf	89 45 10	 mov	 DWORD PTR tv210[ebp], eax
  000d2	d9 5c 24 04	 fstp	 DWORD PTR [esp+4]
  000d6	db 45 10	 fild	 DWORD PTR tv210[ebp]
  000d9	85 c0		 test	 eax, eax
  000db	79 06		 jns	 SHORT $LN31@SetRegiste
  000dd	d8 05 00 00 00
	00		 fadd	 DWORD PTR __real@4f800000
$LN31@SetRegiste:
  000e3	d9 1c 24	 fstp	 DWORD PTR [esp]
  000e6	ff 75 0c	 push	 DWORD PTR _pIcon$[ebp]
  000e9	8b ce		 mov	 ecx, esi
  000eb	e8 00 00 00 00	 call	 ?SetIcon@TradeIconBtn@@QAE_NPAVioUIRenderImage@@MMH@Z ; TradeIconBtn::SetIcon

; 381  : 		if( pItem )
; 382  : 			pIconBtn->SetGradeType( pItem->GetGradeType() );

  000f0	8b 87 20 06 00
	00		 mov	 eax, DWORD PTR [edi+1568]
  000f6	89 86 2c 02 00
	00		 mov	 DWORD PTR [esi+556], eax

; 383  : 		pIconBtn->SetMarkType( TRADE_MARK_TYPE_DISABLE );

  000fc	33 c0		 xor	 eax, eax
  000fe	89 86 18 02 00
	00		 mov	 DWORD PTR [esi+536], eax

; 384  : 
; 385  : 		if( dwMaleCustom > 0 || dwFemaleCustom > 0 )

  00104	39 45 14	 cmp	 DWORD PTR _dwMaleCustom$[ebp], eax
  00107	77 0d		 ja	 SHORT $LN3@SetRegiste
  00109	39 45 18	 cmp	 DWORD PTR _dwFemaleCustom$[ebp], eax
  0010c	77 08		 ja	 SHORT $LN3@SetRegiste

; 387  : 		else
; 388  : 			pIconBtn->SetCustomItem( false );

  0010e	88 86 1c 02 00
	00		 mov	 BYTE PTR [esi+540], al
  00114	eb 07		 jmp	 SHORT $LN27@SetRegiste
$LN3@SetRegiste:

; 386  : 			pIconBtn->SetCustomItem( true );

  00116	c6 86 1c 02 00
	00 01		 mov	 BYTE PTR [esi+540], 1

; 387  : 		else
; 388  : 			pIconBtn->SetCustomItem( false );

$LN27@SetRegiste:

; 389  : 	}
; 390  : 
; 391  : 	if( !IsShow() )

  0011d	8b cb		 mov	 ecx, ebx
  0011f	ff 15 00 00 00
	00		 call	 DWORD PTR __imp_?IsShow@ioWnd@@QBE_NXZ
  00125	84 c0		 test	 al, al
  00127	75 08		 jne	 SHORT $LN1@SetRegiste

; 392  : 		ShowWnd();

  00129	8b cb		 mov	 ecx, ebx
  0012b	ff 15 00 00 00
	00		 call	 DWORD PTR __imp_?ShowWnd@ioWnd@@QAEXXZ
$LN1@SetRegiste:

; 393  : }

  00131	e8 00 00 00 00	 call	 __EH_epilog3
  00136	c2 1c 00	 ret	 28			; 0000001cH
_TEXT	ENDS
;	COMDAT text$x
text$x	SEGMENT
__unwindfunclet$?SetRegisterResultInfo@TradeItemRegisterResultWnd@@QAEXKKKKK_J@Z$0:
  00000	8d 4d e4	 lea	 ecx, DWORD PTR $T511064[ebp]
  00003	ff 25 00 00 00
	00		 jmp	 DWORD PTR __imp_??1ioHashString@@QAE@XZ
__ehhandler$?SetRegisterResultInfo@TradeItemRegisterResultWnd@@QAEXKKKKK_J@Z:
  00009	8b 54 24 08	 mov	 edx, DWORD PTR [esp+8]
  0000d	8d 42 0c	 lea	 eax, DWORD PTR [edx+12]
  00010	8b 4a e0	 mov	 ecx, DWORD PTR [edx-32]
  00013	33 c8		 xor	 ecx, eax
  00015	e8 00 00 00 00	 call	 @__security_check_cookie@4
  0001a	b8 00 00 00 00	 mov	 eax, OFFSET __ehfuncinfo$?SetRegisterResultInfo@TradeItemRegisterResultWnd@@QAEXKKKKK_J@Z
  0001f	e9 00 00 00 00	 jmp	 ___CxxFrameHandler3
text$x	ENDS
?SetRegisterResultInfo@TradeItemRegisterResultWnd@@QAEXKKKKK_J@Z ENDP ; TradeItemRegisterResultWnd::SetRegisterResultInfo
PUBLIC	?iwm_wheel@TradeItemRegisterWnd@@UAEXH@Z	; TradeItemRegisterWnd::iwm_wheel
EXTRN	__imp_??1ioMouse@@UAE@XZ:PROC
EXTRN	__imp_??0ioMouse@@QAE@XZ:PROC
EXTRN	?GetSingleton@ioSP2GUIManager@@SAAAV1@XZ:PROC	; ioSP2GUIManager::GetSingleton
EXTRN	__imp_?iwm_wheel@ioWnd@@UAEXH@Z:PROC
;	COMDAT xdata$x
; File d:\lost saga for developer\youtube\tutorial\source\src\lsclient\gui\iosp2guimanager.h
xdata$x	SEGMENT
__unwindtable$?iwm_wheel@TradeItemRegisterWnd@@UAEXH@Z DD 0ffffffffH
	DD	FLAT:__unwindfunclet$?iwm_wheel@TradeItemRegisterWnd@@UAEXH@Z$0
	DD	0ffffffffH
	DD	FLAT:__unwindfunclet$?iwm_wheel@TradeItemRegisterWnd@@UAEXH@Z$1
__ehfuncinfo$?iwm_wheel@TradeItemRegisterWnd@@UAEXH@Z DD 019930522H
	DD	02H
	DD	FLAT:__unwindtable$?iwm_wheel@TradeItemRegisterWnd@@UAEXH@Z
	DD	2 DUP(00H)
	DD	2 DUP(00H)
	DD	00H
	DD	01H
; Function compile flags: /Ogsp
; File d:\lost saga for developer\youtube\tutorial\source\src\lsclient\gui\tradeitemregisterwnd.cpp
xdata$x	ENDS
;	COMDAT ?iwm_wheel@TradeItemRegisterWnd@@UAEXH@Z
_TEXT	SEGMENT
_NullMouse$508169 = -148				; size = 68
_NullMouse$508162 = -80					; size = 68
__$EHRec$ = -12						; size = 12
_zDelta$ = 8						; size = 4
?iwm_wheel@TradeItemRegisterWnd@@UAEXH@Z PROC		; TradeItemRegisterWnd::iwm_wheel, COMDAT
; _this$ = ecx

; 517  : {

  00000	68 88 00 00 00	 push	 136			; 00000088H
  00005	b8 00 00 00 00	 mov	 eax, __ehhandler$?iwm_wheel@TradeItemRegisterWnd@@UAEXH@Z
  0000a	e8 00 00 00 00	 call	 __EH_prolog3
  0000f	8b f1		 mov	 esi, ecx

; 518  : 	if( !IsShow() )

  00011	ff 15 00 00 00
	00		 call	 DWORD PTR __imp_?IsShow@ioWnd@@QBE_NXZ
  00017	84 c0		 test	 al, al
  00019	75 10		 jne	 SHORT $LN9@iwm_wheel

; 519  : 	{
; 520  : 		ioMovingWnd::iwm_wheel( zDelta );

  0001b	ff 75 08	 push	 DWORD PTR _zDelta$[ebp]
  0001e	8b ce		 mov	 ecx, esi
  00020	ff 15 00 00 00
	00		 call	 DWORD PTR __imp_?iwm_wheel@ioWnd@@UAEXH@Z

; 521  : 	}
; 522  : 	else

  00026	e9 cc 00 00 00	 jmp	 $LN1@iwm_wheel
$LN9@iwm_wheel:

; 523  : 	{ 
; 524  : 		//        .
; 525  : 		if( zDelta == WHEEL_DELTA )

  0002b	83 7d 08 78	 cmp	 DWORD PTR _zDelta$[ebp], 120 ; 00000078H
  0002f	75 58		 jne	 SHORT $LN7@iwm_wheel

; 526  : 		{
; 527  : 			ioScroll *pScroll = (ioScroll*)FindChildWnd( ID_VERT_SCROLL );

  00031	68 e9 03 00 00	 push	 1001			; 000003e9H
  00036	8b ce		 mov	 ecx, esi
  00038	ff 15 00 00 00
	00		 call	 DWORD PTR __imp_?FindChildWnd@ioWnd@@QAEPAV1@K@Z

; 528  : 			if( pScroll )

  0003e	85 c0		 test	 eax, eax
  00040	74 12		 je	 SHORT $LN6@iwm_wheel

; 529  : 				pScroll->SetScrollPos( m_iCurPage - 1 );

  00042	8b 8e a0 01 00
	00		 mov	 ecx, DWORD PTR [esi+416]
  00048	8b 10		 mov	 edx, DWORD PTR [eax]
  0004a	49		 dec	 ecx
  0004b	51		 push	 ecx
  0004c	8b c8		 mov	 ecx, eax
  0004e	ff 92 38 01 00
	00		 call	 DWORD PTR [edx+312]
$LN6@iwm_wheel:

; 530  : 
; 531  : 			if( g_GUIMgr.GetPreOverWnd() )

  00054	e8 00 00 00 00	 call	 ?GetSingleton@ioSP2GUIManager@@SAAAV1@XZ ; ioSP2GUIManager::GetSingleton
  00059	83 78 10 00	 cmp	 DWORD PTR [eax+16], 0
  0005d	0f 84 94 00 00
	00		 je	 $LN1@iwm_wheel

; 532  : 			{
; 533  : 				ioMouse NullMouse;

  00063	8d 4d b0	 lea	 ecx, DWORD PTR _NullMouse$508162[ebp]
  00066	ff 15 00 00 00
	00		 call	 DWORD PTR __imp_??0ioMouse@@QAE@XZ
  0006c	83 65 fc 00	 and	 DWORD PTR __$EHRec$[ebp+8], 0

; 534  : 				g_GUIMgr.GetPreOverWnd()->iwm_mouseover( NullMouse );

  00070	e8 00 00 00 00	 call	 ?GetSingleton@ioSP2GUIManager@@SAAAV1@XZ ; ioSP2GUIManager::GetSingleton
  00075	8b 48 10	 mov	 ecx, DWORD PTR [eax+16]
  00078	8b 01		 mov	 eax, DWORD PTR [ecx]
  0007a	8d 55 b0	 lea	 edx, DWORD PTR _NullMouse$508162[ebp]
  0007d	52		 push	 edx
  0007e	ff 90 90 00 00
	00		 call	 DWORD PTR [eax+144]

; 535  : 			}

  00084	8d 4d b0	 lea	 ecx, DWORD PTR _NullMouse$508162[ebp]

; 536  : 		}

  00087	eb 64		 jmp	 SHORT $LN23@iwm_wheel
$LN7@iwm_wheel:

; 537  : 		else if( zDelta == -WHEEL_DELTA )

  00089	83 7d 08 88	 cmp	 DWORD PTR _zDelta$[ebp], -120 ; ffffff88H
  0008d	75 68		 jne	 SHORT $LN1@iwm_wheel

; 538  : 		{
; 539  : 			ioScroll *pScroll = (ioScroll*)FindChildWnd( ID_VERT_SCROLL );

  0008f	68 e9 03 00 00	 push	 1001			; 000003e9H
  00094	8b ce		 mov	 ecx, esi
  00096	ff 15 00 00 00
	00		 call	 DWORD PTR __imp_?FindChildWnd@ioWnd@@QAEPAV1@K@Z

; 540  : 			if( pScroll )

  0009c	85 c0		 test	 eax, eax
  0009e	74 12		 je	 SHORT $LN2@iwm_wheel

; 541  : 				pScroll->SetScrollPos( m_iCurPage + 1 );

  000a0	8b 8e a0 01 00
	00		 mov	 ecx, DWORD PTR [esi+416]
  000a6	8b 10		 mov	 edx, DWORD PTR [eax]
  000a8	41		 inc	 ecx
  000a9	51		 push	 ecx
  000aa	8b c8		 mov	 ecx, eax
  000ac	ff 92 38 01 00
	00		 call	 DWORD PTR [edx+312]
$LN2@iwm_wheel:

; 542  : 
; 543  : 			if( g_GUIMgr.GetPreOverWnd() )

  000b2	e8 00 00 00 00	 call	 ?GetSingleton@ioSP2GUIManager@@SAAAV1@XZ ; ioSP2GUIManager::GetSingleton
  000b7	83 78 10 00	 cmp	 DWORD PTR [eax+16], 0
  000bb	74 3a		 je	 SHORT $LN1@iwm_wheel

; 544  : 			{
; 545  : 				ioMouse NullMouse;

  000bd	8d 8d 6c ff ff
	ff		 lea	 ecx, DWORD PTR _NullMouse$508169[ebp]
  000c3	ff 15 00 00 00
	00		 call	 DWORD PTR __imp_??0ioMouse@@QAE@XZ
  000c9	c7 45 fc 01 00
	00 00		 mov	 DWORD PTR __$EHRec$[ebp+8], 1

; 546  : 				g_GUIMgr.GetPreOverWnd()->iwm_mouseover( NullMouse );

  000d0	e8 00 00 00 00	 call	 ?GetSingleton@ioSP2GUIManager@@SAAAV1@XZ ; ioSP2GUIManager::GetSingleton
  000d5	8b 48 10	 mov	 ecx, DWORD PTR [eax+16]
  000d8	8b 01		 mov	 eax, DWORD PTR [ecx]
  000da	8d 95 6c ff ff
	ff		 lea	 edx, DWORD PTR _NullMouse$508169[ebp]
  000e0	52		 push	 edx
  000e1	ff 90 90 00 00
	00		 call	 DWORD PTR [eax+144]

; 547  : 			}

  000e7	8d 8d 6c ff ff
	ff		 lea	 ecx, DWORD PTR _NullMouse$508169[ebp]
$LN23@iwm_wheel:
  000ed	83 4d fc ff	 or	 DWORD PTR __$EHRec$[ebp+8], -1
  000f1	ff 15 00 00 00
	00		 call	 DWORD PTR __imp_??1ioMouse@@UAE@XZ
$LN1@iwm_wheel:

; 548  : 		}
; 549  : 	}
; 550  : }

  000f7	e8 00 00 00 00	 call	 __EH_epilog3
  000fc	c2 04 00	 ret	 4
_TEXT	ENDS
;	COMDAT text$x
text$x	SEGMENT
__unwindfunclet$?iwm_wheel@TradeItemRegisterWnd@@UAEXH@Z$0:
  00000	8d 4d b0	 lea	 ecx, DWORD PTR _NullMouse$508162[ebp]
  00003	ff 25 00 00 00
	00		 jmp	 DWORD PTR __imp_??1ioMouse@@UAE@XZ
__unwindfunclet$?iwm_wheel@TradeItemRegisterWnd@@UAEXH@Z$1:
  00009	8d 8d 6c ff ff
	ff		 lea	 ecx, DWORD PTR _NullMouse$508169[ebp]
  0000f	ff 25 00 00 00
	00		 jmp	 DWORD PTR __imp_??1ioMouse@@UAE@XZ
__ehhandler$?iwm_wheel@TradeItemRegisterWnd@@UAEXH@Z:
  00015	8b 54 24 08	 mov	 edx, DWORD PTR [esp+8]
  00019	8d 42 0c	 lea	 eax, DWORD PTR [edx+12]
  0001c	8b 8a 68 ff ff
	ff		 mov	 ecx, DWORD PTR [edx-152]
  00022	33 c8		 xor	 ecx, eax
  00024	e8 00 00 00 00	 call	 @__security_check_cookie@4
  00029	b8 00 00 00 00	 mov	 eax, OFFSET __ehfuncinfo$?iwm_wheel@TradeItemRegisterWnd@@UAEXH@Z
  0002e	e9 00 00 00 00	 jmp	 ___CxxFrameHandler3
text$x	ENDS
?iwm_wheel@TradeItemRegisterWnd@@UAEXH@Z ENDP		; TradeItemRegisterWnd::iwm_wheel
PUBLIC	??_C@_0BP@IACPCGMK@TradeItemRegisterWnd?3?3OnRender?$AA@ ; `string'
PUBLIC	?OnRender@TradeItemRegisterWnd@@MAEXXZ		; TradeItemRegisterWnd::OnRender
EXTRN	?AddTextPiece@ioComplexStringPrinter@@QAEXMPBDH@Z:PROC ; ioComplexStringPrinter::AddTextPiece
EXTRN	?GetSingleton@TradeInfoManager@@SAAAV1@XZ:PROC	; TradeInfoManager::GetSingleton
EXTRN	?GetSingleton@ioMyInfo@@SAAAV1@XZ:PROC		; ioMyInfo::GetSingleton
EXTRN	__ftol2_sse:PROC
;	COMDAT ??_C@_0BP@IACPCGMK@TradeItemRegisterWnd?3?3OnRender?$AA@
; File d:\lost saga for developer\youtube\tutorial\source\src\lsclient\tradeinfomanager.h
CONST	SEGMENT
??_C@_0BP@IACPCGMK@TradeItemRegisterWnd?3?3OnRender?$AA@ DB 'TradeItemReg'
	DB	'isterWnd::OnRender', 00H			; `string'
CONST	ENDS
;	COMDAT xdata$x
xdata$x	SEGMENT
__unwindtable$?OnRender@TradeItemRegisterWnd@@MAEXXZ DD 0ffffffffH
	DD	FLAT:__unwindfunclet$?OnRender@TradeItemRegisterWnd@@MAEXXZ$0
__ehfuncinfo$?OnRender@TradeItemRegisterWnd@@MAEXXZ DD 019930522H
	DD	01H
	DD	FLAT:__unwindtable$?OnRender@TradeItemRegisterWnd@@MAEXXZ
	DD	2 DUP(00H)
	DD	2 DUP(00H)
	DD	00H
	DD	01H
; Function compile flags: /Ogsp
; File d:\lost saga for developer\youtube\tutorial\source\src\lsclient\gui\tradeitemregisterwnd.cpp
xdata$x	ENDS
;	COMDAT ?OnRender@TradeItemRegisterWnd@@MAEXXZ
_TEXT	SEGMENT
_kPrinter$ = -60					; size = 32
tv388 = -28						; size = 4
tv377 = -28						; size = 4
_iXPos$ = -24						; size = 4
tv384 = -20						; size = 4
$T511164 = -20						; size = 4
$T511155 = -20						; size = 4
_iRate$ = -20						; size = 4
_iYPos$ = -16						; size = 4
__$EHRec$ = -12						; size = 12
?OnRender@TradeItemRegisterWnd@@MAEXXZ PROC		; TradeItemRegisterWnd::OnRender, COMDAT
; _this$ = ecx

; 736  : {

  00000	6a 30		 push	 48			; 00000030H
  00002	b8 00 00 00 00	 mov	 eax, __ehhandler$?OnRender@TradeItemRegisterWnd@@MAEXXZ
  00007	e8 00 00 00 00	 call	 __EH_prolog3
  0000c	8b f1		 mov	 esi, ecx

; 737  : 	int iXPos = GetDerivedPosX();

  0000e	ff 15 00 00 00
	00		 call	 DWORD PTR __imp_?GetDerivedPosX@ioWnd@@QBEHXZ

; 738  : 	int iYPos = GetDerivedPosY();

  00014	8b ce		 mov	 ecx, esi
  00016	89 45 e8	 mov	 DWORD PTR _iXPos$[ebp], eax
  00019	ff 15 00 00 00
	00		 call	 DWORD PTR __imp_?GetDerivedPosY@ioWnd@@QBEHXZ

; 739  : 
; 740  : 	ioMovingWnd::OnRender();

  0001f	8b ce		 mov	 ecx, esi
  00021	89 45 f0	 mov	 DWORD PTR _iYPos$[ebp], eax
  00024	ff 15 00 00 00
	00		 call	 DWORD PTR __imp_?OnRender@ioWnd@@MAEXXZ

; 741  : 
; 742  : 	enum
; 743  : 	{
; 744  : 		TEXT_X		= 17,
; 745  : 		TEXT_Y		= 474,
; 746  : 
; 747  : 		LINE_GAP	= 18,
; 748  : 	};
; 749  : 
; 750  : 	int iRate = 0;
; 751  : 	if( g_MyInfo.GetPCRoomAuthority() && !g_MyInfo.IsUserEvent() )

  0002a	e8 00 00 00 00	 call	 ?GetSingleton@ioMyInfo@@SAAAV1@XZ ; ioMyInfo::GetSingleton
  0002f	8b 80 34 08 00
	00		 mov	 eax, DWORD PTR [eax+2100]
  00035	33 f6		 xor	 esi, esi
  00037	3b c6		 cmp	 eax, esi
  00039	74 26		 je	 SHORT $LN2@OnRender
  0003b	e8 00 00 00 00	 call	 ?GetSingleton@ioMyInfo@@SAAAV1@XZ ; ioMyInfo::GetSingleton
  00040	80 b8 39 08 00
	00 00		 cmp	 BYTE PTR [eax+2105], 0
  00047	75 18		 jne	 SHORT $LN2@OnRender

; 752  : 		iRate = (int)(g_TradeInfoMgr.GetPCRoomRegisterTexRate() * FLOAT100);

  00049	e8 00 00 00 00	 call	 ?GetSingleton@TradeInfoManager@@SAAAV1@XZ ; TradeInfoManager::GetSingleton
  0004e	d9 40 78	 fld	 DWORD PTR [eax+120]
  00051	d9 5d ec	 fstp	 DWORD PTR $T511155[ebp]
  00054	b8 64 00 00 00	 mov	 eax, 100		; 00000064H
  00059	89 45 e4	 mov	 DWORD PTR tv388[ebp], eax
  0005c	db 45 e4	 fild	 DWORD PTR tv388[ebp]

; 753  : 	else

  0005f	eb 16		 jmp	 SHORT $LN24@OnRender
$LN2@OnRender:

; 754  : 		iRate = (int)(g_TradeInfoMgr.GetRegisterTexRate() * FLOAT100);

  00061	e8 00 00 00 00	 call	 ?GetSingleton@TradeInfoManager@@SAAAV1@XZ ; TradeInfoManager::GetSingleton
  00066	d9 40 70	 fld	 DWORD PTR [eax+112]
  00069	d9 5d ec	 fstp	 DWORD PTR $T511164[ebp]
  0006c	b8 64 00 00 00	 mov	 eax, 100		; 00000064H
  00071	89 45 e4	 mov	 DWORD PTR tv377[ebp], eax
  00074	db 45 e4	 fild	 DWORD PTR tv377[ebp]
$LN24@OnRender:
  00077	85 c0		 test	 eax, eax
  00079	79 06		 jns	 SHORT $LN22@OnRender
  0007b	d8 05 00 00 00
	00		 fadd	 DWORD PTR __real@4f800000
$LN22@OnRender:
  00081	d8 4d ec	 fmul	 DWORD PTR $T511164[ebp]
  00084	e8 00 00 00 00	 call	 __ftol2_sse

; 755  : 
; 756  : 	ioComplexStringPrinter kPrinter;

  00089	8d 4d c4	 lea	 ecx, DWORD PTR _kPrinter$[ebp]
  0008c	89 45 ec	 mov	 DWORD PTR _iRate$[ebp], eax
  0008f	e8 00 00 00 00	 call	 ??0ioComplexStringPrinter@@QAE@XZ ; ioComplexStringPrinter::ioComplexStringPrinter

; 757  : 	kPrinter.SetTextStyle( TS_NORMAL );

  00094	56		 push	 esi
  00095	8d 4d c4	 lea	 ecx, DWORD PTR _kPrinter$[ebp]
  00098	89 75 fc	 mov	 DWORD PTR __$EHRec$[ebp+8], esi
  0009b	e8 00 00 00 00	 call	 ?SetTextStyle@ioComplexStringPrinter@@QAEXW4TextStyle@@@Z ; ioComplexStringPrinter::SetTextStyle

; 758  : 	kPrinter.SetBkColor( 0, 0, 0 );

  000a0	56		 push	 esi
  000a1	56		 push	 esi
  000a2	56		 push	 esi
  000a3	8d 4d c4	 lea	 ecx, DWORD PTR _kPrinter$[ebp]
  000a6	e8 00 00 00 00	 call	 ?SetBkColor@ioComplexStringPrinter@@QAEXHHH@Z ; ioComplexStringPrinter::SetBkColor

; 759  : 	kPrinter.SetTextColor( TCT_DEFAULT_DARKGRAY );

  000ab	68 3a 3a 3a ff	 push	 -12961222		; ff3a3a3aH
  000b0	8d 4d c4	 lea	 ecx, DWORD PTR _kPrinter$[ebp]
  000b3	e8 00 00 00 00	 call	 ?SetTextColor@ioComplexStringPrinter@@QAEXK@Z ; ioComplexStringPrinter::SetTextColor

; 760  : 	kPrinter.AddTextPiece( FONT_SIZE_13, STR(1) );

  000b8	56		 push	 esi
  000b9	8b 35 00 00 00
	00		 mov	 esi, DWORD PTR __imp_?GetSingleton@ioStringManager@@SAAAV1@XZ
  000bf	6a 01		 push	 1
  000c1	68 00 00 00 00	 push	 OFFSET ??_C@_00CNPNBAHC@?$AA@
  000c6	bb 00 00 00 00	 mov	 ebx, OFFSET ??_C@_0BP@IACPCGMK@TradeItemRegisterWnd?3?3OnRender?$AA@
  000cb	53		 push	 ebx
  000cc	ff d6		 call	 esi
  000ce	8b 3d 00 00 00
	00		 mov	 edi, DWORD PTR __imp_?GetString@ioStringManager@@QAEPADPBD0HW4FileNamePrefix@1@@Z
  000d4	8b c8		 mov	 ecx, eax
  000d6	ff d7		 call	 edi
  000d8	f3 0f 10 05 00
	00 00 00	 movss	 xmm0, DWORD PTR __real@3f266666
  000e0	50		 push	 eax
  000e1	51		 push	 ecx
  000e2	8d 45 c4	 lea	 eax, DWORD PTR _kPrinter$[ebp]
  000e5	f3 0f 11 04 24	 movss	 DWORD PTR [esp], xmm0
  000ea	50		 push	 eax
  000eb	e8 00 00 00 00	 call	 ?AddTextPiece@ioComplexStringPrinter@@QAAXMPBDZZ ; ioComplexStringPrinter::AddTextPiece
  000f0	83 c4 0c	 add	 esp, 12			; 0000000cH

; 761  : 	kPrinter.SetTextColor( TCT_DEFAULT_GREEN );

  000f3	68 22 72 11 ff	 push	 -15633886		; ff117222H
  000f8	8d 4d c4	 lea	 ecx, DWORD PTR _kPrinter$[ebp]
  000fb	e8 00 00 00 00	 call	 ?SetTextColor@ioComplexStringPrinter@@QAEXK@Z ; ioComplexStringPrinter::SetTextColor

; 762  : 	kPrinter.AddTextPiece( FONT_SIZE_13, STR(2), g_TradeInfoMgr.GetTradePeriod() );

  00100	e8 00 00 00 00	 call	 ?GetSingleton@TradeInfoManager@@SAAAV1@XZ ; TradeInfoManager::GetSingleton
  00105	ff 70 34	 push	 DWORD PTR [eax+52]
  00108	6a 00		 push	 0
  0010a	6a 02		 push	 2
  0010c	68 00 00 00 00	 push	 OFFSET ??_C@_00CNPNBAHC@?$AA@
  00111	53		 push	 ebx
  00112	ff d6		 call	 esi
  00114	8b c8		 mov	 ecx, eax
  00116	ff d7		 call	 edi
  00118	f3 0f 10 05 00
	00 00 00	 movss	 xmm0, DWORD PTR __real@3f266666
  00120	50		 push	 eax
  00121	51		 push	 ecx
  00122	8d 4d c4	 lea	 ecx, DWORD PTR _kPrinter$[ebp]
  00125	f3 0f 11 04 24	 movss	 DWORD PTR [esp], xmm0
  0012a	e8 00 00 00 00	 call	 ?AddTextPiece@ioComplexStringPrinter@@QAEXMPBDH@Z ; ioComplexStringPrinter::AddTextPiece

; 763  : 	kPrinter.SetTextColor( TCT_DEFAULT_DARKGRAY );

  0012f	68 3a 3a 3a ff	 push	 -12961222		; ff3a3a3aH
  00134	8d 4d c4	 lea	 ecx, DWORD PTR _kPrinter$[ebp]
  00137	e8 00 00 00 00	 call	 ?SetTextColor@ioComplexStringPrinter@@QAEXK@Z ; ioComplexStringPrinter::SetTextColor

; 764  : 	kPrinter.AddTextPiece( FONT_SIZE_13, STR(3), iRate );

  0013c	ff 75 ec	 push	 DWORD PTR _iRate$[ebp]
  0013f	6a 00		 push	 0
  00141	6a 03		 push	 3
  00143	68 00 00 00 00	 push	 OFFSET ??_C@_00CNPNBAHC@?$AA@
  00148	53		 push	 ebx
  00149	ff d6		 call	 esi
  0014b	8b c8		 mov	 ecx, eax
  0014d	ff d7		 call	 edi
  0014f	f3 0f 10 05 00
	00 00 00	 movss	 xmm0, DWORD PTR __real@3f266666
  00157	50		 push	 eax
  00158	51		 push	 ecx
  00159	8d 4d c4	 lea	 ecx, DWORD PTR _kPrinter$[ebp]
  0015c	f3 0f 11 04 24	 movss	 DWORD PTR [esp], xmm0
  00161	e8 00 00 00 00	 call	 ?AddTextPiece@ioComplexStringPrinter@@QAEXMPBDH@Z ; ioComplexStringPrinter::AddTextPiece

; 765  : 	kPrinter.PrintFullText( iXPos+TEXT_X, iYPos+TEXT_Y, TAT_LEFT );

  00166	8b 45 e8	 mov	 eax, DWORD PTR _iXPos$[ebp]
  00169	83 c0 11	 add	 eax, 17			; 00000011H
  0016c	0f 57 c0	 xorps	 xmm0, xmm0
  0016f	f3 0f 2a c0	 cvtsi2ss xmm0, eax
  00173	8b 45 f0	 mov	 eax, DWORD PTR _iYPos$[ebp]
  00176	68 ff 00 00 00	 push	 255			; 000000ffH
  0017b	f3 0f 11 45 ec	 movss	 DWORD PTR tv384[ebp], xmm0
  00180	6a 00		 push	 0
  00182	05 da 01 00 00	 add	 eax, 474		; 000001daH
  00187	0f 57 c9	 xorps	 xmm1, xmm1
  0018a	51		 push	 ecx
  0018b	51		 push	 ecx
  0018c	f3 0f 2a c8	 cvtsi2ss xmm1, eax
  00190	f3 0f 11 4c 24
	04		 movss	 DWORD PTR [esp+4], xmm1
  00196	8d 4d c4	 lea	 ecx, DWORD PTR _kPrinter$[ebp]
  00199	f3 0f 11 04 24	 movss	 DWORD PTR [esp], xmm0
  0019e	e8 00 00 00 00	 call	 ?PrintFullText@ioComplexStringPrinter@@QAEXMMW4TextAlignType@@E@Z ; ioComplexStringPrinter::PrintFullText

; 766  : 	kPrinter.ClearList();

  001a3	8d 4d c4	 lea	 ecx, DWORD PTR _kPrinter$[ebp]
  001a6	e8 00 00 00 00	 call	 ?ClearList@ioComplexStringPrinter@@QAEXXZ ; ioComplexStringPrinter::ClearList

; 767  : 
; 768  : 	kPrinter.SetTextStyle( TS_NORMAL );

  001ab	6a 00		 push	 0
  001ad	8d 4d c4	 lea	 ecx, DWORD PTR _kPrinter$[ebp]
  001b0	e8 00 00 00 00	 call	 ?SetTextStyle@ioComplexStringPrinter@@QAEXW4TextStyle@@@Z ; ioComplexStringPrinter::SetTextStyle

; 769  : 	kPrinter.SetBkColor( 0, 0, 0 );

  001b5	33 c0		 xor	 eax, eax
  001b7	50		 push	 eax
  001b8	50		 push	 eax
  001b9	50		 push	 eax
  001ba	8d 4d c4	 lea	 ecx, DWORD PTR _kPrinter$[ebp]
  001bd	e8 00 00 00 00	 call	 ?SetBkColor@ioComplexStringPrinter@@QAEXHHH@Z ; ioComplexStringPrinter::SetBkColor

; 770  : 	kPrinter.SetTextColor( TCT_DEFAULT_DARKGRAY );

  001c2	68 3a 3a 3a ff	 push	 -12961222		; ff3a3a3aH
  001c7	8d 4d c4	 lea	 ecx, DWORD PTR _kPrinter$[ebp]
  001ca	e8 00 00 00 00	 call	 ?SetTextColor@ioComplexStringPrinter@@QAEXK@Z ; ioComplexStringPrinter::SetTextColor

; 771  : 	kPrinter.AddTextPiece( FONT_SIZE_13, STR(4) );

  001cf	6a 00		 push	 0
  001d1	6a 04		 push	 4
  001d3	68 00 00 00 00	 push	 OFFSET ??_C@_00CNPNBAHC@?$AA@
  001d8	53		 push	 ebx
  001d9	ff d6		 call	 esi
  001db	8b c8		 mov	 ecx, eax
  001dd	ff d7		 call	 edi
  001df	f3 0f 10 05 00
	00 00 00	 movss	 xmm0, DWORD PTR __real@3f266666
  001e7	50		 push	 eax
  001e8	51		 push	 ecx
  001e9	8d 45 c4	 lea	 eax, DWORD PTR _kPrinter$[ebp]
  001ec	f3 0f 11 04 24	 movss	 DWORD PTR [esp], xmm0
  001f1	50		 push	 eax
  001f2	e8 00 00 00 00	 call	 ?AddTextPiece@ioComplexStringPrinter@@QAAXMPBDZZ ; ioComplexStringPrinter::AddTextPiece
  001f7	83 c4 0c	 add	 esp, 12			; 0000000cH

; 772  : 	kPrinter.SetTextColor( TCT_DEFAULT_GREEN );

  001fa	68 22 72 11 ff	 push	 -15633886		; ff117222H
  001ff	8d 4d c4	 lea	 ecx, DWORD PTR _kPrinter$[ebp]
  00202	e8 00 00 00 00	 call	 ?SetTextColor@ioComplexStringPrinter@@QAEXK@Z ; ioComplexStringPrinter::SetTextColor

; 773  : 	kPrinter.AddTextPiece( FONT_SIZE_13, STR(5) );

  00207	6a 00		 push	 0
  00209	6a 05		 push	 5
  0020b	68 00 00 00 00	 push	 OFFSET ??_C@_00CNPNBAHC@?$AA@
  00210	53		 push	 ebx
  00211	ff d6		 call	 esi
  00213	8b c8		 mov	 ecx, eax
  00215	ff d7		 call	 edi
  00217	f3 0f 10 05 00
	00 00 00	 movss	 xmm0, DWORD PTR __real@3f266666
  0021f	50		 push	 eax
  00220	51		 push	 ecx
  00221	8d 45 c4	 lea	 eax, DWORD PTR _kPrinter$[ebp]
  00224	f3 0f 11 04 24	 movss	 DWORD PTR [esp], xmm0
  00229	50		 push	 eax
  0022a	e8 00 00 00 00	 call	 ?AddTextPiece@ioComplexStringPrinter@@QAAXMPBDZZ ; ioComplexStringPrinter::AddTextPiece
  0022f	83 c4 0c	 add	 esp, 12			; 0000000cH

; 774  : 	kPrinter.SetTextColor( TCT_DEFAULT_DARKGRAY );

  00232	68 3a 3a 3a ff	 push	 -12961222		; ff3a3a3aH
  00237	8d 4d c4	 lea	 ecx, DWORD PTR _kPrinter$[ebp]
  0023a	e8 00 00 00 00	 call	 ?SetTextColor@ioComplexStringPrinter@@QAEXK@Z ; ioComplexStringPrinter::SetTextColor

; 775  : 	kPrinter.AddTextPiece( FONT_SIZE_13, STR(6) );

  0023f	6a 00		 push	 0
  00241	6a 06		 push	 6
  00243	68 00 00 00 00	 push	 OFFSET ??_C@_00CNPNBAHC@?$AA@
  00248	53		 push	 ebx
  00249	ff d6		 call	 esi
  0024b	8b c8		 mov	 ecx, eax
  0024d	ff d7		 call	 edi
  0024f	f3 0f 10 05 00
	00 00 00	 movss	 xmm0, DWORD PTR __real@3f266666
  00257	50		 push	 eax
  00258	51		 push	 ecx
  00259	8d 45 c4	 lea	 eax, DWORD PTR _kPrinter$[ebp]
  0025c	f3 0f 11 04 24	 movss	 DWORD PTR [esp], xmm0
  00261	50		 push	 eax
  00262	e8 00 00 00 00	 call	 ?AddTextPiece@ioComplexStringPrinter@@QAAXMPBDZZ ; ioComplexStringPrinter::AddTextPiece

; 776  : 	kPrinter.PrintFullText( iXPos+TEXT_X, iYPos+TEXT_Y+18, TAT_LEFT );

  00267	8b 45 f0	 mov	 eax, DWORD PTR _iYPos$[ebp]
  0026a	83 c4 0c	 add	 esp, 12			; 0000000cH
  0026d	68 ff 00 00 00	 push	 255			; 000000ffH
  00272	6a 00		 push	 0
  00274	51		 push	 ecx
  00275	05 ec 01 00 00	 add	 eax, 492		; 000001ecH
  0027a	0f 57 c0	 xorps	 xmm0, xmm0
  0027d	51		 push	 ecx
  0027e	f3 0f 2a c0	 cvtsi2ss xmm0, eax
  00282	f3 0f 11 44 24
	04		 movss	 DWORD PTR [esp+4], xmm0
  00288	f3 0f 10 45 ec	 movss	 xmm0, DWORD PTR tv384[ebp]
  0028d	8d 4d c4	 lea	 ecx, DWORD PTR _kPrinter$[ebp]
  00290	f3 0f 11 04 24	 movss	 DWORD PTR [esp], xmm0
  00295	e8 00 00 00 00	 call	 ?PrintFullText@ioComplexStringPrinter@@QAEXMMW4TextAlignType@@E@Z ; ioComplexStringPrinter::PrintFullText

; 777  : 	kPrinter.ClearList();

  0029a	8d 4d c4	 lea	 ecx, DWORD PTR _kPrinter$[ebp]
  0029d	e8 00 00 00 00	 call	 ?ClearList@ioComplexStringPrinter@@QAEXXZ ; ioComplexStringPrinter::ClearList

; 778  : 
; 779  : 	kPrinter.SetTextStyle( TS_NORMAL );

  002a2	6a 00		 push	 0
  002a4	8d 4d c4	 lea	 ecx, DWORD PTR _kPrinter$[ebp]
  002a7	e8 00 00 00 00	 call	 ?SetTextStyle@ioComplexStringPrinter@@QAEXW4TextStyle@@@Z ; ioComplexStringPrinter::SetTextStyle

; 780  : 	kPrinter.SetBkColor( 0, 0, 0 );

  002ac	33 c0		 xor	 eax, eax
  002ae	50		 push	 eax
  002af	50		 push	 eax
  002b0	50		 push	 eax
  002b1	8d 4d c4	 lea	 ecx, DWORD PTR _kPrinter$[ebp]
  002b4	e8 00 00 00 00	 call	 ?SetBkColor@ioComplexStringPrinter@@QAEXHHH@Z ; ioComplexStringPrinter::SetBkColor

; 781  : 	kPrinter.SetTextColor( TCT_DEFAULT_DARKGRAY );

  002b9	68 3a 3a 3a ff	 push	 -12961222		; ff3a3a3aH
  002be	8d 4d c4	 lea	 ecx, DWORD PTR _kPrinter$[ebp]
  002c1	e8 00 00 00 00	 call	 ?SetTextColor@ioComplexStringPrinter@@QAEXK@Z ; ioComplexStringPrinter::SetTextColor

; 782  : 	kPrinter.AddTextPiece( FONT_SIZE_13, STR(7) );

  002c6	6a 00		 push	 0
  002c8	6a 07		 push	 7
  002ca	68 00 00 00 00	 push	 OFFSET ??_C@_00CNPNBAHC@?$AA@
  002cf	53		 push	 ebx
  002d0	ff d6		 call	 esi
  002d2	8b c8		 mov	 ecx, eax
  002d4	ff d7		 call	 edi
  002d6	f3 0f 10 05 00
	00 00 00	 movss	 xmm0, DWORD PTR __real@3f266666
  002de	50		 push	 eax
  002df	51		 push	 ecx
  002e0	8d 45 c4	 lea	 eax, DWORD PTR _kPrinter$[ebp]
  002e3	f3 0f 11 04 24	 movss	 DWORD PTR [esp], xmm0
  002e8	50		 push	 eax
  002e9	e8 00 00 00 00	 call	 ?AddTextPiece@ioComplexStringPrinter@@QAAXMPBDZZ ; ioComplexStringPrinter::AddTextPiece
  002ee	83 c4 0c	 add	 esp, 12			; 0000000cH

; 783  : 	kPrinter.SetTextColor( TCT_DEFAULT_GREEN );

  002f1	68 22 72 11 ff	 push	 -15633886		; ff117222H
  002f6	8d 4d c4	 lea	 ecx, DWORD PTR _kPrinter$[ebp]
  002f9	e8 00 00 00 00	 call	 ?SetTextColor@ioComplexStringPrinter@@QAEXK@Z ; ioComplexStringPrinter::SetTextColor

; 784  : 	kPrinter.AddTextPiece( FONT_SIZE_13, STR(8) );

  002fe	6a 00		 push	 0
  00300	6a 08		 push	 8
  00302	68 00 00 00 00	 push	 OFFSET ??_C@_00CNPNBAHC@?$AA@
  00307	53		 push	 ebx
  00308	ff d6		 call	 esi
  0030a	8b c8		 mov	 ecx, eax
  0030c	ff d7		 call	 edi
  0030e	f3 0f 10 05 00
	00 00 00	 movss	 xmm0, DWORD PTR __real@3f266666
  00316	50		 push	 eax
  00317	51		 push	 ecx
  00318	8d 45 c4	 lea	 eax, DWORD PTR _kPrinter$[ebp]
  0031b	f3 0f 11 04 24	 movss	 DWORD PTR [esp], xmm0
  00320	50		 push	 eax
  00321	e8 00 00 00 00	 call	 ?AddTextPiece@ioComplexStringPrinter@@QAAXMPBDZZ ; ioComplexStringPrinter::AddTextPiece
  00326	83 c4 0c	 add	 esp, 12			; 0000000cH

; 785  : 	kPrinter.SetTextColor( TCT_DEFAULT_DARKGRAY );

  00329	68 3a 3a 3a ff	 push	 -12961222		; ff3a3a3aH
  0032e	8d 4d c4	 lea	 ecx, DWORD PTR _kPrinter$[ebp]
  00331	e8 00 00 00 00	 call	 ?SetTextColor@ioComplexStringPrinter@@QAEXK@Z ; ioComplexStringPrinter::SetTextColor

; 786  : 	kPrinter.AddTextPiece( FONT_SIZE_13, STR(9) );

  00336	6a 00		 push	 0
  00338	6a 09		 push	 9
  0033a	68 00 00 00 00	 push	 OFFSET ??_C@_00CNPNBAHC@?$AA@
  0033f	53		 push	 ebx
  00340	ff d6		 call	 esi
  00342	8b c8		 mov	 ecx, eax
  00344	ff d7		 call	 edi
  00346	f3 0f 10 05 00
	00 00 00	 movss	 xmm0, DWORD PTR __real@3f266666
  0034e	50		 push	 eax
  0034f	51		 push	 ecx
  00350	8d 45 c4	 lea	 eax, DWORD PTR _kPrinter$[ebp]
  00353	f3 0f 11 04 24	 movss	 DWORD PTR [esp], xmm0
  00358	50		 push	 eax
  00359	e8 00 00 00 00	 call	 ?AddTextPiece@ioComplexStringPrinter@@QAAXMPBDZZ ; ioComplexStringPrinter::AddTextPiece

; 787  : 	kPrinter.PrintFullText( iXPos+TEXT_X, iYPos+TEXT_Y+36, TAT_LEFT );

  0035e	8b 45 f0	 mov	 eax, DWORD PTR _iYPos$[ebp]
  00361	83 c4 0c	 add	 esp, 12			; 0000000cH
  00364	68 ff 00 00 00	 push	 255			; 000000ffH
  00369	6a 00		 push	 0
  0036b	51		 push	 ecx
  0036c	51		 push	 ecx
  0036d	05 fe 01 00 00	 add	 eax, 510		; 000001feH
  00372	0f 57 c0	 xorps	 xmm0, xmm0
  00375	f3 0f 2a c0	 cvtsi2ss xmm0, eax
  00379	f3 0f 11 44 24
	04		 movss	 DWORD PTR [esp+4], xmm0
  0037f	f3 0f 10 45 ec	 movss	 xmm0, DWORD PTR tv384[ebp]
  00384	f3 0f 11 04 24	 movss	 DWORD PTR [esp], xmm0
  00389	8d 4d c4	 lea	 ecx, DWORD PTR _kPrinter$[ebp]
  0038c	e8 00 00 00 00	 call	 ?PrintFullText@ioComplexStringPrinter@@QAEXMMW4TextAlignType@@E@Z ; ioComplexStringPrinter::PrintFullText

; 788  : 	kPrinter.ClearList();

  00391	8d 4d c4	 lea	 ecx, DWORD PTR _kPrinter$[ebp]
  00394	e8 00 00 00 00	 call	 ?ClearList@ioComplexStringPrinter@@QAEXXZ ; ioComplexStringPrinter::ClearList

; 789  : }

  00399	83 4d fc ff	 or	 DWORD PTR __$EHRec$[ebp+8], -1
  0039d	8d 4d c4	 lea	 ecx, DWORD PTR _kPrinter$[ebp]
  003a0	e8 00 00 00 00	 call	 ??1ioComplexStringPrinter@@QAE@XZ ; ioComplexStringPrinter::~ioComplexStringPrinter
  003a5	e8 00 00 00 00	 call	 __EH_epilog3
  003aa	c3		 ret	 0
_TEXT	ENDS
;	COMDAT text$x
text$x	SEGMENT
__unwindfunclet$?OnRender@TradeItemRegisterWnd@@MAEXXZ$0:
  00000	8d 4d c4	 lea	 ecx, DWORD PTR _kPrinter$[ebp]
  00003	e9 00 00 00 00	 jmp	 ??1ioComplexStringPrinter@@QAE@XZ ; ioComplexStringPrinter::~ioComplexStringPrinter
__ehhandler$?OnRender@TradeItemRegisterWnd@@MAEXXZ:
  00008	8b 54 24 08	 mov	 edx, DWORD PTR [esp+8]
  0000c	8d 42 0c	 lea	 eax, DWORD PTR [edx+12]
  0000f	8b 4a c0	 mov	 ecx, DWORD PTR [edx-64]
  00012	33 c8		 xor	 ecx, eax
  00014	e8 00 00 00 00	 call	 @__security_check_cookie@4
  00019	b8 00 00 00 00	 mov	 eax, OFFSET __ehfuncinfo$?OnRender@TradeItemRegisterWnd@@MAEXXZ
  0001e	e9 00 00 00 00	 jmp	 ___CxxFrameHandler3
text$x	ENDS
?OnRender@TradeItemRegisterWnd@@MAEXXZ ENDP		; TradeItemRegisterWnd::OnRender
PUBLIC	?GetCurItemInfo@TradeItemRegisterWnd@@QAE_NAAUtagInventoryItemInfo@@K@Z ; TradeItemRegisterWnd::GetCurItemInfo
; Function compile flags: /Ogsp
;	COMDAT ?GetCurItemInfo@TradeItemRegisterWnd@@QAE_NAAUtagInventoryItemInfo@@K@Z
_TEXT	SEGMENT
_rkInfo$ = 8						; size = 4
_dwItemInfoID$ = 12					; size = 4
?GetCurItemInfo@TradeItemRegisterWnd@@QAE_NAAUtagInventoryItemInfo@@K@Z PROC ; TradeItemRegisterWnd::GetCurItemInfo, COMDAT
; _this$ = ecx

; 899  : {

  00000	55		 push	 ebp
  00001	8b ec		 mov	 ebp, esp

; 900  : 	if( !COMPARE( dwItemInfoID, ID_ITEM_INFO_WND_1_BTN, ID_ITEM_INFO_WND_8_BTN+1) )

  00003	8b 45 0c	 mov	 eax, DWORD PTR _dwItemInfoID$[ebp]
  00006	8d 90 37 ff ff
	ff		 lea	 edx, DWORD PTR [eax-201]
  0000c	56		 push	 esi
  0000d	83 fa 07	 cmp	 edx, 7
  00010	77 3c		 ja	 SHORT $LN3@GetCurItem

; 902  : 
; 903  : 	int iStartArray = m_iCurPage * PAGE_PER_ITEM_NUM;
; 904  : 	int iCurArray   = iStartArray + ( dwItemInfoID - ID_ITEM_INFO_WND_1_BTN );

  00012	8b 91 a0 01 00
	00		 mov	 edx, DWORD PTR [ecx+416]
  00018	8d b4 90 37 ff
	ff ff		 lea	 esi, DWORD PTR [eax+edx*4-201]

; 905  : 	int iSize       = m_vInventoryItemInfoList.size();

  0001f	8d 81 90 01 00
	00		 lea	 eax, DWORD PTR [ecx+400]

; 906  : 	if( !COMPARE( iCurArray, 0, iSize ) )

  00025	85 f6		 test	 esi, esi
  00027	78 25		 js	 SHORT $LN3@GetCurItem

; 905  : 	int iSize       = m_vInventoryItemInfoList.size();

  00029	8b 08		 mov	 ecx, DWORD PTR [eax]
  0002b	8b 40 04	 mov	 eax, DWORD PTR [eax+4]
  0002e	57		 push	 edi
  0002f	2b c1		 sub	 eax, ecx
  00031	6a 48		 push	 72			; 00000048H
  00033	99		 cdq
  00034	5f		 pop	 edi
  00035	f7 ff		 idiv	 edi
  00037	5f		 pop	 edi

; 906  : 	if( !COMPARE( iCurArray, 0, iSize ) )

  00038	3b f0		 cmp	 esi, eax
  0003a	7d 12		 jge	 SHORT $LN3@GetCurItem

; 907  : 		return false;
; 908  : 
; 909  : 	rkInfo = m_vInventoryItemInfoList[iCurArray];

  0003c	6b f6 48	 imul	 esi, 72			; 00000048H
  0003f	03 f1		 add	 esi, ecx
  00041	8b 4d 08	 mov	 ecx, DWORD PTR _rkInfo$[ebp]
  00044	56		 push	 esi
  00045	e8 00 00 00 00	 call	 ??4tagInventoryItemInfo@@QAEAAU0@ABU0@@Z

; 910  : 	return true;

  0004a	b0 01		 mov	 al, 1
  0004c	eb 02		 jmp	 SHORT $LN5@GetCurItem
$LN3@GetCurItem:

; 901  : 		return false;

  0004e	32 c0		 xor	 al, al
$LN5@GetCurItem:
  00050	5e		 pop	 esi

; 911  : }

  00051	5d		 pop	 ebp
  00052	c2 08 00	 ret	 8
?GetCurItemInfo@TradeItemRegisterWnd@@QAE_NAAUtagInventoryItemInfo@@K@Z ENDP ; TradeItemRegisterWnd::GetCurItemInfo
_TEXT	ENDS
PUBLIC	??0?$_Vector_val@UtagInventoryItemInfo@@V?$allocator@UtagInventoryItemInfo@@@std@@@std@@QAE@V?$allocator@UtagInventoryItemInfo@@@1@@Z ; std::_Vector_val<tagInventoryItemInfo,std::allocator<tagInventoryItemInfo> >::_Vector_val<tagInventoryItemInfo,std::allocator<tagInventoryItemInfo> >
; Function compile flags: /Ogsp
; File c:\program files (x86)\microsoft visual studio 10.0\vc\include\vector
;	COMDAT ??0?$_Vector_val@UtagInventoryItemInfo@@V?$allocator@UtagInventoryItemInfo@@@std@@@std@@QAE@V?$allocator@UtagInventoryItemInfo@@@1@@Z
_TEXT	SEGMENT
__Al$ = 8						; size = 1
??0?$_Vector_val@UtagInventoryItemInfo@@V?$allocator@UtagInventoryItemInfo@@@std@@@std@@QAE@V?$allocator@UtagInventoryItemInfo@@@1@@Z PROC ; std::_Vector_val<tagInventoryItemInfo,std::allocator<tagInventoryItemInfo> >::_Vector_val<tagInventoryItemInfo,std::allocator<tagInventoryItemInfo> >, COMDAT
; _this$ = ecx

; 426  : 		{	// construct allocator from _Al

  00000	8b c1		 mov	 eax, ecx

; 427  : 		_Myfirst = 0;

  00002	33 c9		 xor	 ecx, ecx
  00004	89 08		 mov	 DWORD PTR [eax], ecx

; 428  : 		_Mylast = 0;

  00006	89 48 04	 mov	 DWORD PTR [eax+4], ecx

; 429  : 		_Myend = 0;

  00009	89 48 08	 mov	 DWORD PTR [eax+8], ecx

; 430  : 		}

  0000c	c2 04 00	 ret	 4
??0?$_Vector_val@UtagInventoryItemInfo@@V?$allocator@UtagInventoryItemInfo@@@std@@@std@@QAE@V?$allocator@UtagInventoryItemInfo@@@1@@Z ENDP ; std::_Vector_val<tagInventoryItemInfo,std::allocator<tagInventoryItemInfo> >::_Vector_val<tagInventoryItemInfo,std::allocator<tagInventoryItemInfo> >
_TEXT	ENDS
PUBLIC	??0?$_Vector_iterator@V?$_Vector_val@UtagInventoryItemInfo@@V?$allocator@UtagInventoryItemInfo@@@std@@@std@@@std@@QAE@PAUtagInventoryItemInfo@@PBU_Container_base0@1@@Z ; std::_Vector_iterator<std::_Vector_val<tagInventoryItemInfo,std::allocator<tagInventoryItemInfo> > >::_Vector_iterator<std::_Vector_val<tagInventoryItemInfo,std::allocator<tagInventoryItemInfo> > >
; Function compile flags: /Ogsp
;	COMDAT ??0?$_Vector_iterator@V?$_Vector_val@UtagInventoryItemInfo@@V?$allocator@UtagInventoryItemInfo@@@std@@@std@@@std@@QAE@PAUtagInventoryItemInfo@@PBU_Container_base0@1@@Z
_TEXT	SEGMENT
__Parg$ = 8						; size = 4
__Pvector$ = 12						; size = 4
??0?$_Vector_iterator@V?$_Vector_val@UtagInventoryItemInfo@@V?$allocator@UtagInventoryItemInfo@@@std@@@std@@@std@@QAE@PAUtagInventoryItemInfo@@PBU_Container_base0@1@@Z PROC ; std::_Vector_iterator<std::_Vector_val<tagInventoryItemInfo,std::allocator<tagInventoryItemInfo> > >::_Vector_iterator<std::_Vector_val<tagInventoryItemInfo,std::allocator<tagInventoryItemInfo> > >, COMDAT
; _this$ = ecx

; 304  : 		{	// construct with pointer _Parg

  00000	55		 push	 ebp
  00001	8b ec		 mov	 ebp, esp
  00003	8b c1		 mov	 eax, ecx
  00005	8b 4d 08	 mov	 ecx, DWORD PTR __Parg$[ebp]
  00008	89 08		 mov	 DWORD PTR [eax], ecx

; 305  : 		}

  0000a	5d		 pop	 ebp
  0000b	c2 08 00	 ret	 8
??0?$_Vector_iterator@V?$_Vector_val@UtagInventoryItemInfo@@V?$allocator@UtagInventoryItemInfo@@@std@@@std@@@std@@QAE@PAUtagInventoryItemInfo@@PBU_Container_base0@1@@Z ENDP ; std::_Vector_iterator<std::_Vector_val<tagInventoryItemInfo,std::allocator<tagInventoryItemInfo> > >::_Vector_iterator<std::_Vector_val<tagInventoryItemInfo,std::allocator<tagInventoryItemInfo> > >
_TEXT	ENDS
PUBLIC	?_Make_iter@?$vector@UtagInventoryItemInfo@@V?$allocator@UtagInventoryItemInfo@@@std@@@std@@QBE?AV?$_Vector_iterator@V?$_Vector_val@UtagInventoryItemInfo@@V?$allocator@UtagInventoryItemInfo@@@std@@@std@@@2@V?$_Vector_const_iterator@V?$_Vector_val@UtagInventoryItemInfo@@V?$allocator@UtagInventoryItemInfo@@@std@@@std@@@2@@Z ; std::vector<tagInventoryItemInfo,std::allocator<tagInventoryItemInfo> >::_Make_iter
; Function compile flags: /Ogsp
;	COMDAT ?_Make_iter@?$vector@UtagInventoryItemInfo@@V?$allocator@UtagInventoryItemInfo@@@std@@@std@@QBE?AV?$_Vector_iterator@V?$_Vector_val@UtagInventoryItemInfo@@V?$allocator@UtagInventoryItemInfo@@@std@@@std@@@2@V?$_Vector_const_iterator@V?$_Vector_val@UtagInventoryItemInfo@@V?$allocator@UtagInventoryItemInfo@@@std@@@std@@@2@@Z
_TEXT	SEGMENT
___$ReturnUdt$ = 8					; size = 4
__Where$ = 12						; size = 4
?_Make_iter@?$vector@UtagInventoryItemInfo@@V?$allocator@UtagInventoryItemInfo@@@std@@@std@@QBE?AV?$_Vector_iterator@V?$_Vector_val@UtagInventoryItemInfo@@V?$allocator@UtagInventoryItemInfo@@@std@@@std@@@2@V?$_Vector_const_iterator@V?$_Vector_val@UtagInventoryItemInfo@@V?$allocator@UtagInventoryItemInfo@@@std@@@std@@@2@@Z PROC ; std::vector<tagInventoryItemInfo,std::allocator<tagInventoryItemInfo> >::_Make_iter, COMDAT
; _this$ = ecx

; 801  : 		{	// make iterator from const_iterator

  00000	55		 push	 ebp
  00001	8b ec		 mov	 ebp, esp

; 802  : 		return (iterator(_Where._Ptr, this));

  00003	8b 45 08	 mov	 eax, DWORD PTR ___$ReturnUdt$[ebp]
  00006	8b 4d 0c	 mov	 ecx, DWORD PTR __Where$[ebp]
  00009	89 08		 mov	 DWORD PTR [eax], ecx

; 803  : 		}

  0000b	5d		 pop	 ebp
  0000c	c2 08 00	 ret	 8
?_Make_iter@?$vector@UtagInventoryItemInfo@@V?$allocator@UtagInventoryItemInfo@@@std@@@std@@QBE?AV?$_Vector_iterator@V?$_Vector_val@UtagInventoryItemInfo@@V?$allocator@UtagInventoryItemInfo@@@std@@@std@@@2@V?$_Vector_const_iterator@V?$_Vector_val@UtagInventoryItemInfo@@V?$allocator@UtagInventoryItemInfo@@@std@@@std@@@2@@Z ENDP ; std::vector<tagInventoryItemInfo,std::allocator<tagInventoryItemInfo> >::_Make_iter
_TEXT	ENDS
PUBLIC	?max_size@?$vector@UtagInventoryItemInfo@@V?$allocator@UtagInventoryItemInfo@@@std@@@std@@QBEIXZ ; std::vector<tagInventoryItemInfo,std::allocator<tagInventoryItemInfo> >::max_size
; Function compile flags: /Ogsp
;	COMDAT ?max_size@?$vector@UtagInventoryItemInfo@@V?$allocator@UtagInventoryItemInfo@@@std@@@std@@QBEIXZ
_TEXT	SEGMENT
?max_size@?$vector@UtagInventoryItemInfo@@V?$allocator@UtagInventoryItemInfo@@@std@@@std@@QBEIXZ PROC ; std::vector<tagInventoryItemInfo,std::allocator<tagInventoryItemInfo> >::max_size, COMDAT
; _this$ = ecx

; 884  : 		return (this->_Alval.max_size());

  00000	b8 e3 38 8e 03	 mov	 eax, 59652323		; 038e38e3H

; 885  : 		}

  00005	c3		 ret	 0
?max_size@?$vector@UtagInventoryItemInfo@@V?$allocator@UtagInventoryItemInfo@@@std@@@std@@QBEIXZ ENDP ; std::vector<tagInventoryItemInfo,std::allocator<tagInventoryItemInfo> >::max_size
_TEXT	ENDS
PUBLIC	?_Grow_to@?$vector@UtagInventoryItemInfo@@V?$allocator@UtagInventoryItemInfo@@@std@@@std@@IBEII@Z ; std::vector<tagInventoryItemInfo,std::allocator<tagInventoryItemInfo> >::_Grow_to
; Function compile flags: /Ogsp
;	COMDAT ?_Grow_to@?$vector@UtagInventoryItemInfo@@V?$allocator@UtagInventoryItemInfo@@@std@@@std@@IBEII@Z
_TEXT	SEGMENT
__Count$ = 8						; size = 4
?_Grow_to@?$vector@UtagInventoryItemInfo@@V?$allocator@UtagInventoryItemInfo@@@std@@@std@@IBEII@Z PROC ; std::vector<tagInventoryItemInfo,std::allocator<tagInventoryItemInfo> >::_Grow_to, COMDAT
; _this$ = ecx

; 1274 : 		{	// grow by 50% or at least to _Count

  00000	55		 push	 ebp
  00001	8b ec		 mov	 ebp, esp

; 1275 : 		size_type _Capacity = capacity();

  00003	8b 41 08	 mov	 eax, DWORD PTR [ecx+8]
  00006	2b 01		 sub	 eax, DWORD PTR [ecx]
  00008	6a 48		 push	 72			; 00000048H
  0000a	99		 cdq
  0000b	59		 pop	 ecx
  0000c	f7 f9		 idiv	 ecx

; 1276 : 
; 1277 : 		_Capacity = max_size() - _Capacity / 2 < _Capacity
; 1278 : 			? 0 : _Capacity + _Capacity / 2;	// try to grow by 50%

  0000e	ba e3 38 8e 03	 mov	 edx, 59652323		; 038e38e3H
  00013	8b c8		 mov	 ecx, eax
  00015	d1 e9		 shr	 ecx, 1
  00017	2b d1		 sub	 edx, ecx
  00019	3b d0		 cmp	 edx, eax
  0001b	73 04		 jae	 SHORT $LN4@Grow_to
  0001d	33 c0		 xor	 eax, eax
  0001f	eb 02		 jmp	 SHORT $LN5@Grow_to
$LN4@Grow_to:
  00021	03 c1		 add	 eax, ecx
$LN5@Grow_to:

; 1279 : 		if (_Capacity < _Count)

  00023	3b 45 08	 cmp	 eax, DWORD PTR __Count$[ebp]

; 1280 : 			_Capacity = _Count;

  00026	0f 42 45 08	 cmovb	 eax, DWORD PTR __Count$[ebp]

; 1281 : 		return (_Capacity);
; 1282 : 		}

  0002a	5d		 pop	 ebp
  0002b	c2 04 00	 ret	 4
?_Grow_to@?$vector@UtagInventoryItemInfo@@V?$allocator@UtagInventoryItemInfo@@@std@@@std@@IBEII@Z ENDP ; std::vector<tagInventoryItemInfo,std::allocator<tagInventoryItemInfo> >::_Grow_to
_TEXT	ENDS
PUBLIC	?allocate@?$allocator@UtagInventoryItemInfo@@@std@@QAEPAUtagInventoryItemInfo@@I@Z ; std::allocator<tagInventoryItemInfo>::allocate
; Function compile flags: /Ogsp
; File c:\program files (x86)\microsoft visual studio 10.0\vc\include\xmemory
;	COMDAT ?allocate@?$allocator@UtagInventoryItemInfo@@@std@@QAEPAUtagInventoryItemInfo@@I@Z
_TEXT	SEGMENT
__Count$ = 8						; size = 4
?allocate@?$allocator@UtagInventoryItemInfo@@@std@@QAEPAUtagInventoryItemInfo@@I@Z PROC ; std::allocator<tagInventoryItemInfo>::allocate, COMDAT
; _this$ = ecx

; 186  : 		{	// allocate array of _Count elements

  00000	55		 push	 ebp
  00001	8b ec		 mov	 ebp, esp

; 187  : 		return (_Allocate(_Count, (pointer)0));

  00003	6a 00		 push	 0
  00005	ff 75 08	 push	 DWORD PTR __Count$[ebp]
  00008	e8 00 00 00 00	 call	 ??$_Allocate@UtagInventoryItemInfo@@@std@@YAPAUtagInventoryItemInfo@@IPAU1@@Z ; std::_Allocate<tagInventoryItemInfo>
  0000d	59		 pop	 ecx
  0000e	59		 pop	 ecx

; 188  : 		}

  0000f	5d		 pop	 ebp
  00010	c2 04 00	 ret	 4
?allocate@?$allocator@UtagInventoryItemInfo@@@std@@QAEPAUtagInventoryItemInfo@@I@Z ENDP ; std::allocator<tagInventoryItemInfo>::allocate
_TEXT	ENDS
PUBLIC	??8?$_Vector_const_iterator@V?$_Vector_val@UtagInventoryItemInfo@@V?$allocator@UtagInventoryItemInfo@@@std@@@std@@@std@@QBE_NABV01@@Z ; std::_Vector_const_iterator<std::_Vector_val<tagInventoryItemInfo,std::allocator<tagInventoryItemInfo> > >::operator==
; Function compile flags: /Ogsp
; File c:\program files (x86)\microsoft visual studio 10.0\vc\include\vector
;	COMDAT ??8?$_Vector_const_iterator@V?$_Vector_val@UtagInventoryItemInfo@@V?$allocator@UtagInventoryItemInfo@@@std@@@std@@@std@@QBE_NABV01@@Z
_TEXT	SEGMENT
__Right$ = 8						; size = 4
??8?$_Vector_const_iterator@V?$_Vector_val@UtagInventoryItemInfo@@V?$allocator@UtagInventoryItemInfo@@@std@@@std@@@std@@QBE_NABV01@@Z PROC ; std::_Vector_const_iterator<std::_Vector_val<tagInventoryItemInfo,std::allocator<tagInventoryItemInfo> > >::operator==, COMDAT
; _this$ = ecx

; 201  : 		{	// test for iterator equality

  00000	55		 push	 ebp
  00001	8b ec		 mov	 ebp, esp

; 202  : 		_Compat(_Right);
; 203  : 		return (this->_Ptr == _Right._Ptr);

  00003	8b 01		 mov	 eax, DWORD PTR [ecx]
  00005	8b 4d 08	 mov	 ecx, DWORD PTR __Right$[ebp]
  00008	2b 01		 sub	 eax, DWORD PTR [ecx]
  0000a	f7 d8		 neg	 eax
  0000c	1b c0		 sbb	 eax, eax
  0000e	40		 inc	 eax

; 204  : 		}

  0000f	5d		 pop	 ebp
  00010	c2 04 00	 ret	 4
??8?$_Vector_const_iterator@V?$_Vector_val@UtagInventoryItemInfo@@V?$allocator@UtagInventoryItemInfo@@@std@@@std@@@std@@QBE_NABV01@@Z ENDP ; std::_Vector_const_iterator<std::_Vector_val<tagInventoryItemInfo,std::allocator<tagInventoryItemInfo> > >::operator==
_TEXT	ENDS
PUBLIC	__$ArrayPad$
PUBLIC	??$?8$08@@YA_NABVioHashString@@AAY08$$CBD@Z	; operator==<9>
EXTRN	___security_cookie:DWORD
; Function compile flags: /Ogsp
; File d:\lost saga for developer\youtube\tutorial\source\src\io3dengine\iohashstring.h
;	COMDAT ??$?8$08@@YA_NABVioHashString@@AAY08$$CBD@Z
_TEXT	SEGMENT
__t$ = -20						; size = 9
__$ArrayPad$ = -4					; size = 4
_lhs$ = 8						; size = 4
_t$ = 12						; size = 4
??$?8$08@@YA_NABVioHashString@@AAY08$$CBD@Z PROC	; operator==<9>, COMDAT

; 146  : {

  00000	55		 push	 ebp
  00001	8b ec		 mov	 ebp, esp
  00003	83 ec 14	 sub	 esp, 20			; 00000014H
  00006	a1 00 00 00 00	 mov	 eax, DWORD PTR ___security_cookie
  0000b	33 c5		 xor	 eax, ebp
  0000d	89 45 fc	 mov	 DWORD PTR __$ArrayPad$[ebp], eax
  00010	8b 45 0c	 mov	 eax, DWORD PTR _t$[ebp]

; 147  : 	_ENCSTR(t, _t); return ( strcmp( lhs.c_str(), _t ) == 0 );

  00013	8a 10		 mov	 dl, BYTE PTR [eax]
  00015	8b 4d 08	 mov	 ecx, DWORD PTR _lhs$[ebp]
  00018	84 d2		 test	 dl, dl
  0001a	0f 84 ee 00 00
	00		 je	 $LN96@operator@3
  00020	80 f2 ed	 xor	 dl, -19			; ffffffedH
  00023	88 55 ec	 mov	 BYTE PTR __t$[ebp], dl
  00026	8a 50 01	 mov	 dl, BYTE PTR [eax+1]
  00029	84 d2		 test	 dl, dl
  0002b	0f 84 d7 00 00
	00		 je	 $LN95@operator@3
  00031	80 f2 ec	 xor	 dl, -20			; ffffffecH
  00034	88 55 ed	 mov	 BYTE PTR __t$[ebp+1], dl
  00037	8a 50 02	 mov	 dl, BYTE PTR [eax+2]
  0003a	84 d2		 test	 dl, dl
  0003c	0f 84 c0 00 00
	00		 je	 $LN94@operator@3
  00042	80 f2 eb	 xor	 dl, -21			; ffffffebH
  00045	88 55 ee	 mov	 BYTE PTR __t$[ebp+2], dl
  00048	8a 50 03	 mov	 dl, BYTE PTR [eax+3]
  0004b	84 d2		 test	 dl, dl
  0004d	0f 84 a9 00 00
	00		 je	 $LN93@operator@3
  00053	80 f2 ea	 xor	 dl, -22			; ffffffeaH
  00056	88 55 ef	 mov	 BYTE PTR __t$[ebp+3], dl
  00059	8a 50 04	 mov	 dl, BYTE PTR [eax+4]
  0005c	84 d2		 test	 dl, dl
  0005e	0f 84 92 00 00
	00		 je	 $LN92@operator@3
  00064	80 f2 ed	 xor	 dl, -19			; ffffffedH
  00067	88 55 f0	 mov	 BYTE PTR __t$[ebp+4], dl
  0006a	8a 50 05	 mov	 dl, BYTE PTR [eax+5]
  0006d	84 d2		 test	 dl, dl
  0006f	74 7f		 je	 SHORT $LN91@operator@3
  00071	80 f2 ec	 xor	 dl, -20			; ffffffecH
  00074	88 55 f1	 mov	 BYTE PTR __t$[ebp+5], dl
  00077	8a 50 06	 mov	 dl, BYTE PTR [eax+6]
  0007a	84 d2		 test	 dl, dl
  0007c	74 6c		 je	 SHORT $LN90@operator@3
  0007e	80 f2 eb	 xor	 dl, -21			; ffffffebH
  00081	88 55 f2	 mov	 BYTE PTR __t$[ebp+6], dl
  00084	8a 50 07	 mov	 dl, BYTE PTR [eax+7]
  00087	84 d2		 test	 dl, dl
  00089	74 59		 je	 SHORT $LN89@operator@3
  0008b	80 f2 ea	 xor	 dl, -22			; ffffffeaH
  0008e	80 78 08 00	 cmp	 BYTE PTR [eax+8], 0
  00092	88 55 f3	 mov	 BYTE PTR __t$[ebp+7], dl
  00095	74 7b		 je	 SHORT $LN1@operator@3
  00097	8a 50 09	 mov	 dl, BYTE PTR [eax+9]
  0009a	84 d2		 test	 dl, dl
  0009c	74 40		 je	 SHORT $LN87@operator@3
  0009e	80 f2 ec	 xor	 dl, -20			; ffffffecH
  000a1	88 55 f5	 mov	 BYTE PTR __t$[ebp+9], dl
  000a4	8a 50 0a	 mov	 dl, BYTE PTR [eax+10]
  000a7	84 d2		 test	 dl, dl
  000a9	74 2d		 je	 SHORT $LN86@operator@3
  000ab	80 f2 eb	 xor	 dl, -21			; ffffffebH
  000ae	88 55 f6	 mov	 BYTE PTR __t$[ebp+10], dl
  000b1	8a 50 0b	 mov	 dl, BYTE PTR [eax+11]
  000b4	84 d2		 test	 dl, dl
  000b6	74 1a		 je	 SHORT $LN85@operator@3
  000b8	8a 40 0c	 mov	 al, BYTE PTR [eax+12]
  000bb	80 f2 ea	 xor	 dl, -22			; ffffffeaH
  000be	88 55 f7	 mov	 BYTE PTR __t$[ebp+11], dl
  000c1	84 c0		 test	 al, al
  000c3	74 07		 je	 SHORT $LN84@operator@3
  000c5	34 ed		 xor	 al, -19			; ffffffedH
  000c7	88 45 f8	 mov	 BYTE PTR __t$[ebp+12], al
  000ca	eb 46		 jmp	 SHORT $LN1@operator@3
$LN84@operator@3:
  000cc	c6 45 f8 ed	 mov	 BYTE PTR __t$[ebp+12], -19 ; ffffffedH
  000d0	eb 40		 jmp	 SHORT $LN1@operator@3
$LN85@operator@3:
  000d2	c6 45 f7 ea	 mov	 BYTE PTR __t$[ebp+11], -22 ; ffffffeaH
  000d6	eb 3a		 jmp	 SHORT $LN1@operator@3
$LN86@operator@3:
  000d8	c6 45 f6 eb	 mov	 BYTE PTR __t$[ebp+10], -21 ; ffffffebH
  000dc	eb 34		 jmp	 SHORT $LN1@operator@3
$LN87@operator@3:
  000de	c6 45 f5 ec	 mov	 BYTE PTR __t$[ebp+9], -20 ; ffffffecH
  000e2	eb 2e		 jmp	 SHORT $LN1@operator@3
$LN89@operator@3:
  000e4	c6 45 f3 ea	 mov	 BYTE PTR __t$[ebp+7], -22 ; ffffffeaH
  000e8	eb 28		 jmp	 SHORT $LN1@operator@3
$LN90@operator@3:
  000ea	c6 45 f2 eb	 mov	 BYTE PTR __t$[ebp+6], -21 ; ffffffebH
  000ee	eb 22		 jmp	 SHORT $LN1@operator@3
$LN91@operator@3:
  000f0	c6 45 f1 ec	 mov	 BYTE PTR __t$[ebp+5], -20 ; ffffffecH
  000f4	eb 1c		 jmp	 SHORT $LN1@operator@3
$LN92@operator@3:
  000f6	c6 45 f0 ed	 mov	 BYTE PTR __t$[ebp+4], -19 ; ffffffedH
  000fa	eb 16		 jmp	 SHORT $LN1@operator@3
$LN93@operator@3:
  000fc	c6 45 ef ea	 mov	 BYTE PTR __t$[ebp+3], -22 ; ffffffeaH
  00100	eb 10		 jmp	 SHORT $LN1@operator@3
$LN94@operator@3:
  00102	c6 45 ee eb	 mov	 BYTE PTR __t$[ebp+2], -21 ; ffffffebH
  00106	eb 0a		 jmp	 SHORT $LN1@operator@3
$LN95@operator@3:
  00108	c6 45 ed ec	 mov	 BYTE PTR __t$[ebp+1], -20 ; ffffffecH
  0010c	eb 04		 jmp	 SHORT $LN1@operator@3
$LN96@operator@3:
  0010e	c6 45 ec ed	 mov	 BYTE PTR __t$[ebp], -19	; ffffffedH
$LN1@operator@3:
  00112	6a 02		 push	 2
  00114	8d 45 ec	 lea	 eax, DWORD PTR __t$[ebp]
  00117	c6 45 f4 00	 mov	 BYTE PTR __t$[ebp+8], 0
  0011b	5a		 pop	 edx
$LL104@operator@3:
  0011c	81 30 ed ec eb
	ea		 xor	 DWORD PTR [eax], -353637139 ; eaebecedH
  00122	83 c0 04	 add	 eax, 4
  00125	4a		 dec	 edx
  00126	75 f4		 jne	 SHORT $LL104@operator@3
  00128	56		 push	 esi
  00129	8d 75 ec	 lea	 esi, DWORD PTR __t$[ebp]
  0012c	ff 15 00 00 00
	00		 call	 DWORD PTR __imp_?c_str@ioHashString@@QBEPBDXZ
$LL111@operator@3:
  00132	8a 08		 mov	 cl, BYTE PTR [eax]
  00134	3a 0e		 cmp	 cl, BYTE PTR [esi]
  00136	75 1a		 jne	 SHORT $LN112@operator@3
  00138	84 c9		 test	 cl, cl
  0013a	74 12		 je	 SHORT $LN113@operator@3
  0013c	8a 48 01	 mov	 cl, BYTE PTR [eax+1]
  0013f	3a 4e 01	 cmp	 cl, BYTE PTR [esi+1]
  00142	75 0e		 jne	 SHORT $LN112@operator@3
  00144	83 c0 02	 add	 eax, 2
  00147	83 c6 02	 add	 esi, 2
  0014a	84 c9		 test	 cl, cl
  0014c	75 e4		 jne	 SHORT $LL111@operator@3
$LN113@operator@3:
  0014e	33 c0		 xor	 eax, eax
  00150	eb 05		 jmp	 SHORT $LN114@operator@3
$LN112@operator@3:
  00152	1b c0		 sbb	 eax, eax
  00154	83 d8 ff	 sbb	 eax, -1
$LN114@operator@3:
  00157	33 c9		 xor	 ecx, ecx
  00159	85 c0		 test	 eax, eax
  0015b	0f 94 c0	 sete	 al

; 148  : }

  0015e	8b 4d fc	 mov	 ecx, DWORD PTR __$ArrayPad$[ebp]
  00161	33 cd		 xor	 ecx, ebp
  00163	5e		 pop	 esi
  00164	e8 00 00 00 00	 call	 @__security_check_cookie@4
  00169	c9		 leave
  0016a	c3		 ret	 0
??$?8$08@@YA_NABVioHashString@@AAY08$$CBD@Z ENDP	; operator==<9>
_TEXT	ENDS
PUBLIC	__$ArrayPad$
PUBLIC	??$?8$06@@YA_NABVioHashString@@AAY06$$CBD@Z	; operator==<7>
; Function compile flags: /Ogsp
;	COMDAT ??$?8$06@@YA_NABVioHashString@@AAY06$$CBD@Z
_TEXT	SEGMENT
__t$ = -16						; size = 7
__$ArrayPad$ = -4					; size = 4
_lhs$ = 8						; size = 4
_t$ = 12						; size = 4
??$?8$06@@YA_NABVioHashString@@AAY06$$CBD@Z PROC	; operator==<7>, COMDAT

; 146  : {

  00000	55		 push	 ebp
  00001	8b ec		 mov	 ebp, esp
  00003	83 ec 10	 sub	 esp, 16			; 00000010H
  00006	a1 00 00 00 00	 mov	 eax, DWORD PTR ___security_cookie
  0000b	33 c5		 xor	 eax, ebp
  0000d	89 45 fc	 mov	 DWORD PTR __$ArrayPad$[ebp], eax
  00010	8b 45 0c	 mov	 eax, DWORD PTR _t$[ebp]

; 147  : 	_ENCSTR(t, _t); return ( strcmp( lhs.c_str(), _t ) == 0 );

  00013	8a 10		 mov	 dl, BYTE PTR [eax]
  00015	56		 push	 esi
  00016	57		 push	 edi
  00017	8b 7d 08	 mov	 edi, DWORD PTR _lhs$[ebp]
  0001a	84 d2		 test	 dl, dl
  0001c	0f 84 c0 00 00
	00		 je	 $LN96@operator@4
  00022	80 f2 ed	 xor	 dl, -19			; ffffffedH
  00025	88 55 f0	 mov	 BYTE PTR __t$[ebp], dl
  00028	8a 50 01	 mov	 dl, BYTE PTR [eax+1]
  0002b	84 d2		 test	 dl, dl
  0002d	0f 84 a9 00 00
	00		 je	 $LN95@operator@4
  00033	80 f2 ec	 xor	 dl, -20			; ffffffecH
  00036	88 55 f1	 mov	 BYTE PTR __t$[ebp+1], dl
  00039	8a 50 02	 mov	 dl, BYTE PTR [eax+2]
  0003c	84 d2		 test	 dl, dl
  0003e	0f 84 92 00 00
	00		 je	 $LN94@operator@4
  00044	80 f2 eb	 xor	 dl, -21			; ffffffebH
  00047	88 55 f2	 mov	 BYTE PTR __t$[ebp+2], dl
  0004a	8a 50 03	 mov	 dl, BYTE PTR [eax+3]
  0004d	84 d2		 test	 dl, dl
  0004f	74 7f		 je	 SHORT $LN93@operator@4
  00051	80 f2 ea	 xor	 dl, -22			; ffffffeaH
  00054	88 55 f3	 mov	 BYTE PTR __t$[ebp+3], dl
  00057	8a 50 04	 mov	 dl, BYTE PTR [eax+4]
  0005a	84 d2		 test	 dl, dl
  0005c	74 6c		 je	 SHORT $LN92@operator@4
  0005e	80 f2 ed	 xor	 dl, -19			; ffffffedH
  00061	88 55 f4	 mov	 BYTE PTR __t$[ebp+4], dl
  00064	8a 50 05	 mov	 dl, BYTE PTR [eax+5]
  00067	84 d2		 test	 dl, dl
  00069	74 59		 je	 SHORT $LN91@operator@4
  0006b	80 f2 ec	 xor	 dl, -20			; ffffffecH
  0006e	80 78 06 00	 cmp	 BYTE PTR [eax+6], 0
  00072	88 55 f5	 mov	 BYTE PTR __t$[ebp+5], dl
  00075	74 6f		 je	 SHORT $LN1@operator@4
  00077	8a 50 07	 mov	 dl, BYTE PTR [eax+7]
  0007a	84 d2		 test	 dl, dl
  0007c	74 40		 je	 SHORT $LN89@operator@4
  0007e	80 f2 ea	 xor	 dl, -22			; ffffffeaH
  00081	88 55 f7	 mov	 BYTE PTR __t$[ebp+7], dl
  00084	8a 50 08	 mov	 dl, BYTE PTR [eax+8]
  00087	84 d2		 test	 dl, dl
  00089	74 2d		 je	 SHORT $LN88@operator@4
  0008b	80 f2 ed	 xor	 dl, -19			; ffffffedH
  0008e	88 55 f8	 mov	 BYTE PTR __t$[ebp+8], dl
  00091	8a 50 09	 mov	 dl, BYTE PTR [eax+9]
  00094	84 d2		 test	 dl, dl
  00096	74 1a		 je	 SHORT $LN87@operator@4
  00098	8a 40 0a	 mov	 al, BYTE PTR [eax+10]
  0009b	80 f2 ec	 xor	 dl, -20			; ffffffecH
  0009e	88 55 f9	 mov	 BYTE PTR __t$[ebp+9], dl
  000a1	84 c0		 test	 al, al
  000a3	74 07		 je	 SHORT $LN86@operator@4
  000a5	34 eb		 xor	 al, -21			; ffffffebH
  000a7	88 45 fa	 mov	 BYTE PTR __t$[ebp+10], al
  000aa	eb 3a		 jmp	 SHORT $LN1@operator@4
$LN86@operator@4:
  000ac	c6 45 fa eb	 mov	 BYTE PTR __t$[ebp+10], -21 ; ffffffebH
  000b0	eb 34		 jmp	 SHORT $LN1@operator@4
$LN87@operator@4:
  000b2	c6 45 f9 ec	 mov	 BYTE PTR __t$[ebp+9], -20 ; ffffffecH
  000b6	eb 2e		 jmp	 SHORT $LN1@operator@4
$LN88@operator@4:
  000b8	c6 45 f8 ed	 mov	 BYTE PTR __t$[ebp+8], -19 ; ffffffedH
  000bc	eb 28		 jmp	 SHORT $LN1@operator@4
$LN89@operator@4:
  000be	c6 45 f7 ea	 mov	 BYTE PTR __t$[ebp+7], -22 ; ffffffeaH
  000c2	eb 22		 jmp	 SHORT $LN1@operator@4
$LN91@operator@4:
  000c4	c6 45 f5 ec	 mov	 BYTE PTR __t$[ebp+5], -20 ; ffffffecH
  000c8	eb 1c		 jmp	 SHORT $LN1@operator@4
$LN92@operator@4:
  000ca	c6 45 f4 ed	 mov	 BYTE PTR __t$[ebp+4], -19 ; ffffffedH
  000ce	eb 16		 jmp	 SHORT $LN1@operator@4
$LN93@operator@4:
  000d0	c6 45 f3 ea	 mov	 BYTE PTR __t$[ebp+3], -22 ; ffffffeaH
  000d4	eb 10		 jmp	 SHORT $LN1@operator@4
$LN94@operator@4:
  000d6	c6 45 f2 eb	 mov	 BYTE PTR __t$[ebp+2], -21 ; ffffffebH
  000da	eb 0a		 jmp	 SHORT $LN1@operator@4
$LN95@operator@4:
  000dc	c6 45 f1 ec	 mov	 BYTE PTR __t$[ebp+1], -20 ; ffffffecH
  000e0	eb 04		 jmp	 SHORT $LN1@operator@4
$LN96@operator@4:
  000e2	c6 45 f0 ed	 mov	 BYTE PTR __t$[ebp], -19	; ffffffedH
$LN1@operator@4:
  000e6	81 75 f0 ed ec
	eb ea		 xor	 DWORD PTR __t$[ebp], -353637139 ; eaebecedH
  000ed	6a 04		 push	 4
  000ef	c6 45 f6 00	 mov	 BYTE PTR __t$[ebp+6], 0
  000f3	58		 pop	 eax
$LL101@operator@4:
  000f4	8b c8		 mov	 ecx, eax
  000f6	81 e1 03 00 00
	80		 and	 ecx, -2147483645	; 80000003H
  000fc	79 05		 jns	 SHORT $LN115@operator@4
  000fe	49		 dec	 ecx
  000ff	83 c9 fc	 or	 ecx, -4			; fffffffcH
  00102	41		 inc	 ecx
$LN115@operator@4:
  00103	b2 ed		 mov	 dl, -19			; ffffffedH
  00105	2a d1		 sub	 dl, cl
  00107	30 54 05 f0	 xor	 BYTE PTR __t$[ebp+eax], dl
  0010b	40		 inc	 eax
  0010c	83 f8 06	 cmp	 eax, 6
  0010f	7c e3		 jl	 SHORT $LL101@operator@4
  00111	8b cf		 mov	 ecx, edi
  00113	8d 75 f0	 lea	 esi, DWORD PTR __t$[ebp]
  00116	ff 15 00 00 00
	00		 call	 DWORD PTR __imp_?c_str@ioHashString@@QBEPBDXZ
$LL111@operator@4:
  0011c	8a 08		 mov	 cl, BYTE PTR [eax]
  0011e	3a 0e		 cmp	 cl, BYTE PTR [esi]
  00120	75 1a		 jne	 SHORT $LN112@operator@4
  00122	84 c9		 test	 cl, cl
  00124	74 12		 je	 SHORT $LN113@operator@4
  00126	8a 48 01	 mov	 cl, BYTE PTR [eax+1]
  00129	3a 4e 01	 cmp	 cl, BYTE PTR [esi+1]
  0012c	75 0e		 jne	 SHORT $LN112@operator@4
  0012e	83 c0 02	 add	 eax, 2
  00131	83 c6 02	 add	 esi, 2
  00134	84 c9		 test	 cl, cl
  00136	75 e4		 jne	 SHORT $LL111@operator@4
$LN113@operator@4:
  00138	33 c0		 xor	 eax, eax
  0013a	eb 05		 jmp	 SHORT $LN114@operator@4
$LN112@operator@4:
  0013c	1b c0		 sbb	 eax, eax
  0013e	83 d8 ff	 sbb	 eax, -1
$LN114@operator@4:
  00141	33 c9		 xor	 ecx, ecx
  00143	85 c0		 test	 eax, eax
  00145	0f 94 c0	 sete	 al

; 148  : }

  00148	8b 4d fc	 mov	 ecx, DWORD PTR __$ArrayPad$[ebp]
  0014b	5f		 pop	 edi
  0014c	33 cd		 xor	 ecx, ebp
  0014e	5e		 pop	 esi
  0014f	e8 00 00 00 00	 call	 @__security_check_cookie@4
  00154	c9		 leave
  00155	c3		 ret	 0
??$?8$06@@YA_NABVioHashString@@AAY06$$CBD@Z ENDP	; operator==<7>
_TEXT	ENDS
PUBLIC	??$_Cons_val@V?$allocator@UtagInventoryItemInfo@@@std@@UtagInventoryItemInfo@@AAU3@@std@@YAXAAV?$allocator@UtagInventoryItemInfo@@@0@PAUtagInventoryItemInfo@@AAU2@@Z ; std::_Cons_val<std::allocator<tagInventoryItemInfo>,tagInventoryItemInfo,tagInventoryItemInfo &>
;	COMDAT xdata$x
; File c:\program files (x86)\microsoft visual studio 10.0\vc\include\utility
xdata$x	SEGMENT
__unwindtable$??$_Cons_val@V?$allocator@UtagInventoryItemInfo@@@std@@UtagInventoryItemInfo@@AAU3@@std@@YAXAAV?$allocator@UtagInventoryItemInfo@@@0@PAUtagInventoryItemInfo@@AAU2@@Z DD 0ffffffffH
	DD	FLAT:__unwindfunclet$??$_Cons_val@V?$allocator@UtagInventoryItemInfo@@@std@@UtagInventoryItemInfo@@AAU3@@std@@YAXAAV?$allocator@UtagInventoryItemInfo@@@0@PAUtagInventoryItemInfo@@AAU2@@Z$0
__ehfuncinfo$??$_Cons_val@V?$allocator@UtagInventoryItemInfo@@@std@@UtagInventoryItemInfo@@AAU3@@std@@YAXAAV?$allocator@UtagInventoryItemInfo@@@0@PAUtagInventoryItemInfo@@AAU2@@Z DD 019930522H
	DD	01H
	DD	FLAT:__unwindtable$??$_Cons_val@V?$allocator@UtagInventoryItemInfo@@@std@@UtagInventoryItemInfo@@AAU3@@std@@YAXAAV?$allocator@UtagInventoryItemInfo@@@0@PAUtagInventoryItemInfo@@AAU2@@Z
	DD	2 DUP(00H)
	DD	2 DUP(00H)
	DD	00H
	DD	01H
; Function compile flags: /Ogsp
; File c:\program files (x86)\microsoft visual studio 10.0\vc\include\xmemory
xdata$x	ENDS
;	COMDAT ??$_Cons_val@V?$allocator@UtagInventoryItemInfo@@@std@@UtagInventoryItemInfo@@AAU3@@std@@YAXAAV?$allocator@UtagInventoryItemInfo@@@0@PAUtagInventoryItemInfo@@AAU2@@Z
_TEXT	SEGMENT
$T511339 = -16						; size = 4
__$EHRec$ = -12						; size = 12
__Alval$ = 8						; size = 4
__Pdest$ = 12						; size = 4
__Src$ = 16						; size = 4
??$_Cons_val@V?$allocator@UtagInventoryItemInfo@@@std@@UtagInventoryItemInfo@@AAU3@@std@@YAXAAV?$allocator@UtagInventoryItemInfo@@@0@PAUtagInventoryItemInfo@@AAU2@@Z PROC ; std::_Cons_val<std::allocator<tagInventoryItemInfo>,tagInventoryItemInfo,tagInventoryItemInfo &>, COMDAT

; 279  : 	{	// construct using allocator

  00000	6a 04		 push	 4
  00002	b8 00 00 00 00	 mov	 eax, __ehhandler$??$_Cons_val@V?$allocator@UtagInventoryItemInfo@@@std@@UtagInventoryItemInfo@@AAU3@@std@@YAXAAV?$allocator@UtagInventoryItemInfo@@@0@PAUtagInventoryItemInfo@@AAU2@@Z
  00007	e8 00 00 00 00	 call	 __EH_prolog3

; 280  : 	_Alval.construct(_Pdest, _STD forward<_Ty2>(_Src));

  0000c	8b 4d 0c	 mov	 ecx, DWORD PTR __Pdest$[ebp]
  0000f	89 4d f0	 mov	 DWORD PTR $T511339[ebp], ecx
  00012	83 65 fc 00	 and	 DWORD PTR __$EHRec$[ebp+8], 0
  00016	85 c9		 test	 ecx, ecx
  00018	74 08		 je	 SHORT $LN7@Cons_val
  0001a	ff 75 10	 push	 DWORD PTR __Src$[ebp]
  0001d	e8 00 00 00 00	 call	 ??0tagInventoryItemInfo@@QAE@ABU0@@Z
$LN7@Cons_val:

; 281  : 	}

  00022	e8 00 00 00 00	 call	 __EH_epilog3
  00027	c3		 ret	 0
_TEXT	ENDS
;	COMDAT text$x
text$x	SEGMENT
__unwindfunclet$??$_Cons_val@V?$allocator@UtagInventoryItemInfo@@@std@@UtagInventoryItemInfo@@AAU3@@std@@YAXAAV?$allocator@UtagInventoryItemInfo@@@0@PAUtagInventoryItemInfo@@AAU2@@Z$0:
  00000	ff 75 0c	 push	 DWORD PTR __Pdest$[ebp]
  00003	ff 75 f0	 push	 DWORD PTR $T511339[ebp]
  00006	e8 00 00 00 00	 call	 ??3@YAXPAX0@Z		; operator delete
  0000b	59		 pop	 ecx
  0000c	59		 pop	 ecx
  0000d	c3		 ret	 0
__ehhandler$??$_Cons_val@V?$allocator@UtagInventoryItemInfo@@@std@@UtagInventoryItemInfo@@AAU3@@std@@YAXAAV?$allocator@UtagInventoryItemInfo@@@0@PAUtagInventoryItemInfo@@AAU2@@Z:
  0000e	8b 54 24 08	 mov	 edx, DWORD PTR [esp+8]
  00012	8d 42 0c	 lea	 eax, DWORD PTR [edx+12]
  00015	8b 4a ec	 mov	 ecx, DWORD PTR [edx-20]
  00018	33 c8		 xor	 ecx, eax
  0001a	e8 00 00 00 00	 call	 @__security_check_cookie@4
  0001f	b8 00 00 00 00	 mov	 eax, OFFSET __ehfuncinfo$??$_Cons_val@V?$allocator@UtagInventoryItemInfo@@@std@@UtagInventoryItemInfo@@AAU3@@std@@YAXAAV?$allocator@UtagInventoryItemInfo@@@0@PAUtagInventoryItemInfo@@AAU2@@Z
  00024	e9 00 00 00 00	 jmp	 ___CxxFrameHandler3
text$x	ENDS
??$_Cons_val@V?$allocator@UtagInventoryItemInfo@@@std@@UtagInventoryItemInfo@@AAU3@@std@@YAXAAV?$allocator@UtagInventoryItemInfo@@@0@PAUtagInventoryItemInfo@@AAU2@@Z ENDP ; std::_Cons_val<std::allocator<tagInventoryItemInfo>,tagInventoryItemInfo,tagInventoryItemInfo &>
PUBLIC	?construct@?$allocator@UtagInventoryItemInfo@@@std@@QAEXPAUtagInventoryItemInfo@@ABU3@@Z ; std::allocator<tagInventoryItemInfo>::construct
; Function compile flags: /Ogsp
;	COMDAT ?construct@?$allocator@UtagInventoryItemInfo@@@std@@QAEXPAUtagInventoryItemInfo@@ABU3@@Z
_TEXT	SEGMENT
__Ptr$ = 8						; size = 4
__Val$ = 12						; size = 4
?construct@?$allocator@UtagInventoryItemInfo@@@std@@QAEXPAUtagInventoryItemInfo@@ABU3@@Z PROC ; std::allocator<tagInventoryItemInfo>::construct, COMDAT
; _this$ = ecx

; 196  : 		{	// construct object at _Ptr with value _Val

  00000	55		 push	 ebp
  00001	8b ec		 mov	 ebp, esp

; 197  : 		_Construct(_Ptr, _Val);

  00003	ff 75 0c	 push	 DWORD PTR __Val$[ebp]
  00006	ff 75 08	 push	 DWORD PTR __Ptr$[ebp]
  00009	e8 00 00 00 00	 call	 ??$_Construct@UtagInventoryItemInfo@@ABU1@@std@@YAXPAUtagInventoryItemInfo@@ABU1@@Z ; std::_Construct<tagInventoryItemInfo,tagInventoryItemInfo const &>
  0000e	59		 pop	 ecx
  0000f	59		 pop	 ecx

; 198  : 		}

  00010	5d		 pop	 ebp
  00011	c2 08 00	 ret	 8
?construct@?$allocator@UtagInventoryItemInfo@@@std@@QAEXPAUtagInventoryItemInfo@@ABU3@@Z ENDP ; std::allocator<tagInventoryItemInfo>::construct
_TEXT	ENDS
PUBLIC	??G?$_Vector_iterator@V?$_Vector_val@UtagInventoryItemInfo@@V?$allocator@UtagInventoryItemInfo@@@std@@@std@@@std@@QBEHABV?$_Vector_const_iterator@V?$_Vector_val@UtagInventoryItemInfo@@V?$allocator@UtagInventoryItemInfo@@@std@@@std@@@1@@Z ; std::_Vector_iterator<std::_Vector_val<tagInventoryItemInfo,std::allocator<tagInventoryItemInfo> > >::operator-
; Function compile flags: /Ogsp
; File c:\program files (x86)\microsoft visual studio 10.0\vc\include\vector
;	COMDAT ??G?$_Vector_iterator@V?$_Vector_val@UtagInventoryItemInfo@@V?$allocator@UtagInventoryItemInfo@@@std@@@std@@@std@@QBEHABV?$_Vector_const_iterator@V?$_Vector_val@UtagInventoryItemInfo@@V?$allocator@UtagInventoryItemInfo@@@std@@@std@@@1@@Z
_TEXT	SEGMENT
__Right$ = 8						; size = 4
??G?$_Vector_iterator@V?$_Vector_val@UtagInventoryItemInfo@@V?$allocator@UtagInventoryItemInfo@@@std@@@std@@@std@@QBEHABV?$_Vector_const_iterator@V?$_Vector_val@UtagInventoryItemInfo@@V?$allocator@UtagInventoryItemInfo@@@std@@@std@@@1@@Z PROC ; std::_Vector_iterator<std::_Vector_val<tagInventoryItemInfo,std::allocator<tagInventoryItemInfo> > >::operator-, COMDAT
; _this$ = ecx

; 380  : 		{	// return difference of iterators

  00000	55		 push	 ebp
  00001	8b ec		 mov	 ebp, esp

; 381  : 		return (*(_Mybase *)this - _Right);

  00003	8b 01		 mov	 eax, DWORD PTR [ecx]
  00005	8b 4d 08	 mov	 ecx, DWORD PTR __Right$[ebp]
  00008	2b 01		 sub	 eax, DWORD PTR [ecx]
  0000a	6a 48		 push	 72			; 00000048H
  0000c	99		 cdq
  0000d	59		 pop	 ecx
  0000e	f7 f9		 idiv	 ecx

; 382  : 		}

  00010	5d		 pop	 ebp
  00011	c2 04 00	 ret	 4
??G?$_Vector_iterator@V?$_Vector_val@UtagInventoryItemInfo@@V?$allocator@UtagInventoryItemInfo@@@std@@@std@@@std@@QBEHABV?$_Vector_const_iterator@V?$_Vector_val@UtagInventoryItemInfo@@V?$allocator@UtagInventoryItemInfo@@@std@@@std@@@1@@Z ENDP ; std::_Vector_iterator<std::_Vector_val<tagInventoryItemInfo,std::allocator<tagInventoryItemInfo> > >::operator-
_TEXT	ENDS
PUBLIC	??$_Unchecked@V?$_Vector_val@UtagInventoryItemInfo@@V?$allocator@UtagInventoryItemInfo@@@std@@@std@@@std@@YAPAUtagInventoryItemInfo@@V?$_Vector_iterator@V?$_Vector_val@UtagInventoryItemInfo@@V?$allocator@UtagInventoryItemInfo@@@std@@@std@@@0@@Z ; std::_Unchecked<std::_Vector_val<tagInventoryItemInfo,std::allocator<tagInventoryItemInfo> > >
; Function compile flags: /Ogsp
;	COMDAT ??$_Unchecked@V?$_Vector_val@UtagInventoryItemInfo@@V?$allocator@UtagInventoryItemInfo@@@std@@@std@@@std@@YAPAUtagInventoryItemInfo@@V?$_Vector_iterator@V?$_Vector_val@UtagInventoryItemInfo@@V?$allocator@UtagInventoryItemInfo@@@std@@@std@@@0@@Z
_TEXT	SEGMENT
__Iter$ = 8						; size = 4
??$_Unchecked@V?$_Vector_val@UtagInventoryItemInfo@@V?$allocator@UtagInventoryItemInfo@@@std@@@std@@@std@@YAPAUtagInventoryItemInfo@@V?$_Vector_iterator@V?$_Vector_val@UtagInventoryItemInfo@@V?$allocator@UtagInventoryItemInfo@@@std@@@std@@@0@@Z PROC ; std::_Unchecked<std::_Vector_val<tagInventoryItemInfo,std::allocator<tagInventoryItemInfo> > >, COMDAT

; 393  : 	{	// convert to unchecked

  00000	55		 push	 ebp
  00001	8b ec		 mov	 ebp, esp

; 394  : 	return (_Iter._Unchecked());

  00003	8b 45 08	 mov	 eax, DWORD PTR __Iter$[ebp]

; 395  : 	}

  00006	5d		 pop	 ebp
  00007	c3		 ret	 0
??$_Unchecked@V?$_Vector_val@UtagInventoryItemInfo@@V?$allocator@UtagInventoryItemInfo@@@std@@@std@@@std@@YAPAUtagInventoryItemInfo@@V?$_Vector_iterator@V?$_Vector_val@UtagInventoryItemInfo@@V?$allocator@UtagInventoryItemInfo@@@std@@@std@@@0@@Z ENDP ; std::_Unchecked<std::_Vector_val<tagInventoryItemInfo,std::allocator<tagInventoryItemInfo> > >
_TEXT	ENDS
PUBLIC	??$_Move@PAUtagInventoryItemInfo@@PAU1@@std@@YAPAUtagInventoryItemInfo@@PAU1@00U_Nonscalar_ptr_iterator_tag@0@@Z ; std::_Move<tagInventoryItemInfo *,tagInventoryItemInfo *>
; Function compile flags: /Ogsp
; File c:\program files (x86)\microsoft visual studio 10.0\vc\include\xutility
;	COMDAT ??$_Move@PAUtagInventoryItemInfo@@PAU1@@std@@YAPAUtagInventoryItemInfo@@PAU1@00U_Nonscalar_ptr_iterator_tag@0@@Z
_TEXT	SEGMENT
__First$ = 8						; size = 4
__Last$ = 12						; size = 4
__Dest$ = 16						; size = 4
___formal$ = 20						; size = 1
??$_Move@PAUtagInventoryItemInfo@@PAU1@@std@@YAPAUtagInventoryItemInfo@@PAU1@00U_Nonscalar_ptr_iterator_tag@0@@Z PROC ; std::_Move<tagInventoryItemInfo *,tagInventoryItemInfo *>, COMDAT

; 2512 : 	{	// move [_First, _Last) to [_Dest, ...), arbitrary iterators

  00000	55		 push	 ebp
  00001	8b ec		 mov	 ebp, esp
  00003	56		 push	 esi

; 2513 : 	for (; _First != _Last; ++_Dest, ++_First)

  00004	8b 75 08	 mov	 esi, DWORD PTR __First$[ebp]
  00007	eb 10		 jmp	 SHORT $LN11@Move
$LL3@Move:

; 2514 : 		*_Dest = _STD move(*_First);

  00009	8b 4d 10	 mov	 ecx, DWORD PTR __Dest$[ebp]
  0000c	56		 push	 esi
  0000d	e8 00 00 00 00	 call	 ??4tagInventoryItemInfo@@QAEAAU0@ABU0@@Z
  00012	83 45 10 48	 add	 DWORD PTR __Dest$[ebp], 72 ; 00000048H
  00016	83 c6 48	 add	 esi, 72			; 00000048H
$LN11@Move:

; 2513 : 	for (; _First != _Last; ++_Dest, ++_First)

  00019	3b 75 0c	 cmp	 esi, DWORD PTR __Last$[ebp]
  0001c	75 eb		 jne	 SHORT $LL3@Move

; 2515 : 	return (_Dest);

  0001e	8b 45 10	 mov	 eax, DWORD PTR __Dest$[ebp]
  00021	5e		 pop	 esi

; 2516 : 	}

  00022	5d		 pop	 ebp
  00023	c3		 ret	 0
??$_Move@PAUtagInventoryItemInfo@@PAU1@@std@@YAPAUtagInventoryItemInfo@@PAU1@00U_Nonscalar_ptr_iterator_tag@0@@Z ENDP ; std::_Move<tagInventoryItemInfo *,tagInventoryItemInfo *>
_TEXT	ENDS
PUBLIC	??$?0AAPAUtagInventoryItemInfo@@AAPAU0@@?$pair@PAUtagInventoryItemInfo@@PAU1@@std@@QAE@AAPAUtagInventoryItemInfo@@0@Z ; std::pair<tagInventoryItemInfo *,tagInventoryItemInfo *>::pair<tagInventoryItemInfo *,tagInventoryItemInfo *><tagInventoryItemInfo * &,tagInventoryItemInfo * &>
; Function compile flags: /Ogsp
; File c:\program files (x86)\microsoft visual studio 10.0\vc\include\utility
;	COMDAT ??$?0AAPAUtagInventoryItemInfo@@AAPAU0@@?$pair@PAUtagInventoryItemInfo@@PAU1@@std@@QAE@AAPAUtagInventoryItemInfo@@0@Z
_TEXT	SEGMENT
__Val1$ = 8						; size = 4
__Val2$ = 12						; size = 4
??$?0AAPAUtagInventoryItemInfo@@AAPAU0@@?$pair@PAUtagInventoryItemInfo@@PAU1@@std@@QAE@AAPAUtagInventoryItemInfo@@0@Z PROC ; std::pair<tagInventoryItemInfo *,tagInventoryItemInfo *>::pair<tagInventoryItemInfo *,tagInventoryItemInfo *><tagInventoryItemInfo * &,tagInventoryItemInfo * &>, COMDAT
; _this$ = ecx

; 247  : 		{	// construct from moved values

  00000	55		 push	 ebp
  00001	8b ec		 mov	 ebp, esp
  00003	8b c1		 mov	 eax, ecx
  00005	8b 4d 08	 mov	 ecx, DWORD PTR __Val1$[ebp]
  00008	8b 09		 mov	 ecx, DWORD PTR [ecx]
  0000a	89 08		 mov	 DWORD PTR [eax], ecx
  0000c	8b 4d 0c	 mov	 ecx, DWORD PTR __Val2$[ebp]
  0000f	8b 09		 mov	 ecx, DWORD PTR [ecx]
  00011	89 48 04	 mov	 DWORD PTR [eax+4], ecx

; 248  : 		}

  00014	5d		 pop	 ebp
  00015	c2 08 00	 ret	 8
??$?0AAPAUtagInventoryItemInfo@@AAPAU0@@?$pair@PAUtagInventoryItemInfo@@PAU1@@std@@QAE@AAPAUtagInventoryItemInfo@@0@Z ENDP ; std::pair<tagInventoryItemInfo *,tagInventoryItemInfo *>::pair<tagInventoryItemInfo *,tagInventoryItemInfo *><tagInventoryItemInfo * &,tagInventoryItemInfo * &>
_TEXT	ENDS
PUBLIC	??$_Destroy@UtagInventoryItemInfo@@@std@@YAXPAUtagInventoryItemInfo@@@Z ; std::_Destroy<tagInventoryItemInfo>
; Function compile flags: /Ogsp
; File c:\program files (x86)\microsoft visual studio 10.0\vc\include\xmemory
;	COMDAT ??$_Destroy@UtagInventoryItemInfo@@@std@@YAXPAUtagInventoryItemInfo@@@Z
_TEXT	SEGMENT
__Ptr$ = 8						; size = 4
??$_Destroy@UtagInventoryItemInfo@@@std@@YAXPAUtagInventoryItemInfo@@@Z PROC ; std::_Destroy<tagInventoryItemInfo>, COMDAT

; 62   : 	{	// destroy object at _Ptr

  00000	55		 push	 ebp
  00001	8b ec		 mov	 ebp, esp

; 63   : 	_Ptr->~_Ty();

  00003	8b 4d 08	 mov	 ecx, DWORD PTR __Ptr$[ebp]
  00006	83 c1 24	 add	 ecx, 36			; 00000024H

; 64   : 	}

  00009	5d		 pop	 ebp

; 63   : 	_Ptr->~_Ty();

  0000a	ff 25 00 00 00
	00		 jmp	 DWORD PTR __imp_??1ioHashString@@QAE@XZ
??$_Destroy@UtagInventoryItemInfo@@@std@@YAXPAUtagInventoryItemInfo@@@Z ENDP ; std::_Destroy<tagInventoryItemInfo>
_TEXT	ENDS
PUBLIC	?construct@?$allocator@UtagInventoryItemInfo@@@std@@QAEXPAUtagInventoryItemInfo@@$$QAU3@@Z ; std::allocator<tagInventoryItemInfo>::construct
;	COMDAT xdata$x
; File c:\program files (x86)\microsoft visual studio 10.0\vc\include\utility
xdata$x	SEGMENT
__unwindtable$?construct@?$allocator@UtagInventoryItemInfo@@@std@@QAEXPAUtagInventoryItemInfo@@$$QAU3@@Z DD 0ffffffffH
	DD	FLAT:__unwindfunclet$?construct@?$allocator@UtagInventoryItemInfo@@@std@@QAEXPAUtagInventoryItemInfo@@$$QAU3@@Z$0
__ehfuncinfo$?construct@?$allocator@UtagInventoryItemInfo@@@std@@QAEXPAUtagInventoryItemInfo@@$$QAU3@@Z DD 019930522H
	DD	01H
	DD	FLAT:__unwindtable$?construct@?$allocator@UtagInventoryItemInfo@@@std@@QAEXPAUtagInventoryItemInfo@@$$QAU3@@Z
	DD	2 DUP(00H)
	DD	2 DUP(00H)
	DD	00H
	DD	01H
; Function compile flags: /Ogsp
; File c:\program files (x86)\microsoft visual studio 10.0\vc\include\xmemory
xdata$x	ENDS
;	COMDAT ?construct@?$allocator@UtagInventoryItemInfo@@@std@@QAEXPAUtagInventoryItemInfo@@$$QAU3@@Z
_TEXT	SEGMENT
$T511416 = -16						; size = 4
__$EHRec$ = -12						; size = 12
__Ptr$ = 8						; size = 4
__Val$ = 12						; size = 4
?construct@?$allocator@UtagInventoryItemInfo@@@std@@QAEXPAUtagInventoryItemInfo@@$$QAU3@@Z PROC ; std::allocator<tagInventoryItemInfo>::construct, COMDAT
; _this$ = ecx

; 201  : 		{	// construct object at _Ptr with value _Val

  00000	6a 04		 push	 4
  00002	b8 00 00 00 00	 mov	 eax, __ehhandler$?construct@?$allocator@UtagInventoryItemInfo@@@std@@QAEXPAUtagInventoryItemInfo@@$$QAU3@@Z
  00007	e8 00 00 00 00	 call	 __EH_prolog3

; 202  : 		::new ((void _FARQ *)_Ptr) _Ty(_STD forward<_Ty>(_Val));

  0000c	8b 4d 08	 mov	 ecx, DWORD PTR __Ptr$[ebp]
  0000f	89 4d f0	 mov	 DWORD PTR $T511416[ebp], ecx
  00012	83 65 fc 00	 and	 DWORD PTR __$EHRec$[ebp+8], 0
  00016	85 c9		 test	 ecx, ecx
  00018	74 08		 je	 SHORT $LN3@construct@2
  0001a	ff 75 0c	 push	 DWORD PTR __Val$[ebp]
  0001d	e8 00 00 00 00	 call	 ??0tagInventoryItemInfo@@QAE@ABU0@@Z
$LN3@construct@2:

; 203  : 		}

  00022	e8 00 00 00 00	 call	 __EH_epilog3
  00027	c2 08 00	 ret	 8
_TEXT	ENDS
;	COMDAT text$x
text$x	SEGMENT
__unwindfunclet$?construct@?$allocator@UtagInventoryItemInfo@@@std@@QAEXPAUtagInventoryItemInfo@@$$QAU3@@Z$0:
  00000	ff 75 08	 push	 DWORD PTR __Ptr$[ebp]
  00003	ff 75 f0	 push	 DWORD PTR $T511416[ebp]
  00006	e8 00 00 00 00	 call	 ??3@YAXPAX0@Z		; operator delete
  0000b	59		 pop	 ecx
  0000c	59		 pop	 ecx
  0000d	c3		 ret	 0
__ehhandler$?construct@?$allocator@UtagInventoryItemInfo@@@std@@QAEXPAUtagInventoryItemInfo@@$$QAU3@@Z:
  0000e	8b 54 24 08	 mov	 edx, DWORD PTR [esp+8]
  00012	8d 42 0c	 lea	 eax, DWORD PTR [edx+12]
  00015	8b 4a ec	 mov	 ecx, DWORD PTR [edx-20]
  00018	33 c8		 xor	 ecx, eax
  0001a	e8 00 00 00 00	 call	 @__security_check_cookie@4
  0001f	b8 00 00 00 00	 mov	 eax, OFFSET __ehfuncinfo$?construct@?$allocator@UtagInventoryItemInfo@@@std@@QAEXPAUtagInventoryItemInfo@@$$QAU3@@Z
  00024	e9 00 00 00 00	 jmp	 ___CxxFrameHandler3
text$x	ENDS
?construct@?$allocator@UtagInventoryItemInfo@@@std@@QAEXPAUtagInventoryItemInfo@@$$QAU3@@Z ENDP ; std::allocator<tagInventoryItemInfo>::construct
PUBLIC	??$swap@UtagInventoryItemInfo@@@std@@YAXAAUtagInventoryItemInfo@@0@Z ; std::swap<tagInventoryItemInfo>
;	COMDAT xdata$x
; File d:\lost saga for developer\youtube\tutorial\source\src\lsclient\gui\tradeitemregisterwnd.cpp
xdata$x	SEGMENT
__unwindtable$??$swap@UtagInventoryItemInfo@@@std@@YAXAAUtagInventoryItemInfo@@0@Z DD 0ffffffffH
	DD	FLAT:__unwindfunclet$??$swap@UtagInventoryItemInfo@@@std@@YAXAAUtagInventoryItemInfo@@0@Z$0
__ehfuncinfo$??$swap@UtagInventoryItemInfo@@@std@@YAXAAUtagInventoryItemInfo@@0@Z DD 019930522H
	DD	01H
	DD	FLAT:__unwindtable$??$swap@UtagInventoryItemInfo@@@std@@YAXAAUtagInventoryItemInfo@@0@Z
	DD	2 DUP(00H)
	DD	2 DUP(00H)
	DD	00H
	DD	01H
; Function compile flags: /Ogsp
; File c:\program files (x86)\microsoft visual studio 10.0\vc\include\utility
xdata$x	ENDS
;	COMDAT ??$swap@UtagInventoryItemInfo@@@std@@YAXAAUtagInventoryItemInfo@@0@Z
_TEXT	SEGMENT
__Tmp$ = -84						; size = 72
__$EHRec$ = -12						; size = 12
__Left$ = 8						; size = 4
__Right$ = 12						; size = 4
??$swap@UtagInventoryItemInfo@@@std@@YAXAAUtagInventoryItemInfo@@0@Z PROC ; std::swap<tagInventoryItemInfo>, COMDAT

; 101  : 	{	// exchange values stored at _Left and _Right

  00000	6a 48		 push	 72			; 00000048H
  00002	b8 00 00 00 00	 mov	 eax, __ehhandler$??$swap@UtagInventoryItemInfo@@@std@@YAXAAUtagInventoryItemInfo@@0@Z
  00007	e8 00 00 00 00	 call	 __EH_prolog3

; 102  : 	_Ty _Tmp = _Move(_Left);

  0000c	ff 75 08	 push	 DWORD PTR __Left$[ebp]
  0000f	8d 4d ac	 lea	 ecx, DWORD PTR __Tmp$[ebp]
  00012	e8 00 00 00 00	 call	 ??0tagInventoryItemInfo@@QAE@ABU0@@Z

; 103  : 	_Left = _Move(_Right);

  00017	ff 75 0c	 push	 DWORD PTR __Right$[ebp]
  0001a	8b 4d 08	 mov	 ecx, DWORD PTR __Left$[ebp]
  0001d	83 65 fc 00	 and	 DWORD PTR __$EHRec$[ebp+8], 0
  00021	e8 00 00 00 00	 call	 ??4tagInventoryItemInfo@@QAEAAU0@ABU0@@Z

; 104  : 	_Right = _Move(_Tmp);

  00026	8b 4d 0c	 mov	 ecx, DWORD PTR __Right$[ebp]
  00029	8d 45 ac	 lea	 eax, DWORD PTR __Tmp$[ebp]
  0002c	50		 push	 eax
  0002d	e8 00 00 00 00	 call	 ??4tagInventoryItemInfo@@QAEAAU0@ABU0@@Z

; 105  : 	}

  00032	83 4d fc ff	 or	 DWORD PTR __$EHRec$[ebp+8], -1
  00036	8d 4d d0	 lea	 ecx, DWORD PTR __Tmp$[ebp+36]
  00039	ff 15 00 00 00
	00		 call	 DWORD PTR __imp_??1ioHashString@@QAE@XZ
  0003f	e8 00 00 00 00	 call	 __EH_epilog3
  00044	c3		 ret	 0
_TEXT	ENDS
;	COMDAT text$x
text$x	SEGMENT
__unwindfunclet$??$swap@UtagInventoryItemInfo@@@std@@YAXAAUtagInventoryItemInfo@@0@Z$0:
  00000	8d 4d ac	 lea	 ecx, DWORD PTR __Tmp$[ebp]
  00003	e9 00 00 00 00	 jmp	 ??1tagInventoryItemInfo@@QAE@XZ
__ehhandler$??$swap@UtagInventoryItemInfo@@@std@@YAXAAUtagInventoryItemInfo@@0@Z:
  00008	8b 54 24 08	 mov	 edx, DWORD PTR [esp+8]
  0000c	8d 42 0c	 lea	 eax, DWORD PTR [edx+12]
  0000f	8b 4a a8	 mov	 ecx, DWORD PTR [edx-88]
  00012	33 c8		 xor	 ecx, eax
  00014	e8 00 00 00 00	 call	 @__security_check_cookie@4
  00019	b8 00 00 00 00	 mov	 eax, OFFSET __ehfuncinfo$??$swap@UtagInventoryItemInfo@@@std@@YAXAAUtagInventoryItemInfo@@0@Z
  0001e	e9 00 00 00 00	 jmp	 ___CxxFrameHandler3
text$x	ENDS
??$swap@UtagInventoryItemInfo@@@std@@YAXAAUtagInventoryItemInfo@@0@Z ENDP ; std::swap<tagInventoryItemInfo>
PUBLIC	??$_Move_backward@PAUtagInventoryItemInfo@@PAU1@@std@@YAPAUtagInventoryItemInfo@@PAU1@00@Z ; std::_Move_backward<tagInventoryItemInfo *,tagInventoryItemInfo *>
; Function compile flags: /Ogsp
; File c:\program files (x86)\microsoft visual studio 10.0\vc\include\xutility
;	COMDAT ??$_Move_backward@PAUtagInventoryItemInfo@@PAU1@@std@@YAPAUtagInventoryItemInfo@@PAU1@00@Z
_TEXT	SEGMENT
__Cat$511460 = -4					; size = 1
__First$ = 8						; size = 4
__Last$ = 12						; size = 4
__Dest$ = 16						; size = 4
??$_Move_backward@PAUtagInventoryItemInfo@@PAU1@@std@@YAPAUtagInventoryItemInfo@@PAU1@00@Z PROC ; std::_Move_backward<tagInventoryItemInfo *,tagInventoryItemInfo *>, COMDAT

; 2638 : 	{	// move [_First, _Last) backwards to [..., _Dest), unchecked

  00000	55		 push	 ebp
  00001	8b ec		 mov	 ebp, esp
  00003	51		 push	 ecx

; 2639 : 	return (_Move_backward(_First, _Last,
; 2640 : 		_Dest, _Ptr_cat(_First, _Dest)));

  00004	ff 75 fc	 push	 DWORD PTR __Cat$511460[ebp]
  00007	ff 75 10	 push	 DWORD PTR __Dest$[ebp]
  0000a	ff 75 0c	 push	 DWORD PTR __Last$[ebp]
  0000d	ff 75 08	 push	 DWORD PTR __First$[ebp]
  00010	e8 00 00 00 00	 call	 ??$_Move_backward@PAUtagInventoryItemInfo@@PAU1@@std@@YAPAUtagInventoryItemInfo@@PAU1@00U_Nonscalar_ptr_iterator_tag@0@@Z ; std::_Move_backward<tagInventoryItemInfo *,tagInventoryItemInfo *>
  00015	83 c4 10	 add	 esp, 16			; 00000010H

; 2641 : 	}

  00018	c9		 leave
  00019	c3		 ret	 0
??$_Move_backward@PAUtagInventoryItemInfo@@PAU1@@std@@YAPAUtagInventoryItemInfo@@PAU1@00@Z ENDP ; std::_Move_backward<tagInventoryItemInfo *,tagInventoryItemInfo *>
_TEXT	ENDS
PUBLIC	??$_Push_heap@PAUtagInventoryItemInfo@@HU1@VInventoryItemInfoSort2@@@std@@YAXPAUtagInventoryItemInfo@@HH$$QAU1@VInventoryItemInfoSort2@@@Z ; std::_Push_heap<tagInventoryItemInfo *,int,tagInventoryItemInfo,InventoryItemInfoSort2>
; Function compile flags: /Ogsp
; File c:\program files (x86)\microsoft visual studio 10.0\vc\include\algorithm
;	COMDAT ??$_Push_heap@PAUtagInventoryItemInfo@@HU1@VInventoryItemInfoSort2@@@std@@YAXPAUtagInventoryItemInfo@@HH$$QAU1@VInventoryItemInfoSort2@@@Z
_TEXT	SEGMENT
__First$ = 8						; size = 4
__Hole$ = 12						; size = 4
__Top$ = 16						; size = 4
__Val$ = 20						; size = 4
__Pred$ = 24						; size = 1
??$_Push_heap@PAUtagInventoryItemInfo@@HU1@VInventoryItemInfoSort2@@@std@@YAXPAUtagInventoryItemInfo@@HH$$QAU1@VInventoryItemInfoSort2@@@Z PROC ; std::_Push_heap<tagInventoryItemInfo *,int,tagInventoryItemInfo,InventoryItemInfoSort2>, COMDAT

; 2455 : 	{	// percolate _Hole to _Top or where _Val belongs, using operator<

  00000	55		 push	 ebp
  00001	8b ec		 mov	 ebp, esp
  00003	56		 push	 esi
  00004	57		 push	 edi

; 2456 : 	for (_Diff _Idx = (_Hole - 1) / 2;

  00005	8b 7d 0c	 mov	 edi, DWORD PTR __Hole$[ebp]
  00008	8d 47 ff	 lea	 eax, DWORD PTR [edi-1]
  0000b	99		 cdq
  0000c	2b c2		 sub	 eax, edx
  0000e	8b f0		 mov	 esi, eax
  00010	d1 fe		 sar	 esi, 1

; 2457 : 		_Top < _Hole && _DEBUG_LT_PRED(_Pred, *(_First + _Idx), _Val);
; 2458 : 		_Idx = (_Hole - 1) / 2)

  00012	39 7d 10	 cmp	 DWORD PTR __Top$[ebp], edi
  00015	7d 39		 jge	 SHORT $LN1@Push_heap
  00017	53		 push	 ebx
$LL3@Push_heap:
  00018	ff 75 14	 push	 DWORD PTR __Val$[ebp]
  0001b	8b de		 mov	 ebx, esi
  0001d	6b db 48	 imul	 ebx, 72			; 00000048H
  00020	03 5d 08	 add	 ebx, DWORD PTR __First$[ebp]
  00023	8d 4d 18	 lea	 ecx, DWORD PTR __Pred$[ebp]
  00026	53		 push	 ebx
  00027	e8 00 00 00 00	 call	 ??RInventoryItemInfoSort2@@QBE_NABUtagInventoryItemInfo@@0@Z ; InventoryItemInfoSort2::operator()
  0002c	84 c0		 test	 al, al
  0002e	74 1f		 je	 SHORT $LN12@Push_heap

; 2459 : 		{	// move _Hole up to parent
; 2460 : 		*(_First + _Hole) = _Move(*(_First + _Idx));

  00030	8b cf		 mov	 ecx, edi
  00032	6b c9 48	 imul	 ecx, 72			; 00000048H
  00035	03 4d 08	 add	 ecx, DWORD PTR __First$[ebp]
  00038	53		 push	 ebx
  00039	e8 00 00 00 00	 call	 ??4tagInventoryItemInfo@@QAEAAU0@ABU0@@Z
  0003e	8d 46 ff	 lea	 eax, DWORD PTR [esi-1]
  00041	99		 cdq
  00042	2b c2		 sub	 eax, edx

; 2461 : 		_Hole = _Idx;

  00044	8b fe		 mov	 edi, esi
  00046	d1 f8		 sar	 eax, 1
  00048	8b f0		 mov	 esi, eax
  0004a	39 7d 10	 cmp	 DWORD PTR __Top$[ebp], edi
  0004d	7c c9		 jl	 SHORT $LL3@Push_heap
$LN12@Push_heap:
  0004f	5b		 pop	 ebx
$LN1@Push_heap:

; 2462 : 		}
; 2463 : 
; 2464 : 	*(_First + _Hole) = _Move(_Val);	// drop _Val into final hole

  00050	ff 75 14	 push	 DWORD PTR __Val$[ebp]
  00053	8b cf		 mov	 ecx, edi
  00055	6b c9 48	 imul	 ecx, 72			; 00000048H
  00058	03 4d 08	 add	 ecx, DWORD PTR __First$[ebp]
  0005b	e8 00 00 00 00	 call	 ??4tagInventoryItemInfo@@QAEAAU0@ABU0@@Z
  00060	5f		 pop	 edi
  00061	5e		 pop	 esi

; 2465 : 	}

  00062	5d		 pop	 ebp
  00063	c3		 ret	 0
??$_Push_heap@PAUtagInventoryItemInfo@@HU1@VInventoryItemInfoSort2@@@std@@YAXPAUtagInventoryItemInfo@@HH$$QAU1@VInventoryItemInfoSort2@@@Z ENDP ; std::_Push_heap<tagInventoryItemInfo *,int,tagInventoryItemInfo,InventoryItemInfoSort2>
_TEXT	ENDS
PUBLIC	??$_Push_heap@PAUtagInventoryItemInfo@@HU1@VInventoryItemInfoSort3@@@std@@YAXPAUtagInventoryItemInfo@@HH$$QAU1@VInventoryItemInfoSort3@@@Z ; std::_Push_heap<tagInventoryItemInfo *,int,tagInventoryItemInfo,InventoryItemInfoSort3>
; Function compile flags: /Ogsp
;	COMDAT ??$_Push_heap@PAUtagInventoryItemInfo@@HU1@VInventoryItemInfoSort3@@@std@@YAXPAUtagInventoryItemInfo@@HH$$QAU1@VInventoryItemInfoSort3@@@Z
_TEXT	SEGMENT
__First$ = 8						; size = 4
__Hole$ = 12						; size = 4
__Top$ = 16						; size = 4
__Val$ = 20						; size = 4
__Pred$ = 24						; size = 1
??$_Push_heap@PAUtagInventoryItemInfo@@HU1@VInventoryItemInfoSort3@@@std@@YAXPAUtagInventoryItemInfo@@HH$$QAU1@VInventoryItemInfoSort3@@@Z PROC ; std::_Push_heap<tagInventoryItemInfo *,int,tagInventoryItemInfo,InventoryItemInfoSort3>, COMDAT

; 2455 : 	{	// percolate _Hole to _Top or where _Val belongs, using operator<

  00000	55		 push	 ebp
  00001	8b ec		 mov	 ebp, esp
  00003	56		 push	 esi
  00004	57		 push	 edi

; 2456 : 	for (_Diff _Idx = (_Hole - 1) / 2;

  00005	8b 7d 0c	 mov	 edi, DWORD PTR __Hole$[ebp]
  00008	8d 47 ff	 lea	 eax, DWORD PTR [edi-1]
  0000b	99		 cdq
  0000c	2b c2		 sub	 eax, edx
  0000e	8b f0		 mov	 esi, eax
  00010	d1 fe		 sar	 esi, 1

; 2457 : 		_Top < _Hole && _DEBUG_LT_PRED(_Pred, *(_First + _Idx), _Val);
; 2458 : 		_Idx = (_Hole - 1) / 2)

  00012	39 7d 10	 cmp	 DWORD PTR __Top$[ebp], edi
  00015	7d 39		 jge	 SHORT $LN1@Push_heap@2
  00017	53		 push	 ebx
$LL3@Push_heap@2:
  00018	ff 75 14	 push	 DWORD PTR __Val$[ebp]
  0001b	8b de		 mov	 ebx, esi
  0001d	6b db 48	 imul	 ebx, 72			; 00000048H
  00020	03 5d 08	 add	 ebx, DWORD PTR __First$[ebp]
  00023	8d 4d 18	 lea	 ecx, DWORD PTR __Pred$[ebp]
  00026	53		 push	 ebx
  00027	e8 00 00 00 00	 call	 ??RInventoryItemInfoSort3@@QBE_NABUtagInventoryItemInfo@@0@Z ; InventoryItemInfoSort3::operator()
  0002c	84 c0		 test	 al, al
  0002e	74 1f		 je	 SHORT $LN12@Push_heap@2

; 2459 : 		{	// move _Hole up to parent
; 2460 : 		*(_First + _Hole) = _Move(*(_First + _Idx));

  00030	8b cf		 mov	 ecx, edi
  00032	6b c9 48	 imul	 ecx, 72			; 00000048H
  00035	03 4d 08	 add	 ecx, DWORD PTR __First$[ebp]
  00038	53		 push	 ebx
  00039	e8 00 00 00 00	 call	 ??4tagInventoryItemInfo@@QAEAAU0@ABU0@@Z
  0003e	8d 46 ff	 lea	 eax, DWORD PTR [esi-1]
  00041	99		 cdq
  00042	2b c2		 sub	 eax, edx

; 2461 : 		_Hole = _Idx;

  00044	8b fe		 mov	 edi, esi
  00046	d1 f8		 sar	 eax, 1
  00048	8b f0		 mov	 esi, eax
  0004a	39 7d 10	 cmp	 DWORD PTR __Top$[ebp], edi
  0004d	7c c9		 jl	 SHORT $LL3@Push_heap@2
$LN12@Push_heap@2:
  0004f	5b		 pop	 ebx
$LN1@Push_heap@2:

; 2462 : 		}
; 2463 : 
; 2464 : 	*(_First + _Hole) = _Move(_Val);	// drop _Val into final hole

  00050	ff 75 14	 push	 DWORD PTR __Val$[ebp]
  00053	8b cf		 mov	 ecx, edi
  00055	6b c9 48	 imul	 ecx, 72			; 00000048H
  00058	03 4d 08	 add	 ecx, DWORD PTR __First$[ebp]
  0005b	e8 00 00 00 00	 call	 ??4tagInventoryItemInfo@@QAEAAU0@ABU0@@Z
  00060	5f		 pop	 edi
  00061	5e		 pop	 esi

; 2465 : 	}

  00062	5d		 pop	 ebp
  00063	c3		 ret	 0
??$_Push_heap@PAUtagInventoryItemInfo@@HU1@VInventoryItemInfoSort3@@@std@@YAXPAUtagInventoryItemInfo@@HH$$QAU1@VInventoryItemInfoSort3@@@Z ENDP ; std::_Push_heap<tagInventoryItemInfo *,int,tagInventoryItemInfo,InventoryItemInfoSort3>
_TEXT	ENDS
PUBLIC	?IsEmpty@ioComplexStringPrinter@@QBE_NXZ	; ioComplexStringPrinter::IsEmpty
; Function compile flags: /Ogsp
; File d:\lost saga for developer\youtube\tutorial\source\src\lsclient\iocomplexstringprinter.h
;	COMDAT ?IsEmpty@ioComplexStringPrinter@@QBE_NXZ
_TEXT	SEGMENT
?IsEmpty@ioComplexStringPrinter@@QBE_NXZ PROC		; ioComplexStringPrinter::IsEmpty, COMDAT
; _this$ = ecx

; 124  : 	inline bool IsEmpty() const { return m_vPieceList.empty(); }

  00000	8b 41 0c	 mov	 eax, DWORD PTR [ecx+12]
  00003	2b 41 10	 sub	 eax, DWORD PTR [ecx+16]
  00006	f7 d8		 neg	 eax
  00008	1b c0		 sbb	 eax, eax
  0000a	40		 inc	 eax
  0000b	c3		 ret	 0
?IsEmpty@ioComplexStringPrinter@@QBE_NXZ ENDP		; ioComplexStringPrinter::IsEmpty
_TEXT	ENDS
PUBLIC	??0EXTRAITEMSLOT@@QAE@XZ			; EXTRAITEMSLOT::EXTRAITEMSLOT
;	COMDAT xdata$x
; File d:\lost saga for developer\youtube\tutorial\source\src\lsclient\iouserextraitem.h
xdata$x	SEGMENT
__unwindtable$??0EXTRAITEMSLOT@@QAE@XZ DD 0ffffffffH
	DD	FLAT:__unwindfunclet$??0EXTRAITEMSLOT@@QAE@XZ$0
__ehfuncinfo$??0EXTRAITEMSLOT@@QAE@XZ DD 019930522H
	DD	01H
	DD	FLAT:__unwindtable$??0EXTRAITEMSLOT@@QAE@XZ
	DD	2 DUP(00H)
	DD	2 DUP(00H)
	DD	00H
	DD	01H
; Function compile flags: /Ogsp
xdata$x	ENDS
;	COMDAT ??0EXTRAITEMSLOT@@QAE@XZ
_TEXT	SEGMENT
_this$ = -16						; size = 4
__$EHRec$ = -12						; size = 12
??0EXTRAITEMSLOT@@QAE@XZ PROC				; EXTRAITEMSLOT::EXTRAITEMSLOT, COMDAT
; _this$ = ecx

; 43   : 	EXTRAITEMSLOT()

  00000	6a 04		 push	 4
  00002	b8 00 00 00 00	 mov	 eax, __ehhandler$??0EXTRAITEMSLOT@@QAE@XZ
  00007	e8 00 00 00 00	 call	 __EH_prolog3
  0000c	8b f1		 mov	 esi, ecx
  0000e	89 75 f0	 mov	 DWORD PTR _this$[ebp], esi
  00011	8b 3d 00 00 00
	00		 mov	 edi, DWORD PTR __imp_??0ioHashString@@QAE@XZ
  00017	8d 4e 28	 lea	 ecx, DWORD PTR [esi+40]
  0001a	ff d7		 call	 edi
  0001c	83 65 fc 00	 and	 DWORD PTR __$EHRec$[ebp+8], 0
  00020	8d 4e 38	 lea	 ecx, DWORD PTR [esi+56]
  00023	ff d7		 call	 edi

; 44   : 	{
; 45   : 		Init();

  00025	8b ce		 mov	 ecx, esi
  00027	e8 00 00 00 00	 call	 ?Init@EXTRAITEMSLOT@@QAEXXZ ; EXTRAITEMSLOT::Init

; 46   : 	}

  0002c	8b c6		 mov	 eax, esi
  0002e	e8 00 00 00 00	 call	 __EH_epilog3
  00033	c3		 ret	 0
_TEXT	ENDS
;	COMDAT text$x
text$x	SEGMENT
__unwindfunclet$??0EXTRAITEMSLOT@@QAE@XZ$0:
  00000	8b 4d f0	 mov	 ecx, DWORD PTR _this$[ebp]
  00003	83 c1 28	 add	 ecx, 40			; 00000028H
  00006	ff 25 00 00 00
	00		 jmp	 DWORD PTR __imp_??1ioHashString@@QAE@XZ
__ehhandler$??0EXTRAITEMSLOT@@QAE@XZ:
  0000c	8b 54 24 08	 mov	 edx, DWORD PTR [esp+8]
  00010	8d 42 0c	 lea	 eax, DWORD PTR [edx+12]
  00013	8b 4a ec	 mov	 ecx, DWORD PTR [edx-20]
  00016	33 c8		 xor	 ecx, eax
  00018	e8 00 00 00 00	 call	 @__security_check_cookie@4
  0001d	b8 00 00 00 00	 mov	 eax, OFFSET __ehfuncinfo$??0EXTRAITEMSLOT@@QAE@XZ
  00022	e9 00 00 00 00	 jmp	 ___CxxFrameHandler3
text$x	ENDS
??0EXTRAITEMSLOT@@QAE@XZ ENDP				; EXTRAITEMSLOT::EXTRAITEMSLOT
PUBLIC	??0tagInventoryItemInfo@@QAE@XZ			; tagInventoryItemInfo::tagInventoryItemInfo
; Function compile flags: /Ogsp
; File d:\lost saga for developer\youtube\tutorial\source\src\lsclient\gui\myinventorywnd.h
;	COMDAT ??0tagInventoryItemInfo@@QAE@XZ
_TEXT	SEGMENT
??0tagInventoryItemInfo@@QAE@XZ PROC			; tagInventoryItemInfo::tagInventoryItemInfo, COMDAT
; _this$ = ecx

; 121  : 	tagInventoryItemInfo()

  00000	56		 push	 esi
  00001	8b f1		 mov	 esi, ecx
  00003	8d 4e 24	 lea	 ecx, DWORD PTR [esi+36]
  00006	ff 15 00 00 00
	00		 call	 DWORD PTR __imp_??0ioHashString@@QAE@XZ

; 122  : 	{
; 123  : 		Init();

  0000c	8b ce		 mov	 ecx, esi
  0000e	e8 00 00 00 00	 call	 ?Init@tagInventoryItemInfo@@QAEXXZ ; tagInventoryItemInfo::Init

; 124  : 	}

  00013	8b c6		 mov	 eax, esi
  00015	5e		 pop	 esi
  00016	c3		 ret	 0
??0tagInventoryItemInfo@@QAE@XZ ENDP			; tagInventoryItemInfo::tagInventoryItemInfo
_TEXT	ENDS
PUBLIC	??B?$CEncrypt@H@@QBEHXZ				; CEncrypt<int>::operator int
; Function compile flags: /Ogsp
; File d:\lost saga for developer\youtube\tutorial\source\src\lsclient\encryptvalue.h
;	COMDAT ??B?$CEncrypt@H@@QBEHXZ
_TEXT	SEGMENT
_value$ = -4						; size = 4
??B?$CEncrypt@H@@QBEHXZ PROC				; CEncrypt<int>::operator int, COMDAT
; _this$ = ecx

; 145  : 	{

  00000	55		 push	 ebp
  00001	8b ec		 mov	 ebp, esp
  00003	51		 push	 ecx

; 146  : 		//UJ 130829, const    --start
; 147  : 		type value;
; 148  : 		CEncrypt<type>* pThis = const_cast<CEncrypt<type>*>(this);
; 149  : 		pThis->DecryptValueToPool(&value);

  00004	8d 45 fc	 lea	 eax, DWORD PTR _value$[ebp]
  00007	50		 push	 eax
  00008	e8 00 00 00 00	 call	 ?DecryptValueToPool@?$CEncrypt@H@@QAEXPAH@Z ; CEncrypt<int>::DecryptValueToPool

; 150  : 		//// const DecryptValueToPool     .
; 151  :  		//type value;
; 152  : 		//char szTempMem[MAX_ENCRYPT];
; 153  : 		//m_RC5.DecryptByte( m_MemPool, szTempMem, max(m_ValueSize, DEFAULT_ENCRYPT) );
; 154  : 		//memcpy( &value, szTempMem, m_ValueSize );
; 155  : 		//UJ --end
; 156  : 
; 157  : #ifdef _NOTUSE
; 158  : 		Debug();
; 159  : #endif
; 160  : 		return value;

  0000d	8b 45 fc	 mov	 eax, DWORD PTR _value$[ebp]

; 161  : 	}

  00010	c9		 leave
  00011	c3		 ret	 0
??B?$CEncrypt@H@@QBEHXZ ENDP				; CEncrypt<int>::operator int
_TEXT	ENDS
PUBLIC	??B?$CEncrypt@_J@@QBE_JXZ			; CEncrypt<__int64>::operator __int64
; Function compile flags: /Ogsp
;	COMDAT ??B?$CEncrypt@_J@@QBE_JXZ
_TEXT	SEGMENT
_value$ = -8						; size = 8
??B?$CEncrypt@_J@@QBE_JXZ PROC				; CEncrypt<__int64>::operator __int64, COMDAT
; _this$ = ecx

; 145  : 	{

  00000	55		 push	 ebp
  00001	8b ec		 mov	 ebp, esp
  00003	51		 push	 ecx
  00004	51		 push	 ecx

; 146  : 		//UJ 130829, const    --start
; 147  : 		type value;
; 148  : 		CEncrypt<type>* pThis = const_cast<CEncrypt<type>*>(this);
; 149  : 		pThis->DecryptValueToPool(&value);

  00005	8d 45 f8	 lea	 eax, DWORD PTR _value$[ebp]
  00008	50		 push	 eax
  00009	e8 00 00 00 00	 call	 ?DecryptValueToPool@?$CEncrypt@_J@@QAEXPA_J@Z ; CEncrypt<__int64>::DecryptValueToPool

; 150  : 		//// const DecryptValueToPool     .
; 151  :  		//type value;
; 152  : 		//char szTempMem[MAX_ENCRYPT];
; 153  : 		//m_RC5.DecryptByte( m_MemPool, szTempMem, max(m_ValueSize, DEFAULT_ENCRYPT) );
; 154  : 		//memcpy( &value, szTempMem, m_ValueSize );
; 155  : 		//UJ --end
; 156  : 
; 157  : #ifdef _NOTUSE
; 158  : 		Debug();
; 159  : #endif
; 160  : 		return value;

  0000e	8b 45 f8	 mov	 eax, DWORD PTR _value$[ebp]
  00011	8b 55 fc	 mov	 edx, DWORD PTR _value$[ebp+4]

; 161  : 	}

  00014	c9		 leave
  00015	c3		 ret	 0
??B?$CEncrypt@_J@@QBE_JXZ ENDP				; CEncrypt<__int64>::operator __int64
_TEXT	ENDS
PUBLIC	_szType$GSCopy$
PUBLIC	_pFrame$GSCopy$
PUBLIC	_this$GSCopy$
PUBLIC	__$ArrayPad$
EXTRN	__imp_?AddRenderFrame@ioWnd@@UAEXABVioHashString@@PAVioUIRenderFrame@@@Z:PROC
; Function compile flags: /Ogsp
; File d:\lost saga for developer\youtube\tutorial\source\src\lsclient\gui\tradeitemregisterwnd.cpp
;	COMDAT ?AddRenderFrame@TradeItemRegisterConfirmWnd@@MAEXABVioHashString@@PAVioUIRenderFrame@@@Z
_TEXT	SEGMENT
_szType$GSCopy$ = -32					; size = 4
_pFrame$GSCopy$ = -28					; size = 4
_this$GSCopy$ = -24					; size = 4
__t$511719 = -20					; size = 7
__t$511546 = -20					; size = 9
__$ArrayPad$ = -4					; size = 4
_szType$ = 8						; size = 4
_pFrame$ = 12						; size = 4
?AddRenderFrame@TradeItemRegisterConfirmWnd@@MAEXABVioHashString@@PAVioUIRenderFrame@@@Z PROC ; TradeItemRegisterConfirmWnd::AddRenderFrame, COMDAT
; _this$ = ecx

; 75   : {

  00000	55		 push	 ebp
  00001	8b ec		 mov	 ebp, esp
  00003	83 ec 20	 sub	 esp, 32			; 00000020H
  00006	a1 00 00 00 00	 mov	 eax, DWORD PTR ___security_cookie
  0000b	33 c5		 xor	 eax, ebp
  0000d	89 45 fc	 mov	 DWORD PTR __$ArrayPad$[ebp], eax
  00010	8b 45 0c	 mov	 eax, DWORD PTR _pFrame$[ebp]
  00013	8b 55 08	 mov	 edx, DWORD PTR _szType$[ebp]
  00016	56		 push	 esi
  00017	57		 push	 edi

; 76   : 	if( szType == "PriceFrm" )

  00018	6a 02		 push	 2
  0001a	89 4d e8	 mov	 DWORD PTR _this$GSCopy$[ebp], ecx

; 82   : 	{
; 83   : 		SAFEDELETE( m_pTexFrm );

  0001d	89 45 e4	 mov	 DWORD PTR _pFrame$GSCopy$[ebp], eax
  00020	89 55 e0	 mov	 DWORD PTR _szType$GSCopy$[ebp], edx
  00023	c7 45 ec bd 9e
	82 89		 mov	 DWORD PTR __t$511546[ebp], -1987928387 ; 89829ebdH
  0002a	c7 45 f0 88 aa
	99 87		 mov	 DWORD PTR __t$511546[ebp+4], -2019972472 ; 8799aa88H
  00031	8d 45 ec	 lea	 eax, DWORD PTR __t$511546[ebp]
  00034	c6 45 f4 00	 mov	 BYTE PTR __t$511546[ebp+8], 0
  00038	59		 pop	 ecx
  00039	bf ed ec eb ea	 mov	 edi, -353637139		; eaebecedH
$LL116@AddRenderF:

; 76   : 	if( szType == "PriceFrm" )

  0003e	31 38		 xor	 DWORD PTR [eax], edi
  00040	83 c0 04	 add	 eax, 4
  00043	49		 dec	 ecx
  00044	75 f8		 jne	 SHORT $LL116@AddRenderF
  00046	8b ca		 mov	 ecx, edx
  00048	8d 75 ec	 lea	 esi, DWORD PTR __t$511546[ebp]
  0004b	ff 15 00 00 00
	00		 call	 DWORD PTR __imp_?c_str@ioHashString@@QBEPBDXZ
$LL234@AddRenderF:
  00051	8a 08		 mov	 cl, BYTE PTR [eax]
  00053	3a 0e		 cmp	 cl, BYTE PTR [esi]
  00055	75 1a		 jne	 SHORT $LN235@AddRenderF
  00057	84 c9		 test	 cl, cl
  00059	74 12		 je	 SHORT $LN236@AddRenderF
  0005b	8a 48 01	 mov	 cl, BYTE PTR [eax+1]
  0005e	3a 4e 01	 cmp	 cl, BYTE PTR [esi+1]
  00061	75 0e		 jne	 SHORT $LN235@AddRenderF
  00063	83 c0 02	 add	 eax, 2
  00066	83 c6 02	 add	 esi, 2
  00069	84 c9		 test	 cl, cl
  0006b	75 e4		 jne	 SHORT $LL234@AddRenderF
$LN236@AddRenderF:
  0006d	33 c0		 xor	 eax, eax
  0006f	eb 05		 jmp	 SHORT $LN237@AddRenderF
$LN235@AddRenderF:
  00071	1b c0		 sbb	 eax, eax
  00073	83 d8 ff	 sbb	 eax, -1
$LN237@AddRenderF:
  00076	85 c0		 test	 eax, eax
  00078	75 29		 jne	 SHORT $LN233@AddRenderF

; 77   : 	{
; 78   : 		SAFEDELETE( m_pEditFrm );

  0007a	8b 75 e8	 mov	 esi, DWORD PTR _this$GSCopy$[ebp]
  0007d	8b 8e 10 02 00
	00		 mov	 ecx, DWORD PTR [esi+528]
  00083	85 c9		 test	 ecx, ecx
  00085	74 0e		 je	 SHORT $LN5@AddRenderF
  00087	8b 01		 mov	 eax, DWORD PTR [ecx]
  00089	6a 01		 push	 1
  0008b	ff 50 40	 call	 DWORD PTR [eax+64]
  0008e	83 a6 10 02 00
	00 00		 and	 DWORD PTR [esi+528], 0
$LN5@AddRenderF:

; 79   : 		m_pEditFrm = pFrame;

  00095	8b 45 e4	 mov	 eax, DWORD PTR _pFrame$GSCopy$[ebp]
  00098	89 86 10 02 00
	00		 mov	 DWORD PTR [esi+528], eax
  0009e	e9 9e 00 00 00	 jmp	 $LN1@AddRenderF
$LN233@AddRenderF:

; 80   : 	}
; 81   : 	else if( szType == "TexFrm" )

  000a3	6a 04		 push	 4
  000a5	c7 45 ec b9 89
	93 ac		 mov	 DWORD PTR __t$511719[ebp], -1399617095 ; ac9389b9H
  000ac	31 7d ec	 xor	 DWORD PTR __t$511719[ebp], edi
  000af	66 c7 45 f0 9f
	81		 mov	 WORD PTR __t$511719[ebp+4], 33183 ; 0000819fH
  000b5	c6 45 f2 00	 mov	 BYTE PTR __t$511719[ebp+6], 0
  000b9	58		 pop	 eax
$LL219@AddRenderF:
  000ba	8b c8		 mov	 ecx, eax
  000bc	81 e1 03 00 00
	80		 and	 ecx, -2147483645	; 80000003H
  000c2	79 05		 jns	 SHORT $LN242@AddRenderF
  000c4	49		 dec	 ecx
  000c5	83 c9 fc	 or	 ecx, -4			; fffffffcH
  000c8	41		 inc	 ecx
$LN242@AddRenderF:
  000c9	b2 ed		 mov	 dl, -19			; ffffffedH
  000cb	2a d1		 sub	 dl, cl
  000cd	30 54 05 ec	 xor	 BYTE PTR __t$511719[ebp+eax], dl
  000d1	40		 inc	 eax
  000d2	83 f8 06	 cmp	 eax, 6
  000d5	7c e3		 jl	 SHORT $LL219@AddRenderF
  000d7	8b 4d e0	 mov	 ecx, DWORD PTR _szType$GSCopy$[ebp]
  000da	8d 75 ec	 lea	 esi, DWORD PTR __t$511719[ebp]
  000dd	ff 15 00 00 00
	00		 call	 DWORD PTR __imp_?c_str@ioHashString@@QBEPBDXZ
$LL238@AddRenderF:
  000e3	8a 08		 mov	 cl, BYTE PTR [eax]
  000e5	3a 0e		 cmp	 cl, BYTE PTR [esi]
  000e7	75 1a		 jne	 SHORT $LN239@AddRenderF
  000e9	84 c9		 test	 cl, cl
  000eb	74 12		 je	 SHORT $LN240@AddRenderF
  000ed	8a 48 01	 mov	 cl, BYTE PTR [eax+1]
  000f0	3a 4e 01	 cmp	 cl, BYTE PTR [esi+1]
  000f3	75 0e		 jne	 SHORT $LN239@AddRenderF
  000f5	83 c0 02	 add	 eax, 2
  000f8	83 c6 02	 add	 esi, 2
  000fb	84 c9		 test	 cl, cl
  000fd	75 e4		 jne	 SHORT $LL238@AddRenderF
$LN240@AddRenderF:
  000ff	33 c0		 xor	 eax, eax
  00101	eb 05		 jmp	 SHORT $LN241@AddRenderF
$LN239@AddRenderF:
  00103	1b c0		 sbb	 eax, eax
  00105	83 d8 ff	 sbb	 eax, -1
$LN241@AddRenderF:
  00108	85 c0		 test	 eax, eax
  0010a	75 26		 jne	 SHORT $LN3@AddRenderF

; 82   : 	{
; 83   : 		SAFEDELETE( m_pTexFrm );

  0010c	8b 75 e8	 mov	 esi, DWORD PTR _this$GSCopy$[ebp]
  0010f	8b 8e 14 02 00
	00		 mov	 ecx, DWORD PTR [esi+532]
  00115	85 c9		 test	 ecx, ecx
  00117	74 0e		 je	 SHORT $LN2@AddRenderF
  00119	8b 01		 mov	 eax, DWORD PTR [ecx]
  0011b	6a 01		 push	 1
  0011d	ff 50 40	 call	 DWORD PTR [eax+64]
  00120	83 a6 14 02 00
	00 00		 and	 DWORD PTR [esi+532], 0
$LN2@AddRenderF:

; 84   : 		m_pTexFrm = pFrame;

  00127	8b 45 e4	 mov	 eax, DWORD PTR _pFrame$GSCopy$[ebp]
  0012a	89 86 14 02 00
	00		 mov	 DWORD PTR [esi+532], eax

; 85   : 	}
; 86   : 	else

  00130	eb 0f		 jmp	 SHORT $LN1@AddRenderF
$LN3@AddRenderF:

; 87   : 	{
; 88   : 		ioMovingWnd::AddRenderFrame( szType, pFrame );

  00132	ff 75 e4	 push	 DWORD PTR _pFrame$GSCopy$[ebp]
  00135	8b 4d e8	 mov	 ecx, DWORD PTR _this$GSCopy$[ebp]
  00138	ff 75 e0	 push	 DWORD PTR _szType$GSCopy$[ebp]
  0013b	ff 15 00 00 00
	00		 call	 DWORD PTR __imp_?AddRenderFrame@ioWnd@@UAEXABVioHashString@@PAVioUIRenderFrame@@@Z
$LN1@AddRenderF:

; 89   : 	}
; 90   : }

  00141	8b 4d fc	 mov	 ecx, DWORD PTR __$ArrayPad$[ebp]
  00144	5f		 pop	 edi
  00145	33 cd		 xor	 ecx, ebp
  00147	5e		 pop	 esi
  00148	e8 00 00 00 00	 call	 @__security_check_cookie@4
  0014d	c9		 leave
  0014e	c2 08 00	 ret	 8
?AddRenderFrame@TradeItemRegisterConfirmWnd@@MAEXABVioHashString@@PAVioUIRenderFrame@@@Z ENDP ; TradeItemRegisterConfirmWnd::AddRenderFrame
_TEXT	ENDS
PUBLIC	__real@3f19999a
PUBLIC	??_C@_0CG@PCPPNLCN@TradeItemRegisterConfirmWnd?3?3OnR@ ; `string'
PUBLIC	__real@4059000000000000
PUBLIC	_this$GSCopy$
EXTRN	?AddTextPiece@ioComplexStringPrinter@@QAEXMPBDM@Z:PROC ; ioComplexStringPrinter::AddTextPiece
EXTRN	__imp__atoi:PROC
EXTRN	__imp_?GetText@ioEdit@@QBEPBDXZ:PROC
EXTRN	__ftol2:PROC
;	COMDAT __real@3f19999a
; File d:\lost saga for developer\youtube\tutorial\source\src\lsclient\tradeinfomanager.h
CONST	SEGMENT
__real@3f19999a DD 03f19999ar			; 0.6
CONST	ENDS
;	COMDAT ??_C@_0CG@PCPPNLCN@TradeItemRegisterConfirmWnd?3?3OnR@
CONST	SEGMENT
??_C@_0CG@PCPPNLCN@TradeItemRegisterConfirmWnd?3?3OnR@ DB 'TradeItemRegis'
	DB	'terConfirmWnd::OnRender', 00H		; `string'
CONST	ENDS
;	COMDAT __real@4059000000000000
CONST	SEGMENT
__real@4059000000000000 DQ 04059000000000000r	; 100
CONST	ENDS
;	COMDAT xdata$x
xdata$x	SEGMENT
__unwindtable$?OnRender@TradeItemRegisterConfirmWnd@@MAEXXZ DD 0ffffffffH
	DD	FLAT:__unwindfunclet$?OnRender@TradeItemRegisterConfirmWnd@@MAEXXZ$0
__ehfuncinfo$?OnRender@TradeItemRegisterConfirmWnd@@MAEXXZ DD 019930522H
	DD	01H
	DD	FLAT:__unwindtable$?OnRender@TradeItemRegisterConfirmWnd@@MAEXXZ
	DD	2 DUP(00H)
	DD	2 DUP(00H)
	DD	00H
	DD	01H
; Function compile flags: /Ogsp
; File d:\lost saga for developer\youtube\tutorial\source\src\lsclient\gui\tradeitemregisterwnd.cpp
xdata$x	ENDS
;	COMDAT ?OnRender@TradeItemRegisterConfirmWnd@@MAEXXZ
_TEXT	SEGMENT
tv254 = -332						; size = 4
_iTempPrice$ = -328					; size = 4
_this$GSCopy$ = -324					; size = 4
_iXPos$ = -320						; size = 4
_kPrinter$ = -316					; size = 32
tv789 = -284						; size = 4
tv782 = -284						; size = 4
tv682 = -284						; size = 4
$T511859 = -284						; size = 4
_pEdit$ = -284						; size = 4
_iYPos$ = -280						; size = 4
_szPeso$ = -276						; size = 260
__$EHRec$ = -12						; size = 12
?OnRender@TradeItemRegisterConfirmWnd@@MAEXXZ PROC	; TradeItemRegisterConfirmWnd::OnRender, COMDAT
; _this$ = ecx

; 221  : {

  00000	68 40 01 00 00	 push	 320			; 00000140H
  00005	b8 00 00 00 00	 mov	 eax, __ehhandler$?OnRender@TradeItemRegisterConfirmWnd@@MAEXXZ
  0000a	e8 00 00 00 00	 call	 __EH_prolog3_GS
  0000f	8b f1		 mov	 esi, ecx

; 222  : 	int iXPos = GetDerivedPosX();

  00011	89 b5 bc fe ff
	ff		 mov	 DWORD PTR _this$GSCopy$[ebp], esi
  00017	ff 15 00 00 00
	00		 call	 DWORD PTR __imp_?GetDerivedPosX@ioWnd@@QBEHXZ
  0001d	8b f8		 mov	 edi, eax

; 223  : 	int iYPos = GetDerivedPosY();

  0001f	8b ce		 mov	 ecx, esi
  00021	89 bd c0 fe ff
	ff		 mov	 DWORD PTR _iXPos$[ebp], edi
  00027	ff 15 00 00 00
	00		 call	 DWORD PTR __imp_?GetDerivedPosY@ioWnd@@QBEHXZ

; 224  : 
; 225  : 	ioMovingWnd::OnRender();

  0002d	8b ce		 mov	 ecx, esi
  0002f	89 85 e8 fe ff
	ff		 mov	 DWORD PTR _iYPos$[ebp], eax
  00035	ff 15 00 00 00
	00		 call	 DWORD PTR __imp_?OnRender@ioWnd@@MAEXXZ

; 226  : 
; 227  : 	enum
; 228  : 	{
; 229  : 		MAIN_TEXT_X		= 103,
; 230  : 		MAIN_TEXT_Y		= 149,
; 231  : 
; 232  : 		PRICE_TEXT_X	= 14,
; 233  : 		PRICE_TEXT_Y	= 219,
; 234  : 
; 235  : 		PRICE_X			= 189,
; 236  : 		PRICE_Y			= 221,
; 237  : 
; 238  : 		ETC_TEXT_X		= 103,
; 239  : 		ETC_TEXT_Y		= 269,
; 240  : 	};
; 241  : 
; 242  : 	if( !m_szDescArray[0].IsEmpty() )

  0003b	8b 8e b8 01 00
	00		 mov	 ecx, DWORD PTR [esi+440]

; 243  : 		m_szDescArray[0].PrintFullText( iXPos+MAIN_TEXT_X, iYPos+MAIN_TEXT_Y, TAT_CENTER );

  00041	bb ff 00 00 00	 mov	 ebx, 255		; 000000ffH
  00046	3b 8e bc 01 00
	00		 cmp	 ecx, DWORD PTR [esi+444]
  0004c	74 37		 je	 SHORT $LN11@OnRender@2
  0004e	8b 85 e8 fe ff
	ff		 mov	 eax, DWORD PTR _iYPos$[ebp]
  00054	53		 push	 ebx
  00055	6a 01		 push	 1
  00057	51		 push	 ecx
  00058	05 95 00 00 00	 add	 eax, 149		; 00000095H
  0005d	0f 57 c0	 xorps	 xmm0, xmm0
  00060	f3 0f 2a c0	 cvtsi2ss xmm0, eax
  00064	51		 push	 ecx
  00065	f3 0f 11 44 24
	04		 movss	 DWORD PTR [esp+4], xmm0
  0006b	8d 47 67	 lea	 eax, DWORD PTR [edi+103]
  0006e	0f 57 c0	 xorps	 xmm0, xmm0
  00071	f3 0f 2a c0	 cvtsi2ss xmm0, eax
  00075	8d 8e ac 01 00
	00		 lea	 ecx, DWORD PTR [esi+428]
  0007b	f3 0f 11 04 24	 movss	 DWORD PTR [esp], xmm0
  00080	e8 00 00 00 00	 call	 ?PrintFullText@ioComplexStringPrinter@@QAEXMMW4TextAlignType@@E@Z ; ioComplexStringPrinter::PrintFullText
$LN11@OnRender@2:

; 244  : 
; 245  : 	if( !m_szDescArray[1].IsEmpty() )

  00085	8b 8e d8 01 00
	00		 mov	 ecx, DWORD PTR [esi+472]
  0008b	3b 8e dc 01 00
	00		 cmp	 ecx, DWORD PTR [esi+476]
  00091	74 37		 je	 SHORT $LN10@OnRender@2

; 246  : 		m_szDescArray[1].PrintFullText( iXPos+MAIN_TEXT_X, iYPos+MAIN_TEXT_Y+21, TAT_CENTER );

  00093	8b 85 e8 fe ff
	ff		 mov	 eax, DWORD PTR _iYPos$[ebp]
  00099	53		 push	 ebx
  0009a	6a 01		 push	 1
  0009c	51		 push	 ecx
  0009d	05 aa 00 00 00	 add	 eax, 170		; 000000aaH
  000a2	0f 57 c0	 xorps	 xmm0, xmm0
  000a5	f3 0f 2a c0	 cvtsi2ss xmm0, eax
  000a9	51		 push	 ecx
  000aa	f3 0f 11 44 24
	04		 movss	 DWORD PTR [esp+4], xmm0
  000b0	8d 47 67	 lea	 eax, DWORD PTR [edi+103]
  000b3	0f 57 c0	 xorps	 xmm0, xmm0
  000b6	f3 0f 2a c0	 cvtsi2ss xmm0, eax
  000ba	8d 8e cc 01 00
	00		 lea	 ecx, DWORD PTR [esi+460]
  000c0	f3 0f 11 04 24	 movss	 DWORD PTR [esp], xmm0
  000c5	e8 00 00 00 00	 call	 ?PrintFullText@ioComplexStringPrinter@@QAEXMMW4TextAlignType@@E@Z ; ioComplexStringPrinter::PrintFullText
$LN10@OnRender@2:

; 247  : 
; 248  : 	if( !m_szDescArray[2].IsEmpty() )

  000ca	8b 8e f8 01 00
	00		 mov	 ecx, DWORD PTR [esi+504]
  000d0	3b 8e fc 01 00
	00		 cmp	 ecx, DWORD PTR [esi+508]
  000d6	74 37		 je	 SHORT $LN9@OnRender@2

; 249  : 		m_szDescArray[2].PrintFullText( iXPos+MAIN_TEXT_X, iYPos+MAIN_TEXT_Y+41, TAT_CENTER );

  000d8	8b 85 e8 fe ff
	ff		 mov	 eax, DWORD PTR _iYPos$[ebp]
  000de	53		 push	 ebx
  000df	6a 01		 push	 1
  000e1	51		 push	 ecx
  000e2	05 be 00 00 00	 add	 eax, 190		; 000000beH
  000e7	0f 57 c0	 xorps	 xmm0, xmm0
  000ea	f3 0f 2a c0	 cvtsi2ss xmm0, eax
  000ee	51		 push	 ecx
  000ef	f3 0f 11 44 24
	04		 movss	 DWORD PTR [esp+4], xmm0
  000f5	8d 47 67	 lea	 eax, DWORD PTR [edi+103]
  000f8	0f 57 c0	 xorps	 xmm0, xmm0
  000fb	f3 0f 2a c0	 cvtsi2ss xmm0, eax
  000ff	8d 8e ec 01 00
	00		 lea	 ecx, DWORD PTR [esi+492]
  00105	f3 0f 11 04 24	 movss	 DWORD PTR [esp], xmm0
  0010a	e8 00 00 00 00	 call	 ?PrintFullText@ioComplexStringPrinter@@QAEXMMW4TextAlignType@@E@Z ; ioComplexStringPrinter::PrintFullText
$LN9@OnRender@2:

; 250  : 
; 251  : 	if( m_pEditFrm )

  0010f	8b 8e 10 02 00
	00		 mov	 ecx, DWORD PTR [esi+528]
  00115	33 db		 xor	 ebx, ebx
  00117	3b cb		 cmp	 ecx, ebx
  00119	74 32		 je	 SHORT $LN8@OnRender@2

; 252  : 		m_pEditFrm->Render( iXPos+102, iYPos+214 );

  0011b	8b 95 e8 fe ff
	ff		 mov	 edx, DWORD PTR _iYPos$[ebp]
  00121	8b 01		 mov	 eax, DWORD PTR [ecx]
  00123	53		 push	 ebx
  00124	53		 push	 ebx
  00125	53		 push	 ebx
  00126	53		 push	 ebx
  00127	81 c2 d6 00 00
	00		 add	 edx, 214		; 000000d6H
  0012d	0f 57 c0	 xorps	 xmm0, xmm0
  00130	f3 0f 2a c2	 cvtsi2ss xmm0, edx
  00134	51		 push	 ecx
  00135	51		 push	 ecx
  00136	f3 0f 11 44 24
	04		 movss	 DWORD PTR [esp+4], xmm0
  0013c	8d 57 66	 lea	 edx, DWORD PTR [edi+102]
  0013f	0f 57 c0	 xorps	 xmm0, xmm0
  00142	f3 0f 2a c2	 cvtsi2ss xmm0, edx
  00146	f3 0f 11 04 24	 movss	 DWORD PTR [esp], xmm0
  0014b	ff 10		 call	 DWORD PTR [eax]
$LN8@OnRender@2:

; 253  : 
; 254  : 	if( m_pTexFrm )

  0014d	8b 8e 14 02 00
	00		 mov	 ecx, DWORD PTR [esi+532]
  00153	3b cb		 cmp	 ecx, ebx
  00155	74 33		 je	 SHORT $LN7@OnRender@2

; 255  : 		m_pTexFrm->Render( iXPos+102, iYPos+238, UI_RENDER_MULTIPLY );

  00157	8b 95 e8 fe ff
	ff		 mov	 edx, DWORD PTR _iYPos$[ebp]
  0015d	8b 01		 mov	 eax, DWORD PTR [ecx]
  0015f	53		 push	 ebx
  00160	53		 push	 ebx
  00161	53		 push	 ebx
  00162	6a 08		 push	 8
  00164	0f 57 c0	 xorps	 xmm0, xmm0
  00167	51		 push	 ecx
  00168	81 c2 ee 00 00
	00		 add	 edx, 238		; 000000eeH
  0016e	f3 0f 2a c2	 cvtsi2ss xmm0, edx
  00172	51		 push	 ecx
  00173	f3 0f 11 44 24
	04		 movss	 DWORD PTR [esp+4], xmm0
  00179	83 c7 66	 add	 edi, 102		; 00000066H
  0017c	0f 57 c0	 xorps	 xmm0, xmm0
  0017f	f3 0f 2a c7	 cvtsi2ss xmm0, edi
  00183	f3 0f 11 04 24	 movss	 DWORD PTR [esp], xmm0
  00188	ff 10		 call	 DWORD PTR [eax]
$LN7@OnRender@2:

; 256  : 
; 257  : 	int iTempPrice = 0;
; 258  : 
; 259  : 	m_iPrice = 0;
; 260  : 	m_iTexPrice = 0;
; 261  : 	m_fTexRate = 0;

  0018a	0f 57 c0	 xorps	 xmm0, xmm0
  0018d	89 9d b8 fe ff
	ff		 mov	 DWORD PTR _iTempPrice$[ebp], ebx
  00193	89 9e 98 01 00
	00		 mov	 DWORD PTR [esi+408], ebx
  00199	89 9e 9c 01 00
	00		 mov	 DWORD PTR [esi+412], ebx
  0019f	89 9e a0 01 00
	00		 mov	 DWORD PTR [esi+416], ebx
  001a5	89 9e a4 01 00
	00		 mov	 DWORD PTR [esi+420], ebx
  001ab	f3 0f 11 86 a8
	01 00 00	 movss	 DWORD PTR [esi+424], xmm0

; 262  : 
; 263  : 	if( g_MyInfo.GetPCRoomAuthority()  && !g_MyInfo.IsUserEvent())

  001b3	e8 00 00 00 00	 call	 ?GetSingleton@ioMyInfo@@SAAAV1@XZ ; ioMyInfo::GetSingleton
  001b8	39 98 34 08 00
	00		 cmp	 DWORD PTR [eax+2100], ebx
  001be	74 19		 je	 SHORT $LN6@OnRender@2
  001c0	e8 00 00 00 00	 call	 ?GetSingleton@ioMyInfo@@SAAAV1@XZ ; ioMyInfo::GetSingleton
  001c5	38 98 39 08 00
	00		 cmp	 BYTE PTR [eax+2105], bl
  001cb	75 0c		 jne	 SHORT $LN6@OnRender@2

; 264  : 		m_fTexRate = 100.0f * g_TradeInfoMgr.GetPCRoomRegisterTexRate();

  001cd	e8 00 00 00 00	 call	 ?GetSingleton@TradeInfoManager@@SAAAV1@XZ ; TradeInfoManager::GetSingleton
  001d2	f3 0f 10 40 78	 movss	 xmm0, DWORD PTR [eax+120]

; 265  : 	else

  001d7	eb 0a		 jmp	 SHORT $LN48@OnRender@2
$LN6@OnRender@2:

; 266  : 		m_fTexRate = 100.0f * g_TradeInfoMgr.GetRegisterTexRate();

  001d9	e8 00 00 00 00	 call	 ?GetSingleton@TradeInfoManager@@SAAAV1@XZ ; TradeInfoManager::GetSingleton
  001de	f3 0f 10 40 70	 movss	 xmm0, DWORD PTR [eax+112]
$LN48@OnRender@2:
  001e3	0f 5a c0	 cvtps2pd xmm0, xmm0
  001e6	f2 0f 59 05 00
	00 00 00	 mulsd	 xmm0, QWORD PTR __real@4059000000000000
  001ee	66 0f 5a c0	 cvtpd2ps xmm0, xmm0

; 267  : 
; 268  : 	ioEdit *pEdit = (ioEdit*)FindChildWnd( ID_PRICE_EDIT );

  001f2	6a 05		 push	 5
  001f4	8b ce		 mov	 ecx, esi
  001f6	f3 0f 11 86 a8
	01 00 00	 movss	 DWORD PTR [esi+424], xmm0
  001fe	ff 15 00 00 00
	00		 call	 DWORD PTR __imp_?FindChildWnd@ioWnd@@QAEPAV1@K@Z
  00204	8b c8		 mov	 ecx, eax
  00206	89 8d e4 fe ff
	ff		 mov	 DWORD PTR _pEdit$[ebp], ecx

; 269  : 	if( pEdit )

  0020c	3b cb		 cmp	 ecx, ebx
  0020e	0f 84 90 00 00
	00		 je	 $LN1@OnRender@2

; 270  : 	{
; 271  : 		if( strlen( pEdit->GetText() ) > 0 )

  00214	ff 15 00 00 00
	00		 call	 DWORD PTR __imp_?GetText@ioEdit@@QBEPBDXZ
  0021a	8d 50 01	 lea	 edx, DWORD PTR [eax+1]
$LL45@OnRender@2:
  0021d	8a 08		 mov	 cl, BYTE PTR [eax]
  0021f	40		 inc	 eax
  00220	3a cb		 cmp	 cl, bl
  00222	75 f9		 jne	 SHORT $LL45@OnRender@2
  00224	2b c2		 sub	 eax, edx
  00226	74 7c		 je	 SHORT $LN1@OnRender@2

; 272  : 		{
; 273  : 			iTempPrice = atoi( pEdit->GetText() );

  00228	8b 8d e4 fe ff
	ff		 mov	 ecx, DWORD PTR _pEdit$[ebp]
  0022e	ff 15 00 00 00
	00		 call	 DWORD PTR __imp_?GetText@ioEdit@@QBEPBDXZ
  00234	50		 push	 eax
  00235	ff 15 00 00 00
	00		 call	 DWORD PTR __imp__atoi
  0023b	89 85 b8 fe ff
	ff		 mov	 DWORD PTR _iTempPrice$[ebp], eax

; 274  : 			m_iPrice = iTempPrice * 10000;

  00241	69 c0 10 27 00
	00		 imul	 eax, 10000		; 00002710H
  00247	99		 cdq
  00248	59		 pop	 ecx
  00249	89 86 98 01 00
	00		 mov	 DWORD PTR [esi+408], eax
  0024f	89 96 9c 01 00
	00		 mov	 DWORD PTR [esi+412], edx

; 275  : 
; 276  : 			if( g_MyInfo.GetPCRoomAuthority() && !g_MyInfo.IsUserEvent() )

  00255	e8 00 00 00 00	 call	 ?GetSingleton@ioMyInfo@@SAAAV1@XZ ; ioMyInfo::GetSingleton
  0025a	39 98 34 08 00
	00		 cmp	 DWORD PTR [eax+2100], ebx
  00260	74 17		 je	 SHORT $LN2@OnRender@2
  00262	e8 00 00 00 00	 call	 ?GetSingleton@ioMyInfo@@SAAAV1@XZ ; ioMyInfo::GetSingleton
  00267	38 98 39 08 00
	00		 cmp	 BYTE PTR [eax+2105], bl
  0026d	75 0a		 jne	 SHORT $LN2@OnRender@2

; 277  : 				m_iTexPrice = m_iPrice * g_TradeInfoMgr.GetPCRoomRegisterTexRate();

  0026f	e8 00 00 00 00	 call	 ?GetSingleton@TradeInfoManager@@SAAAV1@XZ ; TradeInfoManager::GetSingleton
  00274	d9 40 78	 fld	 DWORD PTR [eax+120]

; 278  : 			else

  00277	eb 08		 jmp	 SHORT $LN49@OnRender@2
$LN2@OnRender@2:

; 279  : 				m_iTexPrice = m_iPrice * g_TradeInfoMgr.GetRegisterTexRate();

  00279	e8 00 00 00 00	 call	 ?GetSingleton@TradeInfoManager@@SAAAV1@XZ ; TradeInfoManager::GetSingleton
  0027e	d9 40 70	 fld	 DWORD PTR [eax+112]
$LN49@OnRender@2:
  00281	d9 9d e4 fe ff
	ff		 fstp	 DWORD PTR $T511859[ebp]
  00287	df ae 98 01 00
	00		 fild	 QWORD PTR [esi+408]
  0028d	d8 8d e4 fe ff
	ff		 fmul	 DWORD PTR $T511859[ebp]
  00293	e8 00 00 00 00	 call	 __ftol2
  00298	89 96 a4 01 00
	00		 mov	 DWORD PTR [esi+420], edx
  0029e	89 86 a0 01 00
	00		 mov	 DWORD PTR [esi+416], eax
$LN1@OnRender@2:

; 280  : 		}
; 281  : 	}
; 282  : 
; 283  : 	char szPeso[MAX_PATH]="";

  002a4	68 03 01 00 00	 push	 259			; 00000103H
  002a9	8d 85 ed fe ff
	ff		 lea	 eax, DWORD PTR _szPeso$[ebp+1]
  002af	53		 push	 ebx
  002b0	50		 push	 eax
  002b1	88 9d ec fe ff
	ff		 mov	 BYTE PTR _szPeso$[ebp], bl
  002b7	e8 00 00 00 00	 call	 _memset
  002bc	83 c4 0c	 add	 esp, 12			; 0000000cH

; 284  : 
; 285  : 	ioComplexStringPrinter kPrinter;

  002bf	8d 8d c4 fe ff
	ff		 lea	 ecx, DWORD PTR _kPrinter$[ebp]
  002c5	e8 00 00 00 00	 call	 ??0ioComplexStringPrinter@@QAE@XZ ; ioComplexStringPrinter::ioComplexStringPrinter

; 286  : 	kPrinter.SetTextStyle( TS_NORMAL );

  002ca	53		 push	 ebx
  002cb	8d 8d c4 fe ff
	ff		 lea	 ecx, DWORD PTR _kPrinter$[ebp]
  002d1	89 5d fc	 mov	 DWORD PTR __$EHRec$[ebp+8], ebx
  002d4	e8 00 00 00 00	 call	 ?SetTextStyle@ioComplexStringPrinter@@QAEXW4TextStyle@@@Z ; ioComplexStringPrinter::SetTextStyle

; 287  : 	kPrinter.SetBkColor( 0, 0, 0 );

  002d9	53		 push	 ebx
  002da	53		 push	 ebx
  002db	53		 push	 ebx
  002dc	8d 8d c4 fe ff
	ff		 lea	 ecx, DWORD PTR _kPrinter$[ebp]
  002e2	e8 00 00 00 00	 call	 ?SetBkColor@ioComplexStringPrinter@@QAEXHHH@Z ; ioComplexStringPrinter::SetBkColor

; 288  : 	kPrinter.SetTextColor( TCT_DEFAULT_DARKGRAY );

  002e7	68 3a 3a 3a ff	 push	 -12961222		; ff3a3a3aH
  002ec	8d 8d c4 fe ff
	ff		 lea	 ecx, DWORD PTR _kPrinter$[ebp]
  002f2	e8 00 00 00 00	 call	 ?SetTextColor@ioComplexStringPrinter@@QAEXK@Z ; ioComplexStringPrinter::SetTextColor

; 289  : 	kPrinter.AddTextPiece( FONT_SIZE_12, STR(1) );

  002f7	8b 35 00 00 00
	00		 mov	 esi, DWORD PTR __imp_?GetSingleton@ioStringManager@@SAAAV1@XZ
  002fd	53		 push	 ebx
  002fe	6a 01		 push	 1
  00300	68 00 00 00 00	 push	 OFFSET ??_C@_00CNPNBAHC@?$AA@
  00305	68 00 00 00 00	 push	 OFFSET ??_C@_0CG@PCPPNLCN@TradeItemRegisterConfirmWnd?3?3OnR@
  0030a	ff d6		 call	 esi
  0030c	8b 3d 00 00 00
	00		 mov	 edi, DWORD PTR __imp_?GetString@ioStringManager@@QAEPADPBD0HW4FileNamePrefix@1@@Z
  00312	8b c8		 mov	 ecx, eax
  00314	ff d7		 call	 edi
  00316	f3 0f 10 05 00
	00 00 00	 movss	 xmm0, DWORD PTR __real@3f19999a
  0031e	50		 push	 eax
  0031f	51		 push	 ecx
  00320	8d 85 c4 fe ff
	ff		 lea	 eax, DWORD PTR _kPrinter$[ebp]
  00326	f3 0f 11 04 24	 movss	 DWORD PTR [esp], xmm0
  0032b	50		 push	 eax
  0032c	e8 00 00 00 00	 call	 ?AddTextPiece@ioComplexStringPrinter@@QAAXMPBDZZ ; ioComplexStringPrinter::AddTextPiece

; 290  : 	kPrinter.PrintFullText( iXPos+PRICE_TEXT_X, iYPos+PRICE_TEXT_Y, TAT_LEFT );

  00331	8b 85 c0 fe ff
	ff		 mov	 eax, DWORD PTR _iXPos$[ebp]
  00337	83 c4 0c	 add	 esp, 12			; 0000000cH
  0033a	83 c0 0e	 add	 eax, 14			; 0000000eH
  0033d	68 ff 00 00 00	 push	 255			; 000000ffH
  00342	0f 57 c0	 xorps	 xmm0, xmm0
  00345	f3 0f 2a c0	 cvtsi2ss xmm0, eax
  00349	8b 85 e8 fe ff
	ff		 mov	 eax, DWORD PTR _iYPos$[ebp]
  0034f	53		 push	 ebx
  00350	51		 push	 ecx
  00351	51		 push	 ecx
  00352	05 db 00 00 00	 add	 eax, 219		; 000000dbH
  00357	0f 57 c9	 xorps	 xmm1, xmm1
  0035a	f3 0f 2a c8	 cvtsi2ss xmm1, eax
  0035e	f3 0f 11 4c 24
	04		 movss	 DWORD PTR [esp+4], xmm1
  00364	8d 8d c4 fe ff
	ff		 lea	 ecx, DWORD PTR _kPrinter$[ebp]
  0036a	f3 0f 11 85 e4
	fe ff ff	 movss	 DWORD PTR tv782[ebp], xmm0
  00372	f3 0f 11 04 24	 movss	 DWORD PTR [esp], xmm0
  00377	e8 00 00 00 00	 call	 ?PrintFullText@ioComplexStringPrinter@@QAEXMMW4TextAlignType@@E@Z ; ioComplexStringPrinter::PrintFullText

; 291  : 	kPrinter.ClearList();

  0037c	8d 8d c4 fe ff
	ff		 lea	 ecx, DWORD PTR _kPrinter$[ebp]
  00382	e8 00 00 00 00	 call	 ?ClearList@ioComplexStringPrinter@@QAEXXZ ; ioComplexStringPrinter::ClearList

; 292  : 
; 293  : 	kPrinter.SetTextStyle( TS_NORMAL );

  00387	53		 push	 ebx
  00388	8d 8d c4 fe ff
	ff		 lea	 ecx, DWORD PTR _kPrinter$[ebp]
  0038e	e8 00 00 00 00	 call	 ?SetTextStyle@ioComplexStringPrinter@@QAEXW4TextStyle@@@Z ; ioComplexStringPrinter::SetTextStyle

; 294  : 	kPrinter.SetBkColor( 0, 0, 0 );

  00393	53		 push	 ebx
  00394	53		 push	 ebx
  00395	53		 push	 ebx
  00396	8d 8d c4 fe ff
	ff		 lea	 ecx, DWORD PTR _kPrinter$[ebp]
  0039c	e8 00 00 00 00	 call	 ?SetBkColor@ioComplexStringPrinter@@QAEXHHH@Z ; ioComplexStringPrinter::SetBkColor

; 295  : 	kPrinter.SetTextColor( TCT_DEFAULT_DARKGRAY );

  003a1	68 3a 3a 3a ff	 push	 -12961222		; ff3a3a3aH
  003a6	8d 8d c4 fe ff
	ff		 lea	 ecx, DWORD PTR _kPrinter$[ebp]
  003ac	e8 00 00 00 00	 call	 ?SetTextColor@ioComplexStringPrinter@@QAEXK@Z ; ioComplexStringPrinter::SetTextColor

; 296  : 	kPrinter.AddTextPiece( FONT_SIZE_12, STR(1), m_fTexRate );

  003b1	8b 85 bc fe ff
	ff		 mov	 eax, DWORD PTR _this$GSCopy$[ebp]
  003b7	f3 0f 10 80 a8
	01 00 00	 movss	 xmm0, DWORD PTR [eax+424]
  003bf	51		 push	 ecx
  003c0	f3 0f 11 04 24	 movss	 DWORD PTR [esp], xmm0
  003c5	53		 push	 ebx
  003c6	6a 01		 push	 1
  003c8	68 00 00 00 00	 push	 OFFSET ??_C@_00CNPNBAHC@?$AA@
  003cd	68 00 00 00 00	 push	 OFFSET ??_C@_0CG@PCPPNLCN@TradeItemRegisterConfirmWnd?3?3OnR@
  003d2	ff d6		 call	 esi
  003d4	8b c8		 mov	 ecx, eax
  003d6	ff d7		 call	 edi
  003d8	50		 push	 eax
  003d9	f3 0f 10 05 00
	00 00 00	 movss	 xmm0, DWORD PTR __real@3f19999a
  003e1	51		 push	 ecx
  003e2	8d 8d c4 fe ff
	ff		 lea	 ecx, DWORD PTR _kPrinter$[ebp]
  003e8	f3 0f 11 04 24	 movss	 DWORD PTR [esp], xmm0
  003ed	e8 00 00 00 00	 call	 ?AddTextPiece@ioComplexStringPrinter@@QAEXMPBDM@Z ; ioComplexStringPrinter::AddTextPiece

; 297  : 	kPrinter.PrintFullText( iXPos+PRICE_TEXT_X, iYPos+PRICE_TEXT_Y+24, TAT_LEFT );

  003f2	8b 85 e8 fe ff
	ff		 mov	 eax, DWORD PTR _iYPos$[ebp]
  003f8	68 ff 00 00 00	 push	 255			; 000000ffH
  003fd	53		 push	 ebx
  003fe	51		 push	 ecx
  003ff	51		 push	 ecx
  00400	05 f3 00 00 00	 add	 eax, 243		; 000000f3H
  00405	0f 57 c0	 xorps	 xmm0, xmm0
  00408	f3 0f 2a c0	 cvtsi2ss xmm0, eax
  0040c	f3 0f 11 44 24
	04		 movss	 DWORD PTR [esp+4], xmm0
  00412	f3 0f 10 85 e4
	fe ff ff	 movss	 xmm0, DWORD PTR tv782[ebp]
  0041a	8d 8d c4 fe ff
	ff		 lea	 ecx, DWORD PTR _kPrinter$[ebp]
  00420	f3 0f 11 04 24	 movss	 DWORD PTR [esp], xmm0
  00425	e8 00 00 00 00	 call	 ?PrintFullText@ioComplexStringPrinter@@QAEXMMW4TextAlignType@@E@Z ; ioComplexStringPrinter::PrintFullText

; 298  : 	kPrinter.ClearList();

  0042a	8d 8d c4 fe ff
	ff		 lea	 ecx, DWORD PTR _kPrinter$[ebp]
  00430	e8 00 00 00 00	 call	 ?ClearList@ioComplexStringPrinter@@QAEXXZ ; ioComplexStringPrinter::ClearList

; 299  : 
; 300  : 	Help::ConvertNumToStrComma( iTempPrice, szPeso, sizeof( szPeso ) );

  00435	68 04 01 00 00	 push	 260			; 00000104H
  0043a	8d 85 ec fe ff
	ff		 lea	 eax, DWORD PTR _szPeso$[ebp]
  00440	50		 push	 eax
  00441	ff b5 b8 fe ff
	ff		 push	 DWORD PTR _iTempPrice$[ebp]
  00447	e8 00 00 00 00	 call	 ?ConvertNumToStrComma@Help@@YAXHPADH@Z ; Help::ConvertNumToStrComma
  0044c	83 c4 0c	 add	 esp, 12			; 0000000cH

; 301  : 	kPrinter.SetTextStyle( TS_NORMAL );

  0044f	53		 push	 ebx
  00450	8d 8d c4 fe ff
	ff		 lea	 ecx, DWORD PTR _kPrinter$[ebp]
  00456	e8 00 00 00 00	 call	 ?SetTextStyle@ioComplexStringPrinter@@QAEXW4TextStyle@@@Z ; ioComplexStringPrinter::SetTextStyle

; 302  : 	kPrinter.SetBkColor( 0, 0, 0 );

  0045b	53		 push	 ebx
  0045c	53		 push	 ebx
  0045d	53		 push	 ebx
  0045e	8d 8d c4 fe ff
	ff		 lea	 ecx, DWORD PTR _kPrinter$[ebp]
  00464	e8 00 00 00 00	 call	 ?SetBkColor@ioComplexStringPrinter@@QAEXHHH@Z ; ioComplexStringPrinter::SetBkColor

; 303  : 	kPrinter.SetTextColor( TCT_DEFAULT_BLUE );

  00469	68 b2 46 16 ff	 push	 -15317326		; ff1646b2H
  0046e	8d 8d c4 fe ff
	ff		 lea	 ecx, DWORD PTR _kPrinter$[ebp]
  00474	e8 00 00 00 00	 call	 ?SetTextColor@ioComplexStringPrinter@@QAEXK@Z ; ioComplexStringPrinter::SetTextColor

; 304  : 	kPrinter.AddTextPiece( FONT_SIZE_12, STR(3), szPeso );

  00479	8d 85 ec fe ff
	ff		 lea	 eax, DWORD PTR _szPeso$[ebp]
  0047f	50		 push	 eax
  00480	53		 push	 ebx
  00481	6a 03		 push	 3
  00483	68 00 00 00 00	 push	 OFFSET ??_C@_00CNPNBAHC@?$AA@
  00488	68 00 00 00 00	 push	 OFFSET ??_C@_0CG@PCPPNLCN@TradeItemRegisterConfirmWnd?3?3OnR@
  0048d	ff d6		 call	 esi
  0048f	8b c8		 mov	 ecx, eax
  00491	ff d7		 call	 edi
  00493	f3 0f 10 05 00
	00 00 00	 movss	 xmm0, DWORD PTR __real@3f19999a
  0049b	50		 push	 eax
  0049c	51		 push	 ecx
  0049d	8d 8d c4 fe ff
	ff		 lea	 ecx, DWORD PTR _kPrinter$[ebp]
  004a3	f3 0f 11 04 24	 movss	 DWORD PTR [esp], xmm0
  004a8	e8 00 00 00 00	 call	 ?AddTextPiece@ioComplexStringPrinter@@QAEXMPBD0@Z ; ioComplexStringPrinter::AddTextPiece

; 305  : 	kPrinter.PrintFullText( iXPos+PRICE_X, iYPos+PRICE_Y, TAT_RIGHT );

  004ad	8b 85 c0 fe ff
	ff		 mov	 eax, DWORD PTR _iXPos$[ebp]
  004b3	05 bd 00 00 00	 add	 eax, 189		; 000000bdH
  004b8	68 ff 00 00 00	 push	 255			; 000000ffH
  004bd	0f 57 c0	 xorps	 xmm0, xmm0
  004c0	f3 0f 2a c0	 cvtsi2ss xmm0, eax
  004c4	8b 85 e8 fe ff
	ff		 mov	 eax, DWORD PTR _iYPos$[ebp]
  004ca	6a 02		 push	 2
  004cc	51		 push	 ecx
  004cd	51		 push	 ecx
  004ce	05 dd 00 00 00	 add	 eax, 221		; 000000ddH
  004d3	0f 57 c9	 xorps	 xmm1, xmm1
  004d6	f3 0f 2a c8	 cvtsi2ss xmm1, eax
  004da	f3 0f 11 4c 24
	04		 movss	 DWORD PTR [esp+4], xmm1
  004e0	8d 8d c4 fe ff
	ff		 lea	 ecx, DWORD PTR _kPrinter$[ebp]
  004e6	f3 0f 11 85 e4
	fe ff ff	 movss	 DWORD PTR tv789[ebp], xmm0
  004ee	f3 0f 11 04 24	 movss	 DWORD PTR [esp], xmm0
  004f3	e8 00 00 00 00	 call	 ?PrintFullText@ioComplexStringPrinter@@QAEXMMW4TextAlignType@@E@Z ; ioComplexStringPrinter::PrintFullText

; 306  : 	kPrinter.ClearList();

  004f8	8d 8d c4 fe ff
	ff		 lea	 ecx, DWORD PTR _kPrinter$[ebp]
  004fe	e8 00 00 00 00	 call	 ?ClearList@ioComplexStringPrinter@@QAEXXZ ; ioComplexStringPrinter::ClearList

; 307  : 
; 308  : 	Help::ConvertNumToStrComma( m_iTexPrice, szPeso, sizeof( szPeso ) );

  00503	68 04 01 00 00	 push	 260			; 00000104H
  00508	8d 85 ec fe ff
	ff		 lea	 eax, DWORD PTR _szPeso$[ebp]
  0050e	50		 push	 eax
  0050f	8b 85 bc fe ff
	ff		 mov	 eax, DWORD PTR _this$GSCopy$[ebp]
  00515	ff b0 a0 01 00
	00		 push	 DWORD PTR [eax+416]
  0051b	e8 00 00 00 00	 call	 ?ConvertNumToStrComma@Help@@YAXHPADH@Z ; Help::ConvertNumToStrComma
  00520	83 c4 0c	 add	 esp, 12			; 0000000cH

; 309  : 	kPrinter.SetTextStyle( TS_NORMAL );

  00523	53		 push	 ebx
  00524	8d 8d c4 fe ff
	ff		 lea	 ecx, DWORD PTR _kPrinter$[ebp]
  0052a	e8 00 00 00 00	 call	 ?SetTextStyle@ioComplexStringPrinter@@QAEXW4TextStyle@@@Z ; ioComplexStringPrinter::SetTextStyle

; 310  : 	kPrinter.SetBkColor( 0, 0, 0 );

  0052f	53		 push	 ebx
  00530	53		 push	 ebx
  00531	53		 push	 ebx
  00532	8d 8d c4 fe ff
	ff		 lea	 ecx, DWORD PTR _kPrinter$[ebp]
  00538	e8 00 00 00 00	 call	 ?SetBkColor@ioComplexStringPrinter@@QAEXHHH@Z ; ioComplexStringPrinter::SetBkColor

; 311  : 	kPrinter.SetTextColor( TCT_DEFAULT_BLUE );

  0053d	68 b2 46 16 ff	 push	 -15317326		; ff1646b2H
  00542	8d 8d c4 fe ff
	ff		 lea	 ecx, DWORD PTR _kPrinter$[ebp]
  00548	e8 00 00 00 00	 call	 ?SetTextColor@ioComplexStringPrinter@@QAEXK@Z ; ioComplexStringPrinter::SetTextColor

; 312  : 	kPrinter.AddTextPiece( FONT_SIZE_12, STR(4), szPeso );

  0054d	8d 85 ec fe ff
	ff		 lea	 eax, DWORD PTR _szPeso$[ebp]
  00553	50		 push	 eax
  00554	53		 push	 ebx
  00555	6a 04		 push	 4
  00557	68 00 00 00 00	 push	 OFFSET ??_C@_00CNPNBAHC@?$AA@
  0055c	68 00 00 00 00	 push	 OFFSET ??_C@_0CG@PCPPNLCN@TradeItemRegisterConfirmWnd?3?3OnR@
  00561	ff d6		 call	 esi
  00563	8b c8		 mov	 ecx, eax
  00565	ff d7		 call	 edi
  00567	f3 0f 10 05 00
	00 00 00	 movss	 xmm0, DWORD PTR __real@3f19999a
  0056f	50		 push	 eax
  00570	51		 push	 ecx
  00571	8d 8d c4 fe ff
	ff		 lea	 ecx, DWORD PTR _kPrinter$[ebp]
  00577	f3 0f 11 04 24	 movss	 DWORD PTR [esp], xmm0
  0057c	e8 00 00 00 00	 call	 ?AddTextPiece@ioComplexStringPrinter@@QAEXMPBD0@Z ; ioComplexStringPrinter::AddTextPiece

; 313  : 	kPrinter.PrintFullText( iXPos+PRICE_X, iYPos+PRICE_Y+24, TAT_RIGHT );

  00581	8b 85 e8 fe ff
	ff		 mov	 eax, DWORD PTR _iYPos$[ebp]
  00587	68 ff 00 00 00	 push	 255			; 000000ffH
  0058c	6a 02		 push	 2
  0058e	51		 push	 ecx
  0058f	51		 push	 ecx
  00590	05 f5 00 00 00	 add	 eax, 245		; 000000f5H
  00595	0f 57 c0	 xorps	 xmm0, xmm0
  00598	f3 0f 2a c0	 cvtsi2ss xmm0, eax
  0059c	f3 0f 11 44 24
	04		 movss	 DWORD PTR [esp+4], xmm0
  005a2	f3 0f 10 85 e4
	fe ff ff	 movss	 xmm0, DWORD PTR tv789[ebp]
  005aa	8d 8d c4 fe ff
	ff		 lea	 ecx, DWORD PTR _kPrinter$[ebp]
  005b0	f3 0f 11 04 24	 movss	 DWORD PTR [esp], xmm0
  005b5	e8 00 00 00 00	 call	 ?PrintFullText@ioComplexStringPrinter@@QAEXMMW4TextAlignType@@E@Z ; ioComplexStringPrinter::PrintFullText

; 314  : 	kPrinter.ClearList();

  005ba	8d 8d c4 fe ff
	ff		 lea	 ecx, DWORD PTR _kPrinter$[ebp]
  005c0	e8 00 00 00 00	 call	 ?ClearList@ioComplexStringPrinter@@QAEXXZ ; ioComplexStringPrinter::ClearList

; 315  : 
; 316  : 	kPrinter.SetTextStyle( TS_NORMAL );

  005c5	53		 push	 ebx
  005c6	8d 8d c4 fe ff
	ff		 lea	 ecx, DWORD PTR _kPrinter$[ebp]
  005cc	e8 00 00 00 00	 call	 ?SetTextStyle@ioComplexStringPrinter@@QAEXW4TextStyle@@@Z ; ioComplexStringPrinter::SetTextStyle

; 317  : 	kPrinter.SetBkColor( 0, 0, 0 );

  005d1	53		 push	 ebx
  005d2	53		 push	 ebx
  005d3	53		 push	 ebx
  005d4	8d 8d c4 fe ff
	ff		 lea	 ecx, DWORD PTR _kPrinter$[ebp]
  005da	e8 00 00 00 00	 call	 ?SetBkColor@ioComplexStringPrinter@@QAEXHHH@Z ; ioComplexStringPrinter::SetBkColor

; 318  : 	kPrinter.SetTextColor( TCT_DEFAULT_DARKGRAY );

  005df	68 3a 3a 3a ff	 push	 -12961222		; ff3a3a3aH
  005e4	8d 8d c4 fe ff
	ff		 lea	 ecx, DWORD PTR _kPrinter$[ebp]
  005ea	e8 00 00 00 00	 call	 ?SetTextColor@ioComplexStringPrinter@@QAEXK@Z ; ioComplexStringPrinter::SetTextColor

; 319  : 	kPrinter.AddTextPiece( FONT_SIZE_12, STR(5) );

  005ef	53		 push	 ebx
  005f0	6a 05		 push	 5
  005f2	68 00 00 00 00	 push	 OFFSET ??_C@_00CNPNBAHC@?$AA@
  005f7	68 00 00 00 00	 push	 OFFSET ??_C@_0CG@PCPPNLCN@TradeItemRegisterConfirmWnd?3?3OnR@
  005fc	ff d6		 call	 esi
  005fe	8b c8		 mov	 ecx, eax
  00600	ff d7		 call	 edi
  00602	f3 0f 10 05 00
	00 00 00	 movss	 xmm0, DWORD PTR __real@3f19999a
  0060a	50		 push	 eax
  0060b	51		 push	 ecx
  0060c	8d 85 c4 fe ff
	ff		 lea	 eax, DWORD PTR _kPrinter$[ebp]
  00612	f3 0f 11 04 24	 movss	 DWORD PTR [esp], xmm0
  00617	50		 push	 eax
  00618	e8 00 00 00 00	 call	 ?AddTextPiece@ioComplexStringPrinter@@QAAXMPBDZZ ; ioComplexStringPrinter::AddTextPiece
  0061d	83 c4 0c	 add	 esp, 12			; 0000000cH

; 320  : 	kPrinter.SetTextColor( TCT_DEFAULT_RED );

  00620	68 00 16 b9 ff	 push	 -4647424		; ffb91600H
  00625	8d 8d c4 fe ff
	ff		 lea	 ecx, DWORD PTR _kPrinter$[ebp]
  0062b	e8 00 00 00 00	 call	 ?SetTextColor@ioComplexStringPrinter@@QAEXK@Z ; ioComplexStringPrinter::SetTextColor

; 321  : 	kPrinter.AddTextPiece( FONT_SIZE_12, STR(6) );

  00630	53		 push	 ebx
  00631	6a 06		 push	 6
  00633	68 00 00 00 00	 push	 OFFSET ??_C@_00CNPNBAHC@?$AA@
  00638	68 00 00 00 00	 push	 OFFSET ??_C@_0CG@PCPPNLCN@TradeItemRegisterConfirmWnd?3?3OnR@
  0063d	ff d6		 call	 esi
  0063f	8b c8		 mov	 ecx, eax
  00641	ff d7		 call	 edi
  00643	f3 0f 10 05 00
	00 00 00	 movss	 xmm0, DWORD PTR __real@3f19999a
  0064b	50		 push	 eax
  0064c	51		 push	 ecx
  0064d	8d 85 c4 fe ff
	ff		 lea	 eax, DWORD PTR _kPrinter$[ebp]
  00653	f3 0f 11 04 24	 movss	 DWORD PTR [esp], xmm0
  00658	50		 push	 eax
  00659	e8 00 00 00 00	 call	 ?AddTextPiece@ioComplexStringPrinter@@QAAXMPBDZZ ; ioComplexStringPrinter::AddTextPiece
  0065e	83 c4 0c	 add	 esp, 12			; 0000000cH

; 322  : 	kPrinter.SetTextColor( TCT_DEFAULT_DARKGRAY );

  00661	68 3a 3a 3a ff	 push	 -12961222		; ff3a3a3aH
  00666	8d 8d c4 fe ff
	ff		 lea	 ecx, DWORD PTR _kPrinter$[ebp]
  0066c	e8 00 00 00 00	 call	 ?SetTextColor@ioComplexStringPrinter@@QAEXK@Z ; ioComplexStringPrinter::SetTextColor

; 323  : 	kPrinter.AddTextPiece( FONT_SIZE_12, STR(7) );

  00671	53		 push	 ebx
  00672	6a 07		 push	 7
  00674	68 00 00 00 00	 push	 OFFSET ??_C@_00CNPNBAHC@?$AA@
  00679	68 00 00 00 00	 push	 OFFSET ??_C@_0CG@PCPPNLCN@TradeItemRegisterConfirmWnd?3?3OnR@
  0067e	ff d6		 call	 esi
  00680	8b c8		 mov	 ecx, eax
  00682	ff d7		 call	 edi
  00684	f3 0f 10 05 00
	00 00 00	 movss	 xmm0, DWORD PTR __real@3f19999a
  0068c	50		 push	 eax
  0068d	51		 push	 ecx
  0068e	8d 85 c4 fe ff
	ff		 lea	 eax, DWORD PTR _kPrinter$[ebp]
  00694	f3 0f 11 04 24	 movss	 DWORD PTR [esp], xmm0
  00699	50		 push	 eax
  0069a	e8 00 00 00 00	 call	 ?AddTextPiece@ioComplexStringPrinter@@QAAXMPBDZZ ; ioComplexStringPrinter::AddTextPiece

; 324  : 	kPrinter.PrintFullText( iXPos+ETC_TEXT_X, iYPos+ETC_TEXT_Y, TAT_CENTER );

  0069f	8b 85 c0 fe ff
	ff		 mov	 eax, DWORD PTR _iXPos$[ebp]
  006a5	83 c4 0c	 add	 esp, 12			; 0000000cH
  006a8	83 c0 67	 add	 eax, 103		; 00000067H
  006ab	68 ff 00 00 00	 push	 255			; 000000ffH
  006b0	0f 57 c0	 xorps	 xmm0, xmm0
  006b3	f3 0f 2a c0	 cvtsi2ss xmm0, eax
  006b7	8b 85 e8 fe ff
	ff		 mov	 eax, DWORD PTR _iYPos$[ebp]
  006bd	6a 01		 push	 1
  006bf	51		 push	 ecx
  006c0	51		 push	 ecx
  006c1	05 0d 01 00 00	 add	 eax, 269		; 0000010dH
  006c6	0f 57 c9	 xorps	 xmm1, xmm1
  006c9	f3 0f 2a c8	 cvtsi2ss xmm1, eax
  006cd	f3 0f 11 4c 24
	04		 movss	 DWORD PTR [esp+4], xmm1
  006d3	8d 8d c4 fe ff
	ff		 lea	 ecx, DWORD PTR _kPrinter$[ebp]
  006d9	f3 0f 11 85 e4
	fe ff ff	 movss	 DWORD PTR tv682[ebp], xmm0
  006e1	f3 0f 11 04 24	 movss	 DWORD PTR [esp], xmm0
  006e6	e8 00 00 00 00	 call	 ?PrintFullText@ioComplexStringPrinter@@QAEXMMW4TextAlignType@@E@Z ; ioComplexStringPrinter::PrintFullText

; 325  : 	kPrinter.ClearList();

  006eb	8d 8d c4 fe ff
	ff		 lea	 ecx, DWORD PTR _kPrinter$[ebp]
  006f1	e8 00 00 00 00	 call	 ?ClearList@ioComplexStringPrinter@@QAEXXZ ; ioComplexStringPrinter::ClearList

; 326  : 
; 327  : 	kPrinter.SetTextStyle( TS_NORMAL );

  006f6	53		 push	 ebx
  006f7	8d 8d c4 fe ff
	ff		 lea	 ecx, DWORD PTR _kPrinter$[ebp]
  006fd	e8 00 00 00 00	 call	 ?SetTextStyle@ioComplexStringPrinter@@QAEXW4TextStyle@@@Z ; ioComplexStringPrinter::SetTextStyle

; 328  : 	kPrinter.SetBkColor( 0, 0, 0 );

  00702	53		 push	 ebx
  00703	53		 push	 ebx
  00704	53		 push	 ebx
  00705	8d 8d c4 fe ff
	ff		 lea	 ecx, DWORD PTR _kPrinter$[ebp]
  0070b	e8 00 00 00 00	 call	 ?SetBkColor@ioComplexStringPrinter@@QAEXHHH@Z ; ioComplexStringPrinter::SetBkColor

; 329  : 	kPrinter.SetTextColor( TCT_DEFAULT_DARKGRAY );

  00710	68 3a 3a 3a ff	 push	 -12961222		; ff3a3a3aH
  00715	8d 8d c4 fe ff
	ff		 lea	 ecx, DWORD PTR _kPrinter$[ebp]
  0071b	e8 00 00 00 00	 call	 ?SetTextColor@ioComplexStringPrinter@@QAEXK@Z ; ioComplexStringPrinter::SetTextColor

; 330  : 	kPrinter.AddTextPiece( FONT_SIZE_12, STR(8) );

  00720	53		 push	 ebx
  00721	6a 08		 push	 8
  00723	68 00 00 00 00	 push	 OFFSET ??_C@_00CNPNBAHC@?$AA@
  00728	68 00 00 00 00	 push	 OFFSET ??_C@_0CG@PCPPNLCN@TradeItemRegisterConfirmWnd?3?3OnR@
  0072d	ff d6		 call	 esi
  0072f	8b c8		 mov	 ecx, eax
  00731	ff d7		 call	 edi
  00733	f3 0f 10 05 00
	00 00 00	 movss	 xmm0, DWORD PTR __real@3f19999a
  0073b	50		 push	 eax
  0073c	51		 push	 ecx
  0073d	8d 85 c4 fe ff
	ff		 lea	 eax, DWORD PTR _kPrinter$[ebp]
  00743	f3 0f 11 04 24	 movss	 DWORD PTR [esp], xmm0
  00748	50		 push	 eax
  00749	e8 00 00 00 00	 call	 ?AddTextPiece@ioComplexStringPrinter@@QAAXMPBDZZ ; ioComplexStringPrinter::AddTextPiece
  0074e	83 c4 0c	 add	 esp, 12			; 0000000cH

; 331  : 	kPrinter.SetTextColor( TCT_DEFAULT_RED );

  00751	68 00 16 b9 ff	 push	 -4647424		; ffb91600H
  00756	8d 8d c4 fe ff
	ff		 lea	 ecx, DWORD PTR _kPrinter$[ebp]
  0075c	e8 00 00 00 00	 call	 ?SetTextColor@ioComplexStringPrinter@@QAEXK@Z ; ioComplexStringPrinter::SetTextColor

; 332  : 	kPrinter.AddTextPiece( FONT_SIZE_12, STR(9), g_TradeInfoMgr.GetTradePeriod() );

  00761	e8 00 00 00 00	 call	 ?GetSingleton@TradeInfoManager@@SAAAV1@XZ ; TradeInfoManager::GetSingleton
  00766	ff 70 34	 push	 DWORD PTR [eax+52]
  00769	53		 push	 ebx
  0076a	6a 09		 push	 9
  0076c	68 00 00 00 00	 push	 OFFSET ??_C@_00CNPNBAHC@?$AA@
  00771	68 00 00 00 00	 push	 OFFSET ??_C@_0CG@PCPPNLCN@TradeItemRegisterConfirmWnd?3?3OnR@
  00776	ff d6		 call	 esi
  00778	8b c8		 mov	 ecx, eax
  0077a	ff d7		 call	 edi
  0077c	f3 0f 10 05 00
	00 00 00	 movss	 xmm0, DWORD PTR __real@3f19999a
  00784	50		 push	 eax
  00785	51		 push	 ecx
  00786	f3 0f 11 04 24	 movss	 DWORD PTR [esp], xmm0
  0078b	8d 8d c4 fe ff
	ff		 lea	 ecx, DWORD PTR _kPrinter$[ebp]
  00791	e8 00 00 00 00	 call	 ?AddTextPiece@ioComplexStringPrinter@@QAEXMPBDH@Z ; ioComplexStringPrinter::AddTextPiece

; 333  : 	kPrinter.SetTextColor( TCT_DEFAULT_DARKGRAY );

  00796	68 3a 3a 3a ff	 push	 -12961222		; ff3a3a3aH
  0079b	8d 8d c4 fe ff
	ff		 lea	 ecx, DWORD PTR _kPrinter$[ebp]
  007a1	e8 00 00 00 00	 call	 ?SetTextColor@ioComplexStringPrinter@@QAEXK@Z ; ioComplexStringPrinter::SetTextColor

; 334  : 	kPrinter.AddTextPiece( FONT_SIZE_12, STR(10) );

  007a6	53		 push	 ebx
  007a7	6a 0a		 push	 10			; 0000000aH
  007a9	68 00 00 00 00	 push	 OFFSET ??_C@_00CNPNBAHC@?$AA@
  007ae	68 00 00 00 00	 push	 OFFSET ??_C@_0CG@PCPPNLCN@TradeItemRegisterConfirmWnd?3?3OnR@
  007b3	ff d6		 call	 esi
  007b5	8b c8		 mov	 ecx, eax
  007b7	ff d7		 call	 edi
  007b9	f3 0f 10 05 00
	00 00 00	 movss	 xmm0, DWORD PTR __real@3f19999a
  007c1	50		 push	 eax
  007c2	51		 push	 ecx
  007c3	8d 85 c4 fe ff
	ff		 lea	 eax, DWORD PTR _kPrinter$[ebp]
  007c9	f3 0f 11 04 24	 movss	 DWORD PTR [esp], xmm0
  007ce	50		 push	 eax
  007cf	e8 00 00 00 00	 call	 ?AddTextPiece@ioComplexStringPrinter@@QAAXMPBDZZ ; ioComplexStringPrinter::AddTextPiece

; 335  : 	kPrinter.PrintFullText( iXPos+ETC_TEXT_X, iYPos+ETC_TEXT_Y+18, TAT_CENTER );

  007d4	8b 85 e8 fe ff
	ff		 mov	 eax, DWORD PTR _iYPos$[ebp]
  007da	83 c4 0c	 add	 esp, 12			; 0000000cH
  007dd	68 ff 00 00 00	 push	 255			; 000000ffH
  007e2	6a 01		 push	 1
  007e4	51		 push	 ecx
  007e5	51		 push	 ecx
  007e6	05 1f 01 00 00	 add	 eax, 287		; 0000011fH
  007eb	0f 57 c0	 xorps	 xmm0, xmm0
  007ee	f3 0f 2a c0	 cvtsi2ss xmm0, eax
  007f2	f3 0f 11 44 24
	04		 movss	 DWORD PTR [esp+4], xmm0
  007f8	f3 0f 10 85 e4
	fe ff ff	 movss	 xmm0, DWORD PTR tv682[ebp]
  00800	8d 8d c4 fe ff
	ff		 lea	 ecx, DWORD PTR _kPrinter$[ebp]
  00806	f3 0f 11 04 24	 movss	 DWORD PTR [esp], xmm0
  0080b	e8 00 00 00 00	 call	 ?PrintFullText@ioComplexStringPrinter@@QAEXMMW4TextAlignType@@E@Z ; ioComplexStringPrinter::PrintFullText

; 336  : 	kPrinter.ClearList();

  00810	8d 8d c4 fe ff
	ff		 lea	 ecx, DWORD PTR _kPrinter$[ebp]
  00816	e8 00 00 00 00	 call	 ?ClearList@ioComplexStringPrinter@@QAEXXZ ; ioComplexStringPrinter::ClearList

; 337  : }

  0081b	83 4d fc ff	 or	 DWORD PTR __$EHRec$[ebp+8], -1
  0081f	8d 8d c4 fe ff
	ff		 lea	 ecx, DWORD PTR _kPrinter$[ebp]
  00825	e8 00 00 00 00	 call	 ??1ioComplexStringPrinter@@QAE@XZ ; ioComplexStringPrinter::~ioComplexStringPrinter
  0082a	e8 00 00 00 00	 call	 __EH_epilog3_GS
  0082f	c3		 ret	 0
_TEXT	ENDS
;	COMDAT text$x
text$x	SEGMENT
__unwindfunclet$?OnRender@TradeItemRegisterConfirmWnd@@MAEXXZ$0:
  00000	8d 8d c4 fe ff
	ff		 lea	 ecx, DWORD PTR _kPrinter$[ebp]
  00006	e9 00 00 00 00	 jmp	 ??1ioComplexStringPrinter@@QAE@XZ ; ioComplexStringPrinter::~ioComplexStringPrinter
__ehhandler$?OnRender@TradeItemRegisterConfirmWnd@@MAEXXZ:
  0000b	8b 54 24 08	 mov	 edx, DWORD PTR [esp+8]
  0000f	8d 42 0c	 lea	 eax, DWORD PTR [edx+12]
  00012	8b 8a b0 fe ff
	ff		 mov	 ecx, DWORD PTR [edx-336]
  00018	33 c8		 xor	 ecx, eax
  0001a	e8 00 00 00 00	 call	 @__security_check_cookie@4
  0001f	8b 4a fc	 mov	 ecx, DWORD PTR [edx-4]
  00022	33 c8		 xor	 ecx, eax
  00024	e8 00 00 00 00	 call	 @__security_check_cookie@4
  00029	b8 00 00 00 00	 mov	 eax, OFFSET __ehfuncinfo$?OnRender@TradeItemRegisterConfirmWnd@@MAEXXZ
  0002e	e9 00 00 00 00	 jmp	 ___CxxFrameHandler3
text$x	ENDS
?OnRender@TradeItemRegisterConfirmWnd@@MAEXXZ ENDP	; TradeItemRegisterConfirmWnd::OnRender
PUBLIC	??_R0?AVTradeItemInfoWnd@@@8			; TradeItemInfoWnd `RTTI Type Descriptor'
PUBLIC	?UpdatePage@TradeItemRegisterWnd@@IAEXH@Z	; TradeItemRegisterWnd::UpdatePage
EXTRN	?SetInfo@TradeItemInfoWnd@@QAEXAAUtagInventoryItemInfo@@@Z:PROC ; TradeItemInfoWnd::SetInfo
;	COMDAT ??_R0?AVTradeItemInfoWnd@@@8
; File c:\program files (x86)\microsoft visual studio 10.0\vc\include\vector
_DATA	SEGMENT
??_R0?AVTradeItemInfoWnd@@@8 DD FLAT:??_7type_info@@6B@	; TradeItemInfoWnd `RTTI Type Descriptor'
	DD	00H
	DB	'.?AVTradeItemInfoWnd@@', 00H
_DATA	ENDS
;	COMDAT xdata$x
xdata$x	SEGMENT
__unwindtable$?UpdatePage@TradeItemRegisterWnd@@IAEXH@Z DD 0ffffffffH
	DD	FLAT:__unwindfunclet$?UpdatePage@TradeItemRegisterWnd@@IAEXH@Z$0
__ehfuncinfo$?UpdatePage@TradeItemRegisterWnd@@IAEXH@Z DD 019930522H
	DD	01H
	DD	FLAT:__unwindtable$?UpdatePage@TradeItemRegisterWnd@@IAEXH@Z
	DD	2 DUP(00H)
	DD	2 DUP(00H)
	DD	00H
	DD	01H
; Function compile flags: /Ogsp
; File d:\lost saga for developer\youtube\tutorial\source\src\lsclient\gui\tradeitemregisterwnd.cpp
xdata$x	ENDS
;	COMDAT ?UpdatePage@TradeItemRegisterWnd@@IAEXH@Z
_TEXT	SEGMENT
_kInfo$508223 = -96					; size = 72
_iItemSize$ = -24					; size = 4
tv144 = -20						; size = 4
_pItem$508217 = -16					; size = 4
__$EHRec$ = -12						; size = 12
tv272 = 8						; size = 4
_iNewPage$ = 8						; size = 4
?UpdatePage@TradeItemRegisterWnd@@IAEXH@Z PROC		; TradeItemRegisterWnd::UpdatePage, COMDAT
; _this$ = ecx

; 623  : {

  00000	6a 54		 push	 84			; 00000054H
  00002	b8 00 00 00 00	 mov	 eax, __ehhandler$?UpdatePage@TradeItemRegisterWnd@@IAEXH@Z
  00007	e8 00 00 00 00	 call	 __EH_prolog3
  0000c	8b f1		 mov	 esi, ecx

; 624  : 	for (int i = 0; i < MAX_ITEM_INFO_WND_BTN ; i++)

  0000e	33 ff		 xor	 edi, edi
$LL9@UpdatePage:

; 625  : 		HideChildWnd( ID_ITEM_INFO_WND_1_BTN + i );

  00010	6a 00		 push	 0
  00012	8d 87 c9 00 00
	00		 lea	 eax, DWORD PTR [edi+201]
  00018	50		 push	 eax
  00019	8b ce		 mov	 ecx, esi
  0001b	ff 15 00 00 00
	00		 call	 DWORD PTR __imp_?HideChildWnd@ioWnd@@QAEXK_N@Z
  00021	47		 inc	 edi
  00022	83 ff 08	 cmp	 edi, 8
  00025	7c e9		 jl	 SHORT $LL9@UpdatePage

; 626  : 
; 627  : 	m_iCurPage = iNewPage;

  00027	8b 4d 08	 mov	 ecx, DWORD PTR _iNewPage$[ebp]
  0002a	89 8e a0 01 00
	00		 mov	 DWORD PTR [esi+416], ecx

; 628  : 
; 629  : 	int iItemSize = m_vInventoryItemInfoList.size();

  00030	8b 86 94 01 00
	00		 mov	 eax, DWORD PTR [esi+404]
  00036	2b 86 90 01 00
	00		 sub	 eax, DWORD PTR [esi+400]
  0003c	6a 48		 push	 72			; 00000048H
  0003e	99		 cdq
  0003f	5f		 pop	 edi
  00040	f7 ff		 idiv	 edi

; 630  : 	int iStartArray = m_iCurPage * PAGE_PER_ITEM_NUM;

  00042	8b f9		 mov	 edi, ecx
  00044	c1 e7 02	 shl	 edi, 2
  00047	8b df		 mov	 ebx, edi

; 631  : 	for( int i = 0 ; i < MAX_ITEM_INFO_WND_BTN ; i++ )

  00049	c7 45 08 c9 00
	00 00		 mov	 DWORD PTR tv272[ebp], 201 ; 000000c9H
  00050	6b db 48	 imul	 ebx, 72			; 00000048H
  00053	29 7d 08	 sub	 DWORD PTR tv272[ebp], edi
  00056	c7 45 ec 08 00
	00 00		 mov	 DWORD PTR tv144[ebp], 8
  0005d	89 45 e8	 mov	 DWORD PTR _iItemSize$[ebp], eax
$LN6@UpdatePage:

; 632  : 	{
; 633  : 		TradeItemInfoWnd *pItem = dynamic_cast<TradeItemInfoWnd*>(FindChildWnd(ID_ITEM_INFO_WND_1_BTN + i));

  00060	8b 45 08	 mov	 eax, DWORD PTR tv272[ebp]
  00063	6a 00		 push	 0
  00065	68 00 00 00 00	 push	 OFFSET ??_R0?AVTradeItemInfoWnd@@@8
  0006a	68 00 00 00 00	 push	 OFFSET ??_R0?AVioWnd@@@8
  0006f	6a 00		 push	 0
  00071	03 c7		 add	 eax, edi
  00073	50		 push	 eax
  00074	8b ce		 mov	 ecx, esi
  00076	ff 15 00 00 00
	00		 call	 DWORD PTR __imp_?FindChildWnd@ioWnd@@QAEPAV1@K@Z
  0007c	50		 push	 eax
  0007d	e8 00 00 00 00	 call	 ___RTDynamicCast
  00082	8b c8		 mov	 ecx, eax
  00084	83 c4 14	 add	 esp, 20			; 00000014H
  00087	89 4d f0	 mov	 DWORD PTR _pItem$508217[ebp], ecx

; 634  : 		if( !pItem )

  0008a	85 c9		 test	 ecx, ecx
  0008c	74 50		 je	 SHORT $LN5@UpdatePage

; 635  : 			continue;
; 636  : 
; 637  : 		pItem->ShowWnd();

  0008e	ff 15 00 00 00
	00		 call	 DWORD PTR __imp_?ShowWnd@ioWnd@@QAEXXZ

; 638  : 
; 639  : 		int iCurArray = iStartArray +i;
; 640  : 		if( !COMPARE( iCurArray, 0, iItemSize ) )

  00094	85 ff		 test	 edi, edi
  00096	78 18		 js	 SHORT $LN1@UpdatePage
  00098	3b 7d e8	 cmp	 edi, DWORD PTR _iItemSize$[ebp]
  0009b	7d 13		 jge	 SHORT $LN1@UpdatePage

; 646  : 		}
; 647  : 
; 648  : 		pItem->SetInfo( m_vInventoryItemInfoList[iCurArray] );

  0009d	8b 86 90 01 00
	00		 mov	 eax, DWORD PTR [esi+400]
  000a3	8b 4d f0	 mov	 ecx, DWORD PTR _pItem$508217[ebp]
  000a6	03 c3		 add	 eax, ebx
  000a8	50		 push	 eax
  000a9	e8 00 00 00 00	 call	 ?SetInfo@TradeItemInfoWnd@@QAEXAAUtagInventoryItemInfo@@@Z ; TradeItemInfoWnd::SetInfo

; 649  : 	}

  000ae	eb 2e		 jmp	 SHORT $LN5@UpdatePage
$LN1@UpdatePage:

; 641  : 		{
; 642  : 			// 
; 643  : 			InventoryItemInfo kInfo;

  000b0	8d 4d c4	 lea	 ecx, DWORD PTR _kInfo$508223[ebp+36]
  000b3	ff 15 00 00 00
	00		 call	 DWORD PTR __imp_??0ioHashString@@QAE@XZ
  000b9	8d 4d a0	 lea	 ecx, DWORD PTR _kInfo$508223[ebp]
  000bc	e8 00 00 00 00	 call	 ?Init@tagInventoryItemInfo@@QAEXXZ ; tagInventoryItemInfo::Init

; 644  : 			pItem->SetInfo( kInfo );

  000c1	8b 4d f0	 mov	 ecx, DWORD PTR _pItem$508217[ebp]
  000c4	83 65 fc 00	 and	 DWORD PTR __$EHRec$[ebp+8], 0
  000c8	8d 45 a0	 lea	 eax, DWORD PTR _kInfo$508223[ebp]
  000cb	50		 push	 eax
  000cc	e8 00 00 00 00	 call	 ?SetInfo@TradeItemInfoWnd@@QAEXAAUtagInventoryItemInfo@@@Z ; TradeItemInfoWnd::SetInfo

; 645  : 			continue;

  000d1	83 4d fc ff	 or	 DWORD PTR __$EHRec$[ebp+8], -1
  000d5	8d 4d c4	 lea	 ecx, DWORD PTR _kInfo$508223[ebp+36]
  000d8	ff 15 00 00 00
	00		 call	 DWORD PTR __imp_??1ioHashString@@QAE@XZ
$LN5@UpdatePage:

; 631  : 	for( int i = 0 ; i < MAX_ITEM_INFO_WND_BTN ; i++ )

  000de	47		 inc	 edi
  000df	83 c3 48	 add	 ebx, 72			; 00000048H
  000e2	ff 4d ec	 dec	 DWORD PTR tv144[ebp]
  000e5	0f 85 75 ff ff
	ff		 jne	 $LN6@UpdatePage

; 650  : }

  000eb	e8 00 00 00 00	 call	 __EH_epilog3
  000f0	c2 04 00	 ret	 4
_TEXT	ENDS
;	COMDAT text$x
text$x	SEGMENT
__unwindfunclet$?UpdatePage@TradeItemRegisterWnd@@IAEXH@Z$0:
  00000	8d 4d a0	 lea	 ecx, DWORD PTR _kInfo$508223[ebp]
  00003	e9 00 00 00 00	 jmp	 ??1tagInventoryItemInfo@@QAE@XZ
__ehhandler$?UpdatePage@TradeItemRegisterWnd@@IAEXH@Z:
  00008	8b 54 24 08	 mov	 edx, DWORD PTR [esp+8]
  0000c	8d 42 0c	 lea	 eax, DWORD PTR [edx+12]
  0000f	8b 4a 9c	 mov	 ecx, DWORD PTR [edx-100]
  00012	33 c8		 xor	 ecx, eax
  00014	e8 00 00 00 00	 call	 @__security_check_cookie@4
  00019	b8 00 00 00 00	 mov	 eax, OFFSET __ehfuncinfo$?UpdatePage@TradeItemRegisterWnd@@IAEXH@Z
  0001e	e9 00 00 00 00	 jmp	 ___CxxFrameHandler3
text$x	ENDS
?UpdatePage@TradeItemRegisterWnd@@IAEXH@Z ENDP		; TradeItemRegisterWnd::UpdatePage
PUBLIC	??_R0?AVItemCustomThumbnailTooltip@@@8		; ItemCustomThumbnailTooltip `RTTI Type Descriptor'
PUBLIC	??_C@_02KEGNLNML@?0?5?$AA@			; `string'
PUBLIC	??_C@_0CO@NBPNIEOF@TradeItemRegisterWnd?3?3ProcessCus@ ; `string'
PUBLIC	_this$GSCopy$
PUBLIC	?ProcessCustomBtnTooltip@TradeItemRegisterWnd@@IAEXXZ ; TradeItemRegisterWnd::ProcessCustomBtnTooltip
EXTRN	?SetTooltipText@ItemCustomThumbnailTooltip@@QAEXPAVioComplexStringPrinter@@AAUEXTRAITEMSLOT@@@Z:PROC ; ItemCustomThumbnailTooltip::SetTooltipText
EXTRN	__imp_?FindWnd@ioGUIManager@@QAEPAVioWnd@@K@Z:PROC
EXTRN	?GetExtraItem@ioUserExtraItem@@QAE_NHAAUEXTRAITEMSLOT@@@Z:PROC ; ioUserExtraItem::GetExtraItem
EXTRN	?GetInfo@TradeItemInfoWnd@@QAEAAUtagInventoryItemInfo@@XZ:PROC ; TradeItemInfoWnd::GetInfo
EXTRN	?IsCustomToolTip@TradeItemInfoWnd@@QAE_NXZ:PROC	; TradeItemInfoWnd::IsCustomToolTip
;	COMDAT ??_R0?AVItemCustomThumbnailTooltip@@@8
_DATA	SEGMENT
??_R0?AVItemCustomThumbnailTooltip@@@8 DD FLAT:??_7type_info@@6B@ ; ItemCustomThumbnailTooltip `RTTI Type Descriptor'
	DD	00H
	DB	'.?AVItemCustomThumbnailTooltip@@', 00H
_DATA	ENDS
;	COMDAT ??_C@_02KEGNLNML@?0?5?$AA@
CONST	SEGMENT
??_C@_02KEGNLNML@?0?5?$AA@ DB ', ', 00H			; `string'
CONST	ENDS
;	COMDAT ??_C@_0CO@NBPNIEOF@TradeItemRegisterWnd?3?3ProcessCus@
CONST	SEGMENT
??_C@_0CO@NBPNIEOF@TradeItemRegisterWnd?3?3ProcessCus@ DB 'TradeItemRegis'
	DB	'terWnd::ProcessCustomBtnTooltip', 00H	; `string'
CONST	ENDS
;	COMDAT xdata$x
xdata$x	SEGMENT
__unwindtable$?ProcessCustomBtnTooltip@TradeItemRegisterWnd@@IAEXXZ DD 0ffffffffH
	DD	FLAT:__unwindfunclet$?ProcessCustomBtnTooltip@TradeItemRegisterWnd@@IAEXXZ$0
	DD	00H
	DD	FLAT:__unwindfunclet$?ProcessCustomBtnTooltip@TradeItemRegisterWnd@@IAEXXZ$1
	DD	01H
	DD	FLAT:__unwindfunclet$?ProcessCustomBtnTooltip@TradeItemRegisterWnd@@IAEXXZ$2
__ehfuncinfo$?ProcessCustomBtnTooltip@TradeItemRegisterWnd@@IAEXXZ DD 019930522H
	DD	03H
	DD	FLAT:__unwindtable$?ProcessCustomBtnTooltip@TradeItemRegisterWnd@@IAEXXZ
	DD	2 DUP(00H)
	DD	2 DUP(00H)
	DD	00H
	DD	01H
; Function compile flags: /Ogsp
xdata$x	ENDS
;	COMDAT ?ProcessCustomBtnTooltip@TradeItemRegisterWnd@@IAEXXZ
_TEXT	SEGMENT
_kItemInfo$508457 = -324				; size = 72
_kSlot$ = -252						; size = 72
_this$GSCopy$ = -180					; size = 4
_kPrinter$ = -176					; size = 160
__$EHRec$ = -12						; size = 12
?ProcessCustomBtnTooltip@TradeItemRegisterWnd@@IAEXXZ PROC ; TradeItemRegisterWnd::ProcessCustomBtnTooltip, COMDAT
; _this$ = ecx

; 801  : {

  00000	68 38 01 00 00	 push	 312			; 00000138H
  00005	b8 00 00 00 00	 mov	 eax, __ehhandler$?ProcessCustomBtnTooltip@TradeItemRegisterWnd@@IAEXXZ
  0000a	e8 00 00 00 00	 call	 __EH_prolog3_GS
  0000f	89 8d 4c ff ff
	ff		 mov	 DWORD PTR _this$GSCopy$[ebp], ecx

; 802  : 	int i = 0;
; 803  : 	EXTRAITEMSLOT kSlot;

  00015	8d 8d 04 ff ff
	ff		 lea	 ecx, DWORD PTR _kSlot$[ebp]
  0001b	e8 00 00 00 00	 call	 ??0EXTRAITEMSLOT@@QAE@XZ ; EXTRAITEMSLOT::EXTRAITEMSLOT

; 804  : 	ioComplexStringPrinter kPrinter[GLOBAL_TEXT_TOOLTIP_LINE];

  00020	68 00 00 00 00	 push	 OFFSET ??1ioComplexStringPrinter@@QAE@XZ ; ioComplexStringPrinter::~ioComplexStringPrinter
  00025	68 00 00 00 00	 push	 OFFSET ??0ioComplexStringPrinter@@QAE@XZ ; ioComplexStringPrinter::ioComplexStringPrinter
  0002a	6a 05		 push	 5
  0002c	6a 20		 push	 32			; 00000020H
  0002e	8d 85 50 ff ff
	ff		 lea	 eax, DWORD PTR _kPrinter$[ebp]
  00034	33 f6		 xor	 esi, esi
  00036	50		 push	 eax
  00037	89 75 fc	 mov	 DWORD PTR __$EHRec$[ebp+8], esi
  0003a	e8 00 00 00 00	 call	 ??_L@YGXPAXIHP6EX0@Z1@Z
  0003f	c6 45 fc 01	 mov	 BYTE PTR __$EHRec$[ebp+8], 1

; 805  : 	for(i = 0;i < MAX_ITEM_INFO_WND_BTN;i++)

  00043	33 db		 xor	 ebx, ebx
$LN15@ProcessCus:

; 806  : 	{
; 807  : 		TradeItemInfoWnd *pItemWnd = dynamic_cast<TradeItemInfoWnd*>(FindChildWnd( ID_ITEM_INFO_WND_1_BTN+i ));

  00045	8b 8d 4c ff ff
	ff		 mov	 ecx, DWORD PTR _this$GSCopy$[ebp]
  0004b	56		 push	 esi
  0004c	68 00 00 00 00	 push	 OFFSET ??_R0?AVTradeItemInfoWnd@@@8
  00051	68 00 00 00 00	 push	 OFFSET ??_R0?AVioWnd@@@8
  00056	56		 push	 esi
  00057	8d 83 c9 00 00
	00		 lea	 eax, DWORD PTR [ebx+201]
  0005d	50		 push	 eax
  0005e	ff 15 00 00 00
	00		 call	 DWORD PTR __imp_?FindChildWnd@ioWnd@@QAEPAV1@K@Z
  00064	50		 push	 eax
  00065	e8 00 00 00 00	 call	 ___RTDynamicCast
  0006a	8b f8		 mov	 edi, eax
  0006c	83 c4 14	 add	 esp, 20			; 00000014H

; 808  : 		if( !pItemWnd ) continue;

  0006f	3b fe		 cmp	 edi, esi
  00071	74 4d		 je	 SHORT $LN14@ProcessCus

; 809  : 		if( !pItemWnd->IsShow() ) continue;

  00073	8b cf		 mov	 ecx, edi
  00075	ff 15 00 00 00
	00		 call	 DWORD PTR __imp_?IsShow@ioWnd@@QBE_NXZ
  0007b	84 c0		 test	 al, al
  0007d	74 41		 je	 SHORT $LN14@ProcessCus

; 810  : 		if( !pItemWnd->IsCustomToolTip() ) continue;

  0007f	8b cf		 mov	 ecx, edi
  00081	e8 00 00 00 00	 call	 ?IsCustomToolTip@TradeItemInfoWnd@@QAE_NXZ ; TradeItemInfoWnd::IsCustomToolTip
  00086	84 c0		 test	 al, al
  00088	74 36		 je	 SHORT $LN14@ProcessCus

; 811  : 
; 812  : 		InventoryItemInfo kItemInfo = pItemWnd->GetInfo();

  0008a	8b cf		 mov	 ecx, edi
  0008c	e8 00 00 00 00	 call	 ?GetInfo@TradeItemInfoWnd@@QAEAAUtagInventoryItemInfo@@XZ ; TradeItemInfoWnd::GetInfo
  00091	50		 push	 eax
  00092	8d 8d bc fe ff
	ff		 lea	 ecx, DWORD PTR _kItemInfo$508457[ebp]
  00098	e8 00 00 00 00	 call	 ??0tagInventoryItemInfo@@QAE@ABU0@@Z
  0009d	c6 45 fc 02	 mov	 BYTE PTR __$EHRec$[ebp+8], 2

; 813  : 
; 814  : 		ioUserExtraItem *pUserExtraItem = g_MyInfo.GetUserExtraItem();

  000a1	e8 00 00 00 00	 call	 ?GetSingleton@ioMyInfo@@SAAAV1@XZ ; ioMyInfo::GetSingleton
  000a6	8d 88 ac 01 00
	00		 lea	 ecx, DWORD PTR [eax+428]

; 815  : 		if( !pUserExtraItem ) continue;

  000ac	3b ce		 cmp	 ecx, esi
  000ae	75 1c		 jne	 SHORT $LN9@ProcessCus
  000b0	8d 8d e0 fe ff
	ff		 lea	 ecx, DWORD PTR _kItemInfo$508457[ebp+36]
  000b6	c6 45 fc 01	 mov	 BYTE PTR __$EHRec$[ebp+8], 1
  000ba	ff 15 00 00 00
	00		 call	 DWORD PTR __imp_??1ioHashString@@QAE@XZ
$LN14@ProcessCus:

; 805  : 	for(i = 0;i < MAX_ITEM_INFO_WND_BTN;i++)

  000c0	43		 inc	 ebx
  000c1	83 fb 08	 cmp	 ebx, 8
  000c4	0f 8c 7b ff ff
	ff		 jl	 $LN15@ProcessCus
  000ca	eb 22		 jmp	 SHORT $LN13@ProcessCus
$LN9@ProcessCus:

; 816  : 
; 817  : 		pUserExtraItem->GetExtraItem( kItemInfo.m_iMagicCode, kSlot );		

  000cc	8d 85 04 ff ff
	ff		 lea	 eax, DWORD PTR _kSlot$[ebp]
  000d2	50		 push	 eax
  000d3	ff b5 c0 fe ff
	ff		 push	 DWORD PTR _kItemInfo$508457[ebp+4]
  000d9	e8 00 00 00 00	 call	 ?GetExtraItem@ioUserExtraItem@@QAE_NHAAUEXTRAITEMSLOT@@@Z ; ioUserExtraItem::GetExtraItem

; 818  : 		break;

  000de	8d 8d e0 fe ff
	ff		 lea	 ecx, DWORD PTR _kItemInfo$508457[ebp+36]
  000e4	c6 45 fc 01	 mov	 BYTE PTR __$EHRec$[ebp+8], 1
  000e8	ff 15 00 00 00
	00		 call	 DWORD PTR __imp_??1ioHashString@@QAE@XZ
$LN13@ProcessCus:

; 819  : 	}
; 820  : 
; 821  : 	if( kSlot.m_dwMaleCustom > 0 || kSlot.m_dwFemaleCustom > 0 )

  000ee	39 b5 20 ff ff
	ff		 cmp	 DWORD PTR _kSlot$[ebp+28], esi
  000f4	77 0c		 ja	 SHORT $LN7@ProcessCus
  000f6	39 b5 24 ff ff
	ff		 cmp	 DWORD PTR _kSlot$[ebp+32], esi
  000fc	0f 86 6c 02 00
	00		 jbe	 $LN8@ProcessCus
$LN7@ProcessCus:

; 822  : 	{
; 823  : 		kPrinter[0].SetTextStyle( TS_NORMAL );

  00102	56		 push	 esi
  00103	8d 8d 50 ff ff
	ff		 lea	 ecx, DWORD PTR _kPrinter$[ebp]
  00109	e8 00 00 00 00	 call	 ?SetTextStyle@ioComplexStringPrinter@@QAEXW4TextStyle@@@Z ; ioComplexStringPrinter::SetTextStyle

; 824  : 		kPrinter[0].SetBkColor( 0, 0, 0 );

  0010e	56		 push	 esi
  0010f	56		 push	 esi
  00110	56		 push	 esi
  00111	8d 8d 50 ff ff
	ff		 lea	 ecx, DWORD PTR _kPrinter$[ebp]
  00117	e8 00 00 00 00	 call	 ?SetBkColor@ioComplexStringPrinter@@QAEXHHH@Z ; ioComplexStringPrinter::SetBkColor

; 825  : 		kPrinter[0].SetTextColor( TCT_DEFAULT_DARKGRAY );

  0011c	68 3a 3a 3a ff	 push	 -12961222		; ff3a3a3aH
  00121	8d 8d 50 ff ff
	ff		 lea	 ecx, DWORD PTR _kPrinter$[ebp]
  00127	e8 00 00 00 00	 call	 ?SetTextColor@ioComplexStringPrinter@@QAEXK@Z ; ioComplexStringPrinter::SetTextColor

; 826  : 		kPrinter[0].AddTextPiece( FONT_SIZE_12, STR(1) );

  0012c	56		 push	 esi
  0012d	8b 35 00 00 00
	00		 mov	 esi, DWORD PTR __imp_?GetSingleton@ioStringManager@@SAAAV1@XZ
  00133	6a 01		 push	 1
  00135	68 00 00 00 00	 push	 OFFSET ??_C@_00CNPNBAHC@?$AA@
  0013a	bb 00 00 00 00	 mov	 ebx, OFFSET ??_C@_0CO@NBPNIEOF@TradeItemRegisterWnd?3?3ProcessCus@
  0013f	53		 push	 ebx
  00140	ff d6		 call	 esi
  00142	8b 3d 00 00 00
	00		 mov	 edi, DWORD PTR __imp_?GetString@ioStringManager@@QAEPADPBD0HW4FileNamePrefix@1@@Z
  00148	8b c8		 mov	 ecx, eax
  0014a	ff d7		 call	 edi
  0014c	f3 0f 10 05 00
	00 00 00	 movss	 xmm0, DWORD PTR __real@3f19999a
  00154	50		 push	 eax
  00155	51		 push	 ecx
  00156	8d 85 50 ff ff
	ff		 lea	 eax, DWORD PTR _kPrinter$[ebp]
  0015c	f3 0f 11 04 24	 movss	 DWORD PTR [esp], xmm0
  00161	50		 push	 eax
  00162	e8 00 00 00 00	 call	 ?AddTextPiece@ioComplexStringPrinter@@QAAXMPBDZZ ; ioComplexStringPrinter::AddTextPiece

; 827  : 
; 828  : 		if( kSlot.m_dwMaleCustom > 0 && kSlot.m_dwFemaleCustom > 0 )

  00167	33 c0		 xor	 eax, eax
  00169	83 c4 0c	 add	 esp, 12			; 0000000cH
  0016c	39 85 20 ff ff
	ff		 cmp	 DWORD PTR _kSlot$[ebp+28], eax
  00172	0f 86 99 00 00
	00		 jbe	 $LN4@ProcessCus

; 829  : 		{
; 830  : 			kPrinter[0].SetTextColor( TCT_DEFAULT_BLUE );

  00178	68 b2 46 16 ff	 push	 -15317326		; ff1646b2H
  0017d	8d 8d 50 ff ff
	ff		 lea	 ecx, DWORD PTR _kPrinter$[ebp]
  00183	39 85 24 ff ff
	ff		 cmp	 DWORD PTR _kSlot$[ebp+32], eax
  00189	76 7b		 jbe	 SHORT $LN6@ProcessCus
  0018b	e8 00 00 00 00	 call	 ?SetTextColor@ioComplexStringPrinter@@QAEXK@Z ; ioComplexStringPrinter::SetTextColor

; 831  : 			kPrinter[0].AddTextPiece( FONT_SIZE_12, STR(2) );

  00190	6a 00		 push	 0
  00192	6a 02		 push	 2
  00194	68 00 00 00 00	 push	 OFFSET ??_C@_00CNPNBAHC@?$AA@
  00199	53		 push	 ebx
  0019a	ff d6		 call	 esi
  0019c	8b c8		 mov	 ecx, eax
  0019e	ff d7		 call	 edi
  001a0	f3 0f 10 05 00
	00 00 00	 movss	 xmm0, DWORD PTR __real@3f19999a
  001a8	50		 push	 eax
  001a9	51		 push	 ecx
  001aa	8d 85 50 ff ff
	ff		 lea	 eax, DWORD PTR _kPrinter$[ebp]
  001b0	f3 0f 11 04 24	 movss	 DWORD PTR [esp], xmm0
  001b5	50		 push	 eax
  001b6	e8 00 00 00 00	 call	 ?AddTextPiece@ioComplexStringPrinter@@QAAXMPBDZZ ; ioComplexStringPrinter::AddTextPiece
  001bb	83 c4 0c	 add	 esp, 12			; 0000000cH

; 832  : 			kPrinter[0].SetTextColor( TCT_DEFAULT_DARKGRAY );

  001be	68 3a 3a 3a ff	 push	 -12961222		; ff3a3a3aH
  001c3	8d 8d 50 ff ff
	ff		 lea	 ecx, DWORD PTR _kPrinter$[ebp]
  001c9	e8 00 00 00 00	 call	 ?SetTextColor@ioComplexStringPrinter@@QAEXK@Z ; ioComplexStringPrinter::SetTextColor

; 833  : 			kPrinter[0].AddTextPiece( FONT_SIZE_12, ", " );

  001ce	f3 0f 10 05 00
	00 00 00	 movss	 xmm0, DWORD PTR __real@3f19999a
  001d6	68 00 00 00 00	 push	 OFFSET ??_C@_02KEGNLNML@?0?5?$AA@
  001db	51		 push	 ecx
  001dc	8d 85 50 ff ff
	ff		 lea	 eax, DWORD PTR _kPrinter$[ebp]
  001e2	f3 0f 11 04 24	 movss	 DWORD PTR [esp], xmm0
  001e7	50		 push	 eax
  001e8	e8 00 00 00 00	 call	 ?AddTextPiece@ioComplexStringPrinter@@QAAXMPBDZZ ; ioComplexStringPrinter::AddTextPiece
  001ed	83 c4 0c	 add	 esp, 12			; 0000000cH

; 834  : 			kPrinter[0].SetTextColor( TCT_DEFAULT_RED );

  001f0	68 00 16 b9 ff	 push	 -4647424		; ffb91600H
  001f5	8d 8d 50 ff ff
	ff		 lea	 ecx, DWORD PTR _kPrinter$[ebp]
  001fb	e8 00 00 00 00	 call	 ?SetTextColor@ioComplexStringPrinter@@QAEXK@Z ; ioComplexStringPrinter::SetTextColor

; 835  : 			kPrinter[0].AddTextPiece( FONT_SIZE_12, STR(3) );

  00200	6a 00		 push	 0
  00202	6a 03		 push	 3
  00204	eb 27		 jmp	 SHORT $LN33@ProcessCus
$LN6@ProcessCus:

; 836  : 		}		
; 837  : 		else if( kSlot.m_dwMaleCustom > 0 )
; 838  : 		{
; 839  : 			kPrinter[0].SetTextColor( TCT_DEFAULT_BLUE );

  00206	e8 00 00 00 00	 call	 ?SetTextColor@ioComplexStringPrinter@@QAEXK@Z ; ioComplexStringPrinter::SetTextColor

; 840  : 			kPrinter[0].AddTextPiece( FONT_SIZE_12, STR(4) );

  0020b	6a 00		 push	 0
  0020d	6a 04		 push	 4
  0020f	eb 1c		 jmp	 SHORT $LN33@ProcessCus
$LN4@ProcessCus:

; 841  : 		}
; 842  : 		else if( kSlot.m_dwFemaleCustom > 0 )

  00211	39 85 24 ff ff
	ff		 cmp	 DWORD PTR _kSlot$[ebp+32], eax
  00217	76 3e		 jbe	 SHORT $LN2@ProcessCus

; 843  : 		{
; 844  : 			kPrinter[0].SetTextColor( TCT_DEFAULT_RED );

  00219	68 00 16 b9 ff	 push	 -4647424		; ffb91600H
  0021e	8d 8d 50 ff ff
	ff		 lea	 ecx, DWORD PTR _kPrinter$[ebp]
  00224	e8 00 00 00 00	 call	 ?SetTextColor@ioComplexStringPrinter@@QAEXK@Z ; ioComplexStringPrinter::SetTextColor

; 845  : 			kPrinter[0].AddTextPiece( FONT_SIZE_12, STR(5) );

  00229	6a 00		 push	 0
  0022b	6a 05		 push	 5
$LN33@ProcessCus:
  0022d	68 00 00 00 00	 push	 OFFSET ??_C@_00CNPNBAHC@?$AA@
  00232	53		 push	 ebx
  00233	ff d6		 call	 esi
  00235	8b c8		 mov	 ecx, eax
  00237	ff d7		 call	 edi
  00239	f3 0f 10 05 00
	00 00 00	 movss	 xmm0, DWORD PTR __real@3f19999a
  00241	50		 push	 eax
  00242	51		 push	 ecx
  00243	8d 85 50 ff ff
	ff		 lea	 eax, DWORD PTR _kPrinter$[ebp]
  00249	f3 0f 11 04 24	 movss	 DWORD PTR [esp], xmm0
  0024e	50		 push	 eax
  0024f	e8 00 00 00 00	 call	 ?AddTextPiece@ioComplexStringPrinter@@QAAXMPBDZZ ; ioComplexStringPrinter::AddTextPiece
  00254	83 c4 0c	 add	 esp, 12			; 0000000cH
$LN2@ProcessCus:

; 846  : 		}
; 847  : 		kPrinter[0].SetTextColor( TCT_DEFAULT_DARKGRAY );

  00257	68 3a 3a 3a ff	 push	 -12961222		; ff3a3a3aH
  0025c	8d 8d 50 ff ff
	ff		 lea	 ecx, DWORD PTR _kPrinter$[ebp]
  00262	e8 00 00 00 00	 call	 ?SetTextColor@ioComplexStringPrinter@@QAEXK@Z ; ioComplexStringPrinter::SetTextColor

; 848  : 		kPrinter[0].AddTextPiece( FONT_SIZE_12, STR(6) );

  00267	6a 00		 push	 0
  00269	6a 06		 push	 6
  0026b	68 00 00 00 00	 push	 OFFSET ??_C@_00CNPNBAHC@?$AA@
  00270	53		 push	 ebx
  00271	ff d6		 call	 esi
  00273	8b c8		 mov	 ecx, eax
  00275	ff d7		 call	 edi
  00277	f3 0f 10 05 00
	00 00 00	 movss	 xmm0, DWORD PTR __real@3f19999a
  0027f	50		 push	 eax
  00280	51		 push	 ecx
  00281	8d 85 50 ff ff
	ff		 lea	 eax, DWORD PTR _kPrinter$[ebp]
  00287	f3 0f 11 04 24	 movss	 DWORD PTR [esp], xmm0
  0028c	50		 push	 eax
  0028d	e8 00 00 00 00	 call	 ?AddTextPiece@ioComplexStringPrinter@@QAAXMPBDZZ ; ioComplexStringPrinter::AddTextPiece
  00292	83 c4 0c	 add	 esp, 12			; 0000000cH

; 849  : 
; 850  : 		kPrinter[1].SetTextStyle( TS_NORMAL );

  00295	6a 00		 push	 0
  00297	8d 8d 70 ff ff
	ff		 lea	 ecx, DWORD PTR _kPrinter$[ebp+32]
  0029d	e8 00 00 00 00	 call	 ?SetTextStyle@ioComplexStringPrinter@@QAEXW4TextStyle@@@Z ; ioComplexStringPrinter::SetTextStyle

; 851  : 		kPrinter[1].SetBkColor( 0, 0, 0 );

  002a2	33 c0		 xor	 eax, eax
  002a4	50		 push	 eax
  002a5	50		 push	 eax
  002a6	50		 push	 eax
  002a7	8d 8d 70 ff ff
	ff		 lea	 ecx, DWORD PTR _kPrinter$[ebp+32]
  002ad	e8 00 00 00 00	 call	 ?SetBkColor@ioComplexStringPrinter@@QAEXHHH@Z ; ioComplexStringPrinter::SetBkColor

; 852  : 		kPrinter[1].SetTextColor( TCT_DEFAULT_GRAY );

  002b2	68 6e 6e 6e ff	 push	 -9539986		; ff6e6e6eH
  002b7	8d 8d 70 ff ff
	ff		 lea	 ecx, DWORD PTR _kPrinter$[ebp+32]
  002bd	e8 00 00 00 00	 call	 ?SetTextColor@ioComplexStringPrinter@@QAEXK@Z ; ioComplexStringPrinter::SetTextColor

; 853  : 		kPrinter[1].AddTextPiece( FONT_SIZE_12, STR(7) );

  002c2	6a 00		 push	 0
  002c4	6a 07		 push	 7
  002c6	68 00 00 00 00	 push	 OFFSET ??_C@_00CNPNBAHC@?$AA@
  002cb	53		 push	 ebx
  002cc	ff d6		 call	 esi
  002ce	8b c8		 mov	 ecx, eax
  002d0	ff d7		 call	 edi
  002d2	f3 0f 10 05 00
	00 00 00	 movss	 xmm0, DWORD PTR __real@3f19999a
  002da	50		 push	 eax
  002db	51		 push	 ecx
  002dc	8d 85 70 ff ff
	ff		 lea	 eax, DWORD PTR _kPrinter$[ebp+32]
  002e2	f3 0f 11 04 24	 movss	 DWORD PTR [esp], xmm0
  002e7	50		 push	 eax
  002e8	e8 00 00 00 00	 call	 ?AddTextPiece@ioComplexStringPrinter@@QAAXMPBDZZ ; ioComplexStringPrinter::AddTextPiece
  002ed	83 c4 0c	 add	 esp, 12			; 0000000cH

; 854  : 		kPrinter[1].SetTextColor( TCT_DEFAULT_GREEN );

  002f0	68 22 72 11 ff	 push	 -15633886		; ff117222H
  002f5	8d 8d 70 ff ff
	ff		 lea	 ecx, DWORD PTR _kPrinter$[ebp+32]
  002fb	e8 00 00 00 00	 call	 ?SetTextColor@ioComplexStringPrinter@@QAEXK@Z ; ioComplexStringPrinter::SetTextColor

; 855  : 		kPrinter[1].AddTextPiece( FONT_SIZE_12, STR(8) );

  00300	6a 00		 push	 0
  00302	6a 08		 push	 8
  00304	68 00 00 00 00	 push	 OFFSET ??_C@_00CNPNBAHC@?$AA@
  00309	53		 push	 ebx
  0030a	ff d6		 call	 esi
  0030c	8b c8		 mov	 ecx, eax
  0030e	ff d7		 call	 edi
  00310	f3 0f 10 05 00
	00 00 00	 movss	 xmm0, DWORD PTR __real@3f19999a
  00318	50		 push	 eax
  00319	51		 push	 ecx
  0031a	8d 85 70 ff ff
	ff		 lea	 eax, DWORD PTR _kPrinter$[ebp+32]
  00320	f3 0f 11 04 24	 movss	 DWORD PTR [esp], xmm0
  00325	50		 push	 eax
  00326	e8 00 00 00 00	 call	 ?AddTextPiece@ioComplexStringPrinter@@QAAXMPBDZZ ; ioComplexStringPrinter::AddTextPiece
  0032b	83 c4 0c	 add	 esp, 12			; 0000000cH

; 856  : 		kPrinter[1].SetTextColor( TCT_DEFAULT_GRAY );

  0032e	68 6e 6e 6e ff	 push	 -9539986		; ff6e6e6eH
  00333	8d 8d 70 ff ff
	ff		 lea	 ecx, DWORD PTR _kPrinter$[ebp+32]
  00339	e8 00 00 00 00	 call	 ?SetTextColor@ioComplexStringPrinter@@QAEXK@Z ; ioComplexStringPrinter::SetTextColor

; 857  : 		kPrinter[1].AddTextPiece( FONT_SIZE_12, STR(9) );

  0033e	6a 00		 push	 0
  00340	6a 09		 push	 9
  00342	68 00 00 00 00	 push	 OFFSET ??_C@_00CNPNBAHC@?$AA@
  00347	53		 push	 ebx
  00348	ff d6		 call	 esi
  0034a	8b c8		 mov	 ecx, eax
  0034c	ff d7		 call	 edi
  0034e	f3 0f 10 05 00
	00 00 00	 movss	 xmm0, DWORD PTR __real@3f19999a
  00356	50		 push	 eax
  00357	51		 push	 ecx
  00358	8d 85 70 ff ff
	ff		 lea	 eax, DWORD PTR _kPrinter$[ebp+32]
  0035e	f3 0f 11 04 24	 movss	 DWORD PTR [esp], xmm0
  00363	50		 push	 eax
  00364	e8 00 00 00 00	 call	 ?AddTextPiece@ioComplexStringPrinter@@QAAXMPBDZZ ; ioComplexStringPrinter::AddTextPiece
  00369	83 c4 0c	 add	 esp, 12			; 0000000cH
  0036c	33 f6		 xor	 esi, esi
$LN8@ProcessCus:

; 858  : 	}
; 859  : 
; 860  : 	ItemCustomThumbnailTooltip *pTooltip = dynamic_cast<ItemCustomThumbnailTooltip*>(g_GUIMgr.FindWnd( TRADE_ITEM_REG_TOOLTIP ));

  0036e	56		 push	 esi
  0036f	68 00 00 00 00	 push	 OFFSET ??_R0?AVItemCustomThumbnailTooltip@@@8
  00374	68 00 00 00 00	 push	 OFFSET ??_R0?AVioWnd@@@8
  00379	56		 push	 esi
  0037a	68 20 18 00 00	 push	 6176			; 00001820H
  0037f	e8 00 00 00 00	 call	 ?GetSingleton@ioSP2GUIManager@@SAAAV1@XZ ; ioSP2GUIManager::GetSingleton
  00384	8b c8		 mov	 ecx, eax
  00386	ff 15 00 00 00
	00		 call	 DWORD PTR __imp_?FindWnd@ioGUIManager@@QAEPAVioWnd@@K@Z
  0038c	50		 push	 eax
  0038d	e8 00 00 00 00	 call	 ___RTDynamicCast
  00392	83 c4 14	 add	 esp, 20			; 00000014H

; 861  : 	if( pTooltip )

  00395	3b c6		 cmp	 eax, esi
  00397	74 15		 je	 SHORT $LN1@ProcessCus

; 862  : 	{
; 863  : 		pTooltip->SetTooltipText( kPrinter, kSlot );

  00399	8d 8d 04 ff ff
	ff		 lea	 ecx, DWORD PTR _kSlot$[ebp]
  0039f	51		 push	 ecx
  003a0	8d 8d 50 ff ff
	ff		 lea	 ecx, DWORD PTR _kPrinter$[ebp]
  003a6	51		 push	 ecx
  003a7	8b c8		 mov	 ecx, eax
  003a9	e8 00 00 00 00	 call	 ?SetTooltipText@ItemCustomThumbnailTooltip@@QAEXPAVioComplexStringPrinter@@AAUEXTRAITEMSLOT@@@Z ; ItemCustomThumbnailTooltip::SetTooltipText
$LN1@ProcessCus:

; 864  : 	}
; 865  : }

  003ae	68 00 00 00 00	 push	 OFFSET ??1ioComplexStringPrinter@@QAE@XZ ; ioComplexStringPrinter::~ioComplexStringPrinter
  003b3	6a 05		 push	 5
  003b5	6a 20		 push	 32			; 00000020H
  003b7	8d 85 50 ff ff
	ff		 lea	 eax, DWORD PTR _kPrinter$[ebp]
  003bd	50		 push	 eax
  003be	c6 45 fc 00	 mov	 BYTE PTR __$EHRec$[ebp+8], 0
  003c2	e8 00 00 00 00	 call	 ??_M@YGXPAXIHP6EX0@Z@Z
  003c7	83 4d fc ff	 or	 DWORD PTR __$EHRec$[ebp+8], -1
  003cb	8d 8d 04 ff ff
	ff		 lea	 ecx, DWORD PTR _kSlot$[ebp]
  003d1	e8 00 00 00 00	 call	 ??1EXTRAITEMSLOT@@QAE@XZ
  003d6	e8 00 00 00 00	 call	 __EH_epilog3_GS
  003db	c3		 ret	 0
_TEXT	ENDS
;	COMDAT text$x
text$x	SEGMENT
__unwindfunclet$?ProcessCustomBtnTooltip@TradeItemRegisterWnd@@IAEXXZ$0:
  00000	8d 8d 04 ff ff
	ff		 lea	 ecx, DWORD PTR _kSlot$[ebp]
  00006	e9 00 00 00 00	 jmp	 ??1EXTRAITEMSLOT@@QAE@XZ
__unwindfunclet$?ProcessCustomBtnTooltip@TradeItemRegisterWnd@@IAEXXZ$1:
  0000b	68 00 00 00 00	 push	 OFFSET ??1ioComplexStringPrinter@@QAE@XZ ; ioComplexStringPrinter::~ioComplexStringPrinter
  00010	6a 05		 push	 5
  00012	6a 20		 push	 32			; 00000020H
  00014	8d 85 50 ff ff
	ff		 lea	 eax, DWORD PTR _kPrinter$[ebp]
  0001a	50		 push	 eax
  0001b	e8 00 00 00 00	 call	 ??_M@YGXPAXIHP6EX0@Z@Z
  00020	c3		 ret	 0
__unwindfunclet$?ProcessCustomBtnTooltip@TradeItemRegisterWnd@@IAEXXZ$2:
  00021	8d 8d bc fe ff
	ff		 lea	 ecx, DWORD PTR _kItemInfo$508457[ebp]
  00027	e9 00 00 00 00	 jmp	 ??1tagInventoryItemInfo@@QAE@XZ
__ehhandler$?ProcessCustomBtnTooltip@TradeItemRegisterWnd@@IAEXXZ:
  0002c	8b 54 24 08	 mov	 edx, DWORD PTR [esp+8]
  00030	8d 42 0c	 lea	 eax, DWORD PTR [edx+12]
  00033	8b 8a b8 fe ff
	ff		 mov	 ecx, DWORD PTR [edx-328]
  00039	33 c8		 xor	 ecx, eax
  0003b	e8 00 00 00 00	 call	 @__security_check_cookie@4
  00040	8b 4a fc	 mov	 ecx, DWORD PTR [edx-4]
  00043	33 c8		 xor	 ecx, eax
  00045	e8 00 00 00 00	 call	 @__security_check_cookie@4
  0004a	b8 00 00 00 00	 mov	 eax, OFFSET __ehfuncinfo$?ProcessCustomBtnTooltip@TradeItemRegisterWnd@@IAEXXZ
  0004f	e9 00 00 00 00	 jmp	 ___CxxFrameHandler3
text$x	ENDS
?ProcessCustomBtnTooltip@TradeItemRegisterWnd@@IAEXXZ ENDP ; TradeItemRegisterWnd::ProcessCustomBtnTooltip
PUBLIC	__$ArrayPad$
PUBLIC	?SendTradeItemRegister@TradeItemRegisterWnd@@QAEXH_J@Z ; TradeItemRegisterWnd::SendTradeItemRegister
EXTRN	??1SP2Packet@@UAE@XZ:PROC			; SP2Packet::~SP2Packet
EXTRN	?MouseBusy@TCPNetwork@@YAX_N@Z:PROC		; TCPNetwork::MouseBusy
EXTRN	?SendToServer@TCPNetwork@@YAXAAVSP2Packet@@@Z:PROC ; TCPNetwork::SendToServer
EXTRN	??6SP2Packet@@QAEAAV0@_J@Z:PROC			; SP2Packet::operator<<
EXTRN	??6SP2Packet@@QAEAAV0@H@Z:PROC			; SP2Packet::operator<<
EXTRN	??0SP2Packet@@QAE@K@Z:PROC			; SP2Packet::SP2Packet
EXTRN	__chkstk:PROC
;	COMDAT xdata$x
; File d:\lost saga for developer\youtube\tutorial\source\src\lsclient\iomyinfo.h
xdata$x	SEGMENT
__unwindtable$?SendTradeItemRegister@TradeItemRegisterWnd@@QAEXH_J@Z DD 0ffffffffH
	DD	FLAT:__unwindfunclet$?SendTradeItemRegister@TradeItemRegisterWnd@@QAEXH_J@Z$0
	DD	00H
	DD	FLAT:__unwindfunclet$?SendTradeItemRegister@TradeItemRegisterWnd@@QAEXH_J@Z$1
__ehfuncinfo$?SendTradeItemRegister@TradeItemRegisterWnd@@QAEXH_J@Z DD 019930522H
	DD	02H
	DD	FLAT:__unwindtable$?SendTradeItemRegister@TradeItemRegisterWnd@@QAEXH_J@Z
	DD	2 DUP(00H)
	DD	2 DUP(00H)
	DD	00H
	DD	01H
; Function compile flags: /Ogsp
; File d:\lost saga for developer\youtube\tutorial\source\src\lsclient\gui\tradeitemregisterwnd.cpp
xdata$x	ENDS
;	COMDAT ?SendTradeItemRegister@TradeItemRegisterWnd@@QAEXH_J@Z
_TEXT	SEGMENT
_kSlot$ = -32880					; size = 72
_kPacket$ = -32808					; size = 32792
__$ArrayPad$ = -16					; size = 4
__$EHRec$ = -12						; size = 12
_iIndex$ = 8						; size = 4
_iPrice$ = 12						; size = 8
?SendTradeItemRegister@TradeItemRegisterWnd@@QAEXH_J@Z PROC ; TradeItemRegisterWnd::SendTradeItemRegister, COMDAT
; _this$ = ecx

; 914  : {

  00000	55		 push	 ebp
  00001	8b ec		 mov	 ebp, esp
  00003	6a ff		 push	 -1
  00005	68 00 00 00 00	 push	 __ehhandler$?SendTradeItemRegister@TradeItemRegisterWnd@@QAEXH_J@Z
  0000a	64 a1 00 00 00
	00		 mov	 eax, DWORD PTR fs:0
  00010	50		 push	 eax
  00011	b8 64 80 00 00	 mov	 eax, 32868		; 00008064H
  00016	e8 00 00 00 00	 call	 __chkstk
  0001b	a1 00 00 00 00	 mov	 eax, DWORD PTR ___security_cookie
  00020	33 c5		 xor	 eax, ebp
  00022	89 45 f0	 mov	 DWORD PTR __$ArrayPad$[ebp], eax
  00025	56		 push	 esi
  00026	57		 push	 edi
  00027	50		 push	 eax
  00028	8d 45 f4	 lea	 eax, DWORD PTR __$EHRec$[ebp]
  0002b	64 a3 00 00 00
	00		 mov	 DWORD PTR fs:0, eax
  00031	8b f9		 mov	 edi, ecx

; 915  : 	ioUserExtraItem *pItem = g_MyInfo.GetUserExtraItem();

  00033	e8 00 00 00 00	 call	 ?GetSingleton@ioMyInfo@@SAAAV1@XZ ; ioMyInfo::GetSingleton
  00038	8d b0 ac 01 00
	00		 lea	 esi, DWORD PTR [eax+428]

; 916  : 	if( !pItem ) return;

  0003e	85 f6		 test	 esi, esi
  00040	0f 84 9f 00 00
	00		 je	 $LN3@SendTradeI

; 917  : 
; 918  : 	EXTRAITEMSLOT kSlot;

  00046	8d 8d 90 7f ff
	ff		 lea	 ecx, DWORD PTR _kSlot$[ebp]
  0004c	e8 00 00 00 00	 call	 ??0EXTRAITEMSLOT@@QAE@XZ ; EXTRAITEMSLOT::EXTRAITEMSLOT
  00051	83 65 fc 00	 and	 DWORD PTR __$EHRec$[ebp+8], 0

; 919  : 	if( !pItem->GetExtraItem( iIndex, kSlot ) )

  00055	8d 85 90 7f ff
	ff		 lea	 eax, DWORD PTR _kSlot$[ebp]
  0005b	50		 push	 eax
  0005c	ff 75 08	 push	 DWORD PTR _iIndex$[ebp]
  0005f	8b ce		 mov	 ecx, esi
  00061	e8 00 00 00 00	 call	 ?GetExtraItem@ioUserExtraItem@@QAE_NHAAUEXTRAITEMSLOT@@@Z ; ioUserExtraItem::GetExtraItem
  00066	84 c0		 test	 al, al

; 920  : 		return;

  00068	74 6c		 je	 SHORT $LN10@SendTradeI

; 921  : 
; 922  : 	SP2Packet kPacket( CTPK_TRADE_CREATE );

  0006a	68 12 02 00 00	 push	 530			; 00000212H
  0006f	8d 8d d8 7f ff
	ff		 lea	 ecx, DWORD PTR _kPacket$[ebp]
  00075	e8 00 00 00 00	 call	 ??0SP2Packet@@QAE@K@Z	; SP2Packet::SP2Packet

; 923  : 	kPacket << PRESENT_EXTRAITEM;

  0007a	6a 05		 push	 5
  0007c	8d 8d d8 7f ff
	ff		 lea	 ecx, DWORD PTR _kPacket$[ebp]
  00082	c6 45 fc 01	 mov	 BYTE PTR __$EHRec$[ebp+8], 1
  00086	e8 00 00 00 00	 call	 ??6SP2Packet@@QAEAAV0@H@Z ; SP2Packet::operator<<

; 924  : 	kPacket << iIndex;

  0008b	ff 75 08	 push	 DWORD PTR _iIndex$[ebp]
  0008e	8d 8d d8 7f ff
	ff		 lea	 ecx, DWORD PTR _kPacket$[ebp]
  00094	e8 00 00 00 00	 call	 ??6SP2Packet@@QAEAAV0@H@Z ; SP2Packet::operator<<

; 925  : 	kPacket << iPrice;

  00099	ff 75 10	 push	 DWORD PTR _iPrice$[ebp+4]
  0009c	8d 8d d8 7f ff
	ff		 lea	 ecx, DWORD PTR _kPacket$[ebp]
  000a2	ff 75 0c	 push	 DWORD PTR _iPrice$[ebp]
  000a5	e8 00 00 00 00	 call	 ??6SP2Packet@@QAEAAV0@_J@Z ; SP2Packet::operator<<

; 926  : 	TCPNetwork::SendToServer( kPacket );

  000aa	8d 85 d8 7f ff
	ff		 lea	 eax, DWORD PTR _kPacket$[ebp]
  000b0	50		 push	 eax
  000b1	e8 00 00 00 00	 call	 ?SendToServer@TCPNetwork@@YAXAAVSP2Packet@@@Z ; TCPNetwork::SendToServer

; 927  : 	TCPNetwork::MouseBusy( true );

  000b6	6a 01		 push	 1
  000b8	e8 00 00 00 00	 call	 ?MouseBusy@TCPNetwork@@YAX_N@Z ; TCPNetwork::MouseBusy
  000bd	59		 pop	 ecx
  000be	59		 pop	 ecx

; 928  : 
; 929  : 	HideWnd();

  000bf	8b cf		 mov	 ecx, edi
  000c1	ff 15 00 00 00
	00		 call	 DWORD PTR __imp_?HideWnd@ioWnd@@QAEXXZ

; 930  : }

  000c7	8d 8d d8 7f ff
	ff		 lea	 ecx, DWORD PTR _kPacket$[ebp]
  000cd	c6 45 fc 00	 mov	 BYTE PTR __$EHRec$[ebp+8], 0
  000d1	e8 00 00 00 00	 call	 ??1SP2Packet@@UAE@XZ	; SP2Packet::~SP2Packet
$LN10@SendTradeI:
  000d6	83 4d fc ff	 or	 DWORD PTR __$EHRec$[ebp+8], -1
  000da	8d 8d 90 7f ff
	ff		 lea	 ecx, DWORD PTR _kSlot$[ebp]
  000e0	e8 00 00 00 00	 call	 ??1EXTRAITEMSLOT@@QAE@XZ
$LN3@SendTradeI:
  000e5	8b 4d f4	 mov	 ecx, DWORD PTR __$EHRec$[ebp]
  000e8	64 89 0d 00 00
	00 00		 mov	 DWORD PTR fs:0, ecx
  000ef	59		 pop	 ecx
  000f0	5f		 pop	 edi
  000f1	5e		 pop	 esi
  000f2	8b 4d f0	 mov	 ecx, DWORD PTR __$ArrayPad$[ebp]
  000f5	33 cd		 xor	 ecx, ebp
  000f7	e8 00 00 00 00	 call	 @__security_check_cookie@4
  000fc	c9		 leave
  000fd	c2 0c 00	 ret	 12			; 0000000cH
_TEXT	ENDS
;	COMDAT text$x
text$x	SEGMENT
__unwindfunclet$?SendTradeItemRegister@TradeItemRegisterWnd@@QAEXH_J@Z$0:
  00000	8d 8d 90 7f ff
	ff		 lea	 ecx, DWORD PTR _kSlot$[ebp]
  00006	e9 00 00 00 00	 jmp	 ??1EXTRAITEMSLOT@@QAE@XZ
__unwindfunclet$?SendTradeItemRegister@TradeItemRegisterWnd@@QAEXH_J@Z$1:
  0000b	8d 8d d8 7f ff
	ff		 lea	 ecx, DWORD PTR _kPacket$[ebp]
  00011	e9 00 00 00 00	 jmp	 ??1SP2Packet@@UAE@XZ	; SP2Packet::~SP2Packet
__ehhandler$?SendTradeItemRegister@TradeItemRegisterWnd@@QAEXH_J@Z:
  00016	8b 54 24 08	 mov	 edx, DWORD PTR [esp+8]
  0001a	8d 42 0c	 lea	 eax, DWORD PTR [edx+12]
  0001d	8b 8a 90 7f ff
	ff		 mov	 ecx, DWORD PTR [edx-32880]
  00023	33 c8		 xor	 ecx, eax
  00025	e8 00 00 00 00	 call	 @__security_check_cookie@4
  0002a	8b 4a fc	 mov	 ecx, DWORD PTR [edx-4]
  0002d	33 c8		 xor	 ecx, eax
  0002f	e8 00 00 00 00	 call	 @__security_check_cookie@4
  00034	b8 00 00 00 00	 mov	 eax, OFFSET __ehfuncinfo$?SendTradeItemRegister@TradeItemRegisterWnd@@QAEXH_J@Z
  00039	e9 00 00 00 00	 jmp	 ___CxxFrameHandler3
text$x	ENDS
?SendTradeItemRegister@TradeItemRegisterWnd@@QAEXH_J@Z ENDP ; TradeItemRegisterWnd::SendTradeItemRegister
PUBLIC	??0?$vector@UtagInventoryItemInfo@@V?$allocator@UtagInventoryItemInfo@@@std@@@std@@QAE@XZ ; std::vector<tagInventoryItemInfo,std::allocator<tagInventoryItemInfo> >::vector<tagInventoryItemInfo,std::allocator<tagInventoryItemInfo> >
; Function compile flags: /Ogsp
; File c:\program files (x86)\microsoft visual studio 10.0\vc\include\vector
;	COMDAT ??0?$vector@UtagInventoryItemInfo@@V?$allocator@UtagInventoryItemInfo@@@std@@@std@@QAE@XZ
_TEXT	SEGMENT
??0?$vector@UtagInventoryItemInfo@@V?$allocator@UtagInventoryItemInfo@@@std@@@std@@QAE@XZ PROC ; std::vector<tagInventoryItemInfo,std::allocator<tagInventoryItemInfo> >::vector<tagInventoryItemInfo,std::allocator<tagInventoryItemInfo> >, COMDAT
; _this$ = ecx

; 507  : 		{	// construct empty vector

  00000	8b c1		 mov	 eax, ecx
  00002	33 c9		 xor	 ecx, ecx
  00004	89 08		 mov	 DWORD PTR [eax], ecx
  00006	89 48 04	 mov	 DWORD PTR [eax+4], ecx
  00009	89 48 08	 mov	 DWORD PTR [eax+8], ecx

; 508  : 		}

  0000c	c3		 ret	 0
??0?$vector@UtagInventoryItemInfo@@V?$allocator@UtagInventoryItemInfo@@@std@@@std@@QAE@XZ ENDP ; std::vector<tagInventoryItemInfo,std::allocator<tagInventoryItemInfo> >::vector<tagInventoryItemInfo,std::allocator<tagInventoryItemInfo> >
_TEXT	ENDS
PUBLIC	?begin@?$vector@UtagInventoryItemInfo@@V?$allocator@UtagInventoryItemInfo@@@std@@@std@@QAE?AV?$_Vector_iterator@V?$_Vector_val@UtagInventoryItemInfo@@V?$allocator@UtagInventoryItemInfo@@@std@@@std@@@2@XZ ; std::vector<tagInventoryItemInfo,std::allocator<tagInventoryItemInfo> >::begin
; Function compile flags: /Ogsp
;	COMDAT ?begin@?$vector@UtagInventoryItemInfo@@V?$allocator@UtagInventoryItemInfo@@@std@@@std@@QAE?AV?$_Vector_iterator@V?$_Vector_val@UtagInventoryItemInfo@@V?$allocator@UtagInventoryItemInfo@@@std@@@std@@@2@XZ
_TEXT	SEGMENT
___$ReturnUdt$ = 8					; size = 4
?begin@?$vector@UtagInventoryItemInfo@@V?$allocator@UtagInventoryItemInfo@@@std@@@std@@QAE?AV?$_Vector_iterator@V?$_Vector_val@UtagInventoryItemInfo@@V?$allocator@UtagInventoryItemInfo@@@std@@@std@@@2@XZ PROC ; std::vector<tagInventoryItemInfo,std::allocator<tagInventoryItemInfo> >::begin, COMDAT
; _this$ = ecx

; 781  : 		{	// return iterator for beginning of mutable sequence

  00000	55		 push	 ebp
  00001	8b ec		 mov	 ebp, esp

; 782  : 		return (iterator(this->_Myfirst, this));

  00003	8b 09		 mov	 ecx, DWORD PTR [ecx]
  00005	8b 45 08	 mov	 eax, DWORD PTR ___$ReturnUdt$[ebp]
  00008	89 08		 mov	 DWORD PTR [eax], ecx

; 783  : 		}

  0000a	5d		 pop	 ebp
  0000b	c2 04 00	 ret	 4
?begin@?$vector@UtagInventoryItemInfo@@V?$allocator@UtagInventoryItemInfo@@@std@@@std@@QAE?AV?$_Vector_iterator@V?$_Vector_val@UtagInventoryItemInfo@@V?$allocator@UtagInventoryItemInfo@@@std@@@std@@@2@XZ ENDP ; std::vector<tagInventoryItemInfo,std::allocator<tagInventoryItemInfo> >::begin
_TEXT	ENDS
PUBLIC	?end@?$vector@UtagInventoryItemInfo@@V?$allocator@UtagInventoryItemInfo@@@std@@@std@@QAE?AV?$_Vector_iterator@V?$_Vector_val@UtagInventoryItemInfo@@V?$allocator@UtagInventoryItemInfo@@@std@@@std@@@2@XZ ; std::vector<tagInventoryItemInfo,std::allocator<tagInventoryItemInfo> >::end
; Function compile flags: /Ogsp
;	COMDAT ?end@?$vector@UtagInventoryItemInfo@@V?$allocator@UtagInventoryItemInfo@@@std@@@std@@QAE?AV?$_Vector_iterator@V?$_Vector_val@UtagInventoryItemInfo@@V?$allocator@UtagInventoryItemInfo@@@std@@@std@@@2@XZ
_TEXT	SEGMENT
___$ReturnUdt$ = 8					; size = 4
?end@?$vector@UtagInventoryItemInfo@@V?$allocator@UtagInventoryItemInfo@@@std@@@std@@QAE?AV?$_Vector_iterator@V?$_Vector_val@UtagInventoryItemInfo@@V?$allocator@UtagInventoryItemInfo@@@std@@@std@@@2@XZ PROC ; std::vector<tagInventoryItemInfo,std::allocator<tagInventoryItemInfo> >::end, COMDAT
; _this$ = ecx

; 791  : 		{	// return iterator for end of mutable sequence

  00000	55		 push	 ebp
  00001	8b ec		 mov	 ebp, esp

; 792  : 		return (iterator(this->_Mylast, this));

  00003	8b 49 04	 mov	 ecx, DWORD PTR [ecx+4]
  00006	8b 45 08	 mov	 eax, DWORD PTR ___$ReturnUdt$[ebp]
  00009	89 08		 mov	 DWORD PTR [eax], ecx

; 793  : 		}

  0000b	5d		 pop	 ebp
  0000c	c2 04 00	 ret	 4
?end@?$vector@UtagInventoryItemInfo@@V?$allocator@UtagInventoryItemInfo@@@std@@@std@@QAE?AV?$_Vector_iterator@V?$_Vector_val@UtagInventoryItemInfo@@V?$allocator@UtagInventoryItemInfo@@@std@@@std@@@2@XZ ENDP ; std::vector<tagInventoryItemInfo,std::allocator<tagInventoryItemInfo> >::end
_TEXT	ENDS
PUBLIC	??9?$_Vector_const_iterator@V?$_Vector_val@UtagInventoryItemInfo@@V?$allocator@UtagInventoryItemInfo@@@std@@@std@@@std@@QBE_NABV01@@Z ; std::_Vector_const_iterator<std::_Vector_val<tagInventoryItemInfo,std::allocator<tagInventoryItemInfo> > >::operator!=
; Function compile flags: /Ogsp
;	COMDAT ??9?$_Vector_const_iterator@V?$_Vector_val@UtagInventoryItemInfo@@V?$allocator@UtagInventoryItemInfo@@@std@@@std@@@std@@QBE_NABV01@@Z
_TEXT	SEGMENT
__Right$ = 8						; size = 4
??9?$_Vector_const_iterator@V?$_Vector_val@UtagInventoryItemInfo@@V?$allocator@UtagInventoryItemInfo@@@std@@@std@@@std@@QBE_NABV01@@Z PROC ; std::_Vector_const_iterator<std::_Vector_val<tagInventoryItemInfo,std::allocator<tagInventoryItemInfo> > >::operator!=, COMDAT
; _this$ = ecx

; 207  : 		{	// test for iterator inequality

  00000	55		 push	 ebp
  00001	8b ec		 mov	 ebp, esp

; 208  : 		return (!(*this == _Right));

  00003	8b 01		 mov	 eax, DWORD PTR [ecx]
  00005	8b 55 08	 mov	 edx, DWORD PTR __Right$[ebp]
  00008	33 c9		 xor	 ecx, ecx
  0000a	3b 02		 cmp	 eax, DWORD PTR [edx]
  0000c	0f 95 c0	 setne	 al

; 209  : 		}

  0000f	5d		 pop	 ebp
  00010	c2 04 00	 ret	 4
??9?$_Vector_const_iterator@V?$_Vector_val@UtagInventoryItemInfo@@V?$allocator@UtagInventoryItemInfo@@@std@@@std@@@std@@QBE_NABV01@@Z ENDP ; std::_Vector_const_iterator<std::_Vector_val<tagInventoryItemInfo,std::allocator<tagInventoryItemInfo> > >::operator!=
_TEXT	ENDS
PUBLIC	??$_Cons_val@V?$allocator@UtagInventoryItemInfo@@@std@@UtagInventoryItemInfo@@ABU3@@std@@YAXAAV?$allocator@UtagInventoryItemInfo@@@0@PAUtagInventoryItemInfo@@ABU2@@Z ; std::_Cons_val<std::allocator<tagInventoryItemInfo>,tagInventoryItemInfo,tagInventoryItemInfo const &>
; Function compile flags: /Ogsp
; File c:\program files (x86)\microsoft visual studio 10.0\vc\include\xmemory
;	COMDAT ??$_Cons_val@V?$allocator@UtagInventoryItemInfo@@@std@@UtagInventoryItemInfo@@ABU3@@std@@YAXAAV?$allocator@UtagInventoryItemInfo@@@0@PAUtagInventoryItemInfo@@ABU2@@Z
_TEXT	SEGMENT
__Alval$ = 8						; size = 4
__Pdest$ = 12						; size = 4
__Src$ = 16						; size = 4
??$_Cons_val@V?$allocator@UtagInventoryItemInfo@@@std@@UtagInventoryItemInfo@@ABU3@@std@@YAXAAV?$allocator@UtagInventoryItemInfo@@@0@PAUtagInventoryItemInfo@@ABU2@@Z PROC ; std::_Cons_val<std::allocator<tagInventoryItemInfo>,tagInventoryItemInfo,tagInventoryItemInfo const &>, COMDAT

; 279  : 	{	// construct using allocator

  00000	55		 push	 ebp
  00001	8b ec		 mov	 ebp, esp

; 280  : 	_Alval.construct(_Pdest, _STD forward<_Ty2>(_Src));

  00003	ff 75 10	 push	 DWORD PTR __Src$[ebp]
  00006	ff 75 0c	 push	 DWORD PTR __Pdest$[ebp]
  00009	e8 00 00 00 00	 call	 ??$_Construct@UtagInventoryItemInfo@@ABU1@@std@@YAXPAUtagInventoryItemInfo@@ABU1@@Z ; std::_Construct<tagInventoryItemInfo,tagInventoryItemInfo const &>
  0000e	59		 pop	 ecx
  0000f	59		 pop	 ecx

; 281  : 	}

  00010	5d		 pop	 ebp
  00011	c3		 ret	 0
??$_Cons_val@V?$allocator@UtagInventoryItemInfo@@@std@@UtagInventoryItemInfo@@ABU3@@std@@YAXAAV?$allocator@UtagInventoryItemInfo@@@0@PAUtagInventoryItemInfo@@ABU2@@Z ENDP ; std::_Cons_val<std::allocator<tagInventoryItemInfo>,tagInventoryItemInfo,tagInventoryItemInfo const &>
_TEXT	ENDS
PUBLIC	??$_Move@PAUtagInventoryItemInfo@@PAU1@@std@@YAPAUtagInventoryItemInfo@@PAU1@00@Z ; std::_Move<tagInventoryItemInfo *,tagInventoryItemInfo *>
; Function compile flags: /Ogsp
; File c:\program files (x86)\microsoft visual studio 10.0\vc\include\xutility
;	COMDAT ??$_Move@PAUtagInventoryItemInfo@@PAU1@@std@@YAPAUtagInventoryItemInfo@@PAU1@00@Z
_TEXT	SEGMENT
__Cat$512036 = -4					; size = 1
__First$ = 8						; size = 4
__Last$ = 12						; size = 4
__Dest$ = 16						; size = 4
??$_Move@PAUtagInventoryItemInfo@@PAU1@@std@@YAPAUtagInventoryItemInfo@@PAU1@00@Z PROC ; std::_Move<tagInventoryItemInfo *,tagInventoryItemInfo *>, COMDAT

; 2533 : 	{	// move [_First, _Last) to [_Dest, ...), unchecked

  00000	55		 push	 ebp
  00001	8b ec		 mov	 ebp, esp
  00003	51		 push	 ecx

; 2534 : 	return (_Move(_First, _Last,
; 2535 : 		_Dest, _Ptr_cat(_First, _Dest)));

  00004	ff 75 fc	 push	 DWORD PTR __Cat$512036[ebp]
  00007	ff 75 10	 push	 DWORD PTR __Dest$[ebp]
  0000a	ff 75 0c	 push	 DWORD PTR __Last$[ebp]
  0000d	ff 75 08	 push	 DWORD PTR __First$[ebp]
  00010	e8 00 00 00 00	 call	 ??$_Move@PAUtagInventoryItemInfo@@PAU1@@std@@YAPAUtagInventoryItemInfo@@PAU1@00U_Nonscalar_ptr_iterator_tag@0@@Z ; std::_Move<tagInventoryItemInfo *,tagInventoryItemInfo *>
  00015	83 c4 10	 add	 esp, 16			; 00000010H

; 2536 : 	}

  00018	c9		 leave
  00019	c3		 ret	 0
??$_Move@PAUtagInventoryItemInfo@@PAU1@@std@@YAPAUtagInventoryItemInfo@@PAU1@00@Z ENDP ; std::_Move<tagInventoryItemInfo *,tagInventoryItemInfo *>
_TEXT	ENDS
PUBLIC	?destroy@?$allocator@UtagInventoryItemInfo@@@std@@QAEXPAUtagInventoryItemInfo@@@Z ; std::allocator<tagInventoryItemInfo>::destroy
; Function compile flags: /Ogsp
; File c:\program files (x86)\microsoft visual studio 10.0\vc\include\xmemory
;	COMDAT ?destroy@?$allocator@UtagInventoryItemInfo@@@std@@QAEXPAUtagInventoryItemInfo@@@Z
_TEXT	SEGMENT
__Ptr$ = 8						; size = 4
?destroy@?$allocator@UtagInventoryItemInfo@@@std@@QAEXPAUtagInventoryItemInfo@@@Z PROC ; std::allocator<tagInventoryItemInfo>::destroy, COMDAT
; _this$ = ecx

; 212  : 		{	// destroy object at _Ptr

  00000	55		 push	 ebp
  00001	8b ec		 mov	 ebp, esp

; 213  : 		_Destroy(_Ptr);

  00003	8b 4d 08	 mov	 ecx, DWORD PTR __Ptr$[ebp]
  00006	83 c1 24	 add	 ecx, 36			; 00000024H
  00009	ff 15 00 00 00
	00		 call	 DWORD PTR __imp_??1ioHashString@@QAE@XZ

; 214  : 		}

  0000f	5d		 pop	 ebp
  00010	c2 04 00	 ret	 4
?destroy@?$allocator@UtagInventoryItemInfo@@@std@@QAEXPAUtagInventoryItemInfo@@@Z ENDP ; std::allocator<tagInventoryItemInfo>::destroy
_TEXT	ENDS
PUBLIC	??$iter_swap@PAUtagInventoryItemInfo@@PAU1@@std@@YAXPAUtagInventoryItemInfo@@0@Z ; std::iter_swap<tagInventoryItemInfo *,tagInventoryItemInfo *>
; Function compile flags: /Ogsp
; File c:\program files (x86)\microsoft visual studio 10.0\vc\include\xutility
;	COMDAT ??$iter_swap@PAUtagInventoryItemInfo@@PAU1@@std@@YAXPAUtagInventoryItemInfo@@0@Z
_TEXT	SEGMENT
__Left$ = 8						; size = 4
__Right$ = 12						; size = 4
??$iter_swap@PAUtagInventoryItemInfo@@PAU1@@std@@YAXPAUtagInventoryItemInfo@@0@Z PROC ; std::iter_swap<tagInventoryItemInfo *,tagInventoryItemInfo *>, COMDAT

; 2133 : 	{	// swap *_Left and *_Right

  00000	55		 push	 ebp
  00001	8b ec		 mov	 ebp, esp

; 2135 : 	}

  00003	5d		 pop	 ebp

; 2134 : 	swap(*_Left, *_Right);

  00004	e9 00 00 00 00	 jmp	 ??$swap@UtagInventoryItemInfo@@@std@@YAXAAUtagInventoryItemInfo@@0@Z ; std::swap<tagInventoryItemInfo>
??$iter_swap@PAUtagInventoryItemInfo@@PAU1@@std@@YAXPAUtagInventoryItemInfo@@0@Z ENDP ; std::iter_swap<tagInventoryItemInfo *,tagInventoryItemInfo *>
_TEXT	ENDS
PUBLIC	??$_Insertion_sort1@PAUtagInventoryItemInfo@@VInventoryItemInfoSort2@@U1@@std@@YAXPAUtagInventoryItemInfo@@0VInventoryItemInfoSort2@@0@Z ; std::_Insertion_sort1<tagInventoryItemInfo *,InventoryItemInfoSort2,tagInventoryItemInfo>
;	COMDAT xdata$x
; File d:\lost saga for developer\youtube\tutorial\source\src\lsclient\gui\tradeitemregisterwnd.cpp
xdata$x	SEGMENT
__unwindtable$??$_Insertion_sort1@PAUtagInventoryItemInfo@@VInventoryItemInfoSort2@@U1@@std@@YAXPAUtagInventoryItemInfo@@0VInventoryItemInfoSort2@@0@Z DD 0ffffffffH
	DD	FLAT:__unwindfunclet$??$_Insertion_sort1@PAUtagInventoryItemInfo@@VInventoryItemInfoSort2@@U1@@std@@YAXPAUtagInventoryItemInfo@@0VInventoryItemInfoSort2@@0@Z$0
__ehfuncinfo$??$_Insertion_sort1@PAUtagInventoryItemInfo@@VInventoryItemInfoSort2@@U1@@std@@YAXPAUtagInventoryItemInfo@@0VInventoryItemInfoSort2@@0@Z DD 019930522H
	DD	01H
	DD	FLAT:__unwindtable$??$_Insertion_sort1@PAUtagInventoryItemInfo@@VInventoryItemInfoSort2@@U1@@std@@YAXPAUtagInventoryItemInfo@@0VInventoryItemInfoSort2@@0@Z
	DD	2 DUP(00H)
	DD	2 DUP(00H)
	DD	00H
	DD	01H
; Function compile flags: /Ogsp
; File c:\program files (x86)\microsoft visual studio 10.0\vc\include\algorithm
xdata$x	ENDS
;	COMDAT ??$_Insertion_sort1@PAUtagInventoryItemInfo@@VInventoryItemInfoSort2@@U1@@std@@YAXPAUtagInventoryItemInfo@@0VInventoryItemInfoSort2@@0@Z
_TEXT	SEGMENT
__Val$510011 = -88					; size = 72
__Next1$510010 = -16					; size = 4
__$EHRec$ = -12						; size = 12
__First$ = 8						; size = 4
__Cat$512077 = 12					; size = 1
__Last$ = 12						; size = 4
__Pred$ = 16						; size = 1
___formal$ = 20						; size = 4
??$_Insertion_sort1@PAUtagInventoryItemInfo@@VInventoryItemInfoSort2@@U1@@std@@YAXPAUtagInventoryItemInfo@@0VInventoryItemInfoSort2@@0@Z PROC ; std::_Insertion_sort1<tagInventoryItemInfo *,InventoryItemInfoSort2,tagInventoryItemInfo>, COMDAT

; 3650 : 	{	// insertion sort [_First, _Last), using _Pred

  00000	6a 4c		 push	 76			; 0000004cH
  00002	b8 00 00 00 00	 mov	 eax, __ehhandler$??$_Insertion_sort1@PAUtagInventoryItemInfo@@VInventoryItemInfoSort2@@U1@@std@@YAXPAUtagInventoryItemInfo@@0VInventoryItemInfoSort2@@0@Z
  00007	e8 00 00 00 00	 call	 __EH_prolog3

; 3651 : 	if (_First != _Last)

  0000c	8b 5d 08	 mov	 ebx, DWORD PTR __First$[ebp]
  0000f	3b 5d 0c	 cmp	 ebx, DWORD PTR __Last$[ebp]
  00012	0f 84 9e 00 00
	00		 je	 $LN6@Insertion_

; 3652 : 		for (_BidIt _Next = _First; ++_Next != _Last; )

  00018	8d 73 48	 lea	 esi, DWORD PTR [ebx+72]
  0001b	3b 75 0c	 cmp	 esi, DWORD PTR __Last$[ebp]
  0001e	0f 84 92 00 00
	00		 je	 $LN6@Insertion_
  00024	8d 7e b8	 lea	 edi, DWORD PTR [esi-72]
$LL7@Insertion_:

; 3653 : 			{	// order next element
; 3654 : 			_BidIt _Next1 = _Next;
; 3655 : 			_Ty _Val = _Move(*_Next);

  00027	56		 push	 esi
  00028	8d 4d a8	 lea	 ecx, DWORD PTR __Val$510011[ebp]
  0002b	89 75 f0	 mov	 DWORD PTR __Next1$510010[ebp], esi
  0002e	e8 00 00 00 00	 call	 ??0tagInventoryItemInfo@@QAE@ABU0@@Z
  00033	83 65 fc 00	 and	 DWORD PTR __$EHRec$[ebp+8], 0

; 3656 : 
; 3657 : 			if (_DEBUG_LT_PRED(_Pred, _Val, *_First))

  00037	53		 push	 ebx
  00038	8d 45 a8	 lea	 eax, DWORD PTR __Val$510011[ebp]
  0003b	50		 push	 eax
  0003c	8d 4d 10	 lea	 ecx, DWORD PTR __Pred$[ebp]
  0003f	e8 00 00 00 00	 call	 ??RInventoryItemInfoSort2@@QBE_NABUtagInventoryItemInfo@@0@Z ; InventoryItemInfoSort2::operator()
  00044	84 c0		 test	 al, al
  00046	74 21		 je	 SHORT $LN5@Insertion_

; 3658 : 				{	// found new earliest element, move to front
; 3659 : 				_Move_backward(_First, _Next, ++_Next1);

  00048	ff 75 0c	 push	 DWORD PTR __Cat$512077[ebp]
  0004b	8d 87 90 00 00
	00		 lea	 eax, DWORD PTR [edi+144]
  00051	50		 push	 eax
  00052	56		 push	 esi
  00053	53		 push	 ebx
  00054	e8 00 00 00 00	 call	 ??$_Move_backward@PAUtagInventoryItemInfo@@PAU1@@std@@YAPAUtagInventoryItemInfo@@PAU1@00U_Nonscalar_ptr_iterator_tag@0@@Z ; std::_Move_backward<tagInventoryItemInfo *,tagInventoryItemInfo *>
  00059	83 c4 10	 add	 esp, 16			; 00000010H

; 3660 : 				*_First = _Move(_Val);

  0005c	8d 45 a8	 lea	 eax, DWORD PTR __Val$510011[ebp]
  0005f	50		 push	 eax
  00060	8b cb		 mov	 ecx, ebx
  00062	e8 00 00 00 00	 call	 ??4tagInventoryItemInfo@@QAEAAU0@ABU0@@Z

; 3661 : 				}
; 3662 : 			else

  00067	eb 31		 jmp	 SHORT $LN4@Insertion_
$LN5@Insertion_:

; 3663 : 				{	// look for insertion point after first
; 3664 : 				for (_BidIt _First1 = _Next1;
; 3665 : 					_DEBUG_LT_PRED(_Pred, _Val, *--_First1);
; 3666 : 					_Next1 = _First1)

  00069	8b df		 mov	 ebx, edi
  0006b	57		 push	 edi
  0006c	eb 0d		 jmp	 SHORT $LN33@Insertion_
$LL3@Insertion_:

; 3667 : 					*_Next1 = _Move(*_First1);	// move hole down

  0006e	53		 push	 ebx
  0006f	e8 00 00 00 00	 call	 ??4tagInventoryItemInfo@@QAEAAU0@ABU0@@Z
  00074	89 5d f0	 mov	 DWORD PTR __Next1$510010[ebp], ebx
  00077	83 eb 48	 sub	 ebx, 72			; 00000048H
  0007a	53		 push	 ebx
$LN33@Insertion_:

; 3663 : 				{	// look for insertion point after first
; 3664 : 				for (_BidIt _First1 = _Next1;
; 3665 : 					_DEBUG_LT_PRED(_Pred, _Val, *--_First1);
; 3666 : 					_Next1 = _First1)

  0007b	8d 45 a8	 lea	 eax, DWORD PTR __Val$510011[ebp]
  0007e	50		 push	 eax
  0007f	8d 4d 10	 lea	 ecx, DWORD PTR __Pred$[ebp]
  00082	e8 00 00 00 00	 call	 ??RInventoryItemInfoSort2@@QBE_NABUtagInventoryItemInfo@@0@Z ; InventoryItemInfoSort2::operator()

; 3668 : 				*_Next1 = _Move(_Val);	// insert element in hole

  00087	8b 4d f0	 mov	 ecx, DWORD PTR __Next1$510010[ebp]
  0008a	84 c0		 test	 al, al
  0008c	75 e0		 jne	 SHORT $LL3@Insertion_
  0008e	8d 45 a8	 lea	 eax, DWORD PTR __Val$510011[ebp]
  00091	50		 push	 eax
  00092	e8 00 00 00 00	 call	 ??4tagInventoryItemInfo@@QAEAAU0@ABU0@@Z
  00097	8b 5d 08	 mov	 ebx, DWORD PTR __First$[ebp]
$LN4@Insertion_:

; 3669 : 				}
; 3670 : 			}

  0009a	83 4d fc ff	 or	 DWORD PTR __$EHRec$[ebp+8], -1
  0009e	8d 4d cc	 lea	 ecx, DWORD PTR __Val$510011[ebp+36]
  000a1	ff 15 00 00 00
	00		 call	 DWORD PTR __imp_??1ioHashString@@QAE@XZ
  000a7	83 c6 48	 add	 esi, 72			; 00000048H
  000aa	83 c7 48	 add	 edi, 72			; 00000048H
  000ad	3b 75 0c	 cmp	 esi, DWORD PTR __Last$[ebp]
  000b0	0f 85 71 ff ff
	ff		 jne	 $LL7@Insertion_
$LN6@Insertion_:

; 3671 : 	}

  000b6	e8 00 00 00 00	 call	 __EH_epilog3
  000bb	c3		 ret	 0
_TEXT	ENDS
;	COMDAT text$x
text$x	SEGMENT
__unwindfunclet$??$_Insertion_sort1@PAUtagInventoryItemInfo@@VInventoryItemInfoSort2@@U1@@std@@YAXPAUtagInventoryItemInfo@@0VInventoryItemInfoSort2@@0@Z$0:
  00000	8d 4d a8	 lea	 ecx, DWORD PTR __Val$510011[ebp]
  00003	e9 00 00 00 00	 jmp	 ??1tagInventoryItemInfo@@QAE@XZ
__ehhandler$??$_Insertion_sort1@PAUtagInventoryItemInfo@@VInventoryItemInfoSort2@@U1@@std@@YAXPAUtagInventoryItemInfo@@0VInventoryItemInfoSort2@@0@Z:
  00008	8b 54 24 08	 mov	 edx, DWORD PTR [esp+8]
  0000c	8d 42 0c	 lea	 eax, DWORD PTR [edx+12]
  0000f	8b 4a a4	 mov	 ecx, DWORD PTR [edx-92]
  00012	33 c8		 xor	 ecx, eax
  00014	e8 00 00 00 00	 call	 @__security_check_cookie@4
  00019	b8 00 00 00 00	 mov	 eax, OFFSET __ehfuncinfo$??$_Insertion_sort1@PAUtagInventoryItemInfo@@VInventoryItemInfoSort2@@U1@@std@@YAXPAUtagInventoryItemInfo@@0VInventoryItemInfoSort2@@0@Z
  0001e	e9 00 00 00 00	 jmp	 ___CxxFrameHandler3
text$x	ENDS
??$_Insertion_sort1@PAUtagInventoryItemInfo@@VInventoryItemInfoSort2@@U1@@std@@YAXPAUtagInventoryItemInfo@@0VInventoryItemInfoSort2@@0@Z ENDP ; std::_Insertion_sort1<tagInventoryItemInfo *,InventoryItemInfoSort2,tagInventoryItemInfo>
PUBLIC	??$_Insertion_sort1@PAUtagInventoryItemInfo@@VInventoryItemInfoSort3@@U1@@std@@YAXPAUtagInventoryItemInfo@@0VInventoryItemInfoSort3@@0@Z ; std::_Insertion_sort1<tagInventoryItemInfo *,InventoryItemInfoSort3,tagInventoryItemInfo>
;	COMDAT xdata$x
; File d:\lost saga for developer\youtube\tutorial\source\src\lsclient\gui\tradeitemregisterwnd.cpp
xdata$x	SEGMENT
__unwindtable$??$_Insertion_sort1@PAUtagInventoryItemInfo@@VInventoryItemInfoSort3@@U1@@std@@YAXPAUtagInventoryItemInfo@@0VInventoryItemInfoSort3@@0@Z DD 0ffffffffH
	DD	FLAT:__unwindfunclet$??$_Insertion_sort1@PAUtagInventoryItemInfo@@VInventoryItemInfoSort3@@U1@@std@@YAXPAUtagInventoryItemInfo@@0VInventoryItemInfoSort3@@0@Z$0
__ehfuncinfo$??$_Insertion_sort1@PAUtagInventoryItemInfo@@VInventoryItemInfoSort3@@U1@@std@@YAXPAUtagInventoryItemInfo@@0VInventoryItemInfoSort3@@0@Z DD 019930522H
	DD	01H
	DD	FLAT:__unwindtable$??$_Insertion_sort1@PAUtagInventoryItemInfo@@VInventoryItemInfoSort3@@U1@@std@@YAXPAUtagInventoryItemInfo@@0VInventoryItemInfoSort3@@0@Z
	DD	2 DUP(00H)
	DD	2 DUP(00H)
	DD	00H
	DD	01H
; Function compile flags: /Ogsp
; File c:\program files (x86)\microsoft visual studio 10.0\vc\include\algorithm
xdata$x	ENDS
;	COMDAT ??$_Insertion_sort1@PAUtagInventoryItemInfo@@VInventoryItemInfoSort3@@U1@@std@@YAXPAUtagInventoryItemInfo@@0VInventoryItemInfoSort3@@0@Z
_TEXT	SEGMENT
__Val$510073 = -88					; size = 72
__Next1$510072 = -16					; size = 4
__$EHRec$ = -12						; size = 12
__First$ = 8						; size = 4
__Cat$512120 = 12					; size = 1
__Last$ = 12						; size = 4
__Pred$ = 16						; size = 1
___formal$ = 20						; size = 4
??$_Insertion_sort1@PAUtagInventoryItemInfo@@VInventoryItemInfoSort3@@U1@@std@@YAXPAUtagInventoryItemInfo@@0VInventoryItemInfoSort3@@0@Z PROC ; std::_Insertion_sort1<tagInventoryItemInfo *,InventoryItemInfoSort3,tagInventoryItemInfo>, COMDAT

; 3650 : 	{	// insertion sort [_First, _Last), using _Pred

  00000	6a 4c		 push	 76			; 0000004cH
  00002	b8 00 00 00 00	 mov	 eax, __ehhandler$??$_Insertion_sort1@PAUtagInventoryItemInfo@@VInventoryItemInfoSort3@@U1@@std@@YAXPAUtagInventoryItemInfo@@0VInventoryItemInfoSort3@@0@Z
  00007	e8 00 00 00 00	 call	 __EH_prolog3

; 3651 : 	if (_First != _Last)

  0000c	8b 5d 08	 mov	 ebx, DWORD PTR __First$[ebp]
  0000f	3b 5d 0c	 cmp	 ebx, DWORD PTR __Last$[ebp]
  00012	0f 84 9e 00 00
	00		 je	 $LN6@Insertion_@2

; 3652 : 		for (_BidIt _Next = _First; ++_Next != _Last; )

  00018	8d 73 48	 lea	 esi, DWORD PTR [ebx+72]
  0001b	3b 75 0c	 cmp	 esi, DWORD PTR __Last$[ebp]
  0001e	0f 84 92 00 00
	00		 je	 $LN6@Insertion_@2
  00024	8d 7e b8	 lea	 edi, DWORD PTR [esi-72]
$LL7@Insertion_@2:

; 3653 : 			{	// order next element
; 3654 : 			_BidIt _Next1 = _Next;
; 3655 : 			_Ty _Val = _Move(*_Next);

  00027	56		 push	 esi
  00028	8d 4d a8	 lea	 ecx, DWORD PTR __Val$510073[ebp]
  0002b	89 75 f0	 mov	 DWORD PTR __Next1$510072[ebp], esi
  0002e	e8 00 00 00 00	 call	 ??0tagInventoryItemInfo@@QAE@ABU0@@Z
  00033	83 65 fc 00	 and	 DWORD PTR __$EHRec$[ebp+8], 0

; 3656 : 
; 3657 : 			if (_DEBUG_LT_PRED(_Pred, _Val, *_First))

  00037	53		 push	 ebx
  00038	8d 45 a8	 lea	 eax, DWORD PTR __Val$510073[ebp]
  0003b	50		 push	 eax
  0003c	8d 4d 10	 lea	 ecx, DWORD PTR __Pred$[ebp]
  0003f	e8 00 00 00 00	 call	 ??RInventoryItemInfoSort3@@QBE_NABUtagInventoryItemInfo@@0@Z ; InventoryItemInfoSort3::operator()
  00044	84 c0		 test	 al, al
  00046	74 21		 je	 SHORT $LN5@Insertion_@2

; 3658 : 				{	// found new earliest element, move to front
; 3659 : 				_Move_backward(_First, _Next, ++_Next1);

  00048	ff 75 0c	 push	 DWORD PTR __Cat$512120[ebp]
  0004b	8d 87 90 00 00
	00		 lea	 eax, DWORD PTR [edi+144]
  00051	50		 push	 eax
  00052	56		 push	 esi
  00053	53		 push	 ebx
  00054	e8 00 00 00 00	 call	 ??$_Move_backward@PAUtagInventoryItemInfo@@PAU1@@std@@YAPAUtagInventoryItemInfo@@PAU1@00U_Nonscalar_ptr_iterator_tag@0@@Z ; std::_Move_backward<tagInventoryItemInfo *,tagInventoryItemInfo *>
  00059	83 c4 10	 add	 esp, 16			; 00000010H

; 3660 : 				*_First = _Move(_Val);

  0005c	8d 45 a8	 lea	 eax, DWORD PTR __Val$510073[ebp]
  0005f	50		 push	 eax
  00060	8b cb		 mov	 ecx, ebx
  00062	e8 00 00 00 00	 call	 ??4tagInventoryItemInfo@@QAEAAU0@ABU0@@Z

; 3661 : 				}
; 3662 : 			else

  00067	eb 31		 jmp	 SHORT $LN4@Insertion_@2
$LN5@Insertion_@2:

; 3663 : 				{	// look for insertion point after first
; 3664 : 				for (_BidIt _First1 = _Next1;
; 3665 : 					_DEBUG_LT_PRED(_Pred, _Val, *--_First1);
; 3666 : 					_Next1 = _First1)

  00069	8b df		 mov	 ebx, edi
  0006b	57		 push	 edi
  0006c	eb 0d		 jmp	 SHORT $LN33@Insertion_@2
$LL3@Insertion_@2:

; 3667 : 					*_Next1 = _Move(*_First1);	// move hole down

  0006e	53		 push	 ebx
  0006f	e8 00 00 00 00	 call	 ??4tagInventoryItemInfo@@QAEAAU0@ABU0@@Z
  00074	89 5d f0	 mov	 DWORD PTR __Next1$510072[ebp], ebx
  00077	83 eb 48	 sub	 ebx, 72			; 00000048H
  0007a	53		 push	 ebx
$LN33@Insertion_@2:

; 3663 : 				{	// look for insertion point after first
; 3664 : 				for (_BidIt _First1 = _Next1;
; 3665 : 					_DEBUG_LT_PRED(_Pred, _Val, *--_First1);
; 3666 : 					_Next1 = _First1)

  0007b	8d 45 a8	 lea	 eax, DWORD PTR __Val$510073[ebp]
  0007e	50		 push	 eax
  0007f	8d 4d 10	 lea	 ecx, DWORD PTR __Pred$[ebp]
  00082	e8 00 00 00 00	 call	 ??RInventoryItemInfoSort3@@QBE_NABUtagInventoryItemInfo@@0@Z ; InventoryItemInfoSort3::operator()

; 3668 : 				*_Next1 = _Move(_Val);	// insert element in hole

  00087	8b 4d f0	 mov	 ecx, DWORD PTR __Next1$510072[ebp]
  0008a	84 c0		 test	 al, al
  0008c	75 e0		 jne	 SHORT $LL3@Insertion_@2
  0008e	8d 45 a8	 lea	 eax, DWORD PTR __Val$510073[ebp]
  00091	50		 push	 eax
  00092	e8 00 00 00 00	 call	 ??4tagInventoryItemInfo@@QAEAAU0@ABU0@@Z
  00097	8b 5d 08	 mov	 ebx, DWORD PTR __First$[ebp]
$LN4@Insertion_@2:

; 3669 : 				}
; 3670 : 			}

  0009a	83 4d fc ff	 or	 DWORD PTR __$EHRec$[ebp+8], -1
  0009e	8d 4d cc	 lea	 ecx, DWORD PTR __Val$510073[ebp+36]
  000a1	ff 15 00 00 00
	00		 call	 DWORD PTR __imp_??1ioHashString@@QAE@XZ
  000a7	83 c6 48	 add	 esi, 72			; 00000048H
  000aa	83 c7 48	 add	 edi, 72			; 00000048H
  000ad	3b 75 0c	 cmp	 esi, DWORD PTR __Last$[ebp]
  000b0	0f 85 71 ff ff
	ff		 jne	 $LL7@Insertion_@2
$LN6@Insertion_@2:

; 3671 : 	}

  000b6	e8 00 00 00 00	 call	 __EH_epilog3
  000bb	c3		 ret	 0
_TEXT	ENDS
;	COMDAT text$x
text$x	SEGMENT
__unwindfunclet$??$_Insertion_sort1@PAUtagInventoryItemInfo@@VInventoryItemInfoSort3@@U1@@std@@YAXPAUtagInventoryItemInfo@@0VInventoryItemInfoSort3@@0@Z$0:
  00000	8d 4d a8	 lea	 ecx, DWORD PTR __Val$510073[ebp]
  00003	e9 00 00 00 00	 jmp	 ??1tagInventoryItemInfo@@QAE@XZ
__ehhandler$??$_Insertion_sort1@PAUtagInventoryItemInfo@@VInventoryItemInfoSort3@@U1@@std@@YAXPAUtagInventoryItemInfo@@0VInventoryItemInfoSort3@@0@Z:
  00008	8b 54 24 08	 mov	 edx, DWORD PTR [esp+8]
  0000c	8d 42 0c	 lea	 eax, DWORD PTR [edx+12]
  0000f	8b 4a a4	 mov	 ecx, DWORD PTR [edx-92]
  00012	33 c8		 xor	 ecx, eax
  00014	e8 00 00 00 00	 call	 @__security_check_cookie@4
  00019	b8 00 00 00 00	 mov	 eax, OFFSET __ehfuncinfo$??$_Insertion_sort1@PAUtagInventoryItemInfo@@VInventoryItemInfoSort3@@U1@@std@@YAXPAUtagInventoryItemInfo@@0VInventoryItemInfoSort3@@0@Z
  0001e	e9 00 00 00 00	 jmp	 ___CxxFrameHandler3
text$x	ENDS
??$_Insertion_sort1@PAUtagInventoryItemInfo@@VInventoryItemInfoSort3@@U1@@std@@YAXPAUtagInventoryItemInfo@@0VInventoryItemInfoSort3@@0@Z ENDP ; std::_Insertion_sort1<tagInventoryItemInfo *,InventoryItemInfoSort3,tagInventoryItemInfo>
PUBLIC	??$_Cons_val@V?$allocator@UtagInventoryItemInfo@@@std@@UtagInventoryItemInfo@@U3@@std@@YAXAAV?$allocator@UtagInventoryItemInfo@@@0@PAUtagInventoryItemInfo@@$$QAU2@@Z ; std::_Cons_val<std::allocator<tagInventoryItemInfo>,tagInventoryItemInfo,tagInventoryItemInfo>
;	COMDAT xdata$x
; File c:\program files (x86)\microsoft visual studio 10.0\vc\include\utility
xdata$x	SEGMENT
__unwindtable$??$_Cons_val@V?$allocator@UtagInventoryItemInfo@@@std@@UtagInventoryItemInfo@@U3@@std@@YAXAAV?$allocator@UtagInventoryItemInfo@@@0@PAUtagInventoryItemInfo@@$$QAU2@@Z DD 0ffffffffH
	DD	FLAT:__unwindfunclet$??$_Cons_val@V?$allocator@UtagInventoryItemInfo@@@std@@UtagInventoryItemInfo@@U3@@std@@YAXAAV?$allocator@UtagInventoryItemInfo@@@0@PAUtagInventoryItemInfo@@$$QAU2@@Z$0
__ehfuncinfo$??$_Cons_val@V?$allocator@UtagInventoryItemInfo@@@std@@UtagInventoryItemInfo@@U3@@std@@YAXAAV?$allocator@UtagInventoryItemInfo@@@0@PAUtagInventoryItemInfo@@$$QAU2@@Z DD 019930522H
	DD	01H
	DD	FLAT:__unwindtable$??$_Cons_val@V?$allocator@UtagInventoryItemInfo@@@std@@UtagInventoryItemInfo@@U3@@std@@YAXAAV?$allocator@UtagInventoryItemInfo@@@0@PAUtagInventoryItemInfo@@$$QAU2@@Z
	DD	2 DUP(00H)
	DD	2 DUP(00H)
	DD	00H
	DD	01H
; Function compile flags: /Ogsp
; File c:\program files (x86)\microsoft visual studio 10.0\vc\include\xmemory
xdata$x	ENDS
;	COMDAT ??$_Cons_val@V?$allocator@UtagInventoryItemInfo@@@std@@UtagInventoryItemInfo@@U3@@std@@YAXAAV?$allocator@UtagInventoryItemInfo@@@0@PAUtagInventoryItemInfo@@$$QAU2@@Z
_TEXT	SEGMENT
$T512166 = -16						; size = 4
__$EHRec$ = -12						; size = 12
__Alval$ = 8						; size = 4
__Pdest$ = 12						; size = 4
__Src$ = 16						; size = 4
??$_Cons_val@V?$allocator@UtagInventoryItemInfo@@@std@@UtagInventoryItemInfo@@U3@@std@@YAXAAV?$allocator@UtagInventoryItemInfo@@@0@PAUtagInventoryItemInfo@@$$QAU2@@Z PROC ; std::_Cons_val<std::allocator<tagInventoryItemInfo>,tagInventoryItemInfo,tagInventoryItemInfo>, COMDAT

; 279  : 	{	// construct using allocator

  00000	6a 04		 push	 4
  00002	b8 00 00 00 00	 mov	 eax, __ehhandler$??$_Cons_val@V?$allocator@UtagInventoryItemInfo@@@std@@UtagInventoryItemInfo@@U3@@std@@YAXAAV?$allocator@UtagInventoryItemInfo@@@0@PAUtagInventoryItemInfo@@$$QAU2@@Z
  00007	e8 00 00 00 00	 call	 __EH_prolog3

; 280  : 	_Alval.construct(_Pdest, _STD forward<_Ty2>(_Src));

  0000c	8b 4d 0c	 mov	 ecx, DWORD PTR __Pdest$[ebp]
  0000f	89 4d f0	 mov	 DWORD PTR $T512166[ebp], ecx
  00012	83 65 fc 00	 and	 DWORD PTR __$EHRec$[ebp+8], 0
  00016	85 c9		 test	 ecx, ecx
  00018	74 08		 je	 SHORT $LN7@Cons_val@2
  0001a	ff 75 10	 push	 DWORD PTR __Src$[ebp]
  0001d	e8 00 00 00 00	 call	 ??0tagInventoryItemInfo@@QAE@ABU0@@Z
$LN7@Cons_val@2:

; 281  : 	}

  00022	e8 00 00 00 00	 call	 __EH_epilog3
  00027	c3		 ret	 0
_TEXT	ENDS
;	COMDAT text$x
text$x	SEGMENT
__unwindfunclet$??$_Cons_val@V?$allocator@UtagInventoryItemInfo@@@std@@UtagInventoryItemInfo@@U3@@std@@YAXAAV?$allocator@UtagInventoryItemInfo@@@0@PAUtagInventoryItemInfo@@$$QAU2@@Z$0:
  00000	ff 75 0c	 push	 DWORD PTR __Pdest$[ebp]
  00003	ff 75 f0	 push	 DWORD PTR $T512166[ebp]
  00006	e8 00 00 00 00	 call	 ??3@YAXPAX0@Z		; operator delete
  0000b	59		 pop	 ecx
  0000c	59		 pop	 ecx
  0000d	c3		 ret	 0
__ehhandler$??$_Cons_val@V?$allocator@UtagInventoryItemInfo@@@std@@UtagInventoryItemInfo@@U3@@std@@YAXAAV?$allocator@UtagInventoryItemInfo@@@0@PAUtagInventoryItemInfo@@$$QAU2@@Z:
  0000e	8b 54 24 08	 mov	 edx, DWORD PTR [esp+8]
  00012	8d 42 0c	 lea	 eax, DWORD PTR [edx+12]
  00015	8b 4a ec	 mov	 ecx, DWORD PTR [edx-20]
  00018	33 c8		 xor	 ecx, eax
  0001a	e8 00 00 00 00	 call	 @__security_check_cookie@4
  0001f	b8 00 00 00 00	 mov	 eax, OFFSET __ehfuncinfo$??$_Cons_val@V?$allocator@UtagInventoryItemInfo@@@std@@UtagInventoryItemInfo@@U3@@std@@YAXAAV?$allocator@UtagInventoryItemInfo@@@0@PAUtagInventoryItemInfo@@$$QAU2@@Z
  00024	e9 00 00 00 00	 jmp	 ___CxxFrameHandler3
text$x	ENDS
??$_Cons_val@V?$allocator@UtagInventoryItemInfo@@@std@@UtagInventoryItemInfo@@U3@@std@@YAXAAV?$allocator@UtagInventoryItemInfo@@@0@PAUtagInventoryItemInfo@@$$QAU2@@Z ENDP ; std::_Cons_val<std::allocator<tagInventoryItemInfo>,tagInventoryItemInfo,tagInventoryItemInfo>
PUBLIC	??$_Med3@PAUtagInventoryItemInfo@@VInventoryItemInfoSort2@@@std@@YAXPAUtagInventoryItemInfo@@00VInventoryItemInfoSort2@@@Z ; std::_Med3<tagInventoryItemInfo *,InventoryItemInfoSort2>
; Function compile flags: /Ogsp
; File c:\program files (x86)\microsoft visual studio 10.0\vc\include\algorithm
;	COMDAT ??$_Med3@PAUtagInventoryItemInfo@@VInventoryItemInfoSort2@@@std@@YAXPAUtagInventoryItemInfo@@00VInventoryItemInfoSort2@@@Z
_TEXT	SEGMENT
__First$ = 8						; size = 4
__Mid$ = 12						; size = 4
__Last$ = 16						; size = 4
__Pred$ = 20						; size = 1
??$_Med3@PAUtagInventoryItemInfo@@VInventoryItemInfoSort2@@@std@@YAXPAUtagInventoryItemInfo@@00VInventoryItemInfoSort2@@@Z PROC ; std::_Med3<tagInventoryItemInfo *,InventoryItemInfoSort2>, COMDAT

; 3683 : 	{	// sort median of three elements to middle

  00000	55		 push	 ebp
  00001	8b ec		 mov	 ebp, esp
  00003	56		 push	 esi

; 3684 : 	if (_DEBUG_LT_PRED(_Pred, *_Mid, *_First))

  00004	8b 75 0c	 mov	 esi, DWORD PTR __Mid$[ebp]
  00007	57		 push	 edi
  00008	8b 7d 08	 mov	 edi, DWORD PTR __First$[ebp]
  0000b	57		 push	 edi
  0000c	56		 push	 esi
  0000d	8d 4d 14	 lea	 ecx, DWORD PTR __Pred$[ebp]
  00010	e8 00 00 00 00	 call	 ??RInventoryItemInfoSort2@@QBE_NABUtagInventoryItemInfo@@0@Z ; InventoryItemInfoSort2::operator()
  00015	84 c0		 test	 al, al
  00017	74 09		 je	 SHORT $LN6@Med3

; 3685 : 		_STD iter_swap(_Mid, _First);

  00019	57		 push	 edi
  0001a	56		 push	 esi
  0001b	e8 00 00 00 00	 call	 ??$swap@UtagInventoryItemInfo@@@std@@YAXAAUtagInventoryItemInfo@@0@Z ; std::swap<tagInventoryItemInfo>
  00020	59		 pop	 ecx
  00021	59		 pop	 ecx
$LN6@Med3:

; 3686 : 	if (_DEBUG_LT_PRED(_Pred, *_Last, *_Mid))

  00022	56		 push	 esi
  00023	ff 75 10	 push	 DWORD PTR __Last$[ebp]
  00026	8d 4d 14	 lea	 ecx, DWORD PTR __Pred$[ebp]
  00029	e8 00 00 00 00	 call	 ??RInventoryItemInfoSort2@@QBE_NABUtagInventoryItemInfo@@0@Z ; InventoryItemInfoSort2::operator()
  0002e	84 c0		 test	 al, al
  00030	74 0b		 je	 SHORT $LN8@Med3

; 3687 : 		_STD iter_swap(_Last, _Mid);

  00032	56		 push	 esi
  00033	ff 75 10	 push	 DWORD PTR __Last$[ebp]
  00036	e8 00 00 00 00	 call	 ??$swap@UtagInventoryItemInfo@@@std@@YAXAAUtagInventoryItemInfo@@0@Z ; std::swap<tagInventoryItemInfo>
  0003b	59		 pop	 ecx
  0003c	59		 pop	 ecx
$LN8@Med3:

; 3688 : 	if (_DEBUG_LT_PRED(_Pred, *_Mid, *_First))

  0003d	57		 push	 edi
  0003e	56		 push	 esi
  0003f	8d 4d 14	 lea	 ecx, DWORD PTR __Pred$[ebp]
  00042	e8 00 00 00 00	 call	 ??RInventoryItemInfoSort2@@QBE_NABUtagInventoryItemInfo@@0@Z ; InventoryItemInfoSort2::operator()
  00047	84 c0		 test	 al, al
  00049	74 09		 je	 SHORT $LN10@Med3

; 3689 : 		_STD iter_swap(_Mid, _First);

  0004b	57		 push	 edi
  0004c	56		 push	 esi
  0004d	e8 00 00 00 00	 call	 ??$swap@UtagInventoryItemInfo@@@std@@YAXAAUtagInventoryItemInfo@@0@Z ; std::swap<tagInventoryItemInfo>
  00052	59		 pop	 ecx
  00053	59		 pop	 ecx
$LN10@Med3:
  00054	5f		 pop	 edi
  00055	5e		 pop	 esi

; 3690 : 	}

  00056	5d		 pop	 ebp
  00057	c3		 ret	 0
??$_Med3@PAUtagInventoryItemInfo@@VInventoryItemInfoSort2@@@std@@YAXPAUtagInventoryItemInfo@@00VInventoryItemInfoSort2@@@Z ENDP ; std::_Med3<tagInventoryItemInfo *,InventoryItemInfoSort2>
_TEXT	ENDS
PUBLIC	??$_Adjust_heap@PAUtagInventoryItemInfo@@HU1@VInventoryItemInfoSort2@@@std@@YAXPAUtagInventoryItemInfo@@HH$$QAU1@VInventoryItemInfoSort2@@@Z ; std::_Adjust_heap<tagInventoryItemInfo *,int,tagInventoryItemInfo,InventoryItemInfoSort2>
; Function compile flags: /Ogsp
;	COMDAT ??$_Adjust_heap@PAUtagInventoryItemInfo@@HU1@VInventoryItemInfoSort2@@@std@@YAXPAUtagInventoryItemInfo@@HH$$QAU1@VInventoryItemInfoSort2@@@Z
_TEXT	SEGMENT
__First$ = 8						; size = 4
__Top$ = 12						; size = 4
__Hole$ = 12						; size = 4
__Bottom$ = 16						; size = 4
__Val$ = 20						; size = 4
__Pred$ = 24						; size = 1
??$_Adjust_heap@PAUtagInventoryItemInfo@@HU1@VInventoryItemInfoSort2@@@std@@YAXPAUtagInventoryItemInfo@@HH$$QAU1@VInventoryItemInfoSort2@@@Z PROC ; std::_Adjust_heap<tagInventoryItemInfo *,int,tagInventoryItemInfo,InventoryItemInfoSort2>, COMDAT

; 2565 : 	{	// percolate _Hole to _Bottom, then push _Val, using _Pred

  00000	55		 push	 ebp
  00001	8b ec		 mov	 ebp, esp
  00003	53		 push	 ebx

; 2566 : 	_Diff _Top = _Hole;
; 2567 : 	_Diff _Idx = 2 * _Hole + 2;
; 2568 : 
; 2569 : 	for (; _Idx < _Bottom; _Idx = 2 * _Idx + 2)

  00004	8b 5d 08	 mov	 ebx, DWORD PTR __First$[ebp]
  00007	56		 push	 esi
  00008	57		 push	 edi
  00009	8b 7d 0c	 mov	 edi, DWORD PTR __Hole$[ebp]
  0000c	89 7d 0c	 mov	 DWORD PTR __Top$[ebp], edi
  0000f	8d 74 3f 02	 lea	 esi, DWORD PTR [edi+edi+2]
  00013	eb 33		 jmp	 SHORT $LN16@Adjust_hea
$LL5@Adjust_hea:

; 2570 : 		{	// move _Hole down to larger child
; 2571 : 		if (_DEBUG_LT_PRED(_Pred, *(_First + _Idx), *(_First + (_Idx - 1))))

  00015	8b c6		 mov	 eax, esi
  00017	6b c0 48	 imul	 eax, 72			; 00000048H
  0001a	03 c3		 add	 eax, ebx
  0001c	8d 48 b8	 lea	 ecx, DWORD PTR [eax-72]
  0001f	51		 push	 ecx
  00020	50		 push	 eax
  00021	8d 4d 18	 lea	 ecx, DWORD PTR __Pred$[ebp]
  00024	e8 00 00 00 00	 call	 ??RInventoryItemInfoSort2@@QBE_NABUtagInventoryItemInfo@@0@Z ; InventoryItemInfoSort2::operator()
  00029	84 c0		 test	 al, al
  0002b	74 01		 je	 SHORT $LN2@Adjust_hea

; 2572 : 			--_Idx;

  0002d	4e		 dec	 esi
$LN2@Adjust_hea:

; 2573 : 		*(_First + _Hole) = _Move(*(_First + _Idx));

  0002e	8b c6		 mov	 eax, esi
  00030	6b c0 48	 imul	 eax, 72			; 00000048H
  00033	8b cf		 mov	 ecx, edi
  00035	6b c9 48	 imul	 ecx, 72			; 00000048H
  00038	03 c3		 add	 eax, ebx
  0003a	50		 push	 eax
  0003b	03 cb		 add	 ecx, ebx
  0003d	e8 00 00 00 00	 call	 ??4tagInventoryItemInfo@@QAEAAU0@ABU0@@Z

; 2574 : 		_Hole = _Idx;

  00042	8b fe		 mov	 edi, esi
  00044	8d 74 36 02	 lea	 esi, DWORD PTR [esi+esi+2]
$LN16@Adjust_hea:

; 2566 : 	_Diff _Top = _Hole;
; 2567 : 	_Diff _Idx = 2 * _Hole + 2;
; 2568 : 
; 2569 : 	for (; _Idx < _Bottom; _Idx = 2 * _Idx + 2)

  00048	3b 75 10	 cmp	 esi, DWORD PTR __Bottom$[ebp]
  0004b	7c c8		 jl	 SHORT $LL5@Adjust_hea

; 2575 : 		}
; 2576 : 
; 2577 : 	if (_Idx == _Bottom)

  0004d	75 1b		 jne	 SHORT $LN1@Adjust_hea

; 2578 : 		{	// only child at bottom, move _Hole down to it
; 2579 : 		*(_First + _Hole) = _Move(*(_First + (_Bottom - 1)));

  0004f	8b 45 10	 mov	 eax, DWORD PTR __Bottom$[ebp]
  00052	6b c0 48	 imul	 eax, 72			; 00000048H
  00055	8b cf		 mov	 ecx, edi
  00057	6b c9 48	 imul	 ecx, 72			; 00000048H
  0005a	8d 44 18 b8	 lea	 eax, DWORD PTR [eax+ebx-72]
  0005e	50		 push	 eax
  0005f	03 cb		 add	 ecx, ebx
  00061	e8 00 00 00 00	 call	 ??4tagInventoryItemInfo@@QAEAAU0@ABU0@@Z

; 2580 : 		_Hole = _Bottom - 1;

  00066	8b 7d 10	 mov	 edi, DWORD PTR __Bottom$[ebp]
  00069	4f		 dec	 edi
$LN1@Adjust_hea:

; 2581 : 		}
; 2582 : 	_Push_heap(_First, _Hole, _Top, _Move(_Val), _Pred);

  0006a	ff 75 18	 push	 DWORD PTR __Pred$[ebp]
  0006d	ff 75 14	 push	 DWORD PTR __Val$[ebp]
  00070	ff 75 0c	 push	 DWORD PTR __Top$[ebp]
  00073	57		 push	 edi
  00074	53		 push	 ebx
  00075	e8 00 00 00 00	 call	 ??$_Push_heap@PAUtagInventoryItemInfo@@HU1@VInventoryItemInfoSort2@@@std@@YAXPAUtagInventoryItemInfo@@HH$$QAU1@VInventoryItemInfoSort2@@@Z ; std::_Push_heap<tagInventoryItemInfo *,int,tagInventoryItemInfo,InventoryItemInfoSort2>
  0007a	83 c4 14	 add	 esp, 20			; 00000014H
  0007d	5f		 pop	 edi
  0007e	5e		 pop	 esi
  0007f	5b		 pop	 ebx

; 2583 : 	}

  00080	5d		 pop	 ebp
  00081	c3		 ret	 0
??$_Adjust_heap@PAUtagInventoryItemInfo@@HU1@VInventoryItemInfoSort2@@@std@@YAXPAUtagInventoryItemInfo@@HH$$QAU1@VInventoryItemInfoSort2@@@Z ENDP ; std::_Adjust_heap<tagInventoryItemInfo *,int,tagInventoryItemInfo,InventoryItemInfoSort2>
_TEXT	ENDS
PUBLIC	??$_Med3@PAUtagInventoryItemInfo@@VInventoryItemInfoSort3@@@std@@YAXPAUtagInventoryItemInfo@@00VInventoryItemInfoSort3@@@Z ; std::_Med3<tagInventoryItemInfo *,InventoryItemInfoSort3>
; Function compile flags: /Ogsp
;	COMDAT ??$_Med3@PAUtagInventoryItemInfo@@VInventoryItemInfoSort3@@@std@@YAXPAUtagInventoryItemInfo@@00VInventoryItemInfoSort3@@@Z
_TEXT	SEGMENT
__First$ = 8						; size = 4
__Mid$ = 12						; size = 4
__Last$ = 16						; size = 4
__Pred$ = 20						; size = 1
??$_Med3@PAUtagInventoryItemInfo@@VInventoryItemInfoSort3@@@std@@YAXPAUtagInventoryItemInfo@@00VInventoryItemInfoSort3@@@Z PROC ; std::_Med3<tagInventoryItemInfo *,InventoryItemInfoSort3>, COMDAT

; 3683 : 	{	// sort median of three elements to middle

  00000	55		 push	 ebp
  00001	8b ec		 mov	 ebp, esp
  00003	56		 push	 esi

; 3684 : 	if (_DEBUG_LT_PRED(_Pred, *_Mid, *_First))

  00004	8b 75 0c	 mov	 esi, DWORD PTR __Mid$[ebp]
  00007	57		 push	 edi
  00008	8b 7d 08	 mov	 edi, DWORD PTR __First$[ebp]
  0000b	57		 push	 edi
  0000c	56		 push	 esi
  0000d	8d 4d 14	 lea	 ecx, DWORD PTR __Pred$[ebp]
  00010	e8 00 00 00 00	 call	 ??RInventoryItemInfoSort3@@QBE_NABUtagInventoryItemInfo@@0@Z ; InventoryItemInfoSort3::operator()
  00015	84 c0		 test	 al, al
  00017	74 09		 je	 SHORT $LN6@Med3@2

; 3685 : 		_STD iter_swap(_Mid, _First);

  00019	57		 push	 edi
  0001a	56		 push	 esi
  0001b	e8 00 00 00 00	 call	 ??$swap@UtagInventoryItemInfo@@@std@@YAXAAUtagInventoryItemInfo@@0@Z ; std::swap<tagInventoryItemInfo>
  00020	59		 pop	 ecx
  00021	59		 pop	 ecx
$LN6@Med3@2:

; 3686 : 	if (_DEBUG_LT_PRED(_Pred, *_Last, *_Mid))

  00022	56		 push	 esi
  00023	ff 75 10	 push	 DWORD PTR __Last$[ebp]
  00026	8d 4d 14	 lea	 ecx, DWORD PTR __Pred$[ebp]
  00029	e8 00 00 00 00	 call	 ??RInventoryItemInfoSort3@@QBE_NABUtagInventoryItemInfo@@0@Z ; InventoryItemInfoSort3::operator()
  0002e	84 c0		 test	 al, al
  00030	74 0b		 je	 SHORT $LN8@Med3@2

; 3687 : 		_STD iter_swap(_Last, _Mid);

  00032	56		 push	 esi
  00033	ff 75 10	 push	 DWORD PTR __Last$[ebp]
  00036	e8 00 00 00 00	 call	 ??$swap@UtagInventoryItemInfo@@@std@@YAXAAUtagInventoryItemInfo@@0@Z ; std::swap<tagInventoryItemInfo>
  0003b	59		 pop	 ecx
  0003c	59		 pop	 ecx
$LN8@Med3@2:

; 3688 : 	if (_DEBUG_LT_PRED(_Pred, *_Mid, *_First))

  0003d	57		 push	 edi
  0003e	56		 push	 esi
  0003f	8d 4d 14	 lea	 ecx, DWORD PTR __Pred$[ebp]
  00042	e8 00 00 00 00	 call	 ??RInventoryItemInfoSort3@@QBE_NABUtagInventoryItemInfo@@0@Z ; InventoryItemInfoSort3::operator()
  00047	84 c0		 test	 al, al
  00049	74 09		 je	 SHORT $LN10@Med3@2

; 3689 : 		_STD iter_swap(_Mid, _First);

  0004b	57		 push	 edi
  0004c	56		 push	 esi
  0004d	e8 00 00 00 00	 call	 ??$swap@UtagInventoryItemInfo@@@std@@YAXAAUtagInventoryItemInfo@@0@Z ; std::swap<tagInventoryItemInfo>
  00052	59		 pop	 ecx
  00053	59		 pop	 ecx
$LN10@Med3@2:
  00054	5f		 pop	 edi
  00055	5e		 pop	 esi

; 3690 : 	}

  00056	5d		 pop	 ebp
  00057	c3		 ret	 0
??$_Med3@PAUtagInventoryItemInfo@@VInventoryItemInfoSort3@@@std@@YAXPAUtagInventoryItemInfo@@00VInventoryItemInfoSort3@@@Z ENDP ; std::_Med3<tagInventoryItemInfo *,InventoryItemInfoSort3>
_TEXT	ENDS
PUBLIC	??$_Adjust_heap@PAUtagInventoryItemInfo@@HU1@VInventoryItemInfoSort3@@@std@@YAXPAUtagInventoryItemInfo@@HH$$QAU1@VInventoryItemInfoSort3@@@Z ; std::_Adjust_heap<tagInventoryItemInfo *,int,tagInventoryItemInfo,InventoryItemInfoSort3>
; Function compile flags: /Ogsp
;	COMDAT ??$_Adjust_heap@PAUtagInventoryItemInfo@@HU1@VInventoryItemInfoSort3@@@std@@YAXPAUtagInventoryItemInfo@@HH$$QAU1@VInventoryItemInfoSort3@@@Z
_TEXT	SEGMENT
__First$ = 8						; size = 4
__Top$ = 12						; size = 4
__Hole$ = 12						; size = 4
__Bottom$ = 16						; size = 4
__Val$ = 20						; size = 4
__Pred$ = 24						; size = 1
??$_Adjust_heap@PAUtagInventoryItemInfo@@HU1@VInventoryItemInfoSort3@@@std@@YAXPAUtagInventoryItemInfo@@HH$$QAU1@VInventoryItemInfoSort3@@@Z PROC ; std::_Adjust_heap<tagInventoryItemInfo *,int,tagInventoryItemInfo,InventoryItemInfoSort3>, COMDAT

; 2565 : 	{	// percolate _Hole to _Bottom, then push _Val, using _Pred

  00000	55		 push	 ebp
  00001	8b ec		 mov	 ebp, esp
  00003	53		 push	 ebx

; 2566 : 	_Diff _Top = _Hole;
; 2567 : 	_Diff _Idx = 2 * _Hole + 2;
; 2568 : 
; 2569 : 	for (; _Idx < _Bottom; _Idx = 2 * _Idx + 2)

  00004	8b 5d 08	 mov	 ebx, DWORD PTR __First$[ebp]
  00007	56		 push	 esi
  00008	57		 push	 edi
  00009	8b 7d 0c	 mov	 edi, DWORD PTR __Hole$[ebp]
  0000c	89 7d 0c	 mov	 DWORD PTR __Top$[ebp], edi
  0000f	8d 74 3f 02	 lea	 esi, DWORD PTR [edi+edi+2]
  00013	eb 33		 jmp	 SHORT $LN16@Adjust_hea@2
$LL5@Adjust_hea@2:

; 2570 : 		{	// move _Hole down to larger child
; 2571 : 		if (_DEBUG_LT_PRED(_Pred, *(_First + _Idx), *(_First + (_Idx - 1))))

  00015	8b c6		 mov	 eax, esi
  00017	6b c0 48	 imul	 eax, 72			; 00000048H
  0001a	03 c3		 add	 eax, ebx
  0001c	8d 48 b8	 lea	 ecx, DWORD PTR [eax-72]
  0001f	51		 push	 ecx
  00020	50		 push	 eax
  00021	8d 4d 18	 lea	 ecx, DWORD PTR __Pred$[ebp]
  00024	e8 00 00 00 00	 call	 ??RInventoryItemInfoSort3@@QBE_NABUtagInventoryItemInfo@@0@Z ; InventoryItemInfoSort3::operator()
  00029	84 c0		 test	 al, al
  0002b	74 01		 je	 SHORT $LN2@Adjust_hea@2

; 2572 : 			--_Idx;

  0002d	4e		 dec	 esi
$LN2@Adjust_hea@2:

; 2573 : 		*(_First + _Hole) = _Move(*(_First + _Idx));

  0002e	8b c6		 mov	 eax, esi
  00030	6b c0 48	 imul	 eax, 72			; 00000048H
  00033	8b cf		 mov	 ecx, edi
  00035	6b c9 48	 imul	 ecx, 72			; 00000048H
  00038	03 c3		 add	 eax, ebx
  0003a	50		 push	 eax
  0003b	03 cb		 add	 ecx, ebx
  0003d	e8 00 00 00 00	 call	 ??4tagInventoryItemInfo@@QAEAAU0@ABU0@@Z

; 2574 : 		_Hole = _Idx;

  00042	8b fe		 mov	 edi, esi
  00044	8d 74 36 02	 lea	 esi, DWORD PTR [esi+esi+2]
$LN16@Adjust_hea@2:

; 2566 : 	_Diff _Top = _Hole;
; 2567 : 	_Diff _Idx = 2 * _Hole + 2;
; 2568 : 
; 2569 : 	for (; _Idx < _Bottom; _Idx = 2 * _Idx + 2)

  00048	3b 75 10	 cmp	 esi, DWORD PTR __Bottom$[ebp]
  0004b	7c c8		 jl	 SHORT $LL5@Adjust_hea@2

; 2575 : 		}
; 2576 : 
; 2577 : 	if (_Idx == _Bottom)

  0004d	75 1b		 jne	 SHORT $LN1@Adjust_hea@2

; 2578 : 		{	// only child at bottom, move _Hole down to it
; 2579 : 		*(_First + _Hole) = _Move(*(_First + (_Bottom - 1)));

  0004f	8b 45 10	 mov	 eax, DWORD PTR __Bottom$[ebp]
  00052	6b c0 48	 imul	 eax, 72			; 00000048H
  00055	8b cf		 mov	 ecx, edi
  00057	6b c9 48	 imul	 ecx, 72			; 00000048H
  0005a	8d 44 18 b8	 lea	 eax, DWORD PTR [eax+ebx-72]
  0005e	50		 push	 eax
  0005f	03 cb		 add	 ecx, ebx
  00061	e8 00 00 00 00	 call	 ??4tagInventoryItemInfo@@QAEAAU0@ABU0@@Z

; 2580 : 		_Hole = _Bottom - 1;

  00066	8b 7d 10	 mov	 edi, DWORD PTR __Bottom$[ebp]
  00069	4f		 dec	 edi
$LN1@Adjust_hea@2:

; 2581 : 		}
; 2582 : 	_Push_heap(_First, _Hole, _Top, _Move(_Val), _Pred);

  0006a	ff 75 18	 push	 DWORD PTR __Pred$[ebp]
  0006d	ff 75 14	 push	 DWORD PTR __Val$[ebp]
  00070	ff 75 0c	 push	 DWORD PTR __Top$[ebp]
  00073	57		 push	 edi
  00074	53		 push	 ebx
  00075	e8 00 00 00 00	 call	 ??$_Push_heap@PAUtagInventoryItemInfo@@HU1@VInventoryItemInfoSort3@@@std@@YAXPAUtagInventoryItemInfo@@HH$$QAU1@VInventoryItemInfoSort3@@@Z ; std::_Push_heap<tagInventoryItemInfo *,int,tagInventoryItemInfo,InventoryItemInfoSort3>
  0007a	83 c4 14	 add	 esp, 20			; 00000014H
  0007d	5f		 pop	 edi
  0007e	5e		 pop	 esi
  0007f	5b		 pop	 ebx

; 2583 : 	}

  00080	5d		 pop	 ebp
  00081	c3		 ret	 0
??$_Adjust_heap@PAUtagInventoryItemInfo@@HU1@VInventoryItemInfoSort3@@@std@@YAXPAUtagInventoryItemInfo@@HH$$QAU1@VInventoryItemInfoSort3@@@Z ENDP ; std::_Adjust_heap<tagInventoryItemInfo *,int,tagInventoryItemInfo,InventoryItemInfoSort3>
_TEXT	ENDS
PUBLIC	??$_Pop_heap@PAUtagInventoryItemInfo@@HU1@VInventoryItemInfoSort2@@@std@@YAXPAUtagInventoryItemInfo@@00$$QAU1@VInventoryItemInfoSort2@@PAH@Z ; std::_Pop_heap<tagInventoryItemInfo *,int,tagInventoryItemInfo,InventoryItemInfoSort2>
; Function compile flags: /Ogsp
;	COMDAT ??$_Pop_heap@PAUtagInventoryItemInfo@@HU1@VInventoryItemInfoSort2@@@std@@YAXPAUtagInventoryItemInfo@@00$$QAU1@VInventoryItemInfoSort2@@PAH@Z
_TEXT	SEGMENT
__First$ = 8						; size = 4
__Last$ = 12						; size = 4
__Dest$ = 16						; size = 4
__Val$ = 20						; size = 4
__Pred$ = 24						; size = 1
___formal$ = 28						; size = 4
??$_Pop_heap@PAUtagInventoryItemInfo@@HU1@VInventoryItemInfoSort2@@@std@@YAXPAUtagInventoryItemInfo@@00$$QAU1@VInventoryItemInfoSort2@@PAH@Z PROC ; std::_Pop_heap<tagInventoryItemInfo *,int,tagInventoryItemInfo,InventoryItemInfoSort2>, COMDAT

; 2591 : 	{	// pop *_First to *_Dest and reheap, using _Pred

  00000	55		 push	 ebp
  00001	8b ec		 mov	 ebp, esp

; 2592 : 	*_Dest = _Move(*_First);

  00003	ff 75 08	 push	 DWORD PTR __First$[ebp]
  00006	8b 4d 10	 mov	 ecx, DWORD PTR __Dest$[ebp]
  00009	e8 00 00 00 00	 call	 ??4tagInventoryItemInfo@@QAEAAU0@ABU0@@Z

; 2593 : 	_Adjust_heap(_First, _Diff(0), _Diff(_Last - _First),
; 2594 : 		_Move(_Val), _Pred);

  0000e	ff 75 18	 push	 DWORD PTR __Pred$[ebp]
  00011	8b 45 0c	 mov	 eax, DWORD PTR __Last$[ebp]
  00014	ff 75 14	 push	 DWORD PTR __Val$[ebp]
  00017	2b 45 08	 sub	 eax, DWORD PTR __First$[ebp]
  0001a	6a 48		 push	 72			; 00000048H
  0001c	59		 pop	 ecx
  0001d	99		 cdq
  0001e	f7 f9		 idiv	 ecx
  00020	50		 push	 eax
  00021	6a 00		 push	 0
  00023	ff 75 08	 push	 DWORD PTR __First$[ebp]
  00026	e8 00 00 00 00	 call	 ??$_Adjust_heap@PAUtagInventoryItemInfo@@HU1@VInventoryItemInfoSort2@@@std@@YAXPAUtagInventoryItemInfo@@HH$$QAU1@VInventoryItemInfoSort2@@@Z ; std::_Adjust_heap<tagInventoryItemInfo *,int,tagInventoryItemInfo,InventoryItemInfoSort2>
  0002b	83 c4 14	 add	 esp, 20			; 00000014H

; 2595 : 	}

  0002e	5d		 pop	 ebp
  0002f	c3		 ret	 0
??$_Pop_heap@PAUtagInventoryItemInfo@@HU1@VInventoryItemInfoSort2@@@std@@YAXPAUtagInventoryItemInfo@@00$$QAU1@VInventoryItemInfoSort2@@PAH@Z ENDP ; std::_Pop_heap<tagInventoryItemInfo *,int,tagInventoryItemInfo,InventoryItemInfoSort2>
_TEXT	ENDS
PUBLIC	??$_Pop_heap@PAUtagInventoryItemInfo@@HU1@VInventoryItemInfoSort3@@@std@@YAXPAUtagInventoryItemInfo@@00$$QAU1@VInventoryItemInfoSort3@@PAH@Z ; std::_Pop_heap<tagInventoryItemInfo *,int,tagInventoryItemInfo,InventoryItemInfoSort3>
; Function compile flags: /Ogsp
;	COMDAT ??$_Pop_heap@PAUtagInventoryItemInfo@@HU1@VInventoryItemInfoSort3@@@std@@YAXPAUtagInventoryItemInfo@@00$$QAU1@VInventoryItemInfoSort3@@PAH@Z
_TEXT	SEGMENT
__First$ = 8						; size = 4
__Last$ = 12						; size = 4
__Dest$ = 16						; size = 4
__Val$ = 20						; size = 4
__Pred$ = 24						; size = 1
___formal$ = 28						; size = 4
??$_Pop_heap@PAUtagInventoryItemInfo@@HU1@VInventoryItemInfoSort3@@@std@@YAXPAUtagInventoryItemInfo@@00$$QAU1@VInventoryItemInfoSort3@@PAH@Z PROC ; std::_Pop_heap<tagInventoryItemInfo *,int,tagInventoryItemInfo,InventoryItemInfoSort3>, COMDAT

; 2591 : 	{	// pop *_First to *_Dest and reheap, using _Pred

  00000	55		 push	 ebp
  00001	8b ec		 mov	 ebp, esp

; 2592 : 	*_Dest = _Move(*_First);

  00003	ff 75 08	 push	 DWORD PTR __First$[ebp]
  00006	8b 4d 10	 mov	 ecx, DWORD PTR __Dest$[ebp]
  00009	e8 00 00 00 00	 call	 ??4tagInventoryItemInfo@@QAEAAU0@ABU0@@Z

; 2593 : 	_Adjust_heap(_First, _Diff(0), _Diff(_Last - _First),
; 2594 : 		_Move(_Val), _Pred);

  0000e	ff 75 18	 push	 DWORD PTR __Pred$[ebp]
  00011	8b 45 0c	 mov	 eax, DWORD PTR __Last$[ebp]
  00014	ff 75 14	 push	 DWORD PTR __Val$[ebp]
  00017	2b 45 08	 sub	 eax, DWORD PTR __First$[ebp]
  0001a	6a 48		 push	 72			; 00000048H
  0001c	59		 pop	 ecx
  0001d	99		 cdq
  0001e	f7 f9		 idiv	 ecx
  00020	50		 push	 eax
  00021	6a 00		 push	 0
  00023	ff 75 08	 push	 DWORD PTR __First$[ebp]
  00026	e8 00 00 00 00	 call	 ??$_Adjust_heap@PAUtagInventoryItemInfo@@HU1@VInventoryItemInfoSort3@@@std@@YAXPAUtagInventoryItemInfo@@HH$$QAU1@VInventoryItemInfoSort3@@@Z ; std::_Adjust_heap<tagInventoryItemInfo *,int,tagInventoryItemInfo,InventoryItemInfoSort3>
  0002b	83 c4 14	 add	 esp, 20			; 00000014H

; 2595 : 	}

  0002e	5d		 pop	 ebp
  0002f	c3		 ret	 0
??$_Pop_heap@PAUtagInventoryItemInfo@@HU1@VInventoryItemInfoSort3@@@std@@YAXPAUtagInventoryItemInfo@@00$$QAU1@VInventoryItemInfoSort3@@PAH@Z ENDP ; std::_Pop_heap<tagInventoryItemInfo *,int,tagInventoryItemInfo,InventoryItemInfoSort3>
_TEXT	ENDS
PUBLIC	?GetRegisterLimitPeso@TradeInfoManager@@QBE_JXZ	; TradeInfoManager::GetRegisterLimitPeso
; Function compile flags: /Ogsp
; File d:\lost saga for developer\youtube\tutorial\source\src\lsclient\tradeinfomanager.h
;	COMDAT ?GetRegisterLimitPeso@TradeInfoManager@@QBE_JXZ
_TEXT	SEGMENT
_value$512250 = -8					; size = 8
?GetRegisterLimitPeso@TradeInfoManager@@QBE_JXZ PROC	; TradeInfoManager::GetRegisterLimitPeso, COMDAT
; _this$ = ecx

; 114  : 	inline __int64 GetRegisterLimitPeso() const { return m_iRegisterLimitPeso; }

  00000	55		 push	 ebp
  00001	8b ec		 mov	 ebp, esp
  00003	51		 push	 ecx
  00004	51		 push	 ecx
  00005	8d 45 f8	 lea	 eax, DWORD PTR _value$512250[ebp]
  00008	50		 push	 eax
  00009	83 c1 04	 add	 ecx, 4
  0000c	e8 00 00 00 00	 call	 ?DecryptValueToPool@?$CEncrypt@_J@@QAEXPA_J@Z ; CEncrypt<__int64>::DecryptValueToPool
  00011	8b 45 f8	 mov	 eax, DWORD PTR _value$512250[ebp]
  00014	8b 55 fc	 mov	 edx, DWORD PTR _value$512250[ebp+4]
  00017	c9		 leave
  00018	c3		 ret	 0
?GetRegisterLimitPeso@TradeInfoManager@@QBE_JXZ ENDP	; TradeInfoManager::GetRegisterLimitPeso
_TEXT	ENDS
PUBLIC	?GetTradeStateChangeLevel@TradeInfoManager@@QBEHXZ ; TradeInfoManager::GetTradeStateChangeLevel
; Function compile flags: /Ogsp
;	COMDAT ?GetTradeStateChangeLevel@TradeInfoManager@@QBEHXZ
_TEXT	SEGMENT
_value$512258 = -4					; size = 4
?GetTradeStateChangeLevel@TradeInfoManager@@QBEHXZ PROC	; TradeInfoManager::GetTradeStateChangeLevel, COMDAT
; _this$ = ecx

; 117  : 	inline int GetTradeStateChangeLevel() const { return m_iTradeStateChangeLevel; }

  00000	55		 push	 ebp
  00001	8b ec		 mov	 ebp, esp
  00003	51		 push	 ecx
  00004	8d 45 fc	 lea	 eax, DWORD PTR _value$512258[ebp]
  00007	50		 push	 eax
  00008	83 c1 38	 add	 ecx, 56			; 00000038H
  0000b	e8 00 00 00 00	 call	 ?DecryptValueToPool@?$CEncrypt@H@@QAEXPAH@Z ; CEncrypt<int>::DecryptValueToPool
  00010	8b 45 fc	 mov	 eax, DWORD PTR _value$512258[ebp]
  00013	c9		 leave
  00014	c3		 ret	 0
?GetTradeStateChangeLevel@TradeInfoManager@@QBEHXZ ENDP	; TradeInfoManager::GetTradeStateChangeLevel
_TEXT	ENDS
PUBLIC	?GetLevelLimitConst@ioExtraItemInfoManager@@QBEHXZ ; ioExtraItemInfoManager::GetLevelLimitConst
; Function compile flags: /Ogsp
; File d:\lost saga for developer\youtube\tutorial\source\src\lsclient\ioextraiteminfomanager.h
;	COMDAT ?GetLevelLimitConst@ioExtraItemInfoManager@@QBEHXZ
_TEXT	SEGMENT
_value$512265 = -4					; size = 4
?GetLevelLimitConst@ioExtraItemInfoManager@@QBEHXZ PROC	; ioExtraItemInfoManager::GetLevelLimitConst, COMDAT
; _this$ = ecx

; 196  : 	inline int GetLevelLimitConst() const { return m_iLevelLimitConst; }

  00000	55		 push	 ebp
  00001	8b ec		 mov	 ebp, esp
  00003	51		 push	 ecx
  00004	8d 45 fc	 lea	 eax, DWORD PTR _value$512265[ebp]
  00007	50		 push	 eax
  00008	83 c1 04	 add	 ecx, 4
  0000b	e8 00 00 00 00	 call	 ?DecryptValueToPool@?$CEncrypt@H@@QAEXPAH@Z ; CEncrypt<int>::DecryptValueToPool
  00010	8b 45 fc	 mov	 eax, DWORD PTR _value$512265[ebp]
  00013	c9		 leave
  00014	c3		 ret	 0
?GetLevelLimitConst@ioExtraItemInfoManager@@QBEHXZ ENDP	; ioExtraItemInfoManager::GetLevelLimitConst
_TEXT	ENDS
PUBLIC	??_C@_0DB@JCPJIELD@TradeItemRegisterConfirmWnd?3?3Set@ ; `string'
PUBLIC	?SetRegisterItemInfo@TradeItemRegisterConfirmWnd@@QAEXH@Z ; TradeItemRegisterConfirmWnd::SetRegisterItemInfo
EXTRN	?AddTextPiece@ioComplexStringPrinter@@QAEXMPBDH0@Z:PROC ; ioComplexStringPrinter::AddTextPiece
EXTRN	?GetClassNameA@ioMyInfo@@QAEPBDHH@Z:PROC	; ioMyInfo::GetClassNameA
EXTRN	?ConvertPowerUpItemToItemGrade@@YAHH@Z:PROC	; ConvertPowerUpItemToItemGrade
EXTRN	?GetSingleton@ioExtraItemInfoManager@@SAAAV1@XZ:PROC ; ioExtraItemInfoManager::GetSingleton
;	COMDAT ??_C@_0DB@JCPJIELD@TradeItemRegisterConfirmWnd?3?3Set@
; File d:\lost saga for developer\youtube\tutorial\source\src\lsclient\gui\changetradestatewnd.h
CONST	SEGMENT
??_C@_0DB@JCPJIELD@TradeItemRegisterConfirmWnd?3?3Set@ DB 'TradeItemRegis'
	DB	'terConfirmWnd::SetRegisterItemInfo', 00H	; `string'
CONST	ENDS
;	COMDAT xdata$x
xdata$x	SEGMENT
__unwindtable$?SetRegisterItemInfo@TradeItemRegisterConfirmWnd@@QAEXH@Z DD 0ffffffffH
	DD	FLAT:__unwindfunclet$?SetRegisterItemInfo@TradeItemRegisterConfirmWnd@@QAEXH@Z$0
	DD	00H
	DD	FLAT:__unwindfunclet$?SetRegisterItemInfo@TradeItemRegisterConfirmWnd@@QAEXH@Z$1
__ehfuncinfo$?SetRegisterItemInfo@TradeItemRegisterConfirmWnd@@QAEXH@Z DD 019930522H
	DD	02H
	DD	FLAT:__unwindtable$?SetRegisterItemInfo@TradeItemRegisterConfirmWnd@@QAEXH@Z
	DD	2 DUP(00H)
	DD	2 DUP(00H)
	DD	00H
	DD	01H
; Function compile flags: /Ogsp
; File d:\lost saga for developer\youtube\tutorial\source\src\lsclient\gui\tradeitemregisterwnd.cpp
xdata$x	ENDS
;	COMDAT ?SetRegisterItemInfo@TradeItemRegisterConfirmWnd@@QAEXH@Z
_TEXT	SEGMENT
_kSlot$ = -112						; size = 72
$T512269 = -40						; size = 16
tv342 = -24						; size = 4
tv340 = -24						; size = 4
_iPowerUpItemGrade$ = -24				; size = 4
_pItem$ = -20						; size = 4
_pExtraItem$ = -20					; size = 4
_iLimitLevel$ = -16					; size = 4
__$EHRec$ = -12						; size = 12
_value$512285 = 8					; size = 4
_pIcon$ = 8						; size = 4
_iEnableClass$ = 8					; size = 4
_iIndex$ = 8						; size = 4
?SetRegisterItemInfo@TradeItemRegisterConfirmWnd@@QAEXH@Z PROC ; TradeItemRegisterConfirmWnd::SetRegisterItemInfo, COMDAT
; _this$ = ecx

; 98   : {

  00000	6a 64		 push	 100			; 00000064H
  00002	b8 00 00 00 00	 mov	 eax, __ehhandler$?SetRegisterItemInfo@TradeItemRegisterConfirmWnd@@QAEXH@Z
  00007	e8 00 00 00 00	 call	 __EH_prolog3
  0000c	8b f9		 mov	 edi, ecx

; 99   : 	m_iExtraItemIndex = 0;

  0000e	33 db		 xor	 ebx, ebx
  00010	89 9f 90 01 00
	00		 mov	 DWORD PTR [edi+400], ebx

; 100  : 	m_iTexPrice = 0;

  00016	89 9f a0 01 00
	00		 mov	 DWORD PTR [edi+416], ebx
  0001c	89 9f a4 01 00
	00		 mov	 DWORD PTR [edi+420], ebx

; 101  : 	m_iPrice = 0;

  00022	89 9f 98 01 00
	00		 mov	 DWORD PTR [edi+408], ebx
  00028	89 9f 9c 01 00
	00		 mov	 DWORD PTR [edi+412], ebx

; 102  : 
; 103  : 	ClearDesc();

  0002e	e8 00 00 00 00	 call	 ?ClearDesc@TradeItemRegisterConfirmWnd@@IAEXXZ ; TradeItemRegisterConfirmWnd::ClearDesc

; 104  : 
; 105  : 	ioUserExtraItem *pExtraItem = g_MyInfo.GetUserExtraItem();

  00033	e8 00 00 00 00	 call	 ?GetSingleton@ioMyInfo@@SAAAV1@XZ ; ioMyInfo::GetSingleton
  00038	05 ac 01 00 00	 add	 eax, 428		; 000001acH
  0003d	89 45 ec	 mov	 DWORD PTR _pExtraItem$[ebp], eax

; 106  : 	if( !pExtraItem )

  00040	3b c3		 cmp	 eax, ebx
  00042	75 0d		 jne	 SHORT $LN11@SetRegiste@2

; 107  : 	{
; 108  : 		HideWnd();

  00044	8b cf		 mov	 ecx, edi
  00046	ff 15 00 00 00
	00		 call	 DWORD PTR __imp_?HideWnd@ioWnd@@QAEXXZ

; 109  : 		return;

  0004c	e9 e7 02 00 00	 jmp	 $LN12@SetRegiste@2
$LN11@SetRegiste@2:

; 110  : 	}
; 111  : 
; 112  : 	EXTRAITEMSLOT kSlot;

  00051	8d 4d 90	 lea	 ecx, DWORD PTR _kSlot$[ebp]
  00054	e8 00 00 00 00	 call	 ??0EXTRAITEMSLOT@@QAE@XZ ; EXTRAITEMSLOT::EXTRAITEMSLOT

; 113  : 	if( !pExtraItem->GetExtraItem( iIndex, kSlot ) )

  00059	8b 75 08	 mov	 esi, DWORD PTR _iIndex$[ebp]
  0005c	8b 4d ec	 mov	 ecx, DWORD PTR _pExtraItem$[ebp]
  0005f	8d 45 90	 lea	 eax, DWORD PTR _kSlot$[ebp]
  00062	50		 push	 eax
  00063	56		 push	 esi
  00064	89 5d fc	 mov	 DWORD PTR __$EHRec$[ebp+8], ebx
  00067	e8 00 00 00 00	 call	 ?GetExtraItem@ioUserExtraItem@@QAE_NHAAUEXTRAITEMSLOT@@@Z ; ioUserExtraItem::GetExtraItem
  0006c	84 c0		 test	 al, al
  0006e	75 0d		 jne	 SHORT $LN10@SetRegiste@2

; 114  : 	{
; 115  : 		HideWnd();

  00070	8b cf		 mov	 ecx, edi
  00072	ff 15 00 00 00
	00		 call	 DWORD PTR __imp_?HideWnd@ioWnd@@QAEXXZ

; 116  : 		return;

  00078	e9 af 02 00 00	 jmp	 $LN1@SetRegiste@2
$LN10@SetRegiste@2:

; 117  : 	}
; 118  : 
; 119  : 	m_iExtraItemIndex = iIndex;
; 120  : 
; 121  : 	// Name
; 122  : 	m_szDescArray[0].SetTextStyle( TS_NORMAL );

  0007d	53		 push	 ebx
  0007e	8d 8f ac 01 00
	00		 lea	 ecx, DWORD PTR [edi+428]
  00084	89 b7 90 01 00
	00		 mov	 DWORD PTR [edi+400], esi
  0008a	e8 00 00 00 00	 call	 ?SetTextStyle@ioComplexStringPrinter@@QAEXW4TextStyle@@@Z ; ioComplexStringPrinter::SetTextStyle

; 123  : 	m_szDescArray[0].SetBkColor( 0, 0, 0 );	

  0008f	53		 push	 ebx
  00090	53		 push	 ebx
  00091	53		 push	 ebx
  00092	8d 8f ac 01 00
	00		 lea	 ecx, DWORD PTR [edi+428]
  00098	e8 00 00 00 00	 call	 ?SetBkColor@ioComplexStringPrinter@@QAEXHHH@Z ; ioComplexStringPrinter::SetBkColor

; 124  : 	m_szDescArray[0].SetTextColor( TCT_DEFAULT_DARKGRAY ); // 

  0009d	68 3a 3a 3a ff	 push	 -12961222		; ff3a3a3aH
  000a2	8d 8f ac 01 00
	00		 lea	 ecx, DWORD PTR [edi+428]
  000a8	e8 00 00 00 00	 call	 ?SetTextColor@ioComplexStringPrinter@@QAEXK@Z ; ioComplexStringPrinter::SetTextColor

; 125  : 	m_szDescArray[0].AddTextPiece( FONT_SIZE_17, STR(1), kSlot.m_Name.c_str() );

  000ad	8d 4d b8	 lea	 ecx, DWORD PTR _kSlot$[ebp+40]
  000b0	ff 15 00 00 00
	00		 call	 DWORD PTR __imp_?c_str@ioHashString@@QBEPBDXZ
  000b6	50		 push	 eax
  000b7	53		 push	 ebx
  000b8	6a 01		 push	 1
  000ba	68 00 00 00 00	 push	 OFFSET ??_C@_00CNPNBAHC@?$AA@
  000bf	be 00 00 00 00	 mov	 esi, OFFSET ??_C@_0DB@JCPJIELD@TradeItemRegisterConfirmWnd?3?3Set@
  000c4	56		 push	 esi
  000c5	ff 15 00 00 00
	00		 call	 DWORD PTR __imp_?GetSingleton@ioStringManager@@SAAAV1@XZ
  000cb	8b c8		 mov	 ecx, eax
  000cd	ff 15 00 00 00
	00		 call	 DWORD PTR __imp_?GetString@ioStringManager@@QAEPADPBD0HW4FileNamePrefix@1@@Z
  000d3	f3 0f 10 05 00
	00 00 00	 movss	 xmm0, DWORD PTR __real@3f59999a
  000db	50		 push	 eax
  000dc	51		 push	 ecx
  000dd	8d 8f ac 01 00
	00		 lea	 ecx, DWORD PTR [edi+428]
  000e3	f3 0f 11 04 24	 movss	 DWORD PTR [esp], xmm0
  000e8	e8 00 00 00 00	 call	 ?AddTextPiece@ioComplexStringPrinter@@QAEXMPBD0@Z ; ioComplexStringPrinter::AddTextPiece

; 126  : 
; 127  : 	m_szDescArray[1].SetTextStyle( TS_NORMAL );

  000ed	8d 8f cc 01 00
	00		 lea	 ecx, DWORD PTR [edi+460]
  000f3	53		 push	 ebx
  000f4	e8 00 00 00 00	 call	 ?SetTextStyle@ioComplexStringPrinter@@QAEXW4TextStyle@@@Z ; ioComplexStringPrinter::SetTextStyle

; 128  : 	m_szDescArray[1].SetBkColor( 0, 0, 0 );	

  000f9	53		 push	 ebx
  000fa	53		 push	 ebx
  000fb	53		 push	 ebx
  000fc	8d 8f cc 01 00
	00		 lea	 ecx, DWORD PTR [edi+460]
  00102	e8 00 00 00 00	 call	 ?SetBkColor@ioComplexStringPrinter@@QAEXHHH@Z ; ioComplexStringPrinter::SetBkColor

; 129  : 	m_szDescArray[1].SetTextColor( TCT_DEFAULT_BLUE );

  00107	68 b2 46 16 ff	 push	 -15317326		; ff1646b2H
  0010c	8d 8f cc 01 00
	00		 lea	 ecx, DWORD PTR [edi+460]
  00112	e8 00 00 00 00	 call	 ?SetTextColor@ioComplexStringPrinter@@QAEXK@Z ; ioComplexStringPrinter::SetTextColor

; 130  : 	m_szDescArray[1].AddTextPiece( FONT_SIZE_17, STR(2) );

  00117	53		 push	 ebx
  00118	6a 02		 push	 2
  0011a	68 00 00 00 00	 push	 OFFSET ??_C@_00CNPNBAHC@?$AA@
  0011f	56		 push	 esi
  00120	ff 15 00 00 00
	00		 call	 DWORD PTR __imp_?GetSingleton@ioStringManager@@SAAAV1@XZ
  00126	8b c8		 mov	 ecx, eax
  00128	ff 15 00 00 00
	00		 call	 DWORD PTR __imp_?GetString@ioStringManager@@QAEPADPBD0HW4FileNamePrefix@1@@Z
  0012e	f3 0f 10 05 00
	00 00 00	 movss	 xmm0, DWORD PTR __real@3f59999a
  00136	50		 push	 eax
  00137	51		 push	 ecx
  00138	8d 87 cc 01 00
	00		 lea	 eax, DWORD PTR [edi+460]
  0013e	f3 0f 11 04 24	 movss	 DWORD PTR [esp], xmm0
  00143	50		 push	 eax
  00144	e8 00 00 00 00	 call	 ?AddTextPiece@ioComplexStringPrinter@@QAAXMPBDZZ ; ioComplexStringPrinter::AddTextPiece
  00149	83 c4 0c	 add	 esp, 12			; 0000000cH

; 131  : 
; 132  : 	// Limit
; 133  : 	int iLimitLevel = kSlot.m_iReinforce * g_ExtraItemInfoMgr.GetLevelLimitConst();

  0014c	e8 00 00 00 00	 call	 ?GetSingleton@ioExtraItemInfoManager@@SAAAV1@XZ ; ioExtraItemInfoManager::GetSingleton
  00151	8d 48 04	 lea	 ecx, DWORD PTR [eax+4]
  00154	8d 45 08	 lea	 eax, DWORD PTR _value$512285[ebp]
  00157	50		 push	 eax
  00158	e8 00 00 00 00	 call	 ?DecryptValueToPool@?$CEncrypt@H@@QAEXPAH@Z ; CEncrypt<int>::DecryptValueToPool
  0015d	8b 45 08	 mov	 eax, DWORD PTR _value$512285[ebp]
  00160	0f af 45 94	 imul	 eax, DWORD PTR _kSlot$[ebp+4]

; 134  : 	int iEnableClass = 0;
; 135  : 	int iPowerUpItemGrade = ConvertPowerUpItemToItemGrade( kSlot.m_iItemCode );

  00164	ff 75 90	 push	 DWORD PTR _kSlot$[ebp]
  00167	89 45 f0	 mov	 DWORD PTR _iLimitLevel$[ebp], eax
  0016a	89 5d 08	 mov	 DWORD PTR _iEnableClass$[ebp], ebx
  0016d	e8 00 00 00 00	 call	 ?ConvertPowerUpItemToItemGrade@@YAHH@Z ; ConvertPowerUpItemToItemGrade
  00172	59		 pop	 ecx

; 136  : 
; 137  : 	const ioItem *pItem = g_ItemMaker.GetItemConst( kSlot.m_iItemCode, __FUNCTION__ );

  00173	56		 push	 esi
  00174	8d 4d d8	 lea	 ecx, DWORD PTR $T512269[ebp]
  00177	89 45 e8	 mov	 DWORD PTR _iPowerUpItemGrade$[ebp], eax
  0017a	ff 15 00 00 00
	00		 call	 DWORD PTR __imp_??0ioHashString@@QAE@PBD@Z
  00180	8d 45 d8	 lea	 eax, DWORD PTR $T512269[ebp]
  00183	50		 push	 eax
  00184	ff 75 90	 push	 DWORD PTR _kSlot$[ebp]
  00187	c6 45 fc 01	 mov	 BYTE PTR __$EHRec$[ebp+8], 1
  0018b	e8 00 00 00 00	 call	 ?GetSingleton@ioItemMaker@@SAAAV1@XZ ; ioItemMaker::GetSingleton
  00190	8b c8		 mov	 ecx, eax
  00192	e8 00 00 00 00	 call	 ?GetItemConst@ioItemMaker@@QBEPBVioItem@@KABVioHashString@@@Z ; ioItemMaker::GetItemConst
  00197	89 45 ec	 mov	 DWORD PTR _pItem$[ebp], eax
  0019a	88 5d fc	 mov	 BYTE PTR __$EHRec$[ebp+8], bl
  0019d	8d 4d d8	 lea	 ecx, DWORD PTR $T512269[ebp]
  001a0	ff 15 00 00 00
	00		 call	 DWORD PTR __imp_??1ioHashString@@QAE@XZ

; 138  : 	if( pItem )

  001a6	8b 45 ec	 mov	 eax, DWORD PTR _pItem$[ebp]
  001a9	3b c3		 cmp	 eax, ebx
  001ab	74 09		 je	 SHORT $LN22@SetRegiste@2

; 139  : 		iEnableClass = pItem->GetEnableClass();

  001ad	8b 80 bc 04 00
	00		 mov	 eax, DWORD PTR [eax+1212]
  001b3	89 45 08	 mov	 DWORD PTR _iEnableClass$[ebp], eax
$LN22@SetRegiste@2:

; 140  : 
; 141  : 	m_szDescArray[2].SetTextStyle( TS_NORMAL );

  001b6	8d 8f ec 01 00
	00		 lea	 ecx, DWORD PTR [edi+492]
  001bc	53		 push	 ebx
  001bd	e8 00 00 00 00	 call	 ?SetTextStyle@ioComplexStringPrinter@@QAEXW4TextStyle@@@Z ; ioComplexStringPrinter::SetTextStyle

; 142  : 	m_szDescArray[2].SetBkColor( 0, 0, 0 );	

  001c2	53		 push	 ebx
  001c3	53		 push	 ebx
  001c4	53		 push	 ebx
  001c5	8d 8f ec 01 00
	00		 lea	 ecx, DWORD PTR [edi+492]
  001cb	e8 00 00 00 00	 call	 ?SetBkColor@ioComplexStringPrinter@@QAEXHHH@Z ; ioComplexStringPrinter::SetBkColor

; 143  : 	m_szDescArray[2].SetTextColor( TCT_DEFAULT_GRAY );

  001d0	68 6e 6e 6e ff	 push	 -9539986		; ff6e6e6eH
  001d5	8d 8f ec 01 00
	00		 lea	 ecx, DWORD PTR [edi+492]
  001db	e8 00 00 00 00	 call	 ?SetTextColor@ioComplexStringPrinter@@QAEXK@Z ; ioComplexStringPrinter::SetTextColor

; 144  : 
; 145  : 	if( iEnableClass > 0 )

  001e0	39 5d 08	 cmp	 DWORD PTR _iEnableClass$[ebp], ebx
  001e3	7e 49		 jle	 SHORT $LN8@SetRegiste@2

; 146  : 		m_szDescArray[2].AddTextPiece( FONT_SIZE_13, STR(3), iLimitLevel, g_MyInfo.GetClassName( iEnableClass, iPowerUpItemGrade ) );

  001e5	ff 75 e8	 push	 DWORD PTR _iPowerUpItemGrade$[ebp]
  001e8	ff 75 08	 push	 DWORD PTR _iEnableClass$[ebp]
  001eb	e8 00 00 00 00	 call	 ?GetSingleton@ioMyInfo@@SAAAV1@XZ ; ioMyInfo::GetSingleton
  001f0	8b c8		 mov	 ecx, eax
  001f2	e8 00 00 00 00	 call	 ?GetClassNameA@ioMyInfo@@QAEPBDHH@Z ; ioMyInfo::GetClassNameA
  001f7	50		 push	 eax
  001f8	ff 75 f0	 push	 DWORD PTR _iLimitLevel$[ebp]
  001fb	53		 push	 ebx
  001fc	6a 03		 push	 3
  001fe	68 00 00 00 00	 push	 OFFSET ??_C@_00CNPNBAHC@?$AA@
  00203	56		 push	 esi
  00204	ff 15 00 00 00
	00		 call	 DWORD PTR __imp_?GetSingleton@ioStringManager@@SAAAV1@XZ
  0020a	8b c8		 mov	 ecx, eax
  0020c	ff 15 00 00 00
	00		 call	 DWORD PTR __imp_?GetString@ioStringManager@@QAEPADPBD0HW4FileNamePrefix@1@@Z
  00212	f3 0f 10 05 00
	00 00 00	 movss	 xmm0, DWORD PTR __real@3f266666
  0021a	50		 push	 eax
  0021b	51		 push	 ecx
  0021c	8d 8f ec 01 00
	00		 lea	 ecx, DWORD PTR [edi+492]
  00222	f3 0f 11 04 24	 movss	 DWORD PTR [esp], xmm0
  00227	e8 00 00 00 00	 call	 ?AddTextPiece@ioComplexStringPrinter@@QAEXMPBDH0@Z ; ioComplexStringPrinter::AddTextPiece

; 147  : 	else

  0022c	eb 34		 jmp	 SHORT $LN7@SetRegiste@2
$LN8@SetRegiste@2:

; 148  : 		m_szDescArray[2].AddTextPiece( FONT_SIZE_13, STR(4), iLimitLevel );

  0022e	ff 75 f0	 push	 DWORD PTR _iLimitLevel$[ebp]
  00231	53		 push	 ebx
  00232	6a 04		 push	 4
  00234	68 00 00 00 00	 push	 OFFSET ??_C@_00CNPNBAHC@?$AA@
  00239	56		 push	 esi
  0023a	ff 15 00 00 00
	00		 call	 DWORD PTR __imp_?GetSingleton@ioStringManager@@SAAAV1@XZ
  00240	8b c8		 mov	 ecx, eax
  00242	ff 15 00 00 00
	00		 call	 DWORD PTR __imp_?GetString@ioStringManager@@QAEPADPBD0HW4FileNamePrefix@1@@Z
  00248	f3 0f 10 05 00
	00 00 00	 movss	 xmm0, DWORD PTR __real@3f266666
  00250	50		 push	 eax
  00251	51		 push	 ecx
  00252	8d 8f ec 01 00
	00		 lea	 ecx, DWORD PTR [edi+492]
  00258	f3 0f 11 04 24	 movss	 DWORD PTR [esp], xmm0
  0025d	e8 00 00 00 00	 call	 ?AddTextPiece@ioComplexStringPrinter@@QAEXMPBDH@Z ; ioComplexStringPrinter::AddTextPiece
$LN7@SetRegiste@2:

; 149  : 
; 150  : 	ioUIRenderImage *pIcon = g_UIImageSetMgr.CreateImageByFullName( kSlot.m_IconName );

  00262	8d 45 c8	 lea	 eax, DWORD PTR _kSlot$[ebp+56]
  00265	53		 push	 ebx
  00266	50		 push	 eax
  00267	ff 15 00 00 00
	00		 call	 DWORD PTR __imp_?GetSingleton@ioUIImageSetManager@@SAAAV1@XZ
  0026d	8b c8		 mov	 ecx, eax
  0026f	ff 15 00 00 00
	00		 call	 DWORD PTR __imp_?CreateImageByFullName@ioUIImageSetManager@@QAEPAVioUIRenderImage@@ABVioHashString@@_N@Z

; 151  : 	TradeIconBtn *pIconBtn = dynamic_cast<TradeIconBtn*>(FindChildWnd(ID_ICON_BTN));

  00275	53		 push	 ebx
  00276	68 00 00 00 00	 push	 OFFSET ??_R0?AVTradeIconBtn@@@8
  0027b	68 00 00 00 00	 push	 OFFSET ??_R0?AVioWnd@@@8
  00280	53		 push	 ebx
  00281	6a 01		 push	 1
  00283	8b cf		 mov	 ecx, edi
  00285	89 45 08	 mov	 DWORD PTR _pIcon$[ebp], eax
  00288	ff 15 00 00 00
	00		 call	 DWORD PTR __imp_?FindChildWnd@ioWnd@@QAEPAV1@K@Z
  0028e	50		 push	 eax
  0028f	e8 00 00 00 00	 call	 ___RTDynamicCast
  00294	8b f0		 mov	 esi, eax
  00296	83 c4 14	 add	 esp, 20			; 00000014H

; 152  : 	if( pIconBtn )

  00299	3b f3		 cmp	 esi, ebx
  0029b	74 74		 je	 SHORT $LN36@SetRegiste@2

; 153  : 	{
; 154  : 		pIconBtn->SetIcon( pIcon, FLOAT1, FLOAT1, kSlot.m_iReinforce );

  0029d	b8 01 00 00 00	 mov	 eax, 1
  002a2	8b c8		 mov	 ecx, eax
  002a4	b8 01 00 00 00	 mov	 eax, 1
  002a9	ff 75 94	 push	 DWORD PTR _kSlot$[ebp+4]
  002ac	89 4d e8	 mov	 DWORD PTR tv342[ebp], ecx
  002af	db 45 e8	 fild	 DWORD PTR tv342[ebp]
  002b2	85 c9		 test	 ecx, ecx
  002b4	79 06		 jns	 SHORT $LN39@SetRegiste@2
  002b6	d8 05 00 00 00
	00		 fadd	 DWORD PTR __real@4f800000
$LN39@SetRegiste@2:
  002bc	51		 push	 ecx
  002bd	51		 push	 ecx
  002be	89 45 e8	 mov	 DWORD PTR tv340[ebp], eax
  002c1	d9 5c 24 04	 fstp	 DWORD PTR [esp+4]
  002c5	db 45 e8	 fild	 DWORD PTR tv340[ebp]
  002c8	85 c0		 test	 eax, eax
  002ca	79 06		 jns	 SHORT $LN40@SetRegiste@2
  002cc	d8 05 00 00 00
	00		 fadd	 DWORD PTR __real@4f800000
$LN40@SetRegiste@2:
  002d2	d9 1c 24	 fstp	 DWORD PTR [esp]
  002d5	ff 75 08	 push	 DWORD PTR _pIcon$[ebp]
  002d8	8b ce		 mov	 ecx, esi
  002da	e8 00 00 00 00	 call	 ?SetIcon@TradeIconBtn@@QAE_NPAVioUIRenderImage@@MMH@Z ; TradeIconBtn::SetIcon

; 155  : 		if( pItem )

  002df	8b 45 ec	 mov	 eax, DWORD PTR _pItem$[ebp]
  002e2	3b c3		 cmp	 eax, ebx
  002e4	74 0c		 je	 SHORT $LN30@SetRegiste@2

; 156  : 			pIconBtn->SetGradeType( pItem->GetGradeType() );

  002e6	8b 80 20 06 00
	00		 mov	 eax, DWORD PTR [eax+1568]
  002ec	89 86 2c 02 00
	00		 mov	 DWORD PTR [esi+556], eax
$LN30@SetRegiste@2:

; 157  : 		pIconBtn->SetMarkType( TRADE_MARK_TYPE_DISABLE );

  002f2	89 9e 18 02 00
	00		 mov	 DWORD PTR [esi+536], ebx

; 158  : 
; 159  : 		if( kSlot.m_dwMaleCustom > 0 || kSlot.m_dwFemaleCustom > 0 )

  002f8	39 5d ac	 cmp	 DWORD PTR _kSlot$[ebp+28], ebx
  002fb	77 0d		 ja	 SHORT $LN3@SetRegiste@2
  002fd	39 5d b0	 cmp	 DWORD PTR _kSlot$[ebp+32], ebx
  00300	77 08		 ja	 SHORT $LN3@SetRegiste@2

; 161  : 		else
; 162  : 			pIconBtn->SetCustomItem( false );

  00302	88 9e 1c 02 00
	00		 mov	 BYTE PTR [esi+540], bl
  00308	eb 07		 jmp	 SHORT $LN36@SetRegiste@2
$LN3@SetRegiste@2:

; 160  : 			pIconBtn->SetCustomItem( true );

  0030a	c6 86 1c 02 00
	00 01		 mov	 BYTE PTR [esi+540], 1

; 161  : 		else
; 162  : 			pIconBtn->SetCustomItem( false );

$LN36@SetRegiste@2:

; 163  : 	}
; 164  : 
; 165  : 	SetPriceEditFocus();

  00311	8b cf		 mov	 ecx, edi
  00313	e8 00 00 00 00	 call	 ?SetPriceEditFocus@TradeItemRegisterConfirmWnd@@IAEXXZ ; TradeItemRegisterConfirmWnd::SetPriceEditFocus

; 166  : 
; 167  : 	if( !IsShow() )

  00318	8b cf		 mov	 ecx, edi
  0031a	ff 15 00 00 00
	00		 call	 DWORD PTR __imp_?IsShow@ioWnd@@QBE_NXZ
  00320	84 c0		 test	 al, al
  00322	75 08		 jne	 SHORT $LN1@SetRegiste@2

; 168  : 		ShowWnd();

  00324	8b cf		 mov	 ecx, edi
  00326	ff 15 00 00 00
	00		 call	 DWORD PTR __imp_?ShowWnd@ioWnd@@QAEXXZ
$LN1@SetRegiste@2:

; 169  : }

  0032c	83 4d fc ff	 or	 DWORD PTR __$EHRec$[ebp+8], -1
  00330	8d 4d 90	 lea	 ecx, DWORD PTR _kSlot$[ebp]
  00333	e8 00 00 00 00	 call	 ??1EXTRAITEMSLOT@@QAE@XZ
$LN12@SetRegiste@2:
  00338	e8 00 00 00 00	 call	 __EH_epilog3
  0033d	c2 04 00	 ret	 4
_TEXT	ENDS
;	COMDAT text$x
text$x	SEGMENT
__unwindfunclet$?SetRegisterItemInfo@TradeItemRegisterConfirmWnd@@QAEXH@Z$0:
  00000	8d 4d 90	 lea	 ecx, DWORD PTR _kSlot$[ebp]
  00003	e9 00 00 00 00	 jmp	 ??1EXTRAITEMSLOT@@QAE@XZ
__unwindfunclet$?SetRegisterItemInfo@TradeItemRegisterConfirmWnd@@QAEXH@Z$1:
  00008	8d 4d d8	 lea	 ecx, DWORD PTR $T512269[ebp]
  0000b	ff 25 00 00 00
	00		 jmp	 DWORD PTR __imp_??1ioHashString@@QAE@XZ
__ehhandler$?SetRegisterItemInfo@TradeItemRegisterConfirmWnd@@QAEXH@Z:
  00011	8b 54 24 08	 mov	 edx, DWORD PTR [esp+8]
  00015	8d 42 0c	 lea	 eax, DWORD PTR [edx+12]
  00018	8b 4a 8c	 mov	 ecx, DWORD PTR [edx-116]
  0001b	33 c8		 xor	 ecx, eax
  0001d	e8 00 00 00 00	 call	 @__security_check_cookie@4
  00022	b8 00 00 00 00	 mov	 eax, OFFSET __ehfuncinfo$?SetRegisterItemInfo@TradeItemRegisterConfirmWnd@@QAEXH@Z
  00027	e9 00 00 00 00	 jmp	 ___CxxFrameHandler3
text$x	ENDS
?SetRegisterItemInfo@TradeItemRegisterConfirmWnd@@QAEXH@Z ENDP ; TradeItemRegisterConfirmWnd::SetRegisterItemInfo
PUBLIC	??_R0?AVTradeItemRegisterWnd@@@8		; TradeItemRegisterWnd `RTTI Type Descriptor'
PUBLIC	??_C@_0CJ@CIKICKEN@TradeItemRegisterConfirmWnd?3?3iwm@ ; `string'
PUBLIC	__$ArrayPad$
EXTRN	?SetMsgBox@ioSP2GUIManager@@QAEXHPAVioWnd@@PBD1@Z:PROC ; ioSP2GUIManager::SetMsgBox
EXTRN	__allmul:PROC
;	COMDAT ??_R0?AVTradeItemRegisterWnd@@@8
; File d:\lost saga for developer\youtube\tutorial\source\src\lsclient\encryptvalue.h
_DATA	SEGMENT
??_R0?AVTradeItemRegisterWnd@@@8 DD FLAT:??_7type_info@@6B@ ; TradeItemRegisterWnd `RTTI Type Descriptor'
	DD	00H
	DB	'.?AVTradeItemRegisterWnd@@', 00H
_DATA	ENDS
;	COMDAT ??_C@_0CJ@CIKICKEN@TradeItemRegisterConfirmWnd?3?3iwm@
CONST	SEGMENT
??_C@_0CJ@CIKICKEN@TradeItemRegisterConfirmWnd?3?3iwm@ DB 'TradeItemRegis'
	DB	'terConfirmWnd::iwm_command', 00H		; `string'
; Function compile flags: /Ogsp
; File d:\lost saga for developer\youtube\tutorial\source\src\lsclient\gui\tradeitemregisterwnd.cpp
CONST	ENDS
;	COMDAT ?iwm_command@TradeItemRegisterConfirmWnd@@UAEXPAVioWnd@@HK@Z
_TEXT	SEGMENT
_value$512335 = -272					; size = 8
tv85 = -268						; size = 4
_szPeso$507994 = -264					; size = 260
__$ArrayPad$ = -4					; size = 4
_pWnd$ = 8						; size = 4
_cmd$ = 12						; size = 4
_param$ = 16						; size = 4
?iwm_command@TradeItemRegisterConfirmWnd@@UAEXPAVioWnd@@HK@Z PROC ; TradeItemRegisterConfirmWnd::iwm_command, COMDAT
; _this$ = ecx

; 172  : {

  00000	55		 push	 ebp
  00001	8b ec		 mov	 ebp, esp
  00003	81 ec 10 01 00
	00		 sub	 esp, 272		; 00000110H
  00009	a1 00 00 00 00	 mov	 eax, DWORD PTR ___security_cookie
  0000e	33 c5		 xor	 eax, ebp
  00010	89 45 fc	 mov	 DWORD PTR __$ArrayPad$[ebp], eax
  00013	56		 push	 esi
  00014	8b f1		 mov	 esi, ecx
  00016	8b 4d 08	 mov	 ecx, DWORD PTR _pWnd$[ebp]

; 173  : 	DWORD dwID = pWnd->GetID();

  00019	ff 15 00 00 00
	00		 call	 DWORD PTR __imp_?GetID@ioWnd@@QBEKXZ

; 174  : 	switch( dwID )

  0001f	83 f8 02	 cmp	 eax, 2
  00022	74 23		 je	 SHORT $LN8@iwm_comman@2
  00024	83 c0 fd	 add	 eax, -3			; fffffffdH
  00027	83 f8 01	 cmp	 eax, 1
  0002a	0f 87 79 01 00
	00		 ja	 $LN6@iwm_comman@2

; 207  : 			}
; 208  : 		}
; 209  : 		break;
; 210  : 	case ID_CANCEL_BTN:
; 211  : 	case ID_EXIT_BTN:
; 212  : 		if( cmd == IOBN_BTNUP )

  00030	83 7d 0c 11	 cmp	 DWORD PTR _cmd$[ebp], 17 ; 00000011H
  00034	0f 85 6f 01 00
	00		 jne	 $LN6@iwm_comman@2

; 213  : 		{
; 214  : 			HideWnd();

  0003a	8b ce		 mov	 ecx, esi
  0003c	ff 15 00 00 00
	00		 call	 DWORD PTR __imp_?HideWnd@ioWnd@@QAEXXZ

; 215  : 		}
; 216  : 		break;

  00042	e9 62 01 00 00	 jmp	 $LN6@iwm_comman@2
$LN8@iwm_comman@2:

; 175  : 	{
; 176  : 	case ID_REGISTER_BTN:
; 177  : 		if( cmd == IOBN_BTNUP )

  00047	83 7d 0c 11	 cmp	 DWORD PTR _cmd$[ebp], 17 ; 00000011H
  0004b	0f 85 58 01 00
	00		 jne	 $LN6@iwm_comman@2

; 178  : 		{
; 179  : 			m_iPrice = 0;

  00051	83 a6 98 01 00
	00 00		 and	 DWORD PTR [esi+408], 0
  00058	83 a6 9c 01 00
	00 00		 and	 DWORD PTR [esi+412], 0
  0005f	53		 push	 ebx

; 180  : 			ioEdit *pEdit = (ioEdit*)FindChildWnd( ID_PRICE_EDIT );

  00060	6a 05		 push	 5
  00062	8b ce		 mov	 ecx, esi
  00064	ff 15 00 00 00
	00		 call	 DWORD PTR __imp_?FindChildWnd@ioWnd@@QAEPAV1@K@Z
  0006a	8b d8		 mov	 ebx, eax

; 181  : 			if( pEdit )

  0006c	85 db		 test	 ebx, ebx
  0006e	0f 84 34 01 00
	00		 je	 $LN20@iwm_comman@2

; 182  : 			{
; 183  : 				if( strlen( pEdit->GetText() ) > 0 )

  00074	57		 push	 edi
  00075	8b 3d 00 00 00
	00		 mov	 edi, DWORD PTR __imp_?GetText@ioEdit@@QBEPBDXZ
  0007b	8b cb		 mov	 ecx, ebx
  0007d	ff d7		 call	 edi
  0007f	8d 50 01	 lea	 edx, DWORD PTR [eax+1]
$LL17@iwm_comman@2:
  00082	8a 08		 mov	 cl, BYTE PTR [eax]
  00084	40		 inc	 eax
  00085	84 c9		 test	 cl, cl
  00087	75 f9		 jne	 SHORT $LL17@iwm_comman@2
  00089	2b c2		 sub	 eax, edx
  0008b	74 2a		 je	 SHORT $LN19@iwm_comman@2

; 184  : 				{
; 185  : 					m_iPrice = atoi( pEdit->GetText() );

  0008d	8b cb		 mov	 ecx, ebx
  0008f	ff d7		 call	 edi
  00091	50		 push	 eax
  00092	ff 15 00 00 00
	00		 call	 DWORD PTR __imp__atoi
  00098	59		 pop	 ecx

; 186  : 					m_iPrice *= 10000;

  00099	33 ff		 xor	 edi, edi
  0009b	57		 push	 edi
  0009c	99		 cdq
  0009d	68 10 27 00 00	 push	 10000			; 00002710H
  000a2	52		 push	 edx
  000a3	50		 push	 eax
  000a4	e8 00 00 00 00	 call	 __allmul
  000a9	89 86 98 01 00
	00		 mov	 DWORD PTR [esi+408], eax
  000af	89 96 9c 01 00
	00		 mov	 DWORD PTR [esi+412], edx
  000b5	eb 02		 jmp	 SHORT $LN5@iwm_comman@2
$LN19@iwm_comman@2:
  000b7	33 ff		 xor	 edi, edi
$LN5@iwm_comman@2:

; 187  : 				}
; 188  : 
; 189  : 				__int64 iLimitPeso = g_TradeInfoMgr.GetRegisterLimitPeso();

  000b9	e8 00 00 00 00	 call	 ?GetSingleton@TradeInfoManager@@SAAAV1@XZ ; TradeInfoManager::GetSingleton
  000be	8d 8d f0 fe ff
	ff		 lea	 ecx, DWORD PTR _value$512335[ebp]
  000c4	51		 push	 ecx
  000c5	8d 48 04	 lea	 ecx, DWORD PTR [eax+4]
  000c8	e8 00 00 00 00	 call	 ?DecryptValueToPool@?$CEncrypt@_J@@QAEXPA_J@Z ; CEncrypt<__int64>::DecryptValueToPool

; 190  : 				if( m_iPrice < iLimitPeso )

  000cd	8b 86 9c 01 00
	00		 mov	 eax, DWORD PTR [esi+412]
  000d3	3b 85 f4 fe ff
	ff		 cmp	 eax, DWORD PTR _value$512335[ebp+4]
  000d9	7f 76		 jg	 SHORT $LN4@iwm_comman@2
  000db	7c 0e		 jl	 SHORT $LN18@iwm_comman@2
  000dd	8b 86 98 01 00
	00		 mov	 eax, DWORD PTR [esi+408]
  000e3	3b 85 f0 fe ff
	ff		 cmp	 eax, DWORD PTR _value$512335[ebp]
  000e9	73 66		 jae	 SHORT $LN4@iwm_comman@2
$LN18@iwm_comman@2:

; 191  : 				{
; 192  : 					char szPeso[MAX_PATH]="";

  000eb	68 03 01 00 00	 push	 259			; 00000103H
  000f0	8d 85 f9 fe ff
	ff		 lea	 eax, DWORD PTR _szPeso$507994[ebp+1]
  000f6	57		 push	 edi
  000f7	50		 push	 eax
  000f8	c6 85 f8 fe ff
	ff 00		 mov	 BYTE PTR _szPeso$507994[ebp], 0
  000ff	e8 00 00 00 00	 call	 _memset

; 193  : 					Help::ConvertNumToStrComma( iLimitPeso, szPeso, sizeof( szPeso ) );

  00104	68 04 01 00 00	 push	 260			; 00000104H
  00109	8d 85 f8 fe ff
	ff		 lea	 eax, DWORD PTR _szPeso$507994[ebp]
  0010f	50		 push	 eax
  00110	ff b5 f0 fe ff
	ff		 push	 DWORD PTR _value$512335[ebp]
  00116	e8 00 00 00 00	 call	 ?ConvertNumToStrComma@Help@@YAXHPADH@Z ; Help::ConvertNumToStrComma
  0011b	83 c4 18	 add	 esp, 24			; 00000018H

; 194  : 					g_GUIMgr.SetMsgBox( MB_OK, NULL, STR(1), szPeso );

  0011e	8d 85 f8 fe ff
	ff		 lea	 eax, DWORD PTR _szPeso$507994[ebp]
  00124	50		 push	 eax
  00125	57		 push	 edi
  00126	6a 01		 push	 1
  00128	68 00 00 00 00	 push	 OFFSET ??_C@_00CNPNBAHC@?$AA@
  0012d	68 00 00 00 00	 push	 OFFSET ??_C@_0CJ@CIKICKEN@TradeItemRegisterConfirmWnd?3?3iwm@
  00132	ff 15 00 00 00
	00		 call	 DWORD PTR __imp_?GetSingleton@ioStringManager@@SAAAV1@XZ
  00138	8b c8		 mov	 ecx, eax
  0013a	ff 15 00 00 00
	00		 call	 DWORD PTR __imp_?GetString@ioStringManager@@QAEPADPBD0HW4FileNamePrefix@1@@Z
  00140	50		 push	 eax
  00141	57		 push	 edi
  00142	57		 push	 edi
  00143	e8 00 00 00 00	 call	 ?GetSingleton@ioSP2GUIManager@@SAAAV1@XZ ; ioSP2GUIManager::GetSingleton
  00148	8b c8		 mov	 ecx, eax
  0014a	e8 00 00 00 00	 call	 ?SetMsgBox@ioSP2GUIManager@@QAEXHPAVioWnd@@PBD1@Z ; ioSP2GUIManager::SetMsgBox

; 195  : 					return;

  0014f	eb 56		 jmp	 SHORT $LN21@iwm_comman@2
$LN4@iwm_comman@2:

; 196  : 				}
; 197  : 
; 198  : 				pEdit->KillKeyFocus();

  00151	8b 03		 mov	 eax, DWORD PTR [ebx]
  00153	8b cb		 mov	 ecx, ebx
  00155	ff 90 34 01 00
	00		 call	 DWORD PTR [eax+308]

; 199  : 
; 200  : 				TradeItemRegisterWnd *pRegisterWnd = dynamic_cast<TradeItemRegisterWnd*>(g_GUIMgr.FindWnd(TRADE_REGISTER_WND));

  0015b	57		 push	 edi
  0015c	68 00 00 00 00	 push	 OFFSET ??_R0?AVTradeItemRegisterWnd@@@8
  00161	68 00 00 00 00	 push	 OFFSET ??_R0?AVioWnd@@@8
  00166	57		 push	 edi
  00167	68 0b 18 00 00	 push	 6155			; 0000180bH
  0016c	e8 00 00 00 00	 call	 ?GetSingleton@ioSP2GUIManager@@SAAAV1@XZ ; ioSP2GUIManager::GetSingleton
  00171	8b c8		 mov	 ecx, eax
  00173	ff 15 00 00 00
	00		 call	 DWORD PTR __imp_?FindWnd@ioGUIManager@@QAEPAVioWnd@@K@Z
  00179	50		 push	 eax
  0017a	e8 00 00 00 00	 call	 ___RTDynamicCast
  0017f	83 c4 14	 add	 esp, 20			; 00000014H

; 201  : 				if( pRegisterWnd )

  00182	3b c7		 cmp	 eax, edi
  00184	74 19		 je	 SHORT $LN3@iwm_comman@2

; 202  : 				{
; 203  : 					pRegisterWnd->SendTradeItemRegister( m_iExtraItemIndex, m_iPrice );

  00186	ff b6 9c 01 00
	00		 push	 DWORD PTR [esi+412]
  0018c	8b c8		 mov	 ecx, eax
  0018e	ff b6 98 01 00
	00		 push	 DWORD PTR [esi+408]
  00194	ff b6 90 01 00
	00		 push	 DWORD PTR [esi+400]
  0019a	e8 00 00 00 00	 call	 ?SendTradeItemRegister@TradeItemRegisterWnd@@QAEXH_J@Z ; TradeItemRegisterWnd::SendTradeItemRegister
$LN3@iwm_comman@2:

; 204  : 				}
; 205  : 
; 206  : 				HideWnd();

  0019f	8b ce		 mov	 ecx, esi
  001a1	ff 15 00 00 00
	00		 call	 DWORD PTR __imp_?HideWnd@ioWnd@@QAEXXZ
$LN21@iwm_comman@2:
  001a7	5f		 pop	 edi
$LN20@iwm_comman@2:
  001a8	5b		 pop	 ebx
$LN6@iwm_comman@2:

; 217  : 	}
; 218  : }

  001a9	8b 4d fc	 mov	 ecx, DWORD PTR __$ArrayPad$[ebp]
  001ac	33 cd		 xor	 ecx, ebp
  001ae	5e		 pop	 esi
  001af	e8 00 00 00 00	 call	 @__security_check_cookie@4
  001b4	c9		 leave
  001b5	c2 0c 00	 ret	 12			; 0000000cH
?iwm_command@TradeItemRegisterConfirmWnd@@UAEXPAVioWnd@@HK@Z ENDP ; TradeItemRegisterConfirmWnd::iwm_command
_TEXT	ENDS
PUBLIC	?iwm_vscroll@TradeItemRegisterWnd@@UAEXKH@Z	; TradeItemRegisterWnd::iwm_vscroll
; Function compile flags: /Ogsp
;	COMDAT ?iwm_vscroll@TradeItemRegisterWnd@@UAEXKH@Z
_TEXT	SEGMENT
_dwID$ = 8						; size = 4
_curPos$ = 12						; size = 4
?iwm_vscroll@TradeItemRegisterWnd@@UAEXKH@Z PROC	; TradeItemRegisterWnd::iwm_vscroll, COMDAT
; _this$ = ecx

; 512  : {

  00000	55		 push	 ebp
  00001	8b ec		 mov	 ebp, esp

; 513  : 	UpdatePage( curPos );

  00003	ff 75 0c	 push	 DWORD PTR _curPos$[ebp]
  00006	e8 00 00 00 00	 call	 ?UpdatePage@TradeItemRegisterWnd@@IAEXH@Z ; TradeItemRegisterWnd::UpdatePage

; 514  : }

  0000b	5d		 pop	 ebp
  0000c	c2 08 00	 ret	 8
?iwm_vscroll@TradeItemRegisterWnd@@UAEXKH@Z ENDP	; TradeItemRegisterWnd::iwm_vscroll
_TEXT	ENDS
PUBLIC	?OnProcess@TradeItemRegisterWnd@@MAEXM@Z	; TradeItemRegisterWnd::OnProcess
EXTRN	__imp_?OnProcess@ioWnd@@MAEXM@Z:PROC
; Function compile flags: /Ogsp
;	COMDAT ?OnProcess@TradeItemRegisterWnd@@MAEXM@Z
_TEXT	SEGMENT
_fTimePerSec$ = 8					; size = 4
?OnProcess@TradeItemRegisterWnd@@MAEXM@Z PROC		; TradeItemRegisterWnd::OnProcess, COMDAT
; _this$ = ecx

; 792  : {

  00000	55		 push	 ebp
  00001	8b ec		 mov	 ebp, esp
  00003	56		 push	 esi
  00004	8b f1		 mov	 esi, ecx

; 793  : 	if( !IsShow() )

  00006	ff 15 00 00 00
	00		 call	 DWORD PTR __imp_?IsShow@ioWnd@@QBE_NXZ
  0000c	84 c0		 test	 al, al
  0000e	74 1a		 je	 SHORT $LN2@OnProcess

; 794  : 		return;
; 795  : 
; 796  : 	ProcessCustomBtnTooltip();

  00010	8b ce		 mov	 ecx, esi
  00012	e8 00 00 00 00	 call	 ?ProcessCustomBtnTooltip@TradeItemRegisterWnd@@IAEXXZ ; TradeItemRegisterWnd::ProcessCustomBtnTooltip

; 797  : 	ioMovingWnd::OnProcess( fTimePerSec );

  00017	f3 0f 10 45 08	 movss	 xmm0, DWORD PTR _fTimePerSec$[ebp]
  0001c	51		 push	 ecx
  0001d	8b ce		 mov	 ecx, esi
  0001f	f3 0f 11 04 24	 movss	 DWORD PTR [esp], xmm0
  00024	ff 15 00 00 00
	00		 call	 DWORD PTR __imp_?OnProcess@ioWnd@@MAEXM@Z
$LN2@OnProcess:
  0002a	5e		 pop	 esi

; 798  : }

  0002b	5d		 pop	 ebp
  0002c	c2 04 00	 ret	 4
?OnProcess@TradeItemRegisterWnd@@MAEXM@Z ENDP		; TradeItemRegisterWnd::OnProcess
_TEXT	ENDS
PUBLIC	??$_Insertion_sort@PAUtagInventoryItemInfo@@VInventoryItemInfoSort2@@@std@@YAXPAUtagInventoryItemInfo@@0VInventoryItemInfoSort2@@@Z ; std::_Insertion_sort<tagInventoryItemInfo *,InventoryItemInfoSort2>
; Function compile flags: /Ogsp
; File c:\program files (x86)\microsoft visual studio 10.0\vc\include\algorithm
;	COMDAT ??$_Insertion_sort@PAUtagInventoryItemInfo@@VInventoryItemInfoSort2@@@std@@YAXPAUtagInventoryItemInfo@@0VInventoryItemInfoSort2@@@Z
_TEXT	SEGMENT
__First$ = 8						; size = 4
__Last$ = 12						; size = 4
__Pred$ = 16						; size = 1
??$_Insertion_sort@PAUtagInventoryItemInfo@@VInventoryItemInfoSort2@@@std@@YAXPAUtagInventoryItemInfo@@0VInventoryItemInfoSort2@@@Z PROC ; std::_Insertion_sort<tagInventoryItemInfo *,InventoryItemInfoSort2>, COMDAT

; 3676 : 	{	// insertion sort [_First, _Last), using _Pred

  00000	55		 push	 ebp
  00001	8b ec		 mov	 ebp, esp

; 3677 : 	_Insertion_sort1(_First, _Last, _Pred, _Val_type(_First));

  00003	6a 00		 push	 0
  00005	ff 75 10	 push	 DWORD PTR __Pred$[ebp]
  00008	ff 75 0c	 push	 DWORD PTR __Last$[ebp]
  0000b	ff 75 08	 push	 DWORD PTR __First$[ebp]
  0000e	e8 00 00 00 00	 call	 ??$_Insertion_sort1@PAUtagInventoryItemInfo@@VInventoryItemInfoSort2@@U1@@std@@YAXPAUtagInventoryItemInfo@@0VInventoryItemInfoSort2@@0@Z ; std::_Insertion_sort1<tagInventoryItemInfo *,InventoryItemInfoSort2,tagInventoryItemInfo>
  00013	83 c4 10	 add	 esp, 16			; 00000010H

; 3678 : 	}

  00016	5d		 pop	 ebp
  00017	c3		 ret	 0
??$_Insertion_sort@PAUtagInventoryItemInfo@@VInventoryItemInfoSort2@@@std@@YAXPAUtagInventoryItemInfo@@0VInventoryItemInfoSort2@@@Z ENDP ; std::_Insertion_sort<tagInventoryItemInfo *,InventoryItemInfoSort2>
_TEXT	ENDS
PUBLIC	??$_Insertion_sort@PAUtagInventoryItemInfo@@VInventoryItemInfoSort3@@@std@@YAXPAUtagInventoryItemInfo@@0VInventoryItemInfoSort3@@@Z ; std::_Insertion_sort<tagInventoryItemInfo *,InventoryItemInfoSort3>
; Function compile flags: /Ogsp
;	COMDAT ??$_Insertion_sort@PAUtagInventoryItemInfo@@VInventoryItemInfoSort3@@@std@@YAXPAUtagInventoryItemInfo@@0VInventoryItemInfoSort3@@@Z
_TEXT	SEGMENT
__First$ = 8						; size = 4
__Last$ = 12						; size = 4
__Pred$ = 16						; size = 1
??$_Insertion_sort@PAUtagInventoryItemInfo@@VInventoryItemInfoSort3@@@std@@YAXPAUtagInventoryItemInfo@@0VInventoryItemInfoSort3@@@Z PROC ; std::_Insertion_sort<tagInventoryItemInfo *,InventoryItemInfoSort3>, COMDAT

; 3676 : 	{	// insertion sort [_First, _Last), using _Pred

  00000	55		 push	 ebp
  00001	8b ec		 mov	 ebp, esp

; 3677 : 	_Insertion_sort1(_First, _Last, _Pred, _Val_type(_First));

  00003	6a 00		 push	 0
  00005	ff 75 10	 push	 DWORD PTR __Pred$[ebp]
  00008	ff 75 0c	 push	 DWORD PTR __Last$[ebp]
  0000b	ff 75 08	 push	 DWORD PTR __First$[ebp]
  0000e	e8 00 00 00 00	 call	 ??$_Insertion_sort1@PAUtagInventoryItemInfo@@VInventoryItemInfoSort3@@U1@@std@@YAXPAUtagInventoryItemInfo@@0VInventoryItemInfoSort3@@0@Z ; std::_Insertion_sort1<tagInventoryItemInfo *,InventoryItemInfoSort3,tagInventoryItemInfo>
  00013	83 c4 10	 add	 esp, 16			; 00000010H

; 3678 : 	}

  00016	5d		 pop	 ebp
  00017	c3		 ret	 0
??$_Insertion_sort@PAUtagInventoryItemInfo@@VInventoryItemInfoSort3@@@std@@YAXPAUtagInventoryItemInfo@@0VInventoryItemInfoSort3@@@Z ENDP ; std::_Insertion_sort<tagInventoryItemInfo *,InventoryItemInfoSort3>
_TEXT	ENDS
PUBLIC	??$_Dest_val@V?$allocator@UtagInventoryItemInfo@@@std@@UtagInventoryItemInfo@@@std@@YAXAAV?$allocator@UtagInventoryItemInfo@@@0@PAUtagInventoryItemInfo@@@Z ; std::_Dest_val<std::allocator<tagInventoryItemInfo>,tagInventoryItemInfo>
; Function compile flags: /Ogsp
; File c:\program files (x86)\microsoft visual studio 10.0\vc\include\xmemory
;	COMDAT ??$_Dest_val@V?$allocator@UtagInventoryItemInfo@@@std@@UtagInventoryItemInfo@@@std@@YAXAAV?$allocator@UtagInventoryItemInfo@@@0@PAUtagInventoryItemInfo@@@Z
_TEXT	SEGMENT
__Alval$ = 8						; size = 4
__Pdest$ = 12						; size = 4
??$_Dest_val@V?$allocator@UtagInventoryItemInfo@@@std@@UtagInventoryItemInfo@@@std@@YAXAAV?$allocator@UtagInventoryItemInfo@@@0@PAUtagInventoryItemInfo@@@Z PROC ; std::_Dest_val<std::allocator<tagInventoryItemInfo>,tagInventoryItemInfo>, COMDAT

; 286  : 	{	// destroy using allocator

  00000	55		 push	 ebp
  00001	8b ec		 mov	 ebp, esp

; 287  : 	_Alval.destroy(_Pdest);

  00003	8b 4d 0c	 mov	 ecx, DWORD PTR __Pdest$[ebp]
  00006	83 c1 24	 add	 ecx, 36			; 00000024H

; 288  : 	}

  00009	5d		 pop	 ebp

; 287  : 	_Alval.destroy(_Pdest);

  0000a	ff 25 00 00 00
	00		 jmp	 DWORD PTR __imp_??1ioHashString@@QAE@XZ
??$_Dest_val@V?$allocator@UtagInventoryItemInfo@@@std@@UtagInventoryItemInfo@@@std@@YAXAAV?$allocator@UtagInventoryItemInfo@@@0@PAUtagInventoryItemInfo@@@Z ENDP ; std::_Dest_val<std::allocator<tagInventoryItemInfo>,tagInventoryItemInfo>
_TEXT	ENDS
PUBLIC	??$_Median@PAUtagInventoryItemInfo@@VInventoryItemInfoSort2@@@std@@YAXPAUtagInventoryItemInfo@@00VInventoryItemInfoSort2@@@Z ; std::_Median<tagInventoryItemInfo *,InventoryItemInfoSort2>
; Function compile flags: /Ogsp
; File c:\program files (x86)\microsoft visual studio 10.0\vc\include\algorithm
;	COMDAT ??$_Median@PAUtagInventoryItemInfo@@VInventoryItemInfoSort2@@@std@@YAXPAUtagInventoryItemInfo@@00VInventoryItemInfoSort2@@@Z
_TEXT	SEGMENT
tv200 = 8						; size = 4
__First$ = 8						; size = 4
__Mid$ = 12						; size = 4
tv203 = 16						; size = 4
__Last$ = 16						; size = 4
__Pred$ = 20						; size = 1
??$_Median@PAUtagInventoryItemInfo@@VInventoryItemInfoSort2@@@std@@YAXPAUtagInventoryItemInfo@@00VInventoryItemInfoSort2@@@Z PROC ; std::_Median<tagInventoryItemInfo *,InventoryItemInfoSort2>, COMDAT

; 3695 : 	{	// sort median element to middle

  00000	55		 push	 ebp
  00001	8b ec		 mov	 ebp, esp

; 3696 : 	if (40 < _Last - _First)

  00003	8b 4d 08	 mov	 ecx, DWORD PTR __First$[ebp]
  00006	53		 push	 ebx
  00007	8b 5d 10	 mov	 ebx, DWORD PTR __Last$[ebp]
  0000a	56		 push	 esi
  0000b	8b c3		 mov	 eax, ebx
  0000d	2b c1		 sub	 eax, ecx
  0000f	6a 48		 push	 72			; 00000048H
  00011	99		 cdq
  00012	5e		 pop	 esi
  00013	f7 fe		 idiv	 esi
  00015	83 f8 28	 cmp	 eax, 40			; 00000028H
  00018	7e 6b		 jle	 SHORT $LN2@Median

; 3697 : 		{	// median of nine
; 3698 : 		size_t _Step = (_Last - _First + 1) / 8;

  0001a	40		 inc	 eax
  0001b	99		 cdq
  0001c	83 e2 07	 and	 edx, 7
  0001f	03 c2		 add	 eax, edx
  00021	57		 push	 edi

; 3699 : 		_Med3(_First, _First + _Step, _First + 2 * _Step, _Pred);

  00022	ff 75 14	 push	 DWORD PTR __Pred$[ebp]
  00025	c1 f8 03	 sar	 eax, 3
  00028	8b f8		 mov	 edi, eax
  0002a	8b f0		 mov	 esi, eax
  0002c	69 ff 90 00 00
	00		 imul	 edi, 144		; 00000090H
  00032	6b f6 48	 imul	 esi, 72			; 00000048H
  00035	8d 14 0f	 lea	 edx, DWORD PTR [edi+ecx]
  00038	8d 04 0e	 lea	 eax, DWORD PTR [esi+ecx]
  0003b	52		 push	 edx
  0003c	50		 push	 eax
  0003d	51		 push	 ecx
  0003e	89 45 08	 mov	 DWORD PTR tv200[ebp], eax
  00041	e8 00 00 00 00	 call	 ??$_Med3@PAUtagInventoryItemInfo@@VInventoryItemInfoSort2@@@std@@YAXPAUtagInventoryItemInfo@@00VInventoryItemInfoSort2@@@Z ; std::_Med3<tagInventoryItemInfo *,InventoryItemInfoSort2>

; 3700 : 		_Med3(_Mid - _Step, _Mid, _Mid + _Step, _Pred);

  00046	ff 75 14	 push	 DWORD PTR __Pred$[ebp]
  00049	8b 45 0c	 mov	 eax, DWORD PTR __Mid$[ebp]
  0004c	8d 0c 06	 lea	 ecx, DWORD PTR [esi+eax]
  0004f	51		 push	 ecx
  00050	50		 push	 eax
  00051	2b c6		 sub	 eax, esi
  00053	50		 push	 eax
  00054	e8 00 00 00 00	 call	 ??$_Med3@PAUtagInventoryItemInfo@@VInventoryItemInfoSort2@@@std@@YAXPAUtagInventoryItemInfo@@00VInventoryItemInfoSort2@@@Z ; std::_Med3<tagInventoryItemInfo *,InventoryItemInfoSort2>

; 3701 : 		_Med3(_Last - 2 * _Step, _Last - _Step, _Last, _Pred);

  00059	ff 75 14	 push	 DWORD PTR __Pred$[ebp]
  0005c	89 5d 10	 mov	 DWORD PTR tv203[ebp], ebx
  0005f	29 75 10	 sub	 DWORD PTR tv203[ebp], esi
  00062	53		 push	 ebx
  00063	ff 75 10	 push	 DWORD PTR tv203[ebp]
  00066	2b df		 sub	 ebx, edi
  00068	53		 push	 ebx
  00069	e8 00 00 00 00	 call	 ??$_Med3@PAUtagInventoryItemInfo@@VInventoryItemInfoSort2@@@std@@YAXPAUtagInventoryItemInfo@@00VInventoryItemInfoSort2@@@Z ; std::_Med3<tagInventoryItemInfo *,InventoryItemInfoSort2>

; 3702 : 		_Med3(_First + _Step, _Mid, _Last - _Step, _Pred);

  0006e	ff 75 14	 push	 DWORD PTR __Pred$[ebp]
  00071	ff 75 10	 push	 DWORD PTR tv203[ebp]
  00074	ff 75 0c	 push	 DWORD PTR __Mid$[ebp]
  00077	ff 75 08	 push	 DWORD PTR tv200[ebp]
  0007a	e8 00 00 00 00	 call	 ??$_Med3@PAUtagInventoryItemInfo@@VInventoryItemInfoSort2@@@std@@YAXPAUtagInventoryItemInfo@@00VInventoryItemInfoSort2@@@Z ; std::_Med3<tagInventoryItemInfo *,InventoryItemInfoSort2>
  0007f	83 c4 40	 add	 esp, 64			; 00000040H
  00082	5f		 pop	 edi

; 3703 : 		}
; 3704 : 	else

  00083	eb 10		 jmp	 SHORT $LN1@Median
$LN2@Median:

; 3705 : 		_Med3(_First, _Mid, _Last, _Pred);

  00085	ff 75 14	 push	 DWORD PTR __Pred$[ebp]
  00088	53		 push	 ebx
  00089	ff 75 0c	 push	 DWORD PTR __Mid$[ebp]
  0008c	51		 push	 ecx
  0008d	e8 00 00 00 00	 call	 ??$_Med3@PAUtagInventoryItemInfo@@VInventoryItemInfoSort2@@@std@@YAXPAUtagInventoryItemInfo@@00VInventoryItemInfoSort2@@@Z ; std::_Med3<tagInventoryItemInfo *,InventoryItemInfoSort2>
  00092	83 c4 10	 add	 esp, 16			; 00000010H
$LN1@Median:
  00095	5e		 pop	 esi
  00096	5b		 pop	 ebx

; 3706 : 	}

  00097	5d		 pop	 ebp
  00098	c3		 ret	 0
??$_Median@PAUtagInventoryItemInfo@@VInventoryItemInfoSort2@@@std@@YAXPAUtagInventoryItemInfo@@00VInventoryItemInfoSort2@@@Z ENDP ; std::_Median<tagInventoryItemInfo *,InventoryItemInfoSort2>
_TEXT	ENDS
PUBLIC	??$_Make_heap@PAUtagInventoryItemInfo@@HU1@VInventoryItemInfoSort2@@@std@@YAXPAUtagInventoryItemInfo@@0VInventoryItemInfoSort2@@PAH0@Z ; std::_Make_heap<tagInventoryItemInfo *,int,tagInventoryItemInfo,InventoryItemInfoSort2>
;	COMDAT xdata$x
; File d:\lost saga for developer\youtube\tutorial\source\src\lsclient\gui\tradeitemregisterwnd.cpp
xdata$x	SEGMENT
__unwindtable$??$_Make_heap@PAUtagInventoryItemInfo@@HU1@VInventoryItemInfoSort2@@@std@@YAXPAUtagInventoryItemInfo@@0VInventoryItemInfoSort2@@PAH0@Z DD 0ffffffffH
	DD	FLAT:__unwindfunclet$??$_Make_heap@PAUtagInventoryItemInfo@@HU1@VInventoryItemInfoSort2@@@std@@YAXPAUtagInventoryItemInfo@@0VInventoryItemInfoSort2@@PAH0@Z$0
__ehfuncinfo$??$_Make_heap@PAUtagInventoryItemInfo@@HU1@VInventoryItemInfoSort2@@@std@@YAXPAUtagInventoryItemInfo@@0VInventoryItemInfoSort2@@PAH0@Z DD 019930522H
	DD	01H
	DD	FLAT:__unwindtable$??$_Make_heap@PAUtagInventoryItemInfo@@HU1@VInventoryItemInfoSort2@@@std@@YAXPAUtagInventoryItemInfo@@0VInventoryItemInfoSort2@@PAH0@Z
	DD	2 DUP(00H)
	DD	2 DUP(00H)
	DD	00H
	DD	01H
; Function compile flags: /Ogsp
; File c:\program files (x86)\microsoft visual studio 10.0\vc\include\algorithm
xdata$x	ENDS
;	COMDAT ??$_Make_heap@PAUtagInventoryItemInfo@@HU1@VInventoryItemInfoSort2@@@std@@YAXPAUtagInventoryItemInfo@@0VInventoryItemInfoSort2@@PAH0@Z
_TEXT	SEGMENT
__Val$509976 = -84					; size = 72
__$EHRec$ = -12						; size = 12
__First$ = 8						; size = 4
__Last$ = 12						; size = 4
__Pred$ = 16						; size = 1
___formal$ = 20						; size = 4
___formal$ = 24						; size = 4
??$_Make_heap@PAUtagInventoryItemInfo@@HU1@VInventoryItemInfoSort2@@@std@@YAXPAUtagInventoryItemInfo@@0VInventoryItemInfoSort2@@PAH0@Z PROC ; std::_Make_heap<tagInventoryItemInfo *,int,tagInventoryItemInfo,InventoryItemInfoSort2>, COMDAT

; 2658 : 	{	// make nontrivial [_First, _Last) into a heap, using _Pred

  00000	6a 48		 push	 72			; 00000048H
  00002	b8 00 00 00 00	 mov	 eax, __ehhandler$??$_Make_heap@PAUtagInventoryItemInfo@@HU1@VInventoryItemInfoSort2@@@std@@YAXPAUtagInventoryItemInfo@@0VInventoryItemInfoSort2@@PAH0@Z
  00007	e8 00 00 00 00	 call	 __EH_prolog3

; 2659 : 	_Diff _Bottom = _Last - _First;

  0000c	8b 45 0c	 mov	 eax, DWORD PTR __Last$[ebp]
  0000f	2b 45 08	 sub	 eax, DWORD PTR __First$[ebp]
  00012	6a 48		 push	 72			; 00000048H
  00014	99		 cdq
  00015	59		 pop	 ecx
  00016	f7 f9		 idiv	 ecx
  00018	8b d8		 mov	 ebx, eax

; 2660 : 	for (_Diff _Hole = _Bottom / 2; 0 < _Hole; )

  0001a	99		 cdq
  0001b	2b c2		 sub	 eax, edx
  0001d	8b f0		 mov	 esi, eax
  0001f	d1 fe		 sar	 esi, 1
  00021	85 f6		 test	 esi, esi
  00023	7e 3e		 jle	 SHORT $LN1@Make_heap

; 2659 : 	_Diff _Bottom = _Last - _First;

  00025	8b fe		 mov	 edi, esi
  00027	6b ff 48	 imul	 edi, 72			; 00000048H
  0002a	03 7d 08	 add	 edi, DWORD PTR __First$[ebp]
$LN2@Make_heap:

; 2661 : 		{	// reheap top half, bottom to top
; 2662 : 		--_Hole;

  0002d	83 ef 48	 sub	 edi, 72			; 00000048H

; 2663 : 		_Ty _Val = _Move(*(_First + _Hole));

  00030	57		 push	 edi
  00031	8d 4d ac	 lea	 ecx, DWORD PTR __Val$509976[ebp]
  00034	4e		 dec	 esi
  00035	e8 00 00 00 00	 call	 ??0tagInventoryItemInfo@@QAE@ABU0@@Z

; 2664 : 		_Adjust_heap(_First, _Hole, _Bottom,
; 2665 : 			_Move(_Val), _Pred);

  0003a	ff 75 10	 push	 DWORD PTR __Pred$[ebp]
  0003d	83 65 fc 00	 and	 DWORD PTR __$EHRec$[ebp+8], 0
  00041	8d 45 ac	 lea	 eax, DWORD PTR __Val$509976[ebp]
  00044	50		 push	 eax
  00045	53		 push	 ebx
  00046	56		 push	 esi
  00047	ff 75 08	 push	 DWORD PTR __First$[ebp]
  0004a	e8 00 00 00 00	 call	 ??$_Adjust_heap@PAUtagInventoryItemInfo@@HU1@VInventoryItemInfoSort2@@@std@@YAXPAUtagInventoryItemInfo@@HH$$QAU1@VInventoryItemInfoSort2@@@Z ; std::_Adjust_heap<tagInventoryItemInfo *,int,tagInventoryItemInfo,InventoryItemInfoSort2>

; 2666 : 		}

  0004f	83 4d fc ff	 or	 DWORD PTR __$EHRec$[ebp+8], -1
  00053	83 c4 14	 add	 esp, 20			; 00000014H
  00056	8d 4d d0	 lea	 ecx, DWORD PTR __Val$509976[ebp+36]
  00059	ff 15 00 00 00
	00		 call	 DWORD PTR __imp_??1ioHashString@@QAE@XZ
  0005f	85 f6		 test	 esi, esi
  00061	7f ca		 jg	 SHORT $LN2@Make_heap
$LN1@Make_heap:

; 2667 : 	}

  00063	e8 00 00 00 00	 call	 __EH_epilog3
  00068	c3		 ret	 0
_TEXT	ENDS
;	COMDAT text$x
text$x	SEGMENT
__unwindfunclet$??$_Make_heap@PAUtagInventoryItemInfo@@HU1@VInventoryItemInfoSort2@@@std@@YAXPAUtagInventoryItemInfo@@0VInventoryItemInfoSort2@@PAH0@Z$0:
  00000	8d 4d ac	 lea	 ecx, DWORD PTR __Val$509976[ebp]
  00003	e9 00 00 00 00	 jmp	 ??1tagInventoryItemInfo@@QAE@XZ
__ehhandler$??$_Make_heap@PAUtagInventoryItemInfo@@HU1@VInventoryItemInfoSort2@@@std@@YAXPAUtagInventoryItemInfo@@0VInventoryItemInfoSort2@@PAH0@Z:
  00008	8b 54 24 08	 mov	 edx, DWORD PTR [esp+8]
  0000c	8d 42 0c	 lea	 eax, DWORD PTR [edx+12]
  0000f	8b 4a a8	 mov	 ecx, DWORD PTR [edx-88]
  00012	33 c8		 xor	 ecx, eax
  00014	e8 00 00 00 00	 call	 @__security_check_cookie@4
  00019	b8 00 00 00 00	 mov	 eax, OFFSET __ehfuncinfo$??$_Make_heap@PAUtagInventoryItemInfo@@HU1@VInventoryItemInfoSort2@@@std@@YAXPAUtagInventoryItemInfo@@0VInventoryItemInfoSort2@@PAH0@Z
  0001e	e9 00 00 00 00	 jmp	 ___CxxFrameHandler3
text$x	ENDS
??$_Make_heap@PAUtagInventoryItemInfo@@HU1@VInventoryItemInfoSort2@@@std@@YAXPAUtagInventoryItemInfo@@0VInventoryItemInfoSort2@@PAH0@Z ENDP ; std::_Make_heap<tagInventoryItemInfo *,int,tagInventoryItemInfo,InventoryItemInfoSort2>
PUBLIC	??$_Median@PAUtagInventoryItemInfo@@VInventoryItemInfoSort3@@@std@@YAXPAUtagInventoryItemInfo@@00VInventoryItemInfoSort3@@@Z ; std::_Median<tagInventoryItemInfo *,InventoryItemInfoSort3>
; Function compile flags: /Ogsp
;	COMDAT ??$_Median@PAUtagInventoryItemInfo@@VInventoryItemInfoSort3@@@std@@YAXPAUtagInventoryItemInfo@@00VInventoryItemInfoSort3@@@Z
_TEXT	SEGMENT
tv200 = 8						; size = 4
__First$ = 8						; size = 4
__Mid$ = 12						; size = 4
tv203 = 16						; size = 4
__Last$ = 16						; size = 4
__Pred$ = 20						; size = 1
??$_Median@PAUtagInventoryItemInfo@@VInventoryItemInfoSort3@@@std@@YAXPAUtagInventoryItemInfo@@00VInventoryItemInfoSort3@@@Z PROC ; std::_Median<tagInventoryItemInfo *,InventoryItemInfoSort3>, COMDAT

; 3695 : 	{	// sort median element to middle

  00000	55		 push	 ebp
  00001	8b ec		 mov	 ebp, esp

; 3696 : 	if (40 < _Last - _First)

  00003	8b 4d 08	 mov	 ecx, DWORD PTR __First$[ebp]
  00006	53		 push	 ebx
  00007	8b 5d 10	 mov	 ebx, DWORD PTR __Last$[ebp]
  0000a	56		 push	 esi
  0000b	8b c3		 mov	 eax, ebx
  0000d	2b c1		 sub	 eax, ecx
  0000f	6a 48		 push	 72			; 00000048H
  00011	99		 cdq
  00012	5e		 pop	 esi
  00013	f7 fe		 idiv	 esi
  00015	83 f8 28	 cmp	 eax, 40			; 00000028H
  00018	7e 6b		 jle	 SHORT $LN2@Median@2

; 3697 : 		{	// median of nine
; 3698 : 		size_t _Step = (_Last - _First + 1) / 8;

  0001a	40		 inc	 eax
  0001b	99		 cdq
  0001c	83 e2 07	 and	 edx, 7
  0001f	03 c2		 add	 eax, edx
  00021	57		 push	 edi

; 3699 : 		_Med3(_First, _First + _Step, _First + 2 * _Step, _Pred);

  00022	ff 75 14	 push	 DWORD PTR __Pred$[ebp]
  00025	c1 f8 03	 sar	 eax, 3
  00028	8b f8		 mov	 edi, eax
  0002a	8b f0		 mov	 esi, eax
  0002c	69 ff 90 00 00
	00		 imul	 edi, 144		; 00000090H
  00032	6b f6 48	 imul	 esi, 72			; 00000048H
  00035	8d 14 0f	 lea	 edx, DWORD PTR [edi+ecx]
  00038	8d 04 0e	 lea	 eax, DWORD PTR [esi+ecx]
  0003b	52		 push	 edx
  0003c	50		 push	 eax
  0003d	51		 push	 ecx
  0003e	89 45 08	 mov	 DWORD PTR tv200[ebp], eax
  00041	e8 00 00 00 00	 call	 ??$_Med3@PAUtagInventoryItemInfo@@VInventoryItemInfoSort3@@@std@@YAXPAUtagInventoryItemInfo@@00VInventoryItemInfoSort3@@@Z ; std::_Med3<tagInventoryItemInfo *,InventoryItemInfoSort3>

; 3700 : 		_Med3(_Mid - _Step, _Mid, _Mid + _Step, _Pred);

  00046	ff 75 14	 push	 DWORD PTR __Pred$[ebp]
  00049	8b 45 0c	 mov	 eax, DWORD PTR __Mid$[ebp]
  0004c	8d 0c 06	 lea	 ecx, DWORD PTR [esi+eax]
  0004f	51		 push	 ecx
  00050	50		 push	 eax
  00051	2b c6		 sub	 eax, esi
  00053	50		 push	 eax
  00054	e8 00 00 00 00	 call	 ??$_Med3@PAUtagInventoryItemInfo@@VInventoryItemInfoSort3@@@std@@YAXPAUtagInventoryItemInfo@@00VInventoryItemInfoSort3@@@Z ; std::_Med3<tagInventoryItemInfo *,InventoryItemInfoSort3>

; 3701 : 		_Med3(_Last - 2 * _Step, _Last - _Step, _Last, _Pred);

  00059	ff 75 14	 push	 DWORD PTR __Pred$[ebp]
  0005c	89 5d 10	 mov	 DWORD PTR tv203[ebp], ebx
  0005f	29 75 10	 sub	 DWORD PTR tv203[ebp], esi
  00062	53		 push	 ebx
  00063	ff 75 10	 push	 DWORD PTR tv203[ebp]
  00066	2b df		 sub	 ebx, edi
  00068	53		 push	 ebx
  00069	e8 00 00 00 00	 call	 ??$_Med3@PAUtagInventoryItemInfo@@VInventoryItemInfoSort3@@@std@@YAXPAUtagInventoryItemInfo@@00VInventoryItemInfoSort3@@@Z ; std::_Med3<tagInventoryItemInfo *,InventoryItemInfoSort3>

; 3702 : 		_Med3(_First + _Step, _Mid, _Last - _Step, _Pred);

  0006e	ff 75 14	 push	 DWORD PTR __Pred$[ebp]
  00071	ff 75 10	 push	 DWORD PTR tv203[ebp]
  00074	ff 75 0c	 push	 DWORD PTR __Mid$[ebp]
  00077	ff 75 08	 push	 DWORD PTR tv200[ebp]
  0007a	e8 00 00 00 00	 call	 ??$_Med3@PAUtagInventoryItemInfo@@VInventoryItemInfoSort3@@@std@@YAXPAUtagInventoryItemInfo@@00VInventoryItemInfoSort3@@@Z ; std::_Med3<tagInventoryItemInfo *,InventoryItemInfoSort3>
  0007f	83 c4 40	 add	 esp, 64			; 00000040H
  00082	5f		 pop	 edi

; 3703 : 		}
; 3704 : 	else

  00083	eb 10		 jmp	 SHORT $LN1@Median@2
$LN2@Median@2:

; 3705 : 		_Med3(_First, _Mid, _Last, _Pred);

  00085	ff 75 14	 push	 DWORD PTR __Pred$[ebp]
  00088	53		 push	 ebx
  00089	ff 75 0c	 push	 DWORD PTR __Mid$[ebp]
  0008c	51		 push	 ecx
  0008d	e8 00 00 00 00	 call	 ??$_Med3@PAUtagInventoryItemInfo@@VInventoryItemInfoSort3@@@std@@YAXPAUtagInventoryItemInfo@@00VInventoryItemInfoSort3@@@Z ; std::_Med3<tagInventoryItemInfo *,InventoryItemInfoSort3>
  00092	83 c4 10	 add	 esp, 16			; 00000010H
$LN1@Median@2:
  00095	5e		 pop	 esi
  00096	5b		 pop	 ebx

; 3706 : 	}

  00097	5d		 pop	 ebp
  00098	c3		 ret	 0
??$_Median@PAUtagInventoryItemInfo@@VInventoryItemInfoSort3@@@std@@YAXPAUtagInventoryItemInfo@@00VInventoryItemInfoSort3@@@Z ENDP ; std::_Median<tagInventoryItemInfo *,InventoryItemInfoSort3>
_TEXT	ENDS
PUBLIC	??$_Make_heap@PAUtagInventoryItemInfo@@HU1@VInventoryItemInfoSort3@@@std@@YAXPAUtagInventoryItemInfo@@0VInventoryItemInfoSort3@@PAH0@Z ; std::_Make_heap<tagInventoryItemInfo *,int,tagInventoryItemInfo,InventoryItemInfoSort3>
;	COMDAT xdata$x
; File d:\lost saga for developer\youtube\tutorial\source\src\lsclient\gui\tradeitemregisterwnd.cpp
xdata$x	SEGMENT
__unwindtable$??$_Make_heap@PAUtagInventoryItemInfo@@HU1@VInventoryItemInfoSort3@@@std@@YAXPAUtagInventoryItemInfo@@0VInventoryItemInfoSort3@@PAH0@Z DD 0ffffffffH
	DD	FLAT:__unwindfunclet$??$_Make_heap@PAUtagInventoryItemInfo@@HU1@VInventoryItemInfoSort3@@@std@@YAXPAUtagInventoryItemInfo@@0VInventoryItemInfoSort3@@PAH0@Z$0
__ehfuncinfo$??$_Make_heap@PAUtagInventoryItemInfo@@HU1@VInventoryItemInfoSort3@@@std@@YAXPAUtagInventoryItemInfo@@0VInventoryItemInfoSort3@@PAH0@Z DD 019930522H
	DD	01H
	DD	FLAT:__unwindtable$??$_Make_heap@PAUtagInventoryItemInfo@@HU1@VInventoryItemInfoSort3@@@std@@YAXPAUtagInventoryItemInfo@@0VInventoryItemInfoSort3@@PAH0@Z
	DD	2 DUP(00H)
	DD	2 DUP(00H)
	DD	00H
	DD	01H
; Function compile flags: /Ogsp
; File c:\program files (x86)\microsoft visual studio 10.0\vc\include\algorithm
xdata$x	ENDS
;	COMDAT ??$_Make_heap@PAUtagInventoryItemInfo@@HU1@VInventoryItemInfoSort3@@@std@@YAXPAUtagInventoryItemInfo@@0VInventoryItemInfoSort3@@PAH0@Z
_TEXT	SEGMENT
__Val$510043 = -84					; size = 72
__$EHRec$ = -12						; size = 12
__First$ = 8						; size = 4
__Last$ = 12						; size = 4
__Pred$ = 16						; size = 1
___formal$ = 20						; size = 4
___formal$ = 24						; size = 4
??$_Make_heap@PAUtagInventoryItemInfo@@HU1@VInventoryItemInfoSort3@@@std@@YAXPAUtagInventoryItemInfo@@0VInventoryItemInfoSort3@@PAH0@Z PROC ; std::_Make_heap<tagInventoryItemInfo *,int,tagInventoryItemInfo,InventoryItemInfoSort3>, COMDAT

; 2658 : 	{	// make nontrivial [_First, _Last) into a heap, using _Pred

  00000	6a 48		 push	 72			; 00000048H
  00002	b8 00 00 00 00	 mov	 eax, __ehhandler$??$_Make_heap@PAUtagInventoryItemInfo@@HU1@VInventoryItemInfoSort3@@@std@@YAXPAUtagInventoryItemInfo@@0VInventoryItemInfoSort3@@PAH0@Z
  00007	e8 00 00 00 00	 call	 __EH_prolog3

; 2659 : 	_Diff _Bottom = _Last - _First;

  0000c	8b 45 0c	 mov	 eax, DWORD PTR __Last$[ebp]
  0000f	2b 45 08	 sub	 eax, DWORD PTR __First$[ebp]
  00012	6a 48		 push	 72			; 00000048H
  00014	99		 cdq
  00015	59		 pop	 ecx
  00016	f7 f9		 idiv	 ecx
  00018	8b d8		 mov	 ebx, eax

; 2660 : 	for (_Diff _Hole = _Bottom / 2; 0 < _Hole; )

  0001a	99		 cdq
  0001b	2b c2		 sub	 eax, edx
  0001d	8b f0		 mov	 esi, eax
  0001f	d1 fe		 sar	 esi, 1
  00021	85 f6		 test	 esi, esi
  00023	7e 3e		 jle	 SHORT $LN1@Make_heap@2

; 2659 : 	_Diff _Bottom = _Last - _First;

  00025	8b fe		 mov	 edi, esi
  00027	6b ff 48	 imul	 edi, 72			; 00000048H
  0002a	03 7d 08	 add	 edi, DWORD PTR __First$[ebp]
$LN2@Make_heap@2:

; 2661 : 		{	// reheap top half, bottom to top
; 2662 : 		--_Hole;

  0002d	83 ef 48	 sub	 edi, 72			; 00000048H

; 2663 : 		_Ty _Val = _Move(*(_First + _Hole));

  00030	57		 push	 edi
  00031	8d 4d ac	 lea	 ecx, DWORD PTR __Val$510043[ebp]
  00034	4e		 dec	 esi
  00035	e8 00 00 00 00	 call	 ??0tagInventoryItemInfo@@QAE@ABU0@@Z

; 2664 : 		_Adjust_heap(_First, _Hole, _Bottom,
; 2665 : 			_Move(_Val), _Pred);

  0003a	ff 75 10	 push	 DWORD PTR __Pred$[ebp]
  0003d	83 65 fc 00	 and	 DWORD PTR __$EHRec$[ebp+8], 0
  00041	8d 45 ac	 lea	 eax, DWORD PTR __Val$510043[ebp]
  00044	50		 push	 eax
  00045	53		 push	 ebx
  00046	56		 push	 esi
  00047	ff 75 08	 push	 DWORD PTR __First$[ebp]
  0004a	e8 00 00 00 00	 call	 ??$_Adjust_heap@PAUtagInventoryItemInfo@@HU1@VInventoryItemInfoSort3@@@std@@YAXPAUtagInventoryItemInfo@@HH$$QAU1@VInventoryItemInfoSort3@@@Z ; std::_Adjust_heap<tagInventoryItemInfo *,int,tagInventoryItemInfo,InventoryItemInfoSort3>

; 2666 : 		}

  0004f	83 4d fc ff	 or	 DWORD PTR __$EHRec$[ebp+8], -1
  00053	83 c4 14	 add	 esp, 20			; 00000014H
  00056	8d 4d d0	 lea	 ecx, DWORD PTR __Val$510043[ebp+36]
  00059	ff 15 00 00 00
	00		 call	 DWORD PTR __imp_??1ioHashString@@QAE@XZ
  0005f	85 f6		 test	 esi, esi
  00061	7f ca		 jg	 SHORT $LN2@Make_heap@2
$LN1@Make_heap@2:

; 2667 : 	}

  00063	e8 00 00 00 00	 call	 __EH_epilog3
  00068	c3		 ret	 0
_TEXT	ENDS
;	COMDAT text$x
text$x	SEGMENT
__unwindfunclet$??$_Make_heap@PAUtagInventoryItemInfo@@HU1@VInventoryItemInfoSort3@@@std@@YAXPAUtagInventoryItemInfo@@0VInventoryItemInfoSort3@@PAH0@Z$0:
  00000	8d 4d ac	 lea	 ecx, DWORD PTR __Val$510043[ebp]
  00003	e9 00 00 00 00	 jmp	 ??1tagInventoryItemInfo@@QAE@XZ
__ehhandler$??$_Make_heap@PAUtagInventoryItemInfo@@HU1@VInventoryItemInfoSort3@@@std@@YAXPAUtagInventoryItemInfo@@0VInventoryItemInfoSort3@@PAH0@Z:
  00008	8b 54 24 08	 mov	 edx, DWORD PTR [esp+8]
  0000c	8d 42 0c	 lea	 eax, DWORD PTR [edx+12]
  0000f	8b 4a a8	 mov	 ecx, DWORD PTR [edx-88]
  00012	33 c8		 xor	 ecx, eax
  00014	e8 00 00 00 00	 call	 @__security_check_cookie@4
  00019	b8 00 00 00 00	 mov	 eax, OFFSET __ehfuncinfo$??$_Make_heap@PAUtagInventoryItemInfo@@HU1@VInventoryItemInfoSort3@@@std@@YAXPAUtagInventoryItemInfo@@0VInventoryItemInfoSort3@@PAH0@Z
  0001e	e9 00 00 00 00	 jmp	 ___CxxFrameHandler3
text$x	ENDS
??$_Make_heap@PAUtagInventoryItemInfo@@HU1@VInventoryItemInfoSort3@@@std@@YAXPAUtagInventoryItemInfo@@0VInventoryItemInfoSort3@@PAH0@Z ENDP ; std::_Make_heap<tagInventoryItemInfo *,int,tagInventoryItemInfo,InventoryItemInfoSort3>
PUBLIC	??$_Pop_heap_0@PAUtagInventoryItemInfo@@U1@VInventoryItemInfoSort2@@@std@@YAXPAUtagInventoryItemInfo@@0VInventoryItemInfoSort2@@0@Z ; std::_Pop_heap_0<tagInventoryItemInfo *,tagInventoryItemInfo,InventoryItemInfoSort2>
;	COMDAT xdata$x
; File d:\lost saga for developer\youtube\tutorial\source\src\lsclient\gui\tradeitemregisterwnd.cpp
xdata$x	SEGMENT
__unwindtable$??$_Pop_heap_0@PAUtagInventoryItemInfo@@U1@VInventoryItemInfoSort2@@@std@@YAXPAUtagInventoryItemInfo@@0VInventoryItemInfoSort2@@0@Z DD 0ffffffffH
	DD	FLAT:__unwindfunclet$??$_Pop_heap_0@PAUtagInventoryItemInfo@@U1@VInventoryItemInfoSort2@@@std@@YAXPAUtagInventoryItemInfo@@0VInventoryItemInfoSort2@@0@Z$0
__ehfuncinfo$??$_Pop_heap_0@PAUtagInventoryItemInfo@@U1@VInventoryItemInfoSort2@@@std@@YAXPAUtagInventoryItemInfo@@0VInventoryItemInfoSort2@@0@Z DD 019930522H
	DD	01H
	DD	FLAT:__unwindtable$??$_Pop_heap_0@PAUtagInventoryItemInfo@@U1@VInventoryItemInfoSort2@@@std@@YAXPAUtagInventoryItemInfo@@0VInventoryItemInfoSort2@@0@Z
	DD	2 DUP(00H)
	DD	2 DUP(00H)
	DD	00H
	DD	01H
; Function compile flags: /Ogsp
; File c:\program files (x86)\microsoft visual studio 10.0\vc\include\algorithm
xdata$x	ENDS
;	COMDAT ??$_Pop_heap_0@PAUtagInventoryItemInfo@@U1@VInventoryItemInfoSort2@@@std@@YAXPAUtagInventoryItemInfo@@0VInventoryItemInfoSort2@@0@Z
_TEXT	SEGMENT
__Val$ = -84						; size = 72
__$EHRec$ = -12						; size = 12
__First$ = 8						; size = 4
__Last$ = 12						; size = 4
__Pred$ = 16						; size = 1
___formal$ = 20						; size = 4
??$_Pop_heap_0@PAUtagInventoryItemInfo@@U1@VInventoryItemInfoSort2@@@std@@YAXPAUtagInventoryItemInfo@@0VInventoryItemInfoSort2@@0@Z PROC ; std::_Pop_heap_0<tagInventoryItemInfo *,tagInventoryItemInfo,InventoryItemInfoSort2>, COMDAT

; 2601 : 	{	// pop *_First to *(_Last - 1) and reheap, using _Pred

  00000	6a 48		 push	 72			; 00000048H
  00002	b8 00 00 00 00	 mov	 eax, __ehhandler$??$_Pop_heap_0@PAUtagInventoryItemInfo@@U1@VInventoryItemInfoSort2@@@std@@YAXPAUtagInventoryItemInfo@@0VInventoryItemInfoSort2@@0@Z
  00007	e8 00 00 00 00	 call	 __EH_prolog3

; 2602 : 	_Ty _Val = _Move(*(_Last - 1));

  0000c	8b 75 0c	 mov	 esi, DWORD PTR __Last$[ebp]
  0000f	83 c6 b8	 add	 esi, -72		; ffffffb8H
  00012	56		 push	 esi
  00013	8d 4d ac	 lea	 ecx, DWORD PTR __Val$[ebp]
  00016	e8 00 00 00 00	 call	 ??0tagInventoryItemInfo@@QAE@ABU0@@Z
  0001b	83 65 fc 00	 and	 DWORD PTR __$EHRec$[ebp+8], 0

; 2603 : 	_Pop_heap(_First, _Last - 1, _Last - 1,
; 2604 : 		_Move(_Val), _Pred, _Dist_type(_First));

  0001f	6a 00		 push	 0
  00021	ff 75 10	 push	 DWORD PTR __Pred$[ebp]
  00024	8d 45 ac	 lea	 eax, DWORD PTR __Val$[ebp]
  00027	50		 push	 eax
  00028	56		 push	 esi
  00029	56		 push	 esi
  0002a	ff 75 08	 push	 DWORD PTR __First$[ebp]
  0002d	e8 00 00 00 00	 call	 ??$_Pop_heap@PAUtagInventoryItemInfo@@HU1@VInventoryItemInfoSort2@@@std@@YAXPAUtagInventoryItemInfo@@00$$QAU1@VInventoryItemInfoSort2@@PAH@Z ; std::_Pop_heap<tagInventoryItemInfo *,int,tagInventoryItemInfo,InventoryItemInfoSort2>

; 2605 : 	}

  00032	83 4d fc ff	 or	 DWORD PTR __$EHRec$[ebp+8], -1
  00036	83 c4 18	 add	 esp, 24			; 00000018H
  00039	8d 4d d0	 lea	 ecx, DWORD PTR __Val$[ebp+36]
  0003c	ff 15 00 00 00
	00		 call	 DWORD PTR __imp_??1ioHashString@@QAE@XZ
  00042	e8 00 00 00 00	 call	 __EH_epilog3
  00047	c3		 ret	 0
_TEXT	ENDS
;	COMDAT text$x
text$x	SEGMENT
__unwindfunclet$??$_Pop_heap_0@PAUtagInventoryItemInfo@@U1@VInventoryItemInfoSort2@@@std@@YAXPAUtagInventoryItemInfo@@0VInventoryItemInfoSort2@@0@Z$0:
  00000	8d 4d ac	 lea	 ecx, DWORD PTR __Val$[ebp]
  00003	e9 00 00 00 00	 jmp	 ??1tagInventoryItemInfo@@QAE@XZ
__ehhandler$??$_Pop_heap_0@PAUtagInventoryItemInfo@@U1@VInventoryItemInfoSort2@@@std@@YAXPAUtagInventoryItemInfo@@0VInventoryItemInfoSort2@@0@Z:
  00008	8b 54 24 08	 mov	 edx, DWORD PTR [esp+8]
  0000c	8d 42 0c	 lea	 eax, DWORD PTR [edx+12]
  0000f	8b 4a a8	 mov	 ecx, DWORD PTR [edx-88]
  00012	33 c8		 xor	 ecx, eax
  00014	e8 00 00 00 00	 call	 @__security_check_cookie@4
  00019	b8 00 00 00 00	 mov	 eax, OFFSET __ehfuncinfo$??$_Pop_heap_0@PAUtagInventoryItemInfo@@U1@VInventoryItemInfoSort2@@@std@@YAXPAUtagInventoryItemInfo@@0VInventoryItemInfoSort2@@0@Z
  0001e	e9 00 00 00 00	 jmp	 ___CxxFrameHandler3
text$x	ENDS
??$_Pop_heap_0@PAUtagInventoryItemInfo@@U1@VInventoryItemInfoSort2@@@std@@YAXPAUtagInventoryItemInfo@@0VInventoryItemInfoSort2@@0@Z ENDP ; std::_Pop_heap_0<tagInventoryItemInfo *,tagInventoryItemInfo,InventoryItemInfoSort2>
PUBLIC	??$_Pop_heap_0@PAUtagInventoryItemInfo@@U1@VInventoryItemInfoSort3@@@std@@YAXPAUtagInventoryItemInfo@@0VInventoryItemInfoSort3@@0@Z ; std::_Pop_heap_0<tagInventoryItemInfo *,tagInventoryItemInfo,InventoryItemInfoSort3>
;	COMDAT xdata$x
; File d:\lost saga for developer\youtube\tutorial\source\src\lsclient\gui\tradeitemregisterwnd.cpp
xdata$x	SEGMENT
__unwindtable$??$_Pop_heap_0@PAUtagInventoryItemInfo@@U1@VInventoryItemInfoSort3@@@std@@YAXPAUtagInventoryItemInfo@@0VInventoryItemInfoSort3@@0@Z DD 0ffffffffH
	DD	FLAT:__unwindfunclet$??$_Pop_heap_0@PAUtagInventoryItemInfo@@U1@VInventoryItemInfoSort3@@@std@@YAXPAUtagInventoryItemInfo@@0VInventoryItemInfoSort3@@0@Z$0
__ehfuncinfo$??$_Pop_heap_0@PAUtagInventoryItemInfo@@U1@VInventoryItemInfoSort3@@@std@@YAXPAUtagInventoryItemInfo@@0VInventoryItemInfoSort3@@0@Z DD 019930522H
	DD	01H
	DD	FLAT:__unwindtable$??$_Pop_heap_0@PAUtagInventoryItemInfo@@U1@VInventoryItemInfoSort3@@@std@@YAXPAUtagInventoryItemInfo@@0VInventoryItemInfoSort3@@0@Z
	DD	2 DUP(00H)
	DD	2 DUP(00H)
	DD	00H
	DD	01H
; Function compile flags: /Ogsp
; File c:\program files (x86)\microsoft visual studio 10.0\vc\include\algorithm
xdata$x	ENDS
;	COMDAT ??$_Pop_heap_0@PAUtagInventoryItemInfo@@U1@VInventoryItemInfoSort3@@@std@@YAXPAUtagInventoryItemInfo@@0VInventoryItemInfoSort3@@0@Z
_TEXT	SEGMENT
__Val$ = -84						; size = 72
__$EHRec$ = -12						; size = 12
__First$ = 8						; size = 4
__Last$ = 12						; size = 4
__Pred$ = 16						; size = 1
___formal$ = 20						; size = 4
??$_Pop_heap_0@PAUtagInventoryItemInfo@@U1@VInventoryItemInfoSort3@@@std@@YAXPAUtagInventoryItemInfo@@0VInventoryItemInfoSort3@@0@Z PROC ; std::_Pop_heap_0<tagInventoryItemInfo *,tagInventoryItemInfo,InventoryItemInfoSort3>, COMDAT

; 2601 : 	{	// pop *_First to *(_Last - 1) and reheap, using _Pred

  00000	6a 48		 push	 72			; 00000048H
  00002	b8 00 00 00 00	 mov	 eax, __ehhandler$??$_Pop_heap_0@PAUtagInventoryItemInfo@@U1@VInventoryItemInfoSort3@@@std@@YAXPAUtagInventoryItemInfo@@0VInventoryItemInfoSort3@@0@Z
  00007	e8 00 00 00 00	 call	 __EH_prolog3

; 2602 : 	_Ty _Val = _Move(*(_Last - 1));

  0000c	8b 75 0c	 mov	 esi, DWORD PTR __Last$[ebp]
  0000f	83 c6 b8	 add	 esi, -72		; ffffffb8H
  00012	56		 push	 esi
  00013	8d 4d ac	 lea	 ecx, DWORD PTR __Val$[ebp]
  00016	e8 00 00 00 00	 call	 ??0tagInventoryItemInfo@@QAE@ABU0@@Z
  0001b	83 65 fc 00	 and	 DWORD PTR __$EHRec$[ebp+8], 0

; 2603 : 	_Pop_heap(_First, _Last - 1, _Last - 1,
; 2604 : 		_Move(_Val), _Pred, _Dist_type(_First));

  0001f	6a 00		 push	 0
  00021	ff 75 10	 push	 DWORD PTR __Pred$[ebp]
  00024	8d 45 ac	 lea	 eax, DWORD PTR __Val$[ebp]
  00027	50		 push	 eax
  00028	56		 push	 esi
  00029	56		 push	 esi
  0002a	ff 75 08	 push	 DWORD PTR __First$[ebp]
  0002d	e8 00 00 00 00	 call	 ??$_Pop_heap@PAUtagInventoryItemInfo@@HU1@VInventoryItemInfoSort3@@@std@@YAXPAUtagInventoryItemInfo@@00$$QAU1@VInventoryItemInfoSort3@@PAH@Z ; std::_Pop_heap<tagInventoryItemInfo *,int,tagInventoryItemInfo,InventoryItemInfoSort3>

; 2605 : 	}

  00032	83 4d fc ff	 or	 DWORD PTR __$EHRec$[ebp+8], -1
  00036	83 c4 18	 add	 esp, 24			; 00000018H
  00039	8d 4d d0	 lea	 ecx, DWORD PTR __Val$[ebp+36]
  0003c	ff 15 00 00 00
	00		 call	 DWORD PTR __imp_??1ioHashString@@QAE@XZ
  00042	e8 00 00 00 00	 call	 __EH_epilog3
  00047	c3		 ret	 0
_TEXT	ENDS
;	COMDAT text$x
text$x	SEGMENT
__unwindfunclet$??$_Pop_heap_0@PAUtagInventoryItemInfo@@U1@VInventoryItemInfoSort3@@@std@@YAXPAUtagInventoryItemInfo@@0VInventoryItemInfoSort3@@0@Z$0:
  00000	8d 4d ac	 lea	 ecx, DWORD PTR __Val$[ebp]
  00003	e9 00 00 00 00	 jmp	 ??1tagInventoryItemInfo@@QAE@XZ
__ehhandler$??$_Pop_heap_0@PAUtagInventoryItemInfo@@U1@VInventoryItemInfoSort3@@@std@@YAXPAUtagInventoryItemInfo@@0VInventoryItemInfoSort3@@0@Z:
  00008	8b 54 24 08	 mov	 edx, DWORD PTR [esp+8]
  0000c	8d 42 0c	 lea	 eax, DWORD PTR [edx+12]
  0000f	8b 4a a8	 mov	 ecx, DWORD PTR [edx-88]
  00012	33 c8		 xor	 ecx, eax
  00014	e8 00 00 00 00	 call	 @__security_check_cookie@4
  00019	b8 00 00 00 00	 mov	 eax, OFFSET __ehfuncinfo$??$_Pop_heap_0@PAUtagInventoryItemInfo@@U1@VInventoryItemInfoSort3@@@std@@YAXPAUtagInventoryItemInfo@@0VInventoryItemInfoSort3@@0@Z
  0001e	e9 00 00 00 00	 jmp	 ___CxxFrameHandler3
text$x	ENDS
??$_Pop_heap_0@PAUtagInventoryItemInfo@@U1@VInventoryItemInfoSort3@@@std@@YAXPAUtagInventoryItemInfo@@0VInventoryItemInfoSort3@@0@Z ENDP ; std::_Pop_heap_0<tagInventoryItemInfo *,tagInventoryItemInfo,InventoryItemInfoSort3>
PUBLIC	??$_Destroy_range@V?$allocator@UtagInventoryItemInfo@@@std@@@std@@YAXPAUtagInventoryItemInfo@@0AAV?$allocator@UtagInventoryItemInfo@@@0@U_Nonscalar_ptr_iterator_tag@0@@Z ; std::_Destroy_range<std::allocator<tagInventoryItemInfo> >
; Function compile flags: /Ogsp
; File c:\program files (x86)\microsoft visual studio 10.0\vc\include\xmemory
;	COMDAT ??$_Destroy_range@V?$allocator@UtagInventoryItemInfo@@@std@@@std@@YAXPAUtagInventoryItemInfo@@0AAV?$allocator@UtagInventoryItemInfo@@@0@U_Nonscalar_ptr_iterator_tag@0@@Z
_TEXT	SEGMENT
__First$ = 8						; size = 4
__Last$ = 12						; size = 4
__Al$ = 16						; size = 4
___formal$ = 20						; size = 1
??$_Destroy_range@V?$allocator@UtagInventoryItemInfo@@@std@@@std@@YAXPAUtagInventoryItemInfo@@0AAV?$allocator@UtagInventoryItemInfo@@@0@U_Nonscalar_ptr_iterator_tag@0@@Z PROC ; std::_Destroy_range<std::allocator<tagInventoryItemInfo> >, COMDAT

; 95   : 	{	// destroy [_First, _Last), arbitrary type

  00000	55		 push	 ebp
  00001	8b ec		 mov	 ebp, esp
  00003	56		 push	 esi

; 96   : 	for (; _First != _Last; ++_First)

  00004	8b 75 08	 mov	 esi, DWORD PTR __First$[ebp]
  00007	eb 0c		 jmp	 SHORT $LN20@Destroy_ra
$LL3@Destroy_ra:

; 97   : 		_Dest_val(_Al, _First);

  00009	8d 4e 24	 lea	 ecx, DWORD PTR [esi+36]
  0000c	ff 15 00 00 00
	00		 call	 DWORD PTR __imp_??1ioHashString@@QAE@XZ
  00012	83 c6 48	 add	 esi, 72			; 00000048H
$LN20@Destroy_ra:

; 96   : 	for (; _First != _Last; ++_First)

  00015	3b 75 0c	 cmp	 esi, DWORD PTR __Last$[ebp]
  00018	75 ef		 jne	 SHORT $LL3@Destroy_ra
  0001a	5e		 pop	 esi

; 98   : 	}

  0001b	5d		 pop	 ebp
  0001c	c3		 ret	 0
??$_Destroy_range@V?$allocator@UtagInventoryItemInfo@@@std@@@std@@YAXPAUtagInventoryItemInfo@@0AAV?$allocator@UtagInventoryItemInfo@@@0@U_Nonscalar_ptr_iterator_tag@0@@Z ENDP ; std::_Destroy_range<std::allocator<tagInventoryItemInfo> >
_TEXT	ENDS
PUBLIC	??$_Unguarded_partition@PAUtagInventoryItemInfo@@VInventoryItemInfoSort2@@@std@@YA?AU?$pair@PAUtagInventoryItemInfo@@PAU1@@0@PAUtagInventoryItemInfo@@0VInventoryItemInfoSort2@@@Z ; std::_Unguarded_partition<tagInventoryItemInfo *,InventoryItemInfoSort2>
; Function compile flags: /Ogsp
; File c:\program files (x86)\microsoft visual studio 10.0\vc\include\algorithm
;	COMDAT ??$_Unguarded_partition@PAUtagInventoryItemInfo@@VInventoryItemInfoSort2@@@std@@YA?AU?$pair@PAUtagInventoryItemInfo@@PAU1@@0@PAUtagInventoryItemInfo@@0VInventoryItemInfoSort2@@@Z
_TEXT	SEGMENT
tv352 = -8						; size = 4
tv264 = -8						; size = 4
__Glast$ = -4						; size = 4
___$ReturnUdt$ = 8					; size = 4
__First$ = 12						; size = 4
__Last$ = 16						; size = 4
__Pred$ = 20						; size = 1
??$_Unguarded_partition@PAUtagInventoryItemInfo@@VInventoryItemInfoSort2@@@std@@YA?AU?$pair@PAUtagInventoryItemInfo@@PAU1@@0@PAUtagInventoryItemInfo@@0VInventoryItemInfoSort2@@@Z PROC ; std::_Unguarded_partition<tagInventoryItemInfo *,InventoryItemInfoSort2>, COMDAT

; 3712 : 	{	// partition [_First, _Last), using _Pred

  00000	55		 push	 ebp
  00001	8b ec		 mov	 ebp, esp
  00003	51		 push	 ecx
  00004	51		 push	 ecx

; 3713 : 	_RanIt _Mid = _First + (_Last - _First) / 2;

  00005	8b 4d 10	 mov	 ecx, DWORD PTR __Last$[ebp]
  00008	53		 push	 ebx
  00009	8b 5d 0c	 mov	 ebx, DWORD PTR __First$[ebp]
  0000c	56		 push	 esi
  0000d	57		 push	 edi
  0000e	8b c1		 mov	 eax, ecx
  00010	2b c3		 sub	 eax, ebx
  00012	6a 48		 push	 72			; 00000048H
  00014	5e		 pop	 esi
  00015	99		 cdq
  00016	f7 fe		 idiv	 esi

; 3714 : 	_Median(_First, _Mid, _Last - 1, _Pred);

  00018	ff 75 14	 push	 DWORD PTR __Pred$[ebp]
  0001b	83 c1 b8	 add	 ecx, -72		; ffffffb8H
  0001e	51		 push	 ecx
  0001f	99		 cdq
  00020	2b c2		 sub	 eax, edx
  00022	8b f0		 mov	 esi, eax
  00024	d1 fe		 sar	 esi, 1
  00026	6b f6 48	 imul	 esi, 72			; 00000048H
  00029	03 f3		 add	 esi, ebx
  0002b	56		 push	 esi
  0002c	53		 push	 ebx
  0002d	e8 00 00 00 00	 call	 ??$_Median@PAUtagInventoryItemInfo@@VInventoryItemInfoSort2@@@std@@YAXPAUtagInventoryItemInfo@@00VInventoryItemInfoSort2@@@Z ; std::_Median<tagInventoryItemInfo *,InventoryItemInfoSort2>
  00032	83 c4 10	 add	 esp, 16			; 00000010H

; 3715 : 	_RanIt _Pfirst = _Mid;
; 3716 : 	_RanIt _Plast = _Pfirst + 1;

  00035	8d 7e 48	 lea	 edi, DWORD PTR [esi+72]
  00038	eb 27		 jmp	 SHORT $LN72@Unguarded_
$LL27@Unguarded_:

; 3717 : 
; 3718 : 	while (_First < _Pfirst
; 3719 : 		&& !_DEBUG_LT_PRED(_Pred, *(_Pfirst - 1), *_Pfirst)
; 3720 : 		&& !_Pred(*_Pfirst, *(_Pfirst - 1)))

  0003a	8d 46 b8	 lea	 eax, DWORD PTR [esi-72]
  0003d	56		 push	 esi
  0003e	50		 push	 eax
  0003f	8d 4d 14	 lea	 ecx, DWORD PTR __Pred$[ebp]
  00042	89 45 f8	 mov	 DWORD PTR tv264[ebp], eax
  00045	e8 00 00 00 00	 call	 ??RInventoryItemInfoSort2@@QBE_NABUtagInventoryItemInfo@@0@Z ; InventoryItemInfoSort2::operator()
  0004a	84 c0		 test	 al, al
  0004c	75 38		 jne	 SHORT $LN73@Unguarded_
  0004e	ff 75 f8	 push	 DWORD PTR tv264[ebp]
  00051	8d 4d 14	 lea	 ecx, DWORD PTR __Pred$[ebp]
  00054	56		 push	 esi
  00055	e8 00 00 00 00	 call	 ??RInventoryItemInfoSort2@@QBE_NABUtagInventoryItemInfo@@0@Z ; InventoryItemInfoSort2::operator()
  0005a	84 c0		 test	 al, al
  0005c	75 28		 jne	 SHORT $LN73@Unguarded_

; 3721 : 		--_Pfirst;

  0005e	8b 75 f8	 mov	 esi, DWORD PTR tv264[ebp]
$LN72@Unguarded_:

; 3717 : 
; 3718 : 	while (_First < _Pfirst
; 3719 : 		&& !_DEBUG_LT_PRED(_Pred, *(_Pfirst - 1), *_Pfirst)
; 3720 : 		&& !_Pred(*_Pfirst, *(_Pfirst - 1)))

  00061	3b de		 cmp	 ebx, esi
  00063	72 d5		 jb	 SHORT $LL27@Unguarded_

; 3725 : 		++_Plast;

  00065	eb 1f		 jmp	 SHORT $LN73@Unguarded_
$LL25@Unguarded_:

; 3722 : 	while (_Plast < _Last
; 3723 : 		&& !_DEBUG_LT_PRED(_Pred, *_Plast, *_Pfirst)
; 3724 : 		&& !_Pred(*_Pfirst, *_Plast))

  00067	56		 push	 esi
  00068	57		 push	 edi
  00069	8d 4d 14	 lea	 ecx, DWORD PTR __Pred$[ebp]
  0006c	e8 00 00 00 00	 call	 ??RInventoryItemInfoSort2@@QBE_NABUtagInventoryItemInfo@@0@Z ; InventoryItemInfoSort2::operator()
  00071	84 c0		 test	 al, al
  00073	75 16		 jne	 SHORT $LN24@Unguarded_
  00075	57		 push	 edi
  00076	56		 push	 esi
  00077	8d 4d 14	 lea	 ecx, DWORD PTR __Pred$[ebp]
  0007a	e8 00 00 00 00	 call	 ??RInventoryItemInfoSort2@@QBE_NABUtagInventoryItemInfo@@0@Z ; InventoryItemInfoSort2::operator()
  0007f	84 c0		 test	 al, al
  00081	75 08		 jne	 SHORT $LN24@Unguarded_

; 3725 : 		++_Plast;

  00083	83 c7 48	 add	 edi, 72			; 00000048H
$LN73@Unguarded_:

; 3722 : 	while (_Plast < _Last
; 3723 : 		&& !_DEBUG_LT_PRED(_Pred, *_Plast, *_Pfirst)
; 3724 : 		&& !_Pred(*_Pfirst, *_Plast))

  00086	3b 7d 10	 cmp	 edi, DWORD PTR __Last$[ebp]
  00089	72 dc		 jb	 SHORT $LL25@Unguarded_
$LN24@Unguarded_:

; 3726 : 
; 3727 : 	_RanIt _Gfirst = _Plast;

  0008b	8b df		 mov	 ebx, edi

; 3728 : 	_RanIt _Glast = _Pfirst;

  0008d	89 75 fc	 mov	 DWORD PTR __Glast$[ebp], esi

; 3729 : 
; 3730 : 	for (; ; )
; 3731 : 		{	// partition
; 3732 : 		for (; _Gfirst < _Last; ++_Gfirst)

  00090	eb 2d		 jmp	 SHORT $LN75@Unguarded_
$LL21@Unguarded_:

; 3733 : 			if (_DEBUG_LT_PRED(_Pred, *_Pfirst, *_Gfirst))

  00092	53		 push	 ebx
  00093	56		 push	 esi
  00094	8d 4d 14	 lea	 ecx, DWORD PTR __Pred$[ebp]
  00097	e8 00 00 00 00	 call	 ??RInventoryItemInfoSort2@@QBE_NABUtagInventoryItemInfo@@0@Z ; InventoryItemInfoSort2::operator()
  0009c	84 c0		 test	 al, al
  0009e	75 1c		 jne	 SHORT $LN20@Unguarded_

; 3734 : 				;
; 3735 : 			else if (_Pred(*_Gfirst, *_Pfirst))

  000a0	56		 push	 esi
  000a1	53		 push	 ebx
  000a2	8d 4d 14	 lea	 ecx, DWORD PTR __Pred$[ebp]
  000a5	e8 00 00 00 00	 call	 ??RInventoryItemInfoSort2@@QBE_NABUtagInventoryItemInfo@@0@Z ; InventoryItemInfoSort2::operator()
  000aa	84 c0		 test	 al, al
  000ac	75 16		 jne	 SHORT $LN69@Unguarded_

; 3736 : 				break;
; 3737 : 			else
; 3738 : 				_STD iter_swap(_Plast++, _Gfirst);

  000ae	8b c7		 mov	 eax, edi
  000b0	53		 push	 ebx
  000b1	83 c7 48	 add	 edi, 72			; 00000048H
  000b4	50		 push	 eax
$LN76@Unguarded_:
  000b5	e8 00 00 00 00	 call	 ??$swap@UtagInventoryItemInfo@@@std@@YAXAAUtagInventoryItemInfo@@0@Z ; std::swap<tagInventoryItemInfo>
  000ba	59		 pop	 ecx
  000bb	59		 pop	 ecx
$LN20@Unguarded_:

; 3729 : 
; 3730 : 	for (; ; )
; 3731 : 		{	// partition
; 3732 : 		for (; _Gfirst < _Last; ++_Gfirst)

  000bc	83 c3 48	 add	 ebx, 72			; 00000048H
$LN75@Unguarded_:
  000bf	3b 5d 10	 cmp	 ebx, DWORD PTR __Last$[ebp]
  000c2	72 ce		 jb	 SHORT $LL21@Unguarded_
$LN69@Unguarded_:

; 3739 : 		for (; _First < _Glast; --_Glast)

  000c4	8b 45 fc	 mov	 eax, DWORD PTR __Glast$[ebp]
  000c7	39 45 0c	 cmp	 DWORD PTR __First$[ebp], eax
  000ca	73 44		 jae	 SHORT $LN71@Unguarded_
  000cc	83 c0 b8	 add	 eax, -72		; ffffffb8H
  000cf	89 45 f8	 mov	 DWORD PTR tv352[ebp], eax
$LL70@Unguarded_:

; 3740 : 			if (_DEBUG_LT_PRED(_Pred, *(_Glast - 1), *_Pfirst))

  000d2	56		 push	 esi
  000d3	ff 75 f8	 push	 DWORD PTR tv352[ebp]
  000d6	8d 4d 14	 lea	 ecx, DWORD PTR __Pred$[ebp]
  000d9	e8 00 00 00 00	 call	 ??RInventoryItemInfoSort2@@QBE_NABUtagInventoryItemInfo@@0@Z ; InventoryItemInfoSort2::operator()
  000de	84 c0		 test	 al, al
  000e0	75 1e		 jne	 SHORT $LN13@Unguarded_

; 3741 : 				;
; 3742 : 			else if (_Pred(*_Pfirst, *(_Glast - 1)))

  000e2	ff 75 f8	 push	 DWORD PTR tv352[ebp]
  000e5	8d 4d 14	 lea	 ecx, DWORD PTR __Pred$[ebp]
  000e8	56		 push	 esi
  000e9	e8 00 00 00 00	 call	 ??RInventoryItemInfoSort2@@QBE_NABUtagInventoryItemInfo@@0@Z ; InventoryItemInfoSort2::operator()
  000ee	84 c0		 test	 al, al
  000f0	75 1e		 jne	 SHORT $LN71@Unguarded_

; 3743 : 				break;
; 3744 : 			else
; 3745 : 				_STD iter_swap(--_Pfirst, _Glast - 1);

  000f2	ff 75 f8	 push	 DWORD PTR tv352[ebp]
  000f5	83 ee 48	 sub	 esi, 72			; 00000048H
  000f8	56		 push	 esi
  000f9	e8 00 00 00 00	 call	 ??$swap@UtagInventoryItemInfo@@@std@@YAXAAUtagInventoryItemInfo@@0@Z ; std::swap<tagInventoryItemInfo>
  000fe	59		 pop	 ecx
  000ff	59		 pop	 ecx
$LN13@Unguarded_:

; 3739 : 		for (; _First < _Glast; --_Glast)

  00100	83 6d fc 48	 sub	 DWORD PTR __Glast$[ebp], 72 ; 00000048H
  00104	8b 45 0c	 mov	 eax, DWORD PTR __First$[ebp]
  00107	83 6d f8 48	 sub	 DWORD PTR tv352[ebp], 72 ; 00000048H
  0010b	3b 45 fc	 cmp	 eax, DWORD PTR __Glast$[ebp]
  0010e	72 c2		 jb	 SHORT $LL70@Unguarded_
$LN71@Unguarded_:

; 3746 : 		if (_Glast == _First && _Gfirst == _Last)

  00110	8b 45 fc	 mov	 eax, DWORD PTR __Glast$[ebp]
  00113	3b 45 0c	 cmp	 eax, DWORD PTR __First$[ebp]
  00116	75 1f		 jne	 SHORT $LN6@Unguarded_
  00118	3b 5d 10	 cmp	 ebx, DWORD PTR __Last$[ebp]
  0011b	74 4d		 je	 SHORT $LN64@Unguarded_

; 3748 : 
; 3749 : 		if (_Glast == _First)
; 3750 : 			{	// no room at bottom, rotate pivot upward
; 3751 : 			if (_Plast != _Gfirst)

  0011d	3b fb		 cmp	 edi, ebx
  0011f	74 09		 je	 SHORT $LN46@Unguarded_

; 3752 : 				_STD iter_swap(_Pfirst, _Plast);

  00121	57		 push	 edi
  00122	56		 push	 esi
  00123	e8 00 00 00 00	 call	 ??$swap@UtagInventoryItemInfo@@@std@@YAXAAUtagInventoryItemInfo@@0@Z ; std::swap<tagInventoryItemInfo>
  00128	59		 pop	 ecx
  00129	59		 pop	 ecx
$LN46@Unguarded_:

; 3753 : 			++_Plast;
; 3754 : 			_STD iter_swap(_Pfirst++, _Gfirst++);

  0012a	53		 push	 ebx
  0012b	56		 push	 esi
  0012c	83 c7 48	 add	 edi, 72			; 00000048H
  0012f	83 c6 48	 add	 esi, 72			; 00000048H
  00132	83 c3 48	 add	 ebx, 72			; 00000048H
  00135	eb 20		 jmp	 SHORT $LN74@Unguarded_
$LN6@Unguarded_:

; 3755 : 			}
; 3756 : 		else if (_Gfirst == _Last)
; 3757 : 			{	// no room at top, rotate pivot downward
; 3758 : 			if (--_Glast != --_Pfirst)

  00137	83 e8 48	 sub	 eax, 72			; 00000048H
  0013a	89 45 fc	 mov	 DWORD PTR __Glast$[ebp], eax
  0013d	3b 5d 10	 cmp	 ebx, DWORD PTR __Last$[ebp]
  00140	75 21		 jne	 SHORT $LN3@Unguarded_
  00142	83 ee 48	 sub	 esi, 72			; 00000048H
  00145	3b c6		 cmp	 eax, esi
  00147	74 09		 je	 SHORT $LN50@Unguarded_

; 3759 : 				_STD iter_swap(_Glast, _Pfirst);

  00149	56		 push	 esi
  0014a	50		 push	 eax
  0014b	e8 00 00 00 00	 call	 ??$swap@UtagInventoryItemInfo@@@std@@YAXAAUtagInventoryItemInfo@@0@Z ; std::swap<tagInventoryItemInfo>
  00150	59		 pop	 ecx
  00151	59		 pop	 ecx
$LN50@Unguarded_:

; 3760 : 			_STD iter_swap(_Pfirst, --_Plast);

  00152	83 ef 48	 sub	 edi, 72			; 00000048H
  00155	57		 push	 edi
  00156	56		 push	 esi
$LN74@Unguarded_:
  00157	e8 00 00 00 00	 call	 ??$swap@UtagInventoryItemInfo@@@std@@YAXAAUtagInventoryItemInfo@@0@Z ; std::swap<tagInventoryItemInfo>
  0015c	59		 pop	 ecx
  0015d	59		 pop	 ecx

; 3761 : 			}
; 3762 : 		else

  0015e	e9 5c ff ff ff	 jmp	 $LN75@Unguarded_
$LN3@Unguarded_:

; 3763 : 			_STD iter_swap(_Gfirst++, --_Glast);

  00163	50		 push	 eax
  00164	53		 push	 ebx

; 3764 : 		}

  00165	e9 4b ff ff ff	 jmp	 $LN76@Unguarded_
$LN64@Unguarded_:

; 3747 : 			return (_STD pair<_RanIt, _RanIt>(_Pfirst, _Plast));

  0016a	8b 45 08	 mov	 eax, DWORD PTR ___$ReturnUdt$[ebp]
  0016d	89 78 04	 mov	 DWORD PTR [eax+4], edi
  00170	5f		 pop	 edi
  00171	89 30		 mov	 DWORD PTR [eax], esi
  00173	5e		 pop	 esi
  00174	5b		 pop	 ebx

; 3765 : 	}

  00175	c9		 leave
  00176	c3		 ret	 0
??$_Unguarded_partition@PAUtagInventoryItemInfo@@VInventoryItemInfoSort2@@@std@@YA?AU?$pair@PAUtagInventoryItemInfo@@PAU1@@0@PAUtagInventoryItemInfo@@0VInventoryItemInfoSort2@@@Z ENDP ; std::_Unguarded_partition<tagInventoryItemInfo *,InventoryItemInfoSort2>
_TEXT	ENDS
PUBLIC	??$make_heap@PAUtagInventoryItemInfo@@VInventoryItemInfoSort2@@@std@@YAXPAUtagInventoryItemInfo@@0VInventoryItemInfoSort2@@@Z ; std::make_heap<tagInventoryItemInfo *,InventoryItemInfoSort2>
; Function compile flags: /Ogsp
;	COMDAT ??$make_heap@PAUtagInventoryItemInfo@@VInventoryItemInfoSort2@@@std@@YAXPAUtagInventoryItemInfo@@0VInventoryItemInfoSort2@@@Z
_TEXT	SEGMENT
__First$ = 8						; size = 4
__Last$ = 12						; size = 4
__Pred$ = 16						; size = 1
??$make_heap@PAUtagInventoryItemInfo@@VInventoryItemInfoSort2@@@std@@YAXPAUtagInventoryItemInfo@@0VInventoryItemInfoSort2@@@Z PROC ; std::make_heap<tagInventoryItemInfo *,InventoryItemInfoSort2>, COMDAT

; 2672 : 	{	// make [_First, _Last) into a heap, using _Pred

  00000	55		 push	 ebp
  00001	8b ec		 mov	 ebp, esp

; 2673 : 	_DEBUG_RANGE(_First, _Last);
; 2674 : 	_DEBUG_POINTER(_Pred);
; 2675 : 	if (1 < _Last - _First)

  00003	8b 45 0c	 mov	 eax, DWORD PTR __Last$[ebp]
  00006	2b 45 08	 sub	 eax, DWORD PTR __First$[ebp]
  00009	6a 48		 push	 72			; 00000048H
  0000b	99		 cdq
  0000c	59		 pop	 ecx
  0000d	f7 f9		 idiv	 ecx
  0000f	83 f8 01	 cmp	 eax, 1
  00012	7e 15		 jle	 SHORT $LN1@make_heap

; 2676 : 		_Make_heap(_Unchecked(_First), _Unchecked(_Last), _Pred,
; 2677 : 			_Dist_type(_First), _Val_type(_First));

  00014	6a 00		 push	 0
  00016	6a 00		 push	 0
  00018	ff 75 10	 push	 DWORD PTR __Pred$[ebp]
  0001b	ff 75 0c	 push	 DWORD PTR __Last$[ebp]
  0001e	ff 75 08	 push	 DWORD PTR __First$[ebp]
  00021	e8 00 00 00 00	 call	 ??$_Make_heap@PAUtagInventoryItemInfo@@HU1@VInventoryItemInfoSort2@@@std@@YAXPAUtagInventoryItemInfo@@0VInventoryItemInfoSort2@@PAH0@Z ; std::_Make_heap<tagInventoryItemInfo *,int,tagInventoryItemInfo,InventoryItemInfoSort2>
  00026	83 c4 14	 add	 esp, 20			; 00000014H
$LN1@make_heap:

; 2678 : 	}

  00029	5d		 pop	 ebp
  0002a	c3		 ret	 0
??$make_heap@PAUtagInventoryItemInfo@@VInventoryItemInfoSort2@@@std@@YAXPAUtagInventoryItemInfo@@0VInventoryItemInfoSort2@@@Z ENDP ; std::make_heap<tagInventoryItemInfo *,InventoryItemInfoSort2>
_TEXT	ENDS
PUBLIC	??$_Unguarded_partition@PAUtagInventoryItemInfo@@VInventoryItemInfoSort3@@@std@@YA?AU?$pair@PAUtagInventoryItemInfo@@PAU1@@0@PAUtagInventoryItemInfo@@0VInventoryItemInfoSort3@@@Z ; std::_Unguarded_partition<tagInventoryItemInfo *,InventoryItemInfoSort3>
; Function compile flags: /Ogsp
;	COMDAT ??$_Unguarded_partition@PAUtagInventoryItemInfo@@VInventoryItemInfoSort3@@@std@@YA?AU?$pair@PAUtagInventoryItemInfo@@PAU1@@0@PAUtagInventoryItemInfo@@0VInventoryItemInfoSort3@@@Z
_TEXT	SEGMENT
tv352 = -8						; size = 4
tv264 = -8						; size = 4
__Glast$ = -4						; size = 4
___$ReturnUdt$ = 8					; size = 4
__First$ = 12						; size = 4
__Last$ = 16						; size = 4
__Pred$ = 20						; size = 1
??$_Unguarded_partition@PAUtagInventoryItemInfo@@VInventoryItemInfoSort3@@@std@@YA?AU?$pair@PAUtagInventoryItemInfo@@PAU1@@0@PAUtagInventoryItemInfo@@0VInventoryItemInfoSort3@@@Z PROC ; std::_Unguarded_partition<tagInventoryItemInfo *,InventoryItemInfoSort3>, COMDAT

; 3712 : 	{	// partition [_First, _Last), using _Pred

  00000	55		 push	 ebp
  00001	8b ec		 mov	 ebp, esp
  00003	51		 push	 ecx
  00004	51		 push	 ecx

; 3713 : 	_RanIt _Mid = _First + (_Last - _First) / 2;

  00005	8b 4d 10	 mov	 ecx, DWORD PTR __Last$[ebp]
  00008	53		 push	 ebx
  00009	8b 5d 0c	 mov	 ebx, DWORD PTR __First$[ebp]
  0000c	56		 push	 esi
  0000d	57		 push	 edi
  0000e	8b c1		 mov	 eax, ecx
  00010	2b c3		 sub	 eax, ebx
  00012	6a 48		 push	 72			; 00000048H
  00014	5e		 pop	 esi
  00015	99		 cdq
  00016	f7 fe		 idiv	 esi

; 3714 : 	_Median(_First, _Mid, _Last - 1, _Pred);

  00018	ff 75 14	 push	 DWORD PTR __Pred$[ebp]
  0001b	83 c1 b8	 add	 ecx, -72		; ffffffb8H
  0001e	51		 push	 ecx
  0001f	99		 cdq
  00020	2b c2		 sub	 eax, edx
  00022	8b f0		 mov	 esi, eax
  00024	d1 fe		 sar	 esi, 1
  00026	6b f6 48	 imul	 esi, 72			; 00000048H
  00029	03 f3		 add	 esi, ebx
  0002b	56		 push	 esi
  0002c	53		 push	 ebx
  0002d	e8 00 00 00 00	 call	 ??$_Median@PAUtagInventoryItemInfo@@VInventoryItemInfoSort3@@@std@@YAXPAUtagInventoryItemInfo@@00VInventoryItemInfoSort3@@@Z ; std::_Median<tagInventoryItemInfo *,InventoryItemInfoSort3>
  00032	83 c4 10	 add	 esp, 16			; 00000010H

; 3715 : 	_RanIt _Pfirst = _Mid;
; 3716 : 	_RanIt _Plast = _Pfirst + 1;

  00035	8d 7e 48	 lea	 edi, DWORD PTR [esi+72]
  00038	eb 27		 jmp	 SHORT $LN72@Unguarded_@2
$LL27@Unguarded_@2:

; 3717 : 
; 3718 : 	while (_First < _Pfirst
; 3719 : 		&& !_DEBUG_LT_PRED(_Pred, *(_Pfirst - 1), *_Pfirst)
; 3720 : 		&& !_Pred(*_Pfirst, *(_Pfirst - 1)))

  0003a	8d 46 b8	 lea	 eax, DWORD PTR [esi-72]
  0003d	56		 push	 esi
  0003e	50		 push	 eax
  0003f	8d 4d 14	 lea	 ecx, DWORD PTR __Pred$[ebp]
  00042	89 45 f8	 mov	 DWORD PTR tv264[ebp], eax
  00045	e8 00 00 00 00	 call	 ??RInventoryItemInfoSort3@@QBE_NABUtagInventoryItemInfo@@0@Z ; InventoryItemInfoSort3::operator()
  0004a	84 c0		 test	 al, al
  0004c	75 38		 jne	 SHORT $LN73@Unguarded_@2
  0004e	ff 75 f8	 push	 DWORD PTR tv264[ebp]
  00051	8d 4d 14	 lea	 ecx, DWORD PTR __Pred$[ebp]
  00054	56		 push	 esi
  00055	e8 00 00 00 00	 call	 ??RInventoryItemInfoSort3@@QBE_NABUtagInventoryItemInfo@@0@Z ; InventoryItemInfoSort3::operator()
  0005a	84 c0		 test	 al, al
  0005c	75 28		 jne	 SHORT $LN73@Unguarded_@2

; 3721 : 		--_Pfirst;

  0005e	8b 75 f8	 mov	 esi, DWORD PTR tv264[ebp]
$LN72@Unguarded_@2:

; 3717 : 
; 3718 : 	while (_First < _Pfirst
; 3719 : 		&& !_DEBUG_LT_PRED(_Pred, *(_Pfirst - 1), *_Pfirst)
; 3720 : 		&& !_Pred(*_Pfirst, *(_Pfirst - 1)))

  00061	3b de		 cmp	 ebx, esi
  00063	72 d5		 jb	 SHORT $LL27@Unguarded_@2

; 3725 : 		++_Plast;

  00065	eb 1f		 jmp	 SHORT $LN73@Unguarded_@2
$LL25@Unguarded_@2:

; 3722 : 	while (_Plast < _Last
; 3723 : 		&& !_DEBUG_LT_PRED(_Pred, *_Plast, *_Pfirst)
; 3724 : 		&& !_Pred(*_Pfirst, *_Plast))

  00067	56		 push	 esi
  00068	57		 push	 edi
  00069	8d 4d 14	 lea	 ecx, DWORD PTR __Pred$[ebp]
  0006c	e8 00 00 00 00	 call	 ??RInventoryItemInfoSort3@@QBE_NABUtagInventoryItemInfo@@0@Z ; InventoryItemInfoSort3::operator()
  00071	84 c0		 test	 al, al
  00073	75 16		 jne	 SHORT $LN24@Unguarded_@2
  00075	57		 push	 edi
  00076	56		 push	 esi
  00077	8d 4d 14	 lea	 ecx, DWORD PTR __Pred$[ebp]
  0007a	e8 00 00 00 00	 call	 ??RInventoryItemInfoSort3@@QBE_NABUtagInventoryItemInfo@@0@Z ; InventoryItemInfoSort3::operator()
  0007f	84 c0		 test	 al, al
  00081	75 08		 jne	 SHORT $LN24@Unguarded_@2

; 3725 : 		++_Plast;

  00083	83 c7 48	 add	 edi, 72			; 00000048H
$LN73@Unguarded_@2:

; 3722 : 	while (_Plast < _Last
; 3723 : 		&& !_DEBUG_LT_PRED(_Pred, *_Plast, *_Pfirst)
; 3724 : 		&& !_Pred(*_Pfirst, *_Plast))

  00086	3b 7d 10	 cmp	 edi, DWORD PTR __Last$[ebp]
  00089	72 dc		 jb	 SHORT $LL25@Unguarded_@2
$LN24@Unguarded_@2:

; 3726 : 
; 3727 : 	_RanIt _Gfirst = _Plast;

  0008b	8b df		 mov	 ebx, edi

; 3728 : 	_RanIt _Glast = _Pfirst;

  0008d	89 75 fc	 mov	 DWORD PTR __Glast$[ebp], esi

; 3729 : 
; 3730 : 	for (; ; )
; 3731 : 		{	// partition
; 3732 : 		for (; _Gfirst < _Last; ++_Gfirst)

  00090	eb 2d		 jmp	 SHORT $LN75@Unguarded_@2
$LL21@Unguarded_@2:

; 3733 : 			if (_DEBUG_LT_PRED(_Pred, *_Pfirst, *_Gfirst))

  00092	53		 push	 ebx
  00093	56		 push	 esi
  00094	8d 4d 14	 lea	 ecx, DWORD PTR __Pred$[ebp]
  00097	e8 00 00 00 00	 call	 ??RInventoryItemInfoSort3@@QBE_NABUtagInventoryItemInfo@@0@Z ; InventoryItemInfoSort3::operator()
  0009c	84 c0		 test	 al, al
  0009e	75 1c		 jne	 SHORT $LN20@Unguarded_@2

; 3734 : 				;
; 3735 : 			else if (_Pred(*_Gfirst, *_Pfirst))

  000a0	56		 push	 esi
  000a1	53		 push	 ebx
  000a2	8d 4d 14	 lea	 ecx, DWORD PTR __Pred$[ebp]
  000a5	e8 00 00 00 00	 call	 ??RInventoryItemInfoSort3@@QBE_NABUtagInventoryItemInfo@@0@Z ; InventoryItemInfoSort3::operator()
  000aa	84 c0		 test	 al, al
  000ac	75 16		 jne	 SHORT $LN69@Unguarded_@2

; 3736 : 				break;
; 3737 : 			else
; 3738 : 				_STD iter_swap(_Plast++, _Gfirst);

  000ae	8b c7		 mov	 eax, edi
  000b0	53		 push	 ebx
  000b1	83 c7 48	 add	 edi, 72			; 00000048H
  000b4	50		 push	 eax
$LN76@Unguarded_@2:
  000b5	e8 00 00 00 00	 call	 ??$swap@UtagInventoryItemInfo@@@std@@YAXAAUtagInventoryItemInfo@@0@Z ; std::swap<tagInventoryItemInfo>
  000ba	59		 pop	 ecx
  000bb	59		 pop	 ecx
$LN20@Unguarded_@2:

; 3729 : 
; 3730 : 	for (; ; )
; 3731 : 		{	// partition
; 3732 : 		for (; _Gfirst < _Last; ++_Gfirst)

  000bc	83 c3 48	 add	 ebx, 72			; 00000048H
$LN75@Unguarded_@2:
  000bf	3b 5d 10	 cmp	 ebx, DWORD PTR __Last$[ebp]
  000c2	72 ce		 jb	 SHORT $LL21@Unguarded_@2
$LN69@Unguarded_@2:

; 3739 : 		for (; _First < _Glast; --_Glast)

  000c4	8b 45 fc	 mov	 eax, DWORD PTR __Glast$[ebp]
  000c7	39 45 0c	 cmp	 DWORD PTR __First$[ebp], eax
  000ca	73 44		 jae	 SHORT $LN71@Unguarded_@2
  000cc	83 c0 b8	 add	 eax, -72		; ffffffb8H
  000cf	89 45 f8	 mov	 DWORD PTR tv352[ebp], eax
$LL70@Unguarded_@2:

; 3740 : 			if (_DEBUG_LT_PRED(_Pred, *(_Glast - 1), *_Pfirst))

  000d2	56		 push	 esi
  000d3	ff 75 f8	 push	 DWORD PTR tv352[ebp]
  000d6	8d 4d 14	 lea	 ecx, DWORD PTR __Pred$[ebp]
  000d9	e8 00 00 00 00	 call	 ??RInventoryItemInfoSort3@@QBE_NABUtagInventoryItemInfo@@0@Z ; InventoryItemInfoSort3::operator()
  000de	84 c0		 test	 al, al
  000e0	75 1e		 jne	 SHORT $LN13@Unguarded_@2

; 3741 : 				;
; 3742 : 			else if (_Pred(*_Pfirst, *(_Glast - 1)))

  000e2	ff 75 f8	 push	 DWORD PTR tv352[ebp]
  000e5	8d 4d 14	 lea	 ecx, DWORD PTR __Pred$[ebp]
  000e8	56		 push	 esi
  000e9	e8 00 00 00 00	 call	 ??RInventoryItemInfoSort3@@QBE_NABUtagInventoryItemInfo@@0@Z ; InventoryItemInfoSort3::operator()
  000ee	84 c0		 test	 al, al
  000f0	75 1e		 jne	 SHORT $LN71@Unguarded_@2

; 3743 : 				break;
; 3744 : 			else
; 3745 : 				_STD iter_swap(--_Pfirst, _Glast - 1);

  000f2	ff 75 f8	 push	 DWORD PTR tv352[ebp]
  000f5	83 ee 48	 sub	 esi, 72			; 00000048H
  000f8	56		 push	 esi
  000f9	e8 00 00 00 00	 call	 ??$swap@UtagInventoryItemInfo@@@std@@YAXAAUtagInventoryItemInfo@@0@Z ; std::swap<tagInventoryItemInfo>
  000fe	59		 pop	 ecx
  000ff	59		 pop	 ecx
$LN13@Unguarded_@2:

; 3739 : 		for (; _First < _Glast; --_Glast)

  00100	83 6d fc 48	 sub	 DWORD PTR __Glast$[ebp], 72 ; 00000048H
  00104	8b 45 0c	 mov	 eax, DWORD PTR __First$[ebp]
  00107	83 6d f8 48	 sub	 DWORD PTR tv352[ebp], 72 ; 00000048H
  0010b	3b 45 fc	 cmp	 eax, DWORD PTR __Glast$[ebp]
  0010e	72 c2		 jb	 SHORT $LL70@Unguarded_@2
$LN71@Unguarded_@2:

; 3746 : 		if (_Glast == _First && _Gfirst == _Last)

  00110	8b 45 fc	 mov	 eax, DWORD PTR __Glast$[ebp]
  00113	3b 45 0c	 cmp	 eax, DWORD PTR __First$[ebp]
  00116	75 1f		 jne	 SHORT $LN6@Unguarded_@2
  00118	3b 5d 10	 cmp	 ebx, DWORD PTR __Last$[ebp]
  0011b	74 4d		 je	 SHORT $LN64@Unguarded_@2

; 3748 : 
; 3749 : 		if (_Glast == _First)
; 3750 : 			{	// no room at bottom, rotate pivot upward
; 3751 : 			if (_Plast != _Gfirst)

  0011d	3b fb		 cmp	 edi, ebx
  0011f	74 09		 je	 SHORT $LN46@Unguarded_@2

; 3752 : 				_STD iter_swap(_Pfirst, _Plast);

  00121	57		 push	 edi
  00122	56		 push	 esi
  00123	e8 00 00 00 00	 call	 ??$swap@UtagInventoryItemInfo@@@std@@YAXAAUtagInventoryItemInfo@@0@Z ; std::swap<tagInventoryItemInfo>
  00128	59		 pop	 ecx
  00129	59		 pop	 ecx
$LN46@Unguarded_@2:

; 3753 : 			++_Plast;
; 3754 : 			_STD iter_swap(_Pfirst++, _Gfirst++);

  0012a	53		 push	 ebx
  0012b	56		 push	 esi
  0012c	83 c7 48	 add	 edi, 72			; 00000048H
  0012f	83 c6 48	 add	 esi, 72			; 00000048H
  00132	83 c3 48	 add	 ebx, 72			; 00000048H
  00135	eb 20		 jmp	 SHORT $LN74@Unguarded_@2
$LN6@Unguarded_@2:

; 3755 : 			}
; 3756 : 		else if (_Gfirst == _Last)
; 3757 : 			{	// no room at top, rotate pivot downward
; 3758 : 			if (--_Glast != --_Pfirst)

  00137	83 e8 48	 sub	 eax, 72			; 00000048H
  0013a	89 45 fc	 mov	 DWORD PTR __Glast$[ebp], eax
  0013d	3b 5d 10	 cmp	 ebx, DWORD PTR __Last$[ebp]
  00140	75 21		 jne	 SHORT $LN3@Unguarded_@2
  00142	83 ee 48	 sub	 esi, 72			; 00000048H
  00145	3b c6		 cmp	 eax, esi
  00147	74 09		 je	 SHORT $LN50@Unguarded_@2

; 3759 : 				_STD iter_swap(_Glast, _Pfirst);

  00149	56		 push	 esi
  0014a	50		 push	 eax
  0014b	e8 00 00 00 00	 call	 ??$swap@UtagInventoryItemInfo@@@std@@YAXAAUtagInventoryItemInfo@@0@Z ; std::swap<tagInventoryItemInfo>
  00150	59		 pop	 ecx
  00151	59		 pop	 ecx
$LN50@Unguarded_@2:

; 3760 : 			_STD iter_swap(_Pfirst, --_Plast);

  00152	83 ef 48	 sub	 edi, 72			; 00000048H
  00155	57		 push	 edi
  00156	56		 push	 esi
$LN74@Unguarded_@2:
  00157	e8 00 00 00 00	 call	 ??$swap@UtagInventoryItemInfo@@@std@@YAXAAUtagInventoryItemInfo@@0@Z ; std::swap<tagInventoryItemInfo>
  0015c	59		 pop	 ecx
  0015d	59		 pop	 ecx

; 3761 : 			}
; 3762 : 		else

  0015e	e9 5c ff ff ff	 jmp	 $LN75@Unguarded_@2
$LN3@Unguarded_@2:

; 3763 : 			_STD iter_swap(_Gfirst++, --_Glast);

  00163	50		 push	 eax
  00164	53		 push	 ebx

; 3764 : 		}

  00165	e9 4b ff ff ff	 jmp	 $LN76@Unguarded_@2
$LN64@Unguarded_@2:

; 3747 : 			return (_STD pair<_RanIt, _RanIt>(_Pfirst, _Plast));

  0016a	8b 45 08	 mov	 eax, DWORD PTR ___$ReturnUdt$[ebp]
  0016d	89 78 04	 mov	 DWORD PTR [eax+4], edi
  00170	5f		 pop	 edi
  00171	89 30		 mov	 DWORD PTR [eax], esi
  00173	5e		 pop	 esi
  00174	5b		 pop	 ebx

; 3765 : 	}

  00175	c9		 leave
  00176	c3		 ret	 0
??$_Unguarded_partition@PAUtagInventoryItemInfo@@VInventoryItemInfoSort3@@@std@@YA?AU?$pair@PAUtagInventoryItemInfo@@PAU1@@0@PAUtagInventoryItemInfo@@0VInventoryItemInfoSort3@@@Z ENDP ; std::_Unguarded_partition<tagInventoryItemInfo *,InventoryItemInfoSort3>
_TEXT	ENDS
PUBLIC	??$make_heap@PAUtagInventoryItemInfo@@VInventoryItemInfoSort3@@@std@@YAXPAUtagInventoryItemInfo@@0VInventoryItemInfoSort3@@@Z ; std::make_heap<tagInventoryItemInfo *,InventoryItemInfoSort3>
; Function compile flags: /Ogsp
;	COMDAT ??$make_heap@PAUtagInventoryItemInfo@@VInventoryItemInfoSort3@@@std@@YAXPAUtagInventoryItemInfo@@0VInventoryItemInfoSort3@@@Z
_TEXT	SEGMENT
__First$ = 8						; size = 4
__Last$ = 12						; size = 4
__Pred$ = 16						; size = 1
??$make_heap@PAUtagInventoryItemInfo@@VInventoryItemInfoSort3@@@std@@YAXPAUtagInventoryItemInfo@@0VInventoryItemInfoSort3@@@Z PROC ; std::make_heap<tagInventoryItemInfo *,InventoryItemInfoSort3>, COMDAT

; 2672 : 	{	// make [_First, _Last) into a heap, using _Pred

  00000	55		 push	 ebp
  00001	8b ec		 mov	 ebp, esp

; 2673 : 	_DEBUG_RANGE(_First, _Last);
; 2674 : 	_DEBUG_POINTER(_Pred);
; 2675 : 	if (1 < _Last - _First)

  00003	8b 45 0c	 mov	 eax, DWORD PTR __Last$[ebp]
  00006	2b 45 08	 sub	 eax, DWORD PTR __First$[ebp]
  00009	6a 48		 push	 72			; 00000048H
  0000b	99		 cdq
  0000c	59		 pop	 ecx
  0000d	f7 f9		 idiv	 ecx
  0000f	83 f8 01	 cmp	 eax, 1
  00012	7e 15		 jle	 SHORT $LN1@make_heap@2

; 2676 : 		_Make_heap(_Unchecked(_First), _Unchecked(_Last), _Pred,
; 2677 : 			_Dist_type(_First), _Val_type(_First));

  00014	6a 00		 push	 0
  00016	6a 00		 push	 0
  00018	ff 75 10	 push	 DWORD PTR __Pred$[ebp]
  0001b	ff 75 0c	 push	 DWORD PTR __Last$[ebp]
  0001e	ff 75 08	 push	 DWORD PTR __First$[ebp]
  00021	e8 00 00 00 00	 call	 ??$_Make_heap@PAUtagInventoryItemInfo@@HU1@VInventoryItemInfoSort3@@@std@@YAXPAUtagInventoryItemInfo@@0VInventoryItemInfoSort3@@PAH0@Z ; std::_Make_heap<tagInventoryItemInfo *,int,tagInventoryItemInfo,InventoryItemInfoSort3>
  00026	83 c4 14	 add	 esp, 20			; 00000014H
$LN1@make_heap@2:

; 2678 : 	}

  00029	5d		 pop	 ebp
  0002a	c3		 ret	 0
??$make_heap@PAUtagInventoryItemInfo@@VInventoryItemInfoSort3@@@std@@YAXPAUtagInventoryItemInfo@@0VInventoryItemInfoSort3@@@Z ENDP ; std::make_heap<tagInventoryItemInfo *,InventoryItemInfoSort3>
_TEXT	ENDS
PUBLIC	??$_Uninit_move@PAUtagInventoryItemInfo@@PAU1@V?$allocator@UtagInventoryItemInfo@@@std@@U1@@std@@YAPAUtagInventoryItemInfo@@PAU1@00AAV?$allocator@UtagInventoryItemInfo@@@0@0U_Nonscalar_ptr_iterator_tag@0@@Z ; std::_Uninit_move<tagInventoryItemInfo *,tagInventoryItemInfo *,std::allocator<tagInventoryItemInfo>,tagInventoryItemInfo>
EXTRN	__EH_prolog3_catch:PROC
;	COMDAT xdata$x
; File d:\lost saga for developer\youtube\tutorial\source\src\lsclient\gui\tradeitemregisterwnd.cpp
xdata$x	SEGMENT
__catchsym$??$_Uninit_move@PAUtagInventoryItemInfo@@PAU1@V?$allocator@UtagInventoryItemInfo@@@std@@U1@@std@@YAPAUtagInventoryItemInfo@@PAU1@00AAV?$allocator@UtagInventoryItemInfo@@@0@0U_Nonscalar_ptr_iterator_tag@0@@Z$3 DD 040H
	DD	00H
	DD	00H
	DD	FLAT:__catch$??$_Uninit_move@PAUtagInventoryItemInfo@@PAU1@V?$allocator@UtagInventoryItemInfo@@@std@@U1@@std@@YAPAUtagInventoryItemInfo@@PAU1@00AAV?$allocator@UtagInventoryItemInfo@@@0@0U_Nonscalar_ptr_iterator_tag@0@@Z$0
__unwindtable$??$_Uninit_move@PAUtagInventoryItemInfo@@PAU1@V?$allocator@UtagInventoryItemInfo@@@std@@U1@@std@@YAPAUtagInventoryItemInfo@@PAU1@00AAV?$allocator@UtagInventoryItemInfo@@@0@0U_Nonscalar_ptr_iterator_tag@0@@Z DD 0ffffffffH
	DD	00H
	DD	0ffffffffH
	DD	00H
__tryblocktable$??$_Uninit_move@PAUtagInventoryItemInfo@@PAU1@V?$allocator@UtagInventoryItemInfo@@@std@@U1@@std@@YAPAUtagInventoryItemInfo@@PAU1@00AAV?$allocator@UtagInventoryItemInfo@@@0@0U_Nonscalar_ptr_iterator_tag@0@@Z DD 00H
	DD	00H
	DD	01H
	DD	01H
	DD	FLAT:__catchsym$??$_Uninit_move@PAUtagInventoryItemInfo@@PAU1@V?$allocator@UtagInventoryItemInfo@@@std@@U1@@std@@YAPAUtagInventoryItemInfo@@PAU1@00AAV?$allocator@UtagInventoryItemInfo@@@0@0U_Nonscalar_ptr_iterator_tag@0@@Z$3
__ehfuncinfo$??$_Uninit_move@PAUtagInventoryItemInfo@@PAU1@V?$allocator@UtagInventoryItemInfo@@@std@@U1@@std@@YAPAUtagInventoryItemInfo@@PAU1@00AAV?$allocator@UtagInventoryItemInfo@@@0@0U_Nonscalar_ptr_iterator_tag@0@@Z DD 019930522H
	DD	02H
	DD	FLAT:__unwindtable$??$_Uninit_move@PAUtagInventoryItemInfo@@PAU1@V?$allocator@UtagInventoryItemInfo@@@std@@U1@@std@@YAPAUtagInventoryItemInfo@@PAU1@00AAV?$allocator@UtagInventoryItemInfo@@@0@0U_Nonscalar_ptr_iterator_tag@0@@Z
	DD	01H
	DD	FLAT:__tryblocktable$??$_Uninit_move@PAUtagInventoryItemInfo@@PAU1@V?$allocator@UtagInventoryItemInfo@@@std@@U1@@std@@YAPAUtagInventoryItemInfo@@PAU1@00AAV?$allocator@UtagInventoryItemInfo@@@0@0U_Nonscalar_ptr_iterator_tag@0@@Z
	DD	2 DUP(00H)
	DD	00H
	DD	01H
; Function compile flags: /Ogsp
; File c:\program files (x86)\microsoft visual studio 10.0\vc\include\memory
xdata$x	ENDS
;	COMDAT ??$_Uninit_move@PAUtagInventoryItemInfo@@PAU1@V?$allocator@UtagInventoryItemInfo@@@std@@U1@@std@@YAPAUtagInventoryItemInfo@@PAU1@00AAV?$allocator@UtagInventoryItemInfo@@@0@0U_Nonscalar_ptr_iterator_tag@0@@Z
_TEXT	SEGMENT
__Next$ = -20						; size = 4
__$EHRec$ = -16						; size = 16
__First$ = 8						; size = 4
__Last$ = 12						; size = 4
__Dest$ = 16						; size = 4
__Al$ = 20						; size = 4
___formal$ = 24						; size = 4
___formal$ = 28						; size = 1
??$_Uninit_move@PAUtagInventoryItemInfo@@PAU1@V?$allocator@UtagInventoryItemInfo@@@std@@U1@@std@@YAPAUtagInventoryItemInfo@@PAU1@00AAV?$allocator@UtagInventoryItemInfo@@@0@0U_Nonscalar_ptr_iterator_tag@0@@Z PROC ; std::_Uninit_move<tagInventoryItemInfo *,tagInventoryItemInfo *,std::allocator<tagInventoryItemInfo>,tagInventoryItemInfo>, COMDAT

; 424  : 	{	// move [_First, _Last) to raw _Dest, using _Al, arbitrary type

  00000	6a 08		 push	 8
  00002	b8 00 00 00 00	 mov	 eax, __ehhandler$??$_Uninit_move@PAUtagInventoryItemInfo@@PAU1@V?$allocator@UtagInventoryItemInfo@@@std@@U1@@std@@YAPAUtagInventoryItemInfo@@PAU1@00AAV?$allocator@UtagInventoryItemInfo@@@0@0U_Nonscalar_ptr_iterator_tag@0@@Z
  00007	e8 00 00 00 00	 call	 __EH_prolog3_catch

; 425  : 	_DEBUG_RANGE(_First, _Last);
; 426  : 	_DEBUG_POINTER(_Dest);
; 427  : 	_FwdIt _Next = _Dest;

  0000c	8b 45 10	 mov	 eax, DWORD PTR __Dest$[ebp]

; 428  : 
; 429  : 	_TRY_BEGIN

  0000f	83 65 fc 00	 and	 DWORD PTR __$EHRec$[ebp+12], 0
  00013	8b 75 08	 mov	 esi, DWORD PTR __First$[ebp]
  00016	89 45 ec	 mov	 DWORD PTR __Next$[ebp], eax
$LL6@Uninit_mov:

; 430  : 	for (; _First != _Last; ++_Dest, ++_First)

  00019	3b 75 0c	 cmp	 esi, DWORD PTR __Last$[ebp]
  0001c	74 37		 je	 SHORT $LN4@Uninit_mov

; 431  : 		_Cons_val(_Al, _Dest, (_Valty &&)*_First);

  0001e	56		 push	 esi
  0001f	ff 75 10	 push	 DWORD PTR __Dest$[ebp]
  00022	ff 75 14	 push	 DWORD PTR __Al$[ebp]
  00025	e8 00 00 00 00	 call	 ??$_Cons_val@V?$allocator@UtagInventoryItemInfo@@@std@@UtagInventoryItemInfo@@U3@@std@@YAXAAV?$allocator@UtagInventoryItemInfo@@@0@PAUtagInventoryItemInfo@@$$QAU2@@Z ; std::_Cons_val<std::allocator<tagInventoryItemInfo>,tagInventoryItemInfo,tagInventoryItemInfo>
  0002a	83 45 10 48	 add	 DWORD PTR __Dest$[ebp], 72 ; 00000048H
  0002e	83 c4 0c	 add	 esp, 12			; 0000000cH
  00031	83 c6 48	 add	 esi, 72			; 00000048H
  00034	eb e3		 jmp	 SHORT $LL6@Uninit_mov
__catch$??$_Uninit_move@PAUtagInventoryItemInfo@@PAU1@V?$allocator@UtagInventoryItemInfo@@@std@@U1@@std@@YAPAUtagInventoryItemInfo@@PAU1@00AAV?$allocator@UtagInventoryItemInfo@@@0@0U_Nonscalar_ptr_iterator_tag@0@@Z$0:

; 432  : 	_CATCH_ALL
; 433  : 	for (; _Next != _Dest; ++_Next)

  00036	8b 75 ec	 mov	 esi, DWORD PTR __Next$[ebp]
  00039	eb 0c		 jmp	 SHORT $LN32@Uninit_mov
$LL3@Uninit_mov:

; 434  : 		_Dest_val(_Al, _Next);

  0003b	8d 4e 24	 lea	 ecx, DWORD PTR [esi+36]
  0003e	ff 15 00 00 00
	00		 call	 DWORD PTR __imp_??1ioHashString@@QAE@XZ
  00044	83 c6 48	 add	 esi, 72			; 00000048H
$LN32@Uninit_mov:

; 432  : 	_CATCH_ALL
; 433  : 	for (; _Next != _Dest; ++_Next)

  00047	3b 75 10	 cmp	 esi, DWORD PTR __Dest$[ebp]
  0004a	75 ef		 jne	 SHORT $LL3@Uninit_mov

; 435  : 	_RERAISE;

  0004c	6a 00		 push	 0
  0004e	6a 00		 push	 0
  00050	e8 00 00 00 00	 call	 __CxxThrowException@8
$LN33@Uninit_mov:
$LN4@Uninit_mov:

; 436  : 	_CATCH_END
; 437  : 	return (_Dest);

  00055	8b 45 10	 mov	 eax, DWORD PTR __Dest$[ebp]

; 438  : 	}

  00058	e8 00 00 00 00	 call	 __EH_epilog3
  0005d	c3		 ret	 0
$LN31@Uninit_mov:
_TEXT	ENDS
;	COMDAT text$x
text$x	SEGMENT
__ehhandler$??$_Uninit_move@PAUtagInventoryItemInfo@@PAU1@V?$allocator@UtagInventoryItemInfo@@@std@@U1@@std@@YAPAUtagInventoryItemInfo@@PAU1@00AAV?$allocator@UtagInventoryItemInfo@@@0@0U_Nonscalar_ptr_iterator_tag@0@@Z:
  00000	8b 54 24 08	 mov	 edx, DWORD PTR [esp+8]
  00004	8d 42 0c	 lea	 eax, DWORD PTR [edx+12]
  00007	8b 4a e8	 mov	 ecx, DWORD PTR [edx-24]
  0000a	33 c8		 xor	 ecx, eax
  0000c	e8 00 00 00 00	 call	 @__security_check_cookie@4
  00011	b8 00 00 00 00	 mov	 eax, OFFSET __ehfuncinfo$??$_Uninit_move@PAUtagInventoryItemInfo@@PAU1@V?$allocator@UtagInventoryItemInfo@@@std@@U1@@std@@YAPAUtagInventoryItemInfo@@PAU1@00AAV?$allocator@UtagInventoryItemInfo@@@0@0U_Nonscalar_ptr_iterator_tag@0@@Z
  00016	e9 00 00 00 00	 jmp	 ___CxxFrameHandler3
text$x	ENDS
??$_Uninit_move@PAUtagInventoryItemInfo@@PAU1@V?$allocator@UtagInventoryItemInfo@@@std@@U1@@std@@YAPAUtagInventoryItemInfo@@PAU1@00AAV?$allocator@UtagInventoryItemInfo@@@0@0U_Nonscalar_ptr_iterator_tag@0@@Z ENDP ; std::_Uninit_move<tagInventoryItemInfo *,tagInventoryItemInfo *,std::allocator<tagInventoryItemInfo>,tagInventoryItemInfo>
PUBLIC	??$_Pop_heap@PAUtagInventoryItemInfo@@VInventoryItemInfoSort2@@@std@@YAXPAUtagInventoryItemInfo@@0VInventoryItemInfoSort2@@@Z ; std::_Pop_heap<tagInventoryItemInfo *,InventoryItemInfoSort2>
; Function compile flags: /Ogsp
; File c:\program files (x86)\microsoft visual studio 10.0\vc\include\algorithm
;	COMDAT ??$_Pop_heap@PAUtagInventoryItemInfo@@VInventoryItemInfoSort2@@@std@@YAXPAUtagInventoryItemInfo@@0VInventoryItemInfoSort2@@@Z
_TEXT	SEGMENT
__First$ = 8						; size = 4
__Last$ = 12						; size = 4
__Pred$ = 16						; size = 1
??$_Pop_heap@PAUtagInventoryItemInfo@@VInventoryItemInfoSort2@@@std@@YAXPAUtagInventoryItemInfo@@0VInventoryItemInfoSort2@@@Z PROC ; std::_Pop_heap<tagInventoryItemInfo *,InventoryItemInfoSort2>, COMDAT

; 2610 : 	{	// pop *_First to *(_Last - 1) and reheap, using _Pred

  00000	55		 push	 ebp
  00001	8b ec		 mov	 ebp, esp

; 2611 : 	_Pop_heap_0(_Unchecked(_First), _Unchecked(_Last), _Pred,
; 2612 : 		_Val_type(_First));

  00003	6a 00		 push	 0
  00005	ff 75 10	 push	 DWORD PTR __Pred$[ebp]
  00008	ff 75 0c	 push	 DWORD PTR __Last$[ebp]
  0000b	ff 75 08	 push	 DWORD PTR __First$[ebp]
  0000e	e8 00 00 00 00	 call	 ??$_Pop_heap_0@PAUtagInventoryItemInfo@@U1@VInventoryItemInfoSort2@@@std@@YAXPAUtagInventoryItemInfo@@0VInventoryItemInfoSort2@@0@Z ; std::_Pop_heap_0<tagInventoryItemInfo *,tagInventoryItemInfo,InventoryItemInfoSort2>
  00013	83 c4 10	 add	 esp, 16			; 00000010H

; 2613 : 	}

  00016	5d		 pop	 ebp
  00017	c3		 ret	 0
??$_Pop_heap@PAUtagInventoryItemInfo@@VInventoryItemInfoSort2@@@std@@YAXPAUtagInventoryItemInfo@@0VInventoryItemInfoSort2@@@Z ENDP ; std::_Pop_heap<tagInventoryItemInfo *,InventoryItemInfoSort2>
_TEXT	ENDS
PUBLIC	??$_Pop_heap@PAUtagInventoryItemInfo@@VInventoryItemInfoSort3@@@std@@YAXPAUtagInventoryItemInfo@@0VInventoryItemInfoSort3@@@Z ; std::_Pop_heap<tagInventoryItemInfo *,InventoryItemInfoSort3>
; Function compile flags: /Ogsp
;	COMDAT ??$_Pop_heap@PAUtagInventoryItemInfo@@VInventoryItemInfoSort3@@@std@@YAXPAUtagInventoryItemInfo@@0VInventoryItemInfoSort3@@@Z
_TEXT	SEGMENT
__First$ = 8						; size = 4
__Last$ = 12						; size = 4
__Pred$ = 16						; size = 1
??$_Pop_heap@PAUtagInventoryItemInfo@@VInventoryItemInfoSort3@@@std@@YAXPAUtagInventoryItemInfo@@0VInventoryItemInfoSort3@@@Z PROC ; std::_Pop_heap<tagInventoryItemInfo *,InventoryItemInfoSort3>, COMDAT

; 2610 : 	{	// pop *_First to *(_Last - 1) and reheap, using _Pred

  00000	55		 push	 ebp
  00001	8b ec		 mov	 ebp, esp

; 2611 : 	_Pop_heap_0(_Unchecked(_First), _Unchecked(_Last), _Pred,
; 2612 : 		_Val_type(_First));

  00003	6a 00		 push	 0
  00005	ff 75 10	 push	 DWORD PTR __Pred$[ebp]
  00008	ff 75 0c	 push	 DWORD PTR __Last$[ebp]
  0000b	ff 75 08	 push	 DWORD PTR __First$[ebp]
  0000e	e8 00 00 00 00	 call	 ??$_Pop_heap_0@PAUtagInventoryItemInfo@@U1@VInventoryItemInfoSort3@@@std@@YAXPAUtagInventoryItemInfo@@0VInventoryItemInfoSort3@@0@Z ; std::_Pop_heap_0<tagInventoryItemInfo *,tagInventoryItemInfo,InventoryItemInfoSort3>
  00013	83 c4 10	 add	 esp, 16			; 00000010H

; 2613 : 	}

  00016	5d		 pop	 ebp
  00017	c3		 ret	 0
??$_Pop_heap@PAUtagInventoryItemInfo@@VInventoryItemInfoSort3@@@std@@YAXPAUtagInventoryItemInfo@@0VInventoryItemInfoSort3@@@Z ENDP ; std::_Pop_heap<tagInventoryItemInfo *,InventoryItemInfoSort3>
_TEXT	ENDS
PUBLIC	??$_Destroy_range@V?$allocator@UtagInventoryItemInfo@@@std@@@std@@YAXPAUtagInventoryItemInfo@@0AAV?$allocator@UtagInventoryItemInfo@@@0@@Z ; std::_Destroy_range<std::allocator<tagInventoryItemInfo> >
; Function compile flags: /Ogsp
; File c:\program files (x86)\microsoft visual studio 10.0\vc\include\xmemory
;	COMDAT ??$_Destroy_range@V?$allocator@UtagInventoryItemInfo@@@std@@@std@@YAXPAUtagInventoryItemInfo@@0AAV?$allocator@UtagInventoryItemInfo@@@0@@Z
_TEXT	SEGMENT
__First$ = 8						; size = 4
__Last$ = 12						; size = 4
__Al$ = 16						; size = 4
??$_Destroy_range@V?$allocator@UtagInventoryItemInfo@@@std@@@std@@YAXPAUtagInventoryItemInfo@@0AAV?$allocator@UtagInventoryItemInfo@@@0@@Z PROC ; std::_Destroy_range<std::allocator<tagInventoryItemInfo> >, COMDAT

; 87   : 	{	// destroy [_First, _Last)

  00000	55		 push	 ebp
  00001	8b ec		 mov	 ebp, esp
  00003	56		 push	 esi

; 88   : 	_Destroy_range(_First, _Last, _Al, _Ptr_cat(_First, _Last));

  00004	8b 75 08	 mov	 esi, DWORD PTR __First$[ebp]
  00007	eb 0c		 jmp	 SHORT $LN24@Destroy_ra@2
$LL7@Destroy_ra@2:
  00009	8d 4e 24	 lea	 ecx, DWORD PTR [esi+36]
  0000c	ff 15 00 00 00
	00		 call	 DWORD PTR __imp_??1ioHashString@@QAE@XZ
  00012	83 c6 48	 add	 esi, 72			; 00000048H
$LN24@Destroy_ra@2:
  00015	3b 75 0c	 cmp	 esi, DWORD PTR __Last$[ebp]
  00018	75 ef		 jne	 SHORT $LL7@Destroy_ra@2
  0001a	5e		 pop	 esi

; 89   : 	}

  0001b	5d		 pop	 ebp
  0001c	c3		 ret	 0
??$_Destroy_range@V?$allocator@UtagInventoryItemInfo@@@std@@@std@@YAXPAUtagInventoryItemInfo@@0AAV?$allocator@UtagInventoryItemInfo@@@0@@Z ENDP ; std::_Destroy_range<std::allocator<tagInventoryItemInfo> >
_TEXT	ENDS
PUBLIC	??$_Uninitialized_move@PAUtagInventoryItemInfo@@PAU1@V?$allocator@UtagInventoryItemInfo@@@std@@@std@@YAPAUtagInventoryItemInfo@@PAU1@00AAV?$allocator@UtagInventoryItemInfo@@@0@@Z ; std::_Uninitialized_move<tagInventoryItemInfo *,tagInventoryItemInfo *,std::allocator<tagInventoryItemInfo> >
; Function compile flags: /Ogsp
; File c:\program files (x86)\microsoft visual studio 10.0\vc\include\memory
;	COMDAT ??$_Uninitialized_move@PAUtagInventoryItemInfo@@PAU1@V?$allocator@UtagInventoryItemInfo@@@std@@@std@@YAPAUtagInventoryItemInfo@@PAU1@00AAV?$allocator@UtagInventoryItemInfo@@@0@@Z
_TEXT	SEGMENT
__Cat$512887 = -4					; size = 1
__First$ = 8						; size = 4
__Last$ = 12						; size = 4
__Dest$ = 16						; size = 4
__Al$ = 20						; size = 4
??$_Uninitialized_move@PAUtagInventoryItemInfo@@PAU1@V?$allocator@UtagInventoryItemInfo@@@std@@@std@@YAPAUtagInventoryItemInfo@@PAU1@00AAV?$allocator@UtagInventoryItemInfo@@@0@@Z PROC ; std::_Uninitialized_move<tagInventoryItemInfo *,tagInventoryItemInfo *,std::allocator<tagInventoryItemInfo> >, COMDAT

; 469  : 	{	// move [_First, _Last) to raw _Dest, using _Al

  00000	55		 push	 ebp
  00001	8b ec		 mov	 ebp, esp
  00003	51		 push	 ecx

; 470  : 	return (_Uninit_move(_First, _Last, _Dest, _Al,
; 471  : 		_Val_type(_First), _Ptr_cat(_First, _Dest)));

  00004	ff 75 fc	 push	 DWORD PTR __Cat$512887[ebp]
  00007	6a 00		 push	 0
  00009	ff 75 14	 push	 DWORD PTR __Al$[ebp]
  0000c	ff 75 10	 push	 DWORD PTR __Dest$[ebp]
  0000f	ff 75 0c	 push	 DWORD PTR __Last$[ebp]
  00012	ff 75 08	 push	 DWORD PTR __First$[ebp]
  00015	e8 00 00 00 00	 call	 ??$_Uninit_move@PAUtagInventoryItemInfo@@PAU1@V?$allocator@UtagInventoryItemInfo@@@std@@U1@@std@@YAPAUtagInventoryItemInfo@@PAU1@00AAV?$allocator@UtagInventoryItemInfo@@@0@0U_Nonscalar_ptr_iterator_tag@0@@Z ; std::_Uninit_move<tagInventoryItemInfo *,tagInventoryItemInfo *,std::allocator<tagInventoryItemInfo>,tagInventoryItemInfo>
  0001a	83 c4 18	 add	 esp, 24			; 00000018H

; 472  : 	}

  0001d	c9		 leave
  0001e	c3		 ret	 0
??$_Uninitialized_move@PAUtagInventoryItemInfo@@PAU1@V?$allocator@UtagInventoryItemInfo@@@std@@@std@@YAPAUtagInventoryItemInfo@@PAU1@00AAV?$allocator@UtagInventoryItemInfo@@@0@@Z ENDP ; std::_Uninitialized_move<tagInventoryItemInfo *,tagInventoryItemInfo *,std::allocator<tagInventoryItemInfo> >
_TEXT	ENDS
PUBLIC	??$_Sort_heap@PAUtagInventoryItemInfo@@VInventoryItemInfoSort2@@@std@@YAXPAUtagInventoryItemInfo@@0VInventoryItemInfoSort2@@@Z ; std::_Sort_heap<tagInventoryItemInfo *,InventoryItemInfoSort2>
; Function compile flags: /Ogsp
; File c:\program files (x86)\microsoft visual studio 10.0\vc\include\algorithm
;	COMDAT ??$_Sort_heap@PAUtagInventoryItemInfo@@VInventoryItemInfoSort2@@@std@@YAXPAUtagInventoryItemInfo@@0VInventoryItemInfoSort2@@@Z
_TEXT	SEGMENT
__First$ = 8						; size = 4
__Last$ = 12						; size = 4
__Pred$ = 16						; size = 1
??$_Sort_heap@PAUtagInventoryItemInfo@@VInventoryItemInfoSort2@@@std@@YAXPAUtagInventoryItemInfo@@0VInventoryItemInfoSort2@@@Z PROC ; std::_Sort_heap<tagInventoryItemInfo *,InventoryItemInfoSort2>, COMDAT

; 2700 : 	{	// order heap by repeatedly popping, using _Pred

  00000	55		 push	 ebp
  00001	8b ec		 mov	 ebp, esp

; 2701 : 	for (; 1 < _Last - _First; --_Last)

  00003	8b 4d 0c	 mov	 ecx, DWORD PTR __Last$[ebp]
  00006	2b 4d 08	 sub	 ecx, DWORD PTR __First$[ebp]
  00009	57		 push	 edi
  0000a	8b c1		 mov	 eax, ecx
  0000c	6a 48		 push	 72			; 00000048H
  0000e	99		 cdq
  0000f	5f		 pop	 edi
  00010	f7 ff		 idiv	 edi
  00012	83 f8 01	 cmp	 eax, 1
  00015	7e 29		 jle	 SHORT $LN1@Sort_heap
  00017	8b f9		 mov	 edi, ecx
$LL3@Sort_heap:

; 2702 : 		_Pop_heap(_First, _Last, _Pred);

  00019	6a 00		 push	 0
  0001b	ff 75 10	 push	 DWORD PTR __Pred$[ebp]
  0001e	ff 75 0c	 push	 DWORD PTR __Last$[ebp]
  00021	ff 75 08	 push	 DWORD PTR __First$[ebp]
  00024	e8 00 00 00 00	 call	 ??$_Pop_heap_0@PAUtagInventoryItemInfo@@U1@VInventoryItemInfoSort2@@@std@@YAXPAUtagInventoryItemInfo@@0VInventoryItemInfoSort2@@0@Z ; std::_Pop_heap_0<tagInventoryItemInfo *,tagInventoryItemInfo,InventoryItemInfoSort2>
  00029	83 c4 10	 add	 esp, 16			; 00000010H
  0002c	83 ef 48	 sub	 edi, 72			; 00000048H
  0002f	8b c7		 mov	 eax, edi
  00031	6a 48		 push	 72			; 00000048H
  00033	99		 cdq
  00034	59		 pop	 ecx
  00035	f7 f9		 idiv	 ecx
  00037	83 6d 0c 48	 sub	 DWORD PTR __Last$[ebp], 72 ; 00000048H
  0003b	83 f8 01	 cmp	 eax, 1
  0003e	7f d9		 jg	 SHORT $LL3@Sort_heap
$LN1@Sort_heap:
  00040	5f		 pop	 edi

; 2703 : 	}

  00041	5d		 pop	 ebp
  00042	c3		 ret	 0
??$_Sort_heap@PAUtagInventoryItemInfo@@VInventoryItemInfoSort2@@@std@@YAXPAUtagInventoryItemInfo@@0VInventoryItemInfoSort2@@@Z ENDP ; std::_Sort_heap<tagInventoryItemInfo *,InventoryItemInfoSort2>
_TEXT	ENDS
PUBLIC	??$_Sort_heap@PAUtagInventoryItemInfo@@VInventoryItemInfoSort3@@@std@@YAXPAUtagInventoryItemInfo@@0VInventoryItemInfoSort3@@@Z ; std::_Sort_heap<tagInventoryItemInfo *,InventoryItemInfoSort3>
; Function compile flags: /Ogsp
;	COMDAT ??$_Sort_heap@PAUtagInventoryItemInfo@@VInventoryItemInfoSort3@@@std@@YAXPAUtagInventoryItemInfo@@0VInventoryItemInfoSort3@@@Z
_TEXT	SEGMENT
__First$ = 8						; size = 4
__Last$ = 12						; size = 4
__Pred$ = 16						; size = 1
??$_Sort_heap@PAUtagInventoryItemInfo@@VInventoryItemInfoSort3@@@std@@YAXPAUtagInventoryItemInfo@@0VInventoryItemInfoSort3@@@Z PROC ; std::_Sort_heap<tagInventoryItemInfo *,InventoryItemInfoSort3>, COMDAT

; 2700 : 	{	// order heap by repeatedly popping, using _Pred

  00000	55		 push	 ebp
  00001	8b ec		 mov	 ebp, esp

; 2701 : 	for (; 1 < _Last - _First; --_Last)

  00003	8b 4d 0c	 mov	 ecx, DWORD PTR __Last$[ebp]
  00006	2b 4d 08	 sub	 ecx, DWORD PTR __First$[ebp]
  00009	57		 push	 edi
  0000a	8b c1		 mov	 eax, ecx
  0000c	6a 48		 push	 72			; 00000048H
  0000e	99		 cdq
  0000f	5f		 pop	 edi
  00010	f7 ff		 idiv	 edi
  00012	83 f8 01	 cmp	 eax, 1
  00015	7e 29		 jle	 SHORT $LN1@Sort_heap@2
  00017	8b f9		 mov	 edi, ecx
$LL3@Sort_heap@2:

; 2702 : 		_Pop_heap(_First, _Last, _Pred);

  00019	6a 00		 push	 0
  0001b	ff 75 10	 push	 DWORD PTR __Pred$[ebp]
  0001e	ff 75 0c	 push	 DWORD PTR __Last$[ebp]
  00021	ff 75 08	 push	 DWORD PTR __First$[ebp]
  00024	e8 00 00 00 00	 call	 ??$_Pop_heap_0@PAUtagInventoryItemInfo@@U1@VInventoryItemInfoSort3@@@std@@YAXPAUtagInventoryItemInfo@@0VInventoryItemInfoSort3@@0@Z ; std::_Pop_heap_0<tagInventoryItemInfo *,tagInventoryItemInfo,InventoryItemInfoSort3>
  00029	83 c4 10	 add	 esp, 16			; 00000010H
  0002c	83 ef 48	 sub	 edi, 72			; 00000048H
  0002f	8b c7		 mov	 eax, edi
  00031	6a 48		 push	 72			; 00000048H
  00033	99		 cdq
  00034	59		 pop	 ecx
  00035	f7 f9		 idiv	 ecx
  00037	83 6d 0c 48	 sub	 DWORD PTR __Last$[ebp], 72 ; 00000048H
  0003b	83 f8 01	 cmp	 eax, 1
  0003e	7f d9		 jg	 SHORT $LL3@Sort_heap@2
$LN1@Sort_heap@2:
  00040	5f		 pop	 edi

; 2703 : 	}

  00041	5d		 pop	 ebp
  00042	c3		 ret	 0
??$_Sort_heap@PAUtagInventoryItemInfo@@VInventoryItemInfoSort3@@@std@@YAXPAUtagInventoryItemInfo@@0VInventoryItemInfoSort3@@@Z ENDP ; std::_Sort_heap<tagInventoryItemInfo *,InventoryItemInfoSort3>
_TEXT	ENDS
PUBLIC	?_Destroy@?$vector@UtagInventoryItemInfo@@V?$allocator@UtagInventoryItemInfo@@@std@@@std@@IAEXPAUtagInventoryItemInfo@@0@Z ; std::vector<tagInventoryItemInfo,std::allocator<tagInventoryItemInfo> >::_Destroy
; Function compile flags: /Ogsp
; File c:\program files (x86)\microsoft visual studio 10.0\vc\include\vector
;	COMDAT ?_Destroy@?$vector@UtagInventoryItemInfo@@V?$allocator@UtagInventoryItemInfo@@@std@@@std@@IAEXPAUtagInventoryItemInfo@@0@Z
_TEXT	SEGMENT
__First$ = 8						; size = 4
__Last$ = 12						; size = 4
?_Destroy@?$vector@UtagInventoryItemInfo@@V?$allocator@UtagInventoryItemInfo@@@std@@@std@@IAEXPAUtagInventoryItemInfo@@0@Z PROC ; std::vector<tagInventoryItemInfo,std::allocator<tagInventoryItemInfo> >::_Destroy, COMDAT
; _this$ = ecx

; 1269 : 		{	// destroy [_First, _Last) using allocator

  00000	55		 push	 ebp
  00001	8b ec		 mov	 ebp, esp

; 1270 : 		_Destroy_range(_First, _Last, this->_Alval);

  00003	83 c1 0c	 add	 ecx, 12			; 0000000cH
  00006	51		 push	 ecx
  00007	ff 75 0c	 push	 DWORD PTR __Last$[ebp]
  0000a	ff 75 08	 push	 DWORD PTR __First$[ebp]
  0000d	e8 00 00 00 00	 call	 ??$_Destroy_range@V?$allocator@UtagInventoryItemInfo@@@std@@@std@@YAXPAUtagInventoryItemInfo@@0AAV?$allocator@UtagInventoryItemInfo@@@0@@Z ; std::_Destroy_range<std::allocator<tagInventoryItemInfo> >
  00012	83 c4 0c	 add	 esp, 12			; 0000000cH

; 1271 : 		}

  00015	5d		 pop	 ebp
  00016	c2 08 00	 ret	 8
?_Destroy@?$vector@UtagInventoryItemInfo@@V?$allocator@UtagInventoryItemInfo@@@std@@@std@@IAEXPAUtagInventoryItemInfo@@0@Z ENDP ; std::vector<tagInventoryItemInfo,std::allocator<tagInventoryItemInfo> >::_Destroy
_TEXT	ENDS
PUBLIC	??$_Umove@PAUtagInventoryItemInfo@@@?$vector@UtagInventoryItemInfo@@V?$allocator@UtagInventoryItemInfo@@@std@@@std@@IAEPAUtagInventoryItemInfo@@PAU2@00@Z ; std::vector<tagInventoryItemInfo,std::allocator<tagInventoryItemInfo> >::_Umove<tagInventoryItemInfo *>
; Function compile flags: /Ogsp
;	COMDAT ??$_Umove@PAUtagInventoryItemInfo@@@?$vector@UtagInventoryItemInfo@@V?$allocator@UtagInventoryItemInfo@@@std@@@std@@IAEPAUtagInventoryItemInfo@@PAU2@00@Z
_TEXT	SEGMENT
__First$ = 8						; size = 4
__Last$ = 12						; size = 4
__Ptr$ = 16						; size = 4
??$_Umove@PAUtagInventoryItemInfo@@@?$vector@UtagInventoryItemInfo@@V?$allocator@UtagInventoryItemInfo@@@std@@@std@@IAEPAUtagInventoryItemInfo@@PAU2@00@Z PROC ; std::vector<tagInventoryItemInfo,std::allocator<tagInventoryItemInfo> >::_Umove<tagInventoryItemInfo *>, COMDAT
; _this$ = ecx

; 1322 : 		pointer _Umove(_Iter _First, _Iter _Last, pointer _Ptr)

  00000	55		 push	 ebp
  00001	8b ec		 mov	 ebp, esp

; 1323 : 		{	// move initializing [_First, _Last), using allocator
; 1324 : 		return (_Uninitialized_move(_First, _Last,
; 1325 : 			_Ptr, this->_Alval));

  00003	83 c1 0c	 add	 ecx, 12			; 0000000cH
  00006	51		 push	 ecx
  00007	ff 75 10	 push	 DWORD PTR __Ptr$[ebp]
  0000a	ff 75 0c	 push	 DWORD PTR __Last$[ebp]
  0000d	ff 75 08	 push	 DWORD PTR __First$[ebp]
  00010	e8 00 00 00 00	 call	 ??$_Uninitialized_move@PAUtagInventoryItemInfo@@PAU1@V?$allocator@UtagInventoryItemInfo@@@std@@@std@@YAPAUtagInventoryItemInfo@@PAU1@00AAV?$allocator@UtagInventoryItemInfo@@@0@@Z ; std::_Uninitialized_move<tagInventoryItemInfo *,tagInventoryItemInfo *,std::allocator<tagInventoryItemInfo> >
  00015	83 c4 10	 add	 esp, 16			; 00000010H

; 1326 : 		}

  00018	5d		 pop	 ebp
  00019	c2 0c 00	 ret	 12			; 0000000cH
??$_Umove@PAUtagInventoryItemInfo@@@?$vector@UtagInventoryItemInfo@@V?$allocator@UtagInventoryItemInfo@@@std@@@std@@IAEPAUtagInventoryItemInfo@@PAU2@00@Z ENDP ; std::vector<tagInventoryItemInfo,std::allocator<tagInventoryItemInfo> >::_Umove<tagInventoryItemInfo *>
_TEXT	ENDS
PUBLIC	??$sort_heap@PAUtagInventoryItemInfo@@VInventoryItemInfoSort2@@@std@@YAXPAUtagInventoryItemInfo@@0VInventoryItemInfoSort2@@@Z ; std::sort_heap<tagInventoryItemInfo *,InventoryItemInfoSort2>
; Function compile flags: /Ogsp
; File c:\program files (x86)\microsoft visual studio 10.0\vc\include\algorithm
;	COMDAT ??$sort_heap@PAUtagInventoryItemInfo@@VInventoryItemInfoSort2@@@std@@YAXPAUtagInventoryItemInfo@@0VInventoryItemInfoSort2@@@Z
_TEXT	SEGMENT
__First$ = 8						; size = 4
__Last$ = 12						; size = 4
__Pred$ = 16						; size = 1
??$sort_heap@PAUtagInventoryItemInfo@@VInventoryItemInfoSort2@@@std@@YAXPAUtagInventoryItemInfo@@0VInventoryItemInfoSort2@@@Z PROC ; std::sort_heap<tagInventoryItemInfo *,InventoryItemInfoSort2>, COMDAT

; 2708 : 	{	// order heap by repeatedly popping, using _Pred

  00000	55		 push	 ebp
  00001	8b ec		 mov	 ebp, esp

; 2709 : 	_DEBUG_RANGE(_First, _Last);
; 2710 : 	_DEBUG_POINTER(_Pred);
; 2711 : 	_DEBUG_HEAP_PRED(_First, _Last, _Pred);
; 2712 : 	_Sort_heap(_Unchecked(_First), _Unchecked(_Last), _Pred);

  00003	ff 75 10	 push	 DWORD PTR __Pred$[ebp]
  00006	ff 75 0c	 push	 DWORD PTR __Last$[ebp]
  00009	ff 75 08	 push	 DWORD PTR __First$[ebp]
  0000c	e8 00 00 00 00	 call	 ??$_Sort_heap@PAUtagInventoryItemInfo@@VInventoryItemInfoSort2@@@std@@YAXPAUtagInventoryItemInfo@@0VInventoryItemInfoSort2@@@Z ; std::_Sort_heap<tagInventoryItemInfo *,InventoryItemInfoSort2>
  00011	83 c4 0c	 add	 esp, 12			; 0000000cH

; 2713 : 	}

  00014	5d		 pop	 ebp
  00015	c3		 ret	 0
??$sort_heap@PAUtagInventoryItemInfo@@VInventoryItemInfoSort2@@@std@@YAXPAUtagInventoryItemInfo@@0VInventoryItemInfoSort2@@@Z ENDP ; std::sort_heap<tagInventoryItemInfo *,InventoryItemInfoSort2>
_TEXT	ENDS
PUBLIC	??$sort_heap@PAUtagInventoryItemInfo@@VInventoryItemInfoSort3@@@std@@YAXPAUtagInventoryItemInfo@@0VInventoryItemInfoSort3@@@Z ; std::sort_heap<tagInventoryItemInfo *,InventoryItemInfoSort3>
; Function compile flags: /Ogsp
;	COMDAT ??$sort_heap@PAUtagInventoryItemInfo@@VInventoryItemInfoSort3@@@std@@YAXPAUtagInventoryItemInfo@@0VInventoryItemInfoSort3@@@Z
_TEXT	SEGMENT
__First$ = 8						; size = 4
__Last$ = 12						; size = 4
__Pred$ = 16						; size = 1
??$sort_heap@PAUtagInventoryItemInfo@@VInventoryItemInfoSort3@@@std@@YAXPAUtagInventoryItemInfo@@0VInventoryItemInfoSort3@@@Z PROC ; std::sort_heap<tagInventoryItemInfo *,InventoryItemInfoSort3>, COMDAT

; 2708 : 	{	// order heap by repeatedly popping, using _Pred

  00000	55		 push	 ebp
  00001	8b ec		 mov	 ebp, esp

; 2709 : 	_DEBUG_RANGE(_First, _Last);
; 2710 : 	_DEBUG_POINTER(_Pred);
; 2711 : 	_DEBUG_HEAP_PRED(_First, _Last, _Pred);
; 2712 : 	_Sort_heap(_Unchecked(_First), _Unchecked(_Last), _Pred);

  00003	ff 75 10	 push	 DWORD PTR __Pred$[ebp]
  00006	ff 75 0c	 push	 DWORD PTR __Last$[ebp]
  00009	ff 75 08	 push	 DWORD PTR __First$[ebp]
  0000c	e8 00 00 00 00	 call	 ??$_Sort_heap@PAUtagInventoryItemInfo@@VInventoryItemInfoSort3@@@std@@YAXPAUtagInventoryItemInfo@@0VInventoryItemInfoSort3@@@Z ; std::_Sort_heap<tagInventoryItemInfo *,InventoryItemInfoSort3>
  00011	83 c4 0c	 add	 esp, 12			; 0000000cH

; 2713 : 	}

  00014	5d		 pop	 ebp
  00015	c3		 ret	 0
??$sort_heap@PAUtagInventoryItemInfo@@VInventoryItemInfoSort3@@@std@@YAXPAUtagInventoryItemInfo@@0VInventoryItemInfoSort3@@@Z ENDP ; std::sort_heap<tagInventoryItemInfo *,InventoryItemInfoSort3>
_TEXT	ENDS
PUBLIC	?erase@?$vector@UtagInventoryItemInfo@@V?$allocator@UtagInventoryItemInfo@@@std@@@std@@QAE?AV?$_Vector_iterator@V?$_Vector_val@UtagInventoryItemInfo@@V?$allocator@UtagInventoryItemInfo@@@std@@@std@@@2@V?$_Vector_const_iterator@V?$_Vector_val@UtagInventoryItemInfo@@V?$allocator@UtagInventoryItemInfo@@@std@@@std@@@2@0@Z ; std::vector<tagInventoryItemInfo,std::allocator<tagInventoryItemInfo> >::erase
; Function compile flags: /Ogsp
; File c:\program files (x86)\microsoft visual studio 10.0\vc\include\vector
;	COMDAT ?erase@?$vector@UtagInventoryItemInfo@@V?$allocator@UtagInventoryItemInfo@@@std@@@std@@QAE?AV?$_Vector_iterator@V?$_Vector_val@UtagInventoryItemInfo@@V?$allocator@UtagInventoryItemInfo@@@std@@@std@@@2@V?$_Vector_const_iterator@V?$_Vector_val@UtagInventoryItemInfo@@V?$allocator@UtagInventoryItemInfo@@@std@@@std@@@2@0@Z
_TEXT	SEGMENT
___$ReturnUdt$ = 8					; size = 4
__First_arg$ = 12					; size = 4
__Cat$513028 = 16					; size = 1
__Last_arg$ = 16					; size = 4
?erase@?$vector@UtagInventoryItemInfo@@V?$allocator@UtagInventoryItemInfo@@@std@@@std@@QAE?AV?$_Vector_iterator@V?$_Vector_val@UtagInventoryItemInfo@@V?$allocator@UtagInventoryItemInfo@@@std@@@std@@@2@V?$_Vector_const_iterator@V?$_Vector_val@UtagInventoryItemInfo@@V?$allocator@UtagInventoryItemInfo@@@std@@@std@@@2@0@Z PROC ; std::vector<tagInventoryItemInfo,std::allocator<tagInventoryItemInfo> >::erase, COMDAT
; _this$ = ecx

; 1190 : 		{	// erase [_First, _Last)

  00000	55		 push	 ebp
  00001	8b ec		 mov	 ebp, esp

; 1191 : 		iterator _First = _Make_iter(_First_arg);

  00003	8b 45 0c	 mov	 eax, DWORD PTR __First_arg$[ebp]
  00006	53		 push	 ebx
  00007	8b 5d 08	 mov	 ebx, DWORD PTR ___$ReturnUdt$[ebp]
  0000a	56		 push	 esi
  0000b	8b f1		 mov	 esi, ecx
  0000d	89 03		 mov	 DWORD PTR [ebx], eax

; 1192 : 		iterator _Last = _Make_iter(_Last_arg);
; 1193 : 
; 1194 : 		if (_First != _Last)

  0000f	3b 45 10	 cmp	 eax, DWORD PTR __Last_arg$[ebp]
  00012	74 27		 je	 SHORT $LN1@erase

; 1195 : 			{	// worth doing, copy down over hole
; 1196 :  #if _ITERATOR_DEBUG_LEVEL == 2
; 1197 : 			if (_Last < _First || _VICONT(_First) != this
; 1198 : 				|| _VIPTR(_First) < this->_Myfirst
; 1199 : 				|| this->_Mylast < _VIPTR(_Last))
; 1200 : 				_DEBUG_ERROR("vector erase iterator outside range");
; 1201 : 			pointer _Ptr = _Move(_VIPTR(_Last), this->_Mylast,
; 1202 : 				_VIPTR(_First));
; 1203 : 			_Orphan_range(_VIPTR(_First), this->_Mylast);
; 1204 : 
; 1205 :  #else /* _ITERATOR_DEBUG_LEVEL == 2 */
; 1206 : 			pointer _Ptr = _Move(_VIPTR(_Last), this->_Mylast,
; 1207 : 				_VIPTR(_First));

  00014	8b 4e 04	 mov	 ecx, DWORD PTR [esi+4]
  00017	57		 push	 edi
  00018	ff 75 10	 push	 DWORD PTR __Cat$513028[ebp]
  0001b	50		 push	 eax
  0001c	51		 push	 ecx
  0001d	ff 75 10	 push	 DWORD PTR __Last_arg$[ebp]
  00020	e8 00 00 00 00	 call	 ??$_Move@PAUtagInventoryItemInfo@@PAU1@@std@@YAPAUtagInventoryItemInfo@@PAU1@00U_Nonscalar_ptr_iterator_tag@0@@Z ; std::_Move<tagInventoryItemInfo *,tagInventoryItemInfo *>
  00025	8b f8		 mov	 edi, eax

; 1208 :  #endif /* _ITERATOR_DEBUG_LEVEL == 2 */
; 1209 : 
; 1210 : 			_Destroy(_Ptr, this->_Mylast);

  00027	8d 46 0c	 lea	 eax, DWORD PTR [esi+12]
  0002a	50		 push	 eax
  0002b	ff 76 04	 push	 DWORD PTR [esi+4]
  0002e	57		 push	 edi
  0002f	e8 00 00 00 00	 call	 ??$_Destroy_range@V?$allocator@UtagInventoryItemInfo@@@std@@@std@@YAXPAUtagInventoryItemInfo@@0AAV?$allocator@UtagInventoryItemInfo@@@0@@Z ; std::_Destroy_range<std::allocator<tagInventoryItemInfo> >
  00034	83 c4 1c	 add	 esp, 28			; 0000001cH

; 1211 : 			this->_Mylast = _Ptr;

  00037	89 7e 04	 mov	 DWORD PTR [esi+4], edi
  0003a	5f		 pop	 edi
$LN1@erase:

; 1212 : 			}
; 1213 : 		return (_First);

  0003b	5e		 pop	 esi
  0003c	8b c3		 mov	 eax, ebx
  0003e	5b		 pop	 ebx

; 1214 : 		}

  0003f	5d		 pop	 ebp
  00040	c2 0c 00	 ret	 12			; 0000000cH
?erase@?$vector@UtagInventoryItemInfo@@V?$allocator@UtagInventoryItemInfo@@@std@@@std@@QAE?AV?$_Vector_iterator@V?$_Vector_val@UtagInventoryItemInfo@@V?$allocator@UtagInventoryItemInfo@@@std@@@std@@@2@V?$_Vector_const_iterator@V?$_Vector_val@UtagInventoryItemInfo@@V?$allocator@UtagInventoryItemInfo@@@std@@@std@@@2@0@Z ENDP ; std::vector<tagInventoryItemInfo,std::allocator<tagInventoryItemInfo> >::erase
_TEXT	ENDS
PUBLIC	?_Tidy@?$vector@UtagInventoryItemInfo@@V?$allocator@UtagInventoryItemInfo@@@std@@@std@@IAEXXZ ; std::vector<tagInventoryItemInfo,std::allocator<tagInventoryItemInfo> >::_Tidy
EXTRN	__imp_?_Orphan_all@_Container_base0@std@@QAEXXZ:PROC
; Function compile flags: /Ogsp
;	COMDAT ?_Tidy@?$vector@UtagInventoryItemInfo@@V?$allocator@UtagInventoryItemInfo@@@std@@@std@@IAEXXZ
_TEXT	SEGMENT
?_Tidy@?$vector@UtagInventoryItemInfo@@V?$allocator@UtagInventoryItemInfo@@@std@@@std@@IAEXXZ PROC ; std::vector<tagInventoryItemInfo,std::allocator<tagInventoryItemInfo> >::_Tidy, COMDAT
; _this$ = ecx

; 1301 : 		{	// free all storage

  00000	56		 push	 esi
  00001	8b f1		 mov	 esi, ecx

; 1302 : 		if (this->_Myfirst != 0)

  00003	83 3e 00	 cmp	 DWORD PTR [esi], 0
  00006	74 1e		 je	 SHORT $LN6@Tidy

; 1303 : 			{	// something to free, destroy and deallocate it
; 1304 : 			this->_Orphan_all();

  00008	ff 15 00 00 00
	00		 call	 DWORD PTR __imp_?_Orphan_all@_Container_base0@std@@QAEXXZ

; 1305 : 			_Destroy(this->_Myfirst, this->_Mylast);

  0000e	8d 46 0c	 lea	 eax, DWORD PTR [esi+12]
  00011	50		 push	 eax
  00012	ff 76 04	 push	 DWORD PTR [esi+4]
  00015	ff 36		 push	 DWORD PTR [esi]
  00017	e8 00 00 00 00	 call	 ??$_Destroy_range@V?$allocator@UtagInventoryItemInfo@@@std@@@std@@YAXPAUtagInventoryItemInfo@@0AAV?$allocator@UtagInventoryItemInfo@@@0@@Z ; std::_Destroy_range<std::allocator<tagInventoryItemInfo> >

; 1306 : 			this->_Alval.deallocate(this->_Myfirst,
; 1307 : 				this->_Myend - this->_Myfirst);

  0001c	ff 36		 push	 DWORD PTR [esi]
  0001e	e8 00 00 00 00	 call	 ??3@YAXPAX@Z		; operator delete
  00023	83 c4 10	 add	 esp, 16			; 00000010H
$LN6@Tidy:

; 1308 : 			}
; 1309 : 		this->_Myfirst = 0;

  00026	83 26 00	 and	 DWORD PTR [esi], 0

; 1310 : 		this->_Mylast = 0;

  00029	83 66 04 00	 and	 DWORD PTR [esi+4], 0

; 1311 : 		this->_Myend = 0;

  0002d	83 66 08 00	 and	 DWORD PTR [esi+8], 0
  00031	5e		 pop	 esi

; 1312 : 		}

  00032	c3		 ret	 0
?_Tidy@?$vector@UtagInventoryItemInfo@@V?$allocator@UtagInventoryItemInfo@@@std@@@std@@IAEXXZ ENDP ; std::vector<tagInventoryItemInfo,std::allocator<tagInventoryItemInfo> >::_Tidy
_TEXT	ENDS
PUBLIC	?reserve@?$vector@UtagInventoryItemInfo@@V?$allocator@UtagInventoryItemInfo@@@std@@@std@@QAEXI@Z ; std::vector<tagInventoryItemInfo,std::allocator<tagInventoryItemInfo> >::reserve
;	COMDAT xdata$x
; File c:\program files (x86)\microsoft visual studio 10.0\vc\include\xmemory
xdata$x	SEGMENT
__catchsym$?reserve@?$vector@UtagInventoryItemInfo@@V?$allocator@UtagInventoryItemInfo@@@std@@@std@@QAEXI@Z$2 DD 040H
	DD	00H
	DD	00H
	DD	FLAT:__catch$?reserve@?$vector@UtagInventoryItemInfo@@V?$allocator@UtagInventoryItemInfo@@@std@@@std@@QAEXI@Z$0
__unwindtable$?reserve@?$vector@UtagInventoryItemInfo@@V?$allocator@UtagInventoryItemInfo@@@std@@@std@@QAEXI@Z DD 0ffffffffH
	DD	00H
	DD	0ffffffffH
	DD	00H
__tryblocktable$?reserve@?$vector@UtagInventoryItemInfo@@V?$allocator@UtagInventoryItemInfo@@@std@@@std@@QAEXI@Z DD 00H
	DD	00H
	DD	01H
	DD	01H
	DD	FLAT:__catchsym$?reserve@?$vector@UtagInventoryItemInfo@@V?$allocator@UtagInventoryItemInfo@@@std@@@std@@QAEXI@Z$2
__ehfuncinfo$?reserve@?$vector@UtagInventoryItemInfo@@V?$allocator@UtagInventoryItemInfo@@@std@@@std@@QAEXI@Z DD 019930522H
	DD	02H
	DD	FLAT:__unwindtable$?reserve@?$vector@UtagInventoryItemInfo@@V?$allocator@UtagInventoryItemInfo@@@std@@@std@@QAEXI@Z
	DD	01H
	DD	FLAT:__tryblocktable$?reserve@?$vector@UtagInventoryItemInfo@@V?$allocator@UtagInventoryItemInfo@@@std@@@std@@QAEXI@Z
	DD	2 DUP(00H)
	DD	00H
	DD	01H
; Function compile flags: /Ogsp
; File c:\program files (x86)\microsoft visual studio 10.0\vc\include\vector
xdata$x	ENDS
;	COMDAT ?reserve@?$vector@UtagInventoryItemInfo@@V?$allocator@UtagInventoryItemInfo@@@std@@@std@@QAEXI@Z
_TEXT	SEGMENT
__$EHRec$ = -16						; size = 16
__Ptr$508653 = 8					; size = 4
__Count$ = 8						; size = 4
?reserve@?$vector@UtagInventoryItemInfo@@V?$allocator@UtagInventoryItemInfo@@@std@@@std@@QAEXI@Z PROC ; std::vector<tagInventoryItemInfo,std::allocator<tagInventoryItemInfo> >::reserve, COMDAT
; _this$ = ecx

; 746  : 		{	// determine new minimum length of allocated storage

  00000	6a 04		 push	 4
  00002	b8 00 00 00 00	 mov	 eax, __ehhandler$?reserve@?$vector@UtagInventoryItemInfo@@V?$allocator@UtagInventoryItemInfo@@@std@@@std@@QAEXI@Z
  00007	e8 00 00 00 00	 call	 __EH_prolog3_catch
  0000c	8b f1		 mov	 esi, ecx

; 747  : 		if (max_size() < _Count)

  0000e	8b 5d 08	 mov	 ebx, DWORD PTR __Count$[ebp]
  00011	81 fb e3 38 8e
	03		 cmp	 ebx, 59652323		; 038e38e3H
  00017	76 0b		 jbe	 SHORT $LN5@reserve

; 748  : 			_Xlen();	// result too long

  00019	68 00 00 00 00	 push	 OFFSET ??_C@_0BD@OLBABOEK@vector?$DMT?$DO?5too?5long?$AA@
  0001e	ff 15 00 00 00
	00		 call	 DWORD PTR __imp_?_Xlength_error@std@@YAXPBD@Z
$LN38@reserve:
$LN5@reserve:

; 749  : 		else if (capacity() < _Count)

  00024	8b 46 08	 mov	 eax, DWORD PTR [esi+8]
  00027	2b 06		 sub	 eax, DWORD PTR [esi]
  00029	6a 48		 push	 72			; 00000048H
  0002b	99		 cdq
  0002c	59		 pop	 ecx
  0002d	f7 f9		 idiv	 ecx
  0002f	3b c3		 cmp	 eax, ebx
  00031	73 70		 jae	 SHORT $LN3@reserve

; 750  : 			{	// not enough room, reallocate
; 751  : 			pointer _Ptr = this->_Alval.allocate(_Count);

  00033	6a 00		 push	 0
  00035	53		 push	 ebx
  00036	e8 00 00 00 00	 call	 ??$_Allocate@UtagInventoryItemInfo@@@std@@YAPAUtagInventoryItemInfo@@IPAU1@@Z ; std::_Allocate<tagInventoryItemInfo>

; 752  : 
; 753  : 			_TRY_BEGIN
; 754  : 			_Umove(this->_Myfirst, this->_Mylast, _Ptr);

  0003b	8b 0e		 mov	 ecx, DWORD PTR [esi]
  0003d	83 65 fc 00	 and	 DWORD PTR __$EHRec$[ebp+12], 0
  00041	8d 56 0c	 lea	 edx, DWORD PTR [esi+12]
  00044	52		 push	 edx
  00045	89 45 08	 mov	 DWORD PTR __Ptr$508653[ebp], eax
  00048	ff 75 08	 push	 DWORD PTR __Ptr$508653[ebp]
  0004b	8b 46 04	 mov	 eax, DWORD PTR [esi+4]
  0004e	50		 push	 eax
  0004f	51		 push	 ecx
  00050	e8 00 00 00 00	 call	 ??$_Uninitialized_move@PAUtagInventoryItemInfo@@PAU1@V?$allocator@UtagInventoryItemInfo@@@std@@@std@@YAPAUtagInventoryItemInfo@@PAU1@00AAV?$allocator@UtagInventoryItemInfo@@@0@@Z ; std::_Uninitialized_move<tagInventoryItemInfo *,tagInventoryItemInfo *,std::allocator<tagInventoryItemInfo> >

; 758  : 			_CATCH_END
; 759  : 
; 760  : 			size_type _Size = size();

  00055	8b 0e		 mov	 ecx, DWORD PTR [esi]
  00057	8b 46 04	 mov	 eax, DWORD PTR [esi+4]
  0005a	83 c4 18	 add	 esp, 24			; 00000018H
  0005d	2b c1		 sub	 eax, ecx
  0005f	6a 48		 push	 72			; 00000048H
  00061	99		 cdq
  00062	5f		 pop	 edi
  00063	f7 ff		 idiv	 edi
  00065	83 4d fc ff	 or	 DWORD PTR __$EHRec$[ebp+12], -1
  00069	8b f8		 mov	 edi, eax
  0006b	85 c9		 test	 ecx, ecx
  0006d	74 17		 je	 SHORT $LN33@reserve

; 761  : 			if (this->_Myfirst != 0)
; 762  : 				{	// destroy and deallocate old array
; 763  : 				_Destroy(this->_Myfirst, this->_Mylast);

  0006f	8d 46 0c	 lea	 eax, DWORD PTR [esi+12]
  00072	50		 push	 eax
  00073	ff 76 04	 push	 DWORD PTR [esi+4]
  00076	51		 push	 ecx
  00077	e8 00 00 00 00	 call	 ??$_Destroy_range@V?$allocator@UtagInventoryItemInfo@@@std@@@std@@YAXPAUtagInventoryItemInfo@@0AAV?$allocator@UtagInventoryItemInfo@@@0@@Z ; std::_Destroy_range<std::allocator<tagInventoryItemInfo> >

; 764  : 				this->_Alval.deallocate(this->_Myfirst,
; 765  : 					this->_Myend - this->_Myfirst);

  0007c	ff 36		 push	 DWORD PTR [esi]
  0007e	e8 00 00 00 00	 call	 ??3@YAXPAX@Z		; operator delete
  00083	83 c4 10	 add	 esp, 16			; 00000010H
$LN33@reserve:

; 766  : 				}
; 767  : 
; 768  : 			this->_Orphan_all();

  00086	8b ce		 mov	 ecx, esi
  00088	ff 15 00 00 00
	00		 call	 DWORD PTR __imp_?_Orphan_all@_Container_base0@std@@QAEXXZ

; 769  : 			this->_Myend = _Ptr + _Count;

  0008e	6b db 48	 imul	 ebx, 72			; 00000048H

; 770  : 			this->_Mylast = _Ptr + _Size;

  00091	6b ff 48	 imul	 edi, 72			; 00000048H
  00094	8b 45 08	 mov	 eax, DWORD PTR __Ptr$508653[ebp]
  00097	03 d8		 add	 ebx, eax
  00099	03 f8		 add	 edi, eax
  0009b	89 5e 08	 mov	 DWORD PTR [esi+8], ebx
  0009e	89 7e 04	 mov	 DWORD PTR [esi+4], edi

; 771  : 			this->_Myfirst = _Ptr;

  000a1	89 06		 mov	 DWORD PTR [esi], eax
$LN3@reserve:

; 772  : 			}
; 773  : 		}

  000a3	e8 00 00 00 00	 call	 __EH_epilog3
  000a8	c2 04 00	 ret	 4
__catch$?reserve@?$vector@UtagInventoryItemInfo@@V?$allocator@UtagInventoryItemInfo@@@std@@@std@@QAEXI@Z$0:

; 755  : 			_CATCH_ALL
; 756  : 			this->_Alval.deallocate(_Ptr, _Count);

  000ab	ff 75 08	 push	 DWORD PTR __Ptr$508653[ebp]
  000ae	e8 00 00 00 00	 call	 ??3@YAXPAX@Z		; operator delete
  000b3	59		 pop	 ecx

; 757  : 			_RERAISE;

  000b4	6a 00		 push	 0
  000b6	6a 00		 push	 0
  000b8	e8 00 00 00 00	 call	 __CxxThrowException@8
$LN39@reserve:
$LN37@reserve:
  000bd	cc		 int	 3
_TEXT	ENDS
;	COMDAT text$x
text$x	SEGMENT
__ehhandler$?reserve@?$vector@UtagInventoryItemInfo@@V?$allocator@UtagInventoryItemInfo@@@std@@@std@@QAEXI@Z:
  00000	8b 54 24 08	 mov	 edx, DWORD PTR [esp+8]
  00004	8d 42 0c	 lea	 eax, DWORD PTR [edx+12]
  00007	8b 4a ec	 mov	 ecx, DWORD PTR [edx-20]
  0000a	33 c8		 xor	 ecx, eax
  0000c	e8 00 00 00 00	 call	 @__security_check_cookie@4
  00011	b8 00 00 00 00	 mov	 eax, OFFSET __ehfuncinfo$?reserve@?$vector@UtagInventoryItemInfo@@V?$allocator@UtagInventoryItemInfo@@@std@@@std@@QAEXI@Z
  00016	e9 00 00 00 00	 jmp	 ___CxxFrameHandler3
text$x	ENDS
?reserve@?$vector@UtagInventoryItemInfo@@V?$allocator@UtagInventoryItemInfo@@@std@@@std@@QAEXI@Z ENDP ; std::vector<tagInventoryItemInfo,std::allocator<tagInventoryItemInfo> >::reserve
PUBLIC	??$_Sort@PAUtagInventoryItemInfo@@HVInventoryItemInfoSort2@@@std@@YAXPAUtagInventoryItemInfo@@0HVInventoryItemInfoSort2@@@Z ; std::_Sort<tagInventoryItemInfo *,int,InventoryItemInfoSort2>
; Function compile flags: /Ogsp
; File c:\program files (x86)\microsoft visual studio 10.0\vc\include\algorithm
;	COMDAT ??$_Sort@PAUtagInventoryItemInfo@@HVInventoryItemInfoSort2@@@std@@YAXPAUtagInventoryItemInfo@@0HVInventoryItemInfoSort2@@@Z
_TEXT	SEGMENT
__Mid$509501 = -8					; size = 8
__First$ = 8						; size = 4
__Last$ = 12						; size = 4
__Ideal$ = 16						; size = 4
__Pred$ = 20						; size = 1
??$_Sort@PAUtagInventoryItemInfo@@HVInventoryItemInfoSort2@@@std@@YAXPAUtagInventoryItemInfo@@0HVInventoryItemInfoSort2@@@Z PROC ; std::_Sort<tagInventoryItemInfo *,int,InventoryItemInfoSort2>, COMDAT

; 3771 : 	{	// order [_First, _Last), using _Pred

  00000	55		 push	 ebp
  00001	8b ec		 mov	 ebp, esp
  00003	51		 push	 ecx
  00004	51		 push	 ecx
  00005	53		 push	 ebx

; 3772 : 	_Diff _Count;
; 3773 : 	for (; _ISORT_MAX < (_Count = _Last - _First) && 0 < _Ideal; )

  00006	8b 5d 08	 mov	 ebx, DWORD PTR __First$[ebp]
  00009	57		 push	 edi
  0000a	8b 7d 0c	 mov	 edi, DWORD PTR __Last$[ebp]
  0000d	8b c7		 mov	 eax, edi
  0000f	2b c3		 sub	 eax, ebx
  00011	6a 48		 push	 72			; 00000048H
  00013	99		 cdq
  00014	59		 pop	 ecx
  00015	f7 f9		 idiv	 ecx
  00017	83 f8 20	 cmp	 eax, 32			; 00000020H
  0001a	0f 8e 9c 00 00
	00		 jle	 $LN22@Sort
  00020	56		 push	 esi
  00021	8b 75 10	 mov	 esi, DWORD PTR __Ideal$[ebp]
$LL7@Sort:
  00024	85 f6		 test	 esi, esi
  00026	7e 75		 jle	 SHORT $LN6@Sort

; 3774 : 		{	// divide and conquer by quicksort
; 3775 : 		_STD pair<_RanIt, _RanIt> _Mid =
; 3776 : 			_Unguarded_partition(_First, _Last, _Pred);

  00028	ff 75 14	 push	 DWORD PTR __Pred$[ebp]
  0002b	8d 45 f8	 lea	 eax, DWORD PTR __Mid$509501[ebp]
  0002e	57		 push	 edi
  0002f	53		 push	 ebx
  00030	50		 push	 eax
  00031	e8 00 00 00 00	 call	 ??$_Unguarded_partition@PAUtagInventoryItemInfo@@VInventoryItemInfoSort2@@@std@@YA?AU?$pair@PAUtagInventoryItemInfo@@PAU1@@0@PAUtagInventoryItemInfo@@0VInventoryItemInfoSort2@@@Z ; std::_Unguarded_partition<tagInventoryItemInfo *,InventoryItemInfoSort2>

; 3777 : 		_Ideal /= 2, _Ideal += _Ideal / 2;	// allow 1.5 log2(N) divisions

  00036	8b c6		 mov	 eax, esi
  00038	99		 cdq
  00039	2b c2		 sub	 eax, edx
  0003b	d1 f8		 sar	 eax, 1
  0003d	8b f0		 mov	 esi, eax
  0003f	99		 cdq
  00040	2b c2		 sub	 eax, edx
  00042	d1 f8		 sar	 eax, 1
  00044	03 f0		 add	 esi, eax
  00046	83 c4 10	 add	 esp, 16			; 00000010H

; 3778 : 
; 3779 : 		if (_Mid.first - _First < _Last - _Mid.second)

  00049	8b c7		 mov	 eax, edi
  0004b	2b 45 fc	 sub	 eax, DWORD PTR __Mid$509501[ebp+4]
  0004e	6a 48		 push	 72			; 00000048H
  00050	99		 cdq
  00051	59		 pop	 ecx
  00052	f7 f9		 idiv	 ecx
  00054	6a 48		 push	 72			; 00000048H
  00056	8b c8		 mov	 ecx, eax
  00058	8b 45 f8	 mov	 eax, DWORD PTR __Mid$509501[ebp]
  0005b	2b c3		 sub	 eax, ebx
  0005d	5b		 pop	 ebx
  0005e	99		 cdq
  0005f	f7 fb		 idiv	 ebx

; 3780 : 			{	// loop on second half
; 3781 : 			_Sort(_First, _Mid.first, _Ideal, _Pred);

  00061	ff 75 14	 push	 DWORD PTR __Pred$[ebp]
  00064	56		 push	 esi
  00065	3b c1		 cmp	 eax, ecx
  00067	7d 13		 jge	 SHORT $LN5@Sort
  00069	ff 75 f8	 push	 DWORD PTR __Mid$509501[ebp]
  0006c	ff 75 08	 push	 DWORD PTR __First$[ebp]
  0006f	e8 00 00 00 00	 call	 ??$_Sort@PAUtagInventoryItemInfo@@HVInventoryItemInfoSort2@@@std@@YAXPAUtagInventoryItemInfo@@0HVInventoryItemInfoSort2@@@Z ; std::_Sort<tagInventoryItemInfo *,int,InventoryItemInfoSort2>

; 3782 : 			_First = _Mid.second;

  00074	8b 5d fc	 mov	 ebx, DWORD PTR __Mid$509501[ebp+4]
  00077	89 5d 08	 mov	 DWORD PTR __First$[ebp], ebx

; 3783 : 			}
; 3784 : 		else

  0007a	eb 0f		 jmp	 SHORT $LN23@Sort
$LN5@Sort:

; 3785 : 			{	// loop on first half
; 3786 : 			_Sort(_Mid.second, _Last, _Ideal, _Pred);

  0007c	57		 push	 edi
  0007d	ff 75 fc	 push	 DWORD PTR __Mid$509501[ebp+4]
  00080	e8 00 00 00 00	 call	 ??$_Sort@PAUtagInventoryItemInfo@@HVInventoryItemInfoSort2@@@std@@YAXPAUtagInventoryItemInfo@@0HVInventoryItemInfoSort2@@@Z ; std::_Sort<tagInventoryItemInfo *,int,InventoryItemInfoSort2>

; 3787 : 			_Last = _Mid.first;

  00085	8b 7d f8	 mov	 edi, DWORD PTR __Mid$509501[ebp]
  00088	8b 5d 08	 mov	 ebx, DWORD PTR __First$[ebp]
$LN23@Sort:

; 3772 : 	_Diff _Count;
; 3773 : 	for (; _ISORT_MAX < (_Count = _Last - _First) && 0 < _Ideal; )

  0008b	83 c4 10	 add	 esp, 16			; 00000010H
  0008e	8b c7		 mov	 eax, edi
  00090	2b c3		 sub	 eax, ebx
  00092	6a 48		 push	 72			; 00000048H
  00094	99		 cdq
  00095	59		 pop	 ecx
  00096	f7 f9		 idiv	 ecx
  00098	83 f8 20	 cmp	 eax, 32			; 00000020H
  0009b	7f 87		 jg	 SHORT $LL7@Sort
$LN6@Sort:
  0009d	5e		 pop	 esi

; 3788 : 			}
; 3789 : 		}
; 3790 : 
; 3791 : 	if (_ISORT_MAX < _Count)

  0009e	83 f8 20	 cmp	 eax, 32			; 00000020H
  000a1	7e 19		 jle	 SHORT $LN22@Sort

; 3792 : 		{	// heap sort if too many divisions
; 3793 : 		_STD make_heap(_First, _Last, _Pred);

  000a3	ff 75 14	 push	 DWORD PTR __Pred$[ebp]
  000a6	57		 push	 edi
  000a7	53		 push	 ebx
  000a8	e8 00 00 00 00	 call	 ??$make_heap@PAUtagInventoryItemInfo@@VInventoryItemInfoSort2@@@std@@YAXPAUtagInventoryItemInfo@@0VInventoryItemInfoSort2@@@Z ; std::make_heap<tagInventoryItemInfo *,InventoryItemInfoSort2>

; 3794 : 		_STD sort_heap(_First, _Last, _Pred);

  000ad	ff 75 14	 push	 DWORD PTR __Pred$[ebp]
  000b0	57		 push	 edi
  000b1	53		 push	 ebx
  000b2	e8 00 00 00 00	 call	 ??$_Sort_heap@PAUtagInventoryItemInfo@@VInventoryItemInfoSort2@@@std@@YAXPAUtagInventoryItemInfo@@0VInventoryItemInfoSort2@@@Z ; std::_Sort_heap<tagInventoryItemInfo *,InventoryItemInfoSort2>
  000b7	83 c4 18	 add	 esp, 24			; 00000018H
  000ba	eb 14		 jmp	 SHORT $LN16@Sort
$LN22@Sort:

; 3795 : 		}
; 3796 : 	else if (1 < _Count)

  000bc	83 f8 01	 cmp	 eax, 1
  000bf	7e 0f		 jle	 SHORT $LN16@Sort

; 3797 : 		_Insertion_sort(_First, _Last, _Pred);	// small

  000c1	6a 00		 push	 0
  000c3	ff 75 14	 push	 DWORD PTR __Pred$[ebp]
  000c6	57		 push	 edi
  000c7	53		 push	 ebx
  000c8	e8 00 00 00 00	 call	 ??$_Insertion_sort1@PAUtagInventoryItemInfo@@VInventoryItemInfoSort2@@U1@@std@@YAXPAUtagInventoryItemInfo@@0VInventoryItemInfoSort2@@0@Z ; std::_Insertion_sort1<tagInventoryItemInfo *,InventoryItemInfoSort2,tagInventoryItemInfo>
  000cd	83 c4 10	 add	 esp, 16			; 00000010H
$LN16@Sort:
  000d0	5f		 pop	 edi
  000d1	5b		 pop	 ebx

; 3798 : 	}

  000d2	c9		 leave
  000d3	c3		 ret	 0
??$_Sort@PAUtagInventoryItemInfo@@HVInventoryItemInfoSort2@@@std@@YAXPAUtagInventoryItemInfo@@0HVInventoryItemInfoSort2@@@Z ENDP ; std::_Sort<tagInventoryItemInfo *,int,InventoryItemInfoSort2>
_TEXT	ENDS
PUBLIC	??$_Sort@PAUtagInventoryItemInfo@@HVInventoryItemInfoSort3@@@std@@YAXPAUtagInventoryItemInfo@@0HVInventoryItemInfoSort3@@@Z ; std::_Sort<tagInventoryItemInfo *,int,InventoryItemInfoSort3>
; Function compile flags: /Ogsp
;	COMDAT ??$_Sort@PAUtagInventoryItemInfo@@HVInventoryItemInfoSort3@@@std@@YAXPAUtagInventoryItemInfo@@0HVInventoryItemInfoSort3@@@Z
_TEXT	SEGMENT
__Mid$509569 = -8					; size = 8
__First$ = 8						; size = 4
__Last$ = 12						; size = 4
__Ideal$ = 16						; size = 4
__Pred$ = 20						; size = 1
??$_Sort@PAUtagInventoryItemInfo@@HVInventoryItemInfoSort3@@@std@@YAXPAUtagInventoryItemInfo@@0HVInventoryItemInfoSort3@@@Z PROC ; std::_Sort<tagInventoryItemInfo *,int,InventoryItemInfoSort3>, COMDAT

; 3771 : 	{	// order [_First, _Last), using _Pred

  00000	55		 push	 ebp
  00001	8b ec		 mov	 ebp, esp
  00003	51		 push	 ecx
  00004	51		 push	 ecx
  00005	53		 push	 ebx

; 3772 : 	_Diff _Count;
; 3773 : 	for (; _ISORT_MAX < (_Count = _Last - _First) && 0 < _Ideal; )

  00006	8b 5d 08	 mov	 ebx, DWORD PTR __First$[ebp]
  00009	57		 push	 edi
  0000a	8b 7d 0c	 mov	 edi, DWORD PTR __Last$[ebp]
  0000d	8b c7		 mov	 eax, edi
  0000f	2b c3		 sub	 eax, ebx
  00011	6a 48		 push	 72			; 00000048H
  00013	99		 cdq
  00014	59		 pop	 ecx
  00015	f7 f9		 idiv	 ecx
  00017	83 f8 20	 cmp	 eax, 32			; 00000020H
  0001a	0f 8e 9c 00 00
	00		 jle	 $LN22@Sort@2
  00020	56		 push	 esi
  00021	8b 75 10	 mov	 esi, DWORD PTR __Ideal$[ebp]
$LL7@Sort@2:
  00024	85 f6		 test	 esi, esi
  00026	7e 75		 jle	 SHORT $LN6@Sort@2

; 3774 : 		{	// divide and conquer by quicksort
; 3775 : 		_STD pair<_RanIt, _RanIt> _Mid =
; 3776 : 			_Unguarded_partition(_First, _Last, _Pred);

  00028	ff 75 14	 push	 DWORD PTR __Pred$[ebp]
  0002b	8d 45 f8	 lea	 eax, DWORD PTR __Mid$509569[ebp]
  0002e	57		 push	 edi
  0002f	53		 push	 ebx
  00030	50		 push	 eax
  00031	e8 00 00 00 00	 call	 ??$_Unguarded_partition@PAUtagInventoryItemInfo@@VInventoryItemInfoSort3@@@std@@YA?AU?$pair@PAUtagInventoryItemInfo@@PAU1@@0@PAUtagInventoryItemInfo@@0VInventoryItemInfoSort3@@@Z ; std::_Unguarded_partition<tagInventoryItemInfo *,InventoryItemInfoSort3>

; 3777 : 		_Ideal /= 2, _Ideal += _Ideal / 2;	// allow 1.5 log2(N) divisions

  00036	8b c6		 mov	 eax, esi
  00038	99		 cdq
  00039	2b c2		 sub	 eax, edx
  0003b	d1 f8		 sar	 eax, 1
  0003d	8b f0		 mov	 esi, eax
  0003f	99		 cdq
  00040	2b c2		 sub	 eax, edx
  00042	d1 f8		 sar	 eax, 1
  00044	03 f0		 add	 esi, eax
  00046	83 c4 10	 add	 esp, 16			; 00000010H

; 3778 : 
; 3779 : 		if (_Mid.first - _First < _Last - _Mid.second)

  00049	8b c7		 mov	 eax, edi
  0004b	2b 45 fc	 sub	 eax, DWORD PTR __Mid$509569[ebp+4]
  0004e	6a 48		 push	 72			; 00000048H
  00050	99		 cdq
  00051	59		 pop	 ecx
  00052	f7 f9		 idiv	 ecx
  00054	6a 48		 push	 72			; 00000048H
  00056	8b c8		 mov	 ecx, eax
  00058	8b 45 f8	 mov	 eax, DWORD PTR __Mid$509569[ebp]
  0005b	2b c3		 sub	 eax, ebx
  0005d	5b		 pop	 ebx
  0005e	99		 cdq
  0005f	f7 fb		 idiv	 ebx

; 3780 : 			{	// loop on second half
; 3781 : 			_Sort(_First, _Mid.first, _Ideal, _Pred);

  00061	ff 75 14	 push	 DWORD PTR __Pred$[ebp]
  00064	56		 push	 esi
  00065	3b c1		 cmp	 eax, ecx
  00067	7d 13		 jge	 SHORT $LN5@Sort@2
  00069	ff 75 f8	 push	 DWORD PTR __Mid$509569[ebp]
  0006c	ff 75 08	 push	 DWORD PTR __First$[ebp]
  0006f	e8 00 00 00 00	 call	 ??$_Sort@PAUtagInventoryItemInfo@@HVInventoryItemInfoSort3@@@std@@YAXPAUtagInventoryItemInfo@@0HVInventoryItemInfoSort3@@@Z ; std::_Sort<tagInventoryItemInfo *,int,InventoryItemInfoSort3>

; 3782 : 			_First = _Mid.second;

  00074	8b 5d fc	 mov	 ebx, DWORD PTR __Mid$509569[ebp+4]
  00077	89 5d 08	 mov	 DWORD PTR __First$[ebp], ebx

; 3783 : 			}
; 3784 : 		else

  0007a	eb 0f		 jmp	 SHORT $LN23@Sort@2
$LN5@Sort@2:

; 3785 : 			{	// loop on first half
; 3786 : 			_Sort(_Mid.second, _Last, _Ideal, _Pred);

  0007c	57		 push	 edi
  0007d	ff 75 fc	 push	 DWORD PTR __Mid$509569[ebp+4]
  00080	e8 00 00 00 00	 call	 ??$_Sort@PAUtagInventoryItemInfo@@HVInventoryItemInfoSort3@@@std@@YAXPAUtagInventoryItemInfo@@0HVInventoryItemInfoSort3@@@Z ; std::_Sort<tagInventoryItemInfo *,int,InventoryItemInfoSort3>

; 3787 : 			_Last = _Mid.first;

  00085	8b 7d f8	 mov	 edi, DWORD PTR __Mid$509569[ebp]
  00088	8b 5d 08	 mov	 ebx, DWORD PTR __First$[ebp]
$LN23@Sort@2:

; 3772 : 	_Diff _Count;
; 3773 : 	for (; _ISORT_MAX < (_Count = _Last - _First) && 0 < _Ideal; )

  0008b	83 c4 10	 add	 esp, 16			; 00000010H
  0008e	8b c7		 mov	 eax, edi
  00090	2b c3		 sub	 eax, ebx
  00092	6a 48		 push	 72			; 00000048H
  00094	99		 cdq
  00095	59		 pop	 ecx
  00096	f7 f9		 idiv	 ecx
  00098	83 f8 20	 cmp	 eax, 32			; 00000020H
  0009b	7f 87		 jg	 SHORT $LL7@Sort@2
$LN6@Sort@2:
  0009d	5e		 pop	 esi

; 3788 : 			}
; 3789 : 		}
; 3790 : 
; 3791 : 	if (_ISORT_MAX < _Count)

  0009e	83 f8 20	 cmp	 eax, 32			; 00000020H
  000a1	7e 19		 jle	 SHORT $LN22@Sort@2

; 3792 : 		{	// heap sort if too many divisions
; 3793 : 		_STD make_heap(_First, _Last, _Pred);

  000a3	ff 75 14	 push	 DWORD PTR __Pred$[ebp]
  000a6	57		 push	 edi
  000a7	53		 push	 ebx
  000a8	e8 00 00 00 00	 call	 ??$make_heap@PAUtagInventoryItemInfo@@VInventoryItemInfoSort3@@@std@@YAXPAUtagInventoryItemInfo@@0VInventoryItemInfoSort3@@@Z ; std::make_heap<tagInventoryItemInfo *,InventoryItemInfoSort3>

; 3794 : 		_STD sort_heap(_First, _Last, _Pred);

  000ad	ff 75 14	 push	 DWORD PTR __Pred$[ebp]
  000b0	57		 push	 edi
  000b1	53		 push	 ebx
  000b2	e8 00 00 00 00	 call	 ??$_Sort_heap@PAUtagInventoryItemInfo@@VInventoryItemInfoSort3@@@std@@YAXPAUtagInventoryItemInfo@@0VInventoryItemInfoSort3@@@Z ; std::_Sort_heap<tagInventoryItemInfo *,InventoryItemInfoSort3>
  000b7	83 c4 18	 add	 esp, 24			; 00000018H
  000ba	eb 14		 jmp	 SHORT $LN16@Sort@2
$LN22@Sort@2:

; 3795 : 		}
; 3796 : 	else if (1 < _Count)

  000bc	83 f8 01	 cmp	 eax, 1
  000bf	7e 0f		 jle	 SHORT $LN16@Sort@2

; 3797 : 		_Insertion_sort(_First, _Last, _Pred);	// small

  000c1	6a 00		 push	 0
  000c3	ff 75 14	 push	 DWORD PTR __Pred$[ebp]
  000c6	57		 push	 edi
  000c7	53		 push	 ebx
  000c8	e8 00 00 00 00	 call	 ??$_Insertion_sort1@PAUtagInventoryItemInfo@@VInventoryItemInfoSort3@@U1@@std@@YAXPAUtagInventoryItemInfo@@0VInventoryItemInfoSort3@@0@Z ; std::_Insertion_sort1<tagInventoryItemInfo *,InventoryItemInfoSort3,tagInventoryItemInfo>
  000cd	83 c4 10	 add	 esp, 16			; 00000010H
$LN16@Sort@2:
  000d0	5f		 pop	 edi
  000d1	5b		 pop	 ebx

; 3798 : 	}

  000d2	c9		 leave
  000d3	c3		 ret	 0
??$_Sort@PAUtagInventoryItemInfo@@HVInventoryItemInfoSort3@@@std@@YAXPAUtagInventoryItemInfo@@0HVInventoryItemInfoSort3@@@Z ENDP ; std::_Sort<tagInventoryItemInfo *,int,InventoryItemInfoSort3>
_TEXT	ENDS
PUBLIC	??1?$vector@UtagInventoryItemInfo@@V?$allocator@UtagInventoryItemInfo@@@std@@@std@@QAE@XZ ; std::vector<tagInventoryItemInfo,std::allocator<tagInventoryItemInfo> >::~vector<tagInventoryItemInfo,std::allocator<tagInventoryItemInfo> >
; Function compile flags: /Ogsp
; File c:\program files (x86)\microsoft visual studio 10.0\vc\include\vector
;	COMDAT ??1?$vector@UtagInventoryItemInfo@@V?$allocator@UtagInventoryItemInfo@@@std@@@std@@QAE@XZ
_TEXT	SEGMENT
??1?$vector@UtagInventoryItemInfo@@V?$allocator@UtagInventoryItemInfo@@@std@@@std@@QAE@XZ PROC ; std::vector<tagInventoryItemInfo,std::allocator<tagInventoryItemInfo> >::~vector<tagInventoryItemInfo,std::allocator<tagInventoryItemInfo> >, COMDAT
; _this$ = ecx

; 705  : 		_Tidy();

  00000	e9 00 00 00 00	 jmp	 ?_Tidy@?$vector@UtagInventoryItemInfo@@V?$allocator@UtagInventoryItemInfo@@@std@@@std@@IAEXXZ ; std::vector<tagInventoryItemInfo,std::allocator<tagInventoryItemInfo> >::_Tidy
??1?$vector@UtagInventoryItemInfo@@V?$allocator@UtagInventoryItemInfo@@@std@@@std@@QAE@XZ ENDP ; std::vector<tagInventoryItemInfo,std::allocator<tagInventoryItemInfo> >::~vector<tagInventoryItemInfo,std::allocator<tagInventoryItemInfo> >
_TEXT	ENDS
PUBLIC	?clear@?$vector@UtagInventoryItemInfo@@V?$allocator@UtagInventoryItemInfo@@@std@@@std@@QAEXXZ ; std::vector<tagInventoryItemInfo,std::allocator<tagInventoryItemInfo> >::clear
; Function compile flags: /Ogsp
;	COMDAT ?clear@?$vector@UtagInventoryItemInfo@@V?$allocator@UtagInventoryItemInfo@@@std@@@std@@QAEXXZ
_TEXT	SEGMENT
$T513185 = -4						; size = 4
?clear@?$vector@UtagInventoryItemInfo@@V?$allocator@UtagInventoryItemInfo@@@std@@@std@@QAEXXZ PROC ; std::vector<tagInventoryItemInfo,std::allocator<tagInventoryItemInfo> >::clear, COMDAT
; _this$ = ecx

; 1217 : 		{	// erase all

  00000	55		 push	 ebp
  00001	8b ec		 mov	 ebp, esp
  00003	51		 push	 ecx

; 1218 : 		erase(begin(), end());

  00004	8b 41 04	 mov	 eax, DWORD PTR [ecx+4]
  00007	8b 11		 mov	 edx, DWORD PTR [ecx]
  00009	50		 push	 eax
  0000a	52		 push	 edx
  0000b	8d 45 fc	 lea	 eax, DWORD PTR $T513185[ebp]
  0000e	50		 push	 eax
  0000f	e8 00 00 00 00	 call	 ?erase@?$vector@UtagInventoryItemInfo@@V?$allocator@UtagInventoryItemInfo@@@std@@@std@@QAE?AV?$_Vector_iterator@V?$_Vector_val@UtagInventoryItemInfo@@V?$allocator@UtagInventoryItemInfo@@@std@@@std@@@2@V?$_Vector_const_iterator@V?$_Vector_val@UtagInventoryItemInfo@@V?$allocator@UtagInventoryItemInfo@@@std@@@std@@@2@0@Z ; std::vector<tagInventoryItemInfo,std::allocator<tagInventoryItemInfo> >::erase

; 1219 : 		}

  00014	c9		 leave
  00015	c3		 ret	 0
?clear@?$vector@UtagInventoryItemInfo@@V?$allocator@UtagInventoryItemInfo@@@std@@@std@@QAEXXZ ENDP ; std::vector<tagInventoryItemInfo,std::allocator<tagInventoryItemInfo> >::clear
_TEXT	ENDS
PUBLIC	?_Reserve@?$vector@UtagInventoryItemInfo@@V?$allocator@UtagInventoryItemInfo@@@std@@@std@@IAEXI@Z ; std::vector<tagInventoryItemInfo,std::allocator<tagInventoryItemInfo> >::_Reserve
; Function compile flags: /Ogsp
;	COMDAT ?_Reserve@?$vector@UtagInventoryItemInfo@@V?$allocator@UtagInventoryItemInfo@@@std@@@std@@IAEXI@Z
_TEXT	SEGMENT
__Count$ = 8						; size = 4
?_Reserve@?$vector@UtagInventoryItemInfo@@V?$allocator@UtagInventoryItemInfo@@@std@@@std@@IAEXI@Z PROC ; std::vector<tagInventoryItemInfo,std::allocator<tagInventoryItemInfo> >::_Reserve, COMDAT
; _this$ = ecx

; 1290 : 		{	// ensure room for _Count new elements, grow exponentially

  00000	55		 push	 ebp
  00001	8b ec		 mov	 ebp, esp
  00003	56		 push	 esi
  00004	8b f1		 mov	 esi, ecx

; 1291 : 		size_type _Size = size();

  00006	8b 0e		 mov	 ecx, DWORD PTR [esi]
  00008	8b 46 04	 mov	 eax, DWORD PTR [esi+4]
  0000b	2b c1		 sub	 eax, ecx
  0000d	57		 push	 edi
  0000e	99		 cdq
  0000f	6a 48		 push	 72			; 00000048H
  00011	5f		 pop	 edi
  00012	f7 ff		 idiv	 edi
  00014	8b f8		 mov	 edi, eax

; 1292 : 		if (max_size() - _Count < _Size)

  00016	b8 e3 38 8e 03	 mov	 eax, 59652323		; 038e38e3H
  0001b	2b 45 08	 sub	 eax, DWORD PTR __Count$[ebp]
  0001e	3b c7		 cmp	 eax, edi
  00020	73 0b		 jae	 SHORT $LN4@Reserve

; 1293 : 			_Xlen();

  00022	68 00 00 00 00	 push	 OFFSET ??_C@_0BD@OLBABOEK@vector?$DMT?$DO?5too?5long?$AA@
  00027	ff 15 00 00 00
	00		 call	 DWORD PTR __imp_?_Xlength_error@std@@YAXPBD@Z
$LN21@Reserve:
$LN4@Reserve:

; 1294 : 		else if ((_Size += _Count) <= capacity())

  0002d	8b 46 08	 mov	 eax, DWORD PTR [esi+8]
  00030	2b c1		 sub	 eax, ecx
  00032	6a 48		 push	 72			; 00000048H
  00034	99		 cdq
  00035	59		 pop	 ecx
  00036	f7 f9		 idiv	 ecx
  00038	03 7d 08	 add	 edi, DWORD PTR __Count$[ebp]
  0003b	3b f8		 cmp	 edi, eax
  0003d	76 10		 jbe	 SHORT $LN1@Reserve

; 1295 : 			;
; 1296 : 		else
; 1297 : 			reserve(_Grow_to(_Size));

  0003f	57		 push	 edi
  00040	8b ce		 mov	 ecx, esi
  00042	e8 00 00 00 00	 call	 ?_Grow_to@?$vector@UtagInventoryItemInfo@@V?$allocator@UtagInventoryItemInfo@@@std@@@std@@IBEII@Z ; std::vector<tagInventoryItemInfo,std::allocator<tagInventoryItemInfo> >::_Grow_to
  00047	50		 push	 eax
  00048	8b ce		 mov	 ecx, esi
  0004a	e8 00 00 00 00	 call	 ?reserve@?$vector@UtagInventoryItemInfo@@V?$allocator@UtagInventoryItemInfo@@@std@@@std@@QAEXI@Z ; std::vector<tagInventoryItemInfo,std::allocator<tagInventoryItemInfo> >::reserve
$LN1@Reserve:
  0004f	5f		 pop	 edi
  00050	5e		 pop	 esi

; 1298 : 		}

  00051	5d		 pop	 ebp
  00052	c2 04 00	 ret	 4
$LN20@Reserve:
?_Reserve@?$vector@UtagInventoryItemInfo@@V?$allocator@UtagInventoryItemInfo@@@std@@@std@@IAEXI@Z ENDP ; std::vector<tagInventoryItemInfo,std::allocator<tagInventoryItemInfo> >::_Reserve
_TEXT	ENDS
PUBLIC	??$sort@V?$_Vector_iterator@V?$_Vector_val@UtagInventoryItemInfo@@V?$allocator@UtagInventoryItemInfo@@@std@@@std@@@std@@VInventoryItemInfoSort2@@@std@@YAXV?$_Vector_iterator@V?$_Vector_val@UtagInventoryItemInfo@@V?$allocator@UtagInventoryItemInfo@@@std@@@std@@@0@0VInventoryItemInfoSort2@@@Z ; std::sort<std::_Vector_iterator<std::_Vector_val<tagInventoryItemInfo,std::allocator<tagInventoryItemInfo> > >,InventoryItemInfoSort2>
; Function compile flags: /Ogsp
; File c:\program files (x86)\microsoft visual studio 10.0\vc\include\algorithm
;	COMDAT ??$sort@V?$_Vector_iterator@V?$_Vector_val@UtagInventoryItemInfo@@V?$allocator@UtagInventoryItemInfo@@@std@@@std@@@std@@VInventoryItemInfoSort2@@@std@@YAXV?$_Vector_iterator@V?$_Vector_val@UtagInventoryItemInfo@@V?$allocator@UtagInventoryItemInfo@@@std@@@std@@@0@0VInventoryItemInfoSort2@@@Z
_TEXT	SEGMENT
__First$ = 8						; size = 4
__Last$ = 12						; size = 4
__Pred$ = 16						; size = 1
??$sort@V?$_Vector_iterator@V?$_Vector_val@UtagInventoryItemInfo@@V?$allocator@UtagInventoryItemInfo@@@std@@@std@@@std@@VInventoryItemInfoSort2@@@std@@YAXV?$_Vector_iterator@V?$_Vector_val@UtagInventoryItemInfo@@V?$allocator@UtagInventoryItemInfo@@@std@@@std@@@0@0VInventoryItemInfoSort2@@@Z PROC ; std::sort<std::_Vector_iterator<std::_Vector_val<tagInventoryItemInfo,std::allocator<tagInventoryItemInfo> > >,InventoryItemInfoSort2>, COMDAT

; 3803 : 	{	// order [_First, _Last), using _Pred

  00000	55		 push	 ebp
  00001	8b ec		 mov	 ebp, esp

; 3804 : 	_DEBUG_RANGE(_First, _Last);
; 3805 : 	_DEBUG_POINTER(_Pred);
; 3806 : 	_Sort(_Unchecked(_First), _Unchecked(_Last), _Last - _First, _Pred);

  00003	ff 75 10	 push	 DWORD PTR __Pred$[ebp]
  00006	8b 45 0c	 mov	 eax, DWORD PTR __Last$[ebp]
  00009	2b 45 08	 sub	 eax, DWORD PTR __First$[ebp]
  0000c	6a 48		 push	 72			; 00000048H
  0000e	59		 pop	 ecx
  0000f	99		 cdq
  00010	f7 f9		 idiv	 ecx
  00012	50		 push	 eax
  00013	ff 75 0c	 push	 DWORD PTR __Last$[ebp]
  00016	ff 75 08	 push	 DWORD PTR __First$[ebp]
  00019	e8 00 00 00 00	 call	 ??$_Sort@PAUtagInventoryItemInfo@@HVInventoryItemInfoSort2@@@std@@YAXPAUtagInventoryItemInfo@@0HVInventoryItemInfoSort2@@@Z ; std::_Sort<tagInventoryItemInfo *,int,InventoryItemInfoSort2>
  0001e	83 c4 10	 add	 esp, 16			; 00000010H

; 3807 : 	}

  00021	5d		 pop	 ebp
  00022	c3		 ret	 0
??$sort@V?$_Vector_iterator@V?$_Vector_val@UtagInventoryItemInfo@@V?$allocator@UtagInventoryItemInfo@@@std@@@std@@@std@@VInventoryItemInfoSort2@@@std@@YAXV?$_Vector_iterator@V?$_Vector_val@UtagInventoryItemInfo@@V?$allocator@UtagInventoryItemInfo@@@std@@@std@@@0@0VInventoryItemInfoSort2@@@Z ENDP ; std::sort<std::_Vector_iterator<std::_Vector_val<tagInventoryItemInfo,std::allocator<tagInventoryItemInfo> > >,InventoryItemInfoSort2>
_TEXT	ENDS
PUBLIC	??$sort@V?$_Vector_iterator@V?$_Vector_val@UtagInventoryItemInfo@@V?$allocator@UtagInventoryItemInfo@@@std@@@std@@@std@@VInventoryItemInfoSort3@@@std@@YAXV?$_Vector_iterator@V?$_Vector_val@UtagInventoryItemInfo@@V?$allocator@UtagInventoryItemInfo@@@std@@@std@@@0@0VInventoryItemInfoSort3@@@Z ; std::sort<std::_Vector_iterator<std::_Vector_val<tagInventoryItemInfo,std::allocator<tagInventoryItemInfo> > >,InventoryItemInfoSort3>
; Function compile flags: /Ogsp
;	COMDAT ??$sort@V?$_Vector_iterator@V?$_Vector_val@UtagInventoryItemInfo@@V?$allocator@UtagInventoryItemInfo@@@std@@@std@@@std@@VInventoryItemInfoSort3@@@std@@YAXV?$_Vector_iterator@V?$_Vector_val@UtagInventoryItemInfo@@V?$allocator@UtagInventoryItemInfo@@@std@@@std@@@0@0VInventoryItemInfoSort3@@@Z
_TEXT	SEGMENT
__First$ = 8						; size = 4
__Last$ = 12						; size = 4
__Pred$ = 16						; size = 1
??$sort@V?$_Vector_iterator@V?$_Vector_val@UtagInventoryItemInfo@@V?$allocator@UtagInventoryItemInfo@@@std@@@std@@@std@@VInventoryItemInfoSort3@@@std@@YAXV?$_Vector_iterator@V?$_Vector_val@UtagInventoryItemInfo@@V?$allocator@UtagInventoryItemInfo@@@std@@@std@@@0@0VInventoryItemInfoSort3@@@Z PROC ; std::sort<std::_Vector_iterator<std::_Vector_val<tagInventoryItemInfo,std::allocator<tagInventoryItemInfo> > >,InventoryItemInfoSort3>, COMDAT

; 3803 : 	{	// order [_First, _Last), using _Pred

  00000	55		 push	 ebp
  00001	8b ec		 mov	 ebp, esp

; 3804 : 	_DEBUG_RANGE(_First, _Last);
; 3805 : 	_DEBUG_POINTER(_Pred);
; 3806 : 	_Sort(_Unchecked(_First), _Unchecked(_Last), _Last - _First, _Pred);

  00003	ff 75 10	 push	 DWORD PTR __Pred$[ebp]
  00006	8b 45 0c	 mov	 eax, DWORD PTR __Last$[ebp]
  00009	2b 45 08	 sub	 eax, DWORD PTR __First$[ebp]
  0000c	6a 48		 push	 72			; 00000048H
  0000e	59		 pop	 ecx
  0000f	99		 cdq
  00010	f7 f9		 idiv	 ecx
  00012	50		 push	 eax
  00013	ff 75 0c	 push	 DWORD PTR __Last$[ebp]
  00016	ff 75 08	 push	 DWORD PTR __First$[ebp]
  00019	e8 00 00 00 00	 call	 ??$_Sort@PAUtagInventoryItemInfo@@HVInventoryItemInfoSort3@@@std@@YAXPAUtagInventoryItemInfo@@0HVInventoryItemInfoSort3@@@Z ; std::_Sort<tagInventoryItemInfo *,int,InventoryItemInfoSort3>
  0001e	83 c4 10	 add	 esp, 16			; 00000010H

; 3807 : 	}

  00021	5d		 pop	 ebp
  00022	c3		 ret	 0
??$sort@V?$_Vector_iterator@V?$_Vector_val@UtagInventoryItemInfo@@V?$allocator@UtagInventoryItemInfo@@@std@@@std@@@std@@VInventoryItemInfoSort3@@@std@@YAXV?$_Vector_iterator@V?$_Vector_val@UtagInventoryItemInfo@@V?$allocator@UtagInventoryItemInfo@@@std@@@std@@@0@0VInventoryItemInfoSort3@@@Z ENDP ; std::sort<std::_Vector_iterator<std::_Vector_val<tagInventoryItemInfo,std::allocator<tagInventoryItemInfo> > >,InventoryItemInfoSort3>
_TEXT	ENDS
PUBLIC	??_7TradeItemRegisterWnd@@6B@			; TradeItemRegisterWnd::`vftable'
PUBLIC	??0TradeItemRegisterWnd@@QAE@XZ			; TradeItemRegisterWnd::TradeItemRegisterWnd
PUBLIC	??_R4TradeItemRegisterWnd@@6B@			; TradeItemRegisterWnd::`RTTI Complete Object Locator'
PUBLIC	??_R3TradeItemRegisterWnd@@8			; TradeItemRegisterWnd::`RTTI Class Hierarchy Descriptor'
PUBLIC	??_R2TradeItemRegisterWnd@@8			; TradeItemRegisterWnd::`RTTI Base Class Array'
PUBLIC	??_R1A@?0A@EA@TradeItemRegisterWnd@@8		; TradeItemRegisterWnd::`RTTI Base Class Descriptor at (0,-1,0,64)'
PUBLIC	?iwm_command@TradeItemRegisterWnd@@UAEXPAVioWnd@@HK@Z ; TradeItemRegisterWnd::iwm_command
PUBLIC	?iwm_show@TradeItemRegisterWnd@@UAEXXZ		; TradeItemRegisterWnd::iwm_show
EXTRN	?AddRenderImage@ioWnd@@UAEXABVioHashString@@PAVioUIRenderImage@@@Z:PROC ; ioWnd::AddRenderImage
EXTRN	??_ETradeItemRegisterWnd@@UAEPAXI@Z:PROC	; TradeItemRegisterWnd::`vector deleting destructor'
;	COMDAT ??_R1A@?0A@EA@TradeItemRegisterWnd@@8
; File c:\program files (x86)\microsoft visual studio 10.0\vc\include\xmemory
rdata$r	SEGMENT
??_R1A@?0A@EA@TradeItemRegisterWnd@@8 DD FLAT:??_R0?AVTradeItemRegisterWnd@@@8 ; TradeItemRegisterWnd::`RTTI Base Class Descriptor at (0,-1,0,64)'
	DD	02H
	DD	00H
	DD	0ffffffffH
	DD	00H
	DD	040H
	DD	FLAT:??_R3TradeItemRegisterWnd@@8
rdata$r	ENDS
;	COMDAT ??_R2TradeItemRegisterWnd@@8
rdata$r	SEGMENT
??_R2TradeItemRegisterWnd@@8 DD FLAT:??_R1A@?0A@EA@TradeItemRegisterWnd@@8 ; TradeItemRegisterWnd::`RTTI Base Class Array'
	DD	FLAT:??_R1A@?0A@EA@ioMovingWnd@@8
	DD	FLAT:??_R1A@?0A@EA@ioWnd@@8
rdata$r	ENDS
;	COMDAT ??_R3TradeItemRegisterWnd@@8
rdata$r	SEGMENT
??_R3TradeItemRegisterWnd@@8 DD 00H			; TradeItemRegisterWnd::`RTTI Class Hierarchy Descriptor'
	DD	00H
	DD	03H
	DD	FLAT:??_R2TradeItemRegisterWnd@@8
rdata$r	ENDS
;	COMDAT ??_R4TradeItemRegisterWnd@@6B@
rdata$r	SEGMENT
??_R4TradeItemRegisterWnd@@6B@ DD 00H			; TradeItemRegisterWnd::`RTTI Complete Object Locator'
	DD	00H
	DD	00H
	DD	FLAT:??_R0?AVTradeItemRegisterWnd@@@8
	DD	FLAT:??_R3TradeItemRegisterWnd@@8
rdata$r	ENDS
;	COMDAT ??_7TradeItemRegisterWnd@@6B@
CONST	SEGMENT
??_7TradeItemRegisterWnd@@6B@ DD FLAT:??_R4TradeItemRegisterWnd@@6B@ ; TradeItemRegisterWnd::`vftable'
	DD	FLAT:?AddRenderFrame@ioWnd@@UAEXABVioHashString@@PAVioUIRenderFrame@@@Z
	DD	FLAT:?AddRenderImage@ioWnd@@UAEXABVioHashString@@PAVioUIRenderImage@@@Z
	DD	FLAT:?AddTooltipHelp@ioWnd@@UAEXABVioHashString@@00@Z
	DD	FLAT:?ParseExtraInfo@ioWnd@@UAEXAAVioXMLElement@@@Z
	DD	FLAT:?AddNamedRenderImage@ioWnd@@UAEXABVioHashString@@PAVioUIRenderImage@@@Z
	DD	FLAT:?RemoveNamedRenderImage@ioWnd@@UAEXABVioHashString@@@Z
	DD	FLAT:?GetNamedRenderImage@ioWnd@@UBEPAVioUIRenderImage@@ABVioHashString@@@Z
	DD	FLAT:?SetWindowAlpha@ioWnd@@UAEXH@Z
	DD	FLAT:?SetActive@ioWnd@@UAEXXZ
	DD	FLAT:?SetInActive@ioWnd@@UAEXXZ
	DD	FLAT:?ClearElementImageList@ioWnd@@UAEXXZ
	DD	FLAT:?SetSize@ioWnd@@UAEXHH@Z
	DD	FLAT:?SetPositionToDefault@ioMovingWnd@@UAEXHH_N0@Z
	DD	FLAT:?IsNeedProcess@ioWnd@@UBE_NXZ
	DD	FLAT:?IsCanMouseReaction@ioWnd@@UBE_NXZ
	DD	FLAT:?AddChild@ioWnd@@UAEXPAV1@@Z
	DD	FLAT:?DeleteChild@ioWnd@@UAEXK@Z
	DD	FLAT:?DeleteAllChild@ioWnd@@UAEXXZ
	DD	FLAT:?OnRenderShowAndHide@ioWnd@@MAE_NXZ
	DD	FLAT:?OnRenderShowAndHideByDefault@ioWnd@@MAE_NK@Z
	DD	FLAT:?OnRenderShowAndHideByTop@ioWnd@@MAE_NK@Z
	DD	FLAT:?OnRenderShowAndHideByDown@ioWnd@@MAE_NK@Z
	DD	FLAT:?OnRender@TradeItemRegisterWnd@@MAEXXZ
	DD	FLAT:?OnRenderAfterChild@ioWnd@@MAEXXZ
	DD	FLAT:?OnProcess@TradeItemRegisterWnd@@MAEXM@Z
	DD	FLAT:?OnMouseProcess@ioMovingWnd@@MAEXABVioMouse@@@Z
	DD	FLAT:?CheckFrameReSize@ioWnd@@MAEXHHHH@Z
	DD	FLAT:?RenderImageList@ioWnd@@MAEXHHW4UIRenderType@@@Z
	DD	FLAT:?iwm_create@TradeItemRegisterWnd@@UAEXXZ
	DD	FLAT:?iwm_destroy@ioWnd@@UAEXXZ
	DD	FLAT:?iwm_lbuttondown@ioMovingWnd@@UAEXABVioMouse@@@Z
	DD	FLAT:?iwm_lbuttonup@ioMovingWnd@@UAEXABVioMouse@@@Z
	DD	FLAT:?iwm_lbuttonDBLCLK@ioWnd@@UAEXABVioMouse@@@Z
	DD	FLAT:?iwm_rbuttondown@ioWnd@@UAEXABVioMouse@@@Z
	DD	FLAT:?iwm_rbuttonup@ioWnd@@UAEXABVioMouse@@@Z
	DD	FLAT:?iwm_command@TradeItemRegisterWnd@@UAEXPAVioWnd@@HK@Z
	DD	FLAT:?iwm_mouseover@ioWnd@@UAEXABVioMouse@@@Z
	DD	FLAT:?iwm_mousemove@ioWnd@@UAEXABVioMouse@@@Z
	DD	FLAT:?iwm_mouseleave@ioWnd@@UAEXABVioMouse@@@Z
	DD	FLAT:?iwm_vscroll@TradeItemRegisterWnd@@UAEXKH@Z
	DD	FLAT:?iwm_wheel@TradeItemRegisterWnd@@UAEXH@Z
	DD	FLAT:?iwm_show@TradeItemRegisterWnd@@UAEXXZ
	DD	FLAT:?iwm_hide@TradeItemRegisterWnd@@UAEXXZ
	DD	FLAT:?iwm_esc@ioWnd@@UAE_NXZ
	DD	FLAT:?iwm_spacebar@ioWnd@@UAE_NXZ
	DD	FLAT:?iwm_gototop@ioWnd@@UAEXXZ
	DD	FLAT:?iwm_dragenter@ioWnd@@UAE?AW4IWDropEffect@@PAVioDragItem@@ABVioMouse@@@Z
	DD	FLAT:?iwm_dragover@ioWnd@@UAE?AW4IWDropEffect@@PAVioDragItem@@ABVioMouse@@@Z
	DD	FLAT:?iwm_dragleave@ioWnd@@UAEXXZ
	DD	FLAT:?iwm_dropitem@ioWnd@@UAE_NPAVioDragItem@@ABVioMouse@@PAV1@@Z
	DD	FLAT:?iwm_dropdone@ioWnd@@UAEXPAVioDragItem@@PAV1@_N@Z
	DD	FLAT:?IsEXType@ioWnd@@UBE_NXZ
	DD	FLAT:?GetWndType@ioWnd@@UBEKXZ
	DD	FLAT:?RenderWnd@ioWnd@@UAEXXZ
	DD	FLAT:?SetIDEX@ioWnd@@UAEXAAK_N@Z
	DD	FLAT:?ParseXML@ioWnd@@UAEXAAVioXMLElement@@@Z
	DD	FLAT:?GetHeaderFileName@ioWnd@@UAEPBDXZ
	DD	FLAT:?GetTemplateName@ioWnd@@UAEPBDXZ
	DD	FLAT:?GetDefClassName@ioWnd@@UBEPBDXZ
	DD	FLAT:?_Clone@ioWnd@@UAEPAV1@XZ
	DD	FLAT:?Copy@ioWnd@@UAEXPAV1@@Z
	DD	FLAT:?Save@ioWnd@@UAE_NAAVioXMLElement@@@Z
	DD	FLAT:?SetSaveData@ioWnd@@UAEXAAVioXMLElement@@@Z
	DD	FLAT:?SetPosX@ioWnd@@UAEXH@Z
	DD	FLAT:?SetPosY@ioWnd@@UAEXH@Z
	DD	FLAT:?SetWidth@ioWnd@@UAEXH@Z
	DD	FLAT:?SetHeight@ioWnd@@UAEXH@Z
	DD	FLAT:?GetNumFixedRenderFrame@ioWnd@@UBEHXZ
	DD	FLAT:?GetFixedRenderFrameType@ioWnd@@UAEPBDH@Z
	DD	FLAT:?GetRenderFrame@ioWnd@@UAEPAPAVioUIRenderElement@@PBD@Z
	DD	FLAT:?GetNumFixedRenderImage@ioWnd@@UBEHXZ
	DD	FLAT:?GetFixedRenderImageType@ioWnd@@UAEPBDH@Z
	DD	FLAT:?GetRenderImage@ioWnd@@UAEPAPAVioUIRenderElement@@PBD@Z
	DD	FLAT:?AddEffect@ioWnd@@UAEXABVioHashString@@PAVioUI3DEffectRender@@@Z
	DD	FLAT:?GetEffect@ioWnd@@UAEPAVioUI3DEffectRender@@VioHashString@@@Z
	DD	FLAT:??_ETradeItemRegisterWnd@@UAEPAXI@Z
; Function compile flags: /Ogsp
; File d:\lost saga for developer\youtube\tutorial\source\src\lsclient\gui\tradeitemregisterwnd.cpp
CONST	ENDS
;	COMDAT ??0TradeItemRegisterWnd@@QAE@XZ
_TEXT	SEGMENT
??0TradeItemRegisterWnd@@QAE@XZ PROC			; TradeItemRegisterWnd::TradeItemRegisterWnd, COMDAT
; _this$ = ecx

; 470  : {

  00000	56		 push	 esi
  00001	8b f1		 mov	 esi, ecx
  00003	ff 15 00 00 00
	00		 call	 DWORD PTR __imp_??0ioMovingWnd@@QAE@XZ
  00009	c7 06 00 00 00
	00		 mov	 DWORD PTR [esi], OFFSET ??_7TradeItemRegisterWnd@@6B@
  0000f	33 c9		 xor	 ecx, ecx
  00011	89 8e 90 01 00
	00		 mov	 DWORD PTR [esi+400], ecx
  00017	89 8e 94 01 00
	00		 mov	 DWORD PTR [esi+404], ecx
  0001d	89 8e 98 01 00
	00		 mov	 DWORD PTR [esi+408], ecx

; 471  : 	m_dwCurTabID = ID_TAB_1_BTN;

  00023	c7 86 a4 01 00
	00 65 00 00 00	 mov	 DWORD PTR [esi+420], 101 ; 00000065H

; 472  : }

  0002d	8b c6		 mov	 eax, esi
  0002f	5e		 pop	 esi
  00030	c3		 ret	 0
??0TradeItemRegisterWnd@@QAE@XZ ENDP			; TradeItemRegisterWnd::TradeItemRegisterWnd
_TEXT	ENDS
PUBLIC	??1TradeItemRegisterWnd@@UAE@XZ			; TradeItemRegisterWnd::~TradeItemRegisterWnd
;	COMDAT xdata$x
; File c:\program files (x86)\microsoft visual studio 10.0\vc\include\vector
xdata$x	SEGMENT
__unwindtable$??1TradeItemRegisterWnd@@UAE@XZ DD 0ffffffffH
	DD	FLAT:__unwindfunclet$??1TradeItemRegisterWnd@@UAE@XZ$0
	DD	00H
	DD	FLAT:__unwindfunclet$??1TradeItemRegisterWnd@@UAE@XZ$1
__ehfuncinfo$??1TradeItemRegisterWnd@@UAE@XZ DD 019930522H
	DD	02H
	DD	FLAT:__unwindtable$??1TradeItemRegisterWnd@@UAE@XZ
	DD	2 DUP(00H)
	DD	2 DUP(00H)
	DD	00H
	DD	01H
; Function compile flags: /Ogsp
; File d:\lost saga for developer\youtube\tutorial\source\src\lsclient\gui\tradeitemregisterwnd.cpp
xdata$x	ENDS
;	COMDAT ??1TradeItemRegisterWnd@@UAE@XZ
_TEXT	SEGMENT
$T513431 = -20						; size = 4
_this$ = -16						; size = 4
__$EHRec$ = -12						; size = 12
??1TradeItemRegisterWnd@@UAE@XZ PROC			; TradeItemRegisterWnd::~TradeItemRegisterWnd, COMDAT
; _this$ = ecx

; 475  : {

  00000	6a 08		 push	 8
  00002	b8 00 00 00 00	 mov	 eax, __ehhandler$??1TradeItemRegisterWnd@@UAE@XZ
  00007	e8 00 00 00 00	 call	 __EH_prolog3
  0000c	8b f9		 mov	 edi, ecx
  0000e	89 7d f0	 mov	 DWORD PTR _this$[ebp], edi
  00011	c7 07 00 00 00
	00		 mov	 DWORD PTR [edi], OFFSET ??_7TradeItemRegisterWnd@@6B@

; 476  : 	m_vInventoryItemInfoList.clear();

  00017	8b 87 94 01 00
	00		 mov	 eax, DWORD PTR [edi+404]
  0001d	8b 8f 90 01 00
	00		 mov	 ecx, DWORD PTR [edi+400]
  00023	50		 push	 eax
  00024	51		 push	 ecx
  00025	8d 45 ec	 lea	 eax, DWORD PTR $T513431[ebp]
  00028	50		 push	 eax
  00029	8d 8f 90 01 00
	00		 lea	 ecx, DWORD PTR [edi+400]
  0002f	c7 45 fc 01 00
	00 00		 mov	 DWORD PTR __$EHRec$[ebp+8], 1
  00036	e8 00 00 00 00	 call	 ?erase@?$vector@UtagInventoryItemInfo@@V?$allocator@UtagInventoryItemInfo@@@std@@@std@@QAE?AV?$_Vector_iterator@V?$_Vector_val@UtagInventoryItemInfo@@V?$allocator@UtagInventoryItemInfo@@@std@@@std@@@2@V?$_Vector_const_iterator@V?$_Vector_val@UtagInventoryItemInfo@@V?$allocator@UtagInventoryItemInfo@@@std@@@std@@@2@0@Z ; std::vector<tagInventoryItemInfo,std::allocator<tagInventoryItemInfo> >::erase

; 477  : }

  0003b	8d 8f 90 01 00
	00		 lea	 ecx, DWORD PTR [edi+400]
  00041	c6 45 fc 00	 mov	 BYTE PTR __$EHRec$[ebp+8], 0
  00045	e8 00 00 00 00	 call	 ?_Tidy@?$vector@UtagInventoryItemInfo@@V?$allocator@UtagInventoryItemInfo@@@std@@@std@@IAEXXZ ; std::vector<tagInventoryItemInfo,std::allocator<tagInventoryItemInfo> >::_Tidy
  0004a	83 4d fc ff	 or	 DWORD PTR __$EHRec$[ebp+8], -1
  0004e	8b cf		 mov	 ecx, edi
  00050	ff 15 00 00 00
	00		 call	 DWORD PTR __imp_??1ioMovingWnd@@UAE@XZ
  00056	e8 00 00 00 00	 call	 __EH_epilog3
  0005b	c3		 ret	 0
_TEXT	ENDS
;	COMDAT text$x
text$x	SEGMENT
__unwindfunclet$??1TradeItemRegisterWnd@@UAE@XZ$0:
  00000	8b 4d f0	 mov	 ecx, DWORD PTR _this$[ebp]
  00003	ff 25 00 00 00
	00		 jmp	 DWORD PTR __imp_??1ioMovingWnd@@UAE@XZ
__unwindfunclet$??1TradeItemRegisterWnd@@UAE@XZ$1:
  00009	8b 4d f0	 mov	 ecx, DWORD PTR _this$[ebp]
  0000c	81 c1 90 01 00
	00		 add	 ecx, 400		; 00000190H
  00012	e9 00 00 00 00	 jmp	 ??1?$vector@UtagInventoryItemInfo@@V?$allocator@UtagInventoryItemInfo@@@std@@@std@@QAE@XZ ; std::vector<tagInventoryItemInfo,std::allocator<tagInventoryItemInfo> >::~vector<tagInventoryItemInfo,std::allocator<tagInventoryItemInfo> >
__ehhandler$??1TradeItemRegisterWnd@@UAE@XZ:
  00017	8b 54 24 08	 mov	 edx, DWORD PTR [esp+8]
  0001b	8d 42 0c	 lea	 eax, DWORD PTR [edx+12]
  0001e	8b 4a e8	 mov	 ecx, DWORD PTR [edx-24]
  00021	33 c8		 xor	 ecx, eax
  00023	e8 00 00 00 00	 call	 @__security_check_cookie@4
  00028	b8 00 00 00 00	 mov	 eax, OFFSET __ehfuncinfo$??1TradeItemRegisterWnd@@UAE@XZ
  0002d	e9 00 00 00 00	 jmp	 ___CxxFrameHandler3
text$x	ENDS
??1TradeItemRegisterWnd@@UAE@XZ ENDP			; TradeItemRegisterWnd::~TradeItemRegisterWnd
PUBLIC	?push_back@?$vector@UtagInventoryItemInfo@@V?$allocator@UtagInventoryItemInfo@@@std@@@std@@QAEXABUtagInventoryItemInfo@@@Z ; std::vector<tagInventoryItemInfo,std::allocator<tagInventoryItemInfo> >::push_back
; Function compile flags: /Ogsp
; File c:\program files (x86)\microsoft visual studio 10.0\vc\include\vector
;	COMDAT ?push_back@?$vector@UtagInventoryItemInfo@@V?$allocator@UtagInventoryItemInfo@@@std@@@std@@QAEXABUtagInventoryItemInfo@@@Z
_TEXT	SEGMENT
__Val$ = 8						; size = 4
?push_back@?$vector@UtagInventoryItemInfo@@V?$allocator@UtagInventoryItemInfo@@@std@@@std@@QAEXABUtagInventoryItemInfo@@@Z PROC ; std::vector<tagInventoryItemInfo,std::allocator<tagInventoryItemInfo> >::push_back, COMDAT
; _this$ = ecx

; 976  : 		{	// insert element at end

  00000	55		 push	 ebp
  00001	8b ec		 mov	 ebp, esp
  00003	56		 push	 esi
  00004	8b f1		 mov	 esi, ecx

; 977  : 		if (_Inside(_STD addressof(_Val)))

  00006	8b 4e 04	 mov	 ecx, DWORD PTR [esi+4]
  00009	57		 push	 edi
  0000a	8b 7d 08	 mov	 edi, DWORD PTR __Val$[ebp]
  0000d	3b f9		 cmp	 edi, ecx
  0000f	73 37		 jae	 SHORT $LN4@push_back
  00011	8b 16		 mov	 edx, DWORD PTR [esi]
  00013	3b d7		 cmp	 edx, edi
  00015	77 31		 ja	 SHORT $LN4@push_back

; 978  : 			{	// push back an element
; 979  : 			size_type _Idx = _STD addressof(_Val) - this->_Myfirst;

  00017	8b c7		 mov	 eax, edi
  00019	2b c2		 sub	 eax, edx
  0001b	6a 48		 push	 72			; 00000048H
  0001d	99		 cdq
  0001e	5f		 pop	 edi
  0001f	f7 ff		 idiv	 edi
  00021	8b f8		 mov	 edi, eax

; 980  : 			if (this->_Mylast == this->_Myend)

  00023	3b 4e 08	 cmp	 ecx, DWORD PTR [esi+8]
  00026	75 09		 jne	 SHORT $LN3@push_back

; 981  : 				_Reserve(1);

  00028	6a 01		 push	 1
  0002a	8b ce		 mov	 ecx, esi
  0002c	e8 00 00 00 00	 call	 ?_Reserve@?$vector@UtagInventoryItemInfo@@V?$allocator@UtagInventoryItemInfo@@@std@@@std@@IAEXI@Z ; std::vector<tagInventoryItemInfo,std::allocator<tagInventoryItemInfo> >::_Reserve
$LN3@push_back:

; 982  : 			_Orphan_range(this->_Mylast, this->_Mylast);
; 983  : 			_Cons_val(this->_Alval,
; 984  : 				this->_Mylast,
; 985  : 				this->_Myfirst[_Idx]);

  00031	6b ff 48	 imul	 edi, 72			; 00000048H
  00034	03 3e		 add	 edi, DWORD PTR [esi]
  00036	8d 46 0c	 lea	 eax, DWORD PTR [esi+12]
  00039	57		 push	 edi
  0003a	ff 76 04	 push	 DWORD PTR [esi+4]
  0003d	50		 push	 eax
  0003e	e8 00 00 00 00	 call	 ??$_Cons_val@V?$allocator@UtagInventoryItemInfo@@@std@@UtagInventoryItemInfo@@AAU3@@std@@YAXAAV?$allocator@UtagInventoryItemInfo@@@0@PAUtagInventoryItemInfo@@AAU2@@Z ; std::_Cons_val<std::allocator<tagInventoryItemInfo>,tagInventoryItemInfo,tagInventoryItemInfo &>
  00043	83 c4 0c	 add	 esp, 12			; 0000000cH

; 986  : 			++this->_Mylast;
; 987  : 			}
; 988  : 		else

  00046	eb 19		 jmp	 SHORT $LN26@push_back
$LN4@push_back:

; 989  : 			{	// push back a non-element
; 990  : 			if (this->_Mylast == this->_Myend)

  00048	3b 4e 08	 cmp	 ecx, DWORD PTR [esi+8]
  0004b	75 09		 jne	 SHORT $LN1@push_back

; 991  : 				_Reserve(1);

  0004d	6a 01		 push	 1
  0004f	8b ce		 mov	 ecx, esi
  00051	e8 00 00 00 00	 call	 ?_Reserve@?$vector@UtagInventoryItemInfo@@V?$allocator@UtagInventoryItemInfo@@@std@@@std@@IAEXI@Z ; std::vector<tagInventoryItemInfo,std::allocator<tagInventoryItemInfo> >::_Reserve
$LN1@push_back:

; 992  : 			_Orphan_range(this->_Mylast, this->_Mylast);
; 993  : 			_Cons_val(this->_Alval,
; 994  : 				this->_Mylast,
; 995  : 				_Val);

  00056	57		 push	 edi
  00057	ff 76 04	 push	 DWORD PTR [esi+4]
  0005a	e8 00 00 00 00	 call	 ??$_Construct@UtagInventoryItemInfo@@ABU1@@std@@YAXPAUtagInventoryItemInfo@@ABU1@@Z ; std::_Construct<tagInventoryItemInfo,tagInventoryItemInfo const &>
  0005f	59		 pop	 ecx
  00060	59		 pop	 ecx
$LN26@push_back:

; 996  : 			++this->_Mylast;

  00061	83 46 04 48	 add	 DWORD PTR [esi+4], 72	; 00000048H
  00065	5f		 pop	 edi
  00066	5e		 pop	 esi

; 997  : 			}
; 998  : 		}

  00067	5d		 pop	 ebp
  00068	c2 04 00	 ret	 4
?push_back@?$vector@UtagInventoryItemInfo@@V?$allocator@UtagInventoryItemInfo@@@std@@@std@@QAEXABUtagInventoryItemInfo@@@Z ENDP ; std::vector<tagInventoryItemInfo,std::allocator<tagInventoryItemInfo> >::push_back
; Function compile flags: /Ogsp
_TEXT	ENDS
;	COMDAT ??_GTradeItemRegisterWnd@@UAEPAXI@Z
_TEXT	SEGMENT
___flags$ = 8						; size = 4
??_GTradeItemRegisterWnd@@UAEPAXI@Z PROC		; TradeItemRegisterWnd::`scalar deleting destructor', COMDAT
; _this$ = ecx
  00000	55		 push	 ebp
  00001	8b ec		 mov	 ebp, esp
  00003	56		 push	 esi
  00004	8b f1		 mov	 esi, ecx
  00006	e8 00 00 00 00	 call	 ??1TradeItemRegisterWnd@@UAE@XZ ; TradeItemRegisterWnd::~TradeItemRegisterWnd
  0000b	f6 45 08 01	 test	 BYTE PTR ___flags$[ebp], 1
  0000f	74 07		 je	 SHORT $LN1@scalar@5
  00011	56		 push	 esi
  00012	e8 00 00 00 00	 call	 ??3@YAXPAX@Z		; operator delete
  00017	59		 pop	 ecx
$LN1@scalar@5:
  00018	8b c6		 mov	 eax, esi
  0001a	5e		 pop	 esi
  0001b	5d		 pop	 ebp
  0001c	c2 04 00	 ret	 4
??_GTradeItemRegisterWnd@@UAEPAXI@Z ENDP		; TradeItemRegisterWnd::`scalar deleting destructor'
_TEXT	ENDS
PUBLIC	?SetExtraItemInfoVec@TradeItemRegisterWnd@@IAEXK@Z ; TradeItemRegisterWnd::SetExtraItemInfoVec
EXTRN	?GetExtraItemArray@ioUserExtraItem@@QAE_NHAAUEXTRAITEMSLOT@@@Z:PROC ; ioUserExtraItem::GetExtraItemArray
EXTRN	?GetExtraItemCnt@ioUserExtraItem@@QAEHXZ:PROC	; ioUserExtraItem::GetExtraItemCnt
;	COMDAT xdata$x
; File c:\program files (x86)\microsoft visual studio 10.0\vc\include\xutility
xdata$x	SEGMENT
__unwindtable$?SetExtraItemInfoVec@TradeItemRegisterWnd@@IAEXK@Z DD 0ffffffffH
	DD	FLAT:__unwindfunclet$?SetExtraItemInfoVec@TradeItemRegisterWnd@@IAEXK@Z$0
	DD	00H
	DD	FLAT:__unwindfunclet$?SetExtraItemInfoVec@TradeItemRegisterWnd@@IAEXK@Z$1
__ehfuncinfo$?SetExtraItemInfoVec@TradeItemRegisterWnd@@IAEXK@Z DD 019930522H
	DD	02H
	DD	FLAT:__unwindtable$?SetExtraItemInfoVec@TradeItemRegisterWnd@@IAEXK@Z
	DD	2 DUP(00H)
	DD	2 DUP(00H)
	DD	00H
	DD	01H
; Function compile flags: /Ogsp
; File d:\lost saga for developer\youtube\tutorial\source\src\lsclient\gui\tradeitemregisterwnd.cpp
xdata$x	ENDS
;	COMDAT ?SetExtraItemInfoVec@TradeItemRegisterWnd@@IAEXK@Z
_TEXT	SEGMENT
_kInfo$508254 = -180					; size = 72
tv444 = -108						; size = 4
_kSlot$508247 = -104					; size = 72
_pItem$ = -32						; size = 4
_iValue$508256 = -28					; size = 4
_this$ = -24						; size = 4
$T513574 = -20						; size = 4
_iSize$ = -20						; size = 4
_i$508243 = -16						; size = 4
__$EHRec$ = -12						; size = 12
$T513505 = 8						; size = 1
_dwTabID$ = 8						; size = 4
?SetExtraItemInfoVec@TradeItemRegisterWnd@@IAEXK@Z PROC	; TradeItemRegisterWnd::SetExtraItemInfoVec, COMDAT
; _this$ = ecx

; 677  : {

  00000	68 a8 00 00 00	 push	 168			; 000000a8H
  00005	b8 00 00 00 00	 mov	 eax, __ehhandler$?SetExtraItemInfoVec@TradeItemRegisterWnd@@IAEXK@Z
  0000a	e8 00 00 00 00	 call	 __EH_prolog3
  0000f	8b f1		 mov	 esi, ecx
  00011	89 75 e8	 mov	 DWORD PTR _this$[ebp], esi

; 678  : 	m_vInventoryItemInfoList.clear();

  00014	8d be 90 01 00
	00		 lea	 edi, DWORD PTR [esi+400]
  0001a	8b 47 04	 mov	 eax, DWORD PTR [edi+4]
  0001d	8b 0f		 mov	 ecx, DWORD PTR [edi]
  0001f	50		 push	 eax
  00020	51		 push	 ecx
  00021	8d 45 ec	 lea	 eax, DWORD PTR $T513574[ebp]
  00024	50		 push	 eax
  00025	8b cf		 mov	 ecx, edi
  00027	e8 00 00 00 00	 call	 ?erase@?$vector@UtagInventoryItemInfo@@V?$allocator@UtagInventoryItemInfo@@@std@@@std@@QAE?AV?$_Vector_iterator@V?$_Vector_val@UtagInventoryItemInfo@@V?$allocator@UtagInventoryItemInfo@@@std@@@std@@@2@V?$_Vector_const_iterator@V?$_Vector_val@UtagInventoryItemInfo@@V?$allocator@UtagInventoryItemInfo@@@std@@@std@@@2@0@Z ; std::vector<tagInventoryItemInfo,std::allocator<tagInventoryItemInfo> >::erase

; 679  : 
; 680  : 	ioUserExtraItem *pItem = g_MyInfo.GetUserExtraItem();

  0002c	e8 00 00 00 00	 call	 ?GetSingleton@ioMyInfo@@SAAAV1@XZ ; ioMyInfo::GetSingleton
  00031	05 ac 01 00 00	 add	 eax, 428		; 000001acH
  00036	89 45 e0	 mov	 DWORD PTR _pItem$[ebp], eax

; 681  : 	if( !pItem ) return;

  00039	0f 84 52 01 00
	00		 je	 $LN1@SetExtraIt

; 682  : 
; 683  : 	int iSize = pItem->GetExtraItemCnt();

  0003f	8b c8		 mov	 ecx, eax
  00041	e8 00 00 00 00	 call	 ?GetExtraItemCnt@ioUserExtraItem@@QAEHXZ ; ioUserExtraItem::GetExtraItemCnt

; 684  : 	for( int i=0; i < iSize; ++i )

  00046	83 65 f0 00	 and	 DWORD PTR _i$508243[ebp], 0
  0004a	89 45 ec	 mov	 DWORD PTR _iSize$[ebp], eax
  0004d	85 c0		 test	 eax, eax
  0004f	0f 8e 15 01 00
	00		 jle	 $LN10@SetExtraIt
$LL12@SetExtraIt:

; 685  : 	{
; 686  : 		EXTRAITEMSLOT kSlot;

  00055	8d 4d 98	 lea	 ecx, DWORD PTR _kSlot$508247[ebp]
  00058	e8 00 00 00 00	 call	 ??0EXTRAITEMSLOT@@QAE@XZ ; EXTRAITEMSLOT::EXTRAITEMSLOT

; 687  : 		if( !pItem->GetExtraItemArray( i, kSlot ) )

  0005d	8b 4d e0	 mov	 ecx, DWORD PTR _pItem$[ebp]
  00060	83 65 fc 00	 and	 DWORD PTR __$EHRec$[ebp+8], 0
  00064	8d 45 98	 lea	 eax, DWORD PTR _kSlot$508247[ebp]
  00067	50		 push	 eax
  00068	ff 75 f0	 push	 DWORD PTR _i$508243[ebp]
  0006b	e8 00 00 00 00	 call	 ?GetExtraItemArray@ioUserExtraItem@@QAE_NHAAUEXTRAITEMSLOT@@@Z ; ioUserExtraItem::GetExtraItemArray
  00070	84 c0		 test	 al, al
  00072	75 11		 jne	 SHORT $LN9@SetExtraIt
$LN84@SetExtraIt:

; 688  : 			continue;

  00074	83 4d fc ff	 or	 DWORD PTR __$EHRec$[ebp+8], -1
  00078	8d 4d 98	 lea	 ecx, DWORD PTR _kSlot$508247[ebp]
  0007b	e8 00 00 00 00	 call	 ??1EXTRAITEMSLOT@@QAE@XZ
  00080	e9 d6 00 00 00	 jmp	 $LN11@SetExtraIt
$LN9@SetExtraIt:

; 689  : 
; 690  : 		if( kSlot.m_PeriodType != EPT_MORTMAIN )

  00085	83 7d a4 01	 cmp	 DWORD PTR _kSlot$508247[ebp+12], 1

; 691  : 			continue;

  00089	75 e9		 jne	 SHORT $LN84@SetExtraIt

; 692  : 
; 693  : 		if( kSlot.m_iTradeState != EET_ENABLE )

  0008b	83 7d b0 02	 cmp	 DWORD PTR _kSlot$508247[ebp+24], 2

; 694  : 			continue;

  0008f	75 e3		 jne	 SHORT $LN84@SetExtraIt

; 695  : 
; 696  : 		int iGroup = kSlot.m_iItemCode/DEFAULT_BASIC_ITEM_CODE + 1;

  00091	8b 45 98	 mov	 eax, DWORD PTR _kSlot$508247[ebp]
  00094	99		 cdq
  00095	b9 a0 86 01 00	 mov	 ecx, 100000		; 000186a0H
  0009a	f7 f9		 idiv	 ecx

; 697  : 		if( !IsRightTab( dwTabID, iGroup ) )

  0009c	8b ce		 mov	 ecx, esi
  0009e	40		 inc	 eax
  0009f	50		 push	 eax
  000a0	ff 75 08	 push	 DWORD PTR _dwTabID$[ebp]
  000a3	e8 00 00 00 00	 call	 ?IsRightTab@TradeItemRegisterWnd@@IAE_NKH@Z ; TradeItemRegisterWnd::IsRightTab
  000a8	84 c0		 test	 al, al

; 698  : 			continue;

  000aa	74 c8		 je	 SHORT $LN84@SetExtraIt

; 699  : 
; 700  : 		if( kSlot.m_bCharEquip )

  000ac	80 7d be 00	 cmp	 BYTE PTR _kSlot$508247[ebp+38], 0

; 701  : 			continue;

  000b0	75 c2		 jne	 SHORT $LN84@SetExtraIt

; 702  : 
; 703  : 		InventoryItemInfo kInfo;

  000b2	8d 8d 70 ff ff
	ff		 lea	 ecx, DWORD PTR _kInfo$508254[ebp+36]
  000b8	ff 15 00 00 00
	00		 call	 DWORD PTR __imp_??0ioHashString@@QAE@XZ
  000be	8d 8d 4c ff ff
	ff		 lea	 ecx, DWORD PTR _kInfo$508254[ebp]
  000c4	e8 00 00 00 00	 call	 ?Init@tagInventoryItemInfo@@QAEXXZ ; tagInventoryItemInfo::Init

; 704  : 		kInfo.m_iMainType = INVENTORY_ITEM_EXTRAITEM;
; 705  : 		kInfo.m_iMagicCode = kSlot.m_iIndex;

  000c9	8b 45 a0	 mov	 eax, DWORD PTR _kSlot$508247[ebp+8]
  000cc	89 85 50 ff ff
	ff		 mov	 DWORD PTR _kInfo$508254[ebp+4], eax

; 706  : 		kInfo.m_bEquip = kSlot.m_bCharEquip;
; 707  : 
; 708  : 		int iSlot = kSlot.m_iItemCode/DEFAULT_BASIC_ITEM_CODE;

  000d2	8b 45 98	 mov	 eax, DWORD PTR _kSlot$508247[ebp]
  000d5	99		 cdq
  000d6	be a0 86 01 00	 mov	 esi, 100000		; 000186a0H
  000db	f7 fe		 idiv	 esi
  000dd	8a 4d be	 mov	 cl, BYTE PTR _kSlot$508247[ebp+38]
  000e0	c6 45 fc 01	 mov	 BYTE PTR __$EHRec$[ebp+8], 1
  000e4	c7 85 4c ff ff
	ff 01 00 00 00	 mov	 DWORD PTR _kInfo$508254[ebp], 1
  000ee	88 8d 60 ff ff
	ff		 mov	 BYTE PTR _kInfo$508254[ebp+20], cl
  000f4	8b f0		 mov	 esi, eax

; 709  : 		int iValue = kSlot.m_iReinforce;

  000f6	8b 45 9c	 mov	 eax, DWORD PTR _kSlot$508247[ebp+4]
  000f9	89 45 e4	 mov	 DWORD PTR _iValue$508256[ebp], eax

; 710  : 
; 711  : 		if( !kSlot.m_bCharEquip )

  000fc	84 c9		 test	 cl, cl
  000fe	75 1d		 jne	 SHORT $LN4@SetExtraIt

; 712  : 			iValue += FLOAT100;

  00100	b8 64 00 00 00	 mov	 eax, 100		; 00000064H
  00105	89 45 94	 mov	 DWORD PTR tv444[ebp], eax
  00108	db 45 94	 fild	 DWORD PTR tv444[ebp]
  0010b	85 c0		 test	 eax, eax
  0010d	79 06		 jns	 SHORT $LN83@SetExtraIt
  0010f	d8 05 00 00 00
	00		 fadd	 DWORD PTR __real@4f800000
$LN83@SetExtraIt:
  00115	da 45 e4	 fiadd	 DWORD PTR _iValue$508256[ebp]
  00118	e8 00 00 00 00	 call	 __ftol2_sse
$LN4@SetExtraIt:

; 713  : 
; 714  : 		kInfo.m_iPriorityOrder = iSlot * 10000 + iValue;

  0011d	69 f6 10 27 00
	00		 imul	 esi, 10000		; 00002710H
  00123	03 f0		 add	 esi, eax

; 715  : 		kInfo.m_iPriorityOrder2 = kSlot.m_iItemCode;

  00125	8b 45 98	 mov	 eax, DWORD PTR _kSlot$508247[ebp]
  00128	89 45 90	 mov	 DWORD PTR _kInfo$508254[ebp+68], eax

; 716  : 
; 717  : 		m_vInventoryItemInfoList.push_back( kInfo );

  0012b	8d 85 4c ff ff
	ff		 lea	 eax, DWORD PTR _kInfo$508254[ebp]
  00131	50		 push	 eax
  00132	8b cf		 mov	 ecx, edi
  00134	89 75 8c	 mov	 DWORD PTR _kInfo$508254[ebp+64], esi
  00137	e8 00 00 00 00	 call	 ?push_back@?$vector@UtagInventoryItemInfo@@V?$allocator@UtagInventoryItemInfo@@@std@@@std@@QAEXABUtagInventoryItemInfo@@@Z ; std::vector<tagInventoryItemInfo,std::allocator<tagInventoryItemInfo> >::push_back

; 718  : 	}

  0013c	8d 8d 70 ff ff
	ff		 lea	 ecx, DWORD PTR _kInfo$508254[ebp+36]
  00142	c6 45 fc 00	 mov	 BYTE PTR __$EHRec$[ebp+8], 0
  00146	ff 15 00 00 00
	00		 call	 DWORD PTR __imp_??1ioHashString@@QAE@XZ
  0014c	83 4d fc ff	 or	 DWORD PTR __$EHRec$[ebp+8], -1
  00150	8d 4d 98	 lea	 ecx, DWORD PTR _kSlot$508247[ebp]
  00153	e8 00 00 00 00	 call	 ??1EXTRAITEMSLOT@@QAE@XZ
  00158	8b 75 e8	 mov	 esi, DWORD PTR _this$[ebp]
$LN11@SetExtraIt:

; 684  : 	for( int i=0; i < iSize; ++i )

  0015b	ff 45 f0	 inc	 DWORD PTR _i$508243[ebp]
  0015e	8b 45 f0	 mov	 eax, DWORD PTR _i$508243[ebp]
  00161	3b 45 ec	 cmp	 eax, DWORD PTR _iSize$[ebp]
  00164	0f 8c eb fe ff
	ff		 jl	 $LL12@SetExtraIt
$LN10@SetExtraIt:

; 719  : 
; 720  : 	if( m_vInventoryItemInfoList.empty() )

  0016a	8b 07		 mov	 eax, DWORD PTR [edi]
  0016c	3b 47 04	 cmp	 eax, DWORD PTR [edi+4]
  0016f	74 20		 je	 SHORT $LN1@SetExtraIt

; 721  : 		return;
; 722  : 
; 723  : 	//     .
; 724  : 	if( dwTabID == ID_TAB_1_BTN )	// 

  00171	83 7d 08 65	 cmp	 DWORD PTR _dwTabID$[ebp], 101 ; 00000065H

; 725  : 	{
; 726  : 		// m_iMagicCode  
; 727  : 		std::sort( m_vInventoryItemInfoList.begin(), m_vInventoryItemInfoList.end(), InventoryItemInfoSort2() );

  00175	ff 75 08	 push	 DWORD PTR $T513505[ebp]
  00178	8b b6 94 01 00
	00		 mov	 esi, DWORD PTR [esi+404]
  0017e	56		 push	 esi
  0017f	50		 push	 eax
  00180	75 07		 jne	 SHORT $LN2@SetExtraIt
  00182	e8 00 00 00 00	 call	 ??$sort@V?$_Vector_iterator@V?$_Vector_val@UtagInventoryItemInfo@@V?$allocator@UtagInventoryItemInfo@@@std@@@std@@@std@@VInventoryItemInfoSort2@@@std@@YAXV?$_Vector_iterator@V?$_Vector_val@UtagInventoryItemInfo@@V?$allocator@UtagInventoryItemInfo@@@std@@@std@@@0@0VInventoryItemInfoSort2@@@Z ; std::sort<std::_Vector_iterator<std::_Vector_val<tagInventoryItemInfo,std::allocator<tagInventoryItemInfo> > >,InventoryItemInfoSort2>

; 728  : 	}
; 729  : 	else

  00187	eb 05		 jmp	 SHORT $LN85@SetExtraIt
$LN2@SetExtraIt:

; 730  : 	{
; 731  : 		std::sort( m_vInventoryItemInfoList.begin(), m_vInventoryItemInfoList.end(), InventoryItemInfoSort3() );

  00189	e8 00 00 00 00	 call	 ??$sort@V?$_Vector_iterator@V?$_Vector_val@UtagInventoryItemInfo@@V?$allocator@UtagInventoryItemInfo@@@std@@@std@@@std@@VInventoryItemInfoSort3@@@std@@YAXV?$_Vector_iterator@V?$_Vector_val@UtagInventoryItemInfo@@V?$allocator@UtagInventoryItemInfo@@@std@@@std@@@0@0VInventoryItemInfoSort3@@@Z ; std::sort<std::_Vector_iterator<std::_Vector_val<tagInventoryItemInfo,std::allocator<tagInventoryItemInfo> > >,InventoryItemInfoSort3>
$LN85@SetExtraIt:
  0018e	83 c4 0c	 add	 esp, 12			; 0000000cH
$LN1@SetExtraIt:

; 732  : 	}
; 733  : }

  00191	e8 00 00 00 00	 call	 __EH_epilog3
  00196	c2 04 00	 ret	 4
_TEXT	ENDS
;	COMDAT text$x
text$x	SEGMENT
__unwindfunclet$?SetExtraItemInfoVec@TradeItemRegisterWnd@@IAEXK@Z$0:
  00000	8d 4d 98	 lea	 ecx, DWORD PTR _kSlot$508247[ebp]
  00003	e9 00 00 00 00	 jmp	 ??1EXTRAITEMSLOT@@QAE@XZ
__unwindfunclet$?SetExtraItemInfoVec@TradeItemRegisterWnd@@IAEXK@Z$1:
  00008	8d 8d 4c ff ff
	ff		 lea	 ecx, DWORD PTR _kInfo$508254[ebp]
  0000e	e9 00 00 00 00	 jmp	 ??1tagInventoryItemInfo@@QAE@XZ
__ehhandler$?SetExtraItemInfoVec@TradeItemRegisterWnd@@IAEXK@Z:
  00013	8b 54 24 08	 mov	 edx, DWORD PTR [esp+8]
  00017	8d 42 0c	 lea	 eax, DWORD PTR [edx+12]
  0001a	8b 8a 48 ff ff
	ff		 mov	 ecx, DWORD PTR [edx-184]
  00020	33 c8		 xor	 ecx, eax
  00022	e8 00 00 00 00	 call	 @__security_check_cookie@4
  00027	b8 00 00 00 00	 mov	 eax, OFFSET __ehfuncinfo$?SetExtraItemInfoVec@TradeItemRegisterWnd@@IAEXK@Z
  0002c	e9 00 00 00 00	 jmp	 ___CxxFrameHandler3
text$x	ENDS
?SetExtraItemInfoVec@TradeItemRegisterWnd@@IAEXK@Z ENDP	; TradeItemRegisterWnd::SetExtraItemInfoVec
PUBLIC	?ChangeTab@TradeItemRegisterWnd@@IAEXK@Z	; TradeItemRegisterWnd::ChangeTab
EXTRN	__imp_?CheckRadioButton@ioWnd@@QAEXKKK@Z:PROC
; Function compile flags: /Ogsp
;	COMDAT ?ChangeTab@TradeItemRegisterWnd@@IAEXK@Z
_TEXT	SEGMENT
_dwID$ = 8						; size = 4
?ChangeTab@TradeItemRegisterWnd@@IAEXK@Z PROC		; TradeItemRegisterWnd::ChangeTab, COMDAT
; _this$ = ecx

; 653  : {

  00000	55		 push	 ebp
  00001	8b ec		 mov	 ebp, esp
  00003	56		 push	 esi
  00004	57		 push	 edi

; 654  : 	CheckRadioButton( ID_TAB_1_BTN, ID_TAB_5_BTN, dwID );

  00005	8b 7d 08	 mov	 edi, DWORD PTR _dwID$[ebp]
  00008	57		 push	 edi
  00009	6a 69		 push	 105			; 00000069H
  0000b	6a 65		 push	 101			; 00000065H
  0000d	8b f1		 mov	 esi, ecx
  0000f	ff 15 00 00 00
	00		 call	 DWORD PTR __imp_?CheckRadioButton@ioWnd@@QAEXKKK@Z

; 655  : 	m_dwCurTabID = dwID;
; 656  : 
; 657  : 	SetExtraItemInfoVec( m_dwCurTabID );

  00015	57		 push	 edi
  00016	8b ce		 mov	 ecx, esi
  00018	89 be a4 01 00
	00		 mov	 DWORD PTR [esi+420], edi
  0001e	e8 00 00 00 00	 call	 ?SetExtraItemInfoVec@TradeItemRegisterWnd@@IAEXK@Z ; TradeItemRegisterWnd::SetExtraItemInfoVec

; 658  : 
; 659  : 	m_iCurPage = 0;

  00023	83 a6 a0 01 00
	00 00		 and	 DWORD PTR [esi+416], 0

; 660  : 
; 661  : 	ioScroll *pScroll = (ioScroll*)FindChildWnd( ID_VERT_SCROLL );

  0002a	68 e9 03 00 00	 push	 1001			; 000003e9H
  0002f	8b ce		 mov	 ecx, esi
  00031	ff 15 00 00 00
	00		 call	 DWORD PTR __imp_?FindChildWnd@ioWnd@@QAEPAV1@K@Z
  00037	8b f8		 mov	 edi, eax

; 662  : 	if( pScroll )

  00039	85 ff		 test	 edi, edi
  0003b	74 59		 je	 SHORT $LN2@ChangeTab

; 663  : 	{
; 664  : 		int iItemSize = m_vInventoryItemInfoList.size();

  0003d	8b 86 94 01 00
	00		 mov	 eax, DWORD PTR [esi+404]
  00043	2b 86 90 01 00
	00		 sub	 eax, DWORD PTR [esi+400]
  00049	53		 push	 ebx
  0004a	99		 cdq
  0004b	6a 48		 push	 72			; 00000048H
  0004d	59		 pop	 ecx
  0004e	f7 f9		 idiv	 ecx
  00050	8b c8		 mov	 ecx, eax

; 665  : 
; 666  : 		int iMaxPos =  iItemSize / PAGE_PER_ITEM_NUM;

  00052	99		 cdq
  00053	83 e2 03	 and	 edx, 3
  00056	8d 1c 02	 lea	 ebx, DWORD PTR [edx+eax]
  00059	c1 fb 02	 sar	 ebx, 2

; 667  : 		if( iItemSize % PAGE_PER_ITEM_NUM )

  0005c	81 e1 03 00 00
	80		 and	 ecx, -2147483645	; 80000003H
  00062	79 05		 jns	 SHORT $LN7@ChangeTab
  00064	49		 dec	 ecx
  00065	83 c9 fc	 or	 ecx, -4			; fffffffcH
  00068	41		 inc	 ecx
$LN7@ChangeTab:
  00069	74 01		 je	 SHORT $LN1@ChangeTab

; 668  : 			iMaxPos++;

  0006b	43		 inc	 ebx
$LN1@ChangeTab:

; 669  : 
; 670  : 		pScroll->SetPageRange(2);

  0006c	8b 07		 mov	 eax, DWORD PTR [edi]
  0006e	6a 02		 push	 2
  00070	8b cf		 mov	 ecx, edi
  00072	ff 90 34 01 00
	00		 call	 DWORD PTR [eax+308]

; 671  : 		pScroll->SetScrollRange( 0, iMaxPos );

  00078	8b 07		 mov	 eax, DWORD PTR [edi]
  0007a	53		 push	 ebx
  0007b	6a 00		 push	 0
  0007d	8b cf		 mov	 ecx, edi
  0007f	ff 90 30 01 00
	00		 call	 DWORD PTR [eax+304]

; 672  : 		pScroll->SetScrollPos( m_iCurPage );

  00085	ff b6 a0 01 00
	00		 push	 DWORD PTR [esi+416]
  0008b	8b 07		 mov	 eax, DWORD PTR [edi]
  0008d	8b cf		 mov	 ecx, edi
  0008f	ff 90 38 01 00
	00		 call	 DWORD PTR [eax+312]
  00095	5b		 pop	 ebx
$LN2@ChangeTab:
  00096	5f		 pop	 edi
  00097	5e		 pop	 esi

; 673  : 	}
; 674  : }

  00098	5d		 pop	 ebp
  00099	c2 04 00	 ret	 4
?ChangeTab@TradeItemRegisterWnd@@IAEXK@Z ENDP		; TradeItemRegisterWnd::ChangeTab
_TEXT	ENDS
PUBLIC	??_C@_0BP@ELLMJLIL@TradeItemRegisterWnd?3?3iwm_show?$AA@ ; `string'
PUBLIC	__$ArrayPad$
EXTRN	?SetMsgBox@ioSP2GUIManager@@QAAXHPAVioWnd@@PBDZZ:PROC ; ioSP2GUIManager::SetMsgBox
EXTRN	?GetGradeName@ioMyLevelMgr@@QBEXHPADH_N1@Z:PROC	; ioMyLevelMgr::GetGradeName
EXTRN	?GetSingleton@ioMyLevelMgr@@SAAAV1@XZ:PROC	; ioMyLevelMgr::GetSingleton
EXTRN	?GetGradeLevel@ioMyInfo@@QAEHXZ:PROC		; ioMyInfo::GetGradeLevel
;	COMDAT ??_C@_0BP@ELLMJLIL@TradeItemRegisterWnd?3?3iwm_show?$AA@
; File c:\program files (x86)\microsoft visual studio 10.0\vc\include\vector
CONST	SEGMENT
??_C@_0BP@ELLMJLIL@TradeItemRegisterWnd?3?3iwm_show?$AA@ DB 'TradeItemReg'
	DB	'isterWnd::iwm_show', 00H			; `string'
; Function compile flags: /Ogsp
; File d:\lost saga for developer\youtube\tutorial\source\src\lsclient\gui\tradeitemregisterwnd.cpp
CONST	ENDS
;	COMDAT ?iwm_show@TradeItemRegisterWnd@@UAEXXZ
_TEXT	SEGMENT
_value$513743 = -268					; size = 4
_szName$508136 = -264					; size = 260
__$ArrayPad$ = -4					; size = 4
?iwm_show@TradeItemRegisterWnd@@UAEXXZ PROC		; TradeItemRegisterWnd::iwm_show, COMDAT
; _this$ = ecx

; 484  : {

  00000	55		 push	 ebp
  00001	8b ec		 mov	 ebp, esp
  00003	81 ec 0c 01 00
	00		 sub	 esp, 268		; 0000010cH
  00009	a1 00 00 00 00	 mov	 eax, DWORD PTR ___security_cookie
  0000e	33 c5		 xor	 eax, ebp
  00010	89 45 fc	 mov	 DWORD PTR __$ArrayPad$[ebp], eax
  00013	53		 push	 ebx
  00014	56		 push	 esi

; 485  : 	ChangeTab( ID_TAB_1_BTN );

  00015	6a 65		 push	 101			; 00000065H
  00017	8b f1		 mov	 esi, ecx
  00019	e8 00 00 00 00	 call	 ?ChangeTab@TradeItemRegisterWnd@@IAEXK@Z ; TradeItemRegisterWnd::ChangeTab

; 486  : 
; 487  : 	if( g_MyInfo.GetGradeLevel() < g_TradeInfoMgr.GetTradeStateChangeLevel() )

  0001e	e8 00 00 00 00	 call	 ?GetSingleton@TradeInfoManager@@SAAAV1@XZ ; TradeInfoManager::GetSingleton
  00023	8d 8d f4 fe ff
	ff		 lea	 ecx, DWORD PTR _value$513743[ebp]
  00029	51		 push	 ecx
  0002a	8d 48 38	 lea	 ecx, DWORD PTR [eax+56]
  0002d	e8 00 00 00 00	 call	 ?DecryptValueToPool@?$CEncrypt@H@@QAEXPAH@Z ; CEncrypt<int>::DecryptValueToPool
  00032	e8 00 00 00 00	 call	 ?GetSingleton@ioMyInfo@@SAAAV1@XZ ; ioMyInfo::GetSingleton
  00037	8b c8		 mov	 ecx, eax
  00039	e8 00 00 00 00	 call	 ?GetGradeLevel@ioMyInfo@@QAEHXZ ; ioMyInfo::GetGradeLevel
  0003e	3b 85 f4 fe ff
	ff		 cmp	 eax, DWORD PTR _value$513743[ebp]
  00044	7d 7c		 jge	 SHORT $LN2@iwm_show

; 488  : 	{
; 489  : 		HideWnd();

  00046	8b ce		 mov	 ecx, esi
  00048	ff 15 00 00 00
	00		 call	 DWORD PTR __imp_?HideWnd@ioWnd@@QAEXXZ

; 490  : 
; 491  : 		char szName[MAX_PATH] = "";

  0004e	33 db		 xor	 ebx, ebx
  00050	68 03 01 00 00	 push	 259			; 00000103H
  00055	8d 85 f9 fe ff
	ff		 lea	 eax, DWORD PTR _szName$508136[ebp+1]
  0005b	53		 push	 ebx
  0005c	50		 push	 eax
  0005d	88 9d f8 fe ff
	ff		 mov	 BYTE PTR _szName$508136[ebp], bl
  00063	e8 00 00 00 00	 call	 _memset
  00068	83 c4 0c	 add	 esp, 12			; 0000000cH

; 492  : 		g_LevelMgr.GetGradeName( g_TradeInfoMgr.GetRegisterLimitLv(), szName, sizeof( szName ), false );

  0006b	e8 00 00 00 00	 call	 ?GetSingleton@TradeInfoManager@@SAAAV1@XZ ; TradeInfoManager::GetSingleton
  00070	8b 40 68	 mov	 eax, DWORD PTR [eax+104]
  00073	6a 01		 push	 1
  00075	53		 push	 ebx
  00076	68 04 01 00 00	 push	 260			; 00000104H
  0007b	8d 8d f8 fe ff
	ff		 lea	 ecx, DWORD PTR _szName$508136[ebp]
  00081	51		 push	 ecx
  00082	50		 push	 eax
  00083	e8 00 00 00 00	 call	 ?GetSingleton@ioMyLevelMgr@@SAAAV1@XZ ; ioMyLevelMgr::GetSingleton
  00088	8b c8		 mov	 ecx, eax
  0008a	e8 00 00 00 00	 call	 ?GetGradeName@ioMyLevelMgr@@QBEXHPADH_N1@Z ; ioMyLevelMgr::GetGradeName

; 493  : 		g_GUIMgr.SetMsgBox( MB_OK, NULL, STR(1), szName );

  0008f	8d 85 f8 fe ff
	ff		 lea	 eax, DWORD PTR _szName$508136[ebp]
  00095	50		 push	 eax
  00096	53		 push	 ebx
  00097	6a 01		 push	 1
  00099	68 00 00 00 00	 push	 OFFSET ??_C@_00CNPNBAHC@?$AA@
  0009e	68 00 00 00 00	 push	 OFFSET ??_C@_0BP@ELLMJLIL@TradeItemRegisterWnd?3?3iwm_show?$AA@
  000a3	ff 15 00 00 00
	00		 call	 DWORD PTR __imp_?GetSingleton@ioStringManager@@SAAAV1@XZ
  000a9	8b c8		 mov	 ecx, eax
  000ab	ff 15 00 00 00
	00		 call	 DWORD PTR __imp_?GetString@ioStringManager@@QAEPADPBD0HW4FileNamePrefix@1@@Z
  000b1	50		 push	 eax
  000b2	53		 push	 ebx
  000b3	53		 push	 ebx
  000b4	e8 00 00 00 00	 call	 ?GetSingleton@ioSP2GUIManager@@SAAAV1@XZ ; ioSP2GUIManager::GetSingleton
  000b9	8b c8		 mov	 ecx, eax
  000bb	e8 00 00 00 00	 call	 ?SetMsgBox@ioSP2GUIManager@@QAEXHPAVioWnd@@PBD1@Z ; ioSP2GUIManager::SetMsgBox

; 494  : 		return;

  000c0	eb 44		 jmp	 SHORT $LN1@iwm_show
$LN2@iwm_show:

; 495  : 	}
; 496  : 
; 497  : 	if( m_vInventoryItemInfoList.empty() )

  000c2	8b 8e 90 01 00
	00		 mov	 ecx, DWORD PTR [esi+400]
  000c8	3b 8e 94 01 00
	00		 cmp	 ecx, DWORD PTR [esi+404]
  000ce	75 36		 jne	 SHORT $LN1@iwm_show

; 498  : 	{
; 499  : 		HideWnd();

  000d0	8b ce		 mov	 ecx, esi
  000d2	ff 15 00 00 00
	00		 call	 DWORD PTR __imp_?HideWnd@ioWnd@@QAEXXZ

; 500  : 		g_GUIMgr.SetMsgBox( MB_OK, NULL, STR(2) );

  000d8	33 db		 xor	 ebx, ebx
  000da	53		 push	 ebx
  000db	6a 02		 push	 2
  000dd	68 00 00 00 00	 push	 OFFSET ??_C@_00CNPNBAHC@?$AA@
  000e2	68 00 00 00 00	 push	 OFFSET ??_C@_0BP@ELLMJLIL@TradeItemRegisterWnd?3?3iwm_show?$AA@
  000e7	ff 15 00 00 00
	00		 call	 DWORD PTR __imp_?GetSingleton@ioStringManager@@SAAAV1@XZ
  000ed	8b c8		 mov	 ecx, eax
  000ef	ff 15 00 00 00
	00		 call	 DWORD PTR __imp_?GetString@ioStringManager@@QAEPADPBD0HW4FileNamePrefix@1@@Z
  000f5	50		 push	 eax
  000f6	53		 push	 ebx
  000f7	53		 push	 ebx
  000f8	e8 00 00 00 00	 call	 ?GetSingleton@ioSP2GUIManager@@SAAAV1@XZ ; ioSP2GUIManager::GetSingleton
  000fd	50		 push	 eax
  000fe	e8 00 00 00 00	 call	 ?SetMsgBox@ioSP2GUIManager@@QAAXHPAVioWnd@@PBDZZ ; ioSP2GUIManager::SetMsgBox
  00103	83 c4 10	 add	 esp, 16			; 00000010H
$LN1@iwm_show:

; 501  : 		return;
; 502  : 	}
; 503  : }

  00106	8b 4d fc	 mov	 ecx, DWORD PTR __$ArrayPad$[ebp]
  00109	5e		 pop	 esi
  0010a	33 cd		 xor	 ecx, ebp
  0010c	5b		 pop	 ebx
  0010d	e8 00 00 00 00	 call	 @__security_check_cookie@4
  00112	c9		 leave
  00113	c3		 ret	 0
?iwm_show@TradeItemRegisterWnd@@UAEXXZ ENDP		; TradeItemRegisterWnd::iwm_show
; Function compile flags: /Ogsp
_TEXT	ENDS
;	COMDAT ?iwm_command@TradeItemRegisterWnd@@UAEXPAVioWnd@@HK@Z
_TEXT	SEGMENT
_this$ = -4						; size = 4
_pWnd$ = 8						; size = 4
_cmd$ = 12						; size = 4
_param$ = 16						; size = 4
?iwm_command@TradeItemRegisterWnd@@UAEXPAVioWnd@@HK@Z PROC ; TradeItemRegisterWnd::iwm_command, COMDAT
; _this$ = ecx

; 553  : {

  00000	55		 push	 ebp
  00001	8b ec		 mov	 ebp, esp
  00003	51		 push	 ecx
  00004	89 4d fc	 mov	 DWORD PTR _this$[ebp], ecx

; 554  : 	DWORD dwID = pWnd->GetID();

  00007	8b 4d 08	 mov	 ecx, DWORD PTR _pWnd$[ebp]
  0000a	53		 push	 ebx
  0000b	ff 15 00 00 00
	00		 call	 DWORD PTR __imp_?GetID@ioWnd@@QBEKXZ

; 555  : 	switch( dwID )

  00011	83 f8 01	 cmp	 eax, 1
  00014	0f 84 ae 00 00
	00		 je	 $LN9@iwm_comman@3
  0001a	83 f8 64	 cmp	 eax, 100		; 00000064H
  0001d	0f 86 b4 00 00
	00		 jbe	 $LN8@iwm_comman@3
  00023	83 f8 69	 cmp	 eax, 105		; 00000069H
  00026	0f 86 8b 00 00
	00		 jbe	 $LN7@iwm_comman@3
  0002c	3d c8 00 00 00	 cmp	 eax, 200		; 000000c8H
  00031	0f 86 a0 00 00
	00		 jbe	 $LN8@iwm_comman@3
  00037	3d d0 00 00 00	 cmp	 eax, 208		; 000000d0H
  0003c	0f 87 95 00 00
	00		 ja	 $LN8@iwm_comman@3

; 573  : 	case ID_ITEM_INFO_WND_1_BTN:
; 574  : 	case ID_ITEM_INFO_WND_2_BTN:
; 575  : 	case ID_ITEM_INFO_WND_3_BTN:
; 576  : 	case ID_ITEM_INFO_WND_4_BTN:
; 577  : 	case ID_ITEM_INFO_WND_5_BTN:
; 578  : 	case ID_ITEM_INFO_WND_6_BTN:
; 579  : 	case ID_ITEM_INFO_WND_7_BTN:
; 580  : 	case ID_ITEM_INFO_WND_8_BTN:
; 581  : 		if( cmd == IOBN_BTNUP )

  00042	83 7d 0c 11	 cmp	 DWORD PTR _cmd$[ebp], 17 ; 00000011H
  00046	0f 85 8b 00 00
	00		 jne	 $LN8@iwm_comman@3

; 582  : 		{
; 583  : 			if( param == TradeItemInfoWnd::ID_ACTION_BTN )

  0004c	83 7d 10 02	 cmp	 DWORD PTR _param$[ebp], 2
  00050	0f 85 81 00 00
	00		 jne	 $LN8@iwm_comman@3

; 584  : 			{
; 585  : 				int iSlotIndex = 0;
; 586  : 				TradeItemInfoWnd *pInfoWnd = dynamic_cast<TradeItemInfoWnd*>(FindChildWnd(dwID));

  00056	8b 4d fc	 mov	 ecx, DWORD PTR _this$[ebp]
  00059	56		 push	 esi
  0005a	33 db		 xor	 ebx, ebx
  0005c	53		 push	 ebx
  0005d	68 00 00 00 00	 push	 OFFSET ??_R0?AVTradeItemInfoWnd@@@8
  00062	be 00 00 00 00	 mov	 esi, OFFSET ??_R0?AVioWnd@@@8
  00067	56		 push	 esi
  00068	53		 push	 ebx
  00069	50		 push	 eax
  0006a	ff 15 00 00 00
	00		 call	 DWORD PTR __imp_?FindChildWnd@ioWnd@@QAEPAV1@K@Z
  00070	50		 push	 eax
  00071	e8 00 00 00 00	 call	 ___RTDynamicCast
  00076	83 c4 14	 add	 esp, 20			; 00000014H

; 587  : 				if( pInfoWnd )

  00079	85 c0		 test	 eax, eax
  0007b	74 06		 je	 SHORT $LN14@iwm_comman@3

; 588  : 				{
; 589  : 					iSlotIndex = pInfoWnd->GetExtraItemIndex();

  0007d	8b 98 ac 02 00
	00		 mov	 ebx, DWORD PTR [eax+684]
$LN14@iwm_comman@3:

; 590  : 				}
; 591  : 
; 592  : 				// 
; 593  : 				TradeItemRegisterConfirmWnd *pConfirmWnd = dynamic_cast<TradeItemRegisterConfirmWnd*>(g_GUIMgr.FindWnd(TRADE_REGISTER_CONFIRM_WND));

  00083	6a 00		 push	 0
  00085	68 00 00 00 00	 push	 OFFSET ??_R0?AVTradeItemRegisterConfirmWnd@@@8
  0008a	56		 push	 esi
  0008b	6a 00		 push	 0
  0008d	68 0c 18 00 00	 push	 6156			; 0000180cH
  00092	e8 00 00 00 00	 call	 ?GetSingleton@ioSP2GUIManager@@SAAAV1@XZ ; ioSP2GUIManager::GetSingleton
  00097	8b c8		 mov	 ecx, eax
  00099	ff 15 00 00 00
	00		 call	 DWORD PTR __imp_?FindWnd@ioGUIManager@@QAEPAVioWnd@@K@Z
  0009f	50		 push	 eax
  000a0	e8 00 00 00 00	 call	 ___RTDynamicCast
  000a5	83 c4 14	 add	 esp, 20			; 00000014H
  000a8	5e		 pop	 esi

; 594  : 				if( pConfirmWnd )

  000a9	85 c0		 test	 eax, eax
  000ab	74 2a		 je	 SHORT $LN8@iwm_comman@3

; 595  : 				{
; 596  : 					pConfirmWnd->SetRegisterItemInfo( iSlotIndex );

  000ad	53		 push	 ebx
  000ae	8b c8		 mov	 ecx, eax
  000b0	e8 00 00 00 00	 call	 ?SetRegisterItemInfo@TradeItemRegisterConfirmWnd@@QAEXH@Z ; TradeItemRegisterConfirmWnd::SetRegisterItemInfo

; 597  : 				}
; 598  : 			}
; 599  : 		}
; 600  : 		break;

  000b5	eb 20		 jmp	 SHORT $LN8@iwm_comman@3
$LN7@iwm_comman@3:

; 561  : 		}
; 562  : 		break;
; 563  : 	case ID_TAB_1_BTN:
; 564  : 	case ID_TAB_2_BTN:
; 565  : 	case ID_TAB_3_BTN:
; 566  : 	case ID_TAB_4_BTN:
; 567  : 	case ID_TAB_5_BTN:
; 568  : 		if( cmd == IOBN_BTNUP )

  000b7	83 7d 0c 11	 cmp	 DWORD PTR _cmd$[ebp], 17 ; 00000011H
  000bb	75 1a		 jne	 SHORT $LN8@iwm_comman@3

; 569  : 		{
; 570  : 			ChangeTab( dwID );

  000bd	8b 4d fc	 mov	 ecx, DWORD PTR _this$[ebp]
  000c0	50		 push	 eax
  000c1	e8 00 00 00 00	 call	 ?ChangeTab@TradeItemRegisterWnd@@IAEXK@Z ; TradeItemRegisterWnd::ChangeTab

; 571  : 		}
; 572  : 		break;

  000c6	eb 0f		 jmp	 SHORT $LN8@iwm_comman@3
$LN9@iwm_comman@3:

; 556  : 	{
; 557  : 	case ID_EXIT_BTN:
; 558  : 		if( cmd == IOBN_BTNUP )

  000c8	83 7d 0c 11	 cmp	 DWORD PTR _cmd$[ebp], 17 ; 00000011H
  000cc	75 09		 jne	 SHORT $LN8@iwm_comman@3

; 559  : 		{
; 560  : 			HideWnd();

  000ce	8b 4d fc	 mov	 ecx, DWORD PTR _this$[ebp]
  000d1	ff 15 00 00 00
	00		 call	 DWORD PTR __imp_?HideWnd@ioWnd@@QAEXXZ
$LN8@iwm_comman@3:
  000d7	5b		 pop	 ebx

; 601  : 	}
; 602  : }

  000d8	c9		 leave
  000d9	c2 0c 00	 ret	 12			; 0000000cH
?iwm_command@TradeItemRegisterWnd@@UAEXPAVioWnd@@HK@Z ENDP ; TradeItemRegisterWnd::iwm_command
_TEXT	ENDS
PUBLIC	?RegisterWndShow@TradeItemRegisterWnd@@QAEXXZ	; TradeItemRegisterWnd::RegisterWndShow
; Function compile flags: /Ogsp
;	COMDAT ?RegisterWndShow@TradeItemRegisterWnd@@QAEXXZ
_TEXT	SEGMENT
?RegisterWndShow@TradeItemRegisterWnd@@QAEXXZ PROC	; TradeItemRegisterWnd::RegisterWndShow, COMDAT
; _this$ = ecx

; 605  : {

  00000	56		 push	 esi
  00001	8b f1		 mov	 esi, ecx

; 606  : 	if( !IsShow() )

  00003	ff 15 00 00 00
	00		 call	 DWORD PTR __imp_?IsShow@ioWnd@@QBE_NXZ

; 607  : 	{
; 608  : 		ShowWnd();

  00009	8b ce		 mov	 ecx, esi
  0000b	84 c0		 test	 al, al
  0000d	75 07		 jne	 SHORT $LN3@RegisterWn
  0000f	5e		 pop	 esi
  00010	ff 25 00 00 00
	00		 jmp	 DWORD PTR __imp_?ShowWnd@ioWnd@@QAEXXZ
$LN3@RegisterWn:

; 609  : 	}
; 610  : 	else
; 611  : 	{
; 612  : 		ChangeTab( ID_TAB_1_BTN );

  00016	6a 65		 push	 101			; 00000065H
  00018	e8 00 00 00 00	 call	 ?ChangeTab@TradeItemRegisterWnd@@IAEXK@Z ; TradeItemRegisterWnd::ChangeTab

; 613  : 
; 614  : 		if( m_vInventoryItemInfoList.empty() )

  0001d	8b 8e 90 01 00
	00		 mov	 ecx, DWORD PTR [esi+400]
  00023	3b 8e 94 01 00
	00		 cmp	 ecx, DWORD PTR [esi+404]
  00029	75 09		 jne	 SHORT $LN1@RegisterWn

; 615  : 		{
; 616  : 			HideWnd();

  0002b	8b ce		 mov	 ecx, esi
  0002d	5e		 pop	 esi
  0002e	ff 25 00 00 00
	00		 jmp	 DWORD PTR __imp_?HideWnd@ioWnd@@QAEXXZ
$LN1@RegisterWn:
  00034	5e		 pop	 esi

; 617  : 			return;
; 618  : 		}
; 619  : 	}
; 620  : }

  00035	c3		 ret	 0
?RegisterWndShow@TradeItemRegisterWnd@@QAEXXZ ENDP	; TradeItemRegisterWnd::RegisterWndShow
_TEXT	ENDS
END
