; Listing generated by Microsoft (R) Optimizing Compiler Version 16.00.30319.01 

	TITLE	D:\Lost Saga For Developer\Youtube\Tutorial\Source\src\LSClient\GUI\TutorialWnd.cpp
	.686P
	.XMM
	include listing.inc
	.model	flat

INCLUDELIB MSVCRT
INCLUDELIB OLDNAMES

PUBLIC	?_EEM_DS@?$deque@UD3DXVECTOR3@@V?$allocator@UD3DXVECTOR3@@@std@@@std@@2HB ; std::deque<D3DXVECTOR3,std::allocator<D3DXVECTOR3> >::_EEM_DS
;	COMDAT ?_EEM_DS@?$deque@UD3DXVECTOR3@@V?$allocator@UD3DXVECTOR3@@@std@@@std@@2HB
CONST	SEGMENT
?_EEM_DS@?$deque@UD3DXVECTOR3@@V?$allocator@UD3DXVECTOR3@@@std@@@std@@2HB DD 01H ; std::deque<D3DXVECTOR3,std::allocator<D3DXVECTOR3> >::_EEM_DS
CONST	ENDS
PUBLIC	??0StringTick@TutorialWnd@@QAE@XZ		; TutorialWnd::StringTick::StringTick
EXTRN	_memset:PROC
; Function compile flags: /Ogsp
; File d:\lost saga for developer\youtube\tutorial\source\src\lsclient\gui\tutorialwnd.h
;	COMDAT ??0StringTick@TutorialWnd@@QAE@XZ
_TEXT	SEGMENT
??0StringTick@TutorialWnd@@QAE@XZ PROC			; TutorialWnd::StringTick::StringTick, COMDAT
; _this$ = ecx

; 64   : 		StringTick()

  00000	56		 push	 esi

; 65   : 		{
; 66   : 			memset( m_szCopyDesc, 0, sizeof( m_szCopyDesc ) );

  00001	68 04 01 00 00	 push	 260			; 00000104H
  00006	8b f1		 mov	 esi, ecx
  00008	6a 00		 push	 0
  0000a	56		 push	 esi
  0000b	e8 00 00 00 00	 call	 _memset
  00010	83 c4 0c	 add	 esp, 12			; 0000000cH

; 67   : 		}

  00013	8b c6		 mov	 eax, esi
  00015	5e		 pop	 esi
  00016	c3		 ret	 0
??0StringTick@TutorialWnd@@QAE@XZ ENDP			; TutorialWnd::StringTick::StringTick
_TEXT	ENDS
PUBLIC	?return1@@YAIXZ					; return1
; Function compile flags: /Ogsp
; File d:\lost saga for developer\youtube\tutorial\source\src\lsclient\stdafx.h
;	COMDAT ?return1@@YAIXZ
_TEXT	SEGMENT
?return1@@YAIXZ PROC					; return1, COMDAT

; 17   : 	__forceinline unsigned int return1() { __asm mov eax, 1 };

  00000	b8 01 00 00 00	 mov	 eax, 1
  00005	c3		 ret	 0
?return1@@YAIXZ ENDP					; return1
_TEXT	ENDS
PUBLIC	?return5@@YAIXZ					; return5
; Function compile flags: /Ogsp
;	COMDAT ?return5@@YAIXZ
_TEXT	SEGMENT
?return5@@YAIXZ PROC					; return5, COMDAT

; 18   : 	__forceinline unsigned int return5() { __asm mov eax, 5 };

  00000	b8 05 00 00 00	 mov	 eax, 5
  00005	c3		 ret	 0
?return5@@YAIXZ ENDP					; return5
_TEXT	ENDS
PUBLIC	?return10@@YAIXZ				; return10
; Function compile flags: /Ogsp
;	COMDAT ?return10@@YAIXZ
_TEXT	SEGMENT
?return10@@YAIXZ PROC					; return10, COMDAT

; 21   : 	__forceinline unsigned int return10() { __asm mov eax, 10 };

  00000	b8 0a 00 00 00	 mov	 eax, 10			; 0000000aH
  00005	c3		 ret	 0
?return10@@YAIXZ ENDP					; return10
_TEXT	ENDS
PUBLIC	?return1000@@YAIXZ				; return1000
; Function compile flags: /Ogsp
;	COMDAT ?return1000@@YAIXZ
_TEXT	SEGMENT
?return1000@@YAIXZ PROC					; return1000, COMDAT

; 29   : 	__forceinline unsigned int return1000() { __asm mov eax, 1000 };

  00000	b8 e8 03 00 00	 mov	 eax, 1000		; 000003e8H
  00005	c3		 ret	 0
?return1000@@YAIXZ ENDP					; return1000
_TEXT	ENDS
PUBLIC	?return1000000000@@YAIXZ			; return1000000000
; Function compile flags: /Ogsp
;	COMDAT ?return1000000000@@YAIXZ
_TEXT	SEGMENT
?return1000000000@@YAIXZ PROC				; return1000000000, COMDAT

; 30   : 	__forceinline unsigned int return1000000000() { __asm mov eax, 1000000000 };

  00000	b8 00 ca 9a 3b	 mov	 eax, 1000000000		; 3b9aca00H
  00005	c3		 ret	 0
?return1000000000@@YAIXZ ENDP				; return1000000000
_TEXT	ENDS
PUBLIC	?return_PI@@YAIXZ				; return_PI
; Function compile flags: /Ogsp
;	COMDAT ?return_PI@@YAIXZ
_TEXT	SEGMENT
?return_PI@@YAIXZ PROC					; return_PI, COMDAT

; 31   : 	__forceinline unsigned int return_PI() { __asm mov eax,   3141592654 };

  00000	b8 4e e6 40 bb	 mov	 eax, -1153374642	; bb40e64eH
  00005	c3		 ret	 0
?return_PI@@YAIXZ ENDP					; return_PI
_TEXT	ENDS
PUBLIC	??_7TutorialBtn@@6B@				; TutorialBtn::`vftable'
PUBLIC	__real@3f800000
PUBLIC	??0TutorialBtn@@QAE@XZ				; TutorialBtn::TutorialBtn
PUBLIC	??_R4TutorialBtn@@6B@				; TutorialBtn::`RTTI Complete Object Locator'
PUBLIC	??_R0?AVTutorialBtn@@@8				; TutorialBtn `RTTI Type Descriptor'
PUBLIC	??_R3TutorialBtn@@8				; TutorialBtn::`RTTI Class Hierarchy Descriptor'
PUBLIC	??_R2TutorialBtn@@8				; TutorialBtn::`RTTI Base Class Array'
PUBLIC	??_R1A@?0A@EA@TutorialBtn@@8			; TutorialBtn::`RTTI Base Class Descriptor at (0,-1,0,64)'
PUBLIC	??_R1A@?0A@EA@ioButton@@8			; ioButton::`RTTI Base Class Descriptor at (0,-1,0,64)'
PUBLIC	??_R0?AVioButton@@@8				; ioButton `RTTI Type Descriptor'
PUBLIC	??_R3ioButton@@8				; ioButton::`RTTI Class Hierarchy Descriptor'
PUBLIC	??_R2ioButton@@8				; ioButton::`RTTI Base Class Array'
PUBLIC	??_R1A@?0A@EA@ioWnd@@8				; ioWnd::`RTTI Base Class Descriptor at (0,-1,0,64)'
PUBLIC	??_R0?AVioWnd@@@8				; ioWnd `RTTI Type Descriptor'
PUBLIC	??_R3ioWnd@@8					; ioWnd::`RTTI Class Hierarchy Descriptor'
PUBLIC	??_R2ioWnd@@8					; ioWnd::`RTTI Base Class Array'
PUBLIC	?ParseExtraInfo@TutorialBtn@@UAEXAAVioXMLElement@@@Z ; TutorialBtn::ParseExtraInfo
PUBLIC	?OnRender@TutorialBtn@@MAEXXZ			; TutorialBtn::OnRender
PUBLIC	?OnProcess@TutorialBtn@@MAEXM@Z			; TutorialBtn::OnProcess
PUBLIC	?iwm_create@TutorialBtn@@UAEXXZ			; TutorialBtn::iwm_create
PUBLIC	?OnDrawNormal@TutorialBtn@@MAEXHH@Z		; TutorialBtn::OnDrawNormal
EXTRN	__imp_??0ioButton@@QAE@XZ:PROC
EXTRN	__fltused:DWORD
EXTRN	??_7type_info@@6B@:QWORD			; type_info::`vftable'
EXTRN	?AddRenderFrame@ioButton@@UAEXABVioHashString@@PAVioUIRenderFrame@@@Z:PROC ; ioButton::AddRenderFrame
EXTRN	?AddRenderImage@ioButton@@UAEXABVioHashString@@PAVioUIRenderImage@@@Z:PROC ; ioButton::AddRenderImage
EXTRN	?AddTooltipHelp@ioWnd@@UAEXABVioHashString@@00@Z:PROC ; ioWnd::AddTooltipHelp
EXTRN	?AddNamedRenderImage@ioWnd@@UAEXABVioHashString@@PAVioUIRenderImage@@@Z:PROC ; ioWnd::AddNamedRenderImage
EXTRN	?RemoveNamedRenderImage@ioWnd@@UAEXABVioHashString@@@Z:PROC ; ioWnd::RemoveNamedRenderImage
EXTRN	?GetNamedRenderImage@ioWnd@@UBEPAVioUIRenderImage@@ABVioHashString@@@Z:PROC ; ioWnd::GetNamedRenderImage
EXTRN	?SetWindowAlpha@ioButton@@UAEXH@Z:PROC		; ioButton::SetWindowAlpha
EXTRN	?SetActive@ioWnd@@UAEXXZ:PROC			; ioWnd::SetActive
EXTRN	?SetInActive@ioWnd@@UAEXXZ:PROC			; ioWnd::SetInActive
EXTRN	?ClearElementImageList@ioWnd@@UAEXXZ:PROC	; ioWnd::ClearElementImageList
EXTRN	?SetSize@ioWnd@@UAEXHH@Z:PROC			; ioWnd::SetSize
EXTRN	?SetPositionToDefault@ioWnd@@UAEXHH_N0@Z:PROC	; ioWnd::SetPositionToDefault
EXTRN	?IsNeedProcess@ioWnd@@UBE_NXZ:PROC		; ioWnd::IsNeedProcess
EXTRN	?IsCanMouseReaction@ioWnd@@UBE_NXZ:PROC		; ioWnd::IsCanMouseReaction
EXTRN	?AddChild@ioWnd@@UAEXPAV1@@Z:PROC		; ioWnd::AddChild
EXTRN	?DeleteChild@ioWnd@@UAEXK@Z:PROC		; ioWnd::DeleteChild
EXTRN	?DeleteAllChild@ioWnd@@UAEXXZ:PROC		; ioWnd::DeleteAllChild
EXTRN	?OnRenderShowAndHide@ioWnd@@MAE_NXZ:PROC	; ioWnd::OnRenderShowAndHide
EXTRN	?OnRenderShowAndHideByDefault@ioWnd@@MAE_NK@Z:PROC ; ioWnd::OnRenderShowAndHideByDefault
EXTRN	?OnRenderShowAndHideByTop@ioWnd@@MAE_NK@Z:PROC	; ioWnd::OnRenderShowAndHideByTop
EXTRN	?OnRenderShowAndHideByDown@ioWnd@@MAE_NK@Z:PROC	; ioWnd::OnRenderShowAndHideByDown
EXTRN	?OnRenderAfterChild@ioWnd@@MAEXXZ:PROC		; ioWnd::OnRenderAfterChild
EXTRN	?OnMouseProcess@ioWnd@@MAEXABVioMouse@@@Z:PROC	; ioWnd::OnMouseProcess
EXTRN	?CheckFrameReSize@ioButton@@MAEXHHHH@Z:PROC	; ioButton::CheckFrameReSize
EXTRN	?RenderImageList@ioWnd@@MAEXHHW4UIRenderType@@@Z:PROC ; ioWnd::RenderImageList
EXTRN	?iwm_destroy@ioWnd@@UAEXXZ:PROC			; ioWnd::iwm_destroy
EXTRN	?iwm_lbuttondown@ioButton@@UAEXABVioMouse@@@Z:PROC ; ioButton::iwm_lbuttondown
EXTRN	?iwm_lbuttonup@ioButton@@UAEXABVioMouse@@@Z:PROC ; ioButton::iwm_lbuttonup
EXTRN	?iwm_lbuttonDBLCLK@ioButton@@UAEXABVioMouse@@@Z:PROC ; ioButton::iwm_lbuttonDBLCLK
EXTRN	?iwm_rbuttondown@ioButton@@UAEXABVioMouse@@@Z:PROC ; ioButton::iwm_rbuttondown
EXTRN	?iwm_rbuttonup@ioButton@@UAEXABVioMouse@@@Z:PROC ; ioButton::iwm_rbuttonup
EXTRN	?iwm_command@ioWnd@@UAEXPAV1@HK@Z:PROC		; ioWnd::iwm_command
EXTRN	?iwm_mouseover@ioButton@@UAEXABVioMouse@@@Z:PROC ; ioButton::iwm_mouseover
EXTRN	?iwm_mousemove@ioWnd@@UAEXABVioMouse@@@Z:PROC	; ioWnd::iwm_mousemove
EXTRN	?iwm_mouseleave@ioWnd@@UAEXABVioMouse@@@Z:PROC	; ioWnd::iwm_mouseleave
EXTRN	?iwm_vscroll@ioWnd@@UAEXKH@Z:PROC		; ioWnd::iwm_vscroll
EXTRN	?iwm_wheel@ioWnd@@UAEXH@Z:PROC			; ioWnd::iwm_wheel
EXTRN	?iwm_show@ioWnd@@UAEXXZ:PROC			; ioWnd::iwm_show
EXTRN	?iwm_hide@ioWnd@@UAEXXZ:PROC			; ioWnd::iwm_hide
EXTRN	?iwm_esc@ioWnd@@UAE_NXZ:PROC			; ioWnd::iwm_esc
EXTRN	?iwm_spacebar@ioWnd@@UAE_NXZ:PROC		; ioWnd::iwm_spacebar
EXTRN	?iwm_gototop@ioWnd@@UAEXXZ:PROC			; ioWnd::iwm_gototop
EXTRN	?iwm_dragenter@ioWnd@@UAE?AW4IWDropEffect@@PAVioDragItem@@ABVioMouse@@@Z:PROC ; ioWnd::iwm_dragenter
EXTRN	?iwm_dragover@ioWnd@@UAE?AW4IWDropEffect@@PAVioDragItem@@ABVioMouse@@@Z:PROC ; ioWnd::iwm_dragover
EXTRN	?iwm_dragleave@ioWnd@@UAEXXZ:PROC		; ioWnd::iwm_dragleave
EXTRN	?iwm_dropitem@ioWnd@@UAE_NPAVioDragItem@@ABVioMouse@@PAV1@@Z:PROC ; ioWnd::iwm_dropitem
EXTRN	?iwm_dropdone@ioWnd@@UAEXPAVioDragItem@@PAV1@_N@Z:PROC ; ioWnd::iwm_dropdone
EXTRN	?IsEXType@ioWnd@@UBE_NXZ:PROC			; ioWnd::IsEXType
EXTRN	?GetWndType@ioButton@@UBEKXZ:PROC		; ioButton::GetWndType
EXTRN	?RenderWnd@ioWnd@@UAEXXZ:PROC			; ioWnd::RenderWnd
EXTRN	?SetIDEX@ioWnd@@UAEXAAK_N@Z:PROC		; ioWnd::SetIDEX
EXTRN	?ParseXML@ioWnd@@UAEXAAVioXMLElement@@@Z:PROC	; ioWnd::ParseXML
EXTRN	?GetHeaderFileName@ioButton@@UAEPBDXZ:PROC	; ioButton::GetHeaderFileName
EXTRN	?GetTemplateName@ioButton@@UAEPBDXZ:PROC	; ioButton::GetTemplateName
EXTRN	?GetDefClassName@ioButton@@UBEPBDXZ:PROC	; ioButton::GetDefClassName
EXTRN	?_Clone@ioButton@@UAEPAVioWnd@@XZ:PROC		; ioButton::_Clone
EXTRN	?Copy@ioButton@@UAEXPAVioWnd@@@Z:PROC		; ioButton::Copy
EXTRN	?Save@ioWnd@@UAE_NAAVioXMLElement@@@Z:PROC	; ioWnd::Save
EXTRN	?SetSaveData@ioButton@@UAEXAAVioXMLElement@@@Z:PROC ; ioButton::SetSaveData
EXTRN	?SetPosX@ioWnd@@UAEXH@Z:PROC			; ioWnd::SetPosX
EXTRN	?SetPosY@ioWnd@@UAEXH@Z:PROC			; ioWnd::SetPosY
EXTRN	?SetWidth@ioWnd@@UAEXH@Z:PROC			; ioWnd::SetWidth
EXTRN	?SetHeight@ioWnd@@UAEXH@Z:PROC			; ioWnd::SetHeight
EXTRN	?GetNumFixedRenderFrame@ioButton@@UBEHXZ:PROC	; ioButton::GetNumFixedRenderFrame
EXTRN	?GetFixedRenderFrameType@ioButton@@UAEPBDH@Z:PROC ; ioButton::GetFixedRenderFrameType
EXTRN	?GetRenderFrame@ioButton@@UAEPAPAVioUIRenderElement@@PBD@Z:PROC ; ioButton::GetRenderFrame
EXTRN	?GetNumFixedRenderImage@ioButton@@UBEHXZ:PROC	; ioButton::GetNumFixedRenderImage
EXTRN	?GetFixedRenderImageType@ioButton@@UAEPBDH@Z:PROC ; ioButton::GetFixedRenderImageType
EXTRN	?GetRenderImage@ioButton@@UAEPAPAVioUIRenderElement@@PBD@Z:PROC ; ioButton::GetRenderImage
EXTRN	?AddEffect@ioWnd@@UAEXABVioHashString@@PAVioUI3DEffectRender@@@Z:PROC ; ioWnd::AddEffect
EXTRN	?GetEffect@ioWnd@@UAEPAVioUI3DEffectRender@@VioHashString@@@Z:PROC ; ioWnd::GetEffect
EXTRN	??_ETutorialBtn@@UAEPAXI@Z:PROC			; TutorialBtn::`vector deleting destructor'
EXTRN	?OnDrawOvered@ioButton@@MAEXHH@Z:PROC		; ioButton::OnDrawOvered
EXTRN	?OnDrawOveredAdd@ioButton@@MAEXHH@Z:PROC	; ioButton::OnDrawOveredAdd
EXTRN	?OnDrawPushed@ioButton@@MAEXHH@Z:PROC		; ioButton::OnDrawPushed
EXTRN	?OnDrawDisabled@ioButton@@MAEXHH@Z:PROC		; ioButton::OnDrawDisabled
EXTRN	?OnDrawExDisabledNormal@ioButton@@MAEXHH@Z:PROC	; ioButton::OnDrawExDisabledNormal
EXTRN	?OnDrawExDisabledOvered@ioButton@@MAEXHH@Z:PROC	; ioButton::OnDrawExDisabledOvered
EXTRN	?OnDrawExDisabledPushed@ioButton@@MAEXHH@Z:PROC	; ioButton::OnDrawExDisabledPushed
EXTRN	?OnDrawBack@ioButton@@MAEXHH@Z:PROC		; ioButton::OnDrawBack
EXTRN	?OnDrawNormalList@ioButton@@MAEXHH@Z:PROC	; ioButton::OnDrawNormalList
EXTRN	?OnDrawDisableList@ioButton@@MAEXHH@Z:PROC	; ioButton::OnDrawDisableList
;	COMDAT ??_R2ioWnd@@8
; File d:\lost saga for developer\youtube\tutorial\source\src\lsclient\gui\tutorialwnd.cpp
rdata$r	SEGMENT
??_R2ioWnd@@8 DD FLAT:??_R1A@?0A@EA@ioWnd@@8		; ioWnd::`RTTI Base Class Array'
rdata$r	ENDS
;	COMDAT ??_R3ioWnd@@8
rdata$r	SEGMENT
??_R3ioWnd@@8 DD 00H					; ioWnd::`RTTI Class Hierarchy Descriptor'
	DD	00H
	DD	01H
	DD	FLAT:??_R2ioWnd@@8
rdata$r	ENDS
;	COMDAT ??_R0?AVioWnd@@@8
_DATA	SEGMENT
??_R0?AVioWnd@@@8 DD FLAT:??_7type_info@@6B@		; ioWnd `RTTI Type Descriptor'
	DD	00H
	DB	'.?AVioWnd@@', 00H
_DATA	ENDS
;	COMDAT ??_R1A@?0A@EA@ioWnd@@8
rdata$r	SEGMENT
??_R1A@?0A@EA@ioWnd@@8 DD FLAT:??_R0?AVioWnd@@@8	; ioWnd::`RTTI Base Class Descriptor at (0,-1,0,64)'
	DD	00H
	DD	00H
	DD	0ffffffffH
	DD	00H
	DD	040H
	DD	FLAT:??_R3ioWnd@@8
rdata$r	ENDS
;	COMDAT ??_R2ioButton@@8
rdata$r	SEGMENT
??_R2ioButton@@8 DD FLAT:??_R1A@?0A@EA@ioButton@@8	; ioButton::`RTTI Base Class Array'
	DD	FLAT:??_R1A@?0A@EA@ioWnd@@8
rdata$r	ENDS
;	COMDAT ??_R3ioButton@@8
rdata$r	SEGMENT
??_R3ioButton@@8 DD 00H					; ioButton::`RTTI Class Hierarchy Descriptor'
	DD	00H
	DD	02H
	DD	FLAT:??_R2ioButton@@8
rdata$r	ENDS
;	COMDAT ??_R0?AVioButton@@@8
_DATA	SEGMENT
??_R0?AVioButton@@@8 DD FLAT:??_7type_info@@6B@		; ioButton `RTTI Type Descriptor'
	DD	00H
	DB	'.?AVioButton@@', 00H
_DATA	ENDS
;	COMDAT ??_R1A@?0A@EA@ioButton@@8
rdata$r	SEGMENT
??_R1A@?0A@EA@ioButton@@8 DD FLAT:??_R0?AVioButton@@@8	; ioButton::`RTTI Base Class Descriptor at (0,-1,0,64)'
	DD	01H
	DD	00H
	DD	0ffffffffH
	DD	00H
	DD	040H
	DD	FLAT:??_R3ioButton@@8
rdata$r	ENDS
;	COMDAT ??_R1A@?0A@EA@TutorialBtn@@8
rdata$r	SEGMENT
??_R1A@?0A@EA@TutorialBtn@@8 DD FLAT:??_R0?AVTutorialBtn@@@8 ; TutorialBtn::`RTTI Base Class Descriptor at (0,-1,0,64)'
	DD	02H
	DD	00H
	DD	0ffffffffH
	DD	00H
	DD	040H
	DD	FLAT:??_R3TutorialBtn@@8
rdata$r	ENDS
;	COMDAT ??_R2TutorialBtn@@8
rdata$r	SEGMENT
??_R2TutorialBtn@@8 DD FLAT:??_R1A@?0A@EA@TutorialBtn@@8 ; TutorialBtn::`RTTI Base Class Array'
	DD	FLAT:??_R1A@?0A@EA@ioButton@@8
	DD	FLAT:??_R1A@?0A@EA@ioWnd@@8
rdata$r	ENDS
;	COMDAT ??_R3TutorialBtn@@8
rdata$r	SEGMENT
??_R3TutorialBtn@@8 DD 00H				; TutorialBtn::`RTTI Class Hierarchy Descriptor'
	DD	00H
	DD	03H
	DD	FLAT:??_R2TutorialBtn@@8
rdata$r	ENDS
;	COMDAT ??_R0?AVTutorialBtn@@@8
_DATA	SEGMENT
??_R0?AVTutorialBtn@@@8 DD FLAT:??_7type_info@@6B@	; TutorialBtn `RTTI Type Descriptor'
	DD	00H
	DB	'.?AVTutorialBtn@@', 00H
_DATA	ENDS
;	COMDAT ??_R4TutorialBtn@@6B@
rdata$r	SEGMENT
??_R4TutorialBtn@@6B@ DD 00H				; TutorialBtn::`RTTI Complete Object Locator'
	DD	00H
	DD	00H
	DD	FLAT:??_R0?AVTutorialBtn@@@8
	DD	FLAT:??_R3TutorialBtn@@8
rdata$r	ENDS
;	COMDAT ??_7TutorialBtn@@6B@
CONST	SEGMENT
??_7TutorialBtn@@6B@ DD FLAT:??_R4TutorialBtn@@6B@	; TutorialBtn::`vftable'
	DD	FLAT:?AddRenderFrame@ioButton@@UAEXABVioHashString@@PAVioUIRenderFrame@@@Z
	DD	FLAT:?AddRenderImage@ioButton@@UAEXABVioHashString@@PAVioUIRenderImage@@@Z
	DD	FLAT:?AddTooltipHelp@ioWnd@@UAEXABVioHashString@@00@Z
	DD	FLAT:?ParseExtraInfo@TutorialBtn@@UAEXAAVioXMLElement@@@Z
	DD	FLAT:?AddNamedRenderImage@ioWnd@@UAEXABVioHashString@@PAVioUIRenderImage@@@Z
	DD	FLAT:?RemoveNamedRenderImage@ioWnd@@UAEXABVioHashString@@@Z
	DD	FLAT:?GetNamedRenderImage@ioWnd@@UBEPAVioUIRenderImage@@ABVioHashString@@@Z
	DD	FLAT:?SetWindowAlpha@ioButton@@UAEXH@Z
	DD	FLAT:?SetActive@ioWnd@@UAEXXZ
	DD	FLAT:?SetInActive@ioWnd@@UAEXXZ
	DD	FLAT:?ClearElementImageList@ioWnd@@UAEXXZ
	DD	FLAT:?SetSize@ioWnd@@UAEXHH@Z
	DD	FLAT:?SetPositionToDefault@ioWnd@@UAEXHH_N0@Z
	DD	FLAT:?IsNeedProcess@ioWnd@@UBE_NXZ
	DD	FLAT:?IsCanMouseReaction@ioWnd@@UBE_NXZ
	DD	FLAT:?AddChild@ioWnd@@UAEXPAV1@@Z
	DD	FLAT:?DeleteChild@ioWnd@@UAEXK@Z
	DD	FLAT:?DeleteAllChild@ioWnd@@UAEXXZ
	DD	FLAT:?OnRenderShowAndHide@ioWnd@@MAE_NXZ
	DD	FLAT:?OnRenderShowAndHideByDefault@ioWnd@@MAE_NK@Z
	DD	FLAT:?OnRenderShowAndHideByTop@ioWnd@@MAE_NK@Z
	DD	FLAT:?OnRenderShowAndHideByDown@ioWnd@@MAE_NK@Z
	DD	FLAT:?OnRender@TutorialBtn@@MAEXXZ
	DD	FLAT:?OnRenderAfterChild@ioWnd@@MAEXXZ
	DD	FLAT:?OnProcess@TutorialBtn@@MAEXM@Z
	DD	FLAT:?OnMouseProcess@ioWnd@@MAEXABVioMouse@@@Z
	DD	FLAT:?CheckFrameReSize@ioButton@@MAEXHHHH@Z
	DD	FLAT:?RenderImageList@ioWnd@@MAEXHHW4UIRenderType@@@Z
	DD	FLAT:?iwm_create@TutorialBtn@@UAEXXZ
	DD	FLAT:?iwm_destroy@ioWnd@@UAEXXZ
	DD	FLAT:?iwm_lbuttondown@ioButton@@UAEXABVioMouse@@@Z
	DD	FLAT:?iwm_lbuttonup@ioButton@@UAEXABVioMouse@@@Z
	DD	FLAT:?iwm_lbuttonDBLCLK@ioButton@@UAEXABVioMouse@@@Z
	DD	FLAT:?iwm_rbuttondown@ioButton@@UAEXABVioMouse@@@Z
	DD	FLAT:?iwm_rbuttonup@ioButton@@UAEXABVioMouse@@@Z
	DD	FLAT:?iwm_command@ioWnd@@UAEXPAV1@HK@Z
	DD	FLAT:?iwm_mouseover@ioButton@@UAEXABVioMouse@@@Z
	DD	FLAT:?iwm_mousemove@ioWnd@@UAEXABVioMouse@@@Z
	DD	FLAT:?iwm_mouseleave@ioWnd@@UAEXABVioMouse@@@Z
	DD	FLAT:?iwm_vscroll@ioWnd@@UAEXKH@Z
	DD	FLAT:?iwm_wheel@ioWnd@@UAEXH@Z
	DD	FLAT:?iwm_show@ioWnd@@UAEXXZ
	DD	FLAT:?iwm_hide@ioWnd@@UAEXXZ
	DD	FLAT:?iwm_esc@ioWnd@@UAE_NXZ
	DD	FLAT:?iwm_spacebar@ioWnd@@UAE_NXZ
	DD	FLAT:?iwm_gototop@ioWnd@@UAEXXZ
	DD	FLAT:?iwm_dragenter@ioWnd@@UAE?AW4IWDropEffect@@PAVioDragItem@@ABVioMouse@@@Z
	DD	FLAT:?iwm_dragover@ioWnd@@UAE?AW4IWDropEffect@@PAVioDragItem@@ABVioMouse@@@Z
	DD	FLAT:?iwm_dragleave@ioWnd@@UAEXXZ
	DD	FLAT:?iwm_dropitem@ioWnd@@UAE_NPAVioDragItem@@ABVioMouse@@PAV1@@Z
	DD	FLAT:?iwm_dropdone@ioWnd@@UAEXPAVioDragItem@@PAV1@_N@Z
	DD	FLAT:?IsEXType@ioWnd@@UBE_NXZ
	DD	FLAT:?GetWndType@ioButton@@UBEKXZ
	DD	FLAT:?RenderWnd@ioWnd@@UAEXXZ
	DD	FLAT:?SetIDEX@ioWnd@@UAEXAAK_N@Z
	DD	FLAT:?ParseXML@ioWnd@@UAEXAAVioXMLElement@@@Z
	DD	FLAT:?GetHeaderFileName@ioButton@@UAEPBDXZ
	DD	FLAT:?GetTemplateName@ioButton@@UAEPBDXZ
	DD	FLAT:?GetDefClassName@ioButton@@UBEPBDXZ
	DD	FLAT:?_Clone@ioButton@@UAEPAVioWnd@@XZ
	DD	FLAT:?Copy@ioButton@@UAEXPAVioWnd@@@Z
	DD	FLAT:?Save@ioWnd@@UAE_NAAVioXMLElement@@@Z
	DD	FLAT:?SetSaveData@ioButton@@UAEXAAVioXMLElement@@@Z
	DD	FLAT:?SetPosX@ioWnd@@UAEXH@Z
	DD	FLAT:?SetPosY@ioWnd@@UAEXH@Z
	DD	FLAT:?SetWidth@ioWnd@@UAEXH@Z
	DD	FLAT:?SetHeight@ioWnd@@UAEXH@Z
	DD	FLAT:?GetNumFixedRenderFrame@ioButton@@UBEHXZ
	DD	FLAT:?GetFixedRenderFrameType@ioButton@@UAEPBDH@Z
	DD	FLAT:?GetRenderFrame@ioButton@@UAEPAPAVioUIRenderElement@@PBD@Z
	DD	FLAT:?GetNumFixedRenderImage@ioButton@@UBEHXZ
	DD	FLAT:?GetFixedRenderImageType@ioButton@@UAEPBDH@Z
	DD	FLAT:?GetRenderImage@ioButton@@UAEPAPAVioUIRenderElement@@PBD@Z
	DD	FLAT:?AddEffect@ioWnd@@UAEXABVioHashString@@PAVioUI3DEffectRender@@@Z
	DD	FLAT:?GetEffect@ioWnd@@UAEPAVioUI3DEffectRender@@VioHashString@@@Z
	DD	FLAT:??_ETutorialBtn@@UAEPAXI@Z
	DD	FLAT:?OnDrawNormal@TutorialBtn@@MAEXHH@Z
	DD	FLAT:?OnDrawOvered@ioButton@@MAEXHH@Z
	DD	FLAT:?OnDrawOveredAdd@ioButton@@MAEXHH@Z
	DD	FLAT:?OnDrawPushed@ioButton@@MAEXHH@Z
	DD	FLAT:?OnDrawDisabled@ioButton@@MAEXHH@Z
	DD	FLAT:?OnDrawExDisabledNormal@ioButton@@MAEXHH@Z
	DD	FLAT:?OnDrawExDisabledOvered@ioButton@@MAEXHH@Z
	DD	FLAT:?OnDrawExDisabledPushed@ioButton@@MAEXHH@Z
	DD	FLAT:?OnDrawBack@ioButton@@MAEXHH@Z
	DD	FLAT:?OnDrawNormalList@ioButton@@MAEXHH@Z
	DD	FLAT:?OnDrawDisableList@ioButton@@MAEXHH@Z
CONST	ENDS
;	COMDAT __real@3f800000
CONST	SEGMENT
__real@3f800000 DD 03f800000r			; 1
; Function compile flags: /Ogsp
CONST	ENDS
;	COMDAT ??0TutorialBtn@@QAE@XZ
_TEXT	SEGMENT
??0TutorialBtn@@QAE@XZ PROC				; TutorialBtn::TutorialBtn, COMDAT
; _this$ = ecx

; 36   : {

  00000	56		 push	 esi
  00001	8b f1		 mov	 esi, ecx
  00003	ff 15 00 00 00
	00		 call	 DWORD PTR __imp_??0ioButton@@QAE@XZ

; 37   : 	m_dwScreenTimer = 0;
; 38   : 	m_dwCurTimer    = 0;
; 39   : 	m_bScreen       = false;
; 40   : 	m_fIconScale = 1.f;

  00009	f3 0f 10 05 00
	00 00 00	 movss	 xmm0, DWORD PTR __real@3f800000
  00011	33 c0		 xor	 eax, eax
  00013	89 86 fc 01 00
	00		 mov	 DWORD PTR [esi+508], eax
  00019	89 86 00 02 00
	00		 mov	 DWORD PTR [esi+512], eax
  0001f	88 86 04 02 00
	00		 mov	 BYTE PTR [esi+516], al
  00025	c7 06 00 00 00
	00		 mov	 DWORD PTR [esi], OFFSET ??_7TutorialBtn@@6B@
  0002b	f3 0f 11 86 08
	02 00 00	 movss	 DWORD PTR [esi+520], xmm0

; 41   : }

  00033	8b c6		 mov	 eax, esi
  00035	5e		 pop	 esi
  00036	c3		 ret	 0
??0TutorialBtn@@QAE@XZ ENDP				; TutorialBtn::TutorialBtn
_TEXT	ENDS
PUBLIC	??1TutorialBtn@@UAE@XZ				; TutorialBtn::~TutorialBtn
EXTRN	__imp_??1ioButton@@UAE@XZ:PROC
; Function compile flags: /Ogsp
;	COMDAT ??1TutorialBtn@@UAE@XZ
_TEXT	SEGMENT
??1TutorialBtn@@UAE@XZ PROC				; TutorialBtn::~TutorialBtn, COMDAT
; _this$ = ecx

; 44   : {

  00000	c7 01 00 00 00
	00		 mov	 DWORD PTR [ecx], OFFSET ??_7TutorialBtn@@6B@

; 45   : 
; 46   : }

  00006	ff 25 00 00 00
	00		 jmp	 DWORD PTR __imp_??1ioButton@@UAE@XZ
??1TutorialBtn@@UAE@XZ ENDP				; TutorialBtn::~TutorialBtn
_TEXT	ENDS
EXTRN	__imp_?GetLoopSec@ioFrameTimer@@QBEKXZ:PROC
EXTRN	__imp_?GetSingleton@ioFrameTimer@@SAAAV1@XZ:PROC
EXTRN	__imp_?IsShow@ioWnd@@QBE_NXZ:PROC
; Function compile flags: /Ogsp
;	COMDAT ?OnProcess@TutorialBtn@@MAEXM@Z
_TEXT	SEGMENT
_fTimePerSec$ = 8					; size = 4
?OnProcess@TutorialBtn@@MAEXM@Z PROC			; TutorialBtn::OnProcess, COMDAT
; _this$ = ecx

; 57   : {

  00000	56		 push	 esi
  00001	8b f1		 mov	 esi, ecx

; 58   : 	if( !IsShow() ) return;

  00003	ff 15 00 00 00
	00		 call	 DWORD PTR __imp_?IsShow@ioWnd@@QBE_NXZ
  00009	84 c0		 test	 al, al
  0000b	74 40		 je	 SHORT $LN1@OnProcess

; 59   : 
; 60   : 	if( FRAMEGETTIME() - m_dwCurTimer > m_dwScreenTimer )

  0000d	57		 push	 edi
  0000e	8b 3d 00 00 00
	00		 mov	 edi, DWORD PTR __imp_?GetSingleton@ioFrameTimer@@SAAAV1@XZ
  00014	ff d7		 call	 edi
  00016	8b c8		 mov	 ecx, eax
  00018	ff 15 00 00 00
	00		 call	 DWORD PTR __imp_?GetLoopSec@ioFrameTimer@@QBEKXZ
  0001e	2b 86 00 02 00
	00		 sub	 eax, DWORD PTR [esi+512]
  00024	3b 86 fc 01 00
	00		 cmp	 eax, DWORD PTR [esi+508]
  0002a	76 20		 jbe	 SHORT $LN5@OnProcess

; 61   : 	{
; 62   : 		m_dwCurTimer = FRAMEGETTIME();

  0002c	ff d7		 call	 edi
  0002e	8b c8		 mov	 ecx, eax
  00030	ff 15 00 00 00
	00		 call	 DWORD PTR __imp_?GetLoopSec@ioFrameTimer@@QBEKXZ

; 63   : 		m_bScreen = !m_bScreen;

  00036	80 be 04 02 00
	00 00		 cmp	 BYTE PTR [esi+516], 0
  0003d	89 86 00 02 00
	00		 mov	 DWORD PTR [esi+512], eax
  00043	0f 94 c1	 sete	 cl
  00046	88 8e 04 02 00
	00		 mov	 BYTE PTR [esi+516], cl
$LN5@OnProcess:
  0004c	5f		 pop	 edi
$LN1@OnProcess:
  0004d	5e		 pop	 esi

; 64   : 	}
; 65   : }

  0004e	c2 04 00	 ret	 4
?OnProcess@TutorialBtn@@MAEXM@Z ENDP			; TutorialBtn::OnProcess
_TEXT	ENDS
EXTRN	__imp_?OnDrawNormal@ioButton@@MAEXHH@Z:PROC
EXTRN	__imp_?OnDrawOvered@ioButton@@MAEXHH@Z:PROC
; Function compile flags: /Ogsp
;	COMDAT ?OnDrawNormal@TutorialBtn@@MAEXHH@Z
_TEXT	SEGMENT
_iXPos$ = 8						; size = 4
_iYPos$ = 12						; size = 4
?OnDrawNormal@TutorialBtn@@MAEXHH@Z PROC		; TutorialBtn::OnDrawNormal, COMDAT
; _this$ = ecx

; 68   : {

  00000	55		 push	 ebp
  00001	8b ec		 mov	 ebp, esp

; 69   : 	if( m_bScreen )

  00003	80 b9 04 02 00
	00 00		 cmp	 BYTE PTR [ecx+516], 0
  0000a	74 07		 je	 SHORT $LN2@OnDrawNorm

; 73   : }

  0000c	5d		 pop	 ebp

; 70   : 		ioButton::OnDrawOvered( iXPos, iYPos );

  0000d	ff 25 00 00 00
	00		 jmp	 DWORD PTR __imp_?OnDrawOvered@ioButton@@MAEXHH@Z
$LN2@OnDrawNorm:

; 73   : }

  00013	5d		 pop	 ebp

; 71   : 	else
; 72   : 		ioButton::OnDrawNormal( iXPos, iYPos );

  00014	ff 25 00 00 00
	00		 jmp	 DWORD PTR __imp_?OnDrawNormal@ioButton@@MAEXHH@Z
?OnDrawNormal@TutorialBtn@@MAEXHH@Z ENDP		; TutorialBtn::OnDrawNormal
_TEXT	ENDS
EXTRN	__imp_?OnRender@ioButton@@MAEXXZ:PROC
; Function compile flags: /Ogsp
;	COMDAT ?OnRender@TutorialBtn@@MAEXXZ
_TEXT	SEGMENT
?OnRender@TutorialBtn@@MAEXXZ PROC			; TutorialBtn::OnRender, COMDAT
; _this$ = ecx

; 77   : //	if( !g_GUIMgr.IsSkipUIByBlind() )
; 78   : 	{
; 79   : 		ioButton::OnRender();

  00000	ff 25 00 00 00
	00		 jmp	 DWORD PTR __imp_?OnRender@ioButton@@MAEXXZ
?OnRender@TutorialBtn@@MAEXXZ ENDP			; TutorialBtn::OnRender
_TEXT	ENDS
PUBLIC	_sinf
EXTRN	__CIsin:PROC
; Function compile flags: /Ogsp
; File c:\program files (x86)\microsoft visual studio 10.0\vc\include\math.h
;	COMDAT _sinf
_TEXT	SEGMENT
tv69 = 8						; size = 4
__X$ = 8						; size = 4
_sinf	PROC						; COMDAT

; 430  :         {return ((float)sin((double)_X)); }

  00000	55		 push	 ebp
  00001	8b ec		 mov	 ebp, esp
  00003	d9 45 08	 fld	 DWORD PTR __X$[ebp]
  00006	e8 00 00 00 00	 call	 __CIsin
  0000b	d9 5d 08	 fstp	 DWORD PTR tv69[ebp]
  0000e	d9 45 08	 fld	 DWORD PTR tv69[ebp]
  00011	5d		 pop	 ebp
  00012	c3		 ret	 0
_sinf	ENDP
_TEXT	ENDS
PUBLIC	?IsTextTick@TutorialWnd@@QAE_NXZ		; TutorialWnd::IsTextTick
; Function compile flags: /Ogsp
; File d:\lost saga for developer\youtube\tutorial\source\src\lsclient\gui\tutorialwnd.cpp
;	COMDAT ?IsTextTick@TutorialWnd@@QAE_NXZ
_TEXT	SEGMENT
?IsTextTick@TutorialWnd@@QAE_NXZ PROC			; TutorialWnd::IsTextTick, COMDAT
; _this$ = ecx

; 234  : 	if( m_dwCurTextTickTime == 0 )

  00000	83 b9 70 01 00
	00 00		 cmp	 DWORD PTR [ecx+368], 0
  00007	0f 95 c0	 setne	 al

; 235  : 		return false;
; 236  : 
; 237  : 	return true;
; 238  : }

  0000a	c3		 ret	 0
?IsTextTick@TutorialWnd@@QAE_NXZ ENDP			; TutorialWnd::IsTextTick
_TEXT	ENDS
PUBLIC	??_7bad_alloc@std@@6B@				; std::bad_alloc::`vftable'
PUBLIC	??0bad_alloc@std@@QAE@PBD@Z			; std::bad_alloc::bad_alloc
PUBLIC	??_R4bad_alloc@std@@6B@				; std::bad_alloc::`RTTI Complete Object Locator'
PUBLIC	??_R0?AVbad_alloc@std@@@8			; std::bad_alloc `RTTI Type Descriptor'
PUBLIC	??_R3bad_alloc@std@@8				; std::bad_alloc::`RTTI Class Hierarchy Descriptor'
PUBLIC	??_R2bad_alloc@std@@8				; std::bad_alloc::`RTTI Base Class Array'
PUBLIC	??_R1A@?0A@EA@bad_alloc@std@@8			; std::bad_alloc::`RTTI Base Class Descriptor at (0,-1,0,64)'
PUBLIC	??_R1A@?0A@EA@exception@std@@8			; std::exception::`RTTI Base Class Descriptor at (0,-1,0,64)'
PUBLIC	??_R0?AVexception@std@@@8			; std::exception `RTTI Type Descriptor'
PUBLIC	??_R3exception@std@@8				; std::exception::`RTTI Class Hierarchy Descriptor'
PUBLIC	??_R2exception@std@@8				; std::exception::`RTTI Base Class Array'
EXTRN	__imp_??0exception@std@@QAE@ABQBD@Z:PROC
EXTRN	??_Ebad_alloc@std@@UAEPAXI@Z:PROC		; std::bad_alloc::`vector deleting destructor'
EXTRN	?what@exception@std@@UBEPBDXZ:PROC		; std::exception::what
;	COMDAT ??_R2exception@std@@8
; File c:\program files (x86)\microsoft visual studio 10.0\vc\include\exception
rdata$r	SEGMENT
??_R2exception@std@@8 DD FLAT:??_R1A@?0A@EA@exception@std@@8 ; std::exception::`RTTI Base Class Array'
rdata$r	ENDS
;	COMDAT ??_R3exception@std@@8
rdata$r	SEGMENT
??_R3exception@std@@8 DD 00H				; std::exception::`RTTI Class Hierarchy Descriptor'
	DD	00H
	DD	01H
	DD	FLAT:??_R2exception@std@@8
rdata$r	ENDS
;	COMDAT ??_R0?AVexception@std@@@8
_DATA	SEGMENT
??_R0?AVexception@std@@@8 DD FLAT:??_7type_info@@6B@	; std::exception `RTTI Type Descriptor'
	DD	00H
	DB	'.?AVexception@std@@', 00H
_DATA	ENDS
;	COMDAT ??_R1A@?0A@EA@exception@std@@8
rdata$r	SEGMENT
??_R1A@?0A@EA@exception@std@@8 DD FLAT:??_R0?AVexception@std@@@8 ; std::exception::`RTTI Base Class Descriptor at (0,-1,0,64)'
	DD	00H
	DD	00H
	DD	0ffffffffH
	DD	00H
	DD	040H
	DD	FLAT:??_R3exception@std@@8
rdata$r	ENDS
;	COMDAT ??_R1A@?0A@EA@bad_alloc@std@@8
rdata$r	SEGMENT
??_R1A@?0A@EA@bad_alloc@std@@8 DD FLAT:??_R0?AVbad_alloc@std@@@8 ; std::bad_alloc::`RTTI Base Class Descriptor at (0,-1,0,64)'
	DD	01H
	DD	00H
	DD	0ffffffffH
	DD	00H
	DD	040H
	DD	FLAT:??_R3bad_alloc@std@@8
rdata$r	ENDS
;	COMDAT ??_R2bad_alloc@std@@8
rdata$r	SEGMENT
??_R2bad_alloc@std@@8 DD FLAT:??_R1A@?0A@EA@bad_alloc@std@@8 ; std::bad_alloc::`RTTI Base Class Array'
	DD	FLAT:??_R1A@?0A@EA@exception@std@@8
rdata$r	ENDS
;	COMDAT ??_R3bad_alloc@std@@8
rdata$r	SEGMENT
??_R3bad_alloc@std@@8 DD 00H				; std::bad_alloc::`RTTI Class Hierarchy Descriptor'
	DD	00H
	DD	02H
	DD	FLAT:??_R2bad_alloc@std@@8
rdata$r	ENDS
;	COMDAT ??_R0?AVbad_alloc@std@@@8
_DATA	SEGMENT
??_R0?AVbad_alloc@std@@@8 DD FLAT:??_7type_info@@6B@	; std::bad_alloc `RTTI Type Descriptor'
	DD	00H
	DB	'.?AVbad_alloc@std@@', 00H
_DATA	ENDS
;	COMDAT ??_R4bad_alloc@std@@6B@
rdata$r	SEGMENT
??_R4bad_alloc@std@@6B@ DD 00H				; std::bad_alloc::`RTTI Complete Object Locator'
	DD	00H
	DD	00H
	DD	FLAT:??_R0?AVbad_alloc@std@@@8
	DD	FLAT:??_R3bad_alloc@std@@8
rdata$r	ENDS
;	COMDAT ??_7bad_alloc@std@@6B@
CONST	SEGMENT
??_7bad_alloc@std@@6B@ DD FLAT:??_R4bad_alloc@std@@6B@	; std::bad_alloc::`vftable'
	DD	FLAT:??_Ebad_alloc@std@@UAEPAXI@Z
	DD	FLAT:?what@exception@std@@UBEPBDXZ
; Function compile flags: /Ogsp
CONST	ENDS
;	COMDAT ??0bad_alloc@std@@QAE@PBD@Z
_TEXT	SEGMENT
__Message$ = 8						; size = 4
??0bad_alloc@std@@QAE@PBD@Z PROC			; std::bad_alloc::bad_alloc, COMDAT
; _this$ = ecx

; 345  : 		{	// construct from message string

  00000	55		 push	 ebp
  00001	8b ec		 mov	 ebp, esp
  00003	56		 push	 esi
  00004	8d 45 08	 lea	 eax, DWORD PTR __Message$[ebp]
  00007	50		 push	 eax
  00008	8b f1		 mov	 esi, ecx
  0000a	ff 15 00 00 00
	00		 call	 DWORD PTR __imp_??0exception@std@@QAE@ABQBD@Z
  00010	c7 06 00 00 00
	00		 mov	 DWORD PTR [esi], OFFSET ??_7bad_alloc@std@@6B@

; 346  : 		}

  00016	8b c6		 mov	 eax, esi
  00018	5e		 pop	 esi
  00019	5d		 pop	 ebp
  0001a	c2 04 00	 ret	 4
??0bad_alloc@std@@QAE@PBD@Z ENDP			; std::bad_alloc::bad_alloc
_TEXT	ENDS
PUBLIC	??1bad_alloc@std@@UAE@XZ			; std::bad_alloc::~bad_alloc
EXTRN	__imp_??1exception@std@@UAE@XZ:PROC
; Function compile flags: /Ogsp
;	COMDAT ??1bad_alloc@std@@UAE@XZ
_TEXT	SEGMENT
??1bad_alloc@std@@UAE@XZ PROC				; std::bad_alloc::~bad_alloc, COMDAT
; _this$ = ecx

; 354  : 		{	// destroy the object

  00000	c7 01 00 00 00
	00		 mov	 DWORD PTR [ecx], OFFSET ??_7bad_alloc@std@@6B@

; 355  : 		}

  00006	ff 25 00 00 00
	00		 jmp	 DWORD PTR __imp_??1exception@std@@UAE@XZ
??1bad_alloc@std@@UAE@XZ ENDP				; std::bad_alloc::~bad_alloc
_TEXT	ENDS
EXTRN	??3@YAXPAX@Z:PROC				; operator delete
; Function compile flags: /Ogsp
;	COMDAT ??_Gbad_alloc@std@@UAEPAXI@Z
_TEXT	SEGMENT
___flags$ = 8						; size = 4
??_Gbad_alloc@std@@UAEPAXI@Z PROC			; std::bad_alloc::`scalar deleting destructor', COMDAT
; _this$ = ecx
  00000	55		 push	 ebp
  00001	8b ec		 mov	 ebp, esp
  00003	56		 push	 esi
  00004	8b f1		 mov	 esi, ecx
  00006	c7 06 00 00 00
	00		 mov	 DWORD PTR [esi], OFFSET ??_7bad_alloc@std@@6B@
  0000c	ff 15 00 00 00
	00		 call	 DWORD PTR __imp_??1exception@std@@UAE@XZ
  00012	f6 45 08 01	 test	 BYTE PTR ___flags$[ebp], 1
  00016	74 07		 je	 SHORT $LN1@scalar
  00018	56		 push	 esi
  00019	e8 00 00 00 00	 call	 ??3@YAXPAX@Z		; operator delete
  0001e	59		 pop	 ecx
$LN1@scalar:
  0001f	8b c6		 mov	 eax, esi
  00021	5e		 pop	 esi
  00022	5d		 pop	 ebp
  00023	c2 04 00	 ret	 4
??_Gbad_alloc@std@@UAEPAXI@Z ENDP			; std::bad_alloc::`scalar deleting destructor'
_TEXT	ENDS
PUBLIC	__real@40400000
PUBLIC	__real@c1a00000
PUBLIC	?SetCountUp@TutorialWnd@@IAEXXZ			; TutorialWnd::SetCountUp
;	COMDAT __real@40400000
; File d:\lost saga for developer\youtube\tutorial\source\src\lsclient\gui\tutorialwnd.cpp
CONST	SEGMENT
__real@40400000 DD 040400000r			; 3
CONST	ENDS
;	COMDAT __real@c1a00000
CONST	SEGMENT
__real@c1a00000 DD 0c1a00000r			; -20
; Function compile flags: /Ogsp
CONST	ENDS
;	COMDAT ?SetCountUp@TutorialWnd@@IAEXXZ
_TEXT	SEGMENT
?SetCountUp@TutorialWnd@@IAEXXZ PROC			; TutorialWnd::SetCountUp, COMDAT
; _this$ = ecx

; 324  : 	m_fFontYGap		= -20.0f;

  00000	f3 0f 10 05 00
	00 00 00	 movss	 xmm0, DWORD PTR __real@c1a00000
  00008	56		 push	 esi
  00009	8b f1		 mov	 esi, ecx
  0000b	f3 0f 11 86 e8
	01 00 00	 movss	 DWORD PTR [esi+488], xmm0

; 325  : 	m_fScale		= 3.0f;

  00013	f3 0f 10 05 00
	00 00 00	 movss	 xmm0, DWORD PTR __real@40400000
  0001b	f3 0f 11 86 e4
	01 00 00	 movss	 DWORD PTR [esi+484], xmm0

; 326  : 	m_dwCurTimer	= FRAMEGETTIME();

  00023	ff 15 00 00 00
	00		 call	 DWORD PTR __imp_?GetSingleton@ioFrameTimer@@SAAAV1@XZ
  00029	8b c8		 mov	 ecx, eax
  0002b	ff 15 00 00 00
	00		 call	 DWORD PTR __imp_?GetLoopSec@ioFrameTimer@@QBEKXZ
  00031	89 86 ec 01 00
	00		 mov	 DWORD PTR [esi+492], eax
  00037	5e		 pop	 esi

; 327  : }

  00038	c3		 ret	 0
?SetCountUp@TutorialWnd@@IAEXXZ ENDP			; TutorialWnd::SetCountUp
_TEXT	ENDS
PUBLIC	?iwm_show@TutorialWnd@@UAEXXZ			; TutorialWnd::iwm_show
EXTRN	__imp_?ShowWnd@ioGUIManager@@QAEXK_N@Z:PROC
EXTRN	?GetSingleton@ioSP2GUIManager@@SAAAV1@XZ:PROC	; ioSP2GUIManager::GetSingleton
; Function compile flags: /Ogsp
;	COMDAT ?iwm_show@TutorialWnd@@UAEXXZ
_TEXT	SEGMENT
?iwm_show@TutorialWnd@@UAEXXZ PROC			; TutorialWnd::iwm_show, COMDAT
; _this$ = ecx

; 331  : 	g_GUIMgr.ShowWnd( TUTORIAL_KEYBOARD_WND );

  00000	6a 00		 push	 0
  00002	68 a2 13 00 00	 push	 5026			; 000013a2H
  00007	e8 00 00 00 00	 call	 ?GetSingleton@ioSP2GUIManager@@SAAAV1@XZ ; ioSP2GUIManager::GetSingleton
  0000c	8b c8		 mov	 ecx, eax
  0000e	ff 15 00 00 00
	00		 call	 DWORD PTR __imp_?ShowWnd@ioGUIManager@@QAEXK_N@Z

; 332  : }

  00014	c3		 ret	 0
?iwm_show@TutorialWnd@@UAEXXZ ENDP			; TutorialWnd::iwm_show
_TEXT	ENDS
PUBLIC	?iwm_hide@TutorialWnd@@UAEXXZ			; TutorialWnd::iwm_hide
; Function compile flags: /Ogsp
;	COMDAT ?iwm_hide@TutorialWnd@@UAEXXZ
_TEXT	SEGMENT
?iwm_hide@TutorialWnd@@UAEXXZ PROC			; TutorialWnd::iwm_hide, COMDAT
; _this$ = ecx

; 336  : 	
; 337  : }

  00000	c3		 ret	 0
?iwm_hide@TutorialWnd@@UAEXXZ ENDP			; TutorialWnd::iwm_hide
_TEXT	ENDS
PUBLIC	??_C@_0BJ@KHJBODMP@TutorialWnd?3?3iwm_command?$AA@ ; `string'
PUBLIC	??_C@_00CNPNBAHC@?$AA@				; `string'
PUBLIC	?iwm_command@TutorialWnd@@UAEXPAVioWnd@@HK@Z	; TutorialWnd::iwm_command
EXTRN	?SetMsgBox@ioSP2GUIManager@@QAAXHPAVioWnd@@PBDZZ:PROC ; ioSP2GUIManager::SetMsgBox
EXTRN	__imp_?GetString@ioStringManager@@QAEPADPBD0HW4FileNamePrefix@1@@Z:PROC
EXTRN	__imp_?GetSingleton@ioStringManager@@SAAAV1@XZ:PROC
EXTRN	?OnStart@ioTutorialManager@@QAEXXZ:PROC		; ioTutorialManager::OnStart
EXTRN	?OnNext@ioTutorialManager@@QAEXXZ:PROC		; ioTutorialManager::OnNext
EXTRN	__imp_?HideWnd@ioWnd@@QAEXXZ:PROC
EXTRN	?OnClear@ioTutorialManager@@QAEX_N@Z:PROC	; ioTutorialManager::OnClear
EXTRN	?OnAllSkip@ioTutorialManager@@QAEXXZ:PROC	; ioTutorialManager::OnAllSkip
EXTRN	?GetSingleton@ioTutorialManager@@SAAAV1@XZ:PROC	; ioTutorialManager::GetSingleton
EXTRN	__imp_?GetID@ioWnd@@QBEKXZ:PROC
;	COMDAT ??_C@_0BJ@KHJBODMP@TutorialWnd?3?3iwm_command?$AA@
CONST	SEGMENT
??_C@_0BJ@KHJBODMP@TutorialWnd?3?3iwm_command?$AA@ DB 'TutorialWnd::iwm_c'
	DB	'ommand', 00H				; `string'
CONST	ENDS
;	COMDAT ??_C@_00CNPNBAHC@?$AA@
CONST	SEGMENT
??_C@_00CNPNBAHC@?$AA@ DB 00H				; `string'
; Function compile flags: /Ogsp
CONST	ENDS
;	COMDAT ?iwm_command@TutorialWnd@@UAEXPAVioWnd@@HK@Z
_TEXT	SEGMENT
_pWnd$ = 8						; size = 4
_cmd$ = 12						; size = 4
_param$ = 16						; size = 4
?iwm_command@TutorialWnd@@UAEXPAVioWnd@@HK@Z PROC	; TutorialWnd::iwm_command, COMDAT
; _this$ = ecx

; 345  : {

  00000	55		 push	 ebp
  00001	8b ec		 mov	 ebp, esp
  00003	56		 push	 esi
  00004	8b f1		 mov	 esi, ecx

; 346  : 	DWORD dwID = pWnd->GetID();

  00006	8b 4d 08	 mov	 ecx, DWORD PTR _pWnd$[ebp]
  00009	ff 15 00 00 00
	00		 call	 DWORD PTR __imp_?GetID@ioWnd@@QBEKXZ

; 347  : 	switch( dwID )

  0000f	48		 dec	 eax
  00010	0f 84 c0 00 00
	00		 je	 $LN22@iwm_comman
  00016	48		 dec	 eax
  00017	0f 84 a5 00 00
	00		 je	 $LN20@iwm_comman
  0001d	48		 dec	 eax
  0001e	0f 84 8a 00 00
	00		 je	 $LN18@iwm_comman
  00024	48		 dec	 eax
  00025	74 69		 je	 SHORT $LN16@iwm_comman
  00027	48		 dec	 eax
  00028	74 45		 je	 SHORT $LN14@iwm_comman
  0002a	2d 0b 27 00 00	 sub	 eax, 9995		; 0000270bH
  0002f	0f 85 d5 00 00
	00		 jne	 $LN21@iwm_comman

; 387  : 			{
; 388  : 				g_TutorialMgr.OnNext();
; 389  : 			}
; 390  : 		}
; 391  : 		break;
; 392  : 	case MESSAGE_BOX:
; 393  : 		if( cmd == IOBN_BTNUP )

  00035	83 7d 0c 11	 cmp	 DWORD PTR _cmd$[ebp], 17 ; 00000011H
  00039	0f 85 cb 00 00
	00		 jne	 $LN21@iwm_comman

; 394  : 		{
; 395  : 			if( param == IDYES )

  0003f	83 7d 10 06	 cmp	 DWORD PTR _param$[ebp], 6
  00043	0f 85 c1 00 00
	00		 jne	 $LN21@iwm_comman

; 396  : 			{
; 397  : 				if(  m_iCurUseSkipBtnID == ID_START )

  00049	8b 86 a0 01 00
	00		 mov	 eax, DWORD PTR [esi+416]
  0004f	83 f8 02	 cmp	 eax, 2

; 398  : 					g_TutorialMgr.OnAllSkip();

  00052	74 05		 je	 SHORT $LN30@iwm_comman

; 399  : 				else if( m_iCurUseSkipBtnID == ID_NEXT )

  00054	83 f8 03	 cmp	 eax, 3
  00057	75 11		 jne	 SHORT $LN3@iwm_comman
$LN30@iwm_comman:

; 400  : 					g_TutorialMgr.OnAllSkip();

  00059	e8 00 00 00 00	 call	 ?GetSingleton@ioTutorialManager@@SAAAV1@XZ ; ioTutorialManager::GetSingleton
  0005e	8b c8		 mov	 ecx, eax
  00060	e8 00 00 00 00	 call	 ?OnAllSkip@ioTutorialManager@@QAEXXZ ; ioTutorialManager::OnAllSkip
  00065	e9 a0 00 00 00	 jmp	 $LN21@iwm_comman
$LN3@iwm_comman:

; 401  : 				else if( m_iCurUseSkipBtnID == ID_CLEAR )

  0006a	83 f8 04	 cmp	 eax, 4

; 402  : 				{
; 403  : 					g_TutorialMgr.OnClear();
; 404  : 					HideWnd();
; 405  : 				}
; 406  : 			}
; 407  : 		}
; 408  : 		break;

  0006d	eb 25		 jmp	 SHORT $LN28@iwm_comman
$LN14@iwm_comman:

; 374  : 	case ID_SKIP:
; 375  : 		if( cmd == IOBN_BTNUP )

  0006f	83 7d 0c 11	 cmp	 DWORD PTR _cmd$[ebp], 17 ; 00000011H
  00073	0f 85 91 00 00
	00		 jne	 $LN21@iwm_comman

; 376  : 		{
; 377  : 			if( m_iCurStep == 0 )

  00079	8b 86 b4 01 00
	00		 mov	 eax, DWORD PTR [esi+436]
  0007f	85 c0		 test	 eax, eax

; 378  : 			{
; 379  : 				g_TutorialMgr.OnStart();

  00081	74 45		 je	 SHORT $LN27@iwm_comman

; 380  : 			}
; 381  : 			else if( m_iCurStep == m_iMaxStep - 1 )

  00083	8b 8e b8 01 00
	00		 mov	 ecx, DWORD PTR [esi+440]
  00089	49		 dec	 ecx
  0008a	3b c1		 cmp	 eax, ecx
  0008c	75 26		 jne	 SHORT $LN10@iwm_comman

; 382  : 			{
; 383  : 				g_TutorialMgr.OnClear();
; 384  : 				HideWnd();
; 385  : 			}
; 386  : 			else

  0008e	eb 06		 jmp	 SHORT $LN29@iwm_comman
$LN16@iwm_comman:

; 367  : 	case ID_CLEAR:
; 368  : 		if( cmd == IOBN_BTNUP )

  00090	83 7d 0c 11	 cmp	 DWORD PTR _cmd$[ebp], 17 ; 00000011H
$LN28@iwm_comman:
  00094	75 74		 jne	 SHORT $LN21@iwm_comman
$LN29@iwm_comman:

; 369  : 		{
; 370  : 			g_TutorialMgr.OnClear();

  00096	6a 01		 push	 1
  00098	e8 00 00 00 00	 call	 ?GetSingleton@ioTutorialManager@@SAAAV1@XZ ; ioTutorialManager::GetSingleton
  0009d	8b c8		 mov	 ecx, eax
  0009f	e8 00 00 00 00	 call	 ?OnClear@ioTutorialManager@@QAEX_N@Z ; ioTutorialManager::OnClear

; 371  : 			HideWnd();

  000a4	8b ce		 mov	 ecx, esi
  000a6	ff 15 00 00 00
	00		 call	 DWORD PTR __imp_?HideWnd@ioWnd@@QAEXXZ

; 372  : 		}
; 373  : 		break;

  000ac	eb 5c		 jmp	 SHORT $LN21@iwm_comman
$LN18@iwm_comman:

; 361  : 	case ID_NEXT:
; 362  : 		if( cmd == IOBN_BTNUP )

  000ae	83 7d 0c 11	 cmp	 DWORD PTR _cmd$[ebp], 17 ; 00000011H
  000b2	75 56		 jne	 SHORT $LN21@iwm_comman
$LN10@iwm_comman:

; 363  : 		{
; 364  : 			g_TutorialMgr.OnNext();

  000b4	e8 00 00 00 00	 call	 ?GetSingleton@ioTutorialManager@@SAAAV1@XZ ; ioTutorialManager::GetSingleton
  000b9	8b c8		 mov	 ecx, eax
  000bb	e8 00 00 00 00	 call	 ?OnNext@ioTutorialManager@@QAEXXZ ; ioTutorialManager::OnNext

; 365  : 		}
; 366  : 		break;

  000c0	eb 48		 jmp	 SHORT $LN21@iwm_comman
$LN20@iwm_comman:

; 353  : 		}
; 354  : 		break;
; 355  : 	case ID_START:
; 356  : 		if( cmd == IOBN_BTNUP )

  000c2	83 7d 0c 11	 cmp	 DWORD PTR _cmd$[ebp], 17 ; 00000011H
  000c6	75 42		 jne	 SHORT $LN21@iwm_comman
$LN27@iwm_comman:

; 357  : 		{
; 358  : 			g_TutorialMgr.OnStart();

  000c8	e8 00 00 00 00	 call	 ?GetSingleton@ioTutorialManager@@SAAAV1@XZ ; ioTutorialManager::GetSingleton
  000cd	8b c8		 mov	 ecx, eax
  000cf	e8 00 00 00 00	 call	 ?OnStart@ioTutorialManager@@QAEXXZ ; ioTutorialManager::OnStart

; 359  : 		}
; 360  : 		break;

  000d4	eb 34		 jmp	 SHORT $LN21@iwm_comman
$LN22@iwm_comman:

; 348  : 	{
; 349  : 	case ID_EXIT:
; 350  : 		if( cmd == IOBN_BTNUP )

  000d6	83 7d 0c 11	 cmp	 DWORD PTR _cmd$[ebp], 17 ; 00000011H
  000da	75 2e		 jne	 SHORT $LN21@iwm_comman

; 351  : 		{
; 352  : 			g_GUIMgr.SetMsgBox( MB_YESNO, this, STR(1) );

  000dc	6a 00		 push	 0
  000de	6a 01		 push	 1
  000e0	68 00 00 00 00	 push	 OFFSET ??_C@_00CNPNBAHC@?$AA@
  000e5	68 00 00 00 00	 push	 OFFSET ??_C@_0BJ@KHJBODMP@TutorialWnd?3?3iwm_command?$AA@
  000ea	ff 15 00 00 00
	00		 call	 DWORD PTR __imp_?GetSingleton@ioStringManager@@SAAAV1@XZ
  000f0	8b c8		 mov	 ecx, eax
  000f2	ff 15 00 00 00
	00		 call	 DWORD PTR __imp_?GetString@ioStringManager@@QAEPADPBD0HW4FileNamePrefix@1@@Z
  000f8	50		 push	 eax
  000f9	56		 push	 esi
  000fa	6a 04		 push	 4
  000fc	e8 00 00 00 00	 call	 ?GetSingleton@ioSP2GUIManager@@SAAAV1@XZ ; ioSP2GUIManager::GetSingleton
  00101	50		 push	 eax
  00102	e8 00 00 00 00	 call	 ?SetMsgBox@ioSP2GUIManager@@QAAXHPAVioWnd@@PBDZZ ; ioSP2GUIManager::SetMsgBox
  00107	83 c4 10	 add	 esp, 16			; 00000010H
$LN21@iwm_comman:
  0010a	5e		 pop	 esi

; 409  : 	}
; 410  : }

  0010b	5d		 pop	 ebp
  0010c	c2 0c 00	 ret	 12			; 0000000cH
?iwm_command@TutorialWnd@@UAEXPAVioWnd@@HK@Z ENDP	; TutorialWnd::iwm_command
_TEXT	ENDS
PUBLIC	??2@YAPAXIPAX@Z					; operator new
; Function compile flags: /Ogsp
; File c:\program files (x86)\microsoft visual studio 10.0\vc\include\new
;	COMDAT ??2@YAPAXIPAX@Z
_TEXT	SEGMENT
___formal$ = 8						; size = 4
__Where$ = 12						; size = 4
??2@YAPAXIPAX@Z PROC					; operator new, COMDAT

; 56   : 	{	// construct array with placement at _Where

  00000	55		 push	 ebp
  00001	8b ec		 mov	 ebp, esp

; 57   : 	return (_Where);

  00003	8b 45 0c	 mov	 eax, DWORD PTR __Where$[ebp]

; 58   : 	}

  00006	5d		 pop	 ebp
  00007	c3		 ret	 0
??2@YAPAXIPAX@Z ENDP					; operator new
_TEXT	ENDS
PUBLIC	??3@YAXPAX0@Z					; operator delete
; Function compile flags: /Ogsp
;	COMDAT ??3@YAXPAX0@Z
_TEXT	SEGMENT
___formal$ = 8						; size = 4
___formal$ = 12						; size = 4
??3@YAXPAX0@Z PROC					; operator delete, COMDAT

; 62   : 	}

  00000	c3		 ret	 0
??3@YAXPAX0@Z ENDP					; operator delete
_TEXT	ENDS
PUBLIC	?IsTutorialEsc@TutorialWnd@@QAE_NXZ		; TutorialWnd::IsTutorialEsc
EXTRN	__imp_?FindChildWnd@ioWnd@@QAEPAV1@K@Z:PROC
; Function compile flags: /Ogsp
; File d:\lost saga for developer\youtube\tutorial\source\src\lsclient\gui\tutorialwnd.cpp
;	COMDAT ?IsTutorialEsc@TutorialWnd@@QAE_NXZ
_TEXT	SEGMENT
?IsTutorialEsc@TutorialWnd@@QAE_NXZ PROC		; TutorialWnd::IsTutorialEsc, COMDAT
; _this$ = ecx

; 512  : {

  00000	57		 push	 edi
  00001	8b f9		 mov	 edi, ecx

; 513  : 	if( !IsShow() ) return false;

  00003	ff 15 00 00 00
	00		 call	 DWORD PTR __imp_?IsShow@ioWnd@@QBE_NXZ
  00009	84 c0		 test	 al, al
  0000b	75 04		 jne	 SHORT $LN5@IsTutorial
$LN13@IsTutorial:
  0000d	32 c0		 xor	 al, al
  0000f	5f		 pop	 edi

; 539  : }

  00010	c3		 ret	 0
$LN5@IsTutorial:

; 514  : 	if( IsTextTick() ) return false;

  00011	83 bf 70 01 00
	00 00		 cmp	 DWORD PTR [edi+368], 0
  00018	75 f3		 jne	 SHORT $LN13@IsTutorial

; 515  : 
; 516  : 	ioWnd *pButton = FindChildWnd( ID_START );

  0001a	56		 push	 esi
  0001b	8b 35 00 00 00
	00		 mov	 esi, DWORD PTR __imp_?FindChildWnd@ioWnd@@QAEPAV1@K@Z
  00021	6a 02		 push	 2
  00023	8b cf		 mov	 ecx, edi
  00025	ff d6		 call	 esi

; 517  : 	if( pButton && pButton->IsShow() )

  00027	85 c0		 test	 eax, eax
  00029	74 1a		 je	 SHORT $LN3@IsTutorial
  0002b	8b c8		 mov	 ecx, eax
  0002d	ff 15 00 00 00
	00		 call	 DWORD PTR __imp_?IsShow@ioWnd@@QBE_NXZ
  00033	84 c0		 test	 al, al
  00035	74 0e		 je	 SHORT $LN3@IsTutorial

; 518  : 	{
; 519  : 		g_TutorialMgr.OnStart();

  00037	e8 00 00 00 00	 call	 ?GetSingleton@ioTutorialManager@@SAAAV1@XZ ; ioTutorialManager::GetSingleton
  0003c	8b c8		 mov	 ecx, eax
  0003e	e8 00 00 00 00	 call	 ?OnStart@ioTutorialManager@@QAEXXZ ; ioTutorialManager::OnStart

; 520  : 		return true;

  00043	eb 50		 jmp	 SHORT $LN12@IsTutorial
$LN3@IsTutorial:

; 521  : 	}
; 522  : 
; 523  : 	pButton = FindChildWnd( ID_NEXT );

  00045	6a 03		 push	 3
  00047	8b cf		 mov	 ecx, edi
  00049	ff d6		 call	 esi

; 524  : 	if( pButton && pButton->IsShow() )

  0004b	85 c0		 test	 eax, eax
  0004d	74 1a		 je	 SHORT $LN2@IsTutorial
  0004f	8b c8		 mov	 ecx, eax
  00051	ff 15 00 00 00
	00		 call	 DWORD PTR __imp_?IsShow@ioWnd@@QBE_NXZ
  00057	84 c0		 test	 al, al
  00059	74 0e		 je	 SHORT $LN2@IsTutorial

; 525  : 	{
; 526  : 		g_TutorialMgr.OnNext();

  0005b	e8 00 00 00 00	 call	 ?GetSingleton@ioTutorialManager@@SAAAV1@XZ ; ioTutorialManager::GetSingleton
  00060	8b c8		 mov	 ecx, eax
  00062	e8 00 00 00 00	 call	 ?OnNext@ioTutorialManager@@QAEXXZ ; ioTutorialManager::OnNext

; 527  : 		return true;

  00067	eb 2c		 jmp	 SHORT $LN12@IsTutorial
$LN2@IsTutorial:

; 528  : 	}
; 529  : 
; 530  : 	pButton = FindChildWnd( ID_CLEAR );

  00069	6a 04		 push	 4
  0006b	8b cf		 mov	 ecx, edi
  0006d	ff d6		 call	 esi

; 531  : 	if( pButton && pButton->IsShow() )

  0006f	85 c0		 test	 eax, eax
  00071	74 26		 je	 SHORT $LN1@IsTutorial
  00073	8b c8		 mov	 ecx, eax
  00075	ff 15 00 00 00
	00		 call	 DWORD PTR __imp_?IsShow@ioWnd@@QBE_NXZ
  0007b	84 c0		 test	 al, al
  0007d	74 1a		 je	 SHORT $LN1@IsTutorial

; 532  : 	{
; 533  : 		g_TutorialMgr.OnClear();

  0007f	6a 01		 push	 1
  00081	e8 00 00 00 00	 call	 ?GetSingleton@ioTutorialManager@@SAAAV1@XZ ; ioTutorialManager::GetSingleton
  00086	8b c8		 mov	 ecx, eax
  00088	e8 00 00 00 00	 call	 ?OnClear@ioTutorialManager@@QAEX_N@Z ; ioTutorialManager::OnClear

; 534  : 		HideWnd(); 

  0008d	8b cf		 mov	 ecx, edi
  0008f	ff 15 00 00 00
	00		 call	 DWORD PTR __imp_?HideWnd@ioWnd@@QAEXXZ
$LN12@IsTutorial:

; 535  : 		return true;

  00095	b0 01		 mov	 al, 1
  00097	eb 02		 jmp	 SHORT $LN11@IsTutorial
$LN1@IsTutorial:

; 536  : 	}
; 537  : 	
; 538  : 	return false;

  00099	32 c0		 xor	 al, al
$LN11@IsTutorial:
  0009b	5e		 pop	 esi
  0009c	5f		 pop	 edi

; 539  : }

  0009d	c3		 ret	 0
?IsTutorialEsc@TutorialWnd@@QAE_NXZ ENDP		; TutorialWnd::IsTutorialEsc
_TEXT	ENDS
PUBLIC	?length@?$char_traits@D@std@@SAIPBD@Z		; std::char_traits<char>::length
; Function compile flags: /Ogsp
; File c:\program files (x86)\microsoft visual studio 10.0\vc\include\iosfwd
;	COMDAT ?length@?$char_traits@D@std@@SAIPBD@Z
_TEXT	SEGMENT
__First$ = 8						; size = 4
?length@?$char_traits@D@std@@SAIPBD@Z PROC		; std::char_traits<char>::length, COMDAT

; 490  : 		{	// find length of null-terminated string

  00000	55		 push	 ebp
  00001	8b ec		 mov	 ebp, esp

; 491  : 		return (_CSTD strlen(_First));

  00003	8b 45 08	 mov	 eax, DWORD PTR __First$[ebp]
  00006	8d 50 01	 lea	 edx, DWORD PTR [eax+1]
$LL3@length:
  00009	8a 08		 mov	 cl, BYTE PTR [eax]
  0000b	40		 inc	 eax
  0000c	84 c9		 test	 cl, cl
  0000e	75 f9		 jne	 SHORT $LL3@length
  00010	2b c2		 sub	 eax, edx

; 492  : 		}

  00012	5d		 pop	 ebp
  00013	c3		 ret	 0
?length@?$char_traits@D@std@@SAIPBD@Z ENDP		; std::char_traits<char>::length
_TEXT	ENDS
PUBLIC	?copy@?$char_traits@D@std@@SAPADPADPBDI@Z	; std::char_traits<char>::copy
EXTRN	_memcpy:PROC
; Function compile flags: /Ogsp
;	COMDAT ?copy@?$char_traits@D@std@@SAPADPADPBDI@Z
_TEXT	SEGMENT
__First1$ = 8						; size = 4
__First2$ = 12						; size = 4
__Count$ = 16						; size = 4
?copy@?$char_traits@D@std@@SAPADPADPBDI@Z PROC		; std::char_traits<char>::copy, COMDAT

; 496  : 		{	// copy [_First1, _First1 + _Count) to [_First2, ...)

  00000	55		 push	 ebp
  00001	8b ec		 mov	 ebp, esp

; 498  : 		}

  00003	5d		 pop	 ebp

; 497  : 		return ((_Elem *)_CSTD memcpy(_First1, _First2, _Count));

  00004	e9 00 00 00 00	 jmp	 _memcpy
?copy@?$char_traits@D@std@@SAPADPADPBDI@Z ENDP		; std::char_traits<char>::copy
_TEXT	ENDS
PUBLIC	?move@?$char_traits@D@std@@SAPADPADPBDI@Z	; std::char_traits<char>::move
EXTRN	__imp__memmove:PROC
; Function compile flags: /Ogsp
;	COMDAT ?move@?$char_traits@D@std@@SAPADPADPBDI@Z
_TEXT	SEGMENT
__First1$ = 8						; size = 4
__First2$ = 12						; size = 4
__Count$ = 16						; size = 4
?move@?$char_traits@D@std@@SAPADPADPBDI@Z PROC		; std::char_traits<char>::move, COMDAT

; 516  : 		{	// copy [_First1, _First1 + _Count) to [_First2, ...)

  00000	55		 push	 ebp
  00001	8b ec		 mov	 ebp, esp

; 518  : 		}

  00003	5d		 pop	 ebp

; 517  : 		return ((_Elem *)_CSTD memmove(_First1, _First2, _Count));

  00004	ff 25 00 00 00
	00		 jmp	 DWORD PTR __imp__memmove
?move@?$char_traits@D@std@@SAPADPADPBDI@Z ENDP		; std::char_traits<char>::move
_TEXT	ENDS
PUBLIC	?assign@?$char_traits@D@std@@SAXAADABD@Z	; std::char_traits<char>::assign
; Function compile flags: /Ogsp
;	COMDAT ?assign@?$char_traits@D@std@@SAXAADABD@Z
_TEXT	SEGMENT
__Left$ = 8						; size = 4
__Right$ = 12						; size = 4
?assign@?$char_traits@D@std@@SAXAADABD@Z PROC		; std::char_traits<char>::assign, COMDAT

; 526  : 		{	// assign an element

  00000	55		 push	 ebp
  00001	8b ec		 mov	 ebp, esp

; 527  : 		_Left = _Right;

  00003	8b 45 0c	 mov	 eax, DWORD PTR __Right$[ebp]
  00006	8a 00		 mov	 al, BYTE PTR [eax]
  00008	8b 4d 08	 mov	 ecx, DWORD PTR __Left$[ebp]
  0000b	88 01		 mov	 BYTE PTR [ecx], al

; 528  : 		}

  0000d	5d		 pop	 ebp
  0000e	c3		 ret	 0
?assign@?$char_traits@D@std@@SAXAADABD@Z ENDP		; std::char_traits<char>::assign
_TEXT	ENDS
PUBLIC	?SetSkipBtn@TutorialWnd@@IAEXHH@Z		; TutorialWnd::SetSkipBtn
EXTRN	__imp_?SetChildInActive@ioWnd@@QAEXK@Z:PROC
; Function compile flags: /Ogsp
; File d:\lost saga for developer\youtube\tutorial\source\src\lsclient\gui\tutorialwnd.cpp
;	COMDAT ?SetSkipBtn@TutorialWnd@@IAEXHH@Z
_TEXT	SEGMENT
_iCurStep$ = 8						; size = 4
_iMaxStep$ = 12						; size = 4
?SetSkipBtn@TutorialWnd@@IAEXHH@Z PROC			; TutorialWnd::SetSkipBtn, COMDAT
; _this$ = ecx

; 603  : {

  00000	55		 push	 ebp
  00001	8b ec		 mov	 ebp, esp
  00003	56		 push	 esi

; 604  : 	SetChildInActive( ID_EXIT );

  00004	6a 01		 push	 1
  00006	8b f1		 mov	 esi, ecx
  00008	ff 15 00 00 00
	00		 call	 DWORD PTR __imp_?SetChildInActive@ioWnd@@QAEXK@Z

; 605  : 	m_dwCurSkipBtnShowTime = 0;

  0000e	83 a6 94 01 00
	00 00		 and	 DWORD PTR [esi+404], 0

; 606  : 	
; 607  : 	if( iCurStep == 0 )

  00015	83 7d 08 00	 cmp	 DWORD PTR _iCurStep$[ebp], 0
  00019	75 0c		 jne	 SHORT $LN4@SetSkipBtn

; 608  : 		m_iCurUseSkipBtnID = ID_START;

  0001b	c7 86 a0 01 00
	00 02 00 00 00	 mov	 DWORD PTR [esi+416], 2
  00025	eb 15		 jmp	 SHORT $LN2@SetSkipBtn
$LN4@SetSkipBtn:

; 609  : 	else if( iCurStep == iMaxStep - 1 )

  00027	8b 45 0c	 mov	 eax, DWORD PTR _iMaxStep$[ebp]
  0002a	48		 dec	 eax
  0002b	33 c9		 xor	 ecx, ecx
  0002d	39 45 08	 cmp	 DWORD PTR _iCurStep$[ebp], eax
  00030	0f 94 c1	 sete	 cl
  00033	83 c1 03	 add	 ecx, 3
  00036	89 8e a0 01 00
	00		 mov	 DWORD PTR [esi+416], ecx
$LN2@SetSkipBtn:
  0003c	5e		 pop	 esi

; 610  : 		m_iCurUseSkipBtnID = ID_CLEAR;
; 611  : 	else
; 612  : 		m_iCurUseSkipBtnID = ID_NEXT;
; 613  : }

  0003d	5d		 pop	 ebp
  0003e	c2 08 00	 ret	 8
?SetSkipBtn@TutorialWnd@@IAEXHH@Z ENDP			; TutorialWnd::SetSkipBtn
_TEXT	ENDS
PUBLIC	??_7TutorialKeyboardWnd@@6B@			; TutorialKeyboardWnd::`vftable'
PUBLIC	??0TutorialKeyboardWnd@@QAE@XZ			; TutorialKeyboardWnd::TutorialKeyboardWnd
PUBLIC	??_R4TutorialKeyboardWnd@@6B@			; TutorialKeyboardWnd::`RTTI Complete Object Locator'
PUBLIC	??_R0?AVTutorialKeyboardWnd@@@8			; TutorialKeyboardWnd `RTTI Type Descriptor'
PUBLIC	??_R3TutorialKeyboardWnd@@8			; TutorialKeyboardWnd::`RTTI Class Hierarchy Descriptor'
PUBLIC	??_R2TutorialKeyboardWnd@@8			; TutorialKeyboardWnd::`RTTI Base Class Array'
PUBLIC	??_R1A@?0A@EA@TutorialKeyboardWnd@@8		; TutorialKeyboardWnd::`RTTI Base Class Descriptor at (0,-1,0,64)'
PUBLIC	?AddRenderImage@TutorialKeyboardWnd@@MAEXABVioHashString@@PAVioUIRenderImage@@@Z ; TutorialKeyboardWnd::AddRenderImage
PUBLIC	?OnRender@TutorialKeyboardWnd@@MAEXXZ		; TutorialKeyboardWnd::OnRender
PUBLIC	?OnProcess@TutorialKeyboardWnd@@MAEXM@Z		; TutorialKeyboardWnd::OnProcess
PUBLIC	?iwm_show@TutorialKeyboardWnd@@UAEXXZ		; TutorialKeyboardWnd::iwm_show
PUBLIC	?iwm_hide@TutorialKeyboardWnd@@UAEXXZ		; TutorialKeyboardWnd::iwm_hide
EXTRN	__imp_??0ioWnd@@QAE@XZ:PROC
EXTRN	?AddRenderFrame@ioWnd@@UAEXABVioHashString@@PAVioUIRenderFrame@@@Z:PROC ; ioWnd::AddRenderFrame
EXTRN	?ParseExtraInfo@ioWnd@@UAEXAAVioXMLElement@@@Z:PROC ; ioWnd::ParseExtraInfo
EXTRN	?SetWindowAlpha@ioWnd@@UAEXH@Z:PROC		; ioWnd::SetWindowAlpha
EXTRN	?CheckFrameReSize@ioWnd@@MAEXHHHH@Z:PROC	; ioWnd::CheckFrameReSize
EXTRN	?iwm_create@ioWnd@@UAEXXZ:PROC			; ioWnd::iwm_create
EXTRN	?iwm_lbuttondown@ioWnd@@UAEXABVioMouse@@@Z:PROC	; ioWnd::iwm_lbuttondown
EXTRN	?iwm_lbuttonup@ioWnd@@UAEXABVioMouse@@@Z:PROC	; ioWnd::iwm_lbuttonup
EXTRN	?iwm_lbuttonDBLCLK@ioWnd@@UAEXABVioMouse@@@Z:PROC ; ioWnd::iwm_lbuttonDBLCLK
EXTRN	?iwm_rbuttondown@ioWnd@@UAEXABVioMouse@@@Z:PROC	; ioWnd::iwm_rbuttondown
EXTRN	?iwm_rbuttonup@ioWnd@@UAEXABVioMouse@@@Z:PROC	; ioWnd::iwm_rbuttonup
EXTRN	?iwm_mouseover@ioWnd@@UAEXABVioMouse@@@Z:PROC	; ioWnd::iwm_mouseover
EXTRN	?GetWndType@ioWnd@@UBEKXZ:PROC			; ioWnd::GetWndType
EXTRN	?GetHeaderFileName@ioWnd@@UAEPBDXZ:PROC		; ioWnd::GetHeaderFileName
EXTRN	?GetTemplateName@ioWnd@@UAEPBDXZ:PROC		; ioWnd::GetTemplateName
EXTRN	?GetDefClassName@ioWnd@@UBEPBDXZ:PROC		; ioWnd::GetDefClassName
EXTRN	?_Clone@ioWnd@@UAEPAV1@XZ:PROC			; ioWnd::_Clone
EXTRN	?Copy@ioWnd@@UAEXPAV1@@Z:PROC			; ioWnd::Copy
EXTRN	?SetSaveData@ioWnd@@UAEXAAVioXMLElement@@@Z:PROC ; ioWnd::SetSaveData
EXTRN	?GetNumFixedRenderFrame@ioWnd@@UBEHXZ:PROC	; ioWnd::GetNumFixedRenderFrame
EXTRN	?GetFixedRenderFrameType@ioWnd@@UAEPBDH@Z:PROC	; ioWnd::GetFixedRenderFrameType
EXTRN	?GetRenderFrame@ioWnd@@UAEPAPAVioUIRenderElement@@PBD@Z:PROC ; ioWnd::GetRenderFrame
EXTRN	?GetNumFixedRenderImage@ioWnd@@UBEHXZ:PROC	; ioWnd::GetNumFixedRenderImage
EXTRN	?GetFixedRenderImageType@ioWnd@@UAEPBDH@Z:PROC	; ioWnd::GetFixedRenderImageType
EXTRN	?GetRenderImage@ioWnd@@UAEPAPAVioUIRenderElement@@PBD@Z:PROC ; ioWnd::GetRenderImage
EXTRN	??_ETutorialKeyboardWnd@@UAEPAXI@Z:PROC		; TutorialKeyboardWnd::`vector deleting destructor'
;	COMDAT ??_R1A@?0A@EA@TutorialKeyboardWnd@@8
rdata$r	SEGMENT
??_R1A@?0A@EA@TutorialKeyboardWnd@@8 DD FLAT:??_R0?AVTutorialKeyboardWnd@@@8 ; TutorialKeyboardWnd::`RTTI Base Class Descriptor at (0,-1,0,64)'
	DD	01H
	DD	00H
	DD	0ffffffffH
	DD	00H
	DD	040H
	DD	FLAT:??_R3TutorialKeyboardWnd@@8
rdata$r	ENDS
;	COMDAT ??_R2TutorialKeyboardWnd@@8
rdata$r	SEGMENT
??_R2TutorialKeyboardWnd@@8 DD FLAT:??_R1A@?0A@EA@TutorialKeyboardWnd@@8 ; TutorialKeyboardWnd::`RTTI Base Class Array'
	DD	FLAT:??_R1A@?0A@EA@ioWnd@@8
rdata$r	ENDS
;	COMDAT ??_R3TutorialKeyboardWnd@@8
rdata$r	SEGMENT
??_R3TutorialKeyboardWnd@@8 DD 00H			; TutorialKeyboardWnd::`RTTI Class Hierarchy Descriptor'
	DD	00H
	DD	02H
	DD	FLAT:??_R2TutorialKeyboardWnd@@8
rdata$r	ENDS
;	COMDAT ??_R0?AVTutorialKeyboardWnd@@@8
_DATA	SEGMENT
??_R0?AVTutorialKeyboardWnd@@@8 DD FLAT:??_7type_info@@6B@ ; TutorialKeyboardWnd `RTTI Type Descriptor'
	DD	00H
	DB	'.?AVTutorialKeyboardWnd@@', 00H
_DATA	ENDS
;	COMDAT ??_R4TutorialKeyboardWnd@@6B@
rdata$r	SEGMENT
??_R4TutorialKeyboardWnd@@6B@ DD 00H			; TutorialKeyboardWnd::`RTTI Complete Object Locator'
	DD	00H
	DD	00H
	DD	FLAT:??_R0?AVTutorialKeyboardWnd@@@8
	DD	FLAT:??_R3TutorialKeyboardWnd@@8
rdata$r	ENDS
;	COMDAT ??_7TutorialKeyboardWnd@@6B@
CONST	SEGMENT
??_7TutorialKeyboardWnd@@6B@ DD FLAT:??_R4TutorialKeyboardWnd@@6B@ ; TutorialKeyboardWnd::`vftable'
	DD	FLAT:?AddRenderFrame@ioWnd@@UAEXABVioHashString@@PAVioUIRenderFrame@@@Z
	DD	FLAT:?AddRenderImage@TutorialKeyboardWnd@@MAEXABVioHashString@@PAVioUIRenderImage@@@Z
	DD	FLAT:?AddTooltipHelp@ioWnd@@UAEXABVioHashString@@00@Z
	DD	FLAT:?ParseExtraInfo@ioWnd@@UAEXAAVioXMLElement@@@Z
	DD	FLAT:?AddNamedRenderImage@ioWnd@@UAEXABVioHashString@@PAVioUIRenderImage@@@Z
	DD	FLAT:?RemoveNamedRenderImage@ioWnd@@UAEXABVioHashString@@@Z
	DD	FLAT:?GetNamedRenderImage@ioWnd@@UBEPAVioUIRenderImage@@ABVioHashString@@@Z
	DD	FLAT:?SetWindowAlpha@ioWnd@@UAEXH@Z
	DD	FLAT:?SetActive@ioWnd@@UAEXXZ
	DD	FLAT:?SetInActive@ioWnd@@UAEXXZ
	DD	FLAT:?ClearElementImageList@ioWnd@@UAEXXZ
	DD	FLAT:?SetSize@ioWnd@@UAEXHH@Z
	DD	FLAT:?SetPositionToDefault@ioWnd@@UAEXHH_N0@Z
	DD	FLAT:?IsNeedProcess@ioWnd@@UBE_NXZ
	DD	FLAT:?IsCanMouseReaction@ioWnd@@UBE_NXZ
	DD	FLAT:?AddChild@ioWnd@@UAEXPAV1@@Z
	DD	FLAT:?DeleteChild@ioWnd@@UAEXK@Z
	DD	FLAT:?DeleteAllChild@ioWnd@@UAEXXZ
	DD	FLAT:?OnRenderShowAndHide@ioWnd@@MAE_NXZ
	DD	FLAT:?OnRenderShowAndHideByDefault@ioWnd@@MAE_NK@Z
	DD	FLAT:?OnRenderShowAndHideByTop@ioWnd@@MAE_NK@Z
	DD	FLAT:?OnRenderShowAndHideByDown@ioWnd@@MAE_NK@Z
	DD	FLAT:?OnRender@TutorialKeyboardWnd@@MAEXXZ
	DD	FLAT:?OnRenderAfterChild@ioWnd@@MAEXXZ
	DD	FLAT:?OnProcess@TutorialKeyboardWnd@@MAEXM@Z
	DD	FLAT:?OnMouseProcess@ioWnd@@MAEXABVioMouse@@@Z
	DD	FLAT:?CheckFrameReSize@ioWnd@@MAEXHHHH@Z
	DD	FLAT:?RenderImageList@ioWnd@@MAEXHHW4UIRenderType@@@Z
	DD	FLAT:?iwm_create@ioWnd@@UAEXXZ
	DD	FLAT:?iwm_destroy@ioWnd@@UAEXXZ
	DD	FLAT:?iwm_lbuttondown@ioWnd@@UAEXABVioMouse@@@Z
	DD	FLAT:?iwm_lbuttonup@ioWnd@@UAEXABVioMouse@@@Z
	DD	FLAT:?iwm_lbuttonDBLCLK@ioWnd@@UAEXABVioMouse@@@Z
	DD	FLAT:?iwm_rbuttondown@ioWnd@@UAEXABVioMouse@@@Z
	DD	FLAT:?iwm_rbuttonup@ioWnd@@UAEXABVioMouse@@@Z
	DD	FLAT:?iwm_command@ioWnd@@UAEXPAV1@HK@Z
	DD	FLAT:?iwm_mouseover@ioWnd@@UAEXABVioMouse@@@Z
	DD	FLAT:?iwm_mousemove@ioWnd@@UAEXABVioMouse@@@Z
	DD	FLAT:?iwm_mouseleave@ioWnd@@UAEXABVioMouse@@@Z
	DD	FLAT:?iwm_vscroll@ioWnd@@UAEXKH@Z
	DD	FLAT:?iwm_wheel@ioWnd@@UAEXH@Z
	DD	FLAT:?iwm_show@TutorialKeyboardWnd@@UAEXXZ
	DD	FLAT:?iwm_hide@TutorialKeyboardWnd@@UAEXXZ
	DD	FLAT:?iwm_esc@ioWnd@@UAE_NXZ
	DD	FLAT:?iwm_spacebar@ioWnd@@UAE_NXZ
	DD	FLAT:?iwm_gototop@ioWnd@@UAEXXZ
	DD	FLAT:?iwm_dragenter@ioWnd@@UAE?AW4IWDropEffect@@PAVioDragItem@@ABVioMouse@@@Z
	DD	FLAT:?iwm_dragover@ioWnd@@UAE?AW4IWDropEffect@@PAVioDragItem@@ABVioMouse@@@Z
	DD	FLAT:?iwm_dragleave@ioWnd@@UAEXXZ
	DD	FLAT:?iwm_dropitem@ioWnd@@UAE_NPAVioDragItem@@ABVioMouse@@PAV1@@Z
	DD	FLAT:?iwm_dropdone@ioWnd@@UAEXPAVioDragItem@@PAV1@_N@Z
	DD	FLAT:?IsEXType@ioWnd@@UBE_NXZ
	DD	FLAT:?GetWndType@ioWnd@@UBEKXZ
	DD	FLAT:?RenderWnd@ioWnd@@UAEXXZ
	DD	FLAT:?SetIDEX@ioWnd@@UAEXAAK_N@Z
	DD	FLAT:?ParseXML@ioWnd@@UAEXAAVioXMLElement@@@Z
	DD	FLAT:?GetHeaderFileName@ioWnd@@UAEPBDXZ
	DD	FLAT:?GetTemplateName@ioWnd@@UAEPBDXZ
	DD	FLAT:?GetDefClassName@ioWnd@@UBEPBDXZ
	DD	FLAT:?_Clone@ioWnd@@UAEPAV1@XZ
	DD	FLAT:?Copy@ioWnd@@UAEXPAV1@@Z
	DD	FLAT:?Save@ioWnd@@UAE_NAAVioXMLElement@@@Z
	DD	FLAT:?SetSaveData@ioWnd@@UAEXAAVioXMLElement@@@Z
	DD	FLAT:?SetPosX@ioWnd@@UAEXH@Z
	DD	FLAT:?SetPosY@ioWnd@@UAEXH@Z
	DD	FLAT:?SetWidth@ioWnd@@UAEXH@Z
	DD	FLAT:?SetHeight@ioWnd@@UAEXH@Z
	DD	FLAT:?GetNumFixedRenderFrame@ioWnd@@UBEHXZ
	DD	FLAT:?GetFixedRenderFrameType@ioWnd@@UAEPBDH@Z
	DD	FLAT:?GetRenderFrame@ioWnd@@UAEPAPAVioUIRenderElement@@PBD@Z
	DD	FLAT:?GetNumFixedRenderImage@ioWnd@@UBEHXZ
	DD	FLAT:?GetFixedRenderImageType@ioWnd@@UAEPBDH@Z
	DD	FLAT:?GetRenderImage@ioWnd@@UAEPAPAVioUIRenderElement@@PBD@Z
	DD	FLAT:?AddEffect@ioWnd@@UAEXABVioHashString@@PAVioUI3DEffectRender@@@Z
	DD	FLAT:?GetEffect@ioWnd@@UAEPAVioUI3DEffectRender@@VioHashString@@@Z
	DD	FLAT:??_ETutorialKeyboardWnd@@UAEPAXI@Z
; Function compile flags: /Ogsp
CONST	ENDS
;	COMDAT ??0TutorialKeyboardWnd@@QAE@XZ
_TEXT	SEGMENT
??0TutorialKeyboardWnd@@QAE@XZ PROC			; TutorialKeyboardWnd::TutorialKeyboardWnd, COMDAT
; _this$ = ecx

; 628  : {

  00000	56		 push	 esi
  00001	8b f1		 mov	 esi, ecx
  00003	ff 15 00 00 00
	00		 call	 DWORD PTR __imp_??0ioWnd@@QAE@XZ

; 629  : 	m_pButtonNormal = NULL;
; 630  : 	m_pButtonOver	= NULL;
; 631  : 	m_pArrowLeft	= NULL;
; 632  : 	m_pArrowUp		= NULL;
; 633  : 
; 634  : 	m_bShowProcess  = false;
; 635  : 	m_fProcessRate  = 0.0f;

  00009	0f 57 c0	 xorps	 xmm0, xmm0
  0000c	33 c0		 xor	 eax, eax
  0000e	89 86 60 01 00
	00		 mov	 DWORD PTR [esi+352], eax
  00014	89 86 64 01 00
	00		 mov	 DWORD PTR [esi+356], eax
  0001a	89 86 68 01 00
	00		 mov	 DWORD PTR [esi+360], eax
  00020	89 86 6c 01 00
	00		 mov	 DWORD PTR [esi+364], eax
  00026	88 86 70 01 00
	00		 mov	 BYTE PTR [esi+368], al

; 636  : 	m_dwProcessTimer= 0;

  0002c	89 86 78 01 00
	00		 mov	 DWORD PTR [esi+376], eax

; 637  : 
; 638  : 	m_bKeyA = m_bKeyS = m_bKeyD = m_bKeyLeft = false;

  00032	89 86 7c 01 00
	00		 mov	 DWORD PTR [esi+380], eax

; 639  : 	m_bKeyRight = m_bKeyUp = m_bKeyDown = false;

  00038	66 89 86 81 01
	00 00		 mov	 WORD PTR [esi+385], ax
  0003f	88 86 80 01 00
	00		 mov	 BYTE PTR [esi+384], al
  00045	c7 06 00 00 00
	00		 mov	 DWORD PTR [esi], OFFSET ??_7TutorialKeyboardWnd@@6B@
  0004b	f3 0f 11 86 74
	01 00 00	 movss	 DWORD PTR [esi+372], xmm0

; 640  : }

  00053	8b c6		 mov	 eax, esi
  00055	5e		 pop	 esi
  00056	c3		 ret	 0
??0TutorialKeyboardWnd@@QAE@XZ ENDP			; TutorialKeyboardWnd::TutorialKeyboardWnd
_TEXT	ENDS
PUBLIC	??1TutorialKeyboardWnd@@UAE@XZ			; TutorialKeyboardWnd::~TutorialKeyboardWnd
EXTRN	__imp_??1ioWnd@@UAE@XZ:PROC
EXTRN	___CxxFrameHandler3:PROC
EXTRN	@__security_check_cookie@4:PROC
EXTRN	__EH_epilog3:PROC
EXTRN	__EH_prolog3:PROC
;	COMDAT xdata$x
xdata$x	SEGMENT
__unwindtable$??1TutorialKeyboardWnd@@UAE@XZ DD 0ffffffffH
	DD	FLAT:__unwindfunclet$??1TutorialKeyboardWnd@@UAE@XZ$0
__ehfuncinfo$??1TutorialKeyboardWnd@@UAE@XZ DD 019930522H
	DD	01H
	DD	FLAT:__unwindtable$??1TutorialKeyboardWnd@@UAE@XZ
	DD	2 DUP(00H)
	DD	2 DUP(00H)
	DD	00H
	DD	01H
; Function compile flags: /Ogsp
xdata$x	ENDS
;	COMDAT ??1TutorialKeyboardWnd@@UAE@XZ
_TEXT	SEGMENT
_this$ = -16						; size = 4
__$EHRec$ = -12						; size = 12
??1TutorialKeyboardWnd@@UAE@XZ PROC			; TutorialKeyboardWnd::~TutorialKeyboardWnd, COMDAT
; _this$ = ecx

; 643  : {

  00000	6a 04		 push	 4
  00002	b8 00 00 00 00	 mov	 eax, __ehhandler$??1TutorialKeyboardWnd@@UAE@XZ
  00007	e8 00 00 00 00	 call	 __EH_prolog3
  0000c	8b f1		 mov	 esi, ecx
  0000e	89 75 f0	 mov	 DWORD PTR _this$[ebp], esi
  00011	c7 06 00 00 00
	00		 mov	 DWORD PTR [esi], OFFSET ??_7TutorialKeyboardWnd@@6B@

; 644  : 	SAFEDELETE( m_pButtonNormal );

  00017	8b 8e 60 01 00
	00		 mov	 ecx, DWORD PTR [esi+352]
  0001d	33 db		 xor	 ebx, ebx
  0001f	89 5d fc	 mov	 DWORD PTR __$EHRec$[ebp+8], ebx
  00022	3b cb		 cmp	 ecx, ebx
  00024	74 0d		 je	 SHORT $LN4@TutorialKe
  00026	8b 01		 mov	 eax, DWORD PTR [ecx]
  00028	6a 01		 push	 1
  0002a	ff 50 40	 call	 DWORD PTR [eax+64]
  0002d	89 9e 60 01 00
	00		 mov	 DWORD PTR [esi+352], ebx
$LN4@TutorialKe:

; 645  : 	SAFEDELETE( m_pButtonOver );

  00033	8b 8e 64 01 00
	00		 mov	 ecx, DWORD PTR [esi+356]
  00039	3b cb		 cmp	 ecx, ebx
  0003b	74 0d		 je	 SHORT $LN3@TutorialKe
  0003d	8b 01		 mov	 eax, DWORD PTR [ecx]
  0003f	6a 01		 push	 1
  00041	ff 50 40	 call	 DWORD PTR [eax+64]
  00044	89 9e 64 01 00
	00		 mov	 DWORD PTR [esi+356], ebx
$LN3@TutorialKe:

; 646  : 	SAFEDELETE( m_pArrowLeft );

  0004a	8b 8e 68 01 00
	00		 mov	 ecx, DWORD PTR [esi+360]
  00050	3b cb		 cmp	 ecx, ebx
  00052	74 0d		 je	 SHORT $LN2@TutorialKe
  00054	8b 01		 mov	 eax, DWORD PTR [ecx]
  00056	6a 01		 push	 1
  00058	ff 50 40	 call	 DWORD PTR [eax+64]
  0005b	89 9e 68 01 00
	00		 mov	 DWORD PTR [esi+360], ebx
$LN2@TutorialKe:

; 647  : 	SAFEDELETE( m_pArrowUp );

  00061	8b 8e 6c 01 00
	00		 mov	 ecx, DWORD PTR [esi+364]
  00067	3b cb		 cmp	 ecx, ebx
  00069	74 0d		 je	 SHORT $LN1@TutorialKe
  0006b	8b 01		 mov	 eax, DWORD PTR [ecx]
  0006d	6a 01		 push	 1
  0006f	ff 50 40	 call	 DWORD PTR [eax+64]
  00072	89 9e 6c 01 00
	00		 mov	 DWORD PTR [esi+364], ebx
$LN1@TutorialKe:

; 648  : }

  00078	83 4d fc ff	 or	 DWORD PTR __$EHRec$[ebp+8], -1
  0007c	8b ce		 mov	 ecx, esi
  0007e	ff 15 00 00 00
	00		 call	 DWORD PTR __imp_??1ioWnd@@UAE@XZ
  00084	e8 00 00 00 00	 call	 __EH_epilog3
  00089	c3		 ret	 0
_TEXT	ENDS
;	COMDAT text$x
text$x	SEGMENT
__unwindfunclet$??1TutorialKeyboardWnd@@UAE@XZ$0:
  00000	8b 4d f0	 mov	 ecx, DWORD PTR _this$[ebp]
  00003	ff 25 00 00 00
	00		 jmp	 DWORD PTR __imp_??1ioWnd@@UAE@XZ
__ehhandler$??1TutorialKeyboardWnd@@UAE@XZ:
  00009	8b 54 24 08	 mov	 edx, DWORD PTR [esp+8]
  0000d	8d 42 0c	 lea	 eax, DWORD PTR [edx+12]
  00010	8b 4a ec	 mov	 ecx, DWORD PTR [edx-20]
  00013	33 c8		 xor	 ecx, eax
  00015	e8 00 00 00 00	 call	 @__security_check_cookie@4
  0001a	b8 00 00 00 00	 mov	 eax, OFFSET __ehfuncinfo$??1TutorialKeyboardWnd@@UAE@XZ
  0001f	e9 00 00 00 00	 jmp	 ___CxxFrameHandler3
text$x	ENDS
??1TutorialKeyboardWnd@@UAE@XZ ENDP			; TutorialKeyboardWnd::~TutorialKeyboardWnd
; Function compile flags: /Ogsp
;	COMDAT ?iwm_show@TutorialKeyboardWnd@@UAEXXZ
_TEXT	SEGMENT
?iwm_show@TutorialKeyboardWnd@@UAEXXZ PROC		; TutorialKeyboardWnd::iwm_show, COMDAT
; _this$ = ecx

; 680  : 	m_bShowProcess  = true;
; 681  : 	m_fProcessRate  = 0.0f;

  00000	0f 57 c0	 xorps	 xmm0, xmm0
  00003	56		 push	 esi
  00004	8b f1		 mov	 esi, ecx
  00006	c6 86 70 01 00
	00 01		 mov	 BYTE PTR [esi+368], 1
  0000d	f3 0f 11 86 74
	01 00 00	 movss	 DWORD PTR [esi+372], xmm0

; 682  : 	m_dwProcessTimer= FRAMEGETTIME();

  00015	ff 15 00 00 00
	00		 call	 DWORD PTR __imp_?GetSingleton@ioFrameTimer@@SAAAV1@XZ
  0001b	8b c8		 mov	 ecx, eax
  0001d	ff 15 00 00 00
	00		 call	 DWORD PTR __imp_?GetLoopSec@ioFrameTimer@@QBEKXZ
  00023	89 86 78 01 00
	00		 mov	 DWORD PTR [esi+376], eax

; 683  : 
; 684  : 	m_bKeyA = m_bKeyS = m_bKeyD = m_bKeyLeft = false;

  00029	32 c0		 xor	 al, al
  0002b	c7 86 7c 01 00
	00 00 00 00 00	 mov	 DWORD PTR [esi+380], 0

; 685  : 	m_bKeyRight = m_bKeyUp = m_bKeyDown = false;

  00035	66 c7 86 81 01
	00 00 00 00	 mov	 WORD PTR [esi+385], 0
  0003e	88 86 80 01 00
	00		 mov	 BYTE PTR [esi+384], al
  00044	5e		 pop	 esi

; 686  : }

  00045	c3		 ret	 0
?iwm_show@TutorialKeyboardWnd@@UAEXXZ ENDP		; TutorialKeyboardWnd::iwm_show
; Function compile flags: /Ogsp
_TEXT	ENDS
;	COMDAT ?iwm_hide@TutorialKeyboardWnd@@UAEXXZ
_TEXT	SEGMENT
?iwm_hide@TutorialKeyboardWnd@@UAEXXZ PROC		; TutorialKeyboardWnd::iwm_hide, COMDAT
; _this$ = ecx

; 690  : 
; 691  : }

  00000	c3		 ret	 0
?iwm_hide@TutorialKeyboardWnd@@UAEXXZ ENDP		; TutorialKeyboardWnd::iwm_hide
_TEXT	ENDS
PUBLIC	__real@4f800000
PUBLIC	?SetHideProcess@TutorialKeyboardWnd@@QAEXXZ	; TutorialKeyboardWnd::SetHideProcess
;	COMDAT __real@4f800000
; File d:\lost saga for developer\youtube\tutorial\source\src\lsclient\stdafx.h
CONST	SEGMENT
__real@4f800000 DD 04f800000r			; 4.29497e+009
; Function compile flags: /Ogsp
; File d:\lost saga for developer\youtube\tutorial\source\src\lsclient\gui\tutorialwnd.cpp
CONST	ENDS
;	COMDAT ?SetHideProcess@TutorialKeyboardWnd@@QAEXXZ
_TEXT	SEGMENT
tv136 = -4						; size = 4
?SetHideProcess@TutorialKeyboardWnd@@QAEXXZ PROC	; TutorialKeyboardWnd::SetHideProcess, COMDAT
; _this$ = ecx

; 694  : {

  00000	55		 push	 ebp
  00001	8b ec		 mov	 ebp, esp
  00003	51		 push	 ecx
  00004	56		 push	 esi
  00005	8b f1		 mov	 esi, ecx

; 695  : 	m_bShowProcess  = false;

  00007	c6 86 70 01 00
	00 00		 mov	 BYTE PTR [esi+368], 0

; 696  : 	m_fProcessRate  = FLOAT1;

  0000e	b8 01 00 00 00	 mov	 eax, 1
  00013	89 45 fc	 mov	 DWORD PTR tv136[ebp], eax
  00016	db 45 fc	 fild	 DWORD PTR tv136[ebp]
  00019	85 c0		 test	 eax, eax
  0001b	79 06		 jns	 SHORT $LN5@SetHidePro
  0001d	d8 05 00 00 00
	00		 fadd	 DWORD PTR __real@4f800000
$LN5@SetHidePro:
  00023	d9 9e 74 01 00
	00		 fstp	 DWORD PTR [esi+372]

; 697  : 	m_dwProcessTimer= FRAMEGETTIME();

  00029	ff 15 00 00 00
	00		 call	 DWORD PTR __imp_?GetSingleton@ioFrameTimer@@SAAAV1@XZ
  0002f	8b c8		 mov	 ecx, eax
  00031	ff 15 00 00 00
	00		 call	 DWORD PTR __imp_?GetLoopSec@ioFrameTimer@@QBEKXZ
  00037	89 86 78 01 00
	00		 mov	 DWORD PTR [esi+376], eax
  0003d	5e		 pop	 esi

; 698  : }

  0003e	c9		 leave
  0003f	c3		 ret	 0
?SetHideProcess@TutorialKeyboardWnd@@QAEXXZ ENDP	; TutorialKeyboardWnd::SetHideProcess
_TEXT	ENDS
PUBLIC	?OnProcessKeyCheck@TutorialKeyboardWnd@@IAEXXZ	; TutorialKeyboardWnd::OnProcessKeyCheck
EXTRN	__imp__GetAsyncKeyState@4:PROC
; Function compile flags: /Ogsp
;	COMDAT ?OnProcessKeyCheck@TutorialKeyboardWnd@@IAEXXZ
_TEXT	SEGMENT
?OnProcessKeyCheck@TutorialKeyboardWnd@@IAEXXZ PROC	; TutorialKeyboardWnd::OnProcessKeyCheck, COMDAT
; _this$ = ecx

; 710  : {

  00000	53		 push	 ebx
  00001	56		 push	 esi
  00002	57		 push	 edi

; 711  : 	m_bKeyA = m_bKeyS = m_bKeyD = m_bKeyLeft = false;
; 712  : 	m_bKeyRight = m_bKeyUp = m_bKeyDown = false;
; 713  : 
; 714  : 	// A
; 715  : 	if( GetAsyncKeyState( 'A' ) & 0x8000 )

  00003	8b 3d 00 00 00
	00		 mov	 edi, DWORD PTR __imp__GetAsyncKeyState@4
  00009	8b f1		 mov	 esi, ecx
  0000b	32 c0		 xor	 al, al
  0000d	6a 41		 push	 65			; 00000041H
  0000f	c7 86 7c 01 00
	00 00 00 00 00	 mov	 DWORD PTR [esi+380], 0
  00019	66 c7 86 81 01
	00 00 00 00	 mov	 WORD PTR [esi+385], 0
  00022	88 86 80 01 00
	00		 mov	 BYTE PTR [esi+384], al
  00028	ff d7		 call	 edi
  0002a	bb 00 80 00 00	 mov	 ebx, 32768		; 00008000H
  0002f	66 85 c3	 test	 ax, bx
  00032	74 07		 je	 SHORT $LN7@OnProcessK

; 716  : 	{
; 717  : 		m_bKeyA = true;

  00034	c6 86 7c 01 00
	00 01		 mov	 BYTE PTR [esi+380], 1
$LN7@OnProcessK:

; 718  : 	}
; 719  : 
; 720  : 	// S
; 721  : 	if( GetAsyncKeyState( 'S' ) & 0x8000 )

  0003b	6a 53		 push	 83			; 00000053H
  0003d	ff d7		 call	 edi
  0003f	66 85 c3	 test	 ax, bx
  00042	74 07		 je	 SHORT $LN6@OnProcessK

; 722  : 	{
; 723  : 		m_bKeyS = true;

  00044	c6 86 7d 01 00
	00 01		 mov	 BYTE PTR [esi+381], 1
$LN6@OnProcessK:

; 724  : 	}
; 725  : 
; 726  : 	// D
; 727  : 	if( GetAsyncKeyState( 'D' ) & 0x8000 )

  0004b	6a 44		 push	 68			; 00000044H
  0004d	ff d7		 call	 edi
  0004f	66 85 c3	 test	 ax, bx
  00052	74 07		 je	 SHORT $LN5@OnProcessK

; 728  : 	{
; 729  : 		m_bKeyD = true;

  00054	c6 86 7e 01 00
	00 01		 mov	 BYTE PTR [esi+382], 1
$LN5@OnProcessK:

; 730  : 	}
; 731  : 
; 732  : 	// UP
; 733  : 	if( GetAsyncKeyState( VK_UP ) & 0x8000 )

  0005b	6a 26		 push	 38			; 00000026H
  0005d	ff d7		 call	 edi
  0005f	66 85 c3	 test	 ax, bx
  00062	74 07		 je	 SHORT $LN4@OnProcessK

; 734  : 	{
; 735  : 		m_bKeyUp = true;

  00064	c6 86 81 01 00
	00 01		 mov	 BYTE PTR [esi+385], 1
$LN4@OnProcessK:

; 736  : 	}
; 737  : 
; 738  : 	// LEFT
; 739  : 	if( GetAsyncKeyState( VK_LEFT ) & 0x8000 )

  0006b	6a 25		 push	 37			; 00000025H
  0006d	ff d7		 call	 edi
  0006f	66 85 c3	 test	 ax, bx
  00072	74 07		 je	 SHORT $LN3@OnProcessK

; 740  : 	{
; 741  : 		m_bKeyLeft = true;

  00074	c6 86 7f 01 00
	00 01		 mov	 BYTE PTR [esi+383], 1
$LN3@OnProcessK:

; 742  : 	}
; 743  : 
; 744  : 	// DOWN
; 745  : 	if( GetAsyncKeyState( VK_DOWN ) & 0x8000 )

  0007b	6a 28		 push	 40			; 00000028H
  0007d	ff d7		 call	 edi
  0007f	66 85 c3	 test	 ax, bx
  00082	74 07		 je	 SHORT $LN2@OnProcessK

; 746  : 	{
; 747  : 		m_bKeyDown = true;

  00084	c6 86 82 01 00
	00 01		 mov	 BYTE PTR [esi+386], 1
$LN2@OnProcessK:

; 748  : 	}
; 749  : 
; 750  : 	// RIGHT
; 751  : 	if( GetAsyncKeyState( VK_RIGHT ) & 0x8000 )

  0008b	6a 27		 push	 39			; 00000027H
  0008d	ff d7		 call	 edi
  0008f	66 85 c3	 test	 ax, bx
  00092	74 07		 je	 SHORT $LN1@OnProcessK

; 752  : 	{
; 753  : 		m_bKeyRight = true;

  00094	c6 86 80 01 00
	00 01		 mov	 BYTE PTR [esi+384], 1
$LN1@OnProcessK:
  0009b	5f		 pop	 edi
  0009c	5e		 pop	 esi
  0009d	5b		 pop	 ebx

; 754  : 	}
; 755  : }

  0009e	c3		 ret	 0
?OnProcessKeyCheck@TutorialKeyboardWnd@@IAEXXZ ENDP	; TutorialKeyboardWnd::OnProcessKeyCheck
_TEXT	ENDS
PUBLIC	?OnProcessShow@TutorialKeyboardWnd@@IAEXXZ	; TutorialKeyboardWnd::OnProcessShow
; Function compile flags: /Ogsp
;	COMDAT ?OnProcessShow@TutorialKeyboardWnd@@IAEXXZ
_TEXT	SEGMENT
tv173 = -16						; size = 8
tv255 = -12						; size = 4
tv251 = -12						; size = 4
tv241 = -12						; size = 4
tv236 = -12						; size = 4
tv227 = -12						; size = 4
tv224 = -12						; size = 4
tv69 = -12						; size = 4
tv353 = -8						; size = 4
tv329 = -8						; size = 4
tv325 = -8						; size = 4
tv317 = -8						; size = 4
tv314 = -8						; size = 4
tv305 = -8						; size = 4
tv302 = -8						; size = 4
tv246 = -8						; size = 4
tv232 = -8						; size = 4
tv221 = -8						; size = 4
tv214 = -8						; size = 4
$T521661 = -8						; size = 4
tv321 = -4						; size = 4
tv310 = -4						; size = 4
tv299 = -4						; size = 4
tv293 = -4						; size = 4
$T521657 = -4						; size = 4
$T521634 = -4						; size = 4
?OnProcessShow@TutorialKeyboardWnd@@IAEXXZ PROC		; TutorialKeyboardWnd::OnProcessShow, COMDAT
; _this$ = ecx

; 758  : {

  00000	55		 push	 ebp
  00001	8b ec		 mov	 ebp, esp
  00003	83 ec 10	 sub	 esp, 16			; 00000010H
  00006	53		 push	 ebx
  00007	56		 push	 esi
  00008	8b f1		 mov	 esi, ecx

; 759  : 	if( m_dwProcessTimer == 0 )

  0000a	33 db		 xor	 ebx, ebx
  0000c	39 9e 78 01 00
	00		 cmp	 DWORD PTR [esi+376], ebx
  00012	0f 84 da 01 00
	00		 je	 $LN1@OnProcessS

; 760  : 		return;
; 761  : 
; 762  : 	DWORD dwGapTime = FRAMEGETTIME() - m_dwProcessTimer;

  00018	57		 push	 edi
  00019	ff 15 00 00 00
	00		 call	 DWORD PTR __imp_?GetSingleton@ioFrameTimer@@SAAAV1@XZ
  0001f	8b c8		 mov	 ecx, eax
  00021	ff 15 00 00 00
	00		 call	 DWORD PTR __imp_?GetLoopSec@ioFrameTimer@@QBEKXZ
  00027	8b c8		 mov	 ecx, eax
  00029	2b 8e 78 01 00
	00		 sub	 ecx, DWORD PTR [esi+376]

; 763  : 	if( m_bShowProcess )

  0002f	38 9e 70 01 00
	00		 cmp	 BYTE PTR [esi+368], bl
  00035	0f 84 d4 00 00
	00		 je	 $LN6@OnProcessS

; 764  : 	{
; 765  : 		if( dwGapTime >= 1000 )

  0003b	81 f9 e8 03 00
	00		 cmp	 ecx, 1000		; 000003e8H
  00041	72 20		 jb	 SHORT $LN5@OnProcessS

; 766  : 		{
; 767  : 			m_fProcessRate	= FLOAT1;

  00043	b8 01 00 00 00	 mov	 eax, 1
  00048	89 45 f8	 mov	 DWORD PTR tv353[ebp], eax
  0004b	db 45 f8	 fild	 DWORD PTR tv353[ebp]
  0004e	85 c0		 test	 eax, eax
  00050	79 06		 jns	 SHORT $LN39@OnProcessS
  00052	d8 05 00 00 00
	00		 fadd	 DWORD PTR __real@4f800000
$LN39@OnProcessS:

; 768  : 			m_dwProcessTimer= 0;

  00058	89 9e 78 01 00
	00		 mov	 DWORD PTR [esi+376], ebx

; 769  : 		}
; 770  : 		else

  0005e	e9 88 01 00 00	 jmp	 $LN53@OnProcessS
$LN5@OnProcessS:

; 771  : 		{
; 772  : 			m_fProcessRate  = sinf( ( FLOAT_PI * FLOAT05 ) * (float)( dwGapTime ) / FLOAT1000 );

  00063	b8 4e e6 40 bb	 mov	 eax, -1153374642	; bb40e64eH
  00068	8b d0		 mov	 edx, eax
  0006a	b8 00 ca 9a 3b	 mov	 eax, 1000000000		; 3b9aca00H
  0006f	8b f8		 mov	 edi, eax
  00071	b8 05 00 00 00	 mov	 eax, 5
  00076	8b d8		 mov	 ebx, eax
  00078	b8 0a 00 00 00	 mov	 eax, 10			; 0000000aH
  0007d	89 45 fc	 mov	 DWORD PTR $T521634[ebp], eax
  00080	b8 e8 03 00 00	 mov	 eax, 1000		; 000003e8H
  00085	89 5d f8	 mov	 DWORD PTR tv329[ebp], ebx
  00088	db 45 f8	 fild	 DWORD PTR tv329[ebp]
  0008b	85 db		 test	 ebx, ebx
  0008d	79 06		 jns	 SHORT $LN40@OnProcessS
  0008f	d8 05 00 00 00
	00		 fadd	 DWORD PTR __real@4f800000
$LN40@OnProcessS:
  00095	8b 5d fc	 mov	 ebx, DWORD PTR $T521634[ebp]
  00098	db 45 fc	 fild	 DWORD PTR $T521634[ebp]
  0009b	85 db		 test	 ebx, ebx
  0009d	79 06		 jns	 SHORT $LN41@OnProcessS
  0009f	d8 05 00 00 00
	00		 fadd	 DWORD PTR __real@4f800000
$LN41@OnProcessS:
  000a5	de f9		 fdivp	 ST(1), ST(0)
  000a7	89 55 f8	 mov	 DWORD PTR tv317[ebp], edx
  000aa	d9 5d fc	 fstp	 DWORD PTR tv321[ebp]
  000ad	d9 45 fc	 fld	 DWORD PTR tv321[ebp]
  000b0	db 45 f8	 fild	 DWORD PTR tv317[ebp]
  000b3	85 d2		 test	 edx, edx
  000b5	79 06		 jns	 SHORT $LN42@OnProcessS
  000b7	d8 05 00 00 00
	00		 fadd	 DWORD PTR __real@4f800000
$LN42@OnProcessS:
  000bd	89 7d f8	 mov	 DWORD PTR tv314[ebp], edi
  000c0	db 45 f8	 fild	 DWORD PTR tv314[ebp]
  000c3	85 ff		 test	 edi, edi
  000c5	79 06		 jns	 SHORT $LN43@OnProcessS
  000c7	d8 05 00 00 00
	00		 fadd	 DWORD PTR __real@4f800000
$LN43@OnProcessS:
  000cd	de f9		 fdivp	 ST(1), ST(0)
  000cf	89 4d f8	 mov	 DWORD PTR tv305[ebp], ecx
  000d2	d9 5d fc	 fstp	 DWORD PTR tv310[ebp]
  000d5	d8 4d fc	 fmul	 DWORD PTR tv310[ebp]
  000d8	db 45 f8	 fild	 DWORD PTR tv305[ebp]
  000db	85 c9		 test	 ecx, ecx
  000dd	79 06		 jns	 SHORT $LN44@OnProcessS
  000df	d8 05 00 00 00
	00		 fadd	 DWORD PTR __real@4f800000
$LN44@OnProcessS:
  000e5	89 45 f8	 mov	 DWORD PTR tv302[ebp], eax
  000e8	de c9		 fmulp	 ST(1), ST(0)
  000ea	db 45 f8	 fild	 DWORD PTR tv302[ebp]
  000ed	85 c0		 test	 eax, eax
  000ef	79 06		 jns	 SHORT $LN45@OnProcessS
  000f1	d8 05 00 00 00
	00		 fadd	 DWORD PTR __real@4f800000
$LN45@OnProcessS:
  000f7	de f9		 fdivp	 ST(1), ST(0)
  000f9	d9 5d fc	 fstp	 DWORD PTR tv299[ebp]
  000fc	d9 45 fc	 fld	 DWORD PTR tv299[ebp]
  000ff	e8 00 00 00 00	 call	 __CIsin
  00104	d9 5d fc	 fstp	 DWORD PTR tv293[ebp]
  00107	d9 45 fc	 fld	 DWORD PTR tv293[ebp]

; 773  : 		}
; 774  : 	}
; 775  : 	else

  0010a	e9 dc 00 00 00	 jmp	 $LN53@OnProcessS
$LN6@OnProcessS:

; 776  : 	{
; 777  : 		if( dwGapTime >= 1000 )

  0010f	81 f9 e8 03 00
	00		 cmp	 ecx, 1000		; 000003e8H
  00115	72 0d		 jb	 SHORT $LN2@OnProcessS

; 778  : 		{
; 779  : 			HideWnd();

  00117	8b ce		 mov	 ecx, esi
  00119	ff 15 00 00 00
	00		 call	 DWORD PTR __imp_?HideWnd@ioWnd@@QAEXXZ

; 780  : 		}
; 781  : 		else

  0011f	e9 cd 00 00 00	 jmp	 $LN38@OnProcessS
$LN2@OnProcessS:

; 782  : 		{
; 783  : 			m_fProcessRate  = FLOAT1 - sinf( ( FLOAT_PI * FLOAT05 ) * (float)( dwGapTime ) / FLOAT1000 );

  00124	b8 01 00 00 00	 mov	 eax, 1
  00129	8b d0		 mov	 edx, eax
  0012b	b8 4e e6 40 bb	 mov	 eax, -1153374642	; bb40e64eH
  00130	8b f8		 mov	 edi, eax
  00132	b8 00 ca 9a 3b	 mov	 eax, 1000000000		; 3b9aca00H
  00137	8b d8		 mov	 ebx, eax
  00139	b8 05 00 00 00	 mov	 eax, 5
  0013e	89 45 fc	 mov	 DWORD PTR $T521657[ebp], eax
  00141	b8 0a 00 00 00	 mov	 eax, 10			; 0000000aH
  00146	89 45 f8	 mov	 DWORD PTR $T521661[ebp], eax
  00149	b8 e8 03 00 00	 mov	 eax, 1000		; 000003e8H
  0014e	89 55 f4	 mov	 DWORD PTR tv69[ebp], edx
  00151	db 45 f4	 fild	 DWORD PTR tv69[ebp]
  00154	85 d2		 test	 edx, edx
  00156	79 06		 jns	 SHORT $LN46@OnProcessS
  00158	d8 05 00 00 00
	00		 fadd	 DWORD PTR __real@4f800000
$LN46@OnProcessS:
  0015e	8b 55 fc	 mov	 edx, DWORD PTR $T521657[ebp]
  00161	db 45 fc	 fild	 DWORD PTR $T521657[ebp]
  00164	85 d2		 test	 edx, edx
  00166	79 06		 jns	 SHORT $LN47@OnProcessS
  00168	d8 05 00 00 00
	00		 fadd	 DWORD PTR __real@4f800000
$LN47@OnProcessS:
  0016e	8b 55 f8	 mov	 edx, DWORD PTR $T521661[ebp]
  00171	db 45 f8	 fild	 DWORD PTR $T521661[ebp]
  00174	85 d2		 test	 edx, edx
  00176	79 06		 jns	 SHORT $LN48@OnProcessS
  00178	d8 05 00 00 00
	00		 fadd	 DWORD PTR __real@4f800000
$LN48@OnProcessS:
  0017e	de f9		 fdivp	 ST(1), ST(0)
  00180	89 7d f4	 mov	 DWORD PTR tv241[ebp], edi
  00183	d9 5d f8	 fstp	 DWORD PTR tv246[ebp]
  00186	d9 45 f8	 fld	 DWORD PTR tv246[ebp]
  00189	db 45 f4	 fild	 DWORD PTR tv241[ebp]
  0018c	85 ff		 test	 edi, edi
  0018e	79 06		 jns	 SHORT $LN49@OnProcessS
  00190	d8 05 00 00 00
	00		 fadd	 DWORD PTR __real@4f800000
$LN49@OnProcessS:
  00196	89 5d f4	 mov	 DWORD PTR tv236[ebp], ebx
  00199	db 45 f4	 fild	 DWORD PTR tv236[ebp]
  0019c	85 db		 test	 ebx, ebx
  0019e	79 06		 jns	 SHORT $LN50@OnProcessS
  001a0	d8 05 00 00 00
	00		 fadd	 DWORD PTR __real@4f800000
$LN50@OnProcessS:
  001a6	de f9		 fdivp	 ST(1), ST(0)
  001a8	89 4d f4	 mov	 DWORD PTR tv227[ebp], ecx
  001ab	d9 5d f8	 fstp	 DWORD PTR tv232[ebp]
  001ae	d8 4d f8	 fmul	 DWORD PTR tv232[ebp]
  001b1	db 45 f4	 fild	 DWORD PTR tv227[ebp]
  001b4	85 c9		 test	 ecx, ecx
  001b6	79 06		 jns	 SHORT $LN51@OnProcessS
  001b8	d8 05 00 00 00
	00		 fadd	 DWORD PTR __real@4f800000
$LN51@OnProcessS:
  001be	89 45 f4	 mov	 DWORD PTR tv224[ebp], eax
  001c1	de c9		 fmulp	 ST(1), ST(0)
  001c3	db 45 f4	 fild	 DWORD PTR tv224[ebp]
  001c6	85 c0		 test	 eax, eax
  001c8	79 06		 jns	 SHORT $LN52@OnProcessS
  001ca	d8 05 00 00 00
	00		 fadd	 DWORD PTR __real@4f800000
$LN52@OnProcessS:
  001d0	de f9		 fdivp	 ST(1), ST(0)
  001d2	d9 5d f8	 fstp	 DWORD PTR tv221[ebp]
  001d5	d9 45 f8	 fld	 DWORD PTR tv221[ebp]
  001d8	d9 c9		 fxch	 ST(1)
  001da	dd 5d f0	 fstp	 QWORD PTR tv173[ebp]
  001dd	e8 00 00 00 00	 call	 __CIsin
  001e2	d9 5d f8	 fstp	 DWORD PTR tv214[ebp]
  001e5	d9 45 f8	 fld	 DWORD PTR tv214[ebp]
  001e8	dc 6d f0	 fsubr	 QWORD PTR tv173[ebp]
$LN53@OnProcessS:
  001eb	d9 9e 74 01 00
	00		 fstp	 DWORD PTR [esi+372]
$LN38@OnProcessS:
  001f1	5f		 pop	 edi
$LN1@OnProcessS:
  001f2	5e		 pop	 esi
  001f3	5b		 pop	 ebx

; 784  : 		}
; 785  : 	}
; 786  : }

  001f4	c9		 leave
  001f5	c3		 ret	 0
?OnProcessShow@TutorialKeyboardWnd@@IAEXXZ ENDP		; TutorialKeyboardWnd::OnProcessShow
_TEXT	ENDS
PUBLIC	??_C@_01CKDDGHAB@D?$AA@				; `string'
PUBLIC	??_C@_01CPLAODJH@S?$AA@				; `string'
PUBLIC	??_C@_01FHEEJDEE@A?$AA@				; `string'
PUBLIC	__real@3f733333
PUBLIC	__real@3f266666
PUBLIC	??_C@_0CB@JEFHEJAF@TutorialKeyboardWnd?3?3OnRenderASD@ ; `string'
PUBLIC	?OnRenderASD@TutorialKeyboardWnd@@IAEXHH@Z	; TutorialKeyboardWnd::OnRenderASD
EXTRN	__imp_?PrintText@ioFontManager@@QAAXMMMPBDZZ:PROC
EXTRN	__imp_?SetTextColor@ioFontManager@@QAEXHHH@Z:PROC
EXTRN	__imp_?SetBkColor@ioFontManager@@QAEXHHH@Z:PROC
EXTRN	__imp_?SetTextStyle@ioFontManager@@QAEXW4TextStyle@@@Z:PROC
EXTRN	__imp_?SetAlignType@ioFontManager@@QAEXW4TextAlignType@@@Z:PROC
EXTRN	__imp_?GetSingleton@ioFontManager@@SAAAV1@XZ:PROC
;	COMDAT ??_C@_01CKDDGHAB@D?$AA@
CONST	SEGMENT
??_C@_01CKDDGHAB@D?$AA@ DB 'D', 00H			; `string'
CONST	ENDS
;	COMDAT ??_C@_01CPLAODJH@S?$AA@
CONST	SEGMENT
??_C@_01CPLAODJH@S?$AA@ DB 'S', 00H			; `string'
CONST	ENDS
;	COMDAT ??_C@_01FHEEJDEE@A?$AA@
CONST	SEGMENT
??_C@_01FHEEJDEE@A?$AA@ DB 'A', 00H			; `string'
CONST	ENDS
;	COMDAT __real@3f733333
CONST	SEGMENT
__real@3f733333 DD 03f733333r			; 0.95
CONST	ENDS
;	COMDAT __real@3f266666
CONST	SEGMENT
__real@3f266666 DD 03f266666r			; 0.65
CONST	ENDS
;	COMDAT ??_C@_0CB@JEFHEJAF@TutorialKeyboardWnd?3?3OnRenderASD@
CONST	SEGMENT
??_C@_0CB@JEFHEJAF@TutorialKeyboardWnd?3?3OnRenderASD@ DB 'TutorialKeyboa'
	DB	'rdWnd::OnRenderASD', 00H			; `string'
; Function compile flags: /Ogsp
CONST	ENDS
;	COMDAT ?OnRenderASD@TutorialKeyboardWnd@@IAEXHH@Z
_TEXT	SEGMENT
tv417 = 8						; size = 4
tv361 = 8						; size = 4
_iXPos$ = 8						; size = 4
tv425 = 12						; size = 4
_iYPos$ = 12						; size = 4
?OnRenderASD@TutorialKeyboardWnd@@IAEXHH@Z PROC		; TutorialKeyboardWnd::OnRenderASD, COMDAT
; _this$ = ecx

; 800  : {

  00000	55		 push	 ebp
  00001	8b ec		 mov	 ebp, esp
  00003	53		 push	 ebx
  00004	56		 push	 esi
  00005	8b f1		 mov	 esi, ecx

; 801  : 	if( m_pButtonNormal )

  00007	33 db		 xor	 ebx, ebx
  00009	57		 push	 edi
  0000a	8b 7d 08	 mov	 edi, DWORD PTR _iXPos$[ebp]
  0000d	39 9e 60 01 00
	00		 cmp	 DWORD PTR [esi+352], ebx
  00013	0f 84 8b 00 00
	00		 je	 $LN8@OnRenderAS

; 802  : 	{
; 803  : 		m_pButtonNormal->Render( iXPos + 2, iYPos + 36 );

  00019	8b 8e 60 01 00
	00		 mov	 ecx, DWORD PTR [esi+352]
  0001f	8b 45 0c	 mov	 eax, DWORD PTR _iYPos$[ebp]
  00022	53		 push	 ebx
  00023	53		 push	 ebx
  00024	53		 push	 ebx
  00025	53		 push	 ebx
  00026	83 c0 24	 add	 eax, 36			; 00000024H
  00029	0f 57 c0	 xorps	 xmm0, xmm0
  0002c	f3 0f 2a c0	 cvtsi2ss xmm0, eax
  00030	8b 01		 mov	 eax, DWORD PTR [ecx]
  00032	51		 push	 ecx
  00033	51		 push	 ecx
  00034	f3 0f 11 44 24
	04		 movss	 DWORD PTR [esp+4], xmm0
  0003a	f3 0f 11 45 08	 movss	 DWORD PTR tv361[ebp], xmm0
  0003f	8d 57 02	 lea	 edx, DWORD PTR [edi+2]
  00042	0f 57 c0	 xorps	 xmm0, xmm0
  00045	f3 0f 2a c2	 cvtsi2ss xmm0, edx
  00049	f3 0f 11 04 24	 movss	 DWORD PTR [esp], xmm0
  0004e	ff 10		 call	 DWORD PTR [eax]

; 804  : 		m_pButtonNormal->Render( iXPos + 50, iYPos + 36 );

  00050	8b 8e 60 01 00
	00		 mov	 ecx, DWORD PTR [esi+352]
  00056	f3 0f 10 45 08	 movss	 xmm0, DWORD PTR tv361[ebp]
  0005b	8b 01		 mov	 eax, DWORD PTR [ecx]
  0005d	53		 push	 ebx
  0005e	53		 push	 ebx
  0005f	53		 push	 ebx
  00060	53		 push	 ebx
  00061	51		 push	 ecx
  00062	51		 push	 ecx
  00063	f3 0f 11 44 24
	04		 movss	 DWORD PTR [esp+4], xmm0
  00069	8d 57 32	 lea	 edx, DWORD PTR [edi+50]
  0006c	0f 57 c0	 xorps	 xmm0, xmm0
  0006f	f3 0f 2a c2	 cvtsi2ss xmm0, edx
  00073	f3 0f 11 04 24	 movss	 DWORD PTR [esp], xmm0
  00078	ff 10		 call	 DWORD PTR [eax]

; 805  : 		m_pButtonNormal->Render( iXPos + 98, iYPos + 36 );

  0007a	8b 8e 60 01 00
	00		 mov	 ecx, DWORD PTR [esi+352]
  00080	f3 0f 10 45 08	 movss	 xmm0, DWORD PTR tv361[ebp]
  00085	8b 01		 mov	 eax, DWORD PTR [ecx]
  00087	53		 push	 ebx
  00088	53		 push	 ebx
  00089	53		 push	 ebx
  0008a	53		 push	 ebx
  0008b	51		 push	 ecx
  0008c	51		 push	 ecx
  0008d	f3 0f 11 44 24
	04		 movss	 DWORD PTR [esp+4], xmm0
  00093	8d 57 62	 lea	 edx, DWORD PTR [edi+98]
  00096	0f 57 c0	 xorps	 xmm0, xmm0
  00099	f3 0f 2a c2	 cvtsi2ss xmm0, edx
  0009d	f3 0f 11 04 24	 movss	 DWORD PTR [esp], xmm0
  000a2	ff 10		 call	 DWORD PTR [eax]
$LN8@OnRenderAS:

; 806  : 	}
; 807  : 
; 808  : 	if( m_pButtonOver )

  000a4	39 9e 64 01 00
	00		 cmp	 DWORD PTR [esi+356], ebx
  000aa	0f 84 b3 00 00
	00		 je	 $LN9@OnRenderAS

; 809  : 	{
; 810  : 		if( m_bKeyA )

  000b0	38 9e 7c 01 00
	00		 cmp	 BYTE PTR [esi+380], bl
  000b6	74 33		 je	 SHORT $LN3@OnRenderAS

; 811  : 			m_pButtonOver->Render( iXPos + 2, iYPos + 36, UI_RENDER_SCREEN );

  000b8	8b 8e 64 01 00
	00		 mov	 ecx, DWORD PTR [esi+356]
  000be	8b 55 0c	 mov	 edx, DWORD PTR _iYPos$[ebp]
  000c1	8b 01		 mov	 eax, DWORD PTR [ecx]
  000c3	53		 push	 ebx
  000c4	53		 push	 ebx
  000c5	53		 push	 ebx
  000c6	6a 01		 push	 1
  000c8	83 c2 24	 add	 edx, 36			; 00000024H
  000cb	0f 57 c0	 xorps	 xmm0, xmm0
  000ce	f3 0f 2a c2	 cvtsi2ss xmm0, edx
  000d2	51		 push	 ecx
  000d3	51		 push	 ecx
  000d4	f3 0f 11 44 24
	04		 movss	 DWORD PTR [esp+4], xmm0
  000da	8d 57 02	 lea	 edx, DWORD PTR [edi+2]
  000dd	0f 57 c0	 xorps	 xmm0, xmm0
  000e0	f3 0f 2a c2	 cvtsi2ss xmm0, edx
  000e4	f3 0f 11 04 24	 movss	 DWORD PTR [esp], xmm0
  000e9	ff 10		 call	 DWORD PTR [eax]
$LN3@OnRenderAS:

; 812  : 		if( m_bKeyS )

  000eb	38 9e 7d 01 00
	00		 cmp	 BYTE PTR [esi+381], bl
  000f1	74 33		 je	 SHORT $LN2@OnRenderAS

; 813  : 			m_pButtonOver->Render( iXPos + 50, iYPos + 36, UI_RENDER_SCREEN );

  000f3	8b 8e 64 01 00
	00		 mov	 ecx, DWORD PTR [esi+356]
  000f9	8b 55 0c	 mov	 edx, DWORD PTR _iYPos$[ebp]
  000fc	8b 01		 mov	 eax, DWORD PTR [ecx]
  000fe	53		 push	 ebx
  000ff	53		 push	 ebx
  00100	53		 push	 ebx
  00101	6a 01		 push	 1
  00103	83 c2 24	 add	 edx, 36			; 00000024H
  00106	0f 57 c0	 xorps	 xmm0, xmm0
  00109	f3 0f 2a c2	 cvtsi2ss xmm0, edx
  0010d	51		 push	 ecx
  0010e	51		 push	 ecx
  0010f	f3 0f 11 44 24
	04		 movss	 DWORD PTR [esp+4], xmm0
  00115	8d 57 32	 lea	 edx, DWORD PTR [edi+50]
  00118	0f 57 c0	 xorps	 xmm0, xmm0
  0011b	f3 0f 2a c2	 cvtsi2ss xmm0, edx
  0011f	f3 0f 11 04 24	 movss	 DWORD PTR [esp], xmm0
  00124	ff 10		 call	 DWORD PTR [eax]
$LN2@OnRenderAS:

; 814  : 		if( m_bKeyD )

  00126	38 9e 7e 01 00
	00		 cmp	 BYTE PTR [esi+382], bl
  0012c	74 35		 je	 SHORT $LN9@OnRenderAS

; 815  : 			m_pButtonOver->Render( iXPos + 98, iYPos + 36, UI_RENDER_SCREEN );

  0012e	8b 4d 0c	 mov	 ecx, DWORD PTR _iYPos$[ebp]
  00131	8b b6 64 01 00
	00		 mov	 esi, DWORD PTR [esi+356]
  00137	8b 06		 mov	 eax, DWORD PTR [esi]
  00139	53		 push	 ebx
  0013a	53		 push	 ebx
  0013b	53		 push	 ebx
  0013c	83 c1 24	 add	 ecx, 36			; 00000024H
  0013f	6a 01		 push	 1
  00141	51		 push	 ecx
  00142	51		 push	 ecx
  00143	0f 57 c0	 xorps	 xmm0, xmm0
  00146	f3 0f 2a c1	 cvtsi2ss xmm0, ecx
  0014a	f3 0f 11 44 24
	04		 movss	 DWORD PTR [esp+4], xmm0
  00150	8d 4f 62	 lea	 ecx, DWORD PTR [edi+98]
  00153	0f 57 c0	 xorps	 xmm0, xmm0
  00156	f3 0f 2a c1	 cvtsi2ss xmm0, ecx
  0015a	8b ce		 mov	 ecx, esi
  0015c	f3 0f 11 04 24	 movss	 DWORD PTR [esp], xmm0
  00161	ff 10		 call	 DWORD PTR [eax]
$LN9@OnRenderAS:

; 816  : 	}
; 817  : 
; 818  : 	g_FontMgr.SetAlignType( TAT_CENTER );

  00163	8b 35 00 00 00
	00		 mov	 esi, DWORD PTR __imp_?GetSingleton@ioFontManager@@SAAAV1@XZ
  00169	6a 01		 push	 1
  0016b	ff d6		 call	 esi
  0016d	8b c8		 mov	 ecx, eax
  0016f	ff 15 00 00 00
	00		 call	 DWORD PTR __imp_?SetAlignType@ioFontManager@@QAEXW4TextAlignType@@@Z

; 819  : 	g_FontMgr.SetTextStyle( TS_OUTLINE_FULL_2X );

  00175	6a 05		 push	 5
  00177	ff d6		 call	 esi
  00179	8b c8		 mov	 ecx, eax
  0017b	ff 15 00 00 00
	00		 call	 DWORD PTR __imp_?SetTextStyle@ioFontManager@@QAEXW4TextStyle@@@Z

; 820  : 	g_FontMgr.SetBkColor( 34, 34, 34 );

  00181	6a 22		 push	 34			; 00000022H
  00183	6a 22		 push	 34			; 00000022H
  00185	6a 22		 push	 34			; 00000022H
  00187	ff d6		 call	 esi
  00189	8b c8		 mov	 ecx, eax
  0018b	ff 15 00 00 00
	00		 call	 DWORD PTR __imp_?SetBkColor@ioFontManager@@QAEXHHH@Z

; 821  : 	g_FontMgr.SetTextColor( 204, 204, 204 );

  00191	b8 cc 00 00 00	 mov	 eax, 204		; 000000ccH
  00196	50		 push	 eax
  00197	50		 push	 eax
  00198	50		 push	 eax
  00199	ff d6		 call	 esi
  0019b	8b c8		 mov	 ecx, eax
  0019d	ff 15 00 00 00
	00		 call	 DWORD PTR __imp_?SetTextColor@ioFontManager@@QAEXHHH@Z

; 822  : 	g_FontMgr.PrintText( iXPos + 25, iYPos + 18, FONT_SIZE_13, STR(1) );

  001a3	8b 45 0c	 mov	 eax, DWORD PTR _iYPos$[ebp]
  001a6	53		 push	 ebx
  001a7	6a 01		 push	 1
  001a9	83 c0 12	 add	 eax, 18			; 00000012H
  001ac	0f 57 c0	 xorps	 xmm0, xmm0
  001af	68 00 00 00 00	 push	 OFFSET ??_C@_00CNPNBAHC@?$AA@
  001b4	f3 0f 2a c0	 cvtsi2ss xmm0, eax
  001b8	68 00 00 00 00	 push	 OFFSET ??_C@_0CB@JEFHEJAF@TutorialKeyboardWnd?3?3OnRenderASD@
  001bd	f3 0f 11 45 08	 movss	 DWORD PTR tv417[ebp], xmm0
  001c2	ff 15 00 00 00
	00		 call	 DWORD PTR __imp_?GetSingleton@ioStringManager@@SAAAV1@XZ
  001c8	8b c8		 mov	 ecx, eax
  001ca	ff 15 00 00 00
	00		 call	 DWORD PTR __imp_?GetString@ioStringManager@@QAEPADPBD0HW4FileNamePrefix@1@@Z
  001d0	f3 0f 10 05 00
	00 00 00	 movss	 xmm0, DWORD PTR __real@3f266666
  001d8	50		 push	 eax
  001d9	83 ec 0c	 sub	 esp, 12			; 0000000cH
  001dc	f3 0f 11 44 24
	08		 movss	 DWORD PTR [esp+8], xmm0
  001e2	f3 0f 10 45 08	 movss	 xmm0, DWORD PTR tv417[ebp]
  001e7	f3 0f 11 44 24
	04		 movss	 DWORD PTR [esp+4], xmm0
  001ed	8d 47 19	 lea	 eax, DWORD PTR [edi+25]
  001f0	0f 57 c0	 xorps	 xmm0, xmm0
  001f3	f3 0f 2a c0	 cvtsi2ss xmm0, eax
  001f7	f3 0f 11 04 24	 movss	 DWORD PTR [esp], xmm0
  001fc	ff d6		 call	 esi
  001fe	8b 1d 00 00 00
	00		 mov	 ebx, DWORD PTR __imp_?PrintText@ioFontManager@@QAAXMMMPBDZZ
  00204	50		 push	 eax
  00205	ff d3		 call	 ebx
  00207	83 c4 14	 add	 esp, 20			; 00000014H

; 823  : 	g_FontMgr.PrintText( iXPos + 73, iYPos + 18, FONT_SIZE_13, STR(2) );

  0020a	6a 00		 push	 0
  0020c	6a 02		 push	 2
  0020e	68 00 00 00 00	 push	 OFFSET ??_C@_00CNPNBAHC@?$AA@
  00213	68 00 00 00 00	 push	 OFFSET ??_C@_0CB@JEFHEJAF@TutorialKeyboardWnd?3?3OnRenderASD@
  00218	ff 15 00 00 00
	00		 call	 DWORD PTR __imp_?GetSingleton@ioStringManager@@SAAAV1@XZ
  0021e	8b c8		 mov	 ecx, eax
  00220	ff 15 00 00 00
	00		 call	 DWORD PTR __imp_?GetString@ioStringManager@@QAEPADPBD0HW4FileNamePrefix@1@@Z
  00226	f3 0f 10 05 00
	00 00 00	 movss	 xmm0, DWORD PTR __real@3f266666
  0022e	50		 push	 eax
  0022f	83 ec 0c	 sub	 esp, 12			; 0000000cH
  00232	f3 0f 11 44 24
	08		 movss	 DWORD PTR [esp+8], xmm0
  00238	f3 0f 10 45 08	 movss	 xmm0, DWORD PTR tv417[ebp]
  0023d	f3 0f 11 44 24
	04		 movss	 DWORD PTR [esp+4], xmm0
  00243	8d 47 49	 lea	 eax, DWORD PTR [edi+73]
  00246	0f 57 c0	 xorps	 xmm0, xmm0
  00249	f3 0f 2a c0	 cvtsi2ss xmm0, eax
  0024d	f3 0f 11 04 24	 movss	 DWORD PTR [esp], xmm0
  00252	ff d6		 call	 esi
  00254	50		 push	 eax
  00255	ff d3		 call	 ebx
  00257	83 c4 14	 add	 esp, 20			; 00000014H

; 824  : 	g_FontMgr.PrintText( iXPos + 121, iYPos + 18, FONT_SIZE_13, STR(3) );

  0025a	6a 00		 push	 0
  0025c	6a 03		 push	 3
  0025e	68 00 00 00 00	 push	 OFFSET ??_C@_00CNPNBAHC@?$AA@
  00263	68 00 00 00 00	 push	 OFFSET ??_C@_0CB@JEFHEJAF@TutorialKeyboardWnd?3?3OnRenderASD@
  00268	ff 15 00 00 00
	00		 call	 DWORD PTR __imp_?GetSingleton@ioStringManager@@SAAAV1@XZ
  0026e	8b c8		 mov	 ecx, eax
  00270	ff 15 00 00 00
	00		 call	 DWORD PTR __imp_?GetString@ioStringManager@@QAEPADPBD0HW4FileNamePrefix@1@@Z
  00276	f3 0f 10 05 00
	00 00 00	 movss	 xmm0, DWORD PTR __real@3f266666
  0027e	50		 push	 eax
  0027f	83 ec 0c	 sub	 esp, 12			; 0000000cH
  00282	f3 0f 11 44 24
	08		 movss	 DWORD PTR [esp+8], xmm0
  00288	f3 0f 10 45 08	 movss	 xmm0, DWORD PTR tv417[ebp]
  0028d	f3 0f 11 44 24
	04		 movss	 DWORD PTR [esp+4], xmm0
  00293	8d 47 79	 lea	 eax, DWORD PTR [edi+121]
  00296	0f 57 c0	 xorps	 xmm0, xmm0
  00299	f3 0f 2a c0	 cvtsi2ss xmm0, eax
  0029d	f3 0f 11 04 24	 movss	 DWORD PTR [esp], xmm0
  002a2	ff d6		 call	 esi
  002a4	50		 push	 eax
  002a5	ff d3		 call	 ebx

; 825  : 
; 826  : 	g_FontMgr.PrintText( iXPos + 26, iYPos + 46, FONT_SIZE_19, "A" );

  002a7	8b 45 0c	 mov	 eax, DWORD PTR _iYPos$[ebp]
  002aa	f3 0f 10 0d 00
	00 00 00	 movss	 xmm1, DWORD PTR __real@3f733333
  002b2	83 c4 14	 add	 esp, 20			; 00000014H
  002b5	83 c0 2e	 add	 eax, 46			; 0000002eH
  002b8	0f 57 c0	 xorps	 xmm0, xmm0
  002bb	f3 0f 2a c0	 cvtsi2ss xmm0, eax
  002bf	68 00 00 00 00	 push	 OFFSET ??_C@_01FHEEJDEE@A?$AA@
  002c4	83 ec 0c	 sub	 esp, 12			; 0000000cH
  002c7	f3 0f 11 4c 24
	08		 movss	 DWORD PTR [esp+8], xmm1
  002cd	f3 0f 11 44 24
	04		 movss	 DWORD PTR [esp+4], xmm0
  002d3	f3 0f 11 45 0c	 movss	 DWORD PTR tv425[ebp], xmm0
  002d8	8d 47 1a	 lea	 eax, DWORD PTR [edi+26]
  002db	0f 57 c0	 xorps	 xmm0, xmm0
  002de	f3 0f 2a c0	 cvtsi2ss xmm0, eax
  002e2	f3 0f 11 04 24	 movss	 DWORD PTR [esp], xmm0
  002e7	ff d6		 call	 esi
  002e9	50		 push	 eax
  002ea	ff d3		 call	 ebx

; 827  : 	g_FontMgr.PrintText( iXPos + 75, iYPos + 46, FONT_SIZE_19, "S" );

  002ec	f3 0f 10 05 00
	00 00 00	 movss	 xmm0, DWORD PTR __real@3f733333
  002f4	83 c4 14	 add	 esp, 20			; 00000014H
  002f7	68 00 00 00 00	 push	 OFFSET ??_C@_01CPLAODJH@S?$AA@
  002fc	83 ec 0c	 sub	 esp, 12			; 0000000cH
  002ff	f3 0f 11 44 24
	08		 movss	 DWORD PTR [esp+8], xmm0
  00305	f3 0f 10 45 0c	 movss	 xmm0, DWORD PTR tv425[ebp]
  0030a	f3 0f 11 44 24
	04		 movss	 DWORD PTR [esp+4], xmm0
  00310	8d 47 4b	 lea	 eax, DWORD PTR [edi+75]
  00313	0f 57 c0	 xorps	 xmm0, xmm0
  00316	f3 0f 2a c0	 cvtsi2ss xmm0, eax
  0031a	f3 0f 11 04 24	 movss	 DWORD PTR [esp], xmm0
  0031f	ff d6		 call	 esi
  00321	50		 push	 eax
  00322	ff d3		 call	 ebx

; 828  : 	g_FontMgr.PrintText( iXPos + 124, iYPos + 46, FONT_SIZE_19, "D" );

  00324	f3 0f 10 05 00
	00 00 00	 movss	 xmm0, DWORD PTR __real@3f733333
  0032c	83 c4 14	 add	 esp, 20			; 00000014H
  0032f	68 00 00 00 00	 push	 OFFSET ??_C@_01CKDDGHAB@D?$AA@
  00334	83 ec 0c	 sub	 esp, 12			; 0000000cH
  00337	f3 0f 11 44 24
	08		 movss	 DWORD PTR [esp+8], xmm0
  0033d	f3 0f 10 45 0c	 movss	 xmm0, DWORD PTR tv425[ebp]
  00342	f3 0f 11 44 24
	04		 movss	 DWORD PTR [esp+4], xmm0
  00348	83 c7 7c	 add	 edi, 124		; 0000007cH
  0034b	0f 57 c0	 xorps	 xmm0, xmm0
  0034e	f3 0f 2a c7	 cvtsi2ss xmm0, edi
  00352	f3 0f 11 04 24	 movss	 DWORD PTR [esp], xmm0
  00357	ff d6		 call	 esi
  00359	50		 push	 eax
  0035a	ff d3		 call	 ebx
  0035c	83 c4 14	 add	 esp, 20			; 00000014H
  0035f	5f		 pop	 edi
  00360	5e		 pop	 esi
  00361	5b		 pop	 ebx

; 829  : }

  00362	5d		 pop	 ebp
  00363	c2 08 00	 ret	 8
?OnRenderASD@TutorialKeyboardWnd@@IAEXHH@Z ENDP		; TutorialKeyboardWnd::OnRenderASD
_TEXT	ENDS
PUBLIC	?OnRenderArrow@TutorialKeyboardWnd@@IAEXHH@Z	; TutorialKeyboardWnd::OnRenderArrow
EXTRN	__imp_?SetReverseFormatting@ioUIRenderImage@@QAEXW4ReverseFormatting@1@@Z:PROC
; Function compile flags: /Ogsp
;	COMDAT ?OnRenderArrow@TutorialKeyboardWnd@@IAEXHH@Z
_TEXT	SEGMENT
tv427 = -4						; size = 4
tv509 = 8						; size = 4
tv435 = 8						; size = 4
_iXPos$ = 8						; size = 4
tv529 = 12						; size = 4
_iYPos$ = 12						; size = 4
?OnRenderArrow@TutorialKeyboardWnd@@IAEXHH@Z PROC	; TutorialKeyboardWnd::OnRenderArrow, COMDAT
; _this$ = ecx

; 832  : {

  00000	55		 push	 ebp
  00001	8b ec		 mov	 ebp, esp
  00003	51		 push	 ecx
  00004	53		 push	 ebx
  00005	56		 push	 esi
  00006	8b f1		 mov	 esi, ecx

; 833  : 	if( m_pButtonNormal )

  00008	33 db		 xor	 ebx, ebx
  0000a	57		 push	 edi
  0000b	8b 7d 08	 mov	 edi, DWORD PTR _iXPos$[ebp]
  0000e	39 9e 60 01 00
	00		 cmp	 DWORD PTR [esi+352], ebx
  00014	0f 84 bd 00 00
	00		 je	 $LN8@OnRenderAr

; 834  : 	{
; 835  : 		m_pButtonNormal->Render( iXPos + 50, iYPos + 2 );

  0001a	8b 8e 60 01 00
	00		 mov	 ecx, DWORD PTR [esi+352]
  00020	8b 55 0c	 mov	 edx, DWORD PTR _iYPos$[ebp]
  00023	53		 push	 ebx
  00024	53		 push	 ebx
  00025	53		 push	 ebx
  00026	53		 push	 ebx
  00027	51		 push	 ecx
  00028	8d 47 32	 lea	 eax, DWORD PTR [edi+50]
  0002b	83 c2 02	 add	 edx, 2
  0002e	51		 push	 ecx
  0002f	0f 57 c0	 xorps	 xmm0, xmm0
  00032	f3 0f 2a c0	 cvtsi2ss xmm0, eax
  00036	8b 01		 mov	 eax, DWORD PTR [ecx]
  00038	0f 57 c9	 xorps	 xmm1, xmm1
  0003b	f3 0f 2a ca	 cvtsi2ss xmm1, edx
  0003f	f3 0f 11 4c 24
	04		 movss	 DWORD PTR [esp+4], xmm1
  00045	f3 0f 11 45 fc	 movss	 DWORD PTR tv427[ebp], xmm0
  0004a	f3 0f 11 04 24	 movss	 DWORD PTR [esp], xmm0
  0004f	ff 10		 call	 DWORD PTR [eax]

; 836  : 		m_pButtonNormal->Render( iXPos + 50, iYPos + 50 );

  00051	8b 8e 60 01 00
	00		 mov	 ecx, DWORD PTR [esi+352]
  00057	8b 45 0c	 mov	 eax, DWORD PTR _iYPos$[ebp]
  0005a	53		 push	 ebx
  0005b	53		 push	 ebx
  0005c	53		 push	 ebx
  0005d	53		 push	 ebx
  0005e	83 c0 32	 add	 eax, 50			; 00000032H
  00061	51		 push	 ecx
  00062	0f 57 c0	 xorps	 xmm0, xmm0
  00065	f3 0f 2a c0	 cvtsi2ss xmm0, eax
  00069	8b 01		 mov	 eax, DWORD PTR [ecx]
  0006b	51		 push	 ecx
  0006c	f3 0f 11 44 24
	04		 movss	 DWORD PTR [esp+4], xmm0
  00072	f3 0f 11 45 08	 movss	 DWORD PTR tv435[ebp], xmm0
  00077	f3 0f 10 45 fc	 movss	 xmm0, DWORD PTR tv427[ebp]
  0007c	f3 0f 11 04 24	 movss	 DWORD PTR [esp], xmm0
  00081	ff 10		 call	 DWORD PTR [eax]

; 837  : 		m_pButtonNormal->Render( iXPos + 2, iYPos + 50 );

  00083	8b 8e 60 01 00
	00		 mov	 ecx, DWORD PTR [esi+352]
  00089	f3 0f 10 45 08	 movss	 xmm0, DWORD PTR tv435[ebp]
  0008e	8b 01		 mov	 eax, DWORD PTR [ecx]
  00090	53		 push	 ebx
  00091	53		 push	 ebx
  00092	53		 push	 ebx
  00093	53		 push	 ebx
  00094	51		 push	 ecx
  00095	51		 push	 ecx
  00096	f3 0f 11 44 24
	04		 movss	 DWORD PTR [esp+4], xmm0
  0009c	8d 57 02	 lea	 edx, DWORD PTR [edi+2]
  0009f	0f 57 c0	 xorps	 xmm0, xmm0
  000a2	f3 0f 2a c2	 cvtsi2ss xmm0, edx
  000a6	f3 0f 11 04 24	 movss	 DWORD PTR [esp], xmm0
  000ab	ff 10		 call	 DWORD PTR [eax]

; 838  : 		m_pButtonNormal->Render( iXPos + 98, iYPos + 50 );

  000ad	8b 8e 60 01 00
	00		 mov	 ecx, DWORD PTR [esi+352]
  000b3	f3 0f 10 45 08	 movss	 xmm0, DWORD PTR tv435[ebp]
  000b8	8b 01		 mov	 eax, DWORD PTR [ecx]
  000ba	53		 push	 ebx
  000bb	53		 push	 ebx
  000bc	53		 push	 ebx
  000bd	53		 push	 ebx
  000be	51		 push	 ecx
  000bf	51		 push	 ecx
  000c0	f3 0f 11 44 24
	04		 movss	 DWORD PTR [esp+4], xmm0
  000c6	8d 57 62	 lea	 edx, DWORD PTR [edi+98]
  000c9	0f 57 c0	 xorps	 xmm0, xmm0
  000cc	f3 0f 2a c2	 cvtsi2ss xmm0, edx
  000d0	f3 0f 11 04 24	 movss	 DWORD PTR [esp], xmm0
  000d5	ff 10		 call	 DWORD PTR [eax]
$LN8@OnRenderAr:

; 839  : 	}
; 840  : 
; 841  : 	if( m_pButtonOver )

  000d7	39 9e 64 01 00
	00		 cmp	 DWORD PTR [esi+356], ebx
  000dd	0f 84 ec 00 00
	00		 je	 $LN3@OnRenderAr

; 842  : 	{
; 843  : 		if( m_bKeyUp )

  000e3	38 9e 81 01 00
	00		 cmp	 BYTE PTR [esi+385], bl
  000e9	74 33		 je	 SHORT $LN6@OnRenderAr

; 844  : 			m_pButtonOver->Render( iXPos + 50, iYPos + 2, UI_RENDER_SCREEN );

  000eb	8b 8e 64 01 00
	00		 mov	 ecx, DWORD PTR [esi+356]
  000f1	8b 55 0c	 mov	 edx, DWORD PTR _iYPos$[ebp]
  000f4	8b 01		 mov	 eax, DWORD PTR [ecx]
  000f6	53		 push	 ebx
  000f7	53		 push	 ebx
  000f8	53		 push	 ebx
  000f9	6a 01		 push	 1
  000fb	83 c2 02	 add	 edx, 2
  000fe	0f 57 c0	 xorps	 xmm0, xmm0
  00101	f3 0f 2a c2	 cvtsi2ss xmm0, edx
  00105	51		 push	 ecx
  00106	51		 push	 ecx
  00107	f3 0f 11 44 24
	04		 movss	 DWORD PTR [esp+4], xmm0
  0010d	8d 57 32	 lea	 edx, DWORD PTR [edi+50]
  00110	0f 57 c0	 xorps	 xmm0, xmm0
  00113	f3 0f 2a c2	 cvtsi2ss xmm0, edx
  00117	f3 0f 11 04 24	 movss	 DWORD PTR [esp], xmm0
  0011c	ff 10		 call	 DWORD PTR [eax]
$LN6@OnRenderAr:

; 845  : 		if( m_bKeyDown )

  0011e	38 9e 82 01 00
	00		 cmp	 BYTE PTR [esi+386], bl
  00124	74 33		 je	 SHORT $LN5@OnRenderAr

; 846  : 			m_pButtonOver->Render( iXPos + 50, iYPos + 50, UI_RENDER_SCREEN );

  00126	8b 8e 64 01 00
	00		 mov	 ecx, DWORD PTR [esi+356]
  0012c	8b 55 0c	 mov	 edx, DWORD PTR _iYPos$[ebp]
  0012f	8b 01		 mov	 eax, DWORD PTR [ecx]
  00131	53		 push	 ebx
  00132	53		 push	 ebx
  00133	53		 push	 ebx
  00134	6a 01		 push	 1
  00136	83 c2 32	 add	 edx, 50			; 00000032H
  00139	0f 57 c0	 xorps	 xmm0, xmm0
  0013c	f3 0f 2a c2	 cvtsi2ss xmm0, edx
  00140	51		 push	 ecx
  00141	51		 push	 ecx
  00142	f3 0f 11 44 24
	04		 movss	 DWORD PTR [esp+4], xmm0
  00148	8d 57 32	 lea	 edx, DWORD PTR [edi+50]
  0014b	0f 57 c0	 xorps	 xmm0, xmm0
  0014e	f3 0f 2a c2	 cvtsi2ss xmm0, edx
  00152	f3 0f 11 04 24	 movss	 DWORD PTR [esp], xmm0
  00157	ff 10		 call	 DWORD PTR [eax]
$LN5@OnRenderAr:

; 847  : 		if( m_bKeyLeft )

  00159	38 9e 7f 01 00
	00		 cmp	 BYTE PTR [esi+383], bl
  0015f	74 33		 je	 SHORT $LN4@OnRenderAr

; 848  : 			m_pButtonOver->Render( iXPos + 2, iYPos + 50, UI_RENDER_SCREEN );

  00161	8b 8e 64 01 00
	00		 mov	 ecx, DWORD PTR [esi+356]
  00167	8b 55 0c	 mov	 edx, DWORD PTR _iYPos$[ebp]
  0016a	8b 01		 mov	 eax, DWORD PTR [ecx]
  0016c	53		 push	 ebx
  0016d	53		 push	 ebx
  0016e	53		 push	 ebx
  0016f	6a 01		 push	 1
  00171	83 c2 32	 add	 edx, 50			; 00000032H
  00174	0f 57 c0	 xorps	 xmm0, xmm0
  00177	f3 0f 2a c2	 cvtsi2ss xmm0, edx
  0017b	51		 push	 ecx
  0017c	51		 push	 ecx
  0017d	f3 0f 11 44 24
	04		 movss	 DWORD PTR [esp+4], xmm0
  00183	8d 57 02	 lea	 edx, DWORD PTR [edi+2]
  00186	0f 57 c0	 xorps	 xmm0, xmm0
  00189	f3 0f 2a c2	 cvtsi2ss xmm0, edx
  0018d	f3 0f 11 04 24	 movss	 DWORD PTR [esp], xmm0
  00192	ff 10		 call	 DWORD PTR [eax]
$LN4@OnRenderAr:

; 849  : 		if( m_bKeyRight )

  00194	38 9e 80 01 00
	00		 cmp	 BYTE PTR [esi+384], bl
  0019a	74 33		 je	 SHORT $LN3@OnRenderAr

; 850  : 			m_pButtonOver->Render( iXPos + 98, iYPos + 50, UI_RENDER_SCREEN );

  0019c	8b 8e 64 01 00
	00		 mov	 ecx, DWORD PTR [esi+356]
  001a2	8b 55 0c	 mov	 edx, DWORD PTR _iYPos$[ebp]
  001a5	8b 01		 mov	 eax, DWORD PTR [ecx]
  001a7	53		 push	 ebx
  001a8	53		 push	 ebx
  001a9	53		 push	 ebx
  001aa	6a 01		 push	 1
  001ac	83 c2 32	 add	 edx, 50			; 00000032H
  001af	0f 57 c0	 xorps	 xmm0, xmm0
  001b2	f3 0f 2a c2	 cvtsi2ss xmm0, edx
  001b6	51		 push	 ecx
  001b7	51		 push	 ecx
  001b8	f3 0f 11 44 24
	04		 movss	 DWORD PTR [esp+4], xmm0
  001be	8d 57 62	 lea	 edx, DWORD PTR [edi+98]
  001c1	0f 57 c0	 xorps	 xmm0, xmm0
  001c4	f3 0f 2a c2	 cvtsi2ss xmm0, edx
  001c8	f3 0f 11 04 24	 movss	 DWORD PTR [esp], xmm0
  001cd	ff 10		 call	 DWORD PTR [eax]
$LN3@OnRenderAr:

; 851  : 	}
; 852  : 
; 853  : 	if( m_pArrowUp )

  001cf	8b 8e 6c 01 00
	00		 mov	 ecx, DWORD PTR [esi+364]
  001d5	3b cb		 cmp	 ecx, ebx
  001d7	74 79		 je	 SHORT $LN2@OnRenderAr

; 854  : 	{
; 855  : 		m_pArrowUp->SetReverseFormatting( ioUIRenderImage::RF_NONE_REVERSE );

  001d9	53		 push	 ebx
  001da	ff 15 00 00 00
	00		 call	 DWORD PTR __imp_?SetReverseFormatting@ioUIRenderImage@@QAEXW4ReverseFormatting@1@@Z

; 856  : 		m_pArrowUp->Render( iXPos + 68, iYPos + 13 );

  001e0	8b 8e 6c 01 00
	00		 mov	 ecx, DWORD PTR [esi+364]
  001e6	8b 55 0c	 mov	 edx, DWORD PTR _iYPos$[ebp]
  001e9	53		 push	 ebx
  001ea	53		 push	 ebx
  001eb	53		 push	 ebx
  001ec	53		 push	 ebx
  001ed	51		 push	 ecx
  001ee	8d 47 44	 lea	 eax, DWORD PTR [edi+68]
  001f1	83 c2 0d	 add	 edx, 13			; 0000000dH
  001f4	51		 push	 ecx
  001f5	0f 57 c0	 xorps	 xmm0, xmm0
  001f8	f3 0f 2a c0	 cvtsi2ss xmm0, eax
  001fc	8b 01		 mov	 eax, DWORD PTR [ecx]
  001fe	0f 57 c9	 xorps	 xmm1, xmm1
  00201	f3 0f 2a ca	 cvtsi2ss xmm1, edx
  00205	f3 0f 11 4c 24
	04		 movss	 DWORD PTR [esp+4], xmm1
  0020b	f3 0f 11 45 08	 movss	 DWORD PTR tv509[ebp], xmm0
  00210	f3 0f 11 04 24	 movss	 DWORD PTR [esp], xmm0
  00215	ff 10		 call	 DWORD PTR [eax]

; 857  : 
; 858  : 		m_pArrowUp->SetReverseFormatting( ioUIRenderImage::RF_VERT_REVERSE );

  00217	8b 8e 6c 01 00
	00		 mov	 ecx, DWORD PTR [esi+364]
  0021d	6a 02		 push	 2
  0021f	ff 15 00 00 00
	00		 call	 DWORD PTR __imp_?SetReverseFormatting@ioUIRenderImage@@QAEXW4ReverseFormatting@1@@Z

; 859  : 		m_pArrowUp->Render( iXPos + 68, iYPos + 61 );

  00225	8b 8e 6c 01 00
	00		 mov	 ecx, DWORD PTR [esi+364]
  0022b	8b 55 0c	 mov	 edx, DWORD PTR _iYPos$[ebp]
  0022e	8b 01		 mov	 eax, DWORD PTR [ecx]
  00230	53		 push	 ebx
  00231	53		 push	 ebx
  00232	53		 push	 ebx
  00233	53		 push	 ebx
  00234	51		 push	 ecx
  00235	83 c2 3d	 add	 edx, 61			; 0000003dH
  00238	0f 57 c0	 xorps	 xmm0, xmm0
  0023b	51		 push	 ecx
  0023c	f3 0f 2a c2	 cvtsi2ss xmm0, edx
  00240	f3 0f 11 44 24
	04		 movss	 DWORD PTR [esp+4], xmm0
  00246	f3 0f 10 45 08	 movss	 xmm0, DWORD PTR tv509[ebp]
  0024b	f3 0f 11 04 24	 movss	 DWORD PTR [esp], xmm0
  00250	ff 10		 call	 DWORD PTR [eax]
$LN2@OnRenderAr:

; 860  : 	}
; 861  : 
; 862  : 	if( m_pArrowLeft )

  00252	8b 8e 68 01 00
	00		 mov	 ecx, DWORD PTR [esi+360]
  00258	3b cb		 cmp	 ecx, ebx
  0025a	74 76		 je	 SHORT $LN1@OnRenderAr

; 863  : 	{
; 864  : 		m_pArrowLeft->SetReverseFormatting( ioUIRenderImage::RF_NONE_REVERSE );

  0025c	53		 push	 ebx
  0025d	ff 15 00 00 00
	00		 call	 DWORD PTR __imp_?SetReverseFormatting@ioUIRenderImage@@QAEXW4ReverseFormatting@1@@Z

; 865  : 		m_pArrowLeft->Render( iXPos + 14, iYPos + 67 );

  00263	8b 8e 68 01 00
	00		 mov	 ecx, DWORD PTR [esi+360]
  00269	8b 45 0c	 mov	 eax, DWORD PTR _iYPos$[ebp]
  0026c	53		 push	 ebx
  0026d	53		 push	 ebx
  0026e	53		 push	 ebx
  0026f	53		 push	 ebx
  00270	83 c0 43	 add	 eax, 67			; 00000043H
  00273	0f 57 c0	 xorps	 xmm0, xmm0
  00276	f3 0f 2a c0	 cvtsi2ss xmm0, eax
  0027a	8b 01		 mov	 eax, DWORD PTR [ecx]
  0027c	51		 push	 ecx
  0027d	51		 push	 ecx
  0027e	f3 0f 11 44 24
	04		 movss	 DWORD PTR [esp+4], xmm0
  00284	f3 0f 11 45 0c	 movss	 DWORD PTR tv529[ebp], xmm0
  00289	8d 57 0e	 lea	 edx, DWORD PTR [edi+14]
  0028c	0f 57 c0	 xorps	 xmm0, xmm0
  0028f	f3 0f 2a c2	 cvtsi2ss xmm0, edx
  00293	f3 0f 11 04 24	 movss	 DWORD PTR [esp], xmm0
  00298	ff 10		 call	 DWORD PTR [eax]

; 866  : 
; 867  : 		m_pArrowLeft->SetReverseFormatting( ioUIRenderImage::RF_HORZ_REVERSE );

  0029a	8b 8e 68 01 00
	00		 mov	 ecx, DWORD PTR [esi+360]
  002a0	6a 01		 push	 1
  002a2	ff 15 00 00 00
	00		 call	 DWORD PTR __imp_?SetReverseFormatting@ioUIRenderImage@@QAEXW4ReverseFormatting@1@@Z

; 868  : 		m_pArrowLeft->Render( iXPos + 110, iYPos + 67 );

  002a8	8b 8e 68 01 00
	00		 mov	 ecx, DWORD PTR [esi+360]
  002ae	f3 0f 10 45 0c	 movss	 xmm0, DWORD PTR tv529[ebp]
  002b3	8b 01		 mov	 eax, DWORD PTR [ecx]
  002b5	53		 push	 ebx
  002b6	53		 push	 ebx
  002b7	53		 push	 ebx
  002b8	53		 push	 ebx
  002b9	51		 push	 ecx
  002ba	51		 push	 ecx
  002bb	f3 0f 11 44 24
	04		 movss	 DWORD PTR [esp+4], xmm0
  002c1	83 c7 6e	 add	 edi, 110		; 0000006eH
  002c4	0f 57 c0	 xorps	 xmm0, xmm0
  002c7	f3 0f 2a c7	 cvtsi2ss xmm0, edi
  002cb	f3 0f 11 04 24	 movss	 DWORD PTR [esp], xmm0
  002d0	ff 10		 call	 DWORD PTR [eax]
$LN1@OnRenderAr:
  002d2	5f		 pop	 edi
  002d3	5e		 pop	 esi
  002d4	5b		 pop	 ebx

; 869  : 	}
; 870  : }

  002d5	c9		 leave
  002d6	c2 08 00	 ret	 8
?OnRenderArrow@TutorialKeyboardWnd@@IAEXHH@Z ENDP	; TutorialKeyboardWnd::OnRenderArrow
_TEXT	ENDS
PUBLIC	?_Adopt@_Iterator_base0@std@@QAEXPBX@Z		; std::_Iterator_base0::_Adopt
; Function compile flags: /Ogsp
; File c:\program files (x86)\microsoft visual studio 10.0\vc\include\xutility
;	COMDAT ?_Adopt@_Iterator_base0@std@@QAEXPBX@Z
_TEXT	SEGMENT
___formal$ = 8						; size = 4
?_Adopt@_Iterator_base0@std@@QAEXPBX@Z PROC		; std::_Iterator_base0::_Adopt, COMDAT
; _this$ = ecx

; 49   : 		}

  00000	c2 04 00	 ret	 4
?_Adopt@_Iterator_base0@std@@QAEXPBX@Z ENDP		; std::_Iterator_base0::_Adopt
_TEXT	ENDS
PUBLIC	?size@?$vector@V?$basic_string@DU?$char_traits@D@std@@V?$allocator@D@2@@std@@V?$allocator@V?$basic_string@DU?$char_traits@D@std@@V?$allocator@D@2@@std@@@2@@std@@QBEIXZ ; std::vector<std::basic_string<char,std::char_traits<char>,std::allocator<char> >,std::allocator<std::basic_string<char,std::char_traits<char>,std::allocator<char> > > >::size
; Function compile flags: /Ogsp
; File c:\program files (x86)\microsoft visual studio 10.0\vc\include\vector
;	COMDAT ?size@?$vector@V?$basic_string@DU?$char_traits@D@std@@V?$allocator@D@2@@std@@V?$allocator@V?$basic_string@DU?$char_traits@D@std@@V?$allocator@D@2@@std@@@2@@std@@QBEIXZ
_TEXT	SEGMENT
?size@?$vector@V?$basic_string@DU?$char_traits@D@std@@V?$allocator@D@2@@std@@V?$allocator@V?$basic_string@DU?$char_traits@D@std@@V?$allocator@D@2@@std@@@2@@std@@QBEIXZ PROC ; std::vector<std::basic_string<char,std::char_traits<char>,std::allocator<char> >,std::allocator<std::basic_string<char,std::char_traits<char>,std::allocator<char> > > >::size, COMDAT
; _this$ = ecx

; 879  : 		return (this->_Mylast - this->_Myfirst);

  00000	8b 41 04	 mov	 eax, DWORD PTR [ecx+4]
  00003	2b 01		 sub	 eax, DWORD PTR [ecx]
  00005	6a 1c		 push	 28			; 0000001cH
  00007	99		 cdq
  00008	59		 pop	 ecx
  00009	f7 f9		 idiv	 ecx

; 880  : 		}

  0000b	c3		 ret	 0
?size@?$vector@V?$basic_string@DU?$char_traits@D@std@@V?$allocator@D@2@@std@@V?$allocator@V?$basic_string@DU?$char_traits@D@std@@V?$allocator@D@2@@std@@@2@@std@@QBEIXZ ENDP ; std::vector<std::basic_string<char,std::char_traits<char>,std::allocator<char> >,std::allocator<std::basic_string<char,std::char_traits<char>,std::allocator<char> > > >::size
_TEXT	ENDS
PUBLIC	?empty@?$vector@V?$basic_string@DU?$char_traits@D@std@@V?$allocator@D@2@@std@@V?$allocator@V?$basic_string@DU?$char_traits@D@std@@V?$allocator@D@2@@std@@@2@@std@@QBE_NXZ ; std::vector<std::basic_string<char,std::char_traits<char>,std::allocator<char> >,std::allocator<std::basic_string<char,std::char_traits<char>,std::allocator<char> > > >::empty
; Function compile flags: /Ogsp
;	COMDAT ?empty@?$vector@V?$basic_string@DU?$char_traits@D@std@@V?$allocator@D@2@@std@@V?$allocator@V?$basic_string@DU?$char_traits@D@std@@V?$allocator@D@2@@std@@@2@@std@@QBE_NXZ
_TEXT	SEGMENT
?empty@?$vector@V?$basic_string@DU?$char_traits@D@std@@V?$allocator@D@2@@std@@V?$allocator@V?$basic_string@DU?$char_traits@D@std@@V?$allocator@D@2@@std@@@2@@std@@QBE_NXZ PROC ; std::vector<std::basic_string<char,std::char_traits<char>,std::allocator<char> >,std::allocator<std::basic_string<char,std::char_traits<char>,std::allocator<char> > > >::empty, COMDAT
; _this$ = ecx

; 889  : 		return (this->_Myfirst == this->_Mylast);

  00000	8b 01		 mov	 eax, DWORD PTR [ecx]
  00002	2b 41 04	 sub	 eax, DWORD PTR [ecx+4]
  00005	f7 d8		 neg	 eax
  00007	1b c0		 sbb	 eax, eax
  00009	40		 inc	 eax

; 890  : 		}

  0000a	c3		 ret	 0
?empty@?$vector@V?$basic_string@DU?$char_traits@D@std@@V?$allocator@D@2@@std@@V?$allocator@V?$basic_string@DU?$char_traits@D@std@@V?$allocator@D@2@@std@@@2@@std@@QBE_NXZ ENDP ; std::vector<std::basic_string<char,std::char_traits<char>,std::allocator<char> >,std::allocator<std::basic_string<char,std::char_traits<char>,std::allocator<char> > > >::empty
_TEXT	ENDS
PUBLIC	??A?$vector@V?$basic_string@DU?$char_traits@D@std@@V?$allocator@D@2@@std@@V?$allocator@V?$basic_string@DU?$char_traits@D@std@@V?$allocator@D@2@@std@@@2@@std@@QAEAAV?$basic_string@DU?$char_traits@D@std@@V?$allocator@D@2@@1@I@Z ; std::vector<std::basic_string<char,std::char_traits<char>,std::allocator<char> >,std::allocator<std::basic_string<char,std::char_traits<char>,std::allocator<char> > > >::operator[]
; Function compile flags: /Ogsp
;	COMDAT ??A?$vector@V?$basic_string@DU?$char_traits@D@std@@V?$allocator@D@2@@std@@V?$allocator@V?$basic_string@DU?$char_traits@D@std@@V?$allocator@D@2@@std@@@2@@std@@QAEAAV?$basic_string@DU?$char_traits@D@std@@V?$allocator@D@2@@1@I@Z
_TEXT	SEGMENT
__Pos$ = 8						; size = 4
??A?$vector@V?$basic_string@DU?$char_traits@D@std@@V?$allocator@D@2@@std@@V?$allocator@V?$basic_string@DU?$char_traits@D@std@@V?$allocator@D@2@@std@@@2@@std@@QAEAAV?$basic_string@DU?$char_traits@D@std@@V?$allocator@D@2@@1@I@Z PROC ; std::vector<std::basic_string<char,std::char_traits<char>,std::allocator<char> >,std::allocator<std::basic_string<char,std::char_traits<char>,std::allocator<char> > > >::operator[], COMDAT
; _this$ = ecx

; 928  : 		{	// subscript mutable sequence

  00000	55		 push	 ebp
  00001	8b ec		 mov	 ebp, esp

; 929  :  #if _ITERATOR_DEBUG_LEVEL == 2
; 930  : 		if (size() <= _Pos)
; 931  : 			{	// report error
; 932  : 			_DEBUG_ERROR("vector subscript out of range");
; 933  : 			_SCL_SECURE_OUT_OF_RANGE;
; 934  : 			}
; 935  : 
; 936  :  #elif _ITERATOR_DEBUG_LEVEL == 1
; 937  : 		_SCL_SECURE_VALIDATE_RANGE(_Pos < size());
; 938  :  #endif /* _ITERATOR_DEBUG_LEVEL */
; 939  : 
; 940  : 		return (*(this->_Myfirst + _Pos));

  00003	8b 45 08	 mov	 eax, DWORD PTR __Pos$[ebp]
  00006	6b c0 1c	 imul	 eax, 28			; 0000001cH
  00009	03 01		 add	 eax, DWORD PTR [ecx]

; 941  : 		}

  0000b	5d		 pop	 ebp
  0000c	c2 04 00	 ret	 4
??A?$vector@V?$basic_string@DU?$char_traits@D@std@@V?$allocator@D@2@@std@@V?$allocator@V?$basic_string@DU?$char_traits@D@std@@V?$allocator@D@2@@std@@@2@@std@@QAEAAV?$basic_string@DU?$char_traits@D@std@@V?$allocator@D@2@@1@I@Z ENDP ; std::vector<std::basic_string<char,std::char_traits<char>,std::allocator<char> >,std::allocator<std::basic_string<char,std::char_traits<char>,std::allocator<char> > > >::operator[]
_TEXT	ENDS
PUBLIC	?size@?$vector@UStringTick@TutorialWnd@@V?$allocator@UStringTick@TutorialWnd@@@std@@@std@@QBEIXZ ; std::vector<TutorialWnd::StringTick,std::allocator<TutorialWnd::StringTick> >::size
; Function compile flags: /Ogsp
;	COMDAT ?size@?$vector@UStringTick@TutorialWnd@@V?$allocator@UStringTick@TutorialWnd@@@std@@@std@@QBEIXZ
_TEXT	SEGMENT
?size@?$vector@UStringTick@TutorialWnd@@V?$allocator@UStringTick@TutorialWnd@@@std@@@std@@QBEIXZ PROC ; std::vector<TutorialWnd::StringTick,std::allocator<TutorialWnd::StringTick> >::size, COMDAT
; _this$ = ecx

; 879  : 		return (this->_Mylast - this->_Myfirst);

  00000	8b 41 04	 mov	 eax, DWORD PTR [ecx+4]
  00003	2b 01		 sub	 eax, DWORD PTR [ecx]
  00005	b9 04 01 00 00	 mov	 ecx, 260		; 00000104H
  0000a	99		 cdq
  0000b	f7 f9		 idiv	 ecx

; 880  : 		}

  0000d	c3		 ret	 0
?size@?$vector@UStringTick@TutorialWnd@@V?$allocator@UStringTick@TutorialWnd@@@std@@@std@@QBEIXZ ENDP ; std::vector<TutorialWnd::StringTick,std::allocator<TutorialWnd::StringTick> >::size
_TEXT	ENDS
PUBLIC	??A?$vector@UStringTick@TutorialWnd@@V?$allocator@UStringTick@TutorialWnd@@@std@@@std@@QAEAAUStringTick@TutorialWnd@@I@Z ; std::vector<TutorialWnd::StringTick,std::allocator<TutorialWnd::StringTick> >::operator[]
; Function compile flags: /Ogsp
;	COMDAT ??A?$vector@UStringTick@TutorialWnd@@V?$allocator@UStringTick@TutorialWnd@@@std@@@std@@QAEAAUStringTick@TutorialWnd@@I@Z
_TEXT	SEGMENT
__Pos$ = 8						; size = 4
??A?$vector@UStringTick@TutorialWnd@@V?$allocator@UStringTick@TutorialWnd@@@std@@@std@@QAEAAUStringTick@TutorialWnd@@I@Z PROC ; std::vector<TutorialWnd::StringTick,std::allocator<TutorialWnd::StringTick> >::operator[], COMDAT
; _this$ = ecx

; 928  : 		{	// subscript mutable sequence

  00000	55		 push	 ebp
  00001	8b ec		 mov	 ebp, esp

; 929  :  #if _ITERATOR_DEBUG_LEVEL == 2
; 930  : 		if (size() <= _Pos)
; 931  : 			{	// report error
; 932  : 			_DEBUG_ERROR("vector subscript out of range");
; 933  : 			_SCL_SECURE_OUT_OF_RANGE;
; 934  : 			}
; 935  : 
; 936  :  #elif _ITERATOR_DEBUG_LEVEL == 1
; 937  : 		_SCL_SECURE_VALIDATE_RANGE(_Pos < size());
; 938  :  #endif /* _ITERATOR_DEBUG_LEVEL */
; 939  : 
; 940  : 		return (*(this->_Myfirst + _Pos));

  00003	8b 45 08	 mov	 eax, DWORD PTR __Pos$[ebp]
  00006	69 c0 04 01 00
	00		 imul	 eax, 260		; 00000104H
  0000c	03 01		 add	 eax, DWORD PTR [ecx]

; 941  : 		}

  0000e	5d		 pop	 ebp
  0000f	c2 04 00	 ret	 4
??A?$vector@UStringTick@TutorialWnd@@V?$allocator@UStringTick@TutorialWnd@@@std@@@std@@QAEAAUStringTick@TutorialWnd@@I@Z ENDP ; std::vector<TutorialWnd::StringTick,std::allocator<TutorialWnd::StringTick> >::operator[]
_TEXT	ENDS
PUBLIC	?capacity@?$vector@V?$basic_string@DU?$char_traits@D@std@@V?$allocator@D@2@@std@@V?$allocator@V?$basic_string@DU?$char_traits@D@std@@V?$allocator@D@2@@std@@@2@@std@@QBEIXZ ; std::vector<std::basic_string<char,std::char_traits<char>,std::allocator<char> >,std::allocator<std::basic_string<char,std::char_traits<char>,std::allocator<char> > > >::capacity
; Function compile flags: /Ogsp
;	COMDAT ?capacity@?$vector@V?$basic_string@DU?$char_traits@D@std@@V?$allocator@D@2@@std@@V?$allocator@V?$basic_string@DU?$char_traits@D@std@@V?$allocator@D@2@@std@@@2@@std@@QBEIXZ
_TEXT	SEGMENT
?capacity@?$vector@V?$basic_string@DU?$char_traits@D@std@@V?$allocator@D@2@@std@@V?$allocator@V?$basic_string@DU?$char_traits@D@std@@V?$allocator@D@2@@std@@@2@@std@@QBEIXZ PROC ; std::vector<std::basic_string<char,std::char_traits<char>,std::allocator<char> >,std::allocator<std::basic_string<char,std::char_traits<char>,std::allocator<char> > > >::capacity, COMDAT
; _this$ = ecx

; 777  : 		return (this->_Myend - this->_Myfirst);

  00000	8b 41 08	 mov	 eax, DWORD PTR [ecx+8]
  00003	2b 01		 sub	 eax, DWORD PTR [ecx]
  00005	6a 1c		 push	 28			; 0000001cH
  00007	99		 cdq
  00008	59		 pop	 ecx
  00009	f7 f9		 idiv	 ecx

; 778  : 		}

  0000b	c3		 ret	 0
?capacity@?$vector@V?$basic_string@DU?$char_traits@D@std@@V?$allocator@D@2@@std@@V?$allocator@V?$basic_string@DU?$char_traits@D@std@@V?$allocator@D@2@@std@@@2@@std@@QBEIXZ ENDP ; std::vector<std::basic_string<char,std::char_traits<char>,std::allocator<char> >,std::allocator<std::basic_string<char,std::char_traits<char>,std::allocator<char> > > >::capacity
_TEXT	ENDS
PUBLIC	??0?$allocator@V?$basic_string@DU?$char_traits@D@std@@V?$allocator@D@2@@std@@@std@@QAE@XZ ; std::allocator<std::basic_string<char,std::char_traits<char>,std::allocator<char> > >::allocator<std::basic_string<char,std::char_traits<char>,std::allocator<char> > >
; Function compile flags: /Ogsp
; File c:\program files (x86)\microsoft visual studio 10.0\vc\include\xmemory
;	COMDAT ??0?$allocator@V?$basic_string@DU?$char_traits@D@std@@V?$allocator@D@2@@std@@@std@@QAE@XZ
_TEXT	SEGMENT
??0?$allocator@V?$basic_string@DU?$char_traits@D@std@@V?$allocator@D@2@@std@@@std@@QAE@XZ PROC ; std::allocator<std::basic_string<char,std::char_traits<char>,std::allocator<char> > >::allocator<std::basic_string<char,std::char_traits<char>,std::allocator<char> > >, COMDAT
; _this$ = ecx

; 161  : 	_ALLOCATOR() _THROW0()

  00000	8b c1		 mov	 eax, ecx

; 162  : 		{	// construct default allocator (do nothing)
; 163  : 		}

  00002	c3		 ret	 0
??0?$allocator@V?$basic_string@DU?$char_traits@D@std@@V?$allocator@D@2@@std@@@std@@QAE@XZ ENDP ; std::allocator<std::basic_string<char,std::char_traits<char>,std::allocator<char> > >::allocator<std::basic_string<char,std::char_traits<char>,std::allocator<char> > >
_TEXT	ENDS
PUBLIC	?_Inside@?$vector@UStringTick@TutorialWnd@@V?$allocator@UStringTick@TutorialWnd@@@std@@@std@@IBE_NPBUStringTick@TutorialWnd@@@Z ; std::vector<TutorialWnd::StringTick,std::allocator<TutorialWnd::StringTick> >::_Inside
; Function compile flags: /Ogsp
; File c:\program files (x86)\microsoft visual studio 10.0\vc\include\vector
;	COMDAT ?_Inside@?$vector@UStringTick@TutorialWnd@@V?$allocator@UStringTick@TutorialWnd@@@std@@@std@@IBE_NPBUStringTick@TutorialWnd@@@Z
_TEXT	SEGMENT
__Ptr$ = 8						; size = 4
?_Inside@?$vector@UStringTick@TutorialWnd@@V?$allocator@UStringTick@TutorialWnd@@@std@@@std@@IBE_NPBUStringTick@TutorialWnd@@@Z PROC ; std::vector<TutorialWnd::StringTick,std::allocator<TutorialWnd::StringTick> >::_Inside, COMDAT
; _this$ = ecx

; 1285 : 		{	// test if _Ptr points inside vector

  00000	55		 push	 ebp
  00001	8b ec		 mov	 ebp, esp

; 1286 : 		return (_Ptr < this->_Mylast && this->_Myfirst <= _Ptr);

  00003	8b 45 08	 mov	 eax, DWORD PTR __Ptr$[ebp]
  00006	3b 41 04	 cmp	 eax, DWORD PTR [ecx+4]
  00009	73 09		 jae	 SHORT $LN3@Inside
  0000b	39 01		 cmp	 DWORD PTR [ecx], eax
  0000d	77 05		 ja	 SHORT $LN3@Inside
  0000f	33 c0		 xor	 eax, eax
  00011	40		 inc	 eax
  00012	eb 02		 jmp	 SHORT $LN4@Inside
$LN3@Inside:
  00014	33 c0		 xor	 eax, eax
$LN4@Inside:

; 1287 : 		}

  00016	5d		 pop	 ebp
  00017	c2 04 00	 ret	 4
?_Inside@?$vector@UStringTick@TutorialWnd@@V?$allocator@UStringTick@TutorialWnd@@@std@@@std@@IBE_NPBUStringTick@TutorialWnd@@@Z ENDP ; std::vector<TutorialWnd::StringTick,std::allocator<TutorialWnd::StringTick> >::_Inside
_TEXT	ENDS
PUBLIC	?_Orphan_range@?$vector@UStringTick@TutorialWnd@@V?$allocator@UStringTick@TutorialWnd@@@std@@@std@@IBEXPAUStringTick@TutorialWnd@@0@Z ; std::vector<TutorialWnd::StringTick,std::allocator<TutorialWnd::StringTick> >::_Orphan_range
; Function compile flags: /Ogsp
;	COMDAT ?_Orphan_range@?$vector@UStringTick@TutorialWnd@@V?$allocator@UStringTick@TutorialWnd@@@std@@@std@@IBEXPAUStringTick@TutorialWnd@@0@Z
_TEXT	SEGMENT
___formal$ = 8						; size = 4
___formal$ = 12						; size = 4
?_Orphan_range@?$vector@UStringTick@TutorialWnd@@V?$allocator@UStringTick@TutorialWnd@@@std@@@std@@IBEXPAUStringTick@TutorialWnd@@0@Z PROC ; std::vector<TutorialWnd::StringTick,std::allocator<TutorialWnd::StringTick> >::_Orphan_range, COMDAT
; _this$ = ecx

; 1454 : 		}

  00000	c2 08 00	 ret	 8
?_Orphan_range@?$vector@UStringTick@TutorialWnd@@V?$allocator@UStringTick@TutorialWnd@@@std@@@std@@IBEXPAUStringTick@TutorialWnd@@0@Z ENDP ; std::vector<TutorialWnd::StringTick,std::allocator<TutorialWnd::StringTick> >::_Orphan_range
_TEXT	ENDS
PUBLIC	??1?$_Vector_val@UStringTick@TutorialWnd@@V?$allocator@UStringTick@TutorialWnd@@@std@@@std@@QAE@XZ ; std::_Vector_val<TutorialWnd::StringTick,std::allocator<TutorialWnd::StringTick> >::~_Vector_val<TutorialWnd::StringTick,std::allocator<TutorialWnd::StringTick> >
; Function compile flags: /Ogsp
;	COMDAT ??1?$_Vector_val@UStringTick@TutorialWnd@@V?$allocator@UStringTick@TutorialWnd@@@std@@@std@@QAE@XZ
_TEXT	SEGMENT
??1?$_Vector_val@UStringTick@TutorialWnd@@V?$allocator@UStringTick@TutorialWnd@@@std@@@std@@QAE@XZ PROC ; std::_Vector_val<TutorialWnd::StringTick,std::allocator<TutorialWnd::StringTick> >::~_Vector_val<TutorialWnd::StringTick,std::allocator<TutorialWnd::StringTick> >, COMDAT
; _this$ = ecx

; 434  : 		}

  00000	c3		 ret	 0
??1?$_Vector_val@UStringTick@TutorialWnd@@V?$allocator@UStringTick@TutorialWnd@@@std@@@std@@QAE@XZ ENDP ; std::_Vector_val<TutorialWnd::StringTick,std::allocator<TutorialWnd::StringTick> >::~_Vector_val<TutorialWnd::StringTick,std::allocator<TutorialWnd::StringTick> >
_TEXT	ENDS
PUBLIC	??0?$allocator@UStringTick@TutorialWnd@@@std@@QAE@XZ ; std::allocator<TutorialWnd::StringTick>::allocator<TutorialWnd::StringTick>
; Function compile flags: /Ogsp
; File c:\program files (x86)\microsoft visual studio 10.0\vc\include\xmemory
;	COMDAT ??0?$allocator@UStringTick@TutorialWnd@@@std@@QAE@XZ
_TEXT	SEGMENT
??0?$allocator@UStringTick@TutorialWnd@@@std@@QAE@XZ PROC ; std::allocator<TutorialWnd::StringTick>::allocator<TutorialWnd::StringTick>, COMDAT
; _this$ = ecx

; 161  : 	_ALLOCATOR() _THROW0()

  00000	8b c1		 mov	 eax, ecx

; 162  : 		{	// construct default allocator (do nothing)
; 163  : 		}

  00002	c3		 ret	 0
??0?$allocator@UStringTick@TutorialWnd@@@std@@QAE@XZ ENDP ; std::allocator<TutorialWnd::StringTick>::allocator<TutorialWnd::StringTick>
_TEXT	ENDS
PUBLIC	??D?$_Vector_const_iterator@V?$_Vector_val@PAVioUIRenderImage@@V?$allocator@PAVioUIRenderImage@@@std@@@std@@@std@@QBEABQAVioUIRenderImage@@XZ ; std::_Vector_const_iterator<std::_Vector_val<ioUIRenderImage *,std::allocator<ioUIRenderImage *> > >::operator*
; Function compile flags: /Ogsp
; File c:\program files (x86)\microsoft visual studio 10.0\vc\include\vector
;	COMDAT ??D?$_Vector_const_iterator@V?$_Vector_val@PAVioUIRenderImage@@V?$allocator@PAVioUIRenderImage@@@std@@@std@@@std@@QBEABQAVioUIRenderImage@@XZ
_TEXT	SEGMENT
??D?$_Vector_const_iterator@V?$_Vector_val@PAVioUIRenderImage@@V?$allocator@PAVioUIRenderImage@@@std@@@std@@@std@@QBEABQAVioUIRenderImage@@XZ PROC ; std::_Vector_const_iterator<std::_Vector_val<ioUIRenderImage *,std::allocator<ioUIRenderImage *> > >::operator*, COMDAT
; _this$ = ecx

; 64   :  #if _ITERATOR_DEBUG_LEVEL == 2
; 65   : 		if (this->_Getcont() == 0
; 66   : 			|| this->_Ptr == 0
; 67   : 			|| this->_Ptr < ((_Myvec *)this->_Getcont())->_Myfirst
; 68   : 			|| ((_Myvec *)this->_Getcont())->_Mylast <= this->_Ptr)
; 69   : 			{	// report error
; 70   : 			_DEBUG_ERROR("vector iterator not dereferencable");
; 71   : 			_SCL_SECURE_OUT_OF_RANGE;
; 72   : 			}
; 73   : 
; 74   :  #elif _ITERATOR_DEBUG_LEVEL == 1
; 75   : 		_SCL_SECURE_VALIDATE(this->_Getcont() != 0);
; 76   : 		_SCL_SECURE_VALIDATE_RANGE(
; 77   : 			this->_Ptr != 0
; 78   : 			&& ((_Myvec *)this->_Getcont())->_Myfirst <= this->_Ptr
; 79   : 			&& this->_Ptr < ((_Myvec *)this->_Getcont())->_Mylast);
; 80   :  #endif /* _ITERATOR_DEBUG_LEVEL */
; 81   : 
; 82   : 		__analysis_assume(this->_Ptr != 0);
; 83   : 
; 84   : 		return (*this->_Ptr);

  00000	8b 01		 mov	 eax, DWORD PTR [ecx]

; 85   : 		}

  00002	c3		 ret	 0
??D?$_Vector_const_iterator@V?$_Vector_val@PAVioUIRenderImage@@V?$allocator@PAVioUIRenderImage@@@std@@@std@@@std@@QBEABQAVioUIRenderImage@@XZ ENDP ; std::_Vector_const_iterator<std::_Vector_val<ioUIRenderImage *,std::allocator<ioUIRenderImage *> > >::operator*
_TEXT	ENDS
PUBLIC	??E?$_Vector_const_iterator@V?$_Vector_val@PAVioUIRenderImage@@V?$allocator@PAVioUIRenderImage@@@std@@@std@@@std@@QAEAAV01@XZ ; std::_Vector_const_iterator<std::_Vector_val<ioUIRenderImage *,std::allocator<ioUIRenderImage *> > >::operator++
; Function compile flags: /Ogsp
;	COMDAT ??E?$_Vector_const_iterator@V?$_Vector_val@PAVioUIRenderImage@@V?$allocator@PAVioUIRenderImage@@@std@@@std@@@std@@QAEAAV01@XZ
_TEXT	SEGMENT
??E?$_Vector_const_iterator@V?$_Vector_val@PAVioUIRenderImage@@V?$allocator@PAVioUIRenderImage@@@std@@@std@@@std@@QAEAAV01@XZ PROC ; std::_Vector_const_iterator<std::_Vector_val<ioUIRenderImage *,std::allocator<ioUIRenderImage *> > >::operator++, COMDAT
; _this$ = ecx

; 93   : 		{	// preincrement

  00000	8b c1		 mov	 eax, ecx

; 94   :  #if _ITERATOR_DEBUG_LEVEL == 2
; 95   : 		if (this->_Getcont() == 0
; 96   : 			|| this->_Ptr == 0
; 97   : 			|| ((_Myvec *)this->_Getcont())->_Mylast <= this->_Ptr)
; 98   : 			{	// report error
; 99   : 			_DEBUG_ERROR("vector iterator not incrementable");
; 100  : 			_SCL_SECURE_OUT_OF_RANGE;
; 101  : 			}
; 102  : 
; 103  :  #elif _ITERATOR_DEBUG_LEVEL == 1
; 104  : 		_SCL_SECURE_VALIDATE(this->_Getcont() != 0);
; 105  : 		_SCL_SECURE_VALIDATE_RANGE(
; 106  : 			this->_Ptr != 0
; 107  : 			&& this->_Ptr < ((_Myvec *)this->_Getcont())->_Mylast);
; 108  :  #endif /* _ITERATOR_DEBUG_LEVEL */
; 109  : 
; 110  : 		++this->_Ptr;

  00002	83 00 04	 add	 DWORD PTR [eax], 4

; 111  : 		return (*this);
; 112  : 		}

  00005	c3		 ret	 0
??E?$_Vector_const_iterator@V?$_Vector_val@PAVioUIRenderImage@@V?$allocator@PAVioUIRenderImage@@@std@@@std@@@std@@QAEAAV01@XZ ENDP ; std::_Vector_const_iterator<std::_Vector_val<ioUIRenderImage *,std::allocator<ioUIRenderImage *> > >::operator++
_TEXT	ENDS
PUBLIC	??_C@_0BD@OLBABOEK@vector?$DMT?$DO?5too?5long?$AA@ ; `string'
PUBLIC	?_Xlen@?$vector@V?$basic_string@DU?$char_traits@D@std@@V?$allocator@D@2@@std@@V?$allocator@V?$basic_string@DU?$char_traits@D@std@@V?$allocator@D@2@@std@@@2@@std@@IBEXXZ ; std::vector<std::basic_string<char,std::char_traits<char>,std::allocator<char> >,std::allocator<std::basic_string<char,std::char_traits<char>,std::allocator<char> > > >::_Xlen
EXTRN	__imp_?_Xlength_error@std@@YAXPBD@Z:PROC
;	COMDAT ??_C@_0BD@OLBABOEK@vector?$DMT?$DO?5too?5long?$AA@
CONST	SEGMENT
??_C@_0BD@OLBABOEK@vector?$DMT?$DO?5too?5long?$AA@ DB 'vector<T> too long'
	DB	00H						; `string'
; Function compile flags: /Ogsp
CONST	ENDS
;	COMDAT ?_Xlen@?$vector@V?$basic_string@DU?$char_traits@D@std@@V?$allocator@D@2@@std@@V?$allocator@V?$basic_string@DU?$char_traits@D@std@@V?$allocator@D@2@@std@@@2@@std@@IBEXXZ
_TEXT	SEGMENT
?_Xlen@?$vector@V?$basic_string@DU?$char_traits@D@std@@V?$allocator@D@2@@std@@V?$allocator@V?$basic_string@DU?$char_traits@D@std@@V?$allocator@D@2@@std@@@2@@std@@IBEXXZ PROC ; std::vector<std::basic_string<char,std::char_traits<char>,std::allocator<char> >,std::allocator<std::basic_string<char,std::char_traits<char>,std::allocator<char> > > >::_Xlen, COMDAT
; _this$ = ecx

; 1427 : 		_Xlength_error("vector<T> too long");

  00000	68 00 00 00 00	 push	 OFFSET ??_C@_0BD@OLBABOEK@vector?$DMT?$DO?5too?5long?$AA@
  00005	ff 15 00 00 00
	00		 call	 DWORD PTR __imp_?_Xlength_error@std@@YAXPBD@Z
$LN4@Xlen:
$LN3@Xlen:
  0000b	cc		 int	 3
?_Xlen@?$vector@V?$basic_string@DU?$char_traits@D@std@@V?$allocator@D@2@@std@@V?$allocator@V?$basic_string@DU?$char_traits@D@std@@V?$allocator@D@2@@std@@@2@@std@@IBEXXZ ENDP ; std::vector<std::basic_string<char,std::char_traits<char>,std::allocator<char> >,std::allocator<std::basic_string<char,std::char_traits<char>,std::allocator<char> > > >::_Xlen
_TEXT	ENDS
PUBLIC	??0?$allocator@V?$basic_string@DU?$char_traits@D@std@@V?$allocator@D@2@@std@@@std@@QAE@ABV01@@Z ; std::allocator<std::basic_string<char,std::char_traits<char>,std::allocator<char> > >::allocator<std::basic_string<char,std::char_traits<char>,std::allocator<char> > >
; Function compile flags: /Ogsp
; File c:\program files (x86)\microsoft visual studio 10.0\vc\include\xmemory
;	COMDAT ??0?$allocator@V?$basic_string@DU?$char_traits@D@std@@V?$allocator@D@2@@std@@@std@@QAE@ABV01@@Z
_TEXT	SEGMENT
___formal$ = 8						; size = 4
??0?$allocator@V?$basic_string@DU?$char_traits@D@std@@V?$allocator@D@2@@std@@@std@@QAE@ABV01@@Z PROC ; std::allocator<std::basic_string<char,std::char_traits<char>,std::allocator<char> > >::allocator<std::basic_string<char,std::char_traits<char>,std::allocator<char> > >, COMDAT
; _this$ = ecx

; 165  : 	_ALLOCATOR(const _ALLOCATOR<_Ty>&) _THROW0()

  00000	8b c1		 mov	 eax, ecx

; 166  : 		{	// construct by copying (do nothing)
; 167  : 		}

  00002	c2 04 00	 ret	 4
??0?$allocator@V?$basic_string@DU?$char_traits@D@std@@V?$allocator@D@2@@std@@@std@@QAE@ABV01@@Z ENDP ; std::allocator<std::basic_string<char,std::char_traits<char>,std::allocator<char> > >::allocator<std::basic_string<char,std::char_traits<char>,std::allocator<char> > >
_TEXT	ENDS
PUBLIC	?capacity@?$vector@UStringTick@TutorialWnd@@V?$allocator@UStringTick@TutorialWnd@@@std@@@std@@QBEIXZ ; std::vector<TutorialWnd::StringTick,std::allocator<TutorialWnd::StringTick> >::capacity
; Function compile flags: /Ogsp
; File c:\program files (x86)\microsoft visual studio 10.0\vc\include\vector
;	COMDAT ?capacity@?$vector@UStringTick@TutorialWnd@@V?$allocator@UStringTick@TutorialWnd@@@std@@@std@@QBEIXZ
_TEXT	SEGMENT
?capacity@?$vector@UStringTick@TutorialWnd@@V?$allocator@UStringTick@TutorialWnd@@@std@@@std@@QBEIXZ PROC ; std::vector<TutorialWnd::StringTick,std::allocator<TutorialWnd::StringTick> >::capacity, COMDAT
; _this$ = ecx

; 777  : 		return (this->_Myend - this->_Myfirst);

  00000	8b 41 08	 mov	 eax, DWORD PTR [ecx+8]
  00003	2b 01		 sub	 eax, DWORD PTR [ecx]
  00005	b9 04 01 00 00	 mov	 ecx, 260		; 00000104H
  0000a	99		 cdq
  0000b	f7 f9		 idiv	 ecx

; 778  : 		}

  0000d	c3		 ret	 0
?capacity@?$vector@UStringTick@TutorialWnd@@V?$allocator@UStringTick@TutorialWnd@@@std@@@std@@QBEIXZ ENDP ; std::vector<TutorialWnd::StringTick,std::allocator<TutorialWnd::StringTick> >::capacity
_TEXT	ENDS
PUBLIC	?_Xlen@?$vector@UStringTick@TutorialWnd@@V?$allocator@UStringTick@TutorialWnd@@@std@@@std@@IBEXXZ ; std::vector<TutorialWnd::StringTick,std::allocator<TutorialWnd::StringTick> >::_Xlen
; Function compile flags: /Ogsp
;	COMDAT ?_Xlen@?$vector@UStringTick@TutorialWnd@@V?$allocator@UStringTick@TutorialWnd@@@std@@@std@@IBEXXZ
_TEXT	SEGMENT
?_Xlen@?$vector@UStringTick@TutorialWnd@@V?$allocator@UStringTick@TutorialWnd@@@std@@@std@@IBEXXZ PROC ; std::vector<TutorialWnd::StringTick,std::allocator<TutorialWnd::StringTick> >::_Xlen, COMDAT
; _this$ = ecx

; 1427 : 		_Xlength_error("vector<T> too long");

  00000	68 00 00 00 00	 push	 OFFSET ??_C@_0BD@OLBABOEK@vector?$DMT?$DO?5too?5long?$AA@
  00005	ff 15 00 00 00
	00		 call	 DWORD PTR __imp_?_Xlength_error@std@@YAXPBD@Z
$LN4@Xlen@2:
$LN3@Xlen@2:
  0000b	cc		 int	 3
?_Xlen@?$vector@UStringTick@TutorialWnd@@V?$allocator@UStringTick@TutorialWnd@@@std@@@std@@IBEXXZ ENDP ; std::vector<TutorialWnd::StringTick,std::allocator<TutorialWnd::StringTick> >::_Xlen
_TEXT	ENDS
PUBLIC	??0?$allocator@UStringTick@TutorialWnd@@@std@@QAE@ABV01@@Z ; std::allocator<TutorialWnd::StringTick>::allocator<TutorialWnd::StringTick>
; Function compile flags: /Ogsp
; File c:\program files (x86)\microsoft visual studio 10.0\vc\include\xmemory
;	COMDAT ??0?$allocator@UStringTick@TutorialWnd@@@std@@QAE@ABV01@@Z
_TEXT	SEGMENT
___formal$ = 8						; size = 4
??0?$allocator@UStringTick@TutorialWnd@@@std@@QAE@ABV01@@Z PROC ; std::allocator<TutorialWnd::StringTick>::allocator<TutorialWnd::StringTick>, COMDAT
; _this$ = ecx

; 165  : 	_ALLOCATOR(const _ALLOCATOR<_Ty>&) _THROW0()

  00000	8b c1		 mov	 eax, ecx

; 166  : 		{	// construct by copying (do nothing)
; 167  : 		}

  00002	c2 04 00	 ret	 4
??0?$allocator@UStringTick@TutorialWnd@@@std@@QAE@ABV01@@Z ENDP ; std::allocator<TutorialWnd::StringTick>::allocator<TutorialWnd::StringTick>
_TEXT	ENDS
PUBLIC	?deallocate@?$allocator@UStringTick@TutorialWnd@@@std@@QAEXPAUStringTick@TutorialWnd@@I@Z ; std::allocator<TutorialWnd::StringTick>::deallocate
; Function compile flags: /Ogsp
;	COMDAT ?deallocate@?$allocator@UStringTick@TutorialWnd@@@std@@QAEXPAUStringTick@TutorialWnd@@I@Z
_TEXT	SEGMENT
__Ptr$ = 8						; size = 4
___formal$ = 12						; size = 4
?deallocate@?$allocator@UStringTick@TutorialWnd@@@std@@QAEXPAUStringTick@TutorialWnd@@I@Z PROC ; std::allocator<TutorialWnd::StringTick>::deallocate, COMDAT
; _this$ = ecx

; 181  : 		{	// deallocate object at _Ptr, ignore size

  00000	55		 push	 ebp
  00001	8b ec		 mov	 ebp, esp

; 182  : 		::operator delete(_Ptr);

  00003	ff 75 08	 push	 DWORD PTR __Ptr$[ebp]
  00006	e8 00 00 00 00	 call	 ??3@YAXPAX@Z		; operator delete
  0000b	59		 pop	 ecx

; 183  : 		}

  0000c	5d		 pop	 ebp
  0000d	c2 08 00	 ret	 8
?deallocate@?$allocator@UStringTick@TutorialWnd@@@std@@QAEXPAUStringTick@TutorialWnd@@I@Z ENDP ; std::allocator<TutorialWnd::StringTick>::deallocate
_TEXT	ENDS
PUBLIC	??0?$_Vector_const_iterator@V?$_Vector_val@PAVioUIRenderImage@@V?$allocator@PAVioUIRenderImage@@@std@@@std@@@std@@QAE@PAPAVioUIRenderImage@@PBU_Container_base0@1@@Z ; std::_Vector_const_iterator<std::_Vector_val<ioUIRenderImage *,std::allocator<ioUIRenderImage *> > >::_Vector_const_iterator<std::_Vector_val<ioUIRenderImage *,std::allocator<ioUIRenderImage *> > >
; Function compile flags: /Ogsp
; File c:\program files (x86)\microsoft visual studio 10.0\vc\include\vector
;	COMDAT ??0?$_Vector_const_iterator@V?$_Vector_val@PAVioUIRenderImage@@V?$allocator@PAVioUIRenderImage@@@std@@@std@@@std@@QAE@PAPAVioUIRenderImage@@PBU_Container_base0@1@@Z
_TEXT	SEGMENT
__Parg$ = 8						; size = 4
__Pvector$ = 12						; size = 4
??0?$_Vector_const_iterator@V?$_Vector_val@PAVioUIRenderImage@@V?$allocator@PAVioUIRenderImage@@@std@@@std@@@std@@QAE@PAPAVioUIRenderImage@@PBU_Container_base0@1@@Z PROC ; std::_Vector_const_iterator<std::_Vector_val<ioUIRenderImage *,std::allocator<ioUIRenderImage *> > >::_Vector_const_iterator<std::_Vector_val<ioUIRenderImage *,std::allocator<ioUIRenderImage *> > >, COMDAT
; _this$ = ecx

; 45   : 		{	// construct with pointer _Parg

  00000	55		 push	 ebp
  00001	8b ec		 mov	 ebp, esp
  00003	8b c1		 mov	 eax, ecx
  00005	8b 4d 08	 mov	 ecx, DWORD PTR __Parg$[ebp]
  00008	89 08		 mov	 DWORD PTR [eax], ecx

; 46   : 		this->_Adopt(_Pvector);
; 47   : 		}

  0000a	5d		 pop	 ebp
  0000b	c2 08 00	 ret	 8
??0?$_Vector_const_iterator@V?$_Vector_val@PAVioUIRenderImage@@V?$allocator@PAVioUIRenderImage@@@std@@@std@@@std@@QAE@PAPAVioUIRenderImage@@PBU_Container_base0@1@@Z ENDP ; std::_Vector_const_iterator<std::_Vector_val<ioUIRenderImage *,std::allocator<ioUIRenderImage *> > >::_Vector_const_iterator<std::_Vector_val<ioUIRenderImage *,std::allocator<ioUIRenderImage *> > >
_TEXT	ENDS
PUBLIC	?_Compat@?$_Vector_const_iterator@V?$_Vector_val@PAVioUIRenderImage@@V?$allocator@PAVioUIRenderImage@@@std@@@std@@@std@@QBEXABV12@@Z ; std::_Vector_const_iterator<std::_Vector_val<ioUIRenderImage *,std::allocator<ioUIRenderImage *> > >::_Compat
; Function compile flags: /Ogsp
;	COMDAT ?_Compat@?$_Vector_const_iterator@V?$_Vector_val@PAVioUIRenderImage@@V?$allocator@PAVioUIRenderImage@@@std@@@std@@@std@@QBEXABV12@@Z
_TEXT	SEGMENT
___formal$ = 8						; size = 4
?_Compat@?$_Vector_const_iterator@V?$_Vector_val@PAVioUIRenderImage@@V?$allocator@PAVioUIRenderImage@@@std@@@std@@@std@@QBEXABV12@@Z PROC ; std::_Vector_const_iterator<std::_Vector_val<ioUIRenderImage *,std::allocator<ioUIRenderImage *> > >::_Compat, COMDAT
; _this$ = ecx

; 253  : 		}

  00000	c2 04 00	 ret	 4
?_Compat@?$_Vector_const_iterator@V?$_Vector_val@PAVioUIRenderImage@@V?$allocator@PAVioUIRenderImage@@@std@@@std@@@std@@QBEXABV12@@Z ENDP ; std::_Vector_const_iterator<std::_Vector_val<ioUIRenderImage *,std::allocator<ioUIRenderImage *> > >::_Compat
_TEXT	ENDS
PUBLIC	?max_size@?$allocator@V?$basic_string@DU?$char_traits@D@std@@V?$allocator@D@2@@std@@@std@@QBEIXZ ; std::allocator<std::basic_string<char,std::char_traits<char>,std::allocator<char> > >::max_size
; Function compile flags: /Ogsp
; File c:\program files (x86)\microsoft visual studio 10.0\vc\include\xmemory
;	COMDAT ?max_size@?$allocator@V?$basic_string@DU?$char_traits@D@std@@V?$allocator@D@2@@std@@@std@@QBEIXZ
_TEXT	SEGMENT
?max_size@?$allocator@V?$basic_string@DU?$char_traits@D@std@@V?$allocator@D@2@@std@@@std@@QBEIXZ PROC ; std::allocator<std::basic_string<char,std::char_traits<char>,std::allocator<char> > >::max_size, COMDAT
; _this$ = ecx

; 218  : 		_SIZT _Count = (_SIZT)(-1) / sizeof (_Ty);
; 219  : 		return (0 < _Count ? _Count : 1);

  00000	b8 49 92 24 09	 mov	 eax, 153391689		; 09249249H

; 220  : 		}

  00005	c3		 ret	 0
?max_size@?$allocator@V?$basic_string@DU?$char_traits@D@std@@V?$allocator@D@2@@std@@@std@@QBEIXZ ENDP ; std::allocator<std::basic_string<char,std::char_traits<char>,std::allocator<char> > >::max_size
_TEXT	ENDS
PUBLIC	?max_size@?$allocator@UStringTick@TutorialWnd@@@std@@QBEIXZ ; std::allocator<TutorialWnd::StringTick>::max_size
; Function compile flags: /Ogsp
;	COMDAT ?max_size@?$allocator@UStringTick@TutorialWnd@@@std@@QBEIXZ
_TEXT	SEGMENT
?max_size@?$allocator@UStringTick@TutorialWnd@@@std@@QBEIXZ PROC ; std::allocator<TutorialWnd::StringTick>::max_size, COMDAT
; _this$ = ecx

; 218  : 		_SIZT _Count = (_SIZT)(-1) / sizeof (_Ty);
; 219  : 		return (0 < _Count ? _Count : 1);

  00000	b8 c0 0f fc 00	 mov	 eax, 16519104		; 00fc0fc0H

; 220  : 		}

  00005	c3		 ret	 0
?max_size@?$allocator@UStringTick@TutorialWnd@@@std@@QBEIXZ ENDP ; std::allocator<TutorialWnd::StringTick>::max_size
_TEXT	ENDS
PUBLIC	??0?$_Vector_const_iterator@V?$_Vector_val@V?$basic_string@DU?$char_traits@D@std@@V?$allocator@D@2@@std@@V?$allocator@V?$basic_string@DU?$char_traits@D@std@@V?$allocator@D@2@@std@@@2@@std@@@std@@QAE@PAV?$basic_string@DU?$char_traits@D@std@@V?$allocator@D@2@@1@PBU_Container_base0@1@@Z ; std::_Vector_const_iterator<std::_Vector_val<std::basic_string<char,std::char_traits<char>,std::allocator<char> >,std::allocator<std::basic_string<char,std::char_traits<char>,std::allocator<char> > > > >::_Vector_const_iterator<std::_Vector_val<std::basic_string<char,std::char_traits<char>,std::allocator<char> >,std::allocator<std::basic_string<char,std::char_traits<char>,std::allocator<char> > > > >
; Function compile flags: /Ogsp
; File c:\program files (x86)\microsoft visual studio 10.0\vc\include\vector
;	COMDAT ??0?$_Vector_const_iterator@V?$_Vector_val@V?$basic_string@DU?$char_traits@D@std@@V?$allocator@D@2@@std@@V?$allocator@V?$basic_string@DU?$char_traits@D@std@@V?$allocator@D@2@@std@@@2@@std@@@std@@QAE@PAV?$basic_string@DU?$char_traits@D@std@@V?$allocator@D@2@@1@PBU_Container_base0@1@@Z
_TEXT	SEGMENT
__Parg$ = 8						; size = 4
__Pvector$ = 12						; size = 4
??0?$_Vector_const_iterator@V?$_Vector_val@V?$basic_string@DU?$char_traits@D@std@@V?$allocator@D@2@@std@@V?$allocator@V?$basic_string@DU?$char_traits@D@std@@V?$allocator@D@2@@std@@@2@@std@@@std@@QAE@PAV?$basic_string@DU?$char_traits@D@std@@V?$allocator@D@2@@1@PBU_Container_base0@1@@Z PROC ; std::_Vector_const_iterator<std::_Vector_val<std::basic_string<char,std::char_traits<char>,std::allocator<char> >,std::allocator<std::basic_string<char,std::char_traits<char>,std::allocator<char> > > > >::_Vector_const_iterator<std::_Vector_val<std::basic_string<char,std::char_traits<char>,std::allocator<char> >,std::allocator<std::basic_string<char,std::char_traits<char>,std::allocator<char> > > > >, COMDAT
; _this$ = ecx

; 45   : 		{	// construct with pointer _Parg

  00000	55		 push	 ebp
  00001	8b ec		 mov	 ebp, esp
  00003	8b c1		 mov	 eax, ecx
  00005	8b 4d 08	 mov	 ecx, DWORD PTR __Parg$[ebp]
  00008	89 08		 mov	 DWORD PTR [eax], ecx

; 46   : 		this->_Adopt(_Pvector);
; 47   : 		}

  0000a	5d		 pop	 ebp
  0000b	c2 08 00	 ret	 8
??0?$_Vector_const_iterator@V?$_Vector_val@V?$basic_string@DU?$char_traits@D@std@@V?$allocator@D@2@@std@@V?$allocator@V?$basic_string@DU?$char_traits@D@std@@V?$allocator@D@2@@std@@@2@@std@@@std@@QAE@PAV?$basic_string@DU?$char_traits@D@std@@V?$allocator@D@2@@1@PBU_Container_base0@1@@Z ENDP ; std::_Vector_const_iterator<std::_Vector_val<std::basic_string<char,std::char_traits<char>,std::allocator<char> >,std::allocator<std::basic_string<char,std::char_traits<char>,std::allocator<char> > > > >::_Vector_const_iterator<std::_Vector_val<std::basic_string<char,std::char_traits<char>,std::allocator<char> >,std::allocator<std::basic_string<char,std::char_traits<char>,std::allocator<char> > > > >
_TEXT	ENDS
PUBLIC	??0?$_Vector_const_iterator@V?$_Vector_val@UStringTick@TutorialWnd@@V?$allocator@UStringTick@TutorialWnd@@@std@@@std@@@std@@QAE@PAUStringTick@TutorialWnd@@PBU_Container_base0@1@@Z ; std::_Vector_const_iterator<std::_Vector_val<TutorialWnd::StringTick,std::allocator<TutorialWnd::StringTick> > >::_Vector_const_iterator<std::_Vector_val<TutorialWnd::StringTick,std::allocator<TutorialWnd::StringTick> > >
; Function compile flags: /Ogsp
;	COMDAT ??0?$_Vector_const_iterator@V?$_Vector_val@UStringTick@TutorialWnd@@V?$allocator@UStringTick@TutorialWnd@@@std@@@std@@@std@@QAE@PAUStringTick@TutorialWnd@@PBU_Container_base0@1@@Z
_TEXT	SEGMENT
__Parg$ = 8						; size = 4
__Pvector$ = 12						; size = 4
??0?$_Vector_const_iterator@V?$_Vector_val@UStringTick@TutorialWnd@@V?$allocator@UStringTick@TutorialWnd@@@std@@@std@@@std@@QAE@PAUStringTick@TutorialWnd@@PBU_Container_base0@1@@Z PROC ; std::_Vector_const_iterator<std::_Vector_val<TutorialWnd::StringTick,std::allocator<TutorialWnd::StringTick> > >::_Vector_const_iterator<std::_Vector_val<TutorialWnd::StringTick,std::allocator<TutorialWnd::StringTick> > >, COMDAT
; _this$ = ecx

; 45   : 		{	// construct with pointer _Parg

  00000	55		 push	 ebp
  00001	8b ec		 mov	 ebp, esp
  00003	8b c1		 mov	 eax, ecx
  00005	8b 4d 08	 mov	 ecx, DWORD PTR __Parg$[ebp]
  00008	89 08		 mov	 DWORD PTR [eax], ecx

; 46   : 		this->_Adopt(_Pvector);
; 47   : 		}

  0000a	5d		 pop	 ebp
  0000b	c2 08 00	 ret	 8
??0?$_Vector_const_iterator@V?$_Vector_val@UStringTick@TutorialWnd@@V?$allocator@UStringTick@TutorialWnd@@@std@@@std@@@std@@QAE@PAUStringTick@TutorialWnd@@PBU_Container_base0@1@@Z ENDP ; std::_Vector_const_iterator<std::_Vector_val<TutorialWnd::StringTick,std::allocator<TutorialWnd::StringTick> > >::_Vector_const_iterator<std::_Vector_val<TutorialWnd::StringTick,std::allocator<TutorialWnd::StringTick> > >
_TEXT	ENDS
PUBLIC	?_Compat@?$_Vector_const_iterator@V?$_Vector_val@V?$basic_string@DU?$char_traits@D@std@@V?$allocator@D@2@@std@@V?$allocator@V?$basic_string@DU?$char_traits@D@std@@V?$allocator@D@2@@std@@@2@@std@@@std@@QBEXABV12@@Z ; std::_Vector_const_iterator<std::_Vector_val<std::basic_string<char,std::char_traits<char>,std::allocator<char> >,std::allocator<std::basic_string<char,std::char_traits<char>,std::allocator<char> > > > >::_Compat
; Function compile flags: /Ogsp
;	COMDAT ?_Compat@?$_Vector_const_iterator@V?$_Vector_val@V?$basic_string@DU?$char_traits@D@std@@V?$allocator@D@2@@std@@V?$allocator@V?$basic_string@DU?$char_traits@D@std@@V?$allocator@D@2@@std@@@2@@std@@@std@@QBEXABV12@@Z
_TEXT	SEGMENT
___formal$ = 8						; size = 4
?_Compat@?$_Vector_const_iterator@V?$_Vector_val@V?$basic_string@DU?$char_traits@D@std@@V?$allocator@D@2@@std@@V?$allocator@V?$basic_string@DU?$char_traits@D@std@@V?$allocator@D@2@@std@@@2@@std@@@std@@QBEXABV12@@Z PROC ; std::_Vector_const_iterator<std::_Vector_val<std::basic_string<char,std::char_traits<char>,std::allocator<char> >,std::allocator<std::basic_string<char,std::char_traits<char>,std::allocator<char> > > > >::_Compat, COMDAT
; _this$ = ecx

; 253  : 		}

  00000	c2 04 00	 ret	 4
?_Compat@?$_Vector_const_iterator@V?$_Vector_val@V?$basic_string@DU?$char_traits@D@std@@V?$allocator@D@2@@std@@V?$allocator@V?$basic_string@DU?$char_traits@D@std@@V?$allocator@D@2@@std@@@2@@std@@@std@@QBEXABV12@@Z ENDP ; std::_Vector_const_iterator<std::_Vector_val<std::basic_string<char,std::char_traits<char>,std::allocator<char> >,std::allocator<std::basic_string<char,std::char_traits<char>,std::allocator<char> > > > >::_Compat
_TEXT	ENDS
PUBLIC	?_Compat@?$_Vector_const_iterator@V?$_Vector_val@UStringTick@TutorialWnd@@V?$allocator@UStringTick@TutorialWnd@@@std@@@std@@@std@@QBEXABV12@@Z ; std::_Vector_const_iterator<std::_Vector_val<TutorialWnd::StringTick,std::allocator<TutorialWnd::StringTick> > >::_Compat
; Function compile flags: /Ogsp
;	COMDAT ?_Compat@?$_Vector_const_iterator@V?$_Vector_val@UStringTick@TutorialWnd@@V?$allocator@UStringTick@TutorialWnd@@@std@@@std@@@std@@QBEXABV12@@Z
_TEXT	SEGMENT
___formal$ = 8						; size = 4
?_Compat@?$_Vector_const_iterator@V?$_Vector_val@UStringTick@TutorialWnd@@V?$allocator@UStringTick@TutorialWnd@@@std@@@std@@@std@@QBEXABV12@@Z PROC ; std::_Vector_const_iterator<std::_Vector_val<TutorialWnd::StringTick,std::allocator<TutorialWnd::StringTick> > >::_Compat, COMDAT
; _this$ = ecx

; 253  : 		}

  00000	c2 04 00	 ret	 4
?_Compat@?$_Vector_const_iterator@V?$_Vector_val@UStringTick@TutorialWnd@@V?$allocator@UStringTick@TutorialWnd@@@std@@@std@@@std@@QBEXABV12@@Z ENDP ; std::_Vector_const_iterator<std::_Vector_val<TutorialWnd::StringTick,std::allocator<TutorialWnd::StringTick> > >::_Compat
_TEXT	ENDS
PUBLIC	??$addressof@$$CBUStringTick@TutorialWnd@@@std@@YAPBUStringTick@TutorialWnd@@ABU12@@Z ; std::addressof<TutorialWnd::StringTick const >
; Function compile flags: /Ogsp
; File c:\program files (x86)\microsoft visual studio 10.0\vc\include\xmemory
;	COMDAT ??$addressof@$$CBUStringTick@TutorialWnd@@@std@@YAPBUStringTick@TutorialWnd@@ABU12@@Z
_TEXT	SEGMENT
__Val$ = 8						; size = 4
??$addressof@$$CBUStringTick@TutorialWnd@@@std@@YAPBUStringTick@TutorialWnd@@ABU12@@Z PROC ; std::addressof<TutorialWnd::StringTick const >, COMDAT

; 110  : 	{	// return address of _Val

  00000	55		 push	 ebp
  00001	8b ec		 mov	 ebp, esp

; 111  : 	return ((_Ty *) &(char&)_Val);

  00003	8b 45 08	 mov	 eax, DWORD PTR __Val$[ebp]

; 112  : 	}

  00006	5d		 pop	 ebp
  00007	c3		 ret	 0
??$addressof@$$CBUStringTick@TutorialWnd@@@std@@YAPBUStringTick@TutorialWnd@@ABU12@@Z ENDP ; std::addressof<TutorialWnd::StringTick const >
_TEXT	ENDS
PUBLIC	__TI2?AVbad_alloc@std@@
PUBLIC	??$_Allocate@V?$basic_string@DU?$char_traits@D@std@@V?$allocator@D@2@@std@@@std@@YAPAV?$basic_string@DU?$char_traits@D@std@@V?$allocator@D@2@@0@IPAV10@@Z ; std::_Allocate<std::basic_string<char,std::char_traits<char>,std::allocator<char> > >
PUBLIC	__CTA2?AVbad_alloc@std@@
PUBLIC	__CT??_R0?AVbad_alloc@std@@@8??0bad_alloc@std@@QAE@ABV01@@Z12
PUBLIC	??0bad_alloc@std@@QAE@ABV01@@Z			; std::bad_alloc::bad_alloc
PUBLIC	__CT??_R0?AVexception@std@@@8??0exception@std@@QAE@ABV01@@Z12
EXTRN	??2@YAPAXI@Z:PROC				; operator new
EXTRN	__CxxThrowException@8:PROC
EXTRN	??0exception@std@@QAE@ABV01@@Z:PROC		; std::exception::exception
;	COMDAT __CT??_R0?AVexception@std@@@8??0exception@std@@QAE@ABV01@@Z12
; File c:\program files (x86)\microsoft visual studio 10.0\vc\include\exception
xdata$x	SEGMENT
__CT??_R0?AVexception@std@@@8??0exception@std@@QAE@ABV01@@Z12 DD 00H
	DD	FLAT:??_R0?AVexception@std@@@8
	DD	00H
	DD	0ffffffffH
	ORG $+4
	DD	0cH
	DD	FLAT:??0exception@std@@QAE@ABV01@@Z
xdata$x	ENDS
;	COMDAT __CT??_R0?AVbad_alloc@std@@@8??0bad_alloc@std@@QAE@ABV01@@Z12
xdata$x	SEGMENT
__CT??_R0?AVbad_alloc@std@@@8??0bad_alloc@std@@QAE@ABV01@@Z12 DD 00H
	DD	FLAT:??_R0?AVbad_alloc@std@@@8
	DD	00H
	DD	0ffffffffH
	ORG $+4
	DD	0cH
	DD	FLAT:??0bad_alloc@std@@QAE@ABV01@@Z
xdata$x	ENDS
;	COMDAT __CTA2?AVbad_alloc@std@@
xdata$x	SEGMENT
__CTA2?AVbad_alloc@std@@ DD 02H
	DD	FLAT:__CT??_R0?AVbad_alloc@std@@@8??0bad_alloc@std@@QAE@ABV01@@Z12
	DD	FLAT:__CT??_R0?AVexception@std@@@8??0exception@std@@QAE@ABV01@@Z12
xdata$x	ENDS
;	COMDAT __TI2?AVbad_alloc@std@@
xdata$x	SEGMENT
__TI2?AVbad_alloc@std@@ DD 00H
	DD	FLAT:??1bad_alloc@std@@UAE@XZ
	DD	00H
	DD	FLAT:__CTA2?AVbad_alloc@std@@
; Function compile flags: /Ogsp
; File c:\program files (x86)\microsoft visual studio 10.0\vc\include\xmemory
xdata$x	ENDS
;	COMDAT ??$_Allocate@V?$basic_string@DU?$char_traits@D@std@@V?$allocator@D@2@@std@@@std@@YAPAV?$basic_string@DU?$char_traits@D@std@@V?$allocator@D@2@@0@IPAV10@@Z
_TEXT	SEGMENT
$T521795 = -12						; size = 12
$T521800 = 8						; size = 4
__Count$ = 8						; size = 4
___formal$ = 12						; size = 4
??$_Allocate@V?$basic_string@DU?$char_traits@D@std@@V?$allocator@D@2@@std@@@std@@YAPAV?$basic_string@DU?$char_traits@D@std@@V?$allocator@D@2@@0@IPAV10@@Z PROC ; std::_Allocate<std::basic_string<char,std::char_traits<char>,std::allocator<char> > >, COMDAT

; 30   : 	{	// allocate storage for _Count elements of type _Ty

  00000	55		 push	 ebp
  00001	8b ec		 mov	 ebp, esp

; 31   : 	void *_Ptr = 0;
; 32   : 
; 33   : 	if (_Count <= 0)

  00003	8b 4d 08	 mov	 ecx, DWORD PTR __Count$[ebp]
  00006	83 ec 0c	 sub	 esp, 12			; 0000000cH
  00009	33 c0		 xor	 eax, eax
  0000b	85 c9		 test	 ecx, ecx

; 34   : 		_Count = 0;
; 35   : 	else if (((_SIZT)(-1) / sizeof (_Ty) < _Count)

  0000d	74 3c		 je	 SHORT $LN5@Allocate

; 36   : 		|| (_Ptr = ::operator new(_Count * sizeof (_Ty))) == 0)

  0000f	81 f9 49 92 24
	09		 cmp	 ecx, 153391689		; 09249249H
  00015	77 0e		 ja	 SHORT $LN1@Allocate
  00017	6b c9 1c	 imul	 ecx, 28			; 0000001cH
  0001a	51		 push	 ecx
  0001b	e8 00 00 00 00	 call	 ??2@YAPAXI@Z		; operator new
  00020	59		 pop	 ecx
  00021	85 c0		 test	 eax, eax

; 38   : 
; 39   : 	return ((_Ty _FARQ *)_Ptr);

  00023	75 26		 jne	 SHORT $LN5@Allocate
$LN1@Allocate:

; 37   : 		_THROW_NCEE(bad_alloc, 0);

  00025	83 65 08 00	 and	 DWORD PTR $T521800[ebp], 0
  00029	8d 45 08	 lea	 eax, DWORD PTR $T521800[ebp]
  0002c	50		 push	 eax
  0002d	8d 4d f4	 lea	 ecx, DWORD PTR $T521795[ebp]
  00030	ff 15 00 00 00
	00		 call	 DWORD PTR __imp_??0exception@std@@QAE@ABQBD@Z
  00036	68 00 00 00 00	 push	 OFFSET __TI2?AVbad_alloc@std@@
  0003b	8d 45 f4	 lea	 eax, DWORD PTR $T521795[ebp]
  0003e	50		 push	 eax
  0003f	c7 45 f4 00 00
	00 00		 mov	 DWORD PTR $T521795[ebp], OFFSET ??_7bad_alloc@std@@6B@
  00046	e8 00 00 00 00	 call	 __CxxThrowException@8
$LN10@Allocate:
$LN5@Allocate:

; 40   : 	}

  0004b	c9		 leave
  0004c	c3		 ret	 0
$LN9@Allocate:
??$_Allocate@V?$basic_string@DU?$char_traits@D@std@@V?$allocator@D@2@@std@@@std@@YAPAV?$basic_string@DU?$char_traits@D@std@@V?$allocator@D@2@@0@IPAV10@@Z ENDP ; std::_Allocate<std::basic_string<char,std::char_traits<char>,std::allocator<char> > >
_TEXT	ENDS
PUBLIC	??$_Allocate@UStringTick@TutorialWnd@@@std@@YAPAUStringTick@TutorialWnd@@IPAU12@@Z ; std::_Allocate<TutorialWnd::StringTick>
; Function compile flags: /Ogsp
;	COMDAT ??$_Allocate@UStringTick@TutorialWnd@@@std@@YAPAUStringTick@TutorialWnd@@IPAU12@@Z
_TEXT	SEGMENT
$T521805 = -12						; size = 12
$T521809 = 8						; size = 4
__Count$ = 8						; size = 4
___formal$ = 12						; size = 4
??$_Allocate@UStringTick@TutorialWnd@@@std@@YAPAUStringTick@TutorialWnd@@IPAU12@@Z PROC ; std::_Allocate<TutorialWnd::StringTick>, COMDAT

; 30   : 	{	// allocate storage for _Count elements of type _Ty

  00000	55		 push	 ebp
  00001	8b ec		 mov	 ebp, esp

; 31   : 	void *_Ptr = 0;
; 32   : 
; 33   : 	if (_Count <= 0)

  00003	8b 4d 08	 mov	 ecx, DWORD PTR __Count$[ebp]
  00006	83 ec 0c	 sub	 esp, 12			; 0000000cH
  00009	33 c0		 xor	 eax, eax
  0000b	85 c9		 test	 ecx, ecx

; 34   : 		_Count = 0;
; 35   : 	else if (((_SIZT)(-1) / sizeof (_Ty) < _Count)

  0000d	74 3f		 je	 SHORT $LN5@Allocate@2

; 36   : 		|| (_Ptr = ::operator new(_Count * sizeof (_Ty))) == 0)

  0000f	81 f9 c0 0f fc
	00		 cmp	 ecx, 16519104		; 00fc0fc0H
  00015	77 11		 ja	 SHORT $LN1@Allocate@2
  00017	69 c9 04 01 00
	00		 imul	 ecx, 260		; 00000104H
  0001d	51		 push	 ecx
  0001e	e8 00 00 00 00	 call	 ??2@YAPAXI@Z		; operator new
  00023	59		 pop	 ecx
  00024	85 c0		 test	 eax, eax

; 38   : 
; 39   : 	return ((_Ty _FARQ *)_Ptr);

  00026	75 26		 jne	 SHORT $LN5@Allocate@2
$LN1@Allocate@2:

; 37   : 		_THROW_NCEE(bad_alloc, 0);

  00028	83 65 08 00	 and	 DWORD PTR $T521809[ebp], 0
  0002c	8d 45 08	 lea	 eax, DWORD PTR $T521809[ebp]
  0002f	50		 push	 eax
  00030	8d 4d f4	 lea	 ecx, DWORD PTR $T521805[ebp]
  00033	ff 15 00 00 00
	00		 call	 DWORD PTR __imp_??0exception@std@@QAE@ABQBD@Z
  00039	68 00 00 00 00	 push	 OFFSET __TI2?AVbad_alloc@std@@
  0003e	8d 45 f4	 lea	 eax, DWORD PTR $T521805[ebp]
  00041	50		 push	 eax
  00042	c7 45 f4 00 00
	00 00		 mov	 DWORD PTR $T521805[ebp], OFFSET ??_7bad_alloc@std@@6B@
  00049	e8 00 00 00 00	 call	 __CxxThrowException@8
$LN10@Allocate@2:
$LN5@Allocate@2:

; 40   : 	}

  0004e	c9		 leave
  0004f	c3		 ret	 0
$LN9@Allocate@2:
??$_Allocate@UStringTick@TutorialWnd@@@std@@YAPAUStringTick@TutorialWnd@@IPAU12@@Z ENDP ; std::_Allocate<TutorialWnd::StringTick>
_TEXT	ENDS
PUBLIC	??$forward@AAUStringTick@TutorialWnd@@@std@@YAAAUStringTick@TutorialWnd@@AAU12@@Z ; std::forward<TutorialWnd::StringTick &>
; Function compile flags: /Ogsp
; File c:\program files (x86)\microsoft visual studio 10.0\vc\include\utility
;	COMDAT ??$forward@AAUStringTick@TutorialWnd@@@std@@YAAAUStringTick@TutorialWnd@@AAU12@@Z
_TEXT	SEGMENT
__Arg$ = 8						; size = 4
??$forward@AAUStringTick@TutorialWnd@@@std@@YAAAUStringTick@TutorialWnd@@AAU12@@Z PROC ; std::forward<TutorialWnd::StringTick &>, COMDAT

; 78   : 	{	// forward _Arg, given explicitly specified type parameter

  00000	55		 push	 ebp
  00001	8b ec		 mov	 ebp, esp

; 79   : 	return ((_Ty&&)_Arg);

  00003	8b 45 08	 mov	 eax, DWORD PTR __Arg$[ebp]

; 80   : 	}

  00006	5d		 pop	 ebp
  00007	c3		 ret	 0
??$forward@AAUStringTick@TutorialWnd@@@std@@YAAAUStringTick@TutorialWnd@@AAU12@@Z ENDP ; std::forward<TutorialWnd::StringTick &>
_TEXT	ENDS
PUBLIC	??$construct@AAUStringTick@TutorialWnd@@@?$allocator@UStringTick@TutorialWnd@@@std@@QAEXPAUStringTick@TutorialWnd@@AAU23@@Z ; std::allocator<TutorialWnd::StringTick>::construct<TutorialWnd::StringTick &>
; Function compile flags: /Ogsp
; File c:\program files (x86)\microsoft visual studio 10.0\vc\include\xmemory
;	COMDAT ??$construct@AAUStringTick@TutorialWnd@@@?$allocator@UStringTick@TutorialWnd@@@std@@QAEXPAUStringTick@TutorialWnd@@AAU23@@Z
_TEXT	SEGMENT
__Ptr$ = 8						; size = 4
__Val$ = 12						; size = 4
??$construct@AAUStringTick@TutorialWnd@@@?$allocator@UStringTick@TutorialWnd@@@std@@QAEXPAUStringTick@TutorialWnd@@AAU23@@Z PROC ; std::allocator<TutorialWnd::StringTick>::construct<TutorialWnd::StringTick &>, COMDAT
; _this$ = ecx

; 206  : 		void construct(pointer _Ptr, _Other&& _Val)

  00000	55		 push	 ebp
  00001	8b ec		 mov	 ebp, esp
  00003	57		 push	 edi

; 207  : 		{	// construct object at _Ptr with value _Val
; 208  : 		::new ((void _FARQ *)_Ptr) _Ty(_STD forward<_Other>(_Val));

  00004	8b 7d 08	 mov	 edi, DWORD PTR __Ptr$[ebp]
  00007	85 ff		 test	 edi, edi
  00009	74 0a		 je	 SHORT $LN3@construct
  0000b	56		 push	 esi
  0000c	8b 75 0c	 mov	 esi, DWORD PTR __Val$[ebp]
  0000f	6a 41		 push	 65			; 00000041H
  00011	59		 pop	 ecx
  00012	f3 a5		 rep movsd
  00014	5e		 pop	 esi
$LN3@construct:
  00015	5f		 pop	 edi

; 209  : 		}

  00016	5d		 pop	 ebp
  00017	c2 08 00	 ret	 8
??$construct@AAUStringTick@TutorialWnd@@@?$allocator@UStringTick@TutorialWnd@@@std@@QAEXPAUStringTick@TutorialWnd@@AAU23@@Z ENDP ; std::allocator<TutorialWnd::StringTick>::construct<TutorialWnd::StringTick &>
_TEXT	ENDS
PUBLIC	??$forward@ABUStringTick@TutorialWnd@@@std@@YAABUStringTick@TutorialWnd@@ABU12@@Z ; std::forward<TutorialWnd::StringTick const &>
; Function compile flags: /Ogsp
; File c:\program files (x86)\microsoft visual studio 10.0\vc\include\utility
;	COMDAT ??$forward@ABUStringTick@TutorialWnd@@@std@@YAABUStringTick@TutorialWnd@@ABU12@@Z
_TEXT	SEGMENT
__Arg$ = 8						; size = 4
??$forward@ABUStringTick@TutorialWnd@@@std@@YAABUStringTick@TutorialWnd@@ABU12@@Z PROC ; std::forward<TutorialWnd::StringTick const &>, COMDAT

; 78   : 	{	// forward _Arg, given explicitly specified type parameter

  00000	55		 push	 ebp
  00001	8b ec		 mov	 ebp, esp

; 79   : 	return ((_Ty&&)_Arg);

  00003	8b 45 08	 mov	 eax, DWORD PTR __Arg$[ebp]

; 80   : 	}

  00006	5d		 pop	 ebp
  00007	c3		 ret	 0
??$forward@ABUStringTick@TutorialWnd@@@std@@YAABUStringTick@TutorialWnd@@ABU12@@Z ENDP ; std::forward<TutorialWnd::StringTick const &>
_TEXT	ENDS
PUBLIC	??$_Ptr_cat@UStringTick@TutorialWnd@@U12@@std@@YA?AU_Nonscalar_ptr_iterator_tag@0@PAUStringTick@TutorialWnd@@0@Z ; std::_Ptr_cat<TutorialWnd::StringTick,TutorialWnd::StringTick>
; Function compile flags: /Ogsp
; File c:\program files (x86)\microsoft visual studio 10.0\vc\include\xutility
;	COMDAT ??$_Ptr_cat@UStringTick@TutorialWnd@@U12@@std@@YA?AU_Nonscalar_ptr_iterator_tag@0@PAUStringTick@TutorialWnd@@0@Z
_TEXT	SEGMENT
__Cat$ = -1						; size = 1
___formal$ = 8						; size = 4
___formal$ = 12						; size = 4
??$_Ptr_cat@UStringTick@TutorialWnd@@U12@@std@@YA?AU_Nonscalar_ptr_iterator_tag@0@PAUStringTick@TutorialWnd@@0@Z PROC ; std::_Ptr_cat<TutorialWnd::StringTick,TutorialWnd::StringTick>, COMDAT

; 516  : 	{	// return pointer category from pointers

  00000	55		 push	 ebp
  00001	8b ec		 mov	 ebp, esp
  00003	51		 push	 ecx

; 517  : 	typename _Ptr_cat_helper<_Elem1, _Elem2>::_Type _Cat;
; 518  : 	return (_Cat);

  00004	8a 45 ff	 mov	 al, BYTE PTR __Cat$[ebp]

; 519  : 	}

  00007	c9		 leave
  00008	c3		 ret	 0
??$_Ptr_cat@UStringTick@TutorialWnd@@U12@@std@@YA?AU_Nonscalar_ptr_iterator_tag@0@PAUStringTick@TutorialWnd@@0@Z ENDP ; std::_Ptr_cat<TutorialWnd::StringTick,TutorialWnd::StringTick>
_TEXT	ENDS
PUBLIC	??$_Construct@UStringTick@TutorialWnd@@ABU12@@std@@YAXPAUStringTick@TutorialWnd@@ABU12@@Z ; std::_Construct<TutorialWnd::StringTick,TutorialWnd::StringTick const &>
; Function compile flags: /Ogsp
; File c:\program files (x86)\microsoft visual studio 10.0\vc\include\xmemory
;	COMDAT ??$_Construct@UStringTick@TutorialWnd@@ABU12@@std@@YAXPAUStringTick@TutorialWnd@@ABU12@@Z
_TEXT	SEGMENT
__Ptr$ = 8						; size = 4
__Val$ = 12						; size = 4
??$_Construct@UStringTick@TutorialWnd@@ABU12@@std@@YAXPAUStringTick@TutorialWnd@@ABU12@@Z PROC ; std::_Construct<TutorialWnd::StringTick,TutorialWnd::StringTick const &>, COMDAT

; 46   : 	{	// construct object at _Ptr with value _Val

  00000	55		 push	 ebp
  00001	8b ec		 mov	 ebp, esp
  00003	57		 push	 edi

; 47   : 	void _FARQ *_Vptr = _Ptr;
; 48   : 	::new (_Vptr) _Ty1(_STD forward<_Ty2>(_Val));

  00004	8b 7d 08	 mov	 edi, DWORD PTR __Ptr$[ebp]
  00007	85 ff		 test	 edi, edi
  00009	74 0a		 je	 SHORT $LN3@Construct
  0000b	56		 push	 esi
  0000c	8b 75 0c	 mov	 esi, DWORD PTR __Val$[ebp]
  0000f	6a 41		 push	 65			; 00000041H
  00011	59		 pop	 ecx
  00012	f3 a5		 rep movsd
  00014	5e		 pop	 esi
$LN3@Construct:
  00015	5f		 pop	 edi

; 49   : 	}

  00016	5d		 pop	 ebp
  00017	c3		 ret	 0
??$_Construct@UStringTick@TutorialWnd@@ABU12@@std@@YAXPAUStringTick@TutorialWnd@@ABU12@@Z ENDP ; std::_Construct<TutorialWnd::StringTick,TutorialWnd::StringTick const &>
_TEXT	ENDS
PUBLIC	??$move@AAUStringTick@TutorialWnd@@@std@@YA$$QAUStringTick@TutorialWnd@@AAU12@@Z ; std::move<TutorialWnd::StringTick &>
; Function compile flags: /Ogsp
; File c:\program files (x86)\microsoft visual studio 10.0\vc\include\utility
;	COMDAT ??$move@AAUStringTick@TutorialWnd@@@std@@YA$$QAUStringTick@TutorialWnd@@AAU12@@Z
_TEXT	SEGMENT
__Arg$ = 8						; size = 4
??$move@AAUStringTick@TutorialWnd@@@std@@YA$$QAUStringTick@TutorialWnd@@AAU12@@Z PROC ; std::move<TutorialWnd::StringTick &>, COMDAT

; 86   : 	{	// forward _Arg as movable

  00000	55		 push	 ebp
  00001	8b ec		 mov	 ebp, esp

; 87   : 	return ((typename tr1::_Remove_reference<_Ty>::_Type&&)_Arg);

  00003	8b 45 08	 mov	 eax, DWORD PTR __Arg$[ebp]

; 88   : 	}

  00006	5d		 pop	 ebp
  00007	c3		 ret	 0
??$move@AAUStringTick@TutorialWnd@@@std@@YA$$QAUStringTick@TutorialWnd@@AAU12@@Z ENDP ; std::move<TutorialWnd::StringTick &>
_TEXT	ENDS
PUBLIC	??$_Val_type@PAUStringTick@TutorialWnd@@@std@@YAPAUStringTick@TutorialWnd@@PAU12@@Z ; std::_Val_type<TutorialWnd::StringTick *>
; Function compile flags: /Ogsp
; File c:\program files (x86)\microsoft visual studio 10.0\vc\include\xutility
;	COMDAT ??$_Val_type@PAUStringTick@TutorialWnd@@@std@@YAPAUStringTick@TutorialWnd@@PAU12@@Z
_TEXT	SEGMENT
___formal$ = 8						; size = 4
??$_Val_type@PAUStringTick@TutorialWnd@@@std@@YAPAUStringTick@TutorialWnd@@PAU12@@Z PROC ; std::_Val_type<TutorialWnd::StringTick *>, COMDAT

; 790  : 	return (0);

  00000	33 c0		 xor	 eax, eax

; 791  : 	}

  00002	c3		 ret	 0
??$_Val_type@PAUStringTick@TutorialWnd@@@std@@YAPAUStringTick@TutorialWnd@@PAU12@@Z ENDP ; std::_Val_type<TutorialWnd::StringTick *>
_TEXT	ENDS
PUBLIC	??$_Destroy@UStringTick@TutorialWnd@@@std@@YAXPAUStringTick@TutorialWnd@@@Z ; std::_Destroy<TutorialWnd::StringTick>
; Function compile flags: /Ogsp
; File c:\program files (x86)\microsoft visual studio 10.0\vc\include\xmemory
;	COMDAT ??$_Destroy@UStringTick@TutorialWnd@@@std@@YAXPAUStringTick@TutorialWnd@@@Z
_TEXT	SEGMENT
__Ptr$ = 8						; size = 4
??$_Destroy@UStringTick@TutorialWnd@@@std@@YAXPAUStringTick@TutorialWnd@@@Z PROC ; std::_Destroy<TutorialWnd::StringTick>, COMDAT

; 63   : 	_Ptr->~_Ty();
; 64   : 	}

  00000	c3		 ret	 0
??$_Destroy@UStringTick@TutorialWnd@@@std@@YAXPAUStringTick@TutorialWnd@@@Z ENDP ; std::_Destroy<TutorialWnd::StringTick>
_TEXT	ENDS
PUBLIC	??$forward@AAV?$basic_string@DU?$char_traits@D@std@@V?$allocator@D@2@@std@@@std@@YAAAV?$basic_string@DU?$char_traits@D@std@@V?$allocator@D@2@@0@AAV10@@Z ; std::forward<std::basic_string<char,std::char_traits<char>,std::allocator<char> > &>
; Function compile flags: /Ogsp
; File c:\program files (x86)\microsoft visual studio 10.0\vc\include\utility
;	COMDAT ??$forward@AAV?$basic_string@DU?$char_traits@D@std@@V?$allocator@D@2@@std@@@std@@YAAAV?$basic_string@DU?$char_traits@D@std@@V?$allocator@D@2@@0@AAV10@@Z
_TEXT	SEGMENT
__Arg$ = 8						; size = 4
??$forward@AAV?$basic_string@DU?$char_traits@D@std@@V?$allocator@D@2@@std@@@std@@YAAAV?$basic_string@DU?$char_traits@D@std@@V?$allocator@D@2@@0@AAV10@@Z PROC ; std::forward<std::basic_string<char,std::char_traits<char>,std::allocator<char> > &>, COMDAT

; 78   : 	{	// forward _Arg, given explicitly specified type parameter

  00000	55		 push	 ebp
  00001	8b ec		 mov	 ebp, esp

; 79   : 	return ((_Ty&&)_Arg);

  00003	8b 45 08	 mov	 eax, DWORD PTR __Arg$[ebp]

; 80   : 	}

  00006	5d		 pop	 ebp
  00007	c3		 ret	 0
??$forward@AAV?$basic_string@DU?$char_traits@D@std@@V?$allocator@D@2@@std@@@std@@YAAAV?$basic_string@DU?$char_traits@D@std@@V?$allocator@D@2@@0@AAV10@@Z ENDP ; std::forward<std::basic_string<char,std::char_traits<char>,std::allocator<char> > &>
_TEXT	ENDS
PUBLIC	??$forward@UStringTick@TutorialWnd@@@std@@YA$$QAUStringTick@TutorialWnd@@AAU12@@Z ; std::forward<TutorialWnd::StringTick>
; Function compile flags: /Ogsp
;	COMDAT ??$forward@UStringTick@TutorialWnd@@@std@@YA$$QAUStringTick@TutorialWnd@@AAU12@@Z
_TEXT	SEGMENT
__Arg$ = 8						; size = 4
??$forward@UStringTick@TutorialWnd@@@std@@YA$$QAUStringTick@TutorialWnd@@AAU12@@Z PROC ; std::forward<TutorialWnd::StringTick>, COMDAT

; 78   : 	{	// forward _Arg, given explicitly specified type parameter

  00000	55		 push	 ebp
  00001	8b ec		 mov	 ebp, esp

; 79   : 	return ((_Ty&&)_Arg);

  00003	8b 45 08	 mov	 eax, DWORD PTR __Arg$[ebp]

; 80   : 	}

  00006	5d		 pop	 ebp
  00007	c3		 ret	 0
??$forward@UStringTick@TutorialWnd@@@std@@YA$$QAUStringTick@TutorialWnd@@AAU12@@Z ENDP ; std::forward<TutorialWnd::StringTick>
_TEXT	ENDS
PUBLIC	?_DECSTR@@YAXPADH@Z				; _DECSTR
; Function compile flags: /Ogsp
; File d:\lost saga for developer\youtube\tutorial\source\src\lsclient\stringprotect.h
;	COMDAT ?_DECSTR@@YAXPADH@Z
_TEXT	SEGMENT
_s$ = 8							; size = 4
_l$ = 12						; size = 4
?_DECSTR@@YAXPADH@Z PROC				; _DECSTR, COMDAT

; 40   : __forceinline void _DECSTR(char* s, int l){int i=0,l4=(l-1)/4,*p=(int*)s;s[l-1]=0;for(;i<l4;++i)*(p++)^=0xEAEBECED;for(i=l4*4;i<l-1;++i)s[i]^=0xED-i%4;}

  00000	55		 push	 ebp
  00001	8b ec		 mov	 ebp, esp
  00003	8b 4d 0c	 mov	 ecx, DWORD PTR _l$[ebp]
  00006	56		 push	 esi
  00007	8b 75 08	 mov	 esi, DWORD PTR _s$[ebp]
  0000a	57		 push	 edi
  0000b	8d 79 ff	 lea	 edi, DWORD PTR [ecx-1]
  0000e	8b c7		 mov	 eax, edi
  00010	99		 cdq
  00011	83 e2 03	 and	 edx, 3
  00014	03 c2		 add	 eax, edx
  00016	c1 f8 02	 sar	 eax, 2
  00019	8b d6		 mov	 edx, esi
  0001b	c6 44 0e ff 00	 mov	 BYTE PTR [esi+ecx-1], 0
  00020	85 c0		 test	 eax, eax
  00022	7e 0e		 jle	 SHORT $LN4@DECSTR
  00024	8b c8		 mov	 ecx, eax
$LL6@DECSTR:
  00026	81 32 ed ec eb
	ea		 xor	 DWORD PTR [edx], -353637139 ; eaebecedH
  0002c	83 c2 04	 add	 edx, 4
  0002f	49		 dec	 ecx
  00030	75 f4		 jne	 SHORT $LL6@DECSTR
$LN4@DECSTR:
  00032	c1 e0 02	 shl	 eax, 2
  00035	eb 17		 jmp	 SHORT $LN14@DECSTR
$LL3@DECSTR:
  00037	8b c8		 mov	 ecx, eax
  00039	81 e1 03 00 00
	80		 and	 ecx, -2147483645	; 80000003H
  0003f	79 05		 jns	 SHORT $LN13@DECSTR
  00041	49		 dec	 ecx
  00042	83 c9 fc	 or	 ecx, -4			; fffffffcH
  00045	41		 inc	 ecx
$LN13@DECSTR:
  00046	b2 ed		 mov	 dl, -19			; ffffffedH
  00048	2a d1		 sub	 dl, cl
  0004a	30 14 30	 xor	 BYTE PTR [eax+esi], dl
  0004d	40		 inc	 eax
$LN14@DECSTR:
  0004e	3b c7		 cmp	 eax, edi
  00050	7c e5		 jl	 SHORT $LL3@DECSTR
  00052	5f		 pop	 edi
  00053	5e		 pop	 esi
  00054	5d		 pop	 ebp
  00055	c3		 ret	 0
?_DECSTR@@YAXPADH@Z ENDP				; _DECSTR
_TEXT	ENDS
PUBLIC	?GetDefMaxPlayer@ioBattleRoomMgr@@QAEHXZ	; ioBattleRoomMgr::GetDefMaxPlayer
; Function compile flags: /Ogsp
; File d:\lost saga for developer\youtube\tutorial\source\src\lsclient\iobattleroommgr.h
;	COMDAT ?GetDefMaxPlayer@ioBattleRoomMgr@@QAEHXZ
_TEXT	SEGMENT
?GetDefMaxPlayer@ioBattleRoomMgr@@QAEHXZ PROC		; ioBattleRoomMgr::GetDefMaxPlayer, COMDAT
; _this$ = ecx

; 388  : 	int GetDefMaxPlayer(){ return m_iDefaultMaxPlayer; }

  00000	8b 81 68 02 00
	00		 mov	 eax, DWORD PTR [ecx+616]
  00006	c3		 ret	 0
?GetDefMaxPlayer@ioBattleRoomMgr@@QAEHXZ ENDP		; ioBattleRoomMgr::GetDefMaxPlayer
_TEXT	ENDS
PUBLIC	?IsSkipUIByBlind@ioSP2GUIManager@@QBE_NXZ	; ioSP2GUIManager::IsSkipUIByBlind
; Function compile flags: /Ogsp
; File d:\lost saga for developer\youtube\tutorial\source\src\lsclient\gui\iosp2guimanager.h
;	COMDAT ?IsSkipUIByBlind@ioSP2GUIManager@@QBE_NXZ
_TEXT	SEGMENT
?IsSkipUIByBlind@ioSP2GUIManager@@QBE_NXZ PROC		; ioSP2GUIManager::IsSkipUIByBlind, COMDAT
; _this$ = ecx

; 236  : 	inline bool IsSkipUIByBlind() const { return m_bSkipUIByBlind; }	

  00000	8a 81 e0 04 00
	00		 mov	 al, BYTE PTR [ecx+1248]
  00006	c3		 ret	 0
?IsSkipUIByBlind@ioSP2GUIManager@@QBE_NXZ ENDP		; ioSP2GUIManager::IsSkipUIByBlind
_TEXT	ENDS
PUBLIC	?size@?$basic_string@DU?$char_traits@D@std@@V?$allocator@D@2@@std@@QBEIXZ ; std::basic_string<char,std::char_traits<char>,std::allocator<char> >::size
; Function compile flags: /Ogsp
; File c:\program files (x86)\microsoft visual studio 10.0\vc\include\xstring
;	COMDAT ?size@?$basic_string@DU?$char_traits@D@std@@V?$allocator@D@2@@std@@QBEIXZ
_TEXT	SEGMENT
?size@?$basic_string@DU?$char_traits@D@std@@V?$allocator@D@2@@std@@QBEIXZ PROC ; std::basic_string<char,std::char_traits<char>,std::allocator<char> >::size, COMDAT
; _this$ = ecx

; 1512 : 		return (this->_Mysize);

  00000	8b 41 10	 mov	 eax, DWORD PTR [ecx+16]

; 1513 : 		}

  00003	c3		 ret	 0
?size@?$basic_string@DU?$char_traits@D@std@@V?$allocator@D@2@@std@@QBEIXZ ENDP ; std::basic_string<char,std::char_traits<char>,std::allocator<char> >::size
_TEXT	ENDS
PUBLIC	?_Myptr@?$basic_string@DU?$char_traits@D@std@@V?$allocator@D@2@@std@@QBEPBDXZ ; std::basic_string<char,std::char_traits<char>,std::allocator<char> >::_Myptr
; Function compile flags: /Ogsp
;	COMDAT ?_Myptr@?$basic_string@DU?$char_traits@D@std@@V?$allocator@D@2@@std@@QBEPBDXZ
_TEXT	SEGMENT
?_Myptr@?$basic_string@DU?$char_traits@D@std@@V?$allocator@D@2@@std@@QBEPBDXZ PROC ; std::basic_string<char,std::char_traits<char>,std::allocator<char> >::_Myptr, COMDAT
; _this$ = ecx

; 2010 : 		return (this->_BUF_SIZE <= this->_Myres ? this->_Bx._Ptr
; 2011 : 			: this->_Bx._Buf);

  00000	83 79 14 10	 cmp	 DWORD PTR [ecx+20], 16	; 00000010H
  00004	72 03		 jb	 SHORT $LN3@Myptr
  00006	8b 01		 mov	 eax, DWORD PTR [ecx]

; 2012 : 		}

  00008	c3		 ret	 0
$LN3@Myptr:

; 2010 : 		return (this->_BUF_SIZE <= this->_Myres ? this->_Bx._Ptr
; 2011 : 			: this->_Bx._Buf);

  00009	8b c1		 mov	 eax, ecx

; 2012 : 		}

  0000b	c3		 ret	 0
?_Myptr@?$basic_string@DU?$char_traits@D@std@@V?$allocator@D@2@@std@@QBEPBDXZ ENDP ; std::basic_string<char,std::char_traits<char>,std::allocator<char> >::_Myptr
_TEXT	ENDS
PUBLIC	??1?$_String_val@DV?$allocator@D@std@@@std@@QAE@XZ ; std::_String_val<char,std::allocator<char> >::~_String_val<char,std::allocator<char> >
; Function compile flags: /Ogsp
;	COMDAT ??1?$_String_val@DV?$allocator@D@std@@@std@@QAE@XZ
_TEXT	SEGMENT
??1?$_String_val@DV?$allocator@D@std@@@std@@QAE@XZ PROC	; std::_String_val<char,std::allocator<char> >::~_String_val<char,std::allocator<char> >, COMDAT
; _this$ = ecx

; 459  : 		}

  00000	c3		 ret	 0
??1?$_String_val@DV?$allocator@D@std@@@std@@QAE@XZ ENDP	; std::_String_val<char,std::allocator<char> >::~_String_val<char,std::allocator<char> >
_TEXT	ENDS
PUBLIC	??0?$allocator@D@std@@QAE@XZ			; std::allocator<char>::allocator<char>
; Function compile flags: /Ogsp
; File c:\program files (x86)\microsoft visual studio 10.0\vc\include\xmemory
;	COMDAT ??0?$allocator@D@std@@QAE@XZ
_TEXT	SEGMENT
??0?$allocator@D@std@@QAE@XZ PROC			; std::allocator<char>::allocator<char>, COMDAT
; _this$ = ecx

; 161  : 	_ALLOCATOR() _THROW0()

  00000	8b c1		 mov	 eax, ecx

; 162  : 		{	// construct default allocator (do nothing)
; 163  : 		}

  00002	c3		 ret	 0
??0?$allocator@D@std@@QAE@XZ ENDP			; std::allocator<char>::allocator<char>
_TEXT	ENDS
PUBLIC	??0?$allocator@D@std@@QAE@ABV01@@Z		; std::allocator<char>::allocator<char>
; Function compile flags: /Ogsp
;	COMDAT ??0?$allocator@D@std@@QAE@ABV01@@Z
_TEXT	SEGMENT
___formal$ = 8						; size = 4
??0?$allocator@D@std@@QAE@ABV01@@Z PROC			; std::allocator<char>::allocator<char>, COMDAT
; _this$ = ecx

; 165  : 	_ALLOCATOR(const _ALLOCATOR<_Ty>&) _THROW0()

  00000	8b c1		 mov	 eax, ecx

; 166  : 		{	// construct by copying (do nothing)
; 167  : 		}

  00002	c2 04 00	 ret	 4
??0?$allocator@D@std@@QAE@ABV01@@Z ENDP			; std::allocator<char>::allocator<char>
_TEXT	ENDS
PUBLIC	?get_allocator@?$basic_string@DU?$char_traits@D@std@@V?$allocator@D@2@@std@@QBE?AV?$allocator@D@2@XZ ; std::basic_string<char,std::char_traits<char>,std::allocator<char> >::get_allocator
; Function compile flags: /Ogsp
; File c:\program files (x86)\microsoft visual studio 10.0\vc\include\xstring
;	COMDAT ?get_allocator@?$basic_string@DU?$char_traits@D@std@@V?$allocator@D@2@@std@@QBE?AV?$allocator@D@2@XZ
_TEXT	SEGMENT
___$ReturnUdt$ = 8					; size = 4
?get_allocator@?$basic_string@DU?$char_traits@D@std@@V?$allocator@D@2@@std@@QBE?AV?$allocator@D@2@XZ PROC ; std::basic_string<char,std::char_traits<char>,std::allocator<char> >::get_allocator, COMDAT
; _this$ = ecx

; 1906 : 		{	// return allocator object for values

  00000	55		 push	 ebp
  00001	8b ec		 mov	 ebp, esp

; 1907 : 		return (this->_Alval);

  00003	8b 45 08	 mov	 eax, DWORD PTR ___$ReturnUdt$[ebp]

; 1908 : 		}

  00006	5d		 pop	 ebp
  00007	c2 04 00	 ret	 4
?get_allocator@?$basic_string@DU?$char_traits@D@std@@V?$allocator@D@2@@std@@QBE?AV?$allocator@D@2@XZ ENDP ; std::basic_string<char,std::char_traits<char>,std::allocator<char> >::get_allocator
_TEXT	ENDS
PUBLIC	?_Myptr@?$basic_string@DU?$char_traits@D@std@@V?$allocator@D@2@@std@@QAEPADXZ ; std::basic_string<char,std::char_traits<char>,std::allocator<char> >::_Myptr
; Function compile flags: /Ogsp
;	COMDAT ?_Myptr@?$basic_string@DU?$char_traits@D@std@@V?$allocator@D@2@@std@@QAEPADXZ
_TEXT	SEGMENT
?_Myptr@?$basic_string@DU?$char_traits@D@std@@V?$allocator@D@2@@std@@QAEPADXZ PROC ; std::basic_string<char,std::char_traits<char>,std::allocator<char> >::_Myptr, COMDAT
; _this$ = ecx

; 2004 : 		return (this->_BUF_SIZE <= this->_Myres ? this->_Bx._Ptr
; 2005 : 			: this->_Bx._Buf);

  00000	83 79 14 10	 cmp	 DWORD PTR [ecx+20], 16	; 00000010H
  00004	72 03		 jb	 SHORT $LN3@Myptr@2
  00006	8b 01		 mov	 eax, DWORD PTR [ecx]

; 2006 : 		}

  00008	c3		 ret	 0
$LN3@Myptr@2:

; 2004 : 		return (this->_BUF_SIZE <= this->_Myres ? this->_Bx._Ptr
; 2005 : 			: this->_Bx._Buf);

  00009	8b c1		 mov	 eax, ecx

; 2006 : 		}

  0000b	c3		 ret	 0
?_Myptr@?$basic_string@DU?$char_traits@D@std@@V?$allocator@D@2@@std@@QAEPADXZ ENDP ; std::basic_string<char,std::char_traits<char>,std::allocator<char> >::_Myptr
_TEXT	ENDS
PUBLIC	??_C@_0BA@JFNIOLAK@string?5too?5long?$AA@	; `string'
PUBLIC	?_Xlen@?$basic_string@DU?$char_traits@D@std@@V?$allocator@D@2@@std@@QBEXXZ ; std::basic_string<char,std::char_traits<char>,std::allocator<char> >::_Xlen
;	COMDAT ??_C@_0BA@JFNIOLAK@string?5too?5long?$AA@
CONST	SEGMENT
??_C@_0BA@JFNIOLAK@string?5too?5long?$AA@ DB 'string too long', 00H ; `string'
; Function compile flags: /Ogsp
CONST	ENDS
;	COMDAT ?_Xlen@?$basic_string@DU?$char_traits@D@std@@V?$allocator@D@2@@std@@QBEXXZ
_TEXT	SEGMENT
?_Xlen@?$basic_string@DU?$char_traits@D@std@@V?$allocator@D@2@@std@@QBEXXZ PROC ; std::basic_string<char,std::char_traits<char>,std::allocator<char> >::_Xlen, COMDAT
; _this$ = ecx

; 2016 : 		_Xlength_error("string too long");

  00000	68 00 00 00 00	 push	 OFFSET ??_C@_0BA@JFNIOLAK@string?5too?5long?$AA@
  00005	ff 15 00 00 00
	00		 call	 DWORD PTR __imp_?_Xlength_error@std@@YAXPBD@Z
$LN4@Xlen@3:
$LN3@Xlen@3:
  0000b	cc		 int	 3
?_Xlen@?$basic_string@DU?$char_traits@D@std@@V?$allocator@D@2@@std@@QBEXXZ ENDP ; std::basic_string<char,std::char_traits<char>,std::allocator<char> >::_Xlen
_TEXT	ENDS
PUBLIC	??_C@_0BI@CFPLBAOH@invalid?5string?5position?$AA@ ; `string'
PUBLIC	?_Xran@?$basic_string@DU?$char_traits@D@std@@V?$allocator@D@2@@std@@QBEXXZ ; std::basic_string<char,std::char_traits<char>,std::allocator<char> >::_Xran
EXTRN	__imp_?_Xout_of_range@std@@YAXPBD@Z:PROC
;	COMDAT ??_C@_0BI@CFPLBAOH@invalid?5string?5position?$AA@
CONST	SEGMENT
??_C@_0BI@CFPLBAOH@invalid?5string?5position?$AA@ DB 'invalid string posi'
	DB	'tion', 00H					; `string'
; Function compile flags: /Ogsp
CONST	ENDS
;	COMDAT ?_Xran@?$basic_string@DU?$char_traits@D@std@@V?$allocator@D@2@@std@@QBEXXZ
_TEXT	SEGMENT
?_Xran@?$basic_string@DU?$char_traits@D@std@@V?$allocator@D@2@@std@@QBEXXZ PROC ; std::basic_string<char,std::char_traits<char>,std::allocator<char> >::_Xran, COMDAT
; _this$ = ecx

; 2021 : 		_Xout_of_range("invalid string position");

  00000	68 00 00 00 00	 push	 OFFSET ??_C@_0BI@CFPLBAOH@invalid?5string?5position?$AA@
  00005	ff 15 00 00 00
	00		 call	 DWORD PTR __imp_?_Xout_of_range@std@@YAXPBD@Z
$LN4@Xran:
$LN3@Xran:
  0000b	cc		 int	 3
?_Xran@?$basic_string@DU?$char_traits@D@std@@V?$allocator@D@2@@std@@QBEXXZ ENDP ; std::basic_string<char,std::char_traits<char>,std::allocator<char> >::_Xran
_TEXT	ENDS
PUBLIC	?deallocate@?$allocator@D@std@@QAEXPADI@Z	; std::allocator<char>::deallocate
; Function compile flags: /Ogsp
; File c:\program files (x86)\microsoft visual studio 10.0\vc\include\xmemory
;	COMDAT ?deallocate@?$allocator@D@std@@QAEXPADI@Z
_TEXT	SEGMENT
__Ptr$ = 8						; size = 4
___formal$ = 12						; size = 4
?deallocate@?$allocator@D@std@@QAEXPADI@Z PROC		; std::allocator<char>::deallocate, COMDAT
; _this$ = ecx

; 181  : 		{	// deallocate object at _Ptr, ignore size

  00000	55		 push	 ebp
  00001	8b ec		 mov	 ebp, esp

; 182  : 		::operator delete(_Ptr);

  00003	ff 75 08	 push	 DWORD PTR __Ptr$[ebp]
  00006	e8 00 00 00 00	 call	 ??3@YAXPAX@Z		; operator delete
  0000b	59		 pop	 ecx

; 183  : 		}

  0000c	5d		 pop	 ebp
  0000d	c2 08 00	 ret	 8
?deallocate@?$allocator@D@std@@QAEXPADI@Z ENDP		; std::allocator<char>::deallocate
_TEXT	ENDS
PUBLIC	?_Inside@?$basic_string@DU?$char_traits@D@std@@V?$allocator@D@2@@std@@QAE_NPBD@Z ; std::basic_string<char,std::char_traits<char>,std::allocator<char> >::_Inside
; Function compile flags: /Ogsp
; File c:\program files (x86)\microsoft visual studio 10.0\vc\include\xstring
;	COMDAT ?_Inside@?$basic_string@DU?$char_traits@D@std@@V?$allocator@D@2@@std@@QAE_NPBD@Z
_TEXT	SEGMENT
__Ptr$ = 8						; size = 4
?_Inside@?$basic_string@DU?$char_traits@D@std@@V?$allocator@D@2@@std@@QAE_NPBD@Z PROC ; std::basic_string<char,std::char_traits<char>,std::allocator<char> >::_Inside, COMDAT
; _this$ = ecx

; 1973 : 		{	// test if _Ptr points inside string

  00000	55		 push	 ebp
  00001	8b ec		 mov	 ebp, esp

; 1974 : 		if (_Ptr == 0 || _Ptr < _Myptr() || _Myptr() + this->_Mysize <= _Ptr)

  00003	83 7d 08 00	 cmp	 DWORD PTR __Ptr$[ebp], 0
  00007	74 2c		 je	 SHORT $LN2@Inside@2
  00009	8b 51 14	 mov	 edx, DWORD PTR [ecx+20]
  0000c	83 fa 10	 cmp	 edx, 16			; 00000010H
  0000f	72 04		 jb	 SHORT $LN8@Inside@2
  00011	8b 01		 mov	 eax, DWORD PTR [ecx]
  00013	eb 02		 jmp	 SHORT $LN9@Inside@2
$LN8@Inside@2:
  00015	8b c1		 mov	 eax, ecx
$LN9@Inside@2:
  00017	39 45 08	 cmp	 DWORD PTR __Ptr$[ebp], eax
  0001a	72 19		 jb	 SHORT $LN2@Inside@2
  0001c	83 fa 10	 cmp	 edx, 16			; 00000010H
  0001f	72 04		 jb	 SHORT $LN12@Inside@2
  00021	8b 01		 mov	 eax, DWORD PTR [ecx]
  00023	eb 02		 jmp	 SHORT $LN13@Inside@2
$LN12@Inside@2:
  00025	8b c1		 mov	 eax, ecx
$LN13@Inside@2:
  00027	8b 49 10	 mov	 ecx, DWORD PTR [ecx+16]
  0002a	03 c8		 add	 ecx, eax
  0002c	3b 4d 08	 cmp	 ecx, DWORD PTR __Ptr$[ebp]
  0002f	76 04		 jbe	 SHORT $LN2@Inside@2

; 1976 : 		else
; 1977 : 			return (true);

  00031	b0 01		 mov	 al, 1
  00033	eb 02		 jmp	 SHORT $LN1@Inside@2
$LN2@Inside@2:

; 1975 : 			return (false);	// don't ask

  00035	32 c0		 xor	 al, al
$LN1@Inside@2:

; 1978 : 		}

  00037	5d		 pop	 ebp
  00038	c2 04 00	 ret	 4
?_Inside@?$basic_string@DU?$char_traits@D@std@@V?$allocator@D@2@@std@@QAE_NPBD@Z ENDP ; std::basic_string<char,std::char_traits<char>,std::allocator<char> >::_Inside
_TEXT	ENDS
PUBLIC	?max_size@?$allocator@D@std@@QBEIXZ		; std::allocator<char>::max_size
; Function compile flags: /Ogsp
; File c:\program files (x86)\microsoft visual studio 10.0\vc\include\xmemory
;	COMDAT ?max_size@?$allocator@D@std@@QBEIXZ
_TEXT	SEGMENT
?max_size@?$allocator@D@std@@QBEIXZ PROC		; std::allocator<char>::max_size, COMDAT
; _this$ = ecx

; 218  : 		_SIZT _Count = (_SIZT)(-1) / sizeof (_Ty);
; 219  : 		return (0 < _Count ? _Count : 1);

  00000	83 c8 ff	 or	 eax, -1

; 220  : 		}

  00003	c3		 ret	 0
?max_size@?$allocator@D@std@@QBEIXZ ENDP		; std::allocator<char>::max_size
_TEXT	ENDS
PUBLIC	??$forward@V?$basic_string@DU?$char_traits@D@std@@V?$allocator@D@2@@std@@@std@@YA$$QAV?$basic_string@DU?$char_traits@D@std@@V?$allocator@D@2@@0@AAV10@@Z ; std::forward<std::basic_string<char,std::char_traits<char>,std::allocator<char> > >
; Function compile flags: /Ogsp
; File c:\program files (x86)\microsoft visual studio 10.0\vc\include\utility
;	COMDAT ??$forward@V?$basic_string@DU?$char_traits@D@std@@V?$allocator@D@2@@std@@@std@@YA$$QAV?$basic_string@DU?$char_traits@D@std@@V?$allocator@D@2@@0@AAV10@@Z
_TEXT	SEGMENT
__Arg$ = 8						; size = 4
??$forward@V?$basic_string@DU?$char_traits@D@std@@V?$allocator@D@2@@std@@@std@@YA$$QAV?$basic_string@DU?$char_traits@D@std@@V?$allocator@D@2@@0@AAV10@@Z PROC ; std::forward<std::basic_string<char,std::char_traits<char>,std::allocator<char> > >, COMDAT

; 78   : 	{	// forward _Arg, given explicitly specified type parameter

  00000	55		 push	 ebp
  00001	8b ec		 mov	 ebp, esp

; 79   : 	return ((_Ty&&)_Arg);

  00003	8b 45 08	 mov	 eax, DWORD PTR __Arg$[ebp]

; 80   : 	}

  00006	5d		 pop	 ebp
  00007	c3		 ret	 0
??$forward@V?$basic_string@DU?$char_traits@D@std@@V?$allocator@D@2@@std@@@std@@YA$$QAV?$basic_string@DU?$char_traits@D@std@@V?$allocator@D@2@@0@AAV10@@Z ENDP ; std::forward<std::basic_string<char,std::char_traits<char>,std::allocator<char> > >
_TEXT	ENDS
PUBLIC	??$_Allocate@D@std@@YAPADIPAD@Z			; std::_Allocate<char>
; Function compile flags: /Ogsp
; File c:\program files (x86)\microsoft visual studio 10.0\vc\include\xmemory
;	COMDAT ??$_Allocate@D@std@@YAPADIPAD@Z
_TEXT	SEGMENT
$T521934 = -12						; size = 12
$T521938 = 8						; size = 4
__Count$ = 8						; size = 4
___formal$ = 12						; size = 4
??$_Allocate@D@std@@YAPADIPAD@Z PROC			; std::_Allocate<char>, COMDAT

; 30   : 	{	// allocate storage for _Count elements of type _Ty

  00000	55		 push	 ebp
  00001	8b ec		 mov	 ebp, esp

; 31   : 	void *_Ptr = 0;

  00003	33 c0		 xor	 eax, eax
  00005	83 ec 0c	 sub	 esp, 12			; 0000000cH

; 32   : 
; 33   : 	if (_Count <= 0)

  00008	39 45 08	 cmp	 DWORD PTR __Count$[ebp], eax

; 34   : 		_Count = 0;
; 35   : 	else if (((_SIZT)(-1) / sizeof (_Ty) < _Count)

  0000b	76 39		 jbe	 SHORT $LN5@Allocate@3

; 36   : 		|| (_Ptr = ::operator new(_Count * sizeof (_Ty))) == 0)

  0000d	83 7d 08 ff	 cmp	 DWORD PTR __Count$[ebp], -1
  00011	77 0d		 ja	 SHORT $LN1@Allocate@3
  00013	ff 75 08	 push	 DWORD PTR __Count$[ebp]
  00016	e8 00 00 00 00	 call	 ??2@YAPAXI@Z		; operator new
  0001b	59		 pop	 ecx
  0001c	85 c0		 test	 eax, eax

; 38   : 
; 39   : 	return ((_Ty _FARQ *)_Ptr);

  0001e	75 26		 jne	 SHORT $LN5@Allocate@3
$LN1@Allocate@3:

; 37   : 		_THROW_NCEE(bad_alloc, 0);

  00020	83 65 08 00	 and	 DWORD PTR $T521938[ebp], 0
  00024	8d 45 08	 lea	 eax, DWORD PTR $T521938[ebp]
  00027	50		 push	 eax
  00028	8d 4d f4	 lea	 ecx, DWORD PTR $T521934[ebp]
  0002b	ff 15 00 00 00
	00		 call	 DWORD PTR __imp_??0exception@std@@QAE@ABQBD@Z
  00031	68 00 00 00 00	 push	 OFFSET __TI2?AVbad_alloc@std@@
  00036	8d 45 f4	 lea	 eax, DWORD PTR $T521934[ebp]
  00039	50		 push	 eax
  0003a	c7 45 f4 00 00
	00 00		 mov	 DWORD PTR $T521934[ebp], OFFSET ??_7bad_alloc@std@@6B@
  00041	e8 00 00 00 00	 call	 __CxxThrowException@8
$LN10@Allocate@3:
$LN5@Allocate@3:

; 40   : 	}

  00046	c9		 leave
  00047	c3		 ret	 0
$LN9@Allocate@3:
??$_Allocate@D@std@@YAPADIPAD@Z ENDP			; std::_Allocate<char>
_TEXT	ENDS
EXTRN	__imp_??0exception@std@@QAE@ABV01@@Z:PROC
; Function compile flags: /Ogsp
;	COMDAT ??0bad_alloc@std@@QAE@ABV01@@Z
_TEXT	SEGMENT
___that$ = 8						; size = 4
??0bad_alloc@std@@QAE@ABV01@@Z PROC			; std::bad_alloc::bad_alloc, COMDAT
; _this$ = ecx
  00000	55		 push	 ebp
  00001	8b ec		 mov	 ebp, esp
  00003	56		 push	 esi
  00004	ff 75 08	 push	 DWORD PTR ___that$[ebp]
  00007	8b f1		 mov	 esi, ecx
  00009	ff 15 00 00 00
	00		 call	 DWORD PTR __imp_??0exception@std@@QAE@ABV01@@Z
  0000f	c7 06 00 00 00
	00		 mov	 DWORD PTR [esi], OFFSET ??_7bad_alloc@std@@6B@
  00015	8b c6		 mov	 eax, esi
  00017	5e		 pop	 esi
  00018	5d		 pop	 ebp
  00019	c2 04 00	 ret	 4
??0bad_alloc@std@@QAE@ABV01@@Z ENDP			; std::bad_alloc::bad_alloc
_TEXT	ENDS
PUBLIC	??$move@AAV?$basic_string@DU?$char_traits@D@std@@V?$allocator@D@2@@std@@@std@@YA$$QAV?$basic_string@DU?$char_traits@D@std@@V?$allocator@D@2@@0@AAV10@@Z ; std::move<std::basic_string<char,std::char_traits<char>,std::allocator<char> > &>
; Function compile flags: /Ogsp
; File c:\program files (x86)\microsoft visual studio 10.0\vc\include\utility
;	COMDAT ??$move@AAV?$basic_string@DU?$char_traits@D@std@@V?$allocator@D@2@@std@@@std@@YA$$QAV?$basic_string@DU?$char_traits@D@std@@V?$allocator@D@2@@0@AAV10@@Z
_TEXT	SEGMENT
__Arg$ = 8						; size = 4
??$move@AAV?$basic_string@DU?$char_traits@D@std@@V?$allocator@D@2@@std@@@std@@YA$$QAV?$basic_string@DU?$char_traits@D@std@@V?$allocator@D@2@@0@AAV10@@Z PROC ; std::move<std::basic_string<char,std::char_traits<char>,std::allocator<char> > &>, COMDAT

; 86   : 	{	// forward _Arg as movable

  00000	55		 push	 ebp
  00001	8b ec		 mov	 ebp, esp

; 87   : 	return ((typename tr1::_Remove_reference<_Ty>::_Type&&)_Arg);

  00003	8b 45 08	 mov	 eax, DWORD PTR __Arg$[ebp]

; 88   : 	}

  00006	5d		 pop	 ebp
  00007	c3		 ret	 0
??$move@AAV?$basic_string@DU?$char_traits@D@std@@V?$allocator@D@2@@std@@@std@@YA$$QAV?$basic_string@DU?$char_traits@D@std@@V?$allocator@D@2@@0@AAV10@@Z ENDP ; std::move<std::basic_string<char,std::char_traits<char>,std::allocator<char> > &>
_TEXT	ENDS
PUBLIC	??$?8DD@std@@YA_NABV?$allocator@D@0@0@Z		; std::operator==<char,char>
; Function compile flags: /Ogsp
; File c:\program files (x86)\microsoft visual studio 10.0\vc\include\xmemory
;	COMDAT ??$?8DD@std@@YA_NABV?$allocator@D@0@0@Z
_TEXT	SEGMENT
___formal$ = 8						; size = 4
___formal$ = 12						; size = 4
??$?8DD@std@@YA_NABV?$allocator@D@0@0@Z PROC		; std::operator==<char,char>, COMDAT

; 263  : 	return (true);

  00000	b0 01		 mov	 al, 1

; 264  : 	}

  00002	c3		 ret	 0
??$?8DD@std@@YA_NABV?$allocator@D@0@0@Z ENDP		; std::operator==<char,char>
_TEXT	ENDS
PUBLIC	??1?$_Vector_val@V?$basic_string@DU?$char_traits@D@std@@V?$allocator@D@2@@std@@V?$allocator@V?$basic_string@DU?$char_traits@D@std@@V?$allocator@D@2@@std@@@2@@std@@QAE@XZ ; std::_Vector_val<std::basic_string<char,std::char_traits<char>,std::allocator<char> >,std::allocator<std::basic_string<char,std::char_traits<char>,std::allocator<char> > > >::~_Vector_val<std::basic_string<char,std::char_traits<char>,std::allocator<char> >,std::allocator<std::basic_string<char,std::char_traits<char>,std::allocator<char> > > >
; Function compile flags: /Ogsp
; File c:\program files (x86)\microsoft visual studio 10.0\vc\include\vector
;	COMDAT ??1?$_Vector_val@V?$basic_string@DU?$char_traits@D@std@@V?$allocator@D@2@@std@@V?$allocator@V?$basic_string@DU?$char_traits@D@std@@V?$allocator@D@2@@std@@@2@@std@@QAE@XZ
_TEXT	SEGMENT
??1?$_Vector_val@V?$basic_string@DU?$char_traits@D@std@@V?$allocator@D@2@@std@@V?$allocator@V?$basic_string@DU?$char_traits@D@std@@V?$allocator@D@2@@std@@@2@@std@@QAE@XZ PROC ; std::_Vector_val<std::basic_string<char,std::char_traits<char>,std::allocator<char> >,std::allocator<std::basic_string<char,std::char_traits<char>,std::allocator<char> > > >::~_Vector_val<std::basic_string<char,std::char_traits<char>,std::allocator<char> >,std::allocator<std::basic_string<char,std::char_traits<char>,std::allocator<char> > > >, COMDAT
; _this$ = ecx

; 434  : 		}

  00000	c3		 ret	 0
??1?$_Vector_val@V?$basic_string@DU?$char_traits@D@std@@V?$allocator@D@2@@std@@V?$allocator@V?$basic_string@DU?$char_traits@D@std@@V?$allocator@D@2@@std@@@2@@std@@QAE@XZ ENDP ; std::_Vector_val<std::basic_string<char,std::char_traits<char>,std::allocator<char> >,std::allocator<std::basic_string<char,std::char_traits<char>,std::allocator<char> > > >::~_Vector_val<std::basic_string<char,std::char_traits<char>,std::allocator<char> >,std::allocator<std::basic_string<char,std::char_traits<char>,std::allocator<char> > > >
_TEXT	ENDS
PUBLIC	?deallocate@?$allocator@V?$basic_string@DU?$char_traits@D@std@@V?$allocator@D@2@@std@@@std@@QAEXPAV?$basic_string@DU?$char_traits@D@std@@V?$allocator@D@2@@2@I@Z ; std::allocator<std::basic_string<char,std::char_traits<char>,std::allocator<char> > >::deallocate
; Function compile flags: /Ogsp
; File c:\program files (x86)\microsoft visual studio 10.0\vc\include\xmemory
;	COMDAT ?deallocate@?$allocator@V?$basic_string@DU?$char_traits@D@std@@V?$allocator@D@2@@std@@@std@@QAEXPAV?$basic_string@DU?$char_traits@D@std@@V?$allocator@D@2@@2@I@Z
_TEXT	SEGMENT
__Ptr$ = 8						; size = 4
___formal$ = 12						; size = 4
?deallocate@?$allocator@V?$basic_string@DU?$char_traits@D@std@@V?$allocator@D@2@@std@@@std@@QAEXPAV?$basic_string@DU?$char_traits@D@std@@V?$allocator@D@2@@2@I@Z PROC ; std::allocator<std::basic_string<char,std::char_traits<char>,std::allocator<char> > >::deallocate, COMDAT
; _this$ = ecx

; 181  : 		{	// deallocate object at _Ptr, ignore size

  00000	55		 push	 ebp
  00001	8b ec		 mov	 ebp, esp

; 182  : 		::operator delete(_Ptr);

  00003	ff 75 08	 push	 DWORD PTR __Ptr$[ebp]
  00006	e8 00 00 00 00	 call	 ??3@YAXPAX@Z		; operator delete
  0000b	59		 pop	 ecx

; 183  : 		}

  0000c	5d		 pop	 ebp
  0000d	c2 08 00	 ret	 8
?deallocate@?$allocator@V?$basic_string@DU?$char_traits@D@std@@V?$allocator@D@2@@std@@@std@@QAEXPAV?$basic_string@DU?$char_traits@D@std@@V?$allocator@D@2@@2@I@Z ENDP ; std::allocator<std::basic_string<char,std::char_traits<char>,std::allocator<char> > >::deallocate
_TEXT	ENDS
PUBLIC	??$_Ptr_cat@V?$basic_string@DU?$char_traits@D@std@@V?$allocator@D@2@@std@@V12@@std@@YA?AU_Nonscalar_ptr_iterator_tag@0@PAV?$basic_string@DU?$char_traits@D@std@@V?$allocator@D@2@@0@0@Z ; std::_Ptr_cat<std::basic_string<char,std::char_traits<char>,std::allocator<char> >,std::basic_string<char,std::char_traits<char>,std::allocator<char> > >
; Function compile flags: /Ogsp
; File c:\program files (x86)\microsoft visual studio 10.0\vc\include\xutility
;	COMDAT ??$_Ptr_cat@V?$basic_string@DU?$char_traits@D@std@@V?$allocator@D@2@@std@@V12@@std@@YA?AU_Nonscalar_ptr_iterator_tag@0@PAV?$basic_string@DU?$char_traits@D@std@@V?$allocator@D@2@@0@0@Z
_TEXT	SEGMENT
__Cat$ = -1						; size = 1
___formal$ = 8						; size = 4
___formal$ = 12						; size = 4
??$_Ptr_cat@V?$basic_string@DU?$char_traits@D@std@@V?$allocator@D@2@@std@@V12@@std@@YA?AU_Nonscalar_ptr_iterator_tag@0@PAV?$basic_string@DU?$char_traits@D@std@@V?$allocator@D@2@@0@0@Z PROC ; std::_Ptr_cat<std::basic_string<char,std::char_traits<char>,std::allocator<char> >,std::basic_string<char,std::char_traits<char>,std::allocator<char> > >, COMDAT

; 516  : 	{	// return pointer category from pointers

  00000	55		 push	 ebp
  00001	8b ec		 mov	 ebp, esp
  00003	51		 push	 ecx

; 517  : 	typename _Ptr_cat_helper<_Elem1, _Elem2>::_Type _Cat;
; 518  : 	return (_Cat);

  00004	8a 45 ff	 mov	 al, BYTE PTR __Cat$[ebp]

; 519  : 	}

  00007	c9		 leave
  00008	c3		 ret	 0
??$_Ptr_cat@V?$basic_string@DU?$char_traits@D@std@@V?$allocator@D@2@@std@@V12@@std@@YA?AU_Nonscalar_ptr_iterator_tag@0@PAV?$basic_string@DU?$char_traits@D@std@@V?$allocator@D@2@@0@0@Z ENDP ; std::_Ptr_cat<std::basic_string<char,std::char_traits<char>,std::allocator<char> >,std::basic_string<char,std::char_traits<char>,std::allocator<char> > >
; Function compile flags: /Ogsp
_TEXT	ENDS
;	COMDAT ??_GTutorialBtn@@UAEPAXI@Z
_TEXT	SEGMENT
___flags$ = 8						; size = 4
??_GTutorialBtn@@UAEPAXI@Z PROC				; TutorialBtn::`scalar deleting destructor', COMDAT
; _this$ = ecx
  00000	55		 push	 ebp
  00001	8b ec		 mov	 ebp, esp
  00003	56		 push	 esi
  00004	8b f1		 mov	 esi, ecx
  00006	e8 00 00 00 00	 call	 ??1TutorialBtn@@UAE@XZ	; TutorialBtn::~TutorialBtn
  0000b	f6 45 08 01	 test	 BYTE PTR ___flags$[ebp], 1
  0000f	74 07		 je	 SHORT $LN1@scalar@2
  00011	56		 push	 esi
  00012	e8 00 00 00 00	 call	 ??3@YAXPAX@Z		; operator delete
  00017	59		 pop	 ecx
$LN1@scalar@2:
  00018	8b c6		 mov	 eax, esi
  0001a	5e		 pop	 esi
  0001b	5d		 pop	 ebp
  0001c	c2 04 00	 ret	 4
??_GTutorialBtn@@UAEPAXI@Z ENDP				; TutorialBtn::`scalar deleting destructor'
_TEXT	ENDS
PUBLIC	?ShowButtonID@TutorialWnd@@IAEXH@Z		; TutorialWnd::ShowButtonID
EXTRN	__imp_?ShowChildWnd@ioWnd@@QAEXK_N@Z:PROC
EXTRN	__imp_?HideChildWnd@ioWnd@@QAEXK_N@Z:PROC
; Function compile flags: /Ogsp
; File d:\lost saga for developer\youtube\tutorial\source\src\lsclient\gui\tutorialwnd.cpp
;	COMDAT ?ShowButtonID@TutorialWnd@@IAEXH@Z
_TEXT	SEGMENT
_iBtnID$ = 8						; size = 4
?ShowButtonID@TutorialWnd@@IAEXH@Z PROC			; TutorialWnd::ShowButtonID, COMDAT
; _this$ = ecx

; 148  : {

  00000	55		 push	 ebp
  00001	8b ec		 mov	 ebp, esp
  00003	53		 push	 ebx
  00004	56		 push	 esi
  00005	57		 push	 edi

; 149  : 	m_iShowBtnID = -1;
; 150  : 	HideChildWnd( ID_NEXT );

  00006	8b 3d 00 00 00
	00		 mov	 edi, DWORD PTR __imp_?HideChildWnd@ioWnd@@QAEXK_N@Z
  0000c	33 db		 xor	 ebx, ebx
  0000e	53		 push	 ebx
  0000f	8b f1		 mov	 esi, ecx
  00011	83 8e 7c 01 00
	00 ff		 or	 DWORD PTR [esi+380], -1
  00018	6a 03		 push	 3
  0001a	ff d7		 call	 edi

; 151  : 	HideChildWnd( ID_CLEAR );

  0001c	53		 push	 ebx
  0001d	6a 04		 push	 4
  0001f	8b ce		 mov	 ecx, esi
  00021	ff d7		 call	 edi

; 152  : 	HideChildWnd( ID_START );

  00023	53		 push	 ebx
  00024	6a 02		 push	 2
  00026	8b ce		 mov	 ecx, esi
  00028	ff d7		 call	 edi

; 153  : 	if( IsTextTick() )

  0002a	39 9e 70 01 00
	00		 cmp	 DWORD PTR [esi+368], ebx
  00030	74 0b		 je	 SHORT $LN3@ShowButton

; 154  : 		m_iShowBtnID = iBtnID;

  00032	8b 45 08	 mov	 eax, DWORD PTR _iBtnID$[ebp]
  00035	89 86 7c 01 00
	00		 mov	 DWORD PTR [esi+380], eax
  0003b	eb 26		 jmp	 SHORT $LN1@ShowButton
$LN3@ShowButton:

; 155  : 	else if( iBtnID != -1 )

  0003d	83 7d 08 ff	 cmp	 DWORD PTR _iBtnID$[ebp], -1
  00041	74 20		 je	 SHORT $LN1@ShowButton

; 156  : 	{
; 157  : 		ShowChildWnd( iBtnID );

  00043	53		 push	 ebx
  00044	ff 75 08	 push	 DWORD PTR _iBtnID$[ebp]
  00047	8b ce		 mov	 ecx, esi
  00049	ff 15 00 00 00
	00		 call	 DWORD PTR __imp_?ShowChildWnd@ioWnd@@QAEXK_N@Z

; 158  : 		m_dwCurAutoNextTime    = FRAMEGETTIME();

  0004f	ff 15 00 00 00
	00		 call	 DWORD PTR __imp_?GetSingleton@ioFrameTimer@@SAAAV1@XZ
  00055	8b c8		 mov	 ecx, eax
  00057	ff 15 00 00 00
	00		 call	 DWORD PTR __imp_?GetLoopSec@ioFrameTimer@@QBEKXZ
  0005d	89 86 9c 01 00
	00		 mov	 DWORD PTR [esi+412], eax
$LN1@ShowButton:
  00063	5f		 pop	 edi
  00064	5e		 pop	 esi
  00065	5b		 pop	 ebx

; 159  : 	}
; 160  : }

  00066	5d		 pop	 ebp
  00067	c2 04 00	 ret	 4
?ShowButtonID@TutorialWnd@@IAEXH@Z ENDP			; TutorialWnd::ShowButtonID
_TEXT	ENDS
PUBLIC	?iwm_spacebar@TutorialWnd@@UAE_NXZ		; TutorialWnd::iwm_spacebar
; Function compile flags: /Ogsp
;	COMDAT ?iwm_spacebar@TutorialWnd@@UAE_NXZ
_TEXT	SEGMENT
?iwm_spacebar@TutorialWnd@@UAE_NXZ PROC			; TutorialWnd::iwm_spacebar, COMDAT
; _this$ = ecx

; 341  : 	return IsTutorialEsc();

  00000	e9 00 00 00 00	 jmp	 ?IsTutorialEsc@TutorialWnd@@QAE_NXZ ; TutorialWnd::IsTutorialEsc
?iwm_spacebar@TutorialWnd@@UAE_NXZ ENDP			; TutorialWnd::iwm_spacebar
_TEXT	ENDS
PUBLIC	__real@401c000000000000
PUBLIC	__real@402c000000000000
PUBLIC	__real@3fe4ccccc0000000
PUBLIC	??_C@_0CA@PBMFOIHP@TutorialWnd?3?3RenderTutorialInfo?$AA@ ; `string'
PUBLIC	__real@3f19999a
PUBLIC	?RenderTutorialInfo@TutorialWnd@@IAEXXZ		; TutorialWnd::RenderTutorialInfo
EXTRN	??1ioComplexStringPrinter@@QAE@XZ:PROC		; ioComplexStringPrinter::~ioComplexStringPrinter
EXTRN	?PrintFullText@ioComplexStringPrinter@@QAEXMMW4TextAlignType@@E@Z:PROC ; ioComplexStringPrinter::PrintFullText
EXTRN	?AddTextPiece@ioComplexStringPrinter@@QAEXMPBDH@Z:PROC ; ioComplexStringPrinter::AddTextPiece
EXTRN	?AddTextPieceWithYOffset@ioComplexStringPrinter@@QAEXMMPBDH@Z:PROC ; ioComplexStringPrinter::AddTextPieceWithYOffset
EXTRN	?AddTextPiece@ioComplexStringPrinter@@QAEXMPBD0@Z:PROC ; ioComplexStringPrinter::AddTextPiece
EXTRN	__imp_?c_str@ioHashString@@QBEPBDXZ:PROC
EXTRN	?SetTextColor@ioComplexStringPrinter@@QAEXK@Z:PROC ; ioComplexStringPrinter::SetTextColor
EXTRN	?SetTextStyle@ioComplexStringPrinter@@QAEXW4TextStyle@@@Z:PROC ; ioComplexStringPrinter::SetTextStyle
EXTRN	??0ioComplexStringPrinter@@QAE@XZ:PROC		; ioComplexStringPrinter::ioComplexStringPrinter
EXTRN	__imp_?IsEmpty@ioHashString@@QBE_NXZ:PROC
EXTRN	__imp_?SetTextColor@ioFontManager@@QAEXK@Z:PROC
EXTRN	__imp_?GetDerivedPosY@ioWnd@@QBEHXZ:PROC
EXTRN	__imp_?GetDerivedPosX@ioWnd@@QBEHXZ:PROC
;	COMDAT __real@401c000000000000
; File d:\lost saga for developer\youtube\tutorial\source\src\lsclient\stdafx.h
CONST	SEGMENT
__real@401c000000000000 DQ 0401c000000000000r	; 7
CONST	ENDS
;	COMDAT __real@402c000000000000
CONST	SEGMENT
__real@402c000000000000 DQ 0402c000000000000r	; 14
CONST	ENDS
;	COMDAT __real@3fe4ccccc0000000
CONST	SEGMENT
__real@3fe4ccccc0000000 DQ 03fe4ccccc0000000r	; 0.65
CONST	ENDS
;	COMDAT ??_C@_0CA@PBMFOIHP@TutorialWnd?3?3RenderTutorialInfo?$AA@
CONST	SEGMENT
??_C@_0CA@PBMFOIHP@TutorialWnd?3?3RenderTutorialInfo?$AA@ DB 'TutorialWnd'
	DB	'::RenderTutorialInfo', 00H			; `string'
CONST	ENDS
;	COMDAT __real@3f19999a
CONST	SEGMENT
__real@3f19999a DD 03f19999ar			; 0.6
CONST	ENDS
;	COMDAT xdata$x
xdata$x	SEGMENT
__unwindtable$?RenderTutorialInfo@TutorialWnd@@IAEXXZ DD 0ffffffffH
	DD	FLAT:__unwindfunclet$?RenderTutorialInfo@TutorialWnd@@IAEXXZ$0
__ehfuncinfo$?RenderTutorialInfo@TutorialWnd@@IAEXXZ DD 019930522H
	DD	01H
	DD	FLAT:__unwindtable$?RenderTutorialInfo@TutorialWnd@@IAEXXZ
	DD	2 DUP(00H)
	DD	2 DUP(00H)
	DD	00H
	DD	01H
; Function compile flags: /Ogsp
; File d:\lost saga for developer\youtube\tutorial\source\src\lsclient\gui\tutorialwnd.cpp
xdata$x	ENDS
;	COMDAT ?RenderTutorialInfo@TutorialWnd@@IAEXXZ
_TEXT	SEGMENT
_kPrinter$517173 = -68					; size = 32
tv407 = -36						; size = 4
tv403 = -36						; size = 4
tv399 = -36						; size = 4
tv393 = -36						; size = 4
tv338 = -36						; size = 4
$T521984 = -36						; size = 4
tv377 = -32						; size = 4
tv221 = -32						; size = 4
_iXPos$ = -28						; size = 4
_iYPos$ = -24						; size = 4
tv445 = -20						; size = 4
$T521988 = -20						; size = 4
tv426 = -16						; size = 4
__$EHRec$ = -12						; size = 12
?RenderTutorialInfo@TutorialWnd@@IAEXXZ PROC		; TutorialWnd::RenderTutorialInfo, COMDAT
; _this$ = ecx

; 563  : {

  00000	6a 38		 push	 56			; 00000038H
  00002	b8 00 00 00 00	 mov	 eax, __ehhandler$?RenderTutorialInfo@TutorialWnd@@IAEXXZ
  00007	e8 00 00 00 00	 call	 __EH_prolog3
  0000c	8b f1		 mov	 esi, ecx

; 564  : 	int iXPos, iYPos;
; 565  : 	iXPos = GetDerivedPosX();

  0000e	ff 15 00 00 00
	00		 call	 DWORD PTR __imp_?GetDerivedPosX@ioWnd@@QBEHXZ

; 566  : 	iYPos = GetDerivedPosY();

  00014	8b ce		 mov	 ecx, esi
  00016	89 45 e4	 mov	 DWORD PTR _iXPos$[ebp], eax
  00019	ff 15 00 00 00
	00		 call	 DWORD PTR __imp_?GetDerivedPosY@ioWnd@@QBEHXZ

; 567  : 
; 568  : 	//////////////////////////////////////////////////////////////////////////	
; 569  : 	g_FontMgr.SetAlignType( TAT_LEFT );

  0001f	8b 3d 00 00 00
	00		 mov	 edi, DWORD PTR __imp_?GetSingleton@ioFontManager@@SAAAV1@XZ
  00025	33 db		 xor	 ebx, ebx
  00027	53		 push	 ebx
  00028	89 45 e8	 mov	 DWORD PTR _iYPos$[ebp], eax
  0002b	ff d7		 call	 edi
  0002d	8b c8		 mov	 ecx, eax
  0002f	ff 15 00 00 00
	00		 call	 DWORD PTR __imp_?SetAlignType@ioFontManager@@QAEXW4TextAlignType@@@Z

; 570  : 	g_FontMgr.SetTextStyle( TS_NORMAL );

  00035	53		 push	 ebx
  00036	ff d7		 call	 edi
  00038	8b c8		 mov	 ecx, eax
  0003a	ff 15 00 00 00
	00		 call	 DWORD PTR __imp_?SetTextStyle@ioFontManager@@QAEXW4TextStyle@@@Z

; 571  : 	g_FontMgr.SetBkColor( 0, 0, 0 );

  00040	53		 push	 ebx
  00041	53		 push	 ebx
  00042	53		 push	 ebx
  00043	ff d7		 call	 edi
  00045	8b c8		 mov	 ecx, eax
  00047	ff 15 00 00 00
	00		 call	 DWORD PTR __imp_?SetBkColor@ioFontManager@@QAEXHHH@Z

; 572  : 	g_FontMgr.SetTextColor( TCT_DEFAULT_DARKGRAY );	

  0004d	68 3a 3a 3a ff	 push	 -12961222		; ff3a3a3aH
  00052	ff d7		 call	 edi
  00054	8b c8		 mov	 ecx, eax
  00056	ff 15 00 00 00
	00		 call	 DWORD PTR __imp_?SetTextColor@ioFontManager@@QAEXK@Z

; 573  : 	int i = 0;
; 574  : 	int iInfoSize = m_vStringTickList.size();      

  0005c	8b 86 a8 01 00
	00		 mov	 eax, DWORD PTR [esi+424]
  00062	2b 86 a4 01 00
	00		 sub	 eax, DWORD PTR [esi+420]
  00068	b9 04 01 00 00	 mov	 ecx, 260		; 00000104H
  0006d	99		 cdq
  0006e	f7 f9		 idiv	 ecx

; 575  : 	for(;i < iInfoSize;i++)

  00070	3b c3		 cmp	 eax, ebx
  00072	7e 70		 jle	 SHORT $LN7@RenderTuto
  00074	8b 4d e4	 mov	 ecx, DWORD PTR _iXPos$[ebp]
  00077	83 c1 4d	 add	 ecx, 77			; 0000004dH
  0007a	0f 57 c0	 xorps	 xmm0, xmm0
  0007d	f3 0f 2a c1	 cvtsi2ss xmm0, ecx
  00081	8b 4d e8	 mov	 ecx, DWORD PTR _iYPos$[ebp]
  00084	83 c1 2f	 add	 ecx, 47			; 0000002fH
  00087	f3 0f 11 45 dc	 movss	 DWORD PTR tv338[ebp], xmm0
  0008c	89 5d f0	 mov	 DWORD PTR tv426[ebp], ebx
  0008f	89 4d ec	 mov	 DWORD PTR tv445[ebp], ecx
  00092	89 45 e0	 mov	 DWORD PTR tv221[ebp], eax
$LN9@RenderTuto:

; 576  : 		g_FontMgr.PrintText( iXPos + 77, iYPos + 47 + ( 17 * i ), FONT_SIZE_12, m_vStringTickList[i].m_szCopyDesc );

  00095	8b 86 a4 01 00
	00		 mov	 eax, DWORD PTR [esi+420]
  0009b	03 45 f0	 add	 eax, DWORD PTR tv426[ebp]
  0009e	f3 0f 10 05 00
	00 00 00	 movss	 xmm0, DWORD PTR __real@3f19999a
  000a6	50		 push	 eax
  000a7	83 ec 0c	 sub	 esp, 12			; 0000000cH
  000aa	f3 0f 11 44 24
	08		 movss	 DWORD PTR [esp+8], xmm0
  000b0	66 0f 6e 45 ec	 movd	 xmm0, DWORD PTR tv445[ebp]
  000b5	0f 5b c0	 cvtdq2ps xmm0, xmm0
  000b8	f3 0f 11 44 24
	04		 movss	 DWORD PTR [esp+4], xmm0
  000be	f3 0f 10 45 dc	 movss	 xmm0, DWORD PTR tv338[ebp]
  000c3	f3 0f 11 04 24	 movss	 DWORD PTR [esp], xmm0
  000c8	ff d7		 call	 edi
  000ca	50		 push	 eax
  000cb	ff 15 00 00 00
	00		 call	 DWORD PTR __imp_?PrintText@ioFontManager@@QAAXMMMPBDZZ
  000d1	81 45 f0 04 01
	00 00		 add	 DWORD PTR tv426[ebp], 260 ; 00000104H
  000d8	83 45 ec 11	 add	 DWORD PTR tv445[ebp], 17 ; 00000011H
  000dc	83 c4 14	 add	 esp, 20			; 00000014H
  000df	ff 4d e0	 dec	 DWORD PTR tv221[ebp]
  000e2	75 b1		 jne	 SHORT $LN9@RenderTuto
$LN7@RenderTuto:

; 577  : 
; 578  : 	enum { MAX_NEXT_BTN = 3 };
; 579  : 	for (int i = 0; i < MAX_NEXT_BTN ; i++)

  000e4	33 ff		 xor	 edi, edi
$LL6@RenderTuto:

; 580  : 	{
; 581  : 		ioWnd *pButton = FindChildWnd( ID_START + i );

  000e6	8d 47 02	 lea	 eax, DWORD PTR [edi+2]
  000e9	50		 push	 eax
  000ea	8b ce		 mov	 ecx, esi
  000ec	ff 15 00 00 00
	00		 call	 DWORD PTR __imp_?FindChildWnd@ioWnd@@QAEPAV1@K@Z

; 582  : 		if( pButton && pButton->IsShow() )

  000f2	3b c3		 cmp	 eax, ebx
  000f4	74 10		 je	 SHORT $LN5@RenderTuto
  000f6	8b c8		 mov	 ecx, eax
  000f8	ff 15 00 00 00
	00		 call	 DWORD PTR __imp_?IsShow@ioWnd@@QBE_NXZ
  000fe	84 c0		 test	 al, al
  00100	0f 85 c5 01 00
	00		 jne	 $LN1@RenderTuto
$LN5@RenderTuto:

; 577  : 
; 578  : 	enum { MAX_NEXT_BTN = 3 };
; 579  : 	for (int i = 0; i < MAX_NEXT_BTN ; i++)

  00106	47		 inc	 edi
  00107	83 ff 03	 cmp	 edi, 3
  0010a	7c da		 jl	 SHORT $LL6@RenderTuto

; 583  : 			return;	
; 584  : 	}
; 585  : 
; 586  : 	if( m_pHelpBackFrm )

  0010c	39 9e 60 01 00
	00		 cmp	 DWORD PTR [esi+352], ebx
  00112	74 2c		 je	 SHORT $LN2@RenderTuto

; 587  : 		m_pHelpBackFrm->Render( iXPos, iYPos, UI_RENDER_MULTIPLY );

  00114	8b 8e 60 01 00
	00		 mov	 ecx, DWORD PTR [esi+352]
  0011a	66 0f 6e 45 e8	 movd	 xmm0, DWORD PTR _iYPos$[ebp]
  0011f	8b 01		 mov	 eax, DWORD PTR [ecx]
  00121	53		 push	 ebx
  00122	53		 push	 ebx
  00123	53		 push	 ebx
  00124	6a 08		 push	 8
  00126	51		 push	 ecx
  00127	0f 5b c0	 cvtdq2ps xmm0, xmm0
  0012a	51		 push	 ecx
  0012b	f3 0f 11 44 24
	04		 movss	 DWORD PTR [esp+4], xmm0
  00131	66 0f 6e 45 e4	 movd	 xmm0, DWORD PTR _iXPos$[ebp]
  00136	0f 5b c0	 cvtdq2ps xmm0, xmm0
  00139	f3 0f 11 04 24	 movss	 DWORD PTR [esp], xmm0
  0013e	ff 10		 call	 DWORD PTR [eax]
$LN2@RenderTuto:

; 588  : 
; 589  : 	if( !m_szHelp.IsEmpty() )

  00140	8d 8e d4 01 00
	00		 lea	 ecx, DWORD PTR [esi+468]
  00146	ff 15 00 00 00
	00		 call	 DWORD PTR __imp_?IsEmpty@ioHashString@@QBE_NXZ
  0014c	84 c0		 test	 al, al
  0014e	0f 85 77 01 00
	00		 jne	 $LN1@RenderTuto

; 590  : 	{
; 591  : 		ioComplexStringPrinter kPrinter;

  00154	8d 4d bc	 lea	 ecx, DWORD PTR _kPrinter$517173[ebp]
  00157	e8 00 00 00 00	 call	 ??0ioComplexStringPrinter@@QAE@XZ ; ioComplexStringPrinter::ioComplexStringPrinter

; 592  : 		kPrinter.SetTextStyle( TS_NORMAL );

  0015c	53		 push	 ebx
  0015d	8d 4d bc	 lea	 ecx, DWORD PTR _kPrinter$517173[ebp]
  00160	89 5d fc	 mov	 DWORD PTR __$EHRec$[ebp+8], ebx
  00163	e8 00 00 00 00	 call	 ?SetTextStyle@ioComplexStringPrinter@@QAEXW4TextStyle@@@Z ; ioComplexStringPrinter::SetTextStyle

; 593  : 		kPrinter.SetTextColor( TCT_DEFAULT_GREEN );

  00168	68 22 72 11 ff	 push	 -15633886		; ff117222H
  0016d	8d 4d bc	 lea	 ecx, DWORD PTR _kPrinter$517173[ebp]
  00170	e8 00 00 00 00	 call	 ?SetTextColor@ioComplexStringPrinter@@QAEXK@Z ; ioComplexStringPrinter::SetTextColor

; 594  : 		kPrinter.AddTextPiece( FONT_SIZE_13, STR(3), m_szHelp.c_str() );

  00175	8d 8e d4 01 00
	00		 lea	 ecx, DWORD PTR [esi+468]
  0017b	ff 15 00 00 00
	00		 call	 DWORD PTR __imp_?c_str@ioHashString@@QBEPBDXZ
  00181	8b 3d 00 00 00
	00		 mov	 edi, DWORD PTR __imp_?GetSingleton@ioStringManager@@SAAAV1@XZ
  00187	50		 push	 eax
  00188	53		 push	 ebx
  00189	6a 03		 push	 3
  0018b	68 00 00 00 00	 push	 OFFSET ??_C@_00CNPNBAHC@?$AA@
  00190	68 00 00 00 00	 push	 OFFSET ??_C@_0CA@PBMFOIHP@TutorialWnd?3?3RenderTutorialInfo?$AA@
  00195	ff d7		 call	 edi
  00197	8b 1d 00 00 00
	00		 mov	 ebx, DWORD PTR __imp_?GetString@ioStringManager@@QAEPADPBD0HW4FileNamePrefix@1@@Z
  0019d	8b c8		 mov	 ecx, eax
  0019f	ff d3		 call	 ebx
  001a1	f3 0f 10 05 00
	00 00 00	 movss	 xmm0, DWORD PTR __real@3f266666
  001a9	50		 push	 eax
  001aa	51		 push	 ecx
  001ab	8d 4d bc	 lea	 ecx, DWORD PTR _kPrinter$517173[ebp]
  001ae	f3 0f 11 04 24	 movss	 DWORD PTR [esp], xmm0
  001b3	e8 00 00 00 00	 call	 ?AddTextPiece@ioComplexStringPrinter@@QAEXMPBD0@Z ; ioComplexStringPrinter::AddTextPiece

; 595  : 		// /2  * FLOAT05 
; 596  : 		kPrinter.AddTextPieceWithYOffset( FONT_SIZE_13 * m_fScale, 7 - ((14 * m_fScale) * FLOAT05), STR(1), m_iCurValue );

  001b8	b8 05 00 00 00	 mov	 eax, 5
  001bd	89 45 dc	 mov	 DWORD PTR $T521984[ebp], eax
  001c0	b8 0a 00 00 00	 mov	 eax, 10			; 0000000aH
  001c5	ff b6 bc 01 00
	00		 push	 DWORD PTR [esi+444]
  001cb	f3 0f 10 86 e4
	01 00 00	 movss	 xmm0, DWORD PTR [esi+484]
  001d3	6a 00		 push	 0
  001d5	6a 01		 push	 1
  001d7	68 00 00 00 00	 push	 OFFSET ??_C@_00CNPNBAHC@?$AA@
  001dc	68 00 00 00 00	 push	 OFFSET ??_C@_0CA@PBMFOIHP@TutorialWnd?3?3RenderTutorialInfo?$AA@
  001e1	89 45 ec	 mov	 DWORD PTR $T521988[ebp], eax
  001e4	f3 0f 11 45 e0	 movss	 DWORD PTR tv377[ebp], xmm0
  001e9	ff d7		 call	 edi
  001eb	8b c8		 mov	 ecx, eax
  001ed	ff d3		 call	 ebx
  001ef	db 45 dc	 fild	 DWORD PTR $T521984[ebp]
  001f2	50		 push	 eax
  001f3	8b 45 dc	 mov	 eax, DWORD PTR $T521984[ebp]
  001f6	85 c0		 test	 eax, eax
  001f8	79 06		 jns	 SHORT $LN28@RenderTuto
  001fa	d8 05 00 00 00
	00		 fadd	 DWORD PTR __real@4f800000
$LN28@RenderTuto:
  00200	8b 45 ec	 mov	 eax, DWORD PTR $T521988[ebp]
  00203	db 45 ec	 fild	 DWORD PTR $T521988[ebp]
  00206	85 c0		 test	 eax, eax
  00208	79 06		 jns	 SHORT $LN29@RenderTuto
  0020a	d8 05 00 00 00
	00		 fadd	 DWORD PTR __real@4f800000
$LN29@RenderTuto:
  00210	de f9		 fdivp	 ST(1), ST(0)
  00212	f3 0f 10 45 e0	 movss	 xmm0, DWORD PTR tv377[ebp]
  00217	51		 push	 ecx
  00218	51		 push	 ecx
  00219	0f 5a c0	 cvtps2pd xmm0, xmm0
  0021c	f2 0f 59 05 00
	00 00 00	 mulsd	 xmm0, QWORD PTR __real@3fe4ccccc0000000
  00224	f2 0f 5a c0	 cvtsd2ss xmm0, xmm0
  00228	8d 4d bc	 lea	 ecx, DWORD PTR _kPrinter$517173[ebp]
  0022b	d9 5d dc	 fstp	 DWORD PTR tv399[ebp]
  0022e	d9 45 dc	 fld	 DWORD PTR tv399[ebp]
  00231	d9 45 e0	 fld	 DWORD PTR tv377[ebp]
  00234	dc 0d 00 00 00
	00		 fmul	 QWORD PTR __real@402c000000000000
  0023a	de c9		 fmulp	 ST(1), ST(0)
  0023c	dc 2d 00 00 00
	00		 fsubr	 QWORD PTR __real@401c000000000000
  00242	d9 5d dc	 fstp	 DWORD PTR tv393[ebp]
  00245	d9 45 dc	 fld	 DWORD PTR tv393[ebp]
  00248	d9 5c 24 04	 fstp	 DWORD PTR [esp+4]
  0024c	f3 0f 11 04 24	 movss	 DWORD PTR [esp], xmm0
  00251	e8 00 00 00 00	 call	 ?AddTextPieceWithYOffset@ioComplexStringPrinter@@QAEXMMPBDH@Z ; ioComplexStringPrinter::AddTextPieceWithYOffset

; 597  : 		kPrinter.AddTextPiece( FONT_SIZE_13, STR(2), m_iMaxValue );	

  00256	ff b6 c0 01 00
	00		 push	 DWORD PTR [esi+448]
  0025c	6a 00		 push	 0
  0025e	6a 02		 push	 2
  00260	68 00 00 00 00	 push	 OFFSET ??_C@_00CNPNBAHC@?$AA@
  00265	68 00 00 00 00	 push	 OFFSET ??_C@_0CA@PBMFOIHP@TutorialWnd?3?3RenderTutorialInfo?$AA@
  0026a	ff d7		 call	 edi
  0026c	8b c8		 mov	 ecx, eax
  0026e	ff d3		 call	 ebx
  00270	f3 0f 10 05 00
	00 00 00	 movss	 xmm0, DWORD PTR __real@3f266666
  00278	50		 push	 eax
  00279	51		 push	 ecx
  0027a	8d 4d bc	 lea	 ecx, DWORD PTR _kPrinter$517173[ebp]
  0027d	f3 0f 11 04 24	 movss	 DWORD PTR [esp], xmm0
  00282	e8 00 00 00 00	 call	 ?AddTextPiece@ioComplexStringPrinter@@QAEXMPBDH@Z ; ioComplexStringPrinter::AddTextPiece

; 598  : 		kPrinter.PrintFullText( iXPos + 188, iYPos + 117, TAT_CENTER );

  00287	8b 45 e8	 mov	 eax, DWORD PTR _iYPos$[ebp]
  0028a	68 ff 00 00 00	 push	 255			; 000000ffH
  0028f	6a 01		 push	 1
  00291	83 c0 75	 add	 eax, 117		; 00000075H
  00294	0f 57 c0	 xorps	 xmm0, xmm0
  00297	f3 0f 2a c0	 cvtsi2ss xmm0, eax
  0029b	8b 45 e4	 mov	 eax, DWORD PTR _iXPos$[ebp]
  0029e	51		 push	 ecx
  0029f	51		 push	 ecx
  002a0	f3 0f 11 44 24
	04		 movss	 DWORD PTR [esp+4], xmm0
  002a6	05 bc 00 00 00	 add	 eax, 188		; 000000bcH
  002ab	0f 57 c0	 xorps	 xmm0, xmm0
  002ae	f3 0f 2a c0	 cvtsi2ss xmm0, eax
  002b2	8d 4d bc	 lea	 ecx, DWORD PTR _kPrinter$517173[ebp]
  002b5	f3 0f 11 04 24	 movss	 DWORD PTR [esp], xmm0
  002ba	e8 00 00 00 00	 call	 ?PrintFullText@ioComplexStringPrinter@@QAEXMMW4TextAlignType@@E@Z ; ioComplexStringPrinter::PrintFullText

; 599  : 	}

  002bf	83 4d fc ff	 or	 DWORD PTR __$EHRec$[ebp+8], -1
  002c3	8d 4d bc	 lea	 ecx, DWORD PTR _kPrinter$517173[ebp]
  002c6	e8 00 00 00 00	 call	 ??1ioComplexStringPrinter@@QAE@XZ ; ioComplexStringPrinter::~ioComplexStringPrinter
$LN1@RenderTuto:

; 600  : }

  002cb	e8 00 00 00 00	 call	 __EH_epilog3
  002d0	c3		 ret	 0
_TEXT	ENDS
;	COMDAT text$x
text$x	SEGMENT
__unwindfunclet$?RenderTutorialInfo@TutorialWnd@@IAEXXZ$0:
  00000	8d 4d bc	 lea	 ecx, DWORD PTR _kPrinter$517173[ebp]
  00003	e9 00 00 00 00	 jmp	 ??1ioComplexStringPrinter@@QAE@XZ ; ioComplexStringPrinter::~ioComplexStringPrinter
__ehhandler$?RenderTutorialInfo@TutorialWnd@@IAEXXZ:
  00008	8b 54 24 08	 mov	 edx, DWORD PTR [esp+8]
  0000c	8d 42 0c	 lea	 eax, DWORD PTR [edx+12]
  0000f	8b 4a b8	 mov	 ecx, DWORD PTR [edx-72]
  00012	33 c8		 xor	 ecx, eax
  00014	e8 00 00 00 00	 call	 @__security_check_cookie@4
  00019	b8 00 00 00 00	 mov	 eax, OFFSET __ehfuncinfo$?RenderTutorialInfo@TutorialWnd@@IAEXXZ
  0001e	e9 00 00 00 00	 jmp	 ___CxxFrameHandler3
text$x	ENDS
?RenderTutorialInfo@TutorialWnd@@IAEXXZ ENDP		; TutorialWnd::RenderTutorialInfo
PUBLIC	??_R0?AVPartyCreateWnd@@@8			; PartyCreateWnd `RTTI Type Descriptor'
PUBLIC	?SetBattleProcess@TutorialWnd@@IAEXXZ		; TutorialWnd::SetBattleProcess
EXTRN	?CreateBattleRoom@PartyCreateWnd@@QAEXHHH@Z:PROC ; PartyCreateWnd::CreateBattleRoom
EXTRN	?GetSingleton@ioBattleRoomMgr@@SAAAV1@XZ:PROC	; ioBattleRoomMgr::GetSingleton
EXTRN	__imp_?FindWnd@ioGUIManager@@QAEPAVioWnd@@K@Z:PROC
EXTRN	__imp_?HideWnd@ioGUIManager@@QAEXK_N@Z:PROC
EXTRN	___RTDynamicCast:PROC
;	COMDAT ??_R0?AVPartyCreateWnd@@@8
; File d:\lost saga for developer\youtube\tutorial\source\src\lsclient\iobattleroommgr.h
_DATA	SEGMENT
??_R0?AVPartyCreateWnd@@@8 DD FLAT:??_7type_info@@6B@	; PartyCreateWnd `RTTI Type Descriptor'
	DD	00H
	DB	'.?AVPartyCreateWnd@@', 00H
; Function compile flags: /Ogsp
; File d:\lost saga for developer\youtube\tutorial\source\src\lsclient\gui\tutorialwnd.cpp
_DATA	ENDS
;	COMDAT ?SetBattleProcess@TutorialWnd@@IAEXXZ
_TEXT	SEGMENT
?SetBattleProcess@TutorialWnd@@IAEXXZ PROC		; TutorialWnd::SetBattleProcess, COMDAT
; _this$ = ecx

; 616  : {

  00000	56		 push	 esi
  00001	57		 push	 edi

; 617  : 	//   
; 618  : 	g_GUIMgr.HideWnd( TIMEGATE_SEARCH );

  00002	33 f6		 xor	 esi, esi
  00004	56		 push	 esi
  00005	68 ba 0b 00 00	 push	 3002			; 00000bbaH
  0000a	e8 00 00 00 00	 call	 ?GetSingleton@ioSP2GUIManager@@SAAAV1@XZ ; ioSP2GUIManager::GetSingleton
  0000f	8b c8		 mov	 ecx, eax
  00011	ff 15 00 00 00
	00		 call	 DWORD PTR __imp_?HideWnd@ioGUIManager@@QAEXK_N@Z

; 619  : 
; 620  : 	PartyCreateWnd *pPartyCreate = dynamic_cast<PartyCreateWnd*>( g_GUIMgr.FindWnd( PARTY_CREATE_WND ) );

  00017	56		 push	 esi
  00018	68 00 00 00 00	 push	 OFFSET ??_R0?AVPartyCreateWnd@@@8
  0001d	68 00 00 00 00	 push	 OFFSET ??_R0?AVioWnd@@@8
  00022	56		 push	 esi
  00023	68 b2 13 00 00	 push	 5042			; 000013b2H
  00028	e8 00 00 00 00	 call	 ?GetSingleton@ioSP2GUIManager@@SAAAV1@XZ ; ioSP2GUIManager::GetSingleton
  0002d	8b c8		 mov	 ecx, eax
  0002f	ff 15 00 00 00
	00		 call	 DWORD PTR __imp_?FindWnd@ioGUIManager@@QAEPAVioWnd@@K@Z
  00035	50		 push	 eax
  00036	e8 00 00 00 00	 call	 ___RTDynamicCast
  0003b	8b f8		 mov	 edi, eax
  0003d	83 c4 14	 add	 esp, 20			; 00000014H

; 621  : 	if( pPartyCreate )

  00040	3b fe		 cmp	 edi, esi
  00042	74 2f		 je	 SHORT $LN1@SetBattleP

; 622  : 	{
; 623  : 		pPartyCreate->CreateBattleRoom( BMT_MONSTER_SURVIVAL_EASY, g_BattleRoomMgr.GetDefMaxPlayer() / 2, g_BattleRoomMgr.GetDefMaxPlayer() / 2 );

  00044	e8 00 00 00 00	 call	 ?GetSingleton@ioBattleRoomMgr@@SAAAV1@XZ ; ioBattleRoomMgr::GetSingleton
  00049	8b b0 68 02 00
	00		 mov	 esi, DWORD PTR [eax+616]
  0004f	e8 00 00 00 00	 call	 ?GetSingleton@ioBattleRoomMgr@@SAAAV1@XZ ; ioBattleRoomMgr::GetSingleton
  00054	8b c8		 mov	 ecx, eax
  00056	8b c6		 mov	 eax, esi
  00058	99		 cdq
  00059	2b c2		 sub	 eax, edx
  0005b	d1 f8		 sar	 eax, 1
  0005d	50		 push	 eax
  0005e	8b 81 68 02 00
	00		 mov	 eax, DWORD PTR [ecx+616]
  00064	99		 cdq
  00065	2b c2		 sub	 eax, edx
  00067	d1 f8		 sar	 eax, 1
  00069	50		 push	 eax
  0006a	6a 0f		 push	 15			; 0000000fH
  0006c	8b cf		 mov	 ecx, edi
  0006e	e8 00 00 00 00	 call	 ?CreateBattleRoom@PartyCreateWnd@@QAEXHHH@Z ; PartyCreateWnd::CreateBattleRoom
$LN1@SetBattleP:

; 624  : 	}
; 625  : }

  00073	5f		 pop	 edi
  00074	5e		 pop	 esi
  00075	c3		 ret	 0
?SetBattleProcess@TutorialWnd@@IAEXXZ ENDP		; TutorialWnd::SetBattleProcess
; Function compile flags: /Ogsp
_TEXT	ENDS
;	COMDAT ??_GTutorialKeyboardWnd@@UAEPAXI@Z
_TEXT	SEGMENT
___flags$ = 8						; size = 4
??_GTutorialKeyboardWnd@@UAEPAXI@Z PROC			; TutorialKeyboardWnd::`scalar deleting destructor', COMDAT
; _this$ = ecx
  00000	55		 push	 ebp
  00001	8b ec		 mov	 ebp, esp
  00003	56		 push	 esi
  00004	8b f1		 mov	 esi, ecx
  00006	e8 00 00 00 00	 call	 ??1TutorialKeyboardWnd@@UAE@XZ ; TutorialKeyboardWnd::~TutorialKeyboardWnd
  0000b	f6 45 08 01	 test	 BYTE PTR ___flags$[ebp], 1
  0000f	74 07		 je	 SHORT $LN1@scalar@3
  00011	56		 push	 esi
  00012	e8 00 00 00 00	 call	 ??3@YAXPAX@Z		; operator delete
  00017	59		 pop	 ecx
$LN1@scalar@3:
  00018	8b c6		 mov	 eax, esi
  0001a	5e		 pop	 esi
  0001b	5d		 pop	 ebp
  0001c	c2 04 00	 ret	 4
??_GTutorialKeyboardWnd@@UAEPAXI@Z ENDP			; TutorialKeyboardWnd::`scalar deleting destructor'
; Function compile flags: /Ogsp
_TEXT	ENDS
;	COMDAT ?OnProcess@TutorialKeyboardWnd@@MAEXM@Z
_TEXT	SEGMENT
_fTimePerSec$ = 8					; size = 4
?OnProcess@TutorialKeyboardWnd@@MAEXM@Z PROC		; TutorialKeyboardWnd::OnProcess, COMDAT
; _this$ = ecx

; 701  : {

  00000	56		 push	 esi
  00001	8b f1		 mov	 esi, ecx

; 702  : 	if( !IsShow() )

  00003	ff 15 00 00 00
	00		 call	 DWORD PTR __imp_?IsShow@ioWnd@@QBE_NXZ
  00009	84 c0		 test	 al, al
  0000b	74 0e		 je	 SHORT $LN2@OnProcess@2

; 703  : 		return;
; 704  : 
; 705  : 	OnProcessKeyCheck();

  0000d	8b ce		 mov	 ecx, esi
  0000f	e8 00 00 00 00	 call	 ?OnProcessKeyCheck@TutorialKeyboardWnd@@IAEXXZ ; TutorialKeyboardWnd::OnProcessKeyCheck

; 706  : 	OnProcessShow();

  00014	8b ce		 mov	 ecx, esi
  00016	e8 00 00 00 00	 call	 ?OnProcessShow@TutorialKeyboardWnd@@IAEXXZ ; TutorialKeyboardWnd::OnProcessShow
$LN2@OnProcess@2:
  0001b	5e		 pop	 esi

; 707  : }

  0001c	c2 04 00	 ret	 4
?OnProcess@TutorialKeyboardWnd@@MAEXM@Z ENDP		; TutorialKeyboardWnd::OnProcess
_TEXT	ENDS
PUBLIC	__real@4079000000000000
EXTRN	__imp_?OnRender@ioWnd@@MAEXXZ:PROC
EXTRN	__ftol2_sse:PROC
;	COMDAT __real@4079000000000000
; File d:\lost saga for developer\youtube\tutorial\source\src\lsclient\stdafx.h
CONST	SEGMENT
__real@4079000000000000 DQ 04079000000000000r	; 400
; Function compile flags: /Ogsp
; File d:\lost saga for developer\youtube\tutorial\source\src\lsclient\gui\tutorialwnd.cpp
CONST	ENDS
;	COMDAT ?OnRender@TutorialKeyboardWnd@@MAEXXZ
_TEXT	SEGMENT
tv211 = -4						; size = 4
tv205 = -4						; size = 4
tv194 = -4						; size = 4
tv85 = -4						; size = 4
?OnRender@TutorialKeyboardWnd@@MAEXXZ PROC		; TutorialKeyboardWnd::OnRender, COMDAT
; _this$ = ecx

; 789  : {

  00000	55		 push	 ebp
  00001	8b ec		 mov	 ebp, esp
  00003	51		 push	 ecx
  00004	53		 push	 ebx
  00005	56		 push	 esi
  00006	57		 push	 edi
  00007	8b f1		 mov	 esi, ecx

; 790  : 	ioWnd::OnRender();

  00009	ff 15 00 00 00
	00		 call	 DWORD PTR __imp_?OnRender@ioWnd@@MAEXXZ

; 791  : 
; 792  : 	int iXPos = GetDerivedPosX();

  0000f	8b ce		 mov	 ecx, esi
  00011	ff 15 00 00 00
	00		 call	 DWORD PTR __imp_?GetDerivedPosX@ioWnd@@QBEHXZ

; 793  : 	int iYPos = GetDerivedPosY();

  00017	8b ce		 mov	 ecx, esi
  00019	8b f8		 mov	 edi, eax
  0001b	ff 15 00 00 00
	00		 call	 DWORD PTR __imp_?GetDerivedPosY@ioWnd@@QBEHXZ
  00021	8b d8		 mov	 ebx, eax

; 794  : 
; 795  : 	OnRenderASD( ( iXPos - 375 ) - ( 400 * ( FLOAT1 - m_fProcessRate ) ), iYPos - 49 );

  00023	b8 01 00 00 00	 mov	 eax, 1
  00028	8d 8f 89 fe ff
	ff		 lea	 ecx, DWORD PTR [edi-375]
  0002e	89 4d fc	 mov	 DWORD PTR tv211[ebp], ecx
  00031	db 45 fc	 fild	 DWORD PTR tv211[ebp]
  00034	83 c3 cf	 add	 ebx, -49		; ffffffcfH
  00037	89 45 fc	 mov	 DWORD PTR tv205[ebp], eax
  0003a	db 45 fc	 fild	 DWORD PTR tv205[ebp]
  0003d	53		 push	 ebx
  0003e	85 c0		 test	 eax, eax
  00040	79 06		 jns	 SHORT $LN7@OnRender
  00042	d8 05 00 00 00
	00		 fadd	 DWORD PTR __real@4f800000
$LN7@OnRender:
  00048	d8 a6 74 01 00
	00		 fsub	 DWORD PTR [esi+372]
  0004e	dc 0d 00 00 00
	00		 fmul	 QWORD PTR __real@4079000000000000
  00054	de e9		 fsubp	 ST(1), ST(0)
  00056	e8 00 00 00 00	 call	 __ftol2_sse
  0005b	50		 push	 eax
  0005c	8b ce		 mov	 ecx, esi
  0005e	e8 00 00 00 00	 call	 ?OnRenderASD@TutorialKeyboardWnd@@IAEXHH@Z ; TutorialKeyboardWnd::OnRenderASD

; 796  : 	OnRenderArrow( ( iXPos + 228 ) + ( 400 * ( FLOAT1 - m_fProcessRate ) ), iYPos - 49 );

  00063	b8 01 00 00 00	 mov	 eax, 1
  00068	89 45 fc	 mov	 DWORD PTR tv194[ebp], eax
  0006b	db 45 fc	 fild	 DWORD PTR tv194[ebp]
  0006e	53		 push	 ebx
  0006f	85 c0		 test	 eax, eax
  00071	79 06		 jns	 SHORT $LN8@OnRender
  00073	d8 05 00 00 00
	00		 fadd	 DWORD PTR __real@4f800000
$LN8@OnRender:
  00079	d8 a6 74 01 00
	00		 fsub	 DWORD PTR [esi+372]
  0007f	81 c7 e4 00 00
	00		 add	 edi, 228		; 000000e4H
  00085	89 7d fc	 mov	 DWORD PTR tv85[ebp], edi
  00088	dc 0d 00 00 00
	00		 fmul	 QWORD PTR __real@4079000000000000
  0008e	da 45 fc	 fiadd	 DWORD PTR tv85[ebp]
  00091	e8 00 00 00 00	 call	 __ftol2_sse
  00096	50		 push	 eax
  00097	8b ce		 mov	 ecx, esi
  00099	e8 00 00 00 00	 call	 ?OnRenderArrow@TutorialKeyboardWnd@@IAEXHH@Z ; TutorialKeyboardWnd::OnRenderArrow
  0009e	5f		 pop	 edi
  0009f	5e		 pop	 esi
  000a0	5b		 pop	 ebx

; 797  : }

  000a1	c9		 leave
  000a2	c3		 ret	 0
?OnRender@TutorialKeyboardWnd@@MAEXXZ ENDP		; TutorialKeyboardWnd::OnRender
_TEXT	ENDS
PUBLIC	??D?$_Vector_iterator@V?$_Vector_val@PAVioUIRenderImage@@V?$allocator@PAVioUIRenderImage@@@std@@@std@@@std@@QBEAAPAVioUIRenderImage@@XZ ; std::_Vector_iterator<std::_Vector_val<ioUIRenderImage *,std::allocator<ioUIRenderImage *> > >::operator*
; Function compile flags: /Ogsp
; File c:\program files (x86)\microsoft visual studio 10.0\vc\include\vector
;	COMDAT ??D?$_Vector_iterator@V?$_Vector_val@PAVioUIRenderImage@@V?$allocator@PAVioUIRenderImage@@@std@@@std@@@std@@QBEAAPAVioUIRenderImage@@XZ
_TEXT	SEGMENT
??D?$_Vector_iterator@V?$_Vector_val@PAVioUIRenderImage@@V?$allocator@PAVioUIRenderImage@@@std@@@std@@@std@@QBEAAPAVioUIRenderImage@@XZ PROC ; std::_Vector_iterator<std::_Vector_val<ioUIRenderImage *,std::allocator<ioUIRenderImage *> > >::operator*, COMDAT
; _this$ = ecx

; 322  : 		return ((reference)**(_Mybase *)this);

  00000	8b 01		 mov	 eax, DWORD PTR [ecx]

; 323  : 		}

  00002	c3		 ret	 0
??D?$_Vector_iterator@V?$_Vector_val@PAVioUIRenderImage@@V?$allocator@PAVioUIRenderImage@@@std@@@std@@@std@@QBEAAPAVioUIRenderImage@@XZ ENDP ; std::_Vector_iterator<std::_Vector_val<ioUIRenderImage *,std::allocator<ioUIRenderImage *> > >::operator*
_TEXT	ENDS
PUBLIC	??E?$_Vector_iterator@V?$_Vector_val@PAVioUIRenderImage@@V?$allocator@PAVioUIRenderImage@@@std@@@std@@@std@@QAEAAV01@XZ ; std::_Vector_iterator<std::_Vector_val<ioUIRenderImage *,std::allocator<ioUIRenderImage *> > >::operator++
; Function compile flags: /Ogsp
;	COMDAT ??E?$_Vector_iterator@V?$_Vector_val@PAVioUIRenderImage@@V?$allocator@PAVioUIRenderImage@@@std@@@std@@@std@@QAEAAV01@XZ
_TEXT	SEGMENT
??E?$_Vector_iterator@V?$_Vector_val@PAVioUIRenderImage@@V?$allocator@PAVioUIRenderImage@@@std@@@std@@@std@@QAEAAV01@XZ PROC ; std::_Vector_iterator<std::_Vector_val<ioUIRenderImage *,std::allocator<ioUIRenderImage *> > >::operator++, COMDAT
; _this$ = ecx

; 331  : 		{	// preincrement

  00000	8b c1		 mov	 eax, ecx

; 332  : 		++*(_Mybase *)this;

  00002	83 00 04	 add	 DWORD PTR [eax], 4

; 333  : 		return (*this);
; 334  : 		}

  00005	c3		 ret	 0
??E?$_Vector_iterator@V?$_Vector_val@PAVioUIRenderImage@@V?$allocator@PAVioUIRenderImage@@@std@@@std@@@std@@QAEAAV01@XZ ENDP ; std::_Vector_iterator<std::_Vector_val<ioUIRenderImage *,std::allocator<ioUIRenderImage *> > >::operator++
_TEXT	ENDS
PUBLIC	??0?$_Vector_val@V?$basic_string@DU?$char_traits@D@std@@V?$allocator@D@2@@std@@V?$allocator@V?$basic_string@DU?$char_traits@D@std@@V?$allocator@D@2@@std@@@2@@std@@QAE@V?$allocator@V?$basic_string@DU?$char_traits@D@std@@V?$allocator@D@2@@std@@@1@@Z ; std::_Vector_val<std::basic_string<char,std::char_traits<char>,std::allocator<char> >,std::allocator<std::basic_string<char,std::char_traits<char>,std::allocator<char> > > >::_Vector_val<std::basic_string<char,std::char_traits<char>,std::allocator<char> >,std::allocator<std::basic_string<char,std::char_traits<char>,std::allocator<char> > > >
; Function compile flags: /Ogsp
;	COMDAT ??0?$_Vector_val@V?$basic_string@DU?$char_traits@D@std@@V?$allocator@D@2@@std@@V?$allocator@V?$basic_string@DU?$char_traits@D@std@@V?$allocator@D@2@@std@@@2@@std@@QAE@V?$allocator@V?$basic_string@DU?$char_traits@D@std@@V?$allocator@D@2@@std@@@1@@Z
_TEXT	SEGMENT
__Al$ = 8						; size = 1
??0?$_Vector_val@V?$basic_string@DU?$char_traits@D@std@@V?$allocator@D@2@@std@@V?$allocator@V?$basic_string@DU?$char_traits@D@std@@V?$allocator@D@2@@std@@@2@@std@@QAE@V?$allocator@V?$basic_string@DU?$char_traits@D@std@@V?$allocator@D@2@@std@@@1@@Z PROC ; std::_Vector_val<std::basic_string<char,std::char_traits<char>,std::allocator<char> >,std::allocator<std::basic_string<char,std::char_traits<char>,std::allocator<char> > > >::_Vector_val<std::basic_string<char,std::char_traits<char>,std::allocator<char> >,std::allocator<std::basic_string<char,std::char_traits<char>,std::allocator<char> > > >, COMDAT
; _this$ = ecx

; 426  : 		{	// construct allocator from _Al

  00000	8b c1		 mov	 eax, ecx

; 427  : 		_Myfirst = 0;

  00002	33 c9		 xor	 ecx, ecx
  00004	89 08		 mov	 DWORD PTR [eax], ecx

; 428  : 		_Mylast = 0;

  00006	89 48 04	 mov	 DWORD PTR [eax+4], ecx

; 429  : 		_Myend = 0;

  00009	89 48 08	 mov	 DWORD PTR [eax+8], ecx

; 430  : 		}

  0000c	c2 04 00	 ret	 4
??0?$_Vector_val@V?$basic_string@DU?$char_traits@D@std@@V?$allocator@D@2@@std@@V?$allocator@V?$basic_string@DU?$char_traits@D@std@@V?$allocator@D@2@@std@@@2@@std@@QAE@V?$allocator@V?$basic_string@DU?$char_traits@D@std@@V?$allocator@D@2@@std@@@1@@Z ENDP ; std::_Vector_val<std::basic_string<char,std::char_traits<char>,std::allocator<char> >,std::allocator<std::basic_string<char,std::char_traits<char>,std::allocator<char> > > >::_Vector_val<std::basic_string<char,std::char_traits<char>,std::allocator<char> >,std::allocator<std::basic_string<char,std::char_traits<char>,std::allocator<char> > > >
_TEXT	ENDS
PUBLIC	??0?$_Vector_val@UStringTick@TutorialWnd@@V?$allocator@UStringTick@TutorialWnd@@@std@@@std@@QAE@V?$allocator@UStringTick@TutorialWnd@@@1@@Z ; std::_Vector_val<TutorialWnd::StringTick,std::allocator<TutorialWnd::StringTick> >::_Vector_val<TutorialWnd::StringTick,std::allocator<TutorialWnd::StringTick> >
; Function compile flags: /Ogsp
;	COMDAT ??0?$_Vector_val@UStringTick@TutorialWnd@@V?$allocator@UStringTick@TutorialWnd@@@std@@@std@@QAE@V?$allocator@UStringTick@TutorialWnd@@@1@@Z
_TEXT	SEGMENT
__Al$ = 8						; size = 1
??0?$_Vector_val@UStringTick@TutorialWnd@@V?$allocator@UStringTick@TutorialWnd@@@std@@@std@@QAE@V?$allocator@UStringTick@TutorialWnd@@@1@@Z PROC ; std::_Vector_val<TutorialWnd::StringTick,std::allocator<TutorialWnd::StringTick> >::_Vector_val<TutorialWnd::StringTick,std::allocator<TutorialWnd::StringTick> >, COMDAT
; _this$ = ecx

; 426  : 		{	// construct allocator from _Al

  00000	8b c1		 mov	 eax, ecx

; 427  : 		_Myfirst = 0;

  00002	33 c9		 xor	 ecx, ecx
  00004	89 08		 mov	 DWORD PTR [eax], ecx

; 428  : 		_Mylast = 0;

  00006	89 48 04	 mov	 DWORD PTR [eax+4], ecx

; 429  : 		_Myend = 0;

  00009	89 48 08	 mov	 DWORD PTR [eax+8], ecx

; 430  : 		}

  0000c	c2 04 00	 ret	 4
??0?$_Vector_val@UStringTick@TutorialWnd@@V?$allocator@UStringTick@TutorialWnd@@@std@@@std@@QAE@V?$allocator@UStringTick@TutorialWnd@@@1@@Z ENDP ; std::_Vector_val<TutorialWnd::StringTick,std::allocator<TutorialWnd::StringTick> >::_Vector_val<TutorialWnd::StringTick,std::allocator<TutorialWnd::StringTick> >
_TEXT	ENDS
PUBLIC	??0?$_Vector_iterator@V?$_Vector_val@PAVioUIRenderImage@@V?$allocator@PAVioUIRenderImage@@@std@@@std@@@std@@QAE@PAPAVioUIRenderImage@@PBU_Container_base0@1@@Z ; std::_Vector_iterator<std::_Vector_val<ioUIRenderImage *,std::allocator<ioUIRenderImage *> > >::_Vector_iterator<std::_Vector_val<ioUIRenderImage *,std::allocator<ioUIRenderImage *> > >
; Function compile flags: /Ogsp
;	COMDAT ??0?$_Vector_iterator@V?$_Vector_val@PAVioUIRenderImage@@V?$allocator@PAVioUIRenderImage@@@std@@@std@@@std@@QAE@PAPAVioUIRenderImage@@PBU_Container_base0@1@@Z
_TEXT	SEGMENT
__Parg$ = 8						; size = 4
__Pvector$ = 12						; size = 4
??0?$_Vector_iterator@V?$_Vector_val@PAVioUIRenderImage@@V?$allocator@PAVioUIRenderImage@@@std@@@std@@@std@@QAE@PAPAVioUIRenderImage@@PBU_Container_base0@1@@Z PROC ; std::_Vector_iterator<std::_Vector_val<ioUIRenderImage *,std::allocator<ioUIRenderImage *> > >::_Vector_iterator<std::_Vector_val<ioUIRenderImage *,std::allocator<ioUIRenderImage *> > >, COMDAT
; _this$ = ecx

; 304  : 		{	// construct with pointer _Parg

  00000	55		 push	 ebp
  00001	8b ec		 mov	 ebp, esp
  00003	8b c1		 mov	 eax, ecx
  00005	8b 4d 08	 mov	 ecx, DWORD PTR __Parg$[ebp]
  00008	89 08		 mov	 DWORD PTR [eax], ecx

; 305  : 		}

  0000a	5d		 pop	 ebp
  0000b	c2 08 00	 ret	 8
??0?$_Vector_iterator@V?$_Vector_val@PAVioUIRenderImage@@V?$allocator@PAVioUIRenderImage@@@std@@@std@@@std@@QAE@PAPAVioUIRenderImage@@PBU_Container_base0@1@@Z ENDP ; std::_Vector_iterator<std::_Vector_val<ioUIRenderImage *,std::allocator<ioUIRenderImage *> > >::_Vector_iterator<std::_Vector_val<ioUIRenderImage *,std::allocator<ioUIRenderImage *> > >
_TEXT	ENDS
PUBLIC	??8?$_Vector_const_iterator@V?$_Vector_val@PAVioUIRenderImage@@V?$allocator@PAVioUIRenderImage@@@std@@@std@@@std@@QBE_NABV01@@Z ; std::_Vector_const_iterator<std::_Vector_val<ioUIRenderImage *,std::allocator<ioUIRenderImage *> > >::operator==
; Function compile flags: /Ogsp
;	COMDAT ??8?$_Vector_const_iterator@V?$_Vector_val@PAVioUIRenderImage@@V?$allocator@PAVioUIRenderImage@@@std@@@std@@@std@@QBE_NABV01@@Z
_TEXT	SEGMENT
__Right$ = 8						; size = 4
??8?$_Vector_const_iterator@V?$_Vector_val@PAVioUIRenderImage@@V?$allocator@PAVioUIRenderImage@@@std@@@std@@@std@@QBE_NABV01@@Z PROC ; std::_Vector_const_iterator<std::_Vector_val<ioUIRenderImage *,std::allocator<ioUIRenderImage *> > >::operator==, COMDAT
; _this$ = ecx

; 201  : 		{	// test for iterator equality

  00000	55		 push	 ebp
  00001	8b ec		 mov	 ebp, esp

; 202  : 		_Compat(_Right);
; 203  : 		return (this->_Ptr == _Right._Ptr);

  00003	8b 01		 mov	 eax, DWORD PTR [ecx]
  00005	8b 4d 08	 mov	 ecx, DWORD PTR __Right$[ebp]
  00008	2b 01		 sub	 eax, DWORD PTR [ecx]
  0000a	f7 d8		 neg	 eax
  0000c	1b c0		 sbb	 eax, eax
  0000e	40		 inc	 eax

; 204  : 		}

  0000f	5d		 pop	 ebp
  00010	c2 04 00	 ret	 4
??8?$_Vector_const_iterator@V?$_Vector_val@PAVioUIRenderImage@@V?$allocator@PAVioUIRenderImage@@@std@@@std@@@std@@QBE_NABV01@@Z ENDP ; std::_Vector_const_iterator<std::_Vector_val<ioUIRenderImage *,std::allocator<ioUIRenderImage *> > >::operator==
_TEXT	ENDS
PUBLIC	?max_size@?$vector@V?$basic_string@DU?$char_traits@D@std@@V?$allocator@D@2@@std@@V?$allocator@V?$basic_string@DU?$char_traits@D@std@@V?$allocator@D@2@@std@@@2@@std@@QBEIXZ ; std::vector<std::basic_string<char,std::char_traits<char>,std::allocator<char> >,std::allocator<std::basic_string<char,std::char_traits<char>,std::allocator<char> > > >::max_size
; Function compile flags: /Ogsp
;	COMDAT ?max_size@?$vector@V?$basic_string@DU?$char_traits@D@std@@V?$allocator@D@2@@std@@V?$allocator@V?$basic_string@DU?$char_traits@D@std@@V?$allocator@D@2@@std@@@2@@std@@QBEIXZ
_TEXT	SEGMENT
?max_size@?$vector@V?$basic_string@DU?$char_traits@D@std@@V?$allocator@D@2@@std@@V?$allocator@V?$basic_string@DU?$char_traits@D@std@@V?$allocator@D@2@@std@@@2@@std@@QBEIXZ PROC ; std::vector<std::basic_string<char,std::char_traits<char>,std::allocator<char> >,std::allocator<std::basic_string<char,std::char_traits<char>,std::allocator<char> > > >::max_size, COMDAT
; _this$ = ecx

; 884  : 		return (this->_Alval.max_size());

  00000	b8 49 92 24 09	 mov	 eax, 153391689		; 09249249H

; 885  : 		}

  00005	c3		 ret	 0
?max_size@?$vector@V?$basic_string@DU?$char_traits@D@std@@V?$allocator@D@2@@std@@V?$allocator@V?$basic_string@DU?$char_traits@D@std@@V?$allocator@D@2@@std@@@2@@std@@QBEIXZ ENDP ; std::vector<std::basic_string<char,std::char_traits<char>,std::allocator<char> >,std::allocator<std::basic_string<char,std::char_traits<char>,std::allocator<char> > > >::max_size
_TEXT	ENDS
PUBLIC	?allocate@?$allocator@V?$basic_string@DU?$char_traits@D@std@@V?$allocator@D@2@@std@@@std@@QAEPAV?$basic_string@DU?$char_traits@D@std@@V?$allocator@D@2@@2@I@Z ; std::allocator<std::basic_string<char,std::char_traits<char>,std::allocator<char> > >::allocate
; Function compile flags: /Ogsp
; File c:\program files (x86)\microsoft visual studio 10.0\vc\include\xmemory
;	COMDAT ?allocate@?$allocator@V?$basic_string@DU?$char_traits@D@std@@V?$allocator@D@2@@std@@@std@@QAEPAV?$basic_string@DU?$char_traits@D@std@@V?$allocator@D@2@@2@I@Z
_TEXT	SEGMENT
__Count$ = 8						; size = 4
?allocate@?$allocator@V?$basic_string@DU?$char_traits@D@std@@V?$allocator@D@2@@std@@@std@@QAEPAV?$basic_string@DU?$char_traits@D@std@@V?$allocator@D@2@@2@I@Z PROC ; std::allocator<std::basic_string<char,std::char_traits<char>,std::allocator<char> > >::allocate, COMDAT
; _this$ = ecx

; 186  : 		{	// allocate array of _Count elements

  00000	55		 push	 ebp
  00001	8b ec		 mov	 ebp, esp

; 187  : 		return (_Allocate(_Count, (pointer)0));

  00003	6a 00		 push	 0
  00005	ff 75 08	 push	 DWORD PTR __Count$[ebp]
  00008	e8 00 00 00 00	 call	 ??$_Allocate@V?$basic_string@DU?$char_traits@D@std@@V?$allocator@D@2@@std@@@std@@YAPAV?$basic_string@DU?$char_traits@D@std@@V?$allocator@D@2@@0@IPAV10@@Z ; std::_Allocate<std::basic_string<char,std::char_traits<char>,std::allocator<char> > >
  0000d	59		 pop	 ecx
  0000e	59		 pop	 ecx

; 188  : 		}

  0000f	5d		 pop	 ebp
  00010	c2 04 00	 ret	 4
?allocate@?$allocator@V?$basic_string@DU?$char_traits@D@std@@V?$allocator@D@2@@std@@@std@@QAEPAV?$basic_string@DU?$char_traits@D@std@@V?$allocator@D@2@@2@I@Z ENDP ; std::allocator<std::basic_string<char,std::char_traits<char>,std::allocator<char> > >::allocate
_TEXT	ENDS
PUBLIC	?max_size@?$vector@UStringTick@TutorialWnd@@V?$allocator@UStringTick@TutorialWnd@@@std@@@std@@QBEIXZ ; std::vector<TutorialWnd::StringTick,std::allocator<TutorialWnd::StringTick> >::max_size
; Function compile flags: /Ogsp
; File c:\program files (x86)\microsoft visual studio 10.0\vc\include\vector
;	COMDAT ?max_size@?$vector@UStringTick@TutorialWnd@@V?$allocator@UStringTick@TutorialWnd@@@std@@@std@@QBEIXZ
_TEXT	SEGMENT
?max_size@?$vector@UStringTick@TutorialWnd@@V?$allocator@UStringTick@TutorialWnd@@@std@@@std@@QBEIXZ PROC ; std::vector<TutorialWnd::StringTick,std::allocator<TutorialWnd::StringTick> >::max_size, COMDAT
; _this$ = ecx

; 884  : 		return (this->_Alval.max_size());

  00000	b8 c0 0f fc 00	 mov	 eax, 16519104		; 00fc0fc0H

; 885  : 		}

  00005	c3		 ret	 0
?max_size@?$vector@UStringTick@TutorialWnd@@V?$allocator@UStringTick@TutorialWnd@@@std@@@std@@QBEIXZ ENDP ; std::vector<TutorialWnd::StringTick,std::allocator<TutorialWnd::StringTick> >::max_size
_TEXT	ENDS
PUBLIC	?_Grow_to@?$vector@UStringTick@TutorialWnd@@V?$allocator@UStringTick@TutorialWnd@@@std@@@std@@IBEII@Z ; std::vector<TutorialWnd::StringTick,std::allocator<TutorialWnd::StringTick> >::_Grow_to
; Function compile flags: /Ogsp
;	COMDAT ?_Grow_to@?$vector@UStringTick@TutorialWnd@@V?$allocator@UStringTick@TutorialWnd@@@std@@@std@@IBEII@Z
_TEXT	SEGMENT
__Count$ = 8						; size = 4
?_Grow_to@?$vector@UStringTick@TutorialWnd@@V?$allocator@UStringTick@TutorialWnd@@@std@@@std@@IBEII@Z PROC ; std::vector<TutorialWnd::StringTick,std::allocator<TutorialWnd::StringTick> >::_Grow_to, COMDAT
; _this$ = ecx

; 1274 : 		{	// grow by 50% or at least to _Count

  00000	55		 push	 ebp
  00001	8b ec		 mov	 ebp, esp

; 1275 : 		size_type _Capacity = capacity();

  00003	8b 41 08	 mov	 eax, DWORD PTR [ecx+8]
  00006	2b 01		 sub	 eax, DWORD PTR [ecx]
  00008	b9 04 01 00 00	 mov	 ecx, 260		; 00000104H
  0000d	99		 cdq
  0000e	f7 f9		 idiv	 ecx

; 1276 : 
; 1277 : 		_Capacity = max_size() - _Capacity / 2 < _Capacity
; 1278 : 			? 0 : _Capacity + _Capacity / 2;	// try to grow by 50%

  00010	ba c0 0f fc 00	 mov	 edx, 16519104		; 00fc0fc0H
  00015	8b c8		 mov	 ecx, eax
  00017	d1 e9		 shr	 ecx, 1
  00019	2b d1		 sub	 edx, ecx
  0001b	3b d0		 cmp	 edx, eax
  0001d	73 04		 jae	 SHORT $LN4@Grow_to
  0001f	33 c0		 xor	 eax, eax
  00021	eb 02		 jmp	 SHORT $LN5@Grow_to
$LN4@Grow_to:
  00023	03 c1		 add	 eax, ecx
$LN5@Grow_to:

; 1279 : 		if (_Capacity < _Count)

  00025	3b 45 08	 cmp	 eax, DWORD PTR __Count$[ebp]

; 1280 : 			_Capacity = _Count;

  00028	0f 42 45 08	 cmovb	 eax, DWORD PTR __Count$[ebp]

; 1281 : 		return (_Capacity);
; 1282 : 		}

  0002c	5d		 pop	 ebp
  0002d	c2 04 00	 ret	 4
?_Grow_to@?$vector@UStringTick@TutorialWnd@@V?$allocator@UStringTick@TutorialWnd@@@std@@@std@@IBEII@Z ENDP ; std::vector<TutorialWnd::StringTick,std::allocator<TutorialWnd::StringTick> >::_Grow_to
_TEXT	ENDS
PUBLIC	??0?$_Vector_iterator@V?$_Vector_val@V?$basic_string@DU?$char_traits@D@std@@V?$allocator@D@2@@std@@V?$allocator@V?$basic_string@DU?$char_traits@D@std@@V?$allocator@D@2@@std@@@2@@std@@@std@@QAE@PAV?$basic_string@DU?$char_traits@D@std@@V?$allocator@D@2@@1@PBU_Container_base0@1@@Z ; std::_Vector_iterator<std::_Vector_val<std::basic_string<char,std::char_traits<char>,std::allocator<char> >,std::allocator<std::basic_string<char,std::char_traits<char>,std::allocator<char> > > > >::_Vector_iterator<std::_Vector_val<std::basic_string<char,std::char_traits<char>,std::allocator<char> >,std::allocator<std::basic_string<char,std::char_traits<char>,std::allocator<char> > > > >
; Function compile flags: /Ogsp
;	COMDAT ??0?$_Vector_iterator@V?$_Vector_val@V?$basic_string@DU?$char_traits@D@std@@V?$allocator@D@2@@std@@V?$allocator@V?$basic_string@DU?$char_traits@D@std@@V?$allocator@D@2@@std@@@2@@std@@@std@@QAE@PAV?$basic_string@DU?$char_traits@D@std@@V?$allocator@D@2@@1@PBU_Container_base0@1@@Z
_TEXT	SEGMENT
__Parg$ = 8						; size = 4
__Pvector$ = 12						; size = 4
??0?$_Vector_iterator@V?$_Vector_val@V?$basic_string@DU?$char_traits@D@std@@V?$allocator@D@2@@std@@V?$allocator@V?$basic_string@DU?$char_traits@D@std@@V?$allocator@D@2@@std@@@2@@std@@@std@@QAE@PAV?$basic_string@DU?$char_traits@D@std@@V?$allocator@D@2@@1@PBU_Container_base0@1@@Z PROC ; std::_Vector_iterator<std::_Vector_val<std::basic_string<char,std::char_traits<char>,std::allocator<char> >,std::allocator<std::basic_string<char,std::char_traits<char>,std::allocator<char> > > > >::_Vector_iterator<std::_Vector_val<std::basic_string<char,std::char_traits<char>,std::allocator<char> >,std::allocator<std::basic_string<char,std::char_traits<char>,std::allocator<char> > > > >, COMDAT
; _this$ = ecx

; 304  : 		{	// construct with pointer _Parg

  00000	55		 push	 ebp
  00001	8b ec		 mov	 ebp, esp
  00003	8b c1		 mov	 eax, ecx
  00005	8b 4d 08	 mov	 ecx, DWORD PTR __Parg$[ebp]
  00008	89 08		 mov	 DWORD PTR [eax], ecx

; 305  : 		}

  0000a	5d		 pop	 ebp
  0000b	c2 08 00	 ret	 8
??0?$_Vector_iterator@V?$_Vector_val@V?$basic_string@DU?$char_traits@D@std@@V?$allocator@D@2@@std@@V?$allocator@V?$basic_string@DU?$char_traits@D@std@@V?$allocator@D@2@@std@@@2@@std@@@std@@QAE@PAV?$basic_string@DU?$char_traits@D@std@@V?$allocator@D@2@@1@PBU_Container_base0@1@@Z ENDP ; std::_Vector_iterator<std::_Vector_val<std::basic_string<char,std::char_traits<char>,std::allocator<char> >,std::allocator<std::basic_string<char,std::char_traits<char>,std::allocator<char> > > > >::_Vector_iterator<std::_Vector_val<std::basic_string<char,std::char_traits<char>,std::allocator<char> >,std::allocator<std::basic_string<char,std::char_traits<char>,std::allocator<char> > > > >
_TEXT	ENDS
PUBLIC	??0?$_Vector_iterator@V?$_Vector_val@UStringTick@TutorialWnd@@V?$allocator@UStringTick@TutorialWnd@@@std@@@std@@@std@@QAE@PAUStringTick@TutorialWnd@@PBU_Container_base0@1@@Z ; std::_Vector_iterator<std::_Vector_val<TutorialWnd::StringTick,std::allocator<TutorialWnd::StringTick> > >::_Vector_iterator<std::_Vector_val<TutorialWnd::StringTick,std::allocator<TutorialWnd::StringTick> > >
; Function compile flags: /Ogsp
;	COMDAT ??0?$_Vector_iterator@V?$_Vector_val@UStringTick@TutorialWnd@@V?$allocator@UStringTick@TutorialWnd@@@std@@@std@@@std@@QAE@PAUStringTick@TutorialWnd@@PBU_Container_base0@1@@Z
_TEXT	SEGMENT
__Parg$ = 8						; size = 4
__Pvector$ = 12						; size = 4
??0?$_Vector_iterator@V?$_Vector_val@UStringTick@TutorialWnd@@V?$allocator@UStringTick@TutorialWnd@@@std@@@std@@@std@@QAE@PAUStringTick@TutorialWnd@@PBU_Container_base0@1@@Z PROC ; std::_Vector_iterator<std::_Vector_val<TutorialWnd::StringTick,std::allocator<TutorialWnd::StringTick> > >::_Vector_iterator<std::_Vector_val<TutorialWnd::StringTick,std::allocator<TutorialWnd::StringTick> > >, COMDAT
; _this$ = ecx

; 304  : 		{	// construct with pointer _Parg

  00000	55		 push	 ebp
  00001	8b ec		 mov	 ebp, esp
  00003	8b c1		 mov	 eax, ecx
  00005	8b 4d 08	 mov	 ecx, DWORD PTR __Parg$[ebp]
  00008	89 08		 mov	 DWORD PTR [eax], ecx

; 305  : 		}

  0000a	5d		 pop	 ebp
  0000b	c2 08 00	 ret	 8
??0?$_Vector_iterator@V?$_Vector_val@UStringTick@TutorialWnd@@V?$allocator@UStringTick@TutorialWnd@@@std@@@std@@@std@@QAE@PAUStringTick@TutorialWnd@@PBU_Container_base0@1@@Z ENDP ; std::_Vector_iterator<std::_Vector_val<TutorialWnd::StringTick,std::allocator<TutorialWnd::StringTick> > >::_Vector_iterator<std::_Vector_val<TutorialWnd::StringTick,std::allocator<TutorialWnd::StringTick> > >
_TEXT	ENDS
PUBLIC	?allocate@?$allocator@UStringTick@TutorialWnd@@@std@@QAEPAUStringTick@TutorialWnd@@I@Z ; std::allocator<TutorialWnd::StringTick>::allocate
; Function compile flags: /Ogsp
; File c:\program files (x86)\microsoft visual studio 10.0\vc\include\xmemory
;	COMDAT ?allocate@?$allocator@UStringTick@TutorialWnd@@@std@@QAEPAUStringTick@TutorialWnd@@I@Z
_TEXT	SEGMENT
__Count$ = 8						; size = 4
?allocate@?$allocator@UStringTick@TutorialWnd@@@std@@QAEPAUStringTick@TutorialWnd@@I@Z PROC ; std::allocator<TutorialWnd::StringTick>::allocate, COMDAT
; _this$ = ecx

; 186  : 		{	// allocate array of _Count elements

  00000	55		 push	 ebp
  00001	8b ec		 mov	 ebp, esp

; 187  : 		return (_Allocate(_Count, (pointer)0));

  00003	6a 00		 push	 0
  00005	ff 75 08	 push	 DWORD PTR __Count$[ebp]
  00008	e8 00 00 00 00	 call	 ??$_Allocate@UStringTick@TutorialWnd@@@std@@YAPAUStringTick@TutorialWnd@@IPAU12@@Z ; std::_Allocate<TutorialWnd::StringTick>
  0000d	59		 pop	 ecx
  0000e	59		 pop	 ecx

; 188  : 		}

  0000f	5d		 pop	 ebp
  00010	c2 04 00	 ret	 4
?allocate@?$allocator@UStringTick@TutorialWnd@@@std@@QAEPAUStringTick@TutorialWnd@@I@Z ENDP ; std::allocator<TutorialWnd::StringTick>::allocate
_TEXT	ENDS
PUBLIC	??8?$_Vector_const_iterator@V?$_Vector_val@V?$basic_string@DU?$char_traits@D@std@@V?$allocator@D@2@@std@@V?$allocator@V?$basic_string@DU?$char_traits@D@std@@V?$allocator@D@2@@std@@@2@@std@@@std@@QBE_NABV01@@Z ; std::_Vector_const_iterator<std::_Vector_val<std::basic_string<char,std::char_traits<char>,std::allocator<char> >,std::allocator<std::basic_string<char,std::char_traits<char>,std::allocator<char> > > > >::operator==
; Function compile flags: /Ogsp
; File c:\program files (x86)\microsoft visual studio 10.0\vc\include\vector
;	COMDAT ??8?$_Vector_const_iterator@V?$_Vector_val@V?$basic_string@DU?$char_traits@D@std@@V?$allocator@D@2@@std@@V?$allocator@V?$basic_string@DU?$char_traits@D@std@@V?$allocator@D@2@@std@@@2@@std@@@std@@QBE_NABV01@@Z
_TEXT	SEGMENT
__Right$ = 8						; size = 4
??8?$_Vector_const_iterator@V?$_Vector_val@V?$basic_string@DU?$char_traits@D@std@@V?$allocator@D@2@@std@@V?$allocator@V?$basic_string@DU?$char_traits@D@std@@V?$allocator@D@2@@std@@@2@@std@@@std@@QBE_NABV01@@Z PROC ; std::_Vector_const_iterator<std::_Vector_val<std::basic_string<char,std::char_traits<char>,std::allocator<char> >,std::allocator<std::basic_string<char,std::char_traits<char>,std::allocator<char> > > > >::operator==, COMDAT
; _this$ = ecx

; 201  : 		{	// test for iterator equality

  00000	55		 push	 ebp
  00001	8b ec		 mov	 ebp, esp

; 202  : 		_Compat(_Right);
; 203  : 		return (this->_Ptr == _Right._Ptr);

  00003	8b 01		 mov	 eax, DWORD PTR [ecx]
  00005	8b 4d 08	 mov	 ecx, DWORD PTR __Right$[ebp]
  00008	2b 01		 sub	 eax, DWORD PTR [ecx]
  0000a	f7 d8		 neg	 eax
  0000c	1b c0		 sbb	 eax, eax
  0000e	40		 inc	 eax

; 204  : 		}

  0000f	5d		 pop	 ebp
  00010	c2 04 00	 ret	 4
??8?$_Vector_const_iterator@V?$_Vector_val@V?$basic_string@DU?$char_traits@D@std@@V?$allocator@D@2@@std@@V?$allocator@V?$basic_string@DU?$char_traits@D@std@@V?$allocator@D@2@@std@@@2@@std@@@std@@QBE_NABV01@@Z ENDP ; std::_Vector_const_iterator<std::_Vector_val<std::basic_string<char,std::char_traits<char>,std::allocator<char> >,std::allocator<std::basic_string<char,std::char_traits<char>,std::allocator<char> > > > >::operator==
_TEXT	ENDS
PUBLIC	??8?$_Vector_const_iterator@V?$_Vector_val@UStringTick@TutorialWnd@@V?$allocator@UStringTick@TutorialWnd@@@std@@@std@@@std@@QBE_NABV01@@Z ; std::_Vector_const_iterator<std::_Vector_val<TutorialWnd::StringTick,std::allocator<TutorialWnd::StringTick> > >::operator==
; Function compile flags: /Ogsp
;	COMDAT ??8?$_Vector_const_iterator@V?$_Vector_val@UStringTick@TutorialWnd@@V?$allocator@UStringTick@TutorialWnd@@@std@@@std@@@std@@QBE_NABV01@@Z
_TEXT	SEGMENT
__Right$ = 8						; size = 4
??8?$_Vector_const_iterator@V?$_Vector_val@UStringTick@TutorialWnd@@V?$allocator@UStringTick@TutorialWnd@@@std@@@std@@@std@@QBE_NABV01@@Z PROC ; std::_Vector_const_iterator<std::_Vector_val<TutorialWnd::StringTick,std::allocator<TutorialWnd::StringTick> > >::operator==, COMDAT
; _this$ = ecx

; 201  : 		{	// test for iterator equality

  00000	55		 push	 ebp
  00001	8b ec		 mov	 ebp, esp

; 202  : 		_Compat(_Right);
; 203  : 		return (this->_Ptr == _Right._Ptr);

  00003	8b 01		 mov	 eax, DWORD PTR [ecx]
  00005	8b 4d 08	 mov	 ecx, DWORD PTR __Right$[ebp]
  00008	2b 01		 sub	 eax, DWORD PTR [ecx]
  0000a	f7 d8		 neg	 eax
  0000c	1b c0		 sbb	 eax, eax
  0000e	40		 inc	 eax

; 204  : 		}

  0000f	5d		 pop	 ebp
  00010	c2 04 00	 ret	 4
??8?$_Vector_const_iterator@V?$_Vector_val@UStringTick@TutorialWnd@@V?$allocator@UStringTick@TutorialWnd@@@std@@@std@@@std@@QBE_NABV01@@Z ENDP ; std::_Vector_const_iterator<std::_Vector_val<TutorialWnd::StringTick,std::allocator<TutorialWnd::StringTick> > >::operator==
_TEXT	ENDS
PUBLIC	__$ArrayPad$
PUBLIC	??$GetIntAttribute_e@$0L@@ioXMLElement@@QBEHAAY0L@$$CBD@Z ; ioXMLElement::GetIntAttribute_e<11>
EXTRN	__imp_?GetIntAttribute@ioXMLElement@@QBEHPBD@Z:PROC
EXTRN	___security_cookie:DWORD
; Function compile flags: /Ogsp
; File d:\lost saga for developer\youtube\tutorial\source\src\io3dengine\ioxmlelement.h
;	COMDAT ??$GetIntAttribute_e@$0L@@ioXMLElement@@QBEHAAY0L@$$CBD@Z
_TEXT	SEGMENT
__k$ = -20						; size = 11
__$ArrayPad$ = -4					; size = 4
_k$ = 8							; size = 4
??$GetIntAttribute_e@$0L@@ioXMLElement@@QBEHAAY0L@$$CBD@Z PROC ; ioXMLElement::GetIntAttribute_e<11>, COMDAT
; _this$ = ecx

; 86   : 	{

  00000	55		 push	 ebp
  00001	8b ec		 mov	 ebp, esp
  00003	83 ec 14	 sub	 esp, 20			; 00000014H
  00006	a1 00 00 00 00	 mov	 eax, DWORD PTR ___security_cookie
  0000b	33 c5		 xor	 eax, ebp
  0000d	89 45 fc	 mov	 DWORD PTR __$ArrayPad$[ebp], eax
  00010	8b 45 08	 mov	 eax, DWORD PTR _k$[ebp]

; 87   : 		_ENCSTR(k, _k);

  00013	8a 10		 mov	 dl, BYTE PTR [eax]
  00015	56		 push	 esi
  00016	8b f1		 mov	 esi, ecx
  00018	84 d2		 test	 dl, dl
  0001a	0f 84 24 01 00
	00		 je	 $LN96@GetIntAttr
  00020	80 f2 ed	 xor	 dl, -19			; ffffffedH
  00023	88 55 ec	 mov	 BYTE PTR __k$[ebp], dl
  00026	8a 50 01	 mov	 dl, BYTE PTR [eax+1]
  00029	84 d2		 test	 dl, dl
  0002b	0f 84 0d 01 00
	00		 je	 $LN95@GetIntAttr
  00031	80 f2 ec	 xor	 dl, -20			; ffffffecH
  00034	88 55 ed	 mov	 BYTE PTR __k$[ebp+1], dl
  00037	8a 50 02	 mov	 dl, BYTE PTR [eax+2]
  0003a	84 d2		 test	 dl, dl
  0003c	0f 84 f6 00 00
	00		 je	 $LN94@GetIntAttr
  00042	80 f2 eb	 xor	 dl, -21			; ffffffebH
  00045	88 55 ee	 mov	 BYTE PTR __k$[ebp+2], dl
  00048	8a 50 03	 mov	 dl, BYTE PTR [eax+3]
  0004b	84 d2		 test	 dl, dl
  0004d	0f 84 df 00 00
	00		 je	 $LN93@GetIntAttr
  00053	80 f2 ea	 xor	 dl, -22			; ffffffeaH
  00056	88 55 ef	 mov	 BYTE PTR __k$[ebp+3], dl
  00059	8a 50 04	 mov	 dl, BYTE PTR [eax+4]
  0005c	84 d2		 test	 dl, dl
  0005e	0f 84 c8 00 00
	00		 je	 $LN92@GetIntAttr
  00064	80 f2 ed	 xor	 dl, -19			; ffffffedH
  00067	88 55 f0	 mov	 BYTE PTR __k$[ebp+4], dl
  0006a	8a 50 05	 mov	 dl, BYTE PTR [eax+5]
  0006d	84 d2		 test	 dl, dl
  0006f	0f 84 b1 00 00
	00		 je	 $LN91@GetIntAttr
  00075	80 f2 ec	 xor	 dl, -20			; ffffffecH
  00078	88 55 f1	 mov	 BYTE PTR __k$[ebp+5], dl
  0007b	8a 50 06	 mov	 dl, BYTE PTR [eax+6]
  0007e	84 d2		 test	 dl, dl
  00080	0f 84 9a 00 00
	00		 je	 $LN90@GetIntAttr
  00086	80 f2 eb	 xor	 dl, -21			; ffffffebH
  00089	88 55 f2	 mov	 BYTE PTR __k$[ebp+6], dl
  0008c	8a 50 07	 mov	 dl, BYTE PTR [eax+7]
  0008f	84 d2		 test	 dl, dl
  00091	0f 84 83 00 00
	00		 je	 $LN89@GetIntAttr
  00097	80 f2 ea	 xor	 dl, -22			; ffffffeaH
  0009a	88 55 f3	 mov	 BYTE PTR __k$[ebp+7], dl
  0009d	8a 50 08	 mov	 dl, BYTE PTR [eax+8]
  000a0	84 d2		 test	 dl, dl
  000a2	74 70		 je	 SHORT $LN88@GetIntAttr
  000a4	80 f2 ed	 xor	 dl, -19			; ffffffedH
  000a7	88 55 f4	 mov	 BYTE PTR __k$[ebp+8], dl
  000aa	8a 50 09	 mov	 dl, BYTE PTR [eax+9]
  000ad	84 d2		 test	 dl, dl
  000af	74 5d		 je	 SHORT $LN87@GetIntAttr
  000b1	80 f2 ec	 xor	 dl, -20			; ffffffecH
  000b4	80 78 0a 00	 cmp	 BYTE PTR [eax+10], 0
  000b8	88 55 f5	 mov	 BYTE PTR __k$[ebp+9], dl
  000bb	0f 84 87 00 00
	00		 je	 $LN1@GetIntAttr
  000c1	8a 50 0b	 mov	 dl, BYTE PTR [eax+11]
  000c4	84 d2		 test	 dl, dl
  000c6	74 40		 je	 SHORT $LN85@GetIntAttr
  000c8	80 f2 ea	 xor	 dl, -22			; ffffffeaH
  000cb	88 55 f7	 mov	 BYTE PTR __k$[ebp+11], dl
  000ce	8a 50 0c	 mov	 dl, BYTE PTR [eax+12]
  000d1	84 d2		 test	 dl, dl
  000d3	74 2d		 je	 SHORT $LN84@GetIntAttr
  000d5	80 f2 ed	 xor	 dl, -19			; ffffffedH
  000d8	88 55 f8	 mov	 BYTE PTR __k$[ebp+12], dl
  000db	8a 50 0d	 mov	 dl, BYTE PTR [eax+13]
  000de	84 d2		 test	 dl, dl
  000e0	74 1a		 je	 SHORT $LN83@GetIntAttr
  000e2	8a 40 0e	 mov	 al, BYTE PTR [eax+14]
  000e5	80 f2 ec	 xor	 dl, -20			; ffffffecH
  000e8	88 55 f9	 mov	 BYTE PTR __k$[ebp+13], dl
  000eb	84 c0		 test	 al, al
  000ed	74 07		 je	 SHORT $LN82@GetIntAttr
  000ef	34 eb		 xor	 al, -21			; ffffffebH
  000f1	88 45 fa	 mov	 BYTE PTR __k$[ebp+14], al
  000f4	eb 52		 jmp	 SHORT $LN1@GetIntAttr
$LN82@GetIntAttr:
  000f6	c6 45 fa eb	 mov	 BYTE PTR __k$[ebp+14], -21 ; ffffffebH
  000fa	eb 4c		 jmp	 SHORT $LN1@GetIntAttr
$LN83@GetIntAttr:
  000fc	c6 45 f9 ec	 mov	 BYTE PTR __k$[ebp+13], -20 ; ffffffecH
  00100	eb 46		 jmp	 SHORT $LN1@GetIntAttr
$LN84@GetIntAttr:
  00102	c6 45 f8 ed	 mov	 BYTE PTR __k$[ebp+12], -19 ; ffffffedH
  00106	eb 40		 jmp	 SHORT $LN1@GetIntAttr
$LN85@GetIntAttr:
  00108	c6 45 f7 ea	 mov	 BYTE PTR __k$[ebp+11], -22 ; ffffffeaH
  0010c	eb 3a		 jmp	 SHORT $LN1@GetIntAttr
$LN87@GetIntAttr:
  0010e	c6 45 f5 ec	 mov	 BYTE PTR __k$[ebp+9], -20 ; ffffffecH
  00112	eb 34		 jmp	 SHORT $LN1@GetIntAttr
$LN88@GetIntAttr:
  00114	c6 45 f4 ed	 mov	 BYTE PTR __k$[ebp+8], -19 ; ffffffedH
  00118	eb 2e		 jmp	 SHORT $LN1@GetIntAttr
$LN89@GetIntAttr:
  0011a	c6 45 f3 ea	 mov	 BYTE PTR __k$[ebp+7], -22 ; ffffffeaH
  0011e	eb 28		 jmp	 SHORT $LN1@GetIntAttr
$LN90@GetIntAttr:
  00120	c6 45 f2 eb	 mov	 BYTE PTR __k$[ebp+6], -21 ; ffffffebH
  00124	eb 22		 jmp	 SHORT $LN1@GetIntAttr
$LN91@GetIntAttr:
  00126	c6 45 f1 ec	 mov	 BYTE PTR __k$[ebp+5], -20 ; ffffffecH
  0012a	eb 1c		 jmp	 SHORT $LN1@GetIntAttr
$LN92@GetIntAttr:
  0012c	c6 45 f0 ed	 mov	 BYTE PTR __k$[ebp+4], -19 ; ffffffedH
  00130	eb 16		 jmp	 SHORT $LN1@GetIntAttr
$LN93@GetIntAttr:
  00132	c6 45 ef ea	 mov	 BYTE PTR __k$[ebp+3], -22 ; ffffffeaH
  00136	eb 10		 jmp	 SHORT $LN1@GetIntAttr
$LN94@GetIntAttr:
  00138	c6 45 ee eb	 mov	 BYTE PTR __k$[ebp+2], -21 ; ffffffebH
  0013c	eb 0a		 jmp	 SHORT $LN1@GetIntAttr
$LN95@GetIntAttr:
  0013e	c6 45 ed ec	 mov	 BYTE PTR __k$[ebp+1], -20 ; ffffffecH
  00142	eb 04		 jmp	 SHORT $LN1@GetIntAttr
$LN96@GetIntAttr:
  00144	c6 45 ec ed	 mov	 BYTE PTR __k$[ebp], -19	; ffffffedH
$LN1@GetIntAttr:
  00148	6a 02		 push	 2
  0014a	8d 45 ec	 lea	 eax, DWORD PTR __k$[ebp]
  0014d	c6 45 f6 00	 mov	 BYTE PTR __k$[ebp+10], 0
  00151	5a		 pop	 edx
$LL104@GetIntAttr:
  00152	81 30 ed ec eb
	ea		 xor	 DWORD PTR [eax], -353637139 ; eaebecedH
  00158	83 c0 04	 add	 eax, 4
  0015b	4a		 dec	 edx
  0015c	75 f4		 jne	 SHORT $LL104@GetIntAttr
  0015e	6a 08		 push	 8
  00160	58		 pop	 eax
$LL101@GetIntAttr:
  00161	8b c8		 mov	 ecx, eax
  00163	81 e1 03 00 00
	80		 and	 ecx, -2147483645	; 80000003H
  00169	79 05		 jns	 SHORT $LN111@GetIntAttr
  0016b	49		 dec	 ecx
  0016c	83 c9 fc	 or	 ecx, -4			; fffffffcH
  0016f	41		 inc	 ecx
$LN111@GetIntAttr:
  00170	b2 ed		 mov	 dl, -19			; ffffffedH
  00172	2a d1		 sub	 dl, cl
  00174	30 54 05 ec	 xor	 BYTE PTR __k$[ebp+eax], dl
  00178	40		 inc	 eax
  00179	83 f8 0a	 cmp	 eax, 10			; 0000000aH
  0017c	7c e3		 jl	 SHORT $LL101@GetIntAttr

; 88   : 		return GetIntAttribute(_k);

  0017e	8d 45 ec	 lea	 eax, DWORD PTR __k$[ebp]
  00181	50		 push	 eax
  00182	8b ce		 mov	 ecx, esi
  00184	ff 15 00 00 00
	00		 call	 DWORD PTR __imp_?GetIntAttribute@ioXMLElement@@QBEHPBD@Z

; 89   : 	}

  0018a	8b 4d fc	 mov	 ecx, DWORD PTR __$ArrayPad$[ebp]
  0018d	33 cd		 xor	 ecx, ebp
  0018f	5e		 pop	 esi
  00190	e8 00 00 00 00	 call	 @__security_check_cookie@4
  00195	c9		 leave
  00196	c2 04 00	 ret	 4
??$GetIntAttribute_e@$0L@@ioXMLElement@@QBEHAAY0L@$$CBD@Z ENDP ; ioXMLElement::GetIntAttribute_e<11>
_TEXT	ENDS
PUBLIC	__$ArrayPad$
PUBLIC	??$GetIntAttribute_e@$0N@@ioXMLElement@@QBEHAAY0N@$$CBD@Z ; ioXMLElement::GetIntAttribute_e<13>
; Function compile flags: /Ogsp
;	COMDAT ??$GetIntAttribute_e@$0N@@ioXMLElement@@QBEHAAY0N@$$CBD@Z
_TEXT	SEGMENT
__k$ = -24						; size = 13
__$ArrayPad$ = -4					; size = 4
_k$ = 8							; size = 4
??$GetIntAttribute_e@$0N@@ioXMLElement@@QBEHAAY0N@$$CBD@Z PROC ; ioXMLElement::GetIntAttribute_e<13>, COMDAT
; _this$ = ecx

; 86   : 	{

  00000	55		 push	 ebp
  00001	8b ec		 mov	 ebp, esp
  00003	83 ec 18	 sub	 esp, 24			; 00000018H
  00006	a1 00 00 00 00	 mov	 eax, DWORD PTR ___security_cookie
  0000b	33 c5		 xor	 eax, ebp
  0000d	89 45 fc	 mov	 DWORD PTR __$ArrayPad$[ebp], eax
  00010	8b 45 08	 mov	 eax, DWORD PTR _k$[ebp]

; 87   : 		_ENCSTR(k, _k);

  00013	8a 10		 mov	 dl, BYTE PTR [eax]
  00015	56		 push	 esi
  00016	8b f1		 mov	 esi, ecx
  00018	84 d2		 test	 dl, dl
  0001a	0f 84 4d 01 00
	00		 je	 $LN96@GetIntAttr@2
  00020	80 f2 ed	 xor	 dl, -19			; ffffffedH
  00023	88 55 e8	 mov	 BYTE PTR __k$[ebp], dl
  00026	8a 50 01	 mov	 dl, BYTE PTR [eax+1]
  00029	84 d2		 test	 dl, dl
  0002b	0f 84 36 01 00
	00		 je	 $LN95@GetIntAttr@2
  00031	b1 ec		 mov	 cl, -20			; ffffffecH
  00033	32 d1		 xor	 dl, cl
  00035	88 55 e9	 mov	 BYTE PTR __k$[ebp+1], dl
  00038	8a 50 02	 mov	 dl, BYTE PTR [eax+2]
  0003b	84 d2		 test	 dl, dl
  0003d	0f 84 1e 01 00
	00		 je	 $LN94@GetIntAttr@2
  00043	80 f2 eb	 xor	 dl, -21			; ffffffebH
  00046	88 55 ea	 mov	 BYTE PTR __k$[ebp+2], dl
  00049	8a 50 03	 mov	 dl, BYTE PTR [eax+3]
  0004c	84 d2		 test	 dl, dl
  0004e	0f 84 07 01 00
	00		 je	 $LN93@GetIntAttr@2
  00054	80 f2 ea	 xor	 dl, -22			; ffffffeaH
  00057	88 55 eb	 mov	 BYTE PTR __k$[ebp+3], dl
  0005a	8a 50 04	 mov	 dl, BYTE PTR [eax+4]
  0005d	84 d2		 test	 dl, dl
  0005f	0f 84 f0 00 00
	00		 je	 $LN92@GetIntAttr@2
  00065	80 f2 ed	 xor	 dl, -19			; ffffffedH
  00068	88 55 ec	 mov	 BYTE PTR __k$[ebp+4], dl
  0006b	8a 50 05	 mov	 dl, BYTE PTR [eax+5]
  0006e	84 d2		 test	 dl, dl
  00070	0f 84 da 00 00
	00		 je	 $LN91@GetIntAttr@2
  00076	32 d1		 xor	 dl, cl
  00078	88 55 ed	 mov	 BYTE PTR __k$[ebp+5], dl
  0007b	8a 50 06	 mov	 dl, BYTE PTR [eax+6]
  0007e	84 d2		 test	 dl, dl
  00080	0f 84 c4 00 00
	00		 je	 $LN90@GetIntAttr@2
  00086	80 f2 eb	 xor	 dl, -21			; ffffffebH
  00089	88 55 ee	 mov	 BYTE PTR __k$[ebp+6], dl
  0008c	8a 50 07	 mov	 dl, BYTE PTR [eax+7]
  0008f	84 d2		 test	 dl, dl
  00091	0f 84 ad 00 00
	00		 je	 $LN89@GetIntAttr@2
  00097	80 f2 ea	 xor	 dl, -22			; ffffffeaH
  0009a	88 55 ef	 mov	 BYTE PTR __k$[ebp+7], dl
  0009d	8a 50 08	 mov	 dl, BYTE PTR [eax+8]
  000a0	84 d2		 test	 dl, dl
  000a2	0f 84 96 00 00
	00		 je	 $LN88@GetIntAttr@2
  000a8	80 f2 ed	 xor	 dl, -19			; ffffffedH
  000ab	88 55 f0	 mov	 BYTE PTR __k$[ebp+8], dl
  000ae	8a 50 09	 mov	 dl, BYTE PTR [eax+9]
  000b1	84 d2		 test	 dl, dl
  000b3	0f 84 80 00 00
	00		 je	 $LN87@GetIntAttr@2
  000b9	32 d1		 xor	 dl, cl
  000bb	88 55 f1	 mov	 BYTE PTR __k$[ebp+9], dl
  000be	8a 50 0a	 mov	 dl, BYTE PTR [eax+10]
  000c1	84 d2		 test	 dl, dl
  000c3	74 6e		 je	 SHORT $LN86@GetIntAttr@2
  000c5	80 f2 eb	 xor	 dl, -21			; ffffffebH
  000c8	88 55 f2	 mov	 BYTE PTR __k$[ebp+10], dl
  000cb	8a 50 0b	 mov	 dl, BYTE PTR [eax+11]
  000ce	84 d2		 test	 dl, dl
  000d0	74 5b		 je	 SHORT $LN85@GetIntAttr@2
  000d2	80 f2 ea	 xor	 dl, -22			; ffffffeaH
  000d5	80 78 0c 00	 cmp	 BYTE PTR [eax+12], 0
  000d9	88 55 f3	 mov	 BYTE PTR __k$[ebp+11], dl
  000dc	0f 84 8f 00 00
	00		 je	 $LN1@GetIntAttr@2
  000e2	8a 50 0d	 mov	 dl, BYTE PTR [eax+13]
  000e5	84 d2		 test	 dl, dl
  000e7	74 3f		 je	 SHORT $LN83@GetIntAttr@2
  000e9	32 d1		 xor	 dl, cl
  000eb	88 55 f5	 mov	 BYTE PTR __k$[ebp+13], dl
  000ee	8a 50 0e	 mov	 dl, BYTE PTR [eax+14]
  000f1	84 d2		 test	 dl, dl
  000f3	74 2d		 je	 SHORT $LN82@GetIntAttr@2
  000f5	80 f2 eb	 xor	 dl, -21			; ffffffebH
  000f8	88 55 f6	 mov	 BYTE PTR __k$[ebp+14], dl
  000fb	8a 50 0f	 mov	 dl, BYTE PTR [eax+15]
  000fe	84 d2		 test	 dl, dl
  00100	74 1a		 je	 SHORT $LN81@GetIntAttr@2
  00102	8a 40 10	 mov	 al, BYTE PTR [eax+16]
  00105	80 f2 ea	 xor	 dl, -22			; ffffffeaH
  00108	88 55 f7	 mov	 BYTE PTR __k$[ebp+15], dl
  0010b	84 c0		 test	 al, al
  0010d	74 07		 je	 SHORT $LN80@GetIntAttr@2
  0010f	34 ed		 xor	 al, -19			; ffffffedH
  00111	88 45 f8	 mov	 BYTE PTR __k$[ebp+16], al
  00114	eb 5b		 jmp	 SHORT $LN1@GetIntAttr@2
$LN80@GetIntAttr@2:
  00116	c6 45 f8 ed	 mov	 BYTE PTR __k$[ebp+16], -19 ; ffffffedH
  0011a	eb 55		 jmp	 SHORT $LN1@GetIntAttr@2
$LN81@GetIntAttr@2:
  0011c	c6 45 f7 ea	 mov	 BYTE PTR __k$[ebp+15], -22 ; ffffffeaH
  00120	eb 4f		 jmp	 SHORT $LN1@GetIntAttr@2
$LN82@GetIntAttr@2:
  00122	c6 45 f6 eb	 mov	 BYTE PTR __k$[ebp+14], -21 ; ffffffebH
  00126	eb 49		 jmp	 SHORT $LN1@GetIntAttr@2
$LN83@GetIntAttr@2:
  00128	88 4d f5	 mov	 BYTE PTR __k$[ebp+13], cl
  0012b	eb 44		 jmp	 SHORT $LN1@GetIntAttr@2
$LN85@GetIntAttr@2:
  0012d	c6 45 f3 ea	 mov	 BYTE PTR __k$[ebp+11], -22 ; ffffffeaH
  00131	eb 3e		 jmp	 SHORT $LN1@GetIntAttr@2
$LN86@GetIntAttr@2:
  00133	c6 45 f2 eb	 mov	 BYTE PTR __k$[ebp+10], -21 ; ffffffebH
  00137	eb 38		 jmp	 SHORT $LN1@GetIntAttr@2
$LN87@GetIntAttr@2:
  00139	88 4d f1	 mov	 BYTE PTR __k$[ebp+9], cl
  0013c	eb 33		 jmp	 SHORT $LN1@GetIntAttr@2
$LN88@GetIntAttr@2:
  0013e	c6 45 f0 ed	 mov	 BYTE PTR __k$[ebp+8], -19 ; ffffffedH
  00142	eb 2d		 jmp	 SHORT $LN1@GetIntAttr@2
$LN89@GetIntAttr@2:
  00144	c6 45 ef ea	 mov	 BYTE PTR __k$[ebp+7], -22 ; ffffffeaH
  00148	eb 27		 jmp	 SHORT $LN1@GetIntAttr@2
$LN90@GetIntAttr@2:
  0014a	c6 45 ee eb	 mov	 BYTE PTR __k$[ebp+6], -21 ; ffffffebH
  0014e	eb 21		 jmp	 SHORT $LN1@GetIntAttr@2
$LN91@GetIntAttr@2:
  00150	88 4d ed	 mov	 BYTE PTR __k$[ebp+5], cl
  00153	eb 1c		 jmp	 SHORT $LN1@GetIntAttr@2
$LN92@GetIntAttr@2:
  00155	c6 45 ec ed	 mov	 BYTE PTR __k$[ebp+4], -19 ; ffffffedH
  00159	eb 16		 jmp	 SHORT $LN1@GetIntAttr@2
$LN93@GetIntAttr@2:
  0015b	c6 45 eb ea	 mov	 BYTE PTR __k$[ebp+3], -22 ; ffffffeaH
  0015f	eb 10		 jmp	 SHORT $LN1@GetIntAttr@2
$LN94@GetIntAttr@2:
  00161	c6 45 ea eb	 mov	 BYTE PTR __k$[ebp+2], -21 ; ffffffebH
  00165	eb 0a		 jmp	 SHORT $LN1@GetIntAttr@2
$LN95@GetIntAttr@2:
  00167	c6 45 e9 ec	 mov	 BYTE PTR __k$[ebp+1], -20 ; ffffffecH
  0016b	eb 04		 jmp	 SHORT $LN1@GetIntAttr@2
$LN96@GetIntAttr@2:
  0016d	c6 45 e8 ed	 mov	 BYTE PTR __k$[ebp], -19	; ffffffedH
$LN1@GetIntAttr@2:
  00171	6a 03		 push	 3
  00173	8d 45 e8	 lea	 eax, DWORD PTR __k$[ebp]
  00176	c6 45 f4 00	 mov	 BYTE PTR __k$[ebp+12], 0
  0017a	5a		 pop	 edx
$LL104@GetIntAttr@2:
  0017b	81 30 ed ec eb
	ea		 xor	 DWORD PTR [eax], -353637139 ; eaebecedH
  00181	83 c0 04	 add	 eax, 4
  00184	4a		 dec	 edx
  00185	75 f4		 jne	 SHORT $LL104@GetIntAttr@2

; 88   : 		return GetIntAttribute(_k);

  00187	8d 45 e8	 lea	 eax, DWORD PTR __k$[ebp]
  0018a	50		 push	 eax
  0018b	8b ce		 mov	 ecx, esi
  0018d	ff 15 00 00 00
	00		 call	 DWORD PTR __imp_?GetIntAttribute@ioXMLElement@@QBEHPBD@Z

; 89   : 	}

  00193	8b 4d fc	 mov	 ecx, DWORD PTR __$ArrayPad$[ebp]
  00196	33 cd		 xor	 ecx, ebp
  00198	5e		 pop	 esi
  00199	e8 00 00 00 00	 call	 @__security_check_cookie@4
  0019e	c9		 leave
  0019f	c2 04 00	 ret	 4
??$GetIntAttribute_e@$0N@@ioXMLElement@@QBEHAAY0N@$$CBD@Z ENDP ; ioXMLElement::GetIntAttribute_e<13>
_TEXT	ENDS
PUBLIC	__$ArrayPad$
PUBLIC	??$GetStringAttribute_e@$0M@@ioXMLElement@@QBEPBDAAY0M@$$CBD@Z ; ioXMLElement::GetStringAttribute_e<12>
EXTRN	__imp_?GetStringAttribute@ioXMLElement@@QBEPBDPBD@Z:PROC
; Function compile flags: /Ogsp
;	COMDAT ??$GetStringAttribute_e@$0M@@ioXMLElement@@QBEPBDAAY0M@$$CBD@Z
_TEXT	SEGMENT
__k$ = -20						; size = 12
__$ArrayPad$ = -4					; size = 4
_k$ = 8							; size = 4
??$GetStringAttribute_e@$0M@@ioXMLElement@@QBEPBDAAY0M@$$CBD@Z PROC ; ioXMLElement::GetStringAttribute_e<12>, COMDAT
; _this$ = ecx

; 107  : 	{

  00000	55		 push	 ebp
  00001	8b ec		 mov	 ebp, esp
  00003	83 ec 14	 sub	 esp, 20			; 00000014H
  00006	a1 00 00 00 00	 mov	 eax, DWORD PTR ___security_cookie
  0000b	33 c5		 xor	 eax, ebp
  0000d	89 45 fc	 mov	 DWORD PTR __$ArrayPad$[ebp], eax
  00010	8b 45 08	 mov	 eax, DWORD PTR _k$[ebp]

; 108  : 		_ENCSTR(k, _k);

  00013	8a 10		 mov	 dl, BYTE PTR [eax]
  00015	56		 push	 esi
  00016	8b f1		 mov	 esi, ecx
  00018	84 d2		 test	 dl, dl
  0001a	0f 84 32 01 00
	00		 je	 $LN96@GetStringA
  00020	80 f2 ed	 xor	 dl, -19			; ffffffedH
  00023	88 55 ec	 mov	 BYTE PTR __k$[ebp], dl
  00026	8a 50 01	 mov	 dl, BYTE PTR [eax+1]
  00029	84 d2		 test	 dl, dl
  0002b	0f 84 1b 01 00
	00		 je	 $LN95@GetStringA
  00031	80 f2 ec	 xor	 dl, -20			; ffffffecH
  00034	88 55 ed	 mov	 BYTE PTR __k$[ebp+1], dl
  00037	8a 50 02	 mov	 dl, BYTE PTR [eax+2]
  0003a	84 d2		 test	 dl, dl
  0003c	0f 84 04 01 00
	00		 je	 $LN94@GetStringA
  00042	b1 eb		 mov	 cl, -21			; ffffffebH
  00044	32 d1		 xor	 dl, cl
  00046	88 55 ee	 mov	 BYTE PTR __k$[ebp+2], dl
  00049	8a 50 03	 mov	 dl, BYTE PTR [eax+3]
  0004c	84 d2		 test	 dl, dl
  0004e	0f 84 ec 00 00
	00		 je	 $LN93@GetStringA
  00054	80 f2 ea	 xor	 dl, -22			; ffffffeaH
  00057	88 55 ef	 mov	 BYTE PTR __k$[ebp+3], dl
  0005a	8a 50 04	 mov	 dl, BYTE PTR [eax+4]
  0005d	84 d2		 test	 dl, dl
  0005f	0f 84 d5 00 00
	00		 je	 $LN92@GetStringA
  00065	80 f2 ed	 xor	 dl, -19			; ffffffedH
  00068	88 55 f0	 mov	 BYTE PTR __k$[ebp+4], dl
  0006b	8a 50 05	 mov	 dl, BYTE PTR [eax+5]
  0006e	84 d2		 test	 dl, dl
  00070	0f 84 be 00 00
	00		 je	 $LN91@GetStringA
  00076	80 f2 ec	 xor	 dl, -20			; ffffffecH
  00079	88 55 f1	 mov	 BYTE PTR __k$[ebp+5], dl
  0007c	8a 50 06	 mov	 dl, BYTE PTR [eax+6]
  0007f	84 d2		 test	 dl, dl
  00081	0f 84 a8 00 00
	00		 je	 $LN90@GetStringA
  00087	32 d1		 xor	 dl, cl
  00089	88 55 f2	 mov	 BYTE PTR __k$[ebp+6], dl
  0008c	8a 50 07	 mov	 dl, BYTE PTR [eax+7]
  0008f	84 d2		 test	 dl, dl
  00091	0f 84 92 00 00
	00		 je	 $LN89@GetStringA
  00097	80 f2 ea	 xor	 dl, -22			; ffffffeaH
  0009a	88 55 f3	 mov	 BYTE PTR __k$[ebp+7], dl
  0009d	8a 50 08	 mov	 dl, BYTE PTR [eax+8]
  000a0	84 d2		 test	 dl, dl
  000a2	74 7f		 je	 SHORT $LN88@GetStringA
  000a4	80 f2 ed	 xor	 dl, -19			; ffffffedH
  000a7	88 55 f4	 mov	 BYTE PTR __k$[ebp+8], dl
  000aa	8a 50 09	 mov	 dl, BYTE PTR [eax+9]
  000ad	84 d2		 test	 dl, dl
  000af	74 6c		 je	 SHORT $LN87@GetStringA
  000b1	80 f2 ec	 xor	 dl, -20			; ffffffecH
  000b4	88 55 f5	 mov	 BYTE PTR __k$[ebp+9], dl
  000b7	8a 50 0a	 mov	 dl, BYTE PTR [eax+10]
  000ba	84 d2		 test	 dl, dl
  000bc	74 5a		 je	 SHORT $LN86@GetStringA
  000be	32 d1		 xor	 dl, cl
  000c0	80 78 0b 00	 cmp	 BYTE PTR [eax+11], 0
  000c4	88 55 f6	 mov	 BYTE PTR __k$[ebp+10], dl
  000c7	0f 84 89 00 00
	00		 je	 $LN1@GetStringA
  000cd	8a 50 0c	 mov	 dl, BYTE PTR [eax+12]
  000d0	84 d2		 test	 dl, dl
  000d2	74 3e		 je	 SHORT $LN84@GetStringA
  000d4	80 f2 ed	 xor	 dl, -19			; ffffffedH
  000d7	88 55 f8	 mov	 BYTE PTR __k$[ebp+12], dl
  000da	8a 50 0d	 mov	 dl, BYTE PTR [eax+13]
  000dd	84 d2		 test	 dl, dl
  000df	74 2b		 je	 SHORT $LN83@GetStringA
  000e1	80 f2 ec	 xor	 dl, -20			; ffffffecH
  000e4	88 55 f9	 mov	 BYTE PTR __k$[ebp+13], dl
  000e7	8a 50 0e	 mov	 dl, BYTE PTR [eax+14]
  000ea	84 d2		 test	 dl, dl
  000ec	74 19		 je	 SHORT $LN82@GetStringA
  000ee	8a 40 0f	 mov	 al, BYTE PTR [eax+15]
  000f1	32 d1		 xor	 dl, cl
  000f3	88 55 fa	 mov	 BYTE PTR __k$[ebp+14], dl
  000f6	84 c0		 test	 al, al
  000f8	74 07		 je	 SHORT $LN81@GetStringA
  000fa	34 ea		 xor	 al, -22			; ffffffeaH
  000fc	88 45 fb	 mov	 BYTE PTR __k$[ebp+15], al
  000ff	eb 55		 jmp	 SHORT $LN1@GetStringA
$LN81@GetStringA:
  00101	c6 45 fb ea	 mov	 BYTE PTR __k$[ebp+15], -22 ; ffffffeaH
  00105	eb 4f		 jmp	 SHORT $LN1@GetStringA
$LN82@GetStringA:
  00107	88 4d fa	 mov	 BYTE PTR __k$[ebp+14], cl
  0010a	eb 4a		 jmp	 SHORT $LN1@GetStringA
$LN83@GetStringA:
  0010c	c6 45 f9 ec	 mov	 BYTE PTR __k$[ebp+13], -20 ; ffffffecH
  00110	eb 44		 jmp	 SHORT $LN1@GetStringA
$LN84@GetStringA:
  00112	c6 45 f8 ed	 mov	 BYTE PTR __k$[ebp+12], -19 ; ffffffedH
  00116	eb 3e		 jmp	 SHORT $LN1@GetStringA
$LN86@GetStringA:
  00118	88 4d f6	 mov	 BYTE PTR __k$[ebp+10], cl
  0011b	eb 39		 jmp	 SHORT $LN1@GetStringA
$LN87@GetStringA:
  0011d	c6 45 f5 ec	 mov	 BYTE PTR __k$[ebp+9], -20 ; ffffffecH
  00121	eb 33		 jmp	 SHORT $LN1@GetStringA
$LN88@GetStringA:
  00123	c6 45 f4 ed	 mov	 BYTE PTR __k$[ebp+8], -19 ; ffffffedH
  00127	eb 2d		 jmp	 SHORT $LN1@GetStringA
$LN89@GetStringA:
  00129	c6 45 f3 ea	 mov	 BYTE PTR __k$[ebp+7], -22 ; ffffffeaH
  0012d	eb 27		 jmp	 SHORT $LN1@GetStringA
$LN90@GetStringA:
  0012f	88 4d f2	 mov	 BYTE PTR __k$[ebp+6], cl
  00132	eb 22		 jmp	 SHORT $LN1@GetStringA
$LN91@GetStringA:
  00134	c6 45 f1 ec	 mov	 BYTE PTR __k$[ebp+5], -20 ; ffffffecH
  00138	eb 1c		 jmp	 SHORT $LN1@GetStringA
$LN92@GetStringA:
  0013a	c6 45 f0 ed	 mov	 BYTE PTR __k$[ebp+4], -19 ; ffffffedH
  0013e	eb 16		 jmp	 SHORT $LN1@GetStringA
$LN93@GetStringA:
  00140	c6 45 ef ea	 mov	 BYTE PTR __k$[ebp+3], -22 ; ffffffeaH
  00144	eb 10		 jmp	 SHORT $LN1@GetStringA
$LN94@GetStringA:
  00146	c6 45 ee eb	 mov	 BYTE PTR __k$[ebp+2], -21 ; ffffffebH
  0014a	eb 0a		 jmp	 SHORT $LN1@GetStringA
$LN95@GetStringA:
  0014c	c6 45 ed ec	 mov	 BYTE PTR __k$[ebp+1], -20 ; ffffffecH
  00150	eb 04		 jmp	 SHORT $LN1@GetStringA
$LN96@GetStringA:
  00152	c6 45 ec ed	 mov	 BYTE PTR __k$[ebp], -19	; ffffffedH
$LN1@GetStringA:
  00156	6a 02		 push	 2
  00158	8d 45 ec	 lea	 eax, DWORD PTR __k$[ebp]
  0015b	c6 45 f7 00	 mov	 BYTE PTR __k$[ebp+11], 0
  0015f	5a		 pop	 edx
$LL104@GetStringA:
  00160	81 30 ed ec eb
	ea		 xor	 DWORD PTR [eax], -353637139 ; eaebecedH
  00166	83 c0 04	 add	 eax, 4
  00169	4a		 dec	 edx
  0016a	75 f4		 jne	 SHORT $LL104@GetStringA
  0016c	6a 08		 push	 8
  0016e	58		 pop	 eax
$LL101@GetStringA:
  0016f	8b c8		 mov	 ecx, eax
  00171	81 e1 03 00 00
	80		 and	 ecx, -2147483645	; 80000003H
  00177	79 05		 jns	 SHORT $LN111@GetStringA
  00179	49		 dec	 ecx
  0017a	83 c9 fc	 or	 ecx, -4			; fffffffcH
  0017d	41		 inc	 ecx
$LN111@GetStringA:
  0017e	b2 ed		 mov	 dl, -19			; ffffffedH
  00180	2a d1		 sub	 dl, cl
  00182	30 54 05 ec	 xor	 BYTE PTR __k$[ebp+eax], dl
  00186	40		 inc	 eax
  00187	83 f8 0b	 cmp	 eax, 11			; 0000000bH
  0018a	7c e3		 jl	 SHORT $LL101@GetStringA

; 109  : 		return GetStringAttribute(_k);

  0018c	8d 45 ec	 lea	 eax, DWORD PTR __k$[ebp]
  0018f	50		 push	 eax
  00190	8b ce		 mov	 ecx, esi
  00192	ff 15 00 00 00
	00		 call	 DWORD PTR __imp_?GetStringAttribute@ioXMLElement@@QBEPBDPBD@Z

; 110  : 	}

  00198	8b 4d fc	 mov	 ecx, DWORD PTR __$ArrayPad$[ebp]
  0019b	33 cd		 xor	 ecx, ebp
  0019d	5e		 pop	 esi
  0019e	e8 00 00 00 00	 call	 @__security_check_cookie@4
  001a3	c9		 leave
  001a4	c2 04 00	 ret	 4
??$GetStringAttribute_e@$0M@@ioXMLElement@@QBEPBDAAY0M@$$CBD@Z ENDP ; ioXMLElement::GetStringAttribute_e<12>
_TEXT	ENDS
PUBLIC	__$ArrayPad$
PUBLIC	??$GetStringAttribute_e@$0L@@ioXMLElement@@QBEPBDAAY0L@$$CBD@Z ; ioXMLElement::GetStringAttribute_e<11>
; Function compile flags: /Ogsp
;	COMDAT ??$GetStringAttribute_e@$0L@@ioXMLElement@@QBEPBDAAY0L@$$CBD@Z
_TEXT	SEGMENT
__k$ = -20						; size = 11
__$ArrayPad$ = -4					; size = 4
_k$ = 8							; size = 4
??$GetStringAttribute_e@$0L@@ioXMLElement@@QBEPBDAAY0L@$$CBD@Z PROC ; ioXMLElement::GetStringAttribute_e<11>, COMDAT
; _this$ = ecx

; 107  : 	{

  00000	55		 push	 ebp
  00001	8b ec		 mov	 ebp, esp
  00003	83 ec 14	 sub	 esp, 20			; 00000014H
  00006	a1 00 00 00 00	 mov	 eax, DWORD PTR ___security_cookie
  0000b	33 c5		 xor	 eax, ebp
  0000d	89 45 fc	 mov	 DWORD PTR __$ArrayPad$[ebp], eax
  00010	8b 45 08	 mov	 eax, DWORD PTR _k$[ebp]

; 108  : 		_ENCSTR(k, _k);

  00013	8a 10		 mov	 dl, BYTE PTR [eax]
  00015	56		 push	 esi
  00016	8b f1		 mov	 esi, ecx
  00018	84 d2		 test	 dl, dl
  0001a	0f 84 24 01 00
	00		 je	 $LN96@GetStringA@2
  00020	80 f2 ed	 xor	 dl, -19			; ffffffedH
  00023	88 55 ec	 mov	 BYTE PTR __k$[ebp], dl
  00026	8a 50 01	 mov	 dl, BYTE PTR [eax+1]
  00029	84 d2		 test	 dl, dl
  0002b	0f 84 0d 01 00
	00		 je	 $LN95@GetStringA@2
  00031	80 f2 ec	 xor	 dl, -20			; ffffffecH
  00034	88 55 ed	 mov	 BYTE PTR __k$[ebp+1], dl
  00037	8a 50 02	 mov	 dl, BYTE PTR [eax+2]
  0003a	84 d2		 test	 dl, dl
  0003c	0f 84 f6 00 00
	00		 je	 $LN94@GetStringA@2
  00042	80 f2 eb	 xor	 dl, -21			; ffffffebH
  00045	88 55 ee	 mov	 BYTE PTR __k$[ebp+2], dl
  00048	8a 50 03	 mov	 dl, BYTE PTR [eax+3]
  0004b	84 d2		 test	 dl, dl
  0004d	0f 84 df 00 00
	00		 je	 $LN93@GetStringA@2
  00053	80 f2 ea	 xor	 dl, -22			; ffffffeaH
  00056	88 55 ef	 mov	 BYTE PTR __k$[ebp+3], dl
  00059	8a 50 04	 mov	 dl, BYTE PTR [eax+4]
  0005c	84 d2		 test	 dl, dl
  0005e	0f 84 c8 00 00
	00		 je	 $LN92@GetStringA@2
  00064	80 f2 ed	 xor	 dl, -19			; ffffffedH
  00067	88 55 f0	 mov	 BYTE PTR __k$[ebp+4], dl
  0006a	8a 50 05	 mov	 dl, BYTE PTR [eax+5]
  0006d	84 d2		 test	 dl, dl
  0006f	0f 84 b1 00 00
	00		 je	 $LN91@GetStringA@2
  00075	80 f2 ec	 xor	 dl, -20			; ffffffecH
  00078	88 55 f1	 mov	 BYTE PTR __k$[ebp+5], dl
  0007b	8a 50 06	 mov	 dl, BYTE PTR [eax+6]
  0007e	84 d2		 test	 dl, dl
  00080	0f 84 9a 00 00
	00		 je	 $LN90@GetStringA@2
  00086	80 f2 eb	 xor	 dl, -21			; ffffffebH
  00089	88 55 f2	 mov	 BYTE PTR __k$[ebp+6], dl
  0008c	8a 50 07	 mov	 dl, BYTE PTR [eax+7]
  0008f	84 d2		 test	 dl, dl
  00091	0f 84 83 00 00
	00		 je	 $LN89@GetStringA@2
  00097	80 f2 ea	 xor	 dl, -22			; ffffffeaH
  0009a	88 55 f3	 mov	 BYTE PTR __k$[ebp+7], dl
  0009d	8a 50 08	 mov	 dl, BYTE PTR [eax+8]
  000a0	84 d2		 test	 dl, dl
  000a2	74 70		 je	 SHORT $LN88@GetStringA@2
  000a4	80 f2 ed	 xor	 dl, -19			; ffffffedH
  000a7	88 55 f4	 mov	 BYTE PTR __k$[ebp+8], dl
  000aa	8a 50 09	 mov	 dl, BYTE PTR [eax+9]
  000ad	84 d2		 test	 dl, dl
  000af	74 5d		 je	 SHORT $LN87@GetStringA@2
  000b1	80 f2 ec	 xor	 dl, -20			; ffffffecH
  000b4	80 78 0a 00	 cmp	 BYTE PTR [eax+10], 0
  000b8	88 55 f5	 mov	 BYTE PTR __k$[ebp+9], dl
  000bb	0f 84 87 00 00
	00		 je	 $LN1@GetStringA@2
  000c1	8a 50 0b	 mov	 dl, BYTE PTR [eax+11]
  000c4	84 d2		 test	 dl, dl
  000c6	74 40		 je	 SHORT $LN85@GetStringA@2
  000c8	80 f2 ea	 xor	 dl, -22			; ffffffeaH
  000cb	88 55 f7	 mov	 BYTE PTR __k$[ebp+11], dl
  000ce	8a 50 0c	 mov	 dl, BYTE PTR [eax+12]
  000d1	84 d2		 test	 dl, dl
  000d3	74 2d		 je	 SHORT $LN84@GetStringA@2
  000d5	80 f2 ed	 xor	 dl, -19			; ffffffedH
  000d8	88 55 f8	 mov	 BYTE PTR __k$[ebp+12], dl
  000db	8a 50 0d	 mov	 dl, BYTE PTR [eax+13]
  000de	84 d2		 test	 dl, dl
  000e0	74 1a		 je	 SHORT $LN83@GetStringA@2
  000e2	8a 40 0e	 mov	 al, BYTE PTR [eax+14]
  000e5	80 f2 ec	 xor	 dl, -20			; ffffffecH
  000e8	88 55 f9	 mov	 BYTE PTR __k$[ebp+13], dl
  000eb	84 c0		 test	 al, al
  000ed	74 07		 je	 SHORT $LN82@GetStringA@2
  000ef	34 eb		 xor	 al, -21			; ffffffebH
  000f1	88 45 fa	 mov	 BYTE PTR __k$[ebp+14], al
  000f4	eb 52		 jmp	 SHORT $LN1@GetStringA@2
$LN82@GetStringA@2:
  000f6	c6 45 fa eb	 mov	 BYTE PTR __k$[ebp+14], -21 ; ffffffebH
  000fa	eb 4c		 jmp	 SHORT $LN1@GetStringA@2
$LN83@GetStringA@2:
  000fc	c6 45 f9 ec	 mov	 BYTE PTR __k$[ebp+13], -20 ; ffffffecH
  00100	eb 46		 jmp	 SHORT $LN1@GetStringA@2
$LN84@GetStringA@2:
  00102	c6 45 f8 ed	 mov	 BYTE PTR __k$[ebp+12], -19 ; ffffffedH
  00106	eb 40		 jmp	 SHORT $LN1@GetStringA@2
$LN85@GetStringA@2:
  00108	c6 45 f7 ea	 mov	 BYTE PTR __k$[ebp+11], -22 ; ffffffeaH
  0010c	eb 3a		 jmp	 SHORT $LN1@GetStringA@2
$LN87@GetStringA@2:
  0010e	c6 45 f5 ec	 mov	 BYTE PTR __k$[ebp+9], -20 ; ffffffecH
  00112	eb 34		 jmp	 SHORT $LN1@GetStringA@2
$LN88@GetStringA@2:
  00114	c6 45 f4 ed	 mov	 BYTE PTR __k$[ebp+8], -19 ; ffffffedH
  00118	eb 2e		 jmp	 SHORT $LN1@GetStringA@2
$LN89@GetStringA@2:
  0011a	c6 45 f3 ea	 mov	 BYTE PTR __k$[ebp+7], -22 ; ffffffeaH
  0011e	eb 28		 jmp	 SHORT $LN1@GetStringA@2
$LN90@GetStringA@2:
  00120	c6 45 f2 eb	 mov	 BYTE PTR __k$[ebp+6], -21 ; ffffffebH
  00124	eb 22		 jmp	 SHORT $LN1@GetStringA@2
$LN91@GetStringA@2:
  00126	c6 45 f1 ec	 mov	 BYTE PTR __k$[ebp+5], -20 ; ffffffecH
  0012a	eb 1c		 jmp	 SHORT $LN1@GetStringA@2
$LN92@GetStringA@2:
  0012c	c6 45 f0 ed	 mov	 BYTE PTR __k$[ebp+4], -19 ; ffffffedH
  00130	eb 16		 jmp	 SHORT $LN1@GetStringA@2
$LN93@GetStringA@2:
  00132	c6 45 ef ea	 mov	 BYTE PTR __k$[ebp+3], -22 ; ffffffeaH
  00136	eb 10		 jmp	 SHORT $LN1@GetStringA@2
$LN94@GetStringA@2:
  00138	c6 45 ee eb	 mov	 BYTE PTR __k$[ebp+2], -21 ; ffffffebH
  0013c	eb 0a		 jmp	 SHORT $LN1@GetStringA@2
$LN95@GetStringA@2:
  0013e	c6 45 ed ec	 mov	 BYTE PTR __k$[ebp+1], -20 ; ffffffecH
  00142	eb 04		 jmp	 SHORT $LN1@GetStringA@2
$LN96@GetStringA@2:
  00144	c6 45 ec ed	 mov	 BYTE PTR __k$[ebp], -19	; ffffffedH
$LN1@GetStringA@2:
  00148	6a 02		 push	 2
  0014a	8d 45 ec	 lea	 eax, DWORD PTR __k$[ebp]
  0014d	c6 45 f6 00	 mov	 BYTE PTR __k$[ebp+10], 0
  00151	5a		 pop	 edx
$LL104@GetStringA@2:
  00152	81 30 ed ec eb
	ea		 xor	 DWORD PTR [eax], -353637139 ; eaebecedH
  00158	83 c0 04	 add	 eax, 4
  0015b	4a		 dec	 edx
  0015c	75 f4		 jne	 SHORT $LL104@GetStringA@2
  0015e	6a 08		 push	 8
  00160	58		 pop	 eax
$LL101@GetStringA@2:
  00161	8b c8		 mov	 ecx, eax
  00163	81 e1 03 00 00
	80		 and	 ecx, -2147483645	; 80000003H
  00169	79 05		 jns	 SHORT $LN111@GetStringA@2
  0016b	49		 dec	 ecx
  0016c	83 c9 fc	 or	 ecx, -4			; fffffffcH
  0016f	41		 inc	 ecx
$LN111@GetStringA@2:
  00170	b2 ed		 mov	 dl, -19			; ffffffedH
  00172	2a d1		 sub	 dl, cl
  00174	30 54 05 ec	 xor	 BYTE PTR __k$[ebp+eax], dl
  00178	40		 inc	 eax
  00179	83 f8 0a	 cmp	 eax, 10			; 0000000aH
  0017c	7c e3		 jl	 SHORT $LL101@GetStringA@2

; 109  : 		return GetStringAttribute(_k);

  0017e	8d 45 ec	 lea	 eax, DWORD PTR __k$[ebp]
  00181	50		 push	 eax
  00182	8b ce		 mov	 ecx, esi
  00184	ff 15 00 00 00
	00		 call	 DWORD PTR __imp_?GetStringAttribute@ioXMLElement@@QBEPBDPBD@Z

; 110  : 	}

  0018a	8b 4d fc	 mov	 ecx, DWORD PTR __$ArrayPad$[ebp]
  0018d	33 cd		 xor	 ecx, ebp
  0018f	5e		 pop	 esi
  00190	e8 00 00 00 00	 call	 @__security_check_cookie@4
  00195	c9		 leave
  00196	c2 04 00	 ret	 4
??$GetStringAttribute_e@$0L@@ioXMLElement@@QBEPBDAAY0L@$$CBD@Z ENDP ; ioXMLElement::GetStringAttribute_e<11>
_TEXT	ENDS
PUBLIC	__$ArrayPad$
PUBLIC	??$GetStringAttribute_e@$08@ioXMLElement@@QBEPBDAAY08$$CBD@Z ; ioXMLElement::GetStringAttribute_e<9>
; Function compile flags: /Ogsp
;	COMDAT ??$GetStringAttribute_e@$08@ioXMLElement@@QBEPBDAAY08$$CBD@Z
_TEXT	SEGMENT
__k$ = -20						; size = 9
__$ArrayPad$ = -4					; size = 4
_k$ = 8							; size = 4
??$GetStringAttribute_e@$08@ioXMLElement@@QBEPBDAAY08$$CBD@Z PROC ; ioXMLElement::GetStringAttribute_e<9>, COMDAT
; _this$ = ecx

; 107  : 	{

  00000	55		 push	 ebp
  00001	8b ec		 mov	 ebp, esp
  00003	83 ec 14	 sub	 esp, 20			; 00000014H
  00006	a1 00 00 00 00	 mov	 eax, DWORD PTR ___security_cookie
  0000b	33 c5		 xor	 eax, ebp
  0000d	89 45 fc	 mov	 DWORD PTR __$ArrayPad$[ebp], eax
  00010	8b 45 08	 mov	 eax, DWORD PTR _k$[ebp]

; 108  : 		_ENCSTR(k, _k);

  00013	8a 10		 mov	 dl, BYTE PTR [eax]
  00015	84 d2		 test	 dl, dl
  00017	0f 84 ee 00 00
	00		 je	 $LN96@GetStringA@3
  0001d	80 f2 ed	 xor	 dl, -19			; ffffffedH
  00020	88 55 ec	 mov	 BYTE PTR __k$[ebp], dl
  00023	8a 50 01	 mov	 dl, BYTE PTR [eax+1]
  00026	84 d2		 test	 dl, dl
  00028	0f 84 d7 00 00
	00		 je	 $LN95@GetStringA@3
  0002e	80 f2 ec	 xor	 dl, -20			; ffffffecH
  00031	88 55 ed	 mov	 BYTE PTR __k$[ebp+1], dl
  00034	8a 50 02	 mov	 dl, BYTE PTR [eax+2]
  00037	84 d2		 test	 dl, dl
  00039	0f 84 c0 00 00
	00		 je	 $LN94@GetStringA@3
  0003f	80 f2 eb	 xor	 dl, -21			; ffffffebH
  00042	88 55 ee	 mov	 BYTE PTR __k$[ebp+2], dl
  00045	8a 50 03	 mov	 dl, BYTE PTR [eax+3]
  00048	84 d2		 test	 dl, dl
  0004a	0f 84 a9 00 00
	00		 je	 $LN93@GetStringA@3
  00050	80 f2 ea	 xor	 dl, -22			; ffffffeaH
  00053	88 55 ef	 mov	 BYTE PTR __k$[ebp+3], dl
  00056	8a 50 04	 mov	 dl, BYTE PTR [eax+4]
  00059	84 d2		 test	 dl, dl
  0005b	0f 84 92 00 00
	00		 je	 $LN92@GetStringA@3
  00061	80 f2 ed	 xor	 dl, -19			; ffffffedH
  00064	88 55 f0	 mov	 BYTE PTR __k$[ebp+4], dl
  00067	8a 50 05	 mov	 dl, BYTE PTR [eax+5]
  0006a	84 d2		 test	 dl, dl
  0006c	74 7f		 je	 SHORT $LN91@GetStringA@3
  0006e	80 f2 ec	 xor	 dl, -20			; ffffffecH
  00071	88 55 f1	 mov	 BYTE PTR __k$[ebp+5], dl
  00074	8a 50 06	 mov	 dl, BYTE PTR [eax+6]
  00077	84 d2		 test	 dl, dl
  00079	74 6c		 je	 SHORT $LN90@GetStringA@3
  0007b	80 f2 eb	 xor	 dl, -21			; ffffffebH
  0007e	88 55 f2	 mov	 BYTE PTR __k$[ebp+6], dl
  00081	8a 50 07	 mov	 dl, BYTE PTR [eax+7]
  00084	84 d2		 test	 dl, dl
  00086	74 59		 je	 SHORT $LN89@GetStringA@3
  00088	80 f2 ea	 xor	 dl, -22			; ffffffeaH
  0008b	80 78 08 00	 cmp	 BYTE PTR [eax+8], 0
  0008f	88 55 f3	 mov	 BYTE PTR __k$[ebp+7], dl
  00092	74 7b		 je	 SHORT $LN1@GetStringA@3
  00094	8a 50 09	 mov	 dl, BYTE PTR [eax+9]
  00097	84 d2		 test	 dl, dl
  00099	74 40		 je	 SHORT $LN87@GetStringA@3
  0009b	80 f2 ec	 xor	 dl, -20			; ffffffecH
  0009e	88 55 f5	 mov	 BYTE PTR __k$[ebp+9], dl
  000a1	8a 50 0a	 mov	 dl, BYTE PTR [eax+10]
  000a4	84 d2		 test	 dl, dl
  000a6	74 2d		 je	 SHORT $LN86@GetStringA@3
  000a8	80 f2 eb	 xor	 dl, -21			; ffffffebH
  000ab	88 55 f6	 mov	 BYTE PTR __k$[ebp+10], dl
  000ae	8a 50 0b	 mov	 dl, BYTE PTR [eax+11]
  000b1	84 d2		 test	 dl, dl
  000b3	74 1a		 je	 SHORT $LN85@GetStringA@3
  000b5	8a 40 0c	 mov	 al, BYTE PTR [eax+12]
  000b8	80 f2 ea	 xor	 dl, -22			; ffffffeaH
  000bb	88 55 f7	 mov	 BYTE PTR __k$[ebp+11], dl
  000be	84 c0		 test	 al, al
  000c0	74 07		 je	 SHORT $LN84@GetStringA@3
  000c2	34 ed		 xor	 al, -19			; ffffffedH
  000c4	88 45 f8	 mov	 BYTE PTR __k$[ebp+12], al
  000c7	eb 46		 jmp	 SHORT $LN1@GetStringA@3
$LN84@GetStringA@3:
  000c9	c6 45 f8 ed	 mov	 BYTE PTR __k$[ebp+12], -19 ; ffffffedH
  000cd	eb 40		 jmp	 SHORT $LN1@GetStringA@3
$LN85@GetStringA@3:
  000cf	c6 45 f7 ea	 mov	 BYTE PTR __k$[ebp+11], -22 ; ffffffeaH
  000d3	eb 3a		 jmp	 SHORT $LN1@GetStringA@3
$LN86@GetStringA@3:
  000d5	c6 45 f6 eb	 mov	 BYTE PTR __k$[ebp+10], -21 ; ffffffebH
  000d9	eb 34		 jmp	 SHORT $LN1@GetStringA@3
$LN87@GetStringA@3:
  000db	c6 45 f5 ec	 mov	 BYTE PTR __k$[ebp+9], -20 ; ffffffecH
  000df	eb 2e		 jmp	 SHORT $LN1@GetStringA@3
$LN89@GetStringA@3:
  000e1	c6 45 f3 ea	 mov	 BYTE PTR __k$[ebp+7], -22 ; ffffffeaH
  000e5	eb 28		 jmp	 SHORT $LN1@GetStringA@3
$LN90@GetStringA@3:
  000e7	c6 45 f2 eb	 mov	 BYTE PTR __k$[ebp+6], -21 ; ffffffebH
  000eb	eb 22		 jmp	 SHORT $LN1@GetStringA@3
$LN91@GetStringA@3:
  000ed	c6 45 f1 ec	 mov	 BYTE PTR __k$[ebp+5], -20 ; ffffffecH
  000f1	eb 1c		 jmp	 SHORT $LN1@GetStringA@3
$LN92@GetStringA@3:
  000f3	c6 45 f0 ed	 mov	 BYTE PTR __k$[ebp+4], -19 ; ffffffedH
  000f7	eb 16		 jmp	 SHORT $LN1@GetStringA@3
$LN93@GetStringA@3:
  000f9	c6 45 ef ea	 mov	 BYTE PTR __k$[ebp+3], -22 ; ffffffeaH
  000fd	eb 10		 jmp	 SHORT $LN1@GetStringA@3
$LN94@GetStringA@3:
  000ff	c6 45 ee eb	 mov	 BYTE PTR __k$[ebp+2], -21 ; ffffffebH
  00103	eb 0a		 jmp	 SHORT $LN1@GetStringA@3
$LN95@GetStringA@3:
  00105	c6 45 ed ec	 mov	 BYTE PTR __k$[ebp+1], -20 ; ffffffecH
  00109	eb 04		 jmp	 SHORT $LN1@GetStringA@3
$LN96@GetStringA@3:
  0010b	c6 45 ec ed	 mov	 BYTE PTR __k$[ebp], -19	; ffffffedH
$LN1@GetStringA@3:
  0010f	6a 02		 push	 2
  00111	8d 45 ec	 lea	 eax, DWORD PTR __k$[ebp]
  00114	c6 45 f4 00	 mov	 BYTE PTR __k$[ebp+8], 0
  00118	5a		 pop	 edx
$LL104@GetStringA@3:
  00119	81 30 ed ec eb
	ea		 xor	 DWORD PTR [eax], -353637139 ; eaebecedH
  0011f	83 c0 04	 add	 eax, 4
  00122	4a		 dec	 edx
  00123	75 f4		 jne	 SHORT $LL104@GetStringA@3

; 109  : 		return GetStringAttribute(_k);

  00125	8d 45 ec	 lea	 eax, DWORD PTR __k$[ebp]
  00128	50		 push	 eax
  00129	ff 15 00 00 00
	00		 call	 DWORD PTR __imp_?GetStringAttribute@ioXMLElement@@QBEPBDPBD@Z

; 110  : 	}

  0012f	8b 4d fc	 mov	 ecx, DWORD PTR __$ArrayPad$[ebp]
  00132	33 cd		 xor	 ecx, ebp
  00134	e8 00 00 00 00	 call	 @__security_check_cookie@4
  00139	c9		 leave
  0013a	c2 04 00	 ret	 4
??$GetStringAttribute_e@$08@ioXMLElement@@QBEPBDAAY08$$CBD@Z ENDP ; ioXMLElement::GetStringAttribute_e<9>
_TEXT	ENDS
PUBLIC	__$ArrayPad$
PUBLIC	??$GetStringAttribute_e@$07@ioXMLElement@@QBEPBDAAY07$$CBD@Z ; ioXMLElement::GetStringAttribute_e<8>
; Function compile flags: /Ogsp
;	COMDAT ??$GetStringAttribute_e@$07@ioXMLElement@@QBEPBDAAY07$$CBD@Z
_TEXT	SEGMENT
__k$ = -16						; size = 8
__$ArrayPad$ = -4					; size = 4
_k$ = 8							; size = 4
??$GetStringAttribute_e@$07@ioXMLElement@@QBEPBDAAY07$$CBD@Z PROC ; ioXMLElement::GetStringAttribute_e<8>, COMDAT
; _this$ = ecx

; 107  : 	{

  00000	55		 push	 ebp
  00001	8b ec		 mov	 ebp, esp
  00003	83 ec 10	 sub	 esp, 16			; 00000010H
  00006	a1 00 00 00 00	 mov	 eax, DWORD PTR ___security_cookie
  0000b	33 c5		 xor	 eax, ebp
  0000d	89 45 fc	 mov	 DWORD PTR __$ArrayPad$[ebp], eax
  00010	8b 45 08	 mov	 eax, DWORD PTR _k$[ebp]

; 108  : 		_ENCSTR(k, _k);

  00013	8a 10		 mov	 dl, BYTE PTR [eax]
  00015	56		 push	 esi
  00016	8b f1		 mov	 esi, ecx
  00018	84 d2		 test	 dl, dl
  0001a	0f 84 d7 00 00
	00		 je	 $LN96@GetStringA@4
  00020	80 f2 ed	 xor	 dl, -19			; ffffffedH
  00023	88 55 f0	 mov	 BYTE PTR __k$[ebp], dl
  00026	8a 50 01	 mov	 dl, BYTE PTR [eax+1]
  00029	84 d2		 test	 dl, dl
  0002b	0f 84 c0 00 00
	00		 je	 $LN95@GetStringA@4
  00031	80 f2 ec	 xor	 dl, -20			; ffffffecH
  00034	88 55 f1	 mov	 BYTE PTR __k$[ebp+1], dl
  00037	8a 50 02	 mov	 dl, BYTE PTR [eax+2]
  0003a	84 d2		 test	 dl, dl
  0003c	0f 84 a9 00 00
	00		 je	 $LN94@GetStringA@4
  00042	80 f2 eb	 xor	 dl, -21			; ffffffebH
  00045	88 55 f2	 mov	 BYTE PTR __k$[ebp+2], dl
  00048	8a 50 03	 mov	 dl, BYTE PTR [eax+3]
  0004b	84 d2		 test	 dl, dl
  0004d	0f 84 92 00 00
	00		 je	 $LN93@GetStringA@4
  00053	80 f2 ea	 xor	 dl, -22			; ffffffeaH
  00056	88 55 f3	 mov	 BYTE PTR __k$[ebp+3], dl
  00059	8a 50 04	 mov	 dl, BYTE PTR [eax+4]
  0005c	84 d2		 test	 dl, dl
  0005e	74 7f		 je	 SHORT $LN92@GetStringA@4
  00060	80 f2 ed	 xor	 dl, -19			; ffffffedH
  00063	88 55 f4	 mov	 BYTE PTR __k$[ebp+4], dl
  00066	8a 50 05	 mov	 dl, BYTE PTR [eax+5]
  00069	84 d2		 test	 dl, dl
  0006b	74 6c		 je	 SHORT $LN91@GetStringA@4
  0006d	80 f2 ec	 xor	 dl, -20			; ffffffecH
  00070	88 55 f5	 mov	 BYTE PTR __k$[ebp+5], dl
  00073	8a 50 06	 mov	 dl, BYTE PTR [eax+6]
  00076	84 d2		 test	 dl, dl
  00078	74 59		 je	 SHORT $LN90@GetStringA@4
  0007a	80 f2 eb	 xor	 dl, -21			; ffffffebH
  0007d	80 78 07 00	 cmp	 BYTE PTR [eax+7], 0
  00081	88 55 f6	 mov	 BYTE PTR __k$[ebp+6], dl
  00084	74 75		 je	 SHORT $LN1@GetStringA@4
  00086	8a 50 08	 mov	 dl, BYTE PTR [eax+8]
  00089	84 d2		 test	 dl, dl
  0008b	74 40		 je	 SHORT $LN88@GetStringA@4
  0008d	80 f2 ed	 xor	 dl, -19			; ffffffedH
  00090	88 55 f8	 mov	 BYTE PTR __k$[ebp+8], dl
  00093	8a 50 09	 mov	 dl, BYTE PTR [eax+9]
  00096	84 d2		 test	 dl, dl
  00098	74 2d		 je	 SHORT $LN87@GetStringA@4
  0009a	80 f2 ec	 xor	 dl, -20			; ffffffecH
  0009d	88 55 f9	 mov	 BYTE PTR __k$[ebp+9], dl
  000a0	8a 50 0a	 mov	 dl, BYTE PTR [eax+10]
  000a3	84 d2		 test	 dl, dl
  000a5	74 1a		 je	 SHORT $LN86@GetStringA@4
  000a7	8a 40 0b	 mov	 al, BYTE PTR [eax+11]
  000aa	80 f2 eb	 xor	 dl, -21			; ffffffebH
  000ad	88 55 fa	 mov	 BYTE PTR __k$[ebp+10], dl
  000b0	84 c0		 test	 al, al
  000b2	74 07		 je	 SHORT $LN85@GetStringA@4
  000b4	34 ea		 xor	 al, -22			; ffffffeaH
  000b6	88 45 fb	 mov	 BYTE PTR __k$[ebp+11], al
  000b9	eb 40		 jmp	 SHORT $LN1@GetStringA@4
$LN85@GetStringA@4:
  000bb	c6 45 fb ea	 mov	 BYTE PTR __k$[ebp+11], -22 ; ffffffeaH
  000bf	eb 3a		 jmp	 SHORT $LN1@GetStringA@4
$LN86@GetStringA@4:
  000c1	c6 45 fa eb	 mov	 BYTE PTR __k$[ebp+10], -21 ; ffffffebH
  000c5	eb 34		 jmp	 SHORT $LN1@GetStringA@4
$LN87@GetStringA@4:
  000c7	c6 45 f9 ec	 mov	 BYTE PTR __k$[ebp+9], -20 ; ffffffecH
  000cb	eb 2e		 jmp	 SHORT $LN1@GetStringA@4
$LN88@GetStringA@4:
  000cd	c6 45 f8 ed	 mov	 BYTE PTR __k$[ebp+8], -19 ; ffffffedH
  000d1	eb 28		 jmp	 SHORT $LN1@GetStringA@4
$LN90@GetStringA@4:
  000d3	c6 45 f6 eb	 mov	 BYTE PTR __k$[ebp+6], -21 ; ffffffebH
  000d7	eb 22		 jmp	 SHORT $LN1@GetStringA@4
$LN91@GetStringA@4:
  000d9	c6 45 f5 ec	 mov	 BYTE PTR __k$[ebp+5], -20 ; ffffffecH
  000dd	eb 1c		 jmp	 SHORT $LN1@GetStringA@4
$LN92@GetStringA@4:
  000df	c6 45 f4 ed	 mov	 BYTE PTR __k$[ebp+4], -19 ; ffffffedH
  000e3	eb 16		 jmp	 SHORT $LN1@GetStringA@4
$LN93@GetStringA@4:
  000e5	c6 45 f3 ea	 mov	 BYTE PTR __k$[ebp+3], -22 ; ffffffeaH
  000e9	eb 10		 jmp	 SHORT $LN1@GetStringA@4
$LN94@GetStringA@4:
  000eb	c6 45 f2 eb	 mov	 BYTE PTR __k$[ebp+2], -21 ; ffffffebH
  000ef	eb 0a		 jmp	 SHORT $LN1@GetStringA@4
$LN95@GetStringA@4:
  000f1	c6 45 f1 ec	 mov	 BYTE PTR __k$[ebp+1], -20 ; ffffffecH
  000f5	eb 04		 jmp	 SHORT $LN1@GetStringA@4
$LN96@GetStringA@4:
  000f7	c6 45 f0 ed	 mov	 BYTE PTR __k$[ebp], -19	; ffffffedH
$LN1@GetStringA@4:
  000fb	81 75 f0 ed ec
	eb ea		 xor	 DWORD PTR __k$[ebp], -353637139 ; eaebecedH
  00102	6a 04		 push	 4
  00104	c6 45 f7 00	 mov	 BYTE PTR __k$[ebp+7], 0
  00108	58		 pop	 eax
$LL101@GetStringA@4:
  00109	8b c8		 mov	 ecx, eax
  0010b	81 e1 03 00 00
	80		 and	 ecx, -2147483645	; 80000003H
  00111	79 05		 jns	 SHORT $LN111@GetStringA@4
  00113	49		 dec	 ecx
  00114	83 c9 fc	 or	 ecx, -4			; fffffffcH
  00117	41		 inc	 ecx
$LN111@GetStringA@4:
  00118	b2 ed		 mov	 dl, -19			; ffffffedH
  0011a	2a d1		 sub	 dl, cl
  0011c	30 54 05 f0	 xor	 BYTE PTR __k$[ebp+eax], dl
  00120	40		 inc	 eax
  00121	83 f8 07	 cmp	 eax, 7
  00124	7c e3		 jl	 SHORT $LL101@GetStringA@4

; 109  : 		return GetStringAttribute(_k);

  00126	8d 45 f0	 lea	 eax, DWORD PTR __k$[ebp]
  00129	50		 push	 eax
  0012a	8b ce		 mov	 ecx, esi
  0012c	ff 15 00 00 00
	00		 call	 DWORD PTR __imp_?GetStringAttribute@ioXMLElement@@QBEPBDPBD@Z

; 110  : 	}

  00132	8b 4d fc	 mov	 ecx, DWORD PTR __$ArrayPad$[ebp]
  00135	33 cd		 xor	 ecx, ebp
  00137	5e		 pop	 esi
  00138	e8 00 00 00 00	 call	 @__security_check_cookie@4
  0013d	c9		 leave
  0013e	c2 04 00	 ret	 4
??$GetStringAttribute_e@$07@ioXMLElement@@QBEPBDAAY07$$CBD@Z ENDP ; ioXMLElement::GetStringAttribute_e<8>
_TEXT	ENDS
PUBLIC	__$ArrayPad$
PUBLIC	??$GetIntAttribute_e@$0BA@@ioXMLElement@@QBEHAAY0BA@$$CBD@Z ; ioXMLElement::GetIntAttribute_e<16>
; Function compile flags: /Ogsp
;	COMDAT ??$GetIntAttribute_e@$0BA@@ioXMLElement@@QBEHAAY0BA@$$CBD@Z
_TEXT	SEGMENT
__k$ = -24						; size = 16
__$ArrayPad$ = -4					; size = 4
_k$ = 8							; size = 4
??$GetIntAttribute_e@$0BA@@ioXMLElement@@QBEHAAY0BA@$$CBD@Z PROC ; ioXMLElement::GetIntAttribute_e<16>, COMDAT
; _this$ = ecx

; 86   : 	{

  00000	55		 push	 ebp
  00001	8b ec		 mov	 ebp, esp
  00003	83 ec 18	 sub	 esp, 24			; 00000018H
  00006	a1 00 00 00 00	 mov	 eax, DWORD PTR ___security_cookie
  0000b	33 c5		 xor	 eax, ebp
  0000d	89 45 fc	 mov	 DWORD PTR __$ArrayPad$[ebp], eax
  00010	8b 45 08	 mov	 eax, DWORD PTR _k$[ebp]

; 87   : 		_ENCSTR(k, _k);

  00013	8a 10		 mov	 dl, BYTE PTR [eax]
  00015	56		 push	 esi
  00016	8b f1		 mov	 esi, ecx
  00018	84 d2		 test	 dl, dl
  0001a	0f 84 8c 01 00
	00		 je	 $LN96@GetIntAttr@3
  00020	80 f2 ed	 xor	 dl, -19			; ffffffedH
  00023	88 55 e8	 mov	 BYTE PTR __k$[ebp], dl
  00026	8a 50 01	 mov	 dl, BYTE PTR [eax+1]
  00029	84 d2		 test	 dl, dl
  0002b	0f 84 75 01 00
	00		 je	 $LN95@GetIntAttr@3
  00031	80 f2 ec	 xor	 dl, -20			; ffffffecH
  00034	88 55 e9	 mov	 BYTE PTR __k$[ebp+1], dl
  00037	8a 50 02	 mov	 dl, BYTE PTR [eax+2]
  0003a	84 d2		 test	 dl, dl
  0003c	0f 84 5e 01 00
	00		 je	 $LN94@GetIntAttr@3
  00042	b1 eb		 mov	 cl, -21			; ffffffebH
  00044	32 d1		 xor	 dl, cl
  00046	88 55 ea	 mov	 BYTE PTR __k$[ebp+2], dl
  00049	8a 50 03	 mov	 dl, BYTE PTR [eax+3]
  0004c	84 d2		 test	 dl, dl
  0004e	0f 84 46 01 00
	00		 je	 $LN93@GetIntAttr@3
  00054	80 f2 ea	 xor	 dl, -22			; ffffffeaH
  00057	88 55 eb	 mov	 BYTE PTR __k$[ebp+3], dl
  0005a	8a 50 04	 mov	 dl, BYTE PTR [eax+4]
  0005d	84 d2		 test	 dl, dl
  0005f	0f 84 2f 01 00
	00		 je	 $LN92@GetIntAttr@3
  00065	80 f2 ed	 xor	 dl, -19			; ffffffedH
  00068	88 55 ec	 mov	 BYTE PTR __k$[ebp+4], dl
  0006b	8a 50 05	 mov	 dl, BYTE PTR [eax+5]
  0006e	84 d2		 test	 dl, dl
  00070	0f 84 18 01 00
	00		 je	 $LN91@GetIntAttr@3
  00076	80 f2 ec	 xor	 dl, -20			; ffffffecH
  00079	88 55 ed	 mov	 BYTE PTR __k$[ebp+5], dl
  0007c	8a 50 06	 mov	 dl, BYTE PTR [eax+6]
  0007f	84 d2		 test	 dl, dl
  00081	0f 84 02 01 00
	00		 je	 $LN90@GetIntAttr@3
  00087	32 d1		 xor	 dl, cl
  00089	88 55 ee	 mov	 BYTE PTR __k$[ebp+6], dl
  0008c	8a 50 07	 mov	 dl, BYTE PTR [eax+7]
  0008f	84 d2		 test	 dl, dl
  00091	0f 84 ec 00 00
	00		 je	 $LN89@GetIntAttr@3
  00097	80 f2 ea	 xor	 dl, -22			; ffffffeaH
  0009a	88 55 ef	 mov	 BYTE PTR __k$[ebp+7], dl
  0009d	8a 50 08	 mov	 dl, BYTE PTR [eax+8]
  000a0	84 d2		 test	 dl, dl
  000a2	0f 84 d5 00 00
	00		 je	 $LN88@GetIntAttr@3
  000a8	80 f2 ed	 xor	 dl, -19			; ffffffedH
  000ab	88 55 f0	 mov	 BYTE PTR __k$[ebp+8], dl
  000ae	8a 50 09	 mov	 dl, BYTE PTR [eax+9]
  000b1	84 d2		 test	 dl, dl
  000b3	0f 84 be 00 00
	00		 je	 $LN87@GetIntAttr@3
  000b9	80 f2 ec	 xor	 dl, -20			; ffffffecH
  000bc	88 55 f1	 mov	 BYTE PTR __k$[ebp+9], dl
  000bf	8a 50 0a	 mov	 dl, BYTE PTR [eax+10]
  000c2	84 d2		 test	 dl, dl
  000c4	0f 84 a8 00 00
	00		 je	 $LN86@GetIntAttr@3
  000ca	32 d1		 xor	 dl, cl
  000cc	88 55 f2	 mov	 BYTE PTR __k$[ebp+10], dl
  000cf	8a 50 0b	 mov	 dl, BYTE PTR [eax+11]
  000d2	84 d2		 test	 dl, dl
  000d4	0f 84 92 00 00
	00		 je	 $LN85@GetIntAttr@3
  000da	80 f2 ea	 xor	 dl, -22			; ffffffeaH
  000dd	88 55 f3	 mov	 BYTE PTR __k$[ebp+11], dl
  000e0	8a 50 0c	 mov	 dl, BYTE PTR [eax+12]
  000e3	84 d2		 test	 dl, dl
  000e5	74 7f		 je	 SHORT $LN84@GetIntAttr@3
  000e7	80 f2 ed	 xor	 dl, -19			; ffffffedH
  000ea	88 55 f4	 mov	 BYTE PTR __k$[ebp+12], dl
  000ed	8a 50 0d	 mov	 dl, BYTE PTR [eax+13]
  000f0	84 d2		 test	 dl, dl
  000f2	74 6c		 je	 SHORT $LN83@GetIntAttr@3
  000f4	80 f2 ec	 xor	 dl, -20			; ffffffecH
  000f7	88 55 f5	 mov	 BYTE PTR __k$[ebp+13], dl
  000fa	8a 50 0e	 mov	 dl, BYTE PTR [eax+14]
  000fd	84 d2		 test	 dl, dl
  000ff	74 5a		 je	 SHORT $LN82@GetIntAttr@3
  00101	32 d1		 xor	 dl, cl
  00103	80 78 0f 00	 cmp	 BYTE PTR [eax+15], 0
  00107	88 55 f6	 mov	 BYTE PTR __k$[ebp+14], dl
  0010a	0f 84 a0 00 00
	00		 je	 $LN1@GetIntAttr@3
  00110	8a 50 10	 mov	 dl, BYTE PTR [eax+16]
  00113	84 d2		 test	 dl, dl
  00115	74 3e		 je	 SHORT $LN80@GetIntAttr@3
  00117	80 f2 ed	 xor	 dl, -19			; ffffffedH
  0011a	88 55 f8	 mov	 BYTE PTR __k$[ebp+16], dl
  0011d	8a 50 11	 mov	 dl, BYTE PTR [eax+17]
  00120	84 d2		 test	 dl, dl
  00122	74 2b		 je	 SHORT $LN79@GetIntAttr@3
  00124	80 f2 ec	 xor	 dl, -20			; ffffffecH
  00127	88 55 f9	 mov	 BYTE PTR __k$[ebp+17], dl
  0012a	8a 50 12	 mov	 dl, BYTE PTR [eax+18]
  0012d	84 d2		 test	 dl, dl
  0012f	74 19		 je	 SHORT $LN78@GetIntAttr@3
  00131	8a 40 13	 mov	 al, BYTE PTR [eax+19]
  00134	32 d1		 xor	 dl, cl
  00136	88 55 fa	 mov	 BYTE PTR __k$[ebp+18], dl
  00139	84 c0		 test	 al, al
  0013b	74 07		 je	 SHORT $LN77@GetIntAttr@3
  0013d	34 ea		 xor	 al, -22			; ffffffeaH
  0013f	88 45 fb	 mov	 BYTE PTR __k$[ebp+19], al
  00142	eb 6c		 jmp	 SHORT $LN1@GetIntAttr@3
$LN77@GetIntAttr@3:
  00144	c6 45 fb ea	 mov	 BYTE PTR __k$[ebp+19], -22 ; ffffffeaH
  00148	eb 66		 jmp	 SHORT $LN1@GetIntAttr@3
$LN78@GetIntAttr@3:
  0014a	88 4d fa	 mov	 BYTE PTR __k$[ebp+18], cl
  0014d	eb 61		 jmp	 SHORT $LN1@GetIntAttr@3
$LN79@GetIntAttr@3:
  0014f	c6 45 f9 ec	 mov	 BYTE PTR __k$[ebp+17], -20 ; ffffffecH
  00153	eb 5b		 jmp	 SHORT $LN1@GetIntAttr@3
$LN80@GetIntAttr@3:
  00155	c6 45 f8 ed	 mov	 BYTE PTR __k$[ebp+16], -19 ; ffffffedH
  00159	eb 55		 jmp	 SHORT $LN1@GetIntAttr@3
$LN82@GetIntAttr@3:
  0015b	88 4d f6	 mov	 BYTE PTR __k$[ebp+14], cl
  0015e	eb 50		 jmp	 SHORT $LN1@GetIntAttr@3
$LN83@GetIntAttr@3:
  00160	c6 45 f5 ec	 mov	 BYTE PTR __k$[ebp+13], -20 ; ffffffecH
  00164	eb 4a		 jmp	 SHORT $LN1@GetIntAttr@3
$LN84@GetIntAttr@3:
  00166	c6 45 f4 ed	 mov	 BYTE PTR __k$[ebp+12], -19 ; ffffffedH
  0016a	eb 44		 jmp	 SHORT $LN1@GetIntAttr@3
$LN85@GetIntAttr@3:
  0016c	c6 45 f3 ea	 mov	 BYTE PTR __k$[ebp+11], -22 ; ffffffeaH
  00170	eb 3e		 jmp	 SHORT $LN1@GetIntAttr@3
$LN86@GetIntAttr@3:
  00172	88 4d f2	 mov	 BYTE PTR __k$[ebp+10], cl
  00175	eb 39		 jmp	 SHORT $LN1@GetIntAttr@3
$LN87@GetIntAttr@3:
  00177	c6 45 f1 ec	 mov	 BYTE PTR __k$[ebp+9], -20 ; ffffffecH
  0017b	eb 33		 jmp	 SHORT $LN1@GetIntAttr@3
$LN88@GetIntAttr@3:
  0017d	c6 45 f0 ed	 mov	 BYTE PTR __k$[ebp+8], -19 ; ffffffedH
  00181	eb 2d		 jmp	 SHORT $LN1@GetIntAttr@3
$LN89@GetIntAttr@3:
  00183	c6 45 ef ea	 mov	 BYTE PTR __k$[ebp+7], -22 ; ffffffeaH
  00187	eb 27		 jmp	 SHORT $LN1@GetIntAttr@3
$LN90@GetIntAttr@3:
  00189	88 4d ee	 mov	 BYTE PTR __k$[ebp+6], cl
  0018c	eb 22		 jmp	 SHORT $LN1@GetIntAttr@3
$LN91@GetIntAttr@3:
  0018e	c6 45 ed ec	 mov	 BYTE PTR __k$[ebp+5], -20 ; ffffffecH
  00192	eb 1c		 jmp	 SHORT $LN1@GetIntAttr@3
$LN92@GetIntAttr@3:
  00194	c6 45 ec ed	 mov	 BYTE PTR __k$[ebp+4], -19 ; ffffffedH
  00198	eb 16		 jmp	 SHORT $LN1@GetIntAttr@3
$LN93@GetIntAttr@3:
  0019a	c6 45 eb ea	 mov	 BYTE PTR __k$[ebp+3], -22 ; ffffffeaH
  0019e	eb 10		 jmp	 SHORT $LN1@GetIntAttr@3
$LN94@GetIntAttr@3:
  001a0	c6 45 ea eb	 mov	 BYTE PTR __k$[ebp+2], -21 ; ffffffebH
  001a4	eb 0a		 jmp	 SHORT $LN1@GetIntAttr@3
$LN95@GetIntAttr@3:
  001a6	c6 45 e9 ec	 mov	 BYTE PTR __k$[ebp+1], -20 ; ffffffecH
  001aa	eb 04		 jmp	 SHORT $LN1@GetIntAttr@3
$LN96@GetIntAttr@3:
  001ac	c6 45 e8 ed	 mov	 BYTE PTR __k$[ebp], -19	; ffffffedH
$LN1@GetIntAttr@3:
  001b0	6a 03		 push	 3
  001b2	8d 45 e8	 lea	 eax, DWORD PTR __k$[ebp]
  001b5	c6 45 f7 00	 mov	 BYTE PTR __k$[ebp+15], 0
  001b9	5a		 pop	 edx
$LL104@GetIntAttr@3:
  001ba	81 30 ed ec eb
	ea		 xor	 DWORD PTR [eax], -353637139 ; eaebecedH
  001c0	83 c0 04	 add	 eax, 4
  001c3	4a		 dec	 edx
  001c4	75 f4		 jne	 SHORT $LL104@GetIntAttr@3
  001c6	6a 0c		 push	 12			; 0000000cH
  001c8	58		 pop	 eax
$LL101@GetIntAttr@3:
  001c9	8b c8		 mov	 ecx, eax
  001cb	81 e1 03 00 00
	80		 and	 ecx, -2147483645	; 80000003H
  001d1	79 05		 jns	 SHORT $LN111@GetIntAttr@3
  001d3	49		 dec	 ecx
  001d4	83 c9 fc	 or	 ecx, -4			; fffffffcH
  001d7	41		 inc	 ecx
$LN111@GetIntAttr@3:
  001d8	b2 ed		 mov	 dl, -19			; ffffffedH
  001da	2a d1		 sub	 dl, cl
  001dc	30 54 05 e8	 xor	 BYTE PTR __k$[ebp+eax], dl
  001e0	40		 inc	 eax
  001e1	83 f8 0f	 cmp	 eax, 15			; 0000000fH
  001e4	7c e3		 jl	 SHORT $LL101@GetIntAttr@3

; 88   : 		return GetIntAttribute(_k);

  001e6	8d 45 e8	 lea	 eax, DWORD PTR __k$[ebp]
  001e9	50		 push	 eax
  001ea	8b ce		 mov	 ecx, esi
  001ec	ff 15 00 00 00
	00		 call	 DWORD PTR __imp_?GetIntAttribute@ioXMLElement@@QBEHPBD@Z

; 89   : 	}

  001f2	8b 4d fc	 mov	 ecx, DWORD PTR __$ArrayPad$[ebp]
  001f5	33 cd		 xor	 ecx, ebp
  001f7	5e		 pop	 esi
  001f8	e8 00 00 00 00	 call	 @__security_check_cookie@4
  001fd	c9		 leave
  001fe	c2 04 00	 ret	 4
??$GetIntAttribute_e@$0BA@@ioXMLElement@@QBEHAAY0BA@$$CBD@Z ENDP ; ioXMLElement::GetIntAttribute_e<16>
_TEXT	ENDS
PUBLIC	__$ArrayPad$
PUBLIC	??$GetIntAttribute_e@$0BB@@ioXMLElement@@QBEHAAY0BB@$$CBD@Z ; ioXMLElement::GetIntAttribute_e<17>
; Function compile flags: /Ogsp
;	COMDAT ??$GetIntAttribute_e@$0BB@@ioXMLElement@@QBEHAAY0BB@$$CBD@Z
_TEXT	SEGMENT
__k$ = -28						; size = 17
__$ArrayPad$ = -4					; size = 4
_k$ = 8							; size = 4
??$GetIntAttribute_e@$0BB@@ioXMLElement@@QBEHAAY0BB@$$CBD@Z PROC ; ioXMLElement::GetIntAttribute_e<17>, COMDAT
; _this$ = ecx

; 86   : 	{

  00000	55		 push	 ebp
  00001	8b ec		 mov	 ebp, esp
  00003	83 ec 1c	 sub	 esp, 28			; 0000001cH
  00006	a1 00 00 00 00	 mov	 eax, DWORD PTR ___security_cookie
  0000b	33 c5		 xor	 eax, ebp
  0000d	89 45 fc	 mov	 DWORD PTR __$ArrayPad$[ebp], eax
  00010	8b 45 08	 mov	 eax, DWORD PTR _k$[ebp]

; 87   : 		_ENCSTR(k, _k);

  00013	8a 10		 mov	 dl, BYTE PTR [eax]
  00015	56		 push	 esi
  00016	8b f1		 mov	 esi, ecx
  00018	84 d2		 test	 dl, dl
  0001a	0f 84 a7 01 00
	00		 je	 $LN96@GetIntAttr@4
  00020	80 f2 ed	 xor	 dl, -19			; ffffffedH
  00023	88 55 e4	 mov	 BYTE PTR __k$[ebp], dl
  00026	8a 50 01	 mov	 dl, BYTE PTR [eax+1]
  00029	84 d2		 test	 dl, dl
  0002b	0f 84 90 01 00
	00		 je	 $LN95@GetIntAttr@4
  00031	b1 ec		 mov	 cl, -20			; ffffffecH
  00033	32 d1		 xor	 dl, cl
  00035	88 55 e5	 mov	 BYTE PTR __k$[ebp+1], dl
  00038	8a 50 02	 mov	 dl, BYTE PTR [eax+2]
  0003b	84 d2		 test	 dl, dl
  0003d	0f 84 78 01 00
	00		 je	 $LN94@GetIntAttr@4
  00043	80 f2 eb	 xor	 dl, -21			; ffffffebH
  00046	88 55 e6	 mov	 BYTE PTR __k$[ebp+2], dl
  00049	8a 50 03	 mov	 dl, BYTE PTR [eax+3]
  0004c	84 d2		 test	 dl, dl
  0004e	0f 84 61 01 00
	00		 je	 $LN93@GetIntAttr@4
  00054	80 f2 ea	 xor	 dl, -22			; ffffffeaH
  00057	88 55 e7	 mov	 BYTE PTR __k$[ebp+3], dl
  0005a	8a 50 04	 mov	 dl, BYTE PTR [eax+4]
  0005d	84 d2		 test	 dl, dl
  0005f	0f 84 4a 01 00
	00		 je	 $LN92@GetIntAttr@4
  00065	80 f2 ed	 xor	 dl, -19			; ffffffedH
  00068	88 55 e8	 mov	 BYTE PTR __k$[ebp+4], dl
  0006b	8a 50 05	 mov	 dl, BYTE PTR [eax+5]
  0006e	84 d2		 test	 dl, dl
  00070	0f 84 34 01 00
	00		 je	 $LN91@GetIntAttr@4
  00076	32 d1		 xor	 dl, cl
  00078	88 55 e9	 mov	 BYTE PTR __k$[ebp+5], dl
  0007b	8a 50 06	 mov	 dl, BYTE PTR [eax+6]
  0007e	84 d2		 test	 dl, dl
  00080	0f 84 1e 01 00
	00		 je	 $LN90@GetIntAttr@4
  00086	80 f2 eb	 xor	 dl, -21			; ffffffebH
  00089	88 55 ea	 mov	 BYTE PTR __k$[ebp+6], dl
  0008c	8a 50 07	 mov	 dl, BYTE PTR [eax+7]
  0008f	84 d2		 test	 dl, dl
  00091	0f 84 07 01 00
	00		 je	 $LN89@GetIntAttr@4
  00097	80 f2 ea	 xor	 dl, -22			; ffffffeaH
  0009a	88 55 eb	 mov	 BYTE PTR __k$[ebp+7], dl
  0009d	8a 50 08	 mov	 dl, BYTE PTR [eax+8]
  000a0	84 d2		 test	 dl, dl
  000a2	0f 84 f0 00 00
	00		 je	 $LN88@GetIntAttr@4
  000a8	80 f2 ed	 xor	 dl, -19			; ffffffedH
  000ab	88 55 ec	 mov	 BYTE PTR __k$[ebp+8], dl
  000ae	8a 50 09	 mov	 dl, BYTE PTR [eax+9]
  000b1	84 d2		 test	 dl, dl
  000b3	0f 84 da 00 00
	00		 je	 $LN87@GetIntAttr@4
  000b9	32 d1		 xor	 dl, cl
  000bb	88 55 ed	 mov	 BYTE PTR __k$[ebp+9], dl
  000be	8a 50 0a	 mov	 dl, BYTE PTR [eax+10]
  000c1	84 d2		 test	 dl, dl
  000c3	0f 84 c4 00 00
	00		 je	 $LN86@GetIntAttr@4
  000c9	80 f2 eb	 xor	 dl, -21			; ffffffebH
  000cc	88 55 ee	 mov	 BYTE PTR __k$[ebp+10], dl
  000cf	8a 50 0b	 mov	 dl, BYTE PTR [eax+11]
  000d2	84 d2		 test	 dl, dl
  000d4	0f 84 ad 00 00
	00		 je	 $LN85@GetIntAttr@4
  000da	80 f2 ea	 xor	 dl, -22			; ffffffeaH
  000dd	88 55 ef	 mov	 BYTE PTR __k$[ebp+11], dl
  000e0	8a 50 0c	 mov	 dl, BYTE PTR [eax+12]
  000e3	84 d2		 test	 dl, dl
  000e5	0f 84 96 00 00
	00		 je	 $LN84@GetIntAttr@4
  000eb	80 f2 ed	 xor	 dl, -19			; ffffffedH
  000ee	88 55 f0	 mov	 BYTE PTR __k$[ebp+12], dl
  000f1	8a 50 0d	 mov	 dl, BYTE PTR [eax+13]
  000f4	84 d2		 test	 dl, dl
  000f6	0f 84 80 00 00
	00		 je	 $LN83@GetIntAttr@4
  000fc	32 d1		 xor	 dl, cl
  000fe	88 55 f1	 mov	 BYTE PTR __k$[ebp+13], dl
  00101	8a 50 0e	 mov	 dl, BYTE PTR [eax+14]
  00104	84 d2		 test	 dl, dl
  00106	74 6e		 je	 SHORT $LN82@GetIntAttr@4
  00108	80 f2 eb	 xor	 dl, -21			; ffffffebH
  0010b	88 55 f2	 mov	 BYTE PTR __k$[ebp+14], dl
  0010e	8a 50 0f	 mov	 dl, BYTE PTR [eax+15]
  00111	84 d2		 test	 dl, dl
  00113	74 5b		 je	 SHORT $LN81@GetIntAttr@4
  00115	80 f2 ea	 xor	 dl, -22			; ffffffeaH
  00118	80 78 10 00	 cmp	 BYTE PTR [eax+16], 0
  0011c	88 55 f3	 mov	 BYTE PTR __k$[ebp+15], dl
  0011f	0f 84 a6 00 00
	00		 je	 $LN1@GetIntAttr@4
  00125	8a 50 11	 mov	 dl, BYTE PTR [eax+17]
  00128	84 d2		 test	 dl, dl
  0012a	74 3f		 je	 SHORT $LN79@GetIntAttr@4
  0012c	32 d1		 xor	 dl, cl
  0012e	88 55 f5	 mov	 BYTE PTR __k$[ebp+17], dl
  00131	8a 50 12	 mov	 dl, BYTE PTR [eax+18]
  00134	84 d2		 test	 dl, dl
  00136	74 2d		 je	 SHORT $LN78@GetIntAttr@4
  00138	80 f2 eb	 xor	 dl, -21			; ffffffebH
  0013b	88 55 f6	 mov	 BYTE PTR __k$[ebp+18], dl
  0013e	8a 50 13	 mov	 dl, BYTE PTR [eax+19]
  00141	84 d2		 test	 dl, dl
  00143	74 1a		 je	 SHORT $LN77@GetIntAttr@4
  00145	8a 40 14	 mov	 al, BYTE PTR [eax+20]
  00148	80 f2 ea	 xor	 dl, -22			; ffffffeaH
  0014b	88 55 f7	 mov	 BYTE PTR __k$[ebp+19], dl
  0014e	84 c0		 test	 al, al
  00150	74 07		 je	 SHORT $LN76@GetIntAttr@4
  00152	34 ed		 xor	 al, -19			; ffffffedH
  00154	88 45 f8	 mov	 BYTE PTR __k$[ebp+20], al
  00157	eb 72		 jmp	 SHORT $LN1@GetIntAttr@4
$LN76@GetIntAttr@4:
  00159	c6 45 f8 ed	 mov	 BYTE PTR __k$[ebp+20], -19 ; ffffffedH
  0015d	eb 6c		 jmp	 SHORT $LN1@GetIntAttr@4
$LN77@GetIntAttr@4:
  0015f	c6 45 f7 ea	 mov	 BYTE PTR __k$[ebp+19], -22 ; ffffffeaH
  00163	eb 66		 jmp	 SHORT $LN1@GetIntAttr@4
$LN78@GetIntAttr@4:
  00165	c6 45 f6 eb	 mov	 BYTE PTR __k$[ebp+18], -21 ; ffffffebH
  00169	eb 60		 jmp	 SHORT $LN1@GetIntAttr@4
$LN79@GetIntAttr@4:
  0016b	88 4d f5	 mov	 BYTE PTR __k$[ebp+17], cl
  0016e	eb 5b		 jmp	 SHORT $LN1@GetIntAttr@4
$LN81@GetIntAttr@4:
  00170	c6 45 f3 ea	 mov	 BYTE PTR __k$[ebp+15], -22 ; ffffffeaH
  00174	eb 55		 jmp	 SHORT $LN1@GetIntAttr@4
$LN82@GetIntAttr@4:
  00176	c6 45 f2 eb	 mov	 BYTE PTR __k$[ebp+14], -21 ; ffffffebH
  0017a	eb 4f		 jmp	 SHORT $LN1@GetIntAttr@4
$LN83@GetIntAttr@4:
  0017c	88 4d f1	 mov	 BYTE PTR __k$[ebp+13], cl
  0017f	eb 4a		 jmp	 SHORT $LN1@GetIntAttr@4
$LN84@GetIntAttr@4:
  00181	c6 45 f0 ed	 mov	 BYTE PTR __k$[ebp+12], -19 ; ffffffedH
  00185	eb 44		 jmp	 SHORT $LN1@GetIntAttr@4
$LN85@GetIntAttr@4:
  00187	c6 45 ef ea	 mov	 BYTE PTR __k$[ebp+11], -22 ; ffffffeaH
  0018b	eb 3e		 jmp	 SHORT $LN1@GetIntAttr@4
$LN86@GetIntAttr@4:
  0018d	c6 45 ee eb	 mov	 BYTE PTR __k$[ebp+10], -21 ; ffffffebH
  00191	eb 38		 jmp	 SHORT $LN1@GetIntAttr@4
$LN87@GetIntAttr@4:
  00193	88 4d ed	 mov	 BYTE PTR __k$[ebp+9], cl
  00196	eb 33		 jmp	 SHORT $LN1@GetIntAttr@4
$LN88@GetIntAttr@4:
  00198	c6 45 ec ed	 mov	 BYTE PTR __k$[ebp+8], -19 ; ffffffedH
  0019c	eb 2d		 jmp	 SHORT $LN1@GetIntAttr@4
$LN89@GetIntAttr@4:
  0019e	c6 45 eb ea	 mov	 BYTE PTR __k$[ebp+7], -22 ; ffffffeaH
  001a2	eb 27		 jmp	 SHORT $LN1@GetIntAttr@4
$LN90@GetIntAttr@4:
  001a4	c6 45 ea eb	 mov	 BYTE PTR __k$[ebp+6], -21 ; ffffffebH
  001a8	eb 21		 jmp	 SHORT $LN1@GetIntAttr@4
$LN91@GetIntAttr@4:
  001aa	88 4d e9	 mov	 BYTE PTR __k$[ebp+5], cl
  001ad	eb 1c		 jmp	 SHORT $LN1@GetIntAttr@4
$LN92@GetIntAttr@4:
  001af	c6 45 e8 ed	 mov	 BYTE PTR __k$[ebp+4], -19 ; ffffffedH
  001b3	eb 16		 jmp	 SHORT $LN1@GetIntAttr@4
$LN93@GetIntAttr@4:
  001b5	c6 45 e7 ea	 mov	 BYTE PTR __k$[ebp+3], -22 ; ffffffeaH
  001b9	eb 10		 jmp	 SHORT $LN1@GetIntAttr@4
$LN94@GetIntAttr@4:
  001bb	c6 45 e6 eb	 mov	 BYTE PTR __k$[ebp+2], -21 ; ffffffebH
  001bf	eb 0a		 jmp	 SHORT $LN1@GetIntAttr@4
$LN95@GetIntAttr@4:
  001c1	c6 45 e5 ec	 mov	 BYTE PTR __k$[ebp+1], -20 ; ffffffecH
  001c5	eb 04		 jmp	 SHORT $LN1@GetIntAttr@4
$LN96@GetIntAttr@4:
  001c7	c6 45 e4 ed	 mov	 BYTE PTR __k$[ebp], -19	; ffffffedH
$LN1@GetIntAttr@4:
  001cb	6a 04		 push	 4
  001cd	8d 45 e4	 lea	 eax, DWORD PTR __k$[ebp]
  001d0	c6 45 f4 00	 mov	 BYTE PTR __k$[ebp+16], 0
  001d4	5a		 pop	 edx
$LL104@GetIntAttr@4:
  001d5	81 30 ed ec eb
	ea		 xor	 DWORD PTR [eax], -353637139 ; eaebecedH
  001db	83 c0 04	 add	 eax, 4
  001de	4a		 dec	 edx
  001df	75 f4		 jne	 SHORT $LL104@GetIntAttr@4

; 88   : 		return GetIntAttribute(_k);

  001e1	8d 45 e4	 lea	 eax, DWORD PTR __k$[ebp]
  001e4	50		 push	 eax
  001e5	8b ce		 mov	 ecx, esi
  001e7	ff 15 00 00 00
	00		 call	 DWORD PTR __imp_?GetIntAttribute@ioXMLElement@@QBEHPBD@Z

; 89   : 	}

  001ed	8b 4d fc	 mov	 ecx, DWORD PTR __$ArrayPad$[ebp]
  001f0	33 cd		 xor	 ecx, ebp
  001f2	5e		 pop	 esi
  001f3	e8 00 00 00 00	 call	 @__security_check_cookie@4
  001f8	c9		 leave
  001f9	c2 04 00	 ret	 4
??$GetIntAttribute_e@$0BB@@ioXMLElement@@QBEHAAY0BB@$$CBD@Z ENDP ; ioXMLElement::GetIntAttribute_e<17>
_TEXT	ENDS
PUBLIC	__$ArrayPad$
PUBLIC	??$?8$0M@@@YA_NABVioHashString@@AAY0M@$$CBD@Z	; operator==<12>
; Function compile flags: /Ogsp
; File d:\lost saga for developer\youtube\tutorial\source\src\io3dengine\iohashstring.h
;	COMDAT ??$?8$0M@@@YA_NABVioHashString@@AAY0M@$$CBD@Z
_TEXT	SEGMENT
__t$ = -20						; size = 12
__$ArrayPad$ = -4					; size = 4
_lhs$ = 8						; size = 4
_t$ = 12						; size = 4
??$?8$0M@@@YA_NABVioHashString@@AAY0M@$$CBD@Z PROC	; operator==<12>, COMDAT

; 146  : {

  00000	55		 push	 ebp
  00001	8b ec		 mov	 ebp, esp
  00003	83 ec 14	 sub	 esp, 20			; 00000014H
  00006	a1 00 00 00 00	 mov	 eax, DWORD PTR ___security_cookie
  0000b	33 c5		 xor	 eax, ebp
  0000d	89 45 fc	 mov	 DWORD PTR __$ArrayPad$[ebp], eax
  00010	8b 45 0c	 mov	 eax, DWORD PTR _t$[ebp]

; 147  : 	_ENCSTR(t, _t); return ( strcmp( lhs.c_str(), _t ) == 0 );

  00013	8a 10		 mov	 dl, BYTE PTR [eax]
  00015	56		 push	 esi
  00016	57		 push	 edi
  00017	8b 7d 08	 mov	 edi, DWORD PTR _lhs$[ebp]
  0001a	84 d2		 test	 dl, dl
  0001c	0f 84 32 01 00
	00		 je	 $LN96@operator
  00022	80 f2 ed	 xor	 dl, -19			; ffffffedH
  00025	88 55 ec	 mov	 BYTE PTR __t$[ebp], dl
  00028	8a 50 01	 mov	 dl, BYTE PTR [eax+1]
  0002b	84 d2		 test	 dl, dl
  0002d	0f 84 1b 01 00
	00		 je	 $LN95@operator
  00033	80 f2 ec	 xor	 dl, -20			; ffffffecH
  00036	88 55 ed	 mov	 BYTE PTR __t$[ebp+1], dl
  00039	8a 50 02	 mov	 dl, BYTE PTR [eax+2]
  0003c	84 d2		 test	 dl, dl
  0003e	0f 84 04 01 00
	00		 je	 $LN94@operator
  00044	b1 eb		 mov	 cl, -21			; ffffffebH
  00046	32 d1		 xor	 dl, cl
  00048	88 55 ee	 mov	 BYTE PTR __t$[ebp+2], dl
  0004b	8a 50 03	 mov	 dl, BYTE PTR [eax+3]
  0004e	84 d2		 test	 dl, dl
  00050	0f 84 ec 00 00
	00		 je	 $LN93@operator
  00056	80 f2 ea	 xor	 dl, -22			; ffffffeaH
  00059	88 55 ef	 mov	 BYTE PTR __t$[ebp+3], dl
  0005c	8a 50 04	 mov	 dl, BYTE PTR [eax+4]
  0005f	84 d2		 test	 dl, dl
  00061	0f 84 d5 00 00
	00		 je	 $LN92@operator
  00067	80 f2 ed	 xor	 dl, -19			; ffffffedH
  0006a	88 55 f0	 mov	 BYTE PTR __t$[ebp+4], dl
  0006d	8a 50 05	 mov	 dl, BYTE PTR [eax+5]
  00070	84 d2		 test	 dl, dl
  00072	0f 84 be 00 00
	00		 je	 $LN91@operator
  00078	80 f2 ec	 xor	 dl, -20			; ffffffecH
  0007b	88 55 f1	 mov	 BYTE PTR __t$[ebp+5], dl
  0007e	8a 50 06	 mov	 dl, BYTE PTR [eax+6]
  00081	84 d2		 test	 dl, dl
  00083	0f 84 a8 00 00
	00		 je	 $LN90@operator
  00089	32 d1		 xor	 dl, cl
  0008b	88 55 f2	 mov	 BYTE PTR __t$[ebp+6], dl
  0008e	8a 50 07	 mov	 dl, BYTE PTR [eax+7]
  00091	84 d2		 test	 dl, dl
  00093	0f 84 92 00 00
	00		 je	 $LN89@operator
  00099	80 f2 ea	 xor	 dl, -22			; ffffffeaH
  0009c	88 55 f3	 mov	 BYTE PTR __t$[ebp+7], dl
  0009f	8a 50 08	 mov	 dl, BYTE PTR [eax+8]
  000a2	84 d2		 test	 dl, dl
  000a4	74 7f		 je	 SHORT $LN88@operator
  000a6	80 f2 ed	 xor	 dl, -19			; ffffffedH
  000a9	88 55 f4	 mov	 BYTE PTR __t$[ebp+8], dl
  000ac	8a 50 09	 mov	 dl, BYTE PTR [eax+9]
  000af	84 d2		 test	 dl, dl
  000b1	74 6c		 je	 SHORT $LN87@operator
  000b3	80 f2 ec	 xor	 dl, -20			; ffffffecH
  000b6	88 55 f5	 mov	 BYTE PTR __t$[ebp+9], dl
  000b9	8a 50 0a	 mov	 dl, BYTE PTR [eax+10]
  000bc	84 d2		 test	 dl, dl
  000be	74 5a		 je	 SHORT $LN86@operator
  000c0	32 d1		 xor	 dl, cl
  000c2	80 78 0b 00	 cmp	 BYTE PTR [eax+11], 0
  000c6	88 55 f6	 mov	 BYTE PTR __t$[ebp+10], dl
  000c9	0f 84 89 00 00
	00		 je	 $LN1@operator
  000cf	8a 50 0c	 mov	 dl, BYTE PTR [eax+12]
  000d2	84 d2		 test	 dl, dl
  000d4	74 3e		 je	 SHORT $LN84@operator
  000d6	80 f2 ed	 xor	 dl, -19			; ffffffedH
  000d9	88 55 f8	 mov	 BYTE PTR __t$[ebp+12], dl
  000dc	8a 50 0d	 mov	 dl, BYTE PTR [eax+13]
  000df	84 d2		 test	 dl, dl
  000e1	74 2b		 je	 SHORT $LN83@operator
  000e3	80 f2 ec	 xor	 dl, -20			; ffffffecH
  000e6	88 55 f9	 mov	 BYTE PTR __t$[ebp+13], dl
  000e9	8a 50 0e	 mov	 dl, BYTE PTR [eax+14]
  000ec	84 d2		 test	 dl, dl
  000ee	74 19		 je	 SHORT $LN82@operator
  000f0	8a 40 0f	 mov	 al, BYTE PTR [eax+15]
  000f3	32 d1		 xor	 dl, cl
  000f5	88 55 fa	 mov	 BYTE PTR __t$[ebp+14], dl
  000f8	84 c0		 test	 al, al
  000fa	74 07		 je	 SHORT $LN81@operator
  000fc	34 ea		 xor	 al, -22			; ffffffeaH
  000fe	88 45 fb	 mov	 BYTE PTR __t$[ebp+15], al
  00101	eb 55		 jmp	 SHORT $LN1@operator
$LN81@operator:
  00103	c6 45 fb ea	 mov	 BYTE PTR __t$[ebp+15], -22 ; ffffffeaH
  00107	eb 4f		 jmp	 SHORT $LN1@operator
$LN82@operator:
  00109	88 4d fa	 mov	 BYTE PTR __t$[ebp+14], cl
  0010c	eb 4a		 jmp	 SHORT $LN1@operator
$LN83@operator:
  0010e	c6 45 f9 ec	 mov	 BYTE PTR __t$[ebp+13], -20 ; ffffffecH
  00112	eb 44		 jmp	 SHORT $LN1@operator
$LN84@operator:
  00114	c6 45 f8 ed	 mov	 BYTE PTR __t$[ebp+12], -19 ; ffffffedH
  00118	eb 3e		 jmp	 SHORT $LN1@operator
$LN86@operator:
  0011a	88 4d f6	 mov	 BYTE PTR __t$[ebp+10], cl
  0011d	eb 39		 jmp	 SHORT $LN1@operator
$LN87@operator:
  0011f	c6 45 f5 ec	 mov	 BYTE PTR __t$[ebp+9], -20 ; ffffffecH
  00123	eb 33		 jmp	 SHORT $LN1@operator
$LN88@operator:
  00125	c6 45 f4 ed	 mov	 BYTE PTR __t$[ebp+8], -19 ; ffffffedH
  00129	eb 2d		 jmp	 SHORT $LN1@operator
$LN89@operator:
  0012b	c6 45 f3 ea	 mov	 BYTE PTR __t$[ebp+7], -22 ; ffffffeaH
  0012f	eb 27		 jmp	 SHORT $LN1@operator
$LN90@operator:
  00131	88 4d f2	 mov	 BYTE PTR __t$[ebp+6], cl
  00134	eb 22		 jmp	 SHORT $LN1@operator
$LN91@operator:
  00136	c6 45 f1 ec	 mov	 BYTE PTR __t$[ebp+5], -20 ; ffffffecH
  0013a	eb 1c		 jmp	 SHORT $LN1@operator
$LN92@operator:
  0013c	c6 45 f0 ed	 mov	 BYTE PTR __t$[ebp+4], -19 ; ffffffedH
  00140	eb 16		 jmp	 SHORT $LN1@operator
$LN93@operator:
  00142	c6 45 ef ea	 mov	 BYTE PTR __t$[ebp+3], -22 ; ffffffeaH
  00146	eb 10		 jmp	 SHORT $LN1@operator
$LN94@operator:
  00148	c6 45 ee eb	 mov	 BYTE PTR __t$[ebp+2], -21 ; ffffffebH
  0014c	eb 0a		 jmp	 SHORT $LN1@operator
$LN95@operator:
  0014e	c6 45 ed ec	 mov	 BYTE PTR __t$[ebp+1], -20 ; ffffffecH
  00152	eb 04		 jmp	 SHORT $LN1@operator
$LN96@operator:
  00154	c6 45 ec ed	 mov	 BYTE PTR __t$[ebp], -19	; ffffffedH
$LN1@operator:
  00158	6a 02		 push	 2
  0015a	8d 45 ec	 lea	 eax, DWORD PTR __t$[ebp]
  0015d	c6 45 f7 00	 mov	 BYTE PTR __t$[ebp+11], 0
  00161	5a		 pop	 edx
$LL104@operator:
  00162	81 30 ed ec eb
	ea		 xor	 DWORD PTR [eax], -353637139 ; eaebecedH
  00168	83 c0 04	 add	 eax, 4
  0016b	4a		 dec	 edx
  0016c	75 f4		 jne	 SHORT $LL104@operator
  0016e	6a 08		 push	 8
  00170	58		 pop	 eax
$LL101@operator:
  00171	8b c8		 mov	 ecx, eax
  00173	81 e1 03 00 00
	80		 and	 ecx, -2147483645	; 80000003H
  00179	79 05		 jns	 SHORT $LN115@operator
  0017b	49		 dec	 ecx
  0017c	83 c9 fc	 or	 ecx, -4			; fffffffcH
  0017f	41		 inc	 ecx
$LN115@operator:
  00180	b2 ed		 mov	 dl, -19			; ffffffedH
  00182	2a d1		 sub	 dl, cl
  00184	30 54 05 ec	 xor	 BYTE PTR __t$[ebp+eax], dl
  00188	40		 inc	 eax
  00189	83 f8 0b	 cmp	 eax, 11			; 0000000bH
  0018c	7c e3		 jl	 SHORT $LL101@operator
  0018e	8b cf		 mov	 ecx, edi
  00190	8d 75 ec	 lea	 esi, DWORD PTR __t$[ebp]
  00193	ff 15 00 00 00
	00		 call	 DWORD PTR __imp_?c_str@ioHashString@@QBEPBDXZ
$LL111@operator:
  00199	8a 08		 mov	 cl, BYTE PTR [eax]
  0019b	3a 0e		 cmp	 cl, BYTE PTR [esi]
  0019d	75 1a		 jne	 SHORT $LN112@operator
  0019f	84 c9		 test	 cl, cl
  001a1	74 12		 je	 SHORT $LN113@operator
  001a3	8a 48 01	 mov	 cl, BYTE PTR [eax+1]
  001a6	3a 4e 01	 cmp	 cl, BYTE PTR [esi+1]
  001a9	75 0e		 jne	 SHORT $LN112@operator
  001ab	83 c0 02	 add	 eax, 2
  001ae	83 c6 02	 add	 esi, 2
  001b1	84 c9		 test	 cl, cl
  001b3	75 e4		 jne	 SHORT $LL111@operator
$LN113@operator:
  001b5	33 c0		 xor	 eax, eax
  001b7	eb 05		 jmp	 SHORT $LN114@operator
$LN112@operator:
  001b9	1b c0		 sbb	 eax, eax
  001bb	83 d8 ff	 sbb	 eax, -1
$LN114@operator:
  001be	33 c9		 xor	 ecx, ecx
  001c0	85 c0		 test	 eax, eax
  001c2	0f 94 c0	 sete	 al

; 148  : }

  001c5	8b 4d fc	 mov	 ecx, DWORD PTR __$ArrayPad$[ebp]
  001c8	5f		 pop	 edi
  001c9	33 cd		 xor	 ecx, ebp
  001cb	5e		 pop	 esi
  001cc	e8 00 00 00 00	 call	 @__security_check_cookie@4
  001d1	c9		 leave
  001d2	c3		 ret	 0
??$?8$0M@@@YA_NABVioHashString@@AAY0M@$$CBD@Z ENDP	; operator==<12>
_TEXT	ENDS
PUBLIC	__$ArrayPad$
PUBLIC	??$?8$04@@YA_NABVioHashString@@AAY04$$CBD@Z	; operator==<5>
; Function compile flags: /Ogsp
;	COMDAT ??$?8$04@@YA_NABVioHashString@@AAY04$$CBD@Z
_TEXT	SEGMENT
__t$ = -16						; size = 5
__$ArrayPad$ = -4					; size = 4
_lhs$ = 8						; size = 4
_t$ = 12						; size = 4
??$?8$04@@YA_NABVioHashString@@AAY04$$CBD@Z PROC	; operator==<5>, COMDAT

; 146  : {

  00000	55		 push	 ebp
  00001	8b ec		 mov	 ebp, esp
  00003	83 ec 10	 sub	 esp, 16			; 00000010H
  00006	a1 00 00 00 00	 mov	 eax, DWORD PTR ___security_cookie
  0000b	33 c5		 xor	 eax, ebp
  0000d	89 45 fc	 mov	 DWORD PTR __$ArrayPad$[ebp], eax
  00010	8b 45 0c	 mov	 eax, DWORD PTR _t$[ebp]

; 147  : 	_ENCSTR(t, _t); return ( strcmp( lhs.c_str(), _t ) == 0 );

  00013	8a 10		 mov	 dl, BYTE PTR [eax]
  00015	8b 4d 08	 mov	 ecx, DWORD PTR _lhs$[ebp]
  00018	84 d2		 test	 dl, dl
  0001a	0f 84 92 00 00
	00		 je	 $LN96@operator@2
  00020	80 f2 ed	 xor	 dl, -19			; ffffffedH
  00023	88 55 f0	 mov	 BYTE PTR __t$[ebp], dl
  00026	8a 50 01	 mov	 dl, BYTE PTR [eax+1]
  00029	84 d2		 test	 dl, dl
  0002b	74 7f		 je	 SHORT $LN95@operator@2
  0002d	80 f2 ec	 xor	 dl, -20			; ffffffecH
  00030	88 55 f1	 mov	 BYTE PTR __t$[ebp+1], dl
  00033	8a 50 02	 mov	 dl, BYTE PTR [eax+2]
  00036	84 d2		 test	 dl, dl
  00038	74 6c		 je	 SHORT $LN94@operator@2
  0003a	80 f2 eb	 xor	 dl, -21			; ffffffebH
  0003d	88 55 f2	 mov	 BYTE PTR __t$[ebp+2], dl
  00040	8a 50 03	 mov	 dl, BYTE PTR [eax+3]
  00043	84 d2		 test	 dl, dl
  00045	74 59		 je	 SHORT $LN93@operator@2
  00047	80 f2 ea	 xor	 dl, -22			; ffffffeaH
  0004a	80 78 04 00	 cmp	 BYTE PTR [eax+4], 0
  0004e	88 55 f3	 mov	 BYTE PTR __t$[ebp+3], dl
  00051	74 63		 je	 SHORT $LN1@operator@2
  00053	8a 50 05	 mov	 dl, BYTE PTR [eax+5]
  00056	84 d2		 test	 dl, dl
  00058	74 40		 je	 SHORT $LN91@operator@2
  0005a	80 f2 ec	 xor	 dl, -20			; ffffffecH
  0005d	88 55 f5	 mov	 BYTE PTR __t$[ebp+5], dl
  00060	8a 50 06	 mov	 dl, BYTE PTR [eax+6]
  00063	84 d2		 test	 dl, dl
  00065	74 2d		 je	 SHORT $LN90@operator@2
  00067	80 f2 eb	 xor	 dl, -21			; ffffffebH
  0006a	88 55 f6	 mov	 BYTE PTR __t$[ebp+6], dl
  0006d	8a 50 07	 mov	 dl, BYTE PTR [eax+7]
  00070	84 d2		 test	 dl, dl
  00072	74 1a		 je	 SHORT $LN89@operator@2
  00074	8a 40 08	 mov	 al, BYTE PTR [eax+8]
  00077	80 f2 ea	 xor	 dl, -22			; ffffffeaH
  0007a	88 55 f7	 mov	 BYTE PTR __t$[ebp+7], dl
  0007d	84 c0		 test	 al, al
  0007f	74 07		 je	 SHORT $LN88@operator@2
  00081	34 ed		 xor	 al, -19			; ffffffedH
  00083	88 45 f8	 mov	 BYTE PTR __t$[ebp+8], al
  00086	eb 2e		 jmp	 SHORT $LN1@operator@2
$LN88@operator@2:
  00088	c6 45 f8 ed	 mov	 BYTE PTR __t$[ebp+8], -19 ; ffffffedH
  0008c	eb 28		 jmp	 SHORT $LN1@operator@2
$LN89@operator@2:
  0008e	c6 45 f7 ea	 mov	 BYTE PTR __t$[ebp+7], -22 ; ffffffeaH
  00092	eb 22		 jmp	 SHORT $LN1@operator@2
$LN90@operator@2:
  00094	c6 45 f6 eb	 mov	 BYTE PTR __t$[ebp+6], -21 ; ffffffebH
  00098	eb 1c		 jmp	 SHORT $LN1@operator@2
$LN91@operator@2:
  0009a	c6 45 f5 ec	 mov	 BYTE PTR __t$[ebp+5], -20 ; ffffffecH
  0009e	eb 16		 jmp	 SHORT $LN1@operator@2
$LN93@operator@2:
  000a0	c6 45 f3 ea	 mov	 BYTE PTR __t$[ebp+3], -22 ; ffffffeaH
  000a4	eb 10		 jmp	 SHORT $LN1@operator@2
$LN94@operator@2:
  000a6	c6 45 f2 eb	 mov	 BYTE PTR __t$[ebp+2], -21 ; ffffffebH
  000aa	eb 0a		 jmp	 SHORT $LN1@operator@2
$LN95@operator@2:
  000ac	c6 45 f1 ec	 mov	 BYTE PTR __t$[ebp+1], -20 ; ffffffecH
  000b0	eb 04		 jmp	 SHORT $LN1@operator@2
$LN96@operator@2:
  000b2	c6 45 f0 ed	 mov	 BYTE PTR __t$[ebp], -19	; ffffffedH
$LN1@operator@2:
  000b6	81 75 f0 ed ec
	eb ea		 xor	 DWORD PTR __t$[ebp], -353637139 ; eaebecedH
  000bd	56		 push	 esi
  000be	c6 45 f4 00	 mov	 BYTE PTR __t$[ebp+4], 0
  000c2	8d 75 f0	 lea	 esi, DWORD PTR __t$[ebp]
  000c5	ff 15 00 00 00
	00		 call	 DWORD PTR __imp_?c_str@ioHashString@@QBEPBDXZ
$LL111@operator@2:
  000cb	8a 08		 mov	 cl, BYTE PTR [eax]
  000cd	3a 0e		 cmp	 cl, BYTE PTR [esi]
  000cf	75 1a		 jne	 SHORT $LN112@operator@2
  000d1	84 c9		 test	 cl, cl
  000d3	74 12		 je	 SHORT $LN113@operator@2
  000d5	8a 48 01	 mov	 cl, BYTE PTR [eax+1]
  000d8	3a 4e 01	 cmp	 cl, BYTE PTR [esi+1]
  000db	75 0e		 jne	 SHORT $LN112@operator@2
  000dd	83 c0 02	 add	 eax, 2
  000e0	83 c6 02	 add	 esi, 2
  000e3	84 c9		 test	 cl, cl
  000e5	75 e4		 jne	 SHORT $LL111@operator@2
$LN113@operator@2:
  000e7	33 c0		 xor	 eax, eax
  000e9	eb 05		 jmp	 SHORT $LN114@operator@2
$LN112@operator@2:
  000eb	1b c0		 sbb	 eax, eax
  000ed	83 d8 ff	 sbb	 eax, -1
$LN114@operator@2:
  000f0	33 c9		 xor	 ecx, ecx
  000f2	85 c0		 test	 eax, eax
  000f4	0f 94 c0	 sete	 al

; 148  : }

  000f7	8b 4d fc	 mov	 ecx, DWORD PTR __$ArrayPad$[ebp]
  000fa	33 cd		 xor	 ecx, ebp
  000fc	5e		 pop	 esi
  000fd	e8 00 00 00 00	 call	 @__security_check_cookie@4
  00102	c9		 leave
  00103	c3		 ret	 0
??$?8$04@@YA_NABVioHashString@@AAY04$$CBD@Z ENDP	; operator==<5>
_TEXT	ENDS
PUBLIC	__$ArrayPad$
PUBLIC	??$?8$08@@YA_NABVioHashString@@AAY08$$CBD@Z	; operator==<9>
; Function compile flags: /Ogsp
;	COMDAT ??$?8$08@@YA_NABVioHashString@@AAY08$$CBD@Z
_TEXT	SEGMENT
__t$ = -20						; size = 9
__$ArrayPad$ = -4					; size = 4
_lhs$ = 8						; size = 4
_t$ = 12						; size = 4
??$?8$08@@YA_NABVioHashString@@AAY08$$CBD@Z PROC	; operator==<9>, COMDAT

; 146  : {

  00000	55		 push	 ebp
  00001	8b ec		 mov	 ebp, esp
  00003	83 ec 14	 sub	 esp, 20			; 00000014H
  00006	a1 00 00 00 00	 mov	 eax, DWORD PTR ___security_cookie
  0000b	33 c5		 xor	 eax, ebp
  0000d	89 45 fc	 mov	 DWORD PTR __$ArrayPad$[ebp], eax
  00010	8b 45 0c	 mov	 eax, DWORD PTR _t$[ebp]

; 147  : 	_ENCSTR(t, _t); return ( strcmp( lhs.c_str(), _t ) == 0 );

  00013	8a 10		 mov	 dl, BYTE PTR [eax]
  00015	8b 4d 08	 mov	 ecx, DWORD PTR _lhs$[ebp]
  00018	84 d2		 test	 dl, dl
  0001a	0f 84 ee 00 00
	00		 je	 $LN96@operator@3
  00020	80 f2 ed	 xor	 dl, -19			; ffffffedH
  00023	88 55 ec	 mov	 BYTE PTR __t$[ebp], dl
  00026	8a 50 01	 mov	 dl, BYTE PTR [eax+1]
  00029	84 d2		 test	 dl, dl
  0002b	0f 84 d7 00 00
	00		 je	 $LN95@operator@3
  00031	80 f2 ec	 xor	 dl, -20			; ffffffecH
  00034	88 55 ed	 mov	 BYTE PTR __t$[ebp+1], dl
  00037	8a 50 02	 mov	 dl, BYTE PTR [eax+2]
  0003a	84 d2		 test	 dl, dl
  0003c	0f 84 c0 00 00
	00		 je	 $LN94@operator@3
  00042	80 f2 eb	 xor	 dl, -21			; ffffffebH
  00045	88 55 ee	 mov	 BYTE PTR __t$[ebp+2], dl
  00048	8a 50 03	 mov	 dl, BYTE PTR [eax+3]
  0004b	84 d2		 test	 dl, dl
  0004d	0f 84 a9 00 00
	00		 je	 $LN93@operator@3
  00053	80 f2 ea	 xor	 dl, -22			; ffffffeaH
  00056	88 55 ef	 mov	 BYTE PTR __t$[ebp+3], dl
  00059	8a 50 04	 mov	 dl, BYTE PTR [eax+4]
  0005c	84 d2		 test	 dl, dl
  0005e	0f 84 92 00 00
	00		 je	 $LN92@operator@3
  00064	80 f2 ed	 xor	 dl, -19			; ffffffedH
  00067	88 55 f0	 mov	 BYTE PTR __t$[ebp+4], dl
  0006a	8a 50 05	 mov	 dl, BYTE PTR [eax+5]
  0006d	84 d2		 test	 dl, dl
  0006f	74 7f		 je	 SHORT $LN91@operator@3
  00071	80 f2 ec	 xor	 dl, -20			; ffffffecH
  00074	88 55 f1	 mov	 BYTE PTR __t$[ebp+5], dl
  00077	8a 50 06	 mov	 dl, BYTE PTR [eax+6]
  0007a	84 d2		 test	 dl, dl
  0007c	74 6c		 je	 SHORT $LN90@operator@3
  0007e	80 f2 eb	 xor	 dl, -21			; ffffffebH
  00081	88 55 f2	 mov	 BYTE PTR __t$[ebp+6], dl
  00084	8a 50 07	 mov	 dl, BYTE PTR [eax+7]
  00087	84 d2		 test	 dl, dl
  00089	74 59		 je	 SHORT $LN89@operator@3
  0008b	80 f2 ea	 xor	 dl, -22			; ffffffeaH
  0008e	80 78 08 00	 cmp	 BYTE PTR [eax+8], 0
  00092	88 55 f3	 mov	 BYTE PTR __t$[ebp+7], dl
  00095	74 7b		 je	 SHORT $LN1@operator@3
  00097	8a 50 09	 mov	 dl, BYTE PTR [eax+9]
  0009a	84 d2		 test	 dl, dl
  0009c	74 40		 je	 SHORT $LN87@operator@3
  0009e	80 f2 ec	 xor	 dl, -20			; ffffffecH
  000a1	88 55 f5	 mov	 BYTE PTR __t$[ebp+9], dl
  000a4	8a 50 0a	 mov	 dl, BYTE PTR [eax+10]
  000a7	84 d2		 test	 dl, dl
  000a9	74 2d		 je	 SHORT $LN86@operator@3
  000ab	80 f2 eb	 xor	 dl, -21			; ffffffebH
  000ae	88 55 f6	 mov	 BYTE PTR __t$[ebp+10], dl
  000b1	8a 50 0b	 mov	 dl, BYTE PTR [eax+11]
  000b4	84 d2		 test	 dl, dl
  000b6	74 1a		 je	 SHORT $LN85@operator@3
  000b8	8a 40 0c	 mov	 al, BYTE PTR [eax+12]
  000bb	80 f2 ea	 xor	 dl, -22			; ffffffeaH
  000be	88 55 f7	 mov	 BYTE PTR __t$[ebp+11], dl
  000c1	84 c0		 test	 al, al
  000c3	74 07		 je	 SHORT $LN84@operator@3
  000c5	34 ed		 xor	 al, -19			; ffffffedH
  000c7	88 45 f8	 mov	 BYTE PTR __t$[ebp+12], al
  000ca	eb 46		 jmp	 SHORT $LN1@operator@3
$LN84@operator@3:
  000cc	c6 45 f8 ed	 mov	 BYTE PTR __t$[ebp+12], -19 ; ffffffedH
  000d0	eb 40		 jmp	 SHORT $LN1@operator@3
$LN85@operator@3:
  000d2	c6 45 f7 ea	 mov	 BYTE PTR __t$[ebp+11], -22 ; ffffffeaH
  000d6	eb 3a		 jmp	 SHORT $LN1@operator@3
$LN86@operator@3:
  000d8	c6 45 f6 eb	 mov	 BYTE PTR __t$[ebp+10], -21 ; ffffffebH
  000dc	eb 34		 jmp	 SHORT $LN1@operator@3
$LN87@operator@3:
  000de	c6 45 f5 ec	 mov	 BYTE PTR __t$[ebp+9], -20 ; ffffffecH
  000e2	eb 2e		 jmp	 SHORT $LN1@operator@3
$LN89@operator@3:
  000e4	c6 45 f3 ea	 mov	 BYTE PTR __t$[ebp+7], -22 ; ffffffeaH
  000e8	eb 28		 jmp	 SHORT $LN1@operator@3
$LN90@operator@3:
  000ea	c6 45 f2 eb	 mov	 BYTE PTR __t$[ebp+6], -21 ; ffffffebH
  000ee	eb 22		 jmp	 SHORT $LN1@operator@3
$LN91@operator@3:
  000f0	c6 45 f1 ec	 mov	 BYTE PTR __t$[ebp+5], -20 ; ffffffecH
  000f4	eb 1c		 jmp	 SHORT $LN1@operator@3
$LN92@operator@3:
  000f6	c6 45 f0 ed	 mov	 BYTE PTR __t$[ebp+4], -19 ; ffffffedH
  000fa	eb 16		 jmp	 SHORT $LN1@operator@3
$LN93@operator@3:
  000fc	c6 45 ef ea	 mov	 BYTE PTR __t$[ebp+3], -22 ; ffffffeaH
  00100	eb 10		 jmp	 SHORT $LN1@operator@3
$LN94@operator@3:
  00102	c6 45 ee eb	 mov	 BYTE PTR __t$[ebp+2], -21 ; ffffffebH
  00106	eb 0a		 jmp	 SHORT $LN1@operator@3
$LN95@operator@3:
  00108	c6 45 ed ec	 mov	 BYTE PTR __t$[ebp+1], -20 ; ffffffecH
  0010c	eb 04		 jmp	 SHORT $LN1@operator@3
$LN96@operator@3:
  0010e	c6 45 ec ed	 mov	 BYTE PTR __t$[ebp], -19	; ffffffedH
$LN1@operator@3:
  00112	6a 02		 push	 2
  00114	8d 45 ec	 lea	 eax, DWORD PTR __t$[ebp]
  00117	c6 45 f4 00	 mov	 BYTE PTR __t$[ebp+8], 0
  0011b	5a		 pop	 edx
$LL104@operator@3:
  0011c	81 30 ed ec eb
	ea		 xor	 DWORD PTR [eax], -353637139 ; eaebecedH
  00122	83 c0 04	 add	 eax, 4
  00125	4a		 dec	 edx
  00126	75 f4		 jne	 SHORT $LL104@operator@3
  00128	56		 push	 esi
  00129	8d 75 ec	 lea	 esi, DWORD PTR __t$[ebp]
  0012c	ff 15 00 00 00
	00		 call	 DWORD PTR __imp_?c_str@ioHashString@@QBEPBDXZ
$LL111@operator@3:
  00132	8a 08		 mov	 cl, BYTE PTR [eax]
  00134	3a 0e		 cmp	 cl, BYTE PTR [esi]
  00136	75 1a		 jne	 SHORT $LN112@operator@3
  00138	84 c9		 test	 cl, cl
  0013a	74 12		 je	 SHORT $LN113@operator@3
  0013c	8a 48 01	 mov	 cl, BYTE PTR [eax+1]
  0013f	3a 4e 01	 cmp	 cl, BYTE PTR [esi+1]
  00142	75 0e		 jne	 SHORT $LN112@operator@3
  00144	83 c0 02	 add	 eax, 2
  00147	83 c6 02	 add	 esi, 2
  0014a	84 c9		 test	 cl, cl
  0014c	75 e4		 jne	 SHORT $LL111@operator@3
$LN113@operator@3:
  0014e	33 c0		 xor	 eax, eax
  00150	eb 05		 jmp	 SHORT $LN114@operator@3
$LN112@operator@3:
  00152	1b c0		 sbb	 eax, eax
  00154	83 d8 ff	 sbb	 eax, -1
$LN114@operator@3:
  00157	33 c9		 xor	 ecx, ecx
  00159	85 c0		 test	 eax, eax
  0015b	0f 94 c0	 sete	 al

; 148  : }

  0015e	8b 4d fc	 mov	 ecx, DWORD PTR __$ArrayPad$[ebp]
  00161	33 cd		 xor	 ecx, ebp
  00163	5e		 pop	 esi
  00164	e8 00 00 00 00	 call	 @__security_check_cookie@4
  00169	c9		 leave
  0016a	c3		 ret	 0
??$?8$08@@YA_NABVioHashString@@AAY08$$CBD@Z ENDP	; operator==<9>
_TEXT	ENDS
PUBLIC	__$ArrayPad$
PUBLIC	??$?8$0N@@@YA_NABVioHashString@@AAY0N@$$CBD@Z	; operator==<13>
; Function compile flags: /Ogsp
;	COMDAT ??$?8$0N@@@YA_NABVioHashString@@AAY0N@$$CBD@Z
_TEXT	SEGMENT
__t$ = -24						; size = 13
__$ArrayPad$ = -4					; size = 4
_lhs$ = 8						; size = 4
_t$ = 12						; size = 4
??$?8$0N@@@YA_NABVioHashString@@AAY0N@$$CBD@Z PROC	; operator==<13>, COMDAT

; 146  : {

  00000	55		 push	 ebp
  00001	8b ec		 mov	 ebp, esp
  00003	83 ec 18	 sub	 esp, 24			; 00000018H
  00006	a1 00 00 00 00	 mov	 eax, DWORD PTR ___security_cookie
  0000b	33 c5		 xor	 eax, ebp
  0000d	89 45 fc	 mov	 DWORD PTR __$ArrayPad$[ebp], eax
  00010	8b 45 0c	 mov	 eax, DWORD PTR _t$[ebp]

; 147  : 	_ENCSTR(t, _t); return ( strcmp( lhs.c_str(), _t ) == 0 );

  00013	8a 10		 mov	 dl, BYTE PTR [eax]
  00015	56		 push	 esi
  00016	57		 push	 edi
  00017	8b 7d 08	 mov	 edi, DWORD PTR _lhs$[ebp]
  0001a	84 d2		 test	 dl, dl
  0001c	0f 84 4d 01 00
	00		 je	 $LN96@operator@4
  00022	80 f2 ed	 xor	 dl, -19			; ffffffedH
  00025	88 55 e8	 mov	 BYTE PTR __t$[ebp], dl
  00028	8a 50 01	 mov	 dl, BYTE PTR [eax+1]
  0002b	84 d2		 test	 dl, dl
  0002d	0f 84 36 01 00
	00		 je	 $LN95@operator@4
  00033	b1 ec		 mov	 cl, -20			; ffffffecH
  00035	32 d1		 xor	 dl, cl
  00037	88 55 e9	 mov	 BYTE PTR __t$[ebp+1], dl
  0003a	8a 50 02	 mov	 dl, BYTE PTR [eax+2]
  0003d	84 d2		 test	 dl, dl
  0003f	0f 84 1e 01 00
	00		 je	 $LN94@operator@4
  00045	80 f2 eb	 xor	 dl, -21			; ffffffebH
  00048	88 55 ea	 mov	 BYTE PTR __t$[ebp+2], dl
  0004b	8a 50 03	 mov	 dl, BYTE PTR [eax+3]
  0004e	84 d2		 test	 dl, dl
  00050	0f 84 07 01 00
	00		 je	 $LN93@operator@4
  00056	80 f2 ea	 xor	 dl, -22			; ffffffeaH
  00059	88 55 eb	 mov	 BYTE PTR __t$[ebp+3], dl
  0005c	8a 50 04	 mov	 dl, BYTE PTR [eax+4]
  0005f	84 d2		 test	 dl, dl
  00061	0f 84 f0 00 00
	00		 je	 $LN92@operator@4
  00067	80 f2 ed	 xor	 dl, -19			; ffffffedH
  0006a	88 55 ec	 mov	 BYTE PTR __t$[ebp+4], dl
  0006d	8a 50 05	 mov	 dl, BYTE PTR [eax+5]
  00070	84 d2		 test	 dl, dl
  00072	0f 84 da 00 00
	00		 je	 $LN91@operator@4
  00078	32 d1		 xor	 dl, cl
  0007a	88 55 ed	 mov	 BYTE PTR __t$[ebp+5], dl
  0007d	8a 50 06	 mov	 dl, BYTE PTR [eax+6]
  00080	84 d2		 test	 dl, dl
  00082	0f 84 c4 00 00
	00		 je	 $LN90@operator@4
  00088	80 f2 eb	 xor	 dl, -21			; ffffffebH
  0008b	88 55 ee	 mov	 BYTE PTR __t$[ebp+6], dl
  0008e	8a 50 07	 mov	 dl, BYTE PTR [eax+7]
  00091	84 d2		 test	 dl, dl
  00093	0f 84 ad 00 00
	00		 je	 $LN89@operator@4
  00099	80 f2 ea	 xor	 dl, -22			; ffffffeaH
  0009c	88 55 ef	 mov	 BYTE PTR __t$[ebp+7], dl
  0009f	8a 50 08	 mov	 dl, BYTE PTR [eax+8]
  000a2	84 d2		 test	 dl, dl
  000a4	0f 84 96 00 00
	00		 je	 $LN88@operator@4
  000aa	80 f2 ed	 xor	 dl, -19			; ffffffedH
  000ad	88 55 f0	 mov	 BYTE PTR __t$[ebp+8], dl
  000b0	8a 50 09	 mov	 dl, BYTE PTR [eax+9]
  000b3	84 d2		 test	 dl, dl
  000b5	0f 84 80 00 00
	00		 je	 $LN87@operator@4
  000bb	32 d1		 xor	 dl, cl
  000bd	88 55 f1	 mov	 BYTE PTR __t$[ebp+9], dl
  000c0	8a 50 0a	 mov	 dl, BYTE PTR [eax+10]
  000c3	84 d2		 test	 dl, dl
  000c5	74 6e		 je	 SHORT $LN86@operator@4
  000c7	80 f2 eb	 xor	 dl, -21			; ffffffebH
  000ca	88 55 f2	 mov	 BYTE PTR __t$[ebp+10], dl
  000cd	8a 50 0b	 mov	 dl, BYTE PTR [eax+11]
  000d0	84 d2		 test	 dl, dl
  000d2	74 5b		 je	 SHORT $LN85@operator@4
  000d4	80 f2 ea	 xor	 dl, -22			; ffffffeaH
  000d7	80 78 0c 00	 cmp	 BYTE PTR [eax+12], 0
  000db	88 55 f3	 mov	 BYTE PTR __t$[ebp+11], dl
  000de	0f 84 8f 00 00
	00		 je	 $LN1@operator@4
  000e4	8a 50 0d	 mov	 dl, BYTE PTR [eax+13]
  000e7	84 d2		 test	 dl, dl
  000e9	74 3f		 je	 SHORT $LN83@operator@4
  000eb	32 d1		 xor	 dl, cl
  000ed	88 55 f5	 mov	 BYTE PTR __t$[ebp+13], dl
  000f0	8a 50 0e	 mov	 dl, BYTE PTR [eax+14]
  000f3	84 d2		 test	 dl, dl
  000f5	74 2d		 je	 SHORT $LN82@operator@4
  000f7	80 f2 eb	 xor	 dl, -21			; ffffffebH
  000fa	88 55 f6	 mov	 BYTE PTR __t$[ebp+14], dl
  000fd	8a 50 0f	 mov	 dl, BYTE PTR [eax+15]
  00100	84 d2		 test	 dl, dl
  00102	74 1a		 je	 SHORT $LN81@operator@4
  00104	8a 40 10	 mov	 al, BYTE PTR [eax+16]
  00107	80 f2 ea	 xor	 dl, -22			; ffffffeaH
  0010a	88 55 f7	 mov	 BYTE PTR __t$[ebp+15], dl
  0010d	84 c0		 test	 al, al
  0010f	74 07		 je	 SHORT $LN80@operator@4
  00111	34 ed		 xor	 al, -19			; ffffffedH
  00113	88 45 f8	 mov	 BYTE PTR __t$[ebp+16], al
  00116	eb 5b		 jmp	 SHORT $LN1@operator@4
$LN80@operator@4:
  00118	c6 45 f8 ed	 mov	 BYTE PTR __t$[ebp+16], -19 ; ffffffedH
  0011c	eb 55		 jmp	 SHORT $LN1@operator@4
$LN81@operator@4:
  0011e	c6 45 f7 ea	 mov	 BYTE PTR __t$[ebp+15], -22 ; ffffffeaH
  00122	eb 4f		 jmp	 SHORT $LN1@operator@4
$LN82@operator@4:
  00124	c6 45 f6 eb	 mov	 BYTE PTR __t$[ebp+14], -21 ; ffffffebH
  00128	eb 49		 jmp	 SHORT $LN1@operator@4
$LN83@operator@4:
  0012a	88 4d f5	 mov	 BYTE PTR __t$[ebp+13], cl
  0012d	eb 44		 jmp	 SHORT $LN1@operator@4
$LN85@operator@4:
  0012f	c6 45 f3 ea	 mov	 BYTE PTR __t$[ebp+11], -22 ; ffffffeaH
  00133	eb 3e		 jmp	 SHORT $LN1@operator@4
$LN86@operator@4:
  00135	c6 45 f2 eb	 mov	 BYTE PTR __t$[ebp+10], -21 ; ffffffebH
  00139	eb 38		 jmp	 SHORT $LN1@operator@4
$LN87@operator@4:
  0013b	88 4d f1	 mov	 BYTE PTR __t$[ebp+9], cl
  0013e	eb 33		 jmp	 SHORT $LN1@operator@4
$LN88@operator@4:
  00140	c6 45 f0 ed	 mov	 BYTE PTR __t$[ebp+8], -19 ; ffffffedH
  00144	eb 2d		 jmp	 SHORT $LN1@operator@4
$LN89@operator@4:
  00146	c6 45 ef ea	 mov	 BYTE PTR __t$[ebp+7], -22 ; ffffffeaH
  0014a	eb 27		 jmp	 SHORT $LN1@operator@4
$LN90@operator@4:
  0014c	c6 45 ee eb	 mov	 BYTE PTR __t$[ebp+6], -21 ; ffffffebH
  00150	eb 21		 jmp	 SHORT $LN1@operator@4
$LN91@operator@4:
  00152	88 4d ed	 mov	 BYTE PTR __t$[ebp+5], cl
  00155	eb 1c		 jmp	 SHORT $LN1@operator@4
$LN92@operator@4:
  00157	c6 45 ec ed	 mov	 BYTE PTR __t$[ebp+4], -19 ; ffffffedH
  0015b	eb 16		 jmp	 SHORT $LN1@operator@4
$LN93@operator@4:
  0015d	c6 45 eb ea	 mov	 BYTE PTR __t$[ebp+3], -22 ; ffffffeaH
  00161	eb 10		 jmp	 SHORT $LN1@operator@4
$LN94@operator@4:
  00163	c6 45 ea eb	 mov	 BYTE PTR __t$[ebp+2], -21 ; ffffffebH
  00167	eb 0a		 jmp	 SHORT $LN1@operator@4
$LN95@operator@4:
  00169	c6 45 e9 ec	 mov	 BYTE PTR __t$[ebp+1], -20 ; ffffffecH
  0016d	eb 04		 jmp	 SHORT $LN1@operator@4
$LN96@operator@4:
  0016f	c6 45 e8 ed	 mov	 BYTE PTR __t$[ebp], -19	; ffffffedH
$LN1@operator@4:
  00173	6a 03		 push	 3
  00175	8d 45 e8	 lea	 eax, DWORD PTR __t$[ebp]
  00178	c6 45 f4 00	 mov	 BYTE PTR __t$[ebp+12], 0
  0017c	5a		 pop	 edx
$LL104@operator@4:
  0017d	81 30 ed ec eb
	ea		 xor	 DWORD PTR [eax], -353637139 ; eaebecedH
  00183	83 c0 04	 add	 eax, 4
  00186	4a		 dec	 edx
  00187	75 f4		 jne	 SHORT $LL104@operator@4
  00189	8b cf		 mov	 ecx, edi
  0018b	8d 75 e8	 lea	 esi, DWORD PTR __t$[ebp]
  0018e	ff 15 00 00 00
	00		 call	 DWORD PTR __imp_?c_str@ioHashString@@QBEPBDXZ
$LL111@operator@4:
  00194	8a 08		 mov	 cl, BYTE PTR [eax]
  00196	3a 0e		 cmp	 cl, BYTE PTR [esi]
  00198	75 1a		 jne	 SHORT $LN112@operator@4
  0019a	84 c9		 test	 cl, cl
  0019c	74 12		 je	 SHORT $LN113@operator@4
  0019e	8a 48 01	 mov	 cl, BYTE PTR [eax+1]
  001a1	3a 4e 01	 cmp	 cl, BYTE PTR [esi+1]
  001a4	75 0e		 jne	 SHORT $LN112@operator@4
  001a6	83 c0 02	 add	 eax, 2
  001a9	83 c6 02	 add	 esi, 2
  001ac	84 c9		 test	 cl, cl
  001ae	75 e4		 jne	 SHORT $LL111@operator@4
$LN113@operator@4:
  001b0	33 c0		 xor	 eax, eax
  001b2	eb 05		 jmp	 SHORT $LN114@operator@4
$LN112@operator@4:
  001b4	1b c0		 sbb	 eax, eax
  001b6	83 d8 ff	 sbb	 eax, -1
$LN114@operator@4:
  001b9	33 c9		 xor	 ecx, ecx
  001bb	85 c0		 test	 eax, eax
  001bd	0f 94 c0	 sete	 al

; 148  : }

  001c0	8b 4d fc	 mov	 ecx, DWORD PTR __$ArrayPad$[ebp]
  001c3	5f		 pop	 edi
  001c4	33 cd		 xor	 ecx, ebp
  001c6	5e		 pop	 esi
  001c7	e8 00 00 00 00	 call	 @__security_check_cookie@4
  001cc	c9		 leave
  001cd	c3		 ret	 0
??$?8$0N@@@YA_NABVioHashString@@AAY0N@$$CBD@Z ENDP	; operator==<13>
_TEXT	ENDS
PUBLIC	__$ArrayPad$
PUBLIC	??$?8$0L@@@YA_NABVioHashString@@AAY0L@$$CBD@Z	; operator==<11>
; Function compile flags: /Ogsp
;	COMDAT ??$?8$0L@@@YA_NABVioHashString@@AAY0L@$$CBD@Z
_TEXT	SEGMENT
__t$ = -20						; size = 11
__$ArrayPad$ = -4					; size = 4
_lhs$ = 8						; size = 4
_t$ = 12						; size = 4
??$?8$0L@@@YA_NABVioHashString@@AAY0L@$$CBD@Z PROC	; operator==<11>, COMDAT

; 146  : {

  00000	55		 push	 ebp
  00001	8b ec		 mov	 ebp, esp
  00003	83 ec 14	 sub	 esp, 20			; 00000014H
  00006	a1 00 00 00 00	 mov	 eax, DWORD PTR ___security_cookie
  0000b	33 c5		 xor	 eax, ebp
  0000d	89 45 fc	 mov	 DWORD PTR __$ArrayPad$[ebp], eax
  00010	8b 45 0c	 mov	 eax, DWORD PTR _t$[ebp]

; 147  : 	_ENCSTR(t, _t); return ( strcmp( lhs.c_str(), _t ) == 0 );

  00013	8a 10		 mov	 dl, BYTE PTR [eax]
  00015	56		 push	 esi
  00016	57		 push	 edi
  00017	8b 7d 08	 mov	 edi, DWORD PTR _lhs$[ebp]
  0001a	84 d2		 test	 dl, dl
  0001c	0f 84 24 01 00
	00		 je	 $LN96@operator@5
  00022	80 f2 ed	 xor	 dl, -19			; ffffffedH
  00025	88 55 ec	 mov	 BYTE PTR __t$[ebp], dl
  00028	8a 50 01	 mov	 dl, BYTE PTR [eax+1]
  0002b	84 d2		 test	 dl, dl
  0002d	0f 84 0d 01 00
	00		 je	 $LN95@operator@5
  00033	80 f2 ec	 xor	 dl, -20			; ffffffecH
  00036	88 55 ed	 mov	 BYTE PTR __t$[ebp+1], dl
  00039	8a 50 02	 mov	 dl, BYTE PTR [eax+2]
  0003c	84 d2		 test	 dl, dl
  0003e	0f 84 f6 00 00
	00		 je	 $LN94@operator@5
  00044	80 f2 eb	 xor	 dl, -21			; ffffffebH
  00047	88 55 ee	 mov	 BYTE PTR __t$[ebp+2], dl
  0004a	8a 50 03	 mov	 dl, BYTE PTR [eax+3]
  0004d	84 d2		 test	 dl, dl
  0004f	0f 84 df 00 00
	00		 je	 $LN93@operator@5
  00055	80 f2 ea	 xor	 dl, -22			; ffffffeaH
  00058	88 55 ef	 mov	 BYTE PTR __t$[ebp+3], dl
  0005b	8a 50 04	 mov	 dl, BYTE PTR [eax+4]
  0005e	84 d2		 test	 dl, dl
  00060	0f 84 c8 00 00
	00		 je	 $LN92@operator@5
  00066	80 f2 ed	 xor	 dl, -19			; ffffffedH
  00069	88 55 f0	 mov	 BYTE PTR __t$[ebp+4], dl
  0006c	8a 50 05	 mov	 dl, BYTE PTR [eax+5]
  0006f	84 d2		 test	 dl, dl
  00071	0f 84 b1 00 00
	00		 je	 $LN91@operator@5
  00077	80 f2 ec	 xor	 dl, -20			; ffffffecH
  0007a	88 55 f1	 mov	 BYTE PTR __t$[ebp+5], dl
  0007d	8a 50 06	 mov	 dl, BYTE PTR [eax+6]
  00080	84 d2		 test	 dl, dl
  00082	0f 84 9a 00 00
	00		 je	 $LN90@operator@5
  00088	80 f2 eb	 xor	 dl, -21			; ffffffebH
  0008b	88 55 f2	 mov	 BYTE PTR __t$[ebp+6], dl
  0008e	8a 50 07	 mov	 dl, BYTE PTR [eax+7]
  00091	84 d2		 test	 dl, dl
  00093	0f 84 83 00 00
	00		 je	 $LN89@operator@5
  00099	80 f2 ea	 xor	 dl, -22			; ffffffeaH
  0009c	88 55 f3	 mov	 BYTE PTR __t$[ebp+7], dl
  0009f	8a 50 08	 mov	 dl, BYTE PTR [eax+8]
  000a2	84 d2		 test	 dl, dl
  000a4	74 70		 je	 SHORT $LN88@operator@5
  000a6	80 f2 ed	 xor	 dl, -19			; ffffffedH
  000a9	88 55 f4	 mov	 BYTE PTR __t$[ebp+8], dl
  000ac	8a 50 09	 mov	 dl, BYTE PTR [eax+9]
  000af	84 d2		 test	 dl, dl
  000b1	74 5d		 je	 SHORT $LN87@operator@5
  000b3	80 f2 ec	 xor	 dl, -20			; ffffffecH
  000b6	80 78 0a 00	 cmp	 BYTE PTR [eax+10], 0
  000ba	88 55 f5	 mov	 BYTE PTR __t$[ebp+9], dl
  000bd	0f 84 87 00 00
	00		 je	 $LN1@operator@5
  000c3	8a 50 0b	 mov	 dl, BYTE PTR [eax+11]
  000c6	84 d2		 test	 dl, dl
  000c8	74 40		 je	 SHORT $LN85@operator@5
  000ca	80 f2 ea	 xor	 dl, -22			; ffffffeaH
  000cd	88 55 f7	 mov	 BYTE PTR __t$[ebp+11], dl
  000d0	8a 50 0c	 mov	 dl, BYTE PTR [eax+12]
  000d3	84 d2		 test	 dl, dl
  000d5	74 2d		 je	 SHORT $LN84@operator@5
  000d7	80 f2 ed	 xor	 dl, -19			; ffffffedH
  000da	88 55 f8	 mov	 BYTE PTR __t$[ebp+12], dl
  000dd	8a 50 0d	 mov	 dl, BYTE PTR [eax+13]
  000e0	84 d2		 test	 dl, dl
  000e2	74 1a		 je	 SHORT $LN83@operator@5
  000e4	8a 40 0e	 mov	 al, BYTE PTR [eax+14]
  000e7	80 f2 ec	 xor	 dl, -20			; ffffffecH
  000ea	88 55 f9	 mov	 BYTE PTR __t$[ebp+13], dl
  000ed	84 c0		 test	 al, al
  000ef	74 07		 je	 SHORT $LN82@operator@5
  000f1	34 eb		 xor	 al, -21			; ffffffebH
  000f3	88 45 fa	 mov	 BYTE PTR __t$[ebp+14], al
  000f6	eb 52		 jmp	 SHORT $LN1@operator@5
$LN82@operator@5:
  000f8	c6 45 fa eb	 mov	 BYTE PTR __t$[ebp+14], -21 ; ffffffebH
  000fc	eb 4c		 jmp	 SHORT $LN1@operator@5
$LN83@operator@5:
  000fe	c6 45 f9 ec	 mov	 BYTE PTR __t$[ebp+13], -20 ; ffffffecH
  00102	eb 46		 jmp	 SHORT $LN1@operator@5
$LN84@operator@5:
  00104	c6 45 f8 ed	 mov	 BYTE PTR __t$[ebp+12], -19 ; ffffffedH
  00108	eb 40		 jmp	 SHORT $LN1@operator@5
$LN85@operator@5:
  0010a	c6 45 f7 ea	 mov	 BYTE PTR __t$[ebp+11], -22 ; ffffffeaH
  0010e	eb 3a		 jmp	 SHORT $LN1@operator@5
$LN87@operator@5:
  00110	c6 45 f5 ec	 mov	 BYTE PTR __t$[ebp+9], -20 ; ffffffecH
  00114	eb 34		 jmp	 SHORT $LN1@operator@5
$LN88@operator@5:
  00116	c6 45 f4 ed	 mov	 BYTE PTR __t$[ebp+8], -19 ; ffffffedH
  0011a	eb 2e		 jmp	 SHORT $LN1@operator@5
$LN89@operator@5:
  0011c	c6 45 f3 ea	 mov	 BYTE PTR __t$[ebp+7], -22 ; ffffffeaH
  00120	eb 28		 jmp	 SHORT $LN1@operator@5
$LN90@operator@5:
  00122	c6 45 f2 eb	 mov	 BYTE PTR __t$[ebp+6], -21 ; ffffffebH
  00126	eb 22		 jmp	 SHORT $LN1@operator@5
$LN91@operator@5:
  00128	c6 45 f1 ec	 mov	 BYTE PTR __t$[ebp+5], -20 ; ffffffecH
  0012c	eb 1c		 jmp	 SHORT $LN1@operator@5
$LN92@operator@5:
  0012e	c6 45 f0 ed	 mov	 BYTE PTR __t$[ebp+4], -19 ; ffffffedH
  00132	eb 16		 jmp	 SHORT $LN1@operator@5
$LN93@operator@5:
  00134	c6 45 ef ea	 mov	 BYTE PTR __t$[ebp+3], -22 ; ffffffeaH
  00138	eb 10		 jmp	 SHORT $LN1@operator@5
$LN94@operator@5:
  0013a	c6 45 ee eb	 mov	 BYTE PTR __t$[ebp+2], -21 ; ffffffebH
  0013e	eb 0a		 jmp	 SHORT $LN1@operator@5
$LN95@operator@5:
  00140	c6 45 ed ec	 mov	 BYTE PTR __t$[ebp+1], -20 ; ffffffecH
  00144	eb 04		 jmp	 SHORT $LN1@operator@5
$LN96@operator@5:
  00146	c6 45 ec ed	 mov	 BYTE PTR __t$[ebp], -19	; ffffffedH
$LN1@operator@5:
  0014a	6a 02		 push	 2
  0014c	8d 45 ec	 lea	 eax, DWORD PTR __t$[ebp]
  0014f	c6 45 f6 00	 mov	 BYTE PTR __t$[ebp+10], 0
  00153	5a		 pop	 edx
$LL104@operator@5:
  00154	81 30 ed ec eb
	ea		 xor	 DWORD PTR [eax], -353637139 ; eaebecedH
  0015a	83 c0 04	 add	 eax, 4
  0015d	4a		 dec	 edx
  0015e	75 f4		 jne	 SHORT $LL104@operator@5
  00160	6a 08		 push	 8
  00162	58		 pop	 eax
$LL101@operator@5:
  00163	8b c8		 mov	 ecx, eax
  00165	81 e1 03 00 00
	80		 and	 ecx, -2147483645	; 80000003H
  0016b	79 05		 jns	 SHORT $LN115@operator@5
  0016d	49		 dec	 ecx
  0016e	83 c9 fc	 or	 ecx, -4			; fffffffcH
  00171	41		 inc	 ecx
$LN115@operator@5:
  00172	b2 ed		 mov	 dl, -19			; ffffffedH
  00174	2a d1		 sub	 dl, cl
  00176	30 54 05 ec	 xor	 BYTE PTR __t$[ebp+eax], dl
  0017a	40		 inc	 eax
  0017b	83 f8 0a	 cmp	 eax, 10			; 0000000aH
  0017e	7c e3		 jl	 SHORT $LL101@operator@5
  00180	8b cf		 mov	 ecx, edi
  00182	8d 75 ec	 lea	 esi, DWORD PTR __t$[ebp]
  00185	ff 15 00 00 00
	00		 call	 DWORD PTR __imp_?c_str@ioHashString@@QBEPBDXZ
$LL111@operator@5:
  0018b	8a 08		 mov	 cl, BYTE PTR [eax]
  0018d	3a 0e		 cmp	 cl, BYTE PTR [esi]
  0018f	75 1a		 jne	 SHORT $LN112@operator@5
  00191	84 c9		 test	 cl, cl
  00193	74 12		 je	 SHORT $LN113@operator@5
  00195	8a 48 01	 mov	 cl, BYTE PTR [eax+1]
  00198	3a 4e 01	 cmp	 cl, BYTE PTR [esi+1]
  0019b	75 0e		 jne	 SHORT $LN112@operator@5
  0019d	83 c0 02	 add	 eax, 2
  001a0	83 c6 02	 add	 esi, 2
  001a3	84 c9		 test	 cl, cl
  001a5	75 e4		 jne	 SHORT $LL111@operator@5
$LN113@operator@5:
  001a7	33 c0		 xor	 eax, eax
  001a9	eb 05		 jmp	 SHORT $LN114@operator@5
$LN112@operator@5:
  001ab	1b c0		 sbb	 eax, eax
  001ad	83 d8 ff	 sbb	 eax, -1
$LN114@operator@5:
  001b0	33 c9		 xor	 ecx, ecx
  001b2	85 c0		 test	 eax, eax
  001b4	0f 94 c0	 sete	 al

; 148  : }

  001b7	8b 4d fc	 mov	 ecx, DWORD PTR __$ArrayPad$[ebp]
  001ba	5f		 pop	 edi
  001bb	33 cd		 xor	 ecx, ebp
  001bd	5e		 pop	 esi
  001be	e8 00 00 00 00	 call	 @__security_check_cookie@4
  001c3	c9		 leave
  001c4	c3		 ret	 0
??$?8$0L@@@YA_NABVioHashString@@AAY0L@$$CBD@Z ENDP	; operator==<11>
_TEXT	ENDS
PUBLIC	__$ArrayPad$
PUBLIC	??$?8$09@@YA_NABVioHashString@@AAY09$$CBD@Z	; operator==<10>
; Function compile flags: /Ogsp
;	COMDAT ??$?8$09@@YA_NABVioHashString@@AAY09$$CBD@Z
_TEXT	SEGMENT
__t$ = -20						; size = 10
__$ArrayPad$ = -4					; size = 4
_lhs$ = 8						; size = 4
_t$ = 12						; size = 4
??$?8$09@@YA_NABVioHashString@@AAY09$$CBD@Z PROC	; operator==<10>, COMDAT

; 146  : {

  00000	55		 push	 ebp
  00001	8b ec		 mov	 ebp, esp
  00003	83 ec 14	 sub	 esp, 20			; 00000014H
  00006	a1 00 00 00 00	 mov	 eax, DWORD PTR ___security_cookie
  0000b	33 c5		 xor	 eax, ebp
  0000d	89 45 fc	 mov	 DWORD PTR __$ArrayPad$[ebp], eax
  00010	8b 45 0c	 mov	 eax, DWORD PTR _t$[ebp]

; 147  : 	_ENCSTR(t, _t); return ( strcmp( lhs.c_str(), _t ) == 0 );

  00013	8a 10		 mov	 dl, BYTE PTR [eax]
  00015	8b 4d 08	 mov	 ecx, DWORD PTR _lhs$[ebp]
  00018	84 d2		 test	 dl, dl
  0001a	0f 84 0d 01 00
	00		 je	 $LN96@operator@6
  00020	80 f2 ed	 xor	 dl, -19			; ffffffedH
  00023	88 55 ec	 mov	 BYTE PTR __t$[ebp], dl
  00026	8a 50 01	 mov	 dl, BYTE PTR [eax+1]
  00029	84 d2		 test	 dl, dl
  0002b	0f 84 f6 00 00
	00		 je	 $LN95@operator@6
  00031	80 f2 ec	 xor	 dl, -20			; ffffffecH
  00034	88 55 ed	 mov	 BYTE PTR __t$[ebp+1], dl
  00037	8a 50 02	 mov	 dl, BYTE PTR [eax+2]
  0003a	84 d2		 test	 dl, dl
  0003c	0f 84 df 00 00
	00		 je	 $LN94@operator@6
  00042	80 f2 eb	 xor	 dl, -21			; ffffffebH
  00045	88 55 ee	 mov	 BYTE PTR __t$[ebp+2], dl
  00048	8a 50 03	 mov	 dl, BYTE PTR [eax+3]
  0004b	84 d2		 test	 dl, dl
  0004d	0f 84 c8 00 00
	00		 je	 $LN93@operator@6
  00053	80 f2 ea	 xor	 dl, -22			; ffffffeaH
  00056	88 55 ef	 mov	 BYTE PTR __t$[ebp+3], dl
  00059	8a 50 04	 mov	 dl, BYTE PTR [eax+4]
  0005c	84 d2		 test	 dl, dl
  0005e	0f 84 b1 00 00
	00		 je	 $LN92@operator@6
  00064	80 f2 ed	 xor	 dl, -19			; ffffffedH
  00067	88 55 f0	 mov	 BYTE PTR __t$[ebp+4], dl
  0006a	8a 50 05	 mov	 dl, BYTE PTR [eax+5]
  0006d	84 d2		 test	 dl, dl
  0006f	0f 84 9a 00 00
	00		 je	 $LN91@operator@6
  00075	80 f2 ec	 xor	 dl, -20			; ffffffecH
  00078	88 55 f1	 mov	 BYTE PTR __t$[ebp+5], dl
  0007b	8a 50 06	 mov	 dl, BYTE PTR [eax+6]
  0007e	84 d2		 test	 dl, dl
  00080	0f 84 83 00 00
	00		 je	 $LN90@operator@6
  00086	80 f2 eb	 xor	 dl, -21			; ffffffebH
  00089	88 55 f2	 mov	 BYTE PTR __t$[ebp+6], dl
  0008c	8a 50 07	 mov	 dl, BYTE PTR [eax+7]
  0008f	84 d2		 test	 dl, dl
  00091	74 70		 je	 SHORT $LN89@operator@6
  00093	80 f2 ea	 xor	 dl, -22			; ffffffeaH
  00096	88 55 f3	 mov	 BYTE PTR __t$[ebp+7], dl
  00099	8a 50 08	 mov	 dl, BYTE PTR [eax+8]
  0009c	84 d2		 test	 dl, dl
  0009e	74 5d		 je	 SHORT $LN88@operator@6
  000a0	80 f2 ed	 xor	 dl, -19			; ffffffedH
  000a3	80 78 09 00	 cmp	 BYTE PTR [eax+9], 0
  000a7	88 55 f4	 mov	 BYTE PTR __t$[ebp+8], dl
  000aa	0f 84 81 00 00
	00		 je	 $LN1@operator@6
  000b0	8a 50 0a	 mov	 dl, BYTE PTR [eax+10]
  000b3	84 d2		 test	 dl, dl
  000b5	74 40		 je	 SHORT $LN86@operator@6
  000b7	80 f2 eb	 xor	 dl, -21			; ffffffebH
  000ba	88 55 f6	 mov	 BYTE PTR __t$[ebp+10], dl
  000bd	8a 50 0b	 mov	 dl, BYTE PTR [eax+11]
  000c0	84 d2		 test	 dl, dl
  000c2	74 2d		 je	 SHORT $LN85@operator@6
  000c4	80 f2 ea	 xor	 dl, -22			; ffffffeaH
  000c7	88 55 f7	 mov	 BYTE PTR __t$[ebp+11], dl
  000ca	8a 50 0c	 mov	 dl, BYTE PTR [eax+12]
  000cd	84 d2		 test	 dl, dl
  000cf	74 1a		 je	 SHORT $LN84@operator@6
  000d1	8a 40 0d	 mov	 al, BYTE PTR [eax+13]
  000d4	80 f2 ed	 xor	 dl, -19			; ffffffedH
  000d7	88 55 f8	 mov	 BYTE PTR __t$[ebp+12], dl
  000da	84 c0		 test	 al, al
  000dc	74 07		 je	 SHORT $LN83@operator@6
  000de	34 ec		 xor	 al, -20			; ffffffecH
  000e0	88 45 f9	 mov	 BYTE PTR __t$[ebp+13], al
  000e3	eb 4c		 jmp	 SHORT $LN1@operator@6
$LN83@operator@6:
  000e5	c6 45 f9 ec	 mov	 BYTE PTR __t$[ebp+13], -20 ; ffffffecH
  000e9	eb 46		 jmp	 SHORT $LN1@operator@6
$LN84@operator@6:
  000eb	c6 45 f8 ed	 mov	 BYTE PTR __t$[ebp+12], -19 ; ffffffedH
  000ef	eb 40		 jmp	 SHORT $LN1@operator@6
$LN85@operator@6:
  000f1	c6 45 f7 ea	 mov	 BYTE PTR __t$[ebp+11], -22 ; ffffffeaH
  000f5	eb 3a		 jmp	 SHORT $LN1@operator@6
$LN86@operator@6:
  000f7	c6 45 f6 eb	 mov	 BYTE PTR __t$[ebp+10], -21 ; ffffffebH
  000fb	eb 34		 jmp	 SHORT $LN1@operator@6
$LN88@operator@6:
  000fd	c6 45 f4 ed	 mov	 BYTE PTR __t$[ebp+8], -19 ; ffffffedH
  00101	eb 2e		 jmp	 SHORT $LN1@operator@6
$LN89@operator@6:
  00103	c6 45 f3 ea	 mov	 BYTE PTR __t$[ebp+7], -22 ; ffffffeaH
  00107	eb 28		 jmp	 SHORT $LN1@operator@6
$LN90@operator@6:
  00109	c6 45 f2 eb	 mov	 BYTE PTR __t$[ebp+6], -21 ; ffffffebH
  0010d	eb 22		 jmp	 SHORT $LN1@operator@6
$LN91@operator@6:
  0010f	c6 45 f1 ec	 mov	 BYTE PTR __t$[ebp+5], -20 ; ffffffecH
  00113	eb 1c		 jmp	 SHORT $LN1@operator@6
$LN92@operator@6:
  00115	c6 45 f0 ed	 mov	 BYTE PTR __t$[ebp+4], -19 ; ffffffedH
  00119	eb 16		 jmp	 SHORT $LN1@operator@6
$LN93@operator@6:
  0011b	c6 45 ef ea	 mov	 BYTE PTR __t$[ebp+3], -22 ; ffffffeaH
  0011f	eb 10		 jmp	 SHORT $LN1@operator@6
$LN94@operator@6:
  00121	c6 45 ee eb	 mov	 BYTE PTR __t$[ebp+2], -21 ; ffffffebH
  00125	eb 0a		 jmp	 SHORT $LN1@operator@6
$LN95@operator@6:
  00127	c6 45 ed ec	 mov	 BYTE PTR __t$[ebp+1], -20 ; ffffffecH
  0012b	eb 04		 jmp	 SHORT $LN1@operator@6
$LN96@operator@6:
  0012d	c6 45 ec ed	 mov	 BYTE PTR __t$[ebp], -19	; ffffffedH
$LN1@operator@6:
  00131	6a 02		 push	 2
  00133	8d 45 ec	 lea	 eax, DWORD PTR __t$[ebp]
  00136	c6 45 f5 00	 mov	 BYTE PTR __t$[ebp+9], 0
  0013a	5a		 pop	 edx
$LL104@operator@6:
  0013b	81 30 ed ec eb
	ea		 xor	 DWORD PTR [eax], -353637139 ; eaebecedH
  00141	83 c0 04	 add	 eax, 4
  00144	4a		 dec	 edx
  00145	75 f4		 jne	 SHORT $LL104@operator@6
  00147	80 75 f4 ed	 xor	 BYTE PTR __t$[ebp+8], -19 ; ffffffedH
  0014b	56		 push	 esi
  0014c	8d 75 ec	 lea	 esi, DWORD PTR __t$[ebp]
  0014f	ff 15 00 00 00
	00		 call	 DWORD PTR __imp_?c_str@ioHashString@@QBEPBDXZ
$LL111@operator@6:
  00155	8a 08		 mov	 cl, BYTE PTR [eax]
  00157	3a 0e		 cmp	 cl, BYTE PTR [esi]
  00159	75 1a		 jne	 SHORT $LN112@operator@6
  0015b	84 c9		 test	 cl, cl
  0015d	74 12		 je	 SHORT $LN113@operator@6
  0015f	8a 48 01	 mov	 cl, BYTE PTR [eax+1]
  00162	3a 4e 01	 cmp	 cl, BYTE PTR [esi+1]
  00165	75 0e		 jne	 SHORT $LN112@operator@6
  00167	83 c0 02	 add	 eax, 2
  0016a	83 c6 02	 add	 esi, 2
  0016d	84 c9		 test	 cl, cl
  0016f	75 e4		 jne	 SHORT $LL111@operator@6
$LN113@operator@6:
  00171	33 c0		 xor	 eax, eax
  00173	eb 05		 jmp	 SHORT $LN114@operator@6
$LN112@operator@6:
  00175	1b c0		 sbb	 eax, eax
  00177	83 d8 ff	 sbb	 eax, -1
$LN114@operator@6:
  0017a	33 c9		 xor	 ecx, ecx
  0017c	85 c0		 test	 eax, eax
  0017e	0f 94 c0	 sete	 al

; 148  : }

  00181	8b 4d fc	 mov	 ecx, DWORD PTR __$ArrayPad$[ebp]
  00184	33 cd		 xor	 ecx, ebp
  00186	5e		 pop	 esi
  00187	e8 00 00 00 00	 call	 @__security_check_cookie@4
  0018c	c9		 leave
  0018d	c3		 ret	 0
??$?8$09@@YA_NABVioHashString@@AAY09$$CBD@Z ENDP	; operator==<10>
_TEXT	ENDS
PUBLIC	__$ArrayPad$
PUBLIC	??$?8$07@@YA_NABVioHashString@@AAY07$$CBD@Z	; operator==<8>
; Function compile flags: /Ogsp
;	COMDAT ??$?8$07@@YA_NABVioHashString@@AAY07$$CBD@Z
_TEXT	SEGMENT
__t$ = -16						; size = 8
__$ArrayPad$ = -4					; size = 4
_lhs$ = 8						; size = 4
_t$ = 12						; size = 4
??$?8$07@@YA_NABVioHashString@@AAY07$$CBD@Z PROC	; operator==<8>, COMDAT

; 146  : {

  00000	55		 push	 ebp
  00001	8b ec		 mov	 ebp, esp
  00003	83 ec 10	 sub	 esp, 16			; 00000010H
  00006	a1 00 00 00 00	 mov	 eax, DWORD PTR ___security_cookie
  0000b	33 c5		 xor	 eax, ebp
  0000d	89 45 fc	 mov	 DWORD PTR __$ArrayPad$[ebp], eax
  00010	8b 45 0c	 mov	 eax, DWORD PTR _t$[ebp]

; 147  : 	_ENCSTR(t, _t); return ( strcmp( lhs.c_str(), _t ) == 0 );

  00013	8a 10		 mov	 dl, BYTE PTR [eax]
  00015	56		 push	 esi
  00016	57		 push	 edi
  00017	8b 7d 08	 mov	 edi, DWORD PTR _lhs$[ebp]
  0001a	84 d2		 test	 dl, dl
  0001c	0f 84 d7 00 00
	00		 je	 $LN96@operator@7
  00022	80 f2 ed	 xor	 dl, -19			; ffffffedH
  00025	88 55 f0	 mov	 BYTE PTR __t$[ebp], dl
  00028	8a 50 01	 mov	 dl, BYTE PTR [eax+1]
  0002b	84 d2		 test	 dl, dl
  0002d	0f 84 c0 00 00
	00		 je	 $LN95@operator@7
  00033	80 f2 ec	 xor	 dl, -20			; ffffffecH
  00036	88 55 f1	 mov	 BYTE PTR __t$[ebp+1], dl
  00039	8a 50 02	 mov	 dl, BYTE PTR [eax+2]
  0003c	84 d2		 test	 dl, dl
  0003e	0f 84 a9 00 00
	00		 je	 $LN94@operator@7
  00044	80 f2 eb	 xor	 dl, -21			; ffffffebH
  00047	88 55 f2	 mov	 BYTE PTR __t$[ebp+2], dl
  0004a	8a 50 03	 mov	 dl, BYTE PTR [eax+3]
  0004d	84 d2		 test	 dl, dl
  0004f	0f 84 92 00 00
	00		 je	 $LN93@operator@7
  00055	80 f2 ea	 xor	 dl, -22			; ffffffeaH
  00058	88 55 f3	 mov	 BYTE PTR __t$[ebp+3], dl
  0005b	8a 50 04	 mov	 dl, BYTE PTR [eax+4]
  0005e	84 d2		 test	 dl, dl
  00060	74 7f		 je	 SHORT $LN92@operator@7
  00062	80 f2 ed	 xor	 dl, -19			; ffffffedH
  00065	88 55 f4	 mov	 BYTE PTR __t$[ebp+4], dl
  00068	8a 50 05	 mov	 dl, BYTE PTR [eax+5]
  0006b	84 d2		 test	 dl, dl
  0006d	74 6c		 je	 SHORT $LN91@operator@7
  0006f	80 f2 ec	 xor	 dl, -20			; ffffffecH
  00072	88 55 f5	 mov	 BYTE PTR __t$[ebp+5], dl
  00075	8a 50 06	 mov	 dl, BYTE PTR [eax+6]
  00078	84 d2		 test	 dl, dl
  0007a	74 59		 je	 SHORT $LN90@operator@7
  0007c	80 f2 eb	 xor	 dl, -21			; ffffffebH
  0007f	80 78 07 00	 cmp	 BYTE PTR [eax+7], 0
  00083	88 55 f6	 mov	 BYTE PTR __t$[ebp+6], dl
  00086	74 75		 je	 SHORT $LN1@operator@7
  00088	8a 50 08	 mov	 dl, BYTE PTR [eax+8]
  0008b	84 d2		 test	 dl, dl
  0008d	74 40		 je	 SHORT $LN88@operator@7
  0008f	80 f2 ed	 xor	 dl, -19			; ffffffedH
  00092	88 55 f8	 mov	 BYTE PTR __t$[ebp+8], dl
  00095	8a 50 09	 mov	 dl, BYTE PTR [eax+9]
  00098	84 d2		 test	 dl, dl
  0009a	74 2d		 je	 SHORT $LN87@operator@7
  0009c	80 f2 ec	 xor	 dl, -20			; ffffffecH
  0009f	88 55 f9	 mov	 BYTE PTR __t$[ebp+9], dl
  000a2	8a 50 0a	 mov	 dl, BYTE PTR [eax+10]
  000a5	84 d2		 test	 dl, dl
  000a7	74 1a		 je	 SHORT $LN86@operator@7
  000a9	8a 40 0b	 mov	 al, BYTE PTR [eax+11]
  000ac	80 f2 eb	 xor	 dl, -21			; ffffffebH
  000af	88 55 fa	 mov	 BYTE PTR __t$[ebp+10], dl
  000b2	84 c0		 test	 al, al
  000b4	74 07		 je	 SHORT $LN85@operator@7
  000b6	34 ea		 xor	 al, -22			; ffffffeaH
  000b8	88 45 fb	 mov	 BYTE PTR __t$[ebp+11], al
  000bb	eb 40		 jmp	 SHORT $LN1@operator@7
$LN85@operator@7:
  000bd	c6 45 fb ea	 mov	 BYTE PTR __t$[ebp+11], -22 ; ffffffeaH
  000c1	eb 3a		 jmp	 SHORT $LN1@operator@7
$LN86@operator@7:
  000c3	c6 45 fa eb	 mov	 BYTE PTR __t$[ebp+10], -21 ; ffffffebH
  000c7	eb 34		 jmp	 SHORT $LN1@operator@7
$LN87@operator@7:
  000c9	c6 45 f9 ec	 mov	 BYTE PTR __t$[ebp+9], -20 ; ffffffecH
  000cd	eb 2e		 jmp	 SHORT $LN1@operator@7
$LN88@operator@7:
  000cf	c6 45 f8 ed	 mov	 BYTE PTR __t$[ebp+8], -19 ; ffffffedH
  000d3	eb 28		 jmp	 SHORT $LN1@operator@7
$LN90@operator@7:
  000d5	c6 45 f6 eb	 mov	 BYTE PTR __t$[ebp+6], -21 ; ffffffebH
  000d9	eb 22		 jmp	 SHORT $LN1@operator@7
$LN91@operator@7:
  000db	c6 45 f5 ec	 mov	 BYTE PTR __t$[ebp+5], -20 ; ffffffecH
  000df	eb 1c		 jmp	 SHORT $LN1@operator@7
$LN92@operator@7:
  000e1	c6 45 f4 ed	 mov	 BYTE PTR __t$[ebp+4], -19 ; ffffffedH
  000e5	eb 16		 jmp	 SHORT $LN1@operator@7
$LN93@operator@7:
  000e7	c6 45 f3 ea	 mov	 BYTE PTR __t$[ebp+3], -22 ; ffffffeaH
  000eb	eb 10		 jmp	 SHORT $LN1@operator@7
$LN94@operator@7:
  000ed	c6 45 f2 eb	 mov	 BYTE PTR __t$[ebp+2], -21 ; ffffffebH
  000f1	eb 0a		 jmp	 SHORT $LN1@operator@7
$LN95@operator@7:
  000f3	c6 45 f1 ec	 mov	 BYTE PTR __t$[ebp+1], -20 ; ffffffecH
  000f7	eb 04		 jmp	 SHORT $LN1@operator@7
$LN96@operator@7:
  000f9	c6 45 f0 ed	 mov	 BYTE PTR __t$[ebp], -19	; ffffffedH
$LN1@operator@7:
  000fd	81 75 f0 ed ec
	eb ea		 xor	 DWORD PTR __t$[ebp], -353637139 ; eaebecedH
  00104	6a 04		 push	 4
  00106	c6 45 f7 00	 mov	 BYTE PTR __t$[ebp+7], 0
  0010a	58		 pop	 eax
$LL101@operator@7:
  0010b	8b c8		 mov	 ecx, eax
  0010d	81 e1 03 00 00
	80		 and	 ecx, -2147483645	; 80000003H
  00113	79 05		 jns	 SHORT $LN115@operator@7
  00115	49		 dec	 ecx
  00116	83 c9 fc	 or	 ecx, -4			; fffffffcH
  00119	41		 inc	 ecx
$LN115@operator@7:
  0011a	b2 ed		 mov	 dl, -19			; ffffffedH
  0011c	2a d1		 sub	 dl, cl
  0011e	30 54 05 f0	 xor	 BYTE PTR __t$[ebp+eax], dl
  00122	40		 inc	 eax
  00123	83 f8 07	 cmp	 eax, 7
  00126	7c e3		 jl	 SHORT $LL101@operator@7
  00128	8b cf		 mov	 ecx, edi
  0012a	8d 75 f0	 lea	 esi, DWORD PTR __t$[ebp]
  0012d	ff 15 00 00 00
	00		 call	 DWORD PTR __imp_?c_str@ioHashString@@QBEPBDXZ
$LL111@operator@7:
  00133	8a 08		 mov	 cl, BYTE PTR [eax]
  00135	3a 0e		 cmp	 cl, BYTE PTR [esi]
  00137	75 1a		 jne	 SHORT $LN112@operator@7
  00139	84 c9		 test	 cl, cl
  0013b	74 12		 je	 SHORT $LN113@operator@7
  0013d	8a 48 01	 mov	 cl, BYTE PTR [eax+1]
  00140	3a 4e 01	 cmp	 cl, BYTE PTR [esi+1]
  00143	75 0e		 jne	 SHORT $LN112@operator@7
  00145	83 c0 02	 add	 eax, 2
  00148	83 c6 02	 add	 esi, 2
  0014b	84 c9		 test	 cl, cl
  0014d	75 e4		 jne	 SHORT $LL111@operator@7
$LN113@operator@7:
  0014f	33 c0		 xor	 eax, eax
  00151	eb 05		 jmp	 SHORT $LN114@operator@7
$LN112@operator@7:
  00153	1b c0		 sbb	 eax, eax
  00155	83 d8 ff	 sbb	 eax, -1
$LN114@operator@7:
  00158	33 c9		 xor	 ecx, ecx
  0015a	85 c0		 test	 eax, eax
  0015c	0f 94 c0	 sete	 al

; 148  : }

  0015f	8b 4d fc	 mov	 ecx, DWORD PTR __$ArrayPad$[ebp]
  00162	5f		 pop	 edi
  00163	33 cd		 xor	 ecx, ebp
  00165	5e		 pop	 esi
  00166	e8 00 00 00 00	 call	 @__security_check_cookie@4
  0016b	c9		 leave
  0016c	c3		 ret	 0
??$?8$07@@YA_NABVioHashString@@AAY07$$CBD@Z ENDP	; operator==<8>
_TEXT	ENDS
PUBLIC	??$_Cons_val@V?$allocator@UStringTick@TutorialWnd@@@std@@UStringTick@TutorialWnd@@AAU34@@std@@YAXAAV?$allocator@UStringTick@TutorialWnd@@@0@PAUStringTick@TutorialWnd@@AAU23@@Z ; std::_Cons_val<std::allocator<TutorialWnd::StringTick>,TutorialWnd::StringTick,TutorialWnd::StringTick &>
; Function compile flags: /Ogsp
; File c:\program files (x86)\microsoft visual studio 10.0\vc\include\xmemory
;	COMDAT ??$_Cons_val@V?$allocator@UStringTick@TutorialWnd@@@std@@UStringTick@TutorialWnd@@AAU34@@std@@YAXAAV?$allocator@UStringTick@TutorialWnd@@@0@PAUStringTick@TutorialWnd@@AAU23@@Z
_TEXT	SEGMENT
__Alval$ = 8						; size = 4
__Pdest$ = 12						; size = 4
__Src$ = 16						; size = 4
??$_Cons_val@V?$allocator@UStringTick@TutorialWnd@@@std@@UStringTick@TutorialWnd@@AAU34@@std@@YAXAAV?$allocator@UStringTick@TutorialWnd@@@0@PAUStringTick@TutorialWnd@@AAU23@@Z PROC ; std::_Cons_val<std::allocator<TutorialWnd::StringTick>,TutorialWnd::StringTick,TutorialWnd::StringTick &>, COMDAT

; 279  : 	{	// construct using allocator

  00000	55		 push	 ebp
  00001	8b ec		 mov	 ebp, esp
  00003	57		 push	 edi

; 280  : 	_Alval.construct(_Pdest, _STD forward<_Ty2>(_Src));

  00004	8b 7d 0c	 mov	 edi, DWORD PTR __Pdest$[ebp]
  00007	85 ff		 test	 edi, edi
  00009	74 0a		 je	 SHORT $LN7@Cons_val
  0000b	56		 push	 esi
  0000c	8b 75 10	 mov	 esi, DWORD PTR __Src$[ebp]
  0000f	6a 41		 push	 65			; 00000041H
  00011	59		 pop	 ecx
  00012	f3 a5		 rep movsd
  00014	5e		 pop	 esi
$LN7@Cons_val:
  00015	5f		 pop	 edi

; 281  : 	}

  00016	5d		 pop	 ebp
  00017	c3		 ret	 0
??$_Cons_val@V?$allocator@UStringTick@TutorialWnd@@@std@@UStringTick@TutorialWnd@@AAU34@@std@@YAXAAV?$allocator@UStringTick@TutorialWnd@@@0@PAUStringTick@TutorialWnd@@AAU23@@Z ENDP ; std::_Cons_val<std::allocator<TutorialWnd::StringTick>,TutorialWnd::StringTick,TutorialWnd::StringTick &>
_TEXT	ENDS
PUBLIC	?construct@?$allocator@UStringTick@TutorialWnd@@@std@@QAEXPAUStringTick@TutorialWnd@@ABU34@@Z ; std::allocator<TutorialWnd::StringTick>::construct
; Function compile flags: /Ogsp
;	COMDAT ?construct@?$allocator@UStringTick@TutorialWnd@@@std@@QAEXPAUStringTick@TutorialWnd@@ABU34@@Z
_TEXT	SEGMENT
__Ptr$ = 8						; size = 4
__Val$ = 12						; size = 4
?construct@?$allocator@UStringTick@TutorialWnd@@@std@@QAEXPAUStringTick@TutorialWnd@@ABU34@@Z PROC ; std::allocator<TutorialWnd::StringTick>::construct, COMDAT
; _this$ = ecx

; 196  : 		{	// construct object at _Ptr with value _Val

  00000	55		 push	 ebp
  00001	8b ec		 mov	 ebp, esp
  00003	57		 push	 edi

; 197  : 		_Construct(_Ptr, _Val);

  00004	8b 7d 08	 mov	 edi, DWORD PTR __Ptr$[ebp]
  00007	85 ff		 test	 edi, edi
  00009	74 0a		 je	 SHORT $LN5@construct@2
  0000b	56		 push	 esi
  0000c	8b 75 0c	 mov	 esi, DWORD PTR __Val$[ebp]
  0000f	6a 41		 push	 65			; 00000041H
  00011	59		 pop	 ecx
  00012	f3 a5		 rep movsd
  00014	5e		 pop	 esi
$LN5@construct@2:
  00015	5f		 pop	 edi

; 198  : 		}

  00016	5d		 pop	 ebp
  00017	c2 08 00	 ret	 8
?construct@?$allocator@UStringTick@TutorialWnd@@@std@@QAEXPAUStringTick@TutorialWnd@@ABU34@@Z ENDP ; std::allocator<TutorialWnd::StringTick>::construct
_TEXT	ENDS
PUBLIC	??$_Move@PAUStringTick@TutorialWnd@@PAU12@@std@@YAPAUStringTick@TutorialWnd@@PAU12@00U_Nonscalar_ptr_iterator_tag@0@@Z ; std::_Move<TutorialWnd::StringTick *,TutorialWnd::StringTick *>
; Function compile flags: /Ogsp
; File c:\program files (x86)\microsoft visual studio 10.0\vc\include\xutility
;	COMDAT ??$_Move@PAUStringTick@TutorialWnd@@PAU12@@std@@YAPAUStringTick@TutorialWnd@@PAU12@00U_Nonscalar_ptr_iterator_tag@0@@Z
_TEXT	SEGMENT
__First$ = 8						; size = 4
__Last$ = 12						; size = 4
__Dest$ = 16						; size = 4
___formal$ = 20						; size = 1
??$_Move@PAUStringTick@TutorialWnd@@PAU12@@std@@YAPAUStringTick@TutorialWnd@@PAU12@00U_Nonscalar_ptr_iterator_tag@0@@Z PROC ; std::_Move<TutorialWnd::StringTick *,TutorialWnd::StringTick *>, COMDAT

; 2512 : 	{	// move [_First, _Last) to [_Dest, ...), arbitrary iterators

  00000	55		 push	 ebp
  00001	8b ec		 mov	 ebp, esp

; 2513 : 	for (; _First != _Last; ++_Dest, ++_First)

  00003	8b 55 08	 mov	 edx, DWORD PTR __First$[ebp]
  00006	3b 55 0c	 cmp	 edx, DWORD PTR __Last$[ebp]
  00009	74 1d		 je	 SHORT $LN10@Move
  0000b	56		 push	 esi
  0000c	b8 04 01 00 00	 mov	 eax, 260		; 00000104H
  00011	57		 push	 edi
$LL3@Move:

; 2514 : 		*_Dest = _STD move(*_First);

  00012	8b 7d 10	 mov	 edi, DWORD PTR __Dest$[ebp]
  00015	01 45 10	 add	 DWORD PTR __Dest$[ebp], eax
  00018	8b f2		 mov	 esi, edx
  0001a	6a 41		 push	 65			; 00000041H
  0001c	03 d0		 add	 edx, eax
  0001e	59		 pop	 ecx
  0001f	f3 a5		 rep movsd
  00021	3b 55 0c	 cmp	 edx, DWORD PTR __Last$[ebp]
  00024	75 ec		 jne	 SHORT $LL3@Move
  00026	5f		 pop	 edi
  00027	5e		 pop	 esi
$LN10@Move:

; 2515 : 	return (_Dest);

  00028	8b 45 10	 mov	 eax, DWORD PTR __Dest$[ebp]

; 2516 : 	}

  0002b	5d		 pop	 ebp
  0002c	c3		 ret	 0
??$_Move@PAUStringTick@TutorialWnd@@PAU12@@std@@YAPAUStringTick@TutorialWnd@@PAU12@00U_Nonscalar_ptr_iterator_tag@0@@Z ENDP ; std::_Move<TutorialWnd::StringTick *,TutorialWnd::StringTick *>
_TEXT	ENDS
PUBLIC	?destroy@?$allocator@UStringTick@TutorialWnd@@@std@@QAEXPAUStringTick@TutorialWnd@@@Z ; std::allocator<TutorialWnd::StringTick>::destroy
; Function compile flags: /Ogsp
; File c:\program files (x86)\microsoft visual studio 10.0\vc\include\xmemory
;	COMDAT ?destroy@?$allocator@UStringTick@TutorialWnd@@@std@@QAEXPAUStringTick@TutorialWnd@@@Z
_TEXT	SEGMENT
__Ptr$ = 8						; size = 4
?destroy@?$allocator@UStringTick@TutorialWnd@@@std@@QAEXPAUStringTick@TutorialWnd@@@Z PROC ; std::allocator<TutorialWnd::StringTick>::destroy, COMDAT
; _this$ = ecx

; 213  : 		_Destroy(_Ptr);
; 214  : 		}

  00000	c2 04 00	 ret	 4
?destroy@?$allocator@UStringTick@TutorialWnd@@@std@@QAEXPAUStringTick@TutorialWnd@@@Z ENDP ; std::allocator<TutorialWnd::StringTick>::destroy
_TEXT	ENDS
PUBLIC	?construct@?$allocator@UStringTick@TutorialWnd@@@std@@QAEXPAUStringTick@TutorialWnd@@$$QAU34@@Z ; std::allocator<TutorialWnd::StringTick>::construct
; Function compile flags: /Ogsp
;	COMDAT ?construct@?$allocator@UStringTick@TutorialWnd@@@std@@QAEXPAUStringTick@TutorialWnd@@$$QAU34@@Z
_TEXT	SEGMENT
__Ptr$ = 8						; size = 4
__Val$ = 12						; size = 4
?construct@?$allocator@UStringTick@TutorialWnd@@@std@@QAEXPAUStringTick@TutorialWnd@@$$QAU34@@Z PROC ; std::allocator<TutorialWnd::StringTick>::construct, COMDAT
; _this$ = ecx

; 201  : 		{	// construct object at _Ptr with value _Val

  00000	55		 push	 ebp
  00001	8b ec		 mov	 ebp, esp
  00003	57		 push	 edi

; 202  : 		::new ((void _FARQ *)_Ptr) _Ty(_STD forward<_Ty>(_Val));

  00004	8b 7d 08	 mov	 edi, DWORD PTR __Ptr$[ebp]
  00007	85 ff		 test	 edi, edi
  00009	74 0a		 je	 SHORT $LN3@construct@3
  0000b	56		 push	 esi
  0000c	8b 75 0c	 mov	 esi, DWORD PTR __Val$[ebp]
  0000f	6a 41		 push	 65			; 00000041H
  00011	59		 pop	 ecx
  00012	f3 a5		 rep movsd
  00014	5e		 pop	 esi
$LN3@construct@3:
  00015	5f		 pop	 edi

; 203  : 		}

  00016	5d		 pop	 ebp
  00017	c2 08 00	 ret	 8
?construct@?$allocator@UStringTick@TutorialWnd@@@std@@QAEXPAUStringTick@TutorialWnd@@$$QAU34@@Z ENDP ; std::allocator<TutorialWnd::StringTick>::construct
_TEXT	ENDS
PUBLIC	?c_str@?$basic_string@DU?$char_traits@D@std@@V?$allocator@D@2@@std@@QBEPBDXZ ; std::basic_string<char,std::char_traits<char>,std::allocator<char> >::c_str
; Function compile flags: /Ogsp
; File c:\program files (x86)\microsoft visual studio 10.0\vc\include\xstring
;	COMDAT ?c_str@?$basic_string@DU?$char_traits@D@std@@V?$allocator@D@2@@std@@QBEPBDXZ
_TEXT	SEGMENT
?c_str@?$basic_string@DU?$char_traits@D@std@@V?$allocator@D@2@@std@@QBEPBDXZ PROC ; std::basic_string<char,std::char_traits<char>,std::allocator<char> >::c_str, COMDAT
; _this$ = ecx

; 1497 : 		return (_Myptr());

  00000	83 79 14 10	 cmp	 DWORD PTR [ecx+20], 16	; 00000010H
  00004	72 03		 jb	 SHORT $LN5@c_str
  00006	8b 01		 mov	 eax, DWORD PTR [ecx]

; 1498 : 		}

  00008	c3		 ret	 0

; 1497 : 		return (_Myptr());

$LN5@c_str:
  00009	8b c1		 mov	 eax, ecx

; 1498 : 		}

  0000b	c3		 ret	 0
?c_str@?$basic_string@DU?$char_traits@D@std@@V?$allocator@D@2@@std@@QBEPBDXZ ENDP ; std::basic_string<char,std::char_traits<char>,std::allocator<char> >::c_str
_TEXT	ENDS
PUBLIC	??0?$_String_val@DV?$allocator@D@std@@@std@@QAE@V?$allocator@D@1@@Z ; std::_String_val<char,std::allocator<char> >::_String_val<char,std::allocator<char> >
; Function compile flags: /Ogsp
;	COMDAT ??0?$_String_val@DV?$allocator@D@std@@@std@@QAE@V?$allocator@D@1@@Z
_TEXT	SEGMENT
__Al$ = 8						; size = 1
??0?$_String_val@DV?$allocator@D@std@@@std@@QAE@V?$allocator@D@1@@Z PROC ; std::_String_val<char,std::allocator<char> >::_String_val<char,std::allocator<char> >, COMDAT
; _this$ = ecx

; 454  : 		{	// construct allocator from _Al

  00000	8b c1		 mov	 eax, ecx

; 455  : 		}

  00002	c2 04 00	 ret	 4
??0?$_String_val@DV?$allocator@D@std@@@std@@QAE@V?$allocator@D@1@@Z ENDP ; std::_String_val<char,std::allocator<char> >::_String_val<char,std::allocator<char> >
_TEXT	ENDS
PUBLIC	?_Eos@?$basic_string@DU?$char_traits@D@std@@V?$allocator@D@2@@std@@QAEXI@Z ; std::basic_string<char,std::char_traits<char>,std::allocator<char> >::_Eos
; Function compile flags: /Ogsp
;	COMDAT ?_Eos@?$basic_string@DU?$char_traits@D@std@@V?$allocator@D@2@@std@@QAEXI@Z
_TEXT	SEGMENT
__Newsize$ = 8						; size = 4
?_Eos@?$basic_string@DU?$char_traits@D@std@@V?$allocator@D@2@@std@@QAEXI@Z PROC ; std::basic_string<char,std::char_traits<char>,std::allocator<char> >::_Eos, COMDAT
; _this$ = ecx

; 1953 : 		{	// set new length and null terminator

  00000	55		 push	 ebp
  00001	8b ec		 mov	 ebp, esp

; 1954 : 		_Traits::assign(_Myptr()[this->_Mysize = _Newsize], _Elem());

  00003	83 79 14 10	 cmp	 DWORD PTR [ecx+20], 16	; 00000010H
  00007	8b 45 08	 mov	 eax, DWORD PTR __Newsize$[ebp]
  0000a	89 41 10	 mov	 DWORD PTR [ecx+16], eax
  0000d	72 02		 jb	 SHORT $LN5@Eos
  0000f	8b 09		 mov	 ecx, DWORD PTR [ecx]
$LN5@Eos:
  00011	c6 04 01 00	 mov	 BYTE PTR [ecx+eax], 0

; 1955 : 		}

  00015	5d		 pop	 ebp
  00016	c2 04 00	 ret	 4
?_Eos@?$basic_string@DU?$char_traits@D@std@@V?$allocator@D@2@@std@@QAEXI@Z ENDP ; std::basic_string<char,std::char_traits<char>,std::allocator<char> >::_Eos
_TEXT	ENDS
PUBLIC	?max_size@?$basic_string@DU?$char_traits@D@std@@V?$allocator@D@2@@std@@QBEIXZ ; std::basic_string<char,std::char_traits<char>,std::allocator<char> >::max_size
; Function compile flags: /Ogsp
;	COMDAT ?max_size@?$basic_string@DU?$char_traits@D@std@@V?$allocator@D@2@@std@@QBEIXZ
_TEXT	SEGMENT
?max_size@?$basic_string@DU?$char_traits@D@std@@V?$allocator@D@2@@std@@QBEIXZ PROC ; std::basic_string<char,std::char_traits<char>,std::allocator<char> >::max_size, COMDAT
; _this$ = ecx

; 1517 : 		size_type _Num = this->_Alval.max_size();
; 1518 : 		return (_Num <= 1 ? 1 : _Num - 1);

  00000	6a fe		 push	 -2			; fffffffeH
  00002	58		 pop	 eax

; 1519 : 		}

  00003	c3		 ret	 0
?max_size@?$basic_string@DU?$char_traits@D@std@@V?$allocator@D@2@@std@@QBEIXZ ENDP ; std::basic_string<char,std::char_traits<char>,std::allocator<char> >::max_size
_TEXT	ENDS
PUBLIC	?allocate@?$allocator@D@std@@QAEPADI@Z		; std::allocator<char>::allocate
; Function compile flags: /Ogsp
; File c:\program files (x86)\microsoft visual studio 10.0\vc\include\xmemory
;	COMDAT ?allocate@?$allocator@D@std@@QAEPADI@Z
_TEXT	SEGMENT
__Count$ = 8						; size = 4
?allocate@?$allocator@D@std@@QAEPADI@Z PROC		; std::allocator<char>::allocate, COMDAT
; _this$ = ecx

; 186  : 		{	// allocate array of _Count elements

  00000	55		 push	 ebp
  00001	8b ec		 mov	 ebp, esp

; 187  : 		return (_Allocate(_Count, (pointer)0));

  00003	6a 00		 push	 0
  00005	ff 75 08	 push	 DWORD PTR __Count$[ebp]
  00008	e8 00 00 00 00	 call	 ??$_Allocate@D@std@@YAPADIPAD@Z ; std::_Allocate<char>
  0000d	59		 pop	 ecx
  0000e	59		 pop	 ecx

; 188  : 		}

  0000f	5d		 pop	 ebp
  00010	c2 04 00	 ret	 4
?allocate@?$allocator@D@std@@QAEPADI@Z ENDP		; std::allocator<char>::allocate
_TEXT	ENDS
PUBLIC	??$?9DD@std@@YA_NABV?$allocator@D@0@0@Z		; std::operator!=<char,char>
; Function compile flags: /Ogsp
;	COMDAT ??$?9DD@std@@YA_NABV?$allocator@D@0@0@Z
_TEXT	SEGMENT
__Left$ = 8						; size = 4
__Right$ = 12						; size = 4
??$?9DD@std@@YA_NABV?$allocator@D@0@0@Z PROC		; std::operator!=<char,char>, COMDAT

; 271  : 	return (!(_Left == _Right));

  00000	32 c0		 xor	 al, al

; 272  : 	}

  00002	c3		 ret	 0
??$?9DD@std@@YA_NABV?$allocator@D@0@0@Z ENDP		; std::operator!=<char,char>
_TEXT	ENDS
PUBLIC	??_C@_09EHCDMJCJ@IconScale?$AA@			; `string'
PUBLIC	__$ArrayPad$
EXTRN	__imp_?GetFloatAttribute@ioXMLElement@@QBEMPBD@Z:PROC
EXTRN	__imp_?ParseExtraInfo@ioButton@@UAEXAAVioXMLElement@@@Z:PROC
;	COMDAT ??_C@_09EHCDMJCJ@IconScale?$AA@
; File d:\lost saga for developer\youtube\tutorial\source\src\lsclient\stringprotect.h
CONST	SEGMENT
??_C@_09EHCDMJCJ@IconScale?$AA@ DB 'IconScale', 00H	; `string'
; Function compile flags: /Ogsp
; File d:\lost saga for developer\youtube\tutorial\source\src\lsclient\gui\tutorialwnd.cpp
CONST	ENDS
;	COMDAT ?ParseExtraInfo@TutorialBtn@@UAEXAAVioXMLElement@@@Z
_TEXT	SEGMENT
__k$522683 = -20					; size = 11
__$ArrayPad$ = -4					; size = 4
_xElement$ = 8						; size = 4
?ParseExtraInfo@TutorialBtn@@UAEXAAVioXMLElement@@@Z PROC ; TutorialBtn::ParseExtraInfo, COMDAT
; _this$ = ecx

; 49   : {

  00000	55		 push	 ebp
  00001	8b ec		 mov	 ebp, esp
  00003	83 ec 14	 sub	 esp, 20			; 00000014H
  00006	a1 00 00 00 00	 mov	 eax, DWORD PTR ___security_cookie
  0000b	33 c5		 xor	 eax, ebp
  0000d	89 45 fc	 mov	 DWORD PTR __$ArrayPad$[ebp], eax
  00010	56		 push	 esi
  00011	57		 push	 edi
  00012	8b 7d 08	 mov	 edi, DWORD PTR _xElement$[ebp]

; 50   : 	ioButton::ParseExtraInfo( xElement );

  00015	57		 push	 edi
  00016	8b f1		 mov	 esi, ecx
  00018	ff 15 00 00 00
	00		 call	 DWORD PTR __imp_?ParseExtraInfo@ioButton@@UAEXAAVioXMLElement@@@Z

; 51   : 	m_dwScreenTimer = xElement.GetIntAttribute_e( "ScreenTime" );

  0001e	6a 02		 push	 2
  00020	c7 45 ec be 8f
	99 8f		 mov	 DWORD PTR __k$522683[ebp], -1885761602 ; 8f998fbeH
  00027	c7 45 f0 88 82
	bf 83		 mov	 DWORD PTR __k$522683[ebp+4], -2084601208 ; 83bf8288H
  0002e	66 c7 45 f4 80
	89		 mov	 WORD PTR __k$522683[ebp+8], 35200 ; 00008980H
  00034	8d 45 ec	 lea	 eax, DWORD PTR __k$522683[ebp]
  00037	c6 45 f6 00	 mov	 BYTE PTR __k$522683[ebp+10], 0
  0003b	59		 pop	 ecx
$LL106@ParseExtra:
  0003c	81 30 ed ec eb
	ea		 xor	 DWORD PTR [eax], -353637139 ; eaebecedH
  00042	83 c0 04	 add	 eax, 4
  00045	49		 dec	 ecx
  00046	75 f4		 jne	 SHORT $LL106@ParseExtra
  00048	6a 08		 push	 8
  0004a	58		 pop	 eax
$LL103@ParseExtra:
  0004b	8b c8		 mov	 ecx, eax
  0004d	81 e1 03 00 00
	80		 and	 ecx, -2147483645	; 80000003H
  00053	79 05		 jns	 SHORT $LN113@ParseExtra
  00055	49		 dec	 ecx
  00056	83 c9 fc	 or	 ecx, -4			; fffffffcH
  00059	41		 inc	 ecx
$LN113@ParseExtra:
  0005a	b2 ed		 mov	 dl, -19			; ffffffedH
  0005c	2a d1		 sub	 dl, cl
  0005e	30 54 05 ec	 xor	 BYTE PTR __k$522683[ebp+eax], dl
  00062	40		 inc	 eax
  00063	83 f8 0a	 cmp	 eax, 10			; 0000000aH
  00066	7c e3		 jl	 SHORT $LL103@ParseExtra
  00068	8d 45 ec	 lea	 eax, DWORD PTR __k$522683[ebp]
  0006b	50		 push	 eax
  0006c	8b cf		 mov	 ecx, edi
  0006e	ff 15 00 00 00
	00		 call	 DWORD PTR __imp_?GetIntAttribute@ioXMLElement@@QBEHPBD@Z

; 52   : 	m_fIconScale = xElement.GetFloatAttribute( "IconScale" );

  00074	68 00 00 00 00	 push	 OFFSET ??_C@_09EHCDMJCJ@IconScale?$AA@
  00079	8b cf		 mov	 ecx, edi
  0007b	89 86 fc 01 00
	00		 mov	 DWORD PTR [esi+508], eax
  00081	ff 15 00 00 00
	00		 call	 DWORD PTR __imp_?GetFloatAttribute@ioXMLElement@@QBEMPBD@Z
  00087	d9 9e 08 02 00
	00		 fstp	 DWORD PTR [esi+520]

; 53   : 	m_dwCurTimer    = FRAMEGETTIME();

  0008d	ff 15 00 00 00
	00		 call	 DWORD PTR __imp_?GetSingleton@ioFrameTimer@@SAAAV1@XZ
  00093	8b c8		 mov	 ecx, eax
  00095	ff 15 00 00 00
	00		 call	 DWORD PTR __imp_?GetLoopSec@ioFrameTimer@@QBEKXZ

; 54   : }

  0009b	8b 4d fc	 mov	 ecx, DWORD PTR __$ArrayPad$[ebp]
  0009e	5f		 pop	 edi
  0009f	89 86 00 02 00
	00		 mov	 DWORD PTR [esi+512], eax
  000a5	33 cd		 xor	 ecx, ebp
  000a7	5e		 pop	 esi
  000a8	e8 00 00 00 00	 call	 @__security_check_cookie@4
  000ad	c9		 leave
  000ae	c2 04 00	 ret	 4
?ParseExtraInfo@TutorialBtn@@UAEXAAVioXMLElement@@@Z ENDP ; TutorialBtn::ParseExtraInfo
_TEXT	ENDS
PUBLIC	_xElement$GSCopy$
PUBLIC	_this$GSCopy$
PUBLIC	?ParseExtraInfo@TutorialWnd@@UAEXAAVioXMLElement@@@Z ; TutorialWnd::ParseExtraInfo
EXTRN	__imp_??1ioHashString@@QAE@XZ:PROC
EXTRN	?SetSound@ioTutorialManager@@QAEXABVioHashString@@000@Z:PROC ; ioTutorialManager::SetSound
EXTRN	__imp_??0ioHashString@@QAE@PBD@Z:PROC
EXTRN	__imp_??4ioHashString@@QAEAAV0@PBD@Z:PROC
EXTRN	__EH_epilog3_GS:PROC
EXTRN	__EH_prolog3_GS:PROC
;	COMDAT xdata$x
; File d:\lost saga for developer\youtube\tutorial\source\src\lsclient\stringprotect.h
xdata$x	SEGMENT
__unwindtable$?ParseExtraInfo@TutorialWnd@@UAEXAAVioXMLElement@@@Z DD 0ffffffffH
	DD	FLAT:__unwindfunclet$?ParseExtraInfo@TutorialWnd@@UAEXAAVioXMLElement@@@Z$0
	DD	00H
	DD	FLAT:__unwindfunclet$?ParseExtraInfo@TutorialWnd@@UAEXAAVioXMLElement@@@Z$1
	DD	01H
	DD	FLAT:__unwindfunclet$?ParseExtraInfo@TutorialWnd@@UAEXAAVioXMLElement@@@Z$2
	DD	02H
	DD	FLAT:__unwindfunclet$?ParseExtraInfo@TutorialWnd@@UAEXAAVioXMLElement@@@Z$3
__ehfuncinfo$?ParseExtraInfo@TutorialWnd@@UAEXAAVioXMLElement@@@Z DD 019930522H
	DD	04H
	DD	FLAT:__unwindtable$?ParseExtraInfo@TutorialWnd@@UAEXAAVioXMLElement@@@Z
	DD	2 DUP(00H)
	DD	2 DUP(00H)
	DD	00H
	DD	01H
; Function compile flags: /Ogsp
; File d:\lost saga for developer\youtube\tutorial\source\src\lsclient\gui\tutorialwnd.cpp
xdata$x	ENDS
;	COMDAT ?ParseExtraInfo@TutorialWnd@@UAEXAAVioXMLElement@@@Z
_TEXT	SEGMENT
$T522781 = -160						; size = 16
$T522780 = -144						; size = 16
$T522782 = -128						; size = 16
_this$GSCopy$ = -112					; size = 4
_xElement$GSCopy$ = -108				; size = 4
__k$523052 = -104					; size = 9
__k$523178 = -88					; size = 8
__k$523842 = -76					; size = 17
__k$523317 = -68					; size = 9
__k$523443 = -52					; size = 11
__k$522927 = -52					; size = 12
__k$523681 = -36					; size = 13
__k$523569 = -36					; size = 16
__k$522802 = -36					; size = 13
$T522779 = -32						; size = 16
__$EHRec$ = -12						; size = 12
_xElement$ = 8						; size = 4
?ParseExtraInfo@TutorialWnd@@UAEXAAVioXMLElement@@@Z PROC ; TutorialWnd::ParseExtraInfo, COMDAT
; _this$ = ecx

; 135  : {

  00000	68 94 00 00 00	 push	 148			; 00000094H
  00005	b8 00 00 00 00	 mov	 eax, __ehhandler$?ParseExtraInfo@TutorialWnd@@UAEXAAVioXMLElement@@@Z
  0000a	e8 00 00 00 00	 call	 __EH_prolog3_GS
  0000f	8b 75 08	 mov	 esi, DWORD PTR _xElement$[ebp]
  00012	8b f9		 mov	 edi, ecx

; 136  : 	m_dwTextTickTime = xElement.GetIntAttribute_e( "TextTickTime" );

  00014	33 db		 xor	 ebx, ebx
  00016	6a 03		 push	 3

; 142  : 	m_dwAutoNextTime    = xElement.GetIntAttribute_e( "AutoNextTime" );

  00018	89 7d 90	 mov	 DWORD PTR _this$GSCopy$[ebp], edi
  0001b	89 75 94	 mov	 DWORD PTR _xElement$GSCopy$[ebp], esi
  0001e	c7 45 dc b9 89
	93 9e		 mov	 DWORD PTR __k$522802[ebp], -1634498119 ; 9e9389b9H
  00025	c7 45 e0 b9 85
	88 81		 mov	 DWORD PTR __k$522802[ebp+4], -2121759303 ; 818885b9H
  0002c	c7 45 e4 b9 85
	86 8f		 mov	 DWORD PTR __k$522802[ebp+8], -1887009351 ; 8f8685b9H
  00033	8d 45 dc	 lea	 eax, DWORD PTR __k$522802[ebp]
  00036	88 5d e8	 mov	 BYTE PTR __k$522802[ebp+12], bl
  00039	59		 pop	 ecx
$LL110@ParseExtra@2:

; 136  : 	m_dwTextTickTime = xElement.GetIntAttribute_e( "TextTickTime" );

  0003a	81 30 ed ec eb
	ea		 xor	 DWORD PTR [eax], -353637139 ; eaebecedH
  00040	83 c0 04	 add	 eax, 4
  00043	49		 dec	 ecx
  00044	75 f4		 jne	 SHORT $LL110@ParseExtra@2
  00046	8d 45 dc	 lea	 eax, DWORD PTR __k$522802[ebp]
  00049	50		 push	 eax
  0004a	8b ce		 mov	 ecx, esi
  0004c	ff 15 00 00 00
	00		 call	 DWORD PTR __imp_?GetIntAttribute@ioXMLElement@@QBEHPBD@Z
  00052	6a 02		 push	 2
  00054	89 87 6c 01 00
	00		 mov	 DWORD PTR [edi+364], eax

; 137  : 	m_szTextTickSnd  = xElement.GetStringAttribute_e( "TextTickSnd" );

  0005a	c7 45 cc b9 89
	93 9e		 mov	 DWORD PTR __k$522927[ebp], -1634498119 ; 9e9389b9H
  00061	c7 45 d0 b9 85
	88 81		 mov	 DWORD PTR __k$522927[ebp+4], -2121759303 ; 818885b9H
  00068	8d 45 cc	 lea	 eax, DWORD PTR __k$522927[ebp]
  0006b	c7 45 d4 be 82
	8f 00		 mov	 DWORD PTR __k$522927[ebp+8], 9405118 ; 008f82beH
  00072	59		 pop	 ecx
$LL216@ParseExtra@2:
  00073	81 30 ed ec eb
	ea		 xor	 DWORD PTR [eax], -353637139 ; eaebecedH
  00079	83 c0 04	 add	 eax, 4
  0007c	49		 dec	 ecx
  0007d	75 f4		 jne	 SHORT $LL216@ParseExtra@2
  0007f	6a 08		 push	 8
  00081	58		 pop	 eax
$LL213@ParseExtra@2:
  00082	8b c8		 mov	 ecx, eax
  00084	81 e1 03 00 00
	80		 and	 ecx, -2147483645	; 80000003H
  0008a	79 05		 jns	 SHORT $LN998@ParseExtra@2
  0008c	49		 dec	 ecx
  0008d	83 c9 fc	 or	 ecx, -4			; fffffffcH
  00090	41		 inc	 ecx
$LN998@ParseExtra@2:
  00091	b2 ed		 mov	 dl, -19			; ffffffedH
  00093	2a d1		 sub	 dl, cl
  00095	30 54 05 cc	 xor	 BYTE PTR __k$522927[ebp+eax], dl
  00099	40		 inc	 eax
  0009a	83 f8 0b	 cmp	 eax, 11			; 0000000bH
  0009d	7c e3		 jl	 SHORT $LL213@ParseExtra@2
  0009f	8d 45 cc	 lea	 eax, DWORD PTR __k$522927[ebp]
  000a2	8b ce		 mov	 ecx, esi
  000a4	8b 35 00 00 00
	00		 mov	 esi, DWORD PTR __imp_?GetStringAttribute@ioXMLElement@@QBEPBDPBD@Z
  000aa	50		 push	 eax
  000ab	ff d6		 call	 esi
  000ad	50		 push	 eax
  000ae	8d 8f 80 01 00
	00		 lea	 ecx, DWORD PTR [edi+384]
  000b4	ff 15 00 00 00
	00		 call	 DWORD PTR __imp_??4ioHashString@@QAEAAV0@PBD@Z
  000ba	6a 02		 push	 2

; 138  : 	g_TutorialMgr.SetSound( xElement.GetStringAttribute_e( "CountUpSnd" ), xElement.GetStringAttribute_e( "StartSnd" ),
; 139  : 							xElement.GetStringAttribute_e( "NextSnd" ), xElement.GetStringAttribute_e( "ClearSnd" ) );

  000bc	c7 45 98 ae 80
	8e 8b		 mov	 DWORD PTR __k$523052[ebp], -1953595218 ; 8b8e80aeH
  000c3	c7 45 9c 9f bf
	85 8e		 mov	 DWORD PTR __k$523052[ebp+4], -1903837281 ; 8e85bf9fH
  000ca	8d 45 98	 lea	 eax, DWORD PTR __k$523052[ebp]
  000cd	88 5d a0	 mov	 BYTE PTR __k$523052[ebp+8], bl
  000d0	59		 pop	 ecx
$LL322@ParseExtra@2:
  000d1	81 30 ed ec eb
	ea		 xor	 DWORD PTR [eax], -353637139 ; eaebecedH
  000d7	83 c0 04	 add	 eax, 4
  000da	49		 dec	 ecx
  000db	75 f4		 jne	 SHORT $LL322@ParseExtra@2
  000dd	8b 4d 94	 mov	 ecx, DWORD PTR _xElement$GSCopy$[ebp]
  000e0	8d 45 98	 lea	 eax, DWORD PTR __k$523052[ebp]
  000e3	50		 push	 eax
  000e4	ff d6		 call	 esi
  000e6	8b 3d 00 00 00
	00		 mov	 edi, DWORD PTR __imp_??0ioHashString@@QAE@PBD@Z
  000ec	50		 push	 eax
  000ed	8d 4d e0	 lea	 ecx, DWORD PTR $T522779[ebp]
  000f0	ff d7		 call	 edi
  000f2	6a 04		 push	 4
  000f4	c7 45 a8 a3 89
	93 9e		 mov	 DWORD PTR __k$523178[ebp], -1634498141 ; 9e9389a3H
  000fb	81 75 a8 ed ec
	eb ea		 xor	 DWORD PTR __k$523178[ebp], -353637139 ; eaebecedH
  00102	89 5d fc	 mov	 DWORD PTR __$EHRec$[ebp+8], ebx
  00105	c7 45 ac be 82
	8f 00		 mov	 DWORD PTR __k$523178[ebp+4], 9405118 ; 008f82beH
  0010c	58		 pop	 eax
$LL425@ParseExtra@2:
  0010d	8b c8		 mov	 ecx, eax
  0010f	81 e1 03 00 00
	80		 and	 ecx, -2147483645	; 80000003H
  00115	79 05		 jns	 SHORT $LN999@ParseExtra@2
  00117	49		 dec	 ecx
  00118	83 c9 fc	 or	 ecx, -4			; fffffffcH
  0011b	41		 inc	 ecx
$LN999@ParseExtra@2:
  0011c	b2 ed		 mov	 dl, -19			; ffffffedH
  0011e	2a d1		 sub	 dl, cl
  00120	30 54 05 a8	 xor	 BYTE PTR __k$523178[ebp+eax], dl
  00124	40		 inc	 eax
  00125	83 f8 07	 cmp	 eax, 7
  00128	7c e3		 jl	 SHORT $LL425@ParseExtra@2
  0012a	8b 4d 94	 mov	 ecx, DWORD PTR _xElement$GSCopy$[ebp]
  0012d	8d 45 a8	 lea	 eax, DWORD PTR __k$523178[ebp]
  00130	50		 push	 eax
  00131	ff d6		 call	 esi
  00133	50		 push	 eax
  00134	8d 8d 70 ff ff
	ff		 lea	 ecx, DWORD PTR $T522780[ebp]
  0013a	ff d7		 call	 edi
  0013c	6a 02		 push	 2
  0013e	c6 45 fc 01	 mov	 BYTE PTR __$EHRec$[ebp+8], 1
  00142	c7 45 bc be 98
	8a 98		 mov	 DWORD PTR __k$523317[ebp], -1735747394 ; 988a98beH
  00149	c7 45 c0 99 bf
	85 8e		 mov	 DWORD PTR __k$523317[ebp+4], -1903837287 ; 8e85bf99H
  00150	8d 45 bc	 lea	 eax, DWORD PTR __k$523317[ebp]
  00153	88 5d c4	 mov	 BYTE PTR __k$523317[ebp+8], bl
  00156	59		 pop	 ecx
$LL534@ParseExtra@2:
  00157	81 30 ed ec eb
	ea		 xor	 DWORD PTR [eax], -353637139 ; eaebecedH
  0015d	83 c0 04	 add	 eax, 4
  00160	49		 dec	 ecx
  00161	75 f4		 jne	 SHORT $LL534@ParseExtra@2
  00163	8b 4d 94	 mov	 ecx, DWORD PTR _xElement$GSCopy$[ebp]
  00166	8d 45 bc	 lea	 eax, DWORD PTR __k$523317[ebp]
  00169	50		 push	 eax
  0016a	ff d6		 call	 esi
  0016c	50		 push	 eax
  0016d	8d 8d 60 ff ff
	ff		 lea	 ecx, DWORD PTR $T522781[ebp]
  00173	ff d7		 call	 edi
  00175	6a 02		 push	 2
  00177	c6 45 fc 02	 mov	 BYTE PTR __$EHRec$[ebp+8], 2
  0017b	c7 45 cc ae 83
	9e 84		 mov	 DWORD PTR __k$523443[ebp], -2069986386 ; 849e83aeH
  00182	c7 45 d0 99 b9
	9b b9		 mov	 DWORD PTR __k$523443[ebp+4], -1180976743 ; b99bb999H
  00189	66 c7 45 d4 83
	88		 mov	 WORD PTR __k$523443[ebp+8], 34947 ; 00008883H
  0018f	8d 45 cc	 lea	 eax, DWORD PTR __k$523443[ebp]
  00192	88 5d d6	 mov	 BYTE PTR __k$523443[ebp+10], bl
  00195	59		 pop	 ecx
$LL640@ParseExtra@2:
  00196	81 30 ed ec eb
	ea		 xor	 DWORD PTR [eax], -353637139 ; eaebecedH
  0019c	83 c0 04	 add	 eax, 4
  0019f	49		 dec	 ecx
  001a0	75 f4		 jne	 SHORT $LL640@ParseExtra@2
  001a2	6a 08		 push	 8
  001a4	58		 pop	 eax
$LL637@ParseExtra@2:
  001a5	8b c8		 mov	 ecx, eax
  001a7	81 e1 03 00 00
	80		 and	 ecx, -2147483645	; 80000003H
  001ad	79 05		 jns	 SHORT $LN1000@ParseExtra@2
  001af	49		 dec	 ecx
  001b0	83 c9 fc	 or	 ecx, -4			; fffffffcH
  001b3	41		 inc	 ecx
$LN1000@ParseExtra@2:
  001b4	b2 ed		 mov	 dl, -19			; ffffffedH
  001b6	2a d1		 sub	 dl, cl
  001b8	30 54 05 cc	 xor	 BYTE PTR __k$523443[ebp+eax], dl
  001bc	40		 inc	 eax
  001bd	83 f8 0a	 cmp	 eax, 10			; 0000000aH
  001c0	7c e3		 jl	 SHORT $LL637@ParseExtra@2
  001c2	8b 4d 94	 mov	 ecx, DWORD PTR _xElement$GSCopy$[ebp]
  001c5	8d 45 cc	 lea	 eax, DWORD PTR __k$523443[ebp]
  001c8	50		 push	 eax
  001c9	ff d6		 call	 esi
  001cb	50		 push	 eax
  001cc	8d 4d 80	 lea	 ecx, DWORD PTR $T522782[ebp]
  001cf	ff d7		 call	 edi
  001d1	8d 45 e0	 lea	 eax, DWORD PTR $T522779[ebp]
  001d4	50		 push	 eax
  001d5	8d 85 70 ff ff
	ff		 lea	 eax, DWORD PTR $T522780[ebp]
  001db	50		 push	 eax
  001dc	8d 85 60 ff ff
	ff		 lea	 eax, DWORD PTR $T522781[ebp]
  001e2	50		 push	 eax
  001e3	8d 45 80	 lea	 eax, DWORD PTR $T522782[ebp]
  001e6	50		 push	 eax
  001e7	c6 45 fc 03	 mov	 BYTE PTR __$EHRec$[ebp+8], 3
  001eb	e8 00 00 00 00	 call	 ?GetSingleton@ioTutorialManager@@SAAAV1@XZ ; ioTutorialManager::GetSingleton
  001f0	8b c8		 mov	 ecx, eax
  001f2	e8 00 00 00 00	 call	 ?SetSound@ioTutorialManager@@QAEXABVioHashString@@000@Z ; ioTutorialManager::SetSound
  001f7	8b 35 00 00 00
	00		 mov	 esi, DWORD PTR __imp_??1ioHashString@@QAE@XZ
  001fd	8d 4d 80	 lea	 ecx, DWORD PTR $T522782[ebp]
  00200	c6 45 fc 02	 mov	 BYTE PTR __$EHRec$[ebp+8], 2
  00204	ff d6		 call	 esi
  00206	8d 8d 60 ff ff
	ff		 lea	 ecx, DWORD PTR $T522781[ebp]
  0020c	c6 45 fc 01	 mov	 BYTE PTR __$EHRec$[ebp+8], 1
  00210	ff d6		 call	 esi
  00212	8d 8d 70 ff ff
	ff		 lea	 ecx, DWORD PTR $T522780[ebp]
  00218	88 5d fc	 mov	 BYTE PTR __$EHRec$[ebp+8], bl
  0021b	ff d6		 call	 esi
  0021d	83 4d fc ff	 or	 DWORD PTR __$EHRec$[ebp+8], -1
  00221	8d 4d e0	 lea	 ecx, DWORD PTR $T522779[ebp]
  00224	ff d6		 call	 esi
  00226	6a 03		 push	 3

; 140  : 
; 141  : 	m_dwSkipBtnShowTime = xElement.GetIntAttribute_e( "SkipBtnShowTime" );

  00228	c7 45 dc be 87
	82 9a		 mov	 DWORD PTR __k$523569[ebp], -1702721602 ; 9a8287beH
  0022f	c7 45 e0 af 98
	85 b9		 mov	 DWORD PTR __k$523569[ebp+4], -1182426961 ; b98598afH
  00236	c7 45 e4 85 83
	9c be		 mov	 DWORD PTR __k$523569[ebp+8], -1097038971 ; be9c8385H
  0023d	8d 45 dc	 lea	 eax, DWORD PTR __k$523569[ebp]
  00240	c7 45 e8 84 81
	8e 00		 mov	 DWORD PTR __k$523569[ebp+12], 9339268 ; 008e8184H
  00247	59		 pop	 ecx
$LL746@ParseExtra@2:
  00248	81 30 ed ec eb
	ea		 xor	 DWORD PTR [eax], -353637139 ; eaebecedH
  0024e	83 c0 04	 add	 eax, 4
  00251	49		 dec	 ecx
  00252	75 f4		 jne	 SHORT $LL746@ParseExtra@2
  00254	6a 0c		 push	 12			; 0000000cH
  00256	5e		 pop	 esi
$LL743@ParseExtra@2:
  00257	8b c6		 mov	 eax, esi
  00259	25 03 00 00 80	 and	 eax, -2147483645	; 80000003H
  0025e	79 05		 jns	 SHORT $LN1001@ParseExtra@2
  00260	48		 dec	 eax
  00261	83 c8 fc	 or	 eax, -4			; fffffffcH
  00264	40		 inc	 eax
$LN1001@ParseExtra@2:
  00265	b1 ed		 mov	 cl, -19			; ffffffedH
  00267	2a c8		 sub	 cl, al
  00269	30 4c 35 dc	 xor	 BYTE PTR __k$523569[ebp+esi], cl
  0026d	46		 inc	 esi
  0026e	83 fe 0f	 cmp	 esi, 15			; 0000000fH
  00271	7c e4		 jl	 SHORT $LL743@ParseExtra@2
  00273	8b 4d 94	 mov	 ecx, DWORD PTR _xElement$GSCopy$[ebp]
  00276	8b 35 00 00 00
	00		 mov	 esi, DWORD PTR __imp_?GetIntAttribute@ioXMLElement@@QBEHPBD@Z
  0027c	8d 45 dc	 lea	 eax, DWORD PTR __k$523569[ebp]
  0027f	50		 push	 eax
  00280	ff d6		 call	 esi
  00282	8b 7d 90	 mov	 edi, DWORD PTR _this$GSCopy$[ebp]
  00285	6a 03		 push	 3
  00287	89 87 90 01 00
	00		 mov	 DWORD PTR [edi+400], eax

; 142  : 	m_dwAutoNextTime    = xElement.GetIntAttribute_e( "AutoNextTime" );

  0028d	c7 45 dc ac 99
	9f 85		 mov	 DWORD PTR __k$523681[ebp], -2053138004 ; 859f99acH
  00294	c7 45 e0 a3 89
	93 9e		 mov	 DWORD PTR __k$523681[ebp+4], -1634498141 ; 9e9389a3H
  0029b	c7 45 e4 b9 85
	86 8f		 mov	 DWORD PTR __k$523681[ebp+8], -1887009351 ; 8f8685b9H
  002a2	8d 45 dc	 lea	 eax, DWORD PTR __k$523681[ebp]
  002a5	88 5d e8	 mov	 BYTE PTR __k$523681[ebp+12], bl
  002a8	59		 pop	 ecx
$LL852@ParseExtra@2:
  002a9	81 30 ed ec eb
	ea		 xor	 DWORD PTR [eax], -353637139 ; eaebecedH
  002af	83 c0 04	 add	 eax, 4
  002b2	49		 dec	 ecx
  002b3	75 f4		 jne	 SHORT $LL852@ParseExtra@2
  002b5	8b 4d 94	 mov	 ecx, DWORD PTR _xElement$GSCopy$[ebp]
  002b8	8d 45 dc	 lea	 eax, DWORD PTR __k$523681[ebp]
  002bb	50		 push	 eax
  002bc	ff d6		 call	 esi
  002be	6a 04		 push	 4
  002c0	89 87 98 01 00
	00		 mov	 DWORD PTR [edi+408], eax

; 143  : 	m_dwSkipStepShowTime= xElement.GetIntAttribute_e( "SkipStepShowTime" );

  002c6	c7 45 b4 be 87
	82 9a		 mov	 DWORD PTR __k$523842[ebp], -1702721602 ; 9a8287beH
  002cd	c7 45 b8 be 98
	8e 9a		 mov	 DWORD PTR __k$523842[ebp+4], -1701930818 ; 9a8e98beH
  002d4	c7 45 bc be 84
	84 9d		 mov	 DWORD PTR __k$523842[ebp+8], -1652259650 ; 9d8484beH
  002db	c7 45 c0 b9 85
	86 8f		 mov	 DWORD PTR __k$523842[ebp+12], -1887009351 ; 8f8685b9H
  002e2	8d 45 b4	 lea	 eax, DWORD PTR __k$523842[ebp]
  002e5	88 5d c4	 mov	 BYTE PTR __k$523842[ebp+16], bl
  002e8	59		 pop	 ecx
$LL958@ParseExtra@2:
  002e9	81 30 ed ec eb
	ea		 xor	 DWORD PTR [eax], -353637139 ; eaebecedH
  002ef	83 c0 04	 add	 eax, 4
  002f2	49		 dec	 ecx
  002f3	75 f4		 jne	 SHORT $LL958@ParseExtra@2
  002f5	8b 4d 94	 mov	 ecx, DWORD PTR _xElement$GSCopy$[ebp]
  002f8	8d 45 b4	 lea	 eax, DWORD PTR __k$523842[ebp]
  002fb	50		 push	 eax
  002fc	ff d6		 call	 esi
  002fe	89 87 f4 01 00
	00		 mov	 DWORD PTR [edi+500], eax

; 144  : 
; 145  : }

  00304	e8 00 00 00 00	 call	 __EH_epilog3_GS
  00309	c2 04 00	 ret	 4
_TEXT	ENDS
;	COMDAT text$x
text$x	SEGMENT
__unwindfunclet$?ParseExtraInfo@TutorialWnd@@UAEXAAVioXMLElement@@@Z$0:
  00000	8d 4d e0	 lea	 ecx, DWORD PTR $T522779[ebp]
  00003	ff 25 00 00 00
	00		 jmp	 DWORD PTR __imp_??1ioHashString@@QAE@XZ
__unwindfunclet$?ParseExtraInfo@TutorialWnd@@UAEXAAVioXMLElement@@@Z$1:
  00009	8d 8d 70 ff ff
	ff		 lea	 ecx, DWORD PTR $T522780[ebp]
  0000f	ff 25 00 00 00
	00		 jmp	 DWORD PTR __imp_??1ioHashString@@QAE@XZ
__unwindfunclet$?ParseExtraInfo@TutorialWnd@@UAEXAAVioXMLElement@@@Z$2:
  00015	8d 8d 60 ff ff
	ff		 lea	 ecx, DWORD PTR $T522781[ebp]
  0001b	ff 25 00 00 00
	00		 jmp	 DWORD PTR __imp_??1ioHashString@@QAE@XZ
__unwindfunclet$?ParseExtraInfo@TutorialWnd@@UAEXAAVioXMLElement@@@Z$3:
  00021	8d 4d 80	 lea	 ecx, DWORD PTR $T522782[ebp]
  00024	ff 25 00 00 00
	00		 jmp	 DWORD PTR __imp_??1ioHashString@@QAE@XZ
__ehhandler$?ParseExtraInfo@TutorialWnd@@UAEXAAVioXMLElement@@@Z:
  0002a	8b 54 24 08	 mov	 edx, DWORD PTR [esp+8]
  0002e	8d 42 0c	 lea	 eax, DWORD PTR [edx+12]
  00031	8b 8a 5c ff ff
	ff		 mov	 ecx, DWORD PTR [edx-164]
  00037	33 c8		 xor	 ecx, eax
  00039	e8 00 00 00 00	 call	 @__security_check_cookie@4
  0003e	8b 4a fc	 mov	 ecx, DWORD PTR [edx-4]
  00041	33 c8		 xor	 ecx, eax
  00043	e8 00 00 00 00	 call	 @__security_check_cookie@4
  00048	b8 00 00 00 00	 mov	 eax, OFFSET __ehfuncinfo$?ParseExtraInfo@TutorialWnd@@UAEXAAVioXMLElement@@@Z
  0004d	e9 00 00 00 00	 jmp	 ___CxxFrameHandler3
text$x	ENDS
?ParseExtraInfo@TutorialWnd@@UAEXAAVioXMLElement@@@Z ENDP ; TutorialWnd::ParseExtraInfo
PUBLIC	??_C@_02DKCKIIND@?$CFs?$AA@			; `string'
PUBLIC	__$ArrayPad$
PUBLIC	?ProcessTextTick@TutorialWnd@@IAEXXZ		; TutorialWnd::ProcessTextTick
EXTRN	?ActionTextTickEnd@ioTutorialManager@@QAEXXZ:PROC ; ioTutorialManager::ActionTextTickEnd
EXTRN	__imp__sprintf:PROC
EXTRN	__imp_?PlaySoundA@ioSoundManager@@QAEKABVioHashString@@HK@Z:PROC
EXTRN	__imp_?GetSingleton@ioSoundManager@@SAAAV1@XZ:PROC
;	COMDAT ??_C@_02DKCKIIND@?$CFs?$AA@
; File c:\program files (x86)\microsoft visual studio 10.0\vc\include\vector
CONST	SEGMENT
??_C@_02DKCKIIND@?$CFs?$AA@ DB '%s', 00H		; `string'
; Function compile flags: /Ogsp
; File d:\lost saga for developer\youtube\tutorial\source\src\lsclient\gui\tutorialwnd.cpp
CONST	ENDS
;	COMDAT ?ProcessTextTick@TutorialWnd@@IAEXXZ
_TEXT	SEGMENT
tv258 = -268						; size = 4
_szHelp$ = -264						; size = 260
__$ArrayPad$ = -4					; size = 4
?ProcessTextTick@TutorialWnd@@IAEXXZ PROC		; TutorialWnd::ProcessTextTick, COMDAT
; _this$ = ecx

; 258  : {

  00000	55		 push	 ebp
  00001	8b ec		 mov	 ebp, esp
  00003	81 ec 0c 01 00
	00		 sub	 esp, 268		; 0000010cH
  00009	a1 00 00 00 00	 mov	 eax, DWORD PTR ___security_cookie
  0000e	33 c5		 xor	 eax, ebp
  00010	89 45 fc	 mov	 DWORD PTR __$ArrayPad$[ebp], eax
  00013	53		 push	 ebx
  00014	56		 push	 esi
  00015	8b f1		 mov	 esi, ecx

; 259  : 	if( !IsTextTick() ) return;

  00017	33 db		 xor	 ebx, ebx
  00019	39 9e 70 01 00
	00		 cmp	 DWORD PTR [esi+368], ebx
  0001f	0f 84 99 01 00
	00		 je	 $LN9@ProcessTex

; 260  : 	if( !COMPARE( m_iCurTextLineCount, 0, (int)m_DescList.size() ) ) return;

  00025	8b 8e 78 01 00
	00		 mov	 ecx, DWORD PTR [esi+376]
  0002b	3b cb		 cmp	 ecx, ebx
  0002d	0f 8c 8b 01 00
	00		 jl	 $LN9@ProcessTex
  00033	8b 86 c8 01 00
	00		 mov	 eax, DWORD PTR [esi+456]
  00039	2b 86 c4 01 00
	00		 sub	 eax, DWORD PTR [esi+452]
  0003f	57		 push	 edi
  00040	6a 1c		 push	 28			; 0000001cH
  00042	99		 cdq
  00043	5f		 pop	 edi
  00044	f7 ff		 idiv	 edi
  00046	3b c8		 cmp	 ecx, eax
  00048	0f 8d 6f 01 00
	00		 jge	 $LN35@ProcessTex

; 261  : 	if( FRAMEGETTIME() - m_dwCurTextTickTime < m_dwTextTickTime ) return;

  0004e	8b 3d 00 00 00
	00		 mov	 edi, DWORD PTR __imp_?GetSingleton@ioFrameTimer@@SAAAV1@XZ
  00054	ff d7		 call	 edi
  00056	8b c8		 mov	 ecx, eax
  00058	ff 15 00 00 00
	00		 call	 DWORD PTR __imp_?GetLoopSec@ioFrameTimer@@QBEKXZ
  0005e	2b 86 70 01 00
	00		 sub	 eax, DWORD PTR [esi+368]
  00064	3b 86 6c 01 00
	00		 cmp	 eax, DWORD PTR [esi+364]
  0006a	0f 82 4d 01 00
	00		 jb	 $LN35@ProcessTex

; 262  : 
; 263  : 	m_dwCurTextTickTime = FRAMEGETTIME();

  00070	ff d7		 call	 edi
  00072	8b c8		 mov	 ecx, eax
  00074	ff 15 00 00 00
	00		 call	 DWORD PTR __imp_?GetLoopSec@ioFrameTimer@@QBEKXZ

; 264  : 
; 265  : 	if( !m_szTextTickSnd.IsEmpty() )

  0007a	8d be 80 01 00
	00		 lea	 edi, DWORD PTR [esi+384]
  00080	8b cf		 mov	 ecx, edi
  00082	89 86 70 01 00
	00		 mov	 DWORD PTR [esi+368], eax
  00088	ff 15 00 00 00
	00		 call	 DWORD PTR __imp_?IsEmpty@ioHashString@@QBE_NXZ
  0008e	84 c0		 test	 al, al
  00090	75 12		 jne	 SHORT $LN7@ProcessTex

; 266  : 		g_SoundMgr.PlaySound( m_szTextTickSnd );

  00092	6a 04		 push	 4
  00094	53		 push	 ebx
  00095	57		 push	 edi
  00096	ff 15 00 00 00
	00		 call	 DWORD PTR __imp_?GetSingleton@ioSoundManager@@SAAAV1@XZ
  0009c	8b c8		 mov	 ecx, eax
  0009e	ff 15 00 00 00
	00		 call	 DWORD PTR __imp_?PlaySoundA@ioSoundManager@@QAEKABVioHashString@@HK@Z
$LN7@ProcessTex:

; 267  : 
; 268  : 	char szHelp[MAX_PATH] = "";
; 269  : 	memset( szHelp, 0, sizeof( szHelp ) );

  000a4	bf 04 01 00 00	 mov	 edi, 260		; 00000104H
  000a9	57		 push	 edi
  000aa	8d 85 f8 fe ff
	ff		 lea	 eax, DWORD PTR _szHelp$[ebp]
  000b0	53		 push	 ebx
  000b1	50		 push	 eax
  000b2	e8 00 00 00 00	 call	 _memset

; 270  : 	sprintf( szHelp, "%s", m_DescList[m_iCurTextLineCount].c_str() );

  000b7	8b 86 78 01 00
	00		 mov	 eax, DWORD PTR [esi+376]
  000bd	6b c0 1c	 imul	 eax, 28			; 0000001cH
  000c0	03 86 c4 01 00
	00		 add	 eax, DWORD PTR [esi+452]
  000c6	83 c4 0c	 add	 esp, 12			; 0000000cH
  000c9	83 78 14 10	 cmp	 DWORD PTR [eax+20], 16	; 00000010H
  000cd	72 02		 jb	 SHORT $LN25@ProcessTex
  000cf	8b 00		 mov	 eax, DWORD PTR [eax]
$LN25@ProcessTex:
  000d1	50		 push	 eax
  000d2	8d 85 f8 fe ff
	ff		 lea	 eax, DWORD PTR _szHelp$[ebp]
  000d8	68 00 00 00 00	 push	 OFFSET ??_C@_02DKCKIIND@?$CFs?$AA@
  000dd	50		 push	 eax
  000de	ff 15 00 00 00
	00		 call	 DWORD PTR __imp__sprintf

; 271  : 
; 272  : 	int iMaxLen = strlen( szHelp );

  000e4	8d 85 f8 fe ff
	ff		 lea	 eax, DWORD PTR _szHelp$[ebp]
  000ea	83 c4 0c	 add	 esp, 12			; 0000000cH
  000ed	8d 48 01	 lea	 ecx, DWORD PTR [eax+1]
$LL33@ProcessTex:
  000f0	8a 10		 mov	 dl, BYTE PTR [eax]
  000f2	40		 inc	 eax
  000f3	3a d3		 cmp	 dl, bl
  000f5	75 f9		 jne	 SHORT $LL33@ProcessTex
  000f7	2b c1		 sub	 eax, ecx

; 273  : 
; 274  : #if defined( SRC_OVERSEAS ) && !defined( SRC_ID )
; 275  : 
; 276  : #if defined( MULTI_BYTE_CHECK )
; 277  : 	if( IsDBCSLeadByteEx( COUNTRY_CODE_PAGE, (BYTE)szHelp[m_iCurTextTickCount] ) )
; 278  : #else
; 279  : 	if( false && IsDBCSLeadByteEx( COUNTRY_CODE_PAGE, (BYTE)szHelp[m_iCurTextTickCount] ) )
; 280  : #endif
; 281  : 
; 282  : #else
; 283  : 	if( IsDBCSLeadByte ( (BYTE)szHelp[m_iCurTextTickCount] ) )
; 284  : #endif
; 285  : 
; 286  : 		m_iCurTextTickCount+=2;
; 287  : 	else 
; 288  : 		m_iCurTextTickCount+=1;

  000f9	ff 86 74 01 00
	00		 inc	 DWORD PTR [esi+372]
  000ff	89 85 f4 fe ff
	ff		 mov	 DWORD PTR tv258[ebp], eax

; 289  : 
; 290  : 	// Exception Check
; 291  : 	if( (m_iCurTextLineCount >= (int)m_vStringTickList.size()) ||
; 292  : 		(m_iCurTextTickCount >= MAX_PATH) )

  00105	8b 86 a8 01 00
	00		 mov	 eax, DWORD PTR [esi+424]
  0010b	2b 86 a4 01 00
	00		 sub	 eax, DWORD PTR [esi+420]
  00111	8b df		 mov	 ebx, edi
  00113	99		 cdq
  00114	f7 fb		 idiv	 ebx
  00116	8b 8e 78 01 00
	00		 mov	 ecx, DWORD PTR [esi+376]
  0011c	3b c8		 cmp	 ecx, eax
  0011e	7d 5c		 jge	 SHORT $LN3@ProcessTex
  00120	8b 86 74 01 00
	00		 mov	 eax, DWORD PTR [esi+372]
  00126	3b c7		 cmp	 eax, edi
  00128	7d 52		 jge	 SHORT $LN3@ProcessTex

; 300  : 		return;
; 301  : 	}
; 302  : 
; 303  : 	memcpy( m_vStringTickList[m_iCurTextLineCount].m_szCopyDesc, szHelp, m_iCurTextTickCount );

  0012a	69 c9 04 01 00
	00		 imul	 ecx, 260		; 00000104H
  00130	03 8e a4 01 00
	00		 add	 ecx, DWORD PTR [esi+420]
  00136	50		 push	 eax
  00137	8d 85 f8 fe ff
	ff		 lea	 eax, DWORD PTR _szHelp$[ebp]
  0013d	50		 push	 eax
  0013e	51		 push	 ecx
  0013f	e8 00 00 00 00	 call	 _memcpy

; 304  : 
; 305  : 	if( m_iCurTextTickCount >= iMaxLen )

  00144	8b 85 f4 fe ff
	ff		 mov	 eax, DWORD PTR tv258[ebp]
  0014a	83 c4 0c	 add	 esp, 12			; 0000000cH
  0014d	39 86 74 01 00
	00		 cmp	 DWORD PTR [esi+372], eax
  00153	7c 0d		 jl	 SHORT $LN34@ProcessTex

; 306  : 	{
; 307  : 		m_iCurTextTickCount = 0;

  00155	83 a6 74 01 00
	00 00		 and	 DWORD PTR [esi+372], 0

; 308  : 		m_iCurTextLineCount++;

  0015c	ff 86 78 01 00
	00		 inc	 DWORD PTR [esi+376]
$LN34@ProcessTex:

; 309  : 	}
; 310  : 
; 311  : 	if( m_iCurTextLineCount >= (int)m_DescList.size() )

  00162	8b 86 c8 01 00
	00		 mov	 eax, DWORD PTR [esi+456]
  00168	2b 86 c4 01 00
	00		 sub	 eax, DWORD PTR [esi+452]
  0016e	6a 1c		 push	 28			; 0000001cH
  00170	99		 cdq
  00171	59		 pop	 ecx
  00172	f7 f9		 idiv	 ecx
  00174	39 86 78 01 00
	00		 cmp	 DWORD PTR [esi+376], eax
  0017a	7c 41		 jl	 SHORT $LN35@ProcessTex
$LN3@ProcessTex:

; 293  : 	{
; 294  : 		m_dwCurTextTickTime = 0;
; 295  : 		m_iCurTextTickCount = 0;
; 296  : 		m_iCurTextLineCount = 0;
; 297  : 		ShowButtonID( m_iShowBtnID );

  0017c	ff b6 7c 01 00
	00		 push	 DWORD PTR [esi+380]
  00182	33 c0		 xor	 eax, eax
  00184	8b ce		 mov	 ecx, esi
  00186	89 86 70 01 00
	00		 mov	 DWORD PTR [esi+368], eax
  0018c	89 86 74 01 00
	00		 mov	 DWORD PTR [esi+372], eax
  00192	89 86 78 01 00
	00		 mov	 DWORD PTR [esi+376], eax
  00198	e8 00 00 00 00	 call	 ?ShowButtonID@TutorialWnd@@IAEXH@Z ; TutorialWnd::ShowButtonID

; 298  : 		g_TutorialMgr.ActionTextTickEnd();

  0019d	e8 00 00 00 00	 call	 ?GetSingleton@ioTutorialManager@@SAAAV1@XZ ; ioTutorialManager::GetSingleton
  001a2	8b c8		 mov	 ecx, eax
  001a4	e8 00 00 00 00	 call	 ?ActionTextTickEnd@ioTutorialManager@@QAEXXZ ; ioTutorialManager::ActionTextTickEnd

; 299  : 		m_dwCurSkipBtnShowTime = FRAMEGETTIME();

  001a9	ff 15 00 00 00
	00		 call	 DWORD PTR __imp_?GetSingleton@ioFrameTimer@@SAAAV1@XZ
  001af	8b c8		 mov	 ecx, eax
  001b1	ff 15 00 00 00
	00		 call	 DWORD PTR __imp_?GetLoopSec@ioFrameTimer@@QBEKXZ
  001b7	89 86 94 01 00
	00		 mov	 DWORD PTR [esi+404], eax
$LN35@ProcessTex:
  001bd	5f		 pop	 edi
$LN9@ProcessTex:

; 312  : 	{
; 313  : 		m_dwCurTextTickTime = 0;
; 314  : 		m_iCurTextTickCount = 0;
; 315  : 		m_iCurTextLineCount = 0;
; 316  : 		ShowButtonID( m_iShowBtnID );
; 317  : 		g_TutorialMgr.ActionTextTickEnd();
; 318  : 		m_dwCurSkipBtnShowTime = FRAMEGETTIME();
; 319  : 	}
; 320  : }

  001be	8b 4d fc	 mov	 ecx, DWORD PTR __$ArrayPad$[ebp]
  001c1	5e		 pop	 esi
  001c2	33 cd		 xor	 ecx, ebp
  001c4	5b		 pop	 ebx
  001c5	e8 00 00 00 00	 call	 @__security_check_cookie@4
  001ca	c9		 leave
  001cb	c3		 ret	 0
?ProcessTextTick@TutorialWnd@@IAEXXZ ENDP		; TutorialWnd::ProcessTextTick
_TEXT	ENDS
PUBLIC	_this$GSCopy$
PUBLIC	__$ArrayPad$
PUBLIC	?AddRenderFrame@TutorialWnd@@MAEXABVioHashString@@PAVioUIRenderFrame@@@Z ; TutorialWnd::AddRenderFrame
EXTRN	__imp_?AddRenderFrame@ioWnd@@UAEXABVioHashString@@PAVioUIRenderFrame@@@Z:PROC
; Function compile flags: /Ogsp
;	COMDAT ?AddRenderFrame@TutorialWnd@@MAEXABVioHashString@@PAVioUIRenderFrame@@@Z
_TEXT	SEGMENT
_this$GSCopy$ = -24					; size = 4
__t$524032 = -20					; size = 12
__$ArrayPad$ = -4					; size = 4
_szType$ = 8						; size = 4
_pFrame$ = 12						; size = 4
?AddRenderFrame@TutorialWnd@@MAEXABVioHashString@@PAVioUIRenderFrame@@@Z PROC ; TutorialWnd::AddRenderFrame, COMDAT
; _this$ = ecx

; 413  : {

  00000	55		 push	 ebp
  00001	8b ec		 mov	 ebp, esp
  00003	83 ec 18	 sub	 esp, 24			; 00000018H
  00006	a1 00 00 00 00	 mov	 eax, DWORD PTR ___security_cookie
  0000b	33 c5		 xor	 eax, ebp
  0000d	89 45 fc	 mov	 DWORD PTR __$ArrayPad$[ebp], eax
  00010	53		 push	 ebx
  00011	8b 5d 0c	 mov	 ebx, DWORD PTR _pFrame$[ebp]
  00014	56		 push	 esi
  00015	57		 push	 edi
  00016	8b 7d 08	 mov	 edi, DWORD PTR _szType$[ebp]

; 414  : 	if( szType == "HelpBackFrm" )

  00019	6a 02		 push	 2
  0001b	89 4d e8	 mov	 DWORD PTR _this$GSCopy$[ebp], ecx
  0001e	c7 45 ec a5 89
	87 9a		 mov	 DWORD PTR __t$524032[ebp], -1702393435 ; 9a8789a5H
  00025	c7 45 f0 af 8d
	88 81		 mov	 DWORD PTR __t$524032[ebp+4], -2121757265 ; 81888dafH
  0002c	8d 45 ec	 lea	 eax, DWORD PTR __t$524032[ebp]
  0002f	c7 45 f4 ab 9e
	86 00		 mov	 DWORD PTR __t$524032[ebp+8], 8822443 ; 00869eabH
  00036	59		 pop	 ecx
$LL111@AddRenderF:
  00037	81 30 ed ec eb
	ea		 xor	 DWORD PTR [eax], -353637139 ; eaebecedH
  0003d	83 c0 04	 add	 eax, 4
  00040	49		 dec	 ecx
  00041	75 f4		 jne	 SHORT $LL111@AddRenderF
  00043	6a 08		 push	 8
  00045	58		 pop	 eax
$LL108@AddRenderF:
  00046	8b c8		 mov	 ecx, eax
  00048	81 e1 03 00 00
	80		 and	 ecx, -2147483645	; 80000003H
  0004e	79 05		 jns	 SHORT $LN122@AddRenderF
  00050	49		 dec	 ecx
  00051	83 c9 fc	 or	 ecx, -4			; fffffffcH
  00054	41		 inc	 ecx
$LN122@AddRenderF:
  00055	b2 ed		 mov	 dl, -19			; ffffffedH
  00057	2a d1		 sub	 dl, cl
  00059	30 54 05 ec	 xor	 BYTE PTR __t$524032[ebp+eax], dl
  0005d	40		 inc	 eax
  0005e	83 f8 0b	 cmp	 eax, 11			; 0000000bH
  00061	7c e3		 jl	 SHORT $LL108@AddRenderF
  00063	8b cf		 mov	 ecx, edi
  00065	8d 75 ec	 lea	 esi, DWORD PTR __t$524032[ebp]
  00068	ff 15 00 00 00
	00		 call	 DWORD PTR __imp_?c_str@ioHashString@@QBEPBDXZ
$LL118@AddRenderF:
  0006e	8a 08		 mov	 cl, BYTE PTR [eax]
  00070	3a 0e		 cmp	 cl, BYTE PTR [esi]
  00072	75 1a		 jne	 SHORT $LN119@AddRenderF
  00074	84 c9		 test	 cl, cl
  00076	74 12		 je	 SHORT $LN120@AddRenderF
  00078	8a 48 01	 mov	 cl, BYTE PTR [eax+1]
  0007b	3a 4e 01	 cmp	 cl, BYTE PTR [esi+1]
  0007e	75 0e		 jne	 SHORT $LN119@AddRenderF
  00080	83 c0 02	 add	 eax, 2
  00083	83 c6 02	 add	 esi, 2
  00086	84 c9		 test	 cl, cl
  00088	75 e4		 jne	 SHORT $LL118@AddRenderF
$LN120@AddRenderF:
  0008a	33 c0		 xor	 eax, eax
  0008c	eb 05		 jmp	 SHORT $LN121@AddRenderF
$LN119@AddRenderF:
  0008e	1b c0		 sbb	 eax, eax
  00090	83 d8 ff	 sbb	 eax, -1
$LN121@AddRenderF:
  00093	85 c0		 test	 eax, eax
  00095	75 23		 jne	 SHORT $LN3@AddRenderF

; 415  : 	{
; 416  : 		SAFEDELETE( m_pHelpBackFrm );

  00097	8b 75 e8	 mov	 esi, DWORD PTR _this$GSCopy$[ebp]
  0009a	8b 8e 60 01 00
	00		 mov	 ecx, DWORD PTR [esi+352]
  000a0	85 c9		 test	 ecx, ecx
  000a2	74 0e		 je	 SHORT $LN2@AddRenderF
  000a4	8b 01		 mov	 eax, DWORD PTR [ecx]
  000a6	6a 01		 push	 1
  000a8	ff 50 40	 call	 DWORD PTR [eax+64]
  000ab	83 a6 60 01 00
	00 00		 and	 DWORD PTR [esi+352], 0
$LN2@AddRenderF:

; 417  : 		m_pHelpBackFrm = pFrame;

  000b2	89 9e 60 01 00
	00		 mov	 DWORD PTR [esi+352], ebx

; 418  : 	}
; 419  : 	else

  000b8	eb 0b		 jmp	 SHORT $LN1@AddRenderF
$LN3@AddRenderF:

; 420  : 		ioWnd::AddRenderFrame( szType, pFrame );

  000ba	8b 4d e8	 mov	 ecx, DWORD PTR _this$GSCopy$[ebp]
  000bd	53		 push	 ebx
  000be	57		 push	 edi
  000bf	ff 15 00 00 00
	00		 call	 DWORD PTR __imp_?AddRenderFrame@ioWnd@@UAEXABVioHashString@@PAVioUIRenderFrame@@@Z
$LN1@AddRenderF:

; 421  : }

  000c5	8b 4d fc	 mov	 ecx, DWORD PTR __$ArrayPad$[ebp]
  000c8	5f		 pop	 edi
  000c9	5e		 pop	 esi
  000ca	33 cd		 xor	 ecx, ebp
  000cc	5b		 pop	 ebx
  000cd	e8 00 00 00 00	 call	 @__security_check_cookie@4
  000d2	c9		 leave
  000d3	c2 08 00	 ret	 8
?AddRenderFrame@TutorialWnd@@MAEXABVioHashString@@PAVioUIRenderFrame@@@Z ENDP ; TutorialWnd::AddRenderFrame
_TEXT	ENDS
PUBLIC	_pImage$GSCopy$
PUBLIC	_this$GSCopy$
PUBLIC	__$ArrayPad$
PUBLIC	?AddRenderImage@TutorialWnd@@MAEXABVioHashString@@PAVioUIRenderImage@@@Z ; TutorialWnd::AddRenderImage
EXTRN	__imp_?AddRenderImage@ioWnd@@UAEXABVioHashString@@PAVioUIRenderImage@@@Z:PROC
; Function compile flags: /Ogsp
;	COMDAT ?AddRenderImage@TutorialWnd@@MAEXABVioHashString@@PAVioUIRenderImage@@@Z
_TEXT	SEGMENT
_pImage$GSCopy$ = -28					; size = 4
_this$GSCopy$ = -24					; size = 4
__t$524317 = -20					; size = 9
__t$524179 = -16					; size = 5
__$ArrayPad$ = -4					; size = 4
_szType$ = 8						; size = 4
_pImage$ = 12						; size = 4
?AddRenderImage@TutorialWnd@@MAEXABVioHashString@@PAVioUIRenderImage@@@Z PROC ; TutorialWnd::AddRenderImage, COMDAT
; _this$ = ecx

; 424  : {

  00000	55		 push	 ebp
  00001	8b ec		 mov	 ebp, esp
  00003	83 ec 1c	 sub	 esp, 28			; 0000001cH
  00006	a1 00 00 00 00	 mov	 eax, DWORD PTR ___security_cookie
  0000b	33 c5		 xor	 eax, ebp
  0000d	89 45 fc	 mov	 DWORD PTR __$ArrayPad$[ebp], eax
  00010	8b 45 0c	 mov	 eax, DWORD PTR _pImage$[ebp]
  00013	53		 push	 ebx
  00014	8b 5d 08	 mov	 ebx, DWORD PTR _szType$[ebp]
  00017	56		 push	 esi
  00018	57		 push	 edi
  00019	89 4d e8	 mov	 DWORD PTR _this$GSCopy$[ebp], ecx

; 425  : 	if( szType == "DevK" )

  0001c	bf ed ec eb ea	 mov	 edi, -353637139		; eaebecedH
  00021	c7 45 f0 a9 89
	9d a1		 mov	 DWORD PTR __t$524179[ebp], -1583511127 ; a19d89a9H
  00028	31 7d f0	 xor	 DWORD PTR __t$524179[ebp], edi
  0002b	8b cb		 mov	 ecx, ebx

; 436  :         ioWnd::AddRenderImage( szType, pImage );

  0002d	89 45 e4	 mov	 DWORD PTR _pImage$GSCopy$[ebp], eax
  00030	c6 45 f4 00	 mov	 BYTE PTR __t$524179[ebp+4], 0
  00034	8d 75 f0	 lea	 esi, DWORD PTR __t$524179[ebp]
  00037	ff 15 00 00 00
	00		 call	 DWORD PTR __imp_?c_str@ioHashString@@QBEPBDXZ
$LL234@AddRenderI:

; 425  : 	if( szType == "DevK" )

  0003d	8a 08		 mov	 cl, BYTE PTR [eax]
  0003f	3a 0e		 cmp	 cl, BYTE PTR [esi]
  00041	75 1a		 jne	 SHORT $LN235@AddRenderI
  00043	84 c9		 test	 cl, cl
  00045	74 12		 je	 SHORT $LN236@AddRenderI
  00047	8a 48 01	 mov	 cl, BYTE PTR [eax+1]
  0004a	3a 4e 01	 cmp	 cl, BYTE PTR [esi+1]
  0004d	75 0e		 jne	 SHORT $LN235@AddRenderI
  0004f	83 c0 02	 add	 eax, 2
  00052	83 c6 02	 add	 esi, 2
  00055	84 c9		 test	 cl, cl
  00057	75 e4		 jne	 SHORT $LL234@AddRenderI
$LN236@AddRenderI:
  00059	33 c0		 xor	 eax, eax
  0005b	eb 05		 jmp	 SHORT $LN237@AddRenderI
$LN235@AddRenderI:
  0005d	1b c0		 sbb	 eax, eax
  0005f	83 d8 ff	 sbb	 eax, -1
$LN237@AddRenderI:
  00062	85 c0		 test	 eax, eax
  00064	75 29		 jne	 SHORT $LN233@AddRenderI

; 426  : 	{
; 427  : 		SAFEDELETE( m_pDevK );

  00066	8b 75 e8	 mov	 esi, DWORD PTR _this$GSCopy$[ebp]
  00069	8b 8e 64 01 00
	00		 mov	 ecx, DWORD PTR [esi+356]
  0006f	85 c9		 test	 ecx, ecx
  00071	74 0e		 je	 SHORT $LN5@AddRenderI
  00073	8b 01		 mov	 eax, DWORD PTR [ecx]
  00075	6a 01		 push	 1
  00077	ff 50 40	 call	 DWORD PTR [eax+64]
  0007a	83 a6 64 01 00
	00 00		 and	 DWORD PTR [esi+356], 0
$LN5@AddRenderI:

; 428  : 		m_pDevK = pImage;

  00081	8b 45 e4	 mov	 eax, DWORD PTR _pImage$GSCopy$[ebp]
  00084	89 86 64 01 00
	00		 mov	 DWORD PTR [esi+356], eax
  0008a	e9 87 00 00 00	 jmp	 $LN1@AddRenderI
$LN233@AddRenderI:

; 429  : 	}
; 430  : 	else if( szType == "DevKBack" )

  0008f	6a 02		 push	 2
  00091	c7 45 ec a9 89
	9d a1		 mov	 DWORD PTR __t$524317[ebp], -1583511127 ; a19d89a9H
  00098	c7 45 f0 af 8d
	88 81		 mov	 DWORD PTR __t$524317[ebp+4], -2121757265 ; 81888dafH
  0009f	8d 45 ec	 lea	 eax, DWORD PTR __t$524317[ebp]
  000a2	c6 45 f4 00	 mov	 BYTE PTR __t$524317[ebp+8], 0
  000a6	59		 pop	 ecx
$LL222@AddRenderI:
  000a7	31 38		 xor	 DWORD PTR [eax], edi
  000a9	83 c0 04	 add	 eax, 4
  000ac	49		 dec	 ecx
  000ad	75 f8		 jne	 SHORT $LL222@AddRenderI
  000af	8b cb		 mov	 ecx, ebx
  000b1	8d 75 ec	 lea	 esi, DWORD PTR __t$524317[ebp]
  000b4	ff 15 00 00 00
	00		 call	 DWORD PTR __imp_?c_str@ioHashString@@QBEPBDXZ
$LL238@AddRenderI:
  000ba	8a 08		 mov	 cl, BYTE PTR [eax]
  000bc	3a 0e		 cmp	 cl, BYTE PTR [esi]
  000be	75 1a		 jne	 SHORT $LN239@AddRenderI
  000c0	84 c9		 test	 cl, cl
  000c2	74 12		 je	 SHORT $LN240@AddRenderI
  000c4	8a 48 01	 mov	 cl, BYTE PTR [eax+1]
  000c7	3a 4e 01	 cmp	 cl, BYTE PTR [esi+1]
  000ca	75 0e		 jne	 SHORT $LN239@AddRenderI
  000cc	83 c0 02	 add	 eax, 2
  000cf	83 c6 02	 add	 esi, 2
  000d2	84 c9		 test	 cl, cl
  000d4	75 e4		 jne	 SHORT $LL238@AddRenderI
$LN240@AddRenderI:
  000d6	33 c0		 xor	 eax, eax
  000d8	eb 05		 jmp	 SHORT $LN241@AddRenderI
$LN239@AddRenderI:
  000da	1b c0		 sbb	 eax, eax
  000dc	83 d8 ff	 sbb	 eax, -1
$LN241@AddRenderI:
  000df	85 c0		 test	 eax, eax
  000e1	75 26		 jne	 SHORT $LN3@AddRenderI

; 431  : 	{
; 432  : 		SAFEDELETE( m_pDevKBack );

  000e3	8b 75 e8	 mov	 esi, DWORD PTR _this$GSCopy$[ebp]
  000e6	8b 8e 68 01 00
	00		 mov	 ecx, DWORD PTR [esi+360]
  000ec	85 c9		 test	 ecx, ecx
  000ee	74 0e		 je	 SHORT $LN2@AddRenderI
  000f0	8b 01		 mov	 eax, DWORD PTR [ecx]
  000f2	6a 01		 push	 1
  000f4	ff 50 40	 call	 DWORD PTR [eax+64]
  000f7	83 a6 68 01 00
	00 00		 and	 DWORD PTR [esi+360], 0
$LN2@AddRenderI:

; 433  : 		m_pDevKBack = pImage;

  000fe	8b 45 e4	 mov	 eax, DWORD PTR _pImage$GSCopy$[ebp]
  00101	89 86 68 01 00
	00		 mov	 DWORD PTR [esi+360], eax

; 434  : 	}
; 435  : 	else

  00107	eb 0d		 jmp	 SHORT $LN1@AddRenderI
$LN3@AddRenderI:

; 436  :         ioWnd::AddRenderImage( szType, pImage );

  00109	ff 75 e4	 push	 DWORD PTR _pImage$GSCopy$[ebp]
  0010c	8b 4d e8	 mov	 ecx, DWORD PTR _this$GSCopy$[ebp]
  0010f	53		 push	 ebx
  00110	ff 15 00 00 00
	00		 call	 DWORD PTR __imp_?AddRenderImage@ioWnd@@UAEXABVioHashString@@PAVioUIRenderImage@@@Z
$LN1@AddRenderI:

; 437  : }

  00116	8b 4d fc	 mov	 ecx, DWORD PTR __$ArrayPad$[ebp]
  00119	5f		 pop	 edi
  0011a	5e		 pop	 esi
  0011b	33 cd		 xor	 ecx, ebp
  0011d	5b		 pop	 ebx
  0011e	e8 00 00 00 00	 call	 @__security_check_cookie@4
  00123	c9		 leave
  00124	c2 08 00	 ret	 8
?AddRenderImage@TutorialWnd@@MAEXABVioHashString@@PAVioUIRenderImage@@@Z ENDP ; TutorialWnd::AddRenderImage
_TEXT	ENDS
PUBLIC	__real@4034000000000000
PUBLIC	__real@4008000000000000
PUBLIC	__real@4062c00000000000
PUBLIC	?OnProcess@TutorialWnd@@MAEXM@Z			; TutorialWnd::OnProcess
EXTRN	__imp_?SetChildActive@ioWnd@@QAEXK@Z:PROC
EXTRN	__imp_?ShowWnd@ioWnd@@QAEXXZ:PROC
EXTRN	?IsTutorial@ioTutorialManager@@QAE_NXZ:PROC	; ioTutorialManager::IsTutorial
EXTRN	?GetActiveCharCount@ioMyInfo@@QAEHXZ:PROC	; ioMyInfo::GetActiveCharCount
EXTRN	?GetSingleton@ioMyInfo@@SAAAV1@XZ:PROC		; ioMyInfo::GetSingleton
;	COMDAT __real@4034000000000000
; File d:\lost saga for developer\youtube\tutorial\source\src\lsclient\gui\iosp2guimanager.h
CONST	SEGMENT
__real@4034000000000000 DQ 04034000000000000r	; 20
CONST	ENDS
;	COMDAT __real@4008000000000000
CONST	SEGMENT
__real@4008000000000000 DQ 04008000000000000r	; 3
CONST	ENDS
;	COMDAT __real@4062c00000000000
CONST	SEGMENT
__real@4062c00000000000 DQ 04062c00000000000r	; 150
; Function compile flags: /Ogsp
; File d:\lost saga for developer\youtube\tutorial\source\src\lsclient\gui\tutorialwnd.cpp
CONST	ENDS
;	COMDAT ?OnProcess@TutorialWnd@@MAEXM@Z
_TEXT	SEGMENT
tv319 = -4						; size = 4
tv308 = -4						; size = 4
_fGap$517123 = -4					; size = 4
_fTimePerSec$ = 8					; size = 4
?OnProcess@TutorialWnd@@MAEXM@Z PROC			; TutorialWnd::OnProcess, COMDAT
; _this$ = ecx

; 440  : {

  00000	55		 push	 ebp
  00001	8b ec		 mov	 ebp, esp
  00003	51		 push	 ecx
  00004	56		 push	 esi
  00005	8b f1		 mov	 esi, ecx

; 441  : 	if( !IsShow() )	

  00007	ff 15 00 00 00
	00		 call	 DWORD PTR __imp_?IsShow@ioWnd@@QBE_NXZ
  0000d	84 c0		 test	 al, al
  0000f	75 35		 jne	 SHORT $LN16@OnProcess@3

; 442  : 	{
; 443  : 		if( g_MyInfo.GetActiveCharCount() == 0 ) return;

  00011	e8 00 00 00 00	 call	 ?GetSingleton@ioMyInfo@@SAAAV1@XZ ; ioMyInfo::GetSingleton
  00016	8b c8		 mov	 ecx, eax
  00018	e8 00 00 00 00	 call	 ?GetActiveCharCount@ioMyInfo@@QAEHXZ ; ioMyInfo::GetActiveCharCount
  0001d	85 c0		 test	 eax, eax
  0001f	0f 84 81 01 00
	00		 je	 $LN1@OnProcess@3

; 444  : 		if( !g_TutorialMgr.IsTutorial() ) return;

  00025	e8 00 00 00 00	 call	 ?GetSingleton@ioTutorialManager@@SAAAV1@XZ ; ioTutorialManager::GetSingleton
  0002a	8b c8		 mov	 ecx, eax
  0002c	e8 00 00 00 00	 call	 ?IsTutorial@ioTutorialManager@@QAE_NXZ ; ioTutorialManager::IsTutorial
  00031	84 c0		 test	 al, al
  00033	0f 84 6d 01 00
	00		 je	 $LN1@OnProcess@3

; 445  : 		
; 446  : 		ShowWnd();

  00039	8b ce		 mov	 ecx, esi
  0003b	ff 15 00 00 00
	00		 call	 DWORD PTR __imp_?ShowWnd@ioWnd@@QAEXXZ

; 447  : 		return;

  00041	e9 60 01 00 00	 jmp	 $LN1@OnProcess@3
$LN16@OnProcess@3:
  00046	53		 push	 ebx

; 448  : 	}
; 449  : 
; 450  : 	if( m_dwCurTimer != 0 )

  00047	33 db		 xor	 ebx, ebx
  00049	39 9e ec 01 00
	00		 cmp	 DWORD PTR [esi+492], ebx
  0004f	0f 84 8f 00 00
	00		 je	 $LN9@OnProcess@3

; 451  : 	{
; 452  : 		DWORD dwGap = FRAMEGETTIME() - m_dwCurTimer;

  00055	ff 15 00 00 00
	00		 call	 DWORD PTR __imp_?GetSingleton@ioFrameTimer@@SAAAV1@XZ
  0005b	8b c8		 mov	 ecx, eax
  0005d	ff 15 00 00 00
	00		 call	 DWORD PTR __imp_?GetLoopSec@ioFrameTimer@@QBEKXZ
  00063	2b 86 ec 01 00
	00		 sub	 eax, DWORD PTR [esi+492]

; 453  : 		if( dwGap < 150 )

  00069	3d 96 00 00 00	 cmp	 eax, 150		; 00000096H
  0006e	73 3f		 jae	 SHORT $LN12@OnProcess@3

; 454  : 		{
; 455  : 			float fGap = (float) dwGap / 150;

  00070	89 45 fc	 mov	 DWORD PTR tv319[ebp], eax
  00073	db 45 fc	 fild	 DWORD PTR tv319[ebp]
  00076	85 c0		 test	 eax, eax
  00078	79 06		 jns	 SHORT $LN25@OnProcess@3
  0007a	d8 05 00 00 00
	00		 fadd	 DWORD PTR __real@4f800000
$LN25@OnProcess@3:
  00080	dc 35 00 00 00
	00		 fdiv	 QWORD PTR __real@4062c00000000000
  00086	d9 5d fc	 fstp	 DWORD PTR _fGap$517123[ebp]

; 456  : 			m_fScale    = 3.0f - ( 2.0f * fGap );

  00089	d9 45 fc	 fld	 DWORD PTR _fGap$517123[ebp]
  0008c	dc c0		 fadd	 ST(0), ST(0)
  0008e	dc 2d 00 00 00
	00		 fsubr	 QWORD PTR __real@4008000000000000
  00094	d9 9e e4 01 00
	00		 fstp	 DWORD PTR [esi+484]

; 457  : 			m_fFontYGap = 20 - ( 20.0f * fGap );

  0009a	d9 45 fc	 fld	 DWORD PTR _fGap$517123[ebp]
  0009d	dd 05 00 00 00
	00		 fld	 QWORD PTR __real@4034000000000000
  000a3	dc c9		 fmul	 ST(1), ST(0)
  000a5	de e1		 fsubrp	 ST(1), ST(0)
  000a7	d9 9e e8 01 00
	00		 fstp	 DWORD PTR [esi+488]
  000ad	eb 35		 jmp	 SHORT $LN9@OnProcess@3
$LN12@OnProcess@3:

; 458  : 		}
; 459  : 		else if( dwGap < 2000 )

  000af	3d d0 07 00 00	 cmp	 eax, 2000		; 000007d0H
  000b4	73 28		 jae	 SHORT $LN10@OnProcess@3

; 460  : 		{
; 461  : 			m_fScale     = FLOAT1;

  000b6	b8 01 00 00 00	 mov	 eax, 1
  000bb	89 45 fc	 mov	 DWORD PTR tv308[ebp], eax
  000be	db 45 fc	 fild	 DWORD PTR tv308[ebp]
  000c1	85 c0		 test	 eax, eax
  000c3	79 06		 jns	 SHORT $LN26@OnProcess@3
  000c5	d8 05 00 00 00
	00		 fadd	 DWORD PTR __real@4f800000
$LN26@OnProcess@3:

; 462  : 			m_fFontYGap  = 0.0f;

  000cb	0f 57 c0	 xorps	 xmm0, xmm0
  000ce	d9 9e e4 01 00
	00		 fstp	 DWORD PTR [esi+484]
  000d4	f3 0f 11 86 e8
	01 00 00	 movss	 DWORD PTR [esi+488], xmm0

; 463  : 		}
; 464  : 		else

  000dc	eb 06		 jmp	 SHORT $LN9@OnProcess@3
$LN10@OnProcess@3:

; 465  : 			m_dwCurTimer = 0;

  000de	89 9e ec 01 00
	00		 mov	 DWORD PTR [esi+492], ebx
$LN9@OnProcess@3:
  000e4	57		 push	 edi

; 466  : 	}
; 467  : 
; 468  : 	if( g_GUIMgr.IsSkipUIByBlind() )

  000e5	e8 00 00 00 00	 call	 ?GetSingleton@ioSP2GUIManager@@SAAAV1@XZ ; ioSP2GUIManager::GetSingleton
  000ea	8b 3d 00 00 00
	00		 mov	 edi, DWORD PTR __imp_?ShowChildWnd@ioWnd@@QAEXK_N@Z

; 469  : 	{
; 470  : 		HideChildWnd( ID_EXIT );

  000f0	53		 push	 ebx
  000f1	8b ce		 mov	 ecx, esi
  000f3	6a 01		 push	 1
  000f5	38 98 e0 04 00
	00		 cmp	 BYTE PTR [eax+1248], bl
  000fb	74 08		 je	 SHORT $LN8@OnProcess@3
  000fd	ff 15 00 00 00
	00		 call	 DWORD PTR __imp_?HideChildWnd@ioWnd@@QAEXK_N@Z

; 471  : 	}
; 472  : 	else

  00103	eb 02		 jmp	 SHORT $LN7@OnProcess@3
$LN8@OnProcess@3:

; 473  : 	{
; 474  : 		ShowChildWnd( ID_EXIT );

  00105	ff d7		 call	 edi
$LN7@OnProcess@3:

; 475  : 	}
; 476  : 
; 477  : 	if( m_dwCurSkipBtnShowTime != 0 )

  00107	39 9e 94 01 00
	00		 cmp	 DWORD PTR [esi+404], ebx
  0010d	74 2c		 je	 SHORT $LN5@OnProcess@3

; 478  : 	{
; 479  : 		if( FRAMEGETTIME() - m_dwCurSkipBtnShowTime > m_dwSkipBtnShowTime )

  0010f	ff 15 00 00 00
	00		 call	 DWORD PTR __imp_?GetSingleton@ioFrameTimer@@SAAAV1@XZ
  00115	8b c8		 mov	 ecx, eax
  00117	ff 15 00 00 00
	00		 call	 DWORD PTR __imp_?GetLoopSec@ioFrameTimer@@QBEKXZ
  0011d	2b 86 94 01 00
	00		 sub	 eax, DWORD PTR [esi+404]
  00123	3b 86 90 01 00
	00		 cmp	 eax, DWORD PTR [esi+400]
  00129	76 10		 jbe	 SHORT $LN5@OnProcess@3

; 480  : 		{
; 481  : 			SetChildActive( ID_EXIT );

  0012b	6a 01		 push	 1
  0012d	8b ce		 mov	 ecx, esi
  0012f	ff 15 00 00 00
	00		 call	 DWORD PTR __imp_?SetChildActive@ioWnd@@QAEXK@Z

; 482  : 			m_dwCurSkipBtnShowTime = 0;

  00135	89 9e 94 01 00
	00		 mov	 DWORD PTR [esi+404], ebx
$LN5@OnProcess@3:

; 483  : 		}
; 484  : 	}
; 485  : 
; 486  : 	ProcessTextTick();

  0013b	8b ce		 mov	 ecx, esi
  0013d	e8 00 00 00 00	 call	 ?ProcessTextTick@TutorialWnd@@IAEXXZ ; TutorialWnd::ProcessTextTick

; 487  : 
; 488  : 	// auto next
; 489  : 	if( m_dwCurAutoNextTime != 0 )

  00142	39 9e 9c 01 00
	00		 cmp	 DWORD PTR [esi+412], ebx
  00148	74 29		 je	 SHORT $LN3@OnProcess@3

; 490  : 	{
; 491  : 		if( FRAMEGETTIME() - m_dwCurAutoNextTime > m_dwAutoNextTime )

  0014a	ff 15 00 00 00
	00		 call	 DWORD PTR __imp_?GetSingleton@ioFrameTimer@@SAAAV1@XZ
  00150	8b c8		 mov	 ecx, eax
  00152	ff 15 00 00 00
	00		 call	 DWORD PTR __imp_?GetLoopSec@ioFrameTimer@@QBEKXZ
  00158	2b 86 9c 01 00
	00		 sub	 eax, DWORD PTR [esi+412]
  0015e	3b 86 98 01 00
	00		 cmp	 eax, DWORD PTR [esi+408]
  00164	76 0d		 jbe	 SHORT $LN3@OnProcess@3

; 492  : 		{
; 493  : 			IsTutorialEsc();

  00166	8b ce		 mov	 ecx, esi
  00168	e8 00 00 00 00	 call	 ?IsTutorialEsc@TutorialWnd@@QAE_NXZ ; TutorialWnd::IsTutorialEsc

; 494  : 			m_dwCurAutoNextTime = 0;

  0016d	89 9e 9c 01 00
	00		 mov	 DWORD PTR [esi+412], ebx
$LN3@OnProcess@3:

; 495  : 		}
; 496  : 	}
; 497  : 
; 498  : 	// skip show process
; 499  : 	if(m_dwCurSkipStepShowTime != 0)

  00173	39 9e f0 01 00
	00		 cmp	 DWORD PTR [esi+496], ebx
  00179	74 29		 je	 SHORT $LN24@OnProcess@3

; 500  : 	{
; 501  : 		if( FRAMEGETTIME() - m_dwCurSkipStepShowTime > m_dwSkipStepShowTime )

  0017b	ff 15 00 00 00
	00		 call	 DWORD PTR __imp_?GetSingleton@ioFrameTimer@@SAAAV1@XZ
  00181	8b c8		 mov	 ecx, eax
  00183	ff 15 00 00 00
	00		 call	 DWORD PTR __imp_?GetLoopSec@ioFrameTimer@@QBEKXZ
  00189	2b 86 f0 01 00
	00		 sub	 eax, DWORD PTR [esi+496]
  0018f	3b 86 f4 01 00
	00		 cmp	 eax, DWORD PTR [esi+500]
  00195	76 0d		 jbe	 SHORT $LN24@OnProcess@3

; 502  : 		{
; 503  : 			ShowChildWnd(ID_SKIP);

  00197	53		 push	 ebx
  00198	6a 05		 push	 5
  0019a	8b ce		 mov	 ecx, esi
  0019c	ff d7		 call	 edi

; 504  : 			m_dwCurSkipStepShowTime = 0;

  0019e	89 9e f0 01 00
	00		 mov	 DWORD PTR [esi+496], ebx
$LN24@OnProcess@3:
  001a4	5f		 pop	 edi
  001a5	5b		 pop	 ebx
$LN1@OnProcess@3:
  001a6	5e		 pop	 esi

; 505  : 		}
; 506  : 
; 507  : 	}
; 508  : 
; 509  : }

  001a7	c9		 leave
  001a8	c2 04 00	 ret	 4
?OnProcess@TutorialWnd@@MAEXM@Z ENDP			; TutorialWnd::OnProcess
_TEXT	ENDS
PUBLIC	__real@3f59999a
PUBLIC	?OnRender@TutorialWnd@@MAEXXZ			; TutorialWnd::OnRender
;	COMDAT __real@3f59999a
CONST	SEGMENT
__real@3f59999a DD 03f59999ar			; 0.85
; Function compile flags: /Ogsp
CONST	ENDS
;	COMDAT ?OnRender@TutorialWnd@@MAEXXZ
_TEXT	SEGMENT
tv214 = -8						; size = 4
tv212 = -4						; size = 4
_iYPos$ = -4						; size = 4
?OnRender@TutorialWnd@@MAEXXZ PROC			; TutorialWnd::OnRender, COMDAT
; _this$ = ecx

; 542  : {

  00000	55		 push	 ebp
  00001	8b ec		 mov	 ebp, esp
  00003	51		 push	 ecx
  00004	51		 push	 ecx
  00005	53		 push	 ebx
  00006	56		 push	 esi
  00007	57		 push	 edi
  00008	8b f1		 mov	 esi, ecx

; 543  : //	if( g_GUIMgr.IsSkipUIByBlind() ) return;
; 544  : 
; 545  : 	ioWnd::OnRender();

  0000a	ff 15 00 00 00
	00		 call	 DWORD PTR __imp_?OnRender@ioWnd@@MAEXXZ

; 546  : 
; 547  : 	int iXPos, iYPos;
; 548  : 	iXPos = GetDerivedPosX();

  00010	8b ce		 mov	 ecx, esi
  00012	ff 15 00 00 00
	00		 call	 DWORD PTR __imp_?GetDerivedPosX@ioWnd@@QBEHXZ

; 549  : 	iYPos = GetDerivedPosY();

  00018	8b ce		 mov	 ecx, esi
  0001a	8b d8		 mov	 ebx, eax
  0001c	ff 15 00 00 00
	00		 call	 DWORD PTR __imp_?GetDerivedPosY@ioWnd@@QBEHXZ

; 550  : 	if( m_pDevKBack && m_pDevK )

  00022	33 ff		 xor	 edi, edi
  00024	89 45 fc	 mov	 DWORD PTR _iYPos$[ebp], eax
  00027	39 be 68 01 00
	00		 cmp	 DWORD PTR [esi+360], edi
  0002d	0f 84 a2 00 00
	00		 je	 $LN1@OnRender@2
  00033	39 be 64 01 00
	00		 cmp	 DWORD PTR [esi+356], edi
  00039	0f 84 96 00 00
	00		 je	 $LN1@OnRender@2

; 551  : 	{
; 552  : 		m_pDevKBack->SetScale( 0.85f );

  0003f	8b 8e 68 01 00
	00		 mov	 ecx, DWORD PTR [esi+360]
  00045	f3 0f 10 05 00
	00 00 00	 movss	 xmm0, DWORD PTR __real@3f59999a
  0004d	8b 01		 mov	 eax, DWORD PTR [ecx]
  0004f	51		 push	 ecx
  00050	f3 0f 11 04 24	 movss	 DWORD PTR [esp], xmm0
  00055	ff 50 1c	 call	 DWORD PTR [eax+28]

; 553  : 		m_pDevKBack->Render( iXPos + 40, iYPos + 70, UI_RENDER_MULTIPLY, TFO_BILINEAR );

  00058	8b 8e 68 01 00
	00		 mov	 ecx, DWORD PTR [esi+360]
  0005e	8b 45 fc	 mov	 eax, DWORD PTR _iYPos$[ebp]
  00061	57		 push	 edi
  00062	57		 push	 edi
  00063	6a 01		 push	 1
  00065	6a 08		 push	 8
  00067	83 c0 46	 add	 eax, 70			; 00000046H
  0006a	51		 push	 ecx
  0006b	51		 push	 ecx
  0006c	0f 57 c0	 xorps	 xmm0, xmm0
  0006f	f3 0f 2a c0	 cvtsi2ss xmm0, eax
  00073	8b 01		 mov	 eax, DWORD PTR [ecx]
  00075	83 c3 28	 add	 ebx, 40			; 00000028H
  00078	0f 57 c9	 xorps	 xmm1, xmm1
  0007b	f3 0f 2a cb	 cvtsi2ss xmm1, ebx
  0007f	f3 0f 11 44 24
	04		 movss	 DWORD PTR [esp+4], xmm0
  00085	f3 0f 11 45 fc	 movss	 DWORD PTR tv212[ebp], xmm0
  0008a	f3 0f 11 4d f8	 movss	 DWORD PTR tv214[ebp], xmm1
  0008f	f3 0f 11 0c 24	 movss	 DWORD PTR [esp], xmm1
  00094	ff 10		 call	 DWORD PTR [eax]

; 554  : 		
; 555  : 		m_pDevK->SetScale( 0.85f );

  00096	8b 8e 64 01 00
	00		 mov	 ecx, DWORD PTR [esi+356]
  0009c	f3 0f 10 05 00
	00 00 00	 movss	 xmm0, DWORD PTR __real@3f59999a
  000a4	8b 01		 mov	 eax, DWORD PTR [ecx]
  000a6	51		 push	 ecx
  000a7	f3 0f 11 04 24	 movss	 DWORD PTR [esp], xmm0
  000ac	ff 50 1c	 call	 DWORD PTR [eax+28]

; 556  : 		m_pDevK->Render( iXPos + 40, iYPos + 70, UI_RENDER_NORMAL, TFO_BILINEAR );

  000af	8b 8e 64 01 00
	00		 mov	 ecx, DWORD PTR [esi+356]
  000b5	f3 0f 10 45 fc	 movss	 xmm0, DWORD PTR tv212[ebp]
  000ba	8b 01		 mov	 eax, DWORD PTR [ecx]
  000bc	57		 push	 edi
  000bd	57		 push	 edi
  000be	6a 01		 push	 1
  000c0	57		 push	 edi
  000c1	51		 push	 ecx
  000c2	51		 push	 ecx
  000c3	f3 0f 11 44 24
	04		 movss	 DWORD PTR [esp+4], xmm0
  000c9	f3 0f 10 45 f8	 movss	 xmm0, DWORD PTR tv214[ebp]
  000ce	f3 0f 11 04 24	 movss	 DWORD PTR [esp], xmm0
  000d3	ff 10		 call	 DWORD PTR [eax]
$LN1@OnRender@2:

; 557  : 	}
; 558  : 
; 559  : 	RenderTutorialInfo();

  000d5	8b ce		 mov	 ecx, esi
  000d7	e8 00 00 00 00	 call	 ?RenderTutorialInfo@TutorialWnd@@IAEXXZ ; TutorialWnd::RenderTutorialInfo
  000dc	5f		 pop	 edi
  000dd	5e		 pop	 esi
  000de	5b		 pop	 ebx

; 560  : }

  000df	c9		 leave
  000e0	c3		 ret	 0
?OnRender@TutorialWnd@@MAEXXZ ENDP			; TutorialWnd::OnRender
_TEXT	ENDS
PUBLIC	_szType$GSCopy$
PUBLIC	_pImage$GSCopy$
PUBLIC	_this$GSCopy$
PUBLIC	__$ArrayPad$
; Function compile flags: /Ogsp
;	COMDAT ?AddRenderImage@TutorialKeyboardWnd@@MAEXABVioHashString@@PAVioUIRenderImage@@@Z
_TEXT	SEGMENT
_szType$GSCopy$ = -36					; size = 4
_pImage$GSCopy$ = -32					; size = 4
_this$GSCopy$ = -28					; size = 4
__t$524757 = -24					; size = 10
__t$524632 = -24					; size = 11
__t$524507 = -24					; size = 13
__t$524915 = -20					; size = 8
__$ArrayPad$ = -4					; size = 4
_szType$ = 8						; size = 4
_pImage$ = 12						; size = 4
?AddRenderImage@TutorialKeyboardWnd@@MAEXABVioHashString@@PAVioUIRenderImage@@@Z PROC ; TutorialKeyboardWnd::AddRenderImage, COMDAT
; _this$ = ecx

; 651  : {

  00000	55		 push	 ebp
  00001	8b ec		 mov	 ebp, esp
  00003	83 ec 24	 sub	 esp, 36			; 00000024H
  00006	a1 00 00 00 00	 mov	 eax, DWORD PTR ___security_cookie
  0000b	33 c5		 xor	 eax, ebp
  0000d	89 45 fc	 mov	 DWORD PTR __$ArrayPad$[ebp], eax
  00010	8b 45 0c	 mov	 eax, DWORD PTR _pImage$[ebp]
  00013	8b 55 08	 mov	 edx, DWORD PTR _szType$[ebp]
  00016	53		 push	 ebx
  00017	56		 push	 esi
  00018	57		 push	 edi

; 652  : 	if( szType == "ButtonNormal" )

  00019	33 db		 xor	 ebx, ebx
  0001b	6a 03		 push	 3
  0001d	89 4d e4	 mov	 DWORD PTR _this$GSCopy$[ebp], ecx

; 668  : 	{
; 669  : 		SAFEDELETE( m_pArrowUp );

  00020	89 45 e0	 mov	 DWORD PTR _pImage$GSCopy$[ebp], eax
  00023	89 55 dc	 mov	 DWORD PTR _szType$GSCopy$[ebp], edx
  00026	c7 45 e8 af 99
	9f 9e		 mov	 DWORD PTR __t$524507[ebp], -1633707601 ; 9e9f99afH
  0002d	c7 45 ec 82 82
	a5 85		 mov	 DWORD PTR __t$524507[ebp+4], -2052750718 ; 85a58282H
  00034	c7 45 f0 9f 81
	8a 86		 mov	 DWORD PTR __t$524507[ebp+8], -2037743201 ; 868a819fH
  0003b	8d 45 e8	 lea	 eax, DWORD PTR __t$524507[ebp]
  0003e	88 5d f4	 mov	 BYTE PTR __t$524507[ebp+12], bl
  00041	59		 pop	 ecx
  00042	bf ed ec eb ea	 mov	 edi, -353637139		; eaebecedH
$LL126@AddRenderI@2:

; 652  : 	if( szType == "ButtonNormal" )

  00047	31 38		 xor	 DWORD PTR [eax], edi
  00049	83 c0 04	 add	 eax, 4
  0004c	49		 dec	 ecx
  0004d	75 f8		 jne	 SHORT $LL126@AddRenderI@2
  0004f	8b ca		 mov	 ecx, edx
  00051	8d 75 e8	 lea	 esi, DWORD PTR __t$524507[ebp]
  00054	ff 15 00 00 00
	00		 call	 DWORD PTR __imp_?c_str@ioHashString@@QBEPBDXZ
$LL466@AddRenderI@2:
  0005a	8a 08		 mov	 cl, BYTE PTR [eax]
  0005c	3a 0e		 cmp	 cl, BYTE PTR [esi]
  0005e	75 1a		 jne	 SHORT $LN467@AddRenderI@2
  00060	3a cb		 cmp	 cl, bl
  00062	74 12		 je	 SHORT $LN468@AddRenderI@2
  00064	8a 48 01	 mov	 cl, BYTE PTR [eax+1]
  00067	3a 4e 01	 cmp	 cl, BYTE PTR [esi+1]
  0006a	75 0e		 jne	 SHORT $LN467@AddRenderI@2
  0006c	83 c0 02	 add	 eax, 2
  0006f	83 c6 02	 add	 esi, 2
  00072	3a cb		 cmp	 cl, bl
  00074	75 e4		 jne	 SHORT $LL466@AddRenderI@2
$LN468@AddRenderI@2:
  00076	33 c0		 xor	 eax, eax
  00078	eb 05		 jmp	 SHORT $LN469@AddRenderI@2
$LN467@AddRenderI@2:
  0007a	1b c0		 sbb	 eax, eax
  0007c	83 d8 ff	 sbb	 eax, -1
$LN469@AddRenderI@2:
  0007f	3b c3		 cmp	 eax, ebx
  00081	75 28		 jne	 SHORT $LN463@AddRenderI@2

; 653  : 	{
; 654  : 		SAFEDELETE( m_pButtonNormal );

  00083	8b 75 e4	 mov	 esi, DWORD PTR _this$GSCopy$[ebp]
  00086	8b 8e 60 01 00
	00		 mov	 ecx, DWORD PTR [esi+352]
  0008c	3b cb		 cmp	 ecx, ebx
  0008e	74 0d		 je	 SHORT $LN11@AddRenderI@2
  00090	8b 01		 mov	 eax, DWORD PTR [ecx]
  00092	6a 01		 push	 1
  00094	ff 50 40	 call	 DWORD PTR [eax+64]
  00097	89 9e 60 01 00
	00		 mov	 DWORD PTR [esi+352], ebx
$LN11@AddRenderI@2:

; 655  : 		m_pButtonNormal = pImage;

  0009d	8b 45 e0	 mov	 eax, DWORD PTR _pImage$GSCopy$[ebp]
  000a0	89 86 60 01 00
	00		 mov	 DWORD PTR [esi+352], eax
  000a6	e9 bf 01 00 00	 jmp	 $LN1@AddRenderI@2
$LN463@AddRenderI@2:

; 656  : 	}
; 657  : 	else if( szType == "ButtonOver" )

  000ab	6a 02		 push	 2
  000ad	c7 45 e8 af 99
	9f 9e		 mov	 DWORD PTR __t$524632[ebp], -1633707601 ; 9e9f99afH
  000b4	c7 45 ec 82 82
	a4 9c		 mov	 DWORD PTR __t$524632[ebp+4], -1666940286 ; 9ca48282H
  000bb	66 c7 45 f0 88
	9e		 mov	 WORD PTR __t$524632[ebp+8], 40584 ; 00009e88H
  000c1	8d 45 e8	 lea	 eax, DWORD PTR __t$524632[ebp]
  000c4	88 5d f2	 mov	 BYTE PTR __t$524632[ebp+10], bl
  000c7	59		 pop	 ecx
$LL232@AddRenderI@2:
  000c8	31 38		 xor	 DWORD PTR [eax], edi
  000ca	83 c0 04	 add	 eax, 4
  000cd	49		 dec	 ecx
  000ce	75 f8		 jne	 SHORT $LL232@AddRenderI@2
  000d0	6a 08		 push	 8
  000d2	58		 pop	 eax
$LL229@AddRenderI@2:
  000d3	8b c8		 mov	 ecx, eax
  000d5	81 e1 03 00 00
	80		 and	 ecx, -2147483645	; 80000003H
  000db	79 05		 jns	 SHORT $LN482@AddRenderI@2
  000dd	49		 dec	 ecx
  000de	83 c9 fc	 or	 ecx, -4			; fffffffcH
  000e1	41		 inc	 ecx
$LN482@AddRenderI@2:
  000e2	b2 ed		 mov	 dl, -19			; ffffffedH
  000e4	2a d1		 sub	 dl, cl
  000e6	30 54 05 e8	 xor	 BYTE PTR __t$524632[ebp+eax], dl
  000ea	40		 inc	 eax
  000eb	83 f8 0a	 cmp	 eax, 10			; 0000000aH
  000ee	7c e3		 jl	 SHORT $LL229@AddRenderI@2
  000f0	8b 4d dc	 mov	 ecx, DWORD PTR _szType$GSCopy$[ebp]
  000f3	8d 75 e8	 lea	 esi, DWORD PTR __t$524632[ebp]
  000f6	ff 15 00 00 00
	00		 call	 DWORD PTR __imp_?c_str@ioHashString@@QBEPBDXZ
$LL470@AddRenderI@2:
  000fc	8a 08		 mov	 cl, BYTE PTR [eax]
  000fe	3a 0e		 cmp	 cl, BYTE PTR [esi]
  00100	75 1a		 jne	 SHORT $LN471@AddRenderI@2
  00102	3a cb		 cmp	 cl, bl
  00104	74 12		 je	 SHORT $LN472@AddRenderI@2
  00106	8a 48 01	 mov	 cl, BYTE PTR [eax+1]
  00109	3a 4e 01	 cmp	 cl, BYTE PTR [esi+1]
  0010c	75 0e		 jne	 SHORT $LN471@AddRenderI@2
  0010e	83 c0 02	 add	 eax, 2
  00111	83 c6 02	 add	 esi, 2
  00114	3a cb		 cmp	 cl, bl
  00116	75 e4		 jne	 SHORT $LL470@AddRenderI@2
$LN472@AddRenderI@2:
  00118	33 c0		 xor	 eax, eax
  0011a	eb 05		 jmp	 SHORT $LN473@AddRenderI@2
$LN471@AddRenderI@2:
  0011c	1b c0		 sbb	 eax, eax
  0011e	83 d8 ff	 sbb	 eax, -1
$LN473@AddRenderI@2:
  00121	3b c3		 cmp	 eax, ebx
  00123	75 28		 jne	 SHORT $LN464@AddRenderI@2

; 658  : 	{
; 659  : 		SAFEDELETE( m_pButtonOver );

  00125	8b 75 e4	 mov	 esi, DWORD PTR _this$GSCopy$[ebp]
  00128	8b 8e 64 01 00
	00		 mov	 ecx, DWORD PTR [esi+356]
  0012e	3b cb		 cmp	 ecx, ebx
  00130	74 0d		 je	 SHORT $LN8@AddRenderI@2
  00132	8b 01		 mov	 eax, DWORD PTR [ecx]
  00134	6a 01		 push	 1
  00136	ff 50 40	 call	 DWORD PTR [eax+64]
  00139	89 9e 64 01 00
	00		 mov	 DWORD PTR [esi+356], ebx
$LN8@AddRenderI@2:

; 660  : 		m_pButtonOver = pImage;

  0013f	8b 45 e0	 mov	 eax, DWORD PTR _pImage$GSCopy$[ebp]
  00142	89 86 64 01 00
	00		 mov	 DWORD PTR [esi+356], eax
  00148	e9 1d 01 00 00	 jmp	 $LN1@AddRenderI@2
$LN464@AddRenderI@2:

; 661  : 	}
; 662  : 	else if( szType == "ArrowLeft" )

  0014d	6a 02		 push	 2
  0014f	c7 45 e8 ac 9e
	99 85		 mov	 DWORD PTR __t$524757[ebp], -2053529940 ; 85999eacH
  00156	c7 45 ec 9a a0
	8e 8c		 mov	 DWORD PTR __t$524757[ebp+4], -1936809830 ; 8c8ea09aH
  0015d	8d 45 e8	 lea	 eax, DWORD PTR __t$524757[ebp]
  00160	66 c7 45 f0 99
	00		 mov	 WORD PTR __t$524757[ebp+8], 153 ; 00000099H
  00166	59		 pop	 ecx
$LL338@AddRenderI@2:
  00167	31 38		 xor	 DWORD PTR [eax], edi
  00169	83 c0 04	 add	 eax, 4
  0016c	49		 dec	 ecx
  0016d	75 f8		 jne	 SHORT $LL338@AddRenderI@2
  0016f	8b 4d dc	 mov	 ecx, DWORD PTR _szType$GSCopy$[ebp]
  00172	80 75 f0 ed	 xor	 BYTE PTR __t$524757[ebp+8], -19 ; ffffffedH
  00176	8d 75 e8	 lea	 esi, DWORD PTR __t$524757[ebp]
  00179	ff 15 00 00 00
	00		 call	 DWORD PTR __imp_?c_str@ioHashString@@QBEPBDXZ
$LL474@AddRenderI@2:
  0017f	8a 08		 mov	 cl, BYTE PTR [eax]
  00181	3a 0e		 cmp	 cl, BYTE PTR [esi]
  00183	75 1a		 jne	 SHORT $LN475@AddRenderI@2
  00185	3a cb		 cmp	 cl, bl
  00187	74 12		 je	 SHORT $LN476@AddRenderI@2
  00189	8a 48 01	 mov	 cl, BYTE PTR [eax+1]
  0018c	3a 4e 01	 cmp	 cl, BYTE PTR [esi+1]
  0018f	75 0e		 jne	 SHORT $LN475@AddRenderI@2
  00191	83 c0 02	 add	 eax, 2
  00194	83 c6 02	 add	 esi, 2
  00197	3a cb		 cmp	 cl, bl
  00199	75 e4		 jne	 SHORT $LL474@AddRenderI@2
$LN476@AddRenderI@2:
  0019b	33 c0		 xor	 eax, eax
  0019d	eb 05		 jmp	 SHORT $LN477@AddRenderI@2
$LN475@AddRenderI@2:
  0019f	1b c0		 sbb	 eax, eax
  001a1	83 d8 ff	 sbb	 eax, -1
$LN477@AddRenderI@2:
  001a4	3b c3		 cmp	 eax, ebx
  001a6	75 28		 jne	 SHORT $LN465@AddRenderI@2

; 663  : 	{
; 664  : 		SAFEDELETE( m_pArrowLeft );

  001a8	8b 75 e4	 mov	 esi, DWORD PTR _this$GSCopy$[ebp]
  001ab	8b 8e 68 01 00
	00		 mov	 ecx, DWORD PTR [esi+360]
  001b1	3b cb		 cmp	 ecx, ebx
  001b3	74 0d		 je	 SHORT $LN5@AddRenderI@2
  001b5	8b 01		 mov	 eax, DWORD PTR [ecx]
  001b7	6a 01		 push	 1
  001b9	ff 50 40	 call	 DWORD PTR [eax+64]
  001bc	89 9e 68 01 00
	00		 mov	 DWORD PTR [esi+360], ebx
$LN5@AddRenderI@2:

; 665  : 		m_pArrowLeft = pImage;

  001c2	8b 45 e0	 mov	 eax, DWORD PTR _pImage$GSCopy$[ebp]
  001c5	89 86 68 01 00
	00		 mov	 DWORD PTR [esi+360], eax
  001cb	e9 9a 00 00 00	 jmp	 $LN1@AddRenderI@2
$LN465@AddRenderI@2:

; 666  : 	}
; 667  : 	else if( szType == "ArrowUp" )

  001d0	6a 04		 push	 4
  001d2	c7 45 ec ac 9e
	99 85		 mov	 DWORD PTR __t$524915[ebp], -2053529940 ; 85999eacH
  001d9	31 7d ec	 xor	 DWORD PTR __t$524915[ebp], edi
  001dc	c7 45 f0 9a b9
	9b 00		 mov	 DWORD PTR __t$524915[ebp+4], 10205594 ; 009bb99aH
  001e3	58		 pop	 eax
$LL441@AddRenderI@2:
  001e4	8b c8		 mov	 ecx, eax
  001e6	81 e1 03 00 00
	80		 and	 ecx, -2147483645	; 80000003H
  001ec	79 05		 jns	 SHORT $LN483@AddRenderI@2
  001ee	49		 dec	 ecx
  001ef	83 c9 fc	 or	 ecx, -4			; fffffffcH
  001f2	41		 inc	 ecx
$LN483@AddRenderI@2:
  001f3	b2 ed		 mov	 dl, -19			; ffffffedH
  001f5	2a d1		 sub	 dl, cl
  001f7	30 54 05 ec	 xor	 BYTE PTR __t$524915[ebp+eax], dl
  001fb	40		 inc	 eax
  001fc	83 f8 07	 cmp	 eax, 7
  001ff	7c e3		 jl	 SHORT $LL441@AddRenderI@2
  00201	8b 4d dc	 mov	 ecx, DWORD PTR _szType$GSCopy$[ebp]
  00204	8d 75 ec	 lea	 esi, DWORD PTR __t$524915[ebp]
  00207	ff 15 00 00 00
	00		 call	 DWORD PTR __imp_?c_str@ioHashString@@QBEPBDXZ
$LL478@AddRenderI@2:
  0020d	8a 08		 mov	 cl, BYTE PTR [eax]
  0020f	3a 0e		 cmp	 cl, BYTE PTR [esi]
  00211	75 1a		 jne	 SHORT $LN479@AddRenderI@2
  00213	3a cb		 cmp	 cl, bl
  00215	74 12		 je	 SHORT $LN480@AddRenderI@2
  00217	8a 48 01	 mov	 cl, BYTE PTR [eax+1]
  0021a	3a 4e 01	 cmp	 cl, BYTE PTR [esi+1]
  0021d	75 0e		 jne	 SHORT $LN479@AddRenderI@2
  0021f	83 c0 02	 add	 eax, 2
  00222	83 c6 02	 add	 esi, 2
  00225	3a cb		 cmp	 cl, bl
  00227	75 e4		 jne	 SHORT $LL478@AddRenderI@2
$LN480@AddRenderI@2:
  00229	33 c0		 xor	 eax, eax
  0022b	eb 05		 jmp	 SHORT $LN481@AddRenderI@2
$LN479@AddRenderI@2:
  0022d	1b c0		 sbb	 eax, eax
  0022f	83 d8 ff	 sbb	 eax, -1
$LN481@AddRenderI@2:
  00232	3b c3		 cmp	 eax, ebx
  00234	75 25		 jne	 SHORT $LN3@AddRenderI@2

; 668  : 	{
; 669  : 		SAFEDELETE( m_pArrowUp );

  00236	8b 75 e4	 mov	 esi, DWORD PTR _this$GSCopy$[ebp]
  00239	8b 8e 6c 01 00
	00		 mov	 ecx, DWORD PTR [esi+364]
  0023f	3b cb		 cmp	 ecx, ebx
  00241	74 0d		 je	 SHORT $LN2@AddRenderI@2
  00243	8b 01		 mov	 eax, DWORD PTR [ecx]
  00245	6a 01		 push	 1
  00247	ff 50 40	 call	 DWORD PTR [eax+64]
  0024a	89 9e 6c 01 00
	00		 mov	 DWORD PTR [esi+364], ebx
$LN2@AddRenderI@2:

; 670  : 		m_pArrowUp = pImage;

  00250	8b 45 e0	 mov	 eax, DWORD PTR _pImage$GSCopy$[ebp]
  00253	89 86 6c 01 00
	00		 mov	 DWORD PTR [esi+364], eax

; 671  : 	}
; 672  : 	else

  00259	eb 0f		 jmp	 SHORT $LN1@AddRenderI@2
$LN3@AddRenderI@2:

; 673  : 	{
; 674  : 		ioWnd::AddRenderImage( szType, pImage );

  0025b	ff 75 e0	 push	 DWORD PTR _pImage$GSCopy$[ebp]
  0025e	8b 4d e4	 mov	 ecx, DWORD PTR _this$GSCopy$[ebp]
  00261	ff 75 dc	 push	 DWORD PTR _szType$GSCopy$[ebp]
  00264	ff 15 00 00 00
	00		 call	 DWORD PTR __imp_?AddRenderImage@ioWnd@@UAEXABVioHashString@@PAVioUIRenderImage@@@Z
$LN1@AddRenderI@2:

; 675  : 	}
; 676  : }

  0026a	8b 4d fc	 mov	 ecx, DWORD PTR __$ArrayPad$[ebp]
  0026d	5f		 pop	 edi
  0026e	5e		 pop	 esi
  0026f	33 cd		 xor	 ecx, ebp
  00271	5b		 pop	 ebx
  00272	e8 00 00 00 00	 call	 @__security_check_cookie@4
  00277	c9		 leave
  00278	c2 08 00	 ret	 8
?AddRenderImage@TutorialKeyboardWnd@@MAEXABVioHashString@@PAVioUIRenderImage@@@Z ENDP ; TutorialKeyboardWnd::AddRenderImage
_TEXT	ENDS
PUBLIC	?begin@?$vector@PAVioUIRenderImage@@V?$allocator@PAVioUIRenderImage@@@std@@@std@@QAE?AV?$_Vector_iterator@V?$_Vector_val@PAVioUIRenderImage@@V?$allocator@PAVioUIRenderImage@@@std@@@std@@@2@XZ ; std::vector<ioUIRenderImage *,std::allocator<ioUIRenderImage *> >::begin
; Function compile flags: /Ogsp
; File c:\program files (x86)\microsoft visual studio 10.0\vc\include\vector
;	COMDAT ?begin@?$vector@PAVioUIRenderImage@@V?$allocator@PAVioUIRenderImage@@@std@@@std@@QAE?AV?$_Vector_iterator@V?$_Vector_val@PAVioUIRenderImage@@V?$allocator@PAVioUIRenderImage@@@std@@@std@@@2@XZ
_TEXT	SEGMENT
___$ReturnUdt$ = 8					; size = 4
?begin@?$vector@PAVioUIRenderImage@@V?$allocator@PAVioUIRenderImage@@@std@@@std@@QAE?AV?$_Vector_iterator@V?$_Vector_val@PAVioUIRenderImage@@V?$allocator@PAVioUIRenderImage@@@std@@@std@@@2@XZ PROC ; std::vector<ioUIRenderImage *,std::allocator<ioUIRenderImage *> >::begin, COMDAT
; _this$ = ecx

; 781  : 		{	// return iterator for beginning of mutable sequence

  00000	55		 push	 ebp
  00001	8b ec		 mov	 ebp, esp

; 782  : 		return (iterator(this->_Myfirst, this));

  00003	8b 09		 mov	 ecx, DWORD PTR [ecx]
  00005	8b 45 08	 mov	 eax, DWORD PTR ___$ReturnUdt$[ebp]
  00008	89 08		 mov	 DWORD PTR [eax], ecx

; 783  : 		}

  0000a	5d		 pop	 ebp
  0000b	c2 04 00	 ret	 4
?begin@?$vector@PAVioUIRenderImage@@V?$allocator@PAVioUIRenderImage@@@std@@@std@@QAE?AV?$_Vector_iterator@V?$_Vector_val@PAVioUIRenderImage@@V?$allocator@PAVioUIRenderImage@@@std@@@std@@@2@XZ ENDP ; std::vector<ioUIRenderImage *,std::allocator<ioUIRenderImage *> >::begin
_TEXT	ENDS
PUBLIC	?end@?$vector@PAVioUIRenderImage@@V?$allocator@PAVioUIRenderImage@@@std@@@std@@QAE?AV?$_Vector_iterator@V?$_Vector_val@PAVioUIRenderImage@@V?$allocator@PAVioUIRenderImage@@@std@@@std@@@2@XZ ; std::vector<ioUIRenderImage *,std::allocator<ioUIRenderImage *> >::end
; Function compile flags: /Ogsp
;	COMDAT ?end@?$vector@PAVioUIRenderImage@@V?$allocator@PAVioUIRenderImage@@@std@@@std@@QAE?AV?$_Vector_iterator@V?$_Vector_val@PAVioUIRenderImage@@V?$allocator@PAVioUIRenderImage@@@std@@@std@@@2@XZ
_TEXT	SEGMENT
___$ReturnUdt$ = 8					; size = 4
?end@?$vector@PAVioUIRenderImage@@V?$allocator@PAVioUIRenderImage@@@std@@@std@@QAE?AV?$_Vector_iterator@V?$_Vector_val@PAVioUIRenderImage@@V?$allocator@PAVioUIRenderImage@@@std@@@std@@@2@XZ PROC ; std::vector<ioUIRenderImage *,std::allocator<ioUIRenderImage *> >::end, COMDAT
; _this$ = ecx

; 791  : 		{	// return iterator for end of mutable sequence

  00000	55		 push	 ebp
  00001	8b ec		 mov	 ebp, esp

; 792  : 		return (iterator(this->_Mylast, this));

  00003	8b 49 04	 mov	 ecx, DWORD PTR [ecx+4]
  00006	8b 45 08	 mov	 eax, DWORD PTR ___$ReturnUdt$[ebp]
  00009	89 08		 mov	 DWORD PTR [eax], ecx

; 793  : 		}

  0000b	5d		 pop	 ebp
  0000c	c2 04 00	 ret	 4
?end@?$vector@PAVioUIRenderImage@@V?$allocator@PAVioUIRenderImage@@@std@@@std@@QAE?AV?$_Vector_iterator@V?$_Vector_val@PAVioUIRenderImage@@V?$allocator@PAVioUIRenderImage@@@std@@@std@@@2@XZ ENDP ; std::vector<ioUIRenderImage *,std::allocator<ioUIRenderImage *> >::end
_TEXT	ENDS
PUBLIC	??0?$vector@V?$basic_string@DU?$char_traits@D@std@@V?$allocator@D@2@@std@@V?$allocator@V?$basic_string@DU?$char_traits@D@std@@V?$allocator@D@2@@std@@@2@@std@@QAE@XZ ; std::vector<std::basic_string<char,std::char_traits<char>,std::allocator<char> >,std::allocator<std::basic_string<char,std::char_traits<char>,std::allocator<char> > > >::vector<std::basic_string<char,std::char_traits<char>,std::allocator<char> >,std::allocator<std::basic_string<char,std::char_traits<char>,std::allocator<char> > > >
; Function compile flags: /Ogsp
;	COMDAT ??0?$vector@V?$basic_string@DU?$char_traits@D@std@@V?$allocator@D@2@@std@@V?$allocator@V?$basic_string@DU?$char_traits@D@std@@V?$allocator@D@2@@std@@@2@@std@@QAE@XZ
_TEXT	SEGMENT
??0?$vector@V?$basic_string@DU?$char_traits@D@std@@V?$allocator@D@2@@std@@V?$allocator@V?$basic_string@DU?$char_traits@D@std@@V?$allocator@D@2@@std@@@2@@std@@QAE@XZ PROC ; std::vector<std::basic_string<char,std::char_traits<char>,std::allocator<char> >,std::allocator<std::basic_string<char,std::char_traits<char>,std::allocator<char> > > >::vector<std::basic_string<char,std::char_traits<char>,std::allocator<char> >,std::allocator<std::basic_string<char,std::char_traits<char>,std::allocator<char> > > >, COMDAT
; _this$ = ecx

; 507  : 		{	// construct empty vector

  00000	8b c1		 mov	 eax, ecx
  00002	33 c9		 xor	 ecx, ecx
  00004	89 08		 mov	 DWORD PTR [eax], ecx
  00006	89 48 04	 mov	 DWORD PTR [eax+4], ecx
  00009	89 48 08	 mov	 DWORD PTR [eax+8], ecx

; 508  : 		}

  0000c	c3		 ret	 0
??0?$vector@V?$basic_string@DU?$char_traits@D@std@@V?$allocator@D@2@@std@@V?$allocator@V?$basic_string@DU?$char_traits@D@std@@V?$allocator@D@2@@std@@@2@@std@@QAE@XZ ENDP ; std::vector<std::basic_string<char,std::char_traits<char>,std::allocator<char> >,std::allocator<std::basic_string<char,std::char_traits<char>,std::allocator<char> > > >::vector<std::basic_string<char,std::char_traits<char>,std::allocator<char> >,std::allocator<std::basic_string<char,std::char_traits<char>,std::allocator<char> > > >
_TEXT	ENDS
PUBLIC	??0?$vector@UStringTick@TutorialWnd@@V?$allocator@UStringTick@TutorialWnd@@@std@@@std@@QAE@XZ ; std::vector<TutorialWnd::StringTick,std::allocator<TutorialWnd::StringTick> >::vector<TutorialWnd::StringTick,std::allocator<TutorialWnd::StringTick> >
; Function compile flags: /Ogsp
;	COMDAT ??0?$vector@UStringTick@TutorialWnd@@V?$allocator@UStringTick@TutorialWnd@@@std@@@std@@QAE@XZ
_TEXT	SEGMENT
??0?$vector@UStringTick@TutorialWnd@@V?$allocator@UStringTick@TutorialWnd@@@std@@@std@@QAE@XZ PROC ; std::vector<TutorialWnd::StringTick,std::allocator<TutorialWnd::StringTick> >::vector<TutorialWnd::StringTick,std::allocator<TutorialWnd::StringTick> >, COMDAT
; _this$ = ecx

; 507  : 		{	// construct empty vector

  00000	8b c1		 mov	 eax, ecx
  00002	33 c9		 xor	 ecx, ecx
  00004	89 08		 mov	 DWORD PTR [eax], ecx
  00006	89 48 04	 mov	 DWORD PTR [eax+4], ecx
  00009	89 48 08	 mov	 DWORD PTR [eax+8], ecx

; 508  : 		}

  0000c	c3		 ret	 0
??0?$vector@UStringTick@TutorialWnd@@V?$allocator@UStringTick@TutorialWnd@@@std@@@std@@QAE@XZ ENDP ; std::vector<TutorialWnd::StringTick,std::allocator<TutorialWnd::StringTick> >::vector<TutorialWnd::StringTick,std::allocator<TutorialWnd::StringTick> >
_TEXT	ENDS
PUBLIC	??9?$_Vector_const_iterator@V?$_Vector_val@PAVioUIRenderImage@@V?$allocator@PAVioUIRenderImage@@@std@@@std@@@std@@QBE_NABV01@@Z ; std::_Vector_const_iterator<std::_Vector_val<ioUIRenderImage *,std::allocator<ioUIRenderImage *> > >::operator!=
; Function compile flags: /Ogsp
;	COMDAT ??9?$_Vector_const_iterator@V?$_Vector_val@PAVioUIRenderImage@@V?$allocator@PAVioUIRenderImage@@@std@@@std@@@std@@QBE_NABV01@@Z
_TEXT	SEGMENT
__Right$ = 8						; size = 4
??9?$_Vector_const_iterator@V?$_Vector_val@PAVioUIRenderImage@@V?$allocator@PAVioUIRenderImage@@@std@@@std@@@std@@QBE_NABV01@@Z PROC ; std::_Vector_const_iterator<std::_Vector_val<ioUIRenderImage *,std::allocator<ioUIRenderImage *> > >::operator!=, COMDAT
; _this$ = ecx

; 207  : 		{	// test for iterator inequality

  00000	55		 push	 ebp
  00001	8b ec		 mov	 ebp, esp

; 208  : 		return (!(*this == _Right));

  00003	8b 01		 mov	 eax, DWORD PTR [ecx]
  00005	8b 55 08	 mov	 edx, DWORD PTR __Right$[ebp]
  00008	33 c9		 xor	 ecx, ecx
  0000a	3b 02		 cmp	 eax, DWORD PTR [edx]
  0000c	0f 95 c0	 setne	 al

; 209  : 		}

  0000f	5d		 pop	 ebp
  00010	c2 04 00	 ret	 4
??9?$_Vector_const_iterator@V?$_Vector_val@PAVioUIRenderImage@@V?$allocator@PAVioUIRenderImage@@@std@@@std@@@std@@QBE_NABV01@@Z ENDP ; std::_Vector_const_iterator<std::_Vector_val<ioUIRenderImage *,std::allocator<ioUIRenderImage *> > >::operator!=
_TEXT	ENDS
PUBLIC	?begin@?$vector@V?$basic_string@DU?$char_traits@D@std@@V?$allocator@D@2@@std@@V?$allocator@V?$basic_string@DU?$char_traits@D@std@@V?$allocator@D@2@@std@@@2@@std@@QAE?AV?$_Vector_iterator@V?$_Vector_val@V?$basic_string@DU?$char_traits@D@std@@V?$allocator@D@2@@std@@V?$allocator@V?$basic_string@DU?$char_traits@D@std@@V?$allocator@D@2@@std@@@2@@std@@@2@XZ ; std::vector<std::basic_string<char,std::char_traits<char>,std::allocator<char> >,std::allocator<std::basic_string<char,std::char_traits<char>,std::allocator<char> > > >::begin
; Function compile flags: /Ogsp
;	COMDAT ?begin@?$vector@V?$basic_string@DU?$char_traits@D@std@@V?$allocator@D@2@@std@@V?$allocator@V?$basic_string@DU?$char_traits@D@std@@V?$allocator@D@2@@std@@@2@@std@@QAE?AV?$_Vector_iterator@V?$_Vector_val@V?$basic_string@DU?$char_traits@D@std@@V?$allocator@D@2@@std@@V?$allocator@V?$basic_string@DU?$char_traits@D@std@@V?$allocator@D@2@@std@@@2@@std@@@2@XZ
_TEXT	SEGMENT
___$ReturnUdt$ = 8					; size = 4
?begin@?$vector@V?$basic_string@DU?$char_traits@D@std@@V?$allocator@D@2@@std@@V?$allocator@V?$basic_string@DU?$char_traits@D@std@@V?$allocator@D@2@@std@@@2@@std@@QAE?AV?$_Vector_iterator@V?$_Vector_val@V?$basic_string@DU?$char_traits@D@std@@V?$allocator@D@2@@std@@V?$allocator@V?$basic_string@DU?$char_traits@D@std@@V?$allocator@D@2@@std@@@2@@std@@@2@XZ PROC ; std::vector<std::basic_string<char,std::char_traits<char>,std::allocator<char> >,std::allocator<std::basic_string<char,std::char_traits<char>,std::allocator<char> > > >::begin, COMDAT
; _this$ = ecx

; 781  : 		{	// return iterator for beginning of mutable sequence

  00000	55		 push	 ebp
  00001	8b ec		 mov	 ebp, esp

; 782  : 		return (iterator(this->_Myfirst, this));

  00003	8b 09		 mov	 ecx, DWORD PTR [ecx]
  00005	8b 45 08	 mov	 eax, DWORD PTR ___$ReturnUdt$[ebp]
  00008	89 08		 mov	 DWORD PTR [eax], ecx

; 783  : 		}

  0000a	5d		 pop	 ebp
  0000b	c2 04 00	 ret	 4
?begin@?$vector@V?$basic_string@DU?$char_traits@D@std@@V?$allocator@D@2@@std@@V?$allocator@V?$basic_string@DU?$char_traits@D@std@@V?$allocator@D@2@@std@@@2@@std@@QAE?AV?$_Vector_iterator@V?$_Vector_val@V?$basic_string@DU?$char_traits@D@std@@V?$allocator@D@2@@std@@V?$allocator@V?$basic_string@DU?$char_traits@D@std@@V?$allocator@D@2@@std@@@2@@std@@@2@XZ ENDP ; std::vector<std::basic_string<char,std::char_traits<char>,std::allocator<char> >,std::allocator<std::basic_string<char,std::char_traits<char>,std::allocator<char> > > >::begin
_TEXT	ENDS
PUBLIC	?end@?$vector@V?$basic_string@DU?$char_traits@D@std@@V?$allocator@D@2@@std@@V?$allocator@V?$basic_string@DU?$char_traits@D@std@@V?$allocator@D@2@@std@@@2@@std@@QAE?AV?$_Vector_iterator@V?$_Vector_val@V?$basic_string@DU?$char_traits@D@std@@V?$allocator@D@2@@std@@V?$allocator@V?$basic_string@DU?$char_traits@D@std@@V?$allocator@D@2@@std@@@2@@std@@@2@XZ ; std::vector<std::basic_string<char,std::char_traits<char>,std::allocator<char> >,std::allocator<std::basic_string<char,std::char_traits<char>,std::allocator<char> > > >::end
; Function compile flags: /Ogsp
;	COMDAT ?end@?$vector@V?$basic_string@DU?$char_traits@D@std@@V?$allocator@D@2@@std@@V?$allocator@V?$basic_string@DU?$char_traits@D@std@@V?$allocator@D@2@@std@@@2@@std@@QAE?AV?$_Vector_iterator@V?$_Vector_val@V?$basic_string@DU?$char_traits@D@std@@V?$allocator@D@2@@std@@V?$allocator@V?$basic_string@DU?$char_traits@D@std@@V?$allocator@D@2@@std@@@2@@std@@@2@XZ
_TEXT	SEGMENT
___$ReturnUdt$ = 8					; size = 4
?end@?$vector@V?$basic_string@DU?$char_traits@D@std@@V?$allocator@D@2@@std@@V?$allocator@V?$basic_string@DU?$char_traits@D@std@@V?$allocator@D@2@@std@@@2@@std@@QAE?AV?$_Vector_iterator@V?$_Vector_val@V?$basic_string@DU?$char_traits@D@std@@V?$allocator@D@2@@std@@V?$allocator@V?$basic_string@DU?$char_traits@D@std@@V?$allocator@D@2@@std@@@2@@std@@@2@XZ PROC ; std::vector<std::basic_string<char,std::char_traits<char>,std::allocator<char> >,std::allocator<std::basic_string<char,std::char_traits<char>,std::allocator<char> > > >::end, COMDAT
; _this$ = ecx

; 791  : 		{	// return iterator for end of mutable sequence

  00000	55		 push	 ebp
  00001	8b ec		 mov	 ebp, esp

; 792  : 		return (iterator(this->_Mylast, this));

  00003	8b 49 04	 mov	 ecx, DWORD PTR [ecx+4]
  00006	8b 45 08	 mov	 eax, DWORD PTR ___$ReturnUdt$[ebp]
  00009	89 08		 mov	 DWORD PTR [eax], ecx

; 793  : 		}

  0000b	5d		 pop	 ebp
  0000c	c2 04 00	 ret	 4
?end@?$vector@V?$basic_string@DU?$char_traits@D@std@@V?$allocator@D@2@@std@@V?$allocator@V?$basic_string@DU?$char_traits@D@std@@V?$allocator@D@2@@std@@@2@@std@@QAE?AV?$_Vector_iterator@V?$_Vector_val@V?$basic_string@DU?$char_traits@D@std@@V?$allocator@D@2@@std@@V?$allocator@V?$basic_string@DU?$char_traits@D@std@@V?$allocator@D@2@@std@@@2@@std@@@2@XZ ENDP ; std::vector<std::basic_string<char,std::char_traits<char>,std::allocator<char> >,std::allocator<std::basic_string<char,std::char_traits<char>,std::allocator<char> > > >::end
_TEXT	ENDS
PUBLIC	?_Buy@?$vector@V?$basic_string@DU?$char_traits@D@std@@V?$allocator@D@2@@std@@V?$allocator@V?$basic_string@DU?$char_traits@D@std@@V?$allocator@D@2@@std@@@2@@std@@IAE_NI@Z ; std::vector<std::basic_string<char,std::char_traits<char>,std::allocator<char> >,std::allocator<std::basic_string<char,std::char_traits<char>,std::allocator<char> > > >::_Buy
; Function compile flags: /Ogsp
;	COMDAT ?_Buy@?$vector@V?$basic_string@DU?$char_traits@D@std@@V?$allocator@D@2@@std@@V?$allocator@V?$basic_string@DU?$char_traits@D@std@@V?$allocator@D@2@@std@@@2@@std@@IAE_NI@Z
_TEXT	SEGMENT
__Capacity$ = 8						; size = 4
?_Buy@?$vector@V?$basic_string@DU?$char_traits@D@std@@V?$allocator@D@2@@std@@V?$allocator@V?$basic_string@DU?$char_traits@D@std@@V?$allocator@D@2@@std@@@2@@std@@IAE_NI@Z PROC ; std::vector<std::basic_string<char,std::char_traits<char>,std::allocator<char> >,std::allocator<std::basic_string<char,std::char_traits<char>,std::allocator<char> > > >::_Buy, COMDAT
; _this$ = ecx

; 1250 : 		{	// allocate array with _Capacity elements

  00000	55		 push	 ebp
  00001	8b ec		 mov	 ebp, esp
  00003	56		 push	 esi

; 1251 : 		this->_Myfirst = 0;

  00004	33 c0		 xor	 eax, eax
  00006	57		 push	 edi

; 1252 : 		this->_Mylast = 0;
; 1253 : 		this->_Myend = 0;
; 1254 : 
; 1255 : 		if (_Capacity == 0)

  00007	8b 7d 08	 mov	 edi, DWORD PTR __Capacity$[ebp]
  0000a	8b f1		 mov	 esi, ecx
  0000c	89 06		 mov	 DWORD PTR [esi], eax
  0000e	89 46 04	 mov	 DWORD PTR [esi+4], eax
  00011	89 46 08	 mov	 DWORD PTR [esi+8], eax
  00014	3b f8		 cmp	 edi, eax
  00016	75 04		 jne	 SHORT $LN4@Buy

; 1256 : 			return (false);

  00018	32 c0		 xor	 al, al
  0001a	eb 2b		 jmp	 SHORT $LN5@Buy
$LN4@Buy:

; 1257 : 		else if (max_size() < _Capacity)

  0001c	81 ff 49 92 24
	09		 cmp	 edi, 153391689		; 09249249H
  00022	76 0b		 jbe	 SHORT $LN2@Buy

; 1258 : 			_Xlen();	// result too long

  00024	68 00 00 00 00	 push	 OFFSET ??_C@_0BD@OLBABOEK@vector?$DMT?$DO?5too?5long?$AA@
  00029	ff 15 00 00 00
	00		 call	 DWORD PTR __imp_?_Xlength_error@std@@YAXPBD@Z
$LN19@Buy:
$LN2@Buy:

; 1259 : 		else
; 1260 : 			{	// nonempty array, allocate storage
; 1261 : 			this->_Myfirst = this->_Alval.allocate(_Capacity);

  0002f	50		 push	 eax
  00030	57		 push	 edi
  00031	e8 00 00 00 00	 call	 ??$_Allocate@V?$basic_string@DU?$char_traits@D@std@@V?$allocator@D@2@@std@@@std@@YAPAV?$basic_string@DU?$char_traits@D@std@@V?$allocator@D@2@@0@IPAV10@@Z ; std::_Allocate<std::basic_string<char,std::char_traits<char>,std::allocator<char> > >

; 1262 : 			this->_Mylast = this->_Myfirst;
; 1263 : 			this->_Myend = this->_Myfirst + _Capacity;

  00036	6b ff 1c	 imul	 edi, 28			; 0000001cH
  00039	03 f8		 add	 edi, eax
  0003b	59		 pop	 ecx
  0003c	89 06		 mov	 DWORD PTR [esi], eax
  0003e	89 46 04	 mov	 DWORD PTR [esi+4], eax
  00041	59		 pop	 ecx
  00042	89 7e 08	 mov	 DWORD PTR [esi+8], edi

; 1264 : 			}
; 1265 : 		return (true);

  00045	b0 01		 mov	 al, 1
$LN5@Buy:
  00047	5f		 pop	 edi
  00048	5e		 pop	 esi

; 1266 : 		}

  00049	5d		 pop	 ebp
  0004a	c2 04 00	 ret	 4
$LN18@Buy:
?_Buy@?$vector@V?$basic_string@DU?$char_traits@D@std@@V?$allocator@D@2@@std@@V?$allocator@V?$basic_string@DU?$char_traits@D@std@@V?$allocator@D@2@@std@@@2@@std@@IAE_NI@Z ENDP ; std::vector<std::basic_string<char,std::char_traits<char>,std::allocator<char> >,std::allocator<std::basic_string<char,std::char_traits<char>,std::allocator<char> > > >::_Buy
_TEXT	ENDS
PUBLIC	?begin@?$vector@UStringTick@TutorialWnd@@V?$allocator@UStringTick@TutorialWnd@@@std@@@std@@QAE?AV?$_Vector_iterator@V?$_Vector_val@UStringTick@TutorialWnd@@V?$allocator@UStringTick@TutorialWnd@@@std@@@std@@@2@XZ ; std::vector<TutorialWnd::StringTick,std::allocator<TutorialWnd::StringTick> >::begin
; Function compile flags: /Ogsp
;	COMDAT ?begin@?$vector@UStringTick@TutorialWnd@@V?$allocator@UStringTick@TutorialWnd@@@std@@@std@@QAE?AV?$_Vector_iterator@V?$_Vector_val@UStringTick@TutorialWnd@@V?$allocator@UStringTick@TutorialWnd@@@std@@@std@@@2@XZ
_TEXT	SEGMENT
___$ReturnUdt$ = 8					; size = 4
?begin@?$vector@UStringTick@TutorialWnd@@V?$allocator@UStringTick@TutorialWnd@@@std@@@std@@QAE?AV?$_Vector_iterator@V?$_Vector_val@UStringTick@TutorialWnd@@V?$allocator@UStringTick@TutorialWnd@@@std@@@std@@@2@XZ PROC ; std::vector<TutorialWnd::StringTick,std::allocator<TutorialWnd::StringTick> >::begin, COMDAT
; _this$ = ecx

; 781  : 		{	// return iterator for beginning of mutable sequence

  00000	55		 push	 ebp
  00001	8b ec		 mov	 ebp, esp

; 782  : 		return (iterator(this->_Myfirst, this));

  00003	8b 09		 mov	 ecx, DWORD PTR [ecx]
  00005	8b 45 08	 mov	 eax, DWORD PTR ___$ReturnUdt$[ebp]
  00008	89 08		 mov	 DWORD PTR [eax], ecx

; 783  : 		}

  0000a	5d		 pop	 ebp
  0000b	c2 04 00	 ret	 4
?begin@?$vector@UStringTick@TutorialWnd@@V?$allocator@UStringTick@TutorialWnd@@@std@@@std@@QAE?AV?$_Vector_iterator@V?$_Vector_val@UStringTick@TutorialWnd@@V?$allocator@UStringTick@TutorialWnd@@@std@@@std@@@2@XZ ENDP ; std::vector<TutorialWnd::StringTick,std::allocator<TutorialWnd::StringTick> >::begin
_TEXT	ENDS
PUBLIC	?end@?$vector@UStringTick@TutorialWnd@@V?$allocator@UStringTick@TutorialWnd@@@std@@@std@@QAE?AV?$_Vector_iterator@V?$_Vector_val@UStringTick@TutorialWnd@@V?$allocator@UStringTick@TutorialWnd@@@std@@@std@@@2@XZ ; std::vector<TutorialWnd::StringTick,std::allocator<TutorialWnd::StringTick> >::end
; Function compile flags: /Ogsp
;	COMDAT ?end@?$vector@UStringTick@TutorialWnd@@V?$allocator@UStringTick@TutorialWnd@@@std@@@std@@QAE?AV?$_Vector_iterator@V?$_Vector_val@UStringTick@TutorialWnd@@V?$allocator@UStringTick@TutorialWnd@@@std@@@std@@@2@XZ
_TEXT	SEGMENT
___$ReturnUdt$ = 8					; size = 4
?end@?$vector@UStringTick@TutorialWnd@@V?$allocator@UStringTick@TutorialWnd@@@std@@@std@@QAE?AV?$_Vector_iterator@V?$_Vector_val@UStringTick@TutorialWnd@@V?$allocator@UStringTick@TutorialWnd@@@std@@@std@@@2@XZ PROC ; std::vector<TutorialWnd::StringTick,std::allocator<TutorialWnd::StringTick> >::end, COMDAT
; _this$ = ecx

; 791  : 		{	// return iterator for end of mutable sequence

  00000	55		 push	 ebp
  00001	8b ec		 mov	 ebp, esp

; 792  : 		return (iterator(this->_Mylast, this));

  00003	8b 49 04	 mov	 ecx, DWORD PTR [ecx+4]
  00006	8b 45 08	 mov	 eax, DWORD PTR ___$ReturnUdt$[ebp]
  00009	89 08		 mov	 DWORD PTR [eax], ecx

; 793  : 		}

  0000b	5d		 pop	 ebp
  0000c	c2 04 00	 ret	 4
?end@?$vector@UStringTick@TutorialWnd@@V?$allocator@UStringTick@TutorialWnd@@@std@@@std@@QAE?AV?$_Vector_iterator@V?$_Vector_val@UStringTick@TutorialWnd@@V?$allocator@UStringTick@TutorialWnd@@@std@@@std@@@2@XZ ENDP ; std::vector<TutorialWnd::StringTick,std::allocator<TutorialWnd::StringTick> >::end
_TEXT	ENDS
PUBLIC	?_Make_iter@?$vector@V?$basic_string@DU?$char_traits@D@std@@V?$allocator@D@2@@std@@V?$allocator@V?$basic_string@DU?$char_traits@D@std@@V?$allocator@D@2@@std@@@2@@std@@QBE?AV?$_Vector_iterator@V?$_Vector_val@V?$basic_string@DU?$char_traits@D@std@@V?$allocator@D@2@@std@@V?$allocator@V?$basic_string@DU?$char_traits@D@std@@V?$allocator@D@2@@std@@@2@@std@@@2@V?$_Vector_const_iterator@V?$_Vector_val@V?$basic_string@DU?$char_traits@D@std@@V?$allocator@D@2@@std@@V?$allocator@V?$basic_string@DU?$char_traits@D@std@@V?$allocator@D@2@@std@@@2@@std@@@2@@Z ; std::vector<std::basic_string<char,std::char_traits<char>,std::allocator<char> >,std::allocator<std::basic_string<char,std::char_traits<char>,std::allocator<char> > > >::_Make_iter
; Function compile flags: /Ogsp
;	COMDAT ?_Make_iter@?$vector@V?$basic_string@DU?$char_traits@D@std@@V?$allocator@D@2@@std@@V?$allocator@V?$basic_string@DU?$char_traits@D@std@@V?$allocator@D@2@@std@@@2@@std@@QBE?AV?$_Vector_iterator@V?$_Vector_val@V?$basic_string@DU?$char_traits@D@std@@V?$allocator@D@2@@std@@V?$allocator@V?$basic_string@DU?$char_traits@D@std@@V?$allocator@D@2@@std@@@2@@std@@@2@V?$_Vector_const_iterator@V?$_Vector_val@V?$basic_string@DU?$char_traits@D@std@@V?$allocator@D@2@@std@@V?$allocator@V?$basic_string@DU?$char_traits@D@std@@V?$allocator@D@2@@std@@@2@@std@@@2@@Z
_TEXT	SEGMENT
___$ReturnUdt$ = 8					; size = 4
__Where$ = 12						; size = 4
?_Make_iter@?$vector@V?$basic_string@DU?$char_traits@D@std@@V?$allocator@D@2@@std@@V?$allocator@V?$basic_string@DU?$char_traits@D@std@@V?$allocator@D@2@@std@@@2@@std@@QBE?AV?$_Vector_iterator@V?$_Vector_val@V?$basic_string@DU?$char_traits@D@std@@V?$allocator@D@2@@std@@V?$allocator@V?$basic_string@DU?$char_traits@D@std@@V?$allocator@D@2@@std@@@2@@std@@@2@V?$_Vector_const_iterator@V?$_Vector_val@V?$basic_string@DU?$char_traits@D@std@@V?$allocator@D@2@@std@@V?$allocator@V?$basic_string@DU?$char_traits@D@std@@V?$allocator@D@2@@std@@@2@@std@@@2@@Z PROC ; std::vector<std::basic_string<char,std::char_traits<char>,std::allocator<char> >,std::allocator<std::basic_string<char,std::char_traits<char>,std::allocator<char> > > >::_Make_iter, COMDAT
; _this$ = ecx

; 801  : 		{	// make iterator from const_iterator

  00000	55		 push	 ebp
  00001	8b ec		 mov	 ebp, esp

; 802  : 		return (iterator(_Where._Ptr, this));

  00003	8b 45 08	 mov	 eax, DWORD PTR ___$ReturnUdt$[ebp]
  00006	8b 4d 0c	 mov	 ecx, DWORD PTR __Where$[ebp]
  00009	89 08		 mov	 DWORD PTR [eax], ecx

; 803  : 		}

  0000b	5d		 pop	 ebp
  0000c	c2 08 00	 ret	 8
?_Make_iter@?$vector@V?$basic_string@DU?$char_traits@D@std@@V?$allocator@D@2@@std@@V?$allocator@V?$basic_string@DU?$char_traits@D@std@@V?$allocator@D@2@@std@@@2@@std@@QBE?AV?$_Vector_iterator@V?$_Vector_val@V?$basic_string@DU?$char_traits@D@std@@V?$allocator@D@2@@std@@V?$allocator@V?$basic_string@DU?$char_traits@D@std@@V?$allocator@D@2@@std@@@2@@std@@@2@V?$_Vector_const_iterator@V?$_Vector_val@V?$basic_string@DU?$char_traits@D@std@@V?$allocator@D@2@@std@@V?$allocator@V?$basic_string@DU?$char_traits@D@std@@V?$allocator@D@2@@std@@@2@@std@@@2@@Z ENDP ; std::vector<std::basic_string<char,std::char_traits<char>,std::allocator<char> >,std::allocator<std::basic_string<char,std::char_traits<char>,std::allocator<char> > > >::_Make_iter
_TEXT	ENDS
PUBLIC	?_Make_iter@?$vector@UStringTick@TutorialWnd@@V?$allocator@UStringTick@TutorialWnd@@@std@@@std@@QBE?AV?$_Vector_iterator@V?$_Vector_val@UStringTick@TutorialWnd@@V?$allocator@UStringTick@TutorialWnd@@@std@@@std@@@2@V?$_Vector_const_iterator@V?$_Vector_val@UStringTick@TutorialWnd@@V?$allocator@UStringTick@TutorialWnd@@@std@@@std@@@2@@Z ; std::vector<TutorialWnd::StringTick,std::allocator<TutorialWnd::StringTick> >::_Make_iter
; Function compile flags: /Ogsp
;	COMDAT ?_Make_iter@?$vector@UStringTick@TutorialWnd@@V?$allocator@UStringTick@TutorialWnd@@@std@@@std@@QBE?AV?$_Vector_iterator@V?$_Vector_val@UStringTick@TutorialWnd@@V?$allocator@UStringTick@TutorialWnd@@@std@@@std@@@2@V?$_Vector_const_iterator@V?$_Vector_val@UStringTick@TutorialWnd@@V?$allocator@UStringTick@TutorialWnd@@@std@@@std@@@2@@Z
_TEXT	SEGMENT
___$ReturnUdt$ = 8					; size = 4
__Where$ = 12						; size = 4
?_Make_iter@?$vector@UStringTick@TutorialWnd@@V?$allocator@UStringTick@TutorialWnd@@@std@@@std@@QBE?AV?$_Vector_iterator@V?$_Vector_val@UStringTick@TutorialWnd@@V?$allocator@UStringTick@TutorialWnd@@@std@@@std@@@2@V?$_Vector_const_iterator@V?$_Vector_val@UStringTick@TutorialWnd@@V?$allocator@UStringTick@TutorialWnd@@@std@@@std@@@2@@Z PROC ; std::vector<TutorialWnd::StringTick,std::allocator<TutorialWnd::StringTick> >::_Make_iter, COMDAT
; _this$ = ecx

; 801  : 		{	// make iterator from const_iterator

  00000	55		 push	 ebp
  00001	8b ec		 mov	 ebp, esp

; 802  : 		return (iterator(_Where._Ptr, this));

  00003	8b 45 08	 mov	 eax, DWORD PTR ___$ReturnUdt$[ebp]
  00006	8b 4d 0c	 mov	 ecx, DWORD PTR __Where$[ebp]
  00009	89 08		 mov	 DWORD PTR [eax], ecx

; 803  : 		}

  0000b	5d		 pop	 ebp
  0000c	c2 08 00	 ret	 8
?_Make_iter@?$vector@UStringTick@TutorialWnd@@V?$allocator@UStringTick@TutorialWnd@@@std@@@std@@QBE?AV?$_Vector_iterator@V?$_Vector_val@UStringTick@TutorialWnd@@V?$allocator@UStringTick@TutorialWnd@@@std@@@std@@@2@V?$_Vector_const_iterator@V?$_Vector_val@UStringTick@TutorialWnd@@V?$allocator@UStringTick@TutorialWnd@@@std@@@std@@@2@@Z ENDP ; std::vector<TutorialWnd::StringTick,std::allocator<TutorialWnd::StringTick> >::_Make_iter
_TEXT	ENDS
PUBLIC	??9?$_Vector_const_iterator@V?$_Vector_val@V?$basic_string@DU?$char_traits@D@std@@V?$allocator@D@2@@std@@V?$allocator@V?$basic_string@DU?$char_traits@D@std@@V?$allocator@D@2@@std@@@2@@std@@@std@@QBE_NABV01@@Z ; std::_Vector_const_iterator<std::_Vector_val<std::basic_string<char,std::char_traits<char>,std::allocator<char> >,std::allocator<std::basic_string<char,std::char_traits<char>,std::allocator<char> > > > >::operator!=
; Function compile flags: /Ogsp
;	COMDAT ??9?$_Vector_const_iterator@V?$_Vector_val@V?$basic_string@DU?$char_traits@D@std@@V?$allocator@D@2@@std@@V?$allocator@V?$basic_string@DU?$char_traits@D@std@@V?$allocator@D@2@@std@@@2@@std@@@std@@QBE_NABV01@@Z
_TEXT	SEGMENT
__Right$ = 8						; size = 4
??9?$_Vector_const_iterator@V?$_Vector_val@V?$basic_string@DU?$char_traits@D@std@@V?$allocator@D@2@@std@@V?$allocator@V?$basic_string@DU?$char_traits@D@std@@V?$allocator@D@2@@std@@@2@@std@@@std@@QBE_NABV01@@Z PROC ; std::_Vector_const_iterator<std::_Vector_val<std::basic_string<char,std::char_traits<char>,std::allocator<char> >,std::allocator<std::basic_string<char,std::char_traits<char>,std::allocator<char> > > > >::operator!=, COMDAT
; _this$ = ecx

; 207  : 		{	// test for iterator inequality

  00000	55		 push	 ebp
  00001	8b ec		 mov	 ebp, esp

; 208  : 		return (!(*this == _Right));

  00003	8b 01		 mov	 eax, DWORD PTR [ecx]
  00005	8b 55 08	 mov	 edx, DWORD PTR __Right$[ebp]
  00008	33 c9		 xor	 ecx, ecx
  0000a	3b 02		 cmp	 eax, DWORD PTR [edx]
  0000c	0f 95 c0	 setne	 al

; 209  : 		}

  0000f	5d		 pop	 ebp
  00010	c2 04 00	 ret	 4
??9?$_Vector_const_iterator@V?$_Vector_val@V?$basic_string@DU?$char_traits@D@std@@V?$allocator@D@2@@std@@V?$allocator@V?$basic_string@DU?$char_traits@D@std@@V?$allocator@D@2@@std@@@2@@std@@@std@@QBE_NABV01@@Z ENDP ; std::_Vector_const_iterator<std::_Vector_val<std::basic_string<char,std::char_traits<char>,std::allocator<char> >,std::allocator<std::basic_string<char,std::char_traits<char>,std::allocator<char> > > > >::operator!=
_TEXT	ENDS
PUBLIC	??9?$_Vector_const_iterator@V?$_Vector_val@UStringTick@TutorialWnd@@V?$allocator@UStringTick@TutorialWnd@@@std@@@std@@@std@@QBE_NABV01@@Z ; std::_Vector_const_iterator<std::_Vector_val<TutorialWnd::StringTick,std::allocator<TutorialWnd::StringTick> > >::operator!=
; Function compile flags: /Ogsp
;	COMDAT ??9?$_Vector_const_iterator@V?$_Vector_val@UStringTick@TutorialWnd@@V?$allocator@UStringTick@TutorialWnd@@@std@@@std@@@std@@QBE_NABV01@@Z
_TEXT	SEGMENT
__Right$ = 8						; size = 4
??9?$_Vector_const_iterator@V?$_Vector_val@UStringTick@TutorialWnd@@V?$allocator@UStringTick@TutorialWnd@@@std@@@std@@@std@@QBE_NABV01@@Z PROC ; std::_Vector_const_iterator<std::_Vector_val<TutorialWnd::StringTick,std::allocator<TutorialWnd::StringTick> > >::operator!=, COMDAT
; _this$ = ecx

; 207  : 		{	// test for iterator inequality

  00000	55		 push	 ebp
  00001	8b ec		 mov	 ebp, esp

; 208  : 		return (!(*this == _Right));

  00003	8b 01		 mov	 eax, DWORD PTR [ecx]
  00005	8b 55 08	 mov	 edx, DWORD PTR __Right$[ebp]
  00008	33 c9		 xor	 ecx, ecx
  0000a	3b 02		 cmp	 eax, DWORD PTR [edx]
  0000c	0f 95 c0	 setne	 al

; 209  : 		}

  0000f	5d		 pop	 ebp
  00010	c2 04 00	 ret	 4
??9?$_Vector_const_iterator@V?$_Vector_val@UStringTick@TutorialWnd@@V?$allocator@UStringTick@TutorialWnd@@@std@@@std@@@std@@QBE_NABV01@@Z ENDP ; std::_Vector_const_iterator<std::_Vector_val<TutorialWnd::StringTick,std::allocator<TutorialWnd::StringTick> > >::operator!=
_TEXT	ENDS
PUBLIC	??$_Cons_val@V?$allocator@UStringTick@TutorialWnd@@@std@@UStringTick@TutorialWnd@@ABU34@@std@@YAXAAV?$allocator@UStringTick@TutorialWnd@@@0@PAUStringTick@TutorialWnd@@ABU23@@Z ; std::_Cons_val<std::allocator<TutorialWnd::StringTick>,TutorialWnd::StringTick,TutorialWnd::StringTick const &>
; Function compile flags: /Ogsp
; File c:\program files (x86)\microsoft visual studio 10.0\vc\include\xmemory
;	COMDAT ??$_Cons_val@V?$allocator@UStringTick@TutorialWnd@@@std@@UStringTick@TutorialWnd@@ABU34@@std@@YAXAAV?$allocator@UStringTick@TutorialWnd@@@0@PAUStringTick@TutorialWnd@@ABU23@@Z
_TEXT	SEGMENT
__Alval$ = 8						; size = 4
__Pdest$ = 12						; size = 4
__Src$ = 16						; size = 4
??$_Cons_val@V?$allocator@UStringTick@TutorialWnd@@@std@@UStringTick@TutorialWnd@@ABU34@@std@@YAXAAV?$allocator@UStringTick@TutorialWnd@@@0@PAUStringTick@TutorialWnd@@ABU23@@Z PROC ; std::_Cons_val<std::allocator<TutorialWnd::StringTick>,TutorialWnd::StringTick,TutorialWnd::StringTick const &>, COMDAT

; 279  : 	{	// construct using allocator

  00000	55		 push	 ebp
  00001	8b ec		 mov	 ebp, esp
  00003	57		 push	 edi

; 280  : 	_Alval.construct(_Pdest, _STD forward<_Ty2>(_Src));

  00004	8b 7d 0c	 mov	 edi, DWORD PTR __Pdest$[ebp]
  00007	85 ff		 test	 edi, edi
  00009	74 0a		 je	 SHORT $LN9@Cons_val@2
  0000b	56		 push	 esi
  0000c	8b 75 10	 mov	 esi, DWORD PTR __Src$[ebp]
  0000f	6a 41		 push	 65			; 00000041H
  00011	59		 pop	 ecx
  00012	f3 a5		 rep movsd
  00014	5e		 pop	 esi
$LN9@Cons_val@2:
  00015	5f		 pop	 edi

; 281  : 	}

  00016	5d		 pop	 ebp
  00017	c3		 ret	 0
??$_Cons_val@V?$allocator@UStringTick@TutorialWnd@@@std@@UStringTick@TutorialWnd@@ABU34@@std@@YAXAAV?$allocator@UStringTick@TutorialWnd@@@0@PAUStringTick@TutorialWnd@@ABU23@@Z ENDP ; std::_Cons_val<std::allocator<TutorialWnd::StringTick>,TutorialWnd::StringTick,TutorialWnd::StringTick const &>
_TEXT	ENDS
PUBLIC	??$_Move@PAUStringTick@TutorialWnd@@PAU12@@std@@YAPAUStringTick@TutorialWnd@@PAU12@00@Z ; std::_Move<TutorialWnd::StringTick *,TutorialWnd::StringTick *>
; Function compile flags: /Ogsp
; File c:\program files (x86)\microsoft visual studio 10.0\vc\include\xutility
;	COMDAT ??$_Move@PAUStringTick@TutorialWnd@@PAU12@@std@@YAPAUStringTick@TutorialWnd@@PAU12@00@Z
_TEXT	SEGMENT
__Cat$525298 = -4					; size = 1
__First$ = 8						; size = 4
__Last$ = 12						; size = 4
__Dest$ = 16						; size = 4
??$_Move@PAUStringTick@TutorialWnd@@PAU12@@std@@YAPAUStringTick@TutorialWnd@@PAU12@00@Z PROC ; std::_Move<TutorialWnd::StringTick *,TutorialWnd::StringTick *>, COMDAT

; 2533 : 	{	// move [_First, _Last) to [_Dest, ...), unchecked

  00000	55		 push	 ebp
  00001	8b ec		 mov	 ebp, esp
  00003	51		 push	 ecx

; 2534 : 	return (_Move(_First, _Last,
; 2535 : 		_Dest, _Ptr_cat(_First, _Dest)));

  00004	ff 75 fc	 push	 DWORD PTR __Cat$525298[ebp]
  00007	ff 75 10	 push	 DWORD PTR __Dest$[ebp]
  0000a	ff 75 0c	 push	 DWORD PTR __Last$[ebp]
  0000d	ff 75 08	 push	 DWORD PTR __First$[ebp]
  00010	e8 00 00 00 00	 call	 ??$_Move@PAUStringTick@TutorialWnd@@PAU12@@std@@YAPAUStringTick@TutorialWnd@@PAU12@00U_Nonscalar_ptr_iterator_tag@0@@Z ; std::_Move<TutorialWnd::StringTick *,TutorialWnd::StringTick *>
  00015	83 c4 10	 add	 esp, 16			; 00000010H

; 2536 : 	}

  00018	c9		 leave
  00019	c3		 ret	 0
??$_Move@PAUStringTick@TutorialWnd@@PAU12@@std@@YAPAUStringTick@TutorialWnd@@PAU12@00@Z ENDP ; std::_Move<TutorialWnd::StringTick *,TutorialWnd::StringTick *>
_TEXT	ENDS
PUBLIC	??$_Dest_val@V?$allocator@UStringTick@TutorialWnd@@@std@@UStringTick@TutorialWnd@@@std@@YAXAAV?$allocator@UStringTick@TutorialWnd@@@0@PAUStringTick@TutorialWnd@@@Z ; std::_Dest_val<std::allocator<TutorialWnd::StringTick>,TutorialWnd::StringTick>
; Function compile flags: /Ogsp
; File c:\program files (x86)\microsoft visual studio 10.0\vc\include\xmemory
;	COMDAT ??$_Dest_val@V?$allocator@UStringTick@TutorialWnd@@@std@@UStringTick@TutorialWnd@@@std@@YAXAAV?$allocator@UStringTick@TutorialWnd@@@0@PAUStringTick@TutorialWnd@@@Z
_TEXT	SEGMENT
__Alval$ = 8						; size = 4
__Pdest$ = 12						; size = 4
??$_Dest_val@V?$allocator@UStringTick@TutorialWnd@@@std@@UStringTick@TutorialWnd@@@std@@YAXAAV?$allocator@UStringTick@TutorialWnd@@@0@PAUStringTick@TutorialWnd@@@Z PROC ; std::_Dest_val<std::allocator<TutorialWnd::StringTick>,TutorialWnd::StringTick>, COMDAT

; 287  : 	_Alval.destroy(_Pdest);
; 288  : 	}

  00000	c3		 ret	 0
??$_Dest_val@V?$allocator@UStringTick@TutorialWnd@@@std@@UStringTick@TutorialWnd@@@std@@YAXAAV?$allocator@UStringTick@TutorialWnd@@@0@PAUStringTick@TutorialWnd@@@Z ENDP ; std::_Dest_val<std::allocator<TutorialWnd::StringTick>,TutorialWnd::StringTick>
_TEXT	ENDS
PUBLIC	??$_Cons_val@V?$allocator@UStringTick@TutorialWnd@@@std@@UStringTick@TutorialWnd@@U34@@std@@YAXAAV?$allocator@UStringTick@TutorialWnd@@@0@PAUStringTick@TutorialWnd@@$$QAU23@@Z ; std::_Cons_val<std::allocator<TutorialWnd::StringTick>,TutorialWnd::StringTick,TutorialWnd::StringTick>
; Function compile flags: /Ogsp
;	COMDAT ??$_Cons_val@V?$allocator@UStringTick@TutorialWnd@@@std@@UStringTick@TutorialWnd@@U34@@std@@YAXAAV?$allocator@UStringTick@TutorialWnd@@@0@PAUStringTick@TutorialWnd@@$$QAU23@@Z
_TEXT	SEGMENT
__Alval$ = 8						; size = 4
__Pdest$ = 12						; size = 4
__Src$ = 16						; size = 4
??$_Cons_val@V?$allocator@UStringTick@TutorialWnd@@@std@@UStringTick@TutorialWnd@@U34@@std@@YAXAAV?$allocator@UStringTick@TutorialWnd@@@0@PAUStringTick@TutorialWnd@@$$QAU23@@Z PROC ; std::_Cons_val<std::allocator<TutorialWnd::StringTick>,TutorialWnd::StringTick,TutorialWnd::StringTick>, COMDAT

; 279  : 	{	// construct using allocator

  00000	55		 push	 ebp
  00001	8b ec		 mov	 ebp, esp
  00003	57		 push	 edi

; 280  : 	_Alval.construct(_Pdest, _STD forward<_Ty2>(_Src));

  00004	8b 7d 0c	 mov	 edi, DWORD PTR __Pdest$[ebp]
  00007	85 ff		 test	 edi, edi
  00009	74 0a		 je	 SHORT $LN7@Cons_val@3
  0000b	56		 push	 esi
  0000c	8b 75 10	 mov	 esi, DWORD PTR __Src$[ebp]
  0000f	6a 41		 push	 65			; 00000041H
  00011	59		 pop	 ecx
  00012	f3 a5		 rep movsd
  00014	5e		 pop	 esi
$LN7@Cons_val@3:
  00015	5f		 pop	 edi

; 281  : 	}

  00016	5d		 pop	 ebp
  00017	c3		 ret	 0
??$_Cons_val@V?$allocator@UStringTick@TutorialWnd@@@std@@UStringTick@TutorialWnd@@U34@@std@@YAXAAV?$allocator@UStringTick@TutorialWnd@@@0@PAUStringTick@TutorialWnd@@$$QAU23@@Z ENDP ; std::_Cons_val<std::allocator<TutorialWnd::StringTick>,TutorialWnd::StringTick,TutorialWnd::StringTick>
_TEXT	ENDS
PUBLIC	?_Tidy@?$basic_string@DU?$char_traits@D@std@@V?$allocator@D@2@@std@@QAEX_NI@Z ; std::basic_string<char,std::char_traits<char>,std::allocator<char> >::_Tidy
; Function compile flags: /Ogsp
; File c:\program files (x86)\microsoft visual studio 10.0\vc\include\xstring
;	COMDAT ?_Tidy@?$basic_string@DU?$char_traits@D@std@@V?$allocator@D@2@@std@@QAEX_NI@Z
_TEXT	SEGMENT
__Built$ = 8						; size = 1
__Newsize$ = 12						; size = 4
?_Tidy@?$basic_string@DU?$char_traits@D@std@@V?$allocator@D@2@@std@@QAEX_NI@Z PROC ; std::basic_string<char,std::char_traits<char>,std::allocator<char> >::_Tidy, COMDAT
; _this$ = ecx

; 1988 : 		{	// initialize buffer, deallocating any storage

  00000	55		 push	 ebp
  00001	8b ec		 mov	 ebp, esp

; 1989 : 		if (!_Built)

  00003	80 7d 08 00	 cmp	 BYTE PTR __Built$[ebp], 0
  00007	56		 push	 esi
  00008	57		 push	 edi
  00009	8b 7d 0c	 mov	 edi, DWORD PTR __Newsize$[ebp]
  0000c	8b f1		 mov	 esi, ecx
  0000e	74 20		 je	 SHORT $LN9@Tidy

; 1990 : 			;
; 1991 : 		else if (this->_BUF_SIZE <= this->_Myres)

  00010	83 7e 14 10	 cmp	 DWORD PTR [esi+20], 16	; 00000010H
  00014	72 1a		 jb	 SHORT $LN9@Tidy

; 1992 : 			{	// copy any leftovers to small buffer and deallocate
; 1993 : 			_Elem *_Ptr = this->_Bx._Ptr;

  00016	53		 push	 ebx
  00017	8b 1e		 mov	 ebx, DWORD PTR [esi]

; 1994 : 			if (0 < _Newsize)

  00019	85 ff		 test	 edi, edi
  0001b	74 0b		 je	 SHORT $LN7@Tidy

; 1995 : 				_Traits::copy(this->_Bx._Buf, _Ptr, _Newsize);

  0001d	57		 push	 edi
  0001e	53		 push	 ebx
  0001f	56		 push	 esi
  00020	e8 00 00 00 00	 call	 _memcpy
  00025	83 c4 0c	 add	 esp, 12			; 0000000cH
$LN7@Tidy:

; 1996 : 			this->_Alval.deallocate(_Ptr, this->_Myres + 1);

  00028	53		 push	 ebx
  00029	e8 00 00 00 00	 call	 ??3@YAXPAX@Z		; operator delete
  0002e	59		 pop	 ecx
  0002f	5b		 pop	 ebx
$LN9@Tidy:

; 1997 : 			}
; 1998 : 		this->_Myres = this->_BUF_SIZE - 1;
; 1999 : 		_Eos(_Newsize);

  00030	89 7e 10	 mov	 DWORD PTR [esi+16], edi
  00033	c7 46 14 0f 00
	00 00		 mov	 DWORD PTR [esi+20], 15	; 0000000fH
  0003a	c6 04 37 00	 mov	 BYTE PTR [edi+esi], 0
  0003e	5f		 pop	 edi
  0003f	5e		 pop	 esi

; 2000 : 		}

  00040	5d		 pop	 ebp
  00041	c2 08 00	 ret	 8
?_Tidy@?$basic_string@DU?$char_traits@D@std@@V?$allocator@D@2@@std@@QAEX_NI@Z ENDP ; std::basic_string<char,std::char_traits<char>,std::allocator<char> >::_Tidy
_TEXT	ENDS
PUBLIC	?erase@?$basic_string@DU?$char_traits@D@std@@V?$allocator@D@2@@std@@QAEAAV12@II@Z ; std::basic_string<char,std::char_traits<char>,std::allocator<char> >::erase
; Function compile flags: /Ogsp
;	COMDAT ?erase@?$basic_string@DU?$char_traits@D@std@@V?$allocator@D@2@@std@@QAEAAV12@II@Z
_TEXT	SEGMENT
__Off$ = 8						; size = 4
__Count$ = 12						; size = 4
?erase@?$basic_string@DU?$char_traits@D@std@@V?$allocator@D@2@@std@@QAEAAV12@II@Z PROC ; std::basic_string<char,std::char_traits<char>,std::allocator<char> >::erase, COMDAT
; _this$ = ecx

; 1109 : 		{	// erase elements [_Off, _Off + _Count)

  00000	55		 push	 ebp
  00001	8b ec		 mov	 ebp, esp
  00003	53		 push	 ebx
  00004	56		 push	 esi
  00005	8b f1		 mov	 esi, ecx

; 1110 : 		if (this->_Mysize < _Off)

  00007	8b 46 10	 mov	 eax, DWORD PTR [esi+16]
  0000a	8b 4d 08	 mov	 ecx, DWORD PTR __Off$[ebp]
  0000d	3b c1		 cmp	 eax, ecx
  0000f	73 0b		 jae	 SHORT $LN3@erase

; 1111 : 			_Xran();	// _Off off end

  00011	68 00 00 00 00	 push	 OFFSET ??_C@_0BI@CFPLBAOH@invalid?5string?5position?$AA@
  00016	ff 15 00 00 00
	00		 call	 DWORD PTR __imp_?_Xout_of_range@std@@YAXPBD@Z
$LN28@erase:
$LN3@erase:

; 1112 : 		if (this->_Mysize - _Off < _Count)

  0001c	8b 5d 0c	 mov	 ebx, DWORD PTR __Count$[ebp]
  0001f	2b c1		 sub	 eax, ecx
  00021	3b c3		 cmp	 eax, ebx

; 1113 : 			_Count = this->_Mysize - _Off;	// trim _Count

  00023	0f 42 d8	 cmovb	 ebx, eax

; 1114 : 		if (0 < _Count)

  00026	85 db		 test	 ebx, ebx
  00028	74 47		 je	 SHORT $LN25@erase

; 1115 : 			{	// move elements down
; 1116 : 			_Traits::move(_Myptr() + _Off, _Myptr() + _Off + _Count,
; 1117 : 				this->_Mysize - _Off - _Count);

  0002a	8b 56 14	 mov	 edx, DWORD PTR [esi+20]
  0002d	57		 push	 edi
  0002e	83 fa 10	 cmp	 edx, 16			; 00000010H
  00031	72 04		 jb	 SHORT $LN11@erase
  00033	8b 3e		 mov	 edi, DWORD PTR [esi]
  00035	eb 02		 jmp	 SHORT $LN12@erase
$LN11@erase:
  00037	8b fe		 mov	 edi, esi
$LN12@erase:
  00039	83 fa 10	 cmp	 edx, 16			; 00000010H
  0003c	72 04		 jb	 SHORT $LN15@erase
  0003e	8b 16		 mov	 edx, DWORD PTR [esi]
  00040	eb 02		 jmp	 SHORT $LN16@erase
$LN15@erase:
  00042	8b d6		 mov	 edx, esi
$LN16@erase:
  00044	2b c3		 sub	 eax, ebx
  00046	03 f9		 add	 edi, ecx
  00048	50		 push	 eax
  00049	03 fb		 add	 edi, ebx
  0004b	03 d1		 add	 edx, ecx
  0004d	57		 push	 edi
  0004e	52		 push	 edx
  0004f	ff 15 00 00 00
	00		 call	 DWORD PTR __imp__memmove

; 1118 : 			size_type _Newsize = this->_Mysize - _Count;

  00055	8b 46 10	 mov	 eax, DWORD PTR [esi+16]
  00058	83 c4 0c	 add	 esp, 12			; 0000000cH
  0005b	2b c3		 sub	 eax, ebx

; 1119 : 			_Eos(_Newsize);

  0005d	83 7e 14 10	 cmp	 DWORD PTR [esi+20], 16	; 00000010H
  00061	89 46 10	 mov	 DWORD PTR [esi+16], eax
  00064	5f		 pop	 edi
  00065	72 04		 jb	 SHORT $LN23@erase
  00067	8b 0e		 mov	 ecx, DWORD PTR [esi]
  00069	eb 02		 jmp	 SHORT $LN24@erase
$LN23@erase:
  0006b	8b ce		 mov	 ecx, esi
$LN24@erase:
  0006d	c6 04 01 00	 mov	 BYTE PTR [ecx+eax], 0
$LN25@erase:

; 1120 : 			}
; 1121 : 		return (*this);

  00071	8b c6		 mov	 eax, esi
  00073	5e		 pop	 esi
  00074	5b		 pop	 ebx

; 1122 : 		}

  00075	5d		 pop	 ebp
  00076	c2 08 00	 ret	 8
$LN27@erase:
?erase@?$basic_string@DU?$char_traits@D@std@@V?$allocator@D@2@@std@@QAEAAV12@II@Z ENDP ; std::basic_string<char,std::char_traits<char>,std::allocator<char> >::erase
_TEXT	ENDS
PUBLIC	?_Copy@?$basic_string@DU?$char_traits@D@std@@V?$allocator@D@2@@std@@QAEXII@Z ; std::basic_string<char,std::char_traits<char>,std::allocator<char> >::_Copy
EXTRN	__EH_prolog3_catch:PROC
;	COMDAT xdata$x
; File c:\program files (x86)\microsoft visual studio 10.0\vc\include\iosfwd
xdata$x	SEGMENT
__catchsym$?_Copy@?$basic_string@DU?$char_traits@D@std@@V?$allocator@D@2@@std@@QAEXII@Z$5 DD 040H
	DD	00H
	DD	00H
	DD	FLAT:__catch$?_Copy@?$basic_string@DU?$char_traits@D@std@@V?$allocator@D@2@@std@@QAEXII@Z$0
__catchsym$?_Copy@?$basic_string@DU?$char_traits@D@std@@V?$allocator@D@2@@std@@QAEXII@Z$4 DD 040H
	DD	00H
	DD	00H
	DD	FLAT:__catch$?_Copy@?$basic_string@DU?$char_traits@D@std@@V?$allocator@D@2@@std@@QAEXII@Z$1
__unwindtable$?_Copy@?$basic_string@DU?$char_traits@D@std@@V?$allocator@D@2@@std@@QAEXII@Z DD 0ffffffffH
	DD	00H
	DD	0ffffffffH
	DD	00H
	DD	01H
	DD	00H
	DD	01H
	DD	00H
__ehfuncinfo$?_Copy@?$basic_string@DU?$char_traits@D@std@@V?$allocator@D@2@@std@@QAEXII@Z DD 019930522H
	DD	04H
	DD	FLAT:__unwindtable$?_Copy@?$basic_string@DU?$char_traits@D@std@@V?$allocator@D@2@@std@@QAEXII@Z
	DD	02H
	DD	FLAT:__tryblocktable$?_Copy@?$basic_string@DU?$char_traits@D@std@@V?$allocator@D@2@@std@@QAEXII@Z
	DD	2 DUP(00H)
	DD	00H
	DD	01H
__tryblocktable$?_Copy@?$basic_string@DU?$char_traits@D@std@@V?$allocator@D@2@@std@@QAEXII@Z DD 02H
	DD	02H
	DD	03H
	DD	01H
	DD	FLAT:__catchsym$?_Copy@?$basic_string@DU?$char_traits@D@std@@V?$allocator@D@2@@std@@QAEXII@Z$4
	DD	00H
	DD	00H
	DD	03H
	DD	01H
	DD	FLAT:__catchsym$?_Copy@?$basic_string@DU?$char_traits@D@std@@V?$allocator@D@2@@std@@QAEXII@Z$5
; Function compile flags: /Ogsp
; File c:\program files (x86)\microsoft visual studio 10.0\vc\include\xstring
xdata$x	ENDS
;	COMDAT ?_Copy@?$basic_string@DU?$char_traits@D@std@@V?$allocator@D@2@@std@@QAEXII@Z
_TEXT	SEGMENT
_this$ = -24						; size = 4
tv296 = -20						; size = 4
__Newres$ = -20						; size = 4
__$EHRec$ = -16						; size = 16
__Ptr$ = 8						; size = 4
__Newsize$ = 8						; size = 4
__Oldlen$ = 12						; size = 4
?_Copy@?$basic_string@DU?$char_traits@D@std@@V?$allocator@D@2@@std@@QAEXII@Z PROC ; std::basic_string<char,std::char_traits<char>,std::allocator<char> >::_Copy, COMDAT
; _this$ = ecx

; 1919 : 		{	// copy _Oldlen elements to newly allocated buffer

  00000	6a 0c		 push	 12			; 0000000cH
  00002	b8 00 00 00 00	 mov	 eax, __ehhandler$?_Copy@?$basic_string@DU?$char_traits@D@std@@V?$allocator@D@2@@std@@QAEXII@Z
  00007	e8 00 00 00 00	 call	 __EH_prolog3_catch
  0000c	8b f1		 mov	 esi, ecx
  0000e	89 75 e8	 mov	 DWORD PTR _this$[ebp], esi

; 1920 : 		size_type _Newres = _Newsize | this->_ALLOC_MASK;

  00011	8b 7d 08	 mov	 edi, DWORD PTR __Newsize$[ebp]
  00014	83 cf 0f	 or	 edi, 15			; 0000000fH

; 1921 : 		if (max_size() < _Newres)

  00017	83 ff fe	 cmp	 edi, -2			; fffffffeH
  0001a	76 05		 jbe	 SHORT $LN9@Copy

; 1922 : 			_Newres = _Newsize;	// undo roundup if too big

  0001c	8b 7d 08	 mov	 edi, DWORD PTR __Newsize$[ebp]
  0001f	eb 27		 jmp	 SHORT $LN5@Copy
$LN9@Copy:

; 1923 : 		else if (this->_Myres / 2 <= _Newres / 3)

  00021	33 d2		 xor	 edx, edx
  00023	6a 03		 push	 3
  00025	8b c7		 mov	 eax, edi
  00027	5b		 pop	 ebx
  00028	f7 f3		 div	 ebx
  0002a	8b 4e 14	 mov	 ecx, DWORD PTR [esi+20]
  0002d	89 4d ec	 mov	 DWORD PTR tv296[ebp], ecx
  00030	d1 6d ec	 shr	 DWORD PTR tv296[ebp], 1
  00033	8b 55 ec	 mov	 edx, DWORD PTR tv296[ebp]
  00036	3b d0		 cmp	 edx, eax
  00038	76 0e		 jbe	 SHORT $LN5@Copy

; 1924 : 			;
; 1925 : 		else if (this->_Myres <= max_size() - this->_Myres / 2)

  0003a	6a fe		 push	 -2			; fffffffeH
  0003c	5f		 pop	 edi
  0003d	8b c7		 mov	 eax, edi
  0003f	2b c2		 sub	 eax, edx
  00041	3b c8		 cmp	 ecx, eax
  00043	77 03		 ja	 SHORT $LN5@Copy

; 1926 : 			_Newres = this->_Myres
; 1927 : 				+ this->_Myres / 2;	// grow exponentially if possible

  00045	8d 3c 0a	 lea	 edi, DWORD PTR [edx+ecx]
$LN5@Copy:

; 1928 : 		else
; 1929 : 			_Newres = max_size();	// settle for max_size()
; 1930 : 
; 1931 : 		_Elem *_Ptr;
; 1932 : 		_TRY_BEGIN

  00048	83 65 fc 00	 and	 DWORD PTR __$EHRec$[ebp+12], 0

; 1933 : 			_Ptr = this->_Alval.allocate(_Newres + 1);

  0004c	8d 47 01	 lea	 eax, DWORD PTR [edi+1]
  0004f	6a 00		 push	 0
  00051	50		 push	 eax
  00052	e8 00 00 00 00	 call	 ??$_Allocate@D@std@@YAPADIPAD@Z ; std::_Allocate<char>
  00057	59		 pop	 ecx
  00058	59		 pop	 ecx
  00059	89 45 08	 mov	 DWORD PTR __Ptr$[ebp], eax
  0005c	eb 27		 jmp	 SHORT $LN19@Copy
__catch$?_Copy@?$basic_string@DU?$char_traits@D@std@@V?$allocator@D@2@@std@@QAEXII@Z$0:

; 1934 : 		_CATCH_ALL
; 1935 : 			_Newres = _Newsize;	// allocation failed, undo roundup and retry

  0005e	8b 45 08	 mov	 eax, DWORD PTR __Newsize$[ebp]
  00061	89 65 f0	 mov	 DWORD PTR __$EHRec$[ebp], esp
  00064	89 45 ec	 mov	 DWORD PTR __Newres$[ebp], eax

; 1936 : 			_TRY_BEGIN
; 1937 : 				_Ptr = this->_Alval.allocate(_Newres + 1);

  00067	40		 inc	 eax
  00068	6a 00		 push	 0
  0006a	50		 push	 eax
  0006b	c6 45 fc 02	 mov	 BYTE PTR __$EHRec$[ebp+12], 2
  0006f	e8 00 00 00 00	 call	 ??$_Allocate@D@std@@YAPADIPAD@Z ; std::_Allocate<char>
  00074	59		 pop	 ecx
  00075	89 45 08	 mov	 DWORD PTR __Ptr$[ebp], eax
  00078	59		 pop	 ecx

; 1941 : 			_CATCH_END
; 1942 : 		_CATCH_END

  00079	b8 00 00 00 00	 mov	 eax, $LN63@Copy
  0007e	c3		 ret	 0
$LN63@Copy:
  0007f	8b 75 e8	 mov	 esi, DWORD PTR _this$[ebp]
  00082	8b 7d ec	 mov	 edi, DWORD PTR __Newres$[ebp]
$LN19@Copy:

; 1943 : 
; 1944 : 		if (0 < _Oldlen)

  00085	8b 5d 0c	 mov	 ebx, DWORD PTR __Oldlen$[ebp]
  00088	85 db		 test	 ebx, ebx
  0008a	74 19		 je	 SHORT $LN52@Copy

; 1945 : 			_Traits::copy(_Ptr, _Myptr(), _Oldlen);	// copy existing elements

  0008c	83 7e 14 10	 cmp	 DWORD PTR [esi+20], 16	; 00000010H
  00090	72 04		 jb	 SHORT $LN50@Copy
  00092	8b 06		 mov	 eax, DWORD PTR [esi]
  00094	eb 02		 jmp	 SHORT $LN51@Copy
$LN50@Copy:
  00096	8b c6		 mov	 eax, esi
$LN51@Copy:
  00098	53		 push	 ebx
  00099	50		 push	 eax
  0009a	ff 75 08	 push	 DWORD PTR __Ptr$[ebp]
  0009d	e8 00 00 00 00	 call	 _memcpy
  000a2	83 c4 0c	 add	 esp, 12			; 0000000cH
$LN52@Copy:

; 1946 : 		_Tidy(true);

  000a5	6a 00		 push	 0
  000a7	6a 01		 push	 1
  000a9	8b ce		 mov	 ecx, esi
  000ab	e8 00 00 00 00	 call	 ?_Tidy@?$basic_string@DU?$char_traits@D@std@@V?$allocator@D@2@@std@@QAEX_NI@Z ; std::basic_string<char,std::char_traits<char>,std::allocator<char> >::_Tidy

; 1947 : 		this->_Bx._Ptr = _Ptr;

  000b0	8b 45 08	 mov	 eax, DWORD PTR __Ptr$[ebp]
  000b3	89 06		 mov	 DWORD PTR [esi], eax

; 1948 : 		this->_Myres = _Newres;
; 1949 : 		_Eos(_Oldlen);

  000b5	83 ff 10	 cmp	 edi, 16			; 00000010H
  000b8	89 7e 14	 mov	 DWORD PTR [esi+20], edi
  000bb	89 5e 10	 mov	 DWORD PTR [esi+16], ebx
  000be	0f 42 c6	 cmovb	 eax, esi
  000c1	c6 04 18 00	 mov	 BYTE PTR [eax+ebx], 0

; 1950 : 		}

  000c5	e8 00 00 00 00	 call	 __EH_epilog3
  000ca	c2 08 00	 ret	 8
__catch$?_Copy@?$basic_string@DU?$char_traits@D@std@@V?$allocator@D@2@@std@@QAEXII@Z$1:

; 1938 : 			_CATCH_ALL
; 1939 : 			_Tidy(true);	// failed again, discard storage and reraise

  000cd	8b 4d e8	 mov	 ecx, DWORD PTR _this$[ebp]
  000d0	33 f6		 xor	 esi, esi
  000d2	56		 push	 esi
  000d3	6a 01		 push	 1
  000d5	e8 00 00 00 00	 call	 ?_Tidy@?$basic_string@DU?$char_traits@D@std@@V?$allocator@D@2@@std@@QAEX_NI@Z ; std::basic_string<char,std::char_traits<char>,std::allocator<char> >::_Tidy

; 1940 : 			_RERAISE;

  000da	56		 push	 esi
  000db	56		 push	 esi
  000dc	e8 00 00 00 00	 call	 __CxxThrowException@8
$LN67@Copy:
$LN66@Copy:
  000e1	cc		 int	 3
_TEXT	ENDS
;	COMDAT text$x
text$x	SEGMENT
__ehhandler$?_Copy@?$basic_string@DU?$char_traits@D@std@@V?$allocator@D@2@@std@@QAEXII@Z:
  00000	8b 54 24 08	 mov	 edx, DWORD PTR [esp+8]
  00004	8d 42 0c	 lea	 eax, DWORD PTR [edx+12]
  00007	8b 4a e4	 mov	 ecx, DWORD PTR [edx-28]
  0000a	33 c8		 xor	 ecx, eax
  0000c	e8 00 00 00 00	 call	 @__security_check_cookie@4
  00011	b8 00 00 00 00	 mov	 eax, OFFSET __ehfuncinfo$?_Copy@?$basic_string@DU?$char_traits@D@std@@V?$allocator@D@2@@std@@QAEXII@Z
  00016	e9 00 00 00 00	 jmp	 ___CxxFrameHandler3
text$x	ENDS
?_Copy@?$basic_string@DU?$char_traits@D@std@@V?$allocator@D@2@@std@@QAEXII@Z ENDP ; std::basic_string<char,std::char_traits<char>,std::allocator<char> >::_Copy
PUBLIC	__real@00000000
EXTRN	__imp_?SetTextureFilterOption@ioUIRenderElement@@QAEXW4TextureFilterOption@@@Z:PROC
;	COMDAT __real@00000000
; File c:\program files (x86)\microsoft visual studio 10.0\vc\include\vector
CONST	SEGMENT
__real@00000000 DD 000000000r			; 0
; Function compile flags: /Ogsp
; File d:\lost saga for developer\youtube\tutorial\source\src\lsclient\gui\tutorialwnd.cpp
CONST	ENDS
;	COMDAT ?iwm_create@TutorialBtn@@UAEXXZ
_TEXT	SEGMENT
?iwm_create@TutorialBtn@@UAEXXZ PROC			; TutorialBtn::iwm_create, COMDAT
; _this$ = ecx

; 84   : {

  00000	56		 push	 esi
  00001	8b f1		 mov	 esi, ecx

; 85   : 	if(m_fIconScale > 0.f)

  00003	f3 0f 10 86 08
	02 00 00	 movss	 xmm0, DWORD PTR [esi+520]
  0000b	0f 2f 05 00 00
	00 00		 comiss	 xmm0, DWORD PTR __real@00000000
  00012	76 42		 jbe	 SHORT $LN2@iwm_create

; 86   : 	{
; 87   : 		for(auto it = m_NormalList.begin(); it != m_NormalList.end(); ++it)

  00014	57		 push	 edi
  00015	8b be d0 01 00
	00		 mov	 edi, DWORD PTR [esi+464]
  0001b	3b be d4 01 00
	00		 cmp	 edi, DWORD PTR [esi+468]
  00021	74 32		 je	 SHORT $LN40@iwm_create
  00023	53		 push	 ebx
$LL18@iwm_create:

; 88   : 		{
; 89   : 			ioUIRenderImage * pImage = *it;

  00024	8b 1f		 mov	 ebx, DWORD PTR [edi]

; 90   : 			if(pImage)

  00026	85 db		 test	 ebx, ebx
  00028	74 1f		 je	 SHORT $LN3@iwm_create

; 91   : 			{
; 92   : 				pImage->SetScale(m_fIconScale);

  0002a	f3 0f 10 86 08
	02 00 00	 movss	 xmm0, DWORD PTR [esi+520]
  00032	8b 03		 mov	 eax, DWORD PTR [ebx]
  00034	51		 push	 ecx
  00035	8b cb		 mov	 ecx, ebx
  00037	f3 0f 11 04 24	 movss	 DWORD PTR [esp], xmm0
  0003c	ff 50 1c	 call	 DWORD PTR [eax+28]

; 93   : 				pImage->SetTextureFilterOption(TFO_ANISOTROPIC);

  0003f	6a 03		 push	 3
  00041	8b cb		 mov	 ecx, ebx
  00043	ff 15 00 00 00
	00		 call	 DWORD PTR __imp_?SetTextureFilterOption@ioUIRenderElement@@QAEXW4TextureFilterOption@@@Z
$LN3@iwm_create:

; 86   : 	{
; 87   : 		for(auto it = m_NormalList.begin(); it != m_NormalList.end(); ++it)

  00049	83 c7 04	 add	 edi, 4
  0004c	3b be d4 01 00
	00		 cmp	 edi, DWORD PTR [esi+468]
  00052	75 d0		 jne	 SHORT $LL18@iwm_create
  00054	5b		 pop	 ebx
$LN40@iwm_create:
  00055	5f		 pop	 edi
$LN2@iwm_create:
  00056	5e		 pop	 esi

; 94   : 			}
; 95   : 		}
; 96   : 	}
; 97   : }

  00057	c3		 ret	 0
?iwm_create@TutorialBtn@@UAEXXZ ENDP			; TutorialBtn::iwm_create
_TEXT	ENDS
PUBLIC	??$_Destroy_range@V?$allocator@UStringTick@TutorialWnd@@@std@@@std@@YAXPAUStringTick@TutorialWnd@@0AAV?$allocator@UStringTick@TutorialWnd@@@0@U_Nonscalar_ptr_iterator_tag@0@@Z ; std::_Destroy_range<std::allocator<TutorialWnd::StringTick> >
; Function compile flags: /Ogsp
; File c:\program files (x86)\microsoft visual studio 10.0\vc\include\xmemory
;	COMDAT ??$_Destroy_range@V?$allocator@UStringTick@TutorialWnd@@@std@@@std@@YAXPAUStringTick@TutorialWnd@@0AAV?$allocator@UStringTick@TutorialWnd@@@0@U_Nonscalar_ptr_iterator_tag@0@@Z
_TEXT	SEGMENT
__First$ = 8						; size = 4
__Last$ = 12						; size = 4
__Al$ = 16						; size = 4
___formal$ = 20						; size = 1
??$_Destroy_range@V?$allocator@UStringTick@TutorialWnd@@@std@@@std@@YAXPAUStringTick@TutorialWnd@@0AAV?$allocator@UStringTick@TutorialWnd@@@0@U_Nonscalar_ptr_iterator_tag@0@@Z PROC ; std::_Destroy_range<std::allocator<TutorialWnd::StringTick> >, COMDAT

; 96   : 	for (; _First != _Last; ++_First)
; 97   : 		_Dest_val(_Al, _First);
; 98   : 	}

  00000	c3		 ret	 0
??$_Destroy_range@V?$allocator@UStringTick@TutorialWnd@@@std@@@std@@YAXPAUStringTick@TutorialWnd@@0AAV?$allocator@UStringTick@TutorialWnd@@@0@U_Nonscalar_ptr_iterator_tag@0@@Z ENDP ; std::_Destroy_range<std::allocator<TutorialWnd::StringTick> >
_TEXT	ENDS
PUBLIC	??$_Uninit_move@PAUStringTick@TutorialWnd@@PAU12@V?$allocator@UStringTick@TutorialWnd@@@std@@U12@@std@@YAPAUStringTick@TutorialWnd@@PAU12@00AAV?$allocator@UStringTick@TutorialWnd@@@0@0U_Nonscalar_ptr_iterator_tag@0@@Z ; std::_Uninit_move<TutorialWnd::StringTick *,TutorialWnd::StringTick *,std::allocator<TutorialWnd::StringTick>,TutorialWnd::StringTick>
; Function compile flags: /Ogsp
; File c:\program files (x86)\microsoft visual studio 10.0\vc\include\memory
;	COMDAT ??$_Uninit_move@PAUStringTick@TutorialWnd@@PAU12@V?$allocator@UStringTick@TutorialWnd@@@std@@U12@@std@@YAPAUStringTick@TutorialWnd@@PAU12@00AAV?$allocator@UStringTick@TutorialWnd@@@0@0U_Nonscalar_ptr_iterator_tag@0@@Z
_TEXT	SEGMENT
__First$ = 8						; size = 4
__Last$ = 12						; size = 4
__Dest$ = 16						; size = 4
__Al$ = 20						; size = 4
___formal$ = 24						; size = 4
___formal$ = 28						; size = 1
??$_Uninit_move@PAUStringTick@TutorialWnd@@PAU12@V?$allocator@UStringTick@TutorialWnd@@@std@@U12@@std@@YAPAUStringTick@TutorialWnd@@PAU12@00AAV?$allocator@UStringTick@TutorialWnd@@@0@0U_Nonscalar_ptr_iterator_tag@0@@Z PROC ; std::_Uninit_move<TutorialWnd::StringTick *,TutorialWnd::StringTick *,std::allocator<TutorialWnd::StringTick>,TutorialWnd::StringTick>, COMDAT

; 424  : 	{	// move [_First, _Last) to raw _Dest, using _Al, arbitrary type

  00000	55		 push	 ebp
  00001	8b ec		 mov	 ebp, esp
  00003	57		 push	 edi

; 425  : 	_DEBUG_RANGE(_First, _Last);
; 426  : 	_DEBUG_POINTER(_Dest);
; 427  : 	_FwdIt _Next = _Dest;
; 428  : 
; 429  : 	_TRY_BEGIN
; 430  : 	for (; _First != _Last; ++_Dest, ++_First)

  00004	8b 7d 08	 mov	 edi, DWORD PTR __First$[ebp]
  00007	3b 7d 0c	 cmp	 edi, DWORD PTR __Last$[ebp]
  0000a	74 20		 je	 SHORT $LN23@Uninit_mov
  0000c	56		 push	 esi
  0000d	be 04 01 00 00	 mov	 esi, 260		; 00000104H
$LL6@Uninit_mov:

; 431  : 		_Cons_val(_Al, _Dest, (_Valty &&)*_First);

  00012	57		 push	 edi
  00013	ff 75 10	 push	 DWORD PTR __Dest$[ebp]
  00016	ff 75 14	 push	 DWORD PTR __Al$[ebp]
  00019	e8 00 00 00 00	 call	 ??$_Cons_val@V?$allocator@UStringTick@TutorialWnd@@@std@@UStringTick@TutorialWnd@@U34@@std@@YAXAAV?$allocator@UStringTick@TutorialWnd@@@0@PAUStringTick@TutorialWnd@@$$QAU23@@Z ; std::_Cons_val<std::allocator<TutorialWnd::StringTick>,TutorialWnd::StringTick,TutorialWnd::StringTick>
  0001e	01 75 10	 add	 DWORD PTR __Dest$[ebp], esi
  00021	03 fe		 add	 edi, esi
  00023	83 c4 0c	 add	 esp, 12			; 0000000cH
  00026	3b 7d 0c	 cmp	 edi, DWORD PTR __Last$[ebp]
  00029	75 e7		 jne	 SHORT $LL6@Uninit_mov
  0002b	5e		 pop	 esi
$LN23@Uninit_mov:

; 432  : 	_CATCH_ALL
; 433  : 	for (; _Next != _Dest; ++_Next)
; 434  : 		_Dest_val(_Al, _Next);
; 435  : 	_RERAISE;
; 436  : 	_CATCH_END
; 437  : 	return (_Dest);

  0002c	8b 45 10	 mov	 eax, DWORD PTR __Dest$[ebp]
  0002f	5f		 pop	 edi

; 438  : 	}

  00030	5d		 pop	 ebp
  00031	c3		 ret	 0
??$_Uninit_move@PAUStringTick@TutorialWnd@@PAU12@V?$allocator@UStringTick@TutorialWnd@@@std@@U12@@std@@YAPAUStringTick@TutorialWnd@@PAU12@00AAV?$allocator@UStringTick@TutorialWnd@@@0@0U_Nonscalar_ptr_iterator_tag@0@@Z ENDP ; std::_Uninit_move<TutorialWnd::StringTick *,TutorialWnd::StringTick *,std::allocator<TutorialWnd::StringTick>,TutorialWnd::StringTick>
_TEXT	ENDS
PUBLIC	??1?$basic_string@DU?$char_traits@D@std@@V?$allocator@D@2@@std@@QAE@XZ ; std::basic_string<char,std::char_traits<char>,std::allocator<char> >::~basic_string<char,std::char_traits<char>,std::allocator<char> >
; Function compile flags: /Ogsp
; File c:\program files (x86)\microsoft visual studio 10.0\vc\include\xstring
;	COMDAT ??1?$basic_string@DU?$char_traits@D@std@@V?$allocator@D@2@@std@@QAE@XZ
_TEXT	SEGMENT
??1?$basic_string@DU?$char_traits@D@std@@V?$allocator@D@2@@std@@QAE@XZ PROC ; std::basic_string<char,std::char_traits<char>,std::allocator<char> >::~basic_string<char,std::char_traits<char>,std::allocator<char> >, COMDAT
; _this$ = ecx

; 754  : 		_Tidy(true);

  00000	6a 00		 push	 0
  00002	6a 01		 push	 1
  00004	e8 00 00 00 00	 call	 ?_Tidy@?$basic_string@DU?$char_traits@D@std@@V?$allocator@D@2@@std@@QAEX_NI@Z ; std::basic_string<char,std::char_traits<char>,std::allocator<char> >::_Tidy

; 755  : 		}

  00009	c3		 ret	 0
??1?$basic_string@DU?$char_traits@D@std@@V?$allocator@D@2@@std@@QAE@XZ ENDP ; std::basic_string<char,std::char_traits<char>,std::allocator<char> >::~basic_string<char,std::char_traits<char>,std::allocator<char> >
_TEXT	ENDS
PUBLIC	?_Grow@?$basic_string@DU?$char_traits@D@std@@V?$allocator@D@2@@std@@QAE_NI_N@Z ; std::basic_string<char,std::char_traits<char>,std::allocator<char> >::_Grow
; Function compile flags: /Ogsp
;	COMDAT ?_Grow@?$basic_string@DU?$char_traits@D@std@@V?$allocator@D@2@@std@@QAE_NI_N@Z
_TEXT	SEGMENT
__Newsize$ = 8						; size = 4
__Trim$ = 12						; size = 1
?_Grow@?$basic_string@DU?$char_traits@D@std@@V?$allocator@D@2@@std@@QAE_NI_N@Z PROC ; std::basic_string<char,std::char_traits<char>,std::allocator<char> >::_Grow, COMDAT
; _this$ = ecx

; 1959 : 		{	// ensure buffer is big enough, trim to size if _Trim is true

  00000	55		 push	 ebp
  00001	8b ec		 mov	 ebp, esp
  00003	56		 push	 esi

; 1960 : 		if (max_size() < _Newsize)

  00004	8b 75 08	 mov	 esi, DWORD PTR __Newsize$[ebp]
  00007	83 fe fe	 cmp	 esi, -2			; fffffffeH
  0000a	76 0b		 jbe	 SHORT $LN6@Grow

; 1961 : 			_Xlen();	// result too long

  0000c	68 00 00 00 00	 push	 OFFSET ??_C@_0BA@JFNIOLAK@string?5too?5long?$AA@
  00011	ff 15 00 00 00
	00		 call	 DWORD PTR __imp_?_Xlength_error@std@@YAXPBD@Z
$LN31@Grow:
$LN6@Grow:

; 1962 : 		if (this->_Myres < _Newsize)

  00017	8b 41 14	 mov	 eax, DWORD PTR [ecx+20]
  0001a	3b c6		 cmp	 eax, esi
  0001c	73 0b		 jae	 SHORT $LN5@Grow

; 1963 : 			_Copy(_Newsize, this->_Mysize);	// reallocate to grow

  0001e	ff 71 10	 push	 DWORD PTR [ecx+16]
  00021	56		 push	 esi
  00022	e8 00 00 00 00	 call	 ?_Copy@?$basic_string@DU?$char_traits@D@std@@V?$allocator@D@2@@std@@QAEXII@Z ; std::basic_string<char,std::char_traits<char>,std::allocator<char> >::_Copy
  00027	eb 2e		 jmp	 SHORT $LN28@Grow
$LN5@Grow:

; 1964 : 		else if (_Trim && _Newsize < this->_BUF_SIZE)

  00029	33 d2		 xor	 edx, edx
  0002b	38 55 0c	 cmp	 BYTE PTR __Trim$[ebp], dl
  0002e	74 17		 je	 SHORT $LN3@Grow
  00030	83 fe 10	 cmp	 esi, 16			; 00000010H
  00033	73 12		 jae	 SHORT $LN3@Grow

; 1965 : 			_Tidy(true,	// copy and deallocate if trimming to small string
; 1966 : 				_Newsize < this->_Mysize ? _Newsize : this->_Mysize);

  00035	8b 41 10	 mov	 eax, DWORD PTR [ecx+16]
  00038	3b f0		 cmp	 esi, eax
  0003a	0f 42 c6	 cmovb	 eax, esi
  0003d	50		 push	 eax
  0003e	6a 01		 push	 1
  00040	e8 00 00 00 00	 call	 ?_Tidy@?$basic_string@DU?$char_traits@D@std@@V?$allocator@D@2@@std@@QAEX_NI@Z ; std::basic_string<char,std::char_traits<char>,std::allocator<char> >::_Tidy
  00045	eb 10		 jmp	 SHORT $LN28@Grow
$LN3@Grow:

; 1967 : 		else if (_Newsize == 0)

  00047	3b f2		 cmp	 esi, edx
  00049	75 0c		 jne	 SHORT $LN28@Grow

; 1968 : 			_Eos(0);	// new size is zero, just null terminate

  0004b	89 51 10	 mov	 DWORD PTR [ecx+16], edx
  0004e	83 f8 10	 cmp	 eax, 16			; 00000010H
  00051	72 02		 jb	 SHORT $LN26@Grow
  00053	8b 09		 mov	 ecx, DWORD PTR [ecx]
$LN26@Grow:
  00055	88 11		 mov	 BYTE PTR [ecx], dl
$LN28@Grow:

; 1969 : 		return (0 < _Newsize);	// return true only if more work to do

  00057	33 c0		 xor	 eax, eax
  00059	3b c6		 cmp	 eax, esi
  0005b	1b c0		 sbb	 eax, eax
  0005d	f7 d8		 neg	 eax
  0005f	5e		 pop	 esi

; 1970 : 		}

  00060	5d		 pop	 ebp
  00061	c2 08 00	 ret	 8
$LN30@Grow:
?_Grow@?$basic_string@DU?$char_traits@D@std@@V?$allocator@D@2@@std@@QAE_NI_N@Z ENDP ; std::basic_string<char,std::char_traits<char>,std::allocator<char> >::_Grow
_TEXT	ENDS
PUBLIC	??_G?$basic_string@DU?$char_traits@D@std@@V?$allocator@D@2@@std@@QAEPAXI@Z ; std::basic_string<char,std::char_traits<char>,std::allocator<char> >::`scalar deleting destructor'
; Function compile flags: /Ogsp
;	COMDAT ??_G?$basic_string@DU?$char_traits@D@std@@V?$allocator@D@2@@std@@QAEPAXI@Z
_TEXT	SEGMENT
___flags$ = 8						; size = 4
??_G?$basic_string@DU?$char_traits@D@std@@V?$allocator@D@2@@std@@QAEPAXI@Z PROC ; std::basic_string<char,std::char_traits<char>,std::allocator<char> >::`scalar deleting destructor', COMDAT
; _this$ = ecx
  00000	55		 push	 ebp
  00001	8b ec		 mov	 ebp, esp
  00003	56		 push	 esi
  00004	6a 00		 push	 0
  00006	6a 01		 push	 1
  00008	8b f1		 mov	 esi, ecx
  0000a	e8 00 00 00 00	 call	 ?_Tidy@?$basic_string@DU?$char_traits@D@std@@V?$allocator@D@2@@std@@QAEX_NI@Z ; std::basic_string<char,std::char_traits<char>,std::allocator<char> >::_Tidy
  0000f	f6 45 08 01	 test	 BYTE PTR ___flags$[ebp], 1
  00013	74 07		 je	 SHORT $LN1@scalar@4
  00015	56		 push	 esi
  00016	e8 00 00 00 00	 call	 ??3@YAXPAX@Z		; operator delete
  0001b	59		 pop	 ecx
$LN1@scalar@4:
  0001c	8b c6		 mov	 eax, esi
  0001e	5e		 pop	 esi
  0001f	5d		 pop	 ebp
  00020	c2 04 00	 ret	 4
??_G?$basic_string@DU?$char_traits@D@std@@V?$allocator@D@2@@std@@QAEPAXI@Z ENDP ; std::basic_string<char,std::char_traits<char>,std::allocator<char> >::`scalar deleting destructor'
_TEXT	ENDS
PUBLIC	??$_Destroy_range@V?$allocator@UStringTick@TutorialWnd@@@std@@@std@@YAXPAUStringTick@TutorialWnd@@0AAV?$allocator@UStringTick@TutorialWnd@@@0@@Z ; std::_Destroy_range<std::allocator<TutorialWnd::StringTick> >
; Function compile flags: /Ogsp
; File c:\program files (x86)\microsoft visual studio 10.0\vc\include\xmemory
;	COMDAT ??$_Destroy_range@V?$allocator@UStringTick@TutorialWnd@@@std@@@std@@YAXPAUStringTick@TutorialWnd@@0AAV?$allocator@UStringTick@TutorialWnd@@@0@@Z
_TEXT	SEGMENT
__First$ = 8						; size = 4
__Last$ = 12						; size = 4
__Al$ = 16						; size = 4
??$_Destroy_range@V?$allocator@UStringTick@TutorialWnd@@@std@@@std@@YAXPAUStringTick@TutorialWnd@@0AAV?$allocator@UStringTick@TutorialWnd@@@0@@Z PROC ; std::_Destroy_range<std::allocator<TutorialWnd::StringTick> >, COMDAT

; 88   : 	_Destroy_range(_First, _Last, _Al, _Ptr_cat(_First, _Last));
; 89   : 	}

  00000	c3		 ret	 0
??$_Destroy_range@V?$allocator@UStringTick@TutorialWnd@@@std@@@std@@YAXPAUStringTick@TutorialWnd@@0AAV?$allocator@UStringTick@TutorialWnd@@@0@@Z ENDP ; std::_Destroy_range<std::allocator<TutorialWnd::StringTick> >
_TEXT	ENDS
PUBLIC	??$_Uninitialized_move@PAUStringTick@TutorialWnd@@PAU12@V?$allocator@UStringTick@TutorialWnd@@@std@@@std@@YAPAUStringTick@TutorialWnd@@PAU12@00AAV?$allocator@UStringTick@TutorialWnd@@@0@@Z ; std::_Uninitialized_move<TutorialWnd::StringTick *,TutorialWnd::StringTick *,std::allocator<TutorialWnd::StringTick> >
; Function compile flags: /Ogsp
; File c:\program files (x86)\microsoft visual studio 10.0\vc\include\memory
;	COMDAT ??$_Uninitialized_move@PAUStringTick@TutorialWnd@@PAU12@V?$allocator@UStringTick@TutorialWnd@@@std@@@std@@YAPAUStringTick@TutorialWnd@@PAU12@00AAV?$allocator@UStringTick@TutorialWnd@@@0@@Z
_TEXT	SEGMENT
__Cat$525788 = -4					; size = 1
__First$ = 8						; size = 4
__Last$ = 12						; size = 4
__Dest$ = 16						; size = 4
__Al$ = 20						; size = 4
??$_Uninitialized_move@PAUStringTick@TutorialWnd@@PAU12@V?$allocator@UStringTick@TutorialWnd@@@std@@@std@@YAPAUStringTick@TutorialWnd@@PAU12@00AAV?$allocator@UStringTick@TutorialWnd@@@0@@Z PROC ; std::_Uninitialized_move<TutorialWnd::StringTick *,TutorialWnd::StringTick *,std::allocator<TutorialWnd::StringTick> >, COMDAT

; 469  : 	{	// move [_First, _Last) to raw _Dest, using _Al

  00000	55		 push	 ebp
  00001	8b ec		 mov	 ebp, esp
  00003	51		 push	 ecx

; 470  : 	return (_Uninit_move(_First, _Last, _Dest, _Al,
; 471  : 		_Val_type(_First), _Ptr_cat(_First, _Dest)));

  00004	ff 75 fc	 push	 DWORD PTR __Cat$525788[ebp]
  00007	6a 00		 push	 0
  00009	ff 75 14	 push	 DWORD PTR __Al$[ebp]
  0000c	ff 75 10	 push	 DWORD PTR __Dest$[ebp]
  0000f	ff 75 0c	 push	 DWORD PTR __Last$[ebp]
  00012	ff 75 08	 push	 DWORD PTR __First$[ebp]
  00015	e8 00 00 00 00	 call	 ??$_Uninit_move@PAUStringTick@TutorialWnd@@PAU12@V?$allocator@UStringTick@TutorialWnd@@@std@@U12@@std@@YAPAUStringTick@TutorialWnd@@PAU12@00AAV?$allocator@UStringTick@TutorialWnd@@@0@0U_Nonscalar_ptr_iterator_tag@0@@Z ; std::_Uninit_move<TutorialWnd::StringTick *,TutorialWnd::StringTick *,std::allocator<TutorialWnd::StringTick>,TutorialWnd::StringTick>
  0001a	83 c4 18	 add	 esp, 24			; 00000018H

; 472  : 	}

  0001d	c9		 leave
  0001e	c3		 ret	 0
??$_Uninitialized_move@PAUStringTick@TutorialWnd@@PAU12@V?$allocator@UStringTick@TutorialWnd@@@std@@@std@@YAPAUStringTick@TutorialWnd@@PAU12@00AAV?$allocator@UStringTick@TutorialWnd@@@0@@Z ENDP ; std::_Uninitialized_move<TutorialWnd::StringTick *,TutorialWnd::StringTick *,std::allocator<TutorialWnd::StringTick> >
_TEXT	ENDS
PUBLIC	?assign@?$basic_string@DU?$char_traits@D@std@@V?$allocator@D@2@@std@@QAEAAV12@ABV12@II@Z ; std::basic_string<char,std::char_traits<char>,std::allocator<char> >::assign
; Function compile flags: /Ogsp
; File c:\program files (x86)\microsoft visual studio 10.0\vc\include\xstring
;	COMDAT ?assign@?$basic_string@DU?$char_traits@D@std@@V?$allocator@D@2@@std@@QAEAAV12@ABV12@II@Z
_TEXT	SEGMENT
__Right$ = 8						; size = 4
__Roff$ = 12						; size = 4
__Count$ = 16						; size = 4
?assign@?$basic_string@DU?$char_traits@D@std@@V?$allocator@D@2@@std@@QAEAAV12@ABV12@II@Z PROC ; std::basic_string<char,std::char_traits<char>,std::allocator<char> >::assign, COMDAT
; _this$ = ecx

; 893  : 		{	// assign _Right [_Roff, _Roff + _Count)

  00000	55		 push	 ebp
  00001	8b ec		 mov	 ebp, esp
  00003	53		 push	 ebx

; 894  : 		if (_Right.size() < _Roff)

  00004	8b 5d 08	 mov	 ebx, DWORD PTR __Right$[ebp]
  00007	8b 43 10	 mov	 eax, DWORD PTR [ebx+16]
  0000a	56		 push	 esi
  0000b	8b f1		 mov	 esi, ecx
  0000d	8b 4d 0c	 mov	 ecx, DWORD PTR __Roff$[ebp]
  00010	57		 push	 edi
  00011	3b c1		 cmp	 eax, ecx
  00013	73 0b		 jae	 SHORT $LN5@assign

; 895  : 			_Xran();	// _Roff off end

  00015	68 00 00 00 00	 push	 OFFSET ??_C@_0BI@CFPLBAOH@invalid?5string?5position?$AA@
  0001a	ff 15 00 00 00
	00		 call	 DWORD PTR __imp_?_Xout_of_range@std@@YAXPBD@Z
$LN34@assign:
$LN5@assign:

; 896  : 		size_type _Num = _Right.size() - _Roff;

  00020	2b c1		 sub	 eax, ecx
  00022	8b f8		 mov	 edi, eax

; 897  : 		if (_Count < _Num)

  00024	39 7d 10	 cmp	 DWORD PTR __Count$[ebp], edi

; 898  : 			_Num = _Count;	// trim _Num to size

  00027	0f 42 7d 10	 cmovb	 edi, DWORD PTR __Count$[ebp]

; 899  : 
; 900  : 		if (this == &_Right)

  0002b	3b f3		 cmp	 esi, ebx
  0002d	75 1a		 jne	 SHORT $LN3@assign

; 901  : 			erase((size_type)(_Roff + _Num)), erase(0, _Roff);	// substring

  0002f	03 f9		 add	 edi, ecx
  00031	6a ff		 push	 -1
  00033	57		 push	 edi
  00034	8b ce		 mov	 ecx, esi
  00036	e8 00 00 00 00	 call	 ?erase@?$basic_string@DU?$char_traits@D@std@@V?$allocator@D@2@@std@@QAEAAV12@II@Z ; std::basic_string<char,std::char_traits<char>,std::allocator<char> >::erase
  0003b	ff 75 0c	 push	 DWORD PTR __Roff$[ebp]
  0003e	8b ce		 mov	 ecx, esi
  00040	6a 00		 push	 0
  00042	e8 00 00 00 00	 call	 ?erase@?$basic_string@DU?$char_traits@D@std@@V?$allocator@D@2@@std@@QAEAAV12@II@Z ; std::basic_string<char,std::char_traits<char>,std::allocator<char> >::erase
  00047	eb 47		 jmp	 SHORT $LN31@assign
$LN3@assign:

; 902  : 		else if (_Grow(_Num))

  00049	6a 00		 push	 0
  0004b	57		 push	 edi
  0004c	8b ce		 mov	 ecx, esi
  0004e	e8 00 00 00 00	 call	 ?_Grow@?$basic_string@DU?$char_traits@D@std@@V?$allocator@D@2@@std@@QAE_NI_N@Z ; std::basic_string<char,std::char_traits<char>,std::allocator<char> >::_Grow
  00053	84 c0		 test	 al, al
  00055	74 39		 je	 SHORT $LN31@assign

; 903  : 			{	// make room and assign new stuff
; 904  : 			_Traits::copy(_Myptr(), _Right._Myptr() + _Roff, _Num);

  00057	83 7b 14 10	 cmp	 DWORD PTR [ebx+20], 16	; 00000010H
  0005b	72 04		 jb	 SHORT $LN17@assign
  0005d	8b 03		 mov	 eax, DWORD PTR [ebx]
  0005f	eb 02		 jmp	 SHORT $LN18@assign
$LN17@assign:
  00061	8b c3		 mov	 eax, ebx
$LN18@assign:
  00063	83 7e 14 10	 cmp	 DWORD PTR [esi+20], 16	; 00000010H
  00067	72 04		 jb	 SHORT $LN21@assign
  00069	8b 0e		 mov	 ecx, DWORD PTR [esi]
  0006b	eb 02		 jmp	 SHORT $LN22@assign
$LN21@assign:
  0006d	8b ce		 mov	 ecx, esi
$LN22@assign:
  0006f	03 45 0c	 add	 eax, DWORD PTR __Roff$[ebp]
  00072	57		 push	 edi
  00073	50		 push	 eax
  00074	51		 push	 ecx
  00075	e8 00 00 00 00	 call	 _memcpy
  0007a	83 c4 0c	 add	 esp, 12			; 0000000cH

; 905  : 			_Eos(_Num);

  0007d	83 7e 14 10	 cmp	 DWORD PTR [esi+20], 16	; 00000010H
  00081	89 7e 10	 mov	 DWORD PTR [esi+16], edi
  00084	72 04		 jb	 SHORT $LN29@assign
  00086	8b 06		 mov	 eax, DWORD PTR [esi]
  00088	eb 02		 jmp	 SHORT $LN30@assign
$LN29@assign:
  0008a	8b c6		 mov	 eax, esi
$LN30@assign:
  0008c	c6 04 38 00	 mov	 BYTE PTR [eax+edi], 0
$LN31@assign:

; 906  : 			}
; 907  : 		return (*this);

  00090	5f		 pop	 edi
  00091	8b c6		 mov	 eax, esi
  00093	5e		 pop	 esi
  00094	5b		 pop	 ebx

; 908  : 		}

  00095	5d		 pop	 ebp
  00096	c2 0c 00	 ret	 12			; 0000000cH
$LN33@assign:
?assign@?$basic_string@DU?$char_traits@D@std@@V?$allocator@D@2@@std@@QAEAAV12@ABV12@II@Z ENDP ; std::basic_string<char,std::char_traits<char>,std::allocator<char> >::assign
_TEXT	ENDS
PUBLIC	?assign@?$basic_string@DU?$char_traits@D@std@@V?$allocator@D@2@@std@@QAEAAV12@PBDI@Z ; std::basic_string<char,std::char_traits<char>,std::allocator<char> >::assign
; Function compile flags: /Ogsp
;	COMDAT ?assign@?$basic_string@DU?$char_traits@D@std@@V?$allocator@D@2@@std@@QAEAAV12@PBDI@Z
_TEXT	SEGMENT
__Ptr$ = 8						; size = 4
__Count$ = 12						; size = 4
?assign@?$basic_string@DU?$char_traits@D@std@@V?$allocator@D@2@@std@@QAEAAV12@PBDI@Z PROC ; std::basic_string<char,std::char_traits<char>,std::allocator<char> >::assign, COMDAT
; _this$ = ecx

; 911  : 		{	// assign [_Ptr, _Ptr + _Count)

  00000	55		 push	 ebp
  00001	8b ec		 mov	 ebp, esp
  00003	53		 push	 ebx

; 912  :  #if _ITERATOR_DEBUG_LEVEL == 2
; 913  : 		if (_Count != 0)
; 914  : 			_DEBUG_POINTER(_Ptr);
; 915  :  #endif /* _ITERATOR_DEBUG_LEVEL == 2 */
; 916  : 
; 917  : 		if (_Inside(_Ptr))

  00004	8b 5d 08	 mov	 ebx, DWORD PTR __Ptr$[ebp]
  00007	56		 push	 esi
  00008	53		 push	 ebx
  00009	8b f1		 mov	 esi, ecx
  0000b	e8 00 00 00 00	 call	 ?_Inside@?$basic_string@DU?$char_traits@D@std@@V?$allocator@D@2@@std@@QAE_NPBD@Z ; std::basic_string<char,std::char_traits<char>,std::allocator<char> >::_Inside
  00010	84 c0		 test	 al, al
  00012	74 1c		 je	 SHORT $LN2@assign@2

; 918  : 			return (assign(*this, _Ptr - _Myptr(), _Count));	// substring

  00014	83 7e 14 10	 cmp	 DWORD PTR [esi+20], 16	; 00000010H
  00018	72 04		 jb	 SHORT $LN7@assign@2
  0001a	8b 06		 mov	 eax, DWORD PTR [esi]
  0001c	eb 02		 jmp	 SHORT $LN8@assign@2
$LN7@assign@2:
  0001e	8b c6		 mov	 eax, esi
$LN8@assign@2:
  00020	ff 75 0c	 push	 DWORD PTR __Count$[ebp]
  00023	2b d8		 sub	 ebx, eax
  00025	53		 push	 ebx
  00026	56		 push	 esi
  00027	8b ce		 mov	 ecx, esi
  00029	e8 00 00 00 00	 call	 ?assign@?$basic_string@DU?$char_traits@D@std@@V?$allocator@D@2@@std@@QAEAAV12@ABV12@II@Z ; std::basic_string<char,std::char_traits<char>,std::allocator<char> >::assign
  0002e	eb 3f		 jmp	 SHORT $LN3@assign@2
$LN2@assign@2:
  00030	57		 push	 edi

; 919  : 
; 920  : 		if (_Grow(_Count))

  00031	8b 7d 0c	 mov	 edi, DWORD PTR __Count$[ebp]
  00034	6a 00		 push	 0
  00036	57		 push	 edi
  00037	8b ce		 mov	 ecx, esi
  00039	e8 00 00 00 00	 call	 ?_Grow@?$basic_string@DU?$char_traits@D@std@@V?$allocator@D@2@@std@@QAE_NI_N@Z ; std::basic_string<char,std::char_traits<char>,std::allocator<char> >::_Grow
  0003e	84 c0		 test	 al, al
  00040	74 2a		 je	 SHORT $LN21@assign@2

; 921  : 			{	// make room and assign new stuff
; 922  : 			_Traits::copy(_Myptr(), _Ptr, _Count);

  00042	83 7e 14 10	 cmp	 DWORD PTR [esi+20], 16	; 00000010H
  00046	72 04		 jb	 SHORT $LN11@assign@2
  00048	8b 06		 mov	 eax, DWORD PTR [esi]
  0004a	eb 02		 jmp	 SHORT $LN12@assign@2
$LN11@assign@2:
  0004c	8b c6		 mov	 eax, esi
$LN12@assign@2:
  0004e	57		 push	 edi
  0004f	53		 push	 ebx
  00050	50		 push	 eax
  00051	e8 00 00 00 00	 call	 _memcpy
  00056	83 c4 0c	 add	 esp, 12			; 0000000cH

; 923  : 			_Eos(_Count);

  00059	83 7e 14 10	 cmp	 DWORD PTR [esi+20], 16	; 00000010H
  0005d	89 7e 10	 mov	 DWORD PTR [esi+16], edi
  00060	72 04		 jb	 SHORT $LN19@assign@2
  00062	8b 06		 mov	 eax, DWORD PTR [esi]
  00064	eb 02		 jmp	 SHORT $LN20@assign@2
$LN19@assign@2:
  00066	8b c6		 mov	 eax, esi
$LN20@assign@2:
  00068	c6 04 38 00	 mov	 BYTE PTR [eax+edi], 0
$LN21@assign@2:

; 924  : 			}
; 925  : 		return (*this);

  0006c	8b c6		 mov	 eax, esi
  0006e	5f		 pop	 edi
$LN3@assign@2:
  0006f	5e		 pop	 esi
  00070	5b		 pop	 ebx

; 926  : 		}

  00071	5d		 pop	 ebp
  00072	c2 08 00	 ret	 8
?assign@?$basic_string@DU?$char_traits@D@std@@V?$allocator@D@2@@std@@QAEAAV12@PBDI@Z ENDP ; std::basic_string<char,std::char_traits<char>,std::allocator<char> >::assign
_TEXT	ENDS
PUBLIC	??$_Destroy@V?$basic_string@DU?$char_traits@D@std@@V?$allocator@D@2@@std@@@std@@YAXPAV?$basic_string@DU?$char_traits@D@std@@V?$allocator@D@2@@0@@Z ; std::_Destroy<std::basic_string<char,std::char_traits<char>,std::allocator<char> > >
; Function compile flags: /Ogsp
; File c:\program files (x86)\microsoft visual studio 10.0\vc\include\xmemory
;	COMDAT ??$_Destroy@V?$basic_string@DU?$char_traits@D@std@@V?$allocator@D@2@@std@@@std@@YAXPAV?$basic_string@DU?$char_traits@D@std@@V?$allocator@D@2@@0@@Z
_TEXT	SEGMENT
__Ptr$ = 8						; size = 4
??$_Destroy@V?$basic_string@DU?$char_traits@D@std@@V?$allocator@D@2@@std@@@std@@YAXPAV?$basic_string@DU?$char_traits@D@std@@V?$allocator@D@2@@0@@Z PROC ; std::_Destroy<std::basic_string<char,std::char_traits<char>,std::allocator<char> > >, COMDAT

; 62   : 	{	// destroy object at _Ptr

  00000	55		 push	 ebp
  00001	8b ec		 mov	 ebp, esp

; 63   : 	_Ptr->~_Ty();

  00003	8b 4d 08	 mov	 ecx, DWORD PTR __Ptr$[ebp]
  00006	6a 00		 push	 0
  00008	6a 01		 push	 1
  0000a	e8 00 00 00 00	 call	 ?_Tidy@?$basic_string@DU?$char_traits@D@std@@V?$allocator@D@2@@std@@QAEX_NI@Z ; std::basic_string<char,std::char_traits<char>,std::allocator<char> >::_Tidy

; 64   : 	}

  0000f	5d		 pop	 ebp
  00010	c3		 ret	 0
??$_Destroy@V?$basic_string@DU?$char_traits@D@std@@V?$allocator@D@2@@std@@@std@@YAXPAV?$basic_string@DU?$char_traits@D@std@@V?$allocator@D@2@@0@@Z ENDP ; std::_Destroy<std::basic_string<char,std::char_traits<char>,std::allocator<char> > >
_TEXT	ENDS
PUBLIC	?_Destroy@?$vector@UStringTick@TutorialWnd@@V?$allocator@UStringTick@TutorialWnd@@@std@@@std@@IAEXPAUStringTick@TutorialWnd@@0@Z ; std::vector<TutorialWnd::StringTick,std::allocator<TutorialWnd::StringTick> >::_Destroy
; Function compile flags: /Ogsp
; File c:\program files (x86)\microsoft visual studio 10.0\vc\include\vector
;	COMDAT ?_Destroy@?$vector@UStringTick@TutorialWnd@@V?$allocator@UStringTick@TutorialWnd@@@std@@@std@@IAEXPAUStringTick@TutorialWnd@@0@Z
_TEXT	SEGMENT
__First$ = 8						; size = 4
__Last$ = 12						; size = 4
?_Destroy@?$vector@UStringTick@TutorialWnd@@V?$allocator@UStringTick@TutorialWnd@@@std@@@std@@IAEXPAUStringTick@TutorialWnd@@0@Z PROC ; std::vector<TutorialWnd::StringTick,std::allocator<TutorialWnd::StringTick> >::_Destroy, COMDAT
; _this$ = ecx

; 1270 : 		_Destroy_range(_First, _Last, this->_Alval);
; 1271 : 		}

  00000	c2 08 00	 ret	 8
?_Destroy@?$vector@UStringTick@TutorialWnd@@V?$allocator@UStringTick@TutorialWnd@@@std@@@std@@IAEXPAUStringTick@TutorialWnd@@0@Z ENDP ; std::vector<TutorialWnd::StringTick,std::allocator<TutorialWnd::StringTick> >::_Destroy
_TEXT	ENDS
PUBLIC	??$_Umove@PAUStringTick@TutorialWnd@@@?$vector@UStringTick@TutorialWnd@@V?$allocator@UStringTick@TutorialWnd@@@std@@@std@@IAEPAUStringTick@TutorialWnd@@PAU23@00@Z ; std::vector<TutorialWnd::StringTick,std::allocator<TutorialWnd::StringTick> >::_Umove<TutorialWnd::StringTick *>
; Function compile flags: /Ogsp
;	COMDAT ??$_Umove@PAUStringTick@TutorialWnd@@@?$vector@UStringTick@TutorialWnd@@V?$allocator@UStringTick@TutorialWnd@@@std@@@std@@IAEPAUStringTick@TutorialWnd@@PAU23@00@Z
_TEXT	SEGMENT
__First$ = 8						; size = 4
__Last$ = 12						; size = 4
__Ptr$ = 16						; size = 4
??$_Umove@PAUStringTick@TutorialWnd@@@?$vector@UStringTick@TutorialWnd@@V?$allocator@UStringTick@TutorialWnd@@@std@@@std@@IAEPAUStringTick@TutorialWnd@@PAU23@00@Z PROC ; std::vector<TutorialWnd::StringTick,std::allocator<TutorialWnd::StringTick> >::_Umove<TutorialWnd::StringTick *>, COMDAT
; _this$ = ecx

; 1322 : 		pointer _Umove(_Iter _First, _Iter _Last, pointer _Ptr)

  00000	55		 push	 ebp
  00001	8b ec		 mov	 ebp, esp

; 1323 : 		{	// move initializing [_First, _Last), using allocator
; 1324 : 		return (_Uninitialized_move(_First, _Last,
; 1325 : 			_Ptr, this->_Alval));

  00003	83 c1 0c	 add	 ecx, 12			; 0000000cH
  00006	51		 push	 ecx
  00007	ff 75 10	 push	 DWORD PTR __Ptr$[ebp]
  0000a	ff 75 0c	 push	 DWORD PTR __Last$[ebp]
  0000d	ff 75 08	 push	 DWORD PTR __First$[ebp]
  00010	e8 00 00 00 00	 call	 ??$_Uninitialized_move@PAUStringTick@TutorialWnd@@PAU12@V?$allocator@UStringTick@TutorialWnd@@@std@@@std@@YAPAUStringTick@TutorialWnd@@PAU12@00AAV?$allocator@UStringTick@TutorialWnd@@@0@@Z ; std::_Uninitialized_move<TutorialWnd::StringTick *,TutorialWnd::StringTick *,std::allocator<TutorialWnd::StringTick> >
  00015	83 c4 10	 add	 esp, 16			; 00000010H

; 1326 : 		}

  00018	5d		 pop	 ebp
  00019	c2 0c 00	 ret	 12			; 0000000cH
??$_Umove@PAUStringTick@TutorialWnd@@@?$vector@UStringTick@TutorialWnd@@V?$allocator@UStringTick@TutorialWnd@@@std@@@std@@IAEPAUStringTick@TutorialWnd@@PAU23@00@Z ENDP ; std::vector<TutorialWnd::StringTick,std::allocator<TutorialWnd::StringTick> >::_Umove<TutorialWnd::StringTick *>
_TEXT	ENDS
PUBLIC	??0?$basic_string@DU?$char_traits@D@std@@V?$allocator@D@2@@std@@QAE@ABV01@@Z ; std::basic_string<char,std::char_traits<char>,std::allocator<char> >::basic_string<char,std::char_traits<char>,std::allocator<char> >
; Function compile flags: /Ogsp
; File c:\program files (x86)\microsoft visual studio 10.0\vc\include\xstring
;	COMDAT ??0?$basic_string@DU?$char_traits@D@std@@V?$allocator@D@2@@std@@QAE@ABV01@@Z
_TEXT	SEGMENT
__Right$ = 8						; size = 4
??0?$basic_string@DU?$char_traits@D@std@@V?$allocator@D@2@@std@@QAE@ABV01@@Z PROC ; std::basic_string<char,std::char_traits<char>,std::allocator<char> >::basic_string<char,std::char_traits<char>,std::allocator<char> >, COMDAT
; _this$ = ecx

; 543  : 		{	// construct by copying _Right

  00000	55		 push	 ebp
  00001	8b ec		 mov	 ebp, esp
  00003	56		 push	 esi

; 544  : 		_Tidy();

  00004	33 c0		 xor	 eax, eax

; 545  : 		assign(_Right, 0, npos);

  00006	6a ff		 push	 -1
  00008	8b f1		 mov	 esi, ecx
  0000a	50		 push	 eax
  0000b	ff 75 08	 push	 DWORD PTR __Right$[ebp]
  0000e	c7 46 14 0f 00
	00 00		 mov	 DWORD PTR [esi+20], 15	; 0000000fH
  00015	89 46 10	 mov	 DWORD PTR [esi+16], eax
  00018	88 06		 mov	 BYTE PTR [esi], al
  0001a	e8 00 00 00 00	 call	 ?assign@?$basic_string@DU?$char_traits@D@std@@V?$allocator@D@2@@std@@QAEAAV12@ABV12@II@Z ; std::basic_string<char,std::char_traits<char>,std::allocator<char> >::assign

; 546  : 		}

  0001f	8b c6		 mov	 eax, esi
  00021	5e		 pop	 esi
  00022	5d		 pop	 ebp
  00023	c2 04 00	 ret	 4
??0?$basic_string@DU?$char_traits@D@std@@V?$allocator@D@2@@std@@QAE@ABV01@@Z ENDP ; std::basic_string<char,std::char_traits<char>,std::allocator<char> >::basic_string<char,std::char_traits<char>,std::allocator<char> >
_TEXT	ENDS
PUBLIC	?assign@?$basic_string@DU?$char_traits@D@std@@V?$allocator@D@2@@std@@QAEAAV12@ABV12@@Z ; std::basic_string<char,std::char_traits<char>,std::allocator<char> >::assign
; Function compile flags: /Ogsp
;	COMDAT ?assign@?$basic_string@DU?$char_traits@D@std@@V?$allocator@D@2@@std@@QAEAAV12@ABV12@@Z
_TEXT	SEGMENT
__Right$ = 8						; size = 4
?assign@?$basic_string@DU?$char_traits@D@std@@V?$allocator@D@2@@std@@QAEAAV12@ABV12@@Z PROC ; std::basic_string<char,std::char_traits<char>,std::allocator<char> >::assign, COMDAT
; _this$ = ecx

; 887  : 		{	// assign _Right

  00000	55		 push	 ebp
  00001	8b ec		 mov	 ebp, esp

; 888  : 		return (assign(_Right, 0, npos));

  00003	6a ff		 push	 -1
  00005	6a 00		 push	 0
  00007	ff 75 08	 push	 DWORD PTR __Right$[ebp]
  0000a	e8 00 00 00 00	 call	 ?assign@?$basic_string@DU?$char_traits@D@std@@V?$allocator@D@2@@std@@QAEAAV12@ABV12@II@Z ; std::basic_string<char,std::char_traits<char>,std::allocator<char> >::assign

; 889  : 		}

  0000f	5d		 pop	 ebp
  00010	c2 04 00	 ret	 4
?assign@?$basic_string@DU?$char_traits@D@std@@V?$allocator@D@2@@std@@QAEAAV12@ABV12@@Z ENDP ; std::basic_string<char,std::char_traits<char>,std::allocator<char> >::assign
_TEXT	ENDS
PUBLIC	?assign@?$basic_string@DU?$char_traits@D@std@@V?$allocator@D@2@@std@@QAEAAV12@PBD@Z ; std::basic_string<char,std::char_traits<char>,std::allocator<char> >::assign
; Function compile flags: /Ogsp
;	COMDAT ?assign@?$basic_string@DU?$char_traits@D@std@@V?$allocator@D@2@@std@@QAEAAV12@PBD@Z
_TEXT	SEGMENT
__Ptr$ = 8						; size = 4
?assign@?$basic_string@DU?$char_traits@D@std@@V?$allocator@D@2@@std@@QAEAAV12@PBD@Z PROC ; std::basic_string<char,std::char_traits<char>,std::allocator<char> >::assign, COMDAT
; _this$ = ecx

; 929  : 		{	// assign [_Ptr, <null>)

  00000	55		 push	 ebp
  00001	8b ec		 mov	 ebp, esp

; 930  : 		_DEBUG_POINTER(_Ptr);
; 931  : 		return (assign(_Ptr, _Traits::length(_Ptr)));

  00003	8b 45 08	 mov	 eax, DWORD PTR __Ptr$[ebp]
  00006	8d 50 01	 lea	 edx, DWORD PTR [eax+1]
  00009	53		 push	 ebx
$LL5@assign@3:
  0000a	8a 18		 mov	 bl, BYTE PTR [eax]
  0000c	40		 inc	 eax
  0000d	84 db		 test	 bl, bl
  0000f	75 f9		 jne	 SHORT $LL5@assign@3
  00011	2b c2		 sub	 eax, edx
  00013	50		 push	 eax
  00014	ff 75 08	 push	 DWORD PTR __Ptr$[ebp]
  00017	e8 00 00 00 00	 call	 ?assign@?$basic_string@DU?$char_traits@D@std@@V?$allocator@D@2@@std@@QAEAAV12@PBDI@Z ; std::basic_string<char,std::char_traits<char>,std::allocator<char> >::assign
  0001c	5b		 pop	 ebx

; 932  : 		}

  0001d	5d		 pop	 ebp
  0001e	c2 04 00	 ret	 4
?assign@?$basic_string@DU?$char_traits@D@std@@V?$allocator@D@2@@std@@QAEAAV12@PBD@Z ENDP ; std::basic_string<char,std::char_traits<char>,std::allocator<char> >::assign
_TEXT	ENDS
PUBLIC	?destroy@?$allocator@V?$basic_string@DU?$char_traits@D@std@@V?$allocator@D@2@@std@@@std@@QAEXPAV?$basic_string@DU?$char_traits@D@std@@V?$allocator@D@2@@2@@Z ; std::allocator<std::basic_string<char,std::char_traits<char>,std::allocator<char> > >::destroy
; Function compile flags: /Ogsp
; File c:\program files (x86)\microsoft visual studio 10.0\vc\include\xmemory
;	COMDAT ?destroy@?$allocator@V?$basic_string@DU?$char_traits@D@std@@V?$allocator@D@2@@std@@@std@@QAEXPAV?$basic_string@DU?$char_traits@D@std@@V?$allocator@D@2@@2@@Z
_TEXT	SEGMENT
__Ptr$ = 8						; size = 4
?destroy@?$allocator@V?$basic_string@DU?$char_traits@D@std@@V?$allocator@D@2@@std@@@std@@QAEXPAV?$basic_string@DU?$char_traits@D@std@@V?$allocator@D@2@@2@@Z PROC ; std::allocator<std::basic_string<char,std::char_traits<char>,std::allocator<char> > >::destroy, COMDAT
; _this$ = ecx

; 212  : 		{	// destroy object at _Ptr

  00000	55		 push	 ebp
  00001	8b ec		 mov	 ebp, esp

; 213  : 		_Destroy(_Ptr);

  00003	8b 4d 08	 mov	 ecx, DWORD PTR __Ptr$[ebp]
  00006	6a 00		 push	 0
  00008	6a 01		 push	 1
  0000a	e8 00 00 00 00	 call	 ?_Tidy@?$basic_string@DU?$char_traits@D@std@@V?$allocator@D@2@@std@@QAEX_NI@Z ; std::basic_string<char,std::char_traits<char>,std::allocator<char> >::_Tidy

; 214  : 		}

  0000f	5d		 pop	 ebp
  00010	c2 04 00	 ret	 4
?destroy@?$allocator@V?$basic_string@DU?$char_traits@D@std@@V?$allocator@D@2@@std@@@std@@QAEXPAV?$basic_string@DU?$char_traits@D@std@@V?$allocator@D@2@@2@@Z ENDP ; std::allocator<std::basic_string<char,std::char_traits<char>,std::allocator<char> > >::destroy
_TEXT	ENDS
PUBLIC	?erase@?$vector@UStringTick@TutorialWnd@@V?$allocator@UStringTick@TutorialWnd@@@std@@@std@@QAE?AV?$_Vector_iterator@V?$_Vector_val@UStringTick@TutorialWnd@@V?$allocator@UStringTick@TutorialWnd@@@std@@@std@@@2@V?$_Vector_const_iterator@V?$_Vector_val@UStringTick@TutorialWnd@@V?$allocator@UStringTick@TutorialWnd@@@std@@@std@@@2@0@Z ; std::vector<TutorialWnd::StringTick,std::allocator<TutorialWnd::StringTick> >::erase
; Function compile flags: /Ogsp
; File c:\program files (x86)\microsoft visual studio 10.0\vc\include\vector
;	COMDAT ?erase@?$vector@UStringTick@TutorialWnd@@V?$allocator@UStringTick@TutorialWnd@@@std@@@std@@QAE?AV?$_Vector_iterator@V?$_Vector_val@UStringTick@TutorialWnd@@V?$allocator@UStringTick@TutorialWnd@@@std@@@std@@@2@V?$_Vector_const_iterator@V?$_Vector_val@UStringTick@TutorialWnd@@V?$allocator@UStringTick@TutorialWnd@@@std@@@std@@@2@0@Z
_TEXT	SEGMENT
___$ReturnUdt$ = 8					; size = 4
__First_arg$ = 12					; size = 4
__Cat$526140 = 16					; size = 1
__Last_arg$ = 16					; size = 4
?erase@?$vector@UStringTick@TutorialWnd@@V?$allocator@UStringTick@TutorialWnd@@@std@@@std@@QAE?AV?$_Vector_iterator@V?$_Vector_val@UStringTick@TutorialWnd@@V?$allocator@UStringTick@TutorialWnd@@@std@@@std@@@2@V?$_Vector_const_iterator@V?$_Vector_val@UStringTick@TutorialWnd@@V?$allocator@UStringTick@TutorialWnd@@@std@@@std@@@2@0@Z PROC ; std::vector<TutorialWnd::StringTick,std::allocator<TutorialWnd::StringTick> >::erase, COMDAT
; _this$ = ecx

; 1190 : 		{	// erase [_First, _Last)

  00000	55		 push	 ebp
  00001	8b ec		 mov	 ebp, esp

; 1191 : 		iterator _First = _Make_iter(_First_arg);

  00003	8b 45 0c	 mov	 eax, DWORD PTR __First_arg$[ebp]
  00006	56		 push	 esi
  00007	57		 push	 edi
  00008	8b 7d 08	 mov	 edi, DWORD PTR ___$ReturnUdt$[ebp]
  0000b	8b f1		 mov	 esi, ecx
  0000d	89 07		 mov	 DWORD PTR [edi], eax

; 1192 : 		iterator _Last = _Make_iter(_Last_arg);
; 1193 : 
; 1194 : 		if (_First != _Last)

  0000f	3b 45 10	 cmp	 eax, DWORD PTR __Last_arg$[ebp]
  00012	74 16		 je	 SHORT $LN1@erase@2

; 1195 : 			{	// worth doing, copy down over hole
; 1196 :  #if _ITERATOR_DEBUG_LEVEL == 2
; 1197 : 			if (_Last < _First || _VICONT(_First) != this
; 1198 : 				|| _VIPTR(_First) < this->_Myfirst
; 1199 : 				|| this->_Mylast < _VIPTR(_Last))
; 1200 : 				_DEBUG_ERROR("vector erase iterator outside range");
; 1201 : 			pointer _Ptr = _Move(_VIPTR(_Last), this->_Mylast,
; 1202 : 				_VIPTR(_First));
; 1203 : 			_Orphan_range(_VIPTR(_First), this->_Mylast);
; 1204 : 
; 1205 :  #else /* _ITERATOR_DEBUG_LEVEL == 2 */
; 1206 : 			pointer _Ptr = _Move(_VIPTR(_Last), this->_Mylast,
; 1207 : 				_VIPTR(_First));

  00014	ff 75 10	 push	 DWORD PTR __Cat$526140[ebp]
  00017	8b 4e 04	 mov	 ecx, DWORD PTR [esi+4]
  0001a	50		 push	 eax
  0001b	51		 push	 ecx
  0001c	ff 75 10	 push	 DWORD PTR __Last_arg$[ebp]
  0001f	e8 00 00 00 00	 call	 ??$_Move@PAUStringTick@TutorialWnd@@PAU12@@std@@YAPAUStringTick@TutorialWnd@@PAU12@00U_Nonscalar_ptr_iterator_tag@0@@Z ; std::_Move<TutorialWnd::StringTick *,TutorialWnd::StringTick *>
  00024	83 c4 10	 add	 esp, 16			; 00000010H

; 1208 :  #endif /* _ITERATOR_DEBUG_LEVEL == 2 */
; 1209 : 
; 1210 : 			_Destroy(_Ptr, this->_Mylast);
; 1211 : 			this->_Mylast = _Ptr;

  00027	89 46 04	 mov	 DWORD PTR [esi+4], eax
$LN1@erase@2:

; 1212 : 			}
; 1213 : 		return (_First);

  0002a	8b c7		 mov	 eax, edi
  0002c	5f		 pop	 edi
  0002d	5e		 pop	 esi

; 1214 : 		}

  0002e	5d		 pop	 ebp
  0002f	c2 0c 00	 ret	 12			; 0000000cH
?erase@?$vector@UStringTick@TutorialWnd@@V?$allocator@UStringTick@TutorialWnd@@@std@@@std@@QAE?AV?$_Vector_iterator@V?$_Vector_val@UStringTick@TutorialWnd@@V?$allocator@UStringTick@TutorialWnd@@@std@@@std@@@2@V?$_Vector_const_iterator@V?$_Vector_val@UStringTick@TutorialWnd@@V?$allocator@UStringTick@TutorialWnd@@@std@@@std@@@2@0@Z ENDP ; std::vector<TutorialWnd::StringTick,std::allocator<TutorialWnd::StringTick> >::erase
_TEXT	ENDS
PUBLIC	?_Tidy@?$vector@UStringTick@TutorialWnd@@V?$allocator@UStringTick@TutorialWnd@@@std@@@std@@IAEXXZ ; std::vector<TutorialWnd::StringTick,std::allocator<TutorialWnd::StringTick> >::_Tidy
EXTRN	__imp_?_Orphan_all@_Container_base0@std@@QAEXXZ:PROC
; Function compile flags: /Ogsp
;	COMDAT ?_Tidy@?$vector@UStringTick@TutorialWnd@@V?$allocator@UStringTick@TutorialWnd@@@std@@@std@@IAEXXZ
_TEXT	SEGMENT
?_Tidy@?$vector@UStringTick@TutorialWnd@@V?$allocator@UStringTick@TutorialWnd@@@std@@@std@@IAEXXZ PROC ; std::vector<TutorialWnd::StringTick,std::allocator<TutorialWnd::StringTick> >::_Tidy, COMDAT
; _this$ = ecx

; 1301 : 		{	// free all storage

  00000	56		 push	 esi
  00001	8b f1		 mov	 esi, ecx

; 1302 : 		if (this->_Myfirst != 0)

  00003	83 3e 00	 cmp	 DWORD PTR [esi], 0
  00006	74 0e		 je	 SHORT $LN21@Tidy@2

; 1303 : 			{	// something to free, destroy and deallocate it
; 1304 : 			this->_Orphan_all();

  00008	ff 15 00 00 00
	00		 call	 DWORD PTR __imp_?_Orphan_all@_Container_base0@std@@QAEXXZ

; 1305 : 			_Destroy(this->_Myfirst, this->_Mylast);
; 1306 : 			this->_Alval.deallocate(this->_Myfirst,
; 1307 : 				this->_Myend - this->_Myfirst);

  0000e	ff 36		 push	 DWORD PTR [esi]
  00010	e8 00 00 00 00	 call	 ??3@YAXPAX@Z		; operator delete
  00015	59		 pop	 ecx
$LN21@Tidy@2:

; 1308 : 			}
; 1309 : 		this->_Myfirst = 0;

  00016	83 26 00	 and	 DWORD PTR [esi], 0

; 1310 : 		this->_Mylast = 0;

  00019	83 66 04 00	 and	 DWORD PTR [esi+4], 0

; 1311 : 		this->_Myend = 0;

  0001d	83 66 08 00	 and	 DWORD PTR [esi+8], 0
  00021	5e		 pop	 esi

; 1312 : 		}

  00022	c3		 ret	 0
?_Tidy@?$vector@UStringTick@TutorialWnd@@V?$allocator@UStringTick@TutorialWnd@@@std@@@std@@IAEXXZ ENDP ; std::vector<TutorialWnd::StringTick,std::allocator<TutorialWnd::StringTick> >::_Tidy
_TEXT	ENDS
PUBLIC	?reserve@?$vector@UStringTick@TutorialWnd@@V?$allocator@UStringTick@TutorialWnd@@@std@@@std@@QAEXI@Z ; std::vector<TutorialWnd::StringTick,std::allocator<TutorialWnd::StringTick> >::reserve
;	COMDAT xdata$x
; File c:\program files (x86)\microsoft visual studio 10.0\vc\include\xmemory
xdata$x	SEGMENT
__catchsym$?reserve@?$vector@UStringTick@TutorialWnd@@V?$allocator@UStringTick@TutorialWnd@@@std@@@std@@QAEXI@Z$2 DD 040H
	DD	00H
	DD	00H
	DD	FLAT:__catch$?reserve@?$vector@UStringTick@TutorialWnd@@V?$allocator@UStringTick@TutorialWnd@@@std@@@std@@QAEXI@Z$0
__unwindtable$?reserve@?$vector@UStringTick@TutorialWnd@@V?$allocator@UStringTick@TutorialWnd@@@std@@@std@@QAEXI@Z DD 0ffffffffH
	DD	00H
	DD	0ffffffffH
	DD	00H
__tryblocktable$?reserve@?$vector@UStringTick@TutorialWnd@@V?$allocator@UStringTick@TutorialWnd@@@std@@@std@@QAEXI@Z DD 00H
	DD	00H
	DD	01H
	DD	01H
	DD	FLAT:__catchsym$?reserve@?$vector@UStringTick@TutorialWnd@@V?$allocator@UStringTick@TutorialWnd@@@std@@@std@@QAEXI@Z$2
__ehfuncinfo$?reserve@?$vector@UStringTick@TutorialWnd@@V?$allocator@UStringTick@TutorialWnd@@@std@@@std@@QAEXI@Z DD 019930522H
	DD	02H
	DD	FLAT:__unwindtable$?reserve@?$vector@UStringTick@TutorialWnd@@V?$allocator@UStringTick@TutorialWnd@@@std@@@std@@QAEXI@Z
	DD	01H
	DD	FLAT:__tryblocktable$?reserve@?$vector@UStringTick@TutorialWnd@@V?$allocator@UStringTick@TutorialWnd@@@std@@@std@@QAEXI@Z
	DD	2 DUP(00H)
	DD	00H
	DD	01H
; Function compile flags: /Ogsp
; File c:\program files (x86)\microsoft visual studio 10.0\vc\include\vector
xdata$x	ENDS
;	COMDAT ?reserve@?$vector@UStringTick@TutorialWnd@@V?$allocator@UStringTick@TutorialWnd@@@std@@@std@@QAEXI@Z
_TEXT	SEGMENT
__$EHRec$ = -16						; size = 16
__Ptr$517905 = 8					; size = 4
__Count$ = 8						; size = 4
?reserve@?$vector@UStringTick@TutorialWnd@@V?$allocator@UStringTick@TutorialWnd@@@std@@@std@@QAEXI@Z PROC ; std::vector<TutorialWnd::StringTick,std::allocator<TutorialWnd::StringTick> >::reserve, COMDAT
; _this$ = ecx

; 746  : 		{	// determine new minimum length of allocated storage

  00000	6a 04		 push	 4
  00002	b8 00 00 00 00	 mov	 eax, __ehhandler$?reserve@?$vector@UStringTick@TutorialWnd@@V?$allocator@UStringTick@TutorialWnd@@@std@@@std@@QAEXI@Z
  00007	e8 00 00 00 00	 call	 __EH_prolog3_catch
  0000c	8b f1		 mov	 esi, ecx

; 747  : 		if (max_size() < _Count)

  0000e	8b 5d 08	 mov	 ebx, DWORD PTR __Count$[ebp]
  00011	81 fb c0 0f fc
	00		 cmp	 ebx, 16519104		; 00fc0fc0H
  00017	76 0b		 jbe	 SHORT $LN5@reserve

; 748  : 			_Xlen();	// result too long

  00019	68 00 00 00 00	 push	 OFFSET ??_C@_0BD@OLBABOEK@vector?$DMT?$DO?5too?5long?$AA@
  0001e	ff 15 00 00 00
	00		 call	 DWORD PTR __imp_?_Xlength_error@std@@YAXPBD@Z
$LN56@reserve:
$LN5@reserve:

; 749  : 		else if (capacity() < _Count)

  00024	8b 46 08	 mov	 eax, DWORD PTR [esi+8]
  00027	2b 06		 sub	 eax, DWORD PTR [esi]
  00029	b9 04 01 00 00	 mov	 ecx, 260		; 00000104H
  0002e	99		 cdq
  0002f	f7 f9		 idiv	 ecx
  00031	3b c3		 cmp	 eax, ebx
  00033	73 76		 jae	 SHORT $LN3@reserve

; 750  : 			{	// not enough room, reallocate
; 751  : 			pointer _Ptr = this->_Alval.allocate(_Count);

  00035	6a 00		 push	 0
  00037	53		 push	 ebx
  00038	e8 00 00 00 00	 call	 ??$_Allocate@UStringTick@TutorialWnd@@@std@@YAPAUStringTick@TutorialWnd@@IPAU12@@Z ; std::_Allocate<TutorialWnd::StringTick>

; 752  : 
; 753  : 			_TRY_BEGIN
; 754  : 			_Umove(this->_Myfirst, this->_Mylast, _Ptr);

  0003d	8b 0e		 mov	 ecx, DWORD PTR [esi]
  0003f	83 65 fc 00	 and	 DWORD PTR __$EHRec$[ebp+12], 0
  00043	8d 56 0c	 lea	 edx, DWORD PTR [esi+12]
  00046	52		 push	 edx
  00047	89 45 08	 mov	 DWORD PTR __Ptr$517905[ebp], eax
  0004a	ff 75 08	 push	 DWORD PTR __Ptr$517905[ebp]
  0004d	8b 46 04	 mov	 eax, DWORD PTR [esi+4]
  00050	50		 push	 eax
  00051	51		 push	 ecx
  00052	e8 00 00 00 00	 call	 ??$_Uninitialized_move@PAUStringTick@TutorialWnd@@PAU12@V?$allocator@UStringTick@TutorialWnd@@@std@@@std@@YAPAUStringTick@TutorialWnd@@PAU12@00AAV?$allocator@UStringTick@TutorialWnd@@@0@@Z ; std::_Uninitialized_move<TutorialWnd::StringTick *,TutorialWnd::StringTick *,std::allocator<TutorialWnd::StringTick> >

; 758  : 			_CATCH_END
; 759  : 
; 760  : 			size_type _Size = size();

  00057	8b 0e		 mov	 ecx, DWORD PTR [esi]
  00059	8b 46 04	 mov	 eax, DWORD PTR [esi+4]
  0005c	2b c1		 sub	 eax, ecx
  0005e	99		 cdq
  0005f	bf 04 01 00 00	 mov	 edi, 260		; 00000104H
  00064	f7 ff		 idiv	 edi
  00066	83 4d fc ff	 or	 DWORD PTR __$EHRec$[ebp+12], -1
  0006a	83 c4 18	 add	 esp, 24			; 00000018H
  0006d	8b f8		 mov	 edi, eax
  0006f	85 c9		 test	 ecx, ecx
  00071	74 15		 je	 SHORT $LN48@reserve

; 761  : 			if (this->_Myfirst != 0)

  00073	eb 06		 jmp	 SHORT $LN55@reserve

; 762  : 				{	// destroy and deallocate old array
; 763  : 				_Destroy(this->_Myfirst, this->_Mylast);

$LL39@reserve:
  00075	81 c1 04 01 00
	00		 add	 ecx, 260		; 00000104H
$LN55@reserve:
  0007b	3b 4e 04	 cmp	 ecx, DWORD PTR [esi+4]
  0007e	75 f5		 jne	 SHORT $LL39@reserve

; 764  : 				this->_Alval.deallocate(this->_Myfirst,
; 765  : 					this->_Myend - this->_Myfirst);

  00080	ff 36		 push	 DWORD PTR [esi]
  00082	e8 00 00 00 00	 call	 ??3@YAXPAX@Z		; operator delete
  00087	59		 pop	 ecx
$LN48@reserve:

; 766  : 				}
; 767  : 
; 768  : 			this->_Orphan_all();

  00088	8b ce		 mov	 ecx, esi
  0008a	ff 15 00 00 00
	00		 call	 DWORD PTR __imp_?_Orphan_all@_Container_base0@std@@QAEXXZ

; 769  : 			this->_Myend = _Ptr + _Count;

  00090	69 db 04 01 00
	00		 imul	 ebx, 260		; 00000104H

; 770  : 			this->_Mylast = _Ptr + _Size;

  00096	69 ff 04 01 00
	00		 imul	 edi, 260		; 00000104H
  0009c	8b 45 08	 mov	 eax, DWORD PTR __Ptr$517905[ebp]
  0009f	03 d8		 add	 ebx, eax
  000a1	03 f8		 add	 edi, eax
  000a3	89 5e 08	 mov	 DWORD PTR [esi+8], ebx
  000a6	89 7e 04	 mov	 DWORD PTR [esi+4], edi

; 771  : 			this->_Myfirst = _Ptr;

  000a9	89 06		 mov	 DWORD PTR [esi], eax
$LN3@reserve:

; 772  : 			}
; 773  : 		}

  000ab	e8 00 00 00 00	 call	 __EH_epilog3
  000b0	c2 04 00	 ret	 4
__catch$?reserve@?$vector@UStringTick@TutorialWnd@@V?$allocator@UStringTick@TutorialWnd@@@std@@@std@@QAEXI@Z$0:

; 755  : 			_CATCH_ALL
; 756  : 			this->_Alval.deallocate(_Ptr, _Count);

  000b3	ff 75 08	 push	 DWORD PTR __Ptr$517905[ebp]
  000b6	e8 00 00 00 00	 call	 ??3@YAXPAX@Z		; operator delete
  000bb	59		 pop	 ecx

; 757  : 			_RERAISE;

  000bc	6a 00		 push	 0
  000be	6a 00		 push	 0
  000c0	e8 00 00 00 00	 call	 __CxxThrowException@8
$LN57@reserve:
$LN54@reserve:
  000c5	cc		 int	 3
_TEXT	ENDS
;	COMDAT text$x
text$x	SEGMENT
__ehhandler$?reserve@?$vector@UStringTick@TutorialWnd@@V?$allocator@UStringTick@TutorialWnd@@@std@@@std@@QAEXI@Z:
  00000	8b 54 24 08	 mov	 edx, DWORD PTR [esp+8]
  00004	8d 42 0c	 lea	 eax, DWORD PTR [edx+12]
  00007	8b 4a ec	 mov	 ecx, DWORD PTR [edx-20]
  0000a	33 c8		 xor	 ecx, eax
  0000c	e8 00 00 00 00	 call	 @__security_check_cookie@4
  00011	b8 00 00 00 00	 mov	 eax, OFFSET __ehfuncinfo$?reserve@?$vector@UStringTick@TutorialWnd@@V?$allocator@UStringTick@TutorialWnd@@@std@@@std@@QAEXI@Z
  00016	e9 00 00 00 00	 jmp	 ___CxxFrameHandler3
text$x	ENDS
?reserve@?$vector@UStringTick@TutorialWnd@@V?$allocator@UStringTick@TutorialWnd@@@std@@@std@@QAEXI@Z ENDP ; std::vector<TutorialWnd::StringTick,std::allocator<TutorialWnd::StringTick> >::reserve
PUBLIC	??$construct@AAV?$basic_string@DU?$char_traits@D@std@@V?$allocator@D@2@@std@@@?$allocator@V?$basic_string@DU?$char_traits@D@std@@V?$allocator@D@2@@std@@@std@@QAEXPAV?$basic_string@DU?$char_traits@D@std@@V?$allocator@D@2@@1@AAV21@@Z ; std::allocator<std::basic_string<char,std::char_traits<char>,std::allocator<char> > >::construct<std::basic_string<char,std::char_traits<char>,std::allocator<char> > &>
;	COMDAT xdata$x
; File c:\program files (x86)\microsoft visual studio 10.0\vc\include\utility
xdata$x	SEGMENT
__unwindtable$??$construct@AAV?$basic_string@DU?$char_traits@D@std@@V?$allocator@D@2@@std@@@?$allocator@V?$basic_string@DU?$char_traits@D@std@@V?$allocator@D@2@@std@@@std@@QAEXPAV?$basic_string@DU?$char_traits@D@std@@V?$allocator@D@2@@1@AAV21@@Z DD 0ffffffffH
	DD	FLAT:__unwindfunclet$??$construct@AAV?$basic_string@DU?$char_traits@D@std@@V?$allocator@D@2@@std@@@?$allocator@V?$basic_string@DU?$char_traits@D@std@@V?$allocator@D@2@@std@@@std@@QAEXPAV?$basic_string@DU?$char_traits@D@std@@V?$allocator@D@2@@1@AAV21@@Z$0
__ehfuncinfo$??$construct@AAV?$basic_string@DU?$char_traits@D@std@@V?$allocator@D@2@@std@@@?$allocator@V?$basic_string@DU?$char_traits@D@std@@V?$allocator@D@2@@std@@@std@@QAEXPAV?$basic_string@DU?$char_traits@D@std@@V?$allocator@D@2@@1@AAV21@@Z DD 019930522H
	DD	01H
	DD	FLAT:__unwindtable$??$construct@AAV?$basic_string@DU?$char_traits@D@std@@V?$allocator@D@2@@std@@@?$allocator@V?$basic_string@DU?$char_traits@D@std@@V?$allocator@D@2@@std@@@std@@QAEXPAV?$basic_string@DU?$char_traits@D@std@@V?$allocator@D@2@@1@AAV21@@Z
	DD	2 DUP(00H)
	DD	2 DUP(00H)
	DD	00H
	DD	01H
; Function compile flags: /Ogsp
; File c:\program files (x86)\microsoft visual studio 10.0\vc\include\xmemory
xdata$x	ENDS
;	COMDAT ??$construct@AAV?$basic_string@DU?$char_traits@D@std@@V?$allocator@D@2@@std@@@?$allocator@V?$basic_string@DU?$char_traits@D@std@@V?$allocator@D@2@@std@@@std@@QAEXPAV?$basic_string@DU?$char_traits@D@std@@V?$allocator@D@2@@1@AAV21@@Z
_TEXT	SEGMENT
$T526436 = -16						; size = 4
__$EHRec$ = -12						; size = 12
__Ptr$ = 8						; size = 4
__Val$ = 12						; size = 4
??$construct@AAV?$basic_string@DU?$char_traits@D@std@@V?$allocator@D@2@@std@@@?$allocator@V?$basic_string@DU?$char_traits@D@std@@V?$allocator@D@2@@std@@@std@@QAEXPAV?$basic_string@DU?$char_traits@D@std@@V?$allocator@D@2@@1@AAV21@@Z PROC ; std::allocator<std::basic_string<char,std::char_traits<char>,std::allocator<char> > >::construct<std::basic_string<char,std::char_traits<char>,std::allocator<char> > &>, COMDAT
; _this$ = ecx

; 206  : 		void construct(pointer _Ptr, _Other&& _Val)

  00000	6a 04		 push	 4
  00002	b8 00 00 00 00	 mov	 eax, __ehhandler$??$construct@AAV?$basic_string@DU?$char_traits@D@std@@V?$allocator@D@2@@std@@@?$allocator@V?$basic_string@DU?$char_traits@D@std@@V?$allocator@D@2@@std@@@std@@QAEXPAV?$basic_string@DU?$char_traits@D@std@@V?$allocator@D@2@@1@AAV21@@Z
  00007	e8 00 00 00 00	 call	 __EH_prolog3

; 207  : 		{	// construct object at _Ptr with value _Val
; 208  : 		::new ((void _FARQ *)_Ptr) _Ty(_STD forward<_Other>(_Val));

  0000c	8b 4d 08	 mov	 ecx, DWORD PTR __Ptr$[ebp]
  0000f	89 4d f0	 mov	 DWORD PTR $T526436[ebp], ecx
  00012	83 65 fc 00	 and	 DWORD PTR __$EHRec$[ebp+8], 0
  00016	85 c9		 test	 ecx, ecx
  00018	74 08		 je	 SHORT $LN3@construct@4
  0001a	ff 75 0c	 push	 DWORD PTR __Val$[ebp]
  0001d	e8 00 00 00 00	 call	 ??0?$basic_string@DU?$char_traits@D@std@@V?$allocator@D@2@@std@@QAE@ABV01@@Z ; std::basic_string<char,std::char_traits<char>,std::allocator<char> >::basic_string<char,std::char_traits<char>,std::allocator<char> >
$LN3@construct@4:

; 209  : 		}

  00022	e8 00 00 00 00	 call	 __EH_epilog3
  00027	c2 08 00	 ret	 8
_TEXT	ENDS
;	COMDAT text$x
text$x	SEGMENT
__unwindfunclet$??$construct@AAV?$basic_string@DU?$char_traits@D@std@@V?$allocator@D@2@@std@@@?$allocator@V?$basic_string@DU?$char_traits@D@std@@V?$allocator@D@2@@std@@@std@@QAEXPAV?$basic_string@DU?$char_traits@D@std@@V?$allocator@D@2@@1@AAV21@@Z$0:
  00000	ff 75 08	 push	 DWORD PTR __Ptr$[ebp]
  00003	ff 75 f0	 push	 DWORD PTR $T526436[ebp]
  00006	e8 00 00 00 00	 call	 ??3@YAXPAX0@Z		; operator delete
  0000b	59		 pop	 ecx
  0000c	59		 pop	 ecx
  0000d	c3		 ret	 0
__ehhandler$??$construct@AAV?$basic_string@DU?$char_traits@D@std@@V?$allocator@D@2@@std@@@?$allocator@V?$basic_string@DU?$char_traits@D@std@@V?$allocator@D@2@@std@@@std@@QAEXPAV?$basic_string@DU?$char_traits@D@std@@V?$allocator@D@2@@1@AAV21@@Z:
  0000e	8b 54 24 08	 mov	 edx, DWORD PTR [esp+8]
  00012	8d 42 0c	 lea	 eax, DWORD PTR [edx+12]
  00015	8b 4a ec	 mov	 ecx, DWORD PTR [edx-20]
  00018	33 c8		 xor	 ecx, eax
  0001a	e8 00 00 00 00	 call	 @__security_check_cookie@4
  0001f	b8 00 00 00 00	 mov	 eax, OFFSET __ehfuncinfo$??$construct@AAV?$basic_string@DU?$char_traits@D@std@@V?$allocator@D@2@@std@@@?$allocator@V?$basic_string@DU?$char_traits@D@std@@V?$allocator@D@2@@std@@@std@@QAEXPAV?$basic_string@DU?$char_traits@D@std@@V?$allocator@D@2@@1@AAV21@@Z
  00024	e9 00 00 00 00	 jmp	 ___CxxFrameHandler3
text$x	ENDS
??$construct@AAV?$basic_string@DU?$char_traits@D@std@@V?$allocator@D@2@@std@@@?$allocator@V?$basic_string@DU?$char_traits@D@std@@V?$allocator@D@2@@std@@@std@@QAEXPAV?$basic_string@DU?$char_traits@D@std@@V?$allocator@D@2@@1@AAV21@@Z ENDP ; std::allocator<std::basic_string<char,std::char_traits<char>,std::allocator<char> > >::construct<std::basic_string<char,std::char_traits<char>,std::allocator<char> > &>
PUBLIC	??0?$basic_string@DU?$char_traits@D@std@@V?$allocator@D@2@@std@@QAE@PBD@Z ; std::basic_string<char,std::char_traits<char>,std::allocator<char> >::basic_string<char,std::char_traits<char>,std::allocator<char> >
; Function compile flags: /Ogsp
; File c:\program files (x86)\microsoft visual studio 10.0\vc\include\xstring
;	COMDAT ??0?$basic_string@DU?$char_traits@D@std@@V?$allocator@D@2@@std@@QAE@PBD@Z
_TEXT	SEGMENT
__Ptr$ = 8						; size = 4
??0?$basic_string@DU?$char_traits@D@std@@V?$allocator@D@2@@std@@QAE@PBD@Z PROC ; std::basic_string<char,std::char_traits<char>,std::allocator<char> >::basic_string<char,std::char_traits<char>,std::allocator<char> >, COMDAT
; _this$ = ecx

; 592  : 		{	// construct from [_Ptr, <null>)

  00000	55		 push	 ebp
  00001	8b ec		 mov	 ebp, esp
  00003	56		 push	 esi

; 593  : 		_Tidy();
; 594  : 		assign(_Ptr);

  00004	ff 75 08	 push	 DWORD PTR __Ptr$[ebp]
  00007	8b f1		 mov	 esi, ecx
  00009	83 66 10 00	 and	 DWORD PTR [esi+16], 0
  0000d	c7 46 14 0f 00
	00 00		 mov	 DWORD PTR [esi+20], 15	; 0000000fH
  00014	c6 06 00	 mov	 BYTE PTR [esi], 0
  00017	e8 00 00 00 00	 call	 ?assign@?$basic_string@DU?$char_traits@D@std@@V?$allocator@D@2@@std@@QAEAAV12@PBD@Z ; std::basic_string<char,std::char_traits<char>,std::allocator<char> >::assign

; 595  : 		}

  0001c	8b c6		 mov	 eax, esi
  0001e	5e		 pop	 esi
  0001f	5d		 pop	 ebp
  00020	c2 04 00	 ret	 4
??0?$basic_string@DU?$char_traits@D@std@@V?$allocator@D@2@@std@@QAE@PBD@Z ENDP ; std::basic_string<char,std::char_traits<char>,std::allocator<char> >::basic_string<char,std::char_traits<char>,std::allocator<char> >
_TEXT	ENDS
PUBLIC	??4?$basic_string@DU?$char_traits@D@std@@V?$allocator@D@2@@std@@QAEAAV01@ABV01@@Z ; std::basic_string<char,std::char_traits<char>,std::allocator<char> >::operator=
; Function compile flags: /Ogsp
;	COMDAT ??4?$basic_string@DU?$char_traits@D@std@@V?$allocator@D@2@@std@@QAEAAV01@ABV01@@Z
_TEXT	SEGMENT
__Right$ = 8						; size = 4
??4?$basic_string@DU?$char_traits@D@std@@V?$allocator@D@2@@std@@QAEAAV01@ABV01@@Z PROC ; std::basic_string<char,std::char_traits<char>,std::allocator<char> >::operator=, COMDAT
; _this$ = ecx

; 763  : 		{	// assign _Right

  00000	55		 push	 ebp
  00001	8b ec		 mov	 ebp, esp

; 764  : 		return (assign(_Right));

  00003	6a ff		 push	 -1
  00005	6a 00		 push	 0
  00007	ff 75 08	 push	 DWORD PTR __Right$[ebp]
  0000a	e8 00 00 00 00	 call	 ?assign@?$basic_string@DU?$char_traits@D@std@@V?$allocator@D@2@@std@@QAEAAV12@ABV12@II@Z ; std::basic_string<char,std::char_traits<char>,std::allocator<char> >::assign

; 765  : 		}

  0000f	5d		 pop	 ebp
  00010	c2 04 00	 ret	 4
??4?$basic_string@DU?$char_traits@D@std@@V?$allocator@D@2@@std@@QAEAAV01@ABV01@@Z ENDP ; std::basic_string<char,std::char_traits<char>,std::allocator<char> >::operator=
_TEXT	ENDS
PUBLIC	?assign@?$basic_string@DU?$char_traits@D@std@@V?$allocator@D@2@@std@@QAEAAV12@$$QAV12@@Z ; std::basic_string<char,std::char_traits<char>,std::allocator<char> >::assign
; Function compile flags: /Ogsp
;	COMDAT ?assign@?$basic_string@DU?$char_traits@D@std@@V?$allocator@D@2@@std@@QAEAAV12@$$QAV12@@Z
_TEXT	SEGMENT
__Right$ = 8						; size = 4
?assign@?$basic_string@DU?$char_traits@D@std@@V?$allocator@D@2@@std@@QAEAAV12@$$QAV12@@Z PROC ; std::basic_string<char,std::char_traits<char>,std::allocator<char> >::assign, COMDAT
; _this$ = ecx

; 713  : 		{	// assign by moving _Right

  00000	55		 push	 ebp
  00001	8b ec		 mov	 ebp, esp
  00003	56		 push	 esi

; 714  : 		if (this == &_Right)

  00004	8b 75 08	 mov	 esi, DWORD PTR __Right$[ebp]
  00007	57		 push	 edi
  00008	8b f9		 mov	 edi, ecx
  0000a	3b fe		 cmp	 edi, esi
  0000c	74 3c		 je	 SHORT $LN3@assign@4

; 715  : 			;
; 716  : 		else if (get_allocator() != _Right.get_allocator()
; 717  : 			&& this->_BUF_SIZE <= _Right._Myres)
; 718  : 			*this = _Right;
; 719  : 		else
; 720  : 			{	// not same, clear this and steal from _Right
; 721  : 			_Tidy(true);

  0000e	6a 00		 push	 0
  00010	6a 01		 push	 1
  00012	e8 00 00 00 00	 call	 ?_Tidy@?$basic_string@DU?$char_traits@D@std@@V?$allocator@D@2@@std@@QAEX_NI@Z ; std::basic_string<char,std::char_traits<char>,std::allocator<char> >::_Tidy

; 722  : 			if (_Right._Myres < this->_BUF_SIZE)

  00017	83 7e 14 10	 cmp	 DWORD PTR [esi+20], 16	; 00000010H
  0001b	73 12		 jae	 SHORT $LN2@assign@4

; 723  : 				_Traits::move(this->_Bx._Buf, _Right._Bx._Buf,
; 724  : 					_Right._Mysize + 1);

  0001d	8b 46 10	 mov	 eax, DWORD PTR [esi+16]
  00020	40		 inc	 eax
  00021	50		 push	 eax
  00022	56		 push	 esi
  00023	57		 push	 edi
  00024	ff 15 00 00 00
	00		 call	 DWORD PTR __imp__memmove
  0002a	83 c4 0c	 add	 esp, 12			; 0000000cH

; 725  : 			else

  0002d	eb 07		 jmp	 SHORT $LN1@assign@4
$LN2@assign@4:

; 726  : 				{	// copy pointer
; 727  : 				this->_Bx._Ptr = _Right._Bx._Ptr;

  0002f	8b 06		 mov	 eax, DWORD PTR [esi]
  00031	89 07		 mov	 DWORD PTR [edi], eax

; 728  : 				_Right._Bx._Ptr = 0;

  00033	83 26 00	 and	 DWORD PTR [esi], 0
$LN1@assign@4:

; 729  : 				}
; 730  : 			this->_Mysize = _Right._Mysize;

  00036	8b 46 10	 mov	 eax, DWORD PTR [esi+16]
  00039	89 47 10	 mov	 DWORD PTR [edi+16], eax

; 731  : 			this->_Myres = _Right._Myres;

  0003c	8b 46 14	 mov	 eax, DWORD PTR [esi+20]
  0003f	89 47 14	 mov	 DWORD PTR [edi+20], eax

; 732  : 
; 733  : 			_Right._Mysize = 0;

  00042	83 66 10 00	 and	 DWORD PTR [esi+16], 0

; 734  : 			_Right._Myres = 0;

  00046	83 66 14 00	 and	 DWORD PTR [esi+20], 0
$LN3@assign@4:

; 735  : 			}
; 736  : 		return (*this);

  0004a	8b c7		 mov	 eax, edi
  0004c	5f		 pop	 edi
  0004d	5e		 pop	 esi

; 737  : 		}

  0004e	5d		 pop	 ebp
  0004f	c2 04 00	 ret	 4
?assign@?$basic_string@DU?$char_traits@D@std@@V?$allocator@D@2@@std@@QAEAAV12@$$QAV12@@Z ENDP ; std::basic_string<char,std::char_traits<char>,std::allocator<char> >::assign
_TEXT	ENDS
PUBLIC	??$_Dest_val@V?$allocator@V?$basic_string@DU?$char_traits@D@std@@V?$allocator@D@2@@std@@@std@@V?$basic_string@DU?$char_traits@D@std@@V?$allocator@D@2@@2@@std@@YAXAAV?$allocator@V?$basic_string@DU?$char_traits@D@std@@V?$allocator@D@2@@std@@@0@PAV?$basic_string@DU?$char_traits@D@std@@V?$allocator@D@2@@0@@Z ; std::_Dest_val<std::allocator<std::basic_string<char,std::char_traits<char>,std::allocator<char> > >,std::basic_string<char,std::char_traits<char>,std::allocator<char> > >
; Function compile flags: /Ogsp
; File c:\program files (x86)\microsoft visual studio 10.0\vc\include\xmemory
;	COMDAT ??$_Dest_val@V?$allocator@V?$basic_string@DU?$char_traits@D@std@@V?$allocator@D@2@@std@@@std@@V?$basic_string@DU?$char_traits@D@std@@V?$allocator@D@2@@2@@std@@YAXAAV?$allocator@V?$basic_string@DU?$char_traits@D@std@@V?$allocator@D@2@@std@@@0@PAV?$basic_string@DU?$char_traits@D@std@@V?$allocator@D@2@@0@@Z
_TEXT	SEGMENT
__Alval$ = 8						; size = 4
__Pdest$ = 12						; size = 4
??$_Dest_val@V?$allocator@V?$basic_string@DU?$char_traits@D@std@@V?$allocator@D@2@@std@@@std@@V?$basic_string@DU?$char_traits@D@std@@V?$allocator@D@2@@2@@std@@YAXAAV?$allocator@V?$basic_string@DU?$char_traits@D@std@@V?$allocator@D@2@@std@@@0@PAV?$basic_string@DU?$char_traits@D@std@@V?$allocator@D@2@@0@@Z PROC ; std::_Dest_val<std::allocator<std::basic_string<char,std::char_traits<char>,std::allocator<char> > >,std::basic_string<char,std::char_traits<char>,std::allocator<char> > >, COMDAT

; 286  : 	{	// destroy using allocator

  00000	55		 push	 ebp
  00001	8b ec		 mov	 ebp, esp

; 287  : 	_Alval.destroy(_Pdest);

  00003	8b 4d 0c	 mov	 ecx, DWORD PTR __Pdest$[ebp]
  00006	6a 00		 push	 0
  00008	6a 01		 push	 1
  0000a	e8 00 00 00 00	 call	 ?_Tidy@?$basic_string@DU?$char_traits@D@std@@V?$allocator@D@2@@std@@QAEX_NI@Z ; std::basic_string<char,std::char_traits<char>,std::allocator<char> >::_Tidy

; 288  : 	}

  0000f	5d		 pop	 ebp
  00010	c3		 ret	 0
??$_Dest_val@V?$allocator@V?$basic_string@DU?$char_traits@D@std@@V?$allocator@D@2@@std@@@std@@V?$basic_string@DU?$char_traits@D@std@@V?$allocator@D@2@@2@@std@@YAXAAV?$allocator@V?$basic_string@DU?$char_traits@D@std@@V?$allocator@D@2@@std@@@0@PAV?$basic_string@DU?$char_traits@D@std@@V?$allocator@D@2@@0@@Z ENDP ; std::_Dest_val<std::allocator<std::basic_string<char,std::char_traits<char>,std::allocator<char> > >,std::basic_string<char,std::char_traits<char>,std::allocator<char> > >
_TEXT	ENDS
PUBLIC	??1?$vector@UStringTick@TutorialWnd@@V?$allocator@UStringTick@TutorialWnd@@@std@@@std@@QAE@XZ ; std::vector<TutorialWnd::StringTick,std::allocator<TutorialWnd::StringTick> >::~vector<TutorialWnd::StringTick,std::allocator<TutorialWnd::StringTick> >
; Function compile flags: /Ogsp
; File c:\program files (x86)\microsoft visual studio 10.0\vc\include\vector
;	COMDAT ??1?$vector@UStringTick@TutorialWnd@@V?$allocator@UStringTick@TutorialWnd@@@std@@@std@@QAE@XZ
_TEXT	SEGMENT
??1?$vector@UStringTick@TutorialWnd@@V?$allocator@UStringTick@TutorialWnd@@@std@@@std@@QAE@XZ PROC ; std::vector<TutorialWnd::StringTick,std::allocator<TutorialWnd::StringTick> >::~vector<TutorialWnd::StringTick,std::allocator<TutorialWnd::StringTick> >, COMDAT
; _this$ = ecx

; 705  : 		_Tidy();

  00000	e9 00 00 00 00	 jmp	 ?_Tidy@?$vector@UStringTick@TutorialWnd@@V?$allocator@UStringTick@TutorialWnd@@@std@@@std@@IAEXXZ ; std::vector<TutorialWnd::StringTick,std::allocator<TutorialWnd::StringTick> >::_Tidy
??1?$vector@UStringTick@TutorialWnd@@V?$allocator@UStringTick@TutorialWnd@@@std@@@std@@QAE@XZ ENDP ; std::vector<TutorialWnd::StringTick,std::allocator<TutorialWnd::StringTick> >::~vector<TutorialWnd::StringTick,std::allocator<TutorialWnd::StringTick> >
_TEXT	ENDS
PUBLIC	?clear@?$vector@UStringTick@TutorialWnd@@V?$allocator@UStringTick@TutorialWnd@@@std@@@std@@QAEXXZ ; std::vector<TutorialWnd::StringTick,std::allocator<TutorialWnd::StringTick> >::clear
; Function compile flags: /Ogsp
;	COMDAT ?clear@?$vector@UStringTick@TutorialWnd@@V?$allocator@UStringTick@TutorialWnd@@@std@@@std@@QAEXXZ
_TEXT	SEGMENT
$T526615 = -4						; size = 4
?clear@?$vector@UStringTick@TutorialWnd@@V?$allocator@UStringTick@TutorialWnd@@@std@@@std@@QAEXXZ PROC ; std::vector<TutorialWnd::StringTick,std::allocator<TutorialWnd::StringTick> >::clear, COMDAT
; _this$ = ecx

; 1217 : 		{	// erase all

  00000	55		 push	 ebp
  00001	8b ec		 mov	 ebp, esp
  00003	51		 push	 ecx

; 1218 : 		erase(begin(), end());

  00004	8b 41 04	 mov	 eax, DWORD PTR [ecx+4]
  00007	8b 11		 mov	 edx, DWORD PTR [ecx]
  00009	50		 push	 eax
  0000a	52		 push	 edx
  0000b	8d 45 fc	 lea	 eax, DWORD PTR $T526615[ebp]
  0000e	50		 push	 eax
  0000f	e8 00 00 00 00	 call	 ?erase@?$vector@UStringTick@TutorialWnd@@V?$allocator@UStringTick@TutorialWnd@@@std@@@std@@QAE?AV?$_Vector_iterator@V?$_Vector_val@UStringTick@TutorialWnd@@V?$allocator@UStringTick@TutorialWnd@@@std@@@std@@@2@V?$_Vector_const_iterator@V?$_Vector_val@UStringTick@TutorialWnd@@V?$allocator@UStringTick@TutorialWnd@@@std@@@std@@@2@0@Z ; std::vector<TutorialWnd::StringTick,std::allocator<TutorialWnd::StringTick> >::erase

; 1219 : 		}

  00014	c9		 leave
  00015	c3		 ret	 0
?clear@?$vector@UStringTick@TutorialWnd@@V?$allocator@UStringTick@TutorialWnd@@@std@@@std@@QAEXXZ ENDP ; std::vector<TutorialWnd::StringTick,std::allocator<TutorialWnd::StringTick> >::clear
_TEXT	ENDS
PUBLIC	?_Reserve@?$vector@UStringTick@TutorialWnd@@V?$allocator@UStringTick@TutorialWnd@@@std@@@std@@IAEXI@Z ; std::vector<TutorialWnd::StringTick,std::allocator<TutorialWnd::StringTick> >::_Reserve
; Function compile flags: /Ogsp
;	COMDAT ?_Reserve@?$vector@UStringTick@TutorialWnd@@V?$allocator@UStringTick@TutorialWnd@@@std@@@std@@IAEXI@Z
_TEXT	SEGMENT
__Count$ = 8						; size = 4
?_Reserve@?$vector@UStringTick@TutorialWnd@@V?$allocator@UStringTick@TutorialWnd@@@std@@@std@@IAEXI@Z PROC ; std::vector<TutorialWnd::StringTick,std::allocator<TutorialWnd::StringTick> >::_Reserve, COMDAT
; _this$ = ecx

; 1290 : 		{	// ensure room for _Count new elements, grow exponentially

  00000	55		 push	 ebp
  00001	8b ec		 mov	 ebp, esp
  00003	53		 push	 ebx
  00004	56		 push	 esi
  00005	8b f1		 mov	 esi, ecx

; 1291 : 		size_type _Size = size();

  00007	8b 46 04	 mov	 eax, DWORD PTR [esi+4]
  0000a	57		 push	 edi
  0000b	8b 3e		 mov	 edi, DWORD PTR [esi]
  0000d	2b c7		 sub	 eax, edi
  0000f	99		 cdq
  00010	b9 04 01 00 00	 mov	 ecx, 260		; 00000104H
  00015	8b d9		 mov	 ebx, ecx
  00017	f7 fb		 idiv	 ebx
  00019	8b d8		 mov	 ebx, eax

; 1292 : 		if (max_size() - _Count < _Size)

  0001b	b8 c0 0f fc 00	 mov	 eax, 16519104		; 00fc0fc0H
  00020	2b 45 08	 sub	 eax, DWORD PTR __Count$[ebp]
  00023	3b c3		 cmp	 eax, ebx
  00025	73 0b		 jae	 SHORT $LN4@Reserve

; 1293 : 			_Xlen();

  00027	68 00 00 00 00	 push	 OFFSET ??_C@_0BD@OLBABOEK@vector?$DMT?$DO?5too?5long?$AA@
  0002c	ff 15 00 00 00
	00		 call	 DWORD PTR __imp_?_Xlength_error@std@@YAXPBD@Z
$LN21@Reserve:
$LN4@Reserve:

; 1294 : 		else if ((_Size += _Count) <= capacity())

  00032	8b 46 08	 mov	 eax, DWORD PTR [esi+8]
  00035	2b c7		 sub	 eax, edi
  00037	99		 cdq
  00038	f7 f9		 idiv	 ecx
  0003a	03 5d 08	 add	 ebx, DWORD PTR __Count$[ebp]
  0003d	3b d8		 cmp	 ebx, eax
  0003f	76 10		 jbe	 SHORT $LN1@Reserve

; 1295 : 			;
; 1296 : 		else
; 1297 : 			reserve(_Grow_to(_Size));

  00041	53		 push	 ebx
  00042	8b ce		 mov	 ecx, esi
  00044	e8 00 00 00 00	 call	 ?_Grow_to@?$vector@UStringTick@TutorialWnd@@V?$allocator@UStringTick@TutorialWnd@@@std@@@std@@IBEII@Z ; std::vector<TutorialWnd::StringTick,std::allocator<TutorialWnd::StringTick> >::_Grow_to
  00049	50		 push	 eax
  0004a	8b ce		 mov	 ecx, esi
  0004c	e8 00 00 00 00	 call	 ?reserve@?$vector@UStringTick@TutorialWnd@@V?$allocator@UStringTick@TutorialWnd@@@std@@@std@@QAEXI@Z ; std::vector<TutorialWnd::StringTick,std::allocator<TutorialWnd::StringTick> >::reserve
$LN1@Reserve:
  00051	5f		 pop	 edi
  00052	5e		 pop	 esi
  00053	5b		 pop	 ebx

; 1298 : 		}

  00054	5d		 pop	 ebp
  00055	c2 04 00	 ret	 4
$LN20@Reserve:
?_Reserve@?$vector@UStringTick@TutorialWnd@@V?$allocator@UStringTick@TutorialWnd@@@std@@@std@@IAEXI@Z ENDP ; std::vector<TutorialWnd::StringTick,std::allocator<TutorialWnd::StringTick> >::_Reserve
_TEXT	ENDS
PUBLIC	??$_Copy_impl@PAV?$basic_string@DU?$char_traits@D@std@@V?$allocator@D@2@@std@@PAV12@@std@@YAPAV?$basic_string@DU?$char_traits@D@std@@V?$allocator@D@2@@0@PAV10@00U_Nonscalar_ptr_iterator_tag@0@@Z ; std::_Copy_impl<std::basic_string<char,std::char_traits<char>,std::allocator<char> > *,std::basic_string<char,std::char_traits<char>,std::allocator<char> > *>
; Function compile flags: /Ogsp
; File c:\program files (x86)\microsoft visual studio 10.0\vc\include\xutility
;	COMDAT ??$_Copy_impl@PAV?$basic_string@DU?$char_traits@D@std@@V?$allocator@D@2@@std@@PAV12@@std@@YAPAV?$basic_string@DU?$char_traits@D@std@@V?$allocator@D@2@@0@PAV10@00U_Nonscalar_ptr_iterator_tag@0@@Z
_TEXT	SEGMENT
__First$ = 8						; size = 4
__Last$ = 12						; size = 4
__Dest$ = 16						; size = 4
___formal$ = 20						; size = 1
??$_Copy_impl@PAV?$basic_string@DU?$char_traits@D@std@@V?$allocator@D@2@@std@@PAV12@@std@@YAPAV?$basic_string@DU?$char_traits@D@std@@V?$allocator@D@2@@0@PAV10@00U_Nonscalar_ptr_iterator_tag@0@@Z PROC ; std::_Copy_impl<std::basic_string<char,std::char_traits<char>,std::allocator<char> > *,std::basic_string<char,std::char_traits<char>,std::allocator<char> > *>, COMDAT

; 2142 : 	{	// copy [_First, _Last) to [_Dest, ...), arbitrary iterators

  00000	55		 push	 ebp
  00001	8b ec		 mov	 ebp, esp
  00003	56		 push	 esi

; 2143 : 	for (; _First != _Last; ++_Dest, ++_First)

  00004	8b 75 08	 mov	 esi, DWORD PTR __First$[ebp]
  00007	eb 14		 jmp	 SHORT $LN13@Copy_impl
$LL3@Copy_impl:

; 2144 : 		*_Dest = *_First;

  00009	8b 4d 10	 mov	 ecx, DWORD PTR __Dest$[ebp]
  0000c	6a ff		 push	 -1
  0000e	6a 00		 push	 0
  00010	56		 push	 esi
  00011	e8 00 00 00 00	 call	 ?assign@?$basic_string@DU?$char_traits@D@std@@V?$allocator@D@2@@std@@QAEAAV12@ABV12@II@Z ; std::basic_string<char,std::char_traits<char>,std::allocator<char> >::assign
  00016	83 45 10 1c	 add	 DWORD PTR __Dest$[ebp], 28 ; 0000001cH
  0001a	83 c6 1c	 add	 esi, 28			; 0000001cH
$LN13@Copy_impl:

; 2143 : 	for (; _First != _Last; ++_Dest, ++_First)

  0001d	3b 75 0c	 cmp	 esi, DWORD PTR __Last$[ebp]
  00020	75 e7		 jne	 SHORT $LL3@Copy_impl

; 2145 : 	return (_Dest);

  00022	8b 45 10	 mov	 eax, DWORD PTR __Dest$[ebp]
  00025	5e		 pop	 esi

; 2146 : 	}

  00026	5d		 pop	 ebp
  00027	c3		 ret	 0
??$_Copy_impl@PAV?$basic_string@DU?$char_traits@D@std@@V?$allocator@D@2@@std@@PAV12@@std@@YAPAV?$basic_string@DU?$char_traits@D@std@@V?$allocator@D@2@@0@PAV10@00U_Nonscalar_ptr_iterator_tag@0@@Z ENDP ; std::_Copy_impl<std::basic_string<char,std::char_traits<char>,std::allocator<char> > *,std::basic_string<char,std::char_traits<char>,std::allocator<char> > *>
_TEXT	ENDS
PUBLIC	??$_Cons_val@V?$allocator@V?$basic_string@DU?$char_traits@D@std@@V?$allocator@D@2@@std@@@std@@V?$basic_string@DU?$char_traits@D@std@@V?$allocator@D@2@@2@AAV32@@std@@YAXAAV?$allocator@V?$basic_string@DU?$char_traits@D@std@@V?$allocator@D@2@@std@@@0@PAV?$basic_string@DU?$char_traits@D@std@@V?$allocator@D@2@@0@AAV20@@Z ; std::_Cons_val<std::allocator<std::basic_string<char,std::char_traits<char>,std::allocator<char> > >,std::basic_string<char,std::char_traits<char>,std::allocator<char> >,std::basic_string<char,std::char_traits<char>,std::allocator<char> > &>
;	COMDAT xdata$x
; File c:\program files (x86)\microsoft visual studio 10.0\vc\include\utility
xdata$x	SEGMENT
__unwindtable$??$_Cons_val@V?$allocator@V?$basic_string@DU?$char_traits@D@std@@V?$allocator@D@2@@std@@@std@@V?$basic_string@DU?$char_traits@D@std@@V?$allocator@D@2@@2@AAV32@@std@@YAXAAV?$allocator@V?$basic_string@DU?$char_traits@D@std@@V?$allocator@D@2@@std@@@0@PAV?$basic_string@DU?$char_traits@D@std@@V?$allocator@D@2@@0@AAV20@@Z DD 0ffffffffH
	DD	FLAT:__unwindfunclet$??$_Cons_val@V?$allocator@V?$basic_string@DU?$char_traits@D@std@@V?$allocator@D@2@@std@@@std@@V?$basic_string@DU?$char_traits@D@std@@V?$allocator@D@2@@2@AAV32@@std@@YAXAAV?$allocator@V?$basic_string@DU?$char_traits@D@std@@V?$allocator@D@2@@std@@@0@PAV?$basic_string@DU?$char_traits@D@std@@V?$allocator@D@2@@0@AAV20@@Z$0
__ehfuncinfo$??$_Cons_val@V?$allocator@V?$basic_string@DU?$char_traits@D@std@@V?$allocator@D@2@@std@@@std@@V?$basic_string@DU?$char_traits@D@std@@V?$allocator@D@2@@2@AAV32@@std@@YAXAAV?$allocator@V?$basic_string@DU?$char_traits@D@std@@V?$allocator@D@2@@std@@@0@PAV?$basic_string@DU?$char_traits@D@std@@V?$allocator@D@2@@0@AAV20@@Z DD 019930522H
	DD	01H
	DD	FLAT:__unwindtable$??$_Cons_val@V?$allocator@V?$basic_string@DU?$char_traits@D@std@@V?$allocator@D@2@@std@@@std@@V?$basic_string@DU?$char_traits@D@std@@V?$allocator@D@2@@2@AAV32@@std@@YAXAAV?$allocator@V?$basic_string@DU?$char_traits@D@std@@V?$allocator@D@2@@std@@@0@PAV?$basic_string@DU?$char_traits@D@std@@V?$allocator@D@2@@0@AAV20@@Z
	DD	2 DUP(00H)
	DD	2 DUP(00H)
	DD	00H
	DD	01H
; Function compile flags: /Ogsp
; File c:\program files (x86)\microsoft visual studio 10.0\vc\include\xmemory
xdata$x	ENDS
;	COMDAT ??$_Cons_val@V?$allocator@V?$basic_string@DU?$char_traits@D@std@@V?$allocator@D@2@@std@@@std@@V?$basic_string@DU?$char_traits@D@std@@V?$allocator@D@2@@2@AAV32@@std@@YAXAAV?$allocator@V?$basic_string@DU?$char_traits@D@std@@V?$allocator@D@2@@std@@@0@PAV?$basic_string@DU?$char_traits@D@std@@V?$allocator@D@2@@0@AAV20@@Z
_TEXT	SEGMENT
$T526729 = -16						; size = 4
__$EHRec$ = -12						; size = 12
__Alval$ = 8						; size = 4
__Pdest$ = 12						; size = 4
__Src$ = 16						; size = 4
??$_Cons_val@V?$allocator@V?$basic_string@DU?$char_traits@D@std@@V?$allocator@D@2@@std@@@std@@V?$basic_string@DU?$char_traits@D@std@@V?$allocator@D@2@@2@AAV32@@std@@YAXAAV?$allocator@V?$basic_string@DU?$char_traits@D@std@@V?$allocator@D@2@@std@@@0@PAV?$basic_string@DU?$char_traits@D@std@@V?$allocator@D@2@@0@AAV20@@Z PROC ; std::_Cons_val<std::allocator<std::basic_string<char,std::char_traits<char>,std::allocator<char> > >,std::basic_string<char,std::char_traits<char>,std::allocator<char> >,std::basic_string<char,std::char_traits<char>,std::allocator<char> > &>, COMDAT

; 279  : 	{	// construct using allocator

  00000	6a 04		 push	 4
  00002	b8 00 00 00 00	 mov	 eax, __ehhandler$??$_Cons_val@V?$allocator@V?$basic_string@DU?$char_traits@D@std@@V?$allocator@D@2@@std@@@std@@V?$basic_string@DU?$char_traits@D@std@@V?$allocator@D@2@@2@AAV32@@std@@YAXAAV?$allocator@V?$basic_string@DU?$char_traits@D@std@@V?$allocator@D@2@@std@@@0@PAV?$basic_string@DU?$char_traits@D@std@@V?$allocator@D@2@@0@AAV20@@Z
  00007	e8 00 00 00 00	 call	 __EH_prolog3

; 280  : 	_Alval.construct(_Pdest, _STD forward<_Ty2>(_Src));

  0000c	8b 4d 0c	 mov	 ecx, DWORD PTR __Pdest$[ebp]
  0000f	89 4d f0	 mov	 DWORD PTR $T526729[ebp], ecx
  00012	83 65 fc 00	 and	 DWORD PTR __$EHRec$[ebp+8], 0
  00016	85 c9		 test	 ecx, ecx
  00018	74 08		 je	 SHORT $LN7@Cons_val@4
  0001a	ff 75 10	 push	 DWORD PTR __Src$[ebp]
  0001d	e8 00 00 00 00	 call	 ??0?$basic_string@DU?$char_traits@D@std@@V?$allocator@D@2@@std@@QAE@ABV01@@Z ; std::basic_string<char,std::char_traits<char>,std::allocator<char> >::basic_string<char,std::char_traits<char>,std::allocator<char> >
$LN7@Cons_val@4:

; 281  : 	}

  00022	e8 00 00 00 00	 call	 __EH_epilog3
  00027	c3		 ret	 0
_TEXT	ENDS
;	COMDAT text$x
text$x	SEGMENT
__unwindfunclet$??$_Cons_val@V?$allocator@V?$basic_string@DU?$char_traits@D@std@@V?$allocator@D@2@@std@@@std@@V?$basic_string@DU?$char_traits@D@std@@V?$allocator@D@2@@2@AAV32@@std@@YAXAAV?$allocator@V?$basic_string@DU?$char_traits@D@std@@V?$allocator@D@2@@std@@@0@PAV?$basic_string@DU?$char_traits@D@std@@V?$allocator@D@2@@0@AAV20@@Z$0:
  00000	ff 75 0c	 push	 DWORD PTR __Pdest$[ebp]
  00003	ff 75 f0	 push	 DWORD PTR $T526729[ebp]
  00006	e8 00 00 00 00	 call	 ??3@YAXPAX0@Z		; operator delete
  0000b	59		 pop	 ecx
  0000c	59		 pop	 ecx
  0000d	c3		 ret	 0
__ehhandler$??$_Cons_val@V?$allocator@V?$basic_string@DU?$char_traits@D@std@@V?$allocator@D@2@@std@@@std@@V?$basic_string@DU?$char_traits@D@std@@V?$allocator@D@2@@2@AAV32@@std@@YAXAAV?$allocator@V?$basic_string@DU?$char_traits@D@std@@V?$allocator@D@2@@std@@@0@PAV?$basic_string@DU?$char_traits@D@std@@V?$allocator@D@2@@0@AAV20@@Z:
  0000e	8b 54 24 08	 mov	 edx, DWORD PTR [esp+8]
  00012	8d 42 0c	 lea	 eax, DWORD PTR [edx+12]
  00015	8b 4a ec	 mov	 ecx, DWORD PTR [edx-20]
  00018	33 c8		 xor	 ecx, eax
  0001a	e8 00 00 00 00	 call	 @__security_check_cookie@4
  0001f	b8 00 00 00 00	 mov	 eax, OFFSET __ehfuncinfo$??$_Cons_val@V?$allocator@V?$basic_string@DU?$char_traits@D@std@@V?$allocator@D@2@@std@@@std@@V?$basic_string@DU?$char_traits@D@std@@V?$allocator@D@2@@2@AAV32@@std@@YAXAAV?$allocator@V?$basic_string@DU?$char_traits@D@std@@V?$allocator@D@2@@std@@@0@PAV?$basic_string@DU?$char_traits@D@std@@V?$allocator@D@2@@0@AAV20@@Z
  00024	e9 00 00 00 00	 jmp	 ___CxxFrameHandler3
text$x	ENDS
??$_Cons_val@V?$allocator@V?$basic_string@DU?$char_traits@D@std@@V?$allocator@D@2@@std@@@std@@V?$basic_string@DU?$char_traits@D@std@@V?$allocator@D@2@@2@AAV32@@std@@YAXAAV?$allocator@V?$basic_string@DU?$char_traits@D@std@@V?$allocator@D@2@@std@@@0@PAV?$basic_string@DU?$char_traits@D@std@@V?$allocator@D@2@@0@AAV20@@Z ENDP ; std::_Cons_val<std::allocator<std::basic_string<char,std::char_traits<char>,std::allocator<char> > >,std::basic_string<char,std::char_traits<char>,std::allocator<char> >,std::basic_string<char,std::char_traits<char>,std::allocator<char> > &>
PUBLIC	??4?$basic_string@DU?$char_traits@D@std@@V?$allocator@D@2@@std@@QAEAAV01@$$QAV01@@Z ; std::basic_string<char,std::char_traits<char>,std::allocator<char> >::operator=
; Function compile flags: /Ogsp
; File c:\program files (x86)\microsoft visual studio 10.0\vc\include\xstring
;	COMDAT ??4?$basic_string@DU?$char_traits@D@std@@V?$allocator@D@2@@std@@QAEAAV01@$$QAV01@@Z
_TEXT	SEGMENT
__Right$ = 8						; size = 4
??4?$basic_string@DU?$char_traits@D@std@@V?$allocator@D@2@@std@@QAEAAV01@$$QAV01@@Z PROC ; std::basic_string<char,std::char_traits<char>,std::allocator<char> >::operator=, COMDAT
; _this$ = ecx

; 708  : 		{	// assign by moving _Right

  00000	55		 push	 ebp
  00001	8b ec		 mov	 ebp, esp

; 710  : 		}

  00003	5d		 pop	 ebp

; 709  : 		return (assign(_STD forward<_Myt>(_Right)));

  00004	e9 00 00 00 00	 jmp	 ?assign@?$basic_string@DU?$char_traits@D@std@@V?$allocator@D@2@@std@@QAEAAV12@$$QAV12@@Z ; std::basic_string<char,std::char_traits<char>,std::allocator<char> >::assign
??4?$basic_string@DU?$char_traits@D@std@@V?$allocator@D@2@@std@@QAEAAV01@$$QAV01@@Z ENDP ; std::basic_string<char,std::char_traits<char>,std::allocator<char> >::operator=
_TEXT	ENDS
PUBLIC	??$_Destroy_range@V?$allocator@V?$basic_string@DU?$char_traits@D@std@@V?$allocator@D@2@@std@@@std@@@std@@YAXPAV?$basic_string@DU?$char_traits@D@std@@V?$allocator@D@2@@0@0AAV?$allocator@V?$basic_string@DU?$char_traits@D@std@@V?$allocator@D@2@@std@@@0@U_Nonscalar_ptr_iterator_tag@0@@Z ; std::_Destroy_range<std::allocator<std::basic_string<char,std::char_traits<char>,std::allocator<char> > > >
; Function compile flags: /Ogsp
; File c:\program files (x86)\microsoft visual studio 10.0\vc\include\xmemory
;	COMDAT ??$_Destroy_range@V?$allocator@V?$basic_string@DU?$char_traits@D@std@@V?$allocator@D@2@@std@@@std@@@std@@YAXPAV?$basic_string@DU?$char_traits@D@std@@V?$allocator@D@2@@0@0AAV?$allocator@V?$basic_string@DU?$char_traits@D@std@@V?$allocator@D@2@@std@@@0@U_Nonscalar_ptr_iterator_tag@0@@Z
_TEXT	SEGMENT
__First$ = 8						; size = 4
__Last$ = 12						; size = 4
__Al$ = 16						; size = 4
___formal$ = 20						; size = 1
??$_Destroy_range@V?$allocator@V?$basic_string@DU?$char_traits@D@std@@V?$allocator@D@2@@std@@@std@@@std@@YAXPAV?$basic_string@DU?$char_traits@D@std@@V?$allocator@D@2@@0@0AAV?$allocator@V?$basic_string@DU?$char_traits@D@std@@V?$allocator@D@2@@std@@@0@U_Nonscalar_ptr_iterator_tag@0@@Z PROC ; std::_Destroy_range<std::allocator<std::basic_string<char,std::char_traits<char>,std::allocator<char> > > >, COMDAT

; 95   : 	{	// destroy [_First, _Last), arbitrary type

  00000	55		 push	 ebp
  00001	8b ec		 mov	 ebp, esp
  00003	56		 push	 esi

; 96   : 	for (; _First != _Last; ++_First)

  00004	8b 75 08	 mov	 esi, DWORD PTR __First$[ebp]
  00007	eb 0e		 jmp	 SHORT $LN21@Destroy_ra
$LL3@Destroy_ra:

; 97   : 		_Dest_val(_Al, _First);

  00009	6a 00		 push	 0
  0000b	6a 01		 push	 1
  0000d	8b ce		 mov	 ecx, esi
  0000f	e8 00 00 00 00	 call	 ?_Tidy@?$basic_string@DU?$char_traits@D@std@@V?$allocator@D@2@@std@@QAEX_NI@Z ; std::basic_string<char,std::char_traits<char>,std::allocator<char> >::_Tidy
  00014	83 c6 1c	 add	 esi, 28			; 0000001cH
$LN21@Destroy_ra:

; 96   : 	for (; _First != _Last; ++_First)

  00017	3b 75 0c	 cmp	 esi, DWORD PTR __Last$[ebp]
  0001a	75 ed		 jne	 SHORT $LL3@Destroy_ra
  0001c	5e		 pop	 esi

; 98   : 	}

  0001d	5d		 pop	 ebp
  0001e	c3		 ret	 0
??$_Destroy_range@V?$allocator@V?$basic_string@DU?$char_traits@D@std@@V?$allocator@D@2@@std@@@std@@@std@@YAXPAV?$basic_string@DU?$char_traits@D@std@@V?$allocator@D@2@@0@0AAV?$allocator@V?$basic_string@DU?$char_traits@D@std@@V?$allocator@D@2@@std@@@0@U_Nonscalar_ptr_iterator_tag@0@@Z ENDP ; std::_Destroy_range<std::allocator<std::basic_string<char,std::char_traits<char>,std::allocator<char> > > >
_TEXT	ENDS
PUBLIC	?push_back@?$vector@UStringTick@TutorialWnd@@V?$allocator@UStringTick@TutorialWnd@@@std@@@std@@QAEXABUStringTick@TutorialWnd@@@Z ; std::vector<TutorialWnd::StringTick,std::allocator<TutorialWnd::StringTick> >::push_back
; Function compile flags: /Ogsp
; File c:\program files (x86)\microsoft visual studio 10.0\vc\include\vector
;	COMDAT ?push_back@?$vector@UStringTick@TutorialWnd@@V?$allocator@UStringTick@TutorialWnd@@@std@@@std@@QAEXABUStringTick@TutorialWnd@@@Z
_TEXT	SEGMENT
__Val$ = 8						; size = 4
?push_back@?$vector@UStringTick@TutorialWnd@@V?$allocator@UStringTick@TutorialWnd@@@std@@@std@@QAEXABUStringTick@TutorialWnd@@@Z PROC ; std::vector<TutorialWnd::StringTick,std::allocator<TutorialWnd::StringTick> >::push_back, COMDAT
; _this$ = ecx

; 976  : 		{	// insert element at end

  00000	55		 push	 ebp
  00001	8b ec		 mov	 ebp, esp
  00003	56		 push	 esi
  00004	8b f1		 mov	 esi, ecx

; 977  : 		if (_Inside(_STD addressof(_Val)))

  00006	8b 4e 04	 mov	 ecx, DWORD PTR [esi+4]
  00009	57		 push	 edi
  0000a	8b 7d 08	 mov	 edi, DWORD PTR __Val$[ebp]
  0000d	3b f9		 cmp	 edi, ecx
  0000f	73 39		 jae	 SHORT $LN4@push_back@2
  00011	8b 16		 mov	 edx, DWORD PTR [esi]
  00013	3b d7		 cmp	 edx, edi
  00015	77 33		 ja	 SHORT $LN4@push_back@2

; 978  : 			{	// push back an element
; 979  : 			size_type _Idx = _STD addressof(_Val) - this->_Myfirst;

  00017	8b c7		 mov	 eax, edi
  00019	2b c2		 sub	 eax, edx
  0001b	99		 cdq
  0001c	bf 04 01 00 00	 mov	 edi, 260		; 00000104H
  00021	f7 ff		 idiv	 edi
  00023	8b f8		 mov	 edi, eax

; 980  : 			if (this->_Mylast == this->_Myend)

  00025	3b 4e 08	 cmp	 ecx, DWORD PTR [esi+8]
  00028	75 09		 jne	 SHORT $LN3@push_back@2

; 981  : 				_Reserve(1);

  0002a	6a 01		 push	 1
  0002c	8b ce		 mov	 ecx, esi
  0002e	e8 00 00 00 00	 call	 ?_Reserve@?$vector@UStringTick@TutorialWnd@@V?$allocator@UStringTick@TutorialWnd@@@std@@@std@@IAEXI@Z ; std::vector<TutorialWnd::StringTick,std::allocator<TutorialWnd::StringTick> >::_Reserve
$LN3@push_back@2:

; 982  : 			_Orphan_range(this->_Mylast, this->_Mylast);
; 983  : 			_Cons_val(this->_Alval,
; 984  : 				this->_Mylast,
; 985  : 				this->_Myfirst[_Idx]);

  00033	69 ff 04 01 00
	00		 imul	 edi, 260		; 00000104H
  00039	03 3e		 add	 edi, DWORD PTR [esi]
  0003b	8d 46 0c	 lea	 eax, DWORD PTR [esi+12]
  0003e	57		 push	 edi
  0003f	ff 76 04	 push	 DWORD PTR [esi+4]
  00042	50		 push	 eax
  00043	e8 00 00 00 00	 call	 ??$_Cons_val@V?$allocator@UStringTick@TutorialWnd@@@std@@UStringTick@TutorialWnd@@AAU34@@std@@YAXAAV?$allocator@UStringTick@TutorialWnd@@@0@PAUStringTick@TutorialWnd@@AAU23@@Z ; std::_Cons_val<std::allocator<TutorialWnd::StringTick>,TutorialWnd::StringTick,TutorialWnd::StringTick &>

; 986  : 			++this->_Mylast;
; 987  : 			}
; 988  : 		else

  00048	eb 1b		 jmp	 SHORT $LN20@push_back@2
$LN4@push_back@2:

; 989  : 			{	// push back a non-element
; 990  : 			if (this->_Mylast == this->_Myend)

  0004a	3b 4e 08	 cmp	 ecx, DWORD PTR [esi+8]
  0004d	75 09		 jne	 SHORT $LN1@push_back@2

; 991  : 				_Reserve(1);

  0004f	6a 01		 push	 1
  00051	8b ce		 mov	 ecx, esi
  00053	e8 00 00 00 00	 call	 ?_Reserve@?$vector@UStringTick@TutorialWnd@@V?$allocator@UStringTick@TutorialWnd@@@std@@@std@@IAEXI@Z ; std::vector<TutorialWnd::StringTick,std::allocator<TutorialWnd::StringTick> >::_Reserve
$LN1@push_back@2:

; 992  : 			_Orphan_range(this->_Mylast, this->_Mylast);
; 993  : 			_Cons_val(this->_Alval,
; 994  : 				this->_Mylast,
; 995  : 				_Val);

  00058	57		 push	 edi
  00059	ff 76 04	 push	 DWORD PTR [esi+4]
  0005c	8d 46 0c	 lea	 eax, DWORD PTR [esi+12]
  0005f	50		 push	 eax
  00060	e8 00 00 00 00	 call	 ??$_Cons_val@V?$allocator@UStringTick@TutorialWnd@@@std@@UStringTick@TutorialWnd@@ABU34@@std@@YAXAAV?$allocator@UStringTick@TutorialWnd@@@0@PAUStringTick@TutorialWnd@@ABU23@@Z ; std::_Cons_val<std::allocator<TutorialWnd::StringTick>,TutorialWnd::StringTick,TutorialWnd::StringTick const &>
$LN20@push_back@2:
  00065	83 c4 0c	 add	 esp, 12			; 0000000cH

; 996  : 			++this->_Mylast;

  00068	81 46 04 04 01
	00 00		 add	 DWORD PTR [esi+4], 260	; 00000104H
  0006f	5f		 pop	 edi
  00070	5e		 pop	 esi

; 997  : 			}
; 998  : 		}

  00071	5d		 pop	 ebp
  00072	c2 04 00	 ret	 4
?push_back@?$vector@UStringTick@TutorialWnd@@V?$allocator@UStringTick@TutorialWnd@@@std@@@std@@QAEXABUStringTick@TutorialWnd@@@Z ENDP ; std::vector<TutorialWnd::StringTick,std::allocator<TutorialWnd::StringTick> >::push_back
_TEXT	ENDS
PUBLIC	??$_Copy_impl@PAV?$basic_string@DU?$char_traits@D@std@@V?$allocator@D@2@@std@@PAV12@@std@@YAPAV?$basic_string@DU?$char_traits@D@std@@V?$allocator@D@2@@0@PAV10@00@Z ; std::_Copy_impl<std::basic_string<char,std::char_traits<char>,std::allocator<char> > *,std::basic_string<char,std::char_traits<char>,std::allocator<char> > *>
; Function compile flags: /Ogsp
; File c:\program files (x86)\microsoft visual studio 10.0\vc\include\xutility
;	COMDAT ??$_Copy_impl@PAV?$basic_string@DU?$char_traits@D@std@@V?$allocator@D@2@@std@@PAV12@@std@@YAPAV?$basic_string@DU?$char_traits@D@std@@V?$allocator@D@2@@0@PAV10@00@Z
_TEXT	SEGMENT
__Cat$526835 = -4					; size = 1
__First$ = 8						; size = 4
__Last$ = 12						; size = 4
__Dest$ = 16						; size = 4
??$_Copy_impl@PAV?$basic_string@DU?$char_traits@D@std@@V?$allocator@D@2@@std@@PAV12@@std@@YAPAV?$basic_string@DU?$char_traits@D@std@@V?$allocator@D@2@@0@PAV10@00@Z PROC ; std::_Copy_impl<std::basic_string<char,std::char_traits<char>,std::allocator<char> > *,std::basic_string<char,std::char_traits<char>,std::allocator<char> > *>, COMDAT

; 2163 : 	{	// copy [_First, _Last) to [_Dest, ...)

  00000	55		 push	 ebp
  00001	8b ec		 mov	 ebp, esp
  00003	51		 push	 ecx

; 2164 : 	return (_Copy_impl(_First, _Last,
; 2165 : 		_Dest, _Ptr_cat(_First, _Dest)));

  00004	ff 75 fc	 push	 DWORD PTR __Cat$526835[ebp]
  00007	ff 75 10	 push	 DWORD PTR __Dest$[ebp]
  0000a	ff 75 0c	 push	 DWORD PTR __Last$[ebp]
  0000d	ff 75 08	 push	 DWORD PTR __First$[ebp]
  00010	e8 00 00 00 00	 call	 ??$_Copy_impl@PAV?$basic_string@DU?$char_traits@D@std@@V?$allocator@D@2@@std@@PAV12@@std@@YAPAV?$basic_string@DU?$char_traits@D@std@@V?$allocator@D@2@@0@PAV10@00U_Nonscalar_ptr_iterator_tag@0@@Z ; std::_Copy_impl<std::basic_string<char,std::char_traits<char>,std::allocator<char> > *,std::basic_string<char,std::char_traits<char>,std::allocator<char> > *>
  00015	83 c4 10	 add	 esp, 16			; 00000010H

; 2166 : 	}

  00018	c9		 leave
  00019	c3		 ret	 0
??$_Copy_impl@PAV?$basic_string@DU?$char_traits@D@std@@V?$allocator@D@2@@std@@PAV12@@std@@YAPAV?$basic_string@DU?$char_traits@D@std@@V?$allocator@D@2@@0@PAV10@00@Z ENDP ; std::_Copy_impl<std::basic_string<char,std::char_traits<char>,std::allocator<char> > *,std::basic_string<char,std::char_traits<char>,std::allocator<char> > *>
_TEXT	ENDS
PUBLIC	??$_Move@PAV?$basic_string@DU?$char_traits@D@std@@V?$allocator@D@2@@std@@PAV12@@std@@YAPAV?$basic_string@DU?$char_traits@D@std@@V?$allocator@D@2@@0@PAV10@00U_Nonscalar_ptr_iterator_tag@0@@Z ; std::_Move<std::basic_string<char,std::char_traits<char>,std::allocator<char> > *,std::basic_string<char,std::char_traits<char>,std::allocator<char> > *>
; Function compile flags: /Ogsp
;	COMDAT ??$_Move@PAV?$basic_string@DU?$char_traits@D@std@@V?$allocator@D@2@@std@@PAV12@@std@@YAPAV?$basic_string@DU?$char_traits@D@std@@V?$allocator@D@2@@0@PAV10@00U_Nonscalar_ptr_iterator_tag@0@@Z
_TEXT	SEGMENT
__First$ = 8						; size = 4
__Last$ = 12						; size = 4
__Dest$ = 16						; size = 4
___formal$ = 20						; size = 1
??$_Move@PAV?$basic_string@DU?$char_traits@D@std@@V?$allocator@D@2@@std@@PAV12@@std@@YAPAV?$basic_string@DU?$char_traits@D@std@@V?$allocator@D@2@@0@PAV10@00U_Nonscalar_ptr_iterator_tag@0@@Z PROC ; std::_Move<std::basic_string<char,std::char_traits<char>,std::allocator<char> > *,std::basic_string<char,std::char_traits<char>,std::allocator<char> > *>, COMDAT

; 2512 : 	{	// move [_First, _Last) to [_Dest, ...), arbitrary iterators

  00000	55		 push	 ebp
  00001	8b ec		 mov	 ebp, esp
  00003	56		 push	 esi

; 2513 : 	for (; _First != _Last; ++_Dest, ++_First)

  00004	8b 75 08	 mov	 esi, DWORD PTR __First$[ebp]
  00007	eb 10		 jmp	 SHORT $LN15@Move@2
$LL3@Move@2:

; 2514 : 		*_Dest = _STD move(*_First);

  00009	8b 4d 10	 mov	 ecx, DWORD PTR __Dest$[ebp]
  0000c	56		 push	 esi
  0000d	e8 00 00 00 00	 call	 ?assign@?$basic_string@DU?$char_traits@D@std@@V?$allocator@D@2@@std@@QAEAAV12@$$QAV12@@Z ; std::basic_string<char,std::char_traits<char>,std::allocator<char> >::assign
  00012	83 45 10 1c	 add	 DWORD PTR __Dest$[ebp], 28 ; 0000001cH
  00016	83 c6 1c	 add	 esi, 28			; 0000001cH
$LN15@Move@2:

; 2513 : 	for (; _First != _Last; ++_Dest, ++_First)

  00019	3b 75 0c	 cmp	 esi, DWORD PTR __Last$[ebp]
  0001c	75 eb		 jne	 SHORT $LL3@Move@2

; 2515 : 	return (_Dest);

  0001e	8b 45 10	 mov	 eax, DWORD PTR __Dest$[ebp]
  00021	5e		 pop	 esi

; 2516 : 	}

  00022	5d		 pop	 ebp
  00023	c3		 ret	 0
??$_Move@PAV?$basic_string@DU?$char_traits@D@std@@V?$allocator@D@2@@std@@PAV12@@std@@YAPAV?$basic_string@DU?$char_traits@D@std@@V?$allocator@D@2@@0@PAV10@00U_Nonscalar_ptr_iterator_tag@0@@Z ENDP ; std::_Move<std::basic_string<char,std::char_traits<char>,std::allocator<char> > *,std::basic_string<char,std::char_traits<char>,std::allocator<char> > *>
_TEXT	ENDS
PUBLIC	??$_Uninit_copy@PAV?$basic_string@DU?$char_traits@D@std@@V?$allocator@D@2@@std@@PAV12@V?$allocator@V?$basic_string@DU?$char_traits@D@std@@V?$allocator@D@2@@std@@@2@@std@@YAPAV?$basic_string@DU?$char_traits@D@std@@V?$allocator@D@2@@0@PAV10@00AAV?$allocator@V?$basic_string@DU?$char_traits@D@std@@V?$allocator@D@2@@std@@@0@U_Nonscalar_ptr_iterator_tag@0@@Z ; std::_Uninit_copy<std::basic_string<char,std::char_traits<char>,std::allocator<char> > *,std::basic_string<char,std::char_traits<char>,std::allocator<char> > *,std::allocator<std::basic_string<char,std::char_traits<char>,std::allocator<char> > > >
;	COMDAT xdata$x
; File c:\program files (x86)\microsoft visual studio 10.0\vc\include\xstring
xdata$x	SEGMENT
__catchsym$??$_Uninit_copy@PAV?$basic_string@DU?$char_traits@D@std@@V?$allocator@D@2@@std@@PAV12@V?$allocator@V?$basic_string@DU?$char_traits@D@std@@V?$allocator@D@2@@std@@@2@@std@@YAPAV?$basic_string@DU?$char_traits@D@std@@V?$allocator@D@2@@0@PAV10@00AAV?$allocator@V?$basic_string@DU?$char_traits@D@std@@V?$allocator@D@2@@std@@@0@U_Nonscalar_ptr_iterator_tag@0@@Z$2 DD 040H
	DD	00H
	DD	00H
	DD	FLAT:__catch$??$_Uninit_copy@PAV?$basic_string@DU?$char_traits@D@std@@V?$allocator@D@2@@std@@PAV12@V?$allocator@V?$basic_string@DU?$char_traits@D@std@@V?$allocator@D@2@@std@@@2@@std@@YAPAV?$basic_string@DU?$char_traits@D@std@@V?$allocator@D@2@@0@PAV10@00AAV?$allocator@V?$basic_string@DU?$char_traits@D@std@@V?$allocator@D@2@@std@@@0@U_Nonscalar_ptr_iterator_tag@0@@Z$0
__unwindtable$??$_Uninit_copy@PAV?$basic_string@DU?$char_traits@D@std@@V?$allocator@D@2@@std@@PAV12@V?$allocator@V?$basic_string@DU?$char_traits@D@std@@V?$allocator@D@2@@std@@@2@@std@@YAPAV?$basic_string@DU?$char_traits@D@std@@V?$allocator@D@2@@0@PAV10@00AAV?$allocator@V?$basic_string@DU?$char_traits@D@std@@V?$allocator@D@2@@std@@@0@U_Nonscalar_ptr_iterator_tag@0@@Z DD 0ffffffffH
	DD	00H
	DD	0ffffffffH
	DD	00H
__tryblocktable$??$_Uninit_copy@PAV?$basic_string@DU?$char_traits@D@std@@V?$allocator@D@2@@std@@PAV12@V?$allocator@V?$basic_string@DU?$char_traits@D@std@@V?$allocator@D@2@@std@@@2@@std@@YAPAV?$basic_string@DU?$char_traits@D@std@@V?$allocator@D@2@@0@PAV10@00AAV?$allocator@V?$basic_string@DU?$char_traits@D@std@@V?$allocator@D@2@@std@@@0@U_Nonscalar_ptr_iterator_tag@0@@Z DD 00H
	DD	00H
	DD	01H
	DD	01H
	DD	FLAT:__catchsym$??$_Uninit_copy@PAV?$basic_string@DU?$char_traits@D@std@@V?$allocator@D@2@@std@@PAV12@V?$allocator@V?$basic_string@DU?$char_traits@D@std@@V?$allocator@D@2@@std@@@2@@std@@YAPAV?$basic_string@DU?$char_traits@D@std@@V?$allocator@D@2@@0@PAV10@00AAV?$allocator@V?$basic_string@DU?$char_traits@D@std@@V?$allocator@D@2@@std@@@0@U_Nonscalar_ptr_iterator_tag@0@@Z$2
__ehfuncinfo$??$_Uninit_copy@PAV?$basic_string@DU?$char_traits@D@std@@V?$allocator@D@2@@std@@PAV12@V?$allocator@V?$basic_string@DU?$char_traits@D@std@@V?$allocator@D@2@@std@@@2@@std@@YAPAV?$basic_string@DU?$char_traits@D@std@@V?$allocator@D@2@@0@PAV10@00AAV?$allocator@V?$basic_string@DU?$char_traits@D@std@@V?$allocator@D@2@@std@@@0@U_Nonscalar_ptr_iterator_tag@0@@Z DD 019930522H
	DD	02H
	DD	FLAT:__unwindtable$??$_Uninit_copy@PAV?$basic_string@DU?$char_traits@D@std@@V?$allocator@D@2@@std@@PAV12@V?$allocator@V?$basic_string@DU?$char_traits@D@std@@V?$allocator@D@2@@std@@@2@@std@@YAPAV?$basic_string@DU?$char_traits@D@std@@V?$allocator@D@2@@0@PAV10@00AAV?$allocator@V?$basic_string@DU?$char_traits@D@std@@V?$allocator@D@2@@std@@@0@U_Nonscalar_ptr_iterator_tag@0@@Z
	DD	01H
	DD	FLAT:__tryblocktable$??$_Uninit_copy@PAV?$basic_string@DU?$char_traits@D@std@@V?$allocator@D@2@@std@@PAV12@V?$allocator@V?$basic_string@DU?$char_traits@D@std@@V?$allocator@D@2@@std@@@2@@std@@YAPAV?$basic_string@DU?$char_traits@D@std@@V?$allocator@D@2@@0@PAV10@00AAV?$allocator@V?$basic_string@DU?$char_traits@D@std@@V?$allocator@D@2@@std@@@0@U_Nonscalar_ptr_iterator_tag@0@@Z
	DD	2 DUP(00H)
	DD	00H
	DD	01H
; Function compile flags: /Ogsp
; File c:\program files (x86)\microsoft visual studio 10.0\vc\include\memory
xdata$x	ENDS
;	COMDAT ??$_Uninit_copy@PAV?$basic_string@DU?$char_traits@D@std@@V?$allocator@D@2@@std@@PAV12@V?$allocator@V?$basic_string@DU?$char_traits@D@std@@V?$allocator@D@2@@std@@@2@@std@@YAPAV?$basic_string@DU?$char_traits@D@std@@V?$allocator@D@2@@0@PAV10@00AAV?$allocator@V?$basic_string@DU?$char_traits@D@std@@V?$allocator@D@2@@std@@@0@U_Nonscalar_ptr_iterator_tag@0@@Z
_TEXT	SEGMENT
__Next$ = -20						; size = 4
__$EHRec$ = -16						; size = 16
__First$ = 8						; size = 4
__Last$ = 12						; size = 4
__Dest$ = 16						; size = 4
__Al$ = 20						; size = 4
___formal$ = 24						; size = 1
??$_Uninit_copy@PAV?$basic_string@DU?$char_traits@D@std@@V?$allocator@D@2@@std@@PAV12@V?$allocator@V?$basic_string@DU?$char_traits@D@std@@V?$allocator@D@2@@std@@@2@@std@@YAPAV?$basic_string@DU?$char_traits@D@std@@V?$allocator@D@2@@0@PAV10@00AAV?$allocator@V?$basic_string@DU?$char_traits@D@std@@V?$allocator@D@2@@std@@@0@U_Nonscalar_ptr_iterator_tag@0@@Z PROC ; std::_Uninit_copy<std::basic_string<char,std::char_traits<char>,std::allocator<char> > *,std::basic_string<char,std::char_traits<char>,std::allocator<char> > *,std::allocator<std::basic_string<char,std::char_traits<char>,std::allocator<char> > > >, COMDAT

; 369  : 	{	// copy [_First, _Last) to raw _Dest, using _Al, arbitrary type

  00000	6a 08		 push	 8
  00002	b8 00 00 00 00	 mov	 eax, __ehhandler$??$_Uninit_copy@PAV?$basic_string@DU?$char_traits@D@std@@V?$allocator@D@2@@std@@PAV12@V?$allocator@V?$basic_string@DU?$char_traits@D@std@@V?$allocator@D@2@@std@@@2@@std@@YAPAV?$basic_string@DU?$char_traits@D@std@@V?$allocator@D@2@@0@PAV10@00AAV?$allocator@V?$basic_string@DU?$char_traits@D@std@@V?$allocator@D@2@@std@@@0@U_Nonscalar_ptr_iterator_tag@0@@Z
  00007	e8 00 00 00 00	 call	 __EH_prolog3_catch

; 370  : 	_DEBUG_RANGE(_First, _Last);
; 371  : 	_DEBUG_POINTER(_Dest);
; 372  : 	_FwdIt _Next = _Dest;

  0000c	8b 45 10	 mov	 eax, DWORD PTR __Dest$[ebp]

; 373  : 
; 374  : 	_TRY_BEGIN

  0000f	83 65 fc 00	 and	 DWORD PTR __$EHRec$[ebp+12], 0
  00013	8b 75 08	 mov	 esi, DWORD PTR __First$[ebp]
  00016	89 45 ec	 mov	 DWORD PTR __Next$[ebp], eax
$LL6@Uninit_cop:

; 375  : 	for (; _First != _Last; ++_Dest, ++_First)

  00019	3b 75 0c	 cmp	 esi, DWORD PTR __Last$[ebp]
  0001c	74 37		 je	 SHORT $LN4@Uninit_cop

; 376  : 		_Cons_val(_Al, _Dest, *_First);

  0001e	56		 push	 esi
  0001f	ff 75 10	 push	 DWORD PTR __Dest$[ebp]
  00022	ff 75 14	 push	 DWORD PTR __Al$[ebp]
  00025	e8 00 00 00 00	 call	 ??$_Cons_val@V?$allocator@V?$basic_string@DU?$char_traits@D@std@@V?$allocator@D@2@@std@@@std@@V?$basic_string@DU?$char_traits@D@std@@V?$allocator@D@2@@2@AAV32@@std@@YAXAAV?$allocator@V?$basic_string@DU?$char_traits@D@std@@V?$allocator@D@2@@std@@@0@PAV?$basic_string@DU?$char_traits@D@std@@V?$allocator@D@2@@0@AAV20@@Z ; std::_Cons_val<std::allocator<std::basic_string<char,std::char_traits<char>,std::allocator<char> > >,std::basic_string<char,std::char_traits<char>,std::allocator<char> >,std::basic_string<char,std::char_traits<char>,std::allocator<char> > &>
  0002a	83 45 10 1c	 add	 DWORD PTR __Dest$[ebp], 28 ; 0000001cH
  0002e	83 c4 0c	 add	 esp, 12			; 0000000cH
  00031	83 c6 1c	 add	 esi, 28			; 0000001cH
  00034	eb e3		 jmp	 SHORT $LL6@Uninit_cop
__catch$??$_Uninit_copy@PAV?$basic_string@DU?$char_traits@D@std@@V?$allocator@D@2@@std@@PAV12@V?$allocator@V?$basic_string@DU?$char_traits@D@std@@V?$allocator@D@2@@std@@@2@@std@@YAPAV?$basic_string@DU?$char_traits@D@std@@V?$allocator@D@2@@0@PAV10@00AAV?$allocator@V?$basic_string@DU?$char_traits@D@std@@V?$allocator@D@2@@std@@@0@U_Nonscalar_ptr_iterator_tag@0@@Z$0:

; 377  : 	_CATCH_ALL
; 378  : 	for (; _Next != _Dest; ++_Next)

  00036	8b 75 ec	 mov	 esi, DWORD PTR __Next$[ebp]
  00039	eb 0c		 jmp	 SHORT $LN34@Uninit_cop
$LL3@Uninit_cop:

; 379  : 		_Dest_val(_Al, _Next);

  0003b	6a 01		 push	 1
  0003d	8b ce		 mov	 ecx, esi
  0003f	e8 00 00 00 00	 call	 ?_Tidy@?$basic_string@DU?$char_traits@D@std@@V?$allocator@D@2@@std@@QAEX_NI@Z ; std::basic_string<char,std::char_traits<char>,std::allocator<char> >::_Tidy
  00044	83 c6 1c	 add	 esi, 28			; 0000001cH
$LN34@Uninit_cop:

; 380  : 	_RERAISE;

  00047	6a 00		 push	 0
  00049	3b 75 10	 cmp	 esi, DWORD PTR __Dest$[ebp]
  0004c	75 ed		 jne	 SHORT $LL3@Uninit_cop
  0004e	6a 00		 push	 0
  00050	e8 00 00 00 00	 call	 __CxxThrowException@8
$LN35@Uninit_cop:
$LN4@Uninit_cop:

; 381  : 	_CATCH_END
; 382  : 	return (_Dest);

  00055	8b 45 10	 mov	 eax, DWORD PTR __Dest$[ebp]

; 383  : 	}

  00058	e8 00 00 00 00	 call	 __EH_epilog3
  0005d	c3		 ret	 0
$LN33@Uninit_cop:
_TEXT	ENDS
;	COMDAT text$x
text$x	SEGMENT
__ehhandler$??$_Uninit_copy@PAV?$basic_string@DU?$char_traits@D@std@@V?$allocator@D@2@@std@@PAV12@V?$allocator@V?$basic_string@DU?$char_traits@D@std@@V?$allocator@D@2@@std@@@2@@std@@YAPAV?$basic_string@DU?$char_traits@D@std@@V?$allocator@D@2@@0@PAV10@00AAV?$allocator@V?$basic_string@DU?$char_traits@D@std@@V?$allocator@D@2@@std@@@0@U_Nonscalar_ptr_iterator_tag@0@@Z:
  00000	8b 54 24 08	 mov	 edx, DWORD PTR [esp+8]
  00004	8d 42 0c	 lea	 eax, DWORD PTR [edx+12]
  00007	8b 4a e8	 mov	 ecx, DWORD PTR [edx-24]
  0000a	33 c8		 xor	 ecx, eax
  0000c	e8 00 00 00 00	 call	 @__security_check_cookie@4
  00011	b8 00 00 00 00	 mov	 eax, OFFSET __ehfuncinfo$??$_Uninit_copy@PAV?$basic_string@DU?$char_traits@D@std@@V?$allocator@D@2@@std@@PAV12@V?$allocator@V?$basic_string@DU?$char_traits@D@std@@V?$allocator@D@2@@std@@@2@@std@@YAPAV?$basic_string@DU?$char_traits@D@std@@V?$allocator@D@2@@0@PAV10@00AAV?$allocator@V?$basic_string@DU?$char_traits@D@std@@V?$allocator@D@2@@std@@@0@U_Nonscalar_ptr_iterator_tag@0@@Z
  00016	e9 00 00 00 00	 jmp	 ___CxxFrameHandler3
text$x	ENDS
??$_Uninit_copy@PAV?$basic_string@DU?$char_traits@D@std@@V?$allocator@D@2@@std@@PAV12@V?$allocator@V?$basic_string@DU?$char_traits@D@std@@V?$allocator@D@2@@std@@@2@@std@@YAPAV?$basic_string@DU?$char_traits@D@std@@V?$allocator@D@2@@0@PAV10@00AAV?$allocator@V?$basic_string@DU?$char_traits@D@std@@V?$allocator@D@2@@std@@@0@U_Nonscalar_ptr_iterator_tag@0@@Z ENDP ; std::_Uninit_copy<std::basic_string<char,std::char_traits<char>,std::allocator<char> > *,std::basic_string<char,std::char_traits<char>,std::allocator<char> > *,std::allocator<std::basic_string<char,std::char_traits<char>,std::allocator<char> > > >
PUBLIC	??$_Destroy_range@V?$allocator@V?$basic_string@DU?$char_traits@D@std@@V?$allocator@D@2@@std@@@std@@@std@@YAXPAV?$basic_string@DU?$char_traits@D@std@@V?$allocator@D@2@@0@0AAV?$allocator@V?$basic_string@DU?$char_traits@D@std@@V?$allocator@D@2@@std@@@0@@Z ; std::_Destroy_range<std::allocator<std::basic_string<char,std::char_traits<char>,std::allocator<char> > > >
; Function compile flags: /Ogsp
; File c:\program files (x86)\microsoft visual studio 10.0\vc\include\xmemory
;	COMDAT ??$_Destroy_range@V?$allocator@V?$basic_string@DU?$char_traits@D@std@@V?$allocator@D@2@@std@@@std@@@std@@YAXPAV?$basic_string@DU?$char_traits@D@std@@V?$allocator@D@2@@0@0AAV?$allocator@V?$basic_string@DU?$char_traits@D@std@@V?$allocator@D@2@@std@@@0@@Z
_TEXT	SEGMENT
__Cat$526933 = -4					; size = 1
__First$ = 8						; size = 4
__Last$ = 12						; size = 4
__Al$ = 16						; size = 4
??$_Destroy_range@V?$allocator@V?$basic_string@DU?$char_traits@D@std@@V?$allocator@D@2@@std@@@std@@@std@@YAXPAV?$basic_string@DU?$char_traits@D@std@@V?$allocator@D@2@@0@0AAV?$allocator@V?$basic_string@DU?$char_traits@D@std@@V?$allocator@D@2@@std@@@0@@Z PROC ; std::_Destroy_range<std::allocator<std::basic_string<char,std::char_traits<char>,std::allocator<char> > > >, COMDAT

; 87   : 	{	// destroy [_First, _Last)

  00000	55		 push	 ebp
  00001	8b ec		 mov	 ebp, esp
  00003	51		 push	 ecx

; 88   : 	_Destroy_range(_First, _Last, _Al, _Ptr_cat(_First, _Last));

  00004	ff 75 fc	 push	 DWORD PTR __Cat$526933[ebp]
  00007	ff 75 10	 push	 DWORD PTR __Al$[ebp]
  0000a	ff 75 0c	 push	 DWORD PTR __Last$[ebp]
  0000d	ff 75 08	 push	 DWORD PTR __First$[ebp]
  00010	e8 00 00 00 00	 call	 ??$_Destroy_range@V?$allocator@V?$basic_string@DU?$char_traits@D@std@@V?$allocator@D@2@@std@@@std@@@std@@YAXPAV?$basic_string@DU?$char_traits@D@std@@V?$allocator@D@2@@0@0AAV?$allocator@V?$basic_string@DU?$char_traits@D@std@@V?$allocator@D@2@@std@@@0@U_Nonscalar_ptr_iterator_tag@0@@Z ; std::_Destroy_range<std::allocator<std::basic_string<char,std::char_traits<char>,std::allocator<char> > > >
  00015	83 c4 10	 add	 esp, 16			; 00000010H

; 89   : 	}

  00018	c9		 leave
  00019	c3		 ret	 0
??$_Destroy_range@V?$allocator@V?$basic_string@DU?$char_traits@D@std@@V?$allocator@D@2@@std@@@std@@@std@@YAXPAV?$basic_string@DU?$char_traits@D@std@@V?$allocator@D@2@@0@0AAV?$allocator@V?$basic_string@DU?$char_traits@D@std@@V?$allocator@D@2@@std@@@0@@Z ENDP ; std::_Destroy_range<std::allocator<std::basic_string<char,std::char_traits<char>,std::allocator<char> > > >
_TEXT	ENDS
PUBLIC	__$ArrayPad$
PUBLIC	?SetTextTick@TutorialWnd@@IAEXXZ		; TutorialWnd::SetTextTick
; Function compile flags: /Ogsp
; File d:\lost saga for developer\youtube\tutorial\source\src\lsclient\gui\tutorialwnd.cpp
;	COMDAT ?SetTextTick@TutorialWnd@@IAEXXZ
_TEXT	SEGMENT
$T527004 = -268						; size = 4
_kTick$516993 = -264					; size = 260
__$ArrayPad$ = -4					; size = 4
?SetTextTick@TutorialWnd@@IAEXXZ PROC			; TutorialWnd::SetTextTick, COMDAT
; _this$ = ecx

; 241  : {

  00000	55		 push	 ebp
  00001	8b ec		 mov	 ebp, esp
  00003	81 ec 0c 01 00
	00		 sub	 esp, 268		; 0000010cH
  00009	a1 00 00 00 00	 mov	 eax, DWORD PTR ___security_cookie
  0000e	33 c5		 xor	 eax, ebp
  00010	89 45 fc	 mov	 DWORD PTR __$ArrayPad$[ebp], eax
  00013	56		 push	 esi
  00014	8b f1		 mov	 esi, ecx

; 242  : 	if( m_DescList.empty() ) return;

  00016	8b 86 c4 01 00
	00		 mov	 eax, DWORD PTR [esi+452]
  0001c	3b 86 c8 01 00
	00		 cmp	 eax, DWORD PTR [esi+456]
  00022	74 7e		 je	 SHORT $LN1@SetTextTic

; 243  : 
; 244  : 	m_vStringTickList.clear();

  00024	57		 push	 edi
  00025	8d be a4 01 00
	00		 lea	 edi, DWORD PTR [esi+420]
  0002b	8b 47 04	 mov	 eax, DWORD PTR [edi+4]
  0002e	8b 0f		 mov	 ecx, DWORD PTR [edi]
  00030	50		 push	 eax
  00031	51		 push	 ecx
  00032	8d 85 f4 fe ff
	ff		 lea	 eax, DWORD PTR $T527004[ebp]
  00038	50		 push	 eax
  00039	8b cf		 mov	 ecx, edi
  0003b	e8 00 00 00 00	 call	 ?erase@?$vector@UStringTick@TutorialWnd@@V?$allocator@UStringTick@TutorialWnd@@@std@@@std@@QAE?AV?$_Vector_iterator@V?$_Vector_val@UStringTick@TutorialWnd@@V?$allocator@UStringTick@TutorialWnd@@@std@@@std@@@2@V?$_Vector_const_iterator@V?$_Vector_val@UStringTick@TutorialWnd@@V?$allocator@UStringTick@TutorialWnd@@@std@@@std@@@2@0@Z ; std::vector<TutorialWnd::StringTick,std::allocator<TutorialWnd::StringTick> >::erase

; 245  : 
; 246  : 	m_dwCurTextTickTime = FRAMEGETTIME();

  00040	ff 15 00 00 00
	00		 call	 DWORD PTR __imp_?GetSingleton@ioFrameTimer@@SAAAV1@XZ
  00046	8b c8		 mov	 ecx, eax
  00048	ff 15 00 00 00
	00		 call	 DWORD PTR __imp_?GetLoopSec@ioFrameTimer@@QBEKXZ

; 247  : 	m_iCurTextTickCount = 0;

  0004e	83 a6 74 01 00
	00 00		 and	 DWORD PTR [esi+372], 0

; 248  : 	m_iCurTextLineCount = 0;

  00055	83 a6 78 01 00
	00 00		 and	 DWORD PTR [esi+376], 0
  0005c	89 86 70 01 00
	00		 mov	 DWORD PTR [esi+368], eax

; 249  : 	int iSize = m_DescList.size();

  00062	8b 86 c8 01 00
	00		 mov	 eax, DWORD PTR [esi+456]
  00068	2b 86 c4 01 00
	00		 sub	 eax, DWORD PTR [esi+452]
  0006e	6a 1c		 push	 28			; 0000001cH
  00070	99		 cdq
  00071	59		 pop	 ecx
  00072	f7 f9		 idiv	 ecx

; 250  : 	for(int i = 0;i < iSize;i++)

  00074	85 c0		 test	 eax, eax
  00076	7e 29		 jle	 SHORT $LN33@SetTextTic

; 243  : 
; 244  : 	m_vStringTickList.clear();

  00078	8b f0		 mov	 esi, eax
$LL3@SetTextTic:

; 251  : 	{
; 252  : 		StringTick kTick;

  0007a	68 04 01 00 00	 push	 260			; 00000104H
  0007f	8d 85 f8 fe ff
	ff		 lea	 eax, DWORD PTR _kTick$516993[ebp]
  00085	6a 00		 push	 0
  00087	50		 push	 eax
  00088	e8 00 00 00 00	 call	 _memset
  0008d	83 c4 0c	 add	 esp, 12			; 0000000cH

; 253  : 		m_vStringTickList.push_back( kTick );

  00090	8d 85 f8 fe ff
	ff		 lea	 eax, DWORD PTR _kTick$516993[ebp]
  00096	50		 push	 eax
  00097	8b cf		 mov	 ecx, edi
  00099	e8 00 00 00 00	 call	 ?push_back@?$vector@UStringTick@TutorialWnd@@V?$allocator@UStringTick@TutorialWnd@@@std@@@std@@QAEXABUStringTick@TutorialWnd@@@Z ; std::vector<TutorialWnd::StringTick,std::allocator<TutorialWnd::StringTick> >::push_back
  0009e	4e		 dec	 esi
  0009f	75 d9		 jne	 SHORT $LL3@SetTextTic
$LN33@SetTextTic:
  000a1	5f		 pop	 edi
$LN1@SetTextTic:

; 254  : 	}
; 255  : }

  000a2	8b 4d fc	 mov	 ecx, DWORD PTR __$ArrayPad$[ebp]
  000a5	33 cd		 xor	 ecx, ebp
  000a7	5e		 pop	 esi
  000a8	e8 00 00 00 00	 call	 @__security_check_cookie@4
  000ad	c9		 leave
  000ae	c3		 ret	 0
?SetTextTick@TutorialWnd@@IAEXXZ ENDP			; TutorialWnd::SetTextTick
_TEXT	ENDS
PUBLIC	??$_Move@PAV?$basic_string@DU?$char_traits@D@std@@V?$allocator@D@2@@std@@PAV12@@std@@YAPAV?$basic_string@DU?$char_traits@D@std@@V?$allocator@D@2@@0@PAV10@00@Z ; std::_Move<std::basic_string<char,std::char_traits<char>,std::allocator<char> > *,std::basic_string<char,std::char_traits<char>,std::allocator<char> > *>
; Function compile flags: /Ogsp
; File c:\program files (x86)\microsoft visual studio 10.0\vc\include\xutility
;	COMDAT ??$_Move@PAV?$basic_string@DU?$char_traits@D@std@@V?$allocator@D@2@@std@@PAV12@@std@@YAPAV?$basic_string@DU?$char_traits@D@std@@V?$allocator@D@2@@0@PAV10@00@Z
_TEXT	SEGMENT
__Cat$527038 = -4					; size = 1
__First$ = 8						; size = 4
__Last$ = 12						; size = 4
__Dest$ = 16						; size = 4
??$_Move@PAV?$basic_string@DU?$char_traits@D@std@@V?$allocator@D@2@@std@@PAV12@@std@@YAPAV?$basic_string@DU?$char_traits@D@std@@V?$allocator@D@2@@0@PAV10@00@Z PROC ; std::_Move<std::basic_string<char,std::char_traits<char>,std::allocator<char> > *,std::basic_string<char,std::char_traits<char>,std::allocator<char> > *>, COMDAT

; 2533 : 	{	// move [_First, _Last) to [_Dest, ...), unchecked

  00000	55		 push	 ebp
  00001	8b ec		 mov	 ebp, esp
  00003	51		 push	 ecx

; 2534 : 	return (_Move(_First, _Last,
; 2535 : 		_Dest, _Ptr_cat(_First, _Dest)));

  00004	ff 75 fc	 push	 DWORD PTR __Cat$527038[ebp]
  00007	ff 75 10	 push	 DWORD PTR __Dest$[ebp]
  0000a	ff 75 0c	 push	 DWORD PTR __Last$[ebp]
  0000d	ff 75 08	 push	 DWORD PTR __First$[ebp]
  00010	e8 00 00 00 00	 call	 ??$_Move@PAV?$basic_string@DU?$char_traits@D@std@@V?$allocator@D@2@@std@@PAV12@@std@@YAPAV?$basic_string@DU?$char_traits@D@std@@V?$allocator@D@2@@0@PAV10@00U_Nonscalar_ptr_iterator_tag@0@@Z ; std::_Move<std::basic_string<char,std::char_traits<char>,std::allocator<char> > *,std::basic_string<char,std::char_traits<char>,std::allocator<char> > *>
  00015	83 c4 10	 add	 esp, 16			; 00000010H

; 2536 : 	}

  00018	c9		 leave
  00019	c3		 ret	 0
??$_Move@PAV?$basic_string@DU?$char_traits@D@std@@V?$allocator@D@2@@std@@PAV12@@std@@YAPAV?$basic_string@DU?$char_traits@D@std@@V?$allocator@D@2@@0@PAV10@00@Z ENDP ; std::_Move<std::basic_string<char,std::char_traits<char>,std::allocator<char> > *,std::basic_string<char,std::char_traits<char>,std::allocator<char> > *>
_TEXT	ENDS
PUBLIC	??$_Uninitialized_copy@PAV?$basic_string@DU?$char_traits@D@std@@V?$allocator@D@2@@std@@PAV12@V?$allocator@V?$basic_string@DU?$char_traits@D@std@@V?$allocator@D@2@@std@@@2@@std@@YAPAV?$basic_string@DU?$char_traits@D@std@@V?$allocator@D@2@@0@PAV10@00AAV?$allocator@V?$basic_string@DU?$char_traits@D@std@@V?$allocator@D@2@@std@@@0@@Z ; std::_Uninitialized_copy<std::basic_string<char,std::char_traits<char>,std::allocator<char> > *,std::basic_string<char,std::char_traits<char>,std::allocator<char> > *,std::allocator<std::basic_string<char,std::char_traits<char>,std::allocator<char> > > >
; Function compile flags: /Ogsp
; File c:\program files (x86)\microsoft visual studio 10.0\vc\include\memory
;	COMDAT ??$_Uninitialized_copy@PAV?$basic_string@DU?$char_traits@D@std@@V?$allocator@D@2@@std@@PAV12@V?$allocator@V?$basic_string@DU?$char_traits@D@std@@V?$allocator@D@2@@std@@@2@@std@@YAPAV?$basic_string@DU?$char_traits@D@std@@V?$allocator@D@2@@0@PAV10@00AAV?$allocator@V?$basic_string@DU?$char_traits@D@std@@V?$allocator@D@2@@std@@@0@@Z
_TEXT	SEGMENT
__Cat$527045 = -4					; size = 1
__First$ = 8						; size = 4
__Last$ = 12						; size = 4
__Dest$ = 16						; size = 4
__Al$ = 20						; size = 4
??$_Uninitialized_copy@PAV?$basic_string@DU?$char_traits@D@std@@V?$allocator@D@2@@std@@PAV12@V?$allocator@V?$basic_string@DU?$char_traits@D@std@@V?$allocator@D@2@@std@@@2@@std@@YAPAV?$basic_string@DU?$char_traits@D@std@@V?$allocator@D@2@@0@PAV10@00AAV?$allocator@V?$basic_string@DU?$char_traits@D@std@@V?$allocator@D@2@@std@@@0@@Z PROC ; std::_Uninitialized_copy<std::basic_string<char,std::char_traits<char>,std::allocator<char> > *,std::basic_string<char,std::char_traits<char>,std::allocator<char> > *,std::allocator<std::basic_string<char,std::char_traits<char>,std::allocator<char> > > >, COMDAT

; 412  : 	{	// copy [_First, _Last) to raw _Dest, using _Al

  00000	55		 push	 ebp
  00001	8b ec		 mov	 ebp, esp
  00003	51		 push	 ecx

; 413  : 	return (_Uninit_copy(_First, _Last, _Dest, _Al,
; 414  : 		_Ptr_cat(_First, _Dest)));

  00004	ff 75 fc	 push	 DWORD PTR __Cat$527045[ebp]
  00007	ff 75 14	 push	 DWORD PTR __Al$[ebp]
  0000a	ff 75 10	 push	 DWORD PTR __Dest$[ebp]
  0000d	ff 75 0c	 push	 DWORD PTR __Last$[ebp]
  00010	ff 75 08	 push	 DWORD PTR __First$[ebp]
  00013	e8 00 00 00 00	 call	 ??$_Uninit_copy@PAV?$basic_string@DU?$char_traits@D@std@@V?$allocator@D@2@@std@@PAV12@V?$allocator@V?$basic_string@DU?$char_traits@D@std@@V?$allocator@D@2@@std@@@2@@std@@YAPAV?$basic_string@DU?$char_traits@D@std@@V?$allocator@D@2@@0@PAV10@00AAV?$allocator@V?$basic_string@DU?$char_traits@D@std@@V?$allocator@D@2@@std@@@0@U_Nonscalar_ptr_iterator_tag@0@@Z ; std::_Uninit_copy<std::basic_string<char,std::char_traits<char>,std::allocator<char> > *,std::basic_string<char,std::char_traits<char>,std::allocator<char> > *,std::allocator<std::basic_string<char,std::char_traits<char>,std::allocator<char> > > >
  00018	83 c4 14	 add	 esp, 20			; 00000014H

; 415  : 	}

  0001b	c9		 leave
  0001c	c3		 ret	 0
??$_Uninitialized_copy@PAV?$basic_string@DU?$char_traits@D@std@@V?$allocator@D@2@@std@@PAV12@V?$allocator@V?$basic_string@DU?$char_traits@D@std@@V?$allocator@D@2@@std@@@2@@std@@YAPAV?$basic_string@DU?$char_traits@D@std@@V?$allocator@D@2@@0@PAV10@00AAV?$allocator@V?$basic_string@DU?$char_traits@D@std@@V?$allocator@D@2@@std@@@0@@Z ENDP ; std::_Uninitialized_copy<std::basic_string<char,std::char_traits<char>,std::allocator<char> > *,std::basic_string<char,std::char_traits<char>,std::allocator<char> > *,std::allocator<std::basic_string<char,std::char_traits<char>,std::allocator<char> > > >
_TEXT	ENDS
PUBLIC	?_Destroy@?$vector@V?$basic_string@DU?$char_traits@D@std@@V?$allocator@D@2@@std@@V?$allocator@V?$basic_string@DU?$char_traits@D@std@@V?$allocator@D@2@@std@@@2@@std@@IAEXPAV?$basic_string@DU?$char_traits@D@std@@V?$allocator@D@2@@2@0@Z ; std::vector<std::basic_string<char,std::char_traits<char>,std::allocator<char> >,std::allocator<std::basic_string<char,std::char_traits<char>,std::allocator<char> > > >::_Destroy
; Function compile flags: /Ogsp
; File c:\program files (x86)\microsoft visual studio 10.0\vc\include\vector
;	COMDAT ?_Destroy@?$vector@V?$basic_string@DU?$char_traits@D@std@@V?$allocator@D@2@@std@@V?$allocator@V?$basic_string@DU?$char_traits@D@std@@V?$allocator@D@2@@std@@@2@@std@@IAEXPAV?$basic_string@DU?$char_traits@D@std@@V?$allocator@D@2@@2@0@Z
_TEXT	SEGMENT
__First$ = 8						; size = 4
__Cat$527059 = 12					; size = 1
__Last$ = 12						; size = 4
?_Destroy@?$vector@V?$basic_string@DU?$char_traits@D@std@@V?$allocator@D@2@@std@@V?$allocator@V?$basic_string@DU?$char_traits@D@std@@V?$allocator@D@2@@std@@@2@@std@@IAEXPAV?$basic_string@DU?$char_traits@D@std@@V?$allocator@D@2@@2@0@Z PROC ; std::vector<std::basic_string<char,std::char_traits<char>,std::allocator<char> >,std::allocator<std::basic_string<char,std::char_traits<char>,std::allocator<char> > > >::_Destroy, COMDAT
; _this$ = ecx

; 1269 : 		{	// destroy [_First, _Last) using allocator

  00000	55		 push	 ebp
  00001	8b ec		 mov	 ebp, esp

; 1270 : 		_Destroy_range(_First, _Last, this->_Alval);

  00003	ff 75 0c	 push	 DWORD PTR __Cat$527059[ebp]
  00006	83 c1 0c	 add	 ecx, 12			; 0000000cH
  00009	51		 push	 ecx
  0000a	ff 75 0c	 push	 DWORD PTR __Last$[ebp]
  0000d	ff 75 08	 push	 DWORD PTR __First$[ebp]
  00010	e8 00 00 00 00	 call	 ??$_Destroy_range@V?$allocator@V?$basic_string@DU?$char_traits@D@std@@V?$allocator@D@2@@std@@@std@@@std@@YAXPAV?$basic_string@DU?$char_traits@D@std@@V?$allocator@D@2@@0@0AAV?$allocator@V?$basic_string@DU?$char_traits@D@std@@V?$allocator@D@2@@std@@@0@U_Nonscalar_ptr_iterator_tag@0@@Z ; std::_Destroy_range<std::allocator<std::basic_string<char,std::char_traits<char>,std::allocator<char> > > >
  00015	83 c4 10	 add	 esp, 16			; 00000010H

; 1271 : 		}

  00018	5d		 pop	 ebp
  00019	c2 08 00	 ret	 8
?_Destroy@?$vector@V?$basic_string@DU?$char_traits@D@std@@V?$allocator@D@2@@std@@V?$allocator@V?$basic_string@DU?$char_traits@D@std@@V?$allocator@D@2@@std@@@2@@std@@IAEXPAV?$basic_string@DU?$char_traits@D@std@@V?$allocator@D@2@@2@0@Z ENDP ; std::vector<std::basic_string<char,std::char_traits<char>,std::allocator<char> >,std::allocator<std::basic_string<char,std::char_traits<char>,std::allocator<char> > > >::_Destroy
_TEXT	ENDS
PUBLIC	?erase@?$vector@V?$basic_string@DU?$char_traits@D@std@@V?$allocator@D@2@@std@@V?$allocator@V?$basic_string@DU?$char_traits@D@std@@V?$allocator@D@2@@std@@@2@@std@@QAE?AV?$_Vector_iterator@V?$_Vector_val@V?$basic_string@DU?$char_traits@D@std@@V?$allocator@D@2@@std@@V?$allocator@V?$basic_string@DU?$char_traits@D@std@@V?$allocator@D@2@@std@@@2@@std@@@2@V?$_Vector_const_iterator@V?$_Vector_val@V?$basic_string@DU?$char_traits@D@std@@V?$allocator@D@2@@std@@V?$allocator@V?$basic_string@DU?$char_traits@D@std@@V?$allocator@D@2@@std@@@2@@std@@@2@0@Z ; std::vector<std::basic_string<char,std::char_traits<char>,std::allocator<char> >,std::allocator<std::basic_string<char,std::char_traits<char>,std::allocator<char> > > >::erase
; Function compile flags: /Ogsp
;	COMDAT ?erase@?$vector@V?$basic_string@DU?$char_traits@D@std@@V?$allocator@D@2@@std@@V?$allocator@V?$basic_string@DU?$char_traits@D@std@@V?$allocator@D@2@@std@@@2@@std@@QAE?AV?$_Vector_iterator@V?$_Vector_val@V?$basic_string@DU?$char_traits@D@std@@V?$allocator@D@2@@std@@V?$allocator@V?$basic_string@DU?$char_traits@D@std@@V?$allocator@D@2@@std@@@2@@std@@@2@V?$_Vector_const_iterator@V?$_Vector_val@V?$basic_string@DU?$char_traits@D@std@@V?$allocator@D@2@@std@@V?$allocator@V?$basic_string@DU?$char_traits@D@std@@V?$allocator@D@2@@std@@@2@@std@@@2@0@Z
_TEXT	SEGMENT
___$ReturnUdt$ = 8					; size = 4
__First_arg$ = 12					; size = 4
__Cat$527160 = 16					; size = 1
__Cat$527136 = 16					; size = 1
__Last_arg$ = 16					; size = 4
?erase@?$vector@V?$basic_string@DU?$char_traits@D@std@@V?$allocator@D@2@@std@@V?$allocator@V?$basic_string@DU?$char_traits@D@std@@V?$allocator@D@2@@std@@@2@@std@@QAE?AV?$_Vector_iterator@V?$_Vector_val@V?$basic_string@DU?$char_traits@D@std@@V?$allocator@D@2@@std@@V?$allocator@V?$basic_string@DU?$char_traits@D@std@@V?$allocator@D@2@@std@@@2@@std@@@2@V?$_Vector_const_iterator@V?$_Vector_val@V?$basic_string@DU?$char_traits@D@std@@V?$allocator@D@2@@std@@V?$allocator@V?$basic_string@DU?$char_traits@D@std@@V?$allocator@D@2@@std@@@2@@std@@@2@0@Z PROC ; std::vector<std::basic_string<char,std::char_traits<char>,std::allocator<char> >,std::allocator<std::basic_string<char,std::char_traits<char>,std::allocator<char> > > >::erase, COMDAT
; _this$ = ecx

; 1190 : 		{	// erase [_First, _Last)

  00000	55		 push	 ebp
  00001	8b ec		 mov	 ebp, esp

; 1191 : 		iterator _First = _Make_iter(_First_arg);

  00003	8b 45 0c	 mov	 eax, DWORD PTR __First_arg$[ebp]
  00006	53		 push	 ebx
  00007	8b 5d 08	 mov	 ebx, DWORD PTR ___$ReturnUdt$[ebp]
  0000a	56		 push	 esi
  0000b	8b f1		 mov	 esi, ecx
  0000d	89 03		 mov	 DWORD PTR [ebx], eax

; 1192 : 		iterator _Last = _Make_iter(_Last_arg);
; 1193 : 
; 1194 : 		if (_First != _Last)

  0000f	3b 45 10	 cmp	 eax, DWORD PTR __Last_arg$[ebp]
  00012	74 2a		 je	 SHORT $LN1@erase@3

; 1195 : 			{	// worth doing, copy down over hole
; 1196 :  #if _ITERATOR_DEBUG_LEVEL == 2
; 1197 : 			if (_Last < _First || _VICONT(_First) != this
; 1198 : 				|| _VIPTR(_First) < this->_Myfirst
; 1199 : 				|| this->_Mylast < _VIPTR(_Last))
; 1200 : 				_DEBUG_ERROR("vector erase iterator outside range");
; 1201 : 			pointer _Ptr = _Move(_VIPTR(_Last), this->_Mylast,
; 1202 : 				_VIPTR(_First));
; 1203 : 			_Orphan_range(_VIPTR(_First), this->_Mylast);
; 1204 : 
; 1205 :  #else /* _ITERATOR_DEBUG_LEVEL == 2 */
; 1206 : 			pointer _Ptr = _Move(_VIPTR(_Last), this->_Mylast,
; 1207 : 				_VIPTR(_First));

  00014	8b 4e 04	 mov	 ecx, DWORD PTR [esi+4]
  00017	57		 push	 edi
  00018	ff 75 10	 push	 DWORD PTR __Cat$527136[ebp]
  0001b	50		 push	 eax
  0001c	51		 push	 ecx
  0001d	ff 75 10	 push	 DWORD PTR __Last_arg$[ebp]
  00020	e8 00 00 00 00	 call	 ??$_Move@PAV?$basic_string@DU?$char_traits@D@std@@V?$allocator@D@2@@std@@PAV12@@std@@YAPAV?$basic_string@DU?$char_traits@D@std@@V?$allocator@D@2@@0@PAV10@00U_Nonscalar_ptr_iterator_tag@0@@Z ; std::_Move<std::basic_string<char,std::char_traits<char>,std::allocator<char> > *,std::basic_string<char,std::char_traits<char>,std::allocator<char> > *>

; 1208 :  #endif /* _ITERATOR_DEBUG_LEVEL == 2 */
; 1209 : 
; 1210 : 			_Destroy(_Ptr, this->_Mylast);

  00025	ff 75 10	 push	 DWORD PTR __Cat$527160[ebp]
  00028	8b f8		 mov	 edi, eax
  0002a	8d 46 0c	 lea	 eax, DWORD PTR [esi+12]
  0002d	50		 push	 eax
  0002e	ff 76 04	 push	 DWORD PTR [esi+4]
  00031	57		 push	 edi
  00032	e8 00 00 00 00	 call	 ??$_Destroy_range@V?$allocator@V?$basic_string@DU?$char_traits@D@std@@V?$allocator@D@2@@std@@@std@@@std@@YAXPAV?$basic_string@DU?$char_traits@D@std@@V?$allocator@D@2@@0@0AAV?$allocator@V?$basic_string@DU?$char_traits@D@std@@V?$allocator@D@2@@std@@@0@U_Nonscalar_ptr_iterator_tag@0@@Z ; std::_Destroy_range<std::allocator<std::basic_string<char,std::char_traits<char>,std::allocator<char> > > >
  00037	83 c4 20	 add	 esp, 32			; 00000020H

; 1211 : 			this->_Mylast = _Ptr;

  0003a	89 7e 04	 mov	 DWORD PTR [esi+4], edi
  0003d	5f		 pop	 edi
$LN1@erase@3:

; 1212 : 			}
; 1213 : 		return (_First);

  0003e	5e		 pop	 esi
  0003f	8b c3		 mov	 eax, ebx
  00041	5b		 pop	 ebx

; 1214 : 		}

  00042	5d		 pop	 ebp
  00043	c2 0c 00	 ret	 12			; 0000000cH
?erase@?$vector@V?$basic_string@DU?$char_traits@D@std@@V?$allocator@D@2@@std@@V?$allocator@V?$basic_string@DU?$char_traits@D@std@@V?$allocator@D@2@@std@@@2@@std@@QAE?AV?$_Vector_iterator@V?$_Vector_val@V?$basic_string@DU?$char_traits@D@std@@V?$allocator@D@2@@std@@V?$allocator@V?$basic_string@DU?$char_traits@D@std@@V?$allocator@D@2@@std@@@2@@std@@@2@V?$_Vector_const_iterator@V?$_Vector_val@V?$basic_string@DU?$char_traits@D@std@@V?$allocator@D@2@@std@@V?$allocator@V?$basic_string@DU?$char_traits@D@std@@V?$allocator@D@2@@std@@@2@@std@@@2@0@Z ENDP ; std::vector<std::basic_string<char,std::char_traits<char>,std::allocator<char> >,std::allocator<std::basic_string<char,std::char_traits<char>,std::allocator<char> > > >::erase
_TEXT	ENDS
PUBLIC	??$_Ucopy@PAV?$basic_string@DU?$char_traits@D@std@@V?$allocator@D@2@@std@@@?$vector@V?$basic_string@DU?$char_traits@D@std@@V?$allocator@D@2@@std@@V?$allocator@V?$basic_string@DU?$char_traits@D@std@@V?$allocator@D@2@@std@@@2@@std@@IAEPAV?$basic_string@DU?$char_traits@D@std@@V?$allocator@D@2@@1@PAV21@00@Z ; std::vector<std::basic_string<char,std::char_traits<char>,std::allocator<char> >,std::allocator<std::basic_string<char,std::char_traits<char>,std::allocator<char> > > >::_Ucopy<std::basic_string<char,std::char_traits<char>,std::allocator<char> > *>
; Function compile flags: /Ogsp
;	COMDAT ??$_Ucopy@PAV?$basic_string@DU?$char_traits@D@std@@V?$allocator@D@2@@std@@@?$vector@V?$basic_string@DU?$char_traits@D@std@@V?$allocator@D@2@@std@@V?$allocator@V?$basic_string@DU?$char_traits@D@std@@V?$allocator@D@2@@std@@@2@@std@@IAEPAV?$basic_string@DU?$char_traits@D@std@@V?$allocator@D@2@@1@PAV21@00@Z
_TEXT	SEGMENT
__First$ = 8						; size = 4
__Last$ = 12						; size = 4
__Cat$527175 = 16					; size = 1
__Ptr$ = 16						; size = 4
??$_Ucopy@PAV?$basic_string@DU?$char_traits@D@std@@V?$allocator@D@2@@std@@@?$vector@V?$basic_string@DU?$char_traits@D@std@@V?$allocator@D@2@@std@@V?$allocator@V?$basic_string@DU?$char_traits@D@std@@V?$allocator@D@2@@std@@@2@@std@@IAEPAV?$basic_string@DU?$char_traits@D@std@@V?$allocator@D@2@@1@PAV21@00@Z PROC ; std::vector<std::basic_string<char,std::char_traits<char>,std::allocator<char> >,std::allocator<std::basic_string<char,std::char_traits<char>,std::allocator<char> > > >::_Ucopy<std::basic_string<char,std::char_traits<char>,std::allocator<char> > *>, COMDAT
; _this$ = ecx

; 1315 : 		pointer _Ucopy(_Iter _First, _Iter _Last, pointer _Ptr)

  00000	55		 push	 ebp
  00001	8b ec		 mov	 ebp, esp

; 1316 : 		{	// copy initializing [_First, _Last), using allocator
; 1317 : 		return (_Uninitialized_copy(_First, _Last,
; 1318 : 			_Ptr, this->_Alval));

  00003	ff 75 10	 push	 DWORD PTR __Cat$527175[ebp]
  00006	83 c1 0c	 add	 ecx, 12			; 0000000cH
  00009	51		 push	 ecx
  0000a	ff 75 10	 push	 DWORD PTR __Ptr$[ebp]
  0000d	ff 75 0c	 push	 DWORD PTR __Last$[ebp]
  00010	ff 75 08	 push	 DWORD PTR __First$[ebp]
  00013	e8 00 00 00 00	 call	 ??$_Uninit_copy@PAV?$basic_string@DU?$char_traits@D@std@@V?$allocator@D@2@@std@@PAV12@V?$allocator@V?$basic_string@DU?$char_traits@D@std@@V?$allocator@D@2@@std@@@2@@std@@YAPAV?$basic_string@DU?$char_traits@D@std@@V?$allocator@D@2@@0@PAV10@00AAV?$allocator@V?$basic_string@DU?$char_traits@D@std@@V?$allocator@D@2@@std@@@0@U_Nonscalar_ptr_iterator_tag@0@@Z ; std::_Uninit_copy<std::basic_string<char,std::char_traits<char>,std::allocator<char> > *,std::basic_string<char,std::char_traits<char>,std::allocator<char> > *,std::allocator<std::basic_string<char,std::char_traits<char>,std::allocator<char> > > >
  00018	83 c4 14	 add	 esp, 20			; 00000014H

; 1319 : 		}

  0001b	5d		 pop	 ebp
  0001c	c2 0c 00	 ret	 12			; 0000000cH
??$_Ucopy@PAV?$basic_string@DU?$char_traits@D@std@@V?$allocator@D@2@@std@@@?$vector@V?$basic_string@DU?$char_traits@D@std@@V?$allocator@D@2@@std@@V?$allocator@V?$basic_string@DU?$char_traits@D@std@@V?$allocator@D@2@@std@@@2@@std@@IAEPAV?$basic_string@DU?$char_traits@D@std@@V?$allocator@D@2@@1@PAV21@00@Z ENDP ; std::vector<std::basic_string<char,std::char_traits<char>,std::allocator<char> >,std::allocator<std::basic_string<char,std::char_traits<char>,std::allocator<char> > > >::_Ucopy<std::basic_string<char,std::char_traits<char>,std::allocator<char> > *>
_TEXT	ENDS
PUBLIC	?_Tidy@?$vector@V?$basic_string@DU?$char_traits@D@std@@V?$allocator@D@2@@std@@V?$allocator@V?$basic_string@DU?$char_traits@D@std@@V?$allocator@D@2@@std@@@2@@std@@IAEXXZ ; std::vector<std::basic_string<char,std::char_traits<char>,std::allocator<char> >,std::allocator<std::basic_string<char,std::char_traits<char>,std::allocator<char> > > >::_Tidy
; Function compile flags: /Ogsp
;	COMDAT ?_Tidy@?$vector@V?$basic_string@DU?$char_traits@D@std@@V?$allocator@D@2@@std@@V?$allocator@V?$basic_string@DU?$char_traits@D@std@@V?$allocator@D@2@@std@@@2@@std@@IAEXXZ
_TEXT	SEGMENT
__Cat$527198 = -4					; size = 1
?_Tidy@?$vector@V?$basic_string@DU?$char_traits@D@std@@V?$allocator@D@2@@std@@V?$allocator@V?$basic_string@DU?$char_traits@D@std@@V?$allocator@D@2@@std@@@2@@std@@IAEXXZ PROC ; std::vector<std::basic_string<char,std::char_traits<char>,std::allocator<char> >,std::allocator<std::basic_string<char,std::char_traits<char>,std::allocator<char> > > >::_Tidy, COMDAT
; _this$ = ecx

; 1301 : 		{	// free all storage

  00000	55		 push	 ebp
  00001	8b ec		 mov	 ebp, esp
  00003	51		 push	 ecx
  00004	56		 push	 esi
  00005	8b f1		 mov	 esi, ecx

; 1302 : 		if (this->_Myfirst != 0)

  00007	83 3e 00	 cmp	 DWORD PTR [esi], 0
  0000a	74 21		 je	 SHORT $LN10@Tidy@3

; 1303 : 			{	// something to free, destroy and deallocate it
; 1304 : 			this->_Orphan_all();

  0000c	ff 15 00 00 00
	00		 call	 DWORD PTR __imp_?_Orphan_all@_Container_base0@std@@QAEXXZ

; 1305 : 			_Destroy(this->_Myfirst, this->_Mylast);

  00012	ff 75 fc	 push	 DWORD PTR __Cat$527198[ebp]
  00015	8d 46 0c	 lea	 eax, DWORD PTR [esi+12]
  00018	50		 push	 eax
  00019	ff 76 04	 push	 DWORD PTR [esi+4]
  0001c	ff 36		 push	 DWORD PTR [esi]
  0001e	e8 00 00 00 00	 call	 ??$_Destroy_range@V?$allocator@V?$basic_string@DU?$char_traits@D@std@@V?$allocator@D@2@@std@@@std@@@std@@YAXPAV?$basic_string@DU?$char_traits@D@std@@V?$allocator@D@2@@0@0AAV?$allocator@V?$basic_string@DU?$char_traits@D@std@@V?$allocator@D@2@@std@@@0@U_Nonscalar_ptr_iterator_tag@0@@Z ; std::_Destroy_range<std::allocator<std::basic_string<char,std::char_traits<char>,std::allocator<char> > > >

; 1306 : 			this->_Alval.deallocate(this->_Myfirst,
; 1307 : 				this->_Myend - this->_Myfirst);

  00023	ff 36		 push	 DWORD PTR [esi]
  00025	e8 00 00 00 00	 call	 ??3@YAXPAX@Z		; operator delete
  0002a	83 c4 14	 add	 esp, 20			; 00000014H
$LN10@Tidy@3:

; 1308 : 			}
; 1309 : 		this->_Myfirst = 0;

  0002d	83 26 00	 and	 DWORD PTR [esi], 0

; 1310 : 		this->_Mylast = 0;

  00030	83 66 04 00	 and	 DWORD PTR [esi+4], 0

; 1311 : 		this->_Myend = 0;

  00034	83 66 08 00	 and	 DWORD PTR [esi+8], 0
  00038	5e		 pop	 esi

; 1312 : 		}

  00039	c9		 leave
  0003a	c3		 ret	 0
?_Tidy@?$vector@V?$basic_string@DU?$char_traits@D@std@@V?$allocator@D@2@@std@@V?$allocator@V?$basic_string@DU?$char_traits@D@std@@V?$allocator@D@2@@std@@@2@@std@@IAEXXZ ENDP ; std::vector<std::basic_string<char,std::char_traits<char>,std::allocator<char> >,std::allocator<std::basic_string<char,std::char_traits<char>,std::allocator<char> > > >::_Tidy
_TEXT	ENDS
PUBLIC	?clear@?$vector@V?$basic_string@DU?$char_traits@D@std@@V?$allocator@D@2@@std@@V?$allocator@V?$basic_string@DU?$char_traits@D@std@@V?$allocator@D@2@@std@@@2@@std@@QAEXXZ ; std::vector<std::basic_string<char,std::char_traits<char>,std::allocator<char> >,std::allocator<std::basic_string<char,std::char_traits<char>,std::allocator<char> > > >::clear
; Function compile flags: /Ogsp
;	COMDAT ?clear@?$vector@V?$basic_string@DU?$char_traits@D@std@@V?$allocator@D@2@@std@@V?$allocator@V?$basic_string@DU?$char_traits@D@std@@V?$allocator@D@2@@std@@@2@@std@@QAEXXZ
_TEXT	SEGMENT
$T527213 = -4						; size = 4
?clear@?$vector@V?$basic_string@DU?$char_traits@D@std@@V?$allocator@D@2@@std@@V?$allocator@V?$basic_string@DU?$char_traits@D@std@@V?$allocator@D@2@@std@@@2@@std@@QAEXXZ PROC ; std::vector<std::basic_string<char,std::char_traits<char>,std::allocator<char> >,std::allocator<std::basic_string<char,std::char_traits<char>,std::allocator<char> > > >::clear, COMDAT
; _this$ = ecx

; 1217 : 		{	// erase all

  00000	55		 push	 ebp
  00001	8b ec		 mov	 ebp, esp
  00003	51		 push	 ecx

; 1218 : 		erase(begin(), end());

  00004	8b 41 04	 mov	 eax, DWORD PTR [ecx+4]
  00007	8b 11		 mov	 edx, DWORD PTR [ecx]
  00009	50		 push	 eax
  0000a	52		 push	 edx
  0000b	8d 45 fc	 lea	 eax, DWORD PTR $T527213[ebp]
  0000e	50		 push	 eax
  0000f	e8 00 00 00 00	 call	 ?erase@?$vector@V?$basic_string@DU?$char_traits@D@std@@V?$allocator@D@2@@std@@V?$allocator@V?$basic_string@DU?$char_traits@D@std@@V?$allocator@D@2@@std@@@2@@std@@QAE?AV?$_Vector_iterator@V?$_Vector_val@V?$basic_string@DU?$char_traits@D@std@@V?$allocator@D@2@@std@@V?$allocator@V?$basic_string@DU?$char_traits@D@std@@V?$allocator@D@2@@std@@@2@@std@@@2@V?$_Vector_const_iterator@V?$_Vector_val@V?$basic_string@DU?$char_traits@D@std@@V?$allocator@D@2@@std@@V?$allocator@V?$basic_string@DU?$char_traits@D@std@@V?$allocator@D@2@@std@@@2@@std@@@2@0@Z ; std::vector<std::basic_string<char,std::char_traits<char>,std::allocator<char> >,std::allocator<std::basic_string<char,std::char_traits<char>,std::allocator<char> > > >::erase

; 1219 : 		}

  00014	c9		 leave
  00015	c3		 ret	 0
?clear@?$vector@V?$basic_string@DU?$char_traits@D@std@@V?$allocator@D@2@@std@@V?$allocator@V?$basic_string@DU?$char_traits@D@std@@V?$allocator@D@2@@std@@@2@@std@@QAEXXZ ENDP ; std::vector<std::basic_string<char,std::char_traits<char>,std::allocator<char> >,std::allocator<std::basic_string<char,std::char_traits<char>,std::allocator<char> > > >::clear
_TEXT	ENDS
PUBLIC	??1?$vector@V?$basic_string@DU?$char_traits@D@std@@V?$allocator@D@2@@std@@V?$allocator@V?$basic_string@DU?$char_traits@D@std@@V?$allocator@D@2@@std@@@2@@std@@QAE@XZ ; std::vector<std::basic_string<char,std::char_traits<char>,std::allocator<char> >,std::allocator<std::basic_string<char,std::char_traits<char>,std::allocator<char> > > >::~vector<std::basic_string<char,std::char_traits<char>,std::allocator<char> >,std::allocator<std::basic_string<char,std::char_traits<char>,std::allocator<char> > > >
; Function compile flags: /Ogsp
;	COMDAT ??1?$vector@V?$basic_string@DU?$char_traits@D@std@@V?$allocator@D@2@@std@@V?$allocator@V?$basic_string@DU?$char_traits@D@std@@V?$allocator@D@2@@std@@@2@@std@@QAE@XZ
_TEXT	SEGMENT
??1?$vector@V?$basic_string@DU?$char_traits@D@std@@V?$allocator@D@2@@std@@V?$allocator@V?$basic_string@DU?$char_traits@D@std@@V?$allocator@D@2@@std@@@2@@std@@QAE@XZ PROC ; std::vector<std::basic_string<char,std::char_traits<char>,std::allocator<char> >,std::allocator<std::basic_string<char,std::char_traits<char>,std::allocator<char> > > >::~vector<std::basic_string<char,std::char_traits<char>,std::allocator<char> >,std::allocator<std::basic_string<char,std::char_traits<char>,std::allocator<char> > > >, COMDAT
; _this$ = ecx

; 705  : 		_Tidy();

  00000	e9 00 00 00 00	 jmp	 ?_Tidy@?$vector@V?$basic_string@DU?$char_traits@D@std@@V?$allocator@D@2@@std@@V?$allocator@V?$basic_string@DU?$char_traits@D@std@@V?$allocator@D@2@@std@@@2@@std@@IAEXXZ ; std::vector<std::basic_string<char,std::char_traits<char>,std::allocator<char> >,std::allocator<std::basic_string<char,std::char_traits<char>,std::allocator<char> > > >::_Tidy
??1?$vector@V?$basic_string@DU?$char_traits@D@std@@V?$allocator@D@2@@std@@V?$allocator@V?$basic_string@DU?$char_traits@D@std@@V?$allocator@D@2@@std@@@2@@std@@QAE@XZ ENDP ; std::vector<std::basic_string<char,std::char_traits<char>,std::allocator<char> >,std::allocator<std::basic_string<char,std::char_traits<char>,std::allocator<char> > > >::~vector<std::basic_string<char,std::char_traits<char>,std::allocator<char> >,std::allocator<std::basic_string<char,std::char_traits<char>,std::allocator<char> > > >
_TEXT	ENDS
PUBLIC	??_7TutorialWnd@@6B@				; TutorialWnd::`vftable'
PUBLIC	??0TutorialWnd@@QAE@XZ				; TutorialWnd::TutorialWnd
PUBLIC	??_R4TutorialWnd@@6B@				; TutorialWnd::`RTTI Complete Object Locator'
PUBLIC	??_R0?AVTutorialWnd@@@8				; TutorialWnd `RTTI Type Descriptor'
PUBLIC	??_R3TutorialWnd@@8				; TutorialWnd::`RTTI Class Hierarchy Descriptor'
PUBLIC	??_R2TutorialWnd@@8				; TutorialWnd::`RTTI Base Class Array'
PUBLIC	??_R1A@?0A@EA@TutorialWnd@@8			; TutorialWnd::`RTTI Base Class Descriptor at (0,-1,0,64)'
EXTRN	__imp_??0ioHashString@@QAE@XZ:PROC
EXTRN	??_ETutorialWnd@@UAEPAXI@Z:PROC			; TutorialWnd::`vector deleting destructor'
;	COMDAT ??_R1A@?0A@EA@TutorialWnd@@8
; File d:\lost saga for developer\youtube\tutorial\source\src\lsclient\stdafx.h
rdata$r	SEGMENT
??_R1A@?0A@EA@TutorialWnd@@8 DD FLAT:??_R0?AVTutorialWnd@@@8 ; TutorialWnd::`RTTI Base Class Descriptor at (0,-1,0,64)'
	DD	01H
	DD	00H
	DD	0ffffffffH
	DD	00H
	DD	040H
	DD	FLAT:??_R3TutorialWnd@@8
rdata$r	ENDS
;	COMDAT ??_R2TutorialWnd@@8
rdata$r	SEGMENT
??_R2TutorialWnd@@8 DD FLAT:??_R1A@?0A@EA@TutorialWnd@@8 ; TutorialWnd::`RTTI Base Class Array'
	DD	FLAT:??_R1A@?0A@EA@ioWnd@@8
rdata$r	ENDS
;	COMDAT ??_R3TutorialWnd@@8
rdata$r	SEGMENT
??_R3TutorialWnd@@8 DD 00H				; TutorialWnd::`RTTI Class Hierarchy Descriptor'
	DD	00H
	DD	02H
	DD	FLAT:??_R2TutorialWnd@@8
rdata$r	ENDS
;	COMDAT ??_R0?AVTutorialWnd@@@8
_DATA	SEGMENT
??_R0?AVTutorialWnd@@@8 DD FLAT:??_7type_info@@6B@	; TutorialWnd `RTTI Type Descriptor'
	DD	00H
	DB	'.?AVTutorialWnd@@', 00H
_DATA	ENDS
;	COMDAT ??_R4TutorialWnd@@6B@
rdata$r	SEGMENT
??_R4TutorialWnd@@6B@ DD 00H				; TutorialWnd::`RTTI Complete Object Locator'
	DD	00H
	DD	00H
	DD	FLAT:??_R0?AVTutorialWnd@@@8
	DD	FLAT:??_R3TutorialWnd@@8
rdata$r	ENDS
;	COMDAT ??_7TutorialWnd@@6B@
CONST	SEGMENT
??_7TutorialWnd@@6B@ DD FLAT:??_R4TutorialWnd@@6B@	; TutorialWnd::`vftable'
	DD	FLAT:?AddRenderFrame@TutorialWnd@@MAEXABVioHashString@@PAVioUIRenderFrame@@@Z
	DD	FLAT:?AddRenderImage@TutorialWnd@@MAEXABVioHashString@@PAVioUIRenderImage@@@Z
	DD	FLAT:?AddTooltipHelp@ioWnd@@UAEXABVioHashString@@00@Z
	DD	FLAT:?ParseExtraInfo@TutorialWnd@@UAEXAAVioXMLElement@@@Z
	DD	FLAT:?AddNamedRenderImage@ioWnd@@UAEXABVioHashString@@PAVioUIRenderImage@@@Z
	DD	FLAT:?RemoveNamedRenderImage@ioWnd@@UAEXABVioHashString@@@Z
	DD	FLAT:?GetNamedRenderImage@ioWnd@@UBEPAVioUIRenderImage@@ABVioHashString@@@Z
	DD	FLAT:?SetWindowAlpha@ioWnd@@UAEXH@Z
	DD	FLAT:?SetActive@ioWnd@@UAEXXZ
	DD	FLAT:?SetInActive@ioWnd@@UAEXXZ
	DD	FLAT:?ClearElementImageList@ioWnd@@UAEXXZ
	DD	FLAT:?SetSize@ioWnd@@UAEXHH@Z
	DD	FLAT:?SetPositionToDefault@ioWnd@@UAEXHH_N0@Z
	DD	FLAT:?IsNeedProcess@ioWnd@@UBE_NXZ
	DD	FLAT:?IsCanMouseReaction@ioWnd@@UBE_NXZ
	DD	FLAT:?AddChild@ioWnd@@UAEXPAV1@@Z
	DD	FLAT:?DeleteChild@ioWnd@@UAEXK@Z
	DD	FLAT:?DeleteAllChild@ioWnd@@UAEXXZ
	DD	FLAT:?OnRenderShowAndHide@ioWnd@@MAE_NXZ
	DD	FLAT:?OnRenderShowAndHideByDefault@ioWnd@@MAE_NK@Z
	DD	FLAT:?OnRenderShowAndHideByTop@ioWnd@@MAE_NK@Z
	DD	FLAT:?OnRenderShowAndHideByDown@ioWnd@@MAE_NK@Z
	DD	FLAT:?OnRender@TutorialWnd@@MAEXXZ
	DD	FLAT:?OnRenderAfterChild@ioWnd@@MAEXXZ
	DD	FLAT:?OnProcess@TutorialWnd@@MAEXM@Z
	DD	FLAT:?OnMouseProcess@ioWnd@@MAEXABVioMouse@@@Z
	DD	FLAT:?CheckFrameReSize@ioWnd@@MAEXHHHH@Z
	DD	FLAT:?RenderImageList@ioWnd@@MAEXHHW4UIRenderType@@@Z
	DD	FLAT:?iwm_create@ioWnd@@UAEXXZ
	DD	FLAT:?iwm_destroy@ioWnd@@UAEXXZ
	DD	FLAT:?iwm_lbuttondown@ioWnd@@UAEXABVioMouse@@@Z
	DD	FLAT:?iwm_lbuttonup@ioWnd@@UAEXABVioMouse@@@Z
	DD	FLAT:?iwm_lbuttonDBLCLK@ioWnd@@UAEXABVioMouse@@@Z
	DD	FLAT:?iwm_rbuttondown@ioWnd@@UAEXABVioMouse@@@Z
	DD	FLAT:?iwm_rbuttonup@ioWnd@@UAEXABVioMouse@@@Z
	DD	FLAT:?iwm_command@TutorialWnd@@UAEXPAVioWnd@@HK@Z
	DD	FLAT:?iwm_mouseover@ioWnd@@UAEXABVioMouse@@@Z
	DD	FLAT:?iwm_mousemove@ioWnd@@UAEXABVioMouse@@@Z
	DD	FLAT:?iwm_mouseleave@ioWnd@@UAEXABVioMouse@@@Z
	DD	FLAT:?iwm_vscroll@ioWnd@@UAEXKH@Z
	DD	FLAT:?iwm_wheel@ioWnd@@UAEXH@Z
	DD	FLAT:?iwm_show@TutorialWnd@@UAEXXZ
	DD	FLAT:?iwm_hide@TutorialWnd@@UAEXXZ
	DD	FLAT:?iwm_esc@ioWnd@@UAE_NXZ
	DD	FLAT:?iwm_spacebar@TutorialWnd@@UAE_NXZ
	DD	FLAT:?iwm_gototop@ioWnd@@UAEXXZ
	DD	FLAT:?iwm_dragenter@ioWnd@@UAE?AW4IWDropEffect@@PAVioDragItem@@ABVioMouse@@@Z
	DD	FLAT:?iwm_dragover@ioWnd@@UAE?AW4IWDropEffect@@PAVioDragItem@@ABVioMouse@@@Z
	DD	FLAT:?iwm_dragleave@ioWnd@@UAEXXZ
	DD	FLAT:?iwm_dropitem@ioWnd@@UAE_NPAVioDragItem@@ABVioMouse@@PAV1@@Z
	DD	FLAT:?iwm_dropdone@ioWnd@@UAEXPAVioDragItem@@PAV1@_N@Z
	DD	FLAT:?IsEXType@ioWnd@@UBE_NXZ
	DD	FLAT:?GetWndType@ioWnd@@UBEKXZ
	DD	FLAT:?RenderWnd@ioWnd@@UAEXXZ
	DD	FLAT:?SetIDEX@ioWnd@@UAEXAAK_N@Z
	DD	FLAT:?ParseXML@ioWnd@@UAEXAAVioXMLElement@@@Z
	DD	FLAT:?GetHeaderFileName@ioWnd@@UAEPBDXZ
	DD	FLAT:?GetTemplateName@ioWnd@@UAEPBDXZ
	DD	FLAT:?GetDefClassName@ioWnd@@UBEPBDXZ
	DD	FLAT:?_Clone@ioWnd@@UAEPAV1@XZ
	DD	FLAT:?Copy@ioWnd@@UAEXPAV1@@Z
	DD	FLAT:?Save@ioWnd@@UAE_NAAVioXMLElement@@@Z
	DD	FLAT:?SetSaveData@ioWnd@@UAEXAAVioXMLElement@@@Z
	DD	FLAT:?SetPosX@ioWnd@@UAEXH@Z
	DD	FLAT:?SetPosY@ioWnd@@UAEXH@Z
	DD	FLAT:?SetWidth@ioWnd@@UAEXH@Z
	DD	FLAT:?SetHeight@ioWnd@@UAEXH@Z
	DD	FLAT:?GetNumFixedRenderFrame@ioWnd@@UBEHXZ
	DD	FLAT:?GetFixedRenderFrameType@ioWnd@@UAEPBDH@Z
	DD	FLAT:?GetRenderFrame@ioWnd@@UAEPAPAVioUIRenderElement@@PBD@Z
	DD	FLAT:?GetNumFixedRenderImage@ioWnd@@UBEHXZ
	DD	FLAT:?GetFixedRenderImageType@ioWnd@@UAEPBDH@Z
	DD	FLAT:?GetRenderImage@ioWnd@@UAEPAPAVioUIRenderElement@@PBD@Z
	DD	FLAT:?AddEffect@ioWnd@@UAEXABVioHashString@@PAVioUI3DEffectRender@@@Z
	DD	FLAT:?GetEffect@ioWnd@@UAEPAVioUI3DEffectRender@@VioHashString@@@Z
	DD	FLAT:??_ETutorialWnd@@UAEPAXI@Z
CONST	ENDS
;	COMDAT xdata$x
xdata$x	SEGMENT
__ehfuncinfo$??0TutorialWnd@@QAE@XZ DD 019930522H
	DD	05H
	DD	FLAT:__unwindtable$??0TutorialWnd@@QAE@XZ
	DD	2 DUP(00H)
	DD	2 DUP(00H)
	DD	00H
	DD	01H
__unwindtable$??0TutorialWnd@@QAE@XZ DD 0ffffffffH
	DD	FLAT:__unwindfunclet$??0TutorialWnd@@QAE@XZ$0
	DD	00H
	DD	FLAT:__unwindfunclet$??0TutorialWnd@@QAE@XZ$1
	DD	01H
	DD	FLAT:__unwindfunclet$??0TutorialWnd@@QAE@XZ$2
	DD	02H
	DD	FLAT:__unwindfunclet$??0TutorialWnd@@QAE@XZ$3
	DD	03H
	DD	FLAT:__unwindfunclet$??0TutorialWnd@@QAE@XZ$4
; Function compile flags: /Ogsp
; File d:\lost saga for developer\youtube\tutorial\source\src\lsclient\gui\tutorialwnd.cpp
xdata$x	ENDS
;	COMDAT ??0TutorialWnd@@QAE@XZ
_TEXT	SEGMENT
tv315 = -20						; size = 4
_this$ = -16						; size = 4
__$EHRec$ = -12						; size = 12
??0TutorialWnd@@QAE@XZ PROC				; TutorialWnd::TutorialWnd, COMDAT
; _this$ = ecx

; 101  : {

  00000	6a 08		 push	 8
  00002	b8 00 00 00 00	 mov	 eax, __ehhandler$??0TutorialWnd@@QAE@XZ
  00007	e8 00 00 00 00	 call	 __EH_prolog3
  0000c	8b f1		 mov	 esi, ecx
  0000e	89 75 f0	 mov	 DWORD PTR _this$[ebp], esi
  00011	ff 15 00 00 00
	00		 call	 DWORD PTR __imp_??0ioWnd@@QAE@XZ
  00017	8b 1d 00 00 00
	00		 mov	 ebx, DWORD PTR __imp_??0ioHashString@@QAE@XZ
  0001d	33 ff		 xor	 edi, edi
  0001f	8d 8e 80 01 00
	00		 lea	 ecx, DWORD PTR [esi+384]
  00025	89 7d fc	 mov	 DWORD PTR __$EHRec$[ebp+8], edi
  00028	c7 06 00 00 00
	00		 mov	 DWORD PTR [esi], OFFSET ??_7TutorialWnd@@6B@
  0002e	ff d3		 call	 ebx
  00030	89 be a4 01 00
	00		 mov	 DWORD PTR [esi+420], edi
  00036	89 be a8 01 00
	00		 mov	 DWORD PTR [esi+424], edi
  0003c	89 be ac 01 00
	00		 mov	 DWORD PTR [esi+428], edi
  00042	89 be c4 01 00
	00		 mov	 DWORD PTR [esi+452], edi
  00048	89 be c8 01 00
	00		 mov	 DWORD PTR [esi+456], edi
  0004e	89 be cc 01 00
	00		 mov	 DWORD PTR [esi+460], edi
  00054	8d 8e d4 01 00
	00		 lea	 ecx, DWORD PTR [esi+468]
  0005a	c6 45 fc 03	 mov	 BYTE PTR __$EHRec$[ebp+8], 3
  0005e	ff d3		 call	 ebx
  00060	c6 45 fc 04	 mov	 BYTE PTR __$EHRec$[ebp+8], 4

; 102  : 	m_pHelpBackFrm= NULL;

  00064	89 be 60 01 00
	00		 mov	 DWORD PTR [esi+352], edi

; 103  : 	m_pDevK		  = NULL;

  0006a	89 be 64 01 00
	00		 mov	 DWORD PTR [esi+356], edi

; 104  : 	m_pDevKBack	  = NULL;

  00070	89 be 68 01 00
	00		 mov	 DWORD PTR [esi+360], edi

; 105  : 
; 106  : 	m_iCurStep	  = 0;

  00076	89 be b4 01 00
	00		 mov	 DWORD PTR [esi+436], edi

; 107  : 	m_iMaxStep    = 0;

  0007c	89 be b8 01 00
	00		 mov	 DWORD PTR [esi+440], edi

; 108  : 	m_iCurValue   = 0;

  00082	89 be bc 01 00
	00		 mov	 DWORD PTR [esi+444], edi

; 109  : 	m_iMaxValue	  = 0;

  00088	89 be c0 01 00
	00		 mov	 DWORD PTR [esi+448], edi

; 110  : 	m_fScale	  = FLOAT1;

  0008e	b8 01 00 00 00	 mov	 eax, 1
  00093	89 45 ec	 mov	 DWORD PTR tv315[ebp], eax
  00096	db 45 ec	 fild	 DWORD PTR tv315[ebp]
  00099	85 c0		 test	 eax, eax
  0009b	79 06		 jns	 SHORT $LN27@TutorialWn
  0009d	d8 05 00 00 00
	00		 fadd	 DWORD PTR __real@4f800000
$LN27@TutorialWn:

; 111  : 	m_fFontYGap   = 0.0f;

  000a3	0f 57 c0	 xorps	 xmm0, xmm0
  000a6	d9 9e e4 01 00
	00		 fstp	 DWORD PTR [esi+484]
  000ac	f3 0f 11 86 e8
	01 00 00	 movss	 DWORD PTR [esi+488], xmm0

; 112  : 	m_dwCurTimer  = 0;

  000b4	89 be ec 01 00
	00		 mov	 DWORD PTR [esi+492], edi

; 113  : 	m_dwTextTickTime = 0;	

  000ba	89 be 6c 01 00
	00		 mov	 DWORD PTR [esi+364], edi

; 114  : 	m_dwCurTextTickTime = FRAMEGETTIME();

  000c0	ff 15 00 00 00
	00		 call	 DWORD PTR __imp_?GetSingleton@ioFrameTimer@@SAAAV1@XZ
  000c6	8b c8		 mov	 ecx, eax
  000c8	ff 15 00 00 00
	00		 call	 DWORD PTR __imp_?GetLoopSec@ioFrameTimer@@QBEKXZ

; 115  : 	m_iCurTextTickCount = 0;
; 116  : 	m_iCurTextLineCount = 0;
; 117  : 	m_iShowBtnID		= -1;

  000ce	83 8e 7c 01 00
	00 ff		 or	 DWORD PTR [esi+380], -1
  000d5	89 86 70 01 00
	00		 mov	 DWORD PTR [esi+368], eax
  000db	89 be 74 01 00
	00		 mov	 DWORD PTR [esi+372], edi
  000e1	89 be 78 01 00
	00		 mov	 DWORD PTR [esi+376], edi

; 118  : 	m_dwSkipBtnShowTime    = 0;

  000e7	89 be 90 01 00
	00		 mov	 DWORD PTR [esi+400], edi

; 119  : 	m_dwCurSkipBtnShowTime = 0;

  000ed	89 be 94 01 00
	00		 mov	 DWORD PTR [esi+404], edi

; 120  : 	m_dwAutoNextTime       = 0;

  000f3	89 be 98 01 00
	00		 mov	 DWORD PTR [esi+408], edi

; 121  : 	m_dwCurAutoNextTime    = 0;

  000f9	89 be 9c 01 00
	00		 mov	 DWORD PTR [esi+412], edi

; 122  : 	m_iCurUseSkipBtnID     = 0;

  000ff	89 be a0 01 00
	00		 mov	 DWORD PTR [esi+416], edi

; 123  : 	m_dwCurSkipStepShowTime = 0;

  00105	89 be f0 01 00
	00		 mov	 DWORD PTR [esi+496], edi

; 124  : 	m_dwSkipStepShowTime = 0;

  0010b	89 be f4 01 00
	00		 mov	 DWORD PTR [esi+500], edi

; 125  : }

  00111	8b c6		 mov	 eax, esi
  00113	e8 00 00 00 00	 call	 __EH_epilog3
  00118	c3		 ret	 0
_TEXT	ENDS
;	COMDAT text$x
text$x	SEGMENT
__unwindfunclet$??0TutorialWnd@@QAE@XZ$0:
  00000	8b 4d f0	 mov	 ecx, DWORD PTR _this$[ebp]
  00003	ff 25 00 00 00
	00		 jmp	 DWORD PTR __imp_??1ioWnd@@UAE@XZ
__unwindfunclet$??0TutorialWnd@@QAE@XZ$1:
  00009	8b 4d f0	 mov	 ecx, DWORD PTR _this$[ebp]
  0000c	81 c1 80 01 00
	00		 add	 ecx, 384		; 00000180H
  00012	ff 25 00 00 00
	00		 jmp	 DWORD PTR __imp_??1ioHashString@@QAE@XZ
__unwindfunclet$??0TutorialWnd@@QAE@XZ$2:
  00018	8b 4d f0	 mov	 ecx, DWORD PTR _this$[ebp]
  0001b	81 c1 a4 01 00
	00		 add	 ecx, 420		; 000001a4H
  00021	e9 00 00 00 00	 jmp	 ??1?$vector@UStringTick@TutorialWnd@@V?$allocator@UStringTick@TutorialWnd@@@std@@@std@@QAE@XZ ; std::vector<TutorialWnd::StringTick,std::allocator<TutorialWnd::StringTick> >::~vector<TutorialWnd::StringTick,std::allocator<TutorialWnd::StringTick> >
__unwindfunclet$??0TutorialWnd@@QAE@XZ$3:
  00026	8b 4d f0	 mov	 ecx, DWORD PTR _this$[ebp]
  00029	81 c1 c4 01 00
	00		 add	 ecx, 452		; 000001c4H
  0002f	e9 00 00 00 00	 jmp	 ??1?$vector@V?$basic_string@DU?$char_traits@D@std@@V?$allocator@D@2@@std@@V?$allocator@V?$basic_string@DU?$char_traits@D@std@@V?$allocator@D@2@@std@@@2@@std@@QAE@XZ ; std::vector<std::basic_string<char,std::char_traits<char>,std::allocator<char> >,std::allocator<std::basic_string<char,std::char_traits<char>,std::allocator<char> > > >::~vector<std::basic_string<char,std::char_traits<char>,std::allocator<char> >,std::allocator<std::basic_string<char,std::char_traits<char>,std::allocator<char> > > >
__unwindfunclet$??0TutorialWnd@@QAE@XZ$4:
  00034	8b 4d f0	 mov	 ecx, DWORD PTR _this$[ebp]
  00037	81 c1 d4 01 00
	00		 add	 ecx, 468		; 000001d4H
  0003d	ff 25 00 00 00
	00		 jmp	 DWORD PTR __imp_??1ioHashString@@QAE@XZ
__ehhandler$??0TutorialWnd@@QAE@XZ:
  00043	8b 54 24 08	 mov	 edx, DWORD PTR [esp+8]
  00047	8d 42 0c	 lea	 eax, DWORD PTR [edx+12]
  0004a	8b 4a e8	 mov	 ecx, DWORD PTR [edx-24]
  0004d	33 c8		 xor	 ecx, eax
  0004f	e8 00 00 00 00	 call	 @__security_check_cookie@4
  00054	b8 00 00 00 00	 mov	 eax, OFFSET __ehfuncinfo$??0TutorialWnd@@QAE@XZ
  00059	e9 00 00 00 00	 jmp	 ___CxxFrameHandler3
text$x	ENDS
??0TutorialWnd@@QAE@XZ ENDP				; TutorialWnd::TutorialWnd
PUBLIC	??1TutorialWnd@@UAE@XZ				; TutorialWnd::~TutorialWnd
;	COMDAT xdata$x
; File c:\program files (x86)\microsoft visual studio 10.0\vc\include\vector
xdata$x	SEGMENT
__ehfuncinfo$??1TutorialWnd@@UAE@XZ DD 019930522H
	DD	05H
	DD	FLAT:__unwindtable$??1TutorialWnd@@UAE@XZ
	DD	2 DUP(00H)
	DD	2 DUP(00H)
	DD	00H
	DD	01H
__unwindtable$??1TutorialWnd@@UAE@XZ DD 0ffffffffH
	DD	FLAT:__unwindfunclet$??1TutorialWnd@@UAE@XZ$0
	DD	00H
	DD	FLAT:__unwindfunclet$??1TutorialWnd@@UAE@XZ$1
	DD	01H
	DD	FLAT:__unwindfunclet$??1TutorialWnd@@UAE@XZ$2
	DD	02H
	DD	FLAT:__unwindfunclet$??1TutorialWnd@@UAE@XZ$3
	DD	03H
	DD	FLAT:__unwindfunclet$??1TutorialWnd@@UAE@XZ$4
; Function compile flags: /Ogsp
; File d:\lost saga for developer\youtube\tutorial\source\src\lsclient\gui\tutorialwnd.cpp
xdata$x	ENDS
;	COMDAT ??1TutorialWnd@@UAE@XZ
_TEXT	SEGMENT
_this$ = -16						; size = 4
__$EHRec$ = -12						; size = 12
??1TutorialWnd@@UAE@XZ PROC				; TutorialWnd::~TutorialWnd, COMDAT
; _this$ = ecx

; 128  : {

  00000	6a 04		 push	 4
  00002	b8 00 00 00 00	 mov	 eax, __ehhandler$??1TutorialWnd@@UAE@XZ
  00007	e8 00 00 00 00	 call	 __EH_prolog3
  0000c	8b f1		 mov	 esi, ecx
  0000e	89 75 f0	 mov	 DWORD PTR _this$[ebp], esi
  00011	c7 06 00 00 00
	00		 mov	 DWORD PTR [esi], OFFSET ??_7TutorialWnd@@6B@

; 129  : 	SAFEDELETE( m_pHelpBackFrm );

  00017	8b 8e 60 01 00
	00		 mov	 ecx, DWORD PTR [esi+352]
  0001d	c7 45 fc 04 00
	00 00		 mov	 DWORD PTR __$EHRec$[ebp+8], 4
  00024	85 c9		 test	 ecx, ecx
  00026	74 0e		 je	 SHORT $LN3@TutorialWn@2
  00028	8b 01		 mov	 eax, DWORD PTR [ecx]
  0002a	6a 01		 push	 1
  0002c	ff 50 40	 call	 DWORD PTR [eax+64]
  0002f	83 a6 60 01 00
	00 00		 and	 DWORD PTR [esi+352], 0
$LN3@TutorialWn@2:

; 130  : 	SAFEDELETE( m_pDevK );

  00036	8b 8e 64 01 00
	00		 mov	 ecx, DWORD PTR [esi+356]
  0003c	85 c9		 test	 ecx, ecx
  0003e	74 0e		 je	 SHORT $LN2@TutorialWn@2
  00040	8b 01		 mov	 eax, DWORD PTR [ecx]
  00042	6a 01		 push	 1
  00044	ff 50 40	 call	 DWORD PTR [eax+64]
  00047	83 a6 64 01 00
	00 00		 and	 DWORD PTR [esi+356], 0
$LN2@TutorialWn@2:

; 131  : 	SAFEDELETE( m_pDevKBack );

  0004e	8b 8e 68 01 00
	00		 mov	 ecx, DWORD PTR [esi+360]
  00054	85 c9		 test	 ecx, ecx
  00056	74 0e		 je	 SHORT $LN1@TutorialWn@2
  00058	8b 01		 mov	 eax, DWORD PTR [ecx]
  0005a	6a 01		 push	 1
  0005c	ff 50 40	 call	 DWORD PTR [eax+64]
  0005f	83 a6 68 01 00
	00 00		 and	 DWORD PTR [esi+360], 0
$LN1@TutorialWn@2:

; 132  : }

  00066	8b 3d 00 00 00
	00		 mov	 edi, DWORD PTR __imp_??1ioHashString@@QAE@XZ
  0006c	8d 8e d4 01 00
	00		 lea	 ecx, DWORD PTR [esi+468]
  00072	c6 45 fc 03	 mov	 BYTE PTR __$EHRec$[ebp+8], 3
  00076	ff d7		 call	 edi
  00078	8d 8e c4 01 00
	00		 lea	 ecx, DWORD PTR [esi+452]
  0007e	c6 45 fc 02	 mov	 BYTE PTR __$EHRec$[ebp+8], 2
  00082	e8 00 00 00 00	 call	 ?_Tidy@?$vector@V?$basic_string@DU?$char_traits@D@std@@V?$allocator@D@2@@std@@V?$allocator@V?$basic_string@DU?$char_traits@D@std@@V?$allocator@D@2@@std@@@2@@std@@IAEXXZ ; std::vector<std::basic_string<char,std::char_traits<char>,std::allocator<char> >,std::allocator<std::basic_string<char,std::char_traits<char>,std::allocator<char> > > >::_Tidy
  00087	8d 8e a4 01 00
	00		 lea	 ecx, DWORD PTR [esi+420]
  0008d	c6 45 fc 01	 mov	 BYTE PTR __$EHRec$[ebp+8], 1
  00091	e8 00 00 00 00	 call	 ?_Tidy@?$vector@UStringTick@TutorialWnd@@V?$allocator@UStringTick@TutorialWnd@@@std@@@std@@IAEXXZ ; std::vector<TutorialWnd::StringTick,std::allocator<TutorialWnd::StringTick> >::_Tidy
  00096	8d 8e 80 01 00
	00		 lea	 ecx, DWORD PTR [esi+384]
  0009c	c6 45 fc 00	 mov	 BYTE PTR __$EHRec$[ebp+8], 0
  000a0	ff d7		 call	 edi
  000a2	83 4d fc ff	 or	 DWORD PTR __$EHRec$[ebp+8], -1
  000a6	8b ce		 mov	 ecx, esi
  000a8	ff 15 00 00 00
	00		 call	 DWORD PTR __imp_??1ioWnd@@UAE@XZ
  000ae	e8 00 00 00 00	 call	 __EH_epilog3
  000b3	c3		 ret	 0
_TEXT	ENDS
;	COMDAT text$x
text$x	SEGMENT
__unwindfunclet$??1TutorialWnd@@UAE@XZ$0:
  00000	8b 4d f0	 mov	 ecx, DWORD PTR _this$[ebp]
  00003	ff 25 00 00 00
	00		 jmp	 DWORD PTR __imp_??1ioWnd@@UAE@XZ
__unwindfunclet$??1TutorialWnd@@UAE@XZ$1:
  00009	8b 4d f0	 mov	 ecx, DWORD PTR _this$[ebp]
  0000c	81 c1 80 01 00
	00		 add	 ecx, 384		; 00000180H
  00012	ff 25 00 00 00
	00		 jmp	 DWORD PTR __imp_??1ioHashString@@QAE@XZ
__unwindfunclet$??1TutorialWnd@@UAE@XZ$2:
  00018	8b 4d f0	 mov	 ecx, DWORD PTR _this$[ebp]
  0001b	81 c1 a4 01 00
	00		 add	 ecx, 420		; 000001a4H
  00021	e9 00 00 00 00	 jmp	 ??1?$vector@UStringTick@TutorialWnd@@V?$allocator@UStringTick@TutorialWnd@@@std@@@std@@QAE@XZ ; std::vector<TutorialWnd::StringTick,std::allocator<TutorialWnd::StringTick> >::~vector<TutorialWnd::StringTick,std::allocator<TutorialWnd::StringTick> >
__unwindfunclet$??1TutorialWnd@@UAE@XZ$3:
  00026	8b 4d f0	 mov	 ecx, DWORD PTR _this$[ebp]
  00029	81 c1 c4 01 00
	00		 add	 ecx, 452		; 000001c4H
  0002f	e9 00 00 00 00	 jmp	 ??1?$vector@V?$basic_string@DU?$char_traits@D@std@@V?$allocator@D@2@@std@@V?$allocator@V?$basic_string@DU?$char_traits@D@std@@V?$allocator@D@2@@std@@@2@@std@@QAE@XZ ; std::vector<std::basic_string<char,std::char_traits<char>,std::allocator<char> >,std::allocator<std::basic_string<char,std::char_traits<char>,std::allocator<char> > > >::~vector<std::basic_string<char,std::char_traits<char>,std::allocator<char> >,std::allocator<std::basic_string<char,std::char_traits<char>,std::allocator<char> > > >
__unwindfunclet$??1TutorialWnd@@UAE@XZ$4:
  00034	8b 4d f0	 mov	 ecx, DWORD PTR _this$[ebp]
  00037	81 c1 d4 01 00
	00		 add	 ecx, 468		; 000001d4H
  0003d	ff 25 00 00 00
	00		 jmp	 DWORD PTR __imp_??1ioHashString@@QAE@XZ
__ehhandler$??1TutorialWnd@@UAE@XZ:
  00043	8b 54 24 08	 mov	 edx, DWORD PTR [esp+8]
  00047	8d 42 0c	 lea	 eax, DWORD PTR [edx+12]
  0004a	8b 4a ec	 mov	 ecx, DWORD PTR [edx-20]
  0004d	33 c8		 xor	 ecx, eax
  0004f	e8 00 00 00 00	 call	 @__security_check_cookie@4
  00054	b8 00 00 00 00	 mov	 eax, OFFSET __ehfuncinfo$??1TutorialWnd@@UAE@XZ
  00059	e9 00 00 00 00	 jmp	 ___CxxFrameHandler3
text$x	ENDS
??1TutorialWnd@@UAE@XZ ENDP				; TutorialWnd::~TutorialWnd
PUBLIC	??4?$vector@V?$basic_string@DU?$char_traits@D@std@@V?$allocator@D@2@@std@@V?$allocator@V?$basic_string@DU?$char_traits@D@std@@V?$allocator@D@2@@std@@@2@@std@@QAEAAV01@ABV01@@Z ; std::vector<std::basic_string<char,std::char_traits<char>,std::allocator<char> >,std::allocator<std::basic_string<char,std::char_traits<char>,std::allocator<char> > > >::operator=
; Function compile flags: /Ogsp
; File c:\program files (x86)\microsoft visual studio 10.0\vc\include\vector
;	COMDAT ??4?$vector@V?$basic_string@DU?$char_traits@D@std@@V?$allocator@D@2@@std@@V?$allocator@V?$basic_string@DU?$char_traits@D@std@@V?$allocator@D@2@@std@@@2@@std@@QAEAAV01@ABV01@@Z
_TEXT	SEGMENT
tv551 = 8						; size = 4
__Cat$527606 = 8					; size = 1
__Cat$527573 = 8					; size = 1
__Cat$527551 = 8					; size = 1
__Cat$527529 = 8					; size = 1
__Cat$527502 = 8					; size = 1
__Cat$527480 = 8					; size = 1
$T527446 = 8						; size = 4
__Right$ = 8						; size = 4
??4?$vector@V?$basic_string@DU?$char_traits@D@std@@V?$allocator@D@2@@std@@V?$allocator@V?$basic_string@DU?$char_traits@D@std@@V?$allocator@D@2@@std@@@2@@std@@QAEAAV01@ABV01@@Z PROC ; std::vector<std::basic_string<char,std::char_traits<char>,std::allocator<char> >,std::allocator<std::basic_string<char,std::char_traits<char>,std::allocator<char> > > >::operator=, COMDAT
; _this$ = ecx

; 709  : 		{	// assign _Right

  00000	55		 push	 ebp
  00001	8b ec		 mov	 ebp, esp
  00003	56		 push	 esi
  00004	57		 push	 edi

; 710  : 		if (this != &_Right)

  00005	8b 7d 08	 mov	 edi, DWORD PTR __Right$[ebp]
  00008	8b f1		 mov	 esi, ecx
  0000a	3b f7		 cmp	 esi, edi
  0000c	0f 84 09 01 00
	00		 je	 $LN1@operator@8

; 711  : 			{	// worth doing
; 712  : 			this->_Orphan_all();

  00012	ff 15 00 00 00
	00		 call	 DWORD PTR __imp_?_Orphan_all@_Container_base0@std@@QAEXXZ

; 713  : 
; 714  : 			if (_Right.size() == 0)

  00018	8b 47 04	 mov	 eax, DWORD PTR [edi+4]
  0001b	2b 07		 sub	 eax, DWORD PTR [edi]
  0001d	6a 1c		 push	 28			; 0000001cH
  0001f	99		 cdq
  00020	59		 pop	 ecx
  00021	f7 f9		 idiv	 ecx
  00023	89 45 08	 mov	 DWORD PTR tv551[ebp], eax
  00026	85 c0		 test	 eax, eax

; 715  : 				clear();	// new sequence empty, erase existing sequence

  00028	8b 46 04	 mov	 eax, DWORD PTR [esi+4]
  0002b	75 14		 jne	 SHORT $LN8@operator@8
  0002d	8b 0e		 mov	 ecx, DWORD PTR [esi]
  0002f	50		 push	 eax
  00030	51		 push	 ecx
  00031	8d 45 08	 lea	 eax, DWORD PTR $T527446[ebp]
  00034	50		 push	 eax
  00035	8b ce		 mov	 ecx, esi
  00037	e8 00 00 00 00	 call	 ?erase@?$vector@V?$basic_string@DU?$char_traits@D@std@@V?$allocator@D@2@@std@@V?$allocator@V?$basic_string@DU?$char_traits@D@std@@V?$allocator@D@2@@std@@@2@@std@@QAE?AV?$_Vector_iterator@V?$_Vector_val@V?$basic_string@DU?$char_traits@D@std@@V?$allocator@D@2@@std@@V?$allocator@V?$basic_string@DU?$char_traits@D@std@@V?$allocator@D@2@@std@@@2@@std@@@2@V?$_Vector_const_iterator@V?$_Vector_val@V?$basic_string@DU?$char_traits@D@std@@V?$allocator@D@2@@std@@V?$allocator@V?$basic_string@DU?$char_traits@D@std@@V?$allocator@D@2@@std@@@2@@std@@@2@0@Z ; std::vector<std::basic_string<char,std::char_traits<char>,std::allocator<char> >,std::allocator<std::basic_string<char,std::char_traits<char>,std::allocator<char> > > >::erase

; 716  : 			else if (_Right.size() <= size())

  0003c	e9 da 00 00 00	 jmp	 $LN1@operator@8
$LN8@operator@8:
  00041	53		 push	 ebx
  00042	8b 1e		 mov	 ebx, DWORD PTR [esi]
  00044	2b c3		 sub	 eax, ebx
  00046	6a 1c		 push	 28			; 0000001cH
  00048	99		 cdq
  00049	59		 pop	 ecx
  0004a	f7 f9		 idiv	 ecx
  0004c	8b c8		 mov	 ecx, eax
  0004e	39 4d 08	 cmp	 DWORD PTR tv551[ebp], ecx
  00051	77 36		 ja	 SHORT $LN6@operator@8

; 717  : 				{	// enough elements, copy new and destroy old
; 718  : 				pointer _Ptr = _STD _Copy_impl(_Right._Myfirst, _Right._Mylast,
; 719  : 					this->_Myfirst);	// copy new

  00053	ff 75 08	 push	 DWORD PTR __Cat$527480[ebp]
  00056	53		 push	 ebx
  00057	ff 77 04	 push	 DWORD PTR [edi+4]
  0005a	ff 37		 push	 DWORD PTR [edi]
  0005c	e8 00 00 00 00	 call	 ??$_Copy_impl@PAV?$basic_string@DU?$char_traits@D@std@@V?$allocator@D@2@@std@@PAV12@@std@@YAPAV?$basic_string@DU?$char_traits@D@std@@V?$allocator@D@2@@0@PAV10@00U_Nonscalar_ptr_iterator_tag@0@@Z ; std::_Copy_impl<std::basic_string<char,std::char_traits<char>,std::allocator<char> > *,std::basic_string<char,std::char_traits<char>,std::allocator<char> > *>

; 720  : 				_Destroy(_Ptr, this->_Mylast);	// destroy old

  00061	ff 75 08	 push	 DWORD PTR __Cat$527502[ebp]
  00064	8d 4e 0c	 lea	 ecx, DWORD PTR [esi+12]
  00067	51		 push	 ecx
  00068	ff 76 04	 push	 DWORD PTR [esi+4]
  0006b	50		 push	 eax
  0006c	e8 00 00 00 00	 call	 ??$_Destroy_range@V?$allocator@V?$basic_string@DU?$char_traits@D@std@@V?$allocator@D@2@@std@@@std@@@std@@YAXPAV?$basic_string@DU?$char_traits@D@std@@V?$allocator@D@2@@0@0AAV?$allocator@V?$basic_string@DU?$char_traits@D@std@@V?$allocator@D@2@@std@@@0@U_Nonscalar_ptr_iterator_tag@0@@Z ; std::_Destroy_range<std::allocator<std::basic_string<char,std::char_traits<char>,std::allocator<char> > > >

; 721  : 				this->_Mylast = this->_Myfirst + _Right.size();

  00071	8b 47 04	 mov	 eax, DWORD PTR [edi+4]
  00074	2b 07		 sub	 eax, DWORD PTR [edi]
  00076	83 c4 20	 add	 esp, 32			; 00000020H
  00079	99		 cdq
  0007a	6a 1c		 push	 28			; 0000001cH
  0007c	59		 pop	 ecx
  0007d	f7 f9		 idiv	 ecx
  0007f	6b c0 1c	 imul	 eax, 28			; 0000001cH
  00082	03 06		 add	 eax, DWORD PTR [esi]

; 722  : 				}
; 723  : 			else if (_Right.size() <= capacity())

  00084	e9 8e 00 00 00	 jmp	 $LN81@operator@8
$LN6@operator@8:
  00089	8b 46 08	 mov	 eax, DWORD PTR [esi+8]
  0008c	2b c3		 sub	 eax, ebx
  0008e	6a 1c		 push	 28			; 0000001cH
  00090	99		 cdq
  00091	5b		 pop	 ebx
  00092	f7 fb		 idiv	 ebx
  00094	39 45 08	 cmp	 DWORD PTR tv551[ebp], eax
  00097	77 2e		 ja	 SHORT $LN4@operator@8

; 724  : 				{	// enough room, copy and construct new
; 725  : 				pointer _Ptr = _Right._Myfirst + size();
; 726  : 				_STD _Copy_impl(_Right._Myfirst, _Ptr, this->_Myfirst);

  00099	ff 75 08	 push	 DWORD PTR __Cat$527529[ebp]
  0009c	6b c9 1c	 imul	 ecx, 28			; 0000001cH
  0009f	8b 07		 mov	 eax, DWORD PTR [edi]
  000a1	ff 36		 push	 DWORD PTR [esi]
  000a3	8d 1c 08	 lea	 ebx, DWORD PTR [eax+ecx]
  000a6	53		 push	 ebx
  000a7	50		 push	 eax
  000a8	e8 00 00 00 00	 call	 ??$_Copy_impl@PAV?$basic_string@DU?$char_traits@D@std@@V?$allocator@D@2@@std@@PAV12@@std@@YAPAV?$basic_string@DU?$char_traits@D@std@@V?$allocator@D@2@@0@PAV10@00U_Nonscalar_ptr_iterator_tag@0@@Z ; std::_Copy_impl<std::basic_string<char,std::char_traits<char>,std::allocator<char> > *,std::basic_string<char,std::char_traits<char>,std::allocator<char> > *>

; 727  : 				this->_Mylast = _Ucopy(_Ptr, _Right._Mylast, this->_Mylast);

  000ad	ff 75 08	 push	 DWORD PTR __Cat$527551[ebp]
  000b0	8b 46 04	 mov	 eax, DWORD PTR [esi+4]
  000b3	8b 7f 04	 mov	 edi, DWORD PTR [edi+4]
  000b6	8d 4e 0c	 lea	 ecx, DWORD PTR [esi+12]
  000b9	51		 push	 ecx
  000ba	50		 push	 eax
  000bb	57		 push	 edi
  000bc	53		 push	 ebx
  000bd	e8 00 00 00 00	 call	 ??$_Uninit_copy@PAV?$basic_string@DU?$char_traits@D@std@@V?$allocator@D@2@@std@@PAV12@V?$allocator@V?$basic_string@DU?$char_traits@D@std@@V?$allocator@D@2@@std@@@2@@std@@YAPAV?$basic_string@DU?$char_traits@D@std@@V?$allocator@D@2@@0@PAV10@00AAV?$allocator@V?$basic_string@DU?$char_traits@D@std@@V?$allocator@D@2@@std@@@0@U_Nonscalar_ptr_iterator_tag@0@@Z ; std::_Uninit_copy<std::basic_string<char,std::char_traits<char>,std::allocator<char> > *,std::basic_string<char,std::char_traits<char>,std::allocator<char> > *,std::allocator<std::basic_string<char,std::char_traits<char>,std::allocator<char> > > >
  000c2	83 c4 24	 add	 esp, 36			; 00000024H

; 728  : 				}
; 729  : 			else

  000c5	eb 50		 jmp	 SHORT $LN81@operator@8
$LN4@operator@8:

; 730  : 				{	// not enough room, allocate new array and construct new
; 731  : 				if (this->_Myfirst != 0)

  000c7	8b 06		 mov	 eax, DWORD PTR [esi]
  000c9	85 c0		 test	 eax, eax
  000cb	74 1a		 je	 SHORT $LN70@operator@8

; 732  : 					{	// discard old array
; 733  : 					_Destroy(this->_Myfirst, this->_Mylast);

  000cd	ff 75 08	 push	 DWORD PTR __Cat$527573[ebp]
  000d0	8d 4e 0c	 lea	 ecx, DWORD PTR [esi+12]
  000d3	51		 push	 ecx
  000d4	ff 76 04	 push	 DWORD PTR [esi+4]
  000d7	50		 push	 eax
  000d8	e8 00 00 00 00	 call	 ??$_Destroy_range@V?$allocator@V?$basic_string@DU?$char_traits@D@std@@V?$allocator@D@2@@std@@@std@@@std@@YAXPAV?$basic_string@DU?$char_traits@D@std@@V?$allocator@D@2@@0@0AAV?$allocator@V?$basic_string@DU?$char_traits@D@std@@V?$allocator@D@2@@std@@@0@U_Nonscalar_ptr_iterator_tag@0@@Z ; std::_Destroy_range<std::allocator<std::basic_string<char,std::char_traits<char>,std::allocator<char> > > >

; 734  : 					this->_Alval.deallocate(this->_Myfirst,
; 735  : 						this->_Myend - this->_Myfirst);

  000dd	ff 36		 push	 DWORD PTR [esi]
  000df	e8 00 00 00 00	 call	 ??3@YAXPAX@Z		; operator delete
  000e4	83 c4 14	 add	 esp, 20			; 00000014H
$LN70@operator@8:

; 736  : 					}
; 737  : 				if (_Buy(_Right.size()))

  000e7	8b 47 04	 mov	 eax, DWORD PTR [edi+4]
  000ea	2b 07		 sub	 eax, DWORD PTR [edi]
  000ec	6a 1c		 push	 28			; 0000001cH
  000ee	59		 pop	 ecx
  000ef	99		 cdq
  000f0	f7 f9		 idiv	 ecx
  000f2	8b ce		 mov	 ecx, esi
  000f4	50		 push	 eax
  000f5	e8 00 00 00 00	 call	 ?_Buy@?$vector@V?$basic_string@DU?$char_traits@D@std@@V?$allocator@D@2@@std@@V?$allocator@V?$basic_string@DU?$char_traits@D@std@@V?$allocator@D@2@@std@@@2@@std@@IAE_NI@Z ; std::vector<std::basic_string<char,std::char_traits<char>,std::allocator<char> >,std::allocator<std::basic_string<char,std::char_traits<char>,std::allocator<char> > > >::_Buy
  000fa	84 c0		 test	 al, al
  000fc	74 1c		 je	 SHORT $LN80@operator@8

; 738  : 					this->_Mylast = _Ucopy(_Right._Myfirst, _Right._Mylast,
; 739  : 						this->_Myfirst);

  000fe	ff 75 08	 push	 DWORD PTR __Cat$527606[ebp]
  00101	8b 06		 mov	 eax, DWORD PTR [esi]
  00103	8b 4f 04	 mov	 ecx, DWORD PTR [edi+4]
  00106	8b 3f		 mov	 edi, DWORD PTR [edi]
  00108	8d 56 0c	 lea	 edx, DWORD PTR [esi+12]
  0010b	52		 push	 edx
  0010c	50		 push	 eax
  0010d	51		 push	 ecx
  0010e	57		 push	 edi
  0010f	e8 00 00 00 00	 call	 ??$_Uninit_copy@PAV?$basic_string@DU?$char_traits@D@std@@V?$allocator@D@2@@std@@PAV12@V?$allocator@V?$basic_string@DU?$char_traits@D@std@@V?$allocator@D@2@@std@@@2@@std@@YAPAV?$basic_string@DU?$char_traits@D@std@@V?$allocator@D@2@@0@PAV10@00AAV?$allocator@V?$basic_string@DU?$char_traits@D@std@@V?$allocator@D@2@@std@@@0@U_Nonscalar_ptr_iterator_tag@0@@Z ; std::_Uninit_copy<std::basic_string<char,std::char_traits<char>,std::allocator<char> > *,std::basic_string<char,std::char_traits<char>,std::allocator<char> > *,std::allocator<std::basic_string<char,std::char_traits<char>,std::allocator<char> > > >
  00114	83 c4 14	 add	 esp, 20			; 00000014H
$LN81@operator@8:
  00117	89 46 04	 mov	 DWORD PTR [esi+4], eax
$LN80@operator@8:
  0011a	5b		 pop	 ebx
$LN1@operator@8:
  0011b	5f		 pop	 edi

; 740  : 				}
; 741  : 			}
; 742  : 		return (*this);

  0011c	8b c6		 mov	 eax, esi
  0011e	5e		 pop	 esi

; 743  : 		}

  0011f	5d		 pop	 ebp
  00120	c2 04 00	 ret	 4
??4?$vector@V?$basic_string@DU?$char_traits@D@std@@V?$allocator@D@2@@std@@V?$allocator@V?$basic_string@DU?$char_traits@D@std@@V?$allocator@D@2@@std@@@2@@std@@QAEAAV01@ABV01@@Z ENDP ; std::vector<std::basic_string<char,std::char_traits<char>,std::allocator<char> >,std::allocator<std::basic_string<char,std::char_traits<char>,std::allocator<char> > > >::operator=
; Function compile flags: /Ogsp
_TEXT	ENDS
;	COMDAT ??_GTutorialWnd@@UAEPAXI@Z
_TEXT	SEGMENT
___flags$ = 8						; size = 4
??_GTutorialWnd@@UAEPAXI@Z PROC				; TutorialWnd::`scalar deleting destructor', COMDAT
; _this$ = ecx
  00000	55		 push	 ebp
  00001	8b ec		 mov	 ebp, esp
  00003	56		 push	 esi
  00004	8b f1		 mov	 esi, ecx
  00006	e8 00 00 00 00	 call	 ??1TutorialWnd@@UAE@XZ	; TutorialWnd::~TutorialWnd
  0000b	f6 45 08 01	 test	 BYTE PTR ___flags$[ebp], 1
  0000f	74 07		 je	 SHORT $LN1@scalar@5
  00011	56		 push	 esi
  00012	e8 00 00 00 00	 call	 ??3@YAXPAX@Z		; operator delete
  00017	59		 pop	 ecx
$LN1@scalar@5:
  00018	8b c6		 mov	 eax, esi
  0001a	5e		 pop	 esi
  0001b	5d		 pop	 ebp
  0001c	c2 04 00	 ret	 4
??_GTutorialWnd@@UAEPAXI@Z ENDP				; TutorialWnd::`scalar deleting destructor'
_TEXT	ENDS
PUBLIC	??_C@_01IPJKGB@?$CD?$AA@			; `string'
PUBLIC	_szDesc$GSCopy$
PUBLIC	?SplitDescription@TutorialWnd@@IAEXABVioHashString@@@Z ; TutorialWnd::SplitDescription
EXTRN	__imp_?Split@ioStringConverter@@SAABV?$vector@V?$basic_string@DU?$char_traits@D@std@@V?$allocator@D@2@@std@@V?$allocator@V?$basic_string@DU?$char_traits@D@std@@V?$allocator@D@2@@std@@@2@@std@@ABV?$basic_string@DU?$char_traits@D@std@@V?$allocator@D@2@@3@0H@Z:PROC
;	COMDAT ??_C@_01IPJKGB@?$CD?$AA@
; File c:\program files (x86)\microsoft visual studio 10.0\vc\include\xstring
CONST	SEGMENT
??_C@_01IPJKGB@?$CD?$AA@ DB '#', 00H			; `string'
CONST	ENDS
;	COMDAT xdata$x
xdata$x	SEGMENT
__unwindtable$?SplitDescription@TutorialWnd@@IAEXABVioHashString@@@Z DD 0ffffffffH
	DD	FLAT:__unwindfunclet$?SplitDescription@TutorialWnd@@IAEXABVioHashString@@@Z$0
	DD	00H
	DD	FLAT:__unwindfunclet$?SplitDescription@TutorialWnd@@IAEXABVioHashString@@@Z$1
__ehfuncinfo$?SplitDescription@TutorialWnd@@IAEXABVioHashString@@@Z DD 019930522H
	DD	02H
	DD	FLAT:__unwindtable$?SplitDescription@TutorialWnd@@IAEXABVioHashString@@@Z
	DD	2 DUP(00H)
	DD	2 DUP(00H)
	DD	00H
	DD	01H
; Function compile flags: /Ogsp
; File d:\lost saga for developer\youtube\tutorial\source\src\lsclient\gui\tutorialwnd.cpp
xdata$x	ENDS
;	COMDAT ?SplitDescription@TutorialWnd@@IAEXABVioHashString@@@Z
_TEXT	SEGMENT
$T527682 = -80						; size = 4
_szDesc$GSCopy$ = -76					; size = 4
$T516978 = -72						; size = 28
$T516979 = -44						; size = 28
__$EHRec$ = -12						; size = 12
_szDesc$ = 8						; size = 4
?SplitDescription@TutorialWnd@@IAEXABVioHashString@@@Z PROC ; TutorialWnd::SplitDescription, COMDAT
; _this$ = ecx

; 227  : {

  00000	6a 44		 push	 68			; 00000044H
  00002	b8 00 00 00 00	 mov	 eax, __ehhandler$?SplitDescription@TutorialWnd@@IAEXABVioHashString@@@Z
  00007	e8 00 00 00 00	 call	 __EH_prolog3_GS
  0000c	8b 45 08	 mov	 eax, DWORD PTR _szDesc$[ebp]
  0000f	8b f1		 mov	 esi, ecx

; 228  : 	m_DescList.clear();

  00011	8b 8e c4 01 00
	00		 mov	 ecx, DWORD PTR [esi+452]
  00017	89 45 b4	 mov	 DWORD PTR _szDesc$GSCopy$[ebp], eax
  0001a	8b 86 c8 01 00
	00		 mov	 eax, DWORD PTR [esi+456]
  00020	50		 push	 eax
  00021	51		 push	 ecx
  00022	8d 45 b0	 lea	 eax, DWORD PTR $T527682[ebp]
  00025	50		 push	 eax
  00026	8d 8e c4 01 00
	00		 lea	 ecx, DWORD PTR [esi+452]
  0002c	e8 00 00 00 00	 call	 ?erase@?$vector@V?$basic_string@DU?$char_traits@D@std@@V?$allocator@D@2@@std@@V?$allocator@V?$basic_string@DU?$char_traits@D@std@@V?$allocator@D@2@@std@@@2@@std@@QAE?AV?$_Vector_iterator@V?$_Vector_val@V?$basic_string@DU?$char_traits@D@std@@V?$allocator@D@2@@std@@V?$allocator@V?$basic_string@DU?$char_traits@D@std@@V?$allocator@D@2@@std@@@2@@std@@@2@V?$_Vector_const_iterator@V?$_Vector_val@V?$basic_string@DU?$char_traits@D@std@@V?$allocator@D@2@@std@@V?$allocator@V?$basic_string@DU?$char_traits@D@std@@V?$allocator@D@2@@std@@@2@@std@@@2@0@Z ; std::vector<std::basic_string<char,std::char_traits<char>,std::allocator<char> >,std::allocator<std::basic_string<char,std::char_traits<char>,std::allocator<char> > > >::erase

; 229  : 	m_DescList = ioStringConverter::Split( szDesc.c_str(), "#" );

  00031	6a 0f		 push	 15			; 0000000fH
  00033	5f		 pop	 edi
  00034	6a 01		 push	 1
  00036	33 db		 xor	 ebx, ebx
  00038	68 00 00 00 00	 push	 OFFSET ??_C@_01IPJKGB@?$CD?$AA@
  0003d	8d 4d b8	 lea	 ecx, DWORD PTR $T516978[ebp]
  00040	89 7d cc	 mov	 DWORD PTR $T516978[ebp+20], edi
  00043	89 5d c8	 mov	 DWORD PTR $T516978[ebp+16], ebx
  00046	88 5d b8	 mov	 BYTE PTR $T516978[ebp], bl
  00049	e8 00 00 00 00	 call	 ?assign@?$basic_string@DU?$char_traits@D@std@@V?$allocator@D@2@@std@@QAEAAV12@PBDI@Z ; std::basic_string<char,std::char_traits<char>,std::allocator<char> >::assign
  0004e	8b 4d b4	 mov	 ecx, DWORD PTR _szDesc$GSCopy$[ebp]
  00051	89 5d fc	 mov	 DWORD PTR __$EHRec$[ebp+8], ebx
  00054	ff 15 00 00 00
	00		 call	 DWORD PTR __imp_?c_str@ioHashString@@QBEPBDXZ
  0005a	50		 push	 eax
  0005b	8d 4d d4	 lea	 ecx, DWORD PTR $T516979[ebp]
  0005e	89 7d e8	 mov	 DWORD PTR $T516979[ebp+20], edi
  00061	89 5d e4	 mov	 DWORD PTR $T516979[ebp+16], ebx
  00064	88 5d d4	 mov	 BYTE PTR $T516979[ebp], bl
  00067	e8 00 00 00 00	 call	 ?assign@?$basic_string@DU?$char_traits@D@std@@V?$allocator@D@2@@std@@QAEAAV12@PBD@Z ; std::basic_string<char,std::char_traits<char>,std::allocator<char> >::assign
  0006c	53		 push	 ebx
  0006d	8d 45 b8	 lea	 eax, DWORD PTR $T516978[ebp]
  00070	50		 push	 eax
  00071	8d 45 d4	 lea	 eax, DWORD PTR $T516979[ebp]
  00074	50		 push	 eax
  00075	c6 45 fc 01	 mov	 BYTE PTR __$EHRec$[ebp+8], 1
  00079	ff 15 00 00 00
	00		 call	 DWORD PTR __imp_?Split@ioStringConverter@@SAABV?$vector@V?$basic_string@DU?$char_traits@D@std@@V?$allocator@D@2@@std@@V?$allocator@V?$basic_string@DU?$char_traits@D@std@@V?$allocator@D@2@@std@@@2@@std@@ABV?$basic_string@DU?$char_traits@D@std@@V?$allocator@D@2@@3@0H@Z
  0007f	83 c4 0c	 add	 esp, 12			; 0000000cH
  00082	50		 push	 eax
  00083	8d 8e c4 01 00
	00		 lea	 ecx, DWORD PTR [esi+452]
  00089	e8 00 00 00 00	 call	 ??4?$vector@V?$basic_string@DU?$char_traits@D@std@@V?$allocator@D@2@@std@@V?$allocator@V?$basic_string@DU?$char_traits@D@std@@V?$allocator@D@2@@std@@@2@@std@@QAEAAV01@ABV01@@Z ; std::vector<std::basic_string<char,std::char_traits<char>,std::allocator<char> >,std::allocator<std::basic_string<char,std::char_traits<char>,std::allocator<char> > > >::operator=
  0008e	53		 push	 ebx
  0008f	6a 01		 push	 1
  00091	8d 4d d4	 lea	 ecx, DWORD PTR $T516979[ebp]
  00094	e8 00 00 00 00	 call	 ?_Tidy@?$basic_string@DU?$char_traits@D@std@@V?$allocator@D@2@@std@@QAEX_NI@Z ; std::basic_string<char,std::char_traits<char>,std::allocator<char> >::_Tidy
  00099	53		 push	 ebx
  0009a	6a 01		 push	 1
  0009c	8d 4d b8	 lea	 ecx, DWORD PTR $T516978[ebp]
  0009f	e8 00 00 00 00	 call	 ?_Tidy@?$basic_string@DU?$char_traits@D@std@@V?$allocator@D@2@@std@@QAEX_NI@Z ; std::basic_string<char,std::char_traits<char>,std::allocator<char> >::_Tidy

; 230  : }

  000a4	e8 00 00 00 00	 call	 __EH_epilog3_GS
  000a9	c2 04 00	 ret	 4
_TEXT	ENDS
;	COMDAT text$x
text$x	SEGMENT
__unwindfunclet$?SplitDescription@TutorialWnd@@IAEXABVioHashString@@@Z$0:
  00000	8d 4d b8	 lea	 ecx, DWORD PTR $T516978[ebp]
  00003	e9 00 00 00 00	 jmp	 ??1?$basic_string@DU?$char_traits@D@std@@V?$allocator@D@2@@std@@QAE@XZ ; std::basic_string<char,std::char_traits<char>,std::allocator<char> >::~basic_string<char,std::char_traits<char>,std::allocator<char> >
__unwindfunclet$?SplitDescription@TutorialWnd@@IAEXABVioHashString@@@Z$1:
  00008	8d 4d d4	 lea	 ecx, DWORD PTR $T516979[ebp]
  0000b	e9 00 00 00 00	 jmp	 ??1?$basic_string@DU?$char_traits@D@std@@V?$allocator@D@2@@std@@QAE@XZ ; std::basic_string<char,std::char_traits<char>,std::allocator<char> >::~basic_string<char,std::char_traits<char>,std::allocator<char> >
__ehhandler$?SplitDescription@TutorialWnd@@IAEXABVioHashString@@@Z:
  00010	8b 54 24 08	 mov	 edx, DWORD PTR [esp+8]
  00014	8d 42 0c	 lea	 eax, DWORD PTR [edx+12]
  00017	8b 4a ac	 mov	 ecx, DWORD PTR [edx-84]
  0001a	33 c8		 xor	 ecx, eax
  0001c	e8 00 00 00 00	 call	 @__security_check_cookie@4
  00021	8b 4a fc	 mov	 ecx, DWORD PTR [edx-4]
  00024	33 c8		 xor	 ecx, eax
  00026	e8 00 00 00 00	 call	 @__security_check_cookie@4
  0002b	b8 00 00 00 00	 mov	 eax, OFFSET __ehfuncinfo$?SplitDescription@TutorialWnd@@IAEXABVioHashString@@@Z
  00030	e9 00 00 00 00	 jmp	 ___CxxFrameHandler3
text$x	ENDS
?SplitDescription@TutorialWnd@@IAEXABVioHashString@@@Z ENDP ; TutorialWnd::SplitDescription
PUBLIC	?SetTutorialStep@TutorialWnd@@QAEXHHHHAAVioHashString@@000@Z ; TutorialWnd::SetTutorialStep
EXTRN	__imp_??4ioHashString@@QAEAAV0@ABV0@@Z:PROC
EXTRN	__imp_?Clear@ioHashString@@QAEXXZ:PROC
EXTRN	__imp_?SetTitleText@ioWnd@@QAEXPBD0H@Z:PROC
; Function compile flags: /Ogsp
;	COMDAT ?SetTutorialStep@TutorialWnd@@QAEXHHHHAAVioHashString@@000@Z
_TEXT	SEGMENT
_iCurStep$ = 8						; size = 4
_iCurValue$ = 12					; size = 4
_iMaxStep$ = 16						; size = 4
_iMaxValue$ = 20					; size = 4
_szTitle$ = 24						; size = 4
_szHelp1$ = 28						; size = 4
_szHelp2$ = 32						; size = 4
_szComplete$ = 36					; size = 4
?SetTutorialStep@TutorialWnd@@QAEXHHHHAAVioHashString@@000@Z PROC ; TutorialWnd::SetTutorialStep, COMDAT
; _this$ = ecx

; 164  : {

  00000	55		 push	 ebp
  00001	8b ec		 mov	 ebp, esp

; 165  : 	if( iCurValue != 0 )

  00003	83 7d 0c 00	 cmp	 DWORD PTR _iCurValue$[ebp], 0
  00007	53		 push	 ebx
  00008	8b 5d 08	 mov	 ebx, DWORD PTR _iCurStep$[ebp]
  0000b	56		 push	 esi
  0000c	57		 push	 edi
  0000d	8b 7d 10	 mov	 edi, DWORD PTR _iMaxStep$[ebp]
  00010	8b f1		 mov	 esi, ecx
  00012	74 07		 je	 SHORT $LN13@SetTutoria

; 166  : 		SetCountUp();

  00014	e8 00 00 00 00	 call	 ?SetCountUp@TutorialWnd@@IAEXXZ ; TutorialWnd::SetCountUp

; 167  : 	else

  00019	eb 2e		 jmp	 SHORT $LN12@SetTutoria
$LN13@SetTutoria:

; 168  : 	{
; 169  : 		SetSkipBtn( iCurStep, iMaxStep );

  0001b	57		 push	 edi
  0001c	53		 push	 ebx
  0001d	e8 00 00 00 00	 call	 ?SetSkipBtn@TutorialWnd@@IAEXHH@Z ; TutorialWnd::SetSkipBtn

; 170  : 		m_dwCurAutoNextTime = 0;

  00022	83 a6 9c 01 00
	00 00		 and	 DWORD PTR [esi+412], 0

; 171  : 		m_dwCurSkipStepShowTime = FRAMEGETTIME();

  00029	ff 15 00 00 00
	00		 call	 DWORD PTR __imp_?GetSingleton@ioFrameTimer@@SAAAV1@XZ
  0002f	8b c8		 mov	 ecx, eax
  00031	ff 15 00 00 00
	00		 call	 DWORD PTR __imp_?GetLoopSec@ioFrameTimer@@QBEKXZ

; 172  : 		HideChildWnd( ID_SKIP );

  00037	6a 00		 push	 0
  00039	6a 05		 push	 5
  0003b	8b ce		 mov	 ecx, esi
  0003d	89 86 f0 01 00
	00		 mov	 DWORD PTR [esi+496], eax
  00043	ff 15 00 00 00
	00		 call	 DWORD PTR __imp_?HideChildWnd@ioWnd@@QAEXK_N@Z
$LN12@SetTutoria:

; 173  : 	}
; 174  : 
; 175  : 	m_iCurStep  = iCurStep;
; 176  : 	m_iCurValue = iCurValue;

  00049	8b 45 0c	 mov	 eax, DWORD PTR _iCurValue$[ebp]

; 177  : 	m_iMaxStep  = iMaxStep;	
; 178  : 	m_iMaxValue = iMaxValue;
; 179  : 
; 180  : 	SetTitleText( szTitle.c_str() );

  0004c	8b 4d 18	 mov	 ecx, DWORD PTR _szTitle$[ebp]
  0004f	89 86 bc 01 00
	00		 mov	 DWORD PTR [esi+444], eax
  00055	8b 45 14	 mov	 eax, DWORD PTR _iMaxValue$[ebp]
  00058	6a 00		 push	 0
  0005a	68 00 00 00 00	 push	 OFFSET ??_C@_00CNPNBAHC@?$AA@
  0005f	89 9e b4 01 00
	00		 mov	 DWORD PTR [esi+436], ebx
  00065	89 be b8 01 00
	00		 mov	 DWORD PTR [esi+440], edi
  0006b	89 86 c0 01 00
	00		 mov	 DWORD PTR [esi+448], eax
  00071	ff 15 00 00 00
	00		 call	 DWORD PTR __imp_?c_str@ioHashString@@QBEPBDXZ
  00077	50		 push	 eax
  00078	8b ce		 mov	 ecx, esi
  0007a	ff 15 00 00 00
	00		 call	 DWORD PTR __imp_?SetTitleText@ioWnd@@QAEXPBD0H@Z

; 181  : 
; 182  : 	if( m_iCurValue == m_iMaxValue )

  00080	8b 86 bc 01 00
	00		 mov	 eax, DWORD PTR [esi+444]

; 185  : 		{
; 186  : 			SplitDescription( szComplete );

  00086	8b ce		 mov	 ecx, esi
  00088	3b 86 c0 01 00
	00		 cmp	 eax, DWORD PTR [esi+448]
  0008e	75 7e		 jne	 SHORT $LN11@SetTutoria

; 183  : 	{
; 184  : 		if( m_iCurValue == 0 )

  00090	85 c0		 test	 eax, eax
  00092	75 45		 jne	 SHORT $LN10@SetTutoria

; 185  : 		{
; 186  : 			SplitDescription( szComplete );

  00094	ff 75 24	 push	 DWORD PTR _szComplete$[ebp]
  00097	e8 00 00 00 00	 call	 ?SplitDescription@TutorialWnd@@IAEXABVioHashString@@@Z ; TutorialWnd::SplitDescription

; 187  : 			SetTextTick();

  0009c	8b ce		 mov	 ecx, esi
  0009e	e8 00 00 00 00	 call	 ?SetTextTick@TutorialWnd@@IAEXXZ ; TutorialWnd::SetTextTick

; 188  : 			m_szHelp.Clear();

  000a3	8d 8e d4 01 00
	00		 lea	 ecx, DWORD PTR [esi+468]
  000a9	ff 15 00 00 00
	00		 call	 DWORD PTR __imp_?Clear@ioHashString@@QAEXXZ

; 189  : 
; 190  : 			if( m_iCurStep == 0 )

  000af	8b 86 b4 01 00
	00		 mov	 eax, DWORD PTR [esi+436]
  000b5	85 c0		 test	 eax, eax
  000b7	75 06		 jne	 SHORT $LN9@SetTutoria

; 191  : 			{
; 192  : 				ShowButtonID( ID_START );

  000b9	6a 02		 push	 2
  000bb	8b ce		 mov	 ecx, esi
  000bd	eb 13		 jmp	 SHORT $LN17@SetTutoria
$LN9@SetTutoria:

; 193  : 			}
; 194  : 			else if( m_iCurStep == m_iMaxStep - 1 )

  000bf	8b 8e b8 01 00
	00		 mov	 ecx, DWORD PTR [esi+440]
  000c5	49		 dec	 ecx
  000c6	3b c1		 cmp	 eax, ecx

; 195  : 			{
; 196  : 				ShowButtonID( ID_CLEAR );

  000c8	8b ce		 mov	 ecx, esi
  000ca	75 04		 jne	 SHORT $LN7@SetTutoria
  000cc	6a 04		 push	 4

; 197  : 			}
; 198  : 			else

  000ce	eb 02		 jmp	 SHORT $LN17@SetTutoria
$LN7@SetTutoria:

; 199  : 				ShowButtonID( ID_NEXT );

  000d0	6a 03		 push	 3
$LN17@SetTutoria:
  000d2	e8 00 00 00 00	 call	 ?ShowButtonID@TutorialWnd@@IAEXH@Z ; TutorialWnd::ShowButtonID

; 200  : 		}		
; 201  : 		else

  000d7	eb 65		 jmp	 SHORT $LN1@SetTutoria
$LN10@SetTutoria:

; 202  : 		{
; 203  : 			if( m_iCurStep == m_iMaxStep - 1 )

  000d9	8b 86 b8 01 00
	00		 mov	 eax, DWORD PTR [esi+440]
  000df	48		 dec	 eax
  000e0	39 86 b4 01 00
	00		 cmp	 DWORD PTR [esi+436], eax
  000e6	75 04		 jne	 SHORT $LN4@SetTutoria

; 204  : 			{
; 205  : 				ShowButtonID( ID_CLEAR );

  000e8	6a 04		 push	 4

; 206  : 			}
; 207  : 			else

  000ea	eb 02		 jmp	 SHORT $LN16@SetTutoria
$LN4@SetTutoria:

; 208  : 			{
; 209  : 				ShowButtonID( ID_NEXT );

  000ec	6a 03		 push	 3
$LN16@SetTutoria:
  000ee	e8 00 00 00 00	 call	 ?ShowButtonID@TutorialWnd@@IAEXH@Z ; TutorialWnd::ShowButtonID

; 210  : 			}						
; 211  : 			SplitDescription( szHelp1 );

  000f3	ff 75 1c	 push	 DWORD PTR _szHelp1$[ebp]
  000f6	8b ce		 mov	 ecx, esi
  000f8	e8 00 00 00 00	 call	 ?SplitDescription@TutorialWnd@@IAEXABVioHashString@@@Z ; TutorialWnd::SplitDescription

; 212  : 			m_szHelp = szHelp2;

  000fd	ff 75 20	 push	 DWORD PTR _szHelp2$[ebp]
  00100	8d 8e d4 01 00
	00		 lea	 ecx, DWORD PTR [esi+468]
  00106	ff 15 00 00 00
	00		 call	 DWORD PTR __imp_??4ioHashString@@QAEAAV0@ABV0@@Z

; 213  : 		}
; 214  : 	}
; 215  : 	else

  0010c	eb 30		 jmp	 SHORT $LN1@SetTutoria
$LN11@SetTutoria:

; 216  : 	{
; 217  : 		ShowButtonID( -1 );

  0010e	6a ff		 push	 -1
  00110	e8 00 00 00 00	 call	 ?ShowButtonID@TutorialWnd@@IAEXH@Z ; TutorialWnd::ShowButtonID

; 218  : 		SplitDescription( szHelp1 );

  00115	ff 75 1c	 push	 DWORD PTR _szHelp1$[ebp]
  00118	8b ce		 mov	 ecx, esi
  0011a	e8 00 00 00 00	 call	 ?SplitDescription@TutorialWnd@@IAEXABVioHashString@@@Z ; TutorialWnd::SplitDescription

; 219  : 		m_szHelp = szHelp2;

  0011f	ff 75 20	 push	 DWORD PTR _szHelp2$[ebp]
  00122	8d 8e d4 01 00
	00		 lea	 ecx, DWORD PTR [esi+468]
  00128	ff 15 00 00 00
	00		 call	 DWORD PTR __imp_??4ioHashString@@QAEAAV0@ABV0@@Z

; 220  : 
; 221  : 		if( m_iCurValue == 0 )

  0012e	83 be bc 01 00
	00 00		 cmp	 DWORD PTR [esi+444], 0
  00135	75 07		 jne	 SHORT $LN1@SetTutoria

; 222  : 			SetTextTick();

  00137	8b ce		 mov	 ecx, esi
  00139	e8 00 00 00 00	 call	 ?SetTextTick@TutorialWnd@@IAEXXZ ; TutorialWnd::SetTextTick
$LN1@SetTutoria:
  0013e	5f		 pop	 edi
  0013f	5e		 pop	 esi
  00140	5b		 pop	 ebx

; 223  : 	}
; 224  : }

  00141	5d		 pop	 ebp
  00142	c2 20 00	 ret	 32			; 00000020H
?SetTutorialStep@TutorialWnd@@QAEXHHHHAAVioHashString@@000@Z ENDP ; TutorialWnd::SetTutorialStep
_TEXT	ENDS
END
