; Listing generated by Microsoft (R) Optimizing Compiler Version 16.00.30319.01 

	TITLE	D:\Lost Saga For Developer\Youtube\Tutorial\Source\src\LSClient\GUI\TutorialWnd.cpp
	.686P
	.XMM
	include listing.inc
	.model	flat

INCLUDELIB MSVCRT
INCLUDELIB OLDNAMES

PUBLIC	?_EEM_DS@?$deque@UD3DXVECTOR3@@V?$allocator@UD3DXVECTOR3@@@std@@@std@@2HB ; std::deque<D3DXVECTOR3,std::allocator<D3DXVECTOR3> >::_EEM_DS
;	COMDAT ?_EEM_DS@?$deque@UD3DXVECTOR3@@V?$allocator@UD3DXVECTOR3@@@std@@@std@@2HB
CONST	SEGMENT
?_EEM_DS@?$deque@UD3DXVECTOR3@@V?$allocator@UD3DXVECTOR3@@@std@@@std@@2HB DD 01H ; std::deque<D3DXVECTOR3,std::allocator<D3DXVECTOR3> >::_EEM_DS
CONST	ENDS
PUBLIC	??0StringTick@TutorialWnd@@QAE@XZ		; TutorialWnd::StringTick::StringTick
EXTRN	_memset:PROC
; Function compile flags: /Ogsp
; File d:\lost saga for developer\youtube\tutorial\source\src\lsclient\gui\tutorialwnd.h
;	COMDAT ??0StringTick@TutorialWnd@@QAE@XZ
_TEXT	SEGMENT
??0StringTick@TutorialWnd@@QAE@XZ PROC			; TutorialWnd::StringTick::StringTick, COMDAT
; _this$ = ecx

; 64   : 		StringTick()

  00000	56		 push	 esi

; 65   : 		{
; 66   : 			memset( m_szCopyDesc, 0, sizeof( m_szCopyDesc ) );

  00001	68 04 01 00 00	 push	 260			; 00000104H
  00006	8b f1		 mov	 esi, ecx
  00008	6a 00		 push	 0
  0000a	56		 push	 esi
  0000b	e8 00 00 00 00	 call	 _memset
  00010	83 c4 0c	 add	 esp, 12			; 0000000cH

; 67   : 		}

  00013	8b c6		 mov	 eax, esi
  00015	5e		 pop	 esi
  00016	c3		 ret	 0
??0StringTick@TutorialWnd@@QAE@XZ ENDP			; TutorialWnd::StringTick::StringTick
_TEXT	ENDS
PUBLIC	?return1@@YAIXZ					; return1
; Function compile flags: /Ogsp
; File d:\lost saga for developer\youtube\tutorial\source\src\lsclient\stdafx.h
;	COMDAT ?return1@@YAIXZ
_TEXT	SEGMENT
?return1@@YAIXZ PROC					; return1, COMDAT

; 17   : 	__forceinline unsigned int return1() { __asm mov eax, 1 };

  00000	b8 01 00 00 00	 mov	 eax, 1
  00005	c3		 ret	 0
?return1@@YAIXZ ENDP					; return1
_TEXT	ENDS
PUBLIC	?return5@@YAIXZ					; return5
; Function compile flags: /Ogsp
;	COMDAT ?return5@@YAIXZ
_TEXT	SEGMENT
?return5@@YAIXZ PROC					; return5, COMDAT

; 18   : 	__forceinline unsigned int return5() { __asm mov eax, 5 };

  00000	b8 05 00 00 00	 mov	 eax, 5
  00005	c3		 ret	 0
?return5@@YAIXZ ENDP					; return5
_TEXT	ENDS
PUBLIC	?return10@@YAIXZ				; return10
; Function compile flags: /Ogsp
;	COMDAT ?return10@@YAIXZ
_TEXT	SEGMENT
?return10@@YAIXZ PROC					; return10, COMDAT

; 21   : 	__forceinline unsigned int return10() { __asm mov eax, 10 };

  00000	b8 0a 00 00 00	 mov	 eax, 10			; 0000000aH
  00005	c3		 ret	 0
?return10@@YAIXZ ENDP					; return10
_TEXT	ENDS
PUBLIC	?return1000@@YAIXZ				; return1000
; Function compile flags: /Ogsp
;	COMDAT ?return1000@@YAIXZ
_TEXT	SEGMENT
?return1000@@YAIXZ PROC					; return1000, COMDAT

; 29   : 	__forceinline unsigned int return1000() { __asm mov eax, 1000 };

  00000	b8 e8 03 00 00	 mov	 eax, 1000		; 000003e8H
  00005	c3		 ret	 0
?return1000@@YAIXZ ENDP					; return1000
_TEXT	ENDS
PUBLIC	?return1000000000@@YAIXZ			; return1000000000
; Function compile flags: /Ogsp
;	COMDAT ?return1000000000@@YAIXZ
_TEXT	SEGMENT
?return1000000000@@YAIXZ PROC				; return1000000000, COMDAT

; 30   : 	__forceinline unsigned int return1000000000() { __asm mov eax, 1000000000 };

  00000	b8 00 ca 9a 3b	 mov	 eax, 1000000000		; 3b9aca00H
  00005	c3		 ret	 0
?return1000000000@@YAIXZ ENDP				; return1000000000
_TEXT	ENDS
PUBLIC	?return_PI@@YAIXZ				; return_PI
; Function compile flags: /Ogsp
;	COMDAT ?return_PI@@YAIXZ
_TEXT	SEGMENT
?return_PI@@YAIXZ PROC					; return_PI, COMDAT

; 31   : 	__forceinline unsigned int return_PI() { __asm mov eax,   3141592654 };

  00000	b8 4e e6 40 bb	 mov	 eax, -1153374642	; bb40e64eH
  00005	c3		 ret	 0
?return_PI@@YAIXZ ENDP					; return_PI
_TEXT	ENDS
PUBLIC	??_7TutorialBtn@@6B@				; TutorialBtn::`vftable'
PUBLIC	__real@3f800000
PUBLIC	??0TutorialBtn@@QAE@XZ				; TutorialBtn::TutorialBtn
PUBLIC	??_R4TutorialBtn@@6B@				; TutorialBtn::`RTTI Complete Object Locator'
PUBLIC	??_R0?AVTutorialBtn@@@8				; TutorialBtn `RTTI Type Descriptor'
PUBLIC	??_R3TutorialBtn@@8				; TutorialBtn::`RTTI Class Hierarchy Descriptor'
PUBLIC	??_R2TutorialBtn@@8				; TutorialBtn::`RTTI Base Class Array'
PUBLIC	??_R1A@?0A@EA@TutorialBtn@@8			; TutorialBtn::`RTTI Base Class Descriptor at (0,-1,0,64)'
PUBLIC	??_R1A@?0A@EA@ioButton@@8			; ioButton::`RTTI Base Class Descriptor at (0,-1,0,64)'
PUBLIC	??_R0?AVioButton@@@8				; ioButton `RTTI Type Descriptor'
PUBLIC	??_R3ioButton@@8				; ioButton::`RTTI Class Hierarchy Descriptor'
PUBLIC	??_R2ioButton@@8				; ioButton::`RTTI Base Class Array'
PUBLIC	??_R1A@?0A@EA@ioWnd@@8				; ioWnd::`RTTI Base Class Descriptor at (0,-1,0,64)'
PUBLIC	??_R0?AVioWnd@@@8				; ioWnd `RTTI Type Descriptor'
PUBLIC	??_R3ioWnd@@8					; ioWnd::`RTTI Class Hierarchy Descriptor'
PUBLIC	??_R2ioWnd@@8					; ioWnd::`RTTI Base Class Array'
PUBLIC	?ParseExtraInfo@TutorialBtn@@UAEXAAVioXMLElement@@@Z ; TutorialBtn::ParseExtraInfo
PUBLIC	?OnRender@TutorialBtn@@MAEXXZ			; TutorialBtn::OnRender
PUBLIC	?OnProcess@TutorialBtn@@MAEXM@Z			; TutorialBtn::OnProcess
PUBLIC	?iwm_create@TutorialBtn@@UAEXXZ			; TutorialBtn::iwm_create
PUBLIC	?OnDrawNormal@TutorialBtn@@MAEXHH@Z		; TutorialBtn::OnDrawNormal
EXTRN	__imp_??0ioButton@@QAE@XZ:PROC
EXTRN	__fltused:DWORD
EXTRN	??_7type_info@@6B@:QWORD			; type_info::`vftable'
EXTRN	?AddRenderFrame@ioButton@@UAEXABVioHashString@@PAVioUIRenderFrame@@@Z:PROC ; ioButton::AddRenderFrame
EXTRN	?AddRenderImage@ioButton@@UAEXABVioHashString@@PAVioUIRenderImage@@@Z:PROC ; ioButton::AddRenderImage
EXTRN	?AddTooltipHelp@ioWnd@@UAEXABVioHashString@@00@Z:PROC ; ioWnd::AddTooltipHelp
EXTRN	?AddNamedRenderImage@ioWnd@@UAEXABVioHashString@@PAVioUIRenderImage@@@Z:PROC ; ioWnd::AddNamedRenderImage
EXTRN	?RemoveNamedRenderImage@ioWnd@@UAEXABVioHashString@@@Z:PROC ; ioWnd::RemoveNamedRenderImage
EXTRN	?GetNamedRenderImage@ioWnd@@UBEPAVioUIRenderImage@@ABVioHashString@@@Z:PROC ; ioWnd::GetNamedRenderImage
EXTRN	?SetWindowAlpha@ioButton@@UAEXH@Z:PROC		; ioButton::SetWindowAlpha
EXTRN	?SetActive@ioWnd@@UAEXXZ:PROC			; ioWnd::SetActive
EXTRN	?SetInActive@ioWnd@@UAEXXZ:PROC			; ioWnd::SetInActive
EXTRN	?ClearElementImageList@ioWnd@@UAEXXZ:PROC	; ioWnd::ClearElementImageList
EXTRN	?SetSize@ioWnd@@UAEXHH@Z:PROC			; ioWnd::SetSize
EXTRN	?SetPositionToDefault@ioWnd@@UAEXHH_N0@Z:PROC	; ioWnd::SetPositionToDefault
EXTRN	?IsNeedProcess@ioWnd@@UBE_NXZ:PROC		; ioWnd::IsNeedProcess
EXTRN	?IsCanMouseReaction@ioWnd@@UBE_NXZ:PROC		; ioWnd::IsCanMouseReaction
EXTRN	?AddChild@ioWnd@@UAEXPAV1@@Z:PROC		; ioWnd::AddChild
EXTRN	?DeleteChild@ioWnd@@UAEXK@Z:PROC		; ioWnd::DeleteChild
EXTRN	?DeleteAllChild@ioWnd@@UAEXXZ:PROC		; ioWnd::DeleteAllChild
EXTRN	?OnRenderShowAndHide@ioWnd@@MAE_NXZ:PROC	; ioWnd::OnRenderShowAndHide
EXTRN	?OnRenderShowAndHideByDefault@ioWnd@@MAE_NK@Z:PROC ; ioWnd::OnRenderShowAndHideByDefault
EXTRN	?OnRenderShowAndHideByTop@ioWnd@@MAE_NK@Z:PROC	; ioWnd::OnRenderShowAndHideByTop
EXTRN	?OnRenderShowAndHideByDown@ioWnd@@MAE_NK@Z:PROC	; ioWnd::OnRenderShowAndHideByDown
EXTRN	?OnRenderAfterChild@ioWnd@@MAEXXZ:PROC		; ioWnd::OnRenderAfterChild
EXTRN	?OnMouseProcess@ioWnd@@MAEXABVioMouse@@@Z:PROC	; ioWnd::OnMouseProcess
EXTRN	?CheckFrameReSize@ioButton@@MAEXHHHH@Z:PROC	; ioButton::CheckFrameReSize
EXTRN	?RenderImageList@ioWnd@@MAEXHHW4UIRenderType@@@Z:PROC ; ioWnd::RenderImageList
EXTRN	?iwm_destroy@ioWnd@@UAEXXZ:PROC			; ioWnd::iwm_destroy
EXTRN	?iwm_lbuttondown@ioButton@@UAEXABVioMouse@@@Z:PROC ; ioButton::iwm_lbuttondown
EXTRN	?iwm_lbuttonup@ioButton@@UAEXABVioMouse@@@Z:PROC ; ioButton::iwm_lbuttonup
EXTRN	?iwm_lbuttonDBLCLK@ioButton@@UAEXABVioMouse@@@Z:PROC ; ioButton::iwm_lbuttonDBLCLK
EXTRN	?iwm_rbuttondown@ioButton@@UAEXABVioMouse@@@Z:PROC ; ioButton::iwm_rbuttondown
EXTRN	?iwm_rbuttonup@ioButton@@UAEXABVioMouse@@@Z:PROC ; ioButton::iwm_rbuttonup
EXTRN	?iwm_command@ioWnd@@UAEXPAV1@HK@Z:PROC		; ioWnd::iwm_command
EXTRN	?iwm_mouseover@ioButton@@UAEXABVioMouse@@@Z:PROC ; ioButton::iwm_mouseover
EXTRN	?iwm_mousemove@ioWnd@@UAEXABVioMouse@@@Z:PROC	; ioWnd::iwm_mousemove
EXTRN	?iwm_mouseleave@ioWnd@@UAEXABVioMouse@@@Z:PROC	; ioWnd::iwm_mouseleave
EXTRN	?iwm_vscroll@ioWnd@@UAEXKH@Z:PROC		; ioWnd::iwm_vscroll
EXTRN	?iwm_wheel@ioWnd@@UAEXH@Z:PROC			; ioWnd::iwm_wheel
EXTRN	?iwm_show@ioWnd@@UAEXXZ:PROC			; ioWnd::iwm_show
EXTRN	?iwm_hide@ioWnd@@UAEXXZ:PROC			; ioWnd::iwm_hide
EXTRN	?iwm_esc@ioWnd@@UAE_NXZ:PROC			; ioWnd::iwm_esc
EXTRN	?iwm_spacebar@ioWnd@@UAE_NXZ:PROC		; ioWnd::iwm_spacebar
EXTRN	?iwm_gototop@ioWnd@@UAEXXZ:PROC			; ioWnd::iwm_gototop
EXTRN	?iwm_dragenter@ioWnd@@UAE?AW4IWDropEffect@@PAVioDragItem@@ABVioMouse@@@Z:PROC ; ioWnd::iwm_dragenter
EXTRN	?iwm_dragover@ioWnd@@UAE?AW4IWDropEffect@@PAVioDragItem@@ABVioMouse@@@Z:PROC ; ioWnd::iwm_dragover
EXTRN	?iwm_dragleave@ioWnd@@UAEXXZ:PROC		; ioWnd::iwm_dragleave
EXTRN	?iwm_dropitem@ioWnd@@UAE_NPAVioDragItem@@ABVioMouse@@PAV1@@Z:PROC ; ioWnd::iwm_dropitem
EXTRN	?iwm_dropdone@ioWnd@@UAEXPAVioDragItem@@PAV1@_N@Z:PROC ; ioWnd::iwm_dropdone
EXTRN	?IsEXType@ioWnd@@UBE_NXZ:PROC			; ioWnd::IsEXType
EXTRN	?GetWndType@ioButton@@UBEKXZ:PROC		; ioButton::GetWndType
EXTRN	?RenderWnd@ioWnd@@UAEXXZ:PROC			; ioWnd::RenderWnd
EXTRN	?SetIDEX@ioWnd@@UAEXAAK_N@Z:PROC		; ioWnd::SetIDEX
EXTRN	?ParseXML@ioWnd@@UAEXAAVioXMLElement@@@Z:PROC	; ioWnd::ParseXML
EXTRN	?GetHeaderFileName@ioButton@@UAEPBDXZ:PROC	; ioButton::GetHeaderFileName
EXTRN	?GetTemplateName@ioButton@@UAEPBDXZ:PROC	; ioButton::GetTemplateName
EXTRN	?GetDefClassName@ioButton@@UBEPBDXZ:PROC	; ioButton::GetDefClassName
EXTRN	?_Clone@ioButton@@UAEPAVioWnd@@XZ:PROC		; ioButton::_Clone
EXTRN	?Copy@ioButton@@UAEXPAVioWnd@@@Z:PROC		; ioButton::Copy
EXTRN	?Save@ioWnd@@UAE_NAAVioXMLElement@@@Z:PROC	; ioWnd::Save
EXTRN	?SetSaveData@ioButton@@UAEXAAVioXMLElement@@@Z:PROC ; ioButton::SetSaveData
EXTRN	?SetPosX@ioWnd@@UAEXH@Z:PROC			; ioWnd::SetPosX
EXTRN	?SetPosY@ioWnd@@UAEXH@Z:PROC			; ioWnd::SetPosY
EXTRN	?SetWidth@ioWnd@@UAEXH@Z:PROC			; ioWnd::SetWidth
EXTRN	?SetHeight@ioWnd@@UAEXH@Z:PROC			; ioWnd::SetHeight
EXTRN	?GetNumFixedRenderFrame@ioButton@@UBEHXZ:PROC	; ioButton::GetNumFixedRenderFrame
EXTRN	?GetFixedRenderFrameType@ioButton@@UAEPBDH@Z:PROC ; ioButton::GetFixedRenderFrameType
EXTRN	?GetRenderFrame@ioButton@@UAEPAPAVioUIRenderElement@@PBD@Z:PROC ; ioButton::GetRenderFrame
EXTRN	?GetNumFixedRenderImage@ioButton@@UBEHXZ:PROC	; ioButton::GetNumFixedRenderImage
EXTRN	?GetFixedRenderImageType@ioButton@@UAEPBDH@Z:PROC ; ioButton::GetFixedRenderImageType
EXTRN	?GetRenderImage@ioButton@@UAEPAPAVioUIRenderElement@@PBD@Z:PROC ; ioButton::GetRenderImage
EXTRN	?AddEffect@ioWnd@@UAEXABVioHashString@@PAVioUI3DEffectRender@@@Z:PROC ; ioWnd::AddEffect
EXTRN	?GetEffect@ioWnd@@UAEPAVioUI3DEffectRender@@VioHashString@@@Z:PROC ; ioWnd::GetEffect
EXTRN	??_ETutorialBtn@@UAEPAXI@Z:PROC			; TutorialBtn::`vector deleting destructor'
EXTRN	?OnDrawOvered@ioButton@@MAEXHH@Z:PROC		; ioButton::OnDrawOvered
EXTRN	?OnDrawOveredAdd@ioButton@@MAEXHH@Z:PROC	; ioButton::OnDrawOveredAdd
EXTRN	?OnDrawPushed@ioButton@@MAEXHH@Z:PROC		; ioButton::OnDrawPushed
EXTRN	?OnDrawDisabled@ioButton@@MAEXHH@Z:PROC		; ioButton::OnDrawDisabled
EXTRN	?OnDrawExDisabledNormal@ioButton@@MAEXHH@Z:PROC	; ioButton::OnDrawExDisabledNormal
EXTRN	?OnDrawExDisabledOvered@ioButton@@MAEXHH@Z:PROC	; ioButton::OnDrawExDisabledOvered
EXTRN	?OnDrawExDisabledPushed@ioButton@@MAEXHH@Z:PROC	; ioButton::OnDrawExDisabledPushed
EXTRN	?OnDrawBack@ioButton@@MAEXHH@Z:PROC		; ioButton::OnDrawBack
EXTRN	?OnDrawNormalList@ioButton@@MAEXHH@Z:PROC	; ioButton::OnDrawNormalList
EXTRN	?OnDrawDisableList@ioButton@@MAEXHH@Z:PROC	; ioButton::OnDrawDisableList
;	COMDAT ??_R2ioWnd@@8
; File d:\lost saga for developer\youtube\tutorial\source\src\lsclient\gui\tutorialwnd.cpp
rdata$r	SEGMENT
??_R2ioWnd@@8 DD FLAT:??_R1A@?0A@EA@ioWnd@@8		; ioWnd::`RTTI Base Class Array'
rdata$r	ENDS
;	COMDAT ??_R3ioWnd@@8
rdata$r	SEGMENT
??_R3ioWnd@@8 DD 00H					; ioWnd::`RTTI Class Hierarchy Descriptor'
	DD	00H
	DD	01H
	DD	FLAT:??_R2ioWnd@@8
rdata$r	ENDS
;	COMDAT ??_R0?AVioWnd@@@8
_DATA	SEGMENT
??_R0?AVioWnd@@@8 DD FLAT:??_7type_info@@6B@		; ioWnd `RTTI Type Descriptor'
	DD	00H
	DB	'.?AVioWnd@@', 00H
_DATA	ENDS
;	COMDAT ??_R1A@?0A@EA@ioWnd@@8
rdata$r	SEGMENT
??_R1A@?0A@EA@ioWnd@@8 DD FLAT:??_R0?AVioWnd@@@8	; ioWnd::`RTTI Base Class Descriptor at (0,-1,0,64)'
	DD	00H
	DD	00H
	DD	0ffffffffH
	DD	00H
	DD	040H
	DD	FLAT:??_R3ioWnd@@8
rdata$r	ENDS
;	COMDAT ??_R2ioButton@@8
rdata$r	SEGMENT
??_R2ioButton@@8 DD FLAT:??_R1A@?0A@EA@ioButton@@8	; ioButton::`RTTI Base Class Array'
	DD	FLAT:??_R1A@?0A@EA@ioWnd@@8
rdata$r	ENDS
;	COMDAT ??_R3ioButton@@8
rdata$r	SEGMENT
??_R3ioButton@@8 DD 00H					; ioButton::`RTTI Class Hierarchy Descriptor'
	DD	00H
	DD	02H
	DD	FLAT:??_R2ioButton@@8
rdata$r	ENDS
;	COMDAT ??_R0?AVioButton@@@8
_DATA	SEGMENT
??_R0?AVioButton@@@8 DD FLAT:??_7type_info@@6B@		; ioButton `RTTI Type Descriptor'
	DD	00H
	DB	'.?AVioButton@@', 00H
_DATA	ENDS
;	COMDAT ??_R1A@?0A@EA@ioButton@@8
rdata$r	SEGMENT
??_R1A@?0A@EA@ioButton@@8 DD FLAT:??_R0?AVioButton@@@8	; ioButton::`RTTI Base Class Descriptor at (0,-1,0,64)'
	DD	01H
	DD	00H
	DD	0ffffffffH
	DD	00H
	DD	040H
	DD	FLAT:??_R3ioButton@@8
rdata$r	ENDS
;	COMDAT ??_R1A@?0A@EA@TutorialBtn@@8
rdata$r	SEGMENT
??_R1A@?0A@EA@TutorialBtn@@8 DD FLAT:??_R0?AVTutorialBtn@@@8 ; TutorialBtn::`RTTI Base Class Descriptor at (0,-1,0,64)'
	DD	02H
	DD	00H
	DD	0ffffffffH
	DD	00H
	DD	040H
	DD	FLAT:??_R3TutorialBtn@@8
rdata$r	ENDS
;	COMDAT ??_R2TutorialBtn@@8
rdata$r	SEGMENT
??_R2TutorialBtn@@8 DD FLAT:??_R1A@?0A@EA@TutorialBtn@@8 ; TutorialBtn::`RTTI Base Class Array'
	DD	FLAT:??_R1A@?0A@EA@ioButton@@8
	DD	FLAT:??_R1A@?0A@EA@ioWnd@@8
rdata$r	ENDS
;	COMDAT ??_R3TutorialBtn@@8
rdata$r	SEGMENT
??_R3TutorialBtn@@8 DD 00H				; TutorialBtn::`RTTI Class Hierarchy Descriptor'
	DD	00H
	DD	03H
	DD	FLAT:??_R2TutorialBtn@@8
rdata$r	ENDS
;	COMDAT ??_R0?AVTutorialBtn@@@8
_DATA	SEGMENT
??_R0?AVTutorialBtn@@@8 DD FLAT:??_7type_info@@6B@	; TutorialBtn `RTTI Type Descriptor'
	DD	00H
	DB	'.?AVTutorialBtn@@', 00H
_DATA	ENDS
;	COMDAT ??_R4TutorialBtn@@6B@
rdata$r	SEGMENT
??_R4TutorialBtn@@6B@ DD 00H				; TutorialBtn::`RTTI Complete Object Locator'
	DD	00H
	DD	00H
	DD	FLAT:??_R0?AVTutorialBtn@@@8
	DD	FLAT:??_R3TutorialBtn@@8
rdata$r	ENDS
;	COMDAT ??_7TutorialBtn@@6B@
CONST	SEGMENT
??_7TutorialBtn@@6B@ DD FLAT:??_R4TutorialBtn@@6B@	; TutorialBtn::`vftable'
	DD	FLAT:?AddRenderFrame@ioButton@@UAEXABVioHashString@@PAVioUIRenderFrame@@@Z
	DD	FLAT:?AddRenderImage@ioButton@@UAEXABVioHashString@@PAVioUIRenderImage@@@Z
	DD	FLAT:?AddTooltipHelp@ioWnd@@UAEXABVioHashString@@00@Z
	DD	FLAT:?ParseExtraInfo@TutorialBtn@@UAEXAAVioXMLElement@@@Z
	DD	FLAT:?AddNamedRenderImage@ioWnd@@UAEXABVioHashString@@PAVioUIRenderImage@@@Z
	DD	FLAT:?RemoveNamedRenderImage@ioWnd@@UAEXABVioHashString@@@Z
	DD	FLAT:?GetNamedRenderImage@ioWnd@@UBEPAVioUIRenderImage@@ABVioHashString@@@Z
	DD	FLAT:?SetWindowAlpha@ioButton@@UAEXH@Z
	DD	FLAT:?SetActive@ioWnd@@UAEXXZ
	DD	FLAT:?SetInActive@ioWnd@@UAEXXZ
	DD	FLAT:?ClearElementImageList@ioWnd@@UAEXXZ
	DD	FLAT:?SetSize@ioWnd@@UAEXHH@Z
	DD	FLAT:?SetPositionToDefault@ioWnd@@UAEXHH_N0@Z
	DD	FLAT:?IsNeedProcess@ioWnd@@UBE_NXZ
	DD	FLAT:?IsCanMouseReaction@ioWnd@@UBE_NXZ
	DD	FLAT:?AddChild@ioWnd@@UAEXPAV1@@Z
	DD	FLAT:?DeleteChild@ioWnd@@UAEXK@Z
	DD	FLAT:?DeleteAllChild@ioWnd@@UAEXXZ
	DD	FLAT:?OnRenderShowAndHide@ioWnd@@MAE_NXZ
	DD	FLAT:?OnRenderShowAndHideByDefault@ioWnd@@MAE_NK@Z
	DD	FLAT:?OnRenderShowAndHideByTop@ioWnd@@MAE_NK@Z
	DD	FLAT:?OnRenderShowAndHideByDown@ioWnd@@MAE_NK@Z
	DD	FLAT:?OnRender@TutorialBtn@@MAEXXZ
	DD	FLAT:?OnRenderAfterChild@ioWnd@@MAEXXZ
	DD	FLAT:?OnProcess@TutorialBtn@@MAEXM@Z
	DD	FLAT:?OnMouseProcess@ioWnd@@MAEXABVioMouse@@@Z
	DD	FLAT:?CheckFrameReSize@ioButton@@MAEXHHHH@Z
	DD	FLAT:?RenderImageList@ioWnd@@MAEXHHW4UIRenderType@@@Z
	DD	FLAT:?iwm_create@TutorialBtn@@UAEXXZ
	DD	FLAT:?iwm_destroy@ioWnd@@UAEXXZ
	DD	FLAT:?iwm_lbuttondown@ioButton@@UAEXABVioMouse@@@Z
	DD	FLAT:?iwm_lbuttonup@ioButton@@UAEXABVioMouse@@@Z
	DD	FLAT:?iwm_lbuttonDBLCLK@ioButton@@UAEXABVioMouse@@@Z
	DD	FLAT:?iwm_rbuttondown@ioButton@@UAEXABVioMouse@@@Z
	DD	FLAT:?iwm_rbuttonup@ioButton@@UAEXABVioMouse@@@Z
	DD	FLAT:?iwm_command@ioWnd@@UAEXPAV1@HK@Z
	DD	FLAT:?iwm_mouseover@ioButton@@UAEXABVioMouse@@@Z
	DD	FLAT:?iwm_mousemove@ioWnd@@UAEXABVioMouse@@@Z
	DD	FLAT:?iwm_mouseleave@ioWnd@@UAEXABVioMouse@@@Z
	DD	FLAT:?iwm_vscroll@ioWnd@@UAEXKH@Z
	DD	FLAT:?iwm_wheel@ioWnd@@UAEXH@Z
	DD	FLAT:?iwm_show@ioWnd@@UAEXXZ
	DD	FLAT:?iwm_hide@ioWnd@@UAEXXZ
	DD	FLAT:?iwm_esc@ioWnd@@UAE_NXZ
	DD	FLAT:?iwm_spacebar@ioWnd@@UAE_NXZ
	DD	FLAT:?iwm_gototop@ioWnd@@UAEXXZ
	DD	FLAT:?iwm_dragenter@ioWnd@@UAE?AW4IWDropEffect@@PAVioDragItem@@ABVioMouse@@@Z
	DD	FLAT:?iwm_dragover@ioWnd@@UAE?AW4IWDropEffect@@PAVioDragItem@@ABVioMouse@@@Z
	DD	FLAT:?iwm_dragleave@ioWnd@@UAEXXZ
	DD	FLAT:?iwm_dropitem@ioWnd@@UAE_NPAVioDragItem@@ABVioMouse@@PAV1@@Z
	DD	FLAT:?iwm_dropdone@ioWnd@@UAEXPAVioDragItem@@PAV1@_N@Z
	DD	FLAT:?IsEXType@ioWnd@@UBE_NXZ
	DD	FLAT:?GetWndType@ioButton@@UBEKXZ
	DD	FLAT:?RenderWnd@ioWnd@@UAEXXZ
	DD	FLAT:?SetIDEX@ioWnd@@UAEXAAK_N@Z
	DD	FLAT:?ParseXML@ioWnd@@UAEXAAVioXMLElement@@@Z
	DD	FLAT:?GetHeaderFileName@ioButton@@UAEPBDXZ
	DD	FLAT:?GetTemplateName@ioButton@@UAEPBDXZ
	DD	FLAT:?GetDefClassName@ioButton@@UBEPBDXZ
	DD	FLAT:?_Clone@ioButton@@UAEPAVioWnd@@XZ
	DD	FLAT:?Copy@ioButton@@UAEXPAVioWnd@@@Z
	DD	FLAT:?Save@ioWnd@@UAE_NAAVioXMLElement@@@Z
	DD	FLAT:?SetSaveData@ioButton@@UAEXAAVioXMLElement@@@Z
	DD	FLAT:?SetPosX@ioWnd@@UAEXH@Z
	DD	FLAT:?SetPosY@ioWnd@@UAEXH@Z
	DD	FLAT:?SetWidth@ioWnd@@UAEXH@Z
	DD	FLAT:?SetHeight@ioWnd@@UAEXH@Z
	DD	FLAT:?GetNumFixedRenderFrame@ioButton@@UBEHXZ
	DD	FLAT:?GetFixedRenderFrameType@ioButton@@UAEPBDH@Z
	DD	FLAT:?GetRenderFrame@ioButton@@UAEPAPAVioUIRenderElement@@PBD@Z
	DD	FLAT:?GetNumFixedRenderImage@ioButton@@UBEHXZ
	DD	FLAT:?GetFixedRenderImageType@ioButton@@UAEPBDH@Z
	DD	FLAT:?GetRenderImage@ioButton@@UAEPAPAVioUIRenderElement@@PBD@Z
	DD	FLAT:?AddEffect@ioWnd@@UAEXABVioHashString@@PAVioUI3DEffectRender@@@Z
	DD	FLAT:?GetEffect@ioWnd@@UAEPAVioUI3DEffectRender@@VioHashString@@@Z
	DD	FLAT:??_ETutorialBtn@@UAEPAXI@Z
	DD	FLAT:?OnDrawNormal@TutorialBtn@@MAEXHH@Z
	DD	FLAT:?OnDrawOvered@ioButton@@MAEXHH@Z
	DD	FLAT:?OnDrawOveredAdd@ioButton@@MAEXHH@Z
	DD	FLAT:?OnDrawPushed@ioButton@@MAEXHH@Z
	DD	FLAT:?OnDrawDisabled@ioButton@@MAEXHH@Z
	DD	FLAT:?OnDrawExDisabledNormal@ioButton@@MAEXHH@Z
	DD	FLAT:?OnDrawExDisabledOvered@ioButton@@MAEXHH@Z
	DD	FLAT:?OnDrawExDisabledPushed@ioButton@@MAEXHH@Z
	DD	FLAT:?OnDrawBack@ioButton@@MAEXHH@Z
	DD	FLAT:?OnDrawNormalList@ioButton@@MAEXHH@Z
	DD	FLAT:?OnDrawDisableList@ioButton@@MAEXHH@Z
CONST	ENDS
;	COMDAT __real@3f800000
CONST	SEGMENT
__real@3f800000 DD 03f800000r			; 1
; Function compile flags: /Ogsp
CONST	ENDS
;	COMDAT ??0TutorialBtn@@QAE@XZ
_TEXT	SEGMENT
??0TutorialBtn@@QAE@XZ PROC				; TutorialBtn::TutorialBtn, COMDAT
; _this$ = ecx

; 36   : {

  00000	56		 push	 esi
  00001	8b f1		 mov	 esi, ecx
  00003	ff 15 00 00 00
	00		 call	 DWORD PTR __imp_??0ioButton@@QAE@XZ

; 37   : 	m_dwScreenTimer = 0;
; 38   : 	m_dwCurTimer    = 0;
; 39   : 	m_bScreen       = false;
; 40   : 	m_fIconScale = 1.f;

  00009	f3 0f 10 05 00
	00 00 00	 movss	 xmm0, DWORD PTR __real@3f800000
  00011	33 c0		 xor	 eax, eax
  00013	89 86 fc 01 00
	00		 mov	 DWORD PTR [esi+508], eax
  00019	89 86 00 02 00
	00		 mov	 DWORD PTR [esi+512], eax
  0001f	88 86 04 02 00
	00		 mov	 BYTE PTR [esi+516], al
  00025	c7 06 00 00 00
	00		 mov	 DWORD PTR [esi], OFFSET ??_7TutorialBtn@@6B@
  0002b	f3 0f 11 86 08
	02 00 00	 movss	 DWORD PTR [esi+520], xmm0

; 41   : }

  00033	8b c6		 mov	 eax, esi
  00035	5e		 pop	 esi
  00036	c3		 ret	 0
??0TutorialBtn@@QAE@XZ ENDP				; TutorialBtn::TutorialBtn
_TEXT	ENDS
PUBLIC	??1TutorialBtn@@UAE@XZ				; TutorialBtn::~TutorialBtn
EXTRN	__imp_??1ioButton@@UAE@XZ:PROC
; Function compile flags: /Ogsp
;	COMDAT ??1TutorialBtn@@UAE@XZ
_TEXT	SEGMENT
??1TutorialBtn@@UAE@XZ PROC				; TutorialBtn::~TutorialBtn, COMDAT
; _this$ = ecx

; 44   : {

  00000	c7 01 00 00 00
	00		 mov	 DWORD PTR [ecx], OFFSET ??_7TutorialBtn@@6B@

; 45   : 
; 46   : }

  00006	ff 25 00 00 00
	00		 jmp	 DWORD PTR __imp_??1ioButton@@UAE@XZ
??1TutorialBtn@@UAE@XZ ENDP				; TutorialBtn::~TutorialBtn
_TEXT	ENDS
EXTRN	__imp_?GetLoopSec@ioFrameTimer@@QBEKXZ:PROC
EXTRN	__imp_?GetSingleton@ioFrameTimer@@SAAAV1@XZ:PROC
EXTRN	__imp_?IsShow@ioWnd@@QBE_NXZ:PROC
; Function compile flags: /Ogsp
;	COMDAT ?OnProcess@TutorialBtn@@MAEXM@Z
_TEXT	SEGMENT
_fTimePerSec$ = 8					; size = 4
?OnProcess@TutorialBtn@@MAEXM@Z PROC			; TutorialBtn::OnProcess, COMDAT
; _this$ = ecx

; 57   : {

  00000	56		 push	 esi
  00001	8b f1		 mov	 esi, ecx

; 58   : 	if( !IsShow() ) return;

  00003	ff 15 00 00 00
	00		 call	 DWORD PTR __imp_?IsShow@ioWnd@@QBE_NXZ
  00009	84 c0		 test	 al, al
  0000b	74 40		 je	 SHORT $LN1@OnProcess

; 59   : 
; 60   : 	if( FRAMEGETTIME() - m_dwCurTimer > m_dwScreenTimer )

  0000d	57		 push	 edi
  0000e	8b 3d 00 00 00
	00		 mov	 edi, DWORD PTR __imp_?GetSingleton@ioFrameTimer@@SAAAV1@XZ
  00014	ff d7		 call	 edi
  00016	8b c8		 mov	 ecx, eax
  00018	ff 15 00 00 00
	00		 call	 DWORD PTR __imp_?GetLoopSec@ioFrameTimer@@QBEKXZ
  0001e	2b 86 00 02 00
	00		 sub	 eax, DWORD PTR [esi+512]
  00024	3b 86 fc 01 00
	00		 cmp	 eax, DWORD PTR [esi+508]
  0002a	76 20		 jbe	 SHORT $LN5@OnProcess

; 61   : 	{
; 62   : 		m_dwCurTimer = FRAMEGETTIME();

  0002c	ff d7		 call	 edi
  0002e	8b c8		 mov	 ecx, eax
  00030	ff 15 00 00 00
	00		 call	 DWORD PTR __imp_?GetLoopSec@ioFrameTimer@@QBEKXZ

; 63   : 		m_bScreen = !m_bScreen;

  00036	80 be 04 02 00
	00 00		 cmp	 BYTE PTR [esi+516], 0
  0003d	89 86 00 02 00
	00		 mov	 DWORD PTR [esi+512], eax
  00043	0f 94 c1	 sete	 cl
  00046	88 8e 04 02 00
	00		 mov	 BYTE PTR [esi+516], cl
$LN5@OnProcess:
  0004c	5f		 pop	 edi
$LN1@OnProcess:
  0004d	5e		 pop	 esi

; 64   : 	}
; 65   : }

  0004e	c2 04 00	 ret	 4
?OnProcess@TutorialBtn@@MAEXM@Z ENDP			; TutorialBtn::OnProcess
_TEXT	ENDS
EXTRN	__imp_?OnDrawNormal@ioButton@@MAEXHH@Z:PROC
EXTRN	__imp_?OnDrawOvered@ioButton@@MAEXHH@Z:PROC
; Function compile flags: /Ogsp
;	COMDAT ?OnDrawNormal@TutorialBtn@@MAEXHH@Z
_TEXT	SEGMENT
_iXPos$ = 8						; size = 4
_iYPos$ = 12						; size = 4
?OnDrawNormal@TutorialBtn@@MAEXHH@Z PROC		; TutorialBtn::OnDrawNormal, COMDAT
; _this$ = ecx

; 68   : {

  00000	55		 push	 ebp
  00001	8b ec		 mov	 ebp, esp

; 69   : 	if( m_bScreen )

  00003	80 b9 04 02 00
	00 00		 cmp	 BYTE PTR [ecx+516], 0
  0000a	74 07		 je	 SHORT $LN2@OnDrawNorm

; 73   : }

  0000c	5d		 pop	 ebp

; 70   : 		ioButton::OnDrawOvered( iXPos, iYPos );

  0000d	ff 25 00 00 00
	00		 jmp	 DWORD PTR __imp_?OnDrawOvered@ioButton@@MAEXHH@Z
$LN2@OnDrawNorm:

; 73   : }

  00013	5d		 pop	 ebp

; 71   : 	else
; 72   : 		ioButton::OnDrawNormal( iXPos, iYPos );

  00014	ff 25 00 00 00
	00		 jmp	 DWORD PTR __imp_?OnDrawNormal@ioButton@@MAEXHH@Z
?OnDrawNormal@TutorialBtn@@MAEXHH@Z ENDP		; TutorialBtn::OnDrawNormal
_TEXT	ENDS
EXTRN	__imp_?OnRender@ioButton@@MAEXXZ:PROC
; Function compile flags: /Ogsp
;	COMDAT ?OnRender@TutorialBtn@@MAEXXZ
_TEXT	SEGMENT
?OnRender@TutorialBtn@@MAEXXZ PROC			; TutorialBtn::OnRender, COMDAT
; _this$ = ecx

; 77   : //	if( !g_GUIMgr.IsSkipUIByBlind() )
; 78   : 	{
; 79   : 		ioButton::OnRender();

  00000	ff 25 00 00 00
	00		 jmp	 DWORD PTR __imp_?OnRender@ioButton@@MAEXXZ
?OnRender@TutorialBtn@@MAEXXZ ENDP			; TutorialBtn::OnRender
_TEXT	ENDS
PUBLIC	_sinf
EXTRN	__CIsin:PROC
; Function compile flags: /Ogsp
; File c:\program files (x86)\microsoft visual studio 10.0\vc\include\math.h
;	COMDAT _sinf
_TEXT	SEGMENT
tv69 = 8						; size = 4
__X$ = 8						; size = 4
_sinf	PROC						; COMDAT

; 430  :         {return ((float)sin((double)_X)); }

  00000	55		 push	 ebp
  00001	8b ec		 mov	 ebp, esp
  00003	d9 45 08	 fld	 DWORD PTR __X$[ebp]
  00006	e8 00 00 00 00	 call	 __CIsin
  0000b	d9 5d 08	 fstp	 DWORD PTR tv69[ebp]
  0000e	d9 45 08	 fld	 DWORD PTR tv69[ebp]
  00011	5d		 pop	 ebp
  00012	c3		 ret	 0
_sinf	ENDP
_TEXT	ENDS
PUBLIC	?IsTextTick@TutorialWnd@@QAE_NXZ		; TutorialWnd::IsTextTick
; Function compile flags: /Ogsp
; File d:\lost saga for developer\youtube\tutorial\source\src\lsclient\gui\tutorialwnd.cpp
;	COMDAT ?IsTextTick@TutorialWnd@@QAE_NXZ
_TEXT	SEGMENT
?IsTextTick@TutorialWnd@@QAE_NXZ PROC			; TutorialWnd::IsTextTick, COMDAT
; _this$ = ecx

; 234  : 	if( m_dwCurTextTickTime == 0 )

  00000	83 b9 70 01 00
	00 00		 cmp	 DWORD PTR [ecx+368], 0
  00007	0f 95 c0	 setne	 al

; 235  : 		return false;
; 236  : 
; 237  : 	return true;
; 238  : }

  0000a	c3		 ret	 0
?IsTextTick@TutorialWnd@@QAE_NXZ ENDP			; TutorialWnd::IsTextTick
_TEXT	ENDS
PUBLIC	??_7bad_alloc@std@@6B@				; std::bad_alloc::`vftable'
PUBLIC	??0bad_alloc@std@@QAE@PBD@Z			; std::bad_alloc::bad_alloc
PUBLIC	??_R4bad_alloc@std@@6B@				; std::bad_alloc::`RTTI Complete Object Locator'
PUBLIC	??_R0?AVbad_alloc@std@@@8			; std::bad_alloc `RTTI Type Descriptor'
PUBLIC	??_R3bad_alloc@std@@8				; std::bad_alloc::`RTTI Class Hierarchy Descriptor'
PUBLIC	??_R2bad_alloc@std@@8				; std::bad_alloc::`RTTI Base Class Array'
PUBLIC	??_R1A@?0A@EA@bad_alloc@std@@8			; std::bad_alloc::`RTTI Base Class Descriptor at (0,-1,0,64)'
PUBLIC	??_R1A@?0A@EA@exception@std@@8			; std::exception::`RTTI Base Class Descriptor at (0,-1,0,64)'
PUBLIC	??_R0?AVexception@std@@@8			; std::exception `RTTI Type Descriptor'
PUBLIC	??_R3exception@std@@8				; std::exception::`RTTI Class Hierarchy Descriptor'
PUBLIC	??_R2exception@std@@8				; std::exception::`RTTI Base Class Array'
EXTRN	__imp_??0exception@std@@QAE@ABQBD@Z:PROC
EXTRN	??_Ebad_alloc@std@@UAEPAXI@Z:PROC		; std::bad_alloc::`vector deleting destructor'
EXTRN	?what@exception@std@@UBEPBDXZ:PROC		; std::exception::what
;	COMDAT ??_R2exception@std@@8
; File c:\program files (x86)\microsoft visual studio 10.0\vc\include\exception
rdata$r	SEGMENT
??_R2exception@std@@8 DD FLAT:??_R1A@?0A@EA@exception@std@@8 ; std::exception::`RTTI Base Class Array'
rdata$r	ENDS
;	COMDAT ??_R3exception@std@@8
rdata$r	SEGMENT
??_R3exception@std@@8 DD 00H				; std::exception::`RTTI Class Hierarchy Descriptor'
	DD	00H
	DD	01H
	DD	FLAT:??_R2exception@std@@8
rdata$r	ENDS
;	COMDAT ??_R0?AVexception@std@@@8
_DATA	SEGMENT
??_R0?AVexception@std@@@8 DD FLAT:??_7type_info@@6B@	; std::exception `RTTI Type Descriptor'
	DD	00H
	DB	'.?AVexception@std@@', 00H
_DATA	ENDS
;	COMDAT ??_R1A@?0A@EA@exception@std@@8
rdata$r	SEGMENT
??_R1A@?0A@EA@exception@std@@8 DD FLAT:??_R0?AVexception@std@@@8 ; std::exception::`RTTI Base Class Descriptor at (0,-1,0,64)'
	DD	00H
	DD	00H
	DD	0ffffffffH
	DD	00H
	DD	040H
	DD	FLAT:??_R3exception@std@@8
rdata$r	ENDS
;	COMDAT ??_R1A@?0A@EA@bad_alloc@std@@8
rdata$r	SEGMENT
??_R1A@?0A@EA@bad_alloc@std@@8 DD FLAT:??_R0?AVbad_alloc@std@@@8 ; std::bad_alloc::`RTTI Base Class Descriptor at (0,-1,0,64)'
	DD	01H
	DD	00H
	DD	0ffffffffH
	DD	00H
	DD	040H
	DD	FLAT:??_R3bad_alloc@std@@8
rdata$r	ENDS
;	COMDAT ??_R2bad_alloc@std@@8
rdata$r	SEGMENT
??_R2bad_alloc@std@@8 DD FLAT:??_R1A@?0A@EA@bad_alloc@std@@8 ; std::bad_alloc::`RTTI Base Class Array'
	DD	FLAT:??_R1A@?0A@EA@exception@std@@8
rdata$r	ENDS
;	COMDAT ??_R3bad_alloc@std@@8
rdata$r	SEGMENT
??_R3bad_alloc@std@@8 DD 00H				; std::bad_alloc::`RTTI Class Hierarchy Descriptor'
	DD	00H
	DD	02H
	DD	FLAT:??_R2bad_alloc@std@@8
rdata$r	ENDS
;	COMDAT ??_R0?AVbad_alloc@std@@@8
_DATA	SEGMENT
??_R0?AVbad_alloc@std@@@8 DD FLAT:??_7type_info@@6B@	; std::bad_alloc `RTTI Type Descriptor'
	DD	00H
	DB	'.?AVbad_alloc@std@@', 00H
_DATA	ENDS
;	COMDAT ??_R4bad_alloc@std@@6B@
rdata$r	SEGMENT
??_R4bad_alloc@std@@6B@ DD 00H				; std::bad_alloc::`RTTI Complete Object Locator'
	DD	00H
	DD	00H
	DD	FLAT:??_R0?AVbad_alloc@std@@@8
	DD	FLAT:??_R3bad_alloc@std@@8
rdata$r	ENDS
;	COMDAT ??_7bad_alloc@std@@6B@
CONST	SEGMENT
??_7bad_alloc@std@@6B@ DD FLAT:??_R4bad_alloc@std@@6B@	; std::bad_alloc::`vftable'
	DD	FLAT:??_Ebad_alloc@std@@UAEPAXI@Z
	DD	FLAT:?what@exception@std@@UBEPBDXZ
; Function compile flags: /Ogsp
CONST	ENDS
;	COMDAT ??0bad_alloc@std@@QAE@PBD@Z
_TEXT	SEGMENT
__Message$ = 8						; size = 4
??0bad_alloc@std@@QAE@PBD@Z PROC			; std::bad_alloc::bad_alloc, COMDAT
; _this$ = ecx

; 345  : 		{	// construct from message string

  00000	55		 push	 ebp
  00001	8b ec		 mov	 ebp, esp
  00003	56		 push	 esi
  00004	8d 45 08	 lea	 eax, DWORD PTR __Message$[ebp]
  00007	50		 push	 eax
  00008	8b f1		 mov	 esi, ecx
  0000a	ff 15 00 00 00
	00		 call	 DWORD PTR __imp_??0exception@std@@QAE@ABQBD@Z
  00010	c7 06 00 00 00
	00		 mov	 DWORD PTR [esi], OFFSET ??_7bad_alloc@std@@6B@

; 346  : 		}

  00016	8b c6		 mov	 eax, esi
  00018	5e		 pop	 esi
  00019	5d		 pop	 ebp
  0001a	c2 04 00	 ret	 4
??0bad_alloc@std@@QAE@PBD@Z ENDP			; std::bad_alloc::bad_alloc
_TEXT	ENDS
PUBLIC	??1bad_alloc@std@@UAE@XZ			; std::bad_alloc::~bad_alloc
EXTRN	__imp_??1exception@std@@UAE@XZ:PROC
; Function compile flags: /Ogsp
;	COMDAT ??1bad_alloc@std@@UAE@XZ
_TEXT	SEGMENT
??1bad_alloc@std@@UAE@XZ PROC				; std::bad_alloc::~bad_alloc, COMDAT
; _this$ = ecx

; 354  : 		{	// destroy the object

  00000	c7 01 00 00 00
	00		 mov	 DWORD PTR [ecx], OFFSET ??_7bad_alloc@std@@6B@

; 355  : 		}

  00006	ff 25 00 00 00
	00		 jmp	 DWORD PTR __imp_??1exception@std@@UAE@XZ
??1bad_alloc@std@@UAE@XZ ENDP				; std::bad_alloc::~bad_alloc
_TEXT	ENDS
EXTRN	??3@YAXPAX@Z:PROC				; operator delete
; Function compile flags: /Ogsp
;	COMDAT ??_Gbad_alloc@std@@UAEPAXI@Z
_TEXT	SEGMENT
___flags$ = 8						; size = 4
??_Gbad_alloc@std@@UAEPAXI@Z PROC			; std::bad_alloc::`scalar deleting destructor', COMDAT
; _this$ = ecx
  00000	55		 push	 ebp
  00001	8b ec		 mov	 ebp, esp
  00003	56		 push	 esi
  00004	8b f1		 mov	 esi, ecx
  00006	c7 06 00 00 00
	00		 mov	 DWORD PTR [esi], OFFSET ??_7bad_alloc@std@@6B@
  0000c	ff 15 00 00 00
	00		 call	 DWORD PTR __imp_??1exception@std@@UAE@XZ
  00012	f6 45 08 01	 test	 BYTE PTR ___flags$[ebp], 1
  00016	74 07		 je	 SHORT $LN1@scalar
  00018	56		 push	 esi
  00019	e8 00 00 00 00	 call	 ??3@YAXPAX@Z		; operator delete
  0001e	59		 pop	 ecx
$LN1@scalar:
  0001f	8b c6		 mov	 eax, esi
  00021	5e		 pop	 esi
  00022	5d		 pop	 ebp
  00023	c2 04 00	 ret	 4
??_Gbad_alloc@std@@UAEPAXI@Z ENDP			; std::bad_alloc::`scalar deleting destructor'
_TEXT	ENDS
PUBLIC	__real@40400000
PUBLIC	__real@c1a00000
PUBLIC	?SetCountUp@TutorialWnd@@IAEXXZ			; TutorialWnd::SetCountUp
;	COMDAT __real@40400000
; File d:\lost saga for developer\youtube\tutorial\source\src\lsclient\gui\tutorialwnd.cpp
CONST	SEGMENT
__real@40400000 DD 040400000r			; 3
CONST	ENDS
;	COMDAT __real@c1a00000
CONST	SEGMENT
__real@c1a00000 DD 0c1a00000r			; -20
; Function compile flags: /Ogsp
CONST	ENDS
;	COMDAT ?SetCountUp@TutorialWnd@@IAEXXZ
_TEXT	SEGMENT
?SetCountUp@TutorialWnd@@IAEXXZ PROC			; TutorialWnd::SetCountUp, COMDAT
; _this$ = ecx

; 324  : 	m_fFontYGap		= -20.0f;

  00000	f3 0f 10 05 00
	00 00 00	 movss	 xmm0, DWORD PTR __real@c1a00000
  00008	56		 push	 esi
  00009	8b f1		 mov	 esi, ecx
  0000b	f3 0f 11 86 e8
	01 00 00	 movss	 DWORD PTR [esi+488], xmm0

; 325  : 	m_fScale		= 3.0f;

  00013	f3 0f 10 05 00
	00 00 00	 movss	 xmm0, DWORD PTR __real@40400000
  0001b	f3 0f 11 86 e4
	01 00 00	 movss	 DWORD PTR [esi+484], xmm0

; 326  : 	m_dwCurTimer	= FRAMEGETTIME();

  00023	ff 15 00 00 00
	00		 call	 DWORD PTR __imp_?GetSingleton@ioFrameTimer@@SAAAV1@XZ
  00029	8b c8		 mov	 ecx, eax
  0002b	ff 15 00 00 00
	00		 call	 DWORD PTR __imp_?GetLoopSec@ioFrameTimer@@QBEKXZ
  00031	89 86 ec 01 00
	00		 mov	 DWORD PTR [esi+492], eax
  00037	5e		 pop	 esi

; 327  : }

  00038	c3		 ret	 0
?SetCountUp@TutorialWnd@@IAEXXZ ENDP			; TutorialWnd::SetCountUp
_TEXT	ENDS
PUBLIC	?iwm_show@TutorialWnd@@UAEXXZ			; TutorialWnd::iwm_show
EXTRN	__imp_?ShowWnd@ioGUIManager@@QAEXK_N@Z:PROC
EXTRN	?GetSingleton@ioSP2GUIManager@@SAAAV1@XZ:PROC	; ioSP2GUIManager::GetSingleton
; Function compile flags: /Ogsp
;	COMDAT ?iwm_show@TutorialWnd@@UAEXXZ
_TEXT	SEGMENT
?iwm_show@TutorialWnd@@UAEXXZ PROC			; TutorialWnd::iwm_show, COMDAT
; _this$ = ecx

; 331  : 	g_GUIMgr.ShowWnd( TUTORIAL_KEYBOARD_WND );

  00000	6a 00		 push	 0
  00002	68 a2 13 00 00	 push	 5026			; 000013a2H
  00007	e8 00 00 00 00	 call	 ?GetSingleton@ioSP2GUIManager@@SAAAV1@XZ ; ioSP2GUIManager::GetSingleton
  0000c	8b c8		 mov	 ecx, eax
  0000e	ff 15 00 00 00
	00		 call	 DWORD PTR __imp_?ShowWnd@ioGUIManager@@QAEXK_N@Z

; 332  : }

  00014	c3		 ret	 0
?iwm_show@TutorialWnd@@UAEXXZ ENDP			; TutorialWnd::iwm_show
_TEXT	ENDS
PUBLIC	?iwm_hide@TutorialWnd@@UAEXXZ			; TutorialWnd::iwm_hide
; Function compile flags: /Ogsp
;	COMDAT ?iwm_hide@TutorialWnd@@UAEXXZ
_TEXT	SEGMENT
?iwm_hide@TutorialWnd@@UAEXXZ PROC			; TutorialWnd::iwm_hide, COMDAT
; _this$ = ecx

; 336  : 	
; 337  : }

  00000	c3		 ret	 0
?iwm_hide@TutorialWnd@@UAEXXZ ENDP			; TutorialWnd::iwm_hide
_TEXT	ENDS
PUBLIC	??_C@_0BJ@KHJBODMP@TutorialWnd?3?3iwm_command?$AA@ ; `string'
PUBLIC	??_C@_00CNPNBAHC@?$AA@				; `string'
PUBLIC	?iwm_command@TutorialWnd@@UAEXPAVioWnd@@HK@Z	; TutorialWnd::iwm_command
EXTRN	?SetMsgBox@ioSP2GUIManager@@QAAXHPAVioWnd@@PBDZZ:PROC ; ioSP2GUIManager::SetMsgBox
EXTRN	__imp_?GetString@ioStringManager@@QAEPADPBD0HW4FileNamePrefix@1@@Z:PROC
EXTRN	__imp_?GetSingleton@ioStringManager@@SAAAV1@XZ:PROC
EXTRN	?OnStart@ioTutorialManager@@QAEXXZ:PROC		; ioTutorialManager::OnStart
EXTRN	?OnNext@ioTutorialManager@@QAEXXZ:PROC		; ioTutorialManager::OnNext
EXTRN	__imp_?HideWnd@ioWnd@@QAEXXZ:PROC
EXTRN	?OnClear@ioTutorialManager@@QAEX_N@Z:PROC	; ioTutorialManager::OnClear
EXTRN	?OnAllSkip@ioTutorialManager@@QAEXXZ:PROC	; ioTutorialManager::OnAllSkip
EXTRN	?GetSingleton@ioTutorialManager@@SAAAV1@XZ:PROC	; ioTutorialManager::GetSingleton
EXTRN	__imp_?GetID@ioWnd@@QBEKXZ:PROC
;	COMDAT ??_C@_0BJ@KHJBODMP@TutorialWnd?3?3iwm_command?$AA@
CONST	SEGMENT
??_C@_0BJ@KHJBODMP@TutorialWnd?3?3iwm_command?$AA@ DB 'TutorialWnd::iwm_c'
	DB	'ommand', 00H				; `string'
CONST	ENDS
;	COMDAT ??_C@_00CNPNBAHC@?$AA@
CONST	SEGMENT
??_C@_00CNPNBAHC@?$AA@ DB 00H				; `string'
; Function compile flags: /Ogsp
CONST	ENDS
;	COMDAT ?iwm_command@TutorialWnd@@UAEXPAVioWnd@@HK@Z
_TEXT	SEGMENT
_pWnd$ = 8						; size = 4
_cmd$ = 12						; size = 4
_param$ = 16						; size = 4
?iwm_command@TutorialWnd@@UAEXPAVioWnd@@HK@Z PROC	; TutorialWnd::iwm_command, COMDAT
; _this$ = ecx

; 345  : {

  00000	55		 push	 ebp
  00001	8b ec		 mov	 ebp, esp
  00003	56		 push	 esi
  00004	8b f1		 mov	 esi, ecx

; 346  : 	DWORD dwID = pWnd->GetID();

  00006	8b 4d 08	 mov	 ecx, DWORD PTR _pWnd$[ebp]
  00009	ff 15 00 00 00
	00		 call	 DWORD PTR __imp_?GetID@ioWnd@@QBEKXZ

; 347  : 	switch( dwID )

  0000f	48		 dec	 eax
  00010	0f 84 c0 00 00
	00		 je	 $LN22@iwm_comman
  00016	48		 dec	 eax
  00017	0f 84 a5 00 00
	00		 je	 $LN20@iwm_comman
  0001d	48		 dec	 eax
  0001e	0f 84 8a 00 00
	00		 je	 $LN18@iwm_comman
  00024	48		 dec	 eax
  00025	74 69		 je	 SHORT $LN16@iwm_comman
  00027	48		 dec	 eax
  00028	74 45		 je	 SHORT $LN14@iwm_comman
  0002a	2d 0b 27 00 00	 sub	 eax, 9995		; 0000270bH
  0002f	0f 85 d5 00 00
	00		 jne	 $LN21@iwm_comman

; 387  : 			{
; 388  : 				g_TutorialMgr.OnNext();
; 389  : 			}
; 390  : 		}
; 391  : 		break;
; 392  : 	case MESSAGE_BOX:
; 393  : 		if( cmd == IOBN_BTNUP )

  00035	83 7d 0c 11	 cmp	 DWORD PTR _cmd$[ebp], 17 ; 00000011H
  00039	0f 85 cb 00 00
	00		 jne	 $LN21@iwm_comman

; 394  : 		{
; 395  : 			if( param == IDYES )

  0003f	83 7d 10 06	 cmp	 DWORD PTR _param$[ebp], 6
  00043	0f 85 c1 00 00
	00		 jne	 $LN21@iwm_comman

; 396  : 			{
; 397  : 				if(  m_iCurUseSkipBtnID == ID_START )

  00049	8b 86 a0 01 00
	00		 mov	 eax, DWORD PTR [esi+416]
  0004f	83 f8 02	 cmp	 eax, 2

; 398  : 					g_TutorialMgr.OnAllSkip();

  00052	74 05		 je	 SHORT $LN30@iwm_comman

; 399  : 				else if( m_iCurUseSkipBtnID == ID_NEXT )

  00054	83 f8 03	 cmp	 eax, 3
  00057	75 11		 jne	 SHORT $LN3@iwm_comman
$LN30@iwm_comman:

; 400  : 					g_TutorialMgr.OnAllSkip();

  00059	e8 00 00 00 00	 call	 ?GetSingleton@ioTutorialManager@@SAAAV1@XZ ; ioTutorialManager::GetSingleton
  0005e	8b c8		 mov	 ecx, eax
  00060	e8 00 00 00 00	 call	 ?OnAllSkip@ioTutorialManager@@QAEXXZ ; ioTutorialManager::OnAllSkip
  00065	e9 a0 00 00 00	 jmp	 $LN21@iwm_comman
$LN3@iwm_comman:

; 401  : 				else if( m_iCurUseSkipBtnID == ID_CLEAR )

  0006a	83 f8 04	 cmp	 eax, 4

; 402  : 				{
; 403  : 					g_TutorialMgr.OnClear();
; 404  : 					HideWnd();
; 405  : 				}
; 406  : 			}
; 407  : 		}
; 408  : 		break;

  0006d	eb 25		 jmp	 SHORT $LN28@iwm_comman
$LN14@iwm_comman:

; 374  : 	case ID_SKIP:
; 375  : 		if( cmd == IOBN_BTNUP )

  0006f	83 7d 0c 11	 cmp	 DWORD PTR _cmd$[ebp], 17 ; 00000011H
  00073	0f 85 91 00 00
	00		 jne	 $LN21@iwm_comman

; 376  : 		{
; 377  : 			if( m_iCurStep == 0 )

  00079	8b 86 b4 01 00
	00		 mov	 eax, DWORD PTR [esi+436]
  0007f	85 c0		 test	 eax, eax

; 378  : 			{
; 379  : 				g_TutorialMgr.OnStart();

  00081	74 45		 je	 SHORT $LN27@iwm_comman

; 380  : 			}
; 381  : 			else if( m_iCurStep == m_iMaxStep - 1 )

  00083	8b 8e b8 01 00
	00		 mov	 ecx, DWORD PTR [esi+440]
  00089	49		 dec	 ecx
  0008a	3b c1		 cmp	 eax, ecx
  0008c	75 26		 jne	 SHORT $LN10@iwm_comman

; 382  : 			{
; 383  : 				g_TutorialMgr.OnClear();
; 384  : 				HideWnd();
; 385  : 			}
; 386  : 			else

  0008e	eb 06		 jmp	 SHORT $LN29@iwm_comman
$LN16@iwm_comman:

; 367  : 	case ID_CLEAR:
; 368  : 		if( cmd == IOBN_BTNUP )

  00090	83 7d 0c 11	 cmp	 DWORD PTR _cmd$[ebp], 17 ; 00000011H
$LN28@iwm_comman:
  00094	75 74		 jne	 SHORT $LN21@iwm_comman
$LN29@iwm_comman:

; 369  : 		{
; 370  : 			g_TutorialMgr.OnClear();

  00096	6a 01		 push	 1
  00098	e8 00 00 00 00	 call	 ?GetSingleton@ioTutorialManager@@SAAAV1@XZ ; ioTutorialManager::GetSingleton
  0009d	8b c8		 mov	 ecx, eax
  0009f	e8 00 00 00 00	 call	 ?OnClear@ioTutorialManager@@QAEX_N@Z ; ioTutorialManager::OnClear

; 371  : 			HideWnd();

  000a4	8b ce		 mov	 ecx, esi
  000a6	ff 15 00 00 00
	00		 call	 DWORD PTR __imp_?HideWnd@ioWnd@@QAEXXZ

; 372  : 		}
; 373  : 		break;

  000ac	eb 5c		 jmp	 SHORT $LN21@iwm_comman
$LN18@iwm_comman:

; 361  : 	case ID_NEXT:
; 362  : 		if( cmd == IOBN_BTNUP )

  000ae	83 7d 0c 11	 cmp	 DWORD PTR _cmd$[ebp], 17 ; 00000011H
  000b2	75 56		 jne	 SHORT $LN21@iwm_comman
$LN10@iwm_comman:

; 363  : 		{
; 364  : 			g_TutorialMgr.OnNext();

  000b4	e8 00 00 00 00	 call	 ?GetSingleton@ioTutorialManager@@SAAAV1@XZ ; ioTutorialManager::GetSingleton
  000b9	8b c8		 mov	 ecx, eax
  000bb	e8 00 00 00 00	 call	 ?OnNext@ioTutorialManager@@QAEXXZ ; ioTutorialManager::OnNext

; 365  : 		}
; 366  : 		break;

  000c0	eb 48		 jmp	 SHORT $LN21@iwm_comman
$LN20@iwm_comman:

; 353  : 		}
; 354  : 		break;
; 355  : 	case ID_START:
; 356  : 		if( cmd == IOBN_BTNUP )

  000c2	83 7d 0c 11	 cmp	 DWORD PTR _cmd$[ebp], 17 ; 00000011H
  000c6	75 42		 jne	 SHORT $LN21@iwm_comman
$LN27@iwm_comman:

; 357  : 		{
; 358  : 			g_TutorialMgr.OnStart();

  000c8	e8 00 00 00 00	 call	 ?GetSingleton@ioTutorialManager@@SAAAV1@XZ ; ioTutorialManager::GetSingleton
  000cd	8b c8		 mov	 ecx, eax
  000cf	e8 00 00 00 00	 call	 ?OnStart@ioTutorialManager@@QAEXXZ ; ioTutorialManager::OnStart

; 359  : 		}
; 360  : 		break;

  000d4	eb 34		 jmp	 SHORT $LN21@iwm_comman
$LN22@iwm_comman:

; 348  : 	{
; 349  : 	case ID_EXIT:
; 350  : 		if( cmd == IOBN_BTNUP )

  000d6	83 7d 0c 11	 cmp	 DWORD PTR _cmd$[ebp], 17 ; 00000011H
  000da	75 2e		 jne	 SHORT $LN21@iwm_comman

; 351  : 		{
; 352  : 			g_GUIMgr.SetMsgBox( MB_YESNO, this, STR(1) );

  000dc	6a 00		 push	 0
  000de	6a 01		 push	 1
  000e0	68 00 00 00 00	 push	 OFFSET ??_C@_00CNPNBAHC@?$AA@
  000e5	68 00 00 00 00	 push	 OFFSET ??_C@_0BJ@KHJBODMP@TutorialWnd?3?3iwm_command?$AA@
  000ea	ff 15 00 00 00
	00		 call	 DWORD PTR __imp_?GetSingleton@ioStringManager@@SAAAV1@XZ
  000f0	8b c8		 mov	 ecx, eax
  000f2	ff 15 00 00 00
	00		 call	 DWORD PTR __imp_?GetString@ioStringManager@@QAEPADPBD0HW4FileNamePrefix@1@@Z
  000f8	50		 push	 eax
  000f9	56		 push	 esi
  000fa	6a 04		 push	 4
  000fc	e8 00 00 00 00	 call	 ?GetSingleton@ioSP2GUIManager@@SAAAV1@XZ ; ioSP2GUIManager::GetSingleton
  00101	50		 push	 eax
  00102	e8 00 00 00 00	 call	 ?SetMsgBox@ioSP2GUIManager@@QAAXHPAVioWnd@@PBDZZ ; ioSP2GUIManager::SetMsgBox
  00107	83 c4 10	 add	 esp, 16			; 00000010H
$LN21@iwm_comman:
  0010a	5e		 pop	 esi

; 409  : 	}
; 410  : }

  0010b	5d		 pop	 ebp
  0010c	c2 0c 00	 ret	 12			; 0000000cH
?iwm_command@TutorialWnd@@UAEXPAVioWnd@@HK@Z ENDP	; TutorialWnd::iwm_command
_TEXT	ENDS
PUBLIC	??2@YAPAXIPAX@Z					; operator new
; Function compile flags: /Ogsp
; File c:\program files (x86)\microsoft visual studio 10.0\vc\include\new
;	COMDAT ??2@YAPAXIPAX@Z
_TEXT	SEGMENT
___formal$ = 8						; size = 4
__Where$ = 12						; size = 4
??2@YAPAXIPAX@Z PROC					; operator new, COMDAT

; 56   : 	{	// construct array with placement at _Where

  00000	55		 push	 ebp
  00001	8b ec		 mov	 ebp, esp

; 57   : 	return (_Where);

  00003	8b 45 0c	 mov	 eax, DWORD PTR __Where$[ebp]

; 58   : 	}

  00006	5d		 pop	 ebp
  00007	c3		 ret	 0
??2@YAPAXIPAX@Z ENDP					; operator new
_TEXT	ENDS
PUBLIC	??3@YAXPAX0@Z					; operator delete
; Function compile flags: /Ogsp
;	COMDAT ??3@YAXPAX0@Z
_TEXT	SEGMENT
___formal$ = 8						; size = 4
___formal$ = 12						; size = 4
??3@YAXPAX0@Z PROC					; operator delete, COMDAT

; 62   : 	}

  00000	c3		 ret	 0
??3@YAXPAX0@Z ENDP					; operator delete
_TEXT	ENDS
PUBLIC	?IsTutorialEsc@TutorialWnd@@QAE_NXZ		; TutorialWnd::IsTutorialEsc
EXTRN	__imp_?FindChildWnd@ioWnd@@QAEPAV1@K@Z:PROC
; Function compile flags: /Ogsp
; File d:\lost saga for developer\youtube\tutorial\source\src\lsclient\gui\tutorialwnd.cpp
;	COMDAT ?IsTutorialEsc@TutorialWnd@@QAE_NXZ
_TEXT	SEGMENT
?IsTutorialEsc@TutorialWnd@@QAE_NXZ PROC		; TutorialWnd::IsTutorialEsc, COMDAT
; _this$ = ecx

; 512  : {

  00000	57		 push	 edi
  00001	8b f9		 mov	 edi, ecx

; 513  : 	if( !IsShow() ) return false;

  00003	ff 15 00 00 00
	00		 call	 DWORD PTR __imp_?IsShow@ioWnd@@QBE_NXZ
  00009	84 c0		 test	 al, al
  0000b	75 04		 jne	 SHORT $LN5@IsTutorial
$LN13@IsTutorial:
  0000d	32 c0		 xor	 al, al
  0000f	5f		 pop	 edi

; 539  : }

  00010	c3		 ret	 0
$LN5@IsTutorial:

; 514  : 	if( IsTextTick() ) return false;

  00011	83 bf 70 01 00
	00 00		 cmp	 DWORD PTR [edi+368], 0
  00018	75 f3		 jne	 SHORT $LN13@IsTutorial

; 515  : 
; 516  : 	ioWnd *pButton = FindChildWnd( ID_START );

  0001a	56		 push	 esi
  0001b	8b 35 00 00 00
	00		 mov	 esi, DWORD PTR __imp_?FindChildWnd@ioWnd@@QAEPAV1@K@Z
  00021	6a 02		 push	 2
  00023	8b cf		 mov	 ecx, edi
  00025	ff d6		 call	 esi

; 517  : 	if( pButton && pButton->IsShow() )

  00027	85 c0		 test	 eax, eax
  00029	74 1a		 je	 SHORT $LN3@IsTutorial
  0002b	8b c8		 mov	 ecx, eax
  0002d	ff 15 00 00 00
	00		 call	 DWORD PTR __imp_?IsShow@ioWnd@@QBE_NXZ
  00033	84 c0		 test	 al, al
  00035	74 0e		 je	 SHORT $LN3@IsTutorial

; 518  : 	{
; 519  : 		g_TutorialMgr.OnStart();

  00037	e8 00 00 00 00	 call	 ?GetSingleton@ioTutorialManager@@SAAAV1@XZ ; ioTutorialManager::GetSingleton
  0003c	8b c8		 mov	 ecx, eax
  0003e	e8 00 00 00 00	 call	 ?OnStart@ioTutorialManager@@QAEXXZ ; ioTutorialManager::OnStart

; 520  : 		return true;

  00043	eb 50		 jmp	 SHORT $LN12@IsTutorial
$LN3@IsTutorial:

; 521  : 	}
; 522  : 
; 523  : 	pButton = FindChildWnd( ID_NEXT );

  00045	6a 03		 push	 3
  00047	8b cf		 mov	 ecx, edi
  00049	ff d6		 call	 esi

; 524  : 	if( pButton && pButton->IsShow() )

  0004b	85 c0		 test	 eax, eax
  0004d	74 1a		 je	 SHORT $LN2@IsTutorial
  0004f	8b c8		 mov	 ecx, eax
  00051	ff 15 00 00 00
	00		 call	 DWORD PTR __imp_?IsShow@ioWnd@@QBE_NXZ
  00057	84 c0		 test	 al, al
  00059	74 0e		 je	 SHORT $LN2@IsTutorial

; 525  : 	{
; 526  : 		g_TutorialMgr.OnNext();

  0005b	e8 00 00 00 00	 call	 ?GetSingleton@ioTutorialManager@@SAAAV1@XZ ; ioTutorialManager::GetSingleton
  00060	8b c8		 mov	 ecx, eax
  00062	e8 00 00 00 00	 call	 ?OnNext@ioTutorialManager@@QAEXXZ ; ioTutorialManager::OnNext

; 527  : 		return true;

  00067	eb 2c		 jmp	 SHORT $LN12@IsTutorial
$LN2@IsTutorial:

; 528  : 	}
; 529  : 
; 530  : 	pButton = FindChildWnd( ID_CLEAR );

  00069	6a 04		 push	 4
  0006b	8b cf		 mov	 ecx, edi
  0006d	ff d6		 call	 esi

; 531  : 	if( pButton && pButton->IsShow() )

  0006f	85 c0		 test	 eax, eax
  00071	74 26		 je	 SHORT $LN1@IsTutorial
  00073	8b c8		 mov	 ecx, eax
  00075	ff 15 00 00 00
	00		 call	 DWORD PTR __imp_?IsShow@ioWnd@@QBE_NXZ
  0007b	84 c0		 test	 al, al
  0007d	74 1a		 je	 SHORT $LN1@IsTutorial

; 532  : 	{
; 533  : 		g_TutorialMgr.OnClear();

  0007f	6a 01		 push	 1
  00081	e8 00 00 00 00	 call	 ?GetSingleton@ioTutorialManager@@SAAAV1@XZ ; ioTutorialManager::GetSingleton
  00086	8b c8		 mov	 ecx, eax
  00088	e8 00 00 00 00	 call	 ?OnClear@ioTutorialManager@@QAEX_N@Z ; ioTutorialManager::OnClear

; 534  : 		HideWnd(); 

  0008d	8b cf		 mov	 ecx, edi
  0008f	ff 15 00 00 00
	00		 call	 DWORD PTR __imp_?HideWnd@ioWnd@@QAEXXZ
$LN12@IsTutorial:

; 535  : 		return true;

  00095	b0 01		 mov	 al, 1
  00097	eb 02		 jmp	 SHORT $LN11@IsTutorial
$LN1@IsTutorial:

; 536  : 	}
; 537  : 	
; 538  : 	return false;

  00099	32 c0		 xor	 al, al
$LN11@IsTutorial:
  0009b	5e		 pop	 esi
  0009c	5f		 pop	 edi

; 539  : }

  0009d	c3		 ret	 0
?IsTutorialEsc@TutorialWnd@@QAE_NXZ ENDP		; TutorialWnd::IsTutorialEsc
_TEXT	ENDS
PUBLIC	?length@?$char_traits@D@std@@SAIPBD@Z		; std::char_traits<char>::length
; Function compile flags: /Ogsp
; File c:\program files (x86)\microsoft visual studio 10.0\vc\include\iosfwd
;	COMDAT ?length@?$char_traits@D@std@@SAIPBD@Z
_TEXT	SEGMENT
__First$ = 8						; size = 4
?length@?$char_traits@D@std@@SAIPBD@Z PROC		; std::char_traits<char>::length, COMDAT

; 490  : 		{	// find length of null-terminated string

  00000	55		 push	 ebp
  00001	8b ec		 mov	 ebp, esp

; 491  : 		return (_CSTD strlen(_First));

  00003	8b 45 08	 mov	 eax, DWORD PTR __First$[ebp]
  00006	8d 50 01	 lea	 edx, DWORD PTR [eax+1]
$LL3@length:
  00009	8a 08		 mov	 cl, BYTE PTR [eax]
  0000b	40		 inc	 eax
  0000c	84 c9		 test	 cl, cl
  0000e	75 f9		 jne	 SHORT $LL3@length
  00010	2b c2		 sub	 eax, edx

; 492  : 		}

  00012	5d		 pop	 ebp
  00013	c3		 ret	 0
?length@?$char_traits@D@std@@SAIPBD@Z ENDP		; std::char_traits<char>::length
_TEXT	ENDS
PUBLIC	?copy@?$char_traits@D@std@@SAPADPADPBDI@Z	; std::char_traits<char>::copy
EXTRN	_memcpy:PROC
; Function compile flags: /Ogsp
;	COMDAT ?copy@?$char_traits@D@std@@SAPADPADPBDI@Z
_TEXT	SEGMENT
__First1$ = 8						; size = 4
__First2$ = 12						; size = 4
__Count$ = 16						; size = 4
?copy@?$char_traits@D@std@@SAPADPADPBDI@Z PROC		; std::char_traits<char>::copy, COMDAT

; 496  : 		{	// copy [_First1, _First1 + _Count) to [_First2, ...)

  00000	55		 push	 ebp
  00001	8b ec		 mov	 ebp, esp

; 498  : 		}

  00003	5d		 pop	 ebp

; 497  : 		return ((_Elem *)_CSTD memcpy(_First1, _First2, _Count));

  00004	e9 00 00 00 00	 jmp	 _memcpy
?copy@?$char_traits@D@std@@SAPADPADPBDI@Z ENDP		; std::char_traits<char>::copy
_TEXT	ENDS
PUBLIC	?move@?$char_traits@D@std@@SAPADPADPBDI@Z	; std::char_traits<char>::move
EXTRN	__imp__memmove:PROC
; Function compile flags: /Ogsp
;	COMDAT ?move@?$char_traits@D@std@@SAPADPADPBDI@Z
_TEXT	SEGMENT
__First1$ = 8						; size = 4
__First2$ = 12						; size = 4
__Count$ = 16						; size = 4
?move@?$char_traits@D@std@@SAPADPADPBDI@Z PROC		; std::char_traits<char>::move, COMDAT

; 516  : 		{	// copy [_First1, _First1 + _Count) to [_First2, ...)

  00000	55		 push	 ebp
  00001	8b ec		 mov	 ebp, esp

; 518  : 		}

  00003	5d		 pop	 ebp

; 517  : 		return ((_Elem *)_CSTD memmove(_First1, _First2, _Count));

  00004	ff 25 00 00 00
	00		 jmp	 DWORD PTR __imp__memmove
?move@?$char_traits@D@std@@SAPADPADPBDI@Z ENDP		; std::char_traits<char>::move
_TEXT	ENDS
PUBLIC	?assign@?$char_traits@D@std@@SAXAADABD@Z	; std::char_traits<char>::assign
; Function compile flags: /Ogsp
;	COMDAT ?assign@?$char_traits@D@std@@SAXAADABD@Z
_TEXT	SEGMENT
__Left$ = 8						; size = 4
__Right$ = 12						; size = 4
?assign@?$char_traits@D@std@@SAXAADABD@Z PROC		; std::char_traits<char>::assign, COMDAT

; 526  : 		{	// assign an element

  00000	55		 push	 ebp
  00001	8b ec		 mov	 ebp, esp

; 527  : 		_Left = _Right;

  00003	8b 45 0c	 mov	 eax, DWORD PTR __Right$[ebp]
  00006	8a 00		 mov	 al, BYTE PTR [eax]
  00008	8b 4d 08	 mov	 ecx, DWORD PTR __Left$[ebp]
  0000b	88 01		 mov	 BYTE PTR [ecx], al

; 528  : 		}

  0000d	5d		 pop	 ebp
  0000e	c3		 ret	 0
?assign@?$char_traits@D@std@@SAXAADABD@Z ENDP		; std::char_traits<char>::assign
_TEXT	ENDS
PUBLIC	?SetSkipBtn@TutorialWnd@@IAEXHH@Z		; TutorialWnd::SetSkipBtn
EXTRN	__imp_?SetChildInActive@ioWnd@@QAEXK@Z:PROC
; Function compile flags: /Ogsp
; File d:\lost saga for developer\youtube\tutorial\source\src\lsclient\gui\tutorialwnd.cpp
;	COMDAT ?SetSkipBtn@TutorialWnd@@IAEXHH@Z
_TEXT	SEGMENT
_iCurStep$ = 8						; size = 4
_iMaxStep$ = 12						; size = 4
?SetSkipBtn@TutorialWnd@@IAEXHH@Z PROC			; TutorialWnd::SetSkipBtn, COMDAT
; _this$ = ecx

; 603  : {

  00000	55		 push	 ebp
  00001	8b ec		 mov	 ebp, esp
  00003	56		 push	 esi

; 604  : 	SetChildInActive( ID_EXIT );

  00004	6a 01		 push	 1
  00006	8b f1		 mov	 esi, ecx
  00008	ff 15 00 00 00
	00		 call	 DWORD PTR __imp_?SetChildInActive@ioWnd@@QAEXK@Z

; 605  : 	m_dwCurSkipBtnShowTime = 0;

  0000e	83 a6 94 01 00
	00 00		 and	 DWORD PTR [esi+404], 0

; 606  : 	
; 607  : 	if( iCurStep == 0 )

  00015	83 7d 08 00	 cmp	 DWORD PTR _iCurStep$[ebp], 0
  00019	75 0c		 jne	 SHORT $LN4@SetSkipBtn

; 608  : 		m_iCurUseSkipBtnID = ID_START;

  0001b	c7 86 a0 01 00
	00 02 00 00 00	 mov	 DWORD PTR [esi+416], 2
  00025	eb 15		 jmp	 SHORT $LN2@SetSkipBtn
$LN4@SetSkipBtn:

; 609  : 	else if( iCurStep == iMaxStep - 1 )

  00027	8b 45 0c	 mov	 eax, DWORD PTR _iMaxStep$[ebp]
  0002a	48		 dec	 eax
  0002b	33 c9		 xor	 ecx, ecx
  0002d	39 45 08	 cmp	 DWORD PTR _iCurStep$[ebp], eax
  00030	0f 94 c1	 sete	 cl
  00033	83 c1 03	 add	 ecx, 3
  00036	89 8e a0 01 00
	00		 mov	 DWORD PTR [esi+416], ecx
$LN2@SetSkipBtn:
  0003c	5e		 pop	 esi

; 610  : 		m_iCurUseSkipBtnID = ID_CLEAR;
; 611  : 	else
; 612  : 		m_iCurUseSkipBtnID = ID_NEXT;
; 613  : }

  0003d	5d		 pop	 ebp
  0003e	c2 08 00	 ret	 8
?SetSkipBtn@TutorialWnd@@IAEXHH@Z ENDP			; TutorialWnd::SetSkipBtn
_TEXT	ENDS
PUBLIC	??_7TutorialKeyboardWnd@@6B@			; TutorialKeyboardWnd::`vftable'
PUBLIC	??0TutorialKeyboardWnd@@QAE@XZ			; TutorialKeyboardWnd::TutorialKeyboardWnd
PUBLIC	??_R4TutorialKeyboardWnd@@6B@			; TutorialKeyboardWnd::`RTTI Complete Object Locator'
PUBLIC	??_R0?AVTutorialKeyboardWnd@@@8			; TutorialKeyboardWnd `RTTI Type Descriptor'
PUBLIC	??_R3TutorialKeyboardWnd@@8			; TutorialKeyboardWnd::`RTTI Class Hierarchy Descriptor'
PUBLIC	??_R2TutorialKeyboardWnd@@8			; TutorialKeyboardWnd::`RTTI Base Class Array'
PUBLIC	??_R1A@?0A@EA@TutorialKeyboardWnd@@8		; TutorialKeyboardWnd::`RTTI Base Class Descriptor at (0,-1,0,64)'
PUBLIC	?AddRenderImage@TutorialKeyboardWnd@@MAEXABVioHashString@@PAVioUIRenderImage@@@Z ; TutorialKeyboardWnd::AddRenderImage
PUBLIC	?OnRender@TutorialKeyboardWnd@@MAEXXZ		; TutorialKeyboardWnd::OnRender
PUBLIC	?OnProcess@TutorialKeyboardWnd@@MAEXM@Z		; TutorialKeyboardWnd::OnProcess
PUBLIC	?iwm_show@TutorialKeyboardWnd@@UAEXXZ		; TutorialKeyboardWnd::iwm_show
PUBLIC	?iwm_hide@TutorialKeyboardWnd@@UAEXXZ		; TutorialKeyboardWnd::iwm_hide
EXTRN	__imp_??0ioWnd@@QAE@XZ:PROC
EXTRN	?AddRenderFrame@ioWnd@@UAEXABVioHashString@@PAVioUIRenderFrame@@@Z:PROC ; ioWnd::AddRenderFrame
EXTRN	?ParseExtraInfo@ioWnd@@UAEXAAVioXMLElement@@@Z:PROC ; ioWnd::ParseExtraInfo
EXTRN	?SetWindowAlpha@ioWnd@@UAEXH@Z:PROC		; ioWnd::SetWindowAlpha
EXTRN	?CheckFrameReSize@ioWnd@@MAEXHHHH@Z:PROC	; ioWnd::CheckFrameReSize
EXTRN	?iwm_create@ioWnd@@UAEXXZ:PROC			; ioWnd::iwm_create
EXTRN	?iwm_lbuttondown@ioWnd@@UAEXABVioMouse@@@Z:PROC	; ioWnd::iwm_lbuttondown
EXTRN	?iwm_lbuttonup@ioWnd@@UAEXABVioMouse@@@Z:PROC	; ioWnd::iwm_lbuttonup
EXTRN	?iwm_lbuttonDBLCLK@ioWnd@@UAEXABVioMouse@@@Z:PROC ; ioWnd::iwm_lbuttonDBLCLK
EXTRN	?iwm_rbuttondown@ioWnd@@UAEXABVioMouse@@@Z:PROC	; ioWnd::iwm_rbuttondown
EXTRN	?iwm_rbuttonup@ioWnd@@UAEXABVioMouse@@@Z:PROC	; ioWnd::iwm_rbuttonup
EXTRN	?iwm_mouseover@ioWnd@@UAEXABVioMouse@@@Z:PROC	; ioWnd::iwm_mouseover
EXTRN	?GetWndType@ioWnd@@UBEKXZ:PROC			; ioWnd::GetWndType
EXTRN	?GetHeaderFileName@ioWnd@@UAEPBDXZ:PROC		; ioWnd::GetHeaderFileName
EXTRN	?GetTemplateName@ioWnd@@UAEPBDXZ:PROC		; ioWnd::GetTemplateName
EXTRN	?GetDefClassName@ioWnd@@UBEPBDXZ:PROC		; ioWnd::GetDefClassName
EXTRN	?_Clone@ioWnd@@UAEPAV1@XZ:PROC			; ioWnd::_Clone
EXTRN	?Copy@ioWnd@@UAEXPAV1@@Z:PROC			; ioWnd::Copy
EXTRN	?SetSaveData@ioWnd@@UAEXAAVioXMLElement@@@Z:PROC ; ioWnd::SetSaveData
EXTRN	?GetNumFixedRenderFrame@ioWnd@@UBEHXZ:PROC	; ioWnd::GetNumFixedRenderFrame
EXTRN	?GetFixedRenderFrameType@ioWnd@@UAEPBDH@Z:PROC	; ioWnd::GetFixedRenderFrameType
EXTRN	?GetRenderFrame@ioWnd@@UAEPAPAVioUIRenderElement@@PBD@Z:PROC ; ioWnd::GetRenderFrame
EXTRN	?GetNumFixedRenderImage@ioWnd@@UBEHXZ:PROC	; ioWnd::GetNumFixedRenderImage
EXTRN	?GetFixedRenderImageType@ioWnd@@UAEPBDH@Z:PROC	; ioWnd::GetFixedRenderImageType
EXTRN	?GetRenderImage@ioWnd@@UAEPAPAVioUIRenderElement@@PBD@Z:PROC ; ioWnd::GetRenderImage
EXTRN	??_ETutorialKeyboardWnd@@UAEPAXI@Z:PROC		; TutorialKeyboardWnd::`vector deleting destructor'
;	COMDAT ??_R1A@?0A@EA@TutorialKeyboardWnd@@8
rdata$r	SEGMENT
??_R1A@?0A@EA@TutorialKeyboardWnd@@8 DD FLAT:??_R0?AVTutorialKeyboardWnd@@@8 ; TutorialKeyboardWnd::`RTTI Base Class Descriptor at (0,-1,0,64)'
	DD	01H
	DD	00H
	DD	0ffffffffH
	DD	00H
	DD	040H
	DD	FLAT:??_R3TutorialKeyboardWnd@@8
rdata$r	ENDS
;	COMDAT ??_R2TutorialKeyboardWnd@@8
rdata$r	SEGMENT
??_R2TutorialKeyboardWnd@@8 DD FLAT:??_R1A@?0A@EA@TutorialKeyboardWnd@@8 ; TutorialKeyboardWnd::`RTTI Base Class Array'
	DD	FLAT:??_R1A@?0A@EA@ioWnd@@8
rdata$r	ENDS
;	COMDAT ??_R3TutorialKeyboardWnd@@8
rdata$r	SEGMENT
??_R3TutorialKeyboardWnd@@8 DD 00H			; TutorialKeyboardWnd::`RTTI Class Hierarchy Descriptor'
	DD	00H
	DD	02H
	DD	FLAT:??_R2TutorialKeyboardWnd@@8
rdata$r	ENDS
;	COMDAT ??_R0?AVTutorialKeyboardWnd@@@8
_DATA	SEGMENT
??_R0?AVTutorialKeyboardWnd@@@8 DD FLAT:??_7type_info@@6B@ ; TutorialKeyboardWnd `RTTI Type Descriptor'
	DD	00H
	DB	'.?AVTutorialKeyboardWnd@@', 00H
_DATA	ENDS
;	COMDAT ??_R4TutorialKeyboardWnd@@6B@
rdata$r	SEGMENT
??_R4TutorialKeyboardWnd@@6B@ DD 00H			; TutorialKeyboardWnd::`RTTI Complete Object Locator'
	DD	00H
	DD	00H
	DD	FLAT:??_R0?AVTutorialKeyboardWnd@@@8
	DD	FLAT:??_R3TutorialKeyboardWnd@@8
rdata$r	ENDS
;	COMDAT ??_7TutorialKeyboardWnd@@6B@
CONST	SEGMENT
??_7TutorialKeyboardWnd@@6B@ DD FLAT:??_R4TutorialKeyboardWnd@@6B@ ; TutorialKeyboardWnd::`vftable'
	DD	FLAT:?AddRenderFrame@ioWnd@@UAEXABVioHashString@@PAVioUIRenderFrame@@@Z
	DD	FLAT:?AddRenderImage@TutorialKeyboardWnd@@MAEXABVioHashString@@PAVioUIRenderImage@@@Z
	DD	FLAT:?AddTooltipHelp@ioWnd@@UAEXABVioHashString@@00@Z
	DD	FLAT:?ParseExtraInfo@ioWnd@@UAEXAAVioXMLElement@@@Z
	DD	FLAT:?AddNamedRenderImage@ioWnd@@UAEXABVioHashString@@PAVioUIRenderImage@@@Z
	DD	FLAT:?RemoveNamedRenderImage@ioWnd@@UAEXABVioHashString@@@Z
	DD	FLAT:?GetNamedRenderImage@ioWnd@@UBEPAVioUIRenderImage@@ABVioHashString@@@Z
	DD	FLAT:?SetWindowAlpha@ioWnd@@UAEXH@Z
	DD	FLAT:?SetActive@ioWnd@@UAEXXZ
	DD	FLAT:?SetInActive@ioWnd@@UAEXXZ
	DD	FLAT:?ClearElementImageList@ioWnd@@UAEXXZ
	DD	FLAT:?SetSize@ioWnd@@UAEXHH@Z
	DD	FLAT:?SetPositionToDefault@ioWnd@@UAEXHH_N0@Z
	DD	FLAT:?IsNeedProcess@ioWnd@@UBE_NXZ
	DD	FLAT:?IsCanMouseReaction@ioWnd@@UBE_NXZ
	DD	FLAT:?AddChild@ioWnd@@UAEXPAV1@@Z
	DD	FLAT:?DeleteChild@ioWnd@@UAEXK@Z
	DD	FLAT:?DeleteAllChild@ioWnd@@UAEXXZ
	DD	FLAT:?OnRenderShowAndHide@ioWnd@@MAE_NXZ
	DD	FLAT:?OnRenderShowAndHideByDefault@ioWnd@@MAE_NK@Z
	DD	FLAT:?OnRenderShowAndHideByTop@ioWnd@@MAE_NK@Z
	DD	FLAT:?OnRenderShowAndHideByDown@ioWnd@@MAE_NK@Z
	DD	FLAT:?OnRender@TutorialKeyboardWnd@@MAEXXZ
	DD	FLAT:?OnRenderAfterChild@ioWnd@@MAEXXZ
	DD	FLAT:?OnProcess@TutorialKeyboardWnd@@MAEXM@Z
	DD	FLAT:?OnMouseProcess@ioWnd@@MAEXABVioMouse@@@Z
	DD	FLAT:?CheckFrameReSize@ioWnd@@MAEXHHHH@Z
	DD	FLAT:?RenderImageList@ioWnd@@MAEXHHW4UIRenderType@@@Z
	DD	FLAT:?iwm_create@ioWnd@@UAEXXZ
	DD	FLAT:?iwm_destroy@ioWnd@@UAEXXZ
	DD	FLAT:?iwm_lbuttondown@ioWnd@@UAEXABVioMouse@@@Z
	DD	FLAT:?iwm_lbuttonup@ioWnd@@UAEXABVioMouse@@@Z
	DD	FLAT:?iwm_lbuttonDBLCLK@ioWnd@@UAEXABVioMouse@@@Z
	DD	FLAT:?iwm_rbuttondown@ioWnd@@UAEXABVioMouse@@@Z
	DD	FLAT:?iwm_rbuttonup@ioWnd@@UAEXABVioMouse@@@Z
	DD	FLAT:?iwm_command@ioWnd@@UAEXPAV1@HK@Z
	DD	FLAT:?iwm_mouseover@ioWnd@@UAEXABVioMouse@@@Z
	DD	FLAT:?iwm_mousemove@ioWnd@@UAEXABVioMouse@@@Z
	DD	FLAT:?iwm_mouseleave@ioWnd@@UAEXABVioMouse@@@Z
	DD	FLAT:?iwm_vscroll@ioWnd@@UAEXKH@Z
	DD	FLAT:?iwm_wheel@ioWnd@@UAEXH@Z
	DD	FLAT:?iwm_show@TutorialKeyboardWnd@@UAEXXZ
	DD	FLAT:?iwm_hide@TutorialKeyboardWnd@@UAEXXZ
	DD	FLAT:?iwm_esc@ioWnd@@UAE_NXZ
	DD	FLAT:?iwm_spacebar@ioWnd@@UAE_NXZ
	DD	FLAT:?iwm_gototop@ioWnd@@UAEXXZ
	DD	FLAT:?iwm_dragenter@ioWnd@@UAE?AW4IWDropEffect@@PAVioDragItem@@ABVioMouse@@@Z
	DD	FLAT:?iwm_dragover@ioWnd@@UAE?AW4IWDropEffect@@PAVioDragItem@@ABVioMouse@@@Z
	DD	FLAT:?iwm_dragleave@ioWnd@@UAEXXZ
	DD	FLAT:?iwm_dropitem@ioWnd@@UAE_NPAVioDragItem@@ABVioMouse@@PAV1@@Z
	DD	FLAT:?iwm_dropdone@ioWnd@@UAEXPAVioDragItem@@PAV1@_N@Z
	DD	FLAT:?IsEXType@ioWnd@@UBE_NXZ
	DD	FLAT:?GetWndType@ioWnd@@UBEKXZ
	DD	FLAT:?RenderWnd@ioWnd@@UAEXXZ
	DD	FLAT:?SetIDEX@ioWnd@@UAEXAAK_N@Z
	DD	FLAT:?ParseXML@ioWnd@@UAEXAAVioXMLElement@@@Z
	DD	FLAT:?GetHeaderFileName@ioWnd@@UAEPBDXZ
	DD	FLAT:?GetTemplateName@ioWnd@@UAEPBDXZ
	DD	FLAT:?GetDefClassName@ioWnd@@UBEPBDXZ
	DD	FLAT:?_Clone@ioWnd@@UAEPAV1@XZ
	DD	FLAT:?Copy@ioWnd@@UAEXPAV1@@Z
	DD	FLAT:?Save@ioWnd@@UAE_NAAVioXMLElement@@@Z
	DD	FLAT:?SetSaveData@ioWnd@@UAEXAAVioXMLElement@@@Z
	DD	FLAT:?SetPosX@ioWnd@@UAEXH@Z
	DD	FLAT:?SetPosY@ioWnd@@UAEXH@Z
	DD	FLAT:?SetWidth@ioWnd@@UAEXH@Z
	DD	FLAT:?SetHeight@ioWnd@@UAEXH@Z
	DD	FLAT:?GetNumFixedRenderFrame@ioWnd@@UBEHXZ
	DD	FLAT:?GetFixedRenderFrameType@ioWnd@@UAEPBDH@Z
	DD	FLAT:?GetRenderFrame@ioWnd@@UAEPAPAVioUIRenderElement@@PBD@Z
	DD	FLAT:?GetNumFixedRenderImage@ioWnd@@UBEHXZ
	DD	FLAT:?GetFixedRenderImageType@ioWnd@@UAEPBDH@Z
	DD	FLAT:?GetRenderImage@ioWnd@@UAEPAPAVioUIRenderElement@@PBD@Z
	DD	FLAT:?AddEffect@ioWnd@@UAEXABVioHashString@@PAVioUI3DEffectRender@@@Z
	DD	FLAT:?GetEffect@ioWnd@@UAEPAVioUI3DEffectRender@@VioHashString@@@Z
	DD	FLAT:??_ETutorialKeyboardWnd@@UAEPAXI@Z
; Function compile flags: /Ogsp
CONST	ENDS
;	COMDAT ??0TutorialKeyboardWnd@@QAE@XZ
_TEXT	SEGMENT
??0TutorialKeyboardWnd@@QAE@XZ PROC			; TutorialKeyboardWnd::TutorialKeyboardWnd, COMDAT
; _this$ = ecx

; 628  : {

  00000	56		 push	 esi
  00001	8b f1		 mov	 esi, ecx
  00003	ff 15 00 00 00
	00		 call	 DWORD PTR __imp_??0ioWnd@@QAE@XZ

; 629  : 	m_pButtonNormal = NULL;
; 630  : 	m_pButtonOver	= NULL;
; 631  : 	m_pArrowLeft	= NULL;
; 632  : 	m_pArrowUp		= NULL;
; 633  : 
; 634  : 	m_bShowProcess  = false;
; 635  : 	m_fProcessRate  = 0.0f;

  00009	0f 57 c0	 xorps	 xmm0, xmm0
  0000c	33 c0		 xor	 eax, eax
  0000e	89 86 60 01 00
	00		 mov	 DWORD PTR [esi+352], eax
  00014	89 86 64 01 00
	00		 mov	 DWORD PTR [esi+356], eax
  0001a	89 86 68 01 00
	00		 mov	 DWORD PTR [esi+360], eax
  00020	89 86 6c 01 00
	00		 mov	 DWORD PTR [esi+364], eax
  00026	88 86 70 01 00
	00		 mov	 BYTE PTR [esi+368], al

; 636  : 	m_dwProcessTimer= 0;

  0002c	89 86 78 01 00
	00		 mov	 DWORD PTR [esi+376], eax

; 637  : 
; 638  : 	m_bKeyA = m_bKeyS = m_bKeyD = m_bKeyLeft = false;

  00032	89 86 7c 01 00
	00		 mov	 DWORD PTR [esi+380], eax

; 639  : 	m_bKeyRight = m_bKeyUp = m_bKeyDown = false;

  00038	66 89 86 81 01
	00 00		 mov	 WORD PTR [esi+385], ax
  0003f	88 86 80 01 00
	00		 mov	 BYTE PTR [esi+384], al
  00045	c7 06 00 00 00
	00		 mov	 DWORD PTR [esi], OFFSET ??_7TutorialKeyboardWnd@@6B@
  0004b	f3 0f 11 86 74
	01 00 00	 movss	 DWORD PTR [esi+372], xmm0

; 640  : }

  00053	8b c6		 mov	 eax, esi
  00055	5e		 pop	 esi
  00056	c3		 ret	 0
??0TutorialKeyboardWnd@@QAE@XZ ENDP			; TutorialKeyboardWnd::TutorialKeyboardWnd
_TEXT	ENDS
PUBLIC	??1TutorialKeyboardWnd@@UAE@XZ			; TutorialKeyboardWnd::~TutorialKeyboardWnd
EXTRN	__imp_??1ioWnd@@UAE@XZ:PROC
EXTRN	___CxxFrameHandler3:PROC
EXTRN	@__security_check_cookie@4:PROC
EXTRN	__EH_epilog3:PROC
EXTRN	__EH_prolog3:PROC
;	COMDAT xdata$x
xdata$x	SEGMENT
__unwindtable$??1TutorialKeyboardWnd@@UAE@XZ DD 0ffffffffH
	DD	FLAT:__unwindfunclet$??1TutorialKeyboardWnd@@UAE@XZ$0
__ehfuncinfo$??1TutorialKeyboardWnd@@UAE@XZ DD 019930522H
	DD	01H
	DD	FLAT:__unwindtable$??1TutorialKeyboardWnd@@UAE@XZ
	DD	2 DUP(00H)
	DD	2 DUP(00H)
	DD	00H
	DD	01H
; Function compile flags: /Ogsp
xdata$x	ENDS
;	COMDAT ??1TutorialKeyboardWnd@@UAE@XZ
_TEXT	SEGMENT
_this$ = -16						; size = 4
__$EHRec$ = -12						; size = 12
??1TutorialKeyboardWnd@@UAE@XZ PROC			; TutorialKeyboardWnd::~TutorialKeyboardWnd, COMDAT
; _this$ = ecx

; 643  : {

  00000	6a 04		 push	 4
  00002	b8 00 00 00 00	 mov	 eax, __ehhandler$??1TutorialKeyboardWnd@@UAE@XZ
  00007	e8 00 00 00 00	 call	 __EH_prolog3
  0000c	8b f1		 mov	 esi, ecx
  0000e	89 75 f0	 mov	 DWORD PTR _this$[ebp], esi
  00011	c7 06 00 00 00
	00		 mov	 DWORD PTR [esi], OFFSET ??_7TutorialKeyboardWnd@@6B@

; 644  : 	SAFEDELETE( m_pButtonNormal );

  00017	8b 8e 60 01 00
	00		 mov	 ecx, DWORD PTR [esi+352]
  0001d	33 db		 xor	 ebx, ebx
  0001f	89 5d fc	 mov	 DWORD PTR __$EHRec$[ebp+8], ebx
  00022	3b cb		 cmp	 ecx, ebx
  00024	74 0d		 je	 SHORT $LN4@TutorialKe
  00026	8b 01		 mov	 eax, DWORD PTR [ecx]
  00028	6a 01		 push	 1
  0002a	ff 50 40	 call	 DWORD PTR [eax+64]
  0002d	89 9e 60 01 00
	00		 mov	 DWORD PTR [esi+352], ebx
$LN4@TutorialKe:

; 645  : 	SAFEDELETE( m_pButtonOver );

  00033	8b 8e 64 01 00
	00		 mov	 ecx, DWORD PTR [esi+356]
  00039	3b cb		 cmp	 ecx, ebx
  0003b	74 0d		 je	 SHORT $LN3@TutorialKe
  0003d	8b 01		 mov	 eax, DWORD PTR [ecx]
  0003f	6a 01		 push	 1
  00041	ff 50 40	 call	 DWORD PTR [eax+64]
  00044	89 9e 64 01 00
	00		 mov	 DWORD PTR [esi+356], ebx
$LN3@TutorialKe:

; 646  : 	SAFEDELETE( m_pArrowLeft );

  0004a	8b 8e 68 01 00
	00		 mov	 ecx, DWORD PTR [esi+360]
  00050	3b cb		 cmp	 ecx, ebx
  00052	74 0d		 je	 SHORT $LN2@TutorialKe
  00054	8b 01		 mov	 eax, DWORD PTR [ecx]
  00056	6a 01		 push	 1
  00058	ff 50 40	 call	 DWORD PTR [eax+64]
  0005b	89 9e 68 01 00
	00		 mov	 DWORD PTR [esi+360], ebx
$LN2@TutorialKe:

; 647  : 	SAFEDELETE( m_pArrowUp );

  00061	8b 8e 6c 01 00
	00		 mov	 ecx, DWORD PTR [esi+364]
  00067	3b cb		 cmp	 ecx, ebx
  00069	74 0d		 je	 SHORT $LN1@TutorialKe
  0006b	8b 01		 mov	 eax, DWORD PTR [ecx]
  0006d	6a 01		 push	 1
  0006f	ff 50 40	 call	 DWORD PTR [eax+64]
  00072	89 9e 6c 01 00
	00		 mov	 DWORD PTR [esi+364], ebx
$LN1@TutorialKe:

; 648  : }

  00078	83 4d fc ff	 or	 DWORD PTR __$EHRec$[ebp+8], -1
  0007c	8b ce		 mov	 ecx, esi
  0007e	ff 15 00 00 00
	00		 call	 DWORD PTR __imp_??1ioWnd@@UAE@XZ
  00084	e8 00 00 00 00	 call	 __EH_epilog3
  00089	c3		 ret	 0
_TEXT	ENDS
;	COMDAT text$x
text$x	SEGMENT
__unwindfunclet$??1TutorialKeyboardWnd@@UAE@XZ$0:
  00000	8b 4d f0	 mov	 ecx, DWORD PTR _this$[ebp]
  00003	ff 25 00 00 00
	00		 jmp	 DWORD PTR __imp_??1ioWnd@@UAE@XZ
__ehhandler$??1TutorialKeyboardWnd@@UAE@XZ:
  00009	8b 54 24 08	 mov	 edx, DWORD PTR [esp+8]
  0000d	8d 42 0c	 lea	 eax, DWORD PTR [edx+12]
  00010	8b 4a ec	 mov	 ecx, DWORD PTR [edx-20]
  00013	33 c8		 xor	 ecx, eax
  00015	e8 00 00 00 00	 call	 @__security_check_cookie@4
  0001a	b8 00 00 00 00	 mov	 eax, OFFSET __ehfuncinfo$??1TutorialKeyboardWnd@@UAE@XZ
  0001f	e9 00 00 00 00	 jmp	 ___CxxFrameHandler3
text$x	ENDS
??1TutorialKeyboardWnd@@UAE@XZ ENDP			; TutorialKeyboardWnd::~TutorialKeyboardWnd
; Function compile flags: /Ogsp
;	COMDAT ?iwm_show@TutorialKeyboardWnd@@UAEXXZ
_TEXT	SEGMENT
?iwm_show@TutorialKeyboardWnd@@UAEXXZ PROC		; TutorialKeyboardWnd::iwm_show, COMDAT
; _this$ = ecx

; 680  : 	m_bShowProcess  = true;
; 681  : 	m_fProcessRate  = 0.0f;

  00000	0f 57 c0	 xorps	 xmm0, xmm0
  00003	56		 push	 esi
  00004	8b f1		 mov	 esi, ecx
  00006	c6 86 70 01 00
	00 01		 mov	 BYTE PTR [esi+368], 1
  0000d	f3 0f 11 86 74
	01 00 00	 movss	 DWORD PTR [esi+372], xmm0

; 682  : 	m_dwProcessTimer= FRAMEGETTIME();

  00015	ff 15 00 00 00
	00		 call	 DWORD PTR __imp_?GetSingleton@ioFrameTimer@@SAAAV1@XZ
  0001b	8b c8		 mov	 ecx, eax
  0001d	ff 15 00 00 00
	00		 call	 DWORD PTR __imp_?GetLoopSec@ioFrameTimer@@QBEKXZ
  00023	89 86 78 01 00
	00		 mov	 DWORD PTR [esi+376], eax

; 683  : 
; 684  : 	m_bKeyA = m_bKeyS = m_bKeyD = m_bKeyLeft = false;

  00029	32 c0		 xor	 al, al
  0002b	c7 86 7c 01 00
	00 00 00 00 00	 mov	 DWORD PTR [esi+380], 0

; 685  : 	m_bKeyRight = m_bKeyUp = m_bKeyDown = false;

  00035	66 c7 86 81 01
	00 00 00 00	 mov	 WORD PTR [esi+385], 0
  0003e	88 86 80 01 00
	00		 mov	 BYTE PTR [esi+384], al
  00044	5e		 pop	 esi

; 686  : }

  00045	c3		 ret	 0
?iwm_show@TutorialKeyboardWnd@@UAEXXZ ENDP		; TutorialKeyboardWnd::iwm_show
; Function compile flags: /Ogsp
_TEXT	ENDS
;	COMDAT ?iwm_hide@TutorialKeyboardWnd@@UAEXXZ
_TEXT	SEGMENT
?iwm_hide@TutorialKeyboardWnd@@UAEXXZ PROC		; TutorialKeyboardWnd::iwm_hide, COMDAT
; _this$ = ecx

; 690  : 
; 691  : }

  00000	c3		 ret	 0
?iwm_hide@TutorialKeyboardWnd@@UAEXXZ ENDP		; TutorialKeyboardWnd::iwm_hide
_TEXT	ENDS
PUBLIC	__real@4f800000
PUBLIC	?SetHideProcess@TutorialKeyboardWnd@@QAEXXZ	; TutorialKeyboardWnd::SetHideProcess
;	COMDAT __real@4f800000
; File d:\lost saga for developer\youtube\tutorial\source\src\lsclient\stdafx.h
CONST	SEGMENT
__real@4f800000 DD 04f800000r			; 4.29497e+009
; Function compile flags: /Ogsp
; File d:\lost saga for developer\youtube\tutorial\source\src\lsclient\gui\tutorialwnd.cpp
CONST	ENDS
;	COMDAT ?SetHideProcess@TutorialKeyboardWnd@@QAEXXZ
_TEXT	SEGMENT
tv136 = -4						; size = 4
?SetHideProcess@TutorialKeyboardWnd@@QAEXXZ PROC	; TutorialKeyboardWnd::SetHideProcess, COMDAT
; _this$ = ecx

; 694  : {

  00000	55		 push	 ebp
  00001	8b ec		 mov	 ebp, esp
  00003	51		 push	 ecx
  00004	56		 push	 esi
  00005	8b f1		 mov	 esi, ecx

; 695  : 	m_bShowProcess  = false;

  00007	c6 86 70 01 00
	00 00		 mov	 BYTE PTR [esi+368], 0

; 696  : 	m_fProcessRate  = FLOAT1;

  0000e	b8 01 00 00 00	 mov	 eax, 1
  00013	89 45 fc	 mov	 DWORD PTR tv136[ebp], eax
  00016	db 45 fc	 fild	 DWORD PTR tv136[ebp]
  00019	85 c0		 test	 eax, eax
  0001b	79 06		 jns	 SHORT $LN5@SetHidePro
  0001d	d8 05 00 00 00
	00		 fadd	 DWORD PTR __real@4f800000
$LN5@SetHidePro:
  00023	d9 9e 74 01 00
	00		 fstp	 DWORD PTR [esi+372]

; 697  : 	m_dwProcessTimer= FRAMEGETTIME();

  00029	ff 15 00 00 00
	00		 call	 DWORD PTR __imp_?GetSingleton@ioFrameTimer@@SAAAV1@XZ
  0002f	8b c8		 mov	 ecx, eax
  00031	ff 15 00 00 00
	00		 call	 DWORD PTR __imp_?GetLoopSec@ioFrameTimer@@QBEKXZ
  00037	89 86 78 01 00
	00		 mov	 DWORD PTR [esi+376], eax
  0003d	5e		 pop	 esi

; 698  : }

  0003e	c9		 leave
  0003f	c3		 ret	 0
?SetHideProcess@TutorialKeyboardWnd@@QAEXXZ ENDP	; TutorialKeyboardWnd::SetHideProcess
_TEXT	ENDS
PUBLIC	?OnProcessKeyCheck@TutorialKeyboardWnd@@IAEXXZ	; TutorialKeyboardWnd::OnProcessKeyCheck
EXTRN	__imp__GetAsyncKeyState@4:PROC
; Function compile flags: /Ogsp
;	COMDAT ?OnProcessKeyCheck@TutorialKeyboardWnd@@IAEXXZ
_TEXT	SEGMENT
?OnProcessKeyCheck@TutorialKeyboardWnd@@IAEXXZ PROC	; TutorialKeyboardWnd::OnProcessKeyCheck, COMDAT
; _this$ = ecx

; 710  : {

  00000	53		 push	 ebx
  00001	56		 push	 esi
  00002	57		 push	 edi

; 711  : 	m_bKeyA = m_bKeyS = m_bKeyD = m_bKeyLeft = false;
; 712  : 	m_bKeyRight = m_bKeyUp = m_bKeyDown = false;
; 713  : 
; 714  : 	// A
; 715  : 	if( GetAsyncKeyState( 'A' ) & 0x8000 )

  00003	8b 3d 00 00 00
	00		 mov	 edi, DWORD PTR __imp__GetAsyncKeyState@4
  00009	8b f1		 mov	 esi, ecx
  0000b	32 c0		 xor	 al, al
  0000d	6a 41		 push	 65			; 00000041H
  0000f	c7 86 7c 01 00
	00 00 00 00 00	 mov	 DWORD PTR [esi+380], 0
  00019	66 c7 86 81 01
	00 00 00 00	 mov	 WORD PTR [esi+385], 0
  00022	88 86 80 01 00
	00		 mov	 BYTE PTR [esi+384], al
  00028	ff d7		 call	 edi
  0002a	bb 00 80 00 00	 mov	 ebx, 32768		; 00008000H
  0002f	66 85 c3	 test	 ax, bx
  00032	74 07		 je	 SHORT $LN7@OnProcessK

; 716  : 	{
; 717  : 		m_bKeyA = true;

  00034	c6 86 7c 01 00
	00 01		 mov	 BYTE PTR [esi+380], 1
$LN7@OnProcessK:

; 718  : 	}
; 719  : 
; 720  : 	// S
; 721  : 	if( GetAsyncKeyState( 'S' ) & 0x8000 )

  0003b	6a 53		 push	 83			; 00000053H
  0003d	ff d7		 call	 edi
  0003f	66 85 c3	 test	 ax, bx
  00042	74 07		 je	 SHORT $LN6@OnProcessK

; 722  : 	{
; 723  : 		m_bKeyS = true;

  00044	c6 86 7d 01 00
	00 01		 mov	 BYTE PTR [esi+381], 1
$LN6@OnProcessK:

; 724  : 	}
; 725  : 
; 726  : 	// D
; 727  : 	if( GetAsyncKeyState( 'D' ) & 0x8000 )

  0004b	6a 44		 push	 68			; 00000044H
  0004d	ff d7		 call	 edi
  0004f	66 85 c3	 test	 ax, bx
  00052	74 07		 je	 SHORT $LN5@OnProcessK

; 728  : 	{
; 729  : 		m_bKeyD = true;

  00054	c6 86 7e 01 00
	00 01		 mov	 BYTE PTR [esi+382], 1
$LN5@OnProcessK:

; 730  : 	}
; 731  : 
; 732  : 	// UP
; 733  : 	if( GetAsyncKeyState( VK_UP ) & 0x8000 )

  0005b	6a 26		 push	 38			; 00000026H
  0005d	ff d7		 call	 edi
  0005f	66 85 c3	 test	 ax, bx
  00062	74 07		 je	 SHORT $LN4@OnProcessK

; 734  : 	{
; 735  : 		m_bKeyUp = true;

  00064	c6 86 81 01 00
	00 01		 mov	 BYTE PTR [esi+385], 1
$LN4@OnProcessK:

; 736  : 	}
; 737  : 
; 738  : 	// LEFT
; 739  : 	if( GetAsyncKeyState( VK_LEFT ) & 0x8000 )

  0006b	6a 25		 push	 37			; 00000025H
  0006d	ff d7		 call	 edi
  0006f	66 85 c3	 test	 ax, bx
  00072	74 07		 je	 SHORT $LN3@OnProcessK

; 740  : 	{
; 741  : 		m_bKeyLeft = true;

  00074	c6 86 7f 01 00
	00 01		 mov	 BYTE PTR [esi+383], 1
$LN3@OnProcessK:

; 742  : 	}
; 743  : 
; 744  : 	// DOWN
; 745  : 	if( GetAsyncKeyState( VK_DOWN ) & 0x8000 )

  0007b	6a 28		 push	 40			; 00000028H
  0007d	ff d7		 call	 edi
  0007f	66 85 c3	 test	 ax, bx
  00082	74 07		 je	 SHORT $LN2@OnProcessK

; 746  : 	{
; 747  : 		m_bKeyDown = true;

  00084	c6 86 82 01 00
	00 01		 mov	 BYTE PTR [esi+386], 1
$LN2@OnProcessK:

; 748  : 	}
; 749  : 
; 750  : 	// RIGHT
; 751  : 	if( GetAsyncKeyState( VK_RIGHT ) & 0x8000 )

  0008b	6a 27		 push	 39			; 00000027H
  0008d	ff d7		 call	 edi
  0008f	66 85 c3	 test	 ax, bx
  00092	74 07		 je	 SHORT $LN1@OnProcessK

; 752  : 	{
; 753  : 		m_bKeyRight = true;

  00094	c6 86 80 01 00
	00 01		 mov	 BYTE PTR [esi+384], 1
$LN1@OnProcessK:
  0009b	5f		 pop	 edi
  0009c	5e		 pop	 esi
  0009d	5b		 pop	 ebx

; 754  : 	}
; 755  : }

  0009e	c3		 ret	 0
?OnProcessKeyCheck@TutorialKeyboardWnd@@IAEXXZ ENDP	; TutorialKeyboardWnd::OnProcessKeyCheck
_TEXT	ENDS
PUBLIC	?OnProcessShow@TutorialKeyboardWnd@@IAEXXZ	; TutorialKeyboardWnd::OnProcessShow
; Function compile flags: /Ogsp
;	COMDAT ?OnProcessShow@TutorialKeyboardWnd@@IAEXXZ
_TEXT	SEGMENT
tv173 = -16						; size = 8
tv255 = -12						; size = 4
tv251 = -12						; size = 4
tv241 = -12						; size = 4
tv236 = -12						; size = 4
tv227 = -12						; size = 4
tv224 = -12						; size = 4
tv69 = -12						; size = 4
tv353 = -8						; size = 4
tv329 = -8						; size = 4
tv325 = -8						; size = 4
tv317 = -8						; size = 4
tv314 = -8						; size = 4
tv305 = -8						; size = 4
tv302 = -8						; size = 4
tv246 = -8						; size = 4
tv232 = -8						; size = 4
tv221 = -8						; size = 4
tv214 = -8						; size = 4
$T521661 = -8						; size = 4
tv321 = -4						; size = 4
tv310 = -4						; size = 4
tv299 = -4						; size = 4
tv293 = -4						; size = 4
$T521657 = -4						; size = 4
$T521634 = -4						; size = 4
?OnProcessShow@TutorialKeyboardWnd@@IAEXXZ PROC		; TutorialKeyboardWnd::OnProcessShow, COMDAT
; _this$ = ecx

; 758  : {

  00000	55		 push	 ebp
  00001	8b ec		 mov	 ebp, esp
  00003	83 ec 10	 sub	 esp, 16			; 00000010H
  00006	53		 push	 ebx
  00007	56		 push	 esi
  00008	8b f1		 mov	 esi, ecx

; 759  : 	if( m_dwProcessTimer == 0 )

  0000a	33 db		 xor	 ebx, ebx
  0000c	39 9e 78 01 00
	00		 cmp	 DWORD PTR [esi+376], ebx
  00012	0f 84 da 01 00
	00		 je	 $LN1@OnProcessS

; 760  : 		return;
; 761  : 
; 762  : 	DWORD dwGapTime = FRAMEGETTIME() - m_dwProcessTimer;

  00018	57		 push	 edi
  00019	ff 15 00 00 00
	00		 call	 DWORD PTR __imp_?GetSingleton@ioFrameTimer@@SAAAV1@XZ
  0001f	8b c8		 mov	 ecx, eax
  00021	ff 15 00 00 00
	00		 call	 DWORD PTR __imp_?GetLoopSec@ioFrameTimer@@QBEKXZ
  00027	8b c8		 mov	 ecx, eax
  00029	2b 8e 78 01 00
	00		 sub	 ecx, DWORD PTR [esi+376]

; 763  : 	if( m_bShowProcess )

  0002f	38 9e 70 01 00
	00		 cmp	 BYTE PTR [esi+368], bl
  00035	0f 84 d4 00 00
	00		 je	 $LN6@OnProcessS

; 764  : 	{
; 765  : 		if( dwGapTime >= 1000 )

  0003b	81 f9 e8 03 00
	00		 cmp	 ecx, 1000		; 000003e8H
  00041	72 20		 jb	 SHORT $LN5@OnProcessS

; 766  : 		{
; 767  : 			m_fProcessRate	= FLOAT1;

  00043	b8 01 00 00 00	 mov	 eax, 1
  00048	89 45 f8	 mov	 DWORD PTR tv353[ebp], eax
  0004b	db 45 f8	 fild	 DWORD PTR tv353[ebp]
  0004e	85 c0		 test	 eax, eax
  00050	79 06		 jns	 SHORT $LN39@OnProcessS
  00052	d8 05 00 00 00
	00		 fadd	 DWORD PTR __real@4f800000
$LN39@OnProcessS:

; 768  : 			m_dwProcessTimer= 0;

  00058	89 9e 78 01 00
	00		 mov	 DWORD PTR [esi+376], ebx

; 769  : 		}
; 770  : 		else

  0005e	e9 88 01 00 00	 jmp	 $LN53@OnProcessS
$LN5@OnProcessS:

; 771  : 		{
; 772  : 			m_fProcessRate  = sinf( ( FLOAT_PI * FLOAT05 ) * (float)( dwGapTime ) / FLOAT1000 );

  00063	b8 4e e6 40 bb	 mov	 eax, -1153374642	; bb40e64eH
  00068	8b d0		 mov	 edx, eax
  0006a	b8 00 ca 9a 3b	 mov	 eax, 1000000000		; 3b9aca00H
  0006f	8b f8		 mov	 edi, eax
  00071	b8 05 00 00 00	 mov	 eax, 5
  00076	8b d8		 mov	 ebx, eax
  00078	b8 0a 00 00 00	 mov	 eax, 10			; 0000000aH
  0007d	89 45 fc	 mov	 DWORD PTR $T521634[ebp], eax
  00080	b8 e8 03 00 00	 mov	 eax, 1000		; 000003e8H
  00085	89 5d f8	 mov	 DWORD PTR tv329[ebp], ebx
  00088	db 45 f8	 fild	 DWORD PTR tv329[ebp]
  0008b	85 db		 test	 ebx, ebx
  0008d	79 06		 jns	 SHORT $LN40@OnProcessS
  0008f	d8 05 00 00 00
	00		 fadd	 DWORD PTR __real@4f800000
$LN40@OnProcessS:
  00095	8b 5d fc	 mov	 ebx, DWORD PTR $T521634[ebp]
  00098	db 45 fc	 fild	 DWORD PTR $T521634[ebp]
  0009b	85 db		 test	 ebx, ebx
  0009d	79 06		 jns	 SHORT $LN41@OnProcessS
  0009f	d8 05 00 00 00
	00		 fadd	 DWORD PTR __real@4f800000
$LN41@OnProcessS:
  000a5	de f9		 fdivp	 ST(1), ST(0)
  000a7	89 55 f8	 mov	 DWORD PTR tv317[ebp], edx
  000aa	d9 5d fc	 fstp	 DWORD PTR tv321[ebp]
  000ad	d9 45 fc	 fld	 DWORD PTR tv321[ebp]
  000b0	db 45 f8	 fild	 DWORD PTR tv317[ebp]
  000b3	85 d2		 test	 edx, edx
  000b5	79 06		 jns	 SHORT $LN42@OnProcessS
  000b7	d8 05 00 00 00
	00		 fadd	 DWORD PTR __real@4f800000
$LN42@OnProcessS:
  000bd	89 7d f8	 mov	 DWORD PTR tv314[ebp], edi
  000c0	db 45 f8	 fild	 DWORD PTR tv314[ebp]
  000c3	85 ff		 test	 edi, edi
  000c5	79 06		 jns	 SHORT $LN43@OnProcessS
  000c7	d8 05 00 00 00
	00		 fadd	 DWORD PTR __real@4f800000
$LN43@OnProcessS:
  000cd	de f9		 fdivp	 ST(1), ST(0)
  000cf	89 4d f8	 mov	 DWORD PTR tv305[ebp], ecx
  000d2	d9 5d fc	 fstp	 DWORD PTR tv310[ebp]
  000d5	d8 4d fc	 fmul	 DWORD PTR tv310[ebp]
  000d8	db 45 f8	 fild	 DWORD PTR tv305[ebp]
  000db	85 c9		 test	 ecx, ecx
  000dd	79 06		 jns	 SHORT $LN44@OnProcessS
  000df	d8 05 00 00 00
	00		 fadd	 DWORD PTR __real@4f800000
$LN44@OnProcessS:
  000e5	89 45 f8	 mov	 DWORD PTR tv302[ebp], eax
  000e8	de c9		 fmulp	 ST(1), ST(0)
  000ea	db 45 f8	 fild	 DWORD PTR tv302[ebp]
  000ed	85 c0		 test	 eax, eax
  000ef	79 06		 jns	 SHORT $LN45@OnProcessS
  000f1	d8 05 00 00 00
	00		 fadd	 DWORD PTR __real@4f800000
$LN45@OnProcessS:
  000f7	de f9		 fdivp	 ST(1), ST(0)
  000f9	d9 5d fc	 fstp	 DWORD PTR tv299[ebp]
  000fc	d9 45 fc	 fld	 DWORD PTR tv299[ebp]
  000ff	e8 00 00 00 00	 call	 __CIsin
  00104	d9 5d fc	 fstp	 DWORD PTR tv293[ebp]
  00107	d9 45 fc	 fld	 DWORD PTR tv293[ebp]

; 773  : 		}
; 774  : 	}
; 775  : 	else

  0010a	e9 dc 00 00 00	 jmp	 $LN53@OnProcessS
$LN6@OnProcessS:

; 776  : 	{
; 777  : 		if( dwGapTime >= 1000 )

  0010f	81 f9 e8 03 00
	00		 cmp	 ecx, 1000		; 000003e8H
  00115	72 0d		 jb	 SHORT $LN2@OnProcessS

; 778  : 		{
; 779  : 			HideWnd();

  00117	8b ce		 mov	 ecx, esi
  00119	ff 15 00 00 00
	00		 call	 DWORD PTR __imp_?HideWnd@ioWnd@@QAEXXZ

; 780  : 		}
; 781  : 		else

  0011f	e9 cd 00 00 00	 jmp	 $LN38@OnProcessS
$LN2@OnProcessS:

; 782  : 		{
; 783  : 			m_fProcessRate  = FLOAT1 - sinf( ( FLOAT_PI * FLOAT05 ) * (float)( dwGapTime ) / FLOAT1000 );

  00124	b8 01 00 00 00	 mov	 eax, 1
  00129	8b d0		 mov	 edx, eax
  0012b	b8 4e e6 40 bb	 mov	 eax, -1153374642	; bb40e64eH
  00130	8b f8		 mov	 edi, eax
  00132	b8 00 ca 9a 3b	 mov	 eax, 1000000000		; 3b9aca00H
  00137	8b d8		 mov	 ebx, eax
  00139	b8 05 00 00 00	 mov	 eax, 5
  0013e	89 45 fc	 mov	 DWORD PTR $T521657[ebp], eax
  00141	b8 0a 00 00 00	 mov	 eax, 10			; 0000000aH
  00146	89 45 f8	 mov	 DWORD PTR $T521661[ebp], eax
  00149	b8 e8 03 00 00	 mov	 eax, 1000		; 000003e8H
  0014e	89 55 f4	 mov	 DWORD PTR tv69[ebp], edx
  00151	db 45 f4	 fild	 DWORD PTR tv69[ebp]
  00154	85 d2		 test	 edx, edx
  00156	79 06		 jns	 SHORT $LN46@OnProcessS
  00158	d8 05 00 00 00
	00		 fadd	 DWORD PTR __real@4f800000
$LN46@OnProcessS:
  0015e	8b 55 fc	 mov	 edx, DWORD PTR $T521657[ebp]
  00161	db 45 fc	 fild	 DWORD PTR $T521657[ebp]
  00164	85 d2		 test	 edx, edx
  00166	79 06		 jns	 SHORT $LN47@OnProcessS
  00168	d8 05 00 00 00
	00		 fadd	 DWORD PTR __real@4f800000
$LN47@OnProcessS:
  0016e	8b 55 f8	 mov	 edx, DWORD PTR $T521661[ebp]
  00171	db 45 f8	 fild	 DWORD PTR $T521661[ebp]
  00174	85 d2		 test	 edx, edx
  00176	79 06		 jns	 SHORT $LN48@OnProcessS
  00178	d8 05 00 00 00
	00		 fadd	 DWORD PTR __real@4f800000
$LN48@OnProcessS:
  0017e	de f9		 fdivp	 ST(1), ST(0)
  00180	89 7d f4	 mov	 DWORD PTR tv241[ebp], edi
  00183	d9 5d f8	 fstp	 DWORD PTR tv246[ebp]
  00186	d9 45 f8	 fld	 DWORD PTR tv246[ebp]
  00189	db 45 f4	 fild	 DWORD PTR tv241[ebp]
  0018c	85 ff		 test	 edi, edi
  0018e	79 06		 jns	 SHORT $LN49@OnProcessS
  00190	d8 05 00 00 00
	00		 fadd	 DWORD PTR __real@4f800000
$LN49@OnProcessS:
  00196	89 5d f4	 mov	 DWORD PTR tv236[ebp], ebx
  00199	db 45 f4	 fild	 DWORD PTR tv236[ebp]
  0019c	85 db		 test	 ebx, ebx
  0019e	79 06		 jns	 SHORT $LN50@OnProcessS
  001a0	d8 05 00 00 00
	00		 fadd	 DWORD PTR __real@4f800000
$LN50@OnProcessS:
  001a6	de f9		 fdivp	 ST(1), ST(0)
  001a8	89 4d f4	 mov	 DWORD PTR tv227[ebp], ecx
  001ab	d9 5d f8	 fstp	 DWORD PTR tv232[ebp]
  001ae	d8 4d f8	 fmul	 DWORD PTR tv232[ebp]
  001b1	db 45 f4	 fild	 DWORD PTR tv227[ebp]
  001b4	85 c9		 test	 ecx, ecx
  001b6	79 06		 jns	 SHORT $LN51@OnProcessS
  001b8	d8 05 00 00 00
	00		 fadd	 DWORD PTR __real@4f800000
$LN51@OnProcessS:
  001be	89 45 f4	 mov	 DWORD PTR tv224[ebp], eax
  001c1	de c9		 fmulp	 ST(1), ST(0)
  001c3	db 45 f4	 fild	 DWORD PTR tv224[ebp]
  001c6	85 c0		 test	 eax, eax
  001c8	79 06		 jns	 SHORT $LN52@OnProcessS
  001ca	d8 05 00 00 00
	00		 fadd	 DWORD PTR __real@4f800000
$LN52@OnProcessS:
  001d0	de f9		 fdivp	 ST(1), ST(0)
  001d2	d9 5d f8	 fstp	 DWORD PTR tv221[ebp]
  001d5	d9 45 f8	 fld	 DWORD PTR tv221[ebp]
  001d8	d9 c9		 fxch	 ST(1)
  001da	dd 5d f0	 fstp	 QWORD PTR tv173[ebp]
  001dd	e8 00 00 00 00	 call	 __CIsin
  001e2	d9 5d f8	 fstp	 DWORD PTR tv214[ebp]
  001e5	d9 45 f8	 fld	 DWORD PTR tv214[ebp]
  001e8	dc 6d f0	 fsubr	 QWORD PTR tv173[ebp]
$LN53@OnProcessS:
  001eb	d9 9e 74 01 00
	00		 fstp	 DWORD PTR [esi+372]
$LN38@OnProcessS:
  001f1	5f		 pop	 edi
$LN1@OnProcessS:
  001f2	5e		 pop	 esi
  001f3	5b		 pop	 ebx

; 784  : 		}
; 785  : 	}
; 786  : }

  001f4	c9		 leave
  001f5	c3		 ret	 0
?OnProcessShow@TutorialKeyboardWnd@@IAEXXZ ENDP		; TutorialKeyboardWnd::OnProcessShow
_TEXT	ENDS
PUBLIC	??_C@_01CKDDGHAB@D?$AA@				; `string'
PUBLIC	??_C@_01CPLAODJH@S?$AA@				; `string'
PUBLIC	??_C@_01FHEEJDEE@A?$AA@				; `string'
PUBLIC	__real@3f733333
PUBLIC	__real@3f266666
PUBLIC	??_C@_0CB@JEFHEJAF@TutorialKeyboardWnd?3?3OnRenderASD@ ; `string'
PUBLIC	?OnRenderASD@TutorialKeyboardWnd@@IAEXHH@Z	; TutorialKeyboardWnd::OnRenderASD
EXTRN	__imp_?PrintText@ioFontManager@@QAAXMMMPBDZZ:PROC
EXTRN	__imp_?SetTextColor@ioFontManager@@QAEXHHH@Z:PROC
EXTRN	__imp_?SetBkColor@ioFontManager@@QAEXHHH@Z:PROC
EXTRN	__imp_?SetTextStyle@ioFontManager@@QAEXW4TextStyle@@@Z:PROC
EXTRN	__imp_?SetAlignType@ioFontManager@@QAEXW4TextAlignType@@@Z:PROC
EXTRN	__imp_?GetSingleton@ioFontManager@@SAAAV1@XZ:PROC
;	COMDAT ??_C@_01CKDDGHAB@D?$AA@
CONST	SEGMENT
??_C@_01CKDDGHAB@D?$AA@ DB 'D', 00H			; `string'
CONST	ENDS
;	COMDAT ??_C@_01CPLAODJH@S?$AA@
CONST	SEGMENT
??_C@_01CPLAODJH@S?$AA@ DB 'S', 00H			; `string'
CONST	ENDS
;	COMDAT ??_C@_01FHEEJDEE@A?$AA@
CONST	SEGMENT
??_C@_01FHEEJDEE@A?$AA@ DB 'A', 00H			; `string'
CONST	ENDS
;	COMDAT __real@3f733333
CONST	SEGMENT
__real@3f733333 DD 03f733333r			; 0.95
CONST	ENDS
;	COMDAT __real@3f266666
CONST	SEGMENT
__real@3f266666 DD 03f266666r			; 0.65
CONST	ENDS
;	COMDAT ??_C@_0CB@JEFHEJAF@TutorialKeyboardWnd?3?3OnRenderASD@
CONST	SEGMENT
??_C@_0CB@JEFHEJAF@TutorialKeyboardWnd?3?3OnRenderASD@ DB 'TutorialKeyboa'
	DB	'rdWnd::OnRenderASD', 00H			; `string'
; Function compile flags: /Ogsp
CONST	ENDS
;	COMDAT ?OnRenderASD@TutorialKeyboardWnd@@IAEXHH@Z
_TEXT	SEGMENT
tv417 = 8						; size = 4
tv361 = 8						; size = 4
_iXPos$ = 8						; size = 4
tv425 = 12						; size = 4
_iYPos$ = 12						; size = 4
?OnRenderASD@TutorialKeyboardWnd@@IAEXHH@Z PROC		; TutorialKeyboardWnd::OnRenderASD, COMDAT
; _this$ = ecx

; 800  : {

  00000	55		 push	 ebp
  00001	8b ec		 mov	 ebp, esp
  00003	53		 push	 ebx
  00004	56		 push	 esi
  00005	8b f1		 mov	 esi, ecx

; 801  : 	if( m_pButtonNormal )

  00007	33 db		 xor	 ebx, ebx
  00009	57		 push	 edi
  0000a	8b 7d 08	 mov	 edi, DWORD PTR _iXPos$[ebp]
  0000d	39 9e 60 01 00
	00		 cmp	 DWORD PTR [esi+352], ebx
  00013	0f 84 8b 00 00
	00		 je	 $LN8@OnRenderAS

; 802  : 	{
; 803  : 		m_pButtonNormal->Render( iXPos + 2, iYPos + 36 );

  00019	8b 8e 60 01 00
	00		 mov	 ecx, DWORD PTR [esi+352]
  0001f	8b 45 0c	 mov	 eax, DWORD PTR _iYPos$[ebp]
  00022	53		 push	 ebx
  00023	53		 push	 ebx
  00024	53		 push	 ebx
  00025	53		 push	 ebx
  00026	83 c0 24	 add	 eax, 36			; 00000024H
  00029	0f 57 c0	 xorps	 xmm0, xmm0
  0002c	f3 0f 2a c0	 cvtsi2ss xmm0, eax
  00030	8b 01		 mov	 eax, DWORD PTR [ecx]
  00032	51		 push	 ecx
  00033	51		 push	 ecx
  00034	f3 0f 11 44 24
	04		 movss	 DWORD PTR [esp+4], xmm0
  0003a	f3 0f 11 45 08	 movss	 DWORD PTR tv361[ebp], xmm0
  0003f	8d 57 02	 lea	 edx, DWORD PTR [edi+2]
  00042	0f 57 c0	 xorps	 xmm0, xmm0
  00045	f3 0f 2a c2	 cvtsi2ss xmm0, edx
  00049	f3 0f 11 04 24	 movss	 DWORD PTR [esp], xmm0
  0004e	ff 10		 call	 DWORD PTR [eax]

; 804  : 		m_pButtonNormal->Render( iXPos + 50, iYPos + 36 );

  00050	8b 8e 60 01 00
	00		 mov	 ecx, DWORD PTR [esi+352]
  00056	f3 0f 10 45 08	 movss	 xmm0, DWORD PTR tv361[ebp]
  0005b	8b 01		 mov	 eax, DWORD PTR [ecx]
  0005d	53		 push	 ebx
  0005e	53		 push	 ebx
  0005f	53		 push	 ebx
  00060	53		 push	 ebx
  00061	51		 push	 ecx
  00062	51		 push	 ecx
  00063	f3 0f 11 44 24
	04		 movss	 DWORD PTR [esp+4], xmm0
  00069	8d 57 32	 lea	 edx, DWORD PTR [edi+50]
  0006c	0f 57 c0	 xorps	 xmm0, xmm0
  0006f	f3 0f 2a c2	 cvtsi2ss xmm0, edx
  00073	f3 0f 11 04 24	 movss	 DWORD PTR [esp], xmm0
  00078	ff 10		 call	 DWORD PTR [eax]

; 805  : 		m_pButtonNormal->Render( iXPos + 98, iYPos + 36 );

  0007a	8b 8e 60 01 00
	00		 mov	 ecx, DWORD PTR [esi+352]
  00080	f3 0f 10 45 08	 movss	 xmm0, DWORD PTR tv361[ebp]
  00085	8b 01		 mov	 eax, DWORD PTR [ecx]
  00087	53		 push	 ebx
  00088	53		 push	 ebx
  00089	53		 push	 ebx
  0008a	53		 push	 ebx
  0008b	51		 push	 ecx
  0008c	51		 push	 ecx
  0008d	f3 0f 11 44 24
	04		 movss	 DWORD PTR [esp+4], xmm0
  00093	8d 57 62	 lea	 edx, DWORD PTR [edi+98]
  00096	0f 57 c0	 xorps	 xmm0, xmm0
  00099	f3 0f 2a c2	 cvtsi2ss xmm0, edx
  0009d	f3 0f 11 04 24	 movss	 DWORD PTR [esp], xmm0
  000a2	ff 10		 call	 DWORD PTR [eax]
$LN8@OnRenderAS:

; 806  : 	}
; 807  : 
; 808  : 	if( m_pButtonOver )

  000a4	39 9e 64 01 00
	00		 cmp	 DWORD PTR [esi+356], ebx
  000aa	0f 84 b3 00 00
	00		 je	 $LN9@OnRenderAS

; 809  : 	{
; 810  : 		if( m_bKeyA )

  000b0	38 9e 7c 01 00
	00		 cmp	 BYTE PTR [esi+380], bl
  000b6	74 33		 je	 SHORT $LN3@OnRenderAS

; 811  : 			m_pButtonOver->Render( iXPos + 2, iYPos + 36, UI_RENDER_SCREEN );

  000b8	8b 8e 64 01 00
	00		 mov	 ecx, DWORD PTR [esi+356]
  000be	8b 55 0c	 mov	 edx, DWORD PTR _iYPos$[ebp]
  000c1	8b 01		 mov	 eax, DWORD PTR [ecx]
  000c3	53		 push	 ebx
  000c4	53		 push	 ebx
  000c5	53		 push	 ebx
  000c6	6a 01		 push	 1
  000c8	83 c2 24	 add	 edx, 36			; 00000024H
  000cb	0f 57 c0	 xorps	 xmm0, xmm0
  000ce	f3 0f 2a c2	 cvtsi2ss xmm0, edx
  000d2	51		 push	 ecx
  000d3	51		 push	 ecx
  000d4	f3 0f 11 44 24
	04		 movss	 DWORD PTR [esp+4], xmm0
  000da	8d 57 02	 lea	 edx, DWORD PTR [edi+2]
  000dd	0f 57 c0	 xorps	 xmm0, xmm0
  000e0	f3 0f 2a c2	 cvtsi2ss xmm0, edx
  000e4	f3 0f 11 04 24	 movss	 DWORD PTR [esp], xmm0
  000e9	ff 10		 call	 DWORD PTR [eax]
$LN3@OnRenderAS:

; 812  : 		if( m_bKeyS )

  000eb	38 9e 7d 01 00
	00		 cmp	 BYTE PTR [esi+381], bl
  000f1	74 33		 je	 SHORT $LN2@OnRenderAS

; 813  : 			m_pButtonOver->Render( iXPos + 50, iYPos + 36, UI_RENDER_SCREEN );

  000f3	8b 8e 64 01 00
	00		 mov	 ecx, DWORD PTR [esi+356]
  000f9	8b 55 0c	 mov	 edx, DWORD PTR _iYPos$[ebp]
  000fc	8b 01		 mov	 eax, DWORD PTR [ecx]
  000fe	53		 push	 ebx
  000ff	53		 push	 ebx
  00100	53		 push	 ebx
  00101	6a 01		 push	 1
  00103	83 c2 24	 add	 edx, 36			; 00000024H
  00106	0f 57 c0	 xorps	 xmm0, xmm0
  00109	f3 0f 2a c2	 cvtsi2ss xmm0, edx
  0010d	51		 push	 ecx
  0010e	51		 push	 ecx
  0010f	f3 0f 11 44 24
	04		 movss	 DWORD PTR [esp+4], xmm0
  00115	8d 57 32	 lea	 edx, DWORD PTR [edi+50]
  00118	0f 57 c0	 xorps	 xmm0, xmm0
  0011b	f3 0f 2a c2	 cvtsi2ss xmm0, edx
  0011f	f3 0f 11 04 24	 movss	 DWORD PTR [esp], xmm0
  00124	ff 10		 call	 DWORD PTR [eax]
$LN2@OnRenderAS:

; 814  : 		if( m_bKeyD )

  00126	38 9e 7e 01 00
	00		 cmp	 BYTE PTR [esi+382], bl
  0012c	74 35		 je	 SHORT $LN9@OnRenderAS

; 815  : 			m_pButtonOver->Render( iXPos + 98, iYPos + 36, UI_RENDER_SCREEN );

  0012e	8b 4d 0c	 mov	 ecx, DWORD PTR _iYPos$[ebp]
  00131	8b b6 64 01 00
	00		 mov	 esi, DWORD PTR [esi+356]
  00137	8b 06		 mov	 eax, DWORD PTR [esi]
  00139	53		 push	 ebx
  0013a	53		 push	 ebx
  0013b	53		 push	 ebx
  0013c	83 c1 24	 add	 ecx, 36			; 00000024H
  0013f	6a 01		 push	 1
  00141	51		 push	 ecx
  00142	51		 push	 ecx
  00143	0f 57 c0	 xorps	 xmm0, xmm0
  00146	f3 0f 2a c1	 cvtsi2ss xmm0, ecx
  0014a	f3 0f 11 44 24
	04		 movss	 DWORD PTR [esp+4], xmm0
  00150	8d 4f 62	 lea	 ecx, DWORD PTR [edi+98]
  00153	0f 57 c0	 xorps	 xmm0, xmm0
  00156	f3 0f 2a c1	 cvtsi2ss xmm0, ecx
  0015a	8b ce		 mov	 ecx, esi
  0015c	f3 0f 11 04 24	 movss	 DWORD PTR [esp], xmm0
  00161	ff 10		 call	 DWORD PTR [eax]
$LN9@OnRenderAS:

; 816  : 	}
; 817  : 
; 818  : 	g_FontMgr.SetAlignType( TAT_CENTER );

  00163	8b 35 00 00 00
	00		 mov	 esi, DWORD PTR __imp_?GetSingleton@ioFontManager@@SAAAV1@XZ
  00169	6a 01		 push	 1
  0016b	ff d6		 call	 esi
  0016d	8b c8		 mov	 ecx, eax
  0016f	ff 15 00 00 00
	00		 call	 DWORD PTR __imp_?SetAlignType@ioFontManager@@QAEXW4TextAlignType@@@Z

; 819  : 	g_FontMgr.SetTextStyle( TS_OUTLINE_FULL_2X );

  00175	6a 05		 push	 5
  00177	ff d6		 call	 esi
  00179	8b c8		 mov	 ecx, eax
  0017b	ff 15 00 00 00
	00		 call	 DWORD PTR __imp_?SetTextStyle@ioFontManager@@QAEXW4TextStyle@@@Z

; 820  : 	g_FontMgr.SetBkColor( 34, 34, 34 );

  00181	6a 22		 push	 34			; 00000022H
  00183	6a 22		 push	 34			; 00000022H
  00185	6a 22		 push	 34			; 00000022H
  00187	ff d6		 call	 esi
  00189	8b c8		 mov	 ecx, eax
  0018b	ff 15 00 00 00
	00		 call	 DWORD PTR __imp_?SetBkColor@ioFontManager@@QAEXHHH@Z

; 821  : 	g_FontMgr.SetTextColor( 204, 204, 204 );

  00191	b8 cc 00 00 00	 mov	 eax, 204		; 000000ccH
  00196	50		 push	 eax
  00197	50		 push	 eax
  00198	50		 push	 eax
  00199	ff d6		 call	 esi
  0019b	8b c8		 mov	 ecx, eax
  0019d	ff 15 00 00 00
	00		 call	 DWORD PTR __imp_?SetTextColor@ioFontManager@@QAEXHHH@Z

; 822  : 	g_FontMgr.PrintText( iXPos + 25, iYPos + 18, FONT_SIZE_13, STR(1) );

  001a3	8b 45 0c	 mov	 eax, DWORD PTR _iYPos$[ebp]
  001a6	53		 push	 ebx
  001a7	6a 01		 push	 1
  001a9	83 c0 12	 add	 eax, 18			; 00000012H
  001ac	0f 57 c0	 xorps	 xmm0, xmm0
  001af	68 00 00 00 00	 push	 OFFSET ??_C@_00CNPNBAHC@?$AA@
  001b4	f3 0f 2a c0	 cvtsi2ss xmm0, eax
  001b8	68 00 00 00 00	 push	 OFFSET ??_C@_0CB@JEFHEJAF@TutorialKeyboardWnd?3?3OnRenderASD@
  001bd	f3 0f 11 45 08	 movss	 DWORD PTR tv417[ebp], xmm0
  001c2	ff 15 00 00 00
	00		 call	 DWORD PTR __imp_?GetSingleton@ioStringManager@@SAAAV1@XZ
  001c8	8b c8		 mov	 ecx, eax
  001ca	ff 15 00 00 00
	00		 call	 DWORD PTR __imp_?GetString@ioStringManager@@QAEPADPBD0HW4FileNamePrefix@1@@Z
  001d0	f3 0f 10 05 00
	00 00 00	 movss	 xmm0, DWORD PTR __real@3f266666
  001d8	50		 push	 eax
  001d9	83 ec 0c	 sub	 esp, 12			; 0000000cH
  001dc	f3 0f 11 44 24
	08		 movss	 DWORD PTR [esp+8], xmm0
  001e2	f3 0f 10 45 08	 movss	 xmm0, DWORD PTR tv417[ebp]
  001e7	f3 0f 11 44 24
	04		 movss	 DWORD PTR [esp+4], xmm0
  001ed	8d 47 19	 lea	 eax, DWORD PTR [edi+25]
  001f0	0f 57 c0	 xorps	 xmm0, xmm0
  001f3	f3 0f 2a c0	 cvtsi2ss xmm0, eax
  001f7	f3 0f 11 04 24	 movss	 DWORD PTR [esp], xmm0
  001fc	ff d6		 call	 esi
  001fe	8b 1d 00 00 00
	00		 mov	 ebx, DWORD PTR __imp_?PrintText@ioFontManager@@QAAXMMMPBDZZ
  00204	50		 push	 eax
  00205	ff d3		 call	 ebx
  00207	83 c4 14	 add	 esp, 20			; 00000014H

; 823  : 	g_FontMgr.PrintText( iXPos + 73, iYPos + 18, FONT_SIZE_13, STR(2) );

  0020a	6a 00		 push	 0
  0020c	6a 02		 push	 2
  0020e	68 00 00 00 00	 push	 OFFSET ??_C@_00CNPNBAHC@?$AA@
  00213	68 00 00 00 00	 push	 OFFSET ??_C@_0CB@JEFHEJAF@TutorialKeyboardWnd?3?3OnRenderASD@
  00218	ff 15 00 00 00
	00		 call	 DWORD PTR __imp_?GetSingleton@ioStringManager@@SAAAV1@XZ
  0021e	8b c8		 mov	 ecx, eax
  00220	ff 15 00 00 00
	00		 call	 DWORD PTR __imp_?GetString@ioStringManager@@QAEPADPBD0HW4FileNamePrefix@1@@Z
  00226	f3 0f 10 05 00
	00 00 00	 movss	 xmm0, DWORD PTR __real@3f266666
  0022e	50		 push	 eax
  0022f	83 ec 0c	 sub	 esp, 12			; 0000000cH
  00232	f3 0f 11 44 24
	08		 movss	 DWORD PTR [esp+8], xmm0
  00238	f3 0f 10 45 08	 movss	 xmm0, DWORD PTR tv417[ebp]
  0023d	f3 0f 11 44 24
	04		 movss	 DWORD PTR [esp+4], xmm0
  00243	8d 47 49	 lea	 eax, DWORD PTR [edi+73]
  00246	0f 57 c0	 xorps	 xmm0, xmm0
  00249	f3 0f 2a c0	 cvtsi2ss xmm0, eax
  0024d	f3 0f 11 04 24	 movss	 DWORD PTR [esp], xmm0
  00252	ff d6		 call	 esi
  00254	50		 push	 eax
  00255	ff d3		 call	 ebx
  00257	83 c4 14	 add	 esp, 20			; 00000014H

; 824  : 	g_FontMgr.PrintText( iXPos + 121, iYPos + 18, FONT_SIZE_13, STR(3) );

  0025a	6a 00		 push	 0
  0025c	6a 03		 push	 3
  0025e	68 00 00 00 00	 push	 OFFSET ??_C@_00CNPNBAHC@?$AA@
  00263	68 00 00 00 00	 push	 OFFSET ??_C@_0CB@JEFHEJAF@TutorialKeyboardWnd?3?3OnRenderASD@
  00268	ff 15 00 00 00
	00		 call	 DWORD PTR __imp_?GetSingleton@ioStringManager@@SAAAV1@XZ
  0026e	8b c8		 mov	 ecx, eax
  00270	ff 15 00 00 00
	00		 call	 DWORD PTR __imp_?GetString@ioStringManager@@QAEPADPBD0HW4FileNamePrefix@1@@Z
  00276	f3 0f 10 05 00
	00 00 00	 movss	 xmm0, DWORD PTR __real@3f266666
  0027e	50		 push	 eax
  0027f	83 ec 0c	 sub	 esp, 12			; 0000000cH
  00282	f3 0f 11 44 24
	08		 movss	 DWORD PTR [esp+8], xmm0
  00288	f3 0f 10 45 08	 movss	 xmm0, DWORD PTR tv417[ebp]
  0028d	f3 0f 11 44 24
	04		 movss	 DWORD PTR [esp+4], xmm0
  00293	8d 47 79	 lea	 eax, DWORD PTR [edi+121]
  00296	0f 57 c0	 xorps	 xmm0, xmm0
  00299	f3 0f 2a c0	 cvtsi2ss xmm0, eax
  0029d	f3 0f 11 04 24	 movss	 DWORD PTR [esp], xmm0
  002a2	ff d6		 call	 esi
  002a4	50		 push	 eax
  002a5	ff d3		 call	 ebx

; 825  : 
; 826  : 	g_FontMgr.PrintText( iXPos + 26, iYPos + 46, FONT_SIZE_19, "A" );

  002a7	8b 45 0c	 mov	 eax, DWORD PTR _iYPos$[ebp]
  002aa	f3 0f 10 0d 00
	00 00 00	 movss	 xmm1, DWORD PTR __real@3f733333
  002b2	83 c4 14	 add	 esp, 20			; 00000014H
  002b5	83 c0 2e	 add	 eax, 46			; 0000002eH
  002b8	0f 57 c0	 xorps	 xmm0, xmm0
  002bb	f3 0f 2a c0	 cvtsi2ss xmm0, eax
  002bf	68 00 00 00 00	 push	 OFFSET ??_C@_01FHEEJDEE@A?$AA@
  002c4	83 ec 0c	 sub	 esp, 12			; 0000000cH
  002c7	f3 0f 11 4c 24
	08		 movss	 DWORD PTR [esp+8], xmm1
  002cd	f3 0f 11 44 24
	04		 movss	 DWORD PTR [esp+4], xmm0
  002d3	f3 0f 11 45 0c	 movss	 DWORD PTR tv425[ebp], xmm0
  002d8	8d 47 1a	 lea	 eax, DWORD PTR [edi+26]
  002db	0f 57 c0	 xorps	 xmm0, xmm0
  002de	f3 0f 2a c0	 cvtsi2ss xmm0, eax
  002e2	f3 0f 11 04 24	 movss	 DWORD PTR [esp], xmm0
  002e7	ff d6		 call	 esi
  002e9	50		 push	 eax
  002ea	ff d3		 call	 ebx

; 827  : 	g_FontMgr.PrintText( iXPos + 75, iYPos + 46, FONT_SIZE_19, "S" );

  002ec	f3 0f 10 05 00
	00 00 00	 movss	 xmm0, DWORD PTR __real@3f733333
  002f4	83 c4 14	 add	 esp, 20			; 00000014H
  002f7	68 00 00 00 00	 push	 OFFSET ??_C@_01CPLAODJH@S?$AA@
  002fc	83 ec 0c	 sub	 esp, 12			; 0000000cH
  002ff	f3 0f 11 44 24
	08		 movss	 DWORD PTR [esp+8], xmm0
  00305	f3 0f 10 45 0c	 movss	 xmm0, DWORD PTR tv425[ebp]
  0030a	f3 0f 11 44 24
	04		 movss	 DWORD PTR [esp+4], xmm0
  00310	8d 47 4b	 lea	 eax, DWORD PTR [edi+75]
  00313	0f 57 c0	 xorps	 xmm0, xmm0
  00316	f3 0f 2a c0	 cvtsi2ss xmm0, eax
  0031a	f3 0f 11 04 24	 movss	 DWORD PTR [esp], xmm0
  0031f	ff d6		 call	 esi
  00321	50		 push	 eax
  00322	ff d3		 call	 ebx

; 828  : 	g_FontMgr.PrintText( iXPos + 124, iYPos + 46, FONT_SIZE_19, "D" );

  00324	f3 0f 10 05 00
	00 00 00	 movss	 xmm0, DWORD PTR __real@3f733333
  0032c	83 c4 14	 add	 esp, 20			; 00000014H
  0032f	68 00 00 00 00	 push	 OFFSET ??_C@_01CKDDGHAB@D?$AA@
  00334	83 ec 0c	 sub	 esp, 12			; 0000000cH
  00337	f3 0f 11 44 24
	08		 movss	 DWORD PTR [esp+8], xmm0
  0033d	f3 0f 10 45 0c	 movss	 xmm0, DWORD PTR tv425[ebp]
  00342	f3 0f 11 44 24
	04		 movss	 DWORD PTR [esp+4], xmm0
  00348	83 c7 7c	 add	 edi, 124		; 0000007cH
  0034b	0f 57 c0	 xorps	 xmm0, xmm0
  0034e	f3 0f 2a c7	 cvtsi2ss xmm0, edi
  00352	f3 0f 11 04 24	 movss	 DWORD PTR [esp], xmm0
  00357	ff d6		 call	 esi
  00359	50		 push	 eax
  0035a	ff d3		 call	 ebx
  0035c	83 c4 14	 add	 esp, 20			; 00000014H
  0035f	5f		 pop	 edi
  00360	5e		 pop	 esi
  00361	5b		 pop	 ebx

; 829  : }

  00362	5d		 pop	 ebp
  00363	c2 08 00	 ret	 8
?OnRenderASD@TutorialKeyboardWnd@@IAEXHH@Z ENDP		; TutorialKeyboardWnd::OnRenderASD
_TEXT	ENDS
PUBLIC	?OnRenderArrow@TutorialKeyboardWnd@@IAEXHH@Z	; TutorialKeyboardWnd::OnRenderArrow
EXTRN	__imp_?SetReverseFormatting@ioUIRenderImage@@QAEXW4ReverseFormatting@1@@Z:PROC
; Function compile flags: /Ogsp
;	COMDAT ?OnRenderArrow@TutorialKeyboardWnd@@IAEXHH@Z
_TEXT	SEGMENT
tv427 = -4						; size = 4
tv509 = 8						; size = 4
tv435 = 8						; size = 4
_iXPos$ = 8						; size = 4
tv529 = 12						; size = 4
_iYPos$ = 12						; size = 4
?OnRenderArrow@TutorialKeyboardWnd@@IAEXHH@Z PROC	; TutorialKeyboardWnd::OnRenderArrow, COMDAT
; _this$ = ecx

; 832  : {

  00000	55		 push	 ebp
  00001	8b ec		 mov	 ebp, esp
  00003	51		 push	 ecx
  00004	53		 push	 ebx
  00005	56		 push	 esi
  00006	8b f1		 mov	 esi, ecx

; 833  : 	if( m_pButtonNormal )

  00008	33 db		 xor	 ebx, ebx
  0000a	57		 push	 edi
  0000b	8b 7d 08	 mov	 edi, DWORD PTR _iXPos$[ebp]
  0000e	39 9e 60 01 00
	00		 cmp	 DWORD PTR [esi+352], ebx
  00014	0f 84 bd 00 00
	00		 je	 $LN8@OnRenderAr

; 834  : 	{
; 835  : 		m_pButtonNormal->Render( iXPos + 50, iYPos + 2 );

  0001a	8b 8e 60 01 00
	00		 mov	 ecx, DWORD PTR [esi+352]
  00020	8b 55 0c	 mov	 edx, DWORD PTR _iYPos$[ebp]
  00023	53		 push	 ebx
  00024	53		 push	 ebx
  00025	53		 push	 ebx
  00026	53		 push	 ebx
  00027	51		 push	 ecx
  00028	8d 47 32	 lea	 eax, DWORD PTR [edi+50]
  0002b	83 c2 02	 add	 edx, 2
  0002e	51		 push	 ecx
  0002f	0f 57 c0	 xorps	 xmm0, xmm0
  00032	f3 0f 2a c0	 cvtsi2ss xmm0, eax
  00036	8b 01		 mov	 eax, DWORD PTR [ecx]
  00038	0f 57 c9	 xorps	 xmm1, xmm1
  0003b	f3 0f 2a ca	 cvtsi2ss xmm1, edx
  0003f	f3 0f 11 4c 24
	04		 movss	 DWORD PTR [esp+4], xmm1
  00045	f3 0f 11 45 fc	 movss	 DWORD PTR tv427[ebp], xmm0
  0004a	f3 0f 11 04 24	 movss	 DWORD PTR [esp], xmm0
  0004f	ff 10		 call	 DWORD PTR [eax]

; 836  : 		m_pButtonNormal->Render( iXPos + 50, iYPos + 50 );

  00051	8b 8e 60 01 00
	00		 mov	 ecx, DWORD PTR [esi+352]
  00057	8b 45 0c	 mov	 eax, DWORD PTR _iYPos$[ebp]
  0005a	53		 push	 ebx
  0005b	53		 push	 ebx
  0005c	53		 push	 ebx
  0005d	53		 push	 ebx
  0005e	83 c0 32	 add	 eax, 50			; 00000032H
  00061	51		 push	 ecx
  00062	0f 57 c0	 xorps	 xmm0, xmm0
  00065	f3 0f 2a c0	 cvtsi2ss xmm0, eax
  00069	8b 01		 mov	 eax, DWORD PTR [ecx]
  0006b	51		 push	 ecx
  0006c	f3 0f 11 44 24
	04		 movss	 DWORD PTR [esp+4], xmm0
  00072	f3 0f 11 45 08	 movss	 DWORD PTR tv435[ebp], xmm0
  00077	f3 0f 10 45 fc	 movss	 xmm0, DWORD PTR tv427[ebp]
  0007c	f3 0f 11 04 24	 movss	 DWORD PTR [esp], xmm0
  00081	ff 10		 call	 DWORD PTR [eax]

; 837  : 		m_pButtonNormal->Render( iXPos + 2, iYPos + 50 );

  00083	8b 8e 60 01 00
	00		 mov	 ecx, DWORD PTR [esi+352]
  00089	f3 0f 10 45 08	 movss	 xmm0, DWORD PTR tv435[ebp]
  0008e	8b 01		 mov	 eax, DWORD PTR [ecx]
  00090	53		 push	 ebx
  00091	53		 push	 ebx
  00092	53		 push	 ebx
  00093	53		 push	 ebx
  00094	51		 push	 ecx
  00095	51		 push	 ecx
  00096	f3 0f 11 44 24
	04		 movss	 DWORD PTR [esp+4], xmm0
  0009c	8d 57 02	 lea	 edx, DWORD PTR [edi+2]
  0009f	0f 57 c0	 xorps	 xmm0, xmm0
  000a2	f3 0f 2a c2	 cvtsi2ss xmm0, edx
  000a6	f3 0f 11 04 24	 movss	 DWORD PTR [esp], xmm0
  000ab	ff 10		 call	 DWORD PTR [eax]

; 838  : 		m_pButtonNormal->Render( iXPos + 98, iYPos + 50 );

  000ad	8b 8e 60 01 00
	00		 mov	 ecx, DWORD PTR [esi+352]
  000b3	f3 0f 10 45 08	 movss	 xmm0, DWORD PTR tv435[ebp]
  000b8	8b 01		 mov	 eax, DWORD PTR [ecx]
  000ba	53		 push	 ebx
  000bb	53		 push	 ebx
  000bc	53		 push	 ebx
  000bd	53		 push	 ebx
  000be	51		 push	 ecx
  000bf	51		 push	 ecx
  000c0	f3 0f 11 44 24
	04		 movss	 DWORD PTR [esp+4], xmm0
  000c6	8d 57 62	 lea	 edx, DWORD PTR [edi+98]
  000c9	0f 57 c0	 xorps	 xmm0, xmm0
  000cc	f3 0f 2a c2	 cvtsi2ss xmm0, edx
  000d0	f3 0f 11 04 24	 movss	 DWORD PTR [esp], xmm0
  000d5	ff 10		 call	 DWORD PTR [eax]
$LN8@OnRenderAr:

; 839  : 	}
; 840  : 
; 841  : 	if( m_pButtonOver )

  000d7	39 9e 64 01 00
	00		 cmp	 DWORD PTR [esi+356], ebx
  000dd	0f 84 ec 00 00
	00		 je	 $LN3@OnRenderAr

; 842  : 	{
; 843  : 		if( m_bKeyUp )

  000e3	38 9e 81 01 00
	00		 cmp	 BYTE PTR [esi+385], bl
  000e9	74 33		 je	 SHORT $LN6@OnRenderAr

; 844  : 			m_pButtonOver->Render( iXPos + 50, iYPos + 2, UI_RENDER_SCREEN );

  000eb	8b 8e 64 01 00
	00		 mov	 ecx, DWORD PTR [esi+356]
  000f1	8b 55 0c	 mov	 edx, DWORD PTR _iYPos$[ebp]
  000f4	8b 01		 mov	 eax, DWORD PTR [ecx]
  000f6	53		 push	 ebx
  000f7	53		 push	 ebx
  000f8	53		 push	 ebx
  000f9	6a 01		 push	 1
  000fb	83 c2 02	 add	 edx, 2
  000fe	0f 57 c0	 xorps	 xmm0, xmm0
  00101	f3 0f 2a c2	 cvtsi2ss xmm0, edx
  00105	51		 push	 ecx
  00106	51		 push	 ecx
  00107	f3 0f 11 44 24
	04		 movss	 DWORD PTR [esp+4], xmm0
  0010d	8d 57 32	 lea	 edx, DWORD PTR [edi+50]
  00110	0f 57 c0	 xorps	 xmm0, xmm0
  00113	f3 0f 2a c2	 cvtsi2ss xmm0, edx
  00117	f3 0f 11 04 24	 movss	 DWORD PTR [esp], xmm0
  0011c	ff 10		 call	 DWORD PTR [eax]
$LN6@OnRenderAr:

; 845  : 		if( m_bKeyDown )

  0011e	38 9e 82 01 00
	00		 cmp	 BYTE PTR [esi+386], bl
  00124	74 33		 je	 SHORT $LN5@OnRenderAr

; 846  : 			m_pButtonOver->Render( iXPos + 50, iYPos + 50, UI_RENDER_SCREEN );

  00126	8b 8e 64 01 00
	00		 mov	 ecx, DWORD PTR [esi+356]
  0012c	8b 55 0c	 mov	 edx, DWORD PTR _iYPos$[ebp]
  0012f	8b 01		 mov	 eax, DWORD PTR [ecx]
  00131	53		 push	 ebx
  00132	53		 push	 ebx
  00133	53		 push	 ebx
  00134	6a 01		 push	 1
  00136	83 c2 32	 add	 edx, 50			; 00000032H
  00139	0f 57 c0	 xorps	 xmm0, xmm0
  0013c	f3 0f 2a c2	 cvtsi2ss xmm0, edx
  00140	51		 push	 ecx
  00141	51		 push	 ecx
  00142	f3 0f 11 44 24
	04		 movss	 DWORD PTR [esp+4], xmm0
  00148	8d 57 32	 lea	 edx, DWORD PTR [edi+50]
  0014b	0f 57 c0	 xorps	 xmm0, xmm0
  0014e	f3 0f 2a c2	 cvtsi2ss xmm0, edx
  00152	f3 0f 11 04 24	 movss	 DWORD PTR [esp], xmm0
  00157	ff 10		 call	 DWORD PTR [eax]
$LN5@OnRenderAr:

; 847  : 		if( m_bKeyLeft )

  00159	38 9e 7f 01 00
	00		 cmp	 BYTE PTR [esi+383], bl
  0015f	74 33		 je	 SHORT $LN4@OnRenderAr

; 848  : 			m_pButtonOver->Render( iXPos + 2, iYPos + 50, UI_RENDER_SCREEN );

  00161	8b 8e 64 01 00
	00		 mov	 ecx, DWORD PTR [esi+356]
  00167	8b 55 0c	 mov	 edx, DWORD PTR _iYPos$[ebp]
  0016a	8b 01		 mov	 eax, DWORD PTR [ecx]
  0016c	53		 push	 ebx
  0016d	53		 push	 ebx
  0016e	53		 push	 ebx
  0016f	6a 01		 push	 1
  00171	83 c2 32	 add	 edx, 50			; 00000032H
  00174	0f 57 c0	 xorps	 xmm0, xmm0
  00177	f3 0f 2a c2	 cvtsi2ss xmm0, edx
  0017b	51		 push	 ecx
  0017c	51		 push	 ecx
  0017d	f3 0f 11 44 24
	04		 movss	 DWORD PTR [esp+4], xmm0
  00183	8d 57 02	 lea	 edx, DWORD PTR [edi+2]
  00186	0f 57 c0	 xorps	 xmm0, xmm0
  00189	f3 0f 2a c2	 cvtsi2ss xmm0, edx
  0018d	f3 0f 11 04 24	 movss	 DWORD PTR [esp], xmm0
  00192	ff 10		 call	 DWORD PTR [eax]
$LN4@OnRenderAr:

; 849  : 		if( m_bKeyRight )

  00194	38 9e 80 01 00
	00		 cmp	 BYTE PTR [esi+384], bl
  0019a	74 33		 je	 SHORT $LN3@OnRenderAr

; 850  : 			m_pButtonOver->Render( iXPos + 98, iYPos + 50, UI_RENDER_SCREEN );

  0019c	8b 8e 64 01 00
	00		 mov	 ecx, DWORD PTR [esi+356]
  001a2	8b 55 0c	 mov	 edx, DWORD PTR _iYPos$[ebp]
  001a5	8b 01		 mov	 eax, DWORD PTR [ecx]
  001a7	53		 push	 ebx
  001a8	53		 push	 ebx
  001a9	53		 push	 ebx
  001aa	6a 01		 push	 1
  001ac	83 c2 32	 add	 edx, 50			; 00000032H
  001af	0f 57 c0	 xorps	 xmm0, xmm0
  001b2	f3 0f 2a c2	 cvtsi2ss xmm0, edx
  001b6	51		 push	 ecx
  001b7	51		 push	 ecx
  001b8	f3 0f 11 44 24
	04		 movss	 DWORD PTR [esp+4], xmm0
  001be	8d 57 62	 lea	 edx, DWORD PTR [edi+98]
  001c1	0f 57 c0	 xorps	 xmm0, xmm0
  001c4	f3 0f 2a c2	 cvtsi2ss xmm0, edx
  001c8	f3 0f 11 04 24	 movss	 DWORD PTR [esp], xmm0
  001cd	ff 10		 call	 DWORD PTR [eax]
$LN3@OnRenderAr:

; 851  : 	}
; 852  : 
; 853  : 	if( m_pArrowUp )

  001cf	8b 8e 6c 01 00
	00		 mov	 ecx, DWORD PTR [esi+364]
  001d5	3b cb		 cmp	 ecx, ebx
  001d7	74 79		 je	 SHORT $LN2@OnRenderAr

; 854  : 	{
; 855  : 		m_pArrowUp->SetReverseFormatting( ioUIRenderImage::RF_NONE_REVERSE );

  001d9	53		 push	 ebx
  001da	ff 15 00 00 00
	00		 call	 DWORD PTR __imp_?SetReverseFormatting@ioUIRenderImage@@QAEXW4ReverseFormatting@1@@Z

; 856  : 		m_pArrowUp->Render( iXPos + 68, iYPos + 13 );

  001e0	8b 8e 6c 01 00
	00		 mov	 ecx, DWORD PTR [esi+364]
  001e6	8b 55 0c	 mov	 edx, DWORD PTR _iYPos$[ebp]
  001e9	53		 push	 ebx
  001ea	53		 push	 ebx
  001eb	53		 push	 ebx
  001ec	53		 push	 ebx
  001ed	51		 push	 ecx
  001ee	8d 47 44	 lea	 eax, DWORD PTR [edi+68]
  001f1	83 c2 0d	 add	 edx, 13			; 0000000dH
  001f4	51		 push	 ecx
  001f5	0f 57 c0	 xorps	 xmm0, xmm0
  001f8	f3 0f 2a c0	 cvtsi2ss xmm0, eax
  001fc	8b 01		 mov	 eax, DWORD PTR [ecx]
  001fe	0f 57 c9	 xorps	 xmm1, xmm1
  00201	f3 0f 2a ca	 cvtsi2ss xmm1, edx
  00205	f3 0f 11 4c 24
	04		 movss	 DWORD PTR [esp+4], xmm1
  0020b	f3 0f 11 45 08	 movss	 DWORD PTR tv509[ebp], xmm0
  00210	f3 0f 11 04 24	 movss	 DWORD PTR [esp], xmm0
  00215	ff 10		 call	 DWORD PTR [eax]

; 857  : 
; 858  : 		m_pArrowUp->SetReverseFormatting( ioUIRenderImage::RF_VERT_REVERSE );

  00217	8b 8e 6c 01 00
	00		 mov	 ecx, DWORD PTR [esi+364]
  0021d	6a 02		 push	 2
  0021f	ff 15 00 00 00
	00		 call	 DWORD PTR __imp_?SetReverseFormatting@ioUIRenderImage@@QAEXW4ReverseFormatting@1@@Z

; 859  : 		m_pArrowUp->Render( iXPos + 68, iYPos + 61 );

  00225	8b 8e 6c 01 00
	00		 mov	 ecx, DWORD PTR [esi+364]
  0022b	8b 55 0c	 mov	 edx, DWORD PTR _iYPos$[ebp]
  0022e	8b 01		 mov	 eax, DWORD PTR [ecx]
  00230	53		 push	 ebx
  00231	53		 push	 ebx
  00232	53		 push	 ebx
  00233	53		 push	 ebx
  00234	51		 push	 ecx
  00235	83 c2 3d	 add	 edx, 61			; 0000003dH
  00238	0f 57 c0	 xorps	 xmm0, xmm0
  0023b	51		 push	 ecx
  0023c	f3 0f 2a c2	 cvtsi2ss xmm0, edx
  00240	f3 0f 11 44 24
	04		 movss	 DWORD PTR [esp+4], xmm0
  00246	f3 0f 10 45 08	 movss	 xmm0, DWORD PTR tv509[ebp]
  0024b	f3 0f 11 04 24	 movss	 DWORD PTR [esp], xmm0
  00250	ff 10		 call	 DWORD PTR [eax]
$LN2@OnRenderAr:

; 860  : 	}
; 861  : 
; 862  : 	if( m_pArrowLeft )

  00252	8b 8e 68 01 00
	00		 mov	 ecx, DWORD PTR [esi+360]
  00258	3b cb		 cmp	 ecx, ebx
  0025a	74 76		 je	 SHORT $LN1@OnRenderAr

; 863  : 	{
; 864  : 		m_pArrowLeft->SetReverseFormatting( ioUIRenderImage::RF_NONE_REVERSE );

  0025c	53		 push	 ebx
  0025d	ff 15 00 00 00
	00		 call	 DWORD PTR __imp_?SetReverseFormatting@ioUIRenderImage@@QAEXW4ReverseFormatting@1@@Z

; 865  : 		m_pArrowLeft->Render( iXPos + 14, iYPos + 67 );

  00263	8b 8e 68 01 00
	00		 mov	 ecx, DWORD PTR [esi+360]
  00269	8b 45 0c	 mov	 eax, DWORD PTR _iYPos$[ebp]
  0026c	53		 push	 ebx
  0026d	53		 push	 ebx
  0026e	53		 push	 ebx
  0026f	53		 push	 ebx
  00270	83 c0 43	 add	 eax, 67			; 00000043H
  00273	0f 57 c0	 xorps	 xmm0, xmm0
  00276	f3 0f 2a c0	 cvtsi2ss xmm0, eax
  0027a	8b 01		 mov	 eax, DWORD PTR [ecx]
  0027c	51		 push	 ecx
  0027d	51		 push	 ecx
  0027e	f3 0f 11 44 24
	04		 movss	 DWORD PTR [esp+4], xmm0
  00284	f3 0f 11 45 0c	 movss	 DWORD PTR tv529[ebp], xmm0
  00289	8d 57 0e	 lea	 edx, DWORD PTR [edi+14]
  0028c	0f 57 c0	 xorps	 xmm0, xmm0
  0028f	f3 0f 2a c2	 cvtsi2ss xmm0, edx
  00293	f3 0f 11 04 24	 movss	 DWORD PTR [esp], xmm0
  00298	ff 10		 call	 DWORD PTR [eax]

; 866  : 
; 867  : 		m_pArrowLeft->SetReverseFormatting( ioUIRenderImage::RF_HORZ_REVERSE );

  0029a	8b 8e 68 01 00
	00		 mov	 ecx, DWORD PTR [esi+360]
  002a0	6a 01		 push	 1
  002a2	ff 15 00 00 00
	00		 call	 DWORD PTR __imp_?SetReverseFormatting@ioUIRenderImage@@QAEXW4ReverseFormatting@1@@Z

; 868  : 		m_pArrowLeft->Render( iXPos + 110, iYPos + 67 );

  002a8	8b 8e 68 01 00
	00		 mov	 ecx, DWORD PTR [esi+360]
  002ae	f3 0f 10 45 0c	 movss	 xmm0, DWORD PTR tv529[ebp]
  002b3	8b 01		 mov	 eax, DWORD PTR [ecx]
  002b5	53		 push	 ebx
  002b6	53		 push	 ebx
  002b7	53		 push	 ebx
  002b8	53		 push	 ebx
  002b9	51		 push	 ecx
  002ba	51		 push	 ecx
  002bb	f3 0f 11 44 24
	04		 movss	 DWORD PTR [esp+4], xmm0
  002c1	83 c7 6e	 add	 edi, 110		; 0000006eH
  002c4	0f 57 c0	 xorps	 xmm0, xmm0
  002c7	f3 0f 2a c7	 cvtsi2ss xmm0, edi
  002cb	f3 0f 11 04 24	 movss	 DWORD PTR [esp], xmm0
  002d0	ff 10		 call	 DWORD PTR [eax]
$LN1@OnRenderAr:
  002d2	5f		 pop	 edi
  002d3	5e		 pop	 esi
  002d4	5b		 pop	 ebx

; 869  : 	}
; 870  : }

  002d5	c9		 leave
  002d6	c2 08 00	 ret	 8
?OnRenderArrow@TutorialKeyboardWnd@@IAEXHH@Z ENDP	; TutorialKeyboardWnd::OnRenderArrow
_TEXT	ENDS
PUBLIC	?_Adopt@_Iterator_base0@std@@QAEXPBX@Z		; std::_Iterator_base0::_Adopt
; Function compile flags: /Ogsp
; File c:\program files (x86)\microsoft visual studio 10.0\vc\include\xutility
;	COMDAT ?_Adopt@_Iterator_base0@std@@QAEXPBX@Z
_TEXT	SEGMENT
___formal$ = 8						; size = 4
?_Adopt@_Iterator_base0@std@@QAEXPBX@Z PROC		; std::_Iterator_base0::_Adopt, COMDAT
; _this$ = ecx

; 49   : 		}

  00000	c2 04 00	 ret	 4
?_Adopt@_Iterator_base0@std@@QAEXPBX@Z ENDP		; std::_Iterator_base0::_Adopt
_TEXT	ENDS
PUBLIC	?size@?$vector@V?$basic_string@DU?$char_traits@D@std@@V?$allocator@D@2@@std@@V?$allocator@V?$basic_string@DU?$char_traits@D@std@@V?$allocator@D@2@@std@@@2@@std@@QBEIXZ ; std::vector<std::basic_string<char,std::char_traits<char>,std::allocator<char> >,std::allocator<std::basic_string<char,std::char_traits<char>,std::allocator<char> > > >::size
; Function compile flags: /Ogsp
; File c:\program files (x86)\microsoft visual studio 10.0\vc\include\vector
;	COMDAT ?size@?$vector@V?$basic_string@DU?$char_traits@D@std@@V?$allocator@D@2@@std@@V?$allocator@V?$basic_string@DU?$char_traits@D@std@@V?$allocator@D@2@@std@@@2@@std@@QBEIXZ
_TEXT	SEGMENT
?size@?$vector@V?$basic_string@DU?$char_traits@D@std@@V?$allocator@D@2@@std@@V?$allocator@V?$basic_string@DU?$char_traits@D@std@@V?$allocator@D@2@@std@@@2@@std@@QBEIXZ PROC ; std::vector<std::basic_string<char,std::char_traits<char>,std::allocator<char> >,std::allocator<std::basic_string<char,std::char_traits<char>,std::allocator<char> > > >::size, COMDAT
; _this$ = ecx

; 879  : 		return (this->_Mylast - this->_Myfirst);

  00000	8b 41 04	 mov	 eax, DWORD PTR [ecx+4]
  00003	2b 01		 sub	 eax, DWORD PTR [ecx]
  00005	6a 1c		 push	 28			; 0000001cH
  00007	99		 cdq
  00008	59		 pop	 ecx
  00009	f7 f9		 idiv	 ecx

; 880  : 		}

  0000b	c3		 ret	 0
?size@?$vector@V?$basic_string@DU?$char_traits@D@std@@V?$allocator@D@2@@std@@V?$allocator@V?$basic_string@DU?$char_traits@D@std@@V?$allocator@D@2@@std@@@2@@std@@QBEIXZ ENDP ; std::vector<std::basic_string<char,std::char_traits<char>,std::allocator<char> >,std::allocator<std::basic_string<char,std::char_traits<char>,std::allocator<char> > > >::size
_TEXT	ENDS
PUBLIC	?empty@?$vector@V?$basic_string@DU?$char_traits@D@std@@V?$allocator@D@2@@std@@V?$allocator@V?$basic_string@DU?$char_traits@D@std@@V?$allocator@D@2@@std@@@2@@std@@QBE_NXZ ; std::vector<std::basic_string<char,std::char_traits<char>,std::allocator<char> >,std::allocator<std::basic_string<char,std::char_traits<char>,std::allocator<char> > > >::empty
; Function compile flags: /Ogsp
;	COMDAT ?empty@?$vector@V?$basic_string@DU?$char_traits@D@std@@V?$allocator@D@2@@std@@V?$allocator@V?$basic_string@DU?$char_traits@D@std@@V?$allocator@D@2@@std@@@2@@std@@QBE_NXZ
_TEXT	SEGMENT
?empty@?$vector@V?$basic_string@DU?$char_traits@D@std@@V?$allocator@D@2@@std@@V?$allocator@V?$basic_string@DU?$char_traits@D@std@@V?$allocator@D@2@@std@@@2@@std@@QBE_NXZ PROC ; std::vector<std::basic_string<char,std::char_traits<char>,std::allocator<char> >,std::allocator<std::basic_string<char,std::char_traits<char>,std::allocator<char> > > >::empty, COMDAT
; _this$ = ecx

; 889  : 		return (this->_Myfirst == this->_Mylast);

  00000	8b 01		 mov	 eax, DWORD PTR [ecx]
  00002	2b 41 04	 sub	 eax, DWORD PTR [ecx+4]
  00005	f7 d8		 neg	 eax
  00007	1b c0		 sbb	 eax, eax
  00009	40		 inc	 eax

; 890  : 		}

  0000a	c3		 ret	 0
?empty@?$vector@V?$basic_string@DU?$char_traits@D@std@@V?$allocator@D@2@@std@@V?$allocator@V?$basic_string@DU?$char_traits@D@std@@V?$allocator@D@2@@std@@@2@@std@@QBE_NXZ ENDP ; std::vector<std::basic_string<char,std::char_traits<char>,std::allocator<char> >,std::allocator<std::basic_string<char,std::char_traits<char>,std::allocator<char> > > >::empty
_TEXT	ENDS
PUBLIC	??A?$vector@V?$basic_string@DU?$char_traits@D@std@@V?$allocator@D@2@@std@@V?$allocator@V?$basic_string@DU?$char_traits@D@std@@V?$allocator@D@2@@std@@@2@@std@@QAEAAV?$basic_string@DU?$char_traits@D@std@@V?$allocator@D@2@@1@I@Z ; std::vector<std::basic_string<char,std::char_traits<char>,std::allocator<char> >,std::allocator<std::basic_string<char,std::char_traits<char>,std::allocator<char> > > >::operator[]
; Function compile flags: /Ogsp
;	COMDAT ??A?$vector@V?$basic_string@DU?$char_traits@D@std@@V?$allocator@D@2@@std@@V?$allocator@V?$basic_string@DU?$char_traits@D@std@@V?$allocator@D@2@@std@@@2@@std@@QAEAAV?$basic_string@DU?$char_traits@D@std@@V?$allocator@D@2@@1@I@Z
_TEXT	SEGMENT
__Pos$ = 8						; size = 4
??A?$vector@V?$basic_string@DU?$char_traits@D@std@@V?$allocator@D@2@@std@@V?$allocator@V?$basic_string@DU?$char_traits@D@std@@V?$allocator@D@2@@std@@@2@@std@@QAEAAV?$basic_string@DU?$char_traits@D@std@@V?$allocator@D@2@@1@I@Z PROC ; std::vector<std::basic_string<char,std::char_traits<char>,std::allocator<char> >,std::allocator<std::basic_string<char,std::char_traits<char>,std::allocator<char> > > >::operator[], COMDAT
; _this$ = ecx

; 928  : 		{	// subscript mutable sequence

  00000	55		 push	 ebp
  00001	8b ec		 mov	 ebp, esp

; 929  :  #if _ITERATOR_DEBUG_LEVEL == 2
; 930  : 		if (size() <= _Pos)
; 931  : 			{	// report error
; 932  : 			_DEBUG_ERROR("vector subscript out of range");
; 933  : 			_SCL_SECURE_OUT_OF_RANGE;
; 934  : 			}
; 935  : 
; 936  :  #elif _ITERATOR_DEBUG_LEVEL == 1
; 937  : 		_SCL_SECURE_VALIDATE_RANGE(_Pos < size());
; 938  :  #endif /* _ITERATOR_DEBUG_LEVEL */
; 939  : 
; 940  : 		return (*(this->_Myfirst + _Pos));

  00003	8b 45 08	 mov	 eax, DWORD PTR __Pos$[ebp]
  00006	6b c0 1c	 imul	 eax, 28			; 0000001cH
  00009	03 01		 add	 eax, DWORD PTR [ecx]

; 941  : 		}

  0000b	5d		 pop	 ebp
  0000c	c2 04 00	 ret	 4
??A?$vector@V?$basic_string@DU?$char_traits@D@std@@V?$allocator@D@2@@std@@V?$allocator@V?$basic_string@DU?$char_traits@D@std@@V?$allocator@D@2@@std@@@2@@std@@QAEAAV?$basic_string@DU?$char_traits@D@std@@V?$allocator@D@2@@1@I@Z ENDP ; std::vector<std::basic_string<char,std::char_traits<char>,std::allocator<char> >,std::allocator<std::basic_string<char,std::char_traits<char>,std::allocator<char> > > >::operator[]
_TEXT	ENDS
PUBLIC	?size@?$vector@UStringTick@TutorialWnd@@V?$allocator@UStringTick@TutorialWnd@@@std@@@std@@QBEIXZ ; std::vector<TutorialWnd::StringTick,std::allocator<TutorialWnd::StringTick> >::size
; Function compile flags: /Ogsp
;	COMDAT ?size@?$vector@UStringTick@TutorialWnd@@V?$allocator@UStringTick@TutorialWnd@@@std@@@std@@QBEIXZ
_TEXT	SEGMENT
?size@?$vector@UStringTick@TutorialWnd@@V?$allocator@UStringTick@TutorialWnd@@@std@@@std@@QBEIXZ PROC ; std::vector<TutorialWnd::StringTick,std::allocator<TutorialWnd::StringTick> >::size, COMDAT
; _this$ = ecx

; 879  : 		return (this->_Mylast - this->_Myfirst);

  00000	8b 41 04	 mov	 eax, DWORD PTR [ecx+4]
  00003	2b 01		 sub	 eax, DWORD PTR [ecx]
  00005	b9 04 01 00 00	 mov	 ecx, 260		; 00000104H
  0000a	99		 cdq
  0000b	f7 f9		 idiv	 ecx

; 880  : 		}

  0000d	c3		 ret	 0
?size@?$vector@UStringTick@TutorialWnd@@V?$allocator@UStringTick@TutorialWnd@@@std@@@std@@QBEIXZ ENDP ; std::vector<TutorialWnd::StringTick,std::allocator<TutorialWnd::StringTick> >::size
_TEXT	ENDS
PUBLIC	??A?$vector@UStringTick@TutorialWnd@@V?$allocator@UStringTick@TutorialWnd@@@std@@@std@@QAEAAUStringTick@TutorialWnd@@I@Z ; std::vector<TutorialWnd::StringTick,std::allocator<TutorialWnd::StringTick> >::operator[]
; Function compile flags: /Ogsp
;	COMDAT ??A?$vector@UStringTick@TutorialWnd@@V?$allocator@UStringTick@TutorialWnd@@@std@@@std@@QAEAAUStringTick@TutorialWnd@@I@Z
_TEXT	SEGMENT
__Pos$ = 8						; size = 4
??A?$vector@UStringTick@TutorialWnd@@V?$allocator@UStringTick@TutorialWnd@@@std@@@std@@QAEAAUStringTick@TutorialWnd@@I@Z PROC ; std::vector<TutorialWnd::StringTick,std::allocator<TutorialWnd::StringTick> >::operator[], COMDAT
; _this$ = ecx

; 928  : 		{	// subscript mutable sequence

  00000	55		 push	 ebp
  00001	8b ec		 mov	 ebp, esp

; 929  :  #if _ITERATOR_DEBUG_LEVEL == 2
; 930  : 		if (size() <= _Pos)
; 931  : 			{	// report error
; 932  : 			_DEBUG_ERROR("vector subscript out of range");
; 933  : 			_SCL_SECURE_OUT_OF_RANGE;
; 934  : 			}
; 935  : 
; 936  :  #elif _ITERATOR_DEBUG_LEVEL == 1
; 937  : 		_SCL_SECURE_VALIDATE_RANGE(_Pos < size());
; 938  :  #endif /* _ITERATOR_DEBUG_LEVEL */
; 939  : 
; 940  : 		return (*(this->_Myfirst + _Pos));

  00003	8b 45 08	 mov	 eax, DWORD PTR __Pos$[ebp]
  00006	69 c0 04 01 00
	00		 imul	 eax, 260		; 00000104H
  0000c	03 01		 add	 eax, DWORD PTR [ecx]

; 941  : 		}

  0000e	5d		 pop	 ebp
  0000f	c2 04 00	 ret	 4
??A?$vector@UStringTick@TutorialWnd@@V?$allocator@UStringTick@TutorialWnd@@@std@@@std@@QAEAAUStringTick@TutorialWnd@@I@Z ENDP ; std::vector<TutorialWnd::StringTick,std::allocator<TutorialWnd::StringTick> >::operator[]
_TEXT	ENDS
PUBLIC	?capacity@?$vector@V?$basic_string@DU?$char_traits@D@std@@V?$allocator@D@2@@std@@V?$allocator@V?$basic_string@DU?$char_traits@D@std@@V?$allocator@D@2@@std@@@2@@std@@QBEIXZ ; std::vector<std::basic_string<char,std::char_traits<char>,std::allocator<char> >,std::allocator<std::basic_string<char,std::char_traits<char>,std::allocator<char> > > >::capacity
; Function compile flags: /Ogsp
;	COMDAT ?capacity@?$vector@V?$basic_string@DU?$char_traits@D@std@@V?$allocator@D@2@@std@@V?$allocator@V?$basic_string@DU?$char_traits@D@std@@V?$allocator@D@2@@std@@@2@@std@@QBEIXZ
_TEXT	SEGMENT
?capacity@?$vector@V?$basic_string@DU?$char_traits@D@std@@V?$allocator@D@2@@std@@V?$allocator@V?$basic_string@DU?$char_traits@D@std@@V?$allocator@D@2@@std@@@2@@std@@QBEIXZ PROC ; std::vector<std::basic_string<char,std::char_traits<char>,std::allocator<char> >,std::allocator<std::basic_string<char,std::char_traits<char>,std::allocator<char> > > >::capacity, COMDAT
; _this$ = ecx

; 777  : 		return (this->_Myend - this->_Myfirst);

  00000	8b 41 08	 mov	 eax, DWORD PTR [ecx+8]
  00003	2b 01		 sub	 eax, DWORD PTR [ecx]
  00005	6a 1c		 push	 28			; 0000001cH
  00007	99		 cdq
  00008	59		 pop	 ecx
  00009	f7 f9		 idiv	 ecx

; 778  : 		}

  0000b	c3		 ret	 0
?capacity@?$vector@V?$basic_string@DU?$char_traits@D@std@@V?$allocator@D@2@@std@@V?$allocator@V?$basic_string@DU?$char_traits@D@std@@V?$allocator@D@2@@std@@@2@@std@@QBEIXZ ENDP ; std::vector<std::basic_string<char,std::char_traits<char>,std::allocator<char> >,std::allocator<std::basic_string<char,std::char_traits<char>,std::allocator<char> > > >::capacity
_TEXT	ENDS
PUBLIC	??0?$allocator@V?$basic_string@DU?$char_traits@D@std@@V?$allocator@D@2@@std@@@std@@QAE@XZ ; std::allocator<std::basic_string<char,std::char_traits<char>,std::allocator<char> > >::allocator<std::basic_string<char,std::char_traits<char>,std::allocator<char> > >
; Function compile flags: /Ogsp
; File c:\program files (x86)\microsoft visual studio 10.0\vc\include\xmemory
;	COMDAT ??0?$allocator@V?$basic_string@DU?$char_traits@D@std@@V?$allocator@D@2@@std@@@std@@QAE@XZ
_TEXT	SEGMENT
??0?$allocator@V?$basic_string@DU?$char_traits@D@std@@V?$allocator@D@2@@std@@@std@@QAE@XZ PROC ; std::allocator<std::basic_string<char,std::char_traits<char>,std::allocator<char> > >::allocator<std::basic_string<char,std::char_traits<char>,std::allocator<char> > >, COMDAT
; _this$ = ecx

; 161  : 	_ALLOCATOR() _THROW0()

  00000	8b c1		 mov	 eax, ecx

; 162  : 		{	// construct default allocator (do nothing)
; 163  : 		}

  00002	c3		 ret	 0
??0?$allocator@V?$basic_string@DU?$char_traits@D@std@@V?$allocator@D@2@@std@@@std@@QAE@XZ ENDP ; std::allocator<std::basic_string<char,std::char_traits<char>,std::allocator<char> > >::allocator<std::basic_string<char,std::char_traits<char>,std::allocator<char> > >
_TEXT	ENDS
PUBLIC	?_Inside@?$vector@UStringTick@TutorialWnd@@V?$allocator@UStringTick@TutorialWnd@@@std@@@std@@IBE_NPBUStringTick@TutorialWnd@@@Z ; std::vector<TutorialWnd::StringTick,std::allocator<TutorialWnd::StringTick> >::_Inside
; Function compile flags: /Ogsp
; File c:\program files (x86)\microsoft visual studio 10.0\vc\include\vector
;	COMDAT ?_Inside@?$vector@UStringTick@TutorialWnd@@V?$allocator@UStringTick@TutorialWnd@@@std@@@std@@IBE_NPBUStringTick@TutorialWnd@@@Z
_TEXT	SEGMENT
__Ptr$ = 8						; size = 4
?_Inside@?$vector@UStringTick@TutorialWnd@@V?$allocator@UStringTick@TutorialWnd@@@std@@@std@@IBE_NPBUStringTick@TutorialWnd@@@Z PROC ; std::vector<TutorialWnd::StringTick,std::allocator<TutorialWnd::StringTick> >::_Inside, COMDAT
; _this$ = ecx

; 1285 : 		{	// test if _Ptr points inside vector

  00000	55		 push	 ebp
  00001	8b ec		 mov	 ebp, esp

; 1286 : 		return (_Ptr < this->_Mylast && this->_Myfirst <= _Ptr);

  00003	8b 45 08	 mov	 eax, DWORD PTR __Ptr$[ebp]
  00006	3b 41 04	 cmp	 eax, DWORD PTR [ecx+4]
  00009	73 09		 jae	 SHORT $LN3@Inside
  0000b	39 01		 cmp	 DWORD PTR [ecx], eax
  0000d	77 05		 ja	 SHORT $LN3@Inside
  0000f	33 c0		 xor	 eax, eax
  00011	40		 inc	 eax
  00012	eb 02		 jmp	 SHORT $LN4@Inside
$LN3@Inside:
  00014	33 c0		 xor	 eax, eax
$LN4@Inside:

; 1287 : 		}

  00016	5d		 pop	 ebp
  00017	c2 04 00	 ret	 4
?_Inside@?$vector@UStringTick@TutorialWnd@@V?$allocator@UStringTick@TutorialWnd@@@std@@@std@@IBE_NPBUStringTick@TutorialWnd@@@Z ENDP ; std::vector<TutorialWnd::StringTick,std::allocator<TutorialWnd::StringTick> >::_Inside
_TEXT	ENDS
PUBLIC	?_Orphan_range@?$vector@UStringTick@TutorialWnd@@V?$allocator@UStringTick@TutorialWnd@@@std@@@std@@IBEXPAUStringTick@TutorialWnd@@0@Z ; std::vector<TutorialWnd::StringTick,std::allocator<TutorialWnd::StringTick> >::_Orphan_range
; Function compile flags: /Ogsp
;	COMDAT ?_Orphan_range@?$vector@UStringTick@TutorialWnd@@V?$allocator@UStringTick@TutorialWnd@@@std@@@std@@IBEXPAUStringTick@TutorialWnd@@0@Z
_TEXT	SEGMENT
___formal$ = 8						; size = 4
___formal$ = 12						; size = 4
?_Orphan_range@?$vector@UStringTick@TutorialWnd@@V?$allocator@UStringTick@TutorialWnd@@@std@@@std@@IBEXPAUStringTick@TutorialWnd@@0@Z PROC ; std::vector<TutorialWnd::StringTick,std::allocator<TutorialWnd::StringTick> >::_Orphan_range, COMDAT
; _this$ = ecx

; 1454 : 		}

  00000	c2 08 00	 ret	 8
?_Orphan_range@?$vector@UStringTick@TutorialWnd@@V?$allocator@UStringTick@TutorialWnd@@@std@@@std@@IBEXPAUStringTick@TutorialWnd@@0@Z ENDP ; std::vector<TutorialWnd::StringTick,std::allocator<TutorialWnd::StringTick> >::_Orphan_range
_TEXT	ENDS
PUBLIC	??1?$_Vector_val@UStringTick@TutorialWnd@@V?$allocator@UStringTick@TutorialWnd@@@std@@@std@@QAE@XZ ; std::_Vector_val<TutorialWnd::StringTick,std::allocator<TutorialWnd::StringTick> >::~_Vector_val<TutorialWnd::StringTick,std::allocator<TutorialWnd::StringTick> >
; Function compile flags: /Ogsp
;	COMDAT ??1?$_Vector_val@UStringTick@TutorialWnd@@V?$allocator@UStringTick@TutorialWnd@@@std@@@std@@QAE@XZ
_TEXT	SEGMENT
??1?$_Vector_val@UStringTick@TutorialWnd@@V?$allocator@UStringTick@TutorialWnd@@@std@@@std@@QAE@XZ PROC ; std::_Vector_val<TutorialWnd::StringTick,std::allocator<TutorialWnd::StringTick> >::~_Vector_val<TutorialWnd::StringTick,std::allocator<TutorialWnd::StringTick> >, COMDAT
; _this$ = ecx

; 434  : 		}

  00000	c3		 ret	 0
??1?$_Vector_val@UStringTick@TutorialWnd@@V?$allocator@UStringTick@TutorialWnd@@@std@@@std@@QAE@XZ ENDP ; std::_Vector_val<TutorialWnd::StringTick,std::allocator<TutorialWnd::StringTick> >::~_Vector_val<TutorialWnd::StringTick,std::allocator<TutorialWnd::StringTick> >
_TEXT	ENDS
PUBLIC	??0?$allocator@UStringTick@TutorialWnd@@@std@@QAE@XZ ; std::allocator<TutorialWnd::StringTick>::allocator<TutorialWnd::StringTick>
; Function compile flags: /Ogsp
; File c:\program files (x86)\microsoft visual studio 10.0\vc\include\xmemory
;	COMDAT ??0?$allocator@UStringTick@TutorialWnd@@@std@@QAE@XZ
_TEXT	SEGMENT
??0?$allocator@UStringTick@TutorialWnd@@@std@@QAE@XZ PROC ; std::allocator<TutorialWnd::StringTick>::allocator<TutorialWnd::StringTick>, COMDAT
; _this$ = ecx

; 161  : 	_ALLOCATOR() _THROW0()

  00000	8b c1		 mov	 eax, ecx

; 162  : 		{	// construct default allocator (do nothing)
; 163  : 		}

  00002	c3		 ret	 0
??0?$allocator@UStringTick@TutorialWnd@@@std@@QAE@XZ ENDP ; std::allocator<TutorialWnd::StringTick>::allocator<TutorialWnd::StringTick>
_TEXT	ENDS
PUBLIC	??D?$_Vector_const_iterator@V?$_Vector_val@PAVioUIRenderImage@@V?$allocator@PAVioUIRenderImage@@@std@@@std@@@std@@QBEABQAVioUIRenderImage@@XZ ; std::_Vector_const_iterator<std::_Vector_val<ioUIRenderImage *,std::allocator<ioUIRenderImage *> > >::operator*
; Function compile flags: /Ogsp
; File c:\program files (x86)\microsoft visual studio 10.0\vc\include\vector
;	COMDAT ??D?$_Vector_const_iterator@V?$_Vector_val@PAVioUIRenderImage@@V?$allocator@PAVioUIRenderImage@@@std@@@std@@@std@@QBEABQAVioUIRenderImage@@XZ
_TEXT	SEGMENT
??D?$_Vector_const_iterator@V?$_Vector_val@PAVioUIRenderImage@@V?$allocator@PAVioUIRenderImage@@@std@@@std@@@std@@QBEABQAVioUIRenderImage@@XZ PROC ; std::_Vector_const_iterator<std::_Vector_val<ioUIRenderImage *,std::allocator<ioUIRenderImage *> > >::operator*, COMDAT
; _this$ = ecx

; 64   :  #if _ITERATOR_DEBUG_LEVEL == 2
; 65   : 		if (this->_Getcont() == 0
; 66   : 			|| this->_Ptr == 0
; 67   : 			|| this->_Ptr < ((_Myvec *)this->_Getcont())->_Myfirst
; 68   : 			|| ((_Myvec *)this->_Getcont())->_Mylast <= this->_Ptr)
; 69   : 			{	// report error
; 70   : 			_DEBUG_ERROR("vector iterator not dereferencable");
; 71   : 			_SCL_SECURE_OUT_OF_RANGE;
; 72   : 			}
; 73   : 
; 74   :  #elif _ITERATOR_DEBUG_LEVEL == 1
; 75   : 		_SCL_SECURE_VALIDATE(this->_Getcont() != 0);
; 76   : 		_SCL_SECURE_VALIDATE_RANGE(
; 77   : 			this->_Ptr != 0
; 78   : 			&& ((_Myvec *)this->_Getcont())->_Myfirst <= this->_Ptr
; 79   : 			&& this->_Ptr < ((_Myvec *)this->_Getcont())->_Mylast);
; 80   :  #endif /* _ITERATOR_DEBUG_LEVEL */
; 81   : 
; 82   : 		__analysis_assume(this->_Ptr != 0);
; 83   : 
; 84   : 		return (*this->_Ptr);

  00000	8b 01		 mov	 eax, DWORD PTR [ecx]

; 85   : 		}

  00002	c3		 ret	 0
??D?$_Vector_const_iterator@V?$_Vector_val@PAVioUIRenderImage@@V?$allocator@PAVioUIRenderImage@@@std@@@std@@@std@@QBEABQAVioUIRenderImage@@XZ ENDP ; std::_Vector_const_iterator<std::_Vector_val<ioUIRenderImage *,std::allocator<ioUIRenderImage *> > >::operator*
_TEXT	ENDS
PUBLIC	??E?$_Vector_const_iterator@V?$_Vector_val@PAVioUIRenderImage@@V?$allocator@PAVioUIRenderImage@@@std@@@std@@@std@@QAEAAV01@XZ ; std::_Vector_const_iterator<std::_Vector_val<ioUIRenderImage *,std::allocator<ioUIRenderImage *> > >::operator++
; Function compile flags: /Ogsp
;	COMDAT ??E?$_Vector_const_iterator@V?$_Vector_val@PAVioUIRenderImage@@V?$allocator@PAVioUIRenderImage@@@std@@@std@@@std@@QAEAAV01@XZ
_TEXT	SEGMENT
??E?$_Vector_const_iterator@V?$_Vector_val@PAVioUIRenderImage@@V?$allocator@PAVioUIRenderImage@@@std@@@std@@@std@@QAEAAV01@XZ PROC ; std::_Vector_const_iterator<std::_Vector_val<ioUIRenderImage *,std::allocator<ioUIRenderImage *> > >::operator++, COMDAT
; _this$ = ecx

; 93   : 		{	// preincrement

  00000	8b c1		 mov	 eax, ecx

; 94   :  #if _ITERATOR_DEBUG_LEVEL == 2
; 95   : 		if (this->_Getcont() == 0
; 96   : 			|| this->_Ptr == 0
; 97   : 			|| ((_Myvec *)this->_Getcont())->_Mylast <= this->_Ptr)
; 98   : 			{	// report error
; 99   : 			_DEBUG_ERROR("vector iterator not incrementable");
; 100  : 			_SCL_SECURE_OUT_OF_RANGE;
; 101  : 			}
; 102  : 
; 103  :  #elif _ITERATOR_DEBUG_LEVEL == 1
; 104  : 		_SCL_SECURE_VALIDATE(this->_Getcont() != 0);
; 105  : 		_SCL_SECURE_VALIDATE_RANGE(
; 106  : 			this->_Ptr != 0
; 107  : 			&& this->_Ptr < ((_Myvec *)this->_Getcont())->_Mylast);
; 108  :  #endif /* _ITERATOR_DEBUG_LEVEL */
; 109  : 
; 110  : 		++this->_Ptr;

  00002	83 00 04	 add	 DWORD PTR [eax], 4

; 111  : 		return (*this);
; 112  : 		}

  00005	c3		 ret	 0
??E?$_Vector_const_iterator@V?$_Vector_val@PAVioUIRenderImage@@V?$allocator@PAVioUIRenderImage@@@std@@@std@@@std@@QAEAAV01@XZ ENDP ; std::_Vector_const_iterator<std::_Vector_val<ioUIRenderImage *,std::allocator<ioUIRenderImage *> > >::operator++
_TEXT	ENDS
PUBLIC	??_C@_0BD@OLBABOEK@vector?$DMT?$DO?5too?5long?$AA@ ; `string'
PUBLIC	?_Xlen@?$vector@V?$basic_string@DU?$char_traits@D@std@@V?$allocator@D@2@@std@@V?$allocator@V?$basic_string@DU?$char_traits@D@std@@V?$allocator@D@2@@std@@@2@@std@@IBEXXZ ; std::vector<std::basic_string<char,std::char_traits<char>,std::allocator<char> >,std::allocator<std::basic_string<char,std::char_traits<char>,std::allocator<char> > > >::_Xlen
EXTRN	__imp_?_Xlength_error@std@@YAXPBD@Z:PROC
;	COMDAT ??_C@_0BD@OLBABOEK@vector?$DMT?$DO?5too?5long?$AA@
CONST	SEGMENT
??_C@_0BD@OLBABOEK@vector?$DMT?$DO?5too?5long?$AA@ DB 'vector<T> too long'
	DB	00H						; `string'
; Function compile flags: /Ogsp
CONST	ENDS
;	COMDAT ?_Xlen@?$vector@V?$basic_string@DU?$char_traits@D@std@@V?$allocator@D@2@@std@@V?$allocator@V?$basic_string@DU?$char_traits@D@std@@V?$allocator@D@2@@std@@@2@@std@@IBEXXZ
_TEXT	SEGMENT
?_Xlen@?$vector@V?$basic_string@DU?$char_traits@D@std@@V?$allocator@D@2@@std@@V?$allocator@V?$basic_string@DU?$char_traits@D@std@@V?$allocator@D@2@@std@@@2@@std@@IBEXXZ PROC ; std::vector<std::basic_string<char,std::char_traits<char>,std::allocator<char> >,std::allocator<std::basic_string<char,std::char_traits<char>,std::allocator<char> > > >::_Xlen, COMDAT
; _this$ = ecx

; 1427 : 		_Xlength_error("vector<T> too long");

  00000	68 00 00 00 00	 push	 OFFSET ??_C@_0BD@OLBABOEK@vector?$DMT?$DO?5too?5long?$AA@
  00005	ff 15 00 00 00
	00		 call	 DWORD PTR __imp_?_Xlength_error@std@@YAXPBD@Z
$LN4@Xlen:
$LN3@Xlen:
  0000b	cc		 int	 3
?_Xlen@?$vector@V?$basic_string@DU?$char_traits@D@std@@V?$allocator@D@2@@std@@V?$allocator@V?$basic_string@DU?$char_traits@D@std@@V?$allocator@D@2@@std@@@2@@std@@IBEXXZ ENDP ; std::vector<std::basic_string<char,std::char_traits<char>,std::allocator<char> >,std::allocator<std::basic_string<char,std::char_traits<char>,std::allocator<char> > > >::_Xlen
_TEXT	ENDS
PUBLIC	??0?$allocator@V?$basic_string@DU?$char_traits@D@std@@V?$allocator@D@2@@std@@@std@@QAE@ABV01@@Z ; std::allocator<std::basic_string<char,std::char_traits<char>,std::allocator<char> > >::allocator<std::basic_string<char,std::char_traits<char>,std::allocator<char> > >
; Function compile flags: /Ogsp
; File c:\program files (x86)\microsoft visual studio 10.0\vc\include\xmemory
;	COMDAT ??0?$allocator@V?$basic_string@DU?$char_traits@D@std@@V?$allocator@D@2@@std@@@std@@QAE@ABV01@@Z
_TEXT	SEGMENT
___formal$ = 8						; size = 4
??0?$allocator@V?$basic_string@DU?$char_traits@D@std@@V?$allocator@D@2@@std@@@std@@QAE@ABV01@@Z PROC ; std::allocator<std::basic_string<char,std::char_traits<char>,std::allocator<char> > >::allocator<std::basic_string<char,std::char_traits<char>,std::allocator<char> > >, COMDAT
; _this$ = ecx

; 165  : 	_ALLOCATOR(const _ALLOCATOR<_Ty>&) _THROW0()

  00000	8b c1		 mov	 eax, ecx

; 166  : 		{	// construct by copying (do nothing)
; 167  : 		}

  00002	c2 04 00	 ret	 4
??0?$allocator@V?$basic_string@DU?$char_traits@D@std@@V?$allocator@D@2@@std@@@std@@QAE@ABV01@@Z ENDP ; std::allocator<std::basic_string<char,std::char_traits<char>,std::allocator<char> > >::allocator<std::basic_string<char,std::char_traits<char>,std::allocator<char> > >
_TEXT	ENDS
PUBLIC	?capacity@?$vector@UStringTick@TutorialWnd@@V?$allocator@UStringTick@TutorialWnd@@@std@@@std@@QBEIXZ ; std::vector<TutorialWnd::StringTick,std::allocator<TutorialWnd::StringTick> >::capacity
; Function compile flags: /Ogsp
; File c:\program files (x86)\microsoft visual studio 10.0\vc\include\vector
;	COMDAT ?capacity@?$vector@UStringTick@TutorialWnd@@V?$allocator@UStringTick@TutorialWnd@@@std@@@std@@QBEIXZ
_TEXT	SEGMENT
?capacity@?$vector@UStringTick@TutorialWnd@@V?$allocator@UStringTick@TutorialWnd@@@std@@@std@@QBEIXZ PROC ; std::vector<TutorialWnd::StringTick,std::allocator<TutorialWnd::StringTick> >::capacity, COMDAT
; _this$ = ecx

; 777  : 		return (this->_Myend - this->_Myfirst);

  00000	8b 41 08	 mov	 eax, DWORD PTR [ecx+8]
  00003	2b 01		 sub	 eax, DWORD PTR [ecx]
  00005	b9 04 01 00 00	 mov	 ecx, 260		; 00000104H
  0000a	99		 cdq
  0000b	f7 f9		 idiv	 ecx

; 778  : 		}

  0000d	c3		 ret	 0
?capacity@?$vector@UStringTick@TutorialWnd@@V?$allocator@UStringTick@TutorialWnd@@@std@@@std@@QBEIXZ ENDP ; std::vector<TutorialWnd::StringTick,std::allocator<TutorialWnd::StringTick> >::capacity
_TEXT	ENDS
PUBLIC	?_Xlen@?$vector@UStringTick@TutorialWnd@@V?$allocator@UStringTick@TutorialWnd@@@std@@@std@@IBEXXZ ; std::vector<TutorialWnd::StringTick,std::allocator<TutorialWnd::StringTick> >::_Xlen
; Function compile flags: /Ogsp
;	COMDAT ?_Xlen@?$vector@UStringTick@TutorialWnd@@V?$allocator@UStringTick@TutorialWnd@@@std@@@std@@IBEXXZ
_TEXT	SEGMENT
?_Xlen@?$vector@UStringTick@TutorialWnd@@V?$allocator@UStringTick@TutorialWnd@@@std@@@std@@IBEXXZ PROC ; std::vector<TutorialWnd::StringTick,std::allocator<TutorialWnd::StringTick> >::_Xlen, COMDAT
; _this$ = ecx

; 1427 : 		_Xlength_error("vector<T> too long");

  00000	68 00 00 00 00	 push	 OFFSET ??_C@_0BD@OLBABOEK@vector?$DMT?$DO?5too?5long?$AA@
  00005	ff 15 00 00 00
	00		 call	 DWORD PTR __imp_?_Xlength_error@std@@YAXPBD@Z
$LN4@Xlen@2:
$LN3@Xlen@2:
  0000b	cc		 int	 3
?_Xlen@?$vector@UStringTick@TutorialWnd@@V?$allocator@UStringTick@TutorialWnd@@@std@@@std@@IBEXXZ ENDP ; std::vector<TutorialWnd::StringTick,std::allocator<TutorialWnd::StringTick> >::_Xlen
_TEXT	ENDS
PUBLIC	??0?$allocator@UStringTick@TutorialWnd@@@std@@QAE@ABV01@@Z ; std::allocator<TutorialWnd::StringTick>::allocator<TutorialWnd::StringTick>
; Function compile flags: /Ogsp
; File c:\program files (x86)\microsoft visual studio 10.0\vc\include\xmemory
;	COMDAT ??0?$allocator@UStringTick@TutorialWnd@@@std@@QAE@ABV01@@Z
_TEXT	SEGMENT
___formal$ = 8						; size = 4
??0?$allocator@UStringTick@TutorialWnd@@@std@@QAE@ABV01@@Z PROC ; std::allocator<TutorialWnd::StringTick>::allocator<TutorialWnd::StringTick>, COMDAT
; _this$ = ecx

; 165  : 	_ALLOCATOR(const _ALLOCATOR<_Ty>&) _THROW0()

  00000	8b c1		 mov	 eax, ecx

; 166  : 		{	// construct by copying (do nothing)
; 167  : 		}

  00002	c2 04 00	 ret	 4
??0?$allocator@UStringTick@TutorialWnd@@@std@@QAE@ABV01@@Z ENDP ; std::allocator<TutorialWnd::StringTick>::allocator<TutorialWnd::StringTick>
_TEXT	ENDS
PUBLIC	?deallocate@?$allocator@UStringTick@TutorialWnd@@@std@@QAEXPAUStringTick@TutorialWnd@@I@Z ; std::allocator<TutorialWnd::StringTick>::deallocate
; Function compile flags: /Ogsp
;	COMDAT ?deallocate@?$allocator@UStringTick@TutorialWnd@@@std@@QAEXPAUStringTick@TutorialWnd@@I@Z
_TEXT	SEGMENT
__Ptr$ = 8						; size = 4
___formal$ = 12						; size = 4
?deallocate@?$allocator@UStringTick@TutorialWnd@@@std@@QAEXPAUStringTick@TutorialWnd@@I@Z PROC ; std::allocator<TutorialWnd::StringTick>::deallocate, COMDAT
; _this$ = ecx

; 181  : 		{	// deallocate object at _Ptr, ignore size

  00000	55		 push	 ebp
  00001	8b ec		 mov	 ebp, esp

; 182  : 		::operator delete(_Ptr);

  00003	ff 75 08	 push	 DWORD PTR __Ptr$[ebp]
  00006	e8 00 00 00 00	 call	 ??3@YAXPAX@Z		; operator delete
  0000b	59		 pop	 ecx

; 183  : 		}

  0000c	5d		 pop	 ebp
  0000d	c2 08 00	 ret	 8
?deallocate@?$allocator@UStringTick@TutorialWnd@@@std@@QAEXPAUStringTick@TutorialWnd@@I@Z ENDP ; std::allocator<TutorialWnd::StringTick>::deallocate
_TEXT	ENDS
PUBLIC	??0?$_Vector_const_iterator@V?$_Vector_val@PAVioUIRenderImage@@V?$allocator@PAVioUIRenderImage@@@std@@@std@@@std@@QAE@PAPAVioUIRenderImage@@PBU_Container_base0@1@@Z ; std::_Vector_const_iterator<std::_Vector_val<ioUIRenderImage *,std::allocator<ioUIRenderImage *> > >::_Vector_const_iterator<std::_Vector_val<ioUIRenderImage *,std::allocator<ioUIRenderImage *> > >
; Function compile flags: /Ogsp
; File c:\program files (x86)\microsoft visual studio 10.0\vc\include\vector
;	COMDAT ??0?$_Vector_const_iterator@V?$_Vector_val@PAVioUIRenderImage@@V?$allocator@PAVioUIRenderImage@@@std@@@std@@@std@@QAE@PAPAVioUIRenderImage@@PBU_Container_base0@1@@Z
_TEXT	SEGMENT
__Parg$ = 8						; size = 4
__Pvector$ = 12						; size = 4
??0?$_Vector_const_iterator@V?$_Vector_val@PAVioUIRenderImage@@V?$allocator@PAVioUIRenderImage@@@std@@@std@@@std@@QAE@PAPAVioUIRenderImage@@PBU_Container_base0@1@@Z PROC ; std::_Vector_const_iterator<std::_Vector_val<ioUIRenderImage *,std::allocator<ioUIRenderImage *> > >::_Vector_const_iterator<std::_Vector_val<ioUIRenderImage *,std::allocator<ioUIRenderImage *> > >, COMDAT
; _this$ = ecx

; 45   : 		{	// construct with pointer _Parg

  00000	55		 push	 ebp
  00001	8b ec		 mov	 ebp, esp
  00003	8b c1		 mov	 eax, ecx
  00005	8b 4d 08	 mov	 ecx, DWORD PTR __Parg$[ebp]
  00008	89 08		 mov	 DWORD PTR [eax], ecx

; 46   : 		this->_Adopt(_Pvector);
; 47   : 		}

  0000a	5d		 pop	 ebp
  0000b	c2 08 00	 ret	 8
??0?$_Vector_const_iterator@V?$_Vector_val@PAVioUIRenderImage@@V?$allocator@PAVioUIRenderImage@@@std@@@std@@@std@@QAE@PAPAVioUIRenderImage@@PBU_Container_base0@1@@Z ENDP ; std::_Vector_const_iterator<std::_Vector_val<ioUIRenderImage *,std::allocator<ioUIRenderImage *> > >::_Vector_const_iterator<std::_Vector_val<ioUIRenderImage *,std::allocator<ioUIRenderImage *> > >
_TEXT	ENDS
PUBLIC	?_Compat@?$_Vector_const_iterator@V?$_Vector_val@PAVioUIRenderImage@@V?$allocator@PAVioUIRenderImage@@@std@@@std@@@std@@QBEXABV12@@Z ; std::_Vector_const_iterator<std::_Vector_val<ioUIRenderImage *,std::allocator<ioUIRenderImage *> > >::_Compat
; Function compile flags: /Ogsp
;	COMDAT ?_Compat@?$_Vector_const_iterator@V?$_Vector_val@PAVioUIRenderImage@@V?$allocator@PAVioUIRenderImage@@@std@@@std@@@std@@QBEXABV12@@Z
_TEXT	SEGMENT
___formal$ = 8						; size = 4
?_Compat@?$_Vector_const_iterator@V?$_Vector_val@PAVioUIRenderImage@@V?$allocator@PAVioUIRenderImage@@@std@@@std@@@std@@QBEXABV12@@Z PROC ; std::_Vector_const_iterator<std::_Vector_val<ioUIRenderImage *,std::allocator<ioUIRenderImage *> > >::_Compat, COMDAT
; _this$ = ecx

; 253  : 		}

  00000	c2 04 00	 ret	 4
?_Compat@?$_Vector_const_iterator@V?$_Vector_val@PAVioUIRenderImage@@V?$allocator@PAVioUIRenderImage@@@std@@@std@@@std@@QBEXABV12@@Z ENDP ; std::_Vector_const_iterator<std::_Vector_val<ioUIRenderImage *,std::allocator<ioUIRenderImage *> > >::_Compat
_TEXT	ENDS
PUBLIC	?max_size@?$allocator@V?$basic_string@DU?$char_traits@D@std@@V?$allocator@D@2@@std@@@std@@QBEIXZ ; std::allocator<std::basic_string<char,std::char_traits<char>,std::allocator<char> > >::max_size
; Function compile flags: /Ogsp
; File c:\program files (x86)\microsoft visual studio 10.0\vc\include\xmemory
;	COMDAT ?max_size@?$allocator@V?$basic_string@DU?$char_traits@D@std@@V?$allocator@D@2@@std@@@std@@QBEIXZ
_TEXT	SEGMENT
?max_size@?$allocator@V?$basic_string@DU?$char_traits@D@std@@V?$allocator@D@2@@std@@@std@@QBEIXZ PROC ; std::allocator<std::basic_string<char,std::char_traits<char>,std::allocator<char> > >::max_size, COMDAT
; _this$ = ecx

; 218  : 		_SIZT _Count = (_SIZT)(-1) / sizeof (_Ty);
; 219  : 		return (0 < _Count ? _Count : 1);

  00000	b8 49 92 24 09	 mov	 eax, 153391689		; 09249249H

; 220  : 		}

  00005	c3		 ret	 0
?max_size@?$allocator@V?$basic_string@DU?$char_traits@D@std@@V?$allocator@D@2@@std@@@std@@QBEIXZ ENDP ; std::allocator<std::basic_string<char,std::char_traits<char>,std::allocator<char> > >::max_size
_TEXT	ENDS
PUBLIC	?max_size@?$allocator@UStringTick@TutorialWnd@@@std@@QBEIXZ ; std::allocator<TutorialWnd::StringTick>::max_size
; Function compile flags: /Ogsp
;	COMDAT ?max_size@?$allocator@UStringTick@TutorialWnd@@@std@@QBEIXZ
_TEXT	SEGMENT
?max_size@?$allocator@UStringTick@TutorialWnd@@@std@@QBEIXZ PROC ; std::allocator<TutorialWnd::StringTick>::max_size, COMDAT
; _this$ = ecx

; 218  : 		_SIZT _Count = (_SIZT)(-1) / sizeof (_Ty);
; 219  : 		return (0 < _Count ? _Count : 1);

  00000	b8 c0 0f fc 00	 mov	 eax, 16519104		; 00fc0fc0H

; 220  : 		}

  00005	c3		 ret	 0
?max_size@?$allocator@UStringTick@TutorialWnd@@@std@@QBEIXZ ENDP ; std::allocator<TutorialWnd::StringTick>::max_size
_TEXT	ENDS
PUBLIC	??0?$_Vector_const_iterator@V?$_Vector_val@V?$basic_string@DU?$char_traits@D@std@@V?$allocator@D@2@@std@@V?$allocator@V?$basic_string@DU?$char_traits@D@std@@V?$allocator@D@2@@std@@@2@@std@@@std@@QAE@PAV?$basic_string@DU?$char_traits@D@std@@V?$allocator@D@2@@1@PBU_Container_base0@1@@Z ; std::_Vector_const_iterator<std::_Vector_val<std::basic_string<char,std::char_traits<char>,std::allocator<char> >,std::allocator<std::basic_string<char,std::char_traits<char>,std::allocator<char> > > > >::_Vector_const_iterator<std::_Vector_val<std::basic_string<char,std::char_traits<char>,std::allocator<char> >,std::allocator<std::basic_string<char,std::char_traits<char>,std::allocator<char> > > > >
; Function compile flags: /Ogsp
; File c:\program files (x86)\microsoft visual studio 10.0\vc\include\vector
;	COMDAT ??0?$_Vector_const_iterator@V?$_Vector_val@V?$basic_string@DU?$char_traits@D@std@@V?$allocator@D@2@@std@@V?$allocator@V?$basic_string@DU?$char_traits@D@std@@V?$allocator@D@2@@std@@@2@@std@@@std@@QAE@PAV?$basic_string@DU?$char_traits@D@std@@V?$allocator@D@2@@1@PBU_Container_base0@1@@Z
_TEXT	SEGMENT
__Parg$ = 8						; size = 4
__Pvector$ = 12						; size = 4
??0?$_Vector_const_iterator@V?$_Vector_val@V?$basic_string@DU?$char_traits@D@std@@V?$allocator@D@2@@std@@V?$allocator@V?$basic_string@DU?$char_traits@D@std@@V?$allocator@D@2@@std@@@2@@std@@@std@@QAE@PAV?$basic_string@DU?$char_traits@D@std@@V?$allocator@D@2@@1@PBU_Container_base0@1@@Z PROC ; std::_Vector_const_iterator<std::_Vector_val<std::basic_string<char,std::char_traits<char>,std::allocator<char> >,std::allocator<std::basic_string<char,std::char_traits<char>,std::allocator<char> > > > >::_Vector_const_iterator<std::_Vector_val<std::basic_string<char,std::char_traits<char>,std::allocator<char> >,std::allocator<std::basic_string<char,std::char_traits<char>,std::allocator<char> > > > >, COMDAT
; _this$ = ecx

; 45   : 		{	// construct with pointer _Parg

  00000	55		 push	 ebp
  00001	8b ec		 mov	 ebp, esp
  00003	8b c1		 mov	 eax, ecx
  00005	8b 4d 08	 mov	 ecx, DWORD PTR __Parg$[ebp]
  00008	89 08		 mov	 DWORD PTR [eax], ecx

; 46   : 		this->_Adopt(_Pvector);
; 47   : 		}

  0000a	5d		 pop	 ebp
  0000b	c2 08 00	 ret	 8
??0?$_Vector_const_iterator@V?$_Vector_val@V?$basic_string@DU?$char_traits@D@std@@V?$allocator@D@2@@std@@V?$allocator@V?$basic_string@DU?$char_traits@D@std@@V?$allocator@D@2@@std@@@2@@std@@@std@@QAE@PAV?$basic_string@DU?$char_traits@D@std@@V?$allocator@D@2@@1@PBU_Container_base0@1@@Z ENDP ; std::_Vector_const_iterator<std::_Vector_val<std::basic_string<char,std::char_traits<char>,std::allocator<char> >,std::allocator<std::basic_string<char,std::char_traits<char>,std::allocator<char> > > > >::_Vector_const_iterator<std::_Vector_val<std::basic_string<char,std::char_traits<char>,std::allocator<char> >,std::allocator<std::basic_string<char,std::char_traits<char>,std::allocator<char> > > > >
_TEXT	ENDS
PUBLIC	??0?$_Vector_const_iterator@V?$_Vector_val@UStringTick@TutorialWnd@@V?$allocator@UStringTick@TutorialWnd@@@std@@@std@@@std@@QAE@PAUStringTick@TutorialWnd@@PBU_Container_base0@1@@Z ; std::_Vector_const_iterator<std::_Vector_val<TutorialWnd::StringTick,std::allocator<TutorialWnd::StringTick> > >::_Vector_const_iterator<std::_Vector_val<TutorialWnd::StringTick,std::allocator<TutorialWnd::StringTick> > >
; Function compile flags: /Ogsp
;	COMDAT ??0?$_Vector_const_iterator@V?$_Vector_val@UStringTick@TutorialWnd@@V?$allocator@UStringTick@TutorialWnd@@@std@@@std@@@std@@QAE@PAUStringTick@TutorialWnd@@PBU_Container_base0@1@@Z
_TEXT	SEGMENT
__Parg$ = 8						; size = 4
__Pvector$ = 12						; size = 4
??0?$_Vector_const_iterator@V?$_Vector_val@UStringTick@TutorialWnd@@V?$allocator@UStringTick@TutorialWnd@@@std@@@std@@@std@@QAE@PAUStringTick@TutorialWnd@@PBU_Container_base0@1@@Z PROC ; std::_Vector_const_iterator<std::_Vector_val<TutorialWnd::StringTick,std::allocator<TutorialWnd::StringTick> > >::_Vector_const_iterator<std::_Vector_val<TutorialWnd::StringTick,std::allocator<TutorialWnd::StringTick> > >, COMDAT
; _this$ = ecx

; 45   : 		{	// construct with pointer _Parg

  00000	55		 push	 ebp
  00001	8b ec		 mov	 ebp, esp
  00003	8b c1		 mov	 eax, ecx
  00005	8b 4d 08	 mov	 ecx, DWORD PTR __Parg$[ebp]
  00008	89 08		 mov	 DWORD PTR [eax], ecx

; 46   : 		this->_Adopt(_Pvector);
; 47   : 		}

  0000a	5d		 pop	 ebp
  0000b	c2 08 00	 ret	 8
??0?$_Vector_const_iterator@V?$_Vector_val@UStringTick@TutorialWnd@@V?$allocator@UStringTick@TutorialWnd@@@std@@@std@@@std@@QAE@PAUStringTick@TutorialWnd@@PBU_Container_base0@1@@Z ENDP ; std::_Vector_const_iterator<std::_Vector_val<TutorialWnd::StringTick,std::allocator<TutorialWnd::StringTick> > >::_Vector_const_iterator<std::_Vector_val<TutorialWnd::StringTick,std::allocator<TutorialWnd::StringTick> > >
_TEXT	ENDS
PUBLIC	?_Compat@?$_Vector_const_iterator@V?$_Vector_val@V?$basic_string@DU?$char_traits@D@std@@V?$allocator@D@2@@std@@V?$allocator@V?$basic_string@DU?$char_traits@D@std@@V?$allocator@D@2@@std@@@2@@std@@@std@@QBEXABV12@@Z ; std::_Vector_const_iterator<std::_Vector_val<std::basic_string<char,std::char_traits<char>,std::allocator<char> >,std::allocator<std::basic_string<char,std::char_traits<char>,std::allocator<char> > > > >::_Compat
; Function compile flags: /Ogsp
;	COMDAT ?_Compat@?$_Vector_const_iterator@V?$_Vector_val@V?$basic_string@DU?$char_traits@D@std@@V?$allocator@D@2@@std@@V?$allocator@V?$basic_string@DU?$char_traits@D@std@@V?$allocator@D@2@@std@@@2@@std@@@std@@QBEXABV12@@Z
_TEXT	SEGMENT
___formal$ = 8						; size = 4
?_Compat@?$_Vector_const_iterator@V?$_Vector_val@V?$basic_string@DU?$char_traits@D@std@@V?$allocator@D@2@@std@@V?$allocator@V?$basic_string@DU?$char_traits@D@std@@V?$allocator@D@2@@std@@@2@@std@@@std@@QBEXABV12@@Z PROC ; std::_Vector_const_iterator<std::_Vector_val<std::basic_string<char,std::char_traits<char>,std::allocator<char> >,std::allocator<std::basic_string<char,std::char_traits<char>,std::allocator<char> > > > >::_Compat, COMDAT
; _this$ = ecx

; 253  : 		}

  00000	c2 04 00	 ret	 4
?_Compat@?$_Vector_const_iterator@V?$_Vector_val@V?$basic_string@DU?$char_traits@D@std@@V?$allocator@D@2@@std@@V?$allocator@V?$basic_string@DU?$char_traits@D@std@@V?$allocator@D@2@@std@@@2@@std@@@std@@QBEXABV12@@Z ENDP ; std::_Vector_const_iterator<std::_Vector_val<std::basic_string<char,std::char_traits<char>,std::allocator<char> >,std::allocator<std::basic_string<char,std::char_traits<char>,std::allocator<char> > > > >::_Compat
_TEXT	ENDS
PUBLIC	?_Compat@?$_Vector_const_iterator@V?$_Vector_val@UStringTick@TutorialWnd@@V?$allocator@UStringTick@TutorialWnd@@@std@@@std@@@std@@QBEXABV12@@Z ; std::_Vector_const_iterator<std::_Vector_val<TutorialWnd::StringTick,std::allocator<TutorialWnd::StringTick> > >::_Compat
; Function compile flags: /Ogsp
;	COMDAT ?_Compat@?$_Vector_const_iterator@V?$_Vector_val@UStringTick@TutorialWnd@@V?$allocator@UStringTick@TutorialWnd@@@std@@@std@@@std@@QBEXABV12@@Z
_TEXT	SEGMENT
___formal$ = 8						; size = 4
?_Compat@?$_Vector_const_iterator@V?$_Vector_val@UStringTick@TutorialWnd@@V?$allocator@UStringTick@TutorialWnd@@@std@@@std@@@std@@QBEXABV12@@Z PROC ; std::_Vector_const_iterator<std::_Vector_val<TutorialWnd::StringTick,std::allocator<TutorialWnd::StringTick> > >::_Compat, COMDAT
; _this$ = ecx

; 253  : 		}

  00000	c2 04 00	 ret	 4
?_Compat@?$_Vector_const_iterator@V?$_Vector_val@UStringTick@TutorialWnd@@V?$allocator@UStringTick@TutorialWnd@@@std@@@std@@@std@@QBEXABV12@@Z ENDP ; std::_Vector_const_iterator<std::_Vector_val<TutorialWnd::StringTick,std::allocator<TutorialWnd::StringTick> > >::_Compat
_TEXT	ENDS
PUBLIC	??$addressof@$$CBUStringTick@TutorialWnd@@@std@@YAPBUStringTick@TutorialWnd@@ABU12@@Z ; std::addressof<TutorialWnd::StringTick const >
; Function compile flags: /Ogsp
; File c:\program files (x86)\microsoft visual studio 10.0\vc\include\xmemory
;	COMDAT ??$addressof@$$CBUStringTick@TutorialWnd@@@std@@YAPBUStringTick@TutorialWnd@@ABU12@@Z
_TEXT	SEGMENT
__Val$ = 8						; size = 4
??$addressof@$$CBUStringTick@TutorialWnd@@@std@@YAPBUStringTick@TutorialWnd@@ABU12@@Z PROC ; std::addressof<TutorialWnd::StringTick const >, COMDAT

; 110  : 	{	// return address of _Val

  00000	55		 push	 ebp
  00001	8b ec		 mov	 ebp, esp

; 111  : 	return ((_Ty *) &(char&)_Val);

  00003	8b 45 08	 mov	 eax, DWORD PTR __Val$[ebp]

; 112  : 	}

  00006	5d		 pop	 ebp
  00007	c3		 ret	 0
??$addressof@$$CBUStringTick@TutorialWnd@@@std@@YAPBUStringTick@TutorialWnd@@ABU12@@Z ENDP ; std::addressof<TutorialWnd::StringTick const >
_TEXT	ENDS
PUBLIC	__TI2?AVbad_alloc@std@@
PUBLIC	??$_Allocate@V?$basic_string@DU?$char_traits@D@std@@V?$allocator@D@2@@std@@@std@@YAPAV?$basic_string@DU?$char_traits@D@std@@V?$allocator@D@2@@0@IPAV10@@Z ; std::_Allocate<std::basic_string<char,std::char_traits<char>,std::allocator<char> > >
PUBLIC	__CTA2?AVbad_alloc@std@@
PUBLIC	__CT??_R0?AVbad_alloc@std@@@8??0bad_alloc@std@@QAE@ABV01@@Z12
PUBLIC	??0bad_alloc@std@@QAE@ABV01@@Z			; std::bad_alloc::bad_alloc
PUBLIC	__CT??_R0?AVexception@std@@@8??0exception@std@@QAE@ABV01@@Z12
EXTRN	??2@YAPAXI@Z:PROC				; operator new
EXTRN	__CxxThrowException@8:PROC
EXTRN	??0exception@std@@QAE@ABV01@@Z:PROC		; std::exception::exception
;	COMDAT __CT??_R0?AVexception@std@@@8??0exception@std@@QAE@ABV01@@Z12
; File c:\program files (x86)\microsoft visual studio 10.0\vc\include\exception
xdata$x	SEGMENT
__CT??_R0?AVexception@std@@@8??0exception@std@@QAE@ABV01@@Z12 DD 00H
	DD	FLAT:??_R0?AVexception@std@@@8
	DD	00H
	DD	0ffffffffH
	ORG $+4
	DD	0cH
	DD	FLAT:??0exception@std@@QAE@ABV01@@Z
xdata$x	ENDS
;	COMDAT __CT??_R0?AVbad_alloc@std@@@8??0bad_alloc@std@@QAE@ABV01@@Z12
xdata$x	SEGMENT
__CT??_R0?AVbad_alloc@std@@@8??0bad_alloc@std@@QAE@ABV01@@Z12 DD 00H
	DD	FLAT:??_R0?AVbad_alloc@std@@@8
	DD	00H
	DD	0ffffffffH
	ORG $+4
	DD	0cH
	DD	FLAT:??0bad_alloc@std@@QAE@ABV01@@Z
xdata$x	ENDS
;	COMDAT __CTA2?AVbad_alloc@std@@
xdata$x	SEGMENT
__CTA2?AVbad_alloc@std@@ DD 02H
	DD	FLAT:__CT??_R0?AVbad_alloc@std@@@8??0bad_alloc@std@@QAE@ABV01@@Z12
	DD	FLAT:__CT??_R0?AVexception@std@@@8??0exception@std@@QAE@ABV01@@Z12
xdata$x	ENDS
;	COMDAT __TI2?AVbad_alloc@std@@
xdata$x	SEGMENT
__TI2?AVbad_alloc@std@@ DD 00H
	DD	FLAT:??1bad_alloc@std@@UAE@XZ
	DD	00H
	DD	FLAT:__CTA2?AVbad_alloc@std@@
; Function compile flags: /Ogsp
; File c:\program files (x86)\microsoft visual studio 10.0\vc\include\xmemory
xdata$x	ENDS
;	COMDAT ??$_Allocate@V?$basic_string@DU?$char_traits@D@std@@V?$allocator@D@2@@std@@@std@@YAPAV?$basic_string@DU?$char_traits@D@std@@V?$allocator@D@2@@0@IPAV10@@Z
_TEXT	SEGMENT
$T521795 = -12						; size = 12
$T521800 = 8						; size = 4
__Count$ = 8						; size = 4
___formal$ = 12						; size = 4
??$_Allocate@V?$basic_string@DU?$char_traits@D@std@@V?$allocator@D@2@@std@@@std@@YAPAV?$basic_string@DU?$char_traits@D@std@@V?$allocator@D@2@@0@IPAV10@@Z PROC ; std::_Allocate<std::basic_string<char,std::char_traits<char>,std::allocator<char> > >, COMDAT

; 30   : 	{	// allocate storage for _Count elements of type _Ty

  00000	55		 push	 ebp
  00001	8b ec		 mov	 ebp, esp

; 31   : 	void *_Ptr = 0;
; 32   : 
; 33   : 	if (_Count <= 0)

  00003	8b 4d 08	 mov	 ecx, DWORD PTR __Count$[ebp]
  00006	83 ec 0c	 sub	 esp, 12			; 0000000cH
  00009	33 c0		 xor	 eax, eax
  0000b	85 c9		 test	 ecx, ecx

; 34   : 		_Count = 0;
; 35   : 	else if (((_SIZT)(-1) / sizeof (_Ty) < _Count)

  0000d	74 3c		 je	 SHORT $LN5@Allocate

; 36   : 		|| (_Ptr = ::operator new(_Count * sizeof (_Ty))) == 0)

  0000f	81 f9 49 92 24
	09		 cmp	 ecx, 153391689		; 09249249H
  00015	77 0e		 ja	 SHORT $LN1@Allocate
  00017	6b c9 1c	 imul	 ecx, 28			; 0000001cH
  0001a	51		 push	 ecx
  0001b	e8 00 00 00 00	 call	 ??2@YAPAXI@Z		; operator new
  00020	59		 pop	 ecx
  00021	85 c0		 test	 eax, eax

; 38   : 
; 39   : 	return ((_Ty _FARQ *)_Ptr);

  00023	75 26		 jne	 SHORT $LN5@Allocate
$LN1@Allocate:

; 37   : 		_THROW_NCEE(bad_alloc, 0);

  00025	83 65 08 00	 and	 DWORD PTR $T521800[ebp], 0
  00029	8d 45 08	 lea	 eax, DWORD PTR $T521800[ebp]
  0002c	50		 push	 eax
  0002d	8d 4d f4	 lea	 ecx, DWORD PTR $T521795[ebp]
  00030	ff 15 00 00 00
	00		 call	 DWORD PTR __imp_??0exception@std@@QAE@ABQBD@Z
  00036	68 00 00 00 00	 push	 OFFSET __TI2?AVbad_alloc@std@@
  0003b	8d 45 f4	 lea	 eax, DWORD PTR $T521795[ebp]
  0003e	50		 push	 eax
  0003f	c7 45 f4 00 00
	00 00		 mov	 DWORD PTR $T521795[ebp], OFFSET ??_7bad_alloc@std@@6B@
  00046	e8 00 00 00 00	 call	 __CxxThrowException@8
$LN10@Allocate:
$LN5@Allocate:

; 40   : 	}

  0004b	c9		 leave
  0004c	c3		 ret	 0
$LN9@Allocate:
??$_Allocate@V?$basic_string@DU?$char_traits@D@std@@V?$allocator@D@2@@std@@@std@@YAPAV?$basic_string@DU?$char_traits@D@std@@V?$allocator@D@2@@0@IPAV10@@Z ENDP ; std::_Allocate<std::basic_string<char,std::char_traits<char>,std::allocator<char> > >
_TEXT	ENDS
PUBLIC	??$_Allocate@UStringTick@TutorialWnd@@@std@@YAPAUStringTick@TutorialWnd@@IPAU12@@Z ; std::_Allocate<TutorialWnd::StringTick>
; Function compile flags: /Ogsp
;	COMDAT ??$_Allocate@UStringTick@TutorialWnd@@@std@@YAPAUStringTick@TutorialWnd@@IPAU12@@Z
_TEXT	SEGMENT
$T521805 = -12						; size = 12
$T521809 = 8						; size = 4
__Count$ = 8						; size = 4
___formal$ = 12						; size = 4
??$_Allocate@UStringTick@TutorialWnd@@@std@@YAPAUStringTick@TutorialWnd@@IPAU12@@Z PROC ; std::_Allocate<TutorialWnd::StringTick>, COMDAT

; 30   : 	{	// allocate storage for _Count elements of type _Ty

  00000	55		 push	 ebp
  00001	8b ec		 mov	 ebp, esp

; 31   : 	void *_Ptr = 0;
; 32   : 
; 33   : 	if (_Count <= 0)

  00003	8b 4d 08	 mov	 ecx, DWORD PTR __Count$[ebp]
  00006	83 ec 0c	 sub	 esp, 12			; 0000000cH
  00009	33 c0		 xor	 eax, eax
  0000b	85 c9		 test	 ecx, ecx

; 34   : 		_Count = 0;
; 35   : 	else if (((_SIZT)(-1) / sizeof (_Ty) < _Count)

  0000d	74 3f		 je	 SHORT $LN5@Allocate@2

; 36   : 		|| (_Ptr = ::operator new(_Count * sizeof (_Ty))) == 0)

  0000f	81 f9 c0 0f fc
	00		 cmp	 ecx, 16519104		; 00fc0fc0H
  00015	77 11		 ja	 SHORT $LN1@Allocate@2
  00017	69 c9 04 01 00
	00		 imul	 ecx, 260		; 00000104H
  0001d	51		 push	 ecx
  0001e	e8 00 00 00 00	 call	 ??2@YAPAXI@Z		; operator new
  00023	59		 pop	 ecx
  00024	85 c0		 test	 eax, eax

; 38   : 
; 39   : 	return ((_Ty _FARQ *)_Ptr);

  00026	75 26		 jne	 SHORT $LN5@Allocate@2
$LN1@Allocate@2:

; 37   : 		_THROW_NCEE(bad_alloc, 0);

  00028	83 65 08 00	 and	 DWORD PTR $T521809[ebp], 0
  0002c	8d 45 08	 lea	 eax, DWORD PTR $T521809[ebp]
  0002f	50		 push	 eax
  00030	8d 4d f4	 lea	 ecx, DWORD PTR $T521805[ebp]
  00033	ff 15 00 00 00
	00		 call	 DWORD PTR __imp_??0exception@std@@QAE@ABQBD@Z
  00039	68 00 00 00 00	 push	 OFFSET __TI2?AVbad_alloc@std@@
  0003e	8d 45 f4	 lea	 eax, DWORD PTR $T521805[ebp]
  00041	50		 push	 eax
  00042	c7 45 f4 00 00
	00 00		 mov	 DWORD PTR $T521805[ebp], OFFSET ??_7bad_alloc@std@@6B@
  00049	e8 00 00 00 00	 call	 __CxxThrowException@8
$LN10@Allocate@2:
$LN5@Allocate@2:

; 40   : 	}

  0004e	c9		 leave
  0004f	c3		 ret	 0
$LN9@Allocate@2:
??$_Allocate@UStringTick@TutorialWnd@@@std@@YAPAUStringTick@TutorialWnd@@IPAU12@@Z ENDP ; std::_Allocate<TutorialWnd::StringTick>
_TEXT	ENDS
PUBLIC	??$forward@AAUStringTick@TutorialWnd@@@std@@YAAAUStringTick@TutorialWnd@@AAU12@@Z ; std::forward<TutorialWnd::StringTick &>
; Function compile flags: /Ogsp
; File c:\program files (x86)\microsoft visual studio 10.0\vc\include\utility
;	COMDAT ??$forward@AAUStringTick@TutorialWnd@@@std@@YAAAUStringTick@TutorialWnd@@AAU12@@Z
_TEXT	SEGMENT
__Arg$ = 8						; size = 4
??$forward@AAUStringTick@TutorialWnd@@@std@@YAAAUStringTick@TutorialWnd@@AAU12@@Z PROC ; std::forward<TutorialWnd::StringTick &>, COMDAT

; 78   : 	{	// forward _Arg, given explicitly specified type parameter

  00000	55		 push	 ebp
  00001	8b ec		 mov	 ebp, esp

; 79   : 	return ((_Ty&&)_Arg);

  00003	8b 45 08	 mov	 eax, DWORD PTR __Arg$[ebp]

; 80   : 	}

  00006	5d		 pop	 ebp
  00007	c3		 ret	 0
??$forward@AAUStringTick@TutorialWnd@@@std@@YAAAUStringTick@TutorialWnd@@AAU12@@Z ENDP ; std::forward<TutorialWnd::StringTick &>
_TEXT	ENDS
PUBLIC	??$construct@AAUStringTick@TutorialWnd@@@?$allocator@UStringTick@TutorialWnd@@@std@@QAEXPAUStringTick@TutorialWnd@@AAU23@@Z ; std::allocator<TutorialWnd::StringTick>::construct<TutorialWnd::StringTick &>
; Function compile flags: /Ogsp
; File c:\program files (x86)\microsoft visual studio 10.0\vc\include\xmemory
;	COMDAT ??$construct@AAUStringTick@TutorialWnd@@@?$allocator@UStringTick@TutorialWnd@@@std@@QAEXPAUStringTick@TutorialWnd@@AAU23@@Z
_TEXT	SEGMENT
__Ptr$ = 8						; size = 4
__Val$ = 12						; size = 4
??$construct@AAUStringTick@TutorialWnd@@@?$allocator@UStringTick@TutorialWnd@@@std@@QAEXPAUStringTick@TutorialWnd@@AAU23@@Z PROC ; std::allocator<TutorialWnd::StringTick>::construct<TutorialWnd::StringTick &>, COMDAT
; _this$ = ecx

; 206  : 		void construct(pointer _Ptr, _Other&& _Val)

  00000	55		 push	 ebp
  00001	8b ec		 mov	 ebp, esp
  00003	57		 push	 edi

; 207  : 		{	// construct object at _Ptr with value _Val
; 208  : 		::new ((void _FARQ *)_Ptr) _Ty(_STD forward<_Other>(_Val));

  00004	8b 7d 08	 mov	 edi, DWORD PTR __Ptr$[ebp]
  00007	85 ff		 test	 edi, edi
  00009	74 0a		 je	 SHORT $LN3@construct
  0000b	56		 push	 esi
  0000c	8b 75 0c	 mov	 esi, DWORD PTR __Val$[ebp]
  0000f	6a 41		 push	 65			; 00000041H
  00011	59		 pop	 ecx
  00012	f3 a5		 rep movsd
  00014	5e		 pop	 esi
$LN3@construct:
  00015	5f		 pop	 edi

; 209  : 		}

  00016	5d		 pop	 ebp
  00017	c2 08 00	 ret	 8
??$construct@AAUStringTick@TutorialWnd@@@?$allocator@UStringTick@TutorialWnd@@@std@@QAEXPAUStringTick@TutorialWnd@@AAU23@@Z ENDP ; std::allocator<TutorialWnd::StringTick>::construct<TutorialWnd::StringTick &>
_TEXT	ENDS
PUBLIC	??$forward@ABUStringTick@TutorialWnd@@@std@@YAABUStringTick@TutorialWnd@@ABU12@@Z ; std::forward<TutorialWnd::StringTick const &>
; Function compile flags: /Ogsp
; File c:\program files (x86)\microsoft visual studio 10.0\vc\include\utility
;	COMDAT ??$forward@ABUStringTick@TutorialWnd@@@std@@YAABUStringTick@TutorialWnd@@ABU12@@Z
_TEXT	SEGMENT
__Arg$ = 8						; size = 4
??$forward@ABUStringTick@TutorialWnd@@@std@@YAABUStringTick@TutorialWnd@@ABU12@@Z PROC ; std::forward<TutorialWnd::StringTick const &>, COMDAT

; 78   : 	{	// forward _Arg, given explicitly specified type parameter

  00000	55		 push	 ebp
  00001	8b ec		 mov	 ebp, esp

; 79   : 	return ((_Ty&&)_Arg);

  00003	8b 45 08	 mov	 eax, DWORD PTR __Arg$[ebp]

; 80   : 	}

  00006	5d		 pop	 ebp
  00007	c3		 ret	 0
??$forward@ABUStringTick@TutorialWnd@@@std@@YAABUStringTick@TutorialWnd@@ABU12@@Z ENDP ; std::forward<TutorialWnd::StringTick const &>
_TEXT	ENDS
PUBLIC	??$_Ptr_cat@UStringTick@TutorialWnd@@U12@@std@@YA?AU_Nonscalar_ptr_iterator_tag@0@PAUStringTick@TutorialWnd@@0@Z ; std::_Ptr_cat<TutorialWnd::StringTick,TutorialWnd::StringTick>
; Function compile flags: /Ogsp
; File c:\program files (x86)\microsoft visual studio 10.0\vc\include\xutility
;	COMDAT ??$_Ptr_cat@UStringTick@TutorialWnd@@U12@@std@@YA?AU_Nonscalar_ptr_iterator_tag@0@PAUStringTick@TutorialWnd@@0@Z
_TEXT	SEGMENT
__Cat$ = -1						; size = 1
___formal$ = 8						; size = 4
___formal$ = 12						; size = 4
??$_Ptr_cat@UStringTick@TutorialWnd@@U12@@std@@YA?AU_Nonscalar_ptr_iterator_tag@0@PAUStringTick@TutorialWnd@@0@Z PROC ; std::_Ptr_cat<TutorialWnd::StringTick,TutorialWnd::StringTick>, COMDAT

; 516  : 	{	// return pointer category from pointers

  00000	55		 push	 ebp
  00001	8b ec		 mov	 ebp, esp
  00003	51		 push	 ecx

; 517  : 	typename _Ptr_cat_helper<_Elem1, _Elem2>::_Type _Cat;
; 518  : 	return (_Cat);

  00004	8a 45 ff	 mov	 al, BYTE PTR __Cat$[ebp]

; 519  : 	}

  00007	c9		 leave
  00008	c3		 ret	 0
??$_Ptr_cat@UStringTick@TutorialWnd@@U12@@std@@YA?AU_Nonscalar_ptr_iterator_tag@0@PAUStringTick@TutorialWnd@@0@Z ENDP ; std::_Ptr_cat<TutorialWnd::StringTick,TutorialWnd::StringTick>
_TEXT	ENDS
PUBLIC	??$_Construct@UStringTick@TutorialWnd@@ABU12@@std@@YAXPAUStringTick@TutorialWnd@@ABU12@@Z ; std::_Construct<TutorialWnd::StringTick,TutorialWnd::StringTick const &>
; Function compile flags: /Ogsp
; File c:\program files (x86)\microsoft visual studio 10.0\vc\include\xmemory
;	COMDAT ??$_Construct@UStringTick@TutorialWnd@@ABU12@@std@@YAXPAUStringTick@TutorialWnd@@ABU12@@Z
_TEXT	SEGMENT
__Ptr$ = 8						; size = 4
__Val$ = 12						; size = 4
??$_Construct@UStringTick@TutorialWnd@@ABU12@@std@@YAXPAUStringTick@TutorialWnd@@ABU12@@Z PROC ; std::_Construct<TutorialWnd::StringTick,TutorialWnd::StringTick const &>, COMDAT

; 46   : 	{	// construct object at _Ptr with value _Val

  00000	55		 push	 ebp
  00001	8b ec		 mov	 ebp, esp
  00003	57		 push	 edi

; 47   : 	void _FARQ *_Vptr = _Ptr;
; 48   : 	::new (_Vptr) _Ty1(_STD forward<_Ty2>(_Val));

  00004	8b 7d 08	 mov	 edi, DWORD PTR __Ptr$[ebp]
  00007	85 ff		 test	 edi, edi
  00009	74 0a		 je	 SHORT $LN3@Construct
  0000b	56		 push	 esi
  0000c	8b 75 0c	 mov	 esi, DWORD PTR __Val$[ebp]
  0000f	6a 41		 push	 65			; 00000041H
  00011	59		 pop	 ecx
  00012	f3 a5		 rep movsd
  00014	5e		 pop	 esi
$LN3@Construct:
  00015	5f		 pop	 edi

; 49   : 	}

  00016	5d		 pop	 ebp
  00017	c3		 ret	 0
??$_Construct@UStringTick@TutorialWnd@@ABU12@@std@@YAXPAUStringTick@TutorialWnd@@ABU12@@Z ENDP ; std::_Construct<TutorialWnd::StringTick,TutorialWnd::StringTick const &>
_TEXT	ENDS
PUBLIC	??$move@AAUStringTick@TutorialWnd@@@std@@YA$$QAUStringTick@TutorialWnd@@AAU12@@Z ; std::move<TutorialWnd::StringTick &>
; Function compile flags: /Ogsp
; File c:\program files (x86)\microsoft visual studio 10.0\vc\include\utility
;	COMDAT ??$move@AAUStringTick@TutorialWnd@@@std@@YA$$QAUStringTick@TutorialWnd@@AAU12@@Z
_TEXT	SEGMENT
__Arg$ = 8						; size = 4
??$move@AAUStringTick@TutorialWnd@@@std@@YA$$QAUStringTick@TutorialWnd@@AAU12@@Z PROC ; std::move<TutorialWnd::StringTick &>, COMDAT

; 86   : 	{	// forward _Arg as movable

  00000	55		 push	 ebp
  00001	8b ec		 mov	 ebp, esp

; 87   : 	return ((typename tr1::_Remove_reference<_Ty>::_Type&&)_Arg);

  00003	8b 45 08	 mov	 eax, DWORD PTR __Arg$[ebp]

; 88   : 	}

  00006	5d		 pop	 ebp
  00007	c3		 ret	 0
??$move@AAUStringTick@TutorialWnd@@@std@@YA$$QAUStringTick@TutorialWnd@@AAU12@@Z ENDP ; std::move<TutorialWnd::StringTick &>
_TEXT	ENDS
PUBLIC	??$_Val_type@PAUStringTick@TutorialWnd@@@std@@YAPAUStringTick@TutorialWnd@@PAU12@@Z ; std::_Val_type<TutorialWnd::StringTick *>
; Function compile flags: /Ogsp
; File c:\program files (x86)\microsoft visual studio 10.0\vc\include\xutility
;	COMDAT ??$_Val_type@PAUStringTick@TutorialWnd@@@std@@YAPAUStringTick@TutorialWnd@@PAU12@@Z
_TEXT	SEGMENT
___formal$ = 8						; size = 4
??$_Val_type@PAUStringTick@TutorialWnd@@@std@@YAPAUStringTick@TutorialWnd@@PAU12@@Z PROC ; std::_Val_type<TutorialWnd::StringTick *>, COMDAT

; 790  : 	return (0);

  00000	33 c0		 xor	 eax, eax

; 791  : 	}

  00002	c3		 ret	 0
??$_Val_type@PAUStringTick@TutorialWnd@@@std@@YAPAUStringTick@TutorialWnd@@PAU12@@Z ENDP ; std::_Val_type<TutorialWnd::StringTick *>
_TEXT	ENDS
PUBLIC	??$_Destroy@UStringTick@TutorialWnd@@@std@@YAXPAUStringTick@TutorialWnd@@@Z ; std::_Destroy<TutorialWnd::StringTick>
; Function compile flags: /Ogsp
; File c:\program files (x86)\microsoft visual studio 10.0\vc\include\xmemory
;	COMDAT ??$_Destroy@UStringTick@TutorialWnd@@@std@@YAXPAUStringTick@TutorialWnd@@@Z
_TEXT	SEGMENT
__Ptr$ = 8						; size = 4
??$_Destroy@UStringTick@TutorialWnd@@@std@@YAXPAUStringTick@TutorialWnd@@@Z PROC ; std::_Destroy<TutorialWnd::StringTick>, COMDAT

; 63   : 	_Ptr->~_Ty();
; 64   : 	}

  00000	c3		 ret	 0
??$_Destroy@UStringTick@TutorialWnd@@@std@@YAXPAUStringTick@TutorialWnd@@@Z ENDP ; std::_Destroy<TutorialWnd::StringTick>
_TEXT	ENDS
PUBLIC	??$forward@AAV?$basic_string@DU?$char_traits@D@std@@V?$allocator@D@2@@std@@@std@@YAAAV?$basic_string@DU?$char_traits@D@std@@V?$allocator@D@2@@0@AAV10@@Z ; std::forward<std::basic_string<char,std::char_traits<char>,std::allocator<char> > &>
; Function compile flags: /Ogsp
; File c:\program files (x86)\microsoft visual studio 10.0\vc\include\utility
;	COMDAT ??$forward@AAV?$basic_string@DU?$char_traits@D@std@@V?$allocator@D@2@@std@@@std@@YAAAV?$basic_string@DU?$char_traits@D@std@@V?$allocator@D@2@@0@AAV10@@Z
_TEXT	SEGMENT
__Arg$ = 8						; size = 4
??$forward@AAV?$basic_string@DU?$char_traits@D@std@@V?$allocator@D@2@@std@@@std@@YAAAV?$basic_string@DU?$char_traits@D@std@@V?$allocator@D@2@@0@AAV10@@Z PROC ; std::forward<std::basic_string<char,std::char_traits<char>,std::allocator<char> > &>, COMDAT

; 78   : 	{	// forward _Arg, given explicitly specified type parameter

  00000	55		 push	 ebp
  00001	8b ec		 mov	 ebp, esp

; 79   : 	return ((_Ty&&)_Arg);

  00003	8b 45 08	 mov	 eax, DWORD PTR __Arg$[ebp]

; 80   : 	}

  00006	5d		 pop	 ebp
  00007	c3		 ret	 0
??$forward@AAV?$basic_string@DU?$char_traits@D@std@@V?$allocator@D@2@@std@@@std@@YAAAV?$basic_string@DU?$char_traits@D@std@@V?$allocator@D@2@@0@AAV10@@Z ENDP ; std::forward<std::basic_string<char,std::char_traits<char>,std::allocator<char> > &>
_TEXT	ENDS
PUBLIC	??$forward@UStringTick@TutorialWnd@@@std@@YA$$QAUStringTick@TutorialWnd@@AAU12@@Z ; std::forward<TutorialWnd::StringTick>
; Function compile flags: /Ogsp
;	COMDAT ??$forward@UStringTick@TutorialWnd@@@std@@YA$$QAUStringTick@TutorialWnd@@AAU12@@Z
_TEXT	SEGMENT
__Arg$ = 8						; size = 4
??$forward@UStringTick@TutorialWnd@@@std@@YA$$QAUStringTick@TutorialWnd@@AAU12@@Z PROC ; std::forward<TutorialWnd::StringTick>, COMDAT

; 78   : 	{	// forward _Arg, given explicitly specified type parameter

  00000	55		 push	 ebp
  00001	8b ec		 mov	 ebp, esp

; 79   : 	return ((_Ty&&)_Arg);

  00003	8b 45 08	 mov	 eax, DWORD PTR __Arg$[ebp]

; 80   : 	}

  00006	5d		 pop	 ebp
  00007	c3		 ret	 0
??$forward@UStringTick@TutorialWnd@@@std@@YA$$QAUStringTick@TutorialWnd@@AAU12@@Z ENDP ; std::forward<TutorialWnd::StringTick>
_TEXT	ENDS
PUBLIC	?_DECSTR@@YAXPADH@Z				; _DECSTR
; Function compile flags: /Ogsp
; File d:\lost saga for developer\youtube\tutorial\source\src\lsclient\stringprotect.h
;	COMDAT ?_DECSTR@@YAXPADH@Z
_TEXT	SEGMENT
_s$ = 8							; size = 4
_l$ = 12						; size = 4
?_DECSTR@@YAXPADH@Z PROC				; _DECSTR, COMDAT

; 40   : __forceinline void _DECSTR(char* s, int l){int i=0,l4=(l-1)/4,*p=(int*)s;s[l-1]=0;for(;i<l4;++i)*(p++)^=0xEAEBECED;for(i=l4*4;i<l-1;++i)s[i]^=0xED-i%4;}

  00000	55		 push	 ebp
  00001	8b ec		 mov	 ebp, esp
  00003	8b 4d 0c	 mov	 ecx, DWORD PTR _l$[ebp]
  00006	56		 push	 esi
  00007	8b 75 08	 mov	 esi, DWORD PTR _s$[ebp]
  0000a	57		 push	 edi
  0000b	8d 79 ff	 lea	 edi, DWORD PTR [ecx-1]
  0000e	8b c7		 mov	 eax, edi
  00010	99		 cdq
  00011	83 e2 03	 and	 edx, 3
  00014	03 c2		 add	 eax, edx
  00016	c1 f8 02	 sar	 eax, 2
  00019	8b d6		 mov	 edx, esi
  0001b	c6 44 0e ff 00	 mov	 BYTE PTR [esi+ecx-1], 0
  00020	85 c0		 test	 eax, eax
  00022	7e 0e		 jle	 SHORT $LN4@DECSTR
  00024	8b c8		 mov	 ecx, eax
$LL6@DECSTR:
  00026	81 32 ed ec eb
	ea		 xor	 DWORD PTR [edx], -353637139 ; eaebecedH
  0002c	83 c2 04	 add	 edx, 4
  0002f	49		 dec	 ecx
  00030	75 f4		 jne	 SHORT $LL6@DECSTR
$LN4@DECSTR:
  00032	c1 e0 02	 shl	 eax, 2
  00035	eb 17		 jmp	 SHORT $LN14@DECSTR
$LL3@DECSTR:
  00037	8b c8		 mov	 ecx, eax
  00039	81 e1 03 00 00
	80		 and	 ecx, -2147483645	; 80000003H
  0003f	79 05		 jns	 SHORT $LN13@DECSTR
  00041	49		 dec	 ecx
  00042	83 c9 fc	 or	 ecx, -4			; fffffffcH
  00045	41		 inc	 ecx
$LN13@DECSTR:
  00046	b2 ed		 mov	 dl, -19			; ffffffedH
  00048	2a d1		 sub	 dl, cl
  0004a	30 14 30	 xor	 BYTE PTR [eax+esi], dl
  0004d	40		 inc	 eax
$LN14@DECSTR:
  0004e	3b c7		 cmp	 eax, edi
  00050	7c e5		 jl	 SHORT $LL3@DECSTR
  00052	5f		 pop	 edi
  00053	5e		 pop	 esi
  00054	5d		 pop	 ebp
  00055	c3		 ret	 0
?_DECSTR@@YAXPADH@Z ENDP				; _DECSTR
_TEXT	ENDS
PUBLIC	?GetDefMaxPlayer@ioBattleRoomMgr@@QAEHXZ	; ioBattleRoomMgr::GetDefMaxPlayer
; Function compile flags: /Ogsp
; File d:\lost saga for developer\youtube\tutorial\source\src\lsclient\iobattleroommgr.h
;	COMDAT ?GetDefMaxPlayer@ioBattleRoomMgr@@QAEHXZ
_TEXT	SEGMENT
?GetDefMaxPlayer@ioBattleRoomMgr@@QAEHXZ PROC		; ioBattleRoomMgr::GetDefMaxPlayer, COMDAT
; _this$ = ecx

; 388  : 	int GetDefMaxPlayer(){ return m_iDefaultMaxPlayer; }

  00000	8b 81 68 02 00
	00		 mov	 eax, DWORD PTR [ecx+616]
  00006	c3		 ret	 0
?GetDefMaxPlayer@ioBattleRoomMgr@@QAEHXZ ENDP		; ioBattleRoomMgr::GetDefMaxPlayer
_TEXT	ENDS
PUBLIC	?IsSkipUIByBlind@ioSP2GUIManager@@QBE_NXZ	; ioSP2GUIManager::IsSkipUIByBlind
; Function compile flags: /Ogsp
; File d:\lost saga for developer\youtube\tutorial\source\src\lsclient\gui\iosp2guimanager.h
;	COMDAT ?IsSkipUIByBlind@ioSP2GUIManager@@QBE_NXZ
_TEXT	SEGMENT
?IsSkipUIByBlind@ioSP2GUIManager@@QBE_NXZ PROC		; ioSP2GUIManager::IsSkipUIByBlind, COMDAT
; _this$ = ecx

; 236  : 	inline bool IsSkipUIByBlind() const { return m_bSkipUIByBlind; }	

  00000	8a 81 e0 04 00
	00		 mov	 al, BYTE PTR [ecx+1248]
  00006	c3		 ret	 0
?IsSkipUIByBlind@ioSP2GUIManager@@QBE_NXZ ENDP		; ioSP2GUIManager::IsSkipUIByBlind
_TEXT	ENDS
PUBLIC	?size@?$basic_string@DU?$char_traits@D@std@@V?$allocator@D@2@@std@@QBEIXZ ; std::basic_string<char,std::char_traits<char>,std::allocator<char> >::size
; Function compile flags: /Ogsp
; File c:\program files (x86)\microsoft visual studio 10.0\vc\include\xstring
;	COMDAT ?size@?$basic_string@DU?$char_traits@D@std@@V?$allocator@D@2@@std@@QBEIXZ
_TEXT	SEGMENT
?size@?$basic_string@DU?$char_traits@D@std@@V?$allocator@D@2@@std@@QBEIXZ PROC ; std::basic_string<char,std::char_traits<char>,std::allocator<char> >::size, COMDAT
; _this$ = ecx

; 1512 : 		return (this->_Mysize);

  00000	8b 41 10	 mov	 eax, DWORD PTR [ecx+16]

; 1513 : 		}

  00003	c3		 ret	 0
?size@?$basic_string@DU?$char_traits@D@std@@V?$allocator@D@2@@std@@QBEIXZ ENDP ; std::basic_string<char,std::char_traits<char>,std::allocator<char> >::size
_TEXT	ENDS
PUBLIC	?_Myptr@?$basic_string@DU?$char_traits@D@std@@V?$allocator@D@2@@std@@QBEPBDXZ ; std::basic_string<char,std::char_traits<char>,std::allocator<char> >::_Myptr
; Function compile flags: /Ogsp
;	COMDAT ?_Myptr@?$basic_string@DU?$char_traits@D@std@@V?$allocator@D@2@@std@@QBEPBDXZ
_TEXT	SEGMENT
?_Myptr@?$basic_string@DU?$char_traits@D@std@@V?$allocator@D@2@@std@@QBEPBDXZ PROC ; std::basic_string<char,std::char_traits<char>,std::allocator<char> >::_Myptr, COMDAT
; _this$ = ecx

; 2010 : 		return (this->_BUF_SIZE <= this->_Myres ? this->_Bx._Ptr
; 2011 : 			: this->_Bx._Buf);

  00000	83 79 14 10	 cmp	 DWORD PTR [ecx+20], 16	; 00000010H
  00004	72 03		 jb	 SHORT $LN3@Myptr
  00006	8b 01		 mov	 eax, DWORD PTR [ecx]

; 2012 : 		}

  00008	c3		 ret	 0
$LN3@Myptr:

; 2010 : 		return (this->_BUF_SIZE <= this->_Myres ? this->_Bx._Ptr
; 2011 : 			: this->_Bx._Buf);

  00009	8b c1		 mov	 eax, ecx

; 2012 : 		}

  0000b	c3		 ret	 0
?_Myptr@?$basic_string@DU?$char_traits@D@std@@V?$allocator@D@2@@std@@QBEPBDXZ ENDP ; std::basic_string<char,std::char_traits<char>,std::allocator<char> >::_Myptr
_TEXT	ENDS
PUBLIC	??1?$_String_val@DV?$allocator@D@std@@@std@@QAE@XZ ; std::_String_val<char,std::allocator<char> >::~_String_val<char,std::allocator<char> >
; Function compile flags: /Ogsp
;	COMDAT ??1?$_String_val@DV?$allocator@D@std@@@std@@QAE@XZ
_TEXT	SEGMENT
??1?$_String_val@DV?$allocator@D@std@@@std@@QAE@XZ PROC	; std::_String_val<char,std::allocator<char> >::~_String_val<char,std::allocator<char> >, COMDAT
; _this$ = ecx

; 459  : 		}

  00000	c3		 ret	 0
??1?$_String_val@DV?$allocator@D@std@@@std@@QAE@XZ ENDP	; std::_String_val<char,std::allocator<char> >::~_String_val<char,std::allocator<char> >
_TEXT	ENDS
PUBLIC	??0?$allocator@D@std@@QAE@XZ			; std::allocator<char>::allocator<char>
; Function compile flags: /Ogsp
; File c:\program files (x86)\microsoft visual studio 10.0\vc\include\xmemory
;	COMDAT ??0?$allocator@D@std@@QAE@XZ
_TEXT	SEGMENT
??0?$allocator@D@std@@QAE@XZ PROC			; std::allocator<char>::allocator<char>, COMDAT
; _this$ = ecx

; 161  : 	_ALLOCATOR() _THROW0()

  00000	8b c1		 mov	 eax, ecx

; 162  : 		{	// construct default allocator (do nothing)
; 163  : 		}

  00002	c3		 ret	 0
??0?$allocator@D@std@@QAE@XZ ENDP			; std::allocator<char>::allocator<char>
_TEXT	ENDS
PUBLIC	??0?$allocator@D@std@@QAE@ABV01@@Z		; std::allocator<char>::allocator<char>
; Function compile flags: /Ogsp
;	COMDAT ??0?$allocator@D@std@@QAE@ABV01@@Z
_TEXT	SEGMENT
___formal$ = 8						; size = 4
??0?$allocator@D@std@@QAE@ABV01@@Z PROC			; std::allocator<char>::allocator<char>, COMDAT
; _this$ = ecx

; 165  : 	_ALLOCATOR(const _ALLOCATOR<_Ty>&) _THROW0()

  00000	8b c1		 mov	 eax, ecx

; 166  : 		{	// construct by copying (do nothing)
; 167  : 		}

  00002	c2 04 00	 ret	 4
??0?$allocator@D@std@@QAE@ABV01@@Z ENDP			; std::allocator<char>::allocator<char>
_TEXT	ENDS
PUBLIC	?get_allocator@?$basic_string@DU?$char_traits@D@std@@V?$allocator@D@2@@std@@QBE?AV?$allocator@D@2@XZ ; std::basic_string<char,std::char_traits<char>,std::allocator<char> >::get_allocator
; Function compile flags: /Ogsp
; File c:\program files (x86)\microsoft visual studio 10.0\vc\include\xstring
;	COMDAT ?get_allocator@?$basic_string@DU?$char_traits@D@std@@V?$allocator@D@2@@std@@QBE?AV?$allocator@D@2@XZ
_TEXT	SEGMENT
___$ReturnUdt$ = 8					; size = 4
?get_allocator@?$basic_string@DU?$char_traits@D@std@@V?$allocator@D@2@@std@@QBE?AV?$allocator@D@2@XZ PROC ; std::basic_string<char,std::char_traits<char>,std::allocator<char> >::get_allocator, COMDAT
; _this$ = ecx

; 1906 : 		{	// return allocator object for values

  00000	55		 push	 ebp
  00001	8b ec		 mov	 ebp, esp

; 1907 : 		return (this->_Alval);

  00003	8b 45 08	 mov	 eax, DWORD PTR ___$ReturnUdt$[ebp]

; 1908 : 		}

  00006	5d		 pop	 ebp
  00007	c2 04 00	 ret	 4
?get_allocator@?$basic_string@DU?$char_traits@D@std@@V?$allocator@D@2@@std@@QBE?AV?$allocator@D@2@XZ ENDP ; std::basic_string<char,std::char_traits<char>,std::allocator<char> >::get_allocator
_TEXT	ENDS
PUBLIC	?_Myptr@?$basic_string@DU?$char_traits@D@std@@V?$allocator@D@2@@std@@QAEPADXZ ; std::basic_string<char,std::char_traits<char>,std::allocator<char> >::_Myptr
; Function compile flags: /Ogsp
;	COMDAT ?_Myptr@?$basic_string@DU?$char_traits@D@std@@V?$allocator@D@2@@std@@QAEPADXZ
_TEXT	SEGMENT
?_Myptr@?$basic_string@DU?$char_traits@D@std@@V?$allocator@D@2@@std@@QAEPADXZ PROC ; std::basic_string<char,std::char_traits<char>,std::allocator<char> >::_Myptr, COMDAT
; _this$ = ecx

; 2004 : 		return (this->_BUF_SIZE <= this->_Myres ? this->_Bx._Ptr
; 2005 : 			: this->_Bx._Buf);

  00000	83 79 14 10	 cmp	 DWORD PTR [ecx+20], 16	; 00000010H
  00004	72 03		 jb	 SHORT $LN3@Myptr@2
  00006	8b 01		 mov	 eax, DWORD PTR [ecx]

; 2006 : 		}

  00008	c3		 ret	 0
$LN3@Myptr@2:

; 2004 : 		return (this->_BUF_SIZE <= this->_Myres ? this->_Bx._Ptr
; 2005 : 			: this->_Bx._Buf);

  00009	8b c1		 mov	 eax, ecx

; 2006 : 		}

  0000b	c3		 ret	 0
?_Myptr@?$basic_string@DU?$char_traits@D@std@@V?$allocator@D@2@@std@@QAEPADXZ ENDP ; std::basic_string<char,std::char_traits<char>,std::allocator<char> >::_Myptr
_TEXT	ENDS
PUBLIC	??_C@_0BA@JFNIOLAK@string?5too?5long?$AA@	; `string'
PUBLIC	?_Xlen@?$basic_string@DU?$char_traits@D@std@@V?$allocator@D@2@@std@@QBEXXZ ; std::basic_string<char,std::char_traits<char>,std::allocator<char> >::_Xlen
;	COMDAT ??_C@_0BA@JFNIOLAK@string?5too?5long?$AA@
CONST	SEGMENT
??_C@_0BA@JFNIOLAK@string?5too?5long?$AA@ DB 'string too long', 00H ; `string'
; Function compile flags: /Ogsp
CONST	ENDS
;	COMDAT ?_Xlen@?$basic_string@DU?$char_traits@D@std@@V?$allocator@D@2@@std@@QBEXXZ
_TEXT	SEGMENT
?_Xlen@?$basic_string@DU?$char_traits@D@std@@V?$allocator@D@2@@std@@QBEXXZ PROC ; std::basic_string<char,std::char_traits<char>,std::allocator<char> >::_Xlen, COMDAT
; _this$ = ecx

; 2016 : 		_Xlength_error("string too long");

  00000	68 00 00 00 00	 push	 OFFSET ??_C@_0BA@JFNIOLAK@string?5too?5long?$AA@
  00005	ff 15 00 00 00
	00		 call	 DWORD PTR __imp_?_Xlength_error@std@@YAXPBD@Z
$LN4@Xlen@3:
$LN3@Xlen@3:
  0000b	cc		 int	 3
?_Xlen@?$basic_string@DU?$char_traits@D@std@@V?$allocator@D@2@@std@@QBEXXZ ENDP ; std::basic_string<char,std::char_traits<char>,std::allocator<char> >::_Xlen
_TEXT	ENDS
PUBLIC	??_C@_0BI@CFPLBAOH@invalid?5string?5position?$AA@ ; `string'
PUBLIC	?_Xran@?$basic_string@DU?$char_traits@D@std@@V?$allocator@D@2@@std@@QBEXXZ ; std::basic_string<char,std::char_traits<char>,std::allocator<char> >::_Xran
EXTRN	__imp_?_Xout_of_range@std@@YAXPBD@Z:PROC
;	COMDAT ??_C@_0BI@CFPLBAOH@invalid?5string?5position?$AA@
CONST	SEGMENT
??_C@_0BI@CFPLBAOH@invalid?5string?5position?$AA@ DB 'invalid string posi'
	DB	'tion', 00H					; `string'
; Function compile flags: /Ogsp
CONST	ENDS
;	COMDAT ?_Xran@?$basic_string@DU?$char_traits@D@std@@V?$allocator@D@2@@std@@QBEXXZ
_TEXT	SEGMENT
?_Xran@?$basic_string@DU?$char_traits@D@std@@V?$allocator@D@2@@std@@QBEXXZ PROC ; std::basic_string<char,std::char_traits<char>,std::allocator<char> >::_Xran, COMDAT
; _this$ = ecx

; 2021 : 		_Xout_of_range("invalid string position");

  00000	68 00 00 00 00	 push	 OFFSET ??_C@_0BI@CFPLBAOH@invalid?5string?5position?$AA@
  00005	ff 15 00 00 00
	00		 call	 DWORD PTR __imp_?_Xout_of_range@std@@YAXPBD@Z
$LN4@Xran:
$LN3@Xran:
  0000b	cc		 int	 3
?_Xran@?$basic_string@DU?$char_traits@D@std@@V?$allocator@D@2@@std@@QBEXXZ ENDP ; std::basic_string<char,std::char_traits<char>,std::allocator<char> >::_Xran
_TEXT	ENDS
PUBLIC	?deallocate@?$allocator@D@std@@QAEXPADI@Z	; std::allocator<char>::deallocate
; Function compile flags: /Ogsp
; File c:\program files (x86)\microsoft visual studio 10.0\vc\include\xmemory
;	COMDAT ?deallocate@?$allocator@D@std@@QAEXPADI@Z
_TEXT	SEGMENT
__Ptr$ = 8						; size = 4
___formal$ = 12						; size = 4
?deallocate@?$allocator@D@std@@QAEXPADI@Z PROC		; std::allocator<char>::deallocate, COMDAT
; _this$ = ecx

; 181  : 		{	// deallocate object at _Ptr, ignore size

  00000	55		 push	 ebp
  00001	8b ec		 mov	 ebp, esp

; 182  : 		::operator delete(_Ptr);

  00003	ff 75 08	 push	 DWORD PTR __Ptr$[ebp]
  00006	e8 00 00 00 00	 call	 ??3@YAXPAX@Z		; operator delete
  0000b	59		 pop	 ecx

; 183  : 		}

  0000c	5d		 pop	 ebp
  0000d	c2 08 00	 ret	 8
?deallocate@?$allocator@D@std@@QAEXPADI@Z ENDP		; std::allocator<char>::deallocate
_TEXT	ENDS
PUBLIC	?_Inside@?$basic_string@DU?$char_traits@D@std@@V?$allocator@D@2@@std@@QAE_NPBD@Z ; std::basic_string<char,std::char_traits<char>,std::allocator<char> >::_Inside
; Function compile flags: /Ogsp
; File c:\program files (x86)\microsoft visual studio 10.0\vc\include\xstring
;	COMDAT ?_Inside@?$basic_string@DU?$char_traits@D@std@@V?$allocator@D@2@@std@@QAE_NPBD@Z
_TEXT	SEGMENT
__Ptr$ = 8						; size = 4
?_Inside@?$basic_string@DU?$char_traits@D@std@@V?$allocator@D@2@@std@@QAE_NPBD@Z PROC ; std::basic_string<char,std::char_traits<char>,std::allocator<char> >::_Inside, COMDAT
; _this$ = ecx

; 1973 : 		{	// test if _Ptr points inside string

  00000	55		 push	 ebp
  00001	8b ec		 mov	 ebp, esp

; 1974 : 		if (_Ptr == 0 || _Ptr < _Myptr() || _Myptr() + this->_Mysize <= _Ptr)

  00003	83 7d 08 00	 cmp	 DWORD PTR __Ptr$[ebp], 0
  00007	74 2c		 je	 SHORT $LN2@Inside@2
  00009	8b 51 14	 mov	 edx, DWORD PTR [ecx+20]
  0000c	83 fa 10	 cmp	 edx, 16			; 00000010H
  0000f	72 04		 jb	 SHORT $LN8@Inside@2
  00011	8b 01		 mov	 eax, DWORD PTR [ecx]
  00013	eb 02		 jmp	 SHORT $LN9@Inside@2
$LN8@Inside@2:
  00015	8b c1		 mov	 eax, ecx
$LN9@Inside@2:
  00017	39 45 08	 cmp	 DWORD PTR __Ptr$[ebp], eax
  0001a	72 19		 jb	 SHORT $LN2@Inside@2
  0001c	83 fa 10	 cmp	 edx, 16			; 00000010H
  0001f	72 04		 jb	 SHORT $LN12@Inside@2
  00021	8b 01		 mov	 eax, DWORD PTR [ecx]
  00023	eb 02		 jmp	 SHORT $LN13@Inside@2
$LN12@Inside@2:
  00025	8b c1		 mov	 eax, ecx
$LN13@Inside@2:
  00027	8b 49 10	 mov	 ecx, DWORD PTR [ecx+16]
  0002a	03 c8		 add	 ecx, eax
  0002c	3b 4d 08	 cmp	 ecx, DWORD PTR __Ptr$[ebp]
  0002f	76 04		 jbe	 SHORT $LN2@Inside@2

; 1976 : 		else
; 1977 : 			return (true);

  00031	b0 01		 mov	 al, 1
  00033	eb 02		 jmp	 SHORT $LN1@Inside@2
$LN2@Inside@2:

; 1975 : 			return (false);	// don't ask

  00035	32 c0		 xor	 al, al
$LN1@Inside@2:

; 1978 : 		}

  00037	5d		 pop	 ebp
  00038	c2 04 00	 ret	 4
?_Inside@?$basic_string@DU?$char_traits@D@std@@V?$allocator@D@2@@std@@QAE_NPBD@Z ENDP ; std::basic_string<char,std::char_traits<char>,std::allocator<char> >::_Inside
_TEXT	ENDS
PUBLIC	?max_size@?$allocator@D@std@@QBEIXZ		; std::allocator<char>::max_size
; Function compile flags: /Ogsp
; File c:\program files (x86)\microsoft visual studio 10.0\vc\include\xmemory
;	COMDAT ?max_size@?$allocator@D@std@@QBEIXZ
_TEXT	SEGMENT
?max_size@?$allocator@D@std@@QBEIXZ PROC		; std::allocator<char>::max_size, COMDAT
; _this$ = ecx

; 218  : 		_SIZT _Count = (_SIZT)(-1) / sizeof (_Ty);
; 219  : 		return (0 < _Count ? _Count : 1);

  00000	83 c8 ff	 or	 eax, -1

; 220  : 		}

  00003	c3		 ret	 0
?max_size@?$allocator@D@std@@QBEIXZ ENDP		; std::allocator<char>::max_size
_TEXT	ENDS
PUBLIC	??$forward@V?$basic_string@DU?$char_traits@D@std@@V?$allocator@D@2@@std@@@std@@YA$$QAV?$basic_string@DU?$char_traits@D@std@@V?$allocator@D@2@@0@AAV10@@Z ; std::forward<std::basic_string<char,std::char_traits<char>,std::allocator<char> > >
; Function compile flags: /Ogsp
; File c:\program files (x86)\microsoft visual studio 10.0\vc\include\utility
;	COMDAT ??$forward@V?$basic_string@DU?$char_traits@D@std@@V?$allocator@D@2@@std@@@std@@YA$$QAV?$basic_string@DU?$char_traits@D@std@@V?$allocator@D@2@@0@AAV10@@Z
_TEXT	SEGMENT
__Arg$ = 8						; size = 4
??$forward@V?$basic_string@DU?$char_traits@D@std@@V?$allocator@D@2@@std@@@std@@YA$$QAV?$basic_string@DU?$char_traits@D@std@@V?$allocator@D@2@@0@AAV10@@Z PROC ; std::forward<std::basic_string<char,std::char_traits<char>,std::allocator<char> > >, COMDAT

; 78   : 	{	// forward _Arg, given explicitly specified type parameter

  00000	55		 push	 ebp
  00001	8b ec		 mov	 ebp, esp

; 79   : 	return ((_Ty&&)_Arg);

  00003	8b 45 08	 mov	 eax, DWORD PTR __Arg$[ebp]

; 80   : 	}

  00006	5d		 pop	 ebp
  00007	c3		 ret	 0
??$forward@V?$basic_string@DU?$char_traits@D@std@@V?$allocator@D@2@@std@@@std@@YA$$QAV?$basic_string@DU?$char_traits@D@std@@V?$allocator@D@2@@0@AAV10@@Z ENDP ; std::forward<std::basic_string<char,std::char_traits<char>,std::allocator<char> > >
_TEXT	ENDS
PUBLIC	??$_Allocate@D@std@@YAPADIPAD@Z			; std::_Allocate<char>
; Function compile flags: /Ogsp
; File c:\program files (x86)\microsoft visual studio 10.0\vc\include\xmemory
;	COMDAT ??$_Allocate@D@std@@YAPADIPAD@Z
_TEXT	SEGMENT
$T521934 = -12						; size = 12
$T521938 = 8						; size = 4
__Count$ = 8						; size = 4
___formal$ = 12						; size = 4
??$_Allocate@D@std@@YAPADIPAD@Z PROC			; std::_Allocate<char>, COMDAT

; 30   : 	{	// allocate storage for _Count elements of type _Ty

  00000	55		 push	 ebp
  00001	8b ec		 mov	 ebp, esp

; 31   : 	void *_Ptr = 0;

  00003	33 c0		 xor	 eax, eax
  00005	83 ec 0c	 sub	 esp, 12			; 0000000cH

; 32   : 
; 33   : 	if (_Count <= 0)

  00008	39 45 08	 cmp	 DWORD PTR __Count$[ebp], eax

; 34   : 		_Count = 0;
; 35   : 	else if (((_SIZT)(-1) / sizeof (_Ty) < _Count)

  0000b	76 39		 jbe	 SHORT $LN5@Allocate@3

; 36   : 		|| (_Ptr = ::operator new(_Count * sizeof (_Ty))) == 0)

  0000d	83 7d 08 ff	 cmp	 DWORD PTR __Count$[ebp], -1
  00011	77 0d		 ja	 SHORT $LN1@Allocate@3
  00013	ff 75 08	 push	 DWORD PTR __Count$[ebp]
  00016	e8 00 00 00 00	 call	 ??2@YAPAXI@Z		; operator new
  0001b	59		 pop	 ecx
  0001c	85 c0		 test	 eax, eax

; 38   : 
; 39   : 	return ((_Ty _FARQ *)_Ptr);

  0001e	75 26		 jne	 SHORT $LN5@Allocate@3
$LN1@Allocate@3:

; 37   : 		_THROW_NCEE(bad_alloc, 0);

  00020	83 65 08 00	 and	 DWORD PTR $T521938[ebp], 0
  00024	8d 45 08	 lea	 eax, DWORD PTR $T521938[ebp]
  00027	50		 push	 eax
  00028	8d 4d f4	 lea	 ecx, DWORD PTR $T521934[ebp]
  0002b	ff 15 00 00 00
	00		 call	 DWORD PTR __imp_??0exception@std@@QAE@ABQBD@Z
  00031	68 00 00 00 00	 push	 OFFSET __TI2?AVbad_alloc@std@@
  00036	8d 45 f4	 lea	 eax, DWORD PTR $T521934[ebp]
  00039	50		 push	 eax
  0003a	c7 45 f4 00 00
	00 00		 mov	 DWORD PTR $T521934[ebp], OFFSET ??_7bad_alloc@std@@6B@
  00041	e8 00 00 00 00	 call	 __CxxThrowException@8
$LN10@Allocate@3:
$LN5@Allocate@3:

; 40   : 	}

  00046	c9		 leave
  00047	c3		 ret	 0
$LN9@Allocate@3:
??$_Allocate@D@std@@YAPADIPAD@Z ENDP			; std::_Allocate<char>
_TEXT	ENDS
EXTRN	__imp_??0exception@std@@QAE@ABV01@@Z:PROC
; Function compile flags: /Ogsp
;	COMDAT ??0bad_alloc@std@@QAE@ABV01@@Z
_TEXT	SEGMENT
___that$ = 8						; size = 4
??0bad_alloc@std@@QAE@ABV01@@Z PROC			; std::bad_alloc::bad_alloc, COMDAT
; _this$ = ecx
  00000	55		 push	 ebp
  00001	8b ec		 mov	 ebp, esp
  00003	56		 push	 esi
  00004	ff 75 08	 push	 DWORD PTR ___that$[ebp]
  00007	8b f1		 mov	 esi, ecx
  00009	ff 15 00 00 00
	00		 call	 DWORD PTR __imp_??0exception@std@@QAE@ABV01@@Z
  0000f	c7 06 00 00 00
	00		 mov	 DWORD PTR [esi], OFFSET ??_7bad_alloc@std@@6B@
  00015	8b c6		 mov	 eax, esi
  00017	5e		 pop	 esi
  00018	5d		 pop	 ebp
  00019	c2 04 00	 ret	 4
??0bad_alloc@std@@QAE@ABV01@@Z ENDP			; std::bad_alloc::bad_alloc
_TEXT	ENDS
PUBLIC	??$move@AAV?$basic_string@DU?$char_traits@D@std@@V?$allocator@D@2@@std@@@std@@YA$$QAV?$basic_string@DU?$char_traits@D@std@@V?$allocator@D@2@@0@AAV10@@Z ; std::move<std::basic_string<char,std::char_traits<char>,std::allocator<char> > &>
; Function compile flags: /Ogsp
; File c:\program files (x86)\microsoft visual studio 10.0\vc\include\utility
;	COMDAT ??$move@AAV?$basic_string@DU?$char_traits@D@std@@V?$allocator@D@2@@std@@@std@@YA$$QAV?$basic_string@DU?$char_traits@D@std@@V?$allocator@D@2@@0@AAV10@@Z
_TEXT	SEGMENT
__Arg$ = 8						; size = 4
??$move@AAV?$basic_string@DU?$char_traits@D@std@@V?$allocator@D@2@@std@@@std@@YA$$QAV?$basic_string@DU?$char_traits@D@std@@V?$allocator@D@2@@0@AAV10@@Z PROC ; std::move<std::basic_string<char,std::char_traits<char>,std::allocator<char> > &>, COMDAT

; 86   : 	{	// forward _Arg as movable

  00000	55		 push	 ebp
  00001	8b ec		 mov	 ebp, esp

; 87   : 	return ((typename tr1::_Remove_reference<_Ty>::_Type&&)_Arg);

  00003	8b 45 08	 mov	 eax, DWORD PTR __Arg$[ebp]

; 88   : 	}

  00006	5d		 pop	 ebp
  00007	c3		 ret	 0
??$move@AAV?$basic_string@DU?$char_traits@D@std@@V?$allocator@D@2@@std@@@std@@YA$$QAV?$basic_string@DU?$char_traits@D@std@@V?$allocator@D@2@@0@AAV10@@Z ENDP ; std::move<std::basic_string<char,std::char_traits<char>,std::allocator<char> > &>
_TEXT	ENDS
PUBLIC	??$?8DD@std@@YA_NABV?$allocator@D@0@0@Z		; std::operator==<char,char>
; Function compile flags: /Ogsp
; File c:\program files (x86)\microsoft visual studio 10.0\vc\include\xmemory
;	COMDAT ??$?8DD@std@@YA_NABV?$allocator@D@0@0@Z
_TEXT	SEGMENT
___formal$ = 8						; size = 4
___formal$ = 12						; size = 4
??$?8DD@std@@YA_NABV?$allocator@D@0@0@Z PROC		; std::operator==<char,char>, COMDAT

; 263  : 	return (true);

  00000	b0 01		 mov	 al, 1

; 264  : 	}

  00002	c3		 ret	 0
??$?8DD@std@@YA_NABV?$allocator@D@0@0@Z ENDP		; std::operator==<char,char>
_TEXT	ENDS
PUBLIC	??1?$_Vector_val@V?$basic_string@DU?$char_traits@D@std@@V?$allocator@D@2@@std@@V?$allocator@V?$basic_string@DU?$char_traits@D@std@@V?$allocator@D@2@@std@@@2@@std@@QAE@XZ ; std::_Vector_val<std::basic_string<char,std::char_traits<char>,std::allocator<char> >,std::allocator<std::basic_string<char,std::char_traits<char>,std::allocator<char> > > >::~_Vector_val<std::basic_string<char,std::char_traits<char>,std::allocator<char> >,std::allocator<std::basic_string<char,std::char_traits<char>,std::allocator<char> > > >
; Function compile flags: /Ogsp
; File c:\program files (x86)\microsoft visual studio 10.0\vc\include\vector
;	COMDAT ??1?$_Vector_val@V?$basic_string@DU?$char_traits@D@std@@V?$allocator@D@2@@std@@V?$allocator@V?$basic_string@DU?$char_traits@D@std@@V?$allocator@D@2@@std@@@2@@std@@QAE@XZ
_TEXT	SEGMENT
??1?$_Vector_val@V?$basic_string@DU?$char_traits@D@std@@V?$allocator@D@2@@std@@V?$allocator@V?$basic_string@DU?$char_traits@D@std@@V?$allocator@D@2@@std@@@2@@std@@QAE@XZ PROC ; std::_Vector_val<std::basic_string<char,std::char_traits<char>,std::allocator<char> >,std::allocator<std::basic_string<char,std::char_traits<char>,std::allocator<char> > > >::~_Vector_val<std::basic_string<char,std::char_traits<char>,std::allocator<char> >,std::allocator<std::basic_string<char,std::char_traits<char>,std::allocator<char> > > >, COMDAT
; _this$ = ecx

; 434  : 		}

  00000	c3		 ret	 0
??1?$_Vector_val@V?$basic_string@DU?$char_traits@D@std@@V?$allocator@D@2@@std@@V?$allocator@V?$basic_string@DU?$char_traits@D@std@@V?$allocator@D@2@@std@@@2@@std@@QAE@XZ ENDP ; std::_Vector_val<std::basic_string<char,std::char_traits<char>,std::allocator<char> >,std::allocator<std::basic_string<char,std::char_traits<char>,std::allocator<char> > > >::~_Vector_val<std::basic_string<char,std::char_traits<char>,std::allocator<char> >,std::allocator<std::basic_string<char,std::char_traits<char>,std::allocator<char> > > >
_TEXT	ENDS
PUBLIC	?deallocate@?$allocator@V?$basic_string@DU?$char_traits@D@std@@V?$allocator@D@2@@std@@@std@@QAEXPAV?$basic_string@DU?$char_traits@D@std@@V?$allocator@D@2@@2@I@Z ; std::allocator<std::basic_string<char,std::char_traits<char>,std::allocator<char> > >::deallocate
; Function compile flags: /Ogsp
; File c:\program files (x86)\microsoft visual studio 10.0\vc\include\xmemory
;	COMDAT ?deallocate@?$allocator@V?$basic_string@DU?$char_traits@D@std@@V?$allocator@D@2@@std@@@std@@QAEXPAV?$basic_string@DU?$char_traits@D@std@@V?$allocator@D@2@@2@I@Z
_TEXT	SEGMENT
__Ptr$ = 8						; size = 4
___formal$ = 12						; size = 4
?deallocate@?$allocator@V?$basic_string@DU?$char_traits@D@std@@V?$allocator@D@2@@std@@@std@@QAEXPAV?$basic_string@DU?$char_traits@D@std@@V?$allocator@D@2@@2@I@Z PROC ; std::allocator<std::basic_string<char,std::char_traits<char>,std::allocator<char> > >::deallocate, COMDAT
; _this$ = ecx

; 181  : 		{	// deallocate object at _Ptr, ignore size

  00000	55		 push	 ebp
  00001	8b ec		 mov	 ebp, esp

; 182  : 		::operator delete(_Ptr);

  00003	ff 75 08	 push	 DWORD PTR __Ptr$[ebp]
  00006	e8 00 00 00 00	 call	 ??3@YAXPAX@Z		; operator delete
  0000b	59		 pop	 ecx

; 183  : 		}

  0000c	5d		 pop	 ebp
  0000d	c2 08 00	 ret	 8
?deallocate@?$allocator@V?$basic_string@DU?$char_traits@D@std@@V?$allocator@D@2@@std@@@std@@QAEXPAV?$basic_string@DU?$char_traits@D@std@@V?$allocator@D@2@@2@I@Z ENDP ; std::allocator<std::basic_string<char,std::char_traits<char>,std::allocator<char> > >::deallocate
_TEXT	ENDS
PUBLIC	??$_Ptr_cat@V?$basic_string@DU?$char_traits@D@std@@V?$allocator@D@2@@std@@V12@@std@@YA?AU_Nonscalar_ptr_iterator_tag@0@PAV?$basic_string@DU?$char_traits@D@std@@V?$allocator@D@2@@0@0@Z ; std::_Ptr_cat<std::basic_string<char,std::char_traits<char>,std::allocator<char> >,std::basic_string<char,std::char_traits<char>,std::allocator<char> > >
; Function compile flags: /Ogsp
; File c:\program files (x86)\microsoft visual studio 10.0\vc\include\xutility
;	COMDAT ??$_Ptr_cat@V?$basic_string@DU?$char_traits@D@std@@V?$allocator@D@2@@std@@V12@@std@@YA?AU_Nonscalar_ptr_iterator_tag@0@PAV?$basic_string@DU?$char_traits@D@std@@V?$allocator@D@2@@0@0@Z
_TEXT	SEGMENT
__Cat$ = -1						; size = 1
___formal$ = 8						; size = 4
___formal$ = 12						; size = 4
??$_Ptr_cat@V?$basic_string@DU?$char_traits@D@std@@V?$allocator@D@2@@std@@V12@@std@@YA?AU_Nonscalar_ptr_iterator_tag@0@PAV?$basic_string@DU?$char_traits@D@std@@V?$allocator@D@2@@0@0@Z PROC ; std::_Ptr_cat<std::basic_string<char,std::char_traits<char>,std::allocator<char> >,std::basic_string<char,std::char_traits<char>,std::allocator<char> > >, COMDAT

; 516  : 	{	// return pointer category from pointers

  00000	55		 push	 ebp
  00001	8b ec		 mov	 ebp, esp
  00003	51		 push	 ecx

; 517  : 	typename _Ptr_cat_helper<_Elem1, _Elem2>::_Type _Cat;
; 518  : 	return (_Cat);

  00004	8a 45 ff	 mov	 al, BYTE PTR __Cat$[ebp]

; 519  : 	}

  00007	c9		 leave
  00008	c3		 ret	 0
??$_Ptr_cat@V?$basic_string@DU?$char_traits@D@std@@V?$allocator@D@2@@std@@V12@@std@@YA?AU_Nonscalar_ptr_iterator_tag@0@PAV?$basic_string@DU?$char_traits@D@std@@V?$allocator@D@2@@0@0@Z ENDP ; std::_Ptr_cat<std::basic_string<char,std::char_traits<char>,std::allocator<char> >,std::basic_string<char,std::char_traits<char>,std::allocator<char> > >
; Function compile flags: /Ogsp
_TEXT	ENDS
;	COMDAT ??_GTutorialBtn@@UAEPAXI@Z
_TEXT	SEGMENT
___flags$ = 8						; size = 4
??_GTutorialBtn@@UAEPAXI@Z PROC				; TutorialBtn::`scalar deleting destructor', COMDAT
; _this$ = ecx
  00000	55		 push	 ebp
  00001	8b ec		 mov	 ebp, esp
  00003	56		 push	 esi
  00004	8b f1		 mov	 esi, ecx
  00006	e8 00 00 00 00	 call	 ??1TutorialBtn@@UAE@XZ	; TutorialBtn::~TutorialBtn
  0000b	f6 45 08 01	 test	 BYTE PTR ___flags$[ebp], 1
  0000f	74 07		 je	 SHORT $LN1@scalar@2
  00011	56		 push	 esi
  00012	e8 00 00 00 00	 call	 ??3@YAXPAX@Z		; operator delete
  00017	59		 pop	 ecx
$LN1@scalar@2:
  00018	8b c6		 mov	 eax, esi
  0001a	5e		 pop	 esi
  0001b	5d		 pop	 ebp
  0001c	c2 04 00	 ret	 4
??_GTutorialBtn@@UAEPAXI@Z ENDP				; TutorialBtn::`scalar deleting destructor'
_TEXT	ENDS
PUBLIC	?ShowButtonID@TutorialWnd@@IAEXH@Z		; TutorialWnd::ShowButtonID
EXTRN	__imp_?ShowChildWnd@ioWnd@@QAEXK_N@Z:PROC
EXTRN	__imp_?HideChildWnd@ioWnd@@QAEXK_N@Z:PROC
; Function compile flags: /Ogsp
; File d:\lost saga for developer\youtube\tutorial\source\src\lsclient\gui\tutorialwnd.cpp
;	COMDAT ?ShowButtonID@TutorialWnd@@IAEXH@Z
_TEXT	SEGMENT
_iBtnID$ = 8						; size = 4
?ShowButtonID@TutorialWnd@@IAEXH@Z PROC			; TutorialWnd::ShowButtonID, COMDAT
; _this$ = ecx

; 148  : {

  00000	55		 push	 ebp
  00001	8b ec		 mov	 ebp, esp
  00003	53		 push	 ebx
  00004	56		 push	 esi
  00005	57		 push	 edi

; 149  : 	m_iShowBtnID = -1;
; 150  : 	HideChildWnd( ID_NEXT );

  00006	8b 3d 00 00 00
	00		 mov	 edi, DWORD PTR __imp_?HideChildWnd@ioWnd@@QAEXK_N@Z
  0000c	33 db		 xor	 ebx, ebx
  0000e	53		 push	 ebx
  0000f	8b f1		 mov	 esi, ecx
  00011	83 8e 7c 01 00
	00 ff		 or	 DWORD PTR [esi+380], -1
  00018	6a 03		 push	 3
  0001a	ff d7		 call	 edi

; 151  : 	HideChildWnd( ID_CLEAR );

  0001c	53		 push	 ebx
  0001d	6a 04		 push	 4
  0001f	8b ce		 mov	 ecx, esi
  00021	ff d7		 call	 edi

; 152  : 	HideChildWnd( ID_START );

  00023	53		 push	 ebx
  00024	6a 02		 push	 2
  00026	8b ce		 mov	 ecx, esi
  00028	ff d7		 call	 edi

; 153  : 	if( IsTextTick() )

  0002a	39 9e 70 01 00
	00		 cmp	 DWORD PTR [esi+368], ebx
  00030	74 0b		 je	 SHORT $LN3@ShowButton

; 154  : 		m_iShowBtnID = iBtnID;

  00032	8b 45 08	 mov	 eax, DWORD PTR _iBtnID$[ebp]
  00035	89 86 7c 01 00
	00		 mov	 DWORD PTR [esi+380], eax
  0003b	eb 26		 jmp	 SHORT $LN1@ShowButton
$LN3@ShowButton:

; 155  : 	else if( iBtnID != -1 )

  0003d	83 7d 08 ff	 cmp	 DWORD PTR _iBtnID$[ebp], -1
  00041	74 20		 je	 SHORT $LN1@ShowButton

; 156  : 	{
; 157  : 		ShowChildWnd( iBtnID );

  00043	53		 push	 ebx
  00044	ff 75 08	 push	 DWORD PTR _iBtnID$[ebp]
  00047	8b ce		 mov	 ecx, esi
  00049	ff 15 00 00 00
	00		 call	 DWORD PTR __imp_?ShowChildWnd@ioWnd@@QAEXK_N@Z

; 158  : 		m_dwCurAutoNextTime    = FRAMEGETTIME();

  0004f	ff 15 00 00 00
	00		 call	 DWORD PTR __imp_?GetSingleton@ioFrameTimer@@SAAAV1@XZ
  00055	8b c8		 mov	 ecx, eax
  00057	ff 15 00 00 00
	00		 call	 DWORD PTR __imp_?GetLoopSec@ioFrameTimer@@QBEKXZ
  0005d	89 86 9c 01 00
	00		 mov	 DWORD PTR [esi+412], eax
$LN1@ShowButton:
  00063	5f		 pop	 edi
  00064	5e		 pop	 esi
  00065	5b		 pop	 ebx

; 159  : 	}
; 160  : }

  00066	5d		 pop	 ebp
  00067	c2 04 00	 ret	 4
?ShowButtonID@TutorialWnd@@IAEXH@Z ENDP			; TutorialWnd::ShowButtonID
_TEXT	ENDS
PUBLIC	?iwm_spacebar@TutorialWnd@@UAE_NXZ		; TutorialWnd::iwm_spacebar
; Function compile flags: /Ogsp
;	COMDAT ?iwm_spacebar@TutorialWnd@@UAE_NXZ
_TEXT	SEGMENT
?iwm_spacebar@TutorialWnd@@UAE_NXZ PROC			; TutorialWnd::iwm_spacebar, COMDAT
; _this$ = ecx

; 341  : 	return IsTutorialEsc();

  00000	e9 00 00 00 00	 jmp	 ?IsTutorialEsc@TutorialWnd@@QAE_NXZ ; TutorialWnd::IsTutorialEsc
?iwm_spacebar@TutorialWnd@@UAE_NXZ ENDP			; TutorialWnd::iwm_spacebar
_TEXT	ENDS
PUBLIC	__real@401c000000000000
PUBLIC	__real@402c000000000000
PUBLIC	__real@3fe4ccccc0000000
PUBLIC	??_C@_0CA@PBMFOIHP@TutorialWnd?3?3RenderTutorialInfo?$AA@ ; `string'
PUBLIC	__real@3f19999a
PUBLIC	?RenderTutorialInfo@TutorialWnd@@IAEXXZ		; TutorialWnd::RenderTutorialInfo
EXTRN	??1ioComplexStringPrinter@@QAE@XZ:PROC		; ioComplexStringPrinter::~ioComplexStringPrinter
EXTRN	?PrintFullText@ioComplexStringPrinter@@QAEXMMW4TextAlignType@@E@Z:PROC ; ioComplexStringPrinter::PrintFullText
EXTRN	?AddTextPiece@ioComplexStringPrinter@@QAEXMPBDH@Z:PROC ; ioComplexStringPrinter::AddTextPiece
EXTRN	?AddTextPieceWithYOffset@ioComplexStringPrinter@@QAEXMMPBDH@Z:PROC ; ioComplexStringPrinter::AddTextPieceWithYOffset
EXTRN	?AddTextPiece@ioComplexStringPrinter@@QAEXMPBD0@Z:PROC ; ioComplexStringPrinter::AddTextPiece
EXTRN	__imp_?c_str@ioHashString@@QBEPBDXZ:PROC
EXTRN	?SetTextColor@ioComplexStringPrinter@@QAEXK@Z:PROC ; ioComplexStringPrinter::SetTextColor
EXTRN	?SetTextStyle@ioComplexStringPrinter@@QAEXW4TextStyle@@@Z:PROC ; ioComplexStringPrinter::SetTextStyle
EXTRN	??0ioComplexStringPrinter@@QAE@XZ:PROC		; ioComplexStringPrinter::ioComplexStringPrinter
EXTRN	__imp_?IsEmpty@ioHashString@@QBE_NXZ:PROC
EXTRN	__imp_?SetTextColor@ioFontManager@@QAEXK@Z:PROC
EXTRN	__imp_?GetDerivedPosY@ioWnd@@QBEHXZ:PROC
EXTRN	__imp_?GetDerivedPosX@ioWnd@@QBEHXZ:PROC
;	COMDAT __real@401c000000000000
; File d:\lost saga for developer\youtube\tutorial\source\src\lsclient\stdafx.h
CONST	SEGMENT
__real@401c000000000000 DQ 0401c000000000000r	; 7
CONST	ENDS
;	COMDAT __real@402c000000000000
CONST	SEGMENT
__real@402c000000000000 DQ 0402c000000000000r	; 14
CONST	ENDS
;	COMDAT __real@3fe4ccccc0000000
CONST	SEGMENT
__real@3fe4ccccc0000000 DQ 03fe4ccccc0000000r	; 0.65
CONST	ENDS
;	COMDAT ??_C@_0CA@PBMFOIHP@TutorialWnd?3?3RenderTutorialInfo?$AA@
CONST	SEGMENT
??_C@_0CA@PBMFOIHP@TutorialWnd?3?3RenderTutorialInfo?$AA@ DB 'TutorialWnd'
	DB	'::RenderTutorialInfo', 00H			; `string'
CONST	ENDS
;	COMDAT __real@3f19999a
CONST	SEGMENT
__real@3f19999a DD 03f19999ar			; 0.6
CONST	ENDS
;	COMDAT xdata$x
xdata$x	SEGMENT
__unwindtable$?RenderTutorialInfo@TutorialWnd@@IAEXXZ DD 0ffffffffH
	DD	FLAT:__unwindfunclet$?RenderTutorialInfo@TutorialWnd@@IAEXXZ$0
__ehfuncinfo$?RenderTutorialInfo@TutorialWnd@@IAEXXZ DD 019930522H
	DD	01H
	DD	FLAT:__unwindtable$?RenderTutorialInfo@TutorialWnd@@IAEXXZ
	DD	2 DUP(00H)
	DD	2 DUP(00H)
	DD	00H
	DD	01H
; Function compile flags: /Ogsp
; File d:\lost saga for developer\youtube\tutorial\source\src\lsclient\gui\tutorialwnd.cpp
xdata$x	ENDS
;	COMDAT ?RenderTutorialInfo@TutorialWnd@@IAEXXZ
_TEXT	SEGMENT
_kPrinter$517173 = -68					; size = 32
tv407 = -36						; size = 4
tv403 = -36						; size = 4
tv399 = -36						; size = 4
tv393 = -36						; size = 4
tv338 = -36						; size = 4
$T521984 = -36						; size = 4
tv377 = -32						; size = 4
tv221 = -32						; size = 4
_iXPos$ = -28						; size = 4
_iYPos$ = -24						; size = 4
tv445 = -20						; size = 4
$T521988 = -20						; size = 4
tv426 = -16						; size = 4
__$EHRec$ = -12						; size = 12
?RenderTutorialInfo@TutorialWnd@@IAEXXZ PROC		; TutorialWnd::RenderTutorialInfo, COMDAT
; _this$ = ecx

; 563  : {

  00000	6a 38		 push	 56			; 00000038H
  00002	b8 00 00 00 00	 mov	 eax, __ehhandler$?RenderTutorialInfo@TutorialWnd@@IAEXXZ
  00007	e8 00 00 00 00	 call	 __EH_prolog3
  0000c	8b f1		 mov	 esi, ecx

; 564  : 	int iXPos, iYPos;
; 565  : 	iXPos = GetDerivedPosX();

  0000e	ff 15 00 00 00
	00		 call	 DWORD PTR __imp_?GetDerivedPosX@ioWnd@@QBEHXZ

; 566  : 	iYPos = GetDerivedPosY();

  00014	8b ce		 mov	 ecx, esi
  00016	89 45 e4	 mov	 DWORD PTR _iXPos$[ebp], eax
  00019	ff 15 00 00 00
	00		 call	 DWORD PTR __imp_?GetDerivedPosY@ioWnd@@QBEHXZ

; 567  : 
; 568  : 	//////////////////////////////////////////////////////////////////////////	
; 569  : 	g_FontMgr.SetAlignType( TAT_LEFT );

  0001f	8b 3d 00 00 00
	00		 mov	 edi, DWORD PTR __imp_?GetSingleton@ioFontManager@@SAAAV1@XZ
  00025	33 db		 xor	 ebx, ebx
  00027	53		 push	 ebx
  00028	89 45 e8	 mov	 DWORD PTR _iYPos$[ebp], eax
  0002b	ff d7		 call	 edi
  0002d	8b c8		 mov	 ecx, eax
  0002f	ff 15 00 00 00
	00		 call	 DWORD PTR __imp_?SetAlignType@ioFontManager@@QAEXW4TextAlignType@@@Z

; 570  : 	g_FontMgr.SetTextStyle( TS_NORMAL );

  00035	53		 push	 ebx
  00036	ff d7		 call	 edi
  00038	8b c8		 mov	 ecx, eax
  0003a	ff 15 00 00 00
	00		 call	 DWORD PTR __imp_?SetTextStyle@ioFontManager@@QAEXW4TextStyle@@@Z

; 571  : 	g_FontMgr.SetBkColor( 0, 0, 0 );

  00040	53		 push	 ebx
  00041	53		 push	 ebx
  00042	53		 push	 ebx
  00043	ff d7		 call	 edi
  00045	8b c8		 mov	 ecx, eax
  00047	ff 15 00 00 00
	00		 call	 DWORD PTR __imp_?SetBkColor@ioFontManager@@QAEXHHH@Z

; 572  : 	g_FontMgr.SetTextColor( TCT_DEFAULT_DARKGRAY );	

  0004d	68 3a 3a 3a ff	 push	 -12961222		; ff3a3a3aH
  00052	ff d7		 call	 edi
  00054	8b c8		 mov	 ecx, eax
  00056	ff 15 00 00 00
	00		 call	 DWORD PTR __imp_?SetTextColor@ioFontManager@@QAEXK@Z

; 573  : 	int i = 0;
; 574  : 	int iInfoSize = m_vStringTickList.size();      

  0005c	8b 86 a8 01 00
	00		 mov	 eax, DWORD PTR [esi+424]
  00062	2b 86 a4 01 00
	00		 sub	 eax, DWORD PTR [esi+420]
  00068	b9 04 01 00 00	 mov	 ecx, 260		; 00000104H
  0006d	99		 cdq
  0006e	f7 f9		 idiv	 ecx

; 575  : 	for(;i < iInfoSize;i++)

  00070	3b c3		 cmp	 eax, ebx
  00072	7e 70		 jle	 SHORT $LN7@RenderTuto
  00074	8b 4d e4	 mov	 ecx, DWORD PTR _iXPos$[ebp]
  00077	83 c1 4d	 add	 ecx, 77			; 0000004dH
  0007a	0f 57 c0	 xorps	 xmm0, xmm0
  0007d	f3 0f 2a c1	 cvtsi2ss xmm0, ecx
  00081	8b 4d e8	 mov	 ecx, DWORD PTR _iYPos$[ebp]
  00084	83 c1 2f	 add	 ecx, 47			; 0000002fH
  00087	f3 0f 11 45 dc	 movss	 DWORD PTR tv338[ebp], xmm0
  0008c	89 5d f0	 mov	 DWORD PTR tv426[ebp], ebx
  0008f	89 4d ec	 mov	 DWORD PTR tv445[ebp], ecx
  00092	89 45 e0	 mov	 DWORD PTR tv221[ebp], eax
$LN9@RenderTuto:

; 576  : 		g_FontMgr.PrintText( iXPos + 77, iYPos + 47 + ( 17 * i ), FONT_SIZE_12, m_vStringTickList[i].m_szCopyDesc );

  00095	8b 86 a4 01 00
	00		 mov	 eax, DWORD PTR [esi+420]
  0009b	03 45 f0	 add	 eax, DWORD PTR tv426[ebp]
  0009e	f3 0f 10 05 00
	00 00 00	 movss	 xmm0, DWORD PTR __real@3f19999a
  000a6	50		 push	 eax
  000a7	83 ec 0c	 sub	 esp, 12			; 0000000cH
  000aa	f3 0f 11 44 24
	08		 movss	 DWORD PTR [esp+8], xmm0
  000b0	66 0f 6e 45 ec	 movd	 xmm0, DWORD PTR tv445[ebp]
  000b5	0f 5b c0	 cvtdq2ps xmm0, xmm0
  000b8	f3 0f 11 44 24
	04		 movss	 DWORD PTR [esp+4], xmm0
  000be	f3 0f 10 45 dc	 movss	 xmm0, DWORD PTR tv338[ebp]
  000c3	f3 0f 11 04 24	 movss	 DWORD PTR [esp], xmm0
  000c8	ff d7		 call	 edi
  000ca	50		 push	 eax
  000cb	ff 15 00 00 00
	00		 call	 DWORD PTR __imp_?PrintText@ioFontManager@@QAAXMMMPBDZZ
  000d1	81 45 f0 04 01
	00 00		 add	 DWORD PTR tv426[ebp], 260 ; 00000104H
  000d8	83 45 ec 11	 add	 DWORD PTR tv445[ebp], 17 ; 00000011H
  000dc	83 c4 14	 add	 esp, 20			; 00000014H
  000df	ff 4d e0	 dec	 DWORD PTR tv221[ebp]
  000e2	75 b1		 jne	 SHORT $LN9@RenderTuto
$LN7@RenderTuto:

; 577  : 
; 578  : 	enum { MAX_NEXT_BTN = 3 };
; 579  : 	for (int i = 0; i < MAX_NEXT_BTN ; i++)

  000e4	33 ff		 xor	 edi, edi
$LL6@RenderTuto:

; 580  : 	{
; 581  : 		ioWnd *pButton = FindChildWnd( ID_START + i );

  000e6	8d 47 02	 lea	 eax, DWORD PTR [edi+2]
  000e9	50		 push	 eax
  000ea	8b ce		 mov	 ecx, esi
  000ec	ff 15 00 00 00
	00		 call	 DWORD PTR __imp_?FindChildWnd@ioWnd@@QAEPAV1@K@Z

; 582  : 		if( pButton && pButton->IsShow() )

  000f2	3b c3		 cmp	 eax, ebx
  000f4	74 10		 je	 SHORT $LN5@RenderTuto
  000f6	8b c8		 mov	 ecx, eax
  000f8	ff 15 00 00 00
	00		 call	 DWORD PTR __imp_?IsShow@ioWnd@@QBE_NXZ
  000fe	84 c0		 test	 al, al
  00100	0f 85 c5 01 00
	00		 jne	 $LN1@RenderTuto
$LN5@RenderTuto:

; 577  : 
; 578  : 	enum { MAX_NEXT_BTN = 3 };
; 579  : 	for (int i = 0; i < MAX_NEXT_BTN ; i++)

  00106	47		 inc	 edi
  00107	83 ff 03	 cmp	 edi, 3
  0010a	7c da		 jl	 SHORT $LL6@RenderTuto

; 583  : 			return;	
; 584  : 	}
; 585  : 
; 586  : 	if( m_pHelpBackFrm )

  0010c	39 9e 60 01 00
	00		 cmp	 DWORD PTR [esi+352], ebx
  00112	74 2c		 je	 SHORT $LN2@RenderTuto

; 587  : 		m_pHelpBackFrm->Render( iXPos, iYPos, UI_RENDER_MULTIPLY );

  00114	8b 8e 60 01 00
	00		 mov	 ecx, DWORD PTR [esi+352]
  0011a	66 0f 6e 45 e8	 movd	 xmm0, DWORD PTR _iYPos$[ebp]
  0011f	8b 01		 mov	 eax, DWORD PTR [ecx]
  00121	53		 push	 ebx
  00122	53		 push	 ebx
  00123	53		 push	 ebx
  00124	6a 08		 push	 8
  00126	51		 push	 ecx
  00127	0f 5b c0	 cvtdq2ps xmm0, xmm0
  0012a	51		 push	 ecx
  0012b	f3 0f 11 44 24
	04		 movss	 DWORD PTR [esp+4], xmm0
  00131	66 0f 6e 45 e4	 movd	 xmm0, DWORD PTR _iXPos$[ebp]
  00136	0f 5b c0	 cvtdq2ps xmm0, xmm0
  00139	f3 0f 11 04 24	 movss	 DWORD PTR [esp], xmm0
  0013e	ff 10		 call	 DWORD PTR [eax]
$LN2@RenderTuto:

; 588  : 
; 589  : 	if( !m_szHelp.IsEmpty() )

  00140	8d 8e d4 01 00
	00		 lea	 ecx, DWORD PTR [esi+468]
  00146	ff 15 00 00 00
	00		 call	 DWORD PTR __imp_?IsEmpty@ioHashString@@QBE_NXZ
  0014c	84 c0		 test	 al, al
  0014e	0f 85 77 01 00
	00		 jne	 $LN1@RenderTuto

; 590  : 	{
; 591  : 		ioComplexStringPrinter kPrinter;

  00154	8d 4d bc	 lea	 ecx, DWORD PTR _kPrinter$517173[ebp]
  00157	e8 00 00 00 00	 call	 ??0ioComplexStringPrinter@@QAE@XZ ; ioComplexStringPrinter::ioComplexStringPrinter

; 592  : 		kPrinter.SetTextStyle( TS_NORMAL );

  0015c	53		 push	 ebx
  0015d	8d 4d bc	 lea	 ecx, DWORD PTR _kPrinter$517173[ebp]
  00160	89 5d fc	 mov	 DWORD PTR __$EHRec$[ebp+8], ebx
  00163	e8 00 00 00 00	 call	 ?SetTextStyle@ioComplexStringPrinter@@QAEXW4TextStyle@@@Z ; ioComplexStringPrinter::SetTextStyle

; 593  : 		kPrinter.SetTextColor( TCT_DEFAULT_GREEN );

  00168	68 22 72 11 ff	 push	 -15633886		; ff117222H
  0016d	8d 4d bc	 lea	 ecx, DWORD PTR _kPrinter$517173[ebp]
  00170	e8 00 00 00 00	 call	 ?SetTextColor@ioComplexStringPrinter@@QAEXK@Z ; ioComplexStringPrinter::SetTextColor

; 594  : 		kPrinter.AddTextPiece( FONT_SIZE_13, STR(3), m_szHelp.c_str() );

  00175	8d 8e d4 01 00
	00		 lea	 ecx, DWORD PTR [esi+468]
  0017b	ff 15 00 00 00
	00		 call	 DWORD PTR __imp_?c_str@ioHashString@@QBEPBDXZ
  00181	8b 3d 00 00 00
	00		 mov	 edi, DWORD PTR __imp_?GetSingleton@ioStringManager@@SAAAV1@XZ
  00187	50		 push	 eax
  00188	53		 push	 ebx
  00189	6a 03		 push	 3
  0018b	68 00 00 00 00	 push	 OFFSET ??_C@_00CNPNBAHC@?$AA@
  00190	68 00 00 00 00	 push	 OFFSET ??_C@_0CA@PBMFOIHP@TutorialWnd?3?3RenderTutorialInfo?$AA@
  00195	ff d7		 call	 edi
  00197	8b 1d 00 00 00
	00		 mov	 ebx, DWORD PTR __imp_?GetString@ioStringManager@@QAEPADPBD0HW4FileNamePrefix@1@@Z
  0019d	8b c8		 mov	 ecx, eax
  0019f	ff d3		 call	 ebx
  001a1	f3 0f 10 05 00
	00 00 00	 movss	 xmm0, DWORD PTR __real@3f266666
  001a9	50		 push	 eax
  001aa	51		 push	 ecx
  001ab	8d 4d bc	 lea	 ecx, DWORD PTR _kPrinter$517173[ebp]
  001ae	f3 0f 11 04 24	 movss	 DWORD PTR [esp], xmm0
  001b3	e8 00 00 00 00	 call	 ?AddTextPiece@ioComplexStringPrinter@@QAEXMPBD0@Z ; ioComplexStringPrinter::AddTextPiece

; 595  : 		// /2  * FLOAT05 
; 596  : 		kPrinter.AddTextPieceWithYOffset( FONT_SIZE_13 * m_fScale, 7 - ((14 * m_fScale) * FLOAT05), STR(1), m_iCurValue );

  001b8	b8 05 00 00 00	 mov	 eax, 5
  001bd	89 45 dc	 mov	 DWORD PTR $T521984[ebp], eax
  001c0	b8 0a 00 00 00	 mov	 eax, 10			; 0000000aH
  001c5	ff b6 bc 01 00
	00		 push	 DWORD PTR [esi+444]
  001cb	f3 0f 10 86 e4
	01 00 00	 movss	 xmm0, DWORD PTR [esi+484]
  001d3	6a 00		 push	 0
  001d5	6a 01		 push	 1
  001d7	68 00 00 00 00	 push	 OFFSET ??_C@_00CNPNBAHC@?$AA@
  001dc	68 00 00 00 00	 push	 OFFSET ??_C@_0CA@PBMFOIHP@TutorialWnd?3?3RenderTutorialInfo?$AA@
  001e1	89 45 ec	 mov	 DWORD PTR $T521988[ebp], eax
  001e4	f3 0f 11 45 e0	 movss	 DWORD PTR tv377[ebp], xmm0
  001e9	ff d7		 call	 edi
  001eb	8b c8		 mov	 ecx, eax
  001ed	ff d3		 call	 ebx
  001ef	db 45 dc	 fild	 DWORD PTR $T521984[ebp]
  001f2	50		 push	 eax
  001f3	8b 45 dc	 mov	 eax, DWORD PTR $T521984[ebp]
  001f6	85 c0		 test	 eax, eax
  001f8	79 06		 jns	 SHORT $LN28@RenderTuto
  001fa	d8 05 00 00 00
	00		 fadd	 DWORD PTR __real@4f800000
$LN28@RenderTuto:
  00200	8b 45 ec	 mov	 eax, DWORD PTR $T521988[ebp]
  00203	db 45 ec	 fild	 DWORD PTR $T521988[ebp]
  00206	85 c0		 test	 eax, eax
  00208	79 06		 jns	 SHORT $LN29@RenderTuto
  0020a	d8 05 00 00 00
	00		 fadd	 DWORD PTR __real@4f800000
$LN29@RenderTuto:
  00210	de f9		 fdivp	 ST(1), ST(0)
  00212	f3 0f 10 45 e0	 movss	 xmm0, DWORD PTR tv377[ebp]
  00217	51		 push	 ecx
  00218	51		 push	 ecx
  00219	0f 5a c0	 cvtps2pd xmm0, xmm0
  0021c	f2 0f 59 05 00
	00 00 00	 mulsd	 xmm0, QWORD PTR __real@3fe4ccccc0000000
  00224	f2 0f 5a c0	 cvtsd2ss xmm0, xmm0
  00228	8d 4d bc	 lea	 ecx, DWORD PTR _kPrinter$517173[ebp]
  0022b	d9 5d dc	 fstp	 DWORD PTR tv399[ebp]
  0022e	d9 45 dc	 fld	 DWORD PTR tv399[ebp]
  00231	d9 45 e0	 fld	 DWORD PTR tv377[ebp]
  00234	dc 0d 00 00 00
	00		 fmul	 QWORD PTR __real@402c000000000000
  0023a	de c9		 fmulp	 ST(1), ST(0)
  0023c	dc 2d 00 00 00
	00		 fsubr	 QWORD PTR __real@401c000000000000
  00242	d9 5d dc	 fstp	 DWORD PTR tv393[ebp]
  00245	d9 45 dc	 fld	 DWORD PTR tv393[ebp]
  00248	d9 5c 24 04	 fstp	 DWORD PTR [esp+4]
  0024c	f3 0f 11 04 24	 movss	 DWORD PTR [esp], xmm0
  00251	e8 00 00 00 00	 call	 ?AddTextPieceWithYOffset@ioComplexStringPrinter@@QAEXMMPBDH@Z ; ioComplexStringPrinter::AddTextPieceWithYOffset

; 597  : 		kPrinter.AddTextPiece( FONT_SIZE_13, STR(2), m_iMaxValue );	

  00256	ff b6 c0 01 00
	00		 push	 DWORD PTR [esi+448]
  0025c	6a 00		 push	 0
  0025e	6a 02		 push	 2
  00260	68 00 00 00 00	 push	 OFFSET ??_C@_00CNPNBAHC@?$AA@
  00265	68 00 00 00 00	 push	 OFFSET ??_C@_0CA@PBMFOIHP@TutorialWnd?3?3RenderTutorialInfo?$AA@
  0026a	ff d7		 call	 edi
  0026c	8b c8		 mov	 ecx, eax
  0026e	ff d3		 call	 ebx
  00270	f3 0f 10 05 00
	00 00 00	 movss	 xmm0, DWORD PTR __real@3f266666
  00278	50		 push	 eax
  00279	51		 push	 ecx
  0027a	8d 4d bc	 lea	 ecx, DWORD PTR _kPrinter$517173[ebp]
  0027d	f3 0f 11 04 24	 movss	 DWORD PTR [esp], xmm0
  00282	e8 00 00 00 00	 call	 ?AddTextPiece@ioComplexStringPrinter@@QAEXMPBDH@Z ; ioComplexStringPrinter::AddTextPiece

; 598  : 		kPrinter.PrintFullText( iXPos + 188, iYPos + 117, TAT_CENTER );

  00287	8b 45 e8	 mov	 eax, DWORD PTR _iYPos$[ebp]
  0028a	68 ff 00 00 00	 push	 255			; 000000ffH
  0028f	6a 01		 push	 1
  00291	83 c0 75	 add	 eax, 117		; 00000075H
  00294	0f 57 c0	 xorps	 xmm0, xmm0
  00297	f3 0f 2a c0	 cvtsi2ss xmm0, eax
  0029b	8b 45 e4	 mov	 eax, DWORD PTR _iXPos$[ebp]
  0029e	51		 push	 ecx
  0029f	51		 push	 ecx
  002a0	f3 0f 11 44 24
	04		 movss	 DWORD PTR [esp+4], xmm0
  002a6	05 bc 00 00 00	 add	 eax, 188		; 000000bcH
  002ab	0f 57 c0	 xorps	 xmm0, xmm0
  002ae	f3 0f 2a c0	 cvtsi2ss xmm0, eax
  002b2	8d 4d bc	 lea	 ecx, DWORD PTR _kPrinter$517173[ebp]
  002b5	f3 0f 11 04 24	 movss	 DWORD PTR [esp], xmm0
  002ba	e8 00 00 00 00	 call	 ?PrintFullText@ioComplexStringPrinter@@QAEXMMW4TextAlignType@@E@Z ; ioComplexStringPrinter::PrintFullText

; 599  : 	}

  002bf	83 4d fc ff	 or	 DWORD PTR __$EHRec$[ebp+8], -1
  002c3	8d 4d bc	 lea	 ecx, DWORD PTR _kPrinter$517173[ebp]
  002c6	e8 00 00 00 00	 call	 ??1ioComplexStringPrinter@@QAE@XZ ; ioComplexStringPrinter::~ioComplexStringPrinter
$LN1@RenderTuto:

; 600  : }

  002cb	e8 00 00 00 00	 call	 __EH_epilog3
  002d0	c3		 ret	 0
_TEXT	ENDS
;	COMDAT text$x
text$x	SEGMENT
__unwindfunclet$?RenderTutorialInfo@TutorialWnd@@IAEXXZ$0:
  00000	8d 4d bc	 lea	 ecx, DWORD PTR _kPrinter$517173[ebp]
  00003	e9 00 00 00 00	 jmp	 ??1ioComplexStringPrinter@@QAE@XZ ; ioComplexStringPrinter::~ioComplexStringPrinter
__ehhandler$?RenderTutorialInfo@TutorialWnd@@IAEXXZ:
  00008	8b 54 24 08	 mov	 edx, DWORD PTR [esp+8]
  0000c	8d 42 0c	 lea	 eax, DWORD PTR [edx+12]
  0000f	8b 4a b8	 mov	 ecx, DWORD PTR [edx-72]
  00012	33 c8		 xor	 ecx, eax
  00014	e8 00 00 00 00	 call	 @__security_check_cookie@4
  00019	b8 00 00 00 00	 mov	 eax, OFFSET __ehfuncinfo$?RenderTutorialInfo@TutorialWnd@@IAEXXZ
  0001e	e9 00 00 00 00	 jmp	 ___CxxFrameHandler3
text$x	ENDS
?RenderTutorialInfo@TutorialWnd@@IAEXXZ ENDP		; TutorialWnd::RenderTutorialInfo
PUBLIC	??_R0?AVPartyCreateWnd@@@8			; PartyCreateWnd `RTTI Type Descriptor'
PUBLIC	?SetBattleProcess@TutorialWnd@@IAEXXZ		; TutorialWnd::SetBattleProcess
EXTRN	?CreateBattleRoom@PartyCreateWnd@@QAEXHHH@Z:PROC ; PartyCreateWnd::CreateBattleRoom
EXTRN	?GetSingleton@ioBattleRoomMgr@@SAAAV1@XZ:PROC	; ioBattleRoomMgr::GetSingleton
EXTRN	__imp_?FindWnd@ioGUIManager@@QAEPAVioWnd@@K@Z:PROC
EXTRN	__imp_?HideWnd@ioGUIManager@@QAEXK_N@Z:PROC
EXTRN	___RTDynamicCast:PROC
;	COMDAT ??_R0?AVPartyCreateWnd@@@8
; File d:\lost saga for developer\youtube\tutorial\source\src\lsclient\iobattleroommgr.h
_DATA	SEGMENT
??_R0?AVPartyCreateWnd@@@8 DD FLAT:??_7type_info@@6B@	; PartyCreateWnd `RTTI Type Descriptor'
	DD	00H
	DB	'.?AVPartyCreateWnd@@', 00H
; Function compile flags: /Ogsp
; File d:\lost saga for developer\youtube\tutorial\source\src\lsclient\gui\tutorialwnd.cpp
_DATA	ENDS
;	COMDAT ?SetBattleProcess@TutorialWnd@@IAEXXZ
_TEXT	SEGMENT
?SetBattleProcess@TutorialWnd@@IAEXXZ PROC		; TutorialWnd::SetBattleProcess, COMDAT
; _this$ = ecx

; 616  : {

  00000	56		 push	 esi
  00001	57		 push	 edi

; 617  : 	//   
; 618  : 	g_GUIMgr.HideWnd( TIMEGATE_SEARCH );

  00002	33 f6		 xor	 esi, esi
  00004	56		 push	 esi
  00005	68 ba 0b 00 00	 push	 3002			; 00000bbaH
  0000a	e8 00 00 00 00	 call	 ?GetSingleton@ioSP2GUIManager@@SAAAV1@XZ ; ioSP2GUIManager::GetSingleton
  0000f	8b c8		 mov	 ecx, eax
  00011	ff 15 00 00 00
	00		 call	 DWORD PTR __imp_?HideWnd@ioGUIManager@@QAEXK_N@Z

; 619  : 
; 620  : 	PartyCreateWnd *pPartyCreate = dynamic_cast<PartyCreateWnd*>( g_GUIMgr.FindWnd( PARTY_CREATE_WND ) );

  00017	56		 push	 esi
  00018	68 00 00 00 00	 push	 OFFSET ??_R0?AVPartyCreateWnd@@@8
  0001d	68 00 00 00 00	 push	 OFFSET ??_R0?AVioWnd@@@8
  00022	56		 push	 esi
  00023	68 b2 13 00 00	 push	 5042			; 000013b2H
  00028	e8 00 00 00 00	 call	 ?GetSingleton@ioSP2GUIManager@@SAAAV1@XZ ; ioSP2GUIManager::GetSingleton
  0002d	8b c8		 mov	 ecx, eax
  0002f	ff 15 00 00 00
	00		 call	 DWORD PTR __imp_?FindWnd@ioGUIManager@@QAEPAVioWnd@@K@Z
  00035	50		 push	 eax
  00036	e8 00 00 00 00	 call	 ___RTDynamicCast
  0003b	8b f8		 mov	 edi, eax
  0003d	83 c4 14	 add	 esp, 20			; 00000014H

; 621  : 	if( pPartyCreate )

  00040	3b fe		 cmp	 edi, esi
  00042	74 2f		 je	 SHORT $LN1@SetBattleP

; 622  : 	{
; 623  : 		pPartyCreate->CreateBattleRoom( BMT_MONSTER_SURVIVAL_EASY, g_BattleRoomMgr.GetDefMaxPlayer() / 2, g_BattleRoomMgr.GetDefMaxPlayer() / 2 );

  00044	e8 00 00 00 00	 call	 ?GetSingleton@ioBattleRoomMgr@@SAAAV1@XZ ; ioBattleRoomMgr::GetSingleton
  00049	8b b0 68 02 00
	00		 mov	 esi, DWORD PTR [eax+616]
  0004f	e8 00 00 00 00	 call	 ?GetSingleton@ioBattleRoomMgr@@SAAAV1@XZ ; ioBattleRoomMgr::GetSingleton
  00054	8b c8		 mov	 ecx, eax
  00056	8b c6		 mov	 eax, esi
  00058	99		 cdq
  00059	2b c2		 sub	 eax, edx
  0005b	d1 f8		 sar	 eax, 1
  0005d	50		 push	 eax
  0005e	8b 81 68 02 00
	00		 mov	 eax, DWORD PTR [ecx+616]
  00064	99		 cdq
  00065	2b c2		 sub	 eax, edx
  00067	d1 f8		 sar	 eax, 1
  00069	50		 push	 eax
  0006a	6a 0f		 push	 15			; 0000000fH
  0006c	8b cf		 mov	 ecx, edi
  0006e	e8 00 00 00 00	 call	 ?CreateBattleRoom@PartyCreateWnd@@QAEXHHH@Z ; PartyCreateWnd::CreateBattleRoom
$LN1@SetBattleP:

; 624  : 	}
; 625  : }

  00073	5f		 pop	 edi
  00074	5e		 pop	 esi
  00075	c3		 ret	 0
?SetBattleProcess@TutorialWnd@@IAEXXZ ENDP		; TutorialWnd::SetBattleProcess
; Function compile flags: /Ogsp
_TEXT	ENDS
;	COMDAT ??_GTutorialKeyboardWnd@@UAEPAXI@Z
_TEXT	SEGMENT
___flags$ = 8						; size = 4
??_GTutorialKeyboardWnd@@UAEPAXI@Z PROC			; TutorialKeyboardWnd::`scalar deleting destructor', COMDAT
; _this$ = ecx
  00000	55		 push	 ebp
  00001	8b ec		 mov	 ebp, esp
  00003	56		 push	 esi
  00004	8b f1		 mov	 esi, ecx
  00006	e8 00 00 00 00	 call	 ??1TutorialKeyboardWnd@@UAE@XZ ; TutorialKeyboardWnd::~TutorialKeyboardWnd
  0000b	f6 45 08 01	 test	 BYTE PTR ___flags$[ebp], 1
  0000f	74 07		 je	 SHORT $LN1@scalar@3
  00011	56		 push	 esi
  00012	e8 00 00 00 00	 call	 ??3@YAXPAX@Z		; operator delete
  00017	59		 pop	 ecx
$LN1@scalar@3:
  00018	8b c6		 mov	 eax, esi
  0001a	5e		 pop	 esi
  0001b	5d		 pop	 ebp
  0001c	c2 04 00	 ret	 4
??_GTutorialKeyboardWnd@@UAEPAXI@Z ENDP			; TutorialKeyboardWnd::`scalar deleting destructor'
; Function compile flags: /Ogsp
_TEXT	ENDS
;	COMDAT ?OnProcess@TutorialKeyboardWnd@@MAEXM@Z
_TEXT	SEGMENT
_fTimePerSec$ = 8					; size = 4
?OnProcess@TutorialKeyboardWnd@@MAEXM@Z PROC		; TutorialKeyboardWnd::OnProcess, COMDAT
; _this$ = ecx

; 701  : {

  00000	56		 push	 esi
  00001	8b f1		 mov	 esi, ecx

; 702  : 	if( !IsShow() )

  00003	ff 15 00 00 00
	00		 call	 DWORD PTR __imp_?IsShow@ioWnd@@QBE_NXZ
  00009	84 c0		 test	 al, al
  0000b	74 0e		 je	 SHORT $LN2@OnProcess@2

; 703  : 		return;
; 704  : 
; 705  : 	OnProcessKeyCheck();

  0000d	8b ce		 mov	 ecx, esi
  0000f	e8 00 00 00 00	 call	 ?OnProcessKeyCheck@TutorialKeyboardWnd@@IAEXXZ ; TutorialKeyboardWnd::OnProcessKeyCheck

; 706  : 	OnProcessShow();

  00014	8b ce		 mov	 ecx, esi
  00016	e8 00 00 00 00	 call	 ?OnProcessShow@TutorialKeyboardWnd@@IAEXXZ ; TutorialKeyboardWnd::OnProcessShow
$LN2@OnProcess@2:
  0001b	5e		 pop	 esi

; 707  : }

  0001c	c2 04 00	 ret	 4
?OnProcess@TutorialKeyboardWnd@@MAEXM@Z ENDP		; TutorialKeyboardWnd::OnProcess
_TEXT	ENDS
PUBLIC	__real@4079000000000000
EXTRN	__imp_?OnRender@ioWnd@@MAEXXZ:PROC
EXTRN	__ftol2_sse:PROC
;	COMDAT __real@4079000000000000
; File d:\lost saga for developer\youtube\tutorial\source\src\lsclient\stdafx.h
CONST	SEGMENT
__real@4079000000000000 DQ 04079000000000000r	; 400
; Function compile flags: /Ogsp
; File d:\lost saga for developer\youtube\tutorial\source\src\lsclient\gui\tutorialwnd.cpp
CONST	ENDS
;	COMDAT ?OnRender@TutorialKeyboardWnd@@MAEXXZ
_TEXT	SEGMENT
tv211 = -4						; size = 4
tv205 = -4						; size = 4
tv194 = -4						; size = 4
tv85 = -4						; size = 4
?OnRender@TutorialKeyboardWnd@@MAEXXZ PROC		; TutorialKeyboardWnd::OnRender, COMDAT
; _this$ = ecx

; 789  : {

  00000	55		 push	 ebp
  00001	8b ec		 mov	 ebp, esp
  00003	51		 push	 ecx
  00004	53		 push	 ebx
  00005	56		 push	 esi
  00006	57		 push	 edi
  00007	8b f1		 mov	 esi, ecx

; 790  : 	ioWnd::OnRender();

  00009	ff 15 00 00 00
	00		 call	 DWORD PTR __imp_?OnRender@ioWnd@@MAEXXZ

; 791  : 
; 792  : 	int iXPos = GetDerivedPosX();

  0000f	8b ce		 mov	 ecx, esi
  00011	ff 15 00 00 00
	00		 call	 DWORD PTR __imp_?GetDerivedPosX@ioWnd@@QBEHXZ

; 793  : 	int iYPos = GetDerivedPosY();

  00017	8b ce		 mov	 ecx, esi
  00019	8b f8		 mov	 edi, eax
  0001b	ff 15 00 00 00
	00		 call	 DWORD PTR __imp_?GetDerivedPosY@ioWnd@@QBEHXZ
  00021	8b d8		 mov	 ebx, eax

; 794  : 
; 795  : 	OnRenderASD( ( iXPos - 375 ) - ( 400 * ( FLOAT1 - m_fProcessRate ) ), iYPos - 49 );

  00023	b8 01 00 00 00	 mov	 eax, 1
  00028	8d 8f 89 fe ff
	ff		 lea	 ecx, DWORD PTR [edi-375]
  0002e	89 4d fc	 mov	 DWORD PTR tv211[ebp], ecx
  00031	db 45 fc	 fild	 DWORD PTR tv211[ebp]
  00034	83 c3 cf	 add	 ebx, -49		; ffffffcfH
  00037	89 45 fc	 mov	 DWORD PTR tv205[ebp], eax
  0003a	db 45 fc	 fild	 DWORD PTR tv205[ebp]
  0003d	53		 push	 ebx
  0003e	85 c0		 test	 eax, eax
  00040	79 06		 jns	 SHORT $LN7@OnRender
  00042	d8 05 00 00 00
	00		 fadd	 DWORD PTR __real@4f800000
$LN7@OnRender:
  00048	d8 a6 74 01 00
	00		 fsub	 DWORD PTR [esi+372]
  0004e	dc 0d 00 00 00
	00		 fmul	 QWORD PTR __real@4079000000000000
  00054	de e9		 fsubp	 ST(1), ST(0)
  00056	e8 00 00 00 00	 call	 __ftol2_sse
  0005b	50		 push	 eax
  0005c	8b ce		 mov	 ecx, esi
  0005e	e8 00 00 00 00	 call	 ?OnRenderASD@TutorialKeyboardWnd@@IAEXHH@Z ; TutorialKeyboardWnd::OnRenderASD

; 796  : 	OnRenderArrow( ( iXPos + 228 ) + ( 400 * ( FLOAT1 - m_fProcessRate ) ), iYPos - 49 );

  00063	b8 01 00 00 00	 mov	 eax, 1
  00068	89 45 fc	 mov	 DWORD PTR tv194[ebp], eax
  0006b	db 45 fc	 fild	 DWORD PTR tv194[ebp]
  0006e	53		 push	 ebx
  0006f	85 c0		 test	 eax, eax
  00071	79 06		 jns	 SHORT $LN8@OnRender
  00073	d8 05 00 00 00
	00		 fadd	 DWORD PTR __real@4f800000
$LN8@OnRender:
  00079	d8 a6 74 01 00
	00		 fsub	 DWORD PTR [esi+372]
  0007f	81 c7 e4 00 00
	00		 add	 edi, 228		; 000000e4H
  00085	89 7d fc	 mov	 DWORD PTR tv85[ebp], edi
  00088	dc 0d 00 00 00
	00		 fmul	 QWORD PTR __real@4079000000000000
  0008e	da 45 fc	 fiadd	 DWORD PTR tv85[ebp]
  00091	e8 00 00 00 00	 call	 __ftol2_sse
  00096	50		 push	 eax
  00097	8b ce		 mov	 ecx, esi
  00099	e8 00 00 00 00	 call	 ?OnRenderArrow@TutorialKeyboardWnd@@IAEXHH@Z ; TutorialKeyboardWnd::OnRenderArrow
  0009e	5f		 pop	 edi
  0009f	5e		 pop	 esi
  000a0	5b		 pop	 ebx

; 797  : }

  000a1	c9		 leave
  000a2	c3		 ret	 0
?OnRender@TutorialKeyboardWnd@@MAEXXZ ENDP		; TutorialKeyboardWnd::OnRender
_TEXT	ENDS
PUBLIC	??D?$_Vector_iterator@V?$_Vector_val@PAVioUIRenderImage@@V?$allocator@PAVioUIRenderImage@@@std@@@std@@@std@@QBEAAPAVioUIRenderImage@@XZ ; std::_Vector_iterator<std::_Vector_val<ioUIRenderImage *,std::allocator<ioUIRenderImage *> > >::operator*
; Function compile flags: /Ogsp
; File c:\program files (x86)\microsoft visual studio 10.0\vc\include\vector
;	COMDAT ??D?$_Vector_iterator@V?$_Vector_val@PAVioUIRenderImage@@V?$allocator@PAVioUIRenderImage@@@std@@@std@@@std@@QBEAAPAVioUIRenderImage@@XZ
_TEXT	SEGMENT
??D?$_Vector_iterator@V?$_Vector_val@PAVioUIRenderImage@@V?$allocator@PAVioUIRenderImage@@@std@@@std@@@std@@QBEAAPAVioUIRenderImage@@XZ PROC ; std::_Vector_iterator<std::_Vector_val<ioUIRenderImage *,std::allocator<ioUIRenderImage *> > >::operator*, COMDAT
; _this$ = ecx

; 322  : 		return ((reference)**(_Mybase *)this);

  00000	8b 01		 mov	 eax, DWORD PTR [ecx]

; 323  : 		}

  00002	c3		 ret	 0
??D?$_Vector_iterator@V?$_Vector_val@PAVioUIRenderImage@@V?$allocator@PAVioUIRenderImage@@@std@@@std@@@std@@QBEAAPAVioUIRenderImage@@XZ ENDP ; std::_Vector_iterator<std::_Vector_val<ioUIRenderImage *,std::allocator<ioUIRenderImage *> > >::operator*
_TEXT	ENDS
PUBLIC	??E?$_Vector_iterator@V?$_Vector_val@PAVioUIRenderImage@@V?$allocator@PAVioUIRenderImage@@@std@@@std@@@std@@QAEAAV01@XZ ; std::_Vector_iterator<std::_Vector_val<ioUIRenderImage *,std::allocator<ioUIRenderImage *> > >::operator++
; Function compile flags: /Ogsp
;	COMDAT ??E?$_Vector_iterator@V?$_Vector_val@PAVioUIRenderImage@@V?$allocator@PAVioUIRenderImage@@@std@@@std@@@std@@QAEAAV01@XZ
_TEXT	SEGMENT
??E?$_Vector_iterator@V?$_Vector_val@PAVioUIRenderImage@@V?$allocator@PAVioUIRenderImage@@@std@@@std@@@std@@QAEAAV01@XZ PROC ; std::_Vector_iterator<std::_Vector_val<ioUIRenderImage *,std::allocator<ioUIRenderImage *> > >::operator++, COMDAT
; _this$ = ecx

; 331  : 		{	// preincrement

  00000	8b c1		 mov	 eax, ecx

; 332  : 		++*(_Mybase *)this;

  00002	83 00 04	 add	 DWORD PTR [eax], 4

; 333  : 		return (*this);
; 334  : 		}

  00005	c3		 ret	 0
??E?$_Vector_iterator@V?$_Vector_val@PAVioUIRenderImage@@V?$allocator@PAVioUIRenderImage@@@std@@@std@@@std@@QAEAAV01@XZ ENDP ; std::_Vector_iterator<std::_Vector_val<ioUIRenderImage *,std::allocator<ioUIRenderImage *> > >::operator++
_TEXT	ENDS
PUBLIC	??0?$_Vector_val@V?$basic_string@DU?$char_traits@D@std@@V?$allocator@D@2@@std@@V?$allocator@V?$basic_string@DU?$char_traits@D@std@@V?$allocator@D@2@@std@@@2@@std@@QAE@V?$allocator@V?$basic_string@DU?$char_traits@D@std@@V?$allocator@D@2@@std@@@1@@Z ; std::_Vector_val<std::basic_string<char,std::char_traits<char>,std::allocator<char> >,std::allocator<std::basic_string<char,std::char_traits<char>,std::allocator<char> > > >::_Vector_val<std::basic_string<char,std::char_traits<char>,std::allocator<char> >,std::allocator<std::basic_string<char,std::char_traits<char>,std::allocator<char> > > >
; Function compile flags: /Ogsp
;	COMDAT ??0?$_Vector_val@V?$basic_string@DU?$char_traits@D@std@@V?$allocator@D@2@@std@@V?$allocator@V?$basic_string@DU?$char_traits@D@std@@V?$allocator@D@2@@std@@@2@@std@@QAE@V?$allocator@V?$basic_string@DU?$char_traits@D@std@@V?$allocator@D@2@@std@@@1@@Z
_TEXT	SEGMENT
__Al$ = 8						; size = 1
??0?$_Vector_val@V?$basic_string@DU?$char_traits@D@std@@V?$allocator@D@2@@std@@V?$allocator@V?$basic_string@DU?$char_traits@D@std@@V?$allocator@D@2@@std@@@2@@std@@QAE@V?$allocator@V?$basic_string@DU?$char_traits@D@std@@V?$allocator@D@2@@std@@@1@@Z PROC ; std::_Vector_val<std::basic_string<char,std::char_traits<char>,std::allocator<char> >,std::allocator<std::basic_string<char,std::char_traits<char>,std::allocator<char> > > >::_Vector_val<std::basic_string<char,std::char_traits<char>,std::allocator<char> >,std::allocator<std::basic_string<char,std::char_traits<char>,std::allocator<char> > > >, COMDAT
; _this$ = ecx

; 426  : 		{	// construct allocator from _Al

  00000	8b c1		 mov	 eax, ecx

; 427  : 		_Myfirst = 0;

  00002	33 c9		 xor	 ecx, ecx
  00004	89 08		 mov	 DWORD PTR [eax], ecx

; 428  : 		_Mylast = 0;

  00006	89 48 04	 mov	 DWORD PTR [eax+4], ecx

; 429  : 		_Myend = 0;

  00009	89 48 08	 mov	 DWORD PTR [eax+8], ecx

; 430  : 		}

  0000c	c2 04 00	 ret	 4
??0?$_Vector_val@V?$basic_string@DU?$char_traits@D@std@@V?$allocator@D@2@@std@@V?$allocator@V?$basic_string@DU?$char_traits@D@std@@V?$allocator@D@2@@std@@@2@@std@@QAE@V?$allocator@V?$basic_string@DU?$char_traits@D@std@@V?$allocator@D@2@@std@@@1@@Z ENDP ; std::_Vector_val<std::basic_string<char,std::char_traits<char>,std::allocator<char> >,std::allocator<std::basic_string<char,std::char_traits<char>,std::allocator<char> > > >::_Vector_val<std::basic_string<char,std::char_traits<char>,std::allocator<char> >,std::allocator<std::basic_string<char,std::char_traits<char>,std::allocator<char> > > >
_TEXT	ENDS
PUBLIC	??0?$_Vector_val@UStringTick@TutorialWnd@@V?$allocator@UStringTick@TutorialWnd@@@std@@@std@@QAE@V?$allocator@UStringTick@TutorialWnd@@@1@@Z ; std::_Vector_val<TutorialWnd::StringTick,std::allocator<TutorialWnd::StringTick> >::_Vector_val<TutorialWnd::StringTick,std::allocator<TutorialWnd::StringTick> >
; Function compile flags: /Ogsp
;	COMDAT ??0?$_Vector_val@UStringTick@TutorialWnd@@V?$allocator@UStringTick@TutorialWnd@@@std@@@std@@QAE@V?$allocator@UStringTick@TutorialWnd@@@1@@Z
_TEXT	SEGMENT
__Al$ = 8						; size = 1
??0?$_Vector_val@UStringTick@TutorialWnd@@V?$allocator@UStringTick@TutorialWnd@@@std@@@std@@QAE@V?$allocator@UStringTick@TutorialWnd@@@1@@Z PROC ; std::_Vector_val<TutorialWnd::StringTick,std::allocator<TutorialWnd::StringTick> >::_Vector_val<TutorialWnd::StringTick,std::allocator<TutorialWnd::StringTick> >, COMDAT
; _this$ = ecx

; 426  : 		{	// construct allocator from _Al

  00000	8b c1		 mov	 eax, ecx

; 427  : 		_Myfirst = 0;

  00002	33 c9		 xor	 ecx, ecx
  00004	89 08		 mov	 DWORD PTR [eax], ecx

; 428  : 		_Mylast = 0;

  00006	89 48 04	 mov	 DWORD PTR [eax+4], ecx

; 429  : 		_Myend = 0;

  00009	89 48 08	 mov	 DWORD PTR [eax+8], ecx

; 430  : 		}

  0000c	c2 04 00	 ret	 4
??0?$_Vector_val@UStringTick@TutorialWnd@@V?$allocator@UStringTick@TutorialWnd@@@std@@@std@@QAE@V?$allocator@UStringTick@TutorialWnd@@@1@@Z ENDP ; std::_Vector_val<TutorialWnd::StringTick,std::allocator<TutorialWnd::StringTick> >::_Vector_val<TutorialWnd::StringTick,std::allocator<TutorialWnd::StringTick> >
_TEXT	ENDS
PUBLIC	??0?$_Vector_iterator@V?$_Vector_val@PAVioUIRenderImage@@V?$allocator@PAVioUIRenderImage@@@std@@@std@@@std@@QAE@PAPAVioUIRenderImage@@PBU_Container_base0@1@@Z ; std::_Vector_iterator<std::_Vector_val<ioUIRenderImage *,std::allocator<ioUIRenderImage *> > >::_Vector_iterator<std::_Vector_val<ioUIRenderImage *,std::allocator<ioUIRenderImage *> > >
; Function compile flags: /Ogsp
;	COMDAT ??0?$_Vector_iterator@V?$_Vector_val@PAVioUIRenderImage@@V?$allocator@PAVioUIRenderImage@@@std@@@std@@@std@@QAE@PAPAVioUIRenderImage@@PBU_Container_base0@1@@Z
_TEXT	SEGMENT
__Parg$ = 8						; size = 4
__Pvector$ = 12						; size = 4
??0?$_Vector_iterator@V?$_Vector_val@PAVioUIRenderImage@@V?$allocator@PAVioUIRenderImage@@@std@@@std@@@std@@QAE@PAPAVioUIRenderImage@@PBU_Container_base0@1@@Z PROC ; std::_Vector_iterator<std::_Vector_val<ioUIRenderImage *,std::allocator<ioUIRenderImage *> > >::_Vector_iterator<std::_Vector_val<ioUIRenderImage *,std::allocator<ioUIRenderImage *> > >, COMDAT
; _this$ = ecx

; 304  : 		{	// construct with pointer _Parg

  00000	55		 push	 ebp
  00001	8b ec		 mov	 ebp, esp
  00003	8b c1		 mov	 eax, ecx
  00005	8b 4d 08	 mov	 ecx, DWORD PTR __Parg$[ebp]
  00008	89 08		 mov	 DWORD PTR [eax], ecx

; 305  : 		}

  0000a	5d		 pop	 ebp
  0000b	c2 08 00	 ret	 8
??0?$_Vector_iterator@V?$_Vector_val@PAVioUIRenderImage@@V?$allocator@PAVioUIRenderImage@@@std@@@std@@@std@@QAE@PAPAVioUIRenderImage@@PBU_Container_base0@1@@Z ENDP ; std::_Vector_iterator<std::_Vector_val<ioUIRenderImage *,std::allocator<ioUIRenderImage *> > >::_Vector_iterator<std::_Vector_val<ioUIRenderImage *,std::allocator<ioUIRenderImage *> > >
_TEXT	ENDS
PUBLIC	??8?$_Vector_const_iterator@V?$_Vector_val@PAVioUIRenderImage@@V?$allocator@PAVioUIRenderImage@@@std@@@std@@@std@@QBE_NABV01@@Z ; std::_Vector_const_iterator<std::_Vector_val<ioUIRenderImage *,std::allocator<ioUIRenderImage *> > >::operator==
; Function compile flags: /Ogsp
;	COMDAT ??8?$_Vector_const_iterator@V?$_Vector_val@PAVioUIRenderImage@@V?$allocator@PAVioUIRenderImage@@@std@@@std@@@std@@QBE_NABV01@@Z
_TEXT	SEGMENT
__Right$ = 8						; size = 4
??8?$_Vector_const_iterator@V?$_Vector_val@PAVioUIRenderImage@@V?$allocator@PAVioUIRenderImage@@@std@@@std@@@std@@QBE_NABV01@@Z PROC ; std::_Vector_const_iterator<std::_Vector_val<ioUIRenderImage *,std::allocator<ioUIRenderImage *> > >::operator==, COMDAT
; _this$ = ecx

; 201  : 		{	// test for iterator equality

  00000	55		 push	 ebp
  00001	8b ec		 mov	 ebp, esp

; 202  : 		_Compat(_Right);
; 203  : 		return (this->_Ptr == _Right._Ptr);

  00003	8b 01		 mov	 eax, DWORD PTR [ecx]
  00005	8b 4d 08	 mov	 ecx, DWORD PTR __Right$[ebp]
  00008	2b 01		 sub	 eax, DWORD PTR [ecx]
  0000a	f7 d8		 neg	 eax
  0000c	1b c0		 sbb	 eax, eax
  0000e	40		 inc	 eax

; 204  : 		}

  0000f	5d		 pop	 ebp
  00010	c2 04 00	 ret	 4
??8?$_Vector_const_iterator@V?$_Vector_val@PAVioUIRenderImage@@V?$allocator@PAVioUIRenderImage@@@std@@@std@@@std@@QBE_NABV01@@Z ENDP ; std::_Vector_const_iterator<std::_Vector_val<ioUIRenderImage *,std::allocator<ioUIRenderImage *> > >::operator==
_TEXT	ENDS
PUBLIC	?max_size@?$vector@V?$basic_string@DU?$char_traits@D@std@@V?$allocator@D@2@@std@@V?$allocator@V?$basic_string@DU?$char_traits@D@std@@V?$allocator@D@2@@std@@@2@@std@@QBEIXZ ; std::vector<std::basic_string<char,std::char_traits<char>,std::allocator<char> >,std::allocator<std::basic_string<char,std::char_traits<char>,std::allocator<char> > > >::max_size
; Function compile flags: /Ogsp
;	COMDAT ?max_size@?$vector@V?$basic_string@DU?$char_traits@D@std@@V?$allocator@D@2@@std@@V?$allocator@V?$basic_string@DU?$char_traits@D@std@@V?$allocator@D@2@@std@@@2@@std@@QBEIXZ
_TEXT	SEGMENT
?max_size@?$vector@V?$basic_string@DU?$char_traits@D@std@@V?$allocator@D@2@@std@@V?$allocator@V?$basic_string@DU?$char_traits@D@std@@V?$allocator@D@2@@std@@@2@@std@@QBEIXZ PROC ; std::vector<std::basic_string<char,std::char_traits<char>,std::allocator<char> >,std::allocator<std::basic_string<char,std::char_traits<char>,std::allocator<char> > > >::max_size, COMDAT
; _this$ = ecx

; 884  : 		return (this->_Alval.max_size());

  00000	b8 49 92 24 09	 mov	 eax, 153391689		; 09249249H

; 885  : 		}

  00005	c3		 ret	 0
?max_size@?$vector@V?$basic_string@DU?$char_traits@D@std@@V?$allocator@D@2@@std@@V?$allocator@V?$basic_string@DU?$char_traits@D@std@@V?$allocator@D@2@@std@@@2@@std@@QBEIXZ ENDP ; std::vector<std::basic_string<char,std::char_traits<char>,std::allocator<char> >,std::allocator<std::basic_string<char,std::char_traits<char>,std::allocator<char> > > >::max_size
_TEXT	ENDS
PUBLIC	?allocate@?$allocator@V?$basic_string@DU?$char_traits@D@std@@V?$allocator@D@2@@std@@@std@@QAEPAV?$basic_string@DU?$char_traits@D@std@@V?$allocator@D@2@@2@I@Z ; std::allocator<std::basic_string<char,std::char_traits<char>,std::allocator<char> > >::allocate
; Function compile flags: /Ogsp
; File c:\program files (x86)\microsoft visual studio 10.0\vc\include\xmemory
;	COMDAT ?allocate@?$allocator@V?$basic_string@DU?$char_traits@D@std@@V?$allocator@D@2@@std@@@std@@QAEPAV?$basic_string@DU?$char_traits@D@std@@V?$allocator@D@2@@2@I@Z
_TEXT	SEGMENT
__Count$ = 8						; size = 4
?allocate@?$allocator@V?$basic_string@DU?$char_traits@D@std@@V?$allocator@D@2@@std@@@std@@QAEPAV?$basic_string@DU?$char_traits@D@std@@V?$allocator@D@2@@2@I@Z PROC ; std::allocator<std::basic_string<char,std::char_traits<char>,std::allocator<char> > >::allocate, COMDAT
; _this$ = ecx

; 186  : 		{	// allocate array of _Count elements

  00000	55		 push	 ebp
  00001	8b ec		 mov	 ebp, esp

; 187  : 		return (_Allocate(_Count, (pointer)0));

  00003	6a 00		 push	 0
  00005	ff 75 08	 push	 DWORD PTR __Count$[ebp]
  00008	e8 00 00 00 00	 call	 ??$_Allocate@V?$basic_string@DU?$char_traits@D@std@@V?$allocator@D@2@@std@@@std@@YAPAV?$basic_string@DU?$char_traits@D@std@@V?$allocator@D@2@@0@IPAV10@@Z ; std::_Allocate<std::basic_string<char,std::char_traits<char>,std::allocator<char> > >
  0000d	59		 pop	 ecx
  0000e	59		 pop	 ecx

; 188  : 		}

  0000f	5d		 pop	 ebp
  00010	c2 04 00	 ret	 4
?allocate@?$allocator@V?$basic_string@DU?$char_traits@D@std@@V?$allocator@D@2@@std@@@std@@QAEPAV?$basic_string@DU?$char_traits@D@std@@V?$allocator@D@2@@2@I@Z ENDP ; std::allocator<std::basic_string<char,std::char_traits<char>,std::allocator<char> > >::allocate
_TEXT	ENDS
PUBLIC	?max_size@?$vector@UStringTick@TutorialWnd@@V?$allocator@UStringTick@TutorialWnd@@@std@@@std@@QBEIXZ ; std::vector<TutorialWnd::StringTick,std::allocator<TutorialWnd::StringTick> >::max_size
; Function compile flags: /Ogsp
; File c:\program files (x86)\microsoft visual studio 10.0\vc\include\vector
;	COMDAT ?max_size@?$vector@UStringTick@TutorialWnd@@V?$allocator@UStringTick@TutorialWnd@@@std@@@std@@QBEIXZ
_TEXT	SEGMENT
?max_size@?$vector@UStringTick@TutorialWnd@@V?$allocator@UStringTick@TutorialWnd@@@std@@@std@@QBEIXZ PROC ; std::vector<TutorialWnd::StringTick,std::allocator<TutorialWnd::StringTick> >::max_size, COMDAT
; _this$ = ecx

; 884  : 		return (this->_Alval.max_size());

  00000	b8 c0 0f fc 00	 mov	 eax, 16519104		; 00fc0fc0H

; 885  : 		}

  00005	c3		 ret	 0
?max_size@?$vector@UStringTick@TutorialWnd@@V?$allocator@UStringTick@TutorialWnd@@@std@@@std@@QBEIXZ ENDP ; std::vector<TutorialWnd::StringTick,std::allocator<TutorialWnd::StringTick> >::max_size
_TEXT	ENDS
PUBLIC	?_Grow_to@?$vector@UStringTick@TutorialWnd@@V?$allocator@UStringTick@TutorialWnd@@@std@@@std@@IBEII@Z ; std::vector<TutorialWnd::StringTick,std::allocator<TutorialWnd::StringTick> >::_Grow_to
; Function compile flags: /Ogsp
;	COMDAT ?_Grow_to@?$vector@UStringTick@TutorialWnd@@V?$allocator@UStringTick@TutorialWnd@@@std@@@std@@IBEII@Z
_TEXT	SEGMENT
__Count$ = 8						; size = 4
?_Grow_to@?$vector@UStringTick@TutorialWnd@@V?$allocator@UStringTick@TutorialWnd@@@std@@@std@@IBEII@Z PROC ; std::vector<TutorialWnd::StringTick,std::allocator<TutorialWnd::StringTick> >::_Grow_to, COMDAT
; _this$ = ecx

; 1274 : 		{	// grow by 50% or at least to _Count

  00000	55		 push	 ebp
  00001	8b ec		 mov	 ebp, esp

; 1275 : 		size_type _Capacity = capacity();

  00003	8b 41 08	 mov	 eax, DWORD PTR [ecx+8]
  00006	2b 01		 sub	 eax, DWORD PTR [ecx]
  00008	b9 04 01 00 00	 mov	 ecx, 260		; 00000104H
  0000d	99		 cdq
  0000e	f7 f9		 idiv	 ecx

; 1276 : 
; 1277 : 		_Capacity = max_size() - _Capacity / 2 < _Capacity
; 1278 : 			? 0 : _Capacity + _Capacity / 2;	// try to grow by 50%

  00010	ba c0 0f fc 00	 mov	 edx, 16519104		; 00fc0fc0H
  00015	8b c8		 mov	 ecx, eax
  00017	d1 e9		 shr	 ecx, 1
  00019	2b d1		 sub	 edx, ecx
  0001b	3b d0		 cmp	 edx, eax
  0001d	73 04		 jae	 SHORT $LN4@Grow_to
  0001f	33 c0		 xor	 eax, eax
  00021	eb 02		 jmp	 SHORT $LN5@Grow_to
$LN4@Grow_to:
  00023	03 c1		 add	 eax, ecx
$LN5@Grow_to:

; 1279 : 		if (_Capacity < _Count)

  00025	3b 45 08	 cmp	 eax, DWORD PTR __Count$[ebp]

; 1280 : 			_Capacity = _Count;

  00028	0f 42 45 08	 cmovb	 eax, DWORD PTR __Count$[ebp]

; 1281 : 		return (_Capacity);
; 1282 : 		}

  0002c	5d		 pop	 ebp
  0002d	c2 04 00	 ret	 4
?_Grow_to@?$vector@UStringTick@TutorialWnd@@V?$allocator@UStringTick@TutorialWnd@@@std@@@std@@IBEII@Z ENDP ; std::vector<TutorialWnd::StringTick,std::allocator<TutorialWnd::StringTick> >::_Grow_to
_TEXT	ENDS
PUBLIC	??0?$_Vector_iterator@V?$_Vector_val@V?$basic_string@DU?$char_traits@D@std@@V?$allocator@D@2@@std@@V?$allocator@V?$basic_string@DU?$char_traits@D@std@@V?$allocator@D@2@@std@@@2@@std@@@std@@QAE@PAV?$basic_string@DU?$char_traits@D@std@@V?$allocator@D@2@@1@PBU_Container_base0@1@@Z ; std::_Vector_iterator<std::_Vector_val<std::basic_string<char,std::char_traits<char>,std::allocator<char> >,std::allocator<std::basic_string<char,std::char_traits<char>,std::allocator<char> > > > >::_Vector_iterator<std::_Vector_val<std::basic_string<char,std::char_traits<char>,std::allocator<char> >,std::allocator<std::basic_string<char,std::char_traits<char>,std::allocator<char> > > > >
; Function compile flags: /Ogsp
;	COMDAT ??0?$_Vector_iterator@V?$_Vector_val@V?$basic_string@DU?$char_traits@D@std@@V?$allocator@D@2@@std@@V?$allocator@V?$basic_string@DU?$char_traits@D@std@@V?$allocator@D@2@@std@@@2@@std@@@std@@QAE@PAV?$basic_string@DU?$char_traits@D@std@@V?$allocator@D@2@@1@PBU_Container_base0@1@@Z
_TEXT	SEGMENT
__Parg$ = 8						; size = 4
__Pvector$ = 12						; size = 4
??0?$_Vector_iterator@V?$_Vector_val@V?$basic_string@DU?$char_traits@D@std@@V?$allocator@D@2@@std@@V?$allocator@V?$basic_string@DU?$char_traits@D@std@@V?$allocator@D@2@@std@@@2@@std@@@std@@QAE@PAV?$basic_string@DU?$char_traits@D@std@@V?$allocator@D@2@@1@PBU_Container_base0@1@@Z PROC ; std::_Vector_iterator<std::_Vector_val<std::basic_string<char,std::char_traits<char>,std::allocator<char> >,std::allocator<std::basic_string<char,std::char_traits<char>,std::allocator<char> > > > >::_Vector_iterator<std::_Vector_val<std::basic_string<char,std::char_traits<char>,std::allocator<char> >,std::allocator<std::basic_string<char,std::char_traits<char>,std::allocator<char> > > > >, COMDAT
; _this$ = ecx

; 304  : 		{	// construct with pointer _Parg

  00000	55		 push	 ebp
  00001	8b ec		 mov	 ebp, esp
  00003	8b c1		 mov	 eax, ecx
  00005	8b 4d 08	 mov	 ecx, DWORD PTR __Parg$[ebp]
  00008	89 08		 mov	 DWORD PTR [eax], ecx

; 305  : 		}

  0000a	5d		 pop	 ebp
  0000b	c2 08 00	 ret	 8
??0?$_Vector_iterator@V?$_Vector_val@V?$basic_string@DU?$char_traits@D@std@@V?$allocator@D@2@@std@@V?$allocator@V?$basic_string@DU?$char_traits@D@std@@V?$allocator@D@2@@std@@@2@@std@@@std@@QAE@PAV?$basic_string@DU?$char_traits@D@std@@V?$allocator@D@2@@1@PBU_Container_base0@1@@Z ENDP ; std::_Vector_iterator<std::_Vector_val<std::basic_string<char,std::char_traits<char>,std::allocator<char> >,std::allocator<std::basic_string<char,std::char_traits<char>,std::allocator<char> > > > >::_Vector_iterator<std::_Vector_val<std::basic_string<char,std::char_traits<char>,std::allocator<char> >,std::allocator<std::basic_string<char,std::char_traits<char>,std::allocator<char> > > > >
_TEXT	ENDS
PUBLIC	??0?$_Vector_iterator@V?$_Vector_val@UStringTick@TutorialWnd@@V?$allocator@UStringTick@TutorialWnd@@@std@@@std@@@std@@QAE@PAUStringTick@TutorialWnd@@PBU_Container_base0@1@@Z ; std::_Vector_iterator<std::_Vector_val<TutorialWnd::StringTick,std::allocator<TutorialWnd::StringTick> > >::_Vector_iterator<std::_Vector_val<TutorialWnd::StringTick,std::allocator<TutorialWnd::StringTick> > >
; Function compile flags: /Ogsp
;	COMDAT ??0?$_Vector_iterator@V?$_Vector_val@UStringTick@TutorialWnd@@V?$allocator@UStringTick@TutorialWnd@@@std@@@std@@@std@@QAE@PAUStringTick@TutorialWnd@@PBU_Container_base0@1@@Z
_TEXT	SEGMENT
__Parg$ = 8						; size = 4
__Pvector$ = 12						; size = 4
??0?$_Vector_iterator@V?$_Vector_val@UStringTick@TutorialWnd@@V?$allocator@UStringTick@TutorialWnd@@@std@@@std@@@std@@QAE@PAUStringTick@TutorialWnd@@PBU_Container_base0@1@@Z PROC ; std::_Vector_iterator<std::_Vector_val<TutorialWnd::StringTick,std::allocator<TutorialWnd::StringTick> > >::_Vector_iterator<std::_Vector_val<TutorialWnd::StringTick,std::allocator<TutorialWnd::StringTick> > >, COMDAT
; _this$ = ecx

; 304  : 		{	// construct with pointer _Parg

  00000	55		 push	 ebp
  00001	8b ec		 mov	 ebp, esp
  00003	8b c1		 mov	 eax, ecx
  00005	8b 4d 08	 mov	 ecx, DWORD PTR __Parg$[ebp]
  00008	89 08		 mov	 DWORD PTR [eax], ecx

; 305  : 		}

  0000a	5d		 pop	 ebp
  0000b	c2 08 00	 ret	 8
??0?$_Vector_iterator@V?$_Vector_val@UStringTick@TutorialWnd@@V?$allocator@UStringTick@TutorialWnd@@@std@@@std@@@std@@QAE@PAUStringTick@TutorialWnd@@PBU_Container_base0@1@@Z ENDP ; std::_Vector_iterator<std::_Vector_val<TutorialWnd::StringTick,std::allocator<TutorialWnd::StringTick> > >::_Vector_iterator<std::_Vector_val<TutorialWnd::StringTick,std::allocator<TutorialWnd::StringTick> > >
_TEXT	ENDS
PUBLIC	?allocate@?$allocator@UStringTick@TutorialWnd@@@std@@QAEPAUStringTick@TutorialWnd@@I@Z ; std::allocator<TutorialWnd::StringTick>::allocate
; Function compile flags: /Ogsp
; File c:\program files (x86)\microsoft visual studio 10.0\vc\include\xmemory
;	COMDAT ?allocate@?$allocator@UStringTick@TutorialWnd@@@std@@QAEPAUStringTick@TutorialWnd@@I@Z
_TEXT	SEGMENT
__Count$ = 8						; size = 4
?allocate@?$allocator@UStringTick@TutorialWnd@@@std@@QAEPAUStringTick@TutorialWnd@@I@Z PROC ; std::allocator<TutorialWnd::StringTick>::allocate, COMDAT
; _this$ = ecx

; 186  : 		{	// allocate array of _Count elements

  00000	55		 push	 ebp
  00001	8b ec		 mov	 ebp, esp

; 187  : 		return (_Allocate(_Count, (pointer)0));

  00003	6a 00		 push	 0
  00005	ff 75 08	 push	 DWORD PTR __Count$[ebp]
  00008	e8 00 00 00 00	 call	 ??$_Allocate@UStringTick@TutorialWnd@@@std@@YAPAUStringTick@TutorialWnd@@IPAU12@@Z ; std::_Allocate<TutorialWnd::StringTick>
  0000d	59		 pop	 ecx
  0000e	59		 pop	 ecx

; 188  : 		}

  0000f	5d		 pop	 ebp
  00010	c2 04 00	 ret	 4
?allocate@?$allocator@UStringTick@TutorialWnd@@@std@@QAEPAUStringTick@TutorialWnd@@I@Z ENDP ; std::allocator<TutorialWnd::StringTick>::allocate
_TEXT	ENDS
PUBLIC	??8?$_Vector_const_iterator@V?$_Vector_val@V?$basic_string@DU?$char_traits@D@std@@V?$allocator@D@2@@std@@V?$allocator@V?$basic_string@DU?$char_traits@D@std@@V?$allocator@D@2@@std@@@2@@std@@@std@@QBE_NABV01@@Z ; std::_Vector_const_iterator<std::_Vector_val<std::basic_string<char,std::char_traits<char>,std::allocator<char> >,std::allocator<std::basic_string<char,std::char_traits<char>,std::allocator<char> > > > >::operator==
; Function compile flags: /Ogsp
; File c:\program files (x86)\microsoft visual studio 10.0\vc\include\vector
;	COMDAT ??8?$_Vector_const_iterator@V?$_Vector_val@V?$basic_string@DU?$char_traits@D@std@@V?$allocator@D@2@@std@@V?$allocator@V?$basic_string@DU?$char_traits@D@std@@V?$allocator@D@2@@std@@@2@@std@@@std@@QBE_NABV01@@Z
_TEXT	SEGMENT
__Right$ = 8						; size = 4
??8?$_Vector_const_iterator@V?$_Vector_val@V?$basic_string@DU?$char_traits@D@std@@V?$allocator@D@2@@std@@V?$allocator@V?$basic_string@DU?$char_traits@D@std@@V?$allocator@D@2@@std@@@2@@std@@@std@@QBE_NABV01@@Z PROC ; std::_Vector_const_iterator<std::_Vector_val<std::basic_string<char,std::char_traits<char>,std::allocator<char> >,std::allocator<std::basic_string<char,std::char_traits<char>,std::allocator<char> > > > >::operator==, COMDAT
; _this$ = ecx

; 201  : 		{	// test for iterator equality

  00000	55		 push	 ebp
  00001	8b ec		 mov	 ebp, esp

; 202  : 		_Compat(_Right);
; 203  : 		return (this->_Ptr == _Right._Ptr);

  00003	8b 01		 mov	 eax, DWORD PTR [ecx]
  00005	8b 4d 08	 mov	 ecx, DWORD PTR __Right$[ebp]
  00008	2b 01		 sub	 eax, DWORD PTR [ecx]
  0000a	f7 d8		 neg	 eax
  0000c	1b c0		 sbb	 eax, eax
  0000e	40		 inc	 eax

; 204  : 		}

  0000f	5d		 pop	 ebp
  00010	c2 04 00	 ret	 4
??8?$_Vector_const_iterator@V?$_Vector_val@V?$basic_string@DU?$char_traits@D@std@@V?$allocator@D@2@@std@@V?$allocator@V?$basic_string@DU?$char_traits@D@std@@V?$allocator@D@2@@std@@@2@@std@@@std@@QBE_NABV01@@Z ENDP ; std::_Vector_const_iterator<std::_Vector_val<std::basic_string<char,std::char_traits<char>,std::allocator<char> >,std::allocator<std::basic_string<char,std::char_traits<char>,std::allocator<char> > > > >::operator==
_TEXT	ENDS
PUBLIC	??8?$_Vector_const_iterator@V?$_Vector_val@UStringTick@TutorialWnd@@V?$allocator@UStringTick@TutorialWnd@@@std@@@std@@@std@@QBE_NABV01@@Z ; std::_Vector_const_iterator<std::_Vector_val<TutorialWnd::StringTick,std::allocator<TutorialWnd::StringTick> > >::operator==
; Function compile flags: /Ogsp
;	COMDAT ??8?$_Vector_const_iterator@V?$_Vector_val@UStringTick@TutorialWnd@@V?$allocator@UStringTick@TutorialWnd@@@std@@@std@@@std@@QBE_NABV01@@Z
_TEXT	SEGMENT
__Right$ = 8						; size = 4
??8?$_Vector_const_iterator@V?$_Vector_val@UStringTick@TutorialWnd@@V?$allocator@UStringTick@TutorialWnd@@@std@@@std@@@std@@QBE_NABV01@@Z PROC ; std::_Vector_const_iterator<std::_Vector_val<TutorialWnd::StringTick,std::allocator<TutorialWnd::StringTick> > >::operator==, COMDAT
; _this$ = ecx

; 201  : 		{	// test for iterator equality

  00000	55		 push	 ebp
  00001	8b ec		 mov	 ebp, esp

; 202  : 		_Compat(_Right);
; 203  : 		return (this->_Ptr == _Right._Ptr);

  00003	8b 01		 mov	 eax, DWORD PTR [ecx]
  00005	8b 4d 08	 mov	 ecx, DWORD PTR __Right$[ebp]
  00008	2b 01		 sub	 eax, DWORD PTR [ecx]
  0000a	f7 d8		 neg	 eax
  0000c	1b c0		 sbb	 eax, eax
  0000e	40		 inc	 eax

; 204  : 		}

  0000f	5d		 pop	 ebp
  00010	c2 04 00	 ret	 4
??8?$_Vector_const_iterator@V?$_Vector_val@UStringTick@TutorialWnd@@V?$allocator@UStringTick@TutorialWnd@@@std@@@std@@@std@@QBE_NABV01@@Z ENDP ; std::_Vector_const_iterator<std::_Vector_val<TutorialWnd::StringTick,std::allocator<TutorialWnd::StringTick> > >::operator==
_TEXT	ENDS
PUBLIC	__$ArrayPad$
PUBLIC	??$GetIntAttribute_e@$0L@@ioXMLElement@@QBEHAAY0L@$$CBD@Z ; ioXMLElement::GetIntAttribute_e<11>
EXTRN	__imp_?GetIntAttribute@ioXMLElement@@QBEHPBD@Z:PROC
EXTRN	___security_cookie:DWORD
; Function compile flags: /Ogsp
; File d:\lost saga for developer\youtube\tutorial\source\src\io3dengine\ioxmlelement.h
;	COMDAT ??$GetIntAttribute_e@$0L@@ioXMLElement@@QBEHAAY0L@$$CBD@Z
_TEXT	SEGMENT
__k$ = -20						; size = 11
__$ArrayPad$ = -4					; size = 4
_k$ = 8							; size = 4
??$GetIntAttribute_e@$0L@@ioXMLElement@@QBEHAAY0L@$$CBD@Z PROC ; ioXMLElement::GetIntAttribute_e<11>, COMDAT
; _this$ = ecx

; 86   : 	{

  00000	55		 push	 ebp
  00001	8b ec		 mov	 ebp, esp
  00003	83 ec 14	 sub	 esp, 20			; 00000014H
  00006	a1 00 00 00 00	 mov	 eax, DWORD PTR ___security_cookie
  0000b	33 c5		 xor	 eax, ebp
  0000d	89 45 fc	 mov	 DWORD PTR __$ArrayPad$[ebp], eax
  00010	8b 45 08	 mov	 eax, DWORD PTR _k$[ebp]

; 87   : 		_ENCSTR(k, _k);

  00013	8a 10		 mov	 dl, BYTE PTR [eax]
  00015	56		 push	 esi
  00016	8b f1		 mov	 esi, ecx
  00018	84 d2		 test	 dl, dl
  0001a	0f 84 24 01 00
	00		 je	 $LN96@GetIntAttr
  00020	80 f2 ed	 xor	 dl, -19			; ffffffedH
  00023	88 55 ec	 mov	 BYTE PTR __k$[ebp], dl
  00026	8a 50 01	 mov	 dl, BYTE PTR [eax+1]
  00029	84 d2		 test	 dl, dl
  0002b	0f 84 0d 01 00
	00		 je	 $LN95@GetIntAttr
  00031	80 f2 ec	 xor	 dl, -20			; ffffffecH
  00034	88 55 ed	 mov	 BYTE PTR __k$[ebp+1], dl
  00037	8a 50 02	 mov	 dl, BYTE PTR [eax+2]
  0003a	84 d2		 test	 dl, dl
  0003c	0f 84 f6 00 00
	00		 je	 $LN94@GetIntAttr
  00042	80 f2 eb	 xor	 dl, -21			; ffffffebH
  00045	88 55 ee	 mov	 BYTE PTR __k$[ebp+2], dl
  00048	8a 50 03	 mov	 dl, BYTE PTR [eax+3]
  0004b	84 d2		 test	 dl, dl
  0004d	0f 84 df 00 00
	00		 je	 $LN93@GetIntAttr
  00053	80 f2 ea	 xor	 dl, -22			; ffffffeaH
  00056	88 55 ef	 mov	 BYTE PTR __k$[ebp+3], dl
  00059	8a 50 04	 mov	 dl, BYTE PTR [eax+4]
  0005c	84 d2		 test	 dl, dl
  0005e	0f 84 c8 00 00
	00		 je	 $LN92@GetIntAttr
  00064	80 f2 ed	 xor	 dl, -19			; ffffffedH
  00067	88 55 f0	 mov	 BYTE PTR __k$[ebp+4], dl
  0006a	8a 50 05	 mov	 dl, BYTE PTR [eax+5]
  0006d	84 d2		 test	 dl, dl
  0006f	0f 84 b1 00 00
	00		 je	 $LN91@GetIntAttr
  00075	80 f2 ec	 xor	 dl, -20			; ffffffecH
  00078	88 55 f1	 mov	 BYTE PTR __k$[ebp+5], dl
  0007b	8a 50 06	 mov	 dl, BYTE PTR [eax+6]
  0007e	84 d2		 test	 dl, dl
  00080	0f 84 9a 00 00
	00		 je	 $LN90@GetIntAttr
  00086	80 f2 eb	 xor	 dl, -21			; ffffffebH
  00089	88 55 f2	 mov	 BYTE PTR __k$[ebp+6], dl
  0008c	8a 50 07	 mov	 dl, BYTE PTR [eax+7]
  0008f	84 d2		 test	 dl, dl
  00091	0f 84 83 00 00
	00		 je	 $LN89@GetIntAttr
  00097	80 f2 ea	 xor	 dl, -22			; ffffffeaH
  0009a	88 55 f3	 mov	 BYTE PTR __k$[ebp+7], dl
  0009d	8a 50 08	 mov	 dl, BYTE PTR [eax+8]
  000a0	84 d2		 test	 dl, dl
  000a2	74 70		 je	 SHORT $LN88@GetIntAttr
  000a4	80 f2 ed	 xor	 dl, -19			; ffffffedH
  000a7	88 55 f4	 mov	 BYTE PTR __k$[ebp+8], dl
  000aa	8a 50 09	 mov	 dl, BYTE PTR [eax+9]
  000ad	84 d2		 test	 dl, dl
  000af	74 5d		 je	 SHORT $LN87@GetIntAttr
  000b1	80 f2 ec	 xor	 dl, -20			; ffffffecH
  000b4	80 78 0a 00	 cmp	 BYTE PTR [eax+10], 0
  000b8	88 55 f5	 mov	 BYTE PTR __k$[ebp+9], dl
  000bb	0f 84 87 00 00
	00		 je	 $LN1@GetIntAttr
  000c1	8a 50 0b	 mov	 dl, BYTE PTR [eax+11]
  000c4	84 d2		 test	 dl, dl
  000c6	74 40		 je	 SHORT $LN85@GetIntAttr
  000c8	80 f2 ea	 xor	 dl, -22			; ffffffeaH
  000cb	88 55 f7	 mov	 BYTE PTR __k$[ebp+11], dl
  000ce	8a 50 0c	 mov	 dl, BYTE PTR [eax+12]
  000d1	84 d2		 test	 dl, dl
  000d3	74 2d		 je	 SHORT $LN84@GetIntAttr
  000d5	80 f2 ed	 xor	 dl, -19			; ffffffedH
  000d8	88 55 f8	 mov	 BYTE PTR __k$[ebp+12], dl
  000db	8a 50 0d	 mov	 dl, BYTE PTR [eax+13]
  000de	84 d2		 test	 dl, dl
  000e0	74 1a		 je	 SHORT $LN83@GetIntAttr
  000e2	8a 40 0e	 mov	 al, BYTE PTR [eax+14]
  000e5	80 f2 ec	 xor	 dl, -20			; ffffffecH
  000e8	88 55 f9	 mov	 BYTE PTR __k$[ebp+13], dl
  000eb	84 c0		 test	 al, al
  000ed	74 07		 je	 SHORT $LN82@GetIntAttr
  000ef	34 eb		 xor	 al, -21			; ffffffebH
  000f1	88 45 fa	 mov	 BYTE PTR __k$[ebp+14], al
  000f4	eb 52		 jmp	 SHORT $LN1@GetIntAttr
$LN82@GetIntAttr:
  000f6	c6 45 fa eb	 mov	 BYTE PTR __k$[ebp+14], -21 ; ffffffebH
  000fa	eb 4c		 jmp	 SHORT $LN1@GetIntAttr
$LN83@GetIntAttr:
  000fc	c6 45 f9 ec	 mov	 BYTE PTR __k$[ebp+13], -20 ; ffffffecH
  00100	eb 46		 jmp	 SHORT $LN1@GetIntAttr
$LN84@GetIntAttr:
  00102	c6 45 f8 ed	 mov	 BYTE PTR __k$[ebp+12], -19 ; ffffffedH
  00106	eb 40		 jmp	 SHORT $LN1@GetIntAttr
$LN85@GetIntAttr:
  00108	c6 45 f7 ea	 mov	 BYTE PTR __k$[ebp+11], -22 ; ffffffeaH
  0010c	eb 3a		 jmp	 SHORT $LN1@GetIntAttr
$LN87@GetIntAttr:
  0010e	c6 45 f5 ec	 mov	 BYTE PTR __k$[ebp+9], -20 ; ffffffecH
  00112	eb 34		 jmp	 SHORT $LN1@GetIntAttr
$LN88@GetIntAttr:
  00114	c6 45 f4 ed	 mov	 BYTE PTR __k$[ebp+8], -19 ; ffffffedH
  00118	eb 2e		 jmp	 SHORT $LN1@GetIntAttr
$LN89@GetIntAttr:
  0011a	c6 45 f3 ea	 mov	 BYTE PTR __k$[ebp+7], -22 ; ffffffeaH
  0011e	eb 28		 jmp	 SHORT $LN1@GetIntAttr
$LN90@GetIntAttr:
  00120	c6 45 f2 eb	 mov	 BYTE PTR __k$[ebp+6], -21 ; ffffffebH
  00124	eb 22		 jmp	 SHORT $LN1@GetIntAttr
$LN91@GetIntAttr:
  00126	c6 45 f1 ec	 mov	 BYTE PTR __k$[ebp+5], -20 ; ffffffecH
  0012a	eb 1c		 jmp	 SHORT $LN1@GetIntAttr
$LN92@GetIntAttr:
  0012c	c6 45 f0 ed	 mov	 BYTE PTR __k$[ebp+4], -19 ; ffffffedH
  00130	eb 16		 jmp	 SHORT $LN1@GetIntAttr
$LN93@GetIntAttr:
  00132	c6 45 ef ea	 mov	 BYTE PTR __k$[ebp+3], -22 ; ffffffeaH
  00136	eb 10		 jmp	 SHORT $LN1@GetIntAttr
$LN94@GetIntAttr:
  00138	c6 45 ee eb	 mov	 BYTE PTR __k$[ebp+2], -21 ; ffffffebH
  0013c	eb 0a		 jmp	 SHORT $LN1@GetIntAttr
$LN95@GetIntAttr:
  0013e	c6 45 ed ec	 mov	 BYTE PTR __k$[ebp+1], -20 ; ffffffecH
  00142	eb 04		 jmp	 SHORT $LN1@GetIntAttr
$LN96@GetIntAttr:
  00144	c6 45 ec ed	 mov	 BYTE PTR __k$[ebp], -19	; ffffffedH
$LN1@GetIntAttr:
  00148	6a 02		 push	 2
  0014a	8d 45 ec	 lea	 eax, DWORD PTR __k$[ebp]
  0014d	c6 45 f6 00	 mov	 BYTE PTR __k$[ebp+10], 0
  00151	5a		 pop	 edx
$LL104@GetIntAttr:
  00152	81 30 ed ec eb
	ea		 xor	 DWORD PTR [eax], -353637139 ; eaebecedH
  00158	83 c0 04	 add	 eax, 4
  0015b	4a		 dec	 edx
  0015c	75 f4		 jne	 SHORT $LL104@GetIntAttr
  0015e	6a 08		 push	 8
  00160	58		 pop	 eax
$LL101@GetIntAttr:
  00161	8b c8		 mov	 ecx, eax
  00163	81 e1 03 00 00
	80		 and	 ecx, -2147483645	; 80000003H
  00169	79 05		 jns	 SHORT $LN111@GetIntAttr
  0016b	49		 dec	 ecx
  0016c	83 c9 fc	 or	 ecx, -4			; fffffffcH
  0016f	41		 inc	 ecx
$LN111@GetIntAttr:
  00170	b2 ed		 mov	 dl, -19			; ffffffedH
  00172	2a d1		 sub	 dl, cl
  00174	30 54 05 ec	 xor	 BYTE PTR __k$[ebp+eax], dl
  00178	40		 inc	 eax
  00179	83 f8 0a	 cmp	 eax, 10			; 0000000aH
  0017c	7c e3		 jl	 SHORT $LL101@GetIntAttr

; 88   : 		return GetIntAttribute(_k);

  0017e	8d 45 ec	 lea	 eax, DWORD PTR __k$[ebp]
  00181	50		 push	 eax
