; Listing generated by Microsoft (R) Optimizing Compiler Version 16.00.30319.01 

	TITLE	D:\Lost Saga For Developer\Youtube\Tutorial\Source\src\LSClient\GUI\UserInfoToolTip.cpp
	.686P
	.XMM
	include listing.inc
	.model	flat

INCLUDELIB MSVCRT
INCLUDELIB OLDNAMES

PUBLIC	?_EEM_DS@?$deque@UD3DXVECTOR3@@V?$allocator@UD3DXVECTOR3@@@std@@@std@@2HB ; std::deque<D3DXVECTOR3,std::allocator<D3DXVECTOR3> >::_EEM_DS
PUBLIC	?m_dwMaxUserInfo@UserInfoToolTip@@1KA		; UserInfoToolTip::m_dwMaxUserInfo
_BSS	SEGMENT
?m_dwMaxUserInfo@UserInfoToolTip@@1KA DD 01H DUP (?)	; UserInfoToolTip::m_dwMaxUserInfo
_BSS	ENDS
;	COMDAT ?_EEM_DS@?$deque@UD3DXVECTOR3@@V?$allocator@UD3DXVECTOR3@@@std@@@std@@2HB
CONST	SEGMENT
?_EEM_DS@?$deque@UD3DXVECTOR3@@V?$allocator@UD3DXVECTOR3@@@std@@@std@@2HB DD 01H ; std::deque<D3DXVECTOR3,std::allocator<D3DXVECTOR3> >::_EEM_DS
CONST	ENDS
PUBLIC	?return5@@YAIXZ					; return5
; Function compile flags: /Ogsp
; File d:\lost saga for developer\youtube\tutorial\source\src\lsclient\stdafx.h
;	COMDAT ?return5@@YAIXZ
_TEXT	SEGMENT
?return5@@YAIXZ PROC					; return5, COMDAT

; 18   : 	__forceinline unsigned int return5() { __asm mov eax, 5 };

  00000	b8 05 00 00 00	 mov	 eax, 5
  00005	c3		 ret	 0
?return5@@YAIXZ ENDP					; return5
_TEXT	ENDS
PUBLIC	?return10@@YAIXZ				; return10
; Function compile flags: /Ogsp
;	COMDAT ?return10@@YAIXZ
_TEXT	SEGMENT
?return10@@YAIXZ PROC					; return10, COMDAT

; 21   : 	__forceinline unsigned int return10() { __asm mov eax, 10 };

  00000	b8 0a 00 00 00	 mov	 eax, 10			; 0000000aH
  00005	c3		 ret	 0
?return10@@YAIXZ ENDP					; return10
_TEXT	ENDS
PUBLIC	?return100@@YAIXZ				; return100
; Function compile flags: /Ogsp
;	COMDAT ?return100@@YAIXZ
_TEXT	SEGMENT
?return100@@YAIXZ PROC					; return100, COMDAT

; 25   : 	__forceinline unsigned int return100() { __asm mov eax, 100 };

  00000	b8 64 00 00 00	 mov	 eax, 100		; 00000064H
  00005	c3		 ret	 0
?return100@@YAIXZ ENDP					; return100
_TEXT	ENDS
PUBLIC	?GetClassLevel@ioBaseChar@@QBEHXZ		; ioBaseChar::GetClassLevel
; Function compile flags: /Ogsp
; File d:\lost saga for developer\youtube\tutorial\source\src\lsclient\iobasechar.h
;	COMDAT ?GetClassLevel@ioBaseChar@@QBEHXZ
_TEXT	SEGMENT
?GetClassLevel@ioBaseChar@@QBEHXZ PROC			; ioBaseChar::GetClassLevel, COMDAT
; _this$ = ecx

; 2593 : 	inline int GetClassLevel() const { return m_iClassLevel; }

  00000	8b 81 d0 02 00
	00		 mov	 eax, DWORD PTR [ecx+720]
  00006	c3		 ret	 0
?GetClassLevel@ioBaseChar@@QBEHXZ ENDP			; ioBaseChar::GetClassLevel
_TEXT	ENDS
PUBLIC	?GetCharName@ioBaseChar@@QBEABVioHashString@@XZ	; ioBaseChar::GetCharName
; Function compile flags: /Ogsp
;	COMDAT ?GetCharName@ioBaseChar@@QBEABVioHashString@@XZ
_TEXT	SEGMENT
?GetCharName@ioBaseChar@@QBEABVioHashString@@XZ PROC	; ioBaseChar::GetCharName, COMDAT
; _this$ = ecx

; 2594 : 	inline const ioHashString& GetCharName() const { return m_Name; }

  00000	8d 81 d4 02 00
	00		 lea	 eax, DWORD PTR [ecx+724]
  00006	c3		 ret	 0
?GetCharName@ioBaseChar@@QBEABVioHashString@@XZ ENDP	; ioBaseChar::GetCharName
_TEXT	ENDS
PUBLIC	?GetCharacterInfo@ioBaseChar@@QBEABUCHARACTER@@XZ ; ioBaseChar::GetCharacterInfo
; Function compile flags: /Ogsp
;	COMDAT ?GetCharacterInfo@ioBaseChar@@QBEABUCHARACTER@@XZ
_TEXT	SEGMENT
?GetCharacterInfo@ioBaseChar@@QBEABUCHARACTER@@XZ PROC	; ioBaseChar::GetCharacterInfo, COMDAT
; _this$ = ecx

; 2777 : 	inline const CHARACTER& GetCharacterInfo() const { return m_CharInfo; }

  00000	8d 81 58 03 00
	00		 lea	 eax, DWORD PTR [ecx+856]
  00006	c3		 ret	 0
?GetCharacterInfo@ioBaseChar@@QBEABUCHARACTER@@XZ ENDP	; ioBaseChar::GetCharacterInfo
_TEXT	ENDS
PUBLIC	??_7bad_alloc@std@@6B@				; std::bad_alloc::`vftable'
PUBLIC	??0bad_alloc@std@@QAE@PBD@Z			; std::bad_alloc::bad_alloc
PUBLIC	??_R4bad_alloc@std@@6B@				; std::bad_alloc::`RTTI Complete Object Locator'
PUBLIC	??_R0?AVbad_alloc@std@@@8			; std::bad_alloc `RTTI Type Descriptor'
PUBLIC	??_R3bad_alloc@std@@8				; std::bad_alloc::`RTTI Class Hierarchy Descriptor'
PUBLIC	??_R2bad_alloc@std@@8				; std::bad_alloc::`RTTI Base Class Array'
PUBLIC	??_R1A@?0A@EA@bad_alloc@std@@8			; std::bad_alloc::`RTTI Base Class Descriptor at (0,-1,0,64)'
PUBLIC	??_R1A@?0A@EA@exception@std@@8			; std::exception::`RTTI Base Class Descriptor at (0,-1,0,64)'
PUBLIC	??_R0?AVexception@std@@@8			; std::exception `RTTI Type Descriptor'
PUBLIC	??_R3exception@std@@8				; std::exception::`RTTI Class Hierarchy Descriptor'
PUBLIC	??_R2exception@std@@8				; std::exception::`RTTI Base Class Array'
EXTRN	__imp_??0exception@std@@QAE@ABQBD@Z:PROC
EXTRN	??_7type_info@@6B@:QWORD			; type_info::`vftable'
EXTRN	??_Ebad_alloc@std@@UAEPAXI@Z:PROC		; std::bad_alloc::`vector deleting destructor'
EXTRN	?what@exception@std@@UBEPBDXZ:PROC		; std::exception::what
;	COMDAT ??_R2exception@std@@8
; File c:\program files (x86)\microsoft visual studio 10.0\vc\include\exception
rdata$r	SEGMENT
??_R2exception@std@@8 DD FLAT:??_R1A@?0A@EA@exception@std@@8 ; std::exception::`RTTI Base Class Array'
rdata$r	ENDS
;	COMDAT ??_R3exception@std@@8
rdata$r	SEGMENT
??_R3exception@std@@8 DD 00H				; std::exception::`RTTI Class Hierarchy Descriptor'
	DD	00H
	DD	01H
	DD	FLAT:??_R2exception@std@@8
rdata$r	ENDS
;	COMDAT ??_R0?AVexception@std@@@8
_DATA	SEGMENT
??_R0?AVexception@std@@@8 DD FLAT:??_7type_info@@6B@	; std::exception `RTTI Type Descriptor'
	DD	00H
	DB	'.?AVexception@std@@', 00H
_DATA	ENDS
;	COMDAT ??_R1A@?0A@EA@exception@std@@8
rdata$r	SEGMENT
??_R1A@?0A@EA@exception@std@@8 DD FLAT:??_R0?AVexception@std@@@8 ; std::exception::`RTTI Base Class Descriptor at (0,-1,0,64)'
	DD	00H
	DD	00H
	DD	0ffffffffH
	DD	00H
	DD	040H
	DD	FLAT:??_R3exception@std@@8
rdata$r	ENDS
;	COMDAT ??_R1A@?0A@EA@bad_alloc@std@@8
rdata$r	SEGMENT
??_R1A@?0A@EA@bad_alloc@std@@8 DD FLAT:??_R0?AVbad_alloc@std@@@8 ; std::bad_alloc::`RTTI Base Class Descriptor at (0,-1,0,64)'
	DD	01H
	DD	00H
	DD	0ffffffffH
	DD	00H
	DD	040H
	DD	FLAT:??_R3bad_alloc@std@@8
rdata$r	ENDS
;	COMDAT ??_R2bad_alloc@std@@8
rdata$r	SEGMENT
??_R2bad_alloc@std@@8 DD FLAT:??_R1A@?0A@EA@bad_alloc@std@@8 ; std::bad_alloc::`RTTI Base Class Array'
	DD	FLAT:??_R1A@?0A@EA@exception@std@@8
rdata$r	ENDS
;	COMDAT ??_R3bad_alloc@std@@8
rdata$r	SEGMENT
??_R3bad_alloc@std@@8 DD 00H				; std::bad_alloc::`RTTI Class Hierarchy Descriptor'
	DD	00H
	DD	02H
	DD	FLAT:??_R2bad_alloc@std@@8
rdata$r	ENDS
;	COMDAT ??_R0?AVbad_alloc@std@@@8
_DATA	SEGMENT
??_R0?AVbad_alloc@std@@@8 DD FLAT:??_7type_info@@6B@	; std::bad_alloc `RTTI Type Descriptor'
	DD	00H
	DB	'.?AVbad_alloc@std@@', 00H
_DATA	ENDS
;	COMDAT ??_R4bad_alloc@std@@6B@
rdata$r	SEGMENT
??_R4bad_alloc@std@@6B@ DD 00H				; std::bad_alloc::`RTTI Complete Object Locator'
	DD	00H
	DD	00H
	DD	FLAT:??_R0?AVbad_alloc@std@@@8
	DD	FLAT:??_R3bad_alloc@std@@8
rdata$r	ENDS
;	COMDAT ??_7bad_alloc@std@@6B@
CONST	SEGMENT
??_7bad_alloc@std@@6B@ DD FLAT:??_R4bad_alloc@std@@6B@	; std::bad_alloc::`vftable'
	DD	FLAT:??_Ebad_alloc@std@@UAEPAXI@Z
	DD	FLAT:?what@exception@std@@UBEPBDXZ
; Function compile flags: /Ogsp
CONST	ENDS
;	COMDAT ??0bad_alloc@std@@QAE@PBD@Z
_TEXT	SEGMENT
__Message$ = 8						; size = 4
??0bad_alloc@std@@QAE@PBD@Z PROC			; std::bad_alloc::bad_alloc, COMDAT
; _this$ = ecx

; 345  : 		{	// construct from message string

  00000	55		 push	 ebp
  00001	8b ec		 mov	 ebp, esp
  00003	56		 push	 esi
  00004	8d 45 08	 lea	 eax, DWORD PTR __Message$[ebp]
  00007	50		 push	 eax
  00008	8b f1		 mov	 esi, ecx
  0000a	ff 15 00 00 00
	00		 call	 DWORD PTR __imp_??0exception@std@@QAE@ABQBD@Z
  00010	c7 06 00 00 00
	00		 mov	 DWORD PTR [esi], OFFSET ??_7bad_alloc@std@@6B@

; 346  : 		}

  00016	8b c6		 mov	 eax, esi
  00018	5e		 pop	 esi
  00019	5d		 pop	 ebp
  0001a	c2 04 00	 ret	 4
??0bad_alloc@std@@QAE@PBD@Z ENDP			; std::bad_alloc::bad_alloc
_TEXT	ENDS
PUBLIC	??1bad_alloc@std@@UAE@XZ			; std::bad_alloc::~bad_alloc
EXTRN	__imp_??1exception@std@@UAE@XZ:PROC
; Function compile flags: /Ogsp
;	COMDAT ??1bad_alloc@std@@UAE@XZ
_TEXT	SEGMENT
??1bad_alloc@std@@UAE@XZ PROC				; std::bad_alloc::~bad_alloc, COMDAT
; _this$ = ecx

; 354  : 		{	// destroy the object

  00000	c7 01 00 00 00
	00		 mov	 DWORD PTR [ecx], OFFSET ??_7bad_alloc@std@@6B@

; 355  : 		}

  00006	ff 25 00 00 00
	00		 jmp	 DWORD PTR __imp_??1exception@std@@UAE@XZ
??1bad_alloc@std@@UAE@XZ ENDP				; std::bad_alloc::~bad_alloc
_TEXT	ENDS
EXTRN	??3@YAXPAX@Z:PROC				; operator delete
; Function compile flags: /Ogsp
;	COMDAT ??_Gbad_alloc@std@@UAEPAXI@Z
_TEXT	SEGMENT
___flags$ = 8						; size = 4
??_Gbad_alloc@std@@UAEPAXI@Z PROC			; std::bad_alloc::`scalar deleting destructor', COMDAT
; _this$ = ecx
  00000	55		 push	 ebp
  00001	8b ec		 mov	 ebp, esp
  00003	56		 push	 esi
  00004	8b f1		 mov	 esi, ecx
  00006	c7 06 00 00 00
	00		 mov	 DWORD PTR [esi], OFFSET ??_7bad_alloc@std@@6B@
  0000c	ff 15 00 00 00
	00		 call	 DWORD PTR __imp_??1exception@std@@UAE@XZ
  00012	f6 45 08 01	 test	 BYTE PTR ___flags$[ebp], 1
  00016	74 07		 je	 SHORT $LN1@scalar
  00018	56		 push	 esi
  00019	e8 00 00 00 00	 call	 ??3@YAXPAX@Z		; operator delete
  0001e	59		 pop	 ecx
$LN1@scalar:
  0001f	8b c6		 mov	 eax, esi
  00021	5e		 pop	 esi
  00022	5d		 pop	 ebp
  00023	c2 04 00	 ret	 4
??_Gbad_alloc@std@@UAEPAXI@Z ENDP			; std::bad_alloc::`scalar deleting destructor'
_TEXT	ENDS
PUBLIC	??2@YAPAXIPAX@Z					; operator new
; Function compile flags: /Ogsp
; File c:\program files (x86)\microsoft visual studio 10.0\vc\include\new
;	COMDAT ??2@YAPAXIPAX@Z
_TEXT	SEGMENT
___formal$ = 8						; size = 4
__Where$ = 12						; size = 4
??2@YAPAXIPAX@Z PROC					; operator new, COMDAT

; 56   : 	{	// construct array with placement at _Where

  00000	55		 push	 ebp
  00001	8b ec		 mov	 ebp, esp

; 57   : 	return (_Where);

  00003	8b 45 0c	 mov	 eax, DWORD PTR __Where$[ebp]

; 58   : 	}

  00006	5d		 pop	 ebp
  00007	c3		 ret	 0
??2@YAPAXIPAX@Z ENDP					; operator new
_TEXT	ENDS
PUBLIC	??3@YAXPAX0@Z					; operator delete
; Function compile flags: /Ogsp
;	COMDAT ??3@YAXPAX0@Z
_TEXT	SEGMENT
___formal$ = 8						; size = 4
___formal$ = 12						; size = 4
??3@YAXPAX0@Z PROC					; operator delete, COMDAT

; 62   : 	}

  00000	c3		 ret	 0
??3@YAXPAX0@Z ENDP					; operator delete
_TEXT	ENDS
PUBLIC	?GetCurRSoldierCount@ioBaseChar@@QAEABHXZ	; ioBaseChar::GetCurRSoldierCount
; Function compile flags: /Ogsp
; File d:\lost saga for developer\youtube\tutorial\source\src\lsclient\iobasechar.h
;	COMDAT ?GetCurRSoldierCount@ioBaseChar@@QAEABHXZ
_TEXT	SEGMENT
?GetCurRSoldierCount@ioBaseChar@@QAEABHXZ PROC		; ioBaseChar::GetCurRSoldierCount, COMDAT
; _this$ = ecx

; 4289 : 	inline const int& GetCurRSoldierCount() { return m_iCurRSoldierCount; }

  00000	8d 81 58 3b 00
	00		 lea	 eax, DWORD PTR [ecx+15192]
  00006	c3		 ret	 0
?GetCurRSoldierCount@ioBaseChar@@QAEABHXZ ENDP		; ioBaseChar::GetCurRSoldierCount
_TEXT	ENDS
PUBLIC	?GetCurSoldierSetCnt@ioBaseChar@@QAEABHXZ	; ioBaseChar::GetCurSoldierSetCnt
; Function compile flags: /Ogsp
;	COMDAT ?GetCurSoldierSetCnt@ioBaseChar@@QAEABHXZ
_TEXT	SEGMENT
?GetCurSoldierSetCnt@ioBaseChar@@QAEABHXZ PROC		; ioBaseChar::GetCurSoldierSetCnt, COMDAT
; _this$ = ecx

; 4300 : 	inline const int& GetCurSoldierSetCnt() { return m_nSoldierSetCnt; }

  00000	8d 81 5c 3b 00
	00		 lea	 eax, DWORD PTR [ecx+15196]
  00006	c3		 ret	 0
?GetCurSoldierSetCnt@ioBaseChar@@QAEABHXZ ENDP		; ioBaseChar::GetCurSoldierSetCnt
_TEXT	ENDS
PUBLIC	?GetPlayMode@ioPlayStage@@QBEPAVioPlayMode@@XZ	; ioPlayStage::GetPlayMode
; Function compile flags: /Ogsp
; File d:\lost saga for developer\youtube\tutorial\source\src\lsclient\ioplaystage.h
;	COMDAT ?GetPlayMode@ioPlayStage@@QBEPAVioPlayMode@@XZ
_TEXT	SEGMENT
?GetPlayMode@ioPlayStage@@QBEPAVioPlayMode@@XZ PROC	; ioPlayStage::GetPlayMode, COMDAT
; _this$ = ecx

; 780  : 	inline ioPlayMode* GetPlayMode() const { return m_pPlayMode; }

  00000	8b 81 10 01 00
	00		 mov	 eax, DWORD PTR [ecx+272]
  00006	c3		 ret	 0
?GetPlayMode@ioPlayStage@@QBEPAVioPlayMode@@XZ ENDP	; ioPlayStage::GetPlayMode
_TEXT	ENDS
PUBLIC	?copy@?$char_traits@D@std@@SAPADPADPBDI@Z	; std::char_traits<char>::copy
EXTRN	_memcpy:PROC
; Function compile flags: /Ogsp
; File c:\program files (x86)\microsoft visual studio 10.0\vc\include\iosfwd
;	COMDAT ?copy@?$char_traits@D@std@@SAPADPADPBDI@Z
_TEXT	SEGMENT
__First1$ = 8						; size = 4
__First2$ = 12						; size = 4
__Count$ = 16						; size = 4
?copy@?$char_traits@D@std@@SAPADPADPBDI@Z PROC		; std::char_traits<char>::copy, COMDAT

; 496  : 		{	// copy [_First1, _First1 + _Count) to [_First2, ...)

  00000	55		 push	 ebp
  00001	8b ec		 mov	 ebp, esp

; 498  : 		}

  00003	5d		 pop	 ebp

; 497  : 		return ((_Elem *)_CSTD memcpy(_First1, _First2, _Count));

  00004	e9 00 00 00 00	 jmp	 _memcpy
?copy@?$char_traits@D@std@@SAPADPADPBDI@Z ENDP		; std::char_traits<char>::copy
_TEXT	ENDS
PUBLIC	?move@?$char_traits@D@std@@SAPADPADPBDI@Z	; std::char_traits<char>::move
EXTRN	__imp__memmove:PROC
; Function compile flags: /Ogsp
;	COMDAT ?move@?$char_traits@D@std@@SAPADPADPBDI@Z
_TEXT	SEGMENT
__First1$ = 8						; size = 4
__First2$ = 12						; size = 4
__Count$ = 16						; size = 4
?move@?$char_traits@D@std@@SAPADPADPBDI@Z PROC		; std::char_traits<char>::move, COMDAT

; 516  : 		{	// copy [_First1, _First1 + _Count) to [_First2, ...)

  00000	55		 push	 ebp
  00001	8b ec		 mov	 ebp, esp

; 518  : 		}

  00003	5d		 pop	 ebp

; 517  : 		return ((_Elem *)_CSTD memmove(_First1, _First2, _Count));

  00004	ff 25 00 00 00
	00		 jmp	 DWORD PTR __imp__memmove
?move@?$char_traits@D@std@@SAPADPADPBDI@Z ENDP		; std::char_traits<char>::move
_TEXT	ENDS
PUBLIC	?assign@?$char_traits@D@std@@SAXAADABD@Z	; std::char_traits<char>::assign
; Function compile flags: /Ogsp
;	COMDAT ?assign@?$char_traits@D@std@@SAXAADABD@Z
_TEXT	SEGMENT
__Left$ = 8						; size = 4
__Right$ = 12						; size = 4
?assign@?$char_traits@D@std@@SAXAADABD@Z PROC		; std::char_traits<char>::assign, COMDAT

; 526  : 		{	// assign an element

  00000	55		 push	 ebp
  00001	8b ec		 mov	 ebp, esp

; 527  : 		_Left = _Right;

  00003	8b 45 0c	 mov	 eax, DWORD PTR __Right$[ebp]
  00006	8a 00		 mov	 al, BYTE PTR [eax]
  00008	8b 4d 08	 mov	 ecx, DWORD PTR __Left$[ebp]
  0000b	88 01		 mov	 BYTE PTR [ecx], al

; 528  : 		}

  0000d	5d		 pop	 ebp
  0000e	c3		 ret	 0
?assign@?$char_traits@D@std@@SAXAADABD@Z ENDP		; std::char_traits<char>::assign
_TEXT	ENDS
PUBLIC	?_Adopt@_Iterator_base0@std@@QAEXPBX@Z		; std::_Iterator_base0::_Adopt
; Function compile flags: /Ogsp
; File c:\program files (x86)\microsoft visual studio 10.0\vc\include\xutility
;	COMDAT ?_Adopt@_Iterator_base0@std@@QAEXPBX@Z
_TEXT	SEGMENT
___formal$ = 8						; size = 4
?_Adopt@_Iterator_base0@std@@QAEXPBX@Z PROC		; std::_Iterator_base0::_Adopt, COMDAT
; _this$ = ecx

; 49   : 		}

  00000	c2 04 00	 ret	 4
?_Adopt@_Iterator_base0@std@@QAEXPBX@Z ENDP		; std::_Iterator_base0::_Adopt
_TEXT	ENDS
PUBLIC	?SetGradeType@SlotIconBtn@@QAEXH@Z		; SlotIconBtn::SetGradeType
; Function compile flags: /Ogsp
; File d:\lost saga for developer\youtube\tutorial\source\src\lsclient\gui\myinventoryinfownd.h
;	COMDAT ?SetGradeType@SlotIconBtn@@QAEXH@Z
_TEXT	SEGMENT
_nGradeType$ = 8					; size = 4
?SetGradeType@SlotIconBtn@@QAEXH@Z PROC			; SlotIconBtn::SetGradeType, COMDAT
; _this$ = ecx

; 77   : 	void SetGradeType( int nGradeType ) { m_nGradeType = nGradeType; }

  00000	55		 push	 ebp
  00001	8b ec		 mov	 ebp, esp
  00003	8b 45 08	 mov	 eax, DWORD PTR _nGradeType$[ebp]
  00006	89 81 54 02 00
	00		 mov	 DWORD PTR [ecx+596], eax
  0000c	5d		 pop	 ebp
  0000d	c2 04 00	 ret	 4
?SetGradeType@SlotIconBtn@@QAEXH@Z ENDP			; SlotIconBtn::SetGradeType
_TEXT	ENDS
PUBLIC	??_C@_0BK@EMIKPMIE@UserInfoToolTip?3?3OnRender?$AA@ ; `string'
PUBLIC	??_C@_00CNPNBAHC@?$AA@				; `string'
PUBLIC	__real@3f0ccccd
PUBLIC	__real@3f266666
PUBLIC	__real@430c0000
PUBLIC	??_R0?AVSlotIconBtn@@@8				; SlotIconBtn `RTTI Type Descriptor'
PUBLIC	??_R0?AVioWnd@@@8				; ioWnd `RTTI Type Descriptor'
PUBLIC	?OnRender@UserInfoToolTip@@MAEXXZ		; UserInfoToolTip::OnRender
EXTRN	__imp_?GetString@ioStringManager@@QAEPADPBD0HW4FileNamePrefix@1@@Z:PROC
EXTRN	__imp_?GetSingleton@ioStringManager@@SAAAV1@XZ:PROC
EXTRN	__imp_?PrintText@ioFontManager@@QAAXMMMPBDZZ:PROC
EXTRN	__imp_?PrintTextWidthCut@ioFontManager@@QAAXMMMMPBDZZ:PROC
EXTRN	__imp_?c_str@ioHashString@@QBEPBDXZ:PROC
EXTRN	__imp_?IsEmpty@ioHashString@@QBE_NXZ:PROC
EXTRN	__imp_?SetTextColor@ioFontManager@@QAEXK@Z:PROC
EXTRN	__imp_?SetBkColor@ioFontManager@@QAEXHHH@Z:PROC
EXTRN	__imp_?SetAlignType@ioFontManager@@QAEXW4TextAlignType@@@Z:PROC
EXTRN	__imp_?SetTextStyle@ioFontManager@@QAEXW4TextStyle@@@Z:PROC
EXTRN	__imp_?GetSingleton@ioFontManager@@SAAAV1@XZ:PROC
EXTRN	__imp_?GetYPos@ioWnd@@QBEHXZ:PROC
EXTRN	__imp_?IsShow@ioWnd@@QBE_NXZ:PROC
EXTRN	__imp_?FindChildWnd@ioWnd@@QAEPAV1@K@Z:PROC
EXTRN	__imp_?GetDerivedPosY@ioWnd@@QBEHXZ:PROC
EXTRN	__imp_?GetDerivedPosX@ioWnd@@QBEHXZ:PROC
EXTRN	__imp_?OnRender@ioWnd@@MAEXXZ:PROC
EXTRN	__fltused:DWORD
EXTRN	___RTDynamicCast:PROC
;	COMDAT ??_C@_0BK@EMIKPMIE@UserInfoToolTip?3?3OnRender?$AA@
; File d:\lost saga for developer\youtube\tutorial\source\src\io3dengine\iownd.h
CONST	SEGMENT
??_C@_0BK@EMIKPMIE@UserInfoToolTip?3?3OnRender?$AA@ DB 'UserInfoToolTip::'
	DB	'OnRender', 00H				; `string'
CONST	ENDS
;	COMDAT ??_C@_00CNPNBAHC@?$AA@
CONST	SEGMENT
??_C@_00CNPNBAHC@?$AA@ DB 00H				; `string'
CONST	ENDS
;	COMDAT __real@3f0ccccd
CONST	SEGMENT
__real@3f0ccccd DD 03f0ccccdr			; 0.55
CONST	ENDS
;	COMDAT __real@3f266666
CONST	SEGMENT
__real@3f266666 DD 03f266666r			; 0.65
CONST	ENDS
;	COMDAT __real@430c0000
CONST	SEGMENT
__real@430c0000 DD 0430c0000r			; 140
CONST	ENDS
;	COMDAT ??_R0?AVSlotIconBtn@@@8
_DATA	SEGMENT
??_R0?AVSlotIconBtn@@@8 DD FLAT:??_7type_info@@6B@	; SlotIconBtn `RTTI Type Descriptor'
	DD	00H
	DB	'.?AVSlotIconBtn@@', 00H
_DATA	ENDS
;	COMDAT ??_R0?AVioWnd@@@8
_DATA	SEGMENT
??_R0?AVioWnd@@@8 DD FLAT:??_7type_info@@6B@		; ioWnd `RTTI Type Descriptor'
	DD	00H
	DB	'.?AVioWnd@@', 00H
; Function compile flags: /Ogsp
; File d:\lost saga for developer\youtube\tutorial\source\src\lsclient\gui\userinfotooltip.cpp
_DATA	ENDS
;	COMDAT ?OnRender@UserInfoToolTip@@MAEXXZ
_TEXT	SEGMENT
tv798 = -24						; size = 4
tv699 = -24						; size = 4
_pBtn$545899 = -24					; size = 4
_pBtn$545892 = -24					; size = 4
_pBtn$545885 = -24					; size = 4
tv750 = -20						; size = 4
_iExtra_Add_Y$ = -20					; size = 4
_i$545895 = -16						; size = 4
_i$545888 = -16						; size = 4
_i$545881 = -16						; size = 4
_pBtn$545877 = -16					; size = 4
tv768 = -12						; size = 4
_iYPos$ = -12						; size = 4
_iXPos$ = -8						; size = 4
_this$ = -4						; size = 4
?OnRender@UserInfoToolTip@@MAEXXZ PROC			; UserInfoToolTip::OnRender, COMDAT
; _this$ = ecx

; 152  : {

  00000	55		 push	 ebp
  00001	8b ec		 mov	 ebp, esp
  00003	83 ec 18	 sub	 esp, 24			; 00000018H
  00006	53		 push	 ebx
  00007	56		 push	 esi
  00008	57		 push	 edi
  00009	8b f9		 mov	 edi, ecx
  0000b	89 7d fc	 mov	 DWORD PTR _this$[ebp], edi

; 153  : 	ioWnd::OnRender();

  0000e	ff 15 00 00 00
	00		 call	 DWORD PTR __imp_?OnRender@ioWnd@@MAEXXZ

; 154  : 	int iXPos = GetDerivedPosX();

  00014	8b cf		 mov	 ecx, edi
  00016	ff 15 00 00 00
	00		 call	 DWORD PTR __imp_?GetDerivedPosX@ioWnd@@QBEHXZ

; 155  : 	int iYPos = GetDerivedPosY();

  0001c	8b cf		 mov	 ecx, edi
  0001e	89 45 f8	 mov	 DWORD PTR _iXPos$[ebp], eax
  00021	ff 15 00 00 00
	00		 call	 DWORD PTR __imp_?GetDerivedPosY@ioWnd@@QBEHXZ

; 156  : 
; 157  : 	int iExtra_Add_Y = 0;

  00027	33 db		 xor	 ebx, ebx
  00029	89 45 f4	 mov	 DWORD PTR _iYPos$[ebp], eax
  0002c	89 5d ec	 mov	 DWORD PTR _iExtra_Add_Y$[ebp], ebx

; 158  : 	if( !m_bExtraInfo )

  0002f	38 9f 04 02 00
	00		 cmp	 BYTE PTR [edi+516], bl
  00035	75 3c		 jne	 SHORT $LN32@OnRender

; 159  : 	{
; 160  : 		if( m_pNoneTitleFrm)

  00037	39 9f fc 01 00
	00		 cmp	 DWORD PTR [edi+508], ebx
  0003d	0f 84 c8 01 00
	00		 je	 $LN14@OnRender

; 161  : 			m_pNoneTitleFrm->Render( iXPos, iYPos );

  00043	8b 8f fc 01 00
	00		 mov	 ecx, DWORD PTR [edi+508]
  00049	66 0f 6e 45 f4	 movd	 xmm0, DWORD PTR _iYPos$[ebp]
  0004e	8b 01		 mov	 eax, DWORD PTR [ecx]
  00050	53		 push	 ebx
  00051	53		 push	 ebx
  00052	53		 push	 ebx
  00053	53		 push	 ebx
  00054	51		 push	 ecx
  00055	0f 5b c0	 cvtdq2ps xmm0, xmm0
  00058	51		 push	 ecx
  00059	f3 0f 11 44 24
	04		 movss	 DWORD PTR [esp+4], xmm0
  0005f	66 0f 6e 45 f8	 movd	 xmm0, DWORD PTR _iXPos$[ebp]
  00064	0f 5b c0	 cvtdq2ps xmm0, xmm0
  00067	f3 0f 11 04 24	 movss	 DWORD PTR [esp], xmm0
  0006c	ff 10		 call	 DWORD PTR [eax]

; 162  : 	}
; 163  : 	else

  0006e	e9 98 01 00 00	 jmp	 $LN14@OnRender
$LN32@OnRender:

; 164  : 	{
; 165  : 		if( m_pPowerUpNAwakeTitleFrm)

  00073	39 9f 00 02 00
	00		 cmp	 DWORD PTR [edi+512], ebx
  00079	74 2b		 je	 SHORT $LN29@OnRender

; 166  : 			m_pPowerUpNAwakeTitleFrm->Render( iXPos, iYPos );

  0007b	8b 8f 00 02 00
	00		 mov	 ecx, DWORD PTR [edi+512]
  00081	66 0f 6e 45 f4	 movd	 xmm0, DWORD PTR _iYPos$[ebp]
  00086	8b 01		 mov	 eax, DWORD PTR [ecx]
  00088	53		 push	 ebx
  00089	53		 push	 ebx
  0008a	53		 push	 ebx
  0008b	53		 push	 ebx
  0008c	51		 push	 ecx
  0008d	0f 5b c0	 cvtdq2ps xmm0, xmm0
  00090	51		 push	 ecx
  00091	f3 0f 11 44 24
	04		 movss	 DWORD PTR [esp+4], xmm0
  00097	66 0f 6e 45 f8	 movd	 xmm0, DWORD PTR _iXPos$[ebp]
  0009c	0f 5b c0	 cvtdq2ps xmm0, xmm0
  0009f	f3 0f 11 04 24	 movss	 DWORD PTR [esp], xmm0
  000a4	ff 10		 call	 DWORD PTR [eax]
$LN29@OnRender:

; 167  : 		iExtra_Add_Y = EXTRA_ADD_HEIGHT;
; 168  : 
; 169  : 		for (int i = 0; i < MAX_GROWTH ; i++)

  000a6	8b 35 00 00 00
	00		 mov	 esi, DWORD PTR __imp_?FindChildWnd@ioWnd@@QAEPAV1@K@Z
  000ac	c7 45 ec 10 00
	00 00		 mov	 DWORD PTR _iExtra_Add_Y$[ebp], 16 ; 00000010H
  000b3	33 c0		 xor	 eax, eax
  000b5	bf 00 00 00 00	 mov	 edi, OFFSET ??_R0?AVioWnd@@@8
$LL28@OnRender:

; 170  : 		{
; 171  : 			SlotIconBtn *pBtn = dynamic_cast<SlotIconBtn*> ( FindChildWnd( ID_GROWTH_1_BTN + i ) );

  000ba	8b 4d fc	 mov	 ecx, DWORD PTR _this$[ebp]
  000bd	53		 push	 ebx
  000be	68 00 00 00 00	 push	 OFFSET ??_R0?AVSlotIconBtn@@@8
  000c3	57		 push	 edi
  000c4	40		 inc	 eax
  000c5	53		 push	 ebx
  000c6	50		 push	 eax
  000c7	89 45 e8	 mov	 DWORD PTR tv699[ebp], eax
  000ca	ff d6		 call	 esi
  000cc	50		 push	 eax
  000cd	e8 00 00 00 00	 call	 ___RTDynamicCast
  000d2	8b c8		 mov	 ecx, eax
  000d4	83 c4 14	 add	 esp, 20			; 00000014H
  000d7	89 4d f0	 mov	 DWORD PTR _pBtn$545877[ebp], ecx

; 172  : 			if( pBtn && pBtn->IsShow() )

  000da	3b cb		 cmp	 ecx, ebx
  000dc	74 22		 je	 SHORT $LN27@OnRender
  000de	ff 15 00 00 00
	00		 call	 DWORD PTR __imp_?IsShow@ioWnd@@QBE_NXZ
  000e4	84 c0		 test	 al, al
  000e6	74 18		 je	 SHORT $LN27@OnRender

; 173  : 				pBtn->SetPosY( pBtn->GetPosY() + iExtra_Add_Y );

  000e8	8b 4d f0	 mov	 ecx, DWORD PTR _pBtn$545877[ebp]
  000eb	ff 15 00 00 00
	00		 call	 DWORD PTR __imp_?GetYPos@ioWnd@@QBEHXZ
  000f1	8b 4d f0	 mov	 ecx, DWORD PTR _pBtn$545877[ebp]
  000f4	8b 11		 mov	 edx, DWORD PTR [ecx]
  000f6	83 c0 10	 add	 eax, 16			; 00000010H
  000f9	50		 push	 eax
  000fa	ff 92 00 01 00
	00		 call	 DWORD PTR [edx+256]
$LN27@OnRender:

; 167  : 		iExtra_Add_Y = EXTRA_ADD_HEIGHT;
; 168  : 
; 169  : 		for (int i = 0; i < MAX_GROWTH ; i++)

  00100	8b 45 e8	 mov	 eax, DWORD PTR tv699[ebp]
  00103	83 f8 08	 cmp	 eax, 8
  00106	7c b2		 jl	 SHORT $LL28@OnRender

; 174  : 		}
; 175  : 
; 176  : 		for (int i = 0; i < MAX_MEDAL ; i++)

  00108	89 5d f0	 mov	 DWORD PTR _i$545881[ebp], ebx
$LL53@OnRender:

; 177  : 		{
; 178  : 			SlotIconBtn *pBtn = dynamic_cast<SlotIconBtn*> ( FindChildWnd( ID_MADAL_1_BTN + i ) );

  0010b	8b 45 f0	 mov	 eax, DWORD PTR _i$545881[ebp]
  0010e	8b 4d fc	 mov	 ecx, DWORD PTR _this$[ebp]
  00111	53		 push	 ebx
  00112	68 00 00 00 00	 push	 OFFSET ??_R0?AVSlotIconBtn@@@8
  00117	57		 push	 edi
  00118	53		 push	 ebx
  00119	83 c0 65	 add	 eax, 101		; 00000065H
  0011c	50		 push	 eax
  0011d	ff d6		 call	 esi
  0011f	50		 push	 eax
  00120	e8 00 00 00 00	 call	 ___RTDynamicCast
  00125	8b c8		 mov	 ecx, eax
  00127	83 c4 14	 add	 esp, 20			; 00000014H
  0012a	89 4d e8	 mov	 DWORD PTR _pBtn$545885[ebp], ecx

; 179  : 			if( pBtn && pBtn->IsShow() )

  0012d	3b cb		 cmp	 ecx, ebx
  0012f	74 22		 je	 SHORT $LN23@OnRender
  00131	ff 15 00 00 00
	00		 call	 DWORD PTR __imp_?IsShow@ioWnd@@QBE_NXZ
  00137	84 c0		 test	 al, al
  00139	74 18		 je	 SHORT $LN23@OnRender

; 180  : 				pBtn->SetPosY( pBtn->GetPosY() + iExtra_Add_Y );

  0013b	8b 4d e8	 mov	 ecx, DWORD PTR _pBtn$545885[ebp]
  0013e	ff 15 00 00 00
	00		 call	 DWORD PTR __imp_?GetYPos@ioWnd@@QBEHXZ
  00144	8b 4d e8	 mov	 ecx, DWORD PTR _pBtn$545885[ebp]
  00147	8b 11		 mov	 edx, DWORD PTR [ecx]
  00149	83 c0 10	 add	 eax, 16			; 00000010H
  0014c	50		 push	 eax
  0014d	ff 92 00 01 00
	00		 call	 DWORD PTR [edx+256]
$LN23@OnRender:

; 174  : 		}
; 175  : 
; 176  : 		for (int i = 0; i < MAX_MEDAL ; i++)

  00153	ff 45 f0	 inc	 DWORD PTR _i$545881[ebp]
  00156	83 7d f0 06	 cmp	 DWORD PTR _i$545881[ebp], 6
  0015a	7c af		 jl	 SHORT $LL53@OnRender

; 181  : 		}
; 182  : 
; 183  : 		for ( int i=0; i<MAX_COSTUME; i++ )

  0015c	89 5d f0	 mov	 DWORD PTR _i$545888[ebp], ebx
$LL54@OnRender:

; 184  : 		{
; 185  : 			SlotIconBtn *pBtn = dynamic_cast<SlotIconBtn*> ( FindChildWnd( ID_COSTUME_1_BTN + i ) );

  0015f	8b 45 f0	 mov	 eax, DWORD PTR _i$545888[ebp]
  00162	8b 4d fc	 mov	 ecx, DWORD PTR _this$[ebp]
  00165	53		 push	 ebx
  00166	68 00 00 00 00	 push	 OFFSET ??_R0?AVSlotIconBtn@@@8
  0016b	57		 push	 edi
  0016c	53		 push	 ebx
  0016d	05 c9 00 00 00	 add	 eax, 201		; 000000c9H
  00172	50		 push	 eax
  00173	ff d6		 call	 esi
  00175	50		 push	 eax
  00176	e8 00 00 00 00	 call	 ___RTDynamicCast
  0017b	8b c8		 mov	 ecx, eax
  0017d	83 c4 14	 add	 esp, 20			; 00000014H
  00180	89 4d e8	 mov	 DWORD PTR _pBtn$545892[ebp], ecx

; 186  : 			if( pBtn && pBtn->IsShow() )

  00183	3b cb		 cmp	 ecx, ebx
  00185	74 22		 je	 SHORT $LN19@OnRender
  00187	ff 15 00 00 00
	00		 call	 DWORD PTR __imp_?IsShow@ioWnd@@QBE_NXZ
  0018d	84 c0		 test	 al, al
  0018f	74 18		 je	 SHORT $LN19@OnRender

; 187  : 				pBtn->SetPosY( pBtn->GetPosY() + iExtra_Add_Y );

  00191	8b 4d e8	 mov	 ecx, DWORD PTR _pBtn$545892[ebp]
  00194	ff 15 00 00 00
	00		 call	 DWORD PTR __imp_?GetYPos@ioWnd@@QBEHXZ
  0019a	8b 4d e8	 mov	 ecx, DWORD PTR _pBtn$545892[ebp]
  0019d	8b 11		 mov	 edx, DWORD PTR [ecx]
  0019f	83 c0 10	 add	 eax, 16			; 00000010H
  001a2	50		 push	 eax
  001a3	ff 92 00 01 00
	00		 call	 DWORD PTR [edx+256]
$LN19@OnRender:

; 181  : 		}
; 182  : 
; 183  : 		for ( int i=0; i<MAX_COSTUME; i++ )

  001a9	ff 45 f0	 inc	 DWORD PTR _i$545888[ebp]
  001ac	83 7d f0 04	 cmp	 DWORD PTR _i$545888[ebp], 4
  001b0	7c ad		 jl	 SHORT $LL54@OnRender

; 188  : 		}
; 189  : 
; 190  : 		for ( int i=0; i<MAX_ACC_INVENTORY; i++ )

  001b2	89 5d f0	 mov	 DWORD PTR _i$545895[ebp], ebx
$LL55@OnRender:

; 191  : 		{
; 192  : 			SlotIconBtn *pBtn = dynamic_cast<SlotIconBtn*> ( FindChildWnd( ID_ACCESSORY_1_BTN + i ) );

  001b5	8b 45 f0	 mov	 eax, DWORD PTR _i$545895[ebp]
  001b8	8b 4d fc	 mov	 ecx, DWORD PTR _this$[ebp]
  001bb	53		 push	 ebx
  001bc	68 00 00 00 00	 push	 OFFSET ??_R0?AVSlotIconBtn@@@8
  001c1	57		 push	 edi
  001c2	53		 push	 ebx
  001c3	05 2d 01 00 00	 add	 eax, 301		; 0000012dH
  001c8	50		 push	 eax
  001c9	ff d6		 call	 esi
  001cb	50		 push	 eax
  001cc	e8 00 00 00 00	 call	 ___RTDynamicCast
  001d1	8b c8		 mov	 ecx, eax
  001d3	83 c4 14	 add	 esp, 20			; 00000014H
  001d6	89 4d e8	 mov	 DWORD PTR _pBtn$545899[ebp], ecx

; 193  : 			if( pBtn && pBtn->IsShow() )

  001d9	3b cb		 cmp	 ecx, ebx
  001db	74 22		 je	 SHORT $LN15@OnRender
  001dd	ff 15 00 00 00
	00		 call	 DWORD PTR __imp_?IsShow@ioWnd@@QBE_NXZ
  001e3	84 c0		 test	 al, al
  001e5	74 18		 je	 SHORT $LN15@OnRender

; 194  : 				pBtn->SetPosY( pBtn->GetPosY() + iExtra_Add_Y );

  001e7	8b 4d e8	 mov	 ecx, DWORD PTR _pBtn$545899[ebp]
  001ea	ff 15 00 00 00
	00		 call	 DWORD PTR __imp_?GetYPos@ioWnd@@QBEHXZ
  001f0	8b 4d e8	 mov	 ecx, DWORD PTR _pBtn$545899[ebp]
  001f3	8b 11		 mov	 edx, DWORD PTR [ecx]
  001f5	83 c0 10	 add	 eax, 16			; 00000010H
  001f8	50		 push	 eax
  001f9	ff 92 00 01 00
	00		 call	 DWORD PTR [edx+256]
$LN15@OnRender:

; 188  : 		}
; 189  : 
; 190  : 		for ( int i=0; i<MAX_ACC_INVENTORY; i++ )

  001ff	ff 45 f0	 inc	 DWORD PTR _i$545895[ebp]
  00202	83 7d f0 03	 cmp	 DWORD PTR _i$545895[ebp], 3
  00206	7c ad		 jl	 SHORT $LL55@OnRender
  00208	8b 7d fc	 mov	 edi, DWORD PTR _this$[ebp]
$LN14@OnRender:

; 195  : 		}
; 196  : 	}
; 197  : 
; 198  : 	enum 
; 199  : 	{
; 200  : 		NAME_XOFFSET	= 87, 
; 201  : 		NAME_YOFFSET	= 10,
; 202  : 
; 203  : 		CLASS_XOFFSET	= 87,
; 204  : 		CLASS_YOFFSET	= 26, 
; 205  : 
; 206  : 		EXTRA_XOFFSET	= 87,
; 207  : 		EXTRA_YOFFSET	= 42, 
; 208  : 
; 209  : 		GROWTH_XOFFSET	= 87,
; 210  : 		GROWTH_YOFFSET	= 52,
; 211  : 
; 212  : 		COSTUME_XOFFSET	= 88,
; 213  : 		COSTUME_YOFFSET	= 153,
; 214  : 
; 215  : 		ACCESSORY_XOFFSET	= 88,
; 216  : 		ACCESSORY_YOFFSET	= 224,
; 217  : 
; 218  : 		//액세서리 관련
; 219  : 		MEDAL_XOFFSET	= 87,
; 220  : 		MEDAL_YOFFSET	= 297,
; 221  : 
; 222  : 		// UI코스튬 관련 (코스튬 UI 설정)
; 223  : 		//MEDAL_XOFFSET	= 87,
; 224  : 		//MEDAL_YOFFSET	= 225,
; 225  : 
; 226  : 		// UI코스튬 관련 (코스튬 UI 이전으로 설정)
; 227  : 		/*
; 228  : 		MEDAL_XOFFSET	= 87,
; 229  : 		MEDAL_YOFFSET	= 154,
; 230  : 		*/
; 231  : 	};
; 232  : 
; 233  : 	// title
; 234  : 	g_FontMgr.SetTextStyle( TS_OUTLINE_FULL_2X );

  0020b	8b 35 00 00 00
	00		 mov	 esi, DWORD PTR __imp_?GetSingleton@ioFontManager@@SAAAV1@XZ
  00211	6a 05		 push	 5
  00213	ff d6		 call	 esi
  00215	8b c8		 mov	 ecx, eax
  00217	ff 15 00 00 00
	00		 call	 DWORD PTR __imp_?SetTextStyle@ioFontManager@@QAEXW4TextStyle@@@Z

; 235  : 	g_FontMgr.SetAlignType( TAT_CENTER );

  0021d	6a 01		 push	 1
  0021f	ff d6		 call	 esi
  00221	8b c8		 mov	 ecx, eax
  00223	ff 15 00 00 00
	00		 call	 DWORD PTR __imp_?SetAlignType@ioFontManager@@QAEXW4TextAlignType@@@Z

; 236  : 	g_FontMgr.SetBkColor( 12, 66, 111 );

  00229	6a 6f		 push	 111			; 0000006fH
  0022b	6a 42		 push	 66			; 00000042H
  0022d	6a 0c		 push	 12			; 0000000cH
  0022f	ff d6		 call	 esi
  00231	8b c8		 mov	 ecx, eax
  00233	ff 15 00 00 00
	00		 call	 DWORD PTR __imp_?SetBkColor@ioFontManager@@QAEXHHH@Z

; 237  : 	g_FontMgr.SetTextColor( TCT_DEFAULT_WHITE );

  00239	6a ff		 push	 -1
  0023b	ff d6		 call	 esi
  0023d	8b c8		 mov	 ecx, eax
  0023f	ff 15 00 00 00
	00		 call	 DWORD PTR __imp_?SetTextColor@ioFontManager@@QAEXK@Z

; 238  : 	if( !m_sName.IsEmpty() )

  00245	8d 8f 64 01 00
	00		 lea	 ecx, DWORD PTR [edi+356]
  0024b	ff 15 00 00 00
	00		 call	 DWORD PTR __imp_?IsEmpty@ioHashString@@QBE_NXZ
  00251	84 c0		 test	 al, al
  00253	75 5d		 jne	 SHORT $LN12@OnRender

; 239  : 		g_FontMgr.PrintTextWidthCut( iXPos + NAME_XOFFSET, iYPos + NAME_YOFFSET, FONT_SIZE_13, USERINFO_TOOLTIP_WIDTHCUT, m_sName.c_str() );

  00255	8d 8f 64 01 00
	00		 lea	 ecx, DWORD PTR [edi+356]
  0025b	ff 15 00 00 00
	00		 call	 DWORD PTR __imp_?c_str@ioHashString@@QBEPBDXZ
  00261	f3 0f 10 05 00
	00 00 00	 movss	 xmm0, DWORD PTR __real@430c0000
  00269	50		 push	 eax
  0026a	8b 45 f4	 mov	 eax, DWORD PTR _iYPos$[ebp]
  0026d	83 ec 10	 sub	 esp, 16			; 00000010H
  00270	f3 0f 11 44 24
	0c		 movss	 DWORD PTR [esp+12], xmm0
  00276	f3 0f 10 05 00
	00 00 00	 movss	 xmm0, DWORD PTR __real@3f266666
  0027e	f3 0f 11 44 24
	08		 movss	 DWORD PTR [esp+8], xmm0
  00284	83 c0 0a	 add	 eax, 10			; 0000000aH
  00287	0f 57 c0	 xorps	 xmm0, xmm0
  0028a	f3 0f 2a c0	 cvtsi2ss xmm0, eax
  0028e	8b 45 f8	 mov	 eax, DWORD PTR _iXPos$[ebp]
  00291	f3 0f 11 44 24
	04		 movss	 DWORD PTR [esp+4], xmm0
  00297	83 c0 57	 add	 eax, 87			; 00000057H
  0029a	0f 57 c0	 xorps	 xmm0, xmm0
  0029d	f3 0f 2a c0	 cvtsi2ss xmm0, eax
  002a1	f3 0f 11 04 24	 movss	 DWORD PTR [esp], xmm0
  002a6	ff d6		 call	 esi
  002a8	50		 push	 eax
  002a9	ff 15 00 00 00
	00		 call	 DWORD PTR __imp_?PrintTextWidthCut@ioFontManager@@QAAXMMMMPBDZZ
  002af	83 c4 18	 add	 esp, 24			; 00000018H
$LN12@OnRender:

; 240  : 
; 241  : 	if( !m_sClassInfo.IsEmpty() )

  002b2	8d 8f 74 01 00
	00		 lea	 ecx, DWORD PTR [edi+372]
  002b8	ff 15 00 00 00
	00		 call	 DWORD PTR __imp_?IsEmpty@ioHashString@@QBE_NXZ
  002be	8b 3d 00 00 00
	00		 mov	 edi, DWORD PTR __imp_?PrintText@ioFontManager@@QAAXMMMPBDZZ
  002c4	84 c0		 test	 al, al
  002c6	75 66		 jne	 SHORT $LN11@OnRender

; 242  : 	{		
; 243  : 		g_FontMgr.SetTextColor( TCT_DEFAULT_WHITE );

  002c8	6a ff		 push	 -1
  002ca	ff d6		 call	 esi
  002cc	8b c8		 mov	 ecx, eax
  002ce	ff 15 00 00 00
	00		 call	 DWORD PTR __imp_?SetTextColor@ioFontManager@@QAEXK@Z

; 244  : 		g_FontMgr.SetTextStyle( TS_OUTLINE_FULL_3X );

  002d4	6a 06		 push	 6
  002d6	ff d6		 call	 esi
  002d8	8b c8		 mov	 ecx, eax
  002da	ff 15 00 00 00
	00		 call	 DWORD PTR __imp_?SetTextStyle@ioFontManager@@QAEXW4TextStyle@@@Z

; 245  : 		g_FontMgr.PrintText( iXPos + CLASS_XOFFSET, iYPos + CLASS_YOFFSET, FONT_SIZE_11, m_sClassInfo.c_str() );

  002e0	8b 4d fc	 mov	 ecx, DWORD PTR _this$[ebp]
  002e3	81 c1 74 01 00
	00		 add	 ecx, 372		; 00000174H
  002e9	ff 15 00 00 00
	00		 call	 DWORD PTR __imp_?c_str@ioHashString@@QBEPBDXZ
  002ef	f3 0f 10 05 00
	00 00 00	 movss	 xmm0, DWORD PTR __real@3f0ccccd
  002f7	50		 push	 eax
  002f8	8b 45 f4	 mov	 eax, DWORD PTR _iYPos$[ebp]
  002fb	83 ec 0c	 sub	 esp, 12			; 0000000cH
  002fe	f3 0f 11 44 24
	08		 movss	 DWORD PTR [esp+8], xmm0
  00304	83 c0 1a	 add	 eax, 26			; 0000001aH
  00307	0f 57 c0	 xorps	 xmm0, xmm0
  0030a	f3 0f 2a c0	 cvtsi2ss xmm0, eax
  0030e	8b 45 f8	 mov	 eax, DWORD PTR _iXPos$[ebp]
  00311	f3 0f 11 44 24
	04		 movss	 DWORD PTR [esp+4], xmm0
  00317	83 c0 57	 add	 eax, 87			; 00000057H
  0031a	0f 57 c0	 xorps	 xmm0, xmm0
  0031d	f3 0f 2a c0	 cvtsi2ss xmm0, eax
  00321	f3 0f 11 04 24	 movss	 DWORD PTR [esp], xmm0
  00326	ff d6		 call	 esi
  00328	50		 push	 eax
  00329	ff d7		 call	 edi
  0032b	83 c4 14	 add	 esp, 20			; 00000014H
$LN11@OnRender:

; 246  : 	}
; 247  : 
; 248  : 	if( !m_sExtraInfo.IsEmpty() )

  0032e	8b 4d fc	 mov	 ecx, DWORD PTR _this$[ebp]
  00331	81 c1 84 01 00
	00		 add	 ecx, 388		; 00000184H
  00337	ff 15 00 00 00
	00		 call	 DWORD PTR __imp_?IsEmpty@ioHashString@@QBE_NXZ
  0033d	84 c0		 test	 al, al
  0033f	75 69		 jne	 SHORT $LN10@OnRender

; 249  : 	{		
; 250  : 		g_FontMgr.SetTextColor( 0xFFFF7F7F );

  00341	68 7f 7f ff ff	 push	 -32897			; ffff7f7fH
  00346	ff d6		 call	 esi
  00348	8b c8		 mov	 ecx, eax
  0034a	ff 15 00 00 00
	00		 call	 DWORD PTR __imp_?SetTextColor@ioFontManager@@QAEXK@Z

; 251  : 		g_FontMgr.SetTextStyle( TS_OUTLINE_FULL_3X );

  00350	6a 06		 push	 6
  00352	ff d6		 call	 esi
  00354	8b c8		 mov	 ecx, eax
  00356	ff 15 00 00 00
	00		 call	 DWORD PTR __imp_?SetTextStyle@ioFontManager@@QAEXW4TextStyle@@@Z

; 252  : 		g_FontMgr.PrintText( iXPos + EXTRA_XOFFSET, iYPos + EXTRA_YOFFSET, FONT_SIZE_11, m_sExtraInfo.c_str() );

  0035c	8b 4d fc	 mov	 ecx, DWORD PTR _this$[ebp]
  0035f	81 c1 84 01 00
	00		 add	 ecx, 388		; 00000184H
  00365	ff 15 00 00 00
	00		 call	 DWORD PTR __imp_?c_str@ioHashString@@QBEPBDXZ
  0036b	f3 0f 10 05 00
	00 00 00	 movss	 xmm0, DWORD PTR __real@3f0ccccd
  00373	50		 push	 eax
  00374	8b 45 f4	 mov	 eax, DWORD PTR _iYPos$[ebp]
  00377	83 ec 0c	 sub	 esp, 12			; 0000000cH
  0037a	f3 0f 11 44 24
	08		 movss	 DWORD PTR [esp+8], xmm0
  00380	83 c0 2a	 add	 eax, 42			; 0000002aH
  00383	0f 57 c0	 xorps	 xmm0, xmm0
  00386	f3 0f 2a c0	 cvtsi2ss xmm0, eax
  0038a	8b 45 f8	 mov	 eax, DWORD PTR _iXPos$[ebp]
  0038d	f3 0f 11 44 24
	04		 movss	 DWORD PTR [esp+4], xmm0
  00393	83 c0 57	 add	 eax, 87			; 00000057H
  00396	0f 57 c0	 xorps	 xmm0, xmm0
  00399	f3 0f 2a c0	 cvtsi2ss xmm0, eax
  0039d	f3 0f 11 04 24	 movss	 DWORD PTR [esp], xmm0
  003a2	ff d6		 call	 esi
  003a4	50		 push	 eax
  003a5	ff d7		 call	 edi
  003a7	83 c4 14	 add	 esp, 20			; 00000014H
$LN10@OnRender:

; 253  : 	}
; 254  : 
; 255  : 	if( m_dwRefreshDelayTime != 0 )

  003aa	8b 45 fc	 mov	 eax, DWORD PTR _this$[ebp]
  003ad	39 98 f4 01 00
	00		 cmp	 DWORD PTR [eax+500], ebx
  003b3	0f 84 fb 00 00
	00		 je	 $LN9@OnRender

; 256  : 	{
; 257  : 		// loading
; 258  : 		if( COMPARE( m_iInfoLoadArray, 0, MAX_INFO_LODING ) )

  003b9	8b 80 f0 01 00
	00		 mov	 eax, DWORD PTR [eax+496]
  003bf	3b c3		 cmp	 eax, ebx
  003c1	0f 8c e0 02 00
	00		 jl	 $LN2@OnRender
  003c7	83 f8 08	 cmp	 eax, 8
  003ca	0f 8d d7 02 00
	00		 jge	 $LN2@OnRender

; 259  : 		{
; 260  : 			g_FontMgr.SetTextStyle( TS_NORMAL );

  003d0	53		 push	 ebx
  003d1	ff d6		 call	 esi
  003d3	8b c8		 mov	 ecx, eax
  003d5	ff 15 00 00 00
	00		 call	 DWORD PTR __imp_?SetTextStyle@ioFontManager@@QAEXW4TextStyle@@@Z

; 261  : 			g_FontMgr.SetAlignType( TAT_CENTER );

  003db	6a 01		 push	 1
  003dd	ff d6		 call	 esi
  003df	8b c8		 mov	 ecx, eax
  003e1	ff 15 00 00 00
	00		 call	 DWORD PTR __imp_?SetAlignType@ioFontManager@@QAEXW4TextAlignType@@@Z

; 262  : 			g_FontMgr.SetBkColor( 0, 0, 0 );

  003e7	53		 push	 ebx
  003e8	53		 push	 ebx
  003e9	53		 push	 ebx
  003ea	ff d6		 call	 esi
  003ec	8b c8		 mov	 ecx, eax
  003ee	ff 15 00 00 00
	00		 call	 DWORD PTR __imp_?SetBkColor@ioFontManager@@QAEXHHH@Z

; 263  : 			g_FontMgr.SetTextColor( TCT_DEFAULT_GRAY );

  003f4	68 6e 6e 6e ff	 push	 -9539986		; ff6e6e6eH
  003f9	ff d6		 call	 esi
  003fb	8b c8		 mov	 ecx, eax
  003fd	ff 15 00 00 00
	00		 call	 DWORD PTR __imp_?SetTextColor@ioFontManager@@QAEXK@Z

; 264  : 			g_FontMgr.PrintText( iXPos + 87, iYPos + 96 + iExtra_Add_Y, FONT_SIZE_11, STR(3) );

  00403	53		 push	 ebx
  00404	6a 03		 push	 3
  00406	68 00 00 00 00	 push	 OFFSET ??_C@_00CNPNBAHC@?$AA@
  0040b	68 00 00 00 00	 push	 OFFSET ??_C@_0BK@EMIKPMIE@UserInfoToolTip?3?3OnRender?$AA@
  00410	ff 15 00 00 00
	00		 call	 DWORD PTR __imp_?GetSingleton@ioStringManager@@SAAAV1@XZ
  00416	8b c8		 mov	 ecx, eax
  00418	ff 15 00 00 00
	00		 call	 DWORD PTR __imp_?GetString@ioStringManager@@QAEPADPBD0HW4FileNamePrefix@1@@Z
  0041e	f3 0f 10 05 00
	00 00 00	 movss	 xmm0, DWORD PTR __real@3f0ccccd
  00426	8b 4d f4	 mov	 ecx, DWORD PTR _iYPos$[ebp]
  00429	50		 push	 eax
  0042a	8b 45 ec	 mov	 eax, DWORD PTR _iExtra_Add_Y$[ebp]
  0042d	83 ec 0c	 sub	 esp, 12			; 0000000cH
  00430	f3 0f 11 44 24
	08		 movss	 DWORD PTR [esp+8], xmm0
  00436	8d 44 08 60	 lea	 eax, DWORD PTR [eax+ecx+96]
  0043a	0f 57 c0	 xorps	 xmm0, xmm0
  0043d	f3 0f 2a c0	 cvtsi2ss xmm0, eax
  00441	8b 45 f8	 mov	 eax, DWORD PTR _iXPos$[ebp]
  00444	f3 0f 11 44 24
	04		 movss	 DWORD PTR [esp+4], xmm0
  0044a	83 c0 57	 add	 eax, 87			; 00000057H
  0044d	0f 57 c0	 xorps	 xmm0, xmm0
  00450	f3 0f 2a c0	 cvtsi2ss xmm0, eax
  00454	f3 0f 11 04 24	 movss	 DWORD PTR [esp], xmm0
  00459	ff d6		 call	 esi
  0045b	50		 push	 eax
  0045c	ff d7		 call	 edi

; 265  : 
; 266  : 			if( m_pInfoLoading[m_iInfoLoadArray] )

  0045e	8b 45 fc	 mov	 eax, DWORD PTR _this$[ebp]
  00461	8b 88 f0 01 00
	00		 mov	 ecx, DWORD PTR [eax+496]
  00467	83 c4 14	 add	 esp, 20			; 00000014H
  0046a	39 9c 88 cc 01
	00 00		 cmp	 DWORD PTR [eax+ecx*4+460], ebx
  00471	0f 84 30 02 00
	00		 je	 $LN2@OnRender

; 267  : 				m_pInfoLoading[m_iInfoLoadArray]->Render( iXPos + 63, iYPos + 113 );

  00477	8b 84 88 cc 01
	00 00		 mov	 eax, DWORD PTR [eax+ecx*4+460]
  0047e	8b 4d f4	 mov	 ecx, DWORD PTR _iYPos$[ebp]
  00481	8b 10		 mov	 edx, DWORD PTR [eax]
  00483	53		 push	 ebx
  00484	53		 push	 ebx
  00485	83 c1 71	 add	 ecx, 113		; 00000071H
  00488	53		 push	 ebx
  00489	53		 push	 ebx
  0048a	51		 push	 ecx
  0048b	51		 push	 ecx
  0048c	0f 57 c0	 xorps	 xmm0, xmm0
  0048f	f3 0f 2a c1	 cvtsi2ss xmm0, ecx
  00493	8b 4d f8	 mov	 ecx, DWORD PTR _iXPos$[ebp]
  00496	f3 0f 11 44 24
	04		 movss	 DWORD PTR [esp+4], xmm0
  0049c	83 c1 3f	 add	 ecx, 63			; 0000003fH
  0049f	0f 57 c0	 xorps	 xmm0, xmm0
  004a2	f3 0f 2a c1	 cvtsi2ss xmm0, ecx
  004a6	8b c8		 mov	 ecx, eax
  004a8	f3 0f 11 04 24	 movss	 DWORD PTR [esp], xmm0
  004ad	ff 12		 call	 DWORD PTR [edx]

; 268  : 		}
; 269  : 	}
; 270  : 	else

  004af	e9 f3 01 00 00	 jmp	 $LN2@OnRender
$LN9@OnRender:

; 271  : 	{
; 272  : 		if( !m_sName.IsEmpty() )

  004b4	8d 88 64 01 00
	00		 lea	 ecx, DWORD PTR [eax+356]
  004ba	ff 15 00 00 00
	00		 call	 DWORD PTR __imp_?IsEmpty@ioHashString@@QBE_NXZ
  004c0	84 c0		 test	 al, al
  004c2	0f 85 df 01 00
	00		 jne	 $LN2@OnRender

; 273  : 		{
; 274  : 			// 육성, 메달
; 275  : 			g_FontMgr.SetTextStyle( TS_NORMAL );

  004c8	53		 push	 ebx
  004c9	ff d6		 call	 esi
  004cb	8b c8		 mov	 ecx, eax
  004cd	ff 15 00 00 00
	00		 call	 DWORD PTR __imp_?SetTextStyle@ioFontManager@@QAEXW4TextStyle@@@Z

; 276  : 			g_FontMgr.SetBkColor( 0, 0, 0 );

  004d3	53		 push	 ebx
  004d4	53		 push	 ebx
  004d5	53		 push	 ebx
  004d6	ff d6		 call	 esi
  004d8	8b c8		 mov	 ecx, eax
  004da	ff 15 00 00 00
	00		 call	 DWORD PTR __imp_?SetBkColor@ioFontManager@@QAEXHHH@Z

; 277  : 			g_FontMgr.SetTextColor( TCT_DEFAULT_GRAY );

  004e0	68 6e 6e 6e ff	 push	 -9539986		; ff6e6e6eH
  004e5	ff d6		 call	 esi
  004e7	8b c8		 mov	 ecx, eax
  004e9	ff 15 00 00 00
	00		 call	 DWORD PTR __imp_?SetTextColor@ioFontManager@@QAEXK@Z

; 278  : 			g_FontMgr.PrintText( iXPos + GROWTH_XOFFSET, iYPos + GROWTH_YOFFSET + iExtra_Add_Y, FONT_SIZE_11, STR(1) );

  004ef	8b 45 ec	 mov	 eax, DWORD PTR _iExtra_Add_Y$[ebp]
  004f2	03 45 f4	 add	 eax, DWORD PTR _iYPos$[ebp]
  004f5	53		 push	 ebx
  004f6	89 45 f4	 mov	 DWORD PTR tv768[ebp], eax
  004f9	8b 45 f8	 mov	 eax, DWORD PTR _iXPos$[ebp]
  004fc	6a 01		 push	 1
  004fe	83 c0 57	 add	 eax, 87			; 00000057H
  00501	0f 57 c0	 xorps	 xmm0, xmm0
  00504	68 00 00 00 00	 push	 OFFSET ??_C@_00CNPNBAHC@?$AA@
  00509	f3 0f 2a c0	 cvtsi2ss xmm0, eax
  0050d	68 00 00 00 00	 push	 OFFSET ??_C@_0BK@EMIKPMIE@UserInfoToolTip?3?3OnRender?$AA@
  00512	f3 0f 11 45 ec	 movss	 DWORD PTR tv750[ebp], xmm0
  00517	ff 15 00 00 00
	00		 call	 DWORD PTR __imp_?GetSingleton@ioStringManager@@SAAAV1@XZ
  0051d	8b c8		 mov	 ecx, eax
  0051f	ff 15 00 00 00
	00		 call	 DWORD PTR __imp_?GetString@ioStringManager@@QAEPADPBD0HW4FileNamePrefix@1@@Z
  00525	f3 0f 10 05 00
	00 00 00	 movss	 xmm0, DWORD PTR __real@3f0ccccd
  0052d	50		 push	 eax
  0052e	8b 45 f4	 mov	 eax, DWORD PTR tv768[ebp]
  00531	83 ec 0c	 sub	 esp, 12			; 0000000cH
  00534	f3 0f 11 44 24
	08		 movss	 DWORD PTR [esp+8], xmm0
  0053a	83 c0 34	 add	 eax, 52			; 00000034H
  0053d	0f 57 c0	 xorps	 xmm0, xmm0
  00540	f3 0f 2a c0	 cvtsi2ss xmm0, eax
  00544	f3 0f 11 44 24
	04		 movss	 DWORD PTR [esp+4], xmm0
  0054a	f3 0f 10 45 ec	 movss	 xmm0, DWORD PTR tv750[ebp]
  0054f	f3 0f 11 04 24	 movss	 DWORD PTR [esp], xmm0
  00554	ff d6		 call	 esi
  00556	50		 push	 eax
  00557	ff d7		 call	 edi

; 279  : 			
; 280  : 			// UI코스튬 관련 (코스튬 UI 설정)
; 281  : 			g_FontMgr.PrintText( iXPos + COSTUME_XOFFSET, iYPos + COSTUME_YOFFSET + iExtra_Add_Y, FONT_SIZE_11, STR(1) );

  00559	8b 45 f8	 mov	 eax, DWORD PTR _iXPos$[ebp]
  0055c	83 c4 14	 add	 esp, 20			; 00000014H
  0055f	53		 push	 ebx
  00560	6a 01		 push	 1
  00562	83 c0 58	 add	 eax, 88			; 00000058H
  00565	0f 57 c0	 xorps	 xmm0, xmm0
  00568	68 00 00 00 00	 push	 OFFSET ??_C@_00CNPNBAHC@?$AA@
  0056d	f3 0f 2a c0	 cvtsi2ss xmm0, eax
  00571	68 00 00 00 00	 push	 OFFSET ??_C@_0BK@EMIKPMIE@UserInfoToolTip?3?3OnRender?$AA@
  00576	f3 0f 11 45 e8	 movss	 DWORD PTR tv798[ebp], xmm0
  0057b	ff 15 00 00 00
	00		 call	 DWORD PTR __imp_?GetSingleton@ioStringManager@@SAAAV1@XZ
  00581	8b c8		 mov	 ecx, eax
  00583	ff 15 00 00 00
	00		 call	 DWORD PTR __imp_?GetString@ioStringManager@@QAEPADPBD0HW4FileNamePrefix@1@@Z
  00589	f3 0f 10 05 00
	00 00 00	 movss	 xmm0, DWORD PTR __real@3f0ccccd
  00591	50		 push	 eax
  00592	8b 45 f4	 mov	 eax, DWORD PTR tv768[ebp]
  00595	83 ec 0c	 sub	 esp, 12			; 0000000cH
  00598	f3 0f 11 44 24
	08		 movss	 DWORD PTR [esp+8], xmm0
  0059e	05 99 00 00 00	 add	 eax, 153		; 00000099H
  005a3	0f 57 c0	 xorps	 xmm0, xmm0
  005a6	f3 0f 2a c0	 cvtsi2ss xmm0, eax
  005aa	f3 0f 11 44 24
	04		 movss	 DWORD PTR [esp+4], xmm0
  005b0	f3 0f 10 45 e8	 movss	 xmm0, DWORD PTR tv798[ebp]
  005b5	f3 0f 11 04 24	 movss	 DWORD PTR [esp], xmm0
  005ba	ff d6		 call	 esi
  005bc	50		 push	 eax
  005bd	ff d7		 call	 edi
  005bf	83 c4 14	 add	 esp, 20			; 00000014H

; 282  : 			g_FontMgr.PrintText( iXPos + ACCESSORY_XOFFSET, iYPos + ACCESSORY_YOFFSET + iExtra_Add_Y, FONT_SIZE_11, STR(1) );

  005c2	53		 push	 ebx
  005c3	6a 01		 push	 1
  005c5	68 00 00 00 00	 push	 OFFSET ??_C@_00CNPNBAHC@?$AA@
  005ca	68 00 00 00 00	 push	 OFFSET ??_C@_0BK@EMIKPMIE@UserInfoToolTip?3?3OnRender?$AA@
  005cf	ff 15 00 00 00
	00		 call	 DWORD PTR __imp_?GetSingleton@ioStringManager@@SAAAV1@XZ
  005d5	8b c8		 mov	 ecx, eax
  005d7	ff 15 00 00 00
	00		 call	 DWORD PTR __imp_?GetString@ioStringManager@@QAEPADPBD0HW4FileNamePrefix@1@@Z
  005dd	f3 0f 10 05 00
	00 00 00	 movss	 xmm0, DWORD PTR __real@3f0ccccd
  005e5	50		 push	 eax
  005e6	83 ec 0c	 sub	 esp, 12			; 0000000cH
  005e9	8b 45 f4	 mov	 eax, DWORD PTR tv768[ebp]
  005ec	f3 0f 11 44 24
	08		 movss	 DWORD PTR [esp+8], xmm0
  005f2	05 e0 00 00 00	 add	 eax, 224		; 000000e0H
  005f7	0f 57 c0	 xorps	 xmm0, xmm0
  005fa	f3 0f 2a c0	 cvtsi2ss xmm0, eax
  005fe	f3 0f 11 44 24
	04		 movss	 DWORD PTR [esp+4], xmm0
  00604	f3 0f 10 45 e8	 movss	 xmm0, DWORD PTR tv798[ebp]
  00609	f3 0f 11 04 24	 movss	 DWORD PTR [esp], xmm0
  0060e	ff d6		 call	 esi
  00610	50		 push	 eax
  00611	ff d7		 call	 edi
  00613	83 c4 14	 add	 esp, 20			; 00000014H

; 283  : 			g_FontMgr.PrintText( iXPos + MEDAL_XOFFSET, iYPos + MEDAL_YOFFSET + iExtra_Add_Y, FONT_SIZE_11, STR(2) );

  00616	53		 push	 ebx
  00617	6a 02		 push	 2
  00619	68 00 00 00 00	 push	 OFFSET ??_C@_00CNPNBAHC@?$AA@
  0061e	68 00 00 00 00	 push	 OFFSET ??_C@_0BK@EMIKPMIE@UserInfoToolTip?3?3OnRender?$AA@
  00623	ff 15 00 00 00
	00		 call	 DWORD PTR __imp_?GetSingleton@ioStringManager@@SAAAV1@XZ
  00629	8b c8		 mov	 ecx, eax
  0062b	ff 15 00 00 00
	00		 call	 DWORD PTR __imp_?GetString@ioStringManager@@QAEPADPBD0HW4FileNamePrefix@1@@Z
  00631	f3 0f 10 05 00
	00 00 00	 movss	 xmm0, DWORD PTR __real@3f0ccccd
  00639	50		 push	 eax
  0063a	8b 45 f4	 mov	 eax, DWORD PTR tv768[ebp]
  0063d	83 ec 0c	 sub	 esp, 12			; 0000000cH
  00640	f3 0f 11 44 24
	08		 movss	 DWORD PTR [esp+8], xmm0
  00646	05 29 01 00 00	 add	 eax, 297		; 00000129H
  0064b	0f 57 c0	 xorps	 xmm0, xmm0
  0064e	f3 0f 2a c0	 cvtsi2ss xmm0, eax
  00652	f3 0f 11 44 24
	04		 movss	 DWORD PTR [esp+4], xmm0
  00658	f3 0f 10 45 ec	 movss	 xmm0, DWORD PTR tv750[ebp]
  0065d	f3 0f 11 04 24	 movss	 DWORD PTR [esp], xmm0
  00662	ff d6		 call	 esi
  00664	50		 push	 eax
  00665	ff d7		 call	 edi
  00667	8b 75 fc	 mov	 esi, DWORD PTR _this$[ebp]
  0066a	83 c4 14	 add	 esp, 20			; 00000014H
  0066d	6a 08		 push	 8
  0066f	81 c6 ac 01 00
	00		 add	 esi, 428		; 000001acH
  00675	5f		 pop	 edi
$LL4@OnRender:

; 286  : 			{
; 287  : 				if( m_pInfoBox[i] )

  00676	39 1e		 cmp	 DWORD PTR [esi], ebx
  00678	74 27		 je	 SHORT $LN3@OnRender

; 288  : 					m_pInfoBox[i]->Render( iXPos, iYPos + iExtra_Add_Y );

  0067a	8b 0e		 mov	 ecx, DWORD PTR [esi]
  0067c	66 0f 6e 45 f4	 movd	 xmm0, DWORD PTR tv768[ebp]
  00681	8b 01		 mov	 eax, DWORD PTR [ecx]
  00683	53		 push	 ebx
  00684	53		 push	 ebx
  00685	53		 push	 ebx
  00686	53		 push	 ebx
  00687	51		 push	 ecx
  00688	0f 5b c0	 cvtdq2ps xmm0, xmm0
  0068b	51		 push	 ecx
  0068c	f3 0f 11 44 24
	04		 movss	 DWORD PTR [esp+4], xmm0
  00692	66 0f 6e 45 f8	 movd	 xmm0, DWORD PTR _iXPos$[ebp]
  00697	0f 5b c0	 cvtdq2ps xmm0, xmm0
  0069a	f3 0f 11 04 24	 movss	 DWORD PTR [esp], xmm0
  0069f	ff 10		 call	 DWORD PTR [eax]
$LN3@OnRender:

; 284  : 
; 285  : 			for( int i = 0;i < MAX_INFO_BOX;i++)

  006a1	83 c6 04	 add	 esi, 4
  006a4	4f		 dec	 edi
  006a5	75 cf		 jne	 SHORT $LL4@OnRender
$LN2@OnRender:
  006a7	5f		 pop	 edi
  006a8	5e		 pop	 esi
  006a9	5b		 pop	 ebx

; 289  : 			}
; 290  : 		}
; 291  : 	}
; 292  : }

  006aa	c9		 leave
  006ab	c3		 ret	 0
?OnRender@UserInfoToolTip@@MAEXXZ ENDP			; UserInfoToolTip::OnRender
_TEXT	ENDS
PUBLIC	?OnRenderAfterChild@UserInfoToolTip@@MAEXXZ	; UserInfoToolTip::OnRenderAfterChild
; Function compile flags: /Ogsp
;	COMDAT ?OnRenderAfterChild@UserInfoToolTip@@MAEXXZ
_TEXT	SEGMENT
tv293 = -12						; size = 4
_pBtn$545967 = -12					; size = 4
_pBtn$545959 = -12					; size = 4
_pBtn$545951 = -12					; size = 4
_this$ = -8						; size = 4
_i$545963 = -4						; size = 4
_i$545955 = -4						; size = 4
_i$545947 = -4						; size = 4
_pBtn$545943 = -4					; size = 4
?OnRenderAfterChild@UserInfoToolTip@@MAEXXZ PROC	; UserInfoToolTip::OnRenderAfterChild, COMDAT
; _this$ = ecx

; 295  : {

  00000	55		 push	 ebp
  00001	8b ec		 mov	 ebp, esp
  00003	83 ec 0c	 sub	 esp, 12			; 0000000cH

; 296  : 
; 297  : 	if ( m_bExtraInfo )

  00006	80 b9 04 02 00
	00 00		 cmp	 BYTE PTR [ecx+516], 0
  0000d	89 4d f8	 mov	 DWORD PTR _this$[ebp], ecx
  00010	0f 84 61 01 00
	00		 je	 $LN3@OnRenderAf

; 298  : 	{
; 299  : 		for (int i = 0; i < MAX_GROWTH ; i++)

  00016	53		 push	 ebx
  00017	56		 push	 esi
  00018	8b 35 00 00 00
	00		 mov	 esi, DWORD PTR __imp_?FindChildWnd@ioWnd@@QAEPAV1@K@Z
  0001e	57		 push	 edi
  0001f	33 c0		 xor	 eax, eax
  00021	bb 00 00 00 00	 mov	 ebx, OFFSET ??_R0?AVSlotIconBtn@@@8
  00026	bf 00 00 00 00	 mov	 edi, OFFSET ??_R0?AVioWnd@@@8
$LL40@OnRenderAf:

; 300  : 		{
; 301  : 			SlotIconBtn *pBtn = dynamic_cast<SlotIconBtn*> ( FindChildWnd( ID_GROWTH_1_BTN + i ) );

  0002b	8b 4d f8	 mov	 ecx, DWORD PTR _this$[ebp]
  0002e	6a 00		 push	 0
  00030	53		 push	 ebx
  00031	57		 push	 edi
  00032	40		 inc	 eax
  00033	6a 00		 push	 0
  00035	50		 push	 eax
  00036	89 45 f4	 mov	 DWORD PTR tv293[ebp], eax
  00039	ff d6		 call	 esi
  0003b	50		 push	 eax
  0003c	e8 00 00 00 00	 call	 ___RTDynamicCast
  00041	8b c8		 mov	 ecx, eax
  00043	83 c4 14	 add	 esp, 20			; 00000014H
  00046	89 4d fc	 mov	 DWORD PTR _pBtn$545943[ebp], ecx

; 302  : 			if( !pBtn )

  00049	85 c9		 test	 ecx, ecx
  0004b	74 22		 je	 SHORT $LN19@OnRenderAf

; 303  : 				continue;
; 304  : 
; 305  : 			if ( pBtn->IsShow() )

  0004d	ff 15 00 00 00
	00		 call	 DWORD PTR __imp_?IsShow@ioWnd@@QBE_NXZ
  00053	84 c0		 test	 al, al
  00055	74 18		 je	 SHORT $LN19@OnRenderAf

; 306  : 				pBtn->SetPosY( pBtn->GetPosY() - EXTRA_ADD_HEIGHT );

  00057	8b 4d fc	 mov	 ecx, DWORD PTR _pBtn$545943[ebp]
  0005a	ff 15 00 00 00
	00		 call	 DWORD PTR __imp_?GetYPos@ioWnd@@QBEHXZ
  00060	8b 4d fc	 mov	 ecx, DWORD PTR _pBtn$545943[ebp]
  00063	8b 11		 mov	 edx, DWORD PTR [ecx]
  00065	83 c0 f0	 add	 eax, -16		; fffffff0H
  00068	50		 push	 eax
  00069	ff 92 00 01 00
	00		 call	 DWORD PTR [edx+256]
$LN19@OnRenderAf:

; 298  : 	{
; 299  : 		for (int i = 0; i < MAX_GROWTH ; i++)

  0006f	8b 45 f4	 mov	 eax, DWORD PTR tv293[ebp]
  00072	83 f8 08	 cmp	 eax, 8
  00075	7c b4		 jl	 SHORT $LL40@OnRenderAf

; 307  : 		}
; 308  : 
; 309  : 		for (int i = 0; i < MAX_MEDAL ; i++)

  00077	83 65 fc 00	 and	 DWORD PTR _i$545947[ebp], 0
$LL41@OnRenderAf:

; 310  : 		{
; 311  : 			SlotIconBtn *pBtn = dynamic_cast<SlotIconBtn*> ( FindChildWnd( ID_MADAL_1_BTN + i ) );

  0007b	8b 45 fc	 mov	 eax, DWORD PTR _i$545947[ebp]
  0007e	8b 4d f8	 mov	 ecx, DWORD PTR _this$[ebp]
  00081	6a 00		 push	 0
  00083	53		 push	 ebx
  00084	57		 push	 edi
  00085	6a 00		 push	 0
  00087	83 c0 65	 add	 eax, 101		; 00000065H
  0008a	50		 push	 eax
  0008b	ff d6		 call	 esi
  0008d	50		 push	 eax
  0008e	e8 00 00 00 00	 call	 ___RTDynamicCast
  00093	8b c8		 mov	 ecx, eax
  00095	83 c4 14	 add	 esp, 20			; 00000014H
  00098	89 4d f4	 mov	 DWORD PTR _pBtn$545951[ebp], ecx

; 312  : 			if( !pBtn )

  0009b	85 c9		 test	 ecx, ecx
  0009d	74 22		 je	 SHORT $LN14@OnRenderAf

; 313  : 				continue;
; 314  : 
; 315  : 			if ( pBtn->IsShow() )

  0009f	ff 15 00 00 00
	00		 call	 DWORD PTR __imp_?IsShow@ioWnd@@QBE_NXZ
  000a5	84 c0		 test	 al, al
  000a7	74 18		 je	 SHORT $LN14@OnRenderAf

; 316  : 				pBtn->SetPosY( pBtn->GetPosY() - EXTRA_ADD_HEIGHT );

  000a9	8b 4d f4	 mov	 ecx, DWORD PTR _pBtn$545951[ebp]
  000ac	ff 15 00 00 00
	00		 call	 DWORD PTR __imp_?GetYPos@ioWnd@@QBEHXZ
  000b2	8b 4d f4	 mov	 ecx, DWORD PTR _pBtn$545951[ebp]
  000b5	8b 11		 mov	 edx, DWORD PTR [ecx]
  000b7	83 c0 f0	 add	 eax, -16		; fffffff0H
  000ba	50		 push	 eax
  000bb	ff 92 00 01 00
	00		 call	 DWORD PTR [edx+256]
$LN14@OnRenderAf:

; 307  : 		}
; 308  : 
; 309  : 		for (int i = 0; i < MAX_MEDAL ; i++)

  000c1	ff 45 fc	 inc	 DWORD PTR _i$545947[ebp]
  000c4	83 7d fc 06	 cmp	 DWORD PTR _i$545947[ebp], 6
  000c8	7c b1		 jl	 SHORT $LL41@OnRenderAf

; 317  : 		}
; 318  : 
; 319  : 		for ( int i=0; i<MAX_COSTUME; i++ )

  000ca	83 65 fc 00	 and	 DWORD PTR _i$545955[ebp], 0
$LL42@OnRenderAf:

; 320  : 		{
; 321  : 			SlotIconBtn *pBtn = dynamic_cast<SlotIconBtn*> ( FindChildWnd( ID_COSTUME_1_BTN + i ) );

  000ce	8b 45 fc	 mov	 eax, DWORD PTR _i$545955[ebp]
  000d1	8b 4d f8	 mov	 ecx, DWORD PTR _this$[ebp]
  000d4	6a 00		 push	 0
  000d6	53		 push	 ebx
  000d7	57		 push	 edi
  000d8	6a 00		 push	 0
  000da	05 c9 00 00 00	 add	 eax, 201		; 000000c9H
  000df	50		 push	 eax
  000e0	ff d6		 call	 esi
  000e2	50		 push	 eax
  000e3	e8 00 00 00 00	 call	 ___RTDynamicCast
  000e8	8b c8		 mov	 ecx, eax
  000ea	83 c4 14	 add	 esp, 20			; 00000014H
  000ed	89 4d f4	 mov	 DWORD PTR _pBtn$545959[ebp], ecx

; 322  : 			if( !pBtn )

  000f0	85 c9		 test	 ecx, ecx
  000f2	74 22		 je	 SHORT $LN9@OnRenderAf

; 323  : 				continue;
; 324  : 
; 325  : 			if ( pBtn->IsShow() )

  000f4	ff 15 00 00 00
	00		 call	 DWORD PTR __imp_?IsShow@ioWnd@@QBE_NXZ
  000fa	84 c0		 test	 al, al
  000fc	74 18		 je	 SHORT $LN9@OnRenderAf

; 326  : 				pBtn->SetPosY( pBtn->GetPosY() - EXTRA_ADD_HEIGHT );

  000fe	8b 4d f4	 mov	 ecx, DWORD PTR _pBtn$545959[ebp]
  00101	ff 15 00 00 00
	00		 call	 DWORD PTR __imp_?GetYPos@ioWnd@@QBEHXZ
  00107	8b 4d f4	 mov	 ecx, DWORD PTR _pBtn$545959[ebp]
  0010a	8b 11		 mov	 edx, DWORD PTR [ecx]
  0010c	83 c0 f0	 add	 eax, -16		; fffffff0H
  0010f	50		 push	 eax
  00110	ff 92 00 01 00
	00		 call	 DWORD PTR [edx+256]
$LN9@OnRenderAf:

; 317  : 		}
; 318  : 
; 319  : 		for ( int i=0; i<MAX_COSTUME; i++ )

  00116	ff 45 fc	 inc	 DWORD PTR _i$545955[ebp]
  00119	83 7d fc 04	 cmp	 DWORD PTR _i$545955[ebp], 4
  0011d	7c af		 jl	 SHORT $LL42@OnRenderAf

; 327  : 		}
; 328  : 
; 329  : 		for ( int i=0; i<MAX_ACC_INVENTORY; i++ )

  0011f	83 65 fc 00	 and	 DWORD PTR _i$545963[ebp], 0
$LL43@OnRenderAf:

; 330  : 		{
; 331  : 			SlotIconBtn *pBtn = dynamic_cast<SlotIconBtn*> ( FindChildWnd( ID_ACCESSORY_1_BTN + i ) );

  00123	8b 45 fc	 mov	 eax, DWORD PTR _i$545963[ebp]
  00126	8b 4d f8	 mov	 ecx, DWORD PTR _this$[ebp]
  00129	6a 00		 push	 0
  0012b	53		 push	 ebx
  0012c	57		 push	 edi
  0012d	6a 00		 push	 0
  0012f	05 2d 01 00 00	 add	 eax, 301		; 0000012dH
  00134	50		 push	 eax
  00135	ff d6		 call	 esi
  00137	50		 push	 eax
  00138	e8 00 00 00 00	 call	 ___RTDynamicCast
  0013d	8b c8		 mov	 ecx, eax
  0013f	83 c4 14	 add	 esp, 20			; 00000014H
  00142	89 4d f4	 mov	 DWORD PTR _pBtn$545967[ebp], ecx

; 332  : 			if( !pBtn )

  00145	85 c9		 test	 ecx, ecx
  00147	74 22		 je	 SHORT $LN4@OnRenderAf

; 333  : 				continue;
; 334  : 
; 335  : 			if ( pBtn->IsShow() )

  00149	ff 15 00 00 00
	00		 call	 DWORD PTR __imp_?IsShow@ioWnd@@QBE_NXZ
  0014f	84 c0		 test	 al, al
  00151	74 18		 je	 SHORT $LN4@OnRenderAf

; 336  : 				pBtn->SetPosY( pBtn->GetPosY() - EXTRA_ADD_HEIGHT );

  00153	8b 4d f4	 mov	 ecx, DWORD PTR _pBtn$545967[ebp]
  00156	ff 15 00 00 00
	00		 call	 DWORD PTR __imp_?GetYPos@ioWnd@@QBEHXZ
  0015c	8b 4d f4	 mov	 ecx, DWORD PTR _pBtn$545967[ebp]
  0015f	8b 11		 mov	 edx, DWORD PTR [ecx]
  00161	83 c0 f0	 add	 eax, -16		; fffffff0H
  00164	50		 push	 eax
  00165	ff 92 00 01 00
	00		 call	 DWORD PTR [edx+256]
$LN4@OnRenderAf:

; 327  : 		}
; 328  : 
; 329  : 		for ( int i=0; i<MAX_ACC_INVENTORY; i++ )

  0016b	ff 45 fc	 inc	 DWORD PTR _i$545963[ebp]
  0016e	83 7d fc 03	 cmp	 DWORD PTR _i$545963[ebp], 3
  00172	7c af		 jl	 SHORT $LL43@OnRenderAf
  00174	5f		 pop	 edi
  00175	5e		 pop	 esi
  00176	5b		 pop	 ebx
$LN3@OnRenderAf:

; 337  : 		}
; 338  : 	}
; 339  : 
; 340  : }

  00177	c9		 leave
  00178	c3		 ret	 0
?OnRenderAfterChild@UserInfoToolTip@@MAEXXZ ENDP	; UserInfoToolTip::OnRenderAfterChild
_TEXT	ENDS
PUBLIC	?SetPlayStage@UserInfoToolTip@@QAEXPAVioPlayStage@@@Z ; UserInfoToolTip::SetPlayStage
; Function compile flags: /Ogsp
;	COMDAT ?SetPlayStage@UserInfoToolTip@@QAEXPAVioPlayStage@@@Z
_TEXT	SEGMENT
_pStage$ = 8						; size = 4
?SetPlayStage@UserInfoToolTip@@QAEXPAVioPlayStage@@@Z PROC ; UserInfoToolTip::SetPlayStage, COMDAT
; _this$ = ecx

; 1120 : {

  00000	55		 push	 ebp
  00001	8b ec		 mov	 ebp, esp

; 1121 : 	m_pPlayStage = pStage;

  00003	8b 45 08	 mov	 eax, DWORD PTR _pStage$[ebp]
  00006	89 81 60 01 00
	00		 mov	 DWORD PTR [ecx+352], eax

; 1122 : }

  0000c	5d		 pop	 ebp
  0000d	c2 04 00	 ret	 4
?SetPlayStage@UserInfoToolTip@@QAEXPAVioPlayStage@@@Z ENDP ; UserInfoToolTip::SetPlayStage
_TEXT	ENDS
PUBLIC	__real@4f800000
PUBLIC	?ProcessLoading@UserInfoToolTip@@IAEXXZ		; UserInfoToolTip::ProcessLoading
EXTRN	__imp_?GetLoopSec@ioFrameTimer@@QBEKXZ:PROC
EXTRN	__imp_?GetSingleton@ioFrameTimer@@SAAAV1@XZ:PROC
;	COMDAT __real@4f800000
; File d:\lost saga for developer\youtube\tutorial\source\src\lsclient\stdafx.h
CONST	SEGMENT
__real@4f800000 DD 04f800000r			; 4.29497e+009
; Function compile flags: /Ogsp
; File d:\lost saga for developer\youtube\tutorial\source\src\lsclient\gui\userinfotooltip.cpp
CONST	ENDS
;	COMDAT ?ProcessLoading@UserInfoToolTip@@IAEXXZ
_TEXT	SEGMENT
tv145 = -4						; size = 4
tv142 = -4						; size = 4
?ProcessLoading@UserInfoToolTip@@IAEXXZ PROC		; UserInfoToolTip::ProcessLoading, COMDAT
; _this$ = ecx

; 1265 : {

  00000	55		 push	 ebp
  00001	8b ec		 mov	 ebp, esp
  00003	51		 push	 ecx
  00004	53		 push	 ebx
  00005	56		 push	 esi
  00006	57		 push	 edi
  00007	8b f1		 mov	 esi, ecx

; 1266 : 	if( FRAMEGETTIME() - m_dwInfoLoadTime > FLOAT100 )

  00009	b8 64 00 00 00	 mov	 eax, 100		; 00000064H
  0000e	8b 3d 00 00 00
	00		 mov	 edi, DWORD PTR __imp_?GetSingleton@ioFrameTimer@@SAAAV1@XZ
  00014	8b d8		 mov	 ebx, eax
  00016	ff d7		 call	 edi
  00018	8b c8		 mov	 ecx, eax
  0001a	ff 15 00 00 00
	00		 call	 DWORD PTR __imp_?GetLoopSec@ioFrameTimer@@QBEKXZ
  00020	2b 86 ec 01 00
	00		 sub	 eax, DWORD PTR [esi+492]
  00026	89 45 fc	 mov	 DWORD PTR tv145[ebp], eax
  00029	db 45 fc	 fild	 DWORD PTR tv145[ebp]
  0002c	79 06		 jns	 SHORT $LN7@ProcessLoa
  0002e	d8 05 00 00 00
	00		 fadd	 DWORD PTR __real@4f800000
$LN7@ProcessLoa:
  00034	89 5d fc	 mov	 DWORD PTR tv142[ebp], ebx
  00037	db 45 fc	 fild	 DWORD PTR tv142[ebp]
  0003a	85 db		 test	 ebx, ebx
  0003c	79 06		 jns	 SHORT $LN8@ProcessLoa
  0003e	d8 05 00 00 00
	00		 fadd	 DWORD PTR __real@4f800000
$LN8@ProcessLoa:
  00044	d9 c9		 fxch	 ST(1)
  00046	df f1		 fcomip	 ST(1)
  00048	dd d8		 fstp	 ST(0)
  0004a	76 26		 jbe	 SHORT $LN1@ProcessLoa

; 1267 : 	{
; 1268 : 		m_dwInfoLoadTime = FRAMEGETTIME();

  0004c	ff d7		 call	 edi
  0004e	8b c8		 mov	 ecx, eax
  00050	ff 15 00 00 00
	00		 call	 DWORD PTR __imp_?GetLoopSec@ioFrameTimer@@QBEKXZ

; 1269 : 		m_iInfoLoadArray++;

  00056	ff 86 f0 01 00
	00		 inc	 DWORD PTR [esi+496]

; 1270 : 
; 1271 : 		if( m_iInfoLoadArray >= MAX_INFO_LODING )

  0005c	83 be f0 01 00
	00 08		 cmp	 DWORD PTR [esi+496], 8
  00063	89 86 ec 01 00
	00		 mov	 DWORD PTR [esi+492], eax
  00069	7c 07		 jl	 SHORT $LN1@ProcessLoa

; 1272 : 			m_iInfoLoadArray = 0;

  0006b	83 a6 f0 01 00
	00 00		 and	 DWORD PTR [esi+496], 0
$LN1@ProcessLoa:
  00072	5f		 pop	 edi
  00073	5e		 pop	 esi
  00074	5b		 pop	 ebx

; 1273 : 	}
; 1274 : }

  00075	c9		 leave
  00076	c3		 ret	 0
?ProcessLoading@UserInfoToolTip@@IAEXXZ ENDP		; UserInfoToolTip::ProcessLoading
_TEXT	ENDS
PUBLIC	?iwm_show@UserInfoToolTip@@UAEXXZ		; UserInfoToolTip::iwm_show
EXTRN	__imp_?HideChildWnd@ioWnd@@QAEXK_N@Z:PROC
EXTRN	__imp_?Clear@ioHashString@@QAEXXZ:PROC
; Function compile flags: /Ogsp
;	COMDAT ?iwm_show@UserInfoToolTip@@UAEXXZ
_TEXT	SEGMENT
?iwm_show@UserInfoToolTip@@UAEXXZ PROC			; UserInfoToolTip::iwm_show, COMDAT
; _this$ = ecx

; 1277 : {

  00000	53		 push	 ebx
  00001	56		 push	 esi
  00002	8b f1		 mov	 esi, ecx
  00004	57		 push	 edi

; 1278 : 	m_sName.Clear();

  00005	8b 3d 00 00 00
	00		 mov	 edi, DWORD PTR __imp_?Clear@ioHashString@@QAEXXZ
  0000b	8d 8e 64 01 00
	00		 lea	 ecx, DWORD PTR [esi+356]
  00011	ff d7		 call	 edi

; 1279 : 	m_sClassInfo.Clear();

  00013	8d 8e 74 01 00
	00		 lea	 ecx, DWORD PTR [esi+372]
  00019	ff d7		 call	 edi

; 1280 : 	m_sExtraInfo.Clear();

  0001b	8d 8e 84 01 00
	00		 lea	 ecx, DWORD PTR [esi+388]
  00021	ff d7		 call	 edi

; 1281 : 
; 1282 : 	m_dwRefreshDelayTime = 0;
; 1283 : 
; 1284 : 	for (int i = 0; i < MAX_GROWTH ; i++)

  00023	8b 3d 00 00 00
	00		 mov	 edi, DWORD PTR __imp_?HideChildWnd@ioWnd@@QAEXK_N@Z
  00029	33 c0		 xor	 eax, eax
  0002b	89 86 f4 01 00
	00		 mov	 DWORD PTR [esi+500], eax
$LL18@iwm_show:

; 1285 : 		HideChildWnd( ID_GROWTH_1_BTN + i );

  00031	8d 58 01	 lea	 ebx, DWORD PTR [eax+1]
  00034	6a 00		 push	 0
  00036	53		 push	 ebx
  00037	8b ce		 mov	 ecx, esi
  00039	ff d7		 call	 edi
  0003b	8b c3		 mov	 eax, ebx
  0003d	83 f8 08	 cmp	 eax, 8
  00040	7c ef		 jl	 SHORT $LL18@iwm_show

; 1286 : 	for (int i = 0; i < MAX_MEDAL ; i++)

  00042	33 db		 xor	 ebx, ebx
$LL19@iwm_show:

; 1287 : 		HideChildWnd( ID_MADAL_1_BTN + i );

  00044	6a 00		 push	 0
  00046	8d 43 65	 lea	 eax, DWORD PTR [ebx+101]
  00049	50		 push	 eax
  0004a	8b ce		 mov	 ecx, esi
  0004c	ff d7		 call	 edi
  0004e	43		 inc	 ebx
  0004f	83 fb 06	 cmp	 ebx, 6
  00052	7c f0		 jl	 SHORT $LL19@iwm_show

; 1288 : 	for (int i = 0; i < MAX_COSTUME ; i++)

  00054	33 db		 xor	 ebx, ebx
$LL3@iwm_show:

; 1289 : 		HideChildWnd( ID_COSTUME_1_BTN + i );

  00056	6a 00		 push	 0
  00058	8d 83 c9 00 00
	00		 lea	 eax, DWORD PTR [ebx+201]
  0005e	50		 push	 eax
  0005f	8b ce		 mov	 ecx, esi
  00061	ff d7		 call	 edi
  00063	43		 inc	 ebx
  00064	83 fb 04	 cmp	 ebx, 4
  00067	7c ed		 jl	 SHORT $LL3@iwm_show

; 1290 : }

  00069	5f		 pop	 edi
  0006a	5e		 pop	 esi
  0006b	5b		 pop	 ebx
  0006c	c3		 ret	 0
?iwm_show@UserInfoToolTip@@UAEXXZ ENDP			; UserInfoToolTip::iwm_show
_TEXT	ENDS
PUBLIC	??A?$vector@VioHashString@@V?$allocator@VioHashString@@@std@@@std@@QAEAAVioHashString@@I@Z ; std::vector<ioHashString,std::allocator<ioHashString> >::operator[]
; Function compile flags: /Ogsp
; File c:\program files (x86)\microsoft visual studio 10.0\vc\include\vector
;	COMDAT ??A?$vector@VioHashString@@V?$allocator@VioHashString@@@std@@@std@@QAEAAVioHashString@@I@Z
_TEXT	SEGMENT
__Pos$ = 8						; size = 4
??A?$vector@VioHashString@@V?$allocator@VioHashString@@@std@@@std@@QAEAAVioHashString@@I@Z PROC ; std::vector<ioHashString,std::allocator<ioHashString> >::operator[], COMDAT
; _this$ = ecx

; 928  : 		{	// subscript mutable sequence

  00000	55		 push	 ebp
  00001	8b ec		 mov	 ebp, esp

; 929  :  #if _ITERATOR_DEBUG_LEVEL == 2
; 930  : 		if (size() <= _Pos)
; 931  : 			{	// report error
; 932  : 			_DEBUG_ERROR("vector subscript out of range");
; 933  : 			_SCL_SECURE_OUT_OF_RANGE;
; 934  : 			}
; 935  : 
; 936  :  #elif _ITERATOR_DEBUG_LEVEL == 1
; 937  : 		_SCL_SECURE_VALIDATE_RANGE(_Pos < size());
; 938  :  #endif /* _ITERATOR_DEBUG_LEVEL */
; 939  : 
; 940  : 		return (*(this->_Myfirst + _Pos));

  00003	8b 45 08	 mov	 eax, DWORD PTR __Pos$[ebp]
  00006	c1 e0 04	 shl	 eax, 4
  00009	03 01		 add	 eax, DWORD PTR [ecx]

; 941  : 		}

  0000b	5d		 pop	 ebp
  0000c	c2 04 00	 ret	 4
??A?$vector@VioHashString@@V?$allocator@VioHashString@@@std@@@std@@QAEAAVioHashString@@I@Z ENDP ; std::vector<ioHashString,std::allocator<ioHashString> >::operator[]
_TEXT	ENDS
PUBLIC	??A?$vector@UExpandMedalSlot@ioExpandMedalSlotManager@@V?$allocator@UExpandMedalSlot@ioExpandMedalSlotManager@@@std@@@std@@QAEAAUExpandMedalSlot@ioExpandMedalSlotManager@@I@Z ; std::vector<ioExpandMedalSlotManager::ExpandMedalSlot,std::allocator<ioExpandMedalSlotManager::ExpandMedalSlot> >::operator[]
; Function compile flags: /Ogsp
;	COMDAT ??A?$vector@UExpandMedalSlot@ioExpandMedalSlotManager@@V?$allocator@UExpandMedalSlot@ioExpandMedalSlotManager@@@std@@@std@@QAEAAUExpandMedalSlot@ioExpandMedalSlotManager@@I@Z
_TEXT	SEGMENT
__Pos$ = 8						; size = 4
??A?$vector@UExpandMedalSlot@ioExpandMedalSlotManager@@V?$allocator@UExpandMedalSlot@ioExpandMedalSlotManager@@@std@@@std@@QAEAAUExpandMedalSlot@ioExpandMedalSlotManager@@I@Z PROC ; std::vector<ioExpandMedalSlotManager::ExpandMedalSlot,std::allocator<ioExpandMedalSlotManager::ExpandMedalSlot> >::operator[], COMDAT
; _this$ = ecx

; 928  : 		{	// subscript mutable sequence

  00000	55		 push	 ebp
  00001	8b ec		 mov	 ebp, esp

; 929  :  #if _ITERATOR_DEBUG_LEVEL == 2
; 930  : 		if (size() <= _Pos)
; 931  : 			{	// report error
; 932  : 			_DEBUG_ERROR("vector subscript out of range");
; 933  : 			_SCL_SECURE_OUT_OF_RANGE;
; 934  : 			}
; 935  : 
; 936  :  #elif _ITERATOR_DEBUG_LEVEL == 1
; 937  : 		_SCL_SECURE_VALIDATE_RANGE(_Pos < size());
; 938  :  #endif /* _ITERATOR_DEBUG_LEVEL */
; 939  : 
; 940  : 		return (*(this->_Myfirst + _Pos));

  00003	8b 45 08	 mov	 eax, DWORD PTR __Pos$[ebp]
  00006	6b c0 0c	 imul	 eax, 12			; 0000000cH
  00009	03 01		 add	 eax, DWORD PTR [ecx]

; 941  : 		}

  0000b	5d		 pop	 ebp
  0000c	c2 04 00	 ret	 4
??A?$vector@UExpandMedalSlot@ioExpandMedalSlotManager@@V?$allocator@UExpandMedalSlot@ioExpandMedalSlotManager@@@std@@@std@@QAEAAUExpandMedalSlot@ioExpandMedalSlotManager@@I@Z ENDP ; std::vector<ioExpandMedalSlotManager::ExpandMedalSlot,std::allocator<ioExpandMedalSlotManager::ExpandMedalSlot> >::operator[]
_TEXT	ENDS
PUBLIC	?size@?$vector@PAUUserInfo@UserInfoToolTip@@V?$allocator@PAUUserInfo@UserInfoToolTip@@@std@@@std@@QBEIXZ ; std::vector<UserInfoToolTip::UserInfo *,std::allocator<UserInfoToolTip::UserInfo *> >::size
; Function compile flags: /Ogsp
;	COMDAT ?size@?$vector@PAUUserInfo@UserInfoToolTip@@V?$allocator@PAUUserInfo@UserInfoToolTip@@@std@@@std@@QBEIXZ
_TEXT	SEGMENT
?size@?$vector@PAUUserInfo@UserInfoToolTip@@V?$allocator@PAUUserInfo@UserInfoToolTip@@@std@@@std@@QBEIXZ PROC ; std::vector<UserInfoToolTip::UserInfo *,std::allocator<UserInfoToolTip::UserInfo *> >::size, COMDAT
; _this$ = ecx

; 879  : 		return (this->_Mylast - this->_Myfirst);

  00000	8b 41 04	 mov	 eax, DWORD PTR [ecx+4]
  00003	2b 01		 sub	 eax, DWORD PTR [ecx]
  00005	c1 f8 02	 sar	 eax, 2

; 880  : 		}

  00008	c3		 ret	 0
?size@?$vector@PAUUserInfo@UserInfoToolTip@@V?$allocator@PAUUserInfo@UserInfoToolTip@@@std@@@std@@QBEIXZ ENDP ; std::vector<UserInfoToolTip::UserInfo *,std::allocator<UserInfoToolTip::UserInfo *> >::size
_TEXT	ENDS
PUBLIC	?empty@?$vector@PAUUserInfo@UserInfoToolTip@@V?$allocator@PAUUserInfo@UserInfoToolTip@@@std@@@std@@QBE_NXZ ; std::vector<UserInfoToolTip::UserInfo *,std::allocator<UserInfoToolTip::UserInfo *> >::empty
; Function compile flags: /Ogsp
;	COMDAT ?empty@?$vector@PAUUserInfo@UserInfoToolTip@@V?$allocator@PAUUserInfo@UserInfoToolTip@@@std@@@std@@QBE_NXZ
_TEXT	SEGMENT
?empty@?$vector@PAUUserInfo@UserInfoToolTip@@V?$allocator@PAUUserInfo@UserInfoToolTip@@@std@@@std@@QBE_NXZ PROC ; std::vector<UserInfoToolTip::UserInfo *,std::allocator<UserInfoToolTip::UserInfo *> >::empty, COMDAT
; _this$ = ecx

; 889  : 		return (this->_Myfirst == this->_Mylast);

  00000	8b 01		 mov	 eax, DWORD PTR [ecx]
  00002	2b 41 04	 sub	 eax, DWORD PTR [ecx+4]
  00005	f7 d8		 neg	 eax
  00007	1b c0		 sbb	 eax, eax
  00009	40		 inc	 eax

; 890  : 		}

  0000a	c3		 ret	 0
?empty@?$vector@PAUUserInfo@UserInfoToolTip@@V?$allocator@PAUUserInfo@UserInfoToolTip@@@std@@@std@@QBE_NXZ ENDP ; std::vector<UserInfoToolTip::UserInfo *,std::allocator<UserInfoToolTip::UserInfo *> >::empty
_TEXT	ENDS
PUBLIC	?_Inside@?$vector@VioHashString@@V?$allocator@VioHashString@@@std@@@std@@IBE_NPBVioHashString@@@Z ; std::vector<ioHashString,std::allocator<ioHashString> >::_Inside
; Function compile flags: /Ogsp
;	COMDAT ?_Inside@?$vector@VioHashString@@V?$allocator@VioHashString@@@std@@@std@@IBE_NPBVioHashString@@@Z
_TEXT	SEGMENT
__Ptr$ = 8						; size = 4
?_Inside@?$vector@VioHashString@@V?$allocator@VioHashString@@@std@@@std@@IBE_NPBVioHashString@@@Z PROC ; std::vector<ioHashString,std::allocator<ioHashString> >::_Inside, COMDAT
; _this$ = ecx

; 1285 : 		{	// test if _Ptr points inside vector

  00000	55		 push	 ebp
  00001	8b ec		 mov	 ebp, esp

; 1286 : 		return (_Ptr < this->_Mylast && this->_Myfirst <= _Ptr);

  00003	8b 45 08	 mov	 eax, DWORD PTR __Ptr$[ebp]
  00006	3b 41 04	 cmp	 eax, DWORD PTR [ecx+4]
  00009	73 09		 jae	 SHORT $LN3@Inside
  0000b	39 01		 cmp	 DWORD PTR [ecx], eax
  0000d	77 05		 ja	 SHORT $LN3@Inside
  0000f	33 c0		 xor	 eax, eax
  00011	40		 inc	 eax
  00012	eb 02		 jmp	 SHORT $LN4@Inside
$LN3@Inside:
  00014	33 c0		 xor	 eax, eax
$LN4@Inside:

; 1287 : 		}

  00016	5d		 pop	 ebp
  00017	c2 04 00	 ret	 4
?_Inside@?$vector@VioHashString@@V?$allocator@VioHashString@@@std@@@std@@IBE_NPBVioHashString@@@Z ENDP ; std::vector<ioHashString,std::allocator<ioHashString> >::_Inside
_TEXT	ENDS
PUBLIC	?_Orphan_range@?$vector@VioHashString@@V?$allocator@VioHashString@@@std@@@std@@IBEXPAVioHashString@@0@Z ; std::vector<ioHashString,std::allocator<ioHashString> >::_Orphan_range
; Function compile flags: /Ogsp
;	COMDAT ?_Orphan_range@?$vector@VioHashString@@V?$allocator@VioHashString@@@std@@@std@@IBEXPAVioHashString@@0@Z
_TEXT	SEGMENT
___formal$ = 8						; size = 4
___formal$ = 12						; size = 4
?_Orphan_range@?$vector@VioHashString@@V?$allocator@VioHashString@@@std@@@std@@IBEXPAVioHashString@@0@Z PROC ; std::vector<ioHashString,std::allocator<ioHashString> >::_Orphan_range, COMDAT
; _this$ = ecx

; 1454 : 		}

  00000	c2 08 00	 ret	 8
?_Orphan_range@?$vector@VioHashString@@V?$allocator@VioHashString@@@std@@@std@@IBEXPAVioHashString@@0@Z ENDP ; std::vector<ioHashString,std::allocator<ioHashString> >::_Orphan_range
_TEXT	ENDS
PUBLIC	?_Inside@?$vector@HV?$allocator@H@std@@@std@@IBE_NPBH@Z ; std::vector<int,std::allocator<int> >::_Inside
; Function compile flags: /Ogsp
;	COMDAT ?_Inside@?$vector@HV?$allocator@H@std@@@std@@IBE_NPBH@Z
_TEXT	SEGMENT
__Ptr$ = 8						; size = 4
?_Inside@?$vector@HV?$allocator@H@std@@@std@@IBE_NPBH@Z PROC ; std::vector<int,std::allocator<int> >::_Inside, COMDAT
; _this$ = ecx

; 1285 : 		{	// test if _Ptr points inside vector

  00000	55		 push	 ebp
  00001	8b ec		 mov	 ebp, esp

; 1286 : 		return (_Ptr < this->_Mylast && this->_Myfirst <= _Ptr);

  00003	8b 45 08	 mov	 eax, DWORD PTR __Ptr$[ebp]
  00006	3b 41 04	 cmp	 eax, DWORD PTR [ecx+4]
  00009	73 09		 jae	 SHORT $LN3@Inside@2
  0000b	39 01		 cmp	 DWORD PTR [ecx], eax
  0000d	77 05		 ja	 SHORT $LN3@Inside@2
  0000f	33 c0		 xor	 eax, eax
  00011	40		 inc	 eax
  00012	eb 02		 jmp	 SHORT $LN4@Inside@2
$LN3@Inside@2:
  00014	33 c0		 xor	 eax, eax
$LN4@Inside@2:

; 1287 : 		}

  00016	5d		 pop	 ebp
  00017	c2 04 00	 ret	 4
?_Inside@?$vector@HV?$allocator@H@std@@@std@@IBE_NPBH@Z ENDP ; std::vector<int,std::allocator<int> >::_Inside
_TEXT	ENDS
PUBLIC	?_Orphan_range@?$vector@HV?$allocator@H@std@@@std@@IBEXPAH0@Z ; std::vector<int,std::allocator<int> >::_Orphan_range
; Function compile flags: /Ogsp
;	COMDAT ?_Orphan_range@?$vector@HV?$allocator@H@std@@@std@@IBEXPAH0@Z
_TEXT	SEGMENT
___formal$ = 8						; size = 4
___formal$ = 12						; size = 4
?_Orphan_range@?$vector@HV?$allocator@H@std@@@std@@IBEXPAH0@Z PROC ; std::vector<int,std::allocator<int> >::_Orphan_range, COMDAT
; _this$ = ecx

; 1454 : 		}

  00000	c2 08 00	 ret	 8
?_Orphan_range@?$vector@HV?$allocator@H@std@@@std@@IBEXPAH0@Z ENDP ; std::vector<int,std::allocator<int> >::_Orphan_range
_TEXT	ENDS
PUBLIC	??1?$_Vector_val@UExpandMedalSlot@ioExpandMedalSlotManager@@V?$allocator@UExpandMedalSlot@ioExpandMedalSlotManager@@@std@@@std@@QAE@XZ ; std::_Vector_val<ioExpandMedalSlotManager::ExpandMedalSlot,std::allocator<ioExpandMedalSlotManager::ExpandMedalSlot> >::~_Vector_val<ioExpandMedalSlotManager::ExpandMedalSlot,std::allocator<ioExpandMedalSlotManager::ExpandMedalSlot> >
; Function compile flags: /Ogsp
;	COMDAT ??1?$_Vector_val@UExpandMedalSlot@ioExpandMedalSlotManager@@V?$allocator@UExpandMedalSlot@ioExpandMedalSlotManager@@@std@@@std@@QAE@XZ
_TEXT	SEGMENT
??1?$_Vector_val@UExpandMedalSlot@ioExpandMedalSlotManager@@V?$allocator@UExpandMedalSlot@ioExpandMedalSlotManager@@@std@@@std@@QAE@XZ PROC ; std::_Vector_val<ioExpandMedalSlotManager::ExpandMedalSlot,std::allocator<ioExpandMedalSlotManager::ExpandMedalSlot> >::~_Vector_val<ioExpandMedalSlotManager::ExpandMedalSlot,std::allocator<ioExpandMedalSlotManager::ExpandMedalSlot> >, COMDAT
; _this$ = ecx

; 434  : 		}

  00000	c3		 ret	 0
??1?$_Vector_val@UExpandMedalSlot@ioExpandMedalSlotManager@@V?$allocator@UExpandMedalSlot@ioExpandMedalSlotManager@@@std@@@std@@QAE@XZ ENDP ; std::_Vector_val<ioExpandMedalSlotManager::ExpandMedalSlot,std::allocator<ioExpandMedalSlotManager::ExpandMedalSlot> >::~_Vector_val<ioExpandMedalSlotManager::ExpandMedalSlot,std::allocator<ioExpandMedalSlotManager::ExpandMedalSlot> >
_TEXT	ENDS
PUBLIC	??0?$allocator@UExpandMedalSlot@ioExpandMedalSlotManager@@@std@@QAE@XZ ; std::allocator<ioExpandMedalSlotManager::ExpandMedalSlot>::allocator<ioExpandMedalSlotManager::ExpandMedalSlot>
; Function compile flags: /Ogsp
; File c:\program files (x86)\microsoft visual studio 10.0\vc\include\xmemory
;	COMDAT ??0?$allocator@UExpandMedalSlot@ioExpandMedalSlotManager@@@std@@QAE@XZ
_TEXT	SEGMENT
??0?$allocator@UExpandMedalSlot@ioExpandMedalSlotManager@@@std@@QAE@XZ PROC ; std::allocator<ioExpandMedalSlotManager::ExpandMedalSlot>::allocator<ioExpandMedalSlotManager::ExpandMedalSlot>, COMDAT
; _this$ = ecx

; 161  : 	_ALLOCATOR() _THROW0()

  00000	8b c1		 mov	 eax, ecx

; 162  : 		{	// construct default allocator (do nothing)
; 163  : 		}

  00002	c3		 ret	 0
??0?$allocator@UExpandMedalSlot@ioExpandMedalSlotManager@@@std@@QAE@XZ ENDP ; std::allocator<ioExpandMedalSlotManager::ExpandMedalSlot>::allocator<ioExpandMedalSlotManager::ExpandMedalSlot>
_TEXT	ENDS
PUBLIC	??D?$_Vector_const_iterator@V?$_Vector_val@HV?$allocator@H@std@@@std@@@std@@QBEABHXZ ; std::_Vector_const_iterator<std::_Vector_val<int,std::allocator<int> > >::operator*
; Function compile flags: /Ogsp
; File c:\program files (x86)\microsoft visual studio 10.0\vc\include\vector
;	COMDAT ??D?$_Vector_const_iterator@V?$_Vector_val@HV?$allocator@H@std@@@std@@@std@@QBEABHXZ
_TEXT	SEGMENT
??D?$_Vector_const_iterator@V?$_Vector_val@HV?$allocator@H@std@@@std@@@std@@QBEABHXZ PROC ; std::_Vector_const_iterator<std::_Vector_val<int,std::allocator<int> > >::operator*, COMDAT
; _this$ = ecx

; 64   :  #if _ITERATOR_DEBUG_LEVEL == 2
; 65   : 		if (this->_Getcont() == 0
; 66   : 			|| this->_Ptr == 0
; 67   : 			|| this->_Ptr < ((_Myvec *)this->_Getcont())->_Myfirst
; 68   : 			|| ((_Myvec *)this->_Getcont())->_Mylast <= this->_Ptr)
; 69   : 			{	// report error
; 70   : 			_DEBUG_ERROR("vector iterator not dereferencable");
; 71   : 			_SCL_SECURE_OUT_OF_RANGE;
; 72   : 			}
; 73   : 
; 74   :  #elif _ITERATOR_DEBUG_LEVEL == 1
; 75   : 		_SCL_SECURE_VALIDATE(this->_Getcont() != 0);
; 76   : 		_SCL_SECURE_VALIDATE_RANGE(
; 77   : 			this->_Ptr != 0
; 78   : 			&& ((_Myvec *)this->_Getcont())->_Myfirst <= this->_Ptr
; 79   : 			&& this->_Ptr < ((_Myvec *)this->_Getcont())->_Mylast);
; 80   :  #endif /* _ITERATOR_DEBUG_LEVEL */
; 81   : 
; 82   : 		__analysis_assume(this->_Ptr != 0);
; 83   : 
; 84   : 		return (*this->_Ptr);

  00000	8b 01		 mov	 eax, DWORD PTR [ecx]

; 85   : 		}

  00002	c3		 ret	 0
??D?$_Vector_const_iterator@V?$_Vector_val@HV?$allocator@H@std@@@std@@@std@@QBEABHXZ ENDP ; std::_Vector_const_iterator<std::_Vector_val<int,std::allocator<int> > >::operator*
_TEXT	ENDS
PUBLIC	??E?$_Vector_const_iterator@V?$_Vector_val@HV?$allocator@H@std@@@std@@@std@@QAEAAV01@XZ ; std::_Vector_const_iterator<std::_Vector_val<int,std::allocator<int> > >::operator++
; Function compile flags: /Ogsp
;	COMDAT ??E?$_Vector_const_iterator@V?$_Vector_val@HV?$allocator@H@std@@@std@@@std@@QAEAAV01@XZ
_TEXT	SEGMENT
??E?$_Vector_const_iterator@V?$_Vector_val@HV?$allocator@H@std@@@std@@@std@@QAEAAV01@XZ PROC ; std::_Vector_const_iterator<std::_Vector_val<int,std::allocator<int> > >::operator++, COMDAT
; _this$ = ecx

; 93   : 		{	// preincrement

  00000	8b c1		 mov	 eax, ecx

; 94   :  #if _ITERATOR_DEBUG_LEVEL == 2
; 95   : 		if (this->_Getcont() == 0
; 96   : 			|| this->_Ptr == 0
; 97   : 			|| ((_Myvec *)this->_Getcont())->_Mylast <= this->_Ptr)
; 98   : 			{	// report error
; 99   : 			_DEBUG_ERROR("vector iterator not incrementable");
; 100  : 			_SCL_SECURE_OUT_OF_RANGE;
; 101  : 			}
; 102  : 
; 103  :  #elif _ITERATOR_DEBUG_LEVEL == 1
; 104  : 		_SCL_SECURE_VALIDATE(this->_Getcont() != 0);
; 105  : 		_SCL_SECURE_VALIDATE_RANGE(
; 106  : 			this->_Ptr != 0
; 107  : 			&& this->_Ptr < ((_Myvec *)this->_Getcont())->_Mylast);
; 108  :  #endif /* _ITERATOR_DEBUG_LEVEL */
; 109  : 
; 110  : 		++this->_Ptr;

  00002	83 00 04	 add	 DWORD PTR [eax], 4

; 111  : 		return (*this);
; 112  : 		}

  00005	c3		 ret	 0
??E?$_Vector_const_iterator@V?$_Vector_val@HV?$allocator@H@std@@@std@@@std@@QAEAAV01@XZ ENDP ; std::_Vector_const_iterator<std::_Vector_val<int,std::allocator<int> > >::operator++
_TEXT	ENDS
PUBLIC	?_Inside@?$vector@PAUUserInfo@UserInfoToolTip@@V?$allocator@PAUUserInfo@UserInfoToolTip@@@std@@@std@@IBE_NPBQAUUserInfo@UserInfoToolTip@@@Z ; std::vector<UserInfoToolTip::UserInfo *,std::allocator<UserInfoToolTip::UserInfo *> >::_Inside
; Function compile flags: /Ogsp
;	COMDAT ?_Inside@?$vector@PAUUserInfo@UserInfoToolTip@@V?$allocator@PAUUserInfo@UserInfoToolTip@@@std@@@std@@IBE_NPBQAUUserInfo@UserInfoToolTip@@@Z
_TEXT	SEGMENT
__Ptr$ = 8						; size = 4
?_Inside@?$vector@PAUUserInfo@UserInfoToolTip@@V?$allocator@PAUUserInfo@UserInfoToolTip@@@std@@@std@@IBE_NPBQAUUserInfo@UserInfoToolTip@@@Z PROC ; std::vector<UserInfoToolTip::UserInfo *,std::allocator<UserInfoToolTip::UserInfo *> >::_Inside, COMDAT
; _this$ = ecx

; 1285 : 		{	// test if _Ptr points inside vector

  00000	55		 push	 ebp
  00001	8b ec		 mov	 ebp, esp

; 1286 : 		return (_Ptr < this->_Mylast && this->_Myfirst <= _Ptr);

  00003	8b 45 08	 mov	 eax, DWORD PTR __Ptr$[ebp]
  00006	3b 41 04	 cmp	 eax, DWORD PTR [ecx+4]
  00009	73 09		 jae	 SHORT $LN3@Inside@3
  0000b	39 01		 cmp	 DWORD PTR [ecx], eax
  0000d	77 05		 ja	 SHORT $LN3@Inside@3
  0000f	33 c0		 xor	 eax, eax
  00011	40		 inc	 eax
  00012	eb 02		 jmp	 SHORT $LN4@Inside@3
$LN3@Inside@3:
  00014	33 c0		 xor	 eax, eax
$LN4@Inside@3:

; 1287 : 		}

  00016	5d		 pop	 ebp
  00017	c2 04 00	 ret	 4
?_Inside@?$vector@PAUUserInfo@UserInfoToolTip@@V?$allocator@PAUUserInfo@UserInfoToolTip@@@std@@@std@@IBE_NPBQAUUserInfo@UserInfoToolTip@@@Z ENDP ; std::vector<UserInfoToolTip::UserInfo *,std::allocator<UserInfoToolTip::UserInfo *> >::_Inside
_TEXT	ENDS
PUBLIC	?_Orphan_range@?$vector@PAUUserInfo@UserInfoToolTip@@V?$allocator@PAUUserInfo@UserInfoToolTip@@@std@@@std@@IBEXPAPAUUserInfo@UserInfoToolTip@@0@Z ; std::vector<UserInfoToolTip::UserInfo *,std::allocator<UserInfoToolTip::UserInfo *> >::_Orphan_range
; Function compile flags: /Ogsp
;	COMDAT ?_Orphan_range@?$vector@PAUUserInfo@UserInfoToolTip@@V?$allocator@PAUUserInfo@UserInfoToolTip@@@std@@@std@@IBEXPAPAUUserInfo@UserInfoToolTip@@0@Z
_TEXT	SEGMENT
___formal$ = 8						; size = 4
___formal$ = 12						; size = 4
?_Orphan_range@?$vector@PAUUserInfo@UserInfoToolTip@@V?$allocator@PAUUserInfo@UserInfoToolTip@@@std@@@std@@IBEXPAPAUUserInfo@UserInfoToolTip@@0@Z PROC ; std::vector<UserInfoToolTip::UserInfo *,std::allocator<UserInfoToolTip::UserInfo *> >::_Orphan_range, COMDAT
; _this$ = ecx

; 1454 : 		}

  00000	c2 08 00	 ret	 8
?_Orphan_range@?$vector@PAUUserInfo@UserInfoToolTip@@V?$allocator@PAUUserInfo@UserInfoToolTip@@@std@@@std@@IBEXPAPAUUserInfo@UserInfoToolTip@@0@Z ENDP ; std::vector<UserInfoToolTip::UserInfo *,std::allocator<UserInfoToolTip::UserInfo *> >::_Orphan_range
_TEXT	ENDS
PUBLIC	??1?$_Vector_val@PAUUserInfo@UserInfoToolTip@@V?$allocator@PAUUserInfo@UserInfoToolTip@@@std@@@std@@QAE@XZ ; std::_Vector_val<UserInfoToolTip::UserInfo *,std::allocator<UserInfoToolTip::UserInfo *> >::~_Vector_val<UserInfoToolTip::UserInfo *,std::allocator<UserInfoToolTip::UserInfo *> >
; Function compile flags: /Ogsp
;	COMDAT ??1?$_Vector_val@PAUUserInfo@UserInfoToolTip@@V?$allocator@PAUUserInfo@UserInfoToolTip@@@std@@@std@@QAE@XZ
_TEXT	SEGMENT
??1?$_Vector_val@PAUUserInfo@UserInfoToolTip@@V?$allocator@PAUUserInfo@UserInfoToolTip@@@std@@@std@@QAE@XZ PROC ; std::_Vector_val<UserInfoToolTip::UserInfo *,std::allocator<UserInfoToolTip::UserInfo *> >::~_Vector_val<UserInfoToolTip::UserInfo *,std::allocator<UserInfoToolTip::UserInfo *> >, COMDAT
; _this$ = ecx

; 434  : 		}

  00000	c3		 ret	 0
??1?$_Vector_val@PAUUserInfo@UserInfoToolTip@@V?$allocator@PAUUserInfo@UserInfoToolTip@@@std@@@std@@QAE@XZ ENDP ; std::_Vector_val<UserInfoToolTip::UserInfo *,std::allocator<UserInfoToolTip::UserInfo *> >::~_Vector_val<UserInfoToolTip::UserInfo *,std::allocator<UserInfoToolTip::UserInfo *> >
_TEXT	ENDS
PUBLIC	??0?$allocator@PAUUserInfo@UserInfoToolTip@@@std@@QAE@XZ ; std::allocator<UserInfoToolTip::UserInfo *>::allocator<UserInfoToolTip::UserInfo *>
; Function compile flags: /Ogsp
; File c:\program files (x86)\microsoft visual studio 10.0\vc\include\xmemory
;	COMDAT ??0?$allocator@PAUUserInfo@UserInfoToolTip@@@std@@QAE@XZ
_TEXT	SEGMENT
??0?$allocator@PAUUserInfo@UserInfoToolTip@@@std@@QAE@XZ PROC ; std::allocator<UserInfoToolTip::UserInfo *>::allocator<UserInfoToolTip::UserInfo *>, COMDAT
; _this$ = ecx

; 161  : 	_ALLOCATOR() _THROW0()

  00000	8b c1		 mov	 eax, ecx

; 162  : 		{	// construct default allocator (do nothing)
; 163  : 		}

  00002	c3		 ret	 0
??0?$allocator@PAUUserInfo@UserInfoToolTip@@@std@@QAE@XZ ENDP ; std::allocator<UserInfoToolTip::UserInfo *>::allocator<UserInfoToolTip::UserInfo *>
_TEXT	ENDS
PUBLIC	??D?$_Vector_const_iterator@V?$_Vector_val@PAUUserInfo@UserInfoToolTip@@V?$allocator@PAUUserInfo@UserInfoToolTip@@@std@@@std@@@std@@QBEABQAUUserInfo@UserInfoToolTip@@XZ ; std::_Vector_const_iterator<std::_Vector_val<UserInfoToolTip::UserInfo *,std::allocator<UserInfoToolTip::UserInfo *> > >::operator*
; Function compile flags: /Ogsp
; File c:\program files (x86)\microsoft visual studio 10.0\vc\include\vector
;	COMDAT ??D?$_Vector_const_iterator@V?$_Vector_val@PAUUserInfo@UserInfoToolTip@@V?$allocator@PAUUserInfo@UserInfoToolTip@@@std@@@std@@@std@@QBEABQAUUserInfo@UserInfoToolTip@@XZ
_TEXT	SEGMENT
??D?$_Vector_const_iterator@V?$_Vector_val@PAUUserInfo@UserInfoToolTip@@V?$allocator@PAUUserInfo@UserInfoToolTip@@@std@@@std@@@std@@QBEABQAUUserInfo@UserInfoToolTip@@XZ PROC ; std::_Vector_const_iterator<std::_Vector_val<UserInfoToolTip::UserInfo *,std::allocator<UserInfoToolTip::UserInfo *> > >::operator*, COMDAT
; _this$ = ecx

; 64   :  #if _ITERATOR_DEBUG_LEVEL == 2
; 65   : 		if (this->_Getcont() == 0
; 66   : 			|| this->_Ptr == 0
; 67   : 			|| this->_Ptr < ((_Myvec *)this->_Getcont())->_Myfirst
; 68   : 			|| ((_Myvec *)this->_Getcont())->_Mylast <= this->_Ptr)
; 69   : 			{	// report error
; 70   : 			_DEBUG_ERROR("vector iterator not dereferencable");
; 71   : 			_SCL_SECURE_OUT_OF_RANGE;
; 72   : 			}
; 73   : 
; 74   :  #elif _ITERATOR_DEBUG_LEVEL == 1
; 75   : 		_SCL_SECURE_VALIDATE(this->_Getcont() != 0);
; 76   : 		_SCL_SECURE_VALIDATE_RANGE(
; 77   : 			this->_Ptr != 0
; 78   : 			&& ((_Myvec *)this->_Getcont())->_Myfirst <= this->_Ptr
; 79   : 			&& this->_Ptr < ((_Myvec *)this->_Getcont())->_Mylast);
; 80   :  #endif /* _ITERATOR_DEBUG_LEVEL */
; 81   : 
; 82   : 		__analysis_assume(this->_Ptr != 0);
; 83   : 
; 84   : 		return (*this->_Ptr);

  00000	8b 01		 mov	 eax, DWORD PTR [ecx]

; 85   : 		}

  00002	c3		 ret	 0
??D?$_Vector_const_iterator@V?$_Vector_val@PAUUserInfo@UserInfoToolTip@@V?$allocator@PAUUserInfo@UserInfoToolTip@@@std@@@std@@@std@@QBEABQAUUserInfo@UserInfoToolTip@@XZ ENDP ; std::_Vector_const_iterator<std::_Vector_val<UserInfoToolTip::UserInfo *,std::allocator<UserInfoToolTip::UserInfo *> > >::operator*
_TEXT	ENDS
PUBLIC	??E?$_Vector_const_iterator@V?$_Vector_val@PAUUserInfo@UserInfoToolTip@@V?$allocator@PAUUserInfo@UserInfoToolTip@@@std@@@std@@@std@@QAEAAV01@XZ ; std::_Vector_const_iterator<std::_Vector_val<UserInfoToolTip::UserInfo *,std::allocator<UserInfoToolTip::UserInfo *> > >::operator++
; Function compile flags: /Ogsp
;	COMDAT ??E?$_Vector_const_iterator@V?$_Vector_val@PAUUserInfo@UserInfoToolTip@@V?$allocator@PAUUserInfo@UserInfoToolTip@@@std@@@std@@@std@@QAEAAV01@XZ
_TEXT	SEGMENT
??E?$_Vector_const_iterator@V?$_Vector_val@PAUUserInfo@UserInfoToolTip@@V?$allocator@PAUUserInfo@UserInfoToolTip@@@std@@@std@@@std@@QAEAAV01@XZ PROC ; std::_Vector_const_iterator<std::_Vector_val<UserInfoToolTip::UserInfo *,std::allocator<UserInfoToolTip::UserInfo *> > >::operator++, COMDAT
; _this$ = ecx

; 93   : 		{	// preincrement

  00000	8b c1		 mov	 eax, ecx

; 94   :  #if _ITERATOR_DEBUG_LEVEL == 2
; 95   : 		if (this->_Getcont() == 0
; 96   : 			|| this->_Ptr == 0
; 97   : 			|| ((_Myvec *)this->_Getcont())->_Mylast <= this->_Ptr)
; 98   : 			{	// report error
; 99   : 			_DEBUG_ERROR("vector iterator not incrementable");
; 100  : 			_SCL_SECURE_OUT_OF_RANGE;
; 101  : 			}
; 102  : 
; 103  :  #elif _ITERATOR_DEBUG_LEVEL == 1
; 104  : 		_SCL_SECURE_VALIDATE(this->_Getcont() != 0);
; 105  : 		_SCL_SECURE_VALIDATE_RANGE(
; 106  : 			this->_Ptr != 0
; 107  : 			&& this->_Ptr < ((_Myvec *)this->_Getcont())->_Mylast);
; 108  :  #endif /* _ITERATOR_DEBUG_LEVEL */
; 109  : 
; 110  : 		++this->_Ptr;

  00002	83 00 04	 add	 DWORD PTR [eax], 4

; 111  : 		return (*this);
; 112  : 		}

  00005	c3		 ret	 0
??E?$_Vector_const_iterator@V?$_Vector_val@PAUUserInfo@UserInfoToolTip@@V?$allocator@PAUUserInfo@UserInfoToolTip@@@std@@@std@@@std@@QAEAAV01@XZ ENDP ; std::_Vector_const_iterator<std::_Vector_val<UserInfoToolTip::UserInfo *,std::allocator<UserInfoToolTip::UserInfo *> > >::operator++
_TEXT	ENDS
PUBLIC	?capacity@?$vector@VioHashString@@V?$allocator@VioHashString@@@std@@@std@@QBEIXZ ; std::vector<ioHashString,std::allocator<ioHashString> >::capacity
; Function compile flags: /Ogsp
;	COMDAT ?capacity@?$vector@VioHashString@@V?$allocator@VioHashString@@@std@@@std@@QBEIXZ
_TEXT	SEGMENT
?capacity@?$vector@VioHashString@@V?$allocator@VioHashString@@@std@@@std@@QBEIXZ PROC ; std::vector<ioHashString,std::allocator<ioHashString> >::capacity, COMDAT
; _this$ = ecx

; 777  : 		return (this->_Myend - this->_Myfirst);

  00000	8b 41 08	 mov	 eax, DWORD PTR [ecx+8]
  00003	2b 01		 sub	 eax, DWORD PTR [ecx]
  00005	c1 f8 04	 sar	 eax, 4

; 778  : 		}

  00008	c3		 ret	 0
?capacity@?$vector@VioHashString@@V?$allocator@VioHashString@@@std@@@std@@QBEIXZ ENDP ; std::vector<ioHashString,std::allocator<ioHashString> >::capacity
_TEXT	ENDS
PUBLIC	??0?$allocator@UExpandMedalSlot@ioExpandMedalSlotManager@@@std@@QAE@ABV01@@Z ; std::allocator<ioExpandMedalSlotManager::ExpandMedalSlot>::allocator<ioExpandMedalSlotManager::ExpandMedalSlot>
; Function compile flags: /Ogsp
; File c:\program files (x86)\microsoft visual studio 10.0\vc\include\xmemory
;	COMDAT ??0?$allocator@UExpandMedalSlot@ioExpandMedalSlotManager@@@std@@QAE@ABV01@@Z
_TEXT	SEGMENT
___formal$ = 8						; size = 4
??0?$allocator@UExpandMedalSlot@ioExpandMedalSlotManager@@@std@@QAE@ABV01@@Z PROC ; std::allocator<ioExpandMedalSlotManager::ExpandMedalSlot>::allocator<ioExpandMedalSlotManager::ExpandMedalSlot>, COMDAT
; _this$ = ecx

; 165  : 	_ALLOCATOR(const _ALLOCATOR<_Ty>&) _THROW0()

  00000	8b c1		 mov	 eax, ecx

; 166  : 		{	// construct by copying (do nothing)
; 167  : 		}

  00002	c2 04 00	 ret	 4
??0?$allocator@UExpandMedalSlot@ioExpandMedalSlotManager@@@std@@QAE@ABV01@@Z ENDP ; std::allocator<ioExpandMedalSlotManager::ExpandMedalSlot>::allocator<ioExpandMedalSlotManager::ExpandMedalSlot>
_TEXT	ENDS
PUBLIC	?deallocate@?$allocator@UExpandMedalSlot@ioExpandMedalSlotManager@@@std@@QAEXPAUExpandMedalSlot@ioExpandMedalSlotManager@@I@Z ; std::allocator<ioExpandMedalSlotManager::ExpandMedalSlot>::deallocate
; Function compile flags: /Ogsp
;	COMDAT ?deallocate@?$allocator@UExpandMedalSlot@ioExpandMedalSlotManager@@@std@@QAEXPAUExpandMedalSlot@ioExpandMedalSlotManager@@I@Z
_TEXT	SEGMENT
__Ptr$ = 8						; size = 4
___formal$ = 12						; size = 4
?deallocate@?$allocator@UExpandMedalSlot@ioExpandMedalSlotManager@@@std@@QAEXPAUExpandMedalSlot@ioExpandMedalSlotManager@@I@Z PROC ; std::allocator<ioExpandMedalSlotManager::ExpandMedalSlot>::deallocate, COMDAT
; _this$ = ecx

; 181  : 		{	// deallocate object at _Ptr, ignore size

  00000	55		 push	 ebp
  00001	8b ec		 mov	 ebp, esp

; 182  : 		::operator delete(_Ptr);

  00003	ff 75 08	 push	 DWORD PTR __Ptr$[ebp]
  00006	e8 00 00 00 00	 call	 ??3@YAXPAX@Z		; operator delete
  0000b	59		 pop	 ecx

; 183  : 		}

  0000c	5d		 pop	 ebp
  0000d	c2 08 00	 ret	 8
?deallocate@?$allocator@UExpandMedalSlot@ioExpandMedalSlotManager@@@std@@QAEXPAUExpandMedalSlot@ioExpandMedalSlotManager@@I@Z ENDP ; std::allocator<ioExpandMedalSlotManager::ExpandMedalSlot>::deallocate
_TEXT	ENDS
PUBLIC	?capacity@?$vector@PAUUserInfo@UserInfoToolTip@@V?$allocator@PAUUserInfo@UserInfoToolTip@@@std@@@std@@QBEIXZ ; std::vector<UserInfoToolTip::UserInfo *,std::allocator<UserInfoToolTip::UserInfo *> >::capacity
; Function compile flags: /Ogsp
; File c:\program files (x86)\microsoft visual studio 10.0\vc\include\vector
;	COMDAT ?capacity@?$vector@PAUUserInfo@UserInfoToolTip@@V?$allocator@PAUUserInfo@UserInfoToolTip@@@std@@@std@@QBEIXZ
_TEXT	SEGMENT
?capacity@?$vector@PAUUserInfo@UserInfoToolTip@@V?$allocator@PAUUserInfo@UserInfoToolTip@@@std@@@std@@QBEIXZ PROC ; std::vector<UserInfoToolTip::UserInfo *,std::allocator<UserInfoToolTip::UserInfo *> >::capacity, COMDAT
; _this$ = ecx

; 777  : 		return (this->_Myend - this->_Myfirst);

  00000	8b 41 08	 mov	 eax, DWORD PTR [ecx+8]
  00003	2b 01		 sub	 eax, DWORD PTR [ecx]
  00005	c1 f8 02	 sar	 eax, 2

; 778  : 		}

  00008	c3		 ret	 0
?capacity@?$vector@PAUUserInfo@UserInfoToolTip@@V?$allocator@PAUUserInfo@UserInfoToolTip@@@std@@@std@@QBEIXZ ENDP ; std::vector<UserInfoToolTip::UserInfo *,std::allocator<UserInfoToolTip::UserInfo *> >::capacity
_TEXT	ENDS
PUBLIC	??_C@_0BD@OLBABOEK@vector?$DMT?$DO?5too?5long?$AA@ ; `string'
PUBLIC	?_Xlen@?$vector@PAUUserInfo@UserInfoToolTip@@V?$allocator@PAUUserInfo@UserInfoToolTip@@@std@@@std@@IBEXXZ ; std::vector<UserInfoToolTip::UserInfo *,std::allocator<UserInfoToolTip::UserInfo *> >::_Xlen
EXTRN	__imp_?_Xlength_error@std@@YAXPBD@Z:PROC
;	COMDAT ??_C@_0BD@OLBABOEK@vector?$DMT?$DO?5too?5long?$AA@
CONST	SEGMENT
??_C@_0BD@OLBABOEK@vector?$DMT?$DO?5too?5long?$AA@ DB 'vector<T> too long'
	DB	00H						; `string'
; Function compile flags: /Ogsp
CONST	ENDS
;	COMDAT ?_Xlen@?$vector@PAUUserInfo@UserInfoToolTip@@V?$allocator@PAUUserInfo@UserInfoToolTip@@@std@@@std@@IBEXXZ
_TEXT	SEGMENT
?_Xlen@?$vector@PAUUserInfo@UserInfoToolTip@@V?$allocator@PAUUserInfo@UserInfoToolTip@@@std@@@std@@IBEXXZ PROC ; std::vector<UserInfoToolTip::UserInfo *,std::allocator<UserInfoToolTip::UserInfo *> >::_Xlen, COMDAT
; _this$ = ecx

; 1427 : 		_Xlength_error("vector<T> too long");

  00000	68 00 00 00 00	 push	 OFFSET ??_C@_0BD@OLBABOEK@vector?$DMT?$DO?5too?5long?$AA@
  00005	ff 15 00 00 00
	00		 call	 DWORD PTR __imp_?_Xlength_error@std@@YAXPBD@Z
$LN4@Xlen:
$LN3@Xlen:
  0000b	cc		 int	 3
?_Xlen@?$vector@PAUUserInfo@UserInfoToolTip@@V?$allocator@PAUUserInfo@UserInfoToolTip@@@std@@@std@@IBEXXZ ENDP ; std::vector<UserInfoToolTip::UserInfo *,std::allocator<UserInfoToolTip::UserInfo *> >::_Xlen
_TEXT	ENDS
PUBLIC	??0?$allocator@PAUUserInfo@UserInfoToolTip@@@std@@QAE@ABV01@@Z ; std::allocator<UserInfoToolTip::UserInfo *>::allocator<UserInfoToolTip::UserInfo *>
; Function compile flags: /Ogsp
; File c:\program files (x86)\microsoft visual studio 10.0\vc\include\xmemory
;	COMDAT ??0?$allocator@PAUUserInfo@UserInfoToolTip@@@std@@QAE@ABV01@@Z
_TEXT	SEGMENT
___formal$ = 8						; size = 4
??0?$allocator@PAUUserInfo@UserInfoToolTip@@@std@@QAE@ABV01@@Z PROC ; std::allocator<UserInfoToolTip::UserInfo *>::allocator<UserInfoToolTip::UserInfo *>, COMDAT
; _this$ = ecx

; 165  : 	_ALLOCATOR(const _ALLOCATOR<_Ty>&) _THROW0()

  00000	8b c1		 mov	 eax, ecx

; 166  : 		{	// construct by copying (do nothing)
; 167  : 		}

  00002	c2 04 00	 ret	 4
??0?$allocator@PAUUserInfo@UserInfoToolTip@@@std@@QAE@ABV01@@Z ENDP ; std::allocator<UserInfoToolTip::UserInfo *>::allocator<UserInfoToolTip::UserInfo *>
_TEXT	ENDS
PUBLIC	?deallocate@?$allocator@PAUUserInfo@UserInfoToolTip@@@std@@QAEXPAPAUUserInfo@UserInfoToolTip@@I@Z ; std::allocator<UserInfoToolTip::UserInfo *>::deallocate
; Function compile flags: /Ogsp
;	COMDAT ?deallocate@?$allocator@PAUUserInfo@UserInfoToolTip@@@std@@QAEXPAPAUUserInfo@UserInfoToolTip@@I@Z
_TEXT	SEGMENT
__Ptr$ = 8						; size = 4
___formal$ = 12						; size = 4
?deallocate@?$allocator@PAUUserInfo@UserInfoToolTip@@@std@@QAEXPAPAUUserInfo@UserInfoToolTip@@I@Z PROC ; std::allocator<UserInfoToolTip::UserInfo *>::deallocate, COMDAT
; _this$ = ecx

; 181  : 		{	// deallocate object at _Ptr, ignore size

  00000	55		 push	 ebp
  00001	8b ec		 mov	 ebp, esp

; 182  : 		::operator delete(_Ptr);

  00003	ff 75 08	 push	 DWORD PTR __Ptr$[ebp]
  00006	e8 00 00 00 00	 call	 ??3@YAXPAX@Z		; operator delete
  0000b	59		 pop	 ecx

; 183  : 		}

  0000c	5d		 pop	 ebp
  0000d	c2 08 00	 ret	 8
?deallocate@?$allocator@PAUUserInfo@UserInfoToolTip@@@std@@QAEXPAPAUUserInfo@UserInfoToolTip@@I@Z ENDP ; std::allocator<UserInfoToolTip::UserInfo *>::deallocate
_TEXT	ENDS
PUBLIC	??0?$_Vector_const_iterator@V?$_Vector_val@PAUUserInfo@UserInfoToolTip@@V?$allocator@PAUUserInfo@UserInfoToolTip@@@std@@@std@@@std@@QAE@PAPAUUserInfo@UserInfoToolTip@@PBU_Container_base0@1@@Z ; std::_Vector_const_iterator<std::_Vector_val<UserInfoToolTip::UserInfo *,std::allocator<UserInfoToolTip::UserInfo *> > >::_Vector_const_iterator<std::_Vector_val<UserInfoToolTip::UserInfo *,std::allocator<UserInfoToolTip::UserInfo *> > >
; Function compile flags: /Ogsp
; File c:\program files (x86)\microsoft visual studio 10.0\vc\include\vector
;	COMDAT ??0?$_Vector_const_iterator@V?$_Vector_val@PAUUserInfo@UserInfoToolTip@@V?$allocator@PAUUserInfo@UserInfoToolTip@@@std@@@std@@@std@@QAE@PAPAUUserInfo@UserInfoToolTip@@PBU_Container_base0@1@@Z
_TEXT	SEGMENT
__Parg$ = 8						; size = 4
__Pvector$ = 12						; size = 4
??0?$_Vector_const_iterator@V?$_Vector_val@PAUUserInfo@UserInfoToolTip@@V?$allocator@PAUUserInfo@UserInfoToolTip@@@std@@@std@@@std@@QAE@PAPAUUserInfo@UserInfoToolTip@@PBU_Container_base0@1@@Z PROC ; std::_Vector_const_iterator<std::_Vector_val<UserInfoToolTip::UserInfo *,std::allocator<UserInfoToolTip::UserInfo *> > >::_Vector_const_iterator<std::_Vector_val<UserInfoToolTip::UserInfo *,std::allocator<UserInfoToolTip::UserInfo *> > >, COMDAT
; _this$ = ecx

; 45   : 		{	// construct with pointer _Parg

  00000	55		 push	 ebp
  00001	8b ec		 mov	 ebp, esp
  00003	8b c1		 mov	 eax, ecx
  00005	8b 4d 08	 mov	 ecx, DWORD PTR __Parg$[ebp]
  00008	89 08		 mov	 DWORD PTR [eax], ecx

; 46   : 		this->_Adopt(_Pvector);
; 47   : 		}

  0000a	5d		 pop	 ebp
  0000b	c2 08 00	 ret	 8
??0?$_Vector_const_iterator@V?$_Vector_val@PAUUserInfo@UserInfoToolTip@@V?$allocator@PAUUserInfo@UserInfoToolTip@@@std@@@std@@@std@@QAE@PAPAUUserInfo@UserInfoToolTip@@PBU_Container_base0@1@@Z ENDP ; std::_Vector_const_iterator<std::_Vector_val<UserInfoToolTip::UserInfo *,std::allocator<UserInfoToolTip::UserInfo *> > >::_Vector_const_iterator<std::_Vector_val<UserInfoToolTip::UserInfo *,std::allocator<UserInfoToolTip::UserInfo *> > >
_TEXT	ENDS
PUBLIC	?_Compat@?$_Vector_const_iterator@V?$_Vector_val@PAUUserInfo@UserInfoToolTip@@V?$allocator@PAUUserInfo@UserInfoToolTip@@@std@@@std@@@std@@QBEXABV12@@Z ; std::_Vector_const_iterator<std::_Vector_val<UserInfoToolTip::UserInfo *,std::allocator<UserInfoToolTip::UserInfo *> > >::_Compat
; Function compile flags: /Ogsp
;	COMDAT ?_Compat@?$_Vector_const_iterator@V?$_Vector_val@PAUUserInfo@UserInfoToolTip@@V?$allocator@PAUUserInfo@UserInfoToolTip@@@std@@@std@@@std@@QBEXABV12@@Z
_TEXT	SEGMENT
___formal$ = 8						; size = 4
?_Compat@?$_Vector_const_iterator@V?$_Vector_val@PAUUserInfo@UserInfoToolTip@@V?$allocator@PAUUserInfo@UserInfoToolTip@@@std@@@std@@@std@@QBEXABV12@@Z PROC ; std::_Vector_const_iterator<std::_Vector_val<UserInfoToolTip::UserInfo *,std::allocator<UserInfoToolTip::UserInfo *> > >::_Compat, COMDAT
; _this$ = ecx

; 253  : 		}

  00000	c2 04 00	 ret	 4
?_Compat@?$_Vector_const_iterator@V?$_Vector_val@PAUUserInfo@UserInfoToolTip@@V?$allocator@PAUUserInfo@UserInfoToolTip@@@std@@@std@@@std@@QBEXABV12@@Z ENDP ; std::_Vector_const_iterator<std::_Vector_val<UserInfoToolTip::UserInfo *,std::allocator<UserInfoToolTip::UserInfo *> > >::_Compat
_TEXT	ENDS
PUBLIC	?max_size@?$allocator@PAUUserInfo@UserInfoToolTip@@@std@@QBEIXZ ; std::allocator<UserInfoToolTip::UserInfo *>::max_size
; Function compile flags: /Ogsp
; File c:\program files (x86)\microsoft visual studio 10.0\vc\include\xmemory
;	COMDAT ?max_size@?$allocator@PAUUserInfo@UserInfoToolTip@@@std@@QBEIXZ
_TEXT	SEGMENT
?max_size@?$allocator@PAUUserInfo@UserInfoToolTip@@@std@@QBEIXZ PROC ; std::allocator<UserInfoToolTip::UserInfo *>::max_size, COMDAT
; _this$ = ecx

; 218  : 		_SIZT _Count = (_SIZT)(-1) / sizeof (_Ty);
; 219  : 		return (0 < _Count ? _Count : 1);

  00000	b8 ff ff ff 3f	 mov	 eax, 1073741823		; 3fffffffH

; 220  : 		}

  00005	c3		 ret	 0
?max_size@?$allocator@PAUUserInfo@UserInfoToolTip@@@std@@QBEIXZ ENDP ; std::allocator<UserInfoToolTip::UserInfo *>::max_size
_TEXT	ENDS
PUBLIC	??$addressof@$$CBVioHashString@@@std@@YAPBVioHashString@@ABV1@@Z ; std::addressof<ioHashString const >
; Function compile flags: /Ogsp
;	COMDAT ??$addressof@$$CBVioHashString@@@std@@YAPBVioHashString@@ABV1@@Z
_TEXT	SEGMENT
__Val$ = 8						; size = 4
??$addressof@$$CBVioHashString@@@std@@YAPBVioHashString@@ABV1@@Z PROC ; std::addressof<ioHashString const >, COMDAT

; 110  : 	{	// return address of _Val

  00000	55		 push	 ebp
  00001	8b ec		 mov	 ebp, esp

; 111  : 	return ((_Ty *) &(char&)_Val);

  00003	8b 45 08	 mov	 eax, DWORD PTR __Val$[ebp]

; 112  : 	}

  00006	5d		 pop	 ebp
  00007	c3		 ret	 0
??$addressof@$$CBVioHashString@@@std@@YAPBVioHashString@@ABV1@@Z ENDP ; std::addressof<ioHashString const >
_TEXT	ENDS
PUBLIC	??$addressof@$$CBH@std@@YAPBHABH@Z		; std::addressof<int const >
; Function compile flags: /Ogsp
;	COMDAT ??$addressof@$$CBH@std@@YAPBHABH@Z
_TEXT	SEGMENT
__Val$ = 8						; size = 4
??$addressof@$$CBH@std@@YAPBHABH@Z PROC			; std::addressof<int const >, COMDAT

; 110  : 	{	// return address of _Val

  00000	55		 push	 ebp
  00001	8b ec		 mov	 ebp, esp

; 111  : 	return ((_Ty *) &(char&)_Val);

  00003	8b 45 08	 mov	 eax, DWORD PTR __Val$[ebp]

; 112  : 	}

  00006	5d		 pop	 ebp
  00007	c3		 ret	 0
??$addressof@$$CBH@std@@YAPBHABH@Z ENDP			; std::addressof<int const >
_TEXT	ENDS
PUBLIC	??$addressof@QAUUserInfo@UserInfoToolTip@@@std@@YAPBQAUUserInfo@UserInfoToolTip@@ABQAU12@@Z ; std::addressof<UserInfoToolTip::UserInfo * const>
; Function compile flags: /Ogsp
;	COMDAT ??$addressof@QAUUserInfo@UserInfoToolTip@@@std@@YAPBQAUUserInfo@UserInfoToolTip@@ABQAU12@@Z
_TEXT	SEGMENT
__Val$ = 8						; size = 4
??$addressof@QAUUserInfo@UserInfoToolTip@@@std@@YAPBQAUUserInfo@UserInfoToolTip@@ABQAU12@@Z PROC ; std::addressof<UserInfoToolTip::UserInfo * const>, COMDAT

; 110  : 	{	// return address of _Val

  00000	55		 push	 ebp
  00001	8b ec		 mov	 ebp, esp

; 111  : 	return ((_Ty *) &(char&)_Val);

  00003	8b 45 08	 mov	 eax, DWORD PTR __Val$[ebp]

; 112  : 	}

  00006	5d		 pop	 ebp
  00007	c3		 ret	 0
??$addressof@QAUUserInfo@UserInfoToolTip@@@std@@YAPBQAUUserInfo@UserInfoToolTip@@ABQAU12@@Z ENDP ; std::addressof<UserInfoToolTip::UserInfo * const>
_TEXT	ENDS
PUBLIC	__TI2?AVbad_alloc@std@@
PUBLIC	??$_Allocate@PAUUserInfo@UserInfoToolTip@@@std@@YAPAPAUUserInfo@UserInfoToolTip@@IPAPAU12@@Z ; std::_Allocate<UserInfoToolTip::UserInfo *>
PUBLIC	__CTA2?AVbad_alloc@std@@
PUBLIC	__CT??_R0?AVbad_alloc@std@@@8??0bad_alloc@std@@QAE@ABV01@@Z12
PUBLIC	??0bad_alloc@std@@QAE@ABV01@@Z			; std::bad_alloc::bad_alloc
PUBLIC	__CT??_R0?AVexception@std@@@8??0exception@std@@QAE@ABV01@@Z12
EXTRN	??2@YAPAXI@Z:PROC				; operator new
EXTRN	__CxxThrowException@8:PROC
EXTRN	??0exception@std@@QAE@ABV01@@Z:PROC		; std::exception::exception
;	COMDAT __CT??_R0?AVexception@std@@@8??0exception@std@@QAE@ABV01@@Z12
; File c:\program files (x86)\microsoft visual studio 10.0\vc\include\exception
xdata$x	SEGMENT
__CT??_R0?AVexception@std@@@8??0exception@std@@QAE@ABV01@@Z12 DD 00H
	DD	FLAT:??_R0?AVexception@std@@@8
	DD	00H
	DD	0ffffffffH
	ORG $+4
	DD	0cH
	DD	FLAT:??0exception@std@@QAE@ABV01@@Z
xdata$x	ENDS
;	COMDAT __CT??_R0?AVbad_alloc@std@@@8??0bad_alloc@std@@QAE@ABV01@@Z12
xdata$x	SEGMENT
__CT??_R0?AVbad_alloc@std@@@8??0bad_alloc@std@@QAE@ABV01@@Z12 DD 00H
	DD	FLAT:??_R0?AVbad_alloc@std@@@8
	DD	00H
	DD	0ffffffffH
	ORG $+4
	DD	0cH
	DD	FLAT:??0bad_alloc@std@@QAE@ABV01@@Z
xdata$x	ENDS
;	COMDAT __CTA2?AVbad_alloc@std@@
xdata$x	SEGMENT
__CTA2?AVbad_alloc@std@@ DD 02H
	DD	FLAT:__CT??_R0?AVbad_alloc@std@@@8??0bad_alloc@std@@QAE@ABV01@@Z12
	DD	FLAT:__CT??_R0?AVexception@std@@@8??0exception@std@@QAE@ABV01@@Z12
xdata$x	ENDS
;	COMDAT __TI2?AVbad_alloc@std@@
xdata$x	SEGMENT
__TI2?AVbad_alloc@std@@ DD 00H
	DD	FLAT:??1bad_alloc@std@@UAE@XZ
	DD	00H
	DD	FLAT:__CTA2?AVbad_alloc@std@@
; Function compile flags: /Ogsp
; File c:\program files (x86)\microsoft visual studio 10.0\vc\include\xmemory
xdata$x	ENDS
;	COMDAT ??$_Allocate@PAUUserInfo@UserInfoToolTip@@@std@@YAPAPAUUserInfo@UserInfoToolTip@@IPAPAU12@@Z
_TEXT	SEGMENT
$T551937 = -12						; size = 12
$T551942 = 8						; size = 4
__Count$ = 8						; size = 4
___formal$ = 12						; size = 4
??$_Allocate@PAUUserInfo@UserInfoToolTip@@@std@@YAPAPAUUserInfo@UserInfoToolTip@@IPAPAU12@@Z PROC ; std::_Allocate<UserInfoToolTip::UserInfo *>, COMDAT

; 30   : 	{	// allocate storage for _Count elements of type _Ty

  00000	55		 push	 ebp
  00001	8b ec		 mov	 ebp, esp

; 31   : 	void *_Ptr = 0;
; 32   : 
; 33   : 	if (_Count <= 0)

  00003	8b 4d 08	 mov	 ecx, DWORD PTR __Count$[ebp]
  00006	83 ec 0c	 sub	 esp, 12			; 0000000cH
  00009	33 c0		 xor	 eax, eax
  0000b	85 c9		 test	 ecx, ecx

; 34   : 		_Count = 0;
; 35   : 	else if (((_SIZT)(-1) / sizeof (_Ty) < _Count)

  0000d	74 3e		 je	 SHORT $LN5@Allocate

; 36   : 		|| (_Ptr = ::operator new(_Count * sizeof (_Ty))) == 0)

  0000f	81 f9 ff ff ff
	3f		 cmp	 ecx, 1073741823		; 3fffffffH
  00015	77 10		 ja	 SHORT $LN1@Allocate
  00017	8b c1		 mov	 eax, ecx
  00019	c1 e0 02	 shl	 eax, 2
  0001c	50		 push	 eax
  0001d	e8 00 00 00 00	 call	 ??2@YAPAXI@Z		; operator new
  00022	59		 pop	 ecx
  00023	85 c0		 test	 eax, eax

; 38   : 
; 39   : 	return ((_Ty _FARQ *)_Ptr);

  00025	75 26		 jne	 SHORT $LN5@Allocate
$LN1@Allocate:

; 37   : 		_THROW_NCEE(bad_alloc, 0);

  00027	83 65 08 00	 and	 DWORD PTR $T551942[ebp], 0
  0002b	8d 45 08	 lea	 eax, DWORD PTR $T551942[ebp]
  0002e	50		 push	 eax
  0002f	8d 4d f4	 lea	 ecx, DWORD PTR $T551937[ebp]
  00032	ff 15 00 00 00
	00		 call	 DWORD PTR __imp_??0exception@std@@QAE@ABQBD@Z
  00038	68 00 00 00 00	 push	 OFFSET __TI2?AVbad_alloc@std@@
  0003d	8d 45 f4	 lea	 eax, DWORD PTR $T551937[ebp]
  00040	50		 push	 eax
  00041	c7 45 f4 00 00
	00 00		 mov	 DWORD PTR $T551937[ebp], OFFSET ??_7bad_alloc@std@@6B@
  00048	e8 00 00 00 00	 call	 __CxxThrowException@8
$LN10@Allocate:
$LN5@Allocate:

; 40   : 	}

  0004d	c9		 leave
  0004e	c3		 ret	 0
$LN9@Allocate:
??$_Allocate@PAUUserInfo@UserInfoToolTip@@@std@@YAPAPAUUserInfo@UserInfoToolTip@@IPAPAU12@@Z ENDP ; std::_Allocate<UserInfoToolTip::UserInfo *>
_TEXT	ENDS
PUBLIC	??$_Copy_impl@PAHPAH@std@@YAPAHPAH00U_Scalar_ptr_iterator_tag@0@@Z ; std::_Copy_impl<int *,int *>
; Function compile flags: /Ogsp
; File c:\program files (x86)\microsoft visual studio 10.0\vc\include\xutility
;	COMDAT ??$_Copy_impl@PAHPAH@std@@YAPAHPAH00U_Scalar_ptr_iterator_tag@0@@Z
_TEXT	SEGMENT
__First$ = 8						; size = 4
__Last$ = 12						; size = 4
__Dest$ = 16						; size = 4
___formal$ = 20						; size = 1
??$_Copy_impl@PAHPAH@std@@YAPAHPAH00U_Scalar_ptr_iterator_tag@0@@Z PROC ; std::_Copy_impl<int *,int *>, COMDAT

; 2152 : 	{	// copy [_First, _Last) to [_Dest, ...), pointers to scalars

  00000	55		 push	 ebp
  00001	8b ec		 mov	 ebp, esp
  00003	56		 push	 esi

; 2153 : 	ptrdiff_t _Count = _Last - _First;

  00004	8b 75 0c	 mov	 esi, DWORD PTR __Last$[ebp]
  00007	2b 75 08	 sub	 esi, DWORD PTR __First$[ebp]
  0000a	57		 push	 edi

; 2154 : 	_CSTD memmove(&*_Dest, &*_First,
; 2155 : 		_Count * sizeof (*_First));

  0000b	8b 7d 10	 mov	 edi, DWORD PTR __Dest$[ebp]
  0000e	c1 fe 02	 sar	 esi, 2
  00011	c1 e6 02	 shl	 esi, 2
  00014	56		 push	 esi
  00015	ff 75 08	 push	 DWORD PTR __First$[ebp]
  00018	57		 push	 edi
  00019	ff 15 00 00 00
	00		 call	 DWORD PTR __imp__memmove
  0001f	83 c4 0c	 add	 esp, 12			; 0000000cH

; 2156 : 	return (_Dest + _Count);

  00022	8d 04 3e	 lea	 eax, DWORD PTR [esi+edi]
  00025	5f		 pop	 edi
  00026	5e		 pop	 esi

; 2157 : 	}

  00027	5d		 pop	 ebp
  00028	c3		 ret	 0
??$_Copy_impl@PAHPAH@std@@YAPAHPAH00U_Scalar_ptr_iterator_tag@0@@Z ENDP ; std::_Copy_impl<int *,int *>
_TEXT	ENDS
PUBLIC	??$forward@ABH@std@@YAABHABH@Z			; std::forward<int const &>
; Function compile flags: /Ogsp
; File c:\program files (x86)\microsoft visual studio 10.0\vc\include\utility
;	COMDAT ??$forward@ABH@std@@YAABHABH@Z
_TEXT	SEGMENT
__Arg$ = 8						; size = 4
??$forward@ABH@std@@YAABHABH@Z PROC			; std::forward<int const &>, COMDAT

; 78   : 	{	// forward _Arg, given explicitly specified type parameter

  00000	55		 push	 ebp
  00001	8b ec		 mov	 ebp, esp

; 79   : 	return ((_Ty&&)_Arg);

  00003	8b 45 08	 mov	 eax, DWORD PTR __Arg$[ebp]

; 80   : 	}

  00006	5d		 pop	 ebp
  00007	c3		 ret	 0
??$forward@ABH@std@@YAABHABH@Z ENDP			; std::forward<int const &>
_TEXT	ENDS
PUBLIC	??$_Copy_impl@PAKPAK@std@@YAPAKPAK00U_Scalar_ptr_iterator_tag@0@@Z ; std::_Copy_impl<unsigned long *,unsigned long *>
; Function compile flags: /Ogsp
; File c:\program files (x86)\microsoft visual studio 10.0\vc\include\xutility
;	COMDAT ??$_Copy_impl@PAKPAK@std@@YAPAKPAK00U_Scalar_ptr_iterator_tag@0@@Z
_TEXT	SEGMENT
__First$ = 8						; size = 4
__Last$ = 12						; size = 4
__Dest$ = 16						; size = 4
___formal$ = 20						; size = 1
??$_Copy_impl@PAKPAK@std@@YAPAKPAK00U_Scalar_ptr_iterator_tag@0@@Z PROC ; std::_Copy_impl<unsigned long *,unsigned long *>, COMDAT

; 2152 : 	{	// copy [_First, _Last) to [_Dest, ...), pointers to scalars

  00000	55		 push	 ebp
  00001	8b ec		 mov	 ebp, esp
  00003	56		 push	 esi

; 2153 : 	ptrdiff_t _Count = _Last - _First;

  00004	8b 75 0c	 mov	 esi, DWORD PTR __Last$[ebp]
  00007	2b 75 08	 sub	 esi, DWORD PTR __First$[ebp]
  0000a	57		 push	 edi

; 2154 : 	_CSTD memmove(&*_Dest, &*_First,
; 2155 : 		_Count * sizeof (*_First));

  0000b	8b 7d 10	 mov	 edi, DWORD PTR __Dest$[ebp]
  0000e	c1 fe 02	 sar	 esi, 2
  00011	c1 e6 02	 shl	 esi, 2
  00014	56		 push	 esi
  00015	ff 75 08	 push	 DWORD PTR __First$[ebp]
  00018	57		 push	 edi
  00019	ff 15 00 00 00
	00		 call	 DWORD PTR __imp__memmove
  0001f	83 c4 0c	 add	 esp, 12			; 0000000cH

; 2156 : 	return (_Dest + _Count);

  00022	8d 04 3e	 lea	 eax, DWORD PTR [esi+edi]
  00025	5f		 pop	 edi
  00026	5e		 pop	 esi

; 2157 : 	}

  00027	5d		 pop	 ebp
  00028	c3		 ret	 0
??$_Copy_impl@PAKPAK@std@@YAPAKPAK00U_Scalar_ptr_iterator_tag@0@@Z ENDP ; std::_Copy_impl<unsigned long *,unsigned long *>
_TEXT	ENDS
PUBLIC	??$forward@AAPAUUserInfo@UserInfoToolTip@@@std@@YAAAPAUUserInfo@UserInfoToolTip@@AAPAU12@@Z ; std::forward<UserInfoToolTip::UserInfo * &>
; Function compile flags: /Ogsp
; File c:\program files (x86)\microsoft visual studio 10.0\vc\include\utility
;	COMDAT ??$forward@AAPAUUserInfo@UserInfoToolTip@@@std@@YAAAPAUUserInfo@UserInfoToolTip@@AAPAU12@@Z
_TEXT	SEGMENT
__Arg$ = 8						; size = 4
??$forward@AAPAUUserInfo@UserInfoToolTip@@@std@@YAAAPAUUserInfo@UserInfoToolTip@@AAPAU12@@Z PROC ; std::forward<UserInfoToolTip::UserInfo * &>, COMDAT

; 78   : 	{	// forward _Arg, given explicitly specified type parameter

  00000	55		 push	 ebp
  00001	8b ec		 mov	 ebp, esp

; 79   : 	return ((_Ty&&)_Arg);

  00003	8b 45 08	 mov	 eax, DWORD PTR __Arg$[ebp]

; 80   : 	}

  00006	5d		 pop	 ebp
  00007	c3		 ret	 0
??$forward@AAPAUUserInfo@UserInfoToolTip@@@std@@YAAAPAUUserInfo@UserInfoToolTip@@AAPAU12@@Z ENDP ; std::forward<UserInfoToolTip::UserInfo * &>
_TEXT	ENDS
PUBLIC	??$construct@AAPAUUserInfo@UserInfoToolTip@@@?$allocator@PAUUserInfo@UserInfoToolTip@@@std@@QAEXPAPAUUserInfo@UserInfoToolTip@@AAPAU23@@Z ; std::allocator<UserInfoToolTip::UserInfo *>::construct<UserInfoToolTip::UserInfo * &>
; Function compile flags: /Ogsp
; File c:\program files (x86)\microsoft visual studio 10.0\vc\include\xmemory
;	COMDAT ??$construct@AAPAUUserInfo@UserInfoToolTip@@@?$allocator@PAUUserInfo@UserInfoToolTip@@@std@@QAEXPAPAUUserInfo@UserInfoToolTip@@AAPAU23@@Z
_TEXT	SEGMENT
__Ptr$ = 8						; size = 4
__Val$ = 12						; size = 4
??$construct@AAPAUUserInfo@UserInfoToolTip@@@?$allocator@PAUUserInfo@UserInfoToolTip@@@std@@QAEXPAPAUUserInfo@UserInfoToolTip@@AAPAU23@@Z PROC ; std::allocator<UserInfoToolTip::UserInfo *>::construct<UserInfoToolTip::UserInfo * &>, COMDAT
; _this$ = ecx

; 206  : 		void construct(pointer _Ptr, _Other&& _Val)

  00000	55		 push	 ebp
  00001	8b ec		 mov	 ebp, esp

; 207  : 		{	// construct object at _Ptr with value _Val
; 208  : 		::new ((void _FARQ *)_Ptr) _Ty(_STD forward<_Other>(_Val));

  00003	8b 45 08	 mov	 eax, DWORD PTR __Ptr$[ebp]
  00006	85 c0		 test	 eax, eax
  00008	74 07		 je	 SHORT $LN3@construct
  0000a	8b 4d 0c	 mov	 ecx, DWORD PTR __Val$[ebp]
  0000d	8b 09		 mov	 ecx, DWORD PTR [ecx]
  0000f	89 08		 mov	 DWORD PTR [eax], ecx
$LN3@construct:

; 209  : 		}

  00011	5d		 pop	 ebp
  00012	c2 08 00	 ret	 8
??$construct@AAPAUUserInfo@UserInfoToolTip@@@?$allocator@PAUUserInfo@UserInfoToolTip@@@std@@QAEXPAPAUUserInfo@UserInfoToolTip@@AAPAU23@@Z ENDP ; std::allocator<UserInfoToolTip::UserInfo *>::construct<UserInfoToolTip::UserInfo * &>
_TEXT	ENDS
PUBLIC	??$forward@ABQAUUserInfo@UserInfoToolTip@@@std@@YAABQAUUserInfo@UserInfoToolTip@@ABQAU12@@Z ; std::forward<UserInfoToolTip::UserInfo * const &>
; Function compile flags: /Ogsp
; File c:\program files (x86)\microsoft visual studio 10.0\vc\include\utility
;	COMDAT ??$forward@ABQAUUserInfo@UserInfoToolTip@@@std@@YAABQAUUserInfo@UserInfoToolTip@@ABQAU12@@Z
_TEXT	SEGMENT
__Arg$ = 8						; size = 4
??$forward@ABQAUUserInfo@UserInfoToolTip@@@std@@YAABQAUUserInfo@UserInfoToolTip@@ABQAU12@@Z PROC ; std::forward<UserInfoToolTip::UserInfo * const &>, COMDAT

; 78   : 	{	// forward _Arg, given explicitly specified type parameter

  00000	55		 push	 ebp
  00001	8b ec		 mov	 ebp, esp

; 79   : 	return ((_Ty&&)_Arg);

  00003	8b 45 08	 mov	 eax, DWORD PTR __Arg$[ebp]

; 80   : 	}

  00006	5d		 pop	 ebp
  00007	c3		 ret	 0
??$forward@ABQAUUserInfo@UserInfoToolTip@@@std@@YAABQAUUserInfo@UserInfoToolTip@@ABQAU12@@Z ENDP ; std::forward<UserInfoToolTip::UserInfo * const &>
_TEXT	ENDS
PUBLIC	??$_Ptr_cat@PAUUserInfo@UserInfoToolTip@@PAU12@@std@@YA?AU_Scalar_ptr_iterator_tag@0@PAPAUUserInfo@UserInfoToolTip@@0@Z ; std::_Ptr_cat<UserInfoToolTip::UserInfo *,UserInfoToolTip::UserInfo *>
; Function compile flags: /Ogsp
; File c:\program files (x86)\microsoft visual studio 10.0\vc\include\xutility
;	COMDAT ??$_Ptr_cat@PAUUserInfo@UserInfoToolTip@@PAU12@@std@@YA?AU_Scalar_ptr_iterator_tag@0@PAPAUUserInfo@UserInfoToolTip@@0@Z
_TEXT	SEGMENT
__Cat$ = -1						; size = 1
___formal$ = 8						; size = 4
___formal$ = 12						; size = 4
??$_Ptr_cat@PAUUserInfo@UserInfoToolTip@@PAU12@@std@@YA?AU_Scalar_ptr_iterator_tag@0@PAPAUUserInfo@UserInfoToolTip@@0@Z PROC ; std::_Ptr_cat<UserInfoToolTip::UserInfo *,UserInfoToolTip::UserInfo *>, COMDAT

; 516  : 	{	// return pointer category from pointers

  00000	55		 push	 ebp
  00001	8b ec		 mov	 ebp, esp
  00003	51		 push	 ecx

; 517  : 	typename _Ptr_cat_helper<_Elem1, _Elem2>::_Type _Cat;
; 518  : 	return (_Cat);

  00004	8a 45 ff	 mov	 al, BYTE PTR __Cat$[ebp]

; 519  : 	}

  00007	c9		 leave
  00008	c3		 ret	 0
??$_Ptr_cat@PAUUserInfo@UserInfoToolTip@@PAU12@@std@@YA?AU_Scalar_ptr_iterator_tag@0@PAPAUUserInfo@UserInfoToolTip@@0@Z ENDP ; std::_Ptr_cat<UserInfoToolTip::UserInfo *,UserInfoToolTip::UserInfo *>
_TEXT	ENDS
PUBLIC	??$_Move@PAPAUUserInfo@UserInfoToolTip@@PAPAU12@@std@@YAPAPAUUserInfo@UserInfoToolTip@@PAPAU12@00U_Scalar_ptr_iterator_tag@0@@Z ; std::_Move<UserInfoToolTip::UserInfo * *,UserInfoToolTip::UserInfo * *>
; Function compile flags: /Ogsp
;	COMDAT ??$_Move@PAPAUUserInfo@UserInfoToolTip@@PAPAU12@@std@@YAPAPAUUserInfo@UserInfoToolTip@@PAPAU12@00U_Scalar_ptr_iterator_tag@0@@Z
_TEXT	SEGMENT
__First$ = 8						; size = 4
__Last$ = 12						; size = 4
__Dest$ = 16						; size = 4
___formal$ = 20						; size = 1
??$_Move@PAPAUUserInfo@UserInfoToolTip@@PAPAU12@@std@@YAPAPAUUserInfo@UserInfoToolTip@@PAPAU12@00U_Scalar_ptr_iterator_tag@0@@Z PROC ; std::_Move<UserInfoToolTip::UserInfo * *,UserInfoToolTip::UserInfo * *>, COMDAT

; 2522 : 	{	// move [_First, _Last) to [_Dest, ...), pointers to scalars

  00000	55		 push	 ebp
  00001	8b ec		 mov	 ebp, esp
  00003	56		 push	 esi

; 2523 : 	ptrdiff_t _Count = _Last - _First;

  00004	8b 75 0c	 mov	 esi, DWORD PTR __Last$[ebp]
  00007	2b 75 08	 sub	 esi, DWORD PTR __First$[ebp]
  0000a	57		 push	 edi

; 2524 : 	_CSTD memmove(&*_Dest, &*_First,
; 2525 : 		_Count * sizeof (*_First));

  0000b	8b 7d 10	 mov	 edi, DWORD PTR __Dest$[ebp]
  0000e	c1 fe 02	 sar	 esi, 2
  00011	c1 e6 02	 shl	 esi, 2
  00014	56		 push	 esi
  00015	ff 75 08	 push	 DWORD PTR __First$[ebp]
  00018	57		 push	 edi
  00019	ff 15 00 00 00
	00		 call	 DWORD PTR __imp__memmove
  0001f	83 c4 0c	 add	 esp, 12			; 0000000cH

; 2526 : 	return (_Dest + _Count);

  00022	8d 04 3e	 lea	 eax, DWORD PTR [esi+edi]
  00025	5f		 pop	 edi
  00026	5e		 pop	 esi

; 2527 : 	}

  00027	5d		 pop	 ebp
  00028	c3		 ret	 0
??$_Move@PAPAUUserInfo@UserInfoToolTip@@PAPAU12@@std@@YAPAPAUUserInfo@UserInfoToolTip@@PAPAU12@00U_Scalar_ptr_iterator_tag@0@@Z ENDP ; std::_Move<UserInfoToolTip::UserInfo * *,UserInfoToolTip::UserInfo * *>
_TEXT	ENDS
PUBLIC	??$_Destroy_range@V?$allocator@PAUUserInfo@UserInfoToolTip@@@std@@@std@@YAXPAPAUUserInfo@UserInfoToolTip@@0AAV?$allocator@PAUUserInfo@UserInfoToolTip@@@0@U_Scalar_ptr_iterator_tag@0@@Z ; std::_Destroy_range<std::allocator<UserInfoToolTip::UserInfo *> >
; Function compile flags: /Ogsp
; File c:\program files (x86)\microsoft visual studio 10.0\vc\include\xmemory
;	COMDAT ??$_Destroy_range@V?$allocator@PAUUserInfo@UserInfoToolTip@@@std@@@std@@YAXPAPAUUserInfo@UserInfoToolTip@@0AAV?$allocator@PAUUserInfo@UserInfoToolTip@@@0@U_Scalar_ptr_iterator_tag@0@@Z
_TEXT	SEGMENT
__First$ = 8						; size = 4
__Last$ = 12						; size = 4
__Al$ = 16						; size = 4
___formal$ = 20						; size = 1
??$_Destroy_range@V?$allocator@PAUUserInfo@UserInfoToolTip@@@std@@@std@@YAXPAPAUUserInfo@UserInfoToolTip@@0AAV?$allocator@PAUUserInfo@UserInfoToolTip@@@0@U_Scalar_ptr_iterator_tag@0@@Z PROC ; std::_Destroy_range<std::allocator<UserInfoToolTip::UserInfo *> >, COMDAT

; 105  : 	}

  00000	c3		 ret	 0
??$_Destroy_range@V?$allocator@PAUUserInfo@UserInfoToolTip@@@std@@@std@@YAXPAPAUUserInfo@UserInfoToolTip@@0AAV?$allocator@PAUUserInfo@UserInfoToolTip@@@0@U_Scalar_ptr_iterator_tag@0@@Z ENDP ; std::_Destroy_range<std::allocator<UserInfoToolTip::UserInfo *> >
_TEXT	ENDS
PUBLIC	??$_Ptr_cat@UExpandMedalSlot@ioExpandMedalSlotManager@@U12@@std@@YA?AU_Nonscalar_ptr_iterator_tag@0@PAUExpandMedalSlot@ioExpandMedalSlotManager@@0@Z ; std::_Ptr_cat<ioExpandMedalSlotManager::ExpandMedalSlot,ioExpandMedalSlotManager::ExpandMedalSlot>
; Function compile flags: /Ogsp
; File c:\program files (x86)\microsoft visual studio 10.0\vc\include\xutility
;	COMDAT ??$_Ptr_cat@UExpandMedalSlot@ioExpandMedalSlotManager@@U12@@std@@YA?AU_Nonscalar_ptr_iterator_tag@0@PAUExpandMedalSlot@ioExpandMedalSlotManager@@0@Z
_TEXT	SEGMENT
__Cat$ = -1						; size = 1
___formal$ = 8						; size = 4
___formal$ = 12						; size = 4
??$_Ptr_cat@UExpandMedalSlot@ioExpandMedalSlotManager@@U12@@std@@YA?AU_Nonscalar_ptr_iterator_tag@0@PAUExpandMedalSlot@ioExpandMedalSlotManager@@0@Z PROC ; std::_Ptr_cat<ioExpandMedalSlotManager::ExpandMedalSlot,ioExpandMedalSlotManager::ExpandMedalSlot>, COMDAT

; 516  : 	{	// return pointer category from pointers

  00000	55		 push	 ebp
  00001	8b ec		 mov	 ebp, esp
  00003	51		 push	 ecx

; 517  : 	typename _Ptr_cat_helper<_Elem1, _Elem2>::_Type _Cat;
; 518  : 	return (_Cat);

  00004	8a 45 ff	 mov	 al, BYTE PTR __Cat$[ebp]

; 519  : 	}

  00007	c9		 leave
  00008	c3		 ret	 0
??$_Ptr_cat@UExpandMedalSlot@ioExpandMedalSlotManager@@U12@@std@@YA?AU_Nonscalar_ptr_iterator_tag@0@PAUExpandMedalSlot@ioExpandMedalSlotManager@@0@Z ENDP ; std::_Ptr_cat<ioExpandMedalSlotManager::ExpandMedalSlot,ioExpandMedalSlotManager::ExpandMedalSlot>
_TEXT	ENDS
PUBLIC	??$_Construct@HABH@std@@YAXPAHABH@Z		; std::_Construct<int,int const &>
; Function compile flags: /Ogsp
; File c:\program files (x86)\microsoft visual studio 10.0\vc\include\xmemory
;	COMDAT ??$_Construct@HABH@std@@YAXPAHABH@Z
_TEXT	SEGMENT
__Ptr$ = 8						; size = 4
__Val$ = 12						; size = 4
??$_Construct@HABH@std@@YAXPAHABH@Z PROC		; std::_Construct<int,int const &>, COMDAT

; 46   : 	{	// construct object at _Ptr with value _Val

  00000	55		 push	 ebp
  00001	8b ec		 mov	 ebp, esp

; 47   : 	void _FARQ *_Vptr = _Ptr;
; 48   : 	::new (_Vptr) _Ty1(_STD forward<_Ty2>(_Val));

  00003	8b 45 08	 mov	 eax, DWORD PTR __Ptr$[ebp]
  00006	85 c0		 test	 eax, eax
  00008	74 07		 je	 SHORT $LN3@Construct
  0000a	8b 4d 0c	 mov	 ecx, DWORD PTR __Val$[ebp]
  0000d	8b 09		 mov	 ecx, DWORD PTR [ecx]
  0000f	89 08		 mov	 DWORD PTR [eax], ecx
$LN3@Construct:

; 49   : 	}

  00011	5d		 pop	 ebp
  00012	c3		 ret	 0
??$_Construct@HABH@std@@YAXPAHABH@Z ENDP		; std::_Construct<int,int const &>
_TEXT	ENDS
PUBLIC	??$_Construct@PAUUserInfo@UserInfoToolTip@@ABQAU12@@std@@YAXPAPAUUserInfo@UserInfoToolTip@@ABQAU12@@Z ; std::_Construct<UserInfoToolTip::UserInfo *,UserInfoToolTip::UserInfo * const &>
; Function compile flags: /Ogsp
;	COMDAT ??$_Construct@PAUUserInfo@UserInfoToolTip@@ABQAU12@@std@@YAXPAPAUUserInfo@UserInfoToolTip@@ABQAU12@@Z
_TEXT	SEGMENT
__Ptr$ = 8						; size = 4
__Val$ = 12						; size = 4
??$_Construct@PAUUserInfo@UserInfoToolTip@@ABQAU12@@std@@YAXPAPAUUserInfo@UserInfoToolTip@@ABQAU12@@Z PROC ; std::_Construct<UserInfoToolTip::UserInfo *,UserInfoToolTip::UserInfo * const &>, COMDAT

; 46   : 	{	// construct object at _Ptr with value _Val

  00000	55		 push	 ebp
  00001	8b ec		 mov	 ebp, esp

; 47   : 	void _FARQ *_Vptr = _Ptr;
; 48   : 	::new (_Vptr) _Ty1(_STD forward<_Ty2>(_Val));

  00003	8b 45 08	 mov	 eax, DWORD PTR __Ptr$[ebp]
  00006	85 c0		 test	 eax, eax
  00008	74 07		 je	 SHORT $LN3@Construct@2
  0000a	8b 4d 0c	 mov	 ecx, DWORD PTR __Val$[ebp]
  0000d	8b 09		 mov	 ecx, DWORD PTR [ecx]
  0000f	89 08		 mov	 DWORD PTR [eax], ecx
$LN3@Construct@2:

; 49   : 	}

  00011	5d		 pop	 ebp
  00012	c3		 ret	 0
??$_Construct@PAUUserInfo@UserInfoToolTip@@ABQAU12@@std@@YAXPAPAUUserInfo@UserInfoToolTip@@ABQAU12@@Z ENDP ; std::_Construct<UserInfoToolTip::UserInfo *,UserInfoToolTip::UserInfo * const &>
_TEXT	ENDS
PUBLIC	??$_Uninit_copy@HH@std@@YAPAHPAH00AAV?$allocator@H@0@U_Scalar_ptr_iterator_tag@0@@Z ; std::_Uninit_copy<int,int>
; Function compile flags: /Ogsp
; File c:\program files (x86)\microsoft visual studio 10.0\vc\include\memory
;	COMDAT ??$_Uninit_copy@HH@std@@YAPAHPAH00AAV?$allocator@H@0@U_Scalar_ptr_iterator_tag@0@@Z
_TEXT	SEGMENT
__First$ = 8						; size = 4
__Last$ = 12						; size = 4
__Dest$ = 16						; size = 4
___formal$ = 20						; size = 4
___formal$ = 24						; size = 1
??$_Uninit_copy@HH@std@@YAPAHPAH00AAV?$allocator@H@0@U_Scalar_ptr_iterator_tag@0@@Z PROC ; std::_Uninit_copy<int,int>, COMDAT

; 399  : 	{	// copy [_First, _Last) to raw _Dest, scalar type

  00000	55		 push	 ebp
  00001	8b ec		 mov	 ebp, esp
  00003	56		 push	 esi

; 400  : 	_DEBUG_RANGE(_First, _Last);
; 401  : 	_DEBUG_POINTER(_Dest);
; 402  : 	size_t _Count = (size_t)(_Last - _First);

  00004	8b 75 0c	 mov	 esi, DWORD PTR __Last$[ebp]
  00007	2b 75 08	 sub	 esi, DWORD PTR __First$[ebp]
  0000a	c1 fe 02	 sar	 esi, 2

; 403  : 	return ((_Ty2 *)_CSTD memmove(&*_Dest, &*_First,
; 404  : 		_Count * sizeof (*_First)) + _Count);	// NB: non-overlapping move

  0000d	c1 e6 02	 shl	 esi, 2
  00010	56		 push	 esi
  00011	ff 75 08	 push	 DWORD PTR __First$[ebp]
  00014	ff 75 10	 push	 DWORD PTR __Dest$[ebp]
  00017	ff 15 00 00 00
	00		 call	 DWORD PTR __imp__memmove
  0001d	83 c4 0c	 add	 esp, 12			; 0000000cH
  00020	03 c6		 add	 eax, esi
  00022	5e		 pop	 esi

; 405  : 	}

  00023	5d		 pop	 ebp
  00024	c3		 ret	 0
??$_Uninit_copy@HH@std@@YAPAHPAH00AAV?$allocator@H@0@U_Scalar_ptr_iterator_tag@0@@Z ENDP ; std::_Uninit_copy<int,int>
_TEXT	ENDS
PUBLIC	??$_Uninit_copy@KK@std@@YAPAKPAK00AAV?$allocator@K@0@U_Scalar_ptr_iterator_tag@0@@Z ; std::_Uninit_copy<unsigned long,unsigned long>
; Function compile flags: /Ogsp
;	COMDAT ??$_Uninit_copy@KK@std@@YAPAKPAK00AAV?$allocator@K@0@U_Scalar_ptr_iterator_tag@0@@Z
_TEXT	SEGMENT
__First$ = 8						; size = 4
__Last$ = 12						; size = 4
__Dest$ = 16						; size = 4
___formal$ = 20						; size = 4
___formal$ = 24						; size = 1
??$_Uninit_copy@KK@std@@YAPAKPAK00AAV?$allocator@K@0@U_Scalar_ptr_iterator_tag@0@@Z PROC ; std::_Uninit_copy<unsigned long,unsigned long>, COMDAT

; 399  : 	{	// copy [_First, _Last) to raw _Dest, scalar type

  00000	55		 push	 ebp
  00001	8b ec		 mov	 ebp, esp
  00003	56		 push	 esi

; 400  : 	_DEBUG_RANGE(_First, _Last);
; 401  : 	_DEBUG_POINTER(_Dest);
; 402  : 	size_t _Count = (size_t)(_Last - _First);

  00004	8b 75 0c	 mov	 esi, DWORD PTR __Last$[ebp]
  00007	2b 75 08	 sub	 esi, DWORD PTR __First$[ebp]
  0000a	c1 fe 02	 sar	 esi, 2

; 403  : 	return ((_Ty2 *)_CSTD memmove(&*_Dest, &*_First,
; 404  : 		_Count * sizeof (*_First)) + _Count);	// NB: non-overlapping move

  0000d	c1 e6 02	 shl	 esi, 2
  00010	56		 push	 esi
  00011	ff 75 08	 push	 DWORD PTR __First$[ebp]
  00014	ff 75 10	 push	 DWORD PTR __Dest$[ebp]
  00017	ff 15 00 00 00
	00		 call	 DWORD PTR __imp__memmove
  0001d	83 c4 0c	 add	 esp, 12			; 0000000cH
  00020	03 c6		 add	 eax, esi
  00022	5e		 pop	 esi

; 405  : 	}

  00023	5d		 pop	 ebp
  00024	c3		 ret	 0
??$_Uninit_copy@KK@std@@YAPAKPAK00AAV?$allocator@K@0@U_Scalar_ptr_iterator_tag@0@@Z ENDP ; std::_Uninit_copy<unsigned long,unsigned long>
_TEXT	ENDS
PUBLIC	??$_Val_type@PAVioHashString@@@std@@YAPAVioHashString@@PAV1@@Z ; std::_Val_type<ioHashString *>
; Function compile flags: /Ogsp
; File c:\program files (x86)\microsoft visual studio 10.0\vc\include\xutility
;	COMDAT ??$_Val_type@PAVioHashString@@@std@@YAPAVioHashString@@PAV1@@Z
_TEXT	SEGMENT
___formal$ = 8						; size = 4
??$_Val_type@PAVioHashString@@@std@@YAPAVioHashString@@PAV1@@Z PROC ; std::_Val_type<ioHashString *>, COMDAT

; 790  : 	return (0);

  00000	33 c0		 xor	 eax, eax

; 791  : 	}

  00002	c3		 ret	 0
??$_Val_type@PAVioHashString@@@std@@YAPAVioHashString@@PAV1@@Z ENDP ; std::_Val_type<ioHashString *>
_TEXT	ENDS
PUBLIC	??$_Val_type@PAPAUUserInfo@UserInfoToolTip@@@std@@YAPAPAUUserInfo@UserInfoToolTip@@PAPAU12@@Z ; std::_Val_type<UserInfoToolTip::UserInfo * *>
; Function compile flags: /Ogsp
;	COMDAT ??$_Val_type@PAPAUUserInfo@UserInfoToolTip@@@std@@YAPAPAUUserInfo@UserInfoToolTip@@PAPAU12@@Z
_TEXT	SEGMENT
___formal$ = 8						; size = 4
??$_Val_type@PAPAUUserInfo@UserInfoToolTip@@@std@@YAPAPAUUserInfo@UserInfoToolTip@@PAPAU12@@Z PROC ; std::_Val_type<UserInfoToolTip::UserInfo * *>, COMDAT

; 790  : 	return (0);

  00000	33 c0		 xor	 eax, eax

; 791  : 	}

  00002	c3		 ret	 0
??$_Val_type@PAPAUUserInfo@UserInfoToolTip@@@std@@YAPAPAUUserInfo@UserInfoToolTip@@PAPAU12@@Z ENDP ; std::_Val_type<UserInfoToolTip::UserInfo * *>
_TEXT	ENDS
PUBLIC	??$_Uninit_move@PAUUserInfo@UserInfoToolTip@@PAU12@PAU12@@std@@YAPAPAUUserInfo@UserInfoToolTip@@PAPAU12@00AAV?$allocator@PAUUserInfo@UserInfoToolTip@@@0@0U_Scalar_ptr_iterator_tag@0@@Z ; std::_Uninit_move<UserInfoToolTip::UserInfo *,UserInfoToolTip::UserInfo *,UserInfoToolTip::UserInfo *>
; Function compile flags: /Ogsp
; File c:\program files (x86)\microsoft visual studio 10.0\vc\include\memory
;	COMDAT ??$_Uninit_move@PAUUserInfo@UserInfoToolTip@@PAU12@PAU12@@std@@YAPAPAUUserInfo@UserInfoToolTip@@PAPAU12@00AAV?$allocator@PAUUserInfo@UserInfoToolTip@@@0@0U_Scalar_ptr_iterator_tag@0@@Z
_TEXT	SEGMENT
__First$ = 8						; size = 4
__Last$ = 12						; size = 4
__Dest$ = 16						; size = 4
___formal$ = 20						; size = 4
___formal$ = 24						; size = 4
___formal$ = 28						; size = 1
??$_Uninit_move@PAUUserInfo@UserInfoToolTip@@PAU12@PAU12@@std@@YAPAPAUUserInfo@UserInfoToolTip@@PAPAU12@00AAV?$allocator@PAUUserInfo@UserInfoToolTip@@@0@0U_Scalar_ptr_iterator_tag@0@@Z PROC ; std::_Uninit_move<UserInfoToolTip::UserInfo *,UserInfoToolTip::UserInfo *,UserInfoToolTip::UserInfo *>, COMDAT

; 456  : 	{	// move [_First, _Last) to raw _Dest, scalar type

  00000	55		 push	 ebp
  00001	8b ec		 mov	 ebp, esp
  00003	56		 push	 esi

; 457  : 	_DEBUG_RANGE(_First, _Last);
; 458  : 	_DEBUG_POINTER(_Dest);
; 459  : 	size_t _Count = (size_t)(_Last - _First);

  00004	8b 75 0c	 mov	 esi, DWORD PTR __Last$[ebp]
  00007	2b 75 08	 sub	 esi, DWORD PTR __First$[ebp]
  0000a	c1 fe 02	 sar	 esi, 2

; 460  : 	return ((_Ty2 *)_CSTD memmove(&*_Dest, &*_First,
; 461  : 		_Count * sizeof (*_First)) + _Count);	// NB: non-overlapping move

  0000d	c1 e6 02	 shl	 esi, 2
  00010	56		 push	 esi
  00011	ff 75 08	 push	 DWORD PTR __First$[ebp]
  00014	ff 75 10	 push	 DWORD PTR __Dest$[ebp]
  00017	ff 15 00 00 00
	00		 call	 DWORD PTR __imp__memmove
  0001d	83 c4 0c	 add	 esp, 12			; 0000000cH
  00020	03 c6		 add	 eax, esi
  00022	5e		 pop	 esi

; 462  : 	}

  00023	5d		 pop	 ebp
  00024	c3		 ret	 0
??$_Uninit_move@PAUUserInfo@UserInfoToolTip@@PAU12@PAU12@@std@@YAPAPAUUserInfo@UserInfoToolTip@@PAPAU12@00AAV?$allocator@PAUUserInfo@UserInfoToolTip@@@0@0U_Scalar_ptr_iterator_tag@0@@Z ENDP ; std::_Uninit_move<UserInfoToolTip::UserInfo *,UserInfoToolTip::UserInfo *,UserInfoToolTip::UserInfo *>
_TEXT	ENDS
PUBLIC	??$_Destroy@UExpandMedalSlot@ioExpandMedalSlotManager@@@std@@YAXPAUExpandMedalSlot@ioExpandMedalSlotManager@@@Z ; std::_Destroy<ioExpandMedalSlotManager::ExpandMedalSlot>
; Function compile flags: /Ogsp
; File c:\program files (x86)\microsoft visual studio 10.0\vc\include\xmemory
;	COMDAT ??$_Destroy@UExpandMedalSlot@ioExpandMedalSlotManager@@@std@@YAXPAUExpandMedalSlot@ioExpandMedalSlotManager@@@Z
_TEXT	SEGMENT
__Ptr$ = 8						; size = 4
??$_Destroy@UExpandMedalSlot@ioExpandMedalSlotManager@@@std@@YAXPAUExpandMedalSlot@ioExpandMedalSlotManager@@@Z PROC ; std::_Destroy<ioExpandMedalSlotManager::ExpandMedalSlot>, COMDAT

; 63   : 	_Ptr->~_Ty();
; 64   : 	}

  00000	c3		 ret	 0
??$_Destroy@UExpandMedalSlot@ioExpandMedalSlotManager@@@std@@YAXPAUExpandMedalSlot@ioExpandMedalSlotManager@@@Z ENDP ; std::_Destroy<ioExpandMedalSlotManager::ExpandMedalSlot>
_TEXT	ENDS
PUBLIC	??$forward@VioHashString@@@std@@YA$$QAVioHashString@@AAV1@@Z ; std::forward<ioHashString>
; Function compile flags: /Ogsp
; File c:\program files (x86)\microsoft visual studio 10.0\vc\include\utility
;	COMDAT ??$forward@VioHashString@@@std@@YA$$QAVioHashString@@AAV1@@Z
_TEXT	SEGMENT
__Arg$ = 8						; size = 4
??$forward@VioHashString@@@std@@YA$$QAVioHashString@@AAV1@@Z PROC ; std::forward<ioHashString>, COMDAT

; 78   : 	{	// forward _Arg, given explicitly specified type parameter

  00000	55		 push	 ebp
  00001	8b ec		 mov	 ebp, esp

; 79   : 	return ((_Ty&&)_Arg);

  00003	8b 45 08	 mov	 eax, DWORD PTR __Arg$[ebp]

; 80   : 	}

  00006	5d		 pop	 ebp
  00007	c3		 ret	 0
??$forward@VioHashString@@@std@@YA$$QAVioHashString@@AAV1@@Z ENDP ; std::forward<ioHashString>
; Function compile flags: /Ogsp
; File c:\program files (x86)\microsoft sdks\windows\v7.0a\include\strsafe.h
_TEXT	ENDS
;	COMDAT ?StringValidateDestA@@YGJPBDII@Z
_TEXT	SEGMENT
_cchMax$ = 8						; size = 4
?StringValidateDestA@@YGJPBDII@Z PROC			; StringValidateDestA, COMDAT
; _cchDest$ = ecx

; 8721 : {

  00000	55		 push	 ebp
  00001	8b ec		 mov	 ebp, esp

; 8722 :     HRESULT hr = S_OK;

  00003	33 c0		 xor	 eax, eax

; 8723 : 
; 8724 :     if ((cchDest == 0) || (cchDest > cchMax))

  00005	85 c9		 test	 ecx, ecx
  00007	74 05		 je	 SHORT $LN1@StringVali
  00009	3b 4d 08	 cmp	 ecx, DWORD PTR _cchMax$[ebp]
  0000c	76 05		 jbe	 SHORT $LN2@StringVali
$LN1@StringVali:

; 8725 :     {
; 8726 :         hr = STRSAFE_E_INVALID_PARAMETER;

  0000e	b8 57 00 07 80	 mov	 eax, -2147024809	; 80070057H
$LN2@StringVali:

; 8727 :     }
; 8728 : 
; 8729 :     return hr;
; 8730 : }

  00013	5d		 pop	 ebp
  00014	c2 04 00	 ret	 4
?StringValidateDestA@@YGJPBDII@Z ENDP			; StringValidateDestA
_TEXT	ENDS
EXTRN	__imp___vsnprintf:PROC
; Function compile flags: /Ogsp
;	COMDAT ?StringVPrintfWorkerA@@YGJPADIPAIPBD0@Z
_TEXT	SEGMENT
_pcchNewDestLength$ = 8					; size = 4
_pszFormat$ = 12					; size = 4
_argList$ = 16						; size = 4
?StringVPrintfWorkerA@@YGJPADIPAIPBD0@Z PROC		; StringVPrintfWorkerA, COMDAT
; _pszDest$ = edi
; _cchDest$ = eax

; 9029 : {

  00000	55		 push	 ebp
  00001	8b ec		 mov	 ebp, esp
  00003	53		 push	 ebx
  00004	56		 push	 esi

; 9030 :     HRESULT hr = S_OK;
; 9031 :     int iRet;
; 9032 :     size_t cchMax;
; 9033 :     size_t cchNewDestLength = 0;
; 9034 : 
; 9035 :     // leave the last space for the null terminator
; 9036 :     cchMax = cchDest - 1;
; 9037 : 
; 9038 : #if (STRSAFE_USE_SECURE_CRT == 1) && !defined(STRSAFE_LIB_IMPL)
; 9039 :     iRet = _vsnprintf_s(pszDest, cchDest, cchMax, pszFormat, argList);
; 9040 : #else
; 9041 :     #pragma warning(push)
; 9042 :     #pragma warning(disable: __WARNING_BANNED_API_USAGE)// "STRSAFE not included"
; 9043 :     iRet = _vsnprintf(pszDest, cchMax, pszFormat, argList);

  00005	ff 75 10	 push	 DWORD PTR _argList$[ebp]
  00008	8d 70 ff	 lea	 esi, DWORD PTR [eax-1]
  0000b	ff 75 0c	 push	 DWORD PTR _pszFormat$[ebp]
  0000e	33 db		 xor	 ebx, ebx
  00010	56		 push	 esi
  00011	57		 push	 edi
  00012	ff 15 00 00 00
	00		 call	 DWORD PTR __imp___vsnprintf
  00018	83 c4 10	 add	 esp, 16			; 00000010H

; 9044 :     #pragma warning(pop)
; 9045 : #endif
; 9046 :     // ASSERT((iRet < 0) || (((size_t)iRet) <= cchMax));
; 9047 : 
; 9048 :     if ((iRet < 0) || (((size_t)iRet) > cchMax))

  0001b	85 c0		 test	 eax, eax
  0001d	78 0b		 js	 SHORT $LN5@StringVPri
  0001f	3b c6		 cmp	 eax, esi
  00021	77 07		 ja	 SHORT $LN5@StringVPri

; 9058 :     }
; 9059 :     else if (((size_t)iRet) == cchMax)

  00023	75 0f		 jne	 SHORT $LN2@StringVPri

; 9060 :     {
; 9061 :         // need to null terminate the string
; 9062 :         pszDest += cchMax;
; 9063 :         *pszDest = '\0';

  00025	88 1c 3e	 mov	 BYTE PTR [esi+edi], bl

; 9064 : 
; 9065 :         cchNewDestLength = cchMax;
; 9066 :     }
; 9067 :     else

  00028	eb 08		 jmp	 SHORT $LN9@StringVPri
$LN5@StringVPri:

; 9049 :     {
; 9050 :         // need to null terminate the string
; 9051 :         pszDest += cchMax;
; 9052 :         *pszDest = '\0';

  0002a	88 1c 3e	 mov	 BYTE PTR [esi+edi], bl

; 9055 : 
; 9056 :         // we have truncated pszDest
; 9057 :         hr = STRSAFE_E_INSUFFICIENT_BUFFER;

  0002d	bb 7a 00 07 80	 mov	 ebx, -2147024774	; 8007007aH
$LN9@StringVPri:

; 9053 : 
; 9054 :         cchNewDestLength = cchMax;

  00032	8b c6		 mov	 eax, esi
$LN2@StringVPri:

; 9068 :     {
; 9069 :         cchNewDestLength = (size_t)iRet;
; 9070 :     }
; 9071 : 
; 9072 :     if (pcchNewDestLength)

  00034	8b 4d 08	 mov	 ecx, DWORD PTR _pcchNewDestLength$[ebp]
  00037	85 c9		 test	 ecx, ecx
  00039	74 02		 je	 SHORT $LN1@StringVPri

; 9073 :     {
; 9074 :         *pcchNewDestLength = cchNewDestLength;

  0003b	89 01		 mov	 DWORD PTR [ecx], eax
$LN1@StringVPri:
  0003d	5e		 pop	 esi

; 9075 :     }
; 9076 : 
; 9077 :     return hr;

  0003e	8b c3		 mov	 eax, ebx
  00040	5b		 pop	 ebx

; 9078 : }

  00041	5d		 pop	 ebp
  00042	c2 0c 00	 ret	 12			; 0000000cH
?StringVPrintfWorkerA@@YGJPADIPAIPBD0@Z ENDP		; StringVPrintfWorkerA
_TEXT	ENDS
PUBLIC	??_H@YGXPAXIHP6EPAX0@Z@Z			; `vector constructor iterator'
; Function compile flags: /Ogsp
;	COMDAT ??_H@YGXPAXIHP6EPAX0@Z@Z
_TEXT	SEGMENT
___t$ = 8						; size = 4
___s$ = 12						; size = 4
___n$ = 16						; size = 4
___f$ = 20						; size = 4
??_H@YGXPAXIHP6EPAX0@Z@Z PROC				; `vector constructor iterator', COMDAT
  00000	55		 push	 ebp
  00001	8b ec		 mov	 ebp, esp
  00003	ff 4d 10	 dec	 DWORD PTR ___n$[ebp]
  00006	78 12		 js	 SHORT $LN1@vector
  00008	56		 push	 esi
  00009	8b 75 08	 mov	 esi, DWORD PTR ___t$[ebp]
$LL2@vector:
  0000c	8b ce		 mov	 ecx, esi
  0000e	ff 55 14	 call	 DWORD PTR ___f$[ebp]
  00011	03 75 0c	 add	 esi, DWORD PTR ___s$[ebp]
  00014	ff 4d 10	 dec	 DWORD PTR ___n$[ebp]
  00017	79 f3		 jns	 SHORT $LL2@vector
  00019	5e		 pop	 esi
$LN1@vector:
  0001a	5d		 pop	 ebp
  0001b	c2 10 00	 ret	 16			; 00000010H
??_H@YGXPAXIHP6EPAX0@Z@Z ENDP				; `vector constructor iterator'
_TEXT	ENDS
PUBLIC	?_DECSTR@@YAXPADH@Z				; _DECSTR
; Function compile flags: /Ogsp
; File d:\lost saga for developer\youtube\tutorial\source\src\lsclient\stringprotect.h
;	COMDAT ?_DECSTR@@YAXPADH@Z
_TEXT	SEGMENT
_s$ = 8							; size = 4
_l$ = 12						; size = 4
?_DECSTR@@YAXPADH@Z PROC				; _DECSTR, COMDAT

; 40   : __forceinline void _DECSTR(char* s, int l){int i=0,l4=(l-1)/4,*p=(int*)s;s[l-1]=0;for(;i<l4;++i)*(p++)^=0xEAEBECED;for(i=l4*4;i<l-1;++i)s[i]^=0xED-i%4;}

  00000	55		 push	 ebp
  00001	8b ec		 mov	 ebp, esp
  00003	8b 4d 0c	 mov	 ecx, DWORD PTR _l$[ebp]
  00006	56		 push	 esi
  00007	8b 75 08	 mov	 esi, DWORD PTR _s$[ebp]
  0000a	57		 push	 edi
  0000b	8d 79 ff	 lea	 edi, DWORD PTR [ecx-1]
  0000e	8b c7		 mov	 eax, edi
  00010	99		 cdq
  00011	83 e2 03	 and	 edx, 3
  00014	03 c2		 add	 eax, edx
  00016	c1 f8 02	 sar	 eax, 2
  00019	8b d6		 mov	 edx, esi
  0001b	c6 44 0e ff 00	 mov	 BYTE PTR [esi+ecx-1], 0
  00020	85 c0		 test	 eax, eax
  00022	7e 0e		 jle	 SHORT $LN4@DECSTR
  00024	8b c8		 mov	 ecx, eax
$LL6@DECSTR:
  00026	81 32 ed ec eb
	ea		 xor	 DWORD PTR [edx], -353637139 ; eaebecedH
  0002c	83 c2 04	 add	 edx, 4
  0002f	49		 dec	 ecx
  00030	75 f4		 jne	 SHORT $LL6@DECSTR
$LN4@DECSTR:
  00032	c1 e0 02	 shl	 eax, 2
  00035	eb 17		 jmp	 SHORT $LN14@DECSTR
$LL3@DECSTR:
  00037	8b c8		 mov	 ecx, eax
  00039	81 e1 03 00 00
	80		 and	 ecx, -2147483645	; 80000003H
  0003f	79 05		 jns	 SHORT $LN13@DECSTR
  00041	49		 dec	 ecx
  00042	83 c9 fc	 or	 ecx, -4			; fffffffcH
  00045	41		 inc	 ecx
$LN13@DECSTR:
  00046	b2 ed		 mov	 dl, -19			; ffffffedH
  00048	2a d1		 sub	 dl, cl
  0004a	30 14 30	 xor	 BYTE PTR [eax+esi], dl
  0004d	40		 inc	 eax
$LN14@DECSTR:
  0004e	3b c7		 cmp	 eax, edi
  00050	7c e5		 jl	 SHORT $LL3@DECSTR
  00052	5f		 pop	 edi
  00053	5e		 pop	 esi
  00054	5d		 pop	 ebp
  00055	c3		 ret	 0
?_DECSTR@@YAXPADH@Z ENDP				; _DECSTR
_TEXT	ENDS
PUBLIC	??_R0?AVioGameEntity@@@8			; ioGameEntity `RTTI Type Descriptor'
PUBLIC	??_R0?AVioPlayEntity@@@8			; ioPlayEntity `RTTI Type Descriptor'
PUBLIC	?ToPlayEntity@@YAPAVioPlayEntity@@PAVioGameEntity@@@Z ; ToPlayEntity
;	COMDAT ??_R0?AVioGameEntity@@@8
; File d:\lost saga for developer\youtube\tutorial\source\src\lsclient\ioplayentity.h
_DATA	SEGMENT
??_R0?AVioGameEntity@@@8 DD FLAT:??_7type_info@@6B@	; ioGameEntity `RTTI Type Descriptor'
	DD	00H
	DB	'.?AVioGameEntity@@', 00H
_DATA	ENDS
;	COMDAT ??_R0?AVioPlayEntity@@@8
_DATA	SEGMENT
??_R0?AVioPlayEntity@@@8 DD FLAT:??_7type_info@@6B@	; ioPlayEntity `RTTI Type Descriptor'
	DD	00H
	DB	'.?AVioPlayEntity@@', 00H
; Function compile flags: /Ogsp
_DATA	ENDS
;	COMDAT ?ToPlayEntity@@YAPAVioPlayEntity@@PAVioGameEntity@@@Z
_TEXT	SEGMENT
_pObj$ = 8						; size = 4
?ToPlayEntity@@YAPAVioPlayEntity@@PAVioGameEntity@@@Z PROC ; ToPlayEntity, COMDAT

; 121  : {

  00000	55		 push	 ebp
  00001	8b ec		 mov	 ebp, esp
  00003	56		 push	 esi

; 122  : 	if( !pObj || pObj->GetTypeID() != ioGameEntity::GET_PLAY_ENTITY )

  00004	8b 75 08	 mov	 esi, DWORD PTR _pObj$[ebp]
  00007	85 f6		 test	 esi, esi
  00009	74 25		 je	 SHORT $LN1@ToPlayEnti
  0000b	8b 06		 mov	 eax, DWORD PTR [esi]
  0000d	8b ce		 mov	 ecx, esi
  0000f	ff 50 10	 call	 DWORD PTR [eax+16]
  00012	83 f8 01	 cmp	 eax, 1
  00015	75 19		 jne	 SHORT $LN1@ToPlayEnti

; 124  : 
; 125  : 	return dynamic_cast< ioPlayEntity* >( pObj );

  00017	6a 00		 push	 0
  00019	68 00 00 00 00	 push	 OFFSET ??_R0?AVioPlayEntity@@@8
  0001e	68 00 00 00 00	 push	 OFFSET ??_R0?AVioGameEntity@@@8
  00023	6a 00		 push	 0
  00025	56		 push	 esi
  00026	e8 00 00 00 00	 call	 ___RTDynamicCast
  0002b	83 c4 14	 add	 esp, 20			; 00000014H
  0002e	eb 02		 jmp	 SHORT $LN3@ToPlayEnti
$LN1@ToPlayEnti:

; 123  : 		return NULL;

  00030	33 c0		 xor	 eax, eax
$LN3@ToPlayEnti:
  00032	5e		 pop	 esi

; 126  : }

  00033	5d		 pop	 ebp
  00034	c3		 ret	 0
?ToPlayEntity@@YAPAVioPlayEntity@@PAVioGameEntity@@@Z ENDP ; ToPlayEntity
_TEXT	ENDS
PUBLIC	?GetItemCode@ioItem@@QBEKXZ			; ioItem::GetItemCode
; Function compile flags: /Ogsp
; File d:\lost saga for developer\youtube\tutorial\source\src\lsclient\ioitem.h
;	COMDAT ?GetItemCode@ioItem@@QBEKXZ
_TEXT	SEGMENT
?GetItemCode@ioItem@@QBEKXZ PROC			; ioItem::GetItemCode, COMDAT
; _this$ = ecx

; 264  : 	inline DWORD GetItemCode() const { return m_dwItemCode; }

  00000	8b 41 38	 mov	 eax, DWORD PTR [ecx+56]
  00003	c3		 ret	 0
?GetItemCode@ioItem@@QBEKXZ ENDP			; ioItem::GetItemCode
_TEXT	ENDS
PUBLIC	?GetSkillName@ioItem@@QBEABVioHashString@@XZ	; ioItem::GetSkillName
; Function compile flags: /Ogsp
;	COMDAT ?GetSkillName@ioItem@@QBEABVioHashString@@XZ
_TEXT	SEGMENT
?GetSkillName@ioItem@@QBEABVioHashString@@XZ PROC	; ioItem::GetSkillName, COMDAT
; _this$ = ecx

; 344  : 	inline const ioHashString& GetSkillName() const { return m_SkillName; }

  00000	8d 81 44 01 00
	00		 lea	 eax, DWORD PTR [ecx+324]
  00006	c3		 ret	 0
?GetSkillName@ioItem@@QBEABVioHashString@@XZ ENDP	; ioItem::GetSkillName
_TEXT	ENDS
PUBLIC	?GetMouse@ioApplication@@QAEPAVioLSMouse@@XZ	; ioApplication::GetMouse
; Function compile flags: /Ogsp
; File d:\lost saga for developer\youtube\tutorial\source\src\lsclient\ioapplication.h
;	COMDAT ?GetMouse@ioApplication@@QAEPAVioLSMouse@@XZ
_TEXT	SEGMENT
?GetMouse@ioApplication@@QAEPAVioLSMouse@@XZ PROC	; ioApplication::GetMouse, COMDAT
; _this$ = ecx

; 796  : 	inline ioLSMouse* GetMouse(){ return &m_Mouse;	}

  00000	8d 81 90 00 00
	00		 lea	 eax, DWORD PTR [ecx+144]
  00006	c3		 ret	 0
?GetMouse@ioApplication@@QAEPAVioLSMouse@@XZ ENDP	; ioApplication::GetMouse
_TEXT	ENDS
PUBLIC	??0tagCurPetInfo@@QAE@XZ			; tagCurPetInfo::tagCurPetInfo
; Function compile flags: /Ogsp
; File d:\lost saga for developer\youtube\tutorial\source\src\lsclient\petenumtype.h
;	COMDAT ??0tagCurPetInfo@@QAE@XZ
_TEXT	SEGMENT
??0tagCurPetInfo@@QAE@XZ PROC				; tagCurPetInfo::tagCurPetInfo, COMDAT
; _this$ = ecx

; 147  : 	tagCurPetInfo()

  00000	8b c1		 mov	 eax, ecx

; 148  : 	{
; 149  : 		m_nPetCode = 0;

  00002	33 c9		 xor	 ecx, ecx
  00004	89 08		 mov	 DWORD PTR [eax], ecx

; 150  : 		m_CurRankType = PRT_NONE;

  00006	89 48 04	 mov	 DWORD PTR [eax+4], ecx

; 151  : 		m_nCurLevel	= 0;

  00009	89 48 08	 mov	 DWORD PTR [eax+8], ecx

; 152  : 	}

  0000c	c3		 ret	 0
??0tagCurPetInfo@@QAE@XZ ENDP				; tagCurPetInfo::tagCurPetInfo
_TEXT	ENDS
PUBLIC	?GetPublicID@ioMyInfo@@QBEABVioHashString@@XZ	; ioMyInfo::GetPublicID
; Function compile flags: /Ogsp
; File d:\lost saga for developer\youtube\tutorial\source\src\lsclient\iomyinfo.h
;	COMDAT ?GetPublicID@ioMyInfo@@QBEABVioHashString@@XZ
_TEXT	SEGMENT
?GetPublicID@ioMyInfo@@QBEABVioHashString@@XZ PROC	; ioMyInfo::GetPublicID, COMDAT
; _this$ = ecx

; 517  : 	const ioHashString& GetPublicID() const { return m_user_data.m_public_id; }    

  00000	8d 41 1c	 lea	 eax, DWORD PTR [ecx+28]
  00003	c3		 ret	 0
?GetPublicID@ioMyInfo@@QBEABVioHashString@@XZ ENDP	; ioMyInfo::GetPublicID
_TEXT	ENDS
PUBLIC	?GetSelectCharArray@ioMyInfo@@QBEHXZ		; ioMyInfo::GetSelectCharArray
; Function compile flags: /Ogsp
;	COMDAT ?GetSelectCharArray@ioMyInfo@@QBEHXZ
_TEXT	SEGMENT
?GetSelectCharArray@ioMyInfo@@QBEHXZ PROC		; ioMyInfo::GetSelectCharArray, COMDAT
; _this$ = ecx

; 613  : 	int  GetSelectCharArray() const { return m_select_char_array; }

  00000	8b 81 c8 00 00
	00		 mov	 eax, DWORD PTR [ecx+200]
  00006	c3		 ret	 0
?GetSelectCharArray@ioMyInfo@@QBEHXZ ENDP		; ioMyInfo::GetSelectCharArray
_TEXT	ENDS
PUBLIC	?GetIconName@ioSkill@@QBEABVioHashString@@XZ	; ioSkill::GetIconName
; Function compile flags: /Ogsp
; File d:\lost saga for developer\youtube\tutorial\source\src\lsclient\ioskill.h
;	COMDAT ?GetIconName@ioSkill@@QBEABVioHashString@@XZ
_TEXT	SEGMENT
?GetIconName@ioSkill@@QBEABVioHashString@@XZ PROC	; ioSkill::GetIconName, COMDAT
; _this$ = ecx

; 419  : 	inline const ioHashString& GetIconName() const { return m_IconName; }

  00000	8d 81 c8 01 00
	00		 lea	 eax, DWORD PTR [ecx+456]
  00006	c3		 ret	 0
?GetIconName@ioSkill@@QBEABVioHashString@@XZ ENDP	; ioSkill::GetIconName
_TEXT	ENDS
PUBLIC	?GetMasterName@ioHeadquartersMode@@QAEAAVioHashString@@XZ ; ioHeadquartersMode::GetMasterName
; Function compile flags: /Ogsp
; File d:\lost saga for developer\youtube\tutorial\source\src\lsclient\ioheadquartersmode.h
;	COMDAT ?GetMasterName@ioHeadquartersMode@@QAEAAVioHashString@@XZ
_TEXT	SEGMENT
?GetMasterName@ioHeadquartersMode@@QAEAAVioHashString@@XZ PROC ; ioHeadquartersMode::GetMasterName, COMDAT
; _this$ = ecx

; 193  : 	inline ioHashString &GetMasterName(){ return m_szMasterName; }

  00000	8d 81 f4 04 00
	00		 lea	 eax, DWORD PTR [ecx+1268]
  00006	c3		 ret	 0
?GetMasterName@ioHeadquartersMode@@QAEAAVioHashString@@XZ ENDP ; ioHeadquartersMode::GetMasterName
_TEXT	ENDS
PUBLIC	?GetFixedFailReinforce@ioItemCompoundMaterialManager@@QBEHXZ ; ioItemCompoundMaterialManager::GetFixedFailReinforce
; Function compile flags: /Ogsp
; File d:\lost saga for developer\youtube\tutorial\source\src\lsclient\ioitemcompoundmaterialmanager.h
;	COMDAT ?GetFixedFailReinforce@ioItemCompoundMaterialManager@@QBEHXZ
_TEXT	SEGMENT
?GetFixedFailReinforce@ioItemCompoundMaterialManager@@QBEHXZ PROC ; ioItemCompoundMaterialManager::GetFixedFailReinforce, COMDAT
; _this$ = ecx

; 125  : 	inline int GetFixedFailReinforce() const { return m_nFixedFailReinforce; }

  00000	8b 41 4c	 mov	 eax, DWORD PTR [ecx+76]
  00003	c3		 ret	 0
?GetFixedFailReinforce@ioItemCompoundMaterialManager@@QBEHXZ ENDP ; ioItemCompoundMaterialManager::GetFixedFailReinforce
_TEXT	ENDS
PUBLIC	?size@?$basic_string@DU?$char_traits@D@std@@V?$allocator@D@2@@std@@QBEIXZ ; std::basic_string<char,std::char_traits<char>,std::allocator<char> >::size
; Function compile flags: /Ogsp
; File c:\program files (x86)\microsoft visual studio 10.0\vc\include\xstring
;	COMDAT ?size@?$basic_string@DU?$char_traits@D@std@@V?$allocator@D@2@@std@@QBEIXZ
_TEXT	SEGMENT
?size@?$basic_string@DU?$char_traits@D@std@@V?$allocator@D@2@@std@@QBEIXZ PROC ; std::basic_string<char,std::char_traits<char>,std::allocator<char> >::size, COMDAT
; _this$ = ecx

; 1512 : 		return (this->_Mysize);

  00000	8b 41 10	 mov	 eax, DWORD PTR [ecx+16]

; 1513 : 		}

  00003	c3		 ret	 0
?size@?$basic_string@DU?$char_traits@D@std@@V?$allocator@D@2@@std@@QBEIXZ ENDP ; std::basic_string<char,std::char_traits<char>,std::allocator<char> >::size
_TEXT	ENDS
PUBLIC	?size@?$vector@VioHashString@@V?$allocator@VioHashString@@@std@@@std@@QBEIXZ ; std::vector<ioHashString,std::allocator<ioHashString> >::size
; Function compile flags: /Ogsp
; File c:\program files (x86)\microsoft visual studio 10.0\vc\include\vector
;	COMDAT ?size@?$vector@VioHashString@@V?$allocator@VioHashString@@@std@@@std@@QBEIXZ
_TEXT	SEGMENT
?size@?$vector@VioHashString@@V?$allocator@VioHashString@@@std@@@std@@QBEIXZ PROC ; std::vector<ioHashString,std::allocator<ioHashString> >::size, COMDAT
; _this$ = ecx

; 879  : 		return (this->_Mylast - this->_Myfirst);

  00000	8b 41 04	 mov	 eax, DWORD PTR [ecx+4]
  00003	2b 01		 sub	 eax, DWORD PTR [ecx]
  00005	c1 f8 04	 sar	 eax, 4

; 880  : 		}

  00008	c3		 ret	 0
?size@?$vector@VioHashString@@V?$allocator@VioHashString@@@std@@@std@@QBEIXZ ENDP ; std::vector<ioHashString,std::allocator<ioHashString> >::size
_TEXT	ENDS
PUBLIC	?size@?$vector@HV?$allocator@H@std@@@std@@QBEIXZ ; std::vector<int,std::allocator<int> >::size
; Function compile flags: /Ogsp
;	COMDAT ?size@?$vector@HV?$allocator@H@std@@@std@@QBEIXZ
_TEXT	SEGMENT
?size@?$vector@HV?$allocator@H@std@@@std@@QBEIXZ PROC	; std::vector<int,std::allocator<int> >::size, COMDAT
; _this$ = ecx

; 879  : 		return (this->_Mylast - this->_Myfirst);

  00000	8b 41 04	 mov	 eax, DWORD PTR [ecx+4]
  00003	2b 01		 sub	 eax, DWORD PTR [ecx]
  00005	c1 f8 02	 sar	 eax, 2

; 880  : 		}

  00008	c3		 ret	 0
?size@?$vector@HV?$allocator@H@std@@@std@@QBEIXZ ENDP	; std::vector<int,std::allocator<int> >::size
_TEXT	ENDS
PUBLIC	??A?$vector@HV?$allocator@H@std@@@std@@QAEAAHI@Z ; std::vector<int,std::allocator<int> >::operator[]
; Function compile flags: /Ogsp
;	COMDAT ??A?$vector@HV?$allocator@H@std@@@std@@QAEAAHI@Z
_TEXT	SEGMENT
__Pos$ = 8						; size = 4
??A?$vector@HV?$allocator@H@std@@@std@@QAEAAHI@Z PROC	; std::vector<int,std::allocator<int> >::operator[], COMDAT
; _this$ = ecx

; 928  : 		{	// subscript mutable sequence

  00000	55		 push	 ebp
  00001	8b ec		 mov	 ebp, esp

; 929  :  #if _ITERATOR_DEBUG_LEVEL == 2
; 930  : 		if (size() <= _Pos)
; 931  : 			{	// report error
; 932  : 			_DEBUG_ERROR("vector subscript out of range");
; 933  : 			_SCL_SECURE_OUT_OF_RANGE;
; 934  : 			}
; 935  : 
; 936  :  #elif _ITERATOR_DEBUG_LEVEL == 1
; 937  : 		_SCL_SECURE_VALIDATE_RANGE(_Pos < size());
; 938  :  #endif /* _ITERATOR_DEBUG_LEVEL */
; 939  : 
; 940  : 		return (*(this->_Myfirst + _Pos));

  00003	8b 01		 mov	 eax, DWORD PTR [ecx]
  00005	8b 4d 08	 mov	 ecx, DWORD PTR __Pos$[ebp]
  00008	8d 04 88	 lea	 eax, DWORD PTR [eax+ecx*4]

; 941  : 		}

  0000b	5d		 pop	 ebp
  0000c	c2 04 00	 ret	 4
??A?$vector@HV?$allocator@H@std@@@std@@QAEAAHI@Z ENDP	; std::vector<int,std::allocator<int> >::operator[]
_TEXT	ENDS
PUBLIC	?size@?$vector@KV?$allocator@K@std@@@std@@QBEIXZ ; std::vector<unsigned long,std::allocator<unsigned long> >::size
; Function compile flags: /Ogsp
;	COMDAT ?size@?$vector@KV?$allocator@K@std@@@std@@QBEIXZ
_TEXT	SEGMENT
?size@?$vector@KV?$allocator@K@std@@@std@@QBEIXZ PROC	; std::vector<unsigned long,std::allocator<unsigned long> >::size, COMDAT
; _this$ = ecx

; 879  : 		return (this->_Mylast - this->_Myfirst);

  00000	8b 41 04	 mov	 eax, DWORD PTR [ecx+4]
  00003	2b 01		 sub	 eax, DWORD PTR [ecx]
  00005	c1 f8 02	 sar	 eax, 2

; 880  : 		}

  00008	c3		 ret	 0
?size@?$vector@KV?$allocator@K@std@@@std@@QBEIXZ ENDP	; std::vector<unsigned long,std::allocator<unsigned long> >::size
_TEXT	ENDS
PUBLIC	??A?$vector@KV?$allocator@K@std@@@std@@QAEAAKI@Z ; std::vector<unsigned long,std::allocator<unsigned long> >::operator[]
; Function compile flags: /Ogsp
;	COMDAT ??A?$vector@KV?$allocator@K@std@@@std@@QAEAAKI@Z
_TEXT	SEGMENT
__Pos$ = 8						; size = 4
??A?$vector@KV?$allocator@K@std@@@std@@QAEAAKI@Z PROC	; std::vector<unsigned long,std::allocator<unsigned long> >::operator[], COMDAT
; _this$ = ecx

; 928  : 		{	// subscript mutable sequence

  00000	55		 push	 ebp
  00001	8b ec		 mov	 ebp, esp

; 929  :  #if _ITERATOR_DEBUG_LEVEL == 2
; 930  : 		if (size() <= _Pos)
; 931  : 			{	// report error
; 932  : 			_DEBUG_ERROR("vector subscript out of range");
; 933  : 			_SCL_SECURE_OUT_OF_RANGE;
; 934  : 			}
; 935  : 
; 936  :  #elif _ITERATOR_DEBUG_LEVEL == 1
; 937  : 		_SCL_SECURE_VALIDATE_RANGE(_Pos < size());
; 938  :  #endif /* _ITERATOR_DEBUG_LEVEL */
; 939  : 
; 940  : 		return (*(this->_Myfirst + _Pos));

  00003	8b 01		 mov	 eax, DWORD PTR [ecx]
  00005	8b 4d 08	 mov	 ecx, DWORD PTR __Pos$[ebp]
  00008	8d 04 88	 lea	 eax, DWORD PTR [eax+ecx*4]

; 941  : 		}

  0000b	5d		 pop	 ebp
  0000c	c2 04 00	 ret	 4
??A?$vector@KV?$allocator@K@std@@@std@@QAEAAKI@Z ENDP	; std::vector<unsigned long,std::allocator<unsigned long> >::operator[]
_TEXT	ENDS
PUBLIC	?_Myptr@?$basic_string@DU?$char_traits@D@std@@V?$allocator@D@2@@std@@QBEPBDXZ ; std::basic_string<char,std::char_traits<char>,std::allocator<char> >::_Myptr
; Function compile flags: /Ogsp
; File c:\program files (x86)\microsoft visual studio 10.0\vc\include\xstring
;	COMDAT ?_Myptr@?$basic_string@DU?$char_traits@D@std@@V?$allocator@D@2@@std@@QBEPBDXZ
_TEXT	SEGMENT
?_Myptr@?$basic_string@DU?$char_traits@D@std@@V?$allocator@D@2@@std@@QBEPBDXZ PROC ; std::basic_string<char,std::char_traits<char>,std::allocator<char> >::_Myptr, COMDAT
; _this$ = ecx

; 2010 : 		return (this->_BUF_SIZE <= this->_Myres ? this->_Bx._Ptr
; 2011 : 			: this->_Bx._Buf);

  00000	83 79 14 10	 cmp	 DWORD PTR [ecx+20], 16	; 00000010H
  00004	72 03		 jb	 SHORT $LN3@Myptr
  00006	8b 01		 mov	 eax, DWORD PTR [ecx]

; 2012 : 		}

  00008	c3		 ret	 0
$LN3@Myptr:

; 2010 : 		return (this->_BUF_SIZE <= this->_Myres ? this->_Bx._Ptr
; 2011 : 			: this->_Bx._Buf);

  00009	8b c1		 mov	 eax, ecx

; 2012 : 		}

  0000b	c3		 ret	 0
?_Myptr@?$basic_string@DU?$char_traits@D@std@@V?$allocator@D@2@@std@@QBEPBDXZ ENDP ; std::basic_string<char,std::char_traits<char>,std::allocator<char> >::_Myptr
_TEXT	ENDS
PUBLIC	??1?$_String_val@DV?$allocator@D@std@@@std@@QAE@XZ ; std::_String_val<char,std::allocator<char> >::~_String_val<char,std::allocator<char> >
; Function compile flags: /Ogsp
;	COMDAT ??1?$_String_val@DV?$allocator@D@std@@@std@@QAE@XZ
_TEXT	SEGMENT
??1?$_String_val@DV?$allocator@D@std@@@std@@QAE@XZ PROC	; std::_String_val<char,std::allocator<char> >::~_String_val<char,std::allocator<char> >, COMDAT
; _this$ = ecx

; 459  : 		}

  00000	c3		 ret	 0
??1?$_String_val@DV?$allocator@D@std@@@std@@QAE@XZ ENDP	; std::_String_val<char,std::allocator<char> >::~_String_val<char,std::allocator<char> >
_TEXT	ENDS
PUBLIC	??0?$allocator@D@std@@QAE@ABV01@@Z		; std::allocator<char>::allocator<char>
; Function compile flags: /Ogsp
; File c:\program files (x86)\microsoft visual studio 10.0\vc\include\xmemory
;	COMDAT ??0?$allocator@D@std@@QAE@ABV01@@Z
_TEXT	SEGMENT
___formal$ = 8						; size = 4
??0?$allocator@D@std@@QAE@ABV01@@Z PROC			; std::allocator<char>::allocator<char>, COMDAT
; _this$ = ecx

; 165  : 	_ALLOCATOR(const _ALLOCATOR<_Ty>&) _THROW0()

  00000	8b c1		 mov	 eax, ecx

; 166  : 		{	// construct by copying (do nothing)
; 167  : 		}

  00002	c2 04 00	 ret	 4
??0?$allocator@D@std@@QAE@ABV01@@Z ENDP			; std::allocator<char>::allocator<char>
_TEXT	ENDS
PUBLIC	??0?$allocator@H@std@@QAE@XZ			; std::allocator<int>::allocator<int>
; Function compile flags: /Ogsp
;	COMDAT ??0?$allocator@H@std@@QAE@XZ
_TEXT	SEGMENT
??0?$allocator@H@std@@QAE@XZ PROC			; std::allocator<int>::allocator<int>, COMDAT
; _this$ = ecx

; 161  : 	_ALLOCATOR() _THROW0()

  00000	8b c1		 mov	 eax, ecx

; 162  : 		{	// construct default allocator (do nothing)
; 163  : 		}

  00002	c3		 ret	 0
??0?$allocator@H@std@@QAE@XZ ENDP			; std::allocator<int>::allocator<int>
_TEXT	ENDS
PUBLIC	??1?$_Vector_val@VioHashString@@V?$allocator@VioHashString@@@std@@@std@@QAE@XZ ; std::_Vector_val<ioHashString,std::allocator<ioHashString> >::~_Vector_val<ioHashString,std::allocator<ioHashString> >
; Function compile flags: /Ogsp
; File c:\program files (x86)\microsoft visual studio 10.0\vc\include\vector
;	COMDAT ??1?$_Vector_val@VioHashString@@V?$allocator@VioHashString@@@std@@@std@@QAE@XZ
_TEXT	SEGMENT
??1?$_Vector_val@VioHashString@@V?$allocator@VioHashString@@@std@@@std@@QAE@XZ PROC ; std::_Vector_val<ioHashString,std::allocator<ioHashString> >::~_Vector_val<ioHashString,std::allocator<ioHashString> >, COMDAT
; _this$ = ecx

; 434  : 		}

  00000	c3		 ret	 0
??1?$_Vector_val@VioHashString@@V?$allocator@VioHashString@@@std@@@std@@QAE@XZ ENDP ; std::_Vector_val<ioHashString,std::allocator<ioHashString> >::~_Vector_val<ioHashString,std::allocator<ioHashString> >
_TEXT	ENDS
PUBLIC	??0?$allocator@VioHashString@@@std@@QAE@XZ	; std::allocator<ioHashString>::allocator<ioHashString>
; Function compile flags: /Ogsp
; File c:\program files (x86)\microsoft visual studio 10.0\vc\include\xmemory
;	COMDAT ??0?$allocator@VioHashString@@@std@@QAE@XZ
_TEXT	SEGMENT
??0?$allocator@VioHashString@@@std@@QAE@XZ PROC		; std::allocator<ioHashString>::allocator<ioHashString>, COMDAT
; _this$ = ecx

; 161  : 	_ALLOCATOR() _THROW0()

  00000	8b c1		 mov	 eax, ecx

; 162  : 		{	// construct default allocator (do nothing)
; 163  : 		}

  00002	c3		 ret	 0
??0?$allocator@VioHashString@@@std@@QAE@XZ ENDP		; std::allocator<ioHashString>::allocator<ioHashString>
_TEXT	ENDS
PUBLIC	??0?$allocator@VioHashString@@@std@@QAE@ABV01@@Z ; std::allocator<ioHashString>::allocator<ioHashString>
; Function compile flags: /Ogsp
;	COMDAT ??0?$allocator@VioHashString@@@std@@QAE@ABV01@@Z
_TEXT	SEGMENT
___formal$ = 8						; size = 4
??0?$allocator@VioHashString@@@std@@QAE@ABV01@@Z PROC	; std::allocator<ioHashString>::allocator<ioHashString>, COMDAT
; _this$ = ecx

; 165  : 	_ALLOCATOR(const _ALLOCATOR<_Ty>&) _THROW0()

  00000	8b c1		 mov	 eax, ecx

; 166  : 		{	// construct by copying (do nothing)
; 167  : 		}

  00002	c2 04 00	 ret	 4
??0?$allocator@VioHashString@@@std@@QAE@ABV01@@Z ENDP	; std::allocator<ioHashString>::allocator<ioHashString>
_TEXT	ENDS
PUBLIC	??1?$_Vector_val@HV?$allocator@H@std@@@std@@QAE@XZ ; std::_Vector_val<int,std::allocator<int> >::~_Vector_val<int,std::allocator<int> >
; Function compile flags: /Ogsp
; File c:\program files (x86)\microsoft visual studio 10.0\vc\include\vector
;	COMDAT ??1?$_Vector_val@HV?$allocator@H@std@@@std@@QAE@XZ
_TEXT	SEGMENT
??1?$_Vector_val@HV?$allocator@H@std@@@std@@QAE@XZ PROC	; std::_Vector_val<int,std::allocator<int> >::~_Vector_val<int,std::allocator<int> >, COMDAT
; _this$ = ecx

; 434  : 		}

  00000	c3		 ret	 0
??1?$_Vector_val@HV?$allocator@H@std@@@std@@QAE@XZ ENDP	; std::_Vector_val<int,std::allocator<int> >::~_Vector_val<int,std::allocator<int> >
_TEXT	ENDS
PUBLIC	?DecryptValueToPool@?$CEncrypt@H@@QAEXPAH@Z	; CEncrypt<int>::DecryptValueToPool
EXTRN	?DecryptByte@ccddaabb@@QBEXPBDPADH@Z:PROC	; ccddaabb::DecryptByte
; Function compile flags: /Ogsp
; File d:\lost saga for developer\youtube\tutorial\source\src\lsclient\encryptvalue.h
;	COMDAT ?DecryptValueToPool@?$CEncrypt@H@@QAEXPAH@Z
_TEXT	SEGMENT
_value$ = 8						; size = 4
?DecryptValueToPool@?$CEncrypt@H@@QAEXPAH@Z PROC	; CEncrypt<int>::DecryptValueToPool, COMDAT
; _this$ = ecx

; 837  : 	{

  00000	55		 push	 ebp
  00001	8b ec		 mov	 ebp, esp
  00003	56		 push	 esi

; 838  : 		m_RC5.DecryptByte( m_MemPool, m_TempMem, 4 );

  00004	8d 71 28	 lea	 esi, DWORD PTR [ecx+40]
  00007	6a 04		 push	 4
  00009	8d 41 1c	 lea	 eax, DWORD PTR [ecx+28]
  0000c	56		 push	 esi
  0000d	50		 push	 eax
  0000e	83 c1 0c	 add	 ecx, 12			; 0000000cH
  00011	e8 00 00 00 00	 call	 ?DecryptByte@ccddaabb@@QBEXPBDPADH@Z ; ccddaabb::DecryptByte

; 839  : 		*value = *((int*)m_TempMem);

  00016	8b 06		 mov	 eax, DWORD PTR [esi]
  00018	8b 4d 08	 mov	 ecx, DWORD PTR _value$[ebp]
  0001b	89 01		 mov	 DWORD PTR [ecx], eax
  0001d	5e		 pop	 esi

; 840  : 	}

  0001e	5d		 pop	 ebp
  0001f	c2 04 00	 ret	 4
?DecryptValueToPool@?$CEncrypt@H@@QAEXPAH@Z ENDP	; CEncrypt<int>::DecryptValueToPool
_TEXT	ENDS
PUBLIC	?_Inside@?$vector@KV?$allocator@K@std@@@std@@IBE_NPBK@Z ; std::vector<unsigned long,std::allocator<unsigned long> >::_Inside
; Function compile flags: /Ogsp
; File c:\program files (x86)\microsoft visual studio 10.0\vc\include\vector
;	COMDAT ?_Inside@?$vector@KV?$allocator@K@std@@@std@@IBE_NPBK@Z
_TEXT	SEGMENT
__Ptr$ = 8						; size = 4
?_Inside@?$vector@KV?$allocator@K@std@@@std@@IBE_NPBK@Z PROC ; std::vector<unsigned long,std::allocator<unsigned long> >::_Inside, COMDAT
; _this$ = ecx

; 1285 : 		{	// test if _Ptr points inside vector

  00000	55		 push	 ebp
  00001	8b ec		 mov	 ebp, esp

; 1286 : 		return (_Ptr < this->_Mylast && this->_Myfirst <= _Ptr);

  00003	8b 45 08	 mov	 eax, DWORD PTR __Ptr$[ebp]
  00006	3b 41 04	 cmp	 eax, DWORD PTR [ecx+4]
  00009	73 09		 jae	 SHORT $LN3@Inside@4
  0000b	39 01		 cmp	 DWORD PTR [ecx], eax
  0000d	77 05		 ja	 SHORT $LN3@Inside@4
  0000f	33 c0		 xor	 eax, eax
  00011	40		 inc	 eax
  00012	eb 02		 jmp	 SHORT $LN4@Inside@4
$LN3@Inside@4:
  00014	33 c0		 xor	 eax, eax
$LN4@Inside@4:

; 1287 : 		}

  00016	5d		 pop	 ebp
  00017	c2 04 00	 ret	 4
?_Inside@?$vector@KV?$allocator@K@std@@@std@@IBE_NPBK@Z ENDP ; std::vector<unsigned long,std::allocator<unsigned long> >::_Inside
_TEXT	ENDS
PUBLIC	?_Orphan_range@?$vector@KV?$allocator@K@std@@@std@@IBEXPAK0@Z ; std::vector<unsigned long,std::allocator<unsigned long> >::_Orphan_range
; Function compile flags: /Ogsp
;	COMDAT ?_Orphan_range@?$vector@KV?$allocator@K@std@@@std@@IBEXPAK0@Z
_TEXT	SEGMENT
___formal$ = 8						; size = 4
___formal$ = 12						; size = 4
?_Orphan_range@?$vector@KV?$allocator@K@std@@@std@@IBEXPAK0@Z PROC ; std::vector<unsigned long,std::allocator<unsigned long> >::_Orphan_range, COMDAT
; _this$ = ecx

; 1454 : 		}

  00000	c2 08 00	 ret	 8
?_Orphan_range@?$vector@KV?$allocator@K@std@@@std@@IBEXPAK0@Z ENDP ; std::vector<unsigned long,std::allocator<unsigned long> >::_Orphan_range
_TEXT	ENDS
PUBLIC	??1?$_Vector_val@KV?$allocator@K@std@@@std@@QAE@XZ ; std::_Vector_val<unsigned long,std::allocator<unsigned long> >::~_Vector_val<unsigned long,std::allocator<unsigned long> >
; Function compile flags: /Ogsp
;	COMDAT ??1?$_Vector_val@KV?$allocator@K@std@@@std@@QAE@XZ
_TEXT	SEGMENT
??1?$_Vector_val@KV?$allocator@K@std@@@std@@QAE@XZ PROC	; std::_Vector_val<unsigned long,std::allocator<unsigned long> >::~_Vector_val<unsigned long,std::allocator<unsigned long> >, COMDAT
; _this$ = ecx

; 434  : 		}

  00000	c3		 ret	 0
??1?$_Vector_val@KV?$allocator@K@std@@@std@@QAE@XZ ENDP	; std::_Vector_val<unsigned long,std::allocator<unsigned long> >::~_Vector_val<unsigned long,std::allocator<unsigned long> >
_TEXT	ENDS
PUBLIC	??0?$allocator@K@std@@QAE@XZ			; std::allocator<unsigned long>::allocator<unsigned long>
; Function compile flags: /Ogsp
; File c:\program files (x86)\microsoft visual studio 10.0\vc\include\xmemory
;	COMDAT ??0?$allocator@K@std@@QAE@XZ
_TEXT	SEGMENT
??0?$allocator@K@std@@QAE@XZ PROC			; std::allocator<unsigned long>::allocator<unsigned long>, COMDAT
; _this$ = ecx

; 161  : 	_ALLOCATOR() _THROW0()

  00000	8b c1		 mov	 eax, ecx

; 162  : 		{	// construct default allocator (do nothing)
; 163  : 		}

  00002	c3		 ret	 0
??0?$allocator@K@std@@QAE@XZ ENDP			; std::allocator<unsigned long>::allocator<unsigned long>
_TEXT	ENDS
PUBLIC	?DecryptValueToPool@?$CEncrypt@W4ModeType@@@@QAEXPAW4ModeType@@@Z ; CEncrypt<enum ModeType>::DecryptValueToPool
; Function compile flags: /Ogsp
; File d:\lost saga for developer\youtube\tutorial\source\src\lsclient\encryptvalue.h
;	COMDAT ?DecryptValueToPool@?$CEncrypt@W4ModeType@@@@QAEXPAW4ModeType@@@Z
_TEXT	SEGMENT
_value$ = 8						; size = 4
?DecryptValueToPool@?$CEncrypt@W4ModeType@@@@QAEXPAW4ModeType@@@Z PROC ; CEncrypt<enum ModeType>::DecryptValueToPool, COMDAT
; _this$ = ecx

; 3039 : 	{

  00000	55		 push	 ebp
  00001	8b ec		 mov	 ebp, esp
  00003	56		 push	 esi

; 3040 : 		m_RC5.DecryptByte( m_MemPool, m_TempMem, sizeof(ModeType) );

  00004	8d 71 28	 lea	 esi, DWORD PTR [ecx+40]
  00007	6a 04		 push	 4
  00009	8d 41 1c	 lea	 eax, DWORD PTR [ecx+28]
  0000c	56		 push	 esi
  0000d	50		 push	 eax
  0000e	83 c1 0c	 add	 ecx, 12			; 0000000cH
  00011	e8 00 00 00 00	 call	 ?DecryptByte@ccddaabb@@QBEXPBDPADH@Z ; ccddaabb::DecryptByte

; 3041 : 		*value = *((ModeType*)m_TempMem);

  00016	8b 06		 mov	 eax, DWORD PTR [esi]
  00018	8b 4d 08	 mov	 ecx, DWORD PTR _value$[ebp]
  0001b	89 01		 mov	 DWORD PTR [ecx], eax
  0001d	5e		 pop	 esi

; 3042 : 	}

  0001e	5d		 pop	 ebp
  0001f	c2 04 00	 ret	 4
?DecryptValueToPool@?$CEncrypt@W4ModeType@@@@QAEXPAW4ModeType@@@Z ENDP ; CEncrypt<enum ModeType>::DecryptValueToPool
_TEXT	ENDS
PUBLIC	??0?$_Vector_const_iterator@V?$_Vector_val@HV?$allocator@H@std@@@std@@@std@@QAE@PAHPBU_Container_base0@1@@Z ; std::_Vector_const_iterator<std::_Vector_val<int,std::allocator<int> > >::_Vector_const_iterator<std::_Vector_val<int,std::allocator<int> > >
; Function compile flags: /Ogsp
; File c:\program files (x86)\microsoft visual studio 10.0\vc\include\vector
;	COMDAT ??0?$_Vector_const_iterator@V?$_Vector_val@HV?$allocator@H@std@@@std@@@std@@QAE@PAHPBU_Container_base0@1@@Z
_TEXT	SEGMENT
__Parg$ = 8						; size = 4
__Pvector$ = 12						; size = 4
??0?$_Vector_const_iterator@V?$_Vector_val@HV?$allocator@H@std@@@std@@@std@@QAE@PAHPBU_Container_base0@1@@Z PROC ; std::_Vector_const_iterator<std::_Vector_val<int,std::allocator<int> > >::_Vector_const_iterator<std::_Vector_val<int,std::allocator<int> > >, COMDAT
; _this$ = ecx

; 45   : 		{	// construct with pointer _Parg

  00000	55		 push	 ebp
  00001	8b ec		 mov	 ebp, esp
  00003	8b c1		 mov	 eax, ecx
  00005	8b 4d 08	 mov	 ecx, DWORD PTR __Parg$[ebp]
  00008	89 08		 mov	 DWORD PTR [eax], ecx

; 46   : 		this->_Adopt(_Pvector);
; 47   : 		}

  0000a	5d		 pop	 ebp
  0000b	c2 08 00	 ret	 8
??0?$_Vector_const_iterator@V?$_Vector_val@HV?$allocator@H@std@@@std@@@std@@QAE@PAHPBU_Container_base0@1@@Z ENDP ; std::_Vector_const_iterator<std::_Vector_val<int,std::allocator<int> > >::_Vector_const_iterator<std::_Vector_val<int,std::allocator<int> > >
_TEXT	ENDS
PUBLIC	??0?$_Vector_iterator@V?$_Vector_val@HV?$allocator@H@std@@@std@@@std@@QAE@PAHPBU_Container_base0@1@@Z ; std::_Vector_iterator<std::_Vector_val<int,std::allocator<int> > >::_Vector_iterator<std::_Vector_val<int,std::allocator<int> > >
; Function compile flags: /Ogsp
;	COMDAT ??0?$_Vector_iterator@V?$_Vector_val@HV?$allocator@H@std@@@std@@@std@@QAE@PAHPBU_Container_base0@1@@Z
_TEXT	SEGMENT
__Parg$ = 8						; size = 4
__Pvector$ = 12						; size = 4
??0?$_Vector_iterator@V?$_Vector_val@HV?$allocator@H@std@@@std@@@std@@QAE@PAHPBU_Container_base0@1@@Z PROC ; std::_Vector_iterator<std::_Vector_val<int,std::allocator<int> > >::_Vector_iterator<std::_Vector_val<int,std::allocator<int> > >, COMDAT
; _this$ = ecx

; 304  : 		{	// construct with pointer _Parg

  00000	55		 push	 ebp
  00001	8b ec		 mov	 ebp, esp
  00003	8b c1		 mov	 eax, ecx
  00005	8b 4d 08	 mov	 ecx, DWORD PTR __Parg$[ebp]
  00008	89 08		 mov	 DWORD PTR [eax], ecx

; 305  : 		}

  0000a	5d		 pop	 ebp
  0000b	c2 08 00	 ret	 8
??0?$_Vector_iterator@V?$_Vector_val@HV?$allocator@H@std@@@std@@@std@@QAE@PAHPBU_Container_base0@1@@Z ENDP ; std::_Vector_iterator<std::_Vector_val<int,std::allocator<int> > >::_Vector_iterator<std::_Vector_val<int,std::allocator<int> > >
_TEXT	ENDS
PUBLIC	?_Myptr@?$basic_string@DU?$char_traits@D@std@@V?$allocator@D@2@@std@@QAEPADXZ ; std::basic_string<char,std::char_traits<char>,std::allocator<char> >::_Myptr
; Function compile flags: /Ogsp
; File c:\program files (x86)\microsoft visual studio 10.0\vc\include\xstring
;	COMDAT ?_Myptr@?$basic_string@DU?$char_traits@D@std@@V?$allocator@D@2@@std@@QAEPADXZ
_TEXT	SEGMENT
?_Myptr@?$basic_string@DU?$char_traits@D@std@@V?$allocator@D@2@@std@@QAEPADXZ PROC ; std::basic_string<char,std::char_traits<char>,std::allocator<char> >::_Myptr, COMDAT
; _this$ = ecx

; 2004 : 		return (this->_BUF_SIZE <= this->_Myres ? this->_Bx._Ptr
; 2005 : 			: this->_Bx._Buf);

  00000	83 79 14 10	 cmp	 DWORD PTR [ecx+20], 16	; 00000010H
  00004	72 03		 jb	 SHORT $LN3@Myptr@2
  00006	8b 01		 mov	 eax, DWORD PTR [ecx]

; 2006 : 		}

  00008	c3		 ret	 0
$LN3@Myptr@2:

; 2004 : 		return (this->_BUF_SIZE <= this->_Myres ? this->_Bx._Ptr
; 2005 : 			: this->_Bx._Buf);

  00009	8b c1		 mov	 eax, ecx

; 2006 : 		}

  0000b	c3		 ret	 0
?_Myptr@?$basic_string@DU?$char_traits@D@std@@V?$allocator@D@2@@std@@QAEPADXZ ENDP ; std::basic_string<char,std::char_traits<char>,std::allocator<char> >::_Myptr
_TEXT	ENDS
PUBLIC	??_C@_0BA@JFNIOLAK@string?5too?5long?$AA@	; `string'
PUBLIC	?_Xlen@?$basic_string@DU?$char_traits@D@std@@V?$allocator@D@2@@std@@QBEXXZ ; std::basic_string<char,std::char_traits<char>,std::allocator<char> >::_Xlen
;	COMDAT ??_C@_0BA@JFNIOLAK@string?5too?5long?$AA@
CONST	SEGMENT
??_C@_0BA@JFNIOLAK@string?5too?5long?$AA@ DB 'string too long', 00H ; `string'
; Function compile flags: /Ogsp
CONST	ENDS
;	COMDAT ?_Xlen@?$basic_string@DU?$char_traits@D@std@@V?$allocator@D@2@@std@@QBEXXZ
_TEXT	SEGMENT
?_Xlen@?$basic_string@DU?$char_traits@D@std@@V?$allocator@D@2@@std@@QBEXXZ PROC ; std::basic_string<char,std::char_traits<char>,std::allocator<char> >::_Xlen, COMDAT
; _this$ = ecx

; 2016 : 		_Xlength_error("string too long");

  00000	68 00 00 00 00	 push	 OFFSET ??_C@_0BA@JFNIOLAK@string?5too?5long?$AA@
  00005	ff 15 00 00 00
	00		 call	 DWORD PTR __imp_?_Xlength_error@std@@YAXPBD@Z
$LN4@Xlen@2:
$LN3@Xlen@2:
  0000b	cc		 int	 3
?_Xlen@?$basic_string@DU?$char_traits@D@std@@V?$allocator@D@2@@std@@QBEXXZ ENDP ; std::basic_string<char,std::char_traits<char>,std::allocator<char> >::_Xlen
_TEXT	ENDS
PUBLIC	??_C@_0BI@CFPLBAOH@invalid?5string?5position?$AA@ ; `string'
PUBLIC	?_Xran@?$basic_string@DU?$char_traits@D@std@@V?$allocator@D@2@@std@@QBEXXZ ; std::basic_string<char,std::char_traits<char>,std::allocator<char> >::_Xran
EXTRN	__imp_?_Xout_of_range@std@@YAXPBD@Z:PROC
;	COMDAT ??_C@_0BI@CFPLBAOH@invalid?5string?5position?$AA@
CONST	SEGMENT
??_C@_0BI@CFPLBAOH@invalid?5string?5position?$AA@ DB 'invalid string posi'
	DB	'tion', 00H					; `string'
; Function compile flags: /Ogsp
CONST	ENDS
;	COMDAT ?_Xran@?$basic_string@DU?$char_traits@D@std@@V?$allocator@D@2@@std@@QBEXXZ
_TEXT	SEGMENT
?_Xran@?$basic_string@DU?$char_traits@D@std@@V?$allocator@D@2@@std@@QBEXXZ PROC ; std::basic_string<char,std::char_traits<char>,std::allocator<char> >::_Xran, COMDAT
; _this$ = ecx

; 2021 : 		_Xout_of_range("invalid string position");

  00000	68 00 00 00 00	 push	 OFFSET ??_C@_0BI@CFPLBAOH@invalid?5string?5position?$AA@
  00005	ff 15 00 00 00
	00		 call	 DWORD PTR __imp_?_Xout_of_range@std@@YAXPBD@Z
$LN4@Xran:
$LN3@Xran:
  0000b	cc		 int	 3
?_Xran@?$basic_string@DU?$char_traits@D@std@@V?$allocator@D@2@@std@@QBEXXZ ENDP ; std::basic_string<char,std::char_traits<char>,std::allocator<char> >::_Xran
_TEXT	ENDS
PUBLIC	?deallocate@?$allocator@D@std@@QAEXPADI@Z	; std::allocator<char>::deallocate
; Function compile flags: /Ogsp
; File c:\program files (x86)\microsoft visual studio 10.0\vc\include\xmemory
;	COMDAT ?deallocate@?$allocator@D@std@@QAEXPADI@Z
_TEXT	SEGMENT
__Ptr$ = 8						; size = 4
___formal$ = 12						; size = 4
?deallocate@?$allocator@D@std@@QAEXPADI@Z PROC		; std::allocator<char>::deallocate, COMDAT
; _this$ = ecx

; 181  : 		{	// deallocate object at _Ptr, ignore size

  00000	55		 push	 ebp
  00001	8b ec		 mov	 ebp, esp

; 182  : 		::operator delete(_Ptr);

  00003	ff 75 08	 push	 DWORD PTR __Ptr$[ebp]
  00006	e8 00 00 00 00	 call	 ??3@YAXPAX@Z		; operator delete
  0000b	59		 pop	 ecx

; 183  : 		}

  0000c	5d		 pop	 ebp
  0000d	c2 08 00	 ret	 8
?deallocate@?$allocator@D@std@@QAEXPADI@Z ENDP		; std::allocator<char>::deallocate
_TEXT	ENDS
PUBLIC	??0?$allocator@H@std@@QAE@ABV01@@Z		; std::allocator<int>::allocator<int>
; Function compile flags: /Ogsp
;	COMDAT ??0?$allocator@H@std@@QAE@ABV01@@Z
_TEXT	SEGMENT
___formal$ = 8						; size = 4
??0?$allocator@H@std@@QAE@ABV01@@Z PROC			; std::allocator<int>::allocator<int>, COMDAT
; _this$ = ecx

; 165  : 	_ALLOCATOR(const _ALLOCATOR<_Ty>&) _THROW0()

  00000	8b c1		 mov	 eax, ecx

; 166  : 		{	// construct by copying (do nothing)
; 167  : 		}

  00002	c2 04 00	 ret	 4
??0?$allocator@H@std@@QAE@ABV01@@Z ENDP			; std::allocator<int>::allocator<int>
_TEXT	ENDS
PUBLIC	?deallocate@?$allocator@H@std@@QAEXPAHI@Z	; std::allocator<int>::deallocate
; Function compile flags: /Ogsp
;	COMDAT ?deallocate@?$allocator@H@std@@QAEXPAHI@Z
_TEXT	SEGMENT
__Ptr$ = 8						; size = 4
___formal$ = 12						; size = 4
?deallocate@?$allocator@H@std@@QAEXPAHI@Z PROC		; std::allocator<int>::deallocate, COMDAT
; _this$ = ecx

; 181  : 		{	// deallocate object at _Ptr, ignore size

  00000	55		 push	 ebp
  00001	8b ec		 mov	 ebp, esp

; 182  : 		::operator delete(_Ptr);

  00003	ff 75 08	 push	 DWORD PTR __Ptr$[ebp]
  00006	e8 00 00 00 00	 call	 ??3@YAXPAX@Z		; operator delete
  0000b	59		 pop	 ecx

; 183  : 		}

  0000c	5d		 pop	 ebp
  0000d	c2 08 00	 ret	 8
?deallocate@?$allocator@H@std@@QAEXPAHI@Z ENDP		; std::allocator<int>::deallocate
_TEXT	ENDS
PUBLIC	?_Xlen@?$vector@VioHashString@@V?$allocator@VioHashString@@@std@@@std@@IBEXXZ ; std::vector<ioHashString,std::allocator<ioHashString> >::_Xlen
; Function compile flags: /Ogsp
; File c:\program files (x86)\microsoft visual studio 10.0\vc\include\vector
;	COMDAT ?_Xlen@?$vector@VioHashString@@V?$allocator@VioHashString@@@std@@@std@@IBEXXZ
_TEXT	SEGMENT
?_Xlen@?$vector@VioHashString@@V?$allocator@VioHashString@@@std@@@std@@IBEXXZ PROC ; std::vector<ioHashString,std::allocator<ioHashString> >::_Xlen, COMDAT
; _this$ = ecx

; 1427 : 		_Xlength_error("vector<T> too long");

  00000	68 00 00 00 00	 push	 OFFSET ??_C@_0BD@OLBABOEK@vector?$DMT?$DO?5too?5long?$AA@
  00005	ff 15 00 00 00
	00		 call	 DWORD PTR __imp_?_Xlength_error@std@@YAXPBD@Z
$LN4@Xlen@3:
$LN3@Xlen@3:
  0000b	cc		 int	 3
?_Xlen@?$vector@VioHashString@@V?$allocator@VioHashString@@@std@@@std@@IBEXXZ ENDP ; std::vector<ioHashString,std::allocator<ioHashString> >::_Xlen
_TEXT	ENDS
PUBLIC	?deallocate@?$allocator@VioHashString@@@std@@QAEXPAVioHashString@@I@Z ; std::allocator<ioHashString>::deallocate
; Function compile flags: /Ogsp
; File c:\program files (x86)\microsoft visual studio 10.0\vc\include\xmemory
;	COMDAT ?deallocate@?$allocator@VioHashString@@@std@@QAEXPAVioHashString@@I@Z
_TEXT	SEGMENT
__Ptr$ = 8						; size = 4
___formal$ = 12						; size = 4
?deallocate@?$allocator@VioHashString@@@std@@QAEXPAVioHashString@@I@Z PROC ; std::allocator<ioHashString>::deallocate, COMDAT
; _this$ = ecx

; 181  : 		{	// deallocate object at _Ptr, ignore size

  00000	55		 push	 ebp
  00001	8b ec		 mov	 ebp, esp

; 182  : 		::operator delete(_Ptr);

  00003	ff 75 08	 push	 DWORD PTR __Ptr$[ebp]
  00006	e8 00 00 00 00	 call	 ??3@YAXPAX@Z		; operator delete
  0000b	59		 pop	 ecx

; 183  : 		}

  0000c	5d		 pop	 ebp
  0000d	c2 08 00	 ret	 8
?deallocate@?$allocator@VioHashString@@@std@@QAEXPAVioHashString@@I@Z ENDP ; std::allocator<ioHashString>::deallocate
_TEXT	ENDS
PUBLIC	?capacity@?$vector@HV?$allocator@H@std@@@std@@QBEIXZ ; std::vector<int,std::allocator<int> >::capacity
; Function compile flags: /Ogsp
; File c:\program files (x86)\microsoft visual studio 10.0\vc\include\vector
;	COMDAT ?capacity@?$vector@HV?$allocator@H@std@@@std@@QBEIXZ
_TEXT	SEGMENT
?capacity@?$vector@HV?$allocator@H@std@@@std@@QBEIXZ PROC ; std::vector<int,std::allocator<int> >::capacity, COMDAT
; _this$ = ecx

; 777  : 		return (this->_Myend - this->_Myfirst);

  00000	8b 41 08	 mov	 eax, DWORD PTR [ecx+8]
  00003	2b 01		 sub	 eax, DWORD PTR [ecx]
  00005	c1 f8 02	 sar	 eax, 2

; 778  : 		}

  00008	c3		 ret	 0
?capacity@?$vector@HV?$allocator@H@std@@@std@@QBEIXZ ENDP ; std::vector<int,std::allocator<int> >::capacity
_TEXT	ENDS
PUBLIC	?_Make_iter@?$vector@HV?$allocator@H@std@@@std@@QBE?AV?$_Vector_iterator@V?$_Vector_val@HV?$allocator@H@std@@@std@@@2@V?$_Vector_const_iterator@V?$_Vector_val@HV?$allocator@H@std@@@std@@@2@@Z ; std::vector<int,std::allocator<int> >::_Make_iter
; Function compile flags: /Ogsp
;	COMDAT ?_Make_iter@?$vector@HV?$allocator@H@std@@@std@@QBE?AV?$_Vector_iterator@V?$_Vector_val@HV?$allocator@H@std@@@std@@@2@V?$_Vector_const_iterator@V?$_Vector_val@HV?$allocator@H@std@@@std@@@2@@Z
_TEXT	SEGMENT
___$ReturnUdt$ = 8					; size = 4
__Where$ = 12						; size = 4
?_Make_iter@?$vector@HV?$allocator@H@std@@@std@@QBE?AV?$_Vector_iterator@V?$_Vector_val@HV?$allocator@H@std@@@std@@@2@V?$_Vector_const_iterator@V?$_Vector_val@HV?$allocator@H@std@@@std@@@2@@Z PROC ; std::vector<int,std::allocator<int> >::_Make_iter, COMDAT
; _this$ = ecx

; 801  : 		{	// make iterator from const_iterator

  00000	55		 push	 ebp
  00001	8b ec		 mov	 ebp, esp

; 802  : 		return (iterator(_Where._Ptr, this));

  00003	8b 45 08	 mov	 eax, DWORD PTR ___$ReturnUdt$[ebp]
  00006	8b 4d 0c	 mov	 ecx, DWORD PTR __Where$[ebp]
  00009	89 08		 mov	 DWORD PTR [eax], ecx

; 803  : 		}

  0000b	5d		 pop	 ebp
  0000c	c2 08 00	 ret	 8
?_Make_iter@?$vector@HV?$allocator@H@std@@@std@@QBE?AV?$_Vector_iterator@V?$_Vector_val@HV?$allocator@H@std@@@std@@@2@V?$_Vector_const_iterator@V?$_Vector_val@HV?$allocator@H@std@@@std@@@2@@Z ENDP ; std::vector<int,std::allocator<int> >::_Make_iter
_TEXT	ENDS
PUBLIC	?_Xlen@?$vector@HV?$allocator@H@std@@@std@@IBEXXZ ; std::vector<int,std::allocator<int> >::_Xlen
; Function compile flags: /Ogsp
;	COMDAT ?_Xlen@?$vector@HV?$allocator@H@std@@@std@@IBEXXZ
_TEXT	SEGMENT
?_Xlen@?$vector@HV?$allocator@H@std@@@std@@IBEXXZ PROC	; std::vector<int,std::allocator<int> >::_Xlen, COMDAT
; _this$ = ecx

; 1427 : 		_Xlength_error("vector<T> too long");

  00000	68 00 00 00 00	 push	 OFFSET ??_C@_0BD@OLBABOEK@vector?$DMT?$DO?5too?5long?$AA@
  00005	ff 15 00 00 00
	00		 call	 DWORD PTR __imp_?_Xlength_error@std@@YAXPBD@Z
$LN4@Xlen@4:
$LN3@Xlen@4:
  0000b	cc		 int	 3
?_Xlen@?$vector@HV?$allocator@H@std@@@std@@IBEXXZ ENDP	; std::vector<int,std::allocator<int> >::_Xlen
_TEXT	ENDS
PUBLIC	?capacity@?$vector@KV?$allocator@K@std@@@std@@QBEIXZ ; std::vector<unsigned long,std::allocator<unsigned long> >::capacity
; Function compile flags: /Ogsp
;	COMDAT ?capacity@?$vector@KV?$allocator@K@std@@@std@@QBEIXZ
_TEXT	SEGMENT
?capacity@?$vector@KV?$allocator@K@std@@@std@@QBEIXZ PROC ; std::vector<unsigned long,std::allocator<unsigned long> >::capacity, COMDAT
; _this$ = ecx

; 777  : 		return (this->_Myend - this->_Myfirst);

  00000	8b 41 08	 mov	 eax, DWORD PTR [ecx+8]
  00003	2b 01		 sub	 eax, DWORD PTR [ecx]
  00005	c1 f8 02	 sar	 eax, 2

; 778  : 		}

  00008	c3		 ret	 0
?capacity@?$vector@KV?$allocator@K@std@@@std@@QBEIXZ ENDP ; std::vector<unsigned long,std::allocator<unsigned long> >::capacity
_TEXT	ENDS
PUBLIC	?_Xlen@?$vector@KV?$allocator@K@std@@@std@@IBEXXZ ; std::vector<unsigned long,std::allocator<unsigned long> >::_Xlen
; Function compile flags: /Ogsp
;	COMDAT ?_Xlen@?$vector@KV?$allocator@K@std@@@std@@IBEXXZ
_TEXT	SEGMENT
?_Xlen@?$vector@KV?$allocator@K@std@@@std@@IBEXXZ PROC	; std::vector<unsigned long,std::allocator<unsigned long> >::_Xlen, COMDAT
; _this$ = ecx

; 1427 : 		_Xlength_error("vector<T> too long");

  00000	68 00 00 00 00	 push	 OFFSET ??_C@_0BD@OLBABOEK@vector?$DMT?$DO?5too?5long?$AA@
  00005	ff 15 00 00 00
	00		 call	 DWORD PTR __imp_?_Xlength_error@std@@YAXPBD@Z
$LN4@Xlen@5:
$LN3@Xlen@5:
  0000b	cc		 int	 3
?_Xlen@?$vector@KV?$allocator@K@std@@@std@@IBEXXZ ENDP	; std::vector<unsigned long,std::allocator<unsigned long> >::_Xlen
_TEXT	ENDS
PUBLIC	??0?$allocator@K@std@@QAE@ABV01@@Z		; std::allocator<unsigned long>::allocator<unsigned long>
; Function compile flags: /Ogsp
; File c:\program files (x86)\microsoft visual studio 10.0\vc\include\xmemory
;	COMDAT ??0?$allocator@K@std@@QAE@ABV01@@Z
_TEXT	SEGMENT
___formal$ = 8						; size = 4
??0?$allocator@K@std@@QAE@ABV01@@Z PROC			; std::allocator<unsigned long>::allocator<unsigned long>, COMDAT
; _this$ = ecx

; 165  : 	_ALLOCATOR(const _ALLOCATOR<_Ty>&) _THROW0()

  00000	8b c1		 mov	 eax, ecx

; 166  : 		{	// construct by copying (do nothing)
; 167  : 		}

  00002	c2 04 00	 ret	 4
??0?$allocator@K@std@@QAE@ABV01@@Z ENDP			; std::allocator<unsigned long>::allocator<unsigned long>
_TEXT	ENDS
PUBLIC	?deallocate@?$allocator@K@std@@QAEXPAKI@Z	; std::allocator<unsigned long>::deallocate
; Function compile flags: /Ogsp
;	COMDAT ?deallocate@?$allocator@K@std@@QAEXPAKI@Z
_TEXT	SEGMENT
__Ptr$ = 8						; size = 4
___formal$ = 12						; size = 4
?deallocate@?$allocator@K@std@@QAEXPAKI@Z PROC		; std::allocator<unsigned long>::deallocate, COMDAT
; _this$ = ecx

; 181  : 		{	// deallocate object at _Ptr, ignore size

  00000	55		 push	 ebp
  00001	8b ec		 mov	 ebp, esp

; 182  : 		::operator delete(_Ptr);

  00003	ff 75 08	 push	 DWORD PTR __Ptr$[ebp]
  00006	e8 00 00 00 00	 call	 ??3@YAXPAX@Z		; operator delete
  0000b	59		 pop	 ecx

; 183  : 		}

  0000c	5d		 pop	 ebp
  0000d	c2 08 00	 ret	 8
?deallocate@?$allocator@K@std@@QAEXPAKI@Z ENDP		; std::allocator<unsigned long>::deallocate
_TEXT	ENDS
PUBLIC	??0?$_Vector_const_iterator@V?$_Vector_val@VioHashString@@V?$allocator@VioHashString@@@std@@@std@@@std@@QAE@PAVioHashString@@PBU_Container_base0@1@@Z ; std::_Vector_const_iterator<std::_Vector_val<ioHashString,std::allocator<ioHashString> > >::_Vector_const_iterator<std::_Vector_val<ioHashString,std::allocator<ioHashString> > >
; Function compile flags: /Ogsp
; File c:\program files (x86)\microsoft visual studio 10.0\vc\include\vector
;	COMDAT ??0?$_Vector_const_iterator@V?$_Vector_val@VioHashString@@V?$allocator@VioHashString@@@std@@@std@@@std@@QAE@PAVioHashString@@PBU_Container_base0@1@@Z
_TEXT	SEGMENT
__Parg$ = 8						; size = 4
__Pvector$ = 12						; size = 4
??0?$_Vector_const_iterator@V?$_Vector_val@VioHashString@@V?$allocator@VioHashString@@@std@@@std@@@std@@QAE@PAVioHashString@@PBU_Container_base0@1@@Z PROC ; std::_Vector_const_iterator<std::_Vector_val<ioHashString,std::allocator<ioHashString> > >::_Vector_const_iterator<std::_Vector_val<ioHashString,std::allocator<ioHashString> > >, COMDAT
; _this$ = ecx

; 45   : 		{	// construct with pointer _Parg

  00000	55		 push	 ebp
  00001	8b ec		 mov	 ebp, esp
  00003	8b c1		 mov	 eax, ecx
  00005	8b 4d 08	 mov	 ecx, DWORD PTR __Parg$[ebp]
  00008	89 08		 mov	 DWORD PTR [eax], ecx

; 46   : 		this->_Adopt(_Pvector);
; 47   : 		}

  0000a	5d		 pop	 ebp
  0000b	c2 08 00	 ret	 8
??0?$_Vector_const_iterator@V?$_Vector_val@VioHashString@@V?$allocator@VioHashString@@@std@@@std@@@std@@QAE@PAVioHashString@@PBU_Container_base0@1@@Z ENDP ; std::_Vector_const_iterator<std::_Vector_val<ioHashString,std::allocator<ioHashString> > >::_Vector_const_iterator<std::_Vector_val<ioHashString,std::allocator<ioHashString> > >
_TEXT	ENDS
PUBLIC	??0?$_Vector_iterator@V?$_Vector_val@VioHashString@@V?$allocator@VioHashString@@@std@@@std@@@std@@QAE@PAVioHashString@@PBU_Container_base0@1@@Z ; std::_Vector_iterator<std::_Vector_val<ioHashString,std::allocator<ioHashString> > >::_Vector_iterator<std::_Vector_val<ioHashString,std::allocator<ioHashString> > >
; Function compile flags: /Ogsp
;	COMDAT ??0?$_Vector_iterator@V?$_Vector_val@VioHashString@@V?$allocator@VioHashString@@@std@@@std@@@std@@QAE@PAVioHashString@@PBU_Container_base0@1@@Z
_TEXT	SEGMENT
__Parg$ = 8						; size = 4
__Pvector$ = 12						; size = 4
??0?$_Vector_iterator@V?$_Vector_val@VioHashString@@V?$allocator@VioHashString@@@std@@@std@@@std@@QAE@PAVioHashString@@PBU_Container_base0@1@@Z PROC ; std::_Vector_iterator<std::_Vector_val<ioHashString,std::allocator<ioHashString> > >::_Vector_iterator<std::_Vector_val<ioHashString,std::allocator<ioHashString> > >, COMDAT
; _this$ = ecx

; 304  : 		{	// construct with pointer _Parg

  00000	55		 push	 ebp
  00001	8b ec		 mov	 ebp, esp
  00003	8b c1		 mov	 eax, ecx
  00005	8b 4d 08	 mov	 ecx, DWORD PTR __Parg$[ebp]
  00008	89 08		 mov	 DWORD PTR [eax], ecx

; 305  : 		}

  0000a	5d		 pop	 ebp
  0000b	c2 08 00	 ret	 8
??0?$_Vector_iterator@V?$_Vector_val@VioHashString@@V?$allocator@VioHashString@@@std@@@std@@@std@@QAE@PAVioHashString@@PBU_Container_base0@1@@Z ENDP ; std::_Vector_iterator<std::_Vector_val<ioHashString,std::allocator<ioHashString> > >::_Vector_iterator<std::_Vector_val<ioHashString,std::allocator<ioHashString> > >
_TEXT	ENDS
PUBLIC	?max_size@?$allocator@H@std@@QBEIXZ		; std::allocator<int>::max_size
; Function compile flags: /Ogsp
; File c:\program files (x86)\microsoft visual studio 10.0\vc\include\xmemory
;	COMDAT ?max_size@?$allocator@H@std@@QBEIXZ
_TEXT	SEGMENT
?max_size@?$allocator@H@std@@QBEIXZ PROC		; std::allocator<int>::max_size, COMDAT
; _this$ = ecx

; 218  : 		_SIZT _Count = (_SIZT)(-1) / sizeof (_Ty);
; 219  : 		return (0 < _Count ? _Count : 1);

  00000	b8 ff ff ff 3f	 mov	 eax, 1073741823		; 3fffffffH

; 220  : 		}

  00005	c3		 ret	 0
?max_size@?$allocator@H@std@@QBEIXZ ENDP		; std::allocator<int>::max_size
_TEXT	ENDS
PUBLIC	?max_size@?$allocator@VioHashString@@@std@@QBEIXZ ; std::allocator<ioHashString>::max_size
; Function compile flags: /Ogsp
;	COMDAT ?max_size@?$allocator@VioHashString@@@std@@QBEIXZ
_TEXT	SEGMENT
?max_size@?$allocator@VioHashString@@@std@@QBEIXZ PROC	; std::allocator<ioHashString>::max_size, COMDAT
; _this$ = ecx

; 218  : 		_SIZT _Count = (_SIZT)(-1) / sizeof (_Ty);
; 219  : 		return (0 < _Count ? _Count : 1);

  00000	b8 ff ff ff 0f	 mov	 eax, 268435455		; 0fffffffH

; 220  : 		}

  00005	c3		 ret	 0
?max_size@?$allocator@VioHashString@@@std@@QBEIXZ ENDP	; std::allocator<ioHashString>::max_size
_TEXT	ENDS
PUBLIC	?max_size@?$allocator@K@std@@QBEIXZ		; std::allocator<unsigned long>::max_size
; Function compile flags: /Ogsp
;	COMDAT ?max_size@?$allocator@K@std@@QBEIXZ
_TEXT	SEGMENT
?max_size@?$allocator@K@std@@QBEIXZ PROC		; std::allocator<unsigned long>::max_size, COMDAT
; _this$ = ecx

; 218  : 		_SIZT _Count = (_SIZT)(-1) / sizeof (_Ty);
; 219  : 		return (0 < _Count ? _Count : 1);

  00000	b8 ff ff ff 3f	 mov	 eax, 1073741823		; 3fffffffH

; 220  : 		}

  00005	c3		 ret	 0
?max_size@?$allocator@K@std@@QBEIXZ ENDP		; std::allocator<unsigned long>::max_size
_TEXT	ENDS
PUBLIC	??0?$_Vector_const_iterator@V?$_Vector_val@KV?$allocator@K@std@@@std@@@std@@QAE@PAKPBU_Container_base0@1@@Z ; std::_Vector_const_iterator<std::_Vector_val<unsigned long,std::allocator<unsigned long> > >::_Vector_const_iterator<std::_Vector_val<unsigned long,std::allocator<unsigned long> > >
; Function compile flags: /Ogsp
; File c:\program files (x86)\microsoft visual studio 10.0\vc\include\vector
;	COMDAT ??0?$_Vector_const_iterator@V?$_Vector_val@KV?$allocator@K@std@@@std@@@std@@QAE@PAKPBU_Container_base0@1@@Z
_TEXT	SEGMENT
__Parg$ = 8						; size = 4
__Pvector$ = 12						; size = 4
??0?$_Vector_const_iterator@V?$_Vector_val@KV?$allocator@K@std@@@std@@@std@@QAE@PAKPBU_Container_base0@1@@Z PROC ; std::_Vector_const_iterator<std::_Vector_val<unsigned long,std::allocator<unsigned long> > >::_Vector_const_iterator<std::_Vector_val<unsigned long,std::allocator<unsigned long> > >, COMDAT
; _this$ = ecx

; 45   : 		{	// construct with pointer _Parg

  00000	55		 push	 ebp
  00001	8b ec		 mov	 ebp, esp
  00003	8b c1		 mov	 eax, ecx
  00005	8b 4d 08	 mov	 ecx, DWORD PTR __Parg$[ebp]
  00008	89 08		 mov	 DWORD PTR [eax], ecx

; 46   : 		this->_Adopt(_Pvector);
; 47   : 		}

  0000a	5d		 pop	 ebp
  0000b	c2 08 00	 ret	 8
??0?$_Vector_const_iterator@V?$_Vector_val@KV?$allocator@K@std@@@std@@@std@@QAE@PAKPBU_Container_base0@1@@Z ENDP ; std::_Vector_const_iterator<std::_Vector_val<unsigned long,std::allocator<unsigned long> > >::_Vector_const_iterator<std::_Vector_val<unsigned long,std::allocator<unsigned long> > >
_TEXT	ENDS
PUBLIC	?max_size@?$allocator@D@std@@QBEIXZ		; std::allocator<char>::max_size
; Function compile flags: /Ogsp
; File c:\program files (x86)\microsoft visual studio 10.0\vc\include\xmemory
;	COMDAT ?max_size@?$allocator@D@std@@QBEIXZ
_TEXT	SEGMENT
?max_size@?$allocator@D@std@@QBEIXZ PROC		; std::allocator<char>::max_size, COMDAT
; _this$ = ecx

; 218  : 		_SIZT _Count = (_SIZT)(-1) / sizeof (_Ty);
; 219  : 		return (0 < _Count ? _Count : 1);

  00000	83 c8 ff	 or	 eax, -1

; 220  : 		}

  00003	c3		 ret	 0
?max_size@?$allocator@D@std@@QBEIXZ ENDP		; std::allocator<char>::max_size
_TEXT	ENDS
PUBLIC	?_Compat@?$_Vector_const_iterator@V?$_Vector_val@HV?$allocator@H@std@@@std@@@std@@QBEXABV12@@Z ; std::_Vector_const_iterator<std::_Vector_val<int,std::allocator<int> > >::_Compat
; Function compile flags: /Ogsp
; File c:\program files (x86)\microsoft visual studio 10.0\vc\include\vector
;	COMDAT ?_Compat@?$_Vector_const_iterator@V?$_Vector_val@HV?$allocator@H@std@@@std@@@std@@QBEXABV12@@Z
_TEXT	SEGMENT
___formal$ = 8						; size = 4
?_Compat@?$_Vector_const_iterator@V?$_Vector_val@HV?$allocator@H@std@@@std@@@std@@QBEXABV12@@Z PROC ; std::_Vector_const_iterator<std::_Vector_val<int,std::allocator<int> > >::_Compat, COMDAT
; _this$ = ecx

; 253  : 		}

  00000	c2 04 00	 ret	 4
?_Compat@?$_Vector_const_iterator@V?$_Vector_val@HV?$allocator@H@std@@@std@@@std@@QBEXABV12@@Z ENDP ; std::_Vector_const_iterator<std::_Vector_val<int,std::allocator<int> > >::_Compat
_TEXT	ENDS
PUBLIC	?_Compat@?$_Vector_const_iterator@V?$_Vector_val@VioHashString@@V?$allocator@VioHashString@@@std@@@std@@@std@@QBEXABV12@@Z ; std::_Vector_const_iterator<std::_Vector_val<ioHashString,std::allocator<ioHashString> > >::_Compat
; Function compile flags: /Ogsp
;	COMDAT ?_Compat@?$_Vector_const_iterator@V?$_Vector_val@VioHashString@@V?$allocator@VioHashString@@@std@@@std@@@std@@QBEXABV12@@Z
_TEXT	SEGMENT
___formal$ = 8						; size = 4
?_Compat@?$_Vector_const_iterator@V?$_Vector_val@VioHashString@@V?$allocator@VioHashString@@@std@@@std@@@std@@QBEXABV12@@Z PROC ; std::_Vector_const_iterator<std::_Vector_val<ioHashString,std::allocator<ioHashString> > >::_Compat, COMDAT
; _this$ = ecx

; 253  : 		}

  00000	c2 04 00	 ret	 4
?_Compat@?$_Vector_const_iterator@V?$_Vector_val@VioHashString@@V?$allocator@VioHashString@@@std@@@std@@@std@@QBEXABV12@@Z ENDP ; std::_Vector_const_iterator<std::_Vector_val<ioHashString,std::allocator<ioHashString> > >::_Compat
_TEXT	ENDS
PUBLIC	?_Compat@?$_Vector_const_iterator@V?$_Vector_val@KV?$allocator@K@std@@@std@@@std@@QBEXABV12@@Z ; std::_Vector_const_iterator<std::_Vector_val<unsigned long,std::allocator<unsigned long> > >::_Compat
; Function compile flags: /Ogsp
;	COMDAT ?_Compat@?$_Vector_const_iterator@V?$_Vector_val@KV?$allocator@K@std@@@std@@@std@@QBEXABV12@@Z
_TEXT	SEGMENT
___formal$ = 8						; size = 4
?_Compat@?$_Vector_const_iterator@V?$_Vector_val@KV?$allocator@K@std@@@std@@@std@@QBEXABV12@@Z PROC ; std::_Vector_const_iterator<std::_Vector_val<unsigned long,std::allocator<unsigned long> > >::_Compat, COMDAT
; _this$ = ecx

; 253  : 		}

  00000	c2 04 00	 ret	 4
?_Compat@?$_Vector_const_iterator@V?$_Vector_val@KV?$allocator@K@std@@@std@@@std@@QBEXABV12@@Z ENDP ; std::_Vector_const_iterator<std::_Vector_val<unsigned long,std::allocator<unsigned long> > >::_Compat
_TEXT	ENDS
PUBLIC	??$addressof@$$CBK@std@@YAPBKABK@Z		; std::addressof<unsigned long const >
; Function compile flags: /Ogsp
; File c:\program files (x86)\microsoft visual studio 10.0\vc\include\xmemory
;	COMDAT ??$addressof@$$CBK@std@@YAPBKABK@Z
_TEXT	SEGMENT
__Val$ = 8						; size = 4
??$addressof@$$CBK@std@@YAPBKABK@Z PROC			; std::addressof<unsigned long const >, COMDAT

; 110  : 	{	// return address of _Val

  00000	55		 push	 ebp
  00001	8b ec		 mov	 ebp, esp

; 111  : 	return ((_Ty *) &(char&)_Val);

  00003	8b 45 08	 mov	 eax, DWORD PTR __Val$[ebp]

; 112  : 	}

  00006	5d		 pop	 ebp
  00007	c3		 ret	 0
??$addressof@$$CBK@std@@YAPBKABK@Z ENDP			; std::addressof<unsigned long const >
_TEXT	ENDS
PUBLIC	??$_Allocate@VioHashString@@@std@@YAPAVioHashString@@IPAV1@@Z ; std::_Allocate<ioHashString>
; Function compile flags: /Ogsp
;	COMDAT ??$_Allocate@VioHashString@@@std@@YAPAVioHashString@@IPAV1@@Z
_TEXT	SEGMENT
$T552260 = -12						; size = 12
$T552264 = 8						; size = 4
__Count$ = 8						; size = 4
___formal$ = 12						; size = 4
??$_Allocate@VioHashString@@@std@@YAPAVioHashString@@IPAV1@@Z PROC ; std::_Allocate<ioHashString>, COMDAT

; 30   : 	{	// allocate storage for _Count elements of type _Ty

  00000	55		 push	 ebp
  00001	8b ec		 mov	 ebp, esp

; 31   : 	void *_Ptr = 0;
; 32   : 
; 33   : 	if (_Count <= 0)

  00003	8b 4d 08	 mov	 ecx, DWORD PTR __Count$[ebp]
  00006	83 ec 0c	 sub	 esp, 12			; 0000000cH
  00009	33 c0		 xor	 eax, eax
  0000b	85 c9		 test	 ecx, ecx

; 34   : 		_Count = 0;
; 35   : 	else if (((_SIZT)(-1) / sizeof (_Ty) < _Count)

  0000d	74 3c		 je	 SHORT $LN5@Allocate@2

; 36   : 		|| (_Ptr = ::operator new(_Count * sizeof (_Ty))) == 0)

  0000f	81 f9 ff ff ff
	0f		 cmp	 ecx, 268435455		; 0fffffffH
  00015	77 0e		 ja	 SHORT $LN1@Allocate@2
  00017	c1 e1 04	 shl	 ecx, 4
  0001a	51		 push	 ecx
  0001b	e8 00 00 00 00	 call	 ??2@YAPAXI@Z		; operator new
  00020	59		 pop	 ecx
  00021	85 c0		 test	 eax, eax

; 38   : 
; 39   : 	return ((_Ty _FARQ *)_Ptr);

  00023	75 26		 jne	 SHORT $LN5@Allocate@2
$LN1@Allocate@2:

; 37   : 		_THROW_NCEE(bad_alloc, 0);

  00025	83 65 08 00	 and	 DWORD PTR $T552264[ebp], 0
  00029	8d 45 08	 lea	 eax, DWORD PTR $T552264[ebp]
  0002c	50		 push	 eax
  0002d	8d 4d f4	 lea	 ecx, DWORD PTR $T552260[ebp]
  00030	ff 15 00 00 00
	00		 call	 DWORD PTR __imp_??0exception@std@@QAE@ABQBD@Z
  00036	68 00 00 00 00	 push	 OFFSET __TI2?AVbad_alloc@std@@
  0003b	8d 45 f4	 lea	 eax, DWORD PTR $T552260[ebp]
  0003e	50		 push	 eax
  0003f	c7 45 f4 00 00
	00 00		 mov	 DWORD PTR $T552260[ebp], OFFSET ??_7bad_alloc@std@@6B@
  00046	e8 00 00 00 00	 call	 __CxxThrowException@8
$LN10@Allocate@2:
$LN5@Allocate@2:

; 40   : 	}

  0004b	c9		 leave
  0004c	c3		 ret	 0
$LN9@Allocate@2:
??$_Allocate@VioHashString@@@std@@YAPAVioHashString@@IPAV1@@Z ENDP ; std::_Allocate<ioHashString>
_TEXT	ENDS
PUBLIC	??$_Allocate@H@std@@YAPAHIPAH@Z			; std::_Allocate<int>
; Function compile flags: /Ogsp
;	COMDAT ??$_Allocate@H@std@@YAPAHIPAH@Z
_TEXT	SEGMENT
$T552269 = -12						; size = 12
$T552273 = 8						; size = 4
__Count$ = 8						; size = 4
___formal$ = 12						; size = 4
??$_Allocate@H@std@@YAPAHIPAH@Z PROC			; std::_Allocate<int>, COMDAT

; 30   : 	{	// allocate storage for _Count elements of type _Ty

  00000	55		 push	 ebp
  00001	8b ec		 mov	 ebp, esp

; 31   : 	void *_Ptr = 0;
; 32   : 
; 33   : 	if (_Count <= 0)

  00003	8b 4d 08	 mov	 ecx, DWORD PTR __Count$[ebp]
  00006	83 ec 0c	 sub	 esp, 12			; 0000000cH
  00009	33 c0		 xor	 eax, eax
  0000b	85 c9		 test	 ecx, ecx

; 34   : 		_Count = 0;
; 35   : 	else if (((_SIZT)(-1) / sizeof (_Ty) < _Count)

  0000d	74 3e		 je	 SHORT $LN5@Allocate@3

; 36   : 		|| (_Ptr = ::operator new(_Count * sizeof (_Ty))) == 0)

  0000f	81 f9 ff ff ff
	3f		 cmp	 ecx, 1073741823		; 3fffffffH
  00015	77 10		 ja	 SHORT $LN1@Allocate@3
  00017	8b c1		 mov	 eax, ecx
  00019	c1 e0 02	 shl	 eax, 2
  0001c	50		 push	 eax
  0001d	e8 00 00 00 00	 call	 ??2@YAPAXI@Z		; operator new
  00022	59		 pop	 ecx
  00023	85 c0		 test	 eax, eax

; 38   : 
; 39   : 	return ((_Ty _FARQ *)_Ptr);

  00025	75 26		 jne	 SHORT $LN5@Allocate@3
$LN1@Allocate@3:

; 37   : 		_THROW_NCEE(bad_alloc, 0);

  00027	83 65 08 00	 and	 DWORD PTR $T552273[ebp], 0
  0002b	8d 45 08	 lea	 eax, DWORD PTR $T552273[ebp]
  0002e	50		 push	 eax
  0002f	8d 4d f4	 lea	 ecx, DWORD PTR $T552269[ebp]
  00032	ff 15 00 00 00
	00		 call	 DWORD PTR __imp_??0exception@std@@QAE@ABQBD@Z
  00038	68 00 00 00 00	 push	 OFFSET __TI2?AVbad_alloc@std@@
  0003d	8d 45 f4	 lea	 eax, DWORD PTR $T552269[ebp]
  00040	50		 push	 eax
  00041	c7 45 f4 00 00
	00 00		 mov	 DWORD PTR $T552269[ebp], OFFSET ??_7bad_alloc@std@@6B@
  00048	e8 00 00 00 00	 call	 __CxxThrowException@8
$LN10@Allocate@3:
$LN5@Allocate@3:

; 40   : 	}

  0004d	c9		 leave
  0004e	c3		 ret	 0
$LN9@Allocate@3:
??$_Allocate@H@std@@YAPAHIPAH@Z ENDP			; std::_Allocate<int>
_TEXT	ENDS
PUBLIC	??$_Allocate@K@std@@YAPAKIPAK@Z			; std::_Allocate<unsigned long>
; Function compile flags: /Ogsp
;	COMDAT ??$_Allocate@K@std@@YAPAKIPAK@Z
_TEXT	SEGMENT
$T552278 = -12						; size = 12
$T552282 = 8						; size = 4
__Count$ = 8						; size = 4
___formal$ = 12						; size = 4
??$_Allocate@K@std@@YAPAKIPAK@Z PROC			; std::_Allocate<unsigned long>, COMDAT

; 30   : 	{	// allocate storage for _Count elements of type _Ty

  00000	55		 push	 ebp
  00001	8b ec		 mov	 ebp, esp

; 31   : 	void *_Ptr = 0;
; 32   : 
; 33   : 	if (_Count <= 0)

  00003	8b 4d 08	 mov	 ecx, DWORD PTR __Count$[ebp]
  00006	83 ec 0c	 sub	 esp, 12			; 0000000cH
  00009	33 c0		 xor	 eax, eax
  0000b	85 c9		 test	 ecx, ecx

; 34   : 		_Count = 0;
; 35   : 	else if (((_SIZT)(-1) / sizeof (_Ty) < _Count)

  0000d	74 3e		 je	 SHORT $LN5@Allocate@4

; 36   : 		|| (_Ptr = ::operator new(_Count * sizeof (_Ty))) == 0)

  0000f	81 f9 ff ff ff
	3f		 cmp	 ecx, 1073741823		; 3fffffffH
  00015	77 10		 ja	 SHORT $LN1@Allocate@4
  00017	8b c1		 mov	 eax, ecx
  00019	c1 e0 02	 shl	 eax, 2
  0001c	50		 push	 eax
  0001d	e8 00 00 00 00	 call	 ??2@YAPAXI@Z		; operator new
  00022	59		 pop	 ecx
  00023	85 c0		 test	 eax, eax

; 38   : 
; 39   : 	return ((_Ty _FARQ *)_Ptr);

  00025	75 26		 jne	 SHORT $LN5@Allocate@4
$LN1@Allocate@4:

; 37   : 		_THROW_NCEE(bad_alloc, 0);

  00027	83 65 08 00	 and	 DWORD PTR $T552282[ebp], 0
  0002b	8d 45 08	 lea	 eax, DWORD PTR $T552282[ebp]
  0002e	50		 push	 eax
  0002f	8d 4d f4	 lea	 ecx, DWORD PTR $T552278[ebp]
  00032	ff 15 00 00 00
	00		 call	 DWORD PTR __imp_??0exception@std@@QAE@ABQBD@Z
  00038	68 00 00 00 00	 push	 OFFSET __TI2?AVbad_alloc@std@@
  0003d	8d 45 f4	 lea	 eax, DWORD PTR $T552278[ebp]
  00040	50		 push	 eax
  00041	c7 45 f4 00 00
	00 00		 mov	 DWORD PTR $T552278[ebp], OFFSET ??_7bad_alloc@std@@6B@
  00048	e8 00 00 00 00	 call	 __CxxThrowException@8
$LN10@Allocate@4:
$LN5@Allocate@4:

; 40   : 	}

  0004d	c9		 leave
  0004e	c3		 ret	 0
$LN9@Allocate@4:
??$_Allocate@K@std@@YAPAKIPAK@Z ENDP			; std::_Allocate<unsigned long>
_TEXT	ENDS
PUBLIC	??$_Allocate@D@std@@YAPADIPAD@Z			; std::_Allocate<char>
; Function compile flags: /Ogsp
;	COMDAT ??$_Allocate@D@std@@YAPADIPAD@Z
_TEXT	SEGMENT
$T552287 = -12						; size = 12
$T552291 = 8						; size = 4
__Count$ = 8						; size = 4
___formal$ = 12						; size = 4
??$_Allocate@D@std@@YAPADIPAD@Z PROC			; std::_Allocate<char>, COMDAT

; 30   : 	{	// allocate storage for _Count elements of type _Ty

  00000	55		 push	 ebp
  00001	8b ec		 mov	 ebp, esp

; 31   : 	void *_Ptr = 0;

  00003	33 c0		 xor	 eax, eax
  00005	83 ec 0c	 sub	 esp, 12			; 0000000cH

; 32   : 
; 33   : 	if (_Count <= 0)

  00008	39 45 08	 cmp	 DWORD PTR __Count$[ebp], eax

; 34   : 		_Count = 0;
; 35   : 	else if (((_SIZT)(-1) / sizeof (_Ty) < _Count)

  0000b	76 39		 jbe	 SHORT $LN5@Allocate@5

; 36   : 		|| (_Ptr = ::operator new(_Count * sizeof (_Ty))) == 0)

  0000d	83 7d 08 ff	 cmp	 DWORD PTR __Count$[ebp], -1
  00011	77 0d		 ja	 SHORT $LN1@Allocate@5
  00013	ff 75 08	 push	 DWORD PTR __Count$[ebp]
  00016	e8 00 00 00 00	 call	 ??2@YAPAXI@Z		; operator new
  0001b	59		 pop	 ecx
  0001c	85 c0		 test	 eax, eax

; 38   : 
; 39   : 	return ((_Ty _FARQ *)_Ptr);

  0001e	75 26		 jne	 SHORT $LN5@Allocate@5
$LN1@Allocate@5:

; 37   : 		_THROW_NCEE(bad_alloc, 0);

  00020	83 65 08 00	 and	 DWORD PTR $T552291[ebp], 0
  00024	8d 45 08	 lea	 eax, DWORD PTR $T552291[ebp]
  00027	50		 push	 eax
  00028	8d 4d f4	 lea	 ecx, DWORD PTR $T552287[ebp]
  0002b	ff 15 00 00 00
	00		 call	 DWORD PTR __imp_??0exception@std@@QAE@ABQBD@Z
  00031	68 00 00 00 00	 push	 OFFSET __TI2?AVbad_alloc@std@@
  00036	8d 45 f4	 lea	 eax, DWORD PTR $T552287[ebp]
  00039	50		 push	 eax
  0003a	c7 45 f4 00 00
	00 00		 mov	 DWORD PTR $T552287[ebp], OFFSET ??_7bad_alloc@std@@6B@
  00041	e8 00 00 00 00	 call	 __CxxThrowException@8
$LN10@Allocate@5:
$LN5@Allocate@5:

; 40   : 	}

  00046	c9		 leave
  00047	c3		 ret	 0
$LN9@Allocate@5:
??$_Allocate@D@std@@YAPADIPAD@Z ENDP			; std::_Allocate<char>
_TEXT	ENDS
EXTRN	__imp_??0exception@std@@QAE@ABV01@@Z:PROC
; Function compile flags: /Ogsp
;	COMDAT ??0bad_alloc@std@@QAE@ABV01@@Z
_TEXT	SEGMENT
___that$ = 8						; size = 4
??0bad_alloc@std@@QAE@ABV01@@Z PROC			; std::bad_alloc::bad_alloc, COMDAT
; _this$ = ecx
  00000	55		 push	 ebp
  00001	8b ec		 mov	 ebp, esp
  00003	56		 push	 esi
  00004	ff 75 08	 push	 DWORD PTR ___that$[ebp]
  00007	8b f1		 mov	 esi, ecx
  00009	ff 15 00 00 00
	00		 call	 DWORD PTR __imp_??0exception@std@@QAE@ABV01@@Z
  0000f	c7 06 00 00 00
	00		 mov	 DWORD PTR [esi], OFFSET ??_7bad_alloc@std@@6B@
  00015	8b c6		 mov	 eax, esi
  00017	5e		 pop	 esi
  00018	5d		 pop	 ebp
  00019	c2 04 00	 ret	 4
??0bad_alloc@std@@QAE@ABV01@@Z ENDP			; std::bad_alloc::bad_alloc
_TEXT	ENDS
PUBLIC	??$forward@ABVioHashString@@@std@@YAABVioHashString@@ABV1@@Z ; std::forward<ioHashString const &>
; Function compile flags: /Ogsp
; File c:\program files (x86)\microsoft visual studio 10.0\vc\include\utility
;	COMDAT ??$forward@ABVioHashString@@@std@@YAABVioHashString@@ABV1@@Z
_TEXT	SEGMENT
__Arg$ = 8						; size = 4
??$forward@ABVioHashString@@@std@@YAABVioHashString@@ABV1@@Z PROC ; std::forward<ioHashString const &>, COMDAT

; 78   : 	{	// forward _Arg, given explicitly specified type parameter

  00000	55		 push	 ebp
  00001	8b ec		 mov	 ebp, esp

; 79   : 	return ((_Ty&&)_Arg);

  00003	8b 45 08	 mov	 eax, DWORD PTR __Arg$[ebp]

; 80   : 	}

  00006	5d		 pop	 ebp
  00007	c3		 ret	 0
??$forward@ABVioHashString@@@std@@YAABVioHashString@@ABV1@@Z ENDP ; std::forward<ioHashString const &>
_TEXT	ENDS
PUBLIC	??$forward@AAVioHashString@@@std@@YAAAVioHashString@@AAV1@@Z ; std::forward<ioHashString &>
; Function compile flags: /Ogsp
;	COMDAT ??$forward@AAVioHashString@@@std@@YAAAVioHashString@@AAV1@@Z
_TEXT	SEGMENT
__Arg$ = 8						; size = 4
??$forward@AAVioHashString@@@std@@YAAAVioHashString@@AAV1@@Z PROC ; std::forward<ioHashString &>, COMDAT

; 78   : 	{	// forward _Arg, given explicitly specified type parameter

  00000	55		 push	 ebp
  00001	8b ec		 mov	 ebp, esp

; 79   : 	return ((_Ty&&)_Arg);

  00003	8b 45 08	 mov	 eax, DWORD PTR __Arg$[ebp]

; 80   : 	}

  00006	5d		 pop	 ebp
  00007	c3		 ret	 0
??$forward@AAVioHashString@@@std@@YAAAVioHashString@@AAV1@@Z ENDP ; std::forward<ioHashString &>
_TEXT	ENDS
PUBLIC	??$forward@AAH@std@@YAAAHAAH@Z			; std::forward<int &>
; Function compile flags: /Ogsp
;	COMDAT ??$forward@AAH@std@@YAAAHAAH@Z
_TEXT	SEGMENT
__Arg$ = 8						; size = 4
??$forward@AAH@std@@YAAAHAAH@Z PROC			; std::forward<int &>, COMDAT

; 78   : 	{	// forward _Arg, given explicitly specified type parameter

  00000	55		 push	 ebp
  00001	8b ec		 mov	 ebp, esp

; 79   : 	return ((_Ty&&)_Arg);

  00003	8b 45 08	 mov	 eax, DWORD PTR __Arg$[ebp]

; 80   : 	}

  00006	5d		 pop	 ebp
  00007	c3		 ret	 0
??$forward@AAH@std@@YAAAHAAH@Z ENDP			; std::forward<int &>
_TEXT	ENDS
PUBLIC	??$_Val_type@PAH@std@@YAPAHPAH@Z		; std::_Val_type<int *>
; Function compile flags: /Ogsp
; File c:\program files (x86)\microsoft visual studio 10.0\vc\include\xutility
;	COMDAT ??$_Val_type@PAH@std@@YAPAHPAH@Z
_TEXT	SEGMENT
___formal$ = 8						; size = 4
??$_Val_type@PAH@std@@YAPAHPAH@Z PROC			; std::_Val_type<int *>, COMDAT

; 790  : 	return (0);

  00000	33 c0		 xor	 eax, eax

; 791  : 	}

  00002	c3		 ret	 0
??$_Val_type@PAH@std@@YAPAHPAH@Z ENDP			; std::_Val_type<int *>
_TEXT	ENDS
PUBLIC	??$_Ptr_cat@HH@std@@YA?AU_Scalar_ptr_iterator_tag@0@PAH0@Z ; std::_Ptr_cat<int,int>
; Function compile flags: /Ogsp
;	COMDAT ??$_Ptr_cat@HH@std@@YA?AU_Scalar_ptr_iterator_tag@0@PAH0@Z
_TEXT	SEGMENT
__Cat$ = -1						; size = 1
___formal$ = 8						; size = 4
___formal$ = 12						; size = 4
??$_Ptr_cat@HH@std@@YA?AU_Scalar_ptr_iterator_tag@0@PAH0@Z PROC ; std::_Ptr_cat<int,int>, COMDAT

; 516  : 	{	// return pointer category from pointers

  00000	55		 push	 ebp
  00001	8b ec		 mov	 ebp, esp
  00003	51		 push	 ecx

; 517  : 	typename _Ptr_cat_helper<_Elem1, _Elem2>::_Type _Cat;
; 518  : 	return (_Cat);

  00004	8a 45 ff	 mov	 al, BYTE PTR __Cat$[ebp]

; 519  : 	}

  00007	c9		 leave
  00008	c3		 ret	 0
??$_Ptr_cat@HH@std@@YA?AU_Scalar_ptr_iterator_tag@0@PAH0@Z ENDP ; std::_Ptr_cat<int,int>
_TEXT	ENDS
PUBLIC	??$forward@AAK@std@@YAAAKAAK@Z			; std::forward<unsigned long &>
; Function compile flags: /Ogsp
; File c:\program files (x86)\microsoft visual studio 10.0\vc\include\utility
;	COMDAT ??$forward@AAK@std@@YAAAKAAK@Z
_TEXT	SEGMENT
__Arg$ = 8						; size = 4
??$forward@AAK@std@@YAAAKAAK@Z PROC			; std::forward<unsigned long &>, COMDAT

; 78   : 	{	// forward _Arg, given explicitly specified type parameter

  00000	55		 push	 ebp
  00001	8b ec		 mov	 ebp, esp

; 79   : 	return ((_Ty&&)_Arg);

  00003	8b 45 08	 mov	 eax, DWORD PTR __Arg$[ebp]

; 80   : 	}

  00006	5d		 pop	 ebp
  00007	c3		 ret	 0
??$forward@AAK@std@@YAAAKAAK@Z ENDP			; std::forward<unsigned long &>
_TEXT	ENDS
PUBLIC	??$construct@AAK@?$allocator@K@std@@QAEXPAKAAK@Z ; std::allocator<unsigned long>::construct<unsigned long &>
; Function compile flags: /Ogsp
; File c:\program files (x86)\microsoft visual studio 10.0\vc\include\xmemory
;	COMDAT ??$construct@AAK@?$allocator@K@std@@QAEXPAKAAK@Z
_TEXT	SEGMENT
__Ptr$ = 8						; size = 4
__Val$ = 12						; size = 4
??$construct@AAK@?$allocator@K@std@@QAEXPAKAAK@Z PROC	; std::allocator<unsigned long>::construct<unsigned long &>, COMDAT
; _this$ = ecx

; 206  : 		void construct(pointer _Ptr, _Other&& _Val)

  00000	55		 push	 ebp
  00001	8b ec		 mov	 ebp, esp

; 207  : 		{	// construct object at _Ptr with value _Val
; 208  : 		::new ((void _FARQ *)_Ptr) _Ty(_STD forward<_Other>(_Val));

  00003	8b 45 08	 mov	 eax, DWORD PTR __Ptr$[ebp]
  00006	85 c0		 test	 eax, eax
  00008	74 07		 je	 SHORT $LN3@construct@2
  0000a	8b 4d 0c	 mov	 ecx, DWORD PTR __Val$[ebp]
  0000d	8b 09		 mov	 ecx, DWORD PTR [ecx]
  0000f	89 08		 mov	 DWORD PTR [eax], ecx
$LN3@construct@2:

; 209  : 		}

  00011	5d		 pop	 ebp
  00012	c2 08 00	 ret	 8
??$construct@AAK@?$allocator@K@std@@QAEXPAKAAK@Z ENDP	; std::allocator<unsigned long>::construct<unsigned long &>
_TEXT	ENDS
PUBLIC	??$forward@ABK@std@@YAABKABK@Z			; std::forward<unsigned long const &>
; Function compile flags: /Ogsp
; File c:\program files (x86)\microsoft visual studio 10.0\vc\include\utility
;	COMDAT ??$forward@ABK@std@@YAABKABK@Z
_TEXT	SEGMENT
__Arg$ = 8						; size = 4
??$forward@ABK@std@@YAABKABK@Z PROC			; std::forward<unsigned long const &>, COMDAT

; 78   : 	{	// forward _Arg, given explicitly specified type parameter

  00000	55		 push	 ebp
  00001	8b ec		 mov	 ebp, esp

; 79   : 	return ((_Ty&&)_Arg);

  00003	8b 45 08	 mov	 eax, DWORD PTR __Arg$[ebp]

; 80   : 	}

  00006	5d		 pop	 ebp
  00007	c3		 ret	 0
??$forward@ABK@std@@YAABKABK@Z ENDP			; std::forward<unsigned long const &>
_TEXT	ENDS
PUBLIC	??$_Ptr_cat@VioHashString@@V1@@std@@YA?AU_Nonscalar_ptr_iterator_tag@0@PAVioHashString@@0@Z ; std::_Ptr_cat<ioHashString,ioHashString>
; Function compile flags: /Ogsp
; File c:\program files (x86)\microsoft visual studio 10.0\vc\include\xutility
;	COMDAT ??$_Ptr_cat@VioHashString@@V1@@std@@YA?AU_Nonscalar_ptr_iterator_tag@0@PAVioHashString@@0@Z
_TEXT	SEGMENT
__Cat$ = -1						; size = 1
___formal$ = 8						; size = 4
___formal$ = 12						; size = 4
??$_Ptr_cat@VioHashString@@V1@@std@@YA?AU_Nonscalar_ptr_iterator_tag@0@PAVioHashString@@0@Z PROC ; std::_Ptr_cat<ioHashString,ioHashString>, COMDAT

; 516  : 	{	// return pointer category from pointers

  00000	55		 push	 ebp
  00001	8b ec		 mov	 ebp, esp
  00003	51		 push	 ecx

; 517  : 	typename _Ptr_cat_helper<_Elem1, _Elem2>::_Type _Cat;
; 518  : 	return (_Cat);

  00004	8a 45 ff	 mov	 al, BYTE PTR __Cat$[ebp]

; 519  : 	}

  00007	c9		 leave
  00008	c3		 ret	 0
??$_Ptr_cat@VioHashString@@V1@@std@@YA?AU_Nonscalar_ptr_iterator_tag@0@PAVioHashString@@0@Z ENDP ; std::_Ptr_cat<ioHashString,ioHashString>
_TEXT	ENDS
PUBLIC	??$_Move@PAHPAH@std@@YAPAHPAH00U_Scalar_ptr_iterator_tag@0@@Z ; std::_Move<int *,int *>
; Function compile flags: /Ogsp
;	COMDAT ??$_Move@PAHPAH@std@@YAPAHPAH00U_Scalar_ptr_iterator_tag@0@@Z
_TEXT	SEGMENT
__First$ = 8						; size = 4
__Last$ = 12						; size = 4
__Dest$ = 16						; size = 4
___formal$ = 20						; size = 1
??$_Move@PAHPAH@std@@YAPAHPAH00U_Scalar_ptr_iterator_tag@0@@Z PROC ; std::_Move<int *,int *>, COMDAT

; 2522 : 	{	// move [_First, _Last) to [_Dest, ...), pointers to scalars

  00000	55		 push	 ebp
  00001	8b ec		 mov	 ebp, esp
  00003	56		 push	 esi

; 2523 : 	ptrdiff_t _Count = _Last - _First;

  00004	8b 75 0c	 mov	 esi, DWORD PTR __Last$[ebp]
  00007	2b 75 08	 sub	 esi, DWORD PTR __First$[ebp]
  0000a	57		 push	 edi

; 2524 : 	_CSTD memmove(&*_Dest, &*_First,
; 2525 : 		_Count * sizeof (*_First));

  0000b	8b 7d 10	 mov	 edi, DWORD PTR __Dest$[ebp]
  0000e	c1 fe 02	 sar	 esi, 2
  00011	c1 e6 02	 shl	 esi, 2
  00014	56		 push	 esi
  00015	ff 75 08	 push	 DWORD PTR __First$[ebp]
  00018	57		 push	 edi
  00019	ff 15 00 00 00
	00		 call	 DWORD PTR __imp__memmove
  0001f	83 c4 0c	 add	 esp, 12			; 0000000cH

; 2526 : 	return (_Dest + _Count);

  00022	8d 04 3e	 lea	 eax, DWORD PTR [esi+edi]
  00025	5f		 pop	 edi
  00026	5e		 pop	 esi

; 2527 : 	}

  00027	5d		 pop	 ebp
  00028	c3		 ret	 0
??$_Move@PAHPAH@std@@YAPAHPAH00U_Scalar_ptr_iterator_tag@0@@Z ENDP ; std::_Move<int *,int *>
_TEXT	ENDS
PUBLIC	??$_Ptr_cat@KK@std@@YA?AU_Scalar_ptr_iterator_tag@0@PAK0@Z ; std::_Ptr_cat<unsigned long,unsigned long>
; Function compile flags: /Ogsp
;	COMDAT ??$_Ptr_cat@KK@std@@YA?AU_Scalar_ptr_iterator_tag@0@PAK0@Z
_TEXT	SEGMENT
__Cat$ = -1						; size = 1
___formal$ = 8						; size = 4
___formal$ = 12						; size = 4
??$_Ptr_cat@KK@std@@YA?AU_Scalar_ptr_iterator_tag@0@PAK0@Z PROC ; std::_Ptr_cat<unsigned long,unsigned long>, COMDAT

; 516  : 	{	// return pointer category from pointers

  00000	55		 push	 ebp
  00001	8b ec		 mov	 ebp, esp
  00003	51		 push	 ecx

; 517  : 	typename _Ptr_cat_helper<_Elem1, _Elem2>::_Type _Cat;
; 518  : 	return (_Cat);

  00004	8a 45 ff	 mov	 al, BYTE PTR __Cat$[ebp]

; 519  : 	}

  00007	c9		 leave
  00008	c3		 ret	 0
??$_Ptr_cat@KK@std@@YA?AU_Scalar_ptr_iterator_tag@0@PAK0@Z ENDP ; std::_Ptr_cat<unsigned long,unsigned long>
_TEXT	ENDS
PUBLIC	??$_Move@PAKPAK@std@@YAPAKPAK00U_Scalar_ptr_iterator_tag@0@@Z ; std::_Move<unsigned long *,unsigned long *>
; Function compile flags: /Ogsp
;	COMDAT ??$_Move@PAKPAK@std@@YAPAKPAK00U_Scalar_ptr_iterator_tag@0@@Z
_TEXT	SEGMENT
__First$ = 8						; size = 4
__Last$ = 12						; size = 4
__Dest$ = 16						; size = 4
___formal$ = 20						; size = 1
??$_Move@PAKPAK@std@@YAPAKPAK00U_Scalar_ptr_iterator_tag@0@@Z PROC ; std::_Move<unsigned long *,unsigned long *>, COMDAT

; 2522 : 	{	// move [_First, _Last) to [_Dest, ...), pointers to scalars

  00000	55		 push	 ebp
  00001	8b ec		 mov	 ebp, esp
  00003	56		 push	 esi

; 2523 : 	ptrdiff_t _Count = _Last - _First;

  00004	8b 75 0c	 mov	 esi, DWORD PTR __Last$[ebp]
  00007	2b 75 08	 sub	 esi, DWORD PTR __First$[ebp]
  0000a	57		 push	 edi

; 2524 : 	_CSTD memmove(&*_Dest, &*_First,
; 2525 : 		_Count * sizeof (*_First));

  0000b	8b 7d 10	 mov	 edi, DWORD PTR __Dest$[ebp]
  0000e	c1 fe 02	 sar	 esi, 2
  00011	c1 e6 02	 shl	 esi, 2
  00014	56		 push	 esi
  00015	ff 75 08	 push	 DWORD PTR __First$[ebp]
  00018	57		 push	 edi
  00019	ff 15 00 00 00
	00		 call	 DWORD PTR __imp__memmove
  0001f	83 c4 0c	 add	 esp, 12			; 0000000cH

; 2526 : 	return (_Dest + _Count);

  00022	8d 04 3e	 lea	 eax, DWORD PTR [esi+edi]
  00025	5f		 pop	 edi
  00026	5e		 pop	 esi

; 2527 : 	}

  00027	5d		 pop	 ebp
  00028	c3		 ret	 0
??$_Move@PAKPAK@std@@YAPAKPAK00U_Scalar_ptr_iterator_tag@0@@Z ENDP ; std::_Move<unsigned long *,unsigned long *>
_TEXT	ENDS
PUBLIC	??$_Destroy_range@V?$allocator@H@std@@@std@@YAXPAH0AAV?$allocator@H@0@U_Scalar_ptr_iterator_tag@0@@Z ; std::_Destroy_range<std::allocator<int> >
; Function compile flags: /Ogsp
; File c:\program files (x86)\microsoft visual studio 10.0\vc\include\xmemory
;	COMDAT ??$_Destroy_range@V?$allocator@H@std@@@std@@YAXPAH0AAV?$allocator@H@0@U_Scalar_ptr_iterator_tag@0@@Z
_TEXT	SEGMENT
__First$ = 8						; size = 4
__Last$ = 12						; size = 4
__Al$ = 16						; size = 4
___formal$ = 20						; size = 1
??$_Destroy_range@V?$allocator@H@std@@@std@@YAXPAH0AAV?$allocator@H@0@U_Scalar_ptr_iterator_tag@0@@Z PROC ; std::_Destroy_range<std::allocator<int> >, COMDAT

; 105  : 	}

  00000	c3		 ret	 0
??$_Destroy_range@V?$allocator@H@std@@@std@@YAXPAH0AAV?$allocator@H@0@U_Scalar_ptr_iterator_tag@0@@Z ENDP ; std::_Destroy_range<std::allocator<int> >
_TEXT	ENDS
PUBLIC	??$_Destroy_range@V?$allocator@K@std@@@std@@YAXPAK0AAV?$allocator@K@0@U_Scalar_ptr_iterator_tag@0@@Z ; std::_Destroy_range<std::allocator<unsigned long> >
; Function compile flags: /Ogsp
;	COMDAT ??$_Destroy_range@V?$allocator@K@std@@@std@@YAXPAK0AAV?$allocator@K@0@U_Scalar_ptr_iterator_tag@0@@Z
_TEXT	SEGMENT
__First$ = 8						; size = 4
__Last$ = 12						; size = 4
__Al$ = 16						; size = 4
___formal$ = 20						; size = 1
??$_Destroy_range@V?$allocator@K@std@@@std@@YAXPAK0AAV?$allocator@K@0@U_Scalar_ptr_iterator_tag@0@@Z PROC ; std::_Destroy_range<std::allocator<unsigned long> >, COMDAT

; 105  : 	}

  00000	c3		 ret	 0
??$_Destroy_range@V?$allocator@K@std@@@std@@YAXPAK0AAV?$allocator@K@0@U_Scalar_ptr_iterator_tag@0@@Z ENDP ; std::_Destroy_range<std::allocator<unsigned long> >
_TEXT	ENDS
PUBLIC	??$_Construct@KABK@std@@YAXPAKABK@Z		; std::_Construct<unsigned long,unsigned long const &>
; Function compile flags: /Ogsp
;	COMDAT ??$_Construct@KABK@std@@YAXPAKABK@Z
_TEXT	SEGMENT
__Ptr$ = 8						; size = 4
__Val$ = 12						; size = 4
??$_Construct@KABK@std@@YAXPAKABK@Z PROC		; std::_Construct<unsigned long,unsigned long const &>, COMDAT

; 46   : 	{	// construct object at _Ptr with value _Val

  00000	55		 push	 ebp
  00001	8b ec		 mov	 ebp, esp

; 47   : 	void _FARQ *_Vptr = _Ptr;
; 48   : 	::new (_Vptr) _Ty1(_STD forward<_Ty2>(_Val));

  00003	8b 45 08	 mov	 eax, DWORD PTR __Ptr$[ebp]
  00006	85 c0		 test	 eax, eax
  00008	74 07		 je	 SHORT $LN3@Construct@3
  0000a	8b 4d 0c	 mov	 ecx, DWORD PTR __Val$[ebp]
  0000d	8b 09		 mov	 ecx, DWORD PTR [ecx]
  0000f	89 08		 mov	 DWORD PTR [eax], ecx
$LN3@Construct@3:

; 49   : 	}

  00011	5d		 pop	 ebp
  00012	c3		 ret	 0
??$_Construct@KABK@std@@YAXPAKABK@Z ENDP		; std::_Construct<unsigned long,unsigned long const &>
_TEXT	ENDS
PUBLIC	??$move@AAVioHashString@@@std@@YA$$QAVioHashString@@AAV1@@Z ; std::move<ioHashString &>
; Function compile flags: /Ogsp
; File c:\program files (x86)\microsoft visual studio 10.0\vc\include\utility
;	COMDAT ??$move@AAVioHashString@@@std@@YA$$QAVioHashString@@AAV1@@Z
_TEXT	SEGMENT
__Arg$ = 8						; size = 4
??$move@AAVioHashString@@@std@@YA$$QAVioHashString@@AAV1@@Z PROC ; std::move<ioHashString &>, COMDAT

; 86   : 	{	// forward _Arg as movable

  00000	55		 push	 ebp
  00001	8b ec		 mov	 ebp, esp

; 87   : 	return ((typename tr1::_Remove_reference<_Ty>::_Type&&)_Arg);

  00003	8b 45 08	 mov	 eax, DWORD PTR __Arg$[ebp]

; 88   : 	}

  00006	5d		 pop	 ebp
  00007	c3		 ret	 0
??$move@AAVioHashString@@@std@@YA$$QAVioHashString@@AAV1@@Z ENDP ; std::move<ioHashString &>
_TEXT	ENDS
PUBLIC	??$_Uninit_move@HHH@std@@YAPAHPAH00AAV?$allocator@H@0@0U_Scalar_ptr_iterator_tag@0@@Z ; std::_Uninit_move<int,int,int>
; Function compile flags: /Ogsp
; File c:\program files (x86)\microsoft visual studio 10.0\vc\include\memory
;	COMDAT ??$_Uninit_move@HHH@std@@YAPAHPAH00AAV?$allocator@H@0@0U_Scalar_ptr_iterator_tag@0@@Z
_TEXT	SEGMENT
__First$ = 8						; size = 4
__Last$ = 12						; size = 4
__Dest$ = 16						; size = 4
___formal$ = 20						; size = 4
___formal$ = 24						; size = 4
___formal$ = 28						; size = 1
??$_Uninit_move@HHH@std@@YAPAHPAH00AAV?$allocator@H@0@0U_Scalar_ptr_iterator_tag@0@@Z PROC ; std::_Uninit_move<int,int,int>, COMDAT

; 456  : 	{	// move [_First, _Last) to raw _Dest, scalar type

  00000	55		 push	 ebp
  00001	8b ec		 mov	 ebp, esp
  00003	56		 push	 esi

; 457  : 	_DEBUG_RANGE(_First, _Last);
; 458  : 	_DEBUG_POINTER(_Dest);
; 459  : 	size_t _Count = (size_t)(_Last - _First);

  00004	8b 75 0c	 mov	 esi, DWORD PTR __Last$[ebp]
  00007	2b 75 08	 sub	 esi, DWORD PTR __First$[ebp]
  0000a	c1 fe 02	 sar	 esi, 2

; 460  : 	return ((_Ty2 *)_CSTD memmove(&*_Dest, &*_First,
; 461  : 		_Count * sizeof (*_First)) + _Count);	// NB: non-overlapping move

  0000d	c1 e6 02	 shl	 esi, 2
  00010	56		 push	 esi
  00011	ff 75 08	 push	 DWORD PTR __First$[ebp]
  00014	ff 75 10	 push	 DWORD PTR __Dest$[ebp]
  00017	ff 15 00 00 00
	00		 call	 DWORD PTR __imp__memmove
  0001d	83 c4 0c	 add	 esp, 12			; 0000000cH
  00020	03 c6		 add	 eax, esi
  00022	5e		 pop	 esi

; 462  : 	}

  00023	5d		 pop	 ebp
  00024	c3		 ret	 0
??$_Uninit_move@HHH@std@@YAPAHPAH00AAV?$allocator@H@0@0U_Scalar_ptr_iterator_tag@0@@Z ENDP ; std::_Uninit_move<int,int,int>
_TEXT	ENDS
PUBLIC	??$_Val_type@PAK@std@@YAPAKPAK@Z		; std::_Val_type<unsigned long *>
; Function compile flags: /Ogsp
; File c:\program files (x86)\microsoft visual studio 10.0\vc\include\xutility
;	COMDAT ??$_Val_type@PAK@std@@YAPAKPAK@Z
_TEXT	SEGMENT
___formal$ = 8						; size = 4
??$_Val_type@PAK@std@@YAPAKPAK@Z PROC			; std::_Val_type<unsigned long *>, COMDAT

; 790  : 	return (0);

  00000	33 c0		 xor	 eax, eax

; 791  : 	}

  00002	c3		 ret	 0
??$_Val_type@PAK@std@@YAPAKPAK@Z ENDP			; std::_Val_type<unsigned long *>
_TEXT	ENDS
PUBLIC	??$_Uninit_move@KKK@std@@YAPAKPAK00AAV?$allocator@K@0@0U_Scalar_ptr_iterator_tag@0@@Z ; std::_Uninit_move<unsigned long,unsigned long,unsigned long>
; Function compile flags: /Ogsp
; File c:\program files (x86)\microsoft visual studio 10.0\vc\include\memory
;	COMDAT ??$_Uninit_move@KKK@std@@YAPAKPAK00AAV?$allocator@K@0@0U_Scalar_ptr_iterator_tag@0@@Z
_TEXT	SEGMENT
__First$ = 8						; size = 4
__Last$ = 12						; size = 4
__Dest$ = 16						; size = 4
___formal$ = 20						; size = 4
___formal$ = 24						; size = 4
___formal$ = 28						; size = 1
??$_Uninit_move@KKK@std@@YAPAKPAK00AAV?$allocator@K@0@0U_Scalar_ptr_iterator_tag@0@@Z PROC ; std::_Uninit_move<unsigned long,unsigned long,unsigned long>, COMDAT

; 456  : 	{	// move [_First, _Last) to raw _Dest, scalar type

  00000	55		 push	 ebp
  00001	8b ec		 mov	 ebp, esp
  00003	56		 push	 esi

; 457  : 	_DEBUG_RANGE(_First, _Last);
; 458  : 	_DEBUG_POINTER(_Dest);
; 459  : 	size_t _Count = (size_t)(_Last - _First);

  00004	8b 75 0c	 mov	 esi, DWORD PTR __Last$[ebp]
  00007	2b 75 08	 sub	 esi, DWORD PTR __First$[ebp]
  0000a	c1 fe 02	 sar	 esi, 2

; 460  : 	return ((_Ty2 *)_CSTD memmove(&*_Dest, &*_First,
; 461  : 		_Count * sizeof (*_First)) + _Count);	// NB: non-overlapping move

  0000d	c1 e6 02	 shl	 esi, 2
  00010	56		 push	 esi
  00011	ff 75 08	 push	 DWORD PTR __First$[ebp]
  00014	ff 75 10	 push	 DWORD PTR __Dest$[ebp]
  00017	ff 15 00 00 00
	00		 call	 DWORD PTR __imp__memmove
  0001d	83 c4 0c	 add	 esp, 12			; 0000000cH
  00020	03 c6		 add	 eax, esi
  00022	5e		 pop	 esi

; 462  : 	}

  00023	5d		 pop	 ebp
  00024	c3		 ret	 0
??$_Uninit_move@KKK@std@@YAPAKPAK00AAV?$allocator@K@0@0U_Scalar_ptr_iterator_tag@0@@Z ENDP ; std::_Uninit_move<unsigned long,unsigned long,unsigned long>
_TEXT	ENDS
PUBLIC	??_GioHashString@@QAEPAXI@Z			; ioHashString::`scalar deleting destructor'
EXTRN	__imp_??1ioHashString@@QAE@XZ:PROC
; Function compile flags: /Ogsp
;	COMDAT ??_GioHashString@@QAEPAXI@Z
_TEXT	SEGMENT
___flags$ = 8						; size = 4
??_GioHashString@@QAEPAXI@Z PROC			; ioHashString::`scalar deleting destructor', COMDAT
; _this$ = ecx
  00000	55		 push	 ebp
  00001	8b ec		 mov	 ebp, esp
  00003	56		 push	 esi
  00004	8b f1		 mov	 esi, ecx
  00006	ff 15 00 00 00
	00		 call	 DWORD PTR __imp_??1ioHashString@@QAE@XZ
  0000c	f6 45 08 01	 test	 BYTE PTR ___flags$[ebp], 1
  00010	74 07		 je	 SHORT $LN1@scalar@2
  00012	56		 push	 esi
  00013	e8 00 00 00 00	 call	 ??3@YAXPAX@Z		; operator delete
  00018	59		 pop	 ecx
$LN1@scalar@2:
  00019	8b c6		 mov	 eax, esi
  0001b	5e		 pop	 esi
  0001c	5d		 pop	 ebp
  0001d	c2 04 00	 ret	 4
??_GioHashString@@QAEPAXI@Z ENDP			; ioHashString::`scalar deleting destructor'
_TEXT	ENDS
PUBLIC	??$_Construct@VioHashString@@ABV1@@std@@YAXPAVioHashString@@ABV1@@Z ; std::_Construct<ioHashString,ioHashString const &>
EXTRN	__imp_??0ioHashString@@QAE@ABV0@@Z:PROC
EXTRN	___CxxFrameHandler3:PROC
EXTRN	@__security_check_cookie@4:PROC
EXTRN	__EH_epilog3:PROC
EXTRN	__EH_prolog3:PROC
;	COMDAT xdata$x
; File c:\program files (x86)\microsoft visual studio 10.0\vc\include\utility
xdata$x	SEGMENT
__unwindtable$??$_Construct@VioHashString@@ABV1@@std@@YAXPAVioHashString@@ABV1@@Z DD 0ffffffffH
	DD	FLAT:__unwindfunclet$??$_Construct@VioHashString@@ABV1@@std@@YAXPAVioHashString@@ABV1@@Z$0
__ehfuncinfo$??$_Construct@VioHashString@@ABV1@@std@@YAXPAVioHashString@@ABV1@@Z DD 019930522H
	DD	01H
	DD	FLAT:__unwindtable$??$_Construct@VioHashString@@ABV1@@std@@YAXPAVioHashString@@ABV1@@Z
	DD	2 DUP(00H)
	DD	2 DUP(00H)
	DD	00H
	DD	01H
; Function compile flags: /Ogsp
; File c:\program files (x86)\microsoft visual studio 10.0\vc\include\xmemory
xdata$x	ENDS
;	COMDAT ??$_Construct@VioHashString@@ABV1@@std@@YAXPAVioHashString@@ABV1@@Z
_TEXT	SEGMENT
$T552366 = -16						; size = 4
__$EHRec$ = -12						; size = 12
__Vptr$ = 8						; size = 4
__Ptr$ = 8						; size = 4
__Val$ = 12						; size = 4
??$_Construct@VioHashString@@ABV1@@std@@YAXPAVioHashString@@ABV1@@Z PROC ; std::_Construct<ioHashString,ioHashString const &>, COMDAT

; 46   : 	{	// construct object at _Ptr with value _Val

  00000	6a 04		 push	 4
  00002	b8 00 00 00 00	 mov	 eax, __ehhandler$??$_Construct@VioHashString@@ABV1@@std@@YAXPAVioHashString@@ABV1@@Z
  00007	e8 00 00 00 00	 call	 __EH_prolog3

; 47   : 	void _FARQ *_Vptr = _Ptr;

  0000c	8b 4d 08	 mov	 ecx, DWORD PTR __Ptr$[ebp]
  0000f	89 4d 08	 mov	 DWORD PTR __Vptr$[ebp], ecx

; 48   : 	::new (_Vptr) _Ty1(_STD forward<_Ty2>(_Val));

  00012	89 4d f0	 mov	 DWORD PTR $T552366[ebp], ecx
  00015	83 65 fc 00	 and	 DWORD PTR __$EHRec$[ebp+8], 0
  00019	85 c9		 test	 ecx, ecx
  0001b	74 09		 je	 SHORT $LN3@Construct@4
  0001d	ff 75 0c	 push	 DWORD PTR __Val$[ebp]
  00020	ff 15 00 00 00
	00		 call	 DWORD PTR __imp_??0ioHashString@@QAE@ABV0@@Z
$LN3@Construct@4:

; 49   : 	}

  00026	e8 00 00 00 00	 call	 __EH_epilog3
  0002b	c3		 ret	 0
_TEXT	ENDS
;	COMDAT text$x
text$x	SEGMENT
__unwindfunclet$??$_Construct@VioHashString@@ABV1@@std@@YAXPAVioHashString@@ABV1@@Z$0:
  00000	ff 75 08	 push	 DWORD PTR __Vptr$[ebp]
  00003	ff 75 f0	 push	 DWORD PTR $T552366[ebp]
  00006	e8 00 00 00 00	 call	 ??3@YAXPAX0@Z		; operator delete
  0000b	59		 pop	 ecx
  0000c	59		 pop	 ecx
  0000d	c3		 ret	 0
__ehhandler$??$_Construct@VioHashString@@ABV1@@std@@YAXPAVioHashString@@ABV1@@Z:
  0000e	8b 54 24 08	 mov	 edx, DWORD PTR [esp+8]
  00012	8d 42 0c	 lea	 eax, DWORD PTR [edx+12]
  00015	8b 4a ec	 mov	 ecx, DWORD PTR [edx-20]
  00018	33 c8		 xor	 ecx, eax
  0001a	e8 00 00 00 00	 call	 @__security_check_cookie@4
  0001f	b8 00 00 00 00	 mov	 eax, OFFSET __ehfuncinfo$??$_Construct@VioHashString@@ABV1@@std@@YAXPAVioHashString@@ABV1@@Z
  00024	e9 00 00 00 00	 jmp	 ___CxxFrameHandler3
text$x	ENDS
??$_Construct@VioHashString@@ABV1@@std@@YAXPAVioHashString@@ABV1@@Z ENDP ; std::_Construct<ioHashString,ioHashString const &>
PUBLIC	??_R0?AVioBaseChar@@@8				; ioBaseChar `RTTI Type Descriptor'
PUBLIC	?ToBaseChar@@YAPAVioBaseChar@@PAVioGameEntity@@@Z ; ToBaseChar
;	COMDAT ??_R0?AVioBaseChar@@@8
; File d:\lost saga for developer\youtube\tutorial\source\src\lsclient\iobasechar.h
_DATA	SEGMENT
??_R0?AVioBaseChar@@@8 DD FLAT:??_7type_info@@6B@	; ioBaseChar `RTTI Type Descriptor'
	DD	00H
	DB	'.?AVioBaseChar@@', 00H
; Function compile flags: /Ogsp
_DATA	ENDS
;	COMDAT ?ToBaseChar@@YAPAVioBaseChar@@PAVioGameEntity@@@Z
_TEXT	SEGMENT
_pObj$ = 8						; size = 4
?ToBaseChar@@YAPAVioBaseChar@@PAVioGameEntity@@@Z PROC	; ToBaseChar, COMDAT

; 4326 : {

  00000	55		 push	 ebp
  00001	8b ec		 mov	 ebp, esp
  00003	56		 push	 esi

; 4327 : 	ioPlayEntity *pPlay = ToPlayEntity( pObj );

  00004	ff 75 08	 push	 DWORD PTR _pObj$[ebp]
  00007	e8 00 00 00 00	 call	 ?ToPlayEntity@@YAPAVioPlayEntity@@PAVioGameEntity@@@Z ; ToPlayEntity
  0000c	8b f0		 mov	 esi, eax
  0000e	59		 pop	 ecx

; 4328 : 	if( !pPlay || pPlay->GetSubType() != ioPlayEntity::PST_CHAR )

  0000f	85 f6		 test	 esi, esi
  00011	74 25		 je	 SHORT $LN1@ToBaseChar
  00013	8b 06		 mov	 eax, DWORD PTR [esi]
  00015	8b ce		 mov	 ecx, esi
  00017	ff 90 a4 00 00
	00		 call	 DWORD PTR [eax+164]
  0001d	85 c0		 test	 eax, eax
  0001f	75 17		 jne	 SHORT $LN1@ToBaseChar

; 4330 : 
; 4331 : 	return dynamic_cast< ioBaseChar* >( pPlay );

  00021	50		 push	 eax
  00022	68 00 00 00 00	 push	 OFFSET ??_R0?AVioBaseChar@@@8
  00027	68 00 00 00 00	 push	 OFFSET ??_R0?AVioPlayEntity@@@8
  0002c	50		 push	 eax
  0002d	56		 push	 esi
  0002e	e8 00 00 00 00	 call	 ___RTDynamicCast
  00033	83 c4 14	 add	 esp, 20			; 00000014H
  00036	eb 02		 jmp	 SHORT $LN3@ToBaseChar
$LN1@ToBaseChar:

; 4329 : 		return NULL;

  00038	33 c0		 xor	 eax, eax
$LN3@ToBaseChar:
  0003a	5e		 pop	 esi

; 4332 : }

  0003b	5d		 pop	 ebp
  0003c	c3		 ret	 0
?ToBaseChar@@YAPAVioBaseChar@@PAVioGameEntity@@@Z ENDP	; ToBaseChar
_TEXT	ENDS
PUBLIC	??_R0?AVioNpcChar@@@8				; ioNpcChar `RTTI Type Descriptor'
PUBLIC	?ToNpcChar@@YAPAVioNpcChar@@PAVioGameEntity@@@Z	; ToNpcChar
;	COMDAT ??_R0?AVioNpcChar@@@8
; File d:\lost saga for developer\youtube\tutorial\source\src\lsclient\ionpcchar.h
_DATA	SEGMENT
??_R0?AVioNpcChar@@@8 DD FLAT:??_7type_info@@6B@	; ioNpcChar `RTTI Type Descriptor'
	DD	00H
	DB	'.?AVioNpcChar@@', 00H
; Function compile flags: /Ogsp
_DATA	ENDS
;	COMDAT ?ToNpcChar@@YAPAVioNpcChar@@PAVioGameEntity@@@Z
_TEXT	SEGMENT
_pObj$ = 8						; size = 4
?ToNpcChar@@YAPAVioNpcChar@@PAVioGameEntity@@@Z PROC	; ToNpcChar, COMDAT

; 361  : {

  00000	55		 push	 ebp
  00001	8b ec		 mov	 ebp, esp
  00003	56		 push	 esi

; 362  : 	ioBaseChar *pChar = ToBaseChar( pObj );

  00004	ff 75 08	 push	 DWORD PTR _pObj$[ebp]
  00007	e8 00 00 00 00	 call	 ?ToBaseChar@@YAPAVioBaseChar@@PAVioGameEntity@@@Z ; ToBaseChar
  0000c	8b f0		 mov	 esi, eax
  0000e	59		 pop	 ecx

; 363  : 	if( !pChar || pChar->GetControlType() != CONTROL_AI )

  0000f	85 f6		 test	 esi, esi
  00011	74 28		 je	 SHORT $LN1@ToNpcChar
  00013	8b 06		 mov	 eax, DWORD PTR [esi]
  00015	8b ce		 mov	 ecx, esi
  00017	ff 90 ec 00 00
	00		 call	 DWORD PTR [eax+236]
  0001d	83 f8 02	 cmp	 eax, 2
  00020	75 19		 jne	 SHORT $LN1@ToNpcChar

; 365  : 
; 366  : 	return dynamic_cast< ioNpcChar* >(pChar);

  00022	6a 00		 push	 0
  00024	68 00 00 00 00	 push	 OFFSET ??_R0?AVioNpcChar@@@8
  00029	68 00 00 00 00	 push	 OFFSET ??_R0?AVioBaseChar@@@8
  0002e	6a 00		 push	 0
  00030	56		 push	 esi
  00031	e8 00 00 00 00	 call	 ___RTDynamicCast
  00036	83 c4 14	 add	 esp, 20			; 00000014H
  00039	eb 02		 jmp	 SHORT $LN3@ToNpcChar
$LN1@ToNpcChar:

; 364  : 		return NULL;

  0003b	33 c0		 xor	 eax, eax
$LN3@ToNpcChar:
  0003d	5e		 pop	 esi

; 367  : }

  0003e	5d		 pop	 ebp
  0003f	c3		 ret	 0
?ToNpcChar@@YAPAVioNpcChar@@PAVioGameEntity@@@Z ENDP	; ToNpcChar
_TEXT	ENDS
PUBLIC	??D?$_Vector_iterator@V?$_Vector_val@HV?$allocator@H@std@@@std@@@std@@QBEAAHXZ ; std::_Vector_iterator<std::_Vector_val<int,std::allocator<int> > >::operator*
; Function compile flags: /Ogsp
; File c:\program files (x86)\microsoft visual studio 10.0\vc\include\vector
;	COMDAT ??D?$_Vector_iterator@V?$_Vector_val@HV?$allocator@H@std@@@std@@@std@@QBEAAHXZ
_TEXT	SEGMENT
??D?$_Vector_iterator@V?$_Vector_val@HV?$allocator@H@std@@@std@@@std@@QBEAAHXZ PROC ; std::_Vector_iterator<std::_Vector_val<int,std::allocator<int> > >::operator*, COMDAT
; _this$ = ecx

; 322  : 		return ((reference)**(_Mybase *)this);

  00000	8b 01		 mov	 eax, DWORD PTR [ecx]

; 323  : 		}

  00002	c3		 ret	 0
??D?$_Vector_iterator@V?$_Vector_val@HV?$allocator@H@std@@@std@@@std@@QBEAAHXZ ENDP ; std::_Vector_iterator<std::_Vector_val<int,std::allocator<int> > >::operator*
_TEXT	ENDS
PUBLIC	??E?$_Vector_iterator@V?$_Vector_val@HV?$allocator@H@std@@@std@@@std@@QAEAAV01@XZ ; std::_Vector_iterator<std::_Vector_val<int,std::allocator<int> > >::operator++
; Function compile flags: /Ogsp
;	COMDAT ??E?$_Vector_iterator@V?$_Vector_val@HV?$allocator@H@std@@@std@@@std@@QAEAAV01@XZ
_TEXT	SEGMENT
??E?$_Vector_iterator@V?$_Vector_val@HV?$allocator@H@std@@@std@@@std@@QAEAAV01@XZ PROC ; std::_Vector_iterator<std::_Vector_val<int,std::allocator<int> > >::operator++, COMDAT
; _this$ = ecx

; 331  : 		{	// preincrement

  00000	8b c1		 mov	 eax, ecx

; 332  : 		++*(_Mybase *)this;

  00002	83 00 04	 add	 DWORD PTR [eax], 4

; 333  : 		return (*this);
; 334  : 		}

  00005	c3		 ret	 0
??E?$_Vector_iterator@V?$_Vector_val@HV?$allocator@H@std@@@std@@@std@@QAEAAV01@XZ ENDP ; std::_Vector_iterator<std::_Vector_val<int,std::allocator<int> > >::operator++
_TEXT	ENDS
PUBLIC	??D?$_Vector_iterator@V?$_Vector_val@PAUUserInfo@UserInfoToolTip@@V?$allocator@PAUUserInfo@UserInfoToolTip@@@std@@@std@@@std@@QBEAAPAUUserInfo@UserInfoToolTip@@XZ ; std::_Vector_iterator<std::_Vector_val<UserInfoToolTip::UserInfo *,std::allocator<UserInfoToolTip::UserInfo *> > >::operator*
; Function compile flags: /Ogsp
;	COMDAT ??D?$_Vector_iterator@V?$_Vector_val@PAUUserInfo@UserInfoToolTip@@V?$allocator@PAUUserInfo@UserInfoToolTip@@@std@@@std@@@std@@QBEAAPAUUserInfo@UserInfoToolTip@@XZ
_TEXT	SEGMENT
??D?$_Vector_iterator@V?$_Vector_val@PAUUserInfo@UserInfoToolTip@@V?$allocator@PAUUserInfo@UserInfoToolTip@@@std@@@std@@@std@@QBEAAPAUUserInfo@UserInfoToolTip@@XZ PROC ; std::_Vector_iterator<std::_Vector_val<UserInfoToolTip::UserInfo *,std::allocator<UserInfoToolTip::UserInfo *> > >::operator*, COMDAT
; _this$ = ecx

; 322  : 		return ((reference)**(_Mybase *)this);

  00000	8b 01		 mov	 eax, DWORD PTR [ecx]

; 323  : 		}

  00002	c3		 ret	 0
??D?$_Vector_iterator@V?$_Vector_val@PAUUserInfo@UserInfoToolTip@@V?$allocator@PAUUserInfo@UserInfoToolTip@@@std@@@std@@@std@@QBEAAPAUUserInfo@UserInfoToolTip@@XZ ENDP ; std::_Vector_iterator<std::_Vector_val<UserInfoToolTip::UserInfo *,std::allocator<UserInfoToolTip::UserInfo *> > >::operator*
_TEXT	ENDS
PUBLIC	??E?$_Vector_iterator@V?$_Vector_val@PAUUserInfo@UserInfoToolTip@@V?$allocator@PAUUserInfo@UserInfoToolTip@@@std@@@std@@@std@@QAEAAV01@XZ ; std::_Vector_iterator<std::_Vector_val<UserInfoToolTip::UserInfo *,std::allocator<UserInfoToolTip::UserInfo *> > >::operator++
; Function compile flags: /Ogsp
;	COMDAT ??E?$_Vector_iterator@V?$_Vector_val@PAUUserInfo@UserInfoToolTip@@V?$allocator@PAUUserInfo@UserInfoToolTip@@@std@@@std@@@std@@QAEAAV01@XZ
_TEXT	SEGMENT
??E?$_Vector_iterator@V?$_Vector_val@PAUUserInfo@UserInfoToolTip@@V?$allocator@PAUUserInfo@UserInfoToolTip@@@std@@@std@@@std@@QAEAAV01@XZ PROC ; std::_Vector_iterator<std::_Vector_val<UserInfoToolTip::UserInfo *,std::allocator<UserInfoToolTip::UserInfo *> > >::operator++, COMDAT
; _this$ = ecx

; 331  : 		{	// preincrement

  00000	8b c1		 mov	 eax, ecx

; 332  : 		++*(_Mybase *)this;

  00002	83 00 04	 add	 DWORD PTR [eax], 4

; 333  : 		return (*this);
; 334  : 		}

  00005	c3		 ret	 0
??E?$_Vector_iterator@V?$_Vector_val@PAUUserInfo@UserInfoToolTip@@V?$allocator@PAUUserInfo@UserInfoToolTip@@@std@@@std@@@std@@QAEAAV01@XZ ENDP ; std::_Vector_iterator<std::_Vector_val<UserInfoToolTip::UserInfo *,std::allocator<UserInfoToolTip::UserInfo *> > >::operator++
_TEXT	ENDS
PUBLIC	??0?$_Vector_val@UExpandMedalSlot@ioExpandMedalSlotManager@@V?$allocator@UExpandMedalSlot@ioExpandMedalSlotManager@@@std@@@std@@QAE@V?$allocator@UExpandMedalSlot@ioExpandMedalSlotManager@@@1@@Z ; std::_Vector_val<ioExpandMedalSlotManager::ExpandMedalSlot,std::allocator<ioExpandMedalSlotManager::ExpandMedalSlot> >::_Vector_val<ioExpandMedalSlotManager::ExpandMedalSlot,std::allocator<ioExpandMedalSlotManager::ExpandMedalSlot> >
; Function compile flags: /Ogsp
;	COMDAT ??0?$_Vector_val@UExpandMedalSlot@ioExpandMedalSlotManager@@V?$allocator@UExpandMedalSlot@ioExpandMedalSlotManager@@@std@@@std@@QAE@V?$allocator@UExpandMedalSlot@ioExpandMedalSlotManager@@@1@@Z
_TEXT	SEGMENT
__Al$ = 8						; size = 1
??0?$_Vector_val@UExpandMedalSlot@ioExpandMedalSlotManager@@V?$allocator@UExpandMedalSlot@ioExpandMedalSlotManager@@@std@@@std@@QAE@V?$allocator@UExpandMedalSlot@ioExpandMedalSlotManager@@@1@@Z PROC ; std::_Vector_val<ioExpandMedalSlotManager::ExpandMedalSlot,std::allocator<ioExpandMedalSlotManager::ExpandMedalSlot> >::_Vector_val<ioExpandMedalSlotManager::ExpandMedalSlot,std::allocator<ioExpandMedalSlotManager::ExpandMedalSlot> >, COMDAT
; _this$ = ecx

; 426  : 		{	// construct allocator from _Al

  00000	8b c1		 mov	 eax, ecx

; 427  : 		_Myfirst = 0;

  00002	33 c9		 xor	 ecx, ecx
  00004	89 08		 mov	 DWORD PTR [eax], ecx

; 428  : 		_Mylast = 0;

  00006	89 48 04	 mov	 DWORD PTR [eax+4], ecx

; 429  : 		_Myend = 0;

  00009	89 48 08	 mov	 DWORD PTR [eax+8], ecx

; 430  : 		}

  0000c	c2 04 00	 ret	 4
??0?$_Vector_val@UExpandMedalSlot@ioExpandMedalSlotManager@@V?$allocator@UExpandMedalSlot@ioExpandMedalSlotManager@@@std@@@std@@QAE@V?$allocator@UExpandMedalSlot@ioExpandMedalSlotManager@@@1@@Z ENDP ; std::_Vector_val<ioExpandMedalSlotManager::ExpandMedalSlot,std::allocator<ioExpandMedalSlotManager::ExpandMedalSlot> >::_Vector_val<ioExpandMedalSlotManager::ExpandMedalSlot,std::allocator<ioExpandMedalSlotManager::ExpandMedalSlot> >
_TEXT	ENDS
PUBLIC	??0?$_Vector_val@PAUUserInfo@UserInfoToolTip@@V?$allocator@PAUUserInfo@UserInfoToolTip@@@std@@@std@@QAE@V?$allocator@PAUUserInfo@UserInfoToolTip@@@1@@Z ; std::_Vector_val<UserInfoToolTip::UserInfo *,std::allocator<UserInfoToolTip::UserInfo *> >::_Vector_val<UserInfoToolTip::UserInfo *,std::allocator<UserInfoToolTip::UserInfo *> >
; Function compile flags: /Ogsp
;	COMDAT ??0?$_Vector_val@PAUUserInfo@UserInfoToolTip@@V?$allocator@PAUUserInfo@UserInfoToolTip@@@std@@@std@@QAE@V?$allocator@PAUUserInfo@UserInfoToolTip@@@1@@Z
_TEXT	SEGMENT
__Al$ = 8						; size = 1
??0?$_Vector_val@PAUUserInfo@UserInfoToolTip@@V?$allocator@PAUUserInfo@UserInfoToolTip@@@std@@@std@@QAE@V?$allocator@PAUUserInfo@UserInfoToolTip@@@1@@Z PROC ; std::_Vector_val<UserInfoToolTip::UserInfo *,std::allocator<UserInfoToolTip::UserInfo *> >::_Vector_val<UserInfoToolTip::UserInfo *,std::allocator<UserInfoToolTip::UserInfo *> >, COMDAT
; _this$ = ecx

; 426  : 		{	// construct allocator from _Al

  00000	8b c1		 mov	 eax, ecx

; 427  : 		_Myfirst = 0;

  00002	33 c9		 xor	 ecx, ecx
  00004	89 08		 mov	 DWORD PTR [eax], ecx

; 428  : 		_Mylast = 0;

  00006	89 48 04	 mov	 DWORD PTR [eax+4], ecx

; 429  : 		_Myend = 0;

  00009	89 48 08	 mov	 DWORD PTR [eax+8], ecx

; 430  : 		}

  0000c	c2 04 00	 ret	 4
??0?$_Vector_val@PAUUserInfo@UserInfoToolTip@@V?$allocator@PAUUserInfo@UserInfoToolTip@@@std@@@std@@QAE@V?$allocator@PAUUserInfo@UserInfoToolTip@@@1@@Z ENDP ; std::_Vector_val<UserInfoToolTip::UserInfo *,std::allocator<UserInfoToolTip::UserInfo *> >::_Vector_val<UserInfoToolTip::UserInfo *,std::allocator<UserInfoToolTip::UserInfo *> >
_TEXT	ENDS
PUBLIC	??0?$_Vector_iterator@V?$_Vector_val@PAUUserInfo@UserInfoToolTip@@V?$allocator@PAUUserInfo@UserInfoToolTip@@@std@@@std@@@std@@QAE@PAPAUUserInfo@UserInfoToolTip@@PBU_Container_base0@1@@Z ; std::_Vector_iterator<std::_Vector_val<UserInfoToolTip::UserInfo *,std::allocator<UserInfoToolTip::UserInfo *> > >::_Vector_iterator<std::_Vector_val<UserInfoToolTip::UserInfo *,std::allocator<UserInfoToolTip::UserInfo *> > >
; Function compile flags: /Ogsp
;	COMDAT ??0?$_Vector_iterator@V?$_Vector_val@PAUUserInfo@UserInfoToolTip@@V?$allocator@PAUUserInfo@UserInfoToolTip@@@std@@@std@@@std@@QAE@PAPAUUserInfo@UserInfoToolTip@@PBU_Container_base0@1@@Z
_TEXT	SEGMENT
__Parg$ = 8						; size = 4
__Pvector$ = 12						; size = 4
??0?$_Vector_iterator@V?$_Vector_val@PAUUserInfo@UserInfoToolTip@@V?$allocator@PAUUserInfo@UserInfoToolTip@@@std@@@std@@@std@@QAE@PAPAUUserInfo@UserInfoToolTip@@PBU_Container_base0@1@@Z PROC ; std::_Vector_iterator<std::_Vector_val<UserInfoToolTip::UserInfo *,std::allocator<UserInfoToolTip::UserInfo *> > >::_Vector_iterator<std::_Vector_val<UserInfoToolTip::UserInfo *,std::allocator<UserInfoToolTip::UserInfo *> > >, COMDAT
; _this$ = ecx

; 304  : 		{	// construct with pointer _Parg

  00000	55		 push	 ebp
  00001	8b ec		 mov	 ebp, esp
  00003	8b c1		 mov	 eax, ecx
  00005	8b 4d 08	 mov	 ecx, DWORD PTR __Parg$[ebp]
  00008	89 08		 mov	 DWORD PTR [eax], ecx

; 305  : 		}

  0000a	5d		 pop	 ebp
  0000b	c2 08 00	 ret	 8
??0?$_Vector_iterator@V?$_Vector_val@PAUUserInfo@UserInfoToolTip@@V?$allocator@PAUUserInfo@UserInfoToolTip@@@std@@@std@@@std@@QAE@PAPAUUserInfo@UserInfoToolTip@@PBU_Container_base0@1@@Z ENDP ; std::_Vector_iterator<std::_Vector_val<UserInfoToolTip::UserInfo *,std::allocator<UserInfoToolTip::UserInfo *> > >::_Vector_iterator<std::_Vector_val<UserInfoToolTip::UserInfo *,std::allocator<UserInfoToolTip::UserInfo *> > >
_TEXT	ENDS
PUBLIC	??8?$_Vector_const_iterator@V?$_Vector_val@PAUUserInfo@UserInfoToolTip@@V?$allocator@PAUUserInfo@UserInfoToolTip@@@std@@@std@@@std@@QBE_NABV01@@Z ; std::_Vector_const_iterator<std::_Vector_val<UserInfoToolTip::UserInfo *,std::allocator<UserInfoToolTip::UserInfo *> > >::operator==
; Function compile flags: /Ogsp
;	COMDAT ??8?$_Vector_const_iterator@V?$_Vector_val@PAUUserInfo@UserInfoToolTip@@V?$allocator@PAUUserInfo@UserInfoToolTip@@@std@@@std@@@std@@QBE_NABV01@@Z
_TEXT	SEGMENT
__Right$ = 8						; size = 4
??8?$_Vector_const_iterator@V?$_Vector_val@PAUUserInfo@UserInfoToolTip@@V?$allocator@PAUUserInfo@UserInfoToolTip@@@std@@@std@@@std@@QBE_NABV01@@Z PROC ; std::_Vector_const_iterator<std::_Vector_val<UserInfoToolTip::UserInfo *,std::allocator<UserInfoToolTip::UserInfo *> > >::operator==, COMDAT
; _this$ = ecx

; 201  : 		{	// test for iterator equality

  00000	55		 push	 ebp
  00001	8b ec		 mov	 ebp, esp

; 202  : 		_Compat(_Right);
; 203  : 		return (this->_Ptr == _Right._Ptr);

  00003	8b 01		 mov	 eax, DWORD PTR [ecx]
  00005	8b 4d 08	 mov	 ecx, DWORD PTR __Right$[ebp]
  00008	2b 01		 sub	 eax, DWORD PTR [ecx]
  0000a	f7 d8		 neg	 eax
  0000c	1b c0		 sbb	 eax, eax
  0000e	40		 inc	 eax

; 204  : 		}

  0000f	5d		 pop	 ebp
  00010	c2 04 00	 ret	 4
??8?$_Vector_const_iterator@V?$_Vector_val@PAUUserInfo@UserInfoToolTip@@V?$allocator@PAUUserInfo@UserInfoToolTip@@@std@@@std@@@std@@QBE_NABV01@@Z ENDP ; std::_Vector_const_iterator<std::_Vector_val<UserInfoToolTip::UserInfo *,std::allocator<UserInfoToolTip::UserInfo *> > >::operator==
_TEXT	ENDS
PUBLIC	?max_size@?$vector@PAUUserInfo@UserInfoToolTip@@V?$allocator@PAUUserInfo@UserInfoToolTip@@@std@@@std@@QBEIXZ ; std::vector<UserInfoToolTip::UserInfo *,std::allocator<UserInfoToolTip::UserInfo *> >::max_size
; Function compile flags: /Ogsp
;	COMDAT ?max_size@?$vector@PAUUserInfo@UserInfoToolTip@@V?$allocator@PAUUserInfo@UserInfoToolTip@@@std@@@std@@QBEIXZ
_TEXT	SEGMENT
?max_size@?$vector@PAUUserInfo@UserInfoToolTip@@V?$allocator@PAUUserInfo@UserInfoToolTip@@@std@@@std@@QBEIXZ PROC ; std::vector<UserInfoToolTip::UserInfo *,std::allocator<UserInfoToolTip::UserInfo *> >::max_size, COMDAT
; _this$ = ecx

; 884  : 		return (this->_Alval.max_size());

  00000	b8 ff ff ff 3f	 mov	 eax, 1073741823		; 3fffffffH

; 885  : 		}

  00005	c3		 ret	 0
?max_size@?$vector@PAUUserInfo@UserInfoToolTip@@V?$allocator@PAUUserInfo@UserInfoToolTip@@@std@@@std@@QBEIXZ ENDP ; std::vector<UserInfoToolTip::UserInfo *,std::allocator<UserInfoToolTip::UserInfo *> >::max_size
_TEXT	ENDS
PUBLIC	?_Grow_to@?$vector@PAUUserInfo@UserInfoToolTip@@V?$allocator@PAUUserInfo@UserInfoToolTip@@@std@@@std@@IBEII@Z ; std::vector<UserInfoToolTip::UserInfo *,std::allocator<UserInfoToolTip::UserInfo *> >::_Grow_to
; Function compile flags: /Ogsp
;	COMDAT ?_Grow_to@?$vector@PAUUserInfo@UserInfoToolTip@@V?$allocator@PAUUserInfo@UserInfoToolTip@@@std@@@std@@IBEII@Z
_TEXT	SEGMENT
__Count$ = 8						; size = 4
?_Grow_to@?$vector@PAUUserInfo@UserInfoToolTip@@V?$allocator@PAUUserInfo@UserInfoToolTip@@@std@@@std@@IBEII@Z PROC ; std::vector<UserInfoToolTip::UserInfo *,std::allocator<UserInfoToolTip::UserInfo *> >::_Grow_to, COMDAT
; _this$ = ecx

; 1274 : 		{	// grow by 50% or at least to _Count

  00000	55		 push	 ebp
  00001	8b ec		 mov	 ebp, esp

; 1275 : 		size_type _Capacity = capacity();

  00003	8b 41 08	 mov	 eax, DWORD PTR [ecx+8]
  00006	2b 01		 sub	 eax, DWORD PTR [ecx]

; 1276 : 
; 1277 : 		_Capacity = max_size() - _Capacity / 2 < _Capacity
; 1278 : 			? 0 : _Capacity + _Capacity / 2;	// try to grow by 50%

  00008	ba ff ff ff 3f	 mov	 edx, 1073741823		; 3fffffffH
  0000d	c1 f8 02	 sar	 eax, 2
  00010	8b c8		 mov	 ecx, eax
  00012	d1 e9		 shr	 ecx, 1
  00014	2b d1		 sub	 edx, ecx
  00016	3b d0		 cmp	 edx, eax
  00018	73 04		 jae	 SHORT $LN4@Grow_to
  0001a	33 c0		 xor	 eax, eax
  0001c	eb 02		 jmp	 SHORT $LN5@Grow_to
$LN4@Grow_to:
  0001e	03 c1		 add	 eax, ecx
$LN5@Grow_to:

; 1279 : 		if (_Capacity < _Count)

  00020	3b 45 08	 cmp	 eax, DWORD PTR __Count$[ebp]

; 1280 : 			_Capacity = _Count;

  00023	0f 42 45 08	 cmovb	 eax, DWORD PTR __Count$[ebp]

; 1281 : 		return (_Capacity);
; 1282 : 		}

  00027	5d		 pop	 ebp
  00028	c2 04 00	 ret	 4
?_Grow_to@?$vector@PAUUserInfo@UserInfoToolTip@@V?$allocator@PAUUserInfo@UserInfoToolTip@@@std@@@std@@IBEII@Z ENDP ; std::vector<UserInfoToolTip::UserInfo *,std::allocator<UserInfoToolTip::UserInfo *> >::_Grow_to
_TEXT	ENDS
PUBLIC	?allocate@?$allocator@PAUUserInfo@UserInfoToolTip@@@std@@QAEPAPAUUserInfo@UserInfoToolTip@@I@Z ; std::allocator<UserInfoToolTip::UserInfo *>::allocate
; Function compile flags: /Ogsp
; File c:\program files (x86)\microsoft visual studio 10.0\vc\include\xmemory
;	COMDAT ?allocate@?$allocator@PAUUserInfo@UserInfoToolTip@@@std@@QAEPAPAUUserInfo@UserInfoToolTip@@I@Z
_TEXT	SEGMENT
__Count$ = 8						; size = 4
?allocate@?$allocator@PAUUserInfo@UserInfoToolTip@@@std@@QAEPAPAUUserInfo@UserInfoToolTip@@I@Z PROC ; std::allocator<UserInfoToolTip::UserInfo *>::allocate, COMDAT
; _this$ = ecx

; 186  : 		{	// allocate array of _Count elements

  00000	55		 push	 ebp
  00001	8b ec		 mov	 ebp, esp

; 187  : 		return (_Allocate(_Count, (pointer)0));

  00003	6a 00		 push	 0
  00005	ff 75 08	 push	 DWORD PTR __Count$[ebp]
  00008	e8 00 00 00 00	 call	 ??$_Allocate@PAUUserInfo@UserInfoToolTip@@@std@@YAPAPAUUserInfo@UserInfoToolTip@@IPAPAU12@@Z ; std::_Allocate<UserInfoToolTip::UserInfo *>
  0000d	59		 pop	 ecx
  0000e	59		 pop	 ecx

; 188  : 		}

  0000f	5d		 pop	 ebp
  00010	c2 04 00	 ret	 4
?allocate@?$allocator@PAUUserInfo@UserInfoToolTip@@@std@@QAEPAPAUUserInfo@UserInfoToolTip@@I@Z ENDP ; std::allocator<UserInfoToolTip::UserInfo *>::allocate
_TEXT	ENDS
PUBLIC	__$ArrayPad$
PUBLIC	??$?8$08@@YA_NABVioHashString@@AAY08$$CBD@Z	; operator==<9>
EXTRN	___security_cookie:DWORD
; Function compile flags: /Ogsp
; File d:\lost saga for developer\youtube\tutorial\source\src\io3dengine\iohashstring.h
;	COMDAT ??$?8$08@@YA_NABVioHashString@@AAY08$$CBD@Z
_TEXT	SEGMENT
__t$ = -20						; size = 9
__$ArrayPad$ = -4					; size = 4
_lhs$ = 8						; size = 4
_t$ = 12						; size = 4
??$?8$08@@YA_NABVioHashString@@AAY08$$CBD@Z PROC	; operator==<9>, COMDAT

; 146  : {

  00000	55		 push	 ebp
  00001	8b ec		 mov	 ebp, esp
  00003	83 ec 14	 sub	 esp, 20			; 00000014H
  00006	a1 00 00 00 00	 mov	 eax, DWORD PTR ___security_cookie
  0000b	33 c5		 xor	 eax, ebp
  0000d	89 45 fc	 mov	 DWORD PTR __$ArrayPad$[ebp], eax
  00010	8b 45 0c	 mov	 eax, DWORD PTR _t$[ebp]

; 147  : 	_ENCSTR(t, _t); return ( strcmp( lhs.c_str(), _t ) == 0 );

  00013	8a 10		 mov	 dl, BYTE PTR [eax]
  00015	8b 4d 08	 mov	 ecx, DWORD PTR _lhs$[ebp]
  00018	84 d2		 test	 dl, dl
  0001a	0f 84 ee 00 00
	00		 je	 $LN96@operator
  00020	80 f2 ed	 xor	 dl, -19			; ffffffedH
  00023	88 55 ec	 mov	 BYTE PTR __t$[ebp], dl
  00026	8a 50 01	 mov	 dl, BYTE PTR [eax+1]
  00029	84 d2		 test	 dl, dl
  0002b	0f 84 d7 00 00
	00		 je	 $LN95@operator
  00031	80 f2 ec	 xor	 dl, -20			; ffffffecH
  00034	88 55 ed	 mov	 BYTE PTR __t$[ebp+1], dl
  00037	8a 50 02	 mov	 dl, BYTE PTR [eax+2]
  0003a	84 d2		 test	 dl, dl
  0003c	0f 84 c0 00 00
	00		 je	 $LN94@operator
  00042	80 f2 eb	 xor	 dl, -21			; ffffffebH
  00045	88 55 ee	 mov	 BYTE PTR __t$[ebp+2], dl
  00048	8a 50 03	 mov	 dl, BYTE PTR [eax+3]
  0004b	84 d2		 test	 dl, dl
  0004d	0f 84 a9 00 00
	00		 je	 $LN93@operator
  00053	80 f2 ea	 xor	 dl, -22			; ffffffeaH
  00056	88 55 ef	 mov	 BYTE PTR __t$[ebp+3], dl
  00059	8a 50 04	 mov	 dl, BYTE PTR [eax+4]
  0005c	84 d2		 test	 dl, dl
  0005e	0f 84 92 00 00
	00		 je	 $LN92@operator
  00064	80 f2 ed	 xor	 dl, -19			; ffffffedH
  00067	88 55 f0	 mov	 BYTE PTR __t$[ebp+4], dl
  0006a	8a 50 05	 mov	 dl, BYTE PTR [eax+5]
  0006d	84 d2		 test	 dl, dl
  0006f	74 7f		 je	 SHORT $LN91@operator
  00071	80 f2 ec	 xor	 dl, -20			; ffffffecH
  00074	88 55 f1	 mov	 BYTE PTR __t$[ebp+5], dl
  00077	8a 50 06	 mov	 dl, BYTE PTR [eax+6]
  0007a	84 d2		 test	 dl, dl
  0007c	74 6c		 je	 SHORT $LN90@operator
  0007e	80 f2 eb	 xor	 dl, -21			; ffffffebH
  00081	88 55 f2	 mov	 BYTE PTR __t$[ebp+6], dl
  00084	8a 50 07	 mov	 dl, BYTE PTR [eax+7]
  00087	84 d2		 test	 dl, dl
  00089	74 59		 je	 SHORT $LN89@operator
  0008b	80 f2 ea	 xor	 dl, -22			; ffffffeaH
  0008e	80 78 08 00	 cmp	 BYTE PTR [eax+8], 0
  00092	88 55 f3	 mov	 BYTE PTR __t$[ebp+7], dl
  00095	74 7b		 je	 SHORT $LN1@operator
  00097	8a 50 09	 mov	 dl, BYTE PTR [eax+9]
  0009a	84 d2		 test	 dl, dl
  0009c	74 40		 je	 SHORT $LN87@operator
  0009e	80 f2 ec	 xor	 dl, -20			; ffffffecH
  000a1	88 55 f5	 mov	 BYTE PTR __t$[ebp+9], dl
  000a4	8a 50 0a	 mov	 dl, BYTE PTR [eax+10]
  000a7	84 d2		 test	 dl, dl
  000a9	74 2d		 je	 SHORT $LN86@operator
  000ab	80 f2 eb	 xor	 dl, -21			; ffffffebH
  000ae	88 55 f6	 mov	 BYTE PTR __t$[ebp+10], dl
  000b1	8a 50 0b	 mov	 dl, BYTE PTR [eax+11]
  000b4	84 d2		 test	 dl, dl
  000b6	74 1a		 je	 SHORT $LN85@operator
  000b8	8a 40 0c	 mov	 al, BYTE PTR [eax+12]
  000bb	80 f2 ea	 xor	 dl, -22			; ffffffeaH
  000be	88 55 f7	 mov	 BYTE PTR __t$[ebp+11], dl
  000c1	84 c0		 test	 al, al
  000c3	74 07		 je	 SHORT $LN84@operator
  000c5	34 ed		 xor	 al, -19			; ffffffedH
  000c7	88 45 f8	 mov	 BYTE PTR __t$[ebp+12], al
  000ca	eb 46		 jmp	 SHORT $LN1@operator
$LN84@operator:
  000cc	c6 45 f8 ed	 mov	 BYTE PTR __t$[ebp+12], -19 ; ffffffedH
  000d0	eb 40		 jmp	 SHORT $LN1@operator
$LN85@operator:
  000d2	c6 45 f7 ea	 mov	 BYTE PTR __t$[ebp+11], -22 ; ffffffeaH
  000d6	eb 3a		 jmp	 SHORT $LN1@operator
$LN86@operator:
  000d8	c6 45 f6 eb	 mov	 BYTE PTR __t$[ebp+10], -21 ; ffffffebH
  000dc	eb 34		 jmp	 SHORT $LN1@operator
$LN87@operator:
  000de	c6 45 f5 ec	 mov	 BYTE PTR __t$[ebp+9], -20 ; ffffffecH
  000e2	eb 2e		 jmp	 SHORT $LN1@operator
$LN89@operator:
  000e4	c6 45 f3 ea	 mov	 BYTE PTR __t$[ebp+7], -22 ; ffffffeaH
  000e8	eb 28		 jmp	 SHORT $LN1@operator
$LN90@operator:
  000ea	c6 45 f2 eb	 mov	 BYTE PTR __t$[ebp+6], -21 ; ffffffebH
  000ee	eb 22		 jmp	 SHORT $LN1@operator
$LN91@operator:
  000f0	c6 45 f1 ec	 mov	 BYTE PTR __t$[ebp+5], -20 ; ffffffecH
  000f4	eb 1c		 jmp	 SHORT $LN1@operator
$LN92@operator:
  000f6	c6 45 f0 ed	 mov	 BYTE PTR __t$[ebp+4], -19 ; ffffffedH
  000fa	eb 16		 jmp	 SHORT $LN1@operator
$LN93@operator:
  000fc	c6 45 ef ea	 mov	 BYTE PTR __t$[ebp+3], -22 ; ffffffeaH
  00100	eb 10		 jmp	 SHORT $LN1@operator
$LN94@operator:
  00102	c6 45 ee eb	 mov	 BYTE PTR __t$[ebp+2], -21 ; ffffffebH
  00106	eb 0a		 jmp	 SHORT $LN1@operator
$LN95@operator:
  00108	c6 45 ed ec	 mov	 BYTE PTR __t$[ebp+1], -20 ; ffffffecH
  0010c	eb 04		 jmp	 SHORT $LN1@operator
$LN96@operator:
  0010e	c6 45 ec ed	 mov	 BYTE PTR __t$[ebp], -19	; ffffffedH
$LN1@operator:
  00112	6a 02		 push	 2
  00114	8d 45 ec	 lea	 eax, DWORD PTR __t$[ebp]
  00117	c6 45 f4 00	 mov	 BYTE PTR __t$[ebp+8], 0
  0011b	5a		 pop	 edx
$LL104@operator:
  0011c	81 30 ed ec eb
	ea		 xor	 DWORD PTR [eax], -353637139 ; eaebecedH
  00122	83 c0 04	 add	 eax, 4
  00125	4a		 dec	 edx
  00126	75 f4		 jne	 SHORT $LL104@operator
  00128	56		 push	 esi
  00129	8d 75 ec	 lea	 esi, DWORD PTR __t$[ebp]
  0012c	ff 15 00 00 00
	00		 call	 DWORD PTR __imp_?c_str@ioHashString@@QBEPBDXZ
$LL111@operator:
  00132	8a 08		 mov	 cl, BYTE PTR [eax]
  00134	3a 0e		 cmp	 cl, BYTE PTR [esi]
  00136	75 1a		 jne	 SHORT $LN112@operator
  00138	84 c9		 test	 cl, cl
  0013a	74 12		 je	 SHORT $LN113@operator
  0013c	8a 48 01	 mov	 cl, BYTE PTR [eax+1]
  0013f	3a 4e 01	 cmp	 cl, BYTE PTR [esi+1]
  00142	75 0e		 jne	 SHORT $LN112@operator
  00144	83 c0 02	 add	 eax, 2
  00147	83 c6 02	 add	 esi, 2
  0014a	84 c9		 test	 cl, cl
  0014c	75 e4		 jne	 SHORT $LL111@operator
$LN113@operator:
  0014e	33 c0		 xor	 eax, eax
  00150	eb 05		 jmp	 SHORT $LN114@operator
$LN112@operator:
  00152	1b c0		 sbb	 eax, eax
  00154	83 d8 ff	 sbb	 eax, -1
$LN114@operator:
  00157	33 c9		 xor	 ecx, ecx
  00159	85 c0		 test	 eax, eax
  0015b	0f 94 c0	 sete	 al

; 148  : }

  0015e	8b 4d fc	 mov	 ecx, DWORD PTR __$ArrayPad$[ebp]
  00161	33 cd		 xor	 ecx, ebp
  00163	5e		 pop	 esi
  00164	e8 00 00 00 00	 call	 @__security_check_cookie@4
  00169	c9		 leave
  0016a	c3		 ret	 0
??$?8$08@@YA_NABVioHashString@@AAY08$$CBD@Z ENDP	; operator==<9>
_TEXT	ENDS
PUBLIC	__$ArrayPad$
PUBLIC	??$?8$0N@@@YA_NABVioHashString@@AAY0N@$$CBD@Z	; operator==<13>
; Function compile flags: /Ogsp
;	COMDAT ??$?8$0N@@@YA_NABVioHashString@@AAY0N@$$CBD@Z
_TEXT	SEGMENT
__t$ = -24						; size = 13
__$ArrayPad$ = -4					; size = 4
_lhs$ = 8						; size = 4
_t$ = 12						; size = 4
??$?8$0N@@@YA_NABVioHashString@@AAY0N@$$CBD@Z PROC	; operator==<13>, COMDAT

; 146  : {

  00000	55		 push	 ebp
  00001	8b ec		 mov	 ebp, esp
  00003	83 ec 18	 sub	 esp, 24			; 00000018H
  00006	a1 00 00 00 00	 mov	 eax, DWORD PTR ___security_cookie
  0000b	33 c5		 xor	 eax, ebp
  0000d	89 45 fc	 mov	 DWORD PTR __$ArrayPad$[ebp], eax
  00010	8b 45 0c	 mov	 eax, DWORD PTR _t$[ebp]

; 147  : 	_ENCSTR(t, _t); return ( strcmp( lhs.c_str(), _t ) == 0 );

  00013	8a 10		 mov	 dl, BYTE PTR [eax]
  00015	56		 push	 esi
  00016	57		 push	 edi
  00017	8b 7d 08	 mov	 edi, DWORD PTR _lhs$[ebp]
  0001a	84 d2		 test	 dl, dl
  0001c	0f 84 4d 01 00
	00		 je	 $LN96@operator@2
  00022	80 f2 ed	 xor	 dl, -19			; ffffffedH
  00025	88 55 e8	 mov	 BYTE PTR __t$[ebp], dl
  00028	8a 50 01	 mov	 dl, BYTE PTR [eax+1]
  0002b	84 d2		 test	 dl, dl
  0002d	0f 84 36 01 00
	00		 je	 $LN95@operator@2
  00033	b1 ec		 mov	 cl, -20			; ffffffecH
  00035	32 d1		 xor	 dl, cl
  00037	88 55 e9	 mov	 BYTE PTR __t$[ebp+1], dl
  0003a	8a 50 02	 mov	 dl, BYTE PTR [eax+2]
  0003d	84 d2		 test	 dl, dl
  0003f	0f 84 1e 01 00
	00		 je	 $LN94@operator@2
  00045	80 f2 eb	 xor	 dl, -21			; ffffffebH
  00048	88 55 ea	 mov	 BYTE PTR __t$[ebp+2], dl
  0004b	8a 50 03	 mov	 dl, BYTE PTR [eax+3]
  0004e	84 d2		 test	 dl, dl
  00050	0f 84 07 01 00
	00		 je	 $LN93@operator@2
  00056	80 f2 ea	 xor	 dl, -22			; ffffffeaH
  00059	88 55 eb	 mov	 BYTE PTR __t$[ebp+3], dl
  0005c	8a 50 04	 mov	 dl, BYTE PTR [eax+4]
  0005f	84 d2		 test	 dl, dl
  00061	0f 84 f0 00 00
	00		 je	 $LN92@operator@2
  00067	80 f2 ed	 xor	 dl, -19			; ffffffedH
  0006a	88 55 ec	 mov	 BYTE PTR __t$[ebp+4], dl
  0006d	8a 50 05	 mov	 dl, BYTE PTR [eax+5]
  00070	84 d2		 test	 dl, dl
  00072	0f 84 da 00 00
	00		 je	 $LN91@operator@2
  00078	32 d1		 xor	 dl, cl
  0007a	88 55 ed	 mov	 BYTE PTR __t$[ebp+5], dl
  0007d	8a 50 06	 mov	 dl, BYTE PTR [eax+6]
  00080	84 d2		 test	 dl, dl
  00082	0f 84 c4 00 00
	00		 je	 $LN90@operator@2
  00088	80 f2 eb	 xor	 dl, -21			; ffffffebH
  0008b	88 55 ee	 mov	 BYTE PTR __t$[ebp+6], dl
  0008e	8a 50 07	 mov	 dl, BYTE PTR [eax+7]
  00091	84 d2		 test	 dl, dl
  00093	0f 84 ad 00 00
	00		 je	 $LN89@operator@2
  00099	80 f2 ea	 xor	 dl, -22			; ffffffeaH
  0009c	88 55 ef	 mov	 BYTE PTR __t$[ebp+7], dl
  0009f	8a 50 08	 mov	 dl, BYTE PTR [eax+8]
  000a2	84 d2		 test	 dl, dl
  000a4	0f 84 96 00 00
	00		 je	 $LN88@operator@2
  000aa	80 f2 ed	 xor	 dl, -19			; ffffffedH
  000ad	88 55 f0	 mov	 BYTE PTR __t$[ebp+8], dl
  000b0	8a 50 09	 mov	 dl, BYTE PTR [eax+9]
  000b3	84 d2		 test	 dl, dl
  000b5	0f 84 80 00 00
	00		 je	 $LN87@operator@2
  000bb	32 d1		 xor	 dl, cl
  000bd	88 55 f1	 mov	 BYTE PTR __t$[ebp+9], dl
  000c0	8a 50 0a	 mov	 dl, BYTE PTR [eax+10]
  000c3	84 d2		 test	 dl, dl
  000c5	74 6e		 je	 SHORT $LN86@operator@2
  000c7	80 f2 eb	 xor	 dl, -21			; ffffffebH
  000ca	88 55 f2	 mov	 BYTE PTR __t$[ebp+10], dl
  000cd	8a 50 0b	 mov	 dl, BYTE PTR [eax+11]
  000d0	84 d2		 test	 dl, dl
  000d2	74 5b		 je	 SHORT $LN85@operator@2
  000d4	80 f2 ea	 xor	 dl, -22			; ffffffeaH
  000d7	80 78 0c 00	 cmp	 BYTE PTR [eax+12], 0
  000db	88 55 f3	 mov	 BYTE PTR __t$[ebp+11], dl
  000de	0f 84 8f 00 00
	00		 je	 $LN1@operator@2
  000e4	8a 50 0d	 mov	 dl, BYTE PTR [eax+13]
  000e7	84 d2		 test	 dl, dl
  000e9	74 3f		 je	 SHORT $LN83@operator@2
  000eb	32 d1		 xor	 dl, cl
  000ed	88 55 f5	 mov	 BYTE PTR __t$[ebp+13], dl
  000f0	8a 50 0e	 mov	 dl, BYTE PTR [eax+14]
  000f3	84 d2		 test	 dl, dl
  000f5	74 2d		 je	 SHORT $LN82@operator@2
  000f7	80 f2 eb	 xor	 dl, -21			; ffffffebH
  000fa	88 55 f6	 mov	 BYTE PTR __t$[ebp+14], dl
  000fd	8a 50 0f	 mov	 dl, BYTE PTR [eax+15]
  00100	84 d2		 test	 dl, dl
  00102	74 1a		 je	 SHORT $LN81@operator@2
  00104	8a 40 10	 mov	 al, BYTE PTR [eax+16]
  00107	80 f2 ea	 xor	 dl, -22			; ffffffeaH
  0010a	88 55 f7	 mov	 BYTE PTR __t$[ebp+15], dl
  0010d	84 c0		 test	 al, al
  0010f	74 07		 je	 SHORT $LN80@operator@2
  00111	34 ed		 xor	 al, -19			; ffffffedH
  00113	88 45 f8	 mov	 BYTE PTR __t$[ebp+16], al
  00116	eb 5b		 jmp	 SHORT $LN1@operator@2
$LN80@operator@2:
  00118	c6 45 f8 ed	 mov	 BYTE PTR __t$[ebp+16], -19 ; ffffffedH
  0011c	eb 55		 jmp	 SHORT $LN1@operator@2
$LN81@operator@2:
  0011e	c6 45 f7 ea	 mov	 BYTE PTR __t$[ebp+15], -22 ; ffffffeaH
  00122	eb 4f		 jmp	 SHORT $LN1@operator@2
$LN82@operator@2:
  00124	c6 45 f6 eb	 mov	 BYTE PTR __t$[ebp+14], -21 ; ffffffebH
  00128	eb 49		 jmp	 SHORT $LN1@operator@2
$LN83@operator@2:
  0012a	88 4d f5	 mov	 BYTE PTR __t$[ebp+13], cl
  0012d	eb 44		 jmp	 SHORT $LN1@operator@2
$LN85@operator@2:
  0012f	c6 45 f3 ea	 mov	 BYTE PTR __t$[ebp+11], -22 ; ffffffeaH
  00133	eb 3e		 jmp	 SHORT $LN1@operator@2
$LN86@operator@2:
  00135	c6 45 f2 eb	 mov	 BYTE PTR __t$[ebp+10], -21 ; ffffffebH
  00139	eb 38		 jmp	 SHORT $LN1@operator@2
$LN87@operator@2:
  0013b	88 4d f1	 mov	 BYTE PTR __t$[ebp+9], cl
  0013e	eb 33		 jmp	 SHORT $LN1@operator@2
$LN88@operator@2:
  00140	c6 45 f0 ed	 mov	 BYTE PTR __t$[ebp+8], -19 ; ffffffedH
  00144	eb 2d		 jmp	 SHORT $LN1@operator@2
$LN89@operator@2:
  00146	c6 45 ef ea	 mov	 BYTE PTR __t$[ebp+7], -22 ; ffffffeaH
  0014a	eb 27		 jmp	 SHORT $LN1@operator@2
$LN90@operator@2:
  0014c	c6 45 ee eb	 mov	 BYTE PTR __t$[ebp+6], -21 ; ffffffebH
  00150	eb 21		 jmp	 SHORT $LN1@operator@2
$LN91@operator@2:
  00152	88 4d ed	 mov	 BYTE PTR __t$[ebp+5], cl
  00155	eb 1c		 jmp	 SHORT $LN1@operator@2
$LN92@operator@2:
  00157	c6 45 ec ed	 mov	 BYTE PTR __t$[ebp+4], -19 ; ffffffedH
  0015b	eb 16		 jmp	 SHORT $LN1@operator@2
$LN93@operator@2:
  0015d	c6 45 eb ea	 mov	 BYTE PTR __t$[ebp+3], -22 ; ffffffeaH
  00161	eb 10		 jmp	 SHORT $LN1@operator@2
$LN94@operator@2:
  00163	c6 45 ea eb	 mov	 BYTE PTR __t$[ebp+2], -21 ; ffffffebH
  00167	eb 0a		 jmp	 SHORT $LN1@operator@2
$LN95@operator@2:
  00169	c6 45 e9 ec	 mov	 BYTE PTR __t$[ebp+1], -20 ; ffffffecH
  0016d	eb 04		 jmp	 SHORT $LN1@operator@2
$LN96@operator@2:
  0016f	c6 45 e8 ed	 mov	 BYTE PTR __t$[ebp], -19	; ffffffedH
$LN1@operator@2:
  00173	6a 03		 push	 3
  00175	8d 45 e8	 lea	 eax, DWORD PTR __t$[ebp]
  00178	c6 45 f4 00	 mov	 BYTE PTR __t$[ebp+12], 0
  0017c	5a		 pop	 edx
$LL104@operator@2:
  0017d	81 30 ed ec eb
	ea		 xor	 DWORD PTR [eax], -353637139 ; eaebecedH
  00183	83 c0 04	 add	 eax, 4
  00186	4a		 dec	 edx
  00187	75 f4		 jne	 SHORT $LL104@operator@2
  00189	8b cf		 mov	 ecx, edi
  0018b	8d 75 e8	 lea	 esi, DWORD PTR __t$[ebp]
  0018e	ff 15 00 00 00
	00		 call	 DWORD PTR __imp_?c_str@ioHashString@@QBEPBDXZ
$LL111@operator@2:
  00194	8a 08		 mov	 cl, BYTE PTR [eax]
  00196	3a 0e		 cmp	 cl, BYTE PTR [esi]
  00198	75 1a		 jne	 SHORT $LN112@operator@2
  0019a	84 c9		 test	 cl, cl
  0019c	74 12		 je	 SHORT $LN113@operator@2
  0019e	8a 48 01	 mov	 cl, BYTE PTR [eax+1]
  001a1	3a 4e 01	 cmp	 cl, BYTE PTR [esi+1]
  001a4	75 0e		 jne	 SHORT $LN112@operator@2
  001a6	83 c0 02	 add	 eax, 2
  001a9	83 c6 02	 add	 esi, 2
  001ac	84 c9		 test	 cl, cl
  001ae	75 e4		 jne	 SHORT $LL111@operator@2
$LN113@operator@2:
  001b0	33 c0		 xor	 eax, eax
  001b2	eb 05		 jmp	 SHORT $LN114@operator@2
$LN112@operator@2:
  001b4	1b c0		 sbb	 eax, eax
  001b6	83 d8 ff	 sbb	 eax, -1
$LN114@operator@2:
  001b9	33 c9		 xor	 ecx, ecx
  001bb	85 c0		 test	 eax, eax
  001bd	0f 94 c0	 sete	 al

; 148  : }

  001c0	8b 4d fc	 mov	 ecx, DWORD PTR __$ArrayPad$[ebp]
  001c3	5f		 pop	 edi
  001c4	33 cd		 xor	 ecx, ebp
  001c6	5e		 pop	 esi
  001c7	e8 00 00 00 00	 call	 @__security_check_cookie@4
  001cc	c9		 leave
  001cd	c3		 ret	 0
??$?8$0N@@@YA_NABVioHashString@@AAY0N@$$CBD@Z ENDP	; operator==<13>
_TEXT	ENDS
PUBLIC	__$ArrayPad$
PUBLIC	??$?8$09@@YA_NABVioHashString@@AAY09$$CBD@Z	; operator==<10>
; Function compile flags: /Ogsp
;	COMDAT ??$?8$09@@YA_NABVioHashString@@AAY09$$CBD@Z
_TEXT	SEGMENT
__t$ = -20						; size = 10
__$ArrayPad$ = -4					; size = 4
_lhs$ = 8						; size = 4
_t$ = 12						; size = 4
??$?8$09@@YA_NABVioHashString@@AAY09$$CBD@Z PROC	; operator==<10>, COMDAT

; 146  : {

  00000	55		 push	 ebp
  00001	8b ec		 mov	 ebp, esp
  00003	83 ec 14	 sub	 esp, 20			; 00000014H
  00006	a1 00 00 00 00	 mov	 eax, DWORD PTR ___security_cookie
  0000b	33 c5		 xor	 eax, ebp
  0000d	89 45 fc	 mov	 DWORD PTR __$ArrayPad$[ebp], eax
  00010	8b 45 0c	 mov	 eax, DWORD PTR _t$[ebp]

; 147  : 	_ENCSTR(t, _t); return ( strcmp( lhs.c_str(), _t ) == 0 );

  00013	8a 10		 mov	 dl, BYTE PTR [eax]
  00015	8b 4d 08	 mov	 ecx, DWORD PTR _lhs$[ebp]
  00018	84 d2		 test	 dl, dl
  0001a	0f 84 0d 01 00
	00		 je	 $LN96@operator@3
  00020	80 f2 ed	 xor	 dl, -19			; ffffffedH
  00023	88 55 ec	 mov	 BYTE PTR __t$[ebp], dl
  00026	8a 50 01	 mov	 dl, BYTE PTR [eax+1]
  00029	84 d2		 test	 dl, dl
  0002b	0f 84 f6 00 00
	00		 je	 $LN95@operator@3
  00031	80 f2 ec	 xor	 dl, -20			; ffffffecH
  00034	88 55 ed	 mov	 BYTE PTR __t$[ebp+1], dl
  00037	8a 50 02	 mov	 dl, BYTE PTR [eax+2]
  0003a	84 d2		 test	 dl, dl
  0003c	0f 84 df 00 00
	00		 je	 $LN94@operator@3
  00042	80 f2 eb	 xor	 dl, -21			; ffffffebH
  00045	88 55 ee	 mov	 BYTE PTR __t$[ebp+2], dl
  00048	8a 50 03	 mov	 dl, BYTE PTR [eax+3]
  0004b	84 d2		 test	 dl, dl
  0004d	0f 84 c8 00 00
	00		 je	 $LN93@operator@3
  00053	80 f2 ea	 xor	 dl, -22			; ffffffeaH
  00056	88 55 ef	 mov	 BYTE PTR __t$[ebp+3], dl
  00059	8a 50 04	 mov	 dl, BYTE PTR [eax+4]
  0005c	84 d2		 test	 dl, dl
  0005e	0f 84 b1 00 00
	00		 je	 $LN92@operator@3
  00064	80 f2 ed	 xor	 dl, -19			; ffffffedH
  00067	88 55 f0	 mov	 BYTE PTR __t$[ebp+4], dl
  0006a	8a 50 05	 mov	 dl, BYTE PTR [eax+5]
  0006d	84 d2		 test	 dl, dl
  0006f	0f 84 9a 00 00
	00		 je	 $LN91@operator@3
  00075	80 f2 ec	 xor	 dl, -20			; ffffffecH
  00078	88 55 f1	 mov	 BYTE PTR __t$[ebp+5], dl
  0007b	8a 50 06	 mov	 dl, BYTE PTR [eax+6]
  0007e	84 d2		 test	 dl, dl
  00080	0f 84 83 00 00
	00		 je	 $LN90@operator@3
  00086	80 f2 eb	 xor	 dl, -21			; ffffffebH
  00089	88 55 f2	 mov	 BYTE PTR __t$[ebp+6], dl
  0008c	8a 50 07	 mov	 dl, BYTE PTR [eax+7]
  0008f	84 d2		 test	 dl, dl
  00091	74 70		 je	 SHORT $LN89@operator@3
  00093	80 f2 ea	 xor	 dl, -22			; ffffffeaH
  00096	88 55 f3	 mov	 BYTE PTR __t$[ebp+7], dl
  00099	8a 50 08	 mov	 dl, BYTE PTR [eax+8]
  0009c	84 d2		 test	 dl, dl
  0009e	74 5d		 je	 SHORT $LN88@operator@3
  000a0	80 f2 ed	 xor	 dl, -19			; ffffffedH
  000a3	80 78 09 00	 cmp	 BYTE PTR [eax+9], 0
  000a7	88 55 f4	 mov	 BYTE PTR __t$[ebp+8], dl
  000aa	0f 84 81 00 00
	00		 je	 $LN1@operator@3
  000b0	8a 50 0a	 mov	 dl, BYTE PTR [eax+10]
  000b3	84 d2		 test	 dl, dl
  000b5	74 40		 je	 SHORT $LN86@operator@3
  000b7	80 f2 eb	 xor	 dl, -21			; ffffffebH
  000ba	88 55 f6	 mov	 BYTE PTR __t$[ebp+10], dl
  000bd	8a 50 0b	 mov	 dl, BYTE PTR [eax+11]
  000c0	84 d2		 test	 dl, dl
  000c2	74 2d		 je	 SHORT $LN85@operator@3
  000c4	80 f2 ea	 xor	 dl, -22			; ffffffeaH
  000c7	88 55 f7	 mov	 BYTE PTR __t$[ebp+11], dl
  000ca	8a 50 0c	 mov	 dl, BYTE PTR [eax+12]
  000cd	84 d2		 test	 dl, dl
  000cf	74 1a		 je	 SHORT $LN84@operator@3
  000d1	8a 40 0d	 mov	 al, BYTE PTR [eax+13]
  000d4	80 f2 ed	 xor	 dl, -19			; ffffffedH
  000d7	88 55 f8	 mov	 BYTE PTR __t$[ebp+12], dl
  000da	84 c0		 test	 al, al
  000dc	74 07		 je	 SHORT $LN83@operator@3
  000de	34 ec		 xor	 al, -20			; ffffffecH
  000e0	88 45 f9	 mov	 BYTE PTR __t$[ebp+13], al
  000e3	eb 4c		 jmp	 SHORT $LN1@operator@3
$LN83@operator@3:
  000e5	c6 45 f9 ec	 mov	 BYTE PTR __t$[ebp+13], -20 ; ffffffecH
  000e9	eb 46		 jmp	 SHORT $LN1@operator@3
$LN84@operator@3:
  000eb	c6 45 f8 ed	 mov	 BYTE PTR __t$[ebp+12], -19 ; ffffffedH
  000ef	eb 40		 jmp	 SHORT $LN1@operator@3
$LN85@operator@3:
  000f1	c6 45 f7 ea	 mov	 BYTE PTR __t$[ebp+11], -22 ; ffffffeaH
  000f5	eb 3a		 jmp	 SHORT $LN1@operator@3
$LN86@operator@3:
  000f7	c6 45 f6 eb	 mov	 BYTE PTR __t$[ebp+10], -21 ; ffffffebH
  000fb	eb 34		 jmp	 SHORT $LN1@operator@3
$LN88@operator@3:
  000fd	c6 45 f4 ed	 mov	 BYTE PTR __t$[ebp+8], -19 ; ffffffedH
  00101	eb 2e		 jmp	 SHORT $LN1@operator@3
$LN89@operator@3:
  00103	c6 45 f3 ea	 mov	 BYTE PTR __t$[ebp+7], -22 ; ffffffeaH
  00107	eb 28		 jmp	 SHORT $LN1@operator@3
$LN90@operator@3:
  00109	c6 45 f2 eb	 mov	 BYTE PTR __t$[ebp+6], -21 ; ffffffebH
  0010d	eb 22		 jmp	 SHORT $LN1@operator@3
$LN91@operator@3:
  0010f	c6 45 f1 ec	 mov	 BYTE PTR __t$[ebp+5], -20 ; ffffffecH
  00113	eb 1c		 jmp	 SHORT $LN1@operator@3
$LN92@operator@3:
  00115	c6 45 f0 ed	 mov	 BYTE PTR __t$[ebp+4], -19 ; ffffffedH
  00119	eb 16		 jmp	 SHORT $LN1@operator@3
$LN93@operator@3:
  0011b	c6 45 ef ea	 mov	 BYTE PTR __t$[ebp+3], -22 ; ffffffeaH
  0011f	eb 10		 jmp	 SHORT $LN1@operator@3
$LN94@operator@3:
  00121	c6 45 ee eb	 mov	 BYTE PTR __t$[ebp+2], -21 ; ffffffebH
  00125	eb 0a		 jmp	 SHORT $LN1@operator@3
$LN95@operator@3:
  00127	c6 45 ed ec	 mov	 BYTE PTR __t$[ebp+1], -20 ; ffffffecH
  0012b	eb 04		 jmp	 SHORT $LN1@operator@3
$LN96@operator@3:
  0012d	c6 45 ec ed	 mov	 BYTE PTR __t$[ebp], -19	; ffffffedH
$LN1@operator@3:
  00131	6a 02		 push	 2
  00133	8d 45 ec	 lea	 eax, DWORD PTR __t$[ebp]
  00136	c6 45 f5 00	 mov	 BYTE PTR __t$[ebp+9], 0
  0013a	5a		 pop	 edx
$LL104@operator@3:
  0013b	81 30 ed ec eb
	ea		 xor	 DWORD PTR [eax], -353637139 ; eaebecedH
  00141	83 c0 04	 add	 eax, 4
  00144	4a		 dec	 edx
  00145	75 f4		 jne	 SHORT $LL104@operator@3
  00147	80 75 f4 ed	 xor	 BYTE PTR __t$[ebp+8], -19 ; ffffffedH
  0014b	56		 push	 esi
  0014c	8d 75 ec	 lea	 esi, DWORD PTR __t$[ebp]
  0014f	ff 15 00 00 00
	00		 call	 DWORD PTR __imp_?c_str@ioHashString@@QBEPBDXZ
$LL111@operator@3:
  00155	8a 08		 mov	 cl, BYTE PTR [eax]
  00157	3a 0e		 cmp	 cl, BYTE PTR [esi]
  00159	75 1a		 jne	 SHORT $LN112@operator@3
  0015b	84 c9		 test	 cl, cl
  0015d	74 12		 je	 SHORT $LN113@operator@3
  0015f	8a 48 01	 mov	 cl, BYTE PTR [eax+1]
  00162	3a 4e 01	 cmp	 cl, BYTE PTR [esi+1]
  00165	75 0e		 jne	 SHORT $LN112@operator@3
  00167	83 c0 02	 add	 eax, 2
  0016a	83 c6 02	 add	 esi, 2
  0016d	84 c9		 test	 cl, cl
  0016f	75 e4		 jne	 SHORT $LL111@operator@3
$LN113@operator@3:
  00171	33 c0		 xor	 eax, eax
  00173	eb 05		 jmp	 SHORT $LN114@operator@3
$LN112@operator@3:
  00175	1b c0		 sbb	 eax, eax
  00177	83 d8 ff	 sbb	 eax, -1
$LN114@operator@3:
  0017a	33 c9		 xor	 ecx, ecx
  0017c	85 c0		 test	 eax, eax
  0017e	0f 94 c0	 sete	 al

; 148  : }

  00181	8b 4d fc	 mov	 ecx, DWORD PTR __$ArrayPad$[ebp]
  00184	33 cd		 xor	 ecx, ebp
  00186	5e		 pop	 esi
  00187	e8 00 00 00 00	 call	 @__security_check_cookie@4
  0018c	c9		 leave
  0018d	c3		 ret	 0
??$?8$09@@YA_NABVioHashString@@AAY09$$CBD@Z ENDP	; operator==<10>
_TEXT	ENDS
PUBLIC	__$ArrayPad$
PUBLIC	??$?8$0BD@@@YA_NABVioHashString@@AAY0BD@$$CBD@Z	; operator==<19>
; Function compile flags: /Ogsp
;	COMDAT ??$?8$0BD@@@YA_NABVioHashString@@AAY0BD@$$CBD@Z
_TEXT	SEGMENT
__t$ = -28						; size = 19
__$ArrayPad$ = -4					; size = 4
_lhs$ = 8						; size = 4
_t$ = 12						; size = 4
??$?8$0BD@@@YA_NABVioHashString@@AAY0BD@$$CBD@Z PROC	; operator==<19>, COMDAT

; 146  : {

  00000	55		 push	 ebp
  00001	8b ec		 mov	 ebp, esp
  00003	83 ec 1c	 sub	 esp, 28			; 0000001cH
  00006	a1 00 00 00 00	 mov	 eax, DWORD PTR ___security_cookie
  0000b	33 c5		 xor	 eax, ebp
  0000d	89 45 fc	 mov	 DWORD PTR __$ArrayPad$[ebp], eax
  00010	8b 45 0c	 mov	 eax, DWORD PTR _t$[ebp]

; 147  : 	_ENCSTR(t, _t); return ( strcmp( lhs.c_str(), _t ) == 0 );

  00013	8a 10		 mov	 dl, BYTE PTR [eax]
  00015	56		 push	 esi
  00016	57		 push	 edi
  00017	8b 7d 08	 mov	 edi, DWORD PTR _lhs$[ebp]
  0001a	84 d2		 test	 dl, dl
  0001c	0f 84 cf 01 00
	00		 je	 $LN96@operator@4
  00022	80 f2 ed	 xor	 dl, -19			; ffffffedH
  00025	88 55 e4	 mov	 BYTE PTR __t$[ebp], dl
  00028	8a 50 01	 mov	 dl, BYTE PTR [eax+1]
  0002b	84 d2		 test	 dl, dl
  0002d	0f 84 b8 01 00
	00		 je	 $LN95@operator@4
  00033	b1 ec		 mov	 cl, -20			; ffffffecH
  00035	32 d1		 xor	 dl, cl
  00037	88 55 e5	 mov	 BYTE PTR __t$[ebp+1], dl
  0003a	8a 50 02	 mov	 dl, BYTE PTR [eax+2]
  0003d	84 d2		 test	 dl, dl
  0003f	0f 84 a0 01 00
	00		 je	 $LN94@operator@4
  00045	80 f2 eb	 xor	 dl, -21			; ffffffebH
  00048	88 55 e6	 mov	 BYTE PTR __t$[ebp+2], dl
  0004b	8a 50 03	 mov	 dl, BYTE PTR [eax+3]
  0004e	84 d2		 test	 dl, dl
  00050	0f 84 89 01 00
	00		 je	 $LN93@operator@4
  00056	80 f2 ea	 xor	 dl, -22			; ffffffeaH
  00059	88 55 e7	 mov	 BYTE PTR __t$[ebp+3], dl
  0005c	8a 50 04	 mov	 dl, BYTE PTR [eax+4]
  0005f	84 d2		 test	 dl, dl
  00061	0f 84 72 01 00
	00		 je	 $LN92@operator@4
  00067	80 f2 ed	 xor	 dl, -19			; ffffffedH
  0006a	88 55 e8	 mov	 BYTE PTR __t$[ebp+4], dl
  0006d	8a 50 05	 mov	 dl, BYTE PTR [eax+5]
  00070	84 d2		 test	 dl, dl
  00072	0f 84 5c 01 00
	00		 je	 $LN91@operator@4
  00078	32 d1		 xor	 dl, cl
  0007a	88 55 e9	 mov	 BYTE PTR __t$[ebp+5], dl
  0007d	8a 50 06	 mov	 dl, BYTE PTR [eax+6]
  00080	84 d2		 test	 dl, dl
  00082	0f 84 46 01 00
	00		 je	 $LN90@operator@4
  00088	80 f2 eb	 xor	 dl, -21			; ffffffebH
  0008b	88 55 ea	 mov	 BYTE PTR __t$[ebp+6], dl
  0008e	8a 50 07	 mov	 dl, BYTE PTR [eax+7]
  00091	84 d2		 test	 dl, dl
  00093	0f 84 2f 01 00
	00		 je	 $LN89@operator@4
  00099	80 f2 ea	 xor	 dl, -22			; ffffffeaH
  0009c	88 55 eb	 mov	 BYTE PTR __t$[ebp+7], dl
  0009f	8a 50 08	 mov	 dl, BYTE PTR [eax+8]
  000a2	84 d2		 test	 dl, dl
  000a4	0f 84 18 01 00
	00		 je	 $LN88@operator@4
  000aa	80 f2 ed	 xor	 dl, -19			; ffffffedH
  000ad	88 55 ec	 mov	 BYTE PTR __t$[ebp+8], dl
  000b0	8a 50 09	 mov	 dl, BYTE PTR [eax+9]
  000b3	84 d2		 test	 dl, dl
  000b5	0f 84 02 01 00
	00		 je	 $LN87@operator@4
  000bb	32 d1		 xor	 dl, cl
  000bd	88 55 ed	 mov	 BYTE PTR __t$[ebp+9], dl
  000c0	8a 50 0a	 mov	 dl, BYTE PTR [eax+10]
  000c3	84 d2		 test	 dl, dl
  000c5	0f 84 ec 00 00
	00		 je	 $LN86@operator@4
  000cb	80 f2 eb	 xor	 dl, -21			; ffffffebH
  000ce	88 55 ee	 mov	 BYTE PTR __t$[ebp+10], dl
  000d1	8a 50 0b	 mov	 dl, BYTE PTR [eax+11]
  000d4	84 d2		 test	 dl, dl
  000d6	0f 84 d5 00 00
	00		 je	 $LN85@operator@4
  000dc	80 f2 ea	 xor	 dl, -22			; ffffffeaH
  000df	88 55 ef	 mov	 BYTE PTR __t$[ebp+11], dl
  000e2	8a 50 0c	 mov	 dl, BYTE PTR [eax+12]
  000e5	84 d2		 test	 dl, dl
  000e7	0f 84 be 00 00
	00		 je	 $LN84@operator@4
  000ed	80 f2 ed	 xor	 dl, -19			; ffffffedH
  000f0	88 55 f0	 mov	 BYTE PTR __t$[ebp+12], dl
  000f3	8a 50 0d	 mov	 dl, BYTE PTR [eax+13]
  000f6	84 d2		 test	 dl, dl
  000f8	0f 84 a8 00 00
	00		 je	 $LN83@operator@4
  000fe	32 d1		 xor	 dl, cl
  00100	88 55 f1	 mov	 BYTE PTR __t$[ebp+13], dl
  00103	8a 50 0e	 mov	 dl, BYTE PTR [eax+14]
  00106	84 d2		 test	 dl, dl
  00108	0f 84 92 00 00
	00		 je	 $LN82@operator@4
  0010e	80 f2 eb	 xor	 dl, -21			; ffffffebH
  00111	88 55 f2	 mov	 BYTE PTR __t$[ebp+14], dl
  00114	8a 50 0f	 mov	 dl, BYTE PTR [eax+15]
  00117	84 d2		 test	 dl, dl
  00119	74 7f		 je	 SHORT $LN81@operator@4
  0011b	80 f2 ea	 xor	 dl, -22			; ffffffeaH
  0011e	88 55 f3	 mov	 BYTE PTR __t$[ebp+15], dl
  00121	8a 50 10	 mov	 dl, BYTE PTR [eax+16]
  00124	84 d2		 test	 dl, dl
  00126	74 6c		 je	 SHORT $LN80@operator@4
  00128	80 f2 ed	 xor	 dl, -19			; ffffffedH
  0012b	88 55 f4	 mov	 BYTE PTR __t$[ebp+16], dl
  0012e	8a 50 11	 mov	 dl, BYTE PTR [eax+17]
  00131	84 d2		 test	 dl, dl
  00133	74 5a		 je	 SHORT $LN79@operator@4
  00135	32 d1		 xor	 dl, cl
  00137	80 78 12 00	 cmp	 BYTE PTR [eax+18], 0
  0013b	88 55 f5	 mov	 BYTE PTR __t$[ebp+17], dl
  0013e	0f 84 b1 00 00
	00		 je	 $LN1@operator@4
  00144	8a 50 13	 mov	 dl, BYTE PTR [eax+19]
  00147	84 d2		 test	 dl, dl
  00149	74 3e		 je	 SHORT $LN77@operator@4
  0014b	80 f2 ea	 xor	 dl, -22			; ffffffeaH
  0014e	88 55 f7	 mov	 BYTE PTR __t$[ebp+19], dl
  00151	8a 50 14	 mov	 dl, BYTE PTR [eax+20]
  00154	84 d2		 test	 dl, dl
  00156	74 2b		 je	 SHORT $LN76@operator@4
  00158	80 f2 ed	 xor	 dl, -19			; ffffffedH
  0015b	88 55 f8	 mov	 BYTE PTR __t$[ebp+20], dl
  0015e	8a 50 15	 mov	 dl, BYTE PTR [eax+21]
  00161	84 d2		 test	 dl, dl
  00163	74 19		 je	 SHORT $LN75@operator@4
  00165	8a 40 16	 mov	 al, BYTE PTR [eax+22]
  00168	32 d1		 xor	 dl, cl
  0016a	88 55 f9	 mov	 BYTE PTR __t$[ebp+21], dl
  0016d	84 c0		 test	 al, al
  0016f	74 07		 je	 SHORT $LN74@operator@4
  00171	34 eb		 xor	 al, -21			; ffffffebH
  00173	88 45 fa	 mov	 BYTE PTR __t$[ebp+22], al
  00176	eb 7d		 jmp	 SHORT $LN1@operator@4
$LN74@operator@4:
  00178	c6 45 fa eb	 mov	 BYTE PTR __t$[ebp+22], -21 ; ffffffebH
  0017c	eb 77		 jmp	 SHORT $LN1@operator@4
$LN75@operator@4:
  0017e	88 4d f9	 mov	 BYTE PTR __t$[ebp+21], cl
  00181	eb 72		 jmp	 SHORT $LN1@operator@4
$LN76@operator@4:
  00183	c6 45 f8 ed	 mov	 BYTE PTR __t$[ebp+20], -19 ; ffffffedH
  00187	eb 6c		 jmp	 SHORT $LN1@operator@4
$LN77@operator@4:
  00189	c6 45 f7 ea	 mov	 BYTE PTR __t$[ebp+19], -22 ; ffffffeaH
  0018d	eb 66		 jmp	 SHORT $LN1@operator@4
$LN79@operator@4:
  0018f	88 4d f5	 mov	 BYTE PTR __t$[ebp+17], cl
  00192	eb 61		 jmp	 SHORT $LN1@operator@4
$LN80@operator@4:
  00194	c6 45 f4 ed	 mov	 BYTE PTR __t$[ebp+16], -19 ; ffffffedH
  00198	eb 5b		 jmp	 SHORT $LN1@operator@4
$LN81@operator@4:
  0019a	c6 45 f3 ea	 mov	 BYTE PTR __t$[ebp+15], -22 ; ffffffeaH
  0019e	eb 55		 jmp	 SHORT $LN1@operator@4
$LN82@operator@4:
  001a0	c6 45 f2 eb	 mov	 BYTE PTR __t$[ebp+14], -21 ; ffffffebH
  001a4	eb 4f		 jmp	 SHORT $LN1@operator@4
$LN83@operator@4:
  001a6	88 4d f1	 mov	 BYTE PTR __t$[ebp+13], cl
  001a9	eb 4a		 jmp	 SHORT $LN1@operator@4
$LN84@operator@4:
  001ab	c6 45 f0 ed	 mov	 BYTE PTR __t$[ebp+12], -19 ; ffffffedH
  001af	eb 44		 jmp	 SHORT $LN1@operator@4
$LN85@operator@4:
  001b1	c6 45 ef ea	 mov	 BYTE PTR __t$[ebp+11], -22 ; ffffffeaH
  001b5	eb 3e		 jmp	 SHORT $LN1@operator@4
$LN86@operator@4:
  001b7	c6 45 ee eb	 mov	 BYTE PTR __t$[ebp+10], -21 ; ffffffebH
  001bb	eb 38		 jmp	 SHORT $LN1@operator@4
$LN87@operator@4:
  001bd	88 4d ed	 mov	 BYTE PTR __t$[ebp+9], cl
  001c0	eb 33		 jmp	 SHORT $LN1@operator@4
$LN88@operator@4:
  001c2	c6 45 ec ed	 mov	 BYTE PTR __t$[ebp+8], -19 ; ffffffedH
  001c6	eb 2d		 jmp	 SHORT $LN1@operator@4
$LN89@operator@4:
  001c8	c6 45 eb ea	 mov	 BYTE PTR __t$[ebp+7], -22 ; ffffffeaH
  001cc	eb 27		 jmp	 SHORT $LN1@operator@4
$LN90@operator@4:
  001ce	c6 45 ea eb	 mov	 BYTE PTR __t$[ebp+6], -21 ; ffffffebH
  001d2	eb 21		 jmp	 SHORT $LN1@operator@4
$LN91@operator@4:
  001d4	88 4d e9	 mov	 BYTE PTR __t$[ebp+5], cl
  001d7	eb 1c		 jmp	 SHORT $LN1@operator@4
$LN92@operator@4:
  001d9	c6 45 e8 ed	 mov	 BYTE PTR __t$[ebp+4], -19 ; ffffffedH
  001dd	eb 16		 jmp	 SHORT $LN1@operator@4
$LN93@operator@4:
  001df	c6 45 e7 ea	 mov	 BYTE PTR __t$[ebp+3], -22 ; ffffffeaH
  001e3	eb 10		 jmp	 SHORT $LN1@operator@4
$LN94@operator@4:
  001e5	c6 45 e6 eb	 mov	 BYTE PTR __t$[ebp+2], -21 ; ffffffebH
  001e9	eb 0a		 jmp	 SHORT $LN1@operator@4
$LN95@operator@4:
  001eb	c6 45 e5 ec	 mov	 BYTE PTR __t$[ebp+1], -20 ; ffffffecH
  001ef	eb 04		 jmp	 SHORT $LN1@operator@4
$LN96@operator@4:
  001f1	c6 45 e4 ed	 mov	 BYTE PTR __t$[ebp], -19	; ffffffedH
$LN1@operator@4:
  001f5	6a 04		 push	 4
  001f7	8d 45 e4	 lea	 eax, DWORD PTR __t$[ebp]
  001fa	c6 45 f6 00	 mov	 BYTE PTR __t$[ebp+18], 0
  001fe	5a		 pop	 edx
$LL104@operator@4:
  001ff	81 30 ed ec eb
	ea		 xor	 DWORD PTR [eax], -353637139 ; eaebecedH
  00205	83 c0 04	 add	 eax, 4
  00208	4a		 dec	 edx
  00209	75 f4		 jne	 SHORT $LL104@operator@4
  0020b	6a 10		 push	 16			; 00000010H
  0020d	58		 pop	 eax
$LL101@operator@4:
  0020e	8b c8		 mov	 ecx, eax
  00210	81 e1 03 00 00
	80		 and	 ecx, -2147483645	; 80000003H
  00216	79 05		 jns	 SHORT $LN115@operator@4
  00218	49		 dec	 ecx
  00219	83 c9 fc	 or	 ecx, -4			; fffffffcH
  0021c	41		 inc	 ecx
$LN115@operator@4:
  0021d	b2 ed		 mov	 dl, -19			; ffffffedH
  0021f	2a d1		 sub	 dl, cl
  00221	30 54 05 e4	 xor	 BYTE PTR __t$[ebp+eax], dl
  00225	40		 inc	 eax
  00226	83 f8 12	 cmp	 eax, 18			; 00000012H
  00229	7c e3		 jl	 SHORT $LL101@operator@4
  0022b	8b cf		 mov	 ecx, edi
  0022d	8d 75 e4	 lea	 esi, DWORD PTR __t$[ebp]
  00230	ff 15 00 00 00
	00		 call	 DWORD PTR __imp_?c_str@ioHashString@@QBEPBDXZ
$LL111@operator@4:
  00236	8a 08		 mov	 cl, BYTE PTR [eax]
  00238	3a 0e		 cmp	 cl, BYTE PTR [esi]
  0023a	75 1a		 jne	 SHORT $LN112@operator@4
  0023c	84 c9		 test	 cl, cl
  0023e	74 12		 je	 SHORT $LN113@operator@4
  00240	8a 48 01	 mov	 cl, BYTE PTR [eax+1]
  00243	3a 4e 01	 cmp	 cl, BYTE PTR [esi+1]
  00246	75 0e		 jne	 SHORT $LN112@operator@4
  00248	83 c0 02	 add	 eax, 2
  0024b	83 c6 02	 add	 esi, 2
  0024e	84 c9		 test	 cl, cl
  00250	75 e4		 jne	 SHORT $LL111@operator@4
$LN113@operator@4:
  00252	33 c0		 xor	 eax, eax
  00254	eb 05		 jmp	 SHORT $LN114@operator@4
$LN112@operator@4:
  00256	1b c0		 sbb	 eax, eax
  00258	83 d8 ff	 sbb	 eax, -1
$LN114@operator@4:
  0025b	33 c9		 xor	 ecx, ecx
  0025d	85 c0		 test	 eax, eax
  0025f	0f 94 c0	 sete	 al

; 148  : }

  00262	8b 4d fc	 mov	 ecx, DWORD PTR __$ArrayPad$[ebp]
  00265	5f		 pop	 edi
  00266	33 cd		 xor	 ecx, ebp
  00268	5e		 pop	 esi
  00269	e8 00 00 00 00	 call	 @__security_check_cookie@4
  0026e	c9		 leave
  0026f	c3		 ret	 0
??$?8$0BD@@@YA_NABVioHashString@@AAY0BD@$$CBD@Z ENDP	; operator==<19>
_TEXT	ENDS
PUBLIC	__$ArrayPad$
PUBLIC	??$GetIntAttribute_e@$0BC@@ioXMLElement@@QBEHAAY0BC@$$CBD@Z ; ioXMLElement::GetIntAttribute_e<18>
EXTRN	__imp_?GetIntAttribute@ioXMLElement@@QBEHPBD@Z:PROC
; Function compile flags: /Ogsp
; File d:\lost saga for developer\youtube\tutorial\source\src\io3dengine\ioxmlelement.h
;	COMDAT ??$GetIntAttribute_e@$0BC@@ioXMLElement@@QBEHAAY0BC@$$CBD@Z
_TEXT	SEGMENT
__k$ = -28						; size = 18
__$ArrayPad$ = -4					; size = 4
_k$ = 8							; size = 4
??$GetIntAttribute_e@$0BC@@ioXMLElement@@QBEHAAY0BC@$$CBD@Z PROC ; ioXMLElement::GetIntAttribute_e<18>, COMDAT
; _this$ = ecx

; 86   : 	{

  00000	55		 push	 ebp
  00001	8b ec		 mov	 ebp, esp
  00003	83 ec 1c	 sub	 esp, 28			; 0000001cH
  00006	a1 00 00 00 00	 mov	 eax, DWORD PTR ___security_cookie
  0000b	33 c5		 xor	 eax, ebp
  0000d	89 45 fc	 mov	 DWORD PTR __$ArrayPad$[ebp], eax
  00010	8b 45 08	 mov	 eax, DWORD PTR _k$[ebp]

; 87   : 		_ENCSTR(k, _k);

  00013	8a 10		 mov	 dl, BYTE PTR [eax]
  00015	56		 push	 esi
  00016	8b f1		 mov	 esi, ecx
  00018	84 d2		 test	 dl, dl
  0001a	0f 84 be 01 00
	00		 je	 $LN96@GetIntAttr
  00020	80 f2 ed	 xor	 dl, -19			; ffffffedH
  00023	88 55 e4	 mov	 BYTE PTR __k$[ebp], dl
  00026	8a 50 01	 mov	 dl, BYTE PTR [eax+1]
  00029	84 d2		 test	 dl, dl
  0002b	0f 84 a7 01 00
	00		 je	 $LN95@GetIntAttr
  00031	80 f2 ec	 xor	 dl, -20			; ffffffecH
  00034	88 55 e5	 mov	 BYTE PTR __k$[ebp+1], dl
  00037	8a 50 02	 mov	 dl, BYTE PTR [eax+2]
  0003a	84 d2		 test	 dl, dl
  0003c	0f 84 90 01 00
	00		 je	 $LN94@GetIntAttr
  00042	b1 eb		 mov	 cl, -21			; ffffffebH
  00044	32 d1		 xor	 dl, cl
  00046	88 55 e6	 mov	 BYTE PTR __k$[ebp+2], dl
  00049	8a 50 03	 mov	 dl, BYTE PTR [eax+3]
  0004c	84 d2		 test	 dl, dl
  0004e	0f 84 78 01 00
	00		 je	 $LN93@GetIntAttr
  00054	80 f2 ea	 xor	 dl, -22			; ffffffeaH
  00057	88 55 e7	 mov	 BYTE PTR __k$[ebp+3], dl
  0005a	8a 50 04	 mov	 dl, BYTE PTR [eax+4]
  0005d	84 d2		 test	 dl, dl
  0005f	0f 84 61 01 00
	00		 je	 $LN92@GetIntAttr
  00065	80 f2 ed	 xor	 dl, -19			; ffffffedH
  00068	88 55 e8	 mov	 BYTE PTR __k$[ebp+4], dl
  0006b	8a 50 05	 mov	 dl, BYTE PTR [eax+5]
  0006e	84 d2		 test	 dl, dl
  00070	0f 84 4a 01 00
	00		 je	 $LN91@GetIntAttr
  00076	80 f2 ec	 xor	 dl, -20			; ffffffecH
  00079	88 55 e9	 mov	 BYTE PTR __k$[ebp+5], dl
  0007c	8a 50 06	 mov	 dl, BYTE PTR [eax+6]
  0007f	84 d2		 test	 dl, dl
  00081	0f 84 34 01 00
	00		 je	 $LN90@GetIntAttr
  00087	32 d1		 xor	 dl, cl
  00089	88 55 ea	 mov	 BYTE PTR __k$[ebp+6], dl
  0008c	8a 50 07	 mov	 dl, BYTE PTR [eax+7]
  0008f	84 d2		 test	 dl, dl
  00091	0f 84 1e 01 00
	00		 je	 $LN89@GetIntAttr
  00097	80 f2 ea	 xor	 dl, -22			; ffffffeaH
  0009a	88 55 eb	 mov	 BYTE PTR __k$[ebp+7], dl
  0009d	8a 50 08	 mov	 dl, BYTE PTR [eax+8]
  000a0	84 d2		 test	 dl, dl
  000a2	0f 84 07 01 00
	00		 je	 $LN88@GetIntAttr
  000a8	80 f2 ed	 xor	 dl, -19			; ffffffedH
  000ab	88 55 ec	 mov	 BYTE PTR __k$[ebp+8], dl
  000ae	8a 50 09	 mov	 dl, BYTE PTR [eax+9]
  000b1	84 d2		 test	 dl, dl
  000b3	0f 84 f0 00 00
	00		 je	 $LN87@GetIntAttr
  000b9	80 f2 ec	 xor	 dl, -20			; ffffffecH
  000bc	88 55 ed	 mov	 BYTE PTR __k$[ebp+9], dl
  000bf	8a 50 0a	 mov	 dl, BYTE PTR [eax+10]
  000c2	84 d2		 test	 dl, dl
  000c4	0f 84 da 00 00
	00		 je	 $LN86@GetIntAttr
  000ca	32 d1		 xor	 dl, cl
  000cc	88 55 ee	 mov	 BYTE PTR __k$[ebp+10], dl
  000cf	8a 50 0b	 mov	 dl, BYTE PTR [eax+11]
  000d2	84 d2		 test	 dl, dl
  000d4	0f 84 c4 00 00
	00		 je	 $LN85@GetIntAttr
  000da	80 f2 ea	 xor	 dl, -22			; ffffffeaH
  000dd	88 55 ef	 mov	 BYTE PTR __k$[ebp+11], dl
  000e0	8a 50 0c	 mov	 dl, BYTE PTR [eax+12]
  000e3	84 d2		 test	 dl, dl
  000e5	0f 84 ad 00 00
	00		 je	 $LN84@GetIntAttr
  000eb	80 f2 ed	 xor	 dl, -19			; ffffffedH
  000ee	88 55 f0	 mov	 BYTE PTR __k$[ebp+12], dl
  000f1	8a 50 0d	 mov	 dl, BYTE PTR [eax+13]
  000f4	84 d2		 test	 dl, dl
  000f6	0f 84 96 00 00
	00		 je	 $LN83@GetIntAttr
  000fc	80 f2 ec	 xor	 dl, -20			; ffffffecH
  000ff	88 55 f1	 mov	 BYTE PTR __k$[ebp+13], dl
  00102	8a 50 0e	 mov	 dl, BYTE PTR [eax+14]
  00105	84 d2		 test	 dl, dl
  00107	0f 84 80 00 00
	00		 je	 $LN82@GetIntAttr
  0010d	32 d1		 xor	 dl, cl
  0010f	88 55 f2	 mov	 BYTE PTR __k$[ebp+14], dl
  00112	8a 50 0f	 mov	 dl, BYTE PTR [eax+15]
  00115	84 d2		 test	 dl, dl
  00117	74 6e		 je	 SHORT $LN81@GetIntAttr
  00119	80 f2 ea	 xor	 dl, -22			; ffffffeaH
  0011c	88 55 f3	 mov	 BYTE PTR __k$[ebp+15], dl
  0011f	8a 50 10	 mov	 dl, BYTE PTR [eax+16]
  00122	84 d2		 test	 dl, dl
  00124	74 5b		 je	 SHORT $LN80@GetIntAttr
  00126	80 f2 ed	 xor	 dl, -19			; ffffffedH
  00129	80 78 11 00	 cmp	 BYTE PTR [eax+17], 0
  0012d	88 55 f4	 mov	 BYTE PTR __k$[ebp+16], dl
  00130	0f 84 ac 00 00
	00		 je	 $LN1@GetIntAttr
  00136	8a 50 12	 mov	 dl, BYTE PTR [eax+18]
  00139	84 d2		 test	 dl, dl
  0013b	74 3f		 je	 SHORT $LN78@GetIntAttr
  0013d	32 d1		 xor	 dl, cl
  0013f	88 55 f6	 mov	 BYTE PTR __k$[ebp+18], dl
  00142	8a 50 13	 mov	 dl, BYTE PTR [eax+19]
  00145	84 d2		 test	 dl, dl
  00147	74 2d		 je	 SHORT $LN77@GetIntAttr
  00149	80 f2 ea	 xor	 dl, -22			; ffffffeaH
  0014c	88 55 f7	 mov	 BYTE PTR __k$[ebp+19], dl
  0014f	8a 50 14	 mov	 dl, BYTE PTR [eax+20]
  00152	84 d2		 test	 dl, dl
  00154	74 1a		 je	 SHORT $LN76@GetIntAttr
  00156	8a 40 15	 mov	 al, BYTE PTR [eax+21]
  00159	80 f2 ed	 xor	 dl, -19			; ffffffedH
  0015c	88 55 f8	 mov	 BYTE PTR __k$[ebp+20], dl
  0015f	84 c0		 test	 al, al
  00161	74 07		 je	 SHORT $LN75@GetIntAttr
  00163	34 ec		 xor	 al, -20			; ffffffecH
  00165	88 45 f9	 mov	 BYTE PTR __k$[ebp+21], al
  00168	eb 78		 jmp	 SHORT $LN1@GetIntAttr
$LN75@GetIntAttr:
  0016a	c6 45 f9 ec	 mov	 BYTE PTR __k$[ebp+21], -20 ; ffffffecH
  0016e	eb 72		 jmp	 SHORT $LN1@GetIntAttr
$LN76@GetIntAttr:
  00170	c6 45 f8 ed	 mov	 BYTE PTR __k$[ebp+20], -19 ; ffffffedH
  00174	eb 6c		 jmp	 SHORT $LN1@GetIntAttr
$LN77@GetIntAttr:
  00176	c6 45 f7 ea	 mov	 BYTE PTR __k$[ebp+19], -22 ; ffffffeaH
  0017a	eb 66		 jmp	 SHORT $LN1@GetIntAttr
$LN78@GetIntAttr:
  0017c	88 4d f6	 mov	 BYTE PTR __k$[ebp+18], cl
  0017f	eb 61		 jmp	 SHORT $LN1@GetIntAttr
$LN80@GetIntAttr:
  00181	c6 45 f4 ed	 mov	 BYTE PTR __k$[ebp+16], -19 ; ffffffedH
  00185	eb 5b		 jmp	 SHORT $LN1@GetIntAttr
$LN81@GetIntAttr:
  00187	c6 45 f3 ea	 mov	 BYTE PTR __k$[ebp+15], -22 ; ffffffeaH
  0018b	eb 55		 jmp	 SHORT $LN1@GetIntAttr
$LN82@GetIntAttr:
  0018d	88 4d f2	 mov	 BYTE PTR __k$[ebp+14], cl
  00190	eb 50		 jmp	 SHORT $LN1@GetIntAttr
$LN83@GetIntAttr:
  00192	c6 45 f1 ec	 mov	 BYTE PTR __k$[ebp+13], -20 ; ffffffecH
  00196	eb 4a		 jmp	 SHORT $LN1@GetIntAttr
$LN84@GetIntAttr:
  00198	c6 45 f0 ed	 mov	 BYTE PTR __k$[ebp+12], -19 ; ffffffedH
  0019c	eb 44		 jmp	 SHORT $LN1@GetIntAttr
$LN85@GetIntAttr:
  0019e	c6 45 ef ea	 mov	 BYTE PTR __k$[ebp+11], -22 ; ffffffeaH
  001a2	eb 3e		 jmp	 SHORT $LN1@GetIntAttr
$LN86@GetIntAttr:
  001a4	88 4d ee	 mov	 BYTE PTR __k$[ebp+10], cl
  001a7	eb 39		 jmp	 SHORT $LN1@GetIntAttr
$LN87@GetIntAttr:
  001a9	c6 45 ed ec	 mov	 BYTE PTR __k$[ebp+9], -20 ; ffffffecH
  001ad	eb 33		 jmp	 SHORT $LN1@GetIntAttr
$LN88@GetIntAttr:
  001af	c6 45 ec ed	 mov	 BYTE PTR __k$[ebp+8], -19 ; ffffffedH
  001b3	eb 2d		 jmp	 SHORT $LN1@GetIntAttr
$LN89@GetIntAttr:
  001b5	c6 45 eb ea	 mov	 BYTE PTR __k$[ebp+7], -22 ; ffffffeaH
  001b9	eb 27		 jmp	 SHORT $LN1@GetIntAttr
$LN90@GetIntAttr:
  001bb	88 4d ea	 mov	 BYTE PTR __k$[ebp+6], cl
  001be	eb 22		 jmp	 SHORT $LN1@GetIntAttr
$LN91@GetIntAttr:
  001c0	c6 45 e9 ec	 mov	 BYTE PTR __k$[ebp+5], -20 ; ffffffecH
  001c4	eb 1c		 jmp	 SHORT $LN1@GetIntAttr
$LN92@GetIntAttr:
  001c6	c6 45 e8 ed	 mov	 BYTE PTR __k$[ebp+4], -19 ; ffffffedH
  001ca	eb 16		 jmp	 SHORT $LN1@GetIntAttr
$LN93@GetIntAttr:
  001cc	c6 45 e7 ea	 mov	 BYTE PTR __k$[ebp+3], -22 ; ffffffeaH
  001d0	eb 10		 jmp	 SHORT $LN1@GetIntAttr
$LN94@GetIntAttr:
  001d2	c6 45 e6 eb	 mov	 BYTE PTR __k$[ebp+2], -21 ; ffffffebH
  001d6	eb 0a		 jmp	 SHORT $LN1@GetIntAttr
$LN95@GetIntAttr:
  001d8	c6 45 e5 ec	 mov	 BYTE PTR __k$[ebp+1], -20 ; ffffffecH
  001dc	eb 04		 jmp	 SHORT $LN1@GetIntAttr
$LN96@GetIntAttr:
  001de	c6 45 e4 ed	 mov	 BYTE PTR __k$[ebp], -19	; ffffffedH
$LN1@GetIntAttr:
  001e2	6a 04		 push	 4
  001e4	8d 45 e4	 lea	 eax, DWORD PTR __k$[ebp]
  001e7	c6 45 f5 00	 mov	 BYTE PTR __k$[ebp+17], 0
  001eb	5a		 pop	 edx
$LL104@GetIntAttr:
  001ec	81 30 ed ec eb
	ea		 xor	 DWORD PTR [eax], -353637139 ; eaebecedH
  001f2	83 c0 04	 add	 eax, 4
  001f5	4a		 dec	 edx
  001f6	75 f4		 jne	 SHORT $LL104@GetIntAttr
  001f8	80 75 f4 ed	 xor	 BYTE PTR __k$[ebp+16], -19 ; ffffffedH

; 88   : 		return GetIntAttribute(_k);

  001fc	8d 45 e4	 lea	 eax, DWORD PTR __k$[ebp]
  001ff	50		 push	 eax
  00200	8b ce		 mov	 ecx, esi
  00202	ff 15 00 00 00
	00		 call	 DWORD PTR __imp_?GetIntAttribute@ioXMLElement@@QBEHPBD@Z

; 89   : 	}

  00208	8b 4d fc	 mov	 ecx, DWORD PTR __$ArrayPad$[ebp]
  0020b	33 cd		 xor	 ecx, ebp
  0020d	5e		 pop	 esi
  0020e	e8 00 00 00 00	 call	 @__security_check_cookie@4
  00213	c9		 leave
  00214	c2 04 00	 ret	 4
??$GetIntAttribute_e@$0BC@@ioXMLElement@@QBEHAAY0BC@$$CBD@Z ENDP ; ioXMLElement::GetIntAttribute_e<18>
_TEXT	ENDS
PUBLIC	__$ArrayPad$
PUBLIC	??$GetIntAttribute_e@$0BE@@ioXMLElement@@QBEHAAY0BE@$$CBD@Z ; ioXMLElement::GetIntAttribute_e<20>
; Function compile flags: /Ogsp
;	COMDAT ??$GetIntAttribute_e@$0BE@@ioXMLElement@@QBEHAAY0BE@$$CBD@Z
_TEXT	SEGMENT
__k$ = -28						; size = 20
__$ArrayPad$ = -4					; size = 4
_k$ = 8							; size = 4
??$GetIntAttribute_e@$0BE@@ioXMLElement@@QBEHAAY0BE@$$CBD@Z PROC ; ioXMLElement::GetIntAttribute_e<20>, COMDAT
; _this$ = ecx

; 86   : 	{

  00000	55		 push	 ebp
  00001	8b ec		 mov	 ebp, esp
  00003	83 ec 1c	 sub	 esp, 28			; 0000001cH
  00006	a1 00 00 00 00	 mov	 eax, DWORD PTR ___security_cookie
  0000b	33 c5		 xor	 eax, ebp
  0000d	89 45 fc	 mov	 DWORD PTR __$ArrayPad$[ebp], eax
  00010	8b 45 08	 mov	 eax, DWORD PTR _k$[ebp]

; 87   : 		_ENCSTR(k, _k);

  00013	8a 10		 mov	 dl, BYTE PTR [eax]
  00015	53		 push	 ebx
  00016	56		 push	 esi
  00017	8b f1		 mov	 esi, ecx
  00019	84 d2		 test	 dl, dl
  0001b	0f 84 dd 01 00
	00		 je	 $LN96@GetIntAttr@2
  00021	80 f2 ed	 xor	 dl, -19			; ffffffedH
  00024	88 55 e4	 mov	 BYTE PTR __k$[ebp], dl
  00027	8a 50 01	 mov	 dl, BYTE PTR [eax+1]
  0002a	84 d2		 test	 dl, dl
  0002c	0f 84 c6 01 00
	00		 je	 $LN95@GetIntAttr@2
  00032	b3 ec		 mov	 bl, -20			; ffffffecH
  00034	32 d3		 xor	 dl, bl
  00036	88 55 e5	 mov	 BYTE PTR __k$[ebp+1], dl
  00039	8a 50 02	 mov	 dl, BYTE PTR [eax+2]
  0003c	84 d2		 test	 dl, dl
  0003e	0f 84 ae 01 00
	00		 je	 $LN94@GetIntAttr@2
  00044	b1 eb		 mov	 cl, -21			; ffffffebH
  00046	32 d1		 xor	 dl, cl
  00048	88 55 e6	 mov	 BYTE PTR __k$[ebp+2], dl
  0004b	8a 50 03	 mov	 dl, BYTE PTR [eax+3]
  0004e	84 d2		 test	 dl, dl
  00050	0f 84 96 01 00
	00		 je	 $LN93@GetIntAttr@2
  00056	80 f2 ea	 xor	 dl, -22			; ffffffeaH
  00059	88 55 e7	 mov	 BYTE PTR __k$[ebp+3], dl
  0005c	8a 50 04	 mov	 dl, BYTE PTR [eax+4]
  0005f	84 d2		 test	 dl, dl
  00061	0f 84 7f 01 00
	00		 je	 $LN92@GetIntAttr@2
  00067	80 f2 ed	 xor	 dl, -19			; ffffffedH
  0006a	88 55 e8	 mov	 BYTE PTR __k$[ebp+4], dl
  0006d	8a 50 05	 mov	 dl, BYTE PTR [eax+5]
  00070	84 d2		 test	 dl, dl
  00072	0f 84 69 01 00
	00		 je	 $LN91@GetIntAttr@2
  00078	32 d3		 xor	 dl, bl
  0007a	88 55 e9	 mov	 BYTE PTR __k$[ebp+5], dl
  0007d	8a 50 06	 mov	 dl, BYTE PTR [eax+6]
  00080	84 d2		 test	 dl, dl
  00082	0f 84 54 01 00
	00		 je	 $LN90@GetIntAttr@2
  00088	32 d1		 xor	 dl, cl
  0008a	88 55 ea	 mov	 BYTE PTR __k$[ebp+6], dl
  0008d	8a 50 07	 mov	 dl, BYTE PTR [eax+7]
  00090	84 d2		 test	 dl, dl
  00092	0f 84 3e 01 00
	00		 je	 $LN89@GetIntAttr@2
  00098	80 f2 ea	 xor	 dl, -22			; ffffffeaH
  0009b	88 55 eb	 mov	 BYTE PTR __k$[ebp+7], dl
  0009e	8a 50 08	 mov	 dl, BYTE PTR [eax+8]
  000a1	84 d2		 test	 dl, dl
  000a3	0f 84 27 01 00
	00		 je	 $LN88@GetIntAttr@2
  000a9	80 f2 ed	 xor	 dl, -19			; ffffffedH
  000ac	88 55 ec	 mov	 BYTE PTR __k$[ebp+8], dl
  000af	8a 50 09	 mov	 dl, BYTE PTR [eax+9]
  000b2	84 d2		 test	 dl, dl
  000b4	0f 84 11 01 00
	00		 je	 $LN87@GetIntAttr@2
  000ba	32 d3		 xor	 dl, bl
  000bc	88 55 ed	 mov	 BYTE PTR __k$[ebp+9], dl
  000bf	8a 50 0a	 mov	 dl, BYTE PTR [eax+10]
  000c2	84 d2		 test	 dl, dl
  000c4	0f 84 fc 00 00
	00		 je	 $LN86@GetIntAttr@2
  000ca	32 d1		 xor	 dl, cl
  000cc	88 55 ee	 mov	 BYTE PTR __k$[ebp+10], dl
  000cf	8a 50 0b	 mov	 dl, BYTE PTR [eax+11]
  000d2	84 d2		 test	 dl, dl
  000d4	0f 84 e6 00 00
	00		 je	 $LN85@GetIntAttr@2
  000da	80 f2 ea	 xor	 dl, -22			; ffffffeaH
  000dd	88 55 ef	 mov	 BYTE PTR __k$[ebp+11], dl
  000e0	8a 50 0c	 mov	 dl, BYTE PTR [eax+12]
  000e3	84 d2		 test	 dl, dl
  000e5	0f 84 cf 00 00
	00		 je	 $LN84@GetIntAttr@2
  000eb	80 f2 ed	 xor	 dl, -19			; ffffffedH
  000ee	88 55 f0	 mov	 BYTE PTR __k$[ebp+12], dl
  000f1	8a 50 0d	 mov	 dl, BYTE PTR [eax+13]
  000f4	84 d2		 test	 dl, dl
  000f6	0f 84 b9 00 00
	00		 je	 $LN83@GetIntAttr@2
  000fc	32 d3		 xor	 dl, bl
  000fe	88 55 f1	 mov	 BYTE PTR __k$[ebp+13], dl
  00101	8a 50 0e	 mov	 dl, BYTE PTR [eax+14]
  00104	84 d2		 test	 dl, dl
  00106	0f 84 a4 00 00
	00		 je	 $LN82@GetIntAttr@2
  0010c	32 d1		 xor	 dl, cl
  0010e	88 55 f2	 mov	 BYTE PTR __k$[ebp+14], dl
  00111	8a 50 0f	 mov	 dl, BYTE PTR [eax+15]
  00114	84 d2		 test	 dl, dl
  00116	0f 84 8e 00 00
	00		 je	 $LN81@GetIntAttr@2
  0011c	80 f2 ea	 xor	 dl, -22			; ffffffeaH
  0011f	88 55 f3	 mov	 BYTE PTR __k$[ebp+15], dl
  00122	8a 50 10	 mov	 dl, BYTE PTR [eax+16]
  00125	84 d2		 test	 dl, dl
  00127	74 7b		 je	 SHORT $LN80@GetIntAttr@2
  00129	80 f2 ed	 xor	 dl, -19			; ffffffedH
  0012c	88 55 f4	 mov	 BYTE PTR __k$[ebp+16], dl
  0012f	8a 50 11	 mov	 dl, BYTE PTR [eax+17]
  00132	84 d2		 test	 dl, dl
  00134	74 69		 je	 SHORT $LN79@GetIntAttr@2
  00136	32 d3		 xor	 dl, bl
  00138	88 55 f5	 mov	 BYTE PTR __k$[ebp+17], dl
  0013b	8a 50 12	 mov	 dl, BYTE PTR [eax+18]
  0013e	84 d2		 test	 dl, dl
  00140	74 58		 je	 SHORT $LN78@GetIntAttr@2
  00142	32 d1		 xor	 dl, cl
  00144	80 78 13 00	 cmp	 BYTE PTR [eax+19], 0
  00148	88 55 f6	 mov	 BYTE PTR __k$[ebp+18], dl
  0014b	0f 84 b1 00 00
	00		 je	 $LN1@GetIntAttr@2
  00151	8a 50 14	 mov	 dl, BYTE PTR [eax+20]
  00154	84 d2		 test	 dl, dl
  00156	74 3c		 je	 SHORT $LN76@GetIntAttr@2
  00158	80 f2 ed	 xor	 dl, -19			; ffffffedH
  0015b	88 55 f8	 mov	 BYTE PTR __k$[ebp+20], dl
  0015e	8a 50 15	 mov	 dl, BYTE PTR [eax+21]
  00161	84 d2		 test	 dl, dl
  00163	74 2a		 je	 SHORT $LN75@GetIntAttr@2
  00165	32 d3		 xor	 dl, bl
  00167	88 55 f9	 mov	 BYTE PTR __k$[ebp+21], dl
  0016a	8a 50 16	 mov	 dl, BYTE PTR [eax+22]
  0016d	84 d2		 test	 dl, dl
  0016f	74 19		 je	 SHORT $LN74@GetIntAttr@2
  00171	8a 40 17	 mov	 al, BYTE PTR [eax+23]
  00174	32 d1		 xor	 dl, cl
  00176	88 55 fa	 mov	 BYTE PTR __k$[ebp+22], dl
  00179	84 c0		 test	 al, al
  0017b	74 07		 je	 SHORT $LN73@GetIntAttr@2
  0017d	34 ea		 xor	 al, -22			; ffffffeaH
  0017f	88 45 fb	 mov	 BYTE PTR __k$[ebp+23], al
  00182	eb 7e		 jmp	 SHORT $LN1@GetIntAttr@2
$LN73@GetIntAttr@2:
  00184	c6 45 fb ea	 mov	 BYTE PTR __k$[ebp+23], -22 ; ffffffeaH
  00188	eb 78		 jmp	 SHORT $LN1@GetIntAttr@2
$LN74@GetIntAttr@2:
  0018a	88 4d fa	 mov	 BYTE PTR __k$[ebp+22], cl
  0018d	eb 73		 jmp	 SHORT $LN1@GetIntAttr@2
$LN75@GetIntAttr@2:
  0018f	88 5d f9	 mov	 BYTE PTR __k$[ebp+21], bl
  00192	eb 6e		 jmp	 SHORT $LN1@GetIntAttr@2
$LN76@GetIntAttr@2:
  00194	c6 45 f8 ed	 mov	 BYTE PTR __k$[ebp+20], -19 ; ffffffedH
  00198	eb 68		 jmp	 SHORT $LN1@GetIntAttr@2
$LN78@GetIntAttr@2:
  0019a	88 4d f6	 mov	 BYTE PTR __k$[ebp+18], cl
  0019d	eb 63		 jmp	 SHORT $LN1@GetIntAttr@2
$LN79@GetIntAttr@2:
  0019f	88 5d f5	 mov	 BYTE PTR __k$[ebp+17], bl
  001a2	eb 5e		 jmp	 SHORT $LN1@GetIntAttr@2
$LN80@GetIntAttr@2:
  001a4	c6 45 f4 ed	 mov	 BYTE PTR __k$[ebp+16], -19 ; ffffffedH
  001a8	eb 58		 jmp	 SHORT $LN1@GetIntAttr@2
$LN81@GetIntAttr@2:
  001aa	c6 45 f3 ea	 mov	 BYTE PTR __k$[ebp+15], -22 ; ffffffeaH
  001ae	eb 52		 jmp	 SHORT $LN1@GetIntAttr@2
$LN82@GetIntAttr@2:
  001b0	88 4d f2	 mov	 BYTE PTR __k$[ebp+14], cl
  001b3	eb 4d		 jmp	 SHORT $LN1@GetIntAttr@2
$LN83@GetIntAttr@2:
  001b5	88 5d f1	 mov	 BYTE PTR __k$[ebp+13], bl
  001b8	eb 48		 jmp	 SHORT $LN1@GetIntAttr@2
$LN84@GetIntAttr@2:
  001ba	c6 45 f0 ed	 mov	 BYTE PTR __k$[ebp+12], -19 ; ffffffedH
  001be	eb 42		 jmp	 SHORT $LN1@GetIntAttr@2
$LN85@GetIntAttr@2:
  001c0	c6 45 ef ea	 mov	 BYTE PTR __k$[ebp+11], -22 ; ffffffeaH
  001c4	eb 3c		 jmp	 SHORT $LN1@GetIntAttr@2
$LN86@GetIntAttr@2:
  001c6	88 4d ee	 mov	 BYTE PTR __k$[ebp+10], cl
  001c9	eb 37		 jmp	 SHORT $LN1@GetIntAttr@2
$LN87@GetIntAttr@2:
  001cb	88 5d ed	 mov	 BYTE PTR __k$[ebp+9], bl
  001ce	eb 32		 jmp	 SHORT $LN1@GetIntAttr@2
$LN88@GetIntAttr@2:
  001d0	c6 45 ec ed	 mov	 BYTE PTR __k$[ebp+8], -19 ; ffffffedH
  001d4	eb 2c		 jmp	 SHORT $LN1@GetIntAttr@2
$LN89@GetIntAttr@2:
  001d6	c6 45 eb ea	 mov	 BYTE PTR __k$[ebp+7], -22 ; ffffffeaH
  001da	eb 26		 jmp	 SHORT $LN1@GetIntAttr@2
$LN90@GetIntAttr@2:
  001dc	88 4d ea	 mov	 BYTE PTR __k$[ebp+6], cl
  001df	eb 21		 jmp	 SHORT $LN1@GetIntAttr@2
$LN91@GetIntAttr@2:
  001e1	88 5d e9	 mov	 BYTE PTR __k$[ebp+5], bl
  001e4	eb 1c		 jmp	 SHORT $LN1@GetIntAttr@2
$LN92@GetIntAttr@2:
  001e6	c6 45 e8 ed	 mov	 BYTE PTR __k$[ebp+4], -19 ; ffffffedH
  001ea	eb 16		 jmp	 SHORT $LN1@GetIntAttr@2
$LN93@GetIntAttr@2:
  001ec	c6 45 e7 ea	 mov	 BYTE PTR __k$[ebp+3], -22 ; ffffffeaH
  001f0	eb 10		 jmp	 SHORT $LN1@GetIntAttr@2
$LN94@GetIntAttr@2:
  001f2	c6 45 e6 eb	 mov	 BYTE PTR __k$[ebp+2], -21 ; ffffffebH
  001f6	eb 0a		 jmp	 SHORT $LN1@GetIntAttr@2
$LN95@GetIntAttr@2:
  001f8	c6 45 e5 ec	 mov	 BYTE PTR __k$[ebp+1], -20 ; ffffffecH
  001fc	eb 04		 jmp	 SHORT $LN1@GetIntAttr@2
$LN96@GetIntAttr@2:
  001fe	c6 45 e4 ed	 mov	 BYTE PTR __k$[ebp], -19	; ffffffedH
$LN1@GetIntAttr@2:
  00202	6a 04		 push	 4
  00204	8d 45 e4	 lea	 eax, DWORD PTR __k$[ebp]
  00207	c6 45 f7 00	 mov	 BYTE PTR __k$[ebp+19], 0
  0020b	5a		 pop	 edx
$LL104@GetIntAttr@2:
  0020c	81 30 ed ec eb
	ea		 xor	 DWORD PTR [eax], -353637139 ; eaebecedH
  00212	83 c0 04	 add	 eax, 4
  00215	4a		 dec	 edx
  00216	75 f4		 jne	 SHORT $LL104@GetIntAttr@2
  00218	6a 10		 push	 16			; 00000010H
  0021a	58		 pop	 eax
$LL101@GetIntAttr@2:
  0021b	8b c8		 mov	 ecx, eax
  0021d	81 e1 03 00 00
	80		 and	 ecx, -2147483645	; 80000003H
  00223	79 05		 jns	 SHORT $LN111@GetIntAttr@2
  00225	49		 dec	 ecx
  00226	83 c9 fc	 or	 ecx, -4			; fffffffcH
  00229	41		 inc	 ecx
$LN111@GetIntAttr@2:
  0022a	b2 ed		 mov	 dl, -19			; ffffffedH
  0022c	2a d1		 sub	 dl, cl
  0022e	30 54 05 e4	 xor	 BYTE PTR __k$[ebp+eax], dl
  00232	40		 inc	 eax
  00233	83 f8 13	 cmp	 eax, 19			; 00000013H
  00236	7c e3		 jl	 SHORT $LL101@GetIntAttr@2

; 88   : 		return GetIntAttribute(_k);

  00238	8d 45 e4	 lea	 eax, DWORD PTR __k$[ebp]
  0023b	50		 push	 eax
  0023c	8b ce		 mov	 ecx, esi
  0023e	ff 15 00 00 00
	00		 call	 DWORD PTR __imp_?GetIntAttribute@ioXMLElement@@QBEHPBD@Z

; 89   : 	}

  00244	8b 4d fc	 mov	 ecx, DWORD PTR __$ArrayPad$[ebp]
  00247	5e		 pop	 esi
  00248	33 cd		 xor	 ecx, ebp
  0024a	5b		 pop	 ebx
  0024b	e8 00 00 00 00	 call	 @__security_check_cookie@4
  00250	c9		 leave
  00251	c2 04 00	 ret	 4
??$GetIntAttribute_e@$0BE@@ioXMLElement@@QBEHAAY0BE@$$CBD@Z ENDP ; ioXMLElement::GetIntAttribute_e<20>
_TEXT	ENDS
PUBLIC	__$ArrayPad$
PUBLIC	??$GetIntAttribute_e@$0M@@ioXMLElement@@QBEHAAY0M@$$CBD@Z ; ioXMLElement::GetIntAttribute_e<12>
; Function compile flags: /Ogsp
;	COMDAT ??$GetIntAttribute_e@$0M@@ioXMLElement@@QBEHAAY0M@$$CBD@Z
_TEXT	SEGMENT
__k$ = -20						; size = 12
__$ArrayPad$ = -4					; size = 4
_k$ = 8							; size = 4
??$GetIntAttribute_e@$0M@@ioXMLElement@@QBEHAAY0M@$$CBD@Z PROC ; ioXMLElement::GetIntAttribute_e<12>, COMDAT
; _this$ = ecx

; 86   : 	{

  00000	55		 push	 ebp
  00001	8b ec		 mov	 ebp, esp
  00003	83 ec 14	 sub	 esp, 20			; 00000014H
  00006	a1 00 00 00 00	 mov	 eax, DWORD PTR ___security_cookie
  0000b	33 c5		 xor	 eax, ebp
  0000d	89 45 fc	 mov	 DWORD PTR __$ArrayPad$[ebp], eax
  00010	8b 45 08	 mov	 eax, DWORD PTR _k$[ebp]

; 87   : 		_ENCSTR(k, _k);

  00013	8a 10		 mov	 dl, BYTE PTR [eax]
  00015	56		 push	 esi
  00016	8b f1		 mov	 esi, ecx
  00018	84 d2		 test	 dl, dl
  0001a	0f 84 32 01 00
	00		 je	 $LN96@GetIntAttr@3
  00020	80 f2 ed	 xor	 dl, -19			; ffffffedH
  00023	88 55 ec	 mov	 BYTE PTR __k$[ebp], dl
  00026	8a 50 01	 mov	 dl, BYTE PTR [eax+1]
  00029	84 d2		 test	 dl, dl
  0002b	0f 84 1b 01 00
	00		 je	 $LN95@GetIntAttr@3
  00031	80 f2 ec	 xor	 dl, -20			; ffffffecH
  00034	88 55 ed	 mov	 BYTE PTR __k$[ebp+1], dl
  00037	8a 50 02	 mov	 dl, BYTE PTR [eax+2]
  0003a	84 d2		 test	 dl, dl
  0003c	0f 84 04 01 00
	00		 je	 $LN94@GetIntAttr@3
  00042	b1 eb		 mov	 cl, -21			; ffffffebH
  00044	32 d1		 xor	 dl, cl
  00046	88 55 ee	 mov	 BYTE PTR __k$[ebp+2], dl
  00049	8a 50 03	 mov	 dl, BYTE PTR [eax+3]
  0004c	84 d2		 test	 dl, dl
  0004e	0f 84 ec 00 00
	00		 je	 $LN93@GetIntAttr@3
  00054	80 f2 ea	 xor	 dl, -22			; ffffffeaH
  00057	88 55 ef	 mov	 BYTE PTR __k$[ebp+3], dl
  0005a	8a 50 04	 mov	 dl, BYTE PTR [eax+4]
  0005d	84 d2		 test	 dl, dl
  0005f	0f 84 d5 00 00
	00		 je	 $LN92@GetIntAttr@3
  00065	80 f2 ed	 xor	 dl, -19			; ffffffedH
  00068	88 55 f0	 mov	 BYTE PTR __k$[ebp+4], dl
  0006b	8a 50 05	 mov	 dl, BYTE PTR [eax+5]
  0006e	84 d2		 test	 dl, dl
  00070	0f 84 be 00 00
	00		 je	 $LN91@GetIntAttr@3
  00076	80 f2 ec	 xor	 dl, -20			; ffffffecH
  00079	88 55 f1	 mov	 BYTE PTR __k$[ebp+5], dl
  0007c	8a 50 06	 mov	 dl, BYTE PTR [eax+6]
  0007f	84 d2		 test	 dl, dl
  00081	0f 84 a8 00 00
	00		 je	 $LN90@GetIntAttr@3
  00087	32 d1		 xor	 dl, cl
  00089	88 55 f2	 mov	 BYTE PTR __k$[ebp+6], dl
  0008c	8a 50 07	 mov	 dl, BYTE PTR [eax+7]
  0008f	84 d2		 test	 dl, dl
  00091	0f 84 92 00 00
	00		 je	 $LN89@GetIntAttr@3
  00097	80 f2 ea	 xor	 dl, -22			; ffffffeaH
  0009a	88 55 f3	 mov	 BYTE PTR __k$[ebp+7], dl
  0009d	8a 50 08	 mov	 dl, BYTE PTR [eax+8]
  000a0	84 d2		 test	 dl, dl
  000a2	74 7f		 je	 SHORT $LN88@GetIntAttr@3
  000a4	80 f2 ed	 xor	 dl, -19			; ffffffedH
  000a7	88 55 f4	 mov	 BYTE PTR __k$[ebp+8], dl
  000aa	8a 50 09	 mov	 dl, BYTE PTR [eax+9]
  000ad	84 d2		 test	 dl, dl
  000af	74 6c		 je	 SHORT $LN87@GetIntAttr@3
  000b1	80 f2 ec	 xor	 dl, -20			; ffffffecH
  000b4	88 55 f5	 mov	 BYTE PTR __k$[ebp+9], dl
  000b7	8a 50 0a	 mov	 dl, BYTE PTR [eax+10]
  000ba	84 d2		 test	 dl, dl
  000bc	74 5a		 je	 SHORT $LN86@GetIntAttr@3
  000be	32 d1		 xor	 dl, cl
  000c0	80 78 0b 00	 cmp	 BYTE PTR [eax+11], 0
  000c4	88 55 f6	 mov	 BYTE PTR __k$[ebp+10], dl
  000c7	0f 84 89 00 00
	00		 je	 $LN1@GetIntAttr@3
  000cd	8a 50 0c	 mov	 dl, BYTE PTR [eax+12]
  000d0	84 d2		 test	 dl, dl
  000d2	74 3e		 je	 SHORT $LN84@GetIntAttr@3
  000d4	80 f2 ed	 xor	 dl, -19			; ffffffedH
  000d7	88 55 f8	 mov	 BYTE PTR __k$[ebp+12], dl
  000da	8a 50 0d	 mov	 dl, BYTE PTR [eax+13]
  000dd	84 d2		 test	 dl, dl
  000df	74 2b		 je	 SHORT $LN83@GetIntAttr@3
  000e1	80 f2 ec	 xor	 dl, -20			; ffffffecH
  000e4	88 55 f9	 mov	 BYTE PTR __k$[ebp+13], dl
  000e7	8a 50 0e	 mov	 dl, BYTE PTR [eax+14]
  000ea	84 d2		 test	 dl, dl
  000ec	74 19		 je	 SHORT $LN82@GetIntAttr@3
  000ee	8a 40 0f	 mov	 al, BYTE PTR [eax+15]
  000f1	32 d1		 xor	 dl, cl
  000f3	88 55 fa	 mov	 BYTE PTR __k$[ebp+14], dl
  000f6	84 c0		 test	 al, al
  000f8	74 07		 je	 SHORT $LN81@GetIntAttr@3
  000fa	34 ea		 xor	 al, -22			; ffffffeaH
  000fc	88 45 fb	 mov	 BYTE PTR __k$[ebp+15], al
  000ff	eb 55		 jmp	 SHORT $LN1@GetIntAttr@3
$LN81@GetIntAttr@3:
  00101	c6 45 fb ea	 mov	 BYTE PTR __k$[ebp+15], -22 ; ffffffeaH
  00105	eb 4f		 jmp	 SHORT $LN1@GetIntAttr@3
$LN82@GetIntAttr@3:
  00107	88 4d fa	 mov	 BYTE PTR __k$[ebp+14], cl
  0010a	eb 4a		 jmp	 SHORT $LN1@GetIntAttr@3
$LN83@GetIntAttr@3:
  0010c	c6 45 f9 ec	 mov	 BYTE PTR __k$[ebp+13], -20 ; ffffffecH
  00110	eb 44		 jmp	 SHORT $LN1@GetIntAttr@3
$LN84@GetIntAttr@3:
  00112	c6 45 f8 ed	 mov	 BYTE PTR __k$[ebp+12], -19 ; ffffffedH
  00116	eb 3e		 jmp	 SHORT $LN1@GetIntAttr@3
$LN86@GetIntAttr@3:
  00118	88 4d f6	 mov	 BYTE PTR __k$[ebp+10], cl
  0011b	eb 39		 jmp	 SHORT $LN1@GetIntAttr@3
$LN87@GetIntAttr@3:
  0011d	c6 45 f5 ec	 mov	 BYTE PTR __k$[ebp+9], -20 ; ffffffecH
  00121	eb 33		 jmp	 SHORT $LN1@GetIntAttr@3
$LN88@GetIntAttr@3:
  00123	c6 45 f4 ed	 mov	 BYTE PTR __k$[ebp+8], -19 ; ffffffedH
  00127	eb 2d		 jmp	 SHORT $LN1@GetIntAttr@3
$LN89@GetIntAttr@3:
  00129	c6 45 f3 ea	 mov	 BYTE PTR __k$[ebp+7], -22 ; ffffffeaH
  0012d	eb 27		 jmp	 SHORT $LN1@GetIntAttr@3
$LN90@GetIntAttr@3:
  0012f	88 4d f2	 mov	 BYTE PTR __k$[ebp+6], cl
  00132	eb 22		 jmp	 SHORT $LN1@GetIntAttr@3
$LN91@GetIntAttr@3:
  00134	c6 45 f1 ec	 mov	 BYTE PTR __k$[ebp+5], -20 ; ffffffecH
  00138	eb 1c		 jmp	 SHORT $LN1@GetIntAttr@3
$LN92@GetIntAttr@3:
  0013a	c6 45 f0 ed	 mov	 BYTE PTR __k$[ebp+4], -19 ; ffffffedH
  0013e	eb 16		 jmp	 SHORT $LN1@GetIntAttr@3
$LN93@GetIntAttr@3:
  00140	c6 45 ef ea	 mov	 BYTE PTR __k$[ebp+3], -22 ; ffffffeaH
  00144	eb 10		 jmp	 SHORT $LN1@GetIntAttr@3
$LN94@GetIntAttr@3:
  00146	c6 45 ee eb	 mov	 BYTE PTR __k$[ebp+2], -21 ; ffffffebH
  0014a	eb 0a		 jmp	 SHORT $LN1@GetIntAttr@3
$LN95@GetIntAttr@3:
  0014c	c6 45 ed ec	 mov	 BYTE PTR __k$[ebp+1], -20 ; ffffffecH
  00150	eb 04		 jmp	 SHORT $LN1@GetIntAttr@3
$LN96@GetIntAttr@3:
  00152	c6 45 ec ed	 mov	 BYTE PTR __k$[ebp], -19	; ffffffedH
$LN1@GetIntAttr@3:
  00156	6a 02		 push	 2
  00158	8d 45 ec	 lea	 eax, DWORD PTR __k$[ebp]
  0015b	c6 45 f7 00	 mov	 BYTE PTR __k$[ebp+11], 0
  0015f	5a		 pop	 edx
$LL104@GetIntAttr@3:
  00160	81 30 ed ec eb
	ea		 xor	 DWORD PTR [eax], -353637139 ; eaebecedH
  00166	83 c0 04	 add	 eax, 4
  00169	4a		 dec	 edx
  0016a	75 f4		 jne	 SHORT $LL104@GetIntAttr@3
  0016c	6a 08		 push	 8
  0016e	58		 pop	 eax
$LL101@GetIntAttr@3:
  0016f	8b c8		 mov	 ecx, eax
  00171	81 e1 03 00 00
	80		 and	 ecx, -2147483645	; 80000003H
  00177	79 05		 jns	 SHORT $LN111@GetIntAttr@3
  00179	49		 dec	 ecx
  0017a	83 c9 fc	 or	 ecx, -4			; fffffffcH
  0017d	41		 inc	 ecx
$LN111@GetIntAttr@3:
  0017e	b2 ed		 mov	 dl, -19			; ffffffedH
  00180	2a d1		 sub	 dl, cl
  00182	30 54 05 ec	 xor	 BYTE PTR __k$[ebp+eax], dl
  00186	40		 inc	 eax
  00187	83 f8 0b	 cmp	 eax, 11			; 0000000bH
  0018a	7c e3		 jl	 SHORT $LL101@GetIntAttr@3

; 88   : 		return GetIntAttribute(_k);

  0018c	8d 45 ec	 lea	 eax, DWORD PTR __k$[ebp]
  0018f	50		 push	 eax
  00190	8b ce		 mov	 ecx, esi
  00192	ff 15 00 00 00
	00		 call	 DWORD PTR __imp_?GetIntAttribute@ioXMLElement@@QBEHPBD@Z

; 89   : 	}

  00198	8b 4d fc	 mov	 ecx, DWORD PTR __$ArrayPad$[ebp]
  0019b	33 cd		 xor	 ecx, ebp
  0019d	5e		 pop	 esi
  0019e	e8 00 00 00 00	 call	 @__security_check_cookie@4
  001a3	c9		 leave
  001a4	c2 04 00	 ret	 4
??$GetIntAttribute_e@$0M@@ioXMLElement@@QBEHAAY0M@$$CBD@Z ENDP ; ioXMLElement::GetIntAttribute_e<12>
_TEXT	ENDS
PUBLIC	??$_Copy_impl@PAHPAH@std@@YAPAHPAH00@Z		; std::_Copy_impl<int *,int *>
; Function compile flags: /Ogsp
; File c:\program files (x86)\microsoft visual studio 10.0\vc\include\xutility
;	COMDAT ??$_Copy_impl@PAHPAH@std@@YAPAHPAH00@Z
_TEXT	SEGMENT
__Cat$552653 = -4					; size = 1
__First$ = 8						; size = 4
__Last$ = 12						; size = 4
__Dest$ = 16						; size = 4
??$_Copy_impl@PAHPAH@std@@YAPAHPAH00@Z PROC		; std::_Copy_impl<int *,int *>, COMDAT

; 2163 : 	{	// copy [_First, _Last) to [_Dest, ...)

  00000	55		 push	 ebp
  00001	8b ec		 mov	 ebp, esp
  00003	51		 push	 ecx

; 2164 : 	return (_Copy_impl(_First, _Last,
; 2165 : 		_Dest, _Ptr_cat(_First, _Dest)));

  00004	ff 75 fc	 push	 DWORD PTR __Cat$552653[ebp]
  00007	ff 75 10	 push	 DWORD PTR __Dest$[ebp]
  0000a	ff 75 0c	 push	 DWORD PTR __Last$[ebp]
  0000d	ff 75 08	 push	 DWORD PTR __First$[ebp]
  00010	e8 00 00 00 00	 call	 ??$_Copy_impl@PAHPAH@std@@YAPAHPAH00U_Scalar_ptr_iterator_tag@0@@Z ; std::_Copy_impl<int *,int *>
  00015	83 c4 10	 add	 esp, 16			; 00000010H

; 2166 : 	}

  00018	c9		 leave
  00019	c3		 ret	 0
??$_Copy_impl@PAHPAH@std@@YAPAHPAH00@Z ENDP		; std::_Copy_impl<int *,int *>
_TEXT	ENDS
PUBLIC	??$_Copy_impl@PAKPAK@std@@YAPAKPAK00@Z		; std::_Copy_impl<unsigned long *,unsigned long *>
; Function compile flags: /Ogsp
;	COMDAT ??$_Copy_impl@PAKPAK@std@@YAPAKPAK00@Z
_TEXT	SEGMENT
__Cat$552660 = -4					; size = 1
__First$ = 8						; size = 4
__Last$ = 12						; size = 4
__Dest$ = 16						; size = 4
??$_Copy_impl@PAKPAK@std@@YAPAKPAK00@Z PROC		; std::_Copy_impl<unsigned long *,unsigned long *>, COMDAT

; 2163 : 	{	// copy [_First, _Last) to [_Dest, ...)

  00000	55		 push	 ebp
  00001	8b ec		 mov	 ebp, esp
  00003	51		 push	 ecx

; 2164 : 	return (_Copy_impl(_First, _Last,
; 2165 : 		_Dest, _Ptr_cat(_First, _Dest)));

  00004	ff 75 fc	 push	 DWORD PTR __Cat$552660[ebp]
  00007	ff 75 10	 push	 DWORD PTR __Dest$[ebp]
  0000a	ff 75 0c	 push	 DWORD PTR __Last$[ebp]
  0000d	ff 75 08	 push	 DWORD PTR __First$[ebp]
  00010	e8 00 00 00 00	 call	 ??$_Copy_impl@PAKPAK@std@@YAPAKPAK00U_Scalar_ptr_iterator_tag@0@@Z ; std::_Copy_impl<unsigned long *,unsigned long *>
  00015	83 c4 10	 add	 esp, 16			; 00000010H

; 2166 : 	}

  00018	c9		 leave
  00019	c3		 ret	 0
??$_Copy_impl@PAKPAK@std@@YAPAKPAK00@Z ENDP		; std::_Copy_impl<unsigned long *,unsigned long *>
_TEXT	ENDS
PUBLIC	??$_Cons_val@V?$allocator@PAUUserInfo@UserInfoToolTip@@@std@@PAUUserInfo@UserInfoToolTip@@AAPAU34@@std@@YAXAAV?$allocator@PAUUserInfo@UserInfoToolTip@@@0@PAPAUUserInfo@UserInfoToolTip@@AAPAU23@@Z ; std::_Cons_val<std::allocator<UserInfoToolTip::UserInfo *>,UserInfoToolTip::UserInfo *,UserInfoToolTip::UserInfo * &>
; Function compile flags: /Ogsp
; File c:\program files (x86)\microsoft visual studio 10.0\vc\include\xmemory
;	COMDAT ??$_Cons_val@V?$allocator@PAUUserInfo@UserInfoToolTip@@@std@@PAUUserInfo@UserInfoToolTip@@AAPAU34@@std@@YAXAAV?$allocator@PAUUserInfo@UserInfoToolTip@@@0@PAPAUUserInfo@UserInfoToolTip@@AAPAU23@@Z
_TEXT	SEGMENT
__Alval$ = 8						; size = 4
__Pdest$ = 12						; size = 4
__Src$ = 16						; size = 4
??$_Cons_val@V?$allocator@PAUUserInfo@UserInfoToolTip@@@std@@PAUUserInfo@UserInfoToolTip@@AAPAU34@@std@@YAXAAV?$allocator@PAUUserInfo@UserInfoToolTip@@@0@PAPAUUserInfo@UserInfoToolTip@@AAPAU23@@Z PROC ; std::_Cons_val<std::allocator<UserInfoToolTip::UserInfo *>,UserInfoToolTip::UserInfo *,UserInfoToolTip::UserInfo * &>, COMDAT

; 279  : 	{	// construct using allocator

  00000	55		 push	 ebp
  00001	8b ec		 mov	 ebp, esp

; 280  : 	_Alval.construct(_Pdest, _STD forward<_Ty2>(_Src));

  00003	8b 45 0c	 mov	 eax, DWORD PTR __Pdest$[ebp]
  00006	85 c0		 test	 eax, eax
  00008	74 07		 je	 SHORT $LN7@Cons_val
  0000a	8b 4d 10	 mov	 ecx, DWORD PTR __Src$[ebp]
  0000d	8b 09		 mov	 ecx, DWORD PTR [ecx]
  0000f	89 08		 mov	 DWORD PTR [eax], ecx
$LN7@Cons_val:

; 281  : 	}

  00011	5d		 pop	 ebp
  00012	c3		 ret	 0
??$_Cons_val@V?$allocator@PAUUserInfo@UserInfoToolTip@@@std@@PAUUserInfo@UserInfoToolTip@@AAPAU34@@std@@YAXAAV?$allocator@PAUUserInfo@UserInfoToolTip@@@0@PAPAUUserInfo@UserInfoToolTip@@AAPAU23@@Z ENDP ; std::_Cons_val<std::allocator<UserInfoToolTip::UserInfo *>,UserInfoToolTip::UserInfo *,UserInfoToolTip::UserInfo * &>
_TEXT	ENDS
PUBLIC	??$_Move@PAPAUUserInfo@UserInfoToolTip@@PAPAU12@@std@@YAPAPAUUserInfo@UserInfoToolTip@@PAPAU12@00@Z ; std::_Move<UserInfoToolTip::UserInfo * *,UserInfoToolTip::UserInfo * *>
; Function compile flags: /Ogsp
; File c:\program files (x86)\microsoft visual studio 10.0\vc\include\xutility
;	COMDAT ??$_Move@PAPAUUserInfo@UserInfoToolTip@@PAPAU12@@std@@YAPAPAUUserInfo@UserInfoToolTip@@PAPAU12@00@Z
_TEXT	SEGMENT
__Cat$552693 = -4					; size = 1
__First$ = 8						; size = 4
__Last$ = 12						; size = 4
__Dest$ = 16						; size = 4
??$_Move@PAPAUUserInfo@UserInfoToolTip@@PAPAU12@@std@@YAPAPAUUserInfo@UserInfoToolTip@@PAPAU12@00@Z PROC ; std::_Move<UserInfoToolTip::UserInfo * *,UserInfoToolTip::UserInfo * *>, COMDAT

; 2533 : 	{	// move [_First, _Last) to [_Dest, ...), unchecked

  00000	55		 push	 ebp
  00001	8b ec		 mov	 ebp, esp
  00003	51		 push	 ecx

; 2534 : 	return (_Move(_First, _Last,
; 2535 : 		_Dest, _Ptr_cat(_First, _Dest)));

  00004	ff 75 fc	 push	 DWORD PTR __Cat$552693[ebp]
  00007	ff 75 10	 push	 DWORD PTR __Dest$[ebp]
  0000a	ff 75 0c	 push	 DWORD PTR __Last$[ebp]
  0000d	ff 75 08	 push	 DWORD PTR __First$[ebp]
  00010	e8 00 00 00 00	 call	 ??$_Move@PAPAUUserInfo@UserInfoToolTip@@PAPAU12@@std@@YAPAPAUUserInfo@UserInfoToolTip@@PAPAU12@00U_Scalar_ptr_iterator_tag@0@@Z ; std::_Move<UserInfoToolTip::UserInfo * *,UserInfoToolTip::UserInfo * *>
  00015	83 c4 10	 add	 esp, 16			; 00000010H

; 2536 : 	}

  00018	c9		 leave
  00019	c3		 ret	 0
??$_Move@PAPAUUserInfo@UserInfoToolTip@@PAPAU12@@std@@YAPAPAUUserInfo@UserInfoToolTip@@PAPAU12@00@Z ENDP ; std::_Move<UserInfoToolTip::UserInfo * *,UserInfoToolTip::UserInfo * *>
_TEXT	ENDS
PUBLIC	??$_Destroy_range@V?$allocator@PAUUserInfo@UserInfoToolTip@@@std@@@std@@YAXPAPAUUserInfo@UserInfoToolTip@@0AAV?$allocator@PAUUserInfo@UserInfoToolTip@@@0@@Z ; std::_Destroy_range<std::allocator<UserInfoToolTip::UserInfo *> >
; Function compile flags: /Ogsp
; File c:\program files (x86)\microsoft visual studio 10.0\vc\include\xmemory
;	COMDAT ??$_Destroy_range@V?$allocator@PAUUserInfo@UserInfoToolTip@@@std@@@std@@YAXPAPAUUserInfo@UserInfoToolTip@@0AAV?$allocator@PAUUserInfo@UserInfoToolTip@@@0@@Z
_TEXT	SEGMENT
__First$ = 8						; size = 4
__Last$ = 12						; size = 4
__Al$ = 16						; size = 4
??$_Destroy_range@V?$allocator@PAUUserInfo@UserInfoToolTip@@@std@@@std@@YAXPAPAUUserInfo@UserInfoToolTip@@0AAV?$allocator@PAUUserInfo@UserInfoToolTip@@@0@@Z PROC ; std::_Destroy_range<std::allocator<UserInfoToolTip::UserInfo *> >, COMDAT

; 88   : 	_Destroy_range(_First, _Last, _Al, _Ptr_cat(_First, _Last));
; 89   : 	}

  00000	c3		 ret	 0
??$_Destroy_range@V?$allocator@PAUUserInfo@UserInfoToolTip@@@std@@@std@@YAXPAPAUUserInfo@UserInfoToolTip@@0AAV?$allocator@PAUUserInfo@UserInfoToolTip@@@0@@Z ENDP ; std::_Destroy_range<std::allocator<UserInfoToolTip::UserInfo *> >
_TEXT	ENDS
PUBLIC	?construct@?$allocator@H@std@@QAEXPAHABH@Z	; std::allocator<int>::construct
; Function compile flags: /Ogsp
;	COMDAT ?construct@?$allocator@H@std@@QAEXPAHABH@Z
_TEXT	SEGMENT
__Ptr$ = 8						; size = 4
__Val$ = 12						; size = 4
?construct@?$allocator@H@std@@QAEXPAHABH@Z PROC		; std::allocator<int>::construct, COMDAT
; _this$ = ecx

; 196  : 		{	// construct object at _Ptr with value _Val

  00000	55		 push	 ebp
  00001	8b ec		 mov	 ebp, esp

; 197  : 		_Construct(_Ptr, _Val);

  00003	8b 45 08	 mov	 eax, DWORD PTR __Ptr$[ebp]
  00006	85 c0		 test	 eax, eax
  00008	74 07		 je	 SHORT $LN5@construct@3
  0000a	8b 4d 0c	 mov	 ecx, DWORD PTR __Val$[ebp]
  0000d	8b 09		 mov	 ecx, DWORD PTR [ecx]
  0000f	89 08		 mov	 DWORD PTR [eax], ecx
$LN5@construct@3:

; 198  : 		}

  00011	5d		 pop	 ebp
  00012	c2 08 00	 ret	 8
?construct@?$allocator@H@std@@QAEXPAHABH@Z ENDP		; std::allocator<int>::construct
_TEXT	ENDS
PUBLIC	?construct@?$allocator@PAUUserInfo@UserInfoToolTip@@@std@@QAEXPAPAUUserInfo@UserInfoToolTip@@ABQAU34@@Z ; std::allocator<UserInfoToolTip::UserInfo *>::construct
; Function compile flags: /Ogsp
;	COMDAT ?construct@?$allocator@PAUUserInfo@UserInfoToolTip@@@std@@QAEXPAPAUUserInfo@UserInfoToolTip@@ABQAU34@@Z
_TEXT	SEGMENT
__Ptr$ = 8						; size = 4
__Val$ = 12						; size = 4
?construct@?$allocator@PAUUserInfo@UserInfoToolTip@@@std@@QAEXPAPAUUserInfo@UserInfoToolTip@@ABQAU34@@Z PROC ; std::allocator<UserInfoToolTip::UserInfo *>::construct, COMDAT
; _this$ = ecx

; 196  : 		{	// construct object at _Ptr with value _Val

  00000	55		 push	 ebp
  00001	8b ec		 mov	 ebp, esp

; 197  : 		_Construct(_Ptr, _Val);

  00003	8b 45 08	 mov	 eax, DWORD PTR __Ptr$[ebp]
  00006	85 c0		 test	 eax, eax
  00008	74 07		 je	 SHORT $LN5@construct@4
  0000a	8b 4d 0c	 mov	 ecx, DWORD PTR __Val$[ebp]
  0000d	8b 09		 mov	 ecx, DWORD PTR [ecx]
  0000f	89 08		 mov	 DWORD PTR [eax], ecx
$LN5@construct@4:

; 198  : 		}

  00011	5d		 pop	 ebp
  00012	c2 08 00	 ret	 8
?construct@?$allocator@PAUUserInfo@UserInfoToolTip@@@std@@QAEXPAPAUUserInfo@UserInfoToolTip@@ABQAU34@@Z ENDP ; std::allocator<UserInfoToolTip::UserInfo *>::construct
_TEXT	ENDS
PUBLIC	??$construct@AAVioHashString@@@?$allocator@VioHashString@@@std@@QAEXPAVioHashString@@AAV2@@Z ; std::allocator<ioHashString>::construct<ioHashString &>
;	COMDAT xdata$x
; File c:\program files (x86)\microsoft visual studio 10.0\vc\include\utility
xdata$x	SEGMENT
__unwindtable$??$construct@AAVioHashString@@@?$allocator@VioHashString@@@std@@QAEXPAVioHashString@@AAV2@@Z DD 0ffffffffH
	DD	FLAT:__unwindfunclet$??$construct@AAVioHashString@@@?$allocator@VioHashString@@@std@@QAEXPAVioHashString@@AAV2@@Z$0
__ehfuncinfo$??$construct@AAVioHashString@@@?$allocator@VioHashString@@@std@@QAEXPAVioHashString@@AAV2@@Z DD 019930522H
	DD	01H
	DD	FLAT:__unwindtable$??$construct@AAVioHashString@@@?$allocator@VioHashString@@@std@@QAEXPAVioHashString@@AAV2@@Z
	DD	2 DUP(00H)
	DD	2 DUP(00H)
	DD	00H
	DD	01H
; Function compile flags: /Ogsp
; File c:\program files (x86)\microsoft visual studio 10.0\vc\include\xmemory
xdata$x	ENDS
;	COMDAT ??$construct@AAVioHashString@@@?$allocator@VioHashString@@@std@@QAEXPAVioHashString@@AAV2@@Z
_TEXT	SEGMENT
$T552757 = -16						; size = 4
__$EHRec$ = -12						; size = 12
__Ptr$ = 8						; size = 4
__Val$ = 12						; size = 4
??$construct@AAVioHashString@@@?$allocator@VioHashString@@@std@@QAEXPAVioHashString@@AAV2@@Z PROC ; std::allocator<ioHashString>::construct<ioHashString &>, COMDAT
; _this$ = ecx

; 206  : 		void construct(pointer _Ptr, _Other&& _Val)

  00000	6a 04		 push	 4
  00002	b8 00 00 00 00	 mov	 eax, __ehhandler$??$construct@AAVioHashString@@@?$allocator@VioHashString@@@std@@QAEXPAVioHashString@@AAV2@@Z
  00007	e8 00 00 00 00	 call	 __EH_prolog3

; 207  : 		{	// construct object at _Ptr with value _Val
; 208  : 		::new ((void _FARQ *)_Ptr) _Ty(_STD forward<_Other>(_Val));

  0000c	8b 4d 08	 mov	 ecx, DWORD PTR __Ptr$[ebp]
  0000f	89 4d f0	 mov	 DWORD PTR $T552757[ebp], ecx
  00012	83 65 fc 00	 and	 DWORD PTR __$EHRec$[ebp+8], 0
  00016	85 c9		 test	 ecx, ecx
  00018	74 09		 je	 SHORT $LN3@construct@5
  0001a	ff 75 0c	 push	 DWORD PTR __Val$[ebp]
  0001d	ff 15 00 00 00
	00		 call	 DWORD PTR __imp_??0ioHashString@@QAE@ABV0@@Z
$LN3@construct@5:

; 209  : 		}

  00023	e8 00 00 00 00	 call	 __EH_epilog3
  00028	c2 08 00	 ret	 8
_TEXT	ENDS
;	COMDAT text$x
text$x	SEGMENT
__unwindfunclet$??$construct@AAVioHashString@@@?$allocator@VioHashString@@@std@@QAEXPAVioHashString@@AAV2@@Z$0:
  00000	ff 75 08	 push	 DWORD PTR __Ptr$[ebp]
  00003	ff 75 f0	 push	 DWORD PTR $T552757[ebp]
  00006	e8 00 00 00 00	 call	 ??3@YAXPAX0@Z		; operator delete
  0000b	59		 pop	 ecx
  0000c	59		 pop	 ecx
  0000d	c3		 ret	 0
__ehhandler$??$construct@AAVioHashString@@@?$allocator@VioHashString@@@std@@QAEXPAVioHashString@@AAV2@@Z:
  0000e	8b 54 24 08	 mov	 edx, DWORD PTR [esp+8]
  00012	8d 42 0c	 lea	 eax, DWORD PTR [edx+12]
  00015	8b 4a ec	 mov	 ecx, DWORD PTR [edx-20]
  00018	33 c8		 xor	 ecx, eax
  0001a	e8 00 00 00 00	 call	 @__security_check_cookie@4
  0001f	b8 00 00 00 00	 mov	 eax, OFFSET __ehfuncinfo$??$construct@AAVioHashString@@@?$allocator@VioHashString@@@std@@QAEXPAVioHashString@@AAV2@@Z
  00024	e9 00 00 00 00	 jmp	 ___CxxFrameHandler3
text$x	ENDS
??$construct@AAVioHashString@@@?$allocator@VioHashString@@@std@@QAEXPAVioHashString@@AAV2@@Z ENDP ; std::allocator<ioHashString>::construct<ioHashString &>
PUBLIC	??$_Uninitialized_copy@PAHPAHV?$allocator@H@std@@@std@@YAPAHPAH00AAV?$allocator@H@0@@Z ; std::_Uninitialized_copy<int *,int *,std::allocator<int> >
; Function compile flags: /Ogsp
; File c:\program files (x86)\microsoft visual studio 10.0\vc\include\memory
;	COMDAT ??$_Uninitialized_copy@PAHPAHV?$allocator@H@std@@@std@@YAPAHPAH00AAV?$allocator@H@0@@Z
_TEXT	SEGMENT
__Cat$552778 = -4					; size = 1
__First$ = 8						; size = 4
__Last$ = 12						; size = 4
__Dest$ = 16						; size = 4
__Al$ = 20						; size = 4
??$_Uninitialized_copy@PAHPAHV?$allocator@H@std@@@std@@YAPAHPAH00AAV?$allocator@H@0@@Z PROC ; std::_Uninitialized_copy<int *,int *,std::allocator<int> >, COMDAT

; 412  : 	{	// copy [_First, _Last) to raw _Dest, using _Al

  00000	55		 push	 ebp
  00001	8b ec		 mov	 ebp, esp
  00003	51		 push	 ecx

; 413  : 	return (_Uninit_copy(_First, _Last, _Dest, _Al,
; 414  : 		_Ptr_cat(_First, _Dest)));

  00004	ff 75 fc	 push	 DWORD PTR __Cat$552778[ebp]
  00007	ff 75 14	 push	 DWORD PTR __Al$[ebp]
  0000a	ff 75 10	 push	 DWORD PTR __Dest$[ebp]
  0000d	ff 75 0c	 push	 DWORD PTR __Last$[ebp]
  00010	ff 75 08	 push	 DWORD PTR __First$[ebp]
  00013	e8 00 00 00 00	 call	 ??$_Uninit_copy@HH@std@@YAPAHPAH00AAV?$allocator@H@0@U_Scalar_ptr_iterator_tag@0@@Z ; std::_Uninit_copy<int,int>
  00018	83 c4 14	 add	 esp, 20			; 00000014H

; 415  : 	}

  0001b	c9		 leave
  0001c	c3		 ret	 0
??$_Uninitialized_copy@PAHPAHV?$allocator@H@std@@@std@@YAPAHPAH00AAV?$allocator@H@0@@Z ENDP ; std::_Uninitialized_copy<int *,int *,std::allocator<int> >
_TEXT	ENDS
PUBLIC	??$construct@AAH@?$allocator@H@std@@QAEXPAHAAH@Z ; std::allocator<int>::construct<int &>
; Function compile flags: /Ogsp
; File c:\program files (x86)\microsoft visual studio 10.0\vc\include\xmemory
;	COMDAT ??$construct@AAH@?$allocator@H@std@@QAEXPAHAAH@Z
_TEXT	SEGMENT
__Ptr$ = 8						; size = 4
__Val$ = 12						; size = 4
??$construct@AAH@?$allocator@H@std@@QAEXPAHAAH@Z PROC	; std::allocator<int>::construct<int &>, COMDAT
; _this$ = ecx

; 206  : 		void construct(pointer _Ptr, _Other&& _Val)

  00000	55		 push	 ebp
  00001	8b ec		 mov	 ebp, esp

; 207  : 		{	// construct object at _Ptr with value _Val
; 208  : 		::new ((void _FARQ *)_Ptr) _Ty(_STD forward<_Other>(_Val));

  00003	8b 45 08	 mov	 eax, DWORD PTR __Ptr$[ebp]
  00006	85 c0		 test	 eax, eax
  00008	74 07		 je	 SHORT $LN3@construct@6
  0000a	8b 4d 0c	 mov	 ecx, DWORD PTR __Val$[ebp]
  0000d	8b 09		 mov	 ecx, DWORD PTR [ecx]
  0000f	89 08		 mov	 DWORD PTR [eax], ecx
$LN3@construct@6:

; 209  : 		}

  00011	5d		 pop	 ebp
  00012	c2 08 00	 ret	 8
??$construct@AAH@?$allocator@H@std@@QAEXPAHAAH@Z ENDP	; std::allocator<int>::construct<int &>
_TEXT	ENDS
PUBLIC	??$_Uninitialized_copy@PAKPAKV?$allocator@K@std@@@std@@YAPAKPAK00AAV?$allocator@K@0@@Z ; std::_Uninitialized_copy<unsigned long *,unsigned long *,std::allocator<unsigned long> >
; Function compile flags: /Ogsp
; File c:\program files (x86)\microsoft visual studio 10.0\vc\include\memory
;	COMDAT ??$_Uninitialized_copy@PAKPAKV?$allocator@K@std@@@std@@YAPAKPAK00AAV?$allocator@K@0@@Z
_TEXT	SEGMENT
__Cat$552798 = -4					; size = 1
__First$ = 8						; size = 4
__Last$ = 12						; size = 4
__Dest$ = 16						; size = 4
__Al$ = 20						; size = 4
??$_Uninitialized_copy@PAKPAKV?$allocator@K@std@@@std@@YAPAKPAK00AAV?$allocator@K@0@@Z PROC ; std::_Uninitialized_copy<unsigned long *,unsigned long *,std::allocator<unsigned long> >, COMDAT

; 412  : 	{	// copy [_First, _Last) to raw _Dest, using _Al

  00000	55		 push	 ebp
  00001	8b ec		 mov	 ebp, esp
  00003	51		 push	 ecx

; 413  : 	return (_Uninit_copy(_First, _Last, _Dest, _Al,
; 414  : 		_Ptr_cat(_First, _Dest)));

  00004	ff 75 fc	 push	 DWORD PTR __Cat$552798[ebp]
  00007	ff 75 14	 push	 DWORD PTR __Al$[ebp]
  0000a	ff 75 10	 push	 DWORD PTR __Dest$[ebp]
  0000d	ff 75 0c	 push	 DWORD PTR __Last$[ebp]
  00010	ff 75 08	 push	 DWORD PTR __First$[ebp]
  00013	e8 00 00 00 00	 call	 ??$_Uninit_copy@KK@std@@YAPAKPAK00AAV?$allocator@K@0@U_Scalar_ptr_iterator_tag@0@@Z ; std::_Uninit_copy<unsigned long,unsigned long>
  00018	83 c4 14	 add	 esp, 20			; 00000014H

; 415  : 	}

  0001b	c9		 leave
  0001c	c3		 ret	 0
??$_Uninitialized_copy@PAKPAKV?$allocator@K@std@@@std@@YAPAKPAK00AAV?$allocator@K@0@@Z ENDP ; std::_Uninitialized_copy<unsigned long *,unsigned long *,std::allocator<unsigned long> >
_TEXT	ENDS
PUBLIC	??$_Uninitialized_move@PAPAUUserInfo@UserInfoToolTip@@PAPAU12@V?$allocator@PAUUserInfo@UserInfoToolTip@@@std@@@std@@YAPAPAUUserInfo@UserInfoToolTip@@PAPAU12@00AAV?$allocator@PAUUserInfo@UserInfoToolTip@@@0@@Z ; std::_Uninitialized_move<UserInfoToolTip::UserInfo * *,UserInfoToolTip::UserInfo * *,std::allocator<UserInfoToolTip::UserInfo *> >
; Function compile flags: /Ogsp
;	COMDAT ??$_Uninitialized_move@PAPAUUserInfo@UserInfoToolTip@@PAPAU12@V?$allocator@PAUUserInfo@UserInfoToolTip@@@std@@@std@@YAPAPAUUserInfo@UserInfoToolTip@@PAPAU12@00AAV?$allocator@PAUUserInfo@UserInfoToolTip@@@0@@Z
_TEXT	SEGMENT
__First$ = 8						; size = 4
__Last$ = 12						; size = 4
__Dest$ = 16						; size = 4
__Al$ = 20						; size = 4
??$_Uninitialized_move@PAPAUUserInfo@UserInfoToolTip@@PAPAU12@V?$allocator@PAUUserInfo@UserInfoToolTip@@@std@@@std@@YAPAPAUUserInfo@UserInfoToolTip@@PAPAU12@00AAV?$allocator@PAUUserInfo@UserInfoToolTip@@@0@@Z PROC ; std::_Uninitialized_move<UserInfoToolTip::UserInfo * *,UserInfoToolTip::UserInfo * *,std::allocator<UserInfoToolTip::UserInfo *> >, COMDAT

; 469  : 	{	// move [_First, _Last) to raw _Dest, using _Al

  00000	55		 push	 ebp
  00001	8b ec		 mov	 ebp, esp
  00003	56		 push	 esi

; 470  : 	return (_Uninit_move(_First, _Last, _Dest, _Al,
; 471  : 		_Val_type(_First), _Ptr_cat(_First, _Dest)));

  00004	8b 75 0c	 mov	 esi, DWORD PTR __Last$[ebp]
  00007	2b 75 08	 sub	 esi, DWORD PTR __First$[ebp]
  0000a	c1 fe 02	 sar	 esi, 2
  0000d	c1 e6 02	 shl	 esi, 2
  00010	56		 push	 esi
  00011	ff 75 08	 push	 DWORD PTR __First$[ebp]
  00014	ff 75 10	 push	 DWORD PTR __Dest$[ebp]
  00017	ff 15 00 00 00
	00		 call	 DWORD PTR __imp__memmove
  0001d	83 c4 0c	 add	 esp, 12			; 0000000cH
  00020	03 c6		 add	 eax, esi
  00022	5e		 pop	 esi

; 472  : 	}

  00023	5d		 pop	 ebp
  00024	c3		 ret	 0
??$_Uninitialized_move@PAPAUUserInfo@UserInfoToolTip@@PAPAU12@V?$allocator@PAUUserInfo@UserInfoToolTip@@@std@@@std@@YAPAPAUUserInfo@UserInfoToolTip@@PAPAU12@00AAV?$allocator@PAUUserInfo@UserInfoToolTip@@@0@@Z ENDP ; std::_Uninitialized_move<UserInfoToolTip::UserInfo * *,UserInfoToolTip::UserInfo * *,std::allocator<UserInfoToolTip::UserInfo *> >
_TEXT	ENDS
PUBLIC	?destroy@?$allocator@UExpandMedalSlot@ioExpandMedalSlotManager@@@std@@QAEXPAUExpandMedalSlot@ioExpandMedalSlotManager@@@Z ; std::allocator<ioExpandMedalSlotManager::ExpandMedalSlot>::destroy
; Function compile flags: /Ogsp
; File c:\program files (x86)\microsoft visual studio 10.0\vc\include\xmemory
;	COMDAT ?destroy@?$allocator@UExpandMedalSlot@ioExpandMedalSlotManager@@@std@@QAEXPAUExpandMedalSlot@ioExpandMedalSlotManager@@@Z
_TEXT	SEGMENT
__Ptr$ = 8						; size = 4
?destroy@?$allocator@UExpandMedalSlot@ioExpandMedalSlotManager@@@std@@QAEXPAUExpandMedalSlot@ioExpandMedalSlotManager@@@Z PROC ; std::allocator<ioExpandMedalSlotManager::ExpandMedalSlot>::destroy, COMDAT
; _this$ = ecx

; 213  : 		_Destroy(_Ptr);
; 214  : 		}

  00000	c2 04 00	 ret	 4
?destroy@?$allocator@UExpandMedalSlot@ioExpandMedalSlotManager@@@std@@QAEXPAUExpandMedalSlot@ioExpandMedalSlotManager@@@Z ENDP ; std::allocator<ioExpandMedalSlotManager::ExpandMedalSlot>::destroy
_TEXT	ENDS
PUBLIC	?construct@?$allocator@VioHashString@@@std@@QAEXPAVioHashString@@$$QAV3@@Z ; std::allocator<ioHashString>::construct
;	COMDAT xdata$x
; File c:\program files (x86)\microsoft visual studio 10.0\vc\include\utility
xdata$x	SEGMENT
__unwindtable$?construct@?$allocator@VioHashString@@@std@@QAEXPAVioHashString@@$$QAV3@@Z DD 0ffffffffH
	DD	FLAT:__unwindfunclet$?construct@?$allocator@VioHashString@@@std@@QAEXPAVioHashString@@$$QAV3@@Z$0
__ehfuncinfo$?construct@?$allocator@VioHashString@@@std@@QAEXPAVioHashString@@$$QAV3@@Z DD 019930522H
	DD	01H
	DD	FLAT:__unwindtable$?construct@?$allocator@VioHashString@@@std@@QAEXPAVioHashString@@$$QAV3@@Z
	DD	2 DUP(00H)
	DD	2 DUP(00H)
	DD	00H
	DD	01H
; Function compile flags: /Ogsp
; File c:\program files (x86)\microsoft visual studio 10.0\vc\include\xmemory
xdata$x	ENDS
;	COMDAT ?construct@?$allocator@VioHashString@@@std@@QAEXPAVioHashString@@$$QAV3@@Z
_TEXT	SEGMENT
$T552823 = -16						; size = 4
__$EHRec$ = -12						; size = 12
__Ptr$ = 8						; size = 4
__Val$ = 12						; size = 4
?construct@?$allocator@VioHashString@@@std@@QAEXPAVioHashString@@$$QAV3@@Z PROC ; std::allocator<ioHashString>::construct, COMDAT
; _this$ = ecx

; 201  : 		{	// construct object at _Ptr with value _Val

  00000	6a 04		 push	 4
  00002	b8 00 00 00 00	 mov	 eax, __ehhandler$?construct@?$allocator@VioHashString@@@std@@QAEXPAVioHashString@@$$QAV3@@Z
  00007	e8 00 00 00 00	 call	 __EH_prolog3

; 202  : 		::new ((void _FARQ *)_Ptr) _Ty(_STD forward<_Ty>(_Val));

  0000c	8b 4d 08	 mov	 ecx, DWORD PTR __Ptr$[ebp]
  0000f	89 4d f0	 mov	 DWORD PTR $T552823[ebp], ecx
  00012	83 65 fc 00	 and	 DWORD PTR __$EHRec$[ebp+8], 0
  00016	85 c9		 test	 ecx, ecx
  00018	74 09		 je	 SHORT $LN3@construct@7
  0001a	ff 75 0c	 push	 DWORD PTR __Val$[ebp]
  0001d	ff 15 00 00 00
	00		 call	 DWORD PTR __imp_??0ioHashString@@QAE@ABV0@@Z
$LN3@construct@7:

; 203  : 		}

  00023	e8 00 00 00 00	 call	 __EH_epilog3
  00028	c2 08 00	 ret	 8
_TEXT	ENDS
;	COMDAT text$x
text$x	SEGMENT
__unwindfunclet$?construct@?$allocator@VioHashString@@@std@@QAEXPAVioHashString@@$$QAV3@@Z$0:
  00000	ff 75 08	 push	 DWORD PTR __Ptr$[ebp]
  00003	ff 75 f0	 push	 DWORD PTR $T552823[ebp]
  00006	e8 00 00 00 00	 call	 ??3@YAXPAX0@Z		; operator delete
  0000b	59		 pop	 ecx
  0000c	59		 pop	 ecx
  0000d	c3		 ret	 0
__ehhandler$?construct@?$allocator@VioHashString@@@std@@QAEXPAVioHashString@@$$QAV3@@Z:
  0000e	8b 54 24 08	 mov	 edx, DWORD PTR [esp+8]
  00012	8d 42 0c	 lea	 eax, DWORD PTR [edx+12]
  00015	8b 4a ec	 mov	 ecx, DWORD PTR [edx-20]
  00018	33 c8		 xor	 ecx, eax
  0001a	e8 00 00 00 00	 call	 @__security_check_cookie@4
  0001f	b8 00 00 00 00	 mov	 eax, OFFSET __ehfuncinfo$?construct@?$allocator@VioHashString@@@std@@QAEXPAVioHashString@@$$QAV3@@Z
  00024	e9 00 00 00 00	 jmp	 ___CxxFrameHandler3
text$x	ENDS
?construct@?$allocator@VioHashString@@@std@@QAEXPAVioHashString@@$$QAV3@@Z ENDP ; std::allocator<ioHashString>::construct
PUBLIC	?StringCbPrintfA@@YAJPADIPBDZZ			; StringCbPrintfA
; Function compile flags: /Ogsp
; File c:\program files (x86)\microsoft sdks\windows\v7.0a\include\strsafe.h
;	COMDAT ?StringCbPrintfA@@YAJPADIPBDZZ
_TEXT	SEGMENT
_pszDest$ = 8						; size = 4
_cbDest$ = 12						; size = 4
_pszFormat$ = 16					; size = 4
?StringCbPrintfA@@YAJPADIPBDZZ PROC			; StringCbPrintfA, COMDAT

; 4767 : {

  00000	55		 push	 ebp
  00001	8b ec		 mov	 ebp, esp

; 4768 :     HRESULT hr;
; 4769 :     size_t cchDest = cbDest / sizeof(char);
; 4770 : 
; 4771 :     hr = StringValidateDestA(pszDest, cchDest, STRSAFE_MAX_CCH);

  00003	8b 4d 0c	 mov	 ecx, DWORD PTR _cbDest$[ebp]
  00006	33 c0		 xor	 eax, eax
  00008	85 c9		 test	 ecx, ecx
  0000a	74 08		 je	 SHORT $LN4@StringCbPr
  0000c	81 f9 ff ff ff
	7f		 cmp	 ecx, 2147483647		; 7fffffffH
  00012	76 05		 jbe	 SHORT $LN5@StringCbPr
$LN4@StringCbPr:
  00014	b8 57 00 07 80	 mov	 eax, -2147024809	; 80070057H
$LN5@StringCbPr:

; 4772 :     
; 4773 :     if (SUCCEEDED(hr))

  00019	85 c0		 test	 eax, eax
  0001b	78 39		 js	 SHORT $LN1@StringCbPr

; 4774 :     {
; 4775 :         va_list argList;
; 4776 : 
; 4777 :         va_start(argList, pszFormat);
; 4778 : 
; 4779 :         hr = StringVPrintfWorkerA(pszDest,
; 4780 :                                   cchDest,
; 4781 :                                   NULL,
; 4782 :                                   pszFormat,
; 4783 :                                   argList);

  0001d	53		 push	 ebx
  0001e	56		 push	 esi
  0001f	57		 push	 edi
  00020	8b 7d 08	 mov	 edi, DWORD PTR _pszDest$[ebp]
  00023	8d 45 14	 lea	 eax, DWORD PTR _pszFormat$[ebp+4]
  00026	50		 push	 eax
  00027	ff 75 10	 push	 DWORD PTR _pszFormat$[ebp]
  0002a	8d 71 ff	 lea	 esi, DWORD PTR [ecx-1]
  0002d	56		 push	 esi
  0002e	57		 push	 edi
  0002f	33 db		 xor	 ebx, ebx
  00031	ff 15 00 00 00
	00		 call	 DWORD PTR __imp___vsnprintf
  00037	83 c4 10	 add	 esp, 16			; 00000010H
  0003a	85 c0		 test	 eax, eax
  0003c	78 0b		 js	 SHORT $LN12@StringCbPr
  0003e	3b c6		 cmp	 eax, esi
  00040	77 07		 ja	 SHORT $LN12@StringCbPr
  00042	75 0d		 jne	 SHORT $LN9@StringCbPr
  00044	88 1c 3e	 mov	 BYTE PTR [esi+edi], bl
  00047	eb 08		 jmp	 SHORT $LN9@StringCbPr
$LN12@StringCbPr:
  00049	88 1c 3e	 mov	 BYTE PTR [esi+edi], bl
  0004c	bb 7a 00 07 80	 mov	 ebx, -2147024774	; 8007007aH
$LN9@StringCbPr:
  00051	5f		 pop	 edi
  00052	5e		 pop	 esi
  00053	8b c3		 mov	 eax, ebx
  00055	5b		 pop	 ebx
$LN1@StringCbPr:

; 4784 : 
; 4785 :         va_end(argList);
; 4786 :     }
; 4787 : 
; 4788 :     return hr;
; 4789 : }

  00056	5d		 pop	 ebp
  00057	c3		 ret	 0
?StringCbPrintfA@@YAJPADIPBDZZ ENDP			; StringCbPrintfA
_TEXT	ENDS
PUBLIC	?c_str@?$basic_string@DU?$char_traits@D@std@@V?$allocator@D@2@@std@@QBEPBDXZ ; std::basic_string<char,std::char_traits<char>,std::allocator<char> >::c_str
; Function compile flags: /Ogsp
; File c:\program files (x86)\microsoft visual studio 10.0\vc\include\xstring
;	COMDAT ?c_str@?$basic_string@DU?$char_traits@D@std@@V?$allocator@D@2@@std@@QBEPBDXZ
_TEXT	SEGMENT
?c_str@?$basic_string@DU?$char_traits@D@std@@V?$allocator@D@2@@std@@QBEPBDXZ PROC ; std::basic_string<char,std::char_traits<char>,std::allocator<char> >::c_str, COMDAT
; _this$ = ecx

; 1497 : 		return (_Myptr());

  00000	83 79 14 10	 cmp	 DWORD PTR [ecx+20], 16	; 00000010H
  00004	72 03		 jb	 SHORT $LN5@c_str
  00006	8b 01		 mov	 eax, DWORD PTR [ecx]

; 1498 : 		}

  00008	c3		 ret	 0

; 1497 : 		return (_Myptr());

$LN5@c_str:
  00009	8b c1		 mov	 eax, ecx

; 1498 : 		}

  0000b	c3		 ret	 0
?c_str@?$basic_string@DU?$char_traits@D@std@@V?$allocator@D@2@@std@@QBEPBDXZ ENDP ; std::basic_string<char,std::char_traits<char>,std::allocator<char> >::c_str
_TEXT	ENDS
PUBLIC	?begin@?$vector@HV?$allocator@H@std@@@std@@QAE?AV?$_Vector_iterator@V?$_Vector_val@HV?$allocator@H@std@@@std@@@2@XZ ; std::vector<int,std::allocator<int> >::begin
; Function compile flags: /Ogsp
; File c:\program files (x86)\microsoft visual studio 10.0\vc\include\vector
;	COMDAT ?begin@?$vector@HV?$allocator@H@std@@@std@@QAE?AV?$_Vector_iterator@V?$_Vector_val@HV?$allocator@H@std@@@std@@@2@XZ
_TEXT	SEGMENT
___$ReturnUdt$ = 8					; size = 4
?begin@?$vector@HV?$allocator@H@std@@@std@@QAE?AV?$_Vector_iterator@V?$_Vector_val@HV?$allocator@H@std@@@std@@@2@XZ PROC ; std::vector<int,std::allocator<int> >::begin, COMDAT
; _this$ = ecx

; 781  : 		{	// return iterator for beginning of mutable sequence

  00000	55		 push	 ebp
  00001	8b ec		 mov	 ebp, esp

; 782  : 		return (iterator(this->_Myfirst, this));

  00003	8b 09		 mov	 ecx, DWORD PTR [ecx]
  00005	8b 45 08	 mov	 eax, DWORD PTR ___$ReturnUdt$[ebp]
  00008	89 08		 mov	 DWORD PTR [eax], ecx

; 783  : 		}

  0000a	5d		 pop	 ebp
  0000b	c2 04 00	 ret	 4
?begin@?$vector@HV?$allocator@H@std@@@std@@QAE?AV?$_Vector_iterator@V?$_Vector_val@HV?$allocator@H@std@@@std@@@2@XZ ENDP ; std::vector<int,std::allocator<int> >::begin
_TEXT	ENDS
PUBLIC	??B?$CEncrypt@H@@QBEHXZ				; CEncrypt<int>::operator int
; Function compile flags: /Ogsp
; File d:\lost saga for developer\youtube\tutorial\source\src\lsclient\encryptvalue.h
;	COMDAT ??B?$CEncrypt@H@@QBEHXZ
_TEXT	SEGMENT
_value$ = -4						; size = 4
??B?$CEncrypt@H@@QBEHXZ PROC				; CEncrypt<int>::operator int, COMDAT
; _this$ = ecx

; 145  : 	{

  00000	55		 push	 ebp
  00001	8b ec		 mov	 ebp, esp
  00003	51		 push	 ecx

; 146  : 		//UJ 130829, const도 똑같이 하면 된다 --start
; 147  : 		type value;
; 148  : 		CEncrypt<type>* pThis = const_cast<CEncrypt<type>*>(this);
; 149  : 		pThis->DecryptValueToPool(&value);

  00004	8d 45 fc	 lea	 eax, DWORD PTR _value$[ebp]
  00007	50		 push	 eax
  00008	e8 00 00 00 00	 call	 ?DecryptValueToPool@?$CEncrypt@H@@QAEXPAH@Z ; CEncrypt<int>::DecryptValueToPool

; 150  : 		//// const에서 DecryptValueToPool 사용할 수 없으므로 아래와 같이함.
; 151  :  		//type value;
; 152  : 		//char szTempMem[MAX_ENCRYPT];
; 153  : 		//m_RC5.DecryptByte( m_MemPool, szTempMem, max(m_ValueSize, DEFAULT_ENCRYPT) );
; 154  : 		//memcpy( &value, szTempMem, m_ValueSize );
; 155  : 		//UJ --end
; 156  : 
; 157  : #ifdef _NOTUSE
; 158  : 		Debug();
; 159  : #endif
; 160  : 		return value;

  0000d	8b 45 fc	 mov	 eax, DWORD PTR _value$[ebp]

; 161  : 	}

  00010	c9		 leave
  00011	c3		 ret	 0
??B?$CEncrypt@H@@QBEHXZ ENDP				; CEncrypt<int>::operator int
_TEXT	ENDS
PUBLIC	??B?$CEncrypt@W4ModeType@@@@QAE?AW4ModeType@@XZ	; CEncrypt<enum ModeType>::operator enum ModeType
; Function compile flags: /Ogsp
;	COMDAT ??B?$CEncrypt@W4ModeType@@@@QAE?AW4ModeType@@XZ
_TEXT	SEGMENT
_value$ = -4						; size = 4
??B?$CEncrypt@W4ModeType@@@@QAE?AW4ModeType@@XZ PROC	; CEncrypt<enum ModeType>::operator enum ModeType, COMDAT
; _this$ = ecx

; 134  : 	{

  00000	55		 push	 ebp
  00001	8b ec		 mov	 ebp, esp
  00003	51		 push	 ecx

; 135  : 		type value;
; 136  : 		DecryptValueToPool(&value);

  00004	8d 45 fc	 lea	 eax, DWORD PTR _value$[ebp]
  00007	50		 push	 eax
  00008	e8 00 00 00 00	 call	 ?DecryptValueToPool@?$CEncrypt@W4ModeType@@@@QAEXPAW4ModeType@@@Z ; CEncrypt<enum ModeType>::DecryptValueToPool

; 137  : 
; 138  : #ifdef _NOTUSE
; 139  : 		Debug();
; 140  : #endif
; 141  : 		return value;

  0000d	8b 45 fc	 mov	 eax, DWORD PTR _value$[ebp]

; 142  : 	}

  00010	c9		 leave
  00011	c3		 ret	 0
??B?$CEncrypt@W4ModeType@@@@QAE?AW4ModeType@@XZ ENDP	; CEncrypt<enum ModeType>::operator enum ModeType
_TEXT	ENDS
PUBLIC	??0?$_String_val@DV?$allocator@D@std@@@std@@QAE@V?$allocator@D@1@@Z ; std::_String_val<char,std::allocator<char> >::_String_val<char,std::allocator<char> >
; Function compile flags: /Ogsp
; File c:\program files (x86)\microsoft visual studio 10.0\vc\include\xstring
;	COMDAT ??0?$_String_val@DV?$allocator@D@std@@@std@@QAE@V?$allocator@D@1@@Z
_TEXT	SEGMENT
__Al$ = 8						; size = 1
??0?$_String_val@DV?$allocator@D@std@@@std@@QAE@V?$allocator@D@1@@Z PROC ; std::_String_val<char,std::allocator<char> >::_String_val<char,std::allocator<char> >, COMDAT
; _this$ = ecx

; 454  : 		{	// construct allocator from _Al

  00000	8b c1		 mov	 eax, ecx

; 455  : 		}

  00002	c2 04 00	 ret	 4
??0?$_String_val@DV?$allocator@D@std@@@std@@QAE@V?$allocator@D@1@@Z ENDP ; std::_String_val<char,std::allocator<char> >::_String_val<char,std::allocator<char> >
_TEXT	ENDS
PUBLIC	?begin@?$vector@VioHashString@@V?$allocator@VioHashString@@@std@@@std@@QAE?AV?$_Vector_iterator@V?$_Vector_val@VioHashString@@V?$allocator@VioHashString@@@std@@@std@@@2@XZ ; std::vector<ioHashString,std::allocator<ioHashString> >::begin
; Function compile flags: /Ogsp
; File c:\program files (x86)\microsoft visual studio 10.0\vc\include\vector
;	COMDAT ?begin@?$vector@VioHashString@@V?$allocator@VioHashString@@@std@@@std@@QAE?AV?$_Vector_iterator@V?$_Vector_val@VioHashString@@V?$allocator@VioHashString@@@std@@@std@@@2@XZ
_TEXT	SEGMENT
___$ReturnUdt$ = 8					; size = 4
?begin@?$vector@VioHashString@@V?$allocator@VioHashString@@@std@@@std@@QAE?AV?$_Vector_iterator@V?$_Vector_val@VioHashString@@V?$allocator@VioHashString@@@std@@@std@@@2@XZ PROC ; std::vector<ioHashString,std::allocator<ioHashString> >::begin, COMDAT
; _this$ = ecx

; 781  : 		{	// return iterator for beginning of mutable sequence

  00000	55		 push	 ebp
  00001	8b ec		 mov	 ebp, esp

; 782  : 		return (iterator(this->_Myfirst, this));

  00003	8b 09		 mov	 ecx, DWORD PTR [ecx]
  00005	8b 45 08	 mov	 eax, DWORD PTR ___$ReturnUdt$[ebp]
  00008	89 08		 mov	 DWORD PTR [eax], ecx

; 783  : 		}

  0000a	5d		 pop	 ebp
  0000b	c2 04 00	 ret	 4
?begin@?$vector@VioHashString@@V?$allocator@VioHashString@@@std@@@std@@QAE?AV?$_Vector_iterator@V?$_Vector_val@VioHashString@@V?$allocator@VioHashString@@@std@@@std@@@2@XZ ENDP ; std::vector<ioHashString,std::allocator<ioHashString> >::begin
_TEXT	ENDS
PUBLIC	?end@?$vector@VioHashString@@V?$allocator@VioHashString@@@std@@@std@@QAE?AV?$_Vector_iterator@V?$_Vector_val@VioHashString@@V?$allocator@VioHashString@@@std@@@std@@@2@XZ ; std::vector<ioHashString,std::allocator<ioHashString> >::end
; Function compile flags: /Ogsp
;	COMDAT ?end@?$vector@VioHashString@@V?$allocator@VioHashString@@@std@@@std@@QAE?AV?$_Vector_iterator@V?$_Vector_val@VioHashString@@V?$allocator@VioHashString@@@std@@@std@@@2@XZ
_TEXT	SEGMENT
___$ReturnUdt$ = 8					; size = 4
?end@?$vector@VioHashString@@V?$allocator@VioHashString@@@std@@@std@@QAE?AV?$_Vector_iterator@V?$_Vector_val@VioHashString@@V?$allocator@VioHashString@@@std@@@std@@@2@XZ PROC ; std::vector<ioHashString,std::allocator<ioHashString> >::end, COMDAT
; _this$ = ecx

; 791  : 		{	// return iterator for end of mutable sequence

  00000	55		 push	 ebp
  00001	8b ec		 mov	 ebp, esp

; 792  : 		return (iterator(this->_Mylast, this));

  00003	8b 49 04	 mov	 ecx, DWORD PTR [ecx+4]
  00006	8b 45 08	 mov	 eax, DWORD PTR ___$ReturnUdt$[ebp]
  00009	89 08		 mov	 DWORD PTR [eax], ecx

; 793  : 		}

  0000b	5d		 pop	 ebp
  0000c	c2 04 00	 ret	 4
?end@?$vector@VioHashString@@V?$allocator@VioHashString@@@std@@@std@@QAE?AV?$_Vector_iterator@V?$_Vector_val@VioHashString@@V?$allocator@VioHashString@@@std@@@std@@@2@XZ ENDP ; std::vector<ioHashString,std::allocator<ioHashString> >::end
_TEXT	ENDS
PUBLIC	??0?$_Vector_val@VioHashString@@V?$allocator@VioHashString@@@std@@@std@@QAE@V?$allocator@VioHashString@@@1@@Z ; std::_Vector_val<ioHashString,std::allocator<ioHashString> >::_Vector_val<ioHashString,std::allocator<ioHashString> >
; Function compile flags: /Ogsp
;	COMDAT ??0?$_Vector_val@VioHashString@@V?$allocator@VioHashString@@@std@@@std@@QAE@V?$allocator@VioHashString@@@1@@Z
_TEXT	SEGMENT
__Al$ = 8						; size = 1
??0?$_Vector_val@VioHashString@@V?$allocator@VioHashString@@@std@@@std@@QAE@V?$allocator@VioHashString@@@1@@Z PROC ; std::_Vector_val<ioHashString,std::allocator<ioHashString> >::_Vector_val<ioHashString,std::allocator<ioHashString> >, COMDAT
; _this$ = ecx

; 426  : 		{	// construct allocator from _Al

  00000	8b c1		 mov	 eax, ecx

; 427  : 		_Myfirst = 0;

  00002	33 c9		 xor	 ecx, ecx
  00004	89 08		 mov	 DWORD PTR [eax], ecx

; 428  : 		_Mylast = 0;

  00006	89 48 04	 mov	 DWORD PTR [eax+4], ecx

; 429  : 		_Myend = 0;

  00009	89 48 08	 mov	 DWORD PTR [eax+8], ecx

; 430  : 		}

  0000c	c2 04 00	 ret	 4
??0?$_Vector_val@VioHashString@@V?$allocator@VioHashString@@@std@@@std@@QAE@V?$allocator@VioHashString@@@1@@Z ENDP ; std::_Vector_val<ioHashString,std::allocator<ioHashString> >::_Vector_val<ioHashString,std::allocator<ioHashString> >
_TEXT	ENDS
PUBLIC	?end@?$vector@HV?$allocator@H@std@@@std@@QAE?AV?$_Vector_iterator@V?$_Vector_val@HV?$allocator@H@std@@@std@@@2@XZ ; std::vector<int,std::allocator<int> >::end
; Function compile flags: /Ogsp
;	COMDAT ?end@?$vector@HV?$allocator@H@std@@@std@@QAE?AV?$_Vector_iterator@V?$_Vector_val@HV?$allocator@H@std@@@std@@@2@XZ
_TEXT	SEGMENT
___$ReturnUdt$ = 8					; size = 4
?end@?$vector@HV?$allocator@H@std@@@std@@QAE?AV?$_Vector_iterator@V?$_Vector_val@HV?$allocator@H@std@@@std@@@2@XZ PROC ; std::vector<int,std::allocator<int> >::end, COMDAT
; _this$ = ecx

; 791  : 		{	// return iterator for end of mutable sequence

  00000	55		 push	 ebp
  00001	8b ec		 mov	 ebp, esp

; 792  : 		return (iterator(this->_Mylast, this));

  00003	8b 49 04	 mov	 ecx, DWORD PTR [ecx+4]
  00006	8b 45 08	 mov	 eax, DWORD PTR ___$ReturnUdt$[ebp]
  00009	89 08		 mov	 DWORD PTR [eax], ecx

; 793  : 		}

  0000b	5d		 pop	 ebp
  0000c	c2 04 00	 ret	 4
?end@?$vector@HV?$allocator@H@std@@@std@@QAE?AV?$_Vector_iterator@V?$_Vector_val@HV?$allocator@H@std@@@std@@@2@XZ ENDP ; std::vector<int,std::allocator<int> >::end
_TEXT	ENDS
PUBLIC	??0?$_Vector_val@HV?$allocator@H@std@@@std@@QAE@V?$allocator@H@1@@Z ; std::_Vector_val<int,std::allocator<int> >::_Vector_val<int,std::allocator<int> >
; Function compile flags: /Ogsp
;	COMDAT ??0?$_Vector_val@HV?$allocator@H@std@@@std@@QAE@V?$allocator@H@1@@Z
_TEXT	SEGMENT
__Al$ = 8						; size = 1
??0?$_Vector_val@HV?$allocator@H@std@@@std@@QAE@V?$allocator@H@1@@Z PROC ; std::_Vector_val<int,std::allocator<int> >::_Vector_val<int,std::allocator<int> >, COMDAT
; _this$ = ecx

; 426  : 		{	// construct allocator from _Al

  00000	8b c1		 mov	 eax, ecx

; 427  : 		_Myfirst = 0;

  00002	33 c9		 xor	 ecx, ecx
  00004	89 08		 mov	 DWORD PTR [eax], ecx

; 428  : 		_Mylast = 0;

  00006	89 48 04	 mov	 DWORD PTR [eax+4], ecx

; 429  : 		_Myend = 0;

  00009	89 48 08	 mov	 DWORD PTR [eax+8], ecx

; 430  : 		}

  0000c	c2 04 00	 ret	 4
??0?$_Vector_val@HV?$allocator@H@std@@@std@@QAE@V?$allocator@H@1@@Z ENDP ; std::_Vector_val<int,std::allocator<int> >::_Vector_val<int,std::allocator<int> >
_TEXT	ENDS
PUBLIC	??0?$_Vector_val@KV?$allocator@K@std@@@std@@QAE@V?$allocator@K@1@@Z ; std::_Vector_val<unsigned long,std::allocator<unsigned long> >::_Vector_val<unsigned long,std::allocator<unsigned long> >
; Function compile flags: /Ogsp
;	COMDAT ??0?$_Vector_val@KV?$allocator@K@std@@@std@@QAE@V?$allocator@K@1@@Z
_TEXT	SEGMENT
__Al$ = 8						; size = 1
??0?$_Vector_val@KV?$allocator@K@std@@@std@@QAE@V?$allocator@K@1@@Z PROC ; std::_Vector_val<unsigned long,std::allocator<unsigned long> >::_Vector_val<unsigned long,std::allocator<unsigned long> >, COMDAT
; _this$ = ecx

; 426  : 		{	// construct allocator from _Al

  00000	8b c1		 mov	 eax, ecx

; 427  : 		_Myfirst = 0;

  00002	33 c9		 xor	 ecx, ecx
  00004	89 08		 mov	 DWORD PTR [eax], ecx

; 428  : 		_Mylast = 0;

  00006	89 48 04	 mov	 DWORD PTR [eax+4], ecx

; 429  : 		_Myend = 0;

  00009	89 48 08	 mov	 DWORD PTR [eax+8], ecx

; 430  : 		}

  0000c	c2 04 00	 ret	 4
??0?$_Vector_val@KV?$allocator@K@std@@@std@@QAE@V?$allocator@K@1@@Z ENDP ; std::_Vector_val<unsigned long,std::allocator<unsigned long> >::_Vector_val<unsigned long,std::allocator<unsigned long> >
_TEXT	ENDS
PUBLIC	?_Eos@?$basic_string@DU?$char_traits@D@std@@V?$allocator@D@2@@std@@QAEXI@Z ; std::basic_string<char,std::char_traits<char>,std::allocator<char> >::_Eos
; Function compile flags: /Ogsp
; File c:\program files (x86)\microsoft visual studio 10.0\vc\include\xstring
;	COMDAT ?_Eos@?$basic_string@DU?$char_traits@D@std@@V?$allocator@D@2@@std@@QAEXI@Z
_TEXT	SEGMENT
__Newsize$ = 8						; size = 4
?_Eos@?$basic_string@DU?$char_traits@D@std@@V?$allocator@D@2@@std@@QAEXI@Z PROC ; std::basic_string<char,std::char_traits<char>,std::allocator<char> >::_Eos, COMDAT
; _this$ = ecx

; 1953 : 		{	// set new length and null terminator

  00000	55		 push	 ebp
  00001	8b ec		 mov	 ebp, esp

; 1954 : 		_Traits::assign(_Myptr()[this->_Mysize = _Newsize], _Elem());

  00003	83 79 14 10	 cmp	 DWORD PTR [ecx+20], 16	; 00000010H
  00007	8b 45 08	 mov	 eax, DWORD PTR __Newsize$[ebp]
  0000a	89 41 10	 mov	 DWORD PTR [ecx+16], eax
  0000d	72 02		 jb	 SHORT $LN5@Eos
  0000f	8b 09		 mov	 ecx, DWORD PTR [ecx]
$LN5@Eos:
  00011	c6 04 01 00	 mov	 BYTE PTR [ecx+eax], 0

; 1955 : 		}

  00015	5d		 pop	 ebp
  00016	c2 04 00	 ret	 4
?_Eos@?$basic_string@DU?$char_traits@D@std@@V?$allocator@D@2@@std@@QAEXI@Z ENDP ; std::basic_string<char,std::char_traits<char>,std::allocator<char> >::_Eos
_TEXT	ENDS
PUBLIC	?_Make_iter@?$vector@VioHashString@@V?$allocator@VioHashString@@@std@@@std@@QBE?AV?$_Vector_iterator@V?$_Vector_val@VioHashString@@V?$allocator@VioHashString@@@std@@@std@@@2@V?$_Vector_const_iterator@V?$_Vector_val@VioHashString@@V?$allocator@VioHashString@@@std@@@std@@@2@@Z ; std::vector<ioHashString,std::allocator<ioHashString> >::_Make_iter
; Function compile flags: /Ogsp
; File c:\program files (x86)\microsoft visual studio 10.0\vc\include\vector
;	COMDAT ?_Make_iter@?$vector@VioHashString@@V?$allocator@VioHashString@@@std@@@std@@QBE?AV?$_Vector_iterator@V?$_Vector_val@VioHashString@@V?$allocator@VioHashString@@@std@@@std@@@2@V?$_Vector_const_iterator@V?$_Vector_val@VioHashString@@V?$allocator@VioHashString@@@std@@@std@@@2@@Z
_TEXT	SEGMENT
___$ReturnUdt$ = 8					; size = 4
__Where$ = 12						; size = 4
?_Make_iter@?$vector@VioHashString@@V?$allocator@VioHashString@@@std@@@std@@QBE?AV?$_Vector_iterator@V?$_Vector_val@VioHashString@@V?$allocator@VioHashString@@@std@@@std@@@2@V?$_Vector_const_iterator@V?$_Vector_val@VioHashString@@V?$allocator@VioHashString@@@std@@@std@@@2@@Z PROC ; std::vector<ioHashString,std::allocator<ioHashString> >::_Make_iter, COMDAT
; _this$ = ecx

; 801  : 		{	// make iterator from const_iterator

  00000	55		 push	 ebp
  00001	8b ec		 mov	 ebp, esp

; 802  : 		return (iterator(_Where._Ptr, this));

  00003	8b 45 08	 mov	 eax, DWORD PTR ___$ReturnUdt$[ebp]
  00006	8b 4d 0c	 mov	 ecx, DWORD PTR __Where$[ebp]
  00009	89 08		 mov	 DWORD PTR [eax], ecx

; 803  : 		}

  0000b	5d		 pop	 ebp
  0000c	c2 08 00	 ret	 8
?_Make_iter@?$vector@VioHashString@@V?$allocator@VioHashString@@@std@@@std@@QBE?AV?$_Vector_iterator@V?$_Vector_val@VioHashString@@V?$allocator@VioHashString@@@std@@@std@@@2@V?$_Vector_const_iterator@V?$_Vector_val@VioHashString@@V?$allocator@VioHashString@@@std@@@std@@@2@@Z ENDP ; std::vector<ioHashString,std::allocator<ioHashString> >::_Make_iter
_TEXT	ENDS
PUBLIC	?max_size@?$vector@VioHashString@@V?$allocator@VioHashString@@@std@@@std@@QBEIXZ ; std::vector<ioHashString,std::allocator<ioHashString> >::max_size
; Function compile flags: /Ogsp
;	COMDAT ?max_size@?$vector@VioHashString@@V?$allocator@VioHashString@@@std@@@std@@QBEIXZ
_TEXT	SEGMENT
?max_size@?$vector@VioHashString@@V?$allocator@VioHashString@@@std@@@std@@QBEIXZ PROC ; std::vector<ioHashString,std::allocator<ioHashString> >::max_size, COMDAT
; _this$ = ecx

; 884  : 		return (this->_Alval.max_size());

  00000	b8 ff ff ff 0f	 mov	 eax, 268435455		; 0fffffffH

; 885  : 		}

  00005	c3		 ret	 0
?max_size@?$vector@VioHashString@@V?$allocator@VioHashString@@@std@@@std@@QBEIXZ ENDP ; std::vector<ioHashString,std::allocator<ioHashString> >::max_size
_TEXT	ENDS
PUBLIC	?allocate@?$allocator@VioHashString@@@std@@QAEPAVioHashString@@I@Z ; std::allocator<ioHashString>::allocate
; Function compile flags: /Ogsp
; File c:\program files (x86)\microsoft visual studio 10.0\vc\include\xmemory
;	COMDAT ?allocate@?$allocator@VioHashString@@@std@@QAEPAVioHashString@@I@Z
_TEXT	SEGMENT
__Count$ = 8						; size = 4
?allocate@?$allocator@VioHashString@@@std@@QAEPAVioHashString@@I@Z PROC ; std::allocator<ioHashString>::allocate, COMDAT
; _this$ = ecx

; 186  : 		{	// allocate array of _Count elements

  00000	55		 push	 ebp
  00001	8b ec		 mov	 ebp, esp

; 187  : 		return (_Allocate(_Count, (pointer)0));

  00003	6a 00		 push	 0
  00005	ff 75 08	 push	 DWORD PTR __Count$[ebp]
  00008	e8 00 00 00 00	 call	 ??$_Allocate@VioHashString@@@std@@YAPAVioHashString@@IPAV1@@Z ; std::_Allocate<ioHashString>
  0000d	59		 pop	 ecx
  0000e	59		 pop	 ecx

; 188  : 		}

  0000f	5d		 pop	 ebp
  00010	c2 04 00	 ret	 4
?allocate@?$allocator@VioHashString@@@std@@QAEPAVioHashString@@I@Z ENDP ; std::allocator<ioHashString>::allocate
_TEXT	ENDS
PUBLIC	?max_size@?$vector@HV?$allocator@H@std@@@std@@QBEIXZ ; std::vector<int,std::allocator<int> >::max_size
; Function compile flags: /Ogsp
; File c:\program files (x86)\microsoft visual studio 10.0\vc\include\vector
;	COMDAT ?max_size@?$vector@HV?$allocator@H@std@@@std@@QBEIXZ
_TEXT	SEGMENT
?max_size@?$vector@HV?$allocator@H@std@@@std@@QBEIXZ PROC ; std::vector<int,std::allocator<int> >::max_size, COMDAT
; _this$ = ecx

; 884  : 		return (this->_Alval.max_size());

  00000	b8 ff ff ff 3f	 mov	 eax, 1073741823		; 3fffffffH

; 885  : 		}

  00005	c3		 ret	 0
?max_size@?$vector@HV?$allocator@H@std@@@std@@QBEIXZ ENDP ; std::vector<int,std::allocator<int> >::max_size
_TEXT	ENDS
PUBLIC	?_Grow_to@?$vector@HV?$allocator@H@std@@@std@@IBEII@Z ; std::vector<int,std::allocator<int> >::_Grow_to
; Function compile flags: /Ogsp
;	COMDAT ?_Grow_to@?$vector@HV?$allocator@H@std@@@std@@IBEII@Z
_TEXT	SEGMENT
__Count$ = 8						; size = 4
?_Grow_to@?$vector@HV?$allocator@H@std@@@std@@IBEII@Z PROC ; std::vector<int,std::allocator<int> >::_Grow_to, COMDAT
; _this$ = ecx

; 1274 : 		{	// grow by 50% or at least to _Count

  00000	55		 push	 ebp
  00001	8b ec		 mov	 ebp, esp

; 1275 : 		size_type _Capacity = capacity();

  00003	8b 41 08	 mov	 eax, DWORD PTR [ecx+8]
  00006	2b 01		 sub	 eax, DWORD PTR [ecx]

; 1276 : 
; 1277 : 		_Capacity = max_size() - _Capacity / 2 < _Capacity
; 1278 : 			? 0 : _Capacity + _Capacity / 2;	// try to grow by 50%

  00008	ba ff ff ff 3f	 mov	 edx, 1073741823		; 3fffffffH
  0000d	c1 f8 02	 sar	 eax, 2
  00010	8b c8		 mov	 ecx, eax
  00012	d1 e9		 shr	 ecx, 1
  00014	2b d1		 sub	 edx, ecx
  00016	3b d0		 cmp	 edx, eax
  00018	73 04		 jae	 SHORT $LN4@Grow_to@2
  0001a	33 c0		 xor	 eax, eax
  0001c	eb 02		 jmp	 SHORT $LN5@Grow_to@2
$LN4@Grow_to@2:
  0001e	03 c1		 add	 eax, ecx
$LN5@Grow_to@2:

; 1279 : 		if (_Capacity < _Count)

  00020	3b 45 08	 cmp	 eax, DWORD PTR __Count$[ebp]

; 1280 : 			_Capacity = _Count;

  00023	0f 42 45 08	 cmovb	 eax, DWORD PTR __Count$[ebp]

; 1281 : 		return (_Capacity);
; 1282 : 		}

  00027	5d		 pop	 ebp
  00028	c2 04 00	 ret	 4
?_Grow_to@?$vector@HV?$allocator@H@std@@@std@@IBEII@Z ENDP ; std::vector<int,std::allocator<int> >::_Grow_to
_TEXT	ENDS
PUBLIC	?max_size@?$vector@KV?$allocator@K@std@@@std@@QBEIXZ ; std::vector<unsigned long,std::allocator<unsigned long> >::max_size
; Function compile flags: /Ogsp
;	COMDAT ?max_size@?$vector@KV?$allocator@K@std@@@std@@QBEIXZ
_TEXT	SEGMENT
?max_size@?$vector@KV?$allocator@K@std@@@std@@QBEIXZ PROC ; std::vector<unsigned long,std::allocator<unsigned long> >::max_size, COMDAT
; _this$ = ecx

; 884  : 		return (this->_Alval.max_size());

  00000	b8 ff ff ff 3f	 mov	 eax, 1073741823		; 3fffffffH

; 885  : 		}

  00005	c3		 ret	 0
?max_size@?$vector@KV?$allocator@K@std@@@std@@QBEIXZ ENDP ; std::vector<unsigned long,std::allocator<unsigned long> >::max_size
_TEXT	ENDS
PUBLIC	?_Grow_to@?$vector@KV?$allocator@K@std@@@std@@IBEII@Z ; std::vector<unsigned long,std::allocator<unsigned long> >::_Grow_to
; Function compile flags: /Ogsp
;	COMDAT ?_Grow_to@?$vector@KV?$allocator@K@std@@@std@@IBEII@Z
_TEXT	SEGMENT
__Count$ = 8						; size = 4
?_Grow_to@?$vector@KV?$allocator@K@std@@@std@@IBEII@Z PROC ; std::vector<unsigned long,std::allocator<unsigned long> >::_Grow_to, COMDAT
; _this$ = ecx

; 1274 : 		{	// grow by 50% or at least to _Count

  00000	55		 push	 ebp
  00001	8b ec		 mov	 ebp, esp

; 1275 : 		size_type _Capacity = capacity();

  00003	8b 41 08	 mov	 eax, DWORD PTR [ecx+8]
  00006	2b 01		 sub	 eax, DWORD PTR [ecx]

; 1276 : 
; 1277 : 		_Capacity = max_size() - _Capacity / 2 < _Capacity
; 1278 : 			? 0 : _Capacity + _Capacity / 2;	// try to grow by 50%

  00008	ba ff ff ff 3f	 mov	 edx, 1073741823		; 3fffffffH
  0000d	c1 f8 02	 sar	 eax, 2
  00010	8b c8		 mov	 ecx, eax
  00012	d1 e9		 shr	 ecx, 1
  00014	2b d1		 sub	 edx, ecx
  00016	3b d0		 cmp	 edx, eax
  00018	73 04		 jae	 SHORT $LN4@Grow_to@3
  0001a	33 c0		 xor	 eax, eax
  0001c	eb 02		 jmp	 SHORT $LN5@Grow_to@3
$LN4@Grow_to@3:
  0001e	03 c1		 add	 eax, ecx
$LN5@Grow_to@3:

; 1279 : 		if (_Capacity < _Count)

  00020	3b 45 08	 cmp	 eax, DWORD PTR __Count$[ebp]

; 1280 : 			_Capacity = _Count;

  00023	0f 42 45 08	 cmovb	 eax, DWORD PTR __Count$[ebp]

; 1281 : 		return (_Capacity);
; 1282 : 		}

  00027	5d		 pop	 ebp
  00028	c2 04 00	 ret	 4
?_Grow_to@?$vector@KV?$allocator@K@std@@@std@@IBEII@Z ENDP ; std::vector<unsigned long,std::allocator<unsigned long> >::_Grow_to
_TEXT	ENDS
PUBLIC	??0?$_Vector_iterator@V?$_Vector_val@KV?$allocator@K@std@@@std@@@std@@QAE@PAKPBU_Container_base0@1@@Z ; std::_Vector_iterator<std::_Vector_val<unsigned long,std::allocator<unsigned long> > >::_Vector_iterator<std::_Vector_val<unsigned long,std::allocator<unsigned long> > >
; Function compile flags: /Ogsp
;	COMDAT ??0?$_Vector_iterator@V?$_Vector_val@KV?$allocator@K@std@@@std@@@std@@QAE@PAKPBU_Container_base0@1@@Z
_TEXT	SEGMENT
__Parg$ = 8						; size = 4
__Pvector$ = 12						; size = 4
??0?$_Vector_iterator@V?$_Vector_val@KV?$allocator@K@std@@@std@@@std@@QAE@PAKPBU_Container_base0@1@@Z PROC ; std::_Vector_iterator<std::_Vector_val<unsigned long,std::allocator<unsigned long> > >::_Vector_iterator<std::_Vector_val<unsigned long,std::allocator<unsigned long> > >, COMDAT
; _this$ = ecx

; 304  : 		{	// construct with pointer _Parg

  00000	55		 push	 ebp
  00001	8b ec		 mov	 ebp, esp
  00003	8b c1		 mov	 eax, ecx
  00005	8b 4d 08	 mov	 ecx, DWORD PTR __Parg$[ebp]
  00008	89 08		 mov	 DWORD PTR [eax], ecx

; 305  : 		}

  0000a	5d		 pop	 ebp
  0000b	c2 08 00	 ret	 8
??0?$_Vector_iterator@V?$_Vector_val@KV?$allocator@K@std@@@std@@@std@@QAE@PAKPBU_Container_base0@1@@Z ENDP ; std::_Vector_iterator<std::_Vector_val<unsigned long,std::allocator<unsigned long> > >::_Vector_iterator<std::_Vector_val<unsigned long,std::allocator<unsigned long> > >
_TEXT	ENDS
PUBLIC	?max_size@?$basic_string@DU?$char_traits@D@std@@V?$allocator@D@2@@std@@QBEIXZ ; std::basic_string<char,std::char_traits<char>,std::allocator<char> >::max_size
; Function compile flags: /Ogsp
; File c:\program files (x86)\microsoft visual studio 10.0\vc\include\xstring
;	COMDAT ?max_size@?$basic_string@DU?$char_traits@D@std@@V?$allocator@D@2@@std@@QBEIXZ
_TEXT	SEGMENT
?max_size@?$basic_string@DU?$char_traits@D@std@@V?$allocator@D@2@@std@@QBEIXZ PROC ; std::basic_string<char,std::char_traits<char>,std::allocator<char> >::max_size, COMDAT
; _this$ = ecx

; 1517 : 		size_type _Num = this->_Alval.max_size();
; 1518 : 		return (_Num <= 1 ? 1 : _Num - 1);

  00000	6a fe		 push	 -2			; fffffffeH
  00002	58		 pop	 eax

; 1519 : 		}

  00003	c3		 ret	 0
?max_size@?$basic_string@DU?$char_traits@D@std@@V?$allocator@D@2@@std@@QBEIXZ ENDP ; std::basic_string<char,std::char_traits<char>,std::allocator<char> >::max_size
_TEXT	ENDS
PUBLIC	?allocate@?$allocator@H@std@@QAEPAHI@Z		; std::allocator<int>::allocate
; Function compile flags: /Ogsp
; File c:\program files (x86)\microsoft visual studio 10.0\vc\include\xmemory
;	COMDAT ?allocate@?$allocator@H@std@@QAEPAHI@Z
_TEXT	SEGMENT
__Count$ = 8						; size = 4
?allocate@?$allocator@H@std@@QAEPAHI@Z PROC		; std::allocator<int>::allocate, COMDAT
; _this$ = ecx

; 186  : 		{	// allocate array of _Count elements

  00000	55		 push	 ebp
  00001	8b ec		 mov	 ebp, esp

; 187  : 		return (_Allocate(_Count, (pointer)0));

  00003	6a 00		 push	 0
  00005	ff 75 08	 push	 DWORD PTR __Count$[ebp]
  00008	e8 00 00 00 00	 call	 ??$_Allocate@H@std@@YAPAHIPAH@Z ; std::_Allocate<int>
  0000d	59		 pop	 ecx
  0000e	59		 pop	 ecx

; 188  : 		}

  0000f	5d		 pop	 ebp
  00010	c2 04 00	 ret	 4
?allocate@?$allocator@H@std@@QAEPAHI@Z ENDP		; std::allocator<int>::allocate
_TEXT	ENDS
PUBLIC	?allocate@?$allocator@K@std@@QAEPAKI@Z		; std::allocator<unsigned long>::allocate
; Function compile flags: /Ogsp
;	COMDAT ?allocate@?$allocator@K@std@@QAEPAKI@Z
_TEXT	SEGMENT
__Count$ = 8						; size = 4
?allocate@?$allocator@K@std@@QAEPAKI@Z PROC		; std::allocator<unsigned long>::allocate, COMDAT
; _this$ = ecx

; 186  : 		{	// allocate array of _Count elements

  00000	55		 push	 ebp
  00001	8b ec		 mov	 ebp, esp

; 187  : 		return (_Allocate(_Count, (pointer)0));

  00003	6a 00		 push	 0
  00005	ff 75 08	 push	 DWORD PTR __Count$[ebp]
  00008	e8 00 00 00 00	 call	 ??$_Allocate@K@std@@YAPAKIPAK@Z ; std::_Allocate<unsigned long>
  0000d	59		 pop	 ecx
  0000e	59		 pop	 ecx

; 188  : 		}

  0000f	5d		 pop	 ebp
  00010	c2 04 00	 ret	 4
?allocate@?$allocator@K@std@@QAEPAKI@Z ENDP		; std::allocator<unsigned long>::allocate
_TEXT	ENDS
PUBLIC	??8?$_Vector_const_iterator@V?$_Vector_val@HV?$allocator@H@std@@@std@@@std@@QBE_NABV01@@Z ; std::_Vector_const_iterator<std::_Vector_val<int,std::allocator<int> > >::operator==
; Function compile flags: /Ogsp
; File c:\program files (x86)\microsoft visual studio 10.0\vc\include\vector
;	COMDAT ??8?$_Vector_const_iterator@V?$_Vector_val@HV?$allocator@H@std@@@std@@@std@@QBE_NABV01@@Z
_TEXT	SEGMENT
__Right$ = 8						; size = 4
??8?$_Vector_const_iterator@V?$_Vector_val@HV?$allocator@H@std@@@std@@@std@@QBE_NABV01@@Z PROC ; std::_Vector_const_iterator<std::_Vector_val<int,std::allocator<int> > >::operator==, COMDAT
; _this$ = ecx

; 201  : 		{	// test for iterator equality

  00000	55		 push	 ebp
  00001	8b ec		 mov	 ebp, esp

; 202  : 		_Compat(_Right);
; 203  : 		return (this->_Ptr == _Right._Ptr);

  00003	8b 01		 mov	 eax, DWORD PTR [ecx]
  00005	8b 4d 08	 mov	 ecx, DWORD PTR __Right$[ebp]
  00008	2b 01		 sub	 eax, DWORD PTR [ecx]
  0000a	f7 d8		 neg	 eax
  0000c	1b c0		 sbb	 eax, eax
  0000e	40		 inc	 eax

; 204  : 		}

  0000f	5d		 pop	 ebp
  00010	c2 04 00	 ret	 4
??8?$_Vector_const_iterator@V?$_Vector_val@HV?$allocator@H@std@@@std@@@std@@QBE_NABV01@@Z ENDP ; std::_Vector_const_iterator<std::_Vector_val<int,std::allocator<int> > >::operator==
_TEXT	ENDS
PUBLIC	??8?$_Vector_const_iterator@V?$_Vector_val@VioHashString@@V?$allocator@VioHashString@@@std@@@std@@@std@@QBE_NABV01@@Z ; std::_Vector_const_iterator<std::_Vector_val<ioHashString,std::allocator<ioHashString> > >::operator==
; Function compile flags: /Ogsp
;	COMDAT ??8?$_Vector_const_iterator@V?$_Vector_val@VioHashString@@V?$allocator@VioHashString@@@std@@@std@@@std@@QBE_NABV01@@Z
_TEXT	SEGMENT
__Right$ = 8						; size = 4
??8?$_Vector_const_iterator@V?$_Vector_val@VioHashString@@V?$allocator@VioHashString@@@std@@@std@@@std@@QBE_NABV01@@Z PROC ; std::_Vector_const_iterator<std::_Vector_val<ioHashString,std::allocator<ioHashString> > >::operator==, COMDAT
; _this$ = ecx

; 201  : 		{	// test for iterator equality

  00000	55		 push	 ebp
  00001	8b ec		 mov	 ebp, esp

; 202  : 		_Compat(_Right);
; 203  : 		return (this->_Ptr == _Right._Ptr);

  00003	8b 01		 mov	 eax, DWORD PTR [ecx]
  00005	8b 4d 08	 mov	 ecx, DWORD PTR __Right$[ebp]
  00008	2b 01		 sub	 eax, DWORD PTR [ecx]
  0000a	f7 d8		 neg	 eax
  0000c	1b c0		 sbb	 eax, eax
  0000e	40		 inc	 eax

; 204  : 		}

  0000f	5d		 pop	 ebp
  00010	c2 04 00	 ret	 4
??8?$_Vector_const_iterator@V?$_Vector_val@VioHashString@@V?$allocator@VioHashString@@@std@@@std@@@std@@QBE_NABV01@@Z ENDP ; std::_Vector_const_iterator<std::_Vector_val<ioHashString,std::allocator<ioHashString> > >::operator==
_TEXT	ENDS
PUBLIC	??8?$_Vector_const_iterator@V?$_Vector_val@KV?$allocator@K@std@@@std@@@std@@QBE_NABV01@@Z ; std::_Vector_const_iterator<std::_Vector_val<unsigned long,std::allocator<unsigned long> > >::operator==
; Function compile flags: /Ogsp
;	COMDAT ??8?$_Vector_const_iterator@V?$_Vector_val@KV?$allocator@K@std@@@std@@@std@@QBE_NABV01@@Z
_TEXT	SEGMENT
__Right$ = 8						; size = 4
??8?$_Vector_const_iterator@V?$_Vector_val@KV?$allocator@K@std@@@std@@@std@@QBE_NABV01@@Z PROC ; std::_Vector_const_iterator<std::_Vector_val<unsigned long,std::allocator<unsigned long> > >::operator==, COMDAT
; _this$ = ecx

; 201  : 		{	// test for iterator equality

  00000	55		 push	 ebp
  00001	8b ec		 mov	 ebp, esp

; 202  : 		_Compat(_Right);
; 203  : 		return (this->_Ptr == _Right._Ptr);

  00003	8b 01		 mov	 eax, DWORD PTR [ecx]
  00005	8b 4d 08	 mov	 ecx, DWORD PTR __Right$[ebp]
  00008	2b 01		 sub	 eax, DWORD PTR [ecx]
  0000a	f7 d8		 neg	 eax
  0000c	1b c0		 sbb	 eax, eax
  0000e	40		 inc	 eax

; 204  : 		}

  0000f	5d		 pop	 ebp
  00010	c2 04 00	 ret	 4
??8?$_Vector_const_iterator@V?$_Vector_val@KV?$allocator@K@std@@@std@@@std@@QBE_NABV01@@Z ENDP ; std::_Vector_const_iterator<std::_Vector_val<unsigned long,std::allocator<unsigned long> > >::operator==
_TEXT	ENDS
PUBLIC	?allocate@?$allocator@D@std@@QAEPADI@Z		; std::allocator<char>::allocate
; Function compile flags: /Ogsp
; File c:\program files (x86)\microsoft visual studio 10.0\vc\include\xmemory
;	COMDAT ?allocate@?$allocator@D@std@@QAEPADI@Z
_TEXT	SEGMENT
__Count$ = 8						; size = 4
?allocate@?$allocator@D@std@@QAEPADI@Z PROC		; std::allocator<char>::allocate, COMDAT
; _this$ = ecx

; 186  : 		{	// allocate array of _Count elements

  00000	55		 push	 ebp
  00001	8b ec		 mov	 ebp, esp

; 187  : 		return (_Allocate(_Count, (pointer)0));

  00003	6a 00		 push	 0
  00005	ff 75 08	 push	 DWORD PTR __Count$[ebp]
  00008	e8 00 00 00 00	 call	 ??$_Allocate@D@std@@YAPADIPAD@Z ; std::_Allocate<char>
  0000d	59		 pop	 ecx
  0000e	59		 pop	 ecx

; 188  : 		}

  0000f	5d		 pop	 ebp
  00010	c2 04 00	 ret	 4
?allocate@?$allocator@D@std@@QAEPADI@Z ENDP		; std::allocator<char>::allocate
_TEXT	ENDS
PUBLIC	??$_Cons_val@V?$allocator@K@std@@KAAK@std@@YAXAAV?$allocator@K@0@PAKAAK@Z ; std::_Cons_val<std::allocator<unsigned long>,unsigned long,unsigned long &>
; Function compile flags: /Ogsp
;	COMDAT ??$_Cons_val@V?$allocator@K@std@@KAAK@std@@YAXAAV?$allocator@K@0@PAKAAK@Z
_TEXT	SEGMENT
__Alval$ = 8						; size = 4
__Pdest$ = 12						; size = 4
__Src$ = 16						; size = 4
??$_Cons_val@V?$allocator@K@std@@KAAK@std@@YAXAAV?$allocator@K@0@PAKAAK@Z PROC ; std::_Cons_val<std::allocator<unsigned long>,unsigned long,unsigned long &>, COMDAT

; 279  : 	{	// construct using allocator

  00000	55		 push	 ebp
  00001	8b ec		 mov	 ebp, esp

; 280  : 	_Alval.construct(_Pdest, _STD forward<_Ty2>(_Src));

  00003	8b 45 0c	 mov	 eax, DWORD PTR __Pdest$[ebp]
  00006	85 c0		 test	 eax, eax
  00008	74 07		 je	 SHORT $LN7@Cons_val@2
  0000a	8b 4d 10	 mov	 ecx, DWORD PTR __Src$[ebp]
  0000d	8b 09		 mov	 ecx, DWORD PTR [ecx]
  0000f	89 08		 mov	 DWORD PTR [eax], ecx
$LN7@Cons_val@2:

; 281  : 	}

  00011	5d		 pop	 ebp
  00012	c3		 ret	 0
??$_Cons_val@V?$allocator@K@std@@KAAK@std@@YAXAAV?$allocator@K@0@PAKAAK@Z ENDP ; std::_Cons_val<std::allocator<unsigned long>,unsigned long,unsigned long &>
_TEXT	ENDS
PUBLIC	??$_Move@PAHPAH@std@@YAPAHPAH00@Z		; std::_Move<int *,int *>
; Function compile flags: /Ogsp
; File c:\program files (x86)\microsoft visual studio 10.0\vc\include\xutility
;	COMDAT ??$_Move@PAHPAH@std@@YAPAHPAH00@Z
_TEXT	SEGMENT
__Cat$553159 = -4					; size = 1
__First$ = 8						; size = 4
__Last$ = 12						; size = 4
__Dest$ = 16						; size = 4
??$_Move@PAHPAH@std@@YAPAHPAH00@Z PROC			; std::_Move<int *,int *>, COMDAT

; 2533 : 	{	// move [_First, _Last) to [_Dest, ...), unchecked

  00000	55		 push	 ebp
  00001	8b ec		 mov	 ebp, esp
  00003	51		 push	 ecx

; 2534 : 	return (_Move(_First, _Last,
; 2535 : 		_Dest, _Ptr_cat(_First, _Dest)));

  00004	ff 75 fc	 push	 DWORD PTR __Cat$553159[ebp]
  00007	ff 75 10	 push	 DWORD PTR __Dest$[ebp]
  0000a	ff 75 0c	 push	 DWORD PTR __Last$[ebp]
  0000d	ff 75 08	 push	 DWORD PTR __First$[ebp]
  00010	e8 00 00 00 00	 call	 ??$_Move@PAHPAH@std@@YAPAHPAH00U_Scalar_ptr_iterator_tag@0@@Z ; std::_Move<int *,int *>
  00015	83 c4 10	 add	 esp, 16			; 00000010H

; 2536 : 	}

  00018	c9		 leave
  00019	c3		 ret	 0
??$_Move@PAHPAH@std@@YAPAHPAH00@Z ENDP			; std::_Move<int *,int *>
_TEXT	ENDS
PUBLIC	??$_Move@PAKPAK@std@@YAPAKPAK00@Z		; std::_Move<unsigned long *,unsigned long *>
; Function compile flags: /Ogsp
;	COMDAT ??$_Move@PAKPAK@std@@YAPAKPAK00@Z
_TEXT	SEGMENT
__Cat$553166 = -4					; size = 1
__First$ = 8						; size = 4
__Last$ = 12						; size = 4
__Dest$ = 16						; size = 4
??$_Move@PAKPAK@std@@YAPAKPAK00@Z PROC			; std::_Move<unsigned long *,unsigned long *>, COMDAT

; 2533 : 	{	// move [_First, _Last) to [_Dest, ...), unchecked

  00000	55		 push	 ebp
  00001	8b ec		 mov	 ebp, esp
  00003	51		 push	 ecx

; 2534 : 	return (_Move(_First, _Last,
; 2535 : 		_Dest, _Ptr_cat(_First, _Dest)));

  00004	ff 75 fc	 push	 DWORD PTR __Cat$553166[ebp]
  00007	ff 75 10	 push	 DWORD PTR __Dest$[ebp]
  0000a	ff 75 0c	 push	 DWORD PTR __Last$[ebp]
  0000d	ff 75 08	 push	 DWORD PTR __First$[ebp]
  00010	e8 00 00 00 00	 call	 ??$_Move@PAKPAK@std@@YAPAKPAK00U_Scalar_ptr_iterator_tag@0@@Z ; std::_Move<unsigned long *,unsigned long *>
  00015	83 c4 10	 add	 esp, 16			; 00000010H

; 2536 : 	}

  00018	c9		 leave
  00019	c3		 ret	 0
??$_Move@PAKPAK@std@@YAPAKPAK00@Z ENDP			; std::_Move<unsigned long *,unsigned long *>
_TEXT	ENDS
PUBLIC	??$_Destroy_range@V?$allocator@H@std@@@std@@YAXPAH0AAV?$allocator@H@0@@Z ; std::_Destroy_range<std::allocator<int> >
; Function compile flags: /Ogsp
; File c:\program files (x86)\microsoft visual studio 10.0\vc\include\xmemory
;	COMDAT ??$_Destroy_range@V?$allocator@H@std@@@std@@YAXPAH0AAV?$allocator@H@0@@Z
_TEXT	SEGMENT
__First$ = 8						; size = 4
__Last$ = 12						; size = 4
__Al$ = 16						; size = 4
??$_Destroy_range@V?$allocator@H@std@@@std@@YAXPAH0AAV?$allocator@H@0@@Z PROC ; std::_Destroy_range<std::allocator<int> >, COMDAT

; 88   : 	_Destroy_range(_First, _Last, _Al, _Ptr_cat(_First, _Last));
; 89   : 	}

  00000	c3		 ret	 0
??$_Destroy_range@V?$allocator@H@std@@@std@@YAXPAH0AAV?$allocator@H@0@@Z ENDP ; std::_Destroy_range<std::allocator<int> >
_TEXT	ENDS
PUBLIC	??$_Destroy_range@V?$allocator@K@std@@@std@@YAXPAK0AAV?$allocator@K@0@@Z ; std::_Destroy_range<std::allocator<unsigned long> >
; Function compile flags: /Ogsp
;	COMDAT ??$_Destroy_range@V?$allocator@K@std@@@std@@YAXPAK0AAV?$allocator@K@0@@Z
_TEXT	SEGMENT
__First$ = 8						; size = 4
__Last$ = 12						; size = 4
__Al$ = 16						; size = 4
??$_Destroy_range@V?$allocator@K@std@@@std@@YAXPAK0AAV?$allocator@K@0@@Z PROC ; std::_Destroy_range<std::allocator<unsigned long> >, COMDAT

; 88   : 	_Destroy_range(_First, _Last, _Al, _Ptr_cat(_First, _Last));
; 89   : 	}

  00000	c3		 ret	 0
??$_Destroy_range@V?$allocator@K@std@@@std@@YAXPAK0AAV?$allocator@K@0@@Z ENDP ; std::_Destroy_range<std::allocator<unsigned long> >
_TEXT	ENDS
PUBLIC	?construct@?$allocator@K@std@@QAEXPAKABK@Z	; std::allocator<unsigned long>::construct
; Function compile flags: /Ogsp
;	COMDAT ?construct@?$allocator@K@std@@QAEXPAKABK@Z
_TEXT	SEGMENT
__Ptr$ = 8						; size = 4
__Val$ = 12						; size = 4
?construct@?$allocator@K@std@@QAEXPAKABK@Z PROC		; std::allocator<unsigned long>::construct, COMDAT
; _this$ = ecx

; 196  : 		{	// construct object at _Ptr with value _Val

  00000	55		 push	 ebp
  00001	8b ec		 mov	 ebp, esp

; 197  : 		_Construct(_Ptr, _Val);

  00003	8b 45 08	 mov	 eax, DWORD PTR __Ptr$[ebp]
  00006	85 c0		 test	 eax, eax
  00008	74 07		 je	 SHORT $LN5@construct@8
  0000a	8b 4d 0c	 mov	 ecx, DWORD PTR __Val$[ebp]
  0000d	8b 09		 mov	 ecx, DWORD PTR [ecx]
  0000f	89 08		 mov	 DWORD PTR [eax], ecx
$LN5@construct@8:

; 198  : 		}

  00011	5d		 pop	 ebp
  00012	c2 08 00	 ret	 8
?construct@?$allocator@K@std@@QAEXPAKABK@Z ENDP		; std::allocator<unsigned long>::construct
_TEXT	ENDS
PUBLIC	??$_Move@PAVioHashString@@PAV1@@std@@YAPAVioHashString@@PAV1@00U_Nonscalar_ptr_iterator_tag@0@@Z ; std::_Move<ioHashString *,ioHashString *>
EXTRN	__imp_??4ioHashString@@QAEAAV0@ABV0@@Z:PROC
; Function compile flags: /Ogsp
; File c:\program files (x86)\microsoft visual studio 10.0\vc\include\xutility
;	COMDAT ??$_Move@PAVioHashString@@PAV1@@std@@YAPAVioHashString@@PAV1@00U_Nonscalar_ptr_iterator_tag@0@@Z
_TEXT	SEGMENT
__First$ = 8						; size = 4
__Last$ = 12						; size = 4
__Dest$ = 16						; size = 4
___formal$ = 20						; size = 1
??$_Move@PAVioHashString@@PAV1@@std@@YAPAVioHashString@@PAV1@00U_Nonscalar_ptr_iterator_tag@0@@Z PROC ; std::_Move<ioHashString *,ioHashString *>, COMDAT

; 2512 : 	{	// move [_First, _Last) to [_Dest, ...), arbitrary iterators

  00000	55		 push	 ebp
  00001	8b ec		 mov	 ebp, esp
  00003	56		 push	 esi

; 2513 : 	for (; _First != _Last; ++_Dest, ++_First)

  00004	8b 75 08	 mov	 esi, DWORD PTR __First$[ebp]
  00007	eb 11		 jmp	 SHORT $LN11@Move
$LL3@Move:

; 2514 : 		*_Dest = _STD move(*_First);

  00009	8b 4d 10	 mov	 ecx, DWORD PTR __Dest$[ebp]
  0000c	56		 push	 esi
  0000d	ff 15 00 00 00
	00		 call	 DWORD PTR __imp_??4ioHashString@@QAEAAV0@ABV0@@Z
  00013	83 45 10 10	 add	 DWORD PTR __Dest$[ebp], 16 ; 00000010H
  00017	83 c6 10	 add	 esi, 16			; 00000010H
$LN11@Move:

; 2513 : 	for (; _First != _Last; ++_Dest, ++_First)

  0001a	3b 75 0c	 cmp	 esi, DWORD PTR __Last$[ebp]
  0001d	75 ea		 jne	 SHORT $LL3@Move

; 2515 : 	return (_Dest);

  0001f	8b 45 10	 mov	 eax, DWORD PTR __Dest$[ebp]
  00022	5e		 pop	 esi

; 2516 : 	}

  00023	5d		 pop	 ebp
  00024	c3		 ret	 0
??$_Move@PAVioHashString@@PAV1@@std@@YAPAVioHashString@@PAV1@00U_Nonscalar_ptr_iterator_tag@0@@Z ENDP ; std::_Move<ioHashString *,ioHashString *>
_TEXT	ENDS
PUBLIC	??$_Uninitialized_move@PAHPAHV?$allocator@H@std@@@std@@YAPAHPAH00AAV?$allocator@H@0@@Z ; std::_Uninitialized_move<int *,int *,std::allocator<int> >
; Function compile flags: /Ogsp
; File c:\program files (x86)\microsoft visual studio 10.0\vc\include\memory
;	COMDAT ??$_Uninitialized_move@PAHPAHV?$allocator@H@std@@@std@@YAPAHPAH00AAV?$allocator@H@0@@Z
_TEXT	SEGMENT
__First$ = 8						; size = 4
__Last$ = 12						; size = 4
__Dest$ = 16						; size = 4
__Al$ = 20						; size = 4
??$_Uninitialized_move@PAHPAHV?$allocator@H@std@@@std@@YAPAHPAH00AAV?$allocator@H@0@@Z PROC ; std::_Uninitialized_move<int *,int *,std::allocator<int> >, COMDAT

; 469  : 	{	// move [_First, _Last) to raw _Dest, using _Al

  00000	55		 push	 ebp
  00001	8b ec		 mov	 ebp, esp
  00003	56		 push	 esi

; 470  : 	return (_Uninit_move(_First, _Last, _Dest, _Al,
; 471  : 		_Val_type(_First), _Ptr_cat(_First, _Dest)));

  00004	8b 75 0c	 mov	 esi, DWORD PTR __Last$[ebp]
  00007	2b 75 08	 sub	 esi, DWORD PTR __First$[ebp]
  0000a	c1 fe 02	 sar	 esi, 2
  0000d	c1 e6 02	 shl	 esi, 2
  00010	56		 push	 esi
  00011	ff 75 08	 push	 DWORD PTR __First$[ebp]
  00014	ff 75 10	 push	 DWORD PTR __Dest$[ebp]
  00017	ff 15 00 00 00
	00		 call	 DWORD PTR __imp__memmove
  0001d	83 c4 0c	 add	 esp, 12			; 0000000cH
  00020	03 c6		 add	 eax, esi
  00022	5e		 pop	 esi

; 472  : 	}

  00023	5d		 pop	 ebp
  00024	c3		 ret	 0
??$_Uninitialized_move@PAHPAHV?$allocator@H@std@@@std@@YAPAHPAH00AAV?$allocator@H@0@@Z ENDP ; std::_Uninitialized_move<int *,int *,std::allocator<int> >
_TEXT	ENDS
PUBLIC	??$_Uninitialized_move@PAKPAKV?$allocator@K@std@@@std@@YAPAKPAK00AAV?$allocator@K@0@@Z ; std::_Uninitialized_move<unsigned long *,unsigned long *,std::allocator<unsigned long> >
; Function compile flags: /Ogsp
;	COMDAT ??$_Uninitialized_move@PAKPAKV?$allocator@K@std@@@std@@YAPAKPAK00AAV?$allocator@K@0@@Z
_TEXT	SEGMENT
__First$ = 8						; size = 4
__Last$ = 12						; size = 4
__Dest$ = 16						; size = 4
__Al$ = 20						; size = 4
??$_Uninitialized_move@PAKPAKV?$allocator@K@std@@@std@@YAPAKPAK00AAV?$allocator@K@0@@Z PROC ; std::_Uninitialized_move<unsigned long *,unsigned long *,std::allocator<unsigned long> >, COMDAT

; 469  : 	{	// move [_First, _Last) to raw _Dest, using _Al

  00000	55		 push	 ebp
  00001	8b ec		 mov	 ebp, esp
  00003	56		 push	 esi

; 470  : 	return (_Uninit_move(_First, _Last, _Dest, _Al,
; 471  : 		_Val_type(_First), _Ptr_cat(_First, _Dest)));

  00004	8b 75 0c	 mov	 esi, DWORD PTR __Last$[ebp]
  00007	2b 75 08	 sub	 esi, DWORD PTR __First$[ebp]
  0000a	c1 fe 02	 sar	 esi, 2
  0000d	c1 e6 02	 shl	 esi, 2
  00010	56		 push	 esi
  00011	ff 75 08	 push	 DWORD PTR __First$[ebp]
  00014	ff 75 10	 push	 DWORD PTR __Dest$[ebp]
  00017	ff 15 00 00 00
	00		 call	 DWORD PTR __imp__memmove
  0001d	83 c4 0c	 add	 esp, 12			; 0000000cH
  00020	03 c6		 add	 eax, esi
  00022	5e		 pop	 esi

; 472  : 	}

  00023	5d		 pop	 ebp
  00024	c3		 ret	 0
??$_Uninitialized_move@PAKPAKV?$allocator@K@std@@@std@@YAPAKPAK00AAV?$allocator@K@0@@Z ENDP ; std::_Uninitialized_move<unsigned long *,unsigned long *,std::allocator<unsigned long> >
_TEXT	ENDS
PUBLIC	??$_Destroy@VioHashString@@@std@@YAXPAVioHashString@@@Z ; std::_Destroy<ioHashString>
; Function compile flags: /Ogsp
; File c:\program files (x86)\microsoft visual studio 10.0\vc\include\xmemory
;	COMDAT ??$_Destroy@VioHashString@@@std@@YAXPAVioHashString@@@Z
_TEXT	SEGMENT
__Ptr$ = 8						; size = 4
??$_Destroy@VioHashString@@@std@@YAXPAVioHashString@@@Z PROC ; std::_Destroy<ioHashString>, COMDAT

; 62   : 	{	// destroy object at _Ptr

  00000	55		 push	 ebp
  00001	8b ec		 mov	 ebp, esp

; 63   : 	_Ptr->~_Ty();

  00003	8b 4d 08	 mov	 ecx, DWORD PTR __Ptr$[ebp]

; 64   : 	}

  00006	5d		 pop	 ebp

; 63   : 	_Ptr->~_Ty();

  00007	ff 25 00 00 00
	00		 jmp	 DWORD PTR __imp_??1ioHashString@@QAE@XZ
??$_Destroy@VioHashString@@@std@@YAXPAVioHashString@@@Z ENDP ; std::_Destroy<ioHashString>
_TEXT	ENDS
PUBLIC	?construct@?$allocator@VioHashString@@@std@@QAEXPAVioHashString@@ABV3@@Z ; std::allocator<ioHashString>::construct
; Function compile flags: /Ogsp
;	COMDAT ?construct@?$allocator@VioHashString@@@std@@QAEXPAVioHashString@@ABV3@@Z
_TEXT	SEGMENT
__Ptr$ = 8						; size = 4
__Val$ = 12						; size = 4
?construct@?$allocator@VioHashString@@@std@@QAEXPAVioHashString@@ABV3@@Z PROC ; std::allocator<ioHashString>::construct, COMDAT
; _this$ = ecx

; 196  : 		{	// construct object at _Ptr with value _Val

  00000	55		 push	 ebp
  00001	8b ec		 mov	 ebp, esp

; 197  : 		_Construct(_Ptr, _Val);

  00003	ff 75 0c	 push	 DWORD PTR __Val$[ebp]
  00006	ff 75 08	 push	 DWORD PTR __Ptr$[ebp]
  00009	e8 00 00 00 00	 call	 ??$_Construct@VioHashString@@ABV1@@std@@YAXPAVioHashString@@ABV1@@Z ; std::_Construct<ioHashString,ioHashString const &>
  0000e	59		 pop	 ecx
  0000f	59		 pop	 ecx

; 198  : 		}

  00010	5d		 pop	 ebp
  00011	c2 08 00	 ret	 8
?construct@?$allocator@VioHashString@@@std@@QAEXPAVioHashString@@ABV3@@Z ENDP ; std::allocator<ioHashString>::construct
_TEXT	ENDS
PUBLIC	_pImage$GSCopy$
PUBLIC	_this$GSCopy$
PUBLIC	_szType$GSCopy$
PUBLIC	__$ArrayPad$
PUBLIC	?AddRenderImage@UserInfoToolTip@@UAEXABVioHashString@@PAVioUIRenderImage@@@Z ; UserInfoToolTip::AddRenderImage
EXTRN	__imp_?AddRenderImage@ioWnd@@UAEXABVioHashString@@PAVioUIRenderImage@@@Z:PROC
; Function compile flags: /Ogsp
; File d:\lost saga for developer\youtube\tutorial\source\src\lsclient\gui\userinfotooltip.cpp
;	COMDAT ?AddRenderImage@UserInfoToolTip@@UAEXABVioHashString@@PAVioUIRenderImage@@@Z
_TEXT	SEGMENT
_pImage$GSCopy$ = -36					; size = 4
_this$GSCopy$ = -32					; size = 4
_szType$GSCopy$ = -28					; size = 4
__t$555215 = -24					; size = 13
__t$555103 = -24					; size = 13
__t$554965 = -24					; size = 13
__t$554840 = -24					; size = 13
__t$554715 = -24					; size = 13
__t$554590 = -24					; size = 13
__t$554465 = -24					; size = 13
__t$554340 = -24					; size = 13
__t$554318 = -20					; size = 9
__t$554193 = -20					; size = 9
__t$554068 = -20					; size = 9
__t$553943 = -20					; size = 9
__t$553818 = -20					; size = 9
__t$553693 = -20					; size = 9
__t$553568 = -20					; size = 9
__t$553443 = -20					; size = 9
__$ArrayPad$ = -4					; size = 4
_szType$ = 8						; size = 4
_pImage$ = 12						; size = 4
?AddRenderImage@UserInfoToolTip@@UAEXABVioHashString@@PAVioUIRenderImage@@@Z PROC ; UserInfoToolTip::AddRenderImage, COMDAT
; _this$ = ecx

; 343  : {

  00000	55		 push	 ebp
  00001	8b ec		 mov	 ebp, esp
  00003	83 ec 24	 sub	 esp, 36			; 00000024H
  00006	a1 00 00 00 00	 mov	 eax, DWORD PTR ___security_cookie
  0000b	33 c5		 xor	 eax, ebp
  0000d	89 45 fc	 mov	 DWORD PTR __$ArrayPad$[ebp], eax

; 382  : 		m_pInfoBox[7] = pImage;

  00010	8b 45 08	 mov	 eax, DWORD PTR _szType$[ebp]
  00013	53		 push	 ebx
  00014	56		 push	 esi
  00015	57		 push	 edi
  00016	89 45 e4	 mov	 DWORD PTR _szType$GSCopy$[ebp], eax
  00019	8b 45 0c	 mov	 eax, DWORD PTR _pImage$[ebp]
  0001c	6a 02		 push	 2
  0001e	33 db		 xor	 ebx, ebx
  00020	5f		 pop	 edi
  00021	89 4d e0	 mov	 DWORD PTR _this$GSCopy$[ebp], ecx
  00024	89 45 dc	 mov	 DWORD PTR _pImage$GSCopy$[ebp], eax
  00027	c7 45 ec a4 82
	8d 85		 mov	 DWORD PTR __t$553443[ebp], -2054323548 ; 858d82a4H
  0002e	c7 45 f0 af 83
	93 db		 mov	 DWORD PTR __t$553443[ebp+4], -611089489 ; db9383afH
  00035	8d 45 ec	 lea	 eax, DWORD PTR __t$553443[ebp]
  00038	88 5d f4	 mov	 BYTE PTR __t$553443[ebp+8], bl
  0003b	8b cf		 mov	 ecx, edi
$LL186@AddRenderI:

; 344  : 	if( szType == "InfoBox1" )

  0003d	81 30 ed ec eb
	ea		 xor	 DWORD PTR [eax], -353637139 ; eaebecedH
  00043	83 c0 04	 add	 eax, 4
  00046	49		 dec	 ecx
  00047	75 f4		 jne	 SHORT $LL186@AddRenderI
  00049	8b 4d e4	 mov	 ecx, DWORD PTR _szType$GSCopy$[ebp]
  0004c	8d 75 ec	 lea	 esi, DWORD PTR __t$553443[ebp]
  0004f	ff 15 00 00 00
	00		 call	 DWORD PTR __imp_?c_str@ioHashString@@QBEPBDXZ
$LL1858@AddRenderI:
  00055	8a 08		 mov	 cl, BYTE PTR [eax]
  00057	3a 0e		 cmp	 cl, BYTE PTR [esi]
  00059	75 18		 jne	 SHORT $LN1859@AddRenderI
  0005b	3a cb		 cmp	 cl, bl
  0005d	74 10		 je	 SHORT $LN1860@AddRenderI
  0005f	8a 48 01	 mov	 cl, BYTE PTR [eax+1]
  00062	3a 4e 01	 cmp	 cl, BYTE PTR [esi+1]
  00065	75 0c		 jne	 SHORT $LN1859@AddRenderI
  00067	03 c7		 add	 eax, edi
  00069	03 f7		 add	 esi, edi
  0006b	3a cb		 cmp	 cl, bl
  0006d	75 e6		 jne	 SHORT $LL1858@AddRenderI
$LN1860@AddRenderI:
  0006f	33 c0		 xor	 eax, eax
  00071	eb 05		 jmp	 SHORT $LN1861@AddRenderI
$LN1859@AddRenderI:
  00073	1b c0		 sbb	 eax, eax
  00075	83 d8 ff	 sbb	 eax, -1
$LN1861@AddRenderI:
  00078	3b c3		 cmp	 eax, ebx
  0007a	75 28		 jne	 SHORT $LN1843@AddRenderI

; 345  : 	{
; 346  : 		SAFEDELETE( m_pInfoBox[0] );

  0007c	8b 75 e0	 mov	 esi, DWORD PTR _this$GSCopy$[ebp]
  0007f	8b 8e ac 01 00
	00		 mov	 ecx, DWORD PTR [esi+428]
  00085	3b cb		 cmp	 ecx, ebx
  00087	74 0d		 je	 SHORT $LN47@AddRenderI
  00089	8b 01		 mov	 eax, DWORD PTR [ecx]
  0008b	6a 01		 push	 1
  0008d	ff 50 40	 call	 DWORD PTR [eax+64]
  00090	89 9e ac 01 00
	00		 mov	 DWORD PTR [esi+428], ebx
$LN47@AddRenderI:

; 347  : 		m_pInfoBox[0] = pImage;

  00096	8b 45 dc	 mov	 eax, DWORD PTR _pImage$GSCopy$[ebp]
  00099	89 86 ac 01 00
	00		 mov	 DWORD PTR [esi+428], eax
  0009f	e9 aa 07 00 00	 jmp	 $LN1@AddRenderI
$LN1843@AddRenderI:

; 348  : 	}
; 349  : 	else if( szType == "InfoBox2" )

  000a4	c7 45 ec a4 82
	8d 85		 mov	 DWORD PTR __t$553568[ebp], -2054323548 ; 858d82a4H
  000ab	c7 45 f0 af 83
	93 d8		 mov	 DWORD PTR __t$553568[ebp+4], -661421137 ; d89383afH
  000b2	8d 45 ec	 lea	 eax, DWORD PTR __t$553568[ebp]
  000b5	88 5d f4	 mov	 BYTE PTR __t$553568[ebp+8], bl
  000b8	8b cf		 mov	 ecx, edi
$LL292@AddRenderI:
  000ba	81 30 ed ec eb
	ea		 xor	 DWORD PTR [eax], -353637139 ; eaebecedH
  000c0	83 c0 04	 add	 eax, 4
  000c3	49		 dec	 ecx
  000c4	75 f4		 jne	 SHORT $LL292@AddRenderI
  000c6	8b 4d e4	 mov	 ecx, DWORD PTR _szType$GSCopy$[ebp]
  000c9	8d 75 ec	 lea	 esi, DWORD PTR __t$553568[ebp]
  000cc	ff 15 00 00 00
	00		 call	 DWORD PTR __imp_?c_str@ioHashString@@QBEPBDXZ
$LL1862@AddRenderI:
  000d2	8a 08		 mov	 cl, BYTE PTR [eax]
  000d4	3a 0e		 cmp	 cl, BYTE PTR [esi]
  000d6	75 18		 jne	 SHORT $LN1863@AddRenderI
  000d8	3a cb		 cmp	 cl, bl
  000da	74 10		 je	 SHORT $LN1864@AddRenderI
  000dc	8a 48 01	 mov	 cl, BYTE PTR [eax+1]
  000df	3a 4e 01	 cmp	 cl, BYTE PTR [esi+1]
  000e2	75 0c		 jne	 SHORT $LN1863@AddRenderI
  000e4	03 c7		 add	 eax, edi
  000e6	03 f7		 add	 esi, edi
  000e8	3a cb		 cmp	 cl, bl
  000ea	75 e6		 jne	 SHORT $LL1862@AddRenderI
$LN1864@AddRenderI:
  000ec	33 c0		 xor	 eax, eax
  000ee	eb 05		 jmp	 SHORT $LN1865@AddRenderI
$LN1863@AddRenderI:
  000f0	1b c0		 sbb	 eax, eax
  000f2	83 d8 ff	 sbb	 eax, -1
$LN1865@AddRenderI:
  000f5	3b c3		 cmp	 eax, ebx
  000f7	75 28		 jne	 SHORT $LN1844@AddRenderI

; 350  : 	{
; 351  : 		SAFEDELETE( m_pInfoBox[1] );

  000f9	8b 75 e0	 mov	 esi, DWORD PTR _this$GSCopy$[ebp]
  000fc	8b 8e b0 01 00
	00		 mov	 ecx, DWORD PTR [esi+432]
  00102	3b cb		 cmp	 ecx, ebx
  00104	74 0d		 je	 SHORT $LN44@AddRenderI
  00106	8b 01		 mov	 eax, DWORD PTR [ecx]
  00108	6a 01		 push	 1
  0010a	ff 50 40	 call	 DWORD PTR [eax+64]
  0010d	89 9e b0 01 00
	00		 mov	 DWORD PTR [esi+432], ebx
$LN44@AddRenderI:

; 352  : 		m_pInfoBox[1] = pImage;

  00113	8b 45 dc	 mov	 eax, DWORD PTR _pImage$GSCopy$[ebp]
  00116	89 86 b0 01 00
	00		 mov	 DWORD PTR [esi+432], eax
  0011c	e9 2d 07 00 00	 jmp	 $LN1@AddRenderI
$LN1844@AddRenderI:

; 353  : 	}
; 354  : 	else if( szType == "InfoBox3" )

  00121	c7 45 ec a4 82
	8d 85		 mov	 DWORD PTR __t$553693[ebp], -2054323548 ; 858d82a4H
  00128	c7 45 f0 af 83
	93 d9		 mov	 DWORD PTR __t$553693[ebp+4], -644643921 ; d99383afH
  0012f	8d 45 ec	 lea	 eax, DWORD PTR __t$553693[ebp]
  00132	88 5d f4	 mov	 BYTE PTR __t$553693[ebp+8], bl
  00135	8b cf		 mov	 ecx, edi
$LL398@AddRenderI:
  00137	81 30 ed ec eb
	ea		 xor	 DWORD PTR [eax], -353637139 ; eaebecedH
  0013d	83 c0 04	 add	 eax, 4
  00140	49		 dec	 ecx
  00141	75 f4		 jne	 SHORT $LL398@AddRenderI
  00143	8b 4d e4	 mov	 ecx, DWORD PTR _szType$GSCopy$[ebp]
  00146	8d 75 ec	 lea	 esi, DWORD PTR __t$553693[ebp]
  00149	ff 15 00 00 00
	00		 call	 DWORD PTR __imp_?c_str@ioHashString@@QBEPBDXZ
$LL1866@AddRenderI:
  0014f	8a 08		 mov	 cl, BYTE PTR [eax]
  00151	3a 0e		 cmp	 cl, BYTE PTR [esi]
  00153	75 18		 jne	 SHORT $LN1867@AddRenderI
  00155	3a cb		 cmp	 cl, bl
  00157	74 10		 je	 SHORT $LN1868@AddRenderI
  00159	8a 48 01	 mov	 cl, BYTE PTR [eax+1]
  0015c	3a 4e 01	 cmp	 cl, BYTE PTR [esi+1]
  0015f	75 0c		 jne	 SHORT $LN1867@AddRenderI
  00161	03 c7		 add	 eax, edi
  00163	03 f7		 add	 esi, edi
  00165	3a cb		 cmp	 cl, bl
  00167	75 e6		 jne	 SHORT $LL1866@AddRenderI
$LN1868@AddRenderI:
  00169	33 c0		 xor	 eax, eax
  0016b	eb 05		 jmp	 SHORT $LN1869@AddRenderI
$LN1867@AddRenderI:
  0016d	1b c0		 sbb	 eax, eax
  0016f	83 d8 ff	 sbb	 eax, -1
$LN1869@AddRenderI:
  00172	3b c3		 cmp	 eax, ebx
  00174	75 28		 jne	 SHORT $LN1845@AddRenderI

; 355  : 	{
; 356  : 		SAFEDELETE( m_pInfoBox[2] );

  00176	8b 75 e0	 mov	 esi, DWORD PTR _this$GSCopy$[ebp]
  00179	8b 8e b4 01 00
	00		 mov	 ecx, DWORD PTR [esi+436]
  0017f	3b cb		 cmp	 ecx, ebx
  00181	74 0d		 je	 SHORT $LN41@AddRenderI
  00183	8b 01		 mov	 eax, DWORD PTR [ecx]
  00185	6a 01		 push	 1
  00187	ff 50 40	 call	 DWORD PTR [eax+64]
  0018a	89 9e b4 01 00
	00		 mov	 DWORD PTR [esi+436], ebx
$LN41@AddRenderI:

; 357  : 		m_pInfoBox[2] = pImage;

  00190	8b 45 dc	 mov	 eax, DWORD PTR _pImage$GSCopy$[ebp]
  00193	89 86 b4 01 00
	00		 mov	 DWORD PTR [esi+436], eax
  00199	e9 b0 06 00 00	 jmp	 $LN1@AddRenderI
$LN1845@AddRenderI:

; 358  : 	}
; 359  : 	else if( szType == "InfoBox4" )

  0019e	c7 45 ec a4 82
	8d 85		 mov	 DWORD PTR __t$553818[ebp], -2054323548 ; 858d82a4H
  001a5	c7 45 f0 af 83
	93 de		 mov	 DWORD PTR __t$553818[ebp+4], -560757841 ; de9383afH
  001ac	8d 45 ec	 lea	 eax, DWORD PTR __t$553818[ebp]
  001af	88 5d f4	 mov	 BYTE PTR __t$553818[ebp+8], bl
  001b2	8b cf		 mov	 ecx, edi
$LL504@AddRenderI:
  001b4	81 30 ed ec eb
	ea		 xor	 DWORD PTR [eax], -353637139 ; eaebecedH
  001ba	83 c0 04	 add	 eax, 4
  001bd	49		 dec	 ecx
  001be	75 f4		 jne	 SHORT $LL504@AddRenderI
  001c0	8b 4d e4	 mov	 ecx, DWORD PTR _szType$GSCopy$[ebp]
  001c3	8d 75 ec	 lea	 esi, DWORD PTR __t$553818[ebp]
  001c6	ff 15 00 00 00
	00		 call	 DWORD PTR __imp_?c_str@ioHashString@@QBEPBDXZ
$LL1870@AddRenderI:
  001cc	8a 08		 mov	 cl, BYTE PTR [eax]
  001ce	3a 0e		 cmp	 cl, BYTE PTR [esi]
  001d0	75 18		 jne	 SHORT $LN1871@AddRenderI
  001d2	3a cb		 cmp	 cl, bl
  001d4	74 10		 je	 SHORT $LN1872@AddRenderI
  001d6	8a 48 01	 mov	 cl, BYTE PTR [eax+1]
  001d9	3a 4e 01	 cmp	 cl, BYTE PTR [esi+1]
  001dc	75 0c		 jne	 SHORT $LN1871@AddRenderI
  001de	03 c7		 add	 eax, edi
  001e0	03 f7		 add	 esi, edi
  001e2	3a cb		 cmp	 cl, bl
  001e4	75 e6		 jne	 SHORT $LL1870@AddRenderI
$LN1872@AddRenderI:
  001e6	33 c0		 xor	 eax, eax
  001e8	eb 05		 jmp	 SHORT $LN1873@AddRenderI
$LN1871@AddRenderI:
  001ea	1b c0		 sbb	 eax, eax
  001ec	83 d8 ff	 sbb	 eax, -1
$LN1873@AddRenderI:
  001ef	3b c3		 cmp	 eax, ebx
  001f1	75 28		 jne	 SHORT $LN1846@AddRenderI

; 360  : 	{
; 361  : 		SAFEDELETE( m_pInfoBox[3] );

  001f3	8b 75 e0	 mov	 esi, DWORD PTR _this$GSCopy$[ebp]
  001f6	8b 8e b8 01 00
	00		 mov	 ecx, DWORD PTR [esi+440]
  001fc	3b cb		 cmp	 ecx, ebx
  001fe	74 0d		 je	 SHORT $LN38@AddRenderI
  00200	8b 01		 mov	 eax, DWORD PTR [ecx]
  00202	6a 01		 push	 1
  00204	ff 50 40	 call	 DWORD PTR [eax+64]
  00207	89 9e b8 01 00
	00		 mov	 DWORD PTR [esi+440], ebx
$LN38@AddRenderI:

; 362  : 		m_pInfoBox[3] = pImage;

  0020d	8b 45 dc	 mov	 eax, DWORD PTR _pImage$GSCopy$[ebp]
  00210	89 86 b8 01 00
	00		 mov	 DWORD PTR [esi+440], eax
  00216	e9 33 06 00 00	 jmp	 $LN1@AddRenderI
$LN1846@AddRenderI:

; 363  : 	}
; 364  : 	else if( szType == "InfoBox5" )

  0021b	c7 45 ec a4 82
	8d 85		 mov	 DWORD PTR __t$553943[ebp], -2054323548 ; 858d82a4H
  00222	c7 45 f0 af 83
	93 df		 mov	 DWORD PTR __t$553943[ebp+4], -543980625 ; df9383afH
  00229	8d 45 ec	 lea	 eax, DWORD PTR __t$553943[ebp]
  0022c	88 5d f4	 mov	 BYTE PTR __t$553943[ebp+8], bl
  0022f	8b cf		 mov	 ecx, edi
$LL610@AddRenderI:
  00231	81 30 ed ec eb
	ea		 xor	 DWORD PTR [eax], -353637139 ; eaebecedH
  00237	83 c0 04	 add	 eax, 4
  0023a	49		 dec	 ecx
  0023b	75 f4		 jne	 SHORT $LL610@AddRenderI
  0023d	8b 4d e4	 mov	 ecx, DWORD PTR _szType$GSCopy$[ebp]
  00240	8d 75 ec	 lea	 esi, DWORD PTR __t$553943[ebp]
  00243	ff 15 00 00 00
	00		 call	 DWORD PTR __imp_?c_str@ioHashString@@QBEPBDXZ
$LL1874@AddRenderI:
  00249	8a 08		 mov	 cl, BYTE PTR [eax]
  0024b	3a 0e		 cmp	 cl, BYTE PTR [esi]
  0024d	75 18		 jne	 SHORT $LN1875@AddRenderI
  0024f	3a cb		 cmp	 cl, bl
  00251	74 10		 je	 SHORT $LN1876@AddRenderI
  00253	8a 48 01	 mov	 cl, BYTE PTR [eax+1]
  00256	3a 4e 01	 cmp	 cl, BYTE PTR [esi+1]
  00259	75 0c		 jne	 SHORT $LN1875@AddRenderI
  0025b	03 c7		 add	 eax, edi
  0025d	03 f7		 add	 esi, edi
  0025f	3a cb		 cmp	 cl, bl
  00261	75 e6		 jne	 SHORT $LL1874@AddRenderI
$LN1876@AddRenderI:
  00263	33 c0		 xor	 eax, eax
  00265	eb 05		 jmp	 SHORT $LN1877@AddRenderI
$LN1875@AddRenderI:
  00267	1b c0		 sbb	 eax, eax
  00269	83 d8 ff	 sbb	 eax, -1
$LN1877@AddRenderI:
  0026c	3b c3		 cmp	 eax, ebx
  0026e	75 28		 jne	 SHORT $LN1847@AddRenderI

; 365  : 	{
; 366  : 		SAFEDELETE( m_pInfoBox[4] );

  00270	8b 75 e0	 mov	 esi, DWORD PTR _this$GSCopy$[ebp]
  00273	8b 8e bc 01 00
	00		 mov	 ecx, DWORD PTR [esi+444]
  00279	3b cb		 cmp	 ecx, ebx
  0027b	74 0d		 je	 SHORT $LN35@AddRenderI
  0027d	8b 01		 mov	 eax, DWORD PTR [ecx]
  0027f	6a 01		 push	 1
  00281	ff 50 40	 call	 DWORD PTR [eax+64]
  00284	89 9e bc 01 00
	00		 mov	 DWORD PTR [esi+444], ebx
$LN35@AddRenderI:

; 367  : 		m_pInfoBox[4] = pImage;

  0028a	8b 45 dc	 mov	 eax, DWORD PTR _pImage$GSCopy$[ebp]
  0028d	89 86 bc 01 00
	00		 mov	 DWORD PTR [esi+444], eax
  00293	e9 b6 05 00 00	 jmp	 $LN1@AddRenderI
$LN1847@AddRenderI:

; 368  : 	}
; 369  : 	else if( szType == "InfoBox6" )

  00298	c7 45 ec a4 82
	8d 85		 mov	 DWORD PTR __t$554068[ebp], -2054323548 ; 858d82a4H
  0029f	c7 45 f0 af 83
	93 dc		 mov	 DWORD PTR __t$554068[ebp+4], -594312273 ; dc9383afH
  002a6	8d 45 ec	 lea	 eax, DWORD PTR __t$554068[ebp]
  002a9	88 5d f4	 mov	 BYTE PTR __t$554068[ebp+8], bl
  002ac	8b cf		 mov	 ecx, edi
$LL716@AddRenderI:
  002ae	81 30 ed ec eb
	ea		 xor	 DWORD PTR [eax], -353637139 ; eaebecedH
  002b4	83 c0 04	 add	 eax, 4
  002b7	49		 dec	 ecx
  002b8	75 f4		 jne	 SHORT $LL716@AddRenderI
  002ba	8b 4d e4	 mov	 ecx, DWORD PTR _szType$GSCopy$[ebp]
  002bd	8d 75 ec	 lea	 esi, DWORD PTR __t$554068[ebp]
  002c0	ff 15 00 00 00
	00		 call	 DWORD PTR __imp_?c_str@ioHashString@@QBEPBDXZ
$LL1878@AddRenderI:
  002c6	8a 08		 mov	 cl, BYTE PTR [eax]
  002c8	3a 0e		 cmp	 cl, BYTE PTR [esi]
  002ca	75 18		 jne	 SHORT $LN1879@AddRenderI
  002cc	3a cb		 cmp	 cl, bl
  002ce	74 10		 je	 SHORT $LN1880@AddRenderI
  002d0	8a 48 01	 mov	 cl, BYTE PTR [eax+1]
  002d3	3a 4e 01	 cmp	 cl, BYTE PTR [esi+1]
  002d6	75 0c		 jne	 SHORT $LN1879@AddRenderI
  002d8	03 c7		 add	 eax, edi
  002da	03 f7		 add	 esi, edi
  002dc	3a cb		 cmp	 cl, bl
  002de	75 e6		 jne	 SHORT $LL1878@AddRenderI
$LN1880@AddRenderI:
  002e0	33 c0		 xor	 eax, eax
  002e2	eb 05		 jmp	 SHORT $LN1881@AddRenderI
$LN1879@AddRenderI:
  002e4	1b c0		 sbb	 eax, eax
  002e6	83 d8 ff	 sbb	 eax, -1
$LN1881@AddRenderI:
  002e9	3b c3		 cmp	 eax, ebx
  002eb	75 28		 jne	 SHORT $LN1848@AddRenderI

; 370  : 	{
; 371  : 		SAFEDELETE( m_pInfoBox[5] );

  002ed	8b 75 e0	 mov	 esi, DWORD PTR _this$GSCopy$[ebp]
  002f0	8b 8e c0 01 00
	00		 mov	 ecx, DWORD PTR [esi+448]
  002f6	3b cb		 cmp	 ecx, ebx
  002f8	74 0d		 je	 SHORT $LN32@AddRenderI
  002fa	8b 01		 mov	 eax, DWORD PTR [ecx]
  002fc	6a 01		 push	 1
  002fe	ff 50 40	 call	 DWORD PTR [eax+64]
  00301	89 9e c0 01 00
	00		 mov	 DWORD PTR [esi+448], ebx
$LN32@AddRenderI:

; 372  : 		m_pInfoBox[5] = pImage;

  00307	8b 45 dc	 mov	 eax, DWORD PTR _pImage$GSCopy$[ebp]
  0030a	89 86 c0 01 00
	00		 mov	 DWORD PTR [esi+448], eax
  00310	e9 39 05 00 00	 jmp	 $LN1@AddRenderI
$LN1848@AddRenderI:

; 373  : 	}
; 374  : 	else if( szType == "InfoBox7" )

  00315	c7 45 ec a4 82
	8d 85		 mov	 DWORD PTR __t$554193[ebp], -2054323548 ; 858d82a4H
  0031c	c7 45 f0 af 83
	93 dd		 mov	 DWORD PTR __t$554193[ebp+4], -577535057 ; dd9383afH
  00323	8d 45 ec	 lea	 eax, DWORD PTR __t$554193[ebp]
  00326	88 5d f4	 mov	 BYTE PTR __t$554193[ebp+8], bl
  00329	8b cf		 mov	 ecx, edi
$LL822@AddRenderI:
  0032b	81 30 ed ec eb
	ea		 xor	 DWORD PTR [eax], -353637139 ; eaebecedH
  00331	83 c0 04	 add	 eax, 4
  00334	49		 dec	 ecx
  00335	75 f4		 jne	 SHORT $LL822@AddRenderI
  00337	8b 4d e4	 mov	 ecx, DWORD PTR _szType$GSCopy$[ebp]
  0033a	8d 75 ec	 lea	 esi, DWORD PTR __t$554193[ebp]
  0033d	ff 15 00 00 00
	00		 call	 DWORD PTR __imp_?c_str@ioHashString@@QBEPBDXZ
$LL1882@AddRenderI:
  00343	8a 08		 mov	 cl, BYTE PTR [eax]
  00345	3a 0e		 cmp	 cl, BYTE PTR [esi]
  00347	75 18		 jne	 SHORT $LN1883@AddRenderI
  00349	3a cb		 cmp	 cl, bl
  0034b	74 10		 je	 SHORT $LN1884@AddRenderI
  0034d	8a 48 01	 mov	 cl, BYTE PTR [eax+1]
  00350	3a 4e 01	 cmp	 cl, BYTE PTR [esi+1]
  00353	75 0c		 jne	 SHORT $LN1883@AddRenderI
  00355	03 c7		 add	 eax, edi
  00357	03 f7		 add	 esi, edi
  00359	3a cb		 cmp	 cl, bl
  0035b	75 e6		 jne	 SHORT $LL1882@AddRenderI
$LN1884@AddRenderI:
  0035d	33 c0		 xor	 eax, eax
  0035f	eb 05		 jmp	 SHORT $LN1885@AddRenderI
$LN1883@AddRenderI:
  00361	1b c0		 sbb	 eax, eax
  00363	83 d8 ff	 sbb	 eax, -1
$LN1885@AddRenderI:
  00366	3b c3		 cmp	 eax, ebx
  00368	75 28		 jne	 SHORT $LN1849@AddRenderI

; 375  : 	{
; 376  : 		SAFEDELETE( m_pInfoBox[6] );

  0036a	8b 75 e0	 mov	 esi, DWORD PTR _this$GSCopy$[ebp]
  0036d	8b 8e c4 01 00
	00		 mov	 ecx, DWORD PTR [esi+452]
  00373	3b cb		 cmp	 ecx, ebx
  00375	74 0d		 je	 SHORT $LN29@AddRenderI
  00377	8b 01		 mov	 eax, DWORD PTR [ecx]
  00379	6a 01		 push	 1
  0037b	ff 50 40	 call	 DWORD PTR [eax+64]
  0037e	89 9e c4 01 00
	00		 mov	 DWORD PTR [esi+452], ebx
$LN29@AddRenderI:

; 377  : 		m_pInfoBox[6] = pImage;

  00384	8b 45 dc	 mov	 eax, DWORD PTR _pImage$GSCopy$[ebp]
  00387	89 86 c4 01 00
	00		 mov	 DWORD PTR [esi+452], eax
  0038d	e9 bc 04 00 00	 jmp	 $LN1@AddRenderI
$LN1849@AddRenderI:

; 378  : 	}
; 379  : 	else if( szType == "InfoBox8" )

  00392	c7 45 ec a4 82
	8d 85		 mov	 DWORD PTR __t$554318[ebp], -2054323548 ; 858d82a4H
  00399	c7 45 f0 af 83
	93 d2		 mov	 DWORD PTR __t$554318[ebp+4], -762084433 ; d29383afH
  003a0	8d 45 ec	 lea	 eax, DWORD PTR __t$554318[ebp]
  003a3	88 5d f4	 mov	 BYTE PTR __t$554318[ebp+8], bl
  003a6	8b cf		 mov	 ecx, edi
$LL928@AddRenderI:
  003a8	81 30 ed ec eb
	ea		 xor	 DWORD PTR [eax], -353637139 ; eaebecedH
  003ae	83 c0 04	 add	 eax, 4
  003b1	49		 dec	 ecx
  003b2	75 f4		 jne	 SHORT $LL928@AddRenderI
  003b4	8b 4d e4	 mov	 ecx, DWORD PTR _szType$GSCopy$[ebp]
  003b7	8d 75 ec	 lea	 esi, DWORD PTR __t$554318[ebp]
  003ba	ff 15 00 00 00
	00		 call	 DWORD PTR __imp_?c_str@ioHashString@@QBEPBDXZ
$LL1886@AddRenderI:
  003c0	8a 08		 mov	 cl, BYTE PTR [eax]
  003c2	3a 0e		 cmp	 cl, BYTE PTR [esi]
  003c4	75 18		 jne	 SHORT $LN1887@AddRenderI
  003c6	3a cb		 cmp	 cl, bl
  003c8	74 10		 je	 SHORT $LN1888@AddRenderI
  003ca	8a 48 01	 mov	 cl, BYTE PTR [eax+1]
  003cd	3a 4e 01	 cmp	 cl, BYTE PTR [esi+1]
  003d0	75 0c		 jne	 SHORT $LN1887@AddRenderI
  003d2	03 c7		 add	 eax, edi
  003d4	03 f7		 add	 esi, edi
  003d6	3a cb		 cmp	 cl, bl
  003d8	75 e6		 jne	 SHORT $LL1886@AddRenderI
$LN1888@AddRenderI:
  003da	33 c0		 xor	 eax, eax
  003dc	eb 05		 jmp	 SHORT $LN1889@AddRenderI
$LN1887@AddRenderI:
  003de	1b c0		 sbb	 eax, eax
  003e0	83 d8 ff	 sbb	 eax, -1
$LN1889@AddRenderI:
  003e3	3b c3		 cmp	 eax, ebx
  003e5	75 28		 jne	 SHORT $LN1850@AddRenderI

; 380  : 	{
; 381  : 		SAFEDELETE( m_pInfoBox[7] );

  003e7	8b 75 e0	 mov	 esi, DWORD PTR _this$GSCopy$[ebp]
  003ea	8b 8e c8 01 00
	00		 mov	 ecx, DWORD PTR [esi+456]
  003f0	3b cb		 cmp	 ecx, ebx
  003f2	74 0d		 je	 SHORT $LN26@AddRenderI
  003f4	8b 01		 mov	 eax, DWORD PTR [ecx]
  003f6	6a 01		 push	 1
  003f8	ff 50 40	 call	 DWORD PTR [eax+64]
  003fb	89 9e c8 01 00
	00		 mov	 DWORD PTR [esi+456], ebx
$LN26@AddRenderI:

; 382  : 		m_pInfoBox[7] = pImage;

  00401	8b 45 dc	 mov	 eax, DWORD PTR _pImage$GSCopy$[ebp]
  00404	89 86 c8 01 00
	00		 mov	 DWORD PTR [esi+456], eax
  0040a	e9 3f 04 00 00	 jmp	 $LN1@AddRenderI
$LN1850@AddRenderI:

; 383  : 	}
; 384  : 	else if( szType == "InfoLoading1" )

  0040f	6a 03		 push	 3
  00411	5f		 pop	 edi
  00412	c7 45 e8 a4 82
	8d 85		 mov	 DWORD PTR __t$554340[ebp], -2054323548 ; 858d82a4H
  00419	c7 45 ec a1 83
	8a 8e		 mov	 DWORD PTR __t$554340[ebp+4], -1903524959 ; 8e8a83a1H
  00420	c7 45 f0 84 82
	8c db		 mov	 DWORD PTR __t$554340[ebp+8], -611548540 ; db8c8284H
  00427	8d 45 e8	 lea	 eax, DWORD PTR __t$554340[ebp]
  0042a	88 5d f4	 mov	 BYTE PTR __t$554340[ebp+12], bl
  0042d	8b cf		 mov	 ecx, edi
$LL1034@AddRenderI:
  0042f	81 30 ed ec eb
	ea		 xor	 DWORD PTR [eax], -353637139 ; eaebecedH
  00435	83 c0 04	 add	 eax, 4
  00438	49		 dec	 ecx
  00439	75 f4		 jne	 SHORT $LL1034@AddRenderI
  0043b	8b 4d e4	 mov	 ecx, DWORD PTR _szType$GSCopy$[ebp]
  0043e	8d 75 e8	 lea	 esi, DWORD PTR __t$554340[ebp]
  00441	ff 15 00 00 00
	00		 call	 DWORD PTR __imp_?c_str@ioHashString@@QBEPBDXZ
$LL1890@AddRenderI:
  00447	8a 08		 mov	 cl, BYTE PTR [eax]
  00449	3a 0e		 cmp	 cl, BYTE PTR [esi]
  0044b	75 1a		 jne	 SHORT $LN1891@AddRenderI
  0044d	3a cb		 cmp	 cl, bl
  0044f	74 12		 je	 SHORT $LN1892@AddRenderI
  00451	8a 48 01	 mov	 cl, BYTE PTR [eax+1]
  00454	3a 4e 01	 cmp	 cl, BYTE PTR [esi+1]
  00457	75 0e		 jne	 SHORT $LN1891@AddRenderI
  00459	83 c0 02	 add	 eax, 2
  0045c	83 c6 02	 add	 esi, 2
  0045f	3a cb		 cmp	 cl, bl
  00461	75 e4		 jne	 SHORT $LL1890@AddRenderI
$LN1892@AddRenderI:
  00463	33 c0		 xor	 eax, eax
  00465	eb 05		 jmp	 SHORT $LN1893@AddRenderI
$LN1891@AddRenderI:
  00467	1b c0		 sbb	 eax, eax
  00469	83 d8 ff	 sbb	 eax, -1
$LN1893@AddRenderI:
  0046c	3b c3		 cmp	 eax, ebx
  0046e	75 28		 jne	 SHORT $LN1851@AddRenderI

; 385  : 	{
; 386  : 		SAFEDELETE( m_pInfoLoading[0] );

  00470	8b 75 e0	 mov	 esi, DWORD PTR _this$GSCopy$[ebp]
  00473	8b 8e cc 01 00
	00		 mov	 ecx, DWORD PTR [esi+460]
  00479	3b cb		 cmp	 ecx, ebx
  0047b	74 0d		 je	 SHORT $LN23@AddRenderI
  0047d	8b 01		 mov	 eax, DWORD PTR [ecx]
  0047f	6a 01		 push	 1
  00481	ff 50 40	 call	 DWORD PTR [eax+64]
  00484	89 9e cc 01 00
	00		 mov	 DWORD PTR [esi+460], ebx
$LN23@AddRenderI:

; 387  : 		m_pInfoLoading[0] = pImage;

  0048a	8b 45 dc	 mov	 eax, DWORD PTR _pImage$GSCopy$[ebp]
  0048d	89 86 cc 01 00
	00		 mov	 DWORD PTR [esi+460], eax
  00493	e9 b6 03 00 00	 jmp	 $LN1@AddRenderI
$LN1851@AddRenderI:

; 388  : 	}
; 389  : 	else if( szType == "InfoLoading2" )

  00498	c7 45 e8 a4 82
	8d 85		 mov	 DWORD PTR __t$554465[ebp], -2054323548 ; 858d82a4H
  0049f	c7 45 ec a1 83
	8a 8e		 mov	 DWORD PTR __t$554465[ebp+4], -1903524959 ; 8e8a83a1H
  004a6	c7 45 f0 84 82
	8c d8		 mov	 DWORD PTR __t$554465[ebp+8], -661880188 ; d88c8284H
  004ad	8d 45 e8	 lea	 eax, DWORD PTR __t$554465[ebp]
  004b0	88 5d f4	 mov	 BYTE PTR __t$554465[ebp+12], bl
  004b3	8b cf		 mov	 ecx, edi
$LL1140@AddRenderI:
  004b5	81 30 ed ec eb
	ea		 xor	 DWORD PTR [eax], -353637139 ; eaebecedH
  004bb	83 c0 04	 add	 eax, 4
  004be	49		 dec	 ecx
  004bf	75 f4		 jne	 SHORT $LL1140@AddRenderI
  004c1	8b 4d e4	 mov	 ecx, DWORD PTR _szType$GSCopy$[ebp]
  004c4	8d 75 e8	 lea	 esi, DWORD PTR __t$554465[ebp]
  004c7	ff 15 00 00 00
	00		 call	 DWORD PTR __imp_?c_str@ioHashString@@QBEPBDXZ
$LL1894@AddRenderI:
  004cd	8a 08		 mov	 cl, BYTE PTR [eax]
  004cf	3a 0e		 cmp	 cl, BYTE PTR [esi]
  004d1	75 1a		 jne	 SHORT $LN1895@AddRenderI
  004d3	3a cb		 cmp	 cl, bl
  004d5	74 12		 je	 SHORT $LN1896@AddRenderI
  004d7	8a 48 01	 mov	 cl, BYTE PTR [eax+1]
  004da	3a 4e 01	 cmp	 cl, BYTE PTR [esi+1]
  004dd	75 0e		 jne	 SHORT $LN1895@AddRenderI
  004df	83 c0 02	 add	 eax, 2
  004e2	83 c6 02	 add	 esi, 2
  004e5	3a cb		 cmp	 cl, bl
  004e7	75 e4		 jne	 SHORT $LL1894@AddRenderI
$LN1896@AddRenderI:
  004e9	33 c0		 xor	 eax, eax
  004eb	eb 05		 jmp	 SHORT $LN1897@AddRenderI
$LN1895@AddRenderI:
  004ed	1b c0		 sbb	 eax, eax
  004ef	83 d8 ff	 sbb	 eax, -1
$LN1897@AddRenderI:
  004f2	3b c3		 cmp	 eax, ebx
  004f4	75 28		 jne	 SHORT $LN1852@AddRenderI

; 390  : 	{
; 391  : 		SAFEDELETE( m_pInfoLoading[1] );

  004f6	8b 75 e0	 mov	 esi, DWORD PTR _this$GSCopy$[ebp]
  004f9	8b 8e d0 01 00
	00		 mov	 ecx, DWORD PTR [esi+464]
  004ff	3b cb		 cmp	 ecx, ebx
  00501	74 0d		 je	 SHORT $LN20@AddRenderI
  00503	8b 01		 mov	 eax, DWORD PTR [ecx]
  00505	6a 01		 push	 1
  00507	ff 50 40	 call	 DWORD PTR [eax+64]
  0050a	89 9e d0 01 00
	00		 mov	 DWORD PTR [esi+464], ebx
$LN20@AddRenderI:

; 392  : 		m_pInfoLoading[1] = pImage;

  00510	8b 45 dc	 mov	 eax, DWORD PTR _pImage$GSCopy$[ebp]
  00513	89 86 d0 01 00
	00		 mov	 DWORD PTR [esi+464], eax
  00519	e9 30 03 00 00	 jmp	 $LN1@AddRenderI
$LN1852@AddRenderI:

; 393  : 	}
; 394  : 	else if( szType == "InfoLoading3" )

  0051e	c7 45 e8 a4 82
	8d 85		 mov	 DWORD PTR __t$554590[ebp], -2054323548 ; 858d82a4H
  00525	c7 45 ec a1 83
	8a 8e		 mov	 DWORD PTR __t$554590[ebp+4], -1903524959 ; 8e8a83a1H
  0052c	c7 45 f0 84 82
	8c d9		 mov	 DWORD PTR __t$554590[ebp+8], -645102972 ; d98c8284H
  00533	8d 45 e8	 lea	 eax, DWORD PTR __t$554590[ebp]
  00536	88 5d f4	 mov	 BYTE PTR __t$554590[ebp+12], bl
  00539	8b cf		 mov	 ecx, edi
$LL1246@AddRenderI:
  0053b	81 30 ed ec eb
	ea		 xor	 DWORD PTR [eax], -353637139 ; eaebecedH
  00541	83 c0 04	 add	 eax, 4
  00544	49		 dec	 ecx
  00545	75 f4		 jne	 SHORT $LL1246@AddRenderI
  00547	8b 4d e4	 mov	 ecx, DWORD PTR _szType$GSCopy$[ebp]
  0054a	8d 75 e8	 lea	 esi, DWORD PTR __t$554590[ebp]
  0054d	ff 15 00 00 00
	00		 call	 DWORD PTR __imp_?c_str@ioHashString@@QBEPBDXZ
$LL1898@AddRenderI:
  00553	8a 08		 mov	 cl, BYTE PTR [eax]
  00555	3a 0e		 cmp	 cl, BYTE PTR [esi]
  00557	75 1a		 jne	 SHORT $LN1899@AddRenderI
  00559	3a cb		 cmp	 cl, bl
  0055b	74 12		 je	 SHORT $LN1900@AddRenderI
  0055d	8a 48 01	 mov	 cl, BYTE PTR [eax+1]
  00560	3a 4e 01	 cmp	 cl, BYTE PTR [esi+1]
  00563	75 0e		 jne	 SHORT $LN1899@AddRenderI
  00565	83 c0 02	 add	 eax, 2
  00568	83 c6 02	 add	 esi, 2
  0056b	3a cb		 cmp	 cl, bl
  0056d	75 e4		 jne	 SHORT $LL1898@AddRenderI
$LN1900@AddRenderI:
  0056f	33 c0		 xor	 eax, eax
  00571	eb 05		 jmp	 SHORT $LN1901@AddRenderI
$LN1899@AddRenderI:
  00573	1b c0		 sbb	 eax, eax
  00575	83 d8 ff	 sbb	 eax, -1
$LN1901@AddRenderI:
  00578	3b c3		 cmp	 eax, ebx
  0057a	75 28		 jne	 SHORT $LN1853@AddRenderI

; 395  : 	{
; 396  : 		SAFEDELETE( m_pInfoLoading[2] );

  0057c	8b 75 e0	 mov	 esi, DWORD PTR _this$GSCopy$[ebp]
  0057f	8b 8e d4 01 00
	00		 mov	 ecx, DWORD PTR [esi+468]
  00585	3b cb		 cmp	 ecx, ebx
  00587	74 0d		 je	 SHORT $LN17@AddRenderI
  00589	8b 01		 mov	 eax, DWORD PTR [ecx]
  0058b	6a 01		 push	 1
  0058d	ff 50 40	 call	 DWORD PTR [eax+64]
  00590	89 9e d4 01 00
	00		 mov	 DWORD PTR [esi+468], ebx
$LN17@AddRenderI:

; 397  : 		m_pInfoLoading[2] = pImage;

  00596	8b 45 dc	 mov	 eax, DWORD PTR _pImage$GSCopy$[ebp]
  00599	89 86 d4 01 00
	00		 mov	 DWORD PTR [esi+468], eax
  0059f	e9 aa 02 00 00	 jmp	 $LN1@AddRenderI
$LN1853@AddRenderI:

; 398  : 	}
; 399  : 	else if( szType == "InfoLoading4" )

  005a4	c7 45 e8 a4 82
	8d 85		 mov	 DWORD PTR __t$554715[ebp], -2054323548 ; 858d82a4H
  005ab	c7 45 ec a1 83
	8a 8e		 mov	 DWORD PTR __t$554715[ebp+4], -1903524959 ; 8e8a83a1H
  005b2	c7 45 f0 84 82
	8c de		 mov	 DWORD PTR __t$554715[ebp+8], -561216892 ; de8c8284H
  005b9	8d 45 e8	 lea	 eax, DWORD PTR __t$554715[ebp]
  005bc	88 5d f4	 mov	 BYTE PTR __t$554715[ebp+12], bl
  005bf	8b cf		 mov	 ecx, edi
$LL1352@AddRenderI:
  005c1	81 30 ed ec eb
	ea		 xor	 DWORD PTR [eax], -353637139 ; eaebecedH
  005c7	83 c0 04	 add	 eax, 4
  005ca	49		 dec	 ecx
  005cb	75 f4		 jne	 SHORT $LL1352@AddRenderI
  005cd	8b 4d e4	 mov	 ecx, DWORD PTR _szType$GSCopy$[ebp]
  005d0	8d 75 e8	 lea	 esi, DWORD PTR __t$554715[ebp]
  005d3	ff 15 00 00 00
	00		 call	 DWORD PTR __imp_?c_str@ioHashString@@QBEPBDXZ
$LL1902@AddRenderI:
  005d9	8a 08		 mov	 cl, BYTE PTR [eax]
  005db	3a 0e		 cmp	 cl, BYTE PTR [esi]
  005dd	75 1a		 jne	 SHORT $LN1903@AddRenderI
  005df	3a cb		 cmp	 cl, bl
  005e1	74 12		 je	 SHORT $LN1904@AddRenderI
  005e3	8a 48 01	 mov	 cl, BYTE PTR [eax+1]
  005e6	3a 4e 01	 cmp	 cl, BYTE PTR [esi+1]
  005e9	75 0e		 jne	 SHORT $LN1903@AddRenderI
  005eb	83 c0 02	 add	 eax, 2
  005ee	83 c6 02	 add	 esi, 2
  005f1	3a cb		 cmp	 cl, bl
  005f3	75 e4		 jne	 SHORT $LL1902@AddRenderI
$LN1904@AddRenderI:
  005f5	33 c0		 xor	 eax, eax
  005f7	eb 05		 jmp	 SHORT $LN1905@AddRenderI
$LN1903@AddRenderI:
  005f9	1b c0		 sbb	 eax, eax
  005fb	83 d8 ff	 sbb	 eax, -1
$LN1905@AddRenderI:
  005fe	3b c3		 cmp	 eax, ebx
  00600	75 28		 jne	 SHORT $LN1854@AddRenderI

; 400  : 	{
; 401  : 		SAFEDELETE( m_pInfoLoading[3] );

  00602	8b 75 e0	 mov	 esi, DWORD PTR _this$GSCopy$[ebp]
  00605	8b 8e d8 01 00
	00		 mov	 ecx, DWORD PTR [esi+472]
  0060b	3b cb		 cmp	 ecx, ebx
  0060d	74 0d		 je	 SHORT $LN14@AddRenderI
  0060f	8b 01		 mov	 eax, DWORD PTR [ecx]
  00611	6a 01		 push	 1
  00613	ff 50 40	 call	 DWORD PTR [eax+64]
  00616	89 9e d8 01 00
	00		 mov	 DWORD PTR [esi+472], ebx
$LN14@AddRenderI:

; 402  : 		m_pInfoLoading[3] = pImage;

  0061c	8b 45 dc	 mov	 eax, DWORD PTR _pImage$GSCopy$[ebp]
  0061f	89 86 d8 01 00
	00		 mov	 DWORD PTR [esi+472], eax
  00625	e9 24 02 00 00	 jmp	 $LN1@AddRenderI
$LN1854@AddRenderI:

; 403  : 	}
; 404  : 	else if( szType == "InfoLoading5" )

  0062a	c7 45 e8 a4 82
	8d 85		 mov	 DWORD PTR __t$554840[ebp], -2054323548 ; 858d82a4H
  00631	c7 45 ec a1 83
	8a 8e		 mov	 DWORD PTR __t$554840[ebp+4], -1903524959 ; 8e8a83a1H
  00638	c7 45 f0 84 82
	8c df		 mov	 DWORD PTR __t$554840[ebp+8], -544439676 ; df8c8284H
  0063f	8d 45 e8	 lea	 eax, DWORD PTR __t$554840[ebp]
  00642	88 5d f4	 mov	 BYTE PTR __t$554840[ebp+12], bl
  00645	8b cf		 mov	 ecx, edi
$LL1458@AddRenderI:
  00647	81 30 ed ec eb
	ea		 xor	 DWORD PTR [eax], -353637139 ; eaebecedH
  0064d	83 c0 04	 add	 eax, 4
  00650	49		 dec	 ecx
  00651	75 f4		 jne	 SHORT $LL1458@AddRenderI
  00653	8b 4d e4	 mov	 ecx, DWORD PTR _szType$GSCopy$[ebp]
  00656	8d 75 e8	 lea	 esi, DWORD PTR __t$554840[ebp]
  00659	ff 15 00 00 00
	00		 call	 DWORD PTR __imp_?c_str@ioHashString@@QBEPBDXZ
$LL1906@AddRenderI:
  0065f	8a 08		 mov	 cl, BYTE PTR [eax]
  00661	3a 0e		 cmp	 cl, BYTE PTR [esi]
  00663	75 1a		 jne	 SHORT $LN1907@AddRenderI
  00665	3a cb		 cmp	 cl, bl
  00667	74 12		 je	 SHORT $LN1908@AddRenderI
  00669	8a 48 01	 mov	 cl, BYTE PTR [eax+1]
  0066c	3a 4e 01	 cmp	 cl, BYTE PTR [esi+1]
  0066f	75 0e		 jne	 SHORT $LN1907@AddRenderI
  00671	83 c0 02	 add	 eax, 2
  00674	83 c6 02	 add	 esi, 2
  00677	3a cb		 cmp	 cl, bl
  00679	75 e4		 jne	 SHORT $LL1906@AddRenderI
$LN1908@AddRenderI:
  0067b	33 c0		 xor	 eax, eax
  0067d	eb 05		 jmp	 SHORT $LN1909@AddRenderI
$LN1907@AddRenderI:
  0067f	1b c0		 sbb	 eax, eax
  00681	83 d8 ff	 sbb	 eax, -1
$LN1909@AddRenderI:
  00684	3b c3		 cmp	 eax, ebx
  00686	75 28		 jne	 SHORT $LN1855@AddRenderI

; 405  : 	{
; 406  : 		SAFEDELETE( m_pInfoLoading[4] );

  00688	8b 75 e0	 mov	 esi, DWORD PTR _this$GSCopy$[ebp]
  0068b	8b 8e dc 01 00
	00		 mov	 ecx, DWORD PTR [esi+476]
  00691	3b cb		 cmp	 ecx, ebx
  00693	74 0d		 je	 SHORT $LN11@AddRenderI
  00695	8b 01		 mov	 eax, DWORD PTR [ecx]
  00697	6a 01		 push	 1
  00699	ff 50 40	 call	 DWORD PTR [eax+64]
  0069c	89 9e dc 01 00
	00		 mov	 DWORD PTR [esi+476], ebx
$LN11@AddRenderI:

; 407  : 		m_pInfoLoading[4] = pImage;

  006a2	8b 45 dc	 mov	 eax, DWORD PTR _pImage$GSCopy$[ebp]
  006a5	89 86 dc 01 00
	00		 mov	 DWORD PTR [esi+476], eax
  006ab	e9 9e 01 00 00	 jmp	 $LN1@AddRenderI
$LN1855@AddRenderI:

; 408  : 	}
; 409  : 	else if( szType == "InfoLoading6" )

  006b0	c7 45 e8 a4 82
	8d 85		 mov	 DWORD PTR __t$554965[ebp], -2054323548 ; 858d82a4H
  006b7	c7 45 ec a1 83
	8a 8e		 mov	 DWORD PTR __t$554965[ebp+4], -1903524959 ; 8e8a83a1H
  006be	c7 45 f0 84 82
	8c dc		 mov	 DWORD PTR __t$554965[ebp+8], -594771324 ; dc8c8284H
  006c5	8d 45 e8	 lea	 eax, DWORD PTR __t$554965[ebp]
  006c8	88 5d f4	 mov	 BYTE PTR __t$554965[ebp+12], bl
  006cb	8b cf		 mov	 ecx, edi
$LL1564@AddRenderI:
  006cd	81 30 ed ec eb
	ea		 xor	 DWORD PTR [eax], -353637139 ; eaebecedH
  006d3	83 c0 04	 add	 eax, 4
  006d6	49		 dec	 ecx
  006d7	75 f4		 jne	 SHORT $LL1564@AddRenderI
  006d9	8b 4d e4	 mov	 ecx, DWORD PTR _szType$GSCopy$[ebp]
  006dc	8d 75 e8	 lea	 esi, DWORD PTR __t$554965[ebp]
  006df	ff 15 00 00 00
	00		 call	 DWORD PTR __imp_?c_str@ioHashString@@QBEPBDXZ
$LL1910@AddRenderI:
  006e5	8a 08		 mov	 cl, BYTE PTR [eax]
  006e7	3a 0e		 cmp	 cl, BYTE PTR [esi]
  006e9	75 1a		 jne	 SHORT $LN1911@AddRenderI
  006eb	3a cb		 cmp	 cl, bl
  006ed	74 12		 je	 SHORT $LN1912@AddRenderI
  006ef	8a 48 01	 mov	 cl, BYTE PTR [eax+1]
  006f2	3a 4e 01	 cmp	 cl, BYTE PTR [esi+1]
  006f5	75 0e		 jne	 SHORT $LN1911@AddRenderI
  006f7	83 c0 02	 add	 eax, 2
  006fa	83 c6 02	 add	 esi, 2
  006fd	3a cb		 cmp	 cl, bl
  006ff	75 e4		 jne	 SHORT $LL1910@AddRenderI
$LN1912@AddRenderI:
  00701	33 c0		 xor	 eax, eax
  00703	eb 05		 jmp	 SHORT $LN1913@AddRenderI
$LN1911@AddRenderI:
  00705	1b c0		 sbb	 eax, eax
  00707	83 d8 ff	 sbb	 eax, -1
$LN1913@AddRenderI:
  0070a	3b c3		 cmp	 eax, ebx
  0070c	75 28		 jne	 SHORT $LN1856@AddRenderI

; 410  : 	{
; 411  : 		SAFEDELETE( m_pInfoLoading[5] );

  0070e	8b 75 e0	 mov	 esi, DWORD PTR _this$GSCopy$[ebp]
  00711	8b 8e e0 01 00
	00		 mov	 ecx, DWORD PTR [esi+480]
  00717	3b cb		 cmp	 ecx, ebx
  00719	74 0d		 je	 SHORT $LN8@AddRenderI
  0071b	8b 01		 mov	 eax, DWORD PTR [ecx]
  0071d	6a 01		 push	 1
  0071f	ff 50 40	 call	 DWORD PTR [eax+64]
  00722	89 9e e0 01 00
	00		 mov	 DWORD PTR [esi+480], ebx
$LN8@AddRenderI:

; 412  : 		m_pInfoLoading[5] = pImage;

  00728	8b 45 dc	 mov	 eax, DWORD PTR _pImage$GSCopy$[ebp]
  0072b	89 86 e0 01 00
	00		 mov	 DWORD PTR [esi+480], eax
  00731	e9 18 01 00 00	 jmp	 $LN1@AddRenderI
$LN1856@AddRenderI:

; 413  : 	}
; 414  : 	else if( szType == "InfoLoading7" )

  00736	c7 45 e8 a4 82
	8d 85		 mov	 DWORD PTR __t$555103[ebp], -2054323548 ; 858d82a4H
  0073d	c7 45 ec a1 83
	8a 8e		 mov	 DWORD PTR __t$555103[ebp+4], -1903524959 ; 8e8a83a1H
  00744	c7 45 f0 84 82
	8c dd		 mov	 DWORD PTR __t$555103[ebp+8], -577994108 ; dd8c8284H
  0074b	8d 45 e8	 lea	 eax, DWORD PTR __t$555103[ebp]
  0074e	88 5d f4	 mov	 BYTE PTR __t$555103[ebp+12], bl
  00751	8b cf		 mov	 ecx, edi
$LL1670@AddRenderI:
  00753	81 30 ed ec eb
	ea		 xor	 DWORD PTR [eax], -353637139 ; eaebecedH
  00759	83 c0 04	 add	 eax, 4
  0075c	49		 dec	 ecx
  0075d	75 f4		 jne	 SHORT $LL1670@AddRenderI
  0075f	8b 4d e4	 mov	 ecx, DWORD PTR _szType$GSCopy$[ebp]
  00762	8d 75 e8	 lea	 esi, DWORD PTR __t$555103[ebp]
  00765	ff 15 00 00 00
	00		 call	 DWORD PTR __imp_?c_str@ioHashString@@QBEPBDXZ
$LL1914@AddRenderI:
  0076b	8a 08		 mov	 cl, BYTE PTR [eax]
  0076d	3a 0e		 cmp	 cl, BYTE PTR [esi]
  0076f	75 1a		 jne	 SHORT $LN1915@AddRenderI
  00771	3a cb		 cmp	 cl, bl
  00773	74 12		 je	 SHORT $LN1916@AddRenderI
  00775	8a 48 01	 mov	 cl, BYTE PTR [eax+1]
  00778	3a 4e 01	 cmp	 cl, BYTE PTR [esi+1]
  0077b	75 0e		 jne	 SHORT $LN1915@AddRenderI
  0077d	83 c0 02	 add	 eax, 2
  00780	83 c6 02	 add	 esi, 2
  00783	3a cb		 cmp	 cl, bl
  00785	75 e4		 jne	 SHORT $LL1914@AddRenderI
$LN1916@AddRenderI:
  00787	33 c0		 xor	 eax, eax
  00789	eb 05		 jmp	 SHORT $LN1917@AddRenderI
$LN1915@AddRenderI:
  0078b	1b c0		 sbb	 eax, eax
  0078d	83 d8 ff	 sbb	 eax, -1
$LN1917@AddRenderI:
  00790	3b c3		 cmp	 eax, ebx
  00792	75 28		 jne	 SHORT $LN1857@AddRenderI

; 415  : 	{
; 416  : 		SAFEDELETE( m_pInfoLoading[6] );

  00794	8b 75 e0	 mov	 esi, DWORD PTR _this$GSCopy$[ebp]
  00797	8b 8e e4 01 00
	00		 mov	 ecx, DWORD PTR [esi+484]
  0079d	3b cb		 cmp	 ecx, ebx
  0079f	74 0d		 je	 SHORT $LN5@AddRenderI
  007a1	8b 01		 mov	 eax, DWORD PTR [ecx]
  007a3	6a 01		 push	 1
  007a5	ff 50 40	 call	 DWORD PTR [eax+64]
  007a8	89 9e e4 01 00
	00		 mov	 DWORD PTR [esi+484], ebx
$LN5@AddRenderI:

; 417  : 		m_pInfoLoading[6] = pImage;

  007ae	8b 45 dc	 mov	 eax, DWORD PTR _pImage$GSCopy$[ebp]
  007b1	89 86 e4 01 00
	00		 mov	 DWORD PTR [esi+484], eax
  007b7	e9 92 00 00 00	 jmp	 $LN1@AddRenderI
$LN1857@AddRenderI:

; 418  : 	}
; 419  : 	else if( szType == "InfoLoading8" )

  007bc	c7 45 e8 a4 82
	8d 85		 mov	 DWORD PTR __t$555215[ebp], -2054323548 ; 858d82a4H
  007c3	c7 45 ec a1 83
	8a 8e		 mov	 DWORD PTR __t$555215[ebp+4], -1903524959 ; 8e8a83a1H
  007ca	c7 45 f0 84 82
	8c d2		 mov	 DWORD PTR __t$555215[ebp+8], -762543484 ; d28c8284H
  007d1	8d 45 e8	 lea	 eax, DWORD PTR __t$555215[ebp]
  007d4	88 5d f4	 mov	 BYTE PTR __t$555215[ebp+12], bl
  007d7	8b cf		 mov	 ecx, edi
$LL1776@AddRenderI:
  007d9	81 30 ed ec eb
	ea		 xor	 DWORD PTR [eax], -353637139 ; eaebecedH
  007df	83 c0 04	 add	 eax, 4
  007e2	49		 dec	 ecx
  007e3	75 f4		 jne	 SHORT $LL1776@AddRenderI
  007e5	8b 4d e4	 mov	 ecx, DWORD PTR _szType$GSCopy$[ebp]
  007e8	8d 75 e8	 lea	 esi, DWORD PTR __t$555215[ebp]
  007eb	ff 15 00 00 00
	00		 call	 DWORD PTR __imp_?c_str@ioHashString@@QBEPBDXZ
$LL1918@AddRenderI:
  007f1	8a 08		 mov	 cl, BYTE PTR [eax]
  007f3	3a 0e		 cmp	 cl, BYTE PTR [esi]
  007f5	75 1a		 jne	 SHORT $LN1919@AddRenderI
  007f7	3a cb		 cmp	 cl, bl
  007f9	74 12		 je	 SHORT $LN1920@AddRenderI
  007fb	8a 48 01	 mov	 cl, BYTE PTR [eax+1]
  007fe	3a 4e 01	 cmp	 cl, BYTE PTR [esi+1]
  00801	75 0e		 jne	 SHORT $LN1919@AddRenderI
  00803	83 c0 02	 add	 eax, 2
  00806	83 c6 02	 add	 esi, 2
  00809	3a cb		 cmp	 cl, bl
  0080b	75 e4		 jne	 SHORT $LL1918@AddRenderI
$LN1920@AddRenderI:
  0080d	33 c0		 xor	 eax, eax
  0080f	eb 05		 jmp	 SHORT $LN1921@AddRenderI
$LN1919@AddRenderI:
  00811	1b c0		 sbb	 eax, eax
  00813	83 d8 ff	 sbb	 eax, -1
$LN1921@AddRenderI:
  00816	3b c3		 cmp	 eax, ebx
  00818	75 25		 jne	 SHORT $LN3@AddRenderI

; 420  : 	{
; 421  : 		SAFEDELETE( m_pInfoLoading[7] );

  0081a	8b 75 e0	 mov	 esi, DWORD PTR _this$GSCopy$[ebp]
  0081d	8b 8e e8 01 00
	00		 mov	 ecx, DWORD PTR [esi+488]
  00823	3b cb		 cmp	 ecx, ebx
  00825	74 0d		 je	 SHORT $LN2@AddRenderI
  00827	8b 01		 mov	 eax, DWORD PTR [ecx]
  00829	6a 01		 push	 1
  0082b	ff 50 40	 call	 DWORD PTR [eax+64]
  0082e	89 9e e8 01 00
	00		 mov	 DWORD PTR [esi+488], ebx
$LN2@AddRenderI:

; 422  : 		m_pInfoLoading[7] = pImage;

  00834	8b 45 dc	 mov	 eax, DWORD PTR _pImage$GSCopy$[ebp]
  00837	89 86 e8 01 00
	00		 mov	 DWORD PTR [esi+488], eax

; 423  : 	}
; 424  : 	else

  0083d	eb 0f		 jmp	 SHORT $LN1@AddRenderI
$LN3@AddRenderI:

; 425  : 		ioWnd::AddRenderImage( szType, pImage );

  0083f	ff 75 dc	 push	 DWORD PTR _pImage$GSCopy$[ebp]
  00842	8b 4d e0	 mov	 ecx, DWORD PTR _this$GSCopy$[ebp]
  00845	ff 75 e4	 push	 DWORD PTR _szType$GSCopy$[ebp]
  00848	ff 15 00 00 00
	00		 call	 DWORD PTR __imp_?AddRenderImage@ioWnd@@UAEXABVioHashString@@PAVioUIRenderImage@@@Z
$LN1@AddRenderI:

; 426  : }

  0084e	8b 4d fc	 mov	 ecx, DWORD PTR __$ArrayPad$[ebp]
  00851	5f		 pop	 edi
  00852	5e		 pop	 esi
  00853	33 cd		 xor	 ecx, ebp
  00855	5b		 pop	 ebx
  00856	e8 00 00 00 00	 call	 @__security_check_cookie@4
  0085b	c9		 leave
  0085c	c2 08 00	 ret	 8
?AddRenderImage@UserInfoToolTip@@UAEXABVioHashString@@PAVioUIRenderImage@@@Z ENDP ; UserInfoToolTip::AddRenderImage
_TEXT	ENDS
PUBLIC	_szType$GSCopy$
PUBLIC	_pFrame$GSCopy$
PUBLIC	_this$GSCopy$
PUBLIC	__$ArrayPad$
PUBLIC	?AddRenderFrame@UserInfoToolTip@@UAEXABVioHashString@@PAVioUIRenderFrame@@@Z ; UserInfoToolTip::AddRenderFrame
EXTRN	__imp_?AddRenderFrame@ioWnd@@UAEXABVioHashString@@PAVioUIRenderFrame@@@Z:PROC
; Function compile flags: /Ogsp
;	COMDAT ?AddRenderFrame@UserInfoToolTip@@UAEXABVioHashString@@PAVioUIRenderFrame@@@Z
_TEXT	SEGMENT
_szType$GSCopy$ = -40					; size = 4
_pFrame$GSCopy$ = -36					; size = 4
_this$GSCopy$ = -32					; size = 4
__t$555621 = -28					; size = 19
__t$555496 = -20					; size = 10
__$ArrayPad$ = -4					; size = 4
_szType$ = 8						; size = 4
_pFrame$ = 12						; size = 4
?AddRenderFrame@UserInfoToolTip@@UAEXABVioHashString@@PAVioUIRenderFrame@@@Z PROC ; UserInfoToolTip::AddRenderFrame, COMDAT
; _this$ = ecx

; 429  : {

  00000	55		 push	 ebp
  00001	8b ec		 mov	 ebp, esp
  00003	83 ec 28	 sub	 esp, 40			; 00000028H
  00006	a1 00 00 00 00	 mov	 eax, DWORD PTR ___security_cookie
  0000b	33 c5		 xor	 eax, ebp
  0000d	89 45 fc	 mov	 DWORD PTR __$ArrayPad$[ebp], eax
  00010	8b 45 0c	 mov	 eax, DWORD PTR _pFrame$[ebp]
  00013	8b 55 08	 mov	 edx, DWORD PTR _szType$[ebp]
  00016	56		 push	 esi
  00017	57		 push	 edi

; 430  : 	if( szType == "NoneTitle" )

  00018	6a 02		 push	 2
  0001a	89 4d e0	 mov	 DWORD PTR _this$GSCopy$[ebp], ecx

; 436  : 	{
; 437  : 		SAFEDELETE( m_pPowerUpNAwakeTitleFrm );

  0001d	89 45 dc	 mov	 DWORD PTR _pFrame$GSCopy$[ebp], eax
  00020	89 55 d8	 mov	 DWORD PTR _szType$GSCopy$[ebp], edx
  00023	c7 45 ec a3 83
	85 8f		 mov	 DWORD PTR __t$555496[ebp], -1887075421 ; 8f8583a3H
  0002a	c7 45 f0 b9 85
	9f 86		 mov	 DWORD PTR __t$555496[ebp+4], -2036365895 ; 869f85b9H
  00031	8d 45 ec	 lea	 eax, DWORD PTR __t$555496[ebp]
  00034	66 c7 45 f4 88
	00		 mov	 WORD PTR __t$555496[ebp+8], 136 ; 00000088H
  0003a	59		 pop	 ecx
  0003b	bf ed ec eb ea	 mov	 edi, -353637139		; eaebecedH
$LL116@AddRenderF:

; 430  : 	if( szType == "NoneTitle" )

  00040	31 38		 xor	 DWORD PTR [eax], edi
  00042	83 c0 04	 add	 eax, 4
  00045	49		 dec	 ecx
  00046	75 f8		 jne	 SHORT $LL116@AddRenderF
  00048	80 75 f4 ed	 xor	 BYTE PTR __t$555496[ebp+8], -19 ; ffffffedH
  0004c	8b ca		 mov	 ecx, edx
  0004e	8d 75 ec	 lea	 esi, DWORD PTR __t$555496[ebp]
  00051	ff 15 00 00 00
	00		 call	 DWORD PTR __imp_?c_str@ioHashString@@QBEPBDXZ
$LL234@AddRenderF:
  00057	8a 08		 mov	 cl, BYTE PTR [eax]
  00059	3a 0e		 cmp	 cl, BYTE PTR [esi]
  0005b	75 1a		 jne	 SHORT $LN235@AddRenderF
  0005d	84 c9		 test	 cl, cl
  0005f	74 12		 je	 SHORT $LN236@AddRenderF
  00061	8a 48 01	 mov	 cl, BYTE PTR [eax+1]
  00064	3a 4e 01	 cmp	 cl, BYTE PTR [esi+1]
  00067	75 0e		 jne	 SHORT $LN235@AddRenderF
  00069	83 c0 02	 add	 eax, 2
  0006c	83 c6 02	 add	 esi, 2
  0006f	84 c9		 test	 cl, cl
  00071	75 e4		 jne	 SHORT $LL234@AddRenderF
$LN236@AddRenderF:
  00073	33 c0		 xor	 eax, eax
  00075	eb 05		 jmp	 SHORT $LN237@AddRenderF
$LN235@AddRenderF:
  00077	1b c0		 sbb	 eax, eax
  00079	83 d8 ff	 sbb	 eax, -1
$LN237@AddRenderF:
  0007c	85 c0		 test	 eax, eax
  0007e	75 29		 jne	 SHORT $LN233@AddRenderF

; 431  : 	{
; 432  : 		SAFEDELETE( m_pNoneTitleFrm );

  00080	8b 75 e0	 mov	 esi, DWORD PTR _this$GSCopy$[ebp]
  00083	8b 8e fc 01 00
	00		 mov	 ecx, DWORD PTR [esi+508]
  00089	85 c9		 test	 ecx, ecx
  0008b	74 0e		 je	 SHORT $LN5@AddRenderF
  0008d	8b 01		 mov	 eax, DWORD PTR [ecx]
  0008f	6a 01		 push	 1
  00091	ff 50 40	 call	 DWORD PTR [eax+64]
  00094	83 a6 fc 01 00
	00 00		 and	 DWORD PTR [esi+508], 0
$LN5@AddRenderF:

; 433  : 		m_pNoneTitleFrm = pFrame;

  0009b	8b 45 dc	 mov	 eax, DWORD PTR _pFrame$GSCopy$[ebp]
  0009e	89 86 fc 01 00
	00		 mov	 DWORD PTR [esi+508], eax
  000a4	e9 be 00 00 00	 jmp	 $LN1@AddRenderF
$LN233@AddRenderF:

; 434  : 	}
; 435  : 	else if( szType == "PowerUpNAwakeTitle" )

  000a9	6a 04		 push	 4
  000ab	c7 45 e4 bd 83
	9c 8f		 mov	 DWORD PTR __t$555621[ebp], -1885568067 ; 8f9c83bdH
  000b2	c7 45 e8 9f b9
	9b a4		 mov	 DWORD PTR __t$555621[ebp+4], -1533298273 ; a49bb99fH
  000b9	c7 45 ec ac 9b
	8a 81		 mov	 DWORD PTR __t$555621[ebp+8], -2121622612 ; 818a9bacH
  000c0	c7 45 f0 88 b8
	82 9e		 mov	 DWORD PTR __t$555621[ebp+12], -1635600248 ; 9e82b888H
  000c7	66 c7 45 f4 81
	89		 mov	 WORD PTR __t$555621[ebp+16], 35201 ; 00008981H
  000cd	8d 45 e4	 lea	 eax, DWORD PTR __t$555621[ebp]
  000d0	c6 45 f6 00	 mov	 BYTE PTR __t$555621[ebp+18], 0
  000d4	59		 pop	 ecx
$LL222@AddRenderF:
  000d5	31 38		 xor	 DWORD PTR [eax], edi
  000d7	83 c0 04	 add	 eax, 4
  000da	49		 dec	 ecx
  000db	75 f8		 jne	 SHORT $LL222@AddRenderF
  000dd	6a 10		 push	 16			; 00000010H
  000df	58		 pop	 eax
$LL219@AddRenderF:
  000e0	8b c8		 mov	 ecx, eax
  000e2	81 e1 03 00 00
	80		 and	 ecx, -2147483645	; 80000003H
  000e8	79 05		 jns	 SHORT $LN242@AddRenderF
  000ea	49		 dec	 ecx
  000eb	83 c9 fc	 or	 ecx, -4			; fffffffcH
  000ee	41		 inc	 ecx
$LN242@AddRenderF:
  000ef	b2 ed		 mov	 dl, -19			; ffffffedH
  000f1	2a d1		 sub	 dl, cl
  000f3	30 54 05 e4	 xor	 BYTE PTR __t$555621[ebp+eax], dl
  000f7	40		 inc	 eax
  000f8	83 f8 12	 cmp	 eax, 18			; 00000012H
  000fb	7c e3		 jl	 SHORT $LL219@AddRenderF
  000fd	8b 4d d8	 mov	 ecx, DWORD PTR _szType$GSCopy$[ebp]
  00100	8d 75 e4	 lea	 esi, DWORD PTR __t$555621[ebp]
  00103	ff 15 00 00 00
	00		 call	 DWORD PTR __imp_?c_str@ioHashString@@QBEPBDXZ
$LL238@AddRenderF:
  00109	8a 08		 mov	 cl, BYTE PTR [eax]
  0010b	3a 0e		 cmp	 cl, BYTE PTR [esi]
  0010d	75 1a		 jne	 SHORT $LN239@AddRenderF
  0010f	84 c9		 test	 cl, cl
  00111	74 12		 je	 SHORT $LN240@AddRenderF
  00113	8a 48 01	 mov	 cl, BYTE PTR [eax+1]
  00116	3a 4e 01	 cmp	 cl, BYTE PTR [esi+1]
  00119	75 0e		 jne	 SHORT $LN239@AddRenderF
  0011b	83 c0 02	 add	 eax, 2
  0011e	83 c6 02	 add	 esi, 2
  00121	84 c9		 test	 cl, cl
  00123	75 e4		 jne	 SHORT $LL238@AddRenderF
$LN240@AddRenderF:
  00125	33 c0		 xor	 eax, eax
  00127	eb 05		 jmp	 SHORT $LN241@AddRenderF
$LN239@AddRenderF:
  00129	1b c0		 sbb	 eax, eax
  0012b	83 d8 ff	 sbb	 eax, -1
$LN241@AddRenderF:
  0012e	85 c0		 test	 eax, eax
  00130	75 26		 jne	 SHORT $LN3@AddRenderF

; 436  : 	{
; 437  : 		SAFEDELETE( m_pPowerUpNAwakeTitleFrm );

  00132	8b 75 e0	 mov	 esi, DWORD PTR _this$GSCopy$[ebp]
  00135	8b 8e 00 02 00
	00		 mov	 ecx, DWORD PTR [esi+512]
  0013b	85 c9		 test	 ecx, ecx
  0013d	74 0e		 je	 SHORT $LN2@AddRenderF
  0013f	8b 01		 mov	 eax, DWORD PTR [ecx]
  00141	6a 01		 push	 1
  00143	ff 50 40	 call	 DWORD PTR [eax+64]
  00146	83 a6 00 02 00
	00 00		 and	 DWORD PTR [esi+512], 0
$LN2@AddRenderF:

; 438  : 		m_pPowerUpNAwakeTitleFrm = pFrame;

  0014d	8b 45 dc	 mov	 eax, DWORD PTR _pFrame$GSCopy$[ebp]
  00150	89 86 00 02 00
	00		 mov	 DWORD PTR [esi+512], eax

; 439  : 	}
; 440  : 	else

  00156	eb 0f		 jmp	 SHORT $LN1@AddRenderF
$LN3@AddRenderF:

; 441  : 		ioWnd::AddRenderFrame( szType, pFrame );

  00158	ff 75 dc	 push	 DWORD PTR _pFrame$GSCopy$[ebp]
  0015b	8b 4d e0	 mov	 ecx, DWORD PTR _this$GSCopy$[ebp]
  0015e	ff 75 d8	 push	 DWORD PTR _szType$GSCopy$[ebp]
  00161	ff 15 00 00 00
	00		 call	 DWORD PTR __imp_?AddRenderFrame@ioWnd@@UAEXABVioHashString@@PAVioUIRenderFrame@@@Z
$LN1@AddRenderF:

; 442  : }

  00167	8b 4d fc	 mov	 ecx, DWORD PTR __$ArrayPad$[ebp]
  0016a	5f		 pop	 edi
  0016b	33 cd		 xor	 ecx, ebp
  0016d	5e		 pop	 esi
  0016e	e8 00 00 00 00	 call	 @__security_check_cookie@4
  00173	c9		 leave
  00174	c2 08 00	 ret	 8
?AddRenderFrame@UserInfoToolTip@@UAEXABVioHashString@@PAVioUIRenderFrame@@@Z ENDP ; UserInfoToolTip::AddRenderFrame
_TEXT	ENDS
PUBLIC	??0?$vector@UExpandMedalSlot@ioExpandMedalSlotManager@@V?$allocator@UExpandMedalSlot@ioExpandMedalSlotManager@@@std@@@std@@QAE@XZ ; std::vector<ioExpandMedalSlotManager::ExpandMedalSlot,std::allocator<ioExpandMedalSlotManager::ExpandMedalSlot> >::vector<ioExpandMedalSlotManager::ExpandMedalSlot,std::allocator<ioExpandMedalSlotManager::ExpandMedalSlot> >
; Function compile flags: /Ogsp
; File c:\program files (x86)\microsoft visual studio 10.0\vc\include\vector
;	COMDAT ??0?$vector@UExpandMedalSlot@ioExpandMedalSlotManager@@V?$allocator@UExpandMedalSlot@ioExpandMedalSlotManager@@@std@@@std@@QAE@XZ
_TEXT	SEGMENT
??0?$vector@UExpandMedalSlot@ioExpandMedalSlotManager@@V?$allocator@UExpandMedalSlot@ioExpandMedalSlotManager@@@std@@@std@@QAE@XZ PROC ; std::vector<ioExpandMedalSlotManager::ExpandMedalSlot,std::allocator<ioExpandMedalSlotManager::ExpandMedalSlot> >::vector<ioExpandMedalSlotManager::ExpandMedalSlot,std::allocator<ioExpandMedalSlotManager::ExpandMedalSlot> >, COMDAT
; _this$ = ecx

; 507  : 		{	// construct empty vector

  00000	8b c1		 mov	 eax, ecx
  00002	33 c9		 xor	 ecx, ecx
  00004	89 08		 mov	 DWORD PTR [eax], ecx
  00006	89 48 04	 mov	 DWORD PTR [eax+4], ecx
  00009	89 48 08	 mov	 DWORD PTR [eax+8], ecx

; 508  : 		}

  0000c	c3		 ret	 0
??0?$vector@UExpandMedalSlot@ioExpandMedalSlotManager@@V?$allocator@UExpandMedalSlot@ioExpandMedalSlotManager@@@std@@@std@@QAE@XZ ENDP ; std::vector<ioExpandMedalSlotManager::ExpandMedalSlot,std::allocator<ioExpandMedalSlotManager::ExpandMedalSlot> >::vector<ioExpandMedalSlotManager::ExpandMedalSlot,std::allocator<ioExpandMedalSlotManager::ExpandMedalSlot> >
_TEXT	ENDS
PUBLIC	??0?$vector@PAUUserInfo@UserInfoToolTip@@V?$allocator@PAUUserInfo@UserInfoToolTip@@@std@@@std@@QAE@XZ ; std::vector<UserInfoToolTip::UserInfo *,std::allocator<UserInfoToolTip::UserInfo *> >::vector<UserInfoToolTip::UserInfo *,std::allocator<UserInfoToolTip::UserInfo *> >
; Function compile flags: /Ogsp
;	COMDAT ??0?$vector@PAUUserInfo@UserInfoToolTip@@V?$allocator@PAUUserInfo@UserInfoToolTip@@@std@@@std@@QAE@XZ
_TEXT	SEGMENT
??0?$vector@PAUUserInfo@UserInfoToolTip@@V?$allocator@PAUUserInfo@UserInfoToolTip@@@std@@@std@@QAE@XZ PROC ; std::vector<UserInfoToolTip::UserInfo *,std::allocator<UserInfoToolTip::UserInfo *> >::vector<UserInfoToolTip::UserInfo *,std::allocator<UserInfoToolTip::UserInfo *> >, COMDAT
; _this$ = ecx

; 507  : 		{	// construct empty vector

  00000	8b c1		 mov	 eax, ecx
  00002	33 c9		 xor	 ecx, ecx
  00004	89 08		 mov	 DWORD PTR [eax], ecx
  00006	89 48 04	 mov	 DWORD PTR [eax+4], ecx
  00009	89 48 08	 mov	 DWORD PTR [eax+8], ecx

; 508  : 		}

  0000c	c3		 ret	 0
??0?$vector@PAUUserInfo@UserInfoToolTip@@V?$allocator@PAUUserInfo@UserInfoToolTip@@@std@@@std@@QAE@XZ ENDP ; std::vector<UserInfoToolTip::UserInfo *,std::allocator<UserInfoToolTip::UserInfo *> >::vector<UserInfoToolTip::UserInfo *,std::allocator<UserInfoToolTip::UserInfo *> >
_TEXT	ENDS
PUBLIC	?begin@?$vector@PAUUserInfo@UserInfoToolTip@@V?$allocator@PAUUserInfo@UserInfoToolTip@@@std@@@std@@QAE?AV?$_Vector_iterator@V?$_Vector_val@PAUUserInfo@UserInfoToolTip@@V?$allocator@PAUUserInfo@UserInfoToolTip@@@std@@@std@@@2@XZ ; std::vector<UserInfoToolTip::UserInfo *,std::allocator<UserInfoToolTip::UserInfo *> >::begin
; Function compile flags: /Ogsp
;	COMDAT ?begin@?$vector@PAUUserInfo@UserInfoToolTip@@V?$allocator@PAUUserInfo@UserInfoToolTip@@@std@@@std@@QAE?AV?$_Vector_iterator@V?$_Vector_val@PAUUserInfo@UserInfoToolTip@@V?$allocator@PAUUserInfo@UserInfoToolTip@@@std@@@std@@@2@XZ
_TEXT	SEGMENT
___$ReturnUdt$ = 8					; size = 4
?begin@?$vector@PAUUserInfo@UserInfoToolTip@@V?$allocator@PAUUserInfo@UserInfoToolTip@@@std@@@std@@QAE?AV?$_Vector_iterator@V?$_Vector_val@PAUUserInfo@UserInfoToolTip@@V?$allocator@PAUUserInfo@UserInfoToolTip@@@std@@@std@@@2@XZ PROC ; std::vector<UserInfoToolTip::UserInfo *,std::allocator<UserInfoToolTip::UserInfo *> >::begin, COMDAT
; _this$ = ecx

; 781  : 		{	// return iterator for beginning of mutable sequence

  00000	55		 push	 ebp
  00001	8b ec		 mov	 ebp, esp

; 782  : 		return (iterator(this->_Myfirst, this));

  00003	8b 09		 mov	 ecx, DWORD PTR [ecx]
  00005	8b 45 08	 mov	 eax, DWORD PTR ___$ReturnUdt$[ebp]
  00008	89 08		 mov	 DWORD PTR [eax], ecx

; 783  : 		}

  0000a	5d		 pop	 ebp
  0000b	c2 04 00	 ret	 4
?begin@?$vector@PAUUserInfo@UserInfoToolTip@@V?$allocator@PAUUserInfo@UserInfoToolTip@@@std@@@std@@QAE?AV?$_Vector_iterator@V?$_Vector_val@PAUUserInfo@UserInfoToolTip@@V?$allocator@PAUUserInfo@UserInfoToolTip@@@std@@@std@@@2@XZ ENDP ; std::vector<UserInfoToolTip::UserInfo *,std::allocator<UserInfoToolTip::UserInfo *> >::begin
_TEXT	ENDS
PUBLIC	?end@?$vector@PAUUserInfo@UserInfoToolTip@@V?$allocator@PAUUserInfo@UserInfoToolTip@@@std@@@std@@QAE?AV?$_Vector_iterator@V?$_Vector_val@PAUUserInfo@UserInfoToolTip@@V?$allocator@PAUUserInfo@UserInfoToolTip@@@std@@@std@@@2@XZ ; std::vector<UserInfoToolTip::UserInfo *,std::allocator<UserInfoToolTip::UserInfo *> >::end
; Function compile flags: /Ogsp
;	COMDAT ?end@?$vector@PAUUserInfo@UserInfoToolTip@@V?$allocator@PAUUserInfo@UserInfoToolTip@@@std@@@std@@QAE?AV?$_Vector_iterator@V?$_Vector_val@PAUUserInfo@UserInfoToolTip@@V?$allocator@PAUUserInfo@UserInfoToolTip@@@std@@@std@@@2@XZ
_TEXT	SEGMENT
___$ReturnUdt$ = 8					; size = 4
?end@?$vector@PAUUserInfo@UserInfoToolTip@@V?$allocator@PAUUserInfo@UserInfoToolTip@@@std@@@std@@QAE?AV?$_Vector_iterator@V?$_Vector_val@PAUUserInfo@UserInfoToolTip@@V?$allocator@PAUUserInfo@UserInfoToolTip@@@std@@@std@@@2@XZ PROC ; std::vector<UserInfoToolTip::UserInfo *,std::allocator<UserInfoToolTip::UserInfo *> >::end, COMDAT
; _this$ = ecx

; 791  : 		{	// return iterator for end of mutable sequence

  00000	55		 push	 ebp
  00001	8b ec		 mov	 ebp, esp

; 792  : 		return (iterator(this->_Mylast, this));

  00003	8b 49 04	 mov	 ecx, DWORD PTR [ecx+4]
  00006	8b 45 08	 mov	 eax, DWORD PTR ___$ReturnUdt$[ebp]
  00009	89 08		 mov	 DWORD PTR [eax], ecx

; 793  : 		}

  0000b	5d		 pop	 ebp
  0000c	c2 04 00	 ret	 4
?end@?$vector@PAUUserInfo@UserInfoToolTip@@V?$allocator@PAUUserInfo@UserInfoToolTip@@@std@@@std@@QAE?AV?$_Vector_iterator@V?$_Vector_val@PAUUserInfo@UserInfoToolTip@@V?$allocator@PAUUserInfo@UserInfoToolTip@@@std@@@std@@@2@XZ ENDP ; std::vector<UserInfoToolTip::UserInfo *,std::allocator<UserInfoToolTip::UserInfo *> >::end
_TEXT	ENDS
PUBLIC	??9?$_Vector_const_iterator@V?$_Vector_val@PAUUserInfo@UserInfoToolTip@@V?$allocator@PAUUserInfo@UserInfoToolTip@@@std@@@std@@@std@@QBE_NABV01@@Z ; std::_Vector_const_iterator<std::_Vector_val<UserInfoToolTip::UserInfo *,std::allocator<UserInfoToolTip::UserInfo *> > >::operator!=
; Function compile flags: /Ogsp
;	COMDAT ??9?$_Vector_const_iterator@V?$_Vector_val@PAUUserInfo@UserInfoToolTip@@V?$allocator@PAUUserInfo@UserInfoToolTip@@@std@@@std@@@std@@QBE_NABV01@@Z
_TEXT	SEGMENT
__Right$ = 8						; size = 4
??9?$_Vector_const_iterator@V?$_Vector_val@PAUUserInfo@UserInfoToolTip@@V?$allocator@PAUUserInfo@UserInfoToolTip@@@std@@@std@@@std@@QBE_NABV01@@Z PROC ; std::_Vector_const_iterator<std::_Vector_val<UserInfoToolTip::UserInfo *,std::allocator<UserInfoToolTip::UserInfo *> > >::operator!=, COMDAT
; _this$ = ecx

; 207  : 		{	// test for iterator inequality

  00000	55		 push	 ebp
  00001	8b ec		 mov	 ebp, esp

; 208  : 		return (!(*this == _Right));

  00003	8b 01		 mov	 eax, DWORD PTR [ecx]
  00005	8b 55 08	 mov	 edx, DWORD PTR __Right$[ebp]
  00008	33 c9		 xor	 ecx, ecx
  0000a	3b 02		 cmp	 eax, DWORD PTR [edx]
  0000c	0f 95 c0	 setne	 al

; 209  : 		}

  0000f	5d		 pop	 ebp
  00010	c2 04 00	 ret	 4
??9?$_Vector_const_iterator@V?$_Vector_val@PAUUserInfo@UserInfoToolTip@@V?$allocator@PAUUserInfo@UserInfoToolTip@@@std@@@std@@@std@@QBE_NABV01@@Z ENDP ; std::_Vector_const_iterator<std::_Vector_val<UserInfoToolTip::UserInfo *,std::allocator<UserInfoToolTip::UserInfo *> > >::operator!=
_TEXT	ENDS
PUBLIC	?_Buy@?$vector@HV?$allocator@H@std@@@std@@IAE_NI@Z ; std::vector<int,std::allocator<int> >::_Buy
; Function compile flags: /Ogsp
;	COMDAT ?_Buy@?$vector@HV?$allocator@H@std@@@std@@IAE_NI@Z
_TEXT	SEGMENT
__Capacity$ = 8						; size = 4
?_Buy@?$vector@HV?$allocator@H@std@@@std@@IAE_NI@Z PROC	; std::vector<int,std::allocator<int> >::_Buy, COMDAT
; _this$ = ecx

; 1250 : 		{	// allocate array with _Capacity elements

  00000	55		 push	 ebp
  00001	8b ec		 mov	 ebp, esp
  00003	56		 push	 esi

; 1251 : 		this->_Myfirst = 0;

  00004	33 c0		 xor	 eax, eax
  00006	57		 push	 edi

; 1252 : 		this->_Mylast = 0;
; 1253 : 		this->_Myend = 0;
; 1254 : 
; 1255 : 		if (_Capacity == 0)

  00007	8b 7d 08	 mov	 edi, DWORD PTR __Capacity$[ebp]
  0000a	8b f1		 mov	 esi, ecx
  0000c	89 06		 mov	 DWORD PTR [esi], eax
  0000e	89 46 04	 mov	 DWORD PTR [esi+4], eax
  00011	89 46 08	 mov	 DWORD PTR [esi+8], eax
  00014	3b f8		 cmp	 edi, eax
  00016	75 04		 jne	 SHORT $LN4@Buy

; 1256 : 			return (false);

  00018	32 c0		 xor	 al, al
  0001a	eb 29		 jmp	 SHORT $LN5@Buy
$LN4@Buy:

; 1257 : 		else if (max_size() < _Capacity)

  0001c	81 ff ff ff ff
	3f		 cmp	 edi, 1073741823		; 3fffffffH
  00022	76 0b		 jbe	 SHORT $LN2@Buy

; 1258 : 			_Xlen();	// result too long

  00024	68 00 00 00 00	 push	 OFFSET ??_C@_0BD@OLBABOEK@vector?$DMT?$DO?5too?5long?$AA@
  00029	ff 15 00 00 00
	00		 call	 DWORD PTR __imp_?_Xlength_error@std@@YAXPBD@Z
$LN19@Buy:
$LN2@Buy:

; 1259 : 		else
; 1260 : 			{	// nonempty array, allocate storage
; 1261 : 			this->_Myfirst = this->_Alval.allocate(_Capacity);

  0002f	50		 push	 eax
  00030	57		 push	 edi
  00031	e8 00 00 00 00	 call	 ??$_Allocate@H@std@@YAPAHIPAH@Z ; std::_Allocate<int>
  00036	89 06		 mov	 DWORD PTR [esi], eax

; 1262 : 			this->_Mylast = this->_Myfirst;

  00038	89 46 04	 mov	 DWORD PTR [esi+4], eax

; 1263 : 			this->_Myend = this->_Myfirst + _Capacity;

  0003b	8d 04 b8	 lea	 eax, DWORD PTR [eax+edi*4]
  0003e	59		 pop	 ecx
  0003f	89 46 08	 mov	 DWORD PTR [esi+8], eax
  00042	59		 pop	 ecx

; 1264 : 			}
; 1265 : 		return (true);

  00043	b0 01		 mov	 al, 1
$LN5@Buy:
  00045	5f		 pop	 edi
  00046	5e		 pop	 esi

; 1266 : 		}

  00047	5d		 pop	 ebp
  00048	c2 04 00	 ret	 4
$LN18@Buy:
?_Buy@?$vector@HV?$allocator@H@std@@@std@@IAE_NI@Z ENDP	; std::vector<int,std::allocator<int> >::_Buy
_TEXT	ENDS
PUBLIC	?_Buy@?$vector@KV?$allocator@K@std@@@std@@IAE_NI@Z ; std::vector<unsigned long,std::allocator<unsigned long> >::_Buy
; Function compile flags: /Ogsp
;	COMDAT ?_Buy@?$vector@KV?$allocator@K@std@@@std@@IAE_NI@Z
_TEXT	SEGMENT
__Capacity$ = 8						; size = 4
?_Buy@?$vector@KV?$allocator@K@std@@@std@@IAE_NI@Z PROC	; std::vector<unsigned long,std::allocator<unsigned long> >::_Buy, COMDAT
; _this$ = ecx

; 1250 : 		{	// allocate array with _Capacity elements

  00000	55		 push	 ebp
  00001	8b ec		 mov	 ebp, esp
  00003	56		 push	 esi

; 1251 : 		this->_Myfirst = 0;

  00004	33 c0		 xor	 eax, eax
  00006	57		 push	 edi

; 1252 : 		this->_Mylast = 0;
; 1253 : 		this->_Myend = 0;
; 1254 : 
; 1255 : 		if (_Capacity == 0)

  00007	8b 7d 08	 mov	 edi, DWORD PTR __Capacity$[ebp]
  0000a	8b f1		 mov	 esi, ecx
  0000c	89 06		 mov	 DWORD PTR [esi], eax
  0000e	89 46 04	 mov	 DWORD PTR [esi+4], eax
  00011	89 46 08	 mov	 DWORD PTR [esi+8], eax
  00014	3b f8		 cmp	 edi, eax
  00016	75 04		 jne	 SHORT $LN4@Buy@2

; 1256 : 			return (false);

  00018	32 c0		 xor	 al, al
  0001a	eb 29		 jmp	 SHORT $LN5@Buy@2
$LN4@Buy@2:

; 1257 : 		else if (max_size() < _Capacity)

  0001c	81 ff ff ff ff
	3f		 cmp	 edi, 1073741823		; 3fffffffH
  00022	76 0b		 jbe	 SHORT $LN2@Buy@2

; 1258 : 			_Xlen();	// result too long

  00024	68 00 00 00 00	 push	 OFFSET ??_C@_0BD@OLBABOEK@vector?$DMT?$DO?5too?5long?$AA@
  00029	ff 15 00 00 00
	00		 call	 DWORD PTR __imp_?_Xlength_error@std@@YAXPBD@Z
$LN19@Buy@2:
$LN2@Buy@2:

; 1259 : 		else
; 1260 : 			{	// nonempty array, allocate storage
; 1261 : 			this->_Myfirst = this->_Alval.allocate(_Capacity);

  0002f	50		 push	 eax
  00030	57		 push	 edi
  00031	e8 00 00 00 00	 call	 ??$_Allocate@K@std@@YAPAKIPAK@Z ; std::_Allocate<unsigned long>
  00036	89 06		 mov	 DWORD PTR [esi], eax

; 1262 : 			this->_Mylast = this->_Myfirst;

  00038	89 46 04	 mov	 DWORD PTR [esi+4], eax

; 1263 : 			this->_Myend = this->_Myfirst + _Capacity;

  0003b	8d 04 b8	 lea	 eax, DWORD PTR [eax+edi*4]
  0003e	59		 pop	 ecx
  0003f	89 46 08	 mov	 DWORD PTR [esi+8], eax
  00042	59		 pop	 ecx

; 1264 : 			}
; 1265 : 		return (true);

  00043	b0 01		 mov	 al, 1
$LN5@Buy@2:
  00045	5f		 pop	 edi
  00046	5e		 pop	 esi

; 1266 : 		}

  00047	5d		 pop	 ebp
  00048	c2 04 00	 ret	 4
$LN18@Buy@2:
?_Buy@?$vector@KV?$allocator@K@std@@@std@@IAE_NI@Z ENDP	; std::vector<unsigned long,std::allocator<unsigned long> >::_Buy
_TEXT	ENDS
PUBLIC	?_Make_iter@?$vector@PAUUserInfo@UserInfoToolTip@@V?$allocator@PAUUserInfo@UserInfoToolTip@@@std@@@std@@QBE?AV?$_Vector_iterator@V?$_Vector_val@PAUUserInfo@UserInfoToolTip@@V?$allocator@PAUUserInfo@UserInfoToolTip@@@std@@@std@@@2@V?$_Vector_const_iterator@V?$_Vector_val@PAUUserInfo@UserInfoToolTip@@V?$allocator@PAUUserInfo@UserInfoToolTip@@@std@@@std@@@2@@Z ; std::vector<UserInfoToolTip::UserInfo *,std::allocator<UserInfoToolTip::UserInfo *> >::_Make_iter
; Function compile flags: /Ogsp
;	COMDAT ?_Make_iter@?$vector@PAUUserInfo@UserInfoToolTip@@V?$allocator@PAUUserInfo@UserInfoToolTip@@@std@@@std@@QBE?AV?$_Vector_iterator@V?$_Vector_val@PAUUserInfo@UserInfoToolTip@@V?$allocator@PAUUserInfo@UserInfoToolTip@@@std@@@std@@@2@V?$_Vector_const_iterator@V?$_Vector_val@PAUUserInfo@UserInfoToolTip@@V?$allocator@PAUUserInfo@UserInfoToolTip@@@std@@@std@@@2@@Z
_TEXT	SEGMENT
___$ReturnUdt$ = 8					; size = 4
__Where$ = 12						; size = 4
?_Make_iter@?$vector@PAUUserInfo@UserInfoToolTip@@V?$allocator@PAUUserInfo@UserInfoToolTip@@@std@@@std@@QBE?AV?$_Vector_iterator@V?$_Vector_val@PAUUserInfo@UserInfoToolTip@@V?$allocator@PAUUserInfo@UserInfoToolTip@@@std@@@std@@@2@V?$_Vector_const_iterator@V?$_Vector_val@PAUUserInfo@UserInfoToolTip@@V?$allocator@PAUUserInfo@UserInfoToolTip@@@std@@@std@@@2@@Z PROC ; std::vector<UserInfoToolTip::UserInfo *,std::allocator<UserInfoToolTip::UserInfo *> >::_Make_iter, COMDAT
; _this$ = ecx

; 801  : 		{	// make iterator from const_iterator

  00000	55		 push	 ebp
  00001	8b ec		 mov	 ebp, esp

; 802  : 		return (iterator(_Where._Ptr, this));

  00003	8b 45 08	 mov	 eax, DWORD PTR ___$ReturnUdt$[ebp]
  00006	8b 4d 0c	 mov	 ecx, DWORD PTR __Where$[ebp]
  00009	89 08		 mov	 DWORD PTR [eax], ecx

; 803  : 		}

  0000b	5d		 pop	 ebp
  0000c	c2 08 00	 ret	 8
?_Make_iter@?$vector@PAUUserInfo@UserInfoToolTip@@V?$allocator@PAUUserInfo@UserInfoToolTip@@@std@@@std@@QBE?AV?$_Vector_iterator@V?$_Vector_val@PAUUserInfo@UserInfoToolTip@@V?$allocator@PAUUserInfo@UserInfoToolTip@@@std@@@std@@@2@V?$_Vector_const_iterator@V?$_Vector_val@PAUUserInfo@UserInfoToolTip@@V?$allocator@PAUUserInfo@UserInfoToolTip@@@std@@@std@@@2@@Z ENDP ; std::vector<UserInfoToolTip::UserInfo *,std::allocator<UserInfoToolTip::UserInfo *> >::_Make_iter
_TEXT	ENDS
PUBLIC	?_Destroy@?$vector@PAUUserInfo@UserInfoToolTip@@V?$allocator@PAUUserInfo@UserInfoToolTip@@@std@@@std@@IAEXPAPAUUserInfo@UserInfoToolTip@@0@Z ; std::vector<UserInfoToolTip::UserInfo *,std::allocator<UserInfoToolTip::UserInfo *> >::_Destroy
; Function compile flags: /Ogsp
;	COMDAT ?_Destroy@?$vector@PAUUserInfo@UserInfoToolTip@@V?$allocator@PAUUserInfo@UserInfoToolTip@@@std@@@std@@IAEXPAPAUUserInfo@UserInfoToolTip@@0@Z
_TEXT	SEGMENT
__First$ = 8						; size = 4
__Last$ = 12						; size = 4
?_Destroy@?$vector@PAUUserInfo@UserInfoToolTip@@V?$allocator@PAUUserInfo@UserInfoToolTip@@@std@@@std@@IAEXPAPAUUserInfo@UserInfoToolTip@@0@Z PROC ; std::vector<UserInfoToolTip::UserInfo *,std::allocator<UserInfoToolTip::UserInfo *> >::_Destroy, COMDAT
; _this$ = ecx

; 1270 : 		_Destroy_range(_First, _Last, this->_Alval);
; 1271 : 		}

  00000	c2 08 00	 ret	 8
?_Destroy@?$vector@PAUUserInfo@UserInfoToolTip@@V?$allocator@PAUUserInfo@UserInfoToolTip@@@std@@@std@@IAEXPAPAUUserInfo@UserInfoToolTip@@0@Z ENDP ; std::vector<UserInfoToolTip::UserInfo *,std::allocator<UserInfoToolTip::UserInfo *> >::_Destroy
_TEXT	ENDS
PUBLIC	?_Tidy@?$vector@PAUUserInfo@UserInfoToolTip@@V?$allocator@PAUUserInfo@UserInfoToolTip@@@std@@@std@@IAEXXZ ; std::vector<UserInfoToolTip::UserInfo *,std::allocator<UserInfoToolTip::UserInfo *> >::_Tidy
EXTRN	__imp_?_Orphan_all@_Container_base0@std@@QAEXXZ:PROC
; Function compile flags: /Ogsp
;	COMDAT ?_Tidy@?$vector@PAUUserInfo@UserInfoToolTip@@V?$allocator@PAUUserInfo@UserInfoToolTip@@@std@@@std@@IAEXXZ
_TEXT	SEGMENT
?_Tidy@?$vector@PAUUserInfo@UserInfoToolTip@@V?$allocator@PAUUserInfo@UserInfoToolTip@@@std@@@std@@IAEXXZ PROC ; std::vector<UserInfoToolTip::UserInfo *,std::allocator<UserInfoToolTip::UserInfo *> >::_Tidy, COMDAT
; _this$ = ecx

; 1301 : 		{	// free all storage

  00000	56		 push	 esi
  00001	8b f1		 mov	 esi, ecx

; 1302 : 		if (this->_Myfirst != 0)

  00003	83 3e 00	 cmp	 DWORD PTR [esi], 0
  00006	74 0e		 je	 SHORT $LN12@Tidy

; 1303 : 			{	// something to free, destroy and deallocate it
; 1304 : 			this->_Orphan_all();

  00008	ff 15 00 00 00
	00		 call	 DWORD PTR __imp_?_Orphan_all@_Container_base0@std@@QAEXXZ

; 1305 : 			_Destroy(this->_Myfirst, this->_Mylast);
; 1306 : 			this->_Alval.deallocate(this->_Myfirst,
; 1307 : 				this->_Myend - this->_Myfirst);

  0000e	ff 36		 push	 DWORD PTR [esi]
  00010	e8 00 00 00 00	 call	 ??3@YAXPAX@Z		; operator delete
  00015	59		 pop	 ecx
$LN12@Tidy:

; 1308 : 			}
; 1309 : 		this->_Myfirst = 0;

  00016	83 26 00	 and	 DWORD PTR [esi], 0

; 1310 : 		this->_Mylast = 0;

  00019	83 66 04 00	 and	 DWORD PTR [esi+4], 0

; 1311 : 		this->_Myend = 0;

  0001d	83 66 08 00	 and	 DWORD PTR [esi+8], 0
  00021	5e		 pop	 esi

; 1312 : 		}

  00022	c3		 ret	 0
?_Tidy@?$vector@PAUUserInfo@UserInfoToolTip@@V?$allocator@PAUUserInfo@UserInfoToolTip@@@std@@@std@@IAEXXZ ENDP ; std::vector<UserInfoToolTip::UserInfo *,std::allocator<UserInfoToolTip::UserInfo *> >::_Tidy
_TEXT	ENDS
PUBLIC	?_Grow_to@?$vector@VioHashString@@V?$allocator@VioHashString@@@std@@@std@@IBEII@Z ; std::vector<ioHashString,std::allocator<ioHashString> >::_Grow_to
; Function compile flags: /Ogsp
;	COMDAT ?_Grow_to@?$vector@VioHashString@@V?$allocator@VioHashString@@@std@@@std@@IBEII@Z
_TEXT	SEGMENT
__Count$ = 8						; size = 4
?_Grow_to@?$vector@VioHashString@@V?$allocator@VioHashString@@@std@@@std@@IBEII@Z PROC ; std::vector<ioHashString,std::allocator<ioHashString> >::_Grow_to, COMDAT
; _this$ = ecx

; 1274 : 		{	// grow by 50% or at least to _Count

  00000	55		 push	 ebp
  00001	8b ec		 mov	 ebp, esp

; 1275 : 		size_type _Capacity = capacity();

  00003	8b 41 08	 mov	 eax, DWORD PTR [ecx+8]
  00006	2b 01		 sub	 eax, DWORD PTR [ecx]

; 1276 : 
; 1277 : 		_Capacity = max_size() - _Capacity / 2 < _Capacity
; 1278 : 			? 0 : _Capacity + _Capacity / 2;	// try to grow by 50%

  00008	ba ff ff ff 0f	 mov	 edx, 268435455		; 0fffffffH
  0000d	c1 f8 04	 sar	 eax, 4
  00010	8b c8		 mov	 ecx, eax
  00012	d1 e9		 shr	 ecx, 1
  00014	2b d1		 sub	 edx, ecx
  00016	3b d0		 cmp	 edx, eax
  00018	73 04		 jae	 SHORT $LN4@Grow_to@4
  0001a	33 c0		 xor	 eax, eax
  0001c	eb 02		 jmp	 SHORT $LN5@Grow_to@4
$LN4@Grow_to@4:
  0001e	03 c1		 add	 eax, ecx
$LN5@Grow_to@4:

; 1279 : 		if (_Capacity < _Count)

  00020	3b 45 08	 cmp	 eax, DWORD PTR __Count$[ebp]

; 1280 : 			_Capacity = _Count;

  00023	0f 42 45 08	 cmovb	 eax, DWORD PTR __Count$[ebp]

; 1281 : 		return (_Capacity);
; 1282 : 		}

  00027	5d		 pop	 ebp
  00028	c2 04 00	 ret	 4
?_Grow_to@?$vector@VioHashString@@V?$allocator@VioHashString@@@std@@@std@@IBEII@Z ENDP ; std::vector<ioHashString,std::allocator<ioHashString> >::_Grow_to
_TEXT	ENDS
PUBLIC	??$_Cons_val@V?$allocator@VioHashString@@@std@@VioHashString@@AAV3@@std@@YAXAAV?$allocator@VioHashString@@@0@PAVioHashString@@AAV2@@Z ; std::_Cons_val<std::allocator<ioHashString>,ioHashString,ioHashString &>
; Function compile flags: /Ogsp
; File c:\program files (x86)\microsoft visual studio 10.0\vc\include\xmemory
;	COMDAT ??$_Cons_val@V?$allocator@VioHashString@@@std@@VioHashString@@AAV3@@std@@YAXAAV?$allocator@VioHashString@@@0@PAVioHashString@@AAV2@@Z
_TEXT	SEGMENT
__Alval$ = 8						; size = 4
__Pdest$ = 12						; size = 4
__Src$ = 16						; size = 4
??$_Cons_val@V?$allocator@VioHashString@@@std@@VioHashString@@AAV3@@std@@YAXAAV?$allocator@VioHashString@@@0@PAVioHashString@@AAV2@@Z PROC ; std::_Cons_val<std::allocator<ioHashString>,ioHashString,ioHashString &>, COMDAT

; 279  : 	{	// construct using allocator

  00000	55		 push	 ebp
  00001	8b ec		 mov	 ebp, esp

; 280  : 	_Alval.construct(_Pdest, _STD forward<_Ty2>(_Src));

  00003	ff 75 10	 push	 DWORD PTR __Src$[ebp]
  00006	8b 4d 08	 mov	 ecx, DWORD PTR __Alval$[ebp]
  00009	ff 75 0c	 push	 DWORD PTR __Pdest$[ebp]
  0000c	e8 00 00 00 00	 call	 ??$construct@AAVioHashString@@@?$allocator@VioHashString@@@std@@QAEXPAVioHashString@@AAV2@@Z ; std::allocator<ioHashString>::construct<ioHashString &>

; 281  : 	}

  00011	5d		 pop	 ebp
  00012	c3		 ret	 0
??$_Cons_val@V?$allocator@VioHashString@@@std@@VioHashString@@AAV3@@std@@YAXAAV?$allocator@VioHashString@@@0@PAVioHashString@@AAV2@@Z ENDP ; std::_Cons_val<std::allocator<ioHashString>,ioHashString,ioHashString &>
_TEXT	ENDS
PUBLIC	??$_Ucopy@PAH@?$vector@HV?$allocator@H@std@@@std@@IAEPAHPAH00@Z ; std::vector<int,std::allocator<int> >::_Ucopy<int *>
; Function compile flags: /Ogsp
; File c:\program files (x86)\microsoft visual studio 10.0\vc\include\vector
;	COMDAT ??$_Ucopy@PAH@?$vector@HV?$allocator@H@std@@@std@@IAEPAHPAH00@Z
_TEXT	SEGMENT
__First$ = 8						; size = 4
__Last$ = 12						; size = 4
__Cat$555999 = 16					; size = 1
__Ptr$ = 16						; size = 4
??$_Ucopy@PAH@?$vector@HV?$allocator@H@std@@@std@@IAEPAHPAH00@Z PROC ; std::vector<int,std::allocator<int> >::_Ucopy<int *>, COMDAT
; _this$ = ecx

; 1315 : 		pointer _Ucopy(_Iter _First, _Iter _Last, pointer _Ptr)

  00000	55		 push	 ebp
  00001	8b ec		 mov	 ebp, esp

; 1316 : 		{	// copy initializing [_First, _Last), using allocator
; 1317 : 		return (_Uninitialized_copy(_First, _Last,
; 1318 : 			_Ptr, this->_Alval));

  00003	ff 75 10	 push	 DWORD PTR __Cat$555999[ebp]
  00006	83 c1 0c	 add	 ecx, 12			; 0000000cH
  00009	51		 push	 ecx
  0000a	ff 75 10	 push	 DWORD PTR __Ptr$[ebp]
  0000d	ff 75 0c	 push	 DWORD PTR __Last$[ebp]
  00010	ff 75 08	 push	 DWORD PTR __First$[ebp]
  00013	e8 00 00 00 00	 call	 ??$_Uninit_copy@HH@std@@YAPAHPAH00AAV?$allocator@H@0@U_Scalar_ptr_iterator_tag@0@@Z ; std::_Uninit_copy<int,int>
  00018	83 c4 14	 add	 esp, 20			; 00000014H

; 1319 : 		}

  0001b	5d		 pop	 ebp
  0001c	c2 0c 00	 ret	 12			; 0000000cH
??$_Ucopy@PAH@?$vector@HV?$allocator@H@std@@@std@@IAEPAHPAH00@Z ENDP ; std::vector<int,std::allocator<int> >::_Ucopy<int *>
_TEXT	ENDS
PUBLIC	??$_Cons_val@V?$allocator@H@std@@HAAH@std@@YAXAAV?$allocator@H@0@PAHAAH@Z ; std::_Cons_val<std::allocator<int>,int,int &>
; Function compile flags: /Ogsp
; File c:\program files (x86)\microsoft visual studio 10.0\vc\include\xmemory
;	COMDAT ??$_Cons_val@V?$allocator@H@std@@HAAH@std@@YAXAAV?$allocator@H@0@PAHAAH@Z
_TEXT	SEGMENT
__Alval$ = 8						; size = 4
__Pdest$ = 12						; size = 4
__Src$ = 16						; size = 4
??$_Cons_val@V?$allocator@H@std@@HAAH@std@@YAXAAV?$allocator@H@0@PAHAAH@Z PROC ; std::_Cons_val<std::allocator<int>,int,int &>, COMDAT

; 279  : 	{	// construct using allocator

  00000	55		 push	 ebp
  00001	8b ec		 mov	 ebp, esp

; 280  : 	_Alval.construct(_Pdest, _STD forward<_Ty2>(_Src));

  00003	8b 45 0c	 mov	 eax, DWORD PTR __Pdest$[ebp]
  00006	85 c0		 test	 eax, eax
  00008	74 07		 je	 SHORT $LN7@Cons_val@3
  0000a	8b 4d 10	 mov	 ecx, DWORD PTR __Src$[ebp]
  0000d	8b 09		 mov	 ecx, DWORD PTR [ecx]
  0000f	89 08		 mov	 DWORD PTR [eax], ecx
$LN7@Cons_val@3:

; 281  : 	}

  00011	5d		 pop	 ebp
  00012	c3		 ret	 0
??$_Cons_val@V?$allocator@H@std@@HAAH@std@@YAXAAV?$allocator@H@0@PAHAAH@Z ENDP ; std::_Cons_val<std::allocator<int>,int,int &>
_TEXT	ENDS
PUBLIC	??$_Cons_val@V?$allocator@H@std@@HABH@std@@YAXAAV?$allocator@H@0@PAHABH@Z ; std::_Cons_val<std::allocator<int>,int,int const &>
; Function compile flags: /Ogsp
;	COMDAT ??$_Cons_val@V?$allocator@H@std@@HABH@std@@YAXAAV?$allocator@H@0@PAHABH@Z
_TEXT	SEGMENT
__Alval$ = 8						; size = 4
__Pdest$ = 12						; size = 4
__Src$ = 16						; size = 4
??$_Cons_val@V?$allocator@H@std@@HABH@std@@YAXAAV?$allocator@H@0@PAHABH@Z PROC ; std::_Cons_val<std::allocator<int>,int,int const &>, COMDAT

; 279  : 	{	// construct using allocator

  00000	55		 push	 ebp
  00001	8b ec		 mov	 ebp, esp

; 280  : 	_Alval.construct(_Pdest, _STD forward<_Ty2>(_Src));

  00003	8b 45 0c	 mov	 eax, DWORD PTR __Pdest$[ebp]
  00006	85 c0		 test	 eax, eax
  00008	74 07		 je	 SHORT $LN9@Cons_val@4
  0000a	8b 4d 10	 mov	 ecx, DWORD PTR __Src$[ebp]
  0000d	8b 09		 mov	 ecx, DWORD PTR [ecx]
  0000f	89 08		 mov	 DWORD PTR [eax], ecx
$LN9@Cons_val@4:

; 281  : 	}

  00011	5d		 pop	 ebp
  00012	c3		 ret	 0
??$_Cons_val@V?$allocator@H@std@@HABH@std@@YAXAAV?$allocator@H@0@PAHABH@Z ENDP ; std::_Cons_val<std::allocator<int>,int,int const &>
_TEXT	ENDS
PUBLIC	??$_Ucopy@PAK@?$vector@KV?$allocator@K@std@@@std@@IAEPAKPAK00@Z ; std::vector<unsigned long,std::allocator<unsigned long> >::_Ucopy<unsigned long *>
; Function compile flags: /Ogsp
; File c:\program files (x86)\microsoft visual studio 10.0\vc\include\vector
;	COMDAT ??$_Ucopy@PAK@?$vector@KV?$allocator@K@std@@@std@@IAEPAKPAK00@Z
_TEXT	SEGMENT
__First$ = 8						; size = 4
__Last$ = 12						; size = 4
__Cat$556080 = 16					; size = 1
__Ptr$ = 16						; size = 4
??$_Ucopy@PAK@?$vector@KV?$allocator@K@std@@@std@@IAEPAKPAK00@Z PROC ; std::vector<unsigned long,std::allocator<unsigned long> >::_Ucopy<unsigned long *>, COMDAT
; _this$ = ecx

; 1315 : 		pointer _Ucopy(_Iter _First, _Iter _Last, pointer _Ptr)

  00000	55		 push	 ebp
  00001	8b ec		 mov	 ebp, esp

; 1316 : 		{	// copy initializing [_First, _Last), using allocator
; 1317 : 		return (_Uninitialized_copy(_First, _Last,
; 1318 : 			_Ptr, this->_Alval));

  00003	ff 75 10	 push	 DWORD PTR __Cat$556080[ebp]
  00006	83 c1 0c	 add	 ecx, 12			; 0000000cH
  00009	51		 push	 ecx
  0000a	ff 75 10	 push	 DWORD PTR __Ptr$[ebp]
  0000d	ff 75 0c	 push	 DWORD PTR __Last$[ebp]
  00010	ff 75 08	 push	 DWORD PTR __First$[ebp]
  00013	e8 00 00 00 00	 call	 ??$_Uninit_copy@KK@std@@YAPAKPAK00AAV?$allocator@K@0@U_Scalar_ptr_iterator_tag@0@@Z ; std::_Uninit_copy<unsigned long,unsigned long>
  00018	83 c4 14	 add	 esp, 20			; 00000014H

; 1319 : 		}

  0001b	5d		 pop	 ebp
  0001c	c2 0c 00	 ret	 12			; 0000000cH
??$_Ucopy@PAK@?$vector@KV?$allocator@K@std@@@std@@IAEPAKPAK00@Z ENDP ; std::vector<unsigned long,std::allocator<unsigned long> >::_Ucopy<unsigned long *>
_TEXT	ENDS
PUBLIC	??$_Cons_val@V?$allocator@PAUUserInfo@UserInfoToolTip@@@std@@PAUUserInfo@UserInfoToolTip@@ABQAU34@@std@@YAXAAV?$allocator@PAUUserInfo@UserInfoToolTip@@@0@PAPAUUserInfo@UserInfoToolTip@@ABQAU23@@Z ; std::_Cons_val<std::allocator<UserInfoToolTip::UserInfo *>,UserInfoToolTip::UserInfo *,UserInfoToolTip::UserInfo * const &>
; Function compile flags: /Ogsp
; File c:\program files (x86)\microsoft visual studio 10.0\vc\include\xmemory
;	COMDAT ??$_Cons_val@V?$allocator@PAUUserInfo@UserInfoToolTip@@@std@@PAUUserInfo@UserInfoToolTip@@ABQAU34@@std@@YAXAAV?$allocator@PAUUserInfo@UserInfoToolTip@@@0@PAPAUUserInfo@UserInfoToolTip@@ABQAU23@@Z
_TEXT	SEGMENT
__Alval$ = 8						; size = 4
__Pdest$ = 12						; size = 4
__Src$ = 16						; size = 4
??$_Cons_val@V?$allocator@PAUUserInfo@UserInfoToolTip@@@std@@PAUUserInfo@UserInfoToolTip@@ABQAU34@@std@@YAXAAV?$allocator@PAUUserInfo@UserInfoToolTip@@@0@PAPAUUserInfo@UserInfoToolTip@@ABQAU23@@Z PROC ; std::_Cons_val<std::allocator<UserInfoToolTip::UserInfo *>,UserInfoToolTip::UserInfo *,UserInfoToolTip::UserInfo * const &>, COMDAT

; 279  : 	{	// construct using allocator

  00000	55		 push	 ebp
  00001	8b ec		 mov	 ebp, esp

; 280  : 	_Alval.construct(_Pdest, _STD forward<_Ty2>(_Src));

  00003	8b 45 0c	 mov	 eax, DWORD PTR __Pdest$[ebp]
  00006	85 c0		 test	 eax, eax
  00008	74 07		 je	 SHORT $LN9@Cons_val@5
  0000a	8b 4d 10	 mov	 ecx, DWORD PTR __Src$[ebp]
  0000d	8b 09		 mov	 ecx, DWORD PTR [ecx]
  0000f	89 08		 mov	 DWORD PTR [eax], ecx
$LN9@Cons_val@5:

; 281  : 	}

  00011	5d		 pop	 ebp
  00012	c3		 ret	 0
??$_Cons_val@V?$allocator@PAUUserInfo@UserInfoToolTip@@@std@@PAUUserInfo@UserInfoToolTip@@ABQAU34@@std@@YAXAAV?$allocator@PAUUserInfo@UserInfoToolTip@@@0@PAPAUUserInfo@UserInfoToolTip@@ABQAU23@@Z ENDP ; std::_Cons_val<std::allocator<UserInfoToolTip::UserInfo *>,UserInfoToolTip::UserInfo *,UserInfoToolTip::UserInfo * const &>
_TEXT	ENDS
PUBLIC	??$_Umove@PAPAUUserInfo@UserInfoToolTip@@@?$vector@PAUUserInfo@UserInfoToolTip@@V?$allocator@PAUUserInfo@UserInfoToolTip@@@std@@@std@@IAEPAPAUUserInfo@UserInfoToolTip@@PAPAU23@00@Z ; std::vector<UserInfoToolTip::UserInfo *,std::allocator<UserInfoToolTip::UserInfo *> >::_Umove<UserInfoToolTip::UserInfo * *>
; Function compile flags: /Ogsp
; File c:\program files (x86)\microsoft visual studio 10.0\vc\include\vector
;	COMDAT ??$_Umove@PAPAUUserInfo@UserInfoToolTip@@@?$vector@PAUUserInfo@UserInfoToolTip@@V?$allocator@PAUUserInfo@UserInfoToolTip@@@std@@@std@@IAEPAPAUUserInfo@UserInfoToolTip@@PAPAU23@00@Z
_TEXT	SEGMENT
__First$ = 8						; size = 4
__Last$ = 12						; size = 4
__Ptr$ = 16						; size = 4
??$_Umove@PAPAUUserInfo@UserInfoToolTip@@@?$vector@PAUUserInfo@UserInfoToolTip@@V?$allocator@PAUUserInfo@UserInfoToolTip@@@std@@@std@@IAEPAPAUUserInfo@UserInfoToolTip@@PAPAU23@00@Z PROC ; std::vector<UserInfoToolTip::UserInfo *,std::allocator<UserInfoToolTip::UserInfo *> >::_Umove<UserInfoToolTip::UserInfo * *>, COMDAT
; _this$ = ecx

; 1322 : 		pointer _Umove(_Iter _First, _Iter _Last, pointer _Ptr)

  00000	55		 push	 ebp
  00001	8b ec		 mov	 ebp, esp

; 1323 : 		{	// move initializing [_First, _Last), using allocator
; 1324 : 		return (_Uninitialized_move(_First, _Last,
; 1325 : 			_Ptr, this->_Alval));

  00003	83 c1 0c	 add	 ecx, 12			; 0000000cH
  00006	51		 push	 ecx
  00007	ff 75 10	 push	 DWORD PTR __Ptr$[ebp]
  0000a	ff 75 0c	 push	 DWORD PTR __Last$[ebp]
  0000d	ff 75 08	 push	 DWORD PTR __First$[ebp]
  00010	e8 00 00 00 00	 call	 ??$_Uninitialized_move@PAPAUUserInfo@UserInfoToolTip@@PAPAU12@V?$allocator@PAUUserInfo@UserInfoToolTip@@@std@@@std@@YAPAPAUUserInfo@UserInfoToolTip@@PAPAU12@00AAV?$allocator@PAUUserInfo@UserInfoToolTip@@@0@@Z ; std::_Uninitialized_move<UserInfoToolTip::UserInfo * *,UserInfoToolTip::UserInfo * *,std::allocator<UserInfoToolTip::UserInfo *> >
  00015	83 c4 10	 add	 esp, 16			; 00000010H

; 1326 : 		}

  00018	5d		 pop	 ebp
  00019	c2 0c 00	 ret	 12			; 0000000cH
??$_Umove@PAPAUUserInfo@UserInfoToolTip@@@?$vector@PAUUserInfo@UserInfoToolTip@@V?$allocator@PAUUserInfo@UserInfoToolTip@@@std@@@std@@IAEPAPAUUserInfo@UserInfoToolTip@@PAPAU23@00@Z ENDP ; std::vector<UserInfoToolTip::UserInfo *,std::allocator<UserInfoToolTip::UserInfo *> >::_Umove<UserInfoToolTip::UserInfo * *>
_TEXT	ENDS
PUBLIC	??$_Dest_val@V?$allocator@UExpandMedalSlot@ioExpandMedalSlotManager@@@std@@UExpandMedalSlot@ioExpandMedalSlotManager@@@std@@YAXAAV?$allocator@UExpandMedalSlot@ioExpandMedalSlotManager@@@0@PAUExpandMedalSlot@ioExpandMedalSlotManager@@@Z ; std::_Dest_val<std::allocator<ioExpandMedalSlotManager::ExpandMedalSlot>,ioExpandMedalSlotManager::ExpandMedalSlot>
; Function compile flags: /Ogsp
; File c:\program files (x86)\microsoft visual studio 10.0\vc\include\xmemory
;	COMDAT ??$_Dest_val@V?$allocator@UExpandMedalSlot@ioExpandMedalSlotManager@@@std@@UExpandMedalSlot@ioExpandMedalSlotManager@@@std@@YAXAAV?$allocator@UExpandMedalSlot@ioExpandMedalSlotManager@@@0@PAUExpandMedalSlot@ioExpandMedalSlotManager@@@Z
_TEXT	SEGMENT
__Alval$ = 8						; size = 4
__Pdest$ = 12						; size = 4
??$_Dest_val@V?$allocator@UExpandMedalSlot@ioExpandMedalSlotManager@@@std@@UExpandMedalSlot@ioExpandMedalSlotManager@@@std@@YAXAAV?$allocator@UExpandMedalSlot@ioExpandMedalSlotManager@@@0@PAUExpandMedalSlot@ioExpandMedalSlotManager@@@Z PROC ; std::_Dest_val<std::allocator<ioExpandMedalSlotManager::ExpandMedalSlot>,ioExpandMedalSlotManager::ExpandMedalSlot>, COMDAT

; 287  : 	_Alval.destroy(_Pdest);
; 288  : 	}

  00000	c3		 ret	 0
??$_Dest_val@V?$allocator@UExpandMedalSlot@ioExpandMedalSlotManager@@@std@@UExpandMedalSlot@ioExpandMedalSlotManager@@@std@@YAXAAV?$allocator@UExpandMedalSlot@ioExpandMedalSlotManager@@@0@PAUExpandMedalSlot@ioExpandMedalSlotManager@@@Z ENDP ; std::_Dest_val<std::allocator<ioExpandMedalSlotManager::ExpandMedalSlot>,ioExpandMedalSlotManager::ExpandMedalSlot>
_TEXT	ENDS
PUBLIC	??$_Cons_val@V?$allocator@VioHashString@@@std@@VioHashString@@V3@@std@@YAXAAV?$allocator@VioHashString@@@0@PAVioHashString@@$$QAV2@@Z ; std::_Cons_val<std::allocator<ioHashString>,ioHashString,ioHashString>
; Function compile flags: /Ogsp
;	COMDAT ??$_Cons_val@V?$allocator@VioHashString@@@std@@VioHashString@@V3@@std@@YAXAAV?$allocator@VioHashString@@@0@PAVioHashString@@$$QAV2@@Z
_TEXT	SEGMENT
__Alval$ = 8						; size = 4
__Pdest$ = 12						; size = 4
__Src$ = 16						; size = 4
??$_Cons_val@V?$allocator@VioHashString@@@std@@VioHashString@@V3@@std@@YAXAAV?$allocator@VioHashString@@@0@PAVioHashString@@$$QAV2@@Z PROC ; std::_Cons_val<std::allocator<ioHashString>,ioHashString,ioHashString>, COMDAT

; 279  : 	{	// construct using allocator

  00000	55		 push	 ebp
  00001	8b ec		 mov	 ebp, esp

; 280  : 	_Alval.construct(_Pdest, _STD forward<_Ty2>(_Src));

  00003	ff 75 10	 push	 DWORD PTR __Src$[ebp]
  00006	8b 4d 08	 mov	 ecx, DWORD PTR __Alval$[ebp]
  00009	ff 75 0c	 push	 DWORD PTR __Pdest$[ebp]
  0000c	e8 00 00 00 00	 call	 ?construct@?$allocator@VioHashString@@@std@@QAEXPAVioHashString@@$$QAV3@@Z ; std::allocator<ioHashString>::construct

; 281  : 	}

  00011	5d		 pop	 ebp
  00012	c3		 ret	 0
??$_Cons_val@V?$allocator@VioHashString@@@std@@VioHashString@@V3@@std@@YAXAAV?$allocator@VioHashString@@@0@PAVioHashString@@$$QAV2@@Z ENDP ; std::_Cons_val<std::allocator<ioHashString>,ioHashString,ioHashString>
_TEXT	ENDS
PUBLIC	?GetModeType@ioPlayMode@@SA?AW4ModeType@@XZ	; ioPlayMode::GetModeType
EXTRN	?m_ModeType@ioPlayMode@@1V?$CEncrypt@W4ModeType@@@@A:BYTE ; ioPlayMode::m_ModeType
; Function compile flags: /Ogsp
; File d:\lost saga for developer\youtube\tutorial\source\src\lsclient\ioplaymode.h
;	COMDAT ?GetModeType@ioPlayMode@@SA?AW4ModeType@@XZ
_TEXT	SEGMENT
?GetModeType@ioPlayMode@@SA?AW4ModeType@@XZ PROC	; ioPlayMode::GetModeType, COMDAT

; 782  : 	static ModeType GetModeType() { return m_ModeType; }

  00000	6a 04		 push	 4
  00002	68 28 00 00 00	 push	 OFFSET ?m_ModeType@ioPlayMode@@1V?$CEncrypt@W4ModeType@@@@A+40
  00007	68 1c 00 00 00	 push	 OFFSET ?m_ModeType@ioPlayMode@@1V?$CEncrypt@W4ModeType@@@@A+28
  0000c	b9 0c 00 00 00	 mov	 ecx, OFFSET ?m_ModeType@ioPlayMode@@1V?$CEncrypt@W4ModeType@@@@A+12
  00011	e8 00 00 00 00	 call	 ?DecryptByte@ccddaabb@@QBEXPBDPADH@Z ; ccddaabb::DecryptByte
  00016	a1 28 00 00 00	 mov	 eax, DWORD PTR ?m_ModeType@ioPlayMode@@1V?$CEncrypt@W4ModeType@@@@A+40
  0001b	c3		 ret	 0
?GetModeType@ioPlayMode@@SA?AW4ModeType@@XZ ENDP	; ioPlayMode::GetModeType
_TEXT	ENDS
PUBLIC	??_R0?AVioPlayMode@@@8				; ioPlayMode `RTTI Type Descriptor'
PUBLIC	??_R0?AVioHeadquartersMode@@@8			; ioHeadquartersMode `RTTI Type Descriptor'
PUBLIC	?ToHeadquartersMode@@YAPAVioHeadquartersMode@@PAVioPlayMode@@@Z ; ToHeadquartersMode
;	COMDAT ??_R0?AVioPlayMode@@@8
; File d:\lost saga for developer\youtube\tutorial\source\src\lsclient\ioheadquartersmode.h
_DATA	SEGMENT
??_R0?AVioPlayMode@@@8 DD FLAT:??_7type_info@@6B@	; ioPlayMode `RTTI Type Descriptor'
	DD	00H
	DB	'.?AVioPlayMode@@', 00H
_DATA	ENDS
;	COMDAT ??_R0?AVioHeadquartersMode@@@8
_DATA	SEGMENT
??_R0?AVioHeadquartersMode@@@8 DD FLAT:??_7type_info@@6B@ ; ioHeadquartersMode `RTTI Type Descriptor'
	DD	00H
	DB	'.?AVioHeadquartersMode@@', 00H
; Function compile flags: /Ogsp
_DATA	ENDS
;	COMDAT ?ToHeadquartersMode@@YAPAVioHeadquartersMode@@PAVioPlayMode@@@Z
_TEXT	SEGMENT
_pMode$ = 8						; size = 4
?ToHeadquartersMode@@YAPAVioHeadquartersMode@@PAVioPlayMode@@@Z PROC ; ToHeadquartersMode, COMDAT

; 234  : {

  00000	55		 push	 ebp
  00001	8b ec		 mov	 ebp, esp

; 235  : 	if( !pMode || pMode->GetModeType() != MT_HEADQUARTERS )

  00003	83 7d 08 00	 cmp	 DWORD PTR _pMode$[ebp], 0
  00007	74 25		 je	 SHORT $LN1@ToHeadquar
  00009	e8 00 00 00 00	 call	 ?GetModeType@ioPlayMode@@SA?AW4ModeType@@XZ ; ioPlayMode::GetModeType
  0000e	83 f8 0d	 cmp	 eax, 13			; 0000000dH
  00011	75 1b		 jne	 SHORT $LN1@ToHeadquar

; 237  : 
; 238  : 	return dynamic_cast< ioHeadquartersMode* >( pMode );

  00013	6a 00		 push	 0
  00015	68 00 00 00 00	 push	 OFFSET ??_R0?AVioHeadquartersMode@@@8
  0001a	68 00 00 00 00	 push	 OFFSET ??_R0?AVioPlayMode@@@8
  0001f	6a 00		 push	 0
  00021	ff 75 08	 push	 DWORD PTR _pMode$[ebp]
  00024	e8 00 00 00 00	 call	 ___RTDynamicCast
  00029	83 c4 14	 add	 esp, 20			; 00000014H

; 239  : }

  0002c	5d		 pop	 ebp
  0002d	c3		 ret	 0
$LN1@ToHeadquar:

; 236  : 		return NULL;

  0002e	33 c0		 xor	 eax, eax

; 239  : }

  00030	5d		 pop	 ebp
  00031	c3		 ret	 0
?ToHeadquartersMode@@YAPAVioHeadquartersMode@@PAVioPlayMode@@@Z ENDP ; ToHeadquartersMode
_TEXT	ENDS
PUBLIC	??0?$vector@VioHashString@@V?$allocator@VioHashString@@@std@@@std@@QAE@XZ ; std::vector<ioHashString,std::allocator<ioHashString> >::vector<ioHashString,std::allocator<ioHashString> >
; Function compile flags: /Ogsp
; File c:\program files (x86)\microsoft visual studio 10.0\vc\include\vector
;	COMDAT ??0?$vector@VioHashString@@V?$allocator@VioHashString@@@std@@@std@@QAE@XZ
_TEXT	SEGMENT
??0?$vector@VioHashString@@V?$allocator@VioHashString@@@std@@@std@@QAE@XZ PROC ; std::vector<ioHashString,std::allocator<ioHashString> >::vector<ioHashString,std::allocator<ioHashString> >, COMDAT
; _this$ = ecx

; 507  : 		{	// construct empty vector

  00000	8b c1		 mov	 eax, ecx
  00002	33 c9		 xor	 ecx, ecx
  00004	89 08		 mov	 DWORD PTR [eax], ecx
  00006	89 48 04	 mov	 DWORD PTR [eax+4], ecx
  00009	89 48 08	 mov	 DWORD PTR [eax+8], ecx

; 508  : 		}

  0000c	c3		 ret	 0
??0?$vector@VioHashString@@V?$allocator@VioHashString@@@std@@@std@@QAE@XZ ENDP ; std::vector<ioHashString,std::allocator<ioHashString> >::vector<ioHashString,std::allocator<ioHashString> >
_TEXT	ENDS
PUBLIC	??0?$vector@HV?$allocator@H@std@@@std@@QAE@XZ	; std::vector<int,std::allocator<int> >::vector<int,std::allocator<int> >
; Function compile flags: /Ogsp
;	COMDAT ??0?$vector@HV?$allocator@H@std@@@std@@QAE@XZ
_TEXT	SEGMENT
??0?$vector@HV?$allocator@H@std@@@std@@QAE@XZ PROC	; std::vector<int,std::allocator<int> >::vector<int,std::allocator<int> >, COMDAT
; _this$ = ecx

; 507  : 		{	// construct empty vector

  00000	8b c1		 mov	 eax, ecx
  00002	33 c9		 xor	 ecx, ecx
  00004	89 08		 mov	 DWORD PTR [eax], ecx
  00006	89 48 04	 mov	 DWORD PTR [eax+4], ecx
  00009	89 48 08	 mov	 DWORD PTR [eax+8], ecx

; 508  : 		}

  0000c	c3		 ret	 0
??0?$vector@HV?$allocator@H@std@@@std@@QAE@XZ ENDP	; std::vector<int,std::allocator<int> >::vector<int,std::allocator<int> >
_TEXT	ENDS
PUBLIC	??0?$vector@KV?$allocator@K@std@@@std@@QAE@XZ	; std::vector<unsigned long,std::allocator<unsigned long> >::vector<unsigned long,std::allocator<unsigned long> >
; Function compile flags: /Ogsp
;	COMDAT ??0?$vector@KV?$allocator@K@std@@@std@@QAE@XZ
_TEXT	SEGMENT
??0?$vector@KV?$allocator@K@std@@@std@@QAE@XZ PROC	; std::vector<unsigned long,std::allocator<unsigned long> >::vector<unsigned long,std::allocator<unsigned long> >, COMDAT
; _this$ = ecx

; 507  : 		{	// construct empty vector

  00000	8b c1		 mov	 eax, ecx
  00002	33 c9		 xor	 ecx, ecx
  00004	89 08		 mov	 DWORD PTR [eax], ecx
  00006	89 48 04	 mov	 DWORD PTR [eax+4], ecx
  00009	89 48 08	 mov	 DWORD PTR [eax+8], ecx

; 508  : 		}

  0000c	c3		 ret	 0
??0?$vector@KV?$allocator@K@std@@@std@@QAE@XZ ENDP	; std::vector<unsigned long,std::allocator<unsigned long> >::vector<unsigned long,std::allocator<unsigned long> >
_TEXT	ENDS
PUBLIC	?_Tidy@?$basic_string@DU?$char_traits@D@std@@V?$allocator@D@2@@std@@QAEX_NI@Z ; std::basic_string<char,std::char_traits<char>,std::allocator<char> >::_Tidy
; Function compile flags: /Ogsp
; File c:\program files (x86)\microsoft visual studio 10.0\vc\include\xstring
;	COMDAT ?_Tidy@?$basic_string@DU?$char_traits@D@std@@V?$allocator@D@2@@std@@QAEX_NI@Z
_TEXT	SEGMENT
__Built$ = 8						; size = 1
__Newsize$ = 12						; size = 4
?_Tidy@?$basic_string@DU?$char_traits@D@std@@V?$allocator@D@2@@std@@QAEX_NI@Z PROC ; std::basic_string<char,std::char_traits<char>,std::allocator<char> >::_Tidy, COMDAT
; _this$ = ecx

; 1988 : 		{	// initialize buffer, deallocating any storage

  00000	55		 push	 ebp
  00001	8b ec		 mov	 ebp, esp

; 1989 : 		if (!_Built)

  00003	80 7d 08 00	 cmp	 BYTE PTR __Built$[ebp], 0
  00007	56		 push	 esi
  00008	57		 push	 edi
  00009	8b 7d 0c	 mov	 edi, DWORD PTR __Newsize$[ebp]
  0000c	8b f1		 mov	 esi, ecx
  0000e	74 20		 je	 SHORT $LN9@Tidy@2

; 1990 : 			;
; 1991 : 		else if (this->_BUF_SIZE <= this->_Myres)

  00010	83 7e 14 10	 cmp	 DWORD PTR [esi+20], 16	; 00000010H
  00014	72 1a		 jb	 SHORT $LN9@Tidy@2

; 1992 : 			{	// copy any leftovers to small buffer and deallocate
; 1993 : 			_Elem *_Ptr = this->_Bx._Ptr;

  00016	53		 push	 ebx
  00017	8b 1e		 mov	 ebx, DWORD PTR [esi]

; 1994 : 			if (0 < _Newsize)

  00019	85 ff		 test	 edi, edi
  0001b	74 0b		 je	 SHORT $LN7@Tidy@2

; 1995 : 				_Traits::copy(this->_Bx._Buf, _Ptr, _Newsize);

  0001d	57		 push	 edi
  0001e	53		 push	 ebx
  0001f	56		 push	 esi
  00020	e8 00 00 00 00	 call	 _memcpy
  00025	83 c4 0c	 add	 esp, 12			; 0000000cH
$LN7@Tidy@2:

; 1996 : 			this->_Alval.deallocate(_Ptr, this->_Myres + 1);

  00028	53		 push	 ebx
  00029	e8 00 00 00 00	 call	 ??3@YAXPAX@Z		; operator delete
  0002e	59		 pop	 ecx
  0002f	5b		 pop	 ebx
$LN9@Tidy@2:

; 1997 : 			}
; 1998 : 		this->_Myres = this->_BUF_SIZE - 1;
; 1999 : 		_Eos(_Newsize);

  00030	89 7e 10	 mov	 DWORD PTR [esi+16], edi
  00033	c7 46 14 0f 00
	00 00		 mov	 DWORD PTR [esi+20], 15	; 0000000fH
  0003a	c6 04 37 00	 mov	 BYTE PTR [edi+esi], 0
  0003e	5f		 pop	 edi
  0003f	5e		 pop	 esi

; 2000 : 		}

  00040	5d		 pop	 ebp
  00041	c2 08 00	 ret	 8
?_Tidy@?$basic_string@DU?$char_traits@D@std@@V?$allocator@D@2@@std@@QAEX_NI@Z ENDP ; std::basic_string<char,std::char_traits<char>,std::allocator<char> >::_Tidy
_TEXT	ENDS
PUBLIC	?begin@?$vector@KV?$allocator@K@std@@@std@@QAE?AV?$_Vector_iterator@V?$_Vector_val@KV?$allocator@K@std@@@std@@@2@XZ ; std::vector<unsigned long,std::allocator<unsigned long> >::begin
; Function compile flags: /Ogsp
; File c:\program files (x86)\microsoft visual studio 10.0\vc\include\vector
;	COMDAT ?begin@?$vector@KV?$allocator@K@std@@@std@@QAE?AV?$_Vector_iterator@V?$_Vector_val@KV?$allocator@K@std@@@std@@@2@XZ
_TEXT	SEGMENT
___$ReturnUdt$ = 8					; size = 4
?begin@?$vector@KV?$allocator@K@std@@@std@@QAE?AV?$_Vector_iterator@V?$_Vector_val@KV?$allocator@K@std@@@std@@@2@XZ PROC ; std::vector<unsigned long,std::allocator<unsigned long> >::begin, COMDAT
; _this$ = ecx

; 781  : 		{	// return iterator for beginning of mutable sequence

  00000	55		 push	 ebp
  00001	8b ec		 mov	 ebp, esp

; 782  : 		return (iterator(this->_Myfirst, this));

  00003	8b 09		 mov	 ecx, DWORD PTR [ecx]
  00005	8b 45 08	 mov	 eax, DWORD PTR ___$ReturnUdt$[ebp]
  00008	89 08		 mov	 DWORD PTR [eax], ecx

; 783  : 		}

  0000a	5d		 pop	 ebp
  0000b	c2 04 00	 ret	 4
?begin@?$vector@KV?$allocator@K@std@@@std@@QAE?AV?$_Vector_iterator@V?$_Vector_val@KV?$allocator@K@std@@@std@@@2@XZ ENDP ; std::vector<unsigned long,std::allocator<unsigned long> >::begin
_TEXT	ENDS
PUBLIC	?end@?$vector@KV?$allocator@K@std@@@std@@QAE?AV?$_Vector_iterator@V?$_Vector_val@KV?$allocator@K@std@@@std@@@2@XZ ; std::vector<unsigned long,std::allocator<unsigned long> >::end
; Function compile flags: /Ogsp
;	COMDAT ?end@?$vector@KV?$allocator@K@std@@@std@@QAE?AV?$_Vector_iterator@V?$_Vector_val@KV?$allocator@K@std@@@std@@@2@XZ
_TEXT	SEGMENT
___$ReturnUdt$ = 8					; size = 4
?end@?$vector@KV?$allocator@K@std@@@std@@QAE?AV?$_Vector_iterator@V?$_Vector_val@KV?$allocator@K@std@@@std@@@2@XZ PROC ; std::vector<unsigned long,std::allocator<unsigned long> >::end, COMDAT
; _this$ = ecx

; 791  : 		{	// return iterator for end of mutable sequence

  00000	55		 push	 ebp
  00001	8b ec		 mov	 ebp, esp

; 792  : 		return (iterator(this->_Mylast, this));

  00003	8b 49 04	 mov	 ecx, DWORD PTR [ecx+4]
  00006	8b 45 08	 mov	 eax, DWORD PTR ___$ReturnUdt$[ebp]
  00009	89 08		 mov	 DWORD PTR [eax], ecx

; 793  : 		}

  0000b	5d		 pop	 ebp
  0000c	c2 04 00	 ret	 4
?end@?$vector@KV?$allocator@K@std@@@std@@QAE?AV?$_Vector_iterator@V?$_Vector_val@KV?$allocator@K@std@@@std@@@2@XZ ENDP ; std::vector<unsigned long,std::allocator<unsigned long> >::end
_TEXT	ENDS
PUBLIC	?erase@?$basic_string@DU?$char_traits@D@std@@V?$allocator@D@2@@std@@QAEAAV12@II@Z ; std::basic_string<char,std::char_traits<char>,std::allocator<char> >::erase
; Function compile flags: /Ogsp
; File c:\program files (x86)\microsoft visual studio 10.0\vc\include\xstring
;	COMDAT ?erase@?$basic_string@DU?$char_traits@D@std@@V?$allocator@D@2@@std@@QAEAAV12@II@Z
_TEXT	SEGMENT
__Off$ = 8						; size = 4
__Count$ = 12						; size = 4
?erase@?$basic_string@DU?$char_traits@D@std@@V?$allocator@D@2@@std@@QAEAAV12@II@Z PROC ; std::basic_string<char,std::char_traits<char>,std::allocator<char> >::erase, COMDAT
; _this$ = ecx

; 1109 : 		{	// erase elements [_Off, _Off + _Count)

  00000	55		 push	 ebp
  00001	8b ec		 mov	 ebp, esp
  00003	53		 push	 ebx
  00004	56		 push	 esi
  00005	8b f1		 mov	 esi, ecx

; 1110 : 		if (this->_Mysize < _Off)

  00007	8b 46 10	 mov	 eax, DWORD PTR [esi+16]
  0000a	8b 4d 08	 mov	 ecx, DWORD PTR __Off$[ebp]
  0000d	3b c1		 cmp	 eax, ecx
  0000f	73 0b		 jae	 SHORT $LN3@erase

; 1111 : 			_Xran();	// _Off off end

  00011	68 00 00 00 00	 push	 OFFSET ??_C@_0BI@CFPLBAOH@invalid?5string?5position?$AA@
  00016	ff 15 00 00 00
	00		 call	 DWORD PTR __imp_?_Xout_of_range@std@@YAXPBD@Z
$LN28@erase:
$LN3@erase:

; 1112 : 		if (this->_Mysize - _Off < _Count)

  0001c	8b 5d 0c	 mov	 ebx, DWORD PTR __Count$[ebp]
  0001f	2b c1		 sub	 eax, ecx
  00021	3b c3		 cmp	 eax, ebx

; 1113 : 			_Count = this->_Mysize - _Off;	// trim _Count

  00023	0f 42 d8	 cmovb	 ebx, eax

; 1114 : 		if (0 < _Count)

  00026	85 db		 test	 ebx, ebx
  00028	74 47		 je	 SHORT $LN25@erase

; 1115 : 			{	// move elements down
; 1116 : 			_Traits::move(_Myptr() + _Off, _Myptr() + _Off + _Count,
; 1117 : 				this->_Mysize - _Off - _Count);

  0002a	8b 56 14	 mov	 edx, DWORD PTR [esi+20]
  0002d	57		 push	 edi
  0002e	83 fa 10	 cmp	 edx, 16			; 00000010H
  00031	72 04		 jb	 SHORT $LN11@erase
  00033	8b 3e		 mov	 edi, DWORD PTR [esi]
  00035	eb 02		 jmp	 SHORT $LN12@erase
$LN11@erase:
  00037	8b fe		 mov	 edi, esi
$LN12@erase:
  00039	83 fa 10	 cmp	 edx, 16			; 00000010H
  0003c	72 04		 jb	 SHORT $LN15@erase
  0003e	8b 16		 mov	 edx, DWORD PTR [esi]
  00040	eb 02		 jmp	 SHORT $LN16@erase
$LN15@erase:
  00042	8b d6		 mov	 edx, esi
$LN16@erase:
  00044	2b c3		 sub	 eax, ebx
  00046	03 f9		 add	 edi, ecx
  00048	50		 push	 eax
  00049	03 fb		 add	 edi, ebx
  0004b	03 d1		 add	 edx, ecx
  0004d	57		 push	 edi
  0004e	52		 push	 edx
  0004f	ff 15 00 00 00
	00		 call	 DWORD PTR __imp__memmove

; 1118 : 			size_type _Newsize = this->_Mysize - _Count;

  00055	8b 46 10	 mov	 eax, DWORD PTR [esi+16]
  00058	83 c4 0c	 add	 esp, 12			; 0000000cH
  0005b	2b c3		 sub	 eax, ebx

; 1119 : 			_Eos(_Newsize);

  0005d	83 7e 14 10	 cmp	 DWORD PTR [esi+20], 16	; 00000010H
  00061	89 46 10	 mov	 DWORD PTR [esi+16], eax
  00064	5f		 pop	 edi
  00065	72 04		 jb	 SHORT $LN23@erase
  00067	8b 0e		 mov	 ecx, DWORD PTR [esi]
  00069	eb 02		 jmp	 SHORT $LN24@erase
$LN23@erase:
  0006b	8b ce		 mov	 ecx, esi
$LN24@erase:
  0006d	c6 04 01 00	 mov	 BYTE PTR [ecx+eax], 0
$LN25@erase:

; 1120 : 			}
; 1121 : 		return (*this);

  00071	8b c6		 mov	 eax, esi
  00073	5e		 pop	 esi
  00074	5b		 pop	 ebx

; 1122 : 		}

  00075	5d		 pop	 ebp
  00076	c2 08 00	 ret	 8
$LN27@erase:
?erase@?$basic_string@DU?$char_traits@D@std@@V?$allocator@D@2@@std@@QAEAAV12@II@Z ENDP ; std::basic_string<char,std::char_traits<char>,std::allocator<char> >::erase
_TEXT	ENDS
PUBLIC	?_Destroy@?$vector@HV?$allocator@H@std@@@std@@IAEXPAH0@Z ; std::vector<int,std::allocator<int> >::_Destroy
; Function compile flags: /Ogsp
; File c:\program files (x86)\microsoft visual studio 10.0\vc\include\vector
;	COMDAT ?_Destroy@?$vector@HV?$allocator@H@std@@@std@@IAEXPAH0@Z
_TEXT	SEGMENT
__First$ = 8						; size = 4
__Last$ = 12						; size = 4
?_Destroy@?$vector@HV?$allocator@H@std@@@std@@IAEXPAH0@Z PROC ; std::vector<int,std::allocator<int> >::_Destroy, COMDAT
; _this$ = ecx

; 1270 : 		_Destroy_range(_First, _Last, this->_Alval);
; 1271 : 		}

  00000	c2 08 00	 ret	 8
?_Destroy@?$vector@HV?$allocator@H@std@@@std@@IAEXPAH0@Z ENDP ; std::vector<int,std::allocator<int> >::_Destroy
_TEXT	ENDS
PUBLIC	?_Make_iter@?$vector@KV?$allocator@K@std@@@std@@QBE?AV?$_Vector_iterator@V?$_Vector_val@KV?$allocator@K@std@@@std@@@2@V?$_Vector_const_iterator@V?$_Vector_val@KV?$allocator@K@std@@@std@@@2@@Z ; std::vector<unsigned long,std::allocator<unsigned long> >::_Make_iter
; Function compile flags: /Ogsp
;	COMDAT ?_Make_iter@?$vector@KV?$allocator@K@std@@@std@@QBE?AV?$_Vector_iterator@V?$_Vector_val@KV?$allocator@K@std@@@std@@@2@V?$_Vector_const_iterator@V?$_Vector_val@KV?$allocator@K@std@@@std@@@2@@Z
_TEXT	SEGMENT
___$ReturnUdt$ = 8					; size = 4
__Where$ = 12						; size = 4
?_Make_iter@?$vector@KV?$allocator@K@std@@@std@@QBE?AV?$_Vector_iterator@V?$_Vector_val@KV?$allocator@K@std@@@std@@@2@V?$_Vector_const_iterator@V?$_Vector_val@KV?$allocator@K@std@@@std@@@2@@Z PROC ; std::vector<unsigned long,std::allocator<unsigned long> >::_Make_iter, COMDAT
; _this$ = ecx

; 801  : 		{	// make iterator from const_iterator

  00000	55		 push	 ebp
  00001	8b ec		 mov	 ebp, esp

; 802  : 		return (iterator(_Where._Ptr, this));

  00003	8b 45 08	 mov	 eax, DWORD PTR ___$ReturnUdt$[ebp]
  00006	8b 4d 0c	 mov	 ecx, DWORD PTR __Where$[ebp]
  00009	89 08		 mov	 DWORD PTR [eax], ecx

; 803  : 		}

  0000b	5d		 pop	 ebp
  0000c	c2 08 00	 ret	 8
?_Make_iter@?$vector@KV?$allocator@K@std@@@std@@QBE?AV?$_Vector_iterator@V?$_Vector_val@KV?$allocator@K@std@@@std@@@2@V?$_Vector_const_iterator@V?$_Vector_val@KV?$allocator@K@std@@@std@@@2@@Z ENDP ; std::vector<unsigned long,std::allocator<unsigned long> >::_Make_iter
_TEXT	ENDS
PUBLIC	?_Destroy@?$vector@KV?$allocator@K@std@@@std@@IAEXPAK0@Z ; std::vector<unsigned long,std::allocator<unsigned long> >::_Destroy
; Function compile flags: /Ogsp
;	COMDAT ?_Destroy@?$vector@KV?$allocator@K@std@@@std@@IAEXPAK0@Z
_TEXT	SEGMENT
__First$ = 8						; size = 4
__Last$ = 12						; size = 4
?_Destroy@?$vector@KV?$allocator@K@std@@@std@@IAEXPAK0@Z PROC ; std::vector<unsigned long,std::allocator<unsigned long> >::_Destroy, COMDAT
; _this$ = ecx

; 1270 : 		_Destroy_range(_First, _Last, this->_Alval);
; 1271 : 		}

  00000	c2 08 00	 ret	 8
?_Destroy@?$vector@KV?$allocator@K@std@@@std@@IAEXPAK0@Z ENDP ; std::vector<unsigned long,std::allocator<unsigned long> >::_Destroy
_TEXT	ENDS
PUBLIC	??9?$_Vector_const_iterator@V?$_Vector_val@HV?$allocator@H@std@@@std@@@std@@QBE_NABV01@@Z ; std::_Vector_const_iterator<std::_Vector_val<int,std::allocator<int> > >::operator!=
; Function compile flags: /Ogsp
;	COMDAT ??9?$_Vector_const_iterator@V?$_Vector_val@HV?$allocator@H@std@@@std@@@std@@QBE_NABV01@@Z
_TEXT	SEGMENT
__Right$ = 8						; size = 4
??9?$_Vector_const_iterator@V?$_Vector_val@HV?$allocator@H@std@@@std@@@std@@QBE_NABV01@@Z PROC ; std::_Vector_const_iterator<std::_Vector_val<int,std::allocator<int> > >::operator!=, COMDAT
; _this$ = ecx

; 207  : 		{	// test for iterator inequality

  00000	55		 push	 ebp
  00001	8b ec		 mov	 ebp, esp

; 208  : 		return (!(*this == _Right));

  00003	8b 01		 mov	 eax, DWORD PTR [ecx]
  00005	8b 55 08	 mov	 edx, DWORD PTR __Right$[ebp]
  00008	33 c9		 xor	 ecx, ecx
  0000a	3b 02		 cmp	 eax, DWORD PTR [edx]
  0000c	0f 95 c0	 setne	 al

; 209  : 		}

  0000f	5d		 pop	 ebp
  00010	c2 04 00	 ret	 4
??9?$_Vector_const_iterator@V?$_Vector_val@HV?$allocator@H@std@@@std@@@std@@QBE_NABV01@@Z ENDP ; std::_Vector_const_iterator<std::_Vector_val<int,std::allocator<int> > >::operator!=
_TEXT	ENDS
PUBLIC	??9?$_Vector_const_iterator@V?$_Vector_val@VioHashString@@V?$allocator@VioHashString@@@std@@@std@@@std@@QBE_NABV01@@Z ; std::_Vector_const_iterator<std::_Vector_val<ioHashString,std::allocator<ioHashString> > >::operator!=
; Function compile flags: /Ogsp
;	COMDAT ??9?$_Vector_const_iterator@V?$_Vector_val@VioHashString@@V?$allocator@VioHashString@@@std@@@std@@@std@@QBE_NABV01@@Z
_TEXT	SEGMENT
__Right$ = 8						; size = 4
??9?$_Vector_const_iterator@V?$_Vector_val@VioHashString@@V?$allocator@VioHashString@@@std@@@std@@@std@@QBE_NABV01@@Z PROC ; std::_Vector_const_iterator<std::_Vector_val<ioHashString,std::allocator<ioHashString> > >::operator!=, COMDAT
; _this$ = ecx

; 207  : 		{	// test for iterator inequality

  00000	55		 push	 ebp
  00001	8b ec		 mov	 ebp, esp

; 208  : 		return (!(*this == _Right));

  00003	8b 01		 mov	 eax, DWORD PTR [ecx]
  00005	8b 55 08	 mov	 edx, DWORD PTR __Right$[ebp]
  00008	33 c9		 xor	 ecx, ecx
  0000a	3b 02		 cmp	 eax, DWORD PTR [edx]
  0000c	0f 95 c0	 setne	 al

; 209  : 		}

  0000f	5d		 pop	 ebp
  00010	c2 04 00	 ret	 4
??9?$_Vector_const_iterator@V?$_Vector_val@VioHashString@@V?$allocator@VioHashString@@@std@@@std@@@std@@QBE_NABV01@@Z ENDP ; std::_Vector_const_iterator<std::_Vector_val<ioHashString,std::allocator<ioHashString> > >::operator!=
_TEXT	ENDS
PUBLIC	??9?$_Vector_const_iterator@V?$_Vector_val@KV?$allocator@K@std@@@std@@@std@@QBE_NABV01@@Z ; std::_Vector_const_iterator<std::_Vector_val<unsigned long,std::allocator<unsigned long> > >::operator!=
; Function compile flags: /Ogsp
;	COMDAT ??9?$_Vector_const_iterator@V?$_Vector_val@KV?$allocator@K@std@@@std@@@std@@QBE_NABV01@@Z
_TEXT	SEGMENT
__Right$ = 8						; size = 4
??9?$_Vector_const_iterator@V?$_Vector_val@KV?$allocator@K@std@@@std@@@std@@QBE_NABV01@@Z PROC ; std::_Vector_const_iterator<std::_Vector_val<unsigned long,std::allocator<unsigned long> > >::operator!=, COMDAT
; _this$ = ecx

; 207  : 		{	// test for iterator inequality

  00000	55		 push	 ebp
  00001	8b ec		 mov	 ebp, esp

; 208  : 		return (!(*this == _Right));

  00003	8b 01		 mov	 eax, DWORD PTR [ecx]
  00005	8b 55 08	 mov	 edx, DWORD PTR __Right$[ebp]
  00008	33 c9		 xor	 ecx, ecx
  0000a	3b 02		 cmp	 eax, DWORD PTR [edx]
  0000c	0f 95 c0	 setne	 al

; 209  : 		}

  0000f	5d		 pop	 ebp
  00010	c2 04 00	 ret	 4
??9?$_Vector_const_iterator@V?$_Vector_val@KV?$allocator@K@std@@@std@@@std@@QBE_NABV01@@Z ENDP ; std::_Vector_const_iterator<std::_Vector_val<unsigned long,std::allocator<unsigned long> > >::operator!=
_TEXT	ENDS
PUBLIC	?_Copy@?$basic_string@DU?$char_traits@D@std@@V?$allocator@D@2@@std@@QAEXII@Z ; std::basic_string<char,std::char_traits<char>,std::allocator<char> >::_Copy
EXTRN	__EH_prolog3_catch:PROC
;	COMDAT xdata$x
; File c:\program files (x86)\microsoft visual studio 10.0\vc\include\iosfwd
xdata$x	SEGMENT
__catchsym$?_Copy@?$basic_string@DU?$char_traits@D@std@@V?$allocator@D@2@@std@@QAEXII@Z$5 DD 040H
	DD	00H
	DD	00H
	DD	FLAT:__catch$?_Copy@?$basic_string@DU?$char_traits@D@std@@V?$allocator@D@2@@std@@QAEXII@Z$0
__catchsym$?_Copy@?$basic_string@DU?$char_traits@D@std@@V?$allocator@D@2@@std@@QAEXII@Z$4 DD 040H
	DD	00H
	DD	00H
	DD	FLAT:__catch$?_Copy@?$basic_string@DU?$char_traits@D@std@@V?$allocator@D@2@@std@@QAEXII@Z$1
__unwindtable$?_Copy@?$basic_string@DU?$char_traits@D@std@@V?$allocator@D@2@@std@@QAEXII@Z DD 0ffffffffH
	DD	00H
	DD	0ffffffffH
	DD	00H
	DD	01H
	DD	00H
	DD	01H
	DD	00H
__ehfuncinfo$?_Copy@?$basic_string@DU?$char_traits@D@std@@V?$allocator@D@2@@std@@QAEXII@Z DD 019930522H
	DD	04H
	DD	FLAT:__unwindtable$?_Copy@?$basic_string@DU?$char_traits@D@std@@V?$allocator@D@2@@std@@QAEXII@Z
	DD	02H
	DD	FLAT:__tryblocktable$?_Copy@?$basic_string@DU?$char_traits@D@std@@V?$allocator@D@2@@std@@QAEXII@Z
	DD	2 DUP(00H)
	DD	00H
	DD	01H
__tryblocktable$?_Copy@?$basic_string@DU?$char_traits@D@std@@V?$allocator@D@2@@std@@QAEXII@Z DD 02H
	DD	02H
	DD	03H
	DD	01H
	DD	FLAT:__catchsym$?_Copy@?$basic_string@DU?$char_traits@D@std@@V?$allocator@D@2@@std@@QAEXII@Z$4
	DD	00H
	DD	00H
	DD	03H
	DD	01H
	DD	FLAT:__catchsym$?_Copy@?$basic_string@DU?$char_traits@D@std@@V?$allocator@D@2@@std@@QAEXII@Z$5
; Function compile flags: /Ogsp
; File c:\program files (x86)\microsoft visual studio 10.0\vc\include\xstring
xdata$x	ENDS
;	COMDAT ?_Copy@?$basic_string@DU?$char_traits@D@std@@V?$allocator@D@2@@std@@QAEXII@Z
_TEXT	SEGMENT
_this$ = -24						; size = 4
tv296 = -20						; size = 4
__Newres$ = -20						; size = 4
__$EHRec$ = -16						; size = 16
__Ptr$ = 8						; size = 4
__Newsize$ = 8						; size = 4
__Oldlen$ = 12						; size = 4
?_Copy@?$basic_string@DU?$char_traits@D@std@@V?$allocator@D@2@@std@@QAEXII@Z PROC ; std::basic_string<char,std::char_traits<char>,std::allocator<char> >::_Copy, COMDAT
; _this$ = ecx

; 1919 : 		{	// copy _Oldlen elements to newly allocated buffer

  00000	6a 0c		 push	 12			; 0000000cH
  00002	b8 00 00 00 00	 mov	 eax, __ehhandler$?_Copy@?$basic_string@DU?$char_traits@D@std@@V?$allocator@D@2@@std@@QAEXII@Z
  00007	e8 00 00 00 00	 call	 __EH_prolog3_catch
  0000c	8b f1		 mov	 esi, ecx
  0000e	89 75 e8	 mov	 DWORD PTR _this$[ebp], esi

; 1920 : 		size_type _Newres = _Newsize | this->_ALLOC_MASK;

  00011	8b 7d 08	 mov	 edi, DWORD PTR __Newsize$[ebp]
  00014	83 cf 0f	 or	 edi, 15			; 0000000fH

; 1921 : 		if (max_size() < _Newres)

  00017	83 ff fe	 cmp	 edi, -2			; fffffffeH
  0001a	76 05		 jbe	 SHORT $LN9@Copy

; 1922 : 			_Newres = _Newsize;	// undo roundup if too big

  0001c	8b 7d 08	 mov	 edi, DWORD PTR __Newsize$[ebp]
  0001f	eb 27		 jmp	 SHORT $LN5@Copy
$LN9@Copy:

; 1923 : 		else if (this->_Myres / 2 <= _Newres / 3)

  00021	33 d2		 xor	 edx, edx
  00023	6a 03		 push	 3
  00025	8b c7		 mov	 eax, edi
  00027	5b		 pop	 ebx
  00028	f7 f3		 div	 ebx
  0002a	8b 4e 14	 mov	 ecx, DWORD PTR [esi+20]
  0002d	89 4d ec	 mov	 DWORD PTR tv296[ebp], ecx
  00030	d1 6d ec	 shr	 DWORD PTR tv296[ebp], 1
  00033	8b 55 ec	 mov	 edx, DWORD PTR tv296[ebp]
  00036	3b d0		 cmp	 edx, eax
  00038	76 0e		 jbe	 SHORT $LN5@Copy

; 1924 : 			;
; 1925 : 		else if (this->_Myres <= max_size() - this->_Myres / 2)

  0003a	6a fe		 push	 -2			; fffffffeH
  0003c	5f		 pop	 edi
  0003d	8b c7		 mov	 eax, edi
  0003f	2b c2		 sub	 eax, edx
  00041	3b c8		 cmp	 ecx, eax
  00043	77 03		 ja	 SHORT $LN5@Copy

; 1926 : 			_Newres = this->_Myres
; 1927 : 				+ this->_Myres / 2;	// grow exponentially if possible

  00045	8d 3c 0a	 lea	 edi, DWORD PTR [edx+ecx]
$LN5@Copy:

; 1928 : 		else
; 1929 : 			_Newres = max_size();	// settle for max_size()
; 1930 : 
; 1931 : 		_Elem *_Ptr;
; 1932 : 		_TRY_BEGIN

  00048	83 65 fc 00	 and	 DWORD PTR __$EHRec$[ebp+12], 0

; 1933 : 			_Ptr = this->_Alval.allocate(_Newres + 1);

  0004c	8d 47 01	 lea	 eax, DWORD PTR [edi+1]
  0004f	6a 00		 push	 0
  00051	50		 push	 eax
  00052	e8 00 00 00 00	 call	 ??$_Allocate@D@std@@YAPADIPAD@Z ; std::_Allocate<char>
  00057	59		 pop	 ecx
  00058	59		 pop	 ecx
  00059	89 45 08	 mov	 DWORD PTR __Ptr$[ebp], eax
  0005c	eb 27		 jmp	 SHORT $LN19@Copy
__catch$?_Copy@?$basic_string@DU?$char_traits@D@std@@V?$allocator@D@2@@std@@QAEXII@Z$0:

; 1934 : 		_CATCH_ALL
; 1935 : 			_Newres = _Newsize;	// allocation failed, undo roundup and retry

  0005e	8b 45 08	 mov	 eax, DWORD PTR __Newsize$[ebp]
  00061	89 65 f0	 mov	 DWORD PTR __$EHRec$[ebp], esp
  00064	89 45 ec	 mov	 DWORD PTR __Newres$[ebp], eax

; 1936 : 			_TRY_BEGIN
; 1937 : 				_Ptr = this->_Alval.allocate(_Newres + 1);

  00067	40		 inc	 eax
  00068	6a 00		 push	 0
  0006a	50		 push	 eax
  0006b	c6 45 fc 02	 mov	 BYTE PTR __$EHRec$[ebp+12], 2
  0006f	e8 00 00 00 00	 call	 ??$_Allocate@D@std@@YAPADIPAD@Z ; std::_Allocate<char>
  00074	59		 pop	 ecx
  00075	89 45 08	 mov	 DWORD PTR __Ptr$[ebp], eax
  00078	59		 pop	 ecx

; 1941 : 			_CATCH_END
; 1942 : 		_CATCH_END

  00079	b8 00 00 00 00	 mov	 eax, $LN63@Copy
  0007e	c3		 ret	 0
$LN63@Copy:
  0007f	8b 75 e8	 mov	 esi, DWORD PTR _this$[ebp]
  00082	8b 7d ec	 mov	 edi, DWORD PTR __Newres$[ebp]
$LN19@Copy:

; 1943 : 
; 1944 : 		if (0 < _Oldlen)

  00085	8b 5d 0c	 mov	 ebx, DWORD PTR __Oldlen$[ebp]
  00088	85 db		 test	 ebx, ebx
  0008a	74 19		 je	 SHORT $LN52@Copy

; 1945 : 			_Traits::copy(_Ptr, _Myptr(), _Oldlen);	// copy existing elements

  0008c	83 7e 14 10	 cmp	 DWORD PTR [esi+20], 16	; 00000010H
  00090	72 04		 jb	 SHORT $LN50@Copy
  00092	8b 06		 mov	 eax, DWORD PTR [esi]
  00094	eb 02		 jmp	 SHORT $LN51@Copy
$LN50@Copy:
  00096	8b c6		 mov	 eax, esi
$LN51@Copy:
  00098	53		 push	 ebx
  00099	50		 push	 eax
  0009a	ff 75 08	 push	 DWORD PTR __Ptr$[ebp]
  0009d	e8 00 00 00 00	 call	 _memcpy
  000a2	83 c4 0c	 add	 esp, 12			; 0000000cH
$LN52@Copy:

; 1946 : 		_Tidy(true);

  000a5	6a 00		 push	 0
  000a7	6a 01		 push	 1
  000a9	8b ce		 mov	 ecx, esi
  000ab	e8 00 00 00 00	 call	 ?_Tidy@?$basic_string@DU?$char_traits@D@std@@V?$allocator@D@2@@std@@QAEX_NI@Z ; std::basic_string<char,std::char_traits<char>,std::allocator<char> >::_Tidy

; 1947 : 		this->_Bx._Ptr = _Ptr;

  000b0	8b 45 08	 mov	 eax, DWORD PTR __Ptr$[ebp]
  000b3	89 06		 mov	 DWORD PTR [esi], eax

; 1948 : 		this->_Myres = _Newres;
; 1949 : 		_Eos(_Oldlen);

  000b5	83 ff 10	 cmp	 edi, 16			; 00000010H
  000b8	89 7e 14	 mov	 DWORD PTR [esi+20], edi
  000bb	89 5e 10	 mov	 DWORD PTR [esi+16], ebx
  000be	0f 42 c6	 cmovb	 eax, esi
  000c1	c6 04 18 00	 mov	 BYTE PTR [eax+ebx], 0

; 1950 : 		}

  000c5	e8 00 00 00 00	 call	 __EH_epilog3
  000ca	c2 08 00	 ret	 8
__catch$?_Copy@?$basic_string@DU?$char_traits@D@std@@V?$allocator@D@2@@std@@QAEXII@Z$1:

; 1938 : 			_CATCH_ALL
; 1939 : 			_Tidy(true);	// failed again, discard storage and reraise

  000cd	8b 4d e8	 mov	 ecx, DWORD PTR _this$[ebp]
  000d0	33 f6		 xor	 esi, esi
  000d2	56		 push	 esi
  000d3	6a 01		 push	 1
  000d5	e8 00 00 00 00	 call	 ?_Tidy@?$basic_string@DU?$char_traits@D@std@@V?$allocator@D@2@@std@@QAEX_NI@Z ; std::basic_string<char,std::char_traits<char>,std::allocator<char> >::_Tidy

; 1940 : 			_RERAISE;

  000da	56		 push	 esi
  000db	56		 push	 esi
  000dc	e8 00 00 00 00	 call	 __CxxThrowException@8
$LN67@Copy:
$LN66@Copy:
  000e1	cc		 int	 3
_TEXT	ENDS
;	COMDAT text$x
text$x	SEGMENT
__ehhandler$?_Copy@?$basic_string@DU?$char_traits@D@std@@V?$allocator@D@2@@std@@QAEXII@Z:
  00000	8b 54 24 08	 mov	 edx, DWORD PTR [esp+8]
  00004	8d 42 0c	 lea	 eax, DWORD PTR [edx+12]
  00007	8b 4a e4	 mov	 ecx, DWORD PTR [edx-28]
  0000a	33 c8		 xor	 ecx, eax
  0000c	e8 00 00 00 00	 call	 @__security_check_cookie@4
  00011	b8 00 00 00 00	 mov	 eax, OFFSET __ehfuncinfo$?_Copy@?$basic_string@DU?$char_traits@D@std@@V?$allocator@D@2@@std@@QAEXII@Z
  00016	e9 00 00 00 00	 jmp	 ___CxxFrameHandler3
text$x	ENDS
?_Copy@?$basic_string@DU?$char_traits@D@std@@V?$allocator@D@2@@std@@QAEXII@Z ENDP ; std::basic_string<char,std::char_traits<char>,std::allocator<char> >::_Copy
PUBLIC	??$_Cons_val@V?$allocator@K@std@@KABK@std@@YAXAAV?$allocator@K@0@PAKABK@Z ; std::_Cons_val<std::allocator<unsigned long>,unsigned long,unsigned long const &>
; Function compile flags: /Ogsp
; File c:\program files (x86)\microsoft visual studio 10.0\vc\include\xmemory
;	COMDAT ??$_Cons_val@V?$allocator@K@std@@KABK@std@@YAXAAV?$allocator@K@0@PAKABK@Z
_TEXT	SEGMENT
__Alval$ = 8						; size = 4
__Pdest$ = 12						; size = 4
__Src$ = 16						; size = 4
??$_Cons_val@V?$allocator@K@std@@KABK@std@@YAXAAV?$allocator@K@0@PAKABK@Z PROC ; std::_Cons_val<std::allocator<unsigned long>,unsigned long,unsigned long const &>, COMDAT

; 279  : 	{	// construct using allocator

  00000	55		 push	 ebp
  00001	8b ec		 mov	 ebp, esp

; 280  : 	_Alval.construct(_Pdest, _STD forward<_Ty2>(_Src));

  00003	8b 45 0c	 mov	 eax, DWORD PTR __Pdest$[ebp]
  00006	85 c0		 test	 eax, eax
  00008	74 07		 je	 SHORT $LN9@Cons_val@6
  0000a	8b 4d 10	 mov	 ecx, DWORD PTR __Src$[ebp]
  0000d	8b 09		 mov	 ecx, DWORD PTR [ecx]
  0000f	89 08		 mov	 DWORD PTR [eax], ecx
$LN9@Cons_val@6:

; 281  : 	}

  00011	5d		 pop	 ebp
  00012	c3		 ret	 0
??$_Cons_val@V?$allocator@K@std@@KABK@std@@YAXAAV?$allocator@K@0@PAKABK@Z ENDP ; std::_Cons_val<std::allocator<unsigned long>,unsigned long,unsigned long const &>
_TEXT	ENDS
PUBLIC	??$_Move@PAVioHashString@@PAV1@@std@@YAPAVioHashString@@PAV1@00@Z ; std::_Move<ioHashString *,ioHashString *>
; Function compile flags: /Ogsp
; File c:\program files (x86)\microsoft visual studio 10.0\vc\include\xutility
;	COMDAT ??$_Move@PAVioHashString@@PAV1@@std@@YAPAVioHashString@@PAV1@00@Z
_TEXT	SEGMENT
__Cat$556578 = -4					; size = 1
__First$ = 8						; size = 4
__Last$ = 12						; size = 4
__Dest$ = 16						; size = 4
??$_Move@PAVioHashString@@PAV1@@std@@YAPAVioHashString@@PAV1@00@Z PROC ; std::_Move<ioHashString *,ioHashString *>, COMDAT

; 2533 : 	{	// move [_First, _Last) to [_Dest, ...), unchecked

  00000	55		 push	 ebp
  00001	8b ec		 mov	 ebp, esp
  00003	51		 push	 ecx

; 2534 : 	return (_Move(_First, _Last,
; 2535 : 		_Dest, _Ptr_cat(_First, _Dest)));

  00004	ff 75 fc	 push	 DWORD PTR __Cat$556578[ebp]
  00007	ff 75 10	 push	 DWORD PTR __Dest$[ebp]
  0000a	ff 75 0c	 push	 DWORD PTR __Last$[ebp]
  0000d	ff 75 08	 push	 DWORD PTR __First$[ebp]
  00010	e8 00 00 00 00	 call	 ??$_Move@PAVioHashString@@PAV1@@std@@YAPAVioHashString@@PAV1@00U_Nonscalar_ptr_iterator_tag@0@@Z ; std::_Move<ioHashString *,ioHashString *>
  00015	83 c4 10	 add	 esp, 16			; 00000010H

; 2536 : 	}

  00018	c9		 leave
  00019	c3		 ret	 0
??$_Move@PAVioHashString@@PAV1@@std@@YAPAVioHashString@@PAV1@00@Z ENDP ; std::_Move<ioHashString *,ioHashString *>
_TEXT	ENDS
PUBLIC	??$_Umove@PAH@?$vector@HV?$allocator@H@std@@@std@@IAEPAHPAH00@Z ; std::vector<int,std::allocator<int> >::_Umove<int *>
; Function compile flags: /Ogsp
; File c:\program files (x86)\microsoft visual studio 10.0\vc\include\vector
;	COMDAT ??$_Umove@PAH@?$vector@HV?$allocator@H@std@@@std@@IAEPAHPAH00@Z
_TEXT	SEGMENT
__First$ = 8						; size = 4
__Last$ = 12						; size = 4
__Ptr$ = 16						; size = 4
??$_Umove@PAH@?$vector@HV?$allocator@H@std@@@std@@IAEPAHPAH00@Z PROC ; std::vector<int,std::allocator<int> >::_Umove<int *>, COMDAT
; _this$ = ecx

; 1322 : 		pointer _Umove(_Iter _First, _Iter _Last, pointer _Ptr)

  00000	55		 push	 ebp
  00001	8b ec		 mov	 ebp, esp

; 1323 : 		{	// move initializing [_First, _Last), using allocator
; 1324 : 		return (_Uninitialized_move(_First, _Last,
; 1325 : 			_Ptr, this->_Alval));

  00003	83 c1 0c	 add	 ecx, 12			; 0000000cH
  00006	51		 push	 ecx
  00007	ff 75 10	 push	 DWORD PTR __Ptr$[ebp]
  0000a	ff 75 0c	 push	 DWORD PTR __Last$[ebp]
  0000d	ff 75 08	 push	 DWORD PTR __First$[ebp]
  00010	e8 00 00 00 00	 call	 ??$_Uninitialized_move@PAHPAHV?$allocator@H@std@@@std@@YAPAHPAH00AAV?$allocator@H@0@@Z ; std::_Uninitialized_move<int *,int *,std::allocator<int> >
  00015	83 c4 10	 add	 esp, 16			; 00000010H

; 1326 : 		}

  00018	5d		 pop	 ebp
  00019	c2 0c 00	 ret	 12			; 0000000cH
??$_Umove@PAH@?$vector@HV?$allocator@H@std@@@std@@IAEPAHPAH00@Z ENDP ; std::vector<int,std::allocator<int> >::_Umove<int *>
_TEXT	ENDS
PUBLIC	??$_Umove@PAK@?$vector@KV?$allocator@K@std@@@std@@IAEPAKPAK00@Z ; std::vector<unsigned long,std::allocator<unsigned long> >::_Umove<unsigned long *>
; Function compile flags: /Ogsp
;	COMDAT ??$_Umove@PAK@?$vector@KV?$allocator@K@std@@@std@@IAEPAKPAK00@Z
_TEXT	SEGMENT
__First$ = 8						; size = 4
__Last$ = 12						; size = 4
__Ptr$ = 16						; size = 4
??$_Umove@PAK@?$vector@KV?$allocator@K@std@@@std@@IAEPAKPAK00@Z PROC ; std::vector<unsigned long,std::allocator<unsigned long> >::_Umove<unsigned long *>, COMDAT
; _this$ = ecx

; 1322 : 		pointer _Umove(_Iter _First, _Iter _Last, pointer _Ptr)

  00000	55		 push	 ebp
  00001	8b ec		 mov	 ebp, esp

; 1323 : 		{	// move initializing [_First, _Last), using allocator
; 1324 : 		return (_Uninitialized_move(_First, _Last,
; 1325 : 			_Ptr, this->_Alval));

  00003	83 c1 0c	 add	 ecx, 12			; 0000000cH
  00006	51		 push	 ecx
  00007	ff 75 10	 push	 DWORD PTR __Ptr$[ebp]
  0000a	ff 75 0c	 push	 DWORD PTR __Last$[ebp]
  0000d	ff 75 08	 push	 DWORD PTR __First$[ebp]
  00010	e8 00 00 00 00	 call	 ??$_Uninitialized_move@PAKPAKV?$allocator@K@std@@@std@@YAPAKPAK00AAV?$allocator@K@0@@Z ; std::_Uninitialized_move<unsigned long *,unsigned long *,std::allocator<unsigned long> >
  00015	83 c4 10	 add	 esp, 16			; 00000010H

; 1326 : 		}

  00018	5d		 pop	 ebp
  00019	c2 0c 00	 ret	 12			; 0000000cH
??$_Umove@PAK@?$vector@KV?$allocator@K@std@@@std@@IAEPAKPAK00@Z ENDP ; std::vector<unsigned long,std::allocator<unsigned long> >::_Umove<unsigned long *>
_TEXT	ENDS
PUBLIC	?destroy@?$allocator@VioHashString@@@std@@QAEXPAVioHashString@@@Z ; std::allocator<ioHashString>::destroy
; Function compile flags: /Ogsp
; File c:\program files (x86)\microsoft visual studio 10.0\vc\include\xmemory
;	COMDAT ?destroy@?$allocator@VioHashString@@@std@@QAEXPAVioHashString@@@Z
_TEXT	SEGMENT
__Ptr$ = 8						; size = 4
?destroy@?$allocator@VioHashString@@@std@@QAEXPAVioHashString@@@Z PROC ; std::allocator<ioHashString>::destroy, COMDAT
; _this$ = ecx

; 212  : 		{	// destroy object at _Ptr

  00000	55		 push	 ebp
  00001	8b ec		 mov	 ebp, esp

; 213  : 		_Destroy(_Ptr);

  00003	8b 4d 08	 mov	 ecx, DWORD PTR __Ptr$[ebp]
  00006	ff 15 00 00 00
	00		 call	 DWORD PTR __imp_??1ioHashString@@QAE@XZ

; 214  : 		}

  0000c	5d		 pop	 ebp
  0000d	c2 04 00	 ret	 4
?destroy@?$allocator@VioHashString@@@std@@QAEXPAVioHashString@@@Z ENDP ; std::allocator<ioHashString>::destroy
_TEXT	ENDS
PUBLIC	??$_Cons_val@V?$allocator@VioHashString@@@std@@VioHashString@@ABV3@@std@@YAXAAV?$allocator@VioHashString@@@0@PAVioHashString@@ABV2@@Z ; std::_Cons_val<std::allocator<ioHashString>,ioHashString,ioHashString const &>
; Function compile flags: /Ogsp
;	COMDAT ??$_Cons_val@V?$allocator@VioHashString@@@std@@VioHashString@@ABV3@@std@@YAXAAV?$allocator@VioHashString@@@0@PAVioHashString@@ABV2@@Z
_TEXT	SEGMENT
__Alval$ = 8						; size = 4
__Pdest$ = 12						; size = 4
__Src$ = 16						; size = 4
??$_Cons_val@V?$allocator@VioHashString@@@std@@VioHashString@@ABV3@@std@@YAXAAV?$allocator@VioHashString@@@0@PAVioHashString@@ABV2@@Z PROC ; std::_Cons_val<std::allocator<ioHashString>,ioHashString,ioHashString const &>, COMDAT

; 279  : 	{	// construct using allocator

  00000	55		 push	 ebp
  00001	8b ec		 mov	 ebp, esp

; 280  : 	_Alval.construct(_Pdest, _STD forward<_Ty2>(_Src));

  00003	ff 75 10	 push	 DWORD PTR __Src$[ebp]
  00006	ff 75 0c	 push	 DWORD PTR __Pdest$[ebp]
  00009	e8 00 00 00 00	 call	 ??$_Construct@VioHashString@@ABV1@@std@@YAXPAVioHashString@@ABV1@@Z ; std::_Construct<ioHashString,ioHashString const &>
  0000e	59		 pop	 ecx
  0000f	59		 pop	 ecx

; 281  : 	}

  00010	5d		 pop	 ebp
  00011	c3		 ret	 0
??$_Cons_val@V?$allocator@VioHashString@@@std@@VioHashString@@ABV3@@std@@YAXAAV?$allocator@VioHashString@@@0@PAVioHashString@@ABV2@@Z ENDP ; std::_Cons_val<std::allocator<ioHashString>,ioHashString,ioHashString const &>
_TEXT	ENDS
PUBLIC	?RefreshUserInfo@UserInfoToolTip@@QAEXABVioHashString@@@Z ; UserInfoToolTip::RefreshUserInfo
EXTRN	__imp_??8ioHashString@@QBE_NABV0@@Z:PROC
; Function compile flags: /Ogsp
; File d:\lost saga for developer\youtube\tutorial\source\src\lsclient\gui\userinfotooltip.cpp
;	COMDAT ?RefreshUserInfo@UserInfoToolTip@@QAEXABVioHashString@@@Z
_TEXT	SEGMENT
_szName$ = 8						; size = 4
?RefreshUserInfo@UserInfoToolTip@@QAEXABVioHashString@@@Z PROC ; UserInfoToolTip::RefreshUserInfo, COMDAT
; _this$ = ecx

; 1240 : {

  00000	55		 push	 ebp
  00001	8b ec		 mov	 ebp, esp

; 1241 : 	if( szName.IsEmpty() )

  00003	8b 4d 08	 mov	 ecx, DWORD PTR _szName$[ebp]
  00006	ff 15 00 00 00
	00		 call	 DWORD PTR __imp_?IsEmpty@ioHashString@@QBE_NXZ
  0000c	84 c0		 test	 al, al
  0000e	75 3a		 jne	 SHORT $LN2@RefreshUse

; 1242 : 		return;	
; 1243 : 
; 1244 : 	for(vUserInfo::iterator iter = m_vUserInfo.begin(); iter != m_vUserInfo.end(); ++iter)

  00010	57		 push	 edi
  00011	8b 3d 00 00 00
	00		 mov	 edi, DWORD PTR ?m_vUserInfo@UserInfoToolTip@@1V?$vector@PAUUserInfo@UserInfoToolTip@@V?$allocator@PAUUserInfo@UserInfoToolTip@@@std@@@std@@A
  00017	3b 3d 04 00 00
	00		 cmp	 edi, DWORD PTR ?m_vUserInfo@UserInfoToolTip@@1V?$vector@PAUUserInfo@UserInfoToolTip@@V?$allocator@PAUUserInfo@UserInfoToolTip@@@std@@@std@@A+4
  0001d	74 2a		 je	 SHORT $LN41@RefreshUse
  0001f	56		 push	 esi
$LL18@RefreshUse:

; 1245 : 	{
; 1246 : 		UserInfo *pInfo = *iter;

  00020	8b 37		 mov	 esi, DWORD PTR [edi]

; 1247 : 		if( pInfo && pInfo->m_sName == szName )

  00022	85 f6		 test	 esi, esi
  00024	74 17		 je	 SHORT $LN3@RefreshUse
  00026	ff 75 08	 push	 DWORD PTR _szName$[ebp]
  00029	8d 4e 08	 lea	 ecx, DWORD PTR [esi+8]
  0002c	ff 15 00 00 00
	00		 call	 DWORD PTR __imp_??8ioHashString@@QBE_NABV0@@Z
  00032	84 c0		 test	 al, al
  00034	74 07		 je	 SHORT $LN3@RefreshUse

; 1248 : 		{
; 1249 : 			pInfo->m_bMustSync = true;

  00036	c6 86 88 00 00
	00 01		 mov	 BYTE PTR [esi+136], 1
$LN3@RefreshUse:

; 1242 : 		return;	
; 1243 : 
; 1244 : 	for(vUserInfo::iterator iter = m_vUserInfo.begin(); iter != m_vUserInfo.end(); ++iter)

  0003d	83 c7 04	 add	 edi, 4
  00040	3b 3d 04 00 00
	00		 cmp	 edi, DWORD PTR ?m_vUserInfo@UserInfoToolTip@@1V?$vector@PAUUserInfo@UserInfoToolTip@@V?$allocator@PAUUserInfo@UserInfoToolTip@@@std@@@std@@A+4
  00046	75 d8		 jne	 SHORT $LL18@RefreshUse
  00048	5e		 pop	 esi
$LN41@RefreshUse:
  00049	5f		 pop	 edi
$LN2@RefreshUse:

; 1250 : 		}
; 1251 : 	}
; 1252 : }

  0004a	5d		 pop	 ebp
  0004b	c2 04 00	 ret	 4
?RefreshUserInfo@UserInfoToolTip@@QAEXABVioHashString@@@Z ENDP ; UserInfoToolTip::RefreshUserInfo
_TEXT	ENDS
PUBLIC	??1?$vector@PAUUserInfo@UserInfoToolTip@@V?$allocator@PAUUserInfo@UserInfoToolTip@@@std@@@std@@QAE@XZ ; std::vector<UserInfoToolTip::UserInfo *,std::allocator<UserInfoToolTip::UserInfo *> >::~vector<UserInfoToolTip::UserInfo *,std::allocator<UserInfoToolTip::UserInfo *> >
; Function compile flags: /Ogsp
; File c:\program files (x86)\microsoft visual studio 10.0\vc\include\vector
;	COMDAT ??1?$vector@PAUUserInfo@UserInfoToolTip@@V?$allocator@PAUUserInfo@UserInfoToolTip@@@std@@@std@@QAE@XZ
_TEXT	SEGMENT
??1?$vector@PAUUserInfo@UserInfoToolTip@@V?$allocator@PAUUserInfo@UserInfoToolTip@@@std@@@std@@QAE@XZ PROC ; std::vector<UserInfoToolTip::UserInfo *,std::allocator<UserInfoToolTip::UserInfo *> >::~vector<UserInfoToolTip::UserInfo *,std::allocator<UserInfoToolTip::UserInfo *> >, COMDAT
; _this$ = ecx

; 705  : 		_Tidy();

  00000	e9 00 00 00 00	 jmp	 ?_Tidy@?$vector@PAUUserInfo@UserInfoToolTip@@V?$allocator@PAUUserInfo@UserInfoToolTip@@@std@@@std@@IAEXXZ ; std::vector<UserInfoToolTip::UserInfo *,std::allocator<UserInfoToolTip::UserInfo *> >::_Tidy
??1?$vector@PAUUserInfo@UserInfoToolTip@@V?$allocator@PAUUserInfo@UserInfoToolTip@@@std@@@std@@QAE@XZ ENDP ; std::vector<UserInfoToolTip::UserInfo *,std::allocator<UserInfoToolTip::UserInfo *> >::~vector<UserInfoToolTip::UserInfo *,std::allocator<UserInfoToolTip::UserInfo *> >
_TEXT	ENDS
PUBLIC	?erase@?$vector@PAUUserInfo@UserInfoToolTip@@V?$allocator@PAUUserInfo@UserInfoToolTip@@@std@@@std@@QAE?AV?$_Vector_iterator@V?$_Vector_val@PAUUserInfo@UserInfoToolTip@@V?$allocator@PAUUserInfo@UserInfoToolTip@@@std@@@std@@@2@V?$_Vector_const_iterator@V?$_Vector_val@PAUUserInfo@UserInfoToolTip@@V?$allocator@PAUUserInfo@UserInfoToolTip@@@std@@@std@@@2@@Z ; std::vector<UserInfoToolTip::UserInfo *,std::allocator<UserInfoToolTip::UserInfo *> >::erase
; Function compile flags: /Ogsp
;	COMDAT ?erase@?$vector@PAUUserInfo@UserInfoToolTip@@V?$allocator@PAUUserInfo@UserInfoToolTip@@@std@@@std@@QAE?AV?$_Vector_iterator@V?$_Vector_val@PAUUserInfo@UserInfoToolTip@@V?$allocator@PAUUserInfo@UserInfoToolTip@@@std@@@std@@@2@V?$_Vector_const_iterator@V?$_Vector_val@PAUUserInfo@UserInfoToolTip@@V?$allocator@PAUUserInfo@UserInfoToolTip@@@std@@@std@@@2@@Z
_TEXT	SEGMENT
___$ReturnUdt$ = 8					; size = 4
__Cat$556711 = 12					; size = 1
__Where$ = 12						; size = 4
?erase@?$vector@PAUUserInfo@UserInfoToolTip@@V?$allocator@PAUUserInfo@UserInfoToolTip@@@std@@@std@@QAE?AV?$_Vector_iterator@V?$_Vector_val@PAUUserInfo@UserInfoToolTip@@V?$allocator@PAUUserInfo@UserInfoToolTip@@@std@@@std@@@2@V?$_Vector_const_iterator@V?$_Vector_val@PAUUserInfo@UserInfoToolTip@@V?$allocator@PAUUserInfo@UserInfoToolTip@@@std@@@std@@@2@@Z PROC ; std::vector<UserInfoToolTip::UserInfo *,std::allocator<UserInfoToolTip::UserInfo *> >::erase, COMDAT
; _this$ = ecx

; 1179 : 		{	// erase element at where

  00000	55		 push	 ebp
  00001	8b ec		 mov	 ebp, esp

; 1180 : 		_Move(_VIPTR(_Where) + 1, this->_Mylast,
; 1181 : 			_VIPTR(_Where));

  00003	8b 45 0c	 mov	 eax, DWORD PTR __Where$[ebp]
  00006	56		 push	 esi
  00007	ff 75 0c	 push	 DWORD PTR __Cat$556711[ebp]
  0000a	8b f1		 mov	 esi, ecx
  0000c	50		 push	 eax
  0000d	ff 76 04	 push	 DWORD PTR [esi+4]
  00010	83 c0 04	 add	 eax, 4
  00013	50		 push	 eax
  00014	e8 00 00 00 00	 call	 ??$_Move@PAPAUUserInfo@UserInfoToolTip@@PAPAU12@@std@@YAPAPAUUserInfo@UserInfoToolTip@@PAPAU12@00U_Scalar_ptr_iterator_tag@0@@Z ; std::_Move<UserInfoToolTip::UserInfo * *,UserInfoToolTip::UserInfo * *>

; 1182 : 		_Destroy(this->_Mylast - 1, this->_Mylast);
; 1183 : 		--this->_Mylast;
; 1184 : 		return (_Make_iter(_Where));

  00019	8b 45 08	 mov	 eax, DWORD PTR ___$ReturnUdt$[ebp]
  0001c	8b 4d 0c	 mov	 ecx, DWORD PTR __Where$[ebp]
  0001f	83 c4 10	 add	 esp, 16			; 00000010H
  00022	83 46 04 fc	 add	 DWORD PTR [esi+4], -4	; fffffffcH
  00026	89 08		 mov	 DWORD PTR [eax], ecx
  00028	5e		 pop	 esi

; 1185 : 		}

  00029	5d		 pop	 ebp
  0002a	c2 08 00	 ret	 8
?erase@?$vector@PAUUserInfo@UserInfoToolTip@@V?$allocator@PAUUserInfo@UserInfoToolTip@@@std@@@std@@QAE?AV?$_Vector_iterator@V?$_Vector_val@PAUUserInfo@UserInfoToolTip@@V?$allocator@PAUUserInfo@UserInfoToolTip@@@std@@@std@@@2@V?$_Vector_const_iterator@V?$_Vector_val@PAUUserInfo@UserInfoToolTip@@V?$allocator@PAUUserInfo@UserInfoToolTip@@@std@@@std@@@2@@Z ENDP ; std::vector<UserInfoToolTip::UserInfo *,std::allocator<UserInfoToolTip::UserInfo *> >::erase
_TEXT	ENDS
PUBLIC	?erase@?$vector@PAUUserInfo@UserInfoToolTip@@V?$allocator@PAUUserInfo@UserInfoToolTip@@@std@@@std@@QAE?AV?$_Vector_iterator@V?$_Vector_val@PAUUserInfo@UserInfoToolTip@@V?$allocator@PAUUserInfo@UserInfoToolTip@@@std@@@std@@@2@V?$_Vector_const_iterator@V?$_Vector_val@PAUUserInfo@UserInfoToolTip@@V?$allocator@PAUUserInfo@UserInfoToolTip@@@std@@@std@@@2@0@Z ; std::vector<UserInfoToolTip::UserInfo *,std::allocator<UserInfoToolTip::UserInfo *> >::erase
; Function compile flags: /Ogsp
;	COMDAT ?erase@?$vector@PAUUserInfo@UserInfoToolTip@@V?$allocator@PAUUserInfo@UserInfoToolTip@@@std@@@std@@QAE?AV?$_Vector_iterator@V?$_Vector_val@PAUUserInfo@UserInfoToolTip@@V?$allocator@PAUUserInfo@UserInfoToolTip@@@std@@@std@@@2@V?$_Vector_const_iterator@V?$_Vector_val@PAUUserInfo@UserInfoToolTip@@V?$allocator@PAUUserInfo@UserInfoToolTip@@@std@@@std@@@2@0@Z
_TEXT	SEGMENT
___$ReturnUdt$ = 8					; size = 4
__First_arg$ = 12					; size = 4
__Cat$556841 = 16					; size = 1
__Last_arg$ = 16					; size = 4
?erase@?$vector@PAUUserInfo@UserInfoToolTip@@V?$allocator@PAUUserInfo@UserInfoToolTip@@@std@@@std@@QAE?AV?$_Vector_iterator@V?$_Vector_val@PAUUserInfo@UserInfoToolTip@@V?$allocator@PAUUserInfo@UserInfoToolTip@@@std@@@std@@@2@V?$_Vector_const_iterator@V?$_Vector_val@PAUUserInfo@UserInfoToolTip@@V?$allocator@PAUUserInfo@UserInfoToolTip@@@std@@@std@@@2@0@Z PROC ; std::vector<UserInfoToolTip::UserInfo *,std::allocator<UserInfoToolTip::UserInfo *> >::erase, COMDAT
; _this$ = ecx

; 1190 : 		{	// erase [_First, _Last)

  00000	55		 push	 ebp
  00001	8b ec		 mov	 ebp, esp

; 1191 : 		iterator _First = _Make_iter(_First_arg);

  00003	8b 45 0c	 mov	 eax, DWORD PTR __First_arg$[ebp]
  00006	56		 push	 esi
  00007	57		 push	 edi
  00008	8b 7d 08	 mov	 edi, DWORD PTR ___$ReturnUdt$[ebp]
  0000b	8b f1		 mov	 esi, ecx
  0000d	89 07		 mov	 DWORD PTR [edi], eax

; 1192 : 		iterator _Last = _Make_iter(_Last_arg);
; 1193 : 
; 1194 : 		if (_First != _Last)

  0000f	3b 45 10	 cmp	 eax, DWORD PTR __Last_arg$[ebp]
  00012	74 16		 je	 SHORT $LN1@erase@2

; 1195 : 			{	// worth doing, copy down over hole
; 1196 :  #if _ITERATOR_DEBUG_LEVEL == 2
; 1197 : 			if (_Last < _First || _VICONT(_First) != this
; 1198 : 				|| _VIPTR(_First) < this->_Myfirst
; 1199 : 				|| this->_Mylast < _VIPTR(_Last))
; 1200 : 				_DEBUG_ERROR("vector erase iterator outside range");
; 1201 : 			pointer _Ptr = _Move(_VIPTR(_Last), this->_Mylast,
; 1202 : 				_VIPTR(_First));
; 1203 : 			_Orphan_range(_VIPTR(_First), this->_Mylast);
; 1204 : 
; 1205 :  #else /* _ITERATOR_DEBUG_LEVEL == 2 */
; 1206 : 			pointer _Ptr = _Move(_VIPTR(_Last), this->_Mylast,
; 1207 : 				_VIPTR(_First));

  00014	ff 75 10	 push	 DWORD PTR __Cat$556841[ebp]
  00017	8b 4e 04	 mov	 ecx, DWORD PTR [esi+4]
  0001a	50		 push	 eax
  0001b	51		 push	 ecx
  0001c	ff 75 10	 push	 DWORD PTR __Last_arg$[ebp]
  0001f	e8 00 00 00 00	 call	 ??$_Move@PAPAUUserInfo@UserInfoToolTip@@PAPAU12@@std@@YAPAPAUUserInfo@UserInfoToolTip@@PAPAU12@00U_Scalar_ptr_iterator_tag@0@@Z ; std::_Move<UserInfoToolTip::UserInfo * *,UserInfoToolTip::UserInfo * *>
  00024	83 c4 10	 add	 esp, 16			; 00000010H

; 1208 :  #endif /* _ITERATOR_DEBUG_LEVEL == 2 */
; 1209 : 
; 1210 : 			_Destroy(_Ptr, this->_Mylast);
; 1211 : 			this->_Mylast = _Ptr;

  00027	89 46 04	 mov	 DWORD PTR [esi+4], eax
$LN1@erase@2:

; 1212 : 			}
; 1213 : 		return (_First);

  0002a	8b c7		 mov	 eax, edi
  0002c	5f		 pop	 edi
  0002d	5e		 pop	 esi

; 1214 : 		}

  0002e	5d		 pop	 ebp
  0002f	c2 0c 00	 ret	 12			; 0000000cH
?erase@?$vector@PAUUserInfo@UserInfoToolTip@@V?$allocator@PAUUserInfo@UserInfoToolTip@@@std@@@std@@QAE?AV?$_Vector_iterator@V?$_Vector_val@PAUUserInfo@UserInfoToolTip@@V?$allocator@PAUUserInfo@UserInfoToolTip@@@std@@@std@@@2@V?$_Vector_const_iterator@V?$_Vector_val@PAUUserInfo@UserInfoToolTip@@V?$allocator@PAUUserInfo@UserInfoToolTip@@@std@@@std@@@2@0@Z ENDP ; std::vector<UserInfoToolTip::UserInfo *,std::allocator<UserInfoToolTip::UserInfo *> >::erase
_TEXT	ENDS
PUBLIC	?reserve@?$vector@PAUUserInfo@UserInfoToolTip@@V?$allocator@PAUUserInfo@UserInfoToolTip@@@std@@@std@@QAEXI@Z ; std::vector<UserInfoToolTip::UserInfo *,std::allocator<UserInfoToolTip::UserInfo *> >::reserve
; Function compile flags: /Ogsp
;	COMDAT ?reserve@?$vector@PAUUserInfo@UserInfoToolTip@@V?$allocator@PAUUserInfo@UserInfoToolTip@@@std@@@std@@QAEXI@Z
_TEXT	SEGMENT
__Count$ = 8						; size = 4
?reserve@?$vector@PAUUserInfo@UserInfoToolTip@@V?$allocator@PAUUserInfo@UserInfoToolTip@@@std@@@std@@QAEXI@Z PROC ; std::vector<UserInfoToolTip::UserInfo *,std::allocator<UserInfoToolTip::UserInfo *> >::reserve, COMDAT
; _this$ = ecx

; 746  : 		{	// determine new minimum length of allocated storage

  00000	55		 push	 ebp
  00001	8b ec		 mov	 ebp, esp

; 747  : 		if (max_size() < _Count)

  00003	81 7d 08 ff ff
	ff 3f		 cmp	 DWORD PTR __Count$[ebp], 1073741823 ; 3fffffffH
  0000a	56		 push	 esi
  0000b	8b f1		 mov	 esi, ecx
  0000d	76 0b		 jbe	 SHORT $LN5@reserve

; 748  : 			_Xlen();	// result too long

  0000f	68 00 00 00 00	 push	 OFFSET ??_C@_0BD@OLBABOEK@vector?$DMT?$DO?5too?5long?$AA@
  00014	ff 15 00 00 00
	00		 call	 DWORD PTR __imp_?_Xlength_error@std@@YAXPBD@Z
$LN43@reserve:
$LN5@reserve:

; 749  : 		else if (capacity() < _Count)

  0001a	8b 46 08	 mov	 eax, DWORD PTR [esi+8]
  0001d	2b 06		 sub	 eax, DWORD PTR [esi]
  0001f	c1 f8 02	 sar	 eax, 2
  00022	3b 45 08	 cmp	 eax, DWORD PTR __Count$[ebp]
  00025	73 52		 jae	 SHORT $LN3@reserve

; 750  : 			{	// not enough room, reallocate
; 751  : 			pointer _Ptr = this->_Alval.allocate(_Count);

  00027	53		 push	 ebx
  00028	57		 push	 edi
  00029	6a 00		 push	 0
  0002b	ff 75 08	 push	 DWORD PTR __Count$[ebp]
  0002e	e8 00 00 00 00	 call	 ??$_Allocate@PAUUserInfo@UserInfoToolTip@@@std@@YAPAPAUUserInfo@UserInfoToolTip@@IPAPAU12@@Z ; std::_Allocate<UserInfoToolTip::UserInfo *>

; 752  : 
; 753  : 			_TRY_BEGIN
; 754  : 			_Umove(this->_Myfirst, this->_Mylast, _Ptr);

  00033	8b 0e		 mov	 ecx, DWORD PTR [esi]
  00035	8d 56 0c	 lea	 edx, DWORD PTR [esi+12]
  00038	52		 push	 edx
  00039	8b d8		 mov	 ebx, eax
  0003b	8b 46 04	 mov	 eax, DWORD PTR [esi+4]
  0003e	53		 push	 ebx
  0003f	50		 push	 eax
  00040	51		 push	 ecx
  00041	e8 00 00 00 00	 call	 ??$_Uninitialized_move@PAPAUUserInfo@UserInfoToolTip@@PAPAU12@V?$allocator@PAUUserInfo@UserInfoToolTip@@@std@@@std@@YAPAPAUUserInfo@UserInfoToolTip@@PAPAU12@00AAV?$allocator@PAUUserInfo@UserInfoToolTip@@@0@@Z ; std::_Uninitialized_move<UserInfoToolTip::UserInfo * *,UserInfoToolTip::UserInfo * *,std::allocator<UserInfoToolTip::UserInfo *> >

; 755  : 			_CATCH_ALL
; 756  : 			this->_Alval.deallocate(_Ptr, _Count);
; 757  : 			_RERAISE;
; 758  : 			_CATCH_END
; 759  : 
; 760  : 			size_type _Size = size();

  00046	8b 06		 mov	 eax, DWORD PTR [esi]
  00048	8b 7e 04	 mov	 edi, DWORD PTR [esi+4]
  0004b	2b f8		 sub	 edi, eax
  0004d	83 c4 18	 add	 esp, 24			; 00000018H
  00050	c1 ff 02	 sar	 edi, 2

; 761  : 			if (this->_Myfirst != 0)

  00053	85 c0		 test	 eax, eax
  00055	74 07		 je	 SHORT $LN39@reserve

; 762  : 				{	// destroy and deallocate old array
; 763  : 				_Destroy(this->_Myfirst, this->_Mylast);
; 764  : 				this->_Alval.deallocate(this->_Myfirst,
; 765  : 					this->_Myend - this->_Myfirst);

  00057	50		 push	 eax
  00058	e8 00 00 00 00	 call	 ??3@YAXPAX@Z		; operator delete
  0005d	59		 pop	 ecx
$LN39@reserve:

; 766  : 				}
; 767  : 
; 768  : 			this->_Orphan_all();

  0005e	8b ce		 mov	 ecx, esi
  00060	ff 15 00 00 00
	00		 call	 DWORD PTR __imp_?_Orphan_all@_Container_base0@std@@QAEXXZ

; 769  : 			this->_Myend = _Ptr + _Count;

  00066	8b 45 08	 mov	 eax, DWORD PTR __Count$[ebp]
  00069	8d 04 83	 lea	 eax, DWORD PTR [ebx+eax*4]
  0006c	89 46 08	 mov	 DWORD PTR [esi+8], eax

; 770  : 			this->_Mylast = _Ptr + _Size;

  0006f	8d 04 bb	 lea	 eax, DWORD PTR [ebx+edi*4]
  00072	5f		 pop	 edi

; 771  : 			this->_Myfirst = _Ptr;

  00073	89 1e		 mov	 DWORD PTR [esi], ebx
  00075	89 46 04	 mov	 DWORD PTR [esi+4], eax
  00078	5b		 pop	 ebx
$LN3@reserve:
  00079	5e		 pop	 esi

; 772  : 			}
; 773  : 		}

  0007a	5d		 pop	 ebp
  0007b	c2 04 00	 ret	 4
$LN42@reserve:
?reserve@?$vector@PAUUserInfo@UserInfoToolTip@@V?$allocator@PAUUserInfo@UserInfoToolTip@@@std@@@std@@QAEXI@Z ENDP ; std::vector<UserInfoToolTip::UserInfo *,std::allocator<UserInfoToolTip::UserInfo *> >::reserve
_TEXT	ENDS
PUBLIC	??$_Destroy_range@V?$allocator@UExpandMedalSlot@ioExpandMedalSlotManager@@@std@@@std@@YAXPAUExpandMedalSlot@ioExpandMedalSlotManager@@0AAV?$allocator@UExpandMedalSlot@ioExpandMedalSlotManager@@@0@U_Nonscalar_ptr_iterator_tag@0@@Z ; std::_Destroy_range<std::allocator<ioExpandMedalSlotManager::ExpandMedalSlot> >
; Function compile flags: /Ogsp
; File c:\program files (x86)\microsoft visual studio 10.0\vc\include\xmemory
;	COMDAT ??$_Destroy_range@V?$allocator@UExpandMedalSlot@ioExpandMedalSlotManager@@@std@@@std@@YAXPAUExpandMedalSlot@ioExpandMedalSlotManager@@0AAV?$allocator@UExpandMedalSlot@ioExpandMedalSlotManager@@@0@U_Nonscalar_ptr_iterator_tag@0@@Z
_TEXT	SEGMENT
__First$ = 8						; size = 4
__Last$ = 12						; size = 4
__Al$ = 16						; size = 4
___formal$ = 20						; size = 1
??$_Destroy_range@V?$allocator@UExpandMedalSlot@ioExpandMedalSlotManager@@@std@@@std@@YAXPAUExpandMedalSlot@ioExpandMedalSlotManager@@0AAV?$allocator@UExpandMedalSlot@ioExpandMedalSlotManager@@@0@U_Nonscalar_ptr_iterator_tag@0@@Z PROC ; std::_Destroy_range<std::allocator<ioExpandMedalSlotManager::ExpandMedalSlot> >, COMDAT

; 96   : 	for (; _First != _Last; ++_First)
; 97   : 		_Dest_val(_Al, _First);
; 98   : 	}

  00000	c3		 ret	 0
??$_Destroy_range@V?$allocator@UExpandMedalSlot@ioExpandMedalSlotManager@@@std@@@std@@YAXPAUExpandMedalSlot@ioExpandMedalSlotManager@@0AAV?$allocator@UExpandMedalSlot@ioExpandMedalSlotManager@@@0@U_Nonscalar_ptr_iterator_tag@0@@Z ENDP ; std::_Destroy_range<std::allocator<ioExpandMedalSlotManager::ExpandMedalSlot> >
_TEXT	ENDS
PUBLIC	??1?$basic_string@DU?$char_traits@D@std@@V?$allocator@D@2@@std@@QAE@XZ ; std::basic_string<char,std::char_traits<char>,std::allocator<char> >::~basic_string<char,std::char_traits<char>,std::allocator<char> >
; Function compile flags: /Ogsp
; File c:\program files (x86)\microsoft visual studio 10.0\vc\include\xstring
;	COMDAT ??1?$basic_string@DU?$char_traits@D@std@@V?$allocator@D@2@@std@@QAE@XZ
_TEXT	SEGMENT
??1?$basic_string@DU?$char_traits@D@std@@V?$allocator@D@2@@std@@QAE@XZ PROC ; std::basic_string<char,std::char_traits<char>,std::allocator<char> >::~basic_string<char,std::char_traits<char>,std::allocator<char> >, COMDAT
; _this$ = ecx

; 754  : 		_Tidy(true);

  00000	6a 00		 push	 0
  00002	6a 01		 push	 1
  00004	e8 00 00 00 00	 call	 ?_Tidy@?$basic_string@DU?$char_traits@D@std@@V?$allocator@D@2@@std@@QAEX_NI@Z ; std::basic_string<char,std::char_traits<char>,std::allocator<char> >::_Tidy

; 755  : 		}

  00009	c3		 ret	 0
??1?$basic_string@DU?$char_traits@D@std@@V?$allocator@D@2@@std@@QAE@XZ ENDP ; std::basic_string<char,std::char_traits<char>,std::allocator<char> >::~basic_string<char,std::char_traits<char>,std::allocator<char> >
_TEXT	ENDS
PUBLIC	?erase@?$vector@HV?$allocator@H@std@@@std@@QAE?AV?$_Vector_iterator@V?$_Vector_val@HV?$allocator@H@std@@@std@@@2@V?$_Vector_const_iterator@V?$_Vector_val@HV?$allocator@H@std@@@std@@@2@0@Z ; std::vector<int,std::allocator<int> >::erase
; Function compile flags: /Ogsp
; File c:\program files (x86)\microsoft visual studio 10.0\vc\include\vector
;	COMDAT ?erase@?$vector@HV?$allocator@H@std@@@std@@QAE?AV?$_Vector_iterator@V?$_Vector_val@HV?$allocator@H@std@@@std@@@2@V?$_Vector_const_iterator@V?$_Vector_val@HV?$allocator@H@std@@@std@@@2@0@Z
_TEXT	SEGMENT
___$ReturnUdt$ = 8					; size = 4
__First_arg$ = 12					; size = 4
__Cat$557056 = 16					; size = 1
__Last_arg$ = 16					; size = 4
?erase@?$vector@HV?$allocator@H@std@@@std@@QAE?AV?$_Vector_iterator@V?$_Vector_val@HV?$allocator@H@std@@@std@@@2@V?$_Vector_const_iterator@V?$_Vector_val@HV?$allocator@H@std@@@std@@@2@0@Z PROC ; std::vector<int,std::allocator<int> >::erase, COMDAT
; _this$ = ecx

; 1190 : 		{	// erase [_First, _Last)

  00000	55		 push	 ebp
  00001	8b ec		 mov	 ebp, esp

; 1191 : 		iterator _First = _Make_iter(_First_arg);

  00003	8b 45 0c	 mov	 eax, DWORD PTR __First_arg$[ebp]
  00006	56		 push	 esi
  00007	57		 push	 edi
  00008	8b 7d 08	 mov	 edi, DWORD PTR ___$ReturnUdt$[ebp]
  0000b	8b f1		 mov	 esi, ecx
  0000d	89 07		 mov	 DWORD PTR [edi], eax

; 1192 : 		iterator _Last = _Make_iter(_Last_arg);
; 1193 : 
; 1194 : 		if (_First != _Last)

  0000f	3b 45 10	 cmp	 eax, DWORD PTR __Last_arg$[ebp]
  00012	74 16		 je	 SHORT $LN1@erase@3

; 1195 : 			{	// worth doing, copy down over hole
; 1196 :  #if _ITERATOR_DEBUG_LEVEL == 2
; 1197 : 			if (_Last < _First || _VICONT(_First) != this
; 1198 : 				|| _VIPTR(_First) < this->_Myfirst
; 1199 : 				|| this->_Mylast < _VIPTR(_Last))
; 1200 : 				_DEBUG_ERROR("vector erase iterator outside range");
; 1201 : 			pointer _Ptr = _Move(_VIPTR(_Last), this->_Mylast,
; 1202 : 				_VIPTR(_First));
; 1203 : 			_Orphan_range(_VIPTR(_First), this->_Mylast);
; 1204 : 
; 1205 :  #else /* _ITERATOR_DEBUG_LEVEL == 2 */
; 1206 : 			pointer _Ptr = _Move(_VIPTR(_Last), this->_Mylast,
; 1207 : 				_VIPTR(_First));

  00014	ff 75 10	 push	 DWORD PTR __Cat$557056[ebp]
  00017	8b 4e 04	 mov	 ecx, DWORD PTR [esi+4]
  0001a	50		 push	 eax
  0001b	51		 push	 ecx
  0001c	ff 75 10	 push	 DWORD PTR __Last_arg$[ebp]
  0001f	e8 00 00 00 00	 call	 ??$_Move@PAHPAH@std@@YAPAHPAH00U_Scalar_ptr_iterator_tag@0@@Z ; std::_Move<int *,int *>
  00024	83 c4 10	 add	 esp, 16			; 00000010H

; 1208 :  #endif /* _ITERATOR_DEBUG_LEVEL == 2 */
; 1209 : 
; 1210 : 			_Destroy(_Ptr, this->_Mylast);
; 1211 : 			this->_Mylast = _Ptr;

  00027	89 46 04	 mov	 DWORD PTR [esi+4], eax
$LN1@erase@3:

; 1212 : 			}
; 1213 : 		return (_First);

  0002a	8b c7		 mov	 eax, edi
  0002c	5f		 pop	 edi
  0002d	5e		 pop	 esi

; 1214 : 		}

  0002e	5d		 pop	 ebp
  0002f	c2 0c 00	 ret	 12			; 0000000cH
?erase@?$vector@HV?$allocator@H@std@@@std@@QAE?AV?$_Vector_iterator@V?$_Vector_val@HV?$allocator@H@std@@@std@@@2@V?$_Vector_const_iterator@V?$_Vector_val@HV?$allocator@H@std@@@std@@@2@0@Z ENDP ; std::vector<int,std::allocator<int> >::erase
_TEXT	ENDS
PUBLIC	?_Tidy@?$vector@HV?$allocator@H@std@@@std@@IAEXXZ ; std::vector<int,std::allocator<int> >::_Tidy
; Function compile flags: /Ogsp
;	COMDAT ?_Tidy@?$vector@HV?$allocator@H@std@@@std@@IAEXXZ
_TEXT	SEGMENT
?_Tidy@?$vector@HV?$allocator@H@std@@@std@@IAEXXZ PROC	; std::vector<int,std::allocator<int> >::_Tidy, COMDAT
; _this$ = ecx

; 1301 : 		{	// free all storage

  00000	56		 push	 esi
  00001	8b f1		 mov	 esi, ecx

; 1302 : 		if (this->_Myfirst != 0)

  00003	83 3e 00	 cmp	 DWORD PTR [esi], 0
  00006	74 0e		 je	 SHORT $LN12@Tidy@3

; 1303 : 			{	// something to free, destroy and deallocate it
; 1304 : 			this->_Orphan_all();

  00008	ff 15 00 00 00
	00		 call	 DWORD PTR __imp_?_Orphan_all@_Container_base0@std@@QAEXXZ

; 1305 : 			_Destroy(this->_Myfirst, this->_Mylast);
; 1306 : 			this->_Alval.deallocate(this->_Myfirst,
; 1307 : 				this->_Myend - this->_Myfirst);

  0000e	ff 36		 push	 DWORD PTR [esi]
  00010	e8 00 00 00 00	 call	 ??3@YAXPAX@Z		; operator delete
  00015	59		 pop	 ecx
$LN12@Tidy@3:

; 1308 : 			}
; 1309 : 		this->_Myfirst = 0;

  00016	83 26 00	 and	 DWORD PTR [esi], 0

; 1310 : 		this->_Mylast = 0;

  00019	83 66 04 00	 and	 DWORD PTR [esi+4], 0

; 1311 : 		this->_Myend = 0;

  0001d	83 66 08 00	 and	 DWORD PTR [esi+8], 0
  00021	5e		 pop	 esi

; 1312 : 		}

  00022	c3		 ret	 0
?_Tidy@?$vector@HV?$allocator@H@std@@@std@@IAEXXZ ENDP	; std::vector<int,std::allocator<int> >::_Tidy
_TEXT	ENDS
PUBLIC	?erase@?$vector@KV?$allocator@K@std@@@std@@QAE?AV?$_Vector_iterator@V?$_Vector_val@KV?$allocator@K@std@@@std@@@2@V?$_Vector_const_iterator@V?$_Vector_val@KV?$allocator@K@std@@@std@@@2@0@Z ; std::vector<unsigned long,std::allocator<unsigned long> >::erase
; Function compile flags: /Ogsp
;	COMDAT ?erase@?$vector@KV?$allocator@K@std@@@std@@QAE?AV?$_Vector_iterator@V?$_Vector_val@KV?$allocator@K@std@@@std@@@2@V?$_Vector_const_iterator@V?$_Vector_val@KV?$allocator@K@std@@@std@@@2@0@Z
_TEXT	SEGMENT
___$ReturnUdt$ = 8					; size = 4
__First_arg$ = 12					; size = 4
__Cat$557200 = 16					; size = 1
__Last_arg$ = 16					; size = 4
?erase@?$vector@KV?$allocator@K@std@@@std@@QAE?AV?$_Vector_iterator@V?$_Vector_val@KV?$allocator@K@std@@@std@@@2@V?$_Vector_const_iterator@V?$_Vector_val@KV?$allocator@K@std@@@std@@@2@0@Z PROC ; std::vector<unsigned long,std::allocator<unsigned long> >::erase, COMDAT
; _this$ = ecx

; 1190 : 		{	// erase [_First, _Last)

  00000	55		 push	 ebp
  00001	8b ec		 mov	 ebp, esp

; 1191 : 		iterator _First = _Make_iter(_First_arg);

  00003	8b 45 0c	 mov	 eax, DWORD PTR __First_arg$[ebp]
  00006	56		 push	 esi
  00007	57		 push	 edi
  00008	8b 7d 08	 mov	 edi, DWORD PTR ___$ReturnUdt$[ebp]
  0000b	8b f1		 mov	 esi, ecx
  0000d	89 07		 mov	 DWORD PTR [edi], eax

; 1192 : 		iterator _Last = _Make_iter(_Last_arg);
; 1193 : 
; 1194 : 		if (_First != _Last)

  0000f	3b 45 10	 cmp	 eax, DWORD PTR __Last_arg$[ebp]
  00012	74 16		 je	 SHORT $LN1@erase@4

; 1195 : 			{	// worth doing, copy down over hole
; 1196 :  #if _ITERATOR_DEBUG_LEVEL == 2
; 1197 : 			if (_Last < _First || _VICONT(_First) != this
; 1198 : 				|| _VIPTR(_First) < this->_Myfirst
; 1199 : 				|| this->_Mylast < _VIPTR(_Last))
; 1200 : 				_DEBUG_ERROR("vector erase iterator outside range");
; 1201 : 			pointer _Ptr = _Move(_VIPTR(_Last), this->_Mylast,
; 1202 : 				_VIPTR(_First));
; 1203 : 			_Orphan_range(_VIPTR(_First), this->_Mylast);
; 1204 : 
; 1205 :  #else /* _ITERATOR_DEBUG_LEVEL == 2 */
; 1206 : 			pointer _Ptr = _Move(_VIPTR(_Last), this->_Mylast,
; 1207 : 				_VIPTR(_First));

  00014	ff 75 10	 push	 DWORD PTR __Cat$557200[ebp]
  00017	8b 4e 04	 mov	 ecx, DWORD PTR [esi+4]
  0001a	50		 push	 eax
  0001b	51		 push	 ecx
  0001c	ff 75 10	 push	 DWORD PTR __Last_arg$[ebp]
  0001f	e8 00 00 00 00	 call	 ??$_Move@PAKPAK@std@@YAPAKPAK00U_Scalar_ptr_iterator_tag@0@@Z ; std::_Move<unsigned long *,unsigned long *>
  00024	83 c4 10	 add	 esp, 16			; 00000010H

; 1208 :  #endif /* _ITERATOR_DEBUG_LEVEL == 2 */
; 1209 : 
; 1210 : 			_Destroy(_Ptr, this->_Mylast);
; 1211 : 			this->_Mylast = _Ptr;

  00027	89 46 04	 mov	 DWORD PTR [esi+4], eax
$LN1@erase@4:

; 1212 : 			}
; 1213 : 		return (_First);

  0002a	8b c7		 mov	 eax, edi
  0002c	5f		 pop	 edi
  0002d	5e		 pop	 esi

; 1214 : 		}

  0002e	5d		 pop	 ebp
  0002f	c2 0c 00	 ret	 12			; 0000000cH
?erase@?$vector@KV?$allocator@K@std@@@std@@QAE?AV?$_Vector_iterator@V?$_Vector_val@KV?$allocator@K@std@@@std@@@2@V?$_Vector_const_iterator@V?$_Vector_val@KV?$allocator@K@std@@@std@@@2@0@Z ENDP ; std::vector<unsigned long,std::allocator<unsigned long> >::erase
_TEXT	ENDS
PUBLIC	?_Tidy@?$vector@KV?$allocator@K@std@@@std@@IAEXXZ ; std::vector<unsigned long,std::allocator<unsigned long> >::_Tidy
; Function compile flags: /Ogsp
;	COMDAT ?_Tidy@?$vector@KV?$allocator@K@std@@@std@@IAEXXZ
_TEXT	SEGMENT
?_Tidy@?$vector@KV?$allocator@K@std@@@std@@IAEXXZ PROC	; std::vector<unsigned long,std::allocator<unsigned long> >::_Tidy, COMDAT
; _this$ = ecx

; 1301 : 		{	// free all storage

  00000	56		 push	 esi
  00001	8b f1		 mov	 esi, ecx

; 1302 : 		if (this->_Myfirst != 0)

  00003	83 3e 00	 cmp	 DWORD PTR [esi], 0
  00006	74 0e		 je	 SHORT $LN12@Tidy@4

; 1303 : 			{	// something to free, destroy and deallocate it
; 1304 : 			this->_Orphan_all();

  00008	ff 15 00 00 00
	00		 call	 DWORD PTR __imp_?_Orphan_all@_Container_base0@std@@QAEXXZ

; 1305 : 			_Destroy(this->_Myfirst, this->_Mylast);
; 1306 : 			this->_Alval.deallocate(this->_Myfirst,
; 1307 : 				this->_Myend - this->_Myfirst);

  0000e	ff 36		 push	 DWORD PTR [esi]
  00010	e8 00 00 00 00	 call	 ??3@YAXPAX@Z		; operator delete
  00015	59		 pop	 ecx
$LN12@Tidy@4:

; 1308 : 			}
; 1309 : 		this->_Myfirst = 0;

  00016	83 26 00	 and	 DWORD PTR [esi], 0

; 1310 : 		this->_Mylast = 0;

  00019	83 66 04 00	 and	 DWORD PTR [esi+4], 0

; 1311 : 		this->_Myend = 0;

  0001d	83 66 08 00	 and	 DWORD PTR [esi+8], 0
  00021	5e		 pop	 esi

; 1312 : 		}

  00022	c3		 ret	 0
?_Tidy@?$vector@KV?$allocator@K@std@@@std@@IAEXXZ ENDP	; std::vector<unsigned long,std::allocator<unsigned long> >::_Tidy
_TEXT	ENDS
PUBLIC	?_Grow@?$basic_string@DU?$char_traits@D@std@@V?$allocator@D@2@@std@@QAE_NI_N@Z ; std::basic_string<char,std::char_traits<char>,std::allocator<char> >::_Grow
; Function compile flags: /Ogsp
; File c:\program files (x86)\microsoft visual studio 10.0\vc\include\xstring
;	COMDAT ?_Grow@?$basic_string@DU?$char_traits@D@std@@V?$allocator@D@2@@std@@QAE_NI_N@Z
_TEXT	SEGMENT
__Newsize$ = 8						; size = 4
__Trim$ = 12						; size = 1
?_Grow@?$basic_string@DU?$char_traits@D@std@@V?$allocator@D@2@@std@@QAE_NI_N@Z PROC ; std::basic_string<char,std::char_traits<char>,std::allocator<char> >::_Grow, COMDAT
; _this$ = ecx

; 1959 : 		{	// ensure buffer is big enough, trim to size if _Trim is true

  00000	55		 push	 ebp
  00001	8b ec		 mov	 ebp, esp
  00003	56		 push	 esi

; 1960 : 		if (max_size() < _Newsize)

  00004	8b 75 08	 mov	 esi, DWORD PTR __Newsize$[ebp]
  00007	83 fe fe	 cmp	 esi, -2			; fffffffeH
  0000a	76 0b		 jbe	 SHORT $LN6@Grow

; 1961 : 			_Xlen();	// result too long

  0000c	68 00 00 00 00	 push	 OFFSET ??_C@_0BA@JFNIOLAK@string?5too?5long?$AA@
  00011	ff 15 00 00 00
	00		 call	 DWORD PTR __imp_?_Xlength_error@std@@YAXPBD@Z
$LN31@Grow:
$LN6@Grow:

; 1962 : 		if (this->_Myres < _Newsize)

  00017	8b 41 14	 mov	 eax, DWORD PTR [ecx+20]
  0001a	3b c6		 cmp	 eax, esi
  0001c	73 0b		 jae	 SHORT $LN5@Grow

; 1963 : 			_Copy(_Newsize, this->_Mysize);	// reallocate to grow

  0001e	ff 71 10	 push	 DWORD PTR [ecx+16]
  00021	56		 push	 esi
  00022	e8 00 00 00 00	 call	 ?_Copy@?$basic_string@DU?$char_traits@D@std@@V?$allocator@D@2@@std@@QAEXII@Z ; std::basic_string<char,std::char_traits<char>,std::allocator<char> >::_Copy
  00027	eb 2e		 jmp	 SHORT $LN28@Grow
$LN5@Grow:

; 1964 : 		else if (_Trim && _Newsize < this->_BUF_SIZE)

  00029	33 d2		 xor	 edx, edx
  0002b	38 55 0c	 cmp	 BYTE PTR __Trim$[ebp], dl
  0002e	74 17		 je	 SHORT $LN3@Grow
  00030	83 fe 10	 cmp	 esi, 16			; 00000010H
  00033	73 12		 jae	 SHORT $LN3@Grow

; 1965 : 			_Tidy(true,	// copy and deallocate if trimming to small string
; 1966 : 				_Newsize < this->_Mysize ? _Newsize : this->_Mysize);

  00035	8b 41 10	 mov	 eax, DWORD PTR [ecx+16]
  00038	3b f0		 cmp	 esi, eax
  0003a	0f 42 c6	 cmovb	 eax, esi
  0003d	50		 push	 eax
  0003e	6a 01		 push	 1
  00040	e8 00 00 00 00	 call	 ?_Tidy@?$basic_string@DU?$char_traits@D@std@@V?$allocator@D@2@@std@@QAEX_NI@Z ; std::basic_string<char,std::char_traits<char>,std::allocator<char> >::_Tidy
  00045	eb 10		 jmp	 SHORT $LN28@Grow
$LN3@Grow:

; 1967 : 		else if (_Newsize == 0)

  00047	3b f2		 cmp	 esi, edx
  00049	75 0c		 jne	 SHORT $LN28@Grow

; 1968 : 			_Eos(0);	// new size is zero, just null terminate

  0004b	89 51 10	 mov	 DWORD PTR [ecx+16], edx
  0004e	83 f8 10	 cmp	 eax, 16			; 00000010H
  00051	72 02		 jb	 SHORT $LN26@Grow
  00053	8b 09		 mov	 ecx, DWORD PTR [ecx]
$LN26@Grow:
  00055	88 11		 mov	 BYTE PTR [ecx], dl
$LN28@Grow:

; 1969 : 		return (0 < _Newsize);	// return true only if more work to do

  00057	33 c0		 xor	 eax, eax
  00059	3b c6		 cmp	 eax, esi
  0005b	1b c0		 sbb	 eax, eax
  0005d	f7 d8		 neg	 eax
  0005f	5e		 pop	 esi

; 1970 : 		}

  00060	5d		 pop	 ebp
  00061	c2 08 00	 ret	 8
$LN30@Grow:
?_Grow@?$basic_string@DU?$char_traits@D@std@@V?$allocator@D@2@@std@@QAE_NI_N@Z ENDP ; std::basic_string<char,std::char_traits<char>,std::allocator<char> >::_Grow
_TEXT	ENDS
PUBLIC	?reserve@?$vector@HV?$allocator@H@std@@@std@@QAEXI@Z ; std::vector<int,std::allocator<int> >::reserve
; Function compile flags: /Ogsp
; File c:\program files (x86)\microsoft visual studio 10.0\vc\include\vector
;	COMDAT ?reserve@?$vector@HV?$allocator@H@std@@@std@@QAEXI@Z
_TEXT	SEGMENT
__Count$ = 8						; size = 4
?reserve@?$vector@HV?$allocator@H@std@@@std@@QAEXI@Z PROC ; std::vector<int,std::allocator<int> >::reserve, COMDAT
; _this$ = ecx

; 746  : 		{	// determine new minimum length of allocated storage

  00000	55		 push	 ebp
  00001	8b ec		 mov	 ebp, esp

; 747  : 		if (max_size() < _Count)

  00003	81 7d 08 ff ff
	ff 3f		 cmp	 DWORD PTR __Count$[ebp], 1073741823 ; 3fffffffH
  0000a	56		 push	 esi
  0000b	8b f1		 mov	 esi, ecx
  0000d	76 0b		 jbe	 SHORT $LN5@reserve@2

; 748  : 			_Xlen();	// result too long

  0000f	68 00 00 00 00	 push	 OFFSET ??_C@_0BD@OLBABOEK@vector?$DMT?$DO?5too?5long?$AA@
  00014	ff 15 00 00 00
	00		 call	 DWORD PTR __imp_?_Xlength_error@std@@YAXPBD@Z
$LN43@reserve@2:
$LN5@reserve@2:

; 749  : 		else if (capacity() < _Count)

  0001a	8b 46 08	 mov	 eax, DWORD PTR [esi+8]
  0001d	2b 06		 sub	 eax, DWORD PTR [esi]
  0001f	c1 f8 02	 sar	 eax, 2
  00022	3b 45 08	 cmp	 eax, DWORD PTR __Count$[ebp]
  00025	73 52		 jae	 SHORT $LN3@reserve@2

; 750  : 			{	// not enough room, reallocate
; 751  : 			pointer _Ptr = this->_Alval.allocate(_Count);

  00027	53		 push	 ebx
  00028	57		 push	 edi
  00029	6a 00		 push	 0
  0002b	ff 75 08	 push	 DWORD PTR __Count$[ebp]
  0002e	e8 00 00 00 00	 call	 ??$_Allocate@H@std@@YAPAHIPAH@Z ; std::_Allocate<int>

; 752  : 
; 753  : 			_TRY_BEGIN
; 754  : 			_Umove(this->_Myfirst, this->_Mylast, _Ptr);

  00033	8b 0e		 mov	 ecx, DWORD PTR [esi]
  00035	8d 56 0c	 lea	 edx, DWORD PTR [esi+12]
  00038	52		 push	 edx
  00039	8b d8		 mov	 ebx, eax
  0003b	8b 46 04	 mov	 eax, DWORD PTR [esi+4]
  0003e	53		 push	 ebx
  0003f	50		 push	 eax
  00040	51		 push	 ecx
  00041	e8 00 00 00 00	 call	 ??$_Uninitialized_move@PAHPAHV?$allocator@H@std@@@std@@YAPAHPAH00AAV?$allocator@H@0@@Z ; std::_Uninitialized_move<int *,int *,std::allocator<int> >

; 755  : 			_CATCH_ALL
; 756  : 			this->_Alval.deallocate(_Ptr, _Count);
; 757  : 			_RERAISE;
; 758  : 			_CATCH_END
; 759  : 
; 760  : 			size_type _Size = size();

  00046	8b 06		 mov	 eax, DWORD PTR [esi]
  00048	8b 7e 04	 mov	 edi, DWORD PTR [esi+4]
  0004b	2b f8		 sub	 edi, eax
  0004d	83 c4 18	 add	 esp, 24			; 00000018H
  00050	c1 ff 02	 sar	 edi, 2

; 761  : 			if (this->_Myfirst != 0)

  00053	85 c0		 test	 eax, eax
  00055	74 07		 je	 SHORT $LN39@reserve@2

; 762  : 				{	// destroy and deallocate old array
; 763  : 				_Destroy(this->_Myfirst, this->_Mylast);
; 764  : 				this->_Alval.deallocate(this->_Myfirst,
; 765  : 					this->_Myend - this->_Myfirst);

  00057	50		 push	 eax
  00058	e8 00 00 00 00	 call	 ??3@YAXPAX@Z		; operator delete
  0005d	59		 pop	 ecx
$LN39@reserve@2:

; 766  : 				}
; 767  : 
; 768  : 			this->_Orphan_all();

  0005e	8b ce		 mov	 ecx, esi
  00060	ff 15 00 00 00
	00		 call	 DWORD PTR __imp_?_Orphan_all@_Container_base0@std@@QAEXXZ

; 769  : 			this->_Myend = _Ptr + _Count;

  00066	8b 45 08	 mov	 eax, DWORD PTR __Count$[ebp]
  00069	8d 04 83	 lea	 eax, DWORD PTR [ebx+eax*4]
  0006c	89 46 08	 mov	 DWORD PTR [esi+8], eax

; 770  : 			this->_Mylast = _Ptr + _Size;

  0006f	8d 04 bb	 lea	 eax, DWORD PTR [ebx+edi*4]
  00072	5f		 pop	 edi

; 771  : 			this->_Myfirst = _Ptr;

  00073	89 1e		 mov	 DWORD PTR [esi], ebx
  00075	89 46 04	 mov	 DWORD PTR [esi+4], eax
  00078	5b		 pop	 ebx
$LN3@reserve@2:
  00079	5e		 pop	 esi

; 772  : 			}
; 773  : 		}

  0007a	5d		 pop	 ebp
  0007b	c2 04 00	 ret	 4
$LN42@reserve@2:
?reserve@?$vector@HV?$allocator@H@std@@@std@@QAEXI@Z ENDP ; std::vector<int,std::allocator<int> >::reserve
_TEXT	ENDS
PUBLIC	?reserve@?$vector@KV?$allocator@K@std@@@std@@QAEXI@Z ; std::vector<unsigned long,std::allocator<unsigned long> >::reserve
; Function compile flags: /Ogsp
;	COMDAT ?reserve@?$vector@KV?$allocator@K@std@@@std@@QAEXI@Z
_TEXT	SEGMENT
__Count$ = 8						; size = 4
?reserve@?$vector@KV?$allocator@K@std@@@std@@QAEXI@Z PROC ; std::vector<unsigned long,std::allocator<unsigned long> >::reserve, COMDAT
; _this$ = ecx

; 746  : 		{	// determine new minimum length of allocated storage

  00000	55		 push	 ebp
  00001	8b ec		 mov	 ebp, esp

; 747  : 		if (max_size() < _Count)

  00003	81 7d 08 ff ff
	ff 3f		 cmp	 DWORD PTR __Count$[ebp], 1073741823 ; 3fffffffH
  0000a	56		 push	 esi
  0000b	8b f1		 mov	 esi, ecx
  0000d	76 0b		 jbe	 SHORT $LN5@reserve@3

; 748  : 			_Xlen();	// result too long

  0000f	68 00 00 00 00	 push	 OFFSET ??_C@_0BD@OLBABOEK@vector?$DMT?$DO?5too?5long?$AA@
  00014	ff 15 00 00 00
	00		 call	 DWORD PTR __imp_?_Xlength_error@std@@YAXPBD@Z
$LN43@reserve@3:
$LN5@reserve@3:

; 749  : 		else if (capacity() < _Count)

  0001a	8b 46 08	 mov	 eax, DWORD PTR [esi+8]
  0001d	2b 06		 sub	 eax, DWORD PTR [esi]
  0001f	c1 f8 02	 sar	 eax, 2
  00022	3b 45 08	 cmp	 eax, DWORD PTR __Count$[ebp]
  00025	73 52		 jae	 SHORT $LN3@reserve@3

; 750  : 			{	// not enough room, reallocate
; 751  : 			pointer _Ptr = this->_Alval.allocate(_Count);

  00027	53		 push	 ebx
  00028	57		 push	 edi
  00029	6a 00		 push	 0
  0002b	ff 75 08	 push	 DWORD PTR __Count$[ebp]
  0002e	e8 00 00 00 00	 call	 ??$_Allocate@K@std@@YAPAKIPAK@Z ; std::_Allocate<unsigned long>

; 752  : 
; 753  : 			_TRY_BEGIN
; 754  : 			_Umove(this->_Myfirst, this->_Mylast, _Ptr);

  00033	8b 0e		 mov	 ecx, DWORD PTR [esi]
  00035	8d 56 0c	 lea	 edx, DWORD PTR [esi+12]
  00038	52		 push	 edx
  00039	8b d8		 mov	 ebx, eax
  0003b	8b 46 04	 mov	 eax, DWORD PTR [esi+4]
  0003e	53		 push	 ebx
  0003f	50		 push	 eax
  00040	51		 push	 ecx
  00041	e8 00 00 00 00	 call	 ??$_Uninitialized_move@PAKPAKV?$allocator@K@std@@@std@@YAPAKPAK00AAV?$allocator@K@0@@Z ; std::_Uninitialized_move<unsigned long *,unsigned long *,std::allocator<unsigned long> >

; 755  : 			_CATCH_ALL
; 756  : 			this->_Alval.deallocate(_Ptr, _Count);
; 757  : 			_RERAISE;
; 758  : 			_CATCH_END
; 759  : 
; 760  : 			size_type _Size = size();

  00046	8b 06		 mov	 eax, DWORD PTR [esi]
  00048	8b 7e 04	 mov	 edi, DWORD PTR [esi+4]
  0004b	2b f8		 sub	 edi, eax
  0004d	83 c4 18	 add	 esp, 24			; 00000018H
  00050	c1 ff 02	 sar	 edi, 2

; 761  : 			if (this->_Myfirst != 0)

  00053	85 c0		 test	 eax, eax
  00055	74 07		 je	 SHORT $LN39@reserve@3

; 762  : 				{	// destroy and deallocate old array
; 763  : 				_Destroy(this->_Myfirst, this->_Mylast);
; 764  : 				this->_Alval.deallocate(this->_Myfirst,
; 765  : 					this->_Myend - this->_Myfirst);

  00057	50		 push	 eax
  00058	e8 00 00 00 00	 call	 ??3@YAXPAX@Z		; operator delete
  0005d	59		 pop	 ecx
$LN39@reserve@3:

; 766  : 				}
; 767  : 
; 768  : 			this->_Orphan_all();

  0005e	8b ce		 mov	 ecx, esi
  00060	ff 15 00 00 00
	00		 call	 DWORD PTR __imp_?_Orphan_all@_Container_base0@std@@QAEXXZ

; 769  : 			this->_Myend = _Ptr + _Count;

  00066	8b 45 08	 mov	 eax, DWORD PTR __Count$[ebp]
  00069	8d 04 83	 lea	 eax, DWORD PTR [ebx+eax*4]
  0006c	89 46 08	 mov	 DWORD PTR [esi+8], eax

; 770  : 			this->_Mylast = _Ptr + _Size;

  0006f	8d 04 bb	 lea	 eax, DWORD PTR [ebx+edi*4]
  00072	5f		 pop	 edi

; 771  : 			this->_Myfirst = _Ptr;

  00073	89 1e		 mov	 DWORD PTR [esi], ebx
  00075	89 46 04	 mov	 DWORD PTR [esi+4], eax
  00078	5b		 pop	 ebx
$LN3@reserve@3:
  00079	5e		 pop	 esi

; 772  : 			}
; 773  : 		}

  0007a	5d		 pop	 ebp
  0007b	c2 04 00	 ret	 4
$LN42@reserve@3:
?reserve@?$vector@KV?$allocator@K@std@@@std@@QAEXI@Z ENDP ; std::vector<unsigned long,std::allocator<unsigned long> >::reserve
_TEXT	ENDS
PUBLIC	??$_Dest_val@V?$allocator@VioHashString@@@std@@VioHashString@@@std@@YAXAAV?$allocator@VioHashString@@@0@PAVioHashString@@@Z ; std::_Dest_val<std::allocator<ioHashString>,ioHashString>
; Function compile flags: /Ogsp
; File c:\program files (x86)\microsoft visual studio 10.0\vc\include\xmemory
;	COMDAT ??$_Dest_val@V?$allocator@VioHashString@@@std@@VioHashString@@@std@@YAXAAV?$allocator@VioHashString@@@0@PAVioHashString@@@Z
_TEXT	SEGMENT
__Alval$ = 8						; size = 4
__Pdest$ = 12						; size = 4
??$_Dest_val@V?$allocator@VioHashString@@@std@@VioHashString@@@std@@YAXAAV?$allocator@VioHashString@@@0@PAVioHashString@@@Z PROC ; std::_Dest_val<std::allocator<ioHashString>,ioHashString>, COMDAT

; 286  : 	{	// destroy using allocator

  00000	55		 push	 ebp
  00001	8b ec		 mov	 ebp, esp

; 287  : 	_Alval.destroy(_Pdest);

  00003	8b 4d 0c	 mov	 ecx, DWORD PTR __Pdest$[ebp]

; 288  : 	}

  00006	5d		 pop	 ebp

; 287  : 	_Alval.destroy(_Pdest);

  00007	ff 25 00 00 00
	00		 jmp	 DWORD PTR __imp_??1ioHashString@@QAE@XZ
??$_Dest_val@V?$allocator@VioHashString@@@std@@VioHashString@@@std@@YAXAAV?$allocator@VioHashString@@@0@PAVioHashString@@@Z ENDP ; std::_Dest_val<std::allocator<ioHashString>,ioHashString>
_TEXT	ENDS
PUBLIC	?clear@?$vector@PAUUserInfo@UserInfoToolTip@@V?$allocator@PAUUserInfo@UserInfoToolTip@@@std@@@std@@QAEXXZ ; std::vector<UserInfoToolTip::UserInfo *,std::allocator<UserInfoToolTip::UserInfo *> >::clear
; Function compile flags: /Ogsp
; File c:\program files (x86)\microsoft visual studio 10.0\vc\include\vector
;	COMDAT ?clear@?$vector@PAUUserInfo@UserInfoToolTip@@V?$allocator@PAUUserInfo@UserInfoToolTip@@@std@@@std@@QAEXXZ
_TEXT	SEGMENT
$T557510 = -4						; size = 4
?clear@?$vector@PAUUserInfo@UserInfoToolTip@@V?$allocator@PAUUserInfo@UserInfoToolTip@@@std@@@std@@QAEXXZ PROC ; std::vector<UserInfoToolTip::UserInfo *,std::allocator<UserInfoToolTip::UserInfo *> >::clear, COMDAT
; _this$ = ecx

; 1217 : 		{	// erase all

  00000	55		 push	 ebp
  00001	8b ec		 mov	 ebp, esp
  00003	51		 push	 ecx

; 1218 : 		erase(begin(), end());

  00004	8b 41 04	 mov	 eax, DWORD PTR [ecx+4]
  00007	8b 11		 mov	 edx, DWORD PTR [ecx]
  00009	50		 push	 eax
  0000a	52		 push	 edx
  0000b	8d 45 fc	 lea	 eax, DWORD PTR $T557510[ebp]
  0000e	50		 push	 eax
  0000f	e8 00 00 00 00	 call	 ?erase@?$vector@PAUUserInfo@UserInfoToolTip@@V?$allocator@PAUUserInfo@UserInfoToolTip@@@std@@@std@@QAE?AV?$_Vector_iterator@V?$_Vector_val@PAUUserInfo@UserInfoToolTip@@V?$allocator@PAUUserInfo@UserInfoToolTip@@@std@@@std@@@2@V?$_Vector_const_iterator@V?$_Vector_val@PAUUserInfo@UserInfoToolTip@@V?$allocator@PAUUserInfo@UserInfoToolTip@@@std@@@std@@@2@0@Z ; std::vector<UserInfoToolTip::UserInfo *,std::allocator<UserInfoToolTip::UserInfo *> >::erase

; 1219 : 		}

  00014	c9		 leave
  00015	c3		 ret	 0
?clear@?$vector@PAUUserInfo@UserInfoToolTip@@V?$allocator@PAUUserInfo@UserInfoToolTip@@@std@@@std@@QAEXXZ ENDP ; std::vector<UserInfoToolTip::UserInfo *,std::allocator<UserInfoToolTip::UserInfo *> >::clear
_TEXT	ENDS
PUBLIC	?_Reserve@?$vector@PAUUserInfo@UserInfoToolTip@@V?$allocator@PAUUserInfo@UserInfoToolTip@@@std@@@std@@IAEXI@Z ; std::vector<UserInfoToolTip::UserInfo *,std::allocator<UserInfoToolTip::UserInfo *> >::_Reserve
; Function compile flags: /Ogsp
;	COMDAT ?_Reserve@?$vector@PAUUserInfo@UserInfoToolTip@@V?$allocator@PAUUserInfo@UserInfoToolTip@@@std@@@std@@IAEXI@Z
_TEXT	SEGMENT
__Count$ = 8						; size = 4
?_Reserve@?$vector@PAUUserInfo@UserInfoToolTip@@V?$allocator@PAUUserInfo@UserInfoToolTip@@@std@@@std@@IAEXI@Z PROC ; std::vector<UserInfoToolTip::UserInfo *,std::allocator<UserInfoToolTip::UserInfo *> >::_Reserve, COMDAT
; _this$ = ecx

; 1290 : 		{	// ensure room for _Count new elements, grow exponentially

  00000	55		 push	 ebp
  00001	8b ec		 mov	 ebp, esp
  00003	56		 push	 esi
  00004	8b f1		 mov	 esi, ecx

; 1291 : 		size_type _Size = size();

  00006	8b 0e		 mov	 ecx, DWORD PTR [esi]
  00008	8b 46 04	 mov	 eax, DWORD PTR [esi+4]
  0000b	2b c1		 sub	 eax, ecx

; 1292 : 		if (max_size() - _Count < _Size)

  0000d	ba ff ff ff 3f	 mov	 edx, 1073741823		; 3fffffffH
  00012	2b 55 08	 sub	 edx, DWORD PTR __Count$[ebp]
  00015	c1 f8 02	 sar	 eax, 2
  00018	3b d0		 cmp	 edx, eax
  0001a	73 0b		 jae	 SHORT $LN4@Reserve

; 1293 : 			_Xlen();

  0001c	68 00 00 00 00	 push	 OFFSET ??_C@_0BD@OLBABOEK@vector?$DMT?$DO?5too?5long?$AA@
  00021	ff 15 00 00 00
	00		 call	 DWORD PTR __imp_?_Xlength_error@std@@YAXPBD@Z
$LN21@Reserve:
$LN4@Reserve:

; 1294 : 		else if ((_Size += _Count) <= capacity())

  00027	8b 56 08	 mov	 edx, DWORD PTR [esi+8]
  0002a	03 45 08	 add	 eax, DWORD PTR __Count$[ebp]
  0002d	2b d1		 sub	 edx, ecx
  0002f	c1 fa 02	 sar	 edx, 2
  00032	3b c2		 cmp	 eax, edx
  00034	76 10		 jbe	 SHORT $LN1@Reserve

; 1295 : 			;
; 1296 : 		else
; 1297 : 			reserve(_Grow_to(_Size));

  00036	50		 push	 eax
  00037	8b ce		 mov	 ecx, esi
  00039	e8 00 00 00 00	 call	 ?_Grow_to@?$vector@PAUUserInfo@UserInfoToolTip@@V?$allocator@PAUUserInfo@UserInfoToolTip@@@std@@@std@@IBEII@Z ; std::vector<UserInfoToolTip::UserInfo *,std::allocator<UserInfoToolTip::UserInfo *> >::_Grow_to
  0003e	50		 push	 eax
  0003f	8b ce		 mov	 ecx, esi
  00041	e8 00 00 00 00	 call	 ?reserve@?$vector@PAUUserInfo@UserInfoToolTip@@V?$allocator@PAUUserInfo@UserInfoToolTip@@@std@@@std@@QAEXI@Z ; std::vector<UserInfoToolTip::UserInfo *,std::allocator<UserInfoToolTip::UserInfo *> >::reserve
$LN1@Reserve:
  00046	5e		 pop	 esi

; 1298 : 		}

  00047	5d		 pop	 ebp
  00048	c2 04 00	 ret	 4
$LN20@Reserve:
?_Reserve@?$vector@PAUUserInfo@UserInfoToolTip@@V?$allocator@PAUUserInfo@UserInfoToolTip@@@std@@@std@@IAEXI@Z ENDP ; std::vector<UserInfoToolTip::UserInfo *,std::allocator<UserInfoToolTip::UserInfo *> >::_Reserve
_TEXT	ENDS
PUBLIC	??$_Destroy_range@V?$allocator@UExpandMedalSlot@ioExpandMedalSlotManager@@@std@@@std@@YAXPAUExpandMedalSlot@ioExpandMedalSlotManager@@0AAV?$allocator@UExpandMedalSlot@ioExpandMedalSlotManager@@@0@@Z ; std::_Destroy_range<std::allocator<ioExpandMedalSlotManager::ExpandMedalSlot> >
; Function compile flags: /Ogsp
; File c:\program files (x86)\microsoft visual studio 10.0\vc\include\xmemory
;	COMDAT ??$_Destroy_range@V?$allocator@UExpandMedalSlot@ioExpandMedalSlotManager@@@std@@@std@@YAXPAUExpandMedalSlot@ioExpandMedalSlotManager@@0AAV?$allocator@UExpandMedalSlot@ioExpandMedalSlotManager@@@0@@Z
_TEXT	SEGMENT
__First$ = 8						; size = 4
__Last$ = 12						; size = 4
__Al$ = 16						; size = 4
??$_Destroy_range@V?$allocator@UExpandMedalSlot@ioExpandMedalSlotManager@@@std@@@std@@YAXPAUExpandMedalSlot@ioExpandMedalSlotManager@@0AAV?$allocator@UExpandMedalSlot@ioExpandMedalSlotManager@@@0@@Z PROC ; std::_Destroy_range<std::allocator<ioExpandMedalSlotManager::ExpandMedalSlot> >, COMDAT

; 88   : 	_Destroy_range(_First, _Last, _Al, _Ptr_cat(_First, _Last));
; 89   : 	}

  00000	c3		 ret	 0
??$_Destroy_range@V?$allocator@UExpandMedalSlot@ioExpandMedalSlotManager@@@std@@@std@@YAXPAUExpandMedalSlot@ioExpandMedalSlotManager@@0AAV?$allocator@UExpandMedalSlot@ioExpandMedalSlotManager@@@0@@Z ENDP ; std::_Destroy_range<std::allocator<ioExpandMedalSlotManager::ExpandMedalSlot> >
_TEXT	ENDS
PUBLIC	??$_Uninit_move@PAVioHashString@@PAV1@V?$allocator@VioHashString@@@std@@V1@@std@@YAPAVioHashString@@PAV1@00AAV?$allocator@VioHashString@@@0@0U_Nonscalar_ptr_iterator_tag@0@@Z ; std::_Uninit_move<ioHashString *,ioHashString *,std::allocator<ioHashString>,ioHashString>
;	COMDAT xdata$x
; File c:\program files (x86)\microsoft visual studio 10.0\vc\include\vector
xdata$x	SEGMENT
__catchsym$??$_Uninit_move@PAVioHashString@@PAV1@V?$allocator@VioHashString@@@std@@V1@@std@@YAPAVioHashString@@PAV1@00AAV?$allocator@VioHashString@@@0@0U_Nonscalar_ptr_iterator_tag@0@@Z$2 DD 040H
	DD	00H
	DD	00H
	DD	FLAT:__catch$??$_Uninit_move@PAVioHashString@@PAV1@V?$allocator@VioHashString@@@std@@V1@@std@@YAPAVioHashString@@PAV1@00AAV?$allocator@VioHashString@@@0@0U_Nonscalar_ptr_iterator_tag@0@@Z$0
__unwindtable$??$_Uninit_move@PAVioHashString@@PAV1@V?$allocator@VioHashString@@@std@@V1@@std@@YAPAVioHashString@@PAV1@00AAV?$allocator@VioHashString@@@0@0U_Nonscalar_ptr_iterator_tag@0@@Z DD 0ffffffffH
	DD	00H
	DD	0ffffffffH
	DD	00H
__tryblocktable$??$_Uninit_move@PAVioHashString@@PAV1@V?$allocator@VioHashString@@@std@@V1@@std@@YAPAVioHashString@@PAV1@00AAV?$allocator@VioHashString@@@0@0U_Nonscalar_ptr_iterator_tag@0@@Z DD 00H
	DD	00H
	DD	01H
	DD	01H
	DD	FLAT:__catchsym$??$_Uninit_move@PAVioHashString@@PAV1@V?$allocator@VioHashString@@@std@@V1@@std@@YAPAVioHashString@@PAV1@00AAV?$allocator@VioHashString@@@0@0U_Nonscalar_ptr_iterator_tag@0@@Z$2
__ehfuncinfo$??$_Uninit_move@PAVioHashString@@PAV1@V?$allocator@VioHashString@@@std@@V1@@std@@YAPAVioHashString@@PAV1@00AAV?$allocator@VioHashString@@@0@0U_Nonscalar_ptr_iterator_tag@0@@Z DD 019930522H
	DD	02H
	DD	FLAT:__unwindtable$??$_Uninit_move@PAVioHashString@@PAV1@V?$allocator@VioHashString@@@std@@V1@@std@@YAPAVioHashString@@PAV1@00AAV?$allocator@VioHashString@@@0@0U_Nonscalar_ptr_iterator_tag@0@@Z
	DD	01H
	DD	FLAT:__tryblocktable$??$_Uninit_move@PAVioHashString@@PAV1@V?$allocator@VioHashString@@@std@@V1@@std@@YAPAVioHashString@@PAV1@00AAV?$allocator@VioHashString@@@0@0U_Nonscalar_ptr_iterator_tag@0@@Z
	DD	2 DUP(00H)
	DD	00H
	DD	01H
; Function compile flags: /Ogsp
; File c:\program files (x86)\microsoft visual studio 10.0\vc\include\memory
xdata$x	ENDS
;	COMDAT ??$_Uninit_move@PAVioHashString@@PAV1@V?$allocator@VioHashString@@@std@@V1@@std@@YAPAVioHashString@@PAV1@00AAV?$allocator@VioHashString@@@0@0U_Nonscalar_ptr_iterator_tag@0@@Z
_TEXT	SEGMENT
__Next$ = -20						; size = 4
__$EHRec$ = -16						; size = 16
__First$ = 8						; size = 4
__Last$ = 12						; size = 4
__Dest$ = 16						; size = 4
__Al$ = 20						; size = 4
___formal$ = 24						; size = 4
___formal$ = 28						; size = 1
??$_Uninit_move@PAVioHashString@@PAV1@V?$allocator@VioHashString@@@std@@V1@@std@@YAPAVioHashString@@PAV1@00AAV?$allocator@VioHashString@@@0@0U_Nonscalar_ptr_iterator_tag@0@@Z PROC ; std::_Uninit_move<ioHashString *,ioHashString *,std::allocator<ioHashString>,ioHashString>, COMDAT

; 424  : 	{	// move [_First, _Last) to raw _Dest, using _Al, arbitrary type

  00000	6a 08		 push	 8
  00002	b8 00 00 00 00	 mov	 eax, __ehhandler$??$_Uninit_move@PAVioHashString@@PAV1@V?$allocator@VioHashString@@@std@@V1@@std@@YAPAVioHashString@@PAV1@00AAV?$allocator@VioHashString@@@0@0U_Nonscalar_ptr_iterator_tag@0@@Z
  00007	e8 00 00 00 00	 call	 __EH_prolog3_catch

; 425  : 	_DEBUG_RANGE(_First, _Last);
; 426  : 	_DEBUG_POINTER(_Dest);
; 427  : 	_FwdIt _Next = _Dest;

  0000c	8b 45 10	 mov	 eax, DWORD PTR __Dest$[ebp]

; 428  : 
; 429  : 	_TRY_BEGIN

  0000f	83 65 fc 00	 and	 DWORD PTR __$EHRec$[ebp+12], 0
  00013	8b 75 08	 mov	 esi, DWORD PTR __First$[ebp]
  00016	89 45 ec	 mov	 DWORD PTR __Next$[ebp], eax
$LL6@Uninit_mov:

; 430  : 	for (; _First != _Last; ++_Dest, ++_First)

  00019	3b 75 0c	 cmp	 esi, DWORD PTR __Last$[ebp]
  0001c	74 33		 je	 SHORT $LN4@Uninit_mov

; 431  : 		_Cons_val(_Al, _Dest, (_Valty &&)*_First);

  0001e	8b 4d 14	 mov	 ecx, DWORD PTR __Al$[ebp]
  00021	56		 push	 esi
  00022	ff 75 10	 push	 DWORD PTR __Dest$[ebp]
  00025	e8 00 00 00 00	 call	 ?construct@?$allocator@VioHashString@@@std@@QAEXPAVioHashString@@$$QAV3@@Z ; std::allocator<ioHashString>::construct
  0002a	83 45 10 10	 add	 DWORD PTR __Dest$[ebp], 16 ; 00000010H
  0002e	83 c6 10	 add	 esi, 16			; 00000010H
  00031	eb e6		 jmp	 SHORT $LL6@Uninit_mov
__catch$??$_Uninit_move@PAVioHashString@@PAV1@V?$allocator@VioHashString@@@std@@V1@@std@@YAPAVioHashString@@PAV1@00AAV?$allocator@VioHashString@@@0@0U_Nonscalar_ptr_iterator_tag@0@@Z$0:

; 432  : 	_CATCH_ALL
; 433  : 	for (; _Next != _Dest; ++_Next)

  00033	8b 75 ec	 mov	 esi, DWORD PTR __Next$[ebp]
  00036	eb 0b		 jmp	 SHORT $LN33@Uninit_mov
$LL3@Uninit_mov:

; 434  : 		_Dest_val(_Al, _Next);

  00038	8b ce		 mov	 ecx, esi
  0003a	ff 15 00 00 00
	00		 call	 DWORD PTR __imp_??1ioHashString@@QAE@XZ
  00040	83 c6 10	 add	 esi, 16			; 00000010H
$LN33@Uninit_mov:

; 432  : 	_CATCH_ALL
; 433  : 	for (; _Next != _Dest; ++_Next)

  00043	3b 75 10	 cmp	 esi, DWORD PTR __Dest$[ebp]
  00046	75 f0		 jne	 SHORT $LL3@Uninit_mov

; 435  : 	_RERAISE;

  00048	6a 00		 push	 0
  0004a	6a 00		 push	 0
  0004c	e8 00 00 00 00	 call	 __CxxThrowException@8
$LN34@Uninit_mov:
$LN4@Uninit_mov:

; 436  : 	_CATCH_END
; 437  : 	return (_Dest);

  00051	8b 45 10	 mov	 eax, DWORD PTR __Dest$[ebp]

; 438  : 	}

  00054	e8 00 00 00 00	 call	 __EH_epilog3
  00059	c3		 ret	 0
$LN32@Uninit_mov:
_TEXT	ENDS
;	COMDAT text$x
text$x	SEGMENT
__ehhandler$??$_Uninit_move@PAVioHashString@@PAV1@V?$allocator@VioHashString@@@std@@V1@@std@@YAPAVioHashString@@PAV1@00AAV?$allocator@VioHashString@@@0@0U_Nonscalar_ptr_iterator_tag@0@@Z:
  00000	8b 54 24 08	 mov	 edx, DWORD PTR [esp+8]
  00004	8d 42 0c	 lea	 eax, DWORD PTR [edx+12]
  00007	8b 4a e8	 mov	 ecx, DWORD PTR [edx-24]
  0000a	33 c8		 xor	 ecx, eax
  0000c	e8 00 00 00 00	 call	 @__security_check_cookie@4
  00011	b8 00 00 00 00	 mov	 eax, OFFSET __ehfuncinfo$??$_Uninit_move@PAVioHashString@@PAV1@V?$allocator@VioHashString@@@std@@V1@@std@@YAPAVioHashString@@PAV1@00AAV?$allocator@VioHashString@@@0@0U_Nonscalar_ptr_iterator_tag@0@@Z
  00016	e9 00 00 00 00	 jmp	 ___CxxFrameHandler3
text$x	ENDS
??$_Uninit_move@PAVioHashString@@PAV1@V?$allocator@VioHashString@@@std@@V1@@std@@YAPAVioHashString@@PAV1@00AAV?$allocator@VioHashString@@@0@0U_Nonscalar_ptr_iterator_tag@0@@Z ENDP ; std::_Uninit_move<ioHashString *,ioHashString *,std::allocator<ioHashString>,ioHashString>
PUBLIC	??1?$vector@HV?$allocator@H@std@@@std@@QAE@XZ	; std::vector<int,std::allocator<int> >::~vector<int,std::allocator<int> >
; Function compile flags: /Ogsp
; File c:\program files (x86)\microsoft visual studio 10.0\vc\include\vector
;	COMDAT ??1?$vector@HV?$allocator@H@std@@@std@@QAE@XZ
_TEXT	SEGMENT
??1?$vector@HV?$allocator@H@std@@@std@@QAE@XZ PROC	; std::vector<int,std::allocator<int> >::~vector<int,std::allocator<int> >, COMDAT
; _this$ = ecx

; 705  : 		_Tidy();

  00000	e9 00 00 00 00	 jmp	 ?_Tidy@?$vector@HV?$allocator@H@std@@@std@@IAEXXZ ; std::vector<int,std::allocator<int> >::_Tidy
??1?$vector@HV?$allocator@H@std@@@std@@QAE@XZ ENDP	; std::vector<int,std::allocator<int> >::~vector<int,std::allocator<int> >
_TEXT	ENDS
PUBLIC	?clear@?$vector@HV?$allocator@H@std@@@std@@QAEXXZ ; std::vector<int,std::allocator<int> >::clear
; Function compile flags: /Ogsp
;	COMDAT ?clear@?$vector@HV?$allocator@H@std@@@std@@QAEXXZ
_TEXT	SEGMENT
$T557699 = -4						; size = 4
?clear@?$vector@HV?$allocator@H@std@@@std@@QAEXXZ PROC	; std::vector<int,std::allocator<int> >::clear, COMDAT
; _this$ = ecx

; 1217 : 		{	// erase all

  00000	55		 push	 ebp
  00001	8b ec		 mov	 ebp, esp
  00003	51		 push	 ecx

; 1218 : 		erase(begin(), end());

  00004	8b 41 04	 mov	 eax, DWORD PTR [ecx+4]
  00007	8b 11		 mov	 edx, DWORD PTR [ecx]
  00009	50		 push	 eax
  0000a	52		 push	 edx
  0000b	8d 45 fc	 lea	 eax, DWORD PTR $T557699[ebp]
  0000e	50		 push	 eax
  0000f	e8 00 00 00 00	 call	 ?erase@?$vector@HV?$allocator@H@std@@@std@@QAE?AV?$_Vector_iterator@V?$_Vector_val@HV?$allocator@H@std@@@std@@@2@V?$_Vector_const_iterator@V?$_Vector_val@HV?$allocator@H@std@@@std@@@2@0@Z ; std::vector<int,std::allocator<int> >::erase

; 1219 : 		}

  00014	c9		 leave
  00015	c3		 ret	 0
?clear@?$vector@HV?$allocator@H@std@@@std@@QAEXXZ ENDP	; std::vector<int,std::allocator<int> >::clear
_TEXT	ENDS
PUBLIC	??1?$vector@KV?$allocator@K@std@@@std@@QAE@XZ	; std::vector<unsigned long,std::allocator<unsigned long> >::~vector<unsigned long,std::allocator<unsigned long> >
; Function compile flags: /Ogsp
;	COMDAT ??1?$vector@KV?$allocator@K@std@@@std@@QAE@XZ
_TEXT	SEGMENT
??1?$vector@KV?$allocator@K@std@@@std@@QAE@XZ PROC	; std::vector<unsigned long,std::allocator<unsigned long> >::~vector<unsigned long,std::allocator<unsigned long> >, COMDAT
; _this$ = ecx

; 705  : 		_Tidy();

  00000	e9 00 00 00 00	 jmp	 ?_Tidy@?$vector@KV?$allocator@K@std@@@std@@IAEXXZ ; std::vector<unsigned long,std::allocator<unsigned long> >::_Tidy
??1?$vector@KV?$allocator@K@std@@@std@@QAE@XZ ENDP	; std::vector<unsigned long,std::allocator<unsigned long> >::~vector<unsigned long,std::allocator<unsigned long> >
_TEXT	ENDS
PUBLIC	?clear@?$vector@KV?$allocator@K@std@@@std@@QAEXXZ ; std::vector<unsigned long,std::allocator<unsigned long> >::clear
; Function compile flags: /Ogsp
;	COMDAT ?clear@?$vector@KV?$allocator@K@std@@@std@@QAEXXZ
_TEXT	SEGMENT
$T557763 = -4						; size = 4
?clear@?$vector@KV?$allocator@K@std@@@std@@QAEXXZ PROC	; std::vector<unsigned long,std::allocator<unsigned long> >::clear, COMDAT
; _this$ = ecx

; 1217 : 		{	// erase all

  00000	55		 push	 ebp
  00001	8b ec		 mov	 ebp, esp
  00003	51		 push	 ecx

; 1218 : 		erase(begin(), end());

  00004	8b 41 04	 mov	 eax, DWORD PTR [ecx+4]
  00007	8b 11		 mov	 edx, DWORD PTR [ecx]
  00009	50		 push	 eax
  0000a	52		 push	 edx
  0000b	8d 45 fc	 lea	 eax, DWORD PTR $T557763[ebp]
  0000e	50		 push	 eax
  0000f	e8 00 00 00 00	 call	 ?erase@?$vector@KV?$allocator@K@std@@@std@@QAE?AV?$_Vector_iterator@V?$_Vector_val@KV?$allocator@K@std@@@std@@@2@V?$_Vector_const_iterator@V?$_Vector_val@KV?$allocator@K@std@@@std@@@2@0@Z ; std::vector<unsigned long,std::allocator<unsigned long> >::erase

; 1219 : 		}

  00014	c9		 leave
  00015	c3		 ret	 0
?clear@?$vector@KV?$allocator@K@std@@@std@@QAEXXZ ENDP	; std::vector<unsigned long,std::allocator<unsigned long> >::clear
_TEXT	ENDS
PUBLIC	?_Reserve@?$vector@HV?$allocator@H@std@@@std@@IAEXI@Z ; std::vector<int,std::allocator<int> >::_Reserve
; Function compile flags: /Ogsp
;	COMDAT ?_Reserve@?$vector@HV?$allocator@H@std@@@std@@IAEXI@Z
_TEXT	SEGMENT
__Count$ = 8						; size = 4
?_Reserve@?$vector@HV?$allocator@H@std@@@std@@IAEXI@Z PROC ; std::vector<int,std::allocator<int> >::_Reserve, COMDAT
; _this$ = ecx

; 1290 : 		{	// ensure room for _Count new elements, grow exponentially

  00000	55		 push	 ebp
  00001	8b ec		 mov	 ebp, esp
  00003	56		 push	 esi
  00004	8b f1		 mov	 esi, ecx

; 1291 : 		size_type _Size = size();

  00006	8b 0e		 mov	 ecx, DWORD PTR [esi]
  00008	8b 46 04	 mov	 eax, DWORD PTR [esi+4]
  0000b	2b c1		 sub	 eax, ecx

; 1292 : 		if (max_size() - _Count < _Size)

  0000d	ba ff ff ff 3f	 mov	 edx, 1073741823		; 3fffffffH
  00012	2b 55 08	 sub	 edx, DWORD PTR __Count$[ebp]
  00015	c1 f8 02	 sar	 eax, 2
  00018	3b d0		 cmp	 edx, eax
  0001a	73 0b		 jae	 SHORT $LN4@Reserve@2

; 1293 : 			_Xlen();

  0001c	68 00 00 00 00	 push	 OFFSET ??_C@_0BD@OLBABOEK@vector?$DMT?$DO?5too?5long?$AA@
  00021	ff 15 00 00 00
	00		 call	 DWORD PTR __imp_?_Xlength_error@std@@YAXPBD@Z
$LN21@Reserve@2:
$LN4@Reserve@2:

; 1294 : 		else if ((_Size += _Count) <= capacity())

  00027	8b 56 08	 mov	 edx, DWORD PTR [esi+8]
  0002a	03 45 08	 add	 eax, DWORD PTR __Count$[ebp]
  0002d	2b d1		 sub	 edx, ecx
  0002f	c1 fa 02	 sar	 edx, 2
  00032	3b c2		 cmp	 eax, edx
  00034	76 10		 jbe	 SHORT $LN1@Reserve@2

; 1295 : 			;
; 1296 : 		else
; 1297 : 			reserve(_Grow_to(_Size));

  00036	50		 push	 eax
  00037	8b ce		 mov	 ecx, esi
  00039	e8 00 00 00 00	 call	 ?_Grow_to@?$vector@HV?$allocator@H@std@@@std@@IBEII@Z ; std::vector<int,std::allocator<int> >::_Grow_to
  0003e	50		 push	 eax
  0003f	8b ce		 mov	 ecx, esi
  00041	e8 00 00 00 00	 call	 ?reserve@?$vector@HV?$allocator@H@std@@@std@@QAEXI@Z ; std::vector<int,std::allocator<int> >::reserve
$LN1@Reserve@2:
  00046	5e		 pop	 esi

; 1298 : 		}

  00047	5d		 pop	 ebp
  00048	c2 04 00	 ret	 4
$LN20@Reserve@2:
?_Reserve@?$vector@HV?$allocator@H@std@@@std@@IAEXI@Z ENDP ; std::vector<int,std::allocator<int> >::_Reserve
_TEXT	ENDS
PUBLIC	?_Reserve@?$vector@KV?$allocator@K@std@@@std@@IAEXI@Z ; std::vector<unsigned long,std::allocator<unsigned long> >::_Reserve
; Function compile flags: /Ogsp
;	COMDAT ?_Reserve@?$vector@KV?$allocator@K@std@@@std@@IAEXI@Z
_TEXT	SEGMENT
__Count$ = 8						; size = 4
?_Reserve@?$vector@KV?$allocator@K@std@@@std@@IAEXI@Z PROC ; std::vector<unsigned long,std::allocator<unsigned long> >::_Reserve, COMDAT
; _this$ = ecx

; 1290 : 		{	// ensure room for _Count new elements, grow exponentially

  00000	55		 push	 ebp
  00001	8b ec		 mov	 ebp, esp
  00003	56		 push	 esi
  00004	8b f1		 mov	 esi, ecx

; 1291 : 		size_type _Size = size();

  00006	8b 0e		 mov	 ecx, DWORD PTR [esi]
  00008	8b 46 04	 mov	 eax, DWORD PTR [esi+4]
  0000b	2b c1		 sub	 eax, ecx

; 1292 : 		if (max_size() - _Count < _Size)

  0000d	ba ff ff ff 3f	 mov	 edx, 1073741823		; 3fffffffH
  00012	2b 55 08	 sub	 edx, DWORD PTR __Count$[ebp]
  00015	c1 f8 02	 sar	 eax, 2
  00018	3b d0		 cmp	 edx, eax
  0001a	73 0b		 jae	 SHORT $LN4@Reserve@3

; 1293 : 			_Xlen();

  0001c	68 00 00 00 00	 push	 OFFSET ??_C@_0BD@OLBABOEK@vector?$DMT?$DO?5too?5long?$AA@
  00021	ff 15 00 00 00
	00		 call	 DWORD PTR __imp_?_Xlength_error@std@@YAXPBD@Z
$LN21@Reserve@3:
$LN4@Reserve@3:

; 1294 : 		else if ((_Size += _Count) <= capacity())

  00027	8b 56 08	 mov	 edx, DWORD PTR [esi+8]
  0002a	03 45 08	 add	 eax, DWORD PTR __Count$[ebp]
  0002d	2b d1		 sub	 edx, ecx
  0002f	c1 fa 02	 sar	 edx, 2
  00032	3b c2		 cmp	 eax, edx
  00034	76 10		 jbe	 SHORT $LN1@Reserve@3

; 1295 : 			;
; 1296 : 		else
; 1297 : 			reserve(_Grow_to(_Size));

  00036	50		 push	 eax
  00037	8b ce		 mov	 ecx, esi
  00039	e8 00 00 00 00	 call	 ?_Grow_to@?$vector@KV?$allocator@K@std@@@std@@IBEII@Z ; std::vector<unsigned long,std::allocator<unsigned long> >::_Grow_to
  0003e	50		 push	 eax
  0003f	8b ce		 mov	 ecx, esi
  00041	e8 00 00 00 00	 call	 ?reserve@?$vector@KV?$allocator@K@std@@@std@@QAEXI@Z ; std::vector<unsigned long,std::allocator<unsigned long> >::reserve
$LN1@Reserve@3:
  00046	5e		 pop	 esi

; 1298 : 		}

  00047	5d		 pop	 ebp
  00048	c2 04 00	 ret	 4
$LN20@Reserve@3:
?_Reserve@?$vector@KV?$allocator@K@std@@@std@@IAEXI@Z ENDP ; std::vector<unsigned long,std::allocator<unsigned long> >::_Reserve
_TEXT	ENDS
PUBLIC	?assign@?$basic_string@DU?$char_traits@D@std@@V?$allocator@D@2@@std@@QAEAAV12@ABV12@II@Z ; std::basic_string<char,std::char_traits<char>,std::allocator<char> >::assign
; Function compile flags: /Ogsp
; File c:\program files (x86)\microsoft visual studio 10.0\vc\include\xstring
;	COMDAT ?assign@?$basic_string@DU?$char_traits@D@std@@V?$allocator@D@2@@std@@QAEAAV12@ABV12@II@Z
_TEXT	SEGMENT
__Right$ = 8						; size = 4
__Roff$ = 12						; size = 4
__Count$ = 16						; size = 4
?assign@?$basic_string@DU?$char_traits@D@std@@V?$allocator@D@2@@std@@QAEAAV12@ABV12@II@Z PROC ; std::basic_string<char,std::char_traits<char>,std::allocator<char> >::assign, COMDAT
; _this$ = ecx

; 893  : 		{	// assign _Right [_Roff, _Roff + _Count)

  00000	55		 push	 ebp
  00001	8b ec		 mov	 ebp, esp
  00003	53		 push	 ebx

; 894  : 		if (_Right.size() < _Roff)

  00004	8b 5d 08	 mov	 ebx, DWORD PTR __Right$[ebp]
  00007	8b 43 10	 mov	 eax, DWORD PTR [ebx+16]
  0000a	56		 push	 esi
  0000b	8b f1		 mov	 esi, ecx
  0000d	8b 4d 0c	 mov	 ecx, DWORD PTR __Roff$[ebp]
  00010	57		 push	 edi
  00011	3b c1		 cmp	 eax, ecx
  00013	73 0b		 jae	 SHORT $LN5@assign

; 895  : 			_Xran();	// _Roff off end

  00015	68 00 00 00 00	 push	 OFFSET ??_C@_0BI@CFPLBAOH@invalid?5string?5position?$AA@
  0001a	ff 15 00 00 00
	00		 call	 DWORD PTR __imp_?_Xout_of_range@std@@YAXPBD@Z
$LN34@assign:
$LN5@assign:

; 896  : 		size_type _Num = _Right.size() - _Roff;

  00020	2b c1		 sub	 eax, ecx
  00022	8b f8		 mov	 edi, eax

; 897  : 		if (_Count < _Num)

  00024	39 7d 10	 cmp	 DWORD PTR __Count$[ebp], edi

; 898  : 			_Num = _Count;	// trim _Num to size

  00027	0f 42 7d 10	 cmovb	 edi, DWORD PTR __Count$[ebp]

; 899  : 
; 900  : 		if (this == &_Right)

  0002b	3b f3		 cmp	 esi, ebx
  0002d	75 1a		 jne	 SHORT $LN3@assign

; 901  : 			erase((size_type)(_Roff + _Num)), erase(0, _Roff);	// substring

  0002f	03 f9		 add	 edi, ecx
  00031	6a ff		 push	 -1
  00033	57		 push	 edi
  00034	8b ce		 mov	 ecx, esi
  00036	e8 00 00 00 00	 call	 ?erase@?$basic_string@DU?$char_traits@D@std@@V?$allocator@D@2@@std@@QAEAAV12@II@Z ; std::basic_string<char,std::char_traits<char>,std::allocator<char> >::erase
  0003b	ff 75 0c	 push	 DWORD PTR __Roff$[ebp]
  0003e	8b ce		 mov	 ecx, esi
  00040	6a 00		 push	 0
  00042	e8 00 00 00 00	 call	 ?erase@?$basic_string@DU?$char_traits@D@std@@V?$allocator@D@2@@std@@QAEAAV12@II@Z ; std::basic_string<char,std::char_traits<char>,std::allocator<char> >::erase
  00047	eb 47		 jmp	 SHORT $LN31@assign
$LN3@assign:

; 902  : 		else if (_Grow(_Num))

  00049	6a 00		 push	 0
  0004b	57		 push	 edi
  0004c	8b ce		 mov	 ecx, esi
  0004e	e8 00 00 00 00	 call	 ?_Grow@?$basic_string@DU?$char_traits@D@std@@V?$allocator@D@2@@std@@QAE_NI_N@Z ; std::basic_string<char,std::char_traits<char>,std::allocator<char> >::_Grow
  00053	84 c0		 test	 al, al
  00055	74 39		 je	 SHORT $LN31@assign

; 903  : 			{	// make room and assign new stuff
; 904  : 			_Traits::copy(_Myptr(), _Right._Myptr() + _Roff, _Num);

  00057	83 7b 14 10	 cmp	 DWORD PTR [ebx+20], 16	; 00000010H
  0005b	72 04		 jb	 SHORT $LN17@assign
  0005d	8b 03		 mov	 eax, DWORD PTR [ebx]
  0005f	eb 02		 jmp	 SHORT $LN18@assign
$LN17@assign:
  00061	8b c3		 mov	 eax, ebx
$LN18@assign:
  00063	83 7e 14 10	 cmp	 DWORD PTR [esi+20], 16	; 00000010H
  00067	72 04		 jb	 SHORT $LN21@assign
  00069	8b 0e		 mov	 ecx, DWORD PTR [esi]
  0006b	eb 02		 jmp	 SHORT $LN22@assign
$LN21@assign:
  0006d	8b ce		 mov	 ecx, esi
$LN22@assign:
  0006f	03 45 0c	 add	 eax, DWORD PTR __Roff$[ebp]
  00072	57		 push	 edi
  00073	50		 push	 eax
  00074	51		 push	 ecx
  00075	e8 00 00 00 00	 call	 _memcpy
  0007a	83 c4 0c	 add	 esp, 12			; 0000000cH

; 905  : 			_Eos(_Num);

  0007d	83 7e 14 10	 cmp	 DWORD PTR [esi+20], 16	; 00000010H
  00081	89 7e 10	 mov	 DWORD PTR [esi+16], edi
  00084	72 04		 jb	 SHORT $LN29@assign
  00086	8b 06		 mov	 eax, DWORD PTR [esi]
  00088	eb 02		 jmp	 SHORT $LN30@assign
$LN29@assign:
  0008a	8b c6		 mov	 eax, esi
$LN30@assign:
  0008c	c6 04 38 00	 mov	 BYTE PTR [eax+edi], 0
$LN31@assign:

; 906  : 			}
; 907  : 		return (*this);

  00090	5f		 pop	 edi
  00091	8b c6		 mov	 eax, esi
  00093	5e		 pop	 esi
  00094	5b		 pop	 ebx

; 908  : 		}

  00095	5d		 pop	 ebp
  00096	c2 0c 00	 ret	 12			; 0000000cH
$LN33@assign:
?assign@?$basic_string@DU?$char_traits@D@std@@V?$allocator@D@2@@std@@QAEAAV12@ABV12@II@Z ENDP ; std::basic_string<char,std::char_traits<char>,std::allocator<char> >::assign
_TEXT	ENDS
PUBLIC	??$_Destroy_range@V?$allocator@VioHashString@@@std@@@std@@YAXPAVioHashString@@0AAV?$allocator@VioHashString@@@0@U_Nonscalar_ptr_iterator_tag@0@@Z ; std::_Destroy_range<std::allocator<ioHashString> >
; Function compile flags: /Ogsp
; File c:\program files (x86)\microsoft visual studio 10.0\vc\include\xmemory
;	COMDAT ??$_Destroy_range@V?$allocator@VioHashString@@@std@@@std@@YAXPAVioHashString@@0AAV?$allocator@VioHashString@@@0@U_Nonscalar_ptr_iterator_tag@0@@Z
_TEXT	SEGMENT
__First$ = 8						; size = 4
__Last$ = 12						; size = 4
__Al$ = 16						; size = 4
___formal$ = 20						; size = 1
??$_Destroy_range@V?$allocator@VioHashString@@@std@@@std@@YAXPAVioHashString@@0AAV?$allocator@VioHashString@@@0@U_Nonscalar_ptr_iterator_tag@0@@Z PROC ; std::_Destroy_range<std::allocator<ioHashString> >, COMDAT

; 95   : 	{	// destroy [_First, _Last), arbitrary type

  00000	55		 push	 ebp
  00001	8b ec		 mov	 ebp, esp
  00003	56		 push	 esi

; 96   : 	for (; _First != _Last; ++_First)

  00004	8b 75 08	 mov	 esi, DWORD PTR __First$[ebp]
  00007	eb 0b		 jmp	 SHORT $LN17@Destroy_ra
$LL3@Destroy_ra:

; 97   : 		_Dest_val(_Al, _First);

  00009	8b ce		 mov	 ecx, esi
  0000b	ff 15 00 00 00
	00		 call	 DWORD PTR __imp_??1ioHashString@@QAE@XZ
  00011	83 c6 10	 add	 esi, 16			; 00000010H
$LN17@Destroy_ra:

; 96   : 	for (; _First != _Last; ++_First)

  00014	3b 75 0c	 cmp	 esi, DWORD PTR __Last$[ebp]
  00017	75 f0		 jne	 SHORT $LL3@Destroy_ra
  00019	5e		 pop	 esi

; 98   : 	}

  0001a	5d		 pop	 ebp
  0001b	c3		 ret	 0
??$_Destroy_range@V?$allocator@VioHashString@@@std@@@std@@YAXPAVioHashString@@0AAV?$allocator@VioHashString@@@0@U_Nonscalar_ptr_iterator_tag@0@@Z ENDP ; std::_Destroy_range<std::allocator<ioHashString> >
_TEXT	ENDS
PUBLIC	??0UserInfo@UserInfoToolTip@@QAE@XZ		; UserInfoToolTip::UserInfo::UserInfo
EXTRN	__imp_??0ioHashString@@QAE@XZ:PROC
; Function compile flags: /Ogsp
; File d:\lost saga for developer\youtube\tutorial\source\src\lsclient\gui\userinfotooltip.h
;	COMDAT ??0UserInfo@UserInfoToolTip@@QAE@XZ
_TEXT	SEGMENT
??0UserInfo@UserInfoToolTip@@QAE@XZ PROC		; UserInfoToolTip::UserInfo::UserInfo, COMDAT
; _this$ = ecx

; 108  : 		UserInfo()

  00000	56		 push	 esi
  00001	8b f1		 mov	 esi, ecx
  00003	8d 4e 08	 lea	 ecx, DWORD PTR [esi+8]
  00006	ff 15 00 00 00
	00		 call	 DWORD PTR __imp_??0ioHashString@@QAE@XZ
  0000c	33 c0		 xor	 eax, eax
  0000e	89 46 28	 mov	 DWORD PTR [esi+40], eax
  00011	89 46 2c	 mov	 DWORD PTR [esi+44], eax
  00014	89 46 30	 mov	 DWORD PTR [esi+48], eax
  00017	89 46 38	 mov	 DWORD PTR [esi+56], eax
  0001a	89 46 3c	 mov	 DWORD PTR [esi+60], eax
  0001d	89 46 40	 mov	 DWORD PTR [esi+64], eax
  00020	89 46 48	 mov	 DWORD PTR [esi+72], eax
  00023	89 46 4c	 mov	 DWORD PTR [esi+76], eax
  00026	89 46 50	 mov	 DWORD PTR [esi+80], eax
  00029	89 46 58	 mov	 DWORD PTR [esi+88], eax
  0002c	89 46 5c	 mov	 DWORD PTR [esi+92], eax
  0002f	89 46 60	 mov	 DWORD PTR [esi+96], eax
  00032	89 46 68	 mov	 DWORD PTR [esi+104], eax
  00035	89 46 6c	 mov	 DWORD PTR [esi+108], eax
  00038	89 46 70	 mov	 DWORD PTR [esi+112], eax
  0003b	89 46 78	 mov	 DWORD PTR [esi+120], eax
  0003e	89 46 7c	 mov	 DWORD PTR [esi+124], eax
  00041	89 86 80 00 00
	00		 mov	 DWORD PTR [esi+128], eax

; 109  : 		{
; 110  : 			m_dwCreateTime		= 0;

  00047	89 06		 mov	 DWORD PTR [esi], eax

; 111  : 			m_dwRefreshTime		= 0;

  00049	89 46 04	 mov	 DWORD PTR [esi+4], eax

; 112  : 			m_iClassType		= 0;

  0004c	89 46 18	 mov	 DWORD PTR [esi+24], eax

; 113  : 			m_iClassLevel		= 0;

  0004f	89 46 1c	 mov	 DWORD PTR [esi+28], eax

; 114  : 			m_iAwakeType		= 0;

  00052	89 46 24	 mov	 DWORD PTR [esi+36], eax

; 115  : 			m_iPowerUpCharGrade	= 0;

  00055	89 46 20	 mov	 DWORD PTR [esi+32], eax

; 116  : 			m_bMustSync			= false;

  00058	88 86 88 00 00
	00		 mov	 BYTE PTR [esi+136], al

; 117  : 		}

  0005e	8b c6		 mov	 eax, esi
  00060	5e		 pop	 esi
  00061	c3		 ret	 0
??0UserInfo@UserInfoToolTip@@QAE@XZ ENDP		; UserInfoToolTip::UserInfo::UserInfo
_TEXT	ENDS
PUBLIC	??1UserInfo@UserInfoToolTip@@QAE@XZ		; UserInfoToolTip::UserInfo::~UserInfo
;	COMDAT xdata$x
xdata$x	SEGMENT
__ehfuncinfo$??1UserInfo@UserInfoToolTip@@QAE@XZ DD 019930522H
	DD	06H
	DD	FLAT:__unwindtable$??1UserInfo@UserInfoToolTip@@QAE@XZ
	DD	2 DUP(00H)
	DD	2 DUP(00H)
	DD	00H
	DD	01H
__unwindtable$??1UserInfo@UserInfoToolTip@@QAE@XZ DD 0ffffffffH
	DD	FLAT:__unwindfunclet$??1UserInfo@UserInfoToolTip@@QAE@XZ$0
	DD	00H
	DD	FLAT:__unwindfunclet$??1UserInfo@UserInfoToolTip@@QAE@XZ$1
	DD	01H
	DD	FLAT:__unwindfunclet$??1UserInfo@UserInfoToolTip@@QAE@XZ$2
	DD	02H
	DD	FLAT:__unwindfunclet$??1UserInfo@UserInfoToolTip@@QAE@XZ$3
	DD	03H
	DD	FLAT:__unwindfunclet$??1UserInfo@UserInfoToolTip@@QAE@XZ$4
	DD	04H
	DD	FLAT:__unwindfunclet$??1UserInfo@UserInfoToolTip@@QAE@XZ$5
; Function compile flags: /Ogsp
xdata$x	ENDS
;	COMDAT ??1UserInfo@UserInfoToolTip@@QAE@XZ
_TEXT	SEGMENT
_this$ = -16						; size = 4
__$EHRec$ = -12						; size = 12
??1UserInfo@UserInfoToolTip@@QAE@XZ PROC		; UserInfoToolTip::UserInfo::~UserInfo, COMDAT
; _this$ = ecx
  00000	6a 04		 push	 4
  00002	b8 00 00 00 00	 mov	 eax, __ehhandler$??1UserInfo@UserInfoToolTip@@QAE@XZ
  00007	e8 00 00 00 00	 call	 __EH_prolog3
  0000c	8b f1		 mov	 esi, ecx
  0000e	89 75 f0	 mov	 DWORD PTR _this$[ebp], esi
  00011	8d 4e 78	 lea	 ecx, DWORD PTR [esi+120]
  00014	c7 45 fc 05 00
	00 00		 mov	 DWORD PTR __$EHRec$[ebp+8], 5
  0001b	e8 00 00 00 00	 call	 ?_Tidy@?$vector@HV?$allocator@H@std@@@std@@IAEXXZ ; std::vector<int,std::allocator<int> >::_Tidy
  00020	8d 4e 68	 lea	 ecx, DWORD PTR [esi+104]
  00023	c6 45 fc 04	 mov	 BYTE PTR __$EHRec$[ebp+8], 4
  00027	e8 00 00 00 00	 call	 ?_Tidy@?$vector@HV?$allocator@H@std@@@std@@IAEXXZ ; std::vector<int,std::allocator<int> >::_Tidy
  0002c	8d 4e 58	 lea	 ecx, DWORD PTR [esi+88]
  0002f	c6 45 fc 03	 mov	 BYTE PTR __$EHRec$[ebp+8], 3
  00033	e8 00 00 00 00	 call	 ?_Tidy@?$vector@KV?$allocator@K@std@@@std@@IAEXXZ ; std::vector<unsigned long,std::allocator<unsigned long> >::_Tidy
  00038	8d 4e 48	 lea	 ecx, DWORD PTR [esi+72]
  0003b	c6 45 fc 02	 mov	 BYTE PTR __$EHRec$[ebp+8], 2
  0003f	e8 00 00 00 00	 call	 ?_Tidy@?$vector@HV?$allocator@H@std@@@std@@IAEXXZ ; std::vector<int,std::allocator<int> >::_Tidy
  00044	8d 4e 38	 lea	 ecx, DWORD PTR [esi+56]
  00047	c6 45 fc 01	 mov	 BYTE PTR __$EHRec$[ebp+8], 1
  0004b	e8 00 00 00 00	 call	 ?_Tidy@?$vector@HV?$allocator@H@std@@@std@@IAEXXZ ; std::vector<int,std::allocator<int> >::_Tidy
  00050	8d 4e 28	 lea	 ecx, DWORD PTR [esi+40]
  00053	c6 45 fc 00	 mov	 BYTE PTR __$EHRec$[ebp+8], 0
  00057	e8 00 00 00 00	 call	 ?_Tidy@?$vector@HV?$allocator@H@std@@@std@@IAEXXZ ; std::vector<int,std::allocator<int> >::_Tidy
  0005c	83 4d fc ff	 or	 DWORD PTR __$EHRec$[ebp+8], -1
  00060	8d 4e 08	 lea	 ecx, DWORD PTR [esi+8]
  00063	ff 15 00 00 00
	00		 call	 DWORD PTR __imp_??1ioHashString@@QAE@XZ
  00069	e8 00 00 00 00	 call	 __EH_epilog3
  0006e	c3		 ret	 0
_TEXT	ENDS
;	COMDAT text$x
text$x	SEGMENT
__unwindfunclet$??1UserInfo@UserInfoToolTip@@QAE@XZ$0:
  00000	8b 4d f0	 mov	 ecx, DWORD PTR _this$[ebp]
  00003	83 c1 08	 add	 ecx, 8
  00006	ff 25 00 00 00
	00		 jmp	 DWORD PTR __imp_??1ioHashString@@QAE@XZ
__unwindfunclet$??1UserInfo@UserInfoToolTip@@QAE@XZ$1:
  0000c	8b 4d f0	 mov	 ecx, DWORD PTR _this$[ebp]
  0000f	83 c1 28	 add	 ecx, 40			; 00000028H
  00012	e9 00 00 00 00	 jmp	 ??1?$vector@HV?$allocator@H@std@@@std@@QAE@XZ ; std::vector<int,std::allocator<int> >::~vector<int,std::allocator<int> >
__unwindfunclet$??1UserInfo@UserInfoToolTip@@QAE@XZ$2:
  00017	8b 4d f0	 mov	 ecx, DWORD PTR _this$[ebp]
  0001a	83 c1 38	 add	 ecx, 56			; 00000038H
  0001d	e9 00 00 00 00	 jmp	 ??1?$vector@HV?$allocator@H@std@@@std@@QAE@XZ ; std::vector<int,std::allocator<int> >::~vector<int,std::allocator<int> >
__unwindfunclet$??1UserInfo@UserInfoToolTip@@QAE@XZ$3:
  00022	8b 4d f0	 mov	 ecx, DWORD PTR _this$[ebp]
  00025	83 c1 48	 add	 ecx, 72			; 00000048H
  00028	e9 00 00 00 00	 jmp	 ??1?$vector@HV?$allocator@H@std@@@std@@QAE@XZ ; std::vector<int,std::allocator<int> >::~vector<int,std::allocator<int> >
__unwindfunclet$??1UserInfo@UserInfoToolTip@@QAE@XZ$4:
  0002d	8b 4d f0	 mov	 ecx, DWORD PTR _this$[ebp]
  00030	83 c1 58	 add	 ecx, 88			; 00000058H
  00033	e9 00 00 00 00	 jmp	 ??1?$vector@KV?$allocator@K@std@@@std@@QAE@XZ ; std::vector<unsigned long,std::allocator<unsigned long> >::~vector<unsigned long,std::allocator<unsigned long> >
__unwindfunclet$??1UserInfo@UserInfoToolTip@@QAE@XZ$5:
  00038	8b 4d f0	 mov	 ecx, DWORD PTR _this$[ebp]
  0003b	83 c1 68	 add	 ecx, 104		; 00000068H
  0003e	e9 00 00 00 00	 jmp	 ??1?$vector@HV?$allocator@H@std@@@std@@QAE@XZ ; std::vector<int,std::allocator<int> >::~vector<int,std::allocator<int> >
__ehhandler$??1UserInfo@UserInfoToolTip@@QAE@XZ:
  00043	8b 54 24 08	 mov	 edx, DWORD PTR [esp+8]
  00047	8d 42 0c	 lea	 eax, DWORD PTR [edx+12]
  0004a	8b 4a ec	 mov	 ecx, DWORD PTR [edx-20]
  0004d	33 c8		 xor	 ecx, eax
  0004f	e8 00 00 00 00	 call	 @__security_check_cookie@4
  00054	b8 00 00 00 00	 mov	 eax, OFFSET __ehfuncinfo$??1UserInfo@UserInfoToolTip@@QAE@XZ
  00059	e9 00 00 00 00	 jmp	 ___CxxFrameHandler3
text$x	ENDS
??1UserInfo@UserInfoToolTip@@QAE@XZ ENDP		; UserInfoToolTip::UserInfo::~UserInfo
PUBLIC	??_GUserInfo@UserInfoToolTip@@QAEPAXI@Z		; UserInfoToolTip::UserInfo::`scalar deleting destructor'
; Function compile flags: /Ogsp
;	COMDAT ??_GUserInfo@UserInfoToolTip@@QAEPAXI@Z
_TEXT	SEGMENT
___flags$ = 8						; size = 4
??_GUserInfo@UserInfoToolTip@@QAEPAXI@Z PROC		; UserInfoToolTip::UserInfo::`scalar deleting destructor', COMDAT
; _this$ = ecx
  00000	55		 push	 ebp
  00001	8b ec		 mov	 ebp, esp
  00003	56		 push	 esi
  00004	8b f1		 mov	 esi, ecx
  00006	e8 00 00 00 00	 call	 ??1UserInfo@UserInfoToolTip@@QAE@XZ
  0000b	f6 45 08 01	 test	 BYTE PTR ___flags$[ebp], 1
  0000f	74 07		 je	 SHORT $LN1@scalar@3
  00011	56		 push	 esi
  00012	e8 00 00 00 00	 call	 ??3@YAXPAX@Z		; operator delete
  00017	59		 pop	 ecx
$LN1@scalar@3:
  00018	8b c6		 mov	 eax, esi
  0001a	5e		 pop	 esi
  0001b	5d		 pop	 ebp
  0001c	c2 04 00	 ret	 4
??_GUserInfo@UserInfoToolTip@@QAEPAXI@Z ENDP		; UserInfoToolTip::UserInfo::`scalar deleting destructor'
_TEXT	ENDS
PUBLIC	?Clear@UserInfoToolTip@@SAXXZ			; UserInfoToolTip::Clear
; Function compile flags: /Ogsp
; File d:\lost saga for developer\youtube\tutorial\source\src\lsclient\gui\userinfotooltip.cpp
;	COMDAT ?Clear@UserInfoToolTip@@SAXXZ
_TEXT	SEGMENT
$T558338 = -4						; size = 4
?Clear@UserInfoToolTip@@SAXXZ PROC			; UserInfoToolTip::Clear, COMDAT

; 1255 : {

  00000	55		 push	 ebp
  00001	8b ec		 mov	 ebp, esp
  00003	51		 push	 ecx
  00004	56		 push	 esi

; 1256 : 	for( vUserInfo::iterator iter = m_vUserInfo.begin(); iter != m_vUserInfo.end(); ++iter )

  00005	8b 35 00 00 00
	00		 mov	 esi, DWORD PTR ?m_vUserInfo@UserInfoToolTip@@1V?$vector@PAUUserInfo@UserInfoToolTip@@V?$allocator@PAUUserInfo@UserInfoToolTip@@@std@@@std@@A
  0000b	3b 35 04 00 00
	00		 cmp	 esi, DWORD PTR ?m_vUserInfo@UserInfoToolTip@@1V?$vector@PAUUserInfo@UserInfoToolTip@@V?$allocator@PAUUserInfo@UserInfoToolTip@@@std@@@std@@A+4
  00011	74 21		 je	 SHORT $LN2@Clear
  00013	57		 push	 edi
$LL19@Clear:

; 1257 : 	{
; 1258 : 		UserInfo *pInfo = *iter;

  00014	8b 3e		 mov	 edi, DWORD PTR [esi]

; 1259 : 		SAFEDELETE( pInfo );

  00016	85 ff		 test	 edi, edi
  00018	74 0e		 je	 SHORT $LN3@Clear
  0001a	8b cf		 mov	 ecx, edi
  0001c	e8 00 00 00 00	 call	 ??1UserInfo@UserInfoToolTip@@QAE@XZ
  00021	57		 push	 edi
  00022	e8 00 00 00 00	 call	 ??3@YAXPAX@Z		; operator delete
  00027	59		 pop	 ecx
$LN3@Clear:

; 1256 : 	for( vUserInfo::iterator iter = m_vUserInfo.begin(); iter != m_vUserInfo.end(); ++iter )

  00028	83 c6 04	 add	 esi, 4
  0002b	3b 35 04 00 00
	00		 cmp	 esi, DWORD PTR ?m_vUserInfo@UserInfoToolTip@@1V?$vector@PAUUserInfo@UserInfoToolTip@@V?$allocator@PAUUserInfo@UserInfoToolTip@@@std@@@std@@A+4
  00031	75 e1		 jne	 SHORT $LL19@Clear
  00033	5f		 pop	 edi
$LN2@Clear:

; 1260 : 	}
; 1261 : 	m_vUserInfo.clear();

  00034	ff 35 04 00 00
	00		 push	 DWORD PTR ?m_vUserInfo@UserInfoToolTip@@1V?$vector@PAUUserInfo@UserInfoToolTip@@V?$allocator@PAUUserInfo@UserInfoToolTip@@@std@@@std@@A+4
  0003a	8d 45 fc	 lea	 eax, DWORD PTR $T558338[ebp]
  0003d	ff 35 00 00 00
	00		 push	 DWORD PTR ?m_vUserInfo@UserInfoToolTip@@1V?$vector@PAUUserInfo@UserInfoToolTip@@V?$allocator@PAUUserInfo@UserInfoToolTip@@@std@@@std@@A
  00043	b9 00 00 00 00	 mov	 ecx, OFFSET ?m_vUserInfo@UserInfoToolTip@@1V?$vector@PAUUserInfo@UserInfoToolTip@@V?$allocator@PAUUserInfo@UserInfoToolTip@@@std@@@std@@A ; UserInfoToolTip::m_vUserInfo
  00048	50		 push	 eax
  00049	e8 00 00 00 00	 call	 ?erase@?$vector@PAUUserInfo@UserInfoToolTip@@V?$allocator@PAUUserInfo@UserInfoToolTip@@@std@@@std@@QAE?AV?$_Vector_iterator@V?$_Vector_val@PAUUserInfo@UserInfoToolTip@@V?$allocator@PAUUserInfo@UserInfoToolTip@@@std@@@std@@@2@V?$_Vector_const_iterator@V?$_Vector_val@PAUUserInfo@UserInfoToolTip@@V?$allocator@PAUUserInfo@UserInfoToolTip@@@std@@@std@@@2@0@Z ; std::vector<UserInfoToolTip::UserInfo *,std::allocator<UserInfoToolTip::UserInfo *> >::erase
  0004e	5e		 pop	 esi

; 1262 : }

  0004f	c9		 leave
  00050	c3		 ret	 0
?Clear@UserInfoToolTip@@SAXXZ ENDP			; UserInfoToolTip::Clear
_TEXT	ENDS
PUBLIC	??4?$vector@HV?$allocator@H@std@@@std@@QAEAAV01@ABV01@@Z ; std::vector<int,std::allocator<int> >::operator=
; Function compile flags: /Ogsp
; File c:\program files (x86)\microsoft visual studio 10.0\vc\include\vector
;	COMDAT ??4?$vector@HV?$allocator@H@std@@@std@@QAEAAV01@ABV01@@Z
_TEXT	SEGMENT
__Cat$558596 = 8					; size = 1
__Cat$558536 = 8					; size = 1
__Cat$558513 = 8					; size = 1
__Cat$558458 = 8					; size = 1
$T558424 = 8						; size = 4
__Right$ = 8						; size = 4
??4?$vector@HV?$allocator@H@std@@@std@@QAEAAV01@ABV01@@Z PROC ; std::vector<int,std::allocator<int> >::operator=, COMDAT
; _this$ = ecx

; 709  : 		{	// assign _Right

  00000	55		 push	 ebp
  00001	8b ec		 mov	 ebp, esp
  00003	56		 push	 esi
  00004	57		 push	 edi

; 710  : 		if (this != &_Right)

  00005	8b 7d 08	 mov	 edi, DWORD PTR __Right$[ebp]
  00008	8b f1		 mov	 esi, ecx
  0000a	3b f7		 cmp	 esi, edi
  0000c	0f 84 c7 00 00
	00		 je	 $LN1@operator@5

; 711  : 			{	// worth doing
; 712  : 			this->_Orphan_all();

  00012	53		 push	 ebx
  00013	ff 15 00 00 00
	00		 call	 DWORD PTR __imp_?_Orphan_all@_Container_base0@std@@QAEXXZ

; 713  : 
; 714  : 			if (_Right.size() == 0)

  00019	8b 5f 04	 mov	 ebx, DWORD PTR [edi+4]

; 715  : 				clear();	// new sequence empty, erase existing sequence

  0001c	8b 46 04	 mov	 eax, DWORD PTR [esi+4]
  0001f	8b cb		 mov	 ecx, ebx
  00021	2b 0f		 sub	 ecx, DWORD PTR [edi]
  00023	c1 f9 02	 sar	 ecx, 2
  00026	85 c9		 test	 ecx, ecx
  00028	75 14		 jne	 SHORT $LN8@operator@5
  0002a	8b 0e		 mov	 ecx, DWORD PTR [esi]
  0002c	50		 push	 eax
  0002d	51		 push	 ecx
  0002e	8d 45 08	 lea	 eax, DWORD PTR $T558424[ebp]
  00031	50		 push	 eax
  00032	8b ce		 mov	 ecx, esi
  00034	e8 00 00 00 00	 call	 ?erase@?$vector@HV?$allocator@H@std@@@std@@QAE?AV?$_Vector_iterator@V?$_Vector_val@HV?$allocator@H@std@@@std@@@2@V?$_Vector_const_iterator@V?$_Vector_val@HV?$allocator@H@std@@@std@@@2@0@Z ; std::vector<int,std::allocator<int> >::erase

; 716  : 			else if (_Right.size() <= size())

  00039	e9 9a 00 00 00	 jmp	 $LN84@operator@5
$LN8@operator@5:
  0003e	8b 16		 mov	 edx, DWORD PTR [esi]
  00040	2b c2		 sub	 eax, edx
  00042	c1 f8 02	 sar	 eax, 2
  00045	3b c8		 cmp	 ecx, eax
  00047	77 1e		 ja	 SHORT $LN6@operator@5

; 717  : 				{	// enough elements, copy new and destroy old
; 718  : 				pointer _Ptr = _STD _Copy_impl(_Right._Myfirst, _Right._Mylast,
; 719  : 					this->_Myfirst);	// copy new

  00049	ff 75 08	 push	 DWORD PTR __Cat$558458[ebp]
  0004c	52		 push	 edx
  0004d	53		 push	 ebx
  0004e	ff 37		 push	 DWORD PTR [edi]
  00050	e8 00 00 00 00	 call	 ??$_Copy_impl@PAHPAH@std@@YAPAHPAH00U_Scalar_ptr_iterator_tag@0@@Z ; std::_Copy_impl<int *,int *>

; 720  : 				_Destroy(_Ptr, this->_Mylast);	// destroy old
; 721  : 				this->_Mylast = this->_Myfirst + _Right.size();

  00055	8b 47 04	 mov	 eax, DWORD PTR [edi+4]
  00058	2b 07		 sub	 eax, DWORD PTR [edi]
  0005a	8b 0e		 mov	 ecx, DWORD PTR [esi]
  0005c	83 c4 10	 add	 esp, 16			; 00000010H
  0005f	c1 f8 02	 sar	 eax, 2
  00062	8d 04 81	 lea	 eax, DWORD PTR [ecx+eax*4]

; 722  : 				}
; 723  : 			else if (_Right.size() <= capacity())

  00065	eb 6e		 jmp	 SHORT $LN85@operator@5
$LN6@operator@5:
  00067	8b 5e 08	 mov	 ebx, DWORD PTR [esi+8]
  0006a	2b da		 sub	 ebx, edx
  0006c	c1 fb 02	 sar	 ebx, 2
  0006f	3b cb		 cmp	 ecx, ebx
  00071	77 2a		 ja	 SHORT $LN4@operator@5

; 724  : 				{	// enough room, copy and construct new
; 725  : 				pointer _Ptr = _Right._Myfirst + size();
; 726  : 				_STD _Copy_impl(_Right._Myfirst, _Ptr, this->_Myfirst);

  00073	ff 75 08	 push	 DWORD PTR __Cat$558513[ebp]
  00076	8b 0f		 mov	 ecx, DWORD PTR [edi]
  00078	52		 push	 edx
  00079	8d 1c 81	 lea	 ebx, DWORD PTR [ecx+eax*4]
  0007c	53		 push	 ebx
  0007d	51		 push	 ecx
  0007e	e8 00 00 00 00	 call	 ??$_Copy_impl@PAHPAH@std@@YAPAHPAH00U_Scalar_ptr_iterator_tag@0@@Z ; std::_Copy_impl<int *,int *>

; 727  : 				this->_Mylast = _Ucopy(_Ptr, _Right._Mylast, this->_Mylast);

  00083	ff 75 08	 push	 DWORD PTR __Cat$558536[ebp]
  00086	8b 46 04	 mov	 eax, DWORD PTR [esi+4]
  00089	8b 7f 04	 mov	 edi, DWORD PTR [edi+4]
  0008c	8d 4e 0c	 lea	 ecx, DWORD PTR [esi+12]
  0008f	51		 push	 ecx
  00090	50		 push	 eax
  00091	57		 push	 edi
  00092	53		 push	 ebx
  00093	e8 00 00 00 00	 call	 ??$_Uninit_copy@HH@std@@YAPAHPAH00AAV?$allocator@H@0@U_Scalar_ptr_iterator_tag@0@@Z ; std::_Uninit_copy<int,int>
  00098	83 c4 24	 add	 esp, 36			; 00000024H

; 728  : 				}
; 729  : 			else

  0009b	eb 38		 jmp	 SHORT $LN85@operator@5
$LN4@operator@5:

; 730  : 				{	// not enough room, allocate new array and construct new
; 731  : 				if (this->_Myfirst != 0)

  0009d	85 d2		 test	 edx, edx
  0009f	74 07		 je	 SHORT $LN74@operator@5

; 732  : 					{	// discard old array
; 733  : 					_Destroy(this->_Myfirst, this->_Mylast);
; 734  : 					this->_Alval.deallocate(this->_Myfirst,
; 735  : 						this->_Myend - this->_Myfirst);

  000a1	52		 push	 edx
  000a2	e8 00 00 00 00	 call	 ??3@YAXPAX@Z		; operator delete
  000a7	59		 pop	 ecx
$LN74@operator@5:

; 736  : 					}
; 737  : 				if (_Buy(_Right.size()))

  000a8	8b 47 04	 mov	 eax, DWORD PTR [edi+4]
  000ab	2b 07		 sub	 eax, DWORD PTR [edi]
  000ad	8b ce		 mov	 ecx, esi
  000af	c1 f8 02	 sar	 eax, 2
  000b2	50		 push	 eax
  000b3	e8 00 00 00 00	 call	 ?_Buy@?$vector@HV?$allocator@H@std@@@std@@IAE_NI@Z ; std::vector<int,std::allocator<int> >::_Buy
  000b8	84 c0		 test	 al, al
  000ba	74 1c		 je	 SHORT $LN84@operator@5

; 738  : 					this->_Mylast = _Ucopy(_Right._Myfirst, _Right._Mylast,
; 739  : 						this->_Myfirst);

  000bc	ff 75 08	 push	 DWORD PTR __Cat$558596[ebp]
  000bf	8b 06		 mov	 eax, DWORD PTR [esi]
  000c1	8b 4f 04	 mov	 ecx, DWORD PTR [edi+4]
  000c4	8b 3f		 mov	 edi, DWORD PTR [edi]
  000c6	8d 56 0c	 lea	 edx, DWORD PTR [esi+12]
  000c9	52		 push	 edx
  000ca	50		 push	 eax
  000cb	51		 push	 ecx
  000cc	57		 push	 edi
  000cd	e8 00 00 00 00	 call	 ??$_Uninit_copy@HH@std@@YAPAHPAH00AAV?$allocator@H@0@U_Scalar_ptr_iterator_tag@0@@Z ; std::_Uninit_copy<int,int>
  000d2	83 c4 14	 add	 esp, 20			; 00000014H
$LN85@operator@5:
  000d5	89 46 04	 mov	 DWORD PTR [esi+4], eax
$LN84@operator@5:
  000d8	5b		 pop	 ebx
$LN1@operator@5:
  000d9	5f		 pop	 edi

; 740  : 				}
; 741  : 			}
; 742  : 		return (*this);

  000da	8b c6		 mov	 eax, esi
  000dc	5e		 pop	 esi

; 743  : 		}

  000dd	5d		 pop	 ebp
  000de	c2 04 00	 ret	 4
??4?$vector@HV?$allocator@H@std@@@std@@QAEAAV01@ABV01@@Z ENDP ; std::vector<int,std::allocator<int> >::operator=
_TEXT	ENDS
PUBLIC	?push_back@?$vector@HV?$allocator@H@std@@@std@@QAEXABH@Z ; std::vector<int,std::allocator<int> >::push_back
; Function compile flags: /Ogsp
;	COMDAT ?push_back@?$vector@HV?$allocator@H@std@@@std@@QAEXABH@Z
_TEXT	SEGMENT
__Val$ = 8						; size = 4
?push_back@?$vector@HV?$allocator@H@std@@@std@@QAEXABH@Z PROC ; std::vector<int,std::allocator<int> >::push_back, COMDAT
; _this$ = ecx

; 976  : 		{	// insert element at end

  00000	55		 push	 ebp
  00001	8b ec		 mov	 ebp, esp
  00003	56		 push	 esi
  00004	8b f1		 mov	 esi, ecx

; 977  : 		if (_Inside(_STD addressof(_Val)))

  00006	8b 46 04	 mov	 eax, DWORD PTR [esi+4]
  00009	57		 push	 edi
  0000a	8b 7d 08	 mov	 edi, DWORD PTR __Val$[ebp]
  0000d	3b f8		 cmp	 edi, eax
  0000f	73 27		 jae	 SHORT $LN4@push_back
  00011	8b 0e		 mov	 ecx, DWORD PTR [esi]
  00013	3b cf		 cmp	 ecx, edi
  00015	77 21		 ja	 SHORT $LN4@push_back

; 978  : 			{	// push back an element
; 979  : 			size_type _Idx = _STD addressof(_Val) - this->_Myfirst;

  00017	2b f9		 sub	 edi, ecx
  00019	c1 ff 02	 sar	 edi, 2

; 980  : 			if (this->_Mylast == this->_Myend)

  0001c	3b 46 08	 cmp	 eax, DWORD PTR [esi+8]
  0001f	75 09		 jne	 SHORT $LN3@push_back

; 981  : 				_Reserve(1);

  00021	6a 01		 push	 1
  00023	8b ce		 mov	 ecx, esi
  00025	e8 00 00 00 00	 call	 ?_Reserve@?$vector@HV?$allocator@H@std@@@std@@IAEXI@Z ; std::vector<int,std::allocator<int> >::_Reserve
$LN3@push_back:

; 982  : 			_Orphan_range(this->_Mylast, this->_Mylast);
; 983  : 			_Cons_val(this->_Alval,
; 984  : 				this->_Mylast,
; 985  : 				this->_Myfirst[_Idx]);

  0002a	8b 46 04	 mov	 eax, DWORD PTR [esi+4]
  0002d	85 c0		 test	 eax, eax
  0002f	74 20		 je	 SHORT $LN39@push_back
  00031	8b 0e		 mov	 ecx, DWORD PTR [esi]
  00033	8b 0c b9	 mov	 ecx, DWORD PTR [ecx+edi*4]

; 986  : 			++this->_Mylast;
; 987  : 			}
; 988  : 		else

  00036	eb 17		 jmp	 SHORT $LN46@push_back
$LN4@push_back:

; 989  : 			{	// push back a non-element
; 990  : 			if (this->_Mylast == this->_Myend)

  00038	3b 46 08	 cmp	 eax, DWORD PTR [esi+8]
  0003b	75 09		 jne	 SHORT $LN1@push_back

; 991  : 				_Reserve(1);

  0003d	6a 01		 push	 1
  0003f	8b ce		 mov	 ecx, esi
  00041	e8 00 00 00 00	 call	 ?_Reserve@?$vector@HV?$allocator@H@std@@@std@@IAEXI@Z ; std::vector<int,std::allocator<int> >::_Reserve
$LN1@push_back:

; 992  : 			_Orphan_range(this->_Mylast, this->_Mylast);
; 993  : 			_Cons_val(this->_Alval,
; 994  : 				this->_Mylast,
; 995  : 				_Val);

  00046	8b 46 04	 mov	 eax, DWORD PTR [esi+4]
  00049	85 c0		 test	 eax, eax
  0004b	74 04		 je	 SHORT $LN39@push_back
  0004d	8b 0f		 mov	 ecx, DWORD PTR [edi]
$LN46@push_back:
  0004f	89 08		 mov	 DWORD PTR [eax], ecx
$LN39@push_back:

; 996  : 			++this->_Mylast;

  00051	83 46 04 04	 add	 DWORD PTR [esi+4], 4
  00055	5f		 pop	 edi
  00056	5e		 pop	 esi

; 997  : 			}
; 998  : 		}

  00057	5d		 pop	 ebp
  00058	c2 04 00	 ret	 4
?push_back@?$vector@HV?$allocator@H@std@@@std@@QAEXABH@Z ENDP ; std::vector<int,std::allocator<int> >::push_back
_TEXT	ENDS
PUBLIC	??4?$vector@KV?$allocator@K@std@@@std@@QAEAAV01@ABV01@@Z ; std::vector<unsigned long,std::allocator<unsigned long> >::operator=
; Function compile flags: /Ogsp
;	COMDAT ??4?$vector@KV?$allocator@K@std@@@std@@QAEAAV01@ABV01@@Z
_TEXT	SEGMENT
__Cat$558963 = 8					; size = 1
__Cat$558903 = 8					; size = 1
__Cat$558880 = 8					; size = 1
__Cat$558825 = 8					; size = 1
$T558792 = 8						; size = 4
__Right$ = 8						; size = 4
??4?$vector@KV?$allocator@K@std@@@std@@QAEAAV01@ABV01@@Z PROC ; std::vector<unsigned long,std::allocator<unsigned long> >::operator=, COMDAT
; _this$ = ecx

; 709  : 		{	// assign _Right

  00000	55		 push	 ebp
  00001	8b ec		 mov	 ebp, esp
  00003	56		 push	 esi
  00004	57		 push	 edi

; 710  : 		if (this != &_Right)

  00005	8b 7d 08	 mov	 edi, DWORD PTR __Right$[ebp]
  00008	8b f1		 mov	 esi, ecx
  0000a	3b f7		 cmp	 esi, edi
  0000c	0f 84 c7 00 00
	00		 je	 $LN1@operator@6

; 711  : 			{	// worth doing
; 712  : 			this->_Orphan_all();

  00012	53		 push	 ebx
  00013	ff 15 00 00 00
	00		 call	 DWORD PTR __imp_?_Orphan_all@_Container_base0@std@@QAEXXZ

; 713  : 
; 714  : 			if (_Right.size() == 0)

  00019	8b 5f 04	 mov	 ebx, DWORD PTR [edi+4]

; 715  : 				clear();	// new sequence empty, erase existing sequence

  0001c	8b 46 04	 mov	 eax, DWORD PTR [esi+4]
  0001f	8b cb		 mov	 ecx, ebx
  00021	2b 0f		 sub	 ecx, DWORD PTR [edi]
  00023	c1 f9 02	 sar	 ecx, 2
  00026	85 c9		 test	 ecx, ecx
  00028	75 14		 jne	 SHORT $LN8@operator@6
  0002a	8b 0e		 mov	 ecx, DWORD PTR [esi]
  0002c	50		 push	 eax
  0002d	51		 push	 ecx
  0002e	8d 45 08	 lea	 eax, DWORD PTR $T558792[ebp]
  00031	50		 push	 eax
  00032	8b ce		 mov	 ecx, esi
  00034	e8 00 00 00 00	 call	 ?erase@?$vector@KV?$allocator@K@std@@@std@@QAE?AV?$_Vector_iterator@V?$_Vector_val@KV?$allocator@K@std@@@std@@@2@V?$_Vector_const_iterator@V?$_Vector_val@KV?$allocator@K@std@@@std@@@2@0@Z ; std::vector<unsigned long,std::allocator<unsigned long> >::erase

; 716  : 			else if (_Right.size() <= size())

  00039	e9 9a 00 00 00	 jmp	 $LN84@operator@6
$LN8@operator@6:
  0003e	8b 16		 mov	 edx, DWORD PTR [esi]
  00040	2b c2		 sub	 eax, edx
  00042	c1 f8 02	 sar	 eax, 2
  00045	3b c8		 cmp	 ecx, eax
  00047	77 1e		 ja	 SHORT $LN6@operator@6

; 717  : 				{	// enough elements, copy new and destroy old
; 718  : 				pointer _Ptr = _STD _Copy_impl(_Right._Myfirst, _Right._Mylast,
; 719  : 					this->_Myfirst);	// copy new

  00049	ff 75 08	 push	 DWORD PTR __Cat$558825[ebp]
  0004c	52		 push	 edx
  0004d	53		 push	 ebx
  0004e	ff 37		 push	 DWORD PTR [edi]
  00050	e8 00 00 00 00	 call	 ??$_Copy_impl@PAKPAK@std@@YAPAKPAK00U_Scalar_ptr_iterator_tag@0@@Z ; std::_Copy_impl<unsigned long *,unsigned long *>

; 720  : 				_Destroy(_Ptr, this->_Mylast);	// destroy old
; 721  : 				this->_Mylast = this->_Myfirst + _Right.size();

  00055	8b 47 04	 mov	 eax, DWORD PTR [edi+4]
  00058	2b 07		 sub	 eax, DWORD PTR [edi]
  0005a	8b 0e		 mov	 ecx, DWORD PTR [esi]
  0005c	83 c4 10	 add	 esp, 16			; 00000010H
  0005f	c1 f8 02	 sar	 eax, 2
  00062	8d 04 81	 lea	 eax, DWORD PTR [ecx+eax*4]

; 722  : 				}
; 723  : 			else if (_Right.size() <= capacity())

  00065	eb 6e		 jmp	 SHORT $LN85@operator@6
$LN6@operator@6:
  00067	8b 5e 08	 mov	 ebx, DWORD PTR [esi+8]
  0006a	2b da		 sub	 ebx, edx
  0006c	c1 fb 02	 sar	 ebx, 2
  0006f	3b cb		 cmp	 ecx, ebx
  00071	77 2a		 ja	 SHORT $LN4@operator@6

; 724  : 				{	// enough room, copy and construct new
; 725  : 				pointer _Ptr = _Right._Myfirst + size();
; 726  : 				_STD _Copy_impl(_Right._Myfirst, _Ptr, this->_Myfirst);

  00073	ff 75 08	 push	 DWORD PTR __Cat$558880[ebp]
  00076	8b 0f		 mov	 ecx, DWORD PTR [edi]
  00078	52		 push	 edx
  00079	8d 1c 81	 lea	 ebx, DWORD PTR [ecx+eax*4]
  0007c	53		 push	 ebx
  0007d	51		 push	 ecx
  0007e	e8 00 00 00 00	 call	 ??$_Copy_impl@PAKPAK@std@@YAPAKPAK00U_Scalar_ptr_iterator_tag@0@@Z ; std::_Copy_impl<unsigned long *,unsigned long *>

; 727  : 				this->_Mylast = _Ucopy(_Ptr, _Right._Mylast, this->_Mylast);

  00083	ff 75 08	 push	 DWORD PTR __Cat$558903[ebp]
  00086	8b 46 04	 mov	 eax, DWORD PTR [esi+4]
  00089	8b 7f 04	 mov	 edi, DWORD PTR [edi+4]
  0008c	8d 4e 0c	 lea	 ecx, DWORD PTR [esi+12]
  0008f	51		 push	 ecx
  00090	50		 push	 eax
  00091	57		 push	 edi
  00092	53		 push	 ebx
  00093	e8 00 00 00 00	 call	 ??$_Uninit_copy@KK@std@@YAPAKPAK00AAV?$allocator@K@0@U_Scalar_ptr_iterator_tag@0@@Z ; std::_Uninit_copy<unsigned long,unsigned long>
  00098	83 c4 24	 add	 esp, 36			; 00000024H

; 728  : 				}
; 729  : 			else

  0009b	eb 38		 jmp	 SHORT $LN85@operator@6
$LN4@operator@6:

; 730  : 				{	// not enough room, allocate new array and construct new
; 731  : 				if (this->_Myfirst != 0)

  0009d	85 d2		 test	 edx, edx
  0009f	74 07		 je	 SHORT $LN74@operator@6

; 732  : 					{	// discard old array
; 733  : 					_Destroy(this->_Myfirst, this->_Mylast);
; 734  : 					this->_Alval.deallocate(this->_Myfirst,
; 735  : 						this->_Myend - this->_Myfirst);

  000a1	52		 push	 edx
  000a2	e8 00 00 00 00	 call	 ??3@YAXPAX@Z		; operator delete
  000a7	59		 pop	 ecx
$LN74@operator@6:

; 736  : 					}
; 737  : 				if (_Buy(_Right.size()))

  000a8	8b 47 04	 mov	 eax, DWORD PTR [edi+4]
  000ab	2b 07		 sub	 eax, DWORD PTR [edi]
  000ad	8b ce		 mov	 ecx, esi
  000af	c1 f8 02	 sar	 eax, 2
  000b2	50		 push	 eax
  000b3	e8 00 00 00 00	 call	 ?_Buy@?$vector@KV?$allocator@K@std@@@std@@IAE_NI@Z ; std::vector<unsigned long,std::allocator<unsigned long> >::_Buy
  000b8	84 c0		 test	 al, al
  000ba	74 1c		 je	 SHORT $LN84@operator@6

; 738  : 					this->_Mylast = _Ucopy(_Right._Myfirst, _Right._Mylast,
; 739  : 						this->_Myfirst);

  000bc	ff 75 08	 push	 DWORD PTR __Cat$558963[ebp]
  000bf	8b 06		 mov	 eax, DWORD PTR [esi]
  000c1	8b 4f 04	 mov	 ecx, DWORD PTR [edi+4]
  000c4	8b 3f		 mov	 edi, DWORD PTR [edi]
  000c6	8d 56 0c	 lea	 edx, DWORD PTR [esi+12]
  000c9	52		 push	 edx
  000ca	50		 push	 eax
  000cb	51		 push	 ecx
  000cc	57		 push	 edi
  000cd	e8 00 00 00 00	 call	 ??$_Uninit_copy@KK@std@@YAPAKPAK00AAV?$allocator@K@0@U_Scalar_ptr_iterator_tag@0@@Z ; std::_Uninit_copy<unsigned long,unsigned long>
  000d2	83 c4 14	 add	 esp, 20			; 00000014H
$LN85@operator@6:
  000d5	89 46 04	 mov	 DWORD PTR [esi+4], eax
$LN84@operator@6:
  000d8	5b		 pop	 ebx
$LN1@operator@6:
  000d9	5f		 pop	 edi

; 740  : 				}
; 741  : 			}
; 742  : 		return (*this);

  000da	8b c6		 mov	 eax, esi
  000dc	5e		 pop	 esi

; 743  : 		}

  000dd	5d		 pop	 ebp
  000de	c2 04 00	 ret	 4
??4?$vector@KV?$allocator@K@std@@@std@@QAEAAV01@ABV01@@Z ENDP ; std::vector<unsigned long,std::allocator<unsigned long> >::operator=
_TEXT	ENDS
PUBLIC	?push_back@?$vector@PAUUserInfo@UserInfoToolTip@@V?$allocator@PAUUserInfo@UserInfoToolTip@@@std@@@std@@QAEXABQAUUserInfo@UserInfoToolTip@@@Z ; std::vector<UserInfoToolTip::UserInfo *,std::allocator<UserInfoToolTip::UserInfo *> >::push_back
; Function compile flags: /Ogsp
;	COMDAT ?push_back@?$vector@PAUUserInfo@UserInfoToolTip@@V?$allocator@PAUUserInfo@UserInfoToolTip@@@std@@@std@@QAEXABQAUUserInfo@UserInfoToolTip@@@Z
_TEXT	SEGMENT
__Val$ = 8						; size = 4
?push_back@?$vector@PAUUserInfo@UserInfoToolTip@@V?$allocator@PAUUserInfo@UserInfoToolTip@@@std@@@std@@QAEXABQAUUserInfo@UserInfoToolTip@@@Z PROC ; std::vector<UserInfoToolTip::UserInfo *,std::allocator<UserInfoToolTip::UserInfo *> >::push_back, COMDAT
; _this$ = ecx

; 976  : 		{	// insert element at end

  00000	55		 push	 ebp
  00001	8b ec		 mov	 ebp, esp
  00003	56		 push	 esi
  00004	8b f1		 mov	 esi, ecx

; 977  : 		if (_Inside(_STD addressof(_Val)))

  00006	8b 46 04	 mov	 eax, DWORD PTR [esi+4]
  00009	57		 push	 edi
  0000a	8b 7d 08	 mov	 edi, DWORD PTR __Val$[ebp]
  0000d	3b f8		 cmp	 edi, eax
  0000f	73 27		 jae	 SHORT $LN4@push_back@2
  00011	8b 0e		 mov	 ecx, DWORD PTR [esi]
  00013	3b cf		 cmp	 ecx, edi
  00015	77 21		 ja	 SHORT $LN4@push_back@2

; 978  : 			{	// push back an element
; 979  : 			size_type _Idx = _STD addressof(_Val) - this->_Myfirst;

  00017	2b f9		 sub	 edi, ecx
  00019	c1 ff 02	 sar	 edi, 2

; 980  : 			if (this->_Mylast == this->_Myend)

  0001c	3b 46 08	 cmp	 eax, DWORD PTR [esi+8]
  0001f	75 09		 jne	 SHORT $LN3@push_back@2

; 981  : 				_Reserve(1);

  00021	6a 01		 push	 1
  00023	8b ce		 mov	 ecx, esi
  00025	e8 00 00 00 00	 call	 ?_Reserve@?$vector@PAUUserInfo@UserInfoToolTip@@V?$allocator@PAUUserInfo@UserInfoToolTip@@@std@@@std@@IAEXI@Z ; std::vector<UserInfoToolTip::UserInfo *,std::allocator<UserInfoToolTip::UserInfo *> >::_Reserve
$LN3@push_back@2:

; 982  : 			_Orphan_range(this->_Mylast, this->_Mylast);
; 983  : 			_Cons_val(this->_Alval,
; 984  : 				this->_Mylast,
; 985  : 				this->_Myfirst[_Idx]);

  0002a	8b 46 04	 mov	 eax, DWORD PTR [esi+4]
  0002d	85 c0		 test	 eax, eax
  0002f	74 20		 je	 SHORT $LN39@push_back@2
  00031	8b 0e		 mov	 ecx, DWORD PTR [esi]
  00033	8b 0c b9	 mov	 ecx, DWORD PTR [ecx+edi*4]

; 986  : 			++this->_Mylast;
; 987  : 			}
; 988  : 		else

  00036	eb 17		 jmp	 SHORT $LN46@push_back@2
$LN4@push_back@2:

; 989  : 			{	// push back a non-element
; 990  : 			if (this->_Mylast == this->_Myend)

  00038	3b 46 08	 cmp	 eax, DWORD PTR [esi+8]
  0003b	75 09		 jne	 SHORT $LN1@push_back@2

; 991  : 				_Reserve(1);

  0003d	6a 01		 push	 1
  0003f	8b ce		 mov	 ecx, esi
  00041	e8 00 00 00 00	 call	 ?_Reserve@?$vector@PAUUserInfo@UserInfoToolTip@@V?$allocator@PAUUserInfo@UserInfoToolTip@@@std@@@std@@IAEXI@Z ; std::vector<UserInfoToolTip::UserInfo *,std::allocator<UserInfoToolTip::UserInfo *> >::_Reserve
$LN1@push_back@2:

; 992  : 			_Orphan_range(this->_Mylast, this->_Mylast);
; 993  : 			_Cons_val(this->_Alval,
; 994  : 				this->_Mylast,
; 995  : 				_Val);

  00046	8b 46 04	 mov	 eax, DWORD PTR [esi+4]
  00049	85 c0		 test	 eax, eax
  0004b	74 04		 je	 SHORT $LN39@push_back@2
  0004d	8b 0f		 mov	 ecx, DWORD PTR [edi]
$LN46@push_back@2:
  0004f	89 08		 mov	 DWORD PTR [eax], ecx
$LN39@push_back@2:

; 996  : 			++this->_Mylast;

  00051	83 46 04 04	 add	 DWORD PTR [esi+4], 4
  00055	5f		 pop	 edi
  00056	5e		 pop	 esi

; 997  : 			}
; 998  : 		}

  00057	5d		 pop	 ebp
  00058	c2 04 00	 ret	 4
?push_back@?$vector@PAUUserInfo@UserInfoToolTip@@V?$allocator@PAUUserInfo@UserInfoToolTip@@@std@@@std@@QAEXABQAUUserInfo@UserInfoToolTip@@@Z ENDP ; std::vector<UserInfoToolTip::UserInfo *,std::allocator<UserInfoToolTip::UserInfo *> >::push_back
_TEXT	ENDS
PUBLIC	?_Destroy@?$vector@UExpandMedalSlot@ioExpandMedalSlotManager@@V?$allocator@UExpandMedalSlot@ioExpandMedalSlotManager@@@std@@@std@@IAEXPAUExpandMedalSlot@ioExpandMedalSlotManager@@0@Z ; std::vector<ioExpandMedalSlotManager::ExpandMedalSlot,std::allocator<ioExpandMedalSlotManager::ExpandMedalSlot> >::_Destroy
; Function compile flags: /Ogsp
;	COMDAT ?_Destroy@?$vector@UExpandMedalSlot@ioExpandMedalSlotManager@@V?$allocator@UExpandMedalSlot@ioExpandMedalSlotManager@@@std@@@std@@IAEXPAUExpandMedalSlot@ioExpandMedalSlotManager@@0@Z
_TEXT	SEGMENT
__First$ = 8						; size = 4
__Last$ = 12						; size = 4
?_Destroy@?$vector@UExpandMedalSlot@ioExpandMedalSlotManager@@V?$allocator@UExpandMedalSlot@ioExpandMedalSlotManager@@@std@@@std@@IAEXPAUExpandMedalSlot@ioExpandMedalSlotManager@@0@Z PROC ; std::vector<ioExpandMedalSlotManager::ExpandMedalSlot,std::allocator<ioExpandMedalSlotManager::ExpandMedalSlot> >::_Destroy, COMDAT
; _this$ = ecx

; 1270 : 		_Destroy_range(_First, _Last, this->_Alval);
; 1271 : 		}

  00000	c2 08 00	 ret	 8
?_Destroy@?$vector@UExpandMedalSlot@ioExpandMedalSlotManager@@V?$allocator@UExpandMedalSlot@ioExpandMedalSlotManager@@@std@@@std@@IAEXPAUExpandMedalSlot@ioExpandMedalSlotManager@@0@Z ENDP ; std::vector<ioExpandMedalSlotManager::ExpandMedalSlot,std::allocator<ioExpandMedalSlotManager::ExpandMedalSlot> >::_Destroy
_TEXT	ENDS
PUBLIC	??$_Uninitialized_move@PAVioHashString@@PAV1@V?$allocator@VioHashString@@@std@@@std@@YAPAVioHashString@@PAV1@00AAV?$allocator@VioHashString@@@0@@Z ; std::_Uninitialized_move<ioHashString *,ioHashString *,std::allocator<ioHashString> >
; Function compile flags: /Ogsp
; File c:\program files (x86)\microsoft visual studio 10.0\vc\include\memory
;	COMDAT ??$_Uninitialized_move@PAVioHashString@@PAV1@V?$allocator@VioHashString@@@std@@@std@@YAPAVioHashString@@PAV1@00AAV?$allocator@VioHashString@@@0@@Z
_TEXT	SEGMENT
__Cat$559154 = -4					; size = 1
__First$ = 8						; size = 4
__Last$ = 12						; size = 4
__Dest$ = 16						; size = 4
__Al$ = 20						; size = 4
??$_Uninitialized_move@PAVioHashString@@PAV1@V?$allocator@VioHashString@@@std@@@std@@YAPAVioHashString@@PAV1@00AAV?$allocator@VioHashString@@@0@@Z PROC ; std::_Uninitialized_move<ioHashString *,ioHashString *,std::allocator<ioHashString> >, COMDAT

; 469  : 	{	// move [_First, _Last) to raw _Dest, using _Al

  00000	55		 push	 ebp
  00001	8b ec		 mov	 ebp, esp
  00003	51		 push	 ecx

; 470  : 	return (_Uninit_move(_First, _Last, _Dest, _Al,
; 471  : 		_Val_type(_First), _Ptr_cat(_First, _Dest)));

  00004	ff 75 fc	 push	 DWORD PTR __Cat$559154[ebp]
  00007	6a 00		 push	 0
  00009	ff 75 14	 push	 DWORD PTR __Al$[ebp]
  0000c	ff 75 10	 push	 DWORD PTR __Dest$[ebp]
  0000f	ff 75 0c	 push	 DWORD PTR __Last$[ebp]
  00012	ff 75 08	 push	 DWORD PTR __First$[ebp]
  00015	e8 00 00 00 00	 call	 ??$_Uninit_move@PAVioHashString@@PAV1@V?$allocator@VioHashString@@@std@@V1@@std@@YAPAVioHashString@@PAV1@00AAV?$allocator@VioHashString@@@0@0U_Nonscalar_ptr_iterator_tag@0@@Z ; std::_Uninit_move<ioHashString *,ioHashString *,std::allocator<ioHashString>,ioHashString>
  0001a	83 c4 18	 add	 esp, 24			; 00000018H

; 472  : 	}

  0001d	c9		 leave
  0001e	c3		 ret	 0
??$_Uninitialized_move@PAVioHashString@@PAV1@V?$allocator@VioHashString@@@std@@@std@@YAPAVioHashString@@PAV1@00AAV?$allocator@VioHashString@@@0@@Z ENDP ; std::_Uninitialized_move<ioHashString *,ioHashString *,std::allocator<ioHashString> >
_TEXT	ENDS
PUBLIC	?push_back@?$vector@KV?$allocator@K@std@@@std@@QAEXABK@Z ; std::vector<unsigned long,std::allocator<unsigned long> >::push_back
; Function compile flags: /Ogsp
; File c:\program files (x86)\microsoft visual studio 10.0\vc\include\vector
;	COMDAT ?push_back@?$vector@KV?$allocator@K@std@@@std@@QAEXABK@Z
_TEXT	SEGMENT
__Val$ = 8						; size = 4
?push_back@?$vector@KV?$allocator@K@std@@@std@@QAEXABK@Z PROC ; std::vector<unsigned long,std::allocator<unsigned long> >::push_back, COMDAT
; _this$ = ecx

; 976  : 		{	// insert element at end

  00000	55		 push	 ebp
  00001	8b ec		 mov	 ebp, esp
  00003	56		 push	 esi
  00004	8b f1		 mov	 esi, ecx

; 977  : 		if (_Inside(_STD addressof(_Val)))

  00006	8b 46 04	 mov	 eax, DWORD PTR [esi+4]
  00009	57		 push	 edi
  0000a	8b 7d 08	 mov	 edi, DWORD PTR __Val$[ebp]
  0000d	3b f8		 cmp	 edi, eax
  0000f	73 27		 jae	 SHORT $LN4@push_back@3
  00011	8b 0e		 mov	 ecx, DWORD PTR [esi]
  00013	3b cf		 cmp	 ecx, edi
  00015	77 21		 ja	 SHORT $LN4@push_back@3

; 978  : 			{	// push back an element
; 979  : 			size_type _Idx = _STD addressof(_Val) - this->_Myfirst;

  00017	2b f9		 sub	 edi, ecx
  00019	c1 ff 02	 sar	 edi, 2

; 980  : 			if (this->_Mylast == this->_Myend)

  0001c	3b 46 08	 cmp	 eax, DWORD PTR [esi+8]
  0001f	75 09		 jne	 SHORT $LN3@push_back@3

; 981  : 				_Reserve(1);

  00021	6a 01		 push	 1
  00023	8b ce		 mov	 ecx, esi
  00025	e8 00 00 00 00	 call	 ?_Reserve@?$vector@KV?$allocator@K@std@@@std@@IAEXI@Z ; std::vector<unsigned long,std::allocator<unsigned long> >::_Reserve
$LN3@push_back@3:

; 982  : 			_Orphan_range(this->_Mylast, this->_Mylast);
; 983  : 			_Cons_val(this->_Alval,
; 984  : 				this->_Mylast,
; 985  : 				this->_Myfirst[_Idx]);

  0002a	8b 46 04	 mov	 eax, DWORD PTR [esi+4]
  0002d	85 c0		 test	 eax, eax
  0002f	74 20		 je	 SHORT $LN39@push_back@3
  00031	8b 0e		 mov	 ecx, DWORD PTR [esi]
  00033	8b 0c b9	 mov	 ecx, DWORD PTR [ecx+edi*4]

; 986  : 			++this->_Mylast;
; 987  : 			}
; 988  : 		else

  00036	eb 17		 jmp	 SHORT $LN46@push_back@3
$LN4@push_back@3:

; 989  : 			{	// push back a non-element
; 990  : 			if (this->_Mylast == this->_Myend)

  00038	3b 46 08	 cmp	 eax, DWORD PTR [esi+8]
  0003b	75 09		 jne	 SHORT $LN1@push_back@3

; 991  : 				_Reserve(1);

  0003d	6a 01		 push	 1
  0003f	8b ce		 mov	 ecx, esi
  00041	e8 00 00 00 00	 call	 ?_Reserve@?$vector@KV?$allocator@K@std@@@std@@IAEXI@Z ; std::vector<unsigned long,std::allocator<unsigned long> >::_Reserve
$LN1@push_back@3:

; 992  : 			_Orphan_range(this->_Mylast, this->_Mylast);
; 993  : 			_Cons_val(this->_Alval,
; 994  : 				this->_Mylast,
; 995  : 				_Val);

  00046	8b 46 04	 mov	 eax, DWORD PTR [esi+4]
  00049	85 c0		 test	 eax, eax
  0004b	74 04		 je	 SHORT $LN39@push_back@3
  0004d	8b 0f		 mov	 ecx, DWORD PTR [edi]
$LN46@push_back@3:
  0004f	89 08		 mov	 DWORD PTR [eax], ecx
$LN39@push_back@3:

; 996  : 			++this->_Mylast;

  00051	83 46 04 04	 add	 DWORD PTR [esi+4], 4
  00055	5f		 pop	 edi
  00056	5e		 pop	 esi

; 997  : 			}
; 998  : 		}

  00057	5d		 pop	 ebp
  00058	c2 04 00	 ret	 4
?push_back@?$vector@KV?$allocator@K@std@@@std@@QAEXABK@Z ENDP ; std::vector<unsigned long,std::allocator<unsigned long> >::push_back
_TEXT	ENDS
PUBLIC	??0?$basic_string@DU?$char_traits@D@std@@V?$allocator@D@2@@std@@QAE@ABV01@@Z ; std::basic_string<char,std::char_traits<char>,std::allocator<char> >::basic_string<char,std::char_traits<char>,std::allocator<char> >
; Function compile flags: /Ogsp
; File c:\program files (x86)\microsoft visual studio 10.0\vc\include\xstring
;	COMDAT ??0?$basic_string@DU?$char_traits@D@std@@V?$allocator@D@2@@std@@QAE@ABV01@@Z
_TEXT	SEGMENT
__Right$ = 8						; size = 4
??0?$basic_string@DU?$char_traits@D@std@@V?$allocator@D@2@@std@@QAE@ABV01@@Z PROC ; std::basic_string<char,std::char_traits<char>,std::allocator<char> >::basic_string<char,std::char_traits<char>,std::allocator<char> >, COMDAT
; _this$ = ecx

; 543  : 		{	// construct by copying _Right

  00000	55		 push	 ebp
  00001	8b ec		 mov	 ebp, esp
  00003	56		 push	 esi

; 544  : 		_Tidy();

  00004	33 c0		 xor	 eax, eax

; 545  : 		assign(_Right, 0, npos);

  00006	6a ff		 push	 -1
  00008	8b f1		 mov	 esi, ecx
  0000a	50		 push	 eax
  0000b	ff 75 08	 push	 DWORD PTR __Right$[ebp]
  0000e	c7 46 14 0f 00
	00 00		 mov	 DWORD PTR [esi+20], 15	; 0000000fH
  00015	89 46 10	 mov	 DWORD PTR [esi+16], eax
  00018	88 06		 mov	 BYTE PTR [esi], al
  0001a	e8 00 00 00 00	 call	 ?assign@?$basic_string@DU?$char_traits@D@std@@V?$allocator@D@2@@std@@QAEAAV12@ABV12@II@Z ; std::basic_string<char,std::char_traits<char>,std::allocator<char> >::assign

; 546  : 		}

  0001f	8b c6		 mov	 eax, esi
  00021	5e		 pop	 esi
  00022	5d		 pop	 ebp
  00023	c2 04 00	 ret	 4
??0?$basic_string@DU?$char_traits@D@std@@V?$allocator@D@2@@std@@QAE@ABV01@@Z ENDP ; std::basic_string<char,std::char_traits<char>,std::allocator<char> >::basic_string<char,std::char_traits<char>,std::allocator<char> >
_TEXT	ENDS
PUBLIC	??$_Destroy_range@V?$allocator@VioHashString@@@std@@@std@@YAXPAVioHashString@@0AAV?$allocator@VioHashString@@@0@@Z ; std::_Destroy_range<std::allocator<ioHashString> >
; Function compile flags: /Ogsp
; File c:\program files (x86)\microsoft visual studio 10.0\vc\include\xmemory
;	COMDAT ??$_Destroy_range@V?$allocator@VioHashString@@@std@@@std@@YAXPAVioHashString@@0AAV?$allocator@VioHashString@@@0@@Z
_TEXT	SEGMENT
__First$ = 8						; size = 4
__Last$ = 12						; size = 4
__Al$ = 16						; size = 4
??$_Destroy_range@V?$allocator@VioHashString@@@std@@@std@@YAXPAVioHashString@@0AAV?$allocator@VioHashString@@@0@@Z PROC ; std::_Destroy_range<std::allocator<ioHashString> >, COMDAT

; 87   : 	{	// destroy [_First, _Last)

  00000	55		 push	 ebp
  00001	8b ec		 mov	 ebp, esp
  00003	56		 push	 esi

; 88   : 	_Destroy_range(_First, _Last, _Al, _Ptr_cat(_First, _Last));

  00004	8b 75 08	 mov	 esi, DWORD PTR __First$[ebp]
  00007	eb 0b		 jmp	 SHORT $LN21@Destroy_ra@2
$LL7@Destroy_ra@2:
  00009	8b ce		 mov	 ecx, esi
  0000b	ff 15 00 00 00
	00		 call	 DWORD PTR __imp_??1ioHashString@@QAE@XZ
  00011	83 c6 10	 add	 esi, 16			; 00000010H
$LN21@Destroy_ra@2:
  00014	3b 75 0c	 cmp	 esi, DWORD PTR __Last$[ebp]
  00017	75 f0		 jne	 SHORT $LL7@Destroy_ra@2
  00019	5e		 pop	 esi

; 89   : 	}

  0001a	5d		 pop	 ebp
  0001b	c3		 ret	 0
??$_Destroy_range@V?$allocator@VioHashString@@@std@@@std@@YAXPAVioHashString@@0AAV?$allocator@VioHashString@@@0@@Z ENDP ; std::_Destroy_range<std::allocator<ioHashString> >
_TEXT	ENDS
PUBLIC	??_R0?AVTotalResultMainWnd@@@8			; TotalResultMainWnd `RTTI Type Descriptor'
PUBLIC	?GetUserInfoRoom@UserInfoToolTip@@IAE_NABVioHashString@@HAAUUserInfo@1@@Z ; UserInfoToolTip::GetUserInfoRoom
EXTRN	?GetAwakeType@ioBaseChar@@QAEHXZ:PROC		; ioBaseChar::GetAwakeType
EXTRN	?GetSoldierSetAddStat@ioRSoldierInfoManager@@QAEHHHH@Z:PROC ; ioRSoldierInfoManager::GetSoldierSetAddStat
EXTRN	?IsSoldierSet@ioRSoldierInfoManager@@QAE_NABUCHARACTER@@@Z:PROC ; ioRSoldierInfoManager::IsSoldierSet
EXTRN	?GetSoldierAddStat@ioRSoldierInfoManager@@QAEHHH@Z:PROC ; ioRSoldierInfoManager::GetSoldierAddStat
EXTRN	?IsRSoldierType@ioRSoldierInfoManager@@QAE_NABUCHARACTER@@@Z:PROC ; ioRSoldierInfoManager::IsRSoldierType
EXTRN	?GetSingleton@ioRSoldierInfoManager@@SAAAV1@XZ:PROC ; ioRSoldierInfoManager::GetSingleton
EXTRN	?GetAwakeCharGrowth@ioBaseChar@@QBEXAAHH@Z:PROC	; ioBaseChar::GetAwakeCharGrowth
EXTRN	?GetTotalStat@ioPetInfoManager@@QAEHHHH@Z:PROC	; ioPetInfoManager::GetTotalStat
EXTRN	?GetSingleton@ioPetInfoManager@@SAAAV1@XZ:PROC	; ioPetInfoManager::GetSingleton
EXTRN	?GetCurPetInfo@ioPlayStage@@QAE_NVioHashString@@AAUtagCurPetInfo@@@Z:PROC ; ioPlayStage::GetCurPetInfo
EXTRN	?GetModeType@ioPlayStage@@QBE?AW4ModeType@@XZ:PROC ; ioPlayStage::GetModeType
EXTRN	?GetMedalItemGrowth@ioMedalItemInfoManager@@QAEHH_NH@Z:PROC ; ioMedalItemInfoManager::GetMedalItemGrowth
EXTRN	?GetSingleton@ioMedalItemInfoManager@@SAAAV1@XZ:PROC ; ioMedalItemInfoManager::GetSingleton
EXTRN	?GetMedalItemType@ioBaseChar@@QAEXAAV?$vector@HV?$allocator@H@std@@@std@@@Z:PROC ; ioBaseChar::GetMedalItemType
EXTRN	?GetAwardMedalItemType@TotalResultMainWnd@@QAEXABVioHashString@@AAV?$vector@HV?$allocator@H@std@@@std@@@Z:PROC ; TotalResultMainWnd::GetAwardMedalItemType
EXTRN	?GetExMedalSlot@ioBaseChar@@QAEXAAV?$vector@HV?$allocator@H@std@@@std@@@Z:PROC ; ioBaseChar::GetExMedalSlot
EXTRN	?GetReinforceAddStat@ioGrowthInfoManager@@QAEHH@Z:PROC ; ioGrowthInfoManager::GetReinforceAddStat
EXTRN	?GetSingleton@ioGrowthInfoManager@@SAAAV1@XZ:PROC ; ioGrowthInfoManager::GetSingleton
EXTRN	?GetSingleton@ioItemCompoundMaterialManager@@SAAAV1@XZ:PROC ; ioItemCompoundMaterialManager::GetSingleton
EXTRN	?GetDefaultReinforce@ioBaseChar@@QAEHH@Z:PROC	; ioBaseChar::GetDefaultReinforce
EXTRN	?GetAwardCharLevel@TotalResultMainWnd@@QAEHABVioHashString@@@Z:PROC ; TotalResultMainWnd::GetAwardCharLevel
EXTRN	?GetAwardCharItemReinforce@TotalResultMainWnd@@QAEHABVioHashString@@H@Z:PROC ; TotalResultMainWnd::GetAwardCharItemReinforce
EXTRN	__imp_?FindWnd@ioGUIManager@@QAEPAVioWnd@@K@Z:PROC
EXTRN	?GetSingleton@ioSP2GUIManager@@SAAAV1@XZ:PROC	; ioSP2GUIManager::GetSingleton
EXTRN	?IsItem@ioItemMaker@@QAE_NK@Z:PROC		; ioItemMaker::IsItem
EXTRN	?GetSingleton@ioItemMaker@@SAAAV1@XZ:PROC	; ioItemMaker::GetSingleton
EXTRN	?IsPowerUpGradeItem@ioPowerUpManager@@QAE_NHH@Z:PROC ; ioPowerUpManager::IsPowerUpGradeItem
EXTRN	?GetSingleton@ioPowerUpManager@@SAAAV1@XZ:PROC	; ioPowerUpManager::GetSingleton
EXTRN	?ConvertPowerUpCharToItem@@YAHH@Z:PROC		; ConvertPowerUpCharToItem
EXTRN	?GetEquipedItem@ioBaseChar@@QAEPAVioItem@@H@Z:PROC ; ioBaseChar::GetEquipedItem
EXTRN	?GetItemGrowthLevel@ioGrowthLevel@@QAEEHH_N@Z:PROC ; ioGrowthLevel::GetItemGrowthLevel
EXTRN	?GetCharGrowthLevel@ioGrowthLevel@@QAEEHH_N@Z:PROC ; ioGrowthLevel::GetCharGrowthLevel
EXTRN	?GetGrowthLevel@ioPlayStage@@QAEPAVioGrowthLevel@@ABVioHashString@@@Z:PROC ; ioPlayStage::GetGrowthLevel
EXTRN	?GetBaseChar@ioPlayStage@@QAEPAVioBaseChar@@K@Z:PROC ; ioPlayStage::GetBaseChar
EXTRN	?GetCharIndex@ioMyInfo@@QAEHH@Z:PROC		; ioMyInfo::GetCharIndex
EXTRN	?GetSingleton@ioMyInfo@@SAAAV1@XZ:PROC		; ioMyInfo::GetSingleton
EXTRN	?GetBaseChar@ioPlayStage@@QAEPAVioBaseChar@@ABVioHashString@@@Z:PROC ; ioPlayStage::GetBaseChar
;	COMDAT ??_R0?AVTotalResultMainWnd@@@8
; File c:\program files (x86)\microsoft visual studio 10.0\vc\include\vector
_DATA	SEGMENT
??_R0?AVTotalResultMainWnd@@@8 DD FLAT:??_7type_info@@6B@ ; TotalResultMainWnd `RTTI Type Descriptor'
	DD	00H
	DB	'.?AVTotalResultMainWnd@@', 00H
_DATA	ENDS
;	COMDAT xdata$x
xdata$x	SEGMENT
__unwindtable$?GetUserInfoRoom@UserInfoToolTip@@IAE_NABVioHashString@@HAAUUserInfo@1@@Z DD 0ffffffffH
	DD	FLAT:__unwindfunclet$?GetUserInfoRoom@UserInfoToolTip@@IAE_NABVioHashString@@HAAUUserInfo@1@@Z$0
__ehfuncinfo$?GetUserInfoRoom@UserInfoToolTip@@IAE_NABVioHashString@@HAAUUserInfo@1@@Z DD 019930522H
	DD	01H
	DD	FLAT:__unwindtable$?GetUserInfoRoom@UserInfoToolTip@@IAE_NABVioHashString@@HAAUUserInfo@1@@Z
	DD	2 DUP(00H)
	DD	2 DUP(00H)
	DD	00H
	DD	01H
; Function compile flags: /Ogsp
; File d:\lost saga for developer\youtube\tutorial\source\src\lsclient\gui\userinfotooltip.cpp
xdata$x	ENDS
;	COMDAT ?GetUserInfoRoom@UserInfoToolTip@@IAE_NABVioHashString@@HAAUUserInfo@1@@Z
_TEXT	SEGMENT
_kExMedalSlotVec$ = -76					; size = 16
_sCurPetInfo$ = -60					; size = 12
_iClassLevel$ = -48					; size = 4
_iPowerUpCharGrade$ = -44				; size = 4
_this$ = -40						; size = 4
_iCurRCount$546559 = -36				; size = 4
_iGrowthSize$ = -36					; size = 4
_i$546480 = -36						; size = 4
_iLevel$546478 = -36					; size = 4
_iLevel$546472 = -36					; size = 4
tv1408 = -32						; size = 4
$T559546 = -32						; size = 4
$T559403 = -32						; size = 4
$T559402 = -32						; size = 4
tv331 = -32						; size = 4
tv280 = -32						; size = 4
tv257 = -32						; size = 4
_j$546526 = -32						; size = 4
_value$559424 = -28					; size = 4
tv1512 = -24						; size = 4
_j$546521 = -24						; size = 4
_pResultMainWnd$ = -24					; size = 4
_dwItemCode$546484 = -24				; size = 4
_i$546474 = -24						; size = 4
_i$546468 = -24						; size = 4
tv1419 = -20						; size = 4
_i$546517 = -20						; size = 4
_iItemReinforce$546502 = -20				; size = 4
_pGrowthLevel$ = -20					; size = 4
_pChar$ = -16						; size = 4
__$EHRec$ = -12						; size = 12
tv587 = 8						; size = 4
tv505 = 8						; size = 4
_sName$ = 8						; size = 4
_iType$ = 12						; size = 4
tv1567 = 16						; size = 4
_iAccessoryCode$546604 = 16				; size = 4
_nCostumeCode$546599 = 16				; size = 4
_nCurCharSet$546574 = 16				; size = 4
_i$546569 = 16						; size = 4
_rkUserInfo$ = 16					; size = 4
?GetUserInfoRoom@UserInfoToolTip@@IAE_NABVioHashString@@HAAUUserInfo@1@@Z PROC ; UserInfoToolTip::GetUserInfoRoom, COMDAT
; _this$ = ecx

; 780  : {

  00000	6a 40		 push	 64			; 00000040H
  00002	b8 00 00 00 00	 mov	 eax, __ehhandler$?GetUserInfoRoom@UserInfoToolTip@@IAE_NABVioHashString@@HAAUUserInfo@1@@Z
  00007	e8 00 00 00 00	 call	 __EH_prolog3
  0000c	8b f1		 mov	 esi, ecx
  0000e	89 75 d8	 mov	 DWORD PTR _this$[ebp], esi

; 781  : 	if( sName.IsEmpty() ) 

  00011	8b 7d 08	 mov	 edi, DWORD PTR _sName$[ebp]
  00014	8b cf		 mov	 ecx, edi
  00016	ff 15 00 00 00
	00		 call	 DWORD PTR __imp_?IsEmpty@ioHashString@@QBE_NXZ
  0001c	84 c0		 test	 al, al
  0001e	74 07		 je	 SHORT $LN97@GetUserInf
$LN269@GetUserInf:

; 782  : 		return false;

  00020	32 c0		 xor	 al, al
  00022	e9 9d 06 00 00	 jmp	 $LN98@GetUserInf
$LN97@GetUserInf:

; 783  : 
; 784  : 	if( !m_pPlayStage ) 

  00027	8b 8e 60 01 00
	00		 mov	 ecx, DWORD PTR [esi+352]
  0002d	85 c9		 test	 ecx, ecx

; 785  : 		return false;

  0002f	74 ef		 je	 SHORT $LN269@GetUserInf

; 786  : 
; 787  : 	ioBaseChar *pChar = m_pPlayStage->GetBaseChar( sName );

  00031	57		 push	 edi
  00032	e8 00 00 00 00	 call	 ?GetBaseChar@ioPlayStage@@QAEPAVioBaseChar@@ABVioHashString@@@Z ; ioPlayStage::GetBaseChar
  00037	8b d8		 mov	 ebx, eax
  00039	89 5d f0	 mov	 DWORD PTR _pChar$[ebp], ebx

; 788  : 
; 789  : 	if( !pChar )

  0003c	85 db		 test	 ebx, ebx
  0003e	75 41		 jne	 SHORT $LN93@GetUserInf

; 790  : 	{
; 791  : 		// 본부에서 skilllist over시 본부의 sName은 뒤에 (1) 처럼 인자가 붙음.
; 792  : 		if( sName == g_MyInfo.GetPublicID() )

  00040	e8 00 00 00 00	 call	 ?GetSingleton@ioMyInfo@@SAAAV1@XZ ; ioMyInfo::GetSingleton
  00045	83 c0 1c	 add	 eax, 28			; 0000001cH
  00048	50		 push	 eax
  00049	8b cf		 mov	 ecx, edi
  0004b	ff 15 00 00 00
	00		 call	 DWORD PTR __imp_??8ioHashString@@QBE_NABV0@@Z
  00051	84 c0		 test	 al, al
  00053	74 cb		 je	 SHORT $LN269@GetUserInf

; 793  : 		{
; 794  : 			int iCharIndex = g_MyInfo.GetCharIndex( g_MyInfo.GetSelectCharArray() );

  00055	e8 00 00 00 00	 call	 ?GetSingleton@ioMyInfo@@SAAAV1@XZ ; ioMyInfo::GetSingleton
  0005a	ff b0 c8 00 00
	00		 push	 DWORD PTR [eax+200]
  00060	e8 00 00 00 00	 call	 ?GetSingleton@ioMyInfo@@SAAAV1@XZ ; ioMyInfo::GetSingleton
  00065	8b c8		 mov	 ecx, eax
  00067	e8 00 00 00 00	 call	 ?GetCharIndex@ioMyInfo@@QAEHH@Z ; ioMyInfo::GetCharIndex

; 795  : 			pChar = m_pPlayStage->GetBaseChar( iCharIndex );

  0006c	8b 8e 60 01 00
	00		 mov	 ecx, DWORD PTR [esi+352]
  00072	50		 push	 eax
  00073	e8 00 00 00 00	 call	 ?GetBaseChar@ioPlayStage@@QAEPAVioBaseChar@@K@Z ; ioPlayStage::GetBaseChar
  00078	8b d8		 mov	 ebx, eax
  0007a	89 45 f0	 mov	 DWORD PTR _pChar$[ebp], eax

; 796  : 		}
; 797  : 	}
; 798  : 
; 799  : 	if( !pChar )

  0007d	85 db		 test	 ebx, ebx

; 800  : 		return false;

  0007f	74 9f		 je	 SHORT $LN269@GetUserInf
$LN93@GetUserInf:

; 801  : 
; 802  : 	int iClassType			= pChar->GetCharacterInfo().m_class_type;

  00081	8d 45 e4	 lea	 eax, DWORD PTR _value$559424[ebp]
  00084	8d 8b 58 03 00
	00		 lea	 ecx, DWORD PTR [ebx+856]
  0008a	50		 push	 eax
  0008b	e8 00 00 00 00	 call	 ?DecryptValueToPool@?$CEncrypt@H@@QAEXPAH@Z ; CEncrypt<int>::DecryptValueToPool

; 803  : 	int iPowerUpCharGrade	= pChar->GetCharacterInfo().m_eCharPowerUpType;

  00090	0f b6 83 14 06
	00 00		 movzx	 eax, BYTE PTR [ebx+1556]

; 804  : 
; 805  : 	// growth
; 806  : 	ioGrowthLevel *pGrowthLevel = m_pPlayStage->GetGrowthLevel( sName );

  00097	8b 8e 60 01 00
	00		 mov	 ecx, DWORD PTR [esi+352]
  0009d	57		 push	 edi
  0009e	89 45 d4	 mov	 DWORD PTR _iPowerUpCharGrade$[ebp], eax
  000a1	e8 00 00 00 00	 call	 ?GetGrowthLevel@ioPlayStage@@QAEPAVioGrowthLevel@@ABVioHashString@@@Z ; ioPlayStage::GetGrowthLevel

; 807  : 	for( int i=0; i < MAX_CHAR_GROWTH; ++i )

  000a6	83 65 e8 00	 and	 DWORD PTR _i$546468[ebp], 0
  000aa	8b 75 10	 mov	 esi, DWORD PTR _rkUserInfo$[ebp]
  000ad	89 45 ec	 mov	 DWORD PTR _pGrowthLevel$[ebp], eax
$LL92@GetUserInf:

; 808  : 	{
; 809  : 		int iLevel = 0;

  000b0	83 65 dc 00	 and	 DWORD PTR _iLevel$546472[ebp], 0

; 810  : 		if( pGrowthLevel )

  000b4	83 7d ec 00	 cmp	 DWORD PTR _pGrowthLevel$[ebp], 0
  000b8	74 16		 je	 SHORT $LN89@GetUserInf

; 811  : 			iLevel = pGrowthLevel->GetCharGrowthLevel( iClassType, i, false );

  000ba	8b 4d ec	 mov	 ecx, DWORD PTR _pGrowthLevel$[ebp]
  000bd	6a 00		 push	 0
  000bf	ff 75 e8	 push	 DWORD PTR _i$546468[ebp]
  000c2	ff 75 e4	 push	 DWORD PTR _value$559424[ebp]
  000c5	e8 00 00 00 00	 call	 ?GetCharGrowthLevel@ioGrowthLevel@@QAEEHH_N@Z ; ioGrowthLevel::GetCharGrowthLevel
  000ca	0f b6 c0	 movzx	 eax, al
  000cd	89 45 dc	 mov	 DWORD PTR _iLevel$546472[ebp], eax
$LN89@GetUserInf:

; 812  : 		rkUserInfo.m_vGrowthLevelVec.push_back( iLevel );

  000d0	8d 45 dc	 lea	 eax, DWORD PTR _iLevel$546472[ebp]
  000d3	50		 push	 eax
  000d4	8d 4e 28	 lea	 ecx, DWORD PTR [esi+40]
  000d7	e8 00 00 00 00	 call	 ?push_back@?$vector@HV?$allocator@H@std@@@std@@QAEXABH@Z ; std::vector<int,std::allocator<int> >::push_back
  000dc	ff 45 e8	 inc	 DWORD PTR _i$546468[ebp]
  000df	83 7d e8 04	 cmp	 DWORD PTR _i$546468[ebp], 4
  000e3	7c cb		 jl	 SHORT $LL92@GetUserInf

; 813  : 	}
; 814  : 
; 815  : 	for( int i=0; i < MAX_ITEM_GROWTH; ++i )

  000e5	83 65 e8 00	 and	 DWORD PTR _i$546474[ebp], 0
$LN88@GetUserInf:

; 816  : 	{
; 817  : 		int iLevel = 0;

  000e9	83 65 dc 00	 and	 DWORD PTR _iLevel$546478[ebp], 0

; 818  : 		if( pGrowthLevel )

  000ed	83 7d ec 00	 cmp	 DWORD PTR _pGrowthLevel$[ebp], 0
  000f1	74 16		 je	 SHORT $LN85@GetUserInf

; 819  : 			iLevel = pGrowthLevel->GetItemGrowthLevel( iClassType, i, false );

  000f3	8b 4d ec	 mov	 ecx, DWORD PTR _pGrowthLevel$[ebp]
  000f6	6a 00		 push	 0
  000f8	ff 75 e8	 push	 DWORD PTR _i$546474[ebp]
  000fb	ff 75 e4	 push	 DWORD PTR _value$559424[ebp]
  000fe	e8 00 00 00 00	 call	 ?GetItemGrowthLevel@ioGrowthLevel@@QAEEHH_N@Z ; ioGrowthLevel::GetItemGrowthLevel
  00103	0f b6 c0	 movzx	 eax, al
  00106	89 45 dc	 mov	 DWORD PTR _iLevel$546478[ebp], eax
$LN85@GetUserInf:

; 820  : 		rkUserInfo.m_vGrowthLevelVec.push_back( iLevel );

  00109	8d 45 dc	 lea	 eax, DWORD PTR _iLevel$546478[ebp]
  0010c	50		 push	 eax
  0010d	8d 4e 28	 lea	 ecx, DWORD PTR [esi+40]
  00110	e8 00 00 00 00	 call	 ?push_back@?$vector@HV?$allocator@H@std@@@std@@QAEXABH@Z ; std::vector<int,std::allocator<int> >::push_back
  00115	ff 45 e8	 inc	 DWORD PTR _i$546474[ebp]
  00118	83 7d e8 04	 cmp	 DWORD PTR _i$546474[ebp], 4
  0011c	7c cb		 jl	 SHORT $LN88@GetUserInf

; 821  : 	}
; 822  : 
; 823  : 	// equip
; 824  : 	for(int i = 0;i < MAX_INVENTORY;i++)

  0011e	8b 45 e4	 mov	 eax, DWORD PTR _value$559424[ebp]
  00121	83 65 dc 00	 and	 DWORD PTR _i$546480[ebp], 0
  00125	83 65 e0 00	 and	 DWORD PTR tv1408[ebp], 0
  00129	89 45 ec	 mov	 DWORD PTR tv1419[ebp], eax
$LN84@GetUserInf:

; 825  : 	{
; 826  : 		DWORD dwItemCode = 0;
; 827  : 		ioItem *pItem = pChar->GetEquipedItem( i );

  0012c	ff 75 dc	 push	 DWORD PTR _i$546480[ebp]
  0012f	83 65 e8 00	 and	 DWORD PTR _dwItemCode$546484[ebp], 0
  00133	8b cb		 mov	 ecx, ebx
  00135	e8 00 00 00 00	 call	 ?GetEquipedItem@ioBaseChar@@QAEPAVioItem@@H@Z ; ioBaseChar::GetEquipedItem

; 828  : 		if( pItem )

  0013a	85 c0		 test	 eax, eax
  0013c	74 05		 je	 SHORT $LN81@GetUserInf

; 829  : 		{
; 830  : 			dwItemCode = pItem->GetItemCode();

  0013e	8b 40 38	 mov	 eax, DWORD PTR [eax+56]

; 831  : 		}
; 832  : 		else

  00141	eb 3f		 jmp	 SHORT $LN263@GetUserInf
$LN81@GetUserInf:

; 833  : 		{
; 834  : 			int iItemCode = 0;
; 835  : 			if( iPowerUpCharGrade != PUGT_NONE )

  00143	83 7d d4 00	 cmp	 DWORD PTR _iPowerUpCharGrade$[ebp], 0
  00147	74 36		 je	 SHORT $LN79@GetUserInf

; 836  : 			{
; 837  : 				iItemCode = (DEFAULT_BASIC_ITEM_CODE * i) + ConvertPowerUpCharToItem( iPowerUpCharGrade ) + iClassType;

  00149	ff 75 d4	 push	 DWORD PTR _iPowerUpCharGrade$[ebp]
  0014c	e8 00 00 00 00	 call	 ?ConvertPowerUpCharToItem@@YAHH@Z ; ConvertPowerUpCharToItem
  00151	8b f8		 mov	 edi, eax
  00153	03 7d e0	 add	 edi, DWORD PTR tv1408[ebp]
  00156	59		 pop	 ecx
  00157	03 7d e4	 add	 edi, DWORD PTR _value$559424[ebp]

; 838  : 				if( !g_PowerUpManager.IsPowerUpGradeItem( iClassType, iItemCode ) || !g_ItemMaker.IsItem( iItemCode ) )

  0015a	57		 push	 edi
  0015b	ff 75 e4	 push	 DWORD PTR _value$559424[ebp]
  0015e	e8 00 00 00 00	 call	 ?GetSingleton@ioPowerUpManager@@SAAAV1@XZ ; ioPowerUpManager::GetSingleton
  00163	8b c8		 mov	 ecx, eax
  00165	e8 00 00 00 00	 call	 ?IsPowerUpGradeItem@ioPowerUpManager@@QAE_NHH@Z ; ioPowerUpManager::IsPowerUpGradeItem
  0016a	84 c0		 test	 al, al
  0016c	74 11		 je	 SHORT $LN79@GetUserInf
  0016e	57		 push	 edi
  0016f	e8 00 00 00 00	 call	 ?GetSingleton@ioItemMaker@@SAAAV1@XZ ; ioItemMaker::GetSingleton
  00174	8b c8		 mov	 ecx, eax
  00176	e8 00 00 00 00	 call	 ?IsItem@ioItemMaker@@QAE_NK@Z ; ioItemMaker::IsItem
  0017b	84 c0		 test	 al, al
  0017d	75 06		 jne	 SHORT $LN76@GetUserInf
$LN79@GetUserInf:

; 839  : 				{
; 840  : 					// 아이템은 어쌔신일때 12, 100012, 200012, 300012 형식, 
; 841  : 					dwItemCode = (DEFAULT_BASIC_ITEM_CODE * i) + iClassType;
; 842  : 				}
; 843  : 			}
; 844  : 			else
; 845  : 			{
; 846  : 				// 아이템은 어쌔신일때 12, 100012, 200012, 300012 형식, 
; 847  : 				dwItemCode = (DEFAULT_BASIC_ITEM_CODE * i) + iClassType;

  0017f	8b 45 ec	 mov	 eax, DWORD PTR tv1419[ebp]
$LN263@GetUserInf:
  00182	89 45 e8	 mov	 DWORD PTR _dwItemCode$546484[ebp], eax
$LN76@GetUserInf:

; 848  : 			}
; 849  : 		}
; 850  : 
; 851  : 		rkUserInfo.m_vItemCodeVec.push_back( dwItemCode );

  00185	8d 45 e8	 lea	 eax, DWORD PTR _dwItemCode$546484[ebp]
  00188	50		 push	 eax
  00189	8d 4e 58	 lea	 ecx, DWORD PTR [esi+88]
  0018c	e8 00 00 00 00	 call	 ?push_back@?$vector@KV?$allocator@K@std@@@std@@QAEXABK@Z ; std::vector<unsigned long,std::allocator<unsigned long> >::push_back
  00191	ff 45 dc	 inc	 DWORD PTR _i$546480[ebp]
  00194	b8 a0 86 01 00	 mov	 eax, 100000		; 000186a0H
  00199	01 45 e0	 add	 DWORD PTR tv1408[ebp], eax
  0019c	01 45 ec	 add	 DWORD PTR tv1419[ebp], eax
  0019f	81 7d e0 80 1a
	06 00		 cmp	 DWORD PTR tv1408[ebp], 400000 ; 00061a80H
  001a6	7c 84		 jl	 SHORT $LN84@GetUserInf

; 852  : 	}
; 853  : 
; 854  : 	TotalResultMainWnd *pResultMainWnd = dynamic_cast<TotalResultMainWnd *>(g_GUIMgr.FindWnd(TOTAL_RESULT_MAIN_WND));

  001a8	33 ff		 xor	 edi, edi
  001aa	57		 push	 edi
  001ab	68 00 00 00 00	 push	 OFFSET ??_R0?AVTotalResultMainWnd@@@8
  001b0	68 00 00 00 00	 push	 OFFSET ??_R0?AVioWnd@@@8
  001b5	57		 push	 edi
  001b6	68 8f 13 00 00	 push	 5007			; 0000138fH
  001bb	e8 00 00 00 00	 call	 ?GetSingleton@ioSP2GUIManager@@SAAAV1@XZ ; ioSP2GUIManager::GetSingleton
  001c0	8b c8		 mov	 ecx, eax
  001c2	ff 15 00 00 00
	00		 call	 DWORD PTR __imp_?FindWnd@ioGUIManager@@QAEPAVioWnd@@K@Z
  001c8	50		 push	 eax
  001c9	e8 00 00 00 00	 call	 ___RTDynamicCast

; 855  : 
; 856  : 	// extra item
; 857  : 	int iClassLevel = pChar->GetClassLevel();
; 858  : 	int iGrowthSize = rkUserInfo.m_vGrowthLevelVec.size();

  001ce	8b 5e 2c	 mov	 ebx, DWORD PTR [esi+44]
  001d1	2b 5e 28	 sub	 ebx, DWORD PTR [esi+40]
  001d4	89 45 e8	 mov	 DWORD PTR _pResultMainWnd$[ebp], eax
  001d7	8b 45 f0	 mov	 eax, DWORD PTR _pChar$[ebp]
  001da	8b 80 d0 02 00
	00		 mov	 eax, DWORD PTR [eax+720]
  001e0	83 c4 14	 add	 esp, 20			; 00000014H
  001e3	c1 fb 02	 sar	 ebx, 2
  001e6	89 45 d0	 mov	 DWORD PTR _iClassLevel$[ebp], eax
  001e9	89 5d dc	 mov	 DWORD PTR _iGrowthSize$[ebp], ebx
$LL75@GetUserInf:

; 860  : 	{
; 861  : 		int iItemReinforce = 0;	
; 862  : 		if( pResultMainWnd && pResultMainWnd->IsShow() )

  001ec	83 7d e8 00	 cmp	 DWORD PTR _pResultMainWnd$[ebp], 0
  001f0	74 2c		 je	 SHORT $LN72@GetUserInf
  001f2	8b 4d e8	 mov	 ecx, DWORD PTR _pResultMainWnd$[ebp]
  001f5	ff 15 00 00 00
	00		 call	 DWORD PTR __imp_?IsShow@ioWnd@@QBE_NXZ
  001fb	84 c0		 test	 al, al
  001fd	74 1f		 je	 SHORT $LN72@GetUserInf

; 863  : 		{
; 864  : 			iItemReinforce = pResultMainWnd->GetAwardCharItemReinforce( sName, i );

  001ff	8b 4d e8	 mov	 ecx, DWORD PTR _pResultMainWnd$[ebp]
  00202	57		 push	 edi
  00203	ff 75 08	 push	 DWORD PTR _sName$[ebp]
  00206	e8 00 00 00 00	 call	 ?GetAwardCharItemReinforce@TotalResultMainWnd@@QAEHABVioHashString@@H@Z ; TotalResultMainWnd::GetAwardCharItemReinforce

; 865  : 			iClassLevel    = pResultMainWnd->GetAwardCharLevel( sName );

  0020b	ff 75 08	 push	 DWORD PTR _sName$[ebp]
  0020e	8b 4d e8	 mov	 ecx, DWORD PTR _pResultMainWnd$[ebp]
  00211	89 45 ec	 mov	 DWORD PTR _iItemReinforce$546502[ebp], eax
  00214	e8 00 00 00 00	 call	 ?GetAwardCharLevel@TotalResultMainWnd@@QAEHABVioHashString@@@Z ; TotalResultMainWnd::GetAwardCharLevel
  00219	89 45 d0	 mov	 DWORD PTR _iClassLevel$[ebp], eax

; 866  : 		}
; 867  : 		else

  0021c	eb 0c		 jmp	 SHORT $LN71@GetUserInf
$LN72@GetUserInf:

; 868  : 			iItemReinforce = pChar->GetDefaultReinforce( i );	

  0021e	8b 4d f0	 mov	 ecx, DWORD PTR _pChar$[ebp]
  00221	57		 push	 edi
  00222	e8 00 00 00 00	 call	 ?GetDefaultReinforce@ioBaseChar@@QAEHH@Z ; ioBaseChar::GetDefaultReinforce
  00227	89 45 ec	 mov	 DWORD PTR _iItemReinforce$546502[ebp], eax
$LN71@GetUserInf:

; 869  : 
; 870  : 		if( COMPARE( i, 0, iGrowthSize ) )

  0022a	85 ff		 test	 edi, edi
  0022c	78 32		 js	 SHORT $LN68@GetUserInf
  0022e	3b fb		 cmp	 edi, ebx
  00230	7d 2e		 jge	 SHORT $LN68@GetUserInf

; 871  : 		{
; 872  : 			if ( iItemReinforce <= g_CompoundMaterialMgr.GetFixedFailReinforce() )

  00232	e8 00 00 00 00	 call	 ?GetSingleton@ioItemCompoundMaterialManager@@SAAAV1@XZ ; ioItemCompoundMaterialManager::GetSingleton
  00237	8b 4d ec	 mov	 ecx, DWORD PTR _iItemReinforce$546502[ebp]
  0023a	3b 48 4c	 cmp	 ecx, DWORD PTR [eax+76]
  0023d	8b 46 28	 mov	 eax, DWORD PTR [esi+40]
  00240	8d 04 b8	 lea	 eax, DWORD PTR [eax+edi*4]
  00243	7f 04		 jg	 SHORT $LN69@GetUserInf

; 873  : 				rkUserInfo.m_vGrowthLevelVec[i] += iItemReinforce;

  00245	01 08		 add	 DWORD PTR [eax], ecx

; 874  : 			else

  00247	eb 17		 jmp	 SHORT $LN68@GetUserInf
$LN69@GetUserInf:

; 875  : 				rkUserInfo.m_vGrowthLevelVec[i] += g_GrowthInfoMgr.GetReinforceAddStat( iItemReinforce );

  00249	ff 75 ec	 push	 DWORD PTR _iItemReinforce$546502[ebp]
  0024c	89 45 e0	 mov	 DWORD PTR tv257[ebp], eax
  0024f	e8 00 00 00 00	 call	 ?GetSingleton@ioGrowthInfoManager@@SAAAV1@XZ ; ioGrowthInfoManager::GetSingleton
  00254	8b c8		 mov	 ecx, eax
  00256	e8 00 00 00 00	 call	 ?GetReinforceAddStat@ioGrowthInfoManager@@QAEHH@Z ; ioGrowthInfoManager::GetReinforceAddStat
  0025b	8b 4d e0	 mov	 ecx, DWORD PTR tv257[ebp]
  0025e	01 01		 add	 DWORD PTR [ecx], eax
$LN68@GetUserInf:

; 876  : 		}
; 877  : 		int iArray = i+MAX_CHAR_GROWTH;
; 878  : 		if( COMPARE( iArray, 0, iGrowthSize ) )

  00260	8d 47 04	 lea	 eax, DWORD PTR [edi+4]
  00263	85 c0		 test	 eax, eax
  00265	78 33		 js	 SHORT $LN74@GetUserInf
  00267	3b c3		 cmp	 eax, ebx
  00269	7d 2f		 jge	 SHORT $LN74@GetUserInf

; 879  : 		{
; 880  : 			if ( iItemReinforce <= g_CompoundMaterialMgr.GetFixedFailReinforce() )

  0026b	e8 00 00 00 00	 call	 ?GetSingleton@ioItemCompoundMaterialManager@@SAAAV1@XZ ; ioItemCompoundMaterialManager::GetSingleton
  00270	8b 4d ec	 mov	 ecx, DWORD PTR _iItemReinforce$546502[ebp]
  00273	3b 48 4c	 cmp	 ecx, DWORD PTR [eax+76]

; 881  : 				rkUserInfo.m_vGrowthLevelVec[iArray] += iItemReinforce;

  00276	8b 46 28	 mov	 eax, DWORD PTR [esi+40]
  00279	8d 44 b8 10	 lea	 eax, DWORD PTR [eax+edi*4+16]
  0027d	7f 04		 jg	 SHORT $LN66@GetUserInf
  0027f	01 08		 add	 DWORD PTR [eax], ecx

; 882  : 			else

  00281	eb 17		 jmp	 SHORT $LN74@GetUserInf
$LN66@GetUserInf:

; 883  : 				rkUserInfo.m_vGrowthLevelVec[iArray] += g_GrowthInfoMgr.GetReinforceAddStat( iItemReinforce );

  00283	ff 75 ec	 push	 DWORD PTR _iItemReinforce$546502[ebp]
  00286	89 45 e0	 mov	 DWORD PTR tv280[ebp], eax
  00289	e8 00 00 00 00	 call	 ?GetSingleton@ioGrowthInfoManager@@SAAAV1@XZ ; ioGrowthInfoManager::GetSingleton
  0028e	8b c8		 mov	 ecx, eax
  00290	e8 00 00 00 00	 call	 ?GetReinforceAddStat@ioGrowthInfoManager@@QAEHH@Z ; ioGrowthInfoManager::GetReinforceAddStat
  00295	8b 4d e0	 mov	 ecx, DWORD PTR tv280[ebp]
  00298	01 01		 add	 DWORD PTR [ecx], eax
$LN74@GetUserInf:

; 859  : 	for (int i = 0; i < MAX_INVENTORY; i++)

  0029a	47		 inc	 edi
  0029b	83 ff 04	 cmp	 edi, 4
  0029e	0f 8c 48 ff ff
	ff		 jl	 $LL75@GetUserInf

; 884  : 		}
; 885  : 	}
; 886  : 
; 887  : 	// expand medal slot
; 888  : 	IntVec kExMedalSlotVec;

  002a4	33 ff		 xor	 edi, edi
  002a6	89 7d b4	 mov	 DWORD PTR _kExMedalSlotVec$[ebp], edi
  002a9	89 7d b8	 mov	 DWORD PTR _kExMedalSlotVec$[ebp+4], edi
  002ac	89 7d bc	 mov	 DWORD PTR _kExMedalSlotVec$[ebp+8], edi

; 889  : 	kExMedalSlotVec.clear();

  002af	33 c0		 xor	 eax, eax
  002b1	50		 push	 eax
  002b2	33 c9		 xor	 ecx, ecx
  002b4	51		 push	 ecx
  002b5	8d 45 e0	 lea	 eax, DWORD PTR $T559546[ebp]
  002b8	50		 push	 eax
  002b9	8d 4d b4	 lea	 ecx, DWORD PTR _kExMedalSlotVec$[ebp]
  002bc	89 7d fc	 mov	 DWORD PTR __$EHRec$[ebp+8], edi
  002bf	e8 00 00 00 00	 call	 ?erase@?$vector@HV?$allocator@H@std@@@std@@QAE?AV?$_Vector_iterator@V?$_Vector_val@HV?$allocator@H@std@@@std@@@2@V?$_Vector_const_iterator@V?$_Vector_val@HV?$allocator@H@std@@@std@@@2@0@Z ; std::vector<int,std::allocator<int> >::erase

; 890  : 	pChar->GetExMedalSlot( kExMedalSlotVec );

  002c4	8b 4d f0	 mov	 ecx, DWORD PTR _pChar$[ebp]
  002c7	8d 45 b4	 lea	 eax, DWORD PTR _kExMedalSlotVec$[ebp]
  002ca	50		 push	 eax
  002cb	e8 00 00 00 00	 call	 ?GetExMedalSlot@ioBaseChar@@QAEXAAV?$vector@HV?$allocator@H@std@@@std@@@Z ; ioBaseChar::GetExMedalSlot

; 891  : 	rkUserInfo.m_vExMedalSlotVec = kExMedalSlotVec;

  002d0	8d 45 b4	 lea	 eax, DWORD PTR _kExMedalSlotVec$[ebp]
  002d3	50		 push	 eax
  002d4	8d 4e 48	 lea	 ecx, DWORD PTR [esi+72]
  002d7	e8 00 00 00 00	 call	 ??4?$vector@HV?$allocator@H@std@@@std@@QAEAAV01@ABV01@@Z ; std::vector<int,std::allocator<int> >::operator=

; 892  : 
; 893  : 	// medal
; 894  : 	if( pResultMainWnd && pResultMainWnd->IsShow() )

  002dc	39 7d e8	 cmp	 DWORD PTR _pResultMainWnd$[ebp], edi
  002df	74 1e		 je	 SHORT $LN64@GetUserInf
  002e1	8b 4d e8	 mov	 ecx, DWORD PTR _pResultMainWnd$[ebp]
  002e4	ff 15 00 00 00
	00		 call	 DWORD PTR __imp_?IsShow@ioWnd@@QBE_NXZ
  002ea	84 c0		 test	 al, al
  002ec	74 11		 je	 SHORT $LN64@GetUserInf

; 895  : 	{
; 896  : 		if( pResultMainWnd )
; 897  : 			pResultMainWnd->GetAwardMedalItemType( sName, rkUserInfo.m_vMedalItemTypeVec );

  002ee	8b 4d e8	 mov	 ecx, DWORD PTR _pResultMainWnd$[ebp]
  002f1	8d 7e 38	 lea	 edi, DWORD PTR [esi+56]
  002f4	57		 push	 edi
  002f5	ff 75 08	 push	 DWORD PTR _sName$[ebp]
  002f8	e8 00 00 00 00	 call	 ?GetAwardMedalItemType@TotalResultMainWnd@@QAEXABVioHashString@@AAV?$vector@HV?$allocator@H@std@@@std@@@Z ; TotalResultMainWnd::GetAwardMedalItemType

; 898  : 	}
; 899  : 	else

  002fd	eb 0c		 jmp	 SHORT $LN62@GetUserInf
$LN64@GetUserInf:

; 900  : 		pChar->GetMedalItemType( rkUserInfo.m_vMedalItemTypeVec );

  002ff	8b 4d f0	 mov	 ecx, DWORD PTR _pChar$[ebp]
  00302	8d 7e 38	 lea	 edi, DWORD PTR [esi+56]
  00305	57		 push	 edi
  00306	e8 00 00 00 00	 call	 ?GetMedalItemType@ioBaseChar@@QAEXAAV?$vector@HV?$allocator@H@std@@@std@@@Z ; ioBaseChar::GetMedalItemType
$LN62@GetUserInf:

; 901  : 
; 902  : 	int iMedalSize = rkUserInfo.m_vMedalItemTypeVec.size();

  0030b	8b 5f 04	 mov	 ebx, DWORD PTR [edi+4]
  0030e	2b 1f		 sub	 ebx, DWORD PTR [edi]

; 903  : 	for (int i = 0; i < iMedalSize ; i++)

  00310	83 65 ec 00	 and	 DWORD PTR _i$546517[ebp], 0
  00314	c1 fb 02	 sar	 ebx, 2
  00317	85 db		 test	 ebx, ebx
  00319	0f 8e 9f 00 00
	00		 jle	 $LN59@GetUserInf
$LN61@GetUserInf:

; 904  : 	{
; 905  : 		for (int j = 0; j < MAX_CHAR_GROWTH; j++)

  0031f	83 65 e8 00	 and	 DWORD PTR _j$546521[ebp], 0
$LN58@GetUserInf:

; 906  : 		{
; 907  : 			if( COMPARE( j, 0, iGrowthSize ) )

  00323	83 7d e8 00	 cmp	 DWORD PTR _j$546521[ebp], 0
  00327	7c 32		 jl	 SHORT $LN57@GetUserInf
  00329	8b 45 e8	 mov	 eax, DWORD PTR _j$546521[ebp]
  0032c	3b 45 dc	 cmp	 eax, DWORD PTR _iGrowthSize$[ebp]
  0032f	7d 2a		 jge	 SHORT $LN57@GetUserInf

; 904  : 	{
; 905  : 		for (int j = 0; j < MAX_CHAR_GROWTH; j++)

  00331	8b 4d e8	 mov	 ecx, DWORD PTR _j$546521[ebp]
  00334	8b 46 28	 mov	 eax, DWORD PTR [esi+40]
  00337	8b 55 ec	 mov	 edx, DWORD PTR _i$546517[ebp]
  0033a	8d 04 88	 lea	 eax, DWORD PTR [eax+ecx*4]
  0033d	89 45 e0	 mov	 DWORD PTR tv331[ebp], eax
  00340	8b 07		 mov	 eax, DWORD PTR [edi]

; 908  : 				rkUserInfo.m_vGrowthLevelVec[j] += g_MedalItemMgr.GetMedalItemGrowth( rkUserInfo.m_vMedalItemTypeVec[i], true, j );

  00342	51		 push	 ecx
  00343	8d 04 90	 lea	 eax, DWORD PTR [eax+edx*4]
  00346	6a 01		 push	 1
  00348	ff 30		 push	 DWORD PTR [eax]
  0034a	e8 00 00 00 00	 call	 ?GetSingleton@ioMedalItemInfoManager@@SAAAV1@XZ ; ioMedalItemInfoManager::GetSingleton
  0034f	8b c8		 mov	 ecx, eax
  00351	e8 00 00 00 00	 call	 ?GetMedalItemGrowth@ioMedalItemInfoManager@@QAEHH_NH@Z ; ioMedalItemInfoManager::GetMedalItemGrowth
  00356	8b 4d e0	 mov	 ecx, DWORD PTR tv331[ebp]
  00359	01 01		 add	 DWORD PTR [ecx], eax
$LN57@GetUserInf:

; 904  : 	{
; 905  : 		for (int j = 0; j < MAX_CHAR_GROWTH; j++)

  0035b	ff 45 e8	 inc	 DWORD PTR _j$546521[ebp]
  0035e	83 7d e8 04	 cmp	 DWORD PTR _j$546521[ebp], 4
  00362	7c bf		 jl	 SHORT $LN58@GetUserInf

; 909  : 		}
; 910  : 
; 911  : 		for (int j = 0; j < MAX_ITEM_GROWTH; j++)

  00364	83 65 e0 00	 and	 DWORD PTR _j$546526[ebp], 0
  00368	c7 45 e8 10 00
	00 00		 mov	 DWORD PTR tv1512[ebp], 16 ; 00000010H
$LN54@GetUserInf:

; 912  : 		{
; 913  : 			int iArray = j+MAX_ITEM_GROWTH;
; 914  : 			if( COMPARE( iArray, 0, iGrowthSize ) )

  0036f	8b 45 e0	 mov	 eax, DWORD PTR _j$546526[ebp]
  00372	83 c0 04	 add	 eax, 4
  00375	78 2e		 js	 SHORT $LN53@GetUserInf
  00377	3b 45 dc	 cmp	 eax, DWORD PTR _iGrowthSize$[ebp]
  0037a	7d 29		 jge	 SHORT $LN53@GetUserInf

; 915  : 				rkUserInfo.m_vGrowthLevelVec[iArray] += g_MedalItemMgr.GetMedalItemGrowth( rkUserInfo.m_vMedalItemTypeVec[i], false, j );

  0037c	8b 45 10	 mov	 eax, DWORD PTR _rkUserInfo$[ebp]
  0037f	8b 70 28	 mov	 esi, DWORD PTR [eax+40]
  00382	ff 75 e0	 push	 DWORD PTR _j$546526[ebp]
  00385	8b 07		 mov	 eax, DWORD PTR [edi]
  00387	8b 4d ec	 mov	 ecx, DWORD PTR _i$546517[ebp]
  0038a	03 75 e8	 add	 esi, DWORD PTR tv1512[ebp]
  0038d	8d 04 88	 lea	 eax, DWORD PTR [eax+ecx*4]
  00390	6a 00		 push	 0
  00392	ff 30		 push	 DWORD PTR [eax]
  00394	e8 00 00 00 00	 call	 ?GetSingleton@ioMedalItemInfoManager@@SAAAV1@XZ ; ioMedalItemInfoManager::GetSingleton
  00399	8b c8		 mov	 ecx, eax
  0039b	e8 00 00 00 00	 call	 ?GetMedalItemGrowth@ioMedalItemInfoManager@@QAEHH_NH@Z ; ioMedalItemInfoManager::GetMedalItemGrowth
  003a0	01 06		 add	 DWORD PTR [esi], eax
  003a2	8b 75 10	 mov	 esi, DWORD PTR _rkUserInfo$[ebp]
$LN53@GetUserInf:

; 909  : 		}
; 910  : 
; 911  : 		for (int j = 0; j < MAX_ITEM_GROWTH; j++)

  003a5	ff 45 e0	 inc	 DWORD PTR _j$546526[ebp]
  003a8	83 45 e8 04	 add	 DWORD PTR tv1512[ebp], 4
  003ac	83 7d e8 20	 cmp	 DWORD PTR tv1512[ebp], 32 ; 00000020H
  003b0	7c bd		 jl	 SHORT $LN54@GetUserInf

; 903  : 	for (int i = 0; i < iMedalSize ; i++)

  003b2	ff 45 ec	 inc	 DWORD PTR _i$546517[ebp]
  003b5	39 5d ec	 cmp	 DWORD PTR _i$546517[ebp], ebx
  003b8	0f 8c 61 ff ff
	ff		 jl	 $LN61@GetUserInf
$LN59@GetUserInf:

; 916  : 		}	
; 917  : 	}
; 918  : 
; 919  : 	//펫 성장
; 920  : 	CurPetInfo sCurPetInfo;
; 921  : 	if( m_pPlayStage->GetModeType() == MT_HEADQUARTERS )

  003be	8b 75 d8	 mov	 esi, DWORD PTR _this$[ebp]
  003c1	8b 8e 60 01 00
	00		 mov	 ecx, DWORD PTR [esi+352]
  003c7	33 db		 xor	 ebx, ebx
  003c9	89 5d c4	 mov	 DWORD PTR _sCurPetInfo$[ebp], ebx
  003cc	89 5d c8	 mov	 DWORD PTR _sCurPetInfo$[ebp+4], ebx
  003cf	89 5d cc	 mov	 DWORD PTR _sCurPetInfo$[ebp+8], ebx
  003d2	e8 00 00 00 00	 call	 ?GetModeType@ioPlayStage@@QBE?AW4ModeType@@XZ ; ioPlayStage::GetModeType
  003d7	83 f8 0d	 cmp	 eax, 13			; 0000000dH
  003da	75 44		 jne	 SHORT $LN50@GetUserInf

; 922  : 	{
; 923  : 		if( ToNpcChar( pChar ) )

  003dc	8b 7d f0	 mov	 edi, DWORD PTR _pChar$[ebp]
  003df	57		 push	 edi
  003e0	e8 00 00 00 00	 call	 ?ToNpcChar@@YAPAVioNpcChar@@PAVioGameEntity@@@Z ; ToNpcChar
  003e5	59		 pop	 ecx
  003e6	85 c0		 test	 eax, eax
  003e8	74 21		 je	 SHORT $LN49@GetUserInf

; 924  : 		{
; 925  : 			ioHeadquartersMode *pHeadquartersMode = ToHeadquartersMode( m_pPlayStage->GetPlayMode() );

  003ea	8b 86 60 01 00
	00		 mov	 eax, DWORD PTR [esi+352]
  003f0	ff b0 10 01 00
	00		 push	 DWORD PTR [eax+272]
  003f6	e8 00 00 00 00	 call	 ?ToHeadquartersMode@@YAPAVioHeadquartersMode@@PAVioPlayMode@@@Z ; ToHeadquartersMode
  003fb	59		 pop	 ecx

; 926  : 			if( pHeadquartersMode )

  003fc	3b c3		 cmp	 eax, ebx
  003fe	74 46		 je	 SHORT $LN46@GetUserInf

; 927  : 				m_pPlayStage->GetCurPetInfo( pHeadquartersMode->GetMasterName(), sCurPetInfo );

  00400	8d 4d c4	 lea	 ecx, DWORD PTR _sCurPetInfo$[ebp]
  00403	51		 push	 ecx
  00404	05 f4 04 00 00	 add	 eax, 1268		; 000004f4H

; 928  : 		}
; 929  : 		else

  00409	eb 21		 jmp	 SHORT $LN264@GetUserInf
$LN49@GetUserInf:

; 930  : 			m_pPlayStage->GetCurPetInfo( pChar->GetCharName(), sCurPetInfo );

  0040b	8d 45 c4	 lea	 eax, DWORD PTR _sCurPetInfo$[ebp]
  0040e	50		 push	 eax
  0040f	81 c7 d4 02 00
	00		 add	 edi, 724		; 000002d4H
  00415	83 ec 10	 sub	 esp, 16			; 00000010H
  00418	8b cc		 mov	 ecx, esp
  0041a	89 65 e0	 mov	 DWORD PTR $T559402[ebp], esp
  0041d	57		 push	 edi

; 931  : 	}
; 932  : 	else

  0041e	eb 15		 jmp	 SHORT $LN265@GetUserInf
$LN50@GetUserInf:

; 933  : 		m_pPlayStage->GetCurPetInfo( pChar->GetCharName(), sCurPetInfo );

  00420	8d 45 c4	 lea	 eax, DWORD PTR _sCurPetInfo$[ebp]
  00423	50		 push	 eax
  00424	8b 45 f0	 mov	 eax, DWORD PTR _pChar$[ebp]
  00427	05 d4 02 00 00	 add	 eax, 724		; 000002d4H
$LN264@GetUserInf:
  0042c	83 ec 10	 sub	 esp, 16			; 00000010H
  0042f	8b cc		 mov	 ecx, esp
  00431	89 65 e0	 mov	 DWORD PTR $T559403[ebp], esp
  00434	50		 push	 eax
$LN265@GetUserInf:
  00435	ff 15 00 00 00
	00		 call	 DWORD PTR __imp_??0ioHashString@@QAE@ABV0@@Z
  0043b	8b 8e 60 01 00
	00		 mov	 ecx, DWORD PTR [esi+352]
  00441	e8 00 00 00 00	 call	 ?GetCurPetInfo@ioPlayStage@@QAE_NVioHashString@@AAUtagCurPetInfo@@@Z ; ioPlayStage::GetCurPetInfo
$LN46@GetUserInf:

; 934  : 
; 935  : 	if( sCurPetInfo.m_nPetCode > 0 )

  00446	39 5d c4	 cmp	 DWORD PTR _sCurPetInfo$[ebp], ebx
  00449	7e 26		 jle	 SHORT $LN42@GetUserInf

; 936  : 	{
; 937  : 		for ( int i = 0; i < MAX_CHAR_GROWTH+MAX_ITEM_GROWTH; i++ )

  0044b	33 ff		 xor	 edi, edi
$LN44@GetUserInf:

; 938  : 			rkUserInfo.m_vGrowthLevelVec[i] += g_PetInfoMgr.GetTotalStat( sCurPetInfo.m_nPetCode, i, sCurPetInfo.m_nCurLevel );

  0044d	ff 75 cc	 push	 DWORD PTR _sCurPetInfo$[ebp+8]
  00450	8b 45 10	 mov	 eax, DWORD PTR _rkUserInfo$[ebp]
  00453	8b 40 28	 mov	 eax, DWORD PTR [eax+40]
  00456	57		 push	 edi
  00457	ff 75 c4	 push	 DWORD PTR _sCurPetInfo$[ebp]
  0045a	8d 34 b8	 lea	 esi, DWORD PTR [eax+edi*4]
  0045d	e8 00 00 00 00	 call	 ?GetSingleton@ioPetInfoManager@@SAAAV1@XZ ; ioPetInfoManager::GetSingleton
  00462	8b c8		 mov	 ecx, eax
  00464	e8 00 00 00 00	 call	 ?GetTotalStat@ioPetInfoManager@@QAEHHHH@Z ; ioPetInfoManager::GetTotalStat
  00469	01 06		 add	 DWORD PTR [esi], eax
  0046b	47		 inc	 edi
  0046c	83 ff 08	 cmp	 edi, 8
  0046f	7c dc		 jl	 SHORT $LN44@GetUserInf
$LN42@GetUserInf:

; 939  : 	}	
; 940  : 
; 941  : 	//각성
; 942  : 	for( int i = 0; i < MAX_CHAR_GROWTH; i++ )

  00471	8b 7d f0	 mov	 edi, DWORD PTR _pChar$[ebp]
  00474	8b 75 10	 mov	 esi, DWORD PTR _rkUserInfo$[ebp]
  00477	33 db		 xor	 ebx, ebx
$LN41@GetUserInf:

; 943  : 	{
; 944  : 		if( COMPARE( i, 0, iGrowthSize ) )

  00479	85 db		 test	 ebx, ebx
  0047b	78 14		 js	 SHORT $LN40@GetUserInf
  0047d	3b 5d dc	 cmp	 ebx, DWORD PTR _iGrowthSize$[ebp]
  00480	7d 0f		 jge	 SHORT $LN40@GetUserInf

; 945  : 			 pChar->GetAwakeCharGrowth( rkUserInfo.m_vGrowthLevelVec[i], i );

  00482	8b 46 28	 mov	 eax, DWORD PTR [esi+40]
  00485	53		 push	 ebx
  00486	8d 04 98	 lea	 eax, DWORD PTR [eax+ebx*4]
  00489	50		 push	 eax
  0048a	8b cf		 mov	 ecx, edi
  0048c	e8 00 00 00 00	 call	 ?GetAwakeCharGrowth@ioBaseChar@@QBEXAAHH@Z ; ioBaseChar::GetAwakeCharGrowth
$LN40@GetUserInf:

; 939  : 	}	
; 940  : 
; 941  : 	//각성
; 942  : 	for( int i = 0; i < MAX_CHAR_GROWTH; i++ )

  00491	43		 inc	 ebx
  00492	83 fb 04	 cmp	 ebx, 4
  00495	7c e2		 jl	 SHORT $LN41@GetUserInf

; 946  : 	}
; 947  : 
; 948  : 	for( int i = 0; i < MAX_CHAR_GROWTH; i++ )

  00497	33 db		 xor	 ebx, ebx
  00499	c7 45 10 10 00
	00 00		 mov	 DWORD PTR tv1567[ebp], 16 ; 00000010H
$LN37@GetUserInf:

; 949  : 	{
; 950  : 		int iArray = i + MAX_ITEM_GROWTH;
; 951  : 		if( COMPARE( iArray, 0, iGrowthSize ) )

  004a0	8d 43 04	 lea	 eax, DWORD PTR [ebx+4]
  004a3	85 c0		 test	 eax, eax
  004a5	78 14		 js	 SHORT $LN36@GetUserInf
  004a7	3b 45 dc	 cmp	 eax, DWORD PTR _iGrowthSize$[ebp]
  004aa	7d 0f		 jge	 SHORT $LN36@GetUserInf

; 952  : 			pChar->GetAwakeCharGrowth( rkUserInfo.m_vGrowthLevelVec[iArray], i );

  004ac	8b 46 28	 mov	 eax, DWORD PTR [esi+40]
  004af	03 45 10	 add	 eax, DWORD PTR tv1567[ebp]
  004b2	53		 push	 ebx
  004b3	50		 push	 eax
  004b4	8b cf		 mov	 ecx, edi
  004b6	e8 00 00 00 00	 call	 ?GetAwakeCharGrowth@ioBaseChar@@QBEXAAHH@Z ; ioBaseChar::GetAwakeCharGrowth
$LN36@GetUserInf:

; 946  : 	}
; 947  : 
; 948  : 	for( int i = 0; i < MAX_CHAR_GROWTH; i++ )

  004bb	83 45 10 04	 add	 DWORD PTR tv1567[ebp], 4
  004bf	43		 inc	 ebx
  004c0	83 7d 10 20	 cmp	 DWORD PTR tv1567[ebp], 32 ; 00000020H
  004c4	7c da		 jl	 SHORT $LN37@GetUserInf

; 953  : 	}
; 954  : 
; 955  : 	//R 용병
; 956  : 	if ( g_RSoldierInfoManager.IsRSoldierType( pChar->GetCharacterInfo() ) )

  004c6	8d 87 58 03 00
	00		 lea	 eax, DWORD PTR [edi+856]
  004cc	50		 push	 eax
  004cd	e8 00 00 00 00	 call	 ?GetSingleton@ioRSoldierInfoManager@@SAAAV1@XZ ; ioRSoldierInfoManager::GetSingleton
  004d2	8b c8		 mov	 ecx, eax
  004d4	e8 00 00 00 00	 call	 ?IsRSoldierType@ioRSoldierInfoManager@@QAE_NABUCHARACTER@@@Z ; ioRSoldierInfoManager::IsRSoldierType

; 957  : 	{
; 958  : 		int iCurRCount = 0;
; 959  : 		if( m_pPlayStage->GetModeType() == MT_HEADQUARTERS )

  004d9	8b 5d d8	 mov	 ebx, DWORD PTR _this$[ebp]
  004dc	84 c0		 test	 al, al
  004de	0f 84 86 00 00
	00		 je	 $LN23@GetUserInf
  004e4	8b 8b 60 01 00
	00		 mov	 ecx, DWORD PTR [ebx+352]
  004ea	e8 00 00 00 00	 call	 ?GetModeType@ioPlayStage@@QBE?AW4ModeType@@XZ ; ioPlayStage::GetModeType
  004ef	83 f8 0d	 cmp	 eax, 13			; 0000000dH
  004f2	75 3e		 jne	 SHORT $LN32@GetUserInf

; 960  : 		{
; 961  : 			if( ToNpcChar( pChar ) )

  004f4	57		 push	 edi
  004f5	e8 00 00 00 00	 call	 ?ToNpcChar@@YAPAVioNpcChar@@PAVioGameEntity@@@Z ; ToNpcChar
  004fa	59		 pop	 ecx
  004fb	85 c0		 test	 eax, eax
  004fd	74 33		 je	 SHORT $LN32@GetUserInf

; 962  : 			{
; 963  : 				ioHeadquartersMode *pHeadquartersMode = ToHeadquartersMode( m_pPlayStage->GetPlayMode() );

  004ff	8b 83 60 01 00
	00		 mov	 eax, DWORD PTR [ebx+352]
  00505	ff b0 10 01 00
	00		 push	 DWORD PTR [eax+272]
  0050b	e8 00 00 00 00	 call	 ?ToHeadquartersMode@@YAPAVioHeadquartersMode@@PAVioPlayMode@@@Z ; ToHeadquartersMode
  00510	59		 pop	 ecx

; 964  : 				if( pHeadquartersMode )

  00511	85 c0		 test	 eax, eax
  00513	74 55		 je	 SHORT $LN23@GetUserInf

; 965  : 				{
; 966  : 					ioBaseChar *pMasterChar = m_pPlayStage->GetBaseChar( pHeadquartersMode->GetMasterName() );

  00515	8b 8b 60 01 00
	00		 mov	 ecx, DWORD PTR [ebx+352]
  0051b	05 f4 04 00 00	 add	 eax, 1268		; 000004f4H
  00520	50		 push	 eax
  00521	e8 00 00 00 00	 call	 ?GetBaseChar@ioPlayStage@@QAEPAVioBaseChar@@ABVioHashString@@@Z ; ioPlayStage::GetBaseChar

; 967  : 					if ( pMasterChar )

  00526	85 c0		 test	 eax, eax
  00528	74 40		 je	 SHORT $LN23@GetUserInf

; 968  : 						iCurRCount = pMasterChar->GetCurRSoldierCount();

  0052a	8b 80 58 3b 00
	00		 mov	 eax, DWORD PTR [eax+15192]

; 969  : 				}
; 970  : 			}
; 971  : 			else

  00530	eb 06		 jmp	 SHORT $LN266@GetUserInf
$LN32@GetUserInf:

; 972  : 				iCurRCount = pChar->GetCurRSoldierCount();
; 973  : 		}
; 974  : 		else
; 975  : 			iCurRCount = pChar->GetCurRSoldierCount();

  00532	8b 87 58 3b 00
	00		 mov	 eax, DWORD PTR [edi+15192]
$LN266@GetUserInf:
  00538	89 45 dc	 mov	 DWORD PTR _iCurRCount$546559[ebp], eax

; 976  : 
; 977  : 		if ( iCurRCount != 0 )

  0053b	85 c0		 test	 eax, eax
  0053d	74 2b		 je	 SHORT $LN23@GetUserInf

; 978  : 		{
; 979  : 			for ( int i = 0; i < MAX_CHAR_GROWTH+MAX_ITEM_GROWTH; i++ )

  0053f	83 65 10 00	 and	 DWORD PTR _i$546569[ebp], 0
$LL25@GetUserInf:
  00543	8b 45 10	 mov	 eax, DWORD PTR _i$546569[ebp]

; 980  : 				rkUserInfo.m_vGrowthLevelVec[i] += g_RSoldierInfoManager.GetSoldierAddStat( i, iCurRCount );

  00546	ff 75 dc	 push	 DWORD PTR _iCurRCount$546559[ebp]
  00549	8b 4e 28	 mov	 ecx, DWORD PTR [esi+40]
  0054c	50		 push	 eax
  0054d	8d 3c 81	 lea	 edi, DWORD PTR [ecx+eax*4]
  00550	e8 00 00 00 00	 call	 ?GetSingleton@ioRSoldierInfoManager@@SAAAV1@XZ ; ioRSoldierInfoManager::GetSingleton
  00555	8b c8		 mov	 ecx, eax
  00557	e8 00 00 00 00	 call	 ?GetSoldierAddStat@ioRSoldierInfoManager@@QAEHHH@Z ; ioRSoldierInfoManager::GetSoldierAddStat
  0055c	01 07		 add	 DWORD PTR [edi], eax
  0055e	ff 45 10	 inc	 DWORD PTR _i$546569[ebp]
  00561	83 7d 10 08	 cmp	 DWORD PTR _i$546569[ebp], 8
  00565	7c dc		 jl	 SHORT $LL25@GetUserInf

; 978  : 		{
; 979  : 			for ( int i = 0; i < MAX_CHAR_GROWTH+MAX_ITEM_GROWTH; i++ )

  00567	8b 7d f0	 mov	 edi, DWORD PTR _pChar$[ebp]
$LN23@GetUserInf:

; 981  : 		}
; 982  : 	}
; 983  : 
; 984  : 	if ( g_RSoldierInfoManager.IsSoldierSet( pChar->GetCharacterInfo() ) )

  0056a	8d 87 58 03 00
	00		 lea	 eax, DWORD PTR [edi+856]
  00570	50		 push	 eax
  00571	e8 00 00 00 00	 call	 ?GetSingleton@ioRSoldierInfoManager@@SAAAV1@XZ ; ioRSoldierInfoManager::GetSingleton
  00576	8b c8		 mov	 ecx, eax
  00578	e8 00 00 00 00	 call	 ?IsSoldierSet@ioRSoldierInfoManager@@QAE_NABUCHARACTER@@@Z ; ioRSoldierInfoManager::IsSoldierSet
  0057d	84 c0		 test	 al, al
  0057f	0f 84 84 00 00
	00		 je	 $LN12@GetUserInf

; 985  : 	{
; 986  : 		int nCurCharSet = 0;
; 987  : 		if( m_pPlayStage->GetModeType() == MT_HEADQUARTERS )

  00585	8b 8b 60 01 00
	00		 mov	 ecx, DWORD PTR [ebx+352]
  0058b	e8 00 00 00 00	 call	 ?GetModeType@ioPlayStage@@QBE?AW4ModeType@@XZ ; ioPlayStage::GetModeType
  00590	83 f8 0d	 cmp	 eax, 13			; 0000000dH
  00593	75 3e		 jne	 SHORT $LN21@GetUserInf

; 988  : 		{
; 989  : 			if( ToNpcChar( pChar ) )

  00595	57		 push	 edi
  00596	e8 00 00 00 00	 call	 ?ToNpcChar@@YAPAVioNpcChar@@PAVioGameEntity@@@Z ; ToNpcChar
  0059b	59		 pop	 ecx
  0059c	85 c0		 test	 eax, eax
  0059e	74 33		 je	 SHORT $LN21@GetUserInf

; 990  : 			{
; 991  : 				ioHeadquartersMode *pHeadquartersMode = ToHeadquartersMode( m_pPlayStage->GetPlayMode() );

  005a0	8b 83 60 01 00
	00		 mov	 eax, DWORD PTR [ebx+352]
  005a6	ff b0 10 01 00
	00		 push	 DWORD PTR [eax+272]
  005ac	e8 00 00 00 00	 call	 ?ToHeadquartersMode@@YAPAVioHeadquartersMode@@PAVioPlayMode@@@Z ; ToHeadquartersMode
  005b1	59		 pop	 ecx

; 992  : 				if( pHeadquartersMode )

  005b2	85 c0		 test	 eax, eax
  005b4	74 53		 je	 SHORT $LN12@GetUserInf

; 993  : 				{
; 994  : 					ioBaseChar *pMasterChar = m_pPlayStage->GetBaseChar( pHeadquartersMode->GetMasterName() );

  005b6	8b 8b 60 01 00
	00		 mov	 ecx, DWORD PTR [ebx+352]
  005bc	05 f4 04 00 00	 add	 eax, 1268		; 000004f4H
  005c1	50		 push	 eax
  005c2	e8 00 00 00 00	 call	 ?GetBaseChar@ioPlayStage@@QAEPAVioBaseChar@@ABVioHashString@@@Z ; ioPlayStage::GetBaseChar

; 995  : 					if ( pMasterChar )

  005c7	85 c0		 test	 eax, eax
  005c9	74 3e		 je	 SHORT $LN12@GetUserInf

; 996  : 						nCurCharSet = pMasterChar->GetCurSoldierSetCnt();

  005cb	8b 80 5c 3b 00
	00		 mov	 eax, DWORD PTR [eax+15196]

; 997  : 				}
; 998  : 			}
; 999  : 			else

  005d1	eb 06		 jmp	 SHORT $LN267@GetUserInf
$LN21@GetUserInf:

; 1000 : 				nCurCharSet = pChar->GetCurSoldierSetCnt();
; 1001 : 		}
; 1002 : 		else
; 1003 : 			nCurCharSet = pChar->GetCurSoldierSetCnt();

  005d3	8b 87 5c 3b 00
	00		 mov	 eax, DWORD PTR [edi+15196]
$LN267@GetUserInf:
  005d9	89 45 10	 mov	 DWORD PTR _nCurCharSet$546574[ebp], eax

; 1004 : 
; 1005 : 		if ( nCurCharSet != 0 )

  005dc	85 c0		 test	 eax, eax
  005de	74 29		 je	 SHORT $LN12@GetUserInf

; 1006 : 		{
; 1007 : 			for ( int i = 0; i < MAX_CHAR_GROWTH+MAX_ITEM_GROWTH; i++ )

  005e0	33 db		 xor	 ebx, ebx
$LL14@GetUserInf:

; 1008 : 				rkUserInfo.m_vGrowthLevelVec[i] += g_RSoldierInfoManager.GetSoldierSetAddStat( i, iClassType, nCurCharSet );

  005e2	ff 75 10	 push	 DWORD PTR _nCurCharSet$546574[ebp]
  005e5	8b 46 28	 mov	 eax, DWORD PTR [esi+40]
  005e8	ff 75 e4	 push	 DWORD PTR _value$559424[ebp]
  005eb	8d 3c 98	 lea	 edi, DWORD PTR [eax+ebx*4]
  005ee	53		 push	 ebx
  005ef	e8 00 00 00 00	 call	 ?GetSingleton@ioRSoldierInfoManager@@SAAAV1@XZ ; ioRSoldierInfoManager::GetSingleton
  005f4	8b c8		 mov	 ecx, eax
  005f6	e8 00 00 00 00	 call	 ?GetSoldierSetAddStat@ioRSoldierInfoManager@@QAEHHHH@Z ; ioRSoldierInfoManager::GetSoldierSetAddStat
  005fb	01 07		 add	 DWORD PTR [edi], eax
  005fd	43		 inc	 ebx
  005fe	83 fb 08	 cmp	 ebx, 8
  00601	7c df		 jl	 SHORT $LL14@GetUserInf

; 1006 : 		{
; 1007 : 			for ( int i = 0; i < MAX_CHAR_GROWTH+MAX_ITEM_GROWTH; i++ )

  00603	8b 5d d8	 mov	 ebx, DWORD PTR _this$[ebp]
  00606	8b 7d f0	 mov	 edi, DWORD PTR _pChar$[ebp]
$LN12@GetUserInf:

; 1009 : 		}
; 1010 : 	}
; 1011 : 
; 1012 : 	if( m_pPlayStage->GetModeType() == MT_HEADQUARTERS )

  00609	8b 8b 60 01 00
	00		 mov	 ecx, DWORD PTR [ebx+352]
  0060f	e8 00 00 00 00	 call	 ?GetModeType@ioPlayStage@@QBE?AW4ModeType@@XZ ; ioPlayStage::GetModeType
  00614	83 f8 0d	 cmp	 eax, 13			; 0000000dH
  00617	75 29		 jne	 SHORT $LN11@GetUserInf

; 1013 : 	{
; 1014 : 		if( ToNpcChar( pChar ) )

  00619	57		 push	 edi
  0061a	e8 00 00 00 00	 call	 ?ToNpcChar@@YAPAVioNpcChar@@PAVioGameEntity@@@Z ; ToNpcChar
  0061f	59		 pop	 ecx
  00620	85 c0		 test	 eax, eax
  00622	74 1e		 je	 SHORT $LN11@GetUserInf

; 1015 : 		{
; 1016 : 			ioHeadquartersMode *pHeadquartersMode = ToHeadquartersMode( m_pPlayStage->GetPlayMode() );

  00624	8b 83 60 01 00
	00		 mov	 eax, DWORD PTR [ebx+352]
  0062a	ff b0 10 01 00
	00		 push	 DWORD PTR [eax+272]
  00630	e8 00 00 00 00	 call	 ?ToHeadquartersMode@@YAPAVioHeadquartersMode@@PAVioPlayMode@@@Z ; ToHeadquartersMode
  00635	59		 pop	 ecx

; 1017 : 			if( pHeadquartersMode )

  00636	85 c0		 test	 eax, eax
  00638	74 14		 je	 SHORT $LN7@GetUserInf

; 1018 : 				rkUserInfo.m_sName = pHeadquartersMode->GetMasterName();

  0063a	05 f4 04 00 00	 add	 eax, 1268		; 000004f4H
  0063f	50		 push	 eax

; 1019 : 		}
; 1020 : 		else

  00640	eb 03		 jmp	 SHORT $LN268@GetUserInf
$LN11@GetUserInf:

; 1021 : 		{
; 1022 : 			rkUserInfo.m_sName = sName;
; 1023 : 		}
; 1024 : 	}
; 1025 : 	else
; 1026 : 	{
; 1027 : 		rkUserInfo.m_sName = sName;

  00642	ff 75 08	 push	 DWORD PTR _sName$[ebp]
$LN268@GetUserInf:
  00645	8d 4e 08	 lea	 ecx, DWORD PTR [esi+8]
  00648	ff 15 00 00 00
	00		 call	 DWORD PTR __imp_??4ioHashString@@QAEAAV0@ABV0@@Z
$LN7@GetUserInf:

; 1028 : 	}
; 1029 : 
; 1030 : 	const CHARACTER &rkChar = pChar->GetCharacterInfo();

  0064e	8d 9f 1c 06 00
	00		 lea	 ebx, DWORD PTR [edi+1564]
  00654	c7 45 08 04 00
	00 00		 mov	 DWORD PTR tv587[ebp], 4
$LL6@GetUserInf:

; 1031 : 	for(int i=0; i<MAX_INVENTORY; i++ )
; 1032 : 	{
; 1033 : 		int nCostumeCode = rkChar.m_EquipCostume[i].m_CostumeCode;

  0065b	8b 03		 mov	 eax, DWORD PTR [ebx]
  0065d	89 45 10	 mov	 DWORD PTR _nCostumeCode$546599[ebp], eax

; 1034 : 		rkUserInfo.m_vCostumeCodeVec.push_back( nCostumeCode );

  00660	8d 45 10	 lea	 eax, DWORD PTR _nCostumeCode$546599[ebp]
  00663	50		 push	 eax
  00664	8d 4e 68	 lea	 ecx, DWORD PTR [esi+104]
  00667	e8 00 00 00 00	 call	 ?push_back@?$vector@HV?$allocator@H@std@@@std@@QAEXABH@Z ; std::vector<int,std::allocator<int> >::push_back
  0066c	83 c3 10	 add	 ebx, 16			; 00000010H
  0066f	ff 4d 08	 dec	 DWORD PTR tv587[ebp]
  00672	75 e7		 jne	 SHORT $LL6@GetUserInf

; 1035 : 	}
; 1036 : 
; 1037 : 	for(int i=0; i<MAX_ACC_INVENTORY; i++ )

  00674	8d 9f 5c 06 00
	00		 lea	 ebx, DWORD PTR [edi+1628]
  0067a	c7 45 08 03 00
	00 00		 mov	 DWORD PTR tv505[ebp], 3
$LL3@GetUserInf:

; 1038 : 	{
; 1039 : 		int iAccessoryCode = rkChar.m_EquipAccessory[i].m_iAccessoryCode;

  00681	8b 03		 mov	 eax, DWORD PTR [ebx]
  00683	89 45 10	 mov	 DWORD PTR _iAccessoryCode$546604[ebp], eax

; 1040 : 		rkUserInfo.m_vAccessoryCodeVec.push_back( iAccessoryCode );

  00686	8d 45 10	 lea	 eax, DWORD PTR _iAccessoryCode$546604[ebp]
  00689	50		 push	 eax
  0068a	8d 4e 78	 lea	 ecx, DWORD PTR [esi+120]
  0068d	e8 00 00 00 00	 call	 ?push_back@?$vector@HV?$allocator@H@std@@@std@@QAEXABH@Z ; std::vector<int,std::allocator<int> >::push_back
  00692	83 c3 0c	 add	 ebx, 12			; 0000000cH
  00695	ff 4d 08	 dec	 DWORD PTR tv505[ebp]
  00698	75 e7		 jne	 SHORT $LL3@GetUserInf

; 1041 : 	}
; 1042 : 
; 1043 : 	rkUserInfo.m_iClassLevel		= iClassLevel;

  0069a	8b 45 d0	 mov	 eax, DWORD PTR _iClassLevel$[ebp]
  0069d	89 46 1c	 mov	 DWORD PTR [esi+28], eax

; 1044 : 	rkUserInfo.m_iClassType			= iClassType;

  006a0	8b 45 e4	 mov	 eax, DWORD PTR _value$559424[ebp]

; 1045 : 	rkUserInfo.m_iAwakeType			= pChar->GetAwakeType();

  006a3	8b cf		 mov	 ecx, edi
  006a5	89 46 18	 mov	 DWORD PTR [esi+24], eax
  006a8	e8 00 00 00 00	 call	 ?GetAwakeType@ioBaseChar@@QAEHXZ ; ioBaseChar::GetAwakeType

; 1046 : 	rkUserInfo.m_iPowerUpCharGrade	= iPowerUpCharGrade;
; 1047 : 
; 1048 : 	return true;

  006ad	83 4d fc ff	 or	 DWORD PTR __$EHRec$[ebp+8], -1
  006b1	89 46 24	 mov	 DWORD PTR [esi+36], eax
  006b4	8b 45 d4	 mov	 eax, DWORD PTR _iPowerUpCharGrade$[ebp]
  006b7	8d 4d b4	 lea	 ecx, DWORD PTR _kExMedalSlotVec$[ebp]
  006ba	89 46 20	 mov	 DWORD PTR [esi+32], eax
  006bd	e8 00 00 00 00	 call	 ?_Tidy@?$vector@HV?$allocator@H@std@@@std@@IAEXXZ ; std::vector<int,std::allocator<int> >::_Tidy
  006c2	b0 01		 mov	 al, 1
$LN98@GetUserInf:

; 1049 : }

  006c4	e8 00 00 00 00	 call	 __EH_epilog3
  006c9	c2 0c 00	 ret	 12			; 0000000cH
_TEXT	ENDS
;	COMDAT text$x
text$x	SEGMENT
__unwindfunclet$?GetUserInfoRoom@UserInfoToolTip@@IAE_NABVioHashString@@HAAUUserInfo@1@@Z$0:
  00000	8d 4d b4	 lea	 ecx, DWORD PTR _kExMedalSlotVec$[ebp]
  00003	e9 00 00 00 00	 jmp	 ??1?$vector@HV?$allocator@H@std@@@std@@QAE@XZ ; std::vector<int,std::allocator<int> >::~vector<int,std::allocator<int> >
__ehhandler$?GetUserInfoRoom@UserInfoToolTip@@IAE_NABVioHashString@@HAAUUserInfo@1@@Z:
  00008	8b 54 24 08	 mov	 edx, DWORD PTR [esp+8]
  0000c	8d 42 0c	 lea	 eax, DWORD PTR [edx+12]
  0000f	8b 4a b0	 mov	 ecx, DWORD PTR [edx-80]
  00012	33 c8		 xor	 ecx, eax
  00014	e8 00 00 00 00	 call	 @__security_check_cookie@4
  00019	b8 00 00 00 00	 mov	 eax, OFFSET __ehfuncinfo$?GetUserInfoRoom@UserInfoToolTip@@IAE_NABVioHashString@@HAAUUserInfo@1@@Z
  0001e	e9 00 00 00 00	 jmp	 ___CxxFrameHandler3
text$x	ENDS
?GetUserInfoRoom@UserInfoToolTip@@IAE_NABVioHashString@@HAAUUserInfo@1@@Z ENDP ; UserInfoToolTip::GetUserInfoRoom
PUBLIC	??4UserInfo@UserInfoToolTip@@QAEAAU01@ABU01@@Z	; UserInfoToolTip::UserInfo::operator=
; Function compile flags: /Ogsp
;	COMDAT ??4UserInfo@UserInfoToolTip@@QAEAAU01@ABU01@@Z
_TEXT	SEGMENT
___that$ = 8						; size = 4
??4UserInfo@UserInfoToolTip@@QAEAAU01@ABU01@@Z PROC	; UserInfoToolTip::UserInfo::operator=, COMDAT
; _this$ = ecx
  00000	55		 push	 ebp
  00001	8b ec		 mov	 ebp, esp
  00003	56		 push	 esi
  00004	57		 push	 edi
  00005	8b 7d 08	 mov	 edi, DWORD PTR ___that$[ebp]
  00008	8b 07		 mov	 eax, DWORD PTR [edi]
  0000a	8b f1		 mov	 esi, ecx
  0000c	89 06		 mov	 DWORD PTR [esi], eax
  0000e	8b 47 04	 mov	 eax, DWORD PTR [edi+4]
  00011	89 46 04	 mov	 DWORD PTR [esi+4], eax
  00014	8d 47 08	 lea	 eax, DWORD PTR [edi+8]
  00017	50		 push	 eax
  00018	8d 4e 08	 lea	 ecx, DWORD PTR [esi+8]
  0001b	ff 15 00 00 00
	00		 call	 DWORD PTR __imp_??4ioHashString@@QAEAAV0@ABV0@@Z
  00021	8b 47 18	 mov	 eax, DWORD PTR [edi+24]
  00024	89 46 18	 mov	 DWORD PTR [esi+24], eax
  00027	8b 47 1c	 mov	 eax, DWORD PTR [edi+28]
  0002a	89 46 1c	 mov	 DWORD PTR [esi+28], eax
  0002d	8b 47 20	 mov	 eax, DWORD PTR [edi+32]
  00030	89 46 20	 mov	 DWORD PTR [esi+32], eax
  00033	8b 47 24	 mov	 eax, DWORD PTR [edi+36]
  00036	89 46 24	 mov	 DWORD PTR [esi+36], eax
  00039	8d 47 28	 lea	 eax, DWORD PTR [edi+40]
  0003c	50		 push	 eax
  0003d	8d 4e 28	 lea	 ecx, DWORD PTR [esi+40]
  00040	e8 00 00 00 00	 call	 ??4?$vector@HV?$allocator@H@std@@@std@@QAEAAV01@ABV01@@Z ; std::vector<int,std::allocator<int> >::operator=
  00045	8d 47 38	 lea	 eax, DWORD PTR [edi+56]
  00048	50		 push	 eax
  00049	8d 4e 38	 lea	 ecx, DWORD PTR [esi+56]
  0004c	e8 00 00 00 00	 call	 ??4?$vector@HV?$allocator@H@std@@@std@@QAEAAV01@ABV01@@Z ; std::vector<int,std::allocator<int> >::operator=
  00051	8d 47 48	 lea	 eax, DWORD PTR [edi+72]
  00054	50		 push	 eax
  00055	8d 4e 48	 lea	 ecx, DWORD PTR [esi+72]
  00058	e8 00 00 00 00	 call	 ??4?$vector@HV?$allocator@H@std@@@std@@QAEAAV01@ABV01@@Z ; std::vector<int,std::allocator<int> >::operator=
  0005d	8d 47 58	 lea	 eax, DWORD PTR [edi+88]
  00060	50		 push	 eax
  00061	8d 4e 58	 lea	 ecx, DWORD PTR [esi+88]
  00064	e8 00 00 00 00	 call	 ??4?$vector@KV?$allocator@K@std@@@std@@QAEAAV01@ABV01@@Z ; std::vector<unsigned long,std::allocator<unsigned long> >::operator=
  00069	8d 47 68	 lea	 eax, DWORD PTR [edi+104]
  0006c	50		 push	 eax
  0006d	8d 4e 68	 lea	 ecx, DWORD PTR [esi+104]
  00070	e8 00 00 00 00	 call	 ??4?$vector@HV?$allocator@H@std@@@std@@QAEAAV01@ABV01@@Z ; std::vector<int,std::allocator<int> >::operator=
  00075	8d 47 78	 lea	 eax, DWORD PTR [edi+120]
  00078	50		 push	 eax
  00079	8d 4e 78	 lea	 ecx, DWORD PTR [esi+120]
  0007c	e8 00 00 00 00	 call	 ??4?$vector@HV?$allocator@H@std@@@std@@QAEAAV01@ABV01@@Z ; std::vector<int,std::allocator<int> >::operator=
  00081	8a 87 88 00 00
	00		 mov	 al, BYTE PTR [edi+136]
  00087	88 86 88 00 00
	00		 mov	 BYTE PTR [esi+136], al
  0008d	5f		 pop	 edi
  0008e	8b c6		 mov	 eax, esi
  00090	5e		 pop	 esi
  00091	5d		 pop	 ebp
  00092	c2 04 00	 ret	 4
??4UserInfo@UserInfoToolTip@@QAEAAU01@ABU01@@Z ENDP	; UserInfoToolTip::UserInfo::operator=
_TEXT	ENDS
PUBLIC	?InsertUserInfo@UserInfoToolTip@@SAXAAUUserInfo@1@@Z ; UserInfoToolTip::InsertUserInfo
EXTRN	__imp_??9ioHashString@@QBE_NABV0@@Z:PROC
;	COMDAT xdata$x
; File c:\program files (x86)\microsoft visual studio 10.0\vc\include\vector
xdata$x	SEGMENT
__unwindtable$?InsertUserInfo@UserInfoToolTip@@SAXAAUUserInfo@1@@Z DD 0ffffffffH
	DD	FLAT:__unwindfunclet$?InsertUserInfo@UserInfoToolTip@@SAXAAUUserInfo@1@@Z$0
__ehfuncinfo$?InsertUserInfo@UserInfoToolTip@@SAXAAUUserInfo@1@@Z DD 019930522H
	DD	01H
	DD	FLAT:__unwindtable$?InsertUserInfo@UserInfoToolTip@@SAXAAUUserInfo@1@@Z
	DD	2 DUP(00H)
	DD	2 DUP(00H)
	DD	00H
	DD	01H
; Function compile flags: /Ogsp
; File d:\lost saga for developer\youtube\tutorial\source\src\lsclient\gui\userinfotooltip.cpp
xdata$x	ENDS
;	COMDAT ?InsertUserInfo@UserInfoToolTip@@SAXAAUUserInfo@1@@Z
_TEXT	SEGMENT
$T559734 = -16						; size = 4
_pInfo$ = -16						; size = 4
$T559731 = -16						; size = 4
__$EHRec$ = -12						; size = 12
_rkInfo$ = 8						; size = 4
?InsertUserInfo@UserInfoToolTip@@SAXAAUUserInfo@1@@Z PROC ; UserInfoToolTip::InsertUserInfo, COMDAT

; 1202 : {

  00000	6a 04		 push	 4
  00002	b8 00 00 00 00	 mov	 eax, __ehhandler$?InsertUserInfo@UserInfoToolTip@@SAXAAUUserInfo@1@@Z
  00007	e8 00 00 00 00	 call	 __EH_prolog3

; 1203 : 	if( rkInfo.m_sName.IsEmpty() )

  0000c	8b 4d 08	 mov	 ecx, DWORD PTR _rkInfo$[ebp]
  0000f	83 c1 08	 add	 ecx, 8
  00012	ff 15 00 00 00
	00		 call	 DWORD PTR __imp_?IsEmpty@ioHashString@@QBE_NXZ
  00018	84 c0		 test	 al, al
  0001a	0f 85 c3 00 00
	00		 jne	 $LN11@InsertUser

; 1204 : 		return;
; 1205 : 
; 1206 : 	// max
; 1207 : 	int iSize = m_vUserInfo.size();

  00020	8b 15 04 00 00
	00		 mov	 edx, DWORD PTR ?m_vUserInfo@UserInfoToolTip@@1V?$vector@PAUUserInfo@UserInfoToolTip@@V?$allocator@PAUUserInfo@UserInfoToolTip@@@std@@@std@@A+4
  00026	a1 00 00 00 00	 mov	 eax, DWORD PTR ?m_vUserInfo@UserInfoToolTip@@1V?$vector@PAUUserInfo@UserInfoToolTip@@V?$allocator@PAUUserInfo@UserInfoToolTip@@@std@@@std@@A
  0002b	8b ca		 mov	 ecx, edx
  0002d	2b c8		 sub	 ecx, eax
  0002f	c1 f9 02	 sar	 ecx, 2

; 1208 : 	if( iSize > (int) m_dwMaxUserInfo )

  00032	bb 00 00 00 00	 mov	 ebx, OFFSET ?m_vUserInfo@UserInfoToolTip@@1V?$vector@PAUUserInfo@UserInfoToolTip@@V?$allocator@PAUUserInfo@UserInfoToolTip@@@std@@@std@@A ; UserInfoToolTip::m_vUserInfo
  00037	3b 0d 00 00 00
	00		 cmp	 ecx, DWORD PTR ?m_dwMaxUserInfo@UserInfoToolTip@@1KA ; UserInfoToolTip::m_dwMaxUserInfo
  0003d	7e 2e		 jle	 SHORT $LN8@InsertUser

; 1209 : 	{
; 1210 : 		if( !m_vUserInfo.empty() )

  0003f	3b c2		 cmp	 eax, edx
  00041	74 2a		 je	 SHORT $LN8@InsertUser

; 1211 : 		{
; 1212 : 			vUserInfo::iterator iter = m_vUserInfo.begin();

  00043	8b f0		 mov	 esi, eax

; 1213 : 			SAFEDELETE( *iter );

  00045	8b 3e		 mov	 edi, DWORD PTR [esi]
  00047	85 ff		 test	 edi, edi
  00049	74 11		 je	 SHORT $LN7@InsertUser
  0004b	8b cf		 mov	 ecx, edi
  0004d	e8 00 00 00 00	 call	 ??1UserInfo@UserInfoToolTip@@QAE@XZ
  00052	57		 push	 edi
  00053	e8 00 00 00 00	 call	 ??3@YAXPAX@Z		; operator delete
  00058	83 26 00	 and	 DWORD PTR [esi], 0
  0005b	59		 pop	 ecx
$LN7@InsertUser:

; 1214 : 			m_vUserInfo.erase( iter );

  0005c	56		 push	 esi
  0005d	8d 45 f0	 lea	 eax, DWORD PTR $T559731[ebp]
  00060	50		 push	 eax
  00061	8b cb		 mov	 ecx, ebx
  00063	e8 00 00 00 00	 call	 ?erase@?$vector@PAUUserInfo@UserInfoToolTip@@V?$allocator@PAUUserInfo@UserInfoToolTip@@@std@@@std@@QAE?AV?$_Vector_iterator@V?$_Vector_val@PAUUserInfo@UserInfoToolTip@@V?$allocator@PAUUserInfo@UserInfoToolTip@@@std@@@std@@@2@V?$_Vector_const_iterator@V?$_Vector_val@PAUUserInfo@UserInfoToolTip@@V?$allocator@PAUUserInfo@UserInfoToolTip@@@std@@@std@@@2@@Z ; std::vector<UserInfoToolTip::UserInfo *,std::allocator<UserInfoToolTip::UserInfo *> >::erase
  00068	a1 00 00 00 00	 mov	 eax, DWORD PTR ?m_vUserInfo@UserInfoToolTip@@1V?$vector@PAUUserInfo@UserInfoToolTip@@V?$allocator@PAUUserInfo@UserInfoToolTip@@@std@@@std@@A
$LN8@InsertUser:

; 1215 : 		}
; 1216 : 	}
; 1217 : 
; 1218 : 	for(vUserInfo::iterator iter = m_vUserInfo.begin(); iter != m_vUserInfo.end(); ++iter)

  0006d	8b f8		 mov	 edi, eax
  0006f	eb 1d		 jmp	 SHORT $LN78@InsertUser
$LL55@InsertUser:

; 1219 : 	{
; 1220 : 		UserInfo *pInfo = *iter;

  00071	8b 37		 mov	 esi, DWORD PTR [edi]

; 1221 : 		if( !pInfo )

  00073	85 f6		 test	 esi, esi
  00075	74 14		 je	 SHORT $LN5@InsertUser

; 1222 : 			continue;
; 1223 : 		if( pInfo->m_sName != rkInfo.m_sName )

  00077	8b 45 08	 mov	 eax, DWORD PTR _rkInfo$[ebp]
  0007a	83 c0 08	 add	 eax, 8
  0007d	50		 push	 eax
  0007e	8d 4e 08	 lea	 ecx, DWORD PTR [esi+8]
  00081	ff 15 00 00 00
	00		 call	 DWORD PTR __imp_??9ioHashString@@QBE_NABV0@@Z
  00087	84 c0		 test	 al, al
  00089	74 2a		 je	 SHORT $LN2@InsertUser
$LN5@InsertUser:

; 1215 : 		}
; 1216 : 	}
; 1217 : 
; 1218 : 	for(vUserInfo::iterator iter = m_vUserInfo.begin(); iter != m_vUserInfo.end(); ++iter)

  0008b	83 c7 04	 add	 edi, 4
$LN78@InsertUser:
  0008e	3b 3d 04 00 00
	00		 cmp	 edi, DWORD PTR ?m_vUserInfo@UserInfoToolTip@@1V?$vector@PAUUserInfo@UserInfoToolTip@@V?$allocator@PAUUserInfo@UserInfoToolTip@@@std@@@std@@A+4
  00094	75 db		 jne	 SHORT $LL55@InsertUser

; 1228 : 	}
; 1229 : 
; 1230 : 	// insert
; 1231 : 	UserInfo *pInfo = new UserInfo;

  00096	68 8c 00 00 00	 push	 140			; 0000008cH
  0009b	e8 00 00 00 00	 call	 ??2@YAPAXI@Z		; operator new
  000a0	59		 pop	 ecx
  000a1	8b c8		 mov	 ecx, eax
  000a3	89 4d f0	 mov	 DWORD PTR $T559734[ebp], ecx
  000a6	83 65 fc 00	 and	 DWORD PTR __$EHRec$[ebp+8], 0
  000aa	85 c9		 test	 ecx, ecx
  000ac	74 13		 je	 SHORT $LN15@InsertUser
  000ae	e8 00 00 00 00	 call	 ??0UserInfo@UserInfoToolTip@@QAE@XZ ; UserInfoToolTip::UserInfo::UserInfo
  000b3	eb 0e		 jmp	 SHORT $LN16@InsertUser
$LN2@InsertUser:

; 1224 : 			continue;
; 1225 : 
; 1226 : 		*pInfo = rkInfo;

  000b5	ff 75 08	 push	 DWORD PTR _rkInfo$[ebp]
  000b8	8b ce		 mov	 ecx, esi
  000ba	e8 00 00 00 00	 call	 ??4UserInfo@UserInfoToolTip@@QAEAAU01@ABU01@@Z

; 1227 : 		return;

  000bf	eb 22		 jmp	 SHORT $LN11@InsertUser
$LN15@InsertUser:

; 1228 : 	}
; 1229 : 
; 1230 : 	// insert
; 1231 : 	UserInfo *pInfo = new UserInfo;

  000c1	33 c0		 xor	 eax, eax
$LN16@InsertUser:
  000c3	83 4d fc ff	 or	 DWORD PTR __$EHRec$[ebp+8], -1
  000c7	89 45 f0	 mov	 DWORD PTR _pInfo$[ebp], eax

; 1232 : 	if( !pInfo )

  000ca	85 c0		 test	 eax, eax
  000cc	74 15		 je	 SHORT $LN11@InsertUser

; 1233 : 		return;
; 1234 : 
; 1235 : 	*pInfo = rkInfo;

  000ce	ff 75 08	 push	 DWORD PTR _rkInfo$[ebp]
  000d1	8b c8		 mov	 ecx, eax
  000d3	e8 00 00 00 00	 call	 ??4UserInfo@UserInfoToolTip@@QAEAAU01@ABU01@@Z

; 1236 : 	m_vUserInfo.push_back( pInfo );

  000d8	8d 45 f0	 lea	 eax, DWORD PTR _pInfo$[ebp]
  000db	50		 push	 eax
  000dc	8b cb		 mov	 ecx, ebx
  000de	e8 00 00 00 00	 call	 ?push_back@?$vector@PAUUserInfo@UserInfoToolTip@@V?$allocator@PAUUserInfo@UserInfoToolTip@@@std@@@std@@QAEXABQAUUserInfo@UserInfoToolTip@@@Z ; std::vector<UserInfoToolTip::UserInfo *,std::allocator<UserInfoToolTip::UserInfo *> >::push_back
$LN11@InsertUser:

; 1237 : }

  000e3	e8 00 00 00 00	 call	 __EH_epilog3
  000e8	c3		 ret	 0
_TEXT	ENDS
;	COMDAT text$x
text$x	SEGMENT
__unwindfunclet$?InsertUserInfo@UserInfoToolTip@@SAXAAUUserInfo@1@@Z$0:
  00000	ff 75 f0	 push	 DWORD PTR $T559734[ebp]
  00003	e8 00 00 00 00	 call	 ??3@YAXPAX@Z		; operator delete
  00008	59		 pop	 ecx
  00009	c3		 ret	 0
__ehhandler$?InsertUserInfo@UserInfoToolTip@@SAXAAUUserInfo@1@@Z:
  0000a	8b 54 24 08	 mov	 edx, DWORD PTR [esp+8]
  0000e	8d 42 0c	 lea	 eax, DWORD PTR [edx+12]
  00011	8b 4a ec	 mov	 ecx, DWORD PTR [edx-20]
  00014	33 c8		 xor	 ecx, eax
  00016	e8 00 00 00 00	 call	 @__security_check_cookie@4
  0001b	b8 00 00 00 00	 mov	 eax, OFFSET __ehfuncinfo$?InsertUserInfo@UserInfoToolTip@@SAXAAUUserInfo@1@@Z
  00020	e9 00 00 00 00	 jmp	 ___CxxFrameHandler3
text$x	ENDS
?InsertUserInfo@UserInfoToolTip@@SAXAAUUserInfo@1@@Z ENDP ; UserInfoToolTip::InsertUserInfo
PUBLIC	?_Tidy@?$vector@UExpandMedalSlot@ioExpandMedalSlotManager@@V?$allocator@UExpandMedalSlot@ioExpandMedalSlotManager@@@std@@@std@@IAEXXZ ; std::vector<ioExpandMedalSlotManager::ExpandMedalSlot,std::allocator<ioExpandMedalSlotManager::ExpandMedalSlot> >::_Tidy
; Function compile flags: /Ogsp
; File c:\program files (x86)\microsoft visual studio 10.0\vc\include\vector
;	COMDAT ?_Tidy@?$vector@UExpandMedalSlot@ioExpandMedalSlotManager@@V?$allocator@UExpandMedalSlot@ioExpandMedalSlotManager@@@std@@@std@@IAEXXZ
_TEXT	SEGMENT
?_Tidy@?$vector@UExpandMedalSlot@ioExpandMedalSlotManager@@V?$allocator@UExpandMedalSlot@ioExpandMedalSlotManager@@@std@@@std@@IAEXXZ PROC ; std::vector<ioExpandMedalSlotManager::ExpandMedalSlot,std::allocator<ioExpandMedalSlotManager::ExpandMedalSlot> >::_Tidy, COMDAT
; _this$ = ecx

; 1301 : 		{	// free all storage

  00000	56		 push	 esi
  00001	8b f1		 mov	 esi, ecx

; 1302 : 		if (this->_Myfirst != 0)

  00003	83 3e 00	 cmp	 DWORD PTR [esi], 0
  00006	74 0e		 je	 SHORT $LN21@Tidy@5

; 1303 : 			{	// something to free, destroy and deallocate it
; 1304 : 			this->_Orphan_all();

  00008	ff 15 00 00 00
	00		 call	 DWORD PTR __imp_?_Orphan_all@_Container_base0@std@@QAEXXZ

; 1305 : 			_Destroy(this->_Myfirst, this->_Mylast);
; 1306 : 			this->_Alval.deallocate(this->_Myfirst,
; 1307 : 				this->_Myend - this->_Myfirst);

  0000e	ff 36		 push	 DWORD PTR [esi]
  00010	e8 00 00 00 00	 call	 ??3@YAXPAX@Z		; operator delete
  00015	59		 pop	 ecx
$LN21@Tidy@5:

; 1308 : 			}
; 1309 : 		this->_Myfirst = 0;

  00016	83 26 00	 and	 DWORD PTR [esi], 0

; 1310 : 		this->_Mylast = 0;

  00019	83 66 04 00	 and	 DWORD PTR [esi+4], 0

; 1311 : 		this->_Myend = 0;

  0001d	83 66 08 00	 and	 DWORD PTR [esi+8], 0
  00021	5e		 pop	 esi

; 1312 : 		}

  00022	c3		 ret	 0
?_Tidy@?$vector@UExpandMedalSlot@ioExpandMedalSlotManager@@V?$allocator@UExpandMedalSlot@ioExpandMedalSlotManager@@@std@@@std@@IAEXXZ ENDP ; std::vector<ioExpandMedalSlotManager::ExpandMedalSlot,std::allocator<ioExpandMedalSlotManager::ExpandMedalSlot> >::_Tidy
_TEXT	ENDS
PUBLIC	??$_Umove@PAVioHashString@@@?$vector@VioHashString@@V?$allocator@VioHashString@@@std@@@std@@IAEPAVioHashString@@PAV2@00@Z ; std::vector<ioHashString,std::allocator<ioHashString> >::_Umove<ioHashString *>
; Function compile flags: /Ogsp
;	COMDAT ??$_Umove@PAVioHashString@@@?$vector@VioHashString@@V?$allocator@VioHashString@@@std@@@std@@IAEPAVioHashString@@PAV2@00@Z
_TEXT	SEGMENT
__First$ = 8						; size = 4
__Last$ = 12						; size = 4
__Ptr$ = 16						; size = 4
??$_Umove@PAVioHashString@@@?$vector@VioHashString@@V?$allocator@VioHashString@@@std@@@std@@IAEPAVioHashString@@PAV2@00@Z PROC ; std::vector<ioHashString,std::allocator<ioHashString> >::_Umove<ioHashString *>, COMDAT
; _this$ = ecx

; 1322 : 		pointer _Umove(_Iter _First, _Iter _Last, pointer _Ptr)

  00000	55		 push	 ebp
  00001	8b ec		 mov	 ebp, esp

; 1323 : 		{	// move initializing [_First, _Last), using allocator
; 1324 : 		return (_Uninitialized_move(_First, _Last,
; 1325 : 			_Ptr, this->_Alval));

  00003	83 c1 0c	 add	 ecx, 12			; 0000000cH
  00006	51		 push	 ecx
  00007	ff 75 10	 push	 DWORD PTR __Ptr$[ebp]
  0000a	ff 75 0c	 push	 DWORD PTR __Last$[ebp]
  0000d	ff 75 08	 push	 DWORD PTR __First$[ebp]
  00010	e8 00 00 00 00	 call	 ??$_Uninitialized_move@PAVioHashString@@PAV1@V?$allocator@VioHashString@@@std@@@std@@YAPAVioHashString@@PAV1@00AAV?$allocator@VioHashString@@@0@@Z ; std::_Uninitialized_move<ioHashString *,ioHashString *,std::allocator<ioHashString> >
  00015	83 c4 10	 add	 esp, 16			; 00000010H

; 1326 : 		}

  00018	5d		 pop	 ebp
  00019	c2 0c 00	 ret	 12			; 0000000cH
??$_Umove@PAVioHashString@@@?$vector@VioHashString@@V?$allocator@VioHashString@@@std@@@std@@IAEPAVioHashString@@PAV2@00@Z ENDP ; std::vector<ioHashString,std::allocator<ioHashString> >::_Umove<ioHashString *>
_TEXT	ENDS
PUBLIC	?_Destroy@?$vector@VioHashString@@V?$allocator@VioHashString@@@std@@@std@@IAEXPAVioHashString@@0@Z ; std::vector<ioHashString,std::allocator<ioHashString> >::_Destroy
; Function compile flags: /Ogsp
;	COMDAT ?_Destroy@?$vector@VioHashString@@V?$allocator@VioHashString@@@std@@@std@@IAEXPAVioHashString@@0@Z
_TEXT	SEGMENT
__First$ = 8						; size = 4
__Last$ = 12						; size = 4
?_Destroy@?$vector@VioHashString@@V?$allocator@VioHashString@@@std@@@std@@IAEXPAVioHashString@@0@Z PROC ; std::vector<ioHashString,std::allocator<ioHashString> >::_Destroy, COMDAT
; _this$ = ecx

; 1269 : 		{	// destroy [_First, _Last) using allocator

  00000	55		 push	 ebp
  00001	8b ec		 mov	 ebp, esp
  00003	56		 push	 esi

; 1270 : 		_Destroy_range(_First, _Last, this->_Alval);

  00004	8b 75 08	 mov	 esi, DWORD PTR __First$[ebp]
  00007	eb 0b		 jmp	 SHORT $LN23@Destroy
$LL9@Destroy:
  00009	8b ce		 mov	 ecx, esi
  0000b	ff 15 00 00 00
	00		 call	 DWORD PTR __imp_??1ioHashString@@QAE@XZ
  00011	83 c6 10	 add	 esi, 16			; 00000010H
$LN23@Destroy:
  00014	3b 75 0c	 cmp	 esi, DWORD PTR __Last$[ebp]
  00017	75 f0		 jne	 SHORT $LL9@Destroy
  00019	5e		 pop	 esi

; 1271 : 		}

  0001a	5d		 pop	 ebp
  0001b	c2 08 00	 ret	 8
?_Destroy@?$vector@VioHashString@@V?$allocator@VioHashString@@@std@@@std@@IAEXPAVioHashString@@0@Z ENDP ; std::vector<ioHashString,std::allocator<ioHashString> >::_Destroy
_TEXT	ENDS
PUBLIC	_rkInfo$GSCopy$
PUBLIC	_rsName$GSCopy$
PUBLIC	__$ArrayPad$
PUBLIC	?GetUserInfoNetwork@UserInfoToolTip@@IAE_NABVioHashString@@AAUUserInfo@1@@Z ; UserInfoToolTip::GetUserInfoNetwork
EXTRN	??1SP2Packet@@UAE@XZ:PROC			; SP2Packet::~SP2Packet
EXTRN	?SendToServer@TCPNetwork@@YAXAAVSP2Packet@@@Z:PROC ; TCPNetwork::SendToServer
EXTRN	??6SP2Packet@@QAEAAV0@ABVioHashString@@@Z:PROC	; SP2Packet::operator<<
EXTRN	??0SP2Packet@@QAE@K@Z:PROC			; SP2Packet::SP2Packet
EXTRN	__imp_?GetTotalSec@ioFrameTimer@@QAEKXZ:PROC
EXTRN	__chkstk:PROC
;	COMDAT xdata$x
xdata$x	SEGMENT
__unwindtable$?GetUserInfoNetwork@UserInfoToolTip@@IAE_NABVioHashString@@AAUUserInfo@1@@Z DD 0ffffffffH
	DD	FLAT:__unwindfunclet$?GetUserInfoNetwork@UserInfoToolTip@@IAE_NABVioHashString@@AAUUserInfo@1@@Z$0
	DD	00H
	DD	FLAT:__unwindfunclet$?GetUserInfoNetwork@UserInfoToolTip@@IAE_NABVioHashString@@AAUUserInfo@1@@Z$1
__ehfuncinfo$?GetUserInfoNetwork@UserInfoToolTip@@IAE_NABVioHashString@@AAUUserInfo@1@@Z DD 019930522H
	DD	02H
	DD	FLAT:__unwindtable$?GetUserInfoNetwork@UserInfoToolTip@@IAE_NABVioHashString@@AAUUserInfo@1@@Z
	DD	2 DUP(00H)
	DD	2 DUP(00H)
	DD	00H
	DD	01H
; Function compile flags: /Ogsp
; File d:\lost saga for developer\youtube\tutorial\source\src\lsclient\gui\userinfotooltip.cpp
xdata$x	ENDS
;	COMDAT ?GetUserInfoNetwork@UserInfoToolTip@@IAE_NABVioHashString@@AAUUserInfo@1@@Z
_TEXT	SEGMENT
_rkInfo$GSCopy$ = -65616				; size = 4
_iter$546785 = -65612					; size = 4
_rsName$GSCopy$ = -65608				; size = 4
_i$546816 = -65604					; size = 4
_pInfo$546807 = -65604					; size = 4
_kPacket$ = -65600					; size = 32792
_kPacket$546815 = -32808				; size = 32792
__$ArrayPad$ = -16					; size = 4
__$EHRec$ = -12						; size = 12
_rsName$ = 8						; size = 4
_rkInfo$ = 12						; size = 4
?GetUserInfoNetwork@UserInfoToolTip@@IAE_NABVioHashString@@AAUUserInfo@1@@Z PROC ; UserInfoToolTip::GetUserInfoNetwork, COMDAT
; _this$ = ecx

; 1125 : {

  00000	55		 push	 ebp
  00001	8b ec		 mov	 ebp, esp
  00003	6a ff		 push	 -1
  00005	68 00 00 00 00	 push	 __ehhandler$?GetUserInfoNetwork@UserInfoToolTip@@IAE_NABVioHashString@@AAUUserInfo@1@@Z
  0000a	64 a1 00 00 00
	00		 mov	 eax, DWORD PTR fs:0
  00010	50		 push	 eax
  00011	b8 44 00 01 00	 mov	 eax, 65604		; 00010044H
  00016	e8 00 00 00 00	 call	 __chkstk
  0001b	a1 00 00 00 00	 mov	 eax, DWORD PTR ___security_cookie
  00020	33 c5		 xor	 eax, ebp
  00022	89 45 f0	 mov	 DWORD PTR __$ArrayPad$[ebp], eax
  00025	53		 push	 ebx
  00026	56		 push	 esi
  00027	57		 push	 edi
  00028	50		 push	 eax
  00029	8d 45 f4	 lea	 eax, DWORD PTR __$EHRec$[ebp]
  0002c	64 a3 00 00 00
	00		 mov	 DWORD PTR fs:0, eax
  00032	8b 45 08	 mov	 eax, DWORD PTR _rsName$[ebp]

; 1126 : 	if( m_dwPackSendTime > FRAMEGETTIME() )

  00035	8b 3d 00 00 00
	00		 mov	 edi, DWORD PTR __imp_?GetSingleton@ioFrameTimer@@SAAAV1@XZ

; 1182 : 
; 1183 : 		//Start Loading
; 1184 : 		m_sName = rsName;

  0003b	89 85 b8 ff fe
	ff		 mov	 DWORD PTR _rsName$GSCopy$[ebp], eax
  00041	8b 45 0c	 mov	 eax, DWORD PTR _rkInfo$[ebp]
  00044	8b f1		 mov	 esi, ecx
  00046	89 85 b0 ff fe
	ff		 mov	 DWORD PTR _rkInfo$GSCopy$[ebp], eax
  0004c	ff d7		 call	 edi
  0004e	8b c8		 mov	 ecx, eax
  00050	ff 15 00 00 00
	00		 call	 DWORD PTR __imp_?GetLoopSec@ioFrameTimer@@QBEKXZ
  00056	39 86 08 02 00
	00		 cmp	 DWORD PTR [esi+520], eax
  0005c	0f 87 85 01 00
	00		 ja	 $LN64@GetUserInf@2

; 1127 : 	{
; 1128 : 		//LOG.PrintTimeAndLog( 0, "PACK_SEND_LOCK");
; 1129 : 		return false;
; 1130 : 	}
; 1131 : 
; 1132 : 	// find
; 1133 : 	bool bRefesh = false;	
; 1134 : 	for(vUserInfo::iterator iter = m_vUserInfo.begin(); iter != m_vUserInfo.end(); ++iter)

  00062	a1 00 00 00 00	 mov	 eax, DWORD PTR ?m_vUserInfo@UserInfoToolTip@@1V?$vector@PAUUserInfo@UserInfoToolTip@@V?$allocator@PAUUserInfo@UserInfoToolTip@@@std@@@std@@A
  00067	8b 1d 00 00 00
	00		 mov	 ebx, DWORD PTR __imp_?GetTotalSec@ioFrameTimer@@QAEKXZ
  0006d	eb 2d		 jmp	 SHORT $LN65@GetUserInf@2
$LL34@GetUserInf@2:

; 1135 : 	{
; 1136 : 		UserInfo *pInfo = *iter;

  0006f	8b 00		 mov	 eax, DWORD PTR [eax]
  00071	89 85 bc ff fe
	ff		 mov	 DWORD PTR _pInfo$546807[ebp], eax

; 1137 : 		if( !pInfo )

  00077	85 c0		 test	 eax, eax
  00079	74 18		 je	 SHORT $LN17@GetUserInf@2

; 1138 : 			continue;
; 1139 : 
; 1140 : 		if( rsName != pInfo->m_sName )

  0007b	8b 8d b8 ff fe
	ff		 mov	 ecx, DWORD PTR _rsName$GSCopy$[ebp]
  00081	83 c0 08	 add	 eax, 8
  00084	50		 push	 eax
  00085	ff 15 00 00 00
	00		 call	 DWORD PTR __imp_??9ioHashString@@QBE_NABV0@@Z
  0008b	84 c0		 test	 al, al
  0008d	0f 84 72 01 00
	00		 je	 $LN14@GetUserInf@2
$LN17@GetUserInf@2:

; 1127 : 	{
; 1128 : 		//LOG.PrintTimeAndLog( 0, "PACK_SEND_LOCK");
; 1129 : 		return false;
; 1130 : 	}
; 1131 : 
; 1132 : 	// find
; 1133 : 	bool bRefesh = false;	
; 1134 : 	for(vUserInfo::iterator iter = m_vUserInfo.begin(); iter != m_vUserInfo.end(); ++iter)

  00093	8b 85 b4 ff fe
	ff		 mov	 eax, DWORD PTR _iter$546785[ebp]
  00099	83 c0 04	 add	 eax, 4
$LN65@GetUserInf@2:
  0009c	89 85 b4 ff fe
	ff		 mov	 DWORD PTR _iter$546785[ebp], eax
  000a2	3b 05 04 00 00
	00		 cmp	 eax, DWORD PTR ?m_vUserInfo@UserInfoToolTip@@1V?$vector@PAUUserInfo@UserInfoToolTip@@V?$allocator@PAUUserInfo@UserInfoToolTip@@@std@@@std@@A+4
  000a8	75 c5		 jne	 SHORT $LL34@GetUserInf@2
$LN16@GetUserInf@2:

; 1165 : 	}
; 1166 : 
; 1167 : 	// 0.5초 이내로 패킷을 보내지 못하게 값을 조정
; 1168 : 	m_dwPackSendTime = FRAMEGETTIME() + 500;

  000aa	ff d7		 call	 edi
  000ac	8b c8		 mov	 ecx, eax
  000ae	ff 15 00 00 00
	00		 call	 DWORD PTR __imp_?GetLoopSec@ioFrameTimer@@QBEKXZ
  000b4	05 f4 01 00 00	 add	 eax, 500		; 000001f4H

; 1169 : 	//////////////////////////////////////////////////////////////////////////
; 1170 : 
; 1171 : 	SP2Packet kPacket( CTPK_SIMPLE_USER_INFO_REFRESH );

  000b9	68 53 02 00 00	 push	 595			; 00000253H
  000be	8d 8d c0 ff fe
	ff		 lea	 ecx, DWORD PTR _kPacket$[ebp]
  000c4	89 86 08 02 00
	00		 mov	 DWORD PTR [esi+520], eax
  000ca	e8 00 00 00 00	 call	 ??0SP2Packet@@QAE@K@Z	; SP2Packet::SP2Packet

; 1172 : 	kPacket << rsName;

  000cf	ff b5 b8 ff fe
	ff		 push	 DWORD PTR _rsName$GSCopy$[ebp]
  000d5	83 65 fc 00	 and	 DWORD PTR __$EHRec$[ebp+8], 0
  000d9	8d 8d c0 ff fe
	ff		 lea	 ecx, DWORD PTR _kPacket$[ebp]
  000df	e8 00 00 00 00	 call	 ??6SP2Packet@@QAEAAV0@ABVioHashString@@@Z ; SP2Packet::operator<<

; 1173 : 	TCPNetwork::SendToServer( kPacket );

  000e4	8d 85 c0 ff fe
	ff		 lea	 eax, DWORD PTR _kPacket$[ebp]
  000ea	50		 push	 eax
  000eb	e8 00 00 00 00	 call	 ?SendToServer@TCPNetwork@@YAXAAVSP2Packet@@@Z ; TCPNetwork::SendToServer
  000f0	59		 pop	 ecx

; 1174 : 
; 1175 : 	if( REALGETTIME() - REFRESH_TOOLTIP_TIME > m_dwRefreshDelayTime)

  000f1	ff d7		 call	 edi
  000f3	8b c8		 mov	 ecx, eax
  000f5	ff d3		 call	 ebx
  000f7	2d 88 13 00 00	 sub	 eax, 5000		; 00001388H
  000fc	3b 86 f4 01 00
	00		 cmp	 eax, DWORD PTR [esi+500]
  00102	0f 86 d0 00 00
	00		 jbe	 $LN10@GetUserInf@2

; 1176 : 	{
; 1177 : 		SP2Packet kPacket( CTPK_SIMPLE_USER_INFO_REFRESH );

  00108	68 53 02 00 00	 push	 595			; 00000253H
  0010d	8d 8d d8 7f ff
	ff		 lea	 ecx, DWORD PTR _kPacket$546815[ebp]
  00113	e8 00 00 00 00	 call	 ??0SP2Packet@@QAE@K@Z	; SP2Packet::SP2Packet

; 1178 : 		kPacket << rsName;

  00118	ff b5 b8 ff fe
	ff		 push	 DWORD PTR _rsName$GSCopy$[ebp]
  0011e	8d 8d d8 7f ff
	ff		 lea	 ecx, DWORD PTR _kPacket$546815[ebp]
  00124	c6 45 fc 01	 mov	 BYTE PTR __$EHRec$[ebp+8], 1
  00128	e8 00 00 00 00	 call	 ??6SP2Packet@@QAEAAV0@ABVioHashString@@@Z ; SP2Packet::operator<<

; 1179 : 		TCPNetwork::SendToServer( kPacket );

  0012d	8d 85 d8 7f ff
	ff		 lea	 eax, DWORD PTR _kPacket$546815[ebp]
  00133	50		 push	 eax
  00134	e8 00 00 00 00	 call	 ?SendToServer@TCPNetwork@@YAXAAVSP2Packet@@@Z ; TCPNetwork::SendToServer

; 1180 : 	for (int i = 0; i < MAX_COSTUME ; i++)

  00139	83 a5 bc ff fe
	ff 00		 and	 DWORD PTR _i$546816[ebp], 0
  00140	59		 pop	 ecx
$LN9@GetUserInf@2:

; 1181 : 		HideChildWnd( ID_COSTUME_1_BTN + i );

  00141	8b 85 bc ff fe
	ff		 mov	 eax, DWORD PTR _i$546816[ebp]
  00147	6a 00		 push	 0
  00149	05 c9 00 00 00	 add	 eax, 201		; 000000c9H
  0014e	50		 push	 eax
  0014f	8b ce		 mov	 ecx, esi
  00151	ff 15 00 00 00
	00		 call	 DWORD PTR __imp_?HideChildWnd@ioWnd@@QAEXK_N@Z
  00157	ff 85 bc ff fe
	ff		 inc	 DWORD PTR _i$546816[ebp]
  0015d	83 bd bc ff fe
	ff 04		 cmp	 DWORD PTR _i$546816[ebp], 4
  00164	7c db		 jl	 SHORT $LN9@GetUserInf@2

; 1182 : 
; 1183 : 		//Start Loading
; 1184 : 		m_sName = rsName;

  00166	ff b5 b8 ff fe
	ff		 push	 DWORD PTR _rsName$GSCopy$[ebp]
  0016c	8d 8e 64 01 00
	00		 lea	 ecx, DWORD PTR [esi+356]
  00172	ff 15 00 00 00
	00		 call	 DWORD PTR __imp_??4ioHashString@@QAEAAV0@ABV0@@Z

; 1185 : 		m_sClassInfo.Clear();

  00178	8d 8e 74 01 00
	00		 lea	 ecx, DWORD PTR [esi+372]
  0017e	ff 15 00 00 00
	00		 call	 DWORD PTR __imp_?Clear@ioHashString@@QAEXXZ

; 1186 : 		m_sExtraInfo.Clear();

  00184	8d 8e 84 01 00
	00		 lea	 ecx, DWORD PTR [esi+388]
  0018a	ff 15 00 00 00
	00		 call	 DWORD PTR __imp_?Clear@ioHashString@@QAEXXZ

; 1187 : 		
; 1188 : 		m_dwRefreshDelayTime = REALGETTIME();

  00190	ff d7		 call	 edi
  00192	8b c8		 mov	 ecx, eax
  00194	ff d3		 call	 ebx
  00196	89 86 f4 01 00
	00		 mov	 DWORD PTR [esi+500], eax

; 1189 : 
; 1190 : 		for (int i = 0; i < MAX_GROWTH ; i++)

  0019c	33 c0		 xor	 eax, eax
$LL6@GetUserInf@2:

; 1191 : 			HideChildWnd( ID_GROWTH_1_BTN + i );

  0019e	8d 78 01	 lea	 edi, DWORD PTR [eax+1]
  001a1	6a 00		 push	 0
  001a3	57		 push	 edi
  001a4	8b ce		 mov	 ecx, esi
  001a6	ff 15 00 00 00
	00		 call	 DWORD PTR __imp_?HideChildWnd@ioWnd@@QAEXK_N@Z
  001ac	8b c7		 mov	 eax, edi
  001ae	83 f8 08	 cmp	 eax, 8
  001b1	7c eb		 jl	 SHORT $LL6@GetUserInf@2

; 1192 : 		for (int i = 0; i < MAX_MEDAL ; i++)

  001b3	33 ff		 xor	 edi, edi
$LL3@GetUserInf@2:

; 1193 : 			HideChildWnd( ID_MADAL_1_BTN + i );

  001b5	6a 00		 push	 0
  001b7	8d 47 65	 lea	 eax, DWORD PTR [edi+101]
  001ba	50		 push	 eax
  001bb	8b ce		 mov	 ecx, esi
  001bd	ff 15 00 00 00
	00		 call	 DWORD PTR __imp_?HideChildWnd@ioWnd@@QAEXK_N@Z
  001c3	47		 inc	 edi
  001c4	83 ff 06	 cmp	 edi, 6
  001c7	7c ec		 jl	 SHORT $LL3@GetUserInf@2

; 1194 : 
; 1195 : 		return false;

  001c9	8d 8d d8 7f ff
	ff		 lea	 ecx, DWORD PTR _kPacket$546815[ebp]
  001cf	c6 45 fc 00	 mov	 BYTE PTR __$EHRec$[ebp+8], 0
  001d3	e8 00 00 00 00	 call	 ??1SP2Packet@@UAE@XZ	; SP2Packet::~SP2Packet
$LN10@GetUserInf@2:

; 1196 : 	}
; 1197 : 
; 1198 : 	return false;

  001d8	83 4d fc ff	 or	 DWORD PTR __$EHRec$[ebp+8], -1
  001dc	8d 8d c0 ff fe
	ff		 lea	 ecx, DWORD PTR _kPacket$[ebp]
  001e2	e8 00 00 00 00	 call	 ??1SP2Packet@@UAE@XZ	; SP2Packet::~SP2Packet
$LN64@GetUserInf@2:
  001e7	32 c0		 xor	 al, al
$LN20@GetUserInf@2:

; 1199 : }

  001e9	8b 4d f4	 mov	 ecx, DWORD PTR __$EHRec$[ebp]
  001ec	64 89 0d 00 00
	00 00		 mov	 DWORD PTR fs:0, ecx
  001f3	59		 pop	 ecx
  001f4	5f		 pop	 edi
  001f5	5e		 pop	 esi
  001f6	5b		 pop	 ebx
  001f7	8b 4d f0	 mov	 ecx, DWORD PTR __$ArrayPad$[ebp]
  001fa	33 cd		 xor	 ecx, ebp
  001fc	e8 00 00 00 00	 call	 @__security_check_cookie@4
  00201	c9		 leave
  00202	c2 08 00	 ret	 8
$LN14@GetUserInf@2:

; 1141 : 			continue;
; 1142 : 		
; 1143 : 		if( pInfo->m_bMustSync )

  00205	8b 85 bc ff fe
	ff		 mov	 eax, DWORD PTR _pInfo$546807[ebp]
  0020b	80 b8 88 00 00
	00 00		 cmp	 BYTE PTR [eax+136], 0
  00212	0f 85 92 fe ff
	ff		 jne	 $LN16@GetUserInf@2

; 1144 : 		{
; 1145 : 			bRefesh	= true;
; 1146 : 			break;
; 1147 : 		}
; 1148 : 
; 1149 : 		//Create Time Check
; 1150 : 		if( REALGETTIME() - pInfo->m_dwCreateTime > m_dwMaxLiveTime )

  00218	ff d7		 call	 edi
  0021a	8b c8		 mov	 ecx, eax
  0021c	ff d3		 call	 ebx
  0021e	8b 8d bc ff fe
	ff		 mov	 ecx, DWORD PTR _pInfo$546807[ebp]
  00224	2b 01		 sub	 eax, DWORD PTR [ecx]
  00226	3b 86 a8 01 00
	00		 cmp	 eax, DWORD PTR [esi+424]
  0022c	0f 87 78 fe ff
	ff		 ja	 $LN16@GetUserInf@2

; 1151 : 		{
; 1152 : 			bRefesh	= true;
; 1153 : 			break;
; 1154 : 		}		
; 1155 : 
; 1156 : 		//Refresh Check
; 1157 : 		if( REALGETTIME() - pInfo->m_dwRefreshTime > m_dwMaxRefreshDelayTime )

  00232	ff d7		 call	 edi
  00234	8b c8		 mov	 ecx, eax
  00236	ff d3		 call	 ebx
  00238	8b c8		 mov	 ecx, eax
  0023a	8b 85 bc ff fe
	ff		 mov	 eax, DWORD PTR _pInfo$546807[ebp]
  00240	2b 48 04	 sub	 ecx, DWORD PTR [eax+4]
  00243	3b 8e a4 01 00
	00		 cmp	 ecx, DWORD PTR [esi+420]
  00249	0f 87 5b fe ff
	ff		 ja	 $LN16@GetUserInf@2

; 1158 : 		{
; 1159 : 			bRefesh	= true;
; 1160 : 			break;
; 1161 : 		}
; 1162 : 
; 1163 : 		rkInfo = *pInfo;

  0024f	8b 8d b0 ff fe
	ff		 mov	 ecx, DWORD PTR _rkInfo$GSCopy$[ebp]
  00255	50		 push	 eax
  00256	e8 00 00 00 00	 call	 ??4UserInfo@UserInfoToolTip@@QAEAAU01@ABU01@@Z

; 1164 : 		return true;

  0025b	b0 01		 mov	 al, 1
  0025d	eb 8a		 jmp	 SHORT $LN20@GetUserInf@2
_TEXT	ENDS
;	COMDAT text$x
text$x	SEGMENT
__unwindfunclet$?GetUserInfoNetwork@UserInfoToolTip@@IAE_NABVioHashString@@AAUUserInfo@1@@Z$0:
  00000	8d 8d c0 ff fe
	ff		 lea	 ecx, DWORD PTR _kPacket$[ebp]
  00006	e9 00 00 00 00	 jmp	 ??1SP2Packet@@UAE@XZ	; SP2Packet::~SP2Packet
__unwindfunclet$?GetUserInfoNetwork@UserInfoToolTip@@IAE_NABVioHashString@@AAUUserInfo@1@@Z$1:
  0000b	8d 8d d8 7f ff
	ff		 lea	 ecx, DWORD PTR _kPacket$546815[ebp]
  00011	e9 00 00 00 00	 jmp	 ??1SP2Packet@@UAE@XZ	; SP2Packet::~SP2Packet
__ehhandler$?GetUserInfoNetwork@UserInfoToolTip@@IAE_NABVioHashString@@AAUUserInfo@1@@Z:
  00016	8b 54 24 08	 mov	 edx, DWORD PTR [esp+8]
  0001a	8d 42 0c	 lea	 eax, DWORD PTR [edx+12]
  0001d	8b 8a ac ff fe
	ff		 mov	 ecx, DWORD PTR [edx-65620]
  00023	33 c8		 xor	 ecx, eax
  00025	e8 00 00 00 00	 call	 @__security_check_cookie@4
  0002a	8b 4a fc	 mov	 ecx, DWORD PTR [edx-4]
  0002d	33 c8		 xor	 ecx, eax
  0002f	e8 00 00 00 00	 call	 @__security_check_cookie@4
  00034	b8 00 00 00 00	 mov	 eax, OFFSET __ehfuncinfo$?GetUserInfoNetwork@UserInfoToolTip@@IAE_NABVioHashString@@AAUUserInfo@1@@Z
  00039	e9 00 00 00 00	 jmp	 ___CxxFrameHandler3
text$x	ENDS
?GetUserInfoNetwork@UserInfoToolTip@@IAE_NABVioHashString@@AAUUserInfo@1@@Z ENDP ; UserInfoToolTip::GetUserInfoNetwork
PUBLIC	??1?$vector@UExpandMedalSlot@ioExpandMedalSlotManager@@V?$allocator@UExpandMedalSlot@ioExpandMedalSlotManager@@@std@@@std@@QAE@XZ ; std::vector<ioExpandMedalSlotManager::ExpandMedalSlot,std::allocator<ioExpandMedalSlotManager::ExpandMedalSlot> >::~vector<ioExpandMedalSlotManager::ExpandMedalSlot,std::allocator<ioExpandMedalSlotManager::ExpandMedalSlot> >
; Function compile flags: /Ogsp
; File c:\program files (x86)\microsoft visual studio 10.0\vc\include\vector
;	COMDAT ??1?$vector@UExpandMedalSlot@ioExpandMedalSlotManager@@V?$allocator@UExpandMedalSlot@ioExpandMedalSlotManager@@@std@@@std@@QAE@XZ
_TEXT	SEGMENT
??1?$vector@UExpandMedalSlot@ioExpandMedalSlotManager@@V?$allocator@UExpandMedalSlot@ioExpandMedalSlotManager@@@std@@@std@@QAE@XZ PROC ; std::vector<ioExpandMedalSlotManager::ExpandMedalSlot,std::allocator<ioExpandMedalSlotManager::ExpandMedalSlot> >::~vector<ioExpandMedalSlotManager::ExpandMedalSlot,std::allocator<ioExpandMedalSlotManager::ExpandMedalSlot> >, COMDAT
; _this$ = ecx

; 705  : 		_Tidy();

  00000	e9 00 00 00 00	 jmp	 ?_Tidy@?$vector@UExpandMedalSlot@ioExpandMedalSlotManager@@V?$allocator@UExpandMedalSlot@ioExpandMedalSlotManager@@@std@@@std@@IAEXXZ ; std::vector<ioExpandMedalSlotManager::ExpandMedalSlot,std::allocator<ioExpandMedalSlotManager::ExpandMedalSlot> >::_Tidy
??1?$vector@UExpandMedalSlot@ioExpandMedalSlotManager@@V?$allocator@UExpandMedalSlot@ioExpandMedalSlotManager@@@std@@@std@@QAE@XZ ENDP ; std::vector<ioExpandMedalSlotManager::ExpandMedalSlot,std::allocator<ioExpandMedalSlotManager::ExpandMedalSlot> >::~vector<ioExpandMedalSlotManager::ExpandMedalSlot,std::allocator<ioExpandMedalSlotManager::ExpandMedalSlot> >
_TEXT	ENDS
PUBLIC	?reserve@?$vector@VioHashString@@V?$allocator@VioHashString@@@std@@@std@@QAEXI@Z ; std::vector<ioHashString,std::allocator<ioHashString> >::reserve
;	COMDAT xdata$x
; File c:\program files (x86)\microsoft visual studio 10.0\vc\include\xmemory
xdata$x	SEGMENT
__catchsym$?reserve@?$vector@VioHashString@@V?$allocator@VioHashString@@@std@@@std@@QAEXI@Z$2 DD 040H
	DD	00H
	DD	00H
	DD	FLAT:__catch$?reserve@?$vector@VioHashString@@V?$allocator@VioHashString@@@std@@@std@@QAEXI@Z$0
__unwindtable$?reserve@?$vector@VioHashString@@V?$allocator@VioHashString@@@std@@@std@@QAEXI@Z DD 0ffffffffH
	DD	00H
	DD	0ffffffffH
	DD	00H
__tryblocktable$?reserve@?$vector@VioHashString@@V?$allocator@VioHashString@@@std@@@std@@QAEXI@Z DD 00H
	DD	00H
	DD	01H
	DD	01H
	DD	FLAT:__catchsym$?reserve@?$vector@VioHashString@@V?$allocator@VioHashString@@@std@@@std@@QAEXI@Z$2
__ehfuncinfo$?reserve@?$vector@VioHashString@@V?$allocator@VioHashString@@@std@@@std@@QAEXI@Z DD 019930522H
	DD	02H
	DD	FLAT:__unwindtable$?reserve@?$vector@VioHashString@@V?$allocator@VioHashString@@@std@@@std@@QAEXI@Z
	DD	01H
	DD	FLAT:__tryblocktable$?reserve@?$vector@VioHashString@@V?$allocator@VioHashString@@@std@@@std@@QAEXI@Z
	DD	2 DUP(00H)
	DD	00H
	DD	01H
; Function compile flags: /Ogsp
; File c:\program files (x86)\microsoft visual studio 10.0\vc\include\vector
xdata$x	ENDS
;	COMDAT ?reserve@?$vector@VioHashString@@V?$allocator@VioHashString@@@std@@@std@@QAEXI@Z
_TEXT	SEGMENT
tv300 = -24						; size = 4
__Ptr$547721 = -20					; size = 4
__$EHRec$ = -16						; size = 16
$T560252 = 8						; size = 4
__Count$ = 8						; size = 4
?reserve@?$vector@VioHashString@@V?$allocator@VioHashString@@@std@@@std@@QAEXI@Z PROC ; std::vector<ioHashString,std::allocator<ioHashString> >::reserve, COMDAT
; _this$ = ecx

; 746  : 		{	// determine new minimum length of allocated storage

  00000	6a 0c		 push	 12			; 0000000cH
  00002	b8 00 00 00 00	 mov	 eax, __ehhandler$?reserve@?$vector@VioHashString@@V?$allocator@VioHashString@@@std@@@std@@QAEXI@Z
  00007	e8 00 00 00 00	 call	 __EH_prolog3_catch
  0000c	8b f1		 mov	 esi, ecx

; 747  : 		if (max_size() < _Count)

  0000e	8b 5d 08	 mov	 ebx, DWORD PTR __Count$[ebp]
  00011	81 fb ff ff ff
	0f		 cmp	 ebx, 268435455		; 0fffffffH
  00017	76 0b		 jbe	 SHORT $LN5@reserve@4

; 748  : 			_Xlen();	// result too long

  00019	68 00 00 00 00	 push	 OFFSET ??_C@_0BD@OLBABOEK@vector?$DMT?$DO?5too?5long?$AA@
  0001e	ff 15 00 00 00
	00		 call	 DWORD PTR __imp_?_Xlength_error@std@@YAXPBD@Z
$LN59@reserve@4:
$LN5@reserve@4:

; 749  : 		else if (capacity() < _Count)

  00024	8b 46 08	 mov	 eax, DWORD PTR [esi+8]
  00027	2b 06		 sub	 eax, DWORD PTR [esi]
  00029	c1 f8 04	 sar	 eax, 4
  0002c	3b c3		 cmp	 eax, ebx
  0002e	73 7a		 jae	 SHORT $LN3@reserve@4

; 750  : 			{	// not enough room, reallocate
; 751  : 			pointer _Ptr = this->_Alval.allocate(_Count);

  00030	6a 00		 push	 0
  00032	53		 push	 ebx
  00033	e8 00 00 00 00	 call	 ??$_Allocate@VioHashString@@@std@@YAPAVioHashString@@IPAV1@@Z ; std::_Allocate<ioHashString>

; 752  : 
; 753  : 			_TRY_BEGIN
; 754  : 			_Umove(this->_Myfirst, this->_Mylast, _Ptr);

  00038	8b 0e		 mov	 ecx, DWORD PTR [esi]
  0003a	83 65 fc 00	 and	 DWORD PTR __$EHRec$[ebp+12], 0
  0003e	8d 56 0c	 lea	 edx, DWORD PTR [esi+12]
  00041	52		 push	 edx
  00042	89 45 ec	 mov	 DWORD PTR __Ptr$547721[ebp], eax
  00045	ff 75 ec	 push	 DWORD PTR __Ptr$547721[ebp]
  00048	8b 46 04	 mov	 eax, DWORD PTR [esi+4]
  0004b	50		 push	 eax
  0004c	51		 push	 ecx
  0004d	e8 00 00 00 00	 call	 ??$_Uninitialized_move@PAVioHashString@@PAV1@V?$allocator@VioHashString@@@std@@@std@@YAPAVioHashString@@PAV1@00AAV?$allocator@VioHashString@@@0@@Z ; std::_Uninitialized_move<ioHashString *,ioHashString *,std::allocator<ioHashString> >

; 758  : 			_CATCH_END
; 759  : 
; 760  : 			size_type _Size = size();

  00052	8b 4e 04	 mov	 ecx, DWORD PTR [esi+4]
  00055	8b 06		 mov	 eax, DWORD PTR [esi]
  00057	83 4d fc ff	 or	 DWORD PTR __$EHRec$[ebp+12], -1
  0005b	8b f9		 mov	 edi, ecx
  0005d	83 c4 18	 add	 esp, 24			; 00000018H
  00060	2b f8		 sub	 edi, eax
  00062	89 4d e8	 mov	 DWORD PTR tv300[ebp], ecx
  00065	85 c0		 test	 eax, eax
  00067	74 24		 je	 SHORT $LN51@reserve@4

; 761  : 			if (this->_Myfirst != 0)
; 762  : 				{	// destroy and deallocate old array
; 763  : 				_Destroy(this->_Myfirst, this->_Mylast);

  00069	89 45 08	 mov	 DWORD PTR $T560252[ebp], eax
  0006c	3b c1		 cmp	 eax, ecx
  0006e	74 15		 je	 SHORT $LN37@reserve@4
$LN39@reserve@4:
  00070	8b 4d 08	 mov	 ecx, DWORD PTR $T560252[ebp]
  00073	ff 15 00 00 00
	00		 call	 DWORD PTR __imp_??1ioHashString@@QAE@XZ
  00079	83 45 08 10	 add	 DWORD PTR $T560252[ebp], 16 ; 00000010H
  0007d	8b 45 08	 mov	 eax, DWORD PTR $T560252[ebp]
  00080	3b 45 e8	 cmp	 eax, DWORD PTR tv300[ebp]
  00083	75 eb		 jne	 SHORT $LN39@reserve@4
$LN37@reserve@4:

; 764  : 				this->_Alval.deallocate(this->_Myfirst,
; 765  : 					this->_Myend - this->_Myfirst);

  00085	ff 36		 push	 DWORD PTR [esi]
  00087	e8 00 00 00 00	 call	 ??3@YAXPAX@Z		; operator delete
  0008c	59		 pop	 ecx
$LN51@reserve@4:

; 766  : 				}
; 767  : 
; 768  : 			this->_Orphan_all();

  0008d	8b ce		 mov	 ecx, esi
  0008f	ff 15 00 00 00
	00		 call	 DWORD PTR __imp_?_Orphan_all@_Container_base0@std@@QAEXXZ

; 769  : 			this->_Myend = _Ptr + _Count;

  00095	8b 45 ec	 mov	 eax, DWORD PTR __Ptr$547721[ebp]
  00098	c1 e3 04	 shl	 ebx, 4
  0009b	03 d8		 add	 ebx, eax

; 770  : 			this->_Mylast = _Ptr + _Size;

  0009d	83 e7 f0	 and	 edi, -16		; fffffff0H
  000a0	03 f8		 add	 edi, eax
  000a2	89 5e 08	 mov	 DWORD PTR [esi+8], ebx
  000a5	89 7e 04	 mov	 DWORD PTR [esi+4], edi

; 771  : 			this->_Myfirst = _Ptr;

  000a8	89 06		 mov	 DWORD PTR [esi], eax
$LN3@reserve@4:

; 772  : 			}
; 773  : 		}

  000aa	e8 00 00 00 00	 call	 __EH_epilog3
  000af	c2 04 00	 ret	 4
__catch$?reserve@?$vector@VioHashString@@V?$allocator@VioHashString@@@std@@@std@@QAEXI@Z$0:

; 755  : 			_CATCH_ALL
; 756  : 			this->_Alval.deallocate(_Ptr, _Count);

  000b2	ff 75 ec	 push	 DWORD PTR __Ptr$547721[ebp]
  000b5	e8 00 00 00 00	 call	 ??3@YAXPAX@Z		; operator delete
  000ba	59		 pop	 ecx

; 757  : 			_RERAISE;

  000bb	6a 00		 push	 0
  000bd	6a 00		 push	 0
  000bf	e8 00 00 00 00	 call	 __CxxThrowException@8
$LN60@reserve@4:
$LN58@reserve@4:
  000c4	cc		 int	 3
_TEXT	ENDS
;	COMDAT text$x
text$x	SEGMENT
__ehhandler$?reserve@?$vector@VioHashString@@V?$allocator@VioHashString@@@std@@@std@@QAEXI@Z:
  00000	8b 54 24 08	 mov	 edx, DWORD PTR [esp+8]
  00004	8d 42 0c	 lea	 eax, DWORD PTR [edx+12]
  00007	8b 4a e4	 mov	 ecx, DWORD PTR [edx-28]
  0000a	33 c8		 xor	 ecx, eax
  0000c	e8 00 00 00 00	 call	 @__security_check_cookie@4
  00011	b8 00 00 00 00	 mov	 eax, OFFSET __ehfuncinfo$?reserve@?$vector@VioHashString@@V?$allocator@VioHashString@@@std@@@std@@QAEXI@Z
  00016	e9 00 00 00 00	 jmp	 ___CxxFrameHandler3
text$x	ENDS
?reserve@?$vector@VioHashString@@V?$allocator@VioHashString@@@std@@@std@@QAEXI@Z ENDP ; std::vector<ioHashString,std::allocator<ioHashString> >::reserve
PUBLIC	?erase@?$vector@VioHashString@@V?$allocator@VioHashString@@@std@@@std@@QAE?AV?$_Vector_iterator@V?$_Vector_val@VioHashString@@V?$allocator@VioHashString@@@std@@@std@@@2@V?$_Vector_const_iterator@V?$_Vector_val@VioHashString@@V?$allocator@VioHashString@@@std@@@std@@@2@0@Z ; std::vector<ioHashString,std::allocator<ioHashString> >::erase
; Function compile flags: /Ogsp
;	COMDAT ?erase@?$vector@VioHashString@@V?$allocator@VioHashString@@@std@@@std@@QAE?AV?$_Vector_iterator@V?$_Vector_val@VioHashString@@V?$allocator@VioHashString@@@std@@@std@@@2@V?$_Vector_const_iterator@V?$_Vector_val@VioHashString@@V?$allocator@VioHashString@@@std@@@std@@@2@0@Z
_TEXT	SEGMENT
$T560447 = -4						; size = 4
___$ReturnUdt$ = 8					; size = 4
__First_arg$ = 12					; size = 4
__Cat$560392 = 16					; size = 1
__Last_arg$ = 16					; size = 4
?erase@?$vector@VioHashString@@V?$allocator@VioHashString@@@std@@@std@@QAE?AV?$_Vector_iterator@V?$_Vector_val@VioHashString@@V?$allocator@VioHashString@@@std@@@std@@@2@V?$_Vector_const_iterator@V?$_Vector_val@VioHashString@@V?$allocator@VioHashString@@@std@@@std@@@2@0@Z PROC ; std::vector<ioHashString,std::allocator<ioHashString> >::erase, COMDAT
; _this$ = ecx

; 1190 : 		{	// erase [_First, _Last)

  00000	55		 push	 ebp
  00001	8b ec		 mov	 ebp, esp
  00003	51		 push	 ecx

; 1191 : 		iterator _First = _Make_iter(_First_arg);

  00004	8b 45 08	 mov	 eax, DWORD PTR ___$ReturnUdt$[ebp]
  00007	56		 push	 esi
  00008	8b f1		 mov	 esi, ecx
  0000a	8b 4d 0c	 mov	 ecx, DWORD PTR __First_arg$[ebp]
  0000d	89 08		 mov	 DWORD PTR [eax], ecx

; 1192 : 		iterator _Last = _Make_iter(_Last_arg);
; 1193 : 
; 1194 : 		if (_First != _Last)

  0000f	3b 4d 10	 cmp	 ecx, DWORD PTR __Last_arg$[ebp]
  00012	74 38		 je	 SHORT $LN1@erase@5

; 1195 : 			{	// worth doing, copy down over hole
; 1196 :  #if _ITERATOR_DEBUG_LEVEL == 2
; 1197 : 			if (_Last < _First || _VICONT(_First) != this
; 1198 : 				|| _VIPTR(_First) < this->_Myfirst
; 1199 : 				|| this->_Mylast < _VIPTR(_Last))
; 1200 : 				_DEBUG_ERROR("vector erase iterator outside range");
; 1201 : 			pointer _Ptr = _Move(_VIPTR(_Last), this->_Mylast,
; 1202 : 				_VIPTR(_First));
; 1203 : 			_Orphan_range(_VIPTR(_First), this->_Mylast);
; 1204 : 
; 1205 :  #else /* _ITERATOR_DEBUG_LEVEL == 2 */
; 1206 : 			pointer _Ptr = _Move(_VIPTR(_Last), this->_Mylast,
; 1207 : 				_VIPTR(_First));

  00014	8b 46 04	 mov	 eax, DWORD PTR [esi+4]
  00017	53		 push	 ebx
  00018	57		 push	 edi
  00019	ff 75 10	 push	 DWORD PTR __Cat$560392[ebp]
  0001c	51		 push	 ecx
  0001d	50		 push	 eax
  0001e	ff 75 10	 push	 DWORD PTR __Last_arg$[ebp]
  00021	e8 00 00 00 00	 call	 ??$_Move@PAVioHashString@@PAV1@@std@@YAPAVioHashString@@PAV1@00U_Nonscalar_ptr_iterator_tag@0@@Z ; std::_Move<ioHashString *,ioHashString *>

; 1208 :  #endif /* _ITERATOR_DEBUG_LEVEL == 2 */
; 1209 : 
; 1210 : 			_Destroy(_Ptr, this->_Mylast);

  00026	8b 7e 04	 mov	 edi, DWORD PTR [esi+4]
  00029	8b d8		 mov	 ebx, eax
  0002b	83 c4 10	 add	 esp, 16			; 00000010H
  0002e	89 5d fc	 mov	 DWORD PTR $T560447[ebp], ebx
  00031	3b df		 cmp	 ebx, edi
  00033	74 12		 je	 SHORT $LN36@erase@5
$LL52@erase@5:
  00035	8b 4d fc	 mov	 ecx, DWORD PTR $T560447[ebp]
  00038	ff 15 00 00 00
	00		 call	 DWORD PTR __imp_??1ioHashString@@QAE@XZ
  0003e	83 45 fc 10	 add	 DWORD PTR $T560447[ebp], 16 ; 00000010H
  00042	39 7d fc	 cmp	 DWORD PTR $T560447[ebp], edi
  00045	75 ee		 jne	 SHORT $LL52@erase@5
$LN36@erase@5:

; 1211 : 			this->_Mylast = _Ptr;

  00047	5f		 pop	 edi
  00048	89 5e 04	 mov	 DWORD PTR [esi+4], ebx
  0004b	5b		 pop	 ebx
$LN1@erase@5:

; 1212 : 			}
; 1213 : 		return (_First);

  0004c	8b 45 08	 mov	 eax, DWORD PTR ___$ReturnUdt$[ebp]
  0004f	5e		 pop	 esi

; 1214 : 		}

  00050	c9		 leave
  00051	c2 0c 00	 ret	 12			; 0000000cH
?erase@?$vector@VioHashString@@V?$allocator@VioHashString@@@std@@@std@@QAE?AV?$_Vector_iterator@V?$_Vector_val@VioHashString@@V?$allocator@VioHashString@@@std@@@std@@@2@V?$_Vector_const_iterator@V?$_Vector_val@VioHashString@@V?$allocator@VioHashString@@@std@@@std@@@2@0@Z ENDP ; std::vector<ioHashString,std::allocator<ioHashString> >::erase
_TEXT	ENDS
PUBLIC	?_Tidy@?$vector@VioHashString@@V?$allocator@VioHashString@@@std@@@std@@IAEXXZ ; std::vector<ioHashString,std::allocator<ioHashString> >::_Tidy
; Function compile flags: /Ogsp
;	COMDAT ?_Tidy@?$vector@VioHashString@@V?$allocator@VioHashString@@@std@@@std@@IAEXXZ
_TEXT	SEGMENT
?_Tidy@?$vector@VioHashString@@V?$allocator@VioHashString@@@std@@@std@@IAEXXZ PROC ; std::vector<ioHashString,std::allocator<ioHashString> >::_Tidy, COMDAT
; _this$ = ecx

; 1301 : 		{	// free all storage

  00000	56		 push	 esi
  00001	8b f1		 mov	 esi, ecx

; 1302 : 		if (this->_Myfirst != 0)

  00003	83 3e 00	 cmp	 DWORD PTR [esi], 0
  00006	74 28		 je	 SHORT $LN24@Tidy@6

; 1303 : 			{	// something to free, destroy and deallocate it
; 1304 : 			this->_Orphan_all();

  00008	53		 push	 ebx
  00009	57		 push	 edi
  0000a	ff 15 00 00 00
	00		 call	 DWORD PTR __imp_?_Orphan_all@_Container_base0@std@@QAEXXZ

; 1305 : 			_Destroy(this->_Myfirst, this->_Mylast);

  00010	8b 5e 04	 mov	 ebx, DWORD PTR [esi+4]
  00013	8b 3e		 mov	 edi, DWORD PTR [esi]
  00015	eb 0b		 jmp	 SHORT $LN28@Tidy@6
$LL12@Tidy@6:
  00017	8b cf		 mov	 ecx, edi
  00019	ff 15 00 00 00
	00		 call	 DWORD PTR __imp_??1ioHashString@@QAE@XZ
  0001f	83 c7 10	 add	 edi, 16			; 00000010H
$LN28@Tidy@6:
  00022	3b fb		 cmp	 edi, ebx
  00024	75 f1		 jne	 SHORT $LL12@Tidy@6

; 1306 : 			this->_Alval.deallocate(this->_Myfirst,
; 1307 : 				this->_Myend - this->_Myfirst);

  00026	ff 36		 push	 DWORD PTR [esi]
  00028	e8 00 00 00 00	 call	 ??3@YAXPAX@Z		; operator delete
  0002d	59		 pop	 ecx
  0002e	5f		 pop	 edi
  0002f	5b		 pop	 ebx
$LN24@Tidy@6:

; 1308 : 			}
; 1309 : 		this->_Myfirst = 0;

  00030	33 c0		 xor	 eax, eax
  00032	89 06		 mov	 DWORD PTR [esi], eax

; 1310 : 		this->_Mylast = 0;

  00034	89 46 04	 mov	 DWORD PTR [esi+4], eax

; 1311 : 		this->_Myend = 0;

  00037	89 46 08	 mov	 DWORD PTR [esi+8], eax
  0003a	5e		 pop	 esi

; 1312 : 		}

  0003b	c3		 ret	 0
?_Tidy@?$vector@VioHashString@@V?$allocator@VioHashString@@@std@@@std@@IAEXXZ ENDP ; std::vector<ioHashString,std::allocator<ioHashString> >::_Tidy
_TEXT	ENDS
PUBLIC	??_C@_04ENHBHKMJ@?$CI?$CFs?$CJ?$AA@		; `string'
PUBLIC	__real@3f400000
PUBLIC	__real@3f2e147b
PUBLIC	__real@3f147ae1
PUBLIC	??_C@_0CF@FLOBCBIE@UserInfoToolTip?3?3SetUserInfoTool@ ; `string'
PUBLIC	??_C@_07FJPGPLB@LV?$CFd?5?$CFs?$AA@		; `string'
PUBLIC	_this$GSCopy$
PUBLIC	?SetUserInfoToolInfo@UserInfoToolTip@@IAEXAAUUserInfo@1@@Z ; UserInfoToolTip::SetUserInfoToolInfo
EXTRN	__imp_?GetWidth@ioWnd@@QBEHXZ:PROC
EXTRN	__imp_?HideWnd@ioWnd@@QAEXXZ:PROC
EXTRN	?GetSkillConst@ioSkillMaker@@QBEPBVioSkill@@ABVioHashString@@@Z:PROC ; ioSkillMaker::GetSkillConst
EXTRN	?GetSingleton@ioSkillMaker@@SAAAV1@XZ:PROC	; ioSkillMaker::GetSingleton
EXTRN	?GetItemConst@ioItemMaker@@QBEPBVioItem@@KABVioHashString@@@Z:PROC ; ioItemMaker::GetItemConst
EXTRN	__imp_??0ioHashString@@QAE@PBD@Z:PROC
EXTRN	?GetItemInfo@ioMedalItemInfoManager@@QAEPBUItemInfo@1@H@Z:PROC ; ioMedalItemInfoManager::GetItemInfo
EXTRN	?GetSlotNum@ioMedalItemInfoManager@@QAEHH@Z:PROC ; ioMedalItemInfoManager::GetSlotNum
EXTRN	?GetItemLargeIcon@ioItemMaker@@QBEABVioHashString@@KK@Z:PROC ; ioItemMaker::GetItemLargeIcon
EXTRN	?GetGradeType@ioCostumeInfoManager@@QAEHH@Z:PROC ; ioCostumeInfoManager::GetGradeType
EXTRN	__imp_?CreateImageByFullName@ioUIImageSetManager@@QAEPAVioUIRenderImage@@ABVioHashString@@_N@Z:PROC
EXTRN	__imp_?GetSingleton@ioUIImageSetManager@@SAAAV1@XZ:PROC
EXTRN	?GetCostumeIcon@ioCostumeInfoManager@@QAE?AVioHashString@@H@Z:PROC ; ioCostumeInfoManager::GetCostumeIcon
EXTRN	?GetSingleton@ioCostumeInfoManager@@SAAAV1@XZ:PROC ; ioCostumeInfoManager::GetSingleton
EXTRN	?SetIcon@SlotIconBtn@@QAE_NPAVioUIRenderImage@@MMMHHKK_N@Z:PROC ; SlotIconBtn::SetIcon
EXTRN	__imp_?ShowWnd@ioWnd@@QAEXXZ:PROC
EXTRN	__imp_?SafeSprintf@@YAXPADHPBD1@Z:PROC
EXTRN	__imp_?SafeSprintf@@YAXPADHPBD11@Z:PROC
EXTRN	?GetCharGradeTitle@ioPowerUpManager@@QBEABVioHashString@@HH@Z:PROC ; ioPowerUpManager::GetCharGradeTitle
EXTRN	?GetAwakeName@ioSoldierAwakeManager@@QBEABV?$basic_string@DU?$char_traits@D@std@@V?$allocator@D@2@@std@@W4AwakeType@@@Z:PROC ; ioSoldierAwakeManager::GetAwakeName
EXTRN	?GetSingleton@ioSoldierAwakeManager@@SAAAV1@XZ:PROC ; ioSoldierAwakeManager::GetSingleton
EXTRN	__imp_??4ioHashString@@QAEAAV0@PBD@Z:PROC
EXTRN	?GetClassNameA@ioMyInfo@@QAEPBDHH@Z:PROC	; ioMyInfo::GetClassNameA
EXTRN	__EH_epilog3_GS:PROC
EXTRN	__EH_prolog3_GS:PROC
EXTRN	_memset:PROC
;	COMDAT ??_C@_04ENHBHKMJ@?$CI?$CFs?$CJ?$AA@
CONST	SEGMENT
??_C@_04ENHBHKMJ@?$CI?$CFs?$CJ?$AA@ DB '(%s)', 00H	; `string'
CONST	ENDS
;	COMDAT __real@3f400000
CONST	SEGMENT
__real@3f400000 DD 03f400000r			; 0.75
CONST	ENDS
;	COMDAT __real@3f2e147b
CONST	SEGMENT
__real@3f2e147b DD 03f2e147br			; 0.68
CONST	ENDS
;	COMDAT __real@3f147ae1
CONST	SEGMENT
__real@3f147ae1 DD 03f147ae1r			; 0.58
CONST	ENDS
;	COMDAT ??_C@_0CF@FLOBCBIE@UserInfoToolTip?3?3SetUserInfoTool@
CONST	SEGMENT
??_C@_0CF@FLOBCBIE@UserInfoToolTip?3?3SetUserInfoTool@ DB 'UserInfoToolTi'
	DB	'p::SetUserInfoToolInfo', 00H		; `string'
CONST	ENDS
;	COMDAT ??_C@_07FJPGPLB@LV?$CFd?5?$CFs?$AA@
CONST	SEGMENT
??_C@_07FJPGPLB@LV?$CFd?5?$CFs?$AA@ DB 'LV%d %s', 00H	; `string'
CONST	ENDS
;	COMDAT xdata$x
xdata$x	SEGMENT
__ehfuncinfo$?SetUserInfoToolInfo@UserInfoToolTip@@IAEXAAUUserInfo@1@@Z DD 019930522H
	DD	09H
	DD	FLAT:__unwindtable$?SetUserInfoToolInfo@UserInfoToolTip@@IAEXAAUUserInfo@1@@Z
	DD	2 DUP(00H)
	DD	2 DUP(00H)
	DD	00H
	DD	01H
__unwindtable$?SetUserInfoToolInfo@UserInfoToolTip@@IAEXAAUUserInfo@1@@Z DD 0ffffffffH
	DD	FLAT:__unwindfunclet$?SetUserInfoToolInfo@UserInfoToolTip@@IAEXAAUUserInfo@1@@Z$0
	DD	00H
	DD	FLAT:__unwindfunclet$?SetUserInfoToolInfo@UserInfoToolTip@@IAEXAAUUserInfo@1@@Z$1
	DD	0ffffffffH
	DD	FLAT:__unwindfunclet$?SetUserInfoToolInfo@UserInfoToolTip@@IAEXAAUUserInfo@1@@Z$3
	DD	0ffffffffH
	DD	FLAT:__unwindfunclet$?SetUserInfoToolInfo@UserInfoToolTip@@IAEXAAUUserInfo@1@@Z$4
	DD	0ffffffffH
	DD	FLAT:__unwindfunclet$?SetUserInfoToolInfo@UserInfoToolTip@@IAEXAAUUserInfo@1@@Z$5
	DD	0ffffffffH
	DD	FLAT:__unwindfunclet$?SetUserInfoToolInfo@UserInfoToolTip@@IAEXAAUUserInfo@1@@Z$6
	DD	0ffffffffH
	DD	FLAT:__unwindfunclet$?SetUserInfoToolInfo@UserInfoToolTip@@IAEXAAUUserInfo@1@@Z$7
	DD	0ffffffffH
	DD	FLAT:__unwindfunclet$?SetUserInfoToolInfo@UserInfoToolTip@@IAEXAAUUserInfo@1@@Z$8
	DD	07H
	DD	FLAT:__unwindfunclet$?SetUserInfoToolInfo@UserInfoToolTip@@IAEXAAUUserInfo@1@@Z$9
; Function compile flags: /Ogsp
; File d:\lost saga for developer\youtube\tutorial\source\src\lsclient\gui\userinfotooltip.cpp
xdata$x	ENDS
;	COMDAT ?SetUserInfoToolInfo@UserInfoToolTip@@IAEXAAUUserInfo@1@@Z
_TEXT	SEGMENT
_iGrowthCharIconSize$ = -408				; size = 4
_iItemCodeSize$ = -404					; size = 4
tv2060 = -400						; size = 4
$T560701 = -400						; size = 4
_iExtra_Add_Y$ = -396					; size = 4
tv2072 = -392						; size = 4
tv2068 = -392						; size = 4
tv2063 = -392						; size = 4
_vExpandMedalSlotVec$ = -388				; size = 16
_szIcon$546215 = -372					; size = 16
_szIcon$546202 = -372					; size = 16
_szSkillName$546170 = -372				; size = 16
_szPowerUpName$546149 = -372				; size = 16
_szPowerUpName$546138 = -372				; size = 16
_vMedalItemTypeExceptNoneVec$ = -356			; size = 16
tv2056 = -340						; size = 4
tv2052 = -340						; size = 4
$T560705 = -340						; size = 4
_iExpandSlotSize$ = -340				; size = 4
tv2050 = -336						; size = 4
tv2046 = -336						; size = 4
tv2042 = -336						; size = 4
$T560709 = -336						; size = 4
_pImg$546250 = -336					; size = 4
_this$GSCopy$ = -332					; size = 4
tv2005 = -328						; size = 4
_iMedalSize$ = -328					; size = 4
_nCostumeCode$546194 = -328				; size = 4
_bIsCostume$546201 = -324				; size = 1
_pImg$546216 = -324					; size = 4
_iAccessoryCode$546209 = -324				; size = 4
_iGrowthLevelSize$ = -324				; size = 4
tv2064 = -320						; size = 4
_iSlotNum$ = -320					; size = 4
_pItem$546167 = -320					; size = 4
_dwItemCode$546163 = -320				; size = 4
_pImg$546160 = -320					; size = 4
tv1960 = -316						; size = 4
_iCurMedal$ = -316					; size = 4
_pImg$546200 = -316					; size = 4
tv2062 = -312						; size = 4
_i$546240 = -312					; size = 4
_i$546205 = -312					; size = 4
_iReinforce$546161 = -312				; size = 4
_bExpand$546258 = -306					; size = 1
_bAwake$ = -306						; size = 1
_bMedal3$ = -305					; size = 1
_bPowerUp$ = -305					; size = 1
_szAwakeName$546144 = -304				; size = 28
_szAwakeName$546136 = -304				; size = 28
$T560603 = -292						; size = 16
_szClassInfo$ = -276					; size = 260
__$EHRec$ = -12						; size = 12
_rkInfo$ = 8						; size = 4
?SetUserInfoToolInfo@UserInfoToolTip@@IAEXAAUUserInfo@1@@Z PROC ; UserInfoToolTip::SetUserInfoToolInfo, COMDAT
; _this$ = ecx

; 445  : {

  00000	68 8c 01 00 00	 push	 396			; 0000018cH
  00005	b8 00 00 00 00	 mov	 eax, __ehhandler$?SetUserInfoToolInfo@UserInfoToolTip@@IAEXAAUUserInfo@1@@Z
  0000a	e8 00 00 00 00	 call	 __EH_prolog3_GS
  0000f	8b 75 08	 mov	 esi, DWORD PTR _rkInfo$[ebp]
  00012	8b f9		 mov	 edi, ecx

; 446  : 	// title
; 447  : 	m_sName = rkInfo.m_sName;

  00014	8d 46 08	 lea	 eax, DWORD PTR [esi+8]
  00017	50		 push	 eax
  00018	8d 8f 64 01 00
	00		 lea	 ecx, DWORD PTR [edi+356]

; 741  : 				{
; 742  : 					pBtn->ShowWnd();

  0001e	89 bd b4 fe ff
	ff		 mov	 DWORD PTR _this$GSCopy$[ebp], edi
  00024	ff 15 00 00 00
	00		 call	 DWORD PTR __imp_??4ioHashString@@QAEAAV0@ABV0@@Z
  0002a	33 db		 xor	 ebx, ebx
  0002c	68 03 01 00 00	 push	 259			; 00000103H
  00031	8d 85 ed fe ff
	ff		 lea	 eax, DWORD PTR _szClassInfo$[ebp+1]
  00037	53		 push	 ebx
  00038	50		 push	 eax
  00039	88 9d ec fe ff
	ff		 mov	 BYTE PTR _szClassInfo$[ebp], bl
  0003f	e8 00 00 00 00	 call	 _memset
  00044	83 c4 0c	 add	 esp, 12			; 0000000cH
  00047	88 9d ce fe ff
	ff		 mov	 BYTE PTR _bAwake$[ebp], bl
  0004d	88 9d cf fe ff
	ff		 mov	 BYTE PTR _bPowerUp$[ebp], bl
  00053	39 5e 24	 cmp	 DWORD PTR [esi+36], ebx
  00056	74 07		 je	 SHORT $LN75@SetUserInf

; 448  : 
; 449  : 	char szClassInfo[MAX_PATH] = "";
; 450  : 
; 451  : 	bool bAwake = false;		//각성체크
; 452  : 	bool bPowerUp = false;	    //진화체크
; 453  : 	if ( rkInfo.m_iAwakeType != AWAKE_NONE )
; 454  : 		bAwake = true;

  00058	c6 85 ce fe ff
	ff 01		 mov	 BYTE PTR _bAwake$[ebp], 1
$LN75@SetUserInf:

; 455  : 
; 456  : 	if ( rkInfo.m_iPowerUpCharGrade != PUGT_NONE )

  0005f	39 5e 20	 cmp	 DWORD PTR [esi+32], ebx
  00062	74 07		 je	 SHORT $LN74@SetUserInf

; 457  : 		bPowerUp = true;

  00064	c6 85 cf fe ff
	ff 01		 mov	 BYTE PTR _bPowerUp$[ebp], 1
$LN74@SetUserInf:

; 458  : 
; 459  : 	int iExtra_Add_Y = 0;

  0006b	89 9d 74 fe ff
	ff		 mov	 DWORD PTR _iExtra_Add_Y$[ebp], ebx

; 460  : 	
; 461  : 	if ( bAwake || bPowerUp )

  00071	38 9d ce fe ff
	ff		 cmp	 BYTE PTR _bAwake$[ebp], bl
  00077	75 08		 jne	 SHORT $LN72@SetUserInf
  00079	38 9d cf fe ff
	ff		 cmp	 BYTE PTR _bPowerUp$[ebp], bl
  0007f	74 11		 je	 SHORT $LN73@SetUserInf
$LN72@SetUserInf:

; 462  : 	{
; 463  : 		m_bExtraInfo = true;

  00081	c6 87 04 02 00
	00 01		 mov	 BYTE PTR [edi+516], 1

; 464  : 		iExtra_Add_Y = EXTRA_ADD_HEIGHT;

  00088	c7 85 74 fe ff
	ff 10 00 00 00	 mov	 DWORD PTR _iExtra_Add_Y$[ebp], 16 ; 00000010H
$LN73@SetUserInf:

; 465  : 	}
; 466  : 
; 467  : 	if( rkInfo.m_iClassType > 0 )

  00092	39 5e 18	 cmp	 DWORD PTR [esi+24], ebx
  00095	0f 8e d9 01 00
	00		 jle	 $LN71@SetUserInf

; 468  : 	{
; 469  : 		memset( szClassInfo, 0,  sizeof( szClassInfo ) );

  0009b	bf 04 01 00 00	 mov	 edi, 260		; 00000104H
  000a0	57		 push	 edi
  000a1	8d 85 ec fe ff
	ff		 lea	 eax, DWORD PTR _szClassInfo$[ebp]
  000a7	53		 push	 ebx
  000a8	50		 push	 eax
  000a9	e8 00 00 00 00	 call	 _memset
  000ae	83 c4 0c	 add	 esp, 12			; 0000000cH

; 470  : 		StringCbPrintf( szClassInfo, sizeof( szClassInfo ), "LV%d %s", rkInfo.m_iClassLevel, g_MyInfo.GetClassName( rkInfo.m_iClassType ) );

  000b1	53		 push	 ebx
  000b2	ff 76 18	 push	 DWORD PTR [esi+24]
  000b5	e8 00 00 00 00	 call	 ?GetSingleton@ioMyInfo@@SAAAV1@XZ ; ioMyInfo::GetSingleton
  000ba	8b c8		 mov	 ecx, eax
  000bc	e8 00 00 00 00	 call	 ?GetClassNameA@ioMyInfo@@QAEPBDHH@Z ; ioMyInfo::GetClassNameA
  000c1	50		 push	 eax
  000c2	ff 76 1c	 push	 DWORD PTR [esi+28]
  000c5	8d 85 ec fe ff
	ff		 lea	 eax, DWORD PTR _szClassInfo$[ebp]
  000cb	68 00 00 00 00	 push	 OFFSET ??_C@_07FJPGPLB@LV?$CFd?5?$CFs?$AA@
  000d0	57		 push	 edi
  000d1	50		 push	 eax
  000d2	e8 00 00 00 00	 call	 ?StringCbPrintfA@@YAJPADIPBDZZ ; StringCbPrintfA

; 471  : 		m_sClassInfo = szClassInfo;

  000d7	8b 8d b4 fe ff
	ff		 mov	 ecx, DWORD PTR _this$GSCopy$[ebp]
  000dd	83 c4 14	 add	 esp, 20			; 00000014H
  000e0	8d 85 ec fe ff
	ff		 lea	 eax, DWORD PTR _szClassInfo$[ebp]
  000e6	50		 push	 eax
  000e7	81 c1 74 01 00
	00		 add	 ecx, 372		; 00000174H
  000ed	ff 15 00 00 00
	00		 call	 DWORD PTR __imp_??4ioHashString@@QAEAAV0@PBD@Z

; 472  : 
; 473  : 		memset( szClassInfo, 0,  sizeof( szClassInfo ) );

  000f3	57		 push	 edi
  000f4	8d 85 ec fe ff
	ff		 lea	 eax, DWORD PTR _szClassInfo$[ebp]
  000fa	53		 push	 ebx
  000fb	50		 push	 eax
  000fc	e8 00 00 00 00	 call	 _memset
  00101	83 c4 0c	 add	 esp, 12			; 0000000cH

; 474  : 		if ( bAwake && bPowerUp )

  00104	38 9d ce fe ff
	ff		 cmp	 BYTE PTR _bAwake$[ebp], bl
  0010a	0f 84 c1 00 00
	00		 je	 $LN229@SetUserInf

; 475  : 		{
; 476  : 			std::string szAwakeName = g_AwakeMgr.GetAwakeName( (AwakeType)rkInfo.m_iAwakeType );

  00110	ff 76 24	 push	 DWORD PTR [esi+36]
  00113	e8 00 00 00 00	 call	 ?GetSingleton@ioSoldierAwakeManager@@SAAAV1@XZ ; ioSoldierAwakeManager::GetSingleton
  00118	8b c8		 mov	 ecx, eax
  0011a	e8 00 00 00 00	 call	 ?GetAwakeName@ioSoldierAwakeManager@@QBEABV?$basic_string@DU?$char_traits@D@std@@V?$allocator@D@2@@std@@W4AwakeType@@@Z ; ioSoldierAwakeManager::GetAwakeName
  0011f	50		 push	 eax
  00120	8d 8d d0 fe ff
	ff		 lea	 ecx, DWORD PTR _szAwakeName$546136[ebp]
  00126	e8 00 00 00 00	 call	 ??0?$basic_string@DU?$char_traits@D@std@@V?$allocator@D@2@@std@@QAE@ABV01@@Z ; std::basic_string<char,std::char_traits<char>,std::allocator<char> >::basic_string<char,std::char_traits<char>,std::allocator<char> >
  0012b	38 9d cf fe ff
	ff		 cmp	 BYTE PTR _bPowerUp$[ebp], bl
  00131	0f 84 7f 06 00
	00		 je	 $LN228@SetUserInf

; 477  : 			ioHashString szPowerUpName;

  00137	8d 8d 8c fe ff
	ff		 lea	 ecx, DWORD PTR _szPowerUpName$546138[ebp]
  0013d	89 5d fc	 mov	 DWORD PTR __$EHRec$[ebp+8], ebx
  00140	ff 15 00 00 00
	00		 call	 DWORD PTR __imp_??0ioHashString@@QAE@XZ

; 478  : 			szPowerUpName  = g_PowerUpManager.GetCharGradeTitle( rkInfo.m_iClassType, rkInfo.m_iPowerUpCharGrade );

  00146	ff 76 20	 push	 DWORD PTR [esi+32]
  00149	c6 45 fc 01	 mov	 BYTE PTR __$EHRec$[ebp+8], 1
  0014d	ff 76 18	 push	 DWORD PTR [esi+24]
  00150	e8 00 00 00 00	 call	 ?GetSingleton@ioPowerUpManager@@SAAAV1@XZ ; ioPowerUpManager::GetSingleton
  00155	8b c8		 mov	 ecx, eax
  00157	e8 00 00 00 00	 call	 ?GetCharGradeTitle@ioPowerUpManager@@QBEABVioHashString@@HH@Z ; ioPowerUpManager::GetCharGradeTitle
  0015c	50		 push	 eax
  0015d	8d 8d 8c fe ff
	ff		 lea	 ecx, DWORD PTR _szPowerUpName$546138[ebp]
  00163	ff 15 00 00 00
	00		 call	 DWORD PTR __imp_??4ioHashString@@QAEAAV0@ABV0@@Z

; 479  : 			SafeSprintf( szClassInfo, sizeof( szClassInfo ), STR(1), szPowerUpName.c_str(), szAwakeName.c_str() );

  00169	83 bd e4 fe ff
	ff 10		 cmp	 DWORD PTR _szAwakeName$546136[ebp+20], 16 ; 00000010H
  00170	8b 85 d0 fe ff
	ff		 mov	 eax, DWORD PTR _szAwakeName$546136[ebp]
  00176	73 06		 jae	 SHORT $LN93@SetUserInf
  00178	8d 85 d0 fe ff
	ff		 lea	 eax, DWORD PTR _szAwakeName$546136[ebp]
$LN93@SetUserInf:
  0017e	50		 push	 eax
  0017f	8d 8d 8c fe ff
	ff		 lea	 ecx, DWORD PTR _szPowerUpName$546138[ebp]
  00185	ff 15 00 00 00
	00		 call	 DWORD PTR __imp_?c_str@ioHashString@@QBEPBDXZ
  0018b	50		 push	 eax
  0018c	53		 push	 ebx
  0018d	6a 01		 push	 1
  0018f	68 00 00 00 00	 push	 OFFSET ??_C@_00CNPNBAHC@?$AA@
  00194	68 00 00 00 00	 push	 OFFSET ??_C@_0CF@FLOBCBIE@UserInfoToolTip?3?3SetUserInfoTool@
  00199	ff 15 00 00 00
	00		 call	 DWORD PTR __imp_?GetSingleton@ioStringManager@@SAAAV1@XZ
  0019f	8b c8		 mov	 ecx, eax
  001a1	ff 15 00 00 00
	00		 call	 DWORD PTR __imp_?GetString@ioStringManager@@QAEPADPBD0HW4FileNamePrefix@1@@Z
  001a7	50		 push	 eax
  001a8	8d 85 ec fe ff
	ff		 lea	 eax, DWORD PTR _szClassInfo$[ebp]
  001ae	57		 push	 edi
  001af	50		 push	 eax
  001b0	ff 15 00 00 00
	00		 call	 DWORD PTR __imp_?SafeSprintf@@YAXPADHPBD11@Z
  001b6	83 c4 14	 add	 esp, 20			; 00000014H

; 480  : 		}

  001b9	8d 8d 8c fe ff
	ff		 lea	 ecx, DWORD PTR _szPowerUpName$546138[ebp]
  001bf	88 5d fc	 mov	 BYTE PTR __$EHRec$[ebp+8], bl
  001c2	ff 15 00 00 00
	00		 call	 DWORD PTR __imp_??1ioHashString@@QAE@XZ
  001c8	83 4d fc ff	 or	 DWORD PTR __$EHRec$[ebp+8], -1
  001cc	e9 10 06 00 00	 jmp	 $LN243@SetUserInf
$LN229@SetUserInf:

; 481  : 		else if ( bAwake || bPowerUp )

  001d1	38 9d cf fe ff
	ff		 cmp	 BYTE PTR _bPowerUp$[ebp], bl
  001d7	74 7c		 je	 SHORT $LN64@SetUserInf

; 489  : 			else if( bPowerUp )
; 490  : 			{
; 491  : 				ioHashString szPowerUpName;

  001d9	8d 8d 8c fe ff
	ff		 lea	 ecx, DWORD PTR _szPowerUpName$546149[ebp]
  001df	ff 15 00 00 00
	00		 call	 DWORD PTR __imp_??0ioHashString@@QAE@XZ

; 492  : 				szPowerUpName = g_PowerUpManager.GetCharGradeTitle( rkInfo.m_iClassType, rkInfo.m_iPowerUpCharGrade );

  001e5	ff 76 20	 push	 DWORD PTR [esi+32]
  001e8	c7 45 fc 02 00
	00 00		 mov	 DWORD PTR __$EHRec$[ebp+8], 2
  001ef	ff 76 18	 push	 DWORD PTR [esi+24]
  001f2	e8 00 00 00 00	 call	 ?GetSingleton@ioPowerUpManager@@SAAAV1@XZ ; ioPowerUpManager::GetSingleton
  001f7	8b c8		 mov	 ecx, eax
  001f9	e8 00 00 00 00	 call	 ?GetCharGradeTitle@ioPowerUpManager@@QBEABVioHashString@@HH@Z ; ioPowerUpManager::GetCharGradeTitle
  001fe	50		 push	 eax
  001ff	8d 8d 8c fe ff
	ff		 lea	 ecx, DWORD PTR _szPowerUpName$546149[ebp]
  00205	ff 15 00 00 00
	00		 call	 DWORD PTR __imp_??4ioHashString@@QAEAAV0@ABV0@@Z

; 493  : 				SafeSprintf( szClassInfo, sizeof( szClassInfo ), STR(2), szPowerUpName.c_str() );

  0020b	8d 8d 8c fe ff
	ff		 lea	 ecx, DWORD PTR _szPowerUpName$546149[ebp]
  00211	ff 15 00 00 00
	00		 call	 DWORD PTR __imp_?c_str@ioHashString@@QBEPBDXZ
  00217	50		 push	 eax
  00218	53		 push	 ebx
  00219	6a 02		 push	 2
  0021b	68 00 00 00 00	 push	 OFFSET ??_C@_00CNPNBAHC@?$AA@
  00220	68 00 00 00 00	 push	 OFFSET ??_C@_0CF@FLOBCBIE@UserInfoToolTip?3?3SetUserInfoTool@
  00225	ff 15 00 00 00
	00		 call	 DWORD PTR __imp_?GetSingleton@ioStringManager@@SAAAV1@XZ
  0022b	8b c8		 mov	 ecx, eax
  0022d	ff 15 00 00 00
	00		 call	 DWORD PTR __imp_?GetString@ioStringManager@@QAEPADPBD0HW4FileNamePrefix@1@@Z
  00233	50		 push	 eax
  00234	8d 85 ec fe ff
	ff		 lea	 eax, DWORD PTR _szClassInfo$[ebp]
  0023a	57		 push	 edi
  0023b	50		 push	 eax
  0023c	ff 15 00 00 00
	00		 call	 DWORD PTR __imp_?SafeSprintf@@YAXPADHPBD1@Z

; 494  : 			}

  00242	83 4d fc ff	 or	 DWORD PTR __$EHRec$[ebp+8], -1
  00246	83 c4 10	 add	 esp, 16			; 00000010H
  00249	8d 8d 8c fe ff
	ff		 lea	 ecx, DWORD PTR _szPowerUpName$546149[ebp]
  0024f	ff 15 00 00 00
	00		 call	 DWORD PTR __imp_??1ioHashString@@QAE@XZ
$LN64@SetUserInf:

; 495  : 		}
; 496  : 		m_sExtraInfo = szClassInfo;

  00255	8b 8d b4 fe ff
	ff		 mov	 ecx, DWORD PTR _this$GSCopy$[ebp]
  0025b	8d 85 ec fe ff
	ff		 lea	 eax, DWORD PTR _szClassInfo$[ebp]
  00261	50		 push	 eax
  00262	81 c1 84 01 00
	00		 add	 ecx, 388		; 00000184H
  00268	ff 15 00 00 00
	00		 call	 DWORD PTR __imp_??4ioHashString@@QAEAAV0@PBD@Z
  0026e	8b bd b4 fe ff
	ff		 mov	 edi, DWORD PTR _this$GSCopy$[ebp]
$LN71@SetUserInf:

; 497  : 	}
; 498  : 
; 499  : 	// growth
; 500  : 	int iGrowthLevelSize    = rkInfo.m_vGrowthLevelVec.size();

  00274	8b 46 2c	 mov	 eax, DWORD PTR [esi+44]
  00277	2b 46 28	 sub	 eax, DWORD PTR [esi+40]
  0027a	c7 85 c4 fe ff
	ff fc ff ff ff	 mov	 DWORD PTR tv1960[ebp], -4 ; fffffffcH
  00284	c1 f8 02	 sar	 eax, 2
  00287	89 85 bc fe ff
	ff		 mov	 DWORD PTR _iGrowthLevelSize$[ebp], eax

; 501  : 	int iGrowthCharIconSize = m_vGrowthCharIconVec.size();

  0028d	8b 87 98 01 00
	00		 mov	 eax, DWORD PTR [edi+408]
  00293	2b 87 94 01 00
	00		 sub	 eax, DWORD PTR [edi+404]
  00299	c7 85 b8 fe ff
	ff c0 ff ff ff	 mov	 DWORD PTR tv2005[ebp], -64 ; ffffffc0H
  002a3	c1 f8 04	 sar	 eax, 4
  002a6	89 85 68 fe ff
	ff		 mov	 DWORD PTR _iGrowthCharIconSize$[ebp], eax

; 502  : 	int iItemCodeSize       = rkInfo.m_vItemCodeVec.size();

  002ac	8b 46 5c	 mov	 eax, DWORD PTR [esi+92]
  002af	2b 46 58	 sub	 eax, DWORD PTR [esi+88]
  002b2	c1 f8 02	 sar	 eax, 2
  002b5	89 85 6c fe ff
	ff		 mov	 DWORD PTR _iItemCodeSize$[ebp], eax
$LL63@SetUserInf:

; 505  : 	{
; 506  : 		SlotIconBtn *pBtn = dynamic_cast<SlotIconBtn*> ( FindChildWnd( ID_GROWTH_1_BTN + i ) );

  002bb	8b 85 c4 fe ff
	ff		 mov	 eax, DWORD PTR tv1960[ebp]
  002c1	8b 8d b4 fe ff
	ff		 mov	 ecx, DWORD PTR _this$GSCopy$[ebp]
  002c7	53		 push	 ebx
  002c8	68 00 00 00 00	 push	 OFFSET ??_R0?AVSlotIconBtn@@@8
  002cd	68 00 00 00 00	 push	 OFFSET ??_R0?AVioWnd@@@8
  002d2	53		 push	 ebx
  002d3	83 c0 05	 add	 eax, 5
  002d6	50		 push	 eax
  002d7	ff 15 00 00 00
	00		 call	 DWORD PTR __imp_?FindChildWnd@ioWnd@@QAEPAV1@K@Z
  002dd	50		 push	 eax
  002de	e8 00 00 00 00	 call	 ___RTDynamicCast
  002e3	8b f8		 mov	 edi, eax
  002e5	83 c4 14	 add	 esp, 20			; 00000014H

; 507  : 		if( !pBtn )

  002e8	3b fb		 cmp	 edi, ebx
  002ea	74 7e		 je	 SHORT $LN62@SetUserInf

; 508  : 			continue;
; 509  : 
; 510  : 		ioUIRenderImage *pImg = NULL;
; 511  : 		int iReinforce = 0;
; 512  : 
; 513  : 		if( i < MAX_ITEM_GROWTH )

  002ec	8b 8d c4 fe ff
	ff		 mov	 ecx, DWORD PTR tv1960[ebp]
  002f2	8d 41 04	 lea	 eax, DWORD PTR [ecx+4]
  002f5	89 9d c0 fe ff
	ff		 mov	 DWORD PTR _pImg$546160[ebp], ebx
  002fb	89 9d c8 fe ff
	ff		 mov	 DWORD PTR _iReinforce$546161[ebp], ebx
  00301	83 f8 04	 cmp	 eax, 4
  00304	0f 8d 24 06 00
	00		 jge	 $LN59@SetUserInf

; 514  : 		{
; 515  : 			DWORD dwItemCode = 0;

  0030a	89 9d c0 fe ff
	ff		 mov	 DWORD PTR _dwItemCode$546163[ebp], ebx

; 516  : 			if( COMPARE( i, 0, iItemCodeSize ) )

  00310	3b c3		 cmp	 eax, ebx
  00312	7c 15		 jl	 SHORT $LN58@SetUserInf
  00314	3b 85 6c fe ff
	ff		 cmp	 eax, DWORD PTR _iItemCodeSize$[ebp]
  0031a	7d 0d		 jge	 SHORT $LN58@SetUserInf

; 517  : 				dwItemCode = rkInfo.m_vItemCodeVec[i];

  0031c	8b 46 58	 mov	 eax, DWORD PTR [esi+88]
  0031f	8b 44 88 10	 mov	 eax, DWORD PTR [eax+ecx*4+16]
  00323	89 85 c0 fe ff
	ff		 mov	 DWORD PTR _dwItemCode$546163[ebp], eax
$LN58@SetUserInf:

; 518  : 
; 519  : 			if( rkInfo.m_iClassType <= 0 )

  00329	39 5e 18	 cmp	 DWORD PTR [esi+24], ebx
  0032c	0f 8f c2 04 00
	00		 jg	 $LN57@SetUserInf
$LN244@SetUserInf:

; 520  : 			{
; 521  : 				pBtn->ShowWnd();

  00332	8b cf		 mov	 ecx, edi
  00334	ff 15 00 00 00
	00		 call	 DWORD PTR __imp_?ShowWnd@ioWnd@@QAEXXZ

; 522  : 				pBtn->SetIcon( NULL, USERINFO_TOOLTIP_NONE_ITEM_SCALE, USERINFO_TOOLTIP_NONE_ITEM_SCALE, USERINFO_TOOLTIP_NONE_ITEM_SCALE, 0 );

  0033a	f3 0f 10 05 00
	00 00 00	 movss	 xmm0, DWORD PTR __real@3f147ae1
  00342	53		 push	 ebx
  00343	53		 push	 ebx
  00344	53		 push	 ebx
  00345	53		 push	 ebx
  00346	53		 push	 ebx
  00347	83 ec 0c	 sub	 esp, 12			; 0000000cH
  0034a	f3 0f 11 44 24
	08		 movss	 DWORD PTR [esp+8], xmm0
  00350	f3 0f 11 44 24
	04		 movss	 DWORD PTR [esp+4], xmm0
  00356	f3 0f 11 04 24	 movss	 DWORD PTR [esp], xmm0
  0035b	53		 push	 ebx
  0035c	8b cf		 mov	 ecx, edi
  0035e	e8 00 00 00 00	 call	 ?SetIcon@SlotIconBtn@@QAE_NPAVioUIRenderImage@@MMMHHKK_N@Z ; SlotIconBtn::SetIcon
$LN49@SetUserInf:

; 575  : 			pBtn->SetActive();

  00363	8b 07		 mov	 eax, DWORD PTR [edi]
  00365	8b cf		 mov	 ecx, edi
  00367	ff 50 20	 call	 DWORD PTR [eax+32]
$LN62@SetUserInf:

; 503  : 
; 504  : 	for (int i = 0; i < MAX_GROWTH ; i++)

  0036a	ff 85 c4 fe ff
	ff		 inc	 DWORD PTR tv1960[ebp]
  00370	8b 85 c4 fe ff
	ff		 mov	 eax, DWORD PTR tv1960[ebp]
  00376	83 85 b8 fe ff
	ff 10		 add	 DWORD PTR tv2005[ebp], 16 ; 00000010H
  0037d	83 c0 04	 add	 eax, 4
  00380	83 f8 08	 cmp	 eax, 8
  00383	0f 8c 32 ff ff
	ff		 jl	 $LL63@SetUserInf

; 576  : 	}
; 577  : 
; 578  : 	// UI코스튬 관련(캐릭터 툴팁 - 1부터 시작)
; 579  : 	for ( int i=1; i<MAX_COSTUME; i++ )

  00389	c7 85 c8 fe ff
	ff ca 00 00 00	 mov	 DWORD PTR tv2062[ebp], 202 ; 000000caH
  00393	c7 85 c0 fe ff
	ff 04 00 00 00	 mov	 DWORD PTR tv2064[ebp], 4
$LN47@SetUserInf:

; 580  : 	{
; 581  : 		int nCostumeCode = 0;
; 582  : 		if( COMPARE( i, 0, MAX_INVENTORY ) && (int)rkInfo.m_vCostumeCodeVec.size() >= MAX_INVENTORY )

  0039d	8b 85 c8 fe ff
	ff		 mov	 eax, DWORD PTR tv2062[ebp]
  003a3	05 37 ff ff ff	 add	 eax, -201		; ffffff37H
  003a8	89 9d b8 fe ff
	ff		 mov	 DWORD PTR _nCostumeCode$546194[ebp], ebx
  003ae	83 f8 03	 cmp	 eax, 3
  003b1	77 1f		 ja	 SHORT $LN44@SetUserInf
  003b3	8b 46 68	 mov	 eax, DWORD PTR [esi+104]
  003b6	8b 4e 6c	 mov	 ecx, DWORD PTR [esi+108]
  003b9	2b c8		 sub	 ecx, eax
  003bb	83 e1 fc	 and	 ecx, -4			; fffffffcH
  003be	83 f9 10	 cmp	 ecx, 16			; 00000010H
  003c1	7c 0f		 jl	 SHORT $LN44@SetUserInf

; 583  : 			nCostumeCode = rkInfo.m_vCostumeCodeVec[i];

  003c3	8b 8d c0 fe ff
	ff		 mov	 ecx, DWORD PTR tv2064[ebp]
  003c9	8b 04 08	 mov	 eax, DWORD PTR [eax+ecx]
  003cc	89 85 b8 fe ff
	ff		 mov	 DWORD PTR _nCostumeCode$546194[ebp], eax
$LN44@SetUserInf:

; 584  : 
; 585  : 		SlotIconBtn *pBtn = dynamic_cast<SlotIconBtn*> ( FindChildWnd( ID_COSTUME_1_BTN + i ) );

  003d2	8b 8d b4 fe ff
	ff		 mov	 ecx, DWORD PTR _this$GSCopy$[ebp]
  003d8	53		 push	 ebx
  003d9	68 00 00 00 00	 push	 OFFSET ??_R0?AVSlotIconBtn@@@8
  003de	68 00 00 00 00	 push	 OFFSET ??_R0?AVioWnd@@@8
  003e3	53		 push	 ebx
  003e4	ff b5 c8 fe ff
	ff		 push	 DWORD PTR tv2062[ebp]
  003ea	ff 15 00 00 00
	00		 call	 DWORD PTR __imp_?FindChildWnd@ioWnd@@QAEPAV1@K@Z
  003f0	50		 push	 eax
  003f1	e8 00 00 00 00	 call	 ___RTDynamicCast
  003f6	8b f8		 mov	 edi, eax
  003f8	83 c4 14	 add	 esp, 20			; 00000014H

; 586  : 		if( !pBtn )

  003fb	3b fb		 cmp	 edi, ebx
  003fd	0f 84 d9 00 00
	00		 je	 $LN46@SetUserInf

; 587  : 			continue;
; 588  : 
; 589  : 		ioUIRenderImage *pImg = NULL;
; 590  : 		bool bIsCostume = false;
; 591  : 		ioHashString szIcon = g_CostumeInfoMgr.GetCostumeIcon( nCostumeCode );

  00403	ff b5 b8 fe ff
	ff		 push	 DWORD PTR _nCostumeCode$546194[ebp]
  00409	8d 85 8c fe ff
	ff		 lea	 eax, DWORD PTR _szIcon$546202[ebp]
  0040f	50		 push	 eax
  00410	89 9d c4 fe ff
	ff		 mov	 DWORD PTR _pImg$546200[ebp], ebx
  00416	88 9d bc fe ff
	ff		 mov	 BYTE PTR _bIsCostume$546201[ebp], bl
  0041c	e8 00 00 00 00	 call	 ?GetSingleton@ioCostumeInfoManager@@SAAAV1@XZ ; ioCostumeInfoManager::GetSingleton
  00421	8b c8		 mov	 ecx, eax
  00423	e8 00 00 00 00	 call	 ?GetCostumeIcon@ioCostumeInfoManager@@QAE?AVioHashString@@H@Z ; ioCostumeInfoManager::GetCostumeIcon

; 592  : 		if( !szIcon.IsEmpty() )

  00428	8d 8d 8c fe ff
	ff		 lea	 ecx, DWORD PTR _szIcon$546202[ebp]
  0042e	c7 45 fc 05 00
	00 00		 mov	 DWORD PTR __$EHRec$[ebp+8], 5
  00435	ff 15 00 00 00
	00		 call	 DWORD PTR __imp_?IsEmpty@ioHashString@@QBE_NXZ
  0043b	84 c0		 test	 al, al
  0043d	75 23		 jne	 SHORT $LN42@SetUserInf

; 593  : 		{
; 594  : 			pImg = g_UIImageSetMgr.CreateImageByFullName( szIcon );

  0043f	8d 85 8c fe ff
	ff		 lea	 eax, DWORD PTR _szIcon$546202[ebp]
  00445	53		 push	 ebx
  00446	50		 push	 eax
  00447	ff 15 00 00 00
	00		 call	 DWORD PTR __imp_?GetSingleton@ioUIImageSetManager@@SAAAV1@XZ
  0044d	8b c8		 mov	 ecx, eax
  0044f	ff 15 00 00 00
	00		 call	 DWORD PTR __imp_?CreateImageByFullName@ioUIImageSetManager@@QAEPAVioUIRenderImage@@ABVioHashString@@_N@Z
  00455	89 85 c4 fe ff
	ff		 mov	 DWORD PTR _pImg$546200[ebp], eax

; 595  : 			bIsCostume = true;

  0045b	c6 85 bc fe ff
	ff 01		 mov	 BYTE PTR _bIsCostume$546201[ebp], 1
$LN42@SetUserInf:

; 596  : 		}
; 597  : 
; 598  : 		pBtn->ShowWnd();

  00462	8b cf		 mov	 ecx, edi
  00464	ff 15 00 00 00
	00		 call	 DWORD PTR __imp_?ShowWnd@ioWnd@@QAEXXZ

; 599  : 		pBtn->SetIcon( pImg, USERINFO_TOOLTIP_COSTUME_SCALE, USERINFO_TOOLTIP_COSTUME_EMPTY_SCALE, USERINFO_TOOLTIP_COSTUME_DISABLE_SCALE, 0, 0, 0, 0, bIsCostume );

  0046a	ff b5 bc fe ff
	ff		 push	 DWORD PTR _bIsCostume$546201[ebp]
  00470	f3 0f 10 05 00
	00 00 00	 movss	 xmm0, DWORD PTR __real@3f2e147b
  00478	53		 push	 ebx
  00479	53		 push	 ebx
  0047a	53		 push	 ebx
  0047b	53		 push	 ebx
  0047c	83 ec 0c	 sub	 esp, 12			; 0000000cH
  0047f	f3 0f 11 44 24
	08		 movss	 DWORD PTR [esp+8], xmm0
  00485	f3 0f 10 05 00
	00 00 00	 movss	 xmm0, DWORD PTR __real@3f400000
  0048d	f3 0f 11 44 24
	04		 movss	 DWORD PTR [esp+4], xmm0
  00493	f3 0f 10 05 00
	00 00 00	 movss	 xmm0, DWORD PTR __real@3f266666
  0049b	f3 0f 11 04 24	 movss	 DWORD PTR [esp], xmm0
  004a0	ff b5 c4 fe ff
	ff		 push	 DWORD PTR _pImg$546200[ebp]
  004a6	8b cf		 mov	 ecx, edi
  004a8	e8 00 00 00 00	 call	 ?SetIcon@SlotIconBtn@@QAE_NPAVioUIRenderImage@@MMMHHKK_N@Z ; SlotIconBtn::SetIcon

; 600  : 		pBtn->SetGradeType( g_CostumeInfoMgr.GetGradeType( nCostumeCode ) );

  004ad	ff b5 b8 fe ff
	ff		 push	 DWORD PTR _nCostumeCode$546194[ebp]
  004b3	e8 00 00 00 00	 call	 ?GetSingleton@ioCostumeInfoManager@@SAAAV1@XZ ; ioCostumeInfoManager::GetSingleton
  004b8	8b c8		 mov	 ecx, eax
  004ba	e8 00 00 00 00	 call	 ?GetGradeType@ioCostumeInfoManager@@QAEHH@Z ; ioCostumeInfoManager::GetGradeType
  004bf	89 87 54 02 00
	00		 mov	 DWORD PTR [edi+596], eax

; 601  : 		pBtn->SetActive();     

  004c5	8b 07		 mov	 eax, DWORD PTR [edi]
  004c7	8b cf		 mov	 ecx, edi
  004c9	ff 50 20	 call	 DWORD PTR [eax+32]

; 602  : 	}

  004cc	83 4d fc ff	 or	 DWORD PTR __$EHRec$[ebp+8], -1
  004d0	8d 8d 8c fe ff
	ff		 lea	 ecx, DWORD PTR _szIcon$546202[ebp]
  004d6	ff 15 00 00 00
	00		 call	 DWORD PTR __imp_??1ioHashString@@QAE@XZ
$LN46@SetUserInf:

; 576  : 	}
; 577  : 
; 578  : 	// UI코스튬 관련(캐릭터 툴팁 - 1부터 시작)
; 579  : 	for ( int i=1; i<MAX_COSTUME; i++ )

  004dc	83 85 c0 fe ff
	ff 04		 add	 DWORD PTR tv2064[ebp], 4
  004e3	ff 85 c8 fe ff
	ff		 inc	 DWORD PTR tv2062[ebp]
  004e9	8b 85 c8 fe ff
	ff		 mov	 eax, DWORD PTR tv2062[ebp]
  004ef	05 37 ff ff ff	 add	 eax, -201		; ffffff37H
  004f4	83 f8 04	 cmp	 eax, 4
  004f7	0f 8c a0 fe ff
	ff		 jl	 $LN47@SetUserInf

; 603  : 
; 604  : 	// Accessory
; 605  : 	for ( int i=0; i<MAX_ACC_INVENTORY; i++ )

  004fd	89 9d c8 fe ff
	ff		 mov	 DWORD PTR _i$546205[ebp], ebx
$LL41@SetUserInf:

; 606  : 	{
; 607  : 		int iAccessoryCode = 0;
; 608  : 		if( (int)rkInfo.m_vAccessoryCodeVec.size() >= MAX_ACC_INVENTORY )

  00503	8b 46 78	 mov	 eax, DWORD PTR [esi+120]
  00506	8b 4e 7c	 mov	 ecx, DWORD PTR [esi+124]
  00509	2b c8		 sub	 ecx, eax
  0050b	83 e1 fc	 and	 ecx, -4			; fffffffcH
  0050e	89 9d bc fe ff
	ff		 mov	 DWORD PTR _iAccessoryCode$546209[ebp], ebx
  00514	83 f9 0c	 cmp	 ecx, 12			; 0000000cH
  00517	7c 0f		 jl	 SHORT $LN38@SetUserInf

; 609  : 			iAccessoryCode = rkInfo.m_vAccessoryCodeVec[i];

  00519	8b 8d c8 fe ff
	ff		 mov	 ecx, DWORD PTR _i$546205[ebp]
  0051f	8b 04 88	 mov	 eax, DWORD PTR [eax+ecx*4]
  00522	89 85 bc fe ff
	ff		 mov	 DWORD PTR _iAccessoryCode$546209[ebp], eax
$LN38@SetUserInf:

; 610  : 		SlotIconBtn *pBtn = dynamic_cast<SlotIconBtn*> ( FindChildWnd( ID_ACCESSORY_1_BTN + i ) );

  00528	8b 85 c8 fe ff
	ff		 mov	 eax, DWORD PTR _i$546205[ebp]
  0052e	8b 8d b4 fe ff
	ff		 mov	 ecx, DWORD PTR _this$GSCopy$[ebp]
  00534	53		 push	 ebx
  00535	68 00 00 00 00	 push	 OFFSET ??_R0?AVSlotIconBtn@@@8
  0053a	68 00 00 00 00	 push	 OFFSET ??_R0?AVioWnd@@@8
  0053f	53		 push	 ebx
  00540	05 2d 01 00 00	 add	 eax, 301		; 0000012dH
  00545	50		 push	 eax
  00546	ff 15 00 00 00
	00		 call	 DWORD PTR __imp_?FindChildWnd@ioWnd@@QAEPAV1@K@Z
  0054c	50		 push	 eax
  0054d	e8 00 00 00 00	 call	 ___RTDynamicCast
  00552	8b f8		 mov	 edi, eax
  00554	83 c4 14	 add	 esp, 20			; 00000014H

; 611  : 		if( !pBtn )

  00557	3b fb		 cmp	 edi, ebx
  00559	0f 84 b6 00 00
	00		 je	 $LN40@SetUserInf

; 612  : 			continue;
; 613  : 		ioHashString szIcon = g_ItemMaker.GetItemLargeIcon( iAccessoryCode, 0 );

  0055f	53		 push	 ebx
  00560	ff b5 bc fe ff
	ff		 push	 DWORD PTR _iAccessoryCode$546209[ebp]
  00566	e8 00 00 00 00	 call	 ?GetSingleton@ioItemMaker@@SAAAV1@XZ ; ioItemMaker::GetSingleton
  0056b	8b c8		 mov	 ecx, eax
  0056d	e8 00 00 00 00	 call	 ?GetItemLargeIcon@ioItemMaker@@QBEABVioHashString@@KK@Z ; ioItemMaker::GetItemLargeIcon
  00572	50		 push	 eax
  00573	8d 8d 8c fe ff
	ff		 lea	 ecx, DWORD PTR _szIcon$546215[ebp]
  00579	ff 15 00 00 00
	00		 call	 DWORD PTR __imp_??0ioHashString@@QAE@ABV0@@Z

; 614  : 		ioUIRenderImage *pImg = NULL;
; 615  : 		if( !szIcon.IsEmpty() )

  0057f	8d 8d 8c fe ff
	ff		 lea	 ecx, DWORD PTR _szIcon$546215[ebp]
  00585	c7 45 fc 06 00
	00 00		 mov	 DWORD PTR __$EHRec$[ebp+8], 6
  0058c	89 9d bc fe ff
	ff		 mov	 DWORD PTR _pImg$546216[ebp], ebx
  00592	ff 15 00 00 00
	00		 call	 DWORD PTR __imp_?IsEmpty@ioHashString@@QBE_NXZ
  00598	84 c0		 test	 al, al
  0059a	75 1c		 jne	 SHORT $LN36@SetUserInf

; 616  : 			pImg = g_UIImageSetMgr.CreateImageByFullName( szIcon );

  0059c	8d 85 8c fe ff
	ff		 lea	 eax, DWORD PTR _szIcon$546215[ebp]
  005a2	53		 push	 ebx
  005a3	50		 push	 eax
  005a4	ff 15 00 00 00
	00		 call	 DWORD PTR __imp_?GetSingleton@ioUIImageSetManager@@SAAAV1@XZ
  005aa	8b c8		 mov	 ecx, eax
  005ac	ff 15 00 00 00
	00		 call	 DWORD PTR __imp_?CreateImageByFullName@ioUIImageSetManager@@QAEPAVioUIRenderImage@@ABVioHashString@@_N@Z
  005b2	89 85 bc fe ff
	ff		 mov	 DWORD PTR _pImg$546216[ebp], eax
$LN36@SetUserInf:

; 617  : 		
; 618  : 		pBtn->ShowWnd();

  005b8	8b cf		 mov	 ecx, edi
  005ba	ff 15 00 00 00
	00		 call	 DWORD PTR __imp_?ShowWnd@ioWnd@@QAEXXZ

; 619  : 		pBtn->SetIcon( pImg, USERINFO_TOOLTIP_ACCESSORY_SCALE, USERINFO_TOOLTIP_ACCESSORY_EMPTY_SCALE, USERINFO_TOOLTIP_ACCESSORY_DISABLE_SCALE, 0 );

  005c0	f3 0f 10 05 00
	00 00 00	 movss	 xmm0, DWORD PTR __real@3f2e147b
  005c8	53		 push	 ebx
  005c9	53		 push	 ebx
  005ca	53		 push	 ebx
  005cb	53		 push	 ebx
  005cc	53		 push	 ebx
  005cd	83 ec 0c	 sub	 esp, 12			; 0000000cH
  005d0	f3 0f 11 44 24
	08		 movss	 DWORD PTR [esp+8], xmm0
  005d6	f3 0f 10 05 00
	00 00 00	 movss	 xmm0, DWORD PTR __real@3f400000
  005de	f3 0f 11 44 24
	04		 movss	 DWORD PTR [esp+4], xmm0
  005e4	f3 0f 10 05 00
	00 00 00	 movss	 xmm0, DWORD PTR __real@3f266666
  005ec	f3 0f 11 04 24	 movss	 DWORD PTR [esp], xmm0
  005f1	ff b5 bc fe ff
	ff		 push	 DWORD PTR _pImg$546216[ebp]
  005f7	8b cf		 mov	 ecx, edi
  005f9	e8 00 00 00 00	 call	 ?SetIcon@SlotIconBtn@@QAE_NPAVioUIRenderImage@@MMMHHKK_N@Z ; SlotIconBtn::SetIcon

; 620  : 		pBtn->SetActive();

  005fe	8b 07		 mov	 eax, DWORD PTR [edi]
  00600	8b cf		 mov	 ecx, edi
  00602	ff 50 20	 call	 DWORD PTR [eax+32]

; 621  : 	}

  00605	83 4d fc ff	 or	 DWORD PTR __$EHRec$[ebp+8], -1
  00609	8d 8d 8c fe ff
	ff		 lea	 ecx, DWORD PTR _szIcon$546215[ebp]
  0060f	ff 15 00 00 00
	00		 call	 DWORD PTR __imp_??1ioHashString@@QAE@XZ
$LN40@SetUserInf:

; 603  : 
; 604  : 	// Accessory
; 605  : 	for ( int i=0; i<MAX_ACC_INVENTORY; i++ )

  00615	ff 85 c8 fe ff
	ff		 inc	 DWORD PTR _i$546205[ebp]
  0061b	83 bd c8 fe ff
	ff 03		 cmp	 DWORD PTR _i$546205[ebp], 3
  00622	0f 8c db fe ff
	ff		 jl	 $LL41@SetUserInf

; 622  : 
; 623  : 	// medal
; 624  : 	IntVec vMedalItemTypeExceptNoneVec;

  00628	33 c0		 xor	 eax, eax
  0062a	89 9d 9c fe ff
	ff		 mov	 DWORD PTR _vMedalItemTypeExceptNoneVec$[ebp], ebx
  00630	89 85 a0 fe ff
	ff		 mov	 DWORD PTR _vMedalItemTypeExceptNoneVec$[ebp+4], eax
  00636	89 9d a4 fe ff
	ff		 mov	 DWORD PTR _vMedalItemTypeExceptNoneVec$[ebp+8], ebx

; 625  : 	for(IntVec::iterator iter = rkInfo.m_vMedalItemTypeVec.begin(); iter != rkInfo.m_vMedalItemTypeVec.end(); ++iter)

  0063c	8b 7e 38	 mov	 edi, DWORD PTR [esi+56]
  0063f	c7 45 fc 07 00
	00 00		 mov	 DWORD PTR __$EHRec$[ebp+8], 7
  00646	3b 7e 3c	 cmp	 edi, DWORD PTR [esi+60]
  00649	74 1e		 je	 SHORT $LN33@SetUserInf
$LL166@SetUserInf:

; 626  : 	{
; 627  : 		int &riType = (*iter);
; 628  : 		if( riType == 0 )

  0064b	39 1f		 cmp	 DWORD PTR [edi], ebx
  0064d	74 0c		 je	 SHORT $LN34@SetUserInf

; 629  : 			continue;
; 630  : 
; 631  : 		vMedalItemTypeExceptNoneVec.push_back( riType );

  0064f	57		 push	 edi
  00650	8d 8d 9c fe ff
	ff		 lea	 ecx, DWORD PTR _vMedalItemTypeExceptNoneVec$[ebp]
  00656	e8 00 00 00 00	 call	 ?push_back@?$vector@HV?$allocator@H@std@@@std@@QAEXABH@Z ; std::vector<int,std::allocator<int> >::push_back
$LN34@SetUserInf:

; 625  : 	for(IntVec::iterator iter = rkInfo.m_vMedalItemTypeVec.begin(); iter != rkInfo.m_vMedalItemTypeVec.end(); ++iter)

  0065b	83 c7 04	 add	 edi, 4
  0065e	3b 7e 3c	 cmp	 edi, DWORD PTR [esi+60]
  00661	75 e8		 jne	 SHORT $LL166@SetUserInf
  00663	8b 85 a0 fe ff
	ff		 mov	 eax, DWORD PTR _vMedalItemTypeExceptNoneVec$[ebp+4]
$LN33@SetUserInf:

; 632  : 	}
; 633  : 
; 634  : 	int iMedalSize = vMedalItemTypeExceptNoneVec.size();

  00669	2b 85 9c fe ff
	ff		 sub	 eax, DWORD PTR _vMedalItemTypeExceptNoneVec$[ebp]

; 635  : 	int iSlotNum   = g_MedalItemMgr.GetSlotNum( rkInfo.m_iClassLevel );

  0066f	ff 76 1c	 push	 DWORD PTR [esi+28]
  00672	c1 f8 02	 sar	 eax, 2
  00675	89 85 b8 fe ff
	ff		 mov	 DWORD PTR _iMedalSize$[ebp], eax
  0067b	e8 00 00 00 00	 call	 ?GetSingleton@ioMedalItemInfoManager@@SAAAV1@XZ ; ioMedalItemInfoManager::GetSingleton
  00680	8b c8		 mov	 ecx, eax
  00682	e8 00 00 00 00	 call	 ?GetSlotNum@ioMedalItemInfoManager@@QAEHH@Z ; ioMedalItemInfoManager::GetSlotNum

; 636  : 	int iHalfMedalSize = MAX_MEDAL/2; 
; 637  : 	bool bMedal3 = false;
; 638  : 	if( iMedalSize <= iHalfMedalSize )

  00687	83 bd b8 fe ff
	ff 03		 cmp	 DWORD PTR _iMedalSize$[ebp], 3
  0068e	89 85 c0 fe ff
	ff		 mov	 DWORD PTR _iSlotNum$[ebp], eax
  00694	88 9d cf fe ff
	ff		 mov	 BYTE PTR _bMedal3$[ebp], bl
  0069a	7f 07		 jg	 SHORT $LN31@SetUserInf

; 639  : 		bMedal3 = true;

  0069c	c6 85 cf fe ff
	ff 01		 mov	 BYTE PTR _bMedal3$[ebp], 1
$LN31@SetUserInf:

; 640  : 
; 641  : 	ioExpandMedalSlotManager::ExpandMedalSlotVec vExpandMedalSlotVec;

  006a3	89 9d 7c fe ff
	ff		 mov	 DWORD PTR _vExpandMedalSlotVec$[ebp], ebx
  006a9	89 9d 80 fe ff
	ff		 mov	 DWORD PTR _vExpandMedalSlotVec$[ebp+4], ebx
  006af	89 9d 84 fe ff
	ff		 mov	 DWORD PTR _vExpandMedalSlotVec$[ebp+8], ebx

; 642  : 	int iExpandSlotSize = rkInfo.m_vExMedalSlotVec.size();

  006b5	8b 4e 48	 mov	 ecx, DWORD PTR [esi+72]
  006b8	8b 46 4c	 mov	 eax, DWORD PTR [esi+76]
  006bb	2b c1		 sub	 eax, ecx
  006bd	c1 f8 02	 sar	 eax, 2
  006c0	c6 45 fc 08	 mov	 BYTE PTR __$EHRec$[ebp+8], 8
  006c4	89 85 ac fe ff
	ff		 mov	 DWORD PTR _iExpandSlotSize$[ebp], eax

; 643  : 	for( int i=0; i<iExpandSlotSize; ++i )

  006ca	3b c3		 cmp	 eax, ebx
  006cc	7e 11		 jle	 SHORT $LN28@SetUserInf
$LL30@SetUserInf:

; 644  : 	{
; 645  : 		if( rkInfo.m_vExMedalSlotVec[i] >= iHalfMedalSize )

  006ce	83 39 03	 cmp	 DWORD PTR [ecx], 3
  006d1	7c 06		 jl	 SHORT $LN29@SetUserInf

; 646  : 			bMedal3 = false;

  006d3	88 9d cf fe ff
	ff		 mov	 BYTE PTR _bMedal3$[ebp], bl
$LN29@SetUserInf:

; 643  : 	for( int i=0; i<iExpandSlotSize; ++i )

  006d9	83 c1 04	 add	 ecx, 4
  006dc	48		 dec	 eax
  006dd	75 ef		 jne	 SHORT $LL30@SetUserInf
$LN28@SetUserInf:

; 647  : 	}
; 648  : 
; 649  : 	int iCurMedal = 0;

  006df	89 9d c4 fe ff
	ff		 mov	 DWORD PTR _iCurMedal$[ebp], ebx

; 650  : 	for (int i = 0; i < MAX_MEDAL ; i++)

  006e5	89 9d c8 fe ff
	ff		 mov	 DWORD PTR _i$546240[ebp], ebx
$LL26@SetUserInf:

; 651  : 	{
; 652  : 		SlotIconBtn *pBtn = dynamic_cast<SlotIconBtn*> ( FindChildWnd( ID_MADAL_1_BTN + i ) );

  006eb	8b 85 c8 fe ff
	ff		 mov	 eax, DWORD PTR _i$546240[ebp]
  006f1	8b 8d b4 fe ff
	ff		 mov	 ecx, DWORD PTR _this$GSCopy$[ebp]
  006f7	53		 push	 ebx
  006f8	68 00 00 00 00	 push	 OFFSET ??_R0?AVSlotIconBtn@@@8
  006fd	68 00 00 00 00	 push	 OFFSET ??_R0?AVioWnd@@@8
  00702	53		 push	 ebx
  00703	83 c0 65	 add	 eax, 101		; 00000065H
  00706	50		 push	 eax
  00707	ff 15 00 00 00
	00		 call	 DWORD PTR __imp_?FindChildWnd@ioWnd@@QAEPAV1@K@Z
  0070d	50		 push	 eax
  0070e	e8 00 00 00 00	 call	 ___RTDynamicCast
  00713	8b f8		 mov	 edi, eax
  00715	83 c4 14	 add	 esp, 20			; 00000014H

; 653  : 		if( !pBtn )

  00718	3b fb		 cmp	 edi, ebx
  0071a	0f 84 06 05 00
	00		 je	 $LN25@SetUserInf

; 654  : 			continue;
; 655  : 
; 656  : 		if( i < iMedalSize && i < iSlotNum )

  00720	8b 95 c8 fe ff
	ff		 mov	 edx, DWORD PTR _i$546240[ebp]
  00726	3b 95 b8 fe ff
	ff		 cmp	 edx, DWORD PTR _iMedalSize$[ebp]
  0072c	0f 8d d0 03 00
	00		 jge	 $LN22@SetUserInf
  00732	3b 95 c0 fe ff
	ff		 cmp	 edx, DWORD PTR _iSlotNum$[ebp]
  00738	0f 8d c4 03 00
	00		 jge	 $LN22@SetUserInf
$LN251@SetUserInf:

; 650  : 	for (int i = 0; i < MAX_MEDAL ; i++)

  0073e	8b 8d c4 fe ff
	ff		 mov	 ecx, DWORD PTR _iCurMedal$[ebp]
  00744	8b 85 9c fe ff
	ff		 mov	 eax, DWORD PTR _vMedalItemTypeExceptNoneVec$[ebp]
  0074a	8d 04 88	 lea	 eax, DWORD PTR [eax+ecx*4]

; 657  : 		{
; 658  : 			const ioMedalItemInfoManager::ItemInfo *pItemInfo = g_MedalItemMgr.GetItemInfo( vMedalItemTypeExceptNoneVec[iCurMedal] );

  0074d	ff 30		 push	 DWORD PTR [eax]
  0074f	e8 00 00 00 00	 call	 ?GetSingleton@ioMedalItemInfoManager@@SAAAV1@XZ ; ioMedalItemInfoManager::GetSingleton
  00754	8b c8		 mov	 ecx, eax
  00756	e8 00 00 00 00	 call	 ?GetItemInfo@ioMedalItemInfoManager@@QAEPBUItemInfo@1@H@Z ; ioMedalItemInfoManager::GetItemInfo

; 659  : 			iCurMedal++;

  0075b	ff 85 c4 fe ff
	ff		 inc	 DWORD PTR _iCurMedal$[ebp]

; 660  : 			if( !pItemInfo )

  00761	3b c3		 cmp	 eax, ebx
  00763	0f 85 3a 03 00
	00		 jne	 $LN21@SetUserInf
$LN245@SetUserInf:

; 661  : 			{
; 662  : 				pBtn->ShowWnd();

  00769	8b cf		 mov	 ecx, edi
$LN246@SetUserInf:
  0076b	ff 15 00 00 00
	00		 call	 DWORD PTR __imp_?ShowWnd@ioWnd@@QAEXXZ

; 663  : 				pBtn->SetIcon( NULL, USERINFO_TOOLTIP_MEDAL_SCALE, USERINFO_TOOLTIP_MEDAL_EMPTY_SCALE, USERINFO_TOOLTIP_MEDAL_DISABLE_SCALE, 0 );

  00771	f3 0f 10 05 00
	00 00 00	 movss	 xmm0, DWORD PTR __real@3f2e147b
  00779	53		 push	 ebx
  0077a	53		 push	 ebx
  0077b	53		 push	 ebx
  0077c	53		 push	 ebx
  0077d	53		 push	 ebx
  0077e	83 ec 0c	 sub	 esp, 12			; 0000000cH
  00781	f3 0f 11 44 24
	08		 movss	 DWORD PTR [esp+8], xmm0
  00787	f3 0f 10 05 00
	00 00 00	 movss	 xmm0, DWORD PTR __real@3f400000
  0078f	f3 0f 11 44 24
	04		 movss	 DWORD PTR [esp+4], xmm0
  00795	f3 0f 10 05 00
	00 00 00	 movss	 xmm0, DWORD PTR __real@3f266666
  0079d	f3 0f 11 04 24	 movss	 DWORD PTR [esp], xmm0
  007a2	53		 push	 ebx
$LN247@SetUserInf:
  007a3	8b cf		 mov	 ecx, edi
  007a5	e8 00 00 00 00	 call	 ?SetIcon@SlotIconBtn@@QAE_NPAVioUIRenderImage@@MMMHHKK_N@Z ; SlotIconBtn::SetIcon

; 664  : 				pBtn->SetActive();     // empty slot

  007aa	8b 07		 mov	 eax, DWORD PTR [edi]
  007ac	8b cf		 mov	 ecx, edi
$LN248@SetUserInf:
  007ae	ff 50 20	 call	 DWORD PTR [eax+32]

; 665  : 				continue;

  007b1	e9 70 04 00 00	 jmp	 $LN25@SetUserInf
$LN228@SetUserInf:

; 482  : 		{
; 483  : 			
; 484  : 			if ( bAwake )
; 485  : 			{
; 486  : 				std::string szAwakeName = g_AwakeMgr.GetAwakeName( (AwakeType)rkInfo.m_iAwakeType );
; 487  : 				StringCbPrintf( szClassInfo, sizeof( szClassInfo ), "(%s)", szAwakeName.c_str() );

  007b6	83 bd e4 fe ff
	ff 10		 cmp	 DWORD PTR _szAwakeName$546144[ebp+20], 16 ; 00000010H
  007bd	8b 85 d0 fe ff
	ff		 mov	 eax, DWORD PTR _szAwakeName$546144[ebp]
  007c3	73 06		 jae	 SHORT $LN103@SetUserInf
  007c5	8d 85 d0 fe ff
	ff		 lea	 eax, DWORD PTR _szAwakeName$546144[ebp]
$LN103@SetUserInf:
  007cb	50		 push	 eax
  007cc	68 00 00 00 00	 push	 OFFSET ??_C@_04ENHBHKMJ@?$CI?$CFs?$CJ?$AA@
  007d1	8d 85 ec fe ff
	ff		 lea	 eax, DWORD PTR _szClassInfo$[ebp]
  007d7	57		 push	 edi
  007d8	50		 push	 eax
  007d9	e8 00 00 00 00	 call	 ?StringCbPrintfA@@YAJPADIPBDZZ ; StringCbPrintfA
  007de	83 c4 10	 add	 esp, 16			; 00000010H
$LN243@SetUserInf:

; 488  : 			}

  007e1	53		 push	 ebx
  007e2	6a 01		 push	 1
  007e4	8d 8d d0 fe ff
	ff		 lea	 ecx, DWORD PTR _szAwakeName$546144[ebp]
  007ea	e8 00 00 00 00	 call	 ?_Tidy@?$basic_string@DU?$char_traits@D@std@@V?$allocator@D@2@@std@@QAEX_NI@Z ; std::basic_string<char,std::char_traits<char>,std::allocator<char> >::_Tidy
  007ef	e9 61 fa ff ff	 jmp	 $LN64@SetUserInf
$LN57@SetUserInf:

; 523  : 				pBtn->SetActive();
; 524  : 				continue;
; 525  : 			}
; 526  : 
; 527  : 			if( dwItemCode <= 0 )

  007f4	39 9d c0 fe ff
	ff		 cmp	 DWORD PTR _dwItemCode$546163[ebp], ebx

; 528  : 			{	
; 529  : 				pBtn->ShowWnd();
; 530  : 				pBtn->SetIcon( NULL, USERINFO_TOOLTIP_NONE_ITEM_SCALE, USERINFO_TOOLTIP_NONE_ITEM_SCALE, USERINFO_TOOLTIP_NONE_ITEM_SCALE, 0 );
; 531  : 				pBtn->SetActive();
; 532  : 				continue;

  007fa	0f 86 32 fb ff
	ff		 jbe	 $LN244@SetUserInf

; 533  : 			}
; 534  : 
; 535  : 			const ioItem *pItem = g_ItemMaker.GetItemConst( dwItemCode, __FUNCTION__ );

  00800	68 00 00 00 00	 push	 OFFSET ??_C@_0CF@FLOBCBIE@UserInfoToolTip?3?3SetUserInfoTool@
  00805	8d 8d dc fe ff
	ff		 lea	 ecx, DWORD PTR $T560603[ebp]
  0080b	ff 15 00 00 00
	00		 call	 DWORD PTR __imp_??0ioHashString@@QAE@PBD@Z
  00811	8d 85 dc fe ff
	ff		 lea	 eax, DWORD PTR $T560603[ebp]
  00817	50		 push	 eax
  00818	ff b5 c0 fe ff
	ff		 push	 DWORD PTR _dwItemCode$546163[ebp]
  0081e	c7 45 fc 03 00
	00 00		 mov	 DWORD PTR __$EHRec$[ebp+8], 3
  00825	e8 00 00 00 00	 call	 ?GetSingleton@ioItemMaker@@SAAAV1@XZ ; ioItemMaker::GetSingleton
  0082a	8b c8		 mov	 ecx, eax
  0082c	e8 00 00 00 00	 call	 ?GetItemConst@ioItemMaker@@QBEPBVioItem@@KABVioHashString@@@Z ; ioItemMaker::GetItemConst
  00831	83 4d fc ff	 or	 DWORD PTR __$EHRec$[ebp+8], -1
  00835	8d 8d dc fe ff
	ff		 lea	 ecx, DWORD PTR $T560603[ebp]
  0083b	89 85 c0 fe ff
	ff		 mov	 DWORD PTR _pItem$546167[ebp], eax
  00841	ff 15 00 00 00
	00		 call	 DWORD PTR __imp_??1ioHashString@@QAE@XZ

; 536  : 			if( !pItem )

  00847	39 9d c0 fe ff
	ff		 cmp	 DWORD PTR _pItem$546167[ebp], ebx

; 537  : 			{
; 538  : 				pBtn->ShowWnd();
; 539  : 				pBtn->SetIcon( NULL, USERINFO_TOOLTIP_NONE_ITEM_SCALE, USERINFO_TOOLTIP_NONE_ITEM_SCALE, USERINFO_TOOLTIP_NONE_ITEM_SCALE, 0 );
; 540  : 				pBtn->SetActive();
; 541  : 				continue;

  0084d	0f 84 df fa ff
	ff		 je	 $LN244@SetUserInf

; 542  : 			}
; 543  : 
; 544  : 			ioHashString szSkillName = pItem->GetSkillName();

  00853	8b 85 c0 fe ff
	ff		 mov	 eax, DWORD PTR _pItem$546167[ebp]
  00859	05 44 01 00 00	 add	 eax, 324		; 00000144H
  0085e	50		 push	 eax
  0085f	8d 8d 8c fe ff
	ff		 lea	 ecx, DWORD PTR _szSkillName$546170[ebp]
  00865	ff 15 00 00 00
	00		 call	 DWORD PTR __imp_??0ioHashString@@QAE@ABV0@@Z

; 545  : 			const ioSkill *pSkill = g_SkillMaker.GetSkillConst( szSkillName );

  0086b	8d 85 8c fe ff
	ff		 lea	 eax, DWORD PTR _szSkillName$546170[ebp]
  00871	50		 push	 eax
  00872	c7 45 fc 04 00
	00 00		 mov	 DWORD PTR __$EHRec$[ebp+8], 4
  00879	e8 00 00 00 00	 call	 ?GetSingleton@ioSkillMaker@@SAAAV1@XZ ; ioSkillMaker::GetSingleton
  0087e	8b c8		 mov	 ecx, eax
  00880	e8 00 00 00 00	 call	 ?GetSkillConst@ioSkillMaker@@QBEPBVioSkill@@ABVioHashString@@@Z ; ioSkillMaker::GetSkillConst

; 546  : 			if( !pSkill )

  00885	3b c3		 cmp	 eax, ebx
  00887	75 4d		 jne	 SHORT $LN54@SetUserInf

; 547  : 			{
; 548  : 				pBtn->ShowWnd();

  00889	8b cf		 mov	 ecx, edi
  0088b	ff 15 00 00 00
	00		 call	 DWORD PTR __imp_?ShowWnd@ioWnd@@QAEXXZ

; 549  : 				pBtn->SetIcon( NULL, USERINFO_TOOLTIP_NONE_ITEM_SCALE, USERINFO_TOOLTIP_NONE_ITEM_SCALE, USERINFO_TOOLTIP_NONE_ITEM_SCALE, 0 );

  00891	f3 0f 10 05 00
	00 00 00	 movss	 xmm0, DWORD PTR __real@3f147ae1
  00899	53		 push	 ebx
  0089a	53		 push	 ebx
  0089b	53		 push	 ebx
  0089c	53		 push	 ebx
  0089d	53		 push	 ebx
  0089e	83 ec 0c	 sub	 esp, 12			; 0000000cH
  008a1	f3 0f 11 44 24
	08		 movss	 DWORD PTR [esp+8], xmm0
  008a7	f3 0f 11 44 24
	04		 movss	 DWORD PTR [esp+4], xmm0
  008ad	f3 0f 11 04 24	 movss	 DWORD PTR [esp], xmm0
  008b2	53		 push	 ebx
  008b3	8b cf		 mov	 ecx, edi
  008b5	e8 00 00 00 00	 call	 ?SetIcon@SlotIconBtn@@QAE_NPAVioUIRenderImage@@MMMHHKK_N@Z ; SlotIconBtn::SetIcon

; 550  : 				pBtn->SetActive();

  008ba	8b 07		 mov	 eax, DWORD PTR [edi]
  008bc	8b cf		 mov	 ecx, edi
  008be	ff 50 20	 call	 DWORD PTR [eax+32]

; 551  : 				continue;

  008c1	83 4d fc ff	 or	 DWORD PTR __$EHRec$[ebp+8], -1
  008c5	8d 8d 8c fe ff
	ff		 lea	 ecx, DWORD PTR _szSkillName$546170[ebp]
  008cb	ff 15 00 00 00
	00		 call	 DWORD PTR __imp_??1ioHashString@@QAE@XZ
  008d1	e9 94 fa ff ff	 jmp	 $LN62@SetUserInf
$LN54@SetUserInf:

; 552  : 			}
; 553  : 
; 554  : 			pImg = g_UIImageSetMgr.CreateImageByFullName(  pSkill->GetIconName() );

  008d6	05 c8 01 00 00	 add	 eax, 456		; 000001c8H
  008db	53		 push	 ebx
  008dc	50		 push	 eax
  008dd	ff 15 00 00 00
	00		 call	 DWORD PTR __imp_?GetSingleton@ioUIImageSetManager@@SAAAV1@XZ
  008e3	8b c8		 mov	 ecx, eax
  008e5	ff 15 00 00 00
	00		 call	 DWORD PTR __imp_?CreateImageByFullName@ioUIImageSetManager@@QAEPAVioUIRenderImage@@ABVioHashString@@_N@Z
  008eb	89 85 c0 fe ff
	ff		 mov	 DWORD PTR _pImg$546160[ebp], eax

; 555  : 
; 556  : 			int iArray = i+MAX_ITEM_GROWTH;
; 557  : 			if( COMPARE( iArray, 0, iGrowthLevelSize ) )

  008f1	8b 85 c4 fe ff
	ff		 mov	 eax, DWORD PTR tv1960[ebp]
  008f7	83 c0 08	 add	 eax, 8
  008fa	3b c3		 cmp	 eax, ebx
  008fc	7c 1e		 jl	 SHORT $LN53@SetUserInf
  008fe	8b 85 c4 fe ff
	ff		 mov	 eax, DWORD PTR tv1960[ebp]
  00904	8d 48 08	 lea	 ecx, DWORD PTR [eax+8]
  00907	3b 8d bc fe ff
	ff		 cmp	 ecx, DWORD PTR _iGrowthLevelSize$[ebp]
  0090d	7d 0d		 jge	 SHORT $LN53@SetUserInf

; 558  : 				iReinforce = rkInfo.m_vGrowthLevelVec[iArray];

  0090f	8b 4e 28	 mov	 ecx, DWORD PTR [esi+40]
  00912	8b 44 81 20	 mov	 eax, DWORD PTR [ecx+eax*4+32]
  00916	89 85 c8 fe ff
	ff		 mov	 DWORD PTR _iReinforce$546161[ebp], eax
$LN53@SetUserInf:

; 559  : 		}

  0091c	83 4d fc ff	 or	 DWORD PTR __$EHRec$[ebp+8], -1
  00920	8d 8d 8c fe ff
	ff		 lea	 ecx, DWORD PTR _szSkillName$546170[ebp]
  00926	ff 15 00 00 00
	00		 call	 DWORD PTR __imp_??1ioHashString@@QAE@XZ

; 560  : 		else

  0092c	eb 4e		 jmp	 SHORT $LN50@SetUserInf
$LN59@SetUserInf:

; 561  : 		{
; 562  : 			int iArray = i-MAX_ITEM_GROWTH;
; 563  : 			if( COMPARE( iArray, 0, iGrowthCharIconSize ) )

  0092e	3b cb		 cmp	 ecx, ebx
  00930	7c 4a		 jl	 SHORT $LN50@SetUserInf
  00932	3b 8d 68 fe ff
	ff		 cmp	 ecx, DWORD PTR _iGrowthCharIconSize$[ebp]
  00938	7d 2e		 jge	 SHORT $LN51@SetUserInf

; 503  : 
; 504  : 	for (int i = 0; i < MAX_GROWTH ; i++)

  0093a	8b 85 b4 fe ff
	ff		 mov	 eax, DWORD PTR _this$GSCopy$[ebp]
  00940	8b 80 94 01 00
	00		 mov	 eax, DWORD PTR [eax+404]
  00946	03 85 b8 fe ff
	ff		 add	 eax, DWORD PTR tv2005[ebp]

; 564  : 				pImg = g_UIImageSetMgr.CreateImageByFullName( m_vGrowthCharIconVec[iArray] );

  0094c	53		 push	 ebx
  0094d	50		 push	 eax
  0094e	ff 15 00 00 00
	00		 call	 DWORD PTR __imp_?GetSingleton@ioUIImageSetManager@@SAAAV1@XZ
  00954	8b c8		 mov	 ecx, eax
  00956	ff 15 00 00 00
	00		 call	 DWORD PTR __imp_?CreateImageByFullName@ioUIImageSetManager@@QAEPAVioUIRenderImage@@ABVioHashString@@_N@Z
  0095c	8b 8d c4 fe ff
	ff		 mov	 ecx, DWORD PTR tv1960[ebp]
  00962	89 85 c0 fe ff
	ff		 mov	 DWORD PTR _pImg$546160[ebp], eax
$LN51@SetUserInf:

; 565  : 
; 566  : 			if( COMPARE( iArray, 0, iGrowthLevelSize ) )

  00968	3b 8d bc fe ff
	ff		 cmp	 ecx, DWORD PTR _iGrowthLevelSize$[ebp]
  0096e	7d 0c		 jge	 SHORT $LN50@SetUserInf

; 567  : 				iReinforce = rkInfo.m_vGrowthLevelVec[iArray];

  00970	8b 46 28	 mov	 eax, DWORD PTR [esi+40]
  00973	8b 04 88	 mov	 eax, DWORD PTR [eax+ecx*4]
  00976	89 85 c8 fe ff
	ff		 mov	 DWORD PTR _iReinforce$546161[ebp], eax
$LN50@SetUserInf:

; 568  : 		}
; 569  : 
; 570  : 		pBtn->ShowWnd();

  0097c	8b cf		 mov	 ecx, edi
  0097e	ff 15 00 00 00
	00		 call	 DWORD PTR __imp_?ShowWnd@ioWnd@@QAEXXZ

; 571  : 		pBtn->SetIcon( pImg, USERINFO_TOOLTIP_GROWTH_SCALE, USERINFO_TOOLTIP_GROWTH_SCALE, USERINFO_TOOLTIP_GROWTH_SCALE, 0, iReinforce );

  00984	b8 05 00 00 00	 mov	 eax, 5
  00989	8b c8		 mov	 ecx, eax
  0098b	b8 0a 00 00 00	 mov	 eax, 10			; 0000000aH
  00990	8b d0		 mov	 edx, eax
  00992	b8 05 00 00 00	 mov	 eax, 5
  00997	89 85 70 fe ff
	ff		 mov	 DWORD PTR $T560701[ebp], eax
  0099d	b8 0a 00 00 00	 mov	 eax, 10			; 0000000aH
  009a2	89 85 ac fe ff
	ff		 mov	 DWORD PTR $T560705[ebp], eax
  009a8	b8 05 00 00 00	 mov	 eax, 5
  009ad	89 85 b0 fe ff
	ff		 mov	 DWORD PTR $T560709[ebp], eax
  009b3	b8 0a 00 00 00	 mov	 eax, 10			; 0000000aH
  009b8	53		 push	 ebx
  009b9	53		 push	 ebx
  009ba	53		 push	 ebx
  009bb	ff b5 c8 fe ff
	ff		 push	 DWORD PTR _iReinforce$546161[ebp]
  009c1	89 8d 78 fe ff
	ff		 mov	 DWORD PTR tv2072[ebp], ecx
  009c7	db 85 78 fe ff
	ff		 fild	 DWORD PTR tv2072[ebp]
  009cd	53		 push	 ebx
  009ce	85 c9		 test	 ecx, ecx
  009d0	79 06		 jns	 SHORT $LN237@SetUserInf
  009d2	d8 05 00 00 00
	00		 fadd	 DWORD PTR __real@4f800000
$LN237@SetUserInf:
  009d8	89 95 78 fe ff
	ff		 mov	 DWORD PTR tv2068[ebp], edx
  009de	db 85 78 fe ff
	ff		 fild	 DWORD PTR tv2068[ebp]
  009e4	85 d2		 test	 edx, edx
  009e6	79 06		 jns	 SHORT $LN238@SetUserInf
  009e8	d8 05 00 00 00
	00		 fadd	 DWORD PTR __real@4f800000
$LN238@SetUserInf:
  009ee	de f9		 fdivp	 ST(1), ST(0)
  009f0	8b 8d 70 fe ff
	ff		 mov	 ecx, DWORD PTR $T560701[ebp]
  009f6	83 ec 0c	 sub	 esp, 12			; 0000000cH
  009f9	d9 9d 78 fe ff
	ff		 fstp	 DWORD PTR tv2063[ebp]
  009ff	d9 85 78 fe ff
	ff		 fld	 DWORD PTR tv2063[ebp]
  00a05	d9 5c 24 08	 fstp	 DWORD PTR [esp+8]
  00a09	db 85 70 fe ff
	ff		 fild	 DWORD PTR $T560701[ebp]
  00a0f	85 c9		 test	 ecx, ecx
  00a11	79 06		 jns	 SHORT $LN239@SetUserInf
  00a13	d8 05 00 00 00
	00		 fadd	 DWORD PTR __real@4f800000
$LN239@SetUserInf:
  00a19	8b 8d ac fe ff
	ff		 mov	 ecx, DWORD PTR $T560705[ebp]
  00a1f	db 85 ac fe ff
	ff		 fild	 DWORD PTR $T560705[ebp]
  00a25	85 c9		 test	 ecx, ecx
  00a27	79 06		 jns	 SHORT $LN240@SetUserInf
  00a29	d8 05 00 00 00
	00		 fadd	 DWORD PTR __real@4f800000
$LN240@SetUserInf:
  00a2f	de f9		 fdivp	 ST(1), ST(0)
  00a31	8b 8d b0 fe ff
	ff		 mov	 ecx, DWORD PTR $T560709[ebp]
  00a37	d9 9d ac fe ff
	ff		 fstp	 DWORD PTR tv2052[ebp]
  00a3d	d9 85 ac fe ff
	ff		 fld	 DWORD PTR tv2052[ebp]
  00a43	d9 5c 24 04	 fstp	 DWORD PTR [esp+4]
  00a47	db 85 b0 fe ff
	ff		 fild	 DWORD PTR $T560709[ebp]
  00a4d	85 c9		 test	 ecx, ecx
  00a4f	79 06		 jns	 SHORT $LN241@SetUserInf
  00a51	d8 05 00 00 00
	00		 fadd	 DWORD PTR __real@4f800000
$LN241@SetUserInf:
  00a57	89 85 b0 fe ff
	ff		 mov	 DWORD PTR tv2046[ebp], eax
  00a5d	db 85 b0 fe ff
	ff		 fild	 DWORD PTR tv2046[ebp]
  00a63	85 c0		 test	 eax, eax
  00a65	79 06		 jns	 SHORT $LN242@SetUserInf
  00a67	d8 05 00 00 00
	00		 fadd	 DWORD PTR __real@4f800000
$LN242@SetUserInf:
  00a6d	de f9		 fdivp	 ST(1), ST(0)
  00a6f	8b cf		 mov	 ecx, edi
  00a71	d9 9d b0 fe ff
	ff		 fstp	 DWORD PTR tv2042[ebp]
  00a77	d9 85 b0 fe ff
	ff		 fld	 DWORD PTR tv2042[ebp]
  00a7d	d9 1c 24	 fstp	 DWORD PTR [esp]
  00a80	ff b5 c0 fe ff
	ff		 push	 DWORD PTR _pImg$546160[ebp]
  00a86	e8 00 00 00 00	 call	 ?SetIcon@SlotIconBtn@@QAE_NPAVioUIRenderImage@@MMMHHKK_N@Z ; SlotIconBtn::SetIcon

; 572  : 		if( iReinforce <= 0 )

  00a8b	39 9d c8 fe ff
	ff		 cmp	 DWORD PTR _iReinforce$546161[ebp], ebx
  00a91	0f 8f cc f8 ff
	ff		 jg	 $LN49@SetUserInf

; 573  : 			pBtn->SetInActive();

  00a97	8b 07		 mov	 eax, DWORD PTR [edi]
  00a99	8b cf		 mov	 ecx, edi
  00a9b	ff 50 24	 call	 DWORD PTR [eax+36]

; 574  : 		else

  00a9e	e9 c7 f8 ff ff	 jmp	 $LN62@SetUserInf
$LN21@SetUserInf:

; 666  : 			}
; 667  : 
; 668  : 			ioUIRenderImage *pImg = g_UIImageSetMgr.CreateImageByFullName( pItemInfo->m_sIcon );

  00aa3	05 a8 01 00 00	 add	 eax, 424		; 000001a8H
  00aa8	53		 push	 ebx
  00aa9	50		 push	 eax
  00aaa	ff 15 00 00 00
	00		 call	 DWORD PTR __imp_?GetSingleton@ioUIImageSetManager@@SAAAV1@XZ
  00ab0	8b c8		 mov	 ecx, eax
  00ab2	ff 15 00 00 00
	00		 call	 DWORD PTR __imp_?CreateImageByFullName@ioUIImageSetManager@@QAEPAVioUIRenderImage@@ABVioHashString@@_N@Z

; 669  : 
; 670  : 			pBtn->ShowWnd();

  00ab8	8b cf		 mov	 ecx, edi
  00aba	89 85 b0 fe ff
	ff		 mov	 DWORD PTR _pImg$546250[ebp], eax
  00ac0	ff 15 00 00 00
	00		 call	 DWORD PTR __imp_?ShowWnd@ioWnd@@QAEXXZ

; 671  : 			pBtn->SetIcon( pImg, USERINFO_TOOLTIP_MEDAL_SCALE, USERINFO_TOOLTIP_MEDAL_EMPTY_SCALE, USERINFO_TOOLTIP_MEDAL_DISABLE_SCALE, 0 );

  00ac6	f3 0f 10 05 00
	00 00 00	 movss	 xmm0, DWORD PTR __real@3f2e147b
  00ace	53		 push	 ebx
  00acf	53		 push	 ebx
  00ad0	53		 push	 ebx
  00ad1	53		 push	 ebx
  00ad2	53		 push	 ebx
  00ad3	83 ec 0c	 sub	 esp, 12			; 0000000cH
  00ad6	f3 0f 11 44 24
	08		 movss	 DWORD PTR [esp+8], xmm0
  00adc	f3 0f 10 05 00
	00 00 00	 movss	 xmm0, DWORD PTR __real@3f400000
  00ae4	f3 0f 11 44 24
	04		 movss	 DWORD PTR [esp+4], xmm0
  00aea	f3 0f 10 05 00
	00 00 00	 movss	 xmm0, DWORD PTR __real@3f266666
  00af2	f3 0f 11 04 24	 movss	 DWORD PTR [esp], xmm0
  00af7	ff b5 b0 fe ff
	ff		 push	 DWORD PTR _pImg$546250[ebp]

; 672  : 			pBtn->SetActive();     

  00afd	e9 a1 fc ff ff	 jmp	 $LN247@SetUserInf
$LN22@SetUserInf:

; 673  : 		}
; 674  : 		else if( iExpandSlotSize <= 0 )

  00b02	8b 8d ac fe ff
	ff		 mov	 ecx, DWORD PTR _iExpandSlotSize$[ebp]
  00b08	3b cb		 cmp	 ecx, ebx
  00b0a	7f 76		 jg	 SHORT $LN19@SetUserInf

; 675  : 		{
; 676  : 			if( bMedal3 && i >= iHalfMedalSize )

  00b0c	38 9d cf fe ff
	ff		 cmp	 BYTE PTR _bMedal3$[ebp], bl
  00b12	74 12		 je	 SHORT $LN18@SetUserInf
  00b14	83 fa 03	 cmp	 edx, 3
  00b17	7c 0d		 jl	 SHORT $LN18@SetUserInf
$LN249@SetUserInf:

; 677  : 			{
; 678  : 				pBtn->HideWnd();

  00b19	8b cf		 mov	 ecx, edi
  00b1b	ff 15 00 00 00
	00		 call	 DWORD PTR __imp_?HideWnd@ioWnd@@QAEXXZ

; 679  : 				continue;

  00b21	e9 00 01 00 00	 jmp	 $LN25@SetUserInf
$LN18@SetUserInf:

; 680  : 			}
; 681  : 
; 682  : 			pBtn->ShowWnd();

  00b26	8b cf		 mov	 ecx, edi
  00b28	ff 15 00 00 00
	00		 call	 DWORD PTR __imp_?ShowWnd@ioWnd@@QAEXXZ

; 683  : 			pBtn->SetIcon( NULL, USERINFO_TOOLTIP_MEDAL_SCALE, USERINFO_TOOLTIP_MEDAL_EMPTY_SCALE, USERINFO_TOOLTIP_MEDAL_DISABLE_SCALE, 0 );

  00b2e	f3 0f 10 05 00
	00 00 00	 movss	 xmm0, DWORD PTR __real@3f2e147b
  00b36	53		 push	 ebx
  00b37	53		 push	 ebx
  00b38	53		 push	 ebx
  00b39	53		 push	 ebx
  00b3a	53		 push	 ebx
  00b3b	83 ec 0c	 sub	 esp, 12			; 0000000cH
  00b3e	f3 0f 11 44 24
	08		 movss	 DWORD PTR [esp+8], xmm0
  00b44	f3 0f 10 05 00
	00 00 00	 movss	 xmm0, DWORD PTR __real@3f400000
  00b4c	f3 0f 11 44 24
	04		 movss	 DWORD PTR [esp+4], xmm0
  00b52	f3 0f 10 05 00
	00 00 00	 movss	 xmm0, DWORD PTR __real@3f266666
  00b5a	f3 0f 11 04 24	 movss	 DWORD PTR [esp], xmm0
  00b5f	53		 push	 ebx
  00b60	8b cf		 mov	 ecx, edi
  00b62	e8 00 00 00 00	 call	 ?SetIcon@SlotIconBtn@@QAE_NPAVioUIRenderImage@@MMMHHKK_N@Z ; SlotIconBtn::SetIcon

; 684  : 			if( i < iSlotNum )

  00b67	8b 85 c0 fe ff
	ff		 mov	 eax, DWORD PTR _iSlotNum$[ebp]
  00b6d	39 85 c8 fe ff
	ff		 cmp	 DWORD PTR _i$546240[ebp], eax

; 685  : 				pBtn->SetActive();     // empty slot

  00b73	8b 07		 mov	 eax, DWORD PTR [edi]
  00b75	8b cf		 mov	 ecx, edi
  00b77	0f 8d a6 00 00
	00		 jge	 $LN17@SetUserInf

; 686  : 			else 

  00b7d	e9 2c fc ff ff	 jmp	 $LN248@SetUserInf
$LN19@SetUserInf:

; 687  : 				pBtn->SetInActive();   // X 표시
; 688  : 		}
; 689  : 		else
; 690  : 		{
; 691  : 			if( bMedal3 && i >= iHalfMedalSize )

  00b82	38 9d cf fe ff
	ff		 cmp	 BYTE PTR _bMedal3$[ebp], bl
  00b88	74 05		 je	 SHORT $LN14@SetUserInf
  00b8a	83 fa 03	 cmp	 edx, 3

; 692  : 			{
; 693  : 				pBtn->HideWnd();
; 694  : 				continue;

  00b8d	7d 8a		 jge	 SHORT $LN249@SetUserInf
$LN14@SetUserInf:

; 695  : 			}
; 696  : 
; 697  : 			// 확장메달슬롯에 대한 처리.
; 698  : 			bool bExpand = false;

  00b8f	88 9d ce fe ff
	ff		 mov	 BYTE PTR _bExpand$546258[ebp], bl

; 699  : 			for( int j=0; j<iExpandSlotSize; ++j )

  00b95	3b cb		 cmp	 ecx, ebx
  00b97	7e 39		 jle	 SHORT $LN9@SetUserInf

; 695  : 			}
; 696  : 
; 697  : 			// 확장메달슬롯에 대한 처리.
; 698  : 			bool bExpand = false;

  00b99	8b 46 48	 mov	 eax, DWORD PTR [esi+72]
$LL13@SetUserInf:

; 700  : 			{
; 701  : 				if( rkInfo.m_vExMedalSlotVec[j] == i )

  00b9c	39 10		 cmp	 DWORD PTR [eax], edx
  00b9e	75 0d		 jne	 SHORT $LN12@SetUserInf

; 702  : 					bExpand = true;

  00ba0	8b 95 c8 fe ff
	ff		 mov	 edx, DWORD PTR _i$546240[ebp]
  00ba6	c6 85 ce fe ff
	ff 01		 mov	 BYTE PTR _bExpand$546258[ebp], 1
$LN12@SetUserInf:

; 699  : 			for( int j=0; j<iExpandSlotSize; ++j )

  00bad	83 c0 04	 add	 eax, 4
  00bb0	49		 dec	 ecx
  00bb1	75 e9		 jne	 SHORT $LL13@SetUserInf

; 703  : 			}
; 704  : 
; 705  : 			if( bExpand )

  00bb3	38 9d ce fe ff
	ff		 cmp	 BYTE PTR _bExpand$546258[ebp], bl
  00bb9	74 17		 je	 SHORT $LN9@SetUserInf

; 706  : 			{
; 707  : 				if( iCurMedal < iMedalSize )

  00bbb	8b 85 b8 fe ff
	ff		 mov	 eax, DWORD PTR _iMedalSize$[ebp]
  00bc1	39 85 c4 fe ff
	ff		 cmp	 DWORD PTR _iCurMedal$[ebp], eax
  00bc7	0f 8d 9c fb ff
	ff		 jge	 $LN245@SetUserInf

; 708  : 				{
; 709  : 					const ioMedalItemInfoManager::ItemInfo *pItemInfo = g_MedalItemMgr.GetItemInfo( vMedalItemTypeExceptNoneVec[iCurMedal] );
; 710  : 					iCurMedal++;
; 711  : 					if( !pItemInfo )
; 712  : 					{
; 713  : 						pBtn->ShowWnd();
; 714  : 						pBtn->SetIcon( NULL, USERINFO_TOOLTIP_MEDAL_SCALE, USERINFO_TOOLTIP_MEDAL_EMPTY_SCALE, USERINFO_TOOLTIP_MEDAL_DISABLE_SCALE, 0 );
; 715  : 						pBtn->SetActive();     // empty slot
; 716  : 						continue;

  00bcd	e9 6c fb ff ff	 jmp	 $LN251@SetUserInf
$LN9@SetUserInf:

; 717  : 					}
; 718  : 
; 719  : 					ioUIRenderImage *pImg = g_UIImageSetMgr.CreateImageByFullName( pItemInfo->m_sIcon );
; 720  : 
; 721  : 					pBtn->ShowWnd();
; 722  : 					pBtn->SetIcon( pImg, USERINFO_TOOLTIP_MEDAL_SCALE, USERINFO_TOOLTIP_MEDAL_EMPTY_SCALE, USERINFO_TOOLTIP_MEDAL_DISABLE_SCALE, 0 );
; 723  : 					pBtn->SetActive();
; 724  : 				}
; 725  : 				else
; 726  : 				{
; 727  : 					pBtn->ShowWnd();
; 728  : 					pBtn->SetIcon( NULL, USERINFO_TOOLTIP_MEDAL_SCALE, USERINFO_TOOLTIP_MEDAL_EMPTY_SCALE, USERINFO_TOOLTIP_MEDAL_DISABLE_SCALE, 0 );
; 729  : 					pBtn->SetActive();     // empty slot
; 730  : 				}
; 731  : 			}
; 732  : 			else
; 733  : 			{
; 734  : 				if( i < iSlotNum )
; 735  : 				{
; 736  : 					pBtn->ShowWnd();

  00bd2	8b cf		 mov	 ecx, edi
  00bd4	3b 95 c0 fe ff
	ff		 cmp	 edx, DWORD PTR _iSlotNum$[ebp]

; 737  : 					pBtn->SetIcon( NULL, USERINFO_TOOLTIP_MEDAL_SCALE, USERINFO_TOOLTIP_MEDAL_EMPTY_SCALE, USERINFO_TOOLTIP_MEDAL_DISABLE_SCALE, 0 );
; 738  : 					pBtn->SetActive();     // empty slot
; 739  : 				}
; 740  : 				else

  00bda	0f 8c 8b fb ff
	ff		 jl	 $LN246@SetUserInf

; 741  : 				{
; 742  : 					pBtn->ShowWnd();

  00be0	ff 15 00 00 00
	00		 call	 DWORD PTR __imp_?ShowWnd@ioWnd@@QAEXXZ

; 743  : 					pBtn->SetIcon( NULL, USERINFO_TOOLTIP_MEDAL_SCALE, USERINFO_TOOLTIP_MEDAL_EMPTY_SCALE, USERINFO_TOOLTIP_MEDAL_DISABLE_SCALE, 0 );

  00be6	f3 0f 10 05 00
	00 00 00	 movss	 xmm0, DWORD PTR __real@3f2e147b
  00bee	53		 push	 ebx
  00bef	53		 push	 ebx
  00bf0	53		 push	 ebx
  00bf1	53		 push	 ebx
  00bf2	53		 push	 ebx
  00bf3	83 ec 0c	 sub	 esp, 12			; 0000000cH
  00bf6	f3 0f 11 44 24
	08		 movss	 DWORD PTR [esp+8], xmm0
  00bfc	f3 0f 10 05 00
	00 00 00	 movss	 xmm0, DWORD PTR __real@3f400000
  00c04	f3 0f 11 44 24
	04		 movss	 DWORD PTR [esp+4], xmm0
  00c0a	f3 0f 10 05 00
	00 00 00	 movss	 xmm0, DWORD PTR __real@3f266666
  00c12	f3 0f 11 04 24	 movss	 DWORD PTR [esp], xmm0
  00c17	53		 push	 ebx
  00c18	8b cf		 mov	 ecx, edi
  00c1a	e8 00 00 00 00	 call	 ?SetIcon@SlotIconBtn@@QAE_NPAVioUIRenderImage@@MMMHHKK_N@Z ; SlotIconBtn::SetIcon

; 744  : 					pBtn->SetInActive();// X 표시

  00c1f	8b 07		 mov	 eax, DWORD PTR [edi]
  00c21	8b cf		 mov	 ecx, edi
$LN17@SetUserInf:
  00c23	ff 50 24	 call	 DWORD PTR [eax+36]
$LN25@SetUserInf:

; 650  : 	for (int i = 0; i < MAX_MEDAL ; i++)

  00c26	ff 85 c8 fe ff
	ff		 inc	 DWORD PTR _i$546240[ebp]
  00c2c	83 bd c8 fe ff
	ff 06		 cmp	 DWORD PTR _i$546240[ebp], 6
  00c33	0f 8c b2 fa ff
	ff		 jl	 $LL26@SetUserInf

; 745  : 				}
; 746  : 			}
; 747  : 		}
; 748  : 	}
; 749  : 
; 750  : 	// wnd size
; 751  : 	if( bMedal3 )
; 752  : 		SetSize( GetWidth(), HEIGHT_MEDAL3 + iExtra_Add_Y );

  00c39	8b bd b4 fe ff
	ff		 mov	 edi, DWORD PTR _this$GSCopy$[ebp]
  00c3f	8b 85 74 fe ff
	ff		 mov	 eax, DWORD PTR _iExtra_Add_Y$[ebp]
  00c45	8b 37		 mov	 esi, DWORD PTR [edi]
  00c47	8b cf		 mov	 ecx, edi
  00c49	38 9d cf fe ff
	ff		 cmp	 BYTE PTR _bMedal3$[ebp], bl
  00c4f	74 07		 je	 SHORT $LN2@SetUserInf
  00c51	05 73 01 00 00	 add	 eax, 371		; 00000173H

; 753  : 	else

  00c56	eb 05		 jmp	 SHORT $LN250@SetUserInf
$LN2@SetUserInf:

; 754  : 		SetSize( GetWidth(), HEIGHT_MEDAL6 + iExtra_Add_Y );

  00c58	05 a6 01 00 00	 add	 eax, 422		; 000001a6H
$LN250@SetUserInf:
  00c5d	50		 push	 eax
  00c5e	ff 15 00 00 00
	00		 call	 DWORD PTR __imp_?GetWidth@ioWnd@@QBEHXZ
  00c64	50		 push	 eax
  00c65	8b cf		 mov	 ecx, edi
  00c67	ff 56 2c	 call	 DWORD PTR [esi+44]

; 755  : 
; 756  : 	//Loading End
; 757  : 	m_dwRefreshDelayTime = 0;
; 758  : }

  00c6a	8d 8d 7c fe ff
	ff		 lea	 ecx, DWORD PTR _vExpandMedalSlotVec$[ebp]
  00c70	89 9f f4 01 00
	00		 mov	 DWORD PTR [edi+500], ebx
  00c76	c6 45 fc 07	 mov	 BYTE PTR __$EHRec$[ebp+8], 7
  00c7a	e8 00 00 00 00	 call	 ?_Tidy@?$vector@UExpandMedalSlot@ioExpandMedalSlotManager@@V?$allocator@UExpandMedalSlot@ioExpandMedalSlotManager@@@std@@@std@@IAEXXZ ; std::vector<ioExpandMedalSlotManager::ExpandMedalSlot,std::allocator<ioExpandMedalSlotManager::ExpandMedalSlot> >::_Tidy
  00c7f	83 4d fc ff	 or	 DWORD PTR __$EHRec$[ebp+8], -1
  00c83	8d 8d 9c fe ff
	ff		 lea	 ecx, DWORD PTR _vMedalItemTypeExceptNoneVec$[ebp]
  00c89	e8 00 00 00 00	 call	 ?_Tidy@?$vector@HV?$allocator@H@std@@@std@@IAEXXZ ; std::vector<int,std::allocator<int> >::_Tidy
  00c8e	e8 00 00 00 00	 call	 __EH_epilog3_GS
  00c93	c2 04 00	 ret	 4
_TEXT	ENDS
;	COMDAT text$x
text$x	SEGMENT
__unwindfunclet$?SetUserInfoToolInfo@UserInfoToolTip@@IAEXAAUUserInfo@1@@Z$0:
  00000	8d 8d d0 fe ff
	ff		 lea	 ecx, DWORD PTR _szAwakeName$546136[ebp]
  00006	e9 00 00 00 00	 jmp	 ??1?$basic_string@DU?$char_traits@D@std@@V?$allocator@D@2@@std@@QAE@XZ ; std::basic_string<char,std::char_traits<char>,std::allocator<char> >::~basic_string<char,std::char_traits<char>,std::allocator<char> >
__unwindfunclet$?SetUserInfoToolInfo@UserInfoToolTip@@IAEXAAUUserInfo@1@@Z$1:
  0000b	8d 8d 8c fe ff
	ff		 lea	 ecx, DWORD PTR _szPowerUpName$546138[ebp]
  00011	ff 25 00 00 00
	00		 jmp	 DWORD PTR __imp_??1ioHashString@@QAE@XZ
__unwindfunclet$?SetUserInfoToolInfo@UserInfoToolTip@@IAEXAAUUserInfo@1@@Z$3:
  00017	8d 8d 8c fe ff
	ff		 lea	 ecx, DWORD PTR _szPowerUpName$546149[ebp]
  0001d	ff 25 00 00 00
	00		 jmp	 DWORD PTR __imp_??1ioHashString@@QAE@XZ
__unwindfunclet$?SetUserInfoToolInfo@UserInfoToolTip@@IAEXAAUUserInfo@1@@Z$6:
  00023	8d 8d 8c fe ff
	ff		 lea	 ecx, DWORD PTR _szIcon$546202[ebp]
  00029	ff 25 00 00 00
	00		 jmp	 DWORD PTR __imp_??1ioHashString@@QAE@XZ
__unwindfunclet$?SetUserInfoToolInfo@UserInfoToolTip@@IAEXAAUUserInfo@1@@Z$7:
  0002f	8d 8d 8c fe ff
	ff		 lea	 ecx, DWORD PTR _szIcon$546215[ebp]
  00035	ff 25 00 00 00
	00		 jmp	 DWORD PTR __imp_??1ioHashString@@QAE@XZ
__unwindfunclet$?SetUserInfoToolInfo@UserInfoToolTip@@IAEXAAUUserInfo@1@@Z$8:
  0003b	8d 8d 9c fe ff
	ff		 lea	 ecx, DWORD PTR _vMedalItemTypeExceptNoneVec$[ebp]
  00041	e9 00 00 00 00	 jmp	 ??1?$vector@HV?$allocator@H@std@@@std@@QAE@XZ ; std::vector<int,std::allocator<int> >::~vector<int,std::allocator<int> >
__unwindfunclet$?SetUserInfoToolInfo@UserInfoToolTip@@IAEXAAUUserInfo@1@@Z$9:
  00046	8d 8d 7c fe ff
	ff		 lea	 ecx, DWORD PTR _vExpandMedalSlotVec$[ebp]
  0004c	e9 00 00 00 00	 jmp	 ??1?$vector@UExpandMedalSlot@ioExpandMedalSlotManager@@V?$allocator@UExpandMedalSlot@ioExpandMedalSlotManager@@@std@@@std@@QAE@XZ ; std::vector<ioExpandMedalSlotManager::ExpandMedalSlot,std::allocator<ioExpandMedalSlotManager::ExpandMedalSlot> >::~vector<ioExpandMedalSlotManager::ExpandMedalSlot,std::allocator<ioExpandMedalSlotManager::ExpandMedalSlot> >
__unwindfunclet$?SetUserInfoToolInfo@UserInfoToolTip@@IAEXAAUUserInfo@1@@Z$4:
  00051	8d 8d dc fe ff
	ff		 lea	 ecx, DWORD PTR $T560603[ebp]
  00057	ff 25 00 00 00
	00		 jmp	 DWORD PTR __imp_??1ioHashString@@QAE@XZ
__unwindfunclet$?SetUserInfoToolInfo@UserInfoToolTip@@IAEXAAUUserInfo@1@@Z$5:
  0005d	8d 8d 8c fe ff
	ff		 lea	 ecx, DWORD PTR _szSkillName$546170[ebp]
  00063	ff 25 00 00 00
	00		 jmp	 DWORD PTR __imp_??1ioHashString@@QAE@XZ
__ehhandler$?SetUserInfoToolInfo@UserInfoToolTip@@IAEXAAUUserInfo@1@@Z:
  00069	8b 54 24 08	 mov	 edx, DWORD PTR [esp+8]
  0006d	8d 42 0c	 lea	 eax, DWORD PTR [edx+12]
  00070	8b 8a 64 fe ff
	ff		 mov	 ecx, DWORD PTR [edx-412]
  00076	33 c8		 xor	 ecx, eax
  00078	e8 00 00 00 00	 call	 @__security_check_cookie@4
  0007d	8b 4a fc	 mov	 ecx, DWORD PTR [edx-4]
  00080	33 c8		 xor	 ecx, eax
  00082	e8 00 00 00 00	 call	 @__security_check_cookie@4
  00087	b8 00 00 00 00	 mov	 eax, OFFSET __ehfuncinfo$?SetUserInfoToolInfo@UserInfoToolTip@@IAEXAAUUserInfo@1@@Z
  0008c	e9 00 00 00 00	 jmp	 ___CxxFrameHandler3
text$x	ENDS
?SetUserInfoToolInfo@UserInfoToolTip@@IAEXAAUUserInfo@1@@Z ENDP ; UserInfoToolTip::SetUserInfoToolInfo
PUBLIC	?GetUserInfoMy@UserInfoToolTip@@IAE_NABVioHashString@@HAAUUserInfo@1@@Z ; UserInfoToolTip::GetUserInfoMy
EXTRN	?GetCharPowerUpGradeByClassType@ioMyInfo@@QAE?AW4PowerUpGradeType@@H@Z:PROC ; ioMyInfo::GetCharPowerUpGradeByClassType
EXTRN	?GetAwakeType@ioMyInfo@@QAEEH@Z:PROC		; ioMyInfo::GetAwakeType
EXTRN	?GetClassLevel@ioMyInfo@@QAEHH_N@Z:PROC		; ioMyInfo::GetClassLevel
EXTRN	?GetCharacterToClassType@ioMyInfo@@QAEABUCHARACTER@@H@Z:PROC ; ioMyInfo::GetCharacterToClassType
EXTRN	?GetCharItemToClassType@ioMyInfo@@QAEABUITEM_DATA@@HH@Z:PROC ; ioMyInfo::GetCharItemToClassType
EXTRN	?GetExpandMedalSlot@ioExpandMedalSlotManager@@QAEHHAAV?$vector@UExpandMedalSlot@ioExpandMedalSlotManager@@V?$allocator@UExpandMedalSlot@ioExpandMedalSlotManager@@@std@@@std@@@Z:PROC ; ioExpandMedalSlotManager::GetExpandMedalSlot
EXTRN	?GetSingleton@ioExpandMedalSlotManager@@SAAAV1@XZ:PROC ; ioExpandMedalSlotManager::GetSingleton
EXTRN	?GetMedalTypeAndGrowthLevel@ioMyInfo@@QAEXHAAV?$vector@HV?$allocator@H@std@@@std@@0@Z:PROC ; ioMyInfo::GetMedalTypeAndGrowthLevel
EXTRN	?GetCharIndexByClassType@ioMyInfo@@QAEKH@Z:PROC	; ioMyInfo::GetCharIndexByClassType
EXTRN	?GetClassType@ioMyInfo@@QAEHXZ:PROC		; ioMyInfo::GetClassType
;	COMDAT xdata$x
; File c:\program files (x86)\microsoft visual studio 10.0\vc\include\vector
xdata$x	SEGMENT
__unwindtable$?GetUserInfoMy@UserInfoToolTip@@IAE_NABVioHashString@@HAAUUserInfo@1@@Z DD 0ffffffffH
	DD	FLAT:__unwindfunclet$?GetUserInfoMy@UserInfoToolTip@@IAE_NABVioHashString@@HAAUUserInfo@1@@Z$0
__ehfuncinfo$?GetUserInfoMy@UserInfoToolTip@@IAE_NABVioHashString@@HAAUUserInfo@1@@Z DD 019930522H
	DD	01H
	DD	FLAT:__unwindtable$?GetUserInfoMy@UserInfoToolTip@@IAE_NABVioHashString@@HAAUUserInfo@1@@Z
	DD	2 DUP(00H)
	DD	2 DUP(00H)
	DD	00H
	DD	01H
; Function compile flags: /Ogsp
; File d:\lost saga for developer\youtube\tutorial\source\src\lsclient\gui\userinfotooltip.cpp
xdata$x	ENDS
;	COMDAT ?GetUserInfoMy@UserInfoToolTip@@IAE_NABVioHashString@@HAAUUserInfo@1@@Z
_TEXT	SEGMENT
_kExMedalSlotVec$ = -32					; size = 16
_iAccessoryCode$546646 = -16				; size = 4
_nCostumeCode$546641 = -16				; size = 4
$T560954 = -16						; size = 4
__$EHRec$ = -12						; size = 12
_sName$ = 8						; size = 4
_iClassType$ = 12					; size = 4
_iType$ = 12						; size = 4
tv272 = 16						; size = 4
tv156 = 16						; size = 4
tv128 = 16						; size = 4
_dwItemCode$546634 = 16					; size = 4
_rkUserInfo$ = 16					; size = 4
?GetUserInfoMy@UserInfoToolTip@@IAE_NABVioHashString@@HAAUUserInfo@1@@Z PROC ; UserInfoToolTip::GetUserInfoMy, COMDAT
; _this$ = ecx

; 1052 : {

  00000	6a 14		 push	 20			; 00000014H
  00002	b8 00 00 00 00	 mov	 eax, __ehhandler$?GetUserInfoMy@UserInfoToolTip@@IAE_NABVioHashString@@HAAUUserInfo@1@@Z
  00007	e8 00 00 00 00	 call	 __EH_prolog3

; 1053 : 	if( sName.IsEmpty() )

  0000c	8b 4d 08	 mov	 ecx, DWORD PTR _sName$[ebp]
  0000f	ff 15 00 00 00
	00		 call	 DWORD PTR __imp_?IsEmpty@ioHashString@@QBE_NXZ
  00015	84 c0		 test	 al, al
  00017	74 07		 je	 SHORT $LN20@GetUserInf@3
$LN49@GetUserInf@3:

; 1054 : 		return false;

  00019	32 c0		 xor	 al, al
  0001b	e9 c2 01 00 00	 jmp	 $LN21@GetUserInf@3
$LN20@GetUserInf@3:

; 1055 : 
; 1056 : 	if( sName != g_MyInfo.GetPublicID() )

  00020	e8 00 00 00 00	 call	 ?GetSingleton@ioMyInfo@@SAAAV1@XZ ; ioMyInfo::GetSingleton
  00025	8b 4d 08	 mov	 ecx, DWORD PTR _sName$[ebp]
  00028	83 c0 1c	 add	 eax, 28			; 0000001cH
  0002b	50		 push	 eax
  0002c	ff 15 00 00 00
	00		 call	 DWORD PTR __imp_??9ioHashString@@QBE_NABV0@@Z
  00032	84 c0		 test	 al, al

; 1057 : 		return false;

  00034	75 e3		 jne	 SHORT $LN49@GetUserInf@3

; 1058 : 
; 1059 : 	int iClassType = 0;
; 1060 : 	if( iType == TT_GLOBAL )

  00036	8b 75 0c	 mov	 esi, DWORD PTR _iType$[ebp]
  00039	83 fe ff	 cmp	 esi, -1
  0003c	75 11		 jne	 SHORT $LN18@GetUserInf@3

; 1061 : 	{
; 1062 : 		iClassType = g_MyInfo.GetClassType();

  0003e	e8 00 00 00 00	 call	 ?GetSingleton@ioMyInfo@@SAAAV1@XZ ; ioMyInfo::GetSingleton
  00043	8b c8		 mov	 ecx, eax
  00045	e8 00 00 00 00	 call	 ?GetClassType@ioMyInfo@@QAEHXZ ; ioMyInfo::GetClassType
  0004a	89 45 0c	 mov	 DWORD PTR _iClassType$[ebp], eax
  0004d	eb 41		 jmp	 SHORT $LN15@GetUserInf@3
$LN18@GetUserInf@3:

; 1063 : 	}
; 1064 : 	else if( iType == TT_ROOM )

  0004f	83 fe fe	 cmp	 esi, -2			; fffffffeH

; 1065 : 	{
; 1066 : 		// GetUserInfoChar() 처리
; 1067 : 		return false;

  00052	74 c5		 je	 SHORT $LN49@GetUserInf@3

; 1068 : 	}
; 1069 : 	else // iType is ClassType
; 1070 : 	{
; 1071 : 		TotalResultMainWnd *pResultMainWnd = dynamic_cast<TotalResultMainWnd *>(g_GUIMgr.FindWnd(TOTAL_RESULT_MAIN_WND));

  00054	6a 00		 push	 0
  00056	68 00 00 00 00	 push	 OFFSET ??_R0?AVTotalResultMainWnd@@@8
  0005b	68 00 00 00 00	 push	 OFFSET ??_R0?AVioWnd@@@8
  00060	6a 00		 push	 0
  00062	68 8f 13 00 00	 push	 5007			; 0000138fH
  00067	e8 00 00 00 00	 call	 ?GetSingleton@ioSP2GUIManager@@SAAAV1@XZ ; ioSP2GUIManager::GetSingleton
  0006c	8b c8		 mov	 ecx, eax
  0006e	ff 15 00 00 00
	00		 call	 DWORD PTR __imp_?FindWnd@ioGUIManager@@QAEPAVioWnd@@K@Z
  00074	50		 push	 eax
  00075	e8 00 00 00 00	 call	 ___RTDynamicCast
  0007a	83 c4 14	 add	 esp, 20			; 00000014H

; 1072 : 		if( pResultMainWnd && pResultMainWnd->IsShow() )

  0007d	85 c0		 test	 eax, eax
  0007f	74 0c		 je	 SHORT $LN14@GetUserInf@3
  00081	8b c8		 mov	 ecx, eax
  00083	ff 15 00 00 00
	00		 call	 DWORD PTR __imp_?IsShow@ioWnd@@QBE_NXZ
  00089	84 c0		 test	 al, al

; 1073 : 			return false; // GetUserInfoChar() 처리

  0008b	75 8c		 jne	 SHORT $LN49@GetUserInf@3
$LN14@GetUserInf@3:

; 1074 : 
; 1075 : 		iClassType = iType;

  0008d	89 75 0c	 mov	 DWORD PTR _iClassType$[ebp], esi
$LN15@GetUserInf@3:

; 1076 : 	}
; 1077 : 
; 1078 : 	if( g_MyInfo.GetCharIndexByClassType( iClassType ) == 0 )

  00090	ff 75 0c	 push	 DWORD PTR _iClassType$[ebp]
  00093	e8 00 00 00 00	 call	 ?GetSingleton@ioMyInfo@@SAAAV1@XZ ; ioMyInfo::GetSingleton
  00098	8b c8		 mov	 ecx, eax
  0009a	e8 00 00 00 00	 call	 ?GetCharIndexByClassType@ioMyInfo@@QAEKH@Z ; ioMyInfo::GetCharIndexByClassType
  0009f	85 c0		 test	 eax, eax

; 1079 : 		return false;

  000a1	0f 84 72 ff ff
	ff		 je	 $LN49@GetUserInf@3

; 1080 : 
; 1081 : 	g_MyInfo.GetMedalTypeAndGrowthLevel( iClassType, rkUserInfo.m_vMedalItemTypeVec, rkUserInfo.m_vGrowthLevelVec );

  000a7	8b 75 10	 mov	 esi, DWORD PTR _rkUserInfo$[ebp]
  000aa	8d 46 28	 lea	 eax, DWORD PTR [esi+40]
  000ad	50		 push	 eax
  000ae	8d 46 38	 lea	 eax, DWORD PTR [esi+56]
  000b1	50		 push	 eax
  000b2	ff 75 0c	 push	 DWORD PTR _iClassType$[ebp]
  000b5	e8 00 00 00 00	 call	 ?GetSingleton@ioMyInfo@@SAAAV1@XZ ; ioMyInfo::GetSingleton
  000ba	8b c8		 mov	 ecx, eax
  000bc	e8 00 00 00 00	 call	 ?GetMedalTypeAndGrowthLevel@ioMyInfo@@QAEXHAAV?$vector@HV?$allocator@H@std@@@std@@0@Z ; ioMyInfo::GetMedalTypeAndGrowthLevel

; 1082 : 	ioExpandMedalSlotManager::ExpandMedalSlotVec kExMedalSlotVec;

  000c1	33 ff		 xor	 edi, edi
  000c3	89 7d e0	 mov	 DWORD PTR _kExMedalSlotVec$[ebp], edi
  000c6	89 7d e4	 mov	 DWORD PTR _kExMedalSlotVec$[ebp+4], edi
  000c9	89 7d e8	 mov	 DWORD PTR _kExMedalSlotVec$[ebp+8], edi

; 1083 : 	int iSize = g_ExpandMedalSlotMgr.GetExpandMedalSlot( iClassType, kExMedalSlotVec );

  000cc	8d 45 e0	 lea	 eax, DWORD PTR _kExMedalSlotVec$[ebp]
  000cf	50		 push	 eax
  000d0	ff 75 0c	 push	 DWORD PTR _iClassType$[ebp]
  000d3	89 7d fc	 mov	 DWORD PTR __$EHRec$[ebp+8], edi
  000d6	e8 00 00 00 00	 call	 ?GetSingleton@ioExpandMedalSlotManager@@SAAAV1@XZ ; ioExpandMedalSlotManager::GetSingleton
  000db	8b c8		 mov	 ecx, eax
  000dd	e8 00 00 00 00	 call	 ?GetExpandMedalSlot@ioExpandMedalSlotManager@@QAEHHAAV?$vector@UExpandMedalSlot@ioExpandMedalSlotManager@@V?$allocator@UExpandMedalSlot@ioExpandMedalSlotManager@@@std@@@std@@@Z ; ioExpandMedalSlotManager::GetExpandMedalSlot

; 1084 : 	for( int i=0; i<iSize; ++i )

  000e2	3b c7		 cmp	 eax, edi
  000e4	7e 21		 jle	 SHORT $LN10@GetUserInf@3

; 1080 : 
; 1081 : 	g_MyInfo.GetMedalTypeAndGrowthLevel( iClassType, rkUserInfo.m_vMedalItemTypeVec, rkUserInfo.m_vGrowthLevelVec );

  000e6	89 45 10	 mov	 DWORD PTR tv156[ebp], eax
$LL12@GetUserInf@3:

; 1085 : 	{
; 1086 : 		rkUserInfo.m_vExMedalSlotVec.push_back( kExMedalSlotVec[i].m_iSlotNumber );

  000e9	8b 45 e0	 mov	 eax, DWORD PTR _kExMedalSlotVec$[ebp]
  000ec	0f b6 04 07	 movzx	 eax, BYTE PTR [edi+eax]
  000f0	89 45 f0	 mov	 DWORD PTR $T560954[ebp], eax
  000f3	8d 45 f0	 lea	 eax, DWORD PTR $T560954[ebp]
  000f6	50		 push	 eax
  000f7	8d 4e 48	 lea	 ecx, DWORD PTR [esi+72]
  000fa	e8 00 00 00 00	 call	 ?push_back@?$vector@HV?$allocator@H@std@@@std@@QAEXABH@Z ; std::vector<int,std::allocator<int> >::push_back
  000ff	83 c7 0c	 add	 edi, 12			; 0000000cH
  00102	ff 4d 10	 dec	 DWORD PTR tv156[ebp]
  00105	75 e2		 jne	 SHORT $LL12@GetUserInf@3
$LN10@GetUserInf@3:

; 1087 : 	}
; 1088 : 
; 1089 : 	for (int i = 0; i < MAX_INVENTORY ; i++)

  00107	33 ff		 xor	 edi, edi
$LL9@GetUserInf@3:

; 1090 : 	{
; 1091 : 		DWORD dwItemCode = 0;
; 1092 : 		const ITEM_DATA &rkItem = g_MyInfo.GetCharItemToClassType( iClassType, i );

  00109	57		 push	 edi
  0010a	ff 75 0c	 push	 DWORD PTR _iClassType$[ebp]
  0010d	e8 00 00 00 00	 call	 ?GetSingleton@ioMyInfo@@SAAAV1@XZ ; ioMyInfo::GetSingleton
  00112	8b c8		 mov	 ecx, eax
  00114	e8 00 00 00 00	 call	 ?GetCharItemToClassType@ioMyInfo@@QAEABUITEM_DATA@@HH@Z ; ioMyInfo::GetCharItemToClassType

; 1093 : 		dwItemCode = rkItem.m_item_code;

  00119	8b 00		 mov	 eax, DWORD PTR [eax]
  0011b	89 45 10	 mov	 DWORD PTR _dwItemCode$546634[ebp], eax

; 1094 : 		rkUserInfo.m_vItemCodeVec.push_back( dwItemCode );

  0011e	8d 45 10	 lea	 eax, DWORD PTR _dwItemCode$546634[ebp]
  00121	50		 push	 eax
  00122	8d 4e 58	 lea	 ecx, DWORD PTR [esi+88]
  00125	e8 00 00 00 00	 call	 ?push_back@?$vector@KV?$allocator@K@std@@@std@@QAEXABK@Z ; std::vector<unsigned long,std::allocator<unsigned long> >::push_back
  0012a	47		 inc	 edi
  0012b	83 ff 04	 cmp	 edi, 4
  0012e	7c d9		 jl	 SHORT $LL9@GetUserInf@3

; 1095 : 	}
; 1096 : 
; 1097 : 	const CHARACTER &rkCHARACTER = g_MyInfo.GetCharacterToClassType( iClassType );

  00130	ff 75 0c	 push	 DWORD PTR _iClassType$[ebp]
  00133	e8 00 00 00 00	 call	 ?GetSingleton@ioMyInfo@@SAAAV1@XZ ; ioMyInfo::GetSingleton
  00138	8b c8		 mov	 ecx, eax
  0013a	e8 00 00 00 00	 call	 ?GetCharacterToClassType@ioMyInfo@@QAEABUCHARACTER@@H@Z ; ioMyInfo::GetCharacterToClassType
  0013f	8b f8		 mov	 edi, eax
  00141	8d 9f c4 02 00
	00		 lea	 ebx, DWORD PTR [edi+708]
  00147	c7 45 10 04 00
	00 00		 mov	 DWORD PTR tv128[ebp], 4
$LL6@GetUserInf@3:

; 1098 : 	for ( int i=0; i<MAX_INVENTORY; i++ )
; 1099 : 	{
; 1100 : 		int nCostumeCode = rkCHARACTER.m_EquipCostume[i].m_CostumeCode;

  0014e	8b 03		 mov	 eax, DWORD PTR [ebx]
  00150	89 45 f0	 mov	 DWORD PTR _nCostumeCode$546641[ebp], eax

; 1101 : 		rkUserInfo.m_vCostumeCodeVec.push_back( nCostumeCode );

  00153	8d 45 f0	 lea	 eax, DWORD PTR _nCostumeCode$546641[ebp]
  00156	50		 push	 eax
  00157	8d 4e 68	 lea	 ecx, DWORD PTR [esi+104]
  0015a	e8 00 00 00 00	 call	 ?push_back@?$vector@HV?$allocator@H@std@@@std@@QAEXABH@Z ; std::vector<int,std::allocator<int> >::push_back
  0015f	83 c3 10	 add	 ebx, 16			; 00000010H
  00162	ff 4d 10	 dec	 DWORD PTR tv128[ebp]
  00165	75 e7		 jne	 SHORT $LL6@GetUserInf@3

; 1102 : 	}
; 1103 : 
; 1104 : 	for(int i=0; i<MAX_ACC_INVENTORY; i++ )

  00167	81 c7 04 03 00
	00		 add	 edi, 772		; 00000304H
  0016d	c7 45 10 03 00
	00 00		 mov	 DWORD PTR tv272[ebp], 3
$LL3@GetUserInf@3:

; 1105 : 	{
; 1106 : 		int iAccessoryCode = rkCHARACTER.m_EquipAccessory[i].m_iAccessoryCode;

  00174	8b 07		 mov	 eax, DWORD PTR [edi]
  00176	89 45 f0	 mov	 DWORD PTR _iAccessoryCode$546646[ebp], eax

; 1107 : 		rkUserInfo.m_vAccessoryCodeVec.push_back( iAccessoryCode );

  00179	8d 45 f0	 lea	 eax, DWORD PTR _iAccessoryCode$546646[ebp]
  0017c	50		 push	 eax
  0017d	8d 4e 78	 lea	 ecx, DWORD PTR [esi+120]
  00180	e8 00 00 00 00	 call	 ?push_back@?$vector@HV?$allocator@H@std@@@std@@QAEXABH@Z ; std::vector<int,std::allocator<int> >::push_back
  00185	83 c7 0c	 add	 edi, 12			; 0000000cH
  00188	ff 4d 10	 dec	 DWORD PTR tv272[ebp]
  0018b	75 e7		 jne	 SHORT $LL3@GetUserInf@3

; 1108 : 	}
; 1109 : 	
; 1110 : 	rkUserInfo.m_sName				= sName;

  0018d	ff 75 08	 push	 DWORD PTR _sName$[ebp]
  00190	8d 4e 08	 lea	 ecx, DWORD PTR [esi+8]
  00193	ff 15 00 00 00
	00		 call	 DWORD PTR __imp_??4ioHashString@@QAEAAV0@ABV0@@Z

; 1111 : 	rkUserInfo.m_iClassLevel		= g_MyInfo.GetClassLevel( iClassType, false );

  00199	8b 7d 0c	 mov	 edi, DWORD PTR _iClassType$[ebp]
  0019c	6a 00		 push	 0
  0019e	57		 push	 edi
  0019f	e8 00 00 00 00	 call	 ?GetSingleton@ioMyInfo@@SAAAV1@XZ ; ioMyInfo::GetSingleton
  001a4	8b c8		 mov	 ecx, eax
  001a6	e8 00 00 00 00	 call	 ?GetClassLevel@ioMyInfo@@QAEHH_N@Z ; ioMyInfo::GetClassLevel

; 1112 : 	rkUserInfo.m_iClassType			= iClassType;
; 1113 : 	rkUserInfo.m_iAwakeType			= g_MyInfo.GetAwakeType( iClassType );

  001ab	57		 push	 edi
  001ac	89 46 1c	 mov	 DWORD PTR [esi+28], eax
  001af	89 7e 18	 mov	 DWORD PTR [esi+24], edi
  001b2	e8 00 00 00 00	 call	 ?GetSingleton@ioMyInfo@@SAAAV1@XZ ; ioMyInfo::GetSingleton
  001b7	8b c8		 mov	 ecx, eax
  001b9	e8 00 00 00 00	 call	 ?GetAwakeType@ioMyInfo@@QAEEH@Z ; ioMyInfo::GetAwakeType
  001be	0f b6 c0	 movzx	 eax, al

; 1114 : 	rkUserInfo.m_iPowerUpCharGrade	= g_MyInfo.GetCharPowerUpGradeByClassType( iClassType );

  001c1	57		 push	 edi
  001c2	89 46 24	 mov	 DWORD PTR [esi+36], eax
  001c5	e8 00 00 00 00	 call	 ?GetSingleton@ioMyInfo@@SAAAV1@XZ ; ioMyInfo::GetSingleton
  001ca	8b c8		 mov	 ecx, eax
  001cc	e8 00 00 00 00	 call	 ?GetCharPowerUpGradeByClassType@ioMyInfo@@QAE?AW4PowerUpGradeType@@H@Z ; ioMyInfo::GetCharPowerUpGradeByClassType

; 1115 : 
; 1116 : 	return true;

  001d1	83 4d fc ff	 or	 DWORD PTR __$EHRec$[ebp+8], -1
  001d5	8d 4d e0	 lea	 ecx, DWORD PTR _kExMedalSlotVec$[ebp]
  001d8	89 46 20	 mov	 DWORD PTR [esi+32], eax
  001db	e8 00 00 00 00	 call	 ?_Tidy@?$vector@UExpandMedalSlot@ioExpandMedalSlotManager@@V?$allocator@UExpandMedalSlot@ioExpandMedalSlotManager@@@std@@@std@@IAEXXZ ; std::vector<ioExpandMedalSlotManager::ExpandMedalSlot,std::allocator<ioExpandMedalSlotManager::ExpandMedalSlot> >::_Tidy
  001e0	b0 01		 mov	 al, 1
$LN21@GetUserInf@3:

; 1117 : }

  001e2	e8 00 00 00 00	 call	 __EH_epilog3
  001e7	c2 0c 00	 ret	 12			; 0000000cH
_TEXT	ENDS
;	COMDAT text$x
text$x	SEGMENT
__unwindfunclet$?GetUserInfoMy@UserInfoToolTip@@IAE_NABVioHashString@@HAAUUserInfo@1@@Z$0:
  00000	8d 4d e0	 lea	 ecx, DWORD PTR _kExMedalSlotVec$[ebp]
  00003	e9 00 00 00 00	 jmp	 ??1?$vector@UExpandMedalSlot@ioExpandMedalSlotManager@@V?$allocator@UExpandMedalSlot@ioExpandMedalSlotManager@@@std@@@std@@QAE@XZ ; std::vector<ioExpandMedalSlotManager::ExpandMedalSlot,std::allocator<ioExpandMedalSlotManager::ExpandMedalSlot> >::~vector<ioExpandMedalSlotManager::ExpandMedalSlot,std::allocator<ioExpandMedalSlotManager::ExpandMedalSlot> >
__ehhandler$?GetUserInfoMy@UserInfoToolTip@@IAE_NABVioHashString@@HAAUUserInfo@1@@Z:
  00008	8b 54 24 08	 mov	 edx, DWORD PTR [esp+8]
  0000c	8d 42 0c	 lea	 eax, DWORD PTR [edx+12]
  0000f	8b 4a dc	 mov	 ecx, DWORD PTR [edx-36]
  00012	33 c8		 xor	 ecx, eax
  00014	e8 00 00 00 00	 call	 @__security_check_cookie@4
  00019	b8 00 00 00 00	 mov	 eax, OFFSET __ehfuncinfo$?GetUserInfoMy@UserInfoToolTip@@IAE_NABVioHashString@@HAAUUserInfo@1@@Z
  0001e	e9 00 00 00 00	 jmp	 ___CxxFrameHandler3
text$x	ENDS
?GetUserInfoMy@UserInfoToolTip@@IAE_NABVioHashString@@HAAUUserInfo@1@@Z ENDP ; UserInfoToolTip::GetUserInfoMy
PUBLIC	?_Reserve@?$vector@VioHashString@@V?$allocator@VioHashString@@@std@@@std@@IAEXI@Z ; std::vector<ioHashString,std::allocator<ioHashString> >::_Reserve
; Function compile flags: /Ogsp
; File c:\program files (x86)\microsoft visual studio 10.0\vc\include\vector
;	COMDAT ?_Reserve@?$vector@VioHashString@@V?$allocator@VioHashString@@@std@@@std@@IAEXI@Z
_TEXT	SEGMENT
__Count$ = 8						; size = 4
?_Reserve@?$vector@VioHashString@@V?$allocator@VioHashString@@@std@@@std@@IAEXI@Z PROC ; std::vector<ioHashString,std::allocator<ioHashString> >::_Reserve, COMDAT
; _this$ = ecx

; 1290 : 		{	// ensure room for _Count new elements, grow exponentially

  00000	55		 push	 ebp
  00001	8b ec		 mov	 ebp, esp
  00003	56		 push	 esi
  00004	8b f1		 mov	 esi, ecx

; 1291 : 		size_type _Size = size();

  00006	8b 0e		 mov	 ecx, DWORD PTR [esi]
  00008	8b 46 04	 mov	 eax, DWORD PTR [esi+4]
  0000b	2b c1		 sub	 eax, ecx

; 1292 : 		if (max_size() - _Count < _Size)

  0000d	ba ff ff ff 0f	 mov	 edx, 268435455		; 0fffffffH
  00012	2b 55 08	 sub	 edx, DWORD PTR __Count$[ebp]
  00015	c1 f8 04	 sar	 eax, 4
  00018	3b d0		 cmp	 edx, eax
  0001a	73 0b		 jae	 SHORT $LN4@Reserve@4

; 1293 : 			_Xlen();

  0001c	68 00 00 00 00	 push	 OFFSET ??_C@_0BD@OLBABOEK@vector?$DMT?$DO?5too?5long?$AA@
  00021	ff 15 00 00 00
	00		 call	 DWORD PTR __imp_?_Xlength_error@std@@YAXPBD@Z
$LN21@Reserve@4:
$LN4@Reserve@4:

; 1294 : 		else if ((_Size += _Count) <= capacity())

  00027	8b 56 08	 mov	 edx, DWORD PTR [esi+8]
  0002a	03 45 08	 add	 eax, DWORD PTR __Count$[ebp]
  0002d	2b d1		 sub	 edx, ecx
  0002f	c1 fa 04	 sar	 edx, 4
  00032	3b c2		 cmp	 eax, edx
  00034	76 10		 jbe	 SHORT $LN1@Reserve@4

; 1295 : 			;
; 1296 : 		else
; 1297 : 			reserve(_Grow_to(_Size));

  00036	50		 push	 eax
  00037	8b ce		 mov	 ecx, esi
  00039	e8 00 00 00 00	 call	 ?_Grow_to@?$vector@VioHashString@@V?$allocator@VioHashString@@@std@@@std@@IBEII@Z ; std::vector<ioHashString,std::allocator<ioHashString> >::_Grow_to
  0003e	50		 push	 eax
  0003f	8b ce		 mov	 ecx, esi
  00041	e8 00 00 00 00	 call	 ?reserve@?$vector@VioHashString@@V?$allocator@VioHashString@@@std@@@std@@QAEXI@Z ; std::vector<ioHashString,std::allocator<ioHashString> >::reserve
$LN1@Reserve@4:
  00046	5e		 pop	 esi

; 1298 : 		}

  00047	5d		 pop	 ebp
  00048	c2 04 00	 ret	 4
$LN20@Reserve@4:
?_Reserve@?$vector@VioHashString@@V?$allocator@VioHashString@@@std@@@std@@IAEXI@Z ENDP ; std::vector<ioHashString,std::allocator<ioHashString> >::_Reserve
_TEXT	ENDS
PUBLIC	??1?$vector@VioHashString@@V?$allocator@VioHashString@@@std@@@std@@QAE@XZ ; std::vector<ioHashString,std::allocator<ioHashString> >::~vector<ioHashString,std::allocator<ioHashString> >
; Function compile flags: /Ogsp
;	COMDAT ??1?$vector@VioHashString@@V?$allocator@VioHashString@@@std@@@std@@QAE@XZ
_TEXT	SEGMENT
??1?$vector@VioHashString@@V?$allocator@VioHashString@@@std@@@std@@QAE@XZ PROC ; std::vector<ioHashString,std::allocator<ioHashString> >::~vector<ioHashString,std::allocator<ioHashString> >, COMDAT
; _this$ = ecx

; 705  : 		_Tidy();

  00000	e9 00 00 00 00	 jmp	 ?_Tidy@?$vector@VioHashString@@V?$allocator@VioHashString@@@std@@@std@@IAEXXZ ; std::vector<ioHashString,std::allocator<ioHashString> >::_Tidy
??1?$vector@VioHashString@@V?$allocator@VioHashString@@@std@@@std@@QAE@XZ ENDP ; std::vector<ioHashString,std::allocator<ioHashString> >::~vector<ioHashString,std::allocator<ioHashString> >
_TEXT	ENDS
PUBLIC	?clear@?$vector@VioHashString@@V?$allocator@VioHashString@@@std@@@std@@QAEXXZ ; std::vector<ioHashString,std::allocator<ioHashString> >::clear
; Function compile flags: /Ogsp
;	COMDAT ?clear@?$vector@VioHashString@@V?$allocator@VioHashString@@@std@@@std@@QAEXXZ
_TEXT	SEGMENT
$T561054 = -4						; size = 4
?clear@?$vector@VioHashString@@V?$allocator@VioHashString@@@std@@@std@@QAEXXZ PROC ; std::vector<ioHashString,std::allocator<ioHashString> >::clear, COMDAT
; _this$ = ecx

; 1217 : 		{	// erase all

  00000	55		 push	 ebp
  00001	8b ec		 mov	 ebp, esp
  00003	51		 push	 ecx

; 1218 : 		erase(begin(), end());

  00004	8b 41 04	 mov	 eax, DWORD PTR [ecx+4]
  00007	8b 11		 mov	 edx, DWORD PTR [ecx]
  00009	50		 push	 eax
  0000a	52		 push	 edx
  0000b	8d 45 fc	 lea	 eax, DWORD PTR $T561054[ebp]
  0000e	50		 push	 eax
  0000f	e8 00 00 00 00	 call	 ?erase@?$vector@VioHashString@@V?$allocator@VioHashString@@@std@@@std@@QAE?AV?$_Vector_iterator@V?$_Vector_val@VioHashString@@V?$allocator@VioHashString@@@std@@@std@@@2@V?$_Vector_const_iterator@V?$_Vector_val@VioHashString@@V?$allocator@VioHashString@@@std@@@std@@@2@0@Z ; std::vector<ioHashString,std::allocator<ioHashString> >::erase

; 1219 : 		}

  00014	c9		 leave
  00015	c3		 ret	 0
?clear@?$vector@VioHashString@@V?$allocator@VioHashString@@@std@@@std@@QAEXXZ ENDP ; std::vector<ioHashString,std::allocator<ioHashString> >::clear
_TEXT	ENDS
PUBLIC	??_7UserInfoToolTip@@6B@			; UserInfoToolTip::`vftable'
PUBLIC	??0UserInfoToolTip@@QAE@XZ			; UserInfoToolTip::UserInfoToolTip
PUBLIC	??_R4UserInfoToolTip@@6B@			; UserInfoToolTip::`RTTI Complete Object Locator'
PUBLIC	??_R0?AVUserInfoToolTip@@@8			; UserInfoToolTip `RTTI Type Descriptor'
PUBLIC	??_R3UserInfoToolTip@@8				; UserInfoToolTip::`RTTI Class Hierarchy Descriptor'
PUBLIC	??_R2UserInfoToolTip@@8				; UserInfoToolTip::`RTTI Base Class Array'
PUBLIC	??_R1A@?0A@EA@UserInfoToolTip@@8		; UserInfoToolTip::`RTTI Base Class Descriptor at (0,-1,0,64)'
PUBLIC	??_R1A@?0A@EA@ioWnd@@8				; ioWnd::`RTTI Base Class Descriptor at (0,-1,0,64)'
PUBLIC	??_R3ioWnd@@8					; ioWnd::`RTTI Class Hierarchy Descriptor'
PUBLIC	??_R2ioWnd@@8					; ioWnd::`RTTI Base Class Array'
PUBLIC	?ParseExtraInfo@UserInfoToolTip@@UAEXAAVioXMLElement@@@Z ; UserInfoToolTip::ParseExtraInfo
PUBLIC	?OnProcess@UserInfoToolTip@@MAEXM@Z		; UserInfoToolTip::OnProcess
EXTRN	__imp_??1ioWnd@@UAE@XZ:PROC
EXTRN	__imp_??0ioWnd@@QAE@XZ:PROC
EXTRN	?AddTooltipHelp@ioWnd@@UAEXABVioHashString@@00@Z:PROC ; ioWnd::AddTooltipHelp
EXTRN	?AddNamedRenderImage@ioWnd@@UAEXABVioHashString@@PAVioUIRenderImage@@@Z:PROC ; ioWnd::AddNamedRenderImage
EXTRN	?RemoveNamedRenderImage@ioWnd@@UAEXABVioHashString@@@Z:PROC ; ioWnd::RemoveNamedRenderImage
EXTRN	?GetNamedRenderImage@ioWnd@@UBEPAVioUIRenderImage@@ABVioHashString@@@Z:PROC ; ioWnd::GetNamedRenderImage
EXTRN	?SetWindowAlpha@ioWnd@@UAEXH@Z:PROC		; ioWnd::SetWindowAlpha
EXTRN	?SetActive@ioWnd@@UAEXXZ:PROC			; ioWnd::SetActive
EXTRN	?SetInActive@ioWnd@@UAEXXZ:PROC			; ioWnd::SetInActive
EXTRN	?ClearElementImageList@ioWnd@@UAEXXZ:PROC	; ioWnd::ClearElementImageList
EXTRN	?SetSize@ioWnd@@UAEXHH@Z:PROC			; ioWnd::SetSize
EXTRN	?SetPositionToDefault@ioWnd@@UAEXHH_N0@Z:PROC	; ioWnd::SetPositionToDefault
EXTRN	?IsNeedProcess@ioWnd@@UBE_NXZ:PROC		; ioWnd::IsNeedProcess
EXTRN	?IsCanMouseReaction@ioWnd@@UBE_NXZ:PROC		; ioWnd::IsCanMouseReaction
EXTRN	?AddChild@ioWnd@@UAEXPAV1@@Z:PROC		; ioWnd::AddChild
EXTRN	?DeleteChild@ioWnd@@UAEXK@Z:PROC		; ioWnd::DeleteChild
EXTRN	?DeleteAllChild@ioWnd@@UAEXXZ:PROC		; ioWnd::DeleteAllChild
EXTRN	?OnRenderShowAndHide@ioWnd@@MAE_NXZ:PROC	; ioWnd::OnRenderShowAndHide
EXTRN	?OnRenderShowAndHideByDefault@ioWnd@@MAE_NK@Z:PROC ; ioWnd::OnRenderShowAndHideByDefault
EXTRN	?OnRenderShowAndHideByTop@ioWnd@@MAE_NK@Z:PROC	; ioWnd::OnRenderShowAndHideByTop
EXTRN	?OnRenderShowAndHideByDown@ioWnd@@MAE_NK@Z:PROC	; ioWnd::OnRenderShowAndHideByDown
EXTRN	?OnMouseProcess@ioWnd@@MAEXABVioMouse@@@Z:PROC	; ioWnd::OnMouseProcess
EXTRN	?CheckFrameReSize@ioWnd@@MAEXHHHH@Z:PROC	; ioWnd::CheckFrameReSize
EXTRN	?RenderImageList@ioWnd@@MAEXHHW4UIRenderType@@@Z:PROC ; ioWnd::RenderImageList
EXTRN	?iwm_create@ioWnd@@UAEXXZ:PROC			; ioWnd::iwm_create
EXTRN	?iwm_destroy@ioWnd@@UAEXXZ:PROC			; ioWnd::iwm_destroy
EXTRN	?iwm_lbuttondown@ioWnd@@UAEXABVioMouse@@@Z:PROC	; ioWnd::iwm_lbuttondown
EXTRN	?iwm_lbuttonup@ioWnd@@UAEXABVioMouse@@@Z:PROC	; ioWnd::iwm_lbuttonup
EXTRN	?iwm_lbuttonDBLCLK@ioWnd@@UAEXABVioMouse@@@Z:PROC ; ioWnd::iwm_lbuttonDBLCLK
EXTRN	?iwm_rbuttondown@ioWnd@@UAEXABVioMouse@@@Z:PROC	; ioWnd::iwm_rbuttondown
EXTRN	?iwm_rbuttonup@ioWnd@@UAEXABVioMouse@@@Z:PROC	; ioWnd::iwm_rbuttonup
EXTRN	?iwm_command@ioWnd@@UAEXPAV1@HK@Z:PROC		; ioWnd::iwm_command
EXTRN	?iwm_mouseover@ioWnd@@UAEXABVioMouse@@@Z:PROC	; ioWnd::iwm_mouseover
EXTRN	?iwm_mousemove@ioWnd@@UAEXABVioMouse@@@Z:PROC	; ioWnd::iwm_mousemove
EXTRN	?iwm_mouseleave@ioWnd@@UAEXABVioMouse@@@Z:PROC	; ioWnd::iwm_mouseleave
EXTRN	?iwm_vscroll@ioWnd@@UAEXKH@Z:PROC		; ioWnd::iwm_vscroll
EXTRN	?iwm_wheel@ioWnd@@UAEXH@Z:PROC			; ioWnd::iwm_wheel
EXTRN	?iwm_hide@ioWnd@@UAEXXZ:PROC			; ioWnd::iwm_hide
EXTRN	?iwm_esc@ioWnd@@UAE_NXZ:PROC			; ioWnd::iwm_esc
EXTRN	?iwm_spacebar@ioWnd@@UAE_NXZ:PROC		; ioWnd::iwm_spacebar
EXTRN	?iwm_gototop@ioWnd@@UAEXXZ:PROC			; ioWnd::iwm_gototop
EXTRN	?iwm_dragenter@ioWnd@@UAE?AW4IWDropEffect@@PAVioDragItem@@ABVioMouse@@@Z:PROC ; ioWnd::iwm_dragenter
EXTRN	?iwm_dragover@ioWnd@@UAE?AW4IWDropEffect@@PAVioDragItem@@ABVioMouse@@@Z:PROC ; ioWnd::iwm_dragover
EXTRN	?iwm_dragleave@ioWnd@@UAEXXZ:PROC		; ioWnd::iwm_dragleave
EXTRN	?iwm_dropitem@ioWnd@@UAE_NPAVioDragItem@@ABVioMouse@@PAV1@@Z:PROC ; ioWnd::iwm_dropitem
EXTRN	?iwm_dropdone@ioWnd@@UAEXPAVioDragItem@@PAV1@_N@Z:PROC ; ioWnd::iwm_dropdone
EXTRN	?IsEXType@ioWnd@@UBE_NXZ:PROC			; ioWnd::IsEXType
EXTRN	?GetWndType@ioWnd@@UBEKXZ:PROC			; ioWnd::GetWndType
EXTRN	?RenderWnd@ioWnd@@UAEXXZ:PROC			; ioWnd::RenderWnd
EXTRN	?SetIDEX@ioWnd@@UAEXAAK_N@Z:PROC		; ioWnd::SetIDEX
EXTRN	?ParseXML@ioWnd@@UAEXAAVioXMLElement@@@Z:PROC	; ioWnd::ParseXML
EXTRN	?GetHeaderFileName@ioWnd@@UAEPBDXZ:PROC		; ioWnd::GetHeaderFileName
EXTRN	?GetTemplateName@ioWnd@@UAEPBDXZ:PROC		; ioWnd::GetTemplateName
EXTRN	?GetDefClassName@ioWnd@@UBEPBDXZ:PROC		; ioWnd::GetDefClassName
EXTRN	?_Clone@ioWnd@@UAEPAV1@XZ:PROC			; ioWnd::_Clone
EXTRN	?Copy@ioWnd@@UAEXPAV1@@Z:PROC			; ioWnd::Copy
EXTRN	?Save@ioWnd@@UAE_NAAVioXMLElement@@@Z:PROC	; ioWnd::Save
EXTRN	?SetSaveData@ioWnd@@UAEXAAVioXMLElement@@@Z:PROC ; ioWnd::SetSaveData
EXTRN	?SetPosX@ioWnd@@UAEXH@Z:PROC			; ioWnd::SetPosX
EXTRN	?SetPosY@ioWnd@@UAEXH@Z:PROC			; ioWnd::SetPosY
EXTRN	?SetWidth@ioWnd@@UAEXH@Z:PROC			; ioWnd::SetWidth
EXTRN	?SetHeight@ioWnd@@UAEXH@Z:PROC			; ioWnd::SetHeight
EXTRN	?GetNumFixedRenderFrame@ioWnd@@UBEHXZ:PROC	; ioWnd::GetNumFixedRenderFrame
EXTRN	?GetFixedRenderFrameType@ioWnd@@UAEPBDH@Z:PROC	; ioWnd::GetFixedRenderFrameType
EXTRN	?GetRenderFrame@ioWnd@@UAEPAPAVioUIRenderElement@@PBD@Z:PROC ; ioWnd::GetRenderFrame
EXTRN	?GetNumFixedRenderImage@ioWnd@@UBEHXZ:PROC	; ioWnd::GetNumFixedRenderImage
EXTRN	?GetFixedRenderImageType@ioWnd@@UAEPBDH@Z:PROC	; ioWnd::GetFixedRenderImageType
EXTRN	?GetRenderImage@ioWnd@@UAEPAPAVioUIRenderElement@@PBD@Z:PROC ; ioWnd::GetRenderImage
EXTRN	?AddEffect@ioWnd@@UAEXABVioHashString@@PAVioUI3DEffectRender@@@Z:PROC ; ioWnd::AddEffect
EXTRN	?GetEffect@ioWnd@@UAEPAVioUI3DEffectRender@@VioHashString@@@Z:PROC ; ioWnd::GetEffect
EXTRN	??_EUserInfoToolTip@@UAEPAXI@Z:PROC		; UserInfoToolTip::`vector deleting destructor'
;	COMDAT ??_R2ioWnd@@8
; File c:\program files (x86)\microsoft visual studio 10.0\vc\include\xmemory
rdata$r	SEGMENT
??_R2ioWnd@@8 DD FLAT:??_R1A@?0A@EA@ioWnd@@8		; ioWnd::`RTTI Base Class Array'
rdata$r	ENDS
;	COMDAT ??_R3ioWnd@@8
rdata$r	SEGMENT
??_R3ioWnd@@8 DD 00H					; ioWnd::`RTTI Class Hierarchy Descriptor'
	DD	00H
	DD	01H
	DD	FLAT:??_R2ioWnd@@8
rdata$r	ENDS
;	COMDAT ??_R1A@?0A@EA@ioWnd@@8
rdata$r	SEGMENT
??_R1A@?0A@EA@ioWnd@@8 DD FLAT:??_R0?AVioWnd@@@8	; ioWnd::`RTTI Base Class Descriptor at (0,-1,0,64)'
	DD	00H
	DD	00H
	DD	0ffffffffH
	DD	00H
	DD	040H
	DD	FLAT:??_R3ioWnd@@8
rdata$r	ENDS
;	COMDAT ??_R1A@?0A@EA@UserInfoToolTip@@8
rdata$r	SEGMENT
??_R1A@?0A@EA@UserInfoToolTip@@8 DD FLAT:??_R0?AVUserInfoToolTip@@@8 ; UserInfoToolTip::`RTTI Base Class Descriptor at (0,-1,0,64)'
	DD	01H
	DD	00H
	DD	0ffffffffH
	DD	00H
	DD	040H
	DD	FLAT:??_R3UserInfoToolTip@@8
rdata$r	ENDS
;	COMDAT ??_R2UserInfoToolTip@@8
rdata$r	SEGMENT
??_R2UserInfoToolTip@@8 DD FLAT:??_R1A@?0A@EA@UserInfoToolTip@@8 ; UserInfoToolTip::`RTTI Base Class Array'
	DD	FLAT:??_R1A@?0A@EA@ioWnd@@8
rdata$r	ENDS
;	COMDAT ??_R3UserInfoToolTip@@8
rdata$r	SEGMENT
??_R3UserInfoToolTip@@8 DD 00H				; UserInfoToolTip::`RTTI Class Hierarchy Descriptor'
	DD	00H
	DD	02H
	DD	FLAT:??_R2UserInfoToolTip@@8
rdata$r	ENDS
;	COMDAT ??_R0?AVUserInfoToolTip@@@8
_DATA	SEGMENT
??_R0?AVUserInfoToolTip@@@8 DD FLAT:??_7type_info@@6B@	; UserInfoToolTip `RTTI Type Descriptor'
	DD	00H
	DB	'.?AVUserInfoToolTip@@', 00H
_DATA	ENDS
;	COMDAT ??_R4UserInfoToolTip@@6B@
rdata$r	SEGMENT
??_R4UserInfoToolTip@@6B@ DD 00H			; UserInfoToolTip::`RTTI Complete Object Locator'
	DD	00H
	DD	00H
	DD	FLAT:??_R0?AVUserInfoToolTip@@@8
	DD	FLAT:??_R3UserInfoToolTip@@8
rdata$r	ENDS
;	COMDAT ??_7UserInfoToolTip@@6B@
CONST	SEGMENT
??_7UserInfoToolTip@@6B@ DD FLAT:??_R4UserInfoToolTip@@6B@ ; UserInfoToolTip::`vftable'
	DD	FLAT:?AddRenderFrame@UserInfoToolTip@@UAEXABVioHashString@@PAVioUIRenderFrame@@@Z
	DD	FLAT:?AddRenderImage@UserInfoToolTip@@UAEXABVioHashString@@PAVioUIRenderImage@@@Z
	DD	FLAT:?AddTooltipHelp@ioWnd@@UAEXABVioHashString@@00@Z
	DD	FLAT:?ParseExtraInfo@UserInfoToolTip@@UAEXAAVioXMLElement@@@Z
	DD	FLAT:?AddNamedRenderImage@ioWnd@@UAEXABVioHashString@@PAVioUIRenderImage@@@Z
	DD	FLAT:?RemoveNamedRenderImage@ioWnd@@UAEXABVioHashString@@@Z
	DD	FLAT:?GetNamedRenderImage@ioWnd@@UBEPAVioUIRenderImage@@ABVioHashString@@@Z
	DD	FLAT:?SetWindowAlpha@ioWnd@@UAEXH@Z
	DD	FLAT:?SetActive@ioWnd@@UAEXXZ
	DD	FLAT:?SetInActive@ioWnd@@UAEXXZ
	DD	FLAT:?ClearElementImageList@ioWnd@@UAEXXZ
	DD	FLAT:?SetSize@ioWnd@@UAEXHH@Z
	DD	FLAT:?SetPositionToDefault@ioWnd@@UAEXHH_N0@Z
	DD	FLAT:?IsNeedProcess@ioWnd@@UBE_NXZ
	DD	FLAT:?IsCanMouseReaction@ioWnd@@UBE_NXZ
	DD	FLAT:?AddChild@ioWnd@@UAEXPAV1@@Z
	DD	FLAT:?DeleteChild@ioWnd@@UAEXK@Z
	DD	FLAT:?DeleteAllChild@ioWnd@@UAEXXZ
	DD	FLAT:?OnRenderShowAndHide@ioWnd@@MAE_NXZ
	DD	FLAT:?OnRenderShowAndHideByDefault@ioWnd@@MAE_NK@Z
	DD	FLAT:?OnRenderShowAndHideByTop@ioWnd@@MAE_NK@Z
	DD	FLAT:?OnRenderShowAndHideByDown@ioWnd@@MAE_NK@Z
	DD	FLAT:?OnRender@UserInfoToolTip@@MAEXXZ
	DD	FLAT:?OnRenderAfterChild@UserInfoToolTip@@MAEXXZ
	DD	FLAT:?OnProcess@UserInfoToolTip@@MAEXM@Z
	DD	FLAT:?OnMouseProcess@ioWnd@@MAEXABVioMouse@@@Z
	DD	FLAT:?CheckFrameReSize@ioWnd@@MAEXHHHH@Z
	DD	FLAT:?RenderImageList@ioWnd@@MAEXHHW4UIRenderType@@@Z
	DD	FLAT:?iwm_create@ioWnd@@UAEXXZ
	DD	FLAT:?iwm_destroy@ioWnd@@UAEXXZ
	DD	FLAT:?iwm_lbuttondown@ioWnd@@UAEXABVioMouse@@@Z
	DD	FLAT:?iwm_lbuttonup@ioWnd@@UAEXABVioMouse@@@Z
	DD	FLAT:?iwm_lbuttonDBLCLK@ioWnd@@UAEXABVioMouse@@@Z
	DD	FLAT:?iwm_rbuttondown@ioWnd@@UAEXABVioMouse@@@Z
	DD	FLAT:?iwm_rbuttonup@ioWnd@@UAEXABVioMouse@@@Z
	DD	FLAT:?iwm_command@ioWnd@@UAEXPAV1@HK@Z
	DD	FLAT:?iwm_mouseover@ioWnd@@UAEXABVioMouse@@@Z
	DD	FLAT:?iwm_mousemove@ioWnd@@UAEXABVioMouse@@@Z
	DD	FLAT:?iwm_mouseleave@ioWnd@@UAEXABVioMouse@@@Z
	DD	FLAT:?iwm_vscroll@ioWnd@@UAEXKH@Z
	DD	FLAT:?iwm_wheel@ioWnd@@UAEXH@Z
	DD	FLAT:?iwm_show@UserInfoToolTip@@UAEXXZ
	DD	FLAT:?iwm_hide@ioWnd@@UAEXXZ
	DD	FLAT:?iwm_esc@ioWnd@@UAE_NXZ
	DD	FLAT:?iwm_spacebar@ioWnd@@UAE_NXZ
	DD	FLAT:?iwm_gototop@ioWnd@@UAEXXZ
	DD	FLAT:?iwm_dragenter@ioWnd@@UAE?AW4IWDropEffect@@PAVioDragItem@@ABVioMouse@@@Z
	DD	FLAT:?iwm_dragover@ioWnd@@UAE?AW4IWDropEffect@@PAVioDragItem@@ABVioMouse@@@Z
	DD	FLAT:?iwm_dragleave@ioWnd@@UAEXXZ
	DD	FLAT:?iwm_dropitem@ioWnd@@UAE_NPAVioDragItem@@ABVioMouse@@PAV1@@Z
	DD	FLAT:?iwm_dropdone@ioWnd@@UAEXPAVioDragItem@@PAV1@_N@Z
	DD	FLAT:?IsEXType@ioWnd@@UBE_NXZ
	DD	FLAT:?GetWndType@ioWnd@@UBEKXZ
	DD	FLAT:?RenderWnd@ioWnd@@UAEXXZ
	DD	FLAT:?SetIDEX@ioWnd@@UAEXAAK_N@Z
	DD	FLAT:?ParseXML@ioWnd@@UAEXAAVioXMLElement@@@Z
	DD	FLAT:?GetHeaderFileName@ioWnd@@UAEPBDXZ
	DD	FLAT:?GetTemplateName@ioWnd@@UAEPBDXZ
	DD	FLAT:?GetDefClassName@ioWnd@@UBEPBDXZ
	DD	FLAT:?_Clone@ioWnd@@UAEPAV1@XZ
	DD	FLAT:?Copy@ioWnd@@UAEXPAV1@@Z
	DD	FLAT:?Save@ioWnd@@UAE_NAAVioXMLElement@@@Z
	DD	FLAT:?SetSaveData@ioWnd@@UAEXAAVioXMLElement@@@Z
	DD	FLAT:?SetPosX@ioWnd@@UAEXH@Z
	DD	FLAT:?SetPosY@ioWnd@@UAEXH@Z
	DD	FLAT:?SetWidth@ioWnd@@UAEXH@Z
	DD	FLAT:?SetHeight@ioWnd@@UAEXH@Z
	DD	FLAT:?GetNumFixedRenderFrame@ioWnd@@UBEHXZ
	DD	FLAT:?GetFixedRenderFrameType@ioWnd@@UAEPBDH@Z
	DD	FLAT:?GetRenderFrame@ioWnd@@UAEPAPAVioUIRenderElement@@PBD@Z
	DD	FLAT:?GetNumFixedRenderImage@ioWnd@@UBEHXZ
	DD	FLAT:?GetFixedRenderImageType@ioWnd@@UAEPBDH@Z
	DD	FLAT:?GetRenderImage@ioWnd@@UAEPAPAVioUIRenderElement@@PBD@Z
	DD	FLAT:?AddEffect@ioWnd@@UAEXABVioHashString@@PAVioUI3DEffectRender@@@Z
	DD	FLAT:?GetEffect@ioWnd@@UAEPAVioUI3DEffectRender@@VioHashString@@@Z
	DD	FLAT:??_EUserInfoToolTip@@UAEPAXI@Z
CONST	ENDS
;	COMDAT xdata$x
xdata$x	SEGMENT
__unwindtable$??0UserInfoToolTip@@QAE@XZ DD 0ffffffffH
	DD	FLAT:__unwindfunclet$??0UserInfoToolTip@@QAE@XZ$0
	DD	00H
	DD	FLAT:__unwindfunclet$??0UserInfoToolTip@@QAE@XZ$1
	DD	01H
	DD	FLAT:__unwindfunclet$??0UserInfoToolTip@@QAE@XZ$2
__ehfuncinfo$??0UserInfoToolTip@@QAE@XZ DD 019930522H
	DD	03H
	DD	FLAT:__unwindtable$??0UserInfoToolTip@@QAE@XZ
	DD	2 DUP(00H)
	DD	2 DUP(00H)
	DD	00H
	DD	01H
; Function compile flags: /Ogsp
; File d:\lost saga for developer\youtube\tutorial\source\src\lsclient\gui\userinfotooltip.cpp
xdata$x	ENDS
;	COMDAT ??0UserInfoToolTip@@QAE@XZ
_TEXT	SEGMENT
_this$ = -16						; size = 4
__$EHRec$ = -12						; size = 12
??0UserInfoToolTip@@QAE@XZ PROC				; UserInfoToolTip::UserInfoToolTip, COMDAT
; _this$ = ecx

; 50   : {

  00000	6a 04		 push	 4
  00002	b8 00 00 00 00	 mov	 eax, __ehhandler$??0UserInfoToolTip@@QAE@XZ
  00007	e8 00 00 00 00	 call	 __EH_prolog3
  0000c	8b f1		 mov	 esi, ecx
  0000e	89 75 f0	 mov	 DWORD PTR _this$[ebp], esi
  00011	ff 15 00 00 00
	00		 call	 DWORD PTR __imp_??0ioWnd@@QAE@XZ
  00017	8b 3d 00 00 00
	00		 mov	 edi, DWORD PTR __imp_??0ioHashString@@QAE@XZ
  0001d	33 db		 xor	 ebx, ebx
  0001f	8d 8e 64 01 00
	00		 lea	 ecx, DWORD PTR [esi+356]
  00025	89 5d fc	 mov	 DWORD PTR __$EHRec$[ebp+8], ebx
  00028	c7 06 00 00 00
	00		 mov	 DWORD PTR [esi], OFFSET ??_7UserInfoToolTip@@6B@
  0002e	ff d7		 call	 edi
  00030	8d 8e 74 01 00
	00		 lea	 ecx, DWORD PTR [esi+372]
  00036	c6 45 fc 01	 mov	 BYTE PTR __$EHRec$[ebp+8], 1
  0003a	ff d7		 call	 edi
  0003c	8d 8e 84 01 00
	00		 lea	 ecx, DWORD PTR [esi+388]
  00042	c6 45 fc 02	 mov	 BYTE PTR __$EHRec$[ebp+8], 2
  00046	ff d7		 call	 edi
  00048	89 9e 94 01 00
	00		 mov	 DWORD PTR [esi+404], ebx
  0004e	89 9e 98 01 00
	00		 mov	 DWORD PTR [esi+408], ebx
  00054	89 9e 9c 01 00
	00		 mov	 DWORD PTR [esi+412], ebx

; 51   : 	m_dwMaxRefreshDelayTime = 0;
; 52   : 	m_dwMaxLiveTime         = 0;
; 53   : 
; 54   : 	for( int i = 0;i < MAX_INFO_BOX;i++)
; 55   : 		m_pInfoBox[i] = NULL;

  0005a	6a 08		 push	 8
  0005c	59		 pop	 ecx
  0005d	33 c0		 xor	 eax, eax
  0005f	89 9e a4 01 00
	00		 mov	 DWORD PTR [esi+420], ebx
  00065	89 9e a8 01 00
	00		 mov	 DWORD PTR [esi+424], ebx
  0006b	8d be ac 01 00
	00		 lea	 edi, DWORD PTR [esi+428]
  00071	f3 ab		 rep stosd

; 56   : 
; 57   : 	for( int i = 0;i < MAX_INFO_LODING;i++)
; 58   : 		m_pInfoLoading[i] = NULL;

  00073	6a 08		 push	 8
  00075	8d be cc 01 00
	00		 lea	 edi, DWORD PTR [esi+460]
  0007b	59		 pop	 ecx
  0007c	f3 ab		 rep stosd

; 59   : 
; 60   : 	m_dwInfoLoadTime		= 0;

  0007e	89 9e ec 01 00
	00		 mov	 DWORD PTR [esi+492], ebx

; 61   : 	m_iInfoLoadArray		= 0;

  00084	89 9e f0 01 00
	00		 mov	 DWORD PTR [esi+496], ebx

; 62   : 	m_dwRefreshDelayTime	= 0;	

  0008a	89 9e f4 01 00
	00		 mov	 DWORD PTR [esi+500], ebx

; 63   : 	
; 64   : 	m_pNoneTitleFrm = NULL;

  00090	89 9e fc 01 00
	00		 mov	 DWORD PTR [esi+508], ebx

; 65   : 	m_pPowerUpNAwakeTitleFrm = NULL;

  00096	89 9e 00 02 00
	00		 mov	 DWORD PTR [esi+512], ebx

; 66   : 	m_bExtraInfo = false;

  0009c	88 9e 04 02 00
	00		 mov	 BYTE PTR [esi+516], bl

; 67   : 
; 68   : 	m_dwPackSendTime = 0;

  000a2	89 9e 08 02 00
	00		 mov	 DWORD PTR [esi+520], ebx

; 69   : }

  000a8	8b c6		 mov	 eax, esi
  000aa	e8 00 00 00 00	 call	 __EH_epilog3
  000af	c3		 ret	 0
_TEXT	ENDS
;	COMDAT text$x
text$x	SEGMENT
__unwindfunclet$??0UserInfoToolTip@@QAE@XZ$0:
  00000	8b 4d f0	 mov	 ecx, DWORD PTR _this$[ebp]
  00003	ff 25 00 00 00
	00		 jmp	 DWORD PTR __imp_??1ioWnd@@UAE@XZ
__unwindfunclet$??0UserInfoToolTip@@QAE@XZ$1:
  00009	8b 4d f0	 mov	 ecx, DWORD PTR _this$[ebp]
  0000c	81 c1 64 01 00
	00		 add	 ecx, 356		; 00000164H
  00012	ff 25 00 00 00
	00		 jmp	 DWORD PTR __imp_??1ioHashString@@QAE@XZ
__unwindfunclet$??0UserInfoToolTip@@QAE@XZ$2:
  00018	8b 4d f0	 mov	 ecx, DWORD PTR _this$[ebp]
  0001b	81 c1 74 01 00
	00		 add	 ecx, 372		; 00000174H
  00021	ff 25 00 00 00
	00		 jmp	 DWORD PTR __imp_??1ioHashString@@QAE@XZ
__ehhandler$??0UserInfoToolTip@@QAE@XZ:
  00027	8b 54 24 08	 mov	 edx, DWORD PTR [esp+8]
  0002b	8d 42 0c	 lea	 eax, DWORD PTR [edx+12]
  0002e	8b 4a ec	 mov	 ecx, DWORD PTR [edx-20]
  00031	33 c8		 xor	 ecx, eax
  00033	e8 00 00 00 00	 call	 @__security_check_cookie@4
  00038	b8 00 00 00 00	 mov	 eax, OFFSET __ehfuncinfo$??0UserInfoToolTip@@QAE@XZ
  0003d	e9 00 00 00 00	 jmp	 ___CxxFrameHandler3
text$x	ENDS
??0UserInfoToolTip@@QAE@XZ ENDP				; UserInfoToolTip::UserInfoToolTip
PUBLIC	??1UserInfoToolTip@@UAE@XZ			; UserInfoToolTip::~UserInfoToolTip
;	COMDAT xdata$x
; File c:\program files (x86)\microsoft visual studio 10.0\vc\include\vector
xdata$x	SEGMENT
__ehfuncinfo$??1UserInfoToolTip@@UAE@XZ DD 019930522H
	DD	05H
	DD	FLAT:__unwindtable$??1UserInfoToolTip@@UAE@XZ
	DD	2 DUP(00H)
	DD	2 DUP(00H)
	DD	00H
	DD	01H
__unwindtable$??1UserInfoToolTip@@UAE@XZ DD 0ffffffffH
	DD	FLAT:__unwindfunclet$??1UserInfoToolTip@@UAE@XZ$0
	DD	00H
	DD	FLAT:__unwindfunclet$??1UserInfoToolTip@@UAE@XZ$1
	DD	01H
	DD	FLAT:__unwindfunclet$??1UserInfoToolTip@@UAE@XZ$2
	DD	02H
	DD	FLAT:__unwindfunclet$??1UserInfoToolTip@@UAE@XZ$3
	DD	03H
	DD	FLAT:__unwindfunclet$??1UserInfoToolTip@@UAE@XZ$4
; Function compile flags: /Ogsp
; File d:\lost saga for developer\youtube\tutorial\source\src\lsclient\gui\userinfotooltip.cpp
xdata$x	ENDS
;	COMDAT ??1UserInfoToolTip@@UAE@XZ
_TEXT	SEGMENT
_this$ = -20						; size = 4
tv250 = -16						; size = 4
tv225 = -16						; size = 4
$T561231 = -16						; size = 4
__$EHRec$ = -12						; size = 12
??1UserInfoToolTip@@UAE@XZ PROC				; UserInfoToolTip::~UserInfoToolTip, COMDAT
; _this$ = ecx

; 72   : {

  00000	6a 08		 push	 8
  00002	b8 00 00 00 00	 mov	 eax, __ehhandler$??1UserInfoToolTip@@UAE@XZ
  00007	e8 00 00 00 00	 call	 __EH_prolog3
  0000c	8b f1		 mov	 esi, ecx
  0000e	89 75 ec	 mov	 DWORD PTR _this$[ebp], esi
  00011	c7 06 00 00 00
	00		 mov	 DWORD PTR [esi], OFFSET ??_7UserInfoToolTip@@6B@

; 73   : 	m_vGrowthCharIconVec.clear();

  00017	8b 86 98 01 00
	00		 mov	 eax, DWORD PTR [esi+408]
  0001d	8b 8e 94 01 00
	00		 mov	 ecx, DWORD PTR [esi+404]
  00023	50		 push	 eax
  00024	51		 push	 ecx
  00025	8d 45 f0	 lea	 eax, DWORD PTR $T561231[ebp]
  00028	50		 push	 eax
  00029	8d 8e 94 01 00
	00		 lea	 ecx, DWORD PTR [esi+404]
  0002f	c7 45 fc 04 00
	00 00		 mov	 DWORD PTR __$EHRec$[ebp+8], 4
  00036	e8 00 00 00 00	 call	 ?erase@?$vector@VioHashString@@V?$allocator@VioHashString@@@std@@@std@@QAE?AV?$_Vector_iterator@V?$_Vector_val@VioHashString@@V?$allocator@VioHashString@@@std@@@std@@@2@V?$_Vector_const_iterator@V?$_Vector_val@VioHashString@@V?$allocator@VioHashString@@@std@@@std@@@2@0@Z ; std::vector<ioHashString,std::allocator<ioHashString> >::erase
  0003b	8d be ac 01 00
	00		 lea	 edi, DWORD PTR [esi+428]
  00041	c7 45 f0 08 00
	00 00		 mov	 DWORD PTR tv250[ebp], 8
$LL10@UserInfoTo:

; 76   : 		SAFEDELETE( m_pInfoBox[i]);

  00048	8b 0f		 mov	 ecx, DWORD PTR [edi]
  0004a	85 c9		 test	 ecx, ecx
  0004c	74 0a		 je	 SHORT $LN9@UserInfoTo
  0004e	8b 01		 mov	 eax, DWORD PTR [ecx]
  00050	6a 01		 push	 1
  00052	ff 50 40	 call	 DWORD PTR [eax+64]
  00055	83 27 00	 and	 DWORD PTR [edi], 0
$LN9@UserInfoTo:

; 74   : 
; 75   : 	for( int i = 0;i < MAX_INFO_BOX;i++)

  00058	83 c7 04	 add	 edi, 4
  0005b	ff 4d f0	 dec	 DWORD PTR tv250[ebp]
  0005e	75 e8		 jne	 SHORT $LL10@UserInfoTo

; 77   : 
; 78   : 	for(int i = 0;i < MAX_INFO_LODING;i++)

  00060	8d be cc 01 00
	00		 lea	 edi, DWORD PTR [esi+460]
  00066	c7 45 f0 08 00
	00 00		 mov	 DWORD PTR tv225[ebp], 8
$LL6@UserInfoTo:

; 79   : 		SAFEDELETE( m_pInfoLoading[i] );

  0006d	8b 0f		 mov	 ecx, DWORD PTR [edi]
  0006f	85 c9		 test	 ecx, ecx
  00071	74 0a		 je	 SHORT $LN5@UserInfoTo
  00073	8b 01		 mov	 eax, DWORD PTR [ecx]
  00075	6a 01		 push	 1
  00077	ff 50 40	 call	 DWORD PTR [eax+64]
  0007a	83 27 00	 and	 DWORD PTR [edi], 0
$LN5@UserInfoTo:

; 77   : 
; 78   : 	for(int i = 0;i < MAX_INFO_LODING;i++)

  0007d	83 c7 04	 add	 edi, 4
  00080	ff 4d f0	 dec	 DWORD PTR tv225[ebp]
  00083	75 e8		 jne	 SHORT $LL6@UserInfoTo

; 80   : 
; 81   : 	SAFEDELETE( m_pNoneTitleFrm );

  00085	8b 8e fc 01 00
	00		 mov	 ecx, DWORD PTR [esi+508]
  0008b	85 c9		 test	 ecx, ecx
  0008d	74 0e		 je	 SHORT $LN2@UserInfoTo
  0008f	8b 01		 mov	 eax, DWORD PTR [ecx]
  00091	6a 01		 push	 1
  00093	ff 50 40	 call	 DWORD PTR [eax+64]
  00096	83 a6 fc 01 00
	00 00		 and	 DWORD PTR [esi+508], 0
$LN2@UserInfoTo:

; 82   : 	SAFEDELETE( m_pPowerUpNAwakeTitleFrm );

  0009d	8b 8e 00 02 00
	00		 mov	 ecx, DWORD PTR [esi+512]
  000a3	85 c9		 test	 ecx, ecx
  000a5	74 0e		 je	 SHORT $LN1@UserInfoTo
  000a7	8b 01		 mov	 eax, DWORD PTR [ecx]
  000a9	6a 01		 push	 1
  000ab	ff 50 40	 call	 DWORD PTR [eax+64]
  000ae	83 a6 00 02 00
	00 00		 and	 DWORD PTR [esi+512], 0
$LN1@UserInfoTo:

; 83   : }

  000b5	8d 8e 94 01 00
	00		 lea	 ecx, DWORD PTR [esi+404]
  000bb	c6 45 fc 03	 mov	 BYTE PTR __$EHRec$[ebp+8], 3
  000bf	e8 00 00 00 00	 call	 ?_Tidy@?$vector@VioHashString@@V?$allocator@VioHashString@@@std@@@std@@IAEXXZ ; std::vector<ioHashString,std::allocator<ioHashString> >::_Tidy
  000c4	8b 3d 00 00 00
	00		 mov	 edi, DWORD PTR __imp_??1ioHashString@@QAE@XZ
  000ca	8d 8e 84 01 00
	00		 lea	 ecx, DWORD PTR [esi+388]
  000d0	c6 45 fc 02	 mov	 BYTE PTR __$EHRec$[ebp+8], 2
  000d4	ff d7		 call	 edi
  000d6	8d 8e 74 01 00
	00		 lea	 ecx, DWORD PTR [esi+372]
  000dc	c6 45 fc 01	 mov	 BYTE PTR __$EHRec$[ebp+8], 1
  000e0	ff d7		 call	 edi
  000e2	8d 8e 64 01 00
	00		 lea	 ecx, DWORD PTR [esi+356]
  000e8	c6 45 fc 00	 mov	 BYTE PTR __$EHRec$[ebp+8], 0
  000ec	ff d7		 call	 edi
  000ee	83 4d fc ff	 or	 DWORD PTR __$EHRec$[ebp+8], -1
  000f2	8b ce		 mov	 ecx, esi
  000f4	ff 15 00 00 00
	00		 call	 DWORD PTR __imp_??1ioWnd@@UAE@XZ
  000fa	e8 00 00 00 00	 call	 __EH_epilog3
  000ff	c3		 ret	 0
_TEXT	ENDS
;	COMDAT text$x
text$x	SEGMENT
__unwindfunclet$??1UserInfoToolTip@@UAE@XZ$0:
  00000	8b 4d ec	 mov	 ecx, DWORD PTR _this$[ebp]
  00003	ff 25 00 00 00
	00		 jmp	 DWORD PTR __imp_??1ioWnd@@UAE@XZ
__unwindfunclet$??1UserInfoToolTip@@UAE@XZ$1:
  00009	8b 4d ec	 mov	 ecx, DWORD PTR _this$[ebp]
  0000c	81 c1 64 01 00
	00		 add	 ecx, 356		; 00000164H
  00012	ff 25 00 00 00
	00		 jmp	 DWORD PTR __imp_??1ioHashString@@QAE@XZ
__unwindfunclet$??1UserInfoToolTip@@UAE@XZ$2:
  00018	8b 4d ec	 mov	 ecx, DWORD PTR _this$[ebp]
  0001b	81 c1 74 01 00
	00		 add	 ecx, 372		; 00000174H
  00021	ff 25 00 00 00
	00		 jmp	 DWORD PTR __imp_??1ioHashString@@QAE@XZ
__unwindfunclet$??1UserInfoToolTip@@UAE@XZ$3:
  00027	8b 4d ec	 mov	 ecx, DWORD PTR _this$[ebp]
  0002a	81 c1 84 01 00
	00		 add	 ecx, 388		; 00000184H
  00030	ff 25 00 00 00
	00		 jmp	 DWORD PTR __imp_??1ioHashString@@QAE@XZ
__unwindfunclet$??1UserInfoToolTip@@UAE@XZ$4:
  00036	8b 4d ec	 mov	 ecx, DWORD PTR _this$[ebp]
  00039	81 c1 94 01 00
	00		 add	 ecx, 404		; 00000194H
  0003f	e9 00 00 00 00	 jmp	 ??1?$vector@VioHashString@@V?$allocator@VioHashString@@@std@@@std@@QAE@XZ ; std::vector<ioHashString,std::allocator<ioHashString> >::~vector<ioHashString,std::allocator<ioHashString> >
__ehhandler$??1UserInfoToolTip@@UAE@XZ:
  00044	8b 54 24 08	 mov	 edx, DWORD PTR [esp+8]
  00048	8d 42 0c	 lea	 eax, DWORD PTR [edx+12]
  0004b	8b 4a e8	 mov	 ecx, DWORD PTR [edx-24]
  0004e	33 c8		 xor	 ecx, eax
  00050	e8 00 00 00 00	 call	 @__security_check_cookie@4
  00055	b8 00 00 00 00	 mov	 eax, OFFSET __ehfuncinfo$??1UserInfoToolTip@@UAE@XZ
  0005a	e9 00 00 00 00	 jmp	 ___CxxFrameHandler3
text$x	ENDS
??1UserInfoToolTip@@UAE@XZ ENDP				; UserInfoToolTip::~UserInfoToolTip
EXTRN	?SetToolTipCursor@ioLSMouse@@QAEXXZ:PROC	; ioLSMouse::SetToolTipCursor
EXTRN	?SetToolTipID@ioLSMouse@@QAEXABVioHashString@@H@Z:PROC ; ioLSMouse::SetToolTipID
EXTRN	__imp_?SetWndPos@ioWnd@@QAEXHH@Z:PROC
EXTRN	?GetNotCutWndPos@Help@@YAXHHHHAAH0@Z:PROC	; Help::GetNotCutWndPos
EXTRN	__imp_?GetHeight@ioWnd@@QBEHXZ:PROC
EXTRN	__imp_?GetMousePos@ioMouse@@QBEABUtagPOINT@@XZ:PROC
EXTRN	?GetToolTipID@ioLSMouse@@QAEXAAVioHashString@@AAH@Z:PROC ; ioLSMouse::GetToolTipID
EXTRN	?GetSingleton@ioApplication@@SAAAV1@XZ:PROC	; ioApplication::GetSingleton
;	COMDAT xdata$x
; File d:\lost saga for developer\youtube\tutorial\source\src\lsclient\ioapplication.h
xdata$x	SEGMENT
__unwindtable$?OnProcess@UserInfoToolTip@@MAEXM@Z DD 0ffffffffH
	DD	FLAT:__unwindfunclet$?OnProcess@UserInfoToolTip@@MAEXM@Z$0
	DD	0ffffffffH
	DD	FLAT:__unwindfunclet$?OnProcess@UserInfoToolTip@@MAEXM@Z$1
	DD	01H
	DD	FLAT:__unwindfunclet$?OnProcess@UserInfoToolTip@@MAEXM@Z$2
	DD	01H
	DD	FLAT:__unwindfunclet$?OnProcess@UserInfoToolTip@@MAEXM@Z$3
__ehfuncinfo$?OnProcess@UserInfoToolTip@@MAEXM@Z DD 019930522H
	DD	04H
	DD	FLAT:__unwindtable$?OnProcess@UserInfoToolTip@@MAEXM@Z
	DD	2 DUP(00H)
	DD	2 DUP(00H)
	DD	00H
	DD	01H
; Function compile flags: /Ogsp
; File d:\lost saga for developer\youtube\tutorial\source\src\lsclient\gui\userinfotooltip.cpp
xdata$x	ENDS
;	COMDAT ?OnProcess@UserInfoToolTip@@MAEXM@Z
_TEXT	SEGMENT
_kInfo$ = -224						; size = 140
$T561271 = -84						; size = 16
_sName$545838 = -68					; size = 16
_sName$ = -52						; size = 16
_iXPos$545841 = -36					; size = 4
_iYPos$ = -32						; size = 4
_iYPos$545842 = -28					; size = 4
_iXPos$ = -24						; size = 4
tv214 = -20						; size = 4
_iType$545839 = -20					; size = 4
_iType$ = -16						; size = 4
__$EHRec$ = -12						; size = 12
_fTimePerSec$ = 8					; size = 4
?OnProcess@UserInfoToolTip@@MAEXM@Z PROC		; UserInfoToolTip::OnProcess, COMDAT
; _this$ = ecx

; 86   : {

  00000	68 d4 00 00 00	 push	 212			; 000000d4H
  00005	b8 00 00 00 00	 mov	 eax, __ehhandler$?OnProcess@UserInfoToolTip@@MAEXM@Z
  0000a	e8 00 00 00 00	 call	 __EH_prolog3
  0000f	8b f1		 mov	 esi, ecx

; 87   : 	ioLSMouse *pMouse = g_App.GetMouse();

  00011	e8 00 00 00 00	 call	 ?GetSingleton@ioApplication@@SAAAV1@XZ ; ioApplication::GetSingleton
  00016	8d b8 90 00 00
	00		 lea	 edi, DWORD PTR [eax+144]

; 88   : 	if( !pMouse ) return;

  0001c	33 db		 xor	 ebx, ebx
  0001e	3b fb		 cmp	 edi, ebx
  00020	0f 84 16 02 00
	00		 je	 $LN16@OnProcess

; 89   : 
; 90   : 	// show
; 91   : 	if( !IsShow() )

  00026	8b ce		 mov	 ecx, esi
  00028	ff 15 00 00 00
	00		 call	 DWORD PTR __imp_?IsShow@ioWnd@@QBE_NXZ
  0002e	84 c0		 test	 al, al
  00030	0f 85 8a 00 00
	00		 jne	 $LN14@OnProcess

; 92   : 	{
; 93   : 		ioHashString sName;

  00036	8d 4d bc	 lea	 ecx, DWORD PTR _sName$545838[ebp]
  00039	ff 15 00 00 00
	00		 call	 DWORD PTR __imp_??0ioHashString@@QAE@XZ

; 94   : 		int          iType = 0;
; 95   : 		pMouse->GetToolTipID( sName, iType );

  0003f	8d 45 ec	 lea	 eax, DWORD PTR _iType$545839[ebp]
  00042	50		 push	 eax
  00043	8d 45 bc	 lea	 eax, DWORD PTR _sName$545838[ebp]
  00046	50		 push	 eax
  00047	8b cf		 mov	 ecx, edi
  00049	89 5d fc	 mov	 DWORD PTR __$EHRec$[ebp+8], ebx
  0004c	89 5d ec	 mov	 DWORD PTR _iType$545839[ebp], ebx
  0004f	e8 00 00 00 00	 call	 ?GetToolTipID@ioLSMouse@@QAEXAAVioHashString@@AAH@Z ; ioLSMouse::GetToolTipID

; 96   : 		if( sName.IsEmpty() )

  00054	8d 4d bc	 lea	 ecx, DWORD PTR _sName$545838[ebp]
  00057	ff 15 00 00 00
	00		 call	 DWORD PTR __imp_?IsEmpty@ioHashString@@QBE_NXZ
  0005d	84 c0		 test	 al, al
  0005f	74 08		 je	 SHORT $LN13@OnProcess
$LN29@OnProcess:

; 97   : 			return;

  00061	8d 4d bc	 lea	 ecx, DWORD PTR _sName$545838[ebp]
  00064	e9 c9 01 00 00	 jmp	 $LN25@OnProcess
$LN13@OnProcess:

; 98   : 
; 99   : 		ShowWnd();

  00069	8b ce		 mov	 ecx, esi
  0006b	ff 15 00 00 00
	00		 call	 DWORD PTR __imp_?ShowWnd@ioWnd@@QAEXXZ

; 100  : 		int iXPos = 0;
; 101  : 		int iYPos = 0;
; 102  : 		Help::GetNotCutWndPos( pMouse->GetMousePos().x, pMouse->GetMousePos().y, GetWidth(), GetHeight(), iXPos, iYPos );

  00071	8b cf		 mov	 ecx, edi
  00073	89 5d dc	 mov	 DWORD PTR _iXPos$545841[ebp], ebx
  00076	89 5d e4	 mov	 DWORD PTR _iYPos$545842[ebp], ebx
  00079	ff 15 00 00 00
	00		 call	 DWORD PTR __imp_?GetMousePos@ioMouse@@QBEABUtagPOINT@@XZ
  0007f	8b d8		 mov	 ebx, eax
  00081	8d 45 e4	 lea	 eax, DWORD PTR _iYPos$545842[ebp]
  00084	50		 push	 eax
  00085	8d 45 dc	 lea	 eax, DWORD PTR _iXPos$545841[ebp]
  00088	50		 push	 eax
  00089	8b ce		 mov	 ecx, esi
  0008b	ff 15 00 00 00
	00		 call	 DWORD PTR __imp_?GetHeight@ioWnd@@QBEHXZ
  00091	50		 push	 eax
  00092	8b ce		 mov	 ecx, esi
  00094	ff 15 00 00 00
	00		 call	 DWORD PTR __imp_?GetWidth@ioWnd@@QBEHXZ
  0009a	50		 push	 eax
  0009b	8b cf		 mov	 ecx, edi
  0009d	ff 15 00 00 00
	00		 call	 DWORD PTR __imp_?GetMousePos@ioMouse@@QBEABUtagPOINT@@XZ
  000a3	ff 70 04	 push	 DWORD PTR [eax+4]
  000a6	ff 33		 push	 DWORD PTR [ebx]
  000a8	e8 00 00 00 00	 call	 ?GetNotCutWndPos@Help@@YAXHHHHAAH0@Z ; Help::GetNotCutWndPos
  000ad	83 c4 18	 add	 esp, 24			; 00000018H

; 103  : 		SetWndPos( iXPos, iYPos );

  000b0	ff 75 e4	 push	 DWORD PTR _iYPos$545842[ebp]
  000b3	8b ce		 mov	 ecx, esi
  000b5	ff 75 dc	 push	 DWORD PTR _iXPos$545841[ebp]
  000b8	ff 15 00 00 00
	00		 call	 DWORD PTR __imp_?SetWndPos@ioWnd@@QAEXHH@Z

; 104  : 		return;

  000be	eb a1		 jmp	 SHORT $LN29@OnProcess
$LN14@OnProcess:

; 105  : 	}
; 106  : 
; 107  : 	// hide
; 108  : 	ioHashString sName;

  000c0	8d 4d cc	 lea	 ecx, DWORD PTR _sName$[ebp]
  000c3	ff 15 00 00 00
	00		 call	 DWORD PTR __imp_??0ioHashString@@QAE@XZ

; 109  : 	int          iType = 0;
; 110  : 	pMouse->GetToolTipID( sName, iType );

  000c9	8d 45 f0	 lea	 eax, DWORD PTR _iType$[ebp]
  000cc	50		 push	 eax
  000cd	8d 45 cc	 lea	 eax, DWORD PTR _sName$[ebp]
  000d0	50		 push	 eax
  000d1	8b cf		 mov	 ecx, edi
  000d3	c7 45 fc 01 00
	00 00		 mov	 DWORD PTR __$EHRec$[ebp+8], 1
  000da	89 5d f0	 mov	 DWORD PTR _iType$[ebp], ebx
  000dd	e8 00 00 00 00	 call	 ?GetToolTipID@ioLSMouse@@QAEXAAVioHashString@@AAH@Z ; ioLSMouse::GetToolTipID

; 111  : 	if( sName.IsEmpty() )

  000e2	8d 4d cc	 lea	 ecx, DWORD PTR _sName$[ebp]
  000e5	ff 15 00 00 00
	00		 call	 DWORD PTR __imp_?IsEmpty@ioHashString@@QBE_NXZ
  000eb	84 c0		 test	 al, al
  000ed	74 0d		 je	 SHORT $LN12@OnProcess

; 112  : 	{
; 113  : 		HideWnd();

  000ef	8b ce		 mov	 ecx, esi
  000f1	ff 15 00 00 00
	00		 call	 DWORD PTR __imp_?HideWnd@ioWnd@@QAEXXZ

; 114  : 		return;

  000f7	e9 33 01 00 00	 jmp	 $LN26@OnProcess
$LN12@OnProcess:

; 115  : 	}
; 116  : 
; 117  : 	// pos
; 118  : 	pMouse->SetToolTipID( ioHashString(""), UserInfoToolTip::TT_GLOBAL ); // 초기화

  000fc	68 00 00 00 00	 push	 OFFSET ??_C@_00CNPNBAHC@?$AA@
  00101	8d 4d ac	 lea	 ecx, DWORD PTR $T561271[ebp]
  00104	ff 15 00 00 00
	00		 call	 DWORD PTR __imp_??0ioHashString@@QAE@PBD@Z
  0010a	6a ff		 push	 -1
  0010c	50		 push	 eax
  0010d	8b cf		 mov	 ecx, edi
  0010f	c6 45 fc 02	 mov	 BYTE PTR __$EHRec$[ebp+8], 2
  00113	e8 00 00 00 00	 call	 ?SetToolTipID@ioLSMouse@@QAEXABVioHashString@@H@Z ; ioLSMouse::SetToolTipID
  00118	8d 4d ac	 lea	 ecx, DWORD PTR $T561271[ebp]
  0011b	c6 45 fc 01	 mov	 BYTE PTR __$EHRec$[ebp+8], 1
  0011f	ff 15 00 00 00
	00		 call	 DWORD PTR __imp_??1ioHashString@@QAE@XZ

; 119  : 	pMouse->SetToolTipCursor();

  00125	8b cf		 mov	 ecx, edi
  00127	e8 00 00 00 00	 call	 ?SetToolTipCursor@ioLSMouse@@QAEXXZ ; ioLSMouse::SetToolTipCursor

; 120  : 	int iXPos = 0;
; 121  : 	int iYPos = 0;
; 122  : 	Help::GetNotCutWndPos( pMouse->GetMousePos().x, pMouse->GetMousePos().y, GetWidth(), GetHeight(), iXPos, iYPos );

  0012c	8b cf		 mov	 ecx, edi
  0012e	89 5d e8	 mov	 DWORD PTR _iXPos$[ebp], ebx
  00131	89 5d e0	 mov	 DWORD PTR _iYPos$[ebp], ebx
  00134	ff 15 00 00 00
	00		 call	 DWORD PTR __imp_?GetMousePos@ioMouse@@QBEABUtagPOINT@@XZ
  0013a	89 45 ec	 mov	 DWORD PTR tv214[ebp], eax
  0013d	8d 45 e0	 lea	 eax, DWORD PTR _iYPos$[ebp]
  00140	50		 push	 eax
  00141	8d 45 e8	 lea	 eax, DWORD PTR _iXPos$[ebp]
  00144	50		 push	 eax
  00145	8b ce		 mov	 ecx, esi
  00147	ff 15 00 00 00
	00		 call	 DWORD PTR __imp_?GetHeight@ioWnd@@QBEHXZ
  0014d	50		 push	 eax
  0014e	8b ce		 mov	 ecx, esi
  00150	ff 15 00 00 00
	00		 call	 DWORD PTR __imp_?GetWidth@ioWnd@@QBEHXZ
  00156	50		 push	 eax
  00157	8b cf		 mov	 ecx, edi
  00159	ff 15 00 00 00
	00		 call	 DWORD PTR __imp_?GetMousePos@ioMouse@@QBEABUtagPOINT@@XZ
  0015f	ff 70 04	 push	 DWORD PTR [eax+4]
  00162	8b 45 ec	 mov	 eax, DWORD PTR tv214[ebp]
  00165	ff 30		 push	 DWORD PTR [eax]
  00167	e8 00 00 00 00	 call	 ?GetNotCutWndPos@Help@@YAXHHHHAAH0@Z ; Help::GetNotCutWndPos
  0016c	83 c4 18	 add	 esp, 24			; 00000018H

; 123  : 	SetWndPos( iXPos, iYPos );

  0016f	ff 75 e0	 push	 DWORD PTR _iYPos$[ebp]
  00172	8b ce		 mov	 ecx, esi
  00174	ff 75 e8	 push	 DWORD PTR _iXPos$[ebp]
  00177	ff 15 00 00 00
	00		 call	 DWORD PTR __imp_?SetWndPos@ioWnd@@QAEXHH@Z

; 124  : 
; 125  : 	// loading
; 126  : 	if( m_dwRefreshDelayTime != 0  )

  0017d	39 9e f4 01 00
	00		 cmp	 DWORD PTR [esi+500], ebx
  00183	74 07		 je	 SHORT $LN11@OnProcess

; 127  : 	{
; 128  : 		ProcessLoading();

  00185	8b ce		 mov	 ecx, esi
  00187	e8 00 00 00 00	 call	 ?ProcessLoading@UserInfoToolTip@@IAEXXZ ; UserInfoToolTip::ProcessLoading
$LN11@OnProcess:

; 129  : 	}
; 130  : 	m_bExtraInfo = false;
; 131  : 	// setinfo
; 132  : 	UserInfo kInfo;

  0018c	8d 8d 20 ff ff
	ff		 lea	 ecx, DWORD PTR _kInfo$[ebp]
  00192	88 9e 04 02 00
	00		 mov	 BYTE PTR [esi+516], bl
  00198	e8 00 00 00 00	 call	 ??0UserInfo@UserInfoToolTip@@QAE@XZ ; UserInfoToolTip::UserInfo::UserInfo

; 133  : 	if( iType == TT_GLOBAL )

  0019d	83 7d f0 ff	 cmp	 DWORD PTR _iType$[ebp], -1

; 134  : 	{
; 135  : 		if( GetUserInfoMy( sName, iType, kInfo ) ) // UI 나를 선택

  001a1	8d 85 20 ff ff
	ff		 lea	 eax, DWORD PTR _kInfo$[ebp]
  001a7	50		 push	 eax
  001a8	c6 45 fc 03	 mov	 BYTE PTR __$EHRec$[ebp+8], 3
  001ac	8b ce		 mov	 ecx, esi
  001ae	8d 45 cc	 lea	 eax, DWORD PTR _sName$[ebp]
  001b1	75 39		 jne	 SHORT $LN10@OnProcess
  001b3	6a ff		 push	 -1
  001b5	50		 push	 eax
  001b6	e8 00 00 00 00	 call	 ?GetUserInfoMy@UserInfoToolTip@@IAE_NABVioHashString@@HAAUUserInfo@1@@Z ; UserInfoToolTip::GetUserInfoMy
  001bb	84 c0		 test	 al, al

; 136  : 			SetUserInfoToolInfo( kInfo );

  001bd	8d 85 20 ff ff
	ff		 lea	 eax, DWORD PTR _kInfo$[ebp]
  001c3	8b ce		 mov	 ecx, esi
  001c5	50		 push	 eax
  001c6	75 53		 jne	 SHORT $LN27@OnProcess

; 137  : 		else if( GetUserInfoRoom( sName, iType, kInfo ) ) // UI에서 룸에 있는 유저 선택

  001c8	ff 75 f0	 push	 DWORD PTR _iType$[ebp]
  001cb	8d 45 cc	 lea	 eax, DWORD PTR _sName$[ebp]
  001ce	50		 push	 eax
  001cf	e8 00 00 00 00	 call	 ?GetUserInfoRoom@UserInfoToolTip@@IAE_NABVioHashString@@HAAUUserInfo@1@@Z ; UserInfoToolTip::GetUserInfoRoom
  001d4	84 c0		 test	 al, al

; 138  : 			SetUserInfoToolInfo( kInfo );

  001d6	8d 85 20 ff ff
	ff		 lea	 eax, DWORD PTR _kInfo$[ebp]
  001dc	8b ce		 mov	 ecx, esi
  001de	50		 push	 eax
  001df	75 3a		 jne	 SHORT $LN27@OnProcess

; 139  : 		else if( GetUserInfoNetwork( sName, kInfo ) )

  001e1	8d 45 cc	 lea	 eax, DWORD PTR _sName$[ebp]
  001e4	50		 push	 eax
  001e5	e8 00 00 00 00	 call	 ?GetUserInfoNetwork@UserInfoToolTip@@IAE_NABVioHashString@@AAUUserInfo@1@@Z ; UserInfoToolTip::GetUserInfoNetwork

; 140  : 			SetUserInfoToolInfo( kInfo );
; 141  : 	}
; 142  : 	else

  001ea	eb 22		 jmp	 SHORT $LN28@OnProcess
$LN10@OnProcess:

; 143  : 	{
; 144  : 		if( GetUserInfoMy( sName, iType, kInfo ) )

  001ec	ff 75 f0	 push	 DWORD PTR _iType$[ebp]
  001ef	50		 push	 eax
  001f0	e8 00 00 00 00	 call	 ?GetUserInfoMy@UserInfoToolTip@@IAE_NABVioHashString@@HAAUUserInfo@1@@Z ; UserInfoToolTip::GetUserInfoMy
  001f5	84 c0		 test	 al, al

; 145  : 			SetUserInfoToolInfo( kInfo );

  001f7	8d 85 20 ff ff
	ff		 lea	 eax, DWORD PTR _kInfo$[ebp]
  001fd	8b ce		 mov	 ecx, esi
  001ff	50		 push	 eax
  00200	75 19		 jne	 SHORT $LN27@OnProcess

; 146  : 		else if( GetUserInfoRoom( sName, iType, kInfo ) )

  00202	ff 75 f0	 push	 DWORD PTR _iType$[ebp]
  00205	8d 45 cc	 lea	 eax, DWORD PTR _sName$[ebp]
  00208	50		 push	 eax
  00209	e8 00 00 00 00	 call	 ?GetUserInfoRoom@UserInfoToolTip@@IAE_NABVioHashString@@HAAUUserInfo@1@@Z ; UserInfoToolTip::GetUserInfoRoom
$LN28@OnProcess:
  0020e	84 c0		 test	 al, al
  00210	74 0e		 je	 SHORT $LN1@OnProcess

; 147  : 			SetUserInfoToolInfo( kInfo );

  00212	8d 85 20 ff ff
	ff		 lea	 eax, DWORD PTR _kInfo$[ebp]
  00218	8b ce		 mov	 ecx, esi
  0021a	50		 push	 eax
$LN27@OnProcess:
  0021b	e8 00 00 00 00	 call	 ?SetUserInfoToolInfo@UserInfoToolTip@@IAEXAAUUserInfo@1@@Z ; UserInfoToolTip::SetUserInfoToolInfo
$LN1@OnProcess:

; 148  : 	}
; 149  : }

  00220	8d 8d 20 ff ff
	ff		 lea	 ecx, DWORD PTR _kInfo$[ebp]
  00226	c6 45 fc 01	 mov	 BYTE PTR __$EHRec$[ebp+8], 1
  0022a	e8 00 00 00 00	 call	 ??1UserInfo@UserInfoToolTip@@QAE@XZ
$LN26@OnProcess:
  0022f	8d 4d cc	 lea	 ecx, DWORD PTR _sName$[ebp]
$LN25@OnProcess:
  00232	83 4d fc ff	 or	 DWORD PTR __$EHRec$[ebp+8], -1
  00236	ff 15 00 00 00
	00		 call	 DWORD PTR __imp_??1ioHashString@@QAE@XZ
$LN16@OnProcess:
  0023c	e8 00 00 00 00	 call	 __EH_epilog3
  00241	c2 04 00	 ret	 4
_TEXT	ENDS
;	COMDAT text$x
text$x	SEGMENT
__unwindfunclet$?OnProcess@UserInfoToolTip@@MAEXM@Z$0:
  00000	8d 4d bc	 lea	 ecx, DWORD PTR _sName$545838[ebp]
  00003	ff 25 00 00 00
	00		 jmp	 DWORD PTR __imp_??1ioHashString@@QAE@XZ
__unwindfunclet$?OnProcess@UserInfoToolTip@@MAEXM@Z$1:
  00009	8d 4d cc	 lea	 ecx, DWORD PTR _sName$[ebp]
  0000c	ff 25 00 00 00
	00		 jmp	 DWORD PTR __imp_??1ioHashString@@QAE@XZ
__unwindfunclet$?OnProcess@UserInfoToolTip@@MAEXM@Z$2:
  00012	8d 4d ac	 lea	 ecx, DWORD PTR $T561271[ebp]
  00015	ff 25 00 00 00
	00		 jmp	 DWORD PTR __imp_??1ioHashString@@QAE@XZ
__unwindfunclet$?OnProcess@UserInfoToolTip@@MAEXM@Z$3:
  0001b	8d 8d 20 ff ff
	ff		 lea	 ecx, DWORD PTR _kInfo$[ebp]
  00021	e9 00 00 00 00	 jmp	 ??1UserInfo@UserInfoToolTip@@QAE@XZ
__ehhandler$?OnProcess@UserInfoToolTip@@MAEXM@Z:
  00026	8b 54 24 08	 mov	 edx, DWORD PTR [esp+8]
  0002a	8d 42 0c	 lea	 eax, DWORD PTR [edx+12]
  0002d	8b 8a 1c ff ff
	ff		 mov	 ecx, DWORD PTR [edx-228]
  00033	33 c8		 xor	 ecx, eax
  00035	e8 00 00 00 00	 call	 @__security_check_cookie@4
  0003a	b8 00 00 00 00	 mov	 eax, OFFSET __ehfuncinfo$?OnProcess@UserInfoToolTip@@MAEXM@Z
  0003f	e9 00 00 00 00	 jmp	 ___CxxFrameHandler3
text$x	ENDS
?OnProcess@UserInfoToolTip@@MAEXM@Z ENDP		; UserInfoToolTip::OnProcess
PUBLIC	?push_back@?$vector@VioHashString@@V?$allocator@VioHashString@@@std@@@std@@QAEXABVioHashString@@@Z ; std::vector<ioHashString,std::allocator<ioHashString> >::push_back
; Function compile flags: /Ogsp
; File c:\program files (x86)\microsoft visual studio 10.0\vc\include\vector
;	COMDAT ?push_back@?$vector@VioHashString@@V?$allocator@VioHashString@@@std@@@std@@QAEXABVioHashString@@@Z
_TEXT	SEGMENT
__Val$ = 8						; size = 4
?push_back@?$vector@VioHashString@@V?$allocator@VioHashString@@@std@@@std@@QAEXABVioHashString@@@Z PROC ; std::vector<ioHashString,std::allocator<ioHashString> >::push_back, COMDAT
; _this$ = ecx

; 976  : 		{	// insert element at end

  00000	55		 push	 ebp
  00001	8b ec		 mov	 ebp, esp
  00003	56		 push	 esi
  00004	8b f1		 mov	 esi, ecx

; 977  : 		if (_Inside(_STD addressof(_Val)))

  00006	8b 46 04	 mov	 eax, DWORD PTR [esi+4]
  00009	57		 push	 edi
  0000a	8b 7d 08	 mov	 edi, DWORD PTR __Val$[ebp]
  0000d	3b f8		 cmp	 edi, eax
  0000f	73 29		 jae	 SHORT $LN4@push_back@4
  00011	8b 0e		 mov	 ecx, DWORD PTR [esi]
  00013	3b cf		 cmp	 ecx, edi
  00015	77 23		 ja	 SHORT $LN4@push_back@4

; 978  : 			{	// push back an element
; 979  : 			size_type _Idx = _STD addressof(_Val) - this->_Myfirst;

  00017	2b f9		 sub	 edi, ecx

; 980  : 			if (this->_Mylast == this->_Myend)

  00019	3b 46 08	 cmp	 eax, DWORD PTR [esi+8]
  0001c	75 09		 jne	 SHORT $LN3@push_back@4

; 981  : 				_Reserve(1);

  0001e	6a 01		 push	 1
  00020	8b ce		 mov	 ecx, esi
  00022	e8 00 00 00 00	 call	 ?_Reserve@?$vector@VioHashString@@V?$allocator@VioHashString@@@std@@@std@@IAEXI@Z ; std::vector<ioHashString,std::allocator<ioHashString> >::_Reserve
$LN3@push_back@4:

; 982  : 			_Orphan_range(this->_Mylast, this->_Mylast);
; 983  : 			_Cons_val(this->_Alval,
; 984  : 				this->_Mylast,
; 985  : 				this->_Myfirst[_Idx]);

  00027	83 e7 f0	 and	 edi, -16		; fffffff0H
  0002a	03 3e		 add	 edi, DWORD PTR [esi]
  0002c	8d 4e 0c	 lea	 ecx, DWORD PTR [esi+12]
  0002f	57		 push	 edi
  00030	ff 76 04	 push	 DWORD PTR [esi+4]
  00033	e8 00 00 00 00	 call	 ??$construct@AAVioHashString@@@?$allocator@VioHashString@@@std@@QAEXPAVioHashString@@AAV2@@Z ; std::allocator<ioHashString>::construct<ioHashString &>

; 986  : 			++this->_Mylast;
; 987  : 			}
; 988  : 		else

  00038	eb 19		 jmp	 SHORT $LN30@push_back@4
$LN4@push_back@4:

; 989  : 			{	// push back a non-element
; 990  : 			if (this->_Mylast == this->_Myend)

  0003a	3b 46 08	 cmp	 eax, DWORD PTR [esi+8]
  0003d	75 09		 jne	 SHORT $LN1@push_back@4

; 991  : 				_Reserve(1);

  0003f	6a 01		 push	 1
  00041	8b ce		 mov	 ecx, esi
  00043	e8 00 00 00 00	 call	 ?_Reserve@?$vector@VioHashString@@V?$allocator@VioHashString@@@std@@@std@@IAEXI@Z ; std::vector<ioHashString,std::allocator<ioHashString> >::_Reserve
$LN1@push_back@4:

; 992  : 			_Orphan_range(this->_Mylast, this->_Mylast);
; 993  : 			_Cons_val(this->_Alval,
; 994  : 				this->_Mylast,
; 995  : 				_Val);

  00048	57		 push	 edi
  00049	ff 76 04	 push	 DWORD PTR [esi+4]
  0004c	e8 00 00 00 00	 call	 ??$_Construct@VioHashString@@ABV1@@std@@YAXPAVioHashString@@ABV1@@Z ; std::_Construct<ioHashString,ioHashString const &>
  00051	59		 pop	 ecx
  00052	59		 pop	 ecx
$LN30@push_back@4:

; 996  : 			++this->_Mylast;

  00053	83 46 04 10	 add	 DWORD PTR [esi+4], 16	; 00000010H
  00057	5f		 pop	 edi
  00058	5e		 pop	 esi

; 997  : 			}
; 998  : 		}

  00059	5d		 pop	 ebp
  0005a	c2 04 00	 ret	 4
?push_back@?$vector@VioHashString@@V?$allocator@VioHashString@@@std@@@std@@QAEXABVioHashString@@@Z ENDP ; std::vector<ioHashString,std::allocator<ioHashString> >::push_back
; Function compile flags: /Ogsp
_TEXT	ENDS
;	COMDAT ??_GUserInfoToolTip@@UAEPAXI@Z
_TEXT	SEGMENT
___flags$ = 8						; size = 4
??_GUserInfoToolTip@@UAEPAXI@Z PROC			; UserInfoToolTip::`scalar deleting destructor', COMDAT
; _this$ = ecx
  00000	55		 push	 ebp
  00001	8b ec		 mov	 ebp, esp
  00003	56		 push	 esi
  00004	8b f1		 mov	 esi, ecx
  00006	e8 00 00 00 00	 call	 ??1UserInfoToolTip@@UAE@XZ ; UserInfoToolTip::~UserInfoToolTip
  0000b	f6 45 08 01	 test	 BYTE PTR ___flags$[ebp], 1
  0000f	74 07		 je	 SHORT $LN1@scalar@4
  00011	56		 push	 esi
  00012	e8 00 00 00 00	 call	 ??3@YAXPAX@Z		; operator delete
  00017	59		 pop	 ecx
$LN1@scalar@4:
  00018	8b c6		 mov	 eax, esi
  0001a	5e		 pop	 esi
  0001b	5d		 pop	 ebp
  0001c	c2 04 00	 ret	 4
??_GUserInfoToolTip@@UAEPAXI@Z ENDP			; UserInfoToolTip::`scalar deleting destructor'
_TEXT	ENDS
PUBLIC	_xElement$GSCopy$
EXTRN	__imp_?GetStringAttribute@ioXMLElement@@QBEPBDPBD@Z:PROC
;	COMDAT xdata$x
; File d:\lost saga for developer\youtube\tutorial\source\src\lsclient\stringprotect.h
xdata$x	SEGMENT
__unwindtable$?ParseExtraInfo@UserInfoToolTip@@UAEXAAVioXMLElement@@@Z DD 0ffffffffH
	DD	FLAT:__unwindfunclet$?ParseExtraInfo@UserInfoToolTip@@UAEXAAVioXMLElement@@@Z$0
__ehfuncinfo$?ParseExtraInfo@UserInfoToolTip@@UAEXAAVioXMLElement@@@Z DD 019930522H
	DD	01H
	DD	FLAT:__unwindtable$?ParseExtraInfo@UserInfoToolTip@@UAEXAAVioXMLElement@@@Z
	DD	2 DUP(00H)
	DD	2 DUP(00H)
	DD	00H
	DD	01H
; Function compile flags: /Ogsp
; File d:\lost saga for developer\youtube\tutorial\source\src\lsclient\gui\userinfotooltip.cpp
xdata$x	ENDS
;	COMDAT ?ParseExtraInfo@UserInfoToolTip@@UAEXAAVioXMLElement@@@Z
_TEXT	SEGMENT
$T561406 = -344						; size = 4
_iMax$ = -344						; size = 4
tv3754 = -340						; size = 4
_i$546284 = -340					; size = 4
_xElement$GSCopy$ = -336				; size = 4
_szKeyName$546288 = -332				; size = 260
__k$561844 = -72					; size = 12
__k$561719 = -56					; size = 12
_sTemp$546442 = -56					; size = 16
__k$561589 = -40					; size = 20
__k$561452 = -40					; size = 18
___encStr$546292 = -40					; size = 17
__$EHRec$ = -12						; size = 12
_xElement$ = 8						; size = 4
?ParseExtraInfo@UserInfoToolTip@@UAEXAAVioXMLElement@@@Z PROC ; UserInfoToolTip::ParseExtraInfo, COMDAT
; _this$ = ecx

; 761  : {

  00000	68 4c 01 00 00	 push	 332			; 0000014cH
  00005	b8 00 00 00 00	 mov	 eax, __ehhandler$?ParseExtraInfo@UserInfoToolTip@@UAEXAAVioXMLElement@@@Z
  0000a	e8 00 00 00 00	 call	 __EH_prolog3_GS
  0000f	8b 7d 08	 mov	 edi, DWORD PTR _xElement$[ebp]
  00012	8b d9		 mov	 ebx, ecx

; 762  : 	m_vGrowthCharIconVec.clear();

  00014	8b 83 98 01 00
	00		 mov	 eax, DWORD PTR [ebx+408]
  0001a	8b 8b 94 01 00
	00		 mov	 ecx, DWORD PTR [ebx+404]
  00020	50		 push	 eax
  00021	51		 push	 ecx
  00022	8d 85 a8 fe ff
	ff		 lea	 eax, DWORD PTR $T561406[ebp]
  00028	50		 push	 eax
  00029	8d 8b 94 01 00
	00		 lea	 ecx, DWORD PTR [ebx+404]

; 775  : 	m_dwMaxLiveTime         = xElement.GetIntAttribute_e( "MaxLiveTime" );

  0002f	89 bd b0 fe ff
	ff		 mov	 DWORD PTR _xElement$GSCopy$[ebp], edi
  00035	e8 00 00 00 00	 call	 ?erase@?$vector@VioHashString@@V?$allocator@VioHashString@@@std@@@std@@QAE?AV?$_Vector_iterator@V?$_Vector_val@VioHashString@@V?$allocator@VioHashString@@@std@@@std@@@2@V?$_Vector_const_iterator@V?$_Vector_val@VioHashString@@V?$allocator@VioHashString@@@std@@@std@@@2@0@Z ; std::vector<ioHashString,std::allocator<ioHashString> >::erase
  0003a	6a 04		 push	 4
  0003c	c7 45 d8 a0 8d
	93 ad		 mov	 DWORD PTR __k$561452[ebp], -1382838880 ; ad938da0H
  00043	c7 45 dc 9f 83
	9c 9e		 mov	 DWORD PTR __k$561452[ebp+4], -1633909857 ; 9e9c839fH
  0004a	c7 45 e0 85 af
	83 8b		 mov	 DWORD PTR __k$561452[ebp+8], -1954304123 ; 8b83af85H
  00051	c7 45 e4 9f a5
	88 85		 mov	 DWORD PTR __k$561452[ebp+12], -2054642273 ; 8588a59fH
  00058	8d 45 d8	 lea	 eax, DWORD PTR __k$561452[ebp]
  0005b	66 c7 45 e8 83
	00		 mov	 WORD PTR __k$561452[ebp+16], 131 ; 00000083H
  00061	59		 pop	 ecx
$LL227@ParseExtra:

; 763  : 
; 764  : 	int iMax = xElement.GetIntAttribute_e( "MaxGrowthCharIcon" );

  00062	81 30 ed ec eb
	ea		 xor	 DWORD PTR [eax], -353637139 ; eaebecedH
  00068	83 c0 04	 add	 eax, 4
  0006b	49		 dec	 ecx
  0006c	75 f4		 jne	 SHORT $LL227@ParseExtra
  0006e	80 75 e8 ed	 xor	 BYTE PTR __k$561452[ebp+16], -19 ; ffffffedH
  00072	8d 45 d8	 lea	 eax, DWORD PTR __k$561452[ebp]
  00075	8b cf		 mov	 ecx, edi
  00077	8b 3d 00 00 00
	00		 mov	 edi, DWORD PTR __imp_?GetIntAttribute@ioXMLElement@@QBEHPBD@Z
  0007d	50		 push	 eax
  0007e	ff d7		 call	 edi

; 765  : 	for (int i = 0; i < iMax ; i++)

  00080	83 a5 ac fe ff
	ff 00		 and	 DWORD PTR _i$546284[ebp], 0
  00087	89 85 a8 fe ff
	ff		 mov	 DWORD PTR _iMax$[ebp], eax
  0008d	85 c0		 test	 eax, eax
  0008f	0f 8e c3 00 00
	00		 jle	 $LN100@ParseExtra
$LN102@ParseExtra:

; 766  : 	{
; 767  : 		char szKeyName[MAX_PATH]="";
; 768  : 		ZeroMemory( szKeyName, sizeof( szKeyName ) );

  00095	68 04 01 00 00	 push	 260			; 00000104H
  0009a	8d 85 b4 fe ff
	ff		 lea	 eax, DWORD PTR _szKeyName$546288[ebp]
  000a0	6a 00		 push	 0
  000a2	50		 push	 eax
  000a3	e8 00 00 00 00	 call	 _memset
  000a8	83 c4 0c	 add	 esp, 12			; 0000000cH
  000ab	6a 04		 push	 4

; 769  : 		StringCbPrintf_e( szKeyName, sizeof( szKeyName ), "GrowthCharIcon%d", i+1 );

  000ad	c7 45 d8 aa 9e
	84 9d		 mov	 DWORD PTR ___encStr$546292[ebp], -1652253014 ; 9d849eaaH
  000b4	c7 45 dc 99 84
	a8 82		 mov	 DWORD PTR ___encStr$546292[ebp+4], -2102885223 ; 82a88499H
  000bb	c7 45 e0 8c 9e
	a2 89		 mov	 DWORD PTR ___encStr$546292[ebp+8], -1985831284 ; 89a29e8cH
  000c2	c7 45 e4 82 82
	ce 8e		 mov	 DWORD PTR ___encStr$546292[ebp+12], -1899068798 ; 8ece8282H
  000c9	8d 45 d8	 lea	 eax, DWORD PTR ___encStr$546292[ebp]
  000cc	c6 45 e8 00	 mov	 BYTE PTR ___encStr$546292[ebp+16], 0
  000d0	59		 pop	 ecx
$LL235@ParseExtra:
  000d1	81 30 ed ec eb
	ea		 xor	 DWORD PTR [eax], -353637139 ; eaebecedH
  000d7	83 c0 04	 add	 eax, 4
  000da	49		 dec	 ecx
  000db	75 f4		 jne	 SHORT $LL235@ParseExtra
  000dd	8b 85 ac fe ff
	ff		 mov	 eax, DWORD PTR _i$546284[ebp]
  000e3	40		 inc	 eax
  000e4	50		 push	 eax
  000e5	89 85 ac fe ff
	ff		 mov	 DWORD PTR tv3754[ebp], eax
  000eb	8d 45 d8	 lea	 eax, DWORD PTR ___encStr$546292[ebp]
  000ee	50		 push	 eax
  000ef	8d 85 b4 fe ff
	ff		 lea	 eax, DWORD PTR _szKeyName$546288[ebp]
  000f5	68 04 01 00 00	 push	 260			; 00000104H
  000fa	50		 push	 eax
  000fb	e8 00 00 00 00	 call	 ?StringCbPrintfA@@YAJPADIPBDZZ ; StringCbPrintfA

; 770  : 		ioHashString sTemp  = xElement.GetStringAttribute( szKeyName );

  00100	8b 8d b0 fe ff
	ff		 mov	 ecx, DWORD PTR _xElement$GSCopy$[ebp]
  00106	83 c4 10	 add	 esp, 16			; 00000010H
  00109	8d 85 b4 fe ff
	ff		 lea	 eax, DWORD PTR _szKeyName$546288[ebp]
  0010f	50		 push	 eax
  00110	ff 15 00 00 00
	00		 call	 DWORD PTR __imp_?GetStringAttribute@ioXMLElement@@QBEPBDPBD@Z
  00116	50		 push	 eax
  00117	8d 4d c8	 lea	 ecx, DWORD PTR _sTemp$546442[ebp]
  0011a	ff 15 00 00 00
	00		 call	 DWORD PTR __imp_??0ioHashString@@QAE@PBD@Z
  00120	83 65 fc 00	 and	 DWORD PTR __$EHRec$[ebp+8], 0

; 771  : 		m_vGrowthCharIconVec.push_back( sTemp );

  00124	8d 45 c8	 lea	 eax, DWORD PTR _sTemp$546442[ebp]
  00127	50		 push	 eax
  00128	8d 8b 94 01 00
	00		 lea	 ecx, DWORD PTR [ebx+404]
  0012e	e8 00 00 00 00	 call	 ?push_back@?$vector@VioHashString@@V?$allocator@VioHashString@@@std@@@std@@QAEXABVioHashString@@@Z ; std::vector<ioHashString,std::allocator<ioHashString> >::push_back

; 772  : 	}

  00133	83 4d fc ff	 or	 DWORD PTR __$EHRec$[ebp+8], -1
  00137	8d 4d c8	 lea	 ecx, DWORD PTR _sTemp$546442[ebp]
  0013a	ff 15 00 00 00
	00		 call	 DWORD PTR __imp_??1ioHashString@@QAE@XZ
  00140	8b 85 ac fe ff
	ff		 mov	 eax, DWORD PTR tv3754[ebp]
  00146	89 85 ac fe ff
	ff		 mov	 DWORD PTR _i$546284[ebp], eax
  0014c	3b 85 a8 fe ff
	ff		 cmp	 eax, DWORD PTR _iMax$[ebp]
  00152	0f 8c 3d ff ff
	ff		 jl	 $LN102@ParseExtra
$LN100@ParseExtra:

; 773  : 
; 774  : 	m_dwMaxRefreshDelayTime = xElement.GetIntAttribute_e( "MaxRefreshDelayTime" );

  00158	6a 04		 push	 4
  0015a	c7 45 d8 a0 8d
	93 b8		 mov	 DWORD PTR __k$561589[ebp], -1198289504 ; b8938da0H
  00161	c7 45 dc 88 8a
	99 8f		 mov	 DWORD PTR __k$561589[ebp+4], -1885762936 ; 8f998a88H
  00168	c7 45 e0 9e 84
	af 8f		 mov	 DWORD PTR __k$561589[ebp+8], -1884322658 ; 8faf849eH
  0016f	c7 45 e4 81 8d
	92 be		 mov	 DWORD PTR __k$561589[ebp+12], -1097691775 ; be928d81H
  00176	8d 45 d8	 lea	 eax, DWORD PTR __k$561589[ebp]
  00179	c7 45 e8 84 81
	8e 00		 mov	 DWORD PTR __k$561589[ebp+16], 9339268 ; 008e8184H
  00180	59		 pop	 ecx
$LL341@ParseExtra:
  00181	81 30 ed ec eb
	ea		 xor	 DWORD PTR [eax], -353637139 ; eaebecedH
  00187	83 c0 04	 add	 eax, 4
  0018a	49		 dec	 ecx
  0018b	75 f4		 jne	 SHORT $LL341@ParseExtra
  0018d	6a 10		 push	 16			; 00000010H
  0018f	5e		 pop	 esi
$LL338@ParseExtra:
  00190	8b c6		 mov	 eax, esi
  00192	25 03 00 00 80	 and	 eax, -2147483645	; 80000003H
  00197	79 05		 jns	 SHORT $LN581@ParseExtra
  00199	48		 dec	 eax
  0019a	83 c8 fc	 or	 eax, -4			; fffffffcH
  0019d	40		 inc	 eax
$LN581@ParseExtra:
  0019e	b1 ed		 mov	 cl, -19			; ffffffedH
  001a0	2a c8		 sub	 cl, al
  001a2	30 4c 35 d8	 xor	 BYTE PTR __k$561589[ebp+esi], cl
  001a6	46		 inc	 esi
  001a7	83 fe 13	 cmp	 esi, 19			; 00000013H
  001aa	7c e4		 jl	 SHORT $LL338@ParseExtra
  001ac	8b 8d b0 fe ff
	ff		 mov	 ecx, DWORD PTR _xElement$GSCopy$[ebp]
  001b2	8d 45 d8	 lea	 eax, DWORD PTR __k$561589[ebp]
  001b5	50		 push	 eax
  001b6	ff d7		 call	 edi
  001b8	6a 02		 push	 2
  001ba	89 83 a4 01 00
	00		 mov	 DWORD PTR [ebx+420], eax

; 775  : 	m_dwMaxLiveTime         = xElement.GetIntAttribute_e( "MaxLiveTime" );

  001c0	c7 45 c8 a0 8d
	93 a6		 mov	 DWORD PTR __k$561719[ebp], -1500279392 ; a6938da0H
  001c7	c7 45 cc 84 9a
	8e be		 mov	 DWORD PTR __k$561719[ebp+4], -1097950588 ; be8e9a84H
  001ce	8d 45 c8	 lea	 eax, DWORD PTR __k$561719[ebp]
  001d1	c7 45 d0 84 81
	8e 00		 mov	 DWORD PTR __k$561719[ebp+8], 9339268 ; 008e8184H
  001d8	59		 pop	 ecx
$LL447@ParseExtra:
  001d9	81 30 ed ec eb
	ea		 xor	 DWORD PTR [eax], -353637139 ; eaebecedH
  001df	83 c0 04	 add	 eax, 4
  001e2	49		 dec	 ecx
  001e3	75 f4		 jne	 SHORT $LL447@ParseExtra
  001e5	6a 08		 push	 8
  001e7	5e		 pop	 esi
$LL444@ParseExtra:
  001e8	8b c6		 mov	 eax, esi
  001ea	25 03 00 00 80	 and	 eax, -2147483645	; 80000003H
  001ef	79 05		 jns	 SHORT $LN582@ParseExtra
  001f1	48		 dec	 eax
  001f2	83 c8 fc	 or	 eax, -4			; fffffffcH
  001f5	40		 inc	 eax
$LN582@ParseExtra:
  001f6	b1 ed		 mov	 cl, -19			; ffffffedH
  001f8	2a c8		 sub	 cl, al
  001fa	30 4c 35 c8	 xor	 BYTE PTR __k$561719[ebp+esi], cl
  001fe	46		 inc	 esi
  001ff	83 fe 0b	 cmp	 esi, 11			; 0000000bH
  00202	7c e4		 jl	 SHORT $LL444@ParseExtra
  00204	8b 8d b0 fe ff
	ff		 mov	 ecx, DWORD PTR _xElement$GSCopy$[ebp]
  0020a	8d 45 c8	 lea	 eax, DWORD PTR __k$561719[ebp]
  0020d	50		 push	 eax
  0020e	ff d7		 call	 edi
  00210	6a 02		 push	 2
  00212	89 83 a8 01 00
	00		 mov	 DWORD PTR [ebx+424], eax

; 776  : 	m_dwMaxUserInfo         = xElement.GetIntAttribute_e( "MaxUserInfo" );

  00218	c7 45 b8 a0 8d
	93 bf		 mov	 DWORD PTR __k$561844[ebp], -1080848992 ; bf938da0H
  0021f	c7 45 bc 9e 89
	99 a3		 mov	 DWORD PTR __k$561844[ebp+4], -1550218850 ; a399899eH
  00226	8d 45 b8	 lea	 eax, DWORD PTR __k$561844[ebp]
  00229	c7 45 c0 83 8a
	84 00		 mov	 DWORD PTR __k$561844[ebp+8], 8686211 ; 00848a83H
  00230	59		 pop	 ecx
$LL553@ParseExtra:
  00231	81 30 ed ec eb
	ea		 xor	 DWORD PTR [eax], -353637139 ; eaebecedH
  00237	83 c0 04	 add	 eax, 4
  0023a	49		 dec	 ecx
  0023b	75 f4		 jne	 SHORT $LL553@ParseExtra
  0023d	6a 08		 push	 8
  0023f	58		 pop	 eax
$LL550@ParseExtra:
  00240	8b c8		 mov	 ecx, eax
  00242	81 e1 03 00 00
	80		 and	 ecx, -2147483645	; 80000003H
  00248	79 05		 jns	 SHORT $LN583@ParseExtra
  0024a	49		 dec	 ecx
  0024b	83 c9 fc	 or	 ecx, -4			; fffffffcH
  0024e	41		 inc	 ecx
$LN583@ParseExtra:
  0024f	b2 ed		 mov	 dl, -19			; ffffffedH
  00251	2a d1		 sub	 dl, cl
  00253	30 54 05 b8	 xor	 BYTE PTR __k$561844[ebp+eax], dl
  00257	40		 inc	 eax
  00258	83 f8 0b	 cmp	 eax, 11			; 0000000bH
  0025b	7c e3		 jl	 SHORT $LL550@ParseExtra
  0025d	8b 8d b0 fe ff
	ff		 mov	 ecx, DWORD PTR _xElement$GSCopy$[ebp]
  00263	8d 45 b8	 lea	 eax, DWORD PTR __k$561844[ebp]
  00266	50		 push	 eax
  00267	ff d7		 call	 edi
  00269	a3 00 00 00 00	 mov	 DWORD PTR ?m_dwMaxUserInfo@UserInfoToolTip@@1KA, eax ; UserInfoToolTip::m_dwMaxUserInfo

; 777  : }

  0026e	e8 00 00 00 00	 call	 __EH_epilog3_GS
  00273	c2 04 00	 ret	 4
_TEXT	ENDS
;	COMDAT text$x
text$x	SEGMENT
__unwindfunclet$?ParseExtraInfo@UserInfoToolTip@@UAEXAAVioXMLElement@@@Z$0:
  00000	8d 4d c8	 lea	 ecx, DWORD PTR _sTemp$546442[ebp]
  00003	ff 25 00 00 00
	00		 jmp	 DWORD PTR __imp_??1ioHashString@@QAE@XZ
__ehhandler$?ParseExtraInfo@UserInfoToolTip@@UAEXAAVioXMLElement@@@Z:
  00009	8b 54 24 08	 mov	 edx, DWORD PTR [esp+8]
  0000d	8d 42 0c	 lea	 eax, DWORD PTR [edx+12]
  00010	8b 8a a4 fe ff
	ff		 mov	 ecx, DWORD PTR [edx-348]
  00016	33 c8		 xor	 ecx, eax
  00018	e8 00 00 00 00	 call	 @__security_check_cookie@4
  0001d	8b 4a fc	 mov	 ecx, DWORD PTR [edx-4]
  00020	33 c8		 xor	 ecx, eax
  00022	e8 00 00 00 00	 call	 @__security_check_cookie@4
  00027	b8 00 00 00 00	 mov	 eax, OFFSET __ehfuncinfo$?ParseExtraInfo@UserInfoToolTip@@UAEXAAVioXMLElement@@@Z
  0002c	e9 00 00 00 00	 jmp	 ___CxxFrameHandler3
text$x	ENDS
?ParseExtraInfo@UserInfoToolTip@@UAEXAAVioXMLElement@@@Z ENDP ; UserInfoToolTip::ParseExtraInfo
EXTRN	_atexit:PROC
; Function compile flags: /Ogsp
;	COMDAT ??__E?m_vUserInfo@UserInfoToolTip@@1V?$vector@PAUUserInfo@UserInfoToolTip@@V?$allocator@PAUUserInfo@UserInfoToolTip@@@std@@@std@@A@@YAXXZ
text$yc	SEGMENT
??__E?m_vUserInfo@UserInfoToolTip@@1V?$vector@PAUUserInfo@UserInfoToolTip@@V?$allocator@PAUUserInfo@UserInfoToolTip@@@std@@@std@@A@@YAXXZ PROC ; `dynamic initializer for 'UserInfoToolTip::m_vUserInfo'', COMDAT

; 46   : UserInfoToolTip::vUserInfo UserInfoToolTip::m_vUserInfo;

  00000	68 00 00 00 00	 push	 OFFSET ??__F?m_vUserInfo@UserInfoToolTip@@1V?$vector@PAUUserInfo@UserInfoToolTip@@V?$allocator@PAUUserInfo@UserInfoToolTip@@@std@@@std@@A@@YAXXZ ; `dynamic atexit destructor for 'UserInfoToolTip::m_vUserInfo''
  00005	e8 00 00 00 00	 call	 _atexit
  0000a	59		 pop	 ecx
  0000b	c3		 ret	 0
??__E?m_vUserInfo@UserInfoToolTip@@1V?$vector@PAUUserInfo@UserInfoToolTip@@V?$allocator@PAUUserInfo@UserInfoToolTip@@@std@@@std@@A@@YAXXZ ENDP ; `dynamic initializer for 'UserInfoToolTip::m_vUserInfo''
; Function compile flags: /Ogsp
text$yc	ENDS
;	COMDAT ??__F?m_vUserInfo@UserInfoToolTip@@1V?$vector@PAUUserInfo@UserInfoToolTip@@V?$allocator@PAUUserInfo@UserInfoToolTip@@@std@@@std@@A@@YAXXZ
text$yd	SEGMENT
??__F?m_vUserInfo@UserInfoToolTip@@1V?$vector@PAUUserInfo@UserInfoToolTip@@V?$allocator@PAUUserInfo@UserInfoToolTip@@@std@@@std@@A@@YAXXZ PROC ; `dynamic atexit destructor for 'UserInfoToolTip::m_vUserInfo'', COMDAT
  00000	b9 00 00 00 00	 mov	 ecx, OFFSET ?m_vUserInfo@UserInfoToolTip@@1V?$vector@PAUUserInfo@UserInfoToolTip@@V?$allocator@PAUUserInfo@UserInfoToolTip@@@std@@@std@@A ; UserInfoToolTip::m_vUserInfo
  00005	e9 00 00 00 00	 jmp	 ?_Tidy@?$vector@PAUUserInfo@UserInfoToolTip@@V?$allocator@PAUUserInfo@UserInfoToolTip@@@std@@@std@@IAEXXZ ; std::vector<UserInfoToolTip::UserInfo *,std::allocator<UserInfoToolTip::UserInfo *> >::_Tidy
??__F?m_vUserInfo@UserInfoToolTip@@1V?$vector@PAUUserInfo@UserInfoToolTip@@V?$allocator@PAUUserInfo@UserInfoToolTip@@@std@@@std@@A@@YAXXZ ENDP ; `dynamic atexit destructor for 'UserInfoToolTip::m_vUserInfo''
text$yd	ENDS
PUBLIC	?m_vUserInfo@UserInfoToolTip@@1V?$vector@PAUUserInfo@UserInfoToolTip@@V?$allocator@PAUUserInfo@UserInfoToolTip@@@std@@@std@@A ; UserInfoToolTip::m_vUserInfo
_BSS	SEGMENT
?m_vUserInfo@UserInfoToolTip@@1V?$vector@PAUUserInfo@UserInfoToolTip@@V?$allocator@PAUUserInfo@UserInfoToolTip@@@std@@@std@@A DB 010H DUP (?) ; UserInfoToolTip::m_vUserInfo
_BSS	ENDS
CRT$XCU	SEGMENT
?m_vUserInfo$initializer$@UserInfoToolTip@@1P6AXXZA DD FLAT:??__E?m_vUserInfo@UserInfoToolTip@@1V?$vector@PAUUserInfo@UserInfoToolTip@@V?$allocator@PAUUserInfo@UserInfoToolTip@@@std@@@std@@A@@YAXXZ ; UserInfoToolTip::m_vUserInfo$initializer$
CRT$XCU	ENDS
END
